ARM GAS  C:\Users\SOLDER~1\AppData\Local\Temp\ccUUcBce.s 			page 1


   1              		.cpu cortex-m0plus
   2              		.arch armv6s-m
   3              		.fpu softvfp
   4              		.eabi_attribute 20, 1
   5              		.eabi_attribute 21, 1
   6              		.eabi_attribute 23, 3
   7              		.eabi_attribute 24, 1
   8              		.eabi_attribute 25, 1
   9              		.eabi_attribute 26, 1
  10              		.eabi_attribute 30, 6
  11              		.eabi_attribute 34, 0
  12              		.eabi_attribute 18, 4
  13              		.file	"stm32g0xx_hal_rcc_ex.c"
  14              		.text
  15              	.Ltext0:
  16              		.cfi_sections	.debug_frame
  17              		.section	.rodata.CHANNEL_OFFSET_TAB,"a"
  18              		.align	2
  21              	CHANNEL_OFFSET_TAB:
  22 0000 081C3044 		.ascii	"\010\0340DXl\200"
  22      586C80
  23              		.section	.text.HAL_RCCEx_PeriphCLKConfig,"ax",%progbits
  24              		.align	1
  25              		.global	HAL_RCCEx_PeriphCLKConfig
  26              		.syntax unified
  27              		.code	16
  28              		.thumb_func
  30              	HAL_RCCEx_PeriphCLKConfig:
  31              	.LFB355:
  32              		.file 1 "Drivers/STM32G0xx_HAL_Driver/Src/stm32g0xx_hal_rcc_ex.c"
   1:Drivers/STM32G0xx_HAL_Driver/Src/stm32g0xx_hal_rcc_ex.c **** /**
   2:Drivers/STM32G0xx_HAL_Driver/Src/stm32g0xx_hal_rcc_ex.c ****   ******************************************************************************
   3:Drivers/STM32G0xx_HAL_Driver/Src/stm32g0xx_hal_rcc_ex.c ****   * @file    stm32g0xx_hal_rcc_ex.c
   4:Drivers/STM32G0xx_HAL_Driver/Src/stm32g0xx_hal_rcc_ex.c ****   * @author  MCD Application Team
   5:Drivers/STM32G0xx_HAL_Driver/Src/stm32g0xx_hal_rcc_ex.c ****   * @brief   Extended RCC HAL module driver.
   6:Drivers/STM32G0xx_HAL_Driver/Src/stm32g0xx_hal_rcc_ex.c ****   *          This file provides firmware functions to manage the following
   7:Drivers/STM32G0xx_HAL_Driver/Src/stm32g0xx_hal_rcc_ex.c ****   *          functionalities RCC extended peripheral:
   8:Drivers/STM32G0xx_HAL_Driver/Src/stm32g0xx_hal_rcc_ex.c ****   *           + Extended Peripheral Control functions
   9:Drivers/STM32G0xx_HAL_Driver/Src/stm32g0xx_hal_rcc_ex.c ****   *           + Extended Clock management functions
  10:Drivers/STM32G0xx_HAL_Driver/Src/stm32g0xx_hal_rcc_ex.c ****   *           + Extended Clock Recovery System Control functions
  11:Drivers/STM32G0xx_HAL_Driver/Src/stm32g0xx_hal_rcc_ex.c ****   *
  12:Drivers/STM32G0xx_HAL_Driver/Src/stm32g0xx_hal_rcc_ex.c ****   ******************************************************************************
  13:Drivers/STM32G0xx_HAL_Driver/Src/stm32g0xx_hal_rcc_ex.c ****   * @attention
  14:Drivers/STM32G0xx_HAL_Driver/Src/stm32g0xx_hal_rcc_ex.c ****   *
  15:Drivers/STM32G0xx_HAL_Driver/Src/stm32g0xx_hal_rcc_ex.c ****   * <h2><center>&copy; Copyright (c) 2018 STMicroelectronics.
  16:Drivers/STM32G0xx_HAL_Driver/Src/stm32g0xx_hal_rcc_ex.c ****   * All rights reserved.</center></h2>
  17:Drivers/STM32G0xx_HAL_Driver/Src/stm32g0xx_hal_rcc_ex.c ****   *
  18:Drivers/STM32G0xx_HAL_Driver/Src/stm32g0xx_hal_rcc_ex.c ****   * This software component is licensed by ST under BSD 3-Clause license,
  19:Drivers/STM32G0xx_HAL_Driver/Src/stm32g0xx_hal_rcc_ex.c ****   * the "License"; You may not use this file except in compliance with the
  20:Drivers/STM32G0xx_HAL_Driver/Src/stm32g0xx_hal_rcc_ex.c ****   * License. You may obtain a copy of the License at:
  21:Drivers/STM32G0xx_HAL_Driver/Src/stm32g0xx_hal_rcc_ex.c ****   *                        opensource.org/licenses/BSD-3-Clause
  22:Drivers/STM32G0xx_HAL_Driver/Src/stm32g0xx_hal_rcc_ex.c ****   *
  23:Drivers/STM32G0xx_HAL_Driver/Src/stm32g0xx_hal_rcc_ex.c ****   ******************************************************************************
  24:Drivers/STM32G0xx_HAL_Driver/Src/stm32g0xx_hal_rcc_ex.c ****   */
  25:Drivers/STM32G0xx_HAL_Driver/Src/stm32g0xx_hal_rcc_ex.c **** 
  26:Drivers/STM32G0xx_HAL_Driver/Src/stm32g0xx_hal_rcc_ex.c **** /* Includes ------------------------------------------------------------------*/
  27:Drivers/STM32G0xx_HAL_Driver/Src/stm32g0xx_hal_rcc_ex.c **** #include "stm32g0xx_hal.h"
ARM GAS  C:\Users\SOLDER~1\AppData\Local\Temp\ccUUcBce.s 			page 2


  28:Drivers/STM32G0xx_HAL_Driver/Src/stm32g0xx_hal_rcc_ex.c **** 
  29:Drivers/STM32G0xx_HAL_Driver/Src/stm32g0xx_hal_rcc_ex.c **** /** @addtogroup STM32G0xx_HAL_Driver
  30:Drivers/STM32G0xx_HAL_Driver/Src/stm32g0xx_hal_rcc_ex.c ****   * @{
  31:Drivers/STM32G0xx_HAL_Driver/Src/stm32g0xx_hal_rcc_ex.c ****   */
  32:Drivers/STM32G0xx_HAL_Driver/Src/stm32g0xx_hal_rcc_ex.c **** 
  33:Drivers/STM32G0xx_HAL_Driver/Src/stm32g0xx_hal_rcc_ex.c **** /** @defgroup RCCEx RCCEx
  34:Drivers/STM32G0xx_HAL_Driver/Src/stm32g0xx_hal_rcc_ex.c ****   * @brief RCC Extended HAL module driver
  35:Drivers/STM32G0xx_HAL_Driver/Src/stm32g0xx_hal_rcc_ex.c ****   * @{
  36:Drivers/STM32G0xx_HAL_Driver/Src/stm32g0xx_hal_rcc_ex.c ****   */
  37:Drivers/STM32G0xx_HAL_Driver/Src/stm32g0xx_hal_rcc_ex.c **** 
  38:Drivers/STM32G0xx_HAL_Driver/Src/stm32g0xx_hal_rcc_ex.c **** #ifdef HAL_RCC_MODULE_ENABLED
  39:Drivers/STM32G0xx_HAL_Driver/Src/stm32g0xx_hal_rcc_ex.c **** 
  40:Drivers/STM32G0xx_HAL_Driver/Src/stm32g0xx_hal_rcc_ex.c **** /* Private typedef -----------------------------------------------------------*/
  41:Drivers/STM32G0xx_HAL_Driver/Src/stm32g0xx_hal_rcc_ex.c **** /* Private defines -----------------------------------------------------------*/
  42:Drivers/STM32G0xx_HAL_Driver/Src/stm32g0xx_hal_rcc_ex.c **** /** @defgroup RCCEx_Private_Constants RCCEx Private Constants
  43:Drivers/STM32G0xx_HAL_Driver/Src/stm32g0xx_hal_rcc_ex.c ****   * @{
  44:Drivers/STM32G0xx_HAL_Driver/Src/stm32g0xx_hal_rcc_ex.c ****   */
  45:Drivers/STM32G0xx_HAL_Driver/Src/stm32g0xx_hal_rcc_ex.c **** #define PLL_TIMEOUT_VALUE        100U /* 100 ms (minimum Tick + 1)  */
  46:Drivers/STM32G0xx_HAL_Driver/Src/stm32g0xx_hal_rcc_ex.c **** 
  47:Drivers/STM32G0xx_HAL_Driver/Src/stm32g0xx_hal_rcc_ex.c **** #define LSCO_CLK_ENABLE()     __HAL_RCC_GPIOA_CLK_ENABLE()
  48:Drivers/STM32G0xx_HAL_Driver/Src/stm32g0xx_hal_rcc_ex.c **** #define LSCO_GPIO_PORT        GPIOA
  49:Drivers/STM32G0xx_HAL_Driver/Src/stm32g0xx_hal_rcc_ex.c **** #define LSCO_PIN              GPIO_PIN_2
  50:Drivers/STM32G0xx_HAL_Driver/Src/stm32g0xx_hal_rcc_ex.c **** /**
  51:Drivers/STM32G0xx_HAL_Driver/Src/stm32g0xx_hal_rcc_ex.c ****   * @}
  52:Drivers/STM32G0xx_HAL_Driver/Src/stm32g0xx_hal_rcc_ex.c ****   */
  53:Drivers/STM32G0xx_HAL_Driver/Src/stm32g0xx_hal_rcc_ex.c **** 
  54:Drivers/STM32G0xx_HAL_Driver/Src/stm32g0xx_hal_rcc_ex.c **** /* Private macros ------------------------------------------------------------*/
  55:Drivers/STM32G0xx_HAL_Driver/Src/stm32g0xx_hal_rcc_ex.c **** /* Private variables ---------------------------------------------------------*/
  56:Drivers/STM32G0xx_HAL_Driver/Src/stm32g0xx_hal_rcc_ex.c **** /* Private function prototypes -----------------------------------------------*/
  57:Drivers/STM32G0xx_HAL_Driver/Src/stm32g0xx_hal_rcc_ex.c **** /* Exported functions --------------------------------------------------------*/
  58:Drivers/STM32G0xx_HAL_Driver/Src/stm32g0xx_hal_rcc_ex.c **** 
  59:Drivers/STM32G0xx_HAL_Driver/Src/stm32g0xx_hal_rcc_ex.c **** /** @defgroup RCCEx_Exported_Functions RCCEx Exported Functions
  60:Drivers/STM32G0xx_HAL_Driver/Src/stm32g0xx_hal_rcc_ex.c ****   * @{
  61:Drivers/STM32G0xx_HAL_Driver/Src/stm32g0xx_hal_rcc_ex.c ****   */
  62:Drivers/STM32G0xx_HAL_Driver/Src/stm32g0xx_hal_rcc_ex.c **** 
  63:Drivers/STM32G0xx_HAL_Driver/Src/stm32g0xx_hal_rcc_ex.c **** /** @defgroup RCCEx_Exported_Functions_Group1 Extended Peripheral Control functions
  64:Drivers/STM32G0xx_HAL_Driver/Src/stm32g0xx_hal_rcc_ex.c ****   * @brief  Extended Peripheral Control functions
  65:Drivers/STM32G0xx_HAL_Driver/Src/stm32g0xx_hal_rcc_ex.c ****   *
  66:Drivers/STM32G0xx_HAL_Driver/Src/stm32g0xx_hal_rcc_ex.c **** @verbatim
  67:Drivers/STM32G0xx_HAL_Driver/Src/stm32g0xx_hal_rcc_ex.c ****  ===============================================================================
  68:Drivers/STM32G0xx_HAL_Driver/Src/stm32g0xx_hal_rcc_ex.c ****                 ##### Extended Peripheral Control functions  #####
  69:Drivers/STM32G0xx_HAL_Driver/Src/stm32g0xx_hal_rcc_ex.c ****  ===============================================================================
  70:Drivers/STM32G0xx_HAL_Driver/Src/stm32g0xx_hal_rcc_ex.c ****     [..]
  71:Drivers/STM32G0xx_HAL_Driver/Src/stm32g0xx_hal_rcc_ex.c ****     This subsection provides a set of functions allowing to control the RCC Clocks
  72:Drivers/STM32G0xx_HAL_Driver/Src/stm32g0xx_hal_rcc_ex.c ****     frequencies.
  73:Drivers/STM32G0xx_HAL_Driver/Src/stm32g0xx_hal_rcc_ex.c ****     [..]
  74:Drivers/STM32G0xx_HAL_Driver/Src/stm32g0xx_hal_rcc_ex.c ****     (@) Important note: Care must be taken when @ref HAL_RCCEx_PeriphCLKConfig() is used to
  75:Drivers/STM32G0xx_HAL_Driver/Src/stm32g0xx_hal_rcc_ex.c ****         select the RTC clock source; in this case the Backup domain will be reset in
  76:Drivers/STM32G0xx_HAL_Driver/Src/stm32g0xx_hal_rcc_ex.c ****         order to modify the RTC Clock source, as consequence RTC registers (including
  77:Drivers/STM32G0xx_HAL_Driver/Src/stm32g0xx_hal_rcc_ex.c ****         the backup registers) and RCC_BDCR register are set to their reset values.
  78:Drivers/STM32G0xx_HAL_Driver/Src/stm32g0xx_hal_rcc_ex.c **** 
  79:Drivers/STM32G0xx_HAL_Driver/Src/stm32g0xx_hal_rcc_ex.c **** @endverbatim
  80:Drivers/STM32G0xx_HAL_Driver/Src/stm32g0xx_hal_rcc_ex.c ****   * @{
  81:Drivers/STM32G0xx_HAL_Driver/Src/stm32g0xx_hal_rcc_ex.c ****   */
  82:Drivers/STM32G0xx_HAL_Driver/Src/stm32g0xx_hal_rcc_ex.c **** /**
  83:Drivers/STM32G0xx_HAL_Driver/Src/stm32g0xx_hal_rcc_ex.c ****   * @brief  Initialize the RCC extended peripherals clocks according to the specified
  84:Drivers/STM32G0xx_HAL_Driver/Src/stm32g0xx_hal_rcc_ex.c ****   *         parameters in the @ref RCC_PeriphCLKInitTypeDef.
ARM GAS  C:\Users\SOLDER~1\AppData\Local\Temp\ccUUcBce.s 			page 3


  85:Drivers/STM32G0xx_HAL_Driver/Src/stm32g0xx_hal_rcc_ex.c ****   * @param  PeriphClkInit  pointer to a @ref RCC_PeriphCLKInitTypeDef structure that
  86:Drivers/STM32G0xx_HAL_Driver/Src/stm32g0xx_hal_rcc_ex.c ****   *         contains a field PeriphClockSelection which can be a combination of the following value
  87:Drivers/STM32G0xx_HAL_Driver/Src/stm32g0xx_hal_rcc_ex.c ****   *            @arg @ref RCC_PERIPHCLK_RTC     RTC peripheral clock
  88:Drivers/STM32G0xx_HAL_Driver/Src/stm32g0xx_hal_rcc_ex.c ****   *            @arg @ref RCC_PERIPHCLK_ADC     ADC peripheral clock
  89:Drivers/STM32G0xx_HAL_Driver/Src/stm32g0xx_hal_rcc_ex.c ****   *            @arg @ref RCC_PERIPHCLK_I2C1    I2C1 peripheral clock
  90:Drivers/STM32G0xx_HAL_Driver/Src/stm32g0xx_hal_rcc_ex.c ****   *            @arg @ref RCC_PERIPHCLK_I2C2    I2C2 peripheral clock (2)
  91:Drivers/STM32G0xx_HAL_Driver/Src/stm32g0xx_hal_rcc_ex.c ****   *            @arg @ref RCC_PERIPHCLK_I2S1    I2S1 peripheral clock
  92:Drivers/STM32G0xx_HAL_Driver/Src/stm32g0xx_hal_rcc_ex.c ****   *            @arg @ref RCC_PERIPHCLK_I2S2    I2S2 peripheral clock (1)
  93:Drivers/STM32G0xx_HAL_Driver/Src/stm32g0xx_hal_rcc_ex.c ****   *            @arg @ref RCC_PERIPHCLK_USART1  USART1 peripheral clock
  94:Drivers/STM32G0xx_HAL_Driver/Src/stm32g0xx_hal_rcc_ex.c ****   *            @arg @ref RCC_PERIPHCLK_CEC     CEC peripheral clock     (1)
  95:Drivers/STM32G0xx_HAL_Driver/Src/stm32g0xx_hal_rcc_ex.c ****   *            @arg @ref RCC_PERIPHCLK_LPTIM1  LPTIM1 peripheral clock  (1)
  96:Drivers/STM32G0xx_HAL_Driver/Src/stm32g0xx_hal_rcc_ex.c ****   *            @arg @ref RCC_PERIPHCLK_LPTIM2  LPTIM2 peripheral clock  (1)
  97:Drivers/STM32G0xx_HAL_Driver/Src/stm32g0xx_hal_rcc_ex.c ****   *            @arg @ref RCC_PERIPHCLK_LPUART1 LPUART1 peripheral clock (1)
  98:Drivers/STM32G0xx_HAL_Driver/Src/stm32g0xx_hal_rcc_ex.c ****   *            @arg @ref RCC_PERIPHCLK_LPUART2 LPUART2 peripheral clock (1)
  99:Drivers/STM32G0xx_HAL_Driver/Src/stm32g0xx_hal_rcc_ex.c ****   *            @arg @ref RCC_PERIPHCLK_RNG     RNG peripheral clock     (1)
 100:Drivers/STM32G0xx_HAL_Driver/Src/stm32g0xx_hal_rcc_ex.c ****   *            @arg @ref RCC_PERIPHCLK_TIM1    TIM1 peripheral clock    (1)(2)
 101:Drivers/STM32G0xx_HAL_Driver/Src/stm32g0xx_hal_rcc_ex.c ****   *            @arg @ref RCC_PERIPHCLK_TIM15   TIM15 peripheral clock   (1)(2)
 102:Drivers/STM32G0xx_HAL_Driver/Src/stm32g0xx_hal_rcc_ex.c ****   *            @arg @ref RCC_PERIPHCLK_USART2  USART2 peripheral clock     (2)
 103:Drivers/STM32G0xx_HAL_Driver/Src/stm32g0xx_hal_rcc_ex.c ****   *            @arg @ref RCC_PERIPHCLK_USART3  USART3 peripheral clock     (2)
 104:Drivers/STM32G0xx_HAL_Driver/Src/stm32g0xx_hal_rcc_ex.c ****   *            @arg @ref RCC_PERIPHCLK_FDCAN   FDCAN peripheral clock   (1)
 105:Drivers/STM32G0xx_HAL_Driver/Src/stm32g0xx_hal_rcc_ex.c ****   *            @arg @ref RCC_PERIPHCLK_USB     USB peripheral clock     (1)
 106:Drivers/STM32G0xx_HAL_Driver/Src/stm32g0xx_hal_rcc_ex.c ****   *
 107:Drivers/STM32G0xx_HAL_Driver/Src/stm32g0xx_hal_rcc_ex.c ****   * @note   (1) Peripherals are not available on all devices
 108:Drivers/STM32G0xx_HAL_Driver/Src/stm32g0xx_hal_rcc_ex.c ****   * @note   (2) Peripherals clock selection is not available on all devices
 109:Drivers/STM32G0xx_HAL_Driver/Src/stm32g0xx_hal_rcc_ex.c ****   * @note   Care must be taken when @ref HAL_RCCEx_PeriphCLKConfig() is used to select
 110:Drivers/STM32G0xx_HAL_Driver/Src/stm32g0xx_hal_rcc_ex.c ****   *         the RTC clock source: in this case the access to Backup domain is enabled.
 111:Drivers/STM32G0xx_HAL_Driver/Src/stm32g0xx_hal_rcc_ex.c ****   *
 112:Drivers/STM32G0xx_HAL_Driver/Src/stm32g0xx_hal_rcc_ex.c ****   * @retval HAL status
 113:Drivers/STM32G0xx_HAL_Driver/Src/stm32g0xx_hal_rcc_ex.c ****   */
 114:Drivers/STM32G0xx_HAL_Driver/Src/stm32g0xx_hal_rcc_ex.c **** HAL_StatusTypeDef HAL_RCCEx_PeriphCLKConfig(RCC_PeriphCLKInitTypeDef  *PeriphClkInit)
 115:Drivers/STM32G0xx_HAL_Driver/Src/stm32g0xx_hal_rcc_ex.c **** {
  33              		.loc 1 115 1
  34              		.cfi_startproc
  35              		@ args = 0, pretend = 0, frame = 24
  36              		@ frame_needed = 1, uses_anonymous_args = 0
  37 0000 80B5     		push	{r7, lr}
  38              		.cfi_def_cfa_offset 8
  39              		.cfi_offset 7, -8
  40              		.cfi_offset 14, -4
  41 0002 86B0     		sub	sp, sp, #24
  42              		.cfi_def_cfa_offset 32
  43 0004 00AF     		add	r7, sp, #0
  44              		.cfi_def_cfa_register 7
  45 0006 7860     		str	r0, [r7, #4]
 116:Drivers/STM32G0xx_HAL_Driver/Src/stm32g0xx_hal_rcc_ex.c ****   uint32_t tmpregister;
 117:Drivers/STM32G0xx_HAL_Driver/Src/stm32g0xx_hal_rcc_ex.c ****   uint32_t tickstart;
 118:Drivers/STM32G0xx_HAL_Driver/Src/stm32g0xx_hal_rcc_ex.c ****   HAL_StatusTypeDef ret    = HAL_OK;   /* Intermediate status */
  46              		.loc 1 118 21
  47 0008 1323     		movs	r3, #19
  48 000a FB18     		adds	r3, r7, r3
  49 000c 0022     		movs	r2, #0
  50 000e 1A70     		strb	r2, [r3]
 119:Drivers/STM32G0xx_HAL_Driver/Src/stm32g0xx_hal_rcc_ex.c ****   HAL_StatusTypeDef status = HAL_OK;   /* Final status */
  51              		.loc 1 119 21
  52 0010 1223     		movs	r3, #18
  53 0012 FB18     		adds	r3, r7, r3
  54 0014 0022     		movs	r2, #0
ARM GAS  C:\Users\SOLDER~1\AppData\Local\Temp\ccUUcBce.s 			page 4


  55 0016 1A70     		strb	r2, [r3]
 120:Drivers/STM32G0xx_HAL_Driver/Src/stm32g0xx_hal_rcc_ex.c **** 
 121:Drivers/STM32G0xx_HAL_Driver/Src/stm32g0xx_hal_rcc_ex.c ****   /* Check the parameters */
 122:Drivers/STM32G0xx_HAL_Driver/Src/stm32g0xx_hal_rcc_ex.c ****   assert_param(IS_RCC_PERIPHCLOCK(PeriphClkInit->PeriphClockSelection));
 123:Drivers/STM32G0xx_HAL_Driver/Src/stm32g0xx_hal_rcc_ex.c **** 
 124:Drivers/STM32G0xx_HAL_Driver/Src/stm32g0xx_hal_rcc_ex.c ****   /*-------------------------- RTC clock source configuration ----------------------*/
 125:Drivers/STM32G0xx_HAL_Driver/Src/stm32g0xx_hal_rcc_ex.c ****   if ((PeriphClkInit->PeriphClockSelection & RCC_PERIPHCLK_RTC) == RCC_PERIPHCLK_RTC)
  56              		.loc 1 125 21
  57 0018 7B68     		ldr	r3, [r7, #4]
  58 001a 1A68     		ldr	r2, [r3]
  59              		.loc 1 125 44
  60 001c 8023     		movs	r3, #128
  61 001e 9B02     		lsls	r3, r3, #10
  62 0020 1340     		ands	r3, r2
  63              		.loc 1 125 6
  64 0022 00D1     		bne	.LCB27
  65 0024 ADE0     		b	.L2	@long jump
  66              	.LCB27:
  67              	.LBB2:
 126:Drivers/STM32G0xx_HAL_Driver/Src/stm32g0xx_hal_rcc_ex.c ****   {
 127:Drivers/STM32G0xx_HAL_Driver/Src/stm32g0xx_hal_rcc_ex.c ****     FlagStatus       pwrclkchanged = RESET;
  68              		.loc 1 127 22
  69 0026 1120     		movs	r0, #17
  70 0028 3B18     		adds	r3, r7, r0
  71 002a 0022     		movs	r2, #0
  72 002c 1A70     		strb	r2, [r3]
 128:Drivers/STM32G0xx_HAL_Driver/Src/stm32g0xx_hal_rcc_ex.c **** 
 129:Drivers/STM32G0xx_HAL_Driver/Src/stm32g0xx_hal_rcc_ex.c ****     /* Check for RTC Parameters used to output RTCCLK */
 130:Drivers/STM32G0xx_HAL_Driver/Src/stm32g0xx_hal_rcc_ex.c ****     assert_param(IS_RCC_RTCCLKSOURCE(PeriphClkInit->RTCClockSelection));
 131:Drivers/STM32G0xx_HAL_Driver/Src/stm32g0xx_hal_rcc_ex.c **** 
 132:Drivers/STM32G0xx_HAL_Driver/Src/stm32g0xx_hal_rcc_ex.c ****     /* Enable Power Clock */
 133:Drivers/STM32G0xx_HAL_Driver/Src/stm32g0xx_hal_rcc_ex.c ****     if (__HAL_RCC_PWR_IS_CLK_DISABLED())
  73              		.loc 1 133 9
  74 002e 474B     		ldr	r3, .L32
  75 0030 DA6B     		ldr	r2, [r3, #60]
  76 0032 8023     		movs	r3, #128
  77 0034 5B05     		lsls	r3, r3, #21
  78 0036 1340     		ands	r3, r2
  79              		.loc 1 133 8
  80 0038 10D1     		bne	.L3
  81              	.LBB3:
 134:Drivers/STM32G0xx_HAL_Driver/Src/stm32g0xx_hal_rcc_ex.c ****     {
 135:Drivers/STM32G0xx_HAL_Driver/Src/stm32g0xx_hal_rcc_ex.c ****       __HAL_RCC_PWR_CLK_ENABLE();
  82              		.loc 1 135 7
  83 003a 444B     		ldr	r3, .L32
  84 003c DA6B     		ldr	r2, [r3, #60]
  85 003e 434B     		ldr	r3, .L32
  86 0040 8021     		movs	r1, #128
  87 0042 4905     		lsls	r1, r1, #21
  88 0044 0A43     		orrs	r2, r1
  89 0046 DA63     		str	r2, [r3, #60]
  90 0048 404B     		ldr	r3, .L32
  91 004a DA6B     		ldr	r2, [r3, #60]
  92 004c 8023     		movs	r3, #128
  93 004e 5B05     		lsls	r3, r3, #21
  94 0050 1340     		ands	r3, r2
  95 0052 BB60     		str	r3, [r7, #8]
ARM GAS  C:\Users\SOLDER~1\AppData\Local\Temp\ccUUcBce.s 			page 5


  96 0054 BB68     		ldr	r3, [r7, #8]
  97              	.LBE3:
 136:Drivers/STM32G0xx_HAL_Driver/Src/stm32g0xx_hal_rcc_ex.c ****       pwrclkchanged = SET;
  98              		.loc 1 136 21
  99 0056 3B18     		adds	r3, r7, r0
 100 0058 0122     		movs	r2, #1
 101 005a 1A70     		strb	r2, [r3]
 102              	.L3:
 137:Drivers/STM32G0xx_HAL_Driver/Src/stm32g0xx_hal_rcc_ex.c ****     }
 138:Drivers/STM32G0xx_HAL_Driver/Src/stm32g0xx_hal_rcc_ex.c **** 
 139:Drivers/STM32G0xx_HAL_Driver/Src/stm32g0xx_hal_rcc_ex.c ****     /* Enable write access to Backup domain */
 140:Drivers/STM32G0xx_HAL_Driver/Src/stm32g0xx_hal_rcc_ex.c ****     SET_BIT(PWR->CR1, PWR_CR1_DBP);
 103              		.loc 1 140 5
 104 005c 3C4B     		ldr	r3, .L32+4
 105 005e 1A68     		ldr	r2, [r3]
 106 0060 3B4B     		ldr	r3, .L32+4
 107 0062 8021     		movs	r1, #128
 108 0064 4900     		lsls	r1, r1, #1
 109 0066 0A43     		orrs	r2, r1
 110 0068 1A60     		str	r2, [r3]
 141:Drivers/STM32G0xx_HAL_Driver/Src/stm32g0xx_hal_rcc_ex.c **** 
 142:Drivers/STM32G0xx_HAL_Driver/Src/stm32g0xx_hal_rcc_ex.c ****     /* Wait for Backup domain Write protection disable */
 143:Drivers/STM32G0xx_HAL_Driver/Src/stm32g0xx_hal_rcc_ex.c ****     tickstart = HAL_GetTick();
 111              		.loc 1 143 17
 112 006a FFF7FEFF 		bl	HAL_GetTick
 113 006e 0300     		movs	r3, r0
 114 0070 FB60     		str	r3, [r7, #12]
 144:Drivers/STM32G0xx_HAL_Driver/Src/stm32g0xx_hal_rcc_ex.c **** 
 145:Drivers/STM32G0xx_HAL_Driver/Src/stm32g0xx_hal_rcc_ex.c ****     while ((PWR->CR1 & PWR_CR1_DBP) == 0U)
 115              		.loc 1 145 11
 116 0072 0BE0     		b	.L4
 117              	.L6:
 146:Drivers/STM32G0xx_HAL_Driver/Src/stm32g0xx_hal_rcc_ex.c ****     {
 147:Drivers/STM32G0xx_HAL_Driver/Src/stm32g0xx_hal_rcc_ex.c ****       if ((HAL_GetTick() - tickstart) > RCC_DBP_TIMEOUT_VALUE)
 118              		.loc 1 147 12
 119 0074 FFF7FEFF 		bl	HAL_GetTick
 120 0078 0200     		movs	r2, r0
 121              		.loc 1 147 26
 122 007a FB68     		ldr	r3, [r7, #12]
 123 007c D31A     		subs	r3, r2, r3
 124              		.loc 1 147 10
 125 007e 022B     		cmp	r3, #2
 126 0080 04D9     		bls	.L4
 148:Drivers/STM32G0xx_HAL_Driver/Src/stm32g0xx_hal_rcc_ex.c ****       {
 149:Drivers/STM32G0xx_HAL_Driver/Src/stm32g0xx_hal_rcc_ex.c ****         ret = HAL_TIMEOUT;
 127              		.loc 1 149 13
 128 0082 1323     		movs	r3, #19
 129 0084 FB18     		adds	r3, r7, r3
 130 0086 0322     		movs	r2, #3
 131 0088 1A70     		strb	r2, [r3]
 150:Drivers/STM32G0xx_HAL_Driver/Src/stm32g0xx_hal_rcc_ex.c ****         break;
 132              		.loc 1 150 9
 133 008a 05E0     		b	.L5
 134              	.L4:
 145:Drivers/STM32G0xx_HAL_Driver/Src/stm32g0xx_hal_rcc_ex.c ****     {
 135              		.loc 1 145 16
 136 008c 304B     		ldr	r3, .L32+4
ARM GAS  C:\Users\SOLDER~1\AppData\Local\Temp\ccUUcBce.s 			page 6


 137 008e 1A68     		ldr	r2, [r3]
 145:Drivers/STM32G0xx_HAL_Driver/Src/stm32g0xx_hal_rcc_ex.c ****     {
 138              		.loc 1 145 22
 139 0090 8023     		movs	r3, #128
 140 0092 5B00     		lsls	r3, r3, #1
 141 0094 1340     		ands	r3, r2
 145:Drivers/STM32G0xx_HAL_Driver/Src/stm32g0xx_hal_rcc_ex.c ****     {
 142              		.loc 1 145 11
 143 0096 EDD0     		beq	.L6
 144              	.L5:
 151:Drivers/STM32G0xx_HAL_Driver/Src/stm32g0xx_hal_rcc_ex.c ****       }
 152:Drivers/STM32G0xx_HAL_Driver/Src/stm32g0xx_hal_rcc_ex.c ****     }
 153:Drivers/STM32G0xx_HAL_Driver/Src/stm32g0xx_hal_rcc_ex.c **** 
 154:Drivers/STM32G0xx_HAL_Driver/Src/stm32g0xx_hal_rcc_ex.c ****     if (ret == HAL_OK)
 145              		.loc 1 154 8
 146 0098 1323     		movs	r3, #19
 147 009a FB18     		adds	r3, r7, r3
 148 009c 1B78     		ldrb	r3, [r3]
 149 009e 002B     		cmp	r3, #0
 150 00a0 5ED1     		bne	.L7
 155:Drivers/STM32G0xx_HAL_Driver/Src/stm32g0xx_hal_rcc_ex.c ****     {
 156:Drivers/STM32G0xx_HAL_Driver/Src/stm32g0xx_hal_rcc_ex.c ****       /* Reset the Backup domain only if the RTC Clock source selection is modified from default */
 157:Drivers/STM32G0xx_HAL_Driver/Src/stm32g0xx_hal_rcc_ex.c ****       tmpregister = READ_BIT(RCC->BDCR, RCC_BDCR_RTCSEL);
 151              		.loc 1 157 21
 152 00a2 2A4B     		ldr	r3, .L32
 153 00a4 DA6D     		ldr	r2, [r3, #92]
 154              		.loc 1 157 19
 155 00a6 C023     		movs	r3, #192
 156 00a8 9B00     		lsls	r3, r3, #2
 157 00aa 1340     		ands	r3, r2
 158 00ac 7B61     		str	r3, [r7, #20]
 158:Drivers/STM32G0xx_HAL_Driver/Src/stm32g0xx_hal_rcc_ex.c **** 
 159:Drivers/STM32G0xx_HAL_Driver/Src/stm32g0xx_hal_rcc_ex.c ****       /* Reset the Backup domain only if the RTC Clock source selection is modified */
 160:Drivers/STM32G0xx_HAL_Driver/Src/stm32g0xx_hal_rcc_ex.c ****       if ((tmpregister != RCC_RTCCLKSOURCE_NONE) && (tmpregister != PeriphClkInit->RTCClockSelectio
 159              		.loc 1 160 10
 160 00ae 7B69     		ldr	r3, [r7, #20]
 161 00b0 002B     		cmp	r3, #0
 162 00b2 19D0     		beq	.L8
 163              		.loc 1 160 82 discriminator 1
 164 00b4 7B68     		ldr	r3, [r7, #4]
 165 00b6 1B6C     		ldr	r3, [r3, #64]
 166              		.loc 1 160 50 discriminator 1
 167 00b8 7A69     		ldr	r2, [r7, #20]
 168 00ba 9A42     		cmp	r2, r3
 169 00bc 14D0     		beq	.L8
 161:Drivers/STM32G0xx_HAL_Driver/Src/stm32g0xx_hal_rcc_ex.c ****       {
 162:Drivers/STM32G0xx_HAL_Driver/Src/stm32g0xx_hal_rcc_ex.c ****         /* Store the content of BDCR register before the reset of Backup Domain */
 163:Drivers/STM32G0xx_HAL_Driver/Src/stm32g0xx_hal_rcc_ex.c ****         tmpregister = READ_BIT(RCC->BDCR, ~(RCC_BDCR_RTCSEL));
 170              		.loc 1 163 23
 171 00be 234B     		ldr	r3, .L32
 172 00c0 DB6D     		ldr	r3, [r3, #92]
 173              		.loc 1 163 21
 174 00c2 244A     		ldr	r2, .L32+8
 175 00c4 1340     		ands	r3, r2
 176 00c6 7B61     		str	r3, [r7, #20]
 164:Drivers/STM32G0xx_HAL_Driver/Src/stm32g0xx_hal_rcc_ex.c ****         /* RTC Clock selection can be changed only if the Backup Domain is reset */
 165:Drivers/STM32G0xx_HAL_Driver/Src/stm32g0xx_hal_rcc_ex.c ****         __HAL_RCC_BACKUPRESET_FORCE();
ARM GAS  C:\Users\SOLDER~1\AppData\Local\Temp\ccUUcBce.s 			page 7


 177              		.loc 1 165 9
 178 00c8 204B     		ldr	r3, .L32
 179 00ca DA6D     		ldr	r2, [r3, #92]
 180 00cc 1F4B     		ldr	r3, .L32
 181 00ce 8021     		movs	r1, #128
 182 00d0 4902     		lsls	r1, r1, #9
 183 00d2 0A43     		orrs	r2, r1
 184 00d4 DA65     		str	r2, [r3, #92]
 166:Drivers/STM32G0xx_HAL_Driver/Src/stm32g0xx_hal_rcc_ex.c ****         __HAL_RCC_BACKUPRESET_RELEASE();
 185              		.loc 1 166 9
 186 00d6 1D4B     		ldr	r3, .L32
 187 00d8 DA6D     		ldr	r2, [r3, #92]
 188 00da 1C4B     		ldr	r3, .L32
 189 00dc 1E49     		ldr	r1, .L32+12
 190 00de 0A40     		ands	r2, r1
 191 00e0 DA65     		str	r2, [r3, #92]
 167:Drivers/STM32G0xx_HAL_Driver/Src/stm32g0xx_hal_rcc_ex.c ****         /* Restore the Content of BDCR register */
 168:Drivers/STM32G0xx_HAL_Driver/Src/stm32g0xx_hal_rcc_ex.c ****         RCC->BDCR = tmpregister;
 192              		.loc 1 168 12
 193 00e2 1A4B     		ldr	r3, .L32
 194              		.loc 1 168 19
 195 00e4 7A69     		ldr	r2, [r7, #20]
 196 00e6 DA65     		str	r2, [r3, #92]
 197              	.L8:
 169:Drivers/STM32G0xx_HAL_Driver/Src/stm32g0xx_hal_rcc_ex.c ****       }
 170:Drivers/STM32G0xx_HAL_Driver/Src/stm32g0xx_hal_rcc_ex.c **** 
 171:Drivers/STM32G0xx_HAL_Driver/Src/stm32g0xx_hal_rcc_ex.c ****       /* Wait for LSE reactivation if LSE was enable prior to Backup Domain reset */
 172:Drivers/STM32G0xx_HAL_Driver/Src/stm32g0xx_hal_rcc_ex.c ****       if (HAL_IS_BIT_SET(tmpregister, RCC_BDCR_LSEON))
 198              		.loc 1 172 11
 199 00e8 7B69     		ldr	r3, [r7, #20]
 200 00ea 0122     		movs	r2, #1
 201 00ec 1340     		ands	r3, r2
 202              		.loc 1 172 10
 203 00ee 16D0     		beq	.L9
 173:Drivers/STM32G0xx_HAL_Driver/Src/stm32g0xx_hal_rcc_ex.c ****       {
 174:Drivers/STM32G0xx_HAL_Driver/Src/stm32g0xx_hal_rcc_ex.c ****         /* Get Start Tick*/
 175:Drivers/STM32G0xx_HAL_Driver/Src/stm32g0xx_hal_rcc_ex.c ****         tickstart = HAL_GetTick();
 204              		.loc 1 175 21
 205 00f0 FFF7FEFF 		bl	HAL_GetTick
 206 00f4 0300     		movs	r3, r0
 207 00f6 FB60     		str	r3, [r7, #12]
 176:Drivers/STM32G0xx_HAL_Driver/Src/stm32g0xx_hal_rcc_ex.c **** 
 177:Drivers/STM32G0xx_HAL_Driver/Src/stm32g0xx_hal_rcc_ex.c ****         /* Wait till LSE is ready */
 178:Drivers/STM32G0xx_HAL_Driver/Src/stm32g0xx_hal_rcc_ex.c ****         while (READ_BIT(RCC->BDCR, RCC_BDCR_LSERDY) == 0U)
 208              		.loc 1 178 15
 209 00f8 0CE0     		b	.L10
 210              	.L11:
 179:Drivers/STM32G0xx_HAL_Driver/Src/stm32g0xx_hal_rcc_ex.c ****         {
 180:Drivers/STM32G0xx_HAL_Driver/Src/stm32g0xx_hal_rcc_ex.c ****           if ((HAL_GetTick() - tickstart) > RCC_LSE_TIMEOUT_VALUE)
 211              		.loc 1 180 16
 212 00fa FFF7FEFF 		bl	HAL_GetTick
 213 00fe 0200     		movs	r2, r0
 214              		.loc 1 180 30
 215 0100 FB68     		ldr	r3, [r7, #12]
 216 0102 D31A     		subs	r3, r2, r3
 217              		.loc 1 180 14
 218 0104 154A     		ldr	r2, .L32+16
ARM GAS  C:\Users\SOLDER~1\AppData\Local\Temp\ccUUcBce.s 			page 8


 219 0106 9342     		cmp	r3, r2
 220 0108 04D9     		bls	.L10
 181:Drivers/STM32G0xx_HAL_Driver/Src/stm32g0xx_hal_rcc_ex.c ****           {
 182:Drivers/STM32G0xx_HAL_Driver/Src/stm32g0xx_hal_rcc_ex.c ****             ret = HAL_TIMEOUT;
 221              		.loc 1 182 17
 222 010a 1323     		movs	r3, #19
 223 010c FB18     		adds	r3, r7, r3
 224 010e 0322     		movs	r2, #3
 225 0110 1A70     		strb	r2, [r3]
 183:Drivers/STM32G0xx_HAL_Driver/Src/stm32g0xx_hal_rcc_ex.c ****             break;
 226              		.loc 1 183 13
 227 0112 04E0     		b	.L9
 228              	.L10:
 178:Drivers/STM32G0xx_HAL_Driver/Src/stm32g0xx_hal_rcc_ex.c ****         {
 229              		.loc 1 178 16
 230 0114 0D4B     		ldr	r3, .L32
 231 0116 DB6D     		ldr	r3, [r3, #92]
 232 0118 0222     		movs	r2, #2
 233 011a 1340     		ands	r3, r2
 178:Drivers/STM32G0xx_HAL_Driver/Src/stm32g0xx_hal_rcc_ex.c ****         {
 234              		.loc 1 178 15
 235 011c EDD0     		beq	.L11
 236              	.L9:
 184:Drivers/STM32G0xx_HAL_Driver/Src/stm32g0xx_hal_rcc_ex.c ****           }
 185:Drivers/STM32G0xx_HAL_Driver/Src/stm32g0xx_hal_rcc_ex.c ****         }
 186:Drivers/STM32G0xx_HAL_Driver/Src/stm32g0xx_hal_rcc_ex.c ****       }
 187:Drivers/STM32G0xx_HAL_Driver/Src/stm32g0xx_hal_rcc_ex.c **** 
 188:Drivers/STM32G0xx_HAL_Driver/Src/stm32g0xx_hal_rcc_ex.c ****       if (ret == HAL_OK)
 237              		.loc 1 188 10
 238 011e 1323     		movs	r3, #19
 239 0120 FB18     		adds	r3, r7, r3
 240 0122 1B78     		ldrb	r3, [r3]
 241 0124 002B     		cmp	r3, #0
 242 0126 0AD1     		bne	.L12
 189:Drivers/STM32G0xx_HAL_Driver/Src/stm32g0xx_hal_rcc_ex.c ****       {
 190:Drivers/STM32G0xx_HAL_Driver/Src/stm32g0xx_hal_rcc_ex.c ****         /* Apply new RTC clock source selection */
 191:Drivers/STM32G0xx_HAL_Driver/Src/stm32g0xx_hal_rcc_ex.c ****         __HAL_RCC_RTC_CONFIG(PeriphClkInit->RTCClockSelection);
 243              		.loc 1 191 9
 244 0128 084B     		ldr	r3, .L32
 245 012a DB6D     		ldr	r3, [r3, #92]
 246 012c 094A     		ldr	r2, .L32+8
 247 012e 1340     		ands	r3, r2
 248 0130 1900     		movs	r1, r3
 249 0132 7B68     		ldr	r3, [r7, #4]
 250 0134 1A6C     		ldr	r2, [r3, #64]
 251 0136 054B     		ldr	r3, .L32
 252 0138 0A43     		orrs	r2, r1
 253 013a DA65     		str	r2, [r3, #92]
 254 013c 16E0     		b	.L13
 255              	.L12:
 192:Drivers/STM32G0xx_HAL_Driver/Src/stm32g0xx_hal_rcc_ex.c ****       }
 193:Drivers/STM32G0xx_HAL_Driver/Src/stm32g0xx_hal_rcc_ex.c ****       else
 194:Drivers/STM32G0xx_HAL_Driver/Src/stm32g0xx_hal_rcc_ex.c ****       {
 195:Drivers/STM32G0xx_HAL_Driver/Src/stm32g0xx_hal_rcc_ex.c ****         /* set overall return value */
 196:Drivers/STM32G0xx_HAL_Driver/Src/stm32g0xx_hal_rcc_ex.c ****         status = ret;
 256              		.loc 1 196 16
 257 013e 1223     		movs	r3, #18
ARM GAS  C:\Users\SOLDER~1\AppData\Local\Temp\ccUUcBce.s 			page 9


 258 0140 FB18     		adds	r3, r7, r3
 259 0142 1322     		movs	r2, #19
 260 0144 BA18     		adds	r2, r7, r2
 261 0146 1278     		ldrb	r2, [r2]
 262 0148 1A70     		strb	r2, [r3]
 263 014a 0FE0     		b	.L13
 264              	.L33:
 265              		.align	2
 266              	.L32:
 267 014c 00100240 		.word	1073876992
 268 0150 00700040 		.word	1073770496
 269 0154 FFFCFFFF 		.word	-769
 270 0158 FFFFFEFF 		.word	-65537
 271 015c 88130000 		.word	5000
 272              	.L7:
 197:Drivers/STM32G0xx_HAL_Driver/Src/stm32g0xx_hal_rcc_ex.c ****       }
 198:Drivers/STM32G0xx_HAL_Driver/Src/stm32g0xx_hal_rcc_ex.c ****     }
 199:Drivers/STM32G0xx_HAL_Driver/Src/stm32g0xx_hal_rcc_ex.c ****     else
 200:Drivers/STM32G0xx_HAL_Driver/Src/stm32g0xx_hal_rcc_ex.c ****     {
 201:Drivers/STM32G0xx_HAL_Driver/Src/stm32g0xx_hal_rcc_ex.c ****       /* set overall return value */
 202:Drivers/STM32G0xx_HAL_Driver/Src/stm32g0xx_hal_rcc_ex.c ****       status = ret;
 273              		.loc 1 202 14
 274 0160 1223     		movs	r3, #18
 275 0162 FB18     		adds	r3, r7, r3
 276 0164 1322     		movs	r2, #19
 277 0166 BA18     		adds	r2, r7, r2
 278 0168 1278     		ldrb	r2, [r2]
 279 016a 1A70     		strb	r2, [r3]
 280              	.L13:
 203:Drivers/STM32G0xx_HAL_Driver/Src/stm32g0xx_hal_rcc_ex.c ****     }
 204:Drivers/STM32G0xx_HAL_Driver/Src/stm32g0xx_hal_rcc_ex.c **** 
 205:Drivers/STM32G0xx_HAL_Driver/Src/stm32g0xx_hal_rcc_ex.c ****     /* Restore clock configuration if changed */
 206:Drivers/STM32G0xx_HAL_Driver/Src/stm32g0xx_hal_rcc_ex.c ****     if (pwrclkchanged == SET)
 281              		.loc 1 206 8
 282 016c 1123     		movs	r3, #17
 283 016e FB18     		adds	r3, r7, r3
 284 0170 1B78     		ldrb	r3, [r3]
 285 0172 012B     		cmp	r3, #1
 286 0174 05D1     		bne	.L2
 207:Drivers/STM32G0xx_HAL_Driver/Src/stm32g0xx_hal_rcc_ex.c ****     {
 208:Drivers/STM32G0xx_HAL_Driver/Src/stm32g0xx_hal_rcc_ex.c ****       __HAL_RCC_PWR_CLK_DISABLE();
 287              		.loc 1 208 7
 288 0176 B64B     		ldr	r3, .L34
 289 0178 DA6B     		ldr	r2, [r3, #60]
 290 017a B54B     		ldr	r3, .L34
 291 017c B549     		ldr	r1, .L34+4
 292 017e 0A40     		ands	r2, r1
 293 0180 DA63     		str	r2, [r3, #60]
 294              	.L2:
 295              	.LBE2:
 209:Drivers/STM32G0xx_HAL_Driver/Src/stm32g0xx_hal_rcc_ex.c ****     }
 210:Drivers/STM32G0xx_HAL_Driver/Src/stm32g0xx_hal_rcc_ex.c ****   }
 211:Drivers/STM32G0xx_HAL_Driver/Src/stm32g0xx_hal_rcc_ex.c **** 
 212:Drivers/STM32G0xx_HAL_Driver/Src/stm32g0xx_hal_rcc_ex.c ****   /*-------------------------- USART1 clock source configuration -------------------*/
 213:Drivers/STM32G0xx_HAL_Driver/Src/stm32g0xx_hal_rcc_ex.c ****   if (((PeriphClkInit->PeriphClockSelection) & RCC_PERIPHCLK_USART1) == RCC_PERIPHCLK_USART1)
 296              		.loc 1 213 22
 297 0182 7B68     		ldr	r3, [r7, #4]
ARM GAS  C:\Users\SOLDER~1\AppData\Local\Temp\ccUUcBce.s 			page 10


 298 0184 1B68     		ldr	r3, [r3]
 299              		.loc 1 213 46
 300 0186 0122     		movs	r2, #1
 301 0188 1340     		ands	r3, r2
 302              		.loc 1 213 6
 303 018a 09D0     		beq	.L14
 214:Drivers/STM32G0xx_HAL_Driver/Src/stm32g0xx_hal_rcc_ex.c ****   {
 215:Drivers/STM32G0xx_HAL_Driver/Src/stm32g0xx_hal_rcc_ex.c ****     /* Check the parameters */
 216:Drivers/STM32G0xx_HAL_Driver/Src/stm32g0xx_hal_rcc_ex.c ****     assert_param(IS_RCC_USART1CLKSOURCE(PeriphClkInit->Usart1ClockSelection));
 217:Drivers/STM32G0xx_HAL_Driver/Src/stm32g0xx_hal_rcc_ex.c **** 
 218:Drivers/STM32G0xx_HAL_Driver/Src/stm32g0xx_hal_rcc_ex.c ****     /* Configure the USART1 clock source */
 219:Drivers/STM32G0xx_HAL_Driver/Src/stm32g0xx_hal_rcc_ex.c ****     __HAL_RCC_USART1_CONFIG(PeriphClkInit->Usart1ClockSelection);
 304              		.loc 1 219 5
 305 018c B04B     		ldr	r3, .L34
 306 018e 5B6D     		ldr	r3, [r3, #84]
 307 0190 0322     		movs	r2, #3
 308 0192 9343     		bics	r3, r2
 309 0194 1900     		movs	r1, r3
 310 0196 7B68     		ldr	r3, [r7, #4]
 311 0198 5A68     		ldr	r2, [r3, #4]
 312 019a AD4B     		ldr	r3, .L34
 313 019c 0A43     		orrs	r2, r1
 314 019e 5A65     		str	r2, [r3, #84]
 315              	.L14:
 220:Drivers/STM32G0xx_HAL_Driver/Src/stm32g0xx_hal_rcc_ex.c ****   }
 221:Drivers/STM32G0xx_HAL_Driver/Src/stm32g0xx_hal_rcc_ex.c **** 
 222:Drivers/STM32G0xx_HAL_Driver/Src/stm32g0xx_hal_rcc_ex.c **** #if defined(RCC_CCIPR_USART2SEL)
 223:Drivers/STM32G0xx_HAL_Driver/Src/stm32g0xx_hal_rcc_ex.c ****   /*-------------------------- USART2 clock source configuration -------------------*/
 224:Drivers/STM32G0xx_HAL_Driver/Src/stm32g0xx_hal_rcc_ex.c ****   if (((PeriphClkInit->PeriphClockSelection) & RCC_PERIPHCLK_USART2) == RCC_PERIPHCLK_USART2)
 316              		.loc 1 224 22
 317 01a0 7B68     		ldr	r3, [r7, #4]
 318 01a2 1B68     		ldr	r3, [r3]
 319              		.loc 1 224 46
 320 01a4 0222     		movs	r2, #2
 321 01a6 1340     		ands	r3, r2
 322              		.loc 1 224 6
 323 01a8 09D0     		beq	.L15
 225:Drivers/STM32G0xx_HAL_Driver/Src/stm32g0xx_hal_rcc_ex.c ****   {
 226:Drivers/STM32G0xx_HAL_Driver/Src/stm32g0xx_hal_rcc_ex.c ****     /* Check the parameters */
 227:Drivers/STM32G0xx_HAL_Driver/Src/stm32g0xx_hal_rcc_ex.c ****     assert_param(IS_RCC_USART2CLKSOURCE(PeriphClkInit->Usart2ClockSelection));
 228:Drivers/STM32G0xx_HAL_Driver/Src/stm32g0xx_hal_rcc_ex.c **** 
 229:Drivers/STM32G0xx_HAL_Driver/Src/stm32g0xx_hal_rcc_ex.c ****     /* Configure the USART2 clock source */
 230:Drivers/STM32G0xx_HAL_Driver/Src/stm32g0xx_hal_rcc_ex.c ****     __HAL_RCC_USART2_CONFIG(PeriphClkInit->Usart2ClockSelection);
 324              		.loc 1 230 5
 325 01aa A94B     		ldr	r3, .L34
 326 01ac 5B6D     		ldr	r3, [r3, #84]
 327 01ae 0C22     		movs	r2, #12
 328 01b0 9343     		bics	r3, r2
 329 01b2 1900     		movs	r1, r3
 330 01b4 7B68     		ldr	r3, [r7, #4]
 331 01b6 9A68     		ldr	r2, [r3, #8]
 332 01b8 A54B     		ldr	r3, .L34
 333 01ba 0A43     		orrs	r2, r1
 334 01bc 5A65     		str	r2, [r3, #84]
 335              	.L15:
 231:Drivers/STM32G0xx_HAL_Driver/Src/stm32g0xx_hal_rcc_ex.c ****   }
 232:Drivers/STM32G0xx_HAL_Driver/Src/stm32g0xx_hal_rcc_ex.c **** #endif /* RCC_CCIPR_USART2SEL */
ARM GAS  C:\Users\SOLDER~1\AppData\Local\Temp\ccUUcBce.s 			page 11


 233:Drivers/STM32G0xx_HAL_Driver/Src/stm32g0xx_hal_rcc_ex.c **** 
 234:Drivers/STM32G0xx_HAL_Driver/Src/stm32g0xx_hal_rcc_ex.c **** #if defined(RCC_CCIPR_USART3SEL)
 235:Drivers/STM32G0xx_HAL_Driver/Src/stm32g0xx_hal_rcc_ex.c ****   /*-------------------------- USART3 clock source configuration -------------------*/
 236:Drivers/STM32G0xx_HAL_Driver/Src/stm32g0xx_hal_rcc_ex.c ****   if (((PeriphClkInit->PeriphClockSelection) & RCC_PERIPHCLK_USART3) == RCC_PERIPHCLK_USART3)
 336              		.loc 1 236 22
 337 01be 7B68     		ldr	r3, [r7, #4]
 338 01c0 1B68     		ldr	r3, [r3]
 339              		.loc 1 236 46
 340 01c2 0422     		movs	r2, #4
 341 01c4 1340     		ands	r3, r2
 342              		.loc 1 236 6
 343 01c6 09D0     		beq	.L16
 237:Drivers/STM32G0xx_HAL_Driver/Src/stm32g0xx_hal_rcc_ex.c ****   {
 238:Drivers/STM32G0xx_HAL_Driver/Src/stm32g0xx_hal_rcc_ex.c ****     /* Check the parameters */
 239:Drivers/STM32G0xx_HAL_Driver/Src/stm32g0xx_hal_rcc_ex.c ****     assert_param(IS_RCC_USART3CLKSOURCE(PeriphClkInit->Usart3ClockSelection));
 240:Drivers/STM32G0xx_HAL_Driver/Src/stm32g0xx_hal_rcc_ex.c **** 
 241:Drivers/STM32G0xx_HAL_Driver/Src/stm32g0xx_hal_rcc_ex.c ****     /* Configure the USART3 clock source */
 242:Drivers/STM32G0xx_HAL_Driver/Src/stm32g0xx_hal_rcc_ex.c ****     __HAL_RCC_USART3_CONFIG(PeriphClkInit->Usart3ClockSelection);
 344              		.loc 1 242 5
 345 01c8 A14B     		ldr	r3, .L34
 346 01ca 5B6D     		ldr	r3, [r3, #84]
 347 01cc 3022     		movs	r2, #48
 348 01ce 9343     		bics	r3, r2
 349 01d0 1900     		movs	r1, r3
 350 01d2 7B68     		ldr	r3, [r7, #4]
 351 01d4 DA68     		ldr	r2, [r3, #12]
 352 01d6 9E4B     		ldr	r3, .L34
 353 01d8 0A43     		orrs	r2, r1
 354 01da 5A65     		str	r2, [r3, #84]
 355              	.L16:
 243:Drivers/STM32G0xx_HAL_Driver/Src/stm32g0xx_hal_rcc_ex.c ****   }
 244:Drivers/STM32G0xx_HAL_Driver/Src/stm32g0xx_hal_rcc_ex.c **** #endif /* RCC_CCIPR_USART3SEL */
 245:Drivers/STM32G0xx_HAL_Driver/Src/stm32g0xx_hal_rcc_ex.c **** 
 246:Drivers/STM32G0xx_HAL_Driver/Src/stm32g0xx_hal_rcc_ex.c **** #if defined(LPUART1)
 247:Drivers/STM32G0xx_HAL_Driver/Src/stm32g0xx_hal_rcc_ex.c ****   /*-------------------------- LPUART1 clock source configuration ------------------*/
 248:Drivers/STM32G0xx_HAL_Driver/Src/stm32g0xx_hal_rcc_ex.c ****   if (((PeriphClkInit->PeriphClockSelection) & RCC_PERIPHCLK_LPUART1) == RCC_PERIPHCLK_LPUART1)
 356              		.loc 1 248 22
 357 01dc 7B68     		ldr	r3, [r7, #4]
 358 01de 1B68     		ldr	r3, [r3]
 359              		.loc 1 248 46
 360 01e0 1022     		movs	r2, #16
 361 01e2 1340     		ands	r3, r2
 362              		.loc 1 248 6
 363 01e4 09D0     		beq	.L17
 249:Drivers/STM32G0xx_HAL_Driver/Src/stm32g0xx_hal_rcc_ex.c ****   {
 250:Drivers/STM32G0xx_HAL_Driver/Src/stm32g0xx_hal_rcc_ex.c ****     /* Check the parameters */
 251:Drivers/STM32G0xx_HAL_Driver/Src/stm32g0xx_hal_rcc_ex.c ****     assert_param(IS_RCC_LPUART1CLKSOURCE(PeriphClkInit->Lpuart1ClockSelection));
 252:Drivers/STM32G0xx_HAL_Driver/Src/stm32g0xx_hal_rcc_ex.c **** 
 253:Drivers/STM32G0xx_HAL_Driver/Src/stm32g0xx_hal_rcc_ex.c ****     /* Configure the LPUART1 clock source */
 254:Drivers/STM32G0xx_HAL_Driver/Src/stm32g0xx_hal_rcc_ex.c ****     __HAL_RCC_LPUART1_CONFIG(PeriphClkInit->Lpuart1ClockSelection);
 364              		.loc 1 254 5
 365 01e6 9A4B     		ldr	r3, .L34
 366 01e8 5B6D     		ldr	r3, [r3, #84]
 367 01ea 9B4A     		ldr	r2, .L34+8
 368 01ec 1340     		ands	r3, r2
 369 01ee 1900     		movs	r1, r3
 370 01f0 7B68     		ldr	r3, [r7, #4]
ARM GAS  C:\Users\SOLDER~1\AppData\Local\Temp\ccUUcBce.s 			page 12


 371 01f2 1A69     		ldr	r2, [r3, #16]
 372 01f4 964B     		ldr	r3, .L34
 373 01f6 0A43     		orrs	r2, r1
 374 01f8 5A65     		str	r2, [r3, #84]
 375              	.L17:
 255:Drivers/STM32G0xx_HAL_Driver/Src/stm32g0xx_hal_rcc_ex.c ****   }
 256:Drivers/STM32G0xx_HAL_Driver/Src/stm32g0xx_hal_rcc_ex.c **** #endif /* LPUART1 */
 257:Drivers/STM32G0xx_HAL_Driver/Src/stm32g0xx_hal_rcc_ex.c **** 
 258:Drivers/STM32G0xx_HAL_Driver/Src/stm32g0xx_hal_rcc_ex.c **** #if defined(LPUART2)
 259:Drivers/STM32G0xx_HAL_Driver/Src/stm32g0xx_hal_rcc_ex.c ****   /*-------------------------- LPUART2 clock source configuration ------------------*/
 260:Drivers/STM32G0xx_HAL_Driver/Src/stm32g0xx_hal_rcc_ex.c ****   if (((PeriphClkInit->PeriphClockSelection) & RCC_PERIPHCLK_LPUART2) == RCC_PERIPHCLK_LPUART2)
 376              		.loc 1 260 22
 377 01fa 7B68     		ldr	r3, [r7, #4]
 378 01fc 1A68     		ldr	r2, [r3]
 379              		.loc 1 260 46
 380 01fe 8023     		movs	r3, #128
 381 0200 5B01     		lsls	r3, r3, #5
 382 0202 1340     		ands	r3, r2
 383              		.loc 1 260 6
 384 0204 09D0     		beq	.L18
 261:Drivers/STM32G0xx_HAL_Driver/Src/stm32g0xx_hal_rcc_ex.c ****   {
 262:Drivers/STM32G0xx_HAL_Driver/Src/stm32g0xx_hal_rcc_ex.c ****     /* Check the parameters */
 263:Drivers/STM32G0xx_HAL_Driver/Src/stm32g0xx_hal_rcc_ex.c ****     assert_param(IS_RCC_LPUART2CLKSOURCE(PeriphClkInit->Lpuart2ClockSelection));
 264:Drivers/STM32G0xx_HAL_Driver/Src/stm32g0xx_hal_rcc_ex.c **** 
 265:Drivers/STM32G0xx_HAL_Driver/Src/stm32g0xx_hal_rcc_ex.c ****     /* Configure the LPUART clock source */
 266:Drivers/STM32G0xx_HAL_Driver/Src/stm32g0xx_hal_rcc_ex.c ****     __HAL_RCC_LPUART2_CONFIG(PeriphClkInit->Lpuart2ClockSelection);
 385              		.loc 1 266 5
 386 0206 924B     		ldr	r3, .L34
 387 0208 5B6D     		ldr	r3, [r3, #84]
 388 020a 944A     		ldr	r2, .L34+12
 389 020c 1340     		ands	r3, r2
 390 020e 1900     		movs	r1, r3
 391 0210 7B68     		ldr	r3, [r7, #4]
 392 0212 5A69     		ldr	r2, [r3, #20]
 393 0214 8E4B     		ldr	r3, .L34
 394 0216 0A43     		orrs	r2, r1
 395 0218 5A65     		str	r2, [r3, #84]
 396              	.L18:
 267:Drivers/STM32G0xx_HAL_Driver/Src/stm32g0xx_hal_rcc_ex.c ****   }
 268:Drivers/STM32G0xx_HAL_Driver/Src/stm32g0xx_hal_rcc_ex.c **** #endif /* LPUART2 */
 269:Drivers/STM32G0xx_HAL_Driver/Src/stm32g0xx_hal_rcc_ex.c **** 
 270:Drivers/STM32G0xx_HAL_Driver/Src/stm32g0xx_hal_rcc_ex.c **** #if defined(RCC_CCIPR_LPTIM1SEL)
 271:Drivers/STM32G0xx_HAL_Driver/Src/stm32g0xx_hal_rcc_ex.c ****   /*-------------------------- LPTIM1 clock source configuration -------------------*/
 272:Drivers/STM32G0xx_HAL_Driver/Src/stm32g0xx_hal_rcc_ex.c ****   if (((PeriphClkInit->PeriphClockSelection) & RCC_PERIPHCLK_LPTIM1) == (RCC_PERIPHCLK_LPTIM1))
 397              		.loc 1 272 22
 398 021a 7B68     		ldr	r3, [r7, #4]
 399 021c 1A68     		ldr	r2, [r3]
 400              		.loc 1 272 46
 401 021e 8023     		movs	r3, #128
 402 0220 9B00     		lsls	r3, r3, #2
 403 0222 1340     		ands	r3, r2
 404              		.loc 1 272 6
 405 0224 09D0     		beq	.L19
 273:Drivers/STM32G0xx_HAL_Driver/Src/stm32g0xx_hal_rcc_ex.c ****   {
 274:Drivers/STM32G0xx_HAL_Driver/Src/stm32g0xx_hal_rcc_ex.c ****     assert_param(IS_RCC_LPTIM1CLKSOURCE(PeriphClkInit->Lptim1ClockSelection));
 275:Drivers/STM32G0xx_HAL_Driver/Src/stm32g0xx_hal_rcc_ex.c ****     __HAL_RCC_LPTIM1_CONFIG(PeriphClkInit->Lptim1ClockSelection);
 406              		.loc 1 275 5
ARM GAS  C:\Users\SOLDER~1\AppData\Local\Temp\ccUUcBce.s 			page 13


 407 0226 8A4B     		ldr	r3, .L34
 408 0228 5B6D     		ldr	r3, [r3, #84]
 409 022a 8D4A     		ldr	r2, .L34+16
 410 022c 1340     		ands	r3, r2
 411 022e 1900     		movs	r1, r3
 412 0230 7B68     		ldr	r3, [r7, #4]
 413 0232 9A6A     		ldr	r2, [r3, #40]
 414 0234 864B     		ldr	r3, .L34
 415 0236 0A43     		orrs	r2, r1
 416 0238 5A65     		str	r2, [r3, #84]
 417              	.L19:
 276:Drivers/STM32G0xx_HAL_Driver/Src/stm32g0xx_hal_rcc_ex.c ****   }
 277:Drivers/STM32G0xx_HAL_Driver/Src/stm32g0xx_hal_rcc_ex.c **** #endif /* RCC_CCIPR_LPTIM1SEL */
 278:Drivers/STM32G0xx_HAL_Driver/Src/stm32g0xx_hal_rcc_ex.c **** 
 279:Drivers/STM32G0xx_HAL_Driver/Src/stm32g0xx_hal_rcc_ex.c **** #if defined(RCC_CCIPR_LPTIM2SEL)
 280:Drivers/STM32G0xx_HAL_Driver/Src/stm32g0xx_hal_rcc_ex.c ****   /*-------------------------- LPTIM2 clock source configuration -------------------*/
 281:Drivers/STM32G0xx_HAL_Driver/Src/stm32g0xx_hal_rcc_ex.c ****   if (((PeriphClkInit->PeriphClockSelection) & RCC_PERIPHCLK_LPTIM2) == (RCC_PERIPHCLK_LPTIM2))
 418              		.loc 1 281 22
 419 023a 7B68     		ldr	r3, [r7, #4]
 420 023c 1A68     		ldr	r2, [r3]
 421              		.loc 1 281 46
 422 023e 8023     		movs	r3, #128
 423 0240 DB00     		lsls	r3, r3, #3
 424 0242 1340     		ands	r3, r2
 425              		.loc 1 281 6
 426 0244 09D0     		beq	.L20
 282:Drivers/STM32G0xx_HAL_Driver/Src/stm32g0xx_hal_rcc_ex.c ****   {
 283:Drivers/STM32G0xx_HAL_Driver/Src/stm32g0xx_hal_rcc_ex.c ****     assert_param(IS_RCC_LPTIM2CLKSOURCE(PeriphClkInit->Lptim2ClockSelection));
 284:Drivers/STM32G0xx_HAL_Driver/Src/stm32g0xx_hal_rcc_ex.c ****     __HAL_RCC_LPTIM2_CONFIG(PeriphClkInit->Lptim2ClockSelection);
 427              		.loc 1 284 5
 428 0246 824B     		ldr	r3, .L34
 429 0248 5B6D     		ldr	r3, [r3, #84]
 430 024a 864A     		ldr	r2, .L34+20
 431 024c 1340     		ands	r3, r2
 432 024e 1900     		movs	r1, r3
 433 0250 7B68     		ldr	r3, [r7, #4]
 434 0252 DA6A     		ldr	r2, [r3, #44]
 435 0254 7E4B     		ldr	r3, .L34
 436 0256 0A43     		orrs	r2, r1
 437 0258 5A65     		str	r2, [r3, #84]
 438              	.L20:
 285:Drivers/STM32G0xx_HAL_Driver/Src/stm32g0xx_hal_rcc_ex.c ****   }
 286:Drivers/STM32G0xx_HAL_Driver/Src/stm32g0xx_hal_rcc_ex.c **** #endif /* RCC_CCIPR_LPTIM2SEL */
 287:Drivers/STM32G0xx_HAL_Driver/Src/stm32g0xx_hal_rcc_ex.c **** 
 288:Drivers/STM32G0xx_HAL_Driver/Src/stm32g0xx_hal_rcc_ex.c ****   /*-------------------------- I2C1 clock source configuration ---------------------*/
 289:Drivers/STM32G0xx_HAL_Driver/Src/stm32g0xx_hal_rcc_ex.c ****   if (((PeriphClkInit->PeriphClockSelection) & RCC_PERIPHCLK_I2C1) == RCC_PERIPHCLK_I2C1)
 439              		.loc 1 289 22
 440 025a 7B68     		ldr	r3, [r7, #4]
 441 025c 1B68     		ldr	r3, [r3]
 442              		.loc 1 289 46
 443 025e 2022     		movs	r2, #32
 444 0260 1340     		ands	r3, r2
 445              		.loc 1 289 6
 446 0262 09D0     		beq	.L21
 290:Drivers/STM32G0xx_HAL_Driver/Src/stm32g0xx_hal_rcc_ex.c ****   {
 291:Drivers/STM32G0xx_HAL_Driver/Src/stm32g0xx_hal_rcc_ex.c ****     /* Check the parameters */
 292:Drivers/STM32G0xx_HAL_Driver/Src/stm32g0xx_hal_rcc_ex.c ****     assert_param(IS_RCC_I2C1CLKSOURCE(PeriphClkInit->I2c1ClockSelection));
ARM GAS  C:\Users\SOLDER~1\AppData\Local\Temp\ccUUcBce.s 			page 14


 293:Drivers/STM32G0xx_HAL_Driver/Src/stm32g0xx_hal_rcc_ex.c **** 
 294:Drivers/STM32G0xx_HAL_Driver/Src/stm32g0xx_hal_rcc_ex.c ****     /* Configure the I2C1 clock source */
 295:Drivers/STM32G0xx_HAL_Driver/Src/stm32g0xx_hal_rcc_ex.c ****     __HAL_RCC_I2C1_CONFIG(PeriphClkInit->I2c1ClockSelection);
 447              		.loc 1 295 5
 448 0264 7A4B     		ldr	r3, .L34
 449 0266 5B6D     		ldr	r3, [r3, #84]
 450 0268 7F4A     		ldr	r2, .L34+24
 451 026a 1340     		ands	r3, r2
 452 026c 1900     		movs	r1, r3
 453 026e 7B68     		ldr	r3, [r7, #4]
 454 0270 9A69     		ldr	r2, [r3, #24]
 455 0272 774B     		ldr	r3, .L34
 456 0274 0A43     		orrs	r2, r1
 457 0276 5A65     		str	r2, [r3, #84]
 458              	.L21:
 296:Drivers/STM32G0xx_HAL_Driver/Src/stm32g0xx_hal_rcc_ex.c ****   }
 297:Drivers/STM32G0xx_HAL_Driver/Src/stm32g0xx_hal_rcc_ex.c **** 
 298:Drivers/STM32G0xx_HAL_Driver/Src/stm32g0xx_hal_rcc_ex.c **** #if defined(RCC_CCIPR_I2C2SEL)
 299:Drivers/STM32G0xx_HAL_Driver/Src/stm32g0xx_hal_rcc_ex.c ****   /*-------------------------- I2C2 clock source configuration ---------------------*/
 300:Drivers/STM32G0xx_HAL_Driver/Src/stm32g0xx_hal_rcc_ex.c ****   if (((PeriphClkInit->PeriphClockSelection) & RCC_PERIPHCLK_I2C2) == RCC_PERIPHCLK_I2C2)
 459              		.loc 1 300 22
 460 0278 7B68     		ldr	r3, [r7, #4]
 461 027a 1B68     		ldr	r3, [r3]
 462              		.loc 1 300 46
 463 027c 4022     		movs	r2, #64
 464 027e 1340     		ands	r3, r2
 465              		.loc 1 300 6
 466 0280 09D0     		beq	.L22
 301:Drivers/STM32G0xx_HAL_Driver/Src/stm32g0xx_hal_rcc_ex.c ****   {
 302:Drivers/STM32G0xx_HAL_Driver/Src/stm32g0xx_hal_rcc_ex.c ****     /* Check the parameters */
 303:Drivers/STM32G0xx_HAL_Driver/Src/stm32g0xx_hal_rcc_ex.c ****     assert_param(IS_RCC_I2C2CLKSOURCE(PeriphClkInit->I2c2ClockSelection));
 304:Drivers/STM32G0xx_HAL_Driver/Src/stm32g0xx_hal_rcc_ex.c **** 
 305:Drivers/STM32G0xx_HAL_Driver/Src/stm32g0xx_hal_rcc_ex.c ****     /* Configure the I2C2 clock source */
 306:Drivers/STM32G0xx_HAL_Driver/Src/stm32g0xx_hal_rcc_ex.c ****     __HAL_RCC_I2C2_CONFIG(PeriphClkInit->I2c2ClockSelection);
 467              		.loc 1 306 5
 468 0282 734B     		ldr	r3, .L34
 469 0284 5B6D     		ldr	r3, [r3, #84]
 470 0286 794A     		ldr	r2, .L34+28
 471 0288 1340     		ands	r3, r2
 472 028a 1900     		movs	r1, r3
 473 028c 7B68     		ldr	r3, [r7, #4]
 474 028e DA69     		ldr	r2, [r3, #28]
 475 0290 6F4B     		ldr	r3, .L34
 476 0292 0A43     		orrs	r2, r1
 477 0294 5A65     		str	r2, [r3, #84]
 478              	.L22:
 307:Drivers/STM32G0xx_HAL_Driver/Src/stm32g0xx_hal_rcc_ex.c ****   }
 308:Drivers/STM32G0xx_HAL_Driver/Src/stm32g0xx_hal_rcc_ex.c **** #endif /* (RCC_CCIPR_I2C2SEL */
 309:Drivers/STM32G0xx_HAL_Driver/Src/stm32g0xx_hal_rcc_ex.c **** 
 310:Drivers/STM32G0xx_HAL_Driver/Src/stm32g0xx_hal_rcc_ex.c **** #if defined(RNG)
 311:Drivers/STM32G0xx_HAL_Driver/Src/stm32g0xx_hal_rcc_ex.c ****   /*-------------------------- RNG clock source configuration ----------------------*/
 312:Drivers/STM32G0xx_HAL_Driver/Src/stm32g0xx_hal_rcc_ex.c ****   if (((PeriphClkInit->PeriphClockSelection) & RCC_PERIPHCLK_RNG) == (RCC_PERIPHCLK_RNG))
 313:Drivers/STM32G0xx_HAL_Driver/Src/stm32g0xx_hal_rcc_ex.c ****   {
 314:Drivers/STM32G0xx_HAL_Driver/Src/stm32g0xx_hal_rcc_ex.c ****     assert_param(IS_RCC_RNGCLKSOURCE(PeriphClkInit->RngClockSelection));
 315:Drivers/STM32G0xx_HAL_Driver/Src/stm32g0xx_hal_rcc_ex.c ****     __HAL_RCC_RNG_CONFIG(PeriphClkInit->RngClockSelection);
 316:Drivers/STM32G0xx_HAL_Driver/Src/stm32g0xx_hal_rcc_ex.c **** 
 317:Drivers/STM32G0xx_HAL_Driver/Src/stm32g0xx_hal_rcc_ex.c ****     if (PeriphClkInit->RngClockSelection == RCC_RNGCLKSOURCE_PLL)
ARM GAS  C:\Users\SOLDER~1\AppData\Local\Temp\ccUUcBce.s 			page 15


 318:Drivers/STM32G0xx_HAL_Driver/Src/stm32g0xx_hal_rcc_ex.c ****     {
 319:Drivers/STM32G0xx_HAL_Driver/Src/stm32g0xx_hal_rcc_ex.c ****       /* Enable PLLQCLK output */
 320:Drivers/STM32G0xx_HAL_Driver/Src/stm32g0xx_hal_rcc_ex.c ****       __HAL_RCC_PLLCLKOUT_ENABLE(RCC_PLLQCLK);
 321:Drivers/STM32G0xx_HAL_Driver/Src/stm32g0xx_hal_rcc_ex.c ****     }
 322:Drivers/STM32G0xx_HAL_Driver/Src/stm32g0xx_hal_rcc_ex.c ****   }
 323:Drivers/STM32G0xx_HAL_Driver/Src/stm32g0xx_hal_rcc_ex.c **** #endif /* RNG */
 324:Drivers/STM32G0xx_HAL_Driver/Src/stm32g0xx_hal_rcc_ex.c ****   /*-------------------------- ADC clock source configuration ----------------------*/
 325:Drivers/STM32G0xx_HAL_Driver/Src/stm32g0xx_hal_rcc_ex.c ****   if (((PeriphClkInit->PeriphClockSelection) & RCC_PERIPHCLK_ADC) == RCC_PERIPHCLK_ADC)
 479              		.loc 1 325 22
 480 0296 7B68     		ldr	r3, [r7, #4]
 481 0298 1A68     		ldr	r2, [r3]
 482              		.loc 1 325 46
 483 029a 8023     		movs	r3, #128
 484 029c DB01     		lsls	r3, r3, #7
 485 029e 1340     		ands	r3, r2
 486              		.loc 1 325 6
 487 02a0 15D0     		beq	.L23
 326:Drivers/STM32G0xx_HAL_Driver/Src/stm32g0xx_hal_rcc_ex.c ****   {
 327:Drivers/STM32G0xx_HAL_Driver/Src/stm32g0xx_hal_rcc_ex.c ****     /* Check the parameters */
 328:Drivers/STM32G0xx_HAL_Driver/Src/stm32g0xx_hal_rcc_ex.c ****     assert_param(IS_RCC_ADCCLKSOURCE(PeriphClkInit->AdcClockSelection));
 329:Drivers/STM32G0xx_HAL_Driver/Src/stm32g0xx_hal_rcc_ex.c **** 
 330:Drivers/STM32G0xx_HAL_Driver/Src/stm32g0xx_hal_rcc_ex.c ****     /* Configure the ADC interface clock source */
 331:Drivers/STM32G0xx_HAL_Driver/Src/stm32g0xx_hal_rcc_ex.c ****     __HAL_RCC_ADC_CONFIG(PeriphClkInit->AdcClockSelection);
 488              		.loc 1 331 5
 489 02a2 6B4B     		ldr	r3, .L34
 490 02a4 5B6D     		ldr	r3, [r3, #84]
 491 02a6 9B00     		lsls	r3, r3, #2
 492 02a8 9908     		lsrs	r1, r3, #2
 493 02aa 7B68     		ldr	r3, [r7, #4]
 494 02ac 1A6B     		ldr	r2, [r3, #48]
 495 02ae 684B     		ldr	r3, .L34
 496 02b0 0A43     		orrs	r2, r1
 497 02b2 5A65     		str	r2, [r3, #84]
 332:Drivers/STM32G0xx_HAL_Driver/Src/stm32g0xx_hal_rcc_ex.c **** 
 333:Drivers/STM32G0xx_HAL_Driver/Src/stm32g0xx_hal_rcc_ex.c ****     if (PeriphClkInit->AdcClockSelection == RCC_ADCCLKSOURCE_PLLADC)
 498              		.loc 1 333 22
 499 02b4 7B68     		ldr	r3, [r7, #4]
 500 02b6 1A6B     		ldr	r2, [r3, #48]
 501              		.loc 1 333 8
 502 02b8 8023     		movs	r3, #128
 503 02ba DB05     		lsls	r3, r3, #23
 504 02bc 9A42     		cmp	r2, r3
 505 02be 06D1     		bne	.L23
 334:Drivers/STM32G0xx_HAL_Driver/Src/stm32g0xx_hal_rcc_ex.c ****     {
 335:Drivers/STM32G0xx_HAL_Driver/Src/stm32g0xx_hal_rcc_ex.c ****       /* Enable PLLPCLK output */
 336:Drivers/STM32G0xx_HAL_Driver/Src/stm32g0xx_hal_rcc_ex.c ****       __HAL_RCC_PLLCLKOUT_ENABLE(RCC_PLLPCLK);
 506              		.loc 1 336 7
 507 02c0 634B     		ldr	r3, .L34
 508 02c2 DA68     		ldr	r2, [r3, #12]
 509 02c4 624B     		ldr	r3, .L34
 510 02c6 8021     		movs	r1, #128
 511 02c8 4902     		lsls	r1, r1, #9
 512 02ca 0A43     		orrs	r2, r1
 513 02cc DA60     		str	r2, [r3, #12]
 514              	.L23:
 337:Drivers/STM32G0xx_HAL_Driver/Src/stm32g0xx_hal_rcc_ex.c ****     }
 338:Drivers/STM32G0xx_HAL_Driver/Src/stm32g0xx_hal_rcc_ex.c ****   }
ARM GAS  C:\Users\SOLDER~1\AppData\Local\Temp\ccUUcBce.s 			page 16


 339:Drivers/STM32G0xx_HAL_Driver/Src/stm32g0xx_hal_rcc_ex.c **** 
 340:Drivers/STM32G0xx_HAL_Driver/Src/stm32g0xx_hal_rcc_ex.c **** #if defined(CEC)
 341:Drivers/STM32G0xx_HAL_Driver/Src/stm32g0xx_hal_rcc_ex.c ****   /*-------------------------- CEC clock source configuration ---------------------*/
 342:Drivers/STM32G0xx_HAL_Driver/Src/stm32g0xx_hal_rcc_ex.c ****   if (((PeriphClkInit->PeriphClockSelection) & RCC_PERIPHCLK_CEC) == RCC_PERIPHCLK_CEC)
 515              		.loc 1 342 22
 516 02ce 7B68     		ldr	r3, [r7, #4]
 517 02d0 1A68     		ldr	r2, [r3]
 518              		.loc 1 342 46
 519 02d2 8023     		movs	r3, #128
 520 02d4 1B03     		lsls	r3, r3, #12
 521 02d6 1340     		ands	r3, r2
 522              		.loc 1 342 6
 523 02d8 09D0     		beq	.L24
 343:Drivers/STM32G0xx_HAL_Driver/Src/stm32g0xx_hal_rcc_ex.c ****   {
 344:Drivers/STM32G0xx_HAL_Driver/Src/stm32g0xx_hal_rcc_ex.c ****     /* Check the parameters */
 345:Drivers/STM32G0xx_HAL_Driver/Src/stm32g0xx_hal_rcc_ex.c ****     assert_param(IS_RCC_CECCLKSOURCE(PeriphClkInit->CecClockSelection));
 346:Drivers/STM32G0xx_HAL_Driver/Src/stm32g0xx_hal_rcc_ex.c **** 
 347:Drivers/STM32G0xx_HAL_Driver/Src/stm32g0xx_hal_rcc_ex.c ****     /* Configure the CEC clock source */
 348:Drivers/STM32G0xx_HAL_Driver/Src/stm32g0xx_hal_rcc_ex.c ****     __HAL_RCC_CEC_CONFIG(PeriphClkInit->CecClockSelection);
 524              		.loc 1 348 5
 525 02da 5D4B     		ldr	r3, .L34
 526 02dc 5B6D     		ldr	r3, [r3, #84]
 527 02de 4022     		movs	r2, #64
 528 02e0 9343     		bics	r3, r2
 529 02e2 1900     		movs	r1, r3
 530 02e4 7B68     		ldr	r3, [r7, #4]
 531 02e6 5A6B     		ldr	r2, [r3, #52]
 532 02e8 594B     		ldr	r3, .L34
 533 02ea 0A43     		orrs	r2, r1
 534 02ec 5A65     		str	r2, [r3, #84]
 535              	.L24:
 349:Drivers/STM32G0xx_HAL_Driver/Src/stm32g0xx_hal_rcc_ex.c ****   }
 350:Drivers/STM32G0xx_HAL_Driver/Src/stm32g0xx_hal_rcc_ex.c **** #endif /* CEC */
 351:Drivers/STM32G0xx_HAL_Driver/Src/stm32g0xx_hal_rcc_ex.c **** 
 352:Drivers/STM32G0xx_HAL_Driver/Src/stm32g0xx_hal_rcc_ex.c **** #if defined(RCC_CCIPR_TIM1SEL)
 353:Drivers/STM32G0xx_HAL_Driver/Src/stm32g0xx_hal_rcc_ex.c ****   /*-------------------------- TIM1 clock source configuration ---------------------*/
 354:Drivers/STM32G0xx_HAL_Driver/Src/stm32g0xx_hal_rcc_ex.c ****   if (((PeriphClkInit->PeriphClockSelection) & RCC_PERIPHCLK_TIM1) == RCC_PERIPHCLK_TIM1)
 536              		.loc 1 354 22
 537 02ee 7B68     		ldr	r3, [r7, #4]
 538 02f0 1A68     		ldr	r2, [r3]
 539              		.loc 1 354 46
 540 02f2 8023     		movs	r3, #128
 541 02f4 9B03     		lsls	r3, r3, #14
 542 02f6 1340     		ands	r3, r2
 543              		.loc 1 354 6
 544 02f8 16D0     		beq	.L25
 355:Drivers/STM32G0xx_HAL_Driver/Src/stm32g0xx_hal_rcc_ex.c ****   {
 356:Drivers/STM32G0xx_HAL_Driver/Src/stm32g0xx_hal_rcc_ex.c ****     /* Check the parameters */
 357:Drivers/STM32G0xx_HAL_Driver/Src/stm32g0xx_hal_rcc_ex.c ****     assert_param(IS_RCC_TIM1CLKSOURCE(PeriphClkInit->Tim1ClockSelection));
 358:Drivers/STM32G0xx_HAL_Driver/Src/stm32g0xx_hal_rcc_ex.c **** 
 359:Drivers/STM32G0xx_HAL_Driver/Src/stm32g0xx_hal_rcc_ex.c ****     /* Configure the TIM1 clock source */
 360:Drivers/STM32G0xx_HAL_Driver/Src/stm32g0xx_hal_rcc_ex.c ****     __HAL_RCC_TIM1_CONFIG(PeriphClkInit->Tim1ClockSelection);
 545              		.loc 1 360 5
 546 02fa 554B     		ldr	r3, .L34
 547 02fc 5B6D     		ldr	r3, [r3, #84]
 548 02fe 5C4A     		ldr	r2, .L34+32
 549 0300 1340     		ands	r3, r2
ARM GAS  C:\Users\SOLDER~1\AppData\Local\Temp\ccUUcBce.s 			page 17


 550 0302 1900     		movs	r1, r3
 551 0304 7B68     		ldr	r3, [r7, #4]
 552 0306 9A6B     		ldr	r2, [r3, #56]
 553 0308 514B     		ldr	r3, .L34
 554 030a 0A43     		orrs	r2, r1
 555 030c 5A65     		str	r2, [r3, #84]
 361:Drivers/STM32G0xx_HAL_Driver/Src/stm32g0xx_hal_rcc_ex.c **** 
 362:Drivers/STM32G0xx_HAL_Driver/Src/stm32g0xx_hal_rcc_ex.c ****     if (PeriphClkInit->Tim1ClockSelection == RCC_TIM1CLKSOURCE_PLL)
 556              		.loc 1 362 22
 557 030e 7B68     		ldr	r3, [r7, #4]
 558 0310 9A6B     		ldr	r2, [r3, #56]
 559              		.loc 1 362 8
 560 0312 8023     		movs	r3, #128
 561 0314 DB03     		lsls	r3, r3, #15
 562 0316 9A42     		cmp	r2, r3
 563 0318 06D1     		bne	.L25
 363:Drivers/STM32G0xx_HAL_Driver/Src/stm32g0xx_hal_rcc_ex.c ****     {
 364:Drivers/STM32G0xx_HAL_Driver/Src/stm32g0xx_hal_rcc_ex.c ****       /* Enable PLLQCLK output */
 365:Drivers/STM32G0xx_HAL_Driver/Src/stm32g0xx_hal_rcc_ex.c ****       __HAL_RCC_PLLCLKOUT_ENABLE(RCC_PLLQCLK);
 564              		.loc 1 365 7
 565 031a 4D4B     		ldr	r3, .L34
 566 031c DA68     		ldr	r2, [r3, #12]
 567 031e 4C4B     		ldr	r3, .L34
 568 0320 8021     		movs	r1, #128
 569 0322 4904     		lsls	r1, r1, #17
 570 0324 0A43     		orrs	r2, r1
 571 0326 DA60     		str	r2, [r3, #12]
 572              	.L25:
 366:Drivers/STM32G0xx_HAL_Driver/Src/stm32g0xx_hal_rcc_ex.c ****     }
 367:Drivers/STM32G0xx_HAL_Driver/Src/stm32g0xx_hal_rcc_ex.c ****   }
 368:Drivers/STM32G0xx_HAL_Driver/Src/stm32g0xx_hal_rcc_ex.c **** #endif /* RCC_CCIPR_TIM1SEL */
 369:Drivers/STM32G0xx_HAL_Driver/Src/stm32g0xx_hal_rcc_ex.c **** 
 370:Drivers/STM32G0xx_HAL_Driver/Src/stm32g0xx_hal_rcc_ex.c **** #if defined(RCC_CCIPR_TIM15SEL)
 371:Drivers/STM32G0xx_HAL_Driver/Src/stm32g0xx_hal_rcc_ex.c ****   /*-------------------------- TIM15 clock source configuration ---------------------*/
 372:Drivers/STM32G0xx_HAL_Driver/Src/stm32g0xx_hal_rcc_ex.c ****   if (((PeriphClkInit->PeriphClockSelection) & RCC_PERIPHCLK_TIM15) == RCC_PERIPHCLK_TIM15)
 573              		.loc 1 372 22
 574 0328 7B68     		ldr	r3, [r7, #4]
 575 032a 1A68     		ldr	r2, [r3]
 576              		.loc 1 372 46
 577 032c 8023     		movs	r3, #128
 578 032e DB03     		lsls	r3, r3, #15
 579 0330 1340     		ands	r3, r2
 580              		.loc 1 372 6
 581 0332 16D0     		beq	.L26
 373:Drivers/STM32G0xx_HAL_Driver/Src/stm32g0xx_hal_rcc_ex.c ****   {
 374:Drivers/STM32G0xx_HAL_Driver/Src/stm32g0xx_hal_rcc_ex.c ****     /* Check the parameters */
 375:Drivers/STM32G0xx_HAL_Driver/Src/stm32g0xx_hal_rcc_ex.c ****     assert_param(IS_RCC_TIM15CLKSOURCE(PeriphClkInit->Tim15ClockSelection));
 376:Drivers/STM32G0xx_HAL_Driver/Src/stm32g0xx_hal_rcc_ex.c **** 
 377:Drivers/STM32G0xx_HAL_Driver/Src/stm32g0xx_hal_rcc_ex.c ****     /* Configure the TIM15 clock source */
 378:Drivers/STM32G0xx_HAL_Driver/Src/stm32g0xx_hal_rcc_ex.c ****     __HAL_RCC_TIM15_CONFIG(PeriphClkInit->Tim15ClockSelection);
 582              		.loc 1 378 5
 583 0334 464B     		ldr	r3, .L34
 584 0336 5B6D     		ldr	r3, [r3, #84]
 585 0338 4E4A     		ldr	r2, .L34+36
 586 033a 1340     		ands	r3, r2
 587 033c 1900     		movs	r1, r3
 588 033e 7B68     		ldr	r3, [r7, #4]
ARM GAS  C:\Users\SOLDER~1\AppData\Local\Temp\ccUUcBce.s 			page 18


 589 0340 DA6B     		ldr	r2, [r3, #60]
 590 0342 434B     		ldr	r3, .L34
 591 0344 0A43     		orrs	r2, r1
 592 0346 5A65     		str	r2, [r3, #84]
 379:Drivers/STM32G0xx_HAL_Driver/Src/stm32g0xx_hal_rcc_ex.c **** 
 380:Drivers/STM32G0xx_HAL_Driver/Src/stm32g0xx_hal_rcc_ex.c ****     if (PeriphClkInit->Tim15ClockSelection == RCC_TIM15CLKSOURCE_PLL)
 593              		.loc 1 380 22
 594 0348 7B68     		ldr	r3, [r7, #4]
 595 034a DA6B     		ldr	r2, [r3, #60]
 596              		.loc 1 380 8
 597 034c 8023     		movs	r3, #128
 598 034e 5B04     		lsls	r3, r3, #17
 599 0350 9A42     		cmp	r2, r3
 600 0352 06D1     		bne	.L26
 381:Drivers/STM32G0xx_HAL_Driver/Src/stm32g0xx_hal_rcc_ex.c ****     {
 382:Drivers/STM32G0xx_HAL_Driver/Src/stm32g0xx_hal_rcc_ex.c ****       /* Enable PLLQCLK output */
 383:Drivers/STM32G0xx_HAL_Driver/Src/stm32g0xx_hal_rcc_ex.c ****       __HAL_RCC_PLLCLKOUT_ENABLE(RCC_PLLQCLK);
 601              		.loc 1 383 7
 602 0354 3E4B     		ldr	r3, .L34
 603 0356 DA68     		ldr	r2, [r3, #12]
 604 0358 3D4B     		ldr	r3, .L34
 605 035a 8021     		movs	r1, #128
 606 035c 4904     		lsls	r1, r1, #17
 607 035e 0A43     		orrs	r2, r1
 608 0360 DA60     		str	r2, [r3, #12]
 609              	.L26:
 384:Drivers/STM32G0xx_HAL_Driver/Src/stm32g0xx_hal_rcc_ex.c ****     }
 385:Drivers/STM32G0xx_HAL_Driver/Src/stm32g0xx_hal_rcc_ex.c ****   }
 386:Drivers/STM32G0xx_HAL_Driver/Src/stm32g0xx_hal_rcc_ex.c **** #endif /* RCC_CCIPR_TIM15SEL */
 387:Drivers/STM32G0xx_HAL_Driver/Src/stm32g0xx_hal_rcc_ex.c **** 
 388:Drivers/STM32G0xx_HAL_Driver/Src/stm32g0xx_hal_rcc_ex.c ****   /*-------------------------- I2S1 clock source configuration ---------------------*/
 389:Drivers/STM32G0xx_HAL_Driver/Src/stm32g0xx_hal_rcc_ex.c ****   if (((PeriphClkInit->PeriphClockSelection) & RCC_PERIPHCLK_I2S1) == RCC_PERIPHCLK_I2S1)
 610              		.loc 1 389 22
 611 0362 7B68     		ldr	r3, [r7, #4]
 612 0364 1A68     		ldr	r2, [r3]
 613              		.loc 1 389 46
 614 0366 8023     		movs	r3, #128
 615 0368 1B01     		lsls	r3, r3, #4
 616 036a 1340     		ands	r3, r2
 617              		.loc 1 389 6
 618 036c 14D0     		beq	.L27
 390:Drivers/STM32G0xx_HAL_Driver/Src/stm32g0xx_hal_rcc_ex.c ****   {
 391:Drivers/STM32G0xx_HAL_Driver/Src/stm32g0xx_hal_rcc_ex.c ****     /* Check the parameters */
 392:Drivers/STM32G0xx_HAL_Driver/Src/stm32g0xx_hal_rcc_ex.c ****     assert_param(IS_RCC_I2S1CLKSOURCE(PeriphClkInit->I2s1ClockSelection));
 393:Drivers/STM32G0xx_HAL_Driver/Src/stm32g0xx_hal_rcc_ex.c **** 
 394:Drivers/STM32G0xx_HAL_Driver/Src/stm32g0xx_hal_rcc_ex.c ****     /* Configure the I2S1 clock source */
 395:Drivers/STM32G0xx_HAL_Driver/Src/stm32g0xx_hal_rcc_ex.c ****     __HAL_RCC_I2S1_CONFIG(PeriphClkInit->I2s1ClockSelection);
 619              		.loc 1 395 5
 620 036e 384B     		ldr	r3, .L34
 621 0370 9B6D     		ldr	r3, [r3, #88]
 622 0372 0322     		movs	r2, #3
 623 0374 9343     		bics	r3, r2
 624 0376 1900     		movs	r1, r3
 625 0378 7B68     		ldr	r3, [r7, #4]
 626 037a 1A6A     		ldr	r2, [r3, #32]
 627 037c 344B     		ldr	r3, .L34
 628 037e 0A43     		orrs	r2, r1
ARM GAS  C:\Users\SOLDER~1\AppData\Local\Temp\ccUUcBce.s 			page 19


 629 0380 9A65     		str	r2, [r3, #88]
 396:Drivers/STM32G0xx_HAL_Driver/Src/stm32g0xx_hal_rcc_ex.c **** 
 397:Drivers/STM32G0xx_HAL_Driver/Src/stm32g0xx_hal_rcc_ex.c ****     if (PeriphClkInit->I2s1ClockSelection == RCC_I2S1CLKSOURCE_PLL)
 630              		.loc 1 397 22
 631 0382 7B68     		ldr	r3, [r7, #4]
 632 0384 1B6A     		ldr	r3, [r3, #32]
 633              		.loc 1 397 8
 634 0386 012B     		cmp	r3, #1
 635 0388 06D1     		bne	.L27
 398:Drivers/STM32G0xx_HAL_Driver/Src/stm32g0xx_hal_rcc_ex.c ****     {
 399:Drivers/STM32G0xx_HAL_Driver/Src/stm32g0xx_hal_rcc_ex.c ****       /* Enable PLLPCLK output */
 400:Drivers/STM32G0xx_HAL_Driver/Src/stm32g0xx_hal_rcc_ex.c ****       __HAL_RCC_PLLCLKOUT_ENABLE(RCC_PLLPCLK);
 636              		.loc 1 400 7
 637 038a 314B     		ldr	r3, .L34
 638 038c DA68     		ldr	r2, [r3, #12]
 639 038e 304B     		ldr	r3, .L34
 640 0390 8021     		movs	r1, #128
 641 0392 4902     		lsls	r1, r1, #9
 642 0394 0A43     		orrs	r2, r1
 643 0396 DA60     		str	r2, [r3, #12]
 644              	.L27:
 401:Drivers/STM32G0xx_HAL_Driver/Src/stm32g0xx_hal_rcc_ex.c ****     }
 402:Drivers/STM32G0xx_HAL_Driver/Src/stm32g0xx_hal_rcc_ex.c ****   }
 403:Drivers/STM32G0xx_HAL_Driver/Src/stm32g0xx_hal_rcc_ex.c **** 
 404:Drivers/STM32G0xx_HAL_Driver/Src/stm32g0xx_hal_rcc_ex.c **** #if defined(RCC_CCIPR2_I2S2SEL)
 405:Drivers/STM32G0xx_HAL_Driver/Src/stm32g0xx_hal_rcc_ex.c ****   /*-------------------------- I2S2 clock source configuration ---------------------*/
 406:Drivers/STM32G0xx_HAL_Driver/Src/stm32g0xx_hal_rcc_ex.c ****   if (((PeriphClkInit->PeriphClockSelection) & RCC_PERIPHCLK_I2S2) == RCC_PERIPHCLK_I2S2)
 645              		.loc 1 406 22
 646 0398 7B68     		ldr	r3, [r7, #4]
 647 039a 1A68     		ldr	r2, [r3]
 648              		.loc 1 406 46
 649 039c 8023     		movs	r3, #128
 650 039e 9B01     		lsls	r3, r3, #6
 651 03a0 1340     		ands	r3, r2
 652              		.loc 1 406 6
 653 03a2 14D0     		beq	.L28
 407:Drivers/STM32G0xx_HAL_Driver/Src/stm32g0xx_hal_rcc_ex.c ****   {
 408:Drivers/STM32G0xx_HAL_Driver/Src/stm32g0xx_hal_rcc_ex.c ****     /* Check the parameters */
 409:Drivers/STM32G0xx_HAL_Driver/Src/stm32g0xx_hal_rcc_ex.c ****     assert_param(IS_RCC_I2S2CLKSOURCE(PeriphClkInit->I2s2ClockSelection));
 410:Drivers/STM32G0xx_HAL_Driver/Src/stm32g0xx_hal_rcc_ex.c **** 
 411:Drivers/STM32G0xx_HAL_Driver/Src/stm32g0xx_hal_rcc_ex.c ****     /* Configure the I2S2 clock source */
 412:Drivers/STM32G0xx_HAL_Driver/Src/stm32g0xx_hal_rcc_ex.c ****     __HAL_RCC_I2S2_CONFIG(PeriphClkInit->I2s2ClockSelection);
 654              		.loc 1 412 5
 655 03a4 2A4B     		ldr	r3, .L34
 656 03a6 9B6D     		ldr	r3, [r3, #88]
 657 03a8 0C22     		movs	r2, #12
 658 03aa 9343     		bics	r3, r2
 659 03ac 1900     		movs	r1, r3
 660 03ae 7B68     		ldr	r3, [r7, #4]
 661 03b0 5A6A     		ldr	r2, [r3, #36]
 662 03b2 274B     		ldr	r3, .L34
 663 03b4 0A43     		orrs	r2, r1
 664 03b6 9A65     		str	r2, [r3, #88]
 413:Drivers/STM32G0xx_HAL_Driver/Src/stm32g0xx_hal_rcc_ex.c **** 
 414:Drivers/STM32G0xx_HAL_Driver/Src/stm32g0xx_hal_rcc_ex.c ****     if (PeriphClkInit->I2s2ClockSelection == RCC_I2S2CLKSOURCE_PLL)
 665              		.loc 1 414 22
 666 03b8 7B68     		ldr	r3, [r7, #4]
ARM GAS  C:\Users\SOLDER~1\AppData\Local\Temp\ccUUcBce.s 			page 20


 667 03ba 5B6A     		ldr	r3, [r3, #36]
 668              		.loc 1 414 8
 669 03bc 042B     		cmp	r3, #4
 670 03be 06D1     		bne	.L28
 415:Drivers/STM32G0xx_HAL_Driver/Src/stm32g0xx_hal_rcc_ex.c ****     {
 416:Drivers/STM32G0xx_HAL_Driver/Src/stm32g0xx_hal_rcc_ex.c ****       /* Enable PLLPCLK output */
 417:Drivers/STM32G0xx_HAL_Driver/Src/stm32g0xx_hal_rcc_ex.c ****       __HAL_RCC_PLLCLKOUT_ENABLE(RCC_PLLPCLK);
 671              		.loc 1 417 7
 672 03c0 234B     		ldr	r3, .L34
 673 03c2 DA68     		ldr	r2, [r3, #12]
 674 03c4 224B     		ldr	r3, .L34
 675 03c6 8021     		movs	r1, #128
 676 03c8 4902     		lsls	r1, r1, #9
 677 03ca 0A43     		orrs	r2, r1
 678 03cc DA60     		str	r2, [r3, #12]
 679              	.L28:
 418:Drivers/STM32G0xx_HAL_Driver/Src/stm32g0xx_hal_rcc_ex.c ****     }
 419:Drivers/STM32G0xx_HAL_Driver/Src/stm32g0xx_hal_rcc_ex.c ****   }
 420:Drivers/STM32G0xx_HAL_Driver/Src/stm32g0xx_hal_rcc_ex.c **** #endif /* RCC_CCIPR2_I2S2SEL */
 421:Drivers/STM32G0xx_HAL_Driver/Src/stm32g0xx_hal_rcc_ex.c **** 
 422:Drivers/STM32G0xx_HAL_Driver/Src/stm32g0xx_hal_rcc_ex.c **** #if defined(STM32G0C1xx) || defined(STM32G0B1xx)  || defined(STM32G0B0xx)
 423:Drivers/STM32G0xx_HAL_Driver/Src/stm32g0xx_hal_rcc_ex.c ****   /*-------------------------- USB clock source configuration ---------------------*/
 424:Drivers/STM32G0xx_HAL_Driver/Src/stm32g0xx_hal_rcc_ex.c ****   if (((PeriphClkInit->PeriphClockSelection) & RCC_PERIPHCLK_USB) == RCC_PERIPHCLK_USB)
 680              		.loc 1 424 22
 681 03ce 7B68     		ldr	r3, [r7, #4]
 682 03d0 1A68     		ldr	r2, [r3]
 683              		.loc 1 424 46
 684 03d2 8023     		movs	r3, #128
 685 03d4 5B04     		lsls	r3, r3, #17
 686 03d6 1340     		ands	r3, r2
 687              		.loc 1 424 6
 688 03d8 16D0     		beq	.L29
 425:Drivers/STM32G0xx_HAL_Driver/Src/stm32g0xx_hal_rcc_ex.c ****   {
 426:Drivers/STM32G0xx_HAL_Driver/Src/stm32g0xx_hal_rcc_ex.c ****     /* Check the parameters */
 427:Drivers/STM32G0xx_HAL_Driver/Src/stm32g0xx_hal_rcc_ex.c ****     assert_param(IS_RCC_USBCLKSOURCE(PeriphClkInit->UsbClockSelection));
 428:Drivers/STM32G0xx_HAL_Driver/Src/stm32g0xx_hal_rcc_ex.c **** 
 429:Drivers/STM32G0xx_HAL_Driver/Src/stm32g0xx_hal_rcc_ex.c ****     /* Configure the USB clock source */
 430:Drivers/STM32G0xx_HAL_Driver/Src/stm32g0xx_hal_rcc_ex.c ****     __HAL_RCC_USB_CONFIG(PeriphClkInit->UsbClockSelection);
 689              		.loc 1 430 5
 690 03da 1D4B     		ldr	r3, .L34
 691 03dc 9B6D     		ldr	r3, [r3, #88]
 692 03de 224A     		ldr	r2, .L34+24
 693 03e0 1340     		ands	r3, r2
 694 03e2 1900     		movs	r1, r3
 695 03e4 7B68     		ldr	r3, [r7, #4]
 696 03e6 5A6C     		ldr	r2, [r3, #68]
 697 03e8 194B     		ldr	r3, .L34
 698 03ea 0A43     		orrs	r2, r1
 699 03ec 9A65     		str	r2, [r3, #88]
 431:Drivers/STM32G0xx_HAL_Driver/Src/stm32g0xx_hal_rcc_ex.c **** 
 432:Drivers/STM32G0xx_HAL_Driver/Src/stm32g0xx_hal_rcc_ex.c ****     if (PeriphClkInit->UsbClockSelection == RCC_USBCLKSOURCE_PLL)
 700              		.loc 1 432 22
 701 03ee 7B68     		ldr	r3, [r7, #4]
 702 03f0 5A6C     		ldr	r2, [r3, #68]
 703              		.loc 1 432 8
 704 03f2 8023     		movs	r3, #128
 705 03f4 9B01     		lsls	r3, r3, #6
ARM GAS  C:\Users\SOLDER~1\AppData\Local\Temp\ccUUcBce.s 			page 21


 706 03f6 9A42     		cmp	r2, r3
 707 03f8 06D1     		bne	.L29
 433:Drivers/STM32G0xx_HAL_Driver/Src/stm32g0xx_hal_rcc_ex.c ****     {
 434:Drivers/STM32G0xx_HAL_Driver/Src/stm32g0xx_hal_rcc_ex.c ****       /* Enable PLLQCLK output */
 435:Drivers/STM32G0xx_HAL_Driver/Src/stm32g0xx_hal_rcc_ex.c ****       __HAL_RCC_PLLCLKOUT_ENABLE(RCC_PLLQCLK);
 708              		.loc 1 435 7
 709 03fa 154B     		ldr	r3, .L34
 710 03fc DA68     		ldr	r2, [r3, #12]
 711 03fe 144B     		ldr	r3, .L34
 712 0400 8021     		movs	r1, #128
 713 0402 4904     		lsls	r1, r1, #17
 714 0404 0A43     		orrs	r2, r1
 715 0406 DA60     		str	r2, [r3, #12]
 716              	.L29:
 436:Drivers/STM32G0xx_HAL_Driver/Src/stm32g0xx_hal_rcc_ex.c ****     }
 437:Drivers/STM32G0xx_HAL_Driver/Src/stm32g0xx_hal_rcc_ex.c ****   }
 438:Drivers/STM32G0xx_HAL_Driver/Src/stm32g0xx_hal_rcc_ex.c **** #endif /* STM32G0C1xx || STM32G0B1xx || STM32G0B0xx */
 439:Drivers/STM32G0xx_HAL_Driver/Src/stm32g0xx_hal_rcc_ex.c **** 
 440:Drivers/STM32G0xx_HAL_Driver/Src/stm32g0xx_hal_rcc_ex.c **** #if defined(FDCAN1) || defined(FDCAN2)
 441:Drivers/STM32G0xx_HAL_Driver/Src/stm32g0xx_hal_rcc_ex.c ****   /*-------------------------- FDCAN clock source configuration ---------------------*/
 442:Drivers/STM32G0xx_HAL_Driver/Src/stm32g0xx_hal_rcc_ex.c ****   if (((PeriphClkInit->PeriphClockSelection) & RCC_PERIPHCLK_FDCAN) == RCC_PERIPHCLK_FDCAN)
 717              		.loc 1 442 22
 718 0408 7B68     		ldr	r3, [r7, #4]
 719 040a 1A68     		ldr	r2, [r3]
 720              		.loc 1 442 46
 721 040c 8023     		movs	r3, #128
 722 040e 9B04     		lsls	r3, r3, #18
 723 0410 1340     		ands	r3, r2
 724              		.loc 1 442 6
 725 0412 16D0     		beq	.L30
 443:Drivers/STM32G0xx_HAL_Driver/Src/stm32g0xx_hal_rcc_ex.c ****   {
 444:Drivers/STM32G0xx_HAL_Driver/Src/stm32g0xx_hal_rcc_ex.c ****     /* Check the parameters */
 445:Drivers/STM32G0xx_HAL_Driver/Src/stm32g0xx_hal_rcc_ex.c ****     assert_param(IS_RCC_FDCANCLKSOURCE(PeriphClkInit->FdcanClockSelection));
 446:Drivers/STM32G0xx_HAL_Driver/Src/stm32g0xx_hal_rcc_ex.c **** 
 447:Drivers/STM32G0xx_HAL_Driver/Src/stm32g0xx_hal_rcc_ex.c ****     /* Configure the FDCAN clock source */
 448:Drivers/STM32G0xx_HAL_Driver/Src/stm32g0xx_hal_rcc_ex.c ****     __HAL_RCC_FDCAN_CONFIG(PeriphClkInit->FdcanClockSelection);
 726              		.loc 1 448 5
 727 0414 0E4B     		ldr	r3, .L34
 728 0416 9B6D     		ldr	r3, [r3, #88]
 729 0418 104A     		ldr	r2, .L34+12
 730 041a 1340     		ands	r3, r2
 731 041c 1900     		movs	r1, r3
 732 041e 7B68     		ldr	r3, [r7, #4]
 733 0420 9A6C     		ldr	r2, [r3, #72]
 734 0422 0B4B     		ldr	r3, .L34
 735 0424 0A43     		orrs	r2, r1
 736 0426 9A65     		str	r2, [r3, #88]
 449:Drivers/STM32G0xx_HAL_Driver/Src/stm32g0xx_hal_rcc_ex.c **** 
 450:Drivers/STM32G0xx_HAL_Driver/Src/stm32g0xx_hal_rcc_ex.c ****     if (PeriphClkInit->FdcanClockSelection == RCC_FDCANCLKSOURCE_PLL)
 737              		.loc 1 450 22
 738 0428 7B68     		ldr	r3, [r7, #4]
 739 042a 9A6C     		ldr	r2, [r3, #72]
 740              		.loc 1 450 8
 741 042c 8023     		movs	r3, #128
 742 042e 5B00     		lsls	r3, r3, #1
 743 0430 9A42     		cmp	r2, r3
 744 0432 06D1     		bne	.L30
ARM GAS  C:\Users\SOLDER~1\AppData\Local\Temp\ccUUcBce.s 			page 22


 451:Drivers/STM32G0xx_HAL_Driver/Src/stm32g0xx_hal_rcc_ex.c ****     {
 452:Drivers/STM32G0xx_HAL_Driver/Src/stm32g0xx_hal_rcc_ex.c ****       /* Enable PLLQCLK output */
 453:Drivers/STM32G0xx_HAL_Driver/Src/stm32g0xx_hal_rcc_ex.c ****       __HAL_RCC_PLLCLKOUT_ENABLE(RCC_PLLQCLK);
 745              		.loc 1 453 7
 746 0434 064B     		ldr	r3, .L34
 747 0436 DA68     		ldr	r2, [r3, #12]
 748 0438 054B     		ldr	r3, .L34
 749 043a 8021     		movs	r1, #128
 750 043c 4904     		lsls	r1, r1, #17
 751 043e 0A43     		orrs	r2, r1
 752 0440 DA60     		str	r2, [r3, #12]
 753              	.L30:
 454:Drivers/STM32G0xx_HAL_Driver/Src/stm32g0xx_hal_rcc_ex.c ****     }
 455:Drivers/STM32G0xx_HAL_Driver/Src/stm32g0xx_hal_rcc_ex.c ****   }
 456:Drivers/STM32G0xx_HAL_Driver/Src/stm32g0xx_hal_rcc_ex.c **** #endif /* FDCAN1 || FDCAN2 */
 457:Drivers/STM32G0xx_HAL_Driver/Src/stm32g0xx_hal_rcc_ex.c **** 
 458:Drivers/STM32G0xx_HAL_Driver/Src/stm32g0xx_hal_rcc_ex.c ****   return status;
 754              		.loc 1 458 10
 755 0442 1223     		movs	r3, #18
 756 0444 FB18     		adds	r3, r7, r3
 757 0446 1B78     		ldrb	r3, [r3]
 459:Drivers/STM32G0xx_HAL_Driver/Src/stm32g0xx_hal_rcc_ex.c **** }
 758              		.loc 1 459 1
 759 0448 1800     		movs	r0, r3
 760 044a BD46     		mov	sp, r7
 761 044c 06B0     		add	sp, sp, #24
 762              		@ sp needed
 763 044e 80BD     		pop	{r7, pc}
 764              	.L35:
 765              		.align	2
 766              	.L34:
 767 0450 00100240 		.word	1073876992
 768 0454 FFFFFFEF 		.word	-268435457
 769 0458 FFF3FFFF 		.word	-3073
 770 045c FFFCFFFF 		.word	-769
 771 0460 FFFFF3FF 		.word	-786433
 772 0464 FFFFCFFF 		.word	-3145729
 773 0468 FFCFFFFF 		.word	-12289
 774 046c FF3FFFFF 		.word	-49153
 775 0470 FFFFBFFF 		.word	-4194305
 776 0474 FFFFFFFE 		.word	-16777217
 777              		.cfi_endproc
 778              	.LFE355:
 780              		.section	.text.HAL_RCCEx_GetPeriphCLKConfig,"ax",%progbits
 781              		.align	1
 782              		.global	HAL_RCCEx_GetPeriphCLKConfig
 783              		.syntax unified
 784              		.code	16
 785              		.thumb_func
 787              	HAL_RCCEx_GetPeriphCLKConfig:
 788              	.LFB356:
 460:Drivers/STM32G0xx_HAL_Driver/Src/stm32g0xx_hal_rcc_ex.c **** 
 461:Drivers/STM32G0xx_HAL_Driver/Src/stm32g0xx_hal_rcc_ex.c **** /**
 462:Drivers/STM32G0xx_HAL_Driver/Src/stm32g0xx_hal_rcc_ex.c ****   * @brief  Get the RCC_ClkInitStruct according to the internal RCC configuration registers.
 463:Drivers/STM32G0xx_HAL_Driver/Src/stm32g0xx_hal_rcc_ex.c ****   * @param  PeriphClkInit pointer to an RCC_PeriphCLKInitTypeDef structure that
 464:Drivers/STM32G0xx_HAL_Driver/Src/stm32g0xx_hal_rcc_ex.c ****   *         returns the configuration information for the Extended Peripherals
 465:Drivers/STM32G0xx_HAL_Driver/Src/stm32g0xx_hal_rcc_ex.c ****   *         clocks: I2C1, I2S1, USART1, RTC, ADC,
ARM GAS  C:\Users\SOLDER~1\AppData\Local\Temp\ccUUcBce.s 			page 23


 466:Drivers/STM32G0xx_HAL_Driver/Src/stm32g0xx_hal_rcc_ex.c ****   *         LPTIM1 (1), LPTIM2 (1), TIM1 (2), TIM15 (1)(2), USART2 (2), LPUART1 (1), CEC (1) and RN
 467:Drivers/STM32G0xx_HAL_Driver/Src/stm32g0xx_hal_rcc_ex.c ****   * @note (1) Peripheral is not available on all devices
 468:Drivers/STM32G0xx_HAL_Driver/Src/stm32g0xx_hal_rcc_ex.c ****   * @note (2) Peripheral clock selection is not available on all devices
 469:Drivers/STM32G0xx_HAL_Driver/Src/stm32g0xx_hal_rcc_ex.c ****   * @retval None
 470:Drivers/STM32G0xx_HAL_Driver/Src/stm32g0xx_hal_rcc_ex.c ****   */
 471:Drivers/STM32G0xx_HAL_Driver/Src/stm32g0xx_hal_rcc_ex.c **** void HAL_RCCEx_GetPeriphCLKConfig(RCC_PeriphCLKInitTypeDef  *PeriphClkInit)
 472:Drivers/STM32G0xx_HAL_Driver/Src/stm32g0xx_hal_rcc_ex.c **** {
 789              		.loc 1 472 1
 790              		.cfi_startproc
 791              		@ args = 0, pretend = 0, frame = 8
 792              		@ frame_needed = 1, uses_anonymous_args = 0
 793 0000 80B5     		push	{r7, lr}
 794              		.cfi_def_cfa_offset 8
 795              		.cfi_offset 7, -8
 796              		.cfi_offset 14, -4
 797 0002 82B0     		sub	sp, sp, #8
 798              		.cfi_def_cfa_offset 16
 799 0004 00AF     		add	r7, sp, #0
 800              		.cfi_def_cfa_register 7
 801 0006 7860     		str	r0, [r7, #4]
 473:Drivers/STM32G0xx_HAL_Driver/Src/stm32g0xx_hal_rcc_ex.c ****   /* Set all possible values for the extended clock type parameter------------*/
 474:Drivers/STM32G0xx_HAL_Driver/Src/stm32g0xx_hal_rcc_ex.c ****   PeriphClkInit->PeriphClockSelection = RCC_PERIPHCLK_USART1 | RCC_PERIPHCLK_I2C1 | RCC_PERIPHCLK_I
 802              		.loc 1 474 39
 803 0008 7B68     		ldr	r3, [r7, #4]
 804 000a 664A     		ldr	r2, .L37
 805 000c 1A60     		str	r2, [r3]
 475:Drivers/STM32G0xx_HAL_Driver/Src/stm32g0xx_hal_rcc_ex.c ****                                         RCC_PERIPHCLK_ADC     | RCC_PERIPHCLK_RTC ;
 476:Drivers/STM32G0xx_HAL_Driver/Src/stm32g0xx_hal_rcc_ex.c **** 
 477:Drivers/STM32G0xx_HAL_Driver/Src/stm32g0xx_hal_rcc_ex.c **** #if defined(RCC_CCIPR_LPTIM1SEL) && defined(RCC_CCIPR_LPTIM2SEL)
 478:Drivers/STM32G0xx_HAL_Driver/Src/stm32g0xx_hal_rcc_ex.c ****   PeriphClkInit->PeriphClockSelection |=  RCC_PERIPHCLK_LPTIM2  | RCC_PERIPHCLK_LPTIM1;
 806              		.loc 1 478 39
 807 000e 7B68     		ldr	r3, [r7, #4]
 808 0010 1B68     		ldr	r3, [r3]
 809 0012 C022     		movs	r2, #192
 810 0014 D200     		lsls	r2, r2, #3
 811 0016 1A43     		orrs	r2, r3
 812 0018 7B68     		ldr	r3, [r7, #4]
 813 001a 1A60     		str	r2, [r3]
 479:Drivers/STM32G0xx_HAL_Driver/Src/stm32g0xx_hal_rcc_ex.c **** #endif /* RCC_CCIPR_LPTIM1SEL && RCC_CCIPR_LPTIM2SEL */
 480:Drivers/STM32G0xx_HAL_Driver/Src/stm32g0xx_hal_rcc_ex.c **** #if defined(RCC_CCIPR_RNGSEL)
 481:Drivers/STM32G0xx_HAL_Driver/Src/stm32g0xx_hal_rcc_ex.c ****   PeriphClkInit->PeriphClockSelection |=  RCC_PERIPHCLK_RNG;
 482:Drivers/STM32G0xx_HAL_Driver/Src/stm32g0xx_hal_rcc_ex.c **** #endif /* RCC_CCIPR_RNGSEL */
 483:Drivers/STM32G0xx_HAL_Driver/Src/stm32g0xx_hal_rcc_ex.c **** #if defined(RCC_CCIPR_LPUART1SEL)
 484:Drivers/STM32G0xx_HAL_Driver/Src/stm32g0xx_hal_rcc_ex.c ****   PeriphClkInit->PeriphClockSelection |=  RCC_PERIPHCLK_LPUART1;
 814              		.loc 1 484 39
 815 001c 7B68     		ldr	r3, [r7, #4]
 816 001e 1B68     		ldr	r3, [r3]
 817 0020 1022     		movs	r2, #16
 818 0022 1A43     		orrs	r2, r3
 819 0024 7B68     		ldr	r3, [r7, #4]
 820 0026 1A60     		str	r2, [r3]
 485:Drivers/STM32G0xx_HAL_Driver/Src/stm32g0xx_hal_rcc_ex.c **** #endif /* RCC_CCIPR_LPUART1SEL */
 486:Drivers/STM32G0xx_HAL_Driver/Src/stm32g0xx_hal_rcc_ex.c **** #if defined(RCC_CCIPR_LPUART2SEL)
 487:Drivers/STM32G0xx_HAL_Driver/Src/stm32g0xx_hal_rcc_ex.c ****   PeriphClkInit->PeriphClockSelection |=  RCC_PERIPHCLK_LPUART2;
 821              		.loc 1 487 39
 822 0028 7B68     		ldr	r3, [r7, #4]
 823 002a 1B68     		ldr	r3, [r3]
ARM GAS  C:\Users\SOLDER~1\AppData\Local\Temp\ccUUcBce.s 			page 24


 824 002c 8022     		movs	r2, #128
 825 002e 5201     		lsls	r2, r2, #5
 826 0030 1A43     		orrs	r2, r3
 827 0032 7B68     		ldr	r3, [r7, #4]
 828 0034 1A60     		str	r2, [r3]
 488:Drivers/STM32G0xx_HAL_Driver/Src/stm32g0xx_hal_rcc_ex.c **** #endif /* RCC_CCIPR_LPUART2SEL */
 489:Drivers/STM32G0xx_HAL_Driver/Src/stm32g0xx_hal_rcc_ex.c **** #if defined(RCC_CCIPR_CECSEL)
 490:Drivers/STM32G0xx_HAL_Driver/Src/stm32g0xx_hal_rcc_ex.c ****   PeriphClkInit->PeriphClockSelection |=  RCC_PERIPHCLK_CEC;
 829              		.loc 1 490 39
 830 0036 7B68     		ldr	r3, [r7, #4]
 831 0038 1B68     		ldr	r3, [r3]
 832 003a 8022     		movs	r2, #128
 833 003c 1203     		lsls	r2, r2, #12
 834 003e 1A43     		orrs	r2, r3
 835 0040 7B68     		ldr	r3, [r7, #4]
 836 0042 1A60     		str	r2, [r3]
 491:Drivers/STM32G0xx_HAL_Driver/Src/stm32g0xx_hal_rcc_ex.c **** #endif /* RCC_CCIPR_CECSEL */
 492:Drivers/STM32G0xx_HAL_Driver/Src/stm32g0xx_hal_rcc_ex.c **** #if defined(RCC_CCIPR_TIM1SEL)
 493:Drivers/STM32G0xx_HAL_Driver/Src/stm32g0xx_hal_rcc_ex.c ****   PeriphClkInit->PeriphClockSelection |=  RCC_PERIPHCLK_TIM1;
 837              		.loc 1 493 39
 838 0044 7B68     		ldr	r3, [r7, #4]
 839 0046 1B68     		ldr	r3, [r3]
 840 0048 8022     		movs	r2, #128
 841 004a 9203     		lsls	r2, r2, #14
 842 004c 1A43     		orrs	r2, r3
 843 004e 7B68     		ldr	r3, [r7, #4]
 844 0050 1A60     		str	r2, [r3]
 494:Drivers/STM32G0xx_HAL_Driver/Src/stm32g0xx_hal_rcc_ex.c **** #endif /* RCC_CCIPR_TIM1SEL */
 495:Drivers/STM32G0xx_HAL_Driver/Src/stm32g0xx_hal_rcc_ex.c **** #if defined(RCC_CCIPR_TIM15SEL)
 496:Drivers/STM32G0xx_HAL_Driver/Src/stm32g0xx_hal_rcc_ex.c ****   PeriphClkInit->PeriphClockSelection |=  RCC_PERIPHCLK_TIM15;
 845              		.loc 1 496 39
 846 0052 7B68     		ldr	r3, [r7, #4]
 847 0054 1B68     		ldr	r3, [r3]
 848 0056 8022     		movs	r2, #128
 849 0058 D203     		lsls	r2, r2, #15
 850 005a 1A43     		orrs	r2, r3
 851 005c 7B68     		ldr	r3, [r7, #4]
 852 005e 1A60     		str	r2, [r3]
 497:Drivers/STM32G0xx_HAL_Driver/Src/stm32g0xx_hal_rcc_ex.c **** #endif /* RCC_CCIPR_TIM15SEL */
 498:Drivers/STM32G0xx_HAL_Driver/Src/stm32g0xx_hal_rcc_ex.c **** #if defined(RCC_CCIPR_USART2SEL)
 499:Drivers/STM32G0xx_HAL_Driver/Src/stm32g0xx_hal_rcc_ex.c ****   PeriphClkInit->PeriphClockSelection |=  RCC_PERIPHCLK_USART2;
 853              		.loc 1 499 39
 854 0060 7B68     		ldr	r3, [r7, #4]
 855 0062 1B68     		ldr	r3, [r3]
 856 0064 0222     		movs	r2, #2
 857 0066 1A43     		orrs	r2, r3
 858 0068 7B68     		ldr	r3, [r7, #4]
 859 006a 1A60     		str	r2, [r3]
 500:Drivers/STM32G0xx_HAL_Driver/Src/stm32g0xx_hal_rcc_ex.c **** #endif /* RCC_CCIPR_USART2SEL */
 501:Drivers/STM32G0xx_HAL_Driver/Src/stm32g0xx_hal_rcc_ex.c **** #if defined(RCC_CCIPR_USART3SEL)
 502:Drivers/STM32G0xx_HAL_Driver/Src/stm32g0xx_hal_rcc_ex.c ****   PeriphClkInit->PeriphClockSelection |=  RCC_PERIPHCLK_USART3;
 860              		.loc 1 502 39
 861 006c 7B68     		ldr	r3, [r7, #4]
 862 006e 1B68     		ldr	r3, [r3]
 863 0070 0422     		movs	r2, #4
 864 0072 1A43     		orrs	r2, r3
 865 0074 7B68     		ldr	r3, [r7, #4]
ARM GAS  C:\Users\SOLDER~1\AppData\Local\Temp\ccUUcBce.s 			page 25


 866 0076 1A60     		str	r2, [r3]
 503:Drivers/STM32G0xx_HAL_Driver/Src/stm32g0xx_hal_rcc_ex.c **** #endif /* RCC_CCIPR_USART3SEL */
 504:Drivers/STM32G0xx_HAL_Driver/Src/stm32g0xx_hal_rcc_ex.c **** #if defined(RCC_CCIPR_I2C2SEL)
 505:Drivers/STM32G0xx_HAL_Driver/Src/stm32g0xx_hal_rcc_ex.c ****   PeriphClkInit->PeriphClockSelection |=  RCC_PERIPHCLK_I2C2;
 867              		.loc 1 505 39
 868 0078 7B68     		ldr	r3, [r7, #4]
 869 007a 1B68     		ldr	r3, [r3]
 870 007c 4022     		movs	r2, #64
 871 007e 1A43     		orrs	r2, r3
 872 0080 7B68     		ldr	r3, [r7, #4]
 873 0082 1A60     		str	r2, [r3]
 506:Drivers/STM32G0xx_HAL_Driver/Src/stm32g0xx_hal_rcc_ex.c **** #endif /* RCC_CCIPR_I2C2SEL */
 507:Drivers/STM32G0xx_HAL_Driver/Src/stm32g0xx_hal_rcc_ex.c **** #if defined(RCC_CCIPR2_I2S2SEL)
 508:Drivers/STM32G0xx_HAL_Driver/Src/stm32g0xx_hal_rcc_ex.c ****   PeriphClkInit->PeriphClockSelection |=  RCC_PERIPHCLK_I2S2;
 874              		.loc 1 508 39
 875 0084 7B68     		ldr	r3, [r7, #4]
 876 0086 1B68     		ldr	r3, [r3]
 877 0088 8022     		movs	r2, #128
 878 008a 9201     		lsls	r2, r2, #6
 879 008c 1A43     		orrs	r2, r3
 880 008e 7B68     		ldr	r3, [r7, #4]
 881 0090 1A60     		str	r2, [r3]
 509:Drivers/STM32G0xx_HAL_Driver/Src/stm32g0xx_hal_rcc_ex.c **** #endif /* RCC_CCIPR2_I2S2SEL */
 510:Drivers/STM32G0xx_HAL_Driver/Src/stm32g0xx_hal_rcc_ex.c **** #if defined(RCC_CCIPR2_USBSEL)
 511:Drivers/STM32G0xx_HAL_Driver/Src/stm32g0xx_hal_rcc_ex.c ****   PeriphClkInit->PeriphClockSelection |=  RCC_PERIPHCLK_USB;
 882              		.loc 1 511 39
 883 0092 7B68     		ldr	r3, [r7, #4]
 884 0094 1B68     		ldr	r3, [r3]
 885 0096 8022     		movs	r2, #128
 886 0098 5204     		lsls	r2, r2, #17
 887 009a 1A43     		orrs	r2, r3
 888 009c 7B68     		ldr	r3, [r7, #4]
 889 009e 1A60     		str	r2, [r3]
 512:Drivers/STM32G0xx_HAL_Driver/Src/stm32g0xx_hal_rcc_ex.c **** #endif /* RCC_CCIPR2_USBSEL */
 513:Drivers/STM32G0xx_HAL_Driver/Src/stm32g0xx_hal_rcc_ex.c **** #if defined(RCC_CCIPR2_FDCANSEL)
 514:Drivers/STM32G0xx_HAL_Driver/Src/stm32g0xx_hal_rcc_ex.c ****   PeriphClkInit->PeriphClockSelection |=  RCC_PERIPHCLK_FDCAN;
 890              		.loc 1 514 39
 891 00a0 7B68     		ldr	r3, [r7, #4]
 892 00a2 1B68     		ldr	r3, [r3]
 893 00a4 8022     		movs	r2, #128
 894 00a6 9204     		lsls	r2, r2, #18
 895 00a8 1A43     		orrs	r2, r3
 896 00aa 7B68     		ldr	r3, [r7, #4]
 897 00ac 1A60     		str	r2, [r3]
 515:Drivers/STM32G0xx_HAL_Driver/Src/stm32g0xx_hal_rcc_ex.c **** #endif /* RCC_CCIPR_FDCANSEL */
 516:Drivers/STM32G0xx_HAL_Driver/Src/stm32g0xx_hal_rcc_ex.c ****   /* Get the USART1 clock source ---------------------------------------------*/
 517:Drivers/STM32G0xx_HAL_Driver/Src/stm32g0xx_hal_rcc_ex.c ****   PeriphClkInit->Usart1ClockSelection  = __HAL_RCC_GET_USART1_SOURCE();
 898              		.loc 1 517 42
 899 00ae 3E4B     		ldr	r3, .L37+4
 900 00b0 5B6D     		ldr	r3, [r3, #84]
 901 00b2 0322     		movs	r2, #3
 902 00b4 1A40     		ands	r2, r3
 903              		.loc 1 517 40
 904 00b6 7B68     		ldr	r3, [r7, #4]
 905 00b8 5A60     		str	r2, [r3, #4]
 518:Drivers/STM32G0xx_HAL_Driver/Src/stm32g0xx_hal_rcc_ex.c **** #if defined(RCC_CCIPR_USART2SEL)
 519:Drivers/STM32G0xx_HAL_Driver/Src/stm32g0xx_hal_rcc_ex.c ****   /* Get the USART2 clock source ---------------------------------------------*/
ARM GAS  C:\Users\SOLDER~1\AppData\Local\Temp\ccUUcBce.s 			page 26


 520:Drivers/STM32G0xx_HAL_Driver/Src/stm32g0xx_hal_rcc_ex.c ****   PeriphClkInit->Usart2ClockSelection  = __HAL_RCC_GET_USART2_SOURCE();
 906              		.loc 1 520 42
 907 00ba 3B4B     		ldr	r3, .L37+4
 908 00bc 5B6D     		ldr	r3, [r3, #84]
 909 00be 0C22     		movs	r2, #12
 910 00c0 1A40     		ands	r2, r3
 911              		.loc 1 520 40
 912 00c2 7B68     		ldr	r3, [r7, #4]
 913 00c4 9A60     		str	r2, [r3, #8]
 521:Drivers/STM32G0xx_HAL_Driver/Src/stm32g0xx_hal_rcc_ex.c **** #endif /* RCC_CCIPR_USART2SEL */
 522:Drivers/STM32G0xx_HAL_Driver/Src/stm32g0xx_hal_rcc_ex.c **** #if defined(RCC_CCIPR_USART3SEL)
 523:Drivers/STM32G0xx_HAL_Driver/Src/stm32g0xx_hal_rcc_ex.c ****   /* Get the USART3 clock source ---------------------------------------------*/
 524:Drivers/STM32G0xx_HAL_Driver/Src/stm32g0xx_hal_rcc_ex.c ****   PeriphClkInit->Usart3ClockSelection  = __HAL_RCC_GET_USART3_SOURCE();
 914              		.loc 1 524 42
 915 00c6 384B     		ldr	r3, .L37+4
 916 00c8 5B6D     		ldr	r3, [r3, #84]
 917 00ca 3022     		movs	r2, #48
 918 00cc 1A40     		ands	r2, r3
 919              		.loc 1 524 40
 920 00ce 7B68     		ldr	r3, [r7, #4]
 921 00d0 DA60     		str	r2, [r3, #12]
 525:Drivers/STM32G0xx_HAL_Driver/Src/stm32g0xx_hal_rcc_ex.c **** #endif /* RCC_CCIPR_USART3SEL */
 526:Drivers/STM32G0xx_HAL_Driver/Src/stm32g0xx_hal_rcc_ex.c **** #if defined(RCC_CCIPR_LPUART1SEL)
 527:Drivers/STM32G0xx_HAL_Driver/Src/stm32g0xx_hal_rcc_ex.c ****   /* Get the LPUART1 clock source --------------------------------------------*/
 528:Drivers/STM32G0xx_HAL_Driver/Src/stm32g0xx_hal_rcc_ex.c ****   PeriphClkInit->Lpuart1ClockSelection = __HAL_RCC_GET_LPUART1_SOURCE();
 922              		.loc 1 528 42
 923 00d2 354B     		ldr	r3, .L37+4
 924 00d4 5A6D     		ldr	r2, [r3, #84]
 925 00d6 C023     		movs	r3, #192
 926 00d8 1B01     		lsls	r3, r3, #4
 927 00da 1A40     		ands	r2, r3
 928              		.loc 1 528 40
 929 00dc 7B68     		ldr	r3, [r7, #4]
 930 00de 1A61     		str	r2, [r3, #16]
 529:Drivers/STM32G0xx_HAL_Driver/Src/stm32g0xx_hal_rcc_ex.c **** #endif /* RCC_CCIPR_LPUART1SEL */
 530:Drivers/STM32G0xx_HAL_Driver/Src/stm32g0xx_hal_rcc_ex.c **** #if defined(RCC_CCIPR_LPUART2SEL)
 531:Drivers/STM32G0xx_HAL_Driver/Src/stm32g0xx_hal_rcc_ex.c ****   /* Get the LPUART2 clock source --------------------------------------------*/
 532:Drivers/STM32G0xx_HAL_Driver/Src/stm32g0xx_hal_rcc_ex.c ****   PeriphClkInit->Lpuart2ClockSelection = __HAL_RCC_GET_LPUART2_SOURCE();
 931              		.loc 1 532 42
 932 00e0 314B     		ldr	r3, .L37+4
 933 00e2 5A6D     		ldr	r2, [r3, #84]
 934 00e4 C023     		movs	r3, #192
 935 00e6 9B00     		lsls	r3, r3, #2
 936 00e8 1A40     		ands	r2, r3
 937              		.loc 1 532 40
 938 00ea 7B68     		ldr	r3, [r7, #4]
 939 00ec 5A61     		str	r2, [r3, #20]
 533:Drivers/STM32G0xx_HAL_Driver/Src/stm32g0xx_hal_rcc_ex.c **** #endif /* RCC_CCIPR_LPUART2SEL */
 534:Drivers/STM32G0xx_HAL_Driver/Src/stm32g0xx_hal_rcc_ex.c ****   /* Get the I2C1 clock source -----------------------------------------------*/
 535:Drivers/STM32G0xx_HAL_Driver/Src/stm32g0xx_hal_rcc_ex.c ****   PeriphClkInit->I2c1ClockSelection    = __HAL_RCC_GET_I2C1_SOURCE();
 940              		.loc 1 535 42
 941 00ee 2E4B     		ldr	r3, .L37+4
 942 00f0 5A6D     		ldr	r2, [r3, #84]
 943 00f2 C023     		movs	r3, #192
 944 00f4 9B01     		lsls	r3, r3, #6
 945 00f6 1A40     		ands	r2, r3
 946              		.loc 1 535 40
ARM GAS  C:\Users\SOLDER~1\AppData\Local\Temp\ccUUcBce.s 			page 27


 947 00f8 7B68     		ldr	r3, [r7, #4]
 948 00fa 9A61     		str	r2, [r3, #24]
 536:Drivers/STM32G0xx_HAL_Driver/Src/stm32g0xx_hal_rcc_ex.c **** #if defined(RCC_CCIPR_I2C2SEL)
 537:Drivers/STM32G0xx_HAL_Driver/Src/stm32g0xx_hal_rcc_ex.c ****   /* Get the I2C2 clock source -----------------------------------------------*/
 538:Drivers/STM32G0xx_HAL_Driver/Src/stm32g0xx_hal_rcc_ex.c ****   PeriphClkInit->I2c2ClockSelection    = __HAL_RCC_GET_I2C2_SOURCE();
 949              		.loc 1 538 42
 950 00fc 2A4B     		ldr	r3, .L37+4
 951 00fe 5A6D     		ldr	r2, [r3, #84]
 952 0100 C023     		movs	r3, #192
 953 0102 1B02     		lsls	r3, r3, #8
 954 0104 1A40     		ands	r2, r3
 955              		.loc 1 538 40
 956 0106 7B68     		ldr	r3, [r7, #4]
 957 0108 DA61     		str	r2, [r3, #28]
 539:Drivers/STM32G0xx_HAL_Driver/Src/stm32g0xx_hal_rcc_ex.c **** #endif /* RCC_CCIPR_I2C2SEL */
 540:Drivers/STM32G0xx_HAL_Driver/Src/stm32g0xx_hal_rcc_ex.c **** #if defined(RCC_CCIPR_LPTIM1SEL)
 541:Drivers/STM32G0xx_HAL_Driver/Src/stm32g0xx_hal_rcc_ex.c ****   /* Get the LPTIM1 clock source ---------------------------------------------*/
 542:Drivers/STM32G0xx_HAL_Driver/Src/stm32g0xx_hal_rcc_ex.c ****   PeriphClkInit->Lptim1ClockSelection  = __HAL_RCC_GET_LPTIM1_SOURCE();
 958              		.loc 1 542 42
 959 010a 274B     		ldr	r3, .L37+4
 960 010c 5A6D     		ldr	r2, [r3, #84]
 961 010e C023     		movs	r3, #192
 962 0110 1B03     		lsls	r3, r3, #12
 963 0112 1A40     		ands	r2, r3
 964              		.loc 1 542 40
 965 0114 7B68     		ldr	r3, [r7, #4]
 966 0116 9A62     		str	r2, [r3, #40]
 543:Drivers/STM32G0xx_HAL_Driver/Src/stm32g0xx_hal_rcc_ex.c **** #endif /* RCC_CCIPR_LPTIM1SEL */
 544:Drivers/STM32G0xx_HAL_Driver/Src/stm32g0xx_hal_rcc_ex.c **** #if defined(RCC_CCIPR_LPTIM2SEL)
 545:Drivers/STM32G0xx_HAL_Driver/Src/stm32g0xx_hal_rcc_ex.c ****   /* Get the LPTIM2 clock source ---------------------------------------------*/
 546:Drivers/STM32G0xx_HAL_Driver/Src/stm32g0xx_hal_rcc_ex.c ****   PeriphClkInit->Lptim2ClockSelection  = __HAL_RCC_GET_LPTIM2_SOURCE();
 967              		.loc 1 546 42
 968 0118 234B     		ldr	r3, .L37+4
 969 011a 5A6D     		ldr	r2, [r3, #84]
 970 011c C023     		movs	r3, #192
 971 011e 9B03     		lsls	r3, r3, #14
 972 0120 1A40     		ands	r2, r3
 973              		.loc 1 546 40
 974 0122 7B68     		ldr	r3, [r7, #4]
 975 0124 DA62     		str	r2, [r3, #44]
 547:Drivers/STM32G0xx_HAL_Driver/Src/stm32g0xx_hal_rcc_ex.c **** #endif /* RCC_CCIPR_LPTIM2SEL */
 548:Drivers/STM32G0xx_HAL_Driver/Src/stm32g0xx_hal_rcc_ex.c **** #if defined(RCC_CCIPR_TIM1SEL)
 549:Drivers/STM32G0xx_HAL_Driver/Src/stm32g0xx_hal_rcc_ex.c ****   /* Get the TIM1 clock source ---------------------------------------------*/
 550:Drivers/STM32G0xx_HAL_Driver/Src/stm32g0xx_hal_rcc_ex.c ****   PeriphClkInit->Tim1ClockSelection  = __HAL_RCC_GET_TIM1_SOURCE();
 976              		.loc 1 550 40
 977 0126 204B     		ldr	r3, .L37+4
 978 0128 5A6D     		ldr	r2, [r3, #84]
 979 012a 8023     		movs	r3, #128
 980 012c DB03     		lsls	r3, r3, #15
 981 012e 1A40     		ands	r2, r3
 982              		.loc 1 550 38
 983 0130 7B68     		ldr	r3, [r7, #4]
 984 0132 9A63     		str	r2, [r3, #56]
 551:Drivers/STM32G0xx_HAL_Driver/Src/stm32g0xx_hal_rcc_ex.c **** #endif /* RCC_CCIPR_TIM1SEL */
 552:Drivers/STM32G0xx_HAL_Driver/Src/stm32g0xx_hal_rcc_ex.c **** #if defined(RCC_CCIPR_TIM15SEL)
 553:Drivers/STM32G0xx_HAL_Driver/Src/stm32g0xx_hal_rcc_ex.c ****   /* Get the TIM15 clock source ---------------------------------------------*/
 554:Drivers/STM32G0xx_HAL_Driver/Src/stm32g0xx_hal_rcc_ex.c ****   PeriphClkInit->Tim15ClockSelection  = __HAL_RCC_GET_TIM15_SOURCE();
ARM GAS  C:\Users\SOLDER~1\AppData\Local\Temp\ccUUcBce.s 			page 28


 985              		.loc 1 554 41
 986 0134 1C4B     		ldr	r3, .L37+4
 987 0136 5A6D     		ldr	r2, [r3, #84]
 988 0138 8023     		movs	r3, #128
 989 013a 5B04     		lsls	r3, r3, #17
 990 013c 1A40     		ands	r2, r3
 991              		.loc 1 554 39
 992 013e 7B68     		ldr	r3, [r7, #4]
 993 0140 DA63     		str	r2, [r3, #60]
 555:Drivers/STM32G0xx_HAL_Driver/Src/stm32g0xx_hal_rcc_ex.c **** #endif /* RCC_CCIPR_TIM15SEL */
 556:Drivers/STM32G0xx_HAL_Driver/Src/stm32g0xx_hal_rcc_ex.c ****   /* Get the RTC clock source ------------------------------------------------*/
 557:Drivers/STM32G0xx_HAL_Driver/Src/stm32g0xx_hal_rcc_ex.c ****   PeriphClkInit->RTCClockSelection     = __HAL_RCC_GET_RTC_SOURCE();
 994              		.loc 1 557 42
 995 0142 194B     		ldr	r3, .L37+4
 996 0144 DA6D     		ldr	r2, [r3, #92]
 997 0146 C023     		movs	r3, #192
 998 0148 9B00     		lsls	r3, r3, #2
 999 014a 1A40     		ands	r2, r3
 1000              		.loc 1 557 40
 1001 014c 7B68     		ldr	r3, [r7, #4]
 1002 014e 1A64     		str	r2, [r3, #64]
 558:Drivers/STM32G0xx_HAL_Driver/Src/stm32g0xx_hal_rcc_ex.c **** #if defined(RCC_CCIPR_RNGSEL)
 559:Drivers/STM32G0xx_HAL_Driver/Src/stm32g0xx_hal_rcc_ex.c ****   /* Get the RNG clock source ------------------------------------------------*/
 560:Drivers/STM32G0xx_HAL_Driver/Src/stm32g0xx_hal_rcc_ex.c ****   PeriphClkInit->RngClockSelection     = __HAL_RCC_GET_RNG_SOURCE();
 561:Drivers/STM32G0xx_HAL_Driver/Src/stm32g0xx_hal_rcc_ex.c **** #endif  /* RCC_CCIPR_RNGSEL */
 562:Drivers/STM32G0xx_HAL_Driver/Src/stm32g0xx_hal_rcc_ex.c ****   /* Get the ADC clock source -----------------------------------------------*/
 563:Drivers/STM32G0xx_HAL_Driver/Src/stm32g0xx_hal_rcc_ex.c ****   PeriphClkInit->AdcClockSelection     = __HAL_RCC_GET_ADC_SOURCE();
 1003              		.loc 1 563 42
 1004 0150 154B     		ldr	r3, .L37+4
 1005 0152 5B6D     		ldr	r3, [r3, #84]
 1006 0154 9B0F     		lsrs	r3, r3, #30
 1007 0156 9A07     		lsls	r2, r3, #30
 1008              		.loc 1 563 40
 1009 0158 7B68     		ldr	r3, [r7, #4]
 1010 015a 1A63     		str	r2, [r3, #48]
 564:Drivers/STM32G0xx_HAL_Driver/Src/stm32g0xx_hal_rcc_ex.c **** #if defined(RCC_CCIPR_CECSEL)
 565:Drivers/STM32G0xx_HAL_Driver/Src/stm32g0xx_hal_rcc_ex.c ****   /* Get the CEC clock source -----------------------------------------------*/
 566:Drivers/STM32G0xx_HAL_Driver/Src/stm32g0xx_hal_rcc_ex.c ****   PeriphClkInit->CecClockSelection     = __HAL_RCC_GET_CEC_SOURCE();
 1011              		.loc 1 566 42
 1012 015c 124B     		ldr	r3, .L37+4
 1013 015e 5B6D     		ldr	r3, [r3, #84]
 1014 0160 4022     		movs	r2, #64
 1015 0162 1A40     		ands	r2, r3
 1016              		.loc 1 566 40
 1017 0164 7B68     		ldr	r3, [r7, #4]
 1018 0166 5A63     		str	r2, [r3, #52]
 567:Drivers/STM32G0xx_HAL_Driver/Src/stm32g0xx_hal_rcc_ex.c **** #endif  /* RCC_CCIPR_CECSEL */
 568:Drivers/STM32G0xx_HAL_Driver/Src/stm32g0xx_hal_rcc_ex.c **** #if defined(RCC_CCIPR2_USBSEL)
 569:Drivers/STM32G0xx_HAL_Driver/Src/stm32g0xx_hal_rcc_ex.c ****   /* Get the USB clock source -----------------------------------------------*/
 570:Drivers/STM32G0xx_HAL_Driver/Src/stm32g0xx_hal_rcc_ex.c ****   PeriphClkInit->UsbClockSelection     = __HAL_RCC_GET_USB_SOURCE();
 1019              		.loc 1 570 42
 1020 0168 0F4B     		ldr	r3, .L37+4
 1021 016a 9A6D     		ldr	r2, [r3, #88]
 1022 016c C023     		movs	r3, #192
 1023 016e 9B01     		lsls	r3, r3, #6
 1024 0170 1A40     		ands	r2, r3
 1025              		.loc 1 570 40
ARM GAS  C:\Users\SOLDER~1\AppData\Local\Temp\ccUUcBce.s 			page 29


 1026 0172 7B68     		ldr	r3, [r7, #4]
 1027 0174 5A64     		str	r2, [r3, #68]
 571:Drivers/STM32G0xx_HAL_Driver/Src/stm32g0xx_hal_rcc_ex.c **** #endif  /* RCC_CCIPR2_USBSEL */
 572:Drivers/STM32G0xx_HAL_Driver/Src/stm32g0xx_hal_rcc_ex.c **** #if defined(RCC_CCIPR2_FDCANSEL)
 573:Drivers/STM32G0xx_HAL_Driver/Src/stm32g0xx_hal_rcc_ex.c ****   /* Get the FDCAN clock source -----------------------------------------------*/
 574:Drivers/STM32G0xx_HAL_Driver/Src/stm32g0xx_hal_rcc_ex.c ****   PeriphClkInit->FdcanClockSelection     = __HAL_RCC_GET_FDCAN_SOURCE();
 1028              		.loc 1 574 44
 1029 0176 0C4B     		ldr	r3, .L37+4
 1030 0178 9A6D     		ldr	r2, [r3, #88]
 1031 017a C023     		movs	r3, #192
 1032 017c 9B00     		lsls	r3, r3, #2
 1033 017e 1A40     		ands	r2, r3
 1034              		.loc 1 574 42
 1035 0180 7B68     		ldr	r3, [r7, #4]
 1036 0182 9A64     		str	r2, [r3, #72]
 575:Drivers/STM32G0xx_HAL_Driver/Src/stm32g0xx_hal_rcc_ex.c **** #endif  /* RCC_CCIPR2_FDCANSEL */
 576:Drivers/STM32G0xx_HAL_Driver/Src/stm32g0xx_hal_rcc_ex.c ****   /* Get the I2S1 clock source -----------------------------------------------*/
 577:Drivers/STM32G0xx_HAL_Driver/Src/stm32g0xx_hal_rcc_ex.c ****   PeriphClkInit->I2s1ClockSelection    = __HAL_RCC_GET_I2S1_SOURCE();
 1037              		.loc 1 577 42
 1038 0184 084B     		ldr	r3, .L37+4
 1039 0186 9B6D     		ldr	r3, [r3, #88]
 1040 0188 0322     		movs	r2, #3
 1041 018a 1A40     		ands	r2, r3
 1042              		.loc 1 577 40
 1043 018c 7B68     		ldr	r3, [r7, #4]
 1044 018e 1A62     		str	r2, [r3, #32]
 578:Drivers/STM32G0xx_HAL_Driver/Src/stm32g0xx_hal_rcc_ex.c **** #if defined(RCC_CCIPR2_I2S2SEL)
 579:Drivers/STM32G0xx_HAL_Driver/Src/stm32g0xx_hal_rcc_ex.c ****   /* Get the I2S2 clock source -----------------------------------------------*/
 580:Drivers/STM32G0xx_HAL_Driver/Src/stm32g0xx_hal_rcc_ex.c ****   PeriphClkInit->I2s2ClockSelection    = __HAL_RCC_GET_I2S2_SOURCE();
 1045              		.loc 1 580 42
 1046 0190 054B     		ldr	r3, .L37+4
 1047 0192 9B6D     		ldr	r3, [r3, #88]
 1048 0194 0C22     		movs	r2, #12
 1049 0196 1A40     		ands	r2, r3
 1050              		.loc 1 580 40
 1051 0198 7B68     		ldr	r3, [r7, #4]
 1052 019a 5A62     		str	r2, [r3, #36]
 581:Drivers/STM32G0xx_HAL_Driver/Src/stm32g0xx_hal_rcc_ex.c **** #endif /* RCC_CCIPR2_I2S2SEL */
 582:Drivers/STM32G0xx_HAL_Driver/Src/stm32g0xx_hal_rcc_ex.c **** }
 1053              		.loc 1 582 1
 1054 019c C046     		nop
 1055 019e BD46     		mov	sp, r7
 1056 01a0 02B0     		add	sp, sp, #8
 1057              		@ sp needed
 1058 01a2 80BD     		pop	{r7, pc}
 1059              	.L38:
 1060              		.align	2
 1061              	.L37:
 1062 01a4 21480200 		.word	149537
 1063 01a8 00100240 		.word	1073876992
 1064              		.cfi_endproc
 1065              	.LFE356:
 1067              		.global	__aeabi_uidiv
 1068              		.section	.text.HAL_RCCEx_GetPeriphCLKFreq,"ax",%progbits
 1069              		.align	1
 1070              		.global	HAL_RCCEx_GetPeriphCLKFreq
 1071              		.syntax unified
ARM GAS  C:\Users\SOLDER~1\AppData\Local\Temp\ccUUcBce.s 			page 30


 1072              		.code	16
 1073              		.thumb_func
 1075              	HAL_RCCEx_GetPeriphCLKFreq:
 1076              	.LFB357:
 583:Drivers/STM32G0xx_HAL_Driver/Src/stm32g0xx_hal_rcc_ex.c **** 
 584:Drivers/STM32G0xx_HAL_Driver/Src/stm32g0xx_hal_rcc_ex.c **** /**
 585:Drivers/STM32G0xx_HAL_Driver/Src/stm32g0xx_hal_rcc_ex.c ****   * @brief  Return the peripheral clock frequency for peripherals with clock source from PLL
 586:Drivers/STM32G0xx_HAL_Driver/Src/stm32g0xx_hal_rcc_ex.c ****   * @note   Return 0 if peripheral clock identifier not managed by this API
 587:Drivers/STM32G0xx_HAL_Driver/Src/stm32g0xx_hal_rcc_ex.c ****   * @param  PeriphClk  Peripheral clock identifier
 588:Drivers/STM32G0xx_HAL_Driver/Src/stm32g0xx_hal_rcc_ex.c ****   *         This parameter can be one of the following values:
 589:Drivers/STM32G0xx_HAL_Driver/Src/stm32g0xx_hal_rcc_ex.c ****   *            @arg @ref RCC_PERIPHCLK_RTC     RTC peripheral clock
 590:Drivers/STM32G0xx_HAL_Driver/Src/stm32g0xx_hal_rcc_ex.c ****   *            @arg @ref RCC_PERIPHCLK_ADC     ADC peripheral clock
 591:Drivers/STM32G0xx_HAL_Driver/Src/stm32g0xx_hal_rcc_ex.c ****   *            @arg @ref RCC_PERIPHCLK_I2C1    I2C1 peripheral clock
 592:Drivers/STM32G0xx_HAL_Driver/Src/stm32g0xx_hal_rcc_ex.c ****   *            @arg @ref RCC_PERIPHCLK_I2C2    I2C2 peripheral clock (1)
 593:Drivers/STM32G0xx_HAL_Driver/Src/stm32g0xx_hal_rcc_ex.c ****   *            @arg @ref RCC_PERIPHCLK_I2S1    I2S1 peripheral clock
 594:Drivers/STM32G0xx_HAL_Driver/Src/stm32g0xx_hal_rcc_ex.c ****   *            @arg @ref RCC_PERIPHCLK_I2S2    I2S2 peripheral clock (1)
 595:Drivers/STM32G0xx_HAL_Driver/Src/stm32g0xx_hal_rcc_ex.c ****   *            @arg @ref RCC_PERIPHCLK_USART1  USART1 peripheral clock
 596:Drivers/STM32G0xx_HAL_Driver/Src/stm32g0xx_hal_rcc_ex.c ****   *            @arg @ref RCC_PERIPHCLK_USART2  USART2 peripheral clock (1)(2)
 597:Drivers/STM32G0xx_HAL_Driver/Src/stm32g0xx_hal_rcc_ex.c ****   *            @arg @ref RCC_PERIPHCLK_USART3  USART3 peripheral clock (1)
 598:Drivers/STM32G0xx_HAL_Driver/Src/stm32g0xx_hal_rcc_ex.c ****   *            @arg @ref RCC_PERIPHCLK_RNG     RNG peripheral clock    (1)
 599:Drivers/STM32G0xx_HAL_Driver/Src/stm32g0xx_hal_rcc_ex.c ****   *            @arg @ref RCC_PERIPHCLK_TIM15   TIM15 peripheral clock  (1)(2)
 600:Drivers/STM32G0xx_HAL_Driver/Src/stm32g0xx_hal_rcc_ex.c ****   *            @arg @ref RCC_PERIPHCLK_TIM1    TIM1 peripheral clock   (1)(2)
 601:Drivers/STM32G0xx_HAL_Driver/Src/stm32g0xx_hal_rcc_ex.c ****   *            @arg @ref RCC_PERIPHCLK_LPTIM1  LPTIM1 peripheral clock (1)
 602:Drivers/STM32G0xx_HAL_Driver/Src/stm32g0xx_hal_rcc_ex.c ****   *            @arg @ref RCC_PERIPHCLK_LPTIM2  LPTIM2 peripheral clock (1)
 603:Drivers/STM32G0xx_HAL_Driver/Src/stm32g0xx_hal_rcc_ex.c ****   *            @arg @ref RCC_PERIPHCLK_LPUART1 LPUART1 peripheral clock(1)
 604:Drivers/STM32G0xx_HAL_Driver/Src/stm32g0xx_hal_rcc_ex.c ****   *            @arg @ref RCC_PERIPHCLK_LPUART2 LPUART2 peripheral clock(1)
 605:Drivers/STM32G0xx_HAL_Driver/Src/stm32g0xx_hal_rcc_ex.c ****   *            @arg @ref RCC_PERIPHCLK_CEC     CEC peripheral clock    (1)
 606:Drivers/STM32G0xx_HAL_Driver/Src/stm32g0xx_hal_rcc_ex.c ****   *            @arg @ref RCC_PERIPHCLK_FDCAN    FDCAN peripheral clock (1)
 607:Drivers/STM32G0xx_HAL_Driver/Src/stm32g0xx_hal_rcc_ex.c ****   *            @arg @ref RCC_PERIPHCLK_USB      USB peripheral clock   (1)
 608:Drivers/STM32G0xx_HAL_Driver/Src/stm32g0xx_hal_rcc_ex.c ****   * @note   (1) Peripheral not available on all devices
 609:Drivers/STM32G0xx_HAL_Driver/Src/stm32g0xx_hal_rcc_ex.c ****   * @note   (2) Peripheral Clock configuration not available on all devices
 610:Drivers/STM32G0xx_HAL_Driver/Src/stm32g0xx_hal_rcc_ex.c ****   * @retval Frequency in Hz
 611:Drivers/STM32G0xx_HAL_Driver/Src/stm32g0xx_hal_rcc_ex.c ****   */
 612:Drivers/STM32G0xx_HAL_Driver/Src/stm32g0xx_hal_rcc_ex.c **** uint32_t HAL_RCCEx_GetPeriphCLKFreq(uint32_t PeriphClk)
 613:Drivers/STM32G0xx_HAL_Driver/Src/stm32g0xx_hal_rcc_ex.c **** {
 1077              		.loc 1 613 1
 1078              		.cfi_startproc
 1079              		@ args = 0, pretend = 0, frame = 24
 1080              		@ frame_needed = 1, uses_anonymous_args = 0
 1081 0000 80B5     		push	{r7, lr}
 1082              		.cfi_def_cfa_offset 8
 1083              		.cfi_offset 7, -8
 1084              		.cfi_offset 14, -4
 1085 0002 86B0     		sub	sp, sp, #24
 1086              		.cfi_def_cfa_offset 32
 1087 0004 00AF     		add	r7, sp, #0
 1088              		.cfi_def_cfa_register 7
 1089 0006 7860     		str	r0, [r7, #4]
 614:Drivers/STM32G0xx_HAL_Driver/Src/stm32g0xx_hal_rcc_ex.c ****   uint32_t frequency = 0U;
 1090              		.loc 1 614 12
 1091 0008 0023     		movs	r3, #0
 1092 000a 7B61     		str	r3, [r7, #20]
 615:Drivers/STM32G0xx_HAL_Driver/Src/stm32g0xx_hal_rcc_ex.c ****   uint32_t srcclk;
 616:Drivers/STM32G0xx_HAL_Driver/Src/stm32g0xx_hal_rcc_ex.c ****   uint32_t pllvco;
 617:Drivers/STM32G0xx_HAL_Driver/Src/stm32g0xx_hal_rcc_ex.c ****   uint32_t plln;
 618:Drivers/STM32G0xx_HAL_Driver/Src/stm32g0xx_hal_rcc_ex.c **** #if defined(RCC_CCIPR_RNGSEL)
 619:Drivers/STM32G0xx_HAL_Driver/Src/stm32g0xx_hal_rcc_ex.c ****   uint32_t rngclk;
ARM GAS  C:\Users\SOLDER~1\AppData\Local\Temp\ccUUcBce.s 			page 31


 620:Drivers/STM32G0xx_HAL_Driver/Src/stm32g0xx_hal_rcc_ex.c ****   uint32_t rngdiv;
 621:Drivers/STM32G0xx_HAL_Driver/Src/stm32g0xx_hal_rcc_ex.c **** #endif /* RCC_CCIPR_RNGSEL */
 622:Drivers/STM32G0xx_HAL_Driver/Src/stm32g0xx_hal_rcc_ex.c ****   /* Check the parameters */
 623:Drivers/STM32G0xx_HAL_Driver/Src/stm32g0xx_hal_rcc_ex.c ****   assert_param(IS_RCC_PERIPHCLOCK(PeriphClk));
 624:Drivers/STM32G0xx_HAL_Driver/Src/stm32g0xx_hal_rcc_ex.c **** 
 625:Drivers/STM32G0xx_HAL_Driver/Src/stm32g0xx_hal_rcc_ex.c ****   if (PeriphClk == RCC_PERIPHCLK_RTC)
 1093              		.loc 1 625 6
 1094 000c 7A68     		ldr	r2, [r7, #4]
 1095 000e 8023     		movs	r3, #128
 1096 0010 9B02     		lsls	r3, r3, #10
 1097 0012 9A42     		cmp	r2, r3
 1098 0014 3BD1     		bne	.L40
 626:Drivers/STM32G0xx_HAL_Driver/Src/stm32g0xx_hal_rcc_ex.c ****   {
 627:Drivers/STM32G0xx_HAL_Driver/Src/stm32g0xx_hal_rcc_ex.c ****     /* Get the current RTC source */
 628:Drivers/STM32G0xx_HAL_Driver/Src/stm32g0xx_hal_rcc_ex.c ****     srcclk = __HAL_RCC_GET_RTC_SOURCE();
 1099              		.loc 1 628 14
 1100 0016 E24B     		ldr	r3, .L144
 1101 0018 DA6D     		ldr	r2, [r3, #92]
 1102              		.loc 1 628 12
 1103 001a C023     		movs	r3, #192
 1104 001c 9B00     		lsls	r3, r3, #2
 1105 001e 1340     		ands	r3, r2
 1106 0020 FB60     		str	r3, [r7, #12]
 629:Drivers/STM32G0xx_HAL_Driver/Src/stm32g0xx_hal_rcc_ex.c **** 
 630:Drivers/STM32G0xx_HAL_Driver/Src/stm32g0xx_hal_rcc_ex.c ****     /* Check if LSE is ready and if RTC clock selection is LSE */
 631:Drivers/STM32G0xx_HAL_Driver/Src/stm32g0xx_hal_rcc_ex.c ****     if ((HAL_IS_BIT_SET(RCC->BDCR, RCC_BDCR_LSERDY)) && (srcclk == RCC_RTCCLKSOURCE_LSE))
 1107              		.loc 1 631 10
 1108 0022 DF4B     		ldr	r3, .L144
 1109 0024 DB6D     		ldr	r3, [r3, #92]
 1110 0026 0222     		movs	r2, #2
 1111 0028 1340     		ands	r3, r2
 1112              		.loc 1 631 8
 1113 002a 022B     		cmp	r3, #2
 1114 002c 09D1     		bne	.L41
 1115              		.loc 1 631 54 discriminator 1
 1116 002e FA68     		ldr	r2, [r7, #12]
 1117 0030 8023     		movs	r3, #128
 1118 0032 5B00     		lsls	r3, r3, #1
 1119 0034 9A42     		cmp	r2, r3
 1120 0036 04D1     		bne	.L41
 632:Drivers/STM32G0xx_HAL_Driver/Src/stm32g0xx_hal_rcc_ex.c ****     {
 633:Drivers/STM32G0xx_HAL_Driver/Src/stm32g0xx_hal_rcc_ex.c ****       frequency = LSE_VALUE;
 1121              		.loc 1 633 17
 1122 0038 8023     		movs	r3, #128
 1123 003a 1B02     		lsls	r3, r3, #8
 1124 003c 7B61     		str	r3, [r7, #20]
 1125 003e 00F0FCFC 		bl	.L44	@ far jump
 1126              	.L41:
 634:Drivers/STM32G0xx_HAL_Driver/Src/stm32g0xx_hal_rcc_ex.c ****     }
 635:Drivers/STM32G0xx_HAL_Driver/Src/stm32g0xx_hal_rcc_ex.c ****     /* Check if LSI is ready and if RTC clock selection is LSI */
 636:Drivers/STM32G0xx_HAL_Driver/Src/stm32g0xx_hal_rcc_ex.c ****     else if ((HAL_IS_BIT_SET(RCC->CSR, RCC_CSR_LSIRDY)) && (srcclk == RCC_RTCCLKSOURCE_LSI))
 1127              		.loc 1 636 15
 1128 0042 D74B     		ldr	r3, .L144
 1129 0044 1B6E     		ldr	r3, [r3, #96]
 1130 0046 0222     		movs	r2, #2
 1131 0048 1340     		ands	r3, r2
 1132              		.loc 1 636 13
ARM GAS  C:\Users\SOLDER~1\AppData\Local\Temp\ccUUcBce.s 			page 32


 1133 004a 022B     		cmp	r3, #2
 1134 004c 09D1     		bne	.L43
 1135              		.loc 1 636 57 discriminator 1
 1136 004e FA68     		ldr	r2, [r7, #12]
 1137 0050 8023     		movs	r3, #128
 1138 0052 9B00     		lsls	r3, r3, #2
 1139 0054 9A42     		cmp	r2, r3
 1140 0056 04D1     		bne	.L43
 637:Drivers/STM32G0xx_HAL_Driver/Src/stm32g0xx_hal_rcc_ex.c ****     {
 638:Drivers/STM32G0xx_HAL_Driver/Src/stm32g0xx_hal_rcc_ex.c ****       frequency = LSI_VALUE;
 1141              		.loc 1 638 17
 1142 0058 FA23     		movs	r3, #250
 1143 005a DB01     		lsls	r3, r3, #7
 1144 005c 7B61     		str	r3, [r7, #20]
 1145 005e 00F0ECFC 		bl	.L44	@ far jump
 1146              	.L43:
 639:Drivers/STM32G0xx_HAL_Driver/Src/stm32g0xx_hal_rcc_ex.c ****     }
 640:Drivers/STM32G0xx_HAL_Driver/Src/stm32g0xx_hal_rcc_ex.c ****     /* Check if HSE is ready  and if RTC clock selection is HSI_DIV32*/
 641:Drivers/STM32G0xx_HAL_Driver/Src/stm32g0xx_hal_rcc_ex.c ****     else if ((HAL_IS_BIT_SET(RCC->CR, RCC_CR_HSERDY)) && (srcclk == RCC_RTCCLKSOURCE_HSE_DIV32))
 1147              		.loc 1 641 15
 1148 0062 CF4B     		ldr	r3, .L144
 1149 0064 1A68     		ldr	r2, [r3]
 1150 0066 8023     		movs	r3, #128
 1151 0068 9B02     		lsls	r3, r3, #10
 1152 006a 1A40     		ands	r2, r3
 1153              		.loc 1 641 13
 1154 006c 8023     		movs	r3, #128
 1155 006e 9B02     		lsls	r3, r3, #10
 1156 0070 9A42     		cmp	r2, r3
 1157 0072 01D0     		beq	.LCB970
 1158 0074 00F0E1FC 		bl	.L44	@far jump
 1159              	.LCB970:
 1160              		.loc 1 641 55 discriminator 1
 1161 0078 FA68     		ldr	r2, [r7, #12]
 1162 007a C023     		movs	r3, #192
 1163 007c 9B00     		lsls	r3, r3, #2
 1164 007e 9A42     		cmp	r2, r3
 1165 0080 01D0     		beq	.LCB975
 1166 0082 00F0DAFC 		bl	.L44	@far jump
 1167              	.LCB975:
 642:Drivers/STM32G0xx_HAL_Driver/Src/stm32g0xx_hal_rcc_ex.c ****     {
 643:Drivers/STM32G0xx_HAL_Driver/Src/stm32g0xx_hal_rcc_ex.c ****       frequency = HSE_VALUE / 32U;
 1168              		.loc 1 643 17
 1169 0086 C74B     		ldr	r3, .L144+4
 1170 0088 7B61     		str	r3, [r7, #20]
 1171 008a 00F0D6FC 		bl	.L44	@ far jump
 1172              	.L40:
 644:Drivers/STM32G0xx_HAL_Driver/Src/stm32g0xx_hal_rcc_ex.c ****     }
 645:Drivers/STM32G0xx_HAL_Driver/Src/stm32g0xx_hal_rcc_ex.c ****     /* Clock not enabled for RTC*/
 646:Drivers/STM32G0xx_HAL_Driver/Src/stm32g0xx_hal_rcc_ex.c ****     else
 647:Drivers/STM32G0xx_HAL_Driver/Src/stm32g0xx_hal_rcc_ex.c ****     {
 648:Drivers/STM32G0xx_HAL_Driver/Src/stm32g0xx_hal_rcc_ex.c ****       /* Nothing to do as frequency already initialized to 0U */
 649:Drivers/STM32G0xx_HAL_Driver/Src/stm32g0xx_hal_rcc_ex.c ****     }
 650:Drivers/STM32G0xx_HAL_Driver/Src/stm32g0xx_hal_rcc_ex.c ****   }
 651:Drivers/STM32G0xx_HAL_Driver/Src/stm32g0xx_hal_rcc_ex.c ****   else
 652:Drivers/STM32G0xx_HAL_Driver/Src/stm32g0xx_hal_rcc_ex.c ****   {
 653:Drivers/STM32G0xx_HAL_Driver/Src/stm32g0xx_hal_rcc_ex.c ****     /* Other external peripheral clock source than RTC */
ARM GAS  C:\Users\SOLDER~1\AppData\Local\Temp\ccUUcBce.s 			page 33


 654:Drivers/STM32G0xx_HAL_Driver/Src/stm32g0xx_hal_rcc_ex.c **** 
 655:Drivers/STM32G0xx_HAL_Driver/Src/stm32g0xx_hal_rcc_ex.c ****     /* Compute PLL clock input */
 656:Drivers/STM32G0xx_HAL_Driver/Src/stm32g0xx_hal_rcc_ex.c ****     if (__HAL_RCC_GET_PLL_OSCSOURCE() == RCC_PLLSOURCE_HSI)  /* HSI ? */
 1173              		.loc 1 656 9
 1174 008e C44B     		ldr	r3, .L144
 1175 0090 DB68     		ldr	r3, [r3, #12]
 1176 0092 0322     		movs	r2, #3
 1177 0094 1340     		ands	r3, r2
 1178              		.loc 1 656 8
 1179 0096 022B     		cmp	r3, #2
 1180 0098 02D1     		bne	.L45
 657:Drivers/STM32G0xx_HAL_Driver/Src/stm32g0xx_hal_rcc_ex.c ****     {
 658:Drivers/STM32G0xx_HAL_Driver/Src/stm32g0xx_hal_rcc_ex.c ****       pllvco = HSI_VALUE;
 1181              		.loc 1 658 14
 1182 009a C34B     		ldr	r3, .L144+8
 1183 009c 3B61     		str	r3, [r7, #16]
 1184 009e 0AE0     		b	.L46
 1185              	.L45:
 659:Drivers/STM32G0xx_HAL_Driver/Src/stm32g0xx_hal_rcc_ex.c ****     }
 660:Drivers/STM32G0xx_HAL_Driver/Src/stm32g0xx_hal_rcc_ex.c ****     else if (__HAL_RCC_GET_PLL_OSCSOURCE() == RCC_PLLSOURCE_HSE)  /* HSE ? */
 1186              		.loc 1 660 14
 1187 00a0 BF4B     		ldr	r3, .L144
 1188 00a2 DB68     		ldr	r3, [r3, #12]
 1189 00a4 0322     		movs	r2, #3
 1190 00a6 1340     		ands	r3, r2
 1191              		.loc 1 660 13
 1192 00a8 032B     		cmp	r3, #3
 1193 00aa 02D1     		bne	.L47
 661:Drivers/STM32G0xx_HAL_Driver/Src/stm32g0xx_hal_rcc_ex.c ****     {
 662:Drivers/STM32G0xx_HAL_Driver/Src/stm32g0xx_hal_rcc_ex.c ****       pllvco = HSE_VALUE;
 1194              		.loc 1 662 14
 1195 00ac BF4B     		ldr	r3, .L144+12
 1196 00ae 3B61     		str	r3, [r7, #16]
 1197 00b0 01E0     		b	.L46
 1198              	.L47:
 663:Drivers/STM32G0xx_HAL_Driver/Src/stm32g0xx_hal_rcc_ex.c ****     }
 664:Drivers/STM32G0xx_HAL_Driver/Src/stm32g0xx_hal_rcc_ex.c ****     else /* No source */
 665:Drivers/STM32G0xx_HAL_Driver/Src/stm32g0xx_hal_rcc_ex.c ****     {
 666:Drivers/STM32G0xx_HAL_Driver/Src/stm32g0xx_hal_rcc_ex.c ****       pllvco = 0U;
 1199              		.loc 1 666 14
 1200 00b2 0023     		movs	r3, #0
 1201 00b4 3B61     		str	r3, [r7, #16]
 1202              	.L46:
 667:Drivers/STM32G0xx_HAL_Driver/Src/stm32g0xx_hal_rcc_ex.c ****     }
 668:Drivers/STM32G0xx_HAL_Driver/Src/stm32g0xx_hal_rcc_ex.c **** 
 669:Drivers/STM32G0xx_HAL_Driver/Src/stm32g0xx_hal_rcc_ex.c ****     /* f(PLL Source) / PLLM */
 670:Drivers/STM32G0xx_HAL_Driver/Src/stm32g0xx_hal_rcc_ex.c ****     pllvco = (pllvco / ((READ_BIT(RCC->PLLCFGR, RCC_PLLCFGR_PLLM) >> RCC_PLLCFGR_PLLM_Pos) + 1U));
 1203              		.loc 1 670 26
 1204 00b6 BA4B     		ldr	r3, .L144
 1205 00b8 DB68     		ldr	r3, [r3, #12]
 1206              		.loc 1 670 67
 1207 00ba 1B09     		lsrs	r3, r3, #4
 1208 00bc 0722     		movs	r2, #7
 1209 00be 1340     		ands	r3, r2
 1210              		.loc 1 670 92
 1211 00c0 0133     		adds	r3, r3, #1
 1212              		.loc 1 670 12
ARM GAS  C:\Users\SOLDER~1\AppData\Local\Temp\ccUUcBce.s 			page 34


 1213 00c2 1900     		movs	r1, r3
 1214 00c4 3869     		ldr	r0, [r7, #16]
 1215 00c6 FFF7FEFF 		bl	__aeabi_uidiv
 1216 00ca 0300     		movs	r3, r0
 1217 00cc 3B61     		str	r3, [r7, #16]
 671:Drivers/STM32G0xx_HAL_Driver/Src/stm32g0xx_hal_rcc_ex.c **** 
 672:Drivers/STM32G0xx_HAL_Driver/Src/stm32g0xx_hal_rcc_ex.c ****     switch (PeriphClk)
 1218              		.loc 1 672 5
 1219 00ce 7A68     		ldr	r2, [r7, #4]
 1220 00d0 8023     		movs	r3, #128
 1221 00d2 9B04     		lsls	r3, r3, #18
 1222 00d4 9A42     		cmp	r2, r3
 1223 00d6 01D1     		bne	.LCB1025
 1224 00d8 00F043FC 		bl	.L48	@far jump
 1225              	.LCB1025:
 1226 00dc 7A68     		ldr	r2, [r7, #4]
 1227 00de 8023     		movs	r3, #128
 1228 00e0 9B04     		lsls	r3, r3, #18
 1229 00e2 9A42     		cmp	r2, r3
 1230 00e4 01D9     		bls	.LCB1030
 1231 00e6 00F07CFC 		bl	.L126	@far jump
 1232              	.LCB1030:
 1233 00ea 7A68     		ldr	r2, [r7, #4]
 1234 00ec 8023     		movs	r3, #128
 1235 00ee 5B04     		lsls	r3, r3, #17
 1236 00f0 9A42     		cmp	r2, r3
 1237 00f2 01D1     		bne	.LCB1035
 1238 00f4 00F0E0FB 		bl	.L50	@far jump
 1239              	.LCB1035:
 1240 00f8 7A68     		ldr	r2, [r7, #4]
 1241 00fa 8023     		movs	r3, #128
 1242 00fc 5B04     		lsls	r3, r3, #17
 1243 00fe 9A42     		cmp	r2, r3
 1244 0100 01D9     		bls	.LCB1040
 1245 0102 00F06EFC 		bl	.L126	@far jump
 1246              	.LCB1040:
 1247 0106 7A68     		ldr	r2, [r7, #4]
 1248 0108 8023     		movs	r3, #128
 1249 010a DB03     		lsls	r3, r3, #15
 1250 010c 9A42     		cmp	r2, r3
 1251 010e 01D1     		bne	.LCB1045
 1252 0110 00F0A1FB 		bl	.L51	@far jump
 1253              	.LCB1045:
 1254 0114 7A68     		ldr	r2, [r7, #4]
 1255 0116 8023     		movs	r3, #128
 1256 0118 DB03     		lsls	r3, r3, #15
 1257 011a 9A42     		cmp	r2, r3
 1258 011c 01D9     		bls	.LCB1050
 1259 011e 00F060FC 		bl	.L126	@far jump
 1260              	.LCB1050:
 1261 0122 7A68     		ldr	r2, [r7, #4]
 1262 0124 8023     		movs	r3, #128
 1263 0126 9B03     		lsls	r3, r3, #14
 1264 0128 9A42     		cmp	r2, r3
 1265 012a 01D1     		bne	.LCB1055
 1266 012c 00F062FB 		bl	.L52	@far jump
 1267              	.LCB1055:
ARM GAS  C:\Users\SOLDER~1\AppData\Local\Temp\ccUUcBce.s 			page 35


 1268 0130 7A68     		ldr	r2, [r7, #4]
 1269 0132 8023     		movs	r3, #128
 1270 0134 9B03     		lsls	r3, r3, #14
 1271 0136 9A42     		cmp	r2, r3
 1272 0138 01D9     		bls	.LCB1060
 1273 013a 00F052FC 		bl	.L126	@far jump
 1274              	.LCB1060:
 1275 013e 7A68     		ldr	r2, [r7, #4]
 1276 0140 8023     		movs	r3, #128
 1277 0142 1B03     		lsls	r3, r3, #12
 1278 0144 9A42     		cmp	r2, r3
 1279 0146 00D1     		bne	.LCB1065
 1280 0148 15E1     		b	.L53	@long jump
 1281              	.LCB1065:
 1282 014a 7A68     		ldr	r2, [r7, #4]
 1283 014c 8023     		movs	r3, #128
 1284 014e 1B03     		lsls	r3, r3, #12
 1285 0150 9A42     		cmp	r2, r3
 1286 0152 01D9     		bls	.LCB1070
 1287 0154 00F045FC 		bl	.L126	@far jump
 1288              	.LCB1070:
 1289 0158 7A68     		ldr	r2, [r7, #4]
 1290 015a 8023     		movs	r3, #128
 1291 015c DB01     		lsls	r3, r3, #7
 1292 015e 9A42     		cmp	r2, r3
 1293 0160 00D1     		bne	.LCB1075
 1294 0162 ACE1     		b	.L54	@long jump
 1295              	.LCB1075:
 1296 0164 7A68     		ldr	r2, [r7, #4]
 1297 0166 8023     		movs	r3, #128
 1298 0168 DB01     		lsls	r3, r3, #7
 1299 016a 9A42     		cmp	r2, r3
 1300 016c 01D9     		bls	.LCB1080
 1301 016e 00F038FC 		bl	.L126	@far jump
 1302              	.LCB1080:
 1303 0172 7A68     		ldr	r2, [r7, #4]
 1304 0174 8023     		movs	r3, #128
 1305 0176 9B01     		lsls	r3, r3, #6
 1306 0178 9A42     		cmp	r2, r3
 1307 017a 00D1     		bne	.LCB1085
 1308 017c 70E2     		b	.L55	@long jump
 1309              	.LCB1085:
 1310 017e 7A68     		ldr	r2, [r7, #4]
 1311 0180 8023     		movs	r3, #128
 1312 0182 9B01     		lsls	r3, r3, #6
 1313 0184 9A42     		cmp	r2, r3
 1314 0186 01D9     		bls	.LCB1090
 1315 0188 00F02BFC 		bl	.L126	@far jump
 1316              	.LCB1090:
 1317 018c 7A68     		ldr	r2, [r7, #4]
 1318 018e 8023     		movs	r3, #128
 1319 0190 5B01     		lsls	r3, r3, #5
 1320 0192 9A42     		cmp	r2, r3
 1321 0194 00D1     		bne	.LCB1095
 1322 0196 58E1     		b	.L56	@long jump
 1323              	.LCB1095:
 1324 0198 7A68     		ldr	r2, [r7, #4]
ARM GAS  C:\Users\SOLDER~1\AppData\Local\Temp\ccUUcBce.s 			page 36


 1325 019a 8023     		movs	r3, #128
 1326 019c 5B01     		lsls	r3, r3, #5
 1327 019e 9A42     		cmp	r2, r3
 1328 01a0 01D9     		bls	.LCB1100
 1329 01a2 00F01EFC 		bl	.L126	@far jump
 1330              	.LCB1100:
 1331 01a6 7A68     		ldr	r2, [r7, #4]
 1332 01a8 8023     		movs	r3, #128
 1333 01aa 1B01     		lsls	r3, r3, #4
 1334 01ac 9A42     		cmp	r2, r3
 1335 01ae 00D1     		bne	.LCB1105
 1336 01b0 13E2     		b	.L57	@long jump
 1337              	.LCB1105:
 1338 01b2 7A68     		ldr	r2, [r7, #4]
 1339 01b4 8023     		movs	r3, #128
 1340 01b6 1B01     		lsls	r3, r3, #4
 1341 01b8 9A42     		cmp	r2, r3
 1342 01ba 01D9     		bls	.LCB1110
 1343 01bc 00F011FC 		bl	.L126	@far jump
 1344              	.LCB1110:
 1345 01c0 7A68     		ldr	r2, [r7, #4]
 1346 01c2 8023     		movs	r3, #128
 1347 01c4 DB00     		lsls	r3, r3, #3
 1348 01c6 9A42     		cmp	r2, r3
 1349 01c8 00D1     		bne	.LCB1115
 1350 01ca D3E2     		b	.L58	@long jump
 1351              	.LCB1115:
 1352 01cc 7A68     		ldr	r2, [r7, #4]
 1353 01ce 8023     		movs	r3, #128
 1354 01d0 DB00     		lsls	r3, r3, #3
 1355 01d2 9A42     		cmp	r2, r3
 1356 01d4 01D9     		bls	.LCB1120
 1357 01d6 00F004FC 		bl	.L126	@far jump
 1358              	.LCB1120:
 1359 01da 7A68     		ldr	r2, [r7, #4]
 1360 01dc 8023     		movs	r3, #128
 1361 01de 9B00     		lsls	r3, r3, #2
 1362 01e0 9A42     		cmp	r2, r3
 1363 01e2 00D1     		bne	.LCB1125
 1364 01e4 86E2     		b	.L59	@long jump
 1365              	.LCB1125:
 1366 01e6 7A68     		ldr	r2, [r7, #4]
 1367 01e8 8023     		movs	r3, #128
 1368 01ea 9B00     		lsls	r3, r3, #2
 1369 01ec 9A42     		cmp	r2, r3
 1370 01ee 01D9     		bls	.LCB1130
 1371 01f0 00F0F7FB 		bl	.L126	@far jump
 1372              	.LCB1130:
 1373 01f4 7B68     		ldr	r3, [r7, #4]
 1374 01f6 202B     		cmp	r3, #32
 1375 01f8 0FD8     		bhi	.L60
 1376 01fa 7B68     		ldr	r3, [r7, #4]
 1377 01fc 002B     		cmp	r3, #0
 1378 01fe 01D1     		bne	.LCB1136
 1379 0200 00F0EFFB 		bl	.L126	@far jump
 1380              	.LCB1136:
 1381 0204 7B68     		ldr	r3, [r7, #4]
ARM GAS  C:\Users\SOLDER~1\AppData\Local\Temp\ccUUcBce.s 			page 37


 1382 0206 202B     		cmp	r3, #32
 1383 0208 01D9     		bls	.LCB1139
 1384 020a 00F0EAFB 		bl	.L126	@far jump
 1385              	.LCB1139:
 1386 020e 7B68     		ldr	r3, [r7, #4]
 1387 0210 9A00     		lsls	r2, r3, #2
 1388 0212 674B     		ldr	r3, .L144+16
 1389 0214 D318     		adds	r3, r2, r3
 1390 0216 1B68     		ldr	r3, [r3]
 1391 0218 9F46     		mov	pc, r3
 1392              		.section	.rodata.HAL_RCCEx_GetPeriphCLKFreq,"a",%progbits
 1393              		.align	2
 1394              	.L62:
 1395 0000 E2090000 		.word	.L126
 1396 0004 26020000 		.word	.L66
 1397 0008 98020000 		.word	.L65
 1398 000c E2090000 		.word	.L126
 1399 0010 0A030000 		.word	.L64
 1400 0014 E2090000 		.word	.L126
 1401 0018 E2090000 		.word	.L126
 1402 001c E2090000 		.word	.L126
 1403 0020 E2090000 		.word	.L126
 1404 0024 E2090000 		.word	.L126
 1405 0028 E2090000 		.word	.L126
 1406 002c E2090000 		.word	.L126
 1407 0030 E2090000 		.word	.L126
 1408 0034 E2090000 		.word	.L126
 1409 0038 E2090000 		.word	.L126
 1410 003c E2090000 		.word	.L126
 1411 0040 D6030000 		.word	.L63
 1412 0044 E2090000 		.word	.L126
 1413 0048 E2090000 		.word	.L126
 1414 004c E2090000 		.word	.L126
 1415 0050 E2090000 		.word	.L126
 1416 0054 E2090000 		.word	.L126
 1417 0058 E2090000 		.word	.L126
 1418 005c E2090000 		.word	.L126
 1419 0060 E2090000 		.word	.L126
 1420 0064 E2090000 		.word	.L126
 1421 0068 E2090000 		.word	.L126
 1422 006c E2090000 		.word	.L126
 1423 0070 E2090000 		.word	.L126
 1424 0074 E2090000 		.word	.L126
 1425 0078 E2090000 		.word	.L126
 1426 007c E2090000 		.word	.L126
 1427 0080 2E050000 		.word	.L61
 1428              		.section	.text.HAL_RCCEx_GetPeriphCLKFreq
 1429              	.L60:
 1430 021a 7B68     		ldr	r3, [r7, #4]
 1431 021c 402B     		cmp	r3, #64
 1432 021e 00D1     		bne	.LCB1154
 1433 0220 B0E1     		b	.L67	@long jump
 1434              	.LCB1154:
 673:Drivers/STM32G0xx_HAL_Driver/Src/stm32g0xx_hal_rcc_ex.c ****     {
 674:Drivers/STM32G0xx_HAL_Driver/Src/stm32g0xx_hal_rcc_ex.c **** #if defined(RCC_CCIPR_RNGSEL)
 675:Drivers/STM32G0xx_HAL_Driver/Src/stm32g0xx_hal_rcc_ex.c ****       case RCC_PERIPHCLK_RNG:
 676:Drivers/STM32G0xx_HAL_Driver/Src/stm32g0xx_hal_rcc_ex.c **** 
ARM GAS  C:\Users\SOLDER~1\AppData\Local\Temp\ccUUcBce.s 			page 38


 677:Drivers/STM32G0xx_HAL_Driver/Src/stm32g0xx_hal_rcc_ex.c ****         srcclk = READ_BIT(RCC->CCIPR, RCC_CCIPR_RNGSEL);
 678:Drivers/STM32G0xx_HAL_Driver/Src/stm32g0xx_hal_rcc_ex.c ****         if (srcclk == RCC_RNGCLKSOURCE_HSI_DIV8)  /* HSI_DIV8 ? */
 679:Drivers/STM32G0xx_HAL_Driver/Src/stm32g0xx_hal_rcc_ex.c ****         {
 680:Drivers/STM32G0xx_HAL_Driver/Src/stm32g0xx_hal_rcc_ex.c ****           rngclk = HSI_VALUE / 8U;
 681:Drivers/STM32G0xx_HAL_Driver/Src/stm32g0xx_hal_rcc_ex.c ****         }
 682:Drivers/STM32G0xx_HAL_Driver/Src/stm32g0xx_hal_rcc_ex.c ****         else if (srcclk == RCC_RNGCLKSOURCE_PLL) /* PLL ? */
 683:Drivers/STM32G0xx_HAL_Driver/Src/stm32g0xx_hal_rcc_ex.c ****         {
 684:Drivers/STM32G0xx_HAL_Driver/Src/stm32g0xx_hal_rcc_ex.c ****           /* f(PLLQ) = f(VCO input) * PLLN / PLLQ */
 685:Drivers/STM32G0xx_HAL_Driver/Src/stm32g0xx_hal_rcc_ex.c ****           plln = READ_BIT(RCC->PLLCFGR, RCC_PLLCFGR_PLLN) >> RCC_PLLCFGR_PLLN_Pos;
 686:Drivers/STM32G0xx_HAL_Driver/Src/stm32g0xx_hal_rcc_ex.c ****           rngclk = (pllvco * plln) / ((READ_BIT(RCC->PLLCFGR, RCC_PLLCFGR_PLLQ) >> RCC_PLLCFGR_PLLQ
 687:Drivers/STM32G0xx_HAL_Driver/Src/stm32g0xx_hal_rcc_ex.c ****         }
 688:Drivers/STM32G0xx_HAL_Driver/Src/stm32g0xx_hal_rcc_ex.c ****         else if (srcclk == RCC_RNGCLKSOURCE_SYSCLK) /* SYSCLK ? */
 689:Drivers/STM32G0xx_HAL_Driver/Src/stm32g0xx_hal_rcc_ex.c ****         {
 690:Drivers/STM32G0xx_HAL_Driver/Src/stm32g0xx_hal_rcc_ex.c ****           rngclk = HAL_RCC_GetSysClockFreq();
 691:Drivers/STM32G0xx_HAL_Driver/Src/stm32g0xx_hal_rcc_ex.c ****         }
 692:Drivers/STM32G0xx_HAL_Driver/Src/stm32g0xx_hal_rcc_ex.c ****         else /* No clock source */
 693:Drivers/STM32G0xx_HAL_Driver/Src/stm32g0xx_hal_rcc_ex.c ****         {
 694:Drivers/STM32G0xx_HAL_Driver/Src/stm32g0xx_hal_rcc_ex.c ****           rngclk = 0U;
 695:Drivers/STM32G0xx_HAL_Driver/Src/stm32g0xx_hal_rcc_ex.c ****         }
 696:Drivers/STM32G0xx_HAL_Driver/Src/stm32g0xx_hal_rcc_ex.c **** 
 697:Drivers/STM32G0xx_HAL_Driver/Src/stm32g0xx_hal_rcc_ex.c ****         rngdiv = (1UL << ((READ_BIT(RCC->CCIPR, RCC_CCIPR_RNGDIV)) >> RCC_CCIPR_RNGDIV_Pos));
 698:Drivers/STM32G0xx_HAL_Driver/Src/stm32g0xx_hal_rcc_ex.c ****         frequency = (rngclk / rngdiv);
 699:Drivers/STM32G0xx_HAL_Driver/Src/stm32g0xx_hal_rcc_ex.c **** 
 700:Drivers/STM32G0xx_HAL_Driver/Src/stm32g0xx_hal_rcc_ex.c ****         break;
 701:Drivers/STM32G0xx_HAL_Driver/Src/stm32g0xx_hal_rcc_ex.c **** #endif  /* RCC_CCIPR_RNGSEL */
 702:Drivers/STM32G0xx_HAL_Driver/Src/stm32g0xx_hal_rcc_ex.c ****       case RCC_PERIPHCLK_USART1:
 703:Drivers/STM32G0xx_HAL_Driver/Src/stm32g0xx_hal_rcc_ex.c ****         /* Get the current USART1 source */
 704:Drivers/STM32G0xx_HAL_Driver/Src/stm32g0xx_hal_rcc_ex.c ****         srcclk = __HAL_RCC_GET_USART1_SOURCE();
 705:Drivers/STM32G0xx_HAL_Driver/Src/stm32g0xx_hal_rcc_ex.c **** 
 706:Drivers/STM32G0xx_HAL_Driver/Src/stm32g0xx_hal_rcc_ex.c ****         if (srcclk == RCC_USART1CLKSOURCE_PCLK1)            /* PCLK1 ? */
 707:Drivers/STM32G0xx_HAL_Driver/Src/stm32g0xx_hal_rcc_ex.c ****         {
 708:Drivers/STM32G0xx_HAL_Driver/Src/stm32g0xx_hal_rcc_ex.c ****           frequency = HAL_RCC_GetPCLK1Freq();
 709:Drivers/STM32G0xx_HAL_Driver/Src/stm32g0xx_hal_rcc_ex.c ****         }
 710:Drivers/STM32G0xx_HAL_Driver/Src/stm32g0xx_hal_rcc_ex.c ****         else if (srcclk == RCC_USART1CLKSOURCE_SYSCLK)     /* SYSCLK ? */
 711:Drivers/STM32G0xx_HAL_Driver/Src/stm32g0xx_hal_rcc_ex.c ****         {
 712:Drivers/STM32G0xx_HAL_Driver/Src/stm32g0xx_hal_rcc_ex.c ****           frequency = HAL_RCC_GetSysClockFreq();
 713:Drivers/STM32G0xx_HAL_Driver/Src/stm32g0xx_hal_rcc_ex.c ****         }
 714:Drivers/STM32G0xx_HAL_Driver/Src/stm32g0xx_hal_rcc_ex.c ****         else if ((HAL_IS_BIT_SET(RCC->CR, RCC_CR_HSIRDY)) && (srcclk == RCC_USART1CLKSOURCE_HSI))
 715:Drivers/STM32G0xx_HAL_Driver/Src/stm32g0xx_hal_rcc_ex.c ****         {
 716:Drivers/STM32G0xx_HAL_Driver/Src/stm32g0xx_hal_rcc_ex.c ****           frequency = HSI_VALUE;
 717:Drivers/STM32G0xx_HAL_Driver/Src/stm32g0xx_hal_rcc_ex.c ****         }
 718:Drivers/STM32G0xx_HAL_Driver/Src/stm32g0xx_hal_rcc_ex.c ****         else if ((HAL_IS_BIT_SET(RCC->BDCR, RCC_BDCR_LSERDY)) && (srcclk == RCC_USART1CLKSOURCE_LSE
 719:Drivers/STM32G0xx_HAL_Driver/Src/stm32g0xx_hal_rcc_ex.c ****         {
 720:Drivers/STM32G0xx_HAL_Driver/Src/stm32g0xx_hal_rcc_ex.c ****           frequency = LSE_VALUE;
 721:Drivers/STM32G0xx_HAL_Driver/Src/stm32g0xx_hal_rcc_ex.c ****         }
 722:Drivers/STM32G0xx_HAL_Driver/Src/stm32g0xx_hal_rcc_ex.c ****         /* Clock not enabled for USART1 */
 723:Drivers/STM32G0xx_HAL_Driver/Src/stm32g0xx_hal_rcc_ex.c ****         else
 724:Drivers/STM32G0xx_HAL_Driver/Src/stm32g0xx_hal_rcc_ex.c ****         {
 725:Drivers/STM32G0xx_HAL_Driver/Src/stm32g0xx_hal_rcc_ex.c ****           /* Nothing to do as frequency already initialized to 0U */
 726:Drivers/STM32G0xx_HAL_Driver/Src/stm32g0xx_hal_rcc_ex.c ****         }
 727:Drivers/STM32G0xx_HAL_Driver/Src/stm32g0xx_hal_rcc_ex.c ****         break;
 728:Drivers/STM32G0xx_HAL_Driver/Src/stm32g0xx_hal_rcc_ex.c **** #if defined(RCC_CCIPR_USART2SEL)
 729:Drivers/STM32G0xx_HAL_Driver/Src/stm32g0xx_hal_rcc_ex.c ****       case RCC_PERIPHCLK_USART2:
 730:Drivers/STM32G0xx_HAL_Driver/Src/stm32g0xx_hal_rcc_ex.c ****         /* Get the current USART2 source */
 731:Drivers/STM32G0xx_HAL_Driver/Src/stm32g0xx_hal_rcc_ex.c ****         srcclk = __HAL_RCC_GET_USART2_SOURCE();
 732:Drivers/STM32G0xx_HAL_Driver/Src/stm32g0xx_hal_rcc_ex.c **** 
 733:Drivers/STM32G0xx_HAL_Driver/Src/stm32g0xx_hal_rcc_ex.c ****         if (srcclk == RCC_USART2CLKSOURCE_PCLK1)
ARM GAS  C:\Users\SOLDER~1\AppData\Local\Temp\ccUUcBce.s 			page 39


 734:Drivers/STM32G0xx_HAL_Driver/Src/stm32g0xx_hal_rcc_ex.c ****         {
 735:Drivers/STM32G0xx_HAL_Driver/Src/stm32g0xx_hal_rcc_ex.c ****           frequency = HAL_RCC_GetPCLK1Freq();
 736:Drivers/STM32G0xx_HAL_Driver/Src/stm32g0xx_hal_rcc_ex.c ****         }
 737:Drivers/STM32G0xx_HAL_Driver/Src/stm32g0xx_hal_rcc_ex.c ****         else if (srcclk == RCC_USART2CLKSOURCE_SYSCLK)
 738:Drivers/STM32G0xx_HAL_Driver/Src/stm32g0xx_hal_rcc_ex.c ****         {
 739:Drivers/STM32G0xx_HAL_Driver/Src/stm32g0xx_hal_rcc_ex.c ****           frequency = HAL_RCC_GetSysClockFreq();
 740:Drivers/STM32G0xx_HAL_Driver/Src/stm32g0xx_hal_rcc_ex.c ****         }
 741:Drivers/STM32G0xx_HAL_Driver/Src/stm32g0xx_hal_rcc_ex.c ****         else if ((HAL_IS_BIT_SET(RCC->CR, RCC_CR_HSIRDY)) && (srcclk == RCC_USART2CLKSOURCE_HSI))
 742:Drivers/STM32G0xx_HAL_Driver/Src/stm32g0xx_hal_rcc_ex.c ****         {
 743:Drivers/STM32G0xx_HAL_Driver/Src/stm32g0xx_hal_rcc_ex.c ****           frequency = HSI_VALUE;
 744:Drivers/STM32G0xx_HAL_Driver/Src/stm32g0xx_hal_rcc_ex.c ****         }
 745:Drivers/STM32G0xx_HAL_Driver/Src/stm32g0xx_hal_rcc_ex.c ****         else if ((HAL_IS_BIT_SET(RCC->BDCR, RCC_BDCR_LSERDY)) && (srcclk == RCC_USART2CLKSOURCE_LSE
 746:Drivers/STM32G0xx_HAL_Driver/Src/stm32g0xx_hal_rcc_ex.c ****         {
 747:Drivers/STM32G0xx_HAL_Driver/Src/stm32g0xx_hal_rcc_ex.c ****           frequency = LSE_VALUE;
 748:Drivers/STM32G0xx_HAL_Driver/Src/stm32g0xx_hal_rcc_ex.c ****         }
 749:Drivers/STM32G0xx_HAL_Driver/Src/stm32g0xx_hal_rcc_ex.c ****         /* Clock not enabled for USART2 */
 750:Drivers/STM32G0xx_HAL_Driver/Src/stm32g0xx_hal_rcc_ex.c ****         else
 751:Drivers/STM32G0xx_HAL_Driver/Src/stm32g0xx_hal_rcc_ex.c ****         {
 752:Drivers/STM32G0xx_HAL_Driver/Src/stm32g0xx_hal_rcc_ex.c ****           /* Nothing to do as frequency already initialized to 0U */
 753:Drivers/STM32G0xx_HAL_Driver/Src/stm32g0xx_hal_rcc_ex.c ****         }
 754:Drivers/STM32G0xx_HAL_Driver/Src/stm32g0xx_hal_rcc_ex.c ****         break;
 755:Drivers/STM32G0xx_HAL_Driver/Src/stm32g0xx_hal_rcc_ex.c **** #endif /* RCC_CCIPR_USART2SEL */
 756:Drivers/STM32G0xx_HAL_Driver/Src/stm32g0xx_hal_rcc_ex.c **** 
 757:Drivers/STM32G0xx_HAL_Driver/Src/stm32g0xx_hal_rcc_ex.c **** #if defined(RCC_CCIPR_USART3SEL)
 758:Drivers/STM32G0xx_HAL_Driver/Src/stm32g0xx_hal_rcc_ex.c ****       case RCC_PERIPHCLK_USART3:
 759:Drivers/STM32G0xx_HAL_Driver/Src/stm32g0xx_hal_rcc_ex.c ****         /* Get the current USART3 source */
 760:Drivers/STM32G0xx_HAL_Driver/Src/stm32g0xx_hal_rcc_ex.c ****         srcclk = __HAL_RCC_GET_USART3_SOURCE();
 761:Drivers/STM32G0xx_HAL_Driver/Src/stm32g0xx_hal_rcc_ex.c **** 
 762:Drivers/STM32G0xx_HAL_Driver/Src/stm32g0xx_hal_rcc_ex.c ****         if (srcclk == RCC_USART3CLKSOURCE_PCLK1)
 763:Drivers/STM32G0xx_HAL_Driver/Src/stm32g0xx_hal_rcc_ex.c ****         {
 764:Drivers/STM32G0xx_HAL_Driver/Src/stm32g0xx_hal_rcc_ex.c ****           frequency = HAL_RCC_GetPCLK1Freq();
 765:Drivers/STM32G0xx_HAL_Driver/Src/stm32g0xx_hal_rcc_ex.c ****         }
 766:Drivers/STM32G0xx_HAL_Driver/Src/stm32g0xx_hal_rcc_ex.c ****         else if (srcclk == RCC_USART3CLKSOURCE_SYSCLK)
 767:Drivers/STM32G0xx_HAL_Driver/Src/stm32g0xx_hal_rcc_ex.c ****         {
 768:Drivers/STM32G0xx_HAL_Driver/Src/stm32g0xx_hal_rcc_ex.c ****           frequency = HAL_RCC_GetSysClockFreq();
 769:Drivers/STM32G0xx_HAL_Driver/Src/stm32g0xx_hal_rcc_ex.c ****         }
 770:Drivers/STM32G0xx_HAL_Driver/Src/stm32g0xx_hal_rcc_ex.c ****         else if ((HAL_IS_BIT_SET(RCC->CR, RCC_CR_HSIRDY)) && (srcclk == RCC_USART3CLKSOURCE_HSI))
 771:Drivers/STM32G0xx_HAL_Driver/Src/stm32g0xx_hal_rcc_ex.c ****         {
 772:Drivers/STM32G0xx_HAL_Driver/Src/stm32g0xx_hal_rcc_ex.c ****           frequency = HSI_VALUE;
 773:Drivers/STM32G0xx_HAL_Driver/Src/stm32g0xx_hal_rcc_ex.c ****         }
 774:Drivers/STM32G0xx_HAL_Driver/Src/stm32g0xx_hal_rcc_ex.c ****         else if ((HAL_IS_BIT_SET(RCC->BDCR, RCC_BDCR_LSERDY)) && (srcclk == RCC_USART3CLKSOURCE_LSE
 775:Drivers/STM32G0xx_HAL_Driver/Src/stm32g0xx_hal_rcc_ex.c ****         {
 776:Drivers/STM32G0xx_HAL_Driver/Src/stm32g0xx_hal_rcc_ex.c ****           frequency = LSE_VALUE;
 777:Drivers/STM32G0xx_HAL_Driver/Src/stm32g0xx_hal_rcc_ex.c ****         }
 778:Drivers/STM32G0xx_HAL_Driver/Src/stm32g0xx_hal_rcc_ex.c ****         /* Clock not enabled for USART3 */
 779:Drivers/STM32G0xx_HAL_Driver/Src/stm32g0xx_hal_rcc_ex.c ****         else
 780:Drivers/STM32G0xx_HAL_Driver/Src/stm32g0xx_hal_rcc_ex.c ****         {
 781:Drivers/STM32G0xx_HAL_Driver/Src/stm32g0xx_hal_rcc_ex.c ****           /* Nothing to do as frequency already initialized to 0U */
 782:Drivers/STM32G0xx_HAL_Driver/Src/stm32g0xx_hal_rcc_ex.c ****         }
 783:Drivers/STM32G0xx_HAL_Driver/Src/stm32g0xx_hal_rcc_ex.c ****         break;
 784:Drivers/STM32G0xx_HAL_Driver/Src/stm32g0xx_hal_rcc_ex.c **** #endif /* RCC_CCIPR_USART3SEL */
 785:Drivers/STM32G0xx_HAL_Driver/Src/stm32g0xx_hal_rcc_ex.c **** 
 786:Drivers/STM32G0xx_HAL_Driver/Src/stm32g0xx_hal_rcc_ex.c **** #if defined(RCC_CCIPR_CECSEL)
 787:Drivers/STM32G0xx_HAL_Driver/Src/stm32g0xx_hal_rcc_ex.c ****       case RCC_PERIPHCLK_CEC:
 788:Drivers/STM32G0xx_HAL_Driver/Src/stm32g0xx_hal_rcc_ex.c ****         /* Get the current CEC source */
 789:Drivers/STM32G0xx_HAL_Driver/Src/stm32g0xx_hal_rcc_ex.c ****         srcclk = __HAL_RCC_GET_CEC_SOURCE();
 790:Drivers/STM32G0xx_HAL_Driver/Src/stm32g0xx_hal_rcc_ex.c **** 
ARM GAS  C:\Users\SOLDER~1\AppData\Local\Temp\ccUUcBce.s 			page 40


 791:Drivers/STM32G0xx_HAL_Driver/Src/stm32g0xx_hal_rcc_ex.c ****         if ((HAL_IS_BIT_SET(RCC->CR, RCC_CR_HSIRDY)) && (srcclk == RCC_CECCLKSOURCE_HSI_DIV488))
 792:Drivers/STM32G0xx_HAL_Driver/Src/stm32g0xx_hal_rcc_ex.c ****         {
 793:Drivers/STM32G0xx_HAL_Driver/Src/stm32g0xx_hal_rcc_ex.c ****           frequency = (HSI_VALUE / 488U);
 794:Drivers/STM32G0xx_HAL_Driver/Src/stm32g0xx_hal_rcc_ex.c ****         }
 795:Drivers/STM32G0xx_HAL_Driver/Src/stm32g0xx_hal_rcc_ex.c ****         else if ((HAL_IS_BIT_SET(RCC->BDCR, RCC_BDCR_LSERDY)) && (srcclk == RCC_CECCLKSOURCE_LSE))
 796:Drivers/STM32G0xx_HAL_Driver/Src/stm32g0xx_hal_rcc_ex.c ****         {
 797:Drivers/STM32G0xx_HAL_Driver/Src/stm32g0xx_hal_rcc_ex.c ****           frequency = LSE_VALUE;
 798:Drivers/STM32G0xx_HAL_Driver/Src/stm32g0xx_hal_rcc_ex.c ****         }
 799:Drivers/STM32G0xx_HAL_Driver/Src/stm32g0xx_hal_rcc_ex.c ****         /* Clock not enabled for CEC */
 800:Drivers/STM32G0xx_HAL_Driver/Src/stm32g0xx_hal_rcc_ex.c ****         else
 801:Drivers/STM32G0xx_HAL_Driver/Src/stm32g0xx_hal_rcc_ex.c ****         {
 802:Drivers/STM32G0xx_HAL_Driver/Src/stm32g0xx_hal_rcc_ex.c ****           /* Nothing to do as frequency already initialized to 0U */
 803:Drivers/STM32G0xx_HAL_Driver/Src/stm32g0xx_hal_rcc_ex.c ****         }
 804:Drivers/STM32G0xx_HAL_Driver/Src/stm32g0xx_hal_rcc_ex.c ****         break;
 805:Drivers/STM32G0xx_HAL_Driver/Src/stm32g0xx_hal_rcc_ex.c **** #endif /* RCC_CCIPR_CECSEL */
 806:Drivers/STM32G0xx_HAL_Driver/Src/stm32g0xx_hal_rcc_ex.c **** 
 807:Drivers/STM32G0xx_HAL_Driver/Src/stm32g0xx_hal_rcc_ex.c **** #if defined(RCC_CCIPR_LPUART1SEL)
 808:Drivers/STM32G0xx_HAL_Driver/Src/stm32g0xx_hal_rcc_ex.c ****       case RCC_PERIPHCLK_LPUART1:
 809:Drivers/STM32G0xx_HAL_Driver/Src/stm32g0xx_hal_rcc_ex.c ****         /* Get the current LPUART1 source */
 810:Drivers/STM32G0xx_HAL_Driver/Src/stm32g0xx_hal_rcc_ex.c ****         srcclk = __HAL_RCC_GET_LPUART1_SOURCE();
 811:Drivers/STM32G0xx_HAL_Driver/Src/stm32g0xx_hal_rcc_ex.c **** 
 812:Drivers/STM32G0xx_HAL_Driver/Src/stm32g0xx_hal_rcc_ex.c ****         if (srcclk == RCC_LPUART1CLKSOURCE_PCLK1)
 813:Drivers/STM32G0xx_HAL_Driver/Src/stm32g0xx_hal_rcc_ex.c ****         {
 814:Drivers/STM32G0xx_HAL_Driver/Src/stm32g0xx_hal_rcc_ex.c ****           frequency = HAL_RCC_GetPCLK1Freq();
 815:Drivers/STM32G0xx_HAL_Driver/Src/stm32g0xx_hal_rcc_ex.c ****         }
 816:Drivers/STM32G0xx_HAL_Driver/Src/stm32g0xx_hal_rcc_ex.c ****         else if (srcclk == RCC_LPUART1CLKSOURCE_SYSCLK)
 817:Drivers/STM32G0xx_HAL_Driver/Src/stm32g0xx_hal_rcc_ex.c ****         {
 818:Drivers/STM32G0xx_HAL_Driver/Src/stm32g0xx_hal_rcc_ex.c ****           frequency = HAL_RCC_GetSysClockFreq();
 819:Drivers/STM32G0xx_HAL_Driver/Src/stm32g0xx_hal_rcc_ex.c ****         }
 820:Drivers/STM32G0xx_HAL_Driver/Src/stm32g0xx_hal_rcc_ex.c ****         else if ((HAL_IS_BIT_SET(RCC->CR, RCC_CR_HSIRDY)) && (srcclk == RCC_LPUART1CLKSOURCE_HSI))
 821:Drivers/STM32G0xx_HAL_Driver/Src/stm32g0xx_hal_rcc_ex.c ****         {
 822:Drivers/STM32G0xx_HAL_Driver/Src/stm32g0xx_hal_rcc_ex.c ****           frequency = HSI_VALUE;
 823:Drivers/STM32G0xx_HAL_Driver/Src/stm32g0xx_hal_rcc_ex.c ****         }
 824:Drivers/STM32G0xx_HAL_Driver/Src/stm32g0xx_hal_rcc_ex.c ****         else if ((HAL_IS_BIT_SET(RCC->BDCR, RCC_BDCR_LSERDY)) && (srcclk == RCC_LPUART1CLKSOURCE_LS
 825:Drivers/STM32G0xx_HAL_Driver/Src/stm32g0xx_hal_rcc_ex.c ****         {
 826:Drivers/STM32G0xx_HAL_Driver/Src/stm32g0xx_hal_rcc_ex.c ****           frequency = LSE_VALUE;
 827:Drivers/STM32G0xx_HAL_Driver/Src/stm32g0xx_hal_rcc_ex.c ****         }
 828:Drivers/STM32G0xx_HAL_Driver/Src/stm32g0xx_hal_rcc_ex.c ****         /* Clock not enabled for LPUART1 */
 829:Drivers/STM32G0xx_HAL_Driver/Src/stm32g0xx_hal_rcc_ex.c ****         else
 830:Drivers/STM32G0xx_HAL_Driver/Src/stm32g0xx_hal_rcc_ex.c ****         {
 831:Drivers/STM32G0xx_HAL_Driver/Src/stm32g0xx_hal_rcc_ex.c ****           /* Nothing to do as frequency already initialized to 0U */
 832:Drivers/STM32G0xx_HAL_Driver/Src/stm32g0xx_hal_rcc_ex.c ****         }
 833:Drivers/STM32G0xx_HAL_Driver/Src/stm32g0xx_hal_rcc_ex.c ****         break;
 834:Drivers/STM32G0xx_HAL_Driver/Src/stm32g0xx_hal_rcc_ex.c **** #endif /* RCC_CCIPR_LPUART1SEL */
 835:Drivers/STM32G0xx_HAL_Driver/Src/stm32g0xx_hal_rcc_ex.c **** 
 836:Drivers/STM32G0xx_HAL_Driver/Src/stm32g0xx_hal_rcc_ex.c **** #if defined(RCC_CCIPR_LPUART2SEL)
 837:Drivers/STM32G0xx_HAL_Driver/Src/stm32g0xx_hal_rcc_ex.c ****       case RCC_PERIPHCLK_LPUART2:
 838:Drivers/STM32G0xx_HAL_Driver/Src/stm32g0xx_hal_rcc_ex.c ****         /* Get the current LPUART2 source */
 839:Drivers/STM32G0xx_HAL_Driver/Src/stm32g0xx_hal_rcc_ex.c ****         srcclk = __HAL_RCC_GET_LPUART2_SOURCE();
 840:Drivers/STM32G0xx_HAL_Driver/Src/stm32g0xx_hal_rcc_ex.c **** 
 841:Drivers/STM32G0xx_HAL_Driver/Src/stm32g0xx_hal_rcc_ex.c ****         if (srcclk == RCC_LPUART2CLKSOURCE_PCLK1)
 842:Drivers/STM32G0xx_HAL_Driver/Src/stm32g0xx_hal_rcc_ex.c ****         {
 843:Drivers/STM32G0xx_HAL_Driver/Src/stm32g0xx_hal_rcc_ex.c ****           frequency = HAL_RCC_GetPCLK1Freq();
 844:Drivers/STM32G0xx_HAL_Driver/Src/stm32g0xx_hal_rcc_ex.c ****         }
 845:Drivers/STM32G0xx_HAL_Driver/Src/stm32g0xx_hal_rcc_ex.c ****         else if (srcclk == RCC_LPUART2CLKSOURCE_SYSCLK)
 846:Drivers/STM32G0xx_HAL_Driver/Src/stm32g0xx_hal_rcc_ex.c ****         {
 847:Drivers/STM32G0xx_HAL_Driver/Src/stm32g0xx_hal_rcc_ex.c ****           frequency = HAL_RCC_GetSysClockFreq();
ARM GAS  C:\Users\SOLDER~1\AppData\Local\Temp\ccUUcBce.s 			page 41


 848:Drivers/STM32G0xx_HAL_Driver/Src/stm32g0xx_hal_rcc_ex.c ****         }
 849:Drivers/STM32G0xx_HAL_Driver/Src/stm32g0xx_hal_rcc_ex.c ****         else if ((HAL_IS_BIT_SET(RCC->CR, RCC_CR_HSIRDY)) && (srcclk == RCC_LPUART2CLKSOURCE_HSI))
 850:Drivers/STM32G0xx_HAL_Driver/Src/stm32g0xx_hal_rcc_ex.c ****         {
 851:Drivers/STM32G0xx_HAL_Driver/Src/stm32g0xx_hal_rcc_ex.c ****           frequency = HSI_VALUE;
 852:Drivers/STM32G0xx_HAL_Driver/Src/stm32g0xx_hal_rcc_ex.c ****         }
 853:Drivers/STM32G0xx_HAL_Driver/Src/stm32g0xx_hal_rcc_ex.c ****         else if ((HAL_IS_BIT_SET(RCC->BDCR, RCC_BDCR_LSERDY)) && (srcclk == RCC_LPUART2CLKSOURCE_LS
 854:Drivers/STM32G0xx_HAL_Driver/Src/stm32g0xx_hal_rcc_ex.c ****         {
 855:Drivers/STM32G0xx_HAL_Driver/Src/stm32g0xx_hal_rcc_ex.c ****           frequency = LSE_VALUE;
 856:Drivers/STM32G0xx_HAL_Driver/Src/stm32g0xx_hal_rcc_ex.c ****         }
 857:Drivers/STM32G0xx_HAL_Driver/Src/stm32g0xx_hal_rcc_ex.c ****         /* Clock not enabled for LPUART2 */
 858:Drivers/STM32G0xx_HAL_Driver/Src/stm32g0xx_hal_rcc_ex.c ****         else
 859:Drivers/STM32G0xx_HAL_Driver/Src/stm32g0xx_hal_rcc_ex.c ****         {
 860:Drivers/STM32G0xx_HAL_Driver/Src/stm32g0xx_hal_rcc_ex.c ****           /* Nothing to do as frequency already initialized to 0U */
 861:Drivers/STM32G0xx_HAL_Driver/Src/stm32g0xx_hal_rcc_ex.c ****         }
 862:Drivers/STM32G0xx_HAL_Driver/Src/stm32g0xx_hal_rcc_ex.c ****         break;
 863:Drivers/STM32G0xx_HAL_Driver/Src/stm32g0xx_hal_rcc_ex.c **** #endif /* RCC_CCIPR_LPUART2SEL */
 864:Drivers/STM32G0xx_HAL_Driver/Src/stm32g0xx_hal_rcc_ex.c **** 
 865:Drivers/STM32G0xx_HAL_Driver/Src/stm32g0xx_hal_rcc_ex.c ****       case RCC_PERIPHCLK_ADC:
 866:Drivers/STM32G0xx_HAL_Driver/Src/stm32g0xx_hal_rcc_ex.c **** 
 867:Drivers/STM32G0xx_HAL_Driver/Src/stm32g0xx_hal_rcc_ex.c ****         srcclk = __HAL_RCC_GET_ADC_SOURCE();
 868:Drivers/STM32G0xx_HAL_Driver/Src/stm32g0xx_hal_rcc_ex.c **** 
 869:Drivers/STM32G0xx_HAL_Driver/Src/stm32g0xx_hal_rcc_ex.c ****         if (srcclk == RCC_ADCCLKSOURCE_SYSCLK)
 870:Drivers/STM32G0xx_HAL_Driver/Src/stm32g0xx_hal_rcc_ex.c ****         {
 871:Drivers/STM32G0xx_HAL_Driver/Src/stm32g0xx_hal_rcc_ex.c ****           frequency = HAL_RCC_GetSysClockFreq();
 872:Drivers/STM32G0xx_HAL_Driver/Src/stm32g0xx_hal_rcc_ex.c ****         }
 873:Drivers/STM32G0xx_HAL_Driver/Src/stm32g0xx_hal_rcc_ex.c ****         else if (srcclk == RCC_ADCCLKSOURCE_HSI)
 874:Drivers/STM32G0xx_HAL_Driver/Src/stm32g0xx_hal_rcc_ex.c ****         {
 875:Drivers/STM32G0xx_HAL_Driver/Src/stm32g0xx_hal_rcc_ex.c ****           frequency = HSI_VALUE;
 876:Drivers/STM32G0xx_HAL_Driver/Src/stm32g0xx_hal_rcc_ex.c ****         }
 877:Drivers/STM32G0xx_HAL_Driver/Src/stm32g0xx_hal_rcc_ex.c ****         else if (srcclk == RCC_ADCCLKSOURCE_PLLADC)
 878:Drivers/STM32G0xx_HAL_Driver/Src/stm32g0xx_hal_rcc_ex.c ****         {
 879:Drivers/STM32G0xx_HAL_Driver/Src/stm32g0xx_hal_rcc_ex.c ****           if (__HAL_RCC_GET_PLLCLKOUT_CONFIG(RCC_PLLPCLK) != 0U)
 880:Drivers/STM32G0xx_HAL_Driver/Src/stm32g0xx_hal_rcc_ex.c ****           {
 881:Drivers/STM32G0xx_HAL_Driver/Src/stm32g0xx_hal_rcc_ex.c ****             /* f(PLLP) = f(VCO input) * PLLN / PLLP */
 882:Drivers/STM32G0xx_HAL_Driver/Src/stm32g0xx_hal_rcc_ex.c ****             plln = READ_BIT(RCC->PLLCFGR, RCC_PLLCFGR_PLLN) >> RCC_PLLCFGR_PLLN_Pos;
 883:Drivers/STM32G0xx_HAL_Driver/Src/stm32g0xx_hal_rcc_ex.c ****             frequency = (pllvco * plln) / ((READ_BIT(RCC->PLLCFGR, RCC_PLLCFGR_PLLP) >> RCC_PLLCFGR
 884:Drivers/STM32G0xx_HAL_Driver/Src/stm32g0xx_hal_rcc_ex.c ****           }
 885:Drivers/STM32G0xx_HAL_Driver/Src/stm32g0xx_hal_rcc_ex.c ****         }
 886:Drivers/STM32G0xx_HAL_Driver/Src/stm32g0xx_hal_rcc_ex.c ****         /* Clock not enabled for ADC */
 887:Drivers/STM32G0xx_HAL_Driver/Src/stm32g0xx_hal_rcc_ex.c ****         else
 888:Drivers/STM32G0xx_HAL_Driver/Src/stm32g0xx_hal_rcc_ex.c ****         {
 889:Drivers/STM32G0xx_HAL_Driver/Src/stm32g0xx_hal_rcc_ex.c ****           /* Nothing to do as frequency already initialized to 0U */
 890:Drivers/STM32G0xx_HAL_Driver/Src/stm32g0xx_hal_rcc_ex.c ****         }
 891:Drivers/STM32G0xx_HAL_Driver/Src/stm32g0xx_hal_rcc_ex.c ****         break;
 892:Drivers/STM32G0xx_HAL_Driver/Src/stm32g0xx_hal_rcc_ex.c **** 
 893:Drivers/STM32G0xx_HAL_Driver/Src/stm32g0xx_hal_rcc_ex.c ****       case RCC_PERIPHCLK_I2C1:
 894:Drivers/STM32G0xx_HAL_Driver/Src/stm32g0xx_hal_rcc_ex.c ****         /* Get the current I2C1 source */
 895:Drivers/STM32G0xx_HAL_Driver/Src/stm32g0xx_hal_rcc_ex.c ****         srcclk = __HAL_RCC_GET_I2C1_SOURCE();
 896:Drivers/STM32G0xx_HAL_Driver/Src/stm32g0xx_hal_rcc_ex.c **** 
 897:Drivers/STM32G0xx_HAL_Driver/Src/stm32g0xx_hal_rcc_ex.c ****         if (srcclk == RCC_I2C1CLKSOURCE_PCLK1)
 898:Drivers/STM32G0xx_HAL_Driver/Src/stm32g0xx_hal_rcc_ex.c ****         {
 899:Drivers/STM32G0xx_HAL_Driver/Src/stm32g0xx_hal_rcc_ex.c ****           frequency = HAL_RCC_GetPCLK1Freq();
 900:Drivers/STM32G0xx_HAL_Driver/Src/stm32g0xx_hal_rcc_ex.c ****         }
 901:Drivers/STM32G0xx_HAL_Driver/Src/stm32g0xx_hal_rcc_ex.c ****         else if (srcclk == RCC_I2C1CLKSOURCE_SYSCLK)
 902:Drivers/STM32G0xx_HAL_Driver/Src/stm32g0xx_hal_rcc_ex.c ****         {
 903:Drivers/STM32G0xx_HAL_Driver/Src/stm32g0xx_hal_rcc_ex.c ****           frequency = HAL_RCC_GetSysClockFreq();
 904:Drivers/STM32G0xx_HAL_Driver/Src/stm32g0xx_hal_rcc_ex.c ****         }
ARM GAS  C:\Users\SOLDER~1\AppData\Local\Temp\ccUUcBce.s 			page 42


 905:Drivers/STM32G0xx_HAL_Driver/Src/stm32g0xx_hal_rcc_ex.c ****         else if ((HAL_IS_BIT_SET(RCC->CR, RCC_CR_HSIRDY)) && (srcclk == RCC_I2C1CLKSOURCE_HSI))
 906:Drivers/STM32G0xx_HAL_Driver/Src/stm32g0xx_hal_rcc_ex.c ****         {
 907:Drivers/STM32G0xx_HAL_Driver/Src/stm32g0xx_hal_rcc_ex.c ****           frequency = HSI_VALUE;
 908:Drivers/STM32G0xx_HAL_Driver/Src/stm32g0xx_hal_rcc_ex.c ****         }
 909:Drivers/STM32G0xx_HAL_Driver/Src/stm32g0xx_hal_rcc_ex.c ****         /* Clock not enabled for I2C1 */
 910:Drivers/STM32G0xx_HAL_Driver/Src/stm32g0xx_hal_rcc_ex.c ****         else
 911:Drivers/STM32G0xx_HAL_Driver/Src/stm32g0xx_hal_rcc_ex.c ****         {
 912:Drivers/STM32G0xx_HAL_Driver/Src/stm32g0xx_hal_rcc_ex.c ****           /* Nothing to do as frequency already initialized to 0U */
 913:Drivers/STM32G0xx_HAL_Driver/Src/stm32g0xx_hal_rcc_ex.c ****         }
 914:Drivers/STM32G0xx_HAL_Driver/Src/stm32g0xx_hal_rcc_ex.c ****         break;
 915:Drivers/STM32G0xx_HAL_Driver/Src/stm32g0xx_hal_rcc_ex.c **** 
 916:Drivers/STM32G0xx_HAL_Driver/Src/stm32g0xx_hal_rcc_ex.c **** #if defined(RCC_CCIPR_I2C2SEL)
 917:Drivers/STM32G0xx_HAL_Driver/Src/stm32g0xx_hal_rcc_ex.c ****       case RCC_PERIPHCLK_I2C2:
 918:Drivers/STM32G0xx_HAL_Driver/Src/stm32g0xx_hal_rcc_ex.c ****         /* Get the current I2C2 source */
 919:Drivers/STM32G0xx_HAL_Driver/Src/stm32g0xx_hal_rcc_ex.c ****         srcclk = __HAL_RCC_GET_I2C2_SOURCE();
 920:Drivers/STM32G0xx_HAL_Driver/Src/stm32g0xx_hal_rcc_ex.c **** 
 921:Drivers/STM32G0xx_HAL_Driver/Src/stm32g0xx_hal_rcc_ex.c ****         if (srcclk == RCC_I2C2CLKSOURCE_PCLK1)
 922:Drivers/STM32G0xx_HAL_Driver/Src/stm32g0xx_hal_rcc_ex.c ****         {
 923:Drivers/STM32G0xx_HAL_Driver/Src/stm32g0xx_hal_rcc_ex.c ****           frequency = HAL_RCC_GetPCLK1Freq();
 924:Drivers/STM32G0xx_HAL_Driver/Src/stm32g0xx_hal_rcc_ex.c ****         }
 925:Drivers/STM32G0xx_HAL_Driver/Src/stm32g0xx_hal_rcc_ex.c ****         else if (srcclk == RCC_I2C2CLKSOURCE_SYSCLK)
 926:Drivers/STM32G0xx_HAL_Driver/Src/stm32g0xx_hal_rcc_ex.c ****         {
 927:Drivers/STM32G0xx_HAL_Driver/Src/stm32g0xx_hal_rcc_ex.c ****           frequency = HAL_RCC_GetSysClockFreq();
 928:Drivers/STM32G0xx_HAL_Driver/Src/stm32g0xx_hal_rcc_ex.c ****         }
 929:Drivers/STM32G0xx_HAL_Driver/Src/stm32g0xx_hal_rcc_ex.c ****         else if ((HAL_IS_BIT_SET(RCC->CR, RCC_CR_HSIRDY)) && (srcclk == RCC_I2C2CLKSOURCE_HSI))
 930:Drivers/STM32G0xx_HAL_Driver/Src/stm32g0xx_hal_rcc_ex.c ****         {
 931:Drivers/STM32G0xx_HAL_Driver/Src/stm32g0xx_hal_rcc_ex.c ****           frequency = HSI_VALUE;
 932:Drivers/STM32G0xx_HAL_Driver/Src/stm32g0xx_hal_rcc_ex.c ****         }
 933:Drivers/STM32G0xx_HAL_Driver/Src/stm32g0xx_hal_rcc_ex.c ****         /* Clock not enabled for I2C2 */
 934:Drivers/STM32G0xx_HAL_Driver/Src/stm32g0xx_hal_rcc_ex.c ****         else
 935:Drivers/STM32G0xx_HAL_Driver/Src/stm32g0xx_hal_rcc_ex.c ****         {
 936:Drivers/STM32G0xx_HAL_Driver/Src/stm32g0xx_hal_rcc_ex.c ****           /* Nothing to do as frequency already initialized to 0U */
 937:Drivers/STM32G0xx_HAL_Driver/Src/stm32g0xx_hal_rcc_ex.c ****         }
 938:Drivers/STM32G0xx_HAL_Driver/Src/stm32g0xx_hal_rcc_ex.c ****         break;
 939:Drivers/STM32G0xx_HAL_Driver/Src/stm32g0xx_hal_rcc_ex.c **** #endif /* RCC_CCIPR_I2C2SEL */
 940:Drivers/STM32G0xx_HAL_Driver/Src/stm32g0xx_hal_rcc_ex.c **** 
 941:Drivers/STM32G0xx_HAL_Driver/Src/stm32g0xx_hal_rcc_ex.c ****       case RCC_PERIPHCLK_I2S1:
 942:Drivers/STM32G0xx_HAL_Driver/Src/stm32g0xx_hal_rcc_ex.c ****         /* Get the current I2S1 source */
 943:Drivers/STM32G0xx_HAL_Driver/Src/stm32g0xx_hal_rcc_ex.c ****         srcclk = __HAL_RCC_GET_I2S1_SOURCE();
 944:Drivers/STM32G0xx_HAL_Driver/Src/stm32g0xx_hal_rcc_ex.c **** 
 945:Drivers/STM32G0xx_HAL_Driver/Src/stm32g0xx_hal_rcc_ex.c ****         if (srcclk == RCC_I2S1CLKSOURCE_PLL)
 946:Drivers/STM32G0xx_HAL_Driver/Src/stm32g0xx_hal_rcc_ex.c ****         {
 947:Drivers/STM32G0xx_HAL_Driver/Src/stm32g0xx_hal_rcc_ex.c ****           if (__HAL_RCC_GET_PLLCLKOUT_CONFIG(RCC_PLLPCLK) != 0U)
 948:Drivers/STM32G0xx_HAL_Driver/Src/stm32g0xx_hal_rcc_ex.c ****           {
 949:Drivers/STM32G0xx_HAL_Driver/Src/stm32g0xx_hal_rcc_ex.c ****             /* f(PLLP) = f(VCO input) * PLLN / PLLP */
 950:Drivers/STM32G0xx_HAL_Driver/Src/stm32g0xx_hal_rcc_ex.c ****             plln = READ_BIT(RCC->PLLCFGR, RCC_PLLCFGR_PLLN) >> RCC_PLLCFGR_PLLN_Pos;
 951:Drivers/STM32G0xx_HAL_Driver/Src/stm32g0xx_hal_rcc_ex.c ****             frequency = (pllvco * plln) / ((READ_BIT(RCC->PLLCFGR, RCC_PLLCFGR_PLLP) >> RCC_PLLCFGR
 952:Drivers/STM32G0xx_HAL_Driver/Src/stm32g0xx_hal_rcc_ex.c ****           }
 953:Drivers/STM32G0xx_HAL_Driver/Src/stm32g0xx_hal_rcc_ex.c ****         }
 954:Drivers/STM32G0xx_HAL_Driver/Src/stm32g0xx_hal_rcc_ex.c ****         else if (srcclk == RCC_I2S1CLKSOURCE_SYSCLK)
 955:Drivers/STM32G0xx_HAL_Driver/Src/stm32g0xx_hal_rcc_ex.c ****         {
 956:Drivers/STM32G0xx_HAL_Driver/Src/stm32g0xx_hal_rcc_ex.c ****           frequency = HAL_RCC_GetSysClockFreq();
 957:Drivers/STM32G0xx_HAL_Driver/Src/stm32g0xx_hal_rcc_ex.c ****         }
 958:Drivers/STM32G0xx_HAL_Driver/Src/stm32g0xx_hal_rcc_ex.c ****         else if ((HAL_IS_BIT_SET(RCC->CR, RCC_CR_HSIRDY)) && (srcclk == RCC_I2S1CLKSOURCE_HSI))
 959:Drivers/STM32G0xx_HAL_Driver/Src/stm32g0xx_hal_rcc_ex.c ****         {
 960:Drivers/STM32G0xx_HAL_Driver/Src/stm32g0xx_hal_rcc_ex.c ****           frequency = HSI_VALUE;
 961:Drivers/STM32G0xx_HAL_Driver/Src/stm32g0xx_hal_rcc_ex.c ****         }
ARM GAS  C:\Users\SOLDER~1\AppData\Local\Temp\ccUUcBce.s 			page 43


 962:Drivers/STM32G0xx_HAL_Driver/Src/stm32g0xx_hal_rcc_ex.c ****         else if (srcclk == RCC_I2S1CLKSOURCE_EXT)
 963:Drivers/STM32G0xx_HAL_Driver/Src/stm32g0xx_hal_rcc_ex.c ****         {
 964:Drivers/STM32G0xx_HAL_Driver/Src/stm32g0xx_hal_rcc_ex.c ****           /* External clock used.*/
 965:Drivers/STM32G0xx_HAL_Driver/Src/stm32g0xx_hal_rcc_ex.c ****           frequency = EXTERNAL_I2S1_CLOCK_VALUE;
 966:Drivers/STM32G0xx_HAL_Driver/Src/stm32g0xx_hal_rcc_ex.c ****         }
 967:Drivers/STM32G0xx_HAL_Driver/Src/stm32g0xx_hal_rcc_ex.c ****         /* Clock not enabled for I2S1 */
 968:Drivers/STM32G0xx_HAL_Driver/Src/stm32g0xx_hal_rcc_ex.c ****         else
 969:Drivers/STM32G0xx_HAL_Driver/Src/stm32g0xx_hal_rcc_ex.c ****         {
 970:Drivers/STM32G0xx_HAL_Driver/Src/stm32g0xx_hal_rcc_ex.c ****           /* Nothing to do as frequency already initialized to 0U */
 971:Drivers/STM32G0xx_HAL_Driver/Src/stm32g0xx_hal_rcc_ex.c ****         }
 972:Drivers/STM32G0xx_HAL_Driver/Src/stm32g0xx_hal_rcc_ex.c ****         break;
 973:Drivers/STM32G0xx_HAL_Driver/Src/stm32g0xx_hal_rcc_ex.c **** 
 974:Drivers/STM32G0xx_HAL_Driver/Src/stm32g0xx_hal_rcc_ex.c **** #if defined(RCC_CCIPR2_I2S2SEL)
 975:Drivers/STM32G0xx_HAL_Driver/Src/stm32g0xx_hal_rcc_ex.c ****       case RCC_PERIPHCLK_I2S2:
 976:Drivers/STM32G0xx_HAL_Driver/Src/stm32g0xx_hal_rcc_ex.c ****         /* Get the current I2S2 source */
 977:Drivers/STM32G0xx_HAL_Driver/Src/stm32g0xx_hal_rcc_ex.c ****         srcclk = __HAL_RCC_GET_I2S2_SOURCE();
 978:Drivers/STM32G0xx_HAL_Driver/Src/stm32g0xx_hal_rcc_ex.c **** 
 979:Drivers/STM32G0xx_HAL_Driver/Src/stm32g0xx_hal_rcc_ex.c ****         if (srcclk == RCC_I2S2CLKSOURCE_PLL)
 980:Drivers/STM32G0xx_HAL_Driver/Src/stm32g0xx_hal_rcc_ex.c ****         {
 981:Drivers/STM32G0xx_HAL_Driver/Src/stm32g0xx_hal_rcc_ex.c ****           if (__HAL_RCC_GET_PLLCLKOUT_CONFIG(RCC_PLLPCLK) != 0U)
 982:Drivers/STM32G0xx_HAL_Driver/Src/stm32g0xx_hal_rcc_ex.c ****           {
 983:Drivers/STM32G0xx_HAL_Driver/Src/stm32g0xx_hal_rcc_ex.c ****             /* f(PLLP) = f(VCO input) * PLLN / PLLP */
 984:Drivers/STM32G0xx_HAL_Driver/Src/stm32g0xx_hal_rcc_ex.c ****             plln = READ_BIT(RCC->PLLCFGR, RCC_PLLCFGR_PLLN) >> RCC_PLLCFGR_PLLN_Pos;
 985:Drivers/STM32G0xx_HAL_Driver/Src/stm32g0xx_hal_rcc_ex.c ****             frequency = (pllvco * plln) / ((READ_BIT(RCC->PLLCFGR, RCC_PLLCFGR_PLLP) >> RCC_PLLCFGR
 986:Drivers/STM32G0xx_HAL_Driver/Src/stm32g0xx_hal_rcc_ex.c ****           }
 987:Drivers/STM32G0xx_HAL_Driver/Src/stm32g0xx_hal_rcc_ex.c ****         }
 988:Drivers/STM32G0xx_HAL_Driver/Src/stm32g0xx_hal_rcc_ex.c ****         else if (srcclk == RCC_I2S2CLKSOURCE_SYSCLK)
 989:Drivers/STM32G0xx_HAL_Driver/Src/stm32g0xx_hal_rcc_ex.c ****         {
 990:Drivers/STM32G0xx_HAL_Driver/Src/stm32g0xx_hal_rcc_ex.c ****           frequency = HAL_RCC_GetSysClockFreq();
 991:Drivers/STM32G0xx_HAL_Driver/Src/stm32g0xx_hal_rcc_ex.c ****         }
 992:Drivers/STM32G0xx_HAL_Driver/Src/stm32g0xx_hal_rcc_ex.c ****         else if ((HAL_IS_BIT_SET(RCC->CR, RCC_CR_HSIRDY)) && (srcclk == RCC_I2S2CLKSOURCE_HSI))
 993:Drivers/STM32G0xx_HAL_Driver/Src/stm32g0xx_hal_rcc_ex.c ****         {
 994:Drivers/STM32G0xx_HAL_Driver/Src/stm32g0xx_hal_rcc_ex.c ****           frequency = HSI_VALUE;
 995:Drivers/STM32G0xx_HAL_Driver/Src/stm32g0xx_hal_rcc_ex.c ****         }
 996:Drivers/STM32G0xx_HAL_Driver/Src/stm32g0xx_hal_rcc_ex.c ****         else if (srcclk == RCC_I2S2CLKSOURCE_EXT)
 997:Drivers/STM32G0xx_HAL_Driver/Src/stm32g0xx_hal_rcc_ex.c ****         {
 998:Drivers/STM32G0xx_HAL_Driver/Src/stm32g0xx_hal_rcc_ex.c ****           /* External clock used.*/
 999:Drivers/STM32G0xx_HAL_Driver/Src/stm32g0xx_hal_rcc_ex.c ****           frequency = EXTERNAL_I2S2_CLOCK_VALUE;
1000:Drivers/STM32G0xx_HAL_Driver/Src/stm32g0xx_hal_rcc_ex.c ****         }
1001:Drivers/STM32G0xx_HAL_Driver/Src/stm32g0xx_hal_rcc_ex.c ****         /* Clock not enabled for I2S2 */
1002:Drivers/STM32G0xx_HAL_Driver/Src/stm32g0xx_hal_rcc_ex.c ****         else
1003:Drivers/STM32G0xx_HAL_Driver/Src/stm32g0xx_hal_rcc_ex.c ****         {
1004:Drivers/STM32G0xx_HAL_Driver/Src/stm32g0xx_hal_rcc_ex.c ****           /* Nothing to do as frequency already initialized to 0U */
1005:Drivers/STM32G0xx_HAL_Driver/Src/stm32g0xx_hal_rcc_ex.c ****         }
1006:Drivers/STM32G0xx_HAL_Driver/Src/stm32g0xx_hal_rcc_ex.c ****         break;
1007:Drivers/STM32G0xx_HAL_Driver/Src/stm32g0xx_hal_rcc_ex.c **** #endif /* RCC_CCIPR2_I2S2SEL */
1008:Drivers/STM32G0xx_HAL_Driver/Src/stm32g0xx_hal_rcc_ex.c **** 
1009:Drivers/STM32G0xx_HAL_Driver/Src/stm32g0xx_hal_rcc_ex.c **** #if defined(RCC_CCIPR_LPTIM1SEL)
1010:Drivers/STM32G0xx_HAL_Driver/Src/stm32g0xx_hal_rcc_ex.c ****       case RCC_PERIPHCLK_LPTIM1:
1011:Drivers/STM32G0xx_HAL_Driver/Src/stm32g0xx_hal_rcc_ex.c ****         /* Get the current LPTIM1 source */
1012:Drivers/STM32G0xx_HAL_Driver/Src/stm32g0xx_hal_rcc_ex.c ****         srcclk = __HAL_RCC_GET_LPTIM1_SOURCE();
1013:Drivers/STM32G0xx_HAL_Driver/Src/stm32g0xx_hal_rcc_ex.c **** 
1014:Drivers/STM32G0xx_HAL_Driver/Src/stm32g0xx_hal_rcc_ex.c ****         if (srcclk == RCC_LPTIM1CLKSOURCE_PCLK1)
1015:Drivers/STM32G0xx_HAL_Driver/Src/stm32g0xx_hal_rcc_ex.c ****         {
1016:Drivers/STM32G0xx_HAL_Driver/Src/stm32g0xx_hal_rcc_ex.c ****           frequency = HAL_RCC_GetPCLK1Freq();
1017:Drivers/STM32G0xx_HAL_Driver/Src/stm32g0xx_hal_rcc_ex.c ****         }
1018:Drivers/STM32G0xx_HAL_Driver/Src/stm32g0xx_hal_rcc_ex.c ****         else if ((HAL_IS_BIT_SET(RCC->CSR, RCC_CSR_LSIRDY)) && (srcclk == RCC_LPTIM1CLKSOURCE_LSI))
ARM GAS  C:\Users\SOLDER~1\AppData\Local\Temp\ccUUcBce.s 			page 44


1019:Drivers/STM32G0xx_HAL_Driver/Src/stm32g0xx_hal_rcc_ex.c ****         {
1020:Drivers/STM32G0xx_HAL_Driver/Src/stm32g0xx_hal_rcc_ex.c ****           frequency = LSI_VALUE;
1021:Drivers/STM32G0xx_HAL_Driver/Src/stm32g0xx_hal_rcc_ex.c ****         }
1022:Drivers/STM32G0xx_HAL_Driver/Src/stm32g0xx_hal_rcc_ex.c ****         else if ((HAL_IS_BIT_SET(RCC->CR, RCC_CR_HSIRDY)) && (srcclk == RCC_LPTIM1CLKSOURCE_HSI))
1023:Drivers/STM32G0xx_HAL_Driver/Src/stm32g0xx_hal_rcc_ex.c ****         {
1024:Drivers/STM32G0xx_HAL_Driver/Src/stm32g0xx_hal_rcc_ex.c ****           frequency = HSI_VALUE;
1025:Drivers/STM32G0xx_HAL_Driver/Src/stm32g0xx_hal_rcc_ex.c ****         }
1026:Drivers/STM32G0xx_HAL_Driver/Src/stm32g0xx_hal_rcc_ex.c ****         else if ((HAL_IS_BIT_SET(RCC->BDCR, RCC_BDCR_LSERDY)) && (srcclk == RCC_LPTIM1CLKSOURCE_LSE
1027:Drivers/STM32G0xx_HAL_Driver/Src/stm32g0xx_hal_rcc_ex.c ****         {
1028:Drivers/STM32G0xx_HAL_Driver/Src/stm32g0xx_hal_rcc_ex.c ****           frequency = LSE_VALUE;
1029:Drivers/STM32G0xx_HAL_Driver/Src/stm32g0xx_hal_rcc_ex.c ****         }
1030:Drivers/STM32G0xx_HAL_Driver/Src/stm32g0xx_hal_rcc_ex.c ****         /* Clock not enabled for LPTIM1 */
1031:Drivers/STM32G0xx_HAL_Driver/Src/stm32g0xx_hal_rcc_ex.c ****         else
1032:Drivers/STM32G0xx_HAL_Driver/Src/stm32g0xx_hal_rcc_ex.c ****         {
1033:Drivers/STM32G0xx_HAL_Driver/Src/stm32g0xx_hal_rcc_ex.c ****           /* Nothing to do as frequency already initialized to 0U */
1034:Drivers/STM32G0xx_HAL_Driver/Src/stm32g0xx_hal_rcc_ex.c ****         }
1035:Drivers/STM32G0xx_HAL_Driver/Src/stm32g0xx_hal_rcc_ex.c ****         break;
1036:Drivers/STM32G0xx_HAL_Driver/Src/stm32g0xx_hal_rcc_ex.c **** #endif /* RCC_CCIPR_LPTIM1SEL */
1037:Drivers/STM32G0xx_HAL_Driver/Src/stm32g0xx_hal_rcc_ex.c **** 
1038:Drivers/STM32G0xx_HAL_Driver/Src/stm32g0xx_hal_rcc_ex.c **** #if defined(RCC_CCIPR_LPTIM2SEL)
1039:Drivers/STM32G0xx_HAL_Driver/Src/stm32g0xx_hal_rcc_ex.c ****       case RCC_PERIPHCLK_LPTIM2:
1040:Drivers/STM32G0xx_HAL_Driver/Src/stm32g0xx_hal_rcc_ex.c ****         /* Get the current LPTIM2 source */
1041:Drivers/STM32G0xx_HAL_Driver/Src/stm32g0xx_hal_rcc_ex.c ****         srcclk = __HAL_RCC_GET_LPTIM2_SOURCE();
1042:Drivers/STM32G0xx_HAL_Driver/Src/stm32g0xx_hal_rcc_ex.c **** 
1043:Drivers/STM32G0xx_HAL_Driver/Src/stm32g0xx_hal_rcc_ex.c ****         if (srcclk == RCC_LPTIM2CLKSOURCE_PCLK1)
1044:Drivers/STM32G0xx_HAL_Driver/Src/stm32g0xx_hal_rcc_ex.c ****         {
1045:Drivers/STM32G0xx_HAL_Driver/Src/stm32g0xx_hal_rcc_ex.c ****           frequency = HAL_RCC_GetPCLK1Freq();
1046:Drivers/STM32G0xx_HAL_Driver/Src/stm32g0xx_hal_rcc_ex.c ****         }
1047:Drivers/STM32G0xx_HAL_Driver/Src/stm32g0xx_hal_rcc_ex.c ****         else if ((HAL_IS_BIT_SET(RCC->CSR, RCC_CSR_LSIRDY)) && (srcclk == RCC_LPTIM2CLKSOURCE_LSI))
1048:Drivers/STM32G0xx_HAL_Driver/Src/stm32g0xx_hal_rcc_ex.c ****         {
1049:Drivers/STM32G0xx_HAL_Driver/Src/stm32g0xx_hal_rcc_ex.c ****           frequency = LSI_VALUE;
1050:Drivers/STM32G0xx_HAL_Driver/Src/stm32g0xx_hal_rcc_ex.c ****         }
1051:Drivers/STM32G0xx_HAL_Driver/Src/stm32g0xx_hal_rcc_ex.c ****         else if ((HAL_IS_BIT_SET(RCC->CR, RCC_CR_HSIRDY)) && (srcclk == RCC_LPTIM2CLKSOURCE_HSI))
1052:Drivers/STM32G0xx_HAL_Driver/Src/stm32g0xx_hal_rcc_ex.c ****         {
1053:Drivers/STM32G0xx_HAL_Driver/Src/stm32g0xx_hal_rcc_ex.c ****           frequency = HSI_VALUE;
1054:Drivers/STM32G0xx_HAL_Driver/Src/stm32g0xx_hal_rcc_ex.c ****         }
1055:Drivers/STM32G0xx_HAL_Driver/Src/stm32g0xx_hal_rcc_ex.c ****         else if ((HAL_IS_BIT_SET(RCC->BDCR, RCC_BDCR_LSERDY)) && (srcclk == RCC_LPTIM2CLKSOURCE_LSE
1056:Drivers/STM32G0xx_HAL_Driver/Src/stm32g0xx_hal_rcc_ex.c ****         {
1057:Drivers/STM32G0xx_HAL_Driver/Src/stm32g0xx_hal_rcc_ex.c ****           frequency = LSE_VALUE;
1058:Drivers/STM32G0xx_HAL_Driver/Src/stm32g0xx_hal_rcc_ex.c ****         }
1059:Drivers/STM32G0xx_HAL_Driver/Src/stm32g0xx_hal_rcc_ex.c ****         /* Clock not enabled for LPTIM2 */
1060:Drivers/STM32G0xx_HAL_Driver/Src/stm32g0xx_hal_rcc_ex.c ****         else
1061:Drivers/STM32G0xx_HAL_Driver/Src/stm32g0xx_hal_rcc_ex.c ****         {
1062:Drivers/STM32G0xx_HAL_Driver/Src/stm32g0xx_hal_rcc_ex.c ****           /* Nothing to do as frequency already initialized to 0U */
1063:Drivers/STM32G0xx_HAL_Driver/Src/stm32g0xx_hal_rcc_ex.c ****         }
1064:Drivers/STM32G0xx_HAL_Driver/Src/stm32g0xx_hal_rcc_ex.c ****         break;
1065:Drivers/STM32G0xx_HAL_Driver/Src/stm32g0xx_hal_rcc_ex.c **** #endif /* RCC_CCIPR_LPTIM2SEL */
1066:Drivers/STM32G0xx_HAL_Driver/Src/stm32g0xx_hal_rcc_ex.c **** 
1067:Drivers/STM32G0xx_HAL_Driver/Src/stm32g0xx_hal_rcc_ex.c **** #if defined(RCC_CCIPR_TIM1SEL)
1068:Drivers/STM32G0xx_HAL_Driver/Src/stm32g0xx_hal_rcc_ex.c ****       case RCC_PERIPHCLK_TIM1:
1069:Drivers/STM32G0xx_HAL_Driver/Src/stm32g0xx_hal_rcc_ex.c **** 
1070:Drivers/STM32G0xx_HAL_Driver/Src/stm32g0xx_hal_rcc_ex.c ****         srcclk = READ_BIT(RCC->CCIPR, RCC_CCIPR_TIM1SEL);
1071:Drivers/STM32G0xx_HAL_Driver/Src/stm32g0xx_hal_rcc_ex.c **** 
1072:Drivers/STM32G0xx_HAL_Driver/Src/stm32g0xx_hal_rcc_ex.c ****         if (srcclk == RCC_TIM1CLKSOURCE_PLL) /* PLL ? */
1073:Drivers/STM32G0xx_HAL_Driver/Src/stm32g0xx_hal_rcc_ex.c ****         {
1074:Drivers/STM32G0xx_HAL_Driver/Src/stm32g0xx_hal_rcc_ex.c ****           if (__HAL_RCC_GET_PLLCLKOUT_CONFIG(RCC_PLLQCLK) != 0U)
1075:Drivers/STM32G0xx_HAL_Driver/Src/stm32g0xx_hal_rcc_ex.c ****           {
ARM GAS  C:\Users\SOLDER~1\AppData\Local\Temp\ccUUcBce.s 			page 45


1076:Drivers/STM32G0xx_HAL_Driver/Src/stm32g0xx_hal_rcc_ex.c ****             /* f(PLLQ) = f(VCO input) * PLLN / PLLQ */
1077:Drivers/STM32G0xx_HAL_Driver/Src/stm32g0xx_hal_rcc_ex.c ****             plln = READ_BIT(RCC->PLLCFGR, RCC_PLLCFGR_PLLN) >> RCC_PLLCFGR_PLLN_Pos;
1078:Drivers/STM32G0xx_HAL_Driver/Src/stm32g0xx_hal_rcc_ex.c ****             frequency = (pllvco * plln) / ((READ_BIT(RCC->PLLCFGR, RCC_PLLCFGR_PLLQ) >> RCC_PLLCFGR
1079:Drivers/STM32G0xx_HAL_Driver/Src/stm32g0xx_hal_rcc_ex.c ****           }
1080:Drivers/STM32G0xx_HAL_Driver/Src/stm32g0xx_hal_rcc_ex.c ****         }
1081:Drivers/STM32G0xx_HAL_Driver/Src/stm32g0xx_hal_rcc_ex.c ****         else if (srcclk == RCC_TIM1CLKSOURCE_PCLK1) /* PCLK1 ? */
1082:Drivers/STM32G0xx_HAL_Driver/Src/stm32g0xx_hal_rcc_ex.c ****         {
1083:Drivers/STM32G0xx_HAL_Driver/Src/stm32g0xx_hal_rcc_ex.c ****           frequency = HAL_RCC_GetPCLK1Freq();
1084:Drivers/STM32G0xx_HAL_Driver/Src/stm32g0xx_hal_rcc_ex.c ****         }
1085:Drivers/STM32G0xx_HAL_Driver/Src/stm32g0xx_hal_rcc_ex.c ****         else /* No clock source */
1086:Drivers/STM32G0xx_HAL_Driver/Src/stm32g0xx_hal_rcc_ex.c ****         {
1087:Drivers/STM32G0xx_HAL_Driver/Src/stm32g0xx_hal_rcc_ex.c ****           /* Nothing to do as frequency already initialized to 0U */
1088:Drivers/STM32G0xx_HAL_Driver/Src/stm32g0xx_hal_rcc_ex.c ****         }
1089:Drivers/STM32G0xx_HAL_Driver/Src/stm32g0xx_hal_rcc_ex.c ****         break;
1090:Drivers/STM32G0xx_HAL_Driver/Src/stm32g0xx_hal_rcc_ex.c **** #endif /* RCC_CCIPR_TIM1SEL */
1091:Drivers/STM32G0xx_HAL_Driver/Src/stm32g0xx_hal_rcc_ex.c **** 
1092:Drivers/STM32G0xx_HAL_Driver/Src/stm32g0xx_hal_rcc_ex.c **** #if defined(RCC_CCIPR_TIM15SEL)
1093:Drivers/STM32G0xx_HAL_Driver/Src/stm32g0xx_hal_rcc_ex.c ****       case RCC_PERIPHCLK_TIM15:
1094:Drivers/STM32G0xx_HAL_Driver/Src/stm32g0xx_hal_rcc_ex.c **** 
1095:Drivers/STM32G0xx_HAL_Driver/Src/stm32g0xx_hal_rcc_ex.c ****         srcclk = READ_BIT(RCC->CCIPR, RCC_CCIPR_TIM15SEL);
1096:Drivers/STM32G0xx_HAL_Driver/Src/stm32g0xx_hal_rcc_ex.c **** 
1097:Drivers/STM32G0xx_HAL_Driver/Src/stm32g0xx_hal_rcc_ex.c ****         if (srcclk == RCC_TIM15CLKSOURCE_PLL) /* PLL ? */
1098:Drivers/STM32G0xx_HAL_Driver/Src/stm32g0xx_hal_rcc_ex.c ****         {
1099:Drivers/STM32G0xx_HAL_Driver/Src/stm32g0xx_hal_rcc_ex.c ****           if (__HAL_RCC_GET_PLLCLKOUT_CONFIG(RCC_PLLQCLK) != 0U)
1100:Drivers/STM32G0xx_HAL_Driver/Src/stm32g0xx_hal_rcc_ex.c ****           {
1101:Drivers/STM32G0xx_HAL_Driver/Src/stm32g0xx_hal_rcc_ex.c ****             /* f(PLLQ) = f(VCO input) * PLLN / PLLQ */
1102:Drivers/STM32G0xx_HAL_Driver/Src/stm32g0xx_hal_rcc_ex.c ****             plln = READ_BIT(RCC->PLLCFGR, RCC_PLLCFGR_PLLN) >> RCC_PLLCFGR_PLLN_Pos;
1103:Drivers/STM32G0xx_HAL_Driver/Src/stm32g0xx_hal_rcc_ex.c ****             frequency = (pllvco * plln) / ((READ_BIT(RCC->PLLCFGR, RCC_PLLCFGR_PLLQ) >> RCC_PLLCFGR
1104:Drivers/STM32G0xx_HAL_Driver/Src/stm32g0xx_hal_rcc_ex.c ****           }
1105:Drivers/STM32G0xx_HAL_Driver/Src/stm32g0xx_hal_rcc_ex.c ****         }
1106:Drivers/STM32G0xx_HAL_Driver/Src/stm32g0xx_hal_rcc_ex.c ****         else if (srcclk == RCC_TIM15CLKSOURCE_PCLK1) /* PCLK1 ? */
1107:Drivers/STM32G0xx_HAL_Driver/Src/stm32g0xx_hal_rcc_ex.c ****         {
1108:Drivers/STM32G0xx_HAL_Driver/Src/stm32g0xx_hal_rcc_ex.c ****           frequency = HAL_RCC_GetPCLK1Freq();
1109:Drivers/STM32G0xx_HAL_Driver/Src/stm32g0xx_hal_rcc_ex.c ****         }
1110:Drivers/STM32G0xx_HAL_Driver/Src/stm32g0xx_hal_rcc_ex.c ****         else /* No clock source */
1111:Drivers/STM32G0xx_HAL_Driver/Src/stm32g0xx_hal_rcc_ex.c ****         {
1112:Drivers/STM32G0xx_HAL_Driver/Src/stm32g0xx_hal_rcc_ex.c ****           /* Nothing to do as frequency already initialized to 0U */
1113:Drivers/STM32G0xx_HAL_Driver/Src/stm32g0xx_hal_rcc_ex.c ****         }
1114:Drivers/STM32G0xx_HAL_Driver/Src/stm32g0xx_hal_rcc_ex.c ****         break;
1115:Drivers/STM32G0xx_HAL_Driver/Src/stm32g0xx_hal_rcc_ex.c **** #endif /* RCC_CCIPR_TIM15SEL */
1116:Drivers/STM32G0xx_HAL_Driver/Src/stm32g0xx_hal_rcc_ex.c **** 
1117:Drivers/STM32G0xx_HAL_Driver/Src/stm32g0xx_hal_rcc_ex.c **** #if defined(RCC_CCIPR2_USBSEL)
1118:Drivers/STM32G0xx_HAL_Driver/Src/stm32g0xx_hal_rcc_ex.c ****       case RCC_PERIPHCLK_USB:
1119:Drivers/STM32G0xx_HAL_Driver/Src/stm32g0xx_hal_rcc_ex.c **** 
1120:Drivers/STM32G0xx_HAL_Driver/Src/stm32g0xx_hal_rcc_ex.c ****         srcclk = READ_BIT(RCC->CCIPR2, RCC_CCIPR2_USBSEL);
1121:Drivers/STM32G0xx_HAL_Driver/Src/stm32g0xx_hal_rcc_ex.c **** 
1122:Drivers/STM32G0xx_HAL_Driver/Src/stm32g0xx_hal_rcc_ex.c ****         if (srcclk == RCC_USBCLKSOURCE_PLL) /* PLL ? */
1123:Drivers/STM32G0xx_HAL_Driver/Src/stm32g0xx_hal_rcc_ex.c ****         {
1124:Drivers/STM32G0xx_HAL_Driver/Src/stm32g0xx_hal_rcc_ex.c ****           if (__HAL_RCC_GET_PLLCLKOUT_CONFIG(RCC_PLLQCLK) != 0U)
1125:Drivers/STM32G0xx_HAL_Driver/Src/stm32g0xx_hal_rcc_ex.c ****           {
1126:Drivers/STM32G0xx_HAL_Driver/Src/stm32g0xx_hal_rcc_ex.c ****             /* f(PLLQ) = f(VCO input) * PLLN / PLLQ */
1127:Drivers/STM32G0xx_HAL_Driver/Src/stm32g0xx_hal_rcc_ex.c ****             plln = READ_BIT(RCC->PLLCFGR, RCC_PLLCFGR_PLLN) >> RCC_PLLCFGR_PLLN_Pos;
1128:Drivers/STM32G0xx_HAL_Driver/Src/stm32g0xx_hal_rcc_ex.c ****             frequency = (pllvco * plln) / ((READ_BIT(RCC->PLLCFGR, RCC_PLLCFGR_PLLQ) >> RCC_PLLCFGR
1129:Drivers/STM32G0xx_HAL_Driver/Src/stm32g0xx_hal_rcc_ex.c ****           }
1130:Drivers/STM32G0xx_HAL_Driver/Src/stm32g0xx_hal_rcc_ex.c ****         }
1131:Drivers/STM32G0xx_HAL_Driver/Src/stm32g0xx_hal_rcc_ex.c **** #if defined(RCC_HSI48_SUPPORT)
1132:Drivers/STM32G0xx_HAL_Driver/Src/stm32g0xx_hal_rcc_ex.c ****         else if (srcclk == RCC_USBCLKSOURCE_HSI48) /* HSI48 ? */
ARM GAS  C:\Users\SOLDER~1\AppData\Local\Temp\ccUUcBce.s 			page 46


1133:Drivers/STM32G0xx_HAL_Driver/Src/stm32g0xx_hal_rcc_ex.c ****         {
1134:Drivers/STM32G0xx_HAL_Driver/Src/stm32g0xx_hal_rcc_ex.c ****           if ((HAL_IS_BIT_SET(RCC->CR, RCC_CR_HSI48RDY)) && (srcclk == RCC_USBCLKSOURCE_HSI48))
1135:Drivers/STM32G0xx_HAL_Driver/Src/stm32g0xx_hal_rcc_ex.c ****           {
1136:Drivers/STM32G0xx_HAL_Driver/Src/stm32g0xx_hal_rcc_ex.c ****             frequency = HSI48_VALUE;
1137:Drivers/STM32G0xx_HAL_Driver/Src/stm32g0xx_hal_rcc_ex.c ****           }
1138:Drivers/STM32G0xx_HAL_Driver/Src/stm32g0xx_hal_rcc_ex.c ****         }
1139:Drivers/STM32G0xx_HAL_Driver/Src/stm32g0xx_hal_rcc_ex.c **** #endif /* RCC_HSI48_SUPPORT */
1140:Drivers/STM32G0xx_HAL_Driver/Src/stm32g0xx_hal_rcc_ex.c ****         else if (srcclk == RCC_USBCLKSOURCE_HSE)
1141:Drivers/STM32G0xx_HAL_Driver/Src/stm32g0xx_hal_rcc_ex.c ****         {
1142:Drivers/STM32G0xx_HAL_Driver/Src/stm32g0xx_hal_rcc_ex.c ****           if ((HAL_IS_BIT_SET(RCC->CR, RCC_CR_HSERDY)) && (srcclk == RCC_USBCLKSOURCE_HSE))
1143:Drivers/STM32G0xx_HAL_Driver/Src/stm32g0xx_hal_rcc_ex.c ****           {
1144:Drivers/STM32G0xx_HAL_Driver/Src/stm32g0xx_hal_rcc_ex.c ****             frequency = HSE_VALUE;
1145:Drivers/STM32G0xx_HAL_Driver/Src/stm32g0xx_hal_rcc_ex.c ****           }
1146:Drivers/STM32G0xx_HAL_Driver/Src/stm32g0xx_hal_rcc_ex.c ****         }
1147:Drivers/STM32G0xx_HAL_Driver/Src/stm32g0xx_hal_rcc_ex.c ****         else /* No clock source */
1148:Drivers/STM32G0xx_HAL_Driver/Src/stm32g0xx_hal_rcc_ex.c ****         {
1149:Drivers/STM32G0xx_HAL_Driver/Src/stm32g0xx_hal_rcc_ex.c ****           /* Nothing to do as frequency already initialized to 0U */
1150:Drivers/STM32G0xx_HAL_Driver/Src/stm32g0xx_hal_rcc_ex.c ****         }
1151:Drivers/STM32G0xx_HAL_Driver/Src/stm32g0xx_hal_rcc_ex.c ****         break;
1152:Drivers/STM32G0xx_HAL_Driver/Src/stm32g0xx_hal_rcc_ex.c **** #endif /* RCC_CCIPR2_USBSEL */
1153:Drivers/STM32G0xx_HAL_Driver/Src/stm32g0xx_hal_rcc_ex.c **** 
1154:Drivers/STM32G0xx_HAL_Driver/Src/stm32g0xx_hal_rcc_ex.c **** #if defined(RCC_CCIPR2_FDCANSEL)
1155:Drivers/STM32G0xx_HAL_Driver/Src/stm32g0xx_hal_rcc_ex.c ****       case RCC_PERIPHCLK_FDCAN:
1156:Drivers/STM32G0xx_HAL_Driver/Src/stm32g0xx_hal_rcc_ex.c **** 
1157:Drivers/STM32G0xx_HAL_Driver/Src/stm32g0xx_hal_rcc_ex.c ****         srcclk = READ_BIT(RCC->CCIPR2, RCC_CCIPR2_FDCANSEL);
1158:Drivers/STM32G0xx_HAL_Driver/Src/stm32g0xx_hal_rcc_ex.c **** 
1159:Drivers/STM32G0xx_HAL_Driver/Src/stm32g0xx_hal_rcc_ex.c ****         if (srcclk == RCC_FDCANCLKSOURCE_PLL) /* PLL ? */
1160:Drivers/STM32G0xx_HAL_Driver/Src/stm32g0xx_hal_rcc_ex.c ****         {
1161:Drivers/STM32G0xx_HAL_Driver/Src/stm32g0xx_hal_rcc_ex.c ****           if (__HAL_RCC_GET_PLLCLKOUT_CONFIG(RCC_PLLQCLK) != 0U)
1162:Drivers/STM32G0xx_HAL_Driver/Src/stm32g0xx_hal_rcc_ex.c ****           {
1163:Drivers/STM32G0xx_HAL_Driver/Src/stm32g0xx_hal_rcc_ex.c ****             /* f(PLLQ) = f(VCO input) * PLLN / PLLQ */
1164:Drivers/STM32G0xx_HAL_Driver/Src/stm32g0xx_hal_rcc_ex.c ****             plln = READ_BIT(RCC->PLLCFGR, RCC_PLLCFGR_PLLN) >> RCC_PLLCFGR_PLLN_Pos;
1165:Drivers/STM32G0xx_HAL_Driver/Src/stm32g0xx_hal_rcc_ex.c ****             frequency = (pllvco * plln) / ((READ_BIT(RCC->PLLCFGR, RCC_PLLCFGR_PLLQ) >> RCC_PLLCFGR
1166:Drivers/STM32G0xx_HAL_Driver/Src/stm32g0xx_hal_rcc_ex.c ****           }
1167:Drivers/STM32G0xx_HAL_Driver/Src/stm32g0xx_hal_rcc_ex.c ****         }
1168:Drivers/STM32G0xx_HAL_Driver/Src/stm32g0xx_hal_rcc_ex.c ****         else if (srcclk == RCC_FDCANCLKSOURCE_PCLK1) /* PCLK1 ? */
1169:Drivers/STM32G0xx_HAL_Driver/Src/stm32g0xx_hal_rcc_ex.c ****         {
1170:Drivers/STM32G0xx_HAL_Driver/Src/stm32g0xx_hal_rcc_ex.c ****           frequency = HAL_RCC_GetPCLK1Freq();
1171:Drivers/STM32G0xx_HAL_Driver/Src/stm32g0xx_hal_rcc_ex.c ****         }
1172:Drivers/STM32G0xx_HAL_Driver/Src/stm32g0xx_hal_rcc_ex.c ****         else if ((HAL_IS_BIT_SET(RCC->CR, RCC_CR_HSERDY)) && (srcclk == RCC_FDCANCLKSOURCE_HSE))
1173:Drivers/STM32G0xx_HAL_Driver/Src/stm32g0xx_hal_rcc_ex.c ****         {
1174:Drivers/STM32G0xx_HAL_Driver/Src/stm32g0xx_hal_rcc_ex.c ****           frequency = HSE_VALUE;
1175:Drivers/STM32G0xx_HAL_Driver/Src/stm32g0xx_hal_rcc_ex.c ****         }
1176:Drivers/STM32G0xx_HAL_Driver/Src/stm32g0xx_hal_rcc_ex.c ****         else /* No clock source */
1177:Drivers/STM32G0xx_HAL_Driver/Src/stm32g0xx_hal_rcc_ex.c ****         {
1178:Drivers/STM32G0xx_HAL_Driver/Src/stm32g0xx_hal_rcc_ex.c ****           /* Nothing to do as frequency already initialized to 0U */
1179:Drivers/STM32G0xx_HAL_Driver/Src/stm32g0xx_hal_rcc_ex.c ****         }
1180:Drivers/STM32G0xx_HAL_Driver/Src/stm32g0xx_hal_rcc_ex.c ****         break;
1181:Drivers/STM32G0xx_HAL_Driver/Src/stm32g0xx_hal_rcc_ex.c **** #endif /* RCC_CCIPR2_FDCANSEL */
1182:Drivers/STM32G0xx_HAL_Driver/Src/stm32g0xx_hal_rcc_ex.c **** 
1183:Drivers/STM32G0xx_HAL_Driver/Src/stm32g0xx_hal_rcc_ex.c ****       default:
1184:Drivers/STM32G0xx_HAL_Driver/Src/stm32g0xx_hal_rcc_ex.c ****         break;
 1435              		.loc 1 1184 9
 1436 0222 00F0DEFB 		bl	.L126	@ far jump
 1437              	.L66:
 704:Drivers/STM32G0xx_HAL_Driver/Src/stm32g0xx_hal_rcc_ex.c **** 
 1438              		.loc 1 704 18
ARM GAS  C:\Users\SOLDER~1\AppData\Local\Temp\ccUUcBce.s 			page 47


 1439 0226 5E4B     		ldr	r3, .L144
 1440 0228 5B6D     		ldr	r3, [r3, #84]
 704:Drivers/STM32G0xx_HAL_Driver/Src/stm32g0xx_hal_rcc_ex.c **** 
 1441              		.loc 1 704 16
 1442 022a 0322     		movs	r2, #3
 1443 022c 1340     		ands	r3, r2
 1444 022e FB60     		str	r3, [r7, #12]
 706:Drivers/STM32G0xx_HAL_Driver/Src/stm32g0xx_hal_rcc_ex.c ****         {
 1445              		.loc 1 706 12
 1446 0230 FB68     		ldr	r3, [r7, #12]
 1447 0232 002B     		cmp	r3, #0
 1448 0234 05D1     		bne	.L68
 708:Drivers/STM32G0xx_HAL_Driver/Src/stm32g0xx_hal_rcc_ex.c ****         }
 1449              		.loc 1 708 23
 1450 0236 FFF7FEFF 		bl	HAL_RCC_GetPCLK1Freq
 1451 023a 0300     		movs	r3, r0
 1452 023c 7B61     		str	r3, [r7, #20]
 727:Drivers/STM32G0xx_HAL_Driver/Src/stm32g0xx_hal_rcc_ex.c **** #if defined(RCC_CCIPR_USART2SEL)
 1453              		.loc 1 727 9
 1454 023e 00F0D2FB 		bl	.L127	@ far jump
 1455              	.L68:
 710:Drivers/STM32G0xx_HAL_Driver/Src/stm32g0xx_hal_rcc_ex.c ****         {
 1456              		.loc 1 710 17
 1457 0242 FB68     		ldr	r3, [r7, #12]
 1458 0244 012B     		cmp	r3, #1
 1459 0246 05D1     		bne	.L70
 712:Drivers/STM32G0xx_HAL_Driver/Src/stm32g0xx_hal_rcc_ex.c ****         }
 1460              		.loc 1 712 23
 1461 0248 FFF7FEFF 		bl	HAL_RCC_GetSysClockFreq
 1462 024c 0300     		movs	r3, r0
 1463 024e 7B61     		str	r3, [r7, #20]
 727:Drivers/STM32G0xx_HAL_Driver/Src/stm32g0xx_hal_rcc_ex.c **** #if defined(RCC_CCIPR_USART2SEL)
 1464              		.loc 1 727 9
 1465 0250 00F0C9FB 		bl	.L127	@ far jump
 1466              	.L70:
 714:Drivers/STM32G0xx_HAL_Driver/Src/stm32g0xx_hal_rcc_ex.c ****         {
 1467              		.loc 1 714 19
 1468 0254 524B     		ldr	r3, .L144
 1469 0256 1A68     		ldr	r2, [r3]
 1470 0258 8023     		movs	r3, #128
 1471 025a DB00     		lsls	r3, r3, #3
 1472 025c 1A40     		ands	r2, r3
 714:Drivers/STM32G0xx_HAL_Driver/Src/stm32g0xx_hal_rcc_ex.c ****         {
 1473              		.loc 1 714 17
 1474 025e 8023     		movs	r3, #128
 1475 0260 DB00     		lsls	r3, r3, #3
 1476 0262 9A42     		cmp	r2, r3
 1477 0264 06D1     		bne	.L71
 714:Drivers/STM32G0xx_HAL_Driver/Src/stm32g0xx_hal_rcc_ex.c ****         {
 1478              		.loc 1 714 59 discriminator 1
 1479 0266 FB68     		ldr	r3, [r7, #12]
 1480 0268 022B     		cmp	r3, #2
 1481 026a 03D1     		bne	.L71
 716:Drivers/STM32G0xx_HAL_Driver/Src/stm32g0xx_hal_rcc_ex.c ****         }
 1482              		.loc 1 716 21
 1483 026c 4E4B     		ldr	r3, .L144+8
 1484 026e 7B61     		str	r3, [r7, #20]
ARM GAS  C:\Users\SOLDER~1\AppData\Local\Temp\ccUUcBce.s 			page 48


 727:Drivers/STM32G0xx_HAL_Driver/Src/stm32g0xx_hal_rcc_ex.c **** #if defined(RCC_CCIPR_USART2SEL)
 1485              		.loc 1 727 9
 1486 0270 00F0B9FB 		bl	.L127	@ far jump
 1487              	.L71:
 718:Drivers/STM32G0xx_HAL_Driver/Src/stm32g0xx_hal_rcc_ex.c ****         {
 1488              		.loc 1 718 19
 1489 0274 4A4B     		ldr	r3, .L144
 1490 0276 DB6D     		ldr	r3, [r3, #92]
 1491 0278 0222     		movs	r2, #2
 1492 027a 1340     		ands	r3, r2
 718:Drivers/STM32G0xx_HAL_Driver/Src/stm32g0xx_hal_rcc_ex.c ****         {
 1493              		.loc 1 718 17
 1494 027c 022B     		cmp	r3, #2
 1495 027e 01D0     		beq	.LCB1207
 1496 0280 00F0B1FB 		bl	.L127	@far jump
 1497              	.LCB1207:
 718:Drivers/STM32G0xx_HAL_Driver/Src/stm32g0xx_hal_rcc_ex.c ****         {
 1498              		.loc 1 718 63 discriminator 1
 1499 0284 FB68     		ldr	r3, [r7, #12]
 1500 0286 032B     		cmp	r3, #3
 1501 0288 01D0     		beq	.LCB1210
 1502 028a 00F0ACFB 		bl	.L127	@far jump
 1503              	.LCB1210:
 720:Drivers/STM32G0xx_HAL_Driver/Src/stm32g0xx_hal_rcc_ex.c ****         }
 1504              		.loc 1 720 21
 1505 028e 8023     		movs	r3, #128
 1506 0290 1B02     		lsls	r3, r3, #8
 1507 0292 7B61     		str	r3, [r7, #20]
 727:Drivers/STM32G0xx_HAL_Driver/Src/stm32g0xx_hal_rcc_ex.c **** #if defined(RCC_CCIPR_USART2SEL)
 1508              		.loc 1 727 9
 1509 0294 00F0A7FB 		bl	.L127	@ far jump
 1510              	.L65:
 731:Drivers/STM32G0xx_HAL_Driver/Src/stm32g0xx_hal_rcc_ex.c **** 
 1511              		.loc 1 731 18
 1512 0298 414B     		ldr	r3, .L144
 1513 029a 5B6D     		ldr	r3, [r3, #84]
 731:Drivers/STM32G0xx_HAL_Driver/Src/stm32g0xx_hal_rcc_ex.c **** 
 1514              		.loc 1 731 16
 1515 029c 0C22     		movs	r2, #12
 1516 029e 1340     		ands	r3, r2
 1517 02a0 FB60     		str	r3, [r7, #12]
 733:Drivers/STM32G0xx_HAL_Driver/Src/stm32g0xx_hal_rcc_ex.c ****         {
 1518              		.loc 1 733 12
 1519 02a2 FB68     		ldr	r3, [r7, #12]
 1520 02a4 002B     		cmp	r3, #0
 1521 02a6 05D1     		bne	.L72
 735:Drivers/STM32G0xx_HAL_Driver/Src/stm32g0xx_hal_rcc_ex.c ****         }
 1522              		.loc 1 735 23
 1523 02a8 FFF7FEFF 		bl	HAL_RCC_GetPCLK1Freq
 1524 02ac 0300     		movs	r3, r0
 1525 02ae 7B61     		str	r3, [r7, #20]
 754:Drivers/STM32G0xx_HAL_Driver/Src/stm32g0xx_hal_rcc_ex.c **** #endif /* RCC_CCIPR_USART2SEL */
 1526              		.loc 1 754 9
 1527 02b0 00F09BFB 		bl	.L128	@ far jump
 1528              	.L72:
 737:Drivers/STM32G0xx_HAL_Driver/Src/stm32g0xx_hal_rcc_ex.c ****         {
 1529              		.loc 1 737 17
ARM GAS  C:\Users\SOLDER~1\AppData\Local\Temp\ccUUcBce.s 			page 49


 1530 02b4 FB68     		ldr	r3, [r7, #12]
 1531 02b6 042B     		cmp	r3, #4
 1532 02b8 05D1     		bne	.L74
 739:Drivers/STM32G0xx_HAL_Driver/Src/stm32g0xx_hal_rcc_ex.c ****         }
 1533              		.loc 1 739 23
 1534 02ba FFF7FEFF 		bl	HAL_RCC_GetSysClockFreq
 1535 02be 0300     		movs	r3, r0
 1536 02c0 7B61     		str	r3, [r7, #20]
 754:Drivers/STM32G0xx_HAL_Driver/Src/stm32g0xx_hal_rcc_ex.c **** #endif /* RCC_CCIPR_USART2SEL */
 1537              		.loc 1 754 9
 1538 02c2 00F092FB 		bl	.L128	@ far jump
 1539              	.L74:
 741:Drivers/STM32G0xx_HAL_Driver/Src/stm32g0xx_hal_rcc_ex.c ****         {
 1540              		.loc 1 741 19
 1541 02c6 364B     		ldr	r3, .L144
 1542 02c8 1A68     		ldr	r2, [r3]
 1543 02ca 8023     		movs	r3, #128
 1544 02cc DB00     		lsls	r3, r3, #3
 1545 02ce 1A40     		ands	r2, r3
 741:Drivers/STM32G0xx_HAL_Driver/Src/stm32g0xx_hal_rcc_ex.c ****         {
 1546              		.loc 1 741 17
 1547 02d0 8023     		movs	r3, #128
 1548 02d2 DB00     		lsls	r3, r3, #3
 1549 02d4 9A42     		cmp	r2, r3
 1550 02d6 06D1     		bne	.L75
 741:Drivers/STM32G0xx_HAL_Driver/Src/stm32g0xx_hal_rcc_ex.c ****         {
 1551              		.loc 1 741 59 discriminator 1
 1552 02d8 FB68     		ldr	r3, [r7, #12]
 1553 02da 082B     		cmp	r3, #8
 1554 02dc 03D1     		bne	.L75
 743:Drivers/STM32G0xx_HAL_Driver/Src/stm32g0xx_hal_rcc_ex.c ****         }
 1555              		.loc 1 743 21
 1556 02de 324B     		ldr	r3, .L144+8
 1557 02e0 7B61     		str	r3, [r7, #20]
 754:Drivers/STM32G0xx_HAL_Driver/Src/stm32g0xx_hal_rcc_ex.c **** #endif /* RCC_CCIPR_USART2SEL */
 1558              		.loc 1 754 9
 1559 02e2 00F082FB 		bl	.L128	@ far jump
 1560              	.L75:
 745:Drivers/STM32G0xx_HAL_Driver/Src/stm32g0xx_hal_rcc_ex.c ****         {
 1561              		.loc 1 745 19
 1562 02e6 2E4B     		ldr	r3, .L144
 1563 02e8 DB6D     		ldr	r3, [r3, #92]
 1564 02ea 0222     		movs	r2, #2
 1565 02ec 1340     		ands	r3, r2
 745:Drivers/STM32G0xx_HAL_Driver/Src/stm32g0xx_hal_rcc_ex.c ****         {
 1566              		.loc 1 745 17
 1567 02ee 022B     		cmp	r3, #2
 1568 02f0 01D0     		beq	.LCB1266
 1569 02f2 00F07AFB 		bl	.L128	@far jump
 1570              	.LCB1266:
 745:Drivers/STM32G0xx_HAL_Driver/Src/stm32g0xx_hal_rcc_ex.c ****         {
 1571              		.loc 1 745 63 discriminator 1
 1572 02f6 FB68     		ldr	r3, [r7, #12]
 1573 02f8 0C2B     		cmp	r3, #12
 1574 02fa 01D0     		beq	.LCB1269
 1575 02fc 00F075FB 		bl	.L128	@far jump
 1576              	.LCB1269:
ARM GAS  C:\Users\SOLDER~1\AppData\Local\Temp\ccUUcBce.s 			page 50


 747:Drivers/STM32G0xx_HAL_Driver/Src/stm32g0xx_hal_rcc_ex.c ****         }
 1577              		.loc 1 747 21
 1578 0300 8023     		movs	r3, #128
 1579 0302 1B02     		lsls	r3, r3, #8
 1580 0304 7B61     		str	r3, [r7, #20]
 754:Drivers/STM32G0xx_HAL_Driver/Src/stm32g0xx_hal_rcc_ex.c **** #endif /* RCC_CCIPR_USART2SEL */
 1581              		.loc 1 754 9
 1582 0306 00F070FB 		bl	.L128	@ far jump
 1583              	.L64:
 760:Drivers/STM32G0xx_HAL_Driver/Src/stm32g0xx_hal_rcc_ex.c **** 
 1584              		.loc 1 760 18
 1585 030a 254B     		ldr	r3, .L144
 1586 030c 5B6D     		ldr	r3, [r3, #84]
 760:Drivers/STM32G0xx_HAL_Driver/Src/stm32g0xx_hal_rcc_ex.c **** 
 1587              		.loc 1 760 16
 1588 030e 3022     		movs	r2, #48
 1589 0310 1340     		ands	r3, r2
 1590 0312 FB60     		str	r3, [r7, #12]
 762:Drivers/STM32G0xx_HAL_Driver/Src/stm32g0xx_hal_rcc_ex.c ****         {
 1591              		.loc 1 762 12
 1592 0314 FB68     		ldr	r3, [r7, #12]
 1593 0316 002B     		cmp	r3, #0
 1594 0318 05D1     		bne	.L76
 764:Drivers/STM32G0xx_HAL_Driver/Src/stm32g0xx_hal_rcc_ex.c ****         }
 1595              		.loc 1 764 23
 1596 031a FFF7FEFF 		bl	HAL_RCC_GetPCLK1Freq
 1597 031e 0300     		movs	r3, r0
 1598 0320 7B61     		str	r3, [r7, #20]
 783:Drivers/STM32G0xx_HAL_Driver/Src/stm32g0xx_hal_rcc_ex.c **** #endif /* RCC_CCIPR_USART3SEL */
 1599              		.loc 1 783 9
 1600 0322 00F064FB 		bl	.L129	@ far jump
 1601              	.L76:
 766:Drivers/STM32G0xx_HAL_Driver/Src/stm32g0xx_hal_rcc_ex.c ****         {
 1602              		.loc 1 766 17
 1603 0326 FB68     		ldr	r3, [r7, #12]
 1604 0328 102B     		cmp	r3, #16
 1605 032a 05D1     		bne	.L78
 768:Drivers/STM32G0xx_HAL_Driver/Src/stm32g0xx_hal_rcc_ex.c ****         }
 1606              		.loc 1 768 23
 1607 032c FFF7FEFF 		bl	HAL_RCC_GetSysClockFreq
 1608 0330 0300     		movs	r3, r0
 1609 0332 7B61     		str	r3, [r7, #20]
 783:Drivers/STM32G0xx_HAL_Driver/Src/stm32g0xx_hal_rcc_ex.c **** #endif /* RCC_CCIPR_USART3SEL */
 1610              		.loc 1 783 9
 1611 0334 00F05BFB 		bl	.L129	@ far jump
 1612              	.L78:
 770:Drivers/STM32G0xx_HAL_Driver/Src/stm32g0xx_hal_rcc_ex.c ****         {
 1613              		.loc 1 770 19
 1614 0338 194B     		ldr	r3, .L144
 1615 033a 1A68     		ldr	r2, [r3]
 1616 033c 8023     		movs	r3, #128
 1617 033e DB00     		lsls	r3, r3, #3
 1618 0340 1A40     		ands	r2, r3
 770:Drivers/STM32G0xx_HAL_Driver/Src/stm32g0xx_hal_rcc_ex.c ****         {
 1619              		.loc 1 770 17
 1620 0342 8023     		movs	r3, #128
 1621 0344 DB00     		lsls	r3, r3, #3
ARM GAS  C:\Users\SOLDER~1\AppData\Local\Temp\ccUUcBce.s 			page 51


 1622 0346 9A42     		cmp	r2, r3
 1623 0348 06D1     		bne	.L79
 770:Drivers/STM32G0xx_HAL_Driver/Src/stm32g0xx_hal_rcc_ex.c ****         {
 1624              		.loc 1 770 59 discriminator 1
 1625 034a FB68     		ldr	r3, [r7, #12]
 1626 034c 202B     		cmp	r3, #32
 1627 034e 03D1     		bne	.L79
 772:Drivers/STM32G0xx_HAL_Driver/Src/stm32g0xx_hal_rcc_ex.c ****         }
 1628              		.loc 1 772 21
 1629 0350 154B     		ldr	r3, .L144+8
 1630 0352 7B61     		str	r3, [r7, #20]
 783:Drivers/STM32G0xx_HAL_Driver/Src/stm32g0xx_hal_rcc_ex.c **** #endif /* RCC_CCIPR_USART3SEL */
 1631              		.loc 1 783 9
 1632 0354 00F04BFB 		bl	.L129	@ far jump
 1633              	.L79:
 774:Drivers/STM32G0xx_HAL_Driver/Src/stm32g0xx_hal_rcc_ex.c ****         {
 1634              		.loc 1 774 19
 1635 0358 114B     		ldr	r3, .L144
 1636 035a DB6D     		ldr	r3, [r3, #92]
 1637 035c 0222     		movs	r2, #2
 1638 035e 1340     		ands	r3, r2
 774:Drivers/STM32G0xx_HAL_Driver/Src/stm32g0xx_hal_rcc_ex.c ****         {
 1639              		.loc 1 774 17
 1640 0360 022B     		cmp	r3, #2
 1641 0362 00D0     		beq	.LCB1325
 1642 0364 43E3     		b	.L129	@long jump
 1643              	.LCB1325:
 774:Drivers/STM32G0xx_HAL_Driver/Src/stm32g0xx_hal_rcc_ex.c ****         {
 1644              		.loc 1 774 63 discriminator 1
 1645 0366 FB68     		ldr	r3, [r7, #12]
 1646 0368 302B     		cmp	r3, #48
 1647 036a 00D0     		beq	.LCB1328
 1648 036c 3FE3     		b	.L129	@long jump
 1649              	.LCB1328:
 776:Drivers/STM32G0xx_HAL_Driver/Src/stm32g0xx_hal_rcc_ex.c ****         }
 1650              		.loc 1 776 21
 1651 036e 8023     		movs	r3, #128
 1652 0370 1B02     		lsls	r3, r3, #8
 1653 0372 7B61     		str	r3, [r7, #20]
 783:Drivers/STM32G0xx_HAL_Driver/Src/stm32g0xx_hal_rcc_ex.c **** #endif /* RCC_CCIPR_USART3SEL */
 1654              		.loc 1 783 9
 1655 0374 3BE3     		b	.L129
 1656              	.L53:
 789:Drivers/STM32G0xx_HAL_Driver/Src/stm32g0xx_hal_rcc_ex.c **** 
 1657              		.loc 1 789 18
 1658 0376 0A4B     		ldr	r3, .L144
 1659 0378 5B6D     		ldr	r3, [r3, #84]
 789:Drivers/STM32G0xx_HAL_Driver/Src/stm32g0xx_hal_rcc_ex.c **** 
 1660              		.loc 1 789 16
 1661 037a 4022     		movs	r2, #64
 1662 037c 1340     		ands	r3, r2
 1663 037e FB60     		str	r3, [r7, #12]
 791:Drivers/STM32G0xx_HAL_Driver/Src/stm32g0xx_hal_rcc_ex.c ****         {
 1664              		.loc 1 791 14
 1665 0380 074B     		ldr	r3, .L144
 1666 0382 1A68     		ldr	r2, [r3]
 1667 0384 8023     		movs	r3, #128
ARM GAS  C:\Users\SOLDER~1\AppData\Local\Temp\ccUUcBce.s 			page 52


 1668 0386 DB00     		lsls	r3, r3, #3
 1669 0388 1A40     		ands	r2, r3
 791:Drivers/STM32G0xx_HAL_Driver/Src/stm32g0xx_hal_rcc_ex.c ****         {
 1670              		.loc 1 791 12
 1671 038a 8023     		movs	r3, #128
 1672 038c DB00     		lsls	r3, r3, #3
 1673 038e 9A42     		cmp	r2, r3
 1674 0390 12D1     		bne	.L80
 791:Drivers/STM32G0xx_HAL_Driver/Src/stm32g0xx_hal_rcc_ex.c ****         {
 1675              		.loc 1 791 54 discriminator 1
 1676 0392 FB68     		ldr	r3, [r7, #12]
 1677 0394 002B     		cmp	r3, #0
 1678 0396 0FD1     		bne	.L80
 793:Drivers/STM32G0xx_HAL_Driver/Src/stm32g0xx_hal_rcc_ex.c ****         }
 1679              		.loc 1 793 21
 1680 0398 064B     		ldr	r3, .L144+20
 1681 039a 7B61     		str	r3, [r7, #20]
 804:Drivers/STM32G0xx_HAL_Driver/Src/stm32g0xx_hal_rcc_ex.c **** #endif /* RCC_CCIPR_CECSEL */
 1682              		.loc 1 804 9
 1683 039c 29E3     		b	.L130
 1684              	.L145:
 1685 039e C046     		.align	2
 1686              	.L144:
 1687 03a0 00100240 		.word	1073876992
 1688 03a4 90D00300 		.word	250000
 1689 03a8 0024F400 		.word	16000000
 1690 03ac 00127A00 		.word	8000000
 1691 03b0 00000000 		.word	.L62
 1692 03b4 12800000 		.word	32786
 1693              	.L80:
 795:Drivers/STM32G0xx_HAL_Driver/Src/stm32g0xx_hal_rcc_ex.c ****         {
 1694              		.loc 1 795 19
 1695 03b8 CB4B     		ldr	r3, .L146
 1696 03ba DB6D     		ldr	r3, [r3, #92]
 1697 03bc 0222     		movs	r2, #2
 1698 03be 1340     		ands	r3, r2
 795:Drivers/STM32G0xx_HAL_Driver/Src/stm32g0xx_hal_rcc_ex.c ****         {
 1699              		.loc 1 795 17
 1700 03c0 022B     		cmp	r3, #2
 1701 03c2 00D0     		beq	.LCB1375
 1702 03c4 15E3     		b	.L130	@long jump
 1703              	.LCB1375:
 795:Drivers/STM32G0xx_HAL_Driver/Src/stm32g0xx_hal_rcc_ex.c ****         {
 1704              		.loc 1 795 63 discriminator 1
 1705 03c6 FB68     		ldr	r3, [r7, #12]
 1706 03c8 402B     		cmp	r3, #64
 1707 03ca 00D0     		beq	.LCB1378
 1708 03cc 11E3     		b	.L130	@long jump
 1709              	.LCB1378:
 797:Drivers/STM32G0xx_HAL_Driver/Src/stm32g0xx_hal_rcc_ex.c ****         }
 1710              		.loc 1 797 21
 1711 03ce 8023     		movs	r3, #128
 1712 03d0 1B02     		lsls	r3, r3, #8
 1713 03d2 7B61     		str	r3, [r7, #20]
 804:Drivers/STM32G0xx_HAL_Driver/Src/stm32g0xx_hal_rcc_ex.c **** #endif /* RCC_CCIPR_CECSEL */
 1714              		.loc 1 804 9
 1715 03d4 0DE3     		b	.L130
ARM GAS  C:\Users\SOLDER~1\AppData\Local\Temp\ccUUcBce.s 			page 53


 1716              	.L63:
 810:Drivers/STM32G0xx_HAL_Driver/Src/stm32g0xx_hal_rcc_ex.c **** 
 1717              		.loc 1 810 18
 1718 03d6 C44B     		ldr	r3, .L146
 1719 03d8 5A6D     		ldr	r2, [r3, #84]
 810:Drivers/STM32G0xx_HAL_Driver/Src/stm32g0xx_hal_rcc_ex.c **** 
 1720              		.loc 1 810 16
 1721 03da C023     		movs	r3, #192
 1722 03dc 1B01     		lsls	r3, r3, #4
 1723 03de 1340     		ands	r3, r2
 1724 03e0 FB60     		str	r3, [r7, #12]
 812:Drivers/STM32G0xx_HAL_Driver/Src/stm32g0xx_hal_rcc_ex.c ****         {
 1725              		.loc 1 812 12
 1726 03e2 FB68     		ldr	r3, [r7, #12]
 1727 03e4 002B     		cmp	r3, #0
 1728 03e6 04D1     		bne	.L82
 814:Drivers/STM32G0xx_HAL_Driver/Src/stm32g0xx_hal_rcc_ex.c ****         }
 1729              		.loc 1 814 23
 1730 03e8 FFF7FEFF 		bl	HAL_RCC_GetPCLK1Freq
 1731 03ec 0300     		movs	r3, r0
 1732 03ee 7B61     		str	r3, [r7, #20]
 833:Drivers/STM32G0xx_HAL_Driver/Src/stm32g0xx_hal_rcc_ex.c **** #endif /* RCC_CCIPR_LPUART1SEL */
 1733              		.loc 1 833 9
 1734 03f0 01E3     		b	.L131
 1735              	.L82:
 816:Drivers/STM32G0xx_HAL_Driver/Src/stm32g0xx_hal_rcc_ex.c ****         {
 1736              		.loc 1 816 17
 1737 03f2 FA68     		ldr	r2, [r7, #12]
 1738 03f4 8023     		movs	r3, #128
 1739 03f6 DB00     		lsls	r3, r3, #3
 1740 03f8 9A42     		cmp	r2, r3
 1741 03fa 04D1     		bne	.L84
 818:Drivers/STM32G0xx_HAL_Driver/Src/stm32g0xx_hal_rcc_ex.c ****         }
 1742              		.loc 1 818 23
 1743 03fc FFF7FEFF 		bl	HAL_RCC_GetSysClockFreq
 1744 0400 0300     		movs	r3, r0
 1745 0402 7B61     		str	r3, [r7, #20]
 833:Drivers/STM32G0xx_HAL_Driver/Src/stm32g0xx_hal_rcc_ex.c **** #endif /* RCC_CCIPR_LPUART1SEL */
 1746              		.loc 1 833 9
 1747 0404 F7E2     		b	.L131
 1748              	.L84:
 820:Drivers/STM32G0xx_HAL_Driver/Src/stm32g0xx_hal_rcc_ex.c ****         {
 1749              		.loc 1 820 19
 1750 0406 B84B     		ldr	r3, .L146
 1751 0408 1A68     		ldr	r2, [r3]
 1752 040a 8023     		movs	r3, #128
 1753 040c DB00     		lsls	r3, r3, #3
 1754 040e 1A40     		ands	r2, r3
 820:Drivers/STM32G0xx_HAL_Driver/Src/stm32g0xx_hal_rcc_ex.c ****         {
 1755              		.loc 1 820 17
 1756 0410 8023     		movs	r3, #128
 1757 0412 DB00     		lsls	r3, r3, #3
 1758 0414 9A42     		cmp	r2, r3
 1759 0416 07D1     		bne	.L85
 820:Drivers/STM32G0xx_HAL_Driver/Src/stm32g0xx_hal_rcc_ex.c ****         {
 1760              		.loc 1 820 59 discriminator 1
 1761 0418 FA68     		ldr	r2, [r7, #12]
ARM GAS  C:\Users\SOLDER~1\AppData\Local\Temp\ccUUcBce.s 			page 54


 1762 041a 8023     		movs	r3, #128
 1763 041c 1B01     		lsls	r3, r3, #4
 1764 041e 9A42     		cmp	r2, r3
 1765 0420 02D1     		bne	.L85
 822:Drivers/STM32G0xx_HAL_Driver/Src/stm32g0xx_hal_rcc_ex.c ****         }
 1766              		.loc 1 822 21
 1767 0422 B24B     		ldr	r3, .L146+4
 1768 0424 7B61     		str	r3, [r7, #20]
 833:Drivers/STM32G0xx_HAL_Driver/Src/stm32g0xx_hal_rcc_ex.c **** #endif /* RCC_CCIPR_LPUART1SEL */
 1769              		.loc 1 833 9
 1770 0426 E6E2     		b	.L131
 1771              	.L85:
 824:Drivers/STM32G0xx_HAL_Driver/Src/stm32g0xx_hal_rcc_ex.c ****         {
 1772              		.loc 1 824 19
 1773 0428 AF4B     		ldr	r3, .L146
 1774 042a DB6D     		ldr	r3, [r3, #92]
 1775 042c 0222     		movs	r2, #2
 1776 042e 1340     		ands	r3, r2
 824:Drivers/STM32G0xx_HAL_Driver/Src/stm32g0xx_hal_rcc_ex.c ****         {
 1777              		.loc 1 824 17
 1778 0430 022B     		cmp	r3, #2
 1779 0432 00D0     		beq	.LCB1439
 1780 0434 DFE2     		b	.L131	@long jump
 1781              	.LCB1439:
 824:Drivers/STM32G0xx_HAL_Driver/Src/stm32g0xx_hal_rcc_ex.c ****         {
 1782              		.loc 1 824 63 discriminator 1
 1783 0436 FA68     		ldr	r2, [r7, #12]
 1784 0438 C023     		movs	r3, #192
 1785 043a 1B01     		lsls	r3, r3, #4
 1786 043c 9A42     		cmp	r2, r3
 1787 043e 00D0     		beq	.LCB1444
 1788 0440 D9E2     		b	.L131	@long jump
 1789              	.LCB1444:
 826:Drivers/STM32G0xx_HAL_Driver/Src/stm32g0xx_hal_rcc_ex.c ****         }
 1790              		.loc 1 826 21
 1791 0442 8023     		movs	r3, #128
 1792 0444 1B02     		lsls	r3, r3, #8
 1793 0446 7B61     		str	r3, [r7, #20]
 833:Drivers/STM32G0xx_HAL_Driver/Src/stm32g0xx_hal_rcc_ex.c **** #endif /* RCC_CCIPR_LPUART1SEL */
 1794              		.loc 1 833 9
 1795 0448 D5E2     		b	.L131
 1796              	.L56:
 839:Drivers/STM32G0xx_HAL_Driver/Src/stm32g0xx_hal_rcc_ex.c **** 
 1797              		.loc 1 839 18
 1798 044a A74B     		ldr	r3, .L146
 1799 044c 5A6D     		ldr	r2, [r3, #84]
 839:Drivers/STM32G0xx_HAL_Driver/Src/stm32g0xx_hal_rcc_ex.c **** 
 1800              		.loc 1 839 16
 1801 044e C023     		movs	r3, #192
 1802 0450 9B00     		lsls	r3, r3, #2
 1803 0452 1340     		ands	r3, r2
 1804 0454 FB60     		str	r3, [r7, #12]
 841:Drivers/STM32G0xx_HAL_Driver/Src/stm32g0xx_hal_rcc_ex.c ****         {
 1805              		.loc 1 841 12
 1806 0456 FB68     		ldr	r3, [r7, #12]
 1807 0458 002B     		cmp	r3, #0
 1808 045a 04D1     		bne	.L86
ARM GAS  C:\Users\SOLDER~1\AppData\Local\Temp\ccUUcBce.s 			page 55


 843:Drivers/STM32G0xx_HAL_Driver/Src/stm32g0xx_hal_rcc_ex.c ****         }
 1809              		.loc 1 843 23
 1810 045c FFF7FEFF 		bl	HAL_RCC_GetPCLK1Freq
 1811 0460 0300     		movs	r3, r0
 1812 0462 7B61     		str	r3, [r7, #20]
 862:Drivers/STM32G0xx_HAL_Driver/Src/stm32g0xx_hal_rcc_ex.c **** #endif /* RCC_CCIPR_LPUART2SEL */
 1813              		.loc 1 862 9
 1814 0464 C9E2     		b	.L132
 1815              	.L86:
 845:Drivers/STM32G0xx_HAL_Driver/Src/stm32g0xx_hal_rcc_ex.c ****         {
 1816              		.loc 1 845 17
 1817 0466 FA68     		ldr	r2, [r7, #12]
 1818 0468 8023     		movs	r3, #128
 1819 046a 5B00     		lsls	r3, r3, #1
 1820 046c 9A42     		cmp	r2, r3
 1821 046e 04D1     		bne	.L88
 847:Drivers/STM32G0xx_HAL_Driver/Src/stm32g0xx_hal_rcc_ex.c ****         }
 1822              		.loc 1 847 23
 1823 0470 FFF7FEFF 		bl	HAL_RCC_GetSysClockFreq
 1824 0474 0300     		movs	r3, r0
 1825 0476 7B61     		str	r3, [r7, #20]
 862:Drivers/STM32G0xx_HAL_Driver/Src/stm32g0xx_hal_rcc_ex.c **** #endif /* RCC_CCIPR_LPUART2SEL */
 1826              		.loc 1 862 9
 1827 0478 BFE2     		b	.L132
 1828              	.L88:
 849:Drivers/STM32G0xx_HAL_Driver/Src/stm32g0xx_hal_rcc_ex.c ****         {
 1829              		.loc 1 849 19
 1830 047a 9B4B     		ldr	r3, .L146
 1831 047c 1A68     		ldr	r2, [r3]
 1832 047e 8023     		movs	r3, #128
 1833 0480 DB00     		lsls	r3, r3, #3
 1834 0482 1A40     		ands	r2, r3
 849:Drivers/STM32G0xx_HAL_Driver/Src/stm32g0xx_hal_rcc_ex.c ****         {
 1835              		.loc 1 849 17
 1836 0484 8023     		movs	r3, #128
 1837 0486 DB00     		lsls	r3, r3, #3
 1838 0488 9A42     		cmp	r2, r3
 1839 048a 07D1     		bne	.L89
 849:Drivers/STM32G0xx_HAL_Driver/Src/stm32g0xx_hal_rcc_ex.c ****         {
 1840              		.loc 1 849 59 discriminator 1
 1841 048c FA68     		ldr	r2, [r7, #12]
 1842 048e 8023     		movs	r3, #128
 1843 0490 9B00     		lsls	r3, r3, #2
 1844 0492 9A42     		cmp	r2, r3
 1845 0494 02D1     		bne	.L89
 851:Drivers/STM32G0xx_HAL_Driver/Src/stm32g0xx_hal_rcc_ex.c ****         }
 1846              		.loc 1 851 21
 1847 0496 954B     		ldr	r3, .L146+4
 1848 0498 7B61     		str	r3, [r7, #20]
 862:Drivers/STM32G0xx_HAL_Driver/Src/stm32g0xx_hal_rcc_ex.c **** #endif /* RCC_CCIPR_LPUART2SEL */
 1849              		.loc 1 862 9
 1850 049a AEE2     		b	.L132
 1851              	.L89:
 853:Drivers/STM32G0xx_HAL_Driver/Src/stm32g0xx_hal_rcc_ex.c ****         {
 1852              		.loc 1 853 19
 1853 049c 924B     		ldr	r3, .L146
 1854 049e DB6D     		ldr	r3, [r3, #92]
ARM GAS  C:\Users\SOLDER~1\AppData\Local\Temp\ccUUcBce.s 			page 56


 1855 04a0 0222     		movs	r2, #2
 1856 04a2 1340     		ands	r3, r2
 853:Drivers/STM32G0xx_HAL_Driver/Src/stm32g0xx_hal_rcc_ex.c ****         {
 1857              		.loc 1 853 17
 1858 04a4 022B     		cmp	r3, #2
 1859 04a6 00D0     		beq	.LCB1505
 1860 04a8 A7E2     		b	.L132	@long jump
 1861              	.LCB1505:
 853:Drivers/STM32G0xx_HAL_Driver/Src/stm32g0xx_hal_rcc_ex.c ****         {
 1862              		.loc 1 853 63 discriminator 1
 1863 04aa FA68     		ldr	r2, [r7, #12]
 1864 04ac C023     		movs	r3, #192
 1865 04ae 9B00     		lsls	r3, r3, #2
 1866 04b0 9A42     		cmp	r2, r3
 1867 04b2 00D0     		beq	.LCB1510
 1868 04b4 A1E2     		b	.L132	@long jump
 1869              	.LCB1510:
 855:Drivers/STM32G0xx_HAL_Driver/Src/stm32g0xx_hal_rcc_ex.c ****         }
 1870              		.loc 1 855 21
 1871 04b6 8023     		movs	r3, #128
 1872 04b8 1B02     		lsls	r3, r3, #8
 1873 04ba 7B61     		str	r3, [r7, #20]
 862:Drivers/STM32G0xx_HAL_Driver/Src/stm32g0xx_hal_rcc_ex.c **** #endif /* RCC_CCIPR_LPUART2SEL */
 1874              		.loc 1 862 9
 1875 04bc 9DE2     		b	.L132
 1876              	.L54:
 867:Drivers/STM32G0xx_HAL_Driver/Src/stm32g0xx_hal_rcc_ex.c **** 
 1877              		.loc 1 867 18
 1878 04be 8A4B     		ldr	r3, .L146
 1879 04c0 5B6D     		ldr	r3, [r3, #84]
 867:Drivers/STM32G0xx_HAL_Driver/Src/stm32g0xx_hal_rcc_ex.c **** 
 1880              		.loc 1 867 16
 1881 04c2 9B0F     		lsrs	r3, r3, #30
 1882 04c4 9B07     		lsls	r3, r3, #30
 1883 04c6 FB60     		str	r3, [r7, #12]
 869:Drivers/STM32G0xx_HAL_Driver/Src/stm32g0xx_hal_rcc_ex.c ****         {
 1884              		.loc 1 869 12
 1885 04c8 FB68     		ldr	r3, [r7, #12]
 1886 04ca 002B     		cmp	r3, #0
 1887 04cc 04D1     		bne	.L90
 871:Drivers/STM32G0xx_HAL_Driver/Src/stm32g0xx_hal_rcc_ex.c ****         }
 1888              		.loc 1 871 23
 1889 04ce FFF7FEFF 		bl	HAL_RCC_GetSysClockFreq
 1890 04d2 0300     		movs	r3, r0
 1891 04d4 7B61     		str	r3, [r7, #20]
 891:Drivers/STM32G0xx_HAL_Driver/Src/stm32g0xx_hal_rcc_ex.c **** 
 1892              		.loc 1 891 9
 1893 04d6 92E2     		b	.L133
 1894              	.L90:
 873:Drivers/STM32G0xx_HAL_Driver/Src/stm32g0xx_hal_rcc_ex.c ****         {
 1895              		.loc 1 873 17
 1896 04d8 FA68     		ldr	r2, [r7, #12]
 1897 04da 8023     		movs	r3, #128
 1898 04dc 1B06     		lsls	r3, r3, #24
 1899 04de 9A42     		cmp	r2, r3
 1900 04e0 02D1     		bne	.L92
 875:Drivers/STM32G0xx_HAL_Driver/Src/stm32g0xx_hal_rcc_ex.c ****         }
ARM GAS  C:\Users\SOLDER~1\AppData\Local\Temp\ccUUcBce.s 			page 57


 1901              		.loc 1 875 21
 1902 04e2 824B     		ldr	r3, .L146+4
 1903 04e4 7B61     		str	r3, [r7, #20]
 891:Drivers/STM32G0xx_HAL_Driver/Src/stm32g0xx_hal_rcc_ex.c **** 
 1904              		.loc 1 891 9
 1905 04e6 8AE2     		b	.L133
 1906              	.L92:
 877:Drivers/STM32G0xx_HAL_Driver/Src/stm32g0xx_hal_rcc_ex.c ****         {
 1907              		.loc 1 877 17
 1908 04e8 FA68     		ldr	r2, [r7, #12]
 1909 04ea 8023     		movs	r3, #128
 1910 04ec DB05     		lsls	r3, r3, #23
 1911 04ee 9A42     		cmp	r2, r3
 1912 04f0 00D0     		beq	.LCB1548
 1913 04f2 84E2     		b	.L133	@long jump
 1914              	.LCB1548:
 879:Drivers/STM32G0xx_HAL_Driver/Src/stm32g0xx_hal_rcc_ex.c ****           {
 1915              		.loc 1 879 15
 1916 04f4 7C4B     		ldr	r3, .L146
 1917 04f6 DA68     		ldr	r2, [r3, #12]
 1918 04f8 8023     		movs	r3, #128
 1919 04fa 5B02     		lsls	r3, r3, #9
 1920 04fc 1340     		ands	r3, r2
 879:Drivers/STM32G0xx_HAL_Driver/Src/stm32g0xx_hal_rcc_ex.c ****           {
 1921              		.loc 1 879 14
 1922 04fe 00D1     		bne	.LCB1555
 1923 0500 7DE2     		b	.L133	@long jump
 1924              	.LCB1555:
 882:Drivers/STM32G0xx_HAL_Driver/Src/stm32g0xx_hal_rcc_ex.c ****             frequency = (pllvco * plln) / ((READ_BIT(RCC->PLLCFGR, RCC_PLLCFGR_PLLP) >> RCC_PLLCFGR
 1925              		.loc 1 882 20
 1926 0502 794B     		ldr	r3, .L146
 1927 0504 DB68     		ldr	r3, [r3, #12]
 882:Drivers/STM32G0xx_HAL_Driver/Src/stm32g0xx_hal_rcc_ex.c ****             frequency = (pllvco * plln) / ((READ_BIT(RCC->PLLCFGR, RCC_PLLCFGR_PLLP) >> RCC_PLLCFGR
 1928              		.loc 1 882 61
 1929 0506 1B0A     		lsrs	r3, r3, #8
 882:Drivers/STM32G0xx_HAL_Driver/Src/stm32g0xx_hal_rcc_ex.c ****             frequency = (pllvco * plln) / ((READ_BIT(RCC->PLLCFGR, RCC_PLLCFGR_PLLP) >> RCC_PLLCFGR
 1930              		.loc 1 882 18
 1931 0508 7F22     		movs	r2, #127
 1932 050a 1340     		ands	r3, r2
 1933 050c BB60     		str	r3, [r7, #8]
 883:Drivers/STM32G0xx_HAL_Driver/Src/stm32g0xx_hal_rcc_ex.c ****           }
 1934              		.loc 1 883 33
 1935 050e 3B69     		ldr	r3, [r7, #16]
 1936 0510 BA68     		ldr	r2, [r7, #8]
 1937 0512 5A43     		muls	r2, r3
 883:Drivers/STM32G0xx_HAL_Driver/Src/stm32g0xx_hal_rcc_ex.c ****           }
 1938              		.loc 1 883 45
 1939 0514 744B     		ldr	r3, .L146
 1940 0516 DB68     		ldr	r3, [r3, #12]
 883:Drivers/STM32G0xx_HAL_Driver/Src/stm32g0xx_hal_rcc_ex.c ****           }
 1941              		.loc 1 883 86
 1942 0518 5B0C     		lsrs	r3, r3, #17
 1943 051a 1F21     		movs	r1, #31
 1944 051c 0B40     		ands	r3, r1
 883:Drivers/STM32G0xx_HAL_Driver/Src/stm32g0xx_hal_rcc_ex.c ****           }
 1945              		.loc 1 883 111
 1946 051e 0133     		adds	r3, r3, #1
ARM GAS  C:\Users\SOLDER~1\AppData\Local\Temp\ccUUcBce.s 			page 58


 883:Drivers/STM32G0xx_HAL_Driver/Src/stm32g0xx_hal_rcc_ex.c ****           }
 1947              		.loc 1 883 23
 1948 0520 1900     		movs	r1, r3
 1949 0522 1000     		movs	r0, r2
 1950 0524 FFF7FEFF 		bl	__aeabi_uidiv
 1951 0528 0300     		movs	r3, r0
 1952 052a 7B61     		str	r3, [r7, #20]
 891:Drivers/STM32G0xx_HAL_Driver/Src/stm32g0xx_hal_rcc_ex.c **** 
 1953              		.loc 1 891 9
 1954 052c 67E2     		b	.L133
 1955              	.L61:
 895:Drivers/STM32G0xx_HAL_Driver/Src/stm32g0xx_hal_rcc_ex.c **** 
 1956              		.loc 1 895 18
 1957 052e 6E4B     		ldr	r3, .L146
 1958 0530 5A6D     		ldr	r2, [r3, #84]
 895:Drivers/STM32G0xx_HAL_Driver/Src/stm32g0xx_hal_rcc_ex.c **** 
 1959              		.loc 1 895 16
 1960 0532 C023     		movs	r3, #192
 1961 0534 9B01     		lsls	r3, r3, #6
 1962 0536 1340     		ands	r3, r2
 1963 0538 FB60     		str	r3, [r7, #12]
 897:Drivers/STM32G0xx_HAL_Driver/Src/stm32g0xx_hal_rcc_ex.c ****         {
 1964              		.loc 1 897 12
 1965 053a FB68     		ldr	r3, [r7, #12]
 1966 053c 002B     		cmp	r3, #0
 1967 053e 04D1     		bne	.L93
 899:Drivers/STM32G0xx_HAL_Driver/Src/stm32g0xx_hal_rcc_ex.c ****         }
 1968              		.loc 1 899 23
 1969 0540 FFF7FEFF 		bl	HAL_RCC_GetPCLK1Freq
 1970 0544 0300     		movs	r3, r0
 1971 0546 7B61     		str	r3, [r7, #20]
 914:Drivers/STM32G0xx_HAL_Driver/Src/stm32g0xx_hal_rcc_ex.c **** 
 1972              		.loc 1 914 9
 1973 0548 5BE2     		b	.L134
 1974              	.L93:
 901:Drivers/STM32G0xx_HAL_Driver/Src/stm32g0xx_hal_rcc_ex.c ****         {
 1975              		.loc 1 901 17
 1976 054a FA68     		ldr	r2, [r7, #12]
 1977 054c 8023     		movs	r3, #128
 1978 054e 5B01     		lsls	r3, r3, #5
 1979 0550 9A42     		cmp	r2, r3
 1980 0552 04D1     		bne	.L95
 903:Drivers/STM32G0xx_HAL_Driver/Src/stm32g0xx_hal_rcc_ex.c ****         }
 1981              		.loc 1 903 23
 1982 0554 FFF7FEFF 		bl	HAL_RCC_GetSysClockFreq
 1983 0558 0300     		movs	r3, r0
 1984 055a 7B61     		str	r3, [r7, #20]
 914:Drivers/STM32G0xx_HAL_Driver/Src/stm32g0xx_hal_rcc_ex.c **** 
 1985              		.loc 1 914 9
 1986 055c 51E2     		b	.L134
 1987              	.L95:
 905:Drivers/STM32G0xx_HAL_Driver/Src/stm32g0xx_hal_rcc_ex.c ****         {
 1988              		.loc 1 905 19
 1989 055e 624B     		ldr	r3, .L146
 1990 0560 1A68     		ldr	r2, [r3]
 1991 0562 8023     		movs	r3, #128
 1992 0564 DB00     		lsls	r3, r3, #3
ARM GAS  C:\Users\SOLDER~1\AppData\Local\Temp\ccUUcBce.s 			page 59


 1993 0566 1A40     		ands	r2, r3
 905:Drivers/STM32G0xx_HAL_Driver/Src/stm32g0xx_hal_rcc_ex.c ****         {
 1994              		.loc 1 905 17
 1995 0568 8023     		movs	r3, #128
 1996 056a DB00     		lsls	r3, r3, #3
 1997 056c 9A42     		cmp	r2, r3
 1998 056e 00D0     		beq	.LCB1616
 1999 0570 47E2     		b	.L134	@long jump
 2000              	.LCB1616:
 905:Drivers/STM32G0xx_HAL_Driver/Src/stm32g0xx_hal_rcc_ex.c ****         {
 2001              		.loc 1 905 59 discriminator 1
 2002 0572 FA68     		ldr	r2, [r7, #12]
 2003 0574 8023     		movs	r3, #128
 2004 0576 9B01     		lsls	r3, r3, #6
 2005 0578 9A42     		cmp	r2, r3
 2006 057a 00D0     		beq	.LCB1621
 2007 057c 41E2     		b	.L134	@long jump
 2008              	.LCB1621:
 907:Drivers/STM32G0xx_HAL_Driver/Src/stm32g0xx_hal_rcc_ex.c ****         }
 2009              		.loc 1 907 21
 2010 057e 5B4B     		ldr	r3, .L146+4
 2011 0580 7B61     		str	r3, [r7, #20]
 914:Drivers/STM32G0xx_HAL_Driver/Src/stm32g0xx_hal_rcc_ex.c **** 
 2012              		.loc 1 914 9
 2013 0582 3EE2     		b	.L134
 2014              	.L67:
 919:Drivers/STM32G0xx_HAL_Driver/Src/stm32g0xx_hal_rcc_ex.c **** 
 2015              		.loc 1 919 18
 2016 0584 584B     		ldr	r3, .L146
 2017 0586 5A6D     		ldr	r2, [r3, #84]
 919:Drivers/STM32G0xx_HAL_Driver/Src/stm32g0xx_hal_rcc_ex.c **** 
 2018              		.loc 1 919 16
 2019 0588 C023     		movs	r3, #192
 2020 058a 1B02     		lsls	r3, r3, #8
 2021 058c 1340     		ands	r3, r2
 2022 058e FB60     		str	r3, [r7, #12]
 921:Drivers/STM32G0xx_HAL_Driver/Src/stm32g0xx_hal_rcc_ex.c ****         {
 2023              		.loc 1 921 12
 2024 0590 FB68     		ldr	r3, [r7, #12]
 2025 0592 002B     		cmp	r3, #0
 2026 0594 04D1     		bne	.L96
 923:Drivers/STM32G0xx_HAL_Driver/Src/stm32g0xx_hal_rcc_ex.c ****         }
 2027              		.loc 1 923 23
 2028 0596 FFF7FEFF 		bl	HAL_RCC_GetPCLK1Freq
 2029 059a 0300     		movs	r3, r0
 2030 059c 7B61     		str	r3, [r7, #20]
 938:Drivers/STM32G0xx_HAL_Driver/Src/stm32g0xx_hal_rcc_ex.c **** #endif /* RCC_CCIPR_I2C2SEL */
 2031              		.loc 1 938 9
 2032 059e 32E2     		b	.L135
 2033              	.L96:
 925:Drivers/STM32G0xx_HAL_Driver/Src/stm32g0xx_hal_rcc_ex.c ****         {
 2034              		.loc 1 925 17
 2035 05a0 FA68     		ldr	r2, [r7, #12]
 2036 05a2 8023     		movs	r3, #128
 2037 05a4 DB01     		lsls	r3, r3, #7
 2038 05a6 9A42     		cmp	r2, r3
 2039 05a8 04D1     		bne	.L98
ARM GAS  C:\Users\SOLDER~1\AppData\Local\Temp\ccUUcBce.s 			page 60


 927:Drivers/STM32G0xx_HAL_Driver/Src/stm32g0xx_hal_rcc_ex.c ****         }
 2040              		.loc 1 927 23
 2041 05aa FFF7FEFF 		bl	HAL_RCC_GetSysClockFreq
 2042 05ae 0300     		movs	r3, r0
 2043 05b0 7B61     		str	r3, [r7, #20]
 938:Drivers/STM32G0xx_HAL_Driver/Src/stm32g0xx_hal_rcc_ex.c **** #endif /* RCC_CCIPR_I2C2SEL */
 2044              		.loc 1 938 9
 2045 05b2 28E2     		b	.L135
 2046              	.L98:
 929:Drivers/STM32G0xx_HAL_Driver/Src/stm32g0xx_hal_rcc_ex.c ****         {
 2047              		.loc 1 929 19
 2048 05b4 4C4B     		ldr	r3, .L146
 2049 05b6 1A68     		ldr	r2, [r3]
 2050 05b8 8023     		movs	r3, #128
 2051 05ba DB00     		lsls	r3, r3, #3
 2052 05bc 1A40     		ands	r2, r3
 929:Drivers/STM32G0xx_HAL_Driver/Src/stm32g0xx_hal_rcc_ex.c ****         {
 2053              		.loc 1 929 17
 2054 05be 8023     		movs	r3, #128
 2055 05c0 DB00     		lsls	r3, r3, #3
 2056 05c2 9A42     		cmp	r2, r3
 2057 05c4 00D0     		beq	.LCB1664
 2058 05c6 1EE2     		b	.L135	@long jump
 2059              	.LCB1664:
 929:Drivers/STM32G0xx_HAL_Driver/Src/stm32g0xx_hal_rcc_ex.c ****         {
 2060              		.loc 1 929 59 discriminator 1
 2061 05c8 FA68     		ldr	r2, [r7, #12]
 2062 05ca 8023     		movs	r3, #128
 2063 05cc 1B02     		lsls	r3, r3, #8
 2064 05ce 9A42     		cmp	r2, r3
 2065 05d0 00D0     		beq	.LCB1669
 2066 05d2 18E2     		b	.L135	@long jump
 2067              	.LCB1669:
 931:Drivers/STM32G0xx_HAL_Driver/Src/stm32g0xx_hal_rcc_ex.c ****         }
 2068              		.loc 1 931 21
 2069 05d4 454B     		ldr	r3, .L146+4
 2070 05d6 7B61     		str	r3, [r7, #20]
 938:Drivers/STM32G0xx_HAL_Driver/Src/stm32g0xx_hal_rcc_ex.c **** #endif /* RCC_CCIPR_I2C2SEL */
 2071              		.loc 1 938 9
 2072 05d8 15E2     		b	.L135
 2073              	.L57:
 943:Drivers/STM32G0xx_HAL_Driver/Src/stm32g0xx_hal_rcc_ex.c **** 
 2074              		.loc 1 943 18
 2075 05da 434B     		ldr	r3, .L146
 2076 05dc 9B6D     		ldr	r3, [r3, #88]
 943:Drivers/STM32G0xx_HAL_Driver/Src/stm32g0xx_hal_rcc_ex.c **** 
 2077              		.loc 1 943 16
 2078 05de 0322     		movs	r2, #3
 2079 05e0 1340     		ands	r3, r2
 2080 05e2 FB60     		str	r3, [r7, #12]
 945:Drivers/STM32G0xx_HAL_Driver/Src/stm32g0xx_hal_rcc_ex.c ****         {
 2081              		.loc 1 945 12
 2082 05e4 FB68     		ldr	r3, [r7, #12]
 2083 05e6 012B     		cmp	r3, #1
 2084 05e8 1CD1     		bne	.L99
 947:Drivers/STM32G0xx_HAL_Driver/Src/stm32g0xx_hal_rcc_ex.c ****           {
 2085              		.loc 1 947 15
ARM GAS  C:\Users\SOLDER~1\AppData\Local\Temp\ccUUcBce.s 			page 61


 2086 05ea 3F4B     		ldr	r3, .L146
 2087 05ec DA68     		ldr	r2, [r3, #12]
 2088 05ee 8023     		movs	r3, #128
 2089 05f0 5B02     		lsls	r3, r3, #9
 2090 05f2 1340     		ands	r3, r2
 947:Drivers/STM32G0xx_HAL_Driver/Src/stm32g0xx_hal_rcc_ex.c ****           {
 2091              		.loc 1 947 14
 2092 05f4 00D1     		bne	.LCB1690
 2093 05f6 08E2     		b	.L136	@long jump
 2094              	.LCB1690:
 950:Drivers/STM32G0xx_HAL_Driver/Src/stm32g0xx_hal_rcc_ex.c ****             frequency = (pllvco * plln) / ((READ_BIT(RCC->PLLCFGR, RCC_PLLCFGR_PLLP) >> RCC_PLLCFGR
 2095              		.loc 1 950 20
 2096 05f8 3B4B     		ldr	r3, .L146
 2097 05fa DB68     		ldr	r3, [r3, #12]
 950:Drivers/STM32G0xx_HAL_Driver/Src/stm32g0xx_hal_rcc_ex.c ****             frequency = (pllvco * plln) / ((READ_BIT(RCC->PLLCFGR, RCC_PLLCFGR_PLLP) >> RCC_PLLCFGR
 2098              		.loc 1 950 61
 2099 05fc 1B0A     		lsrs	r3, r3, #8
 950:Drivers/STM32G0xx_HAL_Driver/Src/stm32g0xx_hal_rcc_ex.c ****             frequency = (pllvco * plln) / ((READ_BIT(RCC->PLLCFGR, RCC_PLLCFGR_PLLP) >> RCC_PLLCFGR
 2100              		.loc 1 950 18
 2101 05fe 7F22     		movs	r2, #127
 2102 0600 1340     		ands	r3, r2
 2103 0602 BB60     		str	r3, [r7, #8]
 951:Drivers/STM32G0xx_HAL_Driver/Src/stm32g0xx_hal_rcc_ex.c ****           }
 2104              		.loc 1 951 33
 2105 0604 3B69     		ldr	r3, [r7, #16]
 2106 0606 BA68     		ldr	r2, [r7, #8]
 2107 0608 5A43     		muls	r2, r3
 951:Drivers/STM32G0xx_HAL_Driver/Src/stm32g0xx_hal_rcc_ex.c ****           }
 2108              		.loc 1 951 45
 2109 060a 374B     		ldr	r3, .L146
 2110 060c DB68     		ldr	r3, [r3, #12]
 951:Drivers/STM32G0xx_HAL_Driver/Src/stm32g0xx_hal_rcc_ex.c ****           }
 2111              		.loc 1 951 86
 2112 060e 5B0C     		lsrs	r3, r3, #17
 2113 0610 1F21     		movs	r1, #31
 2114 0612 0B40     		ands	r3, r1
 951:Drivers/STM32G0xx_HAL_Driver/Src/stm32g0xx_hal_rcc_ex.c ****           }
 2115              		.loc 1 951 111
 2116 0614 0133     		adds	r3, r3, #1
 951:Drivers/STM32G0xx_HAL_Driver/Src/stm32g0xx_hal_rcc_ex.c ****           }
 2117              		.loc 1 951 23
 2118 0616 1900     		movs	r1, r3
 2119 0618 1000     		movs	r0, r2
 2120 061a FFF7FEFF 		bl	__aeabi_uidiv
 2121 061e 0300     		movs	r3, r0
 2122 0620 7B61     		str	r3, [r7, #20]
 972:Drivers/STM32G0xx_HAL_Driver/Src/stm32g0xx_hal_rcc_ex.c **** 
 2123              		.loc 1 972 9
 2124 0622 F2E1     		b	.L136
 2125              	.L99:
 954:Drivers/STM32G0xx_HAL_Driver/Src/stm32g0xx_hal_rcc_ex.c ****         {
 2126              		.loc 1 954 17
 2127 0624 FB68     		ldr	r3, [r7, #12]
 2128 0626 002B     		cmp	r3, #0
 2129 0628 04D1     		bne	.L101
 956:Drivers/STM32G0xx_HAL_Driver/Src/stm32g0xx_hal_rcc_ex.c ****         }
 2130              		.loc 1 956 23
ARM GAS  C:\Users\SOLDER~1\AppData\Local\Temp\ccUUcBce.s 			page 62


 2131 062a FFF7FEFF 		bl	HAL_RCC_GetSysClockFreq
 2132 062e 0300     		movs	r3, r0
 2133 0630 7B61     		str	r3, [r7, #20]
 972:Drivers/STM32G0xx_HAL_Driver/Src/stm32g0xx_hal_rcc_ex.c **** 
 2134              		.loc 1 972 9
 2135 0632 EAE1     		b	.L136
 2136              	.L101:
 958:Drivers/STM32G0xx_HAL_Driver/Src/stm32g0xx_hal_rcc_ex.c ****         {
 2137              		.loc 1 958 19
 2138 0634 2C4B     		ldr	r3, .L146
 2139 0636 1A68     		ldr	r2, [r3]
 2140 0638 8023     		movs	r3, #128
 2141 063a DB00     		lsls	r3, r3, #3
 2142 063c 1A40     		ands	r2, r3
 958:Drivers/STM32G0xx_HAL_Driver/Src/stm32g0xx_hal_rcc_ex.c ****         {
 2143              		.loc 1 958 17
 2144 063e 8023     		movs	r3, #128
 2145 0640 DB00     		lsls	r3, r3, #3
 2146 0642 9A42     		cmp	r2, r3
 2147 0644 05D1     		bne	.L102
 958:Drivers/STM32G0xx_HAL_Driver/Src/stm32g0xx_hal_rcc_ex.c ****         {
 2148              		.loc 1 958 59 discriminator 1
 2149 0646 FB68     		ldr	r3, [r7, #12]
 2150 0648 022B     		cmp	r3, #2
 2151 064a 02D1     		bne	.L102
 960:Drivers/STM32G0xx_HAL_Driver/Src/stm32g0xx_hal_rcc_ex.c ****         }
 2152              		.loc 1 960 21
 2153 064c 274B     		ldr	r3, .L146+4
 2154 064e 7B61     		str	r3, [r7, #20]
 972:Drivers/STM32G0xx_HAL_Driver/Src/stm32g0xx_hal_rcc_ex.c **** 
 2155              		.loc 1 972 9
 2156 0650 DBE1     		b	.L136
 2157              	.L102:
 962:Drivers/STM32G0xx_HAL_Driver/Src/stm32g0xx_hal_rcc_ex.c ****         {
 2158              		.loc 1 962 17
 2159 0652 FB68     		ldr	r3, [r7, #12]
 2160 0654 032B     		cmp	r3, #3
 2161 0656 00D0     		beq	.LCB1745
 2162 0658 D7E1     		b	.L136	@long jump
 2163              	.LCB1745:
 965:Drivers/STM32G0xx_HAL_Driver/Src/stm32g0xx_hal_rcc_ex.c ****         }
 2164              		.loc 1 965 21
 2165 065a 254B     		ldr	r3, .L146+8
 2166 065c 7B61     		str	r3, [r7, #20]
 972:Drivers/STM32G0xx_HAL_Driver/Src/stm32g0xx_hal_rcc_ex.c **** 
 2167              		.loc 1 972 9
 2168 065e D4E1     		b	.L136
 2169              	.L55:
 977:Drivers/STM32G0xx_HAL_Driver/Src/stm32g0xx_hal_rcc_ex.c **** 
 2170              		.loc 1 977 18
 2171 0660 214B     		ldr	r3, .L146
 2172 0662 9B6D     		ldr	r3, [r3, #88]
 977:Drivers/STM32G0xx_HAL_Driver/Src/stm32g0xx_hal_rcc_ex.c **** 
 2173              		.loc 1 977 16
 2174 0664 0C22     		movs	r2, #12
 2175 0666 1340     		ands	r3, r2
 2176 0668 FB60     		str	r3, [r7, #12]
ARM GAS  C:\Users\SOLDER~1\AppData\Local\Temp\ccUUcBce.s 			page 63


 979:Drivers/STM32G0xx_HAL_Driver/Src/stm32g0xx_hal_rcc_ex.c ****         {
 2177              		.loc 1 979 12
 2178 066a FB68     		ldr	r3, [r7, #12]
 2179 066c 042B     		cmp	r3, #4
 2180 066e 1CD1     		bne	.L103
 981:Drivers/STM32G0xx_HAL_Driver/Src/stm32g0xx_hal_rcc_ex.c ****           {
 2181              		.loc 1 981 15
 2182 0670 1D4B     		ldr	r3, .L146
 2183 0672 DA68     		ldr	r2, [r3, #12]
 2184 0674 8023     		movs	r3, #128
 2185 0676 5B02     		lsls	r3, r3, #9
 2186 0678 1340     		ands	r3, r2
 981:Drivers/STM32G0xx_HAL_Driver/Src/stm32g0xx_hal_rcc_ex.c ****           {
 2187              		.loc 1 981 14
 2188 067a 00D1     		bne	.LCB1766
 2189 067c C7E1     		b	.L137	@long jump
 2190              	.LCB1766:
 984:Drivers/STM32G0xx_HAL_Driver/Src/stm32g0xx_hal_rcc_ex.c ****             frequency = (pllvco * plln) / ((READ_BIT(RCC->PLLCFGR, RCC_PLLCFGR_PLLP) >> RCC_PLLCFGR
 2191              		.loc 1 984 20
 2192 067e 1A4B     		ldr	r3, .L146
 2193 0680 DB68     		ldr	r3, [r3, #12]
 984:Drivers/STM32G0xx_HAL_Driver/Src/stm32g0xx_hal_rcc_ex.c ****             frequency = (pllvco * plln) / ((READ_BIT(RCC->PLLCFGR, RCC_PLLCFGR_PLLP) >> RCC_PLLCFGR
 2194              		.loc 1 984 61
 2195 0682 1B0A     		lsrs	r3, r3, #8
 984:Drivers/STM32G0xx_HAL_Driver/Src/stm32g0xx_hal_rcc_ex.c ****             frequency = (pllvco * plln) / ((READ_BIT(RCC->PLLCFGR, RCC_PLLCFGR_PLLP) >> RCC_PLLCFGR
 2196              		.loc 1 984 18
 2197 0684 7F22     		movs	r2, #127
 2198 0686 1340     		ands	r3, r2
 2199 0688 BB60     		str	r3, [r7, #8]
 985:Drivers/STM32G0xx_HAL_Driver/Src/stm32g0xx_hal_rcc_ex.c ****           }
 2200              		.loc 1 985 33
 2201 068a 3B69     		ldr	r3, [r7, #16]
 2202 068c BA68     		ldr	r2, [r7, #8]
 2203 068e 5A43     		muls	r2, r3
 985:Drivers/STM32G0xx_HAL_Driver/Src/stm32g0xx_hal_rcc_ex.c ****           }
 2204              		.loc 1 985 45
 2205 0690 154B     		ldr	r3, .L146
 2206 0692 DB68     		ldr	r3, [r3, #12]
 985:Drivers/STM32G0xx_HAL_Driver/Src/stm32g0xx_hal_rcc_ex.c ****           }
 2207              		.loc 1 985 86
 2208 0694 5B0C     		lsrs	r3, r3, #17
 2209 0696 1F21     		movs	r1, #31
 2210 0698 0B40     		ands	r3, r1
 985:Drivers/STM32G0xx_HAL_Driver/Src/stm32g0xx_hal_rcc_ex.c ****           }
 2211              		.loc 1 985 111
 2212 069a 0133     		adds	r3, r3, #1
 985:Drivers/STM32G0xx_HAL_Driver/Src/stm32g0xx_hal_rcc_ex.c ****           }
 2213              		.loc 1 985 23
 2214 069c 1900     		movs	r1, r3
 2215 069e 1000     		movs	r0, r2
 2216 06a0 FFF7FEFF 		bl	__aeabi_uidiv
 2217 06a4 0300     		movs	r3, r0
 2218 06a6 7B61     		str	r3, [r7, #20]
1006:Drivers/STM32G0xx_HAL_Driver/Src/stm32g0xx_hal_rcc_ex.c **** #endif /* RCC_CCIPR2_I2S2SEL */
 2219              		.loc 1 1006 9
 2220 06a8 B1E1     		b	.L137
 2221              	.L103:
ARM GAS  C:\Users\SOLDER~1\AppData\Local\Temp\ccUUcBce.s 			page 64


 988:Drivers/STM32G0xx_HAL_Driver/Src/stm32g0xx_hal_rcc_ex.c ****         {
 2222              		.loc 1 988 17
 2223 06aa FB68     		ldr	r3, [r7, #12]
 2224 06ac 002B     		cmp	r3, #0
 2225 06ae 04D1     		bne	.L105
 990:Drivers/STM32G0xx_HAL_Driver/Src/stm32g0xx_hal_rcc_ex.c ****         }
 2226              		.loc 1 990 23
 2227 06b0 FFF7FEFF 		bl	HAL_RCC_GetSysClockFreq
 2228 06b4 0300     		movs	r3, r0
 2229 06b6 7B61     		str	r3, [r7, #20]
1006:Drivers/STM32G0xx_HAL_Driver/Src/stm32g0xx_hal_rcc_ex.c **** #endif /* RCC_CCIPR2_I2S2SEL */
 2230              		.loc 1 1006 9
 2231 06b8 A9E1     		b	.L137
 2232              	.L105:
 992:Drivers/STM32G0xx_HAL_Driver/Src/stm32g0xx_hal_rcc_ex.c ****         {
 2233              		.loc 1 992 19
 2234 06ba 0B4B     		ldr	r3, .L146
 2235 06bc 1A68     		ldr	r2, [r3]
 2236 06be 8023     		movs	r3, #128
 2237 06c0 DB00     		lsls	r3, r3, #3
 2238 06c2 1A40     		ands	r2, r3
 992:Drivers/STM32G0xx_HAL_Driver/Src/stm32g0xx_hal_rcc_ex.c ****         {
 2239              		.loc 1 992 17
 2240 06c4 8023     		movs	r3, #128
 2241 06c6 DB00     		lsls	r3, r3, #3
 2242 06c8 9A42     		cmp	r2, r3
 2243 06ca 05D1     		bne	.L106
 992:Drivers/STM32G0xx_HAL_Driver/Src/stm32g0xx_hal_rcc_ex.c ****         {
 2244              		.loc 1 992 59 discriminator 1
 2245 06cc FB68     		ldr	r3, [r7, #12]
 2246 06ce 082B     		cmp	r3, #8
 2247 06d0 02D1     		bne	.L106
 994:Drivers/STM32G0xx_HAL_Driver/Src/stm32g0xx_hal_rcc_ex.c ****         }
 2248              		.loc 1 994 21
 2249 06d2 064B     		ldr	r3, .L146+4
 2250 06d4 7B61     		str	r3, [r7, #20]
1006:Drivers/STM32G0xx_HAL_Driver/Src/stm32g0xx_hal_rcc_ex.c **** #endif /* RCC_CCIPR2_I2S2SEL */
 2251              		.loc 1 1006 9
 2252 06d6 9AE1     		b	.L137
 2253              	.L106:
 996:Drivers/STM32G0xx_HAL_Driver/Src/stm32g0xx_hal_rcc_ex.c ****         {
 2254              		.loc 1 996 17
 2255 06d8 FB68     		ldr	r3, [r7, #12]
 2256 06da 0C2B     		cmp	r3, #12
 2257 06dc 00D0     		beq	.LCB1821
 2258 06de 96E1     		b	.L137	@long jump
 2259              	.LCB1821:
 999:Drivers/STM32G0xx_HAL_Driver/Src/stm32g0xx_hal_rcc_ex.c ****         }
 2260              		.loc 1 999 21
 2261 06e0 034B     		ldr	r3, .L146+8
 2262 06e2 7B61     		str	r3, [r7, #20]
1006:Drivers/STM32G0xx_HAL_Driver/Src/stm32g0xx_hal_rcc_ex.c **** #endif /* RCC_CCIPR2_I2S2SEL */
 2263              		.loc 1 1006 9
 2264 06e4 93E1     		b	.L137
 2265              	.L147:
 2266 06e6 C046     		.align	2
 2267              	.L146:
ARM GAS  C:\Users\SOLDER~1\AppData\Local\Temp\ccUUcBce.s 			page 65


 2268 06e8 00100240 		.word	1073876992
 2269 06ec 0024F400 		.word	16000000
 2270 06f0 80BB0000 		.word	48000
 2271              	.L59:
1012:Drivers/STM32G0xx_HAL_Driver/Src/stm32g0xx_hal_rcc_ex.c **** 
 2272              		.loc 1 1012 18
 2273 06f4 CC4B     		ldr	r3, .L148
 2274 06f6 5A6D     		ldr	r2, [r3, #84]
1012:Drivers/STM32G0xx_HAL_Driver/Src/stm32g0xx_hal_rcc_ex.c **** 
 2275              		.loc 1 1012 16
 2276 06f8 C023     		movs	r3, #192
 2277 06fa 1B03     		lsls	r3, r3, #12
 2278 06fc 1340     		ands	r3, r2
 2279 06fe FB60     		str	r3, [r7, #12]
1014:Drivers/STM32G0xx_HAL_Driver/Src/stm32g0xx_hal_rcc_ex.c ****         {
 2280              		.loc 1 1014 12
 2281 0700 FB68     		ldr	r3, [r7, #12]
 2282 0702 002B     		cmp	r3, #0
 2283 0704 04D1     		bne	.L107
1016:Drivers/STM32G0xx_HAL_Driver/Src/stm32g0xx_hal_rcc_ex.c ****         }
 2284              		.loc 1 1016 23
 2285 0706 FFF7FEFF 		bl	HAL_RCC_GetPCLK1Freq
 2286 070a 0300     		movs	r3, r0
 2287 070c 7B61     		str	r3, [r7, #20]
1035:Drivers/STM32G0xx_HAL_Driver/Src/stm32g0xx_hal_rcc_ex.c **** #endif /* RCC_CCIPR_LPTIM1SEL */
 2288              		.loc 1 1035 9
 2289 070e 80E1     		b	.L138
 2290              	.L107:
1018:Drivers/STM32G0xx_HAL_Driver/Src/stm32g0xx_hal_rcc_ex.c ****         {
 2291              		.loc 1 1018 19
 2292 0710 C54B     		ldr	r3, .L148
 2293 0712 1B6E     		ldr	r3, [r3, #96]
 2294 0714 0222     		movs	r2, #2
 2295 0716 1340     		ands	r3, r2
1018:Drivers/STM32G0xx_HAL_Driver/Src/stm32g0xx_hal_rcc_ex.c ****         {
 2296              		.loc 1 1018 17
 2297 0718 022B     		cmp	r3, #2
 2298 071a 08D1     		bne	.L109
1018:Drivers/STM32G0xx_HAL_Driver/Src/stm32g0xx_hal_rcc_ex.c ****         {
 2299              		.loc 1 1018 61 discriminator 1
 2300 071c FA68     		ldr	r2, [r7, #12]
 2301 071e 8023     		movs	r3, #128
 2302 0720 DB02     		lsls	r3, r3, #11
 2303 0722 9A42     		cmp	r2, r3
 2304 0724 03D1     		bne	.L109
1020:Drivers/STM32G0xx_HAL_Driver/Src/stm32g0xx_hal_rcc_ex.c ****         }
 2305              		.loc 1 1020 21
 2306 0726 FA23     		movs	r3, #250
 2307 0728 DB01     		lsls	r3, r3, #7
 2308 072a 7B61     		str	r3, [r7, #20]
 2309 072c 21E0     		b	.L108
 2310              	.L109:
1022:Drivers/STM32G0xx_HAL_Driver/Src/stm32g0xx_hal_rcc_ex.c ****         {
 2311              		.loc 1 1022 19
 2312 072e BE4B     		ldr	r3, .L148
 2313 0730 1A68     		ldr	r2, [r3]
 2314 0732 8023     		movs	r3, #128
ARM GAS  C:\Users\SOLDER~1\AppData\Local\Temp\ccUUcBce.s 			page 66


 2315 0734 DB00     		lsls	r3, r3, #3
 2316 0736 1A40     		ands	r2, r3
1022:Drivers/STM32G0xx_HAL_Driver/Src/stm32g0xx_hal_rcc_ex.c ****         {
 2317              		.loc 1 1022 17
 2318 0738 8023     		movs	r3, #128
 2319 073a DB00     		lsls	r3, r3, #3
 2320 073c 9A42     		cmp	r2, r3
 2321 073e 07D1     		bne	.L110
1022:Drivers/STM32G0xx_HAL_Driver/Src/stm32g0xx_hal_rcc_ex.c ****         {
 2322              		.loc 1 1022 59 discriminator 1
 2323 0740 FA68     		ldr	r2, [r7, #12]
 2324 0742 8023     		movs	r3, #128
 2325 0744 1B03     		lsls	r3, r3, #12
 2326 0746 9A42     		cmp	r2, r3
 2327 0748 02D1     		bne	.L110
1024:Drivers/STM32G0xx_HAL_Driver/Src/stm32g0xx_hal_rcc_ex.c ****         }
 2328              		.loc 1 1024 21
 2329 074a B84B     		ldr	r3, .L148+4
 2330 074c 7B61     		str	r3, [r7, #20]
 2331 074e 10E0     		b	.L108
 2332              	.L110:
1026:Drivers/STM32G0xx_HAL_Driver/Src/stm32g0xx_hal_rcc_ex.c ****         {
 2333              		.loc 1 1026 19
 2334 0750 B54B     		ldr	r3, .L148
 2335 0752 DB6D     		ldr	r3, [r3, #92]
 2336 0754 0222     		movs	r2, #2
 2337 0756 1340     		ands	r3, r2
1026:Drivers/STM32G0xx_HAL_Driver/Src/stm32g0xx_hal_rcc_ex.c ****         {
 2338              		.loc 1 1026 17
 2339 0758 022B     		cmp	r3, #2
 2340 075a 00D0     		beq	.LCB1895
 2341 075c 59E1     		b	.L138	@long jump
 2342              	.LCB1895:
1026:Drivers/STM32G0xx_HAL_Driver/Src/stm32g0xx_hal_rcc_ex.c ****         {
 2343              		.loc 1 1026 63 discriminator 1
 2344 075e FA68     		ldr	r2, [r7, #12]
 2345 0760 C023     		movs	r3, #192
 2346 0762 1B03     		lsls	r3, r3, #12
 2347 0764 9A42     		cmp	r2, r3
 2348 0766 00D0     		beq	.LCB1900
 2349 0768 53E1     		b	.L138	@long jump
 2350              	.LCB1900:
1028:Drivers/STM32G0xx_HAL_Driver/Src/stm32g0xx_hal_rcc_ex.c ****         }
 2351              		.loc 1 1028 21
 2352 076a 8023     		movs	r3, #128
 2353 076c 1B02     		lsls	r3, r3, #8
 2354 076e 7B61     		str	r3, [r7, #20]
1035:Drivers/STM32G0xx_HAL_Driver/Src/stm32g0xx_hal_rcc_ex.c **** #endif /* RCC_CCIPR_LPTIM1SEL */
 2355              		.loc 1 1035 9
 2356 0770 4FE1     		b	.L138
 2357              	.L108:
 2358 0772 4EE1     		b	.L138
 2359              	.L58:
1041:Drivers/STM32G0xx_HAL_Driver/Src/stm32g0xx_hal_rcc_ex.c **** 
 2360              		.loc 1 1041 18
 2361 0774 AC4B     		ldr	r3, .L148
 2362 0776 5A6D     		ldr	r2, [r3, #84]
ARM GAS  C:\Users\SOLDER~1\AppData\Local\Temp\ccUUcBce.s 			page 67


1041:Drivers/STM32G0xx_HAL_Driver/Src/stm32g0xx_hal_rcc_ex.c **** 
 2363              		.loc 1 1041 16
 2364 0778 C023     		movs	r3, #192
 2365 077a 9B03     		lsls	r3, r3, #14
 2366 077c 1340     		ands	r3, r2
 2367 077e FB60     		str	r3, [r7, #12]
1043:Drivers/STM32G0xx_HAL_Driver/Src/stm32g0xx_hal_rcc_ex.c ****         {
 2368              		.loc 1 1043 12
 2369 0780 FB68     		ldr	r3, [r7, #12]
 2370 0782 002B     		cmp	r3, #0
 2371 0784 04D1     		bne	.L111
1045:Drivers/STM32G0xx_HAL_Driver/Src/stm32g0xx_hal_rcc_ex.c ****         }
 2372              		.loc 1 1045 23
 2373 0786 FFF7FEFF 		bl	HAL_RCC_GetPCLK1Freq
 2374 078a 0300     		movs	r3, r0
 2375 078c 7B61     		str	r3, [r7, #20]
1064:Drivers/STM32G0xx_HAL_Driver/Src/stm32g0xx_hal_rcc_ex.c **** #endif /* RCC_CCIPR_LPTIM2SEL */
 2376              		.loc 1 1064 9
 2377 078e 42E1     		b	.L139
 2378              	.L111:
1047:Drivers/STM32G0xx_HAL_Driver/Src/stm32g0xx_hal_rcc_ex.c ****         {
 2379              		.loc 1 1047 19
 2380 0790 A54B     		ldr	r3, .L148
 2381 0792 1B6E     		ldr	r3, [r3, #96]
 2382 0794 0222     		movs	r2, #2
 2383 0796 1340     		ands	r3, r2
1047:Drivers/STM32G0xx_HAL_Driver/Src/stm32g0xx_hal_rcc_ex.c ****         {
 2384              		.loc 1 1047 17
 2385 0798 022B     		cmp	r3, #2
 2386 079a 08D1     		bne	.L113
1047:Drivers/STM32G0xx_HAL_Driver/Src/stm32g0xx_hal_rcc_ex.c ****         {
 2387              		.loc 1 1047 61 discriminator 1
 2388 079c FA68     		ldr	r2, [r7, #12]
 2389 079e 8023     		movs	r3, #128
 2390 07a0 5B03     		lsls	r3, r3, #13
 2391 07a2 9A42     		cmp	r2, r3
 2392 07a4 03D1     		bne	.L113
1049:Drivers/STM32G0xx_HAL_Driver/Src/stm32g0xx_hal_rcc_ex.c ****         }
 2393              		.loc 1 1049 21
 2394 07a6 FA23     		movs	r3, #250
 2395 07a8 DB01     		lsls	r3, r3, #7
 2396 07aa 7B61     		str	r3, [r7, #20]
 2397 07ac 21E0     		b	.L112
 2398              	.L113:
1051:Drivers/STM32G0xx_HAL_Driver/Src/stm32g0xx_hal_rcc_ex.c ****         {
 2399              		.loc 1 1051 19
 2400 07ae 9E4B     		ldr	r3, .L148
 2401 07b0 1A68     		ldr	r2, [r3]
 2402 07b2 8023     		movs	r3, #128
 2403 07b4 DB00     		lsls	r3, r3, #3
 2404 07b6 1A40     		ands	r2, r3
1051:Drivers/STM32G0xx_HAL_Driver/Src/stm32g0xx_hal_rcc_ex.c ****         {
 2405              		.loc 1 1051 17
 2406 07b8 8023     		movs	r3, #128
 2407 07ba DB00     		lsls	r3, r3, #3
 2408 07bc 9A42     		cmp	r2, r3
 2409 07be 07D1     		bne	.L114
ARM GAS  C:\Users\SOLDER~1\AppData\Local\Temp\ccUUcBce.s 			page 68


1051:Drivers/STM32G0xx_HAL_Driver/Src/stm32g0xx_hal_rcc_ex.c ****         {
 2410              		.loc 1 1051 59 discriminator 1
 2411 07c0 FA68     		ldr	r2, [r7, #12]
 2412 07c2 8023     		movs	r3, #128
 2413 07c4 9B03     		lsls	r3, r3, #14
 2414 07c6 9A42     		cmp	r2, r3
 2415 07c8 02D1     		bne	.L114
1053:Drivers/STM32G0xx_HAL_Driver/Src/stm32g0xx_hal_rcc_ex.c ****         }
 2416              		.loc 1 1053 21
 2417 07ca 984B     		ldr	r3, .L148+4
 2418 07cc 7B61     		str	r3, [r7, #20]
 2419 07ce 10E0     		b	.L112
 2420              	.L114:
1055:Drivers/STM32G0xx_HAL_Driver/Src/stm32g0xx_hal_rcc_ex.c ****         {
 2421              		.loc 1 1055 19
 2422 07d0 954B     		ldr	r3, .L148
 2423 07d2 DB6D     		ldr	r3, [r3, #92]
 2424 07d4 0222     		movs	r2, #2
 2425 07d6 1340     		ands	r3, r2
1055:Drivers/STM32G0xx_HAL_Driver/Src/stm32g0xx_hal_rcc_ex.c ****         {
 2426              		.loc 1 1055 17
 2427 07d8 022B     		cmp	r3, #2
 2428 07da 00D0     		beq	.LCB1971
 2429 07dc 1BE1     		b	.L139	@long jump
 2430              	.LCB1971:
1055:Drivers/STM32G0xx_HAL_Driver/Src/stm32g0xx_hal_rcc_ex.c ****         {
 2431              		.loc 1 1055 63 discriminator 1
 2432 07de FA68     		ldr	r2, [r7, #12]
 2433 07e0 C023     		movs	r3, #192
 2434 07e2 9B03     		lsls	r3, r3, #14
 2435 07e4 9A42     		cmp	r2, r3
 2436 07e6 00D0     		beq	.LCB1976
 2437 07e8 15E1     		b	.L139	@long jump
 2438              	.LCB1976:
1057:Drivers/STM32G0xx_HAL_Driver/Src/stm32g0xx_hal_rcc_ex.c ****         }
 2439              		.loc 1 1057 21
 2440 07ea 8023     		movs	r3, #128
 2441 07ec 1B02     		lsls	r3, r3, #8
 2442 07ee 7B61     		str	r3, [r7, #20]
1064:Drivers/STM32G0xx_HAL_Driver/Src/stm32g0xx_hal_rcc_ex.c **** #endif /* RCC_CCIPR_LPTIM2SEL */
 2443              		.loc 1 1064 9
 2444 07f0 11E1     		b	.L139
 2445              	.L112:
 2446 07f2 10E1     		b	.L139
 2447              	.L52:
1070:Drivers/STM32G0xx_HAL_Driver/Src/stm32g0xx_hal_rcc_ex.c **** 
 2448              		.loc 1 1070 18
 2449 07f4 8C4B     		ldr	r3, .L148
 2450 07f6 5A6D     		ldr	r2, [r3, #84]
1070:Drivers/STM32G0xx_HAL_Driver/Src/stm32g0xx_hal_rcc_ex.c **** 
 2451              		.loc 1 1070 16
 2452 07f8 8023     		movs	r3, #128
 2453 07fa DB03     		lsls	r3, r3, #15
 2454 07fc 1340     		ands	r3, r2
 2455 07fe FB60     		str	r3, [r7, #12]
1072:Drivers/STM32G0xx_HAL_Driver/Src/stm32g0xx_hal_rcc_ex.c ****         {
 2456              		.loc 1 1072 12
ARM GAS  C:\Users\SOLDER~1\AppData\Local\Temp\ccUUcBce.s 			page 69


 2457 0800 FA68     		ldr	r2, [r7, #12]
 2458 0802 8023     		movs	r3, #128
 2459 0804 DB03     		lsls	r3, r3, #15
 2460 0806 9A42     		cmp	r2, r3
 2461 0808 1CD1     		bne	.L115
1074:Drivers/STM32G0xx_HAL_Driver/Src/stm32g0xx_hal_rcc_ex.c ****           {
 2462              		.loc 1 1074 15
 2463 080a 874B     		ldr	r3, .L148
 2464 080c DA68     		ldr	r2, [r3, #12]
 2465 080e 8023     		movs	r3, #128
 2466 0810 5B04     		lsls	r3, r3, #17
 2467 0812 1340     		ands	r3, r2
1074:Drivers/STM32G0xx_HAL_Driver/Src/stm32g0xx_hal_rcc_ex.c ****           {
 2468              		.loc 1 1074 14
 2469 0814 00D1     		bne	.LCB2005
 2470 0816 00E1     		b	.L140	@long jump
 2471              	.LCB2005:
1077:Drivers/STM32G0xx_HAL_Driver/Src/stm32g0xx_hal_rcc_ex.c ****             frequency = (pllvco * plln) / ((READ_BIT(RCC->PLLCFGR, RCC_PLLCFGR_PLLQ) >> RCC_PLLCFGR
 2472              		.loc 1 1077 20
 2473 0818 834B     		ldr	r3, .L148
 2474 081a DB68     		ldr	r3, [r3, #12]
1077:Drivers/STM32G0xx_HAL_Driver/Src/stm32g0xx_hal_rcc_ex.c ****             frequency = (pllvco * plln) / ((READ_BIT(RCC->PLLCFGR, RCC_PLLCFGR_PLLQ) >> RCC_PLLCFGR
 2475              		.loc 1 1077 61
 2476 081c 1B0A     		lsrs	r3, r3, #8
1077:Drivers/STM32G0xx_HAL_Driver/Src/stm32g0xx_hal_rcc_ex.c ****             frequency = (pllvco * plln) / ((READ_BIT(RCC->PLLCFGR, RCC_PLLCFGR_PLLQ) >> RCC_PLLCFGR
 2477              		.loc 1 1077 18
 2478 081e 7F22     		movs	r2, #127
 2479 0820 1340     		ands	r3, r2
 2480 0822 BB60     		str	r3, [r7, #8]
1078:Drivers/STM32G0xx_HAL_Driver/Src/stm32g0xx_hal_rcc_ex.c ****           }
 2481              		.loc 1 1078 33
 2482 0824 3B69     		ldr	r3, [r7, #16]
 2483 0826 BA68     		ldr	r2, [r7, #8]
 2484 0828 5A43     		muls	r2, r3
1078:Drivers/STM32G0xx_HAL_Driver/Src/stm32g0xx_hal_rcc_ex.c ****           }
 2485              		.loc 1 1078 45
 2486 082a 7F4B     		ldr	r3, .L148
 2487 082c DB68     		ldr	r3, [r3, #12]
1078:Drivers/STM32G0xx_HAL_Driver/Src/stm32g0xx_hal_rcc_ex.c ****           }
 2488              		.loc 1 1078 86
 2489 082e 5B0E     		lsrs	r3, r3, #25
 2490 0830 0721     		movs	r1, #7
 2491 0832 0B40     		ands	r3, r1
1078:Drivers/STM32G0xx_HAL_Driver/Src/stm32g0xx_hal_rcc_ex.c ****           }
 2492              		.loc 1 1078 111
 2493 0834 0133     		adds	r3, r3, #1
1078:Drivers/STM32G0xx_HAL_Driver/Src/stm32g0xx_hal_rcc_ex.c ****           }
 2494              		.loc 1 1078 23
 2495 0836 1900     		movs	r1, r3
 2496 0838 1000     		movs	r0, r2
 2497 083a FFF7FEFF 		bl	__aeabi_uidiv
 2498 083e 0300     		movs	r3, r0
 2499 0840 7B61     		str	r3, [r7, #20]
1089:Drivers/STM32G0xx_HAL_Driver/Src/stm32g0xx_hal_rcc_ex.c **** #endif /* RCC_CCIPR_TIM1SEL */
 2500              		.loc 1 1089 9
 2501 0842 EAE0     		b	.L140
 2502              	.L115:
ARM GAS  C:\Users\SOLDER~1\AppData\Local\Temp\ccUUcBce.s 			page 70


1081:Drivers/STM32G0xx_HAL_Driver/Src/stm32g0xx_hal_rcc_ex.c ****         {
 2503              		.loc 1 1081 17
 2504 0844 FB68     		ldr	r3, [r7, #12]
 2505 0846 002B     		cmp	r3, #0
 2506 0848 00D0     		beq	.LCB2032
 2507 084a E6E0     		b	.L140	@long jump
 2508              	.LCB2032:
1083:Drivers/STM32G0xx_HAL_Driver/Src/stm32g0xx_hal_rcc_ex.c ****         }
 2509              		.loc 1 1083 23
 2510 084c FFF7FEFF 		bl	HAL_RCC_GetPCLK1Freq
 2511 0850 0300     		movs	r3, r0
 2512 0852 7B61     		str	r3, [r7, #20]
1089:Drivers/STM32G0xx_HAL_Driver/Src/stm32g0xx_hal_rcc_ex.c **** #endif /* RCC_CCIPR_TIM1SEL */
 2513              		.loc 1 1089 9
 2514 0854 E1E0     		b	.L140
 2515              	.L51:
1095:Drivers/STM32G0xx_HAL_Driver/Src/stm32g0xx_hal_rcc_ex.c **** 
 2516              		.loc 1 1095 18
 2517 0856 744B     		ldr	r3, .L148
 2518 0858 5A6D     		ldr	r2, [r3, #84]
1095:Drivers/STM32G0xx_HAL_Driver/Src/stm32g0xx_hal_rcc_ex.c **** 
 2519              		.loc 1 1095 16
 2520 085a 8023     		movs	r3, #128
 2521 085c 5B04     		lsls	r3, r3, #17
 2522 085e 1340     		ands	r3, r2
 2523 0860 FB60     		str	r3, [r7, #12]
1097:Drivers/STM32G0xx_HAL_Driver/Src/stm32g0xx_hal_rcc_ex.c ****         {
 2524              		.loc 1 1097 12
 2525 0862 FA68     		ldr	r2, [r7, #12]
 2526 0864 8023     		movs	r3, #128
 2527 0866 5B04     		lsls	r3, r3, #17
 2528 0868 9A42     		cmp	r2, r3
 2529 086a 1CD1     		bne	.L117
1099:Drivers/STM32G0xx_HAL_Driver/Src/stm32g0xx_hal_rcc_ex.c ****           {
 2530              		.loc 1 1099 15
 2531 086c 6E4B     		ldr	r3, .L148
 2532 086e DA68     		ldr	r2, [r3, #12]
 2533 0870 8023     		movs	r3, #128
 2534 0872 5B04     		lsls	r3, r3, #17
 2535 0874 1340     		ands	r3, r2
1099:Drivers/STM32G0xx_HAL_Driver/Src/stm32g0xx_hal_rcc_ex.c ****           {
 2536              		.loc 1 1099 14
 2537 0876 00D1     		bne	.LCB2057
 2538 0878 D1E0     		b	.L141	@long jump
 2539              	.LCB2057:
1102:Drivers/STM32G0xx_HAL_Driver/Src/stm32g0xx_hal_rcc_ex.c ****             frequency = (pllvco * plln) / ((READ_BIT(RCC->PLLCFGR, RCC_PLLCFGR_PLLQ) >> RCC_PLLCFGR
 2540              		.loc 1 1102 20
 2541 087a 6B4B     		ldr	r3, .L148
 2542 087c DB68     		ldr	r3, [r3, #12]
1102:Drivers/STM32G0xx_HAL_Driver/Src/stm32g0xx_hal_rcc_ex.c ****             frequency = (pllvco * plln) / ((READ_BIT(RCC->PLLCFGR, RCC_PLLCFGR_PLLQ) >> RCC_PLLCFGR
 2543              		.loc 1 1102 61
 2544 087e 1B0A     		lsrs	r3, r3, #8
1102:Drivers/STM32G0xx_HAL_Driver/Src/stm32g0xx_hal_rcc_ex.c ****             frequency = (pllvco * plln) / ((READ_BIT(RCC->PLLCFGR, RCC_PLLCFGR_PLLQ) >> RCC_PLLCFGR
 2545              		.loc 1 1102 18
 2546 0880 7F22     		movs	r2, #127
 2547 0882 1340     		ands	r3, r2
 2548 0884 BB60     		str	r3, [r7, #8]
ARM GAS  C:\Users\SOLDER~1\AppData\Local\Temp\ccUUcBce.s 			page 71


1103:Drivers/STM32G0xx_HAL_Driver/Src/stm32g0xx_hal_rcc_ex.c ****           }
 2549              		.loc 1 1103 33
 2550 0886 3B69     		ldr	r3, [r7, #16]
 2551 0888 BA68     		ldr	r2, [r7, #8]
 2552 088a 5A43     		muls	r2, r3
1103:Drivers/STM32G0xx_HAL_Driver/Src/stm32g0xx_hal_rcc_ex.c ****           }
 2553              		.loc 1 1103 45
 2554 088c 664B     		ldr	r3, .L148
 2555 088e DB68     		ldr	r3, [r3, #12]
1103:Drivers/STM32G0xx_HAL_Driver/Src/stm32g0xx_hal_rcc_ex.c ****           }
 2556              		.loc 1 1103 86
 2557 0890 5B0E     		lsrs	r3, r3, #25
 2558 0892 0721     		movs	r1, #7
 2559 0894 0B40     		ands	r3, r1
1103:Drivers/STM32G0xx_HAL_Driver/Src/stm32g0xx_hal_rcc_ex.c ****           }
 2560              		.loc 1 1103 111
 2561 0896 0133     		adds	r3, r3, #1
1103:Drivers/STM32G0xx_HAL_Driver/Src/stm32g0xx_hal_rcc_ex.c ****           }
 2562              		.loc 1 1103 23
 2563 0898 1900     		movs	r1, r3
 2564 089a 1000     		movs	r0, r2
 2565 089c FFF7FEFF 		bl	__aeabi_uidiv
 2566 08a0 0300     		movs	r3, r0
 2567 08a2 7B61     		str	r3, [r7, #20]
1114:Drivers/STM32G0xx_HAL_Driver/Src/stm32g0xx_hal_rcc_ex.c **** #endif /* RCC_CCIPR_TIM15SEL */
 2568              		.loc 1 1114 9
 2569 08a4 BBE0     		b	.L141
 2570              	.L117:
1106:Drivers/STM32G0xx_HAL_Driver/Src/stm32g0xx_hal_rcc_ex.c ****         {
 2571              		.loc 1 1106 17
 2572 08a6 FB68     		ldr	r3, [r7, #12]
 2573 08a8 002B     		cmp	r3, #0
 2574 08aa 00D0     		beq	.LCB2084
 2575 08ac B7E0     		b	.L141	@long jump
 2576              	.LCB2084:
1108:Drivers/STM32G0xx_HAL_Driver/Src/stm32g0xx_hal_rcc_ex.c ****         }
 2577              		.loc 1 1108 23
 2578 08ae FFF7FEFF 		bl	HAL_RCC_GetPCLK1Freq
 2579 08b2 0300     		movs	r3, r0
 2580 08b4 7B61     		str	r3, [r7, #20]
1114:Drivers/STM32G0xx_HAL_Driver/Src/stm32g0xx_hal_rcc_ex.c **** #endif /* RCC_CCIPR_TIM15SEL */
 2581              		.loc 1 1114 9
 2582 08b6 B2E0     		b	.L141
 2583              	.L50:
1120:Drivers/STM32G0xx_HAL_Driver/Src/stm32g0xx_hal_rcc_ex.c **** 
 2584              		.loc 1 1120 18
 2585 08b8 5B4B     		ldr	r3, .L148
 2586 08ba 9A6D     		ldr	r2, [r3, #88]
1120:Drivers/STM32G0xx_HAL_Driver/Src/stm32g0xx_hal_rcc_ex.c **** 
 2587              		.loc 1 1120 16
 2588 08bc C023     		movs	r3, #192
 2589 08be 9B01     		lsls	r3, r3, #6
 2590 08c0 1340     		ands	r3, r2
 2591 08c2 FB60     		str	r3, [r7, #12]
1122:Drivers/STM32G0xx_HAL_Driver/Src/stm32g0xx_hal_rcc_ex.c ****         {
 2592              		.loc 1 1122 12
 2593 08c4 FA68     		ldr	r2, [r7, #12]
ARM GAS  C:\Users\SOLDER~1\AppData\Local\Temp\ccUUcBce.s 			page 72


 2594 08c6 8023     		movs	r3, #128
 2595 08c8 9B01     		lsls	r3, r3, #6
 2596 08ca 9A42     		cmp	r2, r3
 2597 08cc 1CD1     		bne	.L119
1124:Drivers/STM32G0xx_HAL_Driver/Src/stm32g0xx_hal_rcc_ex.c ****           {
 2598              		.loc 1 1124 15
 2599 08ce 564B     		ldr	r3, .L148
 2600 08d0 DA68     		ldr	r2, [r3, #12]
 2601 08d2 8023     		movs	r3, #128
 2602 08d4 5B04     		lsls	r3, r3, #17
 2603 08d6 1340     		ands	r3, r2
1124:Drivers/STM32G0xx_HAL_Driver/Src/stm32g0xx_hal_rcc_ex.c ****           {
 2604              		.loc 1 1124 14
 2605 08d8 00D1     		bne	.LCB2109
 2606 08da A2E0     		b	.L142	@long jump
 2607              	.LCB2109:
1127:Drivers/STM32G0xx_HAL_Driver/Src/stm32g0xx_hal_rcc_ex.c ****             frequency = (pllvco * plln) / ((READ_BIT(RCC->PLLCFGR, RCC_PLLCFGR_PLLQ) >> RCC_PLLCFGR
 2608              		.loc 1 1127 20
 2609 08dc 524B     		ldr	r3, .L148
 2610 08de DB68     		ldr	r3, [r3, #12]
1127:Drivers/STM32G0xx_HAL_Driver/Src/stm32g0xx_hal_rcc_ex.c ****             frequency = (pllvco * plln) / ((READ_BIT(RCC->PLLCFGR, RCC_PLLCFGR_PLLQ) >> RCC_PLLCFGR
 2611              		.loc 1 1127 61
 2612 08e0 1B0A     		lsrs	r3, r3, #8
1127:Drivers/STM32G0xx_HAL_Driver/Src/stm32g0xx_hal_rcc_ex.c ****             frequency = (pllvco * plln) / ((READ_BIT(RCC->PLLCFGR, RCC_PLLCFGR_PLLQ) >> RCC_PLLCFGR
 2613              		.loc 1 1127 18
 2614 08e2 7F22     		movs	r2, #127
 2615 08e4 1340     		ands	r3, r2
 2616 08e6 BB60     		str	r3, [r7, #8]
1128:Drivers/STM32G0xx_HAL_Driver/Src/stm32g0xx_hal_rcc_ex.c ****           }
 2617              		.loc 1 1128 33
 2618 08e8 3B69     		ldr	r3, [r7, #16]
 2619 08ea BA68     		ldr	r2, [r7, #8]
 2620 08ec 5A43     		muls	r2, r3
1128:Drivers/STM32G0xx_HAL_Driver/Src/stm32g0xx_hal_rcc_ex.c ****           }
 2621              		.loc 1 1128 45
 2622 08ee 4E4B     		ldr	r3, .L148
 2623 08f0 DB68     		ldr	r3, [r3, #12]
1128:Drivers/STM32G0xx_HAL_Driver/Src/stm32g0xx_hal_rcc_ex.c ****           }
 2624              		.loc 1 1128 86
 2625 08f2 5B0E     		lsrs	r3, r3, #25
 2626 08f4 0721     		movs	r1, #7
 2627 08f6 0B40     		ands	r3, r1
1128:Drivers/STM32G0xx_HAL_Driver/Src/stm32g0xx_hal_rcc_ex.c ****           }
 2628              		.loc 1 1128 111
 2629 08f8 0133     		adds	r3, r3, #1
1128:Drivers/STM32G0xx_HAL_Driver/Src/stm32g0xx_hal_rcc_ex.c ****           }
 2630              		.loc 1 1128 23
 2631 08fa 1900     		movs	r1, r3
 2632 08fc 1000     		movs	r0, r2
 2633 08fe FFF7FEFF 		bl	__aeabi_uidiv
 2634 0902 0300     		movs	r3, r0
 2635 0904 7B61     		str	r3, [r7, #20]
1151:Drivers/STM32G0xx_HAL_Driver/Src/stm32g0xx_hal_rcc_ex.c **** #endif /* RCC_CCIPR2_USBSEL */
 2636              		.loc 1 1151 9
 2637 0906 8CE0     		b	.L142
 2638              	.L119:
1132:Drivers/STM32G0xx_HAL_Driver/Src/stm32g0xx_hal_rcc_ex.c ****         {
ARM GAS  C:\Users\SOLDER~1\AppData\Local\Temp\ccUUcBce.s 			page 73


 2639              		.loc 1 1132 17
 2640 0908 FB68     		ldr	r3, [r7, #12]
 2641 090a 002B     		cmp	r3, #0
 2642 090c 10D1     		bne	.L121
1134:Drivers/STM32G0xx_HAL_Driver/Src/stm32g0xx_hal_rcc_ex.c ****           {
 2643              		.loc 1 1134 16
 2644 090e 464B     		ldr	r3, .L148
 2645 0910 1A68     		ldr	r2, [r3]
 2646 0912 8023     		movs	r3, #128
 2647 0914 1B04     		lsls	r3, r3, #16
 2648 0916 1A40     		ands	r2, r3
1134:Drivers/STM32G0xx_HAL_Driver/Src/stm32g0xx_hal_rcc_ex.c ****           {
 2649              		.loc 1 1134 14
 2650 0918 8023     		movs	r3, #128
 2651 091a 1B04     		lsls	r3, r3, #16
 2652 091c 9A42     		cmp	r2, r3
 2653 091e 00D0     		beq	.LCB2145
 2654 0920 7FE0     		b	.L142	@long jump
 2655              	.LCB2145:
1134:Drivers/STM32G0xx_HAL_Driver/Src/stm32g0xx_hal_rcc_ex.c ****           {
 2656              		.loc 1 1134 58 discriminator 1
 2657 0922 FB68     		ldr	r3, [r7, #12]
 2658 0924 002B     		cmp	r3, #0
 2659 0926 00D0     		beq	.LCB2148
 2660 0928 7BE0     		b	.L142	@long jump
 2661              	.LCB2148:
1136:Drivers/STM32G0xx_HAL_Driver/Src/stm32g0xx_hal_rcc_ex.c ****           }
 2662              		.loc 1 1136 23
 2663 092a 414B     		ldr	r3, .L148+8
 2664 092c 7B61     		str	r3, [r7, #20]
1151:Drivers/STM32G0xx_HAL_Driver/Src/stm32g0xx_hal_rcc_ex.c **** #endif /* RCC_CCIPR2_USBSEL */
 2665              		.loc 1 1151 9
 2666 092e 78E0     		b	.L142
 2667              	.L121:
1140:Drivers/STM32G0xx_HAL_Driver/Src/stm32g0xx_hal_rcc_ex.c ****         {
 2668              		.loc 1 1140 17
 2669 0930 FA68     		ldr	r2, [r7, #12]
 2670 0932 8023     		movs	r3, #128
 2671 0934 5B01     		lsls	r3, r3, #5
 2672 0936 9A42     		cmp	r2, r3
 2673 0938 00D0     		beq	.LCB2159
 2674 093a 72E0     		b	.L142	@long jump
 2675              	.LCB2159:
1142:Drivers/STM32G0xx_HAL_Driver/Src/stm32g0xx_hal_rcc_ex.c ****           {
 2676              		.loc 1 1142 16
 2677 093c 3A4B     		ldr	r3, .L148
 2678 093e 1A68     		ldr	r2, [r3]
 2679 0940 8023     		movs	r3, #128
 2680 0942 9B02     		lsls	r3, r3, #10
 2681 0944 1A40     		ands	r2, r3
1142:Drivers/STM32G0xx_HAL_Driver/Src/stm32g0xx_hal_rcc_ex.c ****           {
 2682              		.loc 1 1142 14
 2683 0946 8023     		movs	r3, #128
 2684 0948 9B02     		lsls	r3, r3, #10
 2685 094a 9A42     		cmp	r2, r3
 2686 094c 00D0     		beq	.LCB2168
 2687 094e 68E0     		b	.L142	@long jump
ARM GAS  C:\Users\SOLDER~1\AppData\Local\Temp\ccUUcBce.s 			page 74


 2688              	.LCB2168:
1142:Drivers/STM32G0xx_HAL_Driver/Src/stm32g0xx_hal_rcc_ex.c ****           {
 2689              		.loc 1 1142 56 discriminator 1
 2690 0950 FA68     		ldr	r2, [r7, #12]
 2691 0952 8023     		movs	r3, #128
 2692 0954 5B01     		lsls	r3, r3, #5
 2693 0956 9A42     		cmp	r2, r3
 2694 0958 00D0     		beq	.LCB2173
 2695 095a 62E0     		b	.L142	@long jump
 2696              	.LCB2173:
1144:Drivers/STM32G0xx_HAL_Driver/Src/stm32g0xx_hal_rcc_ex.c ****           }
 2697              		.loc 1 1144 23
 2698 095c 354B     		ldr	r3, .L148+12
 2699 095e 7B61     		str	r3, [r7, #20]
1151:Drivers/STM32G0xx_HAL_Driver/Src/stm32g0xx_hal_rcc_ex.c **** #endif /* RCC_CCIPR2_USBSEL */
 2700              		.loc 1 1151 9
 2701 0960 5FE0     		b	.L142
 2702              	.L48:
1157:Drivers/STM32G0xx_HAL_Driver/Src/stm32g0xx_hal_rcc_ex.c **** 
 2703              		.loc 1 1157 18
 2704 0962 314B     		ldr	r3, .L148
 2705 0964 9A6D     		ldr	r2, [r3, #88]
1157:Drivers/STM32G0xx_HAL_Driver/Src/stm32g0xx_hal_rcc_ex.c **** 
 2706              		.loc 1 1157 16
 2707 0966 C023     		movs	r3, #192
 2708 0968 9B00     		lsls	r3, r3, #2
 2709 096a 1340     		ands	r3, r2
 2710 096c FB60     		str	r3, [r7, #12]
1159:Drivers/STM32G0xx_HAL_Driver/Src/stm32g0xx_hal_rcc_ex.c ****         {
 2711              		.loc 1 1159 12
 2712 096e FA68     		ldr	r2, [r7, #12]
 2713 0970 8023     		movs	r3, #128
 2714 0972 5B00     		lsls	r3, r3, #1
 2715 0974 9A42     		cmp	r2, r3
 2716 0976 1BD1     		bne	.L122
1161:Drivers/STM32G0xx_HAL_Driver/Src/stm32g0xx_hal_rcc_ex.c ****           {
 2717              		.loc 1 1161 15
 2718 0978 2B4B     		ldr	r3, .L148
 2719 097a DA68     		ldr	r2, [r3, #12]
 2720 097c 8023     		movs	r3, #128
 2721 097e 5B04     		lsls	r3, r3, #17
 2722 0980 1340     		ands	r3, r2
1161:Drivers/STM32G0xx_HAL_Driver/Src/stm32g0xx_hal_rcc_ex.c ****           {
 2723              		.loc 1 1161 14
 2724 0982 59D0     		beq	.L143
1164:Drivers/STM32G0xx_HAL_Driver/Src/stm32g0xx_hal_rcc_ex.c ****             frequency = (pllvco * plln) / ((READ_BIT(RCC->PLLCFGR, RCC_PLLCFGR_PLLQ) >> RCC_PLLCFGR
 2725              		.loc 1 1164 20
 2726 0984 284B     		ldr	r3, .L148
 2727 0986 DB68     		ldr	r3, [r3, #12]
1164:Drivers/STM32G0xx_HAL_Driver/Src/stm32g0xx_hal_rcc_ex.c ****             frequency = (pllvco * plln) / ((READ_BIT(RCC->PLLCFGR, RCC_PLLCFGR_PLLQ) >> RCC_PLLCFGR
 2728              		.loc 1 1164 61
 2729 0988 1B0A     		lsrs	r3, r3, #8
1164:Drivers/STM32G0xx_HAL_Driver/Src/stm32g0xx_hal_rcc_ex.c ****             frequency = (pllvco * plln) / ((READ_BIT(RCC->PLLCFGR, RCC_PLLCFGR_PLLQ) >> RCC_PLLCFGR
 2730              		.loc 1 1164 18
 2731 098a 7F22     		movs	r2, #127
 2732 098c 1340     		ands	r3, r2
