ARM GAS  C:\Users\SOLDER~1\AppData\Local\Temp\ccVplH7a.s 			page 1


   1              		.cpu cortex-m0plus
   2              		.arch armv6s-m
   3              		.fpu softvfp
   4              		.eabi_attribute 20, 1
   5              		.eabi_attribute 21, 1
   6              		.eabi_attribute 23, 3
   7              		.eabi_attribute 24, 1
   8              		.eabi_attribute 25, 1
   9              		.eabi_attribute 26, 1
  10              		.eabi_attribute 30, 6
  11              		.eabi_attribute 34, 0
  12              		.eabi_attribute 18, 4
  13              		.file	"stm32g0xx_hal_flash_ex.c"
  14              		.text
  15              	.Ltext0:
  16              		.cfi_sections	.debug_frame
  17              		.section	.rodata.CHANNEL_OFFSET_TAB,"a"
  18              		.align	2
  21              	CHANNEL_OFFSET_TAB:
  22 0000 081C3044 		.ascii	"\010\0340DXl\200"
  22      586C80
  23              		.section	.text.HAL_FLASHEx_Erase,"ax",%progbits
  24              		.align	1
  25              		.global	HAL_FLASHEx_Erase
  26              		.syntax unified
  27              		.code	16
  28              		.thumb_func
  30              	HAL_FLASHEx_Erase:
  31              	.LFB355:
  32              		.file 1 "Drivers/STM32G0xx_HAL_Driver/Src/stm32g0xx_hal_flash_ex.c"
   1:Drivers/STM32G0xx_HAL_Driver/Src/stm32g0xx_hal_flash_ex.c **** /**
   2:Drivers/STM32G0xx_HAL_Driver/Src/stm32g0xx_hal_flash_ex.c ****   ******************************************************************************
   3:Drivers/STM32G0xx_HAL_Driver/Src/stm32g0xx_hal_flash_ex.c ****   * @file    stm32g0xx_hal_flash_ex.c
   4:Drivers/STM32G0xx_HAL_Driver/Src/stm32g0xx_hal_flash_ex.c ****   * @author  MCD Application Team
   5:Drivers/STM32G0xx_HAL_Driver/Src/stm32g0xx_hal_flash_ex.c ****   * @brief   Extended FLASH HAL module driver.
   6:Drivers/STM32G0xx_HAL_Driver/Src/stm32g0xx_hal_flash_ex.c ****   *          This file provides firmware functions to manage the following
   7:Drivers/STM32G0xx_HAL_Driver/Src/stm32g0xx_hal_flash_ex.c ****   *          functionalities of the FLASH extended peripheral:
   8:Drivers/STM32G0xx_HAL_Driver/Src/stm32g0xx_hal_flash_ex.c ****   *           + Extended programming operations functions
   9:Drivers/STM32G0xx_HAL_Driver/Src/stm32g0xx_hal_flash_ex.c ****   *
  10:Drivers/STM32G0xx_HAL_Driver/Src/stm32g0xx_hal_flash_ex.c ****  @verbatim
  11:Drivers/STM32G0xx_HAL_Driver/Src/stm32g0xx_hal_flash_ex.c ****  ==============================================================================
  12:Drivers/STM32G0xx_HAL_Driver/Src/stm32g0xx_hal_flash_ex.c ****                    ##### Flash Extended features #####
  13:Drivers/STM32G0xx_HAL_Driver/Src/stm32g0xx_hal_flash_ex.c ****   ==============================================================================
  14:Drivers/STM32G0xx_HAL_Driver/Src/stm32g0xx_hal_flash_ex.c **** 
  15:Drivers/STM32G0xx_HAL_Driver/Src/stm32g0xx_hal_flash_ex.c ****   [..] Comparing to other previous devices, the FLASH interface for STM32G0xx
  16:Drivers/STM32G0xx_HAL_Driver/Src/stm32g0xx_hal_flash_ex.c ****        devices contains the following additional features
  17:Drivers/STM32G0xx_HAL_Driver/Src/stm32g0xx_hal_flash_ex.c **** 
  18:Drivers/STM32G0xx_HAL_Driver/Src/stm32g0xx_hal_flash_ex.c ****        (+) Capacity up to 128 Kbytes with single bank architecture supporting read-while-write
  19:Drivers/STM32G0xx_HAL_Driver/Src/stm32g0xx_hal_flash_ex.c ****            capability (RWW)
  20:Drivers/STM32G0xx_HAL_Driver/Src/stm32g0xx_hal_flash_ex.c ****        (+) Single bank memory organization
  21:Drivers/STM32G0xx_HAL_Driver/Src/stm32g0xx_hal_flash_ex.c ****        (+) PCROP protection
  22:Drivers/STM32G0xx_HAL_Driver/Src/stm32g0xx_hal_flash_ex.c **** 
  23:Drivers/STM32G0xx_HAL_Driver/Src/stm32g0xx_hal_flash_ex.c ****                         ##### How to use this driver #####
  24:Drivers/STM32G0xx_HAL_Driver/Src/stm32g0xx_hal_flash_ex.c ****  ==============================================================================
  25:Drivers/STM32G0xx_HAL_Driver/Src/stm32g0xx_hal_flash_ex.c ****   [..] This driver provides functions to configure and program the FLASH memory
  26:Drivers/STM32G0xx_HAL_Driver/Src/stm32g0xx_hal_flash_ex.c ****        of all STM32G0xx devices. It includes
  27:Drivers/STM32G0xx_HAL_Driver/Src/stm32g0xx_hal_flash_ex.c ****       (#) Flash Memory Erase functions:
ARM GAS  C:\Users\SOLDER~1\AppData\Local\Temp\ccVplH7a.s 			page 2


  28:Drivers/STM32G0xx_HAL_Driver/Src/stm32g0xx_hal_flash_ex.c ****            (++) Lock and Unlock the FLASH interface using HAL_FLASH_Unlock() and
  29:Drivers/STM32G0xx_HAL_Driver/Src/stm32g0xx_hal_flash_ex.c ****                 HAL_FLASH_Lock() functions
  30:Drivers/STM32G0xx_HAL_Driver/Src/stm32g0xx_hal_flash_ex.c ****            (++) Erase function: Erase page, erase all sectors
  31:Drivers/STM32G0xx_HAL_Driver/Src/stm32g0xx_hal_flash_ex.c ****            (++) There are two modes of erase :
  32:Drivers/STM32G0xx_HAL_Driver/Src/stm32g0xx_hal_flash_ex.c ****              (+++) Polling Mode using HAL_FLASHEx_Erase()
  33:Drivers/STM32G0xx_HAL_Driver/Src/stm32g0xx_hal_flash_ex.c ****              (+++) Interrupt Mode using HAL_FLASHEx_Erase_IT()
  34:Drivers/STM32G0xx_HAL_Driver/Src/stm32g0xx_hal_flash_ex.c **** 
  35:Drivers/STM32G0xx_HAL_Driver/Src/stm32g0xx_hal_flash_ex.c ****       (#) Option Bytes Programming function: Use HAL_FLASHEx_OBProgram() to :
  36:Drivers/STM32G0xx_HAL_Driver/Src/stm32g0xx_hal_flash_ex.c ****         (++) Set/Reset the write protection
  37:Drivers/STM32G0xx_HAL_Driver/Src/stm32g0xx_hal_flash_ex.c ****         (++) Set the Read protection Level
  38:Drivers/STM32G0xx_HAL_Driver/Src/stm32g0xx_hal_flash_ex.c ****         (++) Program the user Option Bytes
  39:Drivers/STM32G0xx_HAL_Driver/Src/stm32g0xx_hal_flash_ex.c ****         (++) Configure the PCROP protection
  40:Drivers/STM32G0xx_HAL_Driver/Src/stm32g0xx_hal_flash_ex.c ****         (++) Set Securable memory area and boot entry point
  41:Drivers/STM32G0xx_HAL_Driver/Src/stm32g0xx_hal_flash_ex.c **** 
  42:Drivers/STM32G0xx_HAL_Driver/Src/stm32g0xx_hal_flash_ex.c ****       (#) Get Option Bytes Configuration function: Use HAL_FLASHEx_OBGetConfig() to :
  43:Drivers/STM32G0xx_HAL_Driver/Src/stm32g0xx_hal_flash_ex.c ****         (++) Get the value of a write protection area
  44:Drivers/STM32G0xx_HAL_Driver/Src/stm32g0xx_hal_flash_ex.c ****         (++) Know if the read protection is activated
  45:Drivers/STM32G0xx_HAL_Driver/Src/stm32g0xx_hal_flash_ex.c ****         (++) Get the value of the user Option Bytes
  46:Drivers/STM32G0xx_HAL_Driver/Src/stm32g0xx_hal_flash_ex.c ****         (++) Get Securable memory area and boot entry point information
  47:Drivers/STM32G0xx_HAL_Driver/Src/stm32g0xx_hal_flash_ex.c **** 
  48:Drivers/STM32G0xx_HAL_Driver/Src/stm32g0xx_hal_flash_ex.c ****       (#) Enable or disable debugger usage using HAL_FLASHEx_EnableDebugger and
  49:Drivers/STM32G0xx_HAL_Driver/Src/stm32g0xx_hal_flash_ex.c ****           HAL_FLASHEx_DisableDebugger.
  50:Drivers/STM32G0xx_HAL_Driver/Src/stm32g0xx_hal_flash_ex.c **** 
  51:Drivers/STM32G0xx_HAL_Driver/Src/stm32g0xx_hal_flash_ex.c ****       (#) Check is flash content is empty or not using HAL_FLASHEx_FlashEmptyCheck.
  52:Drivers/STM32G0xx_HAL_Driver/Src/stm32g0xx_hal_flash_ex.c ****           and modify this setting (for flash loader purpose e.g.) using
  53:Drivers/STM32G0xx_HAL_Driver/Src/stm32g0xx_hal_flash_ex.c ****           HAL_FLASHEx_ForceFlashEmpty.
  54:Drivers/STM32G0xx_HAL_Driver/Src/stm32g0xx_hal_flash_ex.c **** 
  55:Drivers/STM32G0xx_HAL_Driver/Src/stm32g0xx_hal_flash_ex.c ****       (#) Enable securable memory area protectionusing HAL_FLASHEx_EnableSecMemProtection
  56:Drivers/STM32G0xx_HAL_Driver/Src/stm32g0xx_hal_flash_ex.c **** 
  57:Drivers/STM32G0xx_HAL_Driver/Src/stm32g0xx_hal_flash_ex.c ****  @endverbatim
  58:Drivers/STM32G0xx_HAL_Driver/Src/stm32g0xx_hal_flash_ex.c ****   ******************************************************************************
  59:Drivers/STM32G0xx_HAL_Driver/Src/stm32g0xx_hal_flash_ex.c ****   * @attention
  60:Drivers/STM32G0xx_HAL_Driver/Src/stm32g0xx_hal_flash_ex.c ****   *
  61:Drivers/STM32G0xx_HAL_Driver/Src/stm32g0xx_hal_flash_ex.c ****   * <h2><center>&copy; Copyright (c) 2018 STMicroelectronics.
  62:Drivers/STM32G0xx_HAL_Driver/Src/stm32g0xx_hal_flash_ex.c ****   * All rights reserved.</center></h2>
  63:Drivers/STM32G0xx_HAL_Driver/Src/stm32g0xx_hal_flash_ex.c ****   *
  64:Drivers/STM32G0xx_HAL_Driver/Src/stm32g0xx_hal_flash_ex.c ****   * This software component is licensed by ST under BSD 3-Clause license,
  65:Drivers/STM32G0xx_HAL_Driver/Src/stm32g0xx_hal_flash_ex.c ****   * the "License"; You may not use this file except in compliance with the
  66:Drivers/STM32G0xx_HAL_Driver/Src/stm32g0xx_hal_flash_ex.c ****   * License. You may obtain a copy of the License at:
  67:Drivers/STM32G0xx_HAL_Driver/Src/stm32g0xx_hal_flash_ex.c ****   *                        opensource.org/licenses/BSD-3-Clause
  68:Drivers/STM32G0xx_HAL_Driver/Src/stm32g0xx_hal_flash_ex.c ****   *
  69:Drivers/STM32G0xx_HAL_Driver/Src/stm32g0xx_hal_flash_ex.c ****   ******************************************************************************
  70:Drivers/STM32G0xx_HAL_Driver/Src/stm32g0xx_hal_flash_ex.c ****   */
  71:Drivers/STM32G0xx_HAL_Driver/Src/stm32g0xx_hal_flash_ex.c **** 
  72:Drivers/STM32G0xx_HAL_Driver/Src/stm32g0xx_hal_flash_ex.c **** /* Includes ------------------------------------------------------------------*/
  73:Drivers/STM32G0xx_HAL_Driver/Src/stm32g0xx_hal_flash_ex.c **** #include "stm32g0xx_hal.h"
  74:Drivers/STM32G0xx_HAL_Driver/Src/stm32g0xx_hal_flash_ex.c **** 
  75:Drivers/STM32G0xx_HAL_Driver/Src/stm32g0xx_hal_flash_ex.c **** /** @addtogroup STM32G0xx_HAL_Driver
  76:Drivers/STM32G0xx_HAL_Driver/Src/stm32g0xx_hal_flash_ex.c ****   * @{
  77:Drivers/STM32G0xx_HAL_Driver/Src/stm32g0xx_hal_flash_ex.c ****   */
  78:Drivers/STM32G0xx_HAL_Driver/Src/stm32g0xx_hal_flash_ex.c **** 
  79:Drivers/STM32G0xx_HAL_Driver/Src/stm32g0xx_hal_flash_ex.c **** /** @defgroup FLASHEx FLASHEx
  80:Drivers/STM32G0xx_HAL_Driver/Src/stm32g0xx_hal_flash_ex.c ****   * @brief FLASH Extended HAL module driver
  81:Drivers/STM32G0xx_HAL_Driver/Src/stm32g0xx_hal_flash_ex.c ****   * @{
  82:Drivers/STM32G0xx_HAL_Driver/Src/stm32g0xx_hal_flash_ex.c ****   */
  83:Drivers/STM32G0xx_HAL_Driver/Src/stm32g0xx_hal_flash_ex.c **** 
  84:Drivers/STM32G0xx_HAL_Driver/Src/stm32g0xx_hal_flash_ex.c **** #ifdef HAL_FLASH_MODULE_ENABLED
ARM GAS  C:\Users\SOLDER~1\AppData\Local\Temp\ccVplH7a.s 			page 3


  85:Drivers/STM32G0xx_HAL_Driver/Src/stm32g0xx_hal_flash_ex.c **** 
  86:Drivers/STM32G0xx_HAL_Driver/Src/stm32g0xx_hal_flash_ex.c **** /* Private typedef -----------------------------------------------------------*/
  87:Drivers/STM32G0xx_HAL_Driver/Src/stm32g0xx_hal_flash_ex.c **** /* Private define ------------------------------------------------------------*/
  88:Drivers/STM32G0xx_HAL_Driver/Src/stm32g0xx_hal_flash_ex.c **** /* Private macro -------------------------------------------------------------*/
  89:Drivers/STM32G0xx_HAL_Driver/Src/stm32g0xx_hal_flash_ex.c **** /* Private variables ---------------------------------------------------------*/
  90:Drivers/STM32G0xx_HAL_Driver/Src/stm32g0xx_hal_flash_ex.c **** /* Private function prototypes -----------------------------------------------*/
  91:Drivers/STM32G0xx_HAL_Driver/Src/stm32g0xx_hal_flash_ex.c **** /** @defgroup FLASHEx_Private_Functions FLASHEx Private Functions
  92:Drivers/STM32G0xx_HAL_Driver/Src/stm32g0xx_hal_flash_ex.c ****   * @{
  93:Drivers/STM32G0xx_HAL_Driver/Src/stm32g0xx_hal_flash_ex.c ****   */
  94:Drivers/STM32G0xx_HAL_Driver/Src/stm32g0xx_hal_flash_ex.c **** static void               FLASH_MassErase(uint32_t Banks);
  95:Drivers/STM32G0xx_HAL_Driver/Src/stm32g0xx_hal_flash_ex.c **** void                      FLASH_FlushCaches(void);
  96:Drivers/STM32G0xx_HAL_Driver/Src/stm32g0xx_hal_flash_ex.c **** static void               FLASH_OB_WRPConfig(uint32_t WRPArea, uint32_t WRPStartOffset, uint32_t WR
  97:Drivers/STM32G0xx_HAL_Driver/Src/stm32g0xx_hal_flash_ex.c **** static void               FLASH_OB_GetWRP(uint32_t WRPArea, uint32_t *WRPStartOffset, uint32_t *WRD
  98:Drivers/STM32G0xx_HAL_Driver/Src/stm32g0xx_hal_flash_ex.c **** static void               FLASH_OB_OptrConfig(uint32_t UserType, uint32_t UserConfig, uint32_t RDPL
  99:Drivers/STM32G0xx_HAL_Driver/Src/stm32g0xx_hal_flash_ex.c **** static uint32_t           FLASH_OB_GetRDP(void);
 100:Drivers/STM32G0xx_HAL_Driver/Src/stm32g0xx_hal_flash_ex.c **** static uint32_t           FLASH_OB_GetUser(void);
 101:Drivers/STM32G0xx_HAL_Driver/Src/stm32g0xx_hal_flash_ex.c **** #if defined(FLASH_PCROP_SUPPORT)
 102:Drivers/STM32G0xx_HAL_Driver/Src/stm32g0xx_hal_flash_ex.c **** static void               FLASH_OB_PCROP1AConfig(uint32_t PCROPConfig, uint32_t PCROP1AStartAddr,
 103:Drivers/STM32G0xx_HAL_Driver/Src/stm32g0xx_hal_flash_ex.c ****                                                  uint32_t PCROP1AEndAddr);
 104:Drivers/STM32G0xx_HAL_Driver/Src/stm32g0xx_hal_flash_ex.c **** static void               FLASH_OB_PCROP1BConfig(uint32_t PCROP1BStartAddr, uint32_t PCROP1BEndAddr
 105:Drivers/STM32G0xx_HAL_Driver/Src/stm32g0xx_hal_flash_ex.c **** static void               FLASH_OB_GetPCROP1A(uint32_t *PCROPConfig, uint32_t *PCROP1AStartAddr,
 106:Drivers/STM32G0xx_HAL_Driver/Src/stm32g0xx_hal_flash_ex.c ****                                               uint32_t *PCROP1AEndAddr);
 107:Drivers/STM32G0xx_HAL_Driver/Src/stm32g0xx_hal_flash_ex.c **** static void               FLASH_OB_GetPCROP1B(uint32_t *PCROP1BStartAddr, uint32_t *PCROP1BEndAddr)
 108:Drivers/STM32G0xx_HAL_Driver/Src/stm32g0xx_hal_flash_ex.c **** #if defined(FLASH_DBANK_SUPPORT)
 109:Drivers/STM32G0xx_HAL_Driver/Src/stm32g0xx_hal_flash_ex.c **** static void               FLASH_OB_PCROP2AConfig(uint32_t PCROP2AStartAddr, uint32_t PCROP2AEndAddr
 110:Drivers/STM32G0xx_HAL_Driver/Src/stm32g0xx_hal_flash_ex.c **** static void               FLASH_OB_PCROP2BConfig(uint32_t PCROP2BStartAddr, uint32_t PCROP2BEndAddr
 111:Drivers/STM32G0xx_HAL_Driver/Src/stm32g0xx_hal_flash_ex.c **** static void               FLASH_OB_GetPCROP2A(uint32_t *PCROP2AStartAddr, uint32_t *PCROP2AEndAddr)
 112:Drivers/STM32G0xx_HAL_Driver/Src/stm32g0xx_hal_flash_ex.c **** static void               FLASH_OB_GetPCROP2B(uint32_t *PCROP2BStartAddr, uint32_t *PCROP2BEndAddr)
 113:Drivers/STM32G0xx_HAL_Driver/Src/stm32g0xx_hal_flash_ex.c **** #endif /* FLASH_DBANK_SUPPORT */
 114:Drivers/STM32G0xx_HAL_Driver/Src/stm32g0xx_hal_flash_ex.c **** #endif /* FLASH_PCROP_SUPPORT */
 115:Drivers/STM32G0xx_HAL_Driver/Src/stm32g0xx_hal_flash_ex.c **** #if defined(FLASH_SECURABLE_MEMORY_SUPPORT)
 116:Drivers/STM32G0xx_HAL_Driver/Src/stm32g0xx_hal_flash_ex.c **** #if defined(FLASH_DBANK_SUPPORT)
 117:Drivers/STM32G0xx_HAL_Driver/Src/stm32g0xx_hal_flash_ex.c **** static void               FLASH_OB_SecMemConfig(uint32_t BootEntry, uint32_t SecSize, uint32_t SecS
 118:Drivers/STM32G0xx_HAL_Driver/Src/stm32g0xx_hal_flash_ex.c **** static void               FLASH_OB_GetSecMem(uint32_t *BootEntry, uint32_t *SecSize, uint32_t *SecS
 119:Drivers/STM32G0xx_HAL_Driver/Src/stm32g0xx_hal_flash_ex.c **** #else
 120:Drivers/STM32G0xx_HAL_Driver/Src/stm32g0xx_hal_flash_ex.c **** static void               FLASH_OB_SecMemConfig(uint32_t BootEntry, uint32_t SecSize);
 121:Drivers/STM32G0xx_HAL_Driver/Src/stm32g0xx_hal_flash_ex.c **** static void               FLASH_OB_GetSecMem(uint32_t *BootEntry, uint32_t *SecSize);
 122:Drivers/STM32G0xx_HAL_Driver/Src/stm32g0xx_hal_flash_ex.c **** #endif /* FLASH_DBANK_SUPPORT */
 123:Drivers/STM32G0xx_HAL_Driver/Src/stm32g0xx_hal_flash_ex.c **** #endif /* FLASH_SECURABLE_MEMORY_SUPPORT */
 124:Drivers/STM32G0xx_HAL_Driver/Src/stm32g0xx_hal_flash_ex.c **** /**
 125:Drivers/STM32G0xx_HAL_Driver/Src/stm32g0xx_hal_flash_ex.c ****   * @}
 126:Drivers/STM32G0xx_HAL_Driver/Src/stm32g0xx_hal_flash_ex.c ****   */
 127:Drivers/STM32G0xx_HAL_Driver/Src/stm32g0xx_hal_flash_ex.c **** 
 128:Drivers/STM32G0xx_HAL_Driver/Src/stm32g0xx_hal_flash_ex.c **** /* Exported functions -------------------------------------------------------*/
 129:Drivers/STM32G0xx_HAL_Driver/Src/stm32g0xx_hal_flash_ex.c **** /** @defgroup FLASHEx_Exported_Functions FLASH Extended Exported Functions
 130:Drivers/STM32G0xx_HAL_Driver/Src/stm32g0xx_hal_flash_ex.c ****   * @{
 131:Drivers/STM32G0xx_HAL_Driver/Src/stm32g0xx_hal_flash_ex.c ****   */
 132:Drivers/STM32G0xx_HAL_Driver/Src/stm32g0xx_hal_flash_ex.c **** 
 133:Drivers/STM32G0xx_HAL_Driver/Src/stm32g0xx_hal_flash_ex.c **** /** @defgroup FLASHEx_Exported_Functions_Group1 Extended IO operation functions
 134:Drivers/STM32G0xx_HAL_Driver/Src/stm32g0xx_hal_flash_ex.c ****   *  @brief   Extended IO operation functions
 135:Drivers/STM32G0xx_HAL_Driver/Src/stm32g0xx_hal_flash_ex.c ****   *
 136:Drivers/STM32G0xx_HAL_Driver/Src/stm32g0xx_hal_flash_ex.c **** @verbatim
 137:Drivers/STM32G0xx_HAL_Driver/Src/stm32g0xx_hal_flash_ex.c ****  ===============================================================================
 138:Drivers/STM32G0xx_HAL_Driver/Src/stm32g0xx_hal_flash_ex.c ****                 ##### Extended programming operation functions #####
 139:Drivers/STM32G0xx_HAL_Driver/Src/stm32g0xx_hal_flash_ex.c ****  ===============================================================================
 140:Drivers/STM32G0xx_HAL_Driver/Src/stm32g0xx_hal_flash_ex.c ****     [..]
 141:Drivers/STM32G0xx_HAL_Driver/Src/stm32g0xx_hal_flash_ex.c ****     This subsection provides a set of functions allowing to manage the Extended FLASH
ARM GAS  C:\Users\SOLDER~1\AppData\Local\Temp\ccVplH7a.s 			page 4


 142:Drivers/STM32G0xx_HAL_Driver/Src/stm32g0xx_hal_flash_ex.c ****     programming operations Operations.
 143:Drivers/STM32G0xx_HAL_Driver/Src/stm32g0xx_hal_flash_ex.c **** 
 144:Drivers/STM32G0xx_HAL_Driver/Src/stm32g0xx_hal_flash_ex.c **** @endverbatim
 145:Drivers/STM32G0xx_HAL_Driver/Src/stm32g0xx_hal_flash_ex.c ****   * @{
 146:Drivers/STM32G0xx_HAL_Driver/Src/stm32g0xx_hal_flash_ex.c ****   */
 147:Drivers/STM32G0xx_HAL_Driver/Src/stm32g0xx_hal_flash_ex.c **** /**
 148:Drivers/STM32G0xx_HAL_Driver/Src/stm32g0xx_hal_flash_ex.c ****   * @brief  Perform a mass erase or erase the specified FLASH memory pages.
 149:Drivers/STM32G0xx_HAL_Driver/Src/stm32g0xx_hal_flash_ex.c ****   * @param[in]  pEraseInit Pointer to an @ref FLASH_EraseInitTypeDef structure that
 150:Drivers/STM32G0xx_HAL_Driver/Src/stm32g0xx_hal_flash_ex.c ****   *         contains the configuration information for the erasing.
 151:Drivers/STM32G0xx_HAL_Driver/Src/stm32g0xx_hal_flash_ex.c ****   * @param[out]  PageError Pointer to variable that contains the configuration
 152:Drivers/STM32G0xx_HAL_Driver/Src/stm32g0xx_hal_flash_ex.c ****   *         information on faulty page in case of error (0xFFFFFFFF means that all
 153:Drivers/STM32G0xx_HAL_Driver/Src/stm32g0xx_hal_flash_ex.c ****   *         the pages have been correctly erased)
 154:Drivers/STM32G0xx_HAL_Driver/Src/stm32g0xx_hal_flash_ex.c ****   * @retval HAL Status
 155:Drivers/STM32G0xx_HAL_Driver/Src/stm32g0xx_hal_flash_ex.c ****   */
 156:Drivers/STM32G0xx_HAL_Driver/Src/stm32g0xx_hal_flash_ex.c **** HAL_StatusTypeDef HAL_FLASHEx_Erase(FLASH_EraseInitTypeDef *pEraseInit, uint32_t *PageError)
 157:Drivers/STM32G0xx_HAL_Driver/Src/stm32g0xx_hal_flash_ex.c **** {
  33              		.loc 1 157 1
  34              		.cfi_startproc
  35              		@ args = 0, pretend = 0, frame = 16
  36              		@ frame_needed = 1, uses_anonymous_args = 0
  37 0000 B0B5     		push	{r4, r5, r7, lr}
  38              		.cfi_def_cfa_offset 16
  39              		.cfi_offset 4, -16
  40              		.cfi_offset 5, -12
  41              		.cfi_offset 7, -8
  42              		.cfi_offset 14, -4
  43 0002 84B0     		sub	sp, sp, #16
  44              		.cfi_def_cfa_offset 32
  45 0004 00AF     		add	r7, sp, #0
  46              		.cfi_def_cfa_register 7
  47 0006 7860     		str	r0, [r7, #4]
  48 0008 3960     		str	r1, [r7]
 158:Drivers/STM32G0xx_HAL_Driver/Src/stm32g0xx_hal_flash_ex.c ****   HAL_StatusTypeDef status;
 159:Drivers/STM32G0xx_HAL_Driver/Src/stm32g0xx_hal_flash_ex.c ****   uint32_t index;
 160:Drivers/STM32G0xx_HAL_Driver/Src/stm32g0xx_hal_flash_ex.c **** 
 161:Drivers/STM32G0xx_HAL_Driver/Src/stm32g0xx_hal_flash_ex.c ****   /* Check the parameters */
 162:Drivers/STM32G0xx_HAL_Driver/Src/stm32g0xx_hal_flash_ex.c ****   assert_param(IS_FLASH_TYPEERASE(pEraseInit->TypeErase));
 163:Drivers/STM32G0xx_HAL_Driver/Src/stm32g0xx_hal_flash_ex.c **** 
 164:Drivers/STM32G0xx_HAL_Driver/Src/stm32g0xx_hal_flash_ex.c ****   /* Process Locked */
 165:Drivers/STM32G0xx_HAL_Driver/Src/stm32g0xx_hal_flash_ex.c ****   __HAL_LOCK(&pFlash);
  49              		.loc 1 165 3
  50 000a 334B     		ldr	r3, .L10
  51 000c 1B78     		ldrb	r3, [r3]
  52 000e 012B     		cmp	r3, #1
  53 0010 01D1     		bne	.L2
  54              		.loc 1 165 3 is_stmt 0 discriminator 1
  55 0012 0223     		movs	r3, #2
  56 0014 5CE0     		b	.L3
  57              	.L2:
  58              		.loc 1 165 3 discriminator 2
  59 0016 304B     		ldr	r3, .L10
  60 0018 0122     		movs	r2, #1
  61 001a 1A70     		strb	r2, [r3]
 166:Drivers/STM32G0xx_HAL_Driver/Src/stm32g0xx_hal_flash_ex.c **** 
 167:Drivers/STM32G0xx_HAL_Driver/Src/stm32g0xx_hal_flash_ex.c ****   /* Reset error code */
 168:Drivers/STM32G0xx_HAL_Driver/Src/stm32g0xx_hal_flash_ex.c ****   pFlash.ErrorCode = HAL_FLASH_ERROR_NONE;
  62              		.loc 1 168 20 is_stmt 1 discriminator 2
ARM GAS  C:\Users\SOLDER~1\AppData\Local\Temp\ccVplH7a.s 			page 5


  63 001c 2E4B     		ldr	r3, .L10
  64 001e 0022     		movs	r2, #0
  65 0020 5A60     		str	r2, [r3, #4]
 169:Drivers/STM32G0xx_HAL_Driver/Src/stm32g0xx_hal_flash_ex.c **** 
 170:Drivers/STM32G0xx_HAL_Driver/Src/stm32g0xx_hal_flash_ex.c ****   /* Wait for last operation to be completed */
 171:Drivers/STM32G0xx_HAL_Driver/Src/stm32g0xx_hal_flash_ex.c ****   status = FLASH_WaitForLastOperation(FLASH_TIMEOUT_VALUE);
  66              		.loc 1 171 12 discriminator 2
  67 0022 0F25     		movs	r5, #15
  68 0024 7C19     		adds	r4, r7, r5
  69 0026 FA23     		movs	r3, #250
  70 0028 9B00     		lsls	r3, r3, #2
  71 002a 1800     		movs	r0, r3
  72 002c FFF7FEFF 		bl	FLASH_WaitForLastOperation
  73 0030 0300     		movs	r3, r0
  74 0032 2370     		strb	r3, [r4]
 172:Drivers/STM32G0xx_HAL_Driver/Src/stm32g0xx_hal_flash_ex.c **** 
 173:Drivers/STM32G0xx_HAL_Driver/Src/stm32g0xx_hal_flash_ex.c ****   if (status == HAL_OK)
  75              		.loc 1 173 6 discriminator 2
  76 0034 2C00     		movs	r4, r5
  77 0036 3B19     		adds	r3, r7, r4
  78 0038 1B78     		ldrb	r3, [r3]
  79 003a 002B     		cmp	r3, #0
  80 003c 42D1     		bne	.L4
 174:Drivers/STM32G0xx_HAL_Driver/Src/stm32g0xx_hal_flash_ex.c ****   {
 175:Drivers/STM32G0xx_HAL_Driver/Src/stm32g0xx_hal_flash_ex.c **** #if !defined(FLASH_DBANK_SUPPORT)
 176:Drivers/STM32G0xx_HAL_Driver/Src/stm32g0xx_hal_flash_ex.c ****     /* For single bank product force Banks to Bank 1 */
 177:Drivers/STM32G0xx_HAL_Driver/Src/stm32g0xx_hal_flash_ex.c ****     pEraseInit->Banks = FLASH_BANK_1;
 178:Drivers/STM32G0xx_HAL_Driver/Src/stm32g0xx_hal_flash_ex.c **** #endif /* FLASH_DBANK_SUPPORT */
 179:Drivers/STM32G0xx_HAL_Driver/Src/stm32g0xx_hal_flash_ex.c **** 
 180:Drivers/STM32G0xx_HAL_Driver/Src/stm32g0xx_hal_flash_ex.c ****     if (pEraseInit->TypeErase == FLASH_TYPEERASE_MASS)
  81              		.loc 1 180 19
  82 003e 7B68     		ldr	r3, [r7, #4]
  83 0040 1B68     		ldr	r3, [r3]
  84              		.loc 1 180 8
  85 0042 042B     		cmp	r3, #4
  86 0044 0DD1     		bne	.L5
 181:Drivers/STM32G0xx_HAL_Driver/Src/stm32g0xx_hal_flash_ex.c ****     {
 182:Drivers/STM32G0xx_HAL_Driver/Src/stm32g0xx_hal_flash_ex.c ****       /* Proceed to Mass Erase */
 183:Drivers/STM32G0xx_HAL_Driver/Src/stm32g0xx_hal_flash_ex.c ****       FLASH_MassErase(pEraseInit->Banks);
  87              		.loc 1 183 7
  88 0046 7B68     		ldr	r3, [r7, #4]
  89 0048 5B68     		ldr	r3, [r3, #4]
  90 004a 1800     		movs	r0, r3
  91 004c FFF7FEFF 		bl	FLASH_MassErase
 184:Drivers/STM32G0xx_HAL_Driver/Src/stm32g0xx_hal_flash_ex.c **** 
 185:Drivers/STM32G0xx_HAL_Driver/Src/stm32g0xx_hal_flash_ex.c ****       /* Wait for last operation to be completed */
 186:Drivers/STM32G0xx_HAL_Driver/Src/stm32g0xx_hal_flash_ex.c ****       status = FLASH_WaitForLastOperation(FLASH_TIMEOUT_VALUE);
  92              		.loc 1 186 16
  93 0050 3C19     		adds	r4, r7, r4
  94 0052 FA23     		movs	r3, #250
  95 0054 9B00     		lsls	r3, r3, #2
  96 0056 1800     		movs	r0, r3
  97 0058 FFF7FEFF 		bl	FLASH_WaitForLastOperation
  98 005c 0300     		movs	r3, r0
  99 005e 2370     		strb	r3, [r4]
 100 0060 30E0     		b	.L4
 101              	.L5:
ARM GAS  C:\Users\SOLDER~1\AppData\Local\Temp\ccVplH7a.s 			page 6


 187:Drivers/STM32G0xx_HAL_Driver/Src/stm32g0xx_hal_flash_ex.c ****     }
 188:Drivers/STM32G0xx_HAL_Driver/Src/stm32g0xx_hal_flash_ex.c ****     else
 189:Drivers/STM32G0xx_HAL_Driver/Src/stm32g0xx_hal_flash_ex.c ****     {
 190:Drivers/STM32G0xx_HAL_Driver/Src/stm32g0xx_hal_flash_ex.c ****       /*Initialization of PageError variable*/
 191:Drivers/STM32G0xx_HAL_Driver/Src/stm32g0xx_hal_flash_ex.c ****       *PageError = 0xFFFFFFFFU;
 102              		.loc 1 191 18
 103 0062 3B68     		ldr	r3, [r7]
 104 0064 0122     		movs	r2, #1
 105 0066 5242     		rsbs	r2, r2, #0
 106 0068 1A60     		str	r2, [r3]
 192:Drivers/STM32G0xx_HAL_Driver/Src/stm32g0xx_hal_flash_ex.c **** 
 193:Drivers/STM32G0xx_HAL_Driver/Src/stm32g0xx_hal_flash_ex.c ****       for (index = pEraseInit->Page; index < (pEraseInit->Page + pEraseInit->NbPages); index++)
 107              		.loc 1 193 18
 108 006a 7B68     		ldr	r3, [r7, #4]
 109 006c 9B68     		ldr	r3, [r3, #8]
 110 006e BB60     		str	r3, [r7, #8]
 111              		.loc 1 193 7
 112 0070 1AE0     		b	.L6
 113              	.L9:
 194:Drivers/STM32G0xx_HAL_Driver/Src/stm32g0xx_hal_flash_ex.c ****       {
 195:Drivers/STM32G0xx_HAL_Driver/Src/stm32g0xx_hal_flash_ex.c ****         /* Start erase page */
 196:Drivers/STM32G0xx_HAL_Driver/Src/stm32g0xx_hal_flash_ex.c ****         FLASH_PageErase(pEraseInit->Banks, index);
 114              		.loc 1 196 9
 115 0072 7B68     		ldr	r3, [r7, #4]
 116 0074 5B68     		ldr	r3, [r3, #4]
 117 0076 BA68     		ldr	r2, [r7, #8]
 118 0078 1100     		movs	r1, r2
 119 007a 1800     		movs	r0, r3
 120 007c FFF7FEFF 		bl	FLASH_PageErase
 197:Drivers/STM32G0xx_HAL_Driver/Src/stm32g0xx_hal_flash_ex.c **** 
 198:Drivers/STM32G0xx_HAL_Driver/Src/stm32g0xx_hal_flash_ex.c ****         /* Wait for last operation to be completed */
 199:Drivers/STM32G0xx_HAL_Driver/Src/stm32g0xx_hal_flash_ex.c ****         status = FLASH_WaitForLastOperation(FLASH_TIMEOUT_VALUE);
 121              		.loc 1 199 18
 122 0080 0F25     		movs	r5, #15
 123 0082 7C19     		adds	r4, r7, r5
 124 0084 FA23     		movs	r3, #250
 125 0086 9B00     		lsls	r3, r3, #2
 126 0088 1800     		movs	r0, r3
 127 008a FFF7FEFF 		bl	FLASH_WaitForLastOperation
 128 008e 0300     		movs	r3, r0
 129 0090 2370     		strb	r3, [r4]
 200:Drivers/STM32G0xx_HAL_Driver/Src/stm32g0xx_hal_flash_ex.c **** 
 201:Drivers/STM32G0xx_HAL_Driver/Src/stm32g0xx_hal_flash_ex.c ****         if (status != HAL_OK)
 130              		.loc 1 201 12
 131 0092 7B19     		adds	r3, r7, r5
 132 0094 1B78     		ldrb	r3, [r3]
 133 0096 002B     		cmp	r3, #0
 134 0098 03D0     		beq	.L7
 202:Drivers/STM32G0xx_HAL_Driver/Src/stm32g0xx_hal_flash_ex.c ****         {
 203:Drivers/STM32G0xx_HAL_Driver/Src/stm32g0xx_hal_flash_ex.c ****           /* In case of error, stop erase procedure and return the faulty address */
 204:Drivers/STM32G0xx_HAL_Driver/Src/stm32g0xx_hal_flash_ex.c ****           *PageError = index;
 135              		.loc 1 204 22
 136 009a 3B68     		ldr	r3, [r7]
 137 009c BA68     		ldr	r2, [r7, #8]
 138 009e 1A60     		str	r2, [r3]
 205:Drivers/STM32G0xx_HAL_Driver/Src/stm32g0xx_hal_flash_ex.c ****           break;
 139              		.loc 1 205 11
ARM GAS  C:\Users\SOLDER~1\AppData\Local\Temp\ccVplH7a.s 			page 7


 140 00a0 0AE0     		b	.L8
 141              	.L7:
 193:Drivers/STM32G0xx_HAL_Driver/Src/stm32g0xx_hal_flash_ex.c ****       {
 142              		.loc 1 193 93 discriminator 2
 143 00a2 BB68     		ldr	r3, [r7, #8]
 144 00a4 0133     		adds	r3, r3, #1
 145 00a6 BB60     		str	r3, [r7, #8]
 146              	.L6:
 193:Drivers/STM32G0xx_HAL_Driver/Src/stm32g0xx_hal_flash_ex.c ****       {
 147              		.loc 1 193 57 discriminator 1
 148 00a8 7B68     		ldr	r3, [r7, #4]
 149 00aa 9A68     		ldr	r2, [r3, #8]
 193:Drivers/STM32G0xx_HAL_Driver/Src/stm32g0xx_hal_flash_ex.c ****       {
 150              		.loc 1 193 76 discriminator 1
 151 00ac 7B68     		ldr	r3, [r7, #4]
 152 00ae DB68     		ldr	r3, [r3, #12]
 193:Drivers/STM32G0xx_HAL_Driver/Src/stm32g0xx_hal_flash_ex.c ****       {
 153              		.loc 1 193 64 discriminator 1
 154 00b0 D318     		adds	r3, r2, r3
 193:Drivers/STM32G0xx_HAL_Driver/Src/stm32g0xx_hal_flash_ex.c ****       {
 155              		.loc 1 193 7 discriminator 1
 156 00b2 BA68     		ldr	r2, [r7, #8]
 157 00b4 9A42     		cmp	r2, r3
 158 00b6 DCD3     		bcc	.L9
 159              	.L8:
 206:Drivers/STM32G0xx_HAL_Driver/Src/stm32g0xx_hal_flash_ex.c ****         }
 207:Drivers/STM32G0xx_HAL_Driver/Src/stm32g0xx_hal_flash_ex.c ****       }
 208:Drivers/STM32G0xx_HAL_Driver/Src/stm32g0xx_hal_flash_ex.c **** 
 209:Drivers/STM32G0xx_HAL_Driver/Src/stm32g0xx_hal_flash_ex.c ****       /* If operation is completed or interrupted, disable the Page Erase Bit */
 210:Drivers/STM32G0xx_HAL_Driver/Src/stm32g0xx_hal_flash_ex.c ****       CLEAR_BIT(FLASH->CR, FLASH_CR_PER);
 160              		.loc 1 210 7
 161 00b8 084B     		ldr	r3, .L10+4
 162 00ba 5A69     		ldr	r2, [r3, #20]
 163 00bc 074B     		ldr	r3, .L10+4
 164 00be 0221     		movs	r1, #2
 165 00c0 8A43     		bics	r2, r1
 166 00c2 5A61     		str	r2, [r3, #20]
 167              	.L4:
 211:Drivers/STM32G0xx_HAL_Driver/Src/stm32g0xx_hal_flash_ex.c ****     }
 212:Drivers/STM32G0xx_HAL_Driver/Src/stm32g0xx_hal_flash_ex.c ****   }
 213:Drivers/STM32G0xx_HAL_Driver/Src/stm32g0xx_hal_flash_ex.c **** 
 214:Drivers/STM32G0xx_HAL_Driver/Src/stm32g0xx_hal_flash_ex.c ****   /* Process Unlocked */
 215:Drivers/STM32G0xx_HAL_Driver/Src/stm32g0xx_hal_flash_ex.c ****   __HAL_UNLOCK(&pFlash);
 168              		.loc 1 215 3
 169 00c4 044B     		ldr	r3, .L10
 170 00c6 0022     		movs	r2, #0
 171 00c8 1A70     		strb	r2, [r3]
 216:Drivers/STM32G0xx_HAL_Driver/Src/stm32g0xx_hal_flash_ex.c **** 
 217:Drivers/STM32G0xx_HAL_Driver/Src/stm32g0xx_hal_flash_ex.c ****   /* return status */
 218:Drivers/STM32G0xx_HAL_Driver/Src/stm32g0xx_hal_flash_ex.c ****   return status;
 172              		.loc 1 218 10
 173 00ca 0F23     		movs	r3, #15
 174 00cc FB18     		adds	r3, r7, r3
 175 00ce 1B78     		ldrb	r3, [r3]
 176              	.L3:
 219:Drivers/STM32G0xx_HAL_Driver/Src/stm32g0xx_hal_flash_ex.c **** }
 177              		.loc 1 219 1
ARM GAS  C:\Users\SOLDER~1\AppData\Local\Temp\ccVplH7a.s 			page 8


 178 00d0 1800     		movs	r0, r3
 179 00d2 BD46     		mov	sp, r7
 180 00d4 04B0     		add	sp, sp, #16
 181              		@ sp needed
 182 00d6 B0BD     		pop	{r4, r5, r7, pc}
 183              	.L11:
 184              		.align	2
 185              	.L10:
 186 00d8 00000000 		.word	pFlash
 187 00dc 00200240 		.word	1073881088
 188              		.cfi_endproc
 189              	.LFE355:
 191              		.section	.text.HAL_FLASHEx_Erase_IT,"ax",%progbits
 192              		.align	1
 193              		.global	HAL_FLASHEx_Erase_IT
 194              		.syntax unified
 195              		.code	16
 196              		.thumb_func
 198              	HAL_FLASHEx_Erase_IT:
 199              	.LFB356:
 220:Drivers/STM32G0xx_HAL_Driver/Src/stm32g0xx_hal_flash_ex.c **** 
 221:Drivers/STM32G0xx_HAL_Driver/Src/stm32g0xx_hal_flash_ex.c **** 
 222:Drivers/STM32G0xx_HAL_Driver/Src/stm32g0xx_hal_flash_ex.c **** /**
 223:Drivers/STM32G0xx_HAL_Driver/Src/stm32g0xx_hal_flash_ex.c ****   * @brief  Perform a mass erase or erase the specified FLASH memory pages with interrupt enabled.
 224:Drivers/STM32G0xx_HAL_Driver/Src/stm32g0xx_hal_flash_ex.c ****   * @param  pEraseInit Pointer to an @ref FLASH_EraseInitTypeDef structure that
 225:Drivers/STM32G0xx_HAL_Driver/Src/stm32g0xx_hal_flash_ex.c ****   *         contains the configuration information for the erasing.
 226:Drivers/STM32G0xx_HAL_Driver/Src/stm32g0xx_hal_flash_ex.c ****   * @retval HAL Status
 227:Drivers/STM32G0xx_HAL_Driver/Src/stm32g0xx_hal_flash_ex.c ****   */
 228:Drivers/STM32G0xx_HAL_Driver/Src/stm32g0xx_hal_flash_ex.c **** HAL_StatusTypeDef HAL_FLASHEx_Erase_IT(FLASH_EraseInitTypeDef *pEraseInit)
 229:Drivers/STM32G0xx_HAL_Driver/Src/stm32g0xx_hal_flash_ex.c **** {
 200              		.loc 1 229 1
 201              		.cfi_startproc
 202              		@ args = 0, pretend = 0, frame = 16
 203              		@ frame_needed = 1, uses_anonymous_args = 0
 204 0000 B0B5     		push	{r4, r5, r7, lr}
 205              		.cfi_def_cfa_offset 16
 206              		.cfi_offset 4, -16
 207              		.cfi_offset 5, -12
 208              		.cfi_offset 7, -8
 209              		.cfi_offset 14, -4
 210 0002 84B0     		sub	sp, sp, #16
 211              		.cfi_def_cfa_offset 32
 212 0004 00AF     		add	r7, sp, #0
 213              		.cfi_def_cfa_register 7
 214 0006 7860     		str	r0, [r7, #4]
 230:Drivers/STM32G0xx_HAL_Driver/Src/stm32g0xx_hal_flash_ex.c ****   HAL_StatusTypeDef status;
 231:Drivers/STM32G0xx_HAL_Driver/Src/stm32g0xx_hal_flash_ex.c **** 
 232:Drivers/STM32G0xx_HAL_Driver/Src/stm32g0xx_hal_flash_ex.c ****   /* Check the parameters */
 233:Drivers/STM32G0xx_HAL_Driver/Src/stm32g0xx_hal_flash_ex.c ****   assert_param(IS_FLASH_TYPEERASE(pEraseInit->TypeErase));
 234:Drivers/STM32G0xx_HAL_Driver/Src/stm32g0xx_hal_flash_ex.c **** 
 235:Drivers/STM32G0xx_HAL_Driver/Src/stm32g0xx_hal_flash_ex.c ****   /* Process Locked */
 236:Drivers/STM32G0xx_HAL_Driver/Src/stm32g0xx_hal_flash_ex.c ****   __HAL_LOCK(&pFlash);
 215              		.loc 1 236 3
 216 0008 274B     		ldr	r3, .L18
 217 000a 1B78     		ldrb	r3, [r3]
 218 000c 012B     		cmp	r3, #1
 219 000e 01D1     		bne	.L13
ARM GAS  C:\Users\SOLDER~1\AppData\Local\Temp\ccVplH7a.s 			page 9


 220              		.loc 1 236 3 is_stmt 0 discriminator 1
 221 0010 0223     		movs	r3, #2
 222 0012 45E0     		b	.L14
 223              	.L13:
 224              		.loc 1 236 3 discriminator 2
 225 0014 244B     		ldr	r3, .L18
 226 0016 0122     		movs	r2, #1
 227 0018 1A70     		strb	r2, [r3]
 237:Drivers/STM32G0xx_HAL_Driver/Src/stm32g0xx_hal_flash_ex.c **** 
 238:Drivers/STM32G0xx_HAL_Driver/Src/stm32g0xx_hal_flash_ex.c ****   /* Reset error code */
 239:Drivers/STM32G0xx_HAL_Driver/Src/stm32g0xx_hal_flash_ex.c ****   pFlash.ErrorCode = HAL_FLASH_ERROR_NONE;
 228              		.loc 1 239 20 is_stmt 1 discriminator 2
 229 001a 234B     		ldr	r3, .L18
 230 001c 0022     		movs	r2, #0
 231 001e 5A60     		str	r2, [r3, #4]
 240:Drivers/STM32G0xx_HAL_Driver/Src/stm32g0xx_hal_flash_ex.c **** 
 241:Drivers/STM32G0xx_HAL_Driver/Src/stm32g0xx_hal_flash_ex.c ****   /* save procedure for interrupt treatment */
 242:Drivers/STM32G0xx_HAL_Driver/Src/stm32g0xx_hal_flash_ex.c ****   pFlash.ProcedureOnGoing = pEraseInit->TypeErase;
 232              		.loc 1 242 39 discriminator 2
 233 0020 7B68     		ldr	r3, [r7, #4]
 234 0022 1A68     		ldr	r2, [r3]
 235              		.loc 1 242 27 discriminator 2
 236 0024 204B     		ldr	r3, .L18
 237 0026 9A60     		str	r2, [r3, #8]
 243:Drivers/STM32G0xx_HAL_Driver/Src/stm32g0xx_hal_flash_ex.c **** 
 244:Drivers/STM32G0xx_HAL_Driver/Src/stm32g0xx_hal_flash_ex.c ****   /* Wait for last operation to be completed */
 245:Drivers/STM32G0xx_HAL_Driver/Src/stm32g0xx_hal_flash_ex.c ****   status = FLASH_WaitForLastOperation(FLASH_TIMEOUT_VALUE);
 238              		.loc 1 245 12 discriminator 2
 239 0028 0F25     		movs	r5, #15
 240 002a 7C19     		adds	r4, r7, r5
 241 002c FA23     		movs	r3, #250
 242 002e 9B00     		lsls	r3, r3, #2
 243 0030 1800     		movs	r0, r3
 244 0032 FFF7FEFF 		bl	FLASH_WaitForLastOperation
 245 0036 0300     		movs	r3, r0
 246 0038 2370     		strb	r3, [r4]
 246:Drivers/STM32G0xx_HAL_Driver/Src/stm32g0xx_hal_flash_ex.c **** 
 247:Drivers/STM32G0xx_HAL_Driver/Src/stm32g0xx_hal_flash_ex.c ****   if (status != HAL_OK)
 247              		.loc 1 247 6 discriminator 2
 248 003a 7B19     		adds	r3, r7, r5
 249 003c 1B78     		ldrb	r3, [r3]
 250 003e 002B     		cmp	r3, #0
 251 0040 03D0     		beq	.L15
 248:Drivers/STM32G0xx_HAL_Driver/Src/stm32g0xx_hal_flash_ex.c ****   {
 249:Drivers/STM32G0xx_HAL_Driver/Src/stm32g0xx_hal_flash_ex.c ****     /* Process Unlocked */
 250:Drivers/STM32G0xx_HAL_Driver/Src/stm32g0xx_hal_flash_ex.c ****     __HAL_UNLOCK(&pFlash);
 252              		.loc 1 250 5
 253 0042 194B     		ldr	r3, .L18
 254 0044 0022     		movs	r2, #0
 255 0046 1A70     		strb	r2, [r3]
 256 0048 27E0     		b	.L16
 257              	.L15:
 251:Drivers/STM32G0xx_HAL_Driver/Src/stm32g0xx_hal_flash_ex.c ****   }
 252:Drivers/STM32G0xx_HAL_Driver/Src/stm32g0xx_hal_flash_ex.c ****   else
 253:Drivers/STM32G0xx_HAL_Driver/Src/stm32g0xx_hal_flash_ex.c ****   {
 254:Drivers/STM32G0xx_HAL_Driver/Src/stm32g0xx_hal_flash_ex.c **** #if !defined(FLASH_DBANK_SUPPORT)
 255:Drivers/STM32G0xx_HAL_Driver/Src/stm32g0xx_hal_flash_ex.c ****     /* For single bank product force Banks to Bank 1 */
ARM GAS  C:\Users\SOLDER~1\AppData\Local\Temp\ccVplH7a.s 			page 10


 256:Drivers/STM32G0xx_HAL_Driver/Src/stm32g0xx_hal_flash_ex.c ****     pEraseInit->Banks = FLASH_BANK_1;
 257:Drivers/STM32G0xx_HAL_Driver/Src/stm32g0xx_hal_flash_ex.c **** #endif /* FLASH_DBANK_SUPPORT */
 258:Drivers/STM32G0xx_HAL_Driver/Src/stm32g0xx_hal_flash_ex.c ****     /* Store Bank number */
 259:Drivers/STM32G0xx_HAL_Driver/Src/stm32g0xx_hal_flash_ex.c ****     pFlash.Banks = pEraseInit->Banks;
 258              		.loc 1 259 30
 259 004a 7B68     		ldr	r3, [r7, #4]
 260 004c 5A68     		ldr	r2, [r3, #4]
 261              		.loc 1 259 18
 262 004e 164B     		ldr	r3, .L18
 263 0050 1A61     		str	r2, [r3, #16]
 260:Drivers/STM32G0xx_HAL_Driver/Src/stm32g0xx_hal_flash_ex.c **** 
 261:Drivers/STM32G0xx_HAL_Driver/Src/stm32g0xx_hal_flash_ex.c ****     /* Enable End of Operation and Error interrupts */
 262:Drivers/STM32G0xx_HAL_Driver/Src/stm32g0xx_hal_flash_ex.c ****     FLASH->CR |= FLASH_CR_EOPIE | FLASH_CR_ERRIE;
 264              		.loc 1 262 15
 265 0052 164B     		ldr	r3, .L18+4
 266 0054 5A69     		ldr	r2, [r3, #20]
 267 0056 154B     		ldr	r3, .L18+4
 268 0058 C021     		movs	r1, #192
 269 005a 8904     		lsls	r1, r1, #18
 270 005c 0A43     		orrs	r2, r1
 271 005e 5A61     		str	r2, [r3, #20]
 263:Drivers/STM32G0xx_HAL_Driver/Src/stm32g0xx_hal_flash_ex.c **** 
 264:Drivers/STM32G0xx_HAL_Driver/Src/stm32g0xx_hal_flash_ex.c ****     if (pEraseInit->TypeErase == FLASH_TYPEERASE_MASS)
 272              		.loc 1 264 19
 273 0060 7B68     		ldr	r3, [r7, #4]
 274 0062 1B68     		ldr	r3, [r3]
 275              		.loc 1 264 8
 276 0064 042B     		cmp	r3, #4
 277 0066 08D1     		bne	.L17
 265:Drivers/STM32G0xx_HAL_Driver/Src/stm32g0xx_hal_flash_ex.c ****     {
 266:Drivers/STM32G0xx_HAL_Driver/Src/stm32g0xx_hal_flash_ex.c ****       /* Set Page to 0 for Interrupt callback management */
 267:Drivers/STM32G0xx_HAL_Driver/Src/stm32g0xx_hal_flash_ex.c ****       pFlash.Page = 0;
 278              		.loc 1 267 19
 279 0068 0F4B     		ldr	r3, .L18
 280 006a 0022     		movs	r2, #0
 281 006c 5A61     		str	r2, [r3, #20]
 268:Drivers/STM32G0xx_HAL_Driver/Src/stm32g0xx_hal_flash_ex.c **** 
 269:Drivers/STM32G0xx_HAL_Driver/Src/stm32g0xx_hal_flash_ex.c ****       /* Proceed to Mass Erase */
 270:Drivers/STM32G0xx_HAL_Driver/Src/stm32g0xx_hal_flash_ex.c ****       FLASH_MassErase(pEraseInit->Banks);
 282              		.loc 1 270 7
 283 006e 7B68     		ldr	r3, [r7, #4]
 284 0070 5B68     		ldr	r3, [r3, #4]
 285 0072 1800     		movs	r0, r3
 286 0074 FFF7FEFF 		bl	FLASH_MassErase
 287 0078 0FE0     		b	.L16
 288              	.L17:
 271:Drivers/STM32G0xx_HAL_Driver/Src/stm32g0xx_hal_flash_ex.c ****     }
 272:Drivers/STM32G0xx_HAL_Driver/Src/stm32g0xx_hal_flash_ex.c ****     else
 273:Drivers/STM32G0xx_HAL_Driver/Src/stm32g0xx_hal_flash_ex.c ****     {
 274:Drivers/STM32G0xx_HAL_Driver/Src/stm32g0xx_hal_flash_ex.c ****       /* Erase by page to be done */
 275:Drivers/STM32G0xx_HAL_Driver/Src/stm32g0xx_hal_flash_ex.c ****       pFlash.NbPagesToErase = pEraseInit->NbPages;
 289              		.loc 1 275 41
 290 007a 7B68     		ldr	r3, [r7, #4]
 291 007c DA68     		ldr	r2, [r3, #12]
 292              		.loc 1 275 29
 293 007e 0A4B     		ldr	r3, .L18
 294 0080 9A61     		str	r2, [r3, #24]
ARM GAS  C:\Users\SOLDER~1\AppData\Local\Temp\ccVplH7a.s 			page 11


 276:Drivers/STM32G0xx_HAL_Driver/Src/stm32g0xx_hal_flash_ex.c ****       pFlash.Page = pEraseInit->Page;
 295              		.loc 1 276 31
 296 0082 7B68     		ldr	r3, [r7, #4]
 297 0084 9A68     		ldr	r2, [r3, #8]
 298              		.loc 1 276 19
 299 0086 084B     		ldr	r3, .L18
 300 0088 5A61     		str	r2, [r3, #20]
 277:Drivers/STM32G0xx_HAL_Driver/Src/stm32g0xx_hal_flash_ex.c **** 
 278:Drivers/STM32G0xx_HAL_Driver/Src/stm32g0xx_hal_flash_ex.c ****       /*Erase 1st page and wait for IT */
 279:Drivers/STM32G0xx_HAL_Driver/Src/stm32g0xx_hal_flash_ex.c ****       FLASH_PageErase(pEraseInit->Banks, pEraseInit->Page);
 301              		.loc 1 279 7
 302 008a 7B68     		ldr	r3, [r7, #4]
 303 008c 5A68     		ldr	r2, [r3, #4]
 304 008e 7B68     		ldr	r3, [r7, #4]
 305 0090 9B68     		ldr	r3, [r3, #8]
 306 0092 1900     		movs	r1, r3
 307 0094 1000     		movs	r0, r2
 308 0096 FFF7FEFF 		bl	FLASH_PageErase
 309              	.L16:
 280:Drivers/STM32G0xx_HAL_Driver/Src/stm32g0xx_hal_flash_ex.c ****     }
 281:Drivers/STM32G0xx_HAL_Driver/Src/stm32g0xx_hal_flash_ex.c ****   }
 282:Drivers/STM32G0xx_HAL_Driver/Src/stm32g0xx_hal_flash_ex.c **** 
 283:Drivers/STM32G0xx_HAL_Driver/Src/stm32g0xx_hal_flash_ex.c ****   /* return status */
 284:Drivers/STM32G0xx_HAL_Driver/Src/stm32g0xx_hal_flash_ex.c ****   return status;
 310              		.loc 1 284 10
 311 009a 0F23     		movs	r3, #15
 312 009c FB18     		adds	r3, r7, r3
 313 009e 1B78     		ldrb	r3, [r3]
 314              	.L14:
 285:Drivers/STM32G0xx_HAL_Driver/Src/stm32g0xx_hal_flash_ex.c **** }
 315              		.loc 1 285 1
 316 00a0 1800     		movs	r0, r3
 317 00a2 BD46     		mov	sp, r7
 318 00a4 04B0     		add	sp, sp, #16
 319              		@ sp needed
 320 00a6 B0BD     		pop	{r4, r5, r7, pc}
 321              	.L19:
 322              		.align	2
 323              	.L18:
 324 00a8 00000000 		.word	pFlash
 325 00ac 00200240 		.word	1073881088
 326              		.cfi_endproc
 327              	.LFE356:
 329              		.section	.text.HAL_FLASHEx_OBProgram,"ax",%progbits
 330              		.align	1
 331              		.global	HAL_FLASHEx_OBProgram
 332              		.syntax unified
 333              		.code	16
 334              		.thumb_func
 336              	HAL_FLASHEx_OBProgram:
 337              	.LFB357:
 286:Drivers/STM32G0xx_HAL_Driver/Src/stm32g0xx_hal_flash_ex.c **** 
 287:Drivers/STM32G0xx_HAL_Driver/Src/stm32g0xx_hal_flash_ex.c **** /**
 288:Drivers/STM32G0xx_HAL_Driver/Src/stm32g0xx_hal_flash_ex.c ****   * @brief  Program Option bytes.
 289:Drivers/STM32G0xx_HAL_Driver/Src/stm32g0xx_hal_flash_ex.c ****   * @param  pOBInit Pointer to an @ref FLASH_OBProgramInitTypeDef structure that
 290:Drivers/STM32G0xx_HAL_Driver/Src/stm32g0xx_hal_flash_ex.c ****   *         contains the configuration information for the programming.
 291:Drivers/STM32G0xx_HAL_Driver/Src/stm32g0xx_hal_flash_ex.c ****   * @note   To configure any option bytes, the option lock bit OPTLOCK must be
ARM GAS  C:\Users\SOLDER~1\AppData\Local\Temp\ccVplH7a.s 			page 12


 292:Drivers/STM32G0xx_HAL_Driver/Src/stm32g0xx_hal_flash_ex.c ****   *         cleared with the call of @ref HAL_FLASH_OB_Unlock() function.
 293:Drivers/STM32G0xx_HAL_Driver/Src/stm32g0xx_hal_flash_ex.c ****   * @note   New option bytes configuration will be taken into account only
 294:Drivers/STM32G0xx_HAL_Driver/Src/stm32g0xx_hal_flash_ex.c ****   *         - after an option bytes launch through the call of @ref HAL_FLASH_OB_Launch()
 295:Drivers/STM32G0xx_HAL_Driver/Src/stm32g0xx_hal_flash_ex.c ****   *         - a Power On Reset
 296:Drivers/STM32G0xx_HAL_Driver/Src/stm32g0xx_hal_flash_ex.c ****   *         - an exit from Standby or Shutdown mode.
 297:Drivers/STM32G0xx_HAL_Driver/Src/stm32g0xx_hal_flash_ex.c ****   * @retval HAL Status
 298:Drivers/STM32G0xx_HAL_Driver/Src/stm32g0xx_hal_flash_ex.c ****   */
 299:Drivers/STM32G0xx_HAL_Driver/Src/stm32g0xx_hal_flash_ex.c **** HAL_StatusTypeDef HAL_FLASHEx_OBProgram(FLASH_OBProgramInitTypeDef *pOBInit)
 300:Drivers/STM32G0xx_HAL_Driver/Src/stm32g0xx_hal_flash_ex.c **** {
 338              		.loc 1 300 1
 339              		.cfi_startproc
 340              		@ args = 0, pretend = 0, frame = 16
 341              		@ frame_needed = 1, uses_anonymous_args = 0
 342 0000 B0B5     		push	{r4, r5, r7, lr}
 343              		.cfi_def_cfa_offset 16
 344              		.cfi_offset 4, -16
 345              		.cfi_offset 5, -12
 346              		.cfi_offset 7, -8
 347              		.cfi_offset 14, -4
 348 0002 84B0     		sub	sp, sp, #16
 349              		.cfi_def_cfa_offset 32
 350 0004 00AF     		add	r7, sp, #0
 351              		.cfi_def_cfa_register 7
 352 0006 7860     		str	r0, [r7, #4]
 301:Drivers/STM32G0xx_HAL_Driver/Src/stm32g0xx_hal_flash_ex.c ****   uint32_t optr;
 302:Drivers/STM32G0xx_HAL_Driver/Src/stm32g0xx_hal_flash_ex.c ****   HAL_StatusTypeDef status;
 303:Drivers/STM32G0xx_HAL_Driver/Src/stm32g0xx_hal_flash_ex.c **** 
 304:Drivers/STM32G0xx_HAL_Driver/Src/stm32g0xx_hal_flash_ex.c ****   /* Check the parameters */
 305:Drivers/STM32G0xx_HAL_Driver/Src/stm32g0xx_hal_flash_ex.c ****   assert_param(IS_OPTIONBYTE(pOBInit->OptionType));
 306:Drivers/STM32G0xx_HAL_Driver/Src/stm32g0xx_hal_flash_ex.c **** 
 307:Drivers/STM32G0xx_HAL_Driver/Src/stm32g0xx_hal_flash_ex.c ****   /* Process Locked */
 308:Drivers/STM32G0xx_HAL_Driver/Src/stm32g0xx_hal_flash_ex.c ****   __HAL_LOCK(&pFlash);
 353              		.loc 1 308 3
 354 0008 604B     		ldr	r3, .L33
 355 000a 1B78     		ldrb	r3, [r3]
 356 000c 012B     		cmp	r3, #1
 357 000e 01D1     		bne	.L21
 358              		.loc 1 308 3 is_stmt 0 discriminator 1
 359 0010 0223     		movs	r3, #2
 360 0012 B6E0     		b	.L22
 361              	.L21:
 362              		.loc 1 308 3 discriminator 2
 363 0014 5D4B     		ldr	r3, .L33
 364 0016 0122     		movs	r2, #1
 365 0018 1A70     		strb	r2, [r3]
 309:Drivers/STM32G0xx_HAL_Driver/Src/stm32g0xx_hal_flash_ex.c **** 
 310:Drivers/STM32G0xx_HAL_Driver/Src/stm32g0xx_hal_flash_ex.c ****   pFlash.ErrorCode = HAL_FLASH_ERROR_NONE;
 366              		.loc 1 310 20 is_stmt 1 discriminator 2
 367 001a 5C4B     		ldr	r3, .L33
 368 001c 0022     		movs	r2, #0
 369 001e 5A60     		str	r2, [r3, #4]
 311:Drivers/STM32G0xx_HAL_Driver/Src/stm32g0xx_hal_flash_ex.c **** 
 312:Drivers/STM32G0xx_HAL_Driver/Src/stm32g0xx_hal_flash_ex.c ****   /* Write protection configuration */
 313:Drivers/STM32G0xx_HAL_Driver/Src/stm32g0xx_hal_flash_ex.c ****   if ((pOBInit->OptionType & OPTIONBYTE_WRP) != 0x00U)
 370              		.loc 1 313 15 discriminator 2
 371 0020 7B68     		ldr	r3, [r7, #4]
 372 0022 1B68     		ldr	r3, [r3]
ARM GAS  C:\Users\SOLDER~1\AppData\Local\Temp\ccVplH7a.s 			page 13


 373              		.loc 1 313 28 discriminator 2
 374 0024 0122     		movs	r2, #1
 375 0026 1340     		ands	r3, r2
 376              		.loc 1 313 6 discriminator 2
 377 0028 08D0     		beq	.L23
 314:Drivers/STM32G0xx_HAL_Driver/Src/stm32g0xx_hal_flash_ex.c ****   {
 315:Drivers/STM32G0xx_HAL_Driver/Src/stm32g0xx_hal_flash_ex.c ****     /* Configure of Write protection on the selected area */
 316:Drivers/STM32G0xx_HAL_Driver/Src/stm32g0xx_hal_flash_ex.c ****     FLASH_OB_WRPConfig(pOBInit->WRPArea, pOBInit->WRPStartOffset, pOBInit->WRPEndOffset);
 378              		.loc 1 316 5
 379 002a 7B68     		ldr	r3, [r7, #4]
 380 002c 5868     		ldr	r0, [r3, #4]
 381 002e 7B68     		ldr	r3, [r7, #4]
 382 0030 9968     		ldr	r1, [r3, #8]
 383 0032 7B68     		ldr	r3, [r7, #4]
 384 0034 DB68     		ldr	r3, [r3, #12]
 385 0036 1A00     		movs	r2, r3
 386 0038 FFF7FEFF 		bl	FLASH_OB_WRPConfig
 387              	.L23:
 317:Drivers/STM32G0xx_HAL_Driver/Src/stm32g0xx_hal_flash_ex.c ****   }
 318:Drivers/STM32G0xx_HAL_Driver/Src/stm32g0xx_hal_flash_ex.c **** 
 319:Drivers/STM32G0xx_HAL_Driver/Src/stm32g0xx_hal_flash_ex.c ****   /* Option register */
 320:Drivers/STM32G0xx_HAL_Driver/Src/stm32g0xx_hal_flash_ex.c ****   if ((pOBInit->OptionType & (OPTIONBYTE_RDP | OPTIONBYTE_USER)) == (OPTIONBYTE_RDP | OPTIONBYTE_US
 388              		.loc 1 320 15
 389 003c 7B68     		ldr	r3, [r7, #4]
 390 003e 1B68     		ldr	r3, [r3]
 391              		.loc 1 320 28
 392 0040 0622     		movs	r2, #6
 393 0042 1340     		ands	r3, r2
 394              		.loc 1 320 6
 395 0044 062B     		cmp	r3, #6
 396 0046 09D1     		bne	.L24
 321:Drivers/STM32G0xx_HAL_Driver/Src/stm32g0xx_hal_flash_ex.c ****   {
 322:Drivers/STM32G0xx_HAL_Driver/Src/stm32g0xx_hal_flash_ex.c ****     /* Fully modify OPTR register with RDP & user data */
 323:Drivers/STM32G0xx_HAL_Driver/Src/stm32g0xx_hal_flash_ex.c ****     FLASH_OB_OptrConfig(pOBInit->USERType, pOBInit->USERConfig, pOBInit->RDPLevel);
 397              		.loc 1 323 5
 398 0048 7B68     		ldr	r3, [r7, #4]
 399 004a 5869     		ldr	r0, [r3, #20]
 400 004c 7B68     		ldr	r3, [r7, #4]
 401 004e 9969     		ldr	r1, [r3, #24]
 402 0050 7B68     		ldr	r3, [r7, #4]
 403 0052 1B69     		ldr	r3, [r3, #16]
 404 0054 1A00     		movs	r2, r3
 405 0056 FFF7FEFF 		bl	FLASH_OB_OptrConfig
 406 005a 21E0     		b	.L25
 407              	.L24:
 324:Drivers/STM32G0xx_HAL_Driver/Src/stm32g0xx_hal_flash_ex.c ****   }
 325:Drivers/STM32G0xx_HAL_Driver/Src/stm32g0xx_hal_flash_ex.c ****   else if ((pOBInit->OptionType & OPTIONBYTE_RDP) != 0x00U)
 408              		.loc 1 325 20
 409 005c 7B68     		ldr	r3, [r7, #4]
 410 005e 1B68     		ldr	r3, [r3]
 411              		.loc 1 325 33
 412 0060 0222     		movs	r2, #2
 413 0062 1340     		ands	r3, r2
 414              		.loc 1 325 11
 415 0064 0BD0     		beq	.L26
 326:Drivers/STM32G0xx_HAL_Driver/Src/stm32g0xx_hal_flash_ex.c ****   {
 327:Drivers/STM32G0xx_HAL_Driver/Src/stm32g0xx_hal_flash_ex.c ****     /* Only modify RDP so get current user data */
ARM GAS  C:\Users\SOLDER~1\AppData\Local\Temp\ccVplH7a.s 			page 14


 328:Drivers/STM32G0xx_HAL_Driver/Src/stm32g0xx_hal_flash_ex.c ****     optr = FLASH_OB_GetUser();
 416              		.loc 1 328 12
 417 0066 FFF7FEFF 		bl	FLASH_OB_GetUser
 418 006a 0300     		movs	r3, r0
 419 006c BB60     		str	r3, [r7, #8]
 329:Drivers/STM32G0xx_HAL_Driver/Src/stm32g0xx_hal_flash_ex.c ****     FLASH_OB_OptrConfig(optr, optr, pOBInit->RDPLevel);
 420              		.loc 1 329 5
 421 006e 7B68     		ldr	r3, [r7, #4]
 422 0070 1A69     		ldr	r2, [r3, #16]
 423 0072 B968     		ldr	r1, [r7, #8]
 424 0074 BB68     		ldr	r3, [r7, #8]
 425 0076 1800     		movs	r0, r3
 426 0078 FFF7FEFF 		bl	FLASH_OB_OptrConfig
 427 007c 10E0     		b	.L25
 428              	.L26:
 330:Drivers/STM32G0xx_HAL_Driver/Src/stm32g0xx_hal_flash_ex.c ****   }
 331:Drivers/STM32G0xx_HAL_Driver/Src/stm32g0xx_hal_flash_ex.c ****   else if ((pOBInit->OptionType & OPTIONBYTE_USER) != 0x00U)
 429              		.loc 1 331 20
 430 007e 7B68     		ldr	r3, [r7, #4]
 431 0080 1B68     		ldr	r3, [r3]
 432              		.loc 1 331 33
 433 0082 0422     		movs	r2, #4
 434 0084 1340     		ands	r3, r2
 435              		.loc 1 331 11
 436 0086 0BD0     		beq	.L25
 332:Drivers/STM32G0xx_HAL_Driver/Src/stm32g0xx_hal_flash_ex.c ****   {
 333:Drivers/STM32G0xx_HAL_Driver/Src/stm32g0xx_hal_flash_ex.c ****     /* Only modify user so get current RDP level */
 334:Drivers/STM32G0xx_HAL_Driver/Src/stm32g0xx_hal_flash_ex.c ****     optr = FLASH_OB_GetRDP();
 437              		.loc 1 334 12
 438 0088 FFF7FEFF 		bl	FLASH_OB_GetRDP
 439 008c 0300     		movs	r3, r0
 440 008e BB60     		str	r3, [r7, #8]
 335:Drivers/STM32G0xx_HAL_Driver/Src/stm32g0xx_hal_flash_ex.c ****     FLASH_OB_OptrConfig(pOBInit->USERType, pOBInit->USERConfig, optr);
 441              		.loc 1 335 5
 442 0090 7B68     		ldr	r3, [r7, #4]
 443 0092 5869     		ldr	r0, [r3, #20]
 444 0094 7B68     		ldr	r3, [r7, #4]
 445 0096 9B69     		ldr	r3, [r3, #24]
 446 0098 BA68     		ldr	r2, [r7, #8]
 447 009a 1900     		movs	r1, r3
 448 009c FFF7FEFF 		bl	FLASH_OB_OptrConfig
 449              	.L25:
 336:Drivers/STM32G0xx_HAL_Driver/Src/stm32g0xx_hal_flash_ex.c ****   }
 337:Drivers/STM32G0xx_HAL_Driver/Src/stm32g0xx_hal_flash_ex.c ****   else
 338:Drivers/STM32G0xx_HAL_Driver/Src/stm32g0xx_hal_flash_ex.c ****   {
 339:Drivers/STM32G0xx_HAL_Driver/Src/stm32g0xx_hal_flash_ex.c ****     /* nothing to do */
 340:Drivers/STM32G0xx_HAL_Driver/Src/stm32g0xx_hal_flash_ex.c ****   }
 341:Drivers/STM32G0xx_HAL_Driver/Src/stm32g0xx_hal_flash_ex.c **** 
 342:Drivers/STM32G0xx_HAL_Driver/Src/stm32g0xx_hal_flash_ex.c **** #if defined(FLASH_PCROP_SUPPORT)
 343:Drivers/STM32G0xx_HAL_Driver/Src/stm32g0xx_hal_flash_ex.c ****   /* PCROP Configuration */
 344:Drivers/STM32G0xx_HAL_Driver/Src/stm32g0xx_hal_flash_ex.c ****   if ((pOBInit->OptionType & OPTIONBYTE_PCROP) != 0x00U)
 450              		.loc 1 344 15
 451 00a0 7B68     		ldr	r3, [r7, #4]
 452 00a2 1B68     		ldr	r3, [r3]
 453              		.loc 1 344 28
 454 00a4 0822     		movs	r2, #8
 455 00a6 1340     		ands	r3, r2
ARM GAS  C:\Users\SOLDER~1\AppData\Local\Temp\ccVplH7a.s 			page 15


 456              		.loc 1 344 6
 457 00a8 34D0     		beq	.L27
 345:Drivers/STM32G0xx_HAL_Driver/Src/stm32g0xx_hal_flash_ex.c ****   {
 346:Drivers/STM32G0xx_HAL_Driver/Src/stm32g0xx_hal_flash_ex.c ****     /* Check the parameters */
 347:Drivers/STM32G0xx_HAL_Driver/Src/stm32g0xx_hal_flash_ex.c ****     assert_param(IS_OB_PCROP_CONFIG(pOBInit->PCROPConfig));
 348:Drivers/STM32G0xx_HAL_Driver/Src/stm32g0xx_hal_flash_ex.c **** 
 349:Drivers/STM32G0xx_HAL_Driver/Src/stm32g0xx_hal_flash_ex.c ****     if ((pOBInit->PCROPConfig & (OB_PCROP_ZONE_A | OB_PCROP_RDP_ERASE)) != 0x00U)
 458              		.loc 1 349 17
 459 00aa 7B68     		ldr	r3, [r7, #4]
 460 00ac DB69     		ldr	r3, [r3, #28]
 461              		.loc 1 349 31
 462 00ae 384A     		ldr	r2, .L33+4
 463 00b0 1340     		ands	r3, r2
 464              		.loc 1 349 8
 465 00b2 08D0     		beq	.L28
 350:Drivers/STM32G0xx_HAL_Driver/Src/stm32g0xx_hal_flash_ex.c ****     {
 351:Drivers/STM32G0xx_HAL_Driver/Src/stm32g0xx_hal_flash_ex.c ****       /* Configure the 1A Proprietary code readout protection */
 352:Drivers/STM32G0xx_HAL_Driver/Src/stm32g0xx_hal_flash_ex.c ****       FLASH_OB_PCROP1AConfig(pOBInit->PCROPConfig, pOBInit->PCROP1AStartAddr, pOBInit->PCROP1AEndAd
 466              		.loc 1 352 7
 467 00b4 7B68     		ldr	r3, [r7, #4]
 468 00b6 D869     		ldr	r0, [r3, #28]
 469 00b8 7B68     		ldr	r3, [r7, #4]
 470 00ba 196A     		ldr	r1, [r3, #32]
 471 00bc 7B68     		ldr	r3, [r7, #4]
 472 00be 5B6A     		ldr	r3, [r3, #36]
 473 00c0 1A00     		movs	r2, r3
 474 00c2 FFF7FEFF 		bl	FLASH_OB_PCROP1AConfig
 475              	.L28:
 353:Drivers/STM32G0xx_HAL_Driver/Src/stm32g0xx_hal_flash_ex.c ****     }
 354:Drivers/STM32G0xx_HAL_Driver/Src/stm32g0xx_hal_flash_ex.c **** 
 355:Drivers/STM32G0xx_HAL_Driver/Src/stm32g0xx_hal_flash_ex.c ****     if ((pOBInit->PCROPConfig & OB_PCROP_ZONE_B) != 0x00U)
 476              		.loc 1 355 17
 477 00c6 7B68     		ldr	r3, [r7, #4]
 478 00c8 DB69     		ldr	r3, [r3, #28]
 479              		.loc 1 355 31
 480 00ca 0222     		movs	r2, #2
 481 00cc 1340     		ands	r3, r2
 482              		.loc 1 355 8
 483 00ce 07D0     		beq	.L29
 356:Drivers/STM32G0xx_HAL_Driver/Src/stm32g0xx_hal_flash_ex.c ****     {
 357:Drivers/STM32G0xx_HAL_Driver/Src/stm32g0xx_hal_flash_ex.c ****       /* Configure the 1B Proprietary code readout protection */
 358:Drivers/STM32G0xx_HAL_Driver/Src/stm32g0xx_hal_flash_ex.c ****       FLASH_OB_PCROP1BConfig(pOBInit->PCROP1BStartAddr, pOBInit->PCROP1BEndAddr);
 484              		.loc 1 358 7
 485 00d0 7B68     		ldr	r3, [r7, #4]
 486 00d2 9A6A     		ldr	r2, [r3, #40]
 487 00d4 7B68     		ldr	r3, [r7, #4]
 488 00d6 DB6A     		ldr	r3, [r3, #44]
 489 00d8 1900     		movs	r1, r3
 490 00da 1000     		movs	r0, r2
 491 00dc FFF7FEFF 		bl	FLASH_OB_PCROP1BConfig
 492              	.L29:
 359:Drivers/STM32G0xx_HAL_Driver/Src/stm32g0xx_hal_flash_ex.c ****     }
 360:Drivers/STM32G0xx_HAL_Driver/Src/stm32g0xx_hal_flash_ex.c **** 
 361:Drivers/STM32G0xx_HAL_Driver/Src/stm32g0xx_hal_flash_ex.c **** #if defined(FLASH_DBANK_SUPPORT)
 362:Drivers/STM32G0xx_HAL_Driver/Src/stm32g0xx_hal_flash_ex.c ****     if ((pOBInit->PCROPConfig & OB_PCROP_ZONE2_A) != 0x00U)
 493              		.loc 1 362 17
 494 00e0 7B68     		ldr	r3, [r7, #4]
ARM GAS  C:\Users\SOLDER~1\AppData\Local\Temp\ccVplH7a.s 			page 16


 495 00e2 DB69     		ldr	r3, [r3, #28]
 496              		.loc 1 362 31
 497 00e4 0422     		movs	r2, #4
 498 00e6 1340     		ands	r3, r2
 499              		.loc 1 362 8
 500 00e8 07D0     		beq	.L30
 363:Drivers/STM32G0xx_HAL_Driver/Src/stm32g0xx_hal_flash_ex.c ****     {
 364:Drivers/STM32G0xx_HAL_Driver/Src/stm32g0xx_hal_flash_ex.c ****       /* Configure the 2A Proprietary code readout protection */
 365:Drivers/STM32G0xx_HAL_Driver/Src/stm32g0xx_hal_flash_ex.c ****       FLASH_OB_PCROP2AConfig(pOBInit->PCROP2AStartAddr, pOBInit->PCROP2AEndAddr);
 501              		.loc 1 365 7
 502 00ea 7B68     		ldr	r3, [r7, #4]
 503 00ec 1A6B     		ldr	r2, [r3, #48]
 504 00ee 7B68     		ldr	r3, [r7, #4]
 505 00f0 5B6B     		ldr	r3, [r3, #52]
 506 00f2 1900     		movs	r1, r3
 507 00f4 1000     		movs	r0, r2
 508 00f6 FFF7FEFF 		bl	FLASH_OB_PCROP2AConfig
 509              	.L30:
 366:Drivers/STM32G0xx_HAL_Driver/Src/stm32g0xx_hal_flash_ex.c ****     }
 367:Drivers/STM32G0xx_HAL_Driver/Src/stm32g0xx_hal_flash_ex.c **** 
 368:Drivers/STM32G0xx_HAL_Driver/Src/stm32g0xx_hal_flash_ex.c ****     if ((pOBInit->PCROPConfig & OB_PCROP_ZONE2_B) != 0x00U)
 510              		.loc 1 368 17
 511 00fa 7B68     		ldr	r3, [r7, #4]
 512 00fc DB69     		ldr	r3, [r3, #28]
 513              		.loc 1 368 31
 514 00fe 0822     		movs	r2, #8
 515 0100 1340     		ands	r3, r2
 516              		.loc 1 368 8
 517 0102 07D0     		beq	.L27
 369:Drivers/STM32G0xx_HAL_Driver/Src/stm32g0xx_hal_flash_ex.c ****     {
 370:Drivers/STM32G0xx_HAL_Driver/Src/stm32g0xx_hal_flash_ex.c ****       /* Configure the 2B Proprietary code readout protection */
 371:Drivers/STM32G0xx_HAL_Driver/Src/stm32g0xx_hal_flash_ex.c ****       FLASH_OB_PCROP2BConfig(pOBInit->PCROP2BStartAddr, pOBInit->PCROP2BEndAddr);
 518              		.loc 1 371 7
 519 0104 7B68     		ldr	r3, [r7, #4]
 520 0106 9A6B     		ldr	r2, [r3, #56]
 521 0108 7B68     		ldr	r3, [r7, #4]
 522 010a DB6B     		ldr	r3, [r3, #60]
 523 010c 1900     		movs	r1, r3
 524 010e 1000     		movs	r0, r2
 525 0110 FFF7FEFF 		bl	FLASH_OB_PCROP2BConfig
 526              	.L27:
 372:Drivers/STM32G0xx_HAL_Driver/Src/stm32g0xx_hal_flash_ex.c ****     }
 373:Drivers/STM32G0xx_HAL_Driver/Src/stm32g0xx_hal_flash_ex.c **** #endif /* FLASH_DBANK_SUPPORT */
 374:Drivers/STM32G0xx_HAL_Driver/Src/stm32g0xx_hal_flash_ex.c ****   }
 375:Drivers/STM32G0xx_HAL_Driver/Src/stm32g0xx_hal_flash_ex.c **** #endif /* FLASH_PCROP_SUPPORT */
 376:Drivers/STM32G0xx_HAL_Driver/Src/stm32g0xx_hal_flash_ex.c **** 
 377:Drivers/STM32G0xx_HAL_Driver/Src/stm32g0xx_hal_flash_ex.c **** #if defined(FLASH_SECURABLE_MEMORY_SUPPORT)
 378:Drivers/STM32G0xx_HAL_Driver/Src/stm32g0xx_hal_flash_ex.c ****   /* Securable Memory Area Configuration */
 379:Drivers/STM32G0xx_HAL_Driver/Src/stm32g0xx_hal_flash_ex.c ****   if ((pOBInit->OptionType & OPTIONBYTE_SEC) != 0x00U)
 527              		.loc 1 379 15
 528 0114 7B68     		ldr	r3, [r7, #4]
 529 0116 1B68     		ldr	r3, [r3]
 530              		.loc 1 379 28
 531 0118 1022     		movs	r2, #16
 532 011a 1340     		ands	r3, r2
 533              		.loc 1 379 6
 534 011c 08D0     		beq	.L31
ARM GAS  C:\Users\SOLDER~1\AppData\Local\Temp\ccVplH7a.s 			page 17


 380:Drivers/STM32G0xx_HAL_Driver/Src/stm32g0xx_hal_flash_ex.c ****   {
 381:Drivers/STM32G0xx_HAL_Driver/Src/stm32g0xx_hal_flash_ex.c **** #if defined(FLASH_DBANK_SUPPORT)
 382:Drivers/STM32G0xx_HAL_Driver/Src/stm32g0xx_hal_flash_ex.c ****     /* Configure the securable memory area protection */
 383:Drivers/STM32G0xx_HAL_Driver/Src/stm32g0xx_hal_flash_ex.c ****     FLASH_OB_SecMemConfig(pOBInit->BootEntryPoint, pOBInit->SecSize, pOBInit->SecSize2);
 535              		.loc 1 383 5
 536 011e 7B68     		ldr	r3, [r7, #4]
 537 0120 186C     		ldr	r0, [r3, #64]
 538 0122 7B68     		ldr	r3, [r7, #4]
 539 0124 596C     		ldr	r1, [r3, #68]
 540 0126 7B68     		ldr	r3, [r7, #4]
 541 0128 9B6C     		ldr	r3, [r3, #72]
 542 012a 1A00     		movs	r2, r3
 543 012c FFF7FEFF 		bl	FLASH_OB_SecMemConfig
 544              	.L31:
 384:Drivers/STM32G0xx_HAL_Driver/Src/stm32g0xx_hal_flash_ex.c **** #else
 385:Drivers/STM32G0xx_HAL_Driver/Src/stm32g0xx_hal_flash_ex.c ****     /* Configure the securable memory area protection */
 386:Drivers/STM32G0xx_HAL_Driver/Src/stm32g0xx_hal_flash_ex.c ****     FLASH_OB_SecMemConfig(pOBInit->BootEntryPoint, pOBInit->SecSize);
 387:Drivers/STM32G0xx_HAL_Driver/Src/stm32g0xx_hal_flash_ex.c **** #endif /* FLASH_DBANK_SUPPORT */
 388:Drivers/STM32G0xx_HAL_Driver/Src/stm32g0xx_hal_flash_ex.c ****   }
 389:Drivers/STM32G0xx_HAL_Driver/Src/stm32g0xx_hal_flash_ex.c **** #endif /* FLASH_SECURABLE_MEMORY_SUPPORT */
 390:Drivers/STM32G0xx_HAL_Driver/Src/stm32g0xx_hal_flash_ex.c **** 
 391:Drivers/STM32G0xx_HAL_Driver/Src/stm32g0xx_hal_flash_ex.c ****   /* Wait for last operation to be completed */
 392:Drivers/STM32G0xx_HAL_Driver/Src/stm32g0xx_hal_flash_ex.c ****   status = FLASH_WaitForLastOperation(FLASH_TIMEOUT_VALUE);
 545              		.loc 1 392 12
 546 0130 0F25     		movs	r5, #15
 547 0132 7C19     		adds	r4, r7, r5
 548 0134 FA23     		movs	r3, #250
 549 0136 9B00     		lsls	r3, r3, #2
 550 0138 1800     		movs	r0, r3
 551 013a FFF7FEFF 		bl	FLASH_WaitForLastOperation
 552 013e 0300     		movs	r3, r0
 553 0140 2370     		strb	r3, [r4]
 393:Drivers/STM32G0xx_HAL_Driver/Src/stm32g0xx_hal_flash_ex.c **** 
 394:Drivers/STM32G0xx_HAL_Driver/Src/stm32g0xx_hal_flash_ex.c ****   if (status == HAL_OK)
 554              		.loc 1 394 6
 555 0142 2800     		movs	r0, r5
 556 0144 3B18     		adds	r3, r7, r0
 557 0146 1B78     		ldrb	r3, [r3]
 558 0148 002B     		cmp	r3, #0
 559 014a 14D1     		bne	.L32
 395:Drivers/STM32G0xx_HAL_Driver/Src/stm32g0xx_hal_flash_ex.c ****   {
 396:Drivers/STM32G0xx_HAL_Driver/Src/stm32g0xx_hal_flash_ex.c ****     /* Set OPTSTRT Bit */
 397:Drivers/STM32G0xx_HAL_Driver/Src/stm32g0xx_hal_flash_ex.c ****     SET_BIT(FLASH->CR, FLASH_CR_OPTSTRT);
 560              		.loc 1 397 5
 561 014c 114B     		ldr	r3, .L33+8
 562 014e 5A69     		ldr	r2, [r3, #20]
 563 0150 104B     		ldr	r3, .L33+8
 564 0152 8021     		movs	r1, #128
 565 0154 8902     		lsls	r1, r1, #10
 566 0156 0A43     		orrs	r2, r1
 567 0158 5A61     		str	r2, [r3, #20]
 398:Drivers/STM32G0xx_HAL_Driver/Src/stm32g0xx_hal_flash_ex.c **** 
 399:Drivers/STM32G0xx_HAL_Driver/Src/stm32g0xx_hal_flash_ex.c ****     /* Wait for last operation to be completed */
 400:Drivers/STM32G0xx_HAL_Driver/Src/stm32g0xx_hal_flash_ex.c ****     status = FLASH_WaitForLastOperation(FLASH_TIMEOUT_VALUE);
 568              		.loc 1 400 14
 569 015a 3C18     		adds	r4, r7, r0
 570 015c FA23     		movs	r3, #250
ARM GAS  C:\Users\SOLDER~1\AppData\Local\Temp\ccVplH7a.s 			page 18


 571 015e 9B00     		lsls	r3, r3, #2
 572 0160 1800     		movs	r0, r3
 573 0162 FFF7FEFF 		bl	FLASH_WaitForLastOperation
 574 0166 0300     		movs	r3, r0
 575 0168 2370     		strb	r3, [r4]
 401:Drivers/STM32G0xx_HAL_Driver/Src/stm32g0xx_hal_flash_ex.c **** 
 402:Drivers/STM32G0xx_HAL_Driver/Src/stm32g0xx_hal_flash_ex.c ****     /* If the option byte program operation is completed, disable the OPTSTRT Bit */
 403:Drivers/STM32G0xx_HAL_Driver/Src/stm32g0xx_hal_flash_ex.c ****     CLEAR_BIT(FLASH->CR, FLASH_CR_OPTSTRT);
 576              		.loc 1 403 5
 577 016a 0A4B     		ldr	r3, .L33+8
 578 016c 5A69     		ldr	r2, [r3, #20]
 579 016e 094B     		ldr	r3, .L33+8
 580 0170 0949     		ldr	r1, .L33+12
 581 0172 0A40     		ands	r2, r1
 582 0174 5A61     		str	r2, [r3, #20]
 583              	.L32:
 404:Drivers/STM32G0xx_HAL_Driver/Src/stm32g0xx_hal_flash_ex.c ****   }
 405:Drivers/STM32G0xx_HAL_Driver/Src/stm32g0xx_hal_flash_ex.c **** 
 406:Drivers/STM32G0xx_HAL_Driver/Src/stm32g0xx_hal_flash_ex.c ****   /* Process Unlocked */
 407:Drivers/STM32G0xx_HAL_Driver/Src/stm32g0xx_hal_flash_ex.c ****   __HAL_UNLOCK(&pFlash);
 584              		.loc 1 407 3
 585 0176 054B     		ldr	r3, .L33
 586 0178 0022     		movs	r2, #0
 587 017a 1A70     		strb	r2, [r3]
 408:Drivers/STM32G0xx_HAL_Driver/Src/stm32g0xx_hal_flash_ex.c **** 
 409:Drivers/STM32G0xx_HAL_Driver/Src/stm32g0xx_hal_flash_ex.c ****   /* return status */
 410:Drivers/STM32G0xx_HAL_Driver/Src/stm32g0xx_hal_flash_ex.c ****   return status;
 588              		.loc 1 410 10
 589 017c 0F23     		movs	r3, #15
 590 017e FB18     		adds	r3, r7, r3
 591 0180 1B78     		ldrb	r3, [r3]
 592              	.L22:
 411:Drivers/STM32G0xx_HAL_Driver/Src/stm32g0xx_hal_flash_ex.c **** }
 593              		.loc 1 411 1
 594 0182 1800     		movs	r0, r3
 595 0184 BD46     		mov	sp, r7
 596 0186 04B0     		add	sp, sp, #16
 597              		@ sp needed
 598 0188 B0BD     		pop	{r4, r5, r7, pc}
 599              	.L34:
 600 018a C046     		.align	2
 601              	.L33:
 602 018c 00000000 		.word	pFlash
 603 0190 01000080 		.word	-2147483647
 604 0194 00200240 		.word	1073881088
 605 0198 FFFFFDFF 		.word	-131073
 606              		.cfi_endproc
 607              	.LFE357:
 609              		.section	.text.HAL_FLASHEx_OBGetConfig,"ax",%progbits
 610              		.align	1
 611              		.global	HAL_FLASHEx_OBGetConfig
 612              		.syntax unified
 613              		.code	16
 614              		.thumb_func
 616              	HAL_FLASHEx_OBGetConfig:
 617              	.LFB358:
 412:Drivers/STM32G0xx_HAL_Driver/Src/stm32g0xx_hal_flash_ex.c **** 
ARM GAS  C:\Users\SOLDER~1\AppData\Local\Temp\ccVplH7a.s 			page 19


 413:Drivers/STM32G0xx_HAL_Driver/Src/stm32g0xx_hal_flash_ex.c **** /**
 414:Drivers/STM32G0xx_HAL_Driver/Src/stm32g0xx_hal_flash_ex.c ****   * @brief  Get the Option bytes configuration.
 415:Drivers/STM32G0xx_HAL_Driver/Src/stm32g0xx_hal_flash_ex.c ****   * @note   warning: this API only read flash register, it does not reflect any
 416:Drivers/STM32G0xx_HAL_Driver/Src/stm32g0xx_hal_flash_ex.c ****   *         change that would have been programmed between previous Option byte
 417:Drivers/STM32G0xx_HAL_Driver/Src/stm32g0xx_hal_flash_ex.c ****   *         loading and current call.
 418:Drivers/STM32G0xx_HAL_Driver/Src/stm32g0xx_hal_flash_ex.c ****   * @param  pOBInit Pointer to an @ref FLASH_OBProgramInitTypeDef structure that contains the
 419:Drivers/STM32G0xx_HAL_Driver/Src/stm32g0xx_hal_flash_ex.c ****   *                  configuration information. The fields pOBInit->WRPArea should
 420:Drivers/STM32G0xx_HAL_Driver/Src/stm32g0xx_hal_flash_ex.c ****   *                  indicate which area is requested for the WRP.
 421:Drivers/STM32G0xx_HAL_Driver/Src/stm32g0xx_hal_flash_ex.c ****   * @retval None
 422:Drivers/STM32G0xx_HAL_Driver/Src/stm32g0xx_hal_flash_ex.c ****   */
 423:Drivers/STM32G0xx_HAL_Driver/Src/stm32g0xx_hal_flash_ex.c **** void HAL_FLASHEx_OBGetConfig(FLASH_OBProgramInitTypeDef *pOBInit)
 424:Drivers/STM32G0xx_HAL_Driver/Src/stm32g0xx_hal_flash_ex.c **** {
 618              		.loc 1 424 1
 619              		.cfi_startproc
 620              		@ args = 0, pretend = 0, frame = 8
 621              		@ frame_needed = 1, uses_anonymous_args = 0
 622 0000 80B5     		push	{r7, lr}
 623              		.cfi_def_cfa_offset 8
 624              		.cfi_offset 7, -8
 625              		.cfi_offset 14, -4
 626 0002 82B0     		sub	sp, sp, #8
 627              		.cfi_def_cfa_offset 16
 628 0004 00AF     		add	r7, sp, #0
 629              		.cfi_def_cfa_register 7
 630 0006 7860     		str	r0, [r7, #4]
 425:Drivers/STM32G0xx_HAL_Driver/Src/stm32g0xx_hal_flash_ex.c ****   pOBInit->OptionType = OPTIONBYTE_ALL;
 631              		.loc 1 425 23
 632 0008 7B68     		ldr	r3, [r7, #4]
 633 000a 1F22     		movs	r2, #31
 634 000c 1A60     		str	r2, [r3]
 426:Drivers/STM32G0xx_HAL_Driver/Src/stm32g0xx_hal_flash_ex.c **** 
 427:Drivers/STM32G0xx_HAL_Driver/Src/stm32g0xx_hal_flash_ex.c ****   /* Get write protection on the selected area */
 428:Drivers/STM32G0xx_HAL_Driver/Src/stm32g0xx_hal_flash_ex.c ****   FLASH_OB_GetWRP(pOBInit->WRPArea, &(pOBInit->WRPStartOffset), &(pOBInit->WRPEndOffset));
 635              		.loc 1 428 3
 636 000e 7B68     		ldr	r3, [r7, #4]
 637 0010 5868     		ldr	r0, [r3, #4]
 638 0012 7B68     		ldr	r3, [r7, #4]
 639 0014 0833     		adds	r3, r3, #8
 640 0016 1900     		movs	r1, r3
 641 0018 7B68     		ldr	r3, [r7, #4]
 642 001a 0C33     		adds	r3, r3, #12
 643 001c 1A00     		movs	r2, r3
 644 001e FFF7FEFF 		bl	FLASH_OB_GetWRP
 429:Drivers/STM32G0xx_HAL_Driver/Src/stm32g0xx_hal_flash_ex.c **** 
 430:Drivers/STM32G0xx_HAL_Driver/Src/stm32g0xx_hal_flash_ex.c ****   /* Get Read protection level */
 431:Drivers/STM32G0xx_HAL_Driver/Src/stm32g0xx_hal_flash_ex.c ****   pOBInit->RDPLevel = FLASH_OB_GetRDP();
 645              		.loc 1 431 23
 646 0022 FFF7FEFF 		bl	FLASH_OB_GetRDP
 647 0026 0200     		movs	r2, r0
 648              		.loc 1 431 21
 649 0028 7B68     		ldr	r3, [r7, #4]
 650 002a 1A61     		str	r2, [r3, #16]
 432:Drivers/STM32G0xx_HAL_Driver/Src/stm32g0xx_hal_flash_ex.c **** 
 433:Drivers/STM32G0xx_HAL_Driver/Src/stm32g0xx_hal_flash_ex.c ****   /* Get the user option bytes */
 434:Drivers/STM32G0xx_HAL_Driver/Src/stm32g0xx_hal_flash_ex.c ****   pOBInit->USERConfig = FLASH_OB_GetUser();
 651              		.loc 1 434 25
 652 002c FFF7FEFF 		bl	FLASH_OB_GetUser
ARM GAS  C:\Users\SOLDER~1\AppData\Local\Temp\ccVplH7a.s 			page 20


 653 0030 0200     		movs	r2, r0
 654              		.loc 1 434 23
 655 0032 7B68     		ldr	r3, [r7, #4]
 656 0034 9A61     		str	r2, [r3, #24]
 435:Drivers/STM32G0xx_HAL_Driver/Src/stm32g0xx_hal_flash_ex.c ****   pOBInit->USERType = OB_USER_ALL;
 657              		.loc 1 435 21
 658 0036 7B68     		ldr	r3, [r7, #4]
 659 0038 214A     		ldr	r2, .L36
 660 003a 5A61     		str	r2, [r3, #20]
 436:Drivers/STM32G0xx_HAL_Driver/Src/stm32g0xx_hal_flash_ex.c **** 
 437:Drivers/STM32G0xx_HAL_Driver/Src/stm32g0xx_hal_flash_ex.c **** #if defined(FLASH_PCROP_SUPPORT)
 438:Drivers/STM32G0xx_HAL_Driver/Src/stm32g0xx_hal_flash_ex.c ****   /* Get the Proprietary code readout protection */
 439:Drivers/STM32G0xx_HAL_Driver/Src/stm32g0xx_hal_flash_ex.c ****   FLASH_OB_GetPCROP1A(&(pOBInit->PCROPConfig), &(pOBInit->PCROP1AStartAddr), &(pOBInit->PCROP1AEndA
 661              		.loc 1 439 3
 662 003c 7B68     		ldr	r3, [r7, #4]
 663 003e 1C33     		adds	r3, r3, #28
 664 0040 1800     		movs	r0, r3
 665 0042 7B68     		ldr	r3, [r7, #4]
 666 0044 2033     		adds	r3, r3, #32
 667 0046 1900     		movs	r1, r3
 668 0048 7B68     		ldr	r3, [r7, #4]
 669 004a 2433     		adds	r3, r3, #36
 670 004c 1A00     		movs	r2, r3
 671 004e FFF7FEFF 		bl	FLASH_OB_GetPCROP1A
 440:Drivers/STM32G0xx_HAL_Driver/Src/stm32g0xx_hal_flash_ex.c ****   FLASH_OB_GetPCROP1B(&(pOBInit->PCROP1BStartAddr), &(pOBInit->PCROP1BEndAddr));
 672              		.loc 1 440 3
 673 0052 7B68     		ldr	r3, [r7, #4]
 674 0054 2833     		adds	r3, r3, #40
 675 0056 1A00     		movs	r2, r3
 676 0058 7B68     		ldr	r3, [r7, #4]
 677 005a 2C33     		adds	r3, r3, #44
 678 005c 1900     		movs	r1, r3
 679 005e 1000     		movs	r0, r2
 680 0060 FFF7FEFF 		bl	FLASH_OB_GetPCROP1B
 441:Drivers/STM32G0xx_HAL_Driver/Src/stm32g0xx_hal_flash_ex.c ****   pOBInit->PCROPConfig |= (OB_PCROP_ZONE_A | OB_PCROP_ZONE_B);
 681              		.loc 1 441 24
 682 0064 7B68     		ldr	r3, [r7, #4]
 683 0066 DB69     		ldr	r3, [r3, #28]
 684 0068 0322     		movs	r2, #3
 685 006a 1A43     		orrs	r2, r3
 686 006c 7B68     		ldr	r3, [r7, #4]
 687 006e DA61     		str	r2, [r3, #28]
 442:Drivers/STM32G0xx_HAL_Driver/Src/stm32g0xx_hal_flash_ex.c **** #if defined(FLASH_DBANK_SUPPORT)
 443:Drivers/STM32G0xx_HAL_Driver/Src/stm32g0xx_hal_flash_ex.c ****   FLASH_OB_GetPCROP2A(&(pOBInit->PCROP2AStartAddr), &(pOBInit->PCROP2AEndAddr));
 688              		.loc 1 443 3
 689 0070 7B68     		ldr	r3, [r7, #4]
 690 0072 3033     		adds	r3, r3, #48
 691 0074 1A00     		movs	r2, r3
 692 0076 7B68     		ldr	r3, [r7, #4]
 693 0078 3433     		adds	r3, r3, #52
 694 007a 1900     		movs	r1, r3
 695 007c 1000     		movs	r0, r2
 696 007e FFF7FEFF 		bl	FLASH_OB_GetPCROP2A
 444:Drivers/STM32G0xx_HAL_Driver/Src/stm32g0xx_hal_flash_ex.c ****   FLASH_OB_GetPCROP2B(&(pOBInit->PCROP2BStartAddr), &(pOBInit->PCROP2BEndAddr));
 697              		.loc 1 444 3
 698 0082 7B68     		ldr	r3, [r7, #4]
 699 0084 3833     		adds	r3, r3, #56
ARM GAS  C:\Users\SOLDER~1\AppData\Local\Temp\ccVplH7a.s 			page 21


 700 0086 1A00     		movs	r2, r3
 701 0088 7B68     		ldr	r3, [r7, #4]
 702 008a 3C33     		adds	r3, r3, #60
 703 008c 1900     		movs	r1, r3
 704 008e 1000     		movs	r0, r2
 705 0090 FFF7FEFF 		bl	FLASH_OB_GetPCROP2B
 445:Drivers/STM32G0xx_HAL_Driver/Src/stm32g0xx_hal_flash_ex.c ****   pOBInit->PCROPConfig |= (OB_PCROP_ZONE2_A | OB_PCROP_ZONE2_B);
 706              		.loc 1 445 24
 707 0094 7B68     		ldr	r3, [r7, #4]
 708 0096 DB69     		ldr	r3, [r3, #28]
 709 0098 0C22     		movs	r2, #12
 710 009a 1A43     		orrs	r2, r3
 711 009c 7B68     		ldr	r3, [r7, #4]
 712 009e DA61     		str	r2, [r3, #28]
 446:Drivers/STM32G0xx_HAL_Driver/Src/stm32g0xx_hal_flash_ex.c **** #endif /* FLASH_DBANK_SUPPORT */
 447:Drivers/STM32G0xx_HAL_Driver/Src/stm32g0xx_hal_flash_ex.c **** #endif /* FLASH_PCROP_SUPPORT */
 448:Drivers/STM32G0xx_HAL_Driver/Src/stm32g0xx_hal_flash_ex.c **** 
 449:Drivers/STM32G0xx_HAL_Driver/Src/stm32g0xx_hal_flash_ex.c **** #if defined(FLASH_SECURABLE_MEMORY_SUPPORT)
 450:Drivers/STM32G0xx_HAL_Driver/Src/stm32g0xx_hal_flash_ex.c **** #if defined(FLASH_DBANK_SUPPORT)
 451:Drivers/STM32G0xx_HAL_Driver/Src/stm32g0xx_hal_flash_ex.c ****   /* Get the Securable Memory Area protection */
 452:Drivers/STM32G0xx_HAL_Driver/Src/stm32g0xx_hal_flash_ex.c ****   FLASH_OB_GetSecMem(&(pOBInit->BootEntryPoint), &(pOBInit->SecSize), &(pOBInit->SecSize2));
 713              		.loc 1 452 3
 714 00a0 7B68     		ldr	r3, [r7, #4]
 715 00a2 4033     		adds	r3, r3, #64
 716 00a4 1800     		movs	r0, r3
 717 00a6 7B68     		ldr	r3, [r7, #4]
 718 00a8 4433     		adds	r3, r3, #68
 719 00aa 1900     		movs	r1, r3
 720 00ac 7B68     		ldr	r3, [r7, #4]
 721 00ae 4833     		adds	r3, r3, #72
 722 00b0 1A00     		movs	r2, r3
 723 00b2 FFF7FEFF 		bl	FLASH_OB_GetSecMem
 453:Drivers/STM32G0xx_HAL_Driver/Src/stm32g0xx_hal_flash_ex.c **** #else
 454:Drivers/STM32G0xx_HAL_Driver/Src/stm32g0xx_hal_flash_ex.c ****   /* Get the Securable Memory Area protection */
 455:Drivers/STM32G0xx_HAL_Driver/Src/stm32g0xx_hal_flash_ex.c ****   FLASH_OB_GetSecMem(&(pOBInit->BootEntryPoint), &(pOBInit->SecSize));
 456:Drivers/STM32G0xx_HAL_Driver/Src/stm32g0xx_hal_flash_ex.c **** #endif /* FLASH_DBANK_SUPPORT */
 457:Drivers/STM32G0xx_HAL_Driver/Src/stm32g0xx_hal_flash_ex.c **** #endif /* FLASH_SECURABLE_MEMORY_SUPPORT */
 458:Drivers/STM32G0xx_HAL_Driver/Src/stm32g0xx_hal_flash_ex.c **** }
 724              		.loc 1 458 1
 725 00b6 C046     		nop
 726 00b8 BD46     		mov	sp, r7
 727 00ba 02B0     		add	sp, sp, #8
 728              		@ sp needed
 729 00bc 80BD     		pop	{r7, pc}
 730              	.L37:
 731 00be C046     		.align	2
 732              	.L36:
 733 00c0 00FF7F3F 		.word	1065352960
 734              		.cfi_endproc
 735              	.LFE358:
 737              		.section	.text.HAL_FLASHEx_EnableDebugger,"ax",%progbits
 738              		.align	1
 739              		.global	HAL_FLASHEx_EnableDebugger
 740              		.syntax unified
 741              		.code	16
 742              		.thumb_func
 744              	HAL_FLASHEx_EnableDebugger:
ARM GAS  C:\Users\SOLDER~1\AppData\Local\Temp\ccVplH7a.s 			page 22


 745              	.LFB359:
 459:Drivers/STM32G0xx_HAL_Driver/Src/stm32g0xx_hal_flash_ex.c **** 
 460:Drivers/STM32G0xx_HAL_Driver/Src/stm32g0xx_hal_flash_ex.c **** #if defined(FLASH_ACR_DBG_SWEN)
 461:Drivers/STM32G0xx_HAL_Driver/Src/stm32g0xx_hal_flash_ex.c **** /**
 462:Drivers/STM32G0xx_HAL_Driver/Src/stm32g0xx_hal_flash_ex.c ****   * @brief  Enable Debugger.
 463:Drivers/STM32G0xx_HAL_Driver/Src/stm32g0xx_hal_flash_ex.c ****   * @note   After calling this API, flash interface allow debugger intrusion.
 464:Drivers/STM32G0xx_HAL_Driver/Src/stm32g0xx_hal_flash_ex.c ****   * @retval None
 465:Drivers/STM32G0xx_HAL_Driver/Src/stm32g0xx_hal_flash_ex.c ****   */
 466:Drivers/STM32G0xx_HAL_Driver/Src/stm32g0xx_hal_flash_ex.c **** void HAL_FLASHEx_EnableDebugger(void)
 467:Drivers/STM32G0xx_HAL_Driver/Src/stm32g0xx_hal_flash_ex.c **** {
 746              		.loc 1 467 1
 747              		.cfi_startproc
 748              		@ args = 0, pretend = 0, frame = 0
 749              		@ frame_needed = 1, uses_anonymous_args = 0
 750 0000 80B5     		push	{r7, lr}
 751              		.cfi_def_cfa_offset 8
 752              		.cfi_offset 7, -8
 753              		.cfi_offset 14, -4
 754 0002 00AF     		add	r7, sp, #0
 755              		.cfi_def_cfa_register 7
 468:Drivers/STM32G0xx_HAL_Driver/Src/stm32g0xx_hal_flash_ex.c ****   FLASH->ACR |= FLASH_ACR_DBG_SWEN;
 756              		.loc 1 468 14
 757 0004 044B     		ldr	r3, .L39
 758 0006 1A68     		ldr	r2, [r3]
 759 0008 034B     		ldr	r3, .L39
 760 000a 8021     		movs	r1, #128
 761 000c C902     		lsls	r1, r1, #11
 762 000e 0A43     		orrs	r2, r1
 763 0010 1A60     		str	r2, [r3]
 469:Drivers/STM32G0xx_HAL_Driver/Src/stm32g0xx_hal_flash_ex.c **** }
 764              		.loc 1 469 1
 765 0012 C046     		nop
 766 0014 BD46     		mov	sp, r7
 767              		@ sp needed
 768 0016 80BD     		pop	{r7, pc}
 769              	.L40:
 770              		.align	2
 771              	.L39:
 772 0018 00200240 		.word	1073881088
 773              		.cfi_endproc
 774              	.LFE359:
 776              		.section	.text.HAL_FLASHEx_DisableDebugger,"ax",%progbits
 777              		.align	1
 778              		.global	HAL_FLASHEx_DisableDebugger
 779              		.syntax unified
 780              		.code	16
 781              		.thumb_func
 783              	HAL_FLASHEx_DisableDebugger:
 784              	.LFB360:
 470:Drivers/STM32G0xx_HAL_Driver/Src/stm32g0xx_hal_flash_ex.c **** 
 471:Drivers/STM32G0xx_HAL_Driver/Src/stm32g0xx_hal_flash_ex.c **** 
 472:Drivers/STM32G0xx_HAL_Driver/Src/stm32g0xx_hal_flash_ex.c **** /**
 473:Drivers/STM32G0xx_HAL_Driver/Src/stm32g0xx_hal_flash_ex.c ****   * @brief  Disable Debugger.
 474:Drivers/STM32G0xx_HAL_Driver/Src/stm32g0xx_hal_flash_ex.c ****   * @note   After calling this API, Debugger is disabled: it is no more possible to
 475:Drivers/STM32G0xx_HAL_Driver/Src/stm32g0xx_hal_flash_ex.c ****   *         break, see CPU register, etc...
 476:Drivers/STM32G0xx_HAL_Driver/Src/stm32g0xx_hal_flash_ex.c ****   * @retval None
 477:Drivers/STM32G0xx_HAL_Driver/Src/stm32g0xx_hal_flash_ex.c ****   */
ARM GAS  C:\Users\SOLDER~1\AppData\Local\Temp\ccVplH7a.s 			page 23


 478:Drivers/STM32G0xx_HAL_Driver/Src/stm32g0xx_hal_flash_ex.c **** void HAL_FLASHEx_DisableDebugger(void)
 479:Drivers/STM32G0xx_HAL_Driver/Src/stm32g0xx_hal_flash_ex.c **** {
 785              		.loc 1 479 1
 786              		.cfi_startproc
 787              		@ args = 0, pretend = 0, frame = 0
 788              		@ frame_needed = 1, uses_anonymous_args = 0
 789 0000 80B5     		push	{r7, lr}
 790              		.cfi_def_cfa_offset 8
 791              		.cfi_offset 7, -8
 792              		.cfi_offset 14, -4
 793 0002 00AF     		add	r7, sp, #0
 794              		.cfi_def_cfa_register 7
 480:Drivers/STM32G0xx_HAL_Driver/Src/stm32g0xx_hal_flash_ex.c ****   FLASH->ACR &= ~FLASH_ACR_DBG_SWEN;
 795              		.loc 1 480 14
 796 0004 044B     		ldr	r3, .L42
 797 0006 1A68     		ldr	r2, [r3]
 798 0008 034B     		ldr	r3, .L42
 799 000a 0449     		ldr	r1, .L42+4
 800 000c 0A40     		ands	r2, r1
 801 000e 1A60     		str	r2, [r3]
 481:Drivers/STM32G0xx_HAL_Driver/Src/stm32g0xx_hal_flash_ex.c **** }
 802              		.loc 1 481 1
 803 0010 C046     		nop
 804 0012 BD46     		mov	sp, r7
 805              		@ sp needed
 806 0014 80BD     		pop	{r7, pc}
 807              	.L43:
 808 0016 C046     		.align	2
 809              	.L42:
 810 0018 00200240 		.word	1073881088
 811 001c FFFFFBFF 		.word	-262145
 812              		.cfi_endproc
 813              	.LFE360:
 815              		.section	.text.HAL_FLASHEx_FlashEmptyCheck,"ax",%progbits
 816              		.align	1
 817              		.global	HAL_FLASHEx_FlashEmptyCheck
 818              		.syntax unified
 819              		.code	16
 820              		.thumb_func
 822              	HAL_FLASHEx_FlashEmptyCheck:
 823              	.LFB361:
 482:Drivers/STM32G0xx_HAL_Driver/Src/stm32g0xx_hal_flash_ex.c **** #endif /* FLASH_ACR_DBG_SWEN */
 483:Drivers/STM32G0xx_HAL_Driver/Src/stm32g0xx_hal_flash_ex.c **** 
 484:Drivers/STM32G0xx_HAL_Driver/Src/stm32g0xx_hal_flash_ex.c **** /**
 485:Drivers/STM32G0xx_HAL_Driver/Src/stm32g0xx_hal_flash_ex.c ****   * @brief  Flash Empty check
 486:Drivers/STM32G0xx_HAL_Driver/Src/stm32g0xx_hal_flash_ex.c ****   * @note   This API checks if first location in Flash is programmed or not.
 487:Drivers/STM32G0xx_HAL_Driver/Src/stm32g0xx_hal_flash_ex.c ****   *         This check is done once by Option Byte Loader.
 488:Drivers/STM32G0xx_HAL_Driver/Src/stm32g0xx_hal_flash_ex.c ****   * @retval 0 if 1st location is not programmed else
 489:Drivers/STM32G0xx_HAL_Driver/Src/stm32g0xx_hal_flash_ex.c ****   */
 490:Drivers/STM32G0xx_HAL_Driver/Src/stm32g0xx_hal_flash_ex.c **** uint32_t HAL_FLASHEx_FlashEmptyCheck(void)
 491:Drivers/STM32G0xx_HAL_Driver/Src/stm32g0xx_hal_flash_ex.c **** {
 824              		.loc 1 491 1
 825              		.cfi_startproc
 826              		@ args = 0, pretend = 0, frame = 0
 827              		@ frame_needed = 1, uses_anonymous_args = 0
 828 0000 80B5     		push	{r7, lr}
 829              		.cfi_def_cfa_offset 8
ARM GAS  C:\Users\SOLDER~1\AppData\Local\Temp\ccVplH7a.s 			page 24


 830              		.cfi_offset 7, -8
 831              		.cfi_offset 14, -4
 832 0002 00AF     		add	r7, sp, #0
 833              		.cfi_def_cfa_register 7
 492:Drivers/STM32G0xx_HAL_Driver/Src/stm32g0xx_hal_flash_ex.c ****   return ((FLASH->ACR & FLASH_ACR_PROGEMPTY));
 834              		.loc 1 492 17
 835 0004 034B     		ldr	r3, .L46
 836 0006 1A68     		ldr	r2, [r3]
 837              		.loc 1 492 23
 838 0008 8023     		movs	r3, #128
 839 000a 5B02     		lsls	r3, r3, #9
 840 000c 1340     		ands	r3, r2
 493:Drivers/STM32G0xx_HAL_Driver/Src/stm32g0xx_hal_flash_ex.c **** }
 841              		.loc 1 493 1
 842 000e 1800     		movs	r0, r3
 843 0010 BD46     		mov	sp, r7
 844              		@ sp needed
 845 0012 80BD     		pop	{r7, pc}
 846              	.L47:
 847              		.align	2
 848              	.L46:
 849 0014 00200240 		.word	1073881088
 850              		.cfi_endproc
 851              	.LFE361:
 853              		.section	.text.HAL_FLASHEx_ForceFlashEmpty,"ax",%progbits
 854              		.align	1
 855              		.global	HAL_FLASHEx_ForceFlashEmpty
 856              		.syntax unified
 857              		.code	16
 858              		.thumb_func
 860              	HAL_FLASHEx_ForceFlashEmpty:
 861              	.LFB362:
 494:Drivers/STM32G0xx_HAL_Driver/Src/stm32g0xx_hal_flash_ex.c **** 
 495:Drivers/STM32G0xx_HAL_Driver/Src/stm32g0xx_hal_flash_ex.c **** 
 496:Drivers/STM32G0xx_HAL_Driver/Src/stm32g0xx_hal_flash_ex.c **** /**
 497:Drivers/STM32G0xx_HAL_Driver/Src/stm32g0xx_hal_flash_ex.c ****   * @brief  Force Empty check value.
 498:Drivers/STM32G0xx_HAL_Driver/Src/stm32g0xx_hal_flash_ex.c ****   * @note   Allows to modify program empty check value in order to force this
 499:Drivers/STM32G0xx_HAL_Driver/Src/stm32g0xx_hal_flash_ex.c ****   *         infrmation in Flash Interface, for all next reset that do not launch
 500:Drivers/STM32G0xx_HAL_Driver/Src/stm32g0xx_hal_flash_ex.c ****   *         Option Byte Loader.
 501:Drivers/STM32G0xx_HAL_Driver/Src/stm32g0xx_hal_flash_ex.c ****   * @param  FlashEmpty this parameter can be a value of @ref FLASHEx_Empty_Check
 502:Drivers/STM32G0xx_HAL_Driver/Src/stm32g0xx_hal_flash_ex.c ****   * @retval None
 503:Drivers/STM32G0xx_HAL_Driver/Src/stm32g0xx_hal_flash_ex.c ****   */
 504:Drivers/STM32G0xx_HAL_Driver/Src/stm32g0xx_hal_flash_ex.c **** void HAL_FLASHEx_ForceFlashEmpty(uint32_t FlashEmpty)
 505:Drivers/STM32G0xx_HAL_Driver/Src/stm32g0xx_hal_flash_ex.c **** {
 862              		.loc 1 505 1
 863              		.cfi_startproc
 864              		@ args = 0, pretend = 0, frame = 16
 865              		@ frame_needed = 1, uses_anonymous_args = 0
 866 0000 80B5     		push	{r7, lr}
 867              		.cfi_def_cfa_offset 8
 868              		.cfi_offset 7, -8
 869              		.cfi_offset 14, -4
 870 0002 84B0     		sub	sp, sp, #16
 871              		.cfi_def_cfa_offset 24
 872 0004 00AF     		add	r7, sp, #0
 873              		.cfi_def_cfa_register 7
 874 0006 7860     		str	r0, [r7, #4]
ARM GAS  C:\Users\SOLDER~1\AppData\Local\Temp\ccVplH7a.s 			page 25


 506:Drivers/STM32G0xx_HAL_Driver/Src/stm32g0xx_hal_flash_ex.c ****   uint32_t acr;
 507:Drivers/STM32G0xx_HAL_Driver/Src/stm32g0xx_hal_flash_ex.c ****   assert_param(IS_FLASH_EMPTY_CHECK(FlashEmpty));
 508:Drivers/STM32G0xx_HAL_Driver/Src/stm32g0xx_hal_flash_ex.c **** 
 509:Drivers/STM32G0xx_HAL_Driver/Src/stm32g0xx_hal_flash_ex.c ****   acr = (FLASH->ACR & ~FLASH_ACR_PROGEMPTY);
 875              		.loc 1 509 15
 876 0008 064B     		ldr	r3, .L49
 877 000a 1B68     		ldr	r3, [r3]
 878              		.loc 1 509 7
 879 000c 064A     		ldr	r2, .L49+4
 880 000e 1340     		ands	r3, r2
 881 0010 FB60     		str	r3, [r7, #12]
 510:Drivers/STM32G0xx_HAL_Driver/Src/stm32g0xx_hal_flash_ex.c ****   FLASH->ACR = (acr | FlashEmpty);
 882              		.loc 1 510 8
 883 0012 044B     		ldr	r3, .L49
 884              		.loc 1 510 21
 885 0014 F968     		ldr	r1, [r7, #12]
 886 0016 7A68     		ldr	r2, [r7, #4]
 887 0018 0A43     		orrs	r2, r1
 888              		.loc 1 510 14
 889 001a 1A60     		str	r2, [r3]
 511:Drivers/STM32G0xx_HAL_Driver/Src/stm32g0xx_hal_flash_ex.c **** }
 890              		.loc 1 511 1
 891 001c C046     		nop
 892 001e BD46     		mov	sp, r7
 893 0020 04B0     		add	sp, sp, #16
 894              		@ sp needed
 895 0022 80BD     		pop	{r7, pc}
 896              	.L50:
 897              		.align	2
 898              	.L49:
 899 0024 00200240 		.word	1073881088
 900 0028 FFFFFEFF 		.word	-65537
 901              		.cfi_endproc
 902              	.LFE362:
 904              		.section	.text.HAL_FLASHEx_EnableSecMemProtection,"ax",%progbits
 905              		.align	1
 906              		.global	HAL_FLASHEx_EnableSecMemProtection
 907              		.syntax unified
 908              		.code	16
 909              		.thumb_func
 911              	HAL_FLASHEx_EnableSecMemProtection:
 912              	.LFB363:
 512:Drivers/STM32G0xx_HAL_Driver/Src/stm32g0xx_hal_flash_ex.c **** 
 513:Drivers/STM32G0xx_HAL_Driver/Src/stm32g0xx_hal_flash_ex.c **** 
 514:Drivers/STM32G0xx_HAL_Driver/Src/stm32g0xx_hal_flash_ex.c **** #if defined(FLASH_SECURABLE_MEMORY_SUPPORT)
 515:Drivers/STM32G0xx_HAL_Driver/Src/stm32g0xx_hal_flash_ex.c **** /**
 516:Drivers/STM32G0xx_HAL_Driver/Src/stm32g0xx_hal_flash_ex.c ****   * @brief  Securable memory area protection enable
 517:Drivers/STM32G0xx_HAL_Driver/Src/stm32g0xx_hal_flash_ex.c ****   * @param  Banks Select Bank to be secured.
 518:Drivers/STM32G0xx_HAL_Driver/Src/stm32g0xx_hal_flash_ex.c ****   *         This parameter can be a value of @ref FLASH_Banks
 519:Drivers/STM32G0xx_HAL_Driver/Src/stm32g0xx_hal_flash_ex.c ****   * @note   On some devices, there is only 1 bank so parameter has to be set FLASH_BANK_1.
 520:Drivers/STM32G0xx_HAL_Driver/Src/stm32g0xx_hal_flash_ex.c ****   * @note   This API locks Securable memory area which is defined in SEC_SIZE option byte
 521:Drivers/STM32G0xx_HAL_Driver/Src/stm32g0xx_hal_flash_ex.c ****   *         (that can be retrieved calling HAL_FLASHEx_OBGetConfig API and checking
 522:Drivers/STM32G0xx_HAL_Driver/Src/stm32g0xx_hal_flash_ex.c ****   *         Secsize).
 523:Drivers/STM32G0xx_HAL_Driver/Src/stm32g0xx_hal_flash_ex.c ****   * @note   SEC_PROT bit can only be set, it will be reset by system reset.
 524:Drivers/STM32G0xx_HAL_Driver/Src/stm32g0xx_hal_flash_ex.c ****   * @retval None
 525:Drivers/STM32G0xx_HAL_Driver/Src/stm32g0xx_hal_flash_ex.c ****   */
 526:Drivers/STM32G0xx_HAL_Driver/Src/stm32g0xx_hal_flash_ex.c **** void HAL_FLASHEx_EnableSecMemProtection(uint32_t Banks)
ARM GAS  C:\Users\SOLDER~1\AppData\Local\Temp\ccVplH7a.s 			page 26


 527:Drivers/STM32G0xx_HAL_Driver/Src/stm32g0xx_hal_flash_ex.c **** {
 913              		.loc 1 527 1
 914              		.cfi_startproc
 915              		@ args = 0, pretend = 0, frame = 8
 916              		@ frame_needed = 1, uses_anonymous_args = 0
 917 0000 80B5     		push	{r7, lr}
 918              		.cfi_def_cfa_offset 8
 919              		.cfi_offset 7, -8
 920              		.cfi_offset 14, -4
 921 0002 82B0     		sub	sp, sp, #8
 922              		.cfi_def_cfa_offset 16
 923 0004 00AF     		add	r7, sp, #0
 924              		.cfi_def_cfa_register 7
 925 0006 7860     		str	r0, [r7, #4]
 528:Drivers/STM32G0xx_HAL_Driver/Src/stm32g0xx_hal_flash_ex.c **** #if defined(FLASH_DBANK_SUPPORT)
 529:Drivers/STM32G0xx_HAL_Driver/Src/stm32g0xx_hal_flash_ex.c ****   assert_param(IS_FLASH_BANK(Banks));
 530:Drivers/STM32G0xx_HAL_Driver/Src/stm32g0xx_hal_flash_ex.c **** 
 531:Drivers/STM32G0xx_HAL_Driver/Src/stm32g0xx_hal_flash_ex.c ****   if (Banks == (FLASH_BANK_2  | FLASH_BANK_1))
 926              		.loc 1 531 6
 927 0008 7B68     		ldr	r3, [r7, #4]
 928 000a 114A     		ldr	r2, .L56
 929 000c 9342     		cmp	r3, r2
 930 000e 07D1     		bne	.L52
 532:Drivers/STM32G0xx_HAL_Driver/Src/stm32g0xx_hal_flash_ex.c ****   {
 533:Drivers/STM32G0xx_HAL_Driver/Src/stm32g0xx_hal_flash_ex.c ****     FLASH->CR |= (FLASH_CR_SEC_PROT2 | FLASH_CR_SEC_PROT);
 931              		.loc 1 533 15
 932 0010 104B     		ldr	r3, .L56+4
 933 0012 5A69     		ldr	r2, [r3, #20]
 934 0014 0F4B     		ldr	r3, .L56+4
 935 0016 C021     		movs	r1, #192
 936 0018 8905     		lsls	r1, r1, #22
 937 001a 0A43     		orrs	r2, r1
 938 001c 5A61     		str	r2, [r3, #20]
 534:Drivers/STM32G0xx_HAL_Driver/Src/stm32g0xx_hal_flash_ex.c ****   }
 535:Drivers/STM32G0xx_HAL_Driver/Src/stm32g0xx_hal_flash_ex.c ****   else if (Banks == FLASH_BANK_2)
 536:Drivers/STM32G0xx_HAL_Driver/Src/stm32g0xx_hal_flash_ex.c ****   {
 537:Drivers/STM32G0xx_HAL_Driver/Src/stm32g0xx_hal_flash_ex.c ****     FLASH->CR |= FLASH_CR_SEC_PROT2;
 538:Drivers/STM32G0xx_HAL_Driver/Src/stm32g0xx_hal_flash_ex.c ****   }
 539:Drivers/STM32G0xx_HAL_Driver/Src/stm32g0xx_hal_flash_ex.c ****   else
 540:Drivers/STM32G0xx_HAL_Driver/Src/stm32g0xx_hal_flash_ex.c **** #else
 541:Drivers/STM32G0xx_HAL_Driver/Src/stm32g0xx_hal_flash_ex.c ****   UNUSED(Banks);
 542:Drivers/STM32G0xx_HAL_Driver/Src/stm32g0xx_hal_flash_ex.c **** #endif /* FLASH_DBANK_SUPPORT */
 543:Drivers/STM32G0xx_HAL_Driver/Src/stm32g0xx_hal_flash_ex.c ****   {
 544:Drivers/STM32G0xx_HAL_Driver/Src/stm32g0xx_hal_flash_ex.c ****     FLASH->CR |= FLASH_CR_SEC_PROT;
 545:Drivers/STM32G0xx_HAL_Driver/Src/stm32g0xx_hal_flash_ex.c ****   }
 546:Drivers/STM32G0xx_HAL_Driver/Src/stm32g0xx_hal_flash_ex.c **** }
 939              		.loc 1 546 1
 940 001e 13E0     		b	.L55
 941              	.L52:
 535:Drivers/STM32G0xx_HAL_Driver/Src/stm32g0xx_hal_flash_ex.c ****   {
 942              		.loc 1 535 11
 943 0020 7A68     		ldr	r2, [r7, #4]
 944 0022 8023     		movs	r3, #128
 945 0024 1B02     		lsls	r3, r3, #8
 946 0026 9A42     		cmp	r2, r3
 947 0028 07D1     		bne	.L54
 537:Drivers/STM32G0xx_HAL_Driver/Src/stm32g0xx_hal_flash_ex.c ****   }
ARM GAS  C:\Users\SOLDER~1\AppData\Local\Temp\ccVplH7a.s 			page 27


 948              		.loc 1 537 15
 949 002a 0A4B     		ldr	r3, .L56+4
 950 002c 5A69     		ldr	r2, [r3, #20]
 951 002e 094B     		ldr	r3, .L56+4
 952 0030 8021     		movs	r1, #128
 953 0032 8905     		lsls	r1, r1, #22
 954 0034 0A43     		orrs	r2, r1
 955 0036 5A61     		str	r2, [r3, #20]
 956              		.loc 1 546 1
 957 0038 06E0     		b	.L55
 958              	.L54:
 544:Drivers/STM32G0xx_HAL_Driver/Src/stm32g0xx_hal_flash_ex.c ****   }
 959              		.loc 1 544 15
 960 003a 064B     		ldr	r3, .L56+4
 961 003c 5A69     		ldr	r2, [r3, #20]
 962 003e 054B     		ldr	r3, .L56+4
 963 0040 8021     		movs	r1, #128
 964 0042 4905     		lsls	r1, r1, #21
 965 0044 0A43     		orrs	r2, r1
 966 0046 5A61     		str	r2, [r3, #20]
 967              	.L55:
 968              		.loc 1 546 1
 969 0048 C046     		nop
 970 004a BD46     		mov	sp, r7
 971 004c 02B0     		add	sp, sp, #8
 972              		@ sp needed
 973 004e 80BD     		pop	{r7, pc}
 974              	.L57:
 975              		.align	2
 976              	.L56:
 977 0050 04800000 		.word	32772
 978 0054 00200240 		.word	1073881088
 979              		.cfi_endproc
 980              	.LFE363:
 982              		.section	.text.FLASH_MassErase,"ax",%progbits
 983              		.align	1
 984              		.syntax unified
 985              		.code	16
 986              		.thumb_func
 988              	FLASH_MassErase:
 989              	.LFB364:
 547:Drivers/STM32G0xx_HAL_Driver/Src/stm32g0xx_hal_flash_ex.c **** #endif /* FLASH_SECURABLE_MEMORY_SUPPORT */
 548:Drivers/STM32G0xx_HAL_Driver/Src/stm32g0xx_hal_flash_ex.c **** /**
 549:Drivers/STM32G0xx_HAL_Driver/Src/stm32g0xx_hal_flash_ex.c ****   * @}
 550:Drivers/STM32G0xx_HAL_Driver/Src/stm32g0xx_hal_flash_ex.c ****   */
 551:Drivers/STM32G0xx_HAL_Driver/Src/stm32g0xx_hal_flash_ex.c **** 
 552:Drivers/STM32G0xx_HAL_Driver/Src/stm32g0xx_hal_flash_ex.c **** /**
 553:Drivers/STM32G0xx_HAL_Driver/Src/stm32g0xx_hal_flash_ex.c ****   * @}
 554:Drivers/STM32G0xx_HAL_Driver/Src/stm32g0xx_hal_flash_ex.c ****   */
 555:Drivers/STM32G0xx_HAL_Driver/Src/stm32g0xx_hal_flash_ex.c **** 
 556:Drivers/STM32G0xx_HAL_Driver/Src/stm32g0xx_hal_flash_ex.c **** /* Private functions ---------------------------------------------------------*/
 557:Drivers/STM32G0xx_HAL_Driver/Src/stm32g0xx_hal_flash_ex.c **** /** @addtogroup FLASHEx_Private_Functions
 558:Drivers/STM32G0xx_HAL_Driver/Src/stm32g0xx_hal_flash_ex.c ****   * @{
 559:Drivers/STM32G0xx_HAL_Driver/Src/stm32g0xx_hal_flash_ex.c ****   */
 560:Drivers/STM32G0xx_HAL_Driver/Src/stm32g0xx_hal_flash_ex.c **** 
 561:Drivers/STM32G0xx_HAL_Driver/Src/stm32g0xx_hal_flash_ex.c **** /**
 562:Drivers/STM32G0xx_HAL_Driver/Src/stm32g0xx_hal_flash_ex.c ****   * @brief  Mass erase of FLASH memory.
ARM GAS  C:\Users\SOLDER~1\AppData\Local\Temp\ccVplH7a.s 			page 28


 563:Drivers/STM32G0xx_HAL_Driver/Src/stm32g0xx_hal_flash_ex.c ****   * @param  Banks: Banks to be erased
 564:Drivers/STM32G0xx_HAL_Driver/Src/stm32g0xx_hal_flash_ex.c ****   *         This parameter can be a combination of the following values:
 565:Drivers/STM32G0xx_HAL_Driver/Src/stm32g0xx_hal_flash_ex.c ****   *            @arg FLASH_BANK_1: Bank1 to be erased
 566:Drivers/STM32G0xx_HAL_Driver/Src/stm32g0xx_hal_flash_ex.c ****   *            @arg FLASH_BANK_2: Bank2 to be erased*
 567:Drivers/STM32G0xx_HAL_Driver/Src/stm32g0xx_hal_flash_ex.c ****   * @note (*) availability depends on devices
 568:Drivers/STM32G0xx_HAL_Driver/Src/stm32g0xx_hal_flash_ex.c ****   * @retval None
 569:Drivers/STM32G0xx_HAL_Driver/Src/stm32g0xx_hal_flash_ex.c ****   */
 570:Drivers/STM32G0xx_HAL_Driver/Src/stm32g0xx_hal_flash_ex.c **** static void FLASH_MassErase(uint32_t Banks)
 571:Drivers/STM32G0xx_HAL_Driver/Src/stm32g0xx_hal_flash_ex.c **** {
 990              		.loc 1 571 1
 991              		.cfi_startproc
 992              		@ args = 0, pretend = 0, frame = 8
 993              		@ frame_needed = 1, uses_anonymous_args = 0
 994 0000 80B5     		push	{r7, lr}
 995              		.cfi_def_cfa_offset 8
 996              		.cfi_offset 7, -8
 997              		.cfi_offset 14, -4
 998 0002 82B0     		sub	sp, sp, #8
 999              		.cfi_def_cfa_offset 16
 1000 0004 00AF     		add	r7, sp, #0
 1001              		.cfi_def_cfa_register 7
 1002 0006 7860     		str	r0, [r7, #4]
 572:Drivers/STM32G0xx_HAL_Driver/Src/stm32g0xx_hal_flash_ex.c ****   /* Check the parameters */
 573:Drivers/STM32G0xx_HAL_Driver/Src/stm32g0xx_hal_flash_ex.c ****   assert_param(IS_FLASH_BANK(Banks));
 574:Drivers/STM32G0xx_HAL_Driver/Src/stm32g0xx_hal_flash_ex.c **** 
 575:Drivers/STM32G0xx_HAL_Driver/Src/stm32g0xx_hal_flash_ex.c ****   /* Set the Mass Erase Bit and start bit */
 576:Drivers/STM32G0xx_HAL_Driver/Src/stm32g0xx_hal_flash_ex.c ****   FLASH->CR |= (FLASH_CR_STRT | Banks);
 1003              		.loc 1 576 13
 1004 0008 064B     		ldr	r3, .L59
 1005 000a 5A69     		ldr	r2, [r3, #20]
 1006 000c 7B68     		ldr	r3, [r7, #4]
 1007 000e 1A43     		orrs	r2, r3
 1008 0010 044B     		ldr	r3, .L59
 1009 0012 8021     		movs	r1, #128
 1010 0014 4902     		lsls	r1, r1, #9
 1011 0016 0A43     		orrs	r2, r1
 1012 0018 5A61     		str	r2, [r3, #20]
 577:Drivers/STM32G0xx_HAL_Driver/Src/stm32g0xx_hal_flash_ex.c **** }
 1013              		.loc 1 577 1
 1014 001a C046     		nop
 1015 001c BD46     		mov	sp, r7
 1016 001e 02B0     		add	sp, sp, #8
 1017              		@ sp needed
 1018 0020 80BD     		pop	{r7, pc}
 1019              	.L60:
 1020 0022 C046     		.align	2
 1021              	.L59:
 1022 0024 00200240 		.word	1073881088
 1023              		.cfi_endproc
 1024              	.LFE364:
 1026              		.section	.text.FLASH_PageErase,"ax",%progbits
 1027              		.align	1
 1028              		.global	FLASH_PageErase
 1029              		.syntax unified
 1030              		.code	16
 1031              		.thumb_func
 1033              	FLASH_PageErase:
ARM GAS  C:\Users\SOLDER~1\AppData\Local\Temp\ccVplH7a.s 			page 29


 1034              	.LFB365:
 578:Drivers/STM32G0xx_HAL_Driver/Src/stm32g0xx_hal_flash_ex.c **** 
 579:Drivers/STM32G0xx_HAL_Driver/Src/stm32g0xx_hal_flash_ex.c **** /**
 580:Drivers/STM32G0xx_HAL_Driver/Src/stm32g0xx_hal_flash_ex.c ****   * @brief  Erase the specified FLASH memory page.
 581:Drivers/STM32G0xx_HAL_Driver/Src/stm32g0xx_hal_flash_ex.c ****   * @param  Banks: Banks to be erased
 582:Drivers/STM32G0xx_HAL_Driver/Src/stm32g0xx_hal_flash_ex.c ****   *         This parameter can one of the following values:
 583:Drivers/STM32G0xx_HAL_Driver/Src/stm32g0xx_hal_flash_ex.c ****   *            @arg FLASH_BANK_1: Bank1 to be erased
 584:Drivers/STM32G0xx_HAL_Driver/Src/stm32g0xx_hal_flash_ex.c ****   *            @arg FLASH_BANK_2: Bank2 to be erased*
 585:Drivers/STM32G0xx_HAL_Driver/Src/stm32g0xx_hal_flash_ex.c ****   * @param  Page FLASH page to erase
 586:Drivers/STM32G0xx_HAL_Driver/Src/stm32g0xx_hal_flash_ex.c ****   *         This parameter must be a value between 0 and (max number of pages in Flash - 1)
 587:Drivers/STM32G0xx_HAL_Driver/Src/stm32g0xx_hal_flash_ex.c ****   * @note (*) availability depends on devices
 588:Drivers/STM32G0xx_HAL_Driver/Src/stm32g0xx_hal_flash_ex.c ****   * @retval None
 589:Drivers/STM32G0xx_HAL_Driver/Src/stm32g0xx_hal_flash_ex.c ****   */
 590:Drivers/STM32G0xx_HAL_Driver/Src/stm32g0xx_hal_flash_ex.c **** void FLASH_PageErase(uint32_t Banks, uint32_t Page)
 591:Drivers/STM32G0xx_HAL_Driver/Src/stm32g0xx_hal_flash_ex.c **** {
 1035              		.loc 1 591 1
 1036              		.cfi_startproc
 1037              		@ args = 0, pretend = 0, frame = 16
 1038              		@ frame_needed = 1, uses_anonymous_args = 0
 1039 0000 80B5     		push	{r7, lr}
 1040              		.cfi_def_cfa_offset 8
 1041              		.cfi_offset 7, -8
 1042              		.cfi_offset 14, -4
 1043 0002 84B0     		sub	sp, sp, #16
 1044              		.cfi_def_cfa_offset 24
 1045 0004 00AF     		add	r7, sp, #0
 1046              		.cfi_def_cfa_register 7
 1047 0006 7860     		str	r0, [r7, #4]
 1048 0008 3960     		str	r1, [r7]
 592:Drivers/STM32G0xx_HAL_Driver/Src/stm32g0xx_hal_flash_ex.c ****   uint32_t tmp;
 593:Drivers/STM32G0xx_HAL_Driver/Src/stm32g0xx_hal_flash_ex.c **** 
 594:Drivers/STM32G0xx_HAL_Driver/Src/stm32g0xx_hal_flash_ex.c ****   /* Check the parameters */
 595:Drivers/STM32G0xx_HAL_Driver/Src/stm32g0xx_hal_flash_ex.c ****   assert_param(IS_FLASH_BANK(Banks));
 596:Drivers/STM32G0xx_HAL_Driver/Src/stm32g0xx_hal_flash_ex.c ****   assert_param(IS_FLASH_PAGE(Page));
 597:Drivers/STM32G0xx_HAL_Driver/Src/stm32g0xx_hal_flash_ex.c **** 
 598:Drivers/STM32G0xx_HAL_Driver/Src/stm32g0xx_hal_flash_ex.c ****   /* Get configuration register, then clear page number */
 599:Drivers/STM32G0xx_HAL_Driver/Src/stm32g0xx_hal_flash_ex.c ****   tmp = (FLASH->CR & ~FLASH_CR_PNB);
 1049              		.loc 1 599 15
 1050 000a 0F4B     		ldr	r3, .L64
 1051 000c 5B69     		ldr	r3, [r3, #20]
 1052              		.loc 1 599 7
 1053 000e 0F4A     		ldr	r2, .L64+4
 1054 0010 1340     		ands	r3, r2
 1055 0012 FB60     		str	r3, [r7, #12]
 600:Drivers/STM32G0xx_HAL_Driver/Src/stm32g0xx_hal_flash_ex.c **** 
 601:Drivers/STM32G0xx_HAL_Driver/Src/stm32g0xx_hal_flash_ex.c **** #if defined(FLASH_DBANK_SUPPORT)
 602:Drivers/STM32G0xx_HAL_Driver/Src/stm32g0xx_hal_flash_ex.c ****   /* Check if page has to be erased in bank 1 or 2 */
 603:Drivers/STM32G0xx_HAL_Driver/Src/stm32g0xx_hal_flash_ex.c ****   if (Banks != FLASH_BANK_1)
 1056              		.loc 1 603 6
 1057 0014 7B68     		ldr	r3, [r7, #4]
 1058 0016 042B     		cmp	r3, #4
 1059 0018 05D0     		beq	.L62
 604:Drivers/STM32G0xx_HAL_Driver/Src/stm32g0xx_hal_flash_ex.c ****   {
 605:Drivers/STM32G0xx_HAL_Driver/Src/stm32g0xx_hal_flash_ex.c ****     tmp |= FLASH_CR_BKER;
 1060              		.loc 1 605 9
 1061 001a FB68     		ldr	r3, [r7, #12]
 1062 001c 8022     		movs	r2, #128
ARM GAS  C:\Users\SOLDER~1\AppData\Local\Temp\ccVplH7a.s 			page 30


 1063 001e 9201     		lsls	r2, r2, #6
 1064 0020 1343     		orrs	r3, r2
 1065 0022 FB60     		str	r3, [r7, #12]
 1066 0024 03E0     		b	.L63
 1067              	.L62:
 606:Drivers/STM32G0xx_HAL_Driver/Src/stm32g0xx_hal_flash_ex.c ****   }
 607:Drivers/STM32G0xx_HAL_Driver/Src/stm32g0xx_hal_flash_ex.c ****   else
 608:Drivers/STM32G0xx_HAL_Driver/Src/stm32g0xx_hal_flash_ex.c ****   {
 609:Drivers/STM32G0xx_HAL_Driver/Src/stm32g0xx_hal_flash_ex.c ****     tmp &= ~FLASH_CR_BKER;
 1068              		.loc 1 609 9
 1069 0026 FB68     		ldr	r3, [r7, #12]
 1070 0028 094A     		ldr	r2, .L64+8
 1071 002a 1340     		ands	r3, r2
 1072 002c FB60     		str	r3, [r7, #12]
 1073              	.L63:
 610:Drivers/STM32G0xx_HAL_Driver/Src/stm32g0xx_hal_flash_ex.c ****   }
 611:Drivers/STM32G0xx_HAL_Driver/Src/stm32g0xx_hal_flash_ex.c **** #endif /* FLASH_DBANK_SUPPORT */
 612:Drivers/STM32G0xx_HAL_Driver/Src/stm32g0xx_hal_flash_ex.c **** 
 613:Drivers/STM32G0xx_HAL_Driver/Src/stm32g0xx_hal_flash_ex.c ****   /* Set page number, Page Erase bit & Start bit */
 614:Drivers/STM32G0xx_HAL_Driver/Src/stm32g0xx_hal_flash_ex.c ****   FLASH->CR = (tmp | (FLASH_CR_STRT | (Page <<  FLASH_CR_PNB_Pos) | FLASH_CR_PER));
 1074              		.loc 1 614 45
 1075 002e 3B68     		ldr	r3, [r7]
 1076 0030 DA00     		lsls	r2, r3, #3
 1077              		.loc 1 614 20
 1078 0032 FB68     		ldr	r3, [r7, #12]
 1079 0034 1A43     		orrs	r2, r3
 1080              		.loc 1 614 8
 1081 0036 044B     		ldr	r3, .L64
 1082              		.loc 1 614 20
 1083 0038 0649     		ldr	r1, .L64+12
 1084 003a 0A43     		orrs	r2, r1
 1085              		.loc 1 614 13
 1086 003c 5A61     		str	r2, [r3, #20]
 615:Drivers/STM32G0xx_HAL_Driver/Src/stm32g0xx_hal_flash_ex.c **** }
 1087              		.loc 1 615 1
 1088 003e C046     		nop
 1089 0040 BD46     		mov	sp, r7
 1090 0042 04B0     		add	sp, sp, #16
 1091              		@ sp needed
 1092 0044 80BD     		pop	{r7, pc}
 1093              	.L65:
 1094 0046 C046     		.align	2
 1095              	.L64:
 1096 0048 00200240 		.word	1073881088
 1097 004c 07FCFFFF 		.word	-1017
 1098 0050 FFDFFFFF 		.word	-8193
 1099 0054 02000100 		.word	65538
 1100              		.cfi_endproc
 1101              	.LFE365:
 1103              		.section	.text.FLASH_FlushCaches,"ax",%progbits
 1104              		.align	1
 1105              		.global	FLASH_FlushCaches
 1106              		.syntax unified
 1107              		.code	16
 1108              		.thumb_func
 1110              	FLASH_FlushCaches:
 1111              	.LFB366:
ARM GAS  C:\Users\SOLDER~1\AppData\Local\Temp\ccVplH7a.s 			page 31


 616:Drivers/STM32G0xx_HAL_Driver/Src/stm32g0xx_hal_flash_ex.c **** 
 617:Drivers/STM32G0xx_HAL_Driver/Src/stm32g0xx_hal_flash_ex.c **** /**
 618:Drivers/STM32G0xx_HAL_Driver/Src/stm32g0xx_hal_flash_ex.c ****   * @brief  Flush the instruction cache.
 619:Drivers/STM32G0xx_HAL_Driver/Src/stm32g0xx_hal_flash_ex.c ****   * @retval None
 620:Drivers/STM32G0xx_HAL_Driver/Src/stm32g0xx_hal_flash_ex.c ****   */
 621:Drivers/STM32G0xx_HAL_Driver/Src/stm32g0xx_hal_flash_ex.c **** void FLASH_FlushCaches(void)
 622:Drivers/STM32G0xx_HAL_Driver/Src/stm32g0xx_hal_flash_ex.c **** {
 1112              		.loc 1 622 1
 1113              		.cfi_startproc
 1114              		@ args = 0, pretend = 0, frame = 0
 1115              		@ frame_needed = 1, uses_anonymous_args = 0
 1116 0000 80B5     		push	{r7, lr}
 1117              		.cfi_def_cfa_offset 8
 1118              		.cfi_offset 7, -8
 1119              		.cfi_offset 14, -4
 1120 0002 00AF     		add	r7, sp, #0
 1121              		.cfi_def_cfa_register 7
 623:Drivers/STM32G0xx_HAL_Driver/Src/stm32g0xx_hal_flash_ex.c ****   /* Flush instruction cache  */
 624:Drivers/STM32G0xx_HAL_Driver/Src/stm32g0xx_hal_flash_ex.c ****   if (READ_BIT(FLASH->ACR, FLASH_ACR_ICEN) != 0U)
 1122              		.loc 1 624 7
 1123 0004 114B     		ldr	r3, .L69
 1124 0006 1A68     		ldr	r2, [r3]
 1125 0008 8023     		movs	r3, #128
 1126 000a 9B00     		lsls	r3, r3, #2
 1127 000c 1340     		ands	r3, r2
 1128              		.loc 1 624 6
 1129 000e 19D0     		beq	.L68
 625:Drivers/STM32G0xx_HAL_Driver/Src/stm32g0xx_hal_flash_ex.c ****   {
 626:Drivers/STM32G0xx_HAL_Driver/Src/stm32g0xx_hal_flash_ex.c ****     /* Disable instruction cache  */
 627:Drivers/STM32G0xx_HAL_Driver/Src/stm32g0xx_hal_flash_ex.c ****     __HAL_FLASH_INSTRUCTION_CACHE_DISABLE();
 1130              		.loc 1 627 5
 1131 0010 0E4B     		ldr	r3, .L69
 1132 0012 1A68     		ldr	r2, [r3]
 1133 0014 0D4B     		ldr	r3, .L69
 1134 0016 0E49     		ldr	r1, .L69+4
 1135 0018 0A40     		ands	r2, r1
 1136 001a 1A60     		str	r2, [r3]
 628:Drivers/STM32G0xx_HAL_Driver/Src/stm32g0xx_hal_flash_ex.c ****     /* Reset instruction cache */
 629:Drivers/STM32G0xx_HAL_Driver/Src/stm32g0xx_hal_flash_ex.c ****     __HAL_FLASH_INSTRUCTION_CACHE_RESET();
 1137              		.loc 1 629 5
 1138 001c 0B4B     		ldr	r3, .L69
 1139 001e 1A68     		ldr	r2, [r3]
 1140 0020 0A4B     		ldr	r3, .L69
 1141 0022 8021     		movs	r1, #128
 1142 0024 0901     		lsls	r1, r1, #4
 1143 0026 0A43     		orrs	r2, r1
 1144 0028 1A60     		str	r2, [r3]
 1145 002a 084B     		ldr	r3, .L69
 1146 002c 1A68     		ldr	r2, [r3]
 1147 002e 074B     		ldr	r3, .L69
 1148 0030 0849     		ldr	r1, .L69+8
 1149 0032 0A40     		ands	r2, r1
 1150 0034 1A60     		str	r2, [r3]
 630:Drivers/STM32G0xx_HAL_Driver/Src/stm32g0xx_hal_flash_ex.c ****     /* Enable instruction cache */
 631:Drivers/STM32G0xx_HAL_Driver/Src/stm32g0xx_hal_flash_ex.c ****     __HAL_FLASH_INSTRUCTION_CACHE_ENABLE();
 1151              		.loc 1 631 5
 1152 0036 054B     		ldr	r3, .L69
ARM GAS  C:\Users\SOLDER~1\AppData\Local\Temp\ccVplH7a.s 			page 32


 1153 0038 1A68     		ldr	r2, [r3]
 1154 003a 044B     		ldr	r3, .L69
 1155 003c 8021     		movs	r1, #128
 1156 003e 8900     		lsls	r1, r1, #2
 1157 0040 0A43     		orrs	r2, r1
 1158 0042 1A60     		str	r2, [r3]
 1159              	.L68:
 632:Drivers/STM32G0xx_HAL_Driver/Src/stm32g0xx_hal_flash_ex.c ****   }
 633:Drivers/STM32G0xx_HAL_Driver/Src/stm32g0xx_hal_flash_ex.c **** }
 1160              		.loc 1 633 1
 1161 0044 C046     		nop
 1162 0046 BD46     		mov	sp, r7
 1163              		@ sp needed
 1164 0048 80BD     		pop	{r7, pc}
 1165              	.L70:
 1166 004a C046     		.align	2
 1167              	.L69:
 1168 004c 00200240 		.word	1073881088
 1169 0050 FFFDFFFF 		.word	-513
 1170 0054 FFF7FFFF 		.word	-2049
 1171              		.cfi_endproc
 1172              	.LFE366:
 1174              		.section	.text.FLASH_OB_WRPConfig,"ax",%progbits
 1175              		.align	1
 1176              		.syntax unified
 1177              		.code	16
 1178              		.thumb_func
 1180              	FLASH_OB_WRPConfig:
 1181              	.LFB367:
 634:Drivers/STM32G0xx_HAL_Driver/Src/stm32g0xx_hal_flash_ex.c **** 
 635:Drivers/STM32G0xx_HAL_Driver/Src/stm32g0xx_hal_flash_ex.c **** 
 636:Drivers/STM32G0xx_HAL_Driver/Src/stm32g0xx_hal_flash_ex.c **** /**
 637:Drivers/STM32G0xx_HAL_Driver/Src/stm32g0xx_hal_flash_ex.c ****   * @brief  Configure the write protection of the desired pages.
 638:Drivers/STM32G0xx_HAL_Driver/Src/stm32g0xx_hal_flash_ex.c ****   * @note   When WRP is active in a zone, it cannot be erased or programmed.
 639:Drivers/STM32G0xx_HAL_Driver/Src/stm32g0xx_hal_flash_ex.c ****   *         Consequently, a software mass erase cannot be performed if one zone
 640:Drivers/STM32G0xx_HAL_Driver/Src/stm32g0xx_hal_flash_ex.c ****   *         is write-protected.
 641:Drivers/STM32G0xx_HAL_Driver/Src/stm32g0xx_hal_flash_ex.c ****   * @note   When the memory read protection level is selected (RDP level = 1),
 642:Drivers/STM32G0xx_HAL_Driver/Src/stm32g0xx_hal_flash_ex.c ****   *         it is not possible to program or erase Flash memory if the CPU debug
 643:Drivers/STM32G0xx_HAL_Driver/Src/stm32g0xx_hal_flash_ex.c ****   *         features are connected (JTAG or single wire) or boot code is being
 644:Drivers/STM32G0xx_HAL_Driver/Src/stm32g0xx_hal_flash_ex.c ****   *         executed from RAM or System flash, even if WRP is not activated.
 645:Drivers/STM32G0xx_HAL_Driver/Src/stm32g0xx_hal_flash_ex.c ****   * @param  WRPArea  Specifies the area to be configured.
 646:Drivers/STM32G0xx_HAL_Driver/Src/stm32g0xx_hal_flash_ex.c ****   *         This parameter can be one of the following values:
 647:Drivers/STM32G0xx_HAL_Driver/Src/stm32g0xx_hal_flash_ex.c ****   *           @arg @ref OB_WRPAREA_ZONE_A Flash Zone A
 648:Drivers/STM32G0xx_HAL_Driver/Src/stm32g0xx_hal_flash_ex.c ****   *           @arg @ref OB_WRPAREA_ZONE_B Flash Zone B
 649:Drivers/STM32G0xx_HAL_Driver/Src/stm32g0xx_hal_flash_ex.c ****   *           @arg @ref OB_WRPAREA_ZONE2_A Flash Bank 2 Zone A (*)
 650:Drivers/STM32G0xx_HAL_Driver/Src/stm32g0xx_hal_flash_ex.c ****   *           @arg @ref OB_WRPAREA_ZONE2_B Flash Bank 2 Zone B (*)
 651:Drivers/STM32G0xx_HAL_Driver/Src/stm32g0xx_hal_flash_ex.c ****   * @note  (*) availability depends on devices
 652:Drivers/STM32G0xx_HAL_Driver/Src/stm32g0xx_hal_flash_ex.c ****   * @param  WRPStartOffset  Specifies the start page of the write protected area
 653:Drivers/STM32G0xx_HAL_Driver/Src/stm32g0xx_hal_flash_ex.c ****   *         This parameter can be page number between 0 and (max number of pages in the Flash Bank 
 654:Drivers/STM32G0xx_HAL_Driver/Src/stm32g0xx_hal_flash_ex.c ****   * @param  WRDPEndOffset  Specifies the end page of the write protected area
 655:Drivers/STM32G0xx_HAL_Driver/Src/stm32g0xx_hal_flash_ex.c ****   *         This parameter can be page number between WRPStartOffset and (max number of pages in th
 656:Drivers/STM32G0xx_HAL_Driver/Src/stm32g0xx_hal_flash_ex.c ****   * @retval None
 657:Drivers/STM32G0xx_HAL_Driver/Src/stm32g0xx_hal_flash_ex.c ****   */
 658:Drivers/STM32G0xx_HAL_Driver/Src/stm32g0xx_hal_flash_ex.c **** static void FLASH_OB_WRPConfig(uint32_t WRPArea, uint32_t WRPStartOffset, uint32_t WRDPEndOffset)
 659:Drivers/STM32G0xx_HAL_Driver/Src/stm32g0xx_hal_flash_ex.c **** {
 1182              		.loc 1 659 1
 1183              		.cfi_startproc
ARM GAS  C:\Users\SOLDER~1\AppData\Local\Temp\ccVplH7a.s 			page 33


 1184              		@ args = 0, pretend = 0, frame = 16
 1185              		@ frame_needed = 1, uses_anonymous_args = 0
 1186 0000 80B5     		push	{r7, lr}
 1187              		.cfi_def_cfa_offset 8
 1188              		.cfi_offset 7, -8
 1189              		.cfi_offset 14, -4
 1190 0002 84B0     		sub	sp, sp, #16
 1191              		.cfi_def_cfa_offset 24
 1192 0004 00AF     		add	r7, sp, #0
 1193              		.cfi_def_cfa_register 7
 1194 0006 F860     		str	r0, [r7, #12]
 1195 0008 B960     		str	r1, [r7, #8]
 1196 000a 7A60     		str	r2, [r7, #4]
 660:Drivers/STM32G0xx_HAL_Driver/Src/stm32g0xx_hal_flash_ex.c ****   /* Check the parameters */
 661:Drivers/STM32G0xx_HAL_Driver/Src/stm32g0xx_hal_flash_ex.c ****   assert_param(IS_OB_WRPAREA(WRPArea));
 662:Drivers/STM32G0xx_HAL_Driver/Src/stm32g0xx_hal_flash_ex.c ****   assert_param(IS_FLASH_PAGE(WRPStartOffset));
 663:Drivers/STM32G0xx_HAL_Driver/Src/stm32g0xx_hal_flash_ex.c ****   assert_param(IS_FLASH_PAGE(WRDPEndOffset));
 664:Drivers/STM32G0xx_HAL_Driver/Src/stm32g0xx_hal_flash_ex.c **** 
 665:Drivers/STM32G0xx_HAL_Driver/Src/stm32g0xx_hal_flash_ex.c ****   /* Configure the write protected area */
 666:Drivers/STM32G0xx_HAL_Driver/Src/stm32g0xx_hal_flash_ex.c ****   if (WRPArea == OB_WRPAREA_ZONE_A)
 1197              		.loc 1 666 6
 1198 000c FB68     		ldr	r3, [r7, #12]
 1199 000e 012B     		cmp	r3, #1
 1200 0010 06D1     		bne	.L72
 667:Drivers/STM32G0xx_HAL_Driver/Src/stm32g0xx_hal_flash_ex.c ****   {
 668:Drivers/STM32G0xx_HAL_Driver/Src/stm32g0xx_hal_flash_ex.c ****     FLASH->WRP1AR = ((WRDPEndOffset << FLASH_WRP1AR_WRP1A_END_Pos) | WRPStartOffset);
 1201              		.loc 1 668 37
 1202 0012 7B68     		ldr	r3, [r7, #4]
 1203 0014 1904     		lsls	r1, r3, #16
 1204              		.loc 1 668 10
 1205 0016 114B     		ldr	r3, .L77
 1206              		.loc 1 668 68
 1207 0018 BA68     		ldr	r2, [r7, #8]
 1208 001a 0A43     		orrs	r2, r1
 1209              		.loc 1 668 19
 1210 001c DA62     		str	r2, [r3, #44]
 669:Drivers/STM32G0xx_HAL_Driver/Src/stm32g0xx_hal_flash_ex.c ****   }
 670:Drivers/STM32G0xx_HAL_Driver/Src/stm32g0xx_hal_flash_ex.c **** #if defined(FLASH_DBANK_SUPPORT)
 671:Drivers/STM32G0xx_HAL_Driver/Src/stm32g0xx_hal_flash_ex.c ****   else if (WRPArea == OB_WRPAREA_ZONE2_A)
 672:Drivers/STM32G0xx_HAL_Driver/Src/stm32g0xx_hal_flash_ex.c ****   {
 673:Drivers/STM32G0xx_HAL_Driver/Src/stm32g0xx_hal_flash_ex.c ****     FLASH->WRP2AR = ((WRDPEndOffset << FLASH_WRP2AR_WRP2A_END_Pos) | WRPStartOffset);
 674:Drivers/STM32G0xx_HAL_Driver/Src/stm32g0xx_hal_flash_ex.c ****   }
 675:Drivers/STM32G0xx_HAL_Driver/Src/stm32g0xx_hal_flash_ex.c ****   else if (WRPArea == OB_WRPAREA_ZONE2_B)
 676:Drivers/STM32G0xx_HAL_Driver/Src/stm32g0xx_hal_flash_ex.c ****   {
 677:Drivers/STM32G0xx_HAL_Driver/Src/stm32g0xx_hal_flash_ex.c ****     FLASH->WRP2BR = ((WRDPEndOffset << FLASH_WRP2BR_WRP2B_END_Pos) | WRPStartOffset);
 678:Drivers/STM32G0xx_HAL_Driver/Src/stm32g0xx_hal_flash_ex.c ****   }
 679:Drivers/STM32G0xx_HAL_Driver/Src/stm32g0xx_hal_flash_ex.c **** #endif /* FLASH_DBANK_SUPPORT */
 680:Drivers/STM32G0xx_HAL_Driver/Src/stm32g0xx_hal_flash_ex.c ****   else
 681:Drivers/STM32G0xx_HAL_Driver/Src/stm32g0xx_hal_flash_ex.c ****   {
 682:Drivers/STM32G0xx_HAL_Driver/Src/stm32g0xx_hal_flash_ex.c ****     FLASH->WRP1BR = ((WRDPEndOffset << FLASH_WRP1BR_WRP1B_END_Pos) | WRPStartOffset);
 683:Drivers/STM32G0xx_HAL_Driver/Src/stm32g0xx_hal_flash_ex.c ****   }
 684:Drivers/STM32G0xx_HAL_Driver/Src/stm32g0xx_hal_flash_ex.c **** }
 1211              		.loc 1 684 1
 1212 001e 19E0     		b	.L76
 1213              	.L72:
 671:Drivers/STM32G0xx_HAL_Driver/Src/stm32g0xx_hal_flash_ex.c ****   {
 1214              		.loc 1 671 11
ARM GAS  C:\Users\SOLDER~1\AppData\Local\Temp\ccVplH7a.s 			page 34


 1215 0020 FB68     		ldr	r3, [r7, #12]
 1216 0022 042B     		cmp	r3, #4
 1217 0024 06D1     		bne	.L74
 673:Drivers/STM32G0xx_HAL_Driver/Src/stm32g0xx_hal_flash_ex.c ****   }
 1218              		.loc 1 673 37
 1219 0026 7B68     		ldr	r3, [r7, #4]
 1220 0028 1904     		lsls	r1, r3, #16
 673:Drivers/STM32G0xx_HAL_Driver/Src/stm32g0xx_hal_flash_ex.c ****   }
 1221              		.loc 1 673 10
 1222 002a 0C4B     		ldr	r3, .L77
 673:Drivers/STM32G0xx_HAL_Driver/Src/stm32g0xx_hal_flash_ex.c ****   }
 1223              		.loc 1 673 68
 1224 002c BA68     		ldr	r2, [r7, #8]
 1225 002e 0A43     		orrs	r2, r1
 673:Drivers/STM32G0xx_HAL_Driver/Src/stm32g0xx_hal_flash_ex.c ****   }
 1226              		.loc 1 673 19
 1227 0030 DA64     		str	r2, [r3, #76]
 1228              		.loc 1 684 1
 1229 0032 0FE0     		b	.L76
 1230              	.L74:
 675:Drivers/STM32G0xx_HAL_Driver/Src/stm32g0xx_hal_flash_ex.c ****   {
 1231              		.loc 1 675 11
 1232 0034 FB68     		ldr	r3, [r7, #12]
 1233 0036 082B     		cmp	r3, #8
 1234 0038 06D1     		bne	.L75
 677:Drivers/STM32G0xx_HAL_Driver/Src/stm32g0xx_hal_flash_ex.c ****   }
 1235              		.loc 1 677 37
 1236 003a 7B68     		ldr	r3, [r7, #4]
 1237 003c 1904     		lsls	r1, r3, #16
 677:Drivers/STM32G0xx_HAL_Driver/Src/stm32g0xx_hal_flash_ex.c ****   }
 1238              		.loc 1 677 10
 1239 003e 074B     		ldr	r3, .L77
 677:Drivers/STM32G0xx_HAL_Driver/Src/stm32g0xx_hal_flash_ex.c ****   }
 1240              		.loc 1 677 68
 1241 0040 BA68     		ldr	r2, [r7, #8]
 1242 0042 0A43     		orrs	r2, r1
 677:Drivers/STM32G0xx_HAL_Driver/Src/stm32g0xx_hal_flash_ex.c ****   }
 1243              		.loc 1 677 19
 1244 0044 1A65     		str	r2, [r3, #80]
 1245              		.loc 1 684 1
 1246 0046 05E0     		b	.L76
 1247              	.L75:
 682:Drivers/STM32G0xx_HAL_Driver/Src/stm32g0xx_hal_flash_ex.c ****   }
 1248              		.loc 1 682 37
 1249 0048 7B68     		ldr	r3, [r7, #4]
 1250 004a 1904     		lsls	r1, r3, #16
 682:Drivers/STM32G0xx_HAL_Driver/Src/stm32g0xx_hal_flash_ex.c ****   }
 1251              		.loc 1 682 10
 1252 004c 034B     		ldr	r3, .L77
 682:Drivers/STM32G0xx_HAL_Driver/Src/stm32g0xx_hal_flash_ex.c ****   }
 1253              		.loc 1 682 68
 1254 004e BA68     		ldr	r2, [r7, #8]
 1255 0050 0A43     		orrs	r2, r1
 682:Drivers/STM32G0xx_HAL_Driver/Src/stm32g0xx_hal_flash_ex.c ****   }
 1256              		.loc 1 682 19
 1257 0052 1A63     		str	r2, [r3, #48]
 1258              	.L76:
ARM GAS  C:\Users\SOLDER~1\AppData\Local\Temp\ccVplH7a.s 			page 35


 1259              		.loc 1 684 1
 1260 0054 C046     		nop
 1261 0056 BD46     		mov	sp, r7
 1262 0058 04B0     		add	sp, sp, #16
 1263              		@ sp needed
 1264 005a 80BD     		pop	{r7, pc}
 1265              	.L78:
 1266              		.align	2
 1267              	.L77:
 1268 005c 00200240 		.word	1073881088
 1269              		.cfi_endproc
 1270              	.LFE367:
 1272              		.section	.text.FLASH_OB_GetWRP,"ax",%progbits
 1273              		.align	1
 1274              		.syntax unified
 1275              		.code	16
 1276              		.thumb_func
 1278              	FLASH_OB_GetWRP:
 1279              	.LFB368:
 685:Drivers/STM32G0xx_HAL_Driver/Src/stm32g0xx_hal_flash_ex.c **** 
 686:Drivers/STM32G0xx_HAL_Driver/Src/stm32g0xx_hal_flash_ex.c **** /**
 687:Drivers/STM32G0xx_HAL_Driver/Src/stm32g0xx_hal_flash_ex.c ****   * @brief  Return the FLASH Write Protection Option Bytes value.
 688:Drivers/STM32G0xx_HAL_Driver/Src/stm32g0xx_hal_flash_ex.c ****   * @param[in]  WRPArea Specifies the area to be returned.
 689:Drivers/STM32G0xx_HAL_Driver/Src/stm32g0xx_hal_flash_ex.c ****   *             This parameter can be one of the following values:
 690:Drivers/STM32G0xx_HAL_Driver/Src/stm32g0xx_hal_flash_ex.c ****   *               @arg @ref OB_WRPAREA_ZONE_A Flash Zone A
 691:Drivers/STM32G0xx_HAL_Driver/Src/stm32g0xx_hal_flash_ex.c ****   *               @arg @ref OB_WRPAREA_ZONE_B Flash Zone B
 692:Drivers/STM32G0xx_HAL_Driver/Src/stm32g0xx_hal_flash_ex.c ****   *               @arg @ref OB_WRPAREA_ZONE2_A Flash Bank 2 Zone A (*)
 693:Drivers/STM32G0xx_HAL_Driver/Src/stm32g0xx_hal_flash_ex.c ****   *               @arg @ref OB_WRPAREA_ZONE2_B Flash Bank 2 Zone B (*)
 694:Drivers/STM32G0xx_HAL_Driver/Src/stm32g0xx_hal_flash_ex.c ****   * @note  (*) availability depends on devices
 695:Drivers/STM32G0xx_HAL_Driver/Src/stm32g0xx_hal_flash_ex.c ****   * @param[out]  WRPStartOffset  Specifies the address where to copied the start page
 696:Drivers/STM32G0xx_HAL_Driver/Src/stm32g0xx_hal_flash_ex.c ****   *                         of the write protected area
 697:Drivers/STM32G0xx_HAL_Driver/Src/stm32g0xx_hal_flash_ex.c ****   * @param[out]  WRDPEndOffset  Dpecifies the address where to copied the end page of
 698:Drivers/STM32G0xx_HAL_Driver/Src/stm32g0xx_hal_flash_ex.c ****   *                        the write protected area
 699:Drivers/STM32G0xx_HAL_Driver/Src/stm32g0xx_hal_flash_ex.c ****   * @retval None
 700:Drivers/STM32G0xx_HAL_Driver/Src/stm32g0xx_hal_flash_ex.c ****   */
 701:Drivers/STM32G0xx_HAL_Driver/Src/stm32g0xx_hal_flash_ex.c **** static void FLASH_OB_GetWRP(uint32_t WRPArea, uint32_t *WRPStartOffset, uint32_t *WRDPEndOffset)
 702:Drivers/STM32G0xx_HAL_Driver/Src/stm32g0xx_hal_flash_ex.c **** {
 1280              		.loc 1 702 1
 1281              		.cfi_startproc
 1282              		@ args = 0, pretend = 0, frame = 16
 1283              		@ frame_needed = 1, uses_anonymous_args = 0
 1284 0000 80B5     		push	{r7, lr}
 1285              		.cfi_def_cfa_offset 8
 1286              		.cfi_offset 7, -8
 1287              		.cfi_offset 14, -4
 1288 0002 84B0     		sub	sp, sp, #16
 1289              		.cfi_def_cfa_offset 24
 1290 0004 00AF     		add	r7, sp, #0
 1291              		.cfi_def_cfa_register 7
 1292 0006 F860     		str	r0, [r7, #12]
 1293 0008 B960     		str	r1, [r7, #8]
 1294 000a 7A60     		str	r2, [r7, #4]
 703:Drivers/STM32G0xx_HAL_Driver/Src/stm32g0xx_hal_flash_ex.c ****   /* Check the parameters */
 704:Drivers/STM32G0xx_HAL_Driver/Src/stm32g0xx_hal_flash_ex.c ****   assert_param(IS_OB_WRPAREA(WRPArea));
 705:Drivers/STM32G0xx_HAL_Driver/Src/stm32g0xx_hal_flash_ex.c **** 
 706:Drivers/STM32G0xx_HAL_Driver/Src/stm32g0xx_hal_flash_ex.c ****   /* Get the configuration of the write protected area */
 707:Drivers/STM32G0xx_HAL_Driver/Src/stm32g0xx_hal_flash_ex.c ****   if (WRPArea == OB_WRPAREA_ZONE_A)
ARM GAS  C:\Users\SOLDER~1\AppData\Local\Temp\ccVplH7a.s 			page 36


 1295              		.loc 1 707 6
 1296 000c FB68     		ldr	r3, [r7, #12]
 1297 000e 012B     		cmp	r3, #1
 1298 0010 0DD1     		bne	.L80
 708:Drivers/STM32G0xx_HAL_Driver/Src/stm32g0xx_hal_flash_ex.c ****   {
 709:Drivers/STM32G0xx_HAL_Driver/Src/stm32g0xx_hal_flash_ex.c ****     *WRPStartOffset = READ_BIT(FLASH->WRP1AR, FLASH_WRP1AR_WRP1A_STRT);
 1299              		.loc 1 709 23
 1300 0012 204B     		ldr	r3, .L85
 1301 0014 DB6A     		ldr	r3, [r3, #44]
 1302 0016 7F22     		movs	r2, #127
 1303 0018 1A40     		ands	r2, r3
 1304              		.loc 1 709 21
 1305 001a BB68     		ldr	r3, [r7, #8]
 1306 001c 1A60     		str	r2, [r3]
 710:Drivers/STM32G0xx_HAL_Driver/Src/stm32g0xx_hal_flash_ex.c ****     *WRDPEndOffset = (READ_BIT(FLASH->WRP1AR, FLASH_WRP1AR_WRP1A_END) >> FLASH_WRP1AR_WRP1A_END_Pos
 1307              		.loc 1 710 23
 1308 001e 1D4B     		ldr	r3, .L85
 1309 0020 DB6A     		ldr	r3, [r3, #44]
 1310              		.loc 1 710 71
 1311 0022 1B0C     		lsrs	r3, r3, #16
 1312 0024 7F22     		movs	r2, #127
 1313 0026 1A40     		ands	r2, r3
 1314              		.loc 1 710 20
 1315 0028 7B68     		ldr	r3, [r7, #4]
 1316 002a 1A60     		str	r2, [r3]
 711:Drivers/STM32G0xx_HAL_Driver/Src/stm32g0xx_hal_flash_ex.c ****   }
 712:Drivers/STM32G0xx_HAL_Driver/Src/stm32g0xx_hal_flash_ex.c **** #if defined(FLASH_DBANK_SUPPORT)
 713:Drivers/STM32G0xx_HAL_Driver/Src/stm32g0xx_hal_flash_ex.c ****   else if (WRPArea == OB_WRPAREA_ZONE2_A)
 714:Drivers/STM32G0xx_HAL_Driver/Src/stm32g0xx_hal_flash_ex.c ****   {
 715:Drivers/STM32G0xx_HAL_Driver/Src/stm32g0xx_hal_flash_ex.c ****     *WRPStartOffset = READ_BIT(FLASH->WRP2AR, FLASH_WRP2AR_WRP2A_STRT);
 716:Drivers/STM32G0xx_HAL_Driver/Src/stm32g0xx_hal_flash_ex.c ****     *WRDPEndOffset = (READ_BIT(FLASH->WRP2AR, FLASH_WRP2AR_WRP2A_END) >> FLASH_WRP2AR_WRP2A_END_Pos
 717:Drivers/STM32G0xx_HAL_Driver/Src/stm32g0xx_hal_flash_ex.c ****   }
 718:Drivers/STM32G0xx_HAL_Driver/Src/stm32g0xx_hal_flash_ex.c ****   else if (WRPArea == OB_WRPAREA_ZONE2_B)
 719:Drivers/STM32G0xx_HAL_Driver/Src/stm32g0xx_hal_flash_ex.c ****   {
 720:Drivers/STM32G0xx_HAL_Driver/Src/stm32g0xx_hal_flash_ex.c ****     *WRPStartOffset = READ_BIT(FLASH->WRP2BR, FLASH_WRP2BR_WRP2B_STRT);
 721:Drivers/STM32G0xx_HAL_Driver/Src/stm32g0xx_hal_flash_ex.c ****     *WRDPEndOffset = (READ_BIT(FLASH->WRP2BR, FLASH_WRP2BR_WRP2B_END) >> FLASH_WRP2BR_WRP2B_END_Pos
 722:Drivers/STM32G0xx_HAL_Driver/Src/stm32g0xx_hal_flash_ex.c ****   }
 723:Drivers/STM32G0xx_HAL_Driver/Src/stm32g0xx_hal_flash_ex.c **** #endif /* FLASH_DBANK_SUPPORT */
 724:Drivers/STM32G0xx_HAL_Driver/Src/stm32g0xx_hal_flash_ex.c ****   else
 725:Drivers/STM32G0xx_HAL_Driver/Src/stm32g0xx_hal_flash_ex.c ****   {
 726:Drivers/STM32G0xx_HAL_Driver/Src/stm32g0xx_hal_flash_ex.c ****     *WRPStartOffset = READ_BIT(FLASH->WRP1BR, FLASH_WRP1BR_WRP1B_STRT);
 727:Drivers/STM32G0xx_HAL_Driver/Src/stm32g0xx_hal_flash_ex.c ****     *WRDPEndOffset = (READ_BIT(FLASH->WRP1BR, FLASH_WRP1BR_WRP1B_END) >> FLASH_WRP1BR_WRP1B_END_Pos
 728:Drivers/STM32G0xx_HAL_Driver/Src/stm32g0xx_hal_flash_ex.c ****   }
 729:Drivers/STM32G0xx_HAL_Driver/Src/stm32g0xx_hal_flash_ex.c **** }
 1317              		.loc 1 729 1
 1318 002c 2EE0     		b	.L84
 1319              	.L80:
 713:Drivers/STM32G0xx_HAL_Driver/Src/stm32g0xx_hal_flash_ex.c ****   {
 1320              		.loc 1 713 11
 1321 002e FB68     		ldr	r3, [r7, #12]
 1322 0030 042B     		cmp	r3, #4
 1323 0032 0DD1     		bne	.L82
 715:Drivers/STM32G0xx_HAL_Driver/Src/stm32g0xx_hal_flash_ex.c ****     *WRDPEndOffset = (READ_BIT(FLASH->WRP2AR, FLASH_WRP2AR_WRP2A_END) >> FLASH_WRP2AR_WRP2A_END_Pos
 1324              		.loc 1 715 23
 1325 0034 174B     		ldr	r3, .L85
 1326 0036 DB6C     		ldr	r3, [r3, #76]
 1327 0038 7F22     		movs	r2, #127
ARM GAS  C:\Users\SOLDER~1\AppData\Local\Temp\ccVplH7a.s 			page 37


 1328 003a 1A40     		ands	r2, r3
 715:Drivers/STM32G0xx_HAL_Driver/Src/stm32g0xx_hal_flash_ex.c ****     *WRDPEndOffset = (READ_BIT(FLASH->WRP2AR, FLASH_WRP2AR_WRP2A_END) >> FLASH_WRP2AR_WRP2A_END_Pos
 1329              		.loc 1 715 21
 1330 003c BB68     		ldr	r3, [r7, #8]
 1331 003e 1A60     		str	r2, [r3]
 716:Drivers/STM32G0xx_HAL_Driver/Src/stm32g0xx_hal_flash_ex.c ****   }
 1332              		.loc 1 716 23
 1333 0040 144B     		ldr	r3, .L85
 1334 0042 DB6C     		ldr	r3, [r3, #76]
 716:Drivers/STM32G0xx_HAL_Driver/Src/stm32g0xx_hal_flash_ex.c ****   }
 1335              		.loc 1 716 71
 1336 0044 1B0C     		lsrs	r3, r3, #16
 1337 0046 7F22     		movs	r2, #127
 1338 0048 1A40     		ands	r2, r3
 716:Drivers/STM32G0xx_HAL_Driver/Src/stm32g0xx_hal_flash_ex.c ****   }
 1339              		.loc 1 716 20
 1340 004a 7B68     		ldr	r3, [r7, #4]
 1341 004c 1A60     		str	r2, [r3]
 1342              		.loc 1 729 1
 1343 004e 1DE0     		b	.L84
 1344              	.L82:
 718:Drivers/STM32G0xx_HAL_Driver/Src/stm32g0xx_hal_flash_ex.c ****   {
 1345              		.loc 1 718 11
 1346 0050 FB68     		ldr	r3, [r7, #12]
 1347 0052 082B     		cmp	r3, #8
 1348 0054 0DD1     		bne	.L83
 720:Drivers/STM32G0xx_HAL_Driver/Src/stm32g0xx_hal_flash_ex.c ****     *WRDPEndOffset = (READ_BIT(FLASH->WRP2BR, FLASH_WRP2BR_WRP2B_END) >> FLASH_WRP2BR_WRP2B_END_Pos
 1349              		.loc 1 720 23
 1350 0056 0F4B     		ldr	r3, .L85
 1351 0058 1B6D     		ldr	r3, [r3, #80]
 1352 005a 7F22     		movs	r2, #127
 1353 005c 1A40     		ands	r2, r3
 720:Drivers/STM32G0xx_HAL_Driver/Src/stm32g0xx_hal_flash_ex.c ****     *WRDPEndOffset = (READ_BIT(FLASH->WRP2BR, FLASH_WRP2BR_WRP2B_END) >> FLASH_WRP2BR_WRP2B_END_Pos
 1354              		.loc 1 720 21
 1355 005e BB68     		ldr	r3, [r7, #8]
 1356 0060 1A60     		str	r2, [r3]
 721:Drivers/STM32G0xx_HAL_Driver/Src/stm32g0xx_hal_flash_ex.c ****   }
 1357              		.loc 1 721 23
 1358 0062 0C4B     		ldr	r3, .L85
 1359 0064 1B6D     		ldr	r3, [r3, #80]
 721:Drivers/STM32G0xx_HAL_Driver/Src/stm32g0xx_hal_flash_ex.c ****   }
 1360              		.loc 1 721 71
 1361 0066 1B0C     		lsrs	r3, r3, #16
 1362 0068 7F22     		movs	r2, #127
 1363 006a 1A40     		ands	r2, r3
 721:Drivers/STM32G0xx_HAL_Driver/Src/stm32g0xx_hal_flash_ex.c ****   }
 1364              		.loc 1 721 20
 1365 006c 7B68     		ldr	r3, [r7, #4]
 1366 006e 1A60     		str	r2, [r3]
 1367              		.loc 1 729 1
 1368 0070 0CE0     		b	.L84
 1369              	.L83:
 726:Drivers/STM32G0xx_HAL_Driver/Src/stm32g0xx_hal_flash_ex.c ****     *WRDPEndOffset = (READ_BIT(FLASH->WRP1BR, FLASH_WRP1BR_WRP1B_END) >> FLASH_WRP1BR_WRP1B_END_Pos
 1370              		.loc 1 726 23
 1371 0072 084B     		ldr	r3, .L85
 1372 0074 1B6B     		ldr	r3, [r3, #48]
 1373 0076 7F22     		movs	r2, #127
ARM GAS  C:\Users\SOLDER~1\AppData\Local\Temp\ccVplH7a.s 			page 38


 1374 0078 1A40     		ands	r2, r3
 726:Drivers/STM32G0xx_HAL_Driver/Src/stm32g0xx_hal_flash_ex.c ****     *WRDPEndOffset = (READ_BIT(FLASH->WRP1BR, FLASH_WRP1BR_WRP1B_END) >> FLASH_WRP1BR_WRP1B_END_Pos
 1375              		.loc 1 726 21
 1376 007a BB68     		ldr	r3, [r7, #8]
 1377 007c 1A60     		str	r2, [r3]
 727:Drivers/STM32G0xx_HAL_Driver/Src/stm32g0xx_hal_flash_ex.c ****   }
 1378              		.loc 1 727 23
 1379 007e 054B     		ldr	r3, .L85
 1380 0080 1B6B     		ldr	r3, [r3, #48]
 727:Drivers/STM32G0xx_HAL_Driver/Src/stm32g0xx_hal_flash_ex.c ****   }
 1381              		.loc 1 727 71
 1382 0082 1B0C     		lsrs	r3, r3, #16
 1383 0084 7F22     		movs	r2, #127
 1384 0086 1A40     		ands	r2, r3
 727:Drivers/STM32G0xx_HAL_Driver/Src/stm32g0xx_hal_flash_ex.c ****   }
 1385              		.loc 1 727 20
 1386 0088 7B68     		ldr	r3, [r7, #4]
 1387 008a 1A60     		str	r2, [r3]
 1388              	.L84:
 1389              		.loc 1 729 1
 1390 008c C046     		nop
 1391 008e BD46     		mov	sp, r7
 1392 0090 04B0     		add	sp, sp, #16
 1393              		@ sp needed
 1394 0092 80BD     		pop	{r7, pc}
 1395              	.L86:
 1396              		.align	2
 1397              	.L85:
 1398 0094 00200240 		.word	1073881088
 1399              		.cfi_endproc
 1400              	.LFE368:
 1402              		.section	.text.FLASH_OB_OptrConfig,"ax",%progbits
 1403              		.align	1
 1404              		.syntax unified
 1405              		.code	16
 1406              		.thumb_func
 1408              	FLASH_OB_OptrConfig:
 1409              	.LFB369:
 730:Drivers/STM32G0xx_HAL_Driver/Src/stm32g0xx_hal_flash_ex.c **** 
 731:Drivers/STM32G0xx_HAL_Driver/Src/stm32g0xx_hal_flash_ex.c **** /**
 732:Drivers/STM32G0xx_HAL_Driver/Src/stm32g0xx_hal_flash_ex.c ****   * @brief  Set user & RDP configuration
 733:Drivers/STM32G0xx_HAL_Driver/Src/stm32g0xx_hal_flash_ex.c ****   * @note   !!! Warning : When enabling OB_RDP level 2 it is no more possible
 734:Drivers/STM32G0xx_HAL_Driver/Src/stm32g0xx_hal_flash_ex.c ****   *         to go back to level 1 or 0 !!!
 735:Drivers/STM32G0xx_HAL_Driver/Src/stm32g0xx_hal_flash_ex.c ****   * @param  UserType  The FLASH User Option Bytes to be modified.
 736:Drivers/STM32G0xx_HAL_Driver/Src/stm32g0xx_hal_flash_ex.c ****   *         This parameter can be a combination of @ref FLASH_OB_USER_Type
 737:Drivers/STM32G0xx_HAL_Driver/Src/stm32g0xx_hal_flash_ex.c ****   * @param  UserConfig  The FLASH User Option Bytes values.
 738:Drivers/STM32G0xx_HAL_Driver/Src/stm32g0xx_hal_flash_ex.c ****   *         This parameter can be a combination of:
 739:Drivers/STM32G0xx_HAL_Driver/Src/stm32g0xx_hal_flash_ex.c ****   *           @arg @ref FLASH_OB_USER_BOR_ENABLE(*)
 740:Drivers/STM32G0xx_HAL_Driver/Src/stm32g0xx_hal_flash_ex.c ****   *           @arg @ref FLASH_OB_USER_BOR_LEVEL(*)
 741:Drivers/STM32G0xx_HAL_Driver/Src/stm32g0xx_hal_flash_ex.c ****   *           @arg @ref FLASH_OB_USER_RESET_CONFIG(*)
 742:Drivers/STM32G0xx_HAL_Driver/Src/stm32g0xx_hal_flash_ex.c ****   *           @arg @ref FLASH_OB_USER_nRST_STOP
 743:Drivers/STM32G0xx_HAL_Driver/Src/stm32g0xx_hal_flash_ex.c ****   *           @arg @ref FLASH_OB_USER_nRST_STANDBY
 744:Drivers/STM32G0xx_HAL_Driver/Src/stm32g0xx_hal_flash_ex.c ****   *           @arg @ref FLASH_OB_USER_nRST_SHUTDOWN(*)
 745:Drivers/STM32G0xx_HAL_Driver/Src/stm32g0xx_hal_flash_ex.c ****   *           @arg @ref FLASH_OB_USER_IWDG_SW
 746:Drivers/STM32G0xx_HAL_Driver/Src/stm32g0xx_hal_flash_ex.c ****   *           @arg @ref FLASH_OB_USER_IWDG_STOP
 747:Drivers/STM32G0xx_HAL_Driver/Src/stm32g0xx_hal_flash_ex.c ****   *           @arg @ref FLASH_OB_USER_IWDG_STANDBY
 748:Drivers/STM32G0xx_HAL_Driver/Src/stm32g0xx_hal_flash_ex.c ****   *           @arg @ref FLASH_OB_USER_WWDG_SW
ARM GAS  C:\Users\SOLDER~1\AppData\Local\Temp\ccVplH7a.s 			page 39


 749:Drivers/STM32G0xx_HAL_Driver/Src/stm32g0xx_hal_flash_ex.c ****   *           @arg @ref FLASH_OB_USER_SRAM_PARITY
 750:Drivers/STM32G0xx_HAL_Driver/Src/stm32g0xx_hal_flash_ex.c ****   *           @arg @ref FLASH_OB_USER_BANK_SWAP(*)
 751:Drivers/STM32G0xx_HAL_Driver/Src/stm32g0xx_hal_flash_ex.c ****   *           @arg @ref FLASH_OB_USER_DUAL_BANK(*)
 752:Drivers/STM32G0xx_HAL_Driver/Src/stm32g0xx_hal_flash_ex.c ****   *           @arg @ref FLASH_OB_USER_nBOOT_SEL
 753:Drivers/STM32G0xx_HAL_Driver/Src/stm32g0xx_hal_flash_ex.c ****   *           @arg @ref FLASH_OB_USER_nBOOT1
 754:Drivers/STM32G0xx_HAL_Driver/Src/stm32g0xx_hal_flash_ex.c ****   *           @arg @ref FLASH_OB_USER_nBOOT0
 755:Drivers/STM32G0xx_HAL_Driver/Src/stm32g0xx_hal_flash_ex.c ****   *           @arg @ref FLASH_OB_USER_INPUT_RESET_HOLDER(*)
 756:Drivers/STM32G0xx_HAL_Driver/Src/stm32g0xx_hal_flash_ex.c ****   * @param  RDPLevel  specifies the read protection level.
 757:Drivers/STM32G0xx_HAL_Driver/Src/stm32g0xx_hal_flash_ex.c ****   *         This parameter can be one of the following values:
 758:Drivers/STM32G0xx_HAL_Driver/Src/stm32g0xx_hal_flash_ex.c ****   *           @arg @ref OB_RDP_LEVEL_0 No protection
 759:Drivers/STM32G0xx_HAL_Driver/Src/stm32g0xx_hal_flash_ex.c ****   *           @arg @ref OB_RDP_LEVEL_1 Memory Read protection
 760:Drivers/STM32G0xx_HAL_Driver/Src/stm32g0xx_hal_flash_ex.c ****   *           @arg @ref OB_RDP_LEVEL_2 Full chip protection
 761:Drivers/STM32G0xx_HAL_Driver/Src/stm32g0xx_hal_flash_ex.c ****   * @note  (*) availability depends on devices
 762:Drivers/STM32G0xx_HAL_Driver/Src/stm32g0xx_hal_flash_ex.c ****   * @retval None
 763:Drivers/STM32G0xx_HAL_Driver/Src/stm32g0xx_hal_flash_ex.c ****   */
 764:Drivers/STM32G0xx_HAL_Driver/Src/stm32g0xx_hal_flash_ex.c **** static void FLASH_OB_OptrConfig(uint32_t UserType, uint32_t UserConfig, uint32_t RDPLevel)
 765:Drivers/STM32G0xx_HAL_Driver/Src/stm32g0xx_hal_flash_ex.c **** {
 1410              		.loc 1 765 1
 1411              		.cfi_startproc
 1412              		@ args = 0, pretend = 0, frame = 24
 1413              		@ frame_needed = 1, uses_anonymous_args = 0
 1414 0000 80B5     		push	{r7, lr}
 1415              		.cfi_def_cfa_offset 8
 1416              		.cfi_offset 7, -8
 1417              		.cfi_offset 14, -4
 1418 0002 86B0     		sub	sp, sp, #24
 1419              		.cfi_def_cfa_offset 32
 1420 0004 00AF     		add	r7, sp, #0
 1421              		.cfi_def_cfa_register 7
 1422 0006 F860     		str	r0, [r7, #12]
 1423 0008 B960     		str	r1, [r7, #8]
 1424 000a 7A60     		str	r2, [r7, #4]
 766:Drivers/STM32G0xx_HAL_Driver/Src/stm32g0xx_hal_flash_ex.c ****   uint32_t optr;
 767:Drivers/STM32G0xx_HAL_Driver/Src/stm32g0xx_hal_flash_ex.c **** 
 768:Drivers/STM32G0xx_HAL_Driver/Src/stm32g0xx_hal_flash_ex.c ****   /* Check the parameters */
 769:Drivers/STM32G0xx_HAL_Driver/Src/stm32g0xx_hal_flash_ex.c ****   assert_param(IS_OB_USER_TYPE(UserType));
 770:Drivers/STM32G0xx_HAL_Driver/Src/stm32g0xx_hal_flash_ex.c ****   assert_param(IS_OB_USER_CONFIG(UserType, UserConfig));
 771:Drivers/STM32G0xx_HAL_Driver/Src/stm32g0xx_hal_flash_ex.c ****   assert_param(IS_OB_RDP_LEVEL(RDPLevel));
 772:Drivers/STM32G0xx_HAL_Driver/Src/stm32g0xx_hal_flash_ex.c **** 
 773:Drivers/STM32G0xx_HAL_Driver/Src/stm32g0xx_hal_flash_ex.c ****   /* Configure the RDP level in the option bytes register */
 774:Drivers/STM32G0xx_HAL_Driver/Src/stm32g0xx_hal_flash_ex.c ****   optr = FLASH->OPTR;
 1425              		.loc 1 774 15
 1426 000c 0A4B     		ldr	r3, .L88
 1427              		.loc 1 774 8
 1428 000e 1B6A     		ldr	r3, [r3, #32]
 1429 0010 7B61     		str	r3, [r7, #20]
 775:Drivers/STM32G0xx_HAL_Driver/Src/stm32g0xx_hal_flash_ex.c ****   optr &= ~(UserType | FLASH_OPTR_RDP);
 1430              		.loc 1 775 22
 1431 0012 FB68     		ldr	r3, [r7, #12]
 1432 0014 FF22     		movs	r2, #255
 1433 0016 1343     		orrs	r3, r2
 1434              		.loc 1 775 11
 1435 0018 DA43     		mvns	r2, r3
 1436              		.loc 1 775 8
 1437 001a 7B69     		ldr	r3, [r7, #20]
 1438 001c 1340     		ands	r3, r2
 1439 001e 7B61     		str	r3, [r7, #20]
ARM GAS  C:\Users\SOLDER~1\AppData\Local\Temp\ccVplH7a.s 			page 40


 776:Drivers/STM32G0xx_HAL_Driver/Src/stm32g0xx_hal_flash_ex.c ****   FLASH->OPTR = (optr | UserConfig | RDPLevel);
 1440              		.loc 1 776 23
 1441 0020 7A69     		ldr	r2, [r7, #20]
 1442 0022 BB68     		ldr	r3, [r7, #8]
 1443 0024 1A43     		orrs	r2, r3
 1444 0026 1100     		movs	r1, r2
 1445              		.loc 1 776 8
 1446 0028 034B     		ldr	r3, .L88
 1447              		.loc 1 776 36
 1448 002a 7A68     		ldr	r2, [r7, #4]
 1449 002c 0A43     		orrs	r2, r1
 1450              		.loc 1 776 15
 1451 002e 1A62     		str	r2, [r3, #32]
 777:Drivers/STM32G0xx_HAL_Driver/Src/stm32g0xx_hal_flash_ex.c **** }
 1452              		.loc 1 777 1
 1453 0030 C046     		nop
 1454 0032 BD46     		mov	sp, r7
 1455 0034 06B0     		add	sp, sp, #24
 1456              		@ sp needed
 1457 0036 80BD     		pop	{r7, pc}
 1458              	.L89:
 1459              		.align	2
 1460              	.L88:
 1461 0038 00200240 		.word	1073881088
 1462              		.cfi_endproc
 1463              	.LFE369:
 1465              		.section	.text.FLASH_OB_GetRDP,"ax",%progbits
 1466              		.align	1
 1467              		.syntax unified
 1468              		.code	16
 1469              		.thumb_func
 1471              	FLASH_OB_GetRDP:
 1472              	.LFB370:
 778:Drivers/STM32G0xx_HAL_Driver/Src/stm32g0xx_hal_flash_ex.c **** 
 779:Drivers/STM32G0xx_HAL_Driver/Src/stm32g0xx_hal_flash_ex.c **** /**
 780:Drivers/STM32G0xx_HAL_Driver/Src/stm32g0xx_hal_flash_ex.c ****   * @brief  Return the FLASH Read Protection level.
 781:Drivers/STM32G0xx_HAL_Driver/Src/stm32g0xx_hal_flash_ex.c ****   * @retval FLASH ReadOut Protection Status:
 782:Drivers/STM32G0xx_HAL_Driver/Src/stm32g0xx_hal_flash_ex.c ****   *         This return value can be one of the following values:
 783:Drivers/STM32G0xx_HAL_Driver/Src/stm32g0xx_hal_flash_ex.c ****   *           @arg @ref OB_RDP_LEVEL_0 No protection
 784:Drivers/STM32G0xx_HAL_Driver/Src/stm32g0xx_hal_flash_ex.c ****   *           @arg @ref OB_RDP_LEVEL_1 Read protection of the memory
 785:Drivers/STM32G0xx_HAL_Driver/Src/stm32g0xx_hal_flash_ex.c ****   *           @arg @ref OB_RDP_LEVEL_2 Full chip protection
 786:Drivers/STM32G0xx_HAL_Driver/Src/stm32g0xx_hal_flash_ex.c ****   */
 787:Drivers/STM32G0xx_HAL_Driver/Src/stm32g0xx_hal_flash_ex.c **** static uint32_t FLASH_OB_GetRDP(void)
 788:Drivers/STM32G0xx_HAL_Driver/Src/stm32g0xx_hal_flash_ex.c **** {
 1473              		.loc 1 788 1
 1474              		.cfi_startproc
 1475              		@ args = 0, pretend = 0, frame = 8
 1476              		@ frame_needed = 1, uses_anonymous_args = 0
 1477 0000 80B5     		push	{r7, lr}
 1478              		.cfi_def_cfa_offset 8
 1479              		.cfi_offset 7, -8
 1480              		.cfi_offset 14, -4
 1481 0002 82B0     		sub	sp, sp, #8
 1482              		.cfi_def_cfa_offset 16
 1483 0004 00AF     		add	r7, sp, #0
 1484              		.cfi_def_cfa_register 7
 789:Drivers/STM32G0xx_HAL_Driver/Src/stm32g0xx_hal_flash_ex.c ****   uint32_t rdplvl = READ_BIT(FLASH->OPTR, FLASH_OPTR_RDP);
ARM GAS  C:\Users\SOLDER~1\AppData\Local\Temp\ccVplH7a.s 			page 41


 1485              		.loc 1 789 21
 1486 0006 094B     		ldr	r3, .L93
 1487 0008 1B6A     		ldr	r3, [r3, #32]
 1488              		.loc 1 789 12
 1489 000a FF22     		movs	r2, #255
 1490 000c 1340     		ands	r3, r2
 1491 000e 7B60     		str	r3, [r7, #4]
 790:Drivers/STM32G0xx_HAL_Driver/Src/stm32g0xx_hal_flash_ex.c **** 
 791:Drivers/STM32G0xx_HAL_Driver/Src/stm32g0xx_hal_flash_ex.c ****   if ((rdplvl != OB_RDP_LEVEL_0) && (rdplvl != OB_RDP_LEVEL_2))
 1492              		.loc 1 791 6
 1493 0010 7B68     		ldr	r3, [r7, #4]
 1494 0012 AA2B     		cmp	r3, #170
 1495 0014 04D0     		beq	.L91
 1496              		.loc 1 791 34 discriminator 1
 1497 0016 7B68     		ldr	r3, [r7, #4]
 1498 0018 CC2B     		cmp	r3, #204
 1499 001a 01D0     		beq	.L91
 792:Drivers/STM32G0xx_HAL_Driver/Src/stm32g0xx_hal_flash_ex.c ****   {
 793:Drivers/STM32G0xx_HAL_Driver/Src/stm32g0xx_hal_flash_ex.c ****     return (OB_RDP_LEVEL_1);
 1500              		.loc 1 793 12
 1501 001c BB23     		movs	r3, #187
 1502 001e 00E0     		b	.L92
 1503              	.L91:
 794:Drivers/STM32G0xx_HAL_Driver/Src/stm32g0xx_hal_flash_ex.c ****   }
 795:Drivers/STM32G0xx_HAL_Driver/Src/stm32g0xx_hal_flash_ex.c ****   else
 796:Drivers/STM32G0xx_HAL_Driver/Src/stm32g0xx_hal_flash_ex.c ****   {
 797:Drivers/STM32G0xx_HAL_Driver/Src/stm32g0xx_hal_flash_ex.c ****     return rdplvl;
 1504              		.loc 1 797 12
 1505 0020 7B68     		ldr	r3, [r7, #4]
 1506              	.L92:
 798:Drivers/STM32G0xx_HAL_Driver/Src/stm32g0xx_hal_flash_ex.c ****   }
 799:Drivers/STM32G0xx_HAL_Driver/Src/stm32g0xx_hal_flash_ex.c **** }
 1507              		.loc 1 799 1
 1508 0022 1800     		movs	r0, r3
 1509 0024 BD46     		mov	sp, r7
 1510 0026 02B0     		add	sp, sp, #8
 1511              		@ sp needed
 1512 0028 80BD     		pop	{r7, pc}
 1513              	.L94:
 1514 002a C046     		.align	2
 1515              	.L93:
 1516 002c 00200240 		.word	1073881088
 1517              		.cfi_endproc
 1518              	.LFE370:
 1520              		.section	.text.FLASH_OB_GetUser,"ax",%progbits
 1521              		.align	1
 1522              		.syntax unified
 1523              		.code	16
 1524              		.thumb_func
 1526              	FLASH_OB_GetUser:
 1527              	.LFB371:
 800:Drivers/STM32G0xx_HAL_Driver/Src/stm32g0xx_hal_flash_ex.c **** 
 801:Drivers/STM32G0xx_HAL_Driver/Src/stm32g0xx_hal_flash_ex.c **** /**
 802:Drivers/STM32G0xx_HAL_Driver/Src/stm32g0xx_hal_flash_ex.c ****   * @brief  Return the FLASH User Option Byte value.
 803:Drivers/STM32G0xx_HAL_Driver/Src/stm32g0xx_hal_flash_ex.c ****   * @retval The FLASH User Option Bytes values. It will be a combination of all the following value
 804:Drivers/STM32G0xx_HAL_Driver/Src/stm32g0xx_hal_flash_ex.c ****   *           @arg @ref FLASH_OB_USER_BOR_ENABLE(*)
 805:Drivers/STM32G0xx_HAL_Driver/Src/stm32g0xx_hal_flash_ex.c ****   *           @arg @ref FLASH_OB_USER_BOR_LEVEL(*)
ARM GAS  C:\Users\SOLDER~1\AppData\Local\Temp\ccVplH7a.s 			page 42


 806:Drivers/STM32G0xx_HAL_Driver/Src/stm32g0xx_hal_flash_ex.c ****   *           @arg @ref FLASH_OB_USER_RESET_CONFIG(*)
 807:Drivers/STM32G0xx_HAL_Driver/Src/stm32g0xx_hal_flash_ex.c ****   *           @arg @ref FLASH_OB_USER_nRST_STOP
 808:Drivers/STM32G0xx_HAL_Driver/Src/stm32g0xx_hal_flash_ex.c ****   *           @arg @ref FLASH_OB_USER_nRST_STANDBY
 809:Drivers/STM32G0xx_HAL_Driver/Src/stm32g0xx_hal_flash_ex.c ****   *           @arg @ref FLASH_OB_USER_nRST_SHUTDOWN(*)
 810:Drivers/STM32G0xx_HAL_Driver/Src/stm32g0xx_hal_flash_ex.c ****   *           @arg @ref FLASH_OB_USER_IWDG_SW
 811:Drivers/STM32G0xx_HAL_Driver/Src/stm32g0xx_hal_flash_ex.c ****   *           @arg @ref FLASH_OB_USER_IWDG_STOP
 812:Drivers/STM32G0xx_HAL_Driver/Src/stm32g0xx_hal_flash_ex.c ****   *           @arg @ref FLASH_OB_USER_IWDG_STANDBY
 813:Drivers/STM32G0xx_HAL_Driver/Src/stm32g0xx_hal_flash_ex.c ****   *           @arg @ref FLASH_OB_USER_WWDG_SW
 814:Drivers/STM32G0xx_HAL_Driver/Src/stm32g0xx_hal_flash_ex.c ****   *           @arg @ref FLASH_OB_USER_SRAM_PARITY
 815:Drivers/STM32G0xx_HAL_Driver/Src/stm32g0xx_hal_flash_ex.c ****   *           @arg @ref FLASH_OB_USER_BANK_SWAP(*)
 816:Drivers/STM32G0xx_HAL_Driver/Src/stm32g0xx_hal_flash_ex.c ****   *           @arg @ref FLASH_OB_USER_DUAL_BANK(*)
 817:Drivers/STM32G0xx_HAL_Driver/Src/stm32g0xx_hal_flash_ex.c ****   *           @arg @ref FLASH_OB_USER_nBOOT_SEL
 818:Drivers/STM32G0xx_HAL_Driver/Src/stm32g0xx_hal_flash_ex.c ****   *           @arg @ref FLASH_OB_USER_nBOOT1
 819:Drivers/STM32G0xx_HAL_Driver/Src/stm32g0xx_hal_flash_ex.c ****   *           @arg @ref FLASH_OB_USER_nBOOT0
 820:Drivers/STM32G0xx_HAL_Driver/Src/stm32g0xx_hal_flash_ex.c ****   *           @arg @ref FLASH_OB_USER_INPUT_RESET_HOLDER(*)
 821:Drivers/STM32G0xx_HAL_Driver/Src/stm32g0xx_hal_flash_ex.c ****   * @note  (*) availability depends on devices
 822:Drivers/STM32G0xx_HAL_Driver/Src/stm32g0xx_hal_flash_ex.c ****   */
 823:Drivers/STM32G0xx_HAL_Driver/Src/stm32g0xx_hal_flash_ex.c **** static uint32_t FLASH_OB_GetUser(void)
 824:Drivers/STM32G0xx_HAL_Driver/Src/stm32g0xx_hal_flash_ex.c **** {
 1528              		.loc 1 824 1
 1529              		.cfi_startproc
 1530              		@ args = 0, pretend = 0, frame = 8
 1531              		@ frame_needed = 1, uses_anonymous_args = 0
 1532 0000 80B5     		push	{r7, lr}
 1533              		.cfi_def_cfa_offset 8
 1534              		.cfi_offset 7, -8
 1535              		.cfi_offset 14, -4
 1536 0002 82B0     		sub	sp, sp, #8
 1537              		.cfi_def_cfa_offset 16
 1538 0004 00AF     		add	r7, sp, #0
 1539              		.cfi_def_cfa_register 7
 825:Drivers/STM32G0xx_HAL_Driver/Src/stm32g0xx_hal_flash_ex.c ****   uint32_t user = ((FLASH->OPTR & ~FLASH_OPTR_RDP) & OB_USER_ALL);
 1540              		.loc 1 825 26
 1541 0006 054B     		ldr	r3, .L97
 1542 0008 1B6A     		ldr	r3, [r3, #32]
 1543              		.loc 1 825 12
 1544 000a 054A     		ldr	r2, .L97+4
 1545 000c 1340     		ands	r3, r2
 1546 000e 7B60     		str	r3, [r7, #4]
 826:Drivers/STM32G0xx_HAL_Driver/Src/stm32g0xx_hal_flash_ex.c ****   return user;
 1547              		.loc 1 826 10
 1548 0010 7B68     		ldr	r3, [r7, #4]
 827:Drivers/STM32G0xx_HAL_Driver/Src/stm32g0xx_hal_flash_ex.c **** }
 1549              		.loc 1 827 1
 1550 0012 1800     		movs	r0, r3
 1551 0014 BD46     		mov	sp, r7
 1552 0016 02B0     		add	sp, sp, #8
 1553              		@ sp needed
 1554 0018 80BD     		pop	{r7, pc}
 1555              	.L98:
 1556 001a C046     		.align	2
 1557              	.L97:
 1558 001c 00200240 		.word	1073881088
 1559 0020 00FF7F3F 		.word	1065352960
 1560              		.cfi_endproc
 1561              	.LFE371:
 1563              		.section	.text.FLASH_OB_PCROP1AConfig,"ax",%progbits
ARM GAS  C:\Users\SOLDER~1\AppData\Local\Temp\ccVplH7a.s 			page 43


 1564              		.align	1
 1565              		.syntax unified
 1566              		.code	16
 1567              		.thumb_func
 1569              	FLASH_OB_PCROP1AConfig:
 1570              	.LFB372:
 828:Drivers/STM32G0xx_HAL_Driver/Src/stm32g0xx_hal_flash_ex.c **** 
 829:Drivers/STM32G0xx_HAL_Driver/Src/stm32g0xx_hal_flash_ex.c **** #if defined(FLASH_PCROP_SUPPORT)
 830:Drivers/STM32G0xx_HAL_Driver/Src/stm32g0xx_hal_flash_ex.c **** /**
 831:Drivers/STM32G0xx_HAL_Driver/Src/stm32g0xx_hal_flash_ex.c ****   * @brief  Configure the 1A Proprietary code readout protection & erase configuration on RDP regre
 832:Drivers/STM32G0xx_HAL_Driver/Src/stm32g0xx_hal_flash_ex.c ****   * @note   It is recommended to align PCROP zone with page granularity when using PCROP_RDP or avo
 833:Drivers/STM32G0xx_HAL_Driver/Src/stm32g0xx_hal_flash_ex.c ****   *         having some executable code in a page where PCROP zone starts or ends.
 834:Drivers/STM32G0xx_HAL_Driver/Src/stm32g0xx_hal_flash_ex.c ****   * @note   Minimum PCROP area size is 2 times the chosen granularity: PCROPA_STRT and PCROPA_END.
 835:Drivers/STM32G0xx_HAL_Driver/Src/stm32g0xx_hal_flash_ex.c ****   *         So if the requirement is to be able to read-protect 1KB areas, the ROP granularity
 836:Drivers/STM32G0xx_HAL_Driver/Src/stm32g0xx_hal_flash_ex.c ****   *         has to be set to 512 Bytes
 837:Drivers/STM32G0xx_HAL_Driver/Src/stm32g0xx_hal_flash_ex.c ****   * @param  PCROPConfig  specifies the erase configuration (OB_PCROP_RDP_NOT_ERASE or OB_PCROP_RDP_
 838:Drivers/STM32G0xx_HAL_Driver/Src/stm32g0xx_hal_flash_ex.c ****   *         on RDP level 1 regression.
 839:Drivers/STM32G0xx_HAL_Driver/Src/stm32g0xx_hal_flash_ex.c ****   * @param  PCROP1AStartAddr Specifies the Zone 1A Start address of the Proprietary code readout pr
 840:Drivers/STM32G0xx_HAL_Driver/Src/stm32g0xx_hal_flash_ex.c ****   *          This parameter can be an address between begin and end of the flash
 841:Drivers/STM32G0xx_HAL_Driver/Src/stm32g0xx_hal_flash_ex.c ****   * @param  PCROP1AEndAddr Specifies the Zone 1A end address of the Proprietary code readout protec
 842:Drivers/STM32G0xx_HAL_Driver/Src/stm32g0xx_hal_flash_ex.c ****   *          This parameter can be an address between PCROP1AStartAddr and end of the flash
 843:Drivers/STM32G0xx_HAL_Driver/Src/stm32g0xx_hal_flash_ex.c ****   * @retval None
 844:Drivers/STM32G0xx_HAL_Driver/Src/stm32g0xx_hal_flash_ex.c ****   */
 845:Drivers/STM32G0xx_HAL_Driver/Src/stm32g0xx_hal_flash_ex.c **** static void FLASH_OB_PCROP1AConfig(uint32_t PCROPConfig, uint32_t PCROP1AStartAddr, uint32_t PCROP1
 846:Drivers/STM32G0xx_HAL_Driver/Src/stm32g0xx_hal_flash_ex.c **** {
 1571              		.loc 1 846 1
 1572              		.cfi_startproc
 1573              		@ args = 0, pretend = 0, frame = 32
 1574              		@ frame_needed = 1, uses_anonymous_args = 0
 1575 0000 80B5     		push	{r7, lr}
 1576              		.cfi_def_cfa_offset 8
 1577              		.cfi_offset 7, -8
 1578              		.cfi_offset 14, -4
 1579 0002 88B0     		sub	sp, sp, #32
 1580              		.cfi_def_cfa_offset 40
 1581 0004 00AF     		add	r7, sp, #0
 1582              		.cfi_def_cfa_register 7
 1583 0006 F860     		str	r0, [r7, #12]
 1584 0008 B960     		str	r1, [r7, #8]
 1585 000a 7A60     		str	r2, [r7, #4]
 847:Drivers/STM32G0xx_HAL_Driver/Src/stm32g0xx_hal_flash_ex.c ****   uint32_t startoffset;
 848:Drivers/STM32G0xx_HAL_Driver/Src/stm32g0xx_hal_flash_ex.c ****   uint32_t endoffset;
 849:Drivers/STM32G0xx_HAL_Driver/Src/stm32g0xx_hal_flash_ex.c ****   uint32_t pcrop1aend;
 850:Drivers/STM32G0xx_HAL_Driver/Src/stm32g0xx_hal_flash_ex.c ****   uint32_t ropbase;
 851:Drivers/STM32G0xx_HAL_Driver/Src/stm32g0xx_hal_flash_ex.c **** 
 852:Drivers/STM32G0xx_HAL_Driver/Src/stm32g0xx_hal_flash_ex.c ****   /* Check the parameters */
 853:Drivers/STM32G0xx_HAL_Driver/Src/stm32g0xx_hal_flash_ex.c ****   assert_param(IS_OB_PCROP_CONFIG(PCROPConfig));
 854:Drivers/STM32G0xx_HAL_Driver/Src/stm32g0xx_hal_flash_ex.c **** 
 855:Drivers/STM32G0xx_HAL_Driver/Src/stm32g0xx_hal_flash_ex.c **** #if defined(FLASH_DBANK_SUPPORT)
 856:Drivers/STM32G0xx_HAL_Driver/Src/stm32g0xx_hal_flash_ex.c ****   /* Check if banks are swapped (valid if only one bank) */
 857:Drivers/STM32G0xx_HAL_Driver/Src/stm32g0xx_hal_flash_ex.c ****   if (((FLASH->OPTR & FLASH_OPTR_nSWAP_BANK) != FLASH_OPTR_nSWAP_BANK) && (FLASH_BANK_NB == 2U))
 1586              		.loc 1 857 14
 1587 000c 3B4B     		ldr	r3, .L108
 1588 000e 1A6A     		ldr	r2, [r3, #32]
 1589              		.loc 1 857 21
 1590 0010 8023     		movs	r3, #128
 1591 0012 5B03     		lsls	r3, r3, #13
ARM GAS  C:\Users\SOLDER~1\AppData\Local\Temp\ccVplH7a.s 			page 44


 1592 0014 1A40     		ands	r2, r3
 1593              		.loc 1 857 6
 1594 0016 8023     		movs	r3, #128
 1595 0018 5B03     		lsls	r3, r3, #13
 1596 001a 9A42     		cmp	r2, r3
 1597 001c 3FD0     		beq	.L100
 1598              		.loc 1 857 76 discriminator 1
 1599 001e 384B     		ldr	r3, .L108+4
 1600 0020 1A68     		ldr	r2, [r3]
 1601 0022 C023     		movs	r3, #192
 1602 0024 9B04     		lsls	r3, r3, #18
 1603 0026 1340     		ands	r3, r2
 1604              		.loc 1 857 72 discriminator 1
 1605 0028 39D0     		beq	.L100
 1606              		.loc 1 857 76 discriminator 2
 1607 002a 354B     		ldr	r3, .L108+4
 1608 002c 1A68     		ldr	r2, [r3]
 1609 002e C023     		movs	r3, #192
 1610 0030 9B04     		lsls	r3, r3, #18
 1611 0032 1A40     		ands	r2, r3
 1612              		.loc 1 857 90 discriminator 2
 1613 0034 8023     		movs	r3, #128
 1614 0036 5B04     		lsls	r3, r3, #17
 1615 0038 9A42     		cmp	r2, r3
 1616 003a 05D1     		bne	.L101
 1617              		.loc 1 857 76 discriminator 3
 1618 003c 314B     		ldr	r3, .L108+8
 1619 003e 1A68     		ldr	r2, [r3]
 1620 0040 8023     		movs	r3, #128
 1621 0042 9B03     		lsls	r3, r3, #14
 1622 0044 1340     		ands	r3, r2
 1623 0046 2AD0     		beq	.L100
 1624              	.L101:
 858:Drivers/STM32G0xx_HAL_Driver/Src/stm32g0xx_hal_flash_ex.c ****   {
 859:Drivers/STM32G0xx_HAL_Driver/Src/stm32g0xx_hal_flash_ex.c ****     /* Check the parameters */
 860:Drivers/STM32G0xx_HAL_Driver/Src/stm32g0xx_hal_flash_ex.c ****     assert_param(IS_FLASH_MAIN_SECONDHALF_MEM_ADDRESS(PCROP1AStartAddr));
 861:Drivers/STM32G0xx_HAL_Driver/Src/stm32g0xx_hal_flash_ex.c ****     assert_param(IS_FLASH_MAIN_SECONDHALF_MEM_ADDRESS(PCROP1AEndAddr));
 862:Drivers/STM32G0xx_HAL_Driver/Src/stm32g0xx_hal_flash_ex.c **** 
 863:Drivers/STM32G0xx_HAL_Driver/Src/stm32g0xx_hal_flash_ex.c ****     /* Bank swap, bank 1 read only protection is on second half of Flash */
 864:Drivers/STM32G0xx_HAL_Driver/Src/stm32g0xx_hal_flash_ex.c ****     ropbase = (FLASH_BASE + FLASH_BANK_SIZE);
 1625              		.loc 1 864 29
 1626 0048 2D4B     		ldr	r3, .L108+4
 1627 004a 1A68     		ldr	r2, [r3]
 1628 004c C023     		movs	r3, #192
 1629 004e 9B04     		lsls	r3, r3, #18
 1630 0050 1340     		ands	r3, r2
 1631              		.loc 1 864 27
 1632 0052 0ED0     		beq	.L102
 1633              		.loc 1 864 29 discriminator 2
 1634 0054 2A4B     		ldr	r3, .L108+4
 1635 0056 1A68     		ldr	r2, [r3]
 1636 0058 C023     		movs	r3, #192
 1637 005a 9B04     		lsls	r3, r3, #18
 1638 005c 1A40     		ands	r2, r3
 1639 005e 8023     		movs	r3, #128
 1640 0060 5B04     		lsls	r3, r3, #17
 1641 0062 9A42     		cmp	r2, r3
ARM GAS  C:\Users\SOLDER~1\AppData\Local\Temp\ccVplH7a.s 			page 45


 1642 0064 0FD1     		bne	.L103
 1643              		.loc 1 864 29 is_stmt 0 discriminator 3
 1644 0066 274B     		ldr	r3, .L108+8
 1645 0068 1A68     		ldr	r2, [r3]
 1646 006a 8023     		movs	r3, #128
 1647 006c 9B03     		lsls	r3, r3, #14
 1648 006e 1340     		ands	r3, r2
 1649 0070 09D1     		bne	.L103
 1650              	.L102:
 1651              		.loc 1 864 29 discriminator 5
 1652 0072 254B     		ldr	r3, .L108+12
 1653 0074 1B68     		ldr	r3, [r3]
 1654 0076 9B02     		lsls	r3, r3, #10
 1655 0078 244A     		ldr	r2, .L108+16
 1656 007a 1340     		ands	r3, r2
 1657              		.loc 1 864 27 is_stmt 1 discriminator 5
 1658 007c 8022     		movs	r2, #128
 1659 007e 1205     		lsls	r2, r2, #20
 1660 0080 9446     		mov	ip, r2
 1661 0082 6344     		add	r3, r3, ip
 1662 0084 09E0     		b	.L104
 1663              	.L103:
 1664              		.loc 1 864 29 discriminator 6
 1665 0086 204B     		ldr	r3, .L108+12
 1666 0088 1B68     		ldr	r3, [r3]
 1667 008a 9B02     		lsls	r3, r3, #10
 1668 008c 5B08     		lsrs	r3, r3, #1
 1669 008e 204A     		ldr	r2, .L108+20
 1670 0090 1340     		ands	r3, r2
 1671              		.loc 1 864 27 discriminator 6
 1672 0092 8022     		movs	r2, #128
 1673 0094 1205     		lsls	r2, r2, #20
 1674 0096 9446     		mov	ip, r2
 1675 0098 6344     		add	r3, r3, ip
 1676              	.L104:
 1677              		.loc 1 864 13 discriminator 8
 1678 009a BB61     		str	r3, [r7, #24]
 1679 009c 02E0     		b	.L105
 1680              	.L100:
 865:Drivers/STM32G0xx_HAL_Driver/Src/stm32g0xx_hal_flash_ex.c ****   }
 866:Drivers/STM32G0xx_HAL_Driver/Src/stm32g0xx_hal_flash_ex.c ****   else
 867:Drivers/STM32G0xx_HAL_Driver/Src/stm32g0xx_hal_flash_ex.c **** #endif /* FLASH_DBANK_SUPPORT */
 868:Drivers/STM32G0xx_HAL_Driver/Src/stm32g0xx_hal_flash_ex.c ****   {
 869:Drivers/STM32G0xx_HAL_Driver/Src/stm32g0xx_hal_flash_ex.c ****     /* Check the parameters */
 870:Drivers/STM32G0xx_HAL_Driver/Src/stm32g0xx_hal_flash_ex.c ****     assert_param(IS_FLASH_MAIN_FIRSTHALF_MEM_ADDRESS(PCROP1AStartAddr));
 871:Drivers/STM32G0xx_HAL_Driver/Src/stm32g0xx_hal_flash_ex.c ****     assert_param(IS_FLASH_MAIN_FIRSTHALF_MEM_ADDRESS(PCROP1AEndAddr));
 872:Drivers/STM32G0xx_HAL_Driver/Src/stm32g0xx_hal_flash_ex.c **** 
 873:Drivers/STM32G0xx_HAL_Driver/Src/stm32g0xx_hal_flash_ex.c ****     /* No Bank swap, bank 1 read only protection is on first half of Flash */
 874:Drivers/STM32G0xx_HAL_Driver/Src/stm32g0xx_hal_flash_ex.c ****     ropbase = FLASH_BASE;
 1681              		.loc 1 874 13
 1682 009e 8023     		movs	r3, #128
 1683 00a0 1B05     		lsls	r3, r3, #20
 1684 00a2 BB61     		str	r3, [r7, #24]
 1685              	.L105:
 875:Drivers/STM32G0xx_HAL_Driver/Src/stm32g0xx_hal_flash_ex.c ****   }
 876:Drivers/STM32G0xx_HAL_Driver/Src/stm32g0xx_hal_flash_ex.c **** 
 877:Drivers/STM32G0xx_HAL_Driver/Src/stm32g0xx_hal_flash_ex.c ****   /* get pcrop 1A end register */
ARM GAS  C:\Users\SOLDER~1\AppData\Local\Temp\ccVplH7a.s 			page 46


 878:Drivers/STM32G0xx_HAL_Driver/Src/stm32g0xx_hal_flash_ex.c ****   pcrop1aend = FLASH->PCROP1AER;
 1686              		.loc 1 878 21
 1687 00a4 154B     		ldr	r3, .L108
 1688              		.loc 1 878 14
 1689 00a6 9B6A     		ldr	r3, [r3, #40]
 1690 00a8 FB61     		str	r3, [r7, #28]
 879:Drivers/STM32G0xx_HAL_Driver/Src/stm32g0xx_hal_flash_ex.c **** 
 880:Drivers/STM32G0xx_HAL_Driver/Src/stm32g0xx_hal_flash_ex.c ****   /* Configure the Proprietary code readout protection offset */
 881:Drivers/STM32G0xx_HAL_Driver/Src/stm32g0xx_hal_flash_ex.c ****   if ((PCROPConfig & OB_PCROP_ZONE_A) != 0x00U)
 1691              		.loc 1 881 20
 1692 00aa FB68     		ldr	r3, [r7, #12]
 1693 00ac 0122     		movs	r2, #1
 1694 00ae 1340     		ands	r3, r2
 1695              		.loc 1 881 6
 1696 00b0 14D0     		beq	.L106
 882:Drivers/STM32G0xx_HAL_Driver/Src/stm32g0xx_hal_flash_ex.c ****   {
 883:Drivers/STM32G0xx_HAL_Driver/Src/stm32g0xx_hal_flash_ex.c ****     /* Compute offset depending on pcrop granularity */
 884:Drivers/STM32G0xx_HAL_Driver/Src/stm32g0xx_hal_flash_ex.c ****     startoffset = ((PCROP1AStartAddr - ropbase) >> FLASH_PCROP_GRANULARITY_OFFSET);
 1697              		.loc 1 884 38
 1698 00b2 BA68     		ldr	r2, [r7, #8]
 1699 00b4 BB69     		ldr	r3, [r7, #24]
 1700 00b6 D31A     		subs	r3, r2, r3
 1701              		.loc 1 884 17
 1702 00b8 5B0A     		lsrs	r3, r3, #9
 1703 00ba 7B61     		str	r3, [r7, #20]
 885:Drivers/STM32G0xx_HAL_Driver/Src/stm32g0xx_hal_flash_ex.c ****     endoffset = ((PCROP1AEndAddr - ropbase) >> FLASH_PCROP_GRANULARITY_OFFSET);
 1704              		.loc 1 885 34
 1705 00bc 7A68     		ldr	r2, [r7, #4]
 1706 00be BB69     		ldr	r3, [r7, #24]
 1707 00c0 D31A     		subs	r3, r2, r3
 1708              		.loc 1 885 15
 1709 00c2 5B0A     		lsrs	r3, r3, #9
 1710 00c4 3B61     		str	r3, [r7, #16]
 886:Drivers/STM32G0xx_HAL_Driver/Src/stm32g0xx_hal_flash_ex.c **** 
 887:Drivers/STM32G0xx_HAL_Driver/Src/stm32g0xx_hal_flash_ex.c ****     /* Set Zone A start offset */
 888:Drivers/STM32G0xx_HAL_Driver/Src/stm32g0xx_hal_flash_ex.c ****     FLASH->PCROP1ASR = startoffset;
 1711              		.loc 1 888 10
 1712 00c6 0D4B     		ldr	r3, .L108
 1713              		.loc 1 888 22
 1714 00c8 7A69     		ldr	r2, [r7, #20]
 1715 00ca 5A62     		str	r2, [r3, #36]
 889:Drivers/STM32G0xx_HAL_Driver/Src/stm32g0xx_hal_flash_ex.c **** 
 890:Drivers/STM32G0xx_HAL_Driver/Src/stm32g0xx_hal_flash_ex.c ****     /* Set Zone A end offset */
 891:Drivers/STM32G0xx_HAL_Driver/Src/stm32g0xx_hal_flash_ex.c ****     pcrop1aend &= ~FLASH_PCROP1AER_PCROP1A_END;
 1716              		.loc 1 891 16
 1717 00cc FB69     		ldr	r3, [r7, #28]
 1718 00ce 5B0A     		lsrs	r3, r3, #9
 1719 00d0 5B02     		lsls	r3, r3, #9
 1720 00d2 FB61     		str	r3, [r7, #28]
 892:Drivers/STM32G0xx_HAL_Driver/Src/stm32g0xx_hal_flash_ex.c ****     pcrop1aend |= endoffset;
 1721              		.loc 1 892 16
 1722 00d4 FA69     		ldr	r2, [r7, #28]
 1723 00d6 3B69     		ldr	r3, [r7, #16]
 1724 00d8 1343     		orrs	r3, r2
 1725 00da FB61     		str	r3, [r7, #28]
 1726              	.L106:
 893:Drivers/STM32G0xx_HAL_Driver/Src/stm32g0xx_hal_flash_ex.c ****   }
ARM GAS  C:\Users\SOLDER~1\AppData\Local\Temp\ccVplH7a.s 			page 47


 894:Drivers/STM32G0xx_HAL_Driver/Src/stm32g0xx_hal_flash_ex.c **** 
 895:Drivers/STM32G0xx_HAL_Driver/Src/stm32g0xx_hal_flash_ex.c ****   /* Set RDP erase protection if needed. This bit is only set & will be reset by mass erase */
 896:Drivers/STM32G0xx_HAL_Driver/Src/stm32g0xx_hal_flash_ex.c ****   if ((PCROPConfig & OB_PCROP_RDP_ERASE) != 0x00U)
 1727              		.loc 1 896 42
 1728 00dc FB68     		ldr	r3, [r7, #12]
 1729              		.loc 1 896 6
 1730 00de 002B     		cmp	r3, #0
 1731 00e0 04DA     		bge	.L107
 897:Drivers/STM32G0xx_HAL_Driver/Src/stm32g0xx_hal_flash_ex.c ****   {
 898:Drivers/STM32G0xx_HAL_Driver/Src/stm32g0xx_hal_flash_ex.c ****     pcrop1aend |= FLASH_PCROP1AER_PCROP_RDP;
 1732              		.loc 1 898 16
 1733 00e2 FB69     		ldr	r3, [r7, #28]
 1734 00e4 8022     		movs	r2, #128
 1735 00e6 1206     		lsls	r2, r2, #24
 1736 00e8 1343     		orrs	r3, r2
 1737 00ea FB61     		str	r3, [r7, #28]
 1738              	.L107:
 899:Drivers/STM32G0xx_HAL_Driver/Src/stm32g0xx_hal_flash_ex.c ****   }
 900:Drivers/STM32G0xx_HAL_Driver/Src/stm32g0xx_hal_flash_ex.c **** 
 901:Drivers/STM32G0xx_HAL_Driver/Src/stm32g0xx_hal_flash_ex.c ****   /* set 1A End register */
 902:Drivers/STM32G0xx_HAL_Driver/Src/stm32g0xx_hal_flash_ex.c ****   FLASH->PCROP1AER = pcrop1aend;
 1739              		.loc 1 902 8
 1740 00ec 034B     		ldr	r3, .L108
 1741              		.loc 1 902 20
 1742 00ee FA69     		ldr	r2, [r7, #28]
 1743 00f0 9A62     		str	r2, [r3, #40]
 903:Drivers/STM32G0xx_HAL_Driver/Src/stm32g0xx_hal_flash_ex.c **** }
 1744              		.loc 1 903 1
 1745 00f2 C046     		nop
 1746 00f4 BD46     		mov	sp, r7
 1747 00f6 08B0     		add	sp, sp, #32
 1748              		@ sp needed
 1749 00f8 80BD     		pop	{r7, pc}
 1750              	.L109:
 1751 00fa C046     		.align	2
 1752              	.L108:
 1753 00fc 00200240 		.word	1073881088
 1754 0100 0075FF1F 		.word	536835328
 1755 0104 20200240 		.word	1073881120
 1756 0108 E075FF1F 		.word	536835552
 1757 010c 00FC0F00 		.word	1047552
 1758 0110 00FE0700 		.word	523776
 1759              		.cfi_endproc
 1760              	.LFE372:
 1762              		.section	.text.FLASH_OB_PCROP1BConfig,"ax",%progbits
 1763              		.align	1
 1764              		.syntax unified
 1765              		.code	16
 1766              		.thumb_func
 1768              	FLASH_OB_PCROP1BConfig:
 1769              	.LFB373:
 904:Drivers/STM32G0xx_HAL_Driver/Src/stm32g0xx_hal_flash_ex.c **** 
 905:Drivers/STM32G0xx_HAL_Driver/Src/stm32g0xx_hal_flash_ex.c **** /**
 906:Drivers/STM32G0xx_HAL_Driver/Src/stm32g0xx_hal_flash_ex.c ****   * @brief  Configure the 1B Proprietary code readout protection.
 907:Drivers/STM32G0xx_HAL_Driver/Src/stm32g0xx_hal_flash_ex.c ****   * @note   It is recommended to align PCROP zone with page granularity when using PCROP_RDP or avo
 908:Drivers/STM32G0xx_HAL_Driver/Src/stm32g0xx_hal_flash_ex.c ****   *         having some executable code in a page where PCROP zone starts or ends.
 909:Drivers/STM32G0xx_HAL_Driver/Src/stm32g0xx_hal_flash_ex.c ****   * @note   Minimum PCROP area size is 2 times the chosen granularity: PCROPB_STRT and PCROPB_END.
ARM GAS  C:\Users\SOLDER~1\AppData\Local\Temp\ccVplH7a.s 			page 48


 910:Drivers/STM32G0xx_HAL_Driver/Src/stm32g0xx_hal_flash_ex.c ****   *         So if the requirement is to be able to read-protect 1KB areas, the ROP granularity
 911:Drivers/STM32G0xx_HAL_Driver/Src/stm32g0xx_hal_flash_ex.c ****   *         has to be set to 512 Bytes
 912:Drivers/STM32G0xx_HAL_Driver/Src/stm32g0xx_hal_flash_ex.c ****   * @param  PCROP1BStartAddr  Specifies the Zone 1B Start address of the Proprietary code readout p
 913:Drivers/STM32G0xx_HAL_Driver/Src/stm32g0xx_hal_flash_ex.c ****   *         This parameter can be an address between begin and end of the flash
 914:Drivers/STM32G0xx_HAL_Driver/Src/stm32g0xx_hal_flash_ex.c ****   * @param  PCROP1BEndAddr  Specifies the Zone 1B end address of the Proprietary code readout prote
 915:Drivers/STM32G0xx_HAL_Driver/Src/stm32g0xx_hal_flash_ex.c ****   *         This parameter can be an address between PCROP1BStartAddr and end of the flash
 916:Drivers/STM32G0xx_HAL_Driver/Src/stm32g0xx_hal_flash_ex.c ****   * @retval None
 917:Drivers/STM32G0xx_HAL_Driver/Src/stm32g0xx_hal_flash_ex.c ****   */
 918:Drivers/STM32G0xx_HAL_Driver/Src/stm32g0xx_hal_flash_ex.c **** static void FLASH_OB_PCROP1BConfig(uint32_t PCROP1BStartAddr, uint32_t PCROP1BEndAddr)
 919:Drivers/STM32G0xx_HAL_Driver/Src/stm32g0xx_hal_flash_ex.c **** {
 1770              		.loc 1 919 1
 1771              		.cfi_startproc
 1772              		@ args = 0, pretend = 0, frame = 24
 1773              		@ frame_needed = 1, uses_anonymous_args = 0
 1774 0000 80B5     		push	{r7, lr}
 1775              		.cfi_def_cfa_offset 8
 1776              		.cfi_offset 7, -8
 1777              		.cfi_offset 14, -4
 1778 0002 86B0     		sub	sp, sp, #24
 1779              		.cfi_def_cfa_offset 32
 1780 0004 00AF     		add	r7, sp, #0
 1781              		.cfi_def_cfa_register 7
 1782 0006 7860     		str	r0, [r7, #4]
 1783 0008 3960     		str	r1, [r7]
 920:Drivers/STM32G0xx_HAL_Driver/Src/stm32g0xx_hal_flash_ex.c ****   uint32_t startoffset;
 921:Drivers/STM32G0xx_HAL_Driver/Src/stm32g0xx_hal_flash_ex.c ****   uint32_t endoffset;
 922:Drivers/STM32G0xx_HAL_Driver/Src/stm32g0xx_hal_flash_ex.c ****   uint32_t ropbase;
 923:Drivers/STM32G0xx_HAL_Driver/Src/stm32g0xx_hal_flash_ex.c **** 
 924:Drivers/STM32G0xx_HAL_Driver/Src/stm32g0xx_hal_flash_ex.c **** #if defined(FLASH_DBANK_SUPPORT)
 925:Drivers/STM32G0xx_HAL_Driver/Src/stm32g0xx_hal_flash_ex.c ****   /* Check if banks are swapped (valid if only one bank) */
 926:Drivers/STM32G0xx_HAL_Driver/Src/stm32g0xx_hal_flash_ex.c ****   if (((FLASH->OPTR & FLASH_OPTR_nSWAP_BANK) != FLASH_OPTR_nSWAP_BANK) && (FLASH_BANK_NB == 2U))
 1784              		.loc 1 926 14
 1785 000a 304B     		ldr	r3, .L117
 1786 000c 1A6A     		ldr	r2, [r3, #32]
 1787              		.loc 1 926 21
 1788 000e 8023     		movs	r3, #128
 1789 0010 5B03     		lsls	r3, r3, #13
 1790 0012 1A40     		ands	r2, r3
 1791              		.loc 1 926 6
 1792 0014 8023     		movs	r3, #128
 1793 0016 5B03     		lsls	r3, r3, #13
 1794 0018 9A42     		cmp	r2, r3
 1795 001a 3FD0     		beq	.L111
 1796              		.loc 1 926 76 discriminator 1
 1797 001c 2C4B     		ldr	r3, .L117+4
 1798 001e 1A68     		ldr	r2, [r3]
 1799 0020 C023     		movs	r3, #192
 1800 0022 9B04     		lsls	r3, r3, #18
 1801 0024 1340     		ands	r3, r2
 1802              		.loc 1 926 72 discriminator 1
 1803 0026 39D0     		beq	.L111
 1804              		.loc 1 926 76 discriminator 2
 1805 0028 294B     		ldr	r3, .L117+4
 1806 002a 1A68     		ldr	r2, [r3]
 1807 002c C023     		movs	r3, #192
 1808 002e 9B04     		lsls	r3, r3, #18
 1809 0030 1A40     		ands	r2, r3
ARM GAS  C:\Users\SOLDER~1\AppData\Local\Temp\ccVplH7a.s 			page 49


 1810              		.loc 1 926 90 discriminator 2
 1811 0032 8023     		movs	r3, #128
 1812 0034 5B04     		lsls	r3, r3, #17
 1813 0036 9A42     		cmp	r2, r3
 1814 0038 05D1     		bne	.L112
 1815              		.loc 1 926 76 discriminator 3
 1816 003a 264B     		ldr	r3, .L117+8
 1817 003c 1A68     		ldr	r2, [r3]
 1818 003e 8023     		movs	r3, #128
 1819 0040 9B03     		lsls	r3, r3, #14
 1820 0042 1340     		ands	r3, r2
 1821 0044 2AD0     		beq	.L111
 1822              	.L112:
 927:Drivers/STM32G0xx_HAL_Driver/Src/stm32g0xx_hal_flash_ex.c ****   {
 928:Drivers/STM32G0xx_HAL_Driver/Src/stm32g0xx_hal_flash_ex.c ****     /* Check the parameters */
 929:Drivers/STM32G0xx_HAL_Driver/Src/stm32g0xx_hal_flash_ex.c ****     assert_param(IS_FLASH_MAIN_SECONDHALF_MEM_ADDRESS(PCROP1BStartAddr));
 930:Drivers/STM32G0xx_HAL_Driver/Src/stm32g0xx_hal_flash_ex.c ****     assert_param(IS_FLASH_MAIN_SECONDHALF_MEM_ADDRESS(PCROP1BEndAddr));
 931:Drivers/STM32G0xx_HAL_Driver/Src/stm32g0xx_hal_flash_ex.c **** 
 932:Drivers/STM32G0xx_HAL_Driver/Src/stm32g0xx_hal_flash_ex.c ****     /* Bank swap, bank 1 read only protection is on second half of Flash */
 933:Drivers/STM32G0xx_HAL_Driver/Src/stm32g0xx_hal_flash_ex.c ****     ropbase = (FLASH_BASE + FLASH_BANK_SIZE);
 1823              		.loc 1 933 29
 1824 0046 224B     		ldr	r3, .L117+4
 1825 0048 1A68     		ldr	r2, [r3]
 1826 004a C023     		movs	r3, #192
 1827 004c 9B04     		lsls	r3, r3, #18
 1828 004e 1340     		ands	r3, r2
 1829              		.loc 1 933 27
 1830 0050 0ED0     		beq	.L113
 1831              		.loc 1 933 29 discriminator 2
 1832 0052 1F4B     		ldr	r3, .L117+4
 1833 0054 1A68     		ldr	r2, [r3]
 1834 0056 C023     		movs	r3, #192
 1835 0058 9B04     		lsls	r3, r3, #18
 1836 005a 1A40     		ands	r2, r3
 1837 005c 8023     		movs	r3, #128
 1838 005e 5B04     		lsls	r3, r3, #17
 1839 0060 9A42     		cmp	r2, r3
 1840 0062 0FD1     		bne	.L114
 1841              		.loc 1 933 29 is_stmt 0 discriminator 3
 1842 0064 1B4B     		ldr	r3, .L117+8
 1843 0066 1A68     		ldr	r2, [r3]
 1844 0068 8023     		movs	r3, #128
 1845 006a 9B03     		lsls	r3, r3, #14
 1846 006c 1340     		ands	r3, r2
 1847 006e 09D1     		bne	.L114
 1848              	.L113:
 1849              		.loc 1 933 29 discriminator 5
 1850 0070 194B     		ldr	r3, .L117+12
 1851 0072 1B68     		ldr	r3, [r3]
 1852 0074 9B02     		lsls	r3, r3, #10
 1853 0076 194A     		ldr	r2, .L117+16
 1854 0078 1340     		ands	r3, r2
 1855              		.loc 1 933 27 is_stmt 1 discriminator 5
 1856 007a 8022     		movs	r2, #128
 1857 007c 1205     		lsls	r2, r2, #20
 1858 007e 9446     		mov	ip, r2
 1859 0080 6344     		add	r3, r3, ip
ARM GAS  C:\Users\SOLDER~1\AppData\Local\Temp\ccVplH7a.s 			page 50


 1860 0082 09E0     		b	.L115
 1861              	.L114:
 1862              		.loc 1 933 29 discriminator 6
 1863 0084 144B     		ldr	r3, .L117+12
 1864 0086 1B68     		ldr	r3, [r3]
 1865 0088 9B02     		lsls	r3, r3, #10
 1866 008a 5B08     		lsrs	r3, r3, #1
 1867 008c 144A     		ldr	r2, .L117+20
 1868 008e 1340     		ands	r3, r2
 1869              		.loc 1 933 27 discriminator 6
 1870 0090 8022     		movs	r2, #128
 1871 0092 1205     		lsls	r2, r2, #20
 1872 0094 9446     		mov	ip, r2
 1873 0096 6344     		add	r3, r3, ip
 1874              	.L115:
 1875              		.loc 1 933 13 discriminator 8
 1876 0098 7B61     		str	r3, [r7, #20]
 1877 009a 02E0     		b	.L116
 1878              	.L111:
 934:Drivers/STM32G0xx_HAL_Driver/Src/stm32g0xx_hal_flash_ex.c ****   }
 935:Drivers/STM32G0xx_HAL_Driver/Src/stm32g0xx_hal_flash_ex.c ****   else
 936:Drivers/STM32G0xx_HAL_Driver/Src/stm32g0xx_hal_flash_ex.c **** #endif /* FLASH_DBANK_SUPPORT */
 937:Drivers/STM32G0xx_HAL_Driver/Src/stm32g0xx_hal_flash_ex.c ****   {
 938:Drivers/STM32G0xx_HAL_Driver/Src/stm32g0xx_hal_flash_ex.c ****     /* Check the parameters */
 939:Drivers/STM32G0xx_HAL_Driver/Src/stm32g0xx_hal_flash_ex.c ****     assert_param(IS_FLASH_MAIN_FIRSTHALF_MEM_ADDRESS(PCROP1BStartAddr));
 940:Drivers/STM32G0xx_HAL_Driver/Src/stm32g0xx_hal_flash_ex.c ****     assert_param(IS_FLASH_MAIN_FIRSTHALF_MEM_ADDRESS(PCROP1BEndAddr));
 941:Drivers/STM32G0xx_HAL_Driver/Src/stm32g0xx_hal_flash_ex.c **** 
 942:Drivers/STM32G0xx_HAL_Driver/Src/stm32g0xx_hal_flash_ex.c ****     /* No Bank swap, bank 1 read only protection is on first half of Flash */
 943:Drivers/STM32G0xx_HAL_Driver/Src/stm32g0xx_hal_flash_ex.c ****     ropbase = FLASH_BASE;
 1879              		.loc 1 943 13
 1880 009c 8023     		movs	r3, #128
 1881 009e 1B05     		lsls	r3, r3, #20
 1882 00a0 7B61     		str	r3, [r7, #20]
 1883              	.L116:
 944:Drivers/STM32G0xx_HAL_Driver/Src/stm32g0xx_hal_flash_ex.c ****   }
 945:Drivers/STM32G0xx_HAL_Driver/Src/stm32g0xx_hal_flash_ex.c **** 
 946:Drivers/STM32G0xx_HAL_Driver/Src/stm32g0xx_hal_flash_ex.c ****   /* Configure the Proprietary code readout protection offset */
 947:Drivers/STM32G0xx_HAL_Driver/Src/stm32g0xx_hal_flash_ex.c ****   startoffset = ((PCROP1BStartAddr - ropbase) >> FLASH_PCROP_GRANULARITY_OFFSET);
 1884              		.loc 1 947 36
 1885 00a2 7A68     		ldr	r2, [r7, #4]
 1886 00a4 7B69     		ldr	r3, [r7, #20]
 1887 00a6 D31A     		subs	r3, r2, r3
 1888              		.loc 1 947 15
 1889 00a8 5B0A     		lsrs	r3, r3, #9
 1890 00aa 3B61     		str	r3, [r7, #16]
 948:Drivers/STM32G0xx_HAL_Driver/Src/stm32g0xx_hal_flash_ex.c ****   endoffset = ((PCROP1BEndAddr - ropbase) >> FLASH_PCROP_GRANULARITY_OFFSET);
 1891              		.loc 1 948 32
 1892 00ac 3A68     		ldr	r2, [r7]
 1893 00ae 7B69     		ldr	r3, [r7, #20]
 1894 00b0 D31A     		subs	r3, r2, r3
 1895              		.loc 1 948 13
 1896 00b2 5B0A     		lsrs	r3, r3, #9
 1897 00b4 FB60     		str	r3, [r7, #12]
 949:Drivers/STM32G0xx_HAL_Driver/Src/stm32g0xx_hal_flash_ex.c **** 
 950:Drivers/STM32G0xx_HAL_Driver/Src/stm32g0xx_hal_flash_ex.c ****   /* Set Zone B start offset */
 951:Drivers/STM32G0xx_HAL_Driver/Src/stm32g0xx_hal_flash_ex.c ****   FLASH->PCROP1BSR = startoffset;
 1898              		.loc 1 951 8
ARM GAS  C:\Users\SOLDER~1\AppData\Local\Temp\ccVplH7a.s 			page 51


 1899 00b6 054B     		ldr	r3, .L117
 1900              		.loc 1 951 20
 1901 00b8 3A69     		ldr	r2, [r7, #16]
 1902 00ba 5A63     		str	r2, [r3, #52]
 952:Drivers/STM32G0xx_HAL_Driver/Src/stm32g0xx_hal_flash_ex.c ****   /* Set Zone B end offset */
 953:Drivers/STM32G0xx_HAL_Driver/Src/stm32g0xx_hal_flash_ex.c ****   FLASH->PCROP1BER = endoffset;
 1903              		.loc 1 953 8
 1904 00bc 034B     		ldr	r3, .L117
 1905              		.loc 1 953 20
 1906 00be FA68     		ldr	r2, [r7, #12]
 1907 00c0 9A63     		str	r2, [r3, #56]
 954:Drivers/STM32G0xx_HAL_Driver/Src/stm32g0xx_hal_flash_ex.c **** }
 1908              		.loc 1 954 1
 1909 00c2 C046     		nop
 1910 00c4 BD46     		mov	sp, r7
 1911 00c6 06B0     		add	sp, sp, #24
 1912              		@ sp needed
 1913 00c8 80BD     		pop	{r7, pc}
 1914              	.L118:
 1915 00ca C046     		.align	2
 1916              	.L117:
 1917 00cc 00200240 		.word	1073881088
 1918 00d0 0075FF1F 		.word	536835328
 1919 00d4 20200240 		.word	1073881120
 1920 00d8 E075FF1F 		.word	536835552
 1921 00dc 00FC0F00 		.word	1047552
 1922 00e0 00FE0700 		.word	523776
 1923              		.cfi_endproc
 1924              	.LFE373:
 1926              		.section	.text.FLASH_OB_GetPCROP1A,"ax",%progbits
 1927              		.align	1
 1928              		.syntax unified
 1929              		.code	16
 1930              		.thumb_func
 1932              	FLASH_OB_GetPCROP1A:
 1933              	.LFB374:
 955:Drivers/STM32G0xx_HAL_Driver/Src/stm32g0xx_hal_flash_ex.c **** 
 956:Drivers/STM32G0xx_HAL_Driver/Src/stm32g0xx_hal_flash_ex.c **** /**
 957:Drivers/STM32G0xx_HAL_Driver/Src/stm32g0xx_hal_flash_ex.c ****   * @brief  Return the FLASH PCROP Protection Option Bytes value.
 958:Drivers/STM32G0xx_HAL_Driver/Src/stm32g0xx_hal_flash_ex.c ****   * @param  PCROPConfig [out]  specifies the configuration of PCROP_RDP option.
 959:Drivers/STM32G0xx_HAL_Driver/Src/stm32g0xx_hal_flash_ex.c ****   * @param  PCROP1AStartAddr [out]  Specifies the address where to copied the start address
 960:Drivers/STM32G0xx_HAL_Driver/Src/stm32g0xx_hal_flash_ex.c ****   *         of the 1A Proprietary code readout protection
 961:Drivers/STM32G0xx_HAL_Driver/Src/stm32g0xx_hal_flash_ex.c ****   * @param  PCROP1AEndAddr [out]  Specifies the address where to copied the end address of
 962:Drivers/STM32G0xx_HAL_Driver/Src/stm32g0xx_hal_flash_ex.c ****   *         the 1A Proprietary code readout protection
 963:Drivers/STM32G0xx_HAL_Driver/Src/stm32g0xx_hal_flash_ex.c ****   * @retval None
 964:Drivers/STM32G0xx_HAL_Driver/Src/stm32g0xx_hal_flash_ex.c ****   */
 965:Drivers/STM32G0xx_HAL_Driver/Src/stm32g0xx_hal_flash_ex.c **** static void FLASH_OB_GetPCROP1A(uint32_t *PCROPConfig, uint32_t *PCROP1AStartAddr, uint32_t *PCROP1
 966:Drivers/STM32G0xx_HAL_Driver/Src/stm32g0xx_hal_flash_ex.c **** {
 1934              		.loc 1 966 1
 1935              		.cfi_startproc
 1936              		@ args = 0, pretend = 0, frame = 24
 1937              		@ frame_needed = 1, uses_anonymous_args = 0
 1938 0000 80B5     		push	{r7, lr}
 1939              		.cfi_def_cfa_offset 8
 1940              		.cfi_offset 7, -8
 1941              		.cfi_offset 14, -4
 1942 0002 86B0     		sub	sp, sp, #24
ARM GAS  C:\Users\SOLDER~1\AppData\Local\Temp\ccVplH7a.s 			page 52


 1943              		.cfi_def_cfa_offset 32
 1944 0004 00AF     		add	r7, sp, #0
 1945              		.cfi_def_cfa_register 7
 1946 0006 F860     		str	r0, [r7, #12]
 1947 0008 B960     		str	r1, [r7, #8]
 1948 000a 7A60     		str	r2, [r7, #4]
 967:Drivers/STM32G0xx_HAL_Driver/Src/stm32g0xx_hal_flash_ex.c ****   uint32_t pcrop;
 968:Drivers/STM32G0xx_HAL_Driver/Src/stm32g0xx_hal_flash_ex.c ****   uint32_t ropbase;
 969:Drivers/STM32G0xx_HAL_Driver/Src/stm32g0xx_hal_flash_ex.c **** 
 970:Drivers/STM32G0xx_HAL_Driver/Src/stm32g0xx_hal_flash_ex.c **** #if defined(FLASH_DBANK_SUPPORT)
 971:Drivers/STM32G0xx_HAL_Driver/Src/stm32g0xx_hal_flash_ex.c ****   /* Check if banks are swapped (valid if only one bank) */
 972:Drivers/STM32G0xx_HAL_Driver/Src/stm32g0xx_hal_flash_ex.c ****   if (((FLASH->OPTR & FLASH_OPTR_nSWAP_BANK) != FLASH_OPTR_nSWAP_BANK) && (FLASH_BANK_NB == 2U))
 1949              		.loc 1 972 14
 1950 000c 3E4B     		ldr	r3, .L126
 1951 000e 1A6A     		ldr	r2, [r3, #32]
 1952              		.loc 1 972 21
 1953 0010 8023     		movs	r3, #128
 1954 0012 5B03     		lsls	r3, r3, #13
 1955 0014 1A40     		ands	r2, r3
 1956              		.loc 1 972 6
 1957 0016 8023     		movs	r3, #128
 1958 0018 5B03     		lsls	r3, r3, #13
 1959 001a 9A42     		cmp	r2, r3
 1960 001c 3FD0     		beq	.L120
 1961              		.loc 1 972 76 discriminator 1
 1962 001e 3B4B     		ldr	r3, .L126+4
 1963 0020 1A68     		ldr	r2, [r3]
 1964 0022 C023     		movs	r3, #192
 1965 0024 9B04     		lsls	r3, r3, #18
 1966 0026 1340     		ands	r3, r2
 1967              		.loc 1 972 72 discriminator 1
 1968 0028 39D0     		beq	.L120
 1969              		.loc 1 972 76 discriminator 2
 1970 002a 384B     		ldr	r3, .L126+4
 1971 002c 1A68     		ldr	r2, [r3]
 1972 002e C023     		movs	r3, #192
 1973 0030 9B04     		lsls	r3, r3, #18
 1974 0032 1A40     		ands	r2, r3
 1975              		.loc 1 972 90 discriminator 2
 1976 0034 8023     		movs	r3, #128
 1977 0036 5B04     		lsls	r3, r3, #17
 1978 0038 9A42     		cmp	r2, r3
 1979 003a 05D1     		bne	.L121
 1980              		.loc 1 972 76 discriminator 3
 1981 003c 344B     		ldr	r3, .L126+8
 1982 003e 1A68     		ldr	r2, [r3]
 1983 0040 8023     		movs	r3, #128
 1984 0042 9B03     		lsls	r3, r3, #14
 1985 0044 1340     		ands	r3, r2
 1986 0046 2AD0     		beq	.L120
 1987              	.L121:
 973:Drivers/STM32G0xx_HAL_Driver/Src/stm32g0xx_hal_flash_ex.c ****   {
 974:Drivers/STM32G0xx_HAL_Driver/Src/stm32g0xx_hal_flash_ex.c ****     /* Bank swap, bank 1 read only protection is on second half of Flash */
 975:Drivers/STM32G0xx_HAL_Driver/Src/stm32g0xx_hal_flash_ex.c ****     ropbase = (FLASH_BASE + FLASH_BANK_SIZE);
 1988              		.loc 1 975 29
 1989 0048 304B     		ldr	r3, .L126+4
 1990 004a 1A68     		ldr	r2, [r3]
ARM GAS  C:\Users\SOLDER~1\AppData\Local\Temp\ccVplH7a.s 			page 53


 1991 004c C023     		movs	r3, #192
 1992 004e 9B04     		lsls	r3, r3, #18
 1993 0050 1340     		ands	r3, r2
 1994              		.loc 1 975 27
 1995 0052 0ED0     		beq	.L122
 1996              		.loc 1 975 29 discriminator 2
 1997 0054 2D4B     		ldr	r3, .L126+4
 1998 0056 1A68     		ldr	r2, [r3]
 1999 0058 C023     		movs	r3, #192
 2000 005a 9B04     		lsls	r3, r3, #18
 2001 005c 1A40     		ands	r2, r3
 2002 005e 8023     		movs	r3, #128
 2003 0060 5B04     		lsls	r3, r3, #17
 2004 0062 9A42     		cmp	r2, r3
 2005 0064 0FD1     		bne	.L123
 2006              		.loc 1 975 29 is_stmt 0 discriminator 3
 2007 0066 2A4B     		ldr	r3, .L126+8
 2008 0068 1A68     		ldr	r2, [r3]
 2009 006a 8023     		movs	r3, #128
 2010 006c 9B03     		lsls	r3, r3, #14
 2011 006e 1340     		ands	r3, r2
 2012 0070 09D1     		bne	.L123
 2013              	.L122:
 2014              		.loc 1 975 29 discriminator 5
 2015 0072 284B     		ldr	r3, .L126+12
 2016 0074 1B68     		ldr	r3, [r3]
 2017 0076 9B02     		lsls	r3, r3, #10
 2018 0078 274A     		ldr	r2, .L126+16
 2019 007a 1340     		ands	r3, r2
 2020              		.loc 1 975 27 is_stmt 1 discriminator 5
 2021 007c 8022     		movs	r2, #128
 2022 007e 1205     		lsls	r2, r2, #20
 2023 0080 9446     		mov	ip, r2
 2024 0082 6344     		add	r3, r3, ip
 2025 0084 09E0     		b	.L124
 2026              	.L123:
 2027              		.loc 1 975 29 discriminator 6
 2028 0086 234B     		ldr	r3, .L126+12
 2029 0088 1B68     		ldr	r3, [r3]
 2030 008a 9B02     		lsls	r3, r3, #10
 2031 008c 5B08     		lsrs	r3, r3, #1
 2032 008e 234A     		ldr	r2, .L126+20
 2033 0090 1340     		ands	r3, r2
 2034              		.loc 1 975 27 discriminator 6
 2035 0092 8022     		movs	r2, #128
 2036 0094 1205     		lsls	r2, r2, #20
 2037 0096 9446     		mov	ip, r2
 2038 0098 6344     		add	r3, r3, ip
 2039              	.L124:
 2040              		.loc 1 975 13 discriminator 8
 2041 009a 7B61     		str	r3, [r7, #20]
 2042 009c 02E0     		b	.L125
 2043              	.L120:
 976:Drivers/STM32G0xx_HAL_Driver/Src/stm32g0xx_hal_flash_ex.c ****   }
 977:Drivers/STM32G0xx_HAL_Driver/Src/stm32g0xx_hal_flash_ex.c ****   else
 978:Drivers/STM32G0xx_HAL_Driver/Src/stm32g0xx_hal_flash_ex.c **** #endif /* FLASH_DBANK_SUPPORT */
 979:Drivers/STM32G0xx_HAL_Driver/Src/stm32g0xx_hal_flash_ex.c ****   {
ARM GAS  C:\Users\SOLDER~1\AppData\Local\Temp\ccVplH7a.s 			page 54


 980:Drivers/STM32G0xx_HAL_Driver/Src/stm32g0xx_hal_flash_ex.c ****     /* No Bank swap, bank 1 read only protection is on first half of Flash */
 981:Drivers/STM32G0xx_HAL_Driver/Src/stm32g0xx_hal_flash_ex.c ****     ropbase = FLASH_BASE;
 2044              		.loc 1 981 13
 2045 009e 8023     		movs	r3, #128
 2046 00a0 1B05     		lsls	r3, r3, #20
 2047 00a2 7B61     		str	r3, [r7, #20]
 2048              	.L125:
 982:Drivers/STM32G0xx_HAL_Driver/Src/stm32g0xx_hal_flash_ex.c ****   }
 983:Drivers/STM32G0xx_HAL_Driver/Src/stm32g0xx_hal_flash_ex.c **** 
 984:Drivers/STM32G0xx_HAL_Driver/Src/stm32g0xx_hal_flash_ex.c ****   pcrop = (FLASH->PCROP1ASR & FLASH_PCROP1ASR_PCROP1A_STRT);
 2049              		.loc 1 984 17
 2050 00a4 184B     		ldr	r3, .L126
 2051 00a6 5B6A     		ldr	r3, [r3, #36]
 2052              		.loc 1 984 9
 2053 00a8 DB05     		lsls	r3, r3, #23
 2054 00aa DB0D     		lsrs	r3, r3, #23
 2055 00ac 3B61     		str	r3, [r7, #16]
 985:Drivers/STM32G0xx_HAL_Driver/Src/stm32g0xx_hal_flash_ex.c ****   *PCROP1AStartAddr = (pcrop << FLASH_PCROP_GRANULARITY_OFFSET);
 2056              		.loc 1 985 30
 2057 00ae 3B69     		ldr	r3, [r7, #16]
 2058 00b0 5A02     		lsls	r2, r3, #9
 2059              		.loc 1 985 21
 2060 00b2 BB68     		ldr	r3, [r7, #8]
 2061 00b4 1A60     		str	r2, [r3]
 986:Drivers/STM32G0xx_HAL_Driver/Src/stm32g0xx_hal_flash_ex.c ****   *PCROP1AStartAddr += ropbase;
 2062              		.loc 1 986 21
 2063 00b6 BB68     		ldr	r3, [r7, #8]
 2064 00b8 1A68     		ldr	r2, [r3]
 2065 00ba 7B69     		ldr	r3, [r7, #20]
 2066 00bc D218     		adds	r2, r2, r3
 2067 00be BB68     		ldr	r3, [r7, #8]
 2068 00c0 1A60     		str	r2, [r3]
 987:Drivers/STM32G0xx_HAL_Driver/Src/stm32g0xx_hal_flash_ex.c **** 
 988:Drivers/STM32G0xx_HAL_Driver/Src/stm32g0xx_hal_flash_ex.c ****   pcrop = FLASH->PCROP1AER;
 2069              		.loc 1 988 16
 2070 00c2 114B     		ldr	r3, .L126
 2071              		.loc 1 988 9
 2072 00c4 9B6A     		ldr	r3, [r3, #40]
 2073 00c6 3B61     		str	r3, [r7, #16]
 989:Drivers/STM32G0xx_HAL_Driver/Src/stm32g0xx_hal_flash_ex.c ****   *PCROP1AEndAddr = ((pcrop & FLASH_PCROP1AER_PCROP1A_END) << FLASH_PCROP_GRANULARITY_OFFSET);
 2074              		.loc 1 989 60
 2075 00c8 3B69     		ldr	r3, [r7, #16]
 2076 00ca 5B02     		lsls	r3, r3, #9
 2077 00cc 144A     		ldr	r2, .L126+24
 2078 00ce 1A40     		ands	r2, r3
 2079              		.loc 1 989 19
 2080 00d0 7B68     		ldr	r3, [r7, #4]
 2081 00d2 1A60     		str	r2, [r3]
 990:Drivers/STM32G0xx_HAL_Driver/Src/stm32g0xx_hal_flash_ex.c ****   *PCROP1AEndAddr += (ropbase + FLASH_PCROP_GRANULARITY - 1U);
 2082              		.loc 1 990 19
 2083 00d4 7B68     		ldr	r3, [r7, #4]
 2084 00d6 1A68     		ldr	r2, [r3]
 2085 00d8 7B69     		ldr	r3, [r7, #20]
 2086 00da D318     		adds	r3, r2, r3
 2087 00dc 114A     		ldr	r2, .L126+28
 2088 00de 9A18     		adds	r2, r3, r2
 2089 00e0 7B68     		ldr	r3, [r7, #4]
ARM GAS  C:\Users\SOLDER~1\AppData\Local\Temp\ccVplH7a.s 			page 55


 2090 00e2 1A60     		str	r2, [r3]
 991:Drivers/STM32G0xx_HAL_Driver/Src/stm32g0xx_hal_flash_ex.c **** 
 992:Drivers/STM32G0xx_HAL_Driver/Src/stm32g0xx_hal_flash_ex.c ****   *PCROPConfig &= ~OB_PCROP_RDP_ERASE;
 2091              		.loc 1 992 16
 2092 00e4 FB68     		ldr	r3, [r7, #12]
 2093 00e6 1B68     		ldr	r3, [r3]
 2094 00e8 5B00     		lsls	r3, r3, #1
 2095 00ea 5A08     		lsrs	r2, r3, #1
 2096 00ec FB68     		ldr	r3, [r7, #12]
 2097 00ee 1A60     		str	r2, [r3]
 993:Drivers/STM32G0xx_HAL_Driver/Src/stm32g0xx_hal_flash_ex.c ****   *PCROPConfig |= (pcrop & FLASH_PCROP1AER_PCROP_RDP);
 2098              		.loc 1 993 16
 2099 00f0 FB68     		ldr	r3, [r7, #12]
 2100 00f2 1A68     		ldr	r2, [r3]
 2101              		.loc 1 993 26
 2102 00f4 3B69     		ldr	r3, [r7, #16]
 2103 00f6 DB0F     		lsrs	r3, r3, #31
 2104 00f8 DB07     		lsls	r3, r3, #31
 2105              		.loc 1 993 16
 2106 00fa 1A43     		orrs	r2, r3
 2107 00fc FB68     		ldr	r3, [r7, #12]
 2108 00fe 1A60     		str	r2, [r3]
 994:Drivers/STM32G0xx_HAL_Driver/Src/stm32g0xx_hal_flash_ex.c **** }
 2109              		.loc 1 994 1
 2110 0100 C046     		nop
 2111 0102 BD46     		mov	sp, r7
 2112 0104 06B0     		add	sp, sp, #24
 2113              		@ sp needed
 2114 0106 80BD     		pop	{r7, pc}
 2115              	.L127:
 2116              		.align	2
 2117              	.L126:
 2118 0108 00200240 		.word	1073881088
 2119 010c 0075FF1F 		.word	536835328
 2120 0110 20200240 		.word	1073881120
 2121 0114 E075FF1F 		.word	536835552
 2122 0118 00FC0F00 		.word	1047552
 2123 011c 00FE0700 		.word	523776
 2124 0120 00FE0300 		.word	261632
 2125 0124 FF010000 		.word	511
 2126              		.cfi_endproc
 2127              	.LFE374:
 2129              		.section	.text.FLASH_OB_GetPCROP1B,"ax",%progbits
 2130              		.align	1
 2131              		.syntax unified
 2132              		.code	16
 2133              		.thumb_func
 2135              	FLASH_OB_GetPCROP1B:
 2136              	.LFB375:
 995:Drivers/STM32G0xx_HAL_Driver/Src/stm32g0xx_hal_flash_ex.c **** 
 996:Drivers/STM32G0xx_HAL_Driver/Src/stm32g0xx_hal_flash_ex.c **** /**
 997:Drivers/STM32G0xx_HAL_Driver/Src/stm32g0xx_hal_flash_ex.c ****   * @brief  Return the FLASH PCROP Protection Option Bytes value.
 998:Drivers/STM32G0xx_HAL_Driver/Src/stm32g0xx_hal_flash_ex.c ****   * @param  PCROP1BStartAddr [out]  Specifies the address where to copied the start address
 999:Drivers/STM32G0xx_HAL_Driver/Src/stm32g0xx_hal_flash_ex.c ****   *         of the 1B Proprietary code readout protection
1000:Drivers/STM32G0xx_HAL_Driver/Src/stm32g0xx_hal_flash_ex.c ****   * @param  PCROP1BEndAddr [out]  Specifies the address where to copied the end address of
1001:Drivers/STM32G0xx_HAL_Driver/Src/stm32g0xx_hal_flash_ex.c ****   *         the 1B Proprietary code readout protection
1002:Drivers/STM32G0xx_HAL_Driver/Src/stm32g0xx_hal_flash_ex.c ****   * @retval None
ARM GAS  C:\Users\SOLDER~1\AppData\Local\Temp\ccVplH7a.s 			page 56


1003:Drivers/STM32G0xx_HAL_Driver/Src/stm32g0xx_hal_flash_ex.c ****   */
1004:Drivers/STM32G0xx_HAL_Driver/Src/stm32g0xx_hal_flash_ex.c **** static void FLASH_OB_GetPCROP1B(uint32_t *PCROP1BStartAddr, uint32_t *PCROP1BEndAddr)
1005:Drivers/STM32G0xx_HAL_Driver/Src/stm32g0xx_hal_flash_ex.c **** {
 2137              		.loc 1 1005 1
 2138              		.cfi_startproc
 2139              		@ args = 0, pretend = 0, frame = 16
 2140              		@ frame_needed = 1, uses_anonymous_args = 0
 2141 0000 80B5     		push	{r7, lr}
 2142              		.cfi_def_cfa_offset 8
 2143              		.cfi_offset 7, -8
 2144              		.cfi_offset 14, -4
 2145 0002 84B0     		sub	sp, sp, #16
 2146              		.cfi_def_cfa_offset 24
 2147 0004 00AF     		add	r7, sp, #0
 2148              		.cfi_def_cfa_register 7
 2149 0006 7860     		str	r0, [r7, #4]
 2150 0008 3960     		str	r1, [r7]
1006:Drivers/STM32G0xx_HAL_Driver/Src/stm32g0xx_hal_flash_ex.c ****   uint32_t pcrop;
1007:Drivers/STM32G0xx_HAL_Driver/Src/stm32g0xx_hal_flash_ex.c ****   uint32_t ropbase;
1008:Drivers/STM32G0xx_HAL_Driver/Src/stm32g0xx_hal_flash_ex.c **** 
1009:Drivers/STM32G0xx_HAL_Driver/Src/stm32g0xx_hal_flash_ex.c **** #if defined(FLASH_DBANK_SUPPORT)
1010:Drivers/STM32G0xx_HAL_Driver/Src/stm32g0xx_hal_flash_ex.c ****   /* Check if banks are swapped (valid if only one bank) */
1011:Drivers/STM32G0xx_HAL_Driver/Src/stm32g0xx_hal_flash_ex.c ****   if (((FLASH->OPTR & FLASH_OPTR_nSWAP_BANK) != FLASH_OPTR_nSWAP_BANK) && (FLASH_BANK_NB == 2U))
 2151              		.loc 1 1011 14
 2152 000a 384B     		ldr	r3, .L135
 2153 000c 1A6A     		ldr	r2, [r3, #32]
 2154              		.loc 1 1011 21
 2155 000e 8023     		movs	r3, #128
 2156 0010 5B03     		lsls	r3, r3, #13
 2157 0012 1A40     		ands	r2, r3
 2158              		.loc 1 1011 6
 2159 0014 8023     		movs	r3, #128
 2160 0016 5B03     		lsls	r3, r3, #13
 2161 0018 9A42     		cmp	r2, r3
 2162 001a 3FD0     		beq	.L129
 2163              		.loc 1 1011 76 discriminator 1
 2164 001c 344B     		ldr	r3, .L135+4
 2165 001e 1A68     		ldr	r2, [r3]
 2166 0020 C023     		movs	r3, #192
 2167 0022 9B04     		lsls	r3, r3, #18
 2168 0024 1340     		ands	r3, r2
 2169              		.loc 1 1011 72 discriminator 1
 2170 0026 39D0     		beq	.L129
 2171              		.loc 1 1011 76 discriminator 2
 2172 0028 314B     		ldr	r3, .L135+4
 2173 002a 1A68     		ldr	r2, [r3]
 2174 002c C023     		movs	r3, #192
 2175 002e 9B04     		lsls	r3, r3, #18
 2176 0030 1A40     		ands	r2, r3
 2177              		.loc 1 1011 90 discriminator 2
 2178 0032 8023     		movs	r3, #128
 2179 0034 5B04     		lsls	r3, r3, #17
 2180 0036 9A42     		cmp	r2, r3
 2181 0038 05D1     		bne	.L130
 2182              		.loc 1 1011 76 discriminator 3
 2183 003a 2E4B     		ldr	r3, .L135+8
 2184 003c 1A68     		ldr	r2, [r3]
ARM GAS  C:\Users\SOLDER~1\AppData\Local\Temp\ccVplH7a.s 			page 57


 2185 003e 8023     		movs	r3, #128
 2186 0040 9B03     		lsls	r3, r3, #14
 2187 0042 1340     		ands	r3, r2
 2188 0044 2AD0     		beq	.L129
 2189              	.L130:
1012:Drivers/STM32G0xx_HAL_Driver/Src/stm32g0xx_hal_flash_ex.c ****   {
1013:Drivers/STM32G0xx_HAL_Driver/Src/stm32g0xx_hal_flash_ex.c ****     /* Bank swap, bank 1 read only protection is on second half of Flash */
1014:Drivers/STM32G0xx_HAL_Driver/Src/stm32g0xx_hal_flash_ex.c ****     ropbase = (FLASH_BASE + FLASH_BANK_SIZE);
 2190              		.loc 1 1014 29
 2191 0046 2A4B     		ldr	r3, .L135+4
 2192 0048 1A68     		ldr	r2, [r3]
 2193 004a C023     		movs	r3, #192
 2194 004c 9B04     		lsls	r3, r3, #18
 2195 004e 1340     		ands	r3, r2
 2196              		.loc 1 1014 27
 2197 0050 0ED0     		beq	.L131
 2198              		.loc 1 1014 29 discriminator 2
 2199 0052 274B     		ldr	r3, .L135+4
 2200 0054 1A68     		ldr	r2, [r3]
 2201 0056 C023     		movs	r3, #192
 2202 0058 9B04     		lsls	r3, r3, #18
 2203 005a 1A40     		ands	r2, r3
 2204 005c 8023     		movs	r3, #128
 2205 005e 5B04     		lsls	r3, r3, #17
 2206 0060 9A42     		cmp	r2, r3
 2207 0062 0FD1     		bne	.L132
 2208              		.loc 1 1014 29 is_stmt 0 discriminator 3
 2209 0064 234B     		ldr	r3, .L135+8
 2210 0066 1A68     		ldr	r2, [r3]
 2211 0068 8023     		movs	r3, #128
 2212 006a 9B03     		lsls	r3, r3, #14
 2213 006c 1340     		ands	r3, r2
 2214 006e 09D1     		bne	.L132
 2215              	.L131:
 2216              		.loc 1 1014 29 discriminator 5
 2217 0070 214B     		ldr	r3, .L135+12
 2218 0072 1B68     		ldr	r3, [r3]
 2219 0074 9B02     		lsls	r3, r3, #10
 2220 0076 214A     		ldr	r2, .L135+16
 2221 0078 1340     		ands	r3, r2
 2222              		.loc 1 1014 27 is_stmt 1 discriminator 5
 2223 007a 8022     		movs	r2, #128
 2224 007c 1205     		lsls	r2, r2, #20
 2225 007e 9446     		mov	ip, r2
 2226 0080 6344     		add	r3, r3, ip
 2227 0082 09E0     		b	.L133
 2228              	.L132:
 2229              		.loc 1 1014 29 discriminator 6
 2230 0084 1C4B     		ldr	r3, .L135+12
 2231 0086 1B68     		ldr	r3, [r3]
 2232 0088 9B02     		lsls	r3, r3, #10
 2233 008a 5B08     		lsrs	r3, r3, #1
 2234 008c 1C4A     		ldr	r2, .L135+20
 2235 008e 1340     		ands	r3, r2
 2236              		.loc 1 1014 27 discriminator 6
 2237 0090 8022     		movs	r2, #128
 2238 0092 1205     		lsls	r2, r2, #20
ARM GAS  C:\Users\SOLDER~1\AppData\Local\Temp\ccVplH7a.s 			page 58


 2239 0094 9446     		mov	ip, r2
 2240 0096 6344     		add	r3, r3, ip
 2241              	.L133:
 2242              		.loc 1 1014 13 discriminator 8
 2243 0098 FB60     		str	r3, [r7, #12]
 2244 009a 02E0     		b	.L134
 2245              	.L129:
1015:Drivers/STM32G0xx_HAL_Driver/Src/stm32g0xx_hal_flash_ex.c ****   }
1016:Drivers/STM32G0xx_HAL_Driver/Src/stm32g0xx_hal_flash_ex.c ****   else
1017:Drivers/STM32G0xx_HAL_Driver/Src/stm32g0xx_hal_flash_ex.c **** #endif /* FLASH_DBANK_SUPPORT */
1018:Drivers/STM32G0xx_HAL_Driver/Src/stm32g0xx_hal_flash_ex.c ****   {
1019:Drivers/STM32G0xx_HAL_Driver/Src/stm32g0xx_hal_flash_ex.c ****     /* No Bank swap, bank 1 read only protection is on first half of Flash */
1020:Drivers/STM32G0xx_HAL_Driver/Src/stm32g0xx_hal_flash_ex.c ****     ropbase = FLASH_BASE;
 2246              		.loc 1 1020 13
 2247 009c 8023     		movs	r3, #128
 2248 009e 1B05     		lsls	r3, r3, #20
 2249 00a0 FB60     		str	r3, [r7, #12]
 2250              	.L134:
1021:Drivers/STM32G0xx_HAL_Driver/Src/stm32g0xx_hal_flash_ex.c ****   }
1022:Drivers/STM32G0xx_HAL_Driver/Src/stm32g0xx_hal_flash_ex.c **** 
1023:Drivers/STM32G0xx_HAL_Driver/Src/stm32g0xx_hal_flash_ex.c ****   pcrop = (FLASH->PCROP1BSR & FLASH_PCROP1BSR_PCROP1B_STRT);
 2251              		.loc 1 1023 17
 2252 00a2 124B     		ldr	r3, .L135
 2253 00a4 5B6B     		ldr	r3, [r3, #52]
 2254              		.loc 1 1023 9
 2255 00a6 DB05     		lsls	r3, r3, #23
 2256 00a8 DB0D     		lsrs	r3, r3, #23
 2257 00aa BB60     		str	r3, [r7, #8]
1024:Drivers/STM32G0xx_HAL_Driver/Src/stm32g0xx_hal_flash_ex.c ****   *PCROP1BStartAddr = (pcrop << FLASH_PCROP_GRANULARITY_OFFSET);
 2258              		.loc 1 1024 30
 2259 00ac BB68     		ldr	r3, [r7, #8]
 2260 00ae 5A02     		lsls	r2, r3, #9
 2261              		.loc 1 1024 21
 2262 00b0 7B68     		ldr	r3, [r7, #4]
 2263 00b2 1A60     		str	r2, [r3]
1025:Drivers/STM32G0xx_HAL_Driver/Src/stm32g0xx_hal_flash_ex.c ****   *PCROP1BStartAddr += ropbase;
 2264              		.loc 1 1025 21
 2265 00b4 7B68     		ldr	r3, [r7, #4]
 2266 00b6 1A68     		ldr	r2, [r3]
 2267 00b8 FB68     		ldr	r3, [r7, #12]
 2268 00ba D218     		adds	r2, r2, r3
 2269 00bc 7B68     		ldr	r3, [r7, #4]
 2270 00be 1A60     		str	r2, [r3]
1026:Drivers/STM32G0xx_HAL_Driver/Src/stm32g0xx_hal_flash_ex.c **** 
1027:Drivers/STM32G0xx_HAL_Driver/Src/stm32g0xx_hal_flash_ex.c ****   pcrop = (FLASH->PCROP1BER & FLASH_PCROP1BER_PCROP1B_END);
 2271              		.loc 1 1027 17
 2272 00c0 0A4B     		ldr	r3, .L135
 2273 00c2 9B6B     		ldr	r3, [r3, #56]
 2274              		.loc 1 1027 9
 2275 00c4 DB05     		lsls	r3, r3, #23
 2276 00c6 DB0D     		lsrs	r3, r3, #23
 2277 00c8 BB60     		str	r3, [r7, #8]
1028:Drivers/STM32G0xx_HAL_Driver/Src/stm32g0xx_hal_flash_ex.c ****   *PCROP1BEndAddr = (pcrop << FLASH_PCROP_GRANULARITY_OFFSET);
 2278              		.loc 1 1028 28
 2279 00ca BB68     		ldr	r3, [r7, #8]
 2280 00cc 5A02     		lsls	r2, r3, #9
 2281              		.loc 1 1028 19
ARM GAS  C:\Users\SOLDER~1\AppData\Local\Temp\ccVplH7a.s 			page 59


 2282 00ce 3B68     		ldr	r3, [r7]
 2283 00d0 1A60     		str	r2, [r3]
1029:Drivers/STM32G0xx_HAL_Driver/Src/stm32g0xx_hal_flash_ex.c ****   *PCROP1BEndAddr += (ropbase + FLASH_PCROP_GRANULARITY - 1U);
 2284              		.loc 1 1029 19
 2285 00d2 3B68     		ldr	r3, [r7]
 2286 00d4 1A68     		ldr	r2, [r3]
 2287 00d6 FB68     		ldr	r3, [r7, #12]
 2288 00d8 D318     		adds	r3, r2, r3
 2289 00da 0A4A     		ldr	r2, .L135+24
 2290 00dc 9A18     		adds	r2, r3, r2
 2291 00de 3B68     		ldr	r3, [r7]
 2292 00e0 1A60     		str	r2, [r3]
1030:Drivers/STM32G0xx_HAL_Driver/Src/stm32g0xx_hal_flash_ex.c **** }
 2293              		.loc 1 1030 1
 2294 00e2 C046     		nop
 2295 00e4 BD46     		mov	sp, r7
 2296 00e6 04B0     		add	sp, sp, #16
 2297              		@ sp needed
 2298 00e8 80BD     		pop	{r7, pc}
 2299              	.L136:
 2300 00ea C046     		.align	2
 2301              	.L135:
 2302 00ec 00200240 		.word	1073881088
 2303 00f0 0075FF1F 		.word	536835328
 2304 00f4 20200240 		.word	1073881120
 2305 00f8 E075FF1F 		.word	536835552
 2306 00fc 00FC0F00 		.word	1047552
 2307 0100 00FE0700 		.word	523776
 2308 0104 FF010000 		.word	511
 2309              		.cfi_endproc
 2310              	.LFE375:
 2312              		.section	.text.FLASH_OB_PCROP2AConfig,"ax",%progbits
 2313              		.align	1
 2314              		.syntax unified
 2315              		.code	16
 2316              		.thumb_func
 2318              	FLASH_OB_PCROP2AConfig:
 2319              	.LFB376:
1031:Drivers/STM32G0xx_HAL_Driver/Src/stm32g0xx_hal_flash_ex.c **** 
1032:Drivers/STM32G0xx_HAL_Driver/Src/stm32g0xx_hal_flash_ex.c **** #if defined(FLASH_DBANK_SUPPORT)
1033:Drivers/STM32G0xx_HAL_Driver/Src/stm32g0xx_hal_flash_ex.c **** /**
1034:Drivers/STM32G0xx_HAL_Driver/Src/stm32g0xx_hal_flash_ex.c ****   * @brief  Configure the 2A Proprietary code readout protection.
1035:Drivers/STM32G0xx_HAL_Driver/Src/stm32g0xx_hal_flash_ex.c ****   * @note   It is recommended to align PCROP zone with page granularity when using PCROP_RDP or avo
1036:Drivers/STM32G0xx_HAL_Driver/Src/stm32g0xx_hal_flash_ex.c ****   *         having some executable code in a page where PCROP zone starts or ends.
1037:Drivers/STM32G0xx_HAL_Driver/Src/stm32g0xx_hal_flash_ex.c ****   * @note   Minimum PCROP area size is 2 times the chosen granularity: PCROPA_STRT and PCROPA_END.
1038:Drivers/STM32G0xx_HAL_Driver/Src/stm32g0xx_hal_flash_ex.c ****   *         So if the requirement is to be able to read-protect 1KB areas, the ROP granularity
1039:Drivers/STM32G0xx_HAL_Driver/Src/stm32g0xx_hal_flash_ex.c ****   *         has to be set to 512 Bytes
1040:Drivers/STM32G0xx_HAL_Driver/Src/stm32g0xx_hal_flash_ex.c ****   * @param  PCROP2AStartAddr  Specifies the Zone 2A Start address of the Proprietary code readout p
1041:Drivers/STM32G0xx_HAL_Driver/Src/stm32g0xx_hal_flash_ex.c ****   *         This parameter can be an address between begin and end of the flash
1042:Drivers/STM32G0xx_HAL_Driver/Src/stm32g0xx_hal_flash_ex.c ****   * @param  PCROP2AEndAddr  Specifies the Zone 2A end address of the Proprietary code readout prote
1043:Drivers/STM32G0xx_HAL_Driver/Src/stm32g0xx_hal_flash_ex.c ****   *         This parameter can be an address between PCROP2AStartAddr and end of the flash
1044:Drivers/STM32G0xx_HAL_Driver/Src/stm32g0xx_hal_flash_ex.c ****   * @retval None
1045:Drivers/STM32G0xx_HAL_Driver/Src/stm32g0xx_hal_flash_ex.c ****   */
1046:Drivers/STM32G0xx_HAL_Driver/Src/stm32g0xx_hal_flash_ex.c **** static void FLASH_OB_PCROP2AConfig(uint32_t PCROP2AStartAddr, uint32_t PCROP2AEndAddr)
1047:Drivers/STM32G0xx_HAL_Driver/Src/stm32g0xx_hal_flash_ex.c **** {
 2320              		.loc 1 1047 1
 2321              		.cfi_startproc
ARM GAS  C:\Users\SOLDER~1\AppData\Local\Temp\ccVplH7a.s 			page 60


 2322              		@ args = 0, pretend = 0, frame = 24
 2323              		@ frame_needed = 1, uses_anonymous_args = 0
 2324 0000 80B5     		push	{r7, lr}
 2325              		.cfi_def_cfa_offset 8
 2326              		.cfi_offset 7, -8
 2327              		.cfi_offset 14, -4
 2328 0002 86B0     		sub	sp, sp, #24
 2329              		.cfi_def_cfa_offset 32
 2330 0004 00AF     		add	r7, sp, #0
 2331              		.cfi_def_cfa_register 7
 2332 0006 7860     		str	r0, [r7, #4]
 2333 0008 3960     		str	r1, [r7]
1048:Drivers/STM32G0xx_HAL_Driver/Src/stm32g0xx_hal_flash_ex.c ****   uint32_t startoffset;
1049:Drivers/STM32G0xx_HAL_Driver/Src/stm32g0xx_hal_flash_ex.c ****   uint32_t endoffset;
1050:Drivers/STM32G0xx_HAL_Driver/Src/stm32g0xx_hal_flash_ex.c ****   uint32_t ropbase;
1051:Drivers/STM32G0xx_HAL_Driver/Src/stm32g0xx_hal_flash_ex.c **** 
1052:Drivers/STM32G0xx_HAL_Driver/Src/stm32g0xx_hal_flash_ex.c ****   /* Check if banks are swapped */
1053:Drivers/STM32G0xx_HAL_Driver/Src/stm32g0xx_hal_flash_ex.c ****   if ((FLASH->OPTR & FLASH_OPTR_nSWAP_BANK) != 0x00u)
 2334              		.loc 1 1053 13
 2335 000a 244B     		ldr	r3, .L143
 2336 000c 1A6A     		ldr	r2, [r3, #32]
 2337              		.loc 1 1053 20
 2338 000e 8023     		movs	r3, #128
 2339 0010 5B03     		lsls	r3, r3, #13
 2340 0012 1340     		ands	r3, r2
 2341              		.loc 1 1053 6
 2342 0014 2AD0     		beq	.L138
1054:Drivers/STM32G0xx_HAL_Driver/Src/stm32g0xx_hal_flash_ex.c ****   {
1055:Drivers/STM32G0xx_HAL_Driver/Src/stm32g0xx_hal_flash_ex.c ****     /* Check the parameters */
1056:Drivers/STM32G0xx_HAL_Driver/Src/stm32g0xx_hal_flash_ex.c ****     assert_param(IS_FLASH_MAIN_SECONDHALF_MEM_ADDRESS(PCROP2AStartAddr));
1057:Drivers/STM32G0xx_HAL_Driver/Src/stm32g0xx_hal_flash_ex.c ****     assert_param(IS_FLASH_MAIN_SECONDHALF_MEM_ADDRESS(PCROP2AEndAddr));
1058:Drivers/STM32G0xx_HAL_Driver/Src/stm32g0xx_hal_flash_ex.c **** 
1059:Drivers/STM32G0xx_HAL_Driver/Src/stm32g0xx_hal_flash_ex.c ****     /* No Bank swap, bank 2 read only protection is on second half of Flash */
1060:Drivers/STM32G0xx_HAL_Driver/Src/stm32g0xx_hal_flash_ex.c ****     ropbase = (FLASH_BASE + FLASH_BANK_SIZE);
 2343              		.loc 1 1060 29
 2344 0016 224B     		ldr	r3, .L143+4
 2345 0018 1A68     		ldr	r2, [r3]
 2346 001a C023     		movs	r3, #192
 2347 001c 9B04     		lsls	r3, r3, #18
 2348 001e 1340     		ands	r3, r2
 2349              		.loc 1 1060 27
 2350 0020 0ED0     		beq	.L139
 2351              		.loc 1 1060 29 discriminator 2
 2352 0022 1F4B     		ldr	r3, .L143+4
 2353 0024 1A68     		ldr	r2, [r3]
 2354 0026 C023     		movs	r3, #192
 2355 0028 9B04     		lsls	r3, r3, #18
 2356 002a 1A40     		ands	r2, r3
 2357 002c 8023     		movs	r3, #128
 2358 002e 5B04     		lsls	r3, r3, #17
 2359 0030 9A42     		cmp	r2, r3
 2360 0032 0FD1     		bne	.L140
 2361              		.loc 1 1060 29 is_stmt 0 discriminator 3
 2362 0034 1B4B     		ldr	r3, .L143+8
 2363 0036 1A68     		ldr	r2, [r3]
 2364 0038 8023     		movs	r3, #128
 2365 003a 9B03     		lsls	r3, r3, #14
ARM GAS  C:\Users\SOLDER~1\AppData\Local\Temp\ccVplH7a.s 			page 61


 2366 003c 1340     		ands	r3, r2
 2367 003e 09D1     		bne	.L140
 2368              	.L139:
 2369              		.loc 1 1060 29 discriminator 5
 2370 0040 194B     		ldr	r3, .L143+12
 2371 0042 1B68     		ldr	r3, [r3]
 2372 0044 9B02     		lsls	r3, r3, #10
 2373 0046 194A     		ldr	r2, .L143+16
 2374 0048 1340     		ands	r3, r2
 2375              		.loc 1 1060 27 is_stmt 1 discriminator 5
 2376 004a 8022     		movs	r2, #128
 2377 004c 1205     		lsls	r2, r2, #20
 2378 004e 9446     		mov	ip, r2
 2379 0050 6344     		add	r3, r3, ip
 2380 0052 09E0     		b	.L141
 2381              	.L140:
 2382              		.loc 1 1060 29 discriminator 6
 2383 0054 144B     		ldr	r3, .L143+12
 2384 0056 1B68     		ldr	r3, [r3]
 2385 0058 9B02     		lsls	r3, r3, #10
 2386 005a 5B08     		lsrs	r3, r3, #1
 2387 005c 144A     		ldr	r2, .L143+20
 2388 005e 1340     		ands	r3, r2
 2389              		.loc 1 1060 27 discriminator 6
 2390 0060 8022     		movs	r2, #128
 2391 0062 1205     		lsls	r2, r2, #20
 2392 0064 9446     		mov	ip, r2
 2393 0066 6344     		add	r3, r3, ip
 2394              	.L141:
 2395              		.loc 1 1060 13 discriminator 8
 2396 0068 7B61     		str	r3, [r7, #20]
 2397 006a 02E0     		b	.L142
 2398              	.L138:
1061:Drivers/STM32G0xx_HAL_Driver/Src/stm32g0xx_hal_flash_ex.c ****   }
1062:Drivers/STM32G0xx_HAL_Driver/Src/stm32g0xx_hal_flash_ex.c ****   else
1063:Drivers/STM32G0xx_HAL_Driver/Src/stm32g0xx_hal_flash_ex.c ****   {
1064:Drivers/STM32G0xx_HAL_Driver/Src/stm32g0xx_hal_flash_ex.c ****     /* Check the parameters */
1065:Drivers/STM32G0xx_HAL_Driver/Src/stm32g0xx_hal_flash_ex.c ****     assert_param(IS_FLASH_MAIN_FIRSTHALF_MEM_ADDRESS(PCROP2AStartAddr));
1066:Drivers/STM32G0xx_HAL_Driver/Src/stm32g0xx_hal_flash_ex.c ****     assert_param(IS_FLASH_MAIN_FIRSTHALF_MEM_ADDRESS(PCROP2AEndAddr));
1067:Drivers/STM32G0xx_HAL_Driver/Src/stm32g0xx_hal_flash_ex.c **** 
1068:Drivers/STM32G0xx_HAL_Driver/Src/stm32g0xx_hal_flash_ex.c ****     /* Bank swap, bank 2 read only protection is on first half of Flash */
1069:Drivers/STM32G0xx_HAL_Driver/Src/stm32g0xx_hal_flash_ex.c ****     ropbase = FLASH_BASE;
 2399              		.loc 1 1069 13
 2400 006c 8023     		movs	r3, #128
 2401 006e 1B05     		lsls	r3, r3, #20
 2402 0070 7B61     		str	r3, [r7, #20]
 2403              	.L142:
1070:Drivers/STM32G0xx_HAL_Driver/Src/stm32g0xx_hal_flash_ex.c ****   }
1071:Drivers/STM32G0xx_HAL_Driver/Src/stm32g0xx_hal_flash_ex.c **** 
1072:Drivers/STM32G0xx_HAL_Driver/Src/stm32g0xx_hal_flash_ex.c ****   /* Configure the Proprietary code readout protection offset */
1073:Drivers/STM32G0xx_HAL_Driver/Src/stm32g0xx_hal_flash_ex.c ****   startoffset = ((PCROP2AStartAddr - ropbase) >> FLASH_PCROP_GRANULARITY_OFFSET);
 2404              		.loc 1 1073 36
 2405 0072 7A68     		ldr	r2, [r7, #4]
 2406 0074 7B69     		ldr	r3, [r7, #20]
 2407 0076 D31A     		subs	r3, r2, r3
 2408              		.loc 1 1073 15
 2409 0078 5B0A     		lsrs	r3, r3, #9
ARM GAS  C:\Users\SOLDER~1\AppData\Local\Temp\ccVplH7a.s 			page 62


 2410 007a 3B61     		str	r3, [r7, #16]
1074:Drivers/STM32G0xx_HAL_Driver/Src/stm32g0xx_hal_flash_ex.c ****   endoffset = ((PCROP2AEndAddr - ropbase) >> FLASH_PCROP_GRANULARITY_OFFSET);
 2411              		.loc 1 1074 32
 2412 007c 3A68     		ldr	r2, [r7]
 2413 007e 7B69     		ldr	r3, [r7, #20]
 2414 0080 D31A     		subs	r3, r2, r3
 2415              		.loc 1 1074 13
 2416 0082 5B0A     		lsrs	r3, r3, #9
 2417 0084 FB60     		str	r3, [r7, #12]
1075:Drivers/STM32G0xx_HAL_Driver/Src/stm32g0xx_hal_flash_ex.c **** 
1076:Drivers/STM32G0xx_HAL_Driver/Src/stm32g0xx_hal_flash_ex.c ****   /* Set Zone A start offset */
1077:Drivers/STM32G0xx_HAL_Driver/Src/stm32g0xx_hal_flash_ex.c ****   FLASH->PCROP2ASR = startoffset;
 2418              		.loc 1 1077 8
 2419 0086 054B     		ldr	r3, .L143
 2420              		.loc 1 1077 20
 2421 0088 3A69     		ldr	r2, [r7, #16]
 2422 008a 5A64     		str	r2, [r3, #68]
1078:Drivers/STM32G0xx_HAL_Driver/Src/stm32g0xx_hal_flash_ex.c ****   /* Set Zone A end offset */
1079:Drivers/STM32G0xx_HAL_Driver/Src/stm32g0xx_hal_flash_ex.c ****   FLASH->PCROP2AER = endoffset;
 2423              		.loc 1 1079 8
 2424 008c 034B     		ldr	r3, .L143
 2425              		.loc 1 1079 20
 2426 008e FA68     		ldr	r2, [r7, #12]
 2427 0090 9A64     		str	r2, [r3, #72]
1080:Drivers/STM32G0xx_HAL_Driver/Src/stm32g0xx_hal_flash_ex.c **** }
 2428              		.loc 1 1080 1
 2429 0092 C046     		nop
 2430 0094 BD46     		mov	sp, r7
 2431 0096 06B0     		add	sp, sp, #24
 2432              		@ sp needed
 2433 0098 80BD     		pop	{r7, pc}
 2434              	.L144:
 2435 009a C046     		.align	2
 2436              	.L143:
 2437 009c 00200240 		.word	1073881088
 2438 00a0 0075FF1F 		.word	536835328
 2439 00a4 20200240 		.word	1073881120
 2440 00a8 E075FF1F 		.word	536835552
 2441 00ac 00FC0F00 		.word	1047552
 2442 00b0 00FE0700 		.word	523776
 2443              		.cfi_endproc
 2444              	.LFE376:
 2446              		.section	.text.FLASH_OB_PCROP2BConfig,"ax",%progbits
 2447              		.align	1
 2448              		.syntax unified
 2449              		.code	16
 2450              		.thumb_func
 2452              	FLASH_OB_PCROP2BConfig:
 2453              	.LFB377:
1081:Drivers/STM32G0xx_HAL_Driver/Src/stm32g0xx_hal_flash_ex.c **** 
1082:Drivers/STM32G0xx_HAL_Driver/Src/stm32g0xx_hal_flash_ex.c **** /**
1083:Drivers/STM32G0xx_HAL_Driver/Src/stm32g0xx_hal_flash_ex.c ****   * @brief  Configure the 2B Proprietary code readout protection.
1084:Drivers/STM32G0xx_HAL_Driver/Src/stm32g0xx_hal_flash_ex.c ****   * @note   It is recommended to align PCROP zone with page granularity when using PCROP_RDP or avo
1085:Drivers/STM32G0xx_HAL_Driver/Src/stm32g0xx_hal_flash_ex.c ****   *         having some executable code in a page where PCROP zone starts or ends.
1086:Drivers/STM32G0xx_HAL_Driver/Src/stm32g0xx_hal_flash_ex.c ****   * @note   Minimum PCROP area size is 2 times the chosen granularity: PCROP_STRT and PCROP_END.
1087:Drivers/STM32G0xx_HAL_Driver/Src/stm32g0xx_hal_flash_ex.c ****   *         So if the requirement is to be able to read-protect 1KB areas, the ROP granularity
1088:Drivers/STM32G0xx_HAL_Driver/Src/stm32g0xx_hal_flash_ex.c ****   *         has to be set to 512 Bytes
ARM GAS  C:\Users\SOLDER~1\AppData\Local\Temp\ccVplH7a.s 			page 63


1089:Drivers/STM32G0xx_HAL_Driver/Src/stm32g0xx_hal_flash_ex.c ****   * @param  PCROP2BStartAddr  Specifies the Zone 2B Start address of the Proprietary code readout p
1090:Drivers/STM32G0xx_HAL_Driver/Src/stm32g0xx_hal_flash_ex.c ****   *         This parameter can be an address between begin and end of the flash
1091:Drivers/STM32G0xx_HAL_Driver/Src/stm32g0xx_hal_flash_ex.c ****   * @param  PCROP2BEndAddr  Specifies the Zone 2B end address of the Proprietary code readout prote
1092:Drivers/STM32G0xx_HAL_Driver/Src/stm32g0xx_hal_flash_ex.c ****   *         This parameter can be an address between PCROP2BStartAddr and end of the flash
1093:Drivers/STM32G0xx_HAL_Driver/Src/stm32g0xx_hal_flash_ex.c ****   * @retval None
1094:Drivers/STM32G0xx_HAL_Driver/Src/stm32g0xx_hal_flash_ex.c ****   */
1095:Drivers/STM32G0xx_HAL_Driver/Src/stm32g0xx_hal_flash_ex.c **** static void FLASH_OB_PCROP2BConfig(uint32_t PCROP2BStartAddr, uint32_t PCROP2BEndAddr)
1096:Drivers/STM32G0xx_HAL_Driver/Src/stm32g0xx_hal_flash_ex.c **** {
 2454              		.loc 1 1096 1
 2455              		.cfi_startproc
 2456              		@ args = 0, pretend = 0, frame = 24
 2457              		@ frame_needed = 1, uses_anonymous_args = 0
 2458 0000 80B5     		push	{r7, lr}
 2459              		.cfi_def_cfa_offset 8
 2460              		.cfi_offset 7, -8
 2461              		.cfi_offset 14, -4
 2462 0002 86B0     		sub	sp, sp, #24
 2463              		.cfi_def_cfa_offset 32
 2464 0004 00AF     		add	r7, sp, #0
 2465              		.cfi_def_cfa_register 7
 2466 0006 7860     		str	r0, [r7, #4]
 2467 0008 3960     		str	r1, [r7]
1097:Drivers/STM32G0xx_HAL_Driver/Src/stm32g0xx_hal_flash_ex.c ****   uint32_t startoffset;
1098:Drivers/STM32G0xx_HAL_Driver/Src/stm32g0xx_hal_flash_ex.c ****   uint32_t endoffset;
1099:Drivers/STM32G0xx_HAL_Driver/Src/stm32g0xx_hal_flash_ex.c ****   uint32_t ropbase;
1100:Drivers/STM32G0xx_HAL_Driver/Src/stm32g0xx_hal_flash_ex.c **** 
1101:Drivers/STM32G0xx_HAL_Driver/Src/stm32g0xx_hal_flash_ex.c ****   /* Check if banks are swapped */
1102:Drivers/STM32G0xx_HAL_Driver/Src/stm32g0xx_hal_flash_ex.c ****   if ((FLASH->OPTR & FLASH_OPTR_nSWAP_BANK) != 0x00u)
 2468              		.loc 1 1102 13
 2469 000a 244B     		ldr	r3, .L151
 2470 000c 1A6A     		ldr	r2, [r3, #32]
 2471              		.loc 1 1102 20
 2472 000e 8023     		movs	r3, #128
 2473 0010 5B03     		lsls	r3, r3, #13
 2474 0012 1340     		ands	r3, r2
 2475              		.loc 1 1102 6
 2476 0014 2AD0     		beq	.L146
1103:Drivers/STM32G0xx_HAL_Driver/Src/stm32g0xx_hal_flash_ex.c ****   {
1104:Drivers/STM32G0xx_HAL_Driver/Src/stm32g0xx_hal_flash_ex.c ****     /* Check the parameters */
1105:Drivers/STM32G0xx_HAL_Driver/Src/stm32g0xx_hal_flash_ex.c ****     assert_param(IS_FLASH_MAIN_SECONDHALF_MEM_ADDRESS(PCROP2BStartAddr));
1106:Drivers/STM32G0xx_HAL_Driver/Src/stm32g0xx_hal_flash_ex.c ****     assert_param(IS_FLASH_MAIN_SECONDHALF_MEM_ADDRESS(PCROP2BEndAddr));
1107:Drivers/STM32G0xx_HAL_Driver/Src/stm32g0xx_hal_flash_ex.c **** 
1108:Drivers/STM32G0xx_HAL_Driver/Src/stm32g0xx_hal_flash_ex.c ****     /* No Bank swap, bank 2 read only protection is on second half of Flash */
1109:Drivers/STM32G0xx_HAL_Driver/Src/stm32g0xx_hal_flash_ex.c ****     ropbase = (FLASH_BASE + FLASH_BANK_SIZE);
 2477              		.loc 1 1109 29
 2478 0016 224B     		ldr	r3, .L151+4
 2479 0018 1A68     		ldr	r2, [r3]
 2480 001a C023     		movs	r3, #192
 2481 001c 9B04     		lsls	r3, r3, #18
 2482 001e 1340     		ands	r3, r2
 2483              		.loc 1 1109 27
 2484 0020 0ED0     		beq	.L147
 2485              		.loc 1 1109 29 discriminator 2
 2486 0022 1F4B     		ldr	r3, .L151+4
 2487 0024 1A68     		ldr	r2, [r3]
 2488 0026 C023     		movs	r3, #192
 2489 0028 9B04     		lsls	r3, r3, #18
ARM GAS  C:\Users\SOLDER~1\AppData\Local\Temp\ccVplH7a.s 			page 64


 2490 002a 1A40     		ands	r2, r3
 2491 002c 8023     		movs	r3, #128
 2492 002e 5B04     		lsls	r3, r3, #17
 2493 0030 9A42     		cmp	r2, r3
 2494 0032 0FD1     		bne	.L148
 2495              		.loc 1 1109 29 is_stmt 0 discriminator 3
 2496 0034 1B4B     		ldr	r3, .L151+8
 2497 0036 1A68     		ldr	r2, [r3]
 2498 0038 8023     		movs	r3, #128
 2499 003a 9B03     		lsls	r3, r3, #14
 2500 003c 1340     		ands	r3, r2
 2501 003e 09D1     		bne	.L148
 2502              	.L147:
 2503              		.loc 1 1109 29 discriminator 5
 2504 0040 194B     		ldr	r3, .L151+12
 2505 0042 1B68     		ldr	r3, [r3]
 2506 0044 9B02     		lsls	r3, r3, #10
 2507 0046 194A     		ldr	r2, .L151+16
 2508 0048 1340     		ands	r3, r2
 2509              		.loc 1 1109 27 is_stmt 1 discriminator 5
 2510 004a 8022     		movs	r2, #128
 2511 004c 1205     		lsls	r2, r2, #20
 2512 004e 9446     		mov	ip, r2
 2513 0050 6344     		add	r3, r3, ip
 2514 0052 09E0     		b	.L149
 2515              	.L148:
 2516              		.loc 1 1109 29 discriminator 6
 2517 0054 144B     		ldr	r3, .L151+12
 2518 0056 1B68     		ldr	r3, [r3]
 2519 0058 9B02     		lsls	r3, r3, #10
 2520 005a 5B08     		lsrs	r3, r3, #1
 2521 005c 144A     		ldr	r2, .L151+20
 2522 005e 1340     		ands	r3, r2
 2523              		.loc 1 1109 27 discriminator 6
 2524 0060 8022     		movs	r2, #128
 2525 0062 1205     		lsls	r2, r2, #20
 2526 0064 9446     		mov	ip, r2
 2527 0066 6344     		add	r3, r3, ip
 2528              	.L149:
 2529              		.loc 1 1109 13 discriminator 8
 2530 0068 7B61     		str	r3, [r7, #20]
 2531 006a 02E0     		b	.L150
 2532              	.L146:
1110:Drivers/STM32G0xx_HAL_Driver/Src/stm32g0xx_hal_flash_ex.c ****   }
1111:Drivers/STM32G0xx_HAL_Driver/Src/stm32g0xx_hal_flash_ex.c ****   else
1112:Drivers/STM32G0xx_HAL_Driver/Src/stm32g0xx_hal_flash_ex.c ****   {
1113:Drivers/STM32G0xx_HAL_Driver/Src/stm32g0xx_hal_flash_ex.c ****     /* Check the parameters */
1114:Drivers/STM32G0xx_HAL_Driver/Src/stm32g0xx_hal_flash_ex.c ****     assert_param(IS_FLASH_MAIN_FIRSTHALF_MEM_ADDRESS(PCROP2BStartAddr));
1115:Drivers/STM32G0xx_HAL_Driver/Src/stm32g0xx_hal_flash_ex.c ****     assert_param(IS_FLASH_MAIN_FIRSTHALF_MEM_ADDRESS(PCROP2BEndAddr));
1116:Drivers/STM32G0xx_HAL_Driver/Src/stm32g0xx_hal_flash_ex.c **** 
1117:Drivers/STM32G0xx_HAL_Driver/Src/stm32g0xx_hal_flash_ex.c ****     /* Bank swap, bank 2 read only protection is on first half of Flash */
1118:Drivers/STM32G0xx_HAL_Driver/Src/stm32g0xx_hal_flash_ex.c ****     ropbase = FLASH_BASE;
 2533              		.loc 1 1118 13
 2534 006c 8023     		movs	r3, #128
 2535 006e 1B05     		lsls	r3, r3, #20
 2536 0070 7B61     		str	r3, [r7, #20]
 2537              	.L150:
ARM GAS  C:\Users\SOLDER~1\AppData\Local\Temp\ccVplH7a.s 			page 65


1119:Drivers/STM32G0xx_HAL_Driver/Src/stm32g0xx_hal_flash_ex.c ****   }
1120:Drivers/STM32G0xx_HAL_Driver/Src/stm32g0xx_hal_flash_ex.c **** 
1121:Drivers/STM32G0xx_HAL_Driver/Src/stm32g0xx_hal_flash_ex.c ****   /* Configure the Proprietary code readout protection offset */
1122:Drivers/STM32G0xx_HAL_Driver/Src/stm32g0xx_hal_flash_ex.c ****   startoffset = ((PCROP2BStartAddr - ropbase) >> FLASH_PCROP_GRANULARITY_OFFSET);
 2538              		.loc 1 1122 36
 2539 0072 7A68     		ldr	r2, [r7, #4]
 2540 0074 7B69     		ldr	r3, [r7, #20]
 2541 0076 D31A     		subs	r3, r2, r3
 2542              		.loc 1 1122 15
 2543 0078 5B0A     		lsrs	r3, r3, #9
 2544 007a 3B61     		str	r3, [r7, #16]
1123:Drivers/STM32G0xx_HAL_Driver/Src/stm32g0xx_hal_flash_ex.c ****   endoffset = ((PCROP2BEndAddr - ropbase) >> FLASH_PCROP_GRANULARITY_OFFSET);
 2545              		.loc 1 1123 32
 2546 007c 3A68     		ldr	r2, [r7]
 2547 007e 7B69     		ldr	r3, [r7, #20]
 2548 0080 D31A     		subs	r3, r2, r3
 2549              		.loc 1 1123 13
 2550 0082 5B0A     		lsrs	r3, r3, #9
 2551 0084 FB60     		str	r3, [r7, #12]
1124:Drivers/STM32G0xx_HAL_Driver/Src/stm32g0xx_hal_flash_ex.c **** 
1125:Drivers/STM32G0xx_HAL_Driver/Src/stm32g0xx_hal_flash_ex.c ****   /* Set Zone B start offset */
1126:Drivers/STM32G0xx_HAL_Driver/Src/stm32g0xx_hal_flash_ex.c ****   FLASH->PCROP2BSR = startoffset;
 2552              		.loc 1 1126 8
 2553 0086 054B     		ldr	r3, .L151
 2554              		.loc 1 1126 20
 2555 0088 3A69     		ldr	r2, [r7, #16]
 2556 008a 5A65     		str	r2, [r3, #84]
1127:Drivers/STM32G0xx_HAL_Driver/Src/stm32g0xx_hal_flash_ex.c ****   /* Set Zone B end offset */
1128:Drivers/STM32G0xx_HAL_Driver/Src/stm32g0xx_hal_flash_ex.c ****   FLASH->PCROP2BER = endoffset;
 2557              		.loc 1 1128 8
 2558 008c 034B     		ldr	r3, .L151
 2559              		.loc 1 1128 20
 2560 008e FA68     		ldr	r2, [r7, #12]
 2561 0090 9A65     		str	r2, [r3, #88]
1129:Drivers/STM32G0xx_HAL_Driver/Src/stm32g0xx_hal_flash_ex.c **** }
 2562              		.loc 1 1129 1
 2563 0092 C046     		nop
 2564 0094 BD46     		mov	sp, r7
 2565 0096 06B0     		add	sp, sp, #24
 2566              		@ sp needed
 2567 0098 80BD     		pop	{r7, pc}
 2568              	.L152:
 2569 009a C046     		.align	2
 2570              	.L151:
 2571 009c 00200240 		.word	1073881088
 2572 00a0 0075FF1F 		.word	536835328
 2573 00a4 20200240 		.word	1073881120
 2574 00a8 E075FF1F 		.word	536835552
 2575 00ac 00FC0F00 		.word	1047552
 2576 00b0 00FE0700 		.word	523776
 2577              		.cfi_endproc
 2578              	.LFE377:
 2580              		.section	.text.FLASH_OB_GetPCROP2A,"ax",%progbits
 2581              		.align	1
 2582              		.syntax unified
 2583              		.code	16
 2584              		.thumb_func
ARM GAS  C:\Users\SOLDER~1\AppData\Local\Temp\ccVplH7a.s 			page 66


 2586              	FLASH_OB_GetPCROP2A:
 2587              	.LFB378:
1130:Drivers/STM32G0xx_HAL_Driver/Src/stm32g0xx_hal_flash_ex.c **** 
1131:Drivers/STM32G0xx_HAL_Driver/Src/stm32g0xx_hal_flash_ex.c **** /**
1132:Drivers/STM32G0xx_HAL_Driver/Src/stm32g0xx_hal_flash_ex.c ****   * @brief  Return the FLASH PCROP Protection Option Bytes value.
1133:Drivers/STM32G0xx_HAL_Driver/Src/stm32g0xx_hal_flash_ex.c ****   * @param  PCROP2AStartAddr [out]  Specifies the address where to copied the start address
1134:Drivers/STM32G0xx_HAL_Driver/Src/stm32g0xx_hal_flash_ex.c ****   *         of the 2A Proprietary code readout protection
1135:Drivers/STM32G0xx_HAL_Driver/Src/stm32g0xx_hal_flash_ex.c ****   * @param  PCROP2AEndAddr [out]  Specifies the address where to copied the end address of
1136:Drivers/STM32G0xx_HAL_Driver/Src/stm32g0xx_hal_flash_ex.c ****   *         the 2A Proprietary code readout protection
1137:Drivers/STM32G0xx_HAL_Driver/Src/stm32g0xx_hal_flash_ex.c ****   * @retval None
1138:Drivers/STM32G0xx_HAL_Driver/Src/stm32g0xx_hal_flash_ex.c ****   */
1139:Drivers/STM32G0xx_HAL_Driver/Src/stm32g0xx_hal_flash_ex.c **** static void FLASH_OB_GetPCROP2A(uint32_t *PCROP2AStartAddr, uint32_t *PCROP2AEndAddr)
1140:Drivers/STM32G0xx_HAL_Driver/Src/stm32g0xx_hal_flash_ex.c **** {
 2588              		.loc 1 1140 1
 2589              		.cfi_startproc
 2590              		@ args = 0, pretend = 0, frame = 16
 2591              		@ frame_needed = 1, uses_anonymous_args = 0
 2592 0000 80B5     		push	{r7, lr}
 2593              		.cfi_def_cfa_offset 8
 2594              		.cfi_offset 7, -8
 2595              		.cfi_offset 14, -4
 2596 0002 84B0     		sub	sp, sp, #16
 2597              		.cfi_def_cfa_offset 24
 2598 0004 00AF     		add	r7, sp, #0
 2599              		.cfi_def_cfa_register 7
 2600 0006 7860     		str	r0, [r7, #4]
 2601 0008 3960     		str	r1, [r7]
1141:Drivers/STM32G0xx_HAL_Driver/Src/stm32g0xx_hal_flash_ex.c ****   uint32_t pcrop;
1142:Drivers/STM32G0xx_HAL_Driver/Src/stm32g0xx_hal_flash_ex.c ****   uint32_t ropbase;
1143:Drivers/STM32G0xx_HAL_Driver/Src/stm32g0xx_hal_flash_ex.c **** 
1144:Drivers/STM32G0xx_HAL_Driver/Src/stm32g0xx_hal_flash_ex.c ****   /* Check if banks are swapped */
1145:Drivers/STM32G0xx_HAL_Driver/Src/stm32g0xx_hal_flash_ex.c ****   if ((FLASH->OPTR & FLASH_OPTR_nSWAP_BANK) != 0x00u)
 2602              		.loc 1 1145 13
 2603 000a 2C4B     		ldr	r3, .L159
 2604 000c 1A6A     		ldr	r2, [r3, #32]
 2605              		.loc 1 1145 20
 2606 000e 8023     		movs	r3, #128
 2607 0010 5B03     		lsls	r3, r3, #13
 2608 0012 1340     		ands	r3, r2
 2609              		.loc 1 1145 6
 2610 0014 2AD0     		beq	.L154
1146:Drivers/STM32G0xx_HAL_Driver/Src/stm32g0xx_hal_flash_ex.c ****   {
1147:Drivers/STM32G0xx_HAL_Driver/Src/stm32g0xx_hal_flash_ex.c ****     /* No Bank swap, bank 2 read only protection is on second half of Flash */
1148:Drivers/STM32G0xx_HAL_Driver/Src/stm32g0xx_hal_flash_ex.c ****     ropbase = (FLASH_BASE + FLASH_BANK_SIZE);
 2611              		.loc 1 1148 29
 2612 0016 2A4B     		ldr	r3, .L159+4
 2613 0018 1A68     		ldr	r2, [r3]
 2614 001a C023     		movs	r3, #192
 2615 001c 9B04     		lsls	r3, r3, #18
 2616 001e 1340     		ands	r3, r2
 2617              		.loc 1 1148 27
 2618 0020 0ED0     		beq	.L155
 2619              		.loc 1 1148 29 discriminator 2
 2620 0022 274B     		ldr	r3, .L159+4
 2621 0024 1A68     		ldr	r2, [r3]
 2622 0026 C023     		movs	r3, #192
 2623 0028 9B04     		lsls	r3, r3, #18
ARM GAS  C:\Users\SOLDER~1\AppData\Local\Temp\ccVplH7a.s 			page 67


 2624 002a 1A40     		ands	r2, r3
 2625 002c 8023     		movs	r3, #128
 2626 002e 5B04     		lsls	r3, r3, #17
 2627 0030 9A42     		cmp	r2, r3
 2628 0032 0FD1     		bne	.L156
 2629              		.loc 1 1148 29 is_stmt 0 discriminator 3
 2630 0034 234B     		ldr	r3, .L159+8
 2631 0036 1A68     		ldr	r2, [r3]
 2632 0038 8023     		movs	r3, #128
 2633 003a 9B03     		lsls	r3, r3, #14
 2634 003c 1340     		ands	r3, r2
 2635 003e 09D1     		bne	.L156
 2636              	.L155:
 2637              		.loc 1 1148 29 discriminator 5
 2638 0040 214B     		ldr	r3, .L159+12
 2639 0042 1B68     		ldr	r3, [r3]
 2640 0044 9B02     		lsls	r3, r3, #10
 2641 0046 214A     		ldr	r2, .L159+16
 2642 0048 1340     		ands	r3, r2
 2643              		.loc 1 1148 27 is_stmt 1 discriminator 5
 2644 004a 8022     		movs	r2, #128
 2645 004c 1205     		lsls	r2, r2, #20
 2646 004e 9446     		mov	ip, r2
 2647 0050 6344     		add	r3, r3, ip
 2648 0052 09E0     		b	.L157
 2649              	.L156:
 2650              		.loc 1 1148 29 discriminator 6
 2651 0054 1C4B     		ldr	r3, .L159+12
 2652 0056 1B68     		ldr	r3, [r3]
 2653 0058 9B02     		lsls	r3, r3, #10
 2654 005a 5B08     		lsrs	r3, r3, #1
 2655 005c 1C4A     		ldr	r2, .L159+20
 2656 005e 1340     		ands	r3, r2
 2657              		.loc 1 1148 27 discriminator 6
 2658 0060 8022     		movs	r2, #128
 2659 0062 1205     		lsls	r2, r2, #20
 2660 0064 9446     		mov	ip, r2
 2661 0066 6344     		add	r3, r3, ip
 2662              	.L157:
 2663              		.loc 1 1148 13 discriminator 8
 2664 0068 FB60     		str	r3, [r7, #12]
 2665 006a 02E0     		b	.L158
 2666              	.L154:
1149:Drivers/STM32G0xx_HAL_Driver/Src/stm32g0xx_hal_flash_ex.c ****   }
1150:Drivers/STM32G0xx_HAL_Driver/Src/stm32g0xx_hal_flash_ex.c ****   else
1151:Drivers/STM32G0xx_HAL_Driver/Src/stm32g0xx_hal_flash_ex.c ****   {
1152:Drivers/STM32G0xx_HAL_Driver/Src/stm32g0xx_hal_flash_ex.c ****     /* Bank swap, bank 2 read only protection is on first half of Flash */
1153:Drivers/STM32G0xx_HAL_Driver/Src/stm32g0xx_hal_flash_ex.c ****     ropbase = FLASH_BASE;
 2667              		.loc 1 1153 13
 2668 006c 8023     		movs	r3, #128
 2669 006e 1B05     		lsls	r3, r3, #20
 2670 0070 FB60     		str	r3, [r7, #12]
 2671              	.L158:
1154:Drivers/STM32G0xx_HAL_Driver/Src/stm32g0xx_hal_flash_ex.c ****   }
1155:Drivers/STM32G0xx_HAL_Driver/Src/stm32g0xx_hal_flash_ex.c **** 
1156:Drivers/STM32G0xx_HAL_Driver/Src/stm32g0xx_hal_flash_ex.c ****   pcrop = (FLASH->PCROP2ASR & FLASH_PCROP2ASR_PCROP2A_STRT);
 2672              		.loc 1 1156 17
ARM GAS  C:\Users\SOLDER~1\AppData\Local\Temp\ccVplH7a.s 			page 68


 2673 0072 124B     		ldr	r3, .L159
 2674 0074 5B6C     		ldr	r3, [r3, #68]
 2675              		.loc 1 1156 9
 2676 0076 DB05     		lsls	r3, r3, #23
 2677 0078 DB0D     		lsrs	r3, r3, #23
 2678 007a BB60     		str	r3, [r7, #8]
1157:Drivers/STM32G0xx_HAL_Driver/Src/stm32g0xx_hal_flash_ex.c ****   *PCROP2AStartAddr = (pcrop << FLASH_PCROP_GRANULARITY_OFFSET);
 2679              		.loc 1 1157 30
 2680 007c BB68     		ldr	r3, [r7, #8]
 2681 007e 5A02     		lsls	r2, r3, #9
 2682              		.loc 1 1157 21
 2683 0080 7B68     		ldr	r3, [r7, #4]
 2684 0082 1A60     		str	r2, [r3]
1158:Drivers/STM32G0xx_HAL_Driver/Src/stm32g0xx_hal_flash_ex.c ****   *PCROP2AStartAddr += ropbase;
 2685              		.loc 1 1158 21
 2686 0084 7B68     		ldr	r3, [r7, #4]
 2687 0086 1A68     		ldr	r2, [r3]
 2688 0088 FB68     		ldr	r3, [r7, #12]
 2689 008a D218     		adds	r2, r2, r3
 2690 008c 7B68     		ldr	r3, [r7, #4]
 2691 008e 1A60     		str	r2, [r3]
1159:Drivers/STM32G0xx_HAL_Driver/Src/stm32g0xx_hal_flash_ex.c **** 
1160:Drivers/STM32G0xx_HAL_Driver/Src/stm32g0xx_hal_flash_ex.c ****   pcrop = (FLASH->PCROP2AER & FLASH_PCROP2AER_PCROP2A_END);
 2692              		.loc 1 1160 17
 2693 0090 0A4B     		ldr	r3, .L159
 2694 0092 9B6C     		ldr	r3, [r3, #72]
 2695              		.loc 1 1160 9
 2696 0094 DB05     		lsls	r3, r3, #23
 2697 0096 DB0D     		lsrs	r3, r3, #23
 2698 0098 BB60     		str	r3, [r7, #8]
1161:Drivers/STM32G0xx_HAL_Driver/Src/stm32g0xx_hal_flash_ex.c ****   *PCROP2AEndAddr = (pcrop << FLASH_PCROP_GRANULARITY_OFFSET);
 2699              		.loc 1 1161 28
 2700 009a BB68     		ldr	r3, [r7, #8]
 2701 009c 5A02     		lsls	r2, r3, #9
 2702              		.loc 1 1161 19
 2703 009e 3B68     		ldr	r3, [r7]
 2704 00a0 1A60     		str	r2, [r3]
1162:Drivers/STM32G0xx_HAL_Driver/Src/stm32g0xx_hal_flash_ex.c ****   *PCROP2AEndAddr += (ropbase + FLASH_PCROP_GRANULARITY - 1U);
 2705              		.loc 1 1162 19
 2706 00a2 3B68     		ldr	r3, [r7]
 2707 00a4 1A68     		ldr	r2, [r3]
 2708 00a6 FB68     		ldr	r3, [r7, #12]
 2709 00a8 D318     		adds	r3, r2, r3
 2710 00aa 0A4A     		ldr	r2, .L159+24
 2711 00ac 9A18     		adds	r2, r3, r2
 2712 00ae 3B68     		ldr	r3, [r7]
 2713 00b0 1A60     		str	r2, [r3]
1163:Drivers/STM32G0xx_HAL_Driver/Src/stm32g0xx_hal_flash_ex.c **** }
 2714              		.loc 1 1163 1
 2715 00b2 C046     		nop
 2716 00b4 BD46     		mov	sp, r7
 2717 00b6 04B0     		add	sp, sp, #16
 2718              		@ sp needed
 2719 00b8 80BD     		pop	{r7, pc}
 2720              	.L160:
 2721 00ba C046     		.align	2
 2722              	.L159:
ARM GAS  C:\Users\SOLDER~1\AppData\Local\Temp\ccVplH7a.s 			page 69


 2723 00bc 00200240 		.word	1073881088
 2724 00c0 0075FF1F 		.word	536835328
 2725 00c4 20200240 		.word	1073881120
 2726 00c8 E075FF1F 		.word	536835552
 2727 00cc 00FC0F00 		.word	1047552
 2728 00d0 00FE0700 		.word	523776
 2729 00d4 FF010000 		.word	511
 2730              		.cfi_endproc
 2731              	.LFE378:
 2733              		.section	.text.FLASH_OB_GetPCROP2B,"ax",%progbits
 2734              		.align	1
 2735              		.syntax unified
 2736              		.code	16
 2737              		.thumb_func
 2739              	FLASH_OB_GetPCROP2B:
 2740              	.LFB379:
1164:Drivers/STM32G0xx_HAL_Driver/Src/stm32g0xx_hal_flash_ex.c **** 
1165:Drivers/STM32G0xx_HAL_Driver/Src/stm32g0xx_hal_flash_ex.c **** /**
1166:Drivers/STM32G0xx_HAL_Driver/Src/stm32g0xx_hal_flash_ex.c ****   * @brief  Return the FLASH PCROP Protection Option Bytes value.
1167:Drivers/STM32G0xx_HAL_Driver/Src/stm32g0xx_hal_flash_ex.c ****   * @param  PCROP2BStartAddr [out]  Specifies the address where to copied the start address
1168:Drivers/STM32G0xx_HAL_Driver/Src/stm32g0xx_hal_flash_ex.c ****   *         of the 2B Proprietary code readout protection
1169:Drivers/STM32G0xx_HAL_Driver/Src/stm32g0xx_hal_flash_ex.c ****   * @param  PCROP2BEndAddr [out]  Specifies the address where to copied the end address of
1170:Drivers/STM32G0xx_HAL_Driver/Src/stm32g0xx_hal_flash_ex.c ****   *         the 2B Proprietary code readout protection
1171:Drivers/STM32G0xx_HAL_Driver/Src/stm32g0xx_hal_flash_ex.c ****   * @retval None
1172:Drivers/STM32G0xx_HAL_Driver/Src/stm32g0xx_hal_flash_ex.c ****   */
1173:Drivers/STM32G0xx_HAL_Driver/Src/stm32g0xx_hal_flash_ex.c **** static void FLASH_OB_GetPCROP2B(uint32_t *PCROP2BStartAddr, uint32_t *PCROP2BEndAddr)
1174:Drivers/STM32G0xx_HAL_Driver/Src/stm32g0xx_hal_flash_ex.c **** {
 2741              		.loc 1 1174 1
 2742              		.cfi_startproc
 2743              		@ args = 0, pretend = 0, frame = 16
 2744              		@ frame_needed = 1, uses_anonymous_args = 0
 2745 0000 80B5     		push	{r7, lr}
 2746              		.cfi_def_cfa_offset 8
 2747              		.cfi_offset 7, -8
 2748              		.cfi_offset 14, -4
 2749 0002 84B0     		sub	sp, sp, #16
 2750              		.cfi_def_cfa_offset 24
 2751 0004 00AF     		add	r7, sp, #0
 2752              		.cfi_def_cfa_register 7
 2753 0006 7860     		str	r0, [r7, #4]
 2754 0008 3960     		str	r1, [r7]
1175:Drivers/STM32G0xx_HAL_Driver/Src/stm32g0xx_hal_flash_ex.c ****   uint32_t pcrop;
1176:Drivers/STM32G0xx_HAL_Driver/Src/stm32g0xx_hal_flash_ex.c ****   uint32_t ropbase;
1177:Drivers/STM32G0xx_HAL_Driver/Src/stm32g0xx_hal_flash_ex.c **** 
1178:Drivers/STM32G0xx_HAL_Driver/Src/stm32g0xx_hal_flash_ex.c ****   /* Check if banks are swapped */
1179:Drivers/STM32G0xx_HAL_Driver/Src/stm32g0xx_hal_flash_ex.c ****   if ((FLASH->OPTR & FLASH_OPTR_nSWAP_BANK) != 0x00u)
 2755              		.loc 1 1179 13
 2756 000a 2C4B     		ldr	r3, .L167
 2757 000c 1A6A     		ldr	r2, [r3, #32]
 2758              		.loc 1 1179 20
 2759 000e 8023     		movs	r3, #128
 2760 0010 5B03     		lsls	r3, r3, #13
 2761 0012 1340     		ands	r3, r2
 2762              		.loc 1 1179 6
 2763 0014 2AD0     		beq	.L162
1180:Drivers/STM32G0xx_HAL_Driver/Src/stm32g0xx_hal_flash_ex.c ****   {
1181:Drivers/STM32G0xx_HAL_Driver/Src/stm32g0xx_hal_flash_ex.c ****     /* No Bank swap, bank 2 read only protection is on second half of Flash */
ARM GAS  C:\Users\SOLDER~1\AppData\Local\Temp\ccVplH7a.s 			page 70


1182:Drivers/STM32G0xx_HAL_Driver/Src/stm32g0xx_hal_flash_ex.c ****     ropbase = (FLASH_BASE + FLASH_BANK_SIZE);
 2764              		.loc 1 1182 29
 2765 0016 2A4B     		ldr	r3, .L167+4
 2766 0018 1A68     		ldr	r2, [r3]
 2767 001a C023     		movs	r3, #192
 2768 001c 9B04     		lsls	r3, r3, #18
 2769 001e 1340     		ands	r3, r2
 2770              		.loc 1 1182 27
 2771 0020 0ED0     		beq	.L163
 2772              		.loc 1 1182 29 discriminator 2
 2773 0022 274B     		ldr	r3, .L167+4
 2774 0024 1A68     		ldr	r2, [r3]
 2775 0026 C023     		movs	r3, #192
 2776 0028 9B04     		lsls	r3, r3, #18
 2777 002a 1A40     		ands	r2, r3
 2778 002c 8023     		movs	r3, #128
 2779 002e 5B04     		lsls	r3, r3, #17
 2780 0030 9A42     		cmp	r2, r3
 2781 0032 0FD1     		bne	.L164
 2782              		.loc 1 1182 29 is_stmt 0 discriminator 3
 2783 0034 234B     		ldr	r3, .L167+8
 2784 0036 1A68     		ldr	r2, [r3]
 2785 0038 8023     		movs	r3, #128
 2786 003a 9B03     		lsls	r3, r3, #14
 2787 003c 1340     		ands	r3, r2
 2788 003e 09D1     		bne	.L164
 2789              	.L163:
 2790              		.loc 1 1182 29 discriminator 5
 2791 0040 214B     		ldr	r3, .L167+12
 2792 0042 1B68     		ldr	r3, [r3]
 2793 0044 9B02     		lsls	r3, r3, #10
 2794 0046 214A     		ldr	r2, .L167+16
 2795 0048 1340     		ands	r3, r2
 2796              		.loc 1 1182 27 is_stmt 1 discriminator 5
 2797 004a 8022     		movs	r2, #128
 2798 004c 1205     		lsls	r2, r2, #20
 2799 004e 9446     		mov	ip, r2
 2800 0050 6344     		add	r3, r3, ip
 2801 0052 09E0     		b	.L165
 2802              	.L164:
 2803              		.loc 1 1182 29 discriminator 6
 2804 0054 1C4B     		ldr	r3, .L167+12
 2805 0056 1B68     		ldr	r3, [r3]
 2806 0058 9B02     		lsls	r3, r3, #10
 2807 005a 5B08     		lsrs	r3, r3, #1
 2808 005c 1C4A     		ldr	r2, .L167+20
 2809 005e 1340     		ands	r3, r2
 2810              		.loc 1 1182 27 discriminator 6
 2811 0060 8022     		movs	r2, #128
 2812 0062 1205     		lsls	r2, r2, #20
 2813 0064 9446     		mov	ip, r2
 2814 0066 6344     		add	r3, r3, ip
 2815              	.L165:
 2816              		.loc 1 1182 13 discriminator 8
 2817 0068 FB60     		str	r3, [r7, #12]
 2818 006a 02E0     		b	.L166
 2819              	.L162:
ARM GAS  C:\Users\SOLDER~1\AppData\Local\Temp\ccVplH7a.s 			page 71


1183:Drivers/STM32G0xx_HAL_Driver/Src/stm32g0xx_hal_flash_ex.c ****   }
1184:Drivers/STM32G0xx_HAL_Driver/Src/stm32g0xx_hal_flash_ex.c ****   else
1185:Drivers/STM32G0xx_HAL_Driver/Src/stm32g0xx_hal_flash_ex.c ****   {
1186:Drivers/STM32G0xx_HAL_Driver/Src/stm32g0xx_hal_flash_ex.c ****     /* Bank swap, bank 2 read only protection is on first half of Flash */
1187:Drivers/STM32G0xx_HAL_Driver/Src/stm32g0xx_hal_flash_ex.c ****     ropbase = FLASH_BASE;
 2820              		.loc 1 1187 13
 2821 006c 8023     		movs	r3, #128
 2822 006e 1B05     		lsls	r3, r3, #20
 2823 0070 FB60     		str	r3, [r7, #12]
 2824              	.L166:
1188:Drivers/STM32G0xx_HAL_Driver/Src/stm32g0xx_hal_flash_ex.c ****   }
1189:Drivers/STM32G0xx_HAL_Driver/Src/stm32g0xx_hal_flash_ex.c **** 
1190:Drivers/STM32G0xx_HAL_Driver/Src/stm32g0xx_hal_flash_ex.c ****   pcrop = (FLASH->PCROP2BSR & FLASH_PCROP2BSR_PCROP2B_STRT);
 2825              		.loc 1 1190 17
 2826 0072 124B     		ldr	r3, .L167
 2827 0074 5B6D     		ldr	r3, [r3, #84]
 2828              		.loc 1 1190 9
 2829 0076 DB05     		lsls	r3, r3, #23
 2830 0078 DB0D     		lsrs	r3, r3, #23
 2831 007a BB60     		str	r3, [r7, #8]
1191:Drivers/STM32G0xx_HAL_Driver/Src/stm32g0xx_hal_flash_ex.c ****   *PCROP2BStartAddr = (pcrop << FLASH_PCROP_GRANULARITY_OFFSET);
 2832              		.loc 1 1191 30
 2833 007c BB68     		ldr	r3, [r7, #8]
 2834 007e 5A02     		lsls	r2, r3, #9
 2835              		.loc 1 1191 21
 2836 0080 7B68     		ldr	r3, [r7, #4]
 2837 0082 1A60     		str	r2, [r3]
1192:Drivers/STM32G0xx_HAL_Driver/Src/stm32g0xx_hal_flash_ex.c ****   *PCROP2BStartAddr += ropbase;
 2838              		.loc 1 1192 21
 2839 0084 7B68     		ldr	r3, [r7, #4]
 2840 0086 1A68     		ldr	r2, [r3]
 2841 0088 FB68     		ldr	r3, [r7, #12]
 2842 008a D218     		adds	r2, r2, r3
 2843 008c 7B68     		ldr	r3, [r7, #4]
 2844 008e 1A60     		str	r2, [r3]
1193:Drivers/STM32G0xx_HAL_Driver/Src/stm32g0xx_hal_flash_ex.c **** 
1194:Drivers/STM32G0xx_HAL_Driver/Src/stm32g0xx_hal_flash_ex.c ****   pcrop = (FLASH->PCROP2BER & FLASH_PCROP2BER_PCROP2B_END);
 2845              		.loc 1 1194 17
 2846 0090 0A4B     		ldr	r3, .L167
 2847 0092 9B6D     		ldr	r3, [r3, #88]
 2848              		.loc 1 1194 9
 2849 0094 DB05     		lsls	r3, r3, #23
 2850 0096 DB0D     		lsrs	r3, r3, #23
 2851 0098 BB60     		str	r3, [r7, #8]
1195:Drivers/STM32G0xx_HAL_Driver/Src/stm32g0xx_hal_flash_ex.c ****   *PCROP2BEndAddr = (pcrop << FLASH_PCROP_GRANULARITY_OFFSET);
 2852              		.loc 1 1195 28
 2853 009a BB68     		ldr	r3, [r7, #8]
 2854 009c 5A02     		lsls	r2, r3, #9
 2855              		.loc 1 1195 19
 2856 009e 3B68     		ldr	r3, [r7]
 2857 00a0 1A60     		str	r2, [r3]
1196:Drivers/STM32G0xx_HAL_Driver/Src/stm32g0xx_hal_flash_ex.c ****   *PCROP2BEndAddr += (ropbase + FLASH_PCROP_GRANULARITY - 1U);
 2858              		.loc 1 1196 19
 2859 00a2 3B68     		ldr	r3, [r7]
 2860 00a4 1A68     		ldr	r2, [r3]
 2861 00a6 FB68     		ldr	r3, [r7, #12]
 2862 00a8 D318     		adds	r3, r2, r3
ARM GAS  C:\Users\SOLDER~1\AppData\Local\Temp\ccVplH7a.s 			page 72


 2863 00aa 0A4A     		ldr	r2, .L167+24
 2864 00ac 9A18     		adds	r2, r3, r2
 2865 00ae 3B68     		ldr	r3, [r7]
 2866 00b0 1A60     		str	r2, [r3]
1197:Drivers/STM32G0xx_HAL_Driver/Src/stm32g0xx_hal_flash_ex.c **** }
 2867              		.loc 1 1197 1
 2868 00b2 C046     		nop
 2869 00b4 BD46     		mov	sp, r7
 2870 00b6 04B0     		add	sp, sp, #16
 2871              		@ sp needed
 2872 00b8 80BD     		pop	{r7, pc}
 2873              	.L168:
 2874 00ba C046     		.align	2
 2875              	.L167:
 2876 00bc 00200240 		.word	1073881088
 2877 00c0 0075FF1F 		.word	536835328
 2878 00c4 20200240 		.word	1073881120
 2879 00c8 E075FF1F 		.word	536835552
 2880 00cc 00FC0F00 		.word	1047552
 2881 00d0 00FE0700 		.word	523776
 2882 00d4 FF010000 		.word	511
 2883              		.cfi_endproc
 2884              	.LFE379:
 2886              		.section	.text.FLASH_OB_SecMemConfig,"ax",%progbits
 2887              		.align	1
 2888              		.syntax unified
 2889              		.code	16
 2890              		.thumb_func
 2892              	FLASH_OB_SecMemConfig:
 2893              	.LFB380:
1198:Drivers/STM32G0xx_HAL_Driver/Src/stm32g0xx_hal_flash_ex.c **** #endif /* FLASH_DBANK_SUPPORT */
1199:Drivers/STM32G0xx_HAL_Driver/Src/stm32g0xx_hal_flash_ex.c **** #endif /* FLASH_PCROP_SUPPORT */
1200:Drivers/STM32G0xx_HAL_Driver/Src/stm32g0xx_hal_flash_ex.c **** 
1201:Drivers/STM32G0xx_HAL_Driver/Src/stm32g0xx_hal_flash_ex.c **** #if defined(FLASH_SECURABLE_MEMORY_SUPPORT)
1202:Drivers/STM32G0xx_HAL_Driver/Src/stm32g0xx_hal_flash_ex.c **** #if defined(FLASH_DBANK_SUPPORT)
1203:Drivers/STM32G0xx_HAL_Driver/Src/stm32g0xx_hal_flash_ex.c **** /**
1204:Drivers/STM32G0xx_HAL_Driver/Src/stm32g0xx_hal_flash_ex.c ****   * @brief  Configure Securable Memory area feature.
1205:Drivers/STM32G0xx_HAL_Driver/Src/stm32g0xx_hal_flash_ex.c ****   * @param  BootEntry  specifies if boot scheme is forced to Flash (System or user) or not
1206:Drivers/STM32G0xx_HAL_Driver/Src/stm32g0xx_hal_flash_ex.c ****   *         This parameter can be one of the following values:
1207:Drivers/STM32G0xx_HAL_Driver/Src/stm32g0xx_hal_flash_ex.c ****   *           @arg @ref OB_BOOT_ENTRY_FORCED_NONE No boot entry forced
1208:Drivers/STM32G0xx_HAL_Driver/Src/stm32g0xx_hal_flash_ex.c ****   *           @arg @ref OB_BOOT_ENTRY_FORCED_FLASH Flash selected as unique entry boot
1209:Drivers/STM32G0xx_HAL_Driver/Src/stm32g0xx_hal_flash_ex.c ****   * @param  SecSize specifies number of pages to protect as securable memory area, starting from
1210:Drivers/STM32G0xx_HAL_Driver/Src/stm32g0xx_hal_flash_ex.c ****   *         beginning of Bank1 (page 0).
1211:Drivers/STM32G0xx_HAL_Driver/Src/stm32g0xx_hal_flash_ex.c ****   * @param  SecSize2 specifies number of pages to protect as securable memory area, starting from
1212:Drivers/STM32G0xx_HAL_Driver/Src/stm32g0xx_hal_flash_ex.c ****   *         beginning of Bank2 (page 0).
1213:Drivers/STM32G0xx_HAL_Driver/Src/stm32g0xx_hal_flash_ex.c ****   * @retval None
1214:Drivers/STM32G0xx_HAL_Driver/Src/stm32g0xx_hal_flash_ex.c ****   */
1215:Drivers/STM32G0xx_HAL_Driver/Src/stm32g0xx_hal_flash_ex.c **** static void FLASH_OB_SecMemConfig(uint32_t BootEntry, uint32_t SecSize, uint32_t SecSize2)
1216:Drivers/STM32G0xx_HAL_Driver/Src/stm32g0xx_hal_flash_ex.c **** {
 2894              		.loc 1 1216 1
 2895              		.cfi_startproc
 2896              		@ args = 0, pretend = 0, frame = 24
 2897              		@ frame_needed = 1, uses_anonymous_args = 0
 2898 0000 80B5     		push	{r7, lr}
 2899              		.cfi_def_cfa_offset 8
 2900              		.cfi_offset 7, -8
 2901              		.cfi_offset 14, -4
ARM GAS  C:\Users\SOLDER~1\AppData\Local\Temp\ccVplH7a.s 			page 73


 2902 0002 86B0     		sub	sp, sp, #24
 2903              		.cfi_def_cfa_offset 32
 2904 0004 00AF     		add	r7, sp, #0
 2905              		.cfi_def_cfa_register 7
 2906 0006 F860     		str	r0, [r7, #12]
 2907 0008 B960     		str	r1, [r7, #8]
 2908 000a 7A60     		str	r2, [r7, #4]
1217:Drivers/STM32G0xx_HAL_Driver/Src/stm32g0xx_hal_flash_ex.c ****   uint32_t secmem;
1218:Drivers/STM32G0xx_HAL_Driver/Src/stm32g0xx_hal_flash_ex.c **** 
1219:Drivers/STM32G0xx_HAL_Driver/Src/stm32g0xx_hal_flash_ex.c ****   /* Check the parameters */
1220:Drivers/STM32G0xx_HAL_Driver/Src/stm32g0xx_hal_flash_ex.c ****   assert_param(IS_OB_SEC_BOOT_LOCK(BootEntry));
1221:Drivers/STM32G0xx_HAL_Driver/Src/stm32g0xx_hal_flash_ex.c ****   assert_param(IS_OB_SEC_SIZE(SecSize));
1222:Drivers/STM32G0xx_HAL_Driver/Src/stm32g0xx_hal_flash_ex.c **** 
1223:Drivers/STM32G0xx_HAL_Driver/Src/stm32g0xx_hal_flash_ex.c ****   if ((FLASH_BANK_NB == 2U))
 2909              		.loc 1 1223 8
 2910 000c 0C4B     		ldr	r3, .L171
 2911 000e 1A68     		ldr	r2, [r3]
 2912 0010 C023     		movs	r3, #192
 2913 0012 9B04     		lsls	r3, r3, #18
 2914 0014 1340     		ands	r3, r2
1224:Drivers/STM32G0xx_HAL_Driver/Src/stm32g0xx_hal_flash_ex.c ****   {
1225:Drivers/STM32G0xx_HAL_Driver/Src/stm32g0xx_hal_flash_ex.c ****     assert_param(IS_OB_SEC_SIZE(SecSize2));
1226:Drivers/STM32G0xx_HAL_Driver/Src/stm32g0xx_hal_flash_ex.c ****   }
1227:Drivers/STM32G0xx_HAL_Driver/Src/stm32g0xx_hal_flash_ex.c **** 
1228:Drivers/STM32G0xx_HAL_Driver/Src/stm32g0xx_hal_flash_ex.c ****   /* Set securable memory area configuration */
1229:Drivers/STM32G0xx_HAL_Driver/Src/stm32g0xx_hal_flash_ex.c ****   secmem = (FLASH->SECR & ~(FLASH_SECR_BOOT_LOCK | FLASH_SECR_SEC_SIZE | FLASH_SECR_SEC_SIZE2));
 2915              		.loc 1 1229 18
 2916 0016 0B4A     		ldr	r2, .L171+4
 2917 0018 8023     		movs	r3, #128
 2918 001a D358     		ldr	r3, [r2, r3]
 2919              		.loc 1 1229 10
 2920 001c 0A4A     		ldr	r2, .L171+8
 2921 001e 1340     		ands	r3, r2
 2922 0020 7B61     		str	r3, [r7, #20]
1230:Drivers/STM32G0xx_HAL_Driver/Src/stm32g0xx_hal_flash_ex.c ****   FLASH->SECR = (secmem | BootEntry | SecSize | (SecSize2 << FLASH_SECR_SEC_SIZE2_Pos));
 2923              		.loc 1 1230 25
 2924 0022 7A69     		ldr	r2, [r7, #20]
 2925 0024 FB68     		ldr	r3, [r7, #12]
 2926 0026 1A43     		orrs	r2, r3
 2927              		.loc 1 1230 37
 2928 0028 BB68     		ldr	r3, [r7, #8]
 2929 002a 1A43     		orrs	r2, r3
 2930              		.loc 1 1230 59
 2931 002c 7B68     		ldr	r3, [r7, #4]
 2932 002e 1B05     		lsls	r3, r3, #20
 2933              		.loc 1 1230 8
 2934 0030 0449     		ldr	r1, .L171+4
 2935              		.loc 1 1230 47
 2936 0032 1343     		orrs	r3, r2
 2937              		.loc 1 1230 15
 2938 0034 8022     		movs	r2, #128
 2939 0036 8B50     		str	r3, [r1, r2]
1231:Drivers/STM32G0xx_HAL_Driver/Src/stm32g0xx_hal_flash_ex.c **** }
 2940              		.loc 1 1231 1
 2941 0038 C046     		nop
 2942 003a BD46     		mov	sp, r7
 2943 003c 06B0     		add	sp, sp, #24
ARM GAS  C:\Users\SOLDER~1\AppData\Local\Temp\ccVplH7a.s 			page 74


 2944              		@ sp needed
 2945 003e 80BD     		pop	{r7, pc}
 2946              	.L172:
 2947              		.align	2
 2948              	.L171:
 2949 0040 0075FF1F 		.word	536835328
 2950 0044 00200240 		.word	1073881088
 2951 0048 00FF0EF0 		.word	-267452672
 2952              		.cfi_endproc
 2953              	.LFE380:
 2955              		.section	.text.FLASH_OB_GetSecMem,"ax",%progbits
 2956              		.align	1
 2957              		.syntax unified
 2958              		.code	16
 2959              		.thumb_func
 2961              	FLASH_OB_GetSecMem:
 2962              	.LFB381:
1232:Drivers/STM32G0xx_HAL_Driver/Src/stm32g0xx_hal_flash_ex.c **** 
1233:Drivers/STM32G0xx_HAL_Driver/Src/stm32g0xx_hal_flash_ex.c **** /**
1234:Drivers/STM32G0xx_HAL_Driver/Src/stm32g0xx_hal_flash_ex.c ****   * @brief  Return the FLASH Securable memory area protection Option Bytes value.
1235:Drivers/STM32G0xx_HAL_Driver/Src/stm32g0xx_hal_flash_ex.c ****   * @param  BootEntry  specifies boot scheme configuration
1236:Drivers/STM32G0xx_HAL_Driver/Src/stm32g0xx_hal_flash_ex.c ****   * @param  SecSize specifies number of pages to protect as secure memory area, starting from
1237:Drivers/STM32G0xx_HAL_Driver/Src/stm32g0xx_hal_flash_ex.c ****   *         beginning of Bank1 (page 0).
1238:Drivers/STM32G0xx_HAL_Driver/Src/stm32g0xx_hal_flash_ex.c ****   * @param  SecSize2 specifies number of pages to protect as secure memory area, starting from
1239:Drivers/STM32G0xx_HAL_Driver/Src/stm32g0xx_hal_flash_ex.c ****   *         beginning of Bank2 (page 0).
1240:Drivers/STM32G0xx_HAL_Driver/Src/stm32g0xx_hal_flash_ex.c ****   * @retval None
1241:Drivers/STM32G0xx_HAL_Driver/Src/stm32g0xx_hal_flash_ex.c ****   */
1242:Drivers/STM32G0xx_HAL_Driver/Src/stm32g0xx_hal_flash_ex.c **** static void FLASH_OB_GetSecMem(uint32_t *BootEntry, uint32_t *SecSize, uint32_t *SecSize2)
1243:Drivers/STM32G0xx_HAL_Driver/Src/stm32g0xx_hal_flash_ex.c **** {
 2963              		.loc 1 1243 1
 2964              		.cfi_startproc
 2965              		@ args = 0, pretend = 0, frame = 24
 2966              		@ frame_needed = 1, uses_anonymous_args = 0
 2967 0000 80B5     		push	{r7, lr}
 2968              		.cfi_def_cfa_offset 8
 2969              		.cfi_offset 7, -8
 2970              		.cfi_offset 14, -4
 2971 0002 86B0     		sub	sp, sp, #24
 2972              		.cfi_def_cfa_offset 32
 2973 0004 00AF     		add	r7, sp, #0
 2974              		.cfi_def_cfa_register 7
 2975 0006 F860     		str	r0, [r7, #12]
 2976 0008 B960     		str	r1, [r7, #8]
 2977 000a 7A60     		str	r2, [r7, #4]
1244:Drivers/STM32G0xx_HAL_Driver/Src/stm32g0xx_hal_flash_ex.c ****   uint32_t secmem = FLASH->SECR;
 2978              		.loc 1 1244 26
 2979 000c 0C4A     		ldr	r2, .L174
 2980              		.loc 1 1244 12
 2981 000e 8023     		movs	r3, #128
 2982 0010 D358     		ldr	r3, [r2, r3]
 2983 0012 7B61     		str	r3, [r7, #20]
1245:Drivers/STM32G0xx_HAL_Driver/Src/stm32g0xx_hal_flash_ex.c **** 
1246:Drivers/STM32G0xx_HAL_Driver/Src/stm32g0xx_hal_flash_ex.c ****   *BootEntry = (secmem & FLASH_SECR_BOOT_LOCK);
 2984              		.loc 1 1246 24
 2985 0014 7A69     		ldr	r2, [r7, #20]
 2986 0016 8023     		movs	r3, #128
 2987 0018 5B02     		lsls	r3, r3, #9
ARM GAS  C:\Users\SOLDER~1\AppData\Local\Temp\ccVplH7a.s 			page 75


 2988 001a 1A40     		ands	r2, r3
 2989              		.loc 1 1246 14
 2990 001c FB68     		ldr	r3, [r7, #12]
 2991 001e 1A60     		str	r2, [r3]
1247:Drivers/STM32G0xx_HAL_Driver/Src/stm32g0xx_hal_flash_ex.c ****   *SecSize = (secmem & FLASH_SECR_SEC_SIZE);
 2992              		.loc 1 1247 22
 2993 0020 7B69     		ldr	r3, [r7, #20]
 2994 0022 FF22     		movs	r2, #255
 2995 0024 1A40     		ands	r2, r3
 2996              		.loc 1 1247 12
 2997 0026 BB68     		ldr	r3, [r7, #8]
 2998 0028 1A60     		str	r2, [r3]
1248:Drivers/STM32G0xx_HAL_Driver/Src/stm32g0xx_hal_flash_ex.c ****   *SecSize2 = (secmem & FLASH_SECR_SEC_SIZE2) >> FLASH_SECR_SEC_SIZE2_Pos;
 2999              		.loc 1 1248 47
 3000 002a 7B69     		ldr	r3, [r7, #20]
 3001 002c 1B0D     		lsrs	r3, r3, #20
 3002 002e FF22     		movs	r2, #255
 3003 0030 1A40     		ands	r2, r3
 3004              		.loc 1 1248 13
 3005 0032 7B68     		ldr	r3, [r7, #4]
 3006 0034 1A60     		str	r2, [r3]
1249:Drivers/STM32G0xx_HAL_Driver/Src/stm32g0xx_hal_flash_ex.c **** }
 3007              		.loc 1 1249 1
 3008 0036 C046     		nop
 3009 0038 BD46     		mov	sp, r7
 3010 003a 06B0     		add	sp, sp, #24
 3011              		@ sp needed
 3012 003c 80BD     		pop	{r7, pc}
 3013              	.L175:
 3014 003e C046     		.align	2
 3015              	.L174:
 3016 0040 00200240 		.word	1073881088
 3017              		.cfi_endproc
 3018              	.LFE381:
 3020              		.text
 3021              	.Letext0:
 3022              		.file 2 "c:\\dev_tools\\stm32_tools\\gnu-tools-for-stm32.12.3\\tools\\arm-none-eabi\\include\\mach
 3023              		.file 3 "c:\\dev_tools\\stm32_tools\\gnu-tools-for-stm32.12.3\\tools\\arm-none-eabi\\include\\sys\
