ARM GAS  C:\Users\SOLDER~1\AppData\Local\Temp\cc8E0pRj.s 			page 1


   1              		.cpu cortex-m0plus
   2              		.arch armv6s-m
   3              		.fpu softvfp
   4              		.eabi_attribute 20, 1
   5              		.eabi_attribute 21, 1
   6              		.eabi_attribute 23, 3
   7              		.eabi_attribute 24, 1
   8              		.eabi_attribute 25, 1
   9              		.eabi_attribute 26, 1
  10              		.eabi_attribute 30, 6
  11              		.eabi_attribute 34, 0
  12              		.eabi_attribute 18, 4
  13              		.file	"stm32g0xx_hal_dma.c"
  14              		.text
  15              	.Ltext0:
  16              		.cfi_sections	.debug_frame
  17              		.section	.rodata.CHANNEL_OFFSET_TAB,"a"
  18              		.align	2
  21              	CHANNEL_OFFSET_TAB:
  22 0000 081C3044 		.ascii	"\010\0340DXl\200"
  22      586C80
  23              		.global	__aeabi_uidiv
  24              		.section	.text.HAL_DMA_Init,"ax",%progbits
  25              		.align	1
  26              		.global	HAL_DMA_Init
  27              		.syntax unified
  28              		.code	16
  29              		.thumb_func
  31              	HAL_DMA_Init:
  32              	.LFB355:
  33              		.file 1 "Drivers/STM32G0xx_HAL_Driver/Src/stm32g0xx_hal_dma.c"
   1:Drivers/STM32G0xx_HAL_Driver/Src/stm32g0xx_hal_dma.c **** /**
   2:Drivers/STM32G0xx_HAL_Driver/Src/stm32g0xx_hal_dma.c ****   ******************************************************************************
   3:Drivers/STM32G0xx_HAL_Driver/Src/stm32g0xx_hal_dma.c ****   * @file    stm32g0xx_hal_dma.c
   4:Drivers/STM32G0xx_HAL_Driver/Src/stm32g0xx_hal_dma.c ****   * @author  MCD Application Team
   5:Drivers/STM32G0xx_HAL_Driver/Src/stm32g0xx_hal_dma.c ****   * @brief   DMA HAL module driver.
   6:Drivers/STM32G0xx_HAL_Driver/Src/stm32g0xx_hal_dma.c ****   *          This file provides firmware functions to manage the following
   7:Drivers/STM32G0xx_HAL_Driver/Src/stm32g0xx_hal_dma.c ****   *          functionalities of the Direct Memory Access (DMA) peripheral:
   8:Drivers/STM32G0xx_HAL_Driver/Src/stm32g0xx_hal_dma.c ****   *           + Initialization and de-initialization functions
   9:Drivers/STM32G0xx_HAL_Driver/Src/stm32g0xx_hal_dma.c ****   *           + IO operation functions
  10:Drivers/STM32G0xx_HAL_Driver/Src/stm32g0xx_hal_dma.c ****   *           + Peripheral State and errors functions
  11:Drivers/STM32G0xx_HAL_Driver/Src/stm32g0xx_hal_dma.c ****   @verbatim
  12:Drivers/STM32G0xx_HAL_Driver/Src/stm32g0xx_hal_dma.c ****   ==============================================================================
  13:Drivers/STM32G0xx_HAL_Driver/Src/stm32g0xx_hal_dma.c ****                         ##### How to use this driver #####
  14:Drivers/STM32G0xx_HAL_Driver/Src/stm32g0xx_hal_dma.c ****   ==============================================================================
  15:Drivers/STM32G0xx_HAL_Driver/Src/stm32g0xx_hal_dma.c ****   [..]
  16:Drivers/STM32G0xx_HAL_Driver/Src/stm32g0xx_hal_dma.c ****    (#) Enable and configure the peripheral to be connected to the DMA Channel
  17:Drivers/STM32G0xx_HAL_Driver/Src/stm32g0xx_hal_dma.c ****        (except for internal SRAM / FLASH memories: no initialization is
  18:Drivers/STM32G0xx_HAL_Driver/Src/stm32g0xx_hal_dma.c ****        necessary). Please refer to the Reference manual for connection between peripherals
  19:Drivers/STM32G0xx_HAL_Driver/Src/stm32g0xx_hal_dma.c ****        and DMA requests.
  20:Drivers/STM32G0xx_HAL_Driver/Src/stm32g0xx_hal_dma.c **** 
  21:Drivers/STM32G0xx_HAL_Driver/Src/stm32g0xx_hal_dma.c ****    (#) For a given Channel, program the required configuration through the following parameters:
  22:Drivers/STM32G0xx_HAL_Driver/Src/stm32g0xx_hal_dma.c ****        Channel request, Transfer Direction, Source and Destination data formats,
  23:Drivers/STM32G0xx_HAL_Driver/Src/stm32g0xx_hal_dma.c ****        Circular or Normal mode, Channel Priority level, Source and Destination Increment mode
  24:Drivers/STM32G0xx_HAL_Driver/Src/stm32g0xx_hal_dma.c ****        using HAL_DMA_Init() function.
  25:Drivers/STM32G0xx_HAL_Driver/Src/stm32g0xx_hal_dma.c **** 
  26:Drivers/STM32G0xx_HAL_Driver/Src/stm32g0xx_hal_dma.c ****        Prior to HAL_DMA_Init the peripheral clock shall be enabled for both DMA & DMAMUX
ARM GAS  C:\Users\SOLDER~1\AppData\Local\Temp\cc8E0pRj.s 			page 2


  27:Drivers/STM32G0xx_HAL_Driver/Src/stm32g0xx_hal_dma.c ****        thanks to:
  28:Drivers/STM32G0xx_HAL_Driver/Src/stm32g0xx_hal_dma.c ****       (##) DMA1 or DMA2: __HAL_RCC_DMA1_CLK_ENABLE() or  __HAL_RCC_DMA2_CLK_ENABLE();
  29:Drivers/STM32G0xx_HAL_Driver/Src/stm32g0xx_hal_dma.c **** 
  30:Drivers/STM32G0xx_HAL_Driver/Src/stm32g0xx_hal_dma.c ****    (#) Use HAL_DMA_GetState() function to return the DMA state and HAL_DMA_GetError() in case of er
  31:Drivers/STM32G0xx_HAL_Driver/Src/stm32g0xx_hal_dma.c ****        detection.
  32:Drivers/STM32G0xx_HAL_Driver/Src/stm32g0xx_hal_dma.c **** 
  33:Drivers/STM32G0xx_HAL_Driver/Src/stm32g0xx_hal_dma.c ****    (#) Use HAL_DMA_Abort() function to abort the current transfer
  34:Drivers/STM32G0xx_HAL_Driver/Src/stm32g0xx_hal_dma.c **** 
  35:Drivers/STM32G0xx_HAL_Driver/Src/stm32g0xx_hal_dma.c ****      -@-   In Memory-to-Memory transfer mode, Circular mode is not allowed.
  36:Drivers/STM32G0xx_HAL_Driver/Src/stm32g0xx_hal_dma.c **** 
  37:Drivers/STM32G0xx_HAL_Driver/Src/stm32g0xx_hal_dma.c ****      *** Polling mode IO operation ***
  38:Drivers/STM32G0xx_HAL_Driver/Src/stm32g0xx_hal_dma.c ****      =================================
  39:Drivers/STM32G0xx_HAL_Driver/Src/stm32g0xx_hal_dma.c ****      [..]
  40:Drivers/STM32G0xx_HAL_Driver/Src/stm32g0xx_hal_dma.c ****        (+) Use HAL_DMA_Start() to start DMA transfer after the configuration of Source
  41:Drivers/STM32G0xx_HAL_Driver/Src/stm32g0xx_hal_dma.c ****            address and destination address and the Length of data to be transferred
  42:Drivers/STM32G0xx_HAL_Driver/Src/stm32g0xx_hal_dma.c ****        (+) Use HAL_DMA_PollForTransfer() to poll for the end of current transfer, in this
  43:Drivers/STM32G0xx_HAL_Driver/Src/stm32g0xx_hal_dma.c ****            case a fixed Timeout can be configured by User depending from his application.
  44:Drivers/STM32G0xx_HAL_Driver/Src/stm32g0xx_hal_dma.c **** 
  45:Drivers/STM32G0xx_HAL_Driver/Src/stm32g0xx_hal_dma.c ****      *** Interrupt mode IO operation ***
  46:Drivers/STM32G0xx_HAL_Driver/Src/stm32g0xx_hal_dma.c ****      ===================================
  47:Drivers/STM32G0xx_HAL_Driver/Src/stm32g0xx_hal_dma.c ****      [..]
  48:Drivers/STM32G0xx_HAL_Driver/Src/stm32g0xx_hal_dma.c ****        (+) Configure the DMA interrupt priority using HAL_NVIC_SetPriority()
  49:Drivers/STM32G0xx_HAL_Driver/Src/stm32g0xx_hal_dma.c ****        (+) Enable the DMA IRQ handler using HAL_NVIC_EnableIRQ()
  50:Drivers/STM32G0xx_HAL_Driver/Src/stm32g0xx_hal_dma.c ****        (+) Use HAL_DMA_Start_IT() to start DMA transfer after the configuration of
  51:Drivers/STM32G0xx_HAL_Driver/Src/stm32g0xx_hal_dma.c ****            Source address and destination address and the Length of data to be transferred.
  52:Drivers/STM32G0xx_HAL_Driver/Src/stm32g0xx_hal_dma.c ****            In this case the DMA interrupt is configured
  53:Drivers/STM32G0xx_HAL_Driver/Src/stm32g0xx_hal_dma.c ****        (+) Use HAL_DMA_IRQHandler() called under DMA_IRQHandler() Interrupt subroutine
  54:Drivers/STM32G0xx_HAL_Driver/Src/stm32g0xx_hal_dma.c ****        (+) At the end of data transfer HAL_DMA_IRQHandler() function is executed and user can
  55:Drivers/STM32G0xx_HAL_Driver/Src/stm32g0xx_hal_dma.c ****               add his own function to register callbacks with HAL_DMA_RegisterCallback().
  56:Drivers/STM32G0xx_HAL_Driver/Src/stm32g0xx_hal_dma.c **** 
  57:Drivers/STM32G0xx_HAL_Driver/Src/stm32g0xx_hal_dma.c ****      *** DMA HAL driver macros list ***
  58:Drivers/STM32G0xx_HAL_Driver/Src/stm32g0xx_hal_dma.c ****      =============================================
  59:Drivers/STM32G0xx_HAL_Driver/Src/stm32g0xx_hal_dma.c ****      [..]
  60:Drivers/STM32G0xx_HAL_Driver/Src/stm32g0xx_hal_dma.c ****        Below the list of macros in DMA HAL driver.
  61:Drivers/STM32G0xx_HAL_Driver/Src/stm32g0xx_hal_dma.c **** 
  62:Drivers/STM32G0xx_HAL_Driver/Src/stm32g0xx_hal_dma.c ****        (+) __HAL_DMA_ENABLE: Enable the specified DMA Channel.
  63:Drivers/STM32G0xx_HAL_Driver/Src/stm32g0xx_hal_dma.c ****        (+) __HAL_DMA_DISABLE: Disable the specified DMA Channel.
  64:Drivers/STM32G0xx_HAL_Driver/Src/stm32g0xx_hal_dma.c ****        (+) __HAL_DMA_GET_FLAG: Get the DMA Channel pending flags.
  65:Drivers/STM32G0xx_HAL_Driver/Src/stm32g0xx_hal_dma.c ****        (+) __HAL_DMA_CLEAR_FLAG: Clear the DMA Channel pending flags.
  66:Drivers/STM32G0xx_HAL_Driver/Src/stm32g0xx_hal_dma.c ****        (+) __HAL_DMA_ENABLE_IT: Enable the specified DMA Channel interrupts.
  67:Drivers/STM32G0xx_HAL_Driver/Src/stm32g0xx_hal_dma.c ****        (+) __HAL_DMA_DISABLE_IT: Disable the specified DMA Channel interrupts.
  68:Drivers/STM32G0xx_HAL_Driver/Src/stm32g0xx_hal_dma.c ****        (+) __HAL_DMA_GET_IT_SOURCE: Check whether the specified DMA Channel interrupt is enabled or
  69:Drivers/STM32G0xx_HAL_Driver/Src/stm32g0xx_hal_dma.c **** 
  70:Drivers/STM32G0xx_HAL_Driver/Src/stm32g0xx_hal_dma.c ****      [..]
  71:Drivers/STM32G0xx_HAL_Driver/Src/stm32g0xx_hal_dma.c ****       (@) You can refer to the DMA HAL driver header file for more useful macros
  72:Drivers/STM32G0xx_HAL_Driver/Src/stm32g0xx_hal_dma.c **** 
  73:Drivers/STM32G0xx_HAL_Driver/Src/stm32g0xx_hal_dma.c ****   @endverbatim
  74:Drivers/STM32G0xx_HAL_Driver/Src/stm32g0xx_hal_dma.c ****   ******************************************************************************
  75:Drivers/STM32G0xx_HAL_Driver/Src/stm32g0xx_hal_dma.c ****   * @attention
  76:Drivers/STM32G0xx_HAL_Driver/Src/stm32g0xx_hal_dma.c ****   *
  77:Drivers/STM32G0xx_HAL_Driver/Src/stm32g0xx_hal_dma.c ****   * <h2><center>&copy; Copyright (c) 2018 STMicroelectronics.
  78:Drivers/STM32G0xx_HAL_Driver/Src/stm32g0xx_hal_dma.c ****   * All rights reserved.</center></h2>
  79:Drivers/STM32G0xx_HAL_Driver/Src/stm32g0xx_hal_dma.c ****   *
  80:Drivers/STM32G0xx_HAL_Driver/Src/stm32g0xx_hal_dma.c ****   * This software component is licensed by ST under BSD 3-Clause license,
  81:Drivers/STM32G0xx_HAL_Driver/Src/stm32g0xx_hal_dma.c ****   * the "License"; You may not use this file except in compliance with the
  82:Drivers/STM32G0xx_HAL_Driver/Src/stm32g0xx_hal_dma.c ****   * License. You may obtain a copy of the License at:
  83:Drivers/STM32G0xx_HAL_Driver/Src/stm32g0xx_hal_dma.c ****   *                        opensource.org/licenses/BSD-3-Clause
ARM GAS  C:\Users\SOLDER~1\AppData\Local\Temp\cc8E0pRj.s 			page 3


  84:Drivers/STM32G0xx_HAL_Driver/Src/stm32g0xx_hal_dma.c ****   *
  85:Drivers/STM32G0xx_HAL_Driver/Src/stm32g0xx_hal_dma.c ****   ******************************************************************************
  86:Drivers/STM32G0xx_HAL_Driver/Src/stm32g0xx_hal_dma.c ****   */
  87:Drivers/STM32G0xx_HAL_Driver/Src/stm32g0xx_hal_dma.c **** 
  88:Drivers/STM32G0xx_HAL_Driver/Src/stm32g0xx_hal_dma.c **** /* Includes ------------------------------------------------------------------*/
  89:Drivers/STM32G0xx_HAL_Driver/Src/stm32g0xx_hal_dma.c **** #include "stm32g0xx_hal.h"
  90:Drivers/STM32G0xx_HAL_Driver/Src/stm32g0xx_hal_dma.c **** 
  91:Drivers/STM32G0xx_HAL_Driver/Src/stm32g0xx_hal_dma.c **** /** @addtogroup STM32G0xx_HAL_Driver
  92:Drivers/STM32G0xx_HAL_Driver/Src/stm32g0xx_hal_dma.c ****   * @{
  93:Drivers/STM32G0xx_HAL_Driver/Src/stm32g0xx_hal_dma.c ****   */
  94:Drivers/STM32G0xx_HAL_Driver/Src/stm32g0xx_hal_dma.c **** 
  95:Drivers/STM32G0xx_HAL_Driver/Src/stm32g0xx_hal_dma.c **** /** @defgroup DMA DMA
  96:Drivers/STM32G0xx_HAL_Driver/Src/stm32g0xx_hal_dma.c ****   * @brief DMA HAL module driver
  97:Drivers/STM32G0xx_HAL_Driver/Src/stm32g0xx_hal_dma.c ****   * @{
  98:Drivers/STM32G0xx_HAL_Driver/Src/stm32g0xx_hal_dma.c ****   */
  99:Drivers/STM32G0xx_HAL_Driver/Src/stm32g0xx_hal_dma.c **** 
 100:Drivers/STM32G0xx_HAL_Driver/Src/stm32g0xx_hal_dma.c **** #ifdef HAL_DMA_MODULE_ENABLED
 101:Drivers/STM32G0xx_HAL_Driver/Src/stm32g0xx_hal_dma.c **** 
 102:Drivers/STM32G0xx_HAL_Driver/Src/stm32g0xx_hal_dma.c **** /* Private typedef -----------------------------------------------------------*/
 103:Drivers/STM32G0xx_HAL_Driver/Src/stm32g0xx_hal_dma.c **** /* Private define ------------------------------------------------------------*/
 104:Drivers/STM32G0xx_HAL_Driver/Src/stm32g0xx_hal_dma.c **** /* Private macro -------------------------------------------------------------*/
 105:Drivers/STM32G0xx_HAL_Driver/Src/stm32g0xx_hal_dma.c **** /* Private variables ---------------------------------------------------------*/
 106:Drivers/STM32G0xx_HAL_Driver/Src/stm32g0xx_hal_dma.c **** /* Private function prototypes -----------------------------------------------*/
 107:Drivers/STM32G0xx_HAL_Driver/Src/stm32g0xx_hal_dma.c **** 
 108:Drivers/STM32G0xx_HAL_Driver/Src/stm32g0xx_hal_dma.c **** /** @defgroup DMA_Private_Functions DMA Private Functions
 109:Drivers/STM32G0xx_HAL_Driver/Src/stm32g0xx_hal_dma.c ****   * @{
 110:Drivers/STM32G0xx_HAL_Driver/Src/stm32g0xx_hal_dma.c ****   */
 111:Drivers/STM32G0xx_HAL_Driver/Src/stm32g0xx_hal_dma.c **** static void DMA_SetConfig(DMA_HandleTypeDef *hdma, uint32_t SrcAddress, uint32_t DstAddress, uint32
 112:Drivers/STM32G0xx_HAL_Driver/Src/stm32g0xx_hal_dma.c **** static void DMA_CalcDMAMUXChannelBaseAndMask(DMA_HandleTypeDef *hdma);
 113:Drivers/STM32G0xx_HAL_Driver/Src/stm32g0xx_hal_dma.c **** static void DMA_CalcDMAMUXRequestGenBaseAndMask(DMA_HandleTypeDef *hdma);
 114:Drivers/STM32G0xx_HAL_Driver/Src/stm32g0xx_hal_dma.c **** 
 115:Drivers/STM32G0xx_HAL_Driver/Src/stm32g0xx_hal_dma.c **** /**
 116:Drivers/STM32G0xx_HAL_Driver/Src/stm32g0xx_hal_dma.c ****   * @}
 117:Drivers/STM32G0xx_HAL_Driver/Src/stm32g0xx_hal_dma.c ****   */
 118:Drivers/STM32G0xx_HAL_Driver/Src/stm32g0xx_hal_dma.c **** 
 119:Drivers/STM32G0xx_HAL_Driver/Src/stm32g0xx_hal_dma.c **** /* Exported functions ---------------------------------------------------------*/
 120:Drivers/STM32G0xx_HAL_Driver/Src/stm32g0xx_hal_dma.c **** 
 121:Drivers/STM32G0xx_HAL_Driver/Src/stm32g0xx_hal_dma.c **** /** @defgroup DMA_Exported_Functions DMA Exported Functions
 122:Drivers/STM32G0xx_HAL_Driver/Src/stm32g0xx_hal_dma.c ****   * @{
 123:Drivers/STM32G0xx_HAL_Driver/Src/stm32g0xx_hal_dma.c ****   */
 124:Drivers/STM32G0xx_HAL_Driver/Src/stm32g0xx_hal_dma.c **** 
 125:Drivers/STM32G0xx_HAL_Driver/Src/stm32g0xx_hal_dma.c **** /** @defgroup DMA_Exported_Functions_Group1 Initialization and de-initialization functions
 126:Drivers/STM32G0xx_HAL_Driver/Src/stm32g0xx_hal_dma.c ****  *  @brief   Initialization and de-initialization functions
 127:Drivers/STM32G0xx_HAL_Driver/Src/stm32g0xx_hal_dma.c ****  *
 128:Drivers/STM32G0xx_HAL_Driver/Src/stm32g0xx_hal_dma.c **** @verbatim
 129:Drivers/STM32G0xx_HAL_Driver/Src/stm32g0xx_hal_dma.c ****  ===============================================================================
 130:Drivers/STM32G0xx_HAL_Driver/Src/stm32g0xx_hal_dma.c ****              ##### Initialization and de-initialization functions  #####
 131:Drivers/STM32G0xx_HAL_Driver/Src/stm32g0xx_hal_dma.c ****  ===============================================================================
 132:Drivers/STM32G0xx_HAL_Driver/Src/stm32g0xx_hal_dma.c ****     [..]
 133:Drivers/STM32G0xx_HAL_Driver/Src/stm32g0xx_hal_dma.c ****     This section provides functions allowing to initialize the DMA Channel source
 134:Drivers/STM32G0xx_HAL_Driver/Src/stm32g0xx_hal_dma.c ****     and destination addresses, incrementation and data sizes, transfer direction,
 135:Drivers/STM32G0xx_HAL_Driver/Src/stm32g0xx_hal_dma.c ****     circular/normal mode selection, memory-to-memory mode selection and Channel priority value.
 136:Drivers/STM32G0xx_HAL_Driver/Src/stm32g0xx_hal_dma.c ****     [..]
 137:Drivers/STM32G0xx_HAL_Driver/Src/stm32g0xx_hal_dma.c ****     The HAL_DMA_Init() function follows the DMA configuration procedures as described in
 138:Drivers/STM32G0xx_HAL_Driver/Src/stm32g0xx_hal_dma.c ****     reference manual.
 139:Drivers/STM32G0xx_HAL_Driver/Src/stm32g0xx_hal_dma.c **** 
 140:Drivers/STM32G0xx_HAL_Driver/Src/stm32g0xx_hal_dma.c **** @endverbatim
ARM GAS  C:\Users\SOLDER~1\AppData\Local\Temp\cc8E0pRj.s 			page 4


 141:Drivers/STM32G0xx_HAL_Driver/Src/stm32g0xx_hal_dma.c ****   * @{
 142:Drivers/STM32G0xx_HAL_Driver/Src/stm32g0xx_hal_dma.c ****   */
 143:Drivers/STM32G0xx_HAL_Driver/Src/stm32g0xx_hal_dma.c **** 
 144:Drivers/STM32G0xx_HAL_Driver/Src/stm32g0xx_hal_dma.c **** /**
 145:Drivers/STM32G0xx_HAL_Driver/Src/stm32g0xx_hal_dma.c ****   * @brief Initialize the DMA according to the specified
 146:Drivers/STM32G0xx_HAL_Driver/Src/stm32g0xx_hal_dma.c ****   *        parameters in the DMA_InitTypeDef and initialize the associated handle.
 147:Drivers/STM32G0xx_HAL_Driver/Src/stm32g0xx_hal_dma.c ****   * @param hdma Pointer to a DMA_HandleTypeDef structure that contains
 148:Drivers/STM32G0xx_HAL_Driver/Src/stm32g0xx_hal_dma.c ****   *             the configuration information for the specified DMA Channel.
 149:Drivers/STM32G0xx_HAL_Driver/Src/stm32g0xx_hal_dma.c ****   * @retval HAL status
 150:Drivers/STM32G0xx_HAL_Driver/Src/stm32g0xx_hal_dma.c ****   */
 151:Drivers/STM32G0xx_HAL_Driver/Src/stm32g0xx_hal_dma.c **** HAL_StatusTypeDef HAL_DMA_Init(DMA_HandleTypeDef *hdma)
 152:Drivers/STM32G0xx_HAL_Driver/Src/stm32g0xx_hal_dma.c **** {
  34              		.loc 1 152 1
  35              		.cfi_startproc
  36              		@ args = 0, pretend = 0, frame = 8
  37              		@ frame_needed = 1, uses_anonymous_args = 0
  38 0000 80B5     		push	{r7, lr}
  39              		.cfi_def_cfa_offset 8
  40              		.cfi_offset 7, -8
  41              		.cfi_offset 14, -4
  42 0002 82B0     		sub	sp, sp, #8
  43              		.cfi_def_cfa_offset 16
  44 0004 00AF     		add	r7, sp, #0
  45              		.cfi_def_cfa_register 7
  46 0006 7860     		str	r0, [r7, #4]
 153:Drivers/STM32G0xx_HAL_Driver/Src/stm32g0xx_hal_dma.c ****   /* Check the DMA handle allocation */
 154:Drivers/STM32G0xx_HAL_Driver/Src/stm32g0xx_hal_dma.c ****   if (hdma == NULL)
  47              		.loc 1 154 6
  48 0008 7B68     		ldr	r3, [r7, #4]
  49 000a 002B     		cmp	r3, #0
  50 000c 01D1     		bne	.L2
 155:Drivers/STM32G0xx_HAL_Driver/Src/stm32g0xx_hal_dma.c ****   {
 156:Drivers/STM32G0xx_HAL_Driver/Src/stm32g0xx_hal_dma.c ****     return HAL_ERROR;
  51              		.loc 1 156 12
  52 000e 0123     		movs	r3, #1
  53 0010 91E0     		b	.L3
  54              	.L2:
 157:Drivers/STM32G0xx_HAL_Driver/Src/stm32g0xx_hal_dma.c ****   }
 158:Drivers/STM32G0xx_HAL_Driver/Src/stm32g0xx_hal_dma.c **** 
 159:Drivers/STM32G0xx_HAL_Driver/Src/stm32g0xx_hal_dma.c ****   /* Check the parameters */
 160:Drivers/STM32G0xx_HAL_Driver/Src/stm32g0xx_hal_dma.c ****   assert_param(IS_DMA_ALL_INSTANCE(hdma->Instance));
 161:Drivers/STM32G0xx_HAL_Driver/Src/stm32g0xx_hal_dma.c ****   assert_param(IS_DMA_DIRECTION(hdma->Init.Direction));
 162:Drivers/STM32G0xx_HAL_Driver/Src/stm32g0xx_hal_dma.c ****   assert_param(IS_DMA_PERIPHERAL_INC_STATE(hdma->Init.PeriphInc));
 163:Drivers/STM32G0xx_HAL_Driver/Src/stm32g0xx_hal_dma.c ****   assert_param(IS_DMA_MEMORY_INC_STATE(hdma->Init.MemInc));
 164:Drivers/STM32G0xx_HAL_Driver/Src/stm32g0xx_hal_dma.c ****   assert_param(IS_DMA_PERIPHERAL_DATA_SIZE(hdma->Init.PeriphDataAlignment));
 165:Drivers/STM32G0xx_HAL_Driver/Src/stm32g0xx_hal_dma.c ****   assert_param(IS_DMA_MEMORY_DATA_SIZE(hdma->Init.MemDataAlignment));
 166:Drivers/STM32G0xx_HAL_Driver/Src/stm32g0xx_hal_dma.c ****   assert_param(IS_DMA_MODE(hdma->Init.Mode));
 167:Drivers/STM32G0xx_HAL_Driver/Src/stm32g0xx_hal_dma.c ****   assert_param(IS_DMA_PRIORITY(hdma->Init.Priority));
 168:Drivers/STM32G0xx_HAL_Driver/Src/stm32g0xx_hal_dma.c **** 
 169:Drivers/STM32G0xx_HAL_Driver/Src/stm32g0xx_hal_dma.c ****   assert_param(IS_DMA_ALL_REQUEST(hdma->Init.Request));
 170:Drivers/STM32G0xx_HAL_Driver/Src/stm32g0xx_hal_dma.c **** 
 171:Drivers/STM32G0xx_HAL_Driver/Src/stm32g0xx_hal_dma.c ****   /* Compute the channel index */
 172:Drivers/STM32G0xx_HAL_Driver/Src/stm32g0xx_hal_dma.c **** #if defined(DMA2)
 173:Drivers/STM32G0xx_HAL_Driver/Src/stm32g0xx_hal_dma.c ****   if ((uint32_t)(hdma->Instance) < (uint32_t)(DMA2_Channel1))
  55              		.loc 1 173 22
  56 0012 7B68     		ldr	r3, [r7, #4]
  57 0014 1B68     		ldr	r3, [r3]
ARM GAS  C:\Users\SOLDER~1\AppData\Local\Temp\cc8E0pRj.s 			page 5


  58              		.loc 1 173 7
  59 0016 1A00     		movs	r2, r3
  60              		.loc 1 173 6
  61 0018 494B     		ldr	r3, .L9
  62 001a 9A42     		cmp	r2, r3
  63 001c 10D8     		bhi	.L4
 174:Drivers/STM32G0xx_HAL_Driver/Src/stm32g0xx_hal_dma.c ****   {
 175:Drivers/STM32G0xx_HAL_Driver/Src/stm32g0xx_hal_dma.c ****     /* DMA1 */
 176:Drivers/STM32G0xx_HAL_Driver/Src/stm32g0xx_hal_dma.c ****     hdma->ChannelIndex = (((uint32_t)hdma->Instance - (uint32_t)DMA1_Channel1) / ((uint32_t)DMA1_Ch
  64              		.loc 1 176 42
  65 001e 7B68     		ldr	r3, [r7, #4]
  66 0020 1B68     		ldr	r3, [r3]
  67              		.loc 1 176 53
  68 0022 484A     		ldr	r2, .L9+4
  69 0024 9446     		mov	ip, r2
  70 0026 6344     		add	r3, r3, ip
  71              		.loc 1 176 80
  72 0028 1421     		movs	r1, #20
  73 002a 1800     		movs	r0, r3
  74 002c FFF7FEFF 		bl	__aeabi_uidiv
  75 0030 0300     		movs	r3, r0
  76              		.loc 1 176 135
  77 0032 9A00     		lsls	r2, r3, #2
  78              		.loc 1 176 24
  79 0034 7B68     		ldr	r3, [r7, #4]
  80 0036 5A64     		str	r2, [r3, #68]
 177:Drivers/STM32G0xx_HAL_Driver/Src/stm32g0xx_hal_dma.c ****     hdma->DmaBaseAddress = DMA1;
  81              		.loc 1 177 26
  82 0038 7B68     		ldr	r3, [r7, #4]
  83 003a 434A     		ldr	r2, .L9+8
  84 003c 1A64     		str	r2, [r3, #64]
  85 003e 0FE0     		b	.L5
  86              	.L4:
 178:Drivers/STM32G0xx_HAL_Driver/Src/stm32g0xx_hal_dma.c ****   }
 179:Drivers/STM32G0xx_HAL_Driver/Src/stm32g0xx_hal_dma.c ****   else
 180:Drivers/STM32G0xx_HAL_Driver/Src/stm32g0xx_hal_dma.c ****   {
 181:Drivers/STM32G0xx_HAL_Driver/Src/stm32g0xx_hal_dma.c ****     /* DMA2 */
 182:Drivers/STM32G0xx_HAL_Driver/Src/stm32g0xx_hal_dma.c ****     hdma->ChannelIndex = (((uint32_t)hdma->Instance - (uint32_t)DMA2_Channel1) / ((uint32_t)DMA2_Ch
  87              		.loc 1 182 42
  88 0040 7B68     		ldr	r3, [r7, #4]
  89 0042 1B68     		ldr	r3, [r3]
  90              		.loc 1 182 53
  91 0044 414A     		ldr	r2, .L9+12
  92 0046 9446     		mov	ip, r2
  93 0048 6344     		add	r3, r3, ip
  94              		.loc 1 182 80
  95 004a 1421     		movs	r1, #20
  96 004c 1800     		movs	r0, r3
  97 004e FFF7FEFF 		bl	__aeabi_uidiv
  98 0052 0300     		movs	r3, r0
  99              		.loc 1 182 135
 100 0054 9A00     		lsls	r2, r3, #2
 101              		.loc 1 182 24
 102 0056 7B68     		ldr	r3, [r7, #4]
 103 0058 5A64     		str	r2, [r3, #68]
 183:Drivers/STM32G0xx_HAL_Driver/Src/stm32g0xx_hal_dma.c ****     hdma->DmaBaseAddress = DMA2;
 104              		.loc 1 183 26
ARM GAS  C:\Users\SOLDER~1\AppData\Local\Temp\cc8E0pRj.s 			page 6


 105 005a 7B68     		ldr	r3, [r7, #4]
 106 005c 3C4A     		ldr	r2, .L9+16
 107 005e 1A64     		str	r2, [r3, #64]
 108              	.L5:
 184:Drivers/STM32G0xx_HAL_Driver/Src/stm32g0xx_hal_dma.c ****   }
 185:Drivers/STM32G0xx_HAL_Driver/Src/stm32g0xx_hal_dma.c **** #else
 186:Drivers/STM32G0xx_HAL_Driver/Src/stm32g0xx_hal_dma.c ****   hdma->ChannelIndex = (((uint32_t)hdma->Instance - (uint32_t)DMA1_Channel1) / ((uint32_t)DMA1_Chan
 187:Drivers/STM32G0xx_HAL_Driver/Src/stm32g0xx_hal_dma.c **** #endif /* DMA2 */
 188:Drivers/STM32G0xx_HAL_Driver/Src/stm32g0xx_hal_dma.c **** 
 189:Drivers/STM32G0xx_HAL_Driver/Src/stm32g0xx_hal_dma.c ****   /* Change DMA peripheral state */
 190:Drivers/STM32G0xx_HAL_Driver/Src/stm32g0xx_hal_dma.c ****   hdma->State = HAL_DMA_STATE_BUSY;
 109              		.loc 1 190 15
 110 0060 7B68     		ldr	r3, [r7, #4]
 111 0062 2522     		movs	r2, #37
 112 0064 0221     		movs	r1, #2
 113 0066 9954     		strb	r1, [r3, r2]
 191:Drivers/STM32G0xx_HAL_Driver/Src/stm32g0xx_hal_dma.c **** 
 192:Drivers/STM32G0xx_HAL_Driver/Src/stm32g0xx_hal_dma.c ****   /* Clear PL, MSIZE, PSIZE, MINC, PINC, CIRC, DIR and MEM2MEM bits */
 193:Drivers/STM32G0xx_HAL_Driver/Src/stm32g0xx_hal_dma.c ****   CLEAR_BIT(hdma->Instance->CCR, (DMA_CCR_PL    | DMA_CCR_MSIZE  | DMA_CCR_PSIZE  | \
 114              		.loc 1 193 3
 115 0068 7B68     		ldr	r3, [r7, #4]
 116 006a 1B68     		ldr	r3, [r3]
 117 006c 1A68     		ldr	r2, [r3]
 118 006e 7B68     		ldr	r3, [r7, #4]
 119 0070 1B68     		ldr	r3, [r3]
 120 0072 3849     		ldr	r1, .L9+20
 121 0074 0A40     		ands	r2, r1
 122 0076 1A60     		str	r2, [r3]
 194:Drivers/STM32G0xx_HAL_Driver/Src/stm32g0xx_hal_dma.c ****                                   DMA_CCR_MINC  | DMA_CCR_PINC   | DMA_CCR_CIRC   | \
 195:Drivers/STM32G0xx_HAL_Driver/Src/stm32g0xx_hal_dma.c ****                                   DMA_CCR_DIR   | DMA_CCR_MEM2MEM));
 196:Drivers/STM32G0xx_HAL_Driver/Src/stm32g0xx_hal_dma.c **** 
 197:Drivers/STM32G0xx_HAL_Driver/Src/stm32g0xx_hal_dma.c ****   /* Set the DMA Channel configuration */
 198:Drivers/STM32G0xx_HAL_Driver/Src/stm32g0xx_hal_dma.c ****   SET_BIT(hdma->Instance->CCR, (hdma->Init.Direction           |                               \
 123              		.loc 1 198 3
 124 0078 7B68     		ldr	r3, [r7, #4]
 125 007a 1B68     		ldr	r3, [r3]
 126 007c 1968     		ldr	r1, [r3]
 127 007e 7B68     		ldr	r3, [r7, #4]
 128 0080 9A68     		ldr	r2, [r3, #8]
 129 0082 7B68     		ldr	r3, [r7, #4]
 130 0084 DB68     		ldr	r3, [r3, #12]
 131 0086 1A43     		orrs	r2, r3
 132 0088 7B68     		ldr	r3, [r7, #4]
 133 008a 1B69     		ldr	r3, [r3, #16]
 134 008c 1A43     		orrs	r2, r3
 135 008e 7B68     		ldr	r3, [r7, #4]
 136 0090 5B69     		ldr	r3, [r3, #20]
 137 0092 1A43     		orrs	r2, r3
 138 0094 7B68     		ldr	r3, [r7, #4]
 139 0096 9B69     		ldr	r3, [r3, #24]
 140 0098 1A43     		orrs	r2, r3
 141 009a 7B68     		ldr	r3, [r7, #4]
 142 009c DB69     		ldr	r3, [r3, #28]
 143 009e 1A43     		orrs	r2, r3
 144 00a0 7B68     		ldr	r3, [r7, #4]
 145 00a2 1B6A     		ldr	r3, [r3, #32]
 146 00a4 1A43     		orrs	r2, r3
ARM GAS  C:\Users\SOLDER~1\AppData\Local\Temp\cc8E0pRj.s 			page 7


 147 00a6 7B68     		ldr	r3, [r7, #4]
 148 00a8 1B68     		ldr	r3, [r3]
 149 00aa 0A43     		orrs	r2, r1
 150 00ac 1A60     		str	r2, [r3]
 199:Drivers/STM32G0xx_HAL_Driver/Src/stm32g0xx_hal_dma.c ****                                 hdma->Init.PeriphInc           | hdma->Init.MemInc           | \
 200:Drivers/STM32G0xx_HAL_Driver/Src/stm32g0xx_hal_dma.c ****                                 hdma->Init.PeriphDataAlignment | hdma->Init.MemDataAlignment | \
 201:Drivers/STM32G0xx_HAL_Driver/Src/stm32g0xx_hal_dma.c ****                                 hdma->Init.Mode                | hdma->Init.Priority));
 202:Drivers/STM32G0xx_HAL_Driver/Src/stm32g0xx_hal_dma.c **** 
 203:Drivers/STM32G0xx_HAL_Driver/Src/stm32g0xx_hal_dma.c ****   /* Initialize parameters for DMAMUX channel :
 204:Drivers/STM32G0xx_HAL_Driver/Src/stm32g0xx_hal_dma.c ****      DMAmuxChannel, DMAmuxChannelStatus and DMAmuxChannelStatusMask
 205:Drivers/STM32G0xx_HAL_Driver/Src/stm32g0xx_hal_dma.c ****   */
 206:Drivers/STM32G0xx_HAL_Driver/Src/stm32g0xx_hal_dma.c ****   DMA_CalcDMAMUXChannelBaseAndMask(hdma);
 151              		.loc 1 206 3
 152 00ae 7B68     		ldr	r3, [r7, #4]
 153 00b0 1800     		movs	r0, r3
 154 00b2 FFF7FEFF 		bl	DMA_CalcDMAMUXChannelBaseAndMask
 207:Drivers/STM32G0xx_HAL_Driver/Src/stm32g0xx_hal_dma.c **** 
 208:Drivers/STM32G0xx_HAL_Driver/Src/stm32g0xx_hal_dma.c ****   if (hdma->Init.Direction == DMA_MEMORY_TO_MEMORY)
 155              		.loc 1 208 17
 156 00b6 7B68     		ldr	r3, [r7, #4]
 157 00b8 9A68     		ldr	r2, [r3, #8]
 158              		.loc 1 208 6
 159 00ba 8023     		movs	r3, #128
 160 00bc DB01     		lsls	r3, r3, #7
 161 00be 9A42     		cmp	r2, r3
 162 00c0 02D1     		bne	.L6
 209:Drivers/STM32G0xx_HAL_Driver/Src/stm32g0xx_hal_dma.c ****   {
 210:Drivers/STM32G0xx_HAL_Driver/Src/stm32g0xx_hal_dma.c ****     /* if memory to memory force the request to 0*/
 211:Drivers/STM32G0xx_HAL_Driver/Src/stm32g0xx_hal_dma.c ****     hdma->Init.Request = DMA_REQUEST_MEM2MEM;
 163              		.loc 1 211 24
 164 00c2 7B68     		ldr	r3, [r7, #4]
 165 00c4 0022     		movs	r2, #0
 166 00c6 5A60     		str	r2, [r3, #4]
 167              	.L6:
 212:Drivers/STM32G0xx_HAL_Driver/Src/stm32g0xx_hal_dma.c ****   }
 213:Drivers/STM32G0xx_HAL_Driver/Src/stm32g0xx_hal_dma.c **** 
 214:Drivers/STM32G0xx_HAL_Driver/Src/stm32g0xx_hal_dma.c ****   /* Set peripheral request  to DMAMUX channel */
 215:Drivers/STM32G0xx_HAL_Driver/Src/stm32g0xx_hal_dma.c ****   hdma->DMAmuxChannel->CCR = (hdma->Init.Request & DMAMUX_CxCR_DMAREQ_ID);
 168              		.loc 1 215 41
 169 00c8 7B68     		ldr	r3, [r7, #4]
 170 00ca 5A68     		ldr	r2, [r3, #4]
 171              		.loc 1 215 7
 172 00cc 7B68     		ldr	r3, [r7, #4]
 173 00ce 9B6C     		ldr	r3, [r3, #72]
 174              		.loc 1 215 50
 175 00d0 7F21     		movs	r1, #127
 176 00d2 0A40     		ands	r2, r1
 177              		.loc 1 215 28
 178 00d4 1A60     		str	r2, [r3]
 216:Drivers/STM32G0xx_HAL_Driver/Src/stm32g0xx_hal_dma.c **** 
 217:Drivers/STM32G0xx_HAL_Driver/Src/stm32g0xx_hal_dma.c ****   /* Clear the DMAMUX synchro overrun flag */
 218:Drivers/STM32G0xx_HAL_Driver/Src/stm32g0xx_hal_dma.c ****   hdma->DMAmuxChannelStatus->CFR = hdma->DMAmuxChannelStatusMask;
 179              		.loc 1 218 7
 180 00d6 7B68     		ldr	r3, [r7, #4]
 181 00d8 DB6C     		ldr	r3, [r3, #76]
 182              		.loc 1 218 40
 183 00da 7A68     		ldr	r2, [r7, #4]
ARM GAS  C:\Users\SOLDER~1\AppData\Local\Temp\cc8E0pRj.s 			page 8


 184 00dc 126D     		ldr	r2, [r2, #80]
 185              		.loc 1 218 34
 186 00de 5A60     		str	r2, [r3, #4]
 219:Drivers/STM32G0xx_HAL_Driver/Src/stm32g0xx_hal_dma.c **** 
 220:Drivers/STM32G0xx_HAL_Driver/Src/stm32g0xx_hal_dma.c ****   if (((hdma->Init.Request >  0UL) && (hdma->Init.Request <= DMA_REQUEST_GENERATOR3)))
 187              		.loc 1 220 19
 188 00e0 7B68     		ldr	r3, [r7, #4]
 189 00e2 5B68     		ldr	r3, [r3, #4]
 190              		.loc 1 220 6
 191 00e4 002B     		cmp	r3, #0
 192 00e6 11D0     		beq	.L7
 193              		.loc 1 220 50 discriminator 1
 194 00e8 7B68     		ldr	r3, [r7, #4]
 195 00ea 5B68     		ldr	r3, [r3, #4]
 196              		.loc 1 220 36 discriminator 1
 197 00ec 042B     		cmp	r3, #4
 198 00ee 0DD8     		bhi	.L7
 221:Drivers/STM32G0xx_HAL_Driver/Src/stm32g0xx_hal_dma.c ****   {
 222:Drivers/STM32G0xx_HAL_Driver/Src/stm32g0xx_hal_dma.c ****     /* Initialize parameters for DMAMUX request generator :
 223:Drivers/STM32G0xx_HAL_Driver/Src/stm32g0xx_hal_dma.c ****        DMAmuxRequestGen, DMAmuxRequestGenStatus and DMAmuxRequestGenStatusMask
 224:Drivers/STM32G0xx_HAL_Driver/Src/stm32g0xx_hal_dma.c ****     */
 225:Drivers/STM32G0xx_HAL_Driver/Src/stm32g0xx_hal_dma.c ****     DMA_CalcDMAMUXRequestGenBaseAndMask(hdma);
 199              		.loc 1 225 5
 200 00f0 7B68     		ldr	r3, [r7, #4]
 201 00f2 1800     		movs	r0, r3
 202 00f4 FFF7FEFF 		bl	DMA_CalcDMAMUXRequestGenBaseAndMask
 226:Drivers/STM32G0xx_HAL_Driver/Src/stm32g0xx_hal_dma.c **** 
 227:Drivers/STM32G0xx_HAL_Driver/Src/stm32g0xx_hal_dma.c ****     /* Reset the DMAMUX request generator register*/
 228:Drivers/STM32G0xx_HAL_Driver/Src/stm32g0xx_hal_dma.c ****     hdma->DMAmuxRequestGen->RGCR = 0U;
 203              		.loc 1 228 9
 204 00f8 7B68     		ldr	r3, [r7, #4]
 205 00fa 5B6D     		ldr	r3, [r3, #84]
 206              		.loc 1 228 34
 207 00fc 0022     		movs	r2, #0
 208 00fe 1A60     		str	r2, [r3]
 229:Drivers/STM32G0xx_HAL_Driver/Src/stm32g0xx_hal_dma.c **** 
 230:Drivers/STM32G0xx_HAL_Driver/Src/stm32g0xx_hal_dma.c ****     /* Clear the DMAMUX request generator overrun flag */
 231:Drivers/STM32G0xx_HAL_Driver/Src/stm32g0xx_hal_dma.c ****     hdma->DMAmuxRequestGenStatus->RGCFR = hdma->DMAmuxRequestGenStatusMask;
 209              		.loc 1 231 9
 210 0100 7B68     		ldr	r3, [r7, #4]
 211 0102 9B6D     		ldr	r3, [r3, #88]
 212              		.loc 1 231 47
 213 0104 7A68     		ldr	r2, [r7, #4]
 214 0106 D26D     		ldr	r2, [r2, #92]
 215              		.loc 1 231 41
 216 0108 5A60     		str	r2, [r3, #4]
 217 010a 08E0     		b	.L8
 218              	.L7:
 232:Drivers/STM32G0xx_HAL_Driver/Src/stm32g0xx_hal_dma.c ****   }
 233:Drivers/STM32G0xx_HAL_Driver/Src/stm32g0xx_hal_dma.c ****   else
 234:Drivers/STM32G0xx_HAL_Driver/Src/stm32g0xx_hal_dma.c ****   {
 235:Drivers/STM32G0xx_HAL_Driver/Src/stm32g0xx_hal_dma.c ****     hdma->DMAmuxRequestGen = 0U;
 219              		.loc 1 235 28
 220 010c 7B68     		ldr	r3, [r7, #4]
 221 010e 0022     		movs	r2, #0
 222 0110 5A65     		str	r2, [r3, #84]
 236:Drivers/STM32G0xx_HAL_Driver/Src/stm32g0xx_hal_dma.c ****     hdma->DMAmuxRequestGenStatus = 0U;
ARM GAS  C:\Users\SOLDER~1\AppData\Local\Temp\cc8E0pRj.s 			page 9


 223              		.loc 1 236 34
 224 0112 7B68     		ldr	r3, [r7, #4]
 225 0114 0022     		movs	r2, #0
 226 0116 9A65     		str	r2, [r3, #88]
 237:Drivers/STM32G0xx_HAL_Driver/Src/stm32g0xx_hal_dma.c ****     hdma->DMAmuxRequestGenStatusMask = 0U;
 227              		.loc 1 237 38
 228 0118 7B68     		ldr	r3, [r7, #4]
 229 011a 0022     		movs	r2, #0
 230 011c DA65     		str	r2, [r3, #92]
 231              	.L8:
 238:Drivers/STM32G0xx_HAL_Driver/Src/stm32g0xx_hal_dma.c ****   }
 239:Drivers/STM32G0xx_HAL_Driver/Src/stm32g0xx_hal_dma.c **** 
 240:Drivers/STM32G0xx_HAL_Driver/Src/stm32g0xx_hal_dma.c ****   /* Initialize the error code */
 241:Drivers/STM32G0xx_HAL_Driver/Src/stm32g0xx_hal_dma.c ****   hdma->ErrorCode = HAL_DMA_ERROR_NONE;
 232              		.loc 1 241 19
 233 011e 7B68     		ldr	r3, [r7, #4]
 234 0120 0022     		movs	r2, #0
 235 0122 DA63     		str	r2, [r3, #60]
 242:Drivers/STM32G0xx_HAL_Driver/Src/stm32g0xx_hal_dma.c **** 
 243:Drivers/STM32G0xx_HAL_Driver/Src/stm32g0xx_hal_dma.c ****   /* Initialize the DMA state*/
 244:Drivers/STM32G0xx_HAL_Driver/Src/stm32g0xx_hal_dma.c ****   hdma->State = HAL_DMA_STATE_READY;
 236              		.loc 1 244 15
 237 0124 7B68     		ldr	r3, [r7, #4]
 238 0126 2522     		movs	r2, #37
 239 0128 0121     		movs	r1, #1
 240 012a 9954     		strb	r1, [r3, r2]
 245:Drivers/STM32G0xx_HAL_Driver/Src/stm32g0xx_hal_dma.c **** 
 246:Drivers/STM32G0xx_HAL_Driver/Src/stm32g0xx_hal_dma.c ****   /* Release Lock */
 247:Drivers/STM32G0xx_HAL_Driver/Src/stm32g0xx_hal_dma.c ****   __HAL_UNLOCK(hdma);
 241              		.loc 1 247 3
 242 012c 7B68     		ldr	r3, [r7, #4]
 243 012e 2422     		movs	r2, #36
 244 0130 0021     		movs	r1, #0
 245 0132 9954     		strb	r1, [r3, r2]
 248:Drivers/STM32G0xx_HAL_Driver/Src/stm32g0xx_hal_dma.c **** 
 249:Drivers/STM32G0xx_HAL_Driver/Src/stm32g0xx_hal_dma.c ****   return HAL_OK;
 246              		.loc 1 249 10
 247 0134 0023     		movs	r3, #0
 248              	.L3:
 250:Drivers/STM32G0xx_HAL_Driver/Src/stm32g0xx_hal_dma.c **** }
 249              		.loc 1 250 1
 250 0136 1800     		movs	r0, r3
 251 0138 BD46     		mov	sp, r7
 252 013a 02B0     		add	sp, sp, #8
 253              		@ sp needed
 254 013c 80BD     		pop	{r7, pc}
 255              	.L10:
 256 013e C046     		.align	2
 257              	.L9:
 258 0140 07040240 		.word	1073873927
 259 0144 F8FFFDBF 		.word	-1073872904
 260 0148 00000240 		.word	1073872896
 261 014c F8FBFDBF 		.word	-1073873928
 262 0150 00040240 		.word	1073873920
 263 0154 0F80FFFF 		.word	-32753
 264              		.cfi_endproc
 265              	.LFE355:
ARM GAS  C:\Users\SOLDER~1\AppData\Local\Temp\cc8E0pRj.s 			page 10


 267              		.section	.text.HAL_DMA_DeInit,"ax",%progbits
 268              		.align	1
 269              		.global	HAL_DMA_DeInit
 270              		.syntax unified
 271              		.code	16
 272              		.thumb_func
 274              	HAL_DMA_DeInit:
 275              	.LFB356:
 251:Drivers/STM32G0xx_HAL_Driver/Src/stm32g0xx_hal_dma.c **** 
 252:Drivers/STM32G0xx_HAL_Driver/Src/stm32g0xx_hal_dma.c **** /**
 253:Drivers/STM32G0xx_HAL_Driver/Src/stm32g0xx_hal_dma.c ****   * @brief DeInitialize the DMA peripheral.
 254:Drivers/STM32G0xx_HAL_Driver/Src/stm32g0xx_hal_dma.c ****   * @param hdma Pointer to a DMA_HandleTypeDef structure that contains
 255:Drivers/STM32G0xx_HAL_Driver/Src/stm32g0xx_hal_dma.c ****   *             the configuration information for the specified DMA Channel.
 256:Drivers/STM32G0xx_HAL_Driver/Src/stm32g0xx_hal_dma.c ****   * @retval HAL status
 257:Drivers/STM32G0xx_HAL_Driver/Src/stm32g0xx_hal_dma.c ****   */
 258:Drivers/STM32G0xx_HAL_Driver/Src/stm32g0xx_hal_dma.c **** HAL_StatusTypeDef HAL_DMA_DeInit(DMA_HandleTypeDef *hdma)
 259:Drivers/STM32G0xx_HAL_Driver/Src/stm32g0xx_hal_dma.c **** {
 276              		.loc 1 259 1
 277              		.cfi_startproc
 278              		@ args = 0, pretend = 0, frame = 8
 279              		@ frame_needed = 1, uses_anonymous_args = 0
 280 0000 80B5     		push	{r7, lr}
 281              		.cfi_def_cfa_offset 8
 282              		.cfi_offset 7, -8
 283              		.cfi_offset 14, -4
 284 0002 82B0     		sub	sp, sp, #8
 285              		.cfi_def_cfa_offset 16
 286 0004 00AF     		add	r7, sp, #0
 287              		.cfi_def_cfa_register 7
 288 0006 7860     		str	r0, [r7, #4]
 260:Drivers/STM32G0xx_HAL_Driver/Src/stm32g0xx_hal_dma.c ****   /* Check the DMA handle allocation */
 261:Drivers/STM32G0xx_HAL_Driver/Src/stm32g0xx_hal_dma.c ****   if (NULL == hdma)
 289              		.loc 1 261 6
 290 0008 7B68     		ldr	r3, [r7, #4]
 291 000a 002B     		cmp	r3, #0
 292 000c 01D1     		bne	.L12
 262:Drivers/STM32G0xx_HAL_Driver/Src/stm32g0xx_hal_dma.c ****   {
 263:Drivers/STM32G0xx_HAL_Driver/Src/stm32g0xx_hal_dma.c ****     return HAL_ERROR;
 293              		.loc 1 263 12
 294 000e 0123     		movs	r3, #1
 295 0010 7FE0     		b	.L13
 296              	.L12:
 264:Drivers/STM32G0xx_HAL_Driver/Src/stm32g0xx_hal_dma.c ****   }
 265:Drivers/STM32G0xx_HAL_Driver/Src/stm32g0xx_hal_dma.c **** 
 266:Drivers/STM32G0xx_HAL_Driver/Src/stm32g0xx_hal_dma.c ****   /* Check the parameters */
 267:Drivers/STM32G0xx_HAL_Driver/Src/stm32g0xx_hal_dma.c ****   assert_param(IS_DMA_ALL_INSTANCE(hdma->Instance));
 268:Drivers/STM32G0xx_HAL_Driver/Src/stm32g0xx_hal_dma.c **** 
 269:Drivers/STM32G0xx_HAL_Driver/Src/stm32g0xx_hal_dma.c ****   /* Disable the selected DMA Channelx */
 270:Drivers/STM32G0xx_HAL_Driver/Src/stm32g0xx_hal_dma.c ****   __HAL_DMA_DISABLE(hdma);
 297              		.loc 1 270 3
 298 0012 7B68     		ldr	r3, [r7, #4]
 299 0014 1B68     		ldr	r3, [r3]
 300 0016 1A68     		ldr	r2, [r3]
 301 0018 7B68     		ldr	r3, [r7, #4]
 302 001a 1B68     		ldr	r3, [r3]
 303 001c 0121     		movs	r1, #1
 304 001e 8A43     		bics	r2, r1
ARM GAS  C:\Users\SOLDER~1\AppData\Local\Temp\cc8E0pRj.s 			page 11


 305 0020 1A60     		str	r2, [r3]
 271:Drivers/STM32G0xx_HAL_Driver/Src/stm32g0xx_hal_dma.c **** 
 272:Drivers/STM32G0xx_HAL_Driver/Src/stm32g0xx_hal_dma.c ****   /* Compute the channel index */
 273:Drivers/STM32G0xx_HAL_Driver/Src/stm32g0xx_hal_dma.c **** #if defined(DMA2)
 274:Drivers/STM32G0xx_HAL_Driver/Src/stm32g0xx_hal_dma.c ****   if ((uint32_t)(hdma->Instance) < (uint32_t)(DMA2_Channel1))
 306              		.loc 1 274 22
 307 0022 7B68     		ldr	r3, [r7, #4]
 308 0024 1B68     		ldr	r3, [r3]
 309              		.loc 1 274 7
 310 0026 1A00     		movs	r2, r3
 311              		.loc 1 274 6
 312 0028 3C4B     		ldr	r3, .L17
 313 002a 9A42     		cmp	r2, r3
 314 002c 10D8     		bhi	.L14
 275:Drivers/STM32G0xx_HAL_Driver/Src/stm32g0xx_hal_dma.c ****   {
 276:Drivers/STM32G0xx_HAL_Driver/Src/stm32g0xx_hal_dma.c ****     /* DMA1 */
 277:Drivers/STM32G0xx_HAL_Driver/Src/stm32g0xx_hal_dma.c ****     hdma->ChannelIndex = (((uint32_t)hdma->Instance - (uint32_t)DMA1_Channel1) / ((uint32_t)DMA1_Ch
 315              		.loc 1 277 42
 316 002e 7B68     		ldr	r3, [r7, #4]
 317 0030 1B68     		ldr	r3, [r3]
 318              		.loc 1 277 53
 319 0032 3B4A     		ldr	r2, .L17+4
 320 0034 9446     		mov	ip, r2
 321 0036 6344     		add	r3, r3, ip
 322              		.loc 1 277 80
 323 0038 1421     		movs	r1, #20
 324 003a 1800     		movs	r0, r3
 325 003c FFF7FEFF 		bl	__aeabi_uidiv
 326 0040 0300     		movs	r3, r0
 327              		.loc 1 277 135
 328 0042 9A00     		lsls	r2, r3, #2
 329              		.loc 1 277 24
 330 0044 7B68     		ldr	r3, [r7, #4]
 331 0046 5A64     		str	r2, [r3, #68]
 278:Drivers/STM32G0xx_HAL_Driver/Src/stm32g0xx_hal_dma.c ****     hdma->DmaBaseAddress = DMA1;
 332              		.loc 1 278 26
 333 0048 7B68     		ldr	r3, [r7, #4]
 334 004a 364A     		ldr	r2, .L17+8
 335 004c 1A64     		str	r2, [r3, #64]
 336 004e 0FE0     		b	.L15
 337              	.L14:
 279:Drivers/STM32G0xx_HAL_Driver/Src/stm32g0xx_hal_dma.c ****   }
 280:Drivers/STM32G0xx_HAL_Driver/Src/stm32g0xx_hal_dma.c ****   else
 281:Drivers/STM32G0xx_HAL_Driver/Src/stm32g0xx_hal_dma.c ****   {
 282:Drivers/STM32G0xx_HAL_Driver/Src/stm32g0xx_hal_dma.c ****     /* DMA2 */
 283:Drivers/STM32G0xx_HAL_Driver/Src/stm32g0xx_hal_dma.c ****     hdma->ChannelIndex = (((uint32_t)hdma->Instance - (uint32_t)DMA2_Channel1) / ((uint32_t)DMA2_Ch
 338              		.loc 1 283 42
 339 0050 7B68     		ldr	r3, [r7, #4]
 340 0052 1B68     		ldr	r3, [r3]
 341              		.loc 1 283 53
 342 0054 344A     		ldr	r2, .L17+12
 343 0056 9446     		mov	ip, r2
 344 0058 6344     		add	r3, r3, ip
 345              		.loc 1 283 80
 346 005a 1421     		movs	r1, #20
 347 005c 1800     		movs	r0, r3
 348 005e FFF7FEFF 		bl	__aeabi_uidiv
ARM GAS  C:\Users\SOLDER~1\AppData\Local\Temp\cc8E0pRj.s 			page 12


 349 0062 0300     		movs	r3, r0
 350              		.loc 1 283 135
 351 0064 9A00     		lsls	r2, r3, #2
 352              		.loc 1 283 24
 353 0066 7B68     		ldr	r3, [r7, #4]
 354 0068 5A64     		str	r2, [r3, #68]
 284:Drivers/STM32G0xx_HAL_Driver/Src/stm32g0xx_hal_dma.c ****     hdma->DmaBaseAddress = DMA2;
 355              		.loc 1 284 26
 356 006a 7B68     		ldr	r3, [r7, #4]
 357 006c 2F4A     		ldr	r2, .L17+16
 358 006e 1A64     		str	r2, [r3, #64]
 359              	.L15:
 285:Drivers/STM32G0xx_HAL_Driver/Src/stm32g0xx_hal_dma.c ****   }
 286:Drivers/STM32G0xx_HAL_Driver/Src/stm32g0xx_hal_dma.c **** #else
 287:Drivers/STM32G0xx_HAL_Driver/Src/stm32g0xx_hal_dma.c ****   hdma->ChannelIndex = (((uint32_t)hdma->Instance - (uint32_t)DMA1_Channel1) / ((uint32_t)DMA1_Chan
 288:Drivers/STM32G0xx_HAL_Driver/Src/stm32g0xx_hal_dma.c **** #endif /* DMA2 */
 289:Drivers/STM32G0xx_HAL_Driver/Src/stm32g0xx_hal_dma.c **** 
 290:Drivers/STM32G0xx_HAL_Driver/Src/stm32g0xx_hal_dma.c ****   /* Reset DMA Channel control register */
 291:Drivers/STM32G0xx_HAL_Driver/Src/stm32g0xx_hal_dma.c ****   hdma->Instance->CCR = 0U;
 360              		.loc 1 291 7
 361 0070 7B68     		ldr	r3, [r7, #4]
 362 0072 1B68     		ldr	r3, [r3]
 363              		.loc 1 291 23
 364 0074 0022     		movs	r2, #0
 365 0076 1A60     		str	r2, [r3]
 292:Drivers/STM32G0xx_HAL_Driver/Src/stm32g0xx_hal_dma.c **** 
 293:Drivers/STM32G0xx_HAL_Driver/Src/stm32g0xx_hal_dma.c ****   /* Clear all flags */
 294:Drivers/STM32G0xx_HAL_Driver/Src/stm32g0xx_hal_dma.c **** #if defined(DMA2)
 295:Drivers/STM32G0xx_HAL_Driver/Src/stm32g0xx_hal_dma.c ****   hdma->DmaBaseAddress->IFCR = (DMA_ISR_GIF1 << (hdma->ChannelIndex & 0x1CU));
 366              		.loc 1 295 54
 367 0078 7B68     		ldr	r3, [r7, #4]
 368 007a 5B6C     		ldr	r3, [r3, #68]
 369              		.loc 1 295 69
 370 007c 1C22     		movs	r2, #28
 371 007e 1A40     		ands	r2, r3
 372              		.loc 1 295 7
 373 0080 7B68     		ldr	r3, [r7, #4]
 374 0082 1B6C     		ldr	r3, [r3, #64]
 375              		.loc 1 295 46
 376 0084 0121     		movs	r1, #1
 377 0086 9140     		lsls	r1, r1, r2
 378 0088 0A00     		movs	r2, r1
 379              		.loc 1 295 30
 380 008a 5A60     		str	r2, [r3, #4]
 296:Drivers/STM32G0xx_HAL_Driver/Src/stm32g0xx_hal_dma.c **** #else
 297:Drivers/STM32G0xx_HAL_Driver/Src/stm32g0xx_hal_dma.c ****   __HAL_DMA_CLEAR_FLAG(hdma, (DMA_FLAG_GI1 << (hdma->ChannelIndex & 0x1CU)));
 298:Drivers/STM32G0xx_HAL_Driver/Src/stm32g0xx_hal_dma.c **** #endif /* DMA2 */
 299:Drivers/STM32G0xx_HAL_Driver/Src/stm32g0xx_hal_dma.c **** 
 300:Drivers/STM32G0xx_HAL_Driver/Src/stm32g0xx_hal_dma.c ****   /* Initialize parameters for DMAMUX channel :
 301:Drivers/STM32G0xx_HAL_Driver/Src/stm32g0xx_hal_dma.c ****      DMAmuxChannel, DMAmuxChannelStatus and DMAmuxChannelStatusMask */
 302:Drivers/STM32G0xx_HAL_Driver/Src/stm32g0xx_hal_dma.c **** 
 303:Drivers/STM32G0xx_HAL_Driver/Src/stm32g0xx_hal_dma.c ****   DMA_CalcDMAMUXChannelBaseAndMask(hdma);
 381              		.loc 1 303 3
 382 008c 7B68     		ldr	r3, [r7, #4]
 383 008e 1800     		movs	r0, r3
 384 0090 FFF7FEFF 		bl	DMA_CalcDMAMUXChannelBaseAndMask
 304:Drivers/STM32G0xx_HAL_Driver/Src/stm32g0xx_hal_dma.c **** 
ARM GAS  C:\Users\SOLDER~1\AppData\Local\Temp\cc8E0pRj.s 			page 13


 305:Drivers/STM32G0xx_HAL_Driver/Src/stm32g0xx_hal_dma.c ****   /* Reset the DMAMUX channel that corresponds to the DMA channel */
 306:Drivers/STM32G0xx_HAL_Driver/Src/stm32g0xx_hal_dma.c ****   hdma->DMAmuxChannel->CCR = 0U;
 385              		.loc 1 306 7
 386 0094 7B68     		ldr	r3, [r7, #4]
 387 0096 9B6C     		ldr	r3, [r3, #72]
 388              		.loc 1 306 28
 389 0098 0022     		movs	r2, #0
 390 009a 1A60     		str	r2, [r3]
 307:Drivers/STM32G0xx_HAL_Driver/Src/stm32g0xx_hal_dma.c **** 
 308:Drivers/STM32G0xx_HAL_Driver/Src/stm32g0xx_hal_dma.c ****   /* Clear the DMAMUX synchro overrun flag */
 309:Drivers/STM32G0xx_HAL_Driver/Src/stm32g0xx_hal_dma.c ****   hdma->DMAmuxChannelStatus->CFR = hdma->DMAmuxChannelStatusMask;
 391              		.loc 1 309 7
 392 009c 7B68     		ldr	r3, [r7, #4]
 393 009e DB6C     		ldr	r3, [r3, #76]
 394              		.loc 1 309 40
 395 00a0 7A68     		ldr	r2, [r7, #4]
 396 00a2 126D     		ldr	r2, [r2, #80]
 397              		.loc 1 309 34
 398 00a4 5A60     		str	r2, [r3, #4]
 310:Drivers/STM32G0xx_HAL_Driver/Src/stm32g0xx_hal_dma.c **** 
 311:Drivers/STM32G0xx_HAL_Driver/Src/stm32g0xx_hal_dma.c ****   /* Reset Request generator parameters if any */
 312:Drivers/STM32G0xx_HAL_Driver/Src/stm32g0xx_hal_dma.c ****   if (((hdma->Init.Request >  0UL) && (hdma->Init.Request <= DMA_REQUEST_GENERATOR3)))
 399              		.loc 1 312 19
 400 00a6 7B68     		ldr	r3, [r7, #4]
 401 00a8 5B68     		ldr	r3, [r3, #4]
 402              		.loc 1 312 6
 403 00aa 002B     		cmp	r3, #0
 404 00ac 10D0     		beq	.L16
 405              		.loc 1 312 50 discriminator 1
 406 00ae 7B68     		ldr	r3, [r7, #4]
 407 00b0 5B68     		ldr	r3, [r3, #4]
 408              		.loc 1 312 36 discriminator 1
 409 00b2 042B     		cmp	r3, #4
 410 00b4 0CD8     		bhi	.L16
 313:Drivers/STM32G0xx_HAL_Driver/Src/stm32g0xx_hal_dma.c ****   {
 314:Drivers/STM32G0xx_HAL_Driver/Src/stm32g0xx_hal_dma.c ****     /* Initialize parameters for DMAMUX request generator :
 315:Drivers/STM32G0xx_HAL_Driver/Src/stm32g0xx_hal_dma.c ****        DMAmuxRequestGen, DMAmuxRequestGenStatus and DMAmuxRequestGenStatusMask
 316:Drivers/STM32G0xx_HAL_Driver/Src/stm32g0xx_hal_dma.c ****     */
 317:Drivers/STM32G0xx_HAL_Driver/Src/stm32g0xx_hal_dma.c ****     DMA_CalcDMAMUXRequestGenBaseAndMask(hdma);
 411              		.loc 1 317 5
 412 00b6 7B68     		ldr	r3, [r7, #4]
 413 00b8 1800     		movs	r0, r3
 414 00ba FFF7FEFF 		bl	DMA_CalcDMAMUXRequestGenBaseAndMask
 318:Drivers/STM32G0xx_HAL_Driver/Src/stm32g0xx_hal_dma.c **** 
 319:Drivers/STM32G0xx_HAL_Driver/Src/stm32g0xx_hal_dma.c ****     /* Reset the DMAMUX request generator register*/
 320:Drivers/STM32G0xx_HAL_Driver/Src/stm32g0xx_hal_dma.c ****     hdma->DMAmuxRequestGen->RGCR = 0U;
 415              		.loc 1 320 9
 416 00be 7B68     		ldr	r3, [r7, #4]
 417 00c0 5B6D     		ldr	r3, [r3, #84]
 418              		.loc 1 320 34
 419 00c2 0022     		movs	r2, #0
 420 00c4 1A60     		str	r2, [r3]
 321:Drivers/STM32G0xx_HAL_Driver/Src/stm32g0xx_hal_dma.c **** 
 322:Drivers/STM32G0xx_HAL_Driver/Src/stm32g0xx_hal_dma.c ****     /* Clear the DMAMUX request generator overrun flag */
 323:Drivers/STM32G0xx_HAL_Driver/Src/stm32g0xx_hal_dma.c ****     hdma->DMAmuxRequestGenStatus->RGCFR = hdma->DMAmuxRequestGenStatusMask;
 421              		.loc 1 323 9
 422 00c6 7B68     		ldr	r3, [r7, #4]
ARM GAS  C:\Users\SOLDER~1\AppData\Local\Temp\cc8E0pRj.s 			page 14


 423 00c8 9B6D     		ldr	r3, [r3, #88]
 424              		.loc 1 323 47
 425 00ca 7A68     		ldr	r2, [r7, #4]
 426 00cc D26D     		ldr	r2, [r2, #92]
 427              		.loc 1 323 41
 428 00ce 5A60     		str	r2, [r3, #4]
 429              	.L16:
 324:Drivers/STM32G0xx_HAL_Driver/Src/stm32g0xx_hal_dma.c ****   }
 325:Drivers/STM32G0xx_HAL_Driver/Src/stm32g0xx_hal_dma.c **** 
 326:Drivers/STM32G0xx_HAL_Driver/Src/stm32g0xx_hal_dma.c ****   hdma->DMAmuxRequestGen = 0U;
 430              		.loc 1 326 26
 431 00d0 7B68     		ldr	r3, [r7, #4]
 432 00d2 0022     		movs	r2, #0
 433 00d4 5A65     		str	r2, [r3, #84]
 327:Drivers/STM32G0xx_HAL_Driver/Src/stm32g0xx_hal_dma.c ****   hdma->DMAmuxRequestGenStatus = 0U;
 434              		.loc 1 327 32
 435 00d6 7B68     		ldr	r3, [r7, #4]
 436 00d8 0022     		movs	r2, #0
 437 00da 9A65     		str	r2, [r3, #88]
 328:Drivers/STM32G0xx_HAL_Driver/Src/stm32g0xx_hal_dma.c ****   hdma->DMAmuxRequestGenStatusMask = 0U;
 438              		.loc 1 328 36
 439 00dc 7B68     		ldr	r3, [r7, #4]
 440 00de 0022     		movs	r2, #0
 441 00e0 DA65     		str	r2, [r3, #92]
 329:Drivers/STM32G0xx_HAL_Driver/Src/stm32g0xx_hal_dma.c **** 
 330:Drivers/STM32G0xx_HAL_Driver/Src/stm32g0xx_hal_dma.c ****   /* Clean callbacks */
 331:Drivers/STM32G0xx_HAL_Driver/Src/stm32g0xx_hal_dma.c ****   hdma->XferCpltCallback = NULL;
 442              		.loc 1 331 26
 443 00e2 7B68     		ldr	r3, [r7, #4]
 444 00e4 0022     		movs	r2, #0
 445 00e6 DA62     		str	r2, [r3, #44]
 332:Drivers/STM32G0xx_HAL_Driver/Src/stm32g0xx_hal_dma.c ****   hdma->XferHalfCpltCallback = NULL;
 446              		.loc 1 332 30
 447 00e8 7B68     		ldr	r3, [r7, #4]
 448 00ea 0022     		movs	r2, #0
 449 00ec 1A63     		str	r2, [r3, #48]
 333:Drivers/STM32G0xx_HAL_Driver/Src/stm32g0xx_hal_dma.c ****   hdma->XferErrorCallback = NULL;
 450              		.loc 1 333 27
 451 00ee 7B68     		ldr	r3, [r7, #4]
 452 00f0 0022     		movs	r2, #0
 453 00f2 5A63     		str	r2, [r3, #52]
 334:Drivers/STM32G0xx_HAL_Driver/Src/stm32g0xx_hal_dma.c ****   hdma->XferAbortCallback = NULL;
 454              		.loc 1 334 27
 455 00f4 7B68     		ldr	r3, [r7, #4]
 456 00f6 0022     		movs	r2, #0
 457 00f8 9A63     		str	r2, [r3, #56]
 335:Drivers/STM32G0xx_HAL_Driver/Src/stm32g0xx_hal_dma.c **** 
 336:Drivers/STM32G0xx_HAL_Driver/Src/stm32g0xx_hal_dma.c ****   /* Initialize the error code */
 337:Drivers/STM32G0xx_HAL_Driver/Src/stm32g0xx_hal_dma.c ****   hdma->ErrorCode = HAL_DMA_ERROR_NONE;
 458              		.loc 1 337 19
 459 00fa 7B68     		ldr	r3, [r7, #4]
 460 00fc 0022     		movs	r2, #0
 461 00fe DA63     		str	r2, [r3, #60]
 338:Drivers/STM32G0xx_HAL_Driver/Src/stm32g0xx_hal_dma.c **** 
 339:Drivers/STM32G0xx_HAL_Driver/Src/stm32g0xx_hal_dma.c ****   /* Initialize the DMA state */
 340:Drivers/STM32G0xx_HAL_Driver/Src/stm32g0xx_hal_dma.c ****   hdma->State = HAL_DMA_STATE_RESET;
 462              		.loc 1 340 15
ARM GAS  C:\Users\SOLDER~1\AppData\Local\Temp\cc8E0pRj.s 			page 15


 463 0100 7B68     		ldr	r3, [r7, #4]
 464 0102 2522     		movs	r2, #37
 465 0104 0021     		movs	r1, #0
 466 0106 9954     		strb	r1, [r3, r2]
 341:Drivers/STM32G0xx_HAL_Driver/Src/stm32g0xx_hal_dma.c **** 
 342:Drivers/STM32G0xx_HAL_Driver/Src/stm32g0xx_hal_dma.c ****   /* Release Lock */
 343:Drivers/STM32G0xx_HAL_Driver/Src/stm32g0xx_hal_dma.c ****   __HAL_UNLOCK(hdma);
 467              		.loc 1 343 3
 468 0108 7B68     		ldr	r3, [r7, #4]
 469 010a 2422     		movs	r2, #36
 470 010c 0021     		movs	r1, #0
 471 010e 9954     		strb	r1, [r3, r2]
 344:Drivers/STM32G0xx_HAL_Driver/Src/stm32g0xx_hal_dma.c **** 
 345:Drivers/STM32G0xx_HAL_Driver/Src/stm32g0xx_hal_dma.c ****   return HAL_OK;
 472              		.loc 1 345 10
 473 0110 0023     		movs	r3, #0
 474              	.L13:
 346:Drivers/STM32G0xx_HAL_Driver/Src/stm32g0xx_hal_dma.c **** }
 475              		.loc 1 346 1
 476 0112 1800     		movs	r0, r3
 477 0114 BD46     		mov	sp, r7
 478 0116 02B0     		add	sp, sp, #8
 479              		@ sp needed
 480 0118 80BD     		pop	{r7, pc}
 481              	.L18:
 482 011a C046     		.align	2
 483              	.L17:
 484 011c 07040240 		.word	1073873927
 485 0120 F8FFFDBF 		.word	-1073872904
 486 0124 00000240 		.word	1073872896
 487 0128 F8FBFDBF 		.word	-1073873928
 488 012c 00040240 		.word	1073873920
 489              		.cfi_endproc
 490              	.LFE356:
 492              		.section	.text.HAL_DMA_Start,"ax",%progbits
 493              		.align	1
 494              		.global	HAL_DMA_Start
 495              		.syntax unified
 496              		.code	16
 497              		.thumb_func
 499              	HAL_DMA_Start:
 500              	.LFB357:
 347:Drivers/STM32G0xx_HAL_Driver/Src/stm32g0xx_hal_dma.c **** 
 348:Drivers/STM32G0xx_HAL_Driver/Src/stm32g0xx_hal_dma.c **** /**
 349:Drivers/STM32G0xx_HAL_Driver/Src/stm32g0xx_hal_dma.c ****   * @}
 350:Drivers/STM32G0xx_HAL_Driver/Src/stm32g0xx_hal_dma.c ****   */
 351:Drivers/STM32G0xx_HAL_Driver/Src/stm32g0xx_hal_dma.c **** 
 352:Drivers/STM32G0xx_HAL_Driver/Src/stm32g0xx_hal_dma.c **** /** @defgroup DMA_Exported_Functions_Group2 Input and Output operation functions
 353:Drivers/STM32G0xx_HAL_Driver/Src/stm32g0xx_hal_dma.c ****  *  @brief   Input and Output operation functions
 354:Drivers/STM32G0xx_HAL_Driver/Src/stm32g0xx_hal_dma.c ****  *
 355:Drivers/STM32G0xx_HAL_Driver/Src/stm32g0xx_hal_dma.c **** @verbatim
 356:Drivers/STM32G0xx_HAL_Driver/Src/stm32g0xx_hal_dma.c ****  ===============================================================================
 357:Drivers/STM32G0xx_HAL_Driver/Src/stm32g0xx_hal_dma.c ****                       #####  IO operation functions  #####
 358:Drivers/STM32G0xx_HAL_Driver/Src/stm32g0xx_hal_dma.c ****  ===============================================================================
 359:Drivers/STM32G0xx_HAL_Driver/Src/stm32g0xx_hal_dma.c ****     [..]  This section provides functions allowing to:
 360:Drivers/STM32G0xx_HAL_Driver/Src/stm32g0xx_hal_dma.c ****       (+) Configure the source, destination address and data length and Start DMA transfer
 361:Drivers/STM32G0xx_HAL_Driver/Src/stm32g0xx_hal_dma.c ****       (+) Configure the source, destination address and data length and
ARM GAS  C:\Users\SOLDER~1\AppData\Local\Temp\cc8E0pRj.s 			page 16


 362:Drivers/STM32G0xx_HAL_Driver/Src/stm32g0xx_hal_dma.c ****           Start DMA transfer with interrupt
 363:Drivers/STM32G0xx_HAL_Driver/Src/stm32g0xx_hal_dma.c ****       (+) Abort DMA transfer
 364:Drivers/STM32G0xx_HAL_Driver/Src/stm32g0xx_hal_dma.c ****       (+) Poll for transfer complete
 365:Drivers/STM32G0xx_HAL_Driver/Src/stm32g0xx_hal_dma.c ****       (+) Handle DMA interrupt request
 366:Drivers/STM32G0xx_HAL_Driver/Src/stm32g0xx_hal_dma.c ****       (+) Register and Unregister DMA callbacks
 367:Drivers/STM32G0xx_HAL_Driver/Src/stm32g0xx_hal_dma.c **** 
 368:Drivers/STM32G0xx_HAL_Driver/Src/stm32g0xx_hal_dma.c **** @endverbatim
 369:Drivers/STM32G0xx_HAL_Driver/Src/stm32g0xx_hal_dma.c ****   * @{
 370:Drivers/STM32G0xx_HAL_Driver/Src/stm32g0xx_hal_dma.c ****   */
 371:Drivers/STM32G0xx_HAL_Driver/Src/stm32g0xx_hal_dma.c **** 
 372:Drivers/STM32G0xx_HAL_Driver/Src/stm32g0xx_hal_dma.c **** /**
 373:Drivers/STM32G0xx_HAL_Driver/Src/stm32g0xx_hal_dma.c ****   * @brief Start the DMA Transfer.
 374:Drivers/STM32G0xx_HAL_Driver/Src/stm32g0xx_hal_dma.c ****   * @param hdma Pointer to a DMA_HandleTypeDef structure that contains
 375:Drivers/STM32G0xx_HAL_Driver/Src/stm32g0xx_hal_dma.c ****   *             the configuration information for the specified DMA Channel.
 376:Drivers/STM32G0xx_HAL_Driver/Src/stm32g0xx_hal_dma.c ****   * @param SrcAddress The source memory Buffer address
 377:Drivers/STM32G0xx_HAL_Driver/Src/stm32g0xx_hal_dma.c ****   * @param DstAddress The destination memory Buffer address
 378:Drivers/STM32G0xx_HAL_Driver/Src/stm32g0xx_hal_dma.c ****   * @param DataLength The length of data to be transferred from source to destination
 379:Drivers/STM32G0xx_HAL_Driver/Src/stm32g0xx_hal_dma.c ****   * @retval HAL status
 380:Drivers/STM32G0xx_HAL_Driver/Src/stm32g0xx_hal_dma.c ****   */
 381:Drivers/STM32G0xx_HAL_Driver/Src/stm32g0xx_hal_dma.c **** HAL_StatusTypeDef HAL_DMA_Start(DMA_HandleTypeDef *hdma, uint32_t SrcAddress, uint32_t DstAddress, 
 382:Drivers/STM32G0xx_HAL_Driver/Src/stm32g0xx_hal_dma.c **** {
 501              		.loc 1 382 1
 502              		.cfi_startproc
 503              		@ args = 0, pretend = 0, frame = 24
 504              		@ frame_needed = 1, uses_anonymous_args = 0
 505 0000 80B5     		push	{r7, lr}
 506              		.cfi_def_cfa_offset 8
 507              		.cfi_offset 7, -8
 508              		.cfi_offset 14, -4
 509 0002 86B0     		sub	sp, sp, #24
 510              		.cfi_def_cfa_offset 32
 511 0004 00AF     		add	r7, sp, #0
 512              		.cfi_def_cfa_register 7
 513 0006 F860     		str	r0, [r7, #12]
 514 0008 B960     		str	r1, [r7, #8]
 515 000a 7A60     		str	r2, [r7, #4]
 516 000c 3B60     		str	r3, [r7]
 383:Drivers/STM32G0xx_HAL_Driver/Src/stm32g0xx_hal_dma.c ****   HAL_StatusTypeDef status = HAL_OK;
 517              		.loc 1 383 21
 518 000e 1723     		movs	r3, #23
 519 0010 FB18     		adds	r3, r7, r3
 520 0012 0022     		movs	r2, #0
 521 0014 1A70     		strb	r2, [r3]
 384:Drivers/STM32G0xx_HAL_Driver/Src/stm32g0xx_hal_dma.c **** 
 385:Drivers/STM32G0xx_HAL_Driver/Src/stm32g0xx_hal_dma.c ****   /* Check the parameters */
 386:Drivers/STM32G0xx_HAL_Driver/Src/stm32g0xx_hal_dma.c ****   assert_param(IS_DMA_BUFFER_SIZE(DataLength));
 387:Drivers/STM32G0xx_HAL_Driver/Src/stm32g0xx_hal_dma.c **** 
 388:Drivers/STM32G0xx_HAL_Driver/Src/stm32g0xx_hal_dma.c ****   /* Process locked */
 389:Drivers/STM32G0xx_HAL_Driver/Src/stm32g0xx_hal_dma.c ****   __HAL_LOCK(hdma);
 522              		.loc 1 389 3
 523 0016 FB68     		ldr	r3, [r7, #12]
 524 0018 2422     		movs	r2, #36
 525 001a 9B5C     		ldrb	r3, [r3, r2]
 526 001c 012B     		cmp	r3, #1
 527 001e 01D1     		bne	.L20
 528              		.loc 1 389 3 is_stmt 0 discriminator 1
 529 0020 0223     		movs	r3, #2
ARM GAS  C:\Users\SOLDER~1\AppData\Local\Temp\cc8E0pRj.s 			page 17


 530 0022 35E0     		b	.L21
 531              	.L20:
 532              		.loc 1 389 3 discriminator 2
 533 0024 FB68     		ldr	r3, [r7, #12]
 534 0026 2422     		movs	r2, #36
 535 0028 0121     		movs	r1, #1
 536 002a 9954     		strb	r1, [r3, r2]
 390:Drivers/STM32G0xx_HAL_Driver/Src/stm32g0xx_hal_dma.c **** 
 391:Drivers/STM32G0xx_HAL_Driver/Src/stm32g0xx_hal_dma.c ****   if (hdma->State == HAL_DMA_STATE_READY)
 537              		.loc 1 391 11 is_stmt 1 discriminator 2
 538 002c FB68     		ldr	r3, [r7, #12]
 539 002e 2522     		movs	r2, #37
 540 0030 9B5C     		ldrb	r3, [r3, r2]
 541 0032 DBB2     		uxtb	r3, r3
 542              		.loc 1 391 6 discriminator 2
 543 0034 012B     		cmp	r3, #1
 544 0036 1DD1     		bne	.L22
 392:Drivers/STM32G0xx_HAL_Driver/Src/stm32g0xx_hal_dma.c ****   {
 393:Drivers/STM32G0xx_HAL_Driver/Src/stm32g0xx_hal_dma.c ****     /* Change DMA peripheral state */
 394:Drivers/STM32G0xx_HAL_Driver/Src/stm32g0xx_hal_dma.c ****     hdma->State = HAL_DMA_STATE_BUSY;
 545              		.loc 1 394 17
 546 0038 FB68     		ldr	r3, [r7, #12]
 547 003a 2522     		movs	r2, #37
 548 003c 0221     		movs	r1, #2
 549 003e 9954     		strb	r1, [r3, r2]
 395:Drivers/STM32G0xx_HAL_Driver/Src/stm32g0xx_hal_dma.c **** 
 396:Drivers/STM32G0xx_HAL_Driver/Src/stm32g0xx_hal_dma.c ****     /* Initialize the error code */
 397:Drivers/STM32G0xx_HAL_Driver/Src/stm32g0xx_hal_dma.c ****     hdma->ErrorCode = HAL_DMA_ERROR_NONE;
 550              		.loc 1 397 21
 551 0040 FB68     		ldr	r3, [r7, #12]
 552 0042 0022     		movs	r2, #0
 553 0044 DA63     		str	r2, [r3, #60]
 398:Drivers/STM32G0xx_HAL_Driver/Src/stm32g0xx_hal_dma.c **** 
 399:Drivers/STM32G0xx_HAL_Driver/Src/stm32g0xx_hal_dma.c ****     /* Disable the peripheral */
 400:Drivers/STM32G0xx_HAL_Driver/Src/stm32g0xx_hal_dma.c ****     __HAL_DMA_DISABLE(hdma);
 554              		.loc 1 400 5
 555 0046 FB68     		ldr	r3, [r7, #12]
 556 0048 1B68     		ldr	r3, [r3]
 557 004a 1A68     		ldr	r2, [r3]
 558 004c FB68     		ldr	r3, [r7, #12]
 559 004e 1B68     		ldr	r3, [r3]
 560 0050 0121     		movs	r1, #1
 561 0052 8A43     		bics	r2, r1
 562 0054 1A60     		str	r2, [r3]
 401:Drivers/STM32G0xx_HAL_Driver/Src/stm32g0xx_hal_dma.c **** 
 402:Drivers/STM32G0xx_HAL_Driver/Src/stm32g0xx_hal_dma.c ****     /* Configure the source, destination address and the data length & clear flags*/
 403:Drivers/STM32G0xx_HAL_Driver/Src/stm32g0xx_hal_dma.c ****     DMA_SetConfig(hdma, SrcAddress, DstAddress, DataLength);
 563              		.loc 1 403 5
 564 0056 3B68     		ldr	r3, [r7]
 565 0058 7A68     		ldr	r2, [r7, #4]
 566 005a B968     		ldr	r1, [r7, #8]
 567 005c F868     		ldr	r0, [r7, #12]
 568 005e FFF7FEFF 		bl	DMA_SetConfig
 404:Drivers/STM32G0xx_HAL_Driver/Src/stm32g0xx_hal_dma.c **** 
 405:Drivers/STM32G0xx_HAL_Driver/Src/stm32g0xx_hal_dma.c ****     /* Enable the Peripheral */
 406:Drivers/STM32G0xx_HAL_Driver/Src/stm32g0xx_hal_dma.c ****     __HAL_DMA_ENABLE(hdma);
 569              		.loc 1 406 5
ARM GAS  C:\Users\SOLDER~1\AppData\Local\Temp\cc8E0pRj.s 			page 18


 570 0062 FB68     		ldr	r3, [r7, #12]
 571 0064 1B68     		ldr	r3, [r3]
 572 0066 1A68     		ldr	r2, [r3]
 573 0068 FB68     		ldr	r3, [r7, #12]
 574 006a 1B68     		ldr	r3, [r3]
 575 006c 0121     		movs	r1, #1
 576 006e 0A43     		orrs	r2, r1
 577 0070 1A60     		str	r2, [r3]
 578 0072 0AE0     		b	.L23
 579              	.L22:
 407:Drivers/STM32G0xx_HAL_Driver/Src/stm32g0xx_hal_dma.c ****   }
 408:Drivers/STM32G0xx_HAL_Driver/Src/stm32g0xx_hal_dma.c ****   else
 409:Drivers/STM32G0xx_HAL_Driver/Src/stm32g0xx_hal_dma.c ****   {
 410:Drivers/STM32G0xx_HAL_Driver/Src/stm32g0xx_hal_dma.c ****     /* Change the error code */
 411:Drivers/STM32G0xx_HAL_Driver/Src/stm32g0xx_hal_dma.c ****     hdma->ErrorCode = HAL_DMA_ERROR_BUSY;
 580              		.loc 1 411 21
 581 0074 FB68     		ldr	r3, [r7, #12]
 582 0076 8022     		movs	r2, #128
 583 0078 DA63     		str	r2, [r3, #60]
 412:Drivers/STM32G0xx_HAL_Driver/Src/stm32g0xx_hal_dma.c **** 
 413:Drivers/STM32G0xx_HAL_Driver/Src/stm32g0xx_hal_dma.c ****     /* Process Unlocked */
 414:Drivers/STM32G0xx_HAL_Driver/Src/stm32g0xx_hal_dma.c ****     __HAL_UNLOCK(hdma);
 584              		.loc 1 414 5
 585 007a FB68     		ldr	r3, [r7, #12]
 586 007c 2422     		movs	r2, #36
 587 007e 0021     		movs	r1, #0
 588 0080 9954     		strb	r1, [r3, r2]
 415:Drivers/STM32G0xx_HAL_Driver/Src/stm32g0xx_hal_dma.c **** 
 416:Drivers/STM32G0xx_HAL_Driver/Src/stm32g0xx_hal_dma.c ****     /* Return error status */
 417:Drivers/STM32G0xx_HAL_Driver/Src/stm32g0xx_hal_dma.c ****     status = HAL_ERROR;
 589              		.loc 1 417 12
 590 0082 1723     		movs	r3, #23
 591 0084 FB18     		adds	r3, r7, r3
 592 0086 0122     		movs	r2, #1
 593 0088 1A70     		strb	r2, [r3]
 594              	.L23:
 418:Drivers/STM32G0xx_HAL_Driver/Src/stm32g0xx_hal_dma.c ****   }
 419:Drivers/STM32G0xx_HAL_Driver/Src/stm32g0xx_hal_dma.c **** 
 420:Drivers/STM32G0xx_HAL_Driver/Src/stm32g0xx_hal_dma.c ****   return status;
 595              		.loc 1 420 10
 596 008a 1723     		movs	r3, #23
 597 008c FB18     		adds	r3, r7, r3
 598 008e 1B78     		ldrb	r3, [r3]
 599              	.L21:
 421:Drivers/STM32G0xx_HAL_Driver/Src/stm32g0xx_hal_dma.c **** }
 600              		.loc 1 421 1
 601 0090 1800     		movs	r0, r3
 602 0092 BD46     		mov	sp, r7
 603 0094 06B0     		add	sp, sp, #24
 604              		@ sp needed
 605 0096 80BD     		pop	{r7, pc}
 606              		.cfi_endproc
 607              	.LFE357:
 609              		.section	.text.HAL_DMA_Start_IT,"ax",%progbits
 610              		.align	1
 611              		.global	HAL_DMA_Start_IT
 612              		.syntax unified
ARM GAS  C:\Users\SOLDER~1\AppData\Local\Temp\cc8E0pRj.s 			page 19


 613              		.code	16
 614              		.thumb_func
 616              	HAL_DMA_Start_IT:
 617              	.LFB358:
 422:Drivers/STM32G0xx_HAL_Driver/Src/stm32g0xx_hal_dma.c **** 
 423:Drivers/STM32G0xx_HAL_Driver/Src/stm32g0xx_hal_dma.c **** /**
 424:Drivers/STM32G0xx_HAL_Driver/Src/stm32g0xx_hal_dma.c ****   * @brief Start the DMA Transfer with interrupt enabled.
 425:Drivers/STM32G0xx_HAL_Driver/Src/stm32g0xx_hal_dma.c ****   * @param hdma Pointer to a DMA_HandleTypeDef structure that contains
 426:Drivers/STM32G0xx_HAL_Driver/Src/stm32g0xx_hal_dma.c ****   *             the configuration information for the specified DMA Channel.
 427:Drivers/STM32G0xx_HAL_Driver/Src/stm32g0xx_hal_dma.c ****   * @param SrcAddress The source memory Buffer address
 428:Drivers/STM32G0xx_HAL_Driver/Src/stm32g0xx_hal_dma.c ****   * @param DstAddress The destination memory Buffer address
 429:Drivers/STM32G0xx_HAL_Driver/Src/stm32g0xx_hal_dma.c ****   * @param DataLength The length of data to be transferred from source to destination
 430:Drivers/STM32G0xx_HAL_Driver/Src/stm32g0xx_hal_dma.c ****   * @retval HAL status
 431:Drivers/STM32G0xx_HAL_Driver/Src/stm32g0xx_hal_dma.c ****   */
 432:Drivers/STM32G0xx_HAL_Driver/Src/stm32g0xx_hal_dma.c **** HAL_StatusTypeDef HAL_DMA_Start_IT(DMA_HandleTypeDef *hdma, uint32_t SrcAddress, uint32_t DstAddres
 433:Drivers/STM32G0xx_HAL_Driver/Src/stm32g0xx_hal_dma.c **** {
 618              		.loc 1 433 1
 619              		.cfi_startproc
 620              		@ args = 0, pretend = 0, frame = 24
 621              		@ frame_needed = 1, uses_anonymous_args = 0
 622 0000 80B5     		push	{r7, lr}
 623              		.cfi_def_cfa_offset 8
 624              		.cfi_offset 7, -8
 625              		.cfi_offset 14, -4
 626 0002 86B0     		sub	sp, sp, #24
 627              		.cfi_def_cfa_offset 32
 628 0004 00AF     		add	r7, sp, #0
 629              		.cfi_def_cfa_register 7
 630 0006 F860     		str	r0, [r7, #12]
 631 0008 B960     		str	r1, [r7, #8]
 632 000a 7A60     		str	r2, [r7, #4]
 633 000c 3B60     		str	r3, [r7]
 434:Drivers/STM32G0xx_HAL_Driver/Src/stm32g0xx_hal_dma.c ****   HAL_StatusTypeDef status = HAL_OK;
 634              		.loc 1 434 21
 635 000e 1723     		movs	r3, #23
 636 0010 FB18     		adds	r3, r7, r3
 637 0012 0022     		movs	r2, #0
 638 0014 1A70     		strb	r2, [r3]
 435:Drivers/STM32G0xx_HAL_Driver/Src/stm32g0xx_hal_dma.c **** 
 436:Drivers/STM32G0xx_HAL_Driver/Src/stm32g0xx_hal_dma.c ****   /* Check the parameters */
 437:Drivers/STM32G0xx_HAL_Driver/Src/stm32g0xx_hal_dma.c ****   assert_param(IS_DMA_BUFFER_SIZE(DataLength));
 438:Drivers/STM32G0xx_HAL_Driver/Src/stm32g0xx_hal_dma.c **** 
 439:Drivers/STM32G0xx_HAL_Driver/Src/stm32g0xx_hal_dma.c ****   /* Process locked */
 440:Drivers/STM32G0xx_HAL_Driver/Src/stm32g0xx_hal_dma.c ****   __HAL_LOCK(hdma);
 639              		.loc 1 440 3
 640 0016 FB68     		ldr	r3, [r7, #12]
 641 0018 2422     		movs	r2, #36
 642 001a 9B5C     		ldrb	r3, [r3, r2]
 643 001c 012B     		cmp	r3, #1
 644 001e 01D1     		bne	.L25
 645              		.loc 1 440 3 is_stmt 0 discriminator 1
 646 0020 0223     		movs	r3, #2
 647 0022 6FE0     		b	.L26
 648              	.L25:
 649              		.loc 1 440 3 discriminator 2
 650 0024 FB68     		ldr	r3, [r7, #12]
 651 0026 2422     		movs	r2, #36
ARM GAS  C:\Users\SOLDER~1\AppData\Local\Temp\cc8E0pRj.s 			page 20


 652 0028 0121     		movs	r1, #1
 653 002a 9954     		strb	r1, [r3, r2]
 441:Drivers/STM32G0xx_HAL_Driver/Src/stm32g0xx_hal_dma.c **** 
 442:Drivers/STM32G0xx_HAL_Driver/Src/stm32g0xx_hal_dma.c ****   if (hdma->State == HAL_DMA_STATE_READY)
 654              		.loc 1 442 11 is_stmt 1 discriminator 2
 655 002c FB68     		ldr	r3, [r7, #12]
 656 002e 2522     		movs	r2, #37
 657 0030 9B5C     		ldrb	r3, [r3, r2]
 658 0032 DBB2     		uxtb	r3, r3
 659              		.loc 1 442 6 discriminator 2
 660 0034 012B     		cmp	r3, #1
 661 0036 57D1     		bne	.L27
 443:Drivers/STM32G0xx_HAL_Driver/Src/stm32g0xx_hal_dma.c ****   {
 444:Drivers/STM32G0xx_HAL_Driver/Src/stm32g0xx_hal_dma.c ****     /* Change DMA peripheral state */
 445:Drivers/STM32G0xx_HAL_Driver/Src/stm32g0xx_hal_dma.c ****     hdma->State = HAL_DMA_STATE_BUSY;
 662              		.loc 1 445 17
 663 0038 FB68     		ldr	r3, [r7, #12]
 664 003a 2522     		movs	r2, #37
 665 003c 0221     		movs	r1, #2
 666 003e 9954     		strb	r1, [r3, r2]
 446:Drivers/STM32G0xx_HAL_Driver/Src/stm32g0xx_hal_dma.c ****     hdma->ErrorCode = HAL_DMA_ERROR_NONE;
 667              		.loc 1 446 21
 668 0040 FB68     		ldr	r3, [r7, #12]
 669 0042 0022     		movs	r2, #0
 670 0044 DA63     		str	r2, [r3, #60]
 447:Drivers/STM32G0xx_HAL_Driver/Src/stm32g0xx_hal_dma.c **** 
 448:Drivers/STM32G0xx_HAL_Driver/Src/stm32g0xx_hal_dma.c ****     /* Disable the peripheral */
 449:Drivers/STM32G0xx_HAL_Driver/Src/stm32g0xx_hal_dma.c ****     __HAL_DMA_DISABLE(hdma);
 671              		.loc 1 449 5
 672 0046 FB68     		ldr	r3, [r7, #12]
 673 0048 1B68     		ldr	r3, [r3]
 674 004a 1A68     		ldr	r2, [r3]
 675 004c FB68     		ldr	r3, [r7, #12]
 676 004e 1B68     		ldr	r3, [r3]
 677 0050 0121     		movs	r1, #1
 678 0052 8A43     		bics	r2, r1
 679 0054 1A60     		str	r2, [r3]
 450:Drivers/STM32G0xx_HAL_Driver/Src/stm32g0xx_hal_dma.c **** 
 451:Drivers/STM32G0xx_HAL_Driver/Src/stm32g0xx_hal_dma.c ****     /* Configure the source, destination address and the data length & clear flags*/
 452:Drivers/STM32G0xx_HAL_Driver/Src/stm32g0xx_hal_dma.c ****     DMA_SetConfig(hdma, SrcAddress, DstAddress, DataLength);
 680              		.loc 1 452 5
 681 0056 3B68     		ldr	r3, [r7]
 682 0058 7A68     		ldr	r2, [r7, #4]
 683 005a B968     		ldr	r1, [r7, #8]
 684 005c F868     		ldr	r0, [r7, #12]
 685 005e FFF7FEFF 		bl	DMA_SetConfig
 453:Drivers/STM32G0xx_HAL_Driver/Src/stm32g0xx_hal_dma.c **** 
 454:Drivers/STM32G0xx_HAL_Driver/Src/stm32g0xx_hal_dma.c ****     /* Enable the transfer complete interrupt */
 455:Drivers/STM32G0xx_HAL_Driver/Src/stm32g0xx_hal_dma.c ****     /* Enable the transfer Error interrupt */
 456:Drivers/STM32G0xx_HAL_Driver/Src/stm32g0xx_hal_dma.c ****     if (NULL != hdma->XferHalfCpltCallback)
 686              		.loc 1 456 21
 687 0062 FB68     		ldr	r3, [r7, #12]
 688 0064 1B6B     		ldr	r3, [r3, #48]
 689              		.loc 1 456 8
 690 0066 002B     		cmp	r3, #0
 691 0068 08D0     		beq	.L28
 457:Drivers/STM32G0xx_HAL_Driver/Src/stm32g0xx_hal_dma.c ****     {
ARM GAS  C:\Users\SOLDER~1\AppData\Local\Temp\cc8E0pRj.s 			page 21


 458:Drivers/STM32G0xx_HAL_Driver/Src/stm32g0xx_hal_dma.c ****       /* Enable the Half transfer complete interrupt as well */
 459:Drivers/STM32G0xx_HAL_Driver/Src/stm32g0xx_hal_dma.c ****       __HAL_DMA_ENABLE_IT(hdma, (DMA_IT_TC | DMA_IT_HT | DMA_IT_TE));
 692              		.loc 1 459 7
 693 006a FB68     		ldr	r3, [r7, #12]
 694 006c 1B68     		ldr	r3, [r3]
 695 006e 1A68     		ldr	r2, [r3]
 696 0070 FB68     		ldr	r3, [r7, #12]
 697 0072 1B68     		ldr	r3, [r3]
 698 0074 0E21     		movs	r1, #14
 699 0076 0A43     		orrs	r2, r1
 700 0078 1A60     		str	r2, [r3]
 701 007a 0FE0     		b	.L29
 702              	.L28:
 460:Drivers/STM32G0xx_HAL_Driver/Src/stm32g0xx_hal_dma.c ****     }
 461:Drivers/STM32G0xx_HAL_Driver/Src/stm32g0xx_hal_dma.c ****     else
 462:Drivers/STM32G0xx_HAL_Driver/Src/stm32g0xx_hal_dma.c ****     {
 463:Drivers/STM32G0xx_HAL_Driver/Src/stm32g0xx_hal_dma.c ****       __HAL_DMA_DISABLE_IT(hdma, DMA_IT_HT);
 703              		.loc 1 463 7
 704 007c FB68     		ldr	r3, [r7, #12]
 705 007e 1B68     		ldr	r3, [r3]
 706 0080 1A68     		ldr	r2, [r3]
 707 0082 FB68     		ldr	r3, [r7, #12]
 708 0084 1B68     		ldr	r3, [r3]
 709 0086 0421     		movs	r1, #4
 710 0088 8A43     		bics	r2, r1
 711 008a 1A60     		str	r2, [r3]
 464:Drivers/STM32G0xx_HAL_Driver/Src/stm32g0xx_hal_dma.c ****       __HAL_DMA_ENABLE_IT(hdma, (DMA_IT_TC | DMA_IT_TE));
 712              		.loc 1 464 7
 713 008c FB68     		ldr	r3, [r7, #12]
 714 008e 1B68     		ldr	r3, [r3]
 715 0090 1A68     		ldr	r2, [r3]
 716 0092 FB68     		ldr	r3, [r7, #12]
 717 0094 1B68     		ldr	r3, [r3]
 718 0096 0A21     		movs	r1, #10
 719 0098 0A43     		orrs	r2, r1
 720 009a 1A60     		str	r2, [r3]
 721              	.L29:
 465:Drivers/STM32G0xx_HAL_Driver/Src/stm32g0xx_hal_dma.c ****     }
 466:Drivers/STM32G0xx_HAL_Driver/Src/stm32g0xx_hal_dma.c **** 
 467:Drivers/STM32G0xx_HAL_Driver/Src/stm32g0xx_hal_dma.c ****     /* Check if DMAMUX Synchronization is enabled*/
 468:Drivers/STM32G0xx_HAL_Driver/Src/stm32g0xx_hal_dma.c ****     if ((hdma->DMAmuxChannel->CCR & DMAMUX_CxCR_SE) != 0U)
 722              		.loc 1 468 14
 723 009c FB68     		ldr	r3, [r7, #12]
 724 009e 9B6C     		ldr	r3, [r3, #72]
 725              		.loc 1 468 29
 726 00a0 1A68     		ldr	r2, [r3]
 727              		.loc 1 468 35
 728 00a2 8023     		movs	r3, #128
 729 00a4 5B02     		lsls	r3, r3, #9
 730 00a6 1340     		ands	r3, r2
 731              		.loc 1 468 8
 732 00a8 08D0     		beq	.L30
 469:Drivers/STM32G0xx_HAL_Driver/Src/stm32g0xx_hal_dma.c ****     {
 470:Drivers/STM32G0xx_HAL_Driver/Src/stm32g0xx_hal_dma.c ****       /* Enable DMAMUX sync overrun IT*/
 471:Drivers/STM32G0xx_HAL_Driver/Src/stm32g0xx_hal_dma.c ****       hdma->DMAmuxChannel->CCR |= DMAMUX_CxCR_SOIE;
 733              		.loc 1 471 11
 734 00aa FB68     		ldr	r3, [r7, #12]
ARM GAS  C:\Users\SOLDER~1\AppData\Local\Temp\cc8E0pRj.s 			page 22


 735 00ac 9B6C     		ldr	r3, [r3, #72]
 736              		.loc 1 471 32
 737 00ae 1A68     		ldr	r2, [r3]
 738              		.loc 1 471 11
 739 00b0 FB68     		ldr	r3, [r7, #12]
 740 00b2 9B6C     		ldr	r3, [r3, #72]
 741              		.loc 1 471 32
 742 00b4 8021     		movs	r1, #128
 743 00b6 4900     		lsls	r1, r1, #1
 744 00b8 0A43     		orrs	r2, r1
 745 00ba 1A60     		str	r2, [r3]
 746              	.L30:
 472:Drivers/STM32G0xx_HAL_Driver/Src/stm32g0xx_hal_dma.c ****     }
 473:Drivers/STM32G0xx_HAL_Driver/Src/stm32g0xx_hal_dma.c **** 
 474:Drivers/STM32G0xx_HAL_Driver/Src/stm32g0xx_hal_dma.c ****     if (hdma->DMAmuxRequestGen != 0U)
 747              		.loc 1 474 13
 748 00bc FB68     		ldr	r3, [r7, #12]
 749 00be 5B6D     		ldr	r3, [r3, #84]
 750              		.loc 1 474 8
 751 00c0 002B     		cmp	r3, #0
 752 00c2 08D0     		beq	.L31
 475:Drivers/STM32G0xx_HAL_Driver/Src/stm32g0xx_hal_dma.c ****     {
 476:Drivers/STM32G0xx_HAL_Driver/Src/stm32g0xx_hal_dma.c ****       /* if using DMAMUX request generator, enable the DMAMUX request generator overrun IT*/
 477:Drivers/STM32G0xx_HAL_Driver/Src/stm32g0xx_hal_dma.c ****       /* enable the request gen overrun IT*/
 478:Drivers/STM32G0xx_HAL_Driver/Src/stm32g0xx_hal_dma.c ****       hdma->DMAmuxRequestGen->RGCR |= DMAMUX_RGxCR_OIE;
 753              		.loc 1 478 11
 754 00c4 FB68     		ldr	r3, [r7, #12]
 755 00c6 5B6D     		ldr	r3, [r3, #84]
 756              		.loc 1 478 36
 757 00c8 1A68     		ldr	r2, [r3]
 758              		.loc 1 478 11
 759 00ca FB68     		ldr	r3, [r7, #12]
 760 00cc 5B6D     		ldr	r3, [r3, #84]
 761              		.loc 1 478 36
 762 00ce 8021     		movs	r1, #128
 763 00d0 4900     		lsls	r1, r1, #1
 764 00d2 0A43     		orrs	r2, r1
 765 00d4 1A60     		str	r2, [r3]
 766              	.L31:
 479:Drivers/STM32G0xx_HAL_Driver/Src/stm32g0xx_hal_dma.c ****     }
 480:Drivers/STM32G0xx_HAL_Driver/Src/stm32g0xx_hal_dma.c **** 
 481:Drivers/STM32G0xx_HAL_Driver/Src/stm32g0xx_hal_dma.c ****     /* Enable the Peripheral */
 482:Drivers/STM32G0xx_HAL_Driver/Src/stm32g0xx_hal_dma.c ****     __HAL_DMA_ENABLE(hdma);
 767              		.loc 1 482 5
 768 00d6 FB68     		ldr	r3, [r7, #12]
 769 00d8 1B68     		ldr	r3, [r3]
 770 00da 1A68     		ldr	r2, [r3]
 771 00dc FB68     		ldr	r3, [r7, #12]
 772 00de 1B68     		ldr	r3, [r3]
 773 00e0 0121     		movs	r1, #1
 774 00e2 0A43     		orrs	r2, r1
 775 00e4 1A60     		str	r2, [r3]
 776 00e6 0AE0     		b	.L32
 777              	.L27:
 483:Drivers/STM32G0xx_HAL_Driver/Src/stm32g0xx_hal_dma.c ****   }
 484:Drivers/STM32G0xx_HAL_Driver/Src/stm32g0xx_hal_dma.c ****   else
 485:Drivers/STM32G0xx_HAL_Driver/Src/stm32g0xx_hal_dma.c ****   {
ARM GAS  C:\Users\SOLDER~1\AppData\Local\Temp\cc8E0pRj.s 			page 23


 486:Drivers/STM32G0xx_HAL_Driver/Src/stm32g0xx_hal_dma.c ****     /* Change the error code */
 487:Drivers/STM32G0xx_HAL_Driver/Src/stm32g0xx_hal_dma.c ****     hdma->ErrorCode = HAL_DMA_ERROR_BUSY;
 778              		.loc 1 487 21
 779 00e8 FB68     		ldr	r3, [r7, #12]
 780 00ea 8022     		movs	r2, #128
 781 00ec DA63     		str	r2, [r3, #60]
 488:Drivers/STM32G0xx_HAL_Driver/Src/stm32g0xx_hal_dma.c **** 
 489:Drivers/STM32G0xx_HAL_Driver/Src/stm32g0xx_hal_dma.c ****     /* Process Unlocked */
 490:Drivers/STM32G0xx_HAL_Driver/Src/stm32g0xx_hal_dma.c ****     __HAL_UNLOCK(hdma);
 782              		.loc 1 490 5
 783 00ee FB68     		ldr	r3, [r7, #12]
 784 00f0 2422     		movs	r2, #36
 785 00f2 0021     		movs	r1, #0
 786 00f4 9954     		strb	r1, [r3, r2]
 491:Drivers/STM32G0xx_HAL_Driver/Src/stm32g0xx_hal_dma.c **** 
 492:Drivers/STM32G0xx_HAL_Driver/Src/stm32g0xx_hal_dma.c ****     /* Return error status */
 493:Drivers/STM32G0xx_HAL_Driver/Src/stm32g0xx_hal_dma.c ****     status = HAL_ERROR;
 787              		.loc 1 493 12
 788 00f6 1723     		movs	r3, #23
 789 00f8 FB18     		adds	r3, r7, r3
 790 00fa 0122     		movs	r2, #1
 791 00fc 1A70     		strb	r2, [r3]
 792              	.L32:
 494:Drivers/STM32G0xx_HAL_Driver/Src/stm32g0xx_hal_dma.c ****   }
 495:Drivers/STM32G0xx_HAL_Driver/Src/stm32g0xx_hal_dma.c **** 
 496:Drivers/STM32G0xx_HAL_Driver/Src/stm32g0xx_hal_dma.c ****   return status;
 793              		.loc 1 496 10
 794 00fe 1723     		movs	r3, #23
 795 0100 FB18     		adds	r3, r7, r3
 796 0102 1B78     		ldrb	r3, [r3]
 797              	.L26:
 497:Drivers/STM32G0xx_HAL_Driver/Src/stm32g0xx_hal_dma.c **** }
 798              		.loc 1 497 1
 799 0104 1800     		movs	r0, r3
 800 0106 BD46     		mov	sp, r7
 801 0108 06B0     		add	sp, sp, #24
 802              		@ sp needed
 803 010a 80BD     		pop	{r7, pc}
 804              		.cfi_endproc
 805              	.LFE358:
 807              		.section	.text.HAL_DMA_Abort,"ax",%progbits
 808              		.align	1
 809              		.global	HAL_DMA_Abort
 810              		.syntax unified
 811              		.code	16
 812              		.thumb_func
 814              	HAL_DMA_Abort:
 815              	.LFB359:
 498:Drivers/STM32G0xx_HAL_Driver/Src/stm32g0xx_hal_dma.c **** 
 499:Drivers/STM32G0xx_HAL_Driver/Src/stm32g0xx_hal_dma.c **** /**
 500:Drivers/STM32G0xx_HAL_Driver/Src/stm32g0xx_hal_dma.c ****   * @brief Abort the DMA Transfer.
 501:Drivers/STM32G0xx_HAL_Driver/Src/stm32g0xx_hal_dma.c ****   * @param hdma Pointer to a DMA_HandleTypeDef structure that contains
 502:Drivers/STM32G0xx_HAL_Driver/Src/stm32g0xx_hal_dma.c ****   *             the configuration information for the specified DMA Channel.
 503:Drivers/STM32G0xx_HAL_Driver/Src/stm32g0xx_hal_dma.c ****   * @retval HAL status
 504:Drivers/STM32G0xx_HAL_Driver/Src/stm32g0xx_hal_dma.c ****   */
 505:Drivers/STM32G0xx_HAL_Driver/Src/stm32g0xx_hal_dma.c **** HAL_StatusTypeDef HAL_DMA_Abort(DMA_HandleTypeDef *hdma)
 506:Drivers/STM32G0xx_HAL_Driver/Src/stm32g0xx_hal_dma.c **** {
ARM GAS  C:\Users\SOLDER~1\AppData\Local\Temp\cc8E0pRj.s 			page 24


 816              		.loc 1 506 1
 817              		.cfi_startproc
 818              		@ args = 0, pretend = 0, frame = 8
 819              		@ frame_needed = 1, uses_anonymous_args = 0
 820 0000 80B5     		push	{r7, lr}
 821              		.cfi_def_cfa_offset 8
 822              		.cfi_offset 7, -8
 823              		.cfi_offset 14, -4
 824 0002 82B0     		sub	sp, sp, #8
 825              		.cfi_def_cfa_offset 16
 826 0004 00AF     		add	r7, sp, #0
 827              		.cfi_def_cfa_register 7
 828 0006 7860     		str	r0, [r7, #4]
 507:Drivers/STM32G0xx_HAL_Driver/Src/stm32g0xx_hal_dma.c ****   /* Check the DMA peripheral handle */
 508:Drivers/STM32G0xx_HAL_Driver/Src/stm32g0xx_hal_dma.c ****   if (NULL == hdma)
 829              		.loc 1 508 6
 830 0008 7B68     		ldr	r3, [r7, #4]
 831 000a 002B     		cmp	r3, #0
 832 000c 01D1     		bne	.L34
 509:Drivers/STM32G0xx_HAL_Driver/Src/stm32g0xx_hal_dma.c ****   {
 510:Drivers/STM32G0xx_HAL_Driver/Src/stm32g0xx_hal_dma.c ****     return HAL_ERROR;
 833              		.loc 1 510 12
 834 000e 0123     		movs	r3, #1
 835 0010 4FE0     		b	.L35
 836              	.L34:
 511:Drivers/STM32G0xx_HAL_Driver/Src/stm32g0xx_hal_dma.c ****   }
 512:Drivers/STM32G0xx_HAL_Driver/Src/stm32g0xx_hal_dma.c **** 
 513:Drivers/STM32G0xx_HAL_Driver/Src/stm32g0xx_hal_dma.c ****   /* Check the DMA peripheral state */
 514:Drivers/STM32G0xx_HAL_Driver/Src/stm32g0xx_hal_dma.c ****   if (hdma->State != HAL_DMA_STATE_BUSY)
 837              		.loc 1 514 11
 838 0012 7B68     		ldr	r3, [r7, #4]
 839 0014 2522     		movs	r2, #37
 840 0016 9B5C     		ldrb	r3, [r3, r2]
 841 0018 DBB2     		uxtb	r3, r3
 842              		.loc 1 514 6
 843 001a 022B     		cmp	r3, #2
 844 001c 08D0     		beq	.L36
 515:Drivers/STM32G0xx_HAL_Driver/Src/stm32g0xx_hal_dma.c ****   {
 516:Drivers/STM32G0xx_HAL_Driver/Src/stm32g0xx_hal_dma.c ****     hdma->ErrorCode = HAL_DMA_ERROR_NO_XFER;
 845              		.loc 1 516 21
 846 001e 7B68     		ldr	r3, [r7, #4]
 847 0020 0422     		movs	r2, #4
 848 0022 DA63     		str	r2, [r3, #60]
 517:Drivers/STM32G0xx_HAL_Driver/Src/stm32g0xx_hal_dma.c **** 
 518:Drivers/STM32G0xx_HAL_Driver/Src/stm32g0xx_hal_dma.c ****     /* Process Unlocked */
 519:Drivers/STM32G0xx_HAL_Driver/Src/stm32g0xx_hal_dma.c ****     __HAL_UNLOCK(hdma);
 849              		.loc 1 519 5
 850 0024 7B68     		ldr	r3, [r7, #4]
 851 0026 2422     		movs	r2, #36
 852 0028 0021     		movs	r1, #0
 853 002a 9954     		strb	r1, [r3, r2]
 520:Drivers/STM32G0xx_HAL_Driver/Src/stm32g0xx_hal_dma.c **** 
 521:Drivers/STM32G0xx_HAL_Driver/Src/stm32g0xx_hal_dma.c ****     return HAL_ERROR;
 854              		.loc 1 521 12
 855 002c 0123     		movs	r3, #1
 856 002e 40E0     		b	.L35
 857              	.L36:
ARM GAS  C:\Users\SOLDER~1\AppData\Local\Temp\cc8E0pRj.s 			page 25


 522:Drivers/STM32G0xx_HAL_Driver/Src/stm32g0xx_hal_dma.c ****   }
 523:Drivers/STM32G0xx_HAL_Driver/Src/stm32g0xx_hal_dma.c ****   else
 524:Drivers/STM32G0xx_HAL_Driver/Src/stm32g0xx_hal_dma.c ****   {
 525:Drivers/STM32G0xx_HAL_Driver/Src/stm32g0xx_hal_dma.c ****     /* Disable DMA IT */
 526:Drivers/STM32G0xx_HAL_Driver/Src/stm32g0xx_hal_dma.c ****     __HAL_DMA_DISABLE_IT(hdma, (DMA_IT_TC | DMA_IT_HT | DMA_IT_TE));
 858              		.loc 1 526 5
 859 0030 7B68     		ldr	r3, [r7, #4]
 860 0032 1B68     		ldr	r3, [r3]
 861 0034 1A68     		ldr	r2, [r3]
 862 0036 7B68     		ldr	r3, [r7, #4]
 863 0038 1B68     		ldr	r3, [r3]
 864 003a 0E21     		movs	r1, #14
 865 003c 8A43     		bics	r2, r1
 866 003e 1A60     		str	r2, [r3]
 527:Drivers/STM32G0xx_HAL_Driver/Src/stm32g0xx_hal_dma.c **** 
 528:Drivers/STM32G0xx_HAL_Driver/Src/stm32g0xx_hal_dma.c ****     /* disable the DMAMUX sync overrun IT*/
 529:Drivers/STM32G0xx_HAL_Driver/Src/stm32g0xx_hal_dma.c ****     hdma->DMAmuxChannel->CCR &= ~DMAMUX_CxCR_SOIE;
 867              		.loc 1 529 9
 868 0040 7B68     		ldr	r3, [r7, #4]
 869 0042 9B6C     		ldr	r3, [r3, #72]
 870              		.loc 1 529 30
 871 0044 1A68     		ldr	r2, [r3]
 872              		.loc 1 529 9
 873 0046 7B68     		ldr	r3, [r7, #4]
 874 0048 9B6C     		ldr	r3, [r3, #72]
 875              		.loc 1 529 30
 876 004a 1C49     		ldr	r1, .L38
 877 004c 0A40     		ands	r2, r1
 878 004e 1A60     		str	r2, [r3]
 530:Drivers/STM32G0xx_HAL_Driver/Src/stm32g0xx_hal_dma.c **** 
 531:Drivers/STM32G0xx_HAL_Driver/Src/stm32g0xx_hal_dma.c ****     /* Disable the channel */
 532:Drivers/STM32G0xx_HAL_Driver/Src/stm32g0xx_hal_dma.c ****     __HAL_DMA_DISABLE(hdma);
 879              		.loc 1 532 5
 880 0050 7B68     		ldr	r3, [r7, #4]
 881 0052 1B68     		ldr	r3, [r3]
 882 0054 1A68     		ldr	r2, [r3]
 883 0056 7B68     		ldr	r3, [r7, #4]
 884 0058 1B68     		ldr	r3, [r3]
 885 005a 0121     		movs	r1, #1
 886 005c 8A43     		bics	r2, r1
 887 005e 1A60     		str	r2, [r3]
 533:Drivers/STM32G0xx_HAL_Driver/Src/stm32g0xx_hal_dma.c **** 
 534:Drivers/STM32G0xx_HAL_Driver/Src/stm32g0xx_hal_dma.c ****     /* Clear all flags */
 535:Drivers/STM32G0xx_HAL_Driver/Src/stm32g0xx_hal_dma.c **** #if defined(DMA2)
 536:Drivers/STM32G0xx_HAL_Driver/Src/stm32g0xx_hal_dma.c ****     hdma->DmaBaseAddress->IFCR = (DMA_ISR_GIF1 << (hdma->ChannelIndex & 0x1CU));
 888              		.loc 1 536 56
 889 0060 7B68     		ldr	r3, [r7, #4]
 890 0062 5B6C     		ldr	r3, [r3, #68]
 891              		.loc 1 536 71
 892 0064 1C22     		movs	r2, #28
 893 0066 1A40     		ands	r2, r3
 894              		.loc 1 536 9
 895 0068 7B68     		ldr	r3, [r7, #4]
 896 006a 1B6C     		ldr	r3, [r3, #64]
 897              		.loc 1 536 48
 898 006c 0121     		movs	r1, #1
 899 006e 9140     		lsls	r1, r1, r2
ARM GAS  C:\Users\SOLDER~1\AppData\Local\Temp\cc8E0pRj.s 			page 26


 900 0070 0A00     		movs	r2, r1
 901              		.loc 1 536 32
 902 0072 5A60     		str	r2, [r3, #4]
 537:Drivers/STM32G0xx_HAL_Driver/Src/stm32g0xx_hal_dma.c **** #else
 538:Drivers/STM32G0xx_HAL_Driver/Src/stm32g0xx_hal_dma.c ****     __HAL_DMA_CLEAR_FLAG(hdma, ((DMA_FLAG_GI1) << (hdma->ChannelIndex  & 0x1CU)));
 539:Drivers/STM32G0xx_HAL_Driver/Src/stm32g0xx_hal_dma.c **** #endif /* DMA2 */
 540:Drivers/STM32G0xx_HAL_Driver/Src/stm32g0xx_hal_dma.c **** 
 541:Drivers/STM32G0xx_HAL_Driver/Src/stm32g0xx_hal_dma.c ****     /* Clear the DMAMUX synchro overrun flag */
 542:Drivers/STM32G0xx_HAL_Driver/Src/stm32g0xx_hal_dma.c ****     hdma->DMAmuxChannelStatus->CFR = hdma->DMAmuxChannelStatusMask;
 903              		.loc 1 542 9
 904 0074 7B68     		ldr	r3, [r7, #4]
 905 0076 DB6C     		ldr	r3, [r3, #76]
 906              		.loc 1 542 42
 907 0078 7A68     		ldr	r2, [r7, #4]
 908 007a 126D     		ldr	r2, [r2, #80]
 909              		.loc 1 542 36
 910 007c 5A60     		str	r2, [r3, #4]
 543:Drivers/STM32G0xx_HAL_Driver/Src/stm32g0xx_hal_dma.c **** 
 544:Drivers/STM32G0xx_HAL_Driver/Src/stm32g0xx_hal_dma.c ****     if (hdma->DMAmuxRequestGen != 0U)
 911              		.loc 1 544 13
 912 007e 7B68     		ldr	r3, [r7, #4]
 913 0080 5B6D     		ldr	r3, [r3, #84]
 914              		.loc 1 544 8
 915 0082 002B     		cmp	r3, #0
 916 0084 0CD0     		beq	.L37
 545:Drivers/STM32G0xx_HAL_Driver/Src/stm32g0xx_hal_dma.c ****     {
 546:Drivers/STM32G0xx_HAL_Driver/Src/stm32g0xx_hal_dma.c ****       /* if using DMAMUX request generator, disable the DMAMUX request generator overrun IT*/
 547:Drivers/STM32G0xx_HAL_Driver/Src/stm32g0xx_hal_dma.c ****       /* disable the request gen overrun IT*/
 548:Drivers/STM32G0xx_HAL_Driver/Src/stm32g0xx_hal_dma.c ****       hdma->DMAmuxRequestGen->RGCR &= ~DMAMUX_RGxCR_OIE;
 917              		.loc 1 548 11
 918 0086 7B68     		ldr	r3, [r7, #4]
 919 0088 5B6D     		ldr	r3, [r3, #84]
 920              		.loc 1 548 36
 921 008a 1A68     		ldr	r2, [r3]
 922              		.loc 1 548 11
 923 008c 7B68     		ldr	r3, [r7, #4]
 924 008e 5B6D     		ldr	r3, [r3, #84]
 925              		.loc 1 548 36
 926 0090 0A49     		ldr	r1, .L38
 927 0092 0A40     		ands	r2, r1
 928 0094 1A60     		str	r2, [r3]
 549:Drivers/STM32G0xx_HAL_Driver/Src/stm32g0xx_hal_dma.c **** 
 550:Drivers/STM32G0xx_HAL_Driver/Src/stm32g0xx_hal_dma.c ****       /* Clear the DMAMUX request generator overrun flag */
 551:Drivers/STM32G0xx_HAL_Driver/Src/stm32g0xx_hal_dma.c ****       hdma->DMAmuxRequestGenStatus->RGCFR = hdma->DMAmuxRequestGenStatusMask;
 929              		.loc 1 551 11
 930 0096 7B68     		ldr	r3, [r7, #4]
 931 0098 9B6D     		ldr	r3, [r3, #88]
 932              		.loc 1 551 49
 933 009a 7A68     		ldr	r2, [r7, #4]
 934 009c D26D     		ldr	r2, [r2, #92]
 935              		.loc 1 551 43
 936 009e 5A60     		str	r2, [r3, #4]
 937              	.L37:
 552:Drivers/STM32G0xx_HAL_Driver/Src/stm32g0xx_hal_dma.c ****     }
 553:Drivers/STM32G0xx_HAL_Driver/Src/stm32g0xx_hal_dma.c **** 
 554:Drivers/STM32G0xx_HAL_Driver/Src/stm32g0xx_hal_dma.c ****     /* Change the DMA state */
 555:Drivers/STM32G0xx_HAL_Driver/Src/stm32g0xx_hal_dma.c ****     hdma->State = HAL_DMA_STATE_READY;
ARM GAS  C:\Users\SOLDER~1\AppData\Local\Temp\cc8E0pRj.s 			page 27


 938              		.loc 1 555 17
 939 00a0 7B68     		ldr	r3, [r7, #4]
 940 00a2 2522     		movs	r2, #37
 941 00a4 0121     		movs	r1, #1
 942 00a6 9954     		strb	r1, [r3, r2]
 556:Drivers/STM32G0xx_HAL_Driver/Src/stm32g0xx_hal_dma.c **** 
 557:Drivers/STM32G0xx_HAL_Driver/Src/stm32g0xx_hal_dma.c ****     /* Process Unlocked */
 558:Drivers/STM32G0xx_HAL_Driver/Src/stm32g0xx_hal_dma.c ****     __HAL_UNLOCK(hdma);
 943              		.loc 1 558 5
 944 00a8 7B68     		ldr	r3, [r7, #4]
 945 00aa 2422     		movs	r2, #36
 946 00ac 0021     		movs	r1, #0
 947 00ae 9954     		strb	r1, [r3, r2]
 559:Drivers/STM32G0xx_HAL_Driver/Src/stm32g0xx_hal_dma.c ****   }
 560:Drivers/STM32G0xx_HAL_Driver/Src/stm32g0xx_hal_dma.c **** 
 561:Drivers/STM32G0xx_HAL_Driver/Src/stm32g0xx_hal_dma.c ****   return HAL_OK;
 948              		.loc 1 561 10
 949 00b0 0023     		movs	r3, #0
 950              	.L35:
 562:Drivers/STM32G0xx_HAL_Driver/Src/stm32g0xx_hal_dma.c **** }
 951              		.loc 1 562 1
 952 00b2 1800     		movs	r0, r3
 953 00b4 BD46     		mov	sp, r7
 954 00b6 02B0     		add	sp, sp, #8
 955              		@ sp needed
 956 00b8 80BD     		pop	{r7, pc}
 957              	.L39:
 958 00ba C046     		.align	2
 959              	.L38:
 960 00bc FFFEFFFF 		.word	-257
 961              		.cfi_endproc
 962              	.LFE359:
 964              		.section	.text.HAL_DMA_Abort_IT,"ax",%progbits
 965              		.align	1
 966              		.global	HAL_DMA_Abort_IT
 967              		.syntax unified
 968              		.code	16
 969              		.thumb_func
 971              	HAL_DMA_Abort_IT:
 972              	.LFB360:
 563:Drivers/STM32G0xx_HAL_Driver/Src/stm32g0xx_hal_dma.c **** 
 564:Drivers/STM32G0xx_HAL_Driver/Src/stm32g0xx_hal_dma.c **** /**
 565:Drivers/STM32G0xx_HAL_Driver/Src/stm32g0xx_hal_dma.c ****   * @brief Aborts the DMA Transfer in Interrupt mode.
 566:Drivers/STM32G0xx_HAL_Driver/Src/stm32g0xx_hal_dma.c ****   * @param hdma Pointer to a DMA_HandleTypeDef structure that contains
 567:Drivers/STM32G0xx_HAL_Driver/Src/stm32g0xx_hal_dma.c ****   *             the configuration information for the specified DMA Channel.
 568:Drivers/STM32G0xx_HAL_Driver/Src/stm32g0xx_hal_dma.c ****   * @retval HAL status
 569:Drivers/STM32G0xx_HAL_Driver/Src/stm32g0xx_hal_dma.c ****   */
 570:Drivers/STM32G0xx_HAL_Driver/Src/stm32g0xx_hal_dma.c **** HAL_StatusTypeDef HAL_DMA_Abort_IT(DMA_HandleTypeDef *hdma)
 571:Drivers/STM32G0xx_HAL_Driver/Src/stm32g0xx_hal_dma.c **** {
 973              		.loc 1 571 1
 974              		.cfi_startproc
 975              		@ args = 0, pretend = 0, frame = 16
 976              		@ frame_needed = 1, uses_anonymous_args = 0
 977 0000 80B5     		push	{r7, lr}
 978              		.cfi_def_cfa_offset 8
 979              		.cfi_offset 7, -8
 980              		.cfi_offset 14, -4
ARM GAS  C:\Users\SOLDER~1\AppData\Local\Temp\cc8E0pRj.s 			page 28


 981 0002 84B0     		sub	sp, sp, #16
 982              		.cfi_def_cfa_offset 24
 983 0004 00AF     		add	r7, sp, #0
 984              		.cfi_def_cfa_register 7
 985 0006 7860     		str	r0, [r7, #4]
 572:Drivers/STM32G0xx_HAL_Driver/Src/stm32g0xx_hal_dma.c ****   HAL_StatusTypeDef status = HAL_OK;
 986              		.loc 1 572 21
 987 0008 0F21     		movs	r1, #15
 988 000a 7B18     		adds	r3, r7, r1
 989 000c 0022     		movs	r2, #0
 990 000e 1A70     		strb	r2, [r3]
 573:Drivers/STM32G0xx_HAL_Driver/Src/stm32g0xx_hal_dma.c **** 
 574:Drivers/STM32G0xx_HAL_Driver/Src/stm32g0xx_hal_dma.c ****   if (hdma->State != HAL_DMA_STATE_BUSY)
 991              		.loc 1 574 11
 992 0010 7B68     		ldr	r3, [r7, #4]
 993 0012 2522     		movs	r2, #37
 994 0014 9B5C     		ldrb	r3, [r3, r2]
 995 0016 DBB2     		uxtb	r3, r3
 996              		.loc 1 574 6
 997 0018 022B     		cmp	r3, #2
 998 001a 06D0     		beq	.L41
 575:Drivers/STM32G0xx_HAL_Driver/Src/stm32g0xx_hal_dma.c ****   {
 576:Drivers/STM32G0xx_HAL_Driver/Src/stm32g0xx_hal_dma.c ****     /* no transfer ongoing */
 577:Drivers/STM32G0xx_HAL_Driver/Src/stm32g0xx_hal_dma.c ****     hdma->ErrorCode = HAL_DMA_ERROR_NO_XFER;
 999              		.loc 1 577 21
 1000 001c 7B68     		ldr	r3, [r7, #4]
 1001 001e 0422     		movs	r2, #4
 1002 0020 DA63     		str	r2, [r3, #60]
 578:Drivers/STM32G0xx_HAL_Driver/Src/stm32g0xx_hal_dma.c **** 
 579:Drivers/STM32G0xx_HAL_Driver/Src/stm32g0xx_hal_dma.c ****     status = HAL_ERROR;
 1003              		.loc 1 579 12
 1004 0022 7B18     		adds	r3, r7, r1
 1005 0024 0122     		movs	r2, #1
 1006 0026 1A70     		strb	r2, [r3]
 1007 0028 48E0     		b	.L42
 1008              	.L41:
 580:Drivers/STM32G0xx_HAL_Driver/Src/stm32g0xx_hal_dma.c ****   }
 581:Drivers/STM32G0xx_HAL_Driver/Src/stm32g0xx_hal_dma.c ****   else
 582:Drivers/STM32G0xx_HAL_Driver/Src/stm32g0xx_hal_dma.c ****   {
 583:Drivers/STM32G0xx_HAL_Driver/Src/stm32g0xx_hal_dma.c ****     /* Disable DMA IT */
 584:Drivers/STM32G0xx_HAL_Driver/Src/stm32g0xx_hal_dma.c ****     __HAL_DMA_DISABLE_IT(hdma, (DMA_IT_TC | DMA_IT_HT | DMA_IT_TE));
 1009              		.loc 1 584 5
 1010 002a 7B68     		ldr	r3, [r7, #4]
 1011 002c 1B68     		ldr	r3, [r3]
 1012 002e 1A68     		ldr	r2, [r3]
 1013 0030 7B68     		ldr	r3, [r7, #4]
 1014 0032 1B68     		ldr	r3, [r3]
 1015 0034 0E21     		movs	r1, #14
 1016 0036 8A43     		bics	r2, r1
 1017 0038 1A60     		str	r2, [r3]
 585:Drivers/STM32G0xx_HAL_Driver/Src/stm32g0xx_hal_dma.c **** 
 586:Drivers/STM32G0xx_HAL_Driver/Src/stm32g0xx_hal_dma.c ****     /* Disable the channel */
 587:Drivers/STM32G0xx_HAL_Driver/Src/stm32g0xx_hal_dma.c ****     __HAL_DMA_DISABLE(hdma);
 1018              		.loc 1 587 5
 1019 003a 7B68     		ldr	r3, [r7, #4]
 1020 003c 1B68     		ldr	r3, [r3]
 1021 003e 1A68     		ldr	r2, [r3]
ARM GAS  C:\Users\SOLDER~1\AppData\Local\Temp\cc8E0pRj.s 			page 29


 1022 0040 7B68     		ldr	r3, [r7, #4]
 1023 0042 1B68     		ldr	r3, [r3]
 1024 0044 0121     		movs	r1, #1
 1025 0046 8A43     		bics	r2, r1
 1026 0048 1A60     		str	r2, [r3]
 588:Drivers/STM32G0xx_HAL_Driver/Src/stm32g0xx_hal_dma.c **** 
 589:Drivers/STM32G0xx_HAL_Driver/Src/stm32g0xx_hal_dma.c ****     /* disable the DMAMUX sync overrun IT*/
 590:Drivers/STM32G0xx_HAL_Driver/Src/stm32g0xx_hal_dma.c ****     hdma->DMAmuxChannel->CCR &= ~DMAMUX_CxCR_SOIE;
 1027              		.loc 1 590 9
 1028 004a 7B68     		ldr	r3, [r7, #4]
 1029 004c 9B6C     		ldr	r3, [r3, #72]
 1030              		.loc 1 590 30
 1031 004e 1A68     		ldr	r2, [r3]
 1032              		.loc 1 590 9
 1033 0050 7B68     		ldr	r3, [r7, #4]
 1034 0052 9B6C     		ldr	r3, [r3, #72]
 1035              		.loc 1 590 30
 1036 0054 1D49     		ldr	r1, .L45
 1037 0056 0A40     		ands	r2, r1
 1038 0058 1A60     		str	r2, [r3]
 591:Drivers/STM32G0xx_HAL_Driver/Src/stm32g0xx_hal_dma.c **** 
 592:Drivers/STM32G0xx_HAL_Driver/Src/stm32g0xx_hal_dma.c ****     /* Clear all flags */
 593:Drivers/STM32G0xx_HAL_Driver/Src/stm32g0xx_hal_dma.c **** #if defined(DMA2)
 594:Drivers/STM32G0xx_HAL_Driver/Src/stm32g0xx_hal_dma.c ****     hdma->DmaBaseAddress->IFCR = (DMA_ISR_GIF1 << (hdma->ChannelIndex & 0x1CU));
 1039              		.loc 1 594 56
 1040 005a 7B68     		ldr	r3, [r7, #4]
 1041 005c 5B6C     		ldr	r3, [r3, #68]
 1042              		.loc 1 594 71
 1043 005e 1C22     		movs	r2, #28
 1044 0060 1A40     		ands	r2, r3
 1045              		.loc 1 594 9
 1046 0062 7B68     		ldr	r3, [r7, #4]
 1047 0064 1B6C     		ldr	r3, [r3, #64]
 1048              		.loc 1 594 48
 1049 0066 0121     		movs	r1, #1
 1050 0068 9140     		lsls	r1, r1, r2
 1051 006a 0A00     		movs	r2, r1
 1052              		.loc 1 594 32
 1053 006c 5A60     		str	r2, [r3, #4]
 595:Drivers/STM32G0xx_HAL_Driver/Src/stm32g0xx_hal_dma.c **** #else
 596:Drivers/STM32G0xx_HAL_Driver/Src/stm32g0xx_hal_dma.c ****     __HAL_DMA_CLEAR_FLAG(hdma, ((DMA_FLAG_GI1) << (hdma->ChannelIndex & 0x1CU)));
 597:Drivers/STM32G0xx_HAL_Driver/Src/stm32g0xx_hal_dma.c **** #endif /* DMA2 */
 598:Drivers/STM32G0xx_HAL_Driver/Src/stm32g0xx_hal_dma.c **** 
 599:Drivers/STM32G0xx_HAL_Driver/Src/stm32g0xx_hal_dma.c ****     /* Clear the DMAMUX synchro overrun flag */
 600:Drivers/STM32G0xx_HAL_Driver/Src/stm32g0xx_hal_dma.c ****     hdma->DMAmuxChannelStatus->CFR = hdma->DMAmuxChannelStatusMask;
 1054              		.loc 1 600 9
 1055 006e 7B68     		ldr	r3, [r7, #4]
 1056 0070 DB6C     		ldr	r3, [r3, #76]
 1057              		.loc 1 600 42
 1058 0072 7A68     		ldr	r2, [r7, #4]
 1059 0074 126D     		ldr	r2, [r2, #80]
 1060              		.loc 1 600 36
 1061 0076 5A60     		str	r2, [r3, #4]
 601:Drivers/STM32G0xx_HAL_Driver/Src/stm32g0xx_hal_dma.c **** 
 602:Drivers/STM32G0xx_HAL_Driver/Src/stm32g0xx_hal_dma.c ****     if (hdma->DMAmuxRequestGen != 0U)
 1062              		.loc 1 602 13
 1063 0078 7B68     		ldr	r3, [r7, #4]
ARM GAS  C:\Users\SOLDER~1\AppData\Local\Temp\cc8E0pRj.s 			page 30


 1064 007a 5B6D     		ldr	r3, [r3, #84]
 1065              		.loc 1 602 8
 1066 007c 002B     		cmp	r3, #0
 1067 007e 0CD0     		beq	.L43
 603:Drivers/STM32G0xx_HAL_Driver/Src/stm32g0xx_hal_dma.c ****     {
 604:Drivers/STM32G0xx_HAL_Driver/Src/stm32g0xx_hal_dma.c ****       /* if using DMAMUX request generator, disable the DMAMUX request generator overrun IT*/
 605:Drivers/STM32G0xx_HAL_Driver/Src/stm32g0xx_hal_dma.c ****       /* disable the request gen overrun IT*/
 606:Drivers/STM32G0xx_HAL_Driver/Src/stm32g0xx_hal_dma.c ****       hdma->DMAmuxRequestGen->RGCR &= ~DMAMUX_RGxCR_OIE;
 1068              		.loc 1 606 11
 1069 0080 7B68     		ldr	r3, [r7, #4]
 1070 0082 5B6D     		ldr	r3, [r3, #84]
 1071              		.loc 1 606 36
 1072 0084 1A68     		ldr	r2, [r3]
 1073              		.loc 1 606 11
 1074 0086 7B68     		ldr	r3, [r7, #4]
 1075 0088 5B6D     		ldr	r3, [r3, #84]
 1076              		.loc 1 606 36
 1077 008a 1049     		ldr	r1, .L45
 1078 008c 0A40     		ands	r2, r1
 1079 008e 1A60     		str	r2, [r3]
 607:Drivers/STM32G0xx_HAL_Driver/Src/stm32g0xx_hal_dma.c **** 
 608:Drivers/STM32G0xx_HAL_Driver/Src/stm32g0xx_hal_dma.c ****       /* Clear the DMAMUX request generator overrun flag */
 609:Drivers/STM32G0xx_HAL_Driver/Src/stm32g0xx_hal_dma.c ****       hdma->DMAmuxRequestGenStatus->RGCFR = hdma->DMAmuxRequestGenStatusMask;
 1080              		.loc 1 609 11
 1081 0090 7B68     		ldr	r3, [r7, #4]
 1082 0092 9B6D     		ldr	r3, [r3, #88]
 1083              		.loc 1 609 49
 1084 0094 7A68     		ldr	r2, [r7, #4]
 1085 0096 D26D     		ldr	r2, [r2, #92]
 1086              		.loc 1 609 43
 1087 0098 5A60     		str	r2, [r3, #4]
 1088              	.L43:
 610:Drivers/STM32G0xx_HAL_Driver/Src/stm32g0xx_hal_dma.c ****     }
 611:Drivers/STM32G0xx_HAL_Driver/Src/stm32g0xx_hal_dma.c **** 
 612:Drivers/STM32G0xx_HAL_Driver/Src/stm32g0xx_hal_dma.c ****     /* Change the DMA state */
 613:Drivers/STM32G0xx_HAL_Driver/Src/stm32g0xx_hal_dma.c ****     hdma->State = HAL_DMA_STATE_READY;
 1089              		.loc 1 613 17
 1090 009a 7B68     		ldr	r3, [r7, #4]
 1091 009c 2522     		movs	r2, #37
 1092 009e 0121     		movs	r1, #1
 1093 00a0 9954     		strb	r1, [r3, r2]
 614:Drivers/STM32G0xx_HAL_Driver/Src/stm32g0xx_hal_dma.c **** 
 615:Drivers/STM32G0xx_HAL_Driver/Src/stm32g0xx_hal_dma.c ****     /* Process Unlocked */
 616:Drivers/STM32G0xx_HAL_Driver/Src/stm32g0xx_hal_dma.c ****     __HAL_UNLOCK(hdma);
 1094              		.loc 1 616 5
 1095 00a2 7B68     		ldr	r3, [r7, #4]
 1096 00a4 2422     		movs	r2, #36
 1097 00a6 0021     		movs	r1, #0
 1098 00a8 9954     		strb	r1, [r3, r2]
 617:Drivers/STM32G0xx_HAL_Driver/Src/stm32g0xx_hal_dma.c **** 
 618:Drivers/STM32G0xx_HAL_Driver/Src/stm32g0xx_hal_dma.c ****     /* Call User Abort callback */
 619:Drivers/STM32G0xx_HAL_Driver/Src/stm32g0xx_hal_dma.c ****     if (hdma->XferAbortCallback != NULL)
 1099              		.loc 1 619 13
 1100 00aa 7B68     		ldr	r3, [r7, #4]
 1101 00ac 9B6B     		ldr	r3, [r3, #56]
 1102              		.loc 1 619 8
 1103 00ae 002B     		cmp	r3, #0
ARM GAS  C:\Users\SOLDER~1\AppData\Local\Temp\cc8E0pRj.s 			page 31


 1104 00b0 04D0     		beq	.L42
 620:Drivers/STM32G0xx_HAL_Driver/Src/stm32g0xx_hal_dma.c ****     {
 621:Drivers/STM32G0xx_HAL_Driver/Src/stm32g0xx_hal_dma.c ****       hdma->XferAbortCallback(hdma);
 1105              		.loc 1 621 11
 1106 00b2 7B68     		ldr	r3, [r7, #4]
 1107 00b4 9B6B     		ldr	r3, [r3, #56]
 1108              		.loc 1 621 7
 1109 00b6 7A68     		ldr	r2, [r7, #4]
 1110 00b8 1000     		movs	r0, r2
 1111 00ba 9847     		blx	r3
 1112              	.LVL0:
 1113              	.L42:
 622:Drivers/STM32G0xx_HAL_Driver/Src/stm32g0xx_hal_dma.c ****     }
 623:Drivers/STM32G0xx_HAL_Driver/Src/stm32g0xx_hal_dma.c ****   }
 624:Drivers/STM32G0xx_HAL_Driver/Src/stm32g0xx_hal_dma.c ****   return status;
 1114              		.loc 1 624 10
 1115 00bc 0F23     		movs	r3, #15
 1116 00be FB18     		adds	r3, r7, r3
 1117 00c0 1B78     		ldrb	r3, [r3]
 625:Drivers/STM32G0xx_HAL_Driver/Src/stm32g0xx_hal_dma.c **** }
 1118              		.loc 1 625 1
 1119 00c2 1800     		movs	r0, r3
 1120 00c4 BD46     		mov	sp, r7
 1121 00c6 04B0     		add	sp, sp, #16
 1122              		@ sp needed
 1123 00c8 80BD     		pop	{r7, pc}
 1124              	.L46:
 1125 00ca C046     		.align	2
 1126              	.L45:
 1127 00cc FFFEFFFF 		.word	-257
 1128              		.cfi_endproc
 1129              	.LFE360:
 1131              		.section	.text.HAL_DMA_PollForTransfer,"ax",%progbits
 1132              		.align	1
 1133              		.global	HAL_DMA_PollForTransfer
 1134              		.syntax unified
 1135              		.code	16
 1136              		.thumb_func
 1138              	HAL_DMA_PollForTransfer:
 1139              	.LFB361:
 626:Drivers/STM32G0xx_HAL_Driver/Src/stm32g0xx_hal_dma.c **** 
 627:Drivers/STM32G0xx_HAL_Driver/Src/stm32g0xx_hal_dma.c **** /**
 628:Drivers/STM32G0xx_HAL_Driver/Src/stm32g0xx_hal_dma.c ****   * @brief Polling for transfer complete.
 629:Drivers/STM32G0xx_HAL_Driver/Src/stm32g0xx_hal_dma.c ****   * @param hdma Pointer to a DMA_HandleTypeDef structure that contains
 630:Drivers/STM32G0xx_HAL_Driver/Src/stm32g0xx_hal_dma.c ****   *             the configuration information for the specified DMA Channel.
 631:Drivers/STM32G0xx_HAL_Driver/Src/stm32g0xx_hal_dma.c ****   * @param CompleteLevel Specifies the DMA level complete.
 632:Drivers/STM32G0xx_HAL_Driver/Src/stm32g0xx_hal_dma.c ****   * @param Timeout Timeout duration.
 633:Drivers/STM32G0xx_HAL_Driver/Src/stm32g0xx_hal_dma.c ****   * @retval HAL status
 634:Drivers/STM32G0xx_HAL_Driver/Src/stm32g0xx_hal_dma.c ****   */
 635:Drivers/STM32G0xx_HAL_Driver/Src/stm32g0xx_hal_dma.c **** HAL_StatusTypeDef HAL_DMA_PollForTransfer(DMA_HandleTypeDef *hdma, HAL_DMA_LevelCompleteTypeDef Com
 636:Drivers/STM32G0xx_HAL_Driver/Src/stm32g0xx_hal_dma.c **** {
 1140              		.loc 1 636 1
 1141              		.cfi_startproc
 1142              		@ args = 0, pretend = 0, frame = 24
 1143              		@ frame_needed = 1, uses_anonymous_args = 0
 1144 0000 80B5     		push	{r7, lr}
 1145              		.cfi_def_cfa_offset 8
ARM GAS  C:\Users\SOLDER~1\AppData\Local\Temp\cc8E0pRj.s 			page 32


 1146              		.cfi_offset 7, -8
 1147              		.cfi_offset 14, -4
 1148 0002 86B0     		sub	sp, sp, #24
 1149              		.cfi_def_cfa_offset 32
 1150 0004 00AF     		add	r7, sp, #0
 1151              		.cfi_def_cfa_register 7
 1152 0006 F860     		str	r0, [r7, #12]
 1153 0008 7A60     		str	r2, [r7, #4]
 1154 000a 0B23     		movs	r3, #11
 1155 000c FB18     		adds	r3, r7, r3
 1156 000e 0A1C     		adds	r2, r1, #0
 1157 0010 1A70     		strb	r2, [r3]
 637:Drivers/STM32G0xx_HAL_Driver/Src/stm32g0xx_hal_dma.c ****   uint32_t temp;
 638:Drivers/STM32G0xx_HAL_Driver/Src/stm32g0xx_hal_dma.c ****   uint32_t tickstart;
 639:Drivers/STM32G0xx_HAL_Driver/Src/stm32g0xx_hal_dma.c **** 
 640:Drivers/STM32G0xx_HAL_Driver/Src/stm32g0xx_hal_dma.c ****   if (hdma->State != HAL_DMA_STATE_BUSY)
 1158              		.loc 1 640 11
 1159 0012 FB68     		ldr	r3, [r7, #12]
 1160 0014 2522     		movs	r2, #37
 1161 0016 9B5C     		ldrb	r3, [r3, r2]
 1162 0018 DBB2     		uxtb	r3, r3
 1163              		.loc 1 640 6
 1164 001a 022B     		cmp	r3, #2
 1165 001c 08D0     		beq	.L48
 641:Drivers/STM32G0xx_HAL_Driver/Src/stm32g0xx_hal_dma.c ****   {
 642:Drivers/STM32G0xx_HAL_Driver/Src/stm32g0xx_hal_dma.c ****     /* no transfer ongoing */
 643:Drivers/STM32G0xx_HAL_Driver/Src/stm32g0xx_hal_dma.c ****     hdma->ErrorCode = HAL_DMA_ERROR_NO_XFER;
 1166              		.loc 1 643 21
 1167 001e FB68     		ldr	r3, [r7, #12]
 1168 0020 0422     		movs	r2, #4
 1169 0022 DA63     		str	r2, [r3, #60]
 644:Drivers/STM32G0xx_HAL_Driver/Src/stm32g0xx_hal_dma.c ****     __HAL_UNLOCK(hdma);
 1170              		.loc 1 644 5
 1171 0024 FB68     		ldr	r3, [r7, #12]
 1172 0026 2422     		movs	r2, #36
 1173 0028 0021     		movs	r1, #0
 1174 002a 9954     		strb	r1, [r3, r2]
 645:Drivers/STM32G0xx_HAL_Driver/Src/stm32g0xx_hal_dma.c ****     return HAL_ERROR;
 1175              		.loc 1 645 12
 1176 002c 0123     		movs	r3, #1
 1177 002e C0E0     		b	.L49
 1178              	.L48:
 646:Drivers/STM32G0xx_HAL_Driver/Src/stm32g0xx_hal_dma.c ****   }
 647:Drivers/STM32G0xx_HAL_Driver/Src/stm32g0xx_hal_dma.c **** 
 648:Drivers/STM32G0xx_HAL_Driver/Src/stm32g0xx_hal_dma.c ****   /* Polling mode not supported in circular mode */
 649:Drivers/STM32G0xx_HAL_Driver/Src/stm32g0xx_hal_dma.c ****   if ((hdma->Instance->CCR & DMA_CCR_CIRC) != 0U)
 1179              		.loc 1 649 12
 1180 0030 FB68     		ldr	r3, [r7, #12]
 1181 0032 1B68     		ldr	r3, [r3]
 1182              		.loc 1 649 22
 1183 0034 1B68     		ldr	r3, [r3]
 1184              		.loc 1 649 28
 1185 0036 2022     		movs	r2, #32
 1186 0038 1340     		ands	r3, r2
 1187              		.loc 1 649 6
 1188 003a 05D0     		beq	.L50
 650:Drivers/STM32G0xx_HAL_Driver/Src/stm32g0xx_hal_dma.c ****   {
ARM GAS  C:\Users\SOLDER~1\AppData\Local\Temp\cc8E0pRj.s 			page 33


 651:Drivers/STM32G0xx_HAL_Driver/Src/stm32g0xx_hal_dma.c ****     hdma->ErrorCode = HAL_DMA_ERROR_NOT_SUPPORTED;
 1189              		.loc 1 651 21
 1190 003c FB68     		ldr	r3, [r7, #12]
 1191 003e 8022     		movs	r2, #128
 1192 0040 5200     		lsls	r2, r2, #1
 1193 0042 DA63     		str	r2, [r3, #60]
 652:Drivers/STM32G0xx_HAL_Driver/Src/stm32g0xx_hal_dma.c ****     return HAL_ERROR;
 1194              		.loc 1 652 12
 1195 0044 0123     		movs	r3, #1
 1196 0046 B4E0     		b	.L49
 1197              	.L50:
 653:Drivers/STM32G0xx_HAL_Driver/Src/stm32g0xx_hal_dma.c ****   }
 654:Drivers/STM32G0xx_HAL_Driver/Src/stm32g0xx_hal_dma.c **** 
 655:Drivers/STM32G0xx_HAL_Driver/Src/stm32g0xx_hal_dma.c ****   /* Get the level transfer complete flag */
 656:Drivers/STM32G0xx_HAL_Driver/Src/stm32g0xx_hal_dma.c ****   if (HAL_DMA_FULL_TRANSFER == CompleteLevel)
 1198              		.loc 1 656 6
 1199 0048 0B23     		movs	r3, #11
 1200 004a FB18     		adds	r3, r7, r3
 1201 004c 1B78     		ldrb	r3, [r3]
 1202 004e 002B     		cmp	r3, #0
 1203 0050 08D1     		bne	.L51
 657:Drivers/STM32G0xx_HAL_Driver/Src/stm32g0xx_hal_dma.c ****   {
 658:Drivers/STM32G0xx_HAL_Driver/Src/stm32g0xx_hal_dma.c ****     /* Transfer Complete flag */
 659:Drivers/STM32G0xx_HAL_Driver/Src/stm32g0xx_hal_dma.c ****     temp = DMA_FLAG_TC1 << (hdma->ChannelIndex & 0x1CU);
 1204              		.loc 1 659 33
 1205 0052 FB68     		ldr	r3, [r7, #12]
 1206 0054 5B6C     		ldr	r3, [r3, #68]
 1207              		.loc 1 659 48
 1208 0056 1C22     		movs	r2, #28
 1209 0058 1340     		ands	r3, r2
 1210              		.loc 1 659 10
 1211 005a 0222     		movs	r2, #2
 1212 005c 9A40     		lsls	r2, r2, r3
 1213 005e 1300     		movs	r3, r2
 1214 0060 7B61     		str	r3, [r7, #20]
 1215 0062 07E0     		b	.L52
 1216              	.L51:
 660:Drivers/STM32G0xx_HAL_Driver/Src/stm32g0xx_hal_dma.c ****   }
 661:Drivers/STM32G0xx_HAL_Driver/Src/stm32g0xx_hal_dma.c ****   else
 662:Drivers/STM32G0xx_HAL_Driver/Src/stm32g0xx_hal_dma.c ****   {
 663:Drivers/STM32G0xx_HAL_Driver/Src/stm32g0xx_hal_dma.c ****     /* Half Transfer Complete flag */
 664:Drivers/STM32G0xx_HAL_Driver/Src/stm32g0xx_hal_dma.c ****     temp = DMA_FLAG_HT1 << (hdma->ChannelIndex & 0x1CU);
 1217              		.loc 1 664 33
 1218 0064 FB68     		ldr	r3, [r7, #12]
 1219 0066 5B6C     		ldr	r3, [r3, #68]
 1220              		.loc 1 664 48
 1221 0068 1C22     		movs	r2, #28
 1222 006a 1340     		ands	r3, r2
 1223              		.loc 1 664 10
 1224 006c 0422     		movs	r2, #4
 1225 006e 9A40     		lsls	r2, r2, r3
 1226 0070 1300     		movs	r3, r2
 1227 0072 7B61     		str	r3, [r7, #20]
 1228              	.L52:
 665:Drivers/STM32G0xx_HAL_Driver/Src/stm32g0xx_hal_dma.c ****   }
 666:Drivers/STM32G0xx_HAL_Driver/Src/stm32g0xx_hal_dma.c **** 
 667:Drivers/STM32G0xx_HAL_Driver/Src/stm32g0xx_hal_dma.c ****   /* Get tick */
ARM GAS  C:\Users\SOLDER~1\AppData\Local\Temp\cc8E0pRj.s 			page 34


 668:Drivers/STM32G0xx_HAL_Driver/Src/stm32g0xx_hal_dma.c ****   tickstart = HAL_GetTick();
 1229              		.loc 1 668 15
 1230 0074 FFF7FEFF 		bl	HAL_GetTick
 1231 0078 0300     		movs	r3, r0
 1232 007a 3B61     		str	r3, [r7, #16]
 669:Drivers/STM32G0xx_HAL_Driver/Src/stm32g0xx_hal_dma.c **** 
 670:Drivers/STM32G0xx_HAL_Driver/Src/stm32g0xx_hal_dma.c **** #if defined(DMA2)
 671:Drivers/STM32G0xx_HAL_Driver/Src/stm32g0xx_hal_dma.c ****   while ((hdma->DmaBaseAddress->ISR & temp) == 0U)
 1233              		.loc 1 671 9
 1234 007c 3DE0     		b	.L53
 1235              	.L56:
 672:Drivers/STM32G0xx_HAL_Driver/Src/stm32g0xx_hal_dma.c ****   {
 673:Drivers/STM32G0xx_HAL_Driver/Src/stm32g0xx_hal_dma.c ****     if ((hdma->DmaBaseAddress->ISR & (DMA_FLAG_TE1 << (hdma->ChannelIndex & 0x1CU))) != 0U)
 1236              		.loc 1 673 14
 1237 007e FB68     		ldr	r3, [r7, #12]
 1238 0080 1B6C     		ldr	r3, [r3, #64]
 1239              		.loc 1 673 30
 1240 0082 1A68     		ldr	r2, [r3]
 1241              		.loc 1 673 60
 1242 0084 FB68     		ldr	r3, [r7, #12]
 1243 0086 5B6C     		ldr	r3, [r3, #68]
 1244              		.loc 1 673 75
 1245 0088 1C21     		movs	r1, #28
 1246 008a 0B40     		ands	r3, r1
 1247              		.loc 1 673 52
 1248 008c 0821     		movs	r1, #8
 1249 008e 9940     		lsls	r1, r1, r3
 1250 0090 0B00     		movs	r3, r1
 1251              		.loc 1 673 36
 1252 0092 1340     		ands	r3, r2
 1253              		.loc 1 673 8
 1254 0094 16D0     		beq	.L54
 674:Drivers/STM32G0xx_HAL_Driver/Src/stm32g0xx_hal_dma.c ****     {
 675:Drivers/STM32G0xx_HAL_Driver/Src/stm32g0xx_hal_dma.c ****       /* When a DMA transfer error occurs */
 676:Drivers/STM32G0xx_HAL_Driver/Src/stm32g0xx_hal_dma.c ****       /* A hardware clear of its EN bits is performed */
 677:Drivers/STM32G0xx_HAL_Driver/Src/stm32g0xx_hal_dma.c ****       /* Clear all flags */
 678:Drivers/STM32G0xx_HAL_Driver/Src/stm32g0xx_hal_dma.c ****       hdma->DmaBaseAddress->IFCR = (DMA_ISR_GIF1 << (hdma->ChannelIndex & 0x1CU));
 1255              		.loc 1 678 58
 1256 0096 FB68     		ldr	r3, [r7, #12]
 1257 0098 5B6C     		ldr	r3, [r3, #68]
 1258              		.loc 1 678 73
 1259 009a 1C22     		movs	r2, #28
 1260 009c 1A40     		ands	r2, r3
 1261              		.loc 1 678 11
 1262 009e FB68     		ldr	r3, [r7, #12]
 1263 00a0 1B6C     		ldr	r3, [r3, #64]
 1264              		.loc 1 678 50
 1265 00a2 0121     		movs	r1, #1
 1266 00a4 9140     		lsls	r1, r1, r2
 1267 00a6 0A00     		movs	r2, r1
 1268              		.loc 1 678 34
 1269 00a8 5A60     		str	r2, [r3, #4]
 679:Drivers/STM32G0xx_HAL_Driver/Src/stm32g0xx_hal_dma.c **** 
 680:Drivers/STM32G0xx_HAL_Driver/Src/stm32g0xx_hal_dma.c ****       /* Update error code */
 681:Drivers/STM32G0xx_HAL_Driver/Src/stm32g0xx_hal_dma.c ****       hdma->ErrorCode = HAL_DMA_ERROR_TE;
 1270              		.loc 1 681 23
 1271 00aa FB68     		ldr	r3, [r7, #12]
ARM GAS  C:\Users\SOLDER~1\AppData\Local\Temp\cc8E0pRj.s 			page 35


 1272 00ac 0122     		movs	r2, #1
 1273 00ae DA63     		str	r2, [r3, #60]
 682:Drivers/STM32G0xx_HAL_Driver/Src/stm32g0xx_hal_dma.c **** 
 683:Drivers/STM32G0xx_HAL_Driver/Src/stm32g0xx_hal_dma.c ****       /* Change the DMA state */
 684:Drivers/STM32G0xx_HAL_Driver/Src/stm32g0xx_hal_dma.c ****       hdma->State = HAL_DMA_STATE_READY;
 1274              		.loc 1 684 19
 1275 00b0 FB68     		ldr	r3, [r7, #12]
 1276 00b2 2522     		movs	r2, #37
 1277 00b4 0121     		movs	r1, #1
 1278 00b6 9954     		strb	r1, [r3, r2]
 685:Drivers/STM32G0xx_HAL_Driver/Src/stm32g0xx_hal_dma.c **** 
 686:Drivers/STM32G0xx_HAL_Driver/Src/stm32g0xx_hal_dma.c ****       /* Process Unlocked */
 687:Drivers/STM32G0xx_HAL_Driver/Src/stm32g0xx_hal_dma.c ****       __HAL_UNLOCK(hdma);
 1279              		.loc 1 687 7
 1280 00b8 FB68     		ldr	r3, [r7, #12]
 1281 00ba 2422     		movs	r2, #36
 1282 00bc 0021     		movs	r1, #0
 1283 00be 9954     		strb	r1, [r3, r2]
 688:Drivers/STM32G0xx_HAL_Driver/Src/stm32g0xx_hal_dma.c **** 
 689:Drivers/STM32G0xx_HAL_Driver/Src/stm32g0xx_hal_dma.c ****       return HAL_ERROR;
 1284              		.loc 1 689 14
 1285 00c0 0123     		movs	r3, #1
 1286 00c2 76E0     		b	.L49
 1287              	.L54:
 690:Drivers/STM32G0xx_HAL_Driver/Src/stm32g0xx_hal_dma.c ****     }
 691:Drivers/STM32G0xx_HAL_Driver/Src/stm32g0xx_hal_dma.c **** #else
 692:Drivers/STM32G0xx_HAL_Driver/Src/stm32g0xx_hal_dma.c ****   while (0U == __HAL_DMA_GET_FLAG(hdma, temp))
 693:Drivers/STM32G0xx_HAL_Driver/Src/stm32g0xx_hal_dma.c ****   {
 694:Drivers/STM32G0xx_HAL_Driver/Src/stm32g0xx_hal_dma.c ****     if (0U != __HAL_DMA_GET_FLAG(hdma, (DMA_FLAG_TE1 << (hdma->ChannelIndex & 0x1CU))))
 695:Drivers/STM32G0xx_HAL_Driver/Src/stm32g0xx_hal_dma.c ****     {
 696:Drivers/STM32G0xx_HAL_Driver/Src/stm32g0xx_hal_dma.c ****       /* When a DMA transfer error occurs */
 697:Drivers/STM32G0xx_HAL_Driver/Src/stm32g0xx_hal_dma.c ****       /* A hardware clear of its EN bits is performed */
 698:Drivers/STM32G0xx_HAL_Driver/Src/stm32g0xx_hal_dma.c ****       /* Clear all flags */
 699:Drivers/STM32G0xx_HAL_Driver/Src/stm32g0xx_hal_dma.c ****       __HAL_DMA_CLEAR_FLAG(hdma, ((DMA_FLAG_GI1) << (hdma->ChannelIndex & 0x1CU)));
 700:Drivers/STM32G0xx_HAL_Driver/Src/stm32g0xx_hal_dma.c **** 
 701:Drivers/STM32G0xx_HAL_Driver/Src/stm32g0xx_hal_dma.c ****       /* Update error code */
 702:Drivers/STM32G0xx_HAL_Driver/Src/stm32g0xx_hal_dma.c ****       hdma->ErrorCode = HAL_DMA_ERROR_TE;
 703:Drivers/STM32G0xx_HAL_Driver/Src/stm32g0xx_hal_dma.c **** 
 704:Drivers/STM32G0xx_HAL_Driver/Src/stm32g0xx_hal_dma.c ****       /* Change the DMA state */
 705:Drivers/STM32G0xx_HAL_Driver/Src/stm32g0xx_hal_dma.c ****       hdma->State = HAL_DMA_STATE_READY;
 706:Drivers/STM32G0xx_HAL_Driver/Src/stm32g0xx_hal_dma.c **** 
 707:Drivers/STM32G0xx_HAL_Driver/Src/stm32g0xx_hal_dma.c ****       /* Process Unlocked */
 708:Drivers/STM32G0xx_HAL_Driver/Src/stm32g0xx_hal_dma.c ****       __HAL_UNLOCK(hdma);
 709:Drivers/STM32G0xx_HAL_Driver/Src/stm32g0xx_hal_dma.c **** 
 710:Drivers/STM32G0xx_HAL_Driver/Src/stm32g0xx_hal_dma.c ****       return HAL_ERROR;
 711:Drivers/STM32G0xx_HAL_Driver/Src/stm32g0xx_hal_dma.c ****     }
 712:Drivers/STM32G0xx_HAL_Driver/Src/stm32g0xx_hal_dma.c **** #endif /* DMA2 */
 713:Drivers/STM32G0xx_HAL_Driver/Src/stm32g0xx_hal_dma.c ****     /* Check for the Timeout */
 714:Drivers/STM32G0xx_HAL_Driver/Src/stm32g0xx_hal_dma.c ****     if (Timeout != HAL_MAX_DELAY)
 1288              		.loc 1 714 8
 1289 00c4 7B68     		ldr	r3, [r7, #4]
 1290 00c6 0133     		adds	r3, r3, #1
 1291 00c8 17D0     		beq	.L53
 715:Drivers/STM32G0xx_HAL_Driver/Src/stm32g0xx_hal_dma.c ****     {
 716:Drivers/STM32G0xx_HAL_Driver/Src/stm32g0xx_hal_dma.c ****       if (((HAL_GetTick() - tickstart) > Timeout) || (Timeout == 0U))
 1292              		.loc 1 716 13
 1293 00ca FFF7FEFF 		bl	HAL_GetTick
ARM GAS  C:\Users\SOLDER~1\AppData\Local\Temp\cc8E0pRj.s 			page 36


 1294 00ce 0200     		movs	r2, r0
 1295              		.loc 1 716 27
 1296 00d0 3B69     		ldr	r3, [r7, #16]
 1297 00d2 D31A     		subs	r3, r2, r3
 1298              		.loc 1 716 10
 1299 00d4 7A68     		ldr	r2, [r7, #4]
 1300 00d6 9A42     		cmp	r2, r3
 1301 00d8 02D3     		bcc	.L55
 1302              		.loc 1 716 51 discriminator 1
 1303 00da 7B68     		ldr	r3, [r7, #4]
 1304 00dc 002B     		cmp	r3, #0
 1305 00de 0CD1     		bne	.L53
 1306              	.L55:
 717:Drivers/STM32G0xx_HAL_Driver/Src/stm32g0xx_hal_dma.c ****       {
 718:Drivers/STM32G0xx_HAL_Driver/Src/stm32g0xx_hal_dma.c ****         /* Update error code */
 719:Drivers/STM32G0xx_HAL_Driver/Src/stm32g0xx_hal_dma.c ****         hdma->ErrorCode = HAL_DMA_ERROR_TIMEOUT;
 1307              		.loc 1 719 25
 1308 00e0 FB68     		ldr	r3, [r7, #12]
 1309 00e2 2022     		movs	r2, #32
 1310 00e4 DA63     		str	r2, [r3, #60]
 720:Drivers/STM32G0xx_HAL_Driver/Src/stm32g0xx_hal_dma.c **** 
 721:Drivers/STM32G0xx_HAL_Driver/Src/stm32g0xx_hal_dma.c ****         /* Change the DMA state */
 722:Drivers/STM32G0xx_HAL_Driver/Src/stm32g0xx_hal_dma.c ****         hdma->State = HAL_DMA_STATE_READY;
 1311              		.loc 1 722 21
 1312 00e6 FB68     		ldr	r3, [r7, #12]
 1313 00e8 2522     		movs	r2, #37
 1314 00ea 0121     		movs	r1, #1
 1315 00ec 9954     		strb	r1, [r3, r2]
 723:Drivers/STM32G0xx_HAL_Driver/Src/stm32g0xx_hal_dma.c **** 
 724:Drivers/STM32G0xx_HAL_Driver/Src/stm32g0xx_hal_dma.c ****         /* Process Unlocked */
 725:Drivers/STM32G0xx_HAL_Driver/Src/stm32g0xx_hal_dma.c ****         __HAL_UNLOCK(hdma);
 1316              		.loc 1 725 9
 1317 00ee FB68     		ldr	r3, [r7, #12]
 1318 00f0 2422     		movs	r2, #36
 1319 00f2 0021     		movs	r1, #0
 1320 00f4 9954     		strb	r1, [r3, r2]
 726:Drivers/STM32G0xx_HAL_Driver/Src/stm32g0xx_hal_dma.c **** 
 727:Drivers/STM32G0xx_HAL_Driver/Src/stm32g0xx_hal_dma.c ****         return HAL_ERROR;
 1321              		.loc 1 727 16
 1322 00f6 0123     		movs	r3, #1
 1323 00f8 5BE0     		b	.L49
 1324              	.L53:
 671:Drivers/STM32G0xx_HAL_Driver/Src/stm32g0xx_hal_dma.c ****   {
 1325              		.loc 1 671 15
 1326 00fa FB68     		ldr	r3, [r7, #12]
 1327 00fc 1B6C     		ldr	r3, [r3, #64]
 671:Drivers/STM32G0xx_HAL_Driver/Src/stm32g0xx_hal_dma.c ****   {
 1328              		.loc 1 671 31
 1329 00fe 1B68     		ldr	r3, [r3]
 671:Drivers/STM32G0xx_HAL_Driver/Src/stm32g0xx_hal_dma.c ****   {
 1330              		.loc 1 671 37
 1331 0100 7A69     		ldr	r2, [r7, #20]
 1332 0102 1340     		ands	r3, r2
 671:Drivers/STM32G0xx_HAL_Driver/Src/stm32g0xx_hal_dma.c ****   {
 1333              		.loc 1 671 9
 1334 0104 BBD0     		beq	.L56
 728:Drivers/STM32G0xx_HAL_Driver/Src/stm32g0xx_hal_dma.c ****       }
ARM GAS  C:\Users\SOLDER~1\AppData\Local\Temp\cc8E0pRj.s 			page 37


 729:Drivers/STM32G0xx_HAL_Driver/Src/stm32g0xx_hal_dma.c ****     }
 730:Drivers/STM32G0xx_HAL_Driver/Src/stm32g0xx_hal_dma.c ****   }
 731:Drivers/STM32G0xx_HAL_Driver/Src/stm32g0xx_hal_dma.c **** 
 732:Drivers/STM32G0xx_HAL_Driver/Src/stm32g0xx_hal_dma.c ****   /*Check for DMAMUX Request generator (if used) overrun status */
 733:Drivers/STM32G0xx_HAL_Driver/Src/stm32g0xx_hal_dma.c ****   if (hdma->DMAmuxRequestGen != 0U)
 1335              		.loc 1 733 11
 1336 0106 FB68     		ldr	r3, [r7, #12]
 1337 0108 5B6D     		ldr	r3, [r3, #84]
 1338              		.loc 1 733 6
 1339 010a 002B     		cmp	r3, #0
 1340 010c 1BD0     		beq	.L57
 734:Drivers/STM32G0xx_HAL_Driver/Src/stm32g0xx_hal_dma.c ****   {
 735:Drivers/STM32G0xx_HAL_Driver/Src/stm32g0xx_hal_dma.c ****     /* if using DMAMUX request generator Check for DMAMUX request generator overrun */
 736:Drivers/STM32G0xx_HAL_Driver/Src/stm32g0xx_hal_dma.c ****     if ((hdma->DMAmuxRequestGenStatus->RGSR & hdma->DMAmuxRequestGenStatusMask) != 0U)
 1341              		.loc 1 736 14
 1342 010e FB68     		ldr	r3, [r7, #12]
 1343 0110 9B6D     		ldr	r3, [r3, #88]
 1344              		.loc 1 736 38
 1345 0112 1A68     		ldr	r2, [r3]
 1346              		.loc 1 736 51
 1347 0114 FB68     		ldr	r3, [r7, #12]
 1348 0116 DB6D     		ldr	r3, [r3, #92]
 1349              		.loc 1 736 45
 1350 0118 1340     		ands	r3, r2
 1351              		.loc 1 736 8
 1352 011a 14D0     		beq	.L57
 737:Drivers/STM32G0xx_HAL_Driver/Src/stm32g0xx_hal_dma.c ****     {
 738:Drivers/STM32G0xx_HAL_Driver/Src/stm32g0xx_hal_dma.c ****       /* Disable the request gen overrun interrupt */
 739:Drivers/STM32G0xx_HAL_Driver/Src/stm32g0xx_hal_dma.c ****       hdma->DMAmuxRequestGen->RGCR |= DMAMUX_RGxCR_OIE;
 1353              		.loc 1 739 11
 1354 011c FB68     		ldr	r3, [r7, #12]
 1355 011e 5B6D     		ldr	r3, [r3, #84]
 1356              		.loc 1 739 36
 1357 0120 1A68     		ldr	r2, [r3]
 1358              		.loc 1 739 11
 1359 0122 FB68     		ldr	r3, [r7, #12]
 1360 0124 5B6D     		ldr	r3, [r3, #84]
 1361              		.loc 1 739 36
 1362 0126 8021     		movs	r1, #128
 1363 0128 4900     		lsls	r1, r1, #1
 1364 012a 0A43     		orrs	r2, r1
 1365 012c 1A60     		str	r2, [r3]
 740:Drivers/STM32G0xx_HAL_Driver/Src/stm32g0xx_hal_dma.c **** 
 741:Drivers/STM32G0xx_HAL_Driver/Src/stm32g0xx_hal_dma.c ****       /* Clear the DMAMUX request generator overrun flag */
 742:Drivers/STM32G0xx_HAL_Driver/Src/stm32g0xx_hal_dma.c ****       hdma->DMAmuxRequestGenStatus->RGCFR = hdma->DMAmuxRequestGenStatusMask;
 1366              		.loc 1 742 11
 1367 012e FB68     		ldr	r3, [r7, #12]
 1368 0130 9B6D     		ldr	r3, [r3, #88]
 1369              		.loc 1 742 49
 1370 0132 FA68     		ldr	r2, [r7, #12]
 1371 0134 D26D     		ldr	r2, [r2, #92]
 1372              		.loc 1 742 43
 1373 0136 5A60     		str	r2, [r3, #4]
 743:Drivers/STM32G0xx_HAL_Driver/Src/stm32g0xx_hal_dma.c **** 
 744:Drivers/STM32G0xx_HAL_Driver/Src/stm32g0xx_hal_dma.c ****       /* Update error code */
 745:Drivers/STM32G0xx_HAL_Driver/Src/stm32g0xx_hal_dma.c ****       hdma->ErrorCode |= HAL_DMA_ERROR_REQGEN;
 1374              		.loc 1 745 23
ARM GAS  C:\Users\SOLDER~1\AppData\Local\Temp\cc8E0pRj.s 			page 38


 1375 0138 FB68     		ldr	r3, [r7, #12]
 1376 013a DB6B     		ldr	r3, [r3, #60]
 1377 013c 8022     		movs	r2, #128
 1378 013e D200     		lsls	r2, r2, #3
 1379 0140 1A43     		orrs	r2, r3
 1380 0142 FB68     		ldr	r3, [r7, #12]
 1381 0144 DA63     		str	r2, [r3, #60]
 1382              	.L57:
 746:Drivers/STM32G0xx_HAL_Driver/Src/stm32g0xx_hal_dma.c ****     }
 747:Drivers/STM32G0xx_HAL_Driver/Src/stm32g0xx_hal_dma.c ****   }
 748:Drivers/STM32G0xx_HAL_Driver/Src/stm32g0xx_hal_dma.c **** 
 749:Drivers/STM32G0xx_HAL_Driver/Src/stm32g0xx_hal_dma.c ****   /* Check for DMAMUX Synchronization overrun */
 750:Drivers/STM32G0xx_HAL_Driver/Src/stm32g0xx_hal_dma.c ****   if ((hdma->DMAmuxChannelStatus->CSR & hdma->DMAmuxChannelStatusMask) != 0U)
 1383              		.loc 1 750 12
 1384 0146 FB68     		ldr	r3, [r7, #12]
 1385 0148 DB6C     		ldr	r3, [r3, #76]
 1386              		.loc 1 750 33
 1387 014a 1A68     		ldr	r2, [r3]
 1388              		.loc 1 750 45
 1389 014c FB68     		ldr	r3, [r7, #12]
 1390 014e 1B6D     		ldr	r3, [r3, #80]
 1391              		.loc 1 750 39
 1392 0150 1340     		ands	r3, r2
 1393              		.loc 1 750 6
 1394 0152 0BD0     		beq	.L58
 751:Drivers/STM32G0xx_HAL_Driver/Src/stm32g0xx_hal_dma.c ****   {
 752:Drivers/STM32G0xx_HAL_Driver/Src/stm32g0xx_hal_dma.c ****     /* Clear the DMAMUX synchro overrun flag */
 753:Drivers/STM32G0xx_HAL_Driver/Src/stm32g0xx_hal_dma.c ****     hdma->DMAmuxChannelStatus->CFR = hdma->DMAmuxChannelStatusMask;
 1395              		.loc 1 753 9
 1396 0154 FB68     		ldr	r3, [r7, #12]
 1397 0156 DB6C     		ldr	r3, [r3, #76]
 1398              		.loc 1 753 42
 1399 0158 FA68     		ldr	r2, [r7, #12]
 1400 015a 126D     		ldr	r2, [r2, #80]
 1401              		.loc 1 753 36
 1402 015c 5A60     		str	r2, [r3, #4]
 754:Drivers/STM32G0xx_HAL_Driver/Src/stm32g0xx_hal_dma.c **** 
 755:Drivers/STM32G0xx_HAL_Driver/Src/stm32g0xx_hal_dma.c ****     /* Update error code */
 756:Drivers/STM32G0xx_HAL_Driver/Src/stm32g0xx_hal_dma.c ****     hdma->ErrorCode |= HAL_DMA_ERROR_SYNC;
 1403              		.loc 1 756 21
 1404 015e FB68     		ldr	r3, [r7, #12]
 1405 0160 DB6B     		ldr	r3, [r3, #60]
 1406 0162 8022     		movs	r2, #128
 1407 0164 9200     		lsls	r2, r2, #2
 1408 0166 1A43     		orrs	r2, r3
 1409 0168 FB68     		ldr	r3, [r7, #12]
 1410 016a DA63     		str	r2, [r3, #60]
 1411              	.L58:
 757:Drivers/STM32G0xx_HAL_Driver/Src/stm32g0xx_hal_dma.c ****   }
 758:Drivers/STM32G0xx_HAL_Driver/Src/stm32g0xx_hal_dma.c **** 
 759:Drivers/STM32G0xx_HAL_Driver/Src/stm32g0xx_hal_dma.c ****   if (HAL_DMA_FULL_TRANSFER == CompleteLevel)
 1412              		.loc 1 759 6
 1413 016c 0B23     		movs	r3, #11
 1414 016e FB18     		adds	r3, r7, r3
 1415 0170 1B78     		ldrb	r3, [r3]
 1416 0172 002B     		cmp	r3, #0
 1417 0174 12D1     		bne	.L59
ARM GAS  C:\Users\SOLDER~1\AppData\Local\Temp\cc8E0pRj.s 			page 39


 760:Drivers/STM32G0xx_HAL_Driver/Src/stm32g0xx_hal_dma.c ****   {
 761:Drivers/STM32G0xx_HAL_Driver/Src/stm32g0xx_hal_dma.c ****     /* Clear the transfer complete flag */
 762:Drivers/STM32G0xx_HAL_Driver/Src/stm32g0xx_hal_dma.c **** #if defined(DMA2)
 763:Drivers/STM32G0xx_HAL_Driver/Src/stm32g0xx_hal_dma.c ****     hdma->DmaBaseAddress->IFCR = (DMA_FLAG_TC1 << (hdma->ChannelIndex & 0x1CU));
 1418              		.loc 1 763 56
 1419 0176 FB68     		ldr	r3, [r7, #12]
 1420 0178 5B6C     		ldr	r3, [r3, #68]
 1421              		.loc 1 763 71
 1422 017a 1C22     		movs	r2, #28
 1423 017c 1A40     		ands	r2, r3
 1424              		.loc 1 763 9
 1425 017e FB68     		ldr	r3, [r7, #12]
 1426 0180 1B6C     		ldr	r3, [r3, #64]
 1427              		.loc 1 763 48
 1428 0182 0221     		movs	r1, #2
 1429 0184 9140     		lsls	r1, r1, r2
 1430 0186 0A00     		movs	r2, r1
 1431              		.loc 1 763 32
 1432 0188 5A60     		str	r2, [r3, #4]
 764:Drivers/STM32G0xx_HAL_Driver/Src/stm32g0xx_hal_dma.c **** #else
 765:Drivers/STM32G0xx_HAL_Driver/Src/stm32g0xx_hal_dma.c ****     __HAL_DMA_CLEAR_FLAG(hdma, (DMA_FLAG_TC1 << (hdma->ChannelIndex & 0x1CU)));
 766:Drivers/STM32G0xx_HAL_Driver/Src/stm32g0xx_hal_dma.c **** #endif /* DMA2 */
 767:Drivers/STM32G0xx_HAL_Driver/Src/stm32g0xx_hal_dma.c **** 
 768:Drivers/STM32G0xx_HAL_Driver/Src/stm32g0xx_hal_dma.c ****     /* Process unlocked */
 769:Drivers/STM32G0xx_HAL_Driver/Src/stm32g0xx_hal_dma.c ****     __HAL_UNLOCK(hdma);
 1433              		.loc 1 769 5
 1434 018a FB68     		ldr	r3, [r7, #12]
 1435 018c 2422     		movs	r2, #36
 1436 018e 0021     		movs	r1, #0
 1437 0190 9954     		strb	r1, [r3, r2]
 770:Drivers/STM32G0xx_HAL_Driver/Src/stm32g0xx_hal_dma.c **** 
 771:Drivers/STM32G0xx_HAL_Driver/Src/stm32g0xx_hal_dma.c ****     /* The selected Channelx EN bit is cleared (DMA is disabled and
 772:Drivers/STM32G0xx_HAL_Driver/Src/stm32g0xx_hal_dma.c ****     all transfers are complete) */
 773:Drivers/STM32G0xx_HAL_Driver/Src/stm32g0xx_hal_dma.c ****     hdma->State = HAL_DMA_STATE_READY;
 1438              		.loc 1 773 17
 1439 0192 FB68     		ldr	r3, [r7, #12]
 1440 0194 2522     		movs	r2, #37
 1441 0196 0121     		movs	r1, #1
 1442 0198 9954     		strb	r1, [r3, r2]
 1443 019a 09E0     		b	.L60
 1444              	.L59:
 774:Drivers/STM32G0xx_HAL_Driver/Src/stm32g0xx_hal_dma.c ****   }
 775:Drivers/STM32G0xx_HAL_Driver/Src/stm32g0xx_hal_dma.c ****   else
 776:Drivers/STM32G0xx_HAL_Driver/Src/stm32g0xx_hal_dma.c ****   {
 777:Drivers/STM32G0xx_HAL_Driver/Src/stm32g0xx_hal_dma.c ****     /* Clear the half transfer complete flag */
 778:Drivers/STM32G0xx_HAL_Driver/Src/stm32g0xx_hal_dma.c **** #if defined(DMA2)
 779:Drivers/STM32G0xx_HAL_Driver/Src/stm32g0xx_hal_dma.c ****     hdma->DmaBaseAddress->IFCR = (DMA_FLAG_HT1 << (hdma->ChannelIndex & 0x1CU));
 1445              		.loc 1 779 56
 1446 019c FB68     		ldr	r3, [r7, #12]
 1447 019e 5B6C     		ldr	r3, [r3, #68]
 1448              		.loc 1 779 71
 1449 01a0 1C22     		movs	r2, #28
 1450 01a2 1A40     		ands	r2, r3
 1451              		.loc 1 779 9
 1452 01a4 FB68     		ldr	r3, [r7, #12]
 1453 01a6 1B6C     		ldr	r3, [r3, #64]
 1454              		.loc 1 779 48
ARM GAS  C:\Users\SOLDER~1\AppData\Local\Temp\cc8E0pRj.s 			page 40


 1455 01a8 0421     		movs	r1, #4
 1456 01aa 9140     		lsls	r1, r1, r2
 1457 01ac 0A00     		movs	r2, r1
 1458              		.loc 1 779 32
 1459 01ae 5A60     		str	r2, [r3, #4]
 1460              	.L60:
 780:Drivers/STM32G0xx_HAL_Driver/Src/stm32g0xx_hal_dma.c **** #else
 781:Drivers/STM32G0xx_HAL_Driver/Src/stm32g0xx_hal_dma.c ****     __HAL_DMA_CLEAR_FLAG(hdma, (DMA_FLAG_HT1 << (hdma->ChannelIndex & 0x1CU)));
 782:Drivers/STM32G0xx_HAL_Driver/Src/stm32g0xx_hal_dma.c **** #endif /* DMA2 */
 783:Drivers/STM32G0xx_HAL_Driver/Src/stm32g0xx_hal_dma.c ****   }
 784:Drivers/STM32G0xx_HAL_Driver/Src/stm32g0xx_hal_dma.c **** 
 785:Drivers/STM32G0xx_HAL_Driver/Src/stm32g0xx_hal_dma.c ****   return HAL_OK;
 1461              		.loc 1 785 10
 1462 01b0 0023     		movs	r3, #0
 1463              	.L49:
 786:Drivers/STM32G0xx_HAL_Driver/Src/stm32g0xx_hal_dma.c **** }
 1464              		.loc 1 786 1
 1465 01b2 1800     		movs	r0, r3
 1466 01b4 BD46     		mov	sp, r7
 1467 01b6 06B0     		add	sp, sp, #24
 1468              		@ sp needed
 1469 01b8 80BD     		pop	{r7, pc}
 1470              		.cfi_endproc
 1471              	.LFE361:
 1473              		.section	.text.HAL_DMA_IRQHandler,"ax",%progbits
 1474              		.align	1
 1475              		.global	HAL_DMA_IRQHandler
 1476              		.syntax unified
 1477              		.code	16
 1478              		.thumb_func
 1480              	HAL_DMA_IRQHandler:
 1481              	.LFB362:
 787:Drivers/STM32G0xx_HAL_Driver/Src/stm32g0xx_hal_dma.c **** 
 788:Drivers/STM32G0xx_HAL_Driver/Src/stm32g0xx_hal_dma.c **** /**
 789:Drivers/STM32G0xx_HAL_Driver/Src/stm32g0xx_hal_dma.c ****   * @brief Handle DMA interrupt request.
 790:Drivers/STM32G0xx_HAL_Driver/Src/stm32g0xx_hal_dma.c ****   * @param hdma Pointer to a DMA_HandleTypeDef structure that contains
 791:Drivers/STM32G0xx_HAL_Driver/Src/stm32g0xx_hal_dma.c ****   *             the configuration information for the specified DMA Channel.
 792:Drivers/STM32G0xx_HAL_Driver/Src/stm32g0xx_hal_dma.c ****   * @retval None
 793:Drivers/STM32G0xx_HAL_Driver/Src/stm32g0xx_hal_dma.c ****   */
 794:Drivers/STM32G0xx_HAL_Driver/Src/stm32g0xx_hal_dma.c **** void HAL_DMA_IRQHandler(DMA_HandleTypeDef *hdma)
 795:Drivers/STM32G0xx_HAL_Driver/Src/stm32g0xx_hal_dma.c **** {
 1482              		.loc 1 795 1
 1483              		.cfi_startproc
 1484              		@ args = 0, pretend = 0, frame = 16
 1485              		@ frame_needed = 1, uses_anonymous_args = 0
 1486 0000 80B5     		push	{r7, lr}
 1487              		.cfi_def_cfa_offset 8
 1488              		.cfi_offset 7, -8
 1489              		.cfi_offset 14, -4
 1490 0002 84B0     		sub	sp, sp, #16
 1491              		.cfi_def_cfa_offset 24
 1492 0004 00AF     		add	r7, sp, #0
 1493              		.cfi_def_cfa_register 7
 1494 0006 7860     		str	r0, [r7, #4]
 796:Drivers/STM32G0xx_HAL_Driver/Src/stm32g0xx_hal_dma.c **** #if defined(DMA2)
 797:Drivers/STM32G0xx_HAL_Driver/Src/stm32g0xx_hal_dma.c ****   uint32_t flag_it = hdma->DmaBaseAddress->ISR;
 1495              		.loc 1 797 26
ARM GAS  C:\Users\SOLDER~1\AppData\Local\Temp\cc8E0pRj.s 			page 41


 1496 0008 7B68     		ldr	r3, [r7, #4]
 1497 000a 1B6C     		ldr	r3, [r3, #64]
 1498              		.loc 1 797 12
 1499 000c 1B68     		ldr	r3, [r3]
 1500 000e FB60     		str	r3, [r7, #12]
 798:Drivers/STM32G0xx_HAL_Driver/Src/stm32g0xx_hal_dma.c **** #else
 799:Drivers/STM32G0xx_HAL_Driver/Src/stm32g0xx_hal_dma.c ****   uint32_t flag_it = DMA1->ISR;
 800:Drivers/STM32G0xx_HAL_Driver/Src/stm32g0xx_hal_dma.c **** #endif /* DMA2 */
 801:Drivers/STM32G0xx_HAL_Driver/Src/stm32g0xx_hal_dma.c ****   uint32_t source_it = hdma->Instance->CCR;
 1501              		.loc 1 801 28
 1502 0010 7B68     		ldr	r3, [r7, #4]
 1503 0012 1B68     		ldr	r3, [r3]
 1504              		.loc 1 801 12
 1505 0014 1B68     		ldr	r3, [r3]
 1506 0016 BB60     		str	r3, [r7, #8]
 802:Drivers/STM32G0xx_HAL_Driver/Src/stm32g0xx_hal_dma.c **** 
 803:Drivers/STM32G0xx_HAL_Driver/Src/stm32g0xx_hal_dma.c ****   /* Half Transfer Complete Interrupt management ******************************/
 804:Drivers/STM32G0xx_HAL_Driver/Src/stm32g0xx_hal_dma.c ****   if (((flag_it & (DMA_FLAG_HT1 << (hdma->ChannelIndex & 0x1CU))) != 0U) && ((source_it & DMA_IT_HT
 1507              		.loc 1 804 41
 1508 0018 7B68     		ldr	r3, [r7, #4]
 1509 001a 5B6C     		ldr	r3, [r3, #68]
 1510              		.loc 1 804 56
 1511 001c 1C22     		movs	r2, #28
 1512 001e 1340     		ands	r3, r2
 1513              		.loc 1 804 33
 1514 0020 0422     		movs	r2, #4
 1515 0022 9A40     		lsls	r2, r2, r3
 1516 0024 1300     		movs	r3, r2
 1517              		.loc 1 804 17
 1518 0026 FA68     		ldr	r2, [r7, #12]
 1519 0028 1340     		ands	r3, r2
 1520              		.loc 1 804 6
 1521 002a 26D0     		beq	.L62
 1522              		.loc 1 804 89 discriminator 1
 1523 002c BB68     		ldr	r3, [r7, #8]
 1524 002e 0422     		movs	r2, #4
 1525 0030 1340     		ands	r3, r2
 1526              		.loc 1 804 74 discriminator 1
 1527 0032 22D0     		beq	.L62
 805:Drivers/STM32G0xx_HAL_Driver/Src/stm32g0xx_hal_dma.c ****   {
 806:Drivers/STM32G0xx_HAL_Driver/Src/stm32g0xx_hal_dma.c ****       /* Disable the half transfer interrupt if the DMA mode is not CIRCULAR */
 807:Drivers/STM32G0xx_HAL_Driver/Src/stm32g0xx_hal_dma.c ****       if ((hdma->Instance->CCR & DMA_CCR_CIRC) == 0U)
 1528              		.loc 1 807 16
 1529 0034 7B68     		ldr	r3, [r7, #4]
 1530 0036 1B68     		ldr	r3, [r3]
 1531              		.loc 1 807 26
 1532 0038 1B68     		ldr	r3, [r3]
 1533              		.loc 1 807 32
 1534 003a 2022     		movs	r2, #32
 1535 003c 1340     		ands	r3, r2
 1536              		.loc 1 807 10
 1537 003e 07D1     		bne	.L63
 808:Drivers/STM32G0xx_HAL_Driver/Src/stm32g0xx_hal_dma.c ****       {
 809:Drivers/STM32G0xx_HAL_Driver/Src/stm32g0xx_hal_dma.c ****         /* Disable the half transfer interrupt */
 810:Drivers/STM32G0xx_HAL_Driver/Src/stm32g0xx_hal_dma.c ****         __HAL_DMA_DISABLE_IT(hdma, DMA_IT_HT);
 1538              		.loc 1 810 9
 1539 0040 7B68     		ldr	r3, [r7, #4]
ARM GAS  C:\Users\SOLDER~1\AppData\Local\Temp\cc8E0pRj.s 			page 42


 1540 0042 1B68     		ldr	r3, [r3]
 1541 0044 1A68     		ldr	r2, [r3]
 1542 0046 7B68     		ldr	r3, [r7, #4]
 1543 0048 1B68     		ldr	r3, [r3]
 1544 004a 0421     		movs	r1, #4
 1545 004c 8A43     		bics	r2, r1
 1546 004e 1A60     		str	r2, [r3]
 1547              	.L63:
 811:Drivers/STM32G0xx_HAL_Driver/Src/stm32g0xx_hal_dma.c ****       }
 812:Drivers/STM32G0xx_HAL_Driver/Src/stm32g0xx_hal_dma.c ****       /* Clear the half transfer complete flag */
 813:Drivers/STM32G0xx_HAL_Driver/Src/stm32g0xx_hal_dma.c **** #if defined(DMA2)
 814:Drivers/STM32G0xx_HAL_Driver/Src/stm32g0xx_hal_dma.c ****       hdma->DmaBaseAddress->IFCR = DMA_ISR_HTIF1 << (hdma->ChannelIndex & 0x1CU);
 1548              		.loc 1 814 58
 1549 0050 7B68     		ldr	r3, [r7, #4]
 1550 0052 5B6C     		ldr	r3, [r3, #68]
 1551              		.loc 1 814 73
 1552 0054 1C22     		movs	r2, #28
 1553 0056 1A40     		ands	r2, r3
 1554              		.loc 1 814 11
 1555 0058 7B68     		ldr	r3, [r7, #4]
 1556 005a 1B6C     		ldr	r3, [r3, #64]
 1557              		.loc 1 814 50
 1558 005c 0421     		movs	r1, #4
 1559 005e 9140     		lsls	r1, r1, r2
 1560 0060 0A00     		movs	r2, r1
 1561              		.loc 1 814 34
 1562 0062 5A60     		str	r2, [r3, #4]
 815:Drivers/STM32G0xx_HAL_Driver/Src/stm32g0xx_hal_dma.c **** #else
 816:Drivers/STM32G0xx_HAL_Driver/Src/stm32g0xx_hal_dma.c ****       __HAL_DMA_CLEAR_FLAG(hdma, (DMA_FLAG_HT1 << (hdma->ChannelIndex & 0x1CU)));
 817:Drivers/STM32G0xx_HAL_Driver/Src/stm32g0xx_hal_dma.c **** #endif /* DMA2 */
 818:Drivers/STM32G0xx_HAL_Driver/Src/stm32g0xx_hal_dma.c **** 
 819:Drivers/STM32G0xx_HAL_Driver/Src/stm32g0xx_hal_dma.c ****       /* DMA peripheral state is not updated in Half Transfer */
 820:Drivers/STM32G0xx_HAL_Driver/Src/stm32g0xx_hal_dma.c ****       /* but in Transfer Complete case */
 821:Drivers/STM32G0xx_HAL_Driver/Src/stm32g0xx_hal_dma.c **** 
 822:Drivers/STM32G0xx_HAL_Driver/Src/stm32g0xx_hal_dma.c ****       if (hdma->XferHalfCpltCallback != NULL)
 1563              		.loc 1 822 15
 1564 0064 7B68     		ldr	r3, [r7, #4]
 1565 0066 1B6B     		ldr	r3, [r3, #48]
 1566              		.loc 1 822 10
 1567 0068 002B     		cmp	r3, #0
 1568 006a 00D1     		bne	.LCB1240
 1569 006c 80E0     		b	.L65	@long jump
 1570              	.LCB1240:
 823:Drivers/STM32G0xx_HAL_Driver/Src/stm32g0xx_hal_dma.c ****       {
 824:Drivers/STM32G0xx_HAL_Driver/Src/stm32g0xx_hal_dma.c ****         /* Half transfer callback */
 825:Drivers/STM32G0xx_HAL_Driver/Src/stm32g0xx_hal_dma.c ****         hdma->XferHalfCpltCallback(hdma);
 1571              		.loc 1 825 13
 1572 006e 7B68     		ldr	r3, [r7, #4]
 1573 0070 1B6B     		ldr	r3, [r3, #48]
 1574              		.loc 1 825 9
 1575 0072 7A68     		ldr	r2, [r7, #4]
 1576 0074 1000     		movs	r0, r2
 1577 0076 9847     		blx	r3
 1578              	.LVL1:
 822:Drivers/STM32G0xx_HAL_Driver/Src/stm32g0xx_hal_dma.c ****       {
 1579              		.loc 1 822 10
 1580 0078 7AE0     		b	.L65
ARM GAS  C:\Users\SOLDER~1\AppData\Local\Temp\cc8E0pRj.s 			page 43


 1581              	.L62:
 826:Drivers/STM32G0xx_HAL_Driver/Src/stm32g0xx_hal_dma.c ****       }
 827:Drivers/STM32G0xx_HAL_Driver/Src/stm32g0xx_hal_dma.c ****   }
 828:Drivers/STM32G0xx_HAL_Driver/Src/stm32g0xx_hal_dma.c **** 
 829:Drivers/STM32G0xx_HAL_Driver/Src/stm32g0xx_hal_dma.c ****   /* Transfer Complete Interrupt management ***********************************/
 830:Drivers/STM32G0xx_HAL_Driver/Src/stm32g0xx_hal_dma.c ****   else if ((0U != (flag_it & (DMA_FLAG_TC1 << (hdma->ChannelIndex & 0x1CU)))) && (0U != (source_it 
 1582              		.loc 1 830 52
 1583 007a 7B68     		ldr	r3, [r7, #4]
 1584 007c 5B6C     		ldr	r3, [r3, #68]
 1585              		.loc 1 830 67
 1586 007e 1C22     		movs	r2, #28
 1587 0080 1340     		ands	r3, r2
 1588              		.loc 1 830 44
 1589 0082 0222     		movs	r2, #2
 1590 0084 9A40     		lsls	r2, r2, r3
 1591 0086 1300     		movs	r3, r2
 1592              		.loc 1 830 28
 1593 0088 FA68     		ldr	r2, [r7, #12]
 1594 008a 1340     		ands	r3, r2
 1595              		.loc 1 830 11
 1596 008c 3CD0     		beq	.L66
 1597              		.loc 1 830 100 discriminator 1
 1598 008e BB68     		ldr	r3, [r7, #8]
 1599 0090 0222     		movs	r2, #2
 1600 0092 1340     		ands	r3, r2
 1601              		.loc 1 830 79 discriminator 1
 1602 0094 38D0     		beq	.L66
 831:Drivers/STM32G0xx_HAL_Driver/Src/stm32g0xx_hal_dma.c ****   {
 832:Drivers/STM32G0xx_HAL_Driver/Src/stm32g0xx_hal_dma.c ****       if ((hdma->Instance->CCR & DMA_CCR_CIRC) == 0U)
 1603              		.loc 1 832 16
 1604 0096 7B68     		ldr	r3, [r7, #4]
 1605 0098 1B68     		ldr	r3, [r3]
 1606              		.loc 1 832 26
 1607 009a 1B68     		ldr	r3, [r3]
 1608              		.loc 1 832 32
 1609 009c 2022     		movs	r2, #32
 1610 009e 1340     		ands	r3, r2
 1611              		.loc 1 832 10
 1612 00a0 0BD1     		bne	.L67
 833:Drivers/STM32G0xx_HAL_Driver/Src/stm32g0xx_hal_dma.c ****       {
 834:Drivers/STM32G0xx_HAL_Driver/Src/stm32g0xx_hal_dma.c ****         /* Disable the transfer complete and error interrupt */
 835:Drivers/STM32G0xx_HAL_Driver/Src/stm32g0xx_hal_dma.c ****         __HAL_DMA_DISABLE_IT(hdma, DMA_IT_TE | DMA_IT_TC);
 1613              		.loc 1 835 9
 1614 00a2 7B68     		ldr	r3, [r7, #4]
 1615 00a4 1B68     		ldr	r3, [r3]
 1616 00a6 1A68     		ldr	r2, [r3]
 1617 00a8 7B68     		ldr	r3, [r7, #4]
 1618 00aa 1B68     		ldr	r3, [r3]
 1619 00ac 0A21     		movs	r1, #10
 1620 00ae 8A43     		bics	r2, r1
 1621 00b0 1A60     		str	r2, [r3]
 836:Drivers/STM32G0xx_HAL_Driver/Src/stm32g0xx_hal_dma.c **** 
 837:Drivers/STM32G0xx_HAL_Driver/Src/stm32g0xx_hal_dma.c ****         /* Change the DMA state */
 838:Drivers/STM32G0xx_HAL_Driver/Src/stm32g0xx_hal_dma.c ****         hdma->State = HAL_DMA_STATE_READY;
 1622              		.loc 1 838 21
 1623 00b2 7B68     		ldr	r3, [r7, #4]
 1624 00b4 2522     		movs	r2, #37
ARM GAS  C:\Users\SOLDER~1\AppData\Local\Temp\cc8E0pRj.s 			page 44


 1625 00b6 0121     		movs	r1, #1
 1626 00b8 9954     		strb	r1, [r3, r2]
 1627              	.L67:
 839:Drivers/STM32G0xx_HAL_Driver/Src/stm32g0xx_hal_dma.c ****       }
 840:Drivers/STM32G0xx_HAL_Driver/Src/stm32g0xx_hal_dma.c ****       /* Clear the transfer complete flag */
 841:Drivers/STM32G0xx_HAL_Driver/Src/stm32g0xx_hal_dma.c ****       __HAL_DMA_CLEAR_FLAG(hdma, (DMA_FLAG_TC1 << (hdma->ChannelIndex & 0x1CU)));
 1628              		.loc 1 841 7
 1629 00ba 7B68     		ldr	r3, [r7, #4]
 1630 00bc 1B68     		ldr	r3, [r3]
 1631 00be 1A00     		movs	r2, r3
 1632 00c0 2E4B     		ldr	r3, .L73
 1633 00c2 9A42     		cmp	r2, r3
 1634 00c4 09D9     		bls	.L68
 1635              		.loc 1 841 7 is_stmt 0 discriminator 1
 1636 00c6 7B68     		ldr	r3, [r7, #4]
 1637 00c8 5B6C     		ldr	r3, [r3, #68]
 1638 00ca 1C22     		movs	r2, #28
 1639 00cc 1A40     		ands	r2, r3
 1640 00ce 2C4B     		ldr	r3, .L73+4
 1641 00d0 0221     		movs	r1, #2
 1642 00d2 9140     		lsls	r1, r1, r2
 1643 00d4 0A00     		movs	r2, r1
 1644 00d6 5A60     		str	r2, [r3, #4]
 1645 00d8 08E0     		b	.L69
 1646              	.L68:
 1647              		.loc 1 841 7 discriminator 2
 1648 00da 7B68     		ldr	r3, [r7, #4]
 1649 00dc 5B6C     		ldr	r3, [r3, #68]
 1650 00de 1C22     		movs	r2, #28
 1651 00e0 1A40     		ands	r2, r3
 1652 00e2 284B     		ldr	r3, .L73+8
 1653 00e4 0221     		movs	r1, #2
 1654 00e6 9140     		lsls	r1, r1, r2
 1655 00e8 0A00     		movs	r2, r1
 1656 00ea 5A60     		str	r2, [r3, #4]
 1657              	.L69:
 842:Drivers/STM32G0xx_HAL_Driver/Src/stm32g0xx_hal_dma.c **** 
 843:Drivers/STM32G0xx_HAL_Driver/Src/stm32g0xx_hal_dma.c ****       /* Process Unlocked */
 844:Drivers/STM32G0xx_HAL_Driver/Src/stm32g0xx_hal_dma.c ****       __HAL_UNLOCK(hdma);
 1658              		.loc 1 844 7 is_stmt 1
 1659 00ec 7B68     		ldr	r3, [r7, #4]
 1660 00ee 2422     		movs	r2, #36
 1661 00f0 0021     		movs	r1, #0
 1662 00f2 9954     		strb	r1, [r3, r2]
 845:Drivers/STM32G0xx_HAL_Driver/Src/stm32g0xx_hal_dma.c **** 
 846:Drivers/STM32G0xx_HAL_Driver/Src/stm32g0xx_hal_dma.c ****       if (hdma->XferCpltCallback != NULL)
 1663              		.loc 1 846 15
 1664 00f4 7B68     		ldr	r3, [r7, #4]
 1665 00f6 DB6A     		ldr	r3, [r3, #44]
 1666              		.loc 1 846 10
 1667 00f8 002B     		cmp	r3, #0
 1668 00fa 39D0     		beq	.L65
 847:Drivers/STM32G0xx_HAL_Driver/Src/stm32g0xx_hal_dma.c ****       {
 848:Drivers/STM32G0xx_HAL_Driver/Src/stm32g0xx_hal_dma.c ****         /* Transfer complete callback */
 849:Drivers/STM32G0xx_HAL_Driver/Src/stm32g0xx_hal_dma.c ****         hdma->XferCpltCallback(hdma);
 1669              		.loc 1 849 13
 1670 00fc 7B68     		ldr	r3, [r7, #4]
ARM GAS  C:\Users\SOLDER~1\AppData\Local\Temp\cc8E0pRj.s 			page 45


 1671 00fe DB6A     		ldr	r3, [r3, #44]
 1672              		.loc 1 849 9
 1673 0100 7A68     		ldr	r2, [r7, #4]
 1674 0102 1000     		movs	r0, r2
 1675 0104 9847     		blx	r3
 1676              	.LVL2:
 846:Drivers/STM32G0xx_HAL_Driver/Src/stm32g0xx_hal_dma.c ****       {
 1677              		.loc 1 846 10
 1678 0106 33E0     		b	.L65
 1679              	.L66:
 850:Drivers/STM32G0xx_HAL_Driver/Src/stm32g0xx_hal_dma.c ****       }
 851:Drivers/STM32G0xx_HAL_Driver/Src/stm32g0xx_hal_dma.c ****   }
 852:Drivers/STM32G0xx_HAL_Driver/Src/stm32g0xx_hal_dma.c **** 
 853:Drivers/STM32G0xx_HAL_Driver/Src/stm32g0xx_hal_dma.c ****   /* Transfer Error Interrupt management **************************************/
 854:Drivers/STM32G0xx_HAL_Driver/Src/stm32g0xx_hal_dma.c ****   else if (((flag_it & (DMA_FLAG_TE1 << (hdma->ChannelIndex & 0x1CU))) != 0U) && ((source_it & DMA_
 1680              		.loc 1 854 46
 1681 0108 7B68     		ldr	r3, [r7, #4]
 1682 010a 5B6C     		ldr	r3, [r3, #68]
 1683              		.loc 1 854 61
 1684 010c 1C22     		movs	r2, #28
 1685 010e 1340     		ands	r3, r2
 1686              		.loc 1 854 38
 1687 0110 0822     		movs	r2, #8
 1688 0112 9A40     		lsls	r2, r2, r3
 1689 0114 1300     		movs	r3, r2
 1690              		.loc 1 854 22
 1691 0116 FA68     		ldr	r2, [r7, #12]
 1692 0118 1340     		ands	r3, r2
 1693              		.loc 1 854 11
 1694 011a 2AD0     		beq	.L72
 1695              		.loc 1 854 94 discriminator 1
 1696 011c BB68     		ldr	r3, [r7, #8]
 1697 011e 0822     		movs	r2, #8
 1698 0120 1340     		ands	r3, r2
 1699              		.loc 1 854 79 discriminator 1
 1700 0122 26D0     		beq	.L72
 855:Drivers/STM32G0xx_HAL_Driver/Src/stm32g0xx_hal_dma.c ****   {
 856:Drivers/STM32G0xx_HAL_Driver/Src/stm32g0xx_hal_dma.c ****     /* When a DMA transfer error occurs */
 857:Drivers/STM32G0xx_HAL_Driver/Src/stm32g0xx_hal_dma.c ****     /* A hardware clear of its EN bits is performed */
 858:Drivers/STM32G0xx_HAL_Driver/Src/stm32g0xx_hal_dma.c ****     /* Disable ALL DMA IT */
 859:Drivers/STM32G0xx_HAL_Driver/Src/stm32g0xx_hal_dma.c ****     __HAL_DMA_DISABLE_IT(hdma, (DMA_IT_TC | DMA_IT_HT | DMA_IT_TE));
 1701              		.loc 1 859 5
 1702 0124 7B68     		ldr	r3, [r7, #4]
 1703 0126 1B68     		ldr	r3, [r3]
 1704 0128 1A68     		ldr	r2, [r3]
 1705 012a 7B68     		ldr	r3, [r7, #4]
 1706 012c 1B68     		ldr	r3, [r3]
 1707 012e 0E21     		movs	r1, #14
 1708 0130 8A43     		bics	r2, r1
 1709 0132 1A60     		str	r2, [r3]
 860:Drivers/STM32G0xx_HAL_Driver/Src/stm32g0xx_hal_dma.c **** 
 861:Drivers/STM32G0xx_HAL_Driver/Src/stm32g0xx_hal_dma.c ****     /* Clear all flags */
 862:Drivers/STM32G0xx_HAL_Driver/Src/stm32g0xx_hal_dma.c **** #if defined(DMA2)
 863:Drivers/STM32G0xx_HAL_Driver/Src/stm32g0xx_hal_dma.c ****     hdma->DmaBaseAddress->IFCR = (DMA_ISR_GIF1 << (hdma->ChannelIndex & 0x1CU));
 1710              		.loc 1 863 56
 1711 0134 7B68     		ldr	r3, [r7, #4]
 1712 0136 5B6C     		ldr	r3, [r3, #68]
ARM GAS  C:\Users\SOLDER~1\AppData\Local\Temp\cc8E0pRj.s 			page 46


 1713              		.loc 1 863 71
 1714 0138 1C22     		movs	r2, #28
 1715 013a 1A40     		ands	r2, r3
 1716              		.loc 1 863 9
 1717 013c 7B68     		ldr	r3, [r7, #4]
 1718 013e 1B6C     		ldr	r3, [r3, #64]
 1719              		.loc 1 863 48
 1720 0140 0121     		movs	r1, #1
 1721 0142 9140     		lsls	r1, r1, r2
 1722 0144 0A00     		movs	r2, r1
 1723              		.loc 1 863 32
 1724 0146 5A60     		str	r2, [r3, #4]
 864:Drivers/STM32G0xx_HAL_Driver/Src/stm32g0xx_hal_dma.c **** #else
 865:Drivers/STM32G0xx_HAL_Driver/Src/stm32g0xx_hal_dma.c ****     __HAL_DMA_CLEAR_FLAG(hdma, (DMA_FLAG_GI1 << (hdma->ChannelIndex & 0x1CU)));
 866:Drivers/STM32G0xx_HAL_Driver/Src/stm32g0xx_hal_dma.c **** #endif /* DMA2 */
 867:Drivers/STM32G0xx_HAL_Driver/Src/stm32g0xx_hal_dma.c **** 
 868:Drivers/STM32G0xx_HAL_Driver/Src/stm32g0xx_hal_dma.c ****     /* Update error code */
 869:Drivers/STM32G0xx_HAL_Driver/Src/stm32g0xx_hal_dma.c ****     hdma->ErrorCode = HAL_DMA_ERROR_TE;
 1725              		.loc 1 869 21
 1726 0148 7B68     		ldr	r3, [r7, #4]
 1727 014a 0122     		movs	r2, #1
 1728 014c DA63     		str	r2, [r3, #60]
 870:Drivers/STM32G0xx_HAL_Driver/Src/stm32g0xx_hal_dma.c **** 
 871:Drivers/STM32G0xx_HAL_Driver/Src/stm32g0xx_hal_dma.c ****     /* Change the DMA state */
 872:Drivers/STM32G0xx_HAL_Driver/Src/stm32g0xx_hal_dma.c ****     hdma->State = HAL_DMA_STATE_READY;
 1729              		.loc 1 872 17
 1730 014e 7B68     		ldr	r3, [r7, #4]
 1731 0150 2522     		movs	r2, #37
 1732 0152 0121     		movs	r1, #1
 1733 0154 9954     		strb	r1, [r3, r2]
 873:Drivers/STM32G0xx_HAL_Driver/Src/stm32g0xx_hal_dma.c **** 
 874:Drivers/STM32G0xx_HAL_Driver/Src/stm32g0xx_hal_dma.c ****     /* Process Unlocked */
 875:Drivers/STM32G0xx_HAL_Driver/Src/stm32g0xx_hal_dma.c ****     __HAL_UNLOCK(hdma);
 1734              		.loc 1 875 5
 1735 0156 7B68     		ldr	r3, [r7, #4]
 1736 0158 2422     		movs	r2, #36
 1737 015a 0021     		movs	r1, #0
 1738 015c 9954     		strb	r1, [r3, r2]
 876:Drivers/STM32G0xx_HAL_Driver/Src/stm32g0xx_hal_dma.c **** 
 877:Drivers/STM32G0xx_HAL_Driver/Src/stm32g0xx_hal_dma.c ****     if (hdma->XferErrorCallback != NULL)
 1739              		.loc 1 877 13
 1740 015e 7B68     		ldr	r3, [r7, #4]
 1741 0160 5B6B     		ldr	r3, [r3, #52]
 1742              		.loc 1 877 8
 1743 0162 002B     		cmp	r3, #0
 1744 0164 05D0     		beq	.L72
 878:Drivers/STM32G0xx_HAL_Driver/Src/stm32g0xx_hal_dma.c ****     {
 879:Drivers/STM32G0xx_HAL_Driver/Src/stm32g0xx_hal_dma.c ****       /* Transfer error callback */
 880:Drivers/STM32G0xx_HAL_Driver/Src/stm32g0xx_hal_dma.c ****       hdma->XferErrorCallback(hdma);
 1745              		.loc 1 880 11
 1746 0166 7B68     		ldr	r3, [r7, #4]
 1747 0168 5B6B     		ldr	r3, [r3, #52]
 1748              		.loc 1 880 7
 1749 016a 7A68     		ldr	r2, [r7, #4]
 1750 016c 1000     		movs	r0, r2
 1751 016e 9847     		blx	r3
 1752              	.LVL3:
ARM GAS  C:\Users\SOLDER~1\AppData\Local\Temp\cc8E0pRj.s 			page 47


 1753              	.L65:
 881:Drivers/STM32G0xx_HAL_Driver/Src/stm32g0xx_hal_dma.c ****     }
 882:Drivers/STM32G0xx_HAL_Driver/Src/stm32g0xx_hal_dma.c ****   }
 883:Drivers/STM32G0xx_HAL_Driver/Src/stm32g0xx_hal_dma.c ****   else
 884:Drivers/STM32G0xx_HAL_Driver/Src/stm32g0xx_hal_dma.c ****   {
 885:Drivers/STM32G0xx_HAL_Driver/Src/stm32g0xx_hal_dma.c ****     /* Nothing To Do */
 886:Drivers/STM32G0xx_HAL_Driver/Src/stm32g0xx_hal_dma.c ****   }
 887:Drivers/STM32G0xx_HAL_Driver/Src/stm32g0xx_hal_dma.c ****   return;
 1754              		.loc 1 887 3 discriminator 1
 1755 0170 C046     		nop
 1756              	.L72:
 1757              		.loc 1 887 3 is_stmt 0
 1758 0172 C046     		nop
 888:Drivers/STM32G0xx_HAL_Driver/Src/stm32g0xx_hal_dma.c **** }
 1759              		.loc 1 888 1 is_stmt 1
 1760 0174 BD46     		mov	sp, r7
 1761 0176 04B0     		add	sp, sp, #16
 1762              		@ sp needed
 1763 0178 80BD     		pop	{r7, pc}
 1764              	.L74:
 1765 017a C046     		.align	2
 1766              	.L73:
 1767 017c 80000240 		.word	1073873024
 1768 0180 00040240 		.word	1073873920
 1769 0184 00000240 		.word	1073872896
 1770              		.cfi_endproc
 1771              	.LFE362:
 1773              		.section	.text.HAL_DMA_RegisterCallback,"ax",%progbits
 1774              		.align	1
 1775              		.global	HAL_DMA_RegisterCallback
 1776              		.syntax unified
 1777              		.code	16
 1778              		.thumb_func
 1780              	HAL_DMA_RegisterCallback:
 1781              	.LFB363:
 889:Drivers/STM32G0xx_HAL_Driver/Src/stm32g0xx_hal_dma.c **** 
 890:Drivers/STM32G0xx_HAL_Driver/Src/stm32g0xx_hal_dma.c **** /**
 891:Drivers/STM32G0xx_HAL_Driver/Src/stm32g0xx_hal_dma.c ****   * @brief Register callbacks
 892:Drivers/STM32G0xx_HAL_Driver/Src/stm32g0xx_hal_dma.c ****   * @param hdma Pointer to a DMA_HandleTypeDef structure that contains
 893:Drivers/STM32G0xx_HAL_Driver/Src/stm32g0xx_hal_dma.c ****   *             the configuration information for the specified DMA Channel.
 894:Drivers/STM32G0xx_HAL_Driver/Src/stm32g0xx_hal_dma.c ****   * @param CallbackID User Callback identifier
 895:Drivers/STM32G0xx_HAL_Driver/Src/stm32g0xx_hal_dma.c ****   *                   a HAL_DMA_CallbackIDTypeDef ENUM as parameter.
 896:Drivers/STM32G0xx_HAL_Driver/Src/stm32g0xx_hal_dma.c ****   * @param pCallback Pointer to private callbacsk function which has pointer to
 897:Drivers/STM32G0xx_HAL_Driver/Src/stm32g0xx_hal_dma.c ****   *                  a DMA_HandleTypeDef structure as parameter.
 898:Drivers/STM32G0xx_HAL_Driver/Src/stm32g0xx_hal_dma.c ****   * @retval HAL status
 899:Drivers/STM32G0xx_HAL_Driver/Src/stm32g0xx_hal_dma.c ****   */
 900:Drivers/STM32G0xx_HAL_Driver/Src/stm32g0xx_hal_dma.c **** HAL_StatusTypeDef HAL_DMA_RegisterCallback(DMA_HandleTypeDef *hdma, HAL_DMA_CallbackIDTypeDef Callb
 901:Drivers/STM32G0xx_HAL_Driver/Src/stm32g0xx_hal_dma.c **** {
 1782              		.loc 1 901 1
 1783              		.cfi_startproc
 1784              		@ args = 0, pretend = 0, frame = 24
 1785              		@ frame_needed = 1, uses_anonymous_args = 0
 1786 0000 80B5     		push	{r7, lr}
 1787              		.cfi_def_cfa_offset 8
 1788              		.cfi_offset 7, -8
 1789              		.cfi_offset 14, -4
 1790 0002 86B0     		sub	sp, sp, #24
ARM GAS  C:\Users\SOLDER~1\AppData\Local\Temp\cc8E0pRj.s 			page 48


 1791              		.cfi_def_cfa_offset 32
 1792 0004 00AF     		add	r7, sp, #0
 1793              		.cfi_def_cfa_register 7
 1794 0006 F860     		str	r0, [r7, #12]
 1795 0008 7A60     		str	r2, [r7, #4]
 1796 000a 0B23     		movs	r3, #11
 1797 000c FB18     		adds	r3, r7, r3
 1798 000e 0A1C     		adds	r2, r1, #0
 1799 0010 1A70     		strb	r2, [r3]
 902:Drivers/STM32G0xx_HAL_Driver/Src/stm32g0xx_hal_dma.c ****   HAL_StatusTypeDef status = HAL_OK;
 1800              		.loc 1 902 21
 1801 0012 1723     		movs	r3, #23
 1802 0014 FB18     		adds	r3, r7, r3
 1803 0016 0022     		movs	r2, #0
 1804 0018 1A70     		strb	r2, [r3]
 903:Drivers/STM32G0xx_HAL_Driver/Src/stm32g0xx_hal_dma.c **** 
 904:Drivers/STM32G0xx_HAL_Driver/Src/stm32g0xx_hal_dma.c ****   /* Process locked */
 905:Drivers/STM32G0xx_HAL_Driver/Src/stm32g0xx_hal_dma.c ****   __HAL_LOCK(hdma);
 1805              		.loc 1 905 3
 1806 001a FB68     		ldr	r3, [r7, #12]
 1807 001c 2422     		movs	r2, #36
 1808 001e 9B5C     		ldrb	r3, [r3, r2]
 1809 0020 012B     		cmp	r3, #1
 1810 0022 01D1     		bne	.L76
 1811              		.loc 1 905 3 is_stmt 0 discriminator 1
 1812 0024 0223     		movs	r3, #2
 1813 0026 37E0     		b	.L77
 1814              	.L76:
 1815              		.loc 1 905 3 discriminator 2
 1816 0028 FB68     		ldr	r3, [r7, #12]
 1817 002a 2422     		movs	r2, #36
 1818 002c 0121     		movs	r1, #1
 1819 002e 9954     		strb	r1, [r3, r2]
 906:Drivers/STM32G0xx_HAL_Driver/Src/stm32g0xx_hal_dma.c **** 
 907:Drivers/STM32G0xx_HAL_Driver/Src/stm32g0xx_hal_dma.c ****   if (hdma->State == HAL_DMA_STATE_READY)
 1820              		.loc 1 907 11 is_stmt 1 discriminator 2
 1821 0030 FB68     		ldr	r3, [r7, #12]
 1822 0032 2522     		movs	r2, #37
 1823 0034 9B5C     		ldrb	r3, [r3, r2]
 1824 0036 DBB2     		uxtb	r3, r3
 1825              		.loc 1 907 6 discriminator 2
 1826 0038 012B     		cmp	r3, #1
 1827 003a 22D1     		bne	.L78
 908:Drivers/STM32G0xx_HAL_Driver/Src/stm32g0xx_hal_dma.c ****   {
 909:Drivers/STM32G0xx_HAL_Driver/Src/stm32g0xx_hal_dma.c ****     switch (CallbackID)
 1828              		.loc 1 909 5
 1829 003c 0B23     		movs	r3, #11
 1830 003e FB18     		adds	r3, r7, r3
 1831 0040 1B78     		ldrb	r3, [r3]
 1832 0042 032B     		cmp	r3, #3
 1833 0044 14D0     		beq	.L79
 1834 0046 17DC     		bgt	.L80
 1835 0048 022B     		cmp	r3, #2
 1836 004a 0DD0     		beq	.L81
 1837 004c 14DC     		bgt	.L80
 1838 004e 002B     		cmp	r3, #0
 1839 0050 02D0     		beq	.L82
ARM GAS  C:\Users\SOLDER~1\AppData\Local\Temp\cc8E0pRj.s 			page 49


 1840 0052 012B     		cmp	r3, #1
 1841 0054 04D0     		beq	.L83
 1842 0056 0FE0     		b	.L80
 1843              	.L82:
 910:Drivers/STM32G0xx_HAL_Driver/Src/stm32g0xx_hal_dma.c ****     {
 911:Drivers/STM32G0xx_HAL_Driver/Src/stm32g0xx_hal_dma.c ****       case  HAL_DMA_XFER_CPLT_CB_ID:
 912:Drivers/STM32G0xx_HAL_Driver/Src/stm32g0xx_hal_dma.c ****         hdma->XferCpltCallback = pCallback;
 1844              		.loc 1 912 32
 1845 0058 FB68     		ldr	r3, [r7, #12]
 1846 005a 7A68     		ldr	r2, [r7, #4]
 1847 005c DA62     		str	r2, [r3, #44]
 913:Drivers/STM32G0xx_HAL_Driver/Src/stm32g0xx_hal_dma.c ****         break;
 1848              		.loc 1 913 9
 1849 005e 14E0     		b	.L85
 1850              	.L83:
 914:Drivers/STM32G0xx_HAL_Driver/Src/stm32g0xx_hal_dma.c **** 
 915:Drivers/STM32G0xx_HAL_Driver/Src/stm32g0xx_hal_dma.c ****       case  HAL_DMA_XFER_HALFCPLT_CB_ID:
 916:Drivers/STM32G0xx_HAL_Driver/Src/stm32g0xx_hal_dma.c ****         hdma->XferHalfCpltCallback = pCallback;
 1851              		.loc 1 916 36
 1852 0060 FB68     		ldr	r3, [r7, #12]
 1853 0062 7A68     		ldr	r2, [r7, #4]
 1854 0064 1A63     		str	r2, [r3, #48]
 917:Drivers/STM32G0xx_HAL_Driver/Src/stm32g0xx_hal_dma.c ****         break;
 1855              		.loc 1 917 9
 1856 0066 10E0     		b	.L85
 1857              	.L81:
 918:Drivers/STM32G0xx_HAL_Driver/Src/stm32g0xx_hal_dma.c **** 
 919:Drivers/STM32G0xx_HAL_Driver/Src/stm32g0xx_hal_dma.c ****       case  HAL_DMA_XFER_ERROR_CB_ID:
 920:Drivers/STM32G0xx_HAL_Driver/Src/stm32g0xx_hal_dma.c ****         hdma->XferErrorCallback = pCallback;
 1858              		.loc 1 920 33
 1859 0068 FB68     		ldr	r3, [r7, #12]
 1860 006a 7A68     		ldr	r2, [r7, #4]
 1861 006c 5A63     		str	r2, [r3, #52]
 921:Drivers/STM32G0xx_HAL_Driver/Src/stm32g0xx_hal_dma.c ****         break;
 1862              		.loc 1 921 9
 1863 006e 0CE0     		b	.L85
 1864              	.L79:
 922:Drivers/STM32G0xx_HAL_Driver/Src/stm32g0xx_hal_dma.c **** 
 923:Drivers/STM32G0xx_HAL_Driver/Src/stm32g0xx_hal_dma.c ****       case  HAL_DMA_XFER_ABORT_CB_ID:
 924:Drivers/STM32G0xx_HAL_Driver/Src/stm32g0xx_hal_dma.c ****         hdma->XferAbortCallback = pCallback;
 1865              		.loc 1 924 33
 1866 0070 FB68     		ldr	r3, [r7, #12]
 1867 0072 7A68     		ldr	r2, [r7, #4]
 1868 0074 9A63     		str	r2, [r3, #56]
 925:Drivers/STM32G0xx_HAL_Driver/Src/stm32g0xx_hal_dma.c ****         break;
 1869              		.loc 1 925 9
 1870 0076 08E0     		b	.L85
 1871              	.L80:
 926:Drivers/STM32G0xx_HAL_Driver/Src/stm32g0xx_hal_dma.c **** 
 927:Drivers/STM32G0xx_HAL_Driver/Src/stm32g0xx_hal_dma.c ****       default:
 928:Drivers/STM32G0xx_HAL_Driver/Src/stm32g0xx_hal_dma.c ****         status = HAL_ERROR;
 1872              		.loc 1 928 16
 1873 0078 1723     		movs	r3, #23
 1874 007a FB18     		adds	r3, r7, r3
 1875 007c 0122     		movs	r2, #1
 1876 007e 1A70     		strb	r2, [r3]
 929:Drivers/STM32G0xx_HAL_Driver/Src/stm32g0xx_hal_dma.c ****         break;
ARM GAS  C:\Users\SOLDER~1\AppData\Local\Temp\cc8E0pRj.s 			page 50


 1877              		.loc 1 929 9
 1878 0080 03E0     		b	.L85
 1879              	.L78:
 930:Drivers/STM32G0xx_HAL_Driver/Src/stm32g0xx_hal_dma.c ****     }
 931:Drivers/STM32G0xx_HAL_Driver/Src/stm32g0xx_hal_dma.c ****   }
 932:Drivers/STM32G0xx_HAL_Driver/Src/stm32g0xx_hal_dma.c ****   else
 933:Drivers/STM32G0xx_HAL_Driver/Src/stm32g0xx_hal_dma.c ****   {
 934:Drivers/STM32G0xx_HAL_Driver/Src/stm32g0xx_hal_dma.c ****     status = HAL_ERROR;
 1880              		.loc 1 934 12
 1881 0082 1723     		movs	r3, #23
 1882 0084 FB18     		adds	r3, r7, r3
 1883 0086 0122     		movs	r2, #1
 1884 0088 1A70     		strb	r2, [r3]
 1885              	.L85:
 935:Drivers/STM32G0xx_HAL_Driver/Src/stm32g0xx_hal_dma.c ****   }
 936:Drivers/STM32G0xx_HAL_Driver/Src/stm32g0xx_hal_dma.c **** 
 937:Drivers/STM32G0xx_HAL_Driver/Src/stm32g0xx_hal_dma.c ****   /* Release Lock */
 938:Drivers/STM32G0xx_HAL_Driver/Src/stm32g0xx_hal_dma.c ****   __HAL_UNLOCK(hdma);
 1886              		.loc 1 938 3
 1887 008a FB68     		ldr	r3, [r7, #12]
 1888 008c 2422     		movs	r2, #36
 1889 008e 0021     		movs	r1, #0
 1890 0090 9954     		strb	r1, [r3, r2]
 939:Drivers/STM32G0xx_HAL_Driver/Src/stm32g0xx_hal_dma.c **** 
 940:Drivers/STM32G0xx_HAL_Driver/Src/stm32g0xx_hal_dma.c ****   return status;
 1891              		.loc 1 940 10
 1892 0092 1723     		movs	r3, #23
 1893 0094 FB18     		adds	r3, r7, r3
 1894 0096 1B78     		ldrb	r3, [r3]
 1895              	.L77:
 941:Drivers/STM32G0xx_HAL_Driver/Src/stm32g0xx_hal_dma.c **** }
 1896              		.loc 1 941 1
 1897 0098 1800     		movs	r0, r3
 1898 009a BD46     		mov	sp, r7
 1899 009c 06B0     		add	sp, sp, #24
 1900              		@ sp needed
 1901 009e 80BD     		pop	{r7, pc}
 1902              		.cfi_endproc
 1903              	.LFE363:
 1905              		.section	.text.HAL_DMA_UnRegisterCallback,"ax",%progbits
 1906              		.align	1
 1907              		.global	HAL_DMA_UnRegisterCallback
 1908              		.syntax unified
 1909              		.code	16
 1910              		.thumb_func
 1912              	HAL_DMA_UnRegisterCallback:
 1913              	.LFB364:
 942:Drivers/STM32G0xx_HAL_Driver/Src/stm32g0xx_hal_dma.c **** 
 943:Drivers/STM32G0xx_HAL_Driver/Src/stm32g0xx_hal_dma.c **** /**
 944:Drivers/STM32G0xx_HAL_Driver/Src/stm32g0xx_hal_dma.c ****   * @brief UnRegister callbacks
 945:Drivers/STM32G0xx_HAL_Driver/Src/stm32g0xx_hal_dma.c ****   * @param hdma Pointer to a DMA_HandleTypeDef structure that contains
 946:Drivers/STM32G0xx_HAL_Driver/Src/stm32g0xx_hal_dma.c ****   *             the configuration information for the specified DMA Channel.
 947:Drivers/STM32G0xx_HAL_Driver/Src/stm32g0xx_hal_dma.c ****   * @param CallbackID User Callback identifier
 948:Drivers/STM32G0xx_HAL_Driver/Src/stm32g0xx_hal_dma.c ****   *                   a HAL_DMA_CallbackIDTypeDef ENUM as parameter.
 949:Drivers/STM32G0xx_HAL_Driver/Src/stm32g0xx_hal_dma.c ****   * @retval HAL status
 950:Drivers/STM32G0xx_HAL_Driver/Src/stm32g0xx_hal_dma.c ****   */
 951:Drivers/STM32G0xx_HAL_Driver/Src/stm32g0xx_hal_dma.c **** HAL_StatusTypeDef HAL_DMA_UnRegisterCallback(DMA_HandleTypeDef *hdma, HAL_DMA_CallbackIDTypeDef Cal
ARM GAS  C:\Users\SOLDER~1\AppData\Local\Temp\cc8E0pRj.s 			page 51


 952:Drivers/STM32G0xx_HAL_Driver/Src/stm32g0xx_hal_dma.c **** {
 1914              		.loc 1 952 1
 1915              		.cfi_startproc
 1916              		@ args = 0, pretend = 0, frame = 16
 1917              		@ frame_needed = 1, uses_anonymous_args = 0
 1918 0000 80B5     		push	{r7, lr}
 1919              		.cfi_def_cfa_offset 8
 1920              		.cfi_offset 7, -8
 1921              		.cfi_offset 14, -4
 1922 0002 84B0     		sub	sp, sp, #16
 1923              		.cfi_def_cfa_offset 24
 1924 0004 00AF     		add	r7, sp, #0
 1925              		.cfi_def_cfa_register 7
 1926 0006 7860     		str	r0, [r7, #4]
 1927 0008 0A00     		movs	r2, r1
 1928 000a FB1C     		adds	r3, r7, #3
 1929 000c 1A70     		strb	r2, [r3]
 953:Drivers/STM32G0xx_HAL_Driver/Src/stm32g0xx_hal_dma.c ****   HAL_StatusTypeDef status = HAL_OK;
 1930              		.loc 1 953 21
 1931 000e 0F23     		movs	r3, #15
 1932 0010 FB18     		adds	r3, r7, r3
 1933 0012 0022     		movs	r2, #0
 1934 0014 1A70     		strb	r2, [r3]
 954:Drivers/STM32G0xx_HAL_Driver/Src/stm32g0xx_hal_dma.c **** 
 955:Drivers/STM32G0xx_HAL_Driver/Src/stm32g0xx_hal_dma.c ****   /* Process locked */
 956:Drivers/STM32G0xx_HAL_Driver/Src/stm32g0xx_hal_dma.c ****   __HAL_LOCK(hdma);
 1935              		.loc 1 956 3
 1936 0016 7B68     		ldr	r3, [r7, #4]
 1937 0018 2422     		movs	r2, #36
 1938 001a 9B5C     		ldrb	r3, [r3, r2]
 1939 001c 012B     		cmp	r3, #1
 1940 001e 01D1     		bne	.L87
 1941              		.loc 1 956 3 is_stmt 0 discriminator 1
 1942 0020 0223     		movs	r3, #2
 1943 0022 3FE0     		b	.L88
 1944              	.L87:
 1945              		.loc 1 956 3 discriminator 2
 1946 0024 7B68     		ldr	r3, [r7, #4]
 1947 0026 2422     		movs	r2, #36
 1948 0028 0121     		movs	r1, #1
 1949 002a 9954     		strb	r1, [r3, r2]
 957:Drivers/STM32G0xx_HAL_Driver/Src/stm32g0xx_hal_dma.c **** 
 958:Drivers/STM32G0xx_HAL_Driver/Src/stm32g0xx_hal_dma.c ****   if (hdma->State == HAL_DMA_STATE_READY)
 1950              		.loc 1 958 11 is_stmt 1 discriminator 2
 1951 002c 7B68     		ldr	r3, [r7, #4]
 1952 002e 2522     		movs	r2, #37
 1953 0030 9B5C     		ldrb	r3, [r3, r2]
 1954 0032 DBB2     		uxtb	r3, r3
 1955              		.loc 1 958 6 discriminator 2
 1956 0034 012B     		cmp	r3, #1
 1957 0036 2AD1     		bne	.L89
 959:Drivers/STM32G0xx_HAL_Driver/Src/stm32g0xx_hal_dma.c ****   {
 960:Drivers/STM32G0xx_HAL_Driver/Src/stm32g0xx_hal_dma.c ****     switch (CallbackID)
 1958              		.loc 1 960 5
 1959 0038 FB1C     		adds	r3, r7, #3
 1960 003a 1B78     		ldrb	r3, [r3]
 1961 003c 042B     		cmp	r3, #4
ARM GAS  C:\Users\SOLDER~1\AppData\Local\Temp\cc8E0pRj.s 			page 52


 1962 003e 21D8     		bhi	.L90
 1963 0040 9A00     		lsls	r2, r3, #2
 1964 0042 1A4B     		ldr	r3, .L99
 1965 0044 D318     		adds	r3, r2, r3
 1966 0046 1B68     		ldr	r3, [r3]
 1967 0048 9F46     		mov	pc, r3
 1968              		.section	.rodata.HAL_DMA_UnRegisterCallback,"a",%progbits
 1969              		.align	2
 1970              	.L92:
 1971 0000 4A000000 		.word	.L96
 1972 0004 52000000 		.word	.L95
 1973 0008 5A000000 		.word	.L94
 1974 000c 62000000 		.word	.L93
 1975 0010 6A000000 		.word	.L91
 1976              		.section	.text.HAL_DMA_UnRegisterCallback
 1977              	.L96:
 961:Drivers/STM32G0xx_HAL_Driver/Src/stm32g0xx_hal_dma.c ****     {
 962:Drivers/STM32G0xx_HAL_Driver/Src/stm32g0xx_hal_dma.c ****       case  HAL_DMA_XFER_CPLT_CB_ID:
 963:Drivers/STM32G0xx_HAL_Driver/Src/stm32g0xx_hal_dma.c ****         hdma->XferCpltCallback = NULL;
 1978              		.loc 1 963 32
 1979 004a 7B68     		ldr	r3, [r7, #4]
 1980 004c 0022     		movs	r2, #0
 1981 004e DA62     		str	r2, [r3, #44]
 964:Drivers/STM32G0xx_HAL_Driver/Src/stm32g0xx_hal_dma.c ****         break;
 1982              		.loc 1 964 9
 1983 0050 21E0     		b	.L98
 1984              	.L95:
 965:Drivers/STM32G0xx_HAL_Driver/Src/stm32g0xx_hal_dma.c **** 
 966:Drivers/STM32G0xx_HAL_Driver/Src/stm32g0xx_hal_dma.c ****       case  HAL_DMA_XFER_HALFCPLT_CB_ID:
 967:Drivers/STM32G0xx_HAL_Driver/Src/stm32g0xx_hal_dma.c ****         hdma->XferHalfCpltCallback = NULL;
 1985              		.loc 1 967 36
 1986 0052 7B68     		ldr	r3, [r7, #4]
 1987 0054 0022     		movs	r2, #0
 1988 0056 1A63     		str	r2, [r3, #48]
 968:Drivers/STM32G0xx_HAL_Driver/Src/stm32g0xx_hal_dma.c ****         break;
 1989              		.loc 1 968 9
 1990 0058 1DE0     		b	.L98
 1991              	.L94:
 969:Drivers/STM32G0xx_HAL_Driver/Src/stm32g0xx_hal_dma.c **** 
 970:Drivers/STM32G0xx_HAL_Driver/Src/stm32g0xx_hal_dma.c ****       case  HAL_DMA_XFER_ERROR_CB_ID:
 971:Drivers/STM32G0xx_HAL_Driver/Src/stm32g0xx_hal_dma.c ****         hdma->XferErrorCallback = NULL;
 1992              		.loc 1 971 33
 1993 005a 7B68     		ldr	r3, [r7, #4]
 1994 005c 0022     		movs	r2, #0
 1995 005e 5A63     		str	r2, [r3, #52]
 972:Drivers/STM32G0xx_HAL_Driver/Src/stm32g0xx_hal_dma.c ****         break;
 1996              		.loc 1 972 9
 1997 0060 19E0     		b	.L98
 1998              	.L93:
 973:Drivers/STM32G0xx_HAL_Driver/Src/stm32g0xx_hal_dma.c **** 
 974:Drivers/STM32G0xx_HAL_Driver/Src/stm32g0xx_hal_dma.c ****       case  HAL_DMA_XFER_ABORT_CB_ID:
 975:Drivers/STM32G0xx_HAL_Driver/Src/stm32g0xx_hal_dma.c ****         hdma->XferAbortCallback = NULL;
 1999              		.loc 1 975 33
 2000 0062 7B68     		ldr	r3, [r7, #4]
 2001 0064 0022     		movs	r2, #0
 2002 0066 9A63     		str	r2, [r3, #56]
 976:Drivers/STM32G0xx_HAL_Driver/Src/stm32g0xx_hal_dma.c ****         break;
ARM GAS  C:\Users\SOLDER~1\AppData\Local\Temp\cc8E0pRj.s 			page 53


 2003              		.loc 1 976 9
 2004 0068 15E0     		b	.L98
 2005              	.L91:
 977:Drivers/STM32G0xx_HAL_Driver/Src/stm32g0xx_hal_dma.c **** 
 978:Drivers/STM32G0xx_HAL_Driver/Src/stm32g0xx_hal_dma.c ****       case   HAL_DMA_XFER_ALL_CB_ID:
 979:Drivers/STM32G0xx_HAL_Driver/Src/stm32g0xx_hal_dma.c ****         hdma->XferCpltCallback = NULL;
 2006              		.loc 1 979 32
 2007 006a 7B68     		ldr	r3, [r7, #4]
 2008 006c 0022     		movs	r2, #0
 2009 006e DA62     		str	r2, [r3, #44]
 980:Drivers/STM32G0xx_HAL_Driver/Src/stm32g0xx_hal_dma.c ****         hdma->XferHalfCpltCallback = NULL;
 2010              		.loc 1 980 36
 2011 0070 7B68     		ldr	r3, [r7, #4]
 2012 0072 0022     		movs	r2, #0
 2013 0074 1A63     		str	r2, [r3, #48]
 981:Drivers/STM32G0xx_HAL_Driver/Src/stm32g0xx_hal_dma.c ****         hdma->XferErrorCallback = NULL;
 2014              		.loc 1 981 33
 2015 0076 7B68     		ldr	r3, [r7, #4]
 2016 0078 0022     		movs	r2, #0
 2017 007a 5A63     		str	r2, [r3, #52]
 982:Drivers/STM32G0xx_HAL_Driver/Src/stm32g0xx_hal_dma.c ****         hdma->XferAbortCallback = NULL;
 2018              		.loc 1 982 33
 2019 007c 7B68     		ldr	r3, [r7, #4]
 2020 007e 0022     		movs	r2, #0
 2021 0080 9A63     		str	r2, [r3, #56]
 983:Drivers/STM32G0xx_HAL_Driver/Src/stm32g0xx_hal_dma.c ****         break;
 2022              		.loc 1 983 9
 2023 0082 08E0     		b	.L98
 2024              	.L90:
 984:Drivers/STM32G0xx_HAL_Driver/Src/stm32g0xx_hal_dma.c **** 
 985:Drivers/STM32G0xx_HAL_Driver/Src/stm32g0xx_hal_dma.c ****       default:
 986:Drivers/STM32G0xx_HAL_Driver/Src/stm32g0xx_hal_dma.c ****         status = HAL_ERROR;
 2025              		.loc 1 986 16
 2026 0084 0F23     		movs	r3, #15
 2027 0086 FB18     		adds	r3, r7, r3
 2028 0088 0122     		movs	r2, #1
 2029 008a 1A70     		strb	r2, [r3]
 987:Drivers/STM32G0xx_HAL_Driver/Src/stm32g0xx_hal_dma.c ****         break;
 2030              		.loc 1 987 9
 2031 008c 03E0     		b	.L98
 2032              	.L89:
 988:Drivers/STM32G0xx_HAL_Driver/Src/stm32g0xx_hal_dma.c ****     }
 989:Drivers/STM32G0xx_HAL_Driver/Src/stm32g0xx_hal_dma.c ****   }
 990:Drivers/STM32G0xx_HAL_Driver/Src/stm32g0xx_hal_dma.c ****   else
 991:Drivers/STM32G0xx_HAL_Driver/Src/stm32g0xx_hal_dma.c ****   {
 992:Drivers/STM32G0xx_HAL_Driver/Src/stm32g0xx_hal_dma.c ****     status = HAL_ERROR;
 2033              		.loc 1 992 12
 2034 008e 0F23     		movs	r3, #15
 2035 0090 FB18     		adds	r3, r7, r3
 2036 0092 0122     		movs	r2, #1
 2037 0094 1A70     		strb	r2, [r3]
 2038              	.L98:
 993:Drivers/STM32G0xx_HAL_Driver/Src/stm32g0xx_hal_dma.c ****   }
 994:Drivers/STM32G0xx_HAL_Driver/Src/stm32g0xx_hal_dma.c **** 
 995:Drivers/STM32G0xx_HAL_Driver/Src/stm32g0xx_hal_dma.c ****   /* Release Lock */
 996:Drivers/STM32G0xx_HAL_Driver/Src/stm32g0xx_hal_dma.c ****   __HAL_UNLOCK(hdma);
 2039              		.loc 1 996 3
ARM GAS  C:\Users\SOLDER~1\AppData\Local\Temp\cc8E0pRj.s 			page 54


 2040 0096 7B68     		ldr	r3, [r7, #4]
 2041 0098 2422     		movs	r2, #36
 2042 009a 0021     		movs	r1, #0
 2043 009c 9954     		strb	r1, [r3, r2]
 997:Drivers/STM32G0xx_HAL_Driver/Src/stm32g0xx_hal_dma.c **** 
 998:Drivers/STM32G0xx_HAL_Driver/Src/stm32g0xx_hal_dma.c ****   return status;
 2044              		.loc 1 998 10
 2045 009e 0F23     		movs	r3, #15
 2046 00a0 FB18     		adds	r3, r7, r3
 2047 00a2 1B78     		ldrb	r3, [r3]
 2048              	.L88:
 999:Drivers/STM32G0xx_HAL_Driver/Src/stm32g0xx_hal_dma.c **** }
 2049              		.loc 1 999 1
 2050 00a4 1800     		movs	r0, r3
 2051 00a6 BD46     		mov	sp, r7
 2052 00a8 04B0     		add	sp, sp, #16
 2053              		@ sp needed
 2054 00aa 80BD     		pop	{r7, pc}
 2055              	.L100:
 2056              		.align	2
 2057              	.L99:
 2058 00ac 00000000 		.word	.L92
 2059              		.cfi_endproc
 2060              	.LFE364:
 2062              		.section	.text.HAL_DMA_GetState,"ax",%progbits
 2063              		.align	1
 2064              		.global	HAL_DMA_GetState
 2065              		.syntax unified
 2066              		.code	16
 2067              		.thumb_func
 2069              	HAL_DMA_GetState:
 2070              	.LFB365:
1000:Drivers/STM32G0xx_HAL_Driver/Src/stm32g0xx_hal_dma.c **** 
1001:Drivers/STM32G0xx_HAL_Driver/Src/stm32g0xx_hal_dma.c **** /**
1002:Drivers/STM32G0xx_HAL_Driver/Src/stm32g0xx_hal_dma.c ****   * @}
1003:Drivers/STM32G0xx_HAL_Driver/Src/stm32g0xx_hal_dma.c ****   */
1004:Drivers/STM32G0xx_HAL_Driver/Src/stm32g0xx_hal_dma.c **** 
1005:Drivers/STM32G0xx_HAL_Driver/Src/stm32g0xx_hal_dma.c **** 
1006:Drivers/STM32G0xx_HAL_Driver/Src/stm32g0xx_hal_dma.c **** 
1007:Drivers/STM32G0xx_HAL_Driver/Src/stm32g0xx_hal_dma.c **** /** @defgroup DMA_Exported_Functions_Group3 Peripheral State and Errors functions
1008:Drivers/STM32G0xx_HAL_Driver/Src/stm32g0xx_hal_dma.c ****  *  @brief    Peripheral State and Errors functions
1009:Drivers/STM32G0xx_HAL_Driver/Src/stm32g0xx_hal_dma.c ****  *
1010:Drivers/STM32G0xx_HAL_Driver/Src/stm32g0xx_hal_dma.c **** @verbatim
1011:Drivers/STM32G0xx_HAL_Driver/Src/stm32g0xx_hal_dma.c ****  ===============================================================================
1012:Drivers/STM32G0xx_HAL_Driver/Src/stm32g0xx_hal_dma.c ****             ##### Peripheral State and Errors functions #####
1013:Drivers/STM32G0xx_HAL_Driver/Src/stm32g0xx_hal_dma.c ****  ===============================================================================
1014:Drivers/STM32G0xx_HAL_Driver/Src/stm32g0xx_hal_dma.c ****     [..]
1015:Drivers/STM32G0xx_HAL_Driver/Src/stm32g0xx_hal_dma.c ****     This subsection provides functions allowing to
1016:Drivers/STM32G0xx_HAL_Driver/Src/stm32g0xx_hal_dma.c ****       (+) Check the DMA state
1017:Drivers/STM32G0xx_HAL_Driver/Src/stm32g0xx_hal_dma.c ****       (+) Get error code
1018:Drivers/STM32G0xx_HAL_Driver/Src/stm32g0xx_hal_dma.c **** 
1019:Drivers/STM32G0xx_HAL_Driver/Src/stm32g0xx_hal_dma.c **** @endverbatim
1020:Drivers/STM32G0xx_HAL_Driver/Src/stm32g0xx_hal_dma.c ****   * @{
1021:Drivers/STM32G0xx_HAL_Driver/Src/stm32g0xx_hal_dma.c ****   */
1022:Drivers/STM32G0xx_HAL_Driver/Src/stm32g0xx_hal_dma.c **** 
1023:Drivers/STM32G0xx_HAL_Driver/Src/stm32g0xx_hal_dma.c **** /**
1024:Drivers/STM32G0xx_HAL_Driver/Src/stm32g0xx_hal_dma.c ****   * @brief Return the DMA handle state.
ARM GAS  C:\Users\SOLDER~1\AppData\Local\Temp\cc8E0pRj.s 			page 55


1025:Drivers/STM32G0xx_HAL_Driver/Src/stm32g0xx_hal_dma.c ****   * @param hdma Pointer to a DMA_HandleTypeDef structure that contains
1026:Drivers/STM32G0xx_HAL_Driver/Src/stm32g0xx_hal_dma.c ****   *             the configuration information for the specified DMA Channel.
1027:Drivers/STM32G0xx_HAL_Driver/Src/stm32g0xx_hal_dma.c ****   * @retval HAL state
1028:Drivers/STM32G0xx_HAL_Driver/Src/stm32g0xx_hal_dma.c ****   */
1029:Drivers/STM32G0xx_HAL_Driver/Src/stm32g0xx_hal_dma.c **** HAL_DMA_StateTypeDef HAL_DMA_GetState(DMA_HandleTypeDef *hdma)
1030:Drivers/STM32G0xx_HAL_Driver/Src/stm32g0xx_hal_dma.c **** {
 2071              		.loc 1 1030 1
 2072              		.cfi_startproc
 2073              		@ args = 0, pretend = 0, frame = 8
 2074              		@ frame_needed = 1, uses_anonymous_args = 0
 2075 0000 80B5     		push	{r7, lr}
 2076              		.cfi_def_cfa_offset 8
 2077              		.cfi_offset 7, -8
 2078              		.cfi_offset 14, -4
 2079 0002 82B0     		sub	sp, sp, #8
 2080              		.cfi_def_cfa_offset 16
 2081 0004 00AF     		add	r7, sp, #0
 2082              		.cfi_def_cfa_register 7
 2083 0006 7860     		str	r0, [r7, #4]
1031:Drivers/STM32G0xx_HAL_Driver/Src/stm32g0xx_hal_dma.c ****   /* Return DMA handle state */
1032:Drivers/STM32G0xx_HAL_Driver/Src/stm32g0xx_hal_dma.c ****   return hdma->State;
 2084              		.loc 1 1032 14
 2085 0008 7B68     		ldr	r3, [r7, #4]
 2086 000a 2522     		movs	r2, #37
 2087 000c 9B5C     		ldrb	r3, [r3, r2]
 2088 000e DBB2     		uxtb	r3, r3
1033:Drivers/STM32G0xx_HAL_Driver/Src/stm32g0xx_hal_dma.c **** }
 2089              		.loc 1 1033 1
 2090 0010 1800     		movs	r0, r3
 2091 0012 BD46     		mov	sp, r7
 2092 0014 02B0     		add	sp, sp, #8
 2093              		@ sp needed
 2094 0016 80BD     		pop	{r7, pc}
 2095              		.cfi_endproc
 2096              	.LFE365:
 2098              		.section	.text.HAL_DMA_GetError,"ax",%progbits
 2099              		.align	1
 2100              		.global	HAL_DMA_GetError
 2101              		.syntax unified
 2102              		.code	16
 2103              		.thumb_func
 2105              	HAL_DMA_GetError:
 2106              	.LFB366:
1034:Drivers/STM32G0xx_HAL_Driver/Src/stm32g0xx_hal_dma.c **** 
1035:Drivers/STM32G0xx_HAL_Driver/Src/stm32g0xx_hal_dma.c **** /**
1036:Drivers/STM32G0xx_HAL_Driver/Src/stm32g0xx_hal_dma.c ****   * @brief Return the DMA error code.
1037:Drivers/STM32G0xx_HAL_Driver/Src/stm32g0xx_hal_dma.c ****   * @param hdma Pointer to a DMA_HandleTypeDef structure that contains
1038:Drivers/STM32G0xx_HAL_Driver/Src/stm32g0xx_hal_dma.c ****   *             the configuration information for the specified DMA Channel.
1039:Drivers/STM32G0xx_HAL_Driver/Src/stm32g0xx_hal_dma.c ****   * @retval DMA Error Code
1040:Drivers/STM32G0xx_HAL_Driver/Src/stm32g0xx_hal_dma.c ****   */
1041:Drivers/STM32G0xx_HAL_Driver/Src/stm32g0xx_hal_dma.c **** uint32_t HAL_DMA_GetError(DMA_HandleTypeDef *hdma)
1042:Drivers/STM32G0xx_HAL_Driver/Src/stm32g0xx_hal_dma.c **** {
 2107              		.loc 1 1042 1
 2108              		.cfi_startproc
 2109              		@ args = 0, pretend = 0, frame = 8
 2110              		@ frame_needed = 1, uses_anonymous_args = 0
 2111 0000 80B5     		push	{r7, lr}
ARM GAS  C:\Users\SOLDER~1\AppData\Local\Temp\cc8E0pRj.s 			page 56


 2112              		.cfi_def_cfa_offset 8
 2113              		.cfi_offset 7, -8
 2114              		.cfi_offset 14, -4
 2115 0002 82B0     		sub	sp, sp, #8
 2116              		.cfi_def_cfa_offset 16
 2117 0004 00AF     		add	r7, sp, #0
 2118              		.cfi_def_cfa_register 7
 2119 0006 7860     		str	r0, [r7, #4]
1043:Drivers/STM32G0xx_HAL_Driver/Src/stm32g0xx_hal_dma.c ****   /* Return the DMA error code */
1044:Drivers/STM32G0xx_HAL_Driver/Src/stm32g0xx_hal_dma.c ****   return hdma->ErrorCode;
 2120              		.loc 1 1044 14
 2121 0008 7B68     		ldr	r3, [r7, #4]
 2122 000a DB6B     		ldr	r3, [r3, #60]
1045:Drivers/STM32G0xx_HAL_Driver/Src/stm32g0xx_hal_dma.c **** }
 2123              		.loc 1 1045 1
 2124 000c 1800     		movs	r0, r3
 2125 000e BD46     		mov	sp, r7
 2126 0010 02B0     		add	sp, sp, #8
 2127              		@ sp needed
 2128 0012 80BD     		pop	{r7, pc}
 2129              		.cfi_endproc
 2130              	.LFE366:
 2132              		.section	.text.DMA_SetConfig,"ax",%progbits
 2133              		.align	1
 2134              		.syntax unified
 2135              		.code	16
 2136              		.thumb_func
 2138              	DMA_SetConfig:
 2139              	.LFB367:
1046:Drivers/STM32G0xx_HAL_Driver/Src/stm32g0xx_hal_dma.c **** 
1047:Drivers/STM32G0xx_HAL_Driver/Src/stm32g0xx_hal_dma.c **** /**
1048:Drivers/STM32G0xx_HAL_Driver/Src/stm32g0xx_hal_dma.c ****   * @}
1049:Drivers/STM32G0xx_HAL_Driver/Src/stm32g0xx_hal_dma.c ****   */
1050:Drivers/STM32G0xx_HAL_Driver/Src/stm32g0xx_hal_dma.c **** 
1051:Drivers/STM32G0xx_HAL_Driver/Src/stm32g0xx_hal_dma.c **** /**
1052:Drivers/STM32G0xx_HAL_Driver/Src/stm32g0xx_hal_dma.c ****   * @}
1053:Drivers/STM32G0xx_HAL_Driver/Src/stm32g0xx_hal_dma.c ****   */
1054:Drivers/STM32G0xx_HAL_Driver/Src/stm32g0xx_hal_dma.c **** 
1055:Drivers/STM32G0xx_HAL_Driver/Src/stm32g0xx_hal_dma.c **** /** @addtogroup DMA_Private_Functions
1056:Drivers/STM32G0xx_HAL_Driver/Src/stm32g0xx_hal_dma.c ****   * @{
1057:Drivers/STM32G0xx_HAL_Driver/Src/stm32g0xx_hal_dma.c ****   */
1058:Drivers/STM32G0xx_HAL_Driver/Src/stm32g0xx_hal_dma.c **** 
1059:Drivers/STM32G0xx_HAL_Driver/Src/stm32g0xx_hal_dma.c **** /**
1060:Drivers/STM32G0xx_HAL_Driver/Src/stm32g0xx_hal_dma.c ****   * @brief Sets the DMA Transfer parameter.
1061:Drivers/STM32G0xx_HAL_Driver/Src/stm32g0xx_hal_dma.c ****   * @param hdma Pointer to a DMA_HandleTypeDef structure that contains
1062:Drivers/STM32G0xx_HAL_Driver/Src/stm32g0xx_hal_dma.c ****   *             the configuration information for the specified DMA Channel.
1063:Drivers/STM32G0xx_HAL_Driver/Src/stm32g0xx_hal_dma.c ****   * @param SrcAddress The source memory Buffer address
1064:Drivers/STM32G0xx_HAL_Driver/Src/stm32g0xx_hal_dma.c ****   * @param DstAddress The destination memory Buffer address
1065:Drivers/STM32G0xx_HAL_Driver/Src/stm32g0xx_hal_dma.c ****   * @param DataLength The length of data to be transferred from source to destination
1066:Drivers/STM32G0xx_HAL_Driver/Src/stm32g0xx_hal_dma.c ****   * @retval HAL status
1067:Drivers/STM32G0xx_HAL_Driver/Src/stm32g0xx_hal_dma.c ****   */
1068:Drivers/STM32G0xx_HAL_Driver/Src/stm32g0xx_hal_dma.c **** static void DMA_SetConfig(DMA_HandleTypeDef *hdma, uint32_t SrcAddress, uint32_t DstAddress, uint32
1069:Drivers/STM32G0xx_HAL_Driver/Src/stm32g0xx_hal_dma.c **** {
 2140              		.loc 1 1069 1
 2141              		.cfi_startproc
 2142              		@ args = 0, pretend = 0, frame = 16
 2143              		@ frame_needed = 1, uses_anonymous_args = 0
ARM GAS  C:\Users\SOLDER~1\AppData\Local\Temp\cc8E0pRj.s 			page 57


 2144 0000 80B5     		push	{r7, lr}
 2145              		.cfi_def_cfa_offset 8
 2146              		.cfi_offset 7, -8
 2147              		.cfi_offset 14, -4
 2148 0002 84B0     		sub	sp, sp, #16
 2149              		.cfi_def_cfa_offset 24
 2150 0004 00AF     		add	r7, sp, #0
 2151              		.cfi_def_cfa_register 7
 2152 0006 F860     		str	r0, [r7, #12]
 2153 0008 B960     		str	r1, [r7, #8]
 2154 000a 7A60     		str	r2, [r7, #4]
 2155 000c 3B60     		str	r3, [r7]
1070:Drivers/STM32G0xx_HAL_Driver/Src/stm32g0xx_hal_dma.c ****   /* Clear the DMAMUX synchro overrun flag */
1071:Drivers/STM32G0xx_HAL_Driver/Src/stm32g0xx_hal_dma.c ****   hdma->DMAmuxChannelStatus->CFR = hdma->DMAmuxChannelStatusMask;
 2156              		.loc 1 1071 7
 2157 000e FB68     		ldr	r3, [r7, #12]
 2158 0010 DB6C     		ldr	r3, [r3, #76]
 2159              		.loc 1 1071 40
 2160 0012 FA68     		ldr	r2, [r7, #12]
 2161 0014 126D     		ldr	r2, [r2, #80]
 2162              		.loc 1 1071 34
 2163 0016 5A60     		str	r2, [r3, #4]
1072:Drivers/STM32G0xx_HAL_Driver/Src/stm32g0xx_hal_dma.c **** 
1073:Drivers/STM32G0xx_HAL_Driver/Src/stm32g0xx_hal_dma.c ****   if (hdma->DMAmuxRequestGen != 0U)
 2164              		.loc 1 1073 11
 2165 0018 FB68     		ldr	r3, [r7, #12]
 2166 001a 5B6D     		ldr	r3, [r3, #84]
 2167              		.loc 1 1073 6
 2168 001c 002B     		cmp	r3, #0
 2169 001e 04D0     		beq	.L106
1074:Drivers/STM32G0xx_HAL_Driver/Src/stm32g0xx_hal_dma.c ****   {
1075:Drivers/STM32G0xx_HAL_Driver/Src/stm32g0xx_hal_dma.c ****     /* Clear the DMAMUX request generator overrun flag */
1076:Drivers/STM32G0xx_HAL_Driver/Src/stm32g0xx_hal_dma.c ****     hdma->DMAmuxRequestGenStatus->RGCFR = hdma->DMAmuxRequestGenStatusMask;
 2170              		.loc 1 1076 9
 2171 0020 FB68     		ldr	r3, [r7, #12]
 2172 0022 9B6D     		ldr	r3, [r3, #88]
 2173              		.loc 1 1076 47
 2174 0024 FA68     		ldr	r2, [r7, #12]
 2175 0026 D26D     		ldr	r2, [r2, #92]
 2176              		.loc 1 1076 41
 2177 0028 5A60     		str	r2, [r3, #4]
 2178              	.L106:
1077:Drivers/STM32G0xx_HAL_Driver/Src/stm32g0xx_hal_dma.c ****   }
1078:Drivers/STM32G0xx_HAL_Driver/Src/stm32g0xx_hal_dma.c **** 
1079:Drivers/STM32G0xx_HAL_Driver/Src/stm32g0xx_hal_dma.c ****   /* Clear all flags */
1080:Drivers/STM32G0xx_HAL_Driver/Src/stm32g0xx_hal_dma.c **** #if defined(DMA2)
1081:Drivers/STM32G0xx_HAL_Driver/Src/stm32g0xx_hal_dma.c ****   hdma->DmaBaseAddress->IFCR = (DMA_ISR_GIF1 << (hdma->ChannelIndex & 0x1CU));
 2179              		.loc 1 1081 54
 2180 002a FB68     		ldr	r3, [r7, #12]
 2181 002c 5B6C     		ldr	r3, [r3, #68]
 2182              		.loc 1 1081 69
 2183 002e 1C22     		movs	r2, #28
 2184 0030 1A40     		ands	r2, r3
 2185              		.loc 1 1081 7
 2186 0032 FB68     		ldr	r3, [r7, #12]
 2187 0034 1B6C     		ldr	r3, [r3, #64]
 2188              		.loc 1 1081 46
ARM GAS  C:\Users\SOLDER~1\AppData\Local\Temp\cc8E0pRj.s 			page 58


 2189 0036 0121     		movs	r1, #1
 2190 0038 9140     		lsls	r1, r1, r2
 2191 003a 0A00     		movs	r2, r1
 2192              		.loc 1 1081 30
 2193 003c 5A60     		str	r2, [r3, #4]
1082:Drivers/STM32G0xx_HAL_Driver/Src/stm32g0xx_hal_dma.c **** #else
1083:Drivers/STM32G0xx_HAL_Driver/Src/stm32g0xx_hal_dma.c ****   __HAL_DMA_CLEAR_FLAG(hdma, (DMA_FLAG_GI1 << (hdma->ChannelIndex & 0x1CU)));
1084:Drivers/STM32G0xx_HAL_Driver/Src/stm32g0xx_hal_dma.c **** #endif /* DMA2 */
1085:Drivers/STM32G0xx_HAL_Driver/Src/stm32g0xx_hal_dma.c **** 
1086:Drivers/STM32G0xx_HAL_Driver/Src/stm32g0xx_hal_dma.c ****   /* Configure DMA Channel data length */
1087:Drivers/STM32G0xx_HAL_Driver/Src/stm32g0xx_hal_dma.c ****   hdma->Instance->CNDTR = DataLength;
 2194              		.loc 1 1087 7
 2195 003e FB68     		ldr	r3, [r7, #12]
 2196 0040 1B68     		ldr	r3, [r3]
 2197              		.loc 1 1087 25
 2198 0042 3A68     		ldr	r2, [r7]
 2199 0044 5A60     		str	r2, [r3, #4]
1088:Drivers/STM32G0xx_HAL_Driver/Src/stm32g0xx_hal_dma.c **** 
1089:Drivers/STM32G0xx_HAL_Driver/Src/stm32g0xx_hal_dma.c ****   /* Memory to Peripheral */
1090:Drivers/STM32G0xx_HAL_Driver/Src/stm32g0xx_hal_dma.c ****   if ((hdma->Init.Direction) == DMA_MEMORY_TO_PERIPH)
 2200              		.loc 1 1090 18
 2201 0046 FB68     		ldr	r3, [r7, #12]
 2202 0048 9B68     		ldr	r3, [r3, #8]
 2203              		.loc 1 1090 6
 2204 004a 102B     		cmp	r3, #16
 2205 004c 08D1     		bne	.L107
1091:Drivers/STM32G0xx_HAL_Driver/Src/stm32g0xx_hal_dma.c ****   {
1092:Drivers/STM32G0xx_HAL_Driver/Src/stm32g0xx_hal_dma.c ****     /* Configure DMA Channel destination address */
1093:Drivers/STM32G0xx_HAL_Driver/Src/stm32g0xx_hal_dma.c ****     hdma->Instance->CPAR = DstAddress;
 2206              		.loc 1 1093 9
 2207 004e FB68     		ldr	r3, [r7, #12]
 2208 0050 1B68     		ldr	r3, [r3]
 2209              		.loc 1 1093 26
 2210 0052 7A68     		ldr	r2, [r7, #4]
 2211 0054 9A60     		str	r2, [r3, #8]
1094:Drivers/STM32G0xx_HAL_Driver/Src/stm32g0xx_hal_dma.c **** 
1095:Drivers/STM32G0xx_HAL_Driver/Src/stm32g0xx_hal_dma.c ****     /* Configure DMA Channel source address */
1096:Drivers/STM32G0xx_HAL_Driver/Src/stm32g0xx_hal_dma.c ****     hdma->Instance->CMAR = SrcAddress;
 2212              		.loc 1 1096 9
 2213 0056 FB68     		ldr	r3, [r7, #12]
 2214 0058 1B68     		ldr	r3, [r3]
 2215              		.loc 1 1096 26
 2216 005a BA68     		ldr	r2, [r7, #8]
 2217 005c DA60     		str	r2, [r3, #12]
1097:Drivers/STM32G0xx_HAL_Driver/Src/stm32g0xx_hal_dma.c ****   }
1098:Drivers/STM32G0xx_HAL_Driver/Src/stm32g0xx_hal_dma.c ****   /* Peripheral to Memory */
1099:Drivers/STM32G0xx_HAL_Driver/Src/stm32g0xx_hal_dma.c ****   else
1100:Drivers/STM32G0xx_HAL_Driver/Src/stm32g0xx_hal_dma.c ****   {
1101:Drivers/STM32G0xx_HAL_Driver/Src/stm32g0xx_hal_dma.c ****     /* Configure DMA Channel source address */
1102:Drivers/STM32G0xx_HAL_Driver/Src/stm32g0xx_hal_dma.c ****     hdma->Instance->CPAR = SrcAddress;
1103:Drivers/STM32G0xx_HAL_Driver/Src/stm32g0xx_hal_dma.c **** 
1104:Drivers/STM32G0xx_HAL_Driver/Src/stm32g0xx_hal_dma.c ****     /* Configure DMA Channel destination address */
1105:Drivers/STM32G0xx_HAL_Driver/Src/stm32g0xx_hal_dma.c ****     hdma->Instance->CMAR = DstAddress;
1106:Drivers/STM32G0xx_HAL_Driver/Src/stm32g0xx_hal_dma.c ****   }
1107:Drivers/STM32G0xx_HAL_Driver/Src/stm32g0xx_hal_dma.c **** }
 2218              		.loc 1 1107 1
 2219 005e 07E0     		b	.L109
ARM GAS  C:\Users\SOLDER~1\AppData\Local\Temp\cc8E0pRj.s 			page 59


 2220              	.L107:
1102:Drivers/STM32G0xx_HAL_Driver/Src/stm32g0xx_hal_dma.c **** 
 2221              		.loc 1 1102 9
 2222 0060 FB68     		ldr	r3, [r7, #12]
 2223 0062 1B68     		ldr	r3, [r3]
1102:Drivers/STM32G0xx_HAL_Driver/Src/stm32g0xx_hal_dma.c **** 
 2224              		.loc 1 1102 26
 2225 0064 BA68     		ldr	r2, [r7, #8]
 2226 0066 9A60     		str	r2, [r3, #8]
1105:Drivers/STM32G0xx_HAL_Driver/Src/stm32g0xx_hal_dma.c ****   }
 2227              		.loc 1 1105 9
 2228 0068 FB68     		ldr	r3, [r7, #12]
 2229 006a 1B68     		ldr	r3, [r3]
1105:Drivers/STM32G0xx_HAL_Driver/Src/stm32g0xx_hal_dma.c ****   }
 2230              		.loc 1 1105 26
 2231 006c 7A68     		ldr	r2, [r7, #4]
 2232 006e DA60     		str	r2, [r3, #12]
 2233              	.L109:
 2234              		.loc 1 1107 1
 2235 0070 C046     		nop
 2236 0072 BD46     		mov	sp, r7
 2237 0074 04B0     		add	sp, sp, #16
 2238              		@ sp needed
 2239 0076 80BD     		pop	{r7, pc}
 2240              		.cfi_endproc
 2241              	.LFE367:
 2243              		.section	.text.DMA_CalcDMAMUXChannelBaseAndMask,"ax",%progbits
 2244              		.align	1
 2245              		.syntax unified
 2246              		.code	16
 2247              		.thumb_func
 2249              	DMA_CalcDMAMUXChannelBaseAndMask:
 2250              	.LFB368:
1108:Drivers/STM32G0xx_HAL_Driver/Src/stm32g0xx_hal_dma.c **** 
1109:Drivers/STM32G0xx_HAL_Driver/Src/stm32g0xx_hal_dma.c **** /**
1110:Drivers/STM32G0xx_HAL_Driver/Src/stm32g0xx_hal_dma.c ****   * @brief Updates the DMA handle with the DMAMUX  channel and status mask depending on channel num
1111:Drivers/STM32G0xx_HAL_Driver/Src/stm32g0xx_hal_dma.c ****   * @param hdma Pointer to a DMA_HandleTypeDef structure that contains
1112:Drivers/STM32G0xx_HAL_Driver/Src/stm32g0xx_hal_dma.c ****   *             the configuration information for the specified DMA Channel.
1113:Drivers/STM32G0xx_HAL_Driver/Src/stm32g0xx_hal_dma.c ****   * @retval None
1114:Drivers/STM32G0xx_HAL_Driver/Src/stm32g0xx_hal_dma.c ****   */
1115:Drivers/STM32G0xx_HAL_Driver/Src/stm32g0xx_hal_dma.c **** static void DMA_CalcDMAMUXChannelBaseAndMask(DMA_HandleTypeDef *hdma)
1116:Drivers/STM32G0xx_HAL_Driver/Src/stm32g0xx_hal_dma.c **** {
 2251              		.loc 1 1116 1
 2252              		.cfi_startproc
 2253              		@ args = 0, pretend = 0, frame = 16
 2254              		@ frame_needed = 1, uses_anonymous_args = 0
 2255 0000 80B5     		push	{r7, lr}
 2256              		.cfi_def_cfa_offset 8
 2257              		.cfi_offset 7, -8
 2258              		.cfi_offset 14, -4
 2259 0002 84B0     		sub	sp, sp, #16
 2260              		.cfi_def_cfa_offset 24
 2261 0004 00AF     		add	r7, sp, #0
 2262              		.cfi_def_cfa_register 7
 2263 0006 7860     		str	r0, [r7, #4]
1117:Drivers/STM32G0xx_HAL_Driver/Src/stm32g0xx_hal_dma.c ****   uint32_t channel_number;
1118:Drivers/STM32G0xx_HAL_Driver/Src/stm32g0xx_hal_dma.c **** 
ARM GAS  C:\Users\SOLDER~1\AppData\Local\Temp\cc8E0pRj.s 			page 60


1119:Drivers/STM32G0xx_HAL_Driver/Src/stm32g0xx_hal_dma.c **** #if defined(DMA2)
1120:Drivers/STM32G0xx_HAL_Driver/Src/stm32g0xx_hal_dma.c ****   /* check if instance is not outside the DMA channel range */
1121:Drivers/STM32G0xx_HAL_Driver/Src/stm32g0xx_hal_dma.c ****   if ((uint32_t)hdma->Instance < (uint32_t)DMA2_Channel1)
 2264              		.loc 1 1121 21
 2265 0008 7B68     		ldr	r3, [r7, #4]
 2266 000a 1B68     		ldr	r3, [r3]
 2267              		.loc 1 1121 7
 2268 000c 1A00     		movs	r2, r3
 2269              		.loc 1 1121 6
 2270 000e 1D4B     		ldr	r3, .L113
 2271 0010 9A42     		cmp	r2, r3
 2272 0012 14D8     		bhi	.L111
1122:Drivers/STM32G0xx_HAL_Driver/Src/stm32g0xx_hal_dma.c ****   {
1123:Drivers/STM32G0xx_HAL_Driver/Src/stm32g0xx_hal_dma.c ****     /* DMA1 */
1124:Drivers/STM32G0xx_HAL_Driver/Src/stm32g0xx_hal_dma.c ****     /* Associate a DMA Channel to a DMAMUX channel */
1125:Drivers/STM32G0xx_HAL_Driver/Src/stm32g0xx_hal_dma.c ****     hdma->DMAmuxChannel = (DMAMUX1_Channel0 + (hdma->ChannelIndex >> 2U));
 2273              		.loc 1 1125 52
 2274 0014 7B68     		ldr	r3, [r7, #4]
 2275 0016 5B6C     		ldr	r3, [r3, #68]
 2276              		.loc 1 1125 67
 2277 0018 9B08     		lsrs	r3, r3, #2
 2278              		.loc 1 1125 45
 2279 001a 9B00     		lsls	r3, r3, #2
 2280 001c 1A4A     		ldr	r2, .L113+4
 2281 001e 9A18     		adds	r2, r3, r2
 2282              		.loc 1 1125 25
 2283 0020 7B68     		ldr	r3, [r7, #4]
 2284 0022 9A64     		str	r2, [r3, #72]
1126:Drivers/STM32G0xx_HAL_Driver/Src/stm32g0xx_hal_dma.c **** 
1127:Drivers/STM32G0xx_HAL_Driver/Src/stm32g0xx_hal_dma.c ****     /* Prepare channel_number used for DMAmuxChannelStatusMask computation */
1128:Drivers/STM32G0xx_HAL_Driver/Src/stm32g0xx_hal_dma.c ****     channel_number = (((uint32_t)hdma->Instance & 0xFFU) - 8U) / 20U;
 2285              		.loc 1 1128 38
 2286 0024 7B68     		ldr	r3, [r7, #4]
 2287 0026 1B68     		ldr	r3, [r3]
 2288              		.loc 1 1128 24
 2289 0028 1A00     		movs	r2, r3
 2290              		.loc 1 1128 49
 2291 002a FF23     		movs	r3, #255
 2292 002c 1340     		ands	r3, r2
 2293              		.loc 1 1128 58
 2294 002e 083B     		subs	r3, r3, #8
 2295              		.loc 1 1128 20
 2296 0030 1421     		movs	r1, #20
 2297 0032 1800     		movs	r0, r3
 2298 0034 FFF7FEFF 		bl	__aeabi_uidiv
 2299 0038 0300     		movs	r3, r0
 2300 003a FB60     		str	r3, [r7, #12]
 2301 003c 14E0     		b	.L112
 2302              	.L111:
1129:Drivers/STM32G0xx_HAL_Driver/Src/stm32g0xx_hal_dma.c ****   }
1130:Drivers/STM32G0xx_HAL_Driver/Src/stm32g0xx_hal_dma.c ****   else
1131:Drivers/STM32G0xx_HAL_Driver/Src/stm32g0xx_hal_dma.c ****   {
1132:Drivers/STM32G0xx_HAL_Driver/Src/stm32g0xx_hal_dma.c ****     /* DMA2 */
1133:Drivers/STM32G0xx_HAL_Driver/Src/stm32g0xx_hal_dma.c ****     /* Associate a DMA Channel to a DMAMUX channel */
1134:Drivers/STM32G0xx_HAL_Driver/Src/stm32g0xx_hal_dma.c ****     hdma->DMAmuxChannel = (DMAMUX1_Channel7 + (hdma->ChannelIndex >> 2U));
 2303              		.loc 1 1134 52
 2304 003e 7B68     		ldr	r3, [r7, #4]
ARM GAS  C:\Users\SOLDER~1\AppData\Local\Temp\cc8E0pRj.s 			page 61


 2305 0040 5B6C     		ldr	r3, [r3, #68]
 2306              		.loc 1 1134 67
 2307 0042 9B08     		lsrs	r3, r3, #2
 2308              		.loc 1 1134 45
 2309 0044 9B00     		lsls	r3, r3, #2
 2310 0046 114A     		ldr	r2, .L113+8
 2311 0048 9A18     		adds	r2, r3, r2
 2312              		.loc 1 1134 25
 2313 004a 7B68     		ldr	r3, [r7, #4]
 2314 004c 9A64     		str	r2, [r3, #72]
1135:Drivers/STM32G0xx_HAL_Driver/Src/stm32g0xx_hal_dma.c **** 
1136:Drivers/STM32G0xx_HAL_Driver/Src/stm32g0xx_hal_dma.c ****     /* Prepare channel_number used for DMAmuxChannelStatusMask computation */
1137:Drivers/STM32G0xx_HAL_Driver/Src/stm32g0xx_hal_dma.c ****     channel_number = (((((uint32_t)hdma->Instance & 0xFFU) - 8U) / 20U) + 7U);
 2315              		.loc 1 1137 40
 2316 004e 7B68     		ldr	r3, [r7, #4]
 2317 0050 1B68     		ldr	r3, [r3]
 2318              		.loc 1 1137 26
 2319 0052 1A00     		movs	r2, r3
 2320              		.loc 1 1137 51
 2321 0054 FF23     		movs	r3, #255
 2322 0056 1340     		ands	r3, r2
 2323              		.loc 1 1137 60
 2324 0058 083B     		subs	r3, r3, #8
 2325              		.loc 1 1137 66
 2326 005a 1421     		movs	r1, #20
 2327 005c 1800     		movs	r0, r3
 2328 005e FFF7FEFF 		bl	__aeabi_uidiv
 2329 0062 0300     		movs	r3, r0
 2330              		.loc 1 1137 20
 2331 0064 0733     		adds	r3, r3, #7
 2332 0066 FB60     		str	r3, [r7, #12]
 2333              	.L112:
1138:Drivers/STM32G0xx_HAL_Driver/Src/stm32g0xx_hal_dma.c ****   }
1139:Drivers/STM32G0xx_HAL_Driver/Src/stm32g0xx_hal_dma.c **** #else
1140:Drivers/STM32G0xx_HAL_Driver/Src/stm32g0xx_hal_dma.c ****   /* Associate a DMA Channel to a DMAMUX channel */
1141:Drivers/STM32G0xx_HAL_Driver/Src/stm32g0xx_hal_dma.c ****   hdma->DMAmuxChannel = (DMAMUX_Channel_TypeDef *)(uint32_t)((uint32_t)DMAMUX1_Channel0 + ((hdma->C
1142:Drivers/STM32G0xx_HAL_Driver/Src/stm32g0xx_hal_dma.c **** 
1143:Drivers/STM32G0xx_HAL_Driver/Src/stm32g0xx_hal_dma.c ****   /* Prepare channel_number used for DMAmuxChannelStatusMask computation */
1144:Drivers/STM32G0xx_HAL_Driver/Src/stm32g0xx_hal_dma.c ****   channel_number = (((uint32_t)hdma->Instance & 0xFFU) - 8U) / 20U;
1145:Drivers/STM32G0xx_HAL_Driver/Src/stm32g0xx_hal_dma.c **** #endif /* DMA2 */
1146:Drivers/STM32G0xx_HAL_Driver/Src/stm32g0xx_hal_dma.c **** 
1147:Drivers/STM32G0xx_HAL_Driver/Src/stm32g0xx_hal_dma.c ****   /* Initialize the field DMAmuxChannelStatus to DMAMUX1_ChannelStatus base */
1148:Drivers/STM32G0xx_HAL_Driver/Src/stm32g0xx_hal_dma.c ****   hdma->DMAmuxChannelStatus = DMAMUX1_ChannelStatus;
 2334              		.loc 1 1148 29
 2335 0068 7B68     		ldr	r3, [r7, #4]
 2336 006a 094A     		ldr	r2, .L113+12
 2337 006c DA64     		str	r2, [r3, #76]
1149:Drivers/STM32G0xx_HAL_Driver/Src/stm32g0xx_hal_dma.c **** 
1150:Drivers/STM32G0xx_HAL_Driver/Src/stm32g0xx_hal_dma.c ****   /* Initialize the field DMAmuxChannelStatusMask with the corresponding index of the DMAMUX channe
1151:Drivers/STM32G0xx_HAL_Driver/Src/stm32g0xx_hal_dma.c ****   hdma->DMAmuxChannelStatusMask = 1UL << (channel_number & 0x1FU);
 2338              		.loc 1 1151 58
 2339 006e FB68     		ldr	r3, [r7, #12]
 2340 0070 1F22     		movs	r2, #31
 2341 0072 1340     		ands	r3, r2
 2342              		.loc 1 1151 39
 2343 0074 0122     		movs	r2, #1
 2344 0076 9A40     		lsls	r2, r2, r3
ARM GAS  C:\Users\SOLDER~1\AppData\Local\Temp\cc8E0pRj.s 			page 62


 2345              		.loc 1 1151 33
 2346 0078 7B68     		ldr	r3, [r7, #4]
 2347 007a 1A65     		str	r2, [r3, #80]
1152:Drivers/STM32G0xx_HAL_Driver/Src/stm32g0xx_hal_dma.c **** }
 2348              		.loc 1 1152 1
 2349 007c C046     		nop
 2350 007e BD46     		mov	sp, r7
 2351 0080 04B0     		add	sp, sp, #16
 2352              		@ sp needed
 2353 0082 80BD     		pop	{r7, pc}
 2354              	.L114:
 2355              		.align	2
 2356              	.L113:
 2357 0084 07040240 		.word	1073873927
 2358 0088 00080240 		.word	1073874944
 2359 008c 1C080240 		.word	1073874972
 2360 0090 80080240 		.word	1073875072
 2361              		.cfi_endproc
 2362              	.LFE368:
 2364              		.section	.text.DMA_CalcDMAMUXRequestGenBaseAndMask,"ax",%progbits
 2365              		.align	1
 2366              		.syntax unified
 2367              		.code	16
 2368              		.thumb_func
 2370              	DMA_CalcDMAMUXRequestGenBaseAndMask:
 2371              	.LFB369:
1153:Drivers/STM32G0xx_HAL_Driver/Src/stm32g0xx_hal_dma.c **** 
1154:Drivers/STM32G0xx_HAL_Driver/Src/stm32g0xx_hal_dma.c **** /**
1155:Drivers/STM32G0xx_HAL_Driver/Src/stm32g0xx_hal_dma.c ****   * @brief Updates the DMA handle with the DMAMUX  request generator params
1156:Drivers/STM32G0xx_HAL_Driver/Src/stm32g0xx_hal_dma.c ****   * @param hdma Pointer to a DMA_HandleTypeDef structure that contains
1157:Drivers/STM32G0xx_HAL_Driver/Src/stm32g0xx_hal_dma.c ****   *             the configuration information for the specified DMA Channel.
1158:Drivers/STM32G0xx_HAL_Driver/Src/stm32g0xx_hal_dma.c ****   * @retval None
1159:Drivers/STM32G0xx_HAL_Driver/Src/stm32g0xx_hal_dma.c ****   */
1160:Drivers/STM32G0xx_HAL_Driver/Src/stm32g0xx_hal_dma.c **** 
1161:Drivers/STM32G0xx_HAL_Driver/Src/stm32g0xx_hal_dma.c **** static void DMA_CalcDMAMUXRequestGenBaseAndMask(DMA_HandleTypeDef *hdma)
1162:Drivers/STM32G0xx_HAL_Driver/Src/stm32g0xx_hal_dma.c **** {
 2372              		.loc 1 1162 1
 2373              		.cfi_startproc
 2374              		@ args = 0, pretend = 0, frame = 16
 2375              		@ frame_needed = 1, uses_anonymous_args = 0
 2376 0000 80B5     		push	{r7, lr}
 2377              		.cfi_def_cfa_offset 8
 2378              		.cfi_offset 7, -8
 2379              		.cfi_offset 14, -4
 2380 0002 84B0     		sub	sp, sp, #16
 2381              		.cfi_def_cfa_offset 24
 2382 0004 00AF     		add	r7, sp, #0
 2383              		.cfi_def_cfa_register 7
 2384 0006 7860     		str	r0, [r7, #4]
1163:Drivers/STM32G0xx_HAL_Driver/Src/stm32g0xx_hal_dma.c ****   uint32_t request =  hdma->Init.Request & DMAMUX_CxCR_DMAREQ_ID;
 2385              		.loc 1 1163 33
 2386 0008 7B68     		ldr	r3, [r7, #4]
 2387 000a 5B68     		ldr	r3, [r3, #4]
 2388              		.loc 1 1163 12
 2389 000c 7F22     		movs	r2, #127
 2390 000e 1340     		ands	r3, r2
 2391 0010 FB60     		str	r3, [r7, #12]
ARM GAS  C:\Users\SOLDER~1\AppData\Local\Temp\cc8E0pRj.s 			page 63


1164:Drivers/STM32G0xx_HAL_Driver/Src/stm32g0xx_hal_dma.c **** 
1165:Drivers/STM32G0xx_HAL_Driver/Src/stm32g0xx_hal_dma.c ****   /* DMA Channels are connected to DMAMUX1 request generator blocks*/
1166:Drivers/STM32G0xx_HAL_Driver/Src/stm32g0xx_hal_dma.c ****   hdma->DMAmuxRequestGen = (DMAMUX_RequestGen_TypeDef *)((uint32_t)(((uint32_t)DMAMUX1_RequestGener
 2392              		.loc 1 1166 58
 2393 0012 FB68     		ldr	r3, [r7, #12]
 2394 0014 0A4A     		ldr	r2, .L116
 2395 0016 9446     		mov	ip, r2
 2396 0018 6344     		add	r3, r3, ip
 2397 001a 9B00     		lsls	r3, r3, #2
 2398              		.loc 1 1166 28
 2399 001c 1A00     		movs	r2, r3
 2400              		.loc 1 1166 26
 2401 001e 7B68     		ldr	r3, [r7, #4]
 2402 0020 5A65     		str	r2, [r3, #84]
1167:Drivers/STM32G0xx_HAL_Driver/Src/stm32g0xx_hal_dma.c **** 
1168:Drivers/STM32G0xx_HAL_Driver/Src/stm32g0xx_hal_dma.c ****   hdma->DMAmuxRequestGenStatus = DMAMUX1_RequestGenStatus;
 2403              		.loc 1 1168 32
 2404 0022 7B68     		ldr	r3, [r7, #4]
 2405 0024 074A     		ldr	r2, .L116+4
 2406 0026 9A65     		str	r2, [r3, #88]
1169:Drivers/STM32G0xx_HAL_Driver/Src/stm32g0xx_hal_dma.c **** 
1170:Drivers/STM32G0xx_HAL_Driver/Src/stm32g0xx_hal_dma.c ****   /* here "Request" is either DMA_REQUEST_GENERATOR0 to DMA_REQUEST_GENERATOR3, i.e. <= 4*/
1171:Drivers/STM32G0xx_HAL_Driver/Src/stm32g0xx_hal_dma.c ****   hdma->DMAmuxRequestGenStatusMask = 1UL << ((request - 1U) & 0x3U);
 2407              		.loc 1 1171 55
 2408 0028 FB68     		ldr	r3, [r7, #12]
 2409 002a 013B     		subs	r3, r3, #1
 2410              		.loc 1 1171 61
 2411 002c 0322     		movs	r2, #3
 2412 002e 1340     		ands	r3, r2
 2413              		.loc 1 1171 42
 2414 0030 0122     		movs	r2, #1
 2415 0032 9A40     		lsls	r2, r2, r3
 2416              		.loc 1 1171 36
 2417 0034 7B68     		ldr	r3, [r7, #4]
 2418 0036 DA65     		str	r2, [r3, #92]
1172:Drivers/STM32G0xx_HAL_Driver/Src/stm32g0xx_hal_dma.c **** }
 2419              		.loc 1 1172 1
 2420 0038 C046     		nop
 2421 003a BD46     		mov	sp, r7
 2422 003c 04B0     		add	sp, sp, #16
 2423              		@ sp needed
 2424 003e 80BD     		pop	{r7, pc}
 2425              	.L117:
 2426              		.align	2
 2427              	.L116:
 2428 0040 3F820010 		.word	268468799
 2429 0044 40090240 		.word	1073875264
 2430              		.cfi_endproc
 2431              	.LFE369:
 2433              		.text
 2434              	.Letext0:
 2435              		.file 2 "c:\\dev_tools\\stm32_tools\\gnu-tools-for-stm32.12.3\\tools\\arm-none-eabi\\include\\mach
 2436              		.file 3 "c:\\dev_tools\\stm32_tools\\gnu-tools-for-stm32.12.3\\tools\\arm-none-eabi\\include\\sys\
 2437              		.file 4 "Drivers/CMSIS/Device/ST/STM32G0xx/Include/stm32g0b1xx.h"
 2438              		.file 5 "Drivers/STM32G0xx_HAL_Driver/Inc/stm32g0xx_hal_def.h"
 2439              		.file 6 "Drivers/STM32G0xx_HAL_Driver/Inc/stm32g0xx_hal_dma.h"
 2440              		.file 7 "Drivers/STM32G0xx_HAL_Driver/Inc/stm32g0xx_ll_dma.h"
ARM GAS  C:\Users\SOLDER~1\AppData\Local\Temp\cc8E0pRj.s 			page 64


ARM GAS  C:\Users\SOLDER~1\AppData\Local\Temp\cc8E0pRj.s 			page 65


DEFINED SYMBOLS
                            *ABS*:00000000 stm32g0xx_hal_dma.c
C:\Users\SOLDER~1\AppData\Local\Temp\cc8E0pRj.s:18     .rodata.CHANNEL_OFFSET_TAB:00000000 $d
C:\Users\SOLDER~1\AppData\Local\Temp\cc8E0pRj.s:21     .rodata.CHANNEL_OFFSET_TAB:00000000 CHANNEL_OFFSET_TAB
C:\Users\SOLDER~1\AppData\Local\Temp\cc8E0pRj.s:25     .text.HAL_DMA_Init:00000000 $t
C:\Users\SOLDER~1\AppData\Local\Temp\cc8E0pRj.s:31     .text.HAL_DMA_Init:00000000 HAL_DMA_Init
C:\Users\SOLDER~1\AppData\Local\Temp\cc8E0pRj.s:2249   .text.DMA_CalcDMAMUXChannelBaseAndMask:00000000 DMA_CalcDMAMUXChannelBaseAndMask
C:\Users\SOLDER~1\AppData\Local\Temp\cc8E0pRj.s:2370   .text.DMA_CalcDMAMUXRequestGenBaseAndMask:00000000 DMA_CalcDMAMUXRequestGenBaseAndMask
C:\Users\SOLDER~1\AppData\Local\Temp\cc8E0pRj.s:258    .text.HAL_DMA_Init:00000140 $d
C:\Users\SOLDER~1\AppData\Local\Temp\cc8E0pRj.s:268    .text.HAL_DMA_DeInit:00000000 $t
C:\Users\SOLDER~1\AppData\Local\Temp\cc8E0pRj.s:274    .text.HAL_DMA_DeInit:00000000 HAL_DMA_DeInit
C:\Users\SOLDER~1\AppData\Local\Temp\cc8E0pRj.s:484    .text.HAL_DMA_DeInit:0000011c $d
C:\Users\SOLDER~1\AppData\Local\Temp\cc8E0pRj.s:493    .text.HAL_DMA_Start:00000000 $t
C:\Users\SOLDER~1\AppData\Local\Temp\cc8E0pRj.s:499    .text.HAL_DMA_Start:00000000 HAL_DMA_Start
C:\Users\SOLDER~1\AppData\Local\Temp\cc8E0pRj.s:2138   .text.DMA_SetConfig:00000000 DMA_SetConfig
C:\Users\SOLDER~1\AppData\Local\Temp\cc8E0pRj.s:610    .text.HAL_DMA_Start_IT:00000000 $t
C:\Users\SOLDER~1\AppData\Local\Temp\cc8E0pRj.s:616    .text.HAL_DMA_Start_IT:00000000 HAL_DMA_Start_IT
C:\Users\SOLDER~1\AppData\Local\Temp\cc8E0pRj.s:808    .text.HAL_DMA_Abort:00000000 $t
C:\Users\SOLDER~1\AppData\Local\Temp\cc8E0pRj.s:814    .text.HAL_DMA_Abort:00000000 HAL_DMA_Abort
C:\Users\SOLDER~1\AppData\Local\Temp\cc8E0pRj.s:960    .text.HAL_DMA_Abort:000000bc $d
C:\Users\SOLDER~1\AppData\Local\Temp\cc8E0pRj.s:965    .text.HAL_DMA_Abort_IT:00000000 $t
C:\Users\SOLDER~1\AppData\Local\Temp\cc8E0pRj.s:971    .text.HAL_DMA_Abort_IT:00000000 HAL_DMA_Abort_IT
C:\Users\SOLDER~1\AppData\Local\Temp\cc8E0pRj.s:1127   .text.HAL_DMA_Abort_IT:000000cc $d
C:\Users\SOLDER~1\AppData\Local\Temp\cc8E0pRj.s:1132   .text.HAL_DMA_PollForTransfer:00000000 $t
C:\Users\SOLDER~1\AppData\Local\Temp\cc8E0pRj.s:1138   .text.HAL_DMA_PollForTransfer:00000000 HAL_DMA_PollForTransfer
C:\Users\SOLDER~1\AppData\Local\Temp\cc8E0pRj.s:1474   .text.HAL_DMA_IRQHandler:00000000 $t
C:\Users\SOLDER~1\AppData\Local\Temp\cc8E0pRj.s:1480   .text.HAL_DMA_IRQHandler:00000000 HAL_DMA_IRQHandler
C:\Users\SOLDER~1\AppData\Local\Temp\cc8E0pRj.s:1767   .text.HAL_DMA_IRQHandler:0000017c $d
C:\Users\SOLDER~1\AppData\Local\Temp\cc8E0pRj.s:1774   .text.HAL_DMA_RegisterCallback:00000000 $t
C:\Users\SOLDER~1\AppData\Local\Temp\cc8E0pRj.s:1780   .text.HAL_DMA_RegisterCallback:00000000 HAL_DMA_RegisterCallback
C:\Users\SOLDER~1\AppData\Local\Temp\cc8E0pRj.s:1906   .text.HAL_DMA_UnRegisterCallback:00000000 $t
C:\Users\SOLDER~1\AppData\Local\Temp\cc8E0pRj.s:1912   .text.HAL_DMA_UnRegisterCallback:00000000 HAL_DMA_UnRegisterCallback
C:\Users\SOLDER~1\AppData\Local\Temp\cc8E0pRj.s:1969   .rodata.HAL_DMA_UnRegisterCallback:00000000 $d
C:\Users\SOLDER~1\AppData\Local\Temp\cc8E0pRj.s:2058   .text.HAL_DMA_UnRegisterCallback:000000ac $d
C:\Users\SOLDER~1\AppData\Local\Temp\cc8E0pRj.s:2063   .text.HAL_DMA_GetState:00000000 $t
C:\Users\SOLDER~1\AppData\Local\Temp\cc8E0pRj.s:2069   .text.HAL_DMA_GetState:00000000 HAL_DMA_GetState
C:\Users\SOLDER~1\AppData\Local\Temp\cc8E0pRj.s:2099   .text.HAL_DMA_GetError:00000000 $t
C:\Users\SOLDER~1\AppData\Local\Temp\cc8E0pRj.s:2105   .text.HAL_DMA_GetError:00000000 HAL_DMA_GetError
C:\Users\SOLDER~1\AppData\Local\Temp\cc8E0pRj.s:2133   .text.DMA_SetConfig:00000000 $t
C:\Users\SOLDER~1\AppData\Local\Temp\cc8E0pRj.s:2244   .text.DMA_CalcDMAMUXChannelBaseAndMask:00000000 $t
C:\Users\SOLDER~1\AppData\Local\Temp\cc8E0pRj.s:2357   .text.DMA_CalcDMAMUXChannelBaseAndMask:00000084 $d
C:\Users\SOLDER~1\AppData\Local\Temp\cc8E0pRj.s:2365   .text.DMA_CalcDMAMUXRequestGenBaseAndMask:00000000 $t
C:\Users\SOLDER~1\AppData\Local\Temp\cc8E0pRj.s:2428   .text.DMA_CalcDMAMUXRequestGenBaseAndMask:00000040 $d
                           .group:00000000 wm4.0.ce2174df78b5e7e201137e53a944683b
                           .group:00000000 wm4.stm32g0xx_hal_conf.h.22.f3b4c8a17ba50cc89fe005ef37cfde0b
                           .group:00000000 wm4.stm32g0xx.h.37.5a9f8125e40e7648b060333e40f62f29
                           .group:00000000 wm4.stm32g0b1xx.h.35.ea3d3123f4f9d957a250bae99e64a76a
                           .group:00000000 wm4._newlib_version.h.4.bfdf54b0af045d4a71376ae00f63a22c
                           .group:00000000 wm4.features.h.33.318b64d71e0957639cfb30f1db1f7ec8
                           .group:00000000 wm4._default_types.h.15.247e5cd201eca3442cbf5404108c4935
                           .group:00000000 wm4._intsup.h.10.48bafbb683905c4daa4565a85aeeb264
                           .group:00000000 wm4._stdint.h.10.c24fa3af3bc1706662bb5593a907e841
                           .group:00000000 wm4.stdint.h.23.d53047a68f4a85177f80b422d52785ed
                           .group:00000000 wm4.cmsis_version.h.32.46e8eccfa2cfeaae11d008bb2823a3ed
                           .group:00000000 wm4.core_cm0plus.h.66.bb83319bcb10b4c5f12c477f85f2aa51
                           .group:00000000 wm4.cmsis_gcc.h.26.3852c8780590c9ce1f1416062e7b5c50
                           .group:00000000 wm4.core_cm0plus.h.127.cfee784d07c850b645554dc8add78e69
ARM GAS  C:\Users\SOLDER~1\AppData\Local\Temp\cc8E0pRj.s 			page 66


                           .group:00000000 wm4.mpu_armv7.h.32.4049752bb5792d4e15357775e9506cfc
                           .group:00000000 wm4.stm32g0b1xx.h.746.bfa4ac6173fc12a5660b2663138c43c6
                           .group:00000000 wm4.stm32g0xx.h.154.7f8452780a6fe1b4b4d5bfbf416cea0c
                           .group:00000000 wm4.stm32_hal_legacy.h.23.8204ee8757931211f76d0a58e48fbc10
                           .group:00000000 wm4.stddef.h.39.144cf5ddcd53cbfdac30259dc1a6c87f
                           .group:00000000 wm4.stm32g0xx_hal_def.h.58.8864c0cbcc9f115e2b60cb5b26c97681
                           .group:00000000 wm4.stm32g0xx_ll_rcc.h.22.0acb6e234e0c9dd824d5ae94d2255d27
                           .group:00000000 wm4.stm32g0xx_hal_rcc.h.45.9d8ea209a0c78cb58ebb56490aac86b7
                           .group:00000000 wm4.stm32g0xx_hal_rcc_ex.h.22.f02f6ee2ad5849c62806285dc2458572
                           .group:00000000 wm4.stm32g0xx_hal_gpio.h.22.535484a852a6778b843bb3da28cf2e7f
                           .group:00000000 wm4.stm32g0xx_hal_gpio_ex.h.22.8ed9fb71a71b1ba33986aed3e2e0c038
                           .group:00000000 wm4.stm32g0xx_ll_dmamux.h.22.ceb8da0f936ad8d3a3cf99bf566a1bbb
                           .group:00000000 wm4.stm32g0xx_ll_dma.h.79.11feec6a595fdaf000eee790775aeadb
                           .group:00000000 wm4.stm32g0xx_hal_dma.h.167.6e309bdb62950a8ad7717c0d3c99c2c6
                           .group:00000000 wm4.stm32g0xx_hal_dma_ex.h.22.2ef8f6de3bb2aff42b1fe2d638a80b81
                           .group:00000000 wm4.stm32g0xx_hal_dma.h.753.6c10575ede232c7693da11786ea64b19
                           .group:00000000 wm4.stm32g0xx_hal_cortex.h.22.035255f86bb9c4cf9407b236fae02d7b
                           .group:00000000 wm4.stm32g0xx_hal_exti.h.22.ba97ede010f68db79b6e6187bf6cf4c3
                           .group:00000000 wm4.stm32g0xx_hal_flash.h.22.3c137fa2b3cd908314ec67aae8def15d
                           .group:00000000 wm4.stm32g0xx_hal_flash_ex.h.22.e03d9aac672c3cb3ad09b6ec3b4eab0f
                           .group:00000000 wm4.stm32g0xx_hal_flash.h.876.72a619cb409e30f9bb8e89b1aac3eb5c
                           .group:00000000 wm4.stm32g0xx_hal_pwr.h.22.b8edd65e2e3e580a578cbb4ea8c6cc96
                           .group:00000000 wm4.stm32g0xx_hal_pwr_ex.h.22.cc870e0034fdd0d095f0da86501ff279
                           .group:00000000 wm4.stm32g0xx_hal.h.67.58bd6a2fda6373a1cf869821501b5f54

UNDEFINED SYMBOLS
__aeabi_uidiv
HAL_GetTick
