GAS LISTING C:\Users\SOLDER~1\AppData\Local\Temp\ccLLkDzL.s 			page 1


   1              		.file	"ch32v20x_wwdg.c"
   2              		.option nopic
   3              		.attribute arch, "rv32i2p0_m2p0_a2p0_c2p0_xw"
   4              		.attribute unaligned_access, 0
   5              		.attribute stack_align, 16
   6              		.text
   7              	.Ltext0:
   8              		.cfi_sections	.debug_frame
   9              		.file 0 "C:\\Users\\Solderingiron\\Documents\\GitHub\\VSC-make-example\\VSC_CH32V203C8T6" "Drivers
  10              		.section	.text.WWDG_DeInit,"ax",@progbits
  11              		.align	1
  12              		.globl	WWDG_DeInit
  14              	WWDG_DeInit:
  15              	.LFB16:
  16              		.file 1 "Drivers/src/ch32v20x_wwdg.c"
   1:Drivers/src/ch32v20x_wwdg.c **** /********************************** (C) COPYRIGHT *******************************
   2:Drivers/src/ch32v20x_wwdg.c ****  * File Name          : ch32v20x_wwdg.c
   3:Drivers/src/ch32v20x_wwdg.c ****  * Author             : WCH
   4:Drivers/src/ch32v20x_wwdg.c ****  * Version            : V1.0.0
   5:Drivers/src/ch32v20x_wwdg.c ****  * Date               : 2021/06/06
   6:Drivers/src/ch32v20x_wwdg.c ****  * Description        : This file provides all the WWDG firmware functions.
   7:Drivers/src/ch32v20x_wwdg.c ****  *********************************************************************************
   8:Drivers/src/ch32v20x_wwdg.c ****  * Copyright (c) 2021 Nanjing Qinheng Microelectronics Co., Ltd.
   9:Drivers/src/ch32v20x_wwdg.c ****  * Attention: This software (modified or not) and binary are used for 
  10:Drivers/src/ch32v20x_wwdg.c ****  * microcontroller manufactured by Nanjing Qinheng Microelectronics.
  11:Drivers/src/ch32v20x_wwdg.c ****  *******************************************************************************/
  12:Drivers/src/ch32v20x_wwdg.c **** #include "ch32v20x_wwdg.h"
  13:Drivers/src/ch32v20x_wwdg.c **** #include "ch32v20x_rcc.h"
  14:Drivers/src/ch32v20x_wwdg.c **** 
  15:Drivers/src/ch32v20x_wwdg.c **** /* CTLR register bit mask */
  16:Drivers/src/ch32v20x_wwdg.c **** #define CTLR_WDGA_Set      ((uint32_t)0x00000080)
  17:Drivers/src/ch32v20x_wwdg.c **** 
  18:Drivers/src/ch32v20x_wwdg.c **** /* CFGR register bit mask */
  19:Drivers/src/ch32v20x_wwdg.c **** #define CFGR_WDGTB_Mask    ((uint32_t)0xFFFFFE7F)
  20:Drivers/src/ch32v20x_wwdg.c **** #define CFGR_W_Mask        ((uint32_t)0xFFFFFF80)
  21:Drivers/src/ch32v20x_wwdg.c **** #define BIT_Mask           ((uint8_t)0x7F)
  22:Drivers/src/ch32v20x_wwdg.c **** 
  23:Drivers/src/ch32v20x_wwdg.c **** /*********************************************************************
  24:Drivers/src/ch32v20x_wwdg.c ****  * @fn      WWDG_DeInit
  25:Drivers/src/ch32v20x_wwdg.c ****  *
  26:Drivers/src/ch32v20x_wwdg.c ****  * @brief   Deinitializes the WWDG peripheral registers to their default reset values
  27:Drivers/src/ch32v20x_wwdg.c ****  *
  28:Drivers/src/ch32v20x_wwdg.c ****  * @return  none
  29:Drivers/src/ch32v20x_wwdg.c ****  */
  30:Drivers/src/ch32v20x_wwdg.c **** void WWDG_DeInit(void)
  31:Drivers/src/ch32v20x_wwdg.c **** {
  17              		.loc 1 31 1
  18              		.cfi_startproc
  19 0000 4111     		addi	sp,sp,-16
  20              		.cfi_def_cfa_offset 16
  21 0002 06C6     		sw	ra,12(sp)
  22 0004 22C4     		sw	s0,8(sp)
  23              		.cfi_offset 1, -4
  24              		.cfi_offset 8, -8
  25 0006 0008     		addi	s0,sp,16
  26              		.cfi_def_cfa 8, 0
  32:Drivers/src/ch32v20x_wwdg.c ****     RCC_APB1PeriphResetCmd(RCC_APB1Periph_WWDG, ENABLE);
GAS LISTING C:\Users\SOLDER~1\AppData\Local\Temp\ccLLkDzL.s 			page 2


  27              		.loc 1 32 5
  28 0008 8545     		li	a1,1
  29 000a 8567     		li	a5,4096
  30 000c 13850780 		addi	a0,a5,-2048
  31 0010 97000000 		call	RCC_APB1PeriphResetCmd
  31      E7800000 
  33:Drivers/src/ch32v20x_wwdg.c ****     RCC_APB1PeriphResetCmd(RCC_APB1Periph_WWDG, DISABLE);
  32              		.loc 1 33 5
  33 0018 8145     		li	a1,0
  34 001a 8567     		li	a5,4096
  35 001c 13850780 		addi	a0,a5,-2048
  36 0020 97000000 		call	RCC_APB1PeriphResetCmd
  36      E7800000 
  34:Drivers/src/ch32v20x_wwdg.c **** }
  37              		.loc 1 34 1
  38 0028 0100     		nop
  39 002a B240     		lw	ra,12(sp)
  40              		.cfi_restore 1
  41 002c 2244     		lw	s0,8(sp)
  42              		.cfi_restore 8
  43              		.cfi_def_cfa 2, 16
  44 002e 4101     		addi	sp,sp,16
  45              		.cfi_def_cfa_offset 0
  46 0030 8280     		jr	ra
  47              		.cfi_endproc
  48              	.LFE16:
  50              		.section	.text.WWDG_SetPrescaler,"ax",@progbits
  51              		.align	1
  52              		.globl	WWDG_SetPrescaler
  54              	WWDG_SetPrescaler:
  55              	.LFB17:
  35:Drivers/src/ch32v20x_wwdg.c **** 
  36:Drivers/src/ch32v20x_wwdg.c **** /*********************************************************************
  37:Drivers/src/ch32v20x_wwdg.c ****  * @fn      WWDG_SetPrescaler
  38:Drivers/src/ch32v20x_wwdg.c ****  *
  39:Drivers/src/ch32v20x_wwdg.c ****  * @brief   Sets the WWDG Prescaler
  40:Drivers/src/ch32v20x_wwdg.c ****  *
  41:Drivers/src/ch32v20x_wwdg.c ****  * @param   WWDG_Prescaler - specifies the WWDG Prescaler
  42:Drivers/src/ch32v20x_wwdg.c ****  *            WWDG_Prescaler_1 - WWDG counter clock = (PCLK1/4096)/1
  43:Drivers/src/ch32v20x_wwdg.c ****  *            WWDG_Prescaler_2 - WWDG counter clock = (PCLK1/4096)/2
  44:Drivers/src/ch32v20x_wwdg.c ****  *            WWDG_Prescaler_4 - WWDG counter clock = (PCLK1/4096)/4
  45:Drivers/src/ch32v20x_wwdg.c ****  *            WWDG_Prescaler_8 - WWDG counter clock = (PCLK1/4096)/8
  46:Drivers/src/ch32v20x_wwdg.c ****  *
  47:Drivers/src/ch32v20x_wwdg.c ****  * @return  none
  48:Drivers/src/ch32v20x_wwdg.c ****  */
  49:Drivers/src/ch32v20x_wwdg.c **** void WWDG_SetPrescaler(uint32_t WWDG_Prescaler)
  50:Drivers/src/ch32v20x_wwdg.c **** {
  56              		.loc 1 50 1
  57              		.cfi_startproc
  58 0000 7971     		addi	sp,sp,-48
  59              		.cfi_def_cfa_offset 48
  60 0002 22D6     		sw	s0,44(sp)
  61              		.cfi_offset 8, -4
  62 0004 0018     		addi	s0,sp,48
  63              		.cfi_def_cfa 8, 0
  64 0006 232EA4FC 		sw	a0,-36(s0)
  51:Drivers/src/ch32v20x_wwdg.c ****     uint32_t tmpreg = 0;
GAS LISTING C:\Users\SOLDER~1\AppData\Local\Temp\ccLLkDzL.s 			page 3


  65              		.loc 1 51 14
  66 000a 232604FE 		sw	zero,-20(s0)
  52:Drivers/src/ch32v20x_wwdg.c ****     tmpreg = WWDG->CFGR & CFGR_WDGTB_Mask;
  67              		.loc 1 52 18
  68 000e B7370040 		li	a5,1073754112
  69 0012 938707C0 		addi	a5,a5,-1024
  70 0016 DC43     		lw	a5,4(a5)
  71              		.loc 1 52 12
  72 0018 93F7F7E7 		andi	a5,a5,-385
  73 001c 2326F4FE 		sw	a5,-20(s0)
  53:Drivers/src/ch32v20x_wwdg.c ****     tmpreg |= WWDG_Prescaler;
  74              		.loc 1 53 12
  75 0020 0327C4FE 		lw	a4,-20(s0)
  76 0024 8327C4FD 		lw	a5,-36(s0)
  77 0028 D98F     		or	a5,a4,a5
  78 002a 2326F4FE 		sw	a5,-20(s0)
  54:Drivers/src/ch32v20x_wwdg.c ****     WWDG->CFGR = tmpreg;
  79              		.loc 1 54 9
  80 002e B7370040 		li	a5,1073754112
  81 0032 938707C0 		addi	a5,a5,-1024
  82              		.loc 1 54 16
  83 0036 0327C4FE 		lw	a4,-20(s0)
  84 003a D8C3     		sw	a4,4(a5)
  55:Drivers/src/ch32v20x_wwdg.c **** }
  85              		.loc 1 55 1
  86 003c 0100     		nop
  87 003e 3254     		lw	s0,44(sp)
  88              		.cfi_restore 8
  89              		.cfi_def_cfa 2, 48
  90 0040 4561     		addi	sp,sp,48
  91              		.cfi_def_cfa_offset 0
  92 0042 8280     		jr	ra
  93              		.cfi_endproc
  94              	.LFE17:
  96              		.section	.text.WWDG_SetWindowValue,"ax",@progbits
  97              		.align	1
  98              		.globl	WWDG_SetWindowValue
 100              	WWDG_SetWindowValue:
 101              	.LFB18:
  56:Drivers/src/ch32v20x_wwdg.c **** 
  57:Drivers/src/ch32v20x_wwdg.c **** /*********************************************************************
  58:Drivers/src/ch32v20x_wwdg.c ****  * @fn      WWDG_SetWindowValue
  59:Drivers/src/ch32v20x_wwdg.c ****  *
  60:Drivers/src/ch32v20x_wwdg.c ****  * @brief   Sets the WWDG window value
  61:Drivers/src/ch32v20x_wwdg.c ****  *
  62:Drivers/src/ch32v20x_wwdg.c ****  * @param   WindowValue - specifies the window value to be compared to the
  63:Drivers/src/ch32v20x_wwdg.c ****  *        downcounter,which must be lower than 0x80
  64:Drivers/src/ch32v20x_wwdg.c ****  *
  65:Drivers/src/ch32v20x_wwdg.c ****  * @return  none
  66:Drivers/src/ch32v20x_wwdg.c ****  */
  67:Drivers/src/ch32v20x_wwdg.c **** void WWDG_SetWindowValue(uint8_t WindowValue)
  68:Drivers/src/ch32v20x_wwdg.c **** {
 102              		.loc 1 68 1
 103              		.cfi_startproc
 104 0000 7971     		addi	sp,sp,-48
 105              		.cfi_def_cfa_offset 48
 106 0002 22D6     		sw	s0,44(sp)
GAS LISTING C:\Users\SOLDER~1\AppData\Local\Temp\ccLLkDzL.s 			page 4


 107              		.cfi_offset 8, -4
 108 0004 0018     		addi	s0,sp,48
 109              		.cfi_def_cfa 8, 0
 110 0006 AA87     		mv	a5,a0
 111 0008 A30FF4FC 		sb	a5,-33(s0)
  69:Drivers/src/ch32v20x_wwdg.c ****     __IO uint32_t tmpreg = 0;
 112              		.loc 1 69 19
 113 000c 232604FE 		sw	zero,-20(s0)
  70:Drivers/src/ch32v20x_wwdg.c **** 
  71:Drivers/src/ch32v20x_wwdg.c ****     tmpreg = WWDG->CFGR & CFGR_W_Mask;
 114              		.loc 1 71 18
 115 0010 B7370040 		li	a5,1073754112
 116 0014 938707C0 		addi	a5,a5,-1024
 117 0018 DC43     		lw	a5,4(a5)
 118              		.loc 1 71 25
 119 001a 93F707F8 		andi	a5,a5,-128
 120              		.loc 1 71 12
 121 001e 2326F4FE 		sw	a5,-20(s0)
  72:Drivers/src/ch32v20x_wwdg.c **** 
  73:Drivers/src/ch32v20x_wwdg.c ****     tmpreg |= WindowValue & (uint32_t)BIT_Mask;
 122              		.loc 1 73 27
 123 0022 8347F4FD 		lbu	a5,-33(s0)
 124 0026 13F7F707 		andi	a4,a5,127
 125              		.loc 1 73 12
 126 002a 8327C4FE 		lw	a5,-20(s0)
 127 002e D98F     		or	a5,a4,a5
 128 0030 2326F4FE 		sw	a5,-20(s0)
  74:Drivers/src/ch32v20x_wwdg.c **** 
  75:Drivers/src/ch32v20x_wwdg.c ****     WWDG->CFGR = tmpreg;
 129              		.loc 1 75 9
 130 0034 B7370040 		li	a5,1073754112
 131 0038 938707C0 		addi	a5,a5,-1024
 132              		.loc 1 75 16
 133 003c 0327C4FE 		lw	a4,-20(s0)
 134 0040 D8C3     		sw	a4,4(a5)
  76:Drivers/src/ch32v20x_wwdg.c **** }
 135              		.loc 1 76 1
 136 0042 0100     		nop
 137 0044 3254     		lw	s0,44(sp)
 138              		.cfi_restore 8
 139              		.cfi_def_cfa 2, 48
 140 0046 4561     		addi	sp,sp,48
 141              		.cfi_def_cfa_offset 0
 142 0048 8280     		jr	ra
 143              		.cfi_endproc
 144              	.LFE18:
 146              		.section	.text.WWDG_EnableIT,"ax",@progbits
 147              		.align	1
 148              		.globl	WWDG_EnableIT
 150              	WWDG_EnableIT:
 151              	.LFB19:
  77:Drivers/src/ch32v20x_wwdg.c **** 
  78:Drivers/src/ch32v20x_wwdg.c **** /*********************************************************************
  79:Drivers/src/ch32v20x_wwdg.c ****  * @fn      WWDG_EnableIT
  80:Drivers/src/ch32v20x_wwdg.c ****  *
  81:Drivers/src/ch32v20x_wwdg.c ****  * @brief   Enables the WWDG Early Wakeup interrupt(EWI)
  82:Drivers/src/ch32v20x_wwdg.c ****  *
GAS LISTING C:\Users\SOLDER~1\AppData\Local\Temp\ccLLkDzL.s 			page 5


  83:Drivers/src/ch32v20x_wwdg.c ****  * @return  none
  84:Drivers/src/ch32v20x_wwdg.c ****  */
  85:Drivers/src/ch32v20x_wwdg.c **** void WWDG_EnableIT(void)
  86:Drivers/src/ch32v20x_wwdg.c **** {
 152              		.loc 1 86 1
 153              		.cfi_startproc
 154 0000 4111     		addi	sp,sp,-16
 155              		.cfi_def_cfa_offset 16
 156 0002 22C6     		sw	s0,12(sp)
 157              		.cfi_offset 8, -4
 158 0004 0008     		addi	s0,sp,16
 159              		.cfi_def_cfa 8, 0
  87:Drivers/src/ch32v20x_wwdg.c ****     WWDG->CFGR |= (1 << 9);
 160              		.loc 1 87 9
 161 0006 B7370040 		li	a5,1073754112
 162 000a 938707C0 		addi	a5,a5,-1024
 163 000e D843     		lw	a4,4(a5)
 164 0010 B7370040 		li	a5,1073754112
 165 0014 938707C0 		addi	a5,a5,-1024
 166              		.loc 1 87 16
 167 0018 13670720 		ori	a4,a4,512
 168 001c D8C3     		sw	a4,4(a5)
  88:Drivers/src/ch32v20x_wwdg.c **** }
 169              		.loc 1 88 1
 170 001e 0100     		nop
 171 0020 3244     		lw	s0,12(sp)
 172              		.cfi_restore 8
 173              		.cfi_def_cfa 2, 16
 174 0022 4101     		addi	sp,sp,16
 175              		.cfi_def_cfa_offset 0
 176 0024 8280     		jr	ra
 177              		.cfi_endproc
 178              	.LFE19:
 180              		.section	.text.WWDG_SetCounter,"ax",@progbits
 181              		.align	1
 182              		.globl	WWDG_SetCounter
 184              	WWDG_SetCounter:
 185              	.LFB20:
  89:Drivers/src/ch32v20x_wwdg.c **** 
  90:Drivers/src/ch32v20x_wwdg.c **** /*********************************************************************
  91:Drivers/src/ch32v20x_wwdg.c ****  * @fn      WWDG_SetCounter
  92:Drivers/src/ch32v20x_wwdg.c ****  *
  93:Drivers/src/ch32v20x_wwdg.c ****  * @brief   Sets the WWDG counter value
  94:Drivers/src/ch32v20x_wwdg.c ****  *
  95:Drivers/src/ch32v20x_wwdg.c ****  * @param   Counter - specifies the watchdog counter value,which must be a
  96:Drivers/src/ch32v20x_wwdg.c ****  *        number between 0x40 and 0x7F
  97:Drivers/src/ch32v20x_wwdg.c ****  *
  98:Drivers/src/ch32v20x_wwdg.c ****  * @return  none
  99:Drivers/src/ch32v20x_wwdg.c ****  */
 100:Drivers/src/ch32v20x_wwdg.c **** void WWDG_SetCounter(uint8_t Counter)
 101:Drivers/src/ch32v20x_wwdg.c **** {
 186              		.loc 1 101 1
 187              		.cfi_startproc
 188 0000 0111     		addi	sp,sp,-32
 189              		.cfi_def_cfa_offset 32
 190 0002 22CE     		sw	s0,28(sp)
 191              		.cfi_offset 8, -4
GAS LISTING C:\Users\SOLDER~1\AppData\Local\Temp\ccLLkDzL.s 			page 6


 192 0004 0010     		addi	s0,sp,32
 193              		.cfi_def_cfa 8, 0
 194 0006 AA87     		mv	a5,a0
 195 0008 A307F4FE 		sb	a5,-17(s0)
 102:Drivers/src/ch32v20x_wwdg.c ****     WWDG->CTLR = Counter & BIT_Mask;
 196              		.loc 1 102 26
 197 000c 0347F4FE 		lbu	a4,-17(s0)
 198              		.loc 1 102 9
 199 0010 B7370040 		li	a5,1073754112
 200 0014 938707C0 		addi	a5,a5,-1024
 201              		.loc 1 102 26
 202 0018 1377F707 		andi	a4,a4,127
 203              		.loc 1 102 16
 204 001c 98C3     		sw	a4,0(a5)
 103:Drivers/src/ch32v20x_wwdg.c **** }
 205              		.loc 1 103 1
 206 001e 0100     		nop
 207 0020 7244     		lw	s0,28(sp)
 208              		.cfi_restore 8
 209              		.cfi_def_cfa 2, 32
 210 0022 0561     		addi	sp,sp,32
 211              		.cfi_def_cfa_offset 0
 212 0024 8280     		jr	ra
 213              		.cfi_endproc
 214              	.LFE20:
 216              		.section	.text.WWDG_Enable,"ax",@progbits
 217              		.align	1
 218              		.globl	WWDG_Enable
 220              	WWDG_Enable:
 221              	.LFB21:
 104:Drivers/src/ch32v20x_wwdg.c **** 
 105:Drivers/src/ch32v20x_wwdg.c **** /*********************************************************************
 106:Drivers/src/ch32v20x_wwdg.c ****  * @fn      WWDG_Enable
 107:Drivers/src/ch32v20x_wwdg.c ****  *
 108:Drivers/src/ch32v20x_wwdg.c ****  * @brief   Enables WWDG and load the counter value
 109:Drivers/src/ch32v20x_wwdg.c ****  *
 110:Drivers/src/ch32v20x_wwdg.c ****  * @param   Counter - specifies the watchdog counter value,which must be a
 111:Drivers/src/ch32v20x_wwdg.c ****  *        number between 0x40 and 0x7F
 112:Drivers/src/ch32v20x_wwdg.c ****  * @return  none
 113:Drivers/src/ch32v20x_wwdg.c ****  */
 114:Drivers/src/ch32v20x_wwdg.c **** void WWDG_Enable(uint8_t Counter)
 115:Drivers/src/ch32v20x_wwdg.c **** {
 222              		.loc 1 115 1
 223              		.cfi_startproc
 224 0000 0111     		addi	sp,sp,-32
 225              		.cfi_def_cfa_offset 32
 226 0002 22CE     		sw	s0,28(sp)
 227              		.cfi_offset 8, -4
 228 0004 0010     		addi	s0,sp,32
 229              		.cfi_def_cfa 8, 0
 230 0006 AA87     		mv	a5,a0
 231 0008 A307F4FE 		sb	a5,-17(s0)
 116:Drivers/src/ch32v20x_wwdg.c ****     WWDG->CTLR = CTLR_WDGA_Set | Counter;
 232              		.loc 1 116 32
 233 000c 8347F4FE 		lbu	a5,-17(s0)
 234 0010 93E707F8 		ori	a5,a5,-128
 235 0014 13F7F70F 		andi	a4,a5,0xff
GAS LISTING C:\Users\SOLDER~1\AppData\Local\Temp\ccLLkDzL.s 			page 7


 236              		.loc 1 116 9
 237 0018 B7370040 		li	a5,1073754112
 238 001c 938707C0 		addi	a5,a5,-1024
 239              		.loc 1 116 16
 240 0020 98C3     		sw	a4,0(a5)
 117:Drivers/src/ch32v20x_wwdg.c **** }
 241              		.loc 1 117 1
 242 0022 0100     		nop
 243 0024 7244     		lw	s0,28(sp)
 244              		.cfi_restore 8
 245              		.cfi_def_cfa 2, 32
 246 0026 0561     		addi	sp,sp,32
 247              		.cfi_def_cfa_offset 0
 248 0028 8280     		jr	ra
 249              		.cfi_endproc
 250              	.LFE21:
 252              		.section	.text.WWDG_GetFlagStatus,"ax",@progbits
 253              		.align	1
 254              		.globl	WWDG_GetFlagStatus
 256              	WWDG_GetFlagStatus:
 257              	.LFB22:
 118:Drivers/src/ch32v20x_wwdg.c **** 
 119:Drivers/src/ch32v20x_wwdg.c **** /*********************************************************************
 120:Drivers/src/ch32v20x_wwdg.c ****  * @fn      WWDG_GetFlagStatus
 121:Drivers/src/ch32v20x_wwdg.c ****  *
 122:Drivers/src/ch32v20x_wwdg.c ****  * @brief   Checks whether the Early Wakeup interrupt flag is set or not
 123:Drivers/src/ch32v20x_wwdg.c ****  *
 124:Drivers/src/ch32v20x_wwdg.c ****  * @return  The new state of the Early Wakeup interrupt flag (SET or RESET)
 125:Drivers/src/ch32v20x_wwdg.c ****  */
 126:Drivers/src/ch32v20x_wwdg.c **** FlagStatus WWDG_GetFlagStatus(void)
 127:Drivers/src/ch32v20x_wwdg.c **** {
 258              		.loc 1 127 1
 259              		.cfi_startproc
 260 0000 4111     		addi	sp,sp,-16
 261              		.cfi_def_cfa_offset 16
 262 0002 22C6     		sw	s0,12(sp)
 263              		.cfi_offset 8, -4
 264 0004 0008     		addi	s0,sp,16
 265              		.cfi_def_cfa 8, 0
 128:Drivers/src/ch32v20x_wwdg.c ****     return (FlagStatus)(WWDG->STATR);
 266              		.loc 1 128 29
 267 0006 B7370040 		li	a5,1073754112
 268 000a 938707C0 		addi	a5,a5,-1024
 269              		.loc 1 128 12
 270 000e 9C47     		lw	a5,8(a5)
 129:Drivers/src/ch32v20x_wwdg.c **** }
 271              		.loc 1 129 1
 272 0010 3E85     		mv	a0,a5
 273 0012 3244     		lw	s0,12(sp)
 274              		.cfi_restore 8
 275              		.cfi_def_cfa 2, 16
 276 0014 4101     		addi	sp,sp,16
 277              		.cfi_def_cfa_offset 0
 278 0016 8280     		jr	ra
 279              		.cfi_endproc
 280              	.LFE22:
 282              		.section	.text.WWDG_ClearFlag,"ax",@progbits
GAS LISTING C:\Users\SOLDER~1\AppData\Local\Temp\ccLLkDzL.s 			page 8


 283              		.align	1
 284              		.globl	WWDG_ClearFlag
 286              	WWDG_ClearFlag:
 287              	.LFB23:
 130:Drivers/src/ch32v20x_wwdg.c **** 
 131:Drivers/src/ch32v20x_wwdg.c **** /*********************************************************************
 132:Drivers/src/ch32v20x_wwdg.c ****  * @fn      WWDG_ClearFlag
 133:Drivers/src/ch32v20x_wwdg.c ****  *
 134:Drivers/src/ch32v20x_wwdg.c ****  * @brief   Clears Early Wakeup interrupt flag
 135:Drivers/src/ch32v20x_wwdg.c ****  *
 136:Drivers/src/ch32v20x_wwdg.c ****  * @return  none
 137:Drivers/src/ch32v20x_wwdg.c ****  */
 138:Drivers/src/ch32v20x_wwdg.c **** void WWDG_ClearFlag(void)
 139:Drivers/src/ch32v20x_wwdg.c **** {
 288              		.loc 1 139 1
 289              		.cfi_startproc
 290 0000 4111     		addi	sp,sp,-16
 291              		.cfi_def_cfa_offset 16
 292 0002 22C6     		sw	s0,12(sp)
 293              		.cfi_offset 8, -4
 294 0004 0008     		addi	s0,sp,16
 295              		.cfi_def_cfa 8, 0
 140:Drivers/src/ch32v20x_wwdg.c ****     WWDG->STATR = (uint32_t)RESET;
 296              		.loc 1 140 9
 297 0006 B7370040 		li	a5,1073754112
 298 000a 938707C0 		addi	a5,a5,-1024
 299              		.loc 1 140 17
 300 000e 23A40700 		sw	zero,8(a5)
 141:Drivers/src/ch32v20x_wwdg.c **** }
 301              		.loc 1 141 1
 302 0012 0100     		nop
 303 0014 3244     		lw	s0,12(sp)
 304              		.cfi_restore 8
 305              		.cfi_def_cfa 2, 16
 306 0016 4101     		addi	sp,sp,16
 307              		.cfi_def_cfa_offset 0
 308 0018 8280     		jr	ra
 309              		.cfi_endproc
 310              	.LFE23:
 312              		.text
 313              	.Letext0:
 314              		.file 2 "c:\\dev_tools\\ch32_tools\\risc-v_embedded_gcc12\\riscv-none-elf\\include\\machine\\_defa
 315              		.file 3 "c:\\dev_tools\\ch32_tools\\risc-v_embedded_gcc12\\riscv-none-elf\\include\\sys\\_stdint.h
 316              		.file 4 "Drivers/inc/core_riscv.h"
 317              		.file 5 "Drivers/inc/ch32v20x.h"
 318              		.file 6 "Drivers/inc/ch32v20x_rcc.h"
GAS LISTING C:\Users\SOLDER~1\AppData\Local\Temp\ccLLkDzL.s 			page 9

