GAS LISTING C:\Users\SOLDER~1\AppData\Local\Temp\ccPZLIWm.s 			page 1


   1              		.file	"ch32v20x_tim.c"
   2              		.option nopic
   3              		.attribute arch, "rv32i2p0_m2p0_a2p0_c2p0_xw"
   4              		.attribute unaligned_access, 0
   5              		.attribute stack_align, 16
   6              		.text
   7              	.Ltext0:
   8              		.cfi_sections	.debug_frame
   9              		.file 0 "C:\\Users\\Solderingiron\\Documents\\GitHub\\VSC-make-example\\VSC_CH32V203C8T6" "Drivers
  10              		.section	.text.TIM_DeInit,"ax",@progbits
  11              		.align	1
  12              		.globl	TIM_DeInit
  14              	TIM_DeInit:
  15              	.LFB16:
  16              		.file 1 "Drivers/src/ch32v20x_tim.c"
   1:Drivers/src/ch32v20x_tim.c **** /********************************** (C) COPYRIGHT *******************************
   2:Drivers/src/ch32v20x_tim.c ****  * File Name          : ch32v20x_tim.c
   3:Drivers/src/ch32v20x_tim.c ****  * Author             : WCH
   4:Drivers/src/ch32v20x_tim.c ****  * Version            : V1.0.0
   5:Drivers/src/ch32v20x_tim.c ****  * Date               : 2021/06/06
   6:Drivers/src/ch32v20x_tim.c ****  * Description        : This file provides all the TIM firmware functions.
   7:Drivers/src/ch32v20x_tim.c **** *********************************************************************************
   8:Drivers/src/ch32v20x_tim.c **** * Copyright (c) 2021 Nanjing Qinheng Microelectronics Co., Ltd.
   9:Drivers/src/ch32v20x_tim.c **** * Attention: This software (modified or not) and binary are used for 
  10:Drivers/src/ch32v20x_tim.c **** * microcontroller manufactured by Nanjing Qinheng Microelectronics.
  11:Drivers/src/ch32v20x_tim.c **** *******************************************************************************/
  12:Drivers/src/ch32v20x_tim.c **** #include "ch32v20x_tim.h"
  13:Drivers/src/ch32v20x_tim.c **** #include "ch32v20x_rcc.h"
  14:Drivers/src/ch32v20x_tim.c **** 
  15:Drivers/src/ch32v20x_tim.c **** /* TIM registers bit mask */
  16:Drivers/src/ch32v20x_tim.c **** #define SMCFGR_ETR_Mask    ((uint16_t)0x00FF)
  17:Drivers/src/ch32v20x_tim.c **** #define CHCTLR_Offset      ((uint16_t)0x0018)
  18:Drivers/src/ch32v20x_tim.c **** #define CCER_CCE_Set       ((uint16_t)0x0001)
  19:Drivers/src/ch32v20x_tim.c **** #define CCER_CCNE_Set      ((uint16_t)0x0004)
  20:Drivers/src/ch32v20x_tim.c **** 
  21:Drivers/src/ch32v20x_tim.c **** static void TI1_Config(TIM_TypeDef *TIMx, uint16_t TIM_ICPolarity, uint16_t TIM_ICSelection,
  22:Drivers/src/ch32v20x_tim.c ****                        uint16_t TIM_ICFilter);
  23:Drivers/src/ch32v20x_tim.c **** static void TI2_Config(TIM_TypeDef *TIMx, uint16_t TIM_ICPolarity, uint16_t TIM_ICSelection,
  24:Drivers/src/ch32v20x_tim.c ****                        uint16_t TIM_ICFilter);
  25:Drivers/src/ch32v20x_tim.c **** static void TI3_Config(TIM_TypeDef *TIMx, uint16_t TIM_ICPolarity, uint16_t TIM_ICSelection,
  26:Drivers/src/ch32v20x_tim.c ****                        uint16_t TIM_ICFilter);
  27:Drivers/src/ch32v20x_tim.c **** static void TI4_Config(TIM_TypeDef *TIMx, uint16_t TIM_ICPolarity, uint16_t TIM_ICSelection,
  28:Drivers/src/ch32v20x_tim.c ****                        uint16_t TIM_ICFilter);
  29:Drivers/src/ch32v20x_tim.c **** 
  30:Drivers/src/ch32v20x_tim.c **** /*********************************************************************
  31:Drivers/src/ch32v20x_tim.c ****  * @fn      TIM_DeInit
  32:Drivers/src/ch32v20x_tim.c ****  *
  33:Drivers/src/ch32v20x_tim.c ****  * @brief   Deinitializes the TIMx peripheral registers to their default
  34:Drivers/src/ch32v20x_tim.c ****  *        reset values.
  35:Drivers/src/ch32v20x_tim.c ****  *
  36:Drivers/src/ch32v20x_tim.c ****  * @param   TIMx - where x can be 1 to 4 to select the TIM peripheral.
  37:Drivers/src/ch32v20x_tim.c ****  *
  38:Drivers/src/ch32v20x_tim.c ****  * @return  none
  39:Drivers/src/ch32v20x_tim.c ****  */
  40:Drivers/src/ch32v20x_tim.c **** void TIM_DeInit(TIM_TypeDef *TIMx)
  41:Drivers/src/ch32v20x_tim.c **** {
  17              		.loc 1 41 1
GAS LISTING C:\Users\SOLDER~1\AppData\Local\Temp\ccPZLIWm.s 			page 2


  18              		.cfi_startproc
  19 0000 0111     		addi	sp,sp,-32
  20              		.cfi_def_cfa_offset 32
  21 0002 06CE     		sw	ra,28(sp)
  22 0004 22CC     		sw	s0,24(sp)
  23              		.cfi_offset 1, -4
  24              		.cfi_offset 8, -8
  25 0006 0010     		addi	s0,sp,32
  26              		.cfi_def_cfa 8, 0
  27 0008 2326A4FE 		sw	a0,-20(s0)
  42:Drivers/src/ch32v20x_tim.c ****     if(TIMx == TIM1)
  28              		.loc 1 42 7
  29 000c 0327C4FE 		lw	a4,-20(s0)
  30 0010 B7370140 		li	a5,1073819648
  31 0014 938707C0 		addi	a5,a5,-1024
  32 0018 6313F702 		bne	a4,a5,.L2
  43:Drivers/src/ch32v20x_tim.c ****     {
  44:Drivers/src/ch32v20x_tim.c ****         RCC_APB2PeriphResetCmd(RCC_APB2Periph_TIM1, ENABLE);
  33              		.loc 1 44 9
  34 001c 8545     		li	a1,1
  35 001e 8567     		li	a5,4096
  36 0020 13850780 		addi	a0,a5,-2048
  37 0024 97000000 		call	RCC_APB2PeriphResetCmd
  37      E7800000 
  45:Drivers/src/ch32v20x_tim.c ****         RCC_APB2PeriphResetCmd(RCC_APB2Periph_TIM1, DISABLE);
  38              		.loc 1 45 9
  39 002c 8145     		li	a1,0
  40 002e 8567     		li	a5,4096
  41 0030 13850780 		addi	a0,a5,-2048
  42 0034 97000000 		call	RCC_APB2PeriphResetCmd
  42      E7800000 
  46:Drivers/src/ch32v20x_tim.c ****     }
  47:Drivers/src/ch32v20x_tim.c ****     else if(TIMx == TIM2)
  48:Drivers/src/ch32v20x_tim.c ****     {
  49:Drivers/src/ch32v20x_tim.c ****         RCC_APB1PeriphResetCmd(RCC_APB1Periph_TIM2, ENABLE);
  50:Drivers/src/ch32v20x_tim.c ****         RCC_APB1PeriphResetCmd(RCC_APB1Periph_TIM2, DISABLE);
  51:Drivers/src/ch32v20x_tim.c ****     }
  52:Drivers/src/ch32v20x_tim.c ****     else if(TIMx == TIM3)
  53:Drivers/src/ch32v20x_tim.c ****     {
  54:Drivers/src/ch32v20x_tim.c ****         RCC_APB1PeriphResetCmd(RCC_APB1Periph_TIM3, ENABLE);
  55:Drivers/src/ch32v20x_tim.c ****         RCC_APB1PeriphResetCmd(RCC_APB1Periph_TIM3, DISABLE);
  56:Drivers/src/ch32v20x_tim.c ****     }
  57:Drivers/src/ch32v20x_tim.c ****     else if(TIMx == TIM4)
  58:Drivers/src/ch32v20x_tim.c ****     {
  59:Drivers/src/ch32v20x_tim.c ****         RCC_APB1PeriphResetCmd(RCC_APB1Periph_TIM4, ENABLE);
  60:Drivers/src/ch32v20x_tim.c ****         RCC_APB1PeriphResetCmd(RCC_APB1Periph_TIM4, DISABLE);
  61:Drivers/src/ch32v20x_tim.c ****     }
  62:Drivers/src/ch32v20x_tim.c ****     else if(TIMx == TIM5)
  63:Drivers/src/ch32v20x_tim.c ****     {
  64:Drivers/src/ch32v20x_tim.c ****         RCC_APB1PeriphResetCmd(RCC_APB1Periph_TIM5, ENABLE);
  65:Drivers/src/ch32v20x_tim.c ****         RCC_APB1PeriphResetCmd(RCC_APB1Periph_TIM5, DISABLE);
  66:Drivers/src/ch32v20x_tim.c ****     }
  67:Drivers/src/ch32v20x_tim.c **** }
  43              		.loc 1 67 1
  44 003c 55A0     		j	.L7
  45              	.L2:
  47:Drivers/src/ch32v20x_tim.c ****     {
GAS LISTING C:\Users\SOLDER~1\AppData\Local\Temp\ccPZLIWm.s 			page 3


  46              		.loc 1 47 12
  47 003e 0327C4FE 		lw	a4,-20(s0)
  48 0042 B7070040 		li	a5,1073741824
  49 0046 631FF700 		bne	a4,a5,.L4
  49:Drivers/src/ch32v20x_tim.c ****         RCC_APB1PeriphResetCmd(RCC_APB1Periph_TIM2, DISABLE);
  50              		.loc 1 49 9
  51 004a 8545     		li	a1,1
  52 004c 0545     		li	a0,1
  53 004e 97000000 		call	RCC_APB1PeriphResetCmd
  53      E7800000 
  50:Drivers/src/ch32v20x_tim.c ****     }
  54              		.loc 1 50 9
  55 0056 8145     		li	a1,0
  56 0058 0545     		li	a0,1
  57 005a 97000000 		call	RCC_APB1PeriphResetCmd
  57      E7800000 
  58              		.loc 1 67 1
  59 0062 BDA8     		j	.L7
  60              	.L4:
  52:Drivers/src/ch32v20x_tim.c ****     {
  61              		.loc 1 52 12
  62 0064 0327C4FE 		lw	a4,-20(s0)
  63 0068 B7070040 		li	a5,1073741824
  64 006c 93870740 		addi	a5,a5,1024
  65 0070 631FF700 		bne	a4,a5,.L5
  54:Drivers/src/ch32v20x_tim.c ****         RCC_APB1PeriphResetCmd(RCC_APB1Periph_TIM3, DISABLE);
  66              		.loc 1 54 9
  67 0074 8545     		li	a1,1
  68 0076 0945     		li	a0,2
  69 0078 97000000 		call	RCC_APB1PeriphResetCmd
  69      E7800000 
  55:Drivers/src/ch32v20x_tim.c ****     }
  70              		.loc 1 55 9
  71 0080 8145     		li	a1,0
  72 0082 0945     		li	a0,2
  73 0084 97000000 		call	RCC_APB1PeriphResetCmd
  73      E7800000 
  74              		.loc 1 67 1
  75 008c 91A8     		j	.L7
  76              	.L5:
  57:Drivers/src/ch32v20x_tim.c ****     {
  77              		.loc 1 57 12
  78 008e 0327C4FE 		lw	a4,-20(s0)
  79 0092 B7170040 		li	a5,1073745920
  80 0096 93870780 		addi	a5,a5,-2048
  81 009a 631FF700 		bne	a4,a5,.L6
  59:Drivers/src/ch32v20x_tim.c ****         RCC_APB1PeriphResetCmd(RCC_APB1Periph_TIM4, DISABLE);
  82              		.loc 1 59 9
  83 009e 8545     		li	a1,1
  84 00a0 1145     		li	a0,4
  85 00a2 97000000 		call	RCC_APB1PeriphResetCmd
  85      E7800000 
  60:Drivers/src/ch32v20x_tim.c ****     }
  86              		.loc 1 60 9
  87 00aa 8145     		li	a1,0
  88 00ac 1145     		li	a0,4
  89 00ae 97000000 		call	RCC_APB1PeriphResetCmd
GAS LISTING C:\Users\SOLDER~1\AppData\Local\Temp\ccPZLIWm.s 			page 4


  89      E7800000 
  90              		.loc 1 67 1
  91 00b6 2DA0     		j	.L7
  92              	.L6:
  62:Drivers/src/ch32v20x_tim.c ****     {
  93              		.loc 1 62 12
  94 00b8 0327C4FE 		lw	a4,-20(s0)
  95 00bc B7170040 		li	a5,1073745920
  96 00c0 938707C0 		addi	a5,a5,-1024
  97 00c4 631EF700 		bne	a4,a5,.L7
  64:Drivers/src/ch32v20x_tim.c ****         RCC_APB1PeriphResetCmd(RCC_APB1Periph_TIM5, DISABLE);
  98              		.loc 1 64 9
  99 00c8 8545     		li	a1,1
 100 00ca 2145     		li	a0,8
 101 00cc 97000000 		call	RCC_APB1PeriphResetCmd
 101      E7800000 
  65:Drivers/src/ch32v20x_tim.c ****     }
 102              		.loc 1 65 9
 103 00d4 8145     		li	a1,0
 104 00d6 2145     		li	a0,8
 105 00d8 97000000 		call	RCC_APB1PeriphResetCmd
 105      E7800000 
 106              	.L7:
 107              		.loc 1 67 1
 108 00e0 0100     		nop
 109 00e2 F240     		lw	ra,28(sp)
 110              		.cfi_restore 1
 111 00e4 6244     		lw	s0,24(sp)
 112              		.cfi_restore 8
 113              		.cfi_def_cfa 2, 32
 114 00e6 0561     		addi	sp,sp,32
 115              		.cfi_def_cfa_offset 0
 116 00e8 8280     		jr	ra
 117              		.cfi_endproc
 118              	.LFE16:
 120              		.section	.text.TIM_TimeBaseInit,"ax",@progbits
 121              		.align	1
 122              		.globl	TIM_TimeBaseInit
 124              	TIM_TimeBaseInit:
 125              	.LFB17:
  68:Drivers/src/ch32v20x_tim.c **** 
  69:Drivers/src/ch32v20x_tim.c **** /*********************************************************************
  70:Drivers/src/ch32v20x_tim.c ****  * @fn      TIM_TimeBaseInit
  71:Drivers/src/ch32v20x_tim.c ****  *
  72:Drivers/src/ch32v20x_tim.c ****  * @brief   Initializes the TIMx Time Base Unit peripheral according to
  73:Drivers/src/ch32v20x_tim.c ****  *        the specified parameters in the TIM_TimeBaseInitStruct.
  74:Drivers/src/ch32v20x_tim.c ****  *
  75:Drivers/src/ch32v20x_tim.c ****  * @param   TIMx - where x can be 1 to 4 to select the TIM peripheral.
  76:Drivers/src/ch32v20x_tim.c ****  *          TIM_TimeBaseInitStruct - pointer to a TIM_TimeBaseInitTypeDef
  77:Drivers/src/ch32v20x_tim.c ****  *        structure.
  78:Drivers/src/ch32v20x_tim.c ****  *
  79:Drivers/src/ch32v20x_tim.c ****  * @return  none
  80:Drivers/src/ch32v20x_tim.c ****  */
  81:Drivers/src/ch32v20x_tim.c **** void TIM_TimeBaseInit(TIM_TypeDef *TIMx, TIM_TimeBaseInitTypeDef *TIM_TimeBaseInitStruct)
  82:Drivers/src/ch32v20x_tim.c **** {
 126              		.loc 1 82 1
 127              		.cfi_startproc
GAS LISTING C:\Users\SOLDER~1\AppData\Local\Temp\ccPZLIWm.s 			page 5


 128 0000 7971     		addi	sp,sp,-48
 129              		.cfi_def_cfa_offset 48
 130 0002 22D6     		sw	s0,44(sp)
 131              		.cfi_offset 8, -4
 132 0004 0018     		addi	s0,sp,48
 133              		.cfi_def_cfa 8, 0
 134 0006 232EA4FC 		sw	a0,-36(s0)
 135 000a 232CB4FC 		sw	a1,-40(s0)
  83:Drivers/src/ch32v20x_tim.c ****     uint16_t tmpcr1 = 0;
 136              		.loc 1 83 14
 137 000e 231704FE 		sh	zero,-18(s0)
  84:Drivers/src/ch32v20x_tim.c **** 
  85:Drivers/src/ch32v20x_tim.c ****     tmpcr1 = TIMx->CTLR1;
 138              		.loc 1 85 12
 139 0012 8327C4FD 		lw	a5,-36(s0)
 140 0016 9E23     		lhu	a5,0(a5)
 141 0018 2317F4FE 		sh	a5,-18(s0)
  86:Drivers/src/ch32v20x_tim.c **** 
  87:Drivers/src/ch32v20x_tim.c ****     if((TIMx == TIM1) || (TIMx == TIM2) || (TIMx == TIM3) || (TIMx == TIM4) || (TIMx == TIM5))
 142              		.loc 1 87 7
 143 001c 0327C4FD 		lw	a4,-36(s0)
 144 0020 B7370140 		li	a5,1073819648
 145 0024 938707C0 		addi	a5,a5,-1024
 146 0028 6300F704 		beq	a4,a5,.L9
 147              		.loc 1 87 23 discriminator 1
 148 002c 0327C4FD 		lw	a4,-36(s0)
 149 0030 B7070040 		li	a5,1073741824
 150 0034 630AF702 		beq	a4,a5,.L9
 151              		.loc 1 87 41 discriminator 2
 152 0038 0327C4FD 		lw	a4,-36(s0)
 153 003c B7070040 		li	a5,1073741824
 154 0040 93870740 		addi	a5,a5,1024
 155 0044 6302F702 		beq	a4,a5,.L9
 156              		.loc 1 87 59 discriminator 3
 157 0048 0327C4FD 		lw	a4,-36(s0)
 158 004c B7170040 		li	a5,1073745920
 159 0050 93870780 		addi	a5,a5,-2048
 160 0054 630AF700 		beq	a4,a5,.L9
 161              		.loc 1 87 77 discriminator 4
 162 0058 0327C4FD 		lw	a4,-36(s0)
 163 005c B7170040 		li	a5,1073745920
 164 0060 938707C0 		addi	a5,a5,-1024
 165 0064 6310F702 		bne	a4,a5,.L10
 166              	.L9:
  88:Drivers/src/ch32v20x_tim.c ****     {
  89:Drivers/src/ch32v20x_tim.c ****         tmpcr1 &= (uint16_t)(~((uint16_t)(TIM_DIR | TIM_CMS)));
 167              		.loc 1 89 16
 168 0068 8357E4FE 		lhu	a5,-18(s0)
 169 006c 93F7F7F8 		andi	a5,a5,-113
 170 0070 2317F4FE 		sh	a5,-18(s0)
  90:Drivers/src/ch32v20x_tim.c ****         tmpcr1 |= (uint32_t)TIM_TimeBaseInitStruct->TIM_CounterMode;
 171              		.loc 1 90 51
 172 0074 832784FD 		lw	a5,-40(s0)
 173 0078 BE23     		lhu	a5,2(a5)
 174              		.loc 1 90 16
 175 007a 0357E4FE 		lhu	a4,-18(s0)
 176 007e D98F     		or	a5,a5,a4
GAS LISTING C:\Users\SOLDER~1\AppData\Local\Temp\ccPZLIWm.s 			page 6


 177 0080 2317F4FE 		sh	a5,-18(s0)
 178              	.L10:
  91:Drivers/src/ch32v20x_tim.c ****     }
  92:Drivers/src/ch32v20x_tim.c **** 
  93:Drivers/src/ch32v20x_tim.c ****     tmpcr1 &= (uint16_t)(~((uint16_t)TIM_CTLR1_CKD));
 179              		.loc 1 93 12
 180 0084 8357E4FE 		lhu	a5,-18(s0)
 181 0088 93F7F7CF 		andi	a5,a5,-769
 182 008c 2317F4FE 		sh	a5,-18(s0)
  94:Drivers/src/ch32v20x_tim.c ****     tmpcr1 |= (uint32_t)TIM_TimeBaseInitStruct->TIM_ClockDivision;
 183              		.loc 1 94 47
 184 0090 832784FD 		lw	a5,-40(s0)
 185 0094 FE23     		lhu	a5,6(a5)
 186              		.loc 1 94 12
 187 0096 0357E4FE 		lhu	a4,-18(s0)
 188 009a D98F     		or	a5,a5,a4
 189 009c 2317F4FE 		sh	a5,-18(s0)
  95:Drivers/src/ch32v20x_tim.c **** 
  96:Drivers/src/ch32v20x_tim.c ****     TIMx->CTLR1 = tmpcr1;
 190              		.loc 1 96 17
 191 00a0 8327C4FD 		lw	a5,-36(s0)
 192 00a4 0357E4FE 		lhu	a4,-18(s0)
 193 00a8 9AA3     		sh	a4,0(a5)
  97:Drivers/src/ch32v20x_tim.c ****     TIMx->ATRLR = TIM_TimeBaseInitStruct->TIM_Period;
 194              		.loc 1 97 41
 195 00aa 832784FD 		lw	a5,-40(s0)
 196 00ae DA23     		lhu	a4,4(a5)
 197              		.loc 1 97 17
 198 00b0 8327C4FD 		lw	a5,-36(s0)
 199 00b4 DAB7     		sh	a4,44(a5)
  98:Drivers/src/ch32v20x_tim.c ****     TIMx->PSC = TIM_TimeBaseInitStruct->TIM_Prescaler;
 200              		.loc 1 98 39
 201 00b6 832784FD 		lw	a5,-40(s0)
 202 00ba 9A23     		lhu	a4,0(a5)
 203              		.loc 1 98 15
 204 00bc 8327C4FD 		lw	a5,-36(s0)
 205 00c0 9AB7     		sh	a4,40(a5)
  99:Drivers/src/ch32v20x_tim.c **** 
 100:Drivers/src/ch32v20x_tim.c ****     if((TIMx == TIM1))
 206              		.loc 1 100 7
 207 00c2 0327C4FD 		lw	a4,-36(s0)
 208 00c6 B7370140 		li	a5,1073819648
 209 00ca 938707C0 		addi	a5,a5,-1024
 210 00ce 6319F700 		bne	a4,a5,.L11
 101:Drivers/src/ch32v20x_tim.c ****     {
 102:Drivers/src/ch32v20x_tim.c ****         TIMx->RPTCR = TIM_TimeBaseInitStruct->TIM_RepetitionCounter;
 211              		.loc 1 102 45
 212 00d2 832784FD 		lw	a5,-40(s0)
 213 00d6 9C27     		lbu	a5,8(a5)
 214 00d8 3E87     		mv	a4,a5
 215              		.loc 1 102 21
 216 00da 8327C4FD 		lw	a5,-36(s0)
 217 00de 9ABB     		sh	a4,48(a5)
 218              	.L11:
 103:Drivers/src/ch32v20x_tim.c ****     }
 104:Drivers/src/ch32v20x_tim.c **** 
 105:Drivers/src/ch32v20x_tim.c ****     TIMx->SWEVGR = TIM_PSCReloadMode_Immediate;
GAS LISTING C:\Users\SOLDER~1\AppData\Local\Temp\ccPZLIWm.s 			page 7


 219              		.loc 1 105 18
 220 00e0 8327C4FD 		lw	a5,-36(s0)
 221 00e4 0547     		li	a4,1
 222 00e6 DAAB     		sh	a4,20(a5)
 106:Drivers/src/ch32v20x_tim.c **** }
 223              		.loc 1 106 1
 224 00e8 0100     		nop
 225 00ea 3254     		lw	s0,44(sp)
 226              		.cfi_restore 8
 227              		.cfi_def_cfa 2, 48
 228 00ec 4561     		addi	sp,sp,48
 229              		.cfi_def_cfa_offset 0
 230 00ee 8280     		jr	ra
 231              		.cfi_endproc
 232              	.LFE17:
 234              		.section	.text.TIM_OC1Init,"ax",@progbits
 235              		.align	1
 236              		.globl	TIM_OC1Init
 238              	TIM_OC1Init:
 239              	.LFB18:
 107:Drivers/src/ch32v20x_tim.c **** 
 108:Drivers/src/ch32v20x_tim.c **** /*********************************************************************
 109:Drivers/src/ch32v20x_tim.c ****  * @fn      TIM_OC1Init
 110:Drivers/src/ch32v20x_tim.c ****  *
 111:Drivers/src/ch32v20x_tim.c ****  * @brief   Initializes the TIMx Channel1 according to the specified
 112:Drivers/src/ch32v20x_tim.c ****  *        parameters in the TIM_OCInitStruct.
 113:Drivers/src/ch32v20x_tim.c ****  *
 114:Drivers/src/ch32v20x_tim.c ****  * @param   TIMx - where x can be 1 to 4 to select the TIM peripheral.
 115:Drivers/src/ch32v20x_tim.c ****  *          TIM_OCInitStruct - pointer to a TIM_OCInitTypeDef structure.
 116:Drivers/src/ch32v20x_tim.c ****  *
 117:Drivers/src/ch32v20x_tim.c ****  * @return  none
 118:Drivers/src/ch32v20x_tim.c ****  */
 119:Drivers/src/ch32v20x_tim.c **** void TIM_OC1Init(TIM_TypeDef *TIMx, TIM_OCInitTypeDef *TIM_OCInitStruct)
 120:Drivers/src/ch32v20x_tim.c **** {
 240              		.loc 1 120 1
 241              		.cfi_startproc
 242 0000 7971     		addi	sp,sp,-48
 243              		.cfi_def_cfa_offset 48
 244 0002 22D6     		sw	s0,44(sp)
 245              		.cfi_offset 8, -4
 246 0004 0018     		addi	s0,sp,48
 247              		.cfi_def_cfa 8, 0
 248 0006 232EA4FC 		sw	a0,-36(s0)
 249 000a 232CB4FC 		sw	a1,-40(s0)
 121:Drivers/src/ch32v20x_tim.c ****     uint16_t tmpccmrx = 0, tmpccer = 0, tmpcr2 = 0;
 250              		.loc 1 121 14
 251 000e 231504FE 		sh	zero,-22(s0)
 252              		.loc 1 121 28
 253 0012 231704FE 		sh	zero,-18(s0)
 254              		.loc 1 121 41
 255 0016 231604FE 		sh	zero,-20(s0)
 122:Drivers/src/ch32v20x_tim.c **** 
 123:Drivers/src/ch32v20x_tim.c ****     TIMx->CCER &= (uint16_t)(~(uint16_t)TIM_CC1E);
 256              		.loc 1 123 9
 257 001a 8327C4FD 		lw	a5,-36(s0)
 258 001e 9E33     		lhu	a5,32(a5)
 259 0020 C207     		slli	a5,a5,16
GAS LISTING C:\Users\SOLDER~1\AppData\Local\Temp\ccPZLIWm.s 			page 8


 260 0022 C183     		srli	a5,a5,16
 261              		.loc 1 123 16
 262 0024 F99B     		andi	a5,a5,-2
 263 0026 13970701 		slli	a4,a5,16
 264 002a 4183     		srli	a4,a4,16
 265 002c 8327C4FD 		lw	a5,-36(s0)
 266 0030 9AB3     		sh	a4,32(a5)
 124:Drivers/src/ch32v20x_tim.c ****     tmpccer = TIMx->CCER;
 267              		.loc 1 124 13
 268 0032 8327C4FD 		lw	a5,-36(s0)
 269 0036 9E33     		lhu	a5,32(a5)
 270 0038 2317F4FE 		sh	a5,-18(s0)
 125:Drivers/src/ch32v20x_tim.c ****     tmpcr2 = TIMx->CTLR2;
 271              		.loc 1 125 12
 272 003c 8327C4FD 		lw	a5,-36(s0)
 273 0040 DE23     		lhu	a5,4(a5)
 274 0042 2316F4FE 		sh	a5,-20(s0)
 126:Drivers/src/ch32v20x_tim.c ****     tmpccmrx = TIMx->CHCTLR1;
 275              		.loc 1 126 14
 276 0046 8327C4FD 		lw	a5,-36(s0)
 277 004a 9E2F     		lhu	a5,24(a5)
 278 004c 2315F4FE 		sh	a5,-22(s0)
 127:Drivers/src/ch32v20x_tim.c ****     tmpccmrx &= (uint16_t)(~((uint16_t)TIM_OC1M));
 279              		.loc 1 127 14
 280 0050 8357A4FE 		lhu	a5,-22(s0)
 281 0054 93F7F7F8 		andi	a5,a5,-113
 282 0058 2315F4FE 		sh	a5,-22(s0)
 128:Drivers/src/ch32v20x_tim.c ****     tmpccmrx &= (uint16_t)(~((uint16_t)TIM_CC1S));
 283              		.loc 1 128 14
 284 005c 8357A4FE 		lhu	a5,-22(s0)
 285 0060 F19B     		andi	a5,a5,-4
 286 0062 2315F4FE 		sh	a5,-22(s0)
 129:Drivers/src/ch32v20x_tim.c ****     tmpccmrx |= TIM_OCInitStruct->TIM_OCMode;
 287              		.loc 1 129 33
 288 0066 832784FD 		lw	a5,-40(s0)
 289 006a 9E23     		lhu	a5,0(a5)
 290              		.loc 1 129 14
 291 006c 0357A4FE 		lhu	a4,-22(s0)
 292 0070 D98F     		or	a5,a5,a4
 293 0072 2315F4FE 		sh	a5,-22(s0)
 130:Drivers/src/ch32v20x_tim.c ****     tmpccer &= (uint16_t)(~((uint16_t)TIM_CC1P));
 294              		.loc 1 130 13
 295 0076 8357E4FE 		lhu	a5,-18(s0)
 296 007a F59B     		andi	a5,a5,-3
 297 007c 2317F4FE 		sh	a5,-18(s0)
 131:Drivers/src/ch32v20x_tim.c ****     tmpccer |= TIM_OCInitStruct->TIM_OCPolarity;
 298              		.loc 1 131 32
 299 0080 832784FD 		lw	a5,-40(s0)
 300 0084 9E27     		lhu	a5,8(a5)
 301              		.loc 1 131 13
 302 0086 0357E4FE 		lhu	a4,-18(s0)
 303 008a D98F     		or	a5,a5,a4
 304 008c 2317F4FE 		sh	a5,-18(s0)
 132:Drivers/src/ch32v20x_tim.c ****     tmpccer |= TIM_OCInitStruct->TIM_OutputState;
 305              		.loc 1 132 32
 306 0090 832784FD 		lw	a5,-40(s0)
 307 0094 BE23     		lhu	a5,2(a5)
GAS LISTING C:\Users\SOLDER~1\AppData\Local\Temp\ccPZLIWm.s 			page 9


 308              		.loc 1 132 13
 309 0096 0357E4FE 		lhu	a4,-18(s0)
 310 009a D98F     		or	a5,a5,a4
 311 009c 2317F4FE 		sh	a5,-18(s0)
 133:Drivers/src/ch32v20x_tim.c **** 
 134:Drivers/src/ch32v20x_tim.c ****     if((TIMx == TIM1))
 312              		.loc 1 134 7
 313 00a0 0327C4FD 		lw	a4,-36(s0)
 314 00a4 B7370140 		li	a5,1073819648
 315 00a8 938707C0 		addi	a5,a5,-1024
 316 00ac 6318F706 		bne	a4,a5,.L13
 135:Drivers/src/ch32v20x_tim.c ****     {
 136:Drivers/src/ch32v20x_tim.c ****         tmpccer &= (uint16_t)(~((uint16_t)TIM_CC1NP));
 317              		.loc 1 136 17
 318 00b0 8357E4FE 		lhu	a5,-18(s0)
 319 00b4 DD9B     		andi	a5,a5,-9
 320 00b6 2317F4FE 		sh	a5,-18(s0)
 137:Drivers/src/ch32v20x_tim.c ****         tmpccer |= TIM_OCInitStruct->TIM_OCNPolarity;
 321              		.loc 1 137 36
 322 00ba 832784FD 		lw	a5,-40(s0)
 323 00be BE27     		lhu	a5,10(a5)
 324              		.loc 1 137 17
 325 00c0 0357E4FE 		lhu	a4,-18(s0)
 326 00c4 D98F     		or	a5,a5,a4
 327 00c6 2317F4FE 		sh	a5,-18(s0)
 138:Drivers/src/ch32v20x_tim.c **** 
 139:Drivers/src/ch32v20x_tim.c ****         tmpccer &= (uint16_t)(~((uint16_t)TIM_CC1NE));
 328              		.loc 1 139 17
 329 00ca 8357E4FE 		lhu	a5,-18(s0)
 330 00ce ED9B     		andi	a5,a5,-5
 331 00d0 2317F4FE 		sh	a5,-18(s0)
 140:Drivers/src/ch32v20x_tim.c ****         tmpccer |= TIM_OCInitStruct->TIM_OutputNState;
 332              		.loc 1 140 36
 333 00d4 832784FD 		lw	a5,-40(s0)
 334 00d8 DE23     		lhu	a5,4(a5)
 335              		.loc 1 140 17
 336 00da 0357E4FE 		lhu	a4,-18(s0)
 337 00de D98F     		or	a5,a5,a4
 338 00e0 2317F4FE 		sh	a5,-18(s0)
 141:Drivers/src/ch32v20x_tim.c **** 
 142:Drivers/src/ch32v20x_tim.c ****         tmpcr2 &= (uint16_t)(~((uint16_t)TIM_OIS1));
 339              		.loc 1 142 16
 340 00e4 8357C4FE 		lhu	a5,-20(s0)
 341 00e8 93F7F7EF 		andi	a5,a5,-257
 342 00ec 2316F4FE 		sh	a5,-20(s0)
 143:Drivers/src/ch32v20x_tim.c ****         tmpcr2 &= (uint16_t)(~((uint16_t)TIM_OIS1N));
 343              		.loc 1 143 16
 344 00f0 8357C4FE 		lhu	a5,-20(s0)
 345 00f4 93F7F7DF 		andi	a5,a5,-513
 346 00f8 2316F4FE 		sh	a5,-20(s0)
 144:Drivers/src/ch32v20x_tim.c **** 
 145:Drivers/src/ch32v20x_tim.c ****         tmpcr2 |= TIM_OCInitStruct->TIM_OCIdleState;
 347              		.loc 1 145 35
 348 00fc 832784FD 		lw	a5,-40(s0)
 349 0100 DE27     		lhu	a5,12(a5)
 350              		.loc 1 145 16
 351 0102 0357C4FE 		lhu	a4,-20(s0)
GAS LISTING C:\Users\SOLDER~1\AppData\Local\Temp\ccPZLIWm.s 			page 10


 352 0106 D98F     		or	a5,a5,a4
 353 0108 2316F4FE 		sh	a5,-20(s0)
 146:Drivers/src/ch32v20x_tim.c ****         tmpcr2 |= TIM_OCInitStruct->TIM_OCNIdleState;
 354              		.loc 1 146 35
 355 010c 832784FD 		lw	a5,-40(s0)
 356 0110 FE27     		lhu	a5,14(a5)
 357              		.loc 1 146 16
 358 0112 0357C4FE 		lhu	a4,-20(s0)
 359 0116 D98F     		or	a5,a5,a4
 360 0118 2316F4FE 		sh	a5,-20(s0)
 361              	.L13:
 147:Drivers/src/ch32v20x_tim.c ****     }
 148:Drivers/src/ch32v20x_tim.c **** 
 149:Drivers/src/ch32v20x_tim.c ****     TIMx->CTLR2 = tmpcr2;
 362              		.loc 1 149 17
 363 011c 8327C4FD 		lw	a5,-36(s0)
 364 0120 0357C4FE 		lhu	a4,-20(s0)
 365 0124 DAA3     		sh	a4,4(a5)
 150:Drivers/src/ch32v20x_tim.c ****     TIMx->CHCTLR1 = tmpccmrx;
 366              		.loc 1 150 19
 367 0126 8327C4FD 		lw	a5,-36(s0)
 368 012a 0357A4FE 		lhu	a4,-22(s0)
 369 012e 9AAF     		sh	a4,24(a5)
 151:Drivers/src/ch32v20x_tim.c ****     TIMx->CH1CVR = TIM_OCInitStruct->TIM_Pulse;
 370              		.loc 1 151 36
 371 0130 832784FD 		lw	a5,-40(s0)
 372 0134 FA23     		lhu	a4,6(a5)
 373              		.loc 1 151 18
 374 0136 8327C4FD 		lw	a5,-36(s0)
 375 013a DABB     		sh	a4,52(a5)
 152:Drivers/src/ch32v20x_tim.c ****     TIMx->CCER = tmpccer;
 376              		.loc 1 152 16
 377 013c 8327C4FD 		lw	a5,-36(s0)
 378 0140 0357E4FE 		lhu	a4,-18(s0)
 379 0144 9AB3     		sh	a4,32(a5)
 153:Drivers/src/ch32v20x_tim.c **** }
 380              		.loc 1 153 1
 381 0146 0100     		nop
 382 0148 3254     		lw	s0,44(sp)
 383              		.cfi_restore 8
 384              		.cfi_def_cfa 2, 48
 385 014a 4561     		addi	sp,sp,48
 386              		.cfi_def_cfa_offset 0
 387 014c 8280     		jr	ra
 388              		.cfi_endproc
 389              	.LFE18:
 391              		.section	.text.TIM_OC2Init,"ax",@progbits
 392              		.align	1
 393              		.globl	TIM_OC2Init
 395              	TIM_OC2Init:
 396              	.LFB19:
 154:Drivers/src/ch32v20x_tim.c **** 
 155:Drivers/src/ch32v20x_tim.c **** /*********************************************************************
 156:Drivers/src/ch32v20x_tim.c ****  * @fn      TIM_OC2Init
 157:Drivers/src/ch32v20x_tim.c ****  *
 158:Drivers/src/ch32v20x_tim.c ****  * @brief   Initializes the TIMx Channel2 according to the specified
 159:Drivers/src/ch32v20x_tim.c ****  *        parameters in the TIM_OCInitStruct.
GAS LISTING C:\Users\SOLDER~1\AppData\Local\Temp\ccPZLIWm.s 			page 11


 160:Drivers/src/ch32v20x_tim.c ****  *
 161:Drivers/src/ch32v20x_tim.c ****  * @param   TIMx - where x can be 1 to 4 to select the TIM peripheral.
 162:Drivers/src/ch32v20x_tim.c ****  *          TIM_OCInitStruct - pointer to a TIM_OCInitTypeDef structure.
 163:Drivers/src/ch32v20x_tim.c ****  *
 164:Drivers/src/ch32v20x_tim.c ****  * @return  none
 165:Drivers/src/ch32v20x_tim.c ****  */
 166:Drivers/src/ch32v20x_tim.c **** void TIM_OC2Init(TIM_TypeDef *TIMx, TIM_OCInitTypeDef *TIM_OCInitStruct)
 167:Drivers/src/ch32v20x_tim.c **** {
 397              		.loc 1 167 1
 398              		.cfi_startproc
 399 0000 7971     		addi	sp,sp,-48
 400              		.cfi_def_cfa_offset 48
 401 0002 22D6     		sw	s0,44(sp)
 402              		.cfi_offset 8, -4
 403 0004 0018     		addi	s0,sp,48
 404              		.cfi_def_cfa 8, 0
 405 0006 232EA4FC 		sw	a0,-36(s0)
 406 000a 232CB4FC 		sw	a1,-40(s0)
 168:Drivers/src/ch32v20x_tim.c ****     uint16_t tmpccmrx = 0, tmpccer = 0, tmpcr2 = 0;
 407              		.loc 1 168 14
 408 000e 231504FE 		sh	zero,-22(s0)
 409              		.loc 1 168 28
 410 0012 231704FE 		sh	zero,-18(s0)
 411              		.loc 1 168 41
 412 0016 231604FE 		sh	zero,-20(s0)
 169:Drivers/src/ch32v20x_tim.c **** 
 170:Drivers/src/ch32v20x_tim.c ****     TIMx->CCER &= (uint16_t)(~((uint16_t)TIM_CC2E));
 413              		.loc 1 170 9
 414 001a 8327C4FD 		lw	a5,-36(s0)
 415 001e 9E33     		lhu	a5,32(a5)
 416 0020 C207     		slli	a5,a5,16
 417 0022 C183     		srli	a5,a5,16
 418              		.loc 1 170 16
 419 0024 BD9B     		andi	a5,a5,-17
 420 0026 13970701 		slli	a4,a5,16
 421 002a 4183     		srli	a4,a4,16
 422 002c 8327C4FD 		lw	a5,-36(s0)
 423 0030 9AB3     		sh	a4,32(a5)
 171:Drivers/src/ch32v20x_tim.c ****     tmpccer = TIMx->CCER;
 424              		.loc 1 171 13
 425 0032 8327C4FD 		lw	a5,-36(s0)
 426 0036 9E33     		lhu	a5,32(a5)
 427 0038 2317F4FE 		sh	a5,-18(s0)
 172:Drivers/src/ch32v20x_tim.c ****     tmpcr2 = TIMx->CTLR2;
 428              		.loc 1 172 12
 429 003c 8327C4FD 		lw	a5,-36(s0)
 430 0040 DE23     		lhu	a5,4(a5)
 431 0042 2316F4FE 		sh	a5,-20(s0)
 173:Drivers/src/ch32v20x_tim.c ****     tmpccmrx = TIMx->CHCTLR1;
 432              		.loc 1 173 14
 433 0046 8327C4FD 		lw	a5,-36(s0)
 434 004a 9E2F     		lhu	a5,24(a5)
 435 004c 2315F4FE 		sh	a5,-22(s0)
 174:Drivers/src/ch32v20x_tim.c ****     tmpccmrx &= (uint16_t)(~((uint16_t)TIM_OC2M));
 436              		.loc 1 174 14
 437 0050 8357A4FE 		lhu	a5,-22(s0)
 438 0054 3E87     		mv	a4,a5
GAS LISTING C:\Users\SOLDER~1\AppData\Local\Temp\ccPZLIWm.s 			page 12


 439 0056 E577     		li	a5,-28672
 440 0058 FD17     		addi	a5,a5,-1
 441 005a F98F     		and	a5,a4,a5
 442 005c 2315F4FE 		sh	a5,-22(s0)
 175:Drivers/src/ch32v20x_tim.c ****     tmpccmrx &= (uint16_t)(~((uint16_t)TIM_CC2S));
 443              		.loc 1 175 14
 444 0060 8357A4FE 		lhu	a5,-22(s0)
 445 0064 93F7F7CF 		andi	a5,a5,-769
 446 0068 2315F4FE 		sh	a5,-22(s0)
 176:Drivers/src/ch32v20x_tim.c ****     tmpccmrx |= (uint16_t)(TIM_OCInitStruct->TIM_OCMode << 8);
 447              		.loc 1 176 44
 448 006c 832784FD 		lw	a5,-40(s0)
 449 0070 9E23     		lhu	a5,0(a5)
 450              		.loc 1 176 17
 451 0072 A207     		slli	a5,a5,8
 452 0074 C207     		slli	a5,a5,16
 453 0076 C183     		srli	a5,a5,16
 454              		.loc 1 176 14
 455 0078 0357A4FE 		lhu	a4,-22(s0)
 456 007c D98F     		or	a5,a5,a4
 457 007e 2315F4FE 		sh	a5,-22(s0)
 177:Drivers/src/ch32v20x_tim.c ****     tmpccer &= (uint16_t)(~((uint16_t)TIM_CC2P));
 458              		.loc 1 177 13
 459 0082 8357E4FE 		lhu	a5,-18(s0)
 460 0086 93F7F7FD 		andi	a5,a5,-33
 461 008a 2317F4FE 		sh	a5,-18(s0)
 178:Drivers/src/ch32v20x_tim.c ****     tmpccer |= (uint16_t)(TIM_OCInitStruct->TIM_OCPolarity << 4);
 462              		.loc 1 178 43
 463 008e 832784FD 		lw	a5,-40(s0)
 464 0092 9E27     		lhu	a5,8(a5)
 465              		.loc 1 178 16
 466 0094 9207     		slli	a5,a5,4
 467 0096 C207     		slli	a5,a5,16
 468 0098 C183     		srli	a5,a5,16
 469              		.loc 1 178 13
 470 009a 0357E4FE 		lhu	a4,-18(s0)
 471 009e D98F     		or	a5,a5,a4
 472 00a0 2317F4FE 		sh	a5,-18(s0)
 179:Drivers/src/ch32v20x_tim.c ****     tmpccer |= (uint16_t)(TIM_OCInitStruct->TIM_OutputState << 4);
 473              		.loc 1 179 43
 474 00a4 832784FD 		lw	a5,-40(s0)
 475 00a8 BE23     		lhu	a5,2(a5)
 476              		.loc 1 179 16
 477 00aa 9207     		slli	a5,a5,4
 478 00ac C207     		slli	a5,a5,16
 479 00ae C183     		srli	a5,a5,16
 480              		.loc 1 179 13
 481 00b0 0357E4FE 		lhu	a4,-18(s0)
 482 00b4 D98F     		or	a5,a5,a4
 483 00b6 2317F4FE 		sh	a5,-18(s0)
 180:Drivers/src/ch32v20x_tim.c **** 
 181:Drivers/src/ch32v20x_tim.c ****     if((TIMx == TIM1))
 484              		.loc 1 181 7
 485 00ba 0327C4FD 		lw	a4,-36(s0)
 486 00be B7370140 		li	a5,1073819648
 487 00c2 938707C0 		addi	a5,a5,-1024
 488 00c6 6319F708 		bne	a4,a5,.L15
GAS LISTING C:\Users\SOLDER~1\AppData\Local\Temp\ccPZLIWm.s 			page 13


 182:Drivers/src/ch32v20x_tim.c ****     {
 183:Drivers/src/ch32v20x_tim.c ****         tmpccer &= (uint16_t)(~((uint16_t)TIM_CC2NP));
 489              		.loc 1 183 17
 490 00ca 8357E4FE 		lhu	a5,-18(s0)
 491 00ce 93F7F7F7 		andi	a5,a5,-129
 492 00d2 2317F4FE 		sh	a5,-18(s0)
 184:Drivers/src/ch32v20x_tim.c ****         tmpccer |= (uint16_t)(TIM_OCInitStruct->TIM_OCNPolarity << 4);
 493              		.loc 1 184 47
 494 00d6 832784FD 		lw	a5,-40(s0)
 495 00da BE27     		lhu	a5,10(a5)
 496              		.loc 1 184 20
 497 00dc 9207     		slli	a5,a5,4
 498 00de C207     		slli	a5,a5,16
 499 00e0 C183     		srli	a5,a5,16
 500              		.loc 1 184 17
 501 00e2 0357E4FE 		lhu	a4,-18(s0)
 502 00e6 D98F     		or	a5,a5,a4
 503 00e8 2317F4FE 		sh	a5,-18(s0)
 185:Drivers/src/ch32v20x_tim.c ****         tmpccer &= (uint16_t)(~((uint16_t)TIM_CC2NE));
 504              		.loc 1 185 17
 505 00ec 8357E4FE 		lhu	a5,-18(s0)
 506 00f0 93F7F7FB 		andi	a5,a5,-65
 507 00f4 2317F4FE 		sh	a5,-18(s0)
 186:Drivers/src/ch32v20x_tim.c ****         tmpccer |= (uint16_t)(TIM_OCInitStruct->TIM_OutputNState << 4);
 508              		.loc 1 186 47
 509 00f8 832784FD 		lw	a5,-40(s0)
 510 00fc DE23     		lhu	a5,4(a5)
 511              		.loc 1 186 20
 512 00fe 9207     		slli	a5,a5,4
 513 0100 C207     		slli	a5,a5,16
 514 0102 C183     		srli	a5,a5,16
 515              		.loc 1 186 17
 516 0104 0357E4FE 		lhu	a4,-18(s0)
 517 0108 D98F     		or	a5,a5,a4
 518 010a 2317F4FE 		sh	a5,-18(s0)
 187:Drivers/src/ch32v20x_tim.c **** 
 188:Drivers/src/ch32v20x_tim.c ****         tmpcr2 &= (uint16_t)(~((uint16_t)TIM_OIS2));
 519              		.loc 1 188 16
 520 010e 8357C4FE 		lhu	a5,-20(s0)
 521 0112 93F7F7BF 		andi	a5,a5,-1025
 522 0116 2316F4FE 		sh	a5,-20(s0)
 189:Drivers/src/ch32v20x_tim.c ****         tmpcr2 &= (uint16_t)(~((uint16_t)TIM_OIS2N));
 523              		.loc 1 189 16
 524 011a 8357C4FE 		lhu	a5,-20(s0)
 525 011e 3E87     		mv	a4,a5
 526 0120 FD77     		li	a5,-4096
 527 0122 9387F77F 		addi	a5,a5,2047
 528 0126 F98F     		and	a5,a4,a5
 529 0128 2316F4FE 		sh	a5,-20(s0)
 190:Drivers/src/ch32v20x_tim.c ****         tmpcr2 |= (uint16_t)(TIM_OCInitStruct->TIM_OCIdleState << 2);
 530              		.loc 1 190 46
 531 012c 832784FD 		lw	a5,-40(s0)
 532 0130 DE27     		lhu	a5,12(a5)
 533              		.loc 1 190 19
 534 0132 8A07     		slli	a5,a5,2
 535 0134 C207     		slli	a5,a5,16
 536 0136 C183     		srli	a5,a5,16
GAS LISTING C:\Users\SOLDER~1\AppData\Local\Temp\ccPZLIWm.s 			page 14


 537              		.loc 1 190 16
 538 0138 0357C4FE 		lhu	a4,-20(s0)
 539 013c D98F     		or	a5,a5,a4
 540 013e 2316F4FE 		sh	a5,-20(s0)
 191:Drivers/src/ch32v20x_tim.c ****         tmpcr2 |= (uint16_t)(TIM_OCInitStruct->TIM_OCNIdleState << 2);
 541              		.loc 1 191 46
 542 0142 832784FD 		lw	a5,-40(s0)
 543 0146 FE27     		lhu	a5,14(a5)
 544              		.loc 1 191 19
 545 0148 8A07     		slli	a5,a5,2
 546 014a C207     		slli	a5,a5,16
 547 014c C183     		srli	a5,a5,16
 548              		.loc 1 191 16
 549 014e 0357C4FE 		lhu	a4,-20(s0)
 550 0152 D98F     		or	a5,a5,a4
 551 0154 2316F4FE 		sh	a5,-20(s0)
 552              	.L15:
 192:Drivers/src/ch32v20x_tim.c ****     }
 193:Drivers/src/ch32v20x_tim.c **** 
 194:Drivers/src/ch32v20x_tim.c ****     TIMx->CTLR2 = tmpcr2;
 553              		.loc 1 194 17
 554 0158 8327C4FD 		lw	a5,-36(s0)
 555 015c 0357C4FE 		lhu	a4,-20(s0)
 556 0160 DAA3     		sh	a4,4(a5)
 195:Drivers/src/ch32v20x_tim.c ****     TIMx->CHCTLR1 = tmpccmrx;
 557              		.loc 1 195 19
 558 0162 8327C4FD 		lw	a5,-36(s0)
 559 0166 0357A4FE 		lhu	a4,-22(s0)
 560 016a 9AAF     		sh	a4,24(a5)
 196:Drivers/src/ch32v20x_tim.c ****     TIMx->CH2CVR = TIM_OCInitStruct->TIM_Pulse;
 561              		.loc 1 196 36
 562 016c 832784FD 		lw	a5,-40(s0)
 563 0170 FA23     		lhu	a4,6(a5)
 564              		.loc 1 196 18
 565 0172 8327C4FD 		lw	a5,-36(s0)
 566 0176 9ABF     		sh	a4,56(a5)
 197:Drivers/src/ch32v20x_tim.c ****     TIMx->CCER = tmpccer;
 567              		.loc 1 197 16
 568 0178 8327C4FD 		lw	a5,-36(s0)
 569 017c 0357E4FE 		lhu	a4,-18(s0)
 570 0180 9AB3     		sh	a4,32(a5)
 198:Drivers/src/ch32v20x_tim.c **** }
 571              		.loc 1 198 1
 572 0182 0100     		nop
 573 0184 3254     		lw	s0,44(sp)
 574              		.cfi_restore 8
 575              		.cfi_def_cfa 2, 48
 576 0186 4561     		addi	sp,sp,48
 577              		.cfi_def_cfa_offset 0
 578 0188 8280     		jr	ra
 579              		.cfi_endproc
 580              	.LFE19:
 582              		.section	.text.TIM_OC3Init,"ax",@progbits
 583              		.align	1
 584              		.globl	TIM_OC3Init
 586              	TIM_OC3Init:
 587              	.LFB20:
GAS LISTING C:\Users\SOLDER~1\AppData\Local\Temp\ccPZLIWm.s 			page 15


 199:Drivers/src/ch32v20x_tim.c **** 
 200:Drivers/src/ch32v20x_tim.c **** /*********************************************************************
 201:Drivers/src/ch32v20x_tim.c ****  * @fn      TIM_OC3Init
 202:Drivers/src/ch32v20x_tim.c ****  *
 203:Drivers/src/ch32v20x_tim.c ****  * @brief   Initializes the TIMx Channel3 according to the specified
 204:Drivers/src/ch32v20x_tim.c ****  *        parameters in the TIM_OCInitStruct.
 205:Drivers/src/ch32v20x_tim.c ****  *
 206:Drivers/src/ch32v20x_tim.c ****  * @param   TIMx - where x can be 1 to 4 to select the TIM peripheral.
 207:Drivers/src/ch32v20x_tim.c ****  *          TIM_OCInitStruct - pointer to a TIM_OCInitTypeDef structure.
 208:Drivers/src/ch32v20x_tim.c ****  *
 209:Drivers/src/ch32v20x_tim.c ****  * @return  none
 210:Drivers/src/ch32v20x_tim.c ****  */
 211:Drivers/src/ch32v20x_tim.c **** void TIM_OC3Init(TIM_TypeDef *TIMx, TIM_OCInitTypeDef *TIM_OCInitStruct)
 212:Drivers/src/ch32v20x_tim.c **** {
 588              		.loc 1 212 1
 589              		.cfi_startproc
 590 0000 7971     		addi	sp,sp,-48
 591              		.cfi_def_cfa_offset 48
 592 0002 22D6     		sw	s0,44(sp)
 593              		.cfi_offset 8, -4
 594 0004 0018     		addi	s0,sp,48
 595              		.cfi_def_cfa 8, 0
 596 0006 232EA4FC 		sw	a0,-36(s0)
 597 000a 232CB4FC 		sw	a1,-40(s0)
 213:Drivers/src/ch32v20x_tim.c ****     uint16_t tmpccmrx = 0, tmpccer = 0, tmpcr2 = 0;
 598              		.loc 1 213 14
 599 000e 231504FE 		sh	zero,-22(s0)
 600              		.loc 1 213 28
 601 0012 231704FE 		sh	zero,-18(s0)
 602              		.loc 1 213 41
 603 0016 231604FE 		sh	zero,-20(s0)
 214:Drivers/src/ch32v20x_tim.c **** 
 215:Drivers/src/ch32v20x_tim.c ****     TIMx->CCER &= (uint16_t)(~((uint16_t)TIM_CC3E));
 604              		.loc 1 215 9
 605 001a 8327C4FD 		lw	a5,-36(s0)
 606 001e 9E33     		lhu	a5,32(a5)
 607 0020 C207     		slli	a5,a5,16
 608 0022 C183     		srli	a5,a5,16
 609              		.loc 1 215 16
 610 0024 93F7F7EF 		andi	a5,a5,-257
 611 0028 13970701 		slli	a4,a5,16
 612 002c 4183     		srli	a4,a4,16
 613 002e 8327C4FD 		lw	a5,-36(s0)
 614 0032 9AB3     		sh	a4,32(a5)
 216:Drivers/src/ch32v20x_tim.c ****     tmpccer = TIMx->CCER;
 615              		.loc 1 216 13
 616 0034 8327C4FD 		lw	a5,-36(s0)
 617 0038 9E33     		lhu	a5,32(a5)
 618 003a 2317F4FE 		sh	a5,-18(s0)
 217:Drivers/src/ch32v20x_tim.c ****     tmpcr2 = TIMx->CTLR2;
 619              		.loc 1 217 12
 620 003e 8327C4FD 		lw	a5,-36(s0)
 621 0042 DE23     		lhu	a5,4(a5)
 622 0044 2316F4FE 		sh	a5,-20(s0)
 218:Drivers/src/ch32v20x_tim.c ****     tmpccmrx = TIMx->CHCTLR2;
 623              		.loc 1 218 14
 624 0048 8327C4FD 		lw	a5,-36(s0)
GAS LISTING C:\Users\SOLDER~1\AppData\Local\Temp\ccPZLIWm.s 			page 16


 625 004c DE2F     		lhu	a5,28(a5)
 626 004e 2315F4FE 		sh	a5,-22(s0)
 219:Drivers/src/ch32v20x_tim.c ****     tmpccmrx &= (uint16_t)(~((uint16_t)TIM_OC3M));
 627              		.loc 1 219 14
 628 0052 8357A4FE 		lhu	a5,-22(s0)
 629 0056 93F7F7F8 		andi	a5,a5,-113
 630 005a 2315F4FE 		sh	a5,-22(s0)
 220:Drivers/src/ch32v20x_tim.c ****     tmpccmrx &= (uint16_t)(~((uint16_t)TIM_CC3S));
 631              		.loc 1 220 14
 632 005e 8357A4FE 		lhu	a5,-22(s0)
 633 0062 F19B     		andi	a5,a5,-4
 634 0064 2315F4FE 		sh	a5,-22(s0)
 221:Drivers/src/ch32v20x_tim.c ****     tmpccmrx |= TIM_OCInitStruct->TIM_OCMode;
 635              		.loc 1 221 33
 636 0068 832784FD 		lw	a5,-40(s0)
 637 006c 9E23     		lhu	a5,0(a5)
 638              		.loc 1 221 14
 639 006e 0357A4FE 		lhu	a4,-22(s0)
 640 0072 D98F     		or	a5,a5,a4
 641 0074 2315F4FE 		sh	a5,-22(s0)
 222:Drivers/src/ch32v20x_tim.c ****     tmpccer &= (uint16_t)(~((uint16_t)TIM_CC3P));
 642              		.loc 1 222 13
 643 0078 8357E4FE 		lhu	a5,-18(s0)
 644 007c 93F7F7DF 		andi	a5,a5,-513
 645 0080 2317F4FE 		sh	a5,-18(s0)
 223:Drivers/src/ch32v20x_tim.c ****     tmpccer |= (uint16_t)(TIM_OCInitStruct->TIM_OCPolarity << 8);
 646              		.loc 1 223 43
 647 0084 832784FD 		lw	a5,-40(s0)
 648 0088 9E27     		lhu	a5,8(a5)
 649              		.loc 1 223 16
 650 008a A207     		slli	a5,a5,8
 651 008c C207     		slli	a5,a5,16
 652 008e C183     		srli	a5,a5,16
 653              		.loc 1 223 13
 654 0090 0357E4FE 		lhu	a4,-18(s0)
 655 0094 D98F     		or	a5,a5,a4
 656 0096 2317F4FE 		sh	a5,-18(s0)
 224:Drivers/src/ch32v20x_tim.c ****     tmpccer |= (uint16_t)(TIM_OCInitStruct->TIM_OutputState << 8);
 657              		.loc 1 224 43
 658 009a 832784FD 		lw	a5,-40(s0)
 659 009e BE23     		lhu	a5,2(a5)
 660              		.loc 1 224 16
 661 00a0 A207     		slli	a5,a5,8
 662 00a2 C207     		slli	a5,a5,16
 663 00a4 C183     		srli	a5,a5,16
 664              		.loc 1 224 13
 665 00a6 0357E4FE 		lhu	a4,-18(s0)
 666 00aa D98F     		or	a5,a5,a4
 667 00ac 2317F4FE 		sh	a5,-18(s0)
 225:Drivers/src/ch32v20x_tim.c **** 
 226:Drivers/src/ch32v20x_tim.c ****     if((TIMx == TIM1))
 668              		.loc 1 226 7
 669 00b0 0327C4FD 		lw	a4,-36(s0)
 670 00b4 B7370140 		li	a5,1073819648
 671 00b8 938707C0 		addi	a5,a5,-1024
 672 00bc 631DF708 		bne	a4,a5,.L17
 227:Drivers/src/ch32v20x_tim.c ****     {
GAS LISTING C:\Users\SOLDER~1\AppData\Local\Temp\ccPZLIWm.s 			page 17


 228:Drivers/src/ch32v20x_tim.c ****         tmpccer &= (uint16_t)(~((uint16_t)TIM_CC3NP));
 673              		.loc 1 228 17
 674 00c0 8357E4FE 		lhu	a5,-18(s0)
 675 00c4 3E87     		mv	a4,a5
 676 00c6 FD77     		li	a5,-4096
 677 00c8 9387F77F 		addi	a5,a5,2047
 678 00cc F98F     		and	a5,a4,a5
 679 00ce 2317F4FE 		sh	a5,-18(s0)
 229:Drivers/src/ch32v20x_tim.c ****         tmpccer |= (uint16_t)(TIM_OCInitStruct->TIM_OCNPolarity << 8);
 680              		.loc 1 229 47
 681 00d2 832784FD 		lw	a5,-40(s0)
 682 00d6 BE27     		lhu	a5,10(a5)
 683              		.loc 1 229 20
 684 00d8 A207     		slli	a5,a5,8
 685 00da C207     		slli	a5,a5,16
 686 00dc C183     		srli	a5,a5,16
 687              		.loc 1 229 17
 688 00de 0357E4FE 		lhu	a4,-18(s0)
 689 00e2 D98F     		or	a5,a5,a4
 690 00e4 2317F4FE 		sh	a5,-18(s0)
 230:Drivers/src/ch32v20x_tim.c ****         tmpccer &= (uint16_t)(~((uint16_t)TIM_CC3NE));
 691              		.loc 1 230 17
 692 00e8 8357E4FE 		lhu	a5,-18(s0)
 693 00ec 93F7F7BF 		andi	a5,a5,-1025
 694 00f0 2317F4FE 		sh	a5,-18(s0)
 231:Drivers/src/ch32v20x_tim.c ****         tmpccer |= (uint16_t)(TIM_OCInitStruct->TIM_OutputNState << 8);
 695              		.loc 1 231 47
 696 00f4 832784FD 		lw	a5,-40(s0)
 697 00f8 DE23     		lhu	a5,4(a5)
 698              		.loc 1 231 20
 699 00fa A207     		slli	a5,a5,8
 700 00fc C207     		slli	a5,a5,16
 701 00fe C183     		srli	a5,a5,16
 702              		.loc 1 231 17
 703 0100 0357E4FE 		lhu	a4,-18(s0)
 704 0104 D98F     		or	a5,a5,a4
 705 0106 2317F4FE 		sh	a5,-18(s0)
 232:Drivers/src/ch32v20x_tim.c ****         tmpcr2 &= (uint16_t)(~((uint16_t)TIM_OIS3));
 706              		.loc 1 232 16
 707 010a 8357C4FE 		lhu	a5,-20(s0)
 708 010e 3E87     		mv	a4,a5
 709 0110 FD77     		li	a5,-4096
 710 0112 FD17     		addi	a5,a5,-1
 711 0114 F98F     		and	a5,a4,a5
 712 0116 2316F4FE 		sh	a5,-20(s0)
 233:Drivers/src/ch32v20x_tim.c ****         tmpcr2 &= (uint16_t)(~((uint16_t)TIM_OIS3N));
 713              		.loc 1 233 16
 714 011a 8357C4FE 		lhu	a5,-20(s0)
 715 011e 3E87     		mv	a4,a5
 716 0120 F977     		li	a5,-8192
 717 0122 FD17     		addi	a5,a5,-1
 718 0124 F98F     		and	a5,a4,a5
 719 0126 2316F4FE 		sh	a5,-20(s0)
 234:Drivers/src/ch32v20x_tim.c ****         tmpcr2 |= (uint16_t)(TIM_OCInitStruct->TIM_OCIdleState << 4);
 720              		.loc 1 234 46
 721 012a 832784FD 		lw	a5,-40(s0)
 722 012e DE27     		lhu	a5,12(a5)
GAS LISTING C:\Users\SOLDER~1\AppData\Local\Temp\ccPZLIWm.s 			page 18


 723              		.loc 1 234 19
 724 0130 9207     		slli	a5,a5,4
 725 0132 C207     		slli	a5,a5,16
 726 0134 C183     		srli	a5,a5,16
 727              		.loc 1 234 16
 728 0136 0357C4FE 		lhu	a4,-20(s0)
 729 013a D98F     		or	a5,a5,a4
 730 013c 2316F4FE 		sh	a5,-20(s0)
 235:Drivers/src/ch32v20x_tim.c ****         tmpcr2 |= (uint16_t)(TIM_OCInitStruct->TIM_OCNIdleState << 4);
 731              		.loc 1 235 46
 732 0140 832784FD 		lw	a5,-40(s0)
 733 0144 FE27     		lhu	a5,14(a5)
 734              		.loc 1 235 19
 735 0146 9207     		slli	a5,a5,4
 736 0148 C207     		slli	a5,a5,16
 737 014a C183     		srli	a5,a5,16
 738              		.loc 1 235 16
 739 014c 0357C4FE 		lhu	a4,-20(s0)
 740 0150 D98F     		or	a5,a5,a4
 741 0152 2316F4FE 		sh	a5,-20(s0)
 742              	.L17:
 236:Drivers/src/ch32v20x_tim.c ****     }
 237:Drivers/src/ch32v20x_tim.c **** 
 238:Drivers/src/ch32v20x_tim.c ****     TIMx->CTLR2 = tmpcr2;
 743              		.loc 1 238 17
 744 0156 8327C4FD 		lw	a5,-36(s0)
 745 015a 0357C4FE 		lhu	a4,-20(s0)
 746 015e DAA3     		sh	a4,4(a5)
 239:Drivers/src/ch32v20x_tim.c ****     TIMx->CHCTLR2 = tmpccmrx;
 747              		.loc 1 239 19
 748 0160 8327C4FD 		lw	a5,-36(s0)
 749 0164 0357A4FE 		lhu	a4,-22(s0)
 750 0168 DAAF     		sh	a4,28(a5)
 240:Drivers/src/ch32v20x_tim.c ****     TIMx->CH3CVR = TIM_OCInitStruct->TIM_Pulse;
 751              		.loc 1 240 36
 752 016a 832784FD 		lw	a5,-40(s0)
 753 016e FA23     		lhu	a4,6(a5)
 754              		.loc 1 240 18
 755 0170 8327C4FD 		lw	a5,-36(s0)
 756 0174 DABF     		sh	a4,60(a5)
 241:Drivers/src/ch32v20x_tim.c ****     TIMx->CCER = tmpccer;
 757              		.loc 1 241 16
 758 0176 8327C4FD 		lw	a5,-36(s0)
 759 017a 0357E4FE 		lhu	a4,-18(s0)
 760 017e 9AB3     		sh	a4,32(a5)
 242:Drivers/src/ch32v20x_tim.c **** }
 761              		.loc 1 242 1
 762 0180 0100     		nop
 763 0182 3254     		lw	s0,44(sp)
 764              		.cfi_restore 8
 765              		.cfi_def_cfa 2, 48
 766 0184 4561     		addi	sp,sp,48
 767              		.cfi_def_cfa_offset 0
 768 0186 8280     		jr	ra
 769              		.cfi_endproc
 770              	.LFE20:
 772              		.section	.text.TIM_OC4Init,"ax",@progbits
GAS LISTING C:\Users\SOLDER~1\AppData\Local\Temp\ccPZLIWm.s 			page 19


 773              		.align	1
 774              		.globl	TIM_OC4Init
 776              	TIM_OC4Init:
 777              	.LFB21:
 243:Drivers/src/ch32v20x_tim.c **** 
 244:Drivers/src/ch32v20x_tim.c **** /*********************************************************************
 245:Drivers/src/ch32v20x_tim.c ****  * @fn      TIM_OC4Init
 246:Drivers/src/ch32v20x_tim.c ****  *
 247:Drivers/src/ch32v20x_tim.c ****  * @brief   Initializes the TIMx Channel4 according to the specified
 248:Drivers/src/ch32v20x_tim.c ****  *        parameters in the TIM_OCInitStruct.
 249:Drivers/src/ch32v20x_tim.c ****  *
 250:Drivers/src/ch32v20x_tim.c ****  * @param   TIMx - where x can be 1 to 4 to select the TIM peripheral.
 251:Drivers/src/ch32v20x_tim.c ****  *          TIM_OCInitStruct - pointer to a TIM_OCInitTypeDef structure.
 252:Drivers/src/ch32v20x_tim.c ****  *
 253:Drivers/src/ch32v20x_tim.c ****  * @return  none
 254:Drivers/src/ch32v20x_tim.c ****  */
 255:Drivers/src/ch32v20x_tim.c **** void TIM_OC4Init(TIM_TypeDef *TIMx, TIM_OCInitTypeDef *TIM_OCInitStruct)
 256:Drivers/src/ch32v20x_tim.c **** {
 778              		.loc 1 256 1
 779              		.cfi_startproc
 780 0000 7971     		addi	sp,sp,-48
 781              		.cfi_def_cfa_offset 48
 782 0002 22D6     		sw	s0,44(sp)
 783              		.cfi_offset 8, -4
 784 0004 0018     		addi	s0,sp,48
 785              		.cfi_def_cfa 8, 0
 786 0006 232EA4FC 		sw	a0,-36(s0)
 787 000a 232CB4FC 		sw	a1,-40(s0)
 257:Drivers/src/ch32v20x_tim.c ****     uint16_t tmpccmrx = 0, tmpccer = 0, tmpcr2 = 0;
 788              		.loc 1 257 14
 789 000e 231604FE 		sh	zero,-20(s0)
 790              		.loc 1 257 28
 791 0012 231504FE 		sh	zero,-22(s0)
 792              		.loc 1 257 41
 793 0016 231704FE 		sh	zero,-18(s0)
 258:Drivers/src/ch32v20x_tim.c **** 
 259:Drivers/src/ch32v20x_tim.c ****     TIMx->CCER &= (uint16_t)(~((uint16_t)TIM_CC4E));
 794              		.loc 1 259 9
 795 001a 8327C4FD 		lw	a5,-36(s0)
 796 001e 9E33     		lhu	a5,32(a5)
 797 0020 13970701 		slli	a4,a5,16
 798 0024 4183     		srli	a4,a4,16
 799              		.loc 1 259 16
 800 0026 FD77     		li	a5,-4096
 801 0028 FD17     		addi	a5,a5,-1
 802 002a F98F     		and	a5,a4,a5
 803 002c 13970701 		slli	a4,a5,16
 804 0030 4183     		srli	a4,a4,16
 805 0032 8327C4FD 		lw	a5,-36(s0)
 806 0036 9AB3     		sh	a4,32(a5)
 260:Drivers/src/ch32v20x_tim.c ****     tmpccer = TIMx->CCER;
 807              		.loc 1 260 13
 808 0038 8327C4FD 		lw	a5,-36(s0)
 809 003c 9E33     		lhu	a5,32(a5)
 810 003e 2315F4FE 		sh	a5,-22(s0)
 261:Drivers/src/ch32v20x_tim.c ****     tmpcr2 = TIMx->CTLR2;
 811              		.loc 1 261 12
GAS LISTING C:\Users\SOLDER~1\AppData\Local\Temp\ccPZLIWm.s 			page 20


 812 0042 8327C4FD 		lw	a5,-36(s0)
 813 0046 DE23     		lhu	a5,4(a5)
 814 0048 2317F4FE 		sh	a5,-18(s0)
 262:Drivers/src/ch32v20x_tim.c ****     tmpccmrx = TIMx->CHCTLR2;
 815              		.loc 1 262 14
 816 004c 8327C4FD 		lw	a5,-36(s0)
 817 0050 DE2F     		lhu	a5,28(a5)
 818 0052 2316F4FE 		sh	a5,-20(s0)
 263:Drivers/src/ch32v20x_tim.c ****     tmpccmrx &= (uint16_t)(~((uint16_t)TIM_OC4M));
 819              		.loc 1 263 14
 820 0056 8357C4FE 		lhu	a5,-20(s0)
 821 005a 3E87     		mv	a4,a5
 822 005c E577     		li	a5,-28672
 823 005e FD17     		addi	a5,a5,-1
 824 0060 F98F     		and	a5,a4,a5
 825 0062 2316F4FE 		sh	a5,-20(s0)
 264:Drivers/src/ch32v20x_tim.c ****     tmpccmrx &= (uint16_t)(~((uint16_t)TIM_CC4S));
 826              		.loc 1 264 14
 827 0066 8357C4FE 		lhu	a5,-20(s0)
 828 006a 93F7F7CF 		andi	a5,a5,-769
 829 006e 2316F4FE 		sh	a5,-20(s0)
 265:Drivers/src/ch32v20x_tim.c ****     tmpccmrx |= (uint16_t)(TIM_OCInitStruct->TIM_OCMode << 8);
 830              		.loc 1 265 44
 831 0072 832784FD 		lw	a5,-40(s0)
 832 0076 9E23     		lhu	a5,0(a5)
 833              		.loc 1 265 17
 834 0078 A207     		slli	a5,a5,8
 835 007a C207     		slli	a5,a5,16
 836 007c C183     		srli	a5,a5,16
 837              		.loc 1 265 14
 838 007e 0357C4FE 		lhu	a4,-20(s0)
 839 0082 D98F     		or	a5,a5,a4
 840 0084 2316F4FE 		sh	a5,-20(s0)
 266:Drivers/src/ch32v20x_tim.c ****     tmpccer &= (uint16_t)(~((uint16_t)TIM_CC4P));
 841              		.loc 1 266 13
 842 0088 8357A4FE 		lhu	a5,-22(s0)
 843 008c 3E87     		mv	a4,a5
 844 008e F977     		li	a5,-8192
 845 0090 FD17     		addi	a5,a5,-1
 846 0092 F98F     		and	a5,a4,a5
 847 0094 2315F4FE 		sh	a5,-22(s0)
 267:Drivers/src/ch32v20x_tim.c ****     tmpccer |= (uint16_t)(TIM_OCInitStruct->TIM_OCPolarity << 12);
 848              		.loc 1 267 43
 849 0098 832784FD 		lw	a5,-40(s0)
 850 009c 9E27     		lhu	a5,8(a5)
 851              		.loc 1 267 16
 852 009e B207     		slli	a5,a5,12
 853 00a0 C207     		slli	a5,a5,16
 854 00a2 C183     		srli	a5,a5,16
 855              		.loc 1 267 13
 856 00a4 0357A4FE 		lhu	a4,-22(s0)
 857 00a8 D98F     		or	a5,a5,a4
 858 00aa 2315F4FE 		sh	a5,-22(s0)
 268:Drivers/src/ch32v20x_tim.c ****     tmpccer |= (uint16_t)(TIM_OCInitStruct->TIM_OutputState << 12);
 859              		.loc 1 268 43
 860 00ae 832784FD 		lw	a5,-40(s0)
 861 00b2 BE23     		lhu	a5,2(a5)
GAS LISTING C:\Users\SOLDER~1\AppData\Local\Temp\ccPZLIWm.s 			page 21


 862              		.loc 1 268 16
 863 00b4 B207     		slli	a5,a5,12
 864 00b6 C207     		slli	a5,a5,16
 865 00b8 C183     		srli	a5,a5,16
 866              		.loc 1 268 13
 867 00ba 0357A4FE 		lhu	a4,-22(s0)
 868 00be D98F     		or	a5,a5,a4
 869 00c0 2315F4FE 		sh	a5,-22(s0)
 269:Drivers/src/ch32v20x_tim.c **** 
 270:Drivers/src/ch32v20x_tim.c ****     if((TIMx == TIM1))
 870              		.loc 1 270 7
 871 00c4 0327C4FD 		lw	a4,-36(s0)
 872 00c8 B7370140 		li	a5,1073819648
 873 00cc 938707C0 		addi	a5,a5,-1024
 874 00d0 6315F702 		bne	a4,a5,.L19
 271:Drivers/src/ch32v20x_tim.c ****     {
 272:Drivers/src/ch32v20x_tim.c ****         tmpcr2 &= (uint16_t)(~((uint16_t)TIM_OIS4));
 875              		.loc 1 272 16
 876 00d4 8357E4FE 		lhu	a5,-18(s0)
 877 00d8 3E87     		mv	a4,a5
 878 00da F177     		li	a5,-16384
 879 00dc FD17     		addi	a5,a5,-1
 880 00de F98F     		and	a5,a4,a5
 881 00e0 2317F4FE 		sh	a5,-18(s0)
 273:Drivers/src/ch32v20x_tim.c ****         tmpcr2 |= (uint16_t)(TIM_OCInitStruct->TIM_OCIdleState << 6);
 882              		.loc 1 273 46
 883 00e4 832784FD 		lw	a5,-40(s0)
 884 00e8 DE27     		lhu	a5,12(a5)
 885              		.loc 1 273 19
 886 00ea 9A07     		slli	a5,a5,6
 887 00ec C207     		slli	a5,a5,16
 888 00ee C183     		srli	a5,a5,16
 889              		.loc 1 273 16
 890 00f0 0357E4FE 		lhu	a4,-18(s0)
 891 00f4 D98F     		or	a5,a5,a4
 892 00f6 2317F4FE 		sh	a5,-18(s0)
 893              	.L19:
 274:Drivers/src/ch32v20x_tim.c ****     }
 275:Drivers/src/ch32v20x_tim.c **** 
 276:Drivers/src/ch32v20x_tim.c ****     TIMx->CTLR2 = tmpcr2;
 894              		.loc 1 276 17
 895 00fa 8327C4FD 		lw	a5,-36(s0)
 896 00fe 0357E4FE 		lhu	a4,-18(s0)
 897 0102 DAA3     		sh	a4,4(a5)
 277:Drivers/src/ch32v20x_tim.c ****     TIMx->CHCTLR2 = tmpccmrx;
 898              		.loc 1 277 19
 899 0104 8327C4FD 		lw	a5,-36(s0)
 900 0108 0357C4FE 		lhu	a4,-20(s0)
 901 010c DAAF     		sh	a4,28(a5)
 278:Drivers/src/ch32v20x_tim.c ****     TIMx->CH4CVR = TIM_OCInitStruct->TIM_Pulse;
 902              		.loc 1 278 36
 903 010e 832784FD 		lw	a5,-40(s0)
 904 0112 FA23     		lhu	a4,6(a5)
 905              		.loc 1 278 18
 906 0114 8327C4FD 		lw	a5,-36(s0)
 907 0118 2390E704 		sh	a4,64(a5)
 279:Drivers/src/ch32v20x_tim.c ****     TIMx->CCER = tmpccer;
GAS LISTING C:\Users\SOLDER~1\AppData\Local\Temp\ccPZLIWm.s 			page 22


 908              		.loc 1 279 16
 909 011c 8327C4FD 		lw	a5,-36(s0)
 910 0120 0357A4FE 		lhu	a4,-22(s0)
 911 0124 9AB3     		sh	a4,32(a5)
 280:Drivers/src/ch32v20x_tim.c **** }
 912              		.loc 1 280 1
 913 0126 0100     		nop
 914 0128 3254     		lw	s0,44(sp)
 915              		.cfi_restore 8
 916              		.cfi_def_cfa 2, 48
 917 012a 4561     		addi	sp,sp,48
 918              		.cfi_def_cfa_offset 0
 919 012c 8280     		jr	ra
 920              		.cfi_endproc
 921              	.LFE21:
 923              		.section	.text.TIM_ICInit,"ax",@progbits
 924              		.align	1
 925              		.globl	TIM_ICInit
 927              	TIM_ICInit:
 928              	.LFB22:
 281:Drivers/src/ch32v20x_tim.c **** 
 282:Drivers/src/ch32v20x_tim.c **** /*********************************************************************
 283:Drivers/src/ch32v20x_tim.c ****  * @fn      TIM_ICInit
 284:Drivers/src/ch32v20x_tim.c ****  *
 285:Drivers/src/ch32v20x_tim.c ****  * @brief   IInitializes the TIM peripheral according to the specified
 286:Drivers/src/ch32v20x_tim.c ****  *        parameters in the TIM_ICInitStruct.
 287:Drivers/src/ch32v20x_tim.c ****  * @param   TIMx - where x can be 1 to 4 to select the TIM peripheral.
 288:Drivers/src/ch32v20x_tim.c ****  *          TIM_ICInitStruct - pointer to a TIM_ICInitTypeDef structure.
 289:Drivers/src/ch32v20x_tim.c ****  *
 290:Drivers/src/ch32v20x_tim.c ****  * @return  none
 291:Drivers/src/ch32v20x_tim.c ****  */
 292:Drivers/src/ch32v20x_tim.c **** void TIM_ICInit(TIM_TypeDef *TIMx, TIM_ICInitTypeDef *TIM_ICInitStruct)
 293:Drivers/src/ch32v20x_tim.c **** {
 929              		.loc 1 293 1
 930              		.cfi_startproc
 931 0000 0111     		addi	sp,sp,-32
 932              		.cfi_def_cfa_offset 32
 933 0002 06CE     		sw	ra,28(sp)
 934 0004 22CC     		sw	s0,24(sp)
 935              		.cfi_offset 1, -4
 936              		.cfi_offset 8, -8
 937 0006 0010     		addi	s0,sp,32
 938              		.cfi_def_cfa 8, 0
 939 0008 2326A4FE 		sw	a0,-20(s0)
 940 000c 2324B4FE 		sw	a1,-24(s0)
 294:Drivers/src/ch32v20x_tim.c ****     if(TIM_ICInitStruct->TIM_Channel == TIM_Channel_1)
 941              		.loc 1 294 24
 942 0010 832784FE 		lw	a5,-24(s0)
 943 0014 9E23     		lhu	a5,0(a5)
 944              		.loc 1 294 7
 945 0016 8DEF     		bne	a5,zero,.L21
 295:Drivers/src/ch32v20x_tim.c ****     {
 296:Drivers/src/ch32v20x_tim.c ****         TI1_Config(TIMx, TIM_ICInitStruct->TIM_ICPolarity,
 946              		.loc 1 296 9
 947 0018 832784FE 		lw	a5,-24(s0)
 948 001c BA23     		lhu	a4,2(a5)
 949 001e 832784FE 		lw	a5,-24(s0)
GAS LISTING C:\Users\SOLDER~1\AppData\Local\Temp\ccPZLIWm.s 			page 23


 950 0022 D223     		lhu	a2,4(a5)
 951 0024 832784FE 		lw	a5,-24(s0)
 952 0028 9E27     		lhu	a5,8(a5)
 953 002a BE86     		mv	a3,a5
 954 002c BA85     		mv	a1,a4
 955 002e 0325C4FE 		lw	a0,-20(s0)
 956 0032 97000000 		call	TI1_Config
 956      E7800000 
 297:Drivers/src/ch32v20x_tim.c ****                    TIM_ICInitStruct->TIM_ICSelection,
 298:Drivers/src/ch32v20x_tim.c ****                    TIM_ICInitStruct->TIM_ICFilter);
 299:Drivers/src/ch32v20x_tim.c ****         TIM_SetIC1Prescaler(TIMx, TIM_ICInitStruct->TIM_ICPrescaler);
 957              		.loc 1 299 9
 958 003a 832784FE 		lw	a5,-24(s0)
 959 003e FE23     		lhu	a5,6(a5)
 960 0040 BE85     		mv	a1,a5
 961 0042 0325C4FE 		lw	a0,-20(s0)
 962 0046 97000000 		call	TIM_SetIC1Prescaler
 962      E7800000 
 300:Drivers/src/ch32v20x_tim.c ****     }
 301:Drivers/src/ch32v20x_tim.c ****     else if(TIM_ICInitStruct->TIM_Channel == TIM_Channel_2)
 302:Drivers/src/ch32v20x_tim.c ****     {
 303:Drivers/src/ch32v20x_tim.c ****         TI2_Config(TIMx, TIM_ICInitStruct->TIM_ICPolarity,
 304:Drivers/src/ch32v20x_tim.c ****                    TIM_ICInitStruct->TIM_ICSelection,
 305:Drivers/src/ch32v20x_tim.c ****                    TIM_ICInitStruct->TIM_ICFilter);
 306:Drivers/src/ch32v20x_tim.c ****         TIM_SetIC2Prescaler(TIMx, TIM_ICInitStruct->TIM_ICPrescaler);
 307:Drivers/src/ch32v20x_tim.c ****     }
 308:Drivers/src/ch32v20x_tim.c ****     else if(TIM_ICInitStruct->TIM_Channel == TIM_Channel_3)
 309:Drivers/src/ch32v20x_tim.c ****     {
 310:Drivers/src/ch32v20x_tim.c ****         TI3_Config(TIMx, TIM_ICInitStruct->TIM_ICPolarity,
 311:Drivers/src/ch32v20x_tim.c ****                    TIM_ICInitStruct->TIM_ICSelection,
 312:Drivers/src/ch32v20x_tim.c ****                    TIM_ICInitStruct->TIM_ICFilter);
 313:Drivers/src/ch32v20x_tim.c ****         TIM_SetIC3Prescaler(TIMx, TIM_ICInitStruct->TIM_ICPrescaler);
 314:Drivers/src/ch32v20x_tim.c ****     }
 315:Drivers/src/ch32v20x_tim.c ****     else
 316:Drivers/src/ch32v20x_tim.c ****     {
 317:Drivers/src/ch32v20x_tim.c ****         TI4_Config(TIMx, TIM_ICInitStruct->TIM_ICPolarity,
 318:Drivers/src/ch32v20x_tim.c ****                    TIM_ICInitStruct->TIM_ICSelection,
 319:Drivers/src/ch32v20x_tim.c ****                    TIM_ICInitStruct->TIM_ICFilter);
 320:Drivers/src/ch32v20x_tim.c ****         TIM_SetIC4Prescaler(TIMx, TIM_ICInitStruct->TIM_ICPrescaler);
 321:Drivers/src/ch32v20x_tim.c ****     }
 322:Drivers/src/ch32v20x_tim.c **** }
 963              		.loc 1 322 1
 964 004e C1A0     		j	.L25
 965              	.L21:
 301:Drivers/src/ch32v20x_tim.c ****     {
 966              		.loc 1 301 29
 967 0050 832784FE 		lw	a5,-24(s0)
 968 0054 9A23     		lhu	a4,0(a5)
 301:Drivers/src/ch32v20x_tim.c ****     {
 969              		.loc 1 301 12
 970 0056 9147     		li	a5,4
 971 0058 631EF702 		bne	a4,a5,.L23
 303:Drivers/src/ch32v20x_tim.c ****                    TIM_ICInitStruct->TIM_ICSelection,
 972              		.loc 1 303 9
 973 005c 832784FE 		lw	a5,-24(s0)
 974 0060 BA23     		lhu	a4,2(a5)
 975 0062 832784FE 		lw	a5,-24(s0)
GAS LISTING C:\Users\SOLDER~1\AppData\Local\Temp\ccPZLIWm.s 			page 24


 976 0066 D223     		lhu	a2,4(a5)
 977 0068 832784FE 		lw	a5,-24(s0)
 978 006c 9E27     		lhu	a5,8(a5)
 979 006e BE86     		mv	a3,a5
 980 0070 BA85     		mv	a1,a4
 981 0072 0325C4FE 		lw	a0,-20(s0)
 982 0076 97000000 		call	TI2_Config
 982      E7800000 
 306:Drivers/src/ch32v20x_tim.c ****     }
 983              		.loc 1 306 9
 984 007e 832784FE 		lw	a5,-24(s0)
 985 0082 FE23     		lhu	a5,6(a5)
 986 0084 BE85     		mv	a1,a5
 987 0086 0325C4FE 		lw	a0,-20(s0)
 988 008a 97000000 		call	TIM_SetIC2Prescaler
 988      E7800000 
 989              		.loc 1 322 1
 990 0092 B5A8     		j	.L25
 991              	.L23:
 308:Drivers/src/ch32v20x_tim.c ****     {
 992              		.loc 1 308 29
 993 0094 832784FE 		lw	a5,-24(s0)
 994 0098 9A23     		lhu	a4,0(a5)
 308:Drivers/src/ch32v20x_tim.c ****     {
 995              		.loc 1 308 12
 996 009a A147     		li	a5,8
 997 009c 631EF702 		bne	a4,a5,.L24
 310:Drivers/src/ch32v20x_tim.c ****                    TIM_ICInitStruct->TIM_ICSelection,
 998              		.loc 1 310 9
 999 00a0 832784FE 		lw	a5,-24(s0)
 1000 00a4 BA23     		lhu	a4,2(a5)
 1001 00a6 832784FE 		lw	a5,-24(s0)
 1002 00aa D223     		lhu	a2,4(a5)
 1003 00ac 832784FE 		lw	a5,-24(s0)
 1004 00b0 9E27     		lhu	a5,8(a5)
 1005 00b2 BE86     		mv	a3,a5
 1006 00b4 BA85     		mv	a1,a4
 1007 00b6 0325C4FE 		lw	a0,-20(s0)
 1008 00ba 97000000 		call	TI3_Config
 1008      E7800000 
 313:Drivers/src/ch32v20x_tim.c ****     }
 1009              		.loc 1 313 9
 1010 00c2 832784FE 		lw	a5,-24(s0)
 1011 00c6 FE23     		lhu	a5,6(a5)
 1012 00c8 BE85     		mv	a1,a5
 1013 00ca 0325C4FE 		lw	a0,-20(s0)
 1014 00ce 97000000 		call	TIM_SetIC3Prescaler
 1014      E7800000 
 1015              		.loc 1 322 1
 1016 00d6 25A8     		j	.L25
 1017              	.L24:
 317:Drivers/src/ch32v20x_tim.c ****                    TIM_ICInitStruct->TIM_ICSelection,
 1018              		.loc 1 317 9
 1019 00d8 832784FE 		lw	a5,-24(s0)
 1020 00dc BA23     		lhu	a4,2(a5)
 1021 00de 832784FE 		lw	a5,-24(s0)
 1022 00e2 D223     		lhu	a2,4(a5)
GAS LISTING C:\Users\SOLDER~1\AppData\Local\Temp\ccPZLIWm.s 			page 25


 1023 00e4 832784FE 		lw	a5,-24(s0)
 1024 00e8 9E27     		lhu	a5,8(a5)
 1025 00ea BE86     		mv	a3,a5
 1026 00ec BA85     		mv	a1,a4
 1027 00ee 0325C4FE 		lw	a0,-20(s0)
 1028 00f2 97000000 		call	TI4_Config
 1028      E7800000 
 320:Drivers/src/ch32v20x_tim.c ****     }
 1029              		.loc 1 320 9
 1030 00fa 832784FE 		lw	a5,-24(s0)
 1031 00fe FE23     		lhu	a5,6(a5)
 1032 0100 BE85     		mv	a1,a5
 1033 0102 0325C4FE 		lw	a0,-20(s0)
 1034 0106 97000000 		call	TIM_SetIC4Prescaler
 1034      E7800000 
 1035              	.L25:
 1036              		.loc 1 322 1
 1037 010e 0100     		nop
 1038 0110 F240     		lw	ra,28(sp)
 1039              		.cfi_restore 1
 1040 0112 6244     		lw	s0,24(sp)
 1041              		.cfi_restore 8
 1042              		.cfi_def_cfa 2, 32
 1043 0114 0561     		addi	sp,sp,32
 1044              		.cfi_def_cfa_offset 0
 1045 0116 8280     		jr	ra
 1046              		.cfi_endproc
 1047              	.LFE22:
 1049              		.section	.text.TIM_PWMIConfig,"ax",@progbits
 1050              		.align	1
 1051              		.globl	TIM_PWMIConfig
 1053              	TIM_PWMIConfig:
 1054              	.LFB23:
 323:Drivers/src/ch32v20x_tim.c **** 
 324:Drivers/src/ch32v20x_tim.c **** /*********************************************************************
 325:Drivers/src/ch32v20x_tim.c ****  * @fn      TIM_PWMIConfig
 326:Drivers/src/ch32v20x_tim.c ****  *
 327:Drivers/src/ch32v20x_tim.c ****  * @brief   Configures the TIM peripheral according to the specified
 328:Drivers/src/ch32v20x_tim.c ****  *        parameters in the TIM_ICInitStruct to measure an external
 329:Drivers/src/ch32v20x_tim.c ****  *        PWM signal.
 330:Drivers/src/ch32v20x_tim.c ****  *
 331:Drivers/src/ch32v20x_tim.c ****  * @param   TIMx - where x can be 1 to 4 to select the TIM peripheral.
 332:Drivers/src/ch32v20x_tim.c ****  *          TIM_ICInitStruct - pointer to a TIM_ICInitTypeDef structure.
 333:Drivers/src/ch32v20x_tim.c ****  *
 334:Drivers/src/ch32v20x_tim.c ****  * @return  none
 335:Drivers/src/ch32v20x_tim.c ****  */
 336:Drivers/src/ch32v20x_tim.c **** void TIM_PWMIConfig(TIM_TypeDef *TIMx, TIM_ICInitTypeDef *TIM_ICInitStruct)
 337:Drivers/src/ch32v20x_tim.c **** {
 1055              		.loc 1 337 1
 1056              		.cfi_startproc
 1057 0000 7971     		addi	sp,sp,-48
 1058              		.cfi_def_cfa_offset 48
 1059 0002 06D6     		sw	ra,44(sp)
 1060 0004 22D4     		sw	s0,40(sp)
 1061              		.cfi_offset 1, -4
 1062              		.cfi_offset 8, -8
 1063 0006 0018     		addi	s0,sp,48
GAS LISTING C:\Users\SOLDER~1\AppData\Local\Temp\ccPZLIWm.s 			page 26


 1064              		.cfi_def_cfa 8, 0
 1065 0008 232EA4FC 		sw	a0,-36(s0)
 1066 000c 232CB4FC 		sw	a1,-40(s0)
 338:Drivers/src/ch32v20x_tim.c ****     uint16_t icoppositepolarity = TIM_ICPolarity_Rising;
 1067              		.loc 1 338 14
 1068 0010 231704FE 		sh	zero,-18(s0)
 339:Drivers/src/ch32v20x_tim.c ****     uint16_t icoppositeselection = TIM_ICSelection_DirectTI;
 1069              		.loc 1 339 14
 1070 0014 8547     		li	a5,1
 1071 0016 2316F4FE 		sh	a5,-20(s0)
 340:Drivers/src/ch32v20x_tim.c **** 
 341:Drivers/src/ch32v20x_tim.c ****     if(TIM_ICInitStruct->TIM_ICPolarity == TIM_ICPolarity_Rising)
 1072              		.loc 1 341 24
 1073 001a 832784FD 		lw	a5,-40(s0)
 1074 001e BE23     		lhu	a5,2(a5)
 1075              		.loc 1 341 7
 1076 0020 89E7     		bne	a5,zero,.L27
 342:Drivers/src/ch32v20x_tim.c ****     {
 343:Drivers/src/ch32v20x_tim.c ****         icoppositepolarity = TIM_ICPolarity_Falling;
 1077              		.loc 1 343 28
 1078 0022 8947     		li	a5,2
 1079 0024 2317F4FE 		sh	a5,-18(s0)
 1080 0028 19A0     		j	.L28
 1081              	.L27:
 344:Drivers/src/ch32v20x_tim.c ****     }
 345:Drivers/src/ch32v20x_tim.c ****     else
 346:Drivers/src/ch32v20x_tim.c ****     {
 347:Drivers/src/ch32v20x_tim.c ****         icoppositepolarity = TIM_ICPolarity_Rising;
 1082              		.loc 1 347 28
 1083 002a 231704FE 		sh	zero,-18(s0)
 1084              	.L28:
 348:Drivers/src/ch32v20x_tim.c ****     }
 349:Drivers/src/ch32v20x_tim.c **** 
 350:Drivers/src/ch32v20x_tim.c ****     if(TIM_ICInitStruct->TIM_ICSelection == TIM_ICSelection_DirectTI)
 1085              		.loc 1 350 24
 1086 002e 832784FD 		lw	a5,-40(s0)
 1087 0032 DA23     		lhu	a4,4(a5)
 1088              		.loc 1 350 7
 1089 0034 8547     		li	a5,1
 1090 0036 6316F700 		bne	a4,a5,.L29
 351:Drivers/src/ch32v20x_tim.c ****     {
 352:Drivers/src/ch32v20x_tim.c ****         icoppositeselection = TIM_ICSelection_IndirectTI;
 1091              		.loc 1 352 29
 1092 003a 8947     		li	a5,2
 1093 003c 2316F4FE 		sh	a5,-20(s0)
 1094 0040 21A0     		j	.L30
 1095              	.L29:
 353:Drivers/src/ch32v20x_tim.c ****     }
 354:Drivers/src/ch32v20x_tim.c ****     else
 355:Drivers/src/ch32v20x_tim.c ****     {
 356:Drivers/src/ch32v20x_tim.c ****         icoppositeselection = TIM_ICSelection_DirectTI;
 1096              		.loc 1 356 29
 1097 0042 8547     		li	a5,1
 1098 0044 2316F4FE 		sh	a5,-20(s0)
 1099              	.L30:
 357:Drivers/src/ch32v20x_tim.c ****     }
 358:Drivers/src/ch32v20x_tim.c **** 
GAS LISTING C:\Users\SOLDER~1\AppData\Local\Temp\ccPZLIWm.s 			page 27


 359:Drivers/src/ch32v20x_tim.c ****     if(TIM_ICInitStruct->TIM_Channel == TIM_Channel_1)
 1100              		.loc 1 359 24
 1101 0048 832784FD 		lw	a5,-40(s0)
 1102 004c 9E23     		lhu	a5,0(a5)
 1103              		.loc 1 359 7
 1104 004e B5E7     		bne	a5,zero,.L31
 360:Drivers/src/ch32v20x_tim.c ****     {
 361:Drivers/src/ch32v20x_tim.c ****         TI1_Config(TIMx, TIM_ICInitStruct->TIM_ICPolarity, TIM_ICInitStruct->TIM_ICSelection,
 1105              		.loc 1 361 9
 1106 0050 832784FD 		lw	a5,-40(s0)
 1107 0054 BA23     		lhu	a4,2(a5)
 1108 0056 832784FD 		lw	a5,-40(s0)
 1109 005a D223     		lhu	a2,4(a5)
 1110 005c 832784FD 		lw	a5,-40(s0)
 1111 0060 9E27     		lhu	a5,8(a5)
 1112 0062 BE86     		mv	a3,a5
 1113 0064 BA85     		mv	a1,a4
 1114 0066 0325C4FD 		lw	a0,-36(s0)
 1115 006a 97000000 		call	TI1_Config
 1115      E7800000 
 362:Drivers/src/ch32v20x_tim.c ****                    TIM_ICInitStruct->TIM_ICFilter);
 363:Drivers/src/ch32v20x_tim.c ****         TIM_SetIC1Prescaler(TIMx, TIM_ICInitStruct->TIM_ICPrescaler);
 1116              		.loc 1 363 9
 1117 0072 832784FD 		lw	a5,-40(s0)
 1118 0076 FE23     		lhu	a5,6(a5)
 1119 0078 BE85     		mv	a1,a5
 1120 007a 0325C4FD 		lw	a0,-36(s0)
 1121 007e 97000000 		call	TIM_SetIC1Prescaler
 1121      E7800000 
 364:Drivers/src/ch32v20x_tim.c ****         TI2_Config(TIMx, icoppositepolarity, icoppositeselection, TIM_ICInitStruct->TIM_ICFilter);
 1122              		.loc 1 364 9
 1123 0086 832784FD 		lw	a5,-40(s0)
 1124 008a 9627     		lhu	a3,8(a5)
 1125 008c 0357C4FE 		lhu	a4,-20(s0)
 1126 0090 8357E4FE 		lhu	a5,-18(s0)
 1127 0094 3A86     		mv	a2,a4
 1128 0096 BE85     		mv	a1,a5
 1129 0098 0325C4FD 		lw	a0,-36(s0)
 1130 009c 97000000 		call	TI2_Config
 1130      E7800000 
 365:Drivers/src/ch32v20x_tim.c ****         TIM_SetIC2Prescaler(TIMx, TIM_ICInitStruct->TIM_ICPrescaler);
 1131              		.loc 1 365 9
 1132 00a4 832784FD 		lw	a5,-40(s0)
 1133 00a8 FE23     		lhu	a5,6(a5)
 1134 00aa BE85     		mv	a1,a5
 1135 00ac 0325C4FD 		lw	a0,-36(s0)
 1136 00b0 97000000 		call	TIM_SetIC2Prescaler
 1136      E7800000 
 366:Drivers/src/ch32v20x_tim.c ****     }
 367:Drivers/src/ch32v20x_tim.c ****     else
 368:Drivers/src/ch32v20x_tim.c ****     {
 369:Drivers/src/ch32v20x_tim.c ****         TI2_Config(TIMx, TIM_ICInitStruct->TIM_ICPolarity, TIM_ICInitStruct->TIM_ICSelection,
 370:Drivers/src/ch32v20x_tim.c ****                    TIM_ICInitStruct->TIM_ICFilter);
 371:Drivers/src/ch32v20x_tim.c ****         TIM_SetIC2Prescaler(TIMx, TIM_ICInitStruct->TIM_ICPrescaler);
 372:Drivers/src/ch32v20x_tim.c ****         TI1_Config(TIMx, icoppositepolarity, icoppositeselection, TIM_ICInitStruct->TIM_ICFilter);
 373:Drivers/src/ch32v20x_tim.c ****         TIM_SetIC1Prescaler(TIMx, TIM_ICInitStruct->TIM_ICPrescaler);
 374:Drivers/src/ch32v20x_tim.c ****     }
GAS LISTING C:\Users\SOLDER~1\AppData\Local\Temp\ccPZLIWm.s 			page 28


 375:Drivers/src/ch32v20x_tim.c **** }
 1137              		.loc 1 375 1
 1138 00b8 ADA0     		j	.L33
 1139              	.L31:
 369:Drivers/src/ch32v20x_tim.c ****                    TIM_ICInitStruct->TIM_ICFilter);
 1140              		.loc 1 369 9
 1141 00ba 832784FD 		lw	a5,-40(s0)
 1142 00be BA23     		lhu	a4,2(a5)
 1143 00c0 832784FD 		lw	a5,-40(s0)
 1144 00c4 D223     		lhu	a2,4(a5)
 1145 00c6 832784FD 		lw	a5,-40(s0)
 1146 00ca 9E27     		lhu	a5,8(a5)
 1147 00cc BE86     		mv	a3,a5
 1148 00ce BA85     		mv	a1,a4
 1149 00d0 0325C4FD 		lw	a0,-36(s0)
 1150 00d4 97000000 		call	TI2_Config
 1150      E7800000 
 371:Drivers/src/ch32v20x_tim.c ****         TI1_Config(TIMx, icoppositepolarity, icoppositeselection, TIM_ICInitStruct->TIM_ICFilter);
 1151              		.loc 1 371 9
 1152 00dc 832784FD 		lw	a5,-40(s0)
 1153 00e0 FE23     		lhu	a5,6(a5)
 1154 00e2 BE85     		mv	a1,a5
 1155 00e4 0325C4FD 		lw	a0,-36(s0)
 1156 00e8 97000000 		call	TIM_SetIC2Prescaler
 1156      E7800000 
 372:Drivers/src/ch32v20x_tim.c ****         TIM_SetIC1Prescaler(TIMx, TIM_ICInitStruct->TIM_ICPrescaler);
 1157              		.loc 1 372 9
 1158 00f0 832784FD 		lw	a5,-40(s0)
 1159 00f4 9627     		lhu	a3,8(a5)
 1160 00f6 0357C4FE 		lhu	a4,-20(s0)
 1161 00fa 8357E4FE 		lhu	a5,-18(s0)
 1162 00fe 3A86     		mv	a2,a4
 1163 0100 BE85     		mv	a1,a5
 1164 0102 0325C4FD 		lw	a0,-36(s0)
 1165 0106 97000000 		call	TI1_Config
 1165      E7800000 
 373:Drivers/src/ch32v20x_tim.c ****     }
 1166              		.loc 1 373 9
 1167 010e 832784FD 		lw	a5,-40(s0)
 1168 0112 FE23     		lhu	a5,6(a5)
 1169 0114 BE85     		mv	a1,a5
 1170 0116 0325C4FD 		lw	a0,-36(s0)
 1171 011a 97000000 		call	TIM_SetIC1Prescaler
 1171      E7800000 
 1172              	.L33:
 1173              		.loc 1 375 1
 1174 0122 0100     		nop
 1175 0124 B250     		lw	ra,44(sp)
 1176              		.cfi_restore 1
 1177 0126 2254     		lw	s0,40(sp)
 1178              		.cfi_restore 8
 1179              		.cfi_def_cfa 2, 48
 1180 0128 4561     		addi	sp,sp,48
 1181              		.cfi_def_cfa_offset 0
 1182 012a 8280     		jr	ra
 1183              		.cfi_endproc
 1184              	.LFE23:
GAS LISTING C:\Users\SOLDER~1\AppData\Local\Temp\ccPZLIWm.s 			page 29


 1186              		.section	.text.TIM_BDTRConfig,"ax",@progbits
 1187              		.align	1
 1188              		.globl	TIM_BDTRConfig
 1190              	TIM_BDTRConfig:
 1191              	.LFB24:
 376:Drivers/src/ch32v20x_tim.c **** 
 377:Drivers/src/ch32v20x_tim.c **** /*********************************************************************
 378:Drivers/src/ch32v20x_tim.c ****  * @fn      TIM_BDTRConfig
 379:Drivers/src/ch32v20x_tim.c ****  *
 380:Drivers/src/ch32v20x_tim.c ****  * @brief   Configures the: Break feature, dead time, Lock level, the OSSI,
 381:Drivers/src/ch32v20x_tim.c ****  *      the OSSR State and the AOE(automatic output enable).
 382:Drivers/src/ch32v20x_tim.c ****  *
 383:Drivers/src/ch32v20x_tim.c ****  * @param   TIMx - where x can be 1 to 4 to select the TIM peripheral.
 384:Drivers/src/ch32v20x_tim.c ****  *          TIM_BDTRInitStruct - pointer to a TIM_BDTRInitTypeDef structure.
 385:Drivers/src/ch32v20x_tim.c ****  *
 386:Drivers/src/ch32v20x_tim.c ****  * @return  none
 387:Drivers/src/ch32v20x_tim.c ****  */
 388:Drivers/src/ch32v20x_tim.c **** void TIM_BDTRConfig(TIM_TypeDef *TIMx, TIM_BDTRInitTypeDef *TIM_BDTRInitStruct)
 389:Drivers/src/ch32v20x_tim.c **** {
 1192              		.loc 1 389 1
 1193              		.cfi_startproc
 1194 0000 0111     		addi	sp,sp,-32
 1195              		.cfi_def_cfa_offset 32
 1196 0002 22CE     		sw	s0,28(sp)
 1197              		.cfi_offset 8, -4
 1198 0004 0010     		addi	s0,sp,32
 1199              		.cfi_def_cfa 8, 0
 1200 0006 2326A4FE 		sw	a0,-20(s0)
 1201 000a 2324B4FE 		sw	a1,-24(s0)
 390:Drivers/src/ch32v20x_tim.c ****     TIMx->BDTR = (uint32_t)TIM_BDTRInitStruct->TIM_OSSRState | TIM_BDTRInitStruct->TIM_OSSIState |
 1202              		.loc 1 390 46
 1203 000e 832784FE 		lw	a5,-24(s0)
 1204 0012 9A23     		lhu	a4,0(a5)
 1205              		.loc 1 390 82
 1206 0014 832784FE 		lw	a5,-24(s0)
 1207 0018 BE23     		lhu	a5,2(a5)
 1208              		.loc 1 390 16
 1209 001a D98F     		or	a5,a4,a5
 1210 001c 13970701 		slli	a4,a5,16
 1211 0020 4183     		srli	a4,a4,16
 391:Drivers/src/ch32v20x_tim.c ****                  TIM_BDTRInitStruct->TIM_LOCKLevel | TIM_BDTRInitStruct->TIM_DeadTime |
 1212              		.loc 1 391 36
 1213 0022 832784FE 		lw	a5,-24(s0)
 1214 0026 DE23     		lhu	a5,4(a5)
 390:Drivers/src/ch32v20x_tim.c ****     TIMx->BDTR = (uint32_t)TIM_BDTRInitStruct->TIM_OSSRState | TIM_BDTRInitStruct->TIM_OSSIState |
 1215              		.loc 1 390 16
 1216 0028 D98F     		or	a5,a4,a5
 1217 002a 13970701 		slli	a4,a5,16
 1218 002e 4183     		srli	a4,a4,16
 1219              		.loc 1 391 72
 1220 0030 832784FE 		lw	a5,-24(s0)
 1221 0034 FE23     		lhu	a5,6(a5)
 390:Drivers/src/ch32v20x_tim.c ****     TIMx->BDTR = (uint32_t)TIM_BDTRInitStruct->TIM_OSSRState | TIM_BDTRInitStruct->TIM_OSSIState |
 1222              		.loc 1 390 16
 1223 0036 D98F     		or	a5,a4,a5
 1224 0038 13970701 		slli	a4,a5,16
 1225 003c 4183     		srli	a4,a4,16
GAS LISTING C:\Users\SOLDER~1\AppData\Local\Temp\ccPZLIWm.s 			page 30


 392:Drivers/src/ch32v20x_tim.c ****                  TIM_BDTRInitStruct->TIM_Break | TIM_BDTRInitStruct->TIM_BreakPolarity |
 1226              		.loc 1 392 36
 1227 003e 832784FE 		lw	a5,-24(s0)
 1228 0042 9E27     		lhu	a5,8(a5)
 390:Drivers/src/ch32v20x_tim.c ****     TIMx->BDTR = (uint32_t)TIM_BDTRInitStruct->TIM_OSSRState | TIM_BDTRInitStruct->TIM_OSSIState |
 1229              		.loc 1 390 16
 1230 0044 D98F     		or	a5,a4,a5
 1231 0046 13970701 		slli	a4,a5,16
 1232 004a 4183     		srli	a4,a4,16
 1233              		.loc 1 392 68
 1234 004c 832784FE 		lw	a5,-24(s0)
 1235 0050 BE27     		lhu	a5,10(a5)
 390:Drivers/src/ch32v20x_tim.c ****     TIMx->BDTR = (uint32_t)TIM_BDTRInitStruct->TIM_OSSRState | TIM_BDTRInitStruct->TIM_OSSIState |
 1236              		.loc 1 390 16
 1237 0052 D98F     		or	a5,a4,a5
 1238 0054 13970701 		slli	a4,a5,16
 1239 0058 4183     		srli	a4,a4,16
 393:Drivers/src/ch32v20x_tim.c ****                  TIM_BDTRInitStruct->TIM_AutomaticOutput;
 1240              		.loc 1 393 36
 1241 005a 832784FE 		lw	a5,-24(s0)
 1242 005e DE27     		lhu	a5,12(a5)
 390:Drivers/src/ch32v20x_tim.c ****                  TIM_BDTRInitStruct->TIM_LOCKLevel | TIM_BDTRInitStruct->TIM_DeadTime |
 1243              		.loc 1 390 16
 1244 0060 D98F     		or	a5,a4,a5
 1245 0062 13970701 		slli	a4,a5,16
 1246 0066 4183     		srli	a4,a4,16
 1247 0068 8327C4FE 		lw	a5,-20(s0)
 1248 006c 2392E704 		sh	a4,68(a5)
 394:Drivers/src/ch32v20x_tim.c **** }
 1249              		.loc 1 394 1
 1250 0070 0100     		nop
 1251 0072 7244     		lw	s0,28(sp)
 1252              		.cfi_restore 8
 1253              		.cfi_def_cfa 2, 32
 1254 0074 0561     		addi	sp,sp,32
 1255              		.cfi_def_cfa_offset 0
 1256 0076 8280     		jr	ra
 1257              		.cfi_endproc
 1258              	.LFE24:
 1260              		.section	.text.TIM_TimeBaseStructInit,"ax",@progbits
 1261              		.align	1
 1262              		.globl	TIM_TimeBaseStructInit
 1264              	TIM_TimeBaseStructInit:
 1265              	.LFB25:
 395:Drivers/src/ch32v20x_tim.c **** 
 396:Drivers/src/ch32v20x_tim.c **** /*********************************************************************
 397:Drivers/src/ch32v20x_tim.c ****  * @fn      TIM_TimeBaseStructInit
 398:Drivers/src/ch32v20x_tim.c ****  *
 399:Drivers/src/ch32v20x_tim.c ****  * @brief   Fills each TIM_TimeBaseInitStruct member with its default value.
 400:Drivers/src/ch32v20x_tim.c ****  *
 401:Drivers/src/ch32v20x_tim.c ****  * @param   TIM_TimeBaseInitStruct - pointer to a TIM_TimeBaseInitTypeDef structure.
 402:Drivers/src/ch32v20x_tim.c ****  *
 403:Drivers/src/ch32v20x_tim.c ****  * @return  none
 404:Drivers/src/ch32v20x_tim.c ****  */
 405:Drivers/src/ch32v20x_tim.c **** void TIM_TimeBaseStructInit(TIM_TimeBaseInitTypeDef *TIM_TimeBaseInitStruct)
 406:Drivers/src/ch32v20x_tim.c **** {
 1266              		.loc 1 406 1
GAS LISTING C:\Users\SOLDER~1\AppData\Local\Temp\ccPZLIWm.s 			page 31


 1267              		.cfi_startproc
 1268 0000 0111     		addi	sp,sp,-32
 1269              		.cfi_def_cfa_offset 32
 1270 0002 22CE     		sw	s0,28(sp)
 1271              		.cfi_offset 8, -4
 1272 0004 0010     		addi	s0,sp,32
 1273              		.cfi_def_cfa 8, 0
 1274 0006 2326A4FE 		sw	a0,-20(s0)
 407:Drivers/src/ch32v20x_tim.c ****     TIM_TimeBaseInitStruct->TIM_Period = 0xFFFF;
 1275              		.loc 1 407 40
 1276 000a 8327C4FE 		lw	a5,-20(s0)
 1277 000e 7D57     		li	a4,-1
 1278 0010 DAA3     		sh	a4,4(a5)
 408:Drivers/src/ch32v20x_tim.c ****     TIM_TimeBaseInitStruct->TIM_Prescaler = 0x0000;
 1279              		.loc 1 408 43
 1280 0012 8327C4FE 		lw	a5,-20(s0)
 1281 0016 23900700 		sh	zero,0(a5)
 409:Drivers/src/ch32v20x_tim.c ****     TIM_TimeBaseInitStruct->TIM_ClockDivision = TIM_CKD_DIV1;
 1282              		.loc 1 409 47
 1283 001a 8327C4FE 		lw	a5,-20(s0)
 1284 001e 23930700 		sh	zero,6(a5)
 410:Drivers/src/ch32v20x_tim.c ****     TIM_TimeBaseInitStruct->TIM_CounterMode = TIM_CounterMode_Up;
 1285              		.loc 1 410 45
 1286 0022 8327C4FE 		lw	a5,-20(s0)
 1287 0026 23910700 		sh	zero,2(a5)
 411:Drivers/src/ch32v20x_tim.c ****     TIM_TimeBaseInitStruct->TIM_RepetitionCounter = 0x0000;
 1288              		.loc 1 411 51
 1289 002a 8327C4FE 		lw	a5,-20(s0)
 1290 002e 23840700 		sb	zero,8(a5)
 412:Drivers/src/ch32v20x_tim.c **** }
 1291              		.loc 1 412 1
 1292 0032 0100     		nop
 1293 0034 7244     		lw	s0,28(sp)
 1294              		.cfi_restore 8
 1295              		.cfi_def_cfa 2, 32
 1296 0036 0561     		addi	sp,sp,32
 1297              		.cfi_def_cfa_offset 0
 1298 0038 8280     		jr	ra
 1299              		.cfi_endproc
 1300              	.LFE25:
 1302              		.section	.text.TIM_OCStructInit,"ax",@progbits
 1303              		.align	1
 1304              		.globl	TIM_OCStructInit
 1306              	TIM_OCStructInit:
 1307              	.LFB26:
 413:Drivers/src/ch32v20x_tim.c **** 
 414:Drivers/src/ch32v20x_tim.c **** /*********************************************************************
 415:Drivers/src/ch32v20x_tim.c ****  * @fn      TIM_OCStructInit
 416:Drivers/src/ch32v20x_tim.c ****  *
 417:Drivers/src/ch32v20x_tim.c ****  * @brief   Fills each TIM_OCInitStruct member with its default value.
 418:Drivers/src/ch32v20x_tim.c ****  *
 419:Drivers/src/ch32v20x_tim.c ****  * @param   TIM_OCInitStruct - pointer to a TIM_OCInitTypeDef structure.
 420:Drivers/src/ch32v20x_tim.c ****  *
 421:Drivers/src/ch32v20x_tim.c ****  * @return  none
 422:Drivers/src/ch32v20x_tim.c ****  */
 423:Drivers/src/ch32v20x_tim.c **** void TIM_OCStructInit(TIM_OCInitTypeDef *TIM_OCInitStruct)
 424:Drivers/src/ch32v20x_tim.c **** {
GAS LISTING C:\Users\SOLDER~1\AppData\Local\Temp\ccPZLIWm.s 			page 32


 1308              		.loc 1 424 1
 1309              		.cfi_startproc
 1310 0000 0111     		addi	sp,sp,-32
 1311              		.cfi_def_cfa_offset 32
 1312 0002 22CE     		sw	s0,28(sp)
 1313              		.cfi_offset 8, -4
 1314 0004 0010     		addi	s0,sp,32
 1315              		.cfi_def_cfa 8, 0
 1316 0006 2326A4FE 		sw	a0,-20(s0)
 425:Drivers/src/ch32v20x_tim.c ****     TIM_OCInitStruct->TIM_OCMode = TIM_OCMode_Timing;
 1317              		.loc 1 425 34
 1318 000a 8327C4FE 		lw	a5,-20(s0)
 1319 000e 23900700 		sh	zero,0(a5)
 426:Drivers/src/ch32v20x_tim.c ****     TIM_OCInitStruct->TIM_OutputState = TIM_OutputState_Disable;
 1320              		.loc 1 426 39
 1321 0012 8327C4FE 		lw	a5,-20(s0)
 1322 0016 23910700 		sh	zero,2(a5)
 427:Drivers/src/ch32v20x_tim.c ****     TIM_OCInitStruct->TIM_OutputNState = TIM_OutputNState_Disable;
 1323              		.loc 1 427 40
 1324 001a 8327C4FE 		lw	a5,-20(s0)
 1325 001e 23920700 		sh	zero,4(a5)
 428:Drivers/src/ch32v20x_tim.c ****     TIM_OCInitStruct->TIM_Pulse = 0x0000;
 1326              		.loc 1 428 33
 1327 0022 8327C4FE 		lw	a5,-20(s0)
 1328 0026 23930700 		sh	zero,6(a5)
 429:Drivers/src/ch32v20x_tim.c ****     TIM_OCInitStruct->TIM_OCPolarity = TIM_OCPolarity_High;
 1329              		.loc 1 429 38
 1330 002a 8327C4FE 		lw	a5,-20(s0)
 1331 002e 23940700 		sh	zero,8(a5)
 430:Drivers/src/ch32v20x_tim.c ****     TIM_OCInitStruct->TIM_OCNPolarity = TIM_OCPolarity_High;
 1332              		.loc 1 430 39
 1333 0032 8327C4FE 		lw	a5,-20(s0)
 1334 0036 23950700 		sh	zero,10(a5)
 431:Drivers/src/ch32v20x_tim.c ****     TIM_OCInitStruct->TIM_OCIdleState = TIM_OCIdleState_Reset;
 1335              		.loc 1 431 39
 1336 003a 8327C4FE 		lw	a5,-20(s0)
 1337 003e 23960700 		sh	zero,12(a5)
 432:Drivers/src/ch32v20x_tim.c ****     TIM_OCInitStruct->TIM_OCNIdleState = TIM_OCNIdleState_Reset;
 1338              		.loc 1 432 40
 1339 0042 8327C4FE 		lw	a5,-20(s0)
 1340 0046 23970700 		sh	zero,14(a5)
 433:Drivers/src/ch32v20x_tim.c **** }
 1341              		.loc 1 433 1
 1342 004a 0100     		nop
 1343 004c 7244     		lw	s0,28(sp)
 1344              		.cfi_restore 8
 1345              		.cfi_def_cfa 2, 32
 1346 004e 0561     		addi	sp,sp,32
 1347              		.cfi_def_cfa_offset 0
 1348 0050 8280     		jr	ra
 1349              		.cfi_endproc
 1350              	.LFE26:
 1352              		.section	.text.TIM_ICStructInit,"ax",@progbits
 1353              		.align	1
 1354              		.globl	TIM_ICStructInit
 1356              	TIM_ICStructInit:
 1357              	.LFB27:
GAS LISTING C:\Users\SOLDER~1\AppData\Local\Temp\ccPZLIWm.s 			page 33


 434:Drivers/src/ch32v20x_tim.c **** 
 435:Drivers/src/ch32v20x_tim.c **** /*********************************************************************
 436:Drivers/src/ch32v20x_tim.c ****  * @fn      TIM_ICStructInit
 437:Drivers/src/ch32v20x_tim.c ****  *
 438:Drivers/src/ch32v20x_tim.c ****  * @brief   Fills each TIM_ICInitStruct member with its default value.
 439:Drivers/src/ch32v20x_tim.c ****  *
 440:Drivers/src/ch32v20x_tim.c ****  * @param   TIM_ICInitStruct - pointer to a TIM_ICInitTypeDef structure.
 441:Drivers/src/ch32v20x_tim.c ****  *
 442:Drivers/src/ch32v20x_tim.c ****  * @return  none
 443:Drivers/src/ch32v20x_tim.c ****  */
 444:Drivers/src/ch32v20x_tim.c **** void TIM_ICStructInit(TIM_ICInitTypeDef *TIM_ICInitStruct)
 445:Drivers/src/ch32v20x_tim.c **** {
 1358              		.loc 1 445 1
 1359              		.cfi_startproc
 1360 0000 0111     		addi	sp,sp,-32
 1361              		.cfi_def_cfa_offset 32
 1362 0002 22CE     		sw	s0,28(sp)
 1363              		.cfi_offset 8, -4
 1364 0004 0010     		addi	s0,sp,32
 1365              		.cfi_def_cfa 8, 0
 1366 0006 2326A4FE 		sw	a0,-20(s0)
 446:Drivers/src/ch32v20x_tim.c ****     TIM_ICInitStruct->TIM_Channel = TIM_Channel_1;
 1367              		.loc 1 446 35
 1368 000a 8327C4FE 		lw	a5,-20(s0)
 1369 000e 23900700 		sh	zero,0(a5)
 447:Drivers/src/ch32v20x_tim.c ****     TIM_ICInitStruct->TIM_ICPolarity = TIM_ICPolarity_Rising;
 1370              		.loc 1 447 38
 1371 0012 8327C4FE 		lw	a5,-20(s0)
 1372 0016 23910700 		sh	zero,2(a5)
 448:Drivers/src/ch32v20x_tim.c ****     TIM_ICInitStruct->TIM_ICSelection = TIM_ICSelection_DirectTI;
 1373              		.loc 1 448 39
 1374 001a 8327C4FE 		lw	a5,-20(s0)
 1375 001e 0547     		li	a4,1
 1376 0020 DAA3     		sh	a4,4(a5)
 449:Drivers/src/ch32v20x_tim.c ****     TIM_ICInitStruct->TIM_ICPrescaler = TIM_ICPSC_DIV1;
 1377              		.loc 1 449 39
 1378 0022 8327C4FE 		lw	a5,-20(s0)
 1379 0026 23930700 		sh	zero,6(a5)
 450:Drivers/src/ch32v20x_tim.c ****     TIM_ICInitStruct->TIM_ICFilter = 0x00;
 1380              		.loc 1 450 36
 1381 002a 8327C4FE 		lw	a5,-20(s0)
 1382 002e 23940700 		sh	zero,8(a5)
 451:Drivers/src/ch32v20x_tim.c **** }
 1383              		.loc 1 451 1
 1384 0032 0100     		nop
 1385 0034 7244     		lw	s0,28(sp)
 1386              		.cfi_restore 8
 1387              		.cfi_def_cfa 2, 32
 1388 0036 0561     		addi	sp,sp,32
 1389              		.cfi_def_cfa_offset 0
 1390 0038 8280     		jr	ra
 1391              		.cfi_endproc
 1392              	.LFE27:
 1394              		.section	.text.TIM_BDTRStructInit,"ax",@progbits
 1395              		.align	1
 1396              		.globl	TIM_BDTRStructInit
 1398              	TIM_BDTRStructInit:
GAS LISTING C:\Users\SOLDER~1\AppData\Local\Temp\ccPZLIWm.s 			page 34


 1399              	.LFB28:
 452:Drivers/src/ch32v20x_tim.c **** 
 453:Drivers/src/ch32v20x_tim.c **** /*********************************************************************
 454:Drivers/src/ch32v20x_tim.c ****  * @fn      TIM_BDTRStructInit
 455:Drivers/src/ch32v20x_tim.c ****  *
 456:Drivers/src/ch32v20x_tim.c ****  * @brief   Fills each TIM_BDTRInitStruct member with its default value.
 457:Drivers/src/ch32v20x_tim.c ****  *
 458:Drivers/src/ch32v20x_tim.c ****  * @param   TIM_BDTRInitStruct - pointer to a TIM_BDTRInitTypeDef structure.
 459:Drivers/src/ch32v20x_tim.c ****  *
 460:Drivers/src/ch32v20x_tim.c ****  * @return  none
 461:Drivers/src/ch32v20x_tim.c ****  */
 462:Drivers/src/ch32v20x_tim.c **** void TIM_BDTRStructInit(TIM_BDTRInitTypeDef *TIM_BDTRInitStruct)
 463:Drivers/src/ch32v20x_tim.c **** {
 1400              		.loc 1 463 1
 1401              		.cfi_startproc
 1402 0000 0111     		addi	sp,sp,-32
 1403              		.cfi_def_cfa_offset 32
 1404 0002 22CE     		sw	s0,28(sp)
 1405              		.cfi_offset 8, -4
 1406 0004 0010     		addi	s0,sp,32
 1407              		.cfi_def_cfa 8, 0
 1408 0006 2326A4FE 		sw	a0,-20(s0)
 464:Drivers/src/ch32v20x_tim.c ****     TIM_BDTRInitStruct->TIM_OSSRState = TIM_OSSRState_Disable;
 1409              		.loc 1 464 39
 1410 000a 8327C4FE 		lw	a5,-20(s0)
 1411 000e 23900700 		sh	zero,0(a5)
 465:Drivers/src/ch32v20x_tim.c ****     TIM_BDTRInitStruct->TIM_OSSIState = TIM_OSSIState_Disable;
 1412              		.loc 1 465 39
 1413 0012 8327C4FE 		lw	a5,-20(s0)
 1414 0016 23910700 		sh	zero,2(a5)
 466:Drivers/src/ch32v20x_tim.c ****     TIM_BDTRInitStruct->TIM_LOCKLevel = TIM_LOCKLevel_OFF;
 1415              		.loc 1 466 39
 1416 001a 8327C4FE 		lw	a5,-20(s0)
 1417 001e 23920700 		sh	zero,4(a5)
 467:Drivers/src/ch32v20x_tim.c ****     TIM_BDTRInitStruct->TIM_DeadTime = 0x00;
 1418              		.loc 1 467 38
 1419 0022 8327C4FE 		lw	a5,-20(s0)
 1420 0026 23930700 		sh	zero,6(a5)
 468:Drivers/src/ch32v20x_tim.c ****     TIM_BDTRInitStruct->TIM_Break = TIM_Break_Disable;
 1421              		.loc 1 468 35
 1422 002a 8327C4FE 		lw	a5,-20(s0)
 1423 002e 23940700 		sh	zero,8(a5)
 469:Drivers/src/ch32v20x_tim.c ****     TIM_BDTRInitStruct->TIM_BreakPolarity = TIM_BreakPolarity_Low;
 1424              		.loc 1 469 43
 1425 0032 8327C4FE 		lw	a5,-20(s0)
 1426 0036 23950700 		sh	zero,10(a5)
 470:Drivers/src/ch32v20x_tim.c ****     TIM_BDTRInitStruct->TIM_AutomaticOutput = TIM_AutomaticOutput_Disable;
 1427              		.loc 1 470 45
 1428 003a 8327C4FE 		lw	a5,-20(s0)
 1429 003e 23960700 		sh	zero,12(a5)
 471:Drivers/src/ch32v20x_tim.c **** }
 1430              		.loc 1 471 1
 1431 0042 0100     		nop
 1432 0044 7244     		lw	s0,28(sp)
 1433              		.cfi_restore 8
 1434              		.cfi_def_cfa 2, 32
 1435 0046 0561     		addi	sp,sp,32
GAS LISTING C:\Users\SOLDER~1\AppData\Local\Temp\ccPZLIWm.s 			page 35


 1436              		.cfi_def_cfa_offset 0
 1437 0048 8280     		jr	ra
 1438              		.cfi_endproc
 1439              	.LFE28:
 1441              		.section	.text.TIM_Cmd,"ax",@progbits
 1442              		.align	1
 1443              		.globl	TIM_Cmd
 1445              	TIM_Cmd:
 1446              	.LFB29:
 472:Drivers/src/ch32v20x_tim.c **** 
 473:Drivers/src/ch32v20x_tim.c **** /*********************************************************************
 474:Drivers/src/ch32v20x_tim.c ****  * @fn      TIM_Cmd
 475:Drivers/src/ch32v20x_tim.c ****  *
 476:Drivers/src/ch32v20x_tim.c ****  * @brief   Enables or disables the specified TIM peripheral.
 477:Drivers/src/ch32v20x_tim.c ****  *
 478:Drivers/src/ch32v20x_tim.c ****  * @param   TIMx - where x can be 1 to 4 to select the TIM peripheral.
 479:Drivers/src/ch32v20x_tim.c ****  *          NewState - ENABLE or DISABLE.
 480:Drivers/src/ch32v20x_tim.c ****  *
 481:Drivers/src/ch32v20x_tim.c ****  * @return  none
 482:Drivers/src/ch32v20x_tim.c ****  */
 483:Drivers/src/ch32v20x_tim.c **** void TIM_Cmd(TIM_TypeDef *TIMx, FunctionalState NewState)
 484:Drivers/src/ch32v20x_tim.c **** {
 1447              		.loc 1 484 1
 1448              		.cfi_startproc
 1449 0000 0111     		addi	sp,sp,-32
 1450              		.cfi_def_cfa_offset 32
 1451 0002 22CE     		sw	s0,28(sp)
 1452              		.cfi_offset 8, -4
 1453 0004 0010     		addi	s0,sp,32
 1454              		.cfi_def_cfa 8, 0
 1455 0006 2326A4FE 		sw	a0,-20(s0)
 1456 000a 2324B4FE 		sw	a1,-24(s0)
 485:Drivers/src/ch32v20x_tim.c ****     if(NewState != DISABLE)
 1457              		.loc 1 485 7
 1458 000e 832784FE 		lw	a5,-24(s0)
 1459 0012 99CF     		beq	a5,zero,.L40
 486:Drivers/src/ch32v20x_tim.c ****     {
 487:Drivers/src/ch32v20x_tim.c ****         TIMx->CTLR1 |= TIM_CEN;
 1460              		.loc 1 487 13
 1461 0014 8327C4FE 		lw	a5,-20(s0)
 1462 0018 9E23     		lhu	a5,0(a5)
 1463 001a C207     		slli	a5,a5,16
 1464 001c C183     		srli	a5,a5,16
 1465              		.loc 1 487 21
 1466 001e 93E71700 		ori	a5,a5,1
 1467 0022 13970701 		slli	a4,a5,16
 1468 0026 4183     		srli	a4,a4,16
 1469 0028 8327C4FE 		lw	a5,-20(s0)
 1470 002c 9AA3     		sh	a4,0(a5)
 488:Drivers/src/ch32v20x_tim.c ****     }
 489:Drivers/src/ch32v20x_tim.c ****     else
 490:Drivers/src/ch32v20x_tim.c ****     {
 491:Drivers/src/ch32v20x_tim.c ****         TIMx->CTLR1 &= (uint16_t)(~((uint16_t)TIM_CEN));
 492:Drivers/src/ch32v20x_tim.c ****     }
 493:Drivers/src/ch32v20x_tim.c **** }
 1471              		.loc 1 493 1
 1472 002e 29A8     		j	.L42
GAS LISTING C:\Users\SOLDER~1\AppData\Local\Temp\ccPZLIWm.s 			page 36


 1473              	.L40:
 491:Drivers/src/ch32v20x_tim.c ****     }
 1474              		.loc 1 491 13
 1475 0030 8327C4FE 		lw	a5,-20(s0)
 1476 0034 9E23     		lhu	a5,0(a5)
 1477 0036 C207     		slli	a5,a5,16
 1478 0038 C183     		srli	a5,a5,16
 491:Drivers/src/ch32v20x_tim.c ****     }
 1479              		.loc 1 491 21
 1480 003a F99B     		andi	a5,a5,-2
 1481 003c 13970701 		slli	a4,a5,16
 1482 0040 4183     		srli	a4,a4,16
 1483 0042 8327C4FE 		lw	a5,-20(s0)
 1484 0046 9AA3     		sh	a4,0(a5)
 1485              	.L42:
 1486              		.loc 1 493 1
 1487 0048 0100     		nop
 1488 004a 7244     		lw	s0,28(sp)
 1489              		.cfi_restore 8
 1490              		.cfi_def_cfa 2, 32
 1491 004c 0561     		addi	sp,sp,32
 1492              		.cfi_def_cfa_offset 0
 1493 004e 8280     		jr	ra
 1494              		.cfi_endproc
 1495              	.LFE29:
 1497              		.section	.text.TIM_CtrlPWMOutputs,"ax",@progbits
 1498              		.align	1
 1499              		.globl	TIM_CtrlPWMOutputs
 1501              	TIM_CtrlPWMOutputs:
 1502              	.LFB30:
 494:Drivers/src/ch32v20x_tim.c **** 
 495:Drivers/src/ch32v20x_tim.c **** /*********************************************************************
 496:Drivers/src/ch32v20x_tim.c ****  * @fn      TIM_CtrlPWMOutputs
 497:Drivers/src/ch32v20x_tim.c ****  *
 498:Drivers/src/ch32v20x_tim.c ****  * @brief   Enables or disables the TIM peripheral Main Outputs.
 499:Drivers/src/ch32v20x_tim.c ****  *
 500:Drivers/src/ch32v20x_tim.c ****  * @param   TIMx - where x can be 1 to 4 to select the TIM peripheral.
 501:Drivers/src/ch32v20x_tim.c ****  *          NewState - ENABLE or DISABLE.
 502:Drivers/src/ch32v20x_tim.c ****  *
 503:Drivers/src/ch32v20x_tim.c ****  * @return  none
 504:Drivers/src/ch32v20x_tim.c ****  */
 505:Drivers/src/ch32v20x_tim.c **** void TIM_CtrlPWMOutputs(TIM_TypeDef *TIMx, FunctionalState NewState)
 506:Drivers/src/ch32v20x_tim.c **** {
 1503              		.loc 1 506 1
 1504              		.cfi_startproc
 1505 0000 0111     		addi	sp,sp,-32
 1506              		.cfi_def_cfa_offset 32
 1507 0002 22CE     		sw	s0,28(sp)
 1508              		.cfi_offset 8, -4
 1509 0004 0010     		addi	s0,sp,32
 1510              		.cfi_def_cfa 8, 0
 1511 0006 2326A4FE 		sw	a0,-20(s0)
 1512 000a 2324B4FE 		sw	a1,-24(s0)
 507:Drivers/src/ch32v20x_tim.c ****     if(NewState != DISABLE)
 1513              		.loc 1 507 7
 1514 000e 832784FE 		lw	a5,-24(s0)
 1515 0012 95C3     		beq	a5,zero,.L44
GAS LISTING C:\Users\SOLDER~1\AppData\Local\Temp\ccPZLIWm.s 			page 37


 508:Drivers/src/ch32v20x_tim.c ****     {
 509:Drivers/src/ch32v20x_tim.c ****         TIMx->BDTR |= TIM_MOE;
 1516              		.loc 1 509 13
 1517 0014 8327C4FE 		lw	a5,-20(s0)
 1518 0018 83D74704 		lhu	a5,68(a5)
 1519 001c 13970701 		slli	a4,a5,16
 1520 0020 4183     		srli	a4,a4,16
 1521              		.loc 1 509 20
 1522 0022 E177     		li	a5,-32768
 1523 0024 D98F     		or	a5,a4,a5
 1524 0026 13970701 		slli	a4,a5,16
 1525 002a 4183     		srli	a4,a4,16
 1526 002c 8327C4FE 		lw	a5,-20(s0)
 1527 0030 2392E704 		sh	a4,68(a5)
 510:Drivers/src/ch32v20x_tim.c ****     }
 511:Drivers/src/ch32v20x_tim.c ****     else
 512:Drivers/src/ch32v20x_tim.c ****     {
 513:Drivers/src/ch32v20x_tim.c ****         TIMx->BDTR &= (uint16_t)(~((uint16_t)TIM_MOE));
 514:Drivers/src/ch32v20x_tim.c ****     }
 515:Drivers/src/ch32v20x_tim.c **** }
 1528              		.loc 1 515 1
 1529 0034 15A0     		j	.L46
 1530              	.L44:
 513:Drivers/src/ch32v20x_tim.c ****     }
 1531              		.loc 1 513 13
 1532 0036 8327C4FE 		lw	a5,-20(s0)
 1533 003a 83D74704 		lhu	a5,68(a5)
 1534 003e 13970701 		slli	a4,a5,16
 1535 0042 4183     		srli	a4,a4,16
 513:Drivers/src/ch32v20x_tim.c ****     }
 1536              		.loc 1 513 20
 1537 0044 A167     		li	a5,32768
 1538 0046 FD17     		addi	a5,a5,-1
 1539 0048 F98F     		and	a5,a4,a5
 1540 004a 13970701 		slli	a4,a5,16
 1541 004e 4183     		srli	a4,a4,16
 1542 0050 8327C4FE 		lw	a5,-20(s0)
 1543 0054 2392E704 		sh	a4,68(a5)
 1544              	.L46:
 1545              		.loc 1 515 1
 1546 0058 0100     		nop
 1547 005a 7244     		lw	s0,28(sp)
 1548              		.cfi_restore 8
 1549              		.cfi_def_cfa 2, 32
 1550 005c 0561     		addi	sp,sp,32
 1551              		.cfi_def_cfa_offset 0
 1552 005e 8280     		jr	ra
 1553              		.cfi_endproc
 1554              	.LFE30:
 1556              		.section	.text.TIM_ITConfig,"ax",@progbits
 1557              		.align	1
 1558              		.globl	TIM_ITConfig
 1560              	TIM_ITConfig:
 1561              	.LFB31:
 516:Drivers/src/ch32v20x_tim.c **** 
 517:Drivers/src/ch32v20x_tim.c **** /*********************************************************************
 518:Drivers/src/ch32v20x_tim.c ****  * @fn      TIM_ITConfig
GAS LISTING C:\Users\SOLDER~1\AppData\Local\Temp\ccPZLIWm.s 			page 38


 519:Drivers/src/ch32v20x_tim.c ****  *
 520:Drivers/src/ch32v20x_tim.c ****  * @brief   Enables or disables the specified TIM interrupts.
 521:Drivers/src/ch32v20x_tim.c ****  *
 522:Drivers/src/ch32v20x_tim.c ****  * @param   TIMx - where x can be 1 to 4 to select the TIM peripheral.
 523:Drivers/src/ch32v20x_tim.c ****  *          TIM_IT - specifies the TIM interrupts sources to be enabled or disabled.
 524:Drivers/src/ch32v20x_tim.c ****  *            TIM_IT_Update - TIM update Interrupt source.
 525:Drivers/src/ch32v20x_tim.c ****  *            TIM_IT_CC1 - TIM Capture Compare 1 Interrupt source.
 526:Drivers/src/ch32v20x_tim.c ****  *            TIM_IT_CC2 - TIM Capture Compare 2 Interrupt source
 527:Drivers/src/ch32v20x_tim.c ****  *            TIM_IT_CC3 - TIM Capture Compare 3 Interrupt source.
 528:Drivers/src/ch32v20x_tim.c ****  *            TIM_IT_CC4 - TIM Capture Compare 4 Interrupt source.
 529:Drivers/src/ch32v20x_tim.c ****  *            TIM_IT_COM - TIM Commutation Interrupt source.
 530:Drivers/src/ch32v20x_tim.c ****  *            TIM_IT_Trigger - TIM Trigger Interrupt source.
 531:Drivers/src/ch32v20x_tim.c ****  *            TIM_IT_Break - TIM Break Interrupt source.
 532:Drivers/src/ch32v20x_tim.c ****  *          NewState - ENABLE or DISABLE.
 533:Drivers/src/ch32v20x_tim.c ****  *
 534:Drivers/src/ch32v20x_tim.c ****  * @return  none
 535:Drivers/src/ch32v20x_tim.c ****  */
 536:Drivers/src/ch32v20x_tim.c **** void TIM_ITConfig(TIM_TypeDef *TIMx, uint16_t TIM_IT, FunctionalState NewState)
 537:Drivers/src/ch32v20x_tim.c **** {
 1562              		.loc 1 537 1
 1563              		.cfi_startproc
 1564 0000 0111     		addi	sp,sp,-32
 1565              		.cfi_def_cfa_offset 32
 1566 0002 22CE     		sw	s0,28(sp)
 1567              		.cfi_offset 8, -4
 1568 0004 0010     		addi	s0,sp,32
 1569              		.cfi_def_cfa 8, 0
 1570 0006 2326A4FE 		sw	a0,-20(s0)
 1571 000a AE87     		mv	a5,a1
 1572 000c 2322C4FE 		sw	a2,-28(s0)
 1573 0010 2315F4FE 		sh	a5,-22(s0)
 538:Drivers/src/ch32v20x_tim.c ****     if(NewState != DISABLE)
 1574              		.loc 1 538 7
 1575 0014 832744FE 		lw	a5,-28(s0)
 1576 0018 85C3     		beq	a5,zero,.L48
 539:Drivers/src/ch32v20x_tim.c ****     {
 540:Drivers/src/ch32v20x_tim.c ****         TIMx->DMAINTENR |= TIM_IT;
 1577              		.loc 1 540 13
 1578 001a 8327C4FE 		lw	a5,-20(s0)
 1579 001e DE27     		lhu	a5,12(a5)
 1580 0020 C207     		slli	a5,a5,16
 1581 0022 C183     		srli	a5,a5,16
 1582              		.loc 1 540 25
 1583 0024 0357A4FE 		lhu	a4,-22(s0)
 1584 0028 D98F     		or	a5,a5,a4
 1585 002a 13970701 		slli	a4,a5,16
 1586 002e 4183     		srli	a4,a4,16
 1587 0030 8327C4FE 		lw	a5,-20(s0)
 1588 0034 DAA7     		sh	a4,12(a5)
 541:Drivers/src/ch32v20x_tim.c ****     }
 542:Drivers/src/ch32v20x_tim.c ****     else
 543:Drivers/src/ch32v20x_tim.c ****     {
 544:Drivers/src/ch32v20x_tim.c ****         TIMx->DMAINTENR &= (uint16_t)~TIM_IT;
 545:Drivers/src/ch32v20x_tim.c ****     }
 546:Drivers/src/ch32v20x_tim.c **** }
 1589              		.loc 1 546 1
 1590 0036 25A0     		j	.L50
GAS LISTING C:\Users\SOLDER~1\AppData\Local\Temp\ccPZLIWm.s 			page 39


 1591              	.L48:
 544:Drivers/src/ch32v20x_tim.c ****     }
 1592              		.loc 1 544 13
 1593 0038 8327C4FE 		lw	a5,-20(s0)
 1594 003c DE27     		lhu	a5,12(a5)
 1595 003e 13970701 		slli	a4,a5,16
 1596 0042 4183     		srli	a4,a4,16
 544:Drivers/src/ch32v20x_tim.c ****     }
 1597              		.loc 1 544 28
 1598 0044 8357A4FE 		lhu	a5,-22(s0)
 1599 0048 93C7F7FF 		not	a5,a5
 1600 004c C207     		slli	a5,a5,16
 1601 004e C183     		srli	a5,a5,16
 544:Drivers/src/ch32v20x_tim.c ****     }
 1602              		.loc 1 544 25
 1603 0050 F98F     		and	a5,a4,a5
 1604 0052 13970701 		slli	a4,a5,16
 1605 0056 4183     		srli	a4,a4,16
 1606 0058 8327C4FE 		lw	a5,-20(s0)
 1607 005c DAA7     		sh	a4,12(a5)
 1608              	.L50:
 1609              		.loc 1 546 1
 1610 005e 0100     		nop
 1611 0060 7244     		lw	s0,28(sp)
 1612              		.cfi_restore 8
 1613              		.cfi_def_cfa 2, 32
 1614 0062 0561     		addi	sp,sp,32
 1615              		.cfi_def_cfa_offset 0
 1616 0064 8280     		jr	ra
 1617              		.cfi_endproc
 1618              	.LFE31:
 1620              		.section	.text.TIM_GenerateEvent,"ax",@progbits
 1621              		.align	1
 1622              		.globl	TIM_GenerateEvent
 1624              	TIM_GenerateEvent:
 1625              	.LFB32:
 547:Drivers/src/ch32v20x_tim.c **** 
 548:Drivers/src/ch32v20x_tim.c **** /*******************************************************************************
 549:Drivers/src/ch32v20x_tim.c ****  * @fn             TIM_GenerateEvent
 550:Drivers/src/ch32v20x_tim.c ****  *
 551:Drivers/src/ch32v20x_tim.c ****  * @brief          Configures the TIMx event to be generate by software.
 552:Drivers/src/ch32v20x_tim.c ****  *
 553:Drivers/src/ch32v20x_tim.c ****  * @param          TIMx: where x can be 1 to 4 to select the TIM peripheral.
 554:Drivers/src/ch32v20x_tim.c ****  *                 TIM_EventSource: specifies the event source.
 555:Drivers/src/ch32v20x_tim.c ****  *                 TIM_EventSource_Update: Timer update Event source.
 556:Drivers/src/ch32v20x_tim.c ****  *                 TIM_EventSource_CC1: Timer Capture Compare 1 Event source.
 557:Drivers/src/ch32v20x_tim.c ****  *                 TIM_EventSource_CC2: Timer Capture Compare 2 Event source.
 558:Drivers/src/ch32v20x_tim.c ****  *                 TIM_EventSource_CC3: Timer Capture Compare 3 Event source.
 559:Drivers/src/ch32v20x_tim.c ****  *                 TIM_EventSource_CC4: Timer Capture Compare 4 Event source.
 560:Drivers/src/ch32v20x_tim.c ****  *                 TIM_EventSource_COM: Timer COM event source.
 561:Drivers/src/ch32v20x_tim.c ****  *                 TIM_EventSource_Trigger: Timer Trigger Event source.
 562:Drivers/src/ch32v20x_tim.c ****  *                 TIM_EventSource_Break: Timer Break event source.
 563:Drivers/src/ch32v20x_tim.c ****  *
 564:Drivers/src/ch32v20x_tim.c ****  * @return None
 565:Drivers/src/ch32v20x_tim.c ****  */
 566:Drivers/src/ch32v20x_tim.c **** void TIM_GenerateEvent(TIM_TypeDef *TIMx, uint16_t TIM_EventSource)
 567:Drivers/src/ch32v20x_tim.c **** {
GAS LISTING C:\Users\SOLDER~1\AppData\Local\Temp\ccPZLIWm.s 			page 40


 1626              		.loc 1 567 1
 1627              		.cfi_startproc
 1628 0000 0111     		addi	sp,sp,-32
 1629              		.cfi_def_cfa_offset 32
 1630 0002 22CE     		sw	s0,28(sp)
 1631              		.cfi_offset 8, -4
 1632 0004 0010     		addi	s0,sp,32
 1633              		.cfi_def_cfa 8, 0
 1634 0006 2326A4FE 		sw	a0,-20(s0)
 1635 000a AE87     		mv	a5,a1
 1636 000c 2315F4FE 		sh	a5,-22(s0)
 568:Drivers/src/ch32v20x_tim.c ****     TIMx->SWEVGR = TIM_EventSource;
 1637              		.loc 1 568 18
 1638 0010 8327C4FE 		lw	a5,-20(s0)
 1639 0014 0357A4FE 		lhu	a4,-22(s0)
 1640 0018 DAAB     		sh	a4,20(a5)
 569:Drivers/src/ch32v20x_tim.c **** }
 1641              		.loc 1 569 1
 1642 001a 0100     		nop
 1643 001c 7244     		lw	s0,28(sp)
 1644              		.cfi_restore 8
 1645              		.cfi_def_cfa 2, 32
 1646 001e 0561     		addi	sp,sp,32
 1647              		.cfi_def_cfa_offset 0
 1648 0020 8280     		jr	ra
 1649              		.cfi_endproc
 1650              	.LFE32:
 1652              		.section	.text.TIM_DMAConfig,"ax",@progbits
 1653              		.align	1
 1654              		.globl	TIM_DMAConfig
 1656              	TIM_DMAConfig:
 1657              	.LFB33:
 570:Drivers/src/ch32v20x_tim.c **** 
 571:Drivers/src/ch32v20x_tim.c **** /*********************************************************************
 572:Drivers/src/ch32v20x_tim.c ****  * @fn      TIM_DMAConfig
 573:Drivers/src/ch32v20x_tim.c ****  *
 574:Drivers/src/ch32v20x_tim.c ****  * @brief   Configures the TIMx's DMA interface.
 575:Drivers/src/ch32v20x_tim.c ****  *
 576:Drivers/src/ch32v20x_tim.c ****  * @param   TIMx - where x can be 1 to 4 to select the TIM peripheral.
 577:Drivers/src/ch32v20x_tim.c ****  *          TIM_DMABase: DMA Base address.
 578:Drivers/src/ch32v20x_tim.c ****  *            TIM_DMABase_CR.
 579:Drivers/src/ch32v20x_tim.c ****  *            TIM_DMABase_CR2.
 580:Drivers/src/ch32v20x_tim.c ****  *            TIM_DMABase_SMCR.
 581:Drivers/src/ch32v20x_tim.c ****  *            TIM_DMABase_DIER.
 582:Drivers/src/ch32v20x_tim.c ****  *            TIM1_DMABase_SR.
 583:Drivers/src/ch32v20x_tim.c ****  *            TIM_DMABase_EGR.
 584:Drivers/src/ch32v20x_tim.c ****  *            TIM_DMABase_CCMR1.
 585:Drivers/src/ch32v20x_tim.c ****  *            TIM_DMABase_CCMR2.
 586:Drivers/src/ch32v20x_tim.c ****  *            TIM_DMABase_CCER.
 587:Drivers/src/ch32v20x_tim.c ****  *            TIM_DMABase_CNT.
 588:Drivers/src/ch32v20x_tim.c ****  *            TIM_DMABase_PSC.
 589:Drivers/src/ch32v20x_tim.c ****  *            TIM_DMABase_CCR1.
 590:Drivers/src/ch32v20x_tim.c ****  *            TIM_DMABase_CCR2.
 591:Drivers/src/ch32v20x_tim.c ****  *            TIM_DMABase_CCR3.
 592:Drivers/src/ch32v20x_tim.c ****  *            TIM_DMABase_CCR4.
 593:Drivers/src/ch32v20x_tim.c ****  *            TIM_DMABase_BDTR.
 594:Drivers/src/ch32v20x_tim.c ****  *            TIM_DMABase_DCR.
GAS LISTING C:\Users\SOLDER~1\AppData\Local\Temp\ccPZLIWm.s 			page 41


 595:Drivers/src/ch32v20x_tim.c ****  *          TIM_DMABurstLength - DMA Burst length.
 596:Drivers/src/ch32v20x_tim.c ****  *            TIM_DMABurstLength_1Transfer.
 597:Drivers/src/ch32v20x_tim.c ****  *            TIM_DMABurstLength_18Transfers.
 598:Drivers/src/ch32v20x_tim.c ****  *
 599:Drivers/src/ch32v20x_tim.c ****  * @return  none
 600:Drivers/src/ch32v20x_tim.c ****  */
 601:Drivers/src/ch32v20x_tim.c **** void TIM_DMAConfig(TIM_TypeDef *TIMx, uint16_t TIM_DMABase, uint16_t TIM_DMABurstLength)
 602:Drivers/src/ch32v20x_tim.c **** {
 1658              		.loc 1 602 1
 1659              		.cfi_startproc
 1660 0000 0111     		addi	sp,sp,-32
 1661              		.cfi_def_cfa_offset 32
 1662 0002 22CE     		sw	s0,28(sp)
 1663              		.cfi_offset 8, -4
 1664 0004 0010     		addi	s0,sp,32
 1665              		.cfi_def_cfa 8, 0
 1666 0006 2326A4FE 		sw	a0,-20(s0)
 1667 000a AE87     		mv	a5,a1
 1668 000c 3287     		mv	a4,a2
 1669 000e 2315F4FE 		sh	a5,-22(s0)
 1670 0012 BA87     		mv	a5,a4
 1671 0014 2314F4FE 		sh	a5,-24(s0)
 603:Drivers/src/ch32v20x_tim.c ****     TIMx->DMACFGR = TIM_DMABase | TIM_DMABurstLength;
 1672              		.loc 1 603 19
 1673 0018 8357A4FE 		lhu	a5,-22(s0)
 1674 001c 3E87     		mv	a4,a5
 1675 001e 835784FE 		lhu	a5,-24(s0)
 1676 0022 D98F     		or	a5,a4,a5
 1677 0024 13970701 		slli	a4,a5,16
 1678 0028 4183     		srli	a4,a4,16
 1679 002a 8327C4FE 		lw	a5,-20(s0)
 1680 002e 2394E704 		sh	a4,72(a5)
 604:Drivers/src/ch32v20x_tim.c **** }
 1681              		.loc 1 604 1
 1682 0032 0100     		nop
 1683 0034 7244     		lw	s0,28(sp)
 1684              		.cfi_restore 8
 1685              		.cfi_def_cfa 2, 32
 1686 0036 0561     		addi	sp,sp,32
 1687              		.cfi_def_cfa_offset 0
 1688 0038 8280     		jr	ra
 1689              		.cfi_endproc
 1690              	.LFE33:
 1692              		.section	.text.TIM_DMACmd,"ax",@progbits
 1693              		.align	1
 1694              		.globl	TIM_DMACmd
 1696              	TIM_DMACmd:
 1697              	.LFB34:
 605:Drivers/src/ch32v20x_tim.c **** 
 606:Drivers/src/ch32v20x_tim.c **** /*********************************************************************
 607:Drivers/src/ch32v20x_tim.c ****  * @fn      TIM_DMACmd
 608:Drivers/src/ch32v20x_tim.c ****  *
 609:Drivers/src/ch32v20x_tim.c ****  * @brief   Enables or disables the TIMx's DMA Requests.
 610:Drivers/src/ch32v20x_tim.c ****  *
 611:Drivers/src/ch32v20x_tim.c ****  * @param   TIMx - where x can be 1 to 4 to select the TIM peripheral.
 612:Drivers/src/ch32v20x_tim.c ****  *          TIM_DMASource - specifies the DMA Request sources.
 613:Drivers/src/ch32v20x_tim.c ****  *            TIM_DMA_Update - TIM update Interrupt source.
GAS LISTING C:\Users\SOLDER~1\AppData\Local\Temp\ccPZLIWm.s 			page 42


 614:Drivers/src/ch32v20x_tim.c ****  *            TIM_DMA_CC1 - TIM Capture Compare 1 DMA source.
 615:Drivers/src/ch32v20x_tim.c ****  *            TIM_DMA_CC2 - TIM Capture Compare 2 DMA source.
 616:Drivers/src/ch32v20x_tim.c ****  *            TIM_DMA_CC3 - TIM Capture Compare 3 DMA source.
 617:Drivers/src/ch32v20x_tim.c ****  *            TIM_DMA_CC4 - TIM Capture Compare 4 DMA source.
 618:Drivers/src/ch32v20x_tim.c ****  *            TIM_DMA_COM - TIM Commutation DMA source.
 619:Drivers/src/ch32v20x_tim.c ****  *            TIM_DMA_Trigger - TIM Trigger DMA source.
 620:Drivers/src/ch32v20x_tim.c ****  *          NewState - ENABLE or DISABLE.
 621:Drivers/src/ch32v20x_tim.c ****  *
 622:Drivers/src/ch32v20x_tim.c ****  * @return  none
 623:Drivers/src/ch32v20x_tim.c ****  */
 624:Drivers/src/ch32v20x_tim.c **** void TIM_DMACmd(TIM_TypeDef *TIMx, uint16_t TIM_DMASource, FunctionalState NewState)
 625:Drivers/src/ch32v20x_tim.c **** {
 1698              		.loc 1 625 1
 1699              		.cfi_startproc
 1700 0000 0111     		addi	sp,sp,-32
 1701              		.cfi_def_cfa_offset 32
 1702 0002 22CE     		sw	s0,28(sp)
 1703              		.cfi_offset 8, -4
 1704 0004 0010     		addi	s0,sp,32
 1705              		.cfi_def_cfa 8, 0
 1706 0006 2326A4FE 		sw	a0,-20(s0)
 1707 000a AE87     		mv	a5,a1
 1708 000c 2322C4FE 		sw	a2,-28(s0)
 1709 0010 2315F4FE 		sh	a5,-22(s0)
 626:Drivers/src/ch32v20x_tim.c ****     if(NewState != DISABLE)
 1710              		.loc 1 626 7
 1711 0014 832744FE 		lw	a5,-28(s0)
 1712 0018 85C3     		beq	a5,zero,.L54
 627:Drivers/src/ch32v20x_tim.c ****     {
 628:Drivers/src/ch32v20x_tim.c ****         TIMx->DMAINTENR |= TIM_DMASource;
 1713              		.loc 1 628 13
 1714 001a 8327C4FE 		lw	a5,-20(s0)
 1715 001e DE27     		lhu	a5,12(a5)
 1716 0020 C207     		slli	a5,a5,16
 1717 0022 C183     		srli	a5,a5,16
 1718              		.loc 1 628 25
 1719 0024 0357A4FE 		lhu	a4,-22(s0)
 1720 0028 D98F     		or	a5,a5,a4
 1721 002a 13970701 		slli	a4,a5,16
 1722 002e 4183     		srli	a4,a4,16
 1723 0030 8327C4FE 		lw	a5,-20(s0)
 1724 0034 DAA7     		sh	a4,12(a5)
 629:Drivers/src/ch32v20x_tim.c ****     }
 630:Drivers/src/ch32v20x_tim.c ****     else
 631:Drivers/src/ch32v20x_tim.c ****     {
 632:Drivers/src/ch32v20x_tim.c ****         TIMx->DMAINTENR &= (uint16_t)~TIM_DMASource;
 633:Drivers/src/ch32v20x_tim.c ****     }
 634:Drivers/src/ch32v20x_tim.c **** }
 1725              		.loc 1 634 1
 1726 0036 25A0     		j	.L56
 1727              	.L54:
 632:Drivers/src/ch32v20x_tim.c ****     }
 1728              		.loc 1 632 13
 1729 0038 8327C4FE 		lw	a5,-20(s0)
 1730 003c DE27     		lhu	a5,12(a5)
 1731 003e 13970701 		slli	a4,a5,16
 1732 0042 4183     		srli	a4,a4,16
GAS LISTING C:\Users\SOLDER~1\AppData\Local\Temp\ccPZLIWm.s 			page 43


 632:Drivers/src/ch32v20x_tim.c ****     }
 1733              		.loc 1 632 28
 1734 0044 8357A4FE 		lhu	a5,-22(s0)
 1735 0048 93C7F7FF 		not	a5,a5
 1736 004c C207     		slli	a5,a5,16
 1737 004e C183     		srli	a5,a5,16
 632:Drivers/src/ch32v20x_tim.c ****     }
 1738              		.loc 1 632 25
 1739 0050 F98F     		and	a5,a4,a5
 1740 0052 13970701 		slli	a4,a5,16
 1741 0056 4183     		srli	a4,a4,16
 1742 0058 8327C4FE 		lw	a5,-20(s0)
 1743 005c DAA7     		sh	a4,12(a5)
 1744              	.L56:
 1745              		.loc 1 634 1
 1746 005e 0100     		nop
 1747 0060 7244     		lw	s0,28(sp)
 1748              		.cfi_restore 8
 1749              		.cfi_def_cfa 2, 32
 1750 0062 0561     		addi	sp,sp,32
 1751              		.cfi_def_cfa_offset 0
 1752 0064 8280     		jr	ra
 1753              		.cfi_endproc
 1754              	.LFE34:
 1756              		.section	.text.TIM_InternalClockConfig,"ax",@progbits
 1757              		.align	1
 1758              		.globl	TIM_InternalClockConfig
 1760              	TIM_InternalClockConfig:
 1761              	.LFB35:
 635:Drivers/src/ch32v20x_tim.c **** 
 636:Drivers/src/ch32v20x_tim.c **** /*********************************************************************
 637:Drivers/src/ch32v20x_tim.c ****  * @fn      TIM_InternalClockConfig
 638:Drivers/src/ch32v20x_tim.c ****  *
 639:Drivers/src/ch32v20x_tim.c ****  * @brief   Configures the TIMx internal Clock.
 640:Drivers/src/ch32v20x_tim.c ****  *
 641:Drivers/src/ch32v20x_tim.c ****  * @param   TIMx - where x can be 1 to 4 to select the TIM peripheral.
 642:Drivers/src/ch32v20x_tim.c ****  *
 643:Drivers/src/ch32v20x_tim.c ****  * @return  none
 644:Drivers/src/ch32v20x_tim.c ****  */
 645:Drivers/src/ch32v20x_tim.c **** void TIM_InternalClockConfig(TIM_TypeDef *TIMx)
 646:Drivers/src/ch32v20x_tim.c **** {
 1762              		.loc 1 646 1
 1763              		.cfi_startproc
 1764 0000 0111     		addi	sp,sp,-32
 1765              		.cfi_def_cfa_offset 32
 1766 0002 22CE     		sw	s0,28(sp)
 1767              		.cfi_offset 8, -4
 1768 0004 0010     		addi	s0,sp,32
 1769              		.cfi_def_cfa 8, 0
 1770 0006 2326A4FE 		sw	a0,-20(s0)
 647:Drivers/src/ch32v20x_tim.c ****     TIMx->SMCFGR &= (uint16_t)(~((uint16_t)TIM_SMS));
 1771              		.loc 1 647 9
 1772 000a 8327C4FE 		lw	a5,-20(s0)
 1773 000e 9E27     		lhu	a5,8(a5)
 1774 0010 C207     		slli	a5,a5,16
 1775 0012 C183     		srli	a5,a5,16
 1776              		.loc 1 647 18
GAS LISTING C:\Users\SOLDER~1\AppData\Local\Temp\ccPZLIWm.s 			page 44


 1777 0014 E19B     		andi	a5,a5,-8
 1778 0016 13970701 		slli	a4,a5,16
 1779 001a 4183     		srli	a4,a4,16
 1780 001c 8327C4FE 		lw	a5,-20(s0)
 1781 0020 9AA7     		sh	a4,8(a5)
 648:Drivers/src/ch32v20x_tim.c **** }
 1782              		.loc 1 648 1
 1783 0022 0100     		nop
 1784 0024 7244     		lw	s0,28(sp)
 1785              		.cfi_restore 8
 1786              		.cfi_def_cfa 2, 32
 1787 0026 0561     		addi	sp,sp,32
 1788              		.cfi_def_cfa_offset 0
 1789 0028 8280     		jr	ra
 1790              		.cfi_endproc
 1791              	.LFE35:
 1793              		.section	.text.TIM_ITRxExternalClockConfig,"ax",@progbits
 1794              		.align	1
 1795              		.globl	TIM_ITRxExternalClockConfig
 1797              	TIM_ITRxExternalClockConfig:
 1798              	.LFB36:
 649:Drivers/src/ch32v20x_tim.c **** 
 650:Drivers/src/ch32v20x_tim.c **** /*********************************************************************
 651:Drivers/src/ch32v20x_tim.c ****  * @fn      TIM_ITRxExternalClockConfig
 652:Drivers/src/ch32v20x_tim.c ****  *
 653:Drivers/src/ch32v20x_tim.c ****  * @brief   Configures the TIMx Internal Trigger as External Clock.
 654:Drivers/src/ch32v20x_tim.c ****  *
 655:Drivers/src/ch32v20x_tim.c ****  * @param   TIMx - where x can be 1 to 4 to select the TIM peripheral.
 656:Drivers/src/ch32v20x_tim.c ****  *          TIM_InputTriggerSource: Trigger source.
 657:Drivers/src/ch32v20x_tim.c ****  *            TIM_TS_ITR0 - Internal Trigger 0.
 658:Drivers/src/ch32v20x_tim.c ****  *            TIM_TS_ITR1 - Internal Trigger 1.
 659:Drivers/src/ch32v20x_tim.c ****  *            TIM_TS_ITR2 - Internal Trigger 2.
 660:Drivers/src/ch32v20x_tim.c ****  *            TIM_TS_ITR3 - Internal Trigger 3.
 661:Drivers/src/ch32v20x_tim.c ****  *
 662:Drivers/src/ch32v20x_tim.c ****  * @return  none
 663:Drivers/src/ch32v20x_tim.c ****  */
 664:Drivers/src/ch32v20x_tim.c **** void TIM_ITRxExternalClockConfig(TIM_TypeDef *TIMx, uint16_t TIM_InputTriggerSource)
 665:Drivers/src/ch32v20x_tim.c **** {
 1799              		.loc 1 665 1
 1800              		.cfi_startproc
 1801 0000 0111     		addi	sp,sp,-32
 1802              		.cfi_def_cfa_offset 32
 1803 0002 06CE     		sw	ra,28(sp)
 1804 0004 22CC     		sw	s0,24(sp)
 1805              		.cfi_offset 1, -4
 1806              		.cfi_offset 8, -8
 1807 0006 0010     		addi	s0,sp,32
 1808              		.cfi_def_cfa 8, 0
 1809 0008 2326A4FE 		sw	a0,-20(s0)
 1810 000c AE87     		mv	a5,a1
 1811 000e 2315F4FE 		sh	a5,-22(s0)
 666:Drivers/src/ch32v20x_tim.c ****     TIM_SelectInputTrigger(TIMx, TIM_InputTriggerSource);
 1812              		.loc 1 666 5
 1813 0012 8357A4FE 		lhu	a5,-22(s0)
 1814 0016 BE85     		mv	a1,a5
 1815 0018 0325C4FE 		lw	a0,-20(s0)
 1816 001c 97000000 		call	TIM_SelectInputTrigger
GAS LISTING C:\Users\SOLDER~1\AppData\Local\Temp\ccPZLIWm.s 			page 45


 1816      E7800000 
 667:Drivers/src/ch32v20x_tim.c ****     TIMx->SMCFGR |= TIM_SlaveMode_External1;
 1817              		.loc 1 667 9
 1818 0024 8327C4FE 		lw	a5,-20(s0)
 1819 0028 9E27     		lhu	a5,8(a5)
 1820 002a C207     		slli	a5,a5,16
 1821 002c C183     		srli	a5,a5,16
 1822              		.loc 1 667 18
 1823 002e 93E77700 		ori	a5,a5,7
 1824 0032 13970701 		slli	a4,a5,16
 1825 0036 4183     		srli	a4,a4,16
 1826 0038 8327C4FE 		lw	a5,-20(s0)
 1827 003c 9AA7     		sh	a4,8(a5)
 668:Drivers/src/ch32v20x_tim.c **** }
 1828              		.loc 1 668 1
 1829 003e 0100     		nop
 1830 0040 F240     		lw	ra,28(sp)
 1831              		.cfi_restore 1
 1832 0042 6244     		lw	s0,24(sp)
 1833              		.cfi_restore 8
 1834              		.cfi_def_cfa 2, 32
 1835 0044 0561     		addi	sp,sp,32
 1836              		.cfi_def_cfa_offset 0
 1837 0046 8280     		jr	ra
 1838              		.cfi_endproc
 1839              	.LFE36:
 1841              		.section	.text.TIM_TIxExternalClockConfig,"ax",@progbits
 1842              		.align	1
 1843              		.globl	TIM_TIxExternalClockConfig
 1845              	TIM_TIxExternalClockConfig:
 1846              	.LFB37:
 669:Drivers/src/ch32v20x_tim.c **** 
 670:Drivers/src/ch32v20x_tim.c **** /*********************************************************************
 671:Drivers/src/ch32v20x_tim.c ****  * @fn      TIM_TIxExternalClockConfig
 672:Drivers/src/ch32v20x_tim.c ****  *
 673:Drivers/src/ch32v20x_tim.c ****  * @brief   Configures the TIMx Trigger as External Clock.
 674:Drivers/src/ch32v20x_tim.c ****  *
 675:Drivers/src/ch32v20x_tim.c ****  * @param   TIMx - where x can be 1 to 4 to select the TIM peripheral.
 676:Drivers/src/ch32v20x_tim.c ****  *          TIM_TIxExternalCLKSource - Trigger source.
 677:Drivers/src/ch32v20x_tim.c ****  *            TIM_TIxExternalCLK1Source_TI1ED - TI1 Edge Detector.
 678:Drivers/src/ch32v20x_tim.c ****  *            TIM_TIxExternalCLK1Source_TI1 - Filtered Timer Input 1.
 679:Drivers/src/ch32v20x_tim.c ****  *            TIM_TIxExternalCLK1Source_TI2 - Filtered Timer Input 2.
 680:Drivers/src/ch32v20x_tim.c ****  *          TIM_ICPolarity - specifies the TIx Polarity.
 681:Drivers/src/ch32v20x_tim.c ****  *             TIM_ICPolarity_Rising.
 682:Drivers/src/ch32v20x_tim.c ****  *             TIM_ICPolarity_Falling.
 683:Drivers/src/ch32v20x_tim.c ****  *             TIM_DMA_COM - TIM Commutation DMA source.
 684:Drivers/src/ch32v20x_tim.c ****  *             TIM_DMA_Trigger - TIM Trigger DMA source.
 685:Drivers/src/ch32v20x_tim.c ****  *          ICFilter - specifies the filter value.
 686:Drivers/src/ch32v20x_tim.c ****  *             This parameter must be a value between 0x0 and 0xF.
 687:Drivers/src/ch32v20x_tim.c ****  *
 688:Drivers/src/ch32v20x_tim.c ****  * @return  none
 689:Drivers/src/ch32v20x_tim.c ****  */
 690:Drivers/src/ch32v20x_tim.c **** void TIM_TIxExternalClockConfig(TIM_TypeDef *TIMx, uint16_t TIM_TIxExternalCLKSource,
 691:Drivers/src/ch32v20x_tim.c ****                                 uint16_t TIM_ICPolarity, uint16_t ICFilter)
 692:Drivers/src/ch32v20x_tim.c **** {
 1847              		.loc 1 692 1
 1848              		.cfi_startproc
GAS LISTING C:\Users\SOLDER~1\AppData\Local\Temp\ccPZLIWm.s 			page 46


 1849 0000 0111     		addi	sp,sp,-32
 1850              		.cfi_def_cfa_offset 32
 1851 0002 06CE     		sw	ra,28(sp)
 1852 0004 22CC     		sw	s0,24(sp)
 1853              		.cfi_offset 1, -4
 1854              		.cfi_offset 8, -8
 1855 0006 0010     		addi	s0,sp,32
 1856              		.cfi_def_cfa 8, 0
 1857 0008 2326A4FE 		sw	a0,-20(s0)
 1858 000c AE87     		mv	a5,a1
 1859 000e 3687     		mv	a4,a3
 1860 0010 2315F4FE 		sh	a5,-22(s0)
 1861 0014 B287     		mv	a5,a2
 1862 0016 2314F4FE 		sh	a5,-24(s0)
 1863 001a BA87     		mv	a5,a4
 1864 001c 2313F4FE 		sh	a5,-26(s0)
 693:Drivers/src/ch32v20x_tim.c ****     if(TIM_TIxExternalCLKSource == TIM_TIxExternalCLK1Source_TI2)
 1865              		.loc 1 693 7
 1866 0020 0357A4FE 		lhu	a4,-22(s0)
 1867 0024 93070006 		li	a5,96
 1868 0028 6310F702 		bne	a4,a5,.L60
 694:Drivers/src/ch32v20x_tim.c ****     {
 695:Drivers/src/ch32v20x_tim.c ****         TI2_Config(TIMx, TIM_ICPolarity, TIM_ICSelection_DirectTI, ICFilter);
 1869              		.loc 1 695 9
 1870 002c 035764FE 		lhu	a4,-26(s0)
 1871 0030 835784FE 		lhu	a5,-24(s0)
 1872 0034 BA86     		mv	a3,a4
 1873 0036 0546     		li	a2,1
 1874 0038 BE85     		mv	a1,a5
 1875 003a 0325C4FE 		lw	a0,-20(s0)
 1876 003e 97000000 		call	TI2_Config
 1876      E7800000 
 1877 0046 31A8     		j	.L61
 1878              	.L60:
 696:Drivers/src/ch32v20x_tim.c ****     }
 697:Drivers/src/ch32v20x_tim.c ****     else
 698:Drivers/src/ch32v20x_tim.c ****     {
 699:Drivers/src/ch32v20x_tim.c ****         TI1_Config(TIMx, TIM_ICPolarity, TIM_ICSelection_DirectTI, ICFilter);
 1879              		.loc 1 699 9
 1880 0048 035764FE 		lhu	a4,-26(s0)
 1881 004c 835784FE 		lhu	a5,-24(s0)
 1882 0050 BA86     		mv	a3,a4
 1883 0052 0546     		li	a2,1
 1884 0054 BE85     		mv	a1,a5
 1885 0056 0325C4FE 		lw	a0,-20(s0)
 1886 005a 97000000 		call	TI1_Config
 1886      E7800000 
 1887              	.L61:
 700:Drivers/src/ch32v20x_tim.c ****     }
 701:Drivers/src/ch32v20x_tim.c **** 
 702:Drivers/src/ch32v20x_tim.c ****     TIM_SelectInputTrigger(TIMx, TIM_TIxExternalCLKSource);
 1888              		.loc 1 702 5
 1889 0062 8357A4FE 		lhu	a5,-22(s0)
 1890 0066 BE85     		mv	a1,a5
 1891 0068 0325C4FE 		lw	a0,-20(s0)
 1892 006c 97000000 		call	TIM_SelectInputTrigger
 1892      E7800000 
GAS LISTING C:\Users\SOLDER~1\AppData\Local\Temp\ccPZLIWm.s 			page 47


 703:Drivers/src/ch32v20x_tim.c ****     TIMx->SMCFGR |= TIM_SlaveMode_External1;
 1893              		.loc 1 703 9
 1894 0074 8327C4FE 		lw	a5,-20(s0)
 1895 0078 9E27     		lhu	a5,8(a5)
 1896 007a C207     		slli	a5,a5,16
 1897 007c C183     		srli	a5,a5,16
 1898              		.loc 1 703 18
 1899 007e 93E77700 		ori	a5,a5,7
 1900 0082 13970701 		slli	a4,a5,16
 1901 0086 4183     		srli	a4,a4,16
 1902 0088 8327C4FE 		lw	a5,-20(s0)
 1903 008c 9AA7     		sh	a4,8(a5)
 704:Drivers/src/ch32v20x_tim.c **** }
 1904              		.loc 1 704 1
 1905 008e 0100     		nop
 1906 0090 F240     		lw	ra,28(sp)
 1907              		.cfi_restore 1
 1908 0092 6244     		lw	s0,24(sp)
 1909              		.cfi_restore 8
 1910              		.cfi_def_cfa 2, 32
 1911 0094 0561     		addi	sp,sp,32
 1912              		.cfi_def_cfa_offset 0
 1913 0096 8280     		jr	ra
 1914              		.cfi_endproc
 1915              	.LFE37:
 1917              		.section	.text.TIM_ETRClockMode1Config,"ax",@progbits
 1918              		.align	1
 1919              		.globl	TIM_ETRClockMode1Config
 1921              	TIM_ETRClockMode1Config:
 1922              	.LFB38:
 705:Drivers/src/ch32v20x_tim.c **** 
 706:Drivers/src/ch32v20x_tim.c **** /*********************************************************************
 707:Drivers/src/ch32v20x_tim.c ****  * @fn      TIM_ETRClockMode1Config
 708:Drivers/src/ch32v20x_tim.c ****  *
 709:Drivers/src/ch32v20x_tim.c ****  * @brief   Configures the External clock Mode1.
 710:Drivers/src/ch32v20x_tim.c ****  *
 711:Drivers/src/ch32v20x_tim.c ****  * @param   TIMx - where x can be 1 to 4 to select the TIM peripheral.
 712:Drivers/src/ch32v20x_tim.c ****  *          TIM_ExtTRGPrescaler - The external Trigger Prescaler.
 713:Drivers/src/ch32v20x_tim.c ****  *            TIM_ExtTRGPSC_OFF - ETRP Prescaler OFF.
 714:Drivers/src/ch32v20x_tim.c ****  *            TIM_ExtTRGPSC_DIV2 - ETRP frequency divided by 2.
 715:Drivers/src/ch32v20x_tim.c ****  *            TIM_ExtTRGPSC_DIV4 - ETRP frequency divided by 4.
 716:Drivers/src/ch32v20x_tim.c ****  *            TIM_ExtTRGPSC_DIV8 - ETRP frequency divided by 8.
 717:Drivers/src/ch32v20x_tim.c ****  *          TIM_ExtTRGPolarity - The external Trigger Polarity.
 718:Drivers/src/ch32v20x_tim.c ****  *            TIM_ExtTRGPolarity_Inverted - active low or falling edge active.
 719:Drivers/src/ch32v20x_tim.c ****  *            TIM_ExtTRGPolarity_NonInverted - active high or rising edge active.
 720:Drivers/src/ch32v20x_tim.c ****  *          ExtTRGFilter - External Trigger Filter.
 721:Drivers/src/ch32v20x_tim.c ****  *             This parameter must be a value between 0x0 and 0xF.
 722:Drivers/src/ch32v20x_tim.c ****  *
 723:Drivers/src/ch32v20x_tim.c ****  * @return  none
 724:Drivers/src/ch32v20x_tim.c ****  */
 725:Drivers/src/ch32v20x_tim.c **** void TIM_ETRClockMode1Config(TIM_TypeDef *TIMx, uint16_t TIM_ExtTRGPrescaler, uint16_t TIM_ExtTRGPo
 726:Drivers/src/ch32v20x_tim.c ****                              uint16_t ExtTRGFilter)
 727:Drivers/src/ch32v20x_tim.c **** {
 1923              		.loc 1 727 1
 1924              		.cfi_startproc
 1925 0000 7971     		addi	sp,sp,-48
 1926              		.cfi_def_cfa_offset 48
GAS LISTING C:\Users\SOLDER~1\AppData\Local\Temp\ccPZLIWm.s 			page 48


 1927 0002 06D6     		sw	ra,44(sp)
 1928 0004 22D4     		sw	s0,40(sp)
 1929              		.cfi_offset 1, -4
 1930              		.cfi_offset 8, -8
 1931 0006 0018     		addi	s0,sp,48
 1932              		.cfi_def_cfa 8, 0
 1933 0008 232EA4FC 		sw	a0,-36(s0)
 1934 000c AE87     		mv	a5,a1
 1935 000e 3687     		mv	a4,a3
 1936 0010 231DF4FC 		sh	a5,-38(s0)
 1937 0014 B287     		mv	a5,a2
 1938 0016 231CF4FC 		sh	a5,-40(s0)
 1939 001a BA87     		mv	a5,a4
 1940 001c 231BF4FC 		sh	a5,-42(s0)
 728:Drivers/src/ch32v20x_tim.c ****     uint16_t tmpsmcr = 0;
 1941              		.loc 1 728 14
 1942 0020 231704FE 		sh	zero,-18(s0)
 729:Drivers/src/ch32v20x_tim.c **** 
 730:Drivers/src/ch32v20x_tim.c ****     TIM_ETRConfig(TIMx, TIM_ExtTRGPrescaler, TIM_ExtTRGPolarity, ExtTRGFilter);
 1943              		.loc 1 730 5
 1944 0024 835664FD 		lhu	a3,-42(s0)
 1945 0028 035784FD 		lhu	a4,-40(s0)
 1946 002c 8357A4FD 		lhu	a5,-38(s0)
 1947 0030 3A86     		mv	a2,a4
 1948 0032 BE85     		mv	a1,a5
 1949 0034 0325C4FD 		lw	a0,-36(s0)
 1950 0038 97000000 		call	TIM_ETRConfig
 1950      E7800000 
 731:Drivers/src/ch32v20x_tim.c ****     tmpsmcr = TIMx->SMCFGR;
 1951              		.loc 1 731 13
 1952 0040 8327C4FD 		lw	a5,-36(s0)
 1953 0044 9E27     		lhu	a5,8(a5)
 1954 0046 2317F4FE 		sh	a5,-18(s0)
 732:Drivers/src/ch32v20x_tim.c ****     tmpsmcr &= (uint16_t)(~((uint16_t)TIM_SMS));
 1955              		.loc 1 732 13
 1956 004a 8357E4FE 		lhu	a5,-18(s0)
 1957 004e E19B     		andi	a5,a5,-8
 1958 0050 2317F4FE 		sh	a5,-18(s0)
 733:Drivers/src/ch32v20x_tim.c ****     tmpsmcr |= TIM_SlaveMode_External1;
 1959              		.loc 1 733 13
 1960 0054 8357E4FE 		lhu	a5,-18(s0)
 1961 0058 93E77700 		ori	a5,a5,7
 1962 005c 2317F4FE 		sh	a5,-18(s0)
 734:Drivers/src/ch32v20x_tim.c ****     tmpsmcr &= (uint16_t)(~((uint16_t)TIM_TS));
 1963              		.loc 1 734 13
 1964 0060 8357E4FE 		lhu	a5,-18(s0)
 1965 0064 93F7F7F8 		andi	a5,a5,-113
 1966 0068 2317F4FE 		sh	a5,-18(s0)
 735:Drivers/src/ch32v20x_tim.c ****     tmpsmcr |= TIM_TS_ETRF;
 1967              		.loc 1 735 13
 1968 006c 8357E4FE 		lhu	a5,-18(s0)
 1969 0070 93E70707 		ori	a5,a5,112
 1970 0074 2317F4FE 		sh	a5,-18(s0)
 736:Drivers/src/ch32v20x_tim.c ****     TIMx->SMCFGR = tmpsmcr;
 1971              		.loc 1 736 18
 1972 0078 8327C4FD 		lw	a5,-36(s0)
 1973 007c 0357E4FE 		lhu	a4,-18(s0)
GAS LISTING C:\Users\SOLDER~1\AppData\Local\Temp\ccPZLIWm.s 			page 49


 1974 0080 9AA7     		sh	a4,8(a5)
 737:Drivers/src/ch32v20x_tim.c **** }
 1975              		.loc 1 737 1
 1976 0082 0100     		nop
 1977 0084 B250     		lw	ra,44(sp)
 1978              		.cfi_restore 1
 1979 0086 2254     		lw	s0,40(sp)
 1980              		.cfi_restore 8
 1981              		.cfi_def_cfa 2, 48
 1982 0088 4561     		addi	sp,sp,48
 1983              		.cfi_def_cfa_offset 0
 1984 008a 8280     		jr	ra
 1985              		.cfi_endproc
 1986              	.LFE38:
 1988              		.section	.text.TIM_ETRClockMode2Config,"ax",@progbits
 1989              		.align	1
 1990              		.globl	TIM_ETRClockMode2Config
 1992              	TIM_ETRClockMode2Config:
 1993              	.LFB39:
 738:Drivers/src/ch32v20x_tim.c **** 
 739:Drivers/src/ch32v20x_tim.c **** /*********************************************************************
 740:Drivers/src/ch32v20x_tim.c ****  * @fn      TIM_ETRClockMode2Config
 741:Drivers/src/ch32v20x_tim.c ****  *
 742:Drivers/src/ch32v20x_tim.c ****  * @brief   Configures the External clock Mode2.
 743:Drivers/src/ch32v20x_tim.c ****  *
 744:Drivers/src/ch32v20x_tim.c ****  * @param   TIMx - where x can be 1 to 4 to select the TIM peripheral.
 745:Drivers/src/ch32v20x_tim.c ****  *          TIM_ExtTRGPrescaler - The external Trigger Prescaler.
 746:Drivers/src/ch32v20x_tim.c ****  *            TIM_ExtTRGPSC_OFF - ETRP Prescaler OFF.
 747:Drivers/src/ch32v20x_tim.c ****  *            TIM_ExtTRGPSC_DIV2 - ETRP frequency divided by 2.
 748:Drivers/src/ch32v20x_tim.c ****  *            TIM_ExtTRGPSC_DIV4 - ETRP frequency divided by 4.
 749:Drivers/src/ch32v20x_tim.c ****  *            TIM_ExtTRGPSC_DIV8 - ETRP frequency divided by 8.
 750:Drivers/src/ch32v20x_tim.c ****  *          TIM_ExtTRGPolarity - The external Trigger Polarity.
 751:Drivers/src/ch32v20x_tim.c ****  *            TIM_ExtTRGPolarity_Inverted - active low or falling edge active.
 752:Drivers/src/ch32v20x_tim.c ****  *            TIM_ExtTRGPolarity_NonInverted - active high or rising edge active.
 753:Drivers/src/ch32v20x_tim.c ****  *          ExtTRGFilter - External Trigger Filter.
 754:Drivers/src/ch32v20x_tim.c ****  *            This parameter must be a value between 0x0 and 0xF.
 755:Drivers/src/ch32v20x_tim.c ****  *
 756:Drivers/src/ch32v20x_tim.c ****  * @return  none
 757:Drivers/src/ch32v20x_tim.c ****  */
 758:Drivers/src/ch32v20x_tim.c **** void TIM_ETRClockMode2Config(TIM_TypeDef *TIMx, uint16_t TIM_ExtTRGPrescaler,
 759:Drivers/src/ch32v20x_tim.c ****                              uint16_t TIM_ExtTRGPolarity, uint16_t ExtTRGFilter)
 760:Drivers/src/ch32v20x_tim.c **** {
 1994              		.loc 1 760 1
 1995              		.cfi_startproc
 1996 0000 0111     		addi	sp,sp,-32
 1997              		.cfi_def_cfa_offset 32
 1998 0002 06CE     		sw	ra,28(sp)
 1999 0004 22CC     		sw	s0,24(sp)
 2000              		.cfi_offset 1, -4
 2001              		.cfi_offset 8, -8
 2002 0006 0010     		addi	s0,sp,32
 2003              		.cfi_def_cfa 8, 0
 2004 0008 2326A4FE 		sw	a0,-20(s0)
 2005 000c AE87     		mv	a5,a1
 2006 000e 3687     		mv	a4,a3
 2007 0010 2315F4FE 		sh	a5,-22(s0)
 2008 0014 B287     		mv	a5,a2
GAS LISTING C:\Users\SOLDER~1\AppData\Local\Temp\ccPZLIWm.s 			page 50


 2009 0016 2314F4FE 		sh	a5,-24(s0)
 2010 001a BA87     		mv	a5,a4
 2011 001c 2313F4FE 		sh	a5,-26(s0)
 761:Drivers/src/ch32v20x_tim.c ****     TIM_ETRConfig(TIMx, TIM_ExtTRGPrescaler, TIM_ExtTRGPolarity, ExtTRGFilter);
 2012              		.loc 1 761 5
 2013 0020 835664FE 		lhu	a3,-26(s0)
 2014 0024 035784FE 		lhu	a4,-24(s0)
 2015 0028 8357A4FE 		lhu	a5,-22(s0)
 2016 002c 3A86     		mv	a2,a4
 2017 002e BE85     		mv	a1,a5
 2018 0030 0325C4FE 		lw	a0,-20(s0)
 2019 0034 97000000 		call	TIM_ETRConfig
 2019      E7800000 
 762:Drivers/src/ch32v20x_tim.c ****     TIMx->SMCFGR |= TIM_ECE;
 2020              		.loc 1 762 9
 2021 003c 8327C4FE 		lw	a5,-20(s0)
 2022 0040 9E27     		lhu	a5,8(a5)
 2023 0042 13970701 		slli	a4,a5,16
 2024 0046 4183     		srli	a4,a4,16
 2025              		.loc 1 762 18
 2026 0048 9167     		li	a5,16384
 2027 004a D98F     		or	a5,a4,a5
 2028 004c 13970701 		slli	a4,a5,16
 2029 0050 4183     		srli	a4,a4,16
 2030 0052 8327C4FE 		lw	a5,-20(s0)
 2031 0056 9AA7     		sh	a4,8(a5)
 763:Drivers/src/ch32v20x_tim.c **** }
 2032              		.loc 1 763 1
 2033 0058 0100     		nop
 2034 005a F240     		lw	ra,28(sp)
 2035              		.cfi_restore 1
 2036 005c 6244     		lw	s0,24(sp)
 2037              		.cfi_restore 8
 2038              		.cfi_def_cfa 2, 32
 2039 005e 0561     		addi	sp,sp,32
 2040              		.cfi_def_cfa_offset 0
 2041 0060 8280     		jr	ra
 2042              		.cfi_endproc
 2043              	.LFE39:
 2045              		.section	.text.TIM_ETRConfig,"ax",@progbits
 2046              		.align	1
 2047              		.globl	TIM_ETRConfig
 2049              	TIM_ETRConfig:
 2050              	.LFB40:
 764:Drivers/src/ch32v20x_tim.c **** 
 765:Drivers/src/ch32v20x_tim.c **** /*********************************************************************
 766:Drivers/src/ch32v20x_tim.c ****  * @fn      TIM_ETRConfig
 767:Drivers/src/ch32v20x_tim.c ****  *
 768:Drivers/src/ch32v20x_tim.c ****  * @brief   Configures the TIMx External Trigger (ETR).
 769:Drivers/src/ch32v20x_tim.c ****  *
 770:Drivers/src/ch32v20x_tim.c ****  * @param   TIMx - where x can be 1 to 4 to select the TIM peripheral.
 771:Drivers/src/ch32v20x_tim.c ****  *          TIM_ExtTRGPrescaler - The external Trigger Prescaler.
 772:Drivers/src/ch32v20x_tim.c ****  *            TIM_ExtTRGPSC_OFF - ETRP Prescaler OFF.
 773:Drivers/src/ch32v20x_tim.c ****  *            TIM_ExtTRGPSC_DIV2 - ETRP frequency divided by 2.
 774:Drivers/src/ch32v20x_tim.c ****  *            TIM_ExtTRGPSC_DIV4 - ETRP frequency divided by 4.
 775:Drivers/src/ch32v20x_tim.c ****  *            TIM_ExtTRGPSC_DIV8 - ETRP frequency divided by 8.
 776:Drivers/src/ch32v20x_tim.c ****  *          TIM_ExtTRGPolarity - The external Trigger Polarity.
GAS LISTING C:\Users\SOLDER~1\AppData\Local\Temp\ccPZLIWm.s 			page 51


 777:Drivers/src/ch32v20x_tim.c ****  *            TIM_ExtTRGPolarity_Inverted - active low or falling edge active.
 778:Drivers/src/ch32v20x_tim.c ****  *            TIM_ExtTRGPolarity_NonInverted - active high or rising edge active.
 779:Drivers/src/ch32v20x_tim.c ****  *          ExtTRGFilter - External Trigger Filter.
 780:Drivers/src/ch32v20x_tim.c ****  *            This parameter must be a value between 0x0 and 0xF.
 781:Drivers/src/ch32v20x_tim.c ****  *
 782:Drivers/src/ch32v20x_tim.c ****  * @return  none
 783:Drivers/src/ch32v20x_tim.c ****  */
 784:Drivers/src/ch32v20x_tim.c **** void TIM_ETRConfig(TIM_TypeDef *TIMx, uint16_t TIM_ExtTRGPrescaler, uint16_t TIM_ExtTRGPolarity,
 785:Drivers/src/ch32v20x_tim.c ****                    uint16_t ExtTRGFilter)
 786:Drivers/src/ch32v20x_tim.c **** {
 2051              		.loc 1 786 1
 2052              		.cfi_startproc
 2053 0000 7971     		addi	sp,sp,-48
 2054              		.cfi_def_cfa_offset 48
 2055 0002 22D6     		sw	s0,44(sp)
 2056              		.cfi_offset 8, -4
 2057 0004 0018     		addi	s0,sp,48
 2058              		.cfi_def_cfa 8, 0
 2059 0006 232EA4FC 		sw	a0,-36(s0)
 2060 000a AE87     		mv	a5,a1
 2061 000c 3687     		mv	a4,a3
 2062 000e 231DF4FC 		sh	a5,-38(s0)
 2063 0012 B287     		mv	a5,a2
 2064 0014 231CF4FC 		sh	a5,-40(s0)
 2065 0018 BA87     		mv	a5,a4
 2066 001a 231BF4FC 		sh	a5,-42(s0)
 787:Drivers/src/ch32v20x_tim.c ****     uint16_t tmpsmcr = 0;
 2067              		.loc 1 787 14
 2068 001e 231704FE 		sh	zero,-18(s0)
 788:Drivers/src/ch32v20x_tim.c **** 
 789:Drivers/src/ch32v20x_tim.c ****     tmpsmcr = TIMx->SMCFGR;
 2069              		.loc 1 789 13
 2070 0022 8327C4FD 		lw	a5,-36(s0)
 2071 0026 9E27     		lhu	a5,8(a5)
 2072 0028 2317F4FE 		sh	a5,-18(s0)
 790:Drivers/src/ch32v20x_tim.c ****     tmpsmcr &= SMCFGR_ETR_Mask;
 2073              		.loc 1 790 13
 2074 002c 8357E4FE 		lhu	a5,-18(s0)
 2075 0030 93F7F70F 		andi	a5,a5,255
 2076 0034 2317F4FE 		sh	a5,-18(s0)
 791:Drivers/src/ch32v20x_tim.c ****     tmpsmcr |= (uint16_t)(TIM_ExtTRGPrescaler | (uint16_t)(TIM_ExtTRGPolarity | (uint16_t)(ExtTRGFi
 2077              		.loc 1 791 81
 2078 0038 835764FD 		lhu	a5,-42(s0)
 2079 003c A207     		slli	a5,a5,8
 2080 003e C207     		slli	a5,a5,16
 2081 0040 C183     		srli	a5,a5,16
 2082              		.loc 1 791 49
 2083 0042 035784FD 		lhu	a4,-40(s0)
 2084 0046 D98F     		or	a5,a5,a4
 2085 0048 C207     		slli	a5,a5,16
 2086 004a C183     		srli	a5,a5,16
 2087              		.loc 1 791 16
 2088 004c 0357A4FD 		lhu	a4,-38(s0)
 2089 0050 D98F     		or	a5,a5,a4
 2090 0052 C207     		slli	a5,a5,16
 2091 0054 C183     		srli	a5,a5,16
 2092              		.loc 1 791 13
GAS LISTING C:\Users\SOLDER~1\AppData\Local\Temp\ccPZLIWm.s 			page 52


 2093 0056 0357E4FE 		lhu	a4,-18(s0)
 2094 005a D98F     		or	a5,a5,a4
 2095 005c 2317F4FE 		sh	a5,-18(s0)
 792:Drivers/src/ch32v20x_tim.c ****     TIMx->SMCFGR = tmpsmcr;
 2096              		.loc 1 792 18
 2097 0060 8327C4FD 		lw	a5,-36(s0)
 2098 0064 0357E4FE 		lhu	a4,-18(s0)
 2099 0068 9AA7     		sh	a4,8(a5)
 793:Drivers/src/ch32v20x_tim.c **** }
 2100              		.loc 1 793 1
 2101 006a 0100     		nop
 2102 006c 3254     		lw	s0,44(sp)
 2103              		.cfi_restore 8
 2104              		.cfi_def_cfa 2, 48
 2105 006e 4561     		addi	sp,sp,48
 2106              		.cfi_def_cfa_offset 0
 2107 0070 8280     		jr	ra
 2108              		.cfi_endproc
 2109              	.LFE40:
 2111              		.section	.text.TIM_PrescalerConfig,"ax",@progbits
 2112              		.align	1
 2113              		.globl	TIM_PrescalerConfig
 2115              	TIM_PrescalerConfig:
 2116              	.LFB41:
 794:Drivers/src/ch32v20x_tim.c **** 
 795:Drivers/src/ch32v20x_tim.c **** /*********************************************************************
 796:Drivers/src/ch32v20x_tim.c ****  * @fn      TIM_PrescalerConfig
 797:Drivers/src/ch32v20x_tim.c ****  *
 798:Drivers/src/ch32v20x_tim.c ****  * @brief   Configures the TIMx Prescaler.
 799:Drivers/src/ch32v20x_tim.c ****  *
 800:Drivers/src/ch32v20x_tim.c ****  * @param   TIMx - where x can be 1 to 4 to select the TIM peripheral.
 801:Drivers/src/ch32v20x_tim.c ****  *          Prescaler - specifies the Prescaler Register value.
 802:Drivers/src/ch32v20x_tim.c ****  *          TIM_PSCReloadMode - specifies the TIM Prescaler Reload mode.
 803:Drivers/src/ch32v20x_tim.c ****  *            TIM_PSCReloadMode - specifies the TIM Prescaler Reload mode.
 804:Drivers/src/ch32v20x_tim.c ****  *            TIM_PSCReloadMode_Update - The Prescaler is loaded at the update event.
 805:Drivers/src/ch32v20x_tim.c ****  *            TIM_PSCReloadMode_Immediate - The Prescaler is loaded immediately.
 806:Drivers/src/ch32v20x_tim.c ****  *
 807:Drivers/src/ch32v20x_tim.c ****  * @return  none
 808:Drivers/src/ch32v20x_tim.c ****  */
 809:Drivers/src/ch32v20x_tim.c **** void TIM_PrescalerConfig(TIM_TypeDef *TIMx, uint16_t Prescaler, uint16_t TIM_PSCReloadMode)
 810:Drivers/src/ch32v20x_tim.c **** {
 2117              		.loc 1 810 1
 2118              		.cfi_startproc
 2119 0000 0111     		addi	sp,sp,-32
 2120              		.cfi_def_cfa_offset 32
 2121 0002 22CE     		sw	s0,28(sp)
 2122              		.cfi_offset 8, -4
 2123 0004 0010     		addi	s0,sp,32
 2124              		.cfi_def_cfa 8, 0
 2125 0006 2326A4FE 		sw	a0,-20(s0)
 2126 000a AE87     		mv	a5,a1
 2127 000c 3287     		mv	a4,a2
 2128 000e 2315F4FE 		sh	a5,-22(s0)
 2129 0012 BA87     		mv	a5,a4
 2130 0014 2314F4FE 		sh	a5,-24(s0)
 811:Drivers/src/ch32v20x_tim.c ****     TIMx->PSC = Prescaler;
 2131              		.loc 1 811 15
GAS LISTING C:\Users\SOLDER~1\AppData\Local\Temp\ccPZLIWm.s 			page 53


 2132 0018 8327C4FE 		lw	a5,-20(s0)
 2133 001c 0357A4FE 		lhu	a4,-22(s0)
 2134 0020 9AB7     		sh	a4,40(a5)
 812:Drivers/src/ch32v20x_tim.c ****     TIMx->SWEVGR = TIM_PSCReloadMode;
 2135              		.loc 1 812 18
 2136 0022 8327C4FE 		lw	a5,-20(s0)
 2137 0026 035784FE 		lhu	a4,-24(s0)
 2138 002a DAAB     		sh	a4,20(a5)
 813:Drivers/src/ch32v20x_tim.c **** }
 2139              		.loc 1 813 1
 2140 002c 0100     		nop
 2141 002e 7244     		lw	s0,28(sp)
 2142              		.cfi_restore 8
 2143              		.cfi_def_cfa 2, 32
 2144 0030 0561     		addi	sp,sp,32
 2145              		.cfi_def_cfa_offset 0
 2146 0032 8280     		jr	ra
 2147              		.cfi_endproc
 2148              	.LFE41:
 2150              		.section	.text.TIM_CounterModeConfig,"ax",@progbits
 2151              		.align	1
 2152              		.globl	TIM_CounterModeConfig
 2154              	TIM_CounterModeConfig:
 2155              	.LFB42:
 814:Drivers/src/ch32v20x_tim.c **** 
 815:Drivers/src/ch32v20x_tim.c **** /*********************************************************************
 816:Drivers/src/ch32v20x_tim.c ****  * @fn      TIM_CounterModeConfig
 817:Drivers/src/ch32v20x_tim.c ****  *
 818:Drivers/src/ch32v20x_tim.c ****  * @brief   Specifies the TIMx Counter Mode to be used.
 819:Drivers/src/ch32v20x_tim.c ****  *
 820:Drivers/src/ch32v20x_tim.c ****  * @param   TIMx - where x can be 1 to 4 to select the TIM peripheral.
 821:Drivers/src/ch32v20x_tim.c ****  *          TIM_CounterMode - specifies the Counter Mode to be used.
 822:Drivers/src/ch32v20x_tim.c ****  *            TIM_CounterMode_Up - TIM Up Counting Mode.
 823:Drivers/src/ch32v20x_tim.c ****  *            TIM_CounterMode_Down - TIM Down Counting Mode.
 824:Drivers/src/ch32v20x_tim.c ****  *            TIM_CounterMode_CenterAligned1 - TIM Center Aligned Mode1.
 825:Drivers/src/ch32v20x_tim.c ****  *            TIM_CounterMode_CenterAligned2 - TIM Center Aligned Mode2.
 826:Drivers/src/ch32v20x_tim.c ****  *            TIM_CounterMode_CenterAligned3 - TIM Center Aligned Mode3.
 827:Drivers/src/ch32v20x_tim.c ****  *
 828:Drivers/src/ch32v20x_tim.c ****  * @return  none
 829:Drivers/src/ch32v20x_tim.c ****  */
 830:Drivers/src/ch32v20x_tim.c **** void TIM_CounterModeConfig(TIM_TypeDef *TIMx, uint16_t TIM_CounterMode)
 831:Drivers/src/ch32v20x_tim.c **** {
 2156              		.loc 1 831 1
 2157              		.cfi_startproc
 2158 0000 7971     		addi	sp,sp,-48
 2159              		.cfi_def_cfa_offset 48
 2160 0002 22D6     		sw	s0,44(sp)
 2161              		.cfi_offset 8, -4
 2162 0004 0018     		addi	s0,sp,48
 2163              		.cfi_def_cfa 8, 0
 2164 0006 232EA4FC 		sw	a0,-36(s0)
 2165 000a AE87     		mv	a5,a1
 2166 000c 231DF4FC 		sh	a5,-38(s0)
 832:Drivers/src/ch32v20x_tim.c ****     uint16_t tmpcr1 = 0;
 2167              		.loc 1 832 14
 2168 0010 231704FE 		sh	zero,-18(s0)
 833:Drivers/src/ch32v20x_tim.c **** 
GAS LISTING C:\Users\SOLDER~1\AppData\Local\Temp\ccPZLIWm.s 			page 54


 834:Drivers/src/ch32v20x_tim.c ****     tmpcr1 = TIMx->CTLR1;
 2169              		.loc 1 834 12
 2170 0014 8327C4FD 		lw	a5,-36(s0)
 2171 0018 9E23     		lhu	a5,0(a5)
 2172 001a 2317F4FE 		sh	a5,-18(s0)
 835:Drivers/src/ch32v20x_tim.c ****     tmpcr1 &= (uint16_t)(~((uint16_t)(TIM_DIR | TIM_CMS)));
 2173              		.loc 1 835 12
 2174 001e 8357E4FE 		lhu	a5,-18(s0)
 2175 0022 93F7F7F8 		andi	a5,a5,-113
 2176 0026 2317F4FE 		sh	a5,-18(s0)
 836:Drivers/src/ch32v20x_tim.c ****     tmpcr1 |= TIM_CounterMode;
 2177              		.loc 1 836 12
 2178 002a 8357E4FE 		lhu	a5,-18(s0)
 2179 002e 3E87     		mv	a4,a5
 2180 0030 8357A4FD 		lhu	a5,-38(s0)
 2181 0034 D98F     		or	a5,a4,a5
 2182 0036 2317F4FE 		sh	a5,-18(s0)
 837:Drivers/src/ch32v20x_tim.c ****     TIMx->CTLR1 = tmpcr1;
 2183              		.loc 1 837 17
 2184 003a 8327C4FD 		lw	a5,-36(s0)
 2185 003e 0357E4FE 		lhu	a4,-18(s0)
 2186 0042 9AA3     		sh	a4,0(a5)
 838:Drivers/src/ch32v20x_tim.c **** }
 2187              		.loc 1 838 1
 2188 0044 0100     		nop
 2189 0046 3254     		lw	s0,44(sp)
 2190              		.cfi_restore 8
 2191              		.cfi_def_cfa 2, 48
 2192 0048 4561     		addi	sp,sp,48
 2193              		.cfi_def_cfa_offset 0
 2194 004a 8280     		jr	ra
 2195              		.cfi_endproc
 2196              	.LFE42:
 2198              		.section	.text.TIM_SelectInputTrigger,"ax",@progbits
 2199              		.align	1
 2200              		.globl	TIM_SelectInputTrigger
 2202              	TIM_SelectInputTrigger:
 2203              	.LFB43:
 839:Drivers/src/ch32v20x_tim.c **** 
 840:Drivers/src/ch32v20x_tim.c **** /*********************************************************************
 841:Drivers/src/ch32v20x_tim.c ****  * @fn      TIM_SelectInputTrigger
 842:Drivers/src/ch32v20x_tim.c ****  *
 843:Drivers/src/ch32v20x_tim.c ****  * @brief   Selects the Input Trigger source.
 844:Drivers/src/ch32v20x_tim.c ****  *
 845:Drivers/src/ch32v20x_tim.c ****  * @param   TIMx - where x can be 1 to 4 to select the TIM peripheral.
 846:Drivers/src/ch32v20x_tim.c ****  *          TIM_InputTriggerSource - The Input Trigger source.
 847:Drivers/src/ch32v20x_tim.c ****  *            TIM_TS_ITR0 - Internal Trigger 0.
 848:Drivers/src/ch32v20x_tim.c ****  *            TIM_TS_ITR1 - Internal Trigger 1.
 849:Drivers/src/ch32v20x_tim.c ****  *            TIM_TS_ITR2 - Internal Trigger 2.
 850:Drivers/src/ch32v20x_tim.c ****  *            TIM_TS_ITR3 - Internal Trigger 3.
 851:Drivers/src/ch32v20x_tim.c ****  *            TIM_TS_TI1F_ED - TI1 Edge Detector.
 852:Drivers/src/ch32v20x_tim.c ****  *            TIM_TS_TI1FP1 - Filtered Timer Input 1.
 853:Drivers/src/ch32v20x_tim.c ****  *            TIM_TS_TI2FP2 - Filtered Timer Input 2.
 854:Drivers/src/ch32v20x_tim.c ****  *            TIM_TS_ETRF - External Trigger input.
 855:Drivers/src/ch32v20x_tim.c ****  *
 856:Drivers/src/ch32v20x_tim.c ****  * @return  none
 857:Drivers/src/ch32v20x_tim.c ****  */
GAS LISTING C:\Users\SOLDER~1\AppData\Local\Temp\ccPZLIWm.s 			page 55


 858:Drivers/src/ch32v20x_tim.c **** void TIM_SelectInputTrigger(TIM_TypeDef *TIMx, uint16_t TIM_InputTriggerSource)
 859:Drivers/src/ch32v20x_tim.c **** {
 2204              		.loc 1 859 1
 2205              		.cfi_startproc
 2206 0000 7971     		addi	sp,sp,-48
 2207              		.cfi_def_cfa_offset 48
 2208 0002 22D6     		sw	s0,44(sp)
 2209              		.cfi_offset 8, -4
 2210 0004 0018     		addi	s0,sp,48
 2211              		.cfi_def_cfa 8, 0
 2212 0006 232EA4FC 		sw	a0,-36(s0)
 2213 000a AE87     		mv	a5,a1
 2214 000c 231DF4FC 		sh	a5,-38(s0)
 860:Drivers/src/ch32v20x_tim.c ****     uint16_t tmpsmcr = 0;
 2215              		.loc 1 860 14
 2216 0010 231704FE 		sh	zero,-18(s0)
 861:Drivers/src/ch32v20x_tim.c **** 
 862:Drivers/src/ch32v20x_tim.c ****     tmpsmcr = TIMx->SMCFGR;
 2217              		.loc 1 862 13
 2218 0014 8327C4FD 		lw	a5,-36(s0)
 2219 0018 9E27     		lhu	a5,8(a5)
 2220 001a 2317F4FE 		sh	a5,-18(s0)
 863:Drivers/src/ch32v20x_tim.c ****     tmpsmcr &= (uint16_t)(~((uint16_t)TIM_TS));
 2221              		.loc 1 863 13
 2222 001e 8357E4FE 		lhu	a5,-18(s0)
 2223 0022 93F7F7F8 		andi	a5,a5,-113
 2224 0026 2317F4FE 		sh	a5,-18(s0)
 864:Drivers/src/ch32v20x_tim.c ****     tmpsmcr |= TIM_InputTriggerSource;
 2225              		.loc 1 864 13
 2226 002a 8357E4FE 		lhu	a5,-18(s0)
 2227 002e 3E87     		mv	a4,a5
 2228 0030 8357A4FD 		lhu	a5,-38(s0)
 2229 0034 D98F     		or	a5,a4,a5
 2230 0036 2317F4FE 		sh	a5,-18(s0)
 865:Drivers/src/ch32v20x_tim.c ****     TIMx->SMCFGR = tmpsmcr;
 2231              		.loc 1 865 18
 2232 003a 8327C4FD 		lw	a5,-36(s0)
 2233 003e 0357E4FE 		lhu	a4,-18(s0)
 2234 0042 9AA7     		sh	a4,8(a5)
 866:Drivers/src/ch32v20x_tim.c **** }
 2235              		.loc 1 866 1
 2236 0044 0100     		nop
 2237 0046 3254     		lw	s0,44(sp)
 2238              		.cfi_restore 8
 2239              		.cfi_def_cfa 2, 48
 2240 0048 4561     		addi	sp,sp,48
 2241              		.cfi_def_cfa_offset 0
 2242 004a 8280     		jr	ra
 2243              		.cfi_endproc
 2244              	.LFE43:
 2246              		.section	.text.TIM_EncoderInterfaceConfig,"ax",@progbits
 2247              		.align	1
 2248              		.globl	TIM_EncoderInterfaceConfig
 2250              	TIM_EncoderInterfaceConfig:
 2251              	.LFB44:
 867:Drivers/src/ch32v20x_tim.c **** 
 868:Drivers/src/ch32v20x_tim.c **** /*********************************************************************
GAS LISTING C:\Users\SOLDER~1\AppData\Local\Temp\ccPZLIWm.s 			page 56


 869:Drivers/src/ch32v20x_tim.c ****  * @fn      TIM_EncoderInterfaceConfig
 870:Drivers/src/ch32v20x_tim.c ****  *
 871:Drivers/src/ch32v20x_tim.c ****  * @brief   Configures the TIMx Encoder Interface.
 872:Drivers/src/ch32v20x_tim.c ****  *
 873:Drivers/src/ch32v20x_tim.c ****  * @param   TIMx - where x can be 1 to 4 to select the TIM peripheral.
 874:Drivers/src/ch32v20x_tim.c ****  *          TIM_EncoderMode - specifies the TIMx Encoder Mode.
 875:Drivers/src/ch32v20x_tim.c ****  *            TIM_EncoderMode_TI1 - Counter counts on TI1FP1 edge depending
 876:Drivers/src/ch32v20x_tim.c ****  *        on TI2FP2 level.
 877:Drivers/src/ch32v20x_tim.c ****  *            TIM_EncoderMode_TI2 - Counter counts on TI2FP2 edge depending
 878:Drivers/src/ch32v20x_tim.c ****  *        on TI1FP1 level.
 879:Drivers/src/ch32v20x_tim.c ****  *            TIM_EncoderMode_TI12 - Counter counts on both TI1FP1 and
 880:Drivers/src/ch32v20x_tim.c ****  *        TI2FP2 edges depending.
 881:Drivers/src/ch32v20x_tim.c ****  *          TIM_IC1Polarity - specifies the IC1 Polarity.
 882:Drivers/src/ch32v20x_tim.c ****  *            TIM_ICPolarity_Falling - IC Falling edge.
 883:Drivers/src/ch32v20x_tim.c ****  *            TTIM_ICPolarity_Rising - IC Rising edge.
 884:Drivers/src/ch32v20x_tim.c ****  *          TIM_IC2Polarity - specifies the IC2 Polarity.
 885:Drivers/src/ch32v20x_tim.c ****  *            TIM_ICPolarity_Falling - IC Falling edge.
 886:Drivers/src/ch32v20x_tim.c ****  *            TIM_ICPolarity_Rising - IC Rising edge.
 887:Drivers/src/ch32v20x_tim.c ****  *
 888:Drivers/src/ch32v20x_tim.c ****  * @return  none
 889:Drivers/src/ch32v20x_tim.c ****  */
 890:Drivers/src/ch32v20x_tim.c **** void TIM_EncoderInterfaceConfig(TIM_TypeDef *TIMx, uint16_t TIM_EncoderMode,
 891:Drivers/src/ch32v20x_tim.c ****                                 uint16_t TIM_IC1Polarity, uint16_t TIM_IC2Polarity)
 892:Drivers/src/ch32v20x_tim.c **** {
 2252              		.loc 1 892 1
 2253              		.cfi_startproc
 2254 0000 7971     		addi	sp,sp,-48
 2255              		.cfi_def_cfa_offset 48
 2256 0002 22D6     		sw	s0,44(sp)
 2257              		.cfi_offset 8, -4
 2258 0004 0018     		addi	s0,sp,48
 2259              		.cfi_def_cfa 8, 0
 2260 0006 232EA4FC 		sw	a0,-36(s0)
 2261 000a AE87     		mv	a5,a1
 2262 000c 3687     		mv	a4,a3
 2263 000e 231DF4FC 		sh	a5,-38(s0)
 2264 0012 B287     		mv	a5,a2
 2265 0014 231CF4FC 		sh	a5,-40(s0)
 2266 0018 BA87     		mv	a5,a4
 2267 001a 231BF4FC 		sh	a5,-42(s0)
 893:Drivers/src/ch32v20x_tim.c ****     uint16_t tmpsmcr = 0;
 2268              		.loc 1 893 14
 2269 001e 231704FE 		sh	zero,-18(s0)
 894:Drivers/src/ch32v20x_tim.c ****     uint16_t tmpccmr1 = 0;
 2270              		.loc 1 894 14
 2271 0022 231604FE 		sh	zero,-20(s0)
 895:Drivers/src/ch32v20x_tim.c ****     uint16_t tmpccer = 0;
 2272              		.loc 1 895 14
 2273 0026 231504FE 		sh	zero,-22(s0)
 896:Drivers/src/ch32v20x_tim.c **** 
 897:Drivers/src/ch32v20x_tim.c ****     tmpsmcr = TIMx->SMCFGR;
 2274              		.loc 1 897 13
 2275 002a 8327C4FD 		lw	a5,-36(s0)
 2276 002e 9E27     		lhu	a5,8(a5)
 2277 0030 2317F4FE 		sh	a5,-18(s0)
 898:Drivers/src/ch32v20x_tim.c ****     tmpccmr1 = TIMx->CHCTLR1;
 2278              		.loc 1 898 14
GAS LISTING C:\Users\SOLDER~1\AppData\Local\Temp\ccPZLIWm.s 			page 57


 2279 0034 8327C4FD 		lw	a5,-36(s0)
 2280 0038 9E2F     		lhu	a5,24(a5)
 2281 003a 2316F4FE 		sh	a5,-20(s0)
 899:Drivers/src/ch32v20x_tim.c ****     tmpccer = TIMx->CCER;
 2282              		.loc 1 899 13
 2283 003e 8327C4FD 		lw	a5,-36(s0)
 2284 0042 9E33     		lhu	a5,32(a5)
 2285 0044 2315F4FE 		sh	a5,-22(s0)
 900:Drivers/src/ch32v20x_tim.c ****     tmpsmcr &= (uint16_t)(~((uint16_t)TIM_SMS));
 2286              		.loc 1 900 13
 2287 0048 8357E4FE 		lhu	a5,-18(s0)
 2288 004c E19B     		andi	a5,a5,-8
 2289 004e 2317F4FE 		sh	a5,-18(s0)
 901:Drivers/src/ch32v20x_tim.c ****     tmpsmcr |= TIM_EncoderMode;
 2290              		.loc 1 901 13
 2291 0052 8357E4FE 		lhu	a5,-18(s0)
 2292 0056 3E87     		mv	a4,a5
 2293 0058 8357A4FD 		lhu	a5,-38(s0)
 2294 005c D98F     		or	a5,a4,a5
 2295 005e 2317F4FE 		sh	a5,-18(s0)
 902:Drivers/src/ch32v20x_tim.c ****     tmpccmr1 &= (uint16_t)(((uint16_t) ~((uint16_t)TIM_CC1S)) & (uint16_t)(~((uint16_t)TIM_CC2S)));
 2296              		.loc 1 902 14
 2297 0062 8357C4FE 		lhu	a5,-20(s0)
 2298 0066 93F7C7CF 		andi	a5,a5,-772
 2299 006a 2316F4FE 		sh	a5,-20(s0)
 903:Drivers/src/ch32v20x_tim.c ****     tmpccmr1 |= TIM_CC1S_0 | TIM_CC2S_0;
 2300              		.loc 1 903 14
 2301 006e 8357C4FE 		lhu	a5,-20(s0)
 2302 0072 93E71710 		ori	a5,a5,257
 2303 0076 2316F4FE 		sh	a5,-20(s0)
 904:Drivers/src/ch32v20x_tim.c ****     tmpccer &= (uint16_t)(((uint16_t) ~((uint16_t)TIM_CC1P)) & ((uint16_t) ~((uint16_t)TIM_CC2P)));
 2304              		.loc 1 904 13
 2305 007a 8357A4FE 		lhu	a5,-22(s0)
 2306 007e 93F7D7FD 		andi	a5,a5,-35
 2307 0082 2315F4FE 		sh	a5,-22(s0)
 905:Drivers/src/ch32v20x_tim.c ****     tmpccer |= (uint16_t)(TIM_IC1Polarity | (uint16_t)(TIM_IC2Polarity << (uint16_t)4));
 2308              		.loc 1 905 45
 2309 0086 835764FD 		lhu	a5,-42(s0)
 2310 008a 9207     		slli	a5,a5,4
 2311 008c C207     		slli	a5,a5,16
 2312 008e C183     		srli	a5,a5,16
 2313              		.loc 1 905 16
 2314 0090 035784FD 		lhu	a4,-40(s0)
 2315 0094 D98F     		or	a5,a5,a4
 2316 0096 C207     		slli	a5,a5,16
 2317 0098 C183     		srli	a5,a5,16
 2318              		.loc 1 905 13
 2319 009a 0357A4FE 		lhu	a4,-22(s0)
 2320 009e D98F     		or	a5,a5,a4
 2321 00a0 2315F4FE 		sh	a5,-22(s0)
 906:Drivers/src/ch32v20x_tim.c ****     TIMx->SMCFGR = tmpsmcr;
 2322              		.loc 1 906 18
 2323 00a4 8327C4FD 		lw	a5,-36(s0)
 2324 00a8 0357E4FE 		lhu	a4,-18(s0)
 2325 00ac 9AA7     		sh	a4,8(a5)
 907:Drivers/src/ch32v20x_tim.c ****     TIMx->CHCTLR1 = tmpccmr1;
 2326              		.loc 1 907 19
GAS LISTING C:\Users\SOLDER~1\AppData\Local\Temp\ccPZLIWm.s 			page 58


 2327 00ae 8327C4FD 		lw	a5,-36(s0)
 2328 00b2 0357C4FE 		lhu	a4,-20(s0)
 2329 00b6 9AAF     		sh	a4,24(a5)
 908:Drivers/src/ch32v20x_tim.c ****     TIMx->CCER = tmpccer;
 2330              		.loc 1 908 16
 2331 00b8 8327C4FD 		lw	a5,-36(s0)
 2332 00bc 0357A4FE 		lhu	a4,-22(s0)
 2333 00c0 9AB3     		sh	a4,32(a5)
 909:Drivers/src/ch32v20x_tim.c **** }
 2334              		.loc 1 909 1
 2335 00c2 0100     		nop
 2336 00c4 3254     		lw	s0,44(sp)
 2337              		.cfi_restore 8
 2338              		.cfi_def_cfa 2, 48
 2339 00c6 4561     		addi	sp,sp,48
 2340              		.cfi_def_cfa_offset 0
 2341 00c8 8280     		jr	ra
 2342              		.cfi_endproc
 2343              	.LFE44:
 2345              		.section	.text.TIM_ForcedOC1Config,"ax",@progbits
 2346              		.align	1
 2347              		.globl	TIM_ForcedOC1Config
 2349              	TIM_ForcedOC1Config:
 2350              	.LFB45:
 910:Drivers/src/ch32v20x_tim.c **** 
 911:Drivers/src/ch32v20x_tim.c **** /*********************************************************************
 912:Drivers/src/ch32v20x_tim.c ****  * @fn      TIM_ForcedOC1Config
 913:Drivers/src/ch32v20x_tim.c ****  *
 914:Drivers/src/ch32v20x_tim.c ****  * @brief   Forces the TIMx output 1 waveform to active or inactive level.
 915:Drivers/src/ch32v20x_tim.c ****  *
 916:Drivers/src/ch32v20x_tim.c ****  * @param   TIMx - where x can be 1 to 4 to select the TIM peripheral.
 917:Drivers/src/ch32v20x_tim.c ****  *          TIM_ForcedAction - specifies the forced Action to be set to the
 918:Drivers/src/ch32v20x_tim.c ****  *        output waveform.
 919:Drivers/src/ch32v20x_tim.c ****  *            TIM_ForcedAction_Active - Force active level on OC1REF.
 920:Drivers/src/ch32v20x_tim.c ****  *            TIM_ForcedAction_InActive - Force inactive level on OC1REF.
 921:Drivers/src/ch32v20x_tim.c ****  *
 922:Drivers/src/ch32v20x_tim.c ****  * @return  none
 923:Drivers/src/ch32v20x_tim.c ****  */
 924:Drivers/src/ch32v20x_tim.c **** void TIM_ForcedOC1Config(TIM_TypeDef *TIMx, uint16_t TIM_ForcedAction)
 925:Drivers/src/ch32v20x_tim.c **** {
 2351              		.loc 1 925 1
 2352              		.cfi_startproc
 2353 0000 7971     		addi	sp,sp,-48
 2354              		.cfi_def_cfa_offset 48
 2355 0002 22D6     		sw	s0,44(sp)
 2356              		.cfi_offset 8, -4
 2357 0004 0018     		addi	s0,sp,48
 2358              		.cfi_def_cfa 8, 0
 2359 0006 232EA4FC 		sw	a0,-36(s0)
 2360 000a AE87     		mv	a5,a1
 2361 000c 231DF4FC 		sh	a5,-38(s0)
 926:Drivers/src/ch32v20x_tim.c ****     uint16_t tmpccmr1 = 0;
 2362              		.loc 1 926 14
 2363 0010 231704FE 		sh	zero,-18(s0)
 927:Drivers/src/ch32v20x_tim.c **** 
 928:Drivers/src/ch32v20x_tim.c ****     tmpccmr1 = TIMx->CHCTLR1;
 2364              		.loc 1 928 14
GAS LISTING C:\Users\SOLDER~1\AppData\Local\Temp\ccPZLIWm.s 			page 59


 2365 0014 8327C4FD 		lw	a5,-36(s0)
 2366 0018 9E2F     		lhu	a5,24(a5)
 2367 001a 2317F4FE 		sh	a5,-18(s0)
 929:Drivers/src/ch32v20x_tim.c ****     tmpccmr1 &= (uint16_t) ~((uint16_t)TIM_OC1M);
 2368              		.loc 1 929 14
 2369 001e 8357E4FE 		lhu	a5,-18(s0)
 2370 0022 93F7F7F8 		andi	a5,a5,-113
 2371 0026 2317F4FE 		sh	a5,-18(s0)
 930:Drivers/src/ch32v20x_tim.c ****     tmpccmr1 |= TIM_ForcedAction;
 2372              		.loc 1 930 14
 2373 002a 8357E4FE 		lhu	a5,-18(s0)
 2374 002e 3E87     		mv	a4,a5
 2375 0030 8357A4FD 		lhu	a5,-38(s0)
 2376 0034 D98F     		or	a5,a4,a5
 2377 0036 2317F4FE 		sh	a5,-18(s0)
 931:Drivers/src/ch32v20x_tim.c ****     TIMx->CHCTLR1 = tmpccmr1;
 2378              		.loc 1 931 19
 2379 003a 8327C4FD 		lw	a5,-36(s0)
 2380 003e 0357E4FE 		lhu	a4,-18(s0)
 2381 0042 9AAF     		sh	a4,24(a5)
 932:Drivers/src/ch32v20x_tim.c **** }
 2382              		.loc 1 932 1
 2383 0044 0100     		nop
 2384 0046 3254     		lw	s0,44(sp)
 2385              		.cfi_restore 8
 2386              		.cfi_def_cfa 2, 48
 2387 0048 4561     		addi	sp,sp,48
 2388              		.cfi_def_cfa_offset 0
 2389 004a 8280     		jr	ra
 2390              		.cfi_endproc
 2391              	.LFE45:
 2393              		.section	.text.TIM_ForcedOC2Config,"ax",@progbits
 2394              		.align	1
 2395              		.globl	TIM_ForcedOC2Config
 2397              	TIM_ForcedOC2Config:
 2398              	.LFB46:
 933:Drivers/src/ch32v20x_tim.c **** 
 934:Drivers/src/ch32v20x_tim.c **** /*********************************************************************
 935:Drivers/src/ch32v20x_tim.c ****  * @fn      TIM_ForcedOC2Config
 936:Drivers/src/ch32v20x_tim.c ****  *
 937:Drivers/src/ch32v20x_tim.c ****  * @brief   Forces the TIMx output 2 waveform to active or inactive level.
 938:Drivers/src/ch32v20x_tim.c ****  *
 939:Drivers/src/ch32v20x_tim.c ****  * @param   TIMx - where x can be 1 to 4 to select the TIM peripheral.
 940:Drivers/src/ch32v20x_tim.c ****  *          TIM_ForcedAction - specifies the forced Action to be set to the
 941:Drivers/src/ch32v20x_tim.c ****  *        output waveform.
 942:Drivers/src/ch32v20x_tim.c ****  *            TIM_ForcedAction_Active - Force active level on OC2REF.
 943:Drivers/src/ch32v20x_tim.c ****  *            TIM_ForcedAction_InActive - Force inactive level on OC2REF.
 944:Drivers/src/ch32v20x_tim.c ****  *
 945:Drivers/src/ch32v20x_tim.c ****  * @return  none
 946:Drivers/src/ch32v20x_tim.c ****  */
 947:Drivers/src/ch32v20x_tim.c **** void TIM_ForcedOC2Config(TIM_TypeDef *TIMx, uint16_t TIM_ForcedAction)
 948:Drivers/src/ch32v20x_tim.c **** {
 2399              		.loc 1 948 1
 2400              		.cfi_startproc
 2401 0000 7971     		addi	sp,sp,-48
 2402              		.cfi_def_cfa_offset 48
 2403 0002 22D6     		sw	s0,44(sp)
GAS LISTING C:\Users\SOLDER~1\AppData\Local\Temp\ccPZLIWm.s 			page 60


 2404              		.cfi_offset 8, -4
 2405 0004 0018     		addi	s0,sp,48
 2406              		.cfi_def_cfa 8, 0
 2407 0006 232EA4FC 		sw	a0,-36(s0)
 2408 000a AE87     		mv	a5,a1
 2409 000c 231DF4FC 		sh	a5,-38(s0)
 949:Drivers/src/ch32v20x_tim.c ****     uint16_t tmpccmr1 = 0;
 2410              		.loc 1 949 14
 2411 0010 231704FE 		sh	zero,-18(s0)
 950:Drivers/src/ch32v20x_tim.c **** 
 951:Drivers/src/ch32v20x_tim.c ****     tmpccmr1 = TIMx->CHCTLR1;
 2412              		.loc 1 951 14
 2413 0014 8327C4FD 		lw	a5,-36(s0)
 2414 0018 9E2F     		lhu	a5,24(a5)
 2415 001a 2317F4FE 		sh	a5,-18(s0)
 952:Drivers/src/ch32v20x_tim.c ****     tmpccmr1 &= (uint16_t) ~((uint16_t)TIM_OC2M);
 2416              		.loc 1 952 14
 2417 001e 8357E4FE 		lhu	a5,-18(s0)
 2418 0022 3E87     		mv	a4,a5
 2419 0024 E577     		li	a5,-28672
 2420 0026 FD17     		addi	a5,a5,-1
 2421 0028 F98F     		and	a5,a4,a5
 2422 002a 2317F4FE 		sh	a5,-18(s0)
 953:Drivers/src/ch32v20x_tim.c ****     tmpccmr1 |= (uint16_t)(TIM_ForcedAction << 8);
 2423              		.loc 1 953 17
 2424 002e 8357A4FD 		lhu	a5,-38(s0)
 2425 0032 A207     		slli	a5,a5,8
 2426 0034 C207     		slli	a5,a5,16
 2427 0036 C183     		srli	a5,a5,16
 2428              		.loc 1 953 14
 2429 0038 0357E4FE 		lhu	a4,-18(s0)
 2430 003c D98F     		or	a5,a5,a4
 2431 003e 2317F4FE 		sh	a5,-18(s0)
 954:Drivers/src/ch32v20x_tim.c ****     TIMx->CHCTLR1 = tmpccmr1;
 2432              		.loc 1 954 19
 2433 0042 8327C4FD 		lw	a5,-36(s0)
 2434 0046 0357E4FE 		lhu	a4,-18(s0)
 2435 004a 9AAF     		sh	a4,24(a5)
 955:Drivers/src/ch32v20x_tim.c **** }
 2436              		.loc 1 955 1
 2437 004c 0100     		nop
 2438 004e 3254     		lw	s0,44(sp)
 2439              		.cfi_restore 8
 2440              		.cfi_def_cfa 2, 48
 2441 0050 4561     		addi	sp,sp,48
 2442              		.cfi_def_cfa_offset 0
 2443 0052 8280     		jr	ra
 2444              		.cfi_endproc
 2445              	.LFE46:
 2447              		.section	.text.TIM_ForcedOC3Config,"ax",@progbits
 2448              		.align	1
 2449              		.globl	TIM_ForcedOC3Config
 2451              	TIM_ForcedOC3Config:
 2452              	.LFB47:
 956:Drivers/src/ch32v20x_tim.c **** 
 957:Drivers/src/ch32v20x_tim.c **** /*********************************************************************
 958:Drivers/src/ch32v20x_tim.c ****  * @fn      TIM_ForcedOC3Config
GAS LISTING C:\Users\SOLDER~1\AppData\Local\Temp\ccPZLIWm.s 			page 61


 959:Drivers/src/ch32v20x_tim.c ****  *
 960:Drivers/src/ch32v20x_tim.c ****  * @brief   Forces the TIMx output 3 waveform to active or inactive level.
 961:Drivers/src/ch32v20x_tim.c ****  *
 962:Drivers/src/ch32v20x_tim.c ****  * @param   TIMx - where x can be 1 to 4 to select the TIM peripheral.
 963:Drivers/src/ch32v20x_tim.c ****  *          TIM_ForcedAction - specifies the forced Action to be set to the
 964:Drivers/src/ch32v20x_tim.c ****  *        output waveform.
 965:Drivers/src/ch32v20x_tim.c ****  *            TIM_ForcedAction_Active - Force active level on OC3REF.
 966:Drivers/src/ch32v20x_tim.c ****  *            TIM_ForcedAction_InActive - Force inactive level on OC3REF.
 967:Drivers/src/ch32v20x_tim.c ****  *
 968:Drivers/src/ch32v20x_tim.c ****  * @return  none
 969:Drivers/src/ch32v20x_tim.c ****  */
 970:Drivers/src/ch32v20x_tim.c **** void TIM_ForcedOC3Config(TIM_TypeDef *TIMx, uint16_t TIM_ForcedAction)
 971:Drivers/src/ch32v20x_tim.c **** {
 2453              		.loc 1 971 1
 2454              		.cfi_startproc
 2455 0000 7971     		addi	sp,sp,-48
 2456              		.cfi_def_cfa_offset 48
 2457 0002 22D6     		sw	s0,44(sp)
 2458              		.cfi_offset 8, -4
 2459 0004 0018     		addi	s0,sp,48
 2460              		.cfi_def_cfa 8, 0
 2461 0006 232EA4FC 		sw	a0,-36(s0)
 2462 000a AE87     		mv	a5,a1
 2463 000c 231DF4FC 		sh	a5,-38(s0)
 972:Drivers/src/ch32v20x_tim.c ****     uint16_t tmpccmr2 = 0;
 2464              		.loc 1 972 14
 2465 0010 231704FE 		sh	zero,-18(s0)
 973:Drivers/src/ch32v20x_tim.c **** 
 974:Drivers/src/ch32v20x_tim.c ****     tmpccmr2 = TIMx->CHCTLR2;
 2466              		.loc 1 974 14
 2467 0014 8327C4FD 		lw	a5,-36(s0)
 2468 0018 DE2F     		lhu	a5,28(a5)
 2469 001a 2317F4FE 		sh	a5,-18(s0)
 975:Drivers/src/ch32v20x_tim.c ****     tmpccmr2 &= (uint16_t) ~((uint16_t)TIM_OC3M);
 2470              		.loc 1 975 14
 2471 001e 8357E4FE 		lhu	a5,-18(s0)
 2472 0022 93F7F7F8 		andi	a5,a5,-113
 2473 0026 2317F4FE 		sh	a5,-18(s0)
 976:Drivers/src/ch32v20x_tim.c ****     tmpccmr2 |= TIM_ForcedAction;
 2474              		.loc 1 976 14
 2475 002a 8357E4FE 		lhu	a5,-18(s0)
 2476 002e 3E87     		mv	a4,a5
 2477 0030 8357A4FD 		lhu	a5,-38(s0)
 2478 0034 D98F     		or	a5,a4,a5
 2479 0036 2317F4FE 		sh	a5,-18(s0)
 977:Drivers/src/ch32v20x_tim.c ****     TIMx->CHCTLR2 = tmpccmr2;
 2480              		.loc 1 977 19
 2481 003a 8327C4FD 		lw	a5,-36(s0)
 2482 003e 0357E4FE 		lhu	a4,-18(s0)
 2483 0042 DAAF     		sh	a4,28(a5)
 978:Drivers/src/ch32v20x_tim.c **** }
 2484              		.loc 1 978 1
 2485 0044 0100     		nop
 2486 0046 3254     		lw	s0,44(sp)
 2487              		.cfi_restore 8
 2488              		.cfi_def_cfa 2, 48
 2489 0048 4561     		addi	sp,sp,48
GAS LISTING C:\Users\SOLDER~1\AppData\Local\Temp\ccPZLIWm.s 			page 62


 2490              		.cfi_def_cfa_offset 0
 2491 004a 8280     		jr	ra
 2492              		.cfi_endproc
 2493              	.LFE47:
 2495              		.section	.text.TIM_ForcedOC4Config,"ax",@progbits
 2496              		.align	1
 2497              		.globl	TIM_ForcedOC4Config
 2499              	TIM_ForcedOC4Config:
 2500              	.LFB48:
 979:Drivers/src/ch32v20x_tim.c **** 
 980:Drivers/src/ch32v20x_tim.c **** /*********************************************************************
 981:Drivers/src/ch32v20x_tim.c ****  * @fn      TIM_ForcedOC4Config
 982:Drivers/src/ch32v20x_tim.c ****  *
 983:Drivers/src/ch32v20x_tim.c ****  * @brief   Forces the TIMx output 4 waveform to active or inactive level.
 984:Drivers/src/ch32v20x_tim.c ****  *
 985:Drivers/src/ch32v20x_tim.c ****  * @param   TIMx - where x can be 1 to 4 to select the TIM peripheral.
 986:Drivers/src/ch32v20x_tim.c ****  *          TIM_ForcedAction - specifies the forced Action to be set to the
 987:Drivers/src/ch32v20x_tim.c ****  *        output waveform.
 988:Drivers/src/ch32v20x_tim.c ****  *            TIM_ForcedAction_Active - Force active level on OC4REF.
 989:Drivers/src/ch32v20x_tim.c ****  *            TIM_ForcedAction_InActive - Force inactive level on OC4REF.
 990:Drivers/src/ch32v20x_tim.c ****  *
 991:Drivers/src/ch32v20x_tim.c ****  * @return  none
 992:Drivers/src/ch32v20x_tim.c ****  */
 993:Drivers/src/ch32v20x_tim.c **** void TIM_ForcedOC4Config(TIM_TypeDef *TIMx, uint16_t TIM_ForcedAction)
 994:Drivers/src/ch32v20x_tim.c **** {
 2501              		.loc 1 994 1
 2502              		.cfi_startproc
 2503 0000 7971     		addi	sp,sp,-48
 2504              		.cfi_def_cfa_offset 48
 2505 0002 22D6     		sw	s0,44(sp)
 2506              		.cfi_offset 8, -4
 2507 0004 0018     		addi	s0,sp,48
 2508              		.cfi_def_cfa 8, 0
 2509 0006 232EA4FC 		sw	a0,-36(s0)
 2510 000a AE87     		mv	a5,a1
 2511 000c 231DF4FC 		sh	a5,-38(s0)
 995:Drivers/src/ch32v20x_tim.c ****     uint16_t tmpccmr2 = 0;
 2512              		.loc 1 995 14
 2513 0010 231704FE 		sh	zero,-18(s0)
 996:Drivers/src/ch32v20x_tim.c **** 
 997:Drivers/src/ch32v20x_tim.c ****     tmpccmr2 = TIMx->CHCTLR2;
 2514              		.loc 1 997 14
 2515 0014 8327C4FD 		lw	a5,-36(s0)
 2516 0018 DE2F     		lhu	a5,28(a5)
 2517 001a 2317F4FE 		sh	a5,-18(s0)
 998:Drivers/src/ch32v20x_tim.c ****     tmpccmr2 &= (uint16_t) ~((uint16_t)TIM_OC4M);
 2518              		.loc 1 998 14
 2519 001e 8357E4FE 		lhu	a5,-18(s0)
 2520 0022 3E87     		mv	a4,a5
 2521 0024 E577     		li	a5,-28672
 2522 0026 FD17     		addi	a5,a5,-1
 2523 0028 F98F     		and	a5,a4,a5
 2524 002a 2317F4FE 		sh	a5,-18(s0)
 999:Drivers/src/ch32v20x_tim.c ****     tmpccmr2 |= (uint16_t)(TIM_ForcedAction << 8);
 2525              		.loc 1 999 17
 2526 002e 8357A4FD 		lhu	a5,-38(s0)
 2527 0032 A207     		slli	a5,a5,8
GAS LISTING C:\Users\SOLDER~1\AppData\Local\Temp\ccPZLIWm.s 			page 63


 2528 0034 C207     		slli	a5,a5,16
 2529 0036 C183     		srli	a5,a5,16
 2530              		.loc 1 999 14
 2531 0038 0357E4FE 		lhu	a4,-18(s0)
 2532 003c D98F     		or	a5,a5,a4
 2533 003e 2317F4FE 		sh	a5,-18(s0)
1000:Drivers/src/ch32v20x_tim.c ****     TIMx->CHCTLR2 = tmpccmr2;
 2534              		.loc 1 1000 19
 2535 0042 8327C4FD 		lw	a5,-36(s0)
 2536 0046 0357E4FE 		lhu	a4,-18(s0)
 2537 004a DAAF     		sh	a4,28(a5)
1001:Drivers/src/ch32v20x_tim.c **** }
 2538              		.loc 1 1001 1
 2539 004c 0100     		nop
 2540 004e 3254     		lw	s0,44(sp)
 2541              		.cfi_restore 8
 2542              		.cfi_def_cfa 2, 48
 2543 0050 4561     		addi	sp,sp,48
 2544              		.cfi_def_cfa_offset 0
 2545 0052 8280     		jr	ra
 2546              		.cfi_endproc
 2547              	.LFE48:
 2549              		.section	.text.TIM_ARRPreloadConfig,"ax",@progbits
 2550              		.align	1
 2551              		.globl	TIM_ARRPreloadConfig
 2553              	TIM_ARRPreloadConfig:
 2554              	.LFB49:
1002:Drivers/src/ch32v20x_tim.c **** 
1003:Drivers/src/ch32v20x_tim.c **** /*********************************************************************
1004:Drivers/src/ch32v20x_tim.c ****  * @fn      TIM_ARRPreloadConfig
1005:Drivers/src/ch32v20x_tim.c ****  *
1006:Drivers/src/ch32v20x_tim.c ****  * @brief   Enables or disables TIMx peripheral Preload register on ARR.
1007:Drivers/src/ch32v20x_tim.c ****  *
1008:Drivers/src/ch32v20x_tim.c ****  * @param   TIMx - where x can be 1 to 4 to select the TIM peripheral.
1009:Drivers/src/ch32v20x_tim.c ****  *          NewState - ENABLE or DISABLE.
1010:Drivers/src/ch32v20x_tim.c ****  *
1011:Drivers/src/ch32v20x_tim.c ****  * @return  none
1012:Drivers/src/ch32v20x_tim.c ****  */
1013:Drivers/src/ch32v20x_tim.c **** void TIM_ARRPreloadConfig(TIM_TypeDef *TIMx, FunctionalState NewState)
1014:Drivers/src/ch32v20x_tim.c **** {
 2555              		.loc 1 1014 1
 2556              		.cfi_startproc
 2557 0000 0111     		addi	sp,sp,-32
 2558              		.cfi_def_cfa_offset 32
 2559 0002 22CE     		sw	s0,28(sp)
 2560              		.cfi_offset 8, -4
 2561 0004 0010     		addi	s0,sp,32
 2562              		.cfi_def_cfa 8, 0
 2563 0006 2326A4FE 		sw	a0,-20(s0)
 2564 000a 2324B4FE 		sw	a1,-24(s0)
1015:Drivers/src/ch32v20x_tim.c ****     if(NewState != DISABLE)
 2565              		.loc 1 1015 7
 2566 000e 832784FE 		lw	a5,-24(s0)
 2567 0012 99CF     		beq	a5,zero,.L74
1016:Drivers/src/ch32v20x_tim.c ****     {
1017:Drivers/src/ch32v20x_tim.c ****         TIMx->CTLR1 |= TIM_ARPE;
 2568              		.loc 1 1017 13
GAS LISTING C:\Users\SOLDER~1\AppData\Local\Temp\ccPZLIWm.s 			page 64


 2569 0014 8327C4FE 		lw	a5,-20(s0)
 2570 0018 9E23     		lhu	a5,0(a5)
 2571 001a C207     		slli	a5,a5,16
 2572 001c C183     		srli	a5,a5,16
 2573              		.loc 1 1017 21
 2574 001e 93E70708 		ori	a5,a5,128
 2575 0022 13970701 		slli	a4,a5,16
 2576 0026 4183     		srli	a4,a4,16
 2577 0028 8327C4FE 		lw	a5,-20(s0)
 2578 002c 9AA3     		sh	a4,0(a5)
1018:Drivers/src/ch32v20x_tim.c ****     }
1019:Drivers/src/ch32v20x_tim.c ****     else
1020:Drivers/src/ch32v20x_tim.c ****     {
1021:Drivers/src/ch32v20x_tim.c ****         TIMx->CTLR1 &= (uint16_t) ~((uint16_t)TIM_ARPE);
1022:Drivers/src/ch32v20x_tim.c ****     }
1023:Drivers/src/ch32v20x_tim.c **** }
 2579              		.loc 1 1023 1
 2580 002e 31A8     		j	.L76
 2581              	.L74:
1021:Drivers/src/ch32v20x_tim.c ****     }
 2582              		.loc 1 1021 13
 2583 0030 8327C4FE 		lw	a5,-20(s0)
 2584 0034 9E23     		lhu	a5,0(a5)
 2585 0036 C207     		slli	a5,a5,16
 2586 0038 C183     		srli	a5,a5,16
1021:Drivers/src/ch32v20x_tim.c ****     }
 2587              		.loc 1 1021 21
 2588 003a 93F7F7F7 		andi	a5,a5,-129
 2589 003e 13970701 		slli	a4,a5,16
 2590 0042 4183     		srli	a4,a4,16
 2591 0044 8327C4FE 		lw	a5,-20(s0)
 2592 0048 9AA3     		sh	a4,0(a5)
 2593              	.L76:
 2594              		.loc 1 1023 1
 2595 004a 0100     		nop
 2596 004c 7244     		lw	s0,28(sp)
 2597              		.cfi_restore 8
 2598              		.cfi_def_cfa 2, 32
 2599 004e 0561     		addi	sp,sp,32
 2600              		.cfi_def_cfa_offset 0
 2601 0050 8280     		jr	ra
 2602              		.cfi_endproc
 2603              	.LFE49:
 2605              		.section	.text.TIM_SelectCOM,"ax",@progbits
 2606              		.align	1
 2607              		.globl	TIM_SelectCOM
 2609              	TIM_SelectCOM:
 2610              	.LFB50:
1024:Drivers/src/ch32v20x_tim.c **** 
1025:Drivers/src/ch32v20x_tim.c **** /*********************************************************************
1026:Drivers/src/ch32v20x_tim.c ****  * @fn      TIM_SelectCOM
1027:Drivers/src/ch32v20x_tim.c ****  *
1028:Drivers/src/ch32v20x_tim.c ****  * @brief   Selects the TIM peripheral Commutation event.
1029:Drivers/src/ch32v20x_tim.c ****  *
1030:Drivers/src/ch32v20x_tim.c ****  * @param   TIMx - where x can be 1 to 4 to select the TIM peripheral.
1031:Drivers/src/ch32v20x_tim.c ****  *          NewState - ENABLE or DISABLE.
1032:Drivers/src/ch32v20x_tim.c ****  *
GAS LISTING C:\Users\SOLDER~1\AppData\Local\Temp\ccPZLIWm.s 			page 65


1033:Drivers/src/ch32v20x_tim.c ****  * @return  none
1034:Drivers/src/ch32v20x_tim.c ****  */
1035:Drivers/src/ch32v20x_tim.c **** void TIM_SelectCOM(TIM_TypeDef *TIMx, FunctionalState NewState)
1036:Drivers/src/ch32v20x_tim.c **** {
 2611              		.loc 1 1036 1
 2612              		.cfi_startproc
 2613 0000 0111     		addi	sp,sp,-32
 2614              		.cfi_def_cfa_offset 32
 2615 0002 22CE     		sw	s0,28(sp)
 2616              		.cfi_offset 8, -4
 2617 0004 0010     		addi	s0,sp,32
 2618              		.cfi_def_cfa 8, 0
 2619 0006 2326A4FE 		sw	a0,-20(s0)
 2620 000a 2324B4FE 		sw	a1,-24(s0)
1037:Drivers/src/ch32v20x_tim.c ****     if(NewState != DISABLE)
 2621              		.loc 1 1037 7
 2622 000e 832784FE 		lw	a5,-24(s0)
 2623 0012 99CF     		beq	a5,zero,.L78
1038:Drivers/src/ch32v20x_tim.c ****     {
1039:Drivers/src/ch32v20x_tim.c ****         TIMx->CTLR2 |= TIM_CCUS;
 2624              		.loc 1 1039 13
 2625 0014 8327C4FE 		lw	a5,-20(s0)
 2626 0018 DE23     		lhu	a5,4(a5)
 2627 001a C207     		slli	a5,a5,16
 2628 001c C183     		srli	a5,a5,16
 2629              		.loc 1 1039 21
 2630 001e 93E74700 		ori	a5,a5,4
 2631 0022 13970701 		slli	a4,a5,16
 2632 0026 4183     		srli	a4,a4,16
 2633 0028 8327C4FE 		lw	a5,-20(s0)
 2634 002c DAA3     		sh	a4,4(a5)
1040:Drivers/src/ch32v20x_tim.c ****     }
1041:Drivers/src/ch32v20x_tim.c ****     else
1042:Drivers/src/ch32v20x_tim.c ****     {
1043:Drivers/src/ch32v20x_tim.c ****         TIMx->CTLR2 &= (uint16_t) ~((uint16_t)TIM_CCUS);
1044:Drivers/src/ch32v20x_tim.c ****     }
1045:Drivers/src/ch32v20x_tim.c **** }
 2635              		.loc 1 1045 1
 2636 002e 29A8     		j	.L80
 2637              	.L78:
1043:Drivers/src/ch32v20x_tim.c ****     }
 2638              		.loc 1 1043 13
 2639 0030 8327C4FE 		lw	a5,-20(s0)
 2640 0034 DE23     		lhu	a5,4(a5)
 2641 0036 C207     		slli	a5,a5,16
 2642 0038 C183     		srli	a5,a5,16
1043:Drivers/src/ch32v20x_tim.c ****     }
 2643              		.loc 1 1043 21
 2644 003a ED9B     		andi	a5,a5,-5
 2645 003c 13970701 		slli	a4,a5,16
 2646 0040 4183     		srli	a4,a4,16
 2647 0042 8327C4FE 		lw	a5,-20(s0)
 2648 0046 DAA3     		sh	a4,4(a5)
 2649              	.L80:
 2650              		.loc 1 1045 1
 2651 0048 0100     		nop
 2652 004a 7244     		lw	s0,28(sp)
GAS LISTING C:\Users\SOLDER~1\AppData\Local\Temp\ccPZLIWm.s 			page 66


 2653              		.cfi_restore 8
 2654              		.cfi_def_cfa 2, 32
 2655 004c 0561     		addi	sp,sp,32
 2656              		.cfi_def_cfa_offset 0
 2657 004e 8280     		jr	ra
 2658              		.cfi_endproc
 2659              	.LFE50:
 2661              		.section	.text.TIM_SelectCCDMA,"ax",@progbits
 2662              		.align	1
 2663              		.globl	TIM_SelectCCDMA
 2665              	TIM_SelectCCDMA:
 2666              	.LFB51:
1046:Drivers/src/ch32v20x_tim.c **** 
1047:Drivers/src/ch32v20x_tim.c **** /*********************************************************************
1048:Drivers/src/ch32v20x_tim.c ****  * @fn      TIM_SelectCCDMA
1049:Drivers/src/ch32v20x_tim.c ****  *
1050:Drivers/src/ch32v20x_tim.c ****  * @brief   Selects the TIMx peripheral Capture Compare DMA source.
1051:Drivers/src/ch32v20x_tim.c ****  *
1052:Drivers/src/ch32v20x_tim.c ****  * @param   TIMx - where x can be 1 to 4 to select the TIM peripheral.
1053:Drivers/src/ch32v20x_tim.c ****  *          NewState - ENABLE or DISABLE.
1054:Drivers/src/ch32v20x_tim.c ****  *
1055:Drivers/src/ch32v20x_tim.c ****  * @return  none
1056:Drivers/src/ch32v20x_tim.c ****  */
1057:Drivers/src/ch32v20x_tim.c **** void TIM_SelectCCDMA(TIM_TypeDef *TIMx, FunctionalState NewState)
1058:Drivers/src/ch32v20x_tim.c **** {
 2667              		.loc 1 1058 1
 2668              		.cfi_startproc
 2669 0000 0111     		addi	sp,sp,-32
 2670              		.cfi_def_cfa_offset 32
 2671 0002 22CE     		sw	s0,28(sp)
 2672              		.cfi_offset 8, -4
 2673 0004 0010     		addi	s0,sp,32
 2674              		.cfi_def_cfa 8, 0
 2675 0006 2326A4FE 		sw	a0,-20(s0)
 2676 000a 2324B4FE 		sw	a1,-24(s0)
1059:Drivers/src/ch32v20x_tim.c ****     if(NewState != DISABLE)
 2677              		.loc 1 1059 7
 2678 000e 832784FE 		lw	a5,-24(s0)
 2679 0012 99CF     		beq	a5,zero,.L82
1060:Drivers/src/ch32v20x_tim.c ****     {
1061:Drivers/src/ch32v20x_tim.c ****         TIMx->CTLR2 |= TIM_CCDS;
 2680              		.loc 1 1061 13
 2681 0014 8327C4FE 		lw	a5,-20(s0)
 2682 0018 DE23     		lhu	a5,4(a5)
 2683 001a C207     		slli	a5,a5,16
 2684 001c C183     		srli	a5,a5,16
 2685              		.loc 1 1061 21
 2686 001e 93E78700 		ori	a5,a5,8
 2687 0022 13970701 		slli	a4,a5,16
 2688 0026 4183     		srli	a4,a4,16
 2689 0028 8327C4FE 		lw	a5,-20(s0)
 2690 002c DAA3     		sh	a4,4(a5)
1062:Drivers/src/ch32v20x_tim.c ****     }
1063:Drivers/src/ch32v20x_tim.c ****     else
1064:Drivers/src/ch32v20x_tim.c ****     {
1065:Drivers/src/ch32v20x_tim.c ****         TIMx->CTLR2 &= (uint16_t) ~((uint16_t)TIM_CCDS);
1066:Drivers/src/ch32v20x_tim.c ****     }
GAS LISTING C:\Users\SOLDER~1\AppData\Local\Temp\ccPZLIWm.s 			page 67


1067:Drivers/src/ch32v20x_tim.c **** }
 2691              		.loc 1 1067 1
 2692 002e 29A8     		j	.L84
 2693              	.L82:
1065:Drivers/src/ch32v20x_tim.c ****     }
 2694              		.loc 1 1065 13
 2695 0030 8327C4FE 		lw	a5,-20(s0)
 2696 0034 DE23     		lhu	a5,4(a5)
 2697 0036 C207     		slli	a5,a5,16
 2698 0038 C183     		srli	a5,a5,16
1065:Drivers/src/ch32v20x_tim.c ****     }
 2699              		.loc 1 1065 21
 2700 003a DD9B     		andi	a5,a5,-9
 2701 003c 13970701 		slli	a4,a5,16
 2702 0040 4183     		srli	a4,a4,16
 2703 0042 8327C4FE 		lw	a5,-20(s0)
 2704 0046 DAA3     		sh	a4,4(a5)
 2705              	.L84:
 2706              		.loc 1 1067 1
 2707 0048 0100     		nop
 2708 004a 7244     		lw	s0,28(sp)
 2709              		.cfi_restore 8
 2710              		.cfi_def_cfa 2, 32
 2711 004c 0561     		addi	sp,sp,32
 2712              		.cfi_def_cfa_offset 0
 2713 004e 8280     		jr	ra
 2714              		.cfi_endproc
 2715              	.LFE51:
 2717              		.section	.text.TIM_CCPreloadControl,"ax",@progbits
 2718              		.align	1
 2719              		.globl	TIM_CCPreloadControl
 2721              	TIM_CCPreloadControl:
 2722              	.LFB52:
1068:Drivers/src/ch32v20x_tim.c **** 
1069:Drivers/src/ch32v20x_tim.c **** /*********************************************************************
1070:Drivers/src/ch32v20x_tim.c ****  * @fn      TIM_CCPreloadControl
1071:Drivers/src/ch32v20x_tim.c ****  *
1072:Drivers/src/ch32v20x_tim.c ****  * @brief   DSets or Resets the TIM peripheral Capture Compare Preload Control bit.
1073:Drivers/src/ch32v20x_tim.c ****  *        reset values (Affects also the I2Ss).
1074:Drivers/src/ch32v20x_tim.c ****  * @param   TIMx - where x can be 1 to 4 to select the TIM peripheral.
1075:Drivers/src/ch32v20x_tim.c ****  *          NewState - ENABLE or DISABLE.
1076:Drivers/src/ch32v20x_tim.c ****  *
1077:Drivers/src/ch32v20x_tim.c ****  * @return  none
1078:Drivers/src/ch32v20x_tim.c ****  */
1079:Drivers/src/ch32v20x_tim.c **** void TIM_CCPreloadControl(TIM_TypeDef *TIMx, FunctionalState NewState)
1080:Drivers/src/ch32v20x_tim.c **** {
 2723              		.loc 1 1080 1
 2724              		.cfi_startproc
 2725 0000 0111     		addi	sp,sp,-32
 2726              		.cfi_def_cfa_offset 32
 2727 0002 22CE     		sw	s0,28(sp)
 2728              		.cfi_offset 8, -4
 2729 0004 0010     		addi	s0,sp,32
 2730              		.cfi_def_cfa 8, 0
 2731 0006 2326A4FE 		sw	a0,-20(s0)
 2732 000a 2324B4FE 		sw	a1,-24(s0)
1081:Drivers/src/ch32v20x_tim.c ****     if(NewState != DISABLE)
GAS LISTING C:\Users\SOLDER~1\AppData\Local\Temp\ccPZLIWm.s 			page 68


 2733              		.loc 1 1081 7
 2734 000e 832784FE 		lw	a5,-24(s0)
 2735 0012 99CF     		beq	a5,zero,.L86
1082:Drivers/src/ch32v20x_tim.c ****     {
1083:Drivers/src/ch32v20x_tim.c ****         TIMx->CTLR2 |= TIM_CCPC;
 2736              		.loc 1 1083 13
 2737 0014 8327C4FE 		lw	a5,-20(s0)
 2738 0018 DE23     		lhu	a5,4(a5)
 2739 001a C207     		slli	a5,a5,16
 2740 001c C183     		srli	a5,a5,16
 2741              		.loc 1 1083 21
 2742 001e 93E71700 		ori	a5,a5,1
 2743 0022 13970701 		slli	a4,a5,16
 2744 0026 4183     		srli	a4,a4,16
 2745 0028 8327C4FE 		lw	a5,-20(s0)
 2746 002c DAA3     		sh	a4,4(a5)
1084:Drivers/src/ch32v20x_tim.c ****     }
1085:Drivers/src/ch32v20x_tim.c ****     else
1086:Drivers/src/ch32v20x_tim.c ****     {
1087:Drivers/src/ch32v20x_tim.c ****         TIMx->CTLR2 &= (uint16_t) ~((uint16_t)TIM_CCPC);
1088:Drivers/src/ch32v20x_tim.c ****     }
1089:Drivers/src/ch32v20x_tim.c **** }
 2747              		.loc 1 1089 1
 2748 002e 29A8     		j	.L88
 2749              	.L86:
1087:Drivers/src/ch32v20x_tim.c ****     }
 2750              		.loc 1 1087 13
 2751 0030 8327C4FE 		lw	a5,-20(s0)
 2752 0034 DE23     		lhu	a5,4(a5)
 2753 0036 C207     		slli	a5,a5,16
 2754 0038 C183     		srli	a5,a5,16
1087:Drivers/src/ch32v20x_tim.c ****     }
 2755              		.loc 1 1087 21
 2756 003a F99B     		andi	a5,a5,-2
 2757 003c 13970701 		slli	a4,a5,16
 2758 0040 4183     		srli	a4,a4,16
 2759 0042 8327C4FE 		lw	a5,-20(s0)
 2760 0046 DAA3     		sh	a4,4(a5)
 2761              	.L88:
 2762              		.loc 1 1089 1
 2763 0048 0100     		nop
 2764 004a 7244     		lw	s0,28(sp)
 2765              		.cfi_restore 8
 2766              		.cfi_def_cfa 2, 32
 2767 004c 0561     		addi	sp,sp,32
 2768              		.cfi_def_cfa_offset 0
 2769 004e 8280     		jr	ra
 2770              		.cfi_endproc
 2771              	.LFE52:
 2773              		.section	.text.TIM_OC1PreloadConfig,"ax",@progbits
 2774              		.align	1
 2775              		.globl	TIM_OC1PreloadConfig
 2777              	TIM_OC1PreloadConfig:
 2778              	.LFB53:
1090:Drivers/src/ch32v20x_tim.c **** 
1091:Drivers/src/ch32v20x_tim.c **** /*********************************************************************
1092:Drivers/src/ch32v20x_tim.c ****  * @fn      TIM_OC1PreloadConfig
GAS LISTING C:\Users\SOLDER~1\AppData\Local\Temp\ccPZLIWm.s 			page 69


1093:Drivers/src/ch32v20x_tim.c ****  *
1094:Drivers/src/ch32v20x_tim.c ****  * @brief   Enables or disables the TIMx peripheral Preload register on CCR1.
1095:Drivers/src/ch32v20x_tim.c ****  *
1096:Drivers/src/ch32v20x_tim.c ****  * @param   TIMx - where x can be 1 to 4 to select the TIM peripheral.
1097:Drivers/src/ch32v20x_tim.c ****  *          TIM_OCPreload - new state of the TIMx peripheral Preload register.
1098:Drivers/src/ch32v20x_tim.c ****  *            TIM_OCPreload_Enable.
1099:Drivers/src/ch32v20x_tim.c ****  *            TIM_OCPreload_Disable.
1100:Drivers/src/ch32v20x_tim.c ****  *
1101:Drivers/src/ch32v20x_tim.c ****  * @return  none
1102:Drivers/src/ch32v20x_tim.c ****  */
1103:Drivers/src/ch32v20x_tim.c **** void TIM_OC1PreloadConfig(TIM_TypeDef *TIMx, uint16_t TIM_OCPreload)
1104:Drivers/src/ch32v20x_tim.c **** {
 2779              		.loc 1 1104 1
 2780              		.cfi_startproc
 2781 0000 7971     		addi	sp,sp,-48
 2782              		.cfi_def_cfa_offset 48
 2783 0002 22D6     		sw	s0,44(sp)
 2784              		.cfi_offset 8, -4
 2785 0004 0018     		addi	s0,sp,48
 2786              		.cfi_def_cfa 8, 0
 2787 0006 232EA4FC 		sw	a0,-36(s0)
 2788 000a AE87     		mv	a5,a1
 2789 000c 231DF4FC 		sh	a5,-38(s0)
1105:Drivers/src/ch32v20x_tim.c ****     uint16_t tmpccmr1 = 0;
 2790              		.loc 1 1105 14
 2791 0010 231704FE 		sh	zero,-18(s0)
1106:Drivers/src/ch32v20x_tim.c **** 
1107:Drivers/src/ch32v20x_tim.c ****     tmpccmr1 = TIMx->CHCTLR1;
 2792              		.loc 1 1107 14
 2793 0014 8327C4FD 		lw	a5,-36(s0)
 2794 0018 9E2F     		lhu	a5,24(a5)
 2795 001a 2317F4FE 		sh	a5,-18(s0)
1108:Drivers/src/ch32v20x_tim.c ****     tmpccmr1 &= (uint16_t) ~((uint16_t)TIM_OC1PE);
 2796              		.loc 1 1108 14
 2797 001e 8357E4FE 		lhu	a5,-18(s0)
 2798 0022 DD9B     		andi	a5,a5,-9
 2799 0024 2317F4FE 		sh	a5,-18(s0)
1109:Drivers/src/ch32v20x_tim.c ****     tmpccmr1 |= TIM_OCPreload;
 2800              		.loc 1 1109 14
 2801 0028 8357E4FE 		lhu	a5,-18(s0)
 2802 002c 3E87     		mv	a4,a5
 2803 002e 8357A4FD 		lhu	a5,-38(s0)
 2804 0032 D98F     		or	a5,a4,a5
 2805 0034 2317F4FE 		sh	a5,-18(s0)
1110:Drivers/src/ch32v20x_tim.c ****     TIMx->CHCTLR1 = tmpccmr1;
 2806              		.loc 1 1110 19
 2807 0038 8327C4FD 		lw	a5,-36(s0)
 2808 003c 0357E4FE 		lhu	a4,-18(s0)
 2809 0040 9AAF     		sh	a4,24(a5)
1111:Drivers/src/ch32v20x_tim.c **** }
 2810              		.loc 1 1111 1
 2811 0042 0100     		nop
 2812 0044 3254     		lw	s0,44(sp)
 2813              		.cfi_restore 8
 2814              		.cfi_def_cfa 2, 48
 2815 0046 4561     		addi	sp,sp,48
 2816              		.cfi_def_cfa_offset 0
GAS LISTING C:\Users\SOLDER~1\AppData\Local\Temp\ccPZLIWm.s 			page 70


 2817 0048 8280     		jr	ra
 2818              		.cfi_endproc
 2819              	.LFE53:
 2821              		.section	.text.TIM_OC2PreloadConfig,"ax",@progbits
 2822              		.align	1
 2823              		.globl	TIM_OC2PreloadConfig
 2825              	TIM_OC2PreloadConfig:
 2826              	.LFB54:
1112:Drivers/src/ch32v20x_tim.c **** 
1113:Drivers/src/ch32v20x_tim.c **** /*********************************************************************
1114:Drivers/src/ch32v20x_tim.c ****  * @fn      TIM_OC2PreloadConfig
1115:Drivers/src/ch32v20x_tim.c ****  *
1116:Drivers/src/ch32v20x_tim.c ****  * @brief   Enables or disables the TIMx peripheral Preload register on CCR2.
1117:Drivers/src/ch32v20x_tim.c ****  *
1118:Drivers/src/ch32v20x_tim.c ****  * @param   TIMx - where x can be 1 to 4 to select the TIM peripheral.
1119:Drivers/src/ch32v20x_tim.c ****  *          TIM_OCPreload - new state of the TIMx peripheral Preload register.
1120:Drivers/src/ch32v20x_tim.c ****  *            TIM_OCPreload_Enable.
1121:Drivers/src/ch32v20x_tim.c ****  *            TIM_OCPreload_Disable.
1122:Drivers/src/ch32v20x_tim.c ****  *
1123:Drivers/src/ch32v20x_tim.c ****  * @return  none
1124:Drivers/src/ch32v20x_tim.c ****  */
1125:Drivers/src/ch32v20x_tim.c **** void TIM_OC2PreloadConfig(TIM_TypeDef *TIMx, uint16_t TIM_OCPreload)
1126:Drivers/src/ch32v20x_tim.c **** {
 2827              		.loc 1 1126 1
 2828              		.cfi_startproc
 2829 0000 7971     		addi	sp,sp,-48
 2830              		.cfi_def_cfa_offset 48
 2831 0002 22D6     		sw	s0,44(sp)
 2832              		.cfi_offset 8, -4
 2833 0004 0018     		addi	s0,sp,48
 2834              		.cfi_def_cfa 8, 0
 2835 0006 232EA4FC 		sw	a0,-36(s0)
 2836 000a AE87     		mv	a5,a1
 2837 000c 231DF4FC 		sh	a5,-38(s0)
1127:Drivers/src/ch32v20x_tim.c ****     uint16_t tmpccmr1 = 0;
 2838              		.loc 1 1127 14
 2839 0010 231704FE 		sh	zero,-18(s0)
1128:Drivers/src/ch32v20x_tim.c **** 
1129:Drivers/src/ch32v20x_tim.c ****     tmpccmr1 = TIMx->CHCTLR1;
 2840              		.loc 1 1129 14
 2841 0014 8327C4FD 		lw	a5,-36(s0)
 2842 0018 9E2F     		lhu	a5,24(a5)
 2843 001a 2317F4FE 		sh	a5,-18(s0)
1130:Drivers/src/ch32v20x_tim.c ****     tmpccmr1 &= (uint16_t) ~((uint16_t)TIM_OC2PE);
 2844              		.loc 1 1130 14
 2845 001e 8357E4FE 		lhu	a5,-18(s0)
 2846 0022 3E87     		mv	a4,a5
 2847 0024 FD77     		li	a5,-4096
 2848 0026 9387F77F 		addi	a5,a5,2047
 2849 002a F98F     		and	a5,a4,a5
 2850 002c 2317F4FE 		sh	a5,-18(s0)
1131:Drivers/src/ch32v20x_tim.c ****     tmpccmr1 |= (uint16_t)(TIM_OCPreload << 8);
 2851              		.loc 1 1131 17
 2852 0030 8357A4FD 		lhu	a5,-38(s0)
 2853 0034 A207     		slli	a5,a5,8
 2854 0036 C207     		slli	a5,a5,16
 2855 0038 C183     		srli	a5,a5,16
GAS LISTING C:\Users\SOLDER~1\AppData\Local\Temp\ccPZLIWm.s 			page 71


 2856              		.loc 1 1131 14
 2857 003a 0357E4FE 		lhu	a4,-18(s0)
 2858 003e D98F     		or	a5,a5,a4
 2859 0040 2317F4FE 		sh	a5,-18(s0)
1132:Drivers/src/ch32v20x_tim.c ****     TIMx->CHCTLR1 = tmpccmr1;
 2860              		.loc 1 1132 19
 2861 0044 8327C4FD 		lw	a5,-36(s0)
 2862 0048 0357E4FE 		lhu	a4,-18(s0)
 2863 004c 9AAF     		sh	a4,24(a5)
1133:Drivers/src/ch32v20x_tim.c **** }
 2864              		.loc 1 1133 1
 2865 004e 0100     		nop
 2866 0050 3254     		lw	s0,44(sp)
 2867              		.cfi_restore 8
 2868              		.cfi_def_cfa 2, 48
 2869 0052 4561     		addi	sp,sp,48
 2870              		.cfi_def_cfa_offset 0
 2871 0054 8280     		jr	ra
 2872              		.cfi_endproc
 2873              	.LFE54:
 2875              		.section	.text.TIM_OC3PreloadConfig,"ax",@progbits
 2876              		.align	1
 2877              		.globl	TIM_OC3PreloadConfig
 2879              	TIM_OC3PreloadConfig:
 2880              	.LFB55:
1134:Drivers/src/ch32v20x_tim.c **** 
1135:Drivers/src/ch32v20x_tim.c **** /*********************************************************************
1136:Drivers/src/ch32v20x_tim.c ****  * @fn      TIM_OC3PreloadConfig
1137:Drivers/src/ch32v20x_tim.c ****  *
1138:Drivers/src/ch32v20x_tim.c ****  * @brief   Enables or disables the TIMx peripheral Preload register on CCR3.
1139:Drivers/src/ch32v20x_tim.c ****  *
1140:Drivers/src/ch32v20x_tim.c ****  * @param   TIMx - where x can be 1 to 4 to select the TIM peripheral.
1141:Drivers/src/ch32v20x_tim.c ****  *          TIM_OCPreload - new state of the TIMx peripheral Preload register.
1142:Drivers/src/ch32v20x_tim.c ****  *            TIM_OCPreload_Enable.
1143:Drivers/src/ch32v20x_tim.c ****  *            TIM_OCPreload_Disable.
1144:Drivers/src/ch32v20x_tim.c ****  *
1145:Drivers/src/ch32v20x_tim.c ****  * @return  none
1146:Drivers/src/ch32v20x_tim.c ****  */
1147:Drivers/src/ch32v20x_tim.c **** void TIM_OC3PreloadConfig(TIM_TypeDef *TIMx, uint16_t TIM_OCPreload)
1148:Drivers/src/ch32v20x_tim.c **** {
 2881              		.loc 1 1148 1
 2882              		.cfi_startproc
 2883 0000 7971     		addi	sp,sp,-48
 2884              		.cfi_def_cfa_offset 48
 2885 0002 22D6     		sw	s0,44(sp)
 2886              		.cfi_offset 8, -4
 2887 0004 0018     		addi	s0,sp,48
 2888              		.cfi_def_cfa 8, 0
 2889 0006 232EA4FC 		sw	a0,-36(s0)
 2890 000a AE87     		mv	a5,a1
 2891 000c 231DF4FC 		sh	a5,-38(s0)
1149:Drivers/src/ch32v20x_tim.c ****     uint16_t tmpccmr2 = 0;
 2892              		.loc 1 1149 14
 2893 0010 231704FE 		sh	zero,-18(s0)
1150:Drivers/src/ch32v20x_tim.c **** 
1151:Drivers/src/ch32v20x_tim.c ****     tmpccmr2 = TIMx->CHCTLR2;
 2894              		.loc 1 1151 14
GAS LISTING C:\Users\SOLDER~1\AppData\Local\Temp\ccPZLIWm.s 			page 72


 2895 0014 8327C4FD 		lw	a5,-36(s0)
 2896 0018 DE2F     		lhu	a5,28(a5)
 2897 001a 2317F4FE 		sh	a5,-18(s0)
1152:Drivers/src/ch32v20x_tim.c ****     tmpccmr2 &= (uint16_t) ~((uint16_t)TIM_OC3PE);
 2898              		.loc 1 1152 14
 2899 001e 8357E4FE 		lhu	a5,-18(s0)
 2900 0022 DD9B     		andi	a5,a5,-9
 2901 0024 2317F4FE 		sh	a5,-18(s0)
1153:Drivers/src/ch32v20x_tim.c ****     tmpccmr2 |= TIM_OCPreload;
 2902              		.loc 1 1153 14
 2903 0028 8357E4FE 		lhu	a5,-18(s0)
 2904 002c 3E87     		mv	a4,a5
 2905 002e 8357A4FD 		lhu	a5,-38(s0)
 2906 0032 D98F     		or	a5,a4,a5
 2907 0034 2317F4FE 		sh	a5,-18(s0)
1154:Drivers/src/ch32v20x_tim.c ****     TIMx->CHCTLR2 = tmpccmr2;
 2908              		.loc 1 1154 19
 2909 0038 8327C4FD 		lw	a5,-36(s0)
 2910 003c 0357E4FE 		lhu	a4,-18(s0)
 2911 0040 DAAF     		sh	a4,28(a5)
1155:Drivers/src/ch32v20x_tim.c **** }
 2912              		.loc 1 1155 1
 2913 0042 0100     		nop
 2914 0044 3254     		lw	s0,44(sp)
 2915              		.cfi_restore 8
 2916              		.cfi_def_cfa 2, 48
 2917 0046 4561     		addi	sp,sp,48
 2918              		.cfi_def_cfa_offset 0
 2919 0048 8280     		jr	ra
 2920              		.cfi_endproc
 2921              	.LFE55:
 2923              		.section	.text.TIM_OC4PreloadConfig,"ax",@progbits
 2924              		.align	1
 2925              		.globl	TIM_OC4PreloadConfig
 2927              	TIM_OC4PreloadConfig:
 2928              	.LFB56:
1156:Drivers/src/ch32v20x_tim.c **** 
1157:Drivers/src/ch32v20x_tim.c **** /*********************************************************************
1158:Drivers/src/ch32v20x_tim.c ****  * @fn      TIM_OC4PreloadConfig
1159:Drivers/src/ch32v20x_tim.c ****  *
1160:Drivers/src/ch32v20x_tim.c ****  * @brief   Enables or disables the TIMx peripheral Preload register on CCR4.
1161:Drivers/src/ch32v20x_tim.c ****  *
1162:Drivers/src/ch32v20x_tim.c ****  * @param   TIMx - where x can be 1 to 4 to select the TIM peripheral.
1163:Drivers/src/ch32v20x_tim.c ****  *          TIM_OCPreload - new state of the TIMx peripheral Preload register.
1164:Drivers/src/ch32v20x_tim.c ****  *            TIM_OCPreload_Enable.
1165:Drivers/src/ch32v20x_tim.c ****  *            TIM_OCPreload_Disable.
1166:Drivers/src/ch32v20x_tim.c ****  *
1167:Drivers/src/ch32v20x_tim.c ****  * @return  none
1168:Drivers/src/ch32v20x_tim.c ****  */
1169:Drivers/src/ch32v20x_tim.c **** void TIM_OC4PreloadConfig(TIM_TypeDef *TIMx, uint16_t TIM_OCPreload)
1170:Drivers/src/ch32v20x_tim.c **** {
 2929              		.loc 1 1170 1
 2930              		.cfi_startproc
 2931 0000 7971     		addi	sp,sp,-48
 2932              		.cfi_def_cfa_offset 48
 2933 0002 22D6     		sw	s0,44(sp)
 2934              		.cfi_offset 8, -4
GAS LISTING C:\Users\SOLDER~1\AppData\Local\Temp\ccPZLIWm.s 			page 73


 2935 0004 0018     		addi	s0,sp,48
 2936              		.cfi_def_cfa 8, 0
 2937 0006 232EA4FC 		sw	a0,-36(s0)
 2938 000a AE87     		mv	a5,a1
 2939 000c 231DF4FC 		sh	a5,-38(s0)
1171:Drivers/src/ch32v20x_tim.c ****     uint16_t tmpccmr2 = 0;
 2940              		.loc 1 1171 14
 2941 0010 231704FE 		sh	zero,-18(s0)
1172:Drivers/src/ch32v20x_tim.c **** 
1173:Drivers/src/ch32v20x_tim.c ****     tmpccmr2 = TIMx->CHCTLR2;
 2942              		.loc 1 1173 14
 2943 0014 8327C4FD 		lw	a5,-36(s0)
 2944 0018 DE2F     		lhu	a5,28(a5)
 2945 001a 2317F4FE 		sh	a5,-18(s0)
1174:Drivers/src/ch32v20x_tim.c ****     tmpccmr2 &= (uint16_t) ~((uint16_t)TIM_OC4PE);
 2946              		.loc 1 1174 14
 2947 001e 8357E4FE 		lhu	a5,-18(s0)
 2948 0022 3E87     		mv	a4,a5
 2949 0024 FD77     		li	a5,-4096
 2950 0026 9387F77F 		addi	a5,a5,2047
 2951 002a F98F     		and	a5,a4,a5
 2952 002c 2317F4FE 		sh	a5,-18(s0)
1175:Drivers/src/ch32v20x_tim.c ****     tmpccmr2 |= (uint16_t)(TIM_OCPreload << 8);
 2953              		.loc 1 1175 17
 2954 0030 8357A4FD 		lhu	a5,-38(s0)
 2955 0034 A207     		slli	a5,a5,8
 2956 0036 C207     		slli	a5,a5,16
 2957 0038 C183     		srli	a5,a5,16
 2958              		.loc 1 1175 14
 2959 003a 0357E4FE 		lhu	a4,-18(s0)
 2960 003e D98F     		or	a5,a5,a4
 2961 0040 2317F4FE 		sh	a5,-18(s0)
1176:Drivers/src/ch32v20x_tim.c ****     TIMx->CHCTLR2 = tmpccmr2;
 2962              		.loc 1 1176 19
 2963 0044 8327C4FD 		lw	a5,-36(s0)
 2964 0048 0357E4FE 		lhu	a4,-18(s0)
 2965 004c DAAF     		sh	a4,28(a5)
1177:Drivers/src/ch32v20x_tim.c **** }
 2966              		.loc 1 1177 1
 2967 004e 0100     		nop
 2968 0050 3254     		lw	s0,44(sp)
 2969              		.cfi_restore 8
 2970              		.cfi_def_cfa 2, 48
 2971 0052 4561     		addi	sp,sp,48
 2972              		.cfi_def_cfa_offset 0
 2973 0054 8280     		jr	ra
 2974              		.cfi_endproc
 2975              	.LFE56:
 2977              		.section	.text.TIM_OC1FastConfig,"ax",@progbits
 2978              		.align	1
 2979              		.globl	TIM_OC1FastConfig
 2981              	TIM_OC1FastConfig:
 2982              	.LFB57:
1178:Drivers/src/ch32v20x_tim.c **** 
1179:Drivers/src/ch32v20x_tim.c **** /*********************************************************************
1180:Drivers/src/ch32v20x_tim.c ****  * @fn      TIM_OC1FastConfig
1181:Drivers/src/ch32v20x_tim.c ****  *
GAS LISTING C:\Users\SOLDER~1\AppData\Local\Temp\ccPZLIWm.s 			page 74


1182:Drivers/src/ch32v20x_tim.c ****  * @brief   Configures the TIMx Output Compare 1 Fast feature.
1183:Drivers/src/ch32v20x_tim.c ****  *
1184:Drivers/src/ch32v20x_tim.c ****  * @param   TIMx - where x can be 1 to 4 to select the TIM peripheral.
1185:Drivers/src/ch32v20x_tim.c ****  *          TIM_OCFast - new state of the Output Compare Fast Enable Bit.
1186:Drivers/src/ch32v20x_tim.c ****  *            TIM_OCFast_Enable - TIM output compare fast enable.
1187:Drivers/src/ch32v20x_tim.c ****  *            TIM_OCFast_Disable - TIM output compare fast disable.
1188:Drivers/src/ch32v20x_tim.c ****  *
1189:Drivers/src/ch32v20x_tim.c ****  * @return  none
1190:Drivers/src/ch32v20x_tim.c ****  */
1191:Drivers/src/ch32v20x_tim.c **** void TIM_OC1FastConfig(TIM_TypeDef *TIMx, uint16_t TIM_OCFast)
1192:Drivers/src/ch32v20x_tim.c **** {
 2983              		.loc 1 1192 1
 2984              		.cfi_startproc
 2985 0000 7971     		addi	sp,sp,-48
 2986              		.cfi_def_cfa_offset 48
 2987 0002 22D6     		sw	s0,44(sp)
 2988              		.cfi_offset 8, -4
 2989 0004 0018     		addi	s0,sp,48
 2990              		.cfi_def_cfa 8, 0
 2991 0006 232EA4FC 		sw	a0,-36(s0)
 2992 000a AE87     		mv	a5,a1
 2993 000c 231DF4FC 		sh	a5,-38(s0)
1193:Drivers/src/ch32v20x_tim.c ****     uint16_t tmpccmr1 = 0;
 2994              		.loc 1 1193 14
 2995 0010 231704FE 		sh	zero,-18(s0)
1194:Drivers/src/ch32v20x_tim.c **** 
1195:Drivers/src/ch32v20x_tim.c ****     tmpccmr1 = TIMx->CHCTLR1;
 2996              		.loc 1 1195 14
 2997 0014 8327C4FD 		lw	a5,-36(s0)
 2998 0018 9E2F     		lhu	a5,24(a5)
 2999 001a 2317F4FE 		sh	a5,-18(s0)
1196:Drivers/src/ch32v20x_tim.c ****     tmpccmr1 &= (uint16_t) ~((uint16_t)TIM_OC1FE);
 3000              		.loc 1 1196 14
 3001 001e 8357E4FE 		lhu	a5,-18(s0)
 3002 0022 ED9B     		andi	a5,a5,-5
 3003 0024 2317F4FE 		sh	a5,-18(s0)
1197:Drivers/src/ch32v20x_tim.c ****     tmpccmr1 |= TIM_OCFast;
 3004              		.loc 1 1197 14
 3005 0028 8357E4FE 		lhu	a5,-18(s0)
 3006 002c 3E87     		mv	a4,a5
 3007 002e 8357A4FD 		lhu	a5,-38(s0)
 3008 0032 D98F     		or	a5,a4,a5
 3009 0034 2317F4FE 		sh	a5,-18(s0)
1198:Drivers/src/ch32v20x_tim.c ****     TIMx->CHCTLR1 = tmpccmr1;
 3010              		.loc 1 1198 19
 3011 0038 8327C4FD 		lw	a5,-36(s0)
 3012 003c 0357E4FE 		lhu	a4,-18(s0)
 3013 0040 9AAF     		sh	a4,24(a5)
1199:Drivers/src/ch32v20x_tim.c **** }
 3014              		.loc 1 1199 1
 3015 0042 0100     		nop
 3016 0044 3254     		lw	s0,44(sp)
 3017              		.cfi_restore 8
 3018              		.cfi_def_cfa 2, 48
 3019 0046 4561     		addi	sp,sp,48
 3020              		.cfi_def_cfa_offset 0
 3021 0048 8280     		jr	ra
GAS LISTING C:\Users\SOLDER~1\AppData\Local\Temp\ccPZLIWm.s 			page 75


 3022              		.cfi_endproc
 3023              	.LFE57:
 3025              		.section	.text.TIM_OC2FastConfig,"ax",@progbits
 3026              		.align	1
 3027              		.globl	TIM_OC2FastConfig
 3029              	TIM_OC2FastConfig:
 3030              	.LFB58:
1200:Drivers/src/ch32v20x_tim.c **** 
1201:Drivers/src/ch32v20x_tim.c **** /*********************************************************************
1202:Drivers/src/ch32v20x_tim.c ****  * @fn      TIM_OC2FastConfig
1203:Drivers/src/ch32v20x_tim.c ****  *
1204:Drivers/src/ch32v20x_tim.c ****  * @brief   Configures the TIMx Output Compare 2 Fast feature.
1205:Drivers/src/ch32v20x_tim.c ****  *
1206:Drivers/src/ch32v20x_tim.c ****  * @param   TIMx - where x can be 1 to 4 to select the TIM peripheral.
1207:Drivers/src/ch32v20x_tim.c ****  *          TIM_OCFast - new state of the Output Compare Fast Enable Bit.
1208:Drivers/src/ch32v20x_tim.c ****  *            TIM_OCFast_Enable - TIM output compare fast enable.
1209:Drivers/src/ch32v20x_tim.c ****  *            TIM_OCFast_Disable - TIM output compare fast disable.
1210:Drivers/src/ch32v20x_tim.c ****  *
1211:Drivers/src/ch32v20x_tim.c ****  * @return  none
1212:Drivers/src/ch32v20x_tim.c ****  */
1213:Drivers/src/ch32v20x_tim.c **** void TIM_OC2FastConfig(TIM_TypeDef *TIMx, uint16_t TIM_OCFast)
1214:Drivers/src/ch32v20x_tim.c **** {
 3031              		.loc 1 1214 1
 3032              		.cfi_startproc
 3033 0000 7971     		addi	sp,sp,-48
 3034              		.cfi_def_cfa_offset 48
 3035 0002 22D6     		sw	s0,44(sp)
 3036              		.cfi_offset 8, -4
 3037 0004 0018     		addi	s0,sp,48
 3038              		.cfi_def_cfa 8, 0
 3039 0006 232EA4FC 		sw	a0,-36(s0)
 3040 000a AE87     		mv	a5,a1
 3041 000c 231DF4FC 		sh	a5,-38(s0)
1215:Drivers/src/ch32v20x_tim.c ****     uint16_t tmpccmr1 = 0;
 3042              		.loc 1 1215 14
 3043 0010 231704FE 		sh	zero,-18(s0)
1216:Drivers/src/ch32v20x_tim.c **** 
1217:Drivers/src/ch32v20x_tim.c ****     tmpccmr1 = TIMx->CHCTLR1;
 3044              		.loc 1 1217 14
 3045 0014 8327C4FD 		lw	a5,-36(s0)
 3046 0018 9E2F     		lhu	a5,24(a5)
 3047 001a 2317F4FE 		sh	a5,-18(s0)
1218:Drivers/src/ch32v20x_tim.c ****     tmpccmr1 &= (uint16_t) ~((uint16_t)TIM_OC2FE);
 3048              		.loc 1 1218 14
 3049 001e 8357E4FE 		lhu	a5,-18(s0)
 3050 0022 93F7F7BF 		andi	a5,a5,-1025
 3051 0026 2317F4FE 		sh	a5,-18(s0)
1219:Drivers/src/ch32v20x_tim.c ****     tmpccmr1 |= (uint16_t)(TIM_OCFast << 8);
 3052              		.loc 1 1219 17
 3053 002a 8357A4FD 		lhu	a5,-38(s0)
 3054 002e A207     		slli	a5,a5,8
 3055 0030 C207     		slli	a5,a5,16
 3056 0032 C183     		srli	a5,a5,16
 3057              		.loc 1 1219 14
 3058 0034 0357E4FE 		lhu	a4,-18(s0)
 3059 0038 D98F     		or	a5,a5,a4
 3060 003a 2317F4FE 		sh	a5,-18(s0)
GAS LISTING C:\Users\SOLDER~1\AppData\Local\Temp\ccPZLIWm.s 			page 76


1220:Drivers/src/ch32v20x_tim.c ****     TIMx->CHCTLR1 = tmpccmr1;
 3061              		.loc 1 1220 19
 3062 003e 8327C4FD 		lw	a5,-36(s0)
 3063 0042 0357E4FE 		lhu	a4,-18(s0)
 3064 0046 9AAF     		sh	a4,24(a5)
1221:Drivers/src/ch32v20x_tim.c **** }
 3065              		.loc 1 1221 1
 3066 0048 0100     		nop
 3067 004a 3254     		lw	s0,44(sp)
 3068              		.cfi_restore 8
 3069              		.cfi_def_cfa 2, 48
 3070 004c 4561     		addi	sp,sp,48
 3071              		.cfi_def_cfa_offset 0
 3072 004e 8280     		jr	ra
 3073              		.cfi_endproc
 3074              	.LFE58:
 3076              		.section	.text.TIM_OC3FastConfig,"ax",@progbits
 3077              		.align	1
 3078              		.globl	TIM_OC3FastConfig
 3080              	TIM_OC3FastConfig:
 3081              	.LFB59:
1222:Drivers/src/ch32v20x_tim.c **** 
1223:Drivers/src/ch32v20x_tim.c **** /*********************************************************************
1224:Drivers/src/ch32v20x_tim.c ****  * @fn      TIM_OC3FastConfig
1225:Drivers/src/ch32v20x_tim.c ****  *
1226:Drivers/src/ch32v20x_tim.c ****  * @brief   Configures the TIMx Output Compare 3 Fast feature.
1227:Drivers/src/ch32v20x_tim.c ****  *
1228:Drivers/src/ch32v20x_tim.c ****  * @param   TIMx - where x can be 1 to 4 to select the TIM peripheral.
1229:Drivers/src/ch32v20x_tim.c ****  *          TIM_OCFast - new state of the Output Compare Fast Enable Bit.
1230:Drivers/src/ch32v20x_tim.c ****  *            TIM_OCFast_Enable - TIM output compare fast enable.
1231:Drivers/src/ch32v20x_tim.c ****  *            TIM_OCFast_Disable - TIM output compare fast disable.
1232:Drivers/src/ch32v20x_tim.c ****  *
1233:Drivers/src/ch32v20x_tim.c ****  * @return  none
1234:Drivers/src/ch32v20x_tim.c ****  */
1235:Drivers/src/ch32v20x_tim.c **** void TIM_OC3FastConfig(TIM_TypeDef *TIMx, uint16_t TIM_OCFast)
1236:Drivers/src/ch32v20x_tim.c **** {
 3082              		.loc 1 1236 1
 3083              		.cfi_startproc
 3084 0000 7971     		addi	sp,sp,-48
 3085              		.cfi_def_cfa_offset 48
 3086 0002 22D6     		sw	s0,44(sp)
 3087              		.cfi_offset 8, -4
 3088 0004 0018     		addi	s0,sp,48
 3089              		.cfi_def_cfa 8, 0
 3090 0006 232EA4FC 		sw	a0,-36(s0)
 3091 000a AE87     		mv	a5,a1
 3092 000c 231DF4FC 		sh	a5,-38(s0)
1237:Drivers/src/ch32v20x_tim.c ****     uint16_t tmpccmr2 = 0;
 3093              		.loc 1 1237 14
 3094 0010 231704FE 		sh	zero,-18(s0)
1238:Drivers/src/ch32v20x_tim.c **** 
1239:Drivers/src/ch32v20x_tim.c ****     tmpccmr2 = TIMx->CHCTLR2;
 3095              		.loc 1 1239 14
 3096 0014 8327C4FD 		lw	a5,-36(s0)
 3097 0018 DE2F     		lhu	a5,28(a5)
 3098 001a 2317F4FE 		sh	a5,-18(s0)
1240:Drivers/src/ch32v20x_tim.c ****     tmpccmr2 &= (uint16_t) ~((uint16_t)TIM_OC3FE);
GAS LISTING C:\Users\SOLDER~1\AppData\Local\Temp\ccPZLIWm.s 			page 77


 3099              		.loc 1 1240 14
 3100 001e 8357E4FE 		lhu	a5,-18(s0)
 3101 0022 ED9B     		andi	a5,a5,-5
 3102 0024 2317F4FE 		sh	a5,-18(s0)
1241:Drivers/src/ch32v20x_tim.c ****     tmpccmr2 |= TIM_OCFast;
 3103              		.loc 1 1241 14
 3104 0028 8357E4FE 		lhu	a5,-18(s0)
 3105 002c 3E87     		mv	a4,a5
 3106 002e 8357A4FD 		lhu	a5,-38(s0)
 3107 0032 D98F     		or	a5,a4,a5
 3108 0034 2317F4FE 		sh	a5,-18(s0)
1242:Drivers/src/ch32v20x_tim.c ****     TIMx->CHCTLR2 = tmpccmr2;
 3109              		.loc 1 1242 19
 3110 0038 8327C4FD 		lw	a5,-36(s0)
 3111 003c 0357E4FE 		lhu	a4,-18(s0)
 3112 0040 DAAF     		sh	a4,28(a5)
1243:Drivers/src/ch32v20x_tim.c **** }
 3113              		.loc 1 1243 1
 3114 0042 0100     		nop
 3115 0044 3254     		lw	s0,44(sp)
 3116              		.cfi_restore 8
 3117              		.cfi_def_cfa 2, 48
 3118 0046 4561     		addi	sp,sp,48
 3119              		.cfi_def_cfa_offset 0
 3120 0048 8280     		jr	ra
 3121              		.cfi_endproc
 3122              	.LFE59:
 3124              		.section	.text.TIM_OC4FastConfig,"ax",@progbits
 3125              		.align	1
 3126              		.globl	TIM_OC4FastConfig
 3128              	TIM_OC4FastConfig:
 3129              	.LFB60:
1244:Drivers/src/ch32v20x_tim.c **** 
1245:Drivers/src/ch32v20x_tim.c **** /*********************************************************************
1246:Drivers/src/ch32v20x_tim.c ****  * @fn      TIM_OC4FastConfig
1247:Drivers/src/ch32v20x_tim.c ****  *
1248:Drivers/src/ch32v20x_tim.c ****  * @brief   Configures the TIMx Output Compare 4 Fast feature.
1249:Drivers/src/ch32v20x_tim.c ****  *
1250:Drivers/src/ch32v20x_tim.c ****  * @param   TIMx - where x can be 1 to 4 to select the TIM peripheral.
1251:Drivers/src/ch32v20x_tim.c ****  *          TIM_OCFast - new state of the Output Compare Fast Enable Bit.
1252:Drivers/src/ch32v20x_tim.c ****  *            TIM_OCFast_Enable - TIM output compare fast enable.
1253:Drivers/src/ch32v20x_tim.c ****  *            TIM_OCFast_Disable - TIM output compare fast disable.
1254:Drivers/src/ch32v20x_tim.c ****  *
1255:Drivers/src/ch32v20x_tim.c ****  * @return  none
1256:Drivers/src/ch32v20x_tim.c ****  */
1257:Drivers/src/ch32v20x_tim.c **** void TIM_OC4FastConfig(TIM_TypeDef *TIMx, uint16_t TIM_OCFast)
1258:Drivers/src/ch32v20x_tim.c **** {
 3130              		.loc 1 1258 1
 3131              		.cfi_startproc
 3132 0000 7971     		addi	sp,sp,-48
 3133              		.cfi_def_cfa_offset 48
 3134 0002 22D6     		sw	s0,44(sp)
 3135              		.cfi_offset 8, -4
 3136 0004 0018     		addi	s0,sp,48
 3137              		.cfi_def_cfa 8, 0
 3138 0006 232EA4FC 		sw	a0,-36(s0)
 3139 000a AE87     		mv	a5,a1
GAS LISTING C:\Users\SOLDER~1\AppData\Local\Temp\ccPZLIWm.s 			page 78


 3140 000c 231DF4FC 		sh	a5,-38(s0)
1259:Drivers/src/ch32v20x_tim.c ****     uint16_t tmpccmr2 = 0;
 3141              		.loc 1 1259 14
 3142 0010 231704FE 		sh	zero,-18(s0)
1260:Drivers/src/ch32v20x_tim.c **** 
1261:Drivers/src/ch32v20x_tim.c ****     tmpccmr2 = TIMx->CHCTLR2;
 3143              		.loc 1 1261 14
 3144 0014 8327C4FD 		lw	a5,-36(s0)
 3145 0018 DE2F     		lhu	a5,28(a5)
 3146 001a 2317F4FE 		sh	a5,-18(s0)
1262:Drivers/src/ch32v20x_tim.c ****     tmpccmr2 &= (uint16_t) ~((uint16_t)TIM_OC4FE);
 3147              		.loc 1 1262 14
 3148 001e 8357E4FE 		lhu	a5,-18(s0)
 3149 0022 93F7F7BF 		andi	a5,a5,-1025
 3150 0026 2317F4FE 		sh	a5,-18(s0)
1263:Drivers/src/ch32v20x_tim.c ****     tmpccmr2 |= (uint16_t)(TIM_OCFast << 8);
 3151              		.loc 1 1263 17
 3152 002a 8357A4FD 		lhu	a5,-38(s0)
 3153 002e A207     		slli	a5,a5,8
 3154 0030 C207     		slli	a5,a5,16
 3155 0032 C183     		srli	a5,a5,16
 3156              		.loc 1 1263 14
 3157 0034 0357E4FE 		lhu	a4,-18(s0)
 3158 0038 D98F     		or	a5,a5,a4
 3159 003a 2317F4FE 		sh	a5,-18(s0)
1264:Drivers/src/ch32v20x_tim.c ****     TIMx->CHCTLR2 = tmpccmr2;
 3160              		.loc 1 1264 19
 3161 003e 8327C4FD 		lw	a5,-36(s0)
 3162 0042 0357E4FE 		lhu	a4,-18(s0)
 3163 0046 DAAF     		sh	a4,28(a5)
1265:Drivers/src/ch32v20x_tim.c **** }
 3164              		.loc 1 1265 1
 3165 0048 0100     		nop
 3166 004a 3254     		lw	s0,44(sp)
 3167              		.cfi_restore 8
 3168              		.cfi_def_cfa 2, 48
 3169 004c 4561     		addi	sp,sp,48
 3170              		.cfi_def_cfa_offset 0
 3171 004e 8280     		jr	ra
 3172              		.cfi_endproc
 3173              	.LFE60:
 3175              		.section	.text.TIM_ClearOC1Ref,"ax",@progbits
 3176              		.align	1
 3177              		.globl	TIM_ClearOC1Ref
 3179              	TIM_ClearOC1Ref:
 3180              	.LFB61:
1266:Drivers/src/ch32v20x_tim.c **** 
1267:Drivers/src/ch32v20x_tim.c **** /*********************************************************************
1268:Drivers/src/ch32v20x_tim.c ****  * @fn      TIM_ClearOC1Ref
1269:Drivers/src/ch32v20x_tim.c ****  *
1270:Drivers/src/ch32v20x_tim.c ****  * @brief   Clears or safeguards the OCREF1 signal on an external event.
1271:Drivers/src/ch32v20x_tim.c ****  *
1272:Drivers/src/ch32v20x_tim.c ****  * @param   TIMx - where x can be 1 to 4 to select the TIM peripheral.
1273:Drivers/src/ch32v20x_tim.c ****  *          TIM_OCClear - new state of the Output Compare Clear Enable Bit.
1274:Drivers/src/ch32v20x_tim.c ****  *            TIM_OCClear_Enable - TIM Output clear enable.
1275:Drivers/src/ch32v20x_tim.c ****  *            TIM_OCClear_Disable - TIM Output clear disable.
1276:Drivers/src/ch32v20x_tim.c ****  *
GAS LISTING C:\Users\SOLDER~1\AppData\Local\Temp\ccPZLIWm.s 			page 79


1277:Drivers/src/ch32v20x_tim.c ****  * @return  none
1278:Drivers/src/ch32v20x_tim.c ****  */
1279:Drivers/src/ch32v20x_tim.c **** void TIM_ClearOC1Ref(TIM_TypeDef *TIMx, uint16_t TIM_OCClear)
1280:Drivers/src/ch32v20x_tim.c **** {
 3181              		.loc 1 1280 1
 3182              		.cfi_startproc
 3183 0000 7971     		addi	sp,sp,-48
 3184              		.cfi_def_cfa_offset 48
 3185 0002 22D6     		sw	s0,44(sp)
 3186              		.cfi_offset 8, -4
 3187 0004 0018     		addi	s0,sp,48
 3188              		.cfi_def_cfa 8, 0
 3189 0006 232EA4FC 		sw	a0,-36(s0)
 3190 000a AE87     		mv	a5,a1
 3191 000c 231DF4FC 		sh	a5,-38(s0)
1281:Drivers/src/ch32v20x_tim.c ****     uint16_t tmpccmr1 = 0;
 3192              		.loc 1 1281 14
 3193 0010 231704FE 		sh	zero,-18(s0)
1282:Drivers/src/ch32v20x_tim.c **** 
1283:Drivers/src/ch32v20x_tim.c ****     tmpccmr1 = TIMx->CHCTLR1;
 3194              		.loc 1 1283 14
 3195 0014 8327C4FD 		lw	a5,-36(s0)
 3196 0018 9E2F     		lhu	a5,24(a5)
 3197 001a 2317F4FE 		sh	a5,-18(s0)
1284:Drivers/src/ch32v20x_tim.c ****     tmpccmr1 &= (uint16_t) ~((uint16_t)TIM_OC1CE);
 3198              		.loc 1 1284 14
 3199 001e 8357E4FE 		lhu	a5,-18(s0)
 3200 0022 93F7F7F7 		andi	a5,a5,-129
 3201 0026 2317F4FE 		sh	a5,-18(s0)
1285:Drivers/src/ch32v20x_tim.c ****     tmpccmr1 |= TIM_OCClear;
 3202              		.loc 1 1285 14
 3203 002a 8357E4FE 		lhu	a5,-18(s0)
 3204 002e 3E87     		mv	a4,a5
 3205 0030 8357A4FD 		lhu	a5,-38(s0)
 3206 0034 D98F     		or	a5,a4,a5
 3207 0036 2317F4FE 		sh	a5,-18(s0)
1286:Drivers/src/ch32v20x_tim.c ****     TIMx->CHCTLR1 = tmpccmr1;
 3208              		.loc 1 1286 19
 3209 003a 8327C4FD 		lw	a5,-36(s0)
 3210 003e 0357E4FE 		lhu	a4,-18(s0)
 3211 0042 9AAF     		sh	a4,24(a5)
1287:Drivers/src/ch32v20x_tim.c **** }
 3212              		.loc 1 1287 1
 3213 0044 0100     		nop
 3214 0046 3254     		lw	s0,44(sp)
 3215              		.cfi_restore 8
 3216              		.cfi_def_cfa 2, 48
 3217 0048 4561     		addi	sp,sp,48
 3218              		.cfi_def_cfa_offset 0
 3219 004a 8280     		jr	ra
 3220              		.cfi_endproc
 3221              	.LFE61:
 3223              		.section	.text.TIM_ClearOC2Ref,"ax",@progbits
 3224              		.align	1
 3225              		.globl	TIM_ClearOC2Ref
 3227              	TIM_ClearOC2Ref:
 3228              	.LFB62:
GAS LISTING C:\Users\SOLDER~1\AppData\Local\Temp\ccPZLIWm.s 			page 80


1288:Drivers/src/ch32v20x_tim.c **** 
1289:Drivers/src/ch32v20x_tim.c **** /*********************************************************************
1290:Drivers/src/ch32v20x_tim.c ****  * @fn      TIM_ClearOC2Ref
1291:Drivers/src/ch32v20x_tim.c ****  *
1292:Drivers/src/ch32v20x_tim.c ****  * @brief   Clears or safeguards the OCREF2 signal on an external event.
1293:Drivers/src/ch32v20x_tim.c ****  *
1294:Drivers/src/ch32v20x_tim.c ****  * @param   TIMx - where x can be 1 to 4 to select the TIM peripheral.
1295:Drivers/src/ch32v20x_tim.c ****  *          TIM_OCClear - new state of the Output Compare Clear Enable Bit.
1296:Drivers/src/ch32v20x_tim.c ****  *            TIM_OCClear_Enable - TIM Output clear enable.
1297:Drivers/src/ch32v20x_tim.c ****  *            TIM_OCClear_Disable - TIM Output clear disable.
1298:Drivers/src/ch32v20x_tim.c ****  *
1299:Drivers/src/ch32v20x_tim.c ****  * @return  none
1300:Drivers/src/ch32v20x_tim.c ****  */
1301:Drivers/src/ch32v20x_tim.c **** void TIM_ClearOC2Ref(TIM_TypeDef *TIMx, uint16_t TIM_OCClear)
1302:Drivers/src/ch32v20x_tim.c **** {
 3229              		.loc 1 1302 1
 3230              		.cfi_startproc
 3231 0000 7971     		addi	sp,sp,-48
 3232              		.cfi_def_cfa_offset 48
 3233 0002 22D6     		sw	s0,44(sp)
 3234              		.cfi_offset 8, -4
 3235 0004 0018     		addi	s0,sp,48
 3236              		.cfi_def_cfa 8, 0
 3237 0006 232EA4FC 		sw	a0,-36(s0)
 3238 000a AE87     		mv	a5,a1
 3239 000c 231DF4FC 		sh	a5,-38(s0)
1303:Drivers/src/ch32v20x_tim.c ****     uint16_t tmpccmr1 = 0;
 3240              		.loc 1 1303 14
 3241 0010 231704FE 		sh	zero,-18(s0)
1304:Drivers/src/ch32v20x_tim.c **** 
1305:Drivers/src/ch32v20x_tim.c ****     tmpccmr1 = TIMx->CHCTLR1;
 3242              		.loc 1 1305 14
 3243 0014 8327C4FD 		lw	a5,-36(s0)
 3244 0018 9E2F     		lhu	a5,24(a5)
 3245 001a 2317F4FE 		sh	a5,-18(s0)
1306:Drivers/src/ch32v20x_tim.c ****     tmpccmr1 &= (uint16_t) ~((uint16_t)TIM_OC2CE);
 3246              		.loc 1 1306 14
 3247 001e 8357E4FE 		lhu	a5,-18(s0)
 3248 0022 3E87     		mv	a4,a5
 3249 0024 A167     		li	a5,32768
 3250 0026 FD17     		addi	a5,a5,-1
 3251 0028 F98F     		and	a5,a4,a5
 3252 002a 2317F4FE 		sh	a5,-18(s0)
1307:Drivers/src/ch32v20x_tim.c ****     tmpccmr1 |= (uint16_t)(TIM_OCClear << 8);
 3253              		.loc 1 1307 17
 3254 002e 8357A4FD 		lhu	a5,-38(s0)
 3255 0032 A207     		slli	a5,a5,8
 3256 0034 C207     		slli	a5,a5,16
 3257 0036 C183     		srli	a5,a5,16
 3258              		.loc 1 1307 14
 3259 0038 0357E4FE 		lhu	a4,-18(s0)
 3260 003c D98F     		or	a5,a5,a4
 3261 003e 2317F4FE 		sh	a5,-18(s0)
1308:Drivers/src/ch32v20x_tim.c ****     TIMx->CHCTLR1 = tmpccmr1;
 3262              		.loc 1 1308 19
 3263 0042 8327C4FD 		lw	a5,-36(s0)
 3264 0046 0357E4FE 		lhu	a4,-18(s0)
GAS LISTING C:\Users\SOLDER~1\AppData\Local\Temp\ccPZLIWm.s 			page 81


 3265 004a 9AAF     		sh	a4,24(a5)
1309:Drivers/src/ch32v20x_tim.c **** }
 3266              		.loc 1 1309 1
 3267 004c 0100     		nop
 3268 004e 3254     		lw	s0,44(sp)
 3269              		.cfi_restore 8
 3270              		.cfi_def_cfa 2, 48
 3271 0050 4561     		addi	sp,sp,48
 3272              		.cfi_def_cfa_offset 0
 3273 0052 8280     		jr	ra
 3274              		.cfi_endproc
 3275              	.LFE62:
 3277              		.section	.text.TIM_ClearOC3Ref,"ax",@progbits
 3278              		.align	1
 3279              		.globl	TIM_ClearOC3Ref
 3281              	TIM_ClearOC3Ref:
 3282              	.LFB63:
1310:Drivers/src/ch32v20x_tim.c **** 
1311:Drivers/src/ch32v20x_tim.c **** /*********************************************************************
1312:Drivers/src/ch32v20x_tim.c ****  * @fn      TIM_ClearOC3Ref
1313:Drivers/src/ch32v20x_tim.c ****  *
1314:Drivers/src/ch32v20x_tim.c ****  * @brief   Clears or safeguards the OCREF3 signal on an external event.
1315:Drivers/src/ch32v20x_tim.c ****  *
1316:Drivers/src/ch32v20x_tim.c ****  * @param   TIMx - where x can be 1 to 4 to select the TIM peripheral.
1317:Drivers/src/ch32v20x_tim.c ****  *          TIM_OCClear - new state of the Output Compare Clear Enable Bit.
1318:Drivers/src/ch32v20x_tim.c ****  *            TIM_OCClear_Enable - TIM Output clear enable.
1319:Drivers/src/ch32v20x_tim.c ****  *            TIM_OCClear_Disable - TIM Output clear disable.
1320:Drivers/src/ch32v20x_tim.c ****  *
1321:Drivers/src/ch32v20x_tim.c ****  * @return  none
1322:Drivers/src/ch32v20x_tim.c ****  */
1323:Drivers/src/ch32v20x_tim.c **** void TIM_ClearOC3Ref(TIM_TypeDef *TIMx, uint16_t TIM_OCClear)
1324:Drivers/src/ch32v20x_tim.c **** {
 3283              		.loc 1 1324 1
 3284              		.cfi_startproc
 3285 0000 7971     		addi	sp,sp,-48
 3286              		.cfi_def_cfa_offset 48
 3287 0002 22D6     		sw	s0,44(sp)
 3288              		.cfi_offset 8, -4
 3289 0004 0018     		addi	s0,sp,48
 3290              		.cfi_def_cfa 8, 0
 3291 0006 232EA4FC 		sw	a0,-36(s0)
 3292 000a AE87     		mv	a5,a1
 3293 000c 231DF4FC 		sh	a5,-38(s0)
1325:Drivers/src/ch32v20x_tim.c ****     uint16_t tmpccmr2 = 0;
 3294              		.loc 1 1325 14
 3295 0010 231704FE 		sh	zero,-18(s0)
1326:Drivers/src/ch32v20x_tim.c **** 
1327:Drivers/src/ch32v20x_tim.c ****     tmpccmr2 = TIMx->CHCTLR2;
 3296              		.loc 1 1327 14
 3297 0014 8327C4FD 		lw	a5,-36(s0)
 3298 0018 DE2F     		lhu	a5,28(a5)
 3299 001a 2317F4FE 		sh	a5,-18(s0)
1328:Drivers/src/ch32v20x_tim.c ****     tmpccmr2 &= (uint16_t) ~((uint16_t)TIM_OC3CE);
 3300              		.loc 1 1328 14
 3301 001e 8357E4FE 		lhu	a5,-18(s0)
 3302 0022 93F7F7F7 		andi	a5,a5,-129
 3303 0026 2317F4FE 		sh	a5,-18(s0)
GAS LISTING C:\Users\SOLDER~1\AppData\Local\Temp\ccPZLIWm.s 			page 82


1329:Drivers/src/ch32v20x_tim.c ****     tmpccmr2 |= TIM_OCClear;
 3304              		.loc 1 1329 14
 3305 002a 8357E4FE 		lhu	a5,-18(s0)
 3306 002e 3E87     		mv	a4,a5
 3307 0030 8357A4FD 		lhu	a5,-38(s0)
 3308 0034 D98F     		or	a5,a4,a5
 3309 0036 2317F4FE 		sh	a5,-18(s0)
1330:Drivers/src/ch32v20x_tim.c ****     TIMx->CHCTLR2 = tmpccmr2;
 3310              		.loc 1 1330 19
 3311 003a 8327C4FD 		lw	a5,-36(s0)
 3312 003e 0357E4FE 		lhu	a4,-18(s0)
 3313 0042 DAAF     		sh	a4,28(a5)
1331:Drivers/src/ch32v20x_tim.c **** }
 3314              		.loc 1 1331 1
 3315 0044 0100     		nop
 3316 0046 3254     		lw	s0,44(sp)
 3317              		.cfi_restore 8
 3318              		.cfi_def_cfa 2, 48
 3319 0048 4561     		addi	sp,sp,48
 3320              		.cfi_def_cfa_offset 0
 3321 004a 8280     		jr	ra
 3322              		.cfi_endproc
 3323              	.LFE63:
 3325              		.section	.text.TIM_ClearOC4Ref,"ax",@progbits
 3326              		.align	1
 3327              		.globl	TIM_ClearOC4Ref
 3329              	TIM_ClearOC4Ref:
 3330              	.LFB64:
1332:Drivers/src/ch32v20x_tim.c **** 
1333:Drivers/src/ch32v20x_tim.c **** /*********************************************************************
1334:Drivers/src/ch32v20x_tim.c ****  * @fn      TIM_ClearOC4Ref
1335:Drivers/src/ch32v20x_tim.c ****  *
1336:Drivers/src/ch32v20x_tim.c ****  * @brief   Clears or safeguards the OCREF4 signal on an external event.
1337:Drivers/src/ch32v20x_tim.c ****  *
1338:Drivers/src/ch32v20x_tim.c ****  * @param   TIMx - where x can be 1 to 4 to select the TIM peripheral.
1339:Drivers/src/ch32v20x_tim.c ****  *          TIM_OCClear - new state of the Output Compare Clear Enable Bit.
1340:Drivers/src/ch32v20x_tim.c ****  *            TIM_OCClear_Enable - TIM Output clear enable.
1341:Drivers/src/ch32v20x_tim.c ****  *            TIM_OCClear_Disable - TIM Output clear disable.
1342:Drivers/src/ch32v20x_tim.c ****  *
1343:Drivers/src/ch32v20x_tim.c ****  * @return  none
1344:Drivers/src/ch32v20x_tim.c ****  */
1345:Drivers/src/ch32v20x_tim.c **** void TIM_ClearOC4Ref(TIM_TypeDef *TIMx, uint16_t TIM_OCClear)
1346:Drivers/src/ch32v20x_tim.c **** {
 3331              		.loc 1 1346 1
 3332              		.cfi_startproc
 3333 0000 7971     		addi	sp,sp,-48
 3334              		.cfi_def_cfa_offset 48
 3335 0002 22D6     		sw	s0,44(sp)
 3336              		.cfi_offset 8, -4
 3337 0004 0018     		addi	s0,sp,48
 3338              		.cfi_def_cfa 8, 0
 3339 0006 232EA4FC 		sw	a0,-36(s0)
 3340 000a AE87     		mv	a5,a1
 3341 000c 231DF4FC 		sh	a5,-38(s0)
1347:Drivers/src/ch32v20x_tim.c ****     uint16_t tmpccmr2 = 0;
 3342              		.loc 1 1347 14
 3343 0010 231704FE 		sh	zero,-18(s0)
GAS LISTING C:\Users\SOLDER~1\AppData\Local\Temp\ccPZLIWm.s 			page 83


1348:Drivers/src/ch32v20x_tim.c **** 
1349:Drivers/src/ch32v20x_tim.c ****     tmpccmr2 = TIMx->CHCTLR2;
 3344              		.loc 1 1349 14
 3345 0014 8327C4FD 		lw	a5,-36(s0)
 3346 0018 DE2F     		lhu	a5,28(a5)
 3347 001a 2317F4FE 		sh	a5,-18(s0)
1350:Drivers/src/ch32v20x_tim.c ****     tmpccmr2 &= (uint16_t) ~((uint16_t)TIM_OC4CE);
 3348              		.loc 1 1350 14
 3349 001e 8357E4FE 		lhu	a5,-18(s0)
 3350 0022 3E87     		mv	a4,a5
 3351 0024 A167     		li	a5,32768
 3352 0026 FD17     		addi	a5,a5,-1
 3353 0028 F98F     		and	a5,a4,a5
 3354 002a 2317F4FE 		sh	a5,-18(s0)
1351:Drivers/src/ch32v20x_tim.c ****     tmpccmr2 |= (uint16_t)(TIM_OCClear << 8);
 3355              		.loc 1 1351 17
 3356 002e 8357A4FD 		lhu	a5,-38(s0)
 3357 0032 A207     		slli	a5,a5,8
 3358 0034 C207     		slli	a5,a5,16
 3359 0036 C183     		srli	a5,a5,16
 3360              		.loc 1 1351 14
 3361 0038 0357E4FE 		lhu	a4,-18(s0)
 3362 003c D98F     		or	a5,a5,a4
 3363 003e 2317F4FE 		sh	a5,-18(s0)
1352:Drivers/src/ch32v20x_tim.c ****     TIMx->CHCTLR2 = tmpccmr2;
 3364              		.loc 1 1352 19
 3365 0042 8327C4FD 		lw	a5,-36(s0)
 3366 0046 0357E4FE 		lhu	a4,-18(s0)
 3367 004a DAAF     		sh	a4,28(a5)
1353:Drivers/src/ch32v20x_tim.c **** }
 3368              		.loc 1 1353 1
 3369 004c 0100     		nop
 3370 004e 3254     		lw	s0,44(sp)
 3371              		.cfi_restore 8
 3372              		.cfi_def_cfa 2, 48
 3373 0050 4561     		addi	sp,sp,48
 3374              		.cfi_def_cfa_offset 0
 3375 0052 8280     		jr	ra
 3376              		.cfi_endproc
 3377              	.LFE64:
 3379              		.section	.text.TIM_OC1PolarityConfig,"ax",@progbits
 3380              		.align	1
 3381              		.globl	TIM_OC1PolarityConfig
 3383              	TIM_OC1PolarityConfig:
 3384              	.LFB65:
1354:Drivers/src/ch32v20x_tim.c **** 
1355:Drivers/src/ch32v20x_tim.c **** /*********************************************************************
1356:Drivers/src/ch32v20x_tim.c ****  * @fn      TIM_OC1PolarityConfig
1357:Drivers/src/ch32v20x_tim.c ****  *
1358:Drivers/src/ch32v20x_tim.c ****  * @brief   Configures the TIMx channel 1 polarity.
1359:Drivers/src/ch32v20x_tim.c ****  *
1360:Drivers/src/ch32v20x_tim.c ****  * @param   TIMx - where x can be 1 to 4 to select the TIM peripheral.
1361:Drivers/src/ch32v20x_tim.c ****  *          TIM_OCPolarity - specifies the OC1 Polarity.
1362:Drivers/src/ch32v20x_tim.c ****  *            TIM_OCPolarity_High - Output Compare active high.
1363:Drivers/src/ch32v20x_tim.c ****  *            TIM_OCPolarity_Low - Output Compare active low.
1364:Drivers/src/ch32v20x_tim.c ****  *
1365:Drivers/src/ch32v20x_tim.c ****  * @return  none
GAS LISTING C:\Users\SOLDER~1\AppData\Local\Temp\ccPZLIWm.s 			page 84


1366:Drivers/src/ch32v20x_tim.c ****  */
1367:Drivers/src/ch32v20x_tim.c **** void TIM_OC1PolarityConfig(TIM_TypeDef *TIMx, uint16_t TIM_OCPolarity)
1368:Drivers/src/ch32v20x_tim.c **** {
 3385              		.loc 1 1368 1
 3386              		.cfi_startproc
 3387 0000 7971     		addi	sp,sp,-48
 3388              		.cfi_def_cfa_offset 48
 3389 0002 22D6     		sw	s0,44(sp)
 3390              		.cfi_offset 8, -4
 3391 0004 0018     		addi	s0,sp,48
 3392              		.cfi_def_cfa 8, 0
 3393 0006 232EA4FC 		sw	a0,-36(s0)
 3394 000a AE87     		mv	a5,a1
 3395 000c 231DF4FC 		sh	a5,-38(s0)
1369:Drivers/src/ch32v20x_tim.c ****     uint16_t tmpccer = 0;
 3396              		.loc 1 1369 14
 3397 0010 231704FE 		sh	zero,-18(s0)
1370:Drivers/src/ch32v20x_tim.c **** 
1371:Drivers/src/ch32v20x_tim.c ****     tmpccer = TIMx->CCER;
 3398              		.loc 1 1371 13
 3399 0014 8327C4FD 		lw	a5,-36(s0)
 3400 0018 9E33     		lhu	a5,32(a5)
 3401 001a 2317F4FE 		sh	a5,-18(s0)
1372:Drivers/src/ch32v20x_tim.c ****     tmpccer &= (uint16_t) ~((uint16_t)TIM_CC1P);
 3402              		.loc 1 1372 13
 3403 001e 8357E4FE 		lhu	a5,-18(s0)
 3404 0022 F59B     		andi	a5,a5,-3
 3405 0024 2317F4FE 		sh	a5,-18(s0)
1373:Drivers/src/ch32v20x_tim.c ****     tmpccer |= TIM_OCPolarity;
 3406              		.loc 1 1373 13
 3407 0028 8357E4FE 		lhu	a5,-18(s0)
 3408 002c 3E87     		mv	a4,a5
 3409 002e 8357A4FD 		lhu	a5,-38(s0)
 3410 0032 D98F     		or	a5,a4,a5
 3411 0034 2317F4FE 		sh	a5,-18(s0)
1374:Drivers/src/ch32v20x_tim.c ****     TIMx->CCER = tmpccer;
 3412              		.loc 1 1374 16
 3413 0038 8327C4FD 		lw	a5,-36(s0)
 3414 003c 0357E4FE 		lhu	a4,-18(s0)
 3415 0040 9AB3     		sh	a4,32(a5)
1375:Drivers/src/ch32v20x_tim.c **** }
 3416              		.loc 1 1375 1
 3417 0042 0100     		nop
 3418 0044 3254     		lw	s0,44(sp)
 3419              		.cfi_restore 8
 3420              		.cfi_def_cfa 2, 48
 3421 0046 4561     		addi	sp,sp,48
 3422              		.cfi_def_cfa_offset 0
 3423 0048 8280     		jr	ra
 3424              		.cfi_endproc
 3425              	.LFE65:
 3427              		.section	.text.TIM_OC1NPolarityConfig,"ax",@progbits
 3428              		.align	1
 3429              		.globl	TIM_OC1NPolarityConfig
 3431              	TIM_OC1NPolarityConfig:
 3432              	.LFB66:
1376:Drivers/src/ch32v20x_tim.c **** 
GAS LISTING C:\Users\SOLDER~1\AppData\Local\Temp\ccPZLIWm.s 			page 85


1377:Drivers/src/ch32v20x_tim.c **** /*********************************************************************
1378:Drivers/src/ch32v20x_tim.c ****  * @fn      TIM_OC1NPolarityConfig
1379:Drivers/src/ch32v20x_tim.c ****  *
1380:Drivers/src/ch32v20x_tim.c ****  * @brief   Configures the TIMx channel 1 polarity.
1381:Drivers/src/ch32v20x_tim.c ****  *
1382:Drivers/src/ch32v20x_tim.c ****  * @param   TIMx - where x can be 1 to select the TIM peripheral.
1383:Drivers/src/ch32v20x_tim.c ****  *          TIM_OCNPolarity - specifies the OC1N Polarity.
1384:Drivers/src/ch32v20x_tim.c ****  *            TIM_OCNPolarity_High - Output Compare active high.
1385:Drivers/src/ch32v20x_tim.c ****  *            TIM_OCNPolarity_Low - Output Compare active low.
1386:Drivers/src/ch32v20x_tim.c ****  *
1387:Drivers/src/ch32v20x_tim.c ****  * @return  none
1388:Drivers/src/ch32v20x_tim.c ****  */
1389:Drivers/src/ch32v20x_tim.c **** void TIM_OC1NPolarityConfig(TIM_TypeDef *TIMx, uint16_t TIM_OCNPolarity)
1390:Drivers/src/ch32v20x_tim.c **** {
 3433              		.loc 1 1390 1
 3434              		.cfi_startproc
 3435 0000 7971     		addi	sp,sp,-48
 3436              		.cfi_def_cfa_offset 48
 3437 0002 22D6     		sw	s0,44(sp)
 3438              		.cfi_offset 8, -4
 3439 0004 0018     		addi	s0,sp,48
 3440              		.cfi_def_cfa 8, 0
 3441 0006 232EA4FC 		sw	a0,-36(s0)
 3442 000a AE87     		mv	a5,a1
 3443 000c 231DF4FC 		sh	a5,-38(s0)
1391:Drivers/src/ch32v20x_tim.c ****     uint16_t tmpccer = 0;
 3444              		.loc 1 1391 14
 3445 0010 231704FE 		sh	zero,-18(s0)
1392:Drivers/src/ch32v20x_tim.c **** 
1393:Drivers/src/ch32v20x_tim.c ****     tmpccer = TIMx->CCER;
 3446              		.loc 1 1393 13
 3447 0014 8327C4FD 		lw	a5,-36(s0)
 3448 0018 9E33     		lhu	a5,32(a5)
 3449 001a 2317F4FE 		sh	a5,-18(s0)
1394:Drivers/src/ch32v20x_tim.c ****     tmpccer &= (uint16_t) ~((uint16_t)TIM_CC1NP);
 3450              		.loc 1 1394 13
 3451 001e 8357E4FE 		lhu	a5,-18(s0)
 3452 0022 DD9B     		andi	a5,a5,-9
 3453 0024 2317F4FE 		sh	a5,-18(s0)
1395:Drivers/src/ch32v20x_tim.c ****     tmpccer |= TIM_OCNPolarity;
 3454              		.loc 1 1395 13
 3455 0028 8357E4FE 		lhu	a5,-18(s0)
 3456 002c 3E87     		mv	a4,a5
 3457 002e 8357A4FD 		lhu	a5,-38(s0)
 3458 0032 D98F     		or	a5,a4,a5
 3459 0034 2317F4FE 		sh	a5,-18(s0)
1396:Drivers/src/ch32v20x_tim.c ****     TIMx->CCER = tmpccer;
 3460              		.loc 1 1396 16
 3461 0038 8327C4FD 		lw	a5,-36(s0)
 3462 003c 0357E4FE 		lhu	a4,-18(s0)
 3463 0040 9AB3     		sh	a4,32(a5)
1397:Drivers/src/ch32v20x_tim.c **** }
 3464              		.loc 1 1397 1
 3465 0042 0100     		nop
 3466 0044 3254     		lw	s0,44(sp)
 3467              		.cfi_restore 8
 3468              		.cfi_def_cfa 2, 48
GAS LISTING C:\Users\SOLDER~1\AppData\Local\Temp\ccPZLIWm.s 			page 86


 3469 0046 4561     		addi	sp,sp,48
 3470              		.cfi_def_cfa_offset 0
 3471 0048 8280     		jr	ra
 3472              		.cfi_endproc
 3473              	.LFE66:
 3475              		.section	.text.TIM_OC2PolarityConfig,"ax",@progbits
 3476              		.align	1
 3477              		.globl	TIM_OC2PolarityConfig
 3479              	TIM_OC2PolarityConfig:
 3480              	.LFB67:
1398:Drivers/src/ch32v20x_tim.c **** 
1399:Drivers/src/ch32v20x_tim.c **** /*********************************************************************
1400:Drivers/src/ch32v20x_tim.c ****  * @fn      TIM_OC2PolarityConfig
1401:Drivers/src/ch32v20x_tim.c ****  *
1402:Drivers/src/ch32v20x_tim.c ****  * @brief   Configures the TIMx channel 2 polarity.
1403:Drivers/src/ch32v20x_tim.c ****  *
1404:Drivers/src/ch32v20x_tim.c ****  * @param   TIMx - where x can be 1 to 4 to select the TIM peripheral.
1405:Drivers/src/ch32v20x_tim.c ****  *          TIM_OCPolarity - specifies the OC2 Polarity.
1406:Drivers/src/ch32v20x_tim.c ****  *            TIM_OCPolarity_High - Output Compare active high.
1407:Drivers/src/ch32v20x_tim.c ****  *            TIM_OCPolarity_Low - Output Compare active low.
1408:Drivers/src/ch32v20x_tim.c ****  *
1409:Drivers/src/ch32v20x_tim.c ****  * @return  none
1410:Drivers/src/ch32v20x_tim.c ****  */
1411:Drivers/src/ch32v20x_tim.c **** void TIM_OC2PolarityConfig(TIM_TypeDef *TIMx, uint16_t TIM_OCPolarity)
1412:Drivers/src/ch32v20x_tim.c **** {
 3481              		.loc 1 1412 1
 3482              		.cfi_startproc
 3483 0000 7971     		addi	sp,sp,-48
 3484              		.cfi_def_cfa_offset 48
 3485 0002 22D6     		sw	s0,44(sp)
 3486              		.cfi_offset 8, -4
 3487 0004 0018     		addi	s0,sp,48
 3488              		.cfi_def_cfa 8, 0
 3489 0006 232EA4FC 		sw	a0,-36(s0)
 3490 000a AE87     		mv	a5,a1
 3491 000c 231DF4FC 		sh	a5,-38(s0)
1413:Drivers/src/ch32v20x_tim.c ****     uint16_t tmpccer = 0;
 3492              		.loc 1 1413 14
 3493 0010 231704FE 		sh	zero,-18(s0)
1414:Drivers/src/ch32v20x_tim.c **** 
1415:Drivers/src/ch32v20x_tim.c ****     tmpccer = TIMx->CCER;
 3494              		.loc 1 1415 13
 3495 0014 8327C4FD 		lw	a5,-36(s0)
 3496 0018 9E33     		lhu	a5,32(a5)
 3497 001a 2317F4FE 		sh	a5,-18(s0)
1416:Drivers/src/ch32v20x_tim.c ****     tmpccer &= (uint16_t) ~((uint16_t)TIM_CC2P);
 3498              		.loc 1 1416 13
 3499 001e 8357E4FE 		lhu	a5,-18(s0)
 3500 0022 93F7F7FD 		andi	a5,a5,-33
 3501 0026 2317F4FE 		sh	a5,-18(s0)
1417:Drivers/src/ch32v20x_tim.c ****     tmpccer |= (uint16_t)(TIM_OCPolarity << 4);
 3502              		.loc 1 1417 16
 3503 002a 8357A4FD 		lhu	a5,-38(s0)
 3504 002e 9207     		slli	a5,a5,4
 3505 0030 C207     		slli	a5,a5,16
 3506 0032 C183     		srli	a5,a5,16
 3507              		.loc 1 1417 13
GAS LISTING C:\Users\SOLDER~1\AppData\Local\Temp\ccPZLIWm.s 			page 87


 3508 0034 0357E4FE 		lhu	a4,-18(s0)
 3509 0038 D98F     		or	a5,a5,a4
 3510 003a 2317F4FE 		sh	a5,-18(s0)
1418:Drivers/src/ch32v20x_tim.c ****     TIMx->CCER = tmpccer;
 3511              		.loc 1 1418 16
 3512 003e 8327C4FD 		lw	a5,-36(s0)
 3513 0042 0357E4FE 		lhu	a4,-18(s0)
 3514 0046 9AB3     		sh	a4,32(a5)
1419:Drivers/src/ch32v20x_tim.c **** }
 3515              		.loc 1 1419 1
 3516 0048 0100     		nop
 3517 004a 3254     		lw	s0,44(sp)
 3518              		.cfi_restore 8
 3519              		.cfi_def_cfa 2, 48
 3520 004c 4561     		addi	sp,sp,48
 3521              		.cfi_def_cfa_offset 0
 3522 004e 8280     		jr	ra
 3523              		.cfi_endproc
 3524              	.LFE67:
 3526              		.section	.text.TIM_OC2NPolarityConfig,"ax",@progbits
 3527              		.align	1
 3528              		.globl	TIM_OC2NPolarityConfig
 3530              	TIM_OC2NPolarityConfig:
 3531              	.LFB68:
1420:Drivers/src/ch32v20x_tim.c **** 
1421:Drivers/src/ch32v20x_tim.c **** /*********************************************************************
1422:Drivers/src/ch32v20x_tim.c ****  * @fn      TIM_OC2NPolarityConfig
1423:Drivers/src/ch32v20x_tim.c ****  *
1424:Drivers/src/ch32v20x_tim.c ****  * @brief   Configures the TIMx channel 2 polarity.
1425:Drivers/src/ch32v20x_tim.c ****  *
1426:Drivers/src/ch32v20x_tim.c ****  * @param   TIMx - where x can be 1 to select the TIM peripheral.
1427:Drivers/src/ch32v20x_tim.c ****  *          TIM_OCNPolarity - specifies the OC1N Polarity.
1428:Drivers/src/ch32v20x_tim.c ****  *            TIM_OCNPolarity_High - Output Compare active high.
1429:Drivers/src/ch32v20x_tim.c ****  *            TIM_OCNPolarity_Low - Output Compare active low.
1430:Drivers/src/ch32v20x_tim.c ****  *
1431:Drivers/src/ch32v20x_tim.c ****  * @return  none
1432:Drivers/src/ch32v20x_tim.c ****  */
1433:Drivers/src/ch32v20x_tim.c **** void TIM_OC2NPolarityConfig(TIM_TypeDef *TIMx, uint16_t TIM_OCNPolarity)
1434:Drivers/src/ch32v20x_tim.c **** {
 3532              		.loc 1 1434 1
 3533              		.cfi_startproc
 3534 0000 7971     		addi	sp,sp,-48
 3535              		.cfi_def_cfa_offset 48
 3536 0002 22D6     		sw	s0,44(sp)
 3537              		.cfi_offset 8, -4
 3538 0004 0018     		addi	s0,sp,48
 3539              		.cfi_def_cfa 8, 0
 3540 0006 232EA4FC 		sw	a0,-36(s0)
 3541 000a AE87     		mv	a5,a1
 3542 000c 231DF4FC 		sh	a5,-38(s0)
1435:Drivers/src/ch32v20x_tim.c ****     uint16_t tmpccer = 0;
 3543              		.loc 1 1435 14
 3544 0010 231704FE 		sh	zero,-18(s0)
1436:Drivers/src/ch32v20x_tim.c **** 
1437:Drivers/src/ch32v20x_tim.c ****     tmpccer = TIMx->CCER;
 3545              		.loc 1 1437 13
 3546 0014 8327C4FD 		lw	a5,-36(s0)
GAS LISTING C:\Users\SOLDER~1\AppData\Local\Temp\ccPZLIWm.s 			page 88


 3547 0018 9E33     		lhu	a5,32(a5)
 3548 001a 2317F4FE 		sh	a5,-18(s0)
1438:Drivers/src/ch32v20x_tim.c ****     tmpccer &= (uint16_t) ~((uint16_t)TIM_CC2NP);
 3549              		.loc 1 1438 13
 3550 001e 8357E4FE 		lhu	a5,-18(s0)
 3551 0022 93F7F7F7 		andi	a5,a5,-129
 3552 0026 2317F4FE 		sh	a5,-18(s0)
1439:Drivers/src/ch32v20x_tim.c ****     tmpccer |= (uint16_t)(TIM_OCNPolarity << 4);
 3553              		.loc 1 1439 16
 3554 002a 8357A4FD 		lhu	a5,-38(s0)
 3555 002e 9207     		slli	a5,a5,4
 3556 0030 C207     		slli	a5,a5,16
 3557 0032 C183     		srli	a5,a5,16
 3558              		.loc 1 1439 13
 3559 0034 0357E4FE 		lhu	a4,-18(s0)
 3560 0038 D98F     		or	a5,a5,a4
 3561 003a 2317F4FE 		sh	a5,-18(s0)
1440:Drivers/src/ch32v20x_tim.c ****     TIMx->CCER = tmpccer;
 3562              		.loc 1 1440 16
 3563 003e 8327C4FD 		lw	a5,-36(s0)
 3564 0042 0357E4FE 		lhu	a4,-18(s0)
 3565 0046 9AB3     		sh	a4,32(a5)
1441:Drivers/src/ch32v20x_tim.c **** }
 3566              		.loc 1 1441 1
 3567 0048 0100     		nop
 3568 004a 3254     		lw	s0,44(sp)
 3569              		.cfi_restore 8
 3570              		.cfi_def_cfa 2, 48
 3571 004c 4561     		addi	sp,sp,48
 3572              		.cfi_def_cfa_offset 0
 3573 004e 8280     		jr	ra
 3574              		.cfi_endproc
 3575              	.LFE68:
 3577              		.section	.text.TIM_OC3PolarityConfig,"ax",@progbits
 3578              		.align	1
 3579              		.globl	TIM_OC3PolarityConfig
 3581              	TIM_OC3PolarityConfig:
 3582              	.LFB69:
1442:Drivers/src/ch32v20x_tim.c **** 
1443:Drivers/src/ch32v20x_tim.c **** /*********************************************************************
1444:Drivers/src/ch32v20x_tim.c ****  * @fn      TIM_OC3PolarityConfig
1445:Drivers/src/ch32v20x_tim.c ****  *
1446:Drivers/src/ch32v20x_tim.c ****  * @brief   Configures the TIMx Channel 3 polarity.
1447:Drivers/src/ch32v20x_tim.c ****  *
1448:Drivers/src/ch32v20x_tim.c ****  * @param   TIMx - where x can be 1 to 4 select the TIM peripheral.
1449:Drivers/src/ch32v20x_tim.c ****  *          TIM_OCPolarit - specifies the OC3 Polarity.
1450:Drivers/src/ch32v20x_tim.c ****  *            TIM_OCPolarity_High - Output Compare active high.
1451:Drivers/src/ch32v20x_tim.c ****  *            TIM_OCPolarity_Low - Output Compare active low.
1452:Drivers/src/ch32v20x_tim.c ****  *
1453:Drivers/src/ch32v20x_tim.c ****  * @return  none
1454:Drivers/src/ch32v20x_tim.c ****  */
1455:Drivers/src/ch32v20x_tim.c **** void TIM_OC3PolarityConfig(TIM_TypeDef *TIMx, uint16_t TIM_OCPolarity)
1456:Drivers/src/ch32v20x_tim.c **** {
 3583              		.loc 1 1456 1
 3584              		.cfi_startproc
 3585 0000 7971     		addi	sp,sp,-48
 3586              		.cfi_def_cfa_offset 48
GAS LISTING C:\Users\SOLDER~1\AppData\Local\Temp\ccPZLIWm.s 			page 89


 3587 0002 22D6     		sw	s0,44(sp)
 3588              		.cfi_offset 8, -4
 3589 0004 0018     		addi	s0,sp,48
 3590              		.cfi_def_cfa 8, 0
 3591 0006 232EA4FC 		sw	a0,-36(s0)
 3592 000a AE87     		mv	a5,a1
 3593 000c 231DF4FC 		sh	a5,-38(s0)
1457:Drivers/src/ch32v20x_tim.c ****     uint16_t tmpccer = 0;
 3594              		.loc 1 1457 14
 3595 0010 231704FE 		sh	zero,-18(s0)
1458:Drivers/src/ch32v20x_tim.c **** 
1459:Drivers/src/ch32v20x_tim.c ****     tmpccer = TIMx->CCER;
 3596              		.loc 1 1459 13
 3597 0014 8327C4FD 		lw	a5,-36(s0)
 3598 0018 9E33     		lhu	a5,32(a5)
 3599 001a 2317F4FE 		sh	a5,-18(s0)
1460:Drivers/src/ch32v20x_tim.c ****     tmpccer &= (uint16_t) ~((uint16_t)TIM_CC3P);
 3600              		.loc 1 1460 13
 3601 001e 8357E4FE 		lhu	a5,-18(s0)
 3602 0022 93F7F7DF 		andi	a5,a5,-513
 3603 0026 2317F4FE 		sh	a5,-18(s0)
1461:Drivers/src/ch32v20x_tim.c ****     tmpccer |= (uint16_t)(TIM_OCPolarity << 8);
 3604              		.loc 1 1461 16
 3605 002a 8357A4FD 		lhu	a5,-38(s0)
 3606 002e A207     		slli	a5,a5,8
 3607 0030 C207     		slli	a5,a5,16
 3608 0032 C183     		srli	a5,a5,16
 3609              		.loc 1 1461 13
 3610 0034 0357E4FE 		lhu	a4,-18(s0)
 3611 0038 D98F     		or	a5,a5,a4
 3612 003a 2317F4FE 		sh	a5,-18(s0)
1462:Drivers/src/ch32v20x_tim.c ****     TIMx->CCER = tmpccer;
 3613              		.loc 1 1462 16
 3614 003e 8327C4FD 		lw	a5,-36(s0)
 3615 0042 0357E4FE 		lhu	a4,-18(s0)
 3616 0046 9AB3     		sh	a4,32(a5)
1463:Drivers/src/ch32v20x_tim.c **** }
 3617              		.loc 1 1463 1
 3618 0048 0100     		nop
 3619 004a 3254     		lw	s0,44(sp)
 3620              		.cfi_restore 8
 3621              		.cfi_def_cfa 2, 48
 3622 004c 4561     		addi	sp,sp,48
 3623              		.cfi_def_cfa_offset 0
 3624 004e 8280     		jr	ra
 3625              		.cfi_endproc
 3626              	.LFE69:
 3628              		.section	.text.TIM_OC3NPolarityConfig,"ax",@progbits
 3629              		.align	1
 3630              		.globl	TIM_OC3NPolarityConfig
 3632              	TIM_OC3NPolarityConfig:
 3633              	.LFB70:
1464:Drivers/src/ch32v20x_tim.c **** 
1465:Drivers/src/ch32v20x_tim.c **** /*********************************************************************
1466:Drivers/src/ch32v20x_tim.c ****  * @fn      TIM_OC3NPolarityConfig
1467:Drivers/src/ch32v20x_tim.c ****  *
1468:Drivers/src/ch32v20x_tim.c ****  * @brief   Configures the TIMx Channel 3N polarity.
GAS LISTING C:\Users\SOLDER~1\AppData\Local\Temp\ccPZLIWm.s 			page 90


1469:Drivers/src/ch32v20x_tim.c ****  *
1470:Drivers/src/ch32v20x_tim.c ****  * @param   TIMx - where x can be 1 to select the TIM peripheral.
1471:Drivers/src/ch32v20x_tim.c ****  *          TIM_OCNPolarity - specifies the OC2N Polarity.
1472:Drivers/src/ch32v20x_tim.c ****  *            TIM_OCNPolarity_High - Output Compare active high.
1473:Drivers/src/ch32v20x_tim.c ****  *            TIM_OCNPolarity_Low - Output Compare active low.
1474:Drivers/src/ch32v20x_tim.c ****  *
1475:Drivers/src/ch32v20x_tim.c ****  * @return  none
1476:Drivers/src/ch32v20x_tim.c ****  */
1477:Drivers/src/ch32v20x_tim.c **** void TIM_OC3NPolarityConfig(TIM_TypeDef *TIMx, uint16_t TIM_OCNPolarity)
1478:Drivers/src/ch32v20x_tim.c **** {
 3634              		.loc 1 1478 1
 3635              		.cfi_startproc
 3636 0000 7971     		addi	sp,sp,-48
 3637              		.cfi_def_cfa_offset 48
 3638 0002 22D6     		sw	s0,44(sp)
 3639              		.cfi_offset 8, -4
 3640 0004 0018     		addi	s0,sp,48
 3641              		.cfi_def_cfa 8, 0
 3642 0006 232EA4FC 		sw	a0,-36(s0)
 3643 000a AE87     		mv	a5,a1
 3644 000c 231DF4FC 		sh	a5,-38(s0)
1479:Drivers/src/ch32v20x_tim.c ****     uint16_t tmpccer = 0;
 3645              		.loc 1 1479 14
 3646 0010 231704FE 		sh	zero,-18(s0)
1480:Drivers/src/ch32v20x_tim.c **** 
1481:Drivers/src/ch32v20x_tim.c ****     tmpccer = TIMx->CCER;
 3647              		.loc 1 1481 13
 3648 0014 8327C4FD 		lw	a5,-36(s0)
 3649 0018 9E33     		lhu	a5,32(a5)
 3650 001a 2317F4FE 		sh	a5,-18(s0)
1482:Drivers/src/ch32v20x_tim.c ****     tmpccer &= (uint16_t) ~((uint16_t)TIM_CC3NP);
 3651              		.loc 1 1482 13
 3652 001e 8357E4FE 		lhu	a5,-18(s0)
 3653 0022 3E87     		mv	a4,a5
 3654 0024 FD77     		li	a5,-4096
 3655 0026 9387F77F 		addi	a5,a5,2047
 3656 002a F98F     		and	a5,a4,a5
 3657 002c 2317F4FE 		sh	a5,-18(s0)
1483:Drivers/src/ch32v20x_tim.c ****     tmpccer |= (uint16_t)(TIM_OCNPolarity << 8);
 3658              		.loc 1 1483 16
 3659 0030 8357A4FD 		lhu	a5,-38(s0)
 3660 0034 A207     		slli	a5,a5,8
 3661 0036 C207     		slli	a5,a5,16
 3662 0038 C183     		srli	a5,a5,16
 3663              		.loc 1 1483 13
 3664 003a 0357E4FE 		lhu	a4,-18(s0)
 3665 003e D98F     		or	a5,a5,a4
 3666 0040 2317F4FE 		sh	a5,-18(s0)
1484:Drivers/src/ch32v20x_tim.c ****     TIMx->CCER = tmpccer;
 3667              		.loc 1 1484 16
 3668 0044 8327C4FD 		lw	a5,-36(s0)
 3669 0048 0357E4FE 		lhu	a4,-18(s0)
 3670 004c 9AB3     		sh	a4,32(a5)
1485:Drivers/src/ch32v20x_tim.c **** }
 3671              		.loc 1 1485 1
 3672 004e 0100     		nop
 3673 0050 3254     		lw	s0,44(sp)
GAS LISTING C:\Users\SOLDER~1\AppData\Local\Temp\ccPZLIWm.s 			page 91


 3674              		.cfi_restore 8
 3675              		.cfi_def_cfa 2, 48
 3676 0052 4561     		addi	sp,sp,48
 3677              		.cfi_def_cfa_offset 0
 3678 0054 8280     		jr	ra
 3679              		.cfi_endproc
 3680              	.LFE70:
 3682              		.section	.text.TIM_OC4PolarityConfig,"ax",@progbits
 3683              		.align	1
 3684              		.globl	TIM_OC4PolarityConfig
 3686              	TIM_OC4PolarityConfig:
 3687              	.LFB71:
1486:Drivers/src/ch32v20x_tim.c **** 
1487:Drivers/src/ch32v20x_tim.c **** /*********************************************************************
1488:Drivers/src/ch32v20x_tim.c ****  * @fn      TIM_OC4PolarityConfig
1489:Drivers/src/ch32v20x_tim.c ****  *
1490:Drivers/src/ch32v20x_tim.c ****  * @brief   Configures the TIMx Channel 4 polarity.
1491:Drivers/src/ch32v20x_tim.c ****  *
1492:Drivers/src/ch32v20x_tim.c ****  * @param   TIMx - where x can be 1 to 4 select the TIM peripheral.
1493:Drivers/src/ch32v20x_tim.c ****  *          TIM_OCPolarit - specifies the OC3 Polarity.
1494:Drivers/src/ch32v20x_tim.c ****  *            TIM_OCPolarity_High - Output Compare active high.
1495:Drivers/src/ch32v20x_tim.c ****  *            TIM_OCPolarity_Low - Output Compare active low.
1496:Drivers/src/ch32v20x_tim.c ****  *
1497:Drivers/src/ch32v20x_tim.c ****  * @return  none
1498:Drivers/src/ch32v20x_tim.c ****  */
1499:Drivers/src/ch32v20x_tim.c **** void TIM_OC4PolarityConfig(TIM_TypeDef *TIMx, uint16_t TIM_OCPolarity)
1500:Drivers/src/ch32v20x_tim.c **** {
 3688              		.loc 1 1500 1
 3689              		.cfi_startproc
 3690 0000 7971     		addi	sp,sp,-48
 3691              		.cfi_def_cfa_offset 48
 3692 0002 22D6     		sw	s0,44(sp)
 3693              		.cfi_offset 8, -4
 3694 0004 0018     		addi	s0,sp,48
 3695              		.cfi_def_cfa 8, 0
 3696 0006 232EA4FC 		sw	a0,-36(s0)
 3697 000a AE87     		mv	a5,a1
 3698 000c 231DF4FC 		sh	a5,-38(s0)
1501:Drivers/src/ch32v20x_tim.c ****     uint16_t tmpccer = 0;
 3699              		.loc 1 1501 14
 3700 0010 231704FE 		sh	zero,-18(s0)
1502:Drivers/src/ch32v20x_tim.c **** 
1503:Drivers/src/ch32v20x_tim.c ****     tmpccer = TIMx->CCER;
 3701              		.loc 1 1503 13
 3702 0014 8327C4FD 		lw	a5,-36(s0)
 3703 0018 9E33     		lhu	a5,32(a5)
 3704 001a 2317F4FE 		sh	a5,-18(s0)
1504:Drivers/src/ch32v20x_tim.c ****     tmpccer &= (uint16_t) ~((uint16_t)TIM_CC4P);
 3705              		.loc 1 1504 13
 3706 001e 8357E4FE 		lhu	a5,-18(s0)
 3707 0022 3E87     		mv	a4,a5
 3708 0024 F977     		li	a5,-8192
 3709 0026 FD17     		addi	a5,a5,-1
 3710 0028 F98F     		and	a5,a4,a5
 3711 002a 2317F4FE 		sh	a5,-18(s0)
1505:Drivers/src/ch32v20x_tim.c ****     tmpccer |= (uint16_t)(TIM_OCPolarity << 12);
 3712              		.loc 1 1505 16
GAS LISTING C:\Users\SOLDER~1\AppData\Local\Temp\ccPZLIWm.s 			page 92


 3713 002e 8357A4FD 		lhu	a5,-38(s0)
 3714 0032 B207     		slli	a5,a5,12
 3715 0034 C207     		slli	a5,a5,16
 3716 0036 C183     		srli	a5,a5,16
 3717              		.loc 1 1505 13
 3718 0038 0357E4FE 		lhu	a4,-18(s0)
 3719 003c D98F     		or	a5,a5,a4
 3720 003e 2317F4FE 		sh	a5,-18(s0)
1506:Drivers/src/ch32v20x_tim.c ****     TIMx->CCER = tmpccer;
 3721              		.loc 1 1506 16
 3722 0042 8327C4FD 		lw	a5,-36(s0)
 3723 0046 0357E4FE 		lhu	a4,-18(s0)
 3724 004a 9AB3     		sh	a4,32(a5)
1507:Drivers/src/ch32v20x_tim.c **** }
 3725              		.loc 1 1507 1
 3726 004c 0100     		nop
 3727 004e 3254     		lw	s0,44(sp)
 3728              		.cfi_restore 8
 3729              		.cfi_def_cfa 2, 48
 3730 0050 4561     		addi	sp,sp,48
 3731              		.cfi_def_cfa_offset 0
 3732 0052 8280     		jr	ra
 3733              		.cfi_endproc
 3734              	.LFE71:
 3736              		.section	.text.TIM_CCxCmd,"ax",@progbits
 3737              		.align	1
 3738              		.globl	TIM_CCxCmd
 3740              	TIM_CCxCmd:
 3741              	.LFB72:
1508:Drivers/src/ch32v20x_tim.c **** 
1509:Drivers/src/ch32v20x_tim.c **** /*********************************************************************
1510:Drivers/src/ch32v20x_tim.c ****  * @fn      TIM_CCxCmd
1511:Drivers/src/ch32v20x_tim.c ****  *
1512:Drivers/src/ch32v20x_tim.c ****  * @brief   Enables or disables the TIM Capture Compare Channel x.
1513:Drivers/src/ch32v20x_tim.c ****  *
1514:Drivers/src/ch32v20x_tim.c ****  * @param   TIMx - where x can be 1 to 4 select the TIM peripheral.
1515:Drivers/src/ch32v20x_tim.c ****  *          TIM_Channel - specifies the TIM Channel.
1516:Drivers/src/ch32v20x_tim.c ****  *            TIM_Channel_1 - TIM Channel 1.
1517:Drivers/src/ch32v20x_tim.c ****  *            TIM_Channel_2 - TIM Channel 2.
1518:Drivers/src/ch32v20x_tim.c ****  *            TIM_Channel_3 - TIM Channel 3.
1519:Drivers/src/ch32v20x_tim.c ****  *            TIM_Channel_4 - TIM Channel 4.
1520:Drivers/src/ch32v20x_tim.c ****  *          TIM_CCx - specifies the TIM Channel CCxE bit new state.
1521:Drivers/src/ch32v20x_tim.c ****  *            TIM_CCx_Enable.
1522:Drivers/src/ch32v20x_tim.c ****  *            TIM_CCx_Disable.
1523:Drivers/src/ch32v20x_tim.c ****  *
1524:Drivers/src/ch32v20x_tim.c ****  * @return  none
1525:Drivers/src/ch32v20x_tim.c ****  */
1526:Drivers/src/ch32v20x_tim.c **** void TIM_CCxCmd(TIM_TypeDef *TIMx, uint16_t TIM_Channel, uint16_t TIM_CCx)
1527:Drivers/src/ch32v20x_tim.c **** {
 3742              		.loc 1 1527 1
 3743              		.cfi_startproc
 3744 0000 7971     		addi	sp,sp,-48
 3745              		.cfi_def_cfa_offset 48
 3746 0002 22D6     		sw	s0,44(sp)
 3747              		.cfi_offset 8, -4
