GAS LISTING C:\Users\SOLDER~1\AppData\Local\Temp\ccdovRCu.s 			page 1


   1              		.file	"ch32v20x_gpio.c"
   2              		.option nopic
   3              		.attribute arch, "rv32i2p0_m2p0_a2p0_c2p0_xw"
   4              		.attribute unaligned_access, 0
   5              		.attribute stack_align, 16
   6              		.text
   7              	.Ltext0:
   8              		.cfi_sections	.debug_frame
   9              		.file 0 "C:\\Users\\Solderingiron\\Documents\\GitHub\\VSC-make-example\\VSC_CH32V203C8T6" "Drivers
  10              		.globl	MCU_Version
  11              		.section	.sbss.MCU_Version,"aw",@nobits
  14              	MCU_Version:
  15 0000 00       		.zero	1
  16              		.section	.text.GPIO_DeInit,"ax",@progbits
  17              		.align	1
  18              		.globl	GPIO_DeInit
  20              	GPIO_DeInit:
  21              	.LFB16:
  22              		.file 1 "Drivers/src/ch32v20x_gpio.c"
   1:Drivers/src/ch32v20x_gpio.c **** /********************************** (C) COPYRIGHT  *******************************
   2:Drivers/src/ch32v20x_gpio.c ****  * File Name          : ch32v20x_gpio.c
   3:Drivers/src/ch32v20x_gpio.c ****  * Author             : WCH
   4:Drivers/src/ch32v20x_gpio.c ****  * Version            : V1.0.0
   5:Drivers/src/ch32v20x_gpio.c ****  * Date               : 2021/06/06
   6:Drivers/src/ch32v20x_gpio.c ****  * Description        : This file provides all the GPIO firmware functions.
   7:Drivers/src/ch32v20x_gpio.c **** *********************************************************************************
   8:Drivers/src/ch32v20x_gpio.c **** * Copyright (c) 2021 Nanjing Qinheng Microelectronics Co., Ltd.
   9:Drivers/src/ch32v20x_gpio.c **** * Attention: This software (modified or not) and binary are used for 
  10:Drivers/src/ch32v20x_gpio.c **** * microcontroller manufactured by Nanjing Qinheng Microelectronics.
  11:Drivers/src/ch32v20x_gpio.c **** *******************************************************************************/
  12:Drivers/src/ch32v20x_gpio.c **** #include "ch32v20x_gpio.h"
  13:Drivers/src/ch32v20x_gpio.c **** #include "ch32v20x_rcc.h"
  14:Drivers/src/ch32v20x_gpio.c **** 
  15:Drivers/src/ch32v20x_gpio.c **** /* MASK */
  16:Drivers/src/ch32v20x_gpio.c **** #define ECR_PORTPINCONFIG_MASK    ((uint16_t)0xFF80)
  17:Drivers/src/ch32v20x_gpio.c **** #define LSB_MASK                  ((uint16_t)0xFFFF)
  18:Drivers/src/ch32v20x_gpio.c **** #define DBGAFR_POSITION_MASK      ((uint32_t)0x000F0000)
  19:Drivers/src/ch32v20x_gpio.c **** #define DBGAFR_SWJCFG_MASK        ((uint32_t)0xF0FFFFFF)
  20:Drivers/src/ch32v20x_gpio.c **** #define DBGAFR_LOCATION_MASK      ((uint32_t)0x00200000)
  21:Drivers/src/ch32v20x_gpio.c **** #define DBGAFR_NUMBITS_MASK       ((uint32_t)0x00100000)
  22:Drivers/src/ch32v20x_gpio.c **** 
  23:Drivers/src/ch32v20x_gpio.c **** #if defined (CH32V20x_D6)
  24:Drivers/src/ch32v20x_gpio.c **** uint8_t MCU_Version = 0;
  25:Drivers/src/ch32v20x_gpio.c **** #endif
  26:Drivers/src/ch32v20x_gpio.c **** 
  27:Drivers/src/ch32v20x_gpio.c **** /*********************************************************************
  28:Drivers/src/ch32v20x_gpio.c ****  * @fn      GPIO_DeInit
  29:Drivers/src/ch32v20x_gpio.c ****  *
  30:Drivers/src/ch32v20x_gpio.c ****  * @brief   Deinitializes the GPIOx peripheral registers to their default
  31:Drivers/src/ch32v20x_gpio.c ****  *        reset values.
  32:Drivers/src/ch32v20x_gpio.c ****  *
  33:Drivers/src/ch32v20x_gpio.c ****  * @param   GPIOx - where x can be (A..G) to select the GPIO peripheral.
  34:Drivers/src/ch32v20x_gpio.c ****  *
  35:Drivers/src/ch32v20x_gpio.c ****  * @return  none
  36:Drivers/src/ch32v20x_gpio.c ****  */
  37:Drivers/src/ch32v20x_gpio.c **** void GPIO_DeInit(GPIO_TypeDef *GPIOx)
  38:Drivers/src/ch32v20x_gpio.c **** {
GAS LISTING C:\Users\SOLDER~1\AppData\Local\Temp\ccdovRCu.s 			page 2


  23              		.loc 1 38 1
  24              		.cfi_startproc
  25 0000 0111     		addi	sp,sp,-32
  26              		.cfi_def_cfa_offset 32
  27 0002 06CE     		sw	ra,28(sp)
  28 0004 22CC     		sw	s0,24(sp)
  29              		.cfi_offset 1, -4
  30              		.cfi_offset 8, -8
  31 0006 0010     		addi	s0,sp,32
  32              		.cfi_def_cfa 8, 0
  33 0008 2326A4FE 		sw	a0,-20(s0)
  39:Drivers/src/ch32v20x_gpio.c ****     if(GPIOx == GPIOA)
  34              		.loc 1 39 7
  35 000c 0327C4FE 		lw	a4,-20(s0)
  36 0010 B7170140 		li	a5,1073811456
  37 0014 93870780 		addi	a5,a5,-2048
  38 0018 631FF700 		bne	a4,a5,.L2
  40:Drivers/src/ch32v20x_gpio.c ****     {
  41:Drivers/src/ch32v20x_gpio.c ****         RCC_APB2PeriphResetCmd(RCC_APB2Periph_GPIOA, ENABLE);
  39              		.loc 1 41 9
  40 001c 8545     		li	a1,1
  41 001e 1145     		li	a0,4
  42 0020 97000000 		call	RCC_APB2PeriphResetCmd
  42      E7800000 
  42:Drivers/src/ch32v20x_gpio.c ****         RCC_APB2PeriphResetCmd(RCC_APB2Periph_GPIOA, DISABLE);
  43              		.loc 1 42 9
  44 0028 8145     		li	a1,0
  45 002a 1145     		li	a0,4
  46 002c 97000000 		call	RCC_APB2PeriphResetCmd
  46      E7800000 
  43:Drivers/src/ch32v20x_gpio.c ****     }
  44:Drivers/src/ch32v20x_gpio.c ****     else if(GPIOx == GPIOB)
  45:Drivers/src/ch32v20x_gpio.c ****     {
  46:Drivers/src/ch32v20x_gpio.c ****         RCC_APB2PeriphResetCmd(RCC_APB2Periph_GPIOB, ENABLE);
  47:Drivers/src/ch32v20x_gpio.c ****         RCC_APB2PeriphResetCmd(RCC_APB2Periph_GPIOB, DISABLE);
  48:Drivers/src/ch32v20x_gpio.c ****     }
  49:Drivers/src/ch32v20x_gpio.c ****     else if(GPIOx == GPIOC)
  50:Drivers/src/ch32v20x_gpio.c ****     {
  51:Drivers/src/ch32v20x_gpio.c ****         RCC_APB2PeriphResetCmd(RCC_APB2Periph_GPIOC, ENABLE);
  52:Drivers/src/ch32v20x_gpio.c ****         RCC_APB2PeriphResetCmd(RCC_APB2Periph_GPIOC, DISABLE);
  53:Drivers/src/ch32v20x_gpio.c ****     }
  54:Drivers/src/ch32v20x_gpio.c ****     else if(GPIOx == GPIOD)
  55:Drivers/src/ch32v20x_gpio.c ****     {
  56:Drivers/src/ch32v20x_gpio.c ****         RCC_APB2PeriphResetCmd(RCC_APB2Periph_GPIOD, ENABLE);
  57:Drivers/src/ch32v20x_gpio.c ****         RCC_APB2PeriphResetCmd(RCC_APB2Periph_GPIOD, DISABLE);
  58:Drivers/src/ch32v20x_gpio.c ****     }
  59:Drivers/src/ch32v20x_gpio.c ****     else if(GPIOx == GPIOE)
  60:Drivers/src/ch32v20x_gpio.c ****     {
  61:Drivers/src/ch32v20x_gpio.c ****         RCC_APB2PeriphResetCmd(RCC_APB2Periph_GPIOE, ENABLE);
  62:Drivers/src/ch32v20x_gpio.c ****         RCC_APB2PeriphResetCmd(RCC_APB2Periph_GPIOE, DISABLE);
  63:Drivers/src/ch32v20x_gpio.c ****     }
  64:Drivers/src/ch32v20x_gpio.c **** }
  47              		.loc 1 64 1
  48 0034 75A0     		j	.L7
  49              	.L2:
  44:Drivers/src/ch32v20x_gpio.c ****     {
  50              		.loc 1 44 12
GAS LISTING C:\Users\SOLDER~1\AppData\Local\Temp\ccdovRCu.s 			page 3


  51 0036 0327C4FE 		lw	a4,-20(s0)
  52 003a B7170140 		li	a5,1073811456
  53 003e 938707C0 		addi	a5,a5,-1024
  54 0042 631FF700 		bne	a4,a5,.L4
  46:Drivers/src/ch32v20x_gpio.c ****         RCC_APB2PeriphResetCmd(RCC_APB2Periph_GPIOB, DISABLE);
  55              		.loc 1 46 9
  56 0046 8545     		li	a1,1
  57 0048 2145     		li	a0,8
  58 004a 97000000 		call	RCC_APB2PeriphResetCmd
  58      E7800000 
  47:Drivers/src/ch32v20x_gpio.c ****     }
  59              		.loc 1 47 9
  60 0052 8145     		li	a1,0
  61 0054 2145     		li	a0,8
  62 0056 97000000 		call	RCC_APB2PeriphResetCmd
  62      E7800000 
  63              		.loc 1 64 1
  64 005e 49A0     		j	.L7
  65              	.L4:
  49:Drivers/src/ch32v20x_gpio.c ****     {
  66              		.loc 1 49 12
  67 0060 0327C4FE 		lw	a4,-20(s0)
  68 0064 B7170140 		li	a5,1073811456
  69 0068 631FF700 		bne	a4,a5,.L5
  51:Drivers/src/ch32v20x_gpio.c ****         RCC_APB2PeriphResetCmd(RCC_APB2Periph_GPIOC, DISABLE);
  70              		.loc 1 51 9
  71 006c 8545     		li	a1,1
  72 006e 4145     		li	a0,16
  73 0070 97000000 		call	RCC_APB2PeriphResetCmd
  73      E7800000 
  52:Drivers/src/ch32v20x_gpio.c ****     }
  74              		.loc 1 52 9
  75 0078 8145     		li	a1,0
  76 007a 4145     		li	a0,16
  77 007c 97000000 		call	RCC_APB2PeriphResetCmd
  77      E7800000 
  78              		.loc 1 64 1
  79 0084 B1A8     		j	.L7
  80              	.L5:
  54:Drivers/src/ch32v20x_gpio.c ****     {
  81              		.loc 1 54 12
  82 0086 0327C4FE 		lw	a4,-20(s0)
  83 008a B7170140 		li	a5,1073811456
  84 008e 93870740 		addi	a5,a5,1024
  85 0092 6311F702 		bne	a4,a5,.L6
  56:Drivers/src/ch32v20x_gpio.c ****         RCC_APB2PeriphResetCmd(RCC_APB2Periph_GPIOD, DISABLE);
  86              		.loc 1 56 9
  87 0096 8545     		li	a1,1
  88 0098 13050002 		li	a0,32
  89 009c 97000000 		call	RCC_APB2PeriphResetCmd
  89      E7800000 
  57:Drivers/src/ch32v20x_gpio.c ****     }
  90              		.loc 1 57 9
  91 00a4 8145     		li	a1,0
  92 00a6 13050002 		li	a0,32
  93 00aa 97000000 		call	RCC_APB2PeriphResetCmd
  93      E7800000 
GAS LISTING C:\Users\SOLDER~1\AppData\Local\Temp\ccdovRCu.s 			page 4


  94              		.loc 1 64 1
  95 00b2 3DA0     		j	.L7
  96              	.L6:
  59:Drivers/src/ch32v20x_gpio.c ****     {
  97              		.loc 1 59 12
  98 00b4 0327C4FE 		lw	a4,-20(s0)
  99 00b8 B7270140 		li	a5,1073815552
 100 00bc 93870780 		addi	a5,a5,-2048
 101 00c0 6310F702 		bne	a4,a5,.L7
  61:Drivers/src/ch32v20x_gpio.c ****         RCC_APB2PeriphResetCmd(RCC_APB2Periph_GPIOE, DISABLE);
 102              		.loc 1 61 9
 103 00c4 8545     		li	a1,1
 104 00c6 13050004 		li	a0,64
 105 00ca 97000000 		call	RCC_APB2PeriphResetCmd
 105      E7800000 
  62:Drivers/src/ch32v20x_gpio.c ****     }
 106              		.loc 1 62 9
 107 00d2 8145     		li	a1,0
 108 00d4 13050004 		li	a0,64
 109 00d8 97000000 		call	RCC_APB2PeriphResetCmd
 109      E7800000 
 110              	.L7:
 111              		.loc 1 64 1
 112 00e0 0100     		nop
 113 00e2 F240     		lw	ra,28(sp)
 114              		.cfi_restore 1
 115 00e4 6244     		lw	s0,24(sp)
 116              		.cfi_restore 8
 117              		.cfi_def_cfa 2, 32
 118 00e6 0561     		addi	sp,sp,32
 119              		.cfi_def_cfa_offset 0
 120 00e8 8280     		jr	ra
 121              		.cfi_endproc
 122              	.LFE16:
 124              		.section	.text.GPIO_AFIODeInit,"ax",@progbits
 125              		.align	1
 126              		.globl	GPIO_AFIODeInit
 128              	GPIO_AFIODeInit:
 129              	.LFB17:
  65:Drivers/src/ch32v20x_gpio.c **** 
  66:Drivers/src/ch32v20x_gpio.c **** /*********************************************************************
  67:Drivers/src/ch32v20x_gpio.c ****  * @fn      GPIO_AFIODeInit
  68:Drivers/src/ch32v20x_gpio.c ****  *
  69:Drivers/src/ch32v20x_gpio.c ****  * @brief   Deinitializes the Alternate Functions (remap, event control
  70:Drivers/src/ch32v20x_gpio.c ****  *        and EXTI configuration) registers to their default reset values.
  71:Drivers/src/ch32v20x_gpio.c ****  *
  72:Drivers/src/ch32v20x_gpio.c ****  * @return  none
  73:Drivers/src/ch32v20x_gpio.c ****  */
  74:Drivers/src/ch32v20x_gpio.c **** void GPIO_AFIODeInit(void)
  75:Drivers/src/ch32v20x_gpio.c **** {
 130              		.loc 1 75 1
 131              		.cfi_startproc
 132 0000 4111     		addi	sp,sp,-16
 133              		.cfi_def_cfa_offset 16
 134 0002 06C6     		sw	ra,12(sp)
 135 0004 22C4     		sw	s0,8(sp)
 136              		.cfi_offset 1, -4
GAS LISTING C:\Users\SOLDER~1\AppData\Local\Temp\ccdovRCu.s 			page 5


 137              		.cfi_offset 8, -8
 138 0006 0008     		addi	s0,sp,16
 139              		.cfi_def_cfa 8, 0
  76:Drivers/src/ch32v20x_gpio.c ****     RCC_APB2PeriphResetCmd(RCC_APB2Periph_AFIO, ENABLE);
 140              		.loc 1 76 5
 141 0008 8545     		li	a1,1
 142 000a 0545     		li	a0,1
 143 000c 97000000 		call	RCC_APB2PeriphResetCmd
 143      E7800000 
  77:Drivers/src/ch32v20x_gpio.c ****     RCC_APB2PeriphResetCmd(RCC_APB2Periph_AFIO, DISABLE);
 144              		.loc 1 77 5
 145 0014 8145     		li	a1,0
 146 0016 0545     		li	a0,1
 147 0018 97000000 		call	RCC_APB2PeriphResetCmd
 147      E7800000 
  78:Drivers/src/ch32v20x_gpio.c **** }
 148              		.loc 1 78 1
 149 0020 0100     		nop
 150 0022 B240     		lw	ra,12(sp)
 151              		.cfi_restore 1
 152 0024 2244     		lw	s0,8(sp)
 153              		.cfi_restore 8
 154              		.cfi_def_cfa 2, 16
 155 0026 4101     		addi	sp,sp,16
 156              		.cfi_def_cfa_offset 0
 157 0028 8280     		jr	ra
 158              		.cfi_endproc
 159              	.LFE17:
 161              		.section	.text.GPIO_Init,"ax",@progbits
 162              		.align	1
 163              		.globl	GPIO_Init
 165              	GPIO_Init:
 166              	.LFB18:
  79:Drivers/src/ch32v20x_gpio.c **** 
  80:Drivers/src/ch32v20x_gpio.c **** /*********************************************************************
  81:Drivers/src/ch32v20x_gpio.c ****  * @fn      GPIO_Init
  82:Drivers/src/ch32v20x_gpio.c ****  *
  83:Drivers/src/ch32v20x_gpio.c ****  * @brief   GPIOx - where x can be (A..G) to select the GPIO peripheral.
  84:Drivers/src/ch32v20x_gpio.c ****  *
  85:Drivers/src/ch32v20x_gpio.c ****  * @param   GPIO_InitStruct - pointer to a GPIO_InitTypeDef structure that
  86:Drivers/src/ch32v20x_gpio.c ****  *        contains the configuration information for the specified GPIO peripheral.
  87:Drivers/src/ch32v20x_gpio.c ****  *
  88:Drivers/src/ch32v20x_gpio.c ****  * @return  none
  89:Drivers/src/ch32v20x_gpio.c ****  */
  90:Drivers/src/ch32v20x_gpio.c **** void GPIO_Init(GPIO_TypeDef *GPIOx, GPIO_InitTypeDef *GPIO_InitStruct)
  91:Drivers/src/ch32v20x_gpio.c **** {
 167              		.loc 1 91 1
 168              		.cfi_startproc
 169 0000 3971     		addi	sp,sp,-64
 170              		.cfi_def_cfa_offset 64
 171 0002 22DE     		sw	s0,60(sp)
 172              		.cfi_offset 8, -4
 173 0004 8000     		addi	s0,sp,64
 174              		.cfi_def_cfa 8, 0
 175 0006 2326A4FC 		sw	a0,-52(s0)
 176 000a 2324B4FC 		sw	a1,-56(s0)
  92:Drivers/src/ch32v20x_gpio.c ****     uint32_t currentmode = 0x00, currentpin = 0x00, pinpos = 0x00, pos = 0x00;
GAS LISTING C:\Users\SOLDER~1\AppData\Local\Temp\ccdovRCu.s 			page 6


 177              		.loc 1 92 14
 178 000e 232604FE 		sw	zero,-20(s0)
 179              		.loc 1 92 34
 180 0012 232004FE 		sw	zero,-32(s0)
 181              		.loc 1 92 53
 182 0016 232404FE 		sw	zero,-24(s0)
 183              		.loc 1 92 68
 184 001a 232E04FC 		sw	zero,-36(s0)
  93:Drivers/src/ch32v20x_gpio.c ****     uint32_t tmpreg = 0x00, pinmask = 0x00;
 185              		.loc 1 93 14
 186 001e 232204FE 		sw	zero,-28(s0)
 187              		.loc 1 93 29
 188 0022 232C04FC 		sw	zero,-40(s0)
  94:Drivers/src/ch32v20x_gpio.c **** 
  95:Drivers/src/ch32v20x_gpio.c ****     currentmode = ((uint32_t)GPIO_InitStruct->GPIO_Mode) & ((uint32_t)0x0F);
 189              		.loc 1 95 45
 190 0026 832784FC 		lw	a5,-56(s0)
 191 002a 9C47     		lw	a5,8(a5)
 192              		.loc 1 95 17
 193 002c BD8B     		andi	a5,a5,15
 194 002e 2326F4FE 		sw	a5,-20(s0)
  96:Drivers/src/ch32v20x_gpio.c **** 
  97:Drivers/src/ch32v20x_gpio.c ****     if((((uint32_t)GPIO_InitStruct->GPIO_Mode) & ((uint32_t)0x10)) != 0x00)
 195              		.loc 1 97 35
 196 0032 832784FC 		lw	a5,-56(s0)
 197 0036 9C47     		lw	a5,8(a5)
 198              		.loc 1 97 48
 199 0038 C18B     		andi	a5,a5,16
 200              		.loc 1 97 7
 201 003a 89CB     		beq	a5,zero,.L10
  98:Drivers/src/ch32v20x_gpio.c ****     {
  99:Drivers/src/ch32v20x_gpio.c ****         currentmode |= (uint32_t)GPIO_InitStruct->GPIO_Speed;
 202              		.loc 1 99 49
 203 003c 832784FC 		lw	a5,-56(s0)
 204 0040 DC43     		lw	a5,4(a5)
 205              		.loc 1 99 21
 206 0042 0327C4FE 		lw	a4,-20(s0)
 207 0046 D98F     		or	a5,a4,a5
 208 0048 2326F4FE 		sw	a5,-20(s0)
 209              	.L10:
 100:Drivers/src/ch32v20x_gpio.c ****     }
 101:Drivers/src/ch32v20x_gpio.c **** #if defined (CH32V20x_D6)
 102:Drivers/src/ch32v20x_gpio.c ****     if(((*(uint32_t *) 0x40022030) & 0x0F000000) == 0)
 210              		.loc 1 102 10
 211 004c B7270240 		li	a5,1073881088
 212 0050 93870703 		addi	a5,a5,48
 213 0054 9843     		lw	a4,0(a5)
 214              		.loc 1 102 36
 215 0056 B707000F 		li	a5,251658240
 216 005a F98F     		and	a5,a4,a5
 217              		.loc 1 102 7
 218 005c 91E7     		bne	a5,zero,.L11
 103:Drivers/src/ch32v20x_gpio.c ****     {
 104:Drivers/src/ch32v20x_gpio.c ****         MCU_Version = 1;
 219              		.loc 1 104 21
 220 005e B7070000 		lui	a5,%hi(MCU_Version)
 221 0062 0547     		li	a4,1
GAS LISTING C:\Users\SOLDER~1\AppData\Local\Temp\ccdovRCu.s 			page 7


 222 0064 2380E700 		sb	a4,%lo(MCU_Version)(a5)
 223              	.L11:
 105:Drivers/src/ch32v20x_gpio.c ****     }
 106:Drivers/src/ch32v20x_gpio.c **** 
 107:Drivers/src/ch32v20x_gpio.c ****     if((GPIOx == GPIOC) && MCU_Version){
 224              		.loc 1 107 7
 225 0068 0327C4FC 		lw	a4,-52(s0)
 226 006c B7170140 		li	a5,1073811456
 227 0070 6311F702 		bne	a4,a5,.L12
 228              		.loc 1 107 25 discriminator 1
 229 0074 B7070000 		lui	a5,%hi(MCU_Version)
 230 0078 83C70700 		lbu	a5,%lo(MCU_Version)(a5)
 231 007c 99CB     		beq	a5,zero,.L12
 108:Drivers/src/ch32v20x_gpio.c ****         GPIO_InitStruct->GPIO_Pin = GPIO_InitStruct->GPIO_Pin >> 13;
 232              		.loc 1 108 52
 233 007e 832784FC 		lw	a5,-56(s0)
 234 0082 9E23     		lhu	a5,0(a5)
 235              		.loc 1 108 35
 236 0084 B583     		srli	a5,a5,13
 237 0086 13970701 		slli	a4,a5,16
 238 008a 4183     		srli	a4,a4,16
 239 008c 832784FC 		lw	a5,-56(s0)
 240 0090 9AA3     		sh	a4,0(a5)
 241              	.L12:
 109:Drivers/src/ch32v20x_gpio.c ****     }
 110:Drivers/src/ch32v20x_gpio.c **** 
 111:Drivers/src/ch32v20x_gpio.c **** #endif
 112:Drivers/src/ch32v20x_gpio.c ****     if(((uint32_t)GPIO_InitStruct->GPIO_Pin & ((uint32_t)0x00FF)) != 0x00)
 242              		.loc 1 112 34
 243 0092 832784FC 		lw	a5,-56(s0)
 244 0096 9E23     		lhu	a5,0(a5)
 245              		.loc 1 112 45
 246 0098 93F7F70F 		andi	a5,a5,255
 247              		.loc 1 112 7
 248 009c E9CF     		beq	a5,zero,.L13
 113:Drivers/src/ch32v20x_gpio.c ****     {
 114:Drivers/src/ch32v20x_gpio.c ****         tmpreg = GPIOx->CFGLR;
 249              		.loc 1 114 16
 250 009e 8327C4FC 		lw	a5,-52(s0)
 251 00a2 9C43     		lw	a5,0(a5)
 252 00a4 2322F4FE 		sw	a5,-28(s0)
 115:Drivers/src/ch32v20x_gpio.c **** 
 116:Drivers/src/ch32v20x_gpio.c ****         for(pinpos = 0x00; pinpos < 0x08; pinpos++)
 253              		.loc 1 116 20
 254 00a8 232404FE 		sw	zero,-24(s0)
 255              		.loc 1 116 9
 256 00ac 5DA8     		j	.L14
 257              	.L17:
 117:Drivers/src/ch32v20x_gpio.c ****         {
 118:Drivers/src/ch32v20x_gpio.c ****             pos = ((uint32_t)0x01) << pinpos;
 258              		.loc 1 118 17
 259 00ae 832784FE 		lw	a5,-24(s0)
 260 00b2 0547     		li	a4,1
 261 00b4 B317F700 		sll	a5,a4,a5
 262 00b8 232EF4FC 		sw	a5,-36(s0)
 119:Drivers/src/ch32v20x_gpio.c ****             currentpin = (GPIO_InitStruct->GPIO_Pin) & pos;
 263              		.loc 1 119 42
GAS LISTING C:\Users\SOLDER~1\AppData\Local\Temp\ccdovRCu.s 			page 8


 264 00bc 832784FC 		lw	a5,-56(s0)
 265 00c0 9E23     		lhu	a5,0(a5)
 266 00c2 3E87     		mv	a4,a5
 267              		.loc 1 119 24
 268 00c4 8327C4FD 		lw	a5,-36(s0)
 269 00c8 F98F     		and	a5,a5,a4
 270 00ca 2320F4FE 		sw	a5,-32(s0)
 120:Drivers/src/ch32v20x_gpio.c **** 
 121:Drivers/src/ch32v20x_gpio.c ****             if(currentpin == pos)
 271              		.loc 1 121 15
 272 00ce 032704FE 		lw	a4,-32(s0)
 273 00d2 8327C4FD 		lw	a5,-36(s0)
 274 00d6 6311F708 		bne	a4,a5,.L15
 122:Drivers/src/ch32v20x_gpio.c ****             {
 123:Drivers/src/ch32v20x_gpio.c ****                 pos = pinpos << 2;
 275              		.loc 1 123 21
 276 00da 832784FE 		lw	a5,-24(s0)
 277 00de 8A07     		slli	a5,a5,2
 278 00e0 232EF4FC 		sw	a5,-36(s0)
 124:Drivers/src/ch32v20x_gpio.c ****                 pinmask = ((uint32_t)0x0F) << pos;
 279              		.loc 1 124 25
 280 00e4 8327C4FD 		lw	a5,-36(s0)
 281 00e8 3D47     		li	a4,15
 282 00ea B317F700 		sll	a5,a4,a5
 283 00ee 232CF4FC 		sw	a5,-40(s0)
 125:Drivers/src/ch32v20x_gpio.c ****                 tmpreg &= ~pinmask;
 284              		.loc 1 125 27
 285 00f2 832784FD 		lw	a5,-40(s0)
 286 00f6 93C7F7FF 		not	a5,a5
 287              		.loc 1 125 24
 288 00fa 032744FE 		lw	a4,-28(s0)
 289 00fe F98F     		and	a5,a4,a5
 290 0100 2322F4FE 		sw	a5,-28(s0)
 126:Drivers/src/ch32v20x_gpio.c ****                 tmpreg |= (currentmode << pos);
 291              		.loc 1 126 40
 292 0104 8327C4FD 		lw	a5,-36(s0)
 293 0108 0327C4FE 		lw	a4,-20(s0)
 294 010c B317F700 		sll	a5,a4,a5
 295              		.loc 1 126 24
 296 0110 032744FE 		lw	a4,-28(s0)
 297 0114 D98F     		or	a5,a4,a5
 298 0116 2322F4FE 		sw	a5,-28(s0)
 127:Drivers/src/ch32v20x_gpio.c **** 
 128:Drivers/src/ch32v20x_gpio.c ****                 if(GPIO_InitStruct->GPIO_Mode == GPIO_Mode_IPD)
 299              		.loc 1 128 35
 300 011a 832784FC 		lw	a5,-56(s0)
 301 011e 9847     		lw	a4,8(a5)
 302              		.loc 1 128 19
 303 0120 93078002 		li	a5,40
 304 0124 631BF700 		bne	a4,a5,.L16
 129:Drivers/src/ch32v20x_gpio.c ****                 {
 130:Drivers/src/ch32v20x_gpio.c ****                     GPIOx->BCR = (((uint32_t)0x01) << pinpos);
 305              		.loc 1 130 52
 306 0128 832784FE 		lw	a5,-24(s0)
 307 012c 0547     		li	a4,1
 308 012e 3317F700 		sll	a4,a4,a5
 309              		.loc 1 130 32
GAS LISTING C:\Users\SOLDER~1\AppData\Local\Temp\ccdovRCu.s 			page 9


 310 0132 8327C4FC 		lw	a5,-52(s0)
 311 0136 D8CB     		sw	a4,20(a5)
 312 0138 05A0     		j	.L15
 313              	.L16:
 131:Drivers/src/ch32v20x_gpio.c ****                 }
 132:Drivers/src/ch32v20x_gpio.c ****                 else
 133:Drivers/src/ch32v20x_gpio.c ****                 {
 134:Drivers/src/ch32v20x_gpio.c ****                     if(GPIO_InitStruct->GPIO_Mode == GPIO_Mode_IPU)
 314              		.loc 1 134 39
 315 013a 832784FC 		lw	a5,-56(s0)
 316 013e 9847     		lw	a4,8(a5)
 317              		.loc 1 134 23
 318 0140 93078004 		li	a5,72
 319 0144 631AF700 		bne	a4,a5,.L15
 135:Drivers/src/ch32v20x_gpio.c ****                     {
 136:Drivers/src/ch32v20x_gpio.c ****                         GPIOx->BSHR = (((uint32_t)0x01) << pinpos);
 320              		.loc 1 136 57
 321 0148 832784FE 		lw	a5,-24(s0)
 322 014c 0547     		li	a4,1
 323 014e 3317F700 		sll	a4,a4,a5
 324              		.loc 1 136 37
 325 0152 8327C4FC 		lw	a5,-52(s0)
 326 0156 98CB     		sw	a4,16(a5)
 327              	.L15:
 116:Drivers/src/ch32v20x_gpio.c ****         {
 328              		.loc 1 116 49 discriminator 2
 329 0158 832784FE 		lw	a5,-24(s0)
 330 015c 8507     		addi	a5,a5,1
 331 015e 2324F4FE 		sw	a5,-24(s0)
 332              	.L14:
 116:Drivers/src/ch32v20x_gpio.c ****         {
 333              		.loc 1 116 35 discriminator 1
 334 0162 032784FE 		lw	a4,-24(s0)
 335 0166 9D47     		li	a5,7
 336 0168 E3F3E7F4 		bleu	a4,a5,.L17
 137:Drivers/src/ch32v20x_gpio.c ****                     }
 138:Drivers/src/ch32v20x_gpio.c ****                 }
 139:Drivers/src/ch32v20x_gpio.c ****             }
 140:Drivers/src/ch32v20x_gpio.c ****         }
 141:Drivers/src/ch32v20x_gpio.c ****         GPIOx->CFGLR = tmpreg;
 337              		.loc 1 141 22
 338 016c 8327C4FC 		lw	a5,-52(s0)
 339 0170 032744FE 		lw	a4,-28(s0)
 340 0174 98C3     		sw	a4,0(a5)
 341              	.L13:
 142:Drivers/src/ch32v20x_gpio.c ****     }
 143:Drivers/src/ch32v20x_gpio.c **** 
 144:Drivers/src/ch32v20x_gpio.c ****     if(GPIO_InitStruct->GPIO_Pin > 0x00FF)
 342              		.loc 1 144 23
 343 0176 832784FC 		lw	a5,-56(s0)
 344 017a 9A23     		lhu	a4,0(a5)
 345              		.loc 1 144 7
 346 017c 9307F00F 		li	a5,255
 347 0180 63F0E70E 		bleu	a4,a5,.L23
 145:Drivers/src/ch32v20x_gpio.c ****     {
 146:Drivers/src/ch32v20x_gpio.c ****         tmpreg = GPIOx->CFGHR;
 348              		.loc 1 146 16
GAS LISTING C:\Users\SOLDER~1\AppData\Local\Temp\ccdovRCu.s 			page 10


 349 0184 8327C4FC 		lw	a5,-52(s0)
 350 0188 DC43     		lw	a5,4(a5)
 351 018a 2322F4FE 		sw	a5,-28(s0)
 147:Drivers/src/ch32v20x_gpio.c **** 
 148:Drivers/src/ch32v20x_gpio.c ****         for(pinpos = 0x00; pinpos < 0x08; pinpos++)
 352              		.loc 1 148 20
 353 018e 232404FE 		sw	zero,-24(s0)
 354              		.loc 1 148 9
 355 0192 6DA8     		j	.L19
 356              	.L22:
 149:Drivers/src/ch32v20x_gpio.c ****         {
 150:Drivers/src/ch32v20x_gpio.c ****             pos = (((uint32_t)0x01) << (pinpos + 0x08));
 357              		.loc 1 150 48
 358 0194 832784FE 		lw	a5,-24(s0)
 359 0198 A107     		addi	a5,a5,8
 360              		.loc 1 150 17
 361 019a 0547     		li	a4,1
 362 019c B317F700 		sll	a5,a4,a5
 363 01a0 232EF4FC 		sw	a5,-36(s0)
 151:Drivers/src/ch32v20x_gpio.c ****             currentpin = ((GPIO_InitStruct->GPIO_Pin) & pos);
 364              		.loc 1 151 43
 365 01a4 832784FC 		lw	a5,-56(s0)
 366 01a8 9E23     		lhu	a5,0(a5)
 367 01aa 3E87     		mv	a4,a5
 368              		.loc 1 151 24
 369 01ac 8327C4FD 		lw	a5,-36(s0)
 370 01b0 F98F     		and	a5,a5,a4
 371 01b2 2320F4FE 		sw	a5,-32(s0)
 152:Drivers/src/ch32v20x_gpio.c **** 
 153:Drivers/src/ch32v20x_gpio.c ****             if(currentpin == pos)
 372              		.loc 1 153 15
 373 01b6 032704FE 		lw	a4,-32(s0)
 374 01ba 8327C4FD 		lw	a5,-36(s0)
 375 01be 6312F708 		bne	a4,a5,.L20
 154:Drivers/src/ch32v20x_gpio.c ****             {
 155:Drivers/src/ch32v20x_gpio.c ****                 pos = pinpos << 2;
 376              		.loc 1 155 21
 377 01c2 832784FE 		lw	a5,-24(s0)
 378 01c6 8A07     		slli	a5,a5,2
 379 01c8 232EF4FC 		sw	a5,-36(s0)
 156:Drivers/src/ch32v20x_gpio.c ****                 pinmask = ((uint32_t)0x0F) << pos;
 380              		.loc 1 156 25
 381 01cc 8327C4FD 		lw	a5,-36(s0)
 382 01d0 3D47     		li	a4,15
 383 01d2 B317F700 		sll	a5,a4,a5
 384 01d6 232CF4FC 		sw	a5,-40(s0)
 157:Drivers/src/ch32v20x_gpio.c ****                 tmpreg &= ~pinmask;
 385              		.loc 1 157 27
 386 01da 832784FD 		lw	a5,-40(s0)
 387 01de 93C7F7FF 		not	a5,a5
 388              		.loc 1 157 24
 389 01e2 032744FE 		lw	a4,-28(s0)
 390 01e6 F98F     		and	a5,a4,a5
 391 01e8 2322F4FE 		sw	a5,-28(s0)
 158:Drivers/src/ch32v20x_gpio.c ****                 tmpreg |= (currentmode << pos);
 392              		.loc 1 158 40
 393 01ec 8327C4FD 		lw	a5,-36(s0)
GAS LISTING C:\Users\SOLDER~1\AppData\Local\Temp\ccdovRCu.s 			page 11


 394 01f0 0327C4FE 		lw	a4,-20(s0)
 395 01f4 B317F700 		sll	a5,a4,a5
 396              		.loc 1 158 24
 397 01f8 032744FE 		lw	a4,-28(s0)
 398 01fc D98F     		or	a5,a4,a5
 399 01fe 2322F4FE 		sw	a5,-28(s0)
 159:Drivers/src/ch32v20x_gpio.c **** 
 160:Drivers/src/ch32v20x_gpio.c ****                 if(GPIO_InitStruct->GPIO_Mode == GPIO_Mode_IPD)
 400              		.loc 1 160 35
 401 0202 832784FC 		lw	a5,-56(s0)
 402 0206 9847     		lw	a4,8(a5)
 403              		.loc 1 160 19
 404 0208 93078002 		li	a5,40
 405 020c 631BF700 		bne	a4,a5,.L21
 161:Drivers/src/ch32v20x_gpio.c ****                 {
 162:Drivers/src/ch32v20x_gpio.c ****                     GPIOx->BCR = (((uint32_t)0x01) << (pinpos + 0x08));
 406              		.loc 1 162 63
 407 0210 832784FE 		lw	a5,-24(s0)
 408 0214 A107     		addi	a5,a5,8
 409              		.loc 1 162 52
 410 0216 0547     		li	a4,1
 411 0218 3317F700 		sll	a4,a4,a5
 412              		.loc 1 162 32
 413 021c 8327C4FC 		lw	a5,-52(s0)
 414 0220 D8CB     		sw	a4,20(a5)
 415              	.L21:
 163:Drivers/src/ch32v20x_gpio.c ****                 }
 164:Drivers/src/ch32v20x_gpio.c **** 
 165:Drivers/src/ch32v20x_gpio.c ****                 if(GPIO_InitStruct->GPIO_Mode == GPIO_Mode_IPU)
 416              		.loc 1 165 35
 417 0222 832784FC 		lw	a5,-56(s0)
 418 0226 9847     		lw	a4,8(a5)
 419              		.loc 1 165 19
 420 0228 93078004 		li	a5,72
 421 022c 631BF700 		bne	a4,a5,.L20
 166:Drivers/src/ch32v20x_gpio.c ****                 {
 167:Drivers/src/ch32v20x_gpio.c ****                     GPIOx->BSHR = (((uint32_t)0x01) << (pinpos + 0x08));
 422              		.loc 1 167 64
 423 0230 832784FE 		lw	a5,-24(s0)
 424 0234 A107     		addi	a5,a5,8
 425              		.loc 1 167 53
 426 0236 0547     		li	a4,1
 427 0238 3317F700 		sll	a4,a4,a5
 428              		.loc 1 167 33
 429 023c 8327C4FC 		lw	a5,-52(s0)
 430 0240 98CB     		sw	a4,16(a5)
 431              	.L20:
 148:Drivers/src/ch32v20x_gpio.c ****         {
 432              		.loc 1 148 49 discriminator 2
 433 0242 832784FE 		lw	a5,-24(s0)
 434 0246 8507     		addi	a5,a5,1
 435 0248 2324F4FE 		sw	a5,-24(s0)
 436              	.L19:
 148:Drivers/src/ch32v20x_gpio.c ****         {
 437              		.loc 1 148 35 discriminator 1
 438 024c 032784FE 		lw	a4,-24(s0)
 439 0250 9D47     		li	a5,7
GAS LISTING C:\Users\SOLDER~1\AppData\Local\Temp\ccdovRCu.s 			page 12


 440 0252 E3F1E7F4 		bleu	a4,a5,.L22
 168:Drivers/src/ch32v20x_gpio.c ****                 }
 169:Drivers/src/ch32v20x_gpio.c ****             }
 170:Drivers/src/ch32v20x_gpio.c ****         }
 171:Drivers/src/ch32v20x_gpio.c ****         GPIOx->CFGHR = tmpreg;
 441              		.loc 1 171 22
 442 0256 8327C4FC 		lw	a5,-52(s0)
 443 025a 032744FE 		lw	a4,-28(s0)
 444 025e D8C3     		sw	a4,4(a5)
 445              	.L23:
 172:Drivers/src/ch32v20x_gpio.c ****     }
 173:Drivers/src/ch32v20x_gpio.c **** }
 446              		.loc 1 173 1
 447 0260 0100     		nop
 448 0262 7254     		lw	s0,60(sp)
 449              		.cfi_restore 8
 450              		.cfi_def_cfa 2, 64
 451 0264 2161     		addi	sp,sp,64
 452              		.cfi_def_cfa_offset 0
 453 0266 8280     		jr	ra
 454              		.cfi_endproc
 455              	.LFE18:
 457              		.section	.text.GPIO_StructInit,"ax",@progbits
 458              		.align	1
 459              		.globl	GPIO_StructInit
 461              	GPIO_StructInit:
 462              	.LFB19:
 174:Drivers/src/ch32v20x_gpio.c **** 
 175:Drivers/src/ch32v20x_gpio.c **** /*********************************************************************
 176:Drivers/src/ch32v20x_gpio.c ****  * @fn      GPIO_StructInit
 177:Drivers/src/ch32v20x_gpio.c ****  *
 178:Drivers/src/ch32v20x_gpio.c ****  * @brief   Fills each GPIO_InitStruct member with its default
 179:Drivers/src/ch32v20x_gpio.c ****  *
 180:Drivers/src/ch32v20x_gpio.c ****  * @param   GPIO_InitStruct - pointer to a GPIO_InitTypeDef structure
 181:Drivers/src/ch32v20x_gpio.c ****  *      which will be initialized.
 182:Drivers/src/ch32v20x_gpio.c ****  *
 183:Drivers/src/ch32v20x_gpio.c ****  * @return  none
 184:Drivers/src/ch32v20x_gpio.c ****  */
 185:Drivers/src/ch32v20x_gpio.c **** void GPIO_StructInit(GPIO_InitTypeDef *GPIO_InitStruct)
 186:Drivers/src/ch32v20x_gpio.c **** {
 463              		.loc 1 186 1
 464              		.cfi_startproc
 465 0000 0111     		addi	sp,sp,-32
 466              		.cfi_def_cfa_offset 32
 467 0002 22CE     		sw	s0,28(sp)
 468              		.cfi_offset 8, -4
 469 0004 0010     		addi	s0,sp,32
 470              		.cfi_def_cfa 8, 0
 471 0006 2326A4FE 		sw	a0,-20(s0)
 187:Drivers/src/ch32v20x_gpio.c ****     GPIO_InitStruct->GPIO_Pin = GPIO_Pin_All;
 472              		.loc 1 187 31
 473 000a 8327C4FE 		lw	a5,-20(s0)
 474 000e 7D57     		li	a4,-1
 475 0010 9AA3     		sh	a4,0(a5)
 188:Drivers/src/ch32v20x_gpio.c ****     GPIO_InitStruct->GPIO_Speed = GPIO_Speed_2MHz;
 476              		.loc 1 188 33
 477 0012 8327C4FE 		lw	a5,-20(s0)
GAS LISTING C:\Users\SOLDER~1\AppData\Local\Temp\ccdovRCu.s 			page 13


 478 0016 0947     		li	a4,2
 479 0018 D8C3     		sw	a4,4(a5)
 189:Drivers/src/ch32v20x_gpio.c ****     GPIO_InitStruct->GPIO_Mode = GPIO_Mode_IN_FLOATING;
 480              		.loc 1 189 32
 481 001a 8327C4FE 		lw	a5,-20(s0)
 482 001e 1147     		li	a4,4
 483 0020 98C7     		sw	a4,8(a5)
 190:Drivers/src/ch32v20x_gpio.c **** }
 484              		.loc 1 190 1
 485 0022 0100     		nop
 486 0024 7244     		lw	s0,28(sp)
 487              		.cfi_restore 8
 488              		.cfi_def_cfa 2, 32
 489 0026 0561     		addi	sp,sp,32
 490              		.cfi_def_cfa_offset 0
 491 0028 8280     		jr	ra
 492              		.cfi_endproc
 493              	.LFE19:
 495              		.section	.text.GPIO_ReadInputDataBit,"ax",@progbits
 496              		.align	1
 497              		.globl	GPIO_ReadInputDataBit
 499              	GPIO_ReadInputDataBit:
 500              	.LFB20:
 191:Drivers/src/ch32v20x_gpio.c **** 
 192:Drivers/src/ch32v20x_gpio.c **** /*********************************************************************
 193:Drivers/src/ch32v20x_gpio.c ****  * @fn      GPIO_ReadInputDataBit
 194:Drivers/src/ch32v20x_gpio.c ****  *
 195:Drivers/src/ch32v20x_gpio.c ****  * @brief   GPIOx - where x can be (A..G) to select the GPIO peripheral.
 196:Drivers/src/ch32v20x_gpio.c ****  *
 197:Drivers/src/ch32v20x_gpio.c ****  * @param    GPIO_Pin - specifies the port bit to read.
 198:Drivers/src/ch32v20x_gpio.c ****  *             This parameter can be GPIO_Pin_x where x can be (0..15).
 199:Drivers/src/ch32v20x_gpio.c ****  *
 200:Drivers/src/ch32v20x_gpio.c ****  * @return  The input port pin value.
 201:Drivers/src/ch32v20x_gpio.c ****  */
 202:Drivers/src/ch32v20x_gpio.c **** uint8_t GPIO_ReadInputDataBit(GPIO_TypeDef *GPIOx, uint16_t GPIO_Pin)
 203:Drivers/src/ch32v20x_gpio.c **** {
 501              		.loc 1 203 1
 502              		.cfi_startproc
 503 0000 7971     		addi	sp,sp,-48
 504              		.cfi_def_cfa_offset 48
 505 0002 22D6     		sw	s0,44(sp)
 506              		.cfi_offset 8, -4
 507 0004 0018     		addi	s0,sp,48
 508              		.cfi_def_cfa 8, 0
 509 0006 232EA4FC 		sw	a0,-36(s0)
 510 000a AE87     		mv	a5,a1
 511 000c 231DF4FC 		sh	a5,-38(s0)
 204:Drivers/src/ch32v20x_gpio.c ****     uint8_t bitstatus = 0x00;
 512              		.loc 1 204 13
 513 0010 A30704FE 		sb	zero,-17(s0)
 205:Drivers/src/ch32v20x_gpio.c **** 
 206:Drivers/src/ch32v20x_gpio.c **** #if defined (CH32V20x_D6)
 207:Drivers/src/ch32v20x_gpio.c ****     if((GPIOx == GPIOC) && MCU_Version){
 514              		.loc 1 207 7
 515 0014 0327C4FD 		lw	a4,-36(s0)
 516 0018 B7170140 		li	a5,1073811456
 517 001c 631CF700 		bne	a4,a5,.L26
GAS LISTING C:\Users\SOLDER~1\AppData\Local\Temp\ccdovRCu.s 			page 14


 518              		.loc 1 207 25 discriminator 1
 519 0020 B7070000 		lui	a5,%hi(MCU_Version)
 520 0024 83C70700 		lbu	a5,%lo(MCU_Version)(a5)
 521 0028 91C7     		beq	a5,zero,.L26
 208:Drivers/src/ch32v20x_gpio.c ****         GPIO_Pin = GPIO_Pin >> 13;
 522              		.loc 1 208 18
 523 002a 8357A4FD 		lhu	a5,-38(s0)
 524 002e B583     		srli	a5,a5,13
 525 0030 231DF4FC 		sh	a5,-38(s0)
 526              	.L26:
 209:Drivers/src/ch32v20x_gpio.c ****     }
 210:Drivers/src/ch32v20x_gpio.c **** 
 211:Drivers/src/ch32v20x_gpio.c **** #endif
 212:Drivers/src/ch32v20x_gpio.c **** 
 213:Drivers/src/ch32v20x_gpio.c ****     if((GPIOx->INDR & GPIO_Pin) != (uint32_t)Bit_RESET)
 527              		.loc 1 213 14
 528 0034 8327C4FD 		lw	a5,-36(s0)
 529 0038 9847     		lw	a4,8(a5)
 530              		.loc 1 213 21
 531 003a 8357A4FD 		lhu	a5,-38(s0)
 532 003e F98F     		and	a5,a4,a5
 533              		.loc 1 213 7
 534 0040 89C7     		beq	a5,zero,.L27
 214:Drivers/src/ch32v20x_gpio.c ****     {
 215:Drivers/src/ch32v20x_gpio.c ****         bitstatus = (uint8_t)Bit_SET;
 535              		.loc 1 215 19
 536 0042 8547     		li	a5,1
 537 0044 A307F4FE 		sb	a5,-17(s0)
 538 0048 19A0     		j	.L28
 539              	.L27:
 216:Drivers/src/ch32v20x_gpio.c ****     }
 217:Drivers/src/ch32v20x_gpio.c ****     else
 218:Drivers/src/ch32v20x_gpio.c ****     {
 219:Drivers/src/ch32v20x_gpio.c ****         bitstatus = (uint8_t)Bit_RESET;
 540              		.loc 1 219 19
 541 004a A30704FE 		sb	zero,-17(s0)
 542              	.L28:
 220:Drivers/src/ch32v20x_gpio.c ****     }
 221:Drivers/src/ch32v20x_gpio.c **** 
 222:Drivers/src/ch32v20x_gpio.c ****     return bitstatus;
 543              		.loc 1 222 12
 544 004e 8347F4FE 		lbu	a5,-17(s0)
 223:Drivers/src/ch32v20x_gpio.c **** }
 545              		.loc 1 223 1
 546 0052 3E85     		mv	a0,a5
 547 0054 3254     		lw	s0,44(sp)
 548              		.cfi_restore 8
 549              		.cfi_def_cfa 2, 48
 550 0056 4561     		addi	sp,sp,48
 551              		.cfi_def_cfa_offset 0
 552 0058 8280     		jr	ra
 553              		.cfi_endproc
 554              	.LFE20:
 556              		.section	.text.GPIO_ReadInputData,"ax",@progbits
 557              		.align	1
 558              		.globl	GPIO_ReadInputData
 560              	GPIO_ReadInputData:
GAS LISTING C:\Users\SOLDER~1\AppData\Local\Temp\ccdovRCu.s 			page 15


 561              	.LFB21:
 224:Drivers/src/ch32v20x_gpio.c **** 
 225:Drivers/src/ch32v20x_gpio.c **** /*********************************************************************
 226:Drivers/src/ch32v20x_gpio.c ****  * @fn      GPIO_ReadInputData
 227:Drivers/src/ch32v20x_gpio.c ****  *
 228:Drivers/src/ch32v20x_gpio.c ****  * @brief   Reads the specified GPIO input data port.
 229:Drivers/src/ch32v20x_gpio.c ****  *
 230:Drivers/src/ch32v20x_gpio.c ****  * @param   GPIOx - where x can be (A..G) to select the GPIO peripheral.
 231:Drivers/src/ch32v20x_gpio.c ****  *
 232:Drivers/src/ch32v20x_gpio.c ****  * @return  The output port pin value.
 233:Drivers/src/ch32v20x_gpio.c ****  */
 234:Drivers/src/ch32v20x_gpio.c **** uint16_t GPIO_ReadInputData(GPIO_TypeDef *GPIOx)
 235:Drivers/src/ch32v20x_gpio.c **** {
 562              		.loc 1 235 1
 563              		.cfi_startproc
 564 0000 7971     		addi	sp,sp,-48
 565              		.cfi_def_cfa_offset 48
 566 0002 22D6     		sw	s0,44(sp)
 567              		.cfi_offset 8, -4
 568 0004 0018     		addi	s0,sp,48
 569              		.cfi_def_cfa 8, 0
 570 0006 232EA4FC 		sw	a0,-36(s0)
 236:Drivers/src/ch32v20x_gpio.c ****     uint16_t val;
 237:Drivers/src/ch32v20x_gpio.c **** 
 238:Drivers/src/ch32v20x_gpio.c **** #if defined (CH32V20x_D6)
 239:Drivers/src/ch32v20x_gpio.c ****     if((GPIOx == GPIOC) && MCU_Version){
 571              		.loc 1 239 7
 572 000a 0327C4FD 		lw	a4,-36(s0)
 573 000e B7170140 		li	a5,1073811456
 574 0012 6310F702 		bne	a4,a5,.L31
 575              		.loc 1 239 25 discriminator 1
 576 0016 B7070000 		lui	a5,%hi(MCU_Version)
 577 001a 83C70700 		lbu	a5,%lo(MCU_Version)(a5)
 578 001e 91CB     		beq	a5,zero,.L31
 240:Drivers/src/ch32v20x_gpio.c ****         val = ( uint16_t )(GPIOx->INDR << 13);
 579              		.loc 1 240 33
 580 0020 8327C4FD 		lw	a5,-36(s0)
 581 0024 9C47     		lw	a5,8(a5)
 582              		.loc 1 240 15
 583 0026 C207     		slli	a5,a5,16
 584 0028 C183     		srli	a5,a5,16
 585              		.loc 1 240 13
 586 002a B607     		slli	a5,a5,13
 587 002c 2317F4FE 		sh	a5,-18(s0)
 588 0030 31A0     		j	.L32
 589              	.L31:
 241:Drivers/src/ch32v20x_gpio.c ****     }
 242:Drivers/src/ch32v20x_gpio.c ****     else{
 243:Drivers/src/ch32v20x_gpio.c ****         val = ( uint16_t )GPIOx->INDR;
 590              		.loc 1 243 32
 591 0032 8327C4FD 		lw	a5,-36(s0)
 592 0036 9C47     		lw	a5,8(a5)
 593              		.loc 1 243 13
 594 0038 2317F4FE 		sh	a5,-18(s0)
 595              	.L32:
 244:Drivers/src/ch32v20x_gpio.c ****     }
 245:Drivers/src/ch32v20x_gpio.c **** 
GAS LISTING C:\Users\SOLDER~1\AppData\Local\Temp\ccdovRCu.s 			page 16


 246:Drivers/src/ch32v20x_gpio.c **** #else
 247:Drivers/src/ch32v20x_gpio.c ****     val = ( uint16_t )GPIOx->INDR;
 248:Drivers/src/ch32v20x_gpio.c **** #endif
 249:Drivers/src/ch32v20x_gpio.c **** 
 250:Drivers/src/ch32v20x_gpio.c **** return ( val );
 596              		.loc 1 250 8
 597 003c 8357E4FE 		lhu	a5,-18(s0)
 251:Drivers/src/ch32v20x_gpio.c **** }
 598              		.loc 1 251 1
 599 0040 3E85     		mv	a0,a5
 600 0042 3254     		lw	s0,44(sp)
 601              		.cfi_restore 8
 602              		.cfi_def_cfa 2, 48
 603 0044 4561     		addi	sp,sp,48
 604              		.cfi_def_cfa_offset 0
 605 0046 8280     		jr	ra
 606              		.cfi_endproc
 607              	.LFE21:
 609              		.section	.text.GPIO_ReadOutputDataBit,"ax",@progbits
 610              		.align	1
 611              		.globl	GPIO_ReadOutputDataBit
 613              	GPIO_ReadOutputDataBit:
 614              	.LFB22:
 252:Drivers/src/ch32v20x_gpio.c **** 
 253:Drivers/src/ch32v20x_gpio.c **** /*********************************************************************
 254:Drivers/src/ch32v20x_gpio.c ****  * @fn      GPIO_ReadOutputDataBit
 255:Drivers/src/ch32v20x_gpio.c ****  *
 256:Drivers/src/ch32v20x_gpio.c ****  * @brief   Reads the specified output data port bit.
 257:Drivers/src/ch32v20x_gpio.c ****  *
 258:Drivers/src/ch32v20x_gpio.c ****  * @param   GPIOx - where x can be (A..G) to select the GPIO peripheral.
 259:Drivers/src/ch32v20x_gpio.c ****  *          GPIO_Pin - specifies the port bit to read.
 260:Drivers/src/ch32v20x_gpio.c ****  *            This parameter can be GPIO_Pin_x where x can be (0..15).
 261:Drivers/src/ch32v20x_gpio.c ****  *
 262:Drivers/src/ch32v20x_gpio.c ****  * @return  none
 263:Drivers/src/ch32v20x_gpio.c ****  */
 264:Drivers/src/ch32v20x_gpio.c **** uint8_t GPIO_ReadOutputDataBit(GPIO_TypeDef *GPIOx, uint16_t GPIO_Pin)
 265:Drivers/src/ch32v20x_gpio.c **** {
 615              		.loc 1 265 1
 616              		.cfi_startproc
 617 0000 7971     		addi	sp,sp,-48
 618              		.cfi_def_cfa_offset 48
 619 0002 22D6     		sw	s0,44(sp)
 620              		.cfi_offset 8, -4
 621 0004 0018     		addi	s0,sp,48
 622              		.cfi_def_cfa 8, 0
 623 0006 232EA4FC 		sw	a0,-36(s0)
 624 000a AE87     		mv	a5,a1
 625 000c 231DF4FC 		sh	a5,-38(s0)
 266:Drivers/src/ch32v20x_gpio.c ****     uint8_t bitstatus = 0x00;
 626              		.loc 1 266 13
 627 0010 A30704FE 		sb	zero,-17(s0)
 267:Drivers/src/ch32v20x_gpio.c **** 
 268:Drivers/src/ch32v20x_gpio.c **** #if defined (CH32V20x_D6)
 269:Drivers/src/ch32v20x_gpio.c ****     if((GPIOx == GPIOC) && MCU_Version){
 628              		.loc 1 269 7
 629 0014 0327C4FD 		lw	a4,-36(s0)
 630 0018 B7170140 		li	a5,1073811456
GAS LISTING C:\Users\SOLDER~1\AppData\Local\Temp\ccdovRCu.s 			page 17


 631 001c 631CF700 		bne	a4,a5,.L35
 632              		.loc 1 269 25 discriminator 1
 633 0020 B7070000 		lui	a5,%hi(MCU_Version)
 634 0024 83C70700 		lbu	a5,%lo(MCU_Version)(a5)
 635 0028 91C7     		beq	a5,zero,.L35
 270:Drivers/src/ch32v20x_gpio.c ****         GPIO_Pin = GPIO_Pin >> 13;
 636              		.loc 1 270 18
 637 002a 8357A4FD 		lhu	a5,-38(s0)
 638 002e B583     		srli	a5,a5,13
 639 0030 231DF4FC 		sh	a5,-38(s0)
 640              	.L35:
 271:Drivers/src/ch32v20x_gpio.c ****     }
 272:Drivers/src/ch32v20x_gpio.c **** 
 273:Drivers/src/ch32v20x_gpio.c **** #endif
 274:Drivers/src/ch32v20x_gpio.c **** 
 275:Drivers/src/ch32v20x_gpio.c ****     if((GPIOx->OUTDR & GPIO_Pin) != (uint32_t)Bit_RESET)
 641              		.loc 1 275 14
 642 0034 8327C4FD 		lw	a5,-36(s0)
 643 0038 D847     		lw	a4,12(a5)
 644              		.loc 1 275 22
 645 003a 8357A4FD 		lhu	a5,-38(s0)
 646 003e F98F     		and	a5,a4,a5
 647              		.loc 1 275 7
 648 0040 89C7     		beq	a5,zero,.L36
 276:Drivers/src/ch32v20x_gpio.c ****     {
 277:Drivers/src/ch32v20x_gpio.c ****         bitstatus = (uint8_t)Bit_SET;
 649              		.loc 1 277 19
 650 0042 8547     		li	a5,1
 651 0044 A307F4FE 		sb	a5,-17(s0)
 652 0048 19A0     		j	.L37
 653              	.L36:
 278:Drivers/src/ch32v20x_gpio.c ****     }
 279:Drivers/src/ch32v20x_gpio.c ****     else
 280:Drivers/src/ch32v20x_gpio.c ****     {
 281:Drivers/src/ch32v20x_gpio.c ****         bitstatus = (uint8_t)Bit_RESET;
 654              		.loc 1 281 19
 655 004a A30704FE 		sb	zero,-17(s0)
 656              	.L37:
 282:Drivers/src/ch32v20x_gpio.c ****     }
 283:Drivers/src/ch32v20x_gpio.c **** 
 284:Drivers/src/ch32v20x_gpio.c ****     return bitstatus;
 657              		.loc 1 284 12
 658 004e 8347F4FE 		lbu	a5,-17(s0)
 285:Drivers/src/ch32v20x_gpio.c **** }
 659              		.loc 1 285 1
 660 0052 3E85     		mv	a0,a5
 661 0054 3254     		lw	s0,44(sp)
 662              		.cfi_restore 8
 663              		.cfi_def_cfa 2, 48
 664 0056 4561     		addi	sp,sp,48
 665              		.cfi_def_cfa_offset 0
 666 0058 8280     		jr	ra
 667              		.cfi_endproc
 668              	.LFE22:
 670              		.section	.text.GPIO_ReadOutputData,"ax",@progbits
 671              		.align	1
 672              		.globl	GPIO_ReadOutputData
GAS LISTING C:\Users\SOLDER~1\AppData\Local\Temp\ccdovRCu.s 			page 18


 674              	GPIO_ReadOutputData:
 675              	.LFB23:
 286:Drivers/src/ch32v20x_gpio.c **** 
 287:Drivers/src/ch32v20x_gpio.c **** /*********************************************************************
 288:Drivers/src/ch32v20x_gpio.c ****  * @fn      GPIO_ReadOutputData
 289:Drivers/src/ch32v20x_gpio.c ****  *
 290:Drivers/src/ch32v20x_gpio.c ****  * @brief   Reads the specified GPIO output data port.
 291:Drivers/src/ch32v20x_gpio.c ****  *
 292:Drivers/src/ch32v20x_gpio.c ****  * @param   GPIOx - where x can be (A..G) to select the GPIO peripheral.
 293:Drivers/src/ch32v20x_gpio.c ****  *
 294:Drivers/src/ch32v20x_gpio.c ****  * @return  GPIO output port pin value.
 295:Drivers/src/ch32v20x_gpio.c ****  */
 296:Drivers/src/ch32v20x_gpio.c **** uint16_t GPIO_ReadOutputData(GPIO_TypeDef *GPIOx)
 297:Drivers/src/ch32v20x_gpio.c **** {
 676              		.loc 1 297 1
 677              		.cfi_startproc
 678 0000 7971     		addi	sp,sp,-48
 679              		.cfi_def_cfa_offset 48
 680 0002 22D6     		sw	s0,44(sp)
 681              		.cfi_offset 8, -4
 682 0004 0018     		addi	s0,sp,48
 683              		.cfi_def_cfa 8, 0
 684 0006 232EA4FC 		sw	a0,-36(s0)
 298:Drivers/src/ch32v20x_gpio.c ****     uint16_t val;
 299:Drivers/src/ch32v20x_gpio.c **** 
 300:Drivers/src/ch32v20x_gpio.c **** #if defined (CH32V20x_D6)
 301:Drivers/src/ch32v20x_gpio.c ****     if((GPIOx == GPIOC) && MCU_Version){
 685              		.loc 1 301 7
 686 000a 0327C4FD 		lw	a4,-36(s0)
 687 000e B7170140 		li	a5,1073811456
 688 0012 6310F702 		bne	a4,a5,.L40
 689              		.loc 1 301 25 discriminator 1
 690 0016 B7070000 		lui	a5,%hi(MCU_Version)
 691 001a 83C70700 		lbu	a5,%lo(MCU_Version)(a5)
 692 001e 91CB     		beq	a5,zero,.L40
 302:Drivers/src/ch32v20x_gpio.c ****         val = ( uint16_t )(GPIOx->OUTDR << 13);
 693              		.loc 1 302 33
 694 0020 8327C4FD 		lw	a5,-36(s0)
 695 0024 DC47     		lw	a5,12(a5)
 696              		.loc 1 302 15
 697 0026 C207     		slli	a5,a5,16
 698 0028 C183     		srli	a5,a5,16
 699              		.loc 1 302 13
 700 002a B607     		slli	a5,a5,13
 701 002c 2317F4FE 		sh	a5,-18(s0)
 702 0030 31A0     		j	.L41
 703              	.L40:
 303:Drivers/src/ch32v20x_gpio.c ****     }
 304:Drivers/src/ch32v20x_gpio.c ****     else{
 305:Drivers/src/ch32v20x_gpio.c ****         val = ( uint16_t )GPIOx->OUTDR;
 704              		.loc 1 305 32
 705 0032 8327C4FD 		lw	a5,-36(s0)
 706 0036 DC47     		lw	a5,12(a5)
 707              		.loc 1 305 13
 708 0038 2317F4FE 		sh	a5,-18(s0)
 709              	.L41:
 306:Drivers/src/ch32v20x_gpio.c ****     }
GAS LISTING C:\Users\SOLDER~1\AppData\Local\Temp\ccdovRCu.s 			page 19


 307:Drivers/src/ch32v20x_gpio.c **** 
 308:Drivers/src/ch32v20x_gpio.c **** #else
 309:Drivers/src/ch32v20x_gpio.c ****     val = ( uint16_t )GPIOx->OUTDR;
 310:Drivers/src/ch32v20x_gpio.c **** #endif
 311:Drivers/src/ch32v20x_gpio.c **** 
 312:Drivers/src/ch32v20x_gpio.c ****     return ( val );
 710              		.loc 1 312 12
 711 003c 8357E4FE 		lhu	a5,-18(s0)
 313:Drivers/src/ch32v20x_gpio.c **** }
 712              		.loc 1 313 1
 713 0040 3E85     		mv	a0,a5
 714 0042 3254     		lw	s0,44(sp)
 715              		.cfi_restore 8
 716              		.cfi_def_cfa 2, 48
 717 0044 4561     		addi	sp,sp,48
 718              		.cfi_def_cfa_offset 0
 719 0046 8280     		jr	ra
 720              		.cfi_endproc
 721              	.LFE23:
 723              		.section	.text.GPIO_SetBits,"ax",@progbits
 724              		.align	1
 725              		.globl	GPIO_SetBits
 727              	GPIO_SetBits:
 728              	.LFB24:
 314:Drivers/src/ch32v20x_gpio.c **** 
 315:Drivers/src/ch32v20x_gpio.c **** /*********************************************************************
 316:Drivers/src/ch32v20x_gpio.c ****  * @fn      GPIO_SetBits
 317:Drivers/src/ch32v20x_gpio.c ****  *
 318:Drivers/src/ch32v20x_gpio.c ****  * @brief   Sets the selected data port bits.
 319:Drivers/src/ch32v20x_gpio.c ****  *
 320:Drivers/src/ch32v20x_gpio.c ****  * @param   GPIOx - where x can be (A..G) to select the GPIO peripheral.
 321:Drivers/src/ch32v20x_gpio.c ****  *          GPIO_Pin - specifies the port bits to be written.
 322:Drivers/src/ch32v20x_gpio.c ****  *            This parameter can be any combination of GPIO_Pin_x where x can be (0..15).
 323:Drivers/src/ch32v20x_gpio.c ****  *
 324:Drivers/src/ch32v20x_gpio.c ****  * @return  none
 325:Drivers/src/ch32v20x_gpio.c ****  */
 326:Drivers/src/ch32v20x_gpio.c **** void GPIO_SetBits(GPIO_TypeDef *GPIOx, uint16_t GPIO_Pin)
 327:Drivers/src/ch32v20x_gpio.c **** {
 729              		.loc 1 327 1
 730              		.cfi_startproc
 731 0000 0111     		addi	sp,sp,-32
 732              		.cfi_def_cfa_offset 32
 733 0002 22CE     		sw	s0,28(sp)
 734              		.cfi_offset 8, -4
 735 0004 0010     		addi	s0,sp,32
 736              		.cfi_def_cfa 8, 0
 737 0006 2326A4FE 		sw	a0,-20(s0)
 738 000a AE87     		mv	a5,a1
 739 000c 2315F4FE 		sh	a5,-22(s0)
 328:Drivers/src/ch32v20x_gpio.c **** #if defined (CH32V20x_D6)
 329:Drivers/src/ch32v20x_gpio.c ****     if((GPIOx == GPIOC) && MCU_Version){
 740              		.loc 1 329 7
 741 0010 0327C4FE 		lw	a4,-20(s0)
 742 0014 B7170140 		li	a5,1073811456
 743 0018 631CF700 		bne	a4,a5,.L44
 744              		.loc 1 329 25 discriminator 1
 745 001c B7070000 		lui	a5,%hi(MCU_Version)
GAS LISTING C:\Users\SOLDER~1\AppData\Local\Temp\ccdovRCu.s 			page 20


 746 0020 83C70700 		lbu	a5,%lo(MCU_Version)(a5)
 747 0024 91C7     		beq	a5,zero,.L44
 330:Drivers/src/ch32v20x_gpio.c ****         GPIO_Pin = GPIO_Pin >> 13;
 748              		.loc 1 330 18
 749 0026 8357A4FE 		lhu	a5,-22(s0)
 750 002a B583     		srli	a5,a5,13
 751 002c 2315F4FE 		sh	a5,-22(s0)
 752              	.L44:
 331:Drivers/src/ch32v20x_gpio.c ****     }
 332:Drivers/src/ch32v20x_gpio.c **** 
 333:Drivers/src/ch32v20x_gpio.c **** #endif
 334:Drivers/src/ch32v20x_gpio.c **** 
 335:Drivers/src/ch32v20x_gpio.c ****     GPIOx->BSHR = GPIO_Pin;
 753              		.loc 1 335 17
 754 0030 0357A4FE 		lhu	a4,-22(s0)
 755 0034 8327C4FE 		lw	a5,-20(s0)
 756 0038 98CB     		sw	a4,16(a5)
 336:Drivers/src/ch32v20x_gpio.c **** }
 757              		.loc 1 336 1
 758 003a 0100     		nop
 759 003c 7244     		lw	s0,28(sp)
 760              		.cfi_restore 8
 761              		.cfi_def_cfa 2, 32
 762 003e 0561     		addi	sp,sp,32
 763              		.cfi_def_cfa_offset 0
 764 0040 8280     		jr	ra
 765              		.cfi_endproc
 766              	.LFE24:
 768              		.section	.text.GPIO_ResetBits,"ax",@progbits
 769              		.align	1
 770              		.globl	GPIO_ResetBits
 772              	GPIO_ResetBits:
 773              	.LFB25:
 337:Drivers/src/ch32v20x_gpio.c **** 
 338:Drivers/src/ch32v20x_gpio.c **** /*********************************************************************
 339:Drivers/src/ch32v20x_gpio.c ****  * @fn      GPIO_ResetBits
 340:Drivers/src/ch32v20x_gpio.c ****  *
 341:Drivers/src/ch32v20x_gpio.c ****  * @brief   Clears the selected data port bits.
 342:Drivers/src/ch32v20x_gpio.c ****  *
 343:Drivers/src/ch32v20x_gpio.c ****  * @param   GPIOx - where x can be (A..G) to select the GPIO peripheral.
 344:Drivers/src/ch32v20x_gpio.c ****  *          GPIO_Pin - specifies the port bits to be written.
 345:Drivers/src/ch32v20x_gpio.c ****  *            This parameter can be any combination of GPIO_Pin_x where x can be (0..15).
 346:Drivers/src/ch32v20x_gpio.c ****  *
 347:Drivers/src/ch32v20x_gpio.c ****  * @return  none
 348:Drivers/src/ch32v20x_gpio.c ****  */
 349:Drivers/src/ch32v20x_gpio.c **** void GPIO_ResetBits(GPIO_TypeDef *GPIOx, uint16_t GPIO_Pin)
 350:Drivers/src/ch32v20x_gpio.c **** {
 774              		.loc 1 350 1
 775              		.cfi_startproc
 776 0000 0111     		addi	sp,sp,-32
 777              		.cfi_def_cfa_offset 32
 778 0002 22CE     		sw	s0,28(sp)
 779              		.cfi_offset 8, -4
 780 0004 0010     		addi	s0,sp,32
 781              		.cfi_def_cfa 8, 0
 782 0006 2326A4FE 		sw	a0,-20(s0)
 783 000a AE87     		mv	a5,a1
GAS LISTING C:\Users\SOLDER~1\AppData\Local\Temp\ccdovRCu.s 			page 21


 784 000c 2315F4FE 		sh	a5,-22(s0)
 351:Drivers/src/ch32v20x_gpio.c **** #if defined (CH32V20x_D6)
 352:Drivers/src/ch32v20x_gpio.c ****     if((GPIOx == GPIOC) && MCU_Version){
 785              		.loc 1 352 7
 786 0010 0327C4FE 		lw	a4,-20(s0)
 787 0014 B7170140 		li	a5,1073811456
 788 0018 631CF700 		bne	a4,a5,.L46
 789              		.loc 1 352 25 discriminator 1
 790 001c B7070000 		lui	a5,%hi(MCU_Version)
 791 0020 83C70700 		lbu	a5,%lo(MCU_Version)(a5)
 792 0024 91C7     		beq	a5,zero,.L46
 353:Drivers/src/ch32v20x_gpio.c ****         GPIO_Pin = GPIO_Pin >> 13;
 793              		.loc 1 353 18
 794 0026 8357A4FE 		lhu	a5,-22(s0)
 795 002a B583     		srli	a5,a5,13
 796 002c 2315F4FE 		sh	a5,-22(s0)
 797              	.L46:
 354:Drivers/src/ch32v20x_gpio.c ****     }
 355:Drivers/src/ch32v20x_gpio.c **** 
 356:Drivers/src/ch32v20x_gpio.c **** #endif
 357:Drivers/src/ch32v20x_gpio.c **** 
 358:Drivers/src/ch32v20x_gpio.c ****     GPIOx->BCR = GPIO_Pin;
 798              		.loc 1 358 16
 799 0030 0357A4FE 		lhu	a4,-22(s0)
 800 0034 8327C4FE 		lw	a5,-20(s0)
 801 0038 D8CB     		sw	a4,20(a5)
 359:Drivers/src/ch32v20x_gpio.c **** }
 802              		.loc 1 359 1
 803 003a 0100     		nop
 804 003c 7244     		lw	s0,28(sp)
 805              		.cfi_restore 8
 806              		.cfi_def_cfa 2, 32
 807 003e 0561     		addi	sp,sp,32
 808              		.cfi_def_cfa_offset 0
 809 0040 8280     		jr	ra
 810              		.cfi_endproc
 811              	.LFE25:
 813              		.section	.text.GPIO_WriteBit,"ax",@progbits
 814              		.align	1
 815              		.globl	GPIO_WriteBit
 817              	GPIO_WriteBit:
 818              	.LFB26:
 360:Drivers/src/ch32v20x_gpio.c **** 
 361:Drivers/src/ch32v20x_gpio.c **** /*********************************************************************
 362:Drivers/src/ch32v20x_gpio.c ****  * @fn      GPIO_WriteBit
 363:Drivers/src/ch32v20x_gpio.c ****  *
 364:Drivers/src/ch32v20x_gpio.c ****  * @brief   Sets or clears the selected data port bit.
 365:Drivers/src/ch32v20x_gpio.c ****  *
 366:Drivers/src/ch32v20x_gpio.c ****  * @param   GPIO_Pin - specifies the port bit to be written.
 367:Drivers/src/ch32v20x_gpio.c ****  *            This parameter can be one of GPIO_Pin_x where x can be (0..15).
 368:Drivers/src/ch32v20x_gpio.c ****  *          BitVal - specifies the value to be written to the selected bit.
 369:Drivers/src/ch32v20x_gpio.c ****  *            Bit_SetL - to clear the port pin.
 370:Drivers/src/ch32v20x_gpio.c ****  *            Bit_SetH - to set the port pin.
 371:Drivers/src/ch32v20x_gpio.c ****  *
 372:Drivers/src/ch32v20x_gpio.c ****  * @return  none
 373:Drivers/src/ch32v20x_gpio.c ****  */
 374:Drivers/src/ch32v20x_gpio.c **** void GPIO_WriteBit(GPIO_TypeDef *GPIOx, uint16_t GPIO_Pin, BitAction BitVal)
GAS LISTING C:\Users\SOLDER~1\AppData\Local\Temp\ccdovRCu.s 			page 22


 375:Drivers/src/ch32v20x_gpio.c **** {
 819              		.loc 1 375 1
 820              		.cfi_startproc
 821 0000 0111     		addi	sp,sp,-32
 822              		.cfi_def_cfa_offset 32
 823 0002 22CE     		sw	s0,28(sp)
 824              		.cfi_offset 8, -4
 825 0004 0010     		addi	s0,sp,32
 826              		.cfi_def_cfa 8, 0
 827 0006 2326A4FE 		sw	a0,-20(s0)
 828 000a AE87     		mv	a5,a1
 829 000c 2322C4FE 		sw	a2,-28(s0)
 830 0010 2315F4FE 		sh	a5,-22(s0)
 376:Drivers/src/ch32v20x_gpio.c **** #if defined (CH32V20x_D6)
 377:Drivers/src/ch32v20x_gpio.c ****     if((GPIOx == GPIOC) && MCU_Version){
 831              		.loc 1 377 7
 832 0014 0327C4FE 		lw	a4,-20(s0)
 833 0018 B7170140 		li	a5,1073811456
 834 001c 631CF700 		bne	a4,a5,.L48
 835              		.loc 1 377 25 discriminator 1
 836 0020 B7070000 		lui	a5,%hi(MCU_Version)
 837 0024 83C70700 		lbu	a5,%lo(MCU_Version)(a5)
 838 0028 91C7     		beq	a5,zero,.L48
 378:Drivers/src/ch32v20x_gpio.c ****         GPIO_Pin = GPIO_Pin >> 13;
 839              		.loc 1 378 18
 840 002a 8357A4FE 		lhu	a5,-22(s0)
 841 002e B583     		srli	a5,a5,13
 842 0030 2315F4FE 		sh	a5,-22(s0)
 843              	.L48:
 379:Drivers/src/ch32v20x_gpio.c ****     }
 380:Drivers/src/ch32v20x_gpio.c **** 
 381:Drivers/src/ch32v20x_gpio.c **** #endif
 382:Drivers/src/ch32v20x_gpio.c **** 
 383:Drivers/src/ch32v20x_gpio.c ****     if(BitVal != Bit_RESET)
 844              		.loc 1 383 7
 845 0034 832744FE 		lw	a5,-28(s0)
 846 0038 99C7     		beq	a5,zero,.L49
 384:Drivers/src/ch32v20x_gpio.c ****     {
 385:Drivers/src/ch32v20x_gpio.c ****         GPIOx->BSHR = GPIO_Pin;
 847              		.loc 1 385 21
 848 003a 0357A4FE 		lhu	a4,-22(s0)
 849 003e 8327C4FE 		lw	a5,-20(s0)
 850 0042 98CB     		sw	a4,16(a5)
 386:Drivers/src/ch32v20x_gpio.c ****     }
 387:Drivers/src/ch32v20x_gpio.c ****     else
 388:Drivers/src/ch32v20x_gpio.c ****     {
 389:Drivers/src/ch32v20x_gpio.c ****         GPIOx->BCR = GPIO_Pin;
 390:Drivers/src/ch32v20x_gpio.c ****     }
 391:Drivers/src/ch32v20x_gpio.c **** }
 851              		.loc 1 391 1
 852 0044 31A0     		j	.L51
 853              	.L49:
 389:Drivers/src/ch32v20x_gpio.c ****     }
 854              		.loc 1 389 20
 855 0046 0357A4FE 		lhu	a4,-22(s0)
 856 004a 8327C4FE 		lw	a5,-20(s0)
 857 004e D8CB     		sw	a4,20(a5)
GAS LISTING C:\Users\SOLDER~1\AppData\Local\Temp\ccdovRCu.s 			page 23


 858              	.L51:
 859              		.loc 1 391 1
 860 0050 0100     		nop
 861 0052 7244     		lw	s0,28(sp)
 862              		.cfi_restore 8
 863              		.cfi_def_cfa 2, 32
 864 0054 0561     		addi	sp,sp,32
 865              		.cfi_def_cfa_offset 0
 866 0056 8280     		jr	ra
 867              		.cfi_endproc
 868              	.LFE26:
 870              		.section	.text.GPIO_Write,"ax",@progbits
 871              		.align	1
 872              		.globl	GPIO_Write
 874              	GPIO_Write:
 875              	.LFB27:
 392:Drivers/src/ch32v20x_gpio.c **** 
 393:Drivers/src/ch32v20x_gpio.c **** /*********************************************************************
 394:Drivers/src/ch32v20x_gpio.c ****  * @fn      GPIO_Write
 395:Drivers/src/ch32v20x_gpio.c ****  *
 396:Drivers/src/ch32v20x_gpio.c ****  * @brief   Writes data to the specified GPIO data port.
 397:Drivers/src/ch32v20x_gpio.c ****  *
 398:Drivers/src/ch32v20x_gpio.c ****  * @param   GPIOx - where x can be (A..G) to select the GPIO peripheral.
 399:Drivers/src/ch32v20x_gpio.c ****  *          PortVal - specifies the value to be written to the port output data register.
 400:Drivers/src/ch32v20x_gpio.c ****  *
 401:Drivers/src/ch32v20x_gpio.c ****  * @return  none
 402:Drivers/src/ch32v20x_gpio.c ****  */
 403:Drivers/src/ch32v20x_gpio.c **** void GPIO_Write(GPIO_TypeDef *GPIOx, uint16_t PortVal)
 404:Drivers/src/ch32v20x_gpio.c **** {
 876              		.loc 1 404 1
 877              		.cfi_startproc
 878 0000 0111     		addi	sp,sp,-32
 879              		.cfi_def_cfa_offset 32
 880 0002 22CE     		sw	s0,28(sp)
 881              		.cfi_offset 8, -4
 882 0004 0010     		addi	s0,sp,32
 883              		.cfi_def_cfa 8, 0
 884 0006 2326A4FE 		sw	a0,-20(s0)
 885 000a AE87     		mv	a5,a1
 886 000c 2315F4FE 		sh	a5,-22(s0)
 405:Drivers/src/ch32v20x_gpio.c **** #if defined (CH32V20x_D6)
 406:Drivers/src/ch32v20x_gpio.c ****     if((GPIOx == GPIOC) && MCU_Version){
 887              		.loc 1 406 7
 888 0010 0327C4FE 		lw	a4,-20(s0)
 889 0014 B7170140 		li	a5,1073811456
 890 0018 631CF700 		bne	a4,a5,.L53
 891              		.loc 1 406 25 discriminator 1
 892 001c B7070000 		lui	a5,%hi(MCU_Version)
 893 0020 83C70700 		lbu	a5,%lo(MCU_Version)(a5)
 894 0024 91C7     		beq	a5,zero,.L53
 407:Drivers/src/ch32v20x_gpio.c ****         PortVal = PortVal >> 13;
 895              		.loc 1 407 17
 896 0026 8357A4FE 		lhu	a5,-22(s0)
 897 002a B583     		srli	a5,a5,13
 898 002c 2315F4FE 		sh	a5,-22(s0)
 899              	.L53:
 408:Drivers/src/ch32v20x_gpio.c ****     }
GAS LISTING C:\Users\SOLDER~1\AppData\Local\Temp\ccdovRCu.s 			page 24


 409:Drivers/src/ch32v20x_gpio.c **** 
 410:Drivers/src/ch32v20x_gpio.c **** #endif
 411:Drivers/src/ch32v20x_gpio.c **** 
 412:Drivers/src/ch32v20x_gpio.c ****     GPIOx->OUTDR = PortVal;
 900              		.loc 1 412 18
 901 0030 0357A4FE 		lhu	a4,-22(s0)
 902 0034 8327C4FE 		lw	a5,-20(s0)
 903 0038 D8C7     		sw	a4,12(a5)
 413:Drivers/src/ch32v20x_gpio.c **** }
 904              		.loc 1 413 1
 905 003a 0100     		nop
 906 003c 7244     		lw	s0,28(sp)
 907              		.cfi_restore 8
 908              		.cfi_def_cfa 2, 32
 909 003e 0561     		addi	sp,sp,32
 910              		.cfi_def_cfa_offset 0
 911 0040 8280     		jr	ra
 912              		.cfi_endproc
 913              	.LFE27:
 915              		.section	.text.GPIO_PinLockConfig,"ax",@progbits
 916              		.align	1
 917              		.globl	GPIO_PinLockConfig
 919              	GPIO_PinLockConfig:
 920              	.LFB28:
 414:Drivers/src/ch32v20x_gpio.c **** 
 415:Drivers/src/ch32v20x_gpio.c **** /*********************************************************************
 416:Drivers/src/ch32v20x_gpio.c ****  * @fn      GPIO_PinLockConfig
 417:Drivers/src/ch32v20x_gpio.c ****  *
 418:Drivers/src/ch32v20x_gpio.c ****  * @brief   Locks GPIO Pins configuration registers.
 419:Drivers/src/ch32v20x_gpio.c ****  *
 420:Drivers/src/ch32v20x_gpio.c ****  * @param   GPIOx - where x can be (A..G) to select the GPIO peripheral.
 421:Drivers/src/ch32v20x_gpio.c ****  *          GPIO_Pin - specifies the port bit to be written.
 422:Drivers/src/ch32v20x_gpio.c ****  *            This parameter can be any combination of GPIO_Pin_x where x can be (0..15).
 423:Drivers/src/ch32v20x_gpio.c ****  *
 424:Drivers/src/ch32v20x_gpio.c ****  * @return  none
 425:Drivers/src/ch32v20x_gpio.c ****  */
 426:Drivers/src/ch32v20x_gpio.c **** void GPIO_PinLockConfig(GPIO_TypeDef *GPIOx, uint16_t GPIO_Pin)
 427:Drivers/src/ch32v20x_gpio.c **** {
 921              		.loc 1 427 1
 922              		.cfi_startproc
 923 0000 7971     		addi	sp,sp,-48
 924              		.cfi_def_cfa_offset 48
 925 0002 22D6     		sw	s0,44(sp)
 926              		.cfi_offset 8, -4
 927 0004 0018     		addi	s0,sp,48
 928              		.cfi_def_cfa 8, 0
 929 0006 232EA4FC 		sw	a0,-36(s0)
 930 000a AE87     		mv	a5,a1
 931 000c 231DF4FC 		sh	a5,-38(s0)
 428:Drivers/src/ch32v20x_gpio.c ****     uint32_t tmp = 0x00010000;
 932              		.loc 1 428 14
 933 0010 C167     		li	a5,65536
 934 0012 2326F4FE 		sw	a5,-20(s0)
 429:Drivers/src/ch32v20x_gpio.c **** 
 430:Drivers/src/ch32v20x_gpio.c **** #if defined (CH32V20x_D6)
 431:Drivers/src/ch32v20x_gpio.c ****     if((GPIOx == GPIOC) && MCU_Version){
 935              		.loc 1 431 7
GAS LISTING C:\Users\SOLDER~1\AppData\Local\Temp\ccdovRCu.s 			page 25


 936 0016 0327C4FD 		lw	a4,-36(s0)
 937 001a B7170140 		li	a5,1073811456
 938 001e 631CF700 		bne	a4,a5,.L55
 939              		.loc 1 431 25 discriminator 1
 940 0022 B7070000 		lui	a5,%hi(MCU_Version)
 941 0026 83C70700 		lbu	a5,%lo(MCU_Version)(a5)
 942 002a 91C7     		beq	a5,zero,.L55
 432:Drivers/src/ch32v20x_gpio.c ****         GPIO_Pin = GPIO_Pin >> 13;
 943              		.loc 1 432 18
 944 002c 8357A4FD 		lhu	a5,-38(s0)
 945 0030 B583     		srli	a5,a5,13
 946 0032 231DF4FC 		sh	a5,-38(s0)
 947              	.L55:
 433:Drivers/src/ch32v20x_gpio.c ****     }
 434:Drivers/src/ch32v20x_gpio.c **** 
 435:Drivers/src/ch32v20x_gpio.c **** #endif
 436:Drivers/src/ch32v20x_gpio.c **** 
 437:Drivers/src/ch32v20x_gpio.c ****     tmp |= GPIO_Pin;
 948              		.loc 1 437 9
 949 0036 8357A4FD 		lhu	a5,-38(s0)
 950 003a 0327C4FE 		lw	a4,-20(s0)
 951 003e D98F     		or	a5,a4,a5
 952 0040 2326F4FE 		sw	a5,-20(s0)
 438:Drivers/src/ch32v20x_gpio.c ****     GPIOx->LCKR = tmp;
 953              		.loc 1 438 17
 954 0044 8327C4FD 		lw	a5,-36(s0)
 955 0048 0327C4FE 		lw	a4,-20(s0)
 956 004c 98CF     		sw	a4,24(a5)
 439:Drivers/src/ch32v20x_gpio.c ****     GPIOx->LCKR = GPIO_Pin;
 957              		.loc 1 439 17
 958 004e 0357A4FD 		lhu	a4,-38(s0)
 959 0052 8327C4FD 		lw	a5,-36(s0)
 960 0056 98CF     		sw	a4,24(a5)
 440:Drivers/src/ch32v20x_gpio.c ****     GPIOx->LCKR = tmp;
 961              		.loc 1 440 17
 962 0058 8327C4FD 		lw	a5,-36(s0)
 963 005c 0327C4FE 		lw	a4,-20(s0)
 964 0060 98CF     		sw	a4,24(a5)
 441:Drivers/src/ch32v20x_gpio.c ****     tmp = GPIOx->LCKR;
 965              		.loc 1 441 9
 966 0062 8327C4FD 		lw	a5,-36(s0)
 967 0066 9C4F     		lw	a5,24(a5)
 968 0068 2326F4FE 		sw	a5,-20(s0)
 442:Drivers/src/ch32v20x_gpio.c ****     tmp = GPIOx->LCKR;
 969              		.loc 1 442 9
 970 006c 8327C4FD 		lw	a5,-36(s0)
 971 0070 9C4F     		lw	a5,24(a5)
 972 0072 2326F4FE 		sw	a5,-20(s0)
 443:Drivers/src/ch32v20x_gpio.c **** }
 973              		.loc 1 443 1
 974 0076 0100     		nop
 975 0078 3254     		lw	s0,44(sp)
 976              		.cfi_restore 8
 977              		.cfi_def_cfa 2, 48
 978 007a 4561     		addi	sp,sp,48
 979              		.cfi_def_cfa_offset 0
 980 007c 8280     		jr	ra
GAS LISTING C:\Users\SOLDER~1\AppData\Local\Temp\ccdovRCu.s 			page 26


 981              		.cfi_endproc
 982              	.LFE28:
 984              		.section	.text.GPIO_EventOutputConfig,"ax",@progbits
 985              		.align	1
 986              		.globl	GPIO_EventOutputConfig
 988              	GPIO_EventOutputConfig:
 989              	.LFB29:
 444:Drivers/src/ch32v20x_gpio.c **** 
 445:Drivers/src/ch32v20x_gpio.c **** /*********************************************************************
 446:Drivers/src/ch32v20x_gpio.c ****  * @fn      GPIO_EventOutputConfig
 447:Drivers/src/ch32v20x_gpio.c ****  *
 448:Drivers/src/ch32v20x_gpio.c ****  * @brief   Selects the GPIO pin used as Event output.
 449:Drivers/src/ch32v20x_gpio.c ****  *
 450:Drivers/src/ch32v20x_gpio.c ****  * @param   GPIO_PortSource - selects the GPIO port to be used as source
 451:Drivers/src/ch32v20x_gpio.c ****  *        for Event output.
 452:Drivers/src/ch32v20x_gpio.c ****  *            This parameter can be GPIO_PortSourceGPIOx where x can be (A..E).
 453:Drivers/src/ch32v20x_gpio.c ****  *          GPIO_PinSource - specifies the pin for the Event output.
 454:Drivers/src/ch32v20x_gpio.c ****  *            This parameter can be GPIO_PinSourcex where x can be (0..15).
 455:Drivers/src/ch32v20x_gpio.c ****  *
 456:Drivers/src/ch32v20x_gpio.c ****  * @return  none
 457:Drivers/src/ch32v20x_gpio.c ****  */
 458:Drivers/src/ch32v20x_gpio.c **** void GPIO_EventOutputConfig(uint8_t GPIO_PortSource, uint8_t GPIO_PinSource)
 459:Drivers/src/ch32v20x_gpio.c **** {
 990              		.loc 1 459 1
 991              		.cfi_startproc
 992 0000 7971     		addi	sp,sp,-48
 993              		.cfi_def_cfa_offset 48
 994 0002 22D6     		sw	s0,44(sp)
 995              		.cfi_offset 8, -4
 996 0004 0018     		addi	s0,sp,48
 997              		.cfi_def_cfa 8, 0
 998 0006 AA87     		mv	a5,a0
 999 0008 2E87     		mv	a4,a1
 1000 000a A30FF4FC 		sb	a5,-33(s0)
 1001 000e BA87     		mv	a5,a4
 1002 0010 230FF4FC 		sb	a5,-34(s0)
 460:Drivers/src/ch32v20x_gpio.c ****     uint32_t tmpreg = 0x00;
 1003              		.loc 1 460 14
 1004 0014 232604FE 		sw	zero,-20(s0)
 461:Drivers/src/ch32v20x_gpio.c **** 
 462:Drivers/src/ch32v20x_gpio.c ****     tmpreg = AFIO->ECR;
 1005              		.loc 1 462 18
 1006 0018 B7070140 		li	a5,1073807360
 1007              		.loc 1 462 12
 1008 001c 9C43     		lw	a5,0(a5)
 1009 001e 2326F4FE 		sw	a5,-20(s0)
 463:Drivers/src/ch32v20x_gpio.c ****     tmpreg &= ECR_PORTPINCONFIG_MASK;
 1010              		.loc 1 463 12
 1011 0022 0327C4FE 		lw	a4,-20(s0)
 1012 0026 C167     		li	a5,65536
 1013 0028 938707F8 		addi	a5,a5,-128
 1014 002c F98F     		and	a5,a4,a5
 1015 002e 2326F4FE 		sw	a5,-20(s0)
 464:Drivers/src/ch32v20x_gpio.c ****     tmpreg |= (uint32_t)GPIO_PortSource << 0x04;
 1016              		.loc 1 464 15
 1017 0032 8347F4FD 		lbu	a5,-33(s0)
 1018              		.loc 1 464 41
GAS LISTING C:\Users\SOLDER~1\AppData\Local\Temp\ccdovRCu.s 			page 27


 1019 0036 9207     		slli	a5,a5,4
 1020              		.loc 1 464 12
 1021 0038 0327C4FE 		lw	a4,-20(s0)
 1022 003c D98F     		or	a5,a4,a5
 1023 003e 2326F4FE 		sw	a5,-20(s0)
 465:Drivers/src/ch32v20x_gpio.c ****     tmpreg |= GPIO_PinSource;
 1024              		.loc 1 465 12
 1025 0042 8347E4FD 		lbu	a5,-34(s0)
 1026 0046 0327C4FE 		lw	a4,-20(s0)
 1027 004a D98F     		or	a5,a4,a5
 1028 004c 2326F4FE 		sw	a5,-20(s0)
 466:Drivers/src/ch32v20x_gpio.c ****     AFIO->ECR = tmpreg;
 1029              		.loc 1 466 9
 1030 0050 B7070140 		li	a5,1073807360
 1031              		.loc 1 466 15
 1032 0054 0327C4FE 		lw	a4,-20(s0)
 1033 0058 98C3     		sw	a4,0(a5)
 467:Drivers/src/ch32v20x_gpio.c **** }
 1034              		.loc 1 467 1
 1035 005a 0100     		nop
 1036 005c 3254     		lw	s0,44(sp)
 1037              		.cfi_restore 8
 1038              		.cfi_def_cfa 2, 48
 1039 005e 4561     		addi	sp,sp,48
 1040              		.cfi_def_cfa_offset 0
 1041 0060 8280     		jr	ra
 1042              		.cfi_endproc
 1043              	.LFE29:
 1045              		.section	.text.GPIO_EventOutputCmd,"ax",@progbits
 1046              		.align	1
 1047              		.globl	GPIO_EventOutputCmd
 1049              	GPIO_EventOutputCmd:
 1050              	.LFB30:
 468:Drivers/src/ch32v20x_gpio.c **** 
 469:Drivers/src/ch32v20x_gpio.c **** /*********************************************************************
 470:Drivers/src/ch32v20x_gpio.c ****  * @fn      GPIO_EventOutputCmd
 471:Drivers/src/ch32v20x_gpio.c ****  *
 472:Drivers/src/ch32v20x_gpio.c ****  * @brief   Enables or disables the Event Output.
 473:Drivers/src/ch32v20x_gpio.c ****  *
 474:Drivers/src/ch32v20x_gpio.c ****  * @param   NewState - ENABLE or DISABLE.
 475:Drivers/src/ch32v20x_gpio.c ****  *
 476:Drivers/src/ch32v20x_gpio.c ****  * @return  none
 477:Drivers/src/ch32v20x_gpio.c ****  */
 478:Drivers/src/ch32v20x_gpio.c **** void GPIO_EventOutputCmd(FunctionalState NewState)
 479:Drivers/src/ch32v20x_gpio.c **** {
 1051              		.loc 1 479 1
 1052              		.cfi_startproc
 1053 0000 0111     		addi	sp,sp,-32
 1054              		.cfi_def_cfa_offset 32
 1055 0002 22CE     		sw	s0,28(sp)
 1056              		.cfi_offset 8, -4
 1057 0004 0010     		addi	s0,sp,32
 1058              		.cfi_def_cfa 8, 0
 1059 0006 2326A4FE 		sw	a0,-20(s0)
 480:Drivers/src/ch32v20x_gpio.c ****     if(NewState)
 1060              		.loc 1 480 7
 1061 000a 8327C4FE 		lw	a5,-20(s0)
GAS LISTING C:\Users\SOLDER~1\AppData\Local\Temp\ccdovRCu.s 			page 28


 1062 000e 91CB     		beq	a5,zero,.L58
 481:Drivers/src/ch32v20x_gpio.c ****     {
 482:Drivers/src/ch32v20x_gpio.c ****         AFIO->ECR |= (1 << 7);
 1063              		.loc 1 482 13
 1064 0010 B7070140 		li	a5,1073807360
 1065 0014 9843     		lw	a4,0(a5)
 1066 0016 B7070140 		li	a5,1073807360
 1067              		.loc 1 482 19
 1068 001a 13670708 		ori	a4,a4,128
 1069 001e 98C3     		sw	a4,0(a5)
 483:Drivers/src/ch32v20x_gpio.c ****     }
 484:Drivers/src/ch32v20x_gpio.c ****     else
 485:Drivers/src/ch32v20x_gpio.c ****     {
 486:Drivers/src/ch32v20x_gpio.c ****         AFIO->ECR &= ~(1 << 7);
 487:Drivers/src/ch32v20x_gpio.c ****     }
 488:Drivers/src/ch32v20x_gpio.c **** }
 1070              		.loc 1 488 1
 1071 0020 09A8     		j	.L60
 1072              	.L58:
 486:Drivers/src/ch32v20x_gpio.c ****     }
 1073              		.loc 1 486 13
 1074 0022 B7070140 		li	a5,1073807360
 1075 0026 9843     		lw	a4,0(a5)
 1076 0028 B7070140 		li	a5,1073807360
 486:Drivers/src/ch32v20x_gpio.c ****     }
 1077              		.loc 1 486 19
 1078 002c 1377F7F7 		andi	a4,a4,-129
 1079 0030 98C3     		sw	a4,0(a5)
 1080              	.L60:
 1081              		.loc 1 488 1
 1082 0032 0100     		nop
 1083 0034 7244     		lw	s0,28(sp)
 1084              		.cfi_restore 8
 1085              		.cfi_def_cfa 2, 32
 1086 0036 0561     		addi	sp,sp,32
 1087              		.cfi_def_cfa_offset 0
 1088 0038 8280     		jr	ra
 1089              		.cfi_endproc
 1090              	.LFE30:
 1092              		.section	.text.GPIO_PinRemapConfig,"ax",@progbits
 1093              		.align	1
 1094              		.globl	GPIO_PinRemapConfig
 1096              	GPIO_PinRemapConfig:
 1097              	.LFB31:
 489:Drivers/src/ch32v20x_gpio.c **** 
 490:Drivers/src/ch32v20x_gpio.c **** /*********************************************************************
 491:Drivers/src/ch32v20x_gpio.c ****  * @fn      GPIO_PinRemapConfig
 492:Drivers/src/ch32v20x_gpio.c ****  *
 493:Drivers/src/ch32v20x_gpio.c ****  * @brief   Changes the mapping of the specified pin.
 494:Drivers/src/ch32v20x_gpio.c ****  *
 495:Drivers/src/ch32v20x_gpio.c ****  * @param   GPIO_Remap - selects the pin to remap.
 496:Drivers/src/ch32v20x_gpio.c ****  *            GPIO_Remap_SPI1 - SPI1 Alternate Function mapping
 497:Drivers/src/ch32v20x_gpio.c ****  *            GPIO_Remap_I2C1 - I2C1 Alternate Function mapping
 498:Drivers/src/ch32v20x_gpio.c ****  *            GPIO_Remap_USART1 - USART1 Alternate Function mapping
 499:Drivers/src/ch32v20x_gpio.c ****  *            GPIO_Remap_USART2 - USART2 Alternate Function mapping
 500:Drivers/src/ch32v20x_gpio.c ****  *            GPIO_PartialRemap_USART3 - USART3 Partial Alternate Function mapping
 501:Drivers/src/ch32v20x_gpio.c ****  *            GPIO_FullRemap_USART3 - USART3 Full Alternate Function mapping
GAS LISTING C:\Users\SOLDER~1\AppData\Local\Temp\ccdovRCu.s 			page 29


 502:Drivers/src/ch32v20x_gpio.c ****  *            GPIO_PartialRemap_TIM1 - TIM1 Partial Alternate Function mapping
 503:Drivers/src/ch32v20x_gpio.c ****  *            GPIO_FullRemap_TIM1 - TIM1 Full Alternate Function mapping
 504:Drivers/src/ch32v20x_gpio.c ****  *            GPIO_PartialRemap1_TIM2 - TIM2 Partial1 Alternate Function mapping
 505:Drivers/src/ch32v20x_gpio.c ****  *            GPIO_PartialRemap2_TIM2 - TIM2 Partial2 Alternate Function mapping
 506:Drivers/src/ch32v20x_gpio.c ****  *            GPIO_FullRemap_TIM2 - TIM2 Full Alternate Function mapping
 507:Drivers/src/ch32v20x_gpio.c ****  *            GPIO_PartialRemap_TIM3 - TIM3 Partial Alternate Function mapping
 508:Drivers/src/ch32v20x_gpio.c ****  *            GPIO_FullRemap_TIM3 - TIM3 Full Alternate Function mapping
 509:Drivers/src/ch32v20x_gpio.c ****  *            GPIO_Remap_TIM4 - TIM4 Alternate Function mapping
 510:Drivers/src/ch32v20x_gpio.c ****  *            GPIO_Remap1_CAN1 - CAN1 Alternate Function mapping
 511:Drivers/src/ch32v20x_gpio.c ****  *            GPIO_Remap2_CAN1 - CAN1 Alternate Function mapping
 512:Drivers/src/ch32v20x_gpio.c ****  *            GPIO_Remap_PD01 - PD01 Alternate Function mapping
 513:Drivers/src/ch32v20x_gpio.c ****  *            GPIO_Remap_ADC1_ETRGINJ - ADC1 External Trigger Injected Conversion remapping
 514:Drivers/src/ch32v20x_gpio.c ****  *            GPIO_Remap_ADC1_ETRGREG - ADC1 External Trigger Regular Conversion remapping
 515:Drivers/src/ch32v20x_gpio.c ****  *            GPIO_Remap_ADC2_ETRGINJ - ADC2 External Trigger Injected Conversion remapping
 516:Drivers/src/ch32v20x_gpio.c ****  *            GPIO_Remap_ADC2_ETRGREG - ADC2 External Trigger Regular Conversion remapping
 517:Drivers/src/ch32v20x_gpio.c ****  *            GPIO_Remap_ETH - Ethernet remapping
 518:Drivers/src/ch32v20x_gpio.c ****  *            GPIO_Remap_CAN2 - CAN2 remapping
 519:Drivers/src/ch32v20x_gpio.c ****  *            GPIO_Remap_MII_RMII_SEL - MII or RMII selection
 520:Drivers/src/ch32v20x_gpio.c ****  *            GPIO_Remap_SWJ_NoJTRST - Full SWJ Enabled (JTAG-DP + SW-DP) but without JTRST
 521:Drivers/src/ch32v20x_gpio.c ****  *            GPIO_Remap_SWJ_JTAGDisable - JTAG-DP Disabled and SW-DP Enabled
 522:Drivers/src/ch32v20x_gpio.c ****  *            GPIO_Remap_SWJ_Disable - Full SWJ Disabled (JTAG-DP + SW-DP)
 523:Drivers/src/ch32v20x_gpio.c ****  *            GPIO_Remap_TIM2ITR1_PTP_SOF - Ethernet PTP output or USB OTG SOF (Start of Frame) con
 524:Drivers/src/ch32v20x_gpio.c ****  *        to TIM2 Internal Trigger 1 for calibration
 525:Drivers/src/ch32v20x_gpio.c ****  *            GPIO_Remap_TIM2ITR1_PTP_SOF - Ethernet PTP output or USB OTG SOF (Start of Frame)
 526:Drivers/src/ch32v20x_gpio.c ****  *            GPIO_Remap_TIM8 - TIM8 Alternate Function mapping
 527:Drivers/src/ch32v20x_gpio.c ****  *            GPIO_PartialRemap_TIM9 - TIM9 Partial Alternate Function mapping
 528:Drivers/src/ch32v20x_gpio.c ****  *            GPIO_FullRemap_TIM9 - TIM9 Full Alternate Function mapping
 529:Drivers/src/ch32v20x_gpio.c ****  *            GPIO_PartialRemap_TIM10 - TIM10 Partial Alternate Function mapping
 530:Drivers/src/ch32v20x_gpio.c ****  *            GPIO_FullRemap_TIM10 - TIM10 Full Alternate Function mapping
 531:Drivers/src/ch32v20x_gpio.c ****  *            GPIO_Remap_FSMC_NADV - FSMC_NADV Alternate Function mapping
 532:Drivers/src/ch32v20x_gpio.c ****  *            GPIO_PartialRemap_USART4 - USART4 Partial Alternate Function mapping
 533:Drivers/src/ch32v20x_gpio.c ****  *            GPIO_FullRemap_USART4 - USART4 Full Alternate Function mapping
 534:Drivers/src/ch32v20x_gpio.c ****  *            GPIO_PartialRemap_USART5 - USART5 Partial Alternate Function mapping
 535:Drivers/src/ch32v20x_gpio.c ****  *            GPIO_FullRemap_USART5 - USART5 Full Alternate Function mapping
 536:Drivers/src/ch32v20x_gpio.c ****  *            GPIO_PartialRemap_USART6 - USART6 Partial Alternate Function mapping
 537:Drivers/src/ch32v20x_gpio.c ****  *            GPIO_FullRemap_USART6 - USART6 Full Alternate Function mapping
 538:Drivers/src/ch32v20x_gpio.c ****  *            GPIO_PartialRemap_USART7 - USART7 Partial Alternate Function mapping
 539:Drivers/src/ch32v20x_gpio.c ****  *            GPIO_FullRemap_USART7 - USART7 Full Alternate Function mapping
 540:Drivers/src/ch32v20x_gpio.c ****  *            GPIO_PartialRemap_USART8 - USART8 Partial Alternate Function mapping
 541:Drivers/src/ch32v20x_gpio.c ****  *            GPIO_FullRemap_USART8 - USART8 Full Alternate Function mapping
 542:Drivers/src/ch32v20x_gpio.c ****  *            GPIO_Remap_USART1_HighBit - USART1 Alternate Function mapping high bit
 543:Drivers/src/ch32v20x_gpio.c ****  *          NewState - ENABLE or DISABLE.
 544:Drivers/src/ch32v20x_gpio.c ****  *
 545:Drivers/src/ch32v20x_gpio.c ****  * @return  none
 546:Drivers/src/ch32v20x_gpio.c ****  */
 547:Drivers/src/ch32v20x_gpio.c **** void GPIO_PinRemapConfig(uint32_t GPIO_Remap, FunctionalState NewState)
 548:Drivers/src/ch32v20x_gpio.c **** {
 1098              		.loc 1 548 1
 1099              		.cfi_startproc
 1100 0000 7971     		addi	sp,sp,-48
 1101              		.cfi_def_cfa_offset 48
 1102 0002 22D6     		sw	s0,44(sp)
 1103              		.cfi_offset 8, -4
 1104 0004 0018     		addi	s0,sp,48
 1105              		.cfi_def_cfa 8, 0
 1106 0006 232EA4FC 		sw	a0,-36(s0)
 1107 000a 232CB4FC 		sw	a1,-40(s0)
GAS LISTING C:\Users\SOLDER~1\AppData\Local\Temp\ccdovRCu.s 			page 30


 549:Drivers/src/ch32v20x_gpio.c ****     uint32_t tmp = 0x00, tmp1 = 0x00, tmpreg = 0x00, tmpmask = 0x00;
 1108              		.loc 1 549 14
 1109 000e 232404FE 		sw	zero,-24(s0)
 1110              		.loc 1 549 26
 1111 0012 232204FE 		sw	zero,-28(s0)
 1112              		.loc 1 549 39
 1113 0016 232604FE 		sw	zero,-20(s0)
 1114              		.loc 1 549 54
 1115 001a 232004FE 		sw	zero,-32(s0)
 550:Drivers/src/ch32v20x_gpio.c **** 
 551:Drivers/src/ch32v20x_gpio.c ****     if((GPIO_Remap & 0x80000000) == 0x80000000)
 1116              		.loc 1 551 34
 1117 001e 8327C4FD 		lw	a5,-36(s0)
 1118              		.loc 1 551 7
 1119 0022 63D80700 		bge	a5,zero,.L62
 552:Drivers/src/ch32v20x_gpio.c ****     {
 553:Drivers/src/ch32v20x_gpio.c ****         tmpreg = AFIO->PCFR2;
 1120              		.loc 1 553 22
 1121 0026 B7070140 		li	a5,1073807360
 1122              		.loc 1 553 16
 1123 002a DC4F     		lw	a5,28(a5)
 1124 002c 2326F4FE 		sw	a5,-20(s0)
 1125 0030 2DA8     		j	.L63
 1126              	.L62:
 554:Drivers/src/ch32v20x_gpio.c ****     }
 555:Drivers/src/ch32v20x_gpio.c ****     else
 556:Drivers/src/ch32v20x_gpio.c ****     {
 557:Drivers/src/ch32v20x_gpio.c ****         tmpreg = AFIO->PCFR1;
 1127              		.loc 1 557 22
 1128 0032 B7070140 		li	a5,1073807360
 1129              		.loc 1 557 16
 1130 0036 DC43     		lw	a5,4(a5)
 1131 0038 2326F4FE 		sw	a5,-20(s0)
 558:Drivers/src/ch32v20x_gpio.c **** 
 559:Drivers/src/ch32v20x_gpio.c **** #if defined (CH32V20x_D6) || defined (CH32V20x_D8)
 560:Drivers/src/ch32v20x_gpio.c ****     if(((*(uint32_t *) 0x40022030) & 0x0F000000) == 0){
 1132              		.loc 1 560 10
 1133 003c B7270240 		li	a5,1073881088
 1134 0040 93870703 		addi	a5,a5,48
 1135 0044 9843     		lw	a4,0(a5)
 1136              		.loc 1 560 36
 1137 0046 B707000F 		li	a5,251658240
 1138 004a F98F     		and	a5,a4,a5
 1139              		.loc 1 560 7
 1140 004c 99EF     		bne	a5,zero,.L63
 561:Drivers/src/ch32v20x_gpio.c ****         tmpreg = ((tmpreg>>1)&0xFFFFE000)|(tmpreg&0x00001FFF);
 1141              		.loc 1 561 26
 1142 004e 8327C4FE 		lw	a5,-20(s0)
 1143 0052 13D71700 		srli	a4,a5,1
 1144              		.loc 1 561 30
 1145 0056 F977     		li	a5,-8192
 1146 0058 7D8F     		and	a4,a4,a5
 1147              		.loc 1 561 50
 1148 005a 8326C4FE 		lw	a3,-20(s0)
 1149 005e 8967     		li	a5,8192
 1150 0060 FD17     		addi	a5,a5,-1
 1151 0062 F58F     		and	a5,a3,a5
GAS LISTING C:\Users\SOLDER~1\AppData\Local\Temp\ccdovRCu.s 			page 31


 1152              		.loc 1 561 16
 1153 0064 D98F     		or	a5,a4,a5
 1154 0066 2326F4FE 		sw	a5,-20(s0)
 1155              	.L63:
 562:Drivers/src/ch32v20x_gpio.c ****     }
 563:Drivers/src/ch32v20x_gpio.c **** 
 564:Drivers/src/ch32v20x_gpio.c **** #endif
 565:Drivers/src/ch32v20x_gpio.c ****     }
 566:Drivers/src/ch32v20x_gpio.c **** 
 567:Drivers/src/ch32v20x_gpio.c ****     tmpmask = (GPIO_Remap & DBGAFR_POSITION_MASK) >> 0x10;
 1156              		.loc 1 567 51
 1157 006a 8327C4FD 		lw	a5,-36(s0)
 1158 006e C183     		srli	a5,a5,16
 1159              		.loc 1 567 13
 1160 0070 BD8B     		andi	a5,a5,15
 1161 0072 2320F4FE 		sw	a5,-32(s0)
 568:Drivers/src/ch32v20x_gpio.c ****     tmp = GPIO_Remap & LSB_MASK;
 1162              		.loc 1 568 9
 1163 0076 0327C4FD 		lw	a4,-36(s0)
 1164 007a C167     		li	a5,65536
 1165 007c FD17     		addi	a5,a5,-1
 1166 007e F98F     		and	a5,a4,a5
 1167 0080 2324F4FE 		sw	a5,-24(s0)
 569:Drivers/src/ch32v20x_gpio.c **** 
 570:Drivers/src/ch32v20x_gpio.c ****     /* Clear bit */
 571:Drivers/src/ch32v20x_gpio.c ****     if((GPIO_Remap & 0x80000000) == 0x80000000)
 1168              		.loc 1 571 34
 1169 0084 8327C4FD 		lw	a5,-36(s0)
 1170              		.loc 1 571 7
 1171 0088 63D40708 		bge	a5,zero,.L64
 572:Drivers/src/ch32v20x_gpio.c ****     {                                                                                              
 573:Drivers/src/ch32v20x_gpio.c ****         if((GPIO_Remap & (DBGAFR_LOCATION_MASK | DBGAFR_NUMBITS_MASK)) == (DBGAFR_LOCATION_MASK | D
 1172              		.loc 1 573 24
 1173 008c 0327C4FD 		lw	a4,-36(s0)
 1174 0090 B7073000 		li	a5,3145728
 1175 0094 7D8F     		and	a4,a4,a5
 1176              		.loc 1 573 11
 1177 0096 B7073000 		li	a5,3145728
 1178 009a 6314F702 		bne	a4,a5,.L65
 574:Drivers/src/ch32v20x_gpio.c ****         {
 575:Drivers/src/ch32v20x_gpio.c ****             tmp1 = ((uint32_t)0x03) << (tmpmask + 0x10);
 1179              		.loc 1 575 49
 1180 009e 832704FE 		lw	a5,-32(s0)
 1181 00a2 C107     		addi	a5,a5,16
 1182              		.loc 1 575 18
 1183 00a4 0D47     		li	a4,3
 1184 00a6 B317F700 		sll	a5,a4,a5
 1185 00aa 2322F4FE 		sw	a5,-28(s0)
 576:Drivers/src/ch32v20x_gpio.c ****             tmpreg &= ~tmp1;
 1186              		.loc 1 576 23
 1187 00ae 832744FE 		lw	a5,-28(s0)
 1188 00b2 93C7F7FF 		not	a5,a5
 1189              		.loc 1 576 20
 1190 00b6 0327C4FE 		lw	a4,-20(s0)
 1191 00ba F98F     		and	a5,a4,a5
 1192 00bc 2326F4FE 		sw	a5,-20(s0)
 1193 00c0 C5A8     		j	.L66
GAS LISTING C:\Users\SOLDER~1\AppData\Local\Temp\ccdovRCu.s 			page 32


 1194              	.L65:
 577:Drivers/src/ch32v20x_gpio.c ****         }
 578:Drivers/src/ch32v20x_gpio.c ****         else if((GPIO_Remap & DBGAFR_NUMBITS_MASK) == DBGAFR_NUMBITS_MASK) /* [15:0] 2bit */
 1195              		.loc 1 578 29
 1196 00c2 0327C4FD 		lw	a4,-36(s0)
 1197 00c6 B7071000 		li	a5,1048576
 1198 00ca F98F     		and	a5,a4,a5
 1199              		.loc 1 578 16
 1200 00cc 95C3     		beq	a5,zero,.L67
 579:Drivers/src/ch32v20x_gpio.c ****         {
 580:Drivers/src/ch32v20x_gpio.c ****             tmp1 = ((uint32_t)0x03) << tmpmask;
 1201              		.loc 1 580 18
 1202 00ce 832704FE 		lw	a5,-32(s0)
 1203 00d2 0D47     		li	a4,3
 1204 00d4 B317F700 		sll	a5,a4,a5
 1205 00d8 2322F4FE 		sw	a5,-28(s0)
 581:Drivers/src/ch32v20x_gpio.c ****             tmpreg &= ~tmp1;
 1206              		.loc 1 581 23
 1207 00dc 832744FE 		lw	a5,-28(s0)
 1208 00e0 93C7F7FF 		not	a5,a5
 1209              		.loc 1 581 20
 1210 00e4 0327C4FE 		lw	a4,-20(s0)
 1211 00e8 F98F     		and	a5,a4,a5
 1212 00ea 2326F4FE 		sw	a5,-20(s0)
 1213 00ee C9A0     		j	.L66
 1214              	.L67:
 582:Drivers/src/ch32v20x_gpio.c ****         }
 583:Drivers/src/ch32v20x_gpio.c ****         else /* [31:0] 1bit */
 584:Drivers/src/ch32v20x_gpio.c ****         {
 585:Drivers/src/ch32v20x_gpio.c ****             tmpreg &= ~(tmp << ((GPIO_Remap >> 0x15) * 0x10));
 1215              		.loc 1 585 45
 1216 00f0 8327C4FD 		lw	a5,-36(s0)
 1217 00f4 D583     		srli	a5,a5,21
 1218              		.loc 1 585 54
 1219 00f6 9207     		slli	a5,a5,4
 1220              		.loc 1 585 29
 1221 00f8 032784FE 		lw	a4,-24(s0)
 1222 00fc B317F700 		sll	a5,a4,a5
 1223              		.loc 1 585 23
 1224 0100 93C7F7FF 		not	a5,a5
 1225              		.loc 1 585 20
 1226 0104 0327C4FE 		lw	a4,-20(s0)
 1227 0108 F98F     		and	a5,a4,a5
 1228 010a 2326F4FE 		sw	a5,-20(s0)
 1229 010e 4DA0     		j	.L66
 1230              	.L64:
 586:Drivers/src/ch32v20x_gpio.c ****         }
 587:Drivers/src/ch32v20x_gpio.c ****     }
 588:Drivers/src/ch32v20x_gpio.c ****     else
 589:Drivers/src/ch32v20x_gpio.c ****     {                                                                                              
 590:Drivers/src/ch32v20x_gpio.c ****         if((GPIO_Remap & (DBGAFR_LOCATION_MASK | DBGAFR_NUMBITS_MASK)) == (DBGAFR_LOCATION_MASK | D
 1231              		.loc 1 590 24
 1232 0110 0327C4FD 		lw	a4,-36(s0)
 1233 0114 B7073000 		li	a5,3145728
 1234 0118 7D8F     		and	a4,a4,a5
 1235              		.loc 1 590 11
 1236 011a B7073000 		li	a5,3145728
GAS LISTING C:\Users\SOLDER~1\AppData\Local\Temp\ccdovRCu.s 			page 33


 1237 011e 6315F702 		bne	a4,a5,.L68
 591:Drivers/src/ch32v20x_gpio.c ****         {
 592:Drivers/src/ch32v20x_gpio.c ****             tmpreg &= DBGAFR_SWJCFG_MASK;
 1238              		.loc 1 592 20
 1239 0122 0327C4FE 		lw	a4,-20(s0)
 1240 0126 B70700F1 		li	a5,-251658240
 1241 012a FD17     		addi	a5,a5,-1
 1242 012c F98F     		and	a5,a4,a5
 1243 012e 2326F4FE 		sw	a5,-20(s0)
 593:Drivers/src/ch32v20x_gpio.c ****             AFIO->PCFR1 &= DBGAFR_SWJCFG_MASK;
 1244              		.loc 1 593 17
 1245 0132 B7070140 		li	a5,1073807360
 1246 0136 D443     		lw	a3,4(a5)
 1247 0138 B7070140 		li	a5,1073807360
 1248              		.loc 1 593 25
 1249 013c 370700F1 		li	a4,-251658240
 1250 0140 7D17     		addi	a4,a4,-1
 1251 0142 758F     		and	a4,a3,a4
 1252 0144 D8C3     		sw	a4,4(a5)
 1253 0146 ADA0     		j	.L66
 1254              	.L68:
 594:Drivers/src/ch32v20x_gpio.c ****         }
 595:Drivers/src/ch32v20x_gpio.c ****         else if((GPIO_Remap & DBGAFR_NUMBITS_MASK) == DBGAFR_NUMBITS_MASK) /* [15:0] 2bit */
 1255              		.loc 1 595 29
 1256 0148 0327C4FD 		lw	a4,-36(s0)
 1257 014c B7071000 		li	a5,1048576
 1258 0150 F98F     		and	a5,a4,a5
 1259              		.loc 1 595 16
 1260 0152 8DCB     		beq	a5,zero,.L69
 596:Drivers/src/ch32v20x_gpio.c ****         {
 597:Drivers/src/ch32v20x_gpio.c ****             tmp1 = ((uint32_t)0x03) << tmpmask;
 1261              		.loc 1 597 18
 1262 0154 832704FE 		lw	a5,-32(s0)
 1263 0158 0D47     		li	a4,3
 1264 015a B317F700 		sll	a5,a4,a5
 1265 015e 2322F4FE 		sw	a5,-28(s0)
 598:Drivers/src/ch32v20x_gpio.c ****             tmpreg &= ~tmp1;
 1266              		.loc 1 598 23
 1267 0162 832744FE 		lw	a5,-28(s0)
 1268 0166 93C7F7FF 		not	a5,a5
 1269              		.loc 1 598 20
 1270 016a 0327C4FE 		lw	a4,-20(s0)
 1271 016e F98F     		and	a5,a4,a5
 1272 0170 2326F4FE 		sw	a5,-20(s0)
 599:Drivers/src/ch32v20x_gpio.c ****             tmpreg |= ~DBGAFR_SWJCFG_MASK;
 1273              		.loc 1 599 20
 1274 0174 0327C4FE 		lw	a4,-20(s0)
 1275 0178 B707000F 		li	a5,251658240
 1276 017c D98F     		or	a5,a4,a5
 1277 017e 2326F4FE 		sw	a5,-20(s0)
 1278 0182 3DA0     		j	.L66
 1279              	.L69:
 600:Drivers/src/ch32v20x_gpio.c ****         }
 601:Drivers/src/ch32v20x_gpio.c ****         else /* [31:0] 1bit */
 602:Drivers/src/ch32v20x_gpio.c ****         {
 603:Drivers/src/ch32v20x_gpio.c ****             tmpreg &= ~(tmp << ((GPIO_Remap >> 0x15) * 0x10));
 1280              		.loc 1 603 45
GAS LISTING C:\Users\SOLDER~1\AppData\Local\Temp\ccdovRCu.s 			page 34


 1281 0184 8327C4FD 		lw	a5,-36(s0)
 1282 0188 D583     		srli	a5,a5,21
 1283              		.loc 1 603 54
 1284 018a 9207     		slli	a5,a5,4
 1285              		.loc 1 603 29
 1286 018c 032784FE 		lw	a4,-24(s0)
 1287 0190 B317F700 		sll	a5,a4,a5
 1288              		.loc 1 603 23
 1289 0194 93C7F7FF 		not	a5,a5
 1290              		.loc 1 603 20
 1291 0198 0327C4FE 		lw	a4,-20(s0)
 1292 019c F98F     		and	a5,a4,a5
 1293 019e 2326F4FE 		sw	a5,-20(s0)
 604:Drivers/src/ch32v20x_gpio.c ****             tmpreg |= ~DBGAFR_SWJCFG_MASK;
 1294              		.loc 1 604 20
 1295 01a2 0327C4FE 		lw	a4,-20(s0)
 1296 01a6 B707000F 		li	a5,251658240
 1297 01aa D98F     		or	a5,a4,a5
 1298 01ac 2326F4FE 		sw	a5,-20(s0)
 1299              	.L66:
 605:Drivers/src/ch32v20x_gpio.c ****         }
 606:Drivers/src/ch32v20x_gpio.c ****     }
 607:Drivers/src/ch32v20x_gpio.c **** 
 608:Drivers/src/ch32v20x_gpio.c ****     /* Set bit */
 609:Drivers/src/ch32v20x_gpio.c ****     if(NewState != DISABLE)
 1300              		.loc 1 609 7
 1301 01b0 832784FD 		lw	a5,-40(s0)
 1302 01b4 91CF     		beq	a5,zero,.L70
 610:Drivers/src/ch32v20x_gpio.c ****     {
 611:Drivers/src/ch32v20x_gpio.c ****         tmpreg |= (tmp << ((GPIO_Remap >> 0x15) * 0x10));
 1303              		.loc 1 611 40
 1304 01b6 8327C4FD 		lw	a5,-36(s0)
 1305 01ba D583     		srli	a5,a5,21
 1306              		.loc 1 611 49
 1307 01bc 9207     		slli	a5,a5,4
 1308              		.loc 1 611 24
 1309 01be 032784FE 		lw	a4,-24(s0)
 1310 01c2 B317F700 		sll	a5,a4,a5
 1311              		.loc 1 611 16
 1312 01c6 0327C4FE 		lw	a4,-20(s0)
 1313 01ca D98F     		or	a5,a4,a5
 1314 01cc 2326F4FE 		sw	a5,-20(s0)
 1315              	.L70:
 612:Drivers/src/ch32v20x_gpio.c ****     }
 613:Drivers/src/ch32v20x_gpio.c **** 
 614:Drivers/src/ch32v20x_gpio.c ****     if((GPIO_Remap & 0x80000000) == 0x80000000)
 1316              		.loc 1 614 34
 1317 01d0 8327C4FD 		lw	a5,-36(s0)
 1318              		.loc 1 614 7
 1319 01d4 63D80700 		bge	a5,zero,.L71
 615:Drivers/src/ch32v20x_gpio.c ****     {
 616:Drivers/src/ch32v20x_gpio.c ****         AFIO->PCFR2 = tmpreg;
 1320              		.loc 1 616 13
 1321 01d8 B7070140 		li	a5,1073807360
 1322              		.loc 1 616 21
 1323 01dc 0327C4FE 		lw	a4,-20(s0)
 1324 01e0 D8CF     		sw	a4,28(a5)
GAS LISTING C:\Users\SOLDER~1\AppData\Local\Temp\ccdovRCu.s 			page 35


 617:Drivers/src/ch32v20x_gpio.c ****     }
 618:Drivers/src/ch32v20x_gpio.c ****     else
 619:Drivers/src/ch32v20x_gpio.c ****     {
 620:Drivers/src/ch32v20x_gpio.c ****         AFIO->PCFR1 = tmpreg;
 621:Drivers/src/ch32v20x_gpio.c ****     }
 622:Drivers/src/ch32v20x_gpio.c **** }
 1325              		.loc 1 622 1
 1326 01e2 31A0     		j	.L73
 1327              	.L71:
 620:Drivers/src/ch32v20x_gpio.c ****     }
 1328              		.loc 1 620 13
 1329 01e4 B7070140 		li	a5,1073807360
 620:Drivers/src/ch32v20x_gpio.c ****     }
 1330              		.loc 1 620 21
 1331 01e8 0327C4FE 		lw	a4,-20(s0)
 1332 01ec D8C3     		sw	a4,4(a5)
 1333              	.L73:
 1334              		.loc 1 622 1
 1335 01ee 0100     		nop
 1336 01f0 3254     		lw	s0,44(sp)
 1337              		.cfi_restore 8
 1338              		.cfi_def_cfa 2, 48
 1339 01f2 4561     		addi	sp,sp,48
 1340              		.cfi_def_cfa_offset 0
 1341 01f4 8280     		jr	ra
 1342              		.cfi_endproc
 1343              	.LFE31:
 1345              		.section	.text.GPIO_EXTILineConfig,"ax",@progbits
 1346              		.align	1
 1347              		.globl	GPIO_EXTILineConfig
 1349              	GPIO_EXTILineConfig:
 1350              	.LFB32:
 623:Drivers/src/ch32v20x_gpio.c **** 
 624:Drivers/src/ch32v20x_gpio.c **** /*********************************************************************
 625:Drivers/src/ch32v20x_gpio.c ****  * @fn      GPIO_EXTILineConfig
 626:Drivers/src/ch32v20x_gpio.c ****  *
 627:Drivers/src/ch32v20x_gpio.c ****  * @brief   Selects the GPIO pin used as EXTI Line.
 628:Drivers/src/ch32v20x_gpio.c ****  *
 629:Drivers/src/ch32v20x_gpio.c ****  * @param   GPIO_PortSource - selects the GPIO port to be used as source for EXTI lines.
 630:Drivers/src/ch32v20x_gpio.c ****  *            This parameter can be GPIO_PortSourceGPIOx where x can be (A..G).
 631:Drivers/src/ch32v20x_gpio.c ****  *          GPIO_PinSource - specifies the EXTI line to be configured.
 632:Drivers/src/ch32v20x_gpio.c ****  *            This parameter can be GPIO_PinSourcex where x can be (0..15).
 633:Drivers/src/ch32v20x_gpio.c ****  *
 634:Drivers/src/ch32v20x_gpio.c ****  * @return  none
 635:Drivers/src/ch32v20x_gpio.c ****  */
 636:Drivers/src/ch32v20x_gpio.c **** void GPIO_EXTILineConfig(uint8_t GPIO_PortSource, uint8_t GPIO_PinSource)
 637:Drivers/src/ch32v20x_gpio.c **** {
 1351              		.loc 1 637 1
 1352              		.cfi_startproc
 1353 0000 7971     		addi	sp,sp,-48
 1354              		.cfi_def_cfa_offset 48
 1355 0002 22D6     		sw	s0,44(sp)
 1356              		.cfi_offset 8, -4
 1357 0004 0018     		addi	s0,sp,48
 1358              		.cfi_def_cfa 8, 0
 1359 0006 AA87     		mv	a5,a0
 1360 0008 2E87     		mv	a4,a1
GAS LISTING C:\Users\SOLDER~1\AppData\Local\Temp\ccdovRCu.s 			page 36


 1361 000a A30FF4FC 		sb	a5,-33(s0)
 1362 000e BA87     		mv	a5,a4
 1363 0010 230FF4FC 		sb	a5,-34(s0)
 638:Drivers/src/ch32v20x_gpio.c ****     uint32_t tmp = 0x00;
 1364              		.loc 1 638 14
 1365 0014 232604FE 		sw	zero,-20(s0)
 639:Drivers/src/ch32v20x_gpio.c **** 
 640:Drivers/src/ch32v20x_gpio.c ****     tmp = ((uint32_t)0x0F) << (0x04 * (GPIO_PinSource & (uint8_t)0x03));
 1366              		.loc 1 640 55
 1367 0018 8347E4FD 		lbu	a5,-34(s0)
 1368 001c 8D8B     		andi	a5,a5,3
 1369              		.loc 1 640 37
 1370 001e 8A07     		slli	a5,a5,2
 1371              		.loc 1 640 9
 1372 0020 3D47     		li	a4,15
 1373 0022 B317F700 		sll	a5,a4,a5
 1374 0026 2326F4FE 		sw	a5,-20(s0)
 641:Drivers/src/ch32v20x_gpio.c ****     AFIO->EXTICR[GPIO_PinSource >> 0x02] &= ~tmp;
 1375              		.loc 1 641 9
 1376 002a 37070140 		li	a4,1073807360
 1377              		.loc 1 641 17
 1378 002e 8347E4FD 		lbu	a5,-34(s0)
 1379 0032 8983     		srli	a5,a5,2
 1380 0034 93F7F70F 		andi	a5,a5,0xff
 1381 0038 8A07     		slli	a5,a5,2
 1382 003a BA97     		add	a5,a4,a5
 1383 003c 9847     		lw	a4,8(a5)
 1384              		.loc 1 641 45
 1385 003e 8327C4FE 		lw	a5,-20(s0)
 1386 0042 93C7F7FF 		not	a5,a5
 1387              		.loc 1 641 9
 1388 0046 B7060140 		li	a3,1073807360
 1389              		.loc 1 641 17
 1390 004a 0346E4FD 		lbu	a2,-34(s0)
 1391 004e 0982     		srli	a2,a2,2
 1392 0050 1376F60F 		andi	a2,a2,0xff
 1393              		.loc 1 641 42
 1394 0054 7D8F     		and	a4,a4,a5
 1395 0056 93172600 		slli	a5,a2,2
 1396 005a B697     		add	a5,a3,a5
 1397 005c 98C7     		sw	a4,8(a5)
 642:Drivers/src/ch32v20x_gpio.c ****     AFIO->EXTICR[GPIO_PinSource >> 0x02] |= (((uint32_t)GPIO_PortSource) << (0x04 * (GPIO_PinSource
 1398              		.loc 1 642 9
 1399 005e 37070140 		li	a4,1073807360
 1400              		.loc 1 642 17
 1401 0062 8347E4FD 		lbu	a5,-34(s0)
 1402 0066 8983     		srli	a5,a5,2
 1403 0068 93F7F70F 		andi	a5,a5,0xff
 1404 006c 8A07     		slli	a5,a5,2
 1405 006e BA97     		add	a5,a4,a5
 1406 0070 9847     		lw	a4,8(a5)
 1407              		.loc 1 642 47
 1408 0072 8346F4FD 		lbu	a3,-33(s0)
 1409              		.loc 1 642 101
 1410 0076 8347E4FD 		lbu	a5,-34(s0)
 1411 007a 8D8B     		andi	a5,a5,3
 1412              		.loc 1 642 83
GAS LISTING C:\Users\SOLDER~1\AppData\Local\Temp\ccdovRCu.s 			page 37


 1413 007c 8A07     		slli	a5,a5,2
 1414              		.loc 1 642 74
 1415 007e B397F600 		sll	a5,a3,a5
 1416              		.loc 1 642 9
 1417 0082 B7060140 		li	a3,1073807360
 1418              		.loc 1 642 17
 1419 0086 0346E4FD 		lbu	a2,-34(s0)
 1420 008a 0982     		srli	a2,a2,2
 1421 008c 1376F60F 		andi	a2,a2,0xff
 1422              		.loc 1 642 42
 1423 0090 5D8F     		or	a4,a4,a5
 1424 0092 93172600 		slli	a5,a2,2
 1425 0096 B697     		add	a5,a3,a5
 1426 0098 98C7     		sw	a4,8(a5)
 643:Drivers/src/ch32v20x_gpio.c **** }
 1427              		.loc 1 643 1
 1428 009a 0100     		nop
 1429 009c 3254     		lw	s0,44(sp)
 1430              		.cfi_restore 8
 1431              		.cfi_def_cfa 2, 48
 1432 009e 4561     		addi	sp,sp,48
 1433              		.cfi_def_cfa_offset 0
 1434 00a0 8280     		jr	ra
 1435              		.cfi_endproc
 1436              	.LFE32:
 1438              		.section	.text.GPIO_ETH_MediaInterfaceConfig,"ax",@progbits
 1439              		.align	1
 1440              		.globl	GPIO_ETH_MediaInterfaceConfig
 1442              	GPIO_ETH_MediaInterfaceConfig:
 1443              	.LFB33:
 644:Drivers/src/ch32v20x_gpio.c **** 
 645:Drivers/src/ch32v20x_gpio.c **** /*********************************************************************
 646:Drivers/src/ch32v20x_gpio.c ****  * @fn      GPIO_ETH_MediaInterfaceConfig
 647:Drivers/src/ch32v20x_gpio.c ****  *
 648:Drivers/src/ch32v20x_gpio.c ****  * @brief   Selects the Ethernet media interface.
 649:Drivers/src/ch32v20x_gpio.c ****  *
 650:Drivers/src/ch32v20x_gpio.c ****  * @param   GPIO_ETH_MediaInterface - specifies the Media Interface mode.
 651:Drivers/src/ch32v20x_gpio.c ****  *            GPIO_ETH_MediaInterface_MII - MII mode
 652:Drivers/src/ch32v20x_gpio.c ****  *            GPIO_ETH_MediaInterface_RMII - RMII mode
 653:Drivers/src/ch32v20x_gpio.c ****  *
 654:Drivers/src/ch32v20x_gpio.c ****  * @return  none
 655:Drivers/src/ch32v20x_gpio.c ****  */
 656:Drivers/src/ch32v20x_gpio.c **** void GPIO_ETH_MediaInterfaceConfig(uint32_t GPIO_ETH_MediaInterface)
 657:Drivers/src/ch32v20x_gpio.c **** {
 1444              		.loc 1 657 1
 1445              		.cfi_startproc
 1446 0000 0111     		addi	sp,sp,-32
 1447              		.cfi_def_cfa_offset 32
 1448 0002 22CE     		sw	s0,28(sp)
 1449              		.cfi_offset 8, -4
 1450 0004 0010     		addi	s0,sp,32
 1451              		.cfi_def_cfa 8, 0
 1452 0006 2326A4FE 		sw	a0,-20(s0)
 658:Drivers/src/ch32v20x_gpio.c ****     if(GPIO_ETH_MediaInterface)
 1453              		.loc 1 658 7
 1454 000a 8327C4FE 		lw	a5,-20(s0)
 1455 000e 99CB     		beq	a5,zero,.L76
GAS LISTING C:\Users\SOLDER~1\AppData\Local\Temp\ccdovRCu.s 			page 38


 659:Drivers/src/ch32v20x_gpio.c ****     {
 660:Drivers/src/ch32v20x_gpio.c ****         AFIO->PCFR1 |= (1 << 23);
 1456              		.loc 1 660 13
 1457 0010 B7070140 		li	a5,1073807360
 1458 0014 D443     		lw	a3,4(a5)
 1459 0016 B7070140 		li	a5,1073807360
 1460              		.loc 1 660 21
 1461 001a 37078000 		li	a4,8388608
 1462 001e 558F     		or	a4,a3,a4
 1463 0020 D8C3     		sw	a4,4(a5)
 661:Drivers/src/ch32v20x_gpio.c ****     }
 662:Drivers/src/ch32v20x_gpio.c ****     else
 663:Drivers/src/ch32v20x_gpio.c ****     {
 664:Drivers/src/ch32v20x_gpio.c ****         AFIO->PCFR1 &= ~(1 << 23);
 665:Drivers/src/ch32v20x_gpio.c ****     }
 666:Drivers/src/ch32v20x_gpio.c **** }
 1464              		.loc 1 666 1
 1465 0022 19A8     		j	.L78
 1466              	.L76:
 664:Drivers/src/ch32v20x_gpio.c ****     }
 1467              		.loc 1 664 13
 1468 0024 B7070140 		li	a5,1073807360
 1469 0028 D443     		lw	a3,4(a5)
 1470 002a B7070140 		li	a5,1073807360
 664:Drivers/src/ch32v20x_gpio.c ****     }
 1471              		.loc 1 664 21
 1472 002e 370780FF 		li	a4,-8388608
 1473 0032 7D17     		addi	a4,a4,-1
 1474 0034 758F     		and	a4,a3,a4
 1475 0036 D8C3     		sw	a4,4(a5)
 1476              	.L78:
 1477              		.loc 1 666 1
 1478 0038 0100     		nop
 1479 003a 7244     		lw	s0,28(sp)
 1480              		.cfi_restore 8
 1481              		.cfi_def_cfa 2, 32
 1482 003c 0561     		addi	sp,sp,32
 1483              		.cfi_def_cfa_offset 0
 1484 003e 8280     		jr	ra
 1485              		.cfi_endproc
 1486              	.LFE33:
 1488              		.text
 1489              	.Letext0:
 1490              		.file 2 "c:\\dev_tools\\ch32_tools\\risc-v_embedded_gcc12\\riscv-none-elf\\include\\machine\\_defa
 1491              		.file 3 "c:\\dev_tools\\ch32_tools\\risc-v_embedded_gcc12\\riscv-none-elf\\include\\sys\\_stdint.h
 1492              		.file 4 "Drivers/inc/core_riscv.h"
 1493              		.file 5 "Drivers/inc/ch32v20x.h"
 1494              		.file 6 "Drivers/inc/ch32v20x_gpio.h"
 1495              		.file 7 "Drivers/inc/ch32v20x_rcc.h"
GAS LISTING C:\Users\SOLDER~1\AppData\Local\Temp\ccdovRCu.s 			page 39

