GAS LISTING C:\Users\SOLDER~1\AppData\Local\Temp\cchmqEOm.s 			page 1


   1              		.file	"ch32v20x_rcc.c"
   2              		.option nopic
   3              		.attribute arch, "rv32i2p0_m2p0_a2p0_c2p0_xw"
   4              		.attribute unaligned_access, 0
   5              		.attribute stack_align, 16
   6              		.text
   7              	.Ltext0:
   8              		.cfi_sections	.debug_frame
   9              		.file 0 "C:\\Users\\Solderingiron\\Documents\\GitHub\\VSC-make-example\\VSC_CH32V203C8T6" "Drivers
  10              		.section	.data.APBAHBPrescTable,"aw"
  11              		.align	2
  14              	APBAHBPrescTable:
  15 0000 00       		.string	""
  16 0001 00       		.string	""
  17 0002 00       		.string	""
  18 0003 00       		.string	""
  19 0004 01020304 		.ascii	"\001\002\003\004\001\002\003\004\006\007\b\t"
  19      01020304 
  19      06070809 
  20              		.section	.sdata.ADCPrescTable,"aw"
  21              		.align	2
  24              	ADCPrescTable:
  25 0000 02040608 		.ascii	"\002\004\006\b"
  26              		.section	.text.RCC_DeInit,"ax",@progbits
  27              		.align	1
  28              		.globl	RCC_DeInit
  30              	RCC_DeInit:
  31              	.LFB16:
  32              		.file 1 "Drivers/src/ch32v20x_rcc.c"
   1:Drivers/src/ch32v20x_rcc.c **** /********************************** (C) COPYRIGHT *******************************
   2:Drivers/src/ch32v20x_rcc.c ****  * File Name          : ch32v20x_rcc.c
   3:Drivers/src/ch32v20x_rcc.c ****  * Author             : WCH
   4:Drivers/src/ch32v20x_rcc.c ****  * Version            : V1.0.0
   5:Drivers/src/ch32v20x_rcc.c ****  * Date               : 2021/06/06
   6:Drivers/src/ch32v20x_rcc.c ****  * Description        : This file provides all the RCC firmware functions.
   7:Drivers/src/ch32v20x_rcc.c **** *********************************************************************************
   8:Drivers/src/ch32v20x_rcc.c **** * Copyright (c) 2021 Nanjing Qinheng Microelectronics Co., Ltd.
   9:Drivers/src/ch32v20x_rcc.c **** * Attention: This software (modified or not) and binary are used for 
  10:Drivers/src/ch32v20x_rcc.c **** * microcontroller manufactured by Nanjing Qinheng Microelectronics.
  11:Drivers/src/ch32v20x_rcc.c **** *******************************************************************************/ 
  12:Drivers/src/ch32v20x_rcc.c **** #include "ch32v20x_rcc.h"
  13:Drivers/src/ch32v20x_rcc.c **** 
  14:Drivers/src/ch32v20x_rcc.c **** /* RCC registers bit address in the alias region */
  15:Drivers/src/ch32v20x_rcc.c **** #define RCC_OFFSET                (RCC_BASE - PERIPH_BASE)
  16:Drivers/src/ch32v20x_rcc.c **** 
  17:Drivers/src/ch32v20x_rcc.c **** /* BDCTLR Register */
  18:Drivers/src/ch32v20x_rcc.c **** #define BDCTLR_OFFSET             (RCC_OFFSET + 0x20)
  19:Drivers/src/ch32v20x_rcc.c **** 
  20:Drivers/src/ch32v20x_rcc.c **** /* RCC registers bit mask */
  21:Drivers/src/ch32v20x_rcc.c **** 
  22:Drivers/src/ch32v20x_rcc.c **** /* CTLR register bit mask */
  23:Drivers/src/ch32v20x_rcc.c **** #define CTLR_HSEBYP_Reset           ((uint32_t)0xFFFBFFFF)
  24:Drivers/src/ch32v20x_rcc.c **** #define CTLR_HSEBYP_Set             ((uint32_t)0x00040000)
  25:Drivers/src/ch32v20x_rcc.c **** #define CTLR_HSEON_Reset            ((uint32_t)0xFFFEFFFF)
  26:Drivers/src/ch32v20x_rcc.c **** #define CTLR_HSEON_Set              ((uint32_t)0x00010000)
  27:Drivers/src/ch32v20x_rcc.c **** #define CTLR_HSITRIM_Mask           ((uint32_t)0xFFFFFF07)
  28:Drivers/src/ch32v20x_rcc.c **** 
GAS LISTING C:\Users\SOLDER~1\AppData\Local\Temp\cchmqEOm.s 			page 2


  29:Drivers/src/ch32v20x_rcc.c **** #define CFGR0_PLL_Mask              ((uint32_t)0xFFC0FFFF) 
  30:Drivers/src/ch32v20x_rcc.c **** 
  31:Drivers/src/ch32v20x_rcc.c **** #define CFGR0_PLLMull_Mask          ((uint32_t)0x003C0000)
  32:Drivers/src/ch32v20x_rcc.c **** #define CFGR0_PLLSRC_Mask           ((uint32_t)0x00010000)
  33:Drivers/src/ch32v20x_rcc.c **** #define CFGR0_PLLXTPRE_Mask         ((uint32_t)0x00020000)
  34:Drivers/src/ch32v20x_rcc.c **** #define CFGR0_SWS_Mask              ((uint32_t)0x0000000C)
  35:Drivers/src/ch32v20x_rcc.c **** #define CFGR0_SW_Mask               ((uint32_t)0xFFFFFFFC)
  36:Drivers/src/ch32v20x_rcc.c **** #define CFGR0_HPRE_Reset_Mask       ((uint32_t)0xFFFFFF0F)
  37:Drivers/src/ch32v20x_rcc.c **** #define CFGR0_HPRE_Set_Mask         ((uint32_t)0x000000F0)
  38:Drivers/src/ch32v20x_rcc.c **** #define CFGR0_PPRE1_Reset_Mask      ((uint32_t)0xFFFFF8FF)
  39:Drivers/src/ch32v20x_rcc.c **** #define CFGR0_PPRE1_Set_Mask        ((uint32_t)0x00000700)
  40:Drivers/src/ch32v20x_rcc.c **** #define CFGR0_PPRE2_Reset_Mask      ((uint32_t)0xFFFFC7FF)
  41:Drivers/src/ch32v20x_rcc.c **** #define CFGR0_PPRE2_Set_Mask        ((uint32_t)0x00003800)
  42:Drivers/src/ch32v20x_rcc.c **** #define CFGR0_ADCPRE_Reset_Mask     ((uint32_t)0xFFFF3FFF)
  43:Drivers/src/ch32v20x_rcc.c **** #define CFGR0_ADCPRE_Set_Mask       ((uint32_t)0x0000C000)
  44:Drivers/src/ch32v20x_rcc.c **** 
  45:Drivers/src/ch32v20x_rcc.c **** /* RSTSCKR register bit mask */
  46:Drivers/src/ch32v20x_rcc.c **** #define RSTSCKR_RMVF_Set            ((uint32_t)0x01000000)
  47:Drivers/src/ch32v20x_rcc.c **** 
  48:Drivers/src/ch32v20x_rcc.c **** /* CFGR2 register bit mask */
  49:Drivers/src/ch32v20x_rcc.c **** #define CFGR2_PREDIV1SRC            ((uint32_t)0x00010000)
  50:Drivers/src/ch32v20x_rcc.c **** #define CFGR2_PREDIV1               ((uint32_t)0x0000000F)
  51:Drivers/src/ch32v20x_rcc.c **** #define CFGR2_PREDIV2               ((uint32_t)0x000000F0)
  52:Drivers/src/ch32v20x_rcc.c **** #define CFGR2_PLL2MUL               ((uint32_t)0x00000F00)
  53:Drivers/src/ch32v20x_rcc.c **** #define CFGR2_PLL3MUL               ((uint32_t)0x0000F000)
  54:Drivers/src/ch32v20x_rcc.c **** 
  55:Drivers/src/ch32v20x_rcc.c **** /* RCC Flag Mask */
  56:Drivers/src/ch32v20x_rcc.c **** #define FLAG_Mask                   ((uint8_t)0x1F)
  57:Drivers/src/ch32v20x_rcc.c **** 
  58:Drivers/src/ch32v20x_rcc.c **** /* INTR register byte 2 (Bits[15:8]) base address */
  59:Drivers/src/ch32v20x_rcc.c **** #define INTR_BYTE2_ADDRESS          ((uint32_t)0x40021009)
  60:Drivers/src/ch32v20x_rcc.c **** 
  61:Drivers/src/ch32v20x_rcc.c **** /* INTR register byte 3 (Bits[23:16]) base address */
  62:Drivers/src/ch32v20x_rcc.c **** #define INTR_BYTE3_ADDRESS          ((uint32_t)0x4002100A)
  63:Drivers/src/ch32v20x_rcc.c **** 
  64:Drivers/src/ch32v20x_rcc.c **** /* CFGR0 register byte 4 (Bits[31:24]) base address */
  65:Drivers/src/ch32v20x_rcc.c **** #define CFGR0_BYTE4_ADDRESS         ((uint32_t)0x40021007)
  66:Drivers/src/ch32v20x_rcc.c **** 
  67:Drivers/src/ch32v20x_rcc.c **** /* BDCTLR register base address */
  68:Drivers/src/ch32v20x_rcc.c **** #define BDCTLR_ADDRESS              (PERIPH_BASE + BDCTLR_OFFSET)
  69:Drivers/src/ch32v20x_rcc.c **** 
  70:Drivers/src/ch32v20x_rcc.c **** 
  71:Drivers/src/ch32v20x_rcc.c **** static __I uint8_t APBAHBPrescTable[16] = {0, 0, 0, 0, 1, 2, 3, 4, 1, 2, 3, 4, 6, 7, 8, 9};
  72:Drivers/src/ch32v20x_rcc.c **** static __I uint8_t ADCPrescTable[4] = {2, 4, 6, 8};
  73:Drivers/src/ch32v20x_rcc.c **** 
  74:Drivers/src/ch32v20x_rcc.c **** /*********************************************************************
  75:Drivers/src/ch32v20x_rcc.c ****  * @fn      RCC_DeInit
  76:Drivers/src/ch32v20x_rcc.c ****  *
  77:Drivers/src/ch32v20x_rcc.c ****  * @brief   Resets the RCC clock configuration to the default reset state.
  78:Drivers/src/ch32v20x_rcc.c ****  *          Note-
  79:Drivers/src/ch32v20x_rcc.c ****  *          HSE can not be stopped if it is used directly or through the PLL as system clock.
  80:Drivers/src/ch32v20x_rcc.c ****  * @return  none
  81:Drivers/src/ch32v20x_rcc.c ****  */
  82:Drivers/src/ch32v20x_rcc.c **** void RCC_DeInit(void)
  83:Drivers/src/ch32v20x_rcc.c **** {
  33              		.loc 1 83 1
  34              		.cfi_startproc
GAS LISTING C:\Users\SOLDER~1\AppData\Local\Temp\cchmqEOm.s 			page 3


  35 0000 4111     		addi	sp,sp,-16
  36              		.cfi_def_cfa_offset 16
  37 0002 22C6     		sw	s0,12(sp)
  38              		.cfi_offset 8, -4
  39 0004 0008     		addi	s0,sp,16
  40              		.cfi_def_cfa 8, 0
  84:Drivers/src/ch32v20x_rcc.c ****   RCC->CTLR |= (uint32_t)0x00000001;
  41              		.loc 1 84 6
  42 0006 B7170240 		li	a5,1073876992
  43 000a 9843     		lw	a4,0(a5)
  44 000c B7170240 		li	a5,1073876992
  45              		.loc 1 84 13
  46 0010 13671700 		ori	a4,a4,1
  47 0014 98C3     		sw	a4,0(a5)
  85:Drivers/src/ch32v20x_rcc.c ****   RCC->CFGR0 &= (uint32_t)0xF8FF0000;  
  48              		.loc 1 85 6
  49 0016 B7170240 		li	a5,1073876992
  50 001a D443     		lw	a3,4(a5)
  51 001c B7170240 		li	a5,1073876992
  52              		.loc 1 85 14
  53 0020 3707FFF8 		li	a4,-117506048
  54 0024 758F     		and	a4,a3,a4
  55 0026 D8C3     		sw	a4,4(a5)
  86:Drivers/src/ch32v20x_rcc.c ****   RCC->CTLR &= (uint32_t)0xFEF6FFFF;
  56              		.loc 1 86 6
  57 0028 B7170240 		li	a5,1073876992
  58 002c 9443     		lw	a3,0(a5)
  59 002e B7170240 		li	a5,1073876992
  60              		.loc 1 86 13
  61 0032 3707F7FE 		li	a4,-17367040
  62 0036 7D17     		addi	a4,a4,-1
  63 0038 758F     		and	a4,a3,a4
  64 003a 98C3     		sw	a4,0(a5)
  87:Drivers/src/ch32v20x_rcc.c ****   RCC->CTLR &= (uint32_t)0xFFFBFFFF;
  65              		.loc 1 87 6
  66 003c B7170240 		li	a5,1073876992
  67 0040 9443     		lw	a3,0(a5)
  68 0042 B7170240 		li	a5,1073876992
  69              		.loc 1 87 13
  70 0046 3707FCFF 		li	a4,-262144
  71 004a 7D17     		addi	a4,a4,-1
  72 004c 758F     		and	a4,a3,a4
  73 004e 98C3     		sw	a4,0(a5)
  88:Drivers/src/ch32v20x_rcc.c ****   RCC->CFGR0 &= (uint32_t)0xFF80FFFF;
  74              		.loc 1 88 6
  75 0050 B7170240 		li	a5,1073876992
  76 0054 D443     		lw	a3,4(a5)
  77 0056 B7170240 		li	a5,1073876992
  78              		.loc 1 88 14
  79 005a 370781FF 		li	a4,-8323072
  80 005e 7D17     		addi	a4,a4,-1
  81 0060 758F     		and	a4,a3,a4
  82 0062 D8C3     		sw	a4,4(a5)
  89:Drivers/src/ch32v20x_rcc.c ****   RCC->INTR = 0x009F0000;
  83              		.loc 1 89 6
  84 0064 B7170240 		li	a5,1073876992
  85              		.loc 1 89 13
GAS LISTING C:\Users\SOLDER~1\AppData\Local\Temp\cchmqEOm.s 			page 4


  86 0068 37079F00 		li	a4,10420224
  87 006c 98C7     		sw	a4,8(a5)
  90:Drivers/src/ch32v20x_rcc.c **** }
  88              		.loc 1 90 1
  89 006e 0100     		nop
  90 0070 3244     		lw	s0,12(sp)
  91              		.cfi_restore 8
  92              		.cfi_def_cfa 2, 16
  93 0072 4101     		addi	sp,sp,16
  94              		.cfi_def_cfa_offset 0
  95 0074 8280     		jr	ra
  96              		.cfi_endproc
  97              	.LFE16:
  99              		.section	.text.RCC_HSEConfig,"ax",@progbits
 100              		.align	1
 101              		.globl	RCC_HSEConfig
 103              	RCC_HSEConfig:
 104              	.LFB17:
  91:Drivers/src/ch32v20x_rcc.c **** 
  92:Drivers/src/ch32v20x_rcc.c **** /*********************************************************************
  93:Drivers/src/ch32v20x_rcc.c ****  * @fn      RCC_HSEConfig
  94:Drivers/src/ch32v20x_rcc.c ****  *
  95:Drivers/src/ch32v20x_rcc.c ****  * @brief   Configures the External High Speed oscillator (HSE).
  96:Drivers/src/ch32v20x_rcc.c ****  *
  97:Drivers/src/ch32v20x_rcc.c ****  * @param   RCC_HSE -
  98:Drivers/src/ch32v20x_rcc.c ****  *            RCC_HSE_OFF - HSE oscillator OFF.
  99:Drivers/src/ch32v20x_rcc.c ****  *            RCC_HSE_ON - HSE oscillator ON.
 100:Drivers/src/ch32v20x_rcc.c ****  *            RCC_HSE_Bypass - HSE oscillator bypassed with external clock.
 101:Drivers/src/ch32v20x_rcc.c ****  *            Note-
 102:Drivers/src/ch32v20x_rcc.c ****  *            HSE can not be stopped if it is used directly or through the PLL as system clock.
 103:Drivers/src/ch32v20x_rcc.c ****  * @return  none
 104:Drivers/src/ch32v20x_rcc.c ****  */
 105:Drivers/src/ch32v20x_rcc.c **** void RCC_HSEConfig(uint32_t RCC_HSE)
 106:Drivers/src/ch32v20x_rcc.c **** {
 105              		.loc 1 106 1
 106              		.cfi_startproc
 107 0000 0111     		addi	sp,sp,-32
 108              		.cfi_def_cfa_offset 32
 109 0002 22CE     		sw	s0,28(sp)
 110              		.cfi_offset 8, -4
 111 0004 0010     		addi	s0,sp,32
 112              		.cfi_def_cfa 8, 0
 113 0006 2326A4FE 		sw	a0,-20(s0)
 107:Drivers/src/ch32v20x_rcc.c ****   RCC->CTLR &= CTLR_HSEON_Reset;
 114              		.loc 1 107 6
 115 000a B7170240 		li	a5,1073876992
 116 000e 9443     		lw	a3,0(a5)
 117 0010 B7170240 		li	a5,1073876992
 118              		.loc 1 107 13
 119 0014 4177     		li	a4,-65536
 120 0016 7D17     		addi	a4,a4,-1
 121 0018 758F     		and	a4,a3,a4
 122 001a 98C3     		sw	a4,0(a5)
 108:Drivers/src/ch32v20x_rcc.c ****   RCC->CTLR &= CTLR_HSEBYP_Reset;
 123              		.loc 1 108 6
 124 001c B7170240 		li	a5,1073876992
 125 0020 9443     		lw	a3,0(a5)
GAS LISTING C:\Users\SOLDER~1\AppData\Local\Temp\cchmqEOm.s 			page 5


 126 0022 B7170240 		li	a5,1073876992
 127              		.loc 1 108 13
 128 0026 3707FCFF 		li	a4,-262144
 129 002a 7D17     		addi	a4,a4,-1
 130 002c 758F     		and	a4,a3,a4
 131 002e 98C3     		sw	a4,0(a5)
 109:Drivers/src/ch32v20x_rcc.c **** 
 110:Drivers/src/ch32v20x_rcc.c ****   switch(RCC_HSE)
 132              		.loc 1 110 3
 133 0030 0327C4FE 		lw	a4,-20(s0)
 134 0034 C167     		li	a5,65536
 135 0036 6309F700 		beq	a4,a5,.L3
 136 003a 0327C4FE 		lw	a4,-20(s0)
 137 003e B7070400 		li	a5,262144
 138 0042 630CF700 		beq	a4,a5,.L4
 111:Drivers/src/ch32v20x_rcc.c ****   {
 112:Drivers/src/ch32v20x_rcc.c ****     case RCC_HSE_ON:
 113:Drivers/src/ch32v20x_rcc.c ****       RCC->CTLR |= CTLR_HSEON_Set;
 114:Drivers/src/ch32v20x_rcc.c ****       break;
 115:Drivers/src/ch32v20x_rcc.c ****       
 116:Drivers/src/ch32v20x_rcc.c ****     case RCC_HSE_Bypass:
 117:Drivers/src/ch32v20x_rcc.c ****       RCC->CTLR |= CTLR_HSEBYP_Set | CTLR_HSEON_Set;
 118:Drivers/src/ch32v20x_rcc.c ****       break;
 119:Drivers/src/ch32v20x_rcc.c ****       
 120:Drivers/src/ch32v20x_rcc.c ****     default:
 121:Drivers/src/ch32v20x_rcc.c ****       break;
 139              		.loc 1 121 7
 140 0046 25A0     		j	.L6
 141              	.L3:
 113:Drivers/src/ch32v20x_rcc.c ****       break;
 142              		.loc 1 113 10
 143 0048 B7170240 		li	a5,1073876992
 144 004c 9443     		lw	a3,0(a5)
 145 004e B7170240 		li	a5,1073876992
 113:Drivers/src/ch32v20x_rcc.c ****       break;
 146              		.loc 1 113 17
 147 0052 4167     		li	a4,65536
 148 0054 558F     		or	a4,a3,a4
 149 0056 98C3     		sw	a4,0(a5)
 114:Drivers/src/ch32v20x_rcc.c ****       
 150              		.loc 1 114 7
 151 0058 19A8     		j	.L6
 152              	.L4:
 117:Drivers/src/ch32v20x_rcc.c ****       break;
 153              		.loc 1 117 10
 154 005a B7170240 		li	a5,1073876992
 155 005e 9443     		lw	a3,0(a5)
 156 0060 B7170240 		li	a5,1073876992
 117:Drivers/src/ch32v20x_rcc.c ****       break;
 157              		.loc 1 117 17
 158 0064 37070500 		li	a4,327680
 159 0068 558F     		or	a4,a3,a4
 160 006a 98C3     		sw	a4,0(a5)
 118:Drivers/src/ch32v20x_rcc.c ****       
 161              		.loc 1 118 7
 162 006c 0100     		nop
 163              	.L6:
GAS LISTING C:\Users\SOLDER~1\AppData\Local\Temp\cchmqEOm.s 			page 6


 122:Drivers/src/ch32v20x_rcc.c ****   }
 123:Drivers/src/ch32v20x_rcc.c **** }
 164              		.loc 1 123 1
 165 006e 0100     		nop
 166 0070 7244     		lw	s0,28(sp)
 167              		.cfi_restore 8
 168              		.cfi_def_cfa 2, 32
 169 0072 0561     		addi	sp,sp,32
 170              		.cfi_def_cfa_offset 0
 171 0074 8280     		jr	ra
 172              		.cfi_endproc
 173              	.LFE17:
 175              		.section	.text.RCC_WaitForHSEStartUp,"ax",@progbits
 176              		.align	1
 177              		.globl	RCC_WaitForHSEStartUp
 179              	RCC_WaitForHSEStartUp:
 180              	.LFB18:
 124:Drivers/src/ch32v20x_rcc.c **** 
 125:Drivers/src/ch32v20x_rcc.c **** /*********************************************************************
 126:Drivers/src/ch32v20x_rcc.c ****  * @fn      RCC_WaitForHSEStartUp
 127:Drivers/src/ch32v20x_rcc.c ****  *
 128:Drivers/src/ch32v20x_rcc.c ****  * @brief   Waits for HSE start-up.
 129:Drivers/src/ch32v20x_rcc.c ****  *
 130:Drivers/src/ch32v20x_rcc.c ****  * @return  READY - HSE oscillator is stable and ready to use.
 131:Drivers/src/ch32v20x_rcc.c ****  *          NoREADY - HSE oscillator not yet ready.
 132:Drivers/src/ch32v20x_rcc.c ****  */
 133:Drivers/src/ch32v20x_rcc.c **** ErrorStatus RCC_WaitForHSEStartUp(void)
 134:Drivers/src/ch32v20x_rcc.c **** {
 181              		.loc 1 134 1
 182              		.cfi_startproc
 183 0000 0111     		addi	sp,sp,-32
 184              		.cfi_def_cfa_offset 32
 185 0002 06CE     		sw	ra,28(sp)
 186 0004 22CC     		sw	s0,24(sp)
 187              		.cfi_offset 1, -4
 188              		.cfi_offset 8, -8
 189 0006 0010     		addi	s0,sp,32
 190              		.cfi_def_cfa 8, 0
 135:Drivers/src/ch32v20x_rcc.c ****   __IO uint32_t StartUpCounter = 0;
 191              		.loc 1 135 17
 192 0008 232204FE 		sw	zero,-28(s0)
 136:Drivers/src/ch32v20x_rcc.c **** 	
 137:Drivers/src/ch32v20x_rcc.c ****   ErrorStatus status = NoREADY;
 193              		.loc 1 137 15
 194 000c 232604FE 		sw	zero,-20(s0)
 138:Drivers/src/ch32v20x_rcc.c ****   FlagStatus HSEStatus = RESET;
 195              		.loc 1 138 14
 196 0010 232404FE 		sw	zero,-24(s0)
 197              	.L9:
 139:Drivers/src/ch32v20x_rcc.c ****   
 140:Drivers/src/ch32v20x_rcc.c ****   do
 141:Drivers/src/ch32v20x_rcc.c ****   {
 142:Drivers/src/ch32v20x_rcc.c ****     HSEStatus = RCC_GetFlagStatus(RCC_FLAG_HSERDY);
 198              		.loc 1 142 17 discriminator 2
 199 0014 13051003 		li	a0,49
 200 0018 97000000 		call	RCC_GetFlagStatus
 200      E7800000 
GAS LISTING C:\Users\SOLDER~1\AppData\Local\Temp\cchmqEOm.s 			page 7


 201 0020 2324A4FE 		sw	a0,-24(s0)
 143:Drivers/src/ch32v20x_rcc.c ****     StartUpCounter++;  
 202              		.loc 1 143 19 discriminator 2
 203 0024 832744FE 		lw	a5,-28(s0)
 204 0028 8507     		addi	a5,a5,1
 205 002a 2322F4FE 		sw	a5,-28(s0)
 144:Drivers/src/ch32v20x_rcc.c ****   } while((StartUpCounter != HSE_STARTUP_TIMEOUT) && (HSEStatus == RESET));
 206              		.loc 1 144 27 discriminator 2
 207 002e 032744FE 		lw	a4,-28(s0)
 208              		.loc 1 144 51 discriminator 2
 209 0032 8567     		li	a5,4096
 210 0034 6305F700 		beq	a4,a5,.L8
 211              		.loc 1 144 51 is_stmt 0 discriminator 1
 212 0038 832784FE 		lw	a5,-24(s0)
 213 003c E1DF     		beq	a5,zero,.L9
 214              	.L8:
 145:Drivers/src/ch32v20x_rcc.c ****   
 146:Drivers/src/ch32v20x_rcc.c ****   if (RCC_GetFlagStatus(RCC_FLAG_HSERDY) != RESET)
 215              		.loc 1 146 7 is_stmt 1
 216 003e 13051003 		li	a0,49
 217 0042 97000000 		call	RCC_GetFlagStatus
 217      E7800000 
 218 004a AA87     		mv	a5,a0
 219              		.loc 1 146 6
 220 004c 89C7     		beq	a5,zero,.L10
 147:Drivers/src/ch32v20x_rcc.c ****   {
 148:Drivers/src/ch32v20x_rcc.c ****     status = READY;
 221              		.loc 1 148 12
 222 004e 8547     		li	a5,1
 223 0050 2326F4FE 		sw	a5,-20(s0)
 224 0054 19A0     		j	.L11
 225              	.L10:
 149:Drivers/src/ch32v20x_rcc.c ****   }
 150:Drivers/src/ch32v20x_rcc.c ****   else
 151:Drivers/src/ch32v20x_rcc.c ****   {
 152:Drivers/src/ch32v20x_rcc.c ****     status = NoREADY;
 226              		.loc 1 152 12
 227 0056 232604FE 		sw	zero,-20(s0)
 228              	.L11:
 153:Drivers/src/ch32v20x_rcc.c ****   }  
 154:Drivers/src/ch32v20x_rcc.c **** 	
 155:Drivers/src/ch32v20x_rcc.c ****   return (status);
 229              		.loc 1 155 10
 230 005a 8327C4FE 		lw	a5,-20(s0)
 156:Drivers/src/ch32v20x_rcc.c **** }
 231              		.loc 1 156 1
 232 005e 3E85     		mv	a0,a5
 233 0060 F240     		lw	ra,28(sp)
 234              		.cfi_restore 1
 235 0062 6244     		lw	s0,24(sp)
 236              		.cfi_restore 8
 237              		.cfi_def_cfa 2, 32
 238 0064 0561     		addi	sp,sp,32
 239              		.cfi_def_cfa_offset 0
 240 0066 8280     		jr	ra
 241              		.cfi_endproc
 242              	.LFE18:
GAS LISTING C:\Users\SOLDER~1\AppData\Local\Temp\cchmqEOm.s 			page 8


 244              		.section	.text.RCC_AdjustHSICalibrationValue,"ax",@progbits
 245              		.align	1
 246              		.globl	RCC_AdjustHSICalibrationValue
 248              	RCC_AdjustHSICalibrationValue:
 249              	.LFB19:
 157:Drivers/src/ch32v20x_rcc.c **** 
 158:Drivers/src/ch32v20x_rcc.c **** /*********************************************************************
 159:Drivers/src/ch32v20x_rcc.c ****  * @fn      RCC_AdjustHSICalibrationValue
 160:Drivers/src/ch32v20x_rcc.c ****  *
 161:Drivers/src/ch32v20x_rcc.c ****  * @brief   Adjusts the Internal High Speed oscillator (HSI) calibration value.
 162:Drivers/src/ch32v20x_rcc.c ****  *
 163:Drivers/src/ch32v20x_rcc.c ****  * @param   HSICalibrationValue - specifies the calibration trimming value.
 164:Drivers/src/ch32v20x_rcc.c ****  *                    This parameter must be a number between 0 and 0x1F.
 165:Drivers/src/ch32v20x_rcc.c ****  *
 166:Drivers/src/ch32v20x_rcc.c ****  * @return  none
 167:Drivers/src/ch32v20x_rcc.c ****  */
 168:Drivers/src/ch32v20x_rcc.c **** void RCC_AdjustHSICalibrationValue(uint8_t HSICalibrationValue)
 169:Drivers/src/ch32v20x_rcc.c **** {
 250              		.loc 1 169 1
 251              		.cfi_startproc
 252 0000 7971     		addi	sp,sp,-48
 253              		.cfi_def_cfa_offset 48
 254 0002 22D6     		sw	s0,44(sp)
 255              		.cfi_offset 8, -4
 256 0004 0018     		addi	s0,sp,48
 257              		.cfi_def_cfa 8, 0
 258 0006 AA87     		mv	a5,a0
 259 0008 A30FF4FC 		sb	a5,-33(s0)
 170:Drivers/src/ch32v20x_rcc.c ****   uint32_t tmpreg = 0;
 260              		.loc 1 170 12
 261 000c 232604FE 		sw	zero,-20(s0)
 171:Drivers/src/ch32v20x_rcc.c **** 
 172:Drivers/src/ch32v20x_rcc.c ****   tmpreg = RCC->CTLR;
 262              		.loc 1 172 15
 263 0010 B7170240 		li	a5,1073876992
 264              		.loc 1 172 10
 265 0014 9C43     		lw	a5,0(a5)
 266 0016 2326F4FE 		sw	a5,-20(s0)
 173:Drivers/src/ch32v20x_rcc.c ****   tmpreg &= CTLR_HSITRIM_Mask;
 267              		.loc 1 173 10
 268 001a 8327C4FE 		lw	a5,-20(s0)
 269 001e 93F777F0 		andi	a5,a5,-249
 270 0022 2326F4FE 		sw	a5,-20(s0)
 174:Drivers/src/ch32v20x_rcc.c ****   tmpreg |= (uint32_t)HSICalibrationValue << 3;
 271              		.loc 1 174 13
 272 0026 8347F4FD 		lbu	a5,-33(s0)
 273              		.loc 1 174 43
 274 002a 8E07     		slli	a5,a5,3
 275              		.loc 1 174 10
 276 002c 0327C4FE 		lw	a4,-20(s0)
 277 0030 D98F     		or	a5,a4,a5
 278 0032 2326F4FE 		sw	a5,-20(s0)
 175:Drivers/src/ch32v20x_rcc.c ****   RCC->CTLR = tmpreg;
 279              		.loc 1 175 6
 280 0036 B7170240 		li	a5,1073876992
 281              		.loc 1 175 13
 282 003a 0327C4FE 		lw	a4,-20(s0)
GAS LISTING C:\Users\SOLDER~1\AppData\Local\Temp\cchmqEOm.s 			page 9


 283 003e 98C3     		sw	a4,0(a5)
 176:Drivers/src/ch32v20x_rcc.c **** }
 284              		.loc 1 176 1
 285 0040 0100     		nop
 286 0042 3254     		lw	s0,44(sp)
 287              		.cfi_restore 8
 288              		.cfi_def_cfa 2, 48
 289 0044 4561     		addi	sp,sp,48
 290              		.cfi_def_cfa_offset 0
 291 0046 8280     		jr	ra
 292              		.cfi_endproc
 293              	.LFE19:
 295              		.section	.text.RCC_HSICmd,"ax",@progbits
 296              		.align	1
 297              		.globl	RCC_HSICmd
 299              	RCC_HSICmd:
 300              	.LFB20:
 177:Drivers/src/ch32v20x_rcc.c **** 
 178:Drivers/src/ch32v20x_rcc.c **** /*********************************************************************
 179:Drivers/src/ch32v20x_rcc.c ****  * @fn      RCC_HSICmd
 180:Drivers/src/ch32v20x_rcc.c ****  *
 181:Drivers/src/ch32v20x_rcc.c ****  * @brief   Enables or disables the Internal High Speed oscillator (HSI).
 182:Drivers/src/ch32v20x_rcc.c ****  *
 183:Drivers/src/ch32v20x_rcc.c ****  * @param   NewState - ENABLE or DISABLE.
 184:Drivers/src/ch32v20x_rcc.c ****  *
 185:Drivers/src/ch32v20x_rcc.c ****  * @return  none
 186:Drivers/src/ch32v20x_rcc.c ****  */
 187:Drivers/src/ch32v20x_rcc.c **** void RCC_HSICmd(FunctionalState NewState)
 188:Drivers/src/ch32v20x_rcc.c **** {
 301              		.loc 1 188 1
 302              		.cfi_startproc
 303 0000 0111     		addi	sp,sp,-32
 304              		.cfi_def_cfa_offset 32
 305 0002 22CE     		sw	s0,28(sp)
 306              		.cfi_offset 8, -4
 307 0004 0010     		addi	s0,sp,32
 308              		.cfi_def_cfa 8, 0
 309 0006 2326A4FE 		sw	a0,-20(s0)
 189:Drivers/src/ch32v20x_rcc.c **** 	if(NewState)
 310              		.loc 1 189 4
 311 000a 8327C4FE 		lw	a5,-20(s0)
 312 000e 91CB     		beq	a5,zero,.L15
 190:Drivers/src/ch32v20x_rcc.c **** 	{
 191:Drivers/src/ch32v20x_rcc.c **** 		RCC->CTLR |= (1<<0);
 313              		.loc 1 191 6
 314 0010 B7170240 		li	a5,1073876992
 315 0014 9843     		lw	a4,0(a5)
 316 0016 B7170240 		li	a5,1073876992
 317              		.loc 1 191 13
 318 001a 13671700 		ori	a4,a4,1
 319 001e 98C3     		sw	a4,0(a5)
 192:Drivers/src/ch32v20x_rcc.c **** 	}
 193:Drivers/src/ch32v20x_rcc.c **** 	else{
 194:Drivers/src/ch32v20x_rcc.c **** 		RCC->CTLR &= ~(1<<0);		
 195:Drivers/src/ch32v20x_rcc.c **** 	}
 196:Drivers/src/ch32v20x_rcc.c **** }
 320              		.loc 1 196 1
GAS LISTING C:\Users\SOLDER~1\AppData\Local\Temp\cchmqEOm.s 			page 10


 321 0020 01A8     		j	.L17
 322              	.L15:
 194:Drivers/src/ch32v20x_rcc.c **** 	}
 323              		.loc 1 194 6
 324 0022 B7170240 		li	a5,1073876992
 325 0026 9843     		lw	a4,0(a5)
 326 0028 B7170240 		li	a5,1073876992
 194:Drivers/src/ch32v20x_rcc.c **** 	}
 327              		.loc 1 194 13
 328 002c 799B     		andi	a4,a4,-2
 329 002e 98C3     		sw	a4,0(a5)
 330              	.L17:
 331              		.loc 1 196 1
 332 0030 0100     		nop
 333 0032 7244     		lw	s0,28(sp)
 334              		.cfi_restore 8
 335              		.cfi_def_cfa 2, 32
 336 0034 0561     		addi	sp,sp,32
 337              		.cfi_def_cfa_offset 0
 338 0036 8280     		jr	ra
 339              		.cfi_endproc
 340              	.LFE20:
 342              		.section	.text.RCC_PLLConfig,"ax",@progbits
 343              		.align	1
 344              		.globl	RCC_PLLConfig
 346              	RCC_PLLConfig:
 347              	.LFB21:
 197:Drivers/src/ch32v20x_rcc.c **** 
 198:Drivers/src/ch32v20x_rcc.c **** /*********************************************************************
 199:Drivers/src/ch32v20x_rcc.c ****  * @fn      RCC_PLLConfig
 200:Drivers/src/ch32v20x_rcc.c ****  *
 201:Drivers/src/ch32v20x_rcc.c ****  * @brief   Configures the PLL clock source and multiplication factor.
 202:Drivers/src/ch32v20x_rcc.c ****  *
 203:Drivers/src/ch32v20x_rcc.c ****  * @param   RCC_PLLSource - specifies the PLL entry clock source.
 204:Drivers/src/ch32v20x_rcc.c ****  *            RCC_PLLSource_HSI_Div2 - HSI oscillator clock divided by 2
 205:Drivers/src/ch32v20x_rcc.c ****  *        selected as PLL clock entry.
 206:Drivers/src/ch32v20x_rcc.c ****  *            RCC_PLLSource_PREDIV1 - PREDIV1 clock selected as PLL clock
 207:Drivers/src/ch32v20x_rcc.c ****  *        entry.
 208:Drivers/src/ch32v20x_rcc.c ****  *          RCC_PLLMul - specifies the PLL multiplication factor.
 209:Drivers/src/ch32v20x_rcc.c ****  *            This parameter can be RCC_PLLMul_x where x:[2,16].
 210:Drivers/src/ch32v20x_rcc.c ****  *              RCC_PLLMul_2
 211:Drivers/src/ch32v20x_rcc.c ****  *              RCC_PLLMul_3
 212:Drivers/src/ch32v20x_rcc.c ****  *              RCC_PLLMul_4
 213:Drivers/src/ch32v20x_rcc.c ****  *              RCC_PLLMul_5
 214:Drivers/src/ch32v20x_rcc.c ****  *              RCC_PLLMul_6
 215:Drivers/src/ch32v20x_rcc.c ****  *              RCC_PLLMul_7
 216:Drivers/src/ch32v20x_rcc.c ****  *              RCC_PLLMul_8
 217:Drivers/src/ch32v20x_rcc.c ****  *              RCC_PLLMul_9
 218:Drivers/src/ch32v20x_rcc.c ****  *              RCC_PLLMul_10
 219:Drivers/src/ch32v20x_rcc.c ****  *              RCC_PLLMul_11
 220:Drivers/src/ch32v20x_rcc.c ****  *              RCC_PLLMul_12
 221:Drivers/src/ch32v20x_rcc.c ****  *              RCC_PLLMul_13
 222:Drivers/src/ch32v20x_rcc.c ****  *              RCC_PLLMul_14
 223:Drivers/src/ch32v20x_rcc.c ****  *              RCC_PLLMul_15
 224:Drivers/src/ch32v20x_rcc.c ****  *              RCC_PLLMul_16
 225:Drivers/src/ch32v20x_rcc.c ****  *              RCC_PLLMul_18
 226:Drivers/src/ch32v20x_rcc.c ****  *
GAS LISTING C:\Users\SOLDER~1\AppData\Local\Temp\cchmqEOm.s 			page 11


 227:Drivers/src/ch32v20x_rcc.c ****  * @return  none
 228:Drivers/src/ch32v20x_rcc.c ****  */
 229:Drivers/src/ch32v20x_rcc.c **** void RCC_PLLConfig(uint32_t RCC_PLLSource, uint32_t RCC_PLLMul)
 230:Drivers/src/ch32v20x_rcc.c **** {
 348              		.loc 1 230 1
 349              		.cfi_startproc
 350 0000 7971     		addi	sp,sp,-48
 351              		.cfi_def_cfa_offset 48
 352 0002 22D6     		sw	s0,44(sp)
 353              		.cfi_offset 8, -4
 354 0004 0018     		addi	s0,sp,48
 355              		.cfi_def_cfa 8, 0
 356 0006 232EA4FC 		sw	a0,-36(s0)
 357 000a 232CB4FC 		sw	a1,-40(s0)
 231:Drivers/src/ch32v20x_rcc.c ****   uint32_t tmpreg = 0;
 358              		.loc 1 231 12
 359 000e 232604FE 		sw	zero,-20(s0)
 232:Drivers/src/ch32v20x_rcc.c **** 
 233:Drivers/src/ch32v20x_rcc.c ****   tmpreg = RCC->CFGR0;
 360              		.loc 1 233 15
 361 0012 B7170240 		li	a5,1073876992
 362              		.loc 1 233 10
 363 0016 DC43     		lw	a5,4(a5)
 364 0018 2326F4FE 		sw	a5,-20(s0)
 234:Drivers/src/ch32v20x_rcc.c **** 
 235:Drivers/src/ch32v20x_rcc.c ****   tmpreg &= CFGR0_PLL_Mask;
 365              		.loc 1 235 10
 366 001c 0327C4FE 		lw	a4,-20(s0)
 367 0020 B707C1FF 		li	a5,-4128768
 368 0024 FD17     		addi	a5,a5,-1
 369 0026 F98F     		and	a5,a4,a5
 370 0028 2326F4FE 		sw	a5,-20(s0)
 236:Drivers/src/ch32v20x_rcc.c ****   tmpreg |= RCC_PLLSource | RCC_PLLMul;
 371              		.loc 1 236 27
 372 002c 0327C4FD 		lw	a4,-36(s0)
 373 0030 832784FD 		lw	a5,-40(s0)
 374 0034 D98F     		or	a5,a4,a5
 375              		.loc 1 236 10
 376 0036 0327C4FE 		lw	a4,-20(s0)
 377 003a D98F     		or	a5,a4,a5
 378 003c 2326F4FE 		sw	a5,-20(s0)
 237:Drivers/src/ch32v20x_rcc.c ****   RCC->CFGR0 = tmpreg;
 379              		.loc 1 237 6
 380 0040 B7170240 		li	a5,1073876992
 381              		.loc 1 237 14
 382 0044 0327C4FE 		lw	a4,-20(s0)
 383 0048 D8C3     		sw	a4,4(a5)
 238:Drivers/src/ch32v20x_rcc.c **** }
 384              		.loc 1 238 1
 385 004a 0100     		nop
 386 004c 3254     		lw	s0,44(sp)
 387              		.cfi_restore 8
 388              		.cfi_def_cfa 2, 48
 389 004e 4561     		addi	sp,sp,48
 390              		.cfi_def_cfa_offset 0
 391 0050 8280     		jr	ra
 392              		.cfi_endproc
GAS LISTING C:\Users\SOLDER~1\AppData\Local\Temp\cchmqEOm.s 			page 12


 393              	.LFE21:
 395              		.section	.text.RCC_PLLCmd,"ax",@progbits
 396              		.align	1
 397              		.globl	RCC_PLLCmd
 399              	RCC_PLLCmd:
 400              	.LFB22:
 239:Drivers/src/ch32v20x_rcc.c **** 
 240:Drivers/src/ch32v20x_rcc.c **** /*********************************************************************
 241:Drivers/src/ch32v20x_rcc.c ****  * @fn      RCC_PLLCmd
 242:Drivers/src/ch32v20x_rcc.c ****  *
 243:Drivers/src/ch32v20x_rcc.c ****  * @brief   Enables or disables the PLL.
 244:Drivers/src/ch32v20x_rcc.c ****  *          Note-The PLL can not be disabled if it is used as system clock.
 245:Drivers/src/ch32v20x_rcc.c ****  *          
 246:Drivers/src/ch32v20x_rcc.c ****  *
 247:Drivers/src/ch32v20x_rcc.c ****  * @param   NewState - ENABLE or DISABLE.
 248:Drivers/src/ch32v20x_rcc.c ****  *
 249:Drivers/src/ch32v20x_rcc.c ****  * @return  none
 250:Drivers/src/ch32v20x_rcc.c ****  */
 251:Drivers/src/ch32v20x_rcc.c **** void RCC_PLLCmd(FunctionalState NewState)
 252:Drivers/src/ch32v20x_rcc.c **** {
 401              		.loc 1 252 1
 402              		.cfi_startproc
 403 0000 0111     		addi	sp,sp,-32
 404              		.cfi_def_cfa_offset 32
 405 0002 22CE     		sw	s0,28(sp)
 406              		.cfi_offset 8, -4
 407 0004 0010     		addi	s0,sp,32
 408              		.cfi_def_cfa 8, 0
 409 0006 2326A4FE 		sw	a0,-20(s0)
 253:Drivers/src/ch32v20x_rcc.c **** 	if(NewState)
 410              		.loc 1 253 4
 411 000a 8327C4FE 		lw	a5,-20(s0)
 412 000e 99CB     		beq	a5,zero,.L20
 254:Drivers/src/ch32v20x_rcc.c **** 	{
 255:Drivers/src/ch32v20x_rcc.c **** 		RCC->CTLR |= (1<<24);
 413              		.loc 1 255 6
 414 0010 B7170240 		li	a5,1073876992
 415 0014 9443     		lw	a3,0(a5)
 416 0016 B7170240 		li	a5,1073876992
 417              		.loc 1 255 13
 418 001a 37070001 		li	a4,16777216
 419 001e 558F     		or	a4,a3,a4
 420 0020 98C3     		sw	a4,0(a5)
 256:Drivers/src/ch32v20x_rcc.c **** 	}
 257:Drivers/src/ch32v20x_rcc.c **** 	else{
 258:Drivers/src/ch32v20x_rcc.c **** 		RCC->CTLR &= ~(1<<24);		
 259:Drivers/src/ch32v20x_rcc.c **** 	}
 260:Drivers/src/ch32v20x_rcc.c **** }
 421              		.loc 1 260 1
 422 0022 19A8     		j	.L22
 423              	.L20:
 258:Drivers/src/ch32v20x_rcc.c **** 	}
 424              		.loc 1 258 6
 425 0024 B7170240 		li	a5,1073876992
 426 0028 9443     		lw	a3,0(a5)
 427 002a B7170240 		li	a5,1073876992
 258:Drivers/src/ch32v20x_rcc.c **** 	}
GAS LISTING C:\Users\SOLDER~1\AppData\Local\Temp\cchmqEOm.s 			page 13


 428              		.loc 1 258 13
 429 002e 370700FF 		li	a4,-16777216
 430 0032 7D17     		addi	a4,a4,-1
 431 0034 758F     		and	a4,a3,a4
 432 0036 98C3     		sw	a4,0(a5)
 433              	.L22:
 434              		.loc 1 260 1
 435 0038 0100     		nop
 436 003a 7244     		lw	s0,28(sp)
 437              		.cfi_restore 8
 438              		.cfi_def_cfa 2, 32
 439 003c 0561     		addi	sp,sp,32
 440              		.cfi_def_cfa_offset 0
 441 003e 8280     		jr	ra
 442              		.cfi_endproc
 443              	.LFE22:
 445              		.section	.text.RCC_SYSCLKConfig,"ax",@progbits
 446              		.align	1
 447              		.globl	RCC_SYSCLKConfig
 449              	RCC_SYSCLKConfig:
 450              	.LFB23:
 261:Drivers/src/ch32v20x_rcc.c **** 
 262:Drivers/src/ch32v20x_rcc.c **** /*********************************************************************
 263:Drivers/src/ch32v20x_rcc.c ****  * @fn      RCC_SYSCLKConfig
 264:Drivers/src/ch32v20x_rcc.c ****  *
 265:Drivers/src/ch32v20x_rcc.c ****  * @brief   Configures the system clock (SYSCLK).
 266:Drivers/src/ch32v20x_rcc.c ****  *
 267:Drivers/src/ch32v20x_rcc.c ****  * @param   RCC_SYSCLKSource - specifies the clock source used as system clock.
 268:Drivers/src/ch32v20x_rcc.c ****  *            RCC_SYSCLKSource_HSI - HSI selected as system clock.
 269:Drivers/src/ch32v20x_rcc.c ****  *            RCC_SYSCLKSource_HSE - HSE selected as system clock.
 270:Drivers/src/ch32v20x_rcc.c ****  *            RCC_SYSCLKSource_PLLCLK - PLL selected as system clock.
 271:Drivers/src/ch32v20x_rcc.c ****  *
 272:Drivers/src/ch32v20x_rcc.c ****  * @return  none
 273:Drivers/src/ch32v20x_rcc.c ****  */
 274:Drivers/src/ch32v20x_rcc.c **** void RCC_SYSCLKConfig(uint32_t RCC_SYSCLKSource)
 275:Drivers/src/ch32v20x_rcc.c **** {
 451              		.loc 1 275 1
 452              		.cfi_startproc
 453 0000 7971     		addi	sp,sp,-48
 454              		.cfi_def_cfa_offset 48
 455 0002 22D6     		sw	s0,44(sp)
 456              		.cfi_offset 8, -4
 457 0004 0018     		addi	s0,sp,48
 458              		.cfi_def_cfa 8, 0
 459 0006 232EA4FC 		sw	a0,-36(s0)
 276:Drivers/src/ch32v20x_rcc.c ****   uint32_t tmpreg = 0;
 460              		.loc 1 276 12
 461 000a 232604FE 		sw	zero,-20(s0)
 277:Drivers/src/ch32v20x_rcc.c **** 
 278:Drivers/src/ch32v20x_rcc.c ****   tmpreg = RCC->CFGR0;
 462              		.loc 1 278 15
 463 000e B7170240 		li	a5,1073876992
 464              		.loc 1 278 10
 465 0012 DC43     		lw	a5,4(a5)
 466 0014 2326F4FE 		sw	a5,-20(s0)
 279:Drivers/src/ch32v20x_rcc.c ****   tmpreg &= CFGR0_SW_Mask;
 467              		.loc 1 279 10
GAS LISTING C:\Users\SOLDER~1\AppData\Local\Temp\cchmqEOm.s 			page 14


 468 0018 8327C4FE 		lw	a5,-20(s0)
 469 001c F19B     		andi	a5,a5,-4
 470 001e 2326F4FE 		sw	a5,-20(s0)
 280:Drivers/src/ch32v20x_rcc.c ****   tmpreg |= RCC_SYSCLKSource;
 471              		.loc 1 280 10
 472 0022 0327C4FE 		lw	a4,-20(s0)
 473 0026 8327C4FD 		lw	a5,-36(s0)
 474 002a D98F     		or	a5,a4,a5
 475 002c 2326F4FE 		sw	a5,-20(s0)
 281:Drivers/src/ch32v20x_rcc.c ****   RCC->CFGR0 = tmpreg;
 476              		.loc 1 281 6
 477 0030 B7170240 		li	a5,1073876992
 478              		.loc 1 281 14
 479 0034 0327C4FE 		lw	a4,-20(s0)
 480 0038 D8C3     		sw	a4,4(a5)
 282:Drivers/src/ch32v20x_rcc.c **** }
 481              		.loc 1 282 1
 482 003a 0100     		nop
 483 003c 3254     		lw	s0,44(sp)
 484              		.cfi_restore 8
 485              		.cfi_def_cfa 2, 48
 486 003e 4561     		addi	sp,sp,48
 487              		.cfi_def_cfa_offset 0
 488 0040 8280     		jr	ra
 489              		.cfi_endproc
 490              	.LFE23:
 492              		.section	.text.RCC_GetSYSCLKSource,"ax",@progbits
 493              		.align	1
 494              		.globl	RCC_GetSYSCLKSource
 496              	RCC_GetSYSCLKSource:
 497              	.LFB24:
 283:Drivers/src/ch32v20x_rcc.c **** 
 284:Drivers/src/ch32v20x_rcc.c **** /*********************************************************************
 285:Drivers/src/ch32v20x_rcc.c ****  * @fn      RCC_GetSYSCLKSource
 286:Drivers/src/ch32v20x_rcc.c ****  *
 287:Drivers/src/ch32v20x_rcc.c ****  * @brief   Returns the clock source used as system clock.
 288:Drivers/src/ch32v20x_rcc.c ****  *
 289:Drivers/src/ch32v20x_rcc.c ****  * @return  0x00 - HSI used as system clock.
 290:Drivers/src/ch32v20x_rcc.c ****  *          0x04 - HSE used as system clock.
 291:Drivers/src/ch32v20x_rcc.c ****  *          0x08 - PLL used as system clock.
 292:Drivers/src/ch32v20x_rcc.c ****  */
 293:Drivers/src/ch32v20x_rcc.c **** uint8_t RCC_GetSYSCLKSource(void)
 294:Drivers/src/ch32v20x_rcc.c **** {
 498              		.loc 1 294 1
 499              		.cfi_startproc
 500 0000 4111     		addi	sp,sp,-16
 501              		.cfi_def_cfa_offset 16
 502 0002 22C6     		sw	s0,12(sp)
 503              		.cfi_offset 8, -4
 504 0004 0008     		addi	s0,sp,16
 505              		.cfi_def_cfa 8, 0
 295:Drivers/src/ch32v20x_rcc.c ****   return ((uint8_t)(RCC->CFGR0 & CFGR0_SWS_Mask));
 506              		.loc 1 295 24
 507 0006 B7170240 		li	a5,1073876992
 508 000a DC43     		lw	a5,4(a5)
 509              		.loc 1 295 11
 510 000c 93F7F70F 		andi	a5,a5,0xff
GAS LISTING C:\Users\SOLDER~1\AppData\Local\Temp\cchmqEOm.s 			page 15


 511 0010 B18B     		andi	a5,a5,12
 512 0012 93F7F70F 		andi	a5,a5,0xff
 296:Drivers/src/ch32v20x_rcc.c **** }
 513              		.loc 1 296 1
 514 0016 3E85     		mv	a0,a5
 515 0018 3244     		lw	s0,12(sp)
 516              		.cfi_restore 8
 517              		.cfi_def_cfa 2, 16
 518 001a 4101     		addi	sp,sp,16
 519              		.cfi_def_cfa_offset 0
 520 001c 8280     		jr	ra
 521              		.cfi_endproc
 522              	.LFE24:
 524              		.section	.text.RCC_HCLKConfig,"ax",@progbits
 525              		.align	1
 526              		.globl	RCC_HCLKConfig
 528              	RCC_HCLKConfig:
 529              	.LFB25:
 297:Drivers/src/ch32v20x_rcc.c **** 
 298:Drivers/src/ch32v20x_rcc.c **** /*********************************************************************
 299:Drivers/src/ch32v20x_rcc.c ****  * @fn      RCC_HCLKConfig
 300:Drivers/src/ch32v20x_rcc.c ****  *
 301:Drivers/src/ch32v20x_rcc.c ****  * @brief   Configures the AHB clock (HCLK).
 302:Drivers/src/ch32v20x_rcc.c ****  *
 303:Drivers/src/ch32v20x_rcc.c ****  * @param   RCC_SYSCLK - defines the AHB clock divider. This clock is derived from
 304:Drivers/src/ch32v20x_rcc.c ****  *        the system clock (SYSCLK).
 305:Drivers/src/ch32v20x_rcc.c ****  *            RCC_SYSCLK_Div1 - AHB clock = SYSCLK.
 306:Drivers/src/ch32v20x_rcc.c ****  *            RCC_SYSCLK_Div2 - AHB clock = SYSCLK/2.
 307:Drivers/src/ch32v20x_rcc.c ****  *            RCC_SYSCLK_Div4 - AHB clock = SYSCLK/4.
 308:Drivers/src/ch32v20x_rcc.c ****  *            RCC_SYSCLK_Div8 - AHB clock = SYSCLK/8.
 309:Drivers/src/ch32v20x_rcc.c ****  *            RCC_SYSCLK_Div16 - AHB clock = SYSCLK/16.
 310:Drivers/src/ch32v20x_rcc.c ****  *            RCC_SYSCLK_Div64 - AHB clock = SYSCLK/64.
 311:Drivers/src/ch32v20x_rcc.c ****  *            RCC_SYSCLK_Div128 - AHB clock = SYSCLK/128.
 312:Drivers/src/ch32v20x_rcc.c ****  *            RCC_SYSCLK_Div256 - AHB clock = SYSCLK/256.
 313:Drivers/src/ch32v20x_rcc.c ****  *            RCC_SYSCLK_Div512 - AHB clock = SYSCLK/512.
 314:Drivers/src/ch32v20x_rcc.c ****  *
 315:Drivers/src/ch32v20x_rcc.c ****  * @return  none
 316:Drivers/src/ch32v20x_rcc.c ****  */
 317:Drivers/src/ch32v20x_rcc.c **** void RCC_HCLKConfig(uint32_t RCC_SYSCLK)
 318:Drivers/src/ch32v20x_rcc.c **** {
 530              		.loc 1 318 1
 531              		.cfi_startproc
 532 0000 7971     		addi	sp,sp,-48
 533              		.cfi_def_cfa_offset 48
 534 0002 22D6     		sw	s0,44(sp)
 535              		.cfi_offset 8, -4
 536 0004 0018     		addi	s0,sp,48
 537              		.cfi_def_cfa 8, 0
 538 0006 232EA4FC 		sw	a0,-36(s0)
 319:Drivers/src/ch32v20x_rcc.c ****   uint32_t tmpreg = 0;
 539              		.loc 1 319 12
 540 000a 232604FE 		sw	zero,-20(s0)
 320:Drivers/src/ch32v20x_rcc.c **** 
 321:Drivers/src/ch32v20x_rcc.c ****   tmpreg = RCC->CFGR0;
 541              		.loc 1 321 15
 542 000e B7170240 		li	a5,1073876992
 543              		.loc 1 321 10
GAS LISTING C:\Users\SOLDER~1\AppData\Local\Temp\cchmqEOm.s 			page 16


 544 0012 DC43     		lw	a5,4(a5)
 545 0014 2326F4FE 		sw	a5,-20(s0)
 322:Drivers/src/ch32v20x_rcc.c ****   tmpreg &= CFGR0_HPRE_Reset_Mask;
 546              		.loc 1 322 10
 547 0018 8327C4FE 		lw	a5,-20(s0)
 548 001c 93F7F7F0 		andi	a5,a5,-241
 549 0020 2326F4FE 		sw	a5,-20(s0)
 323:Drivers/src/ch32v20x_rcc.c ****   tmpreg |= RCC_SYSCLK;
 550              		.loc 1 323 10
 551 0024 0327C4FE 		lw	a4,-20(s0)
 552 0028 8327C4FD 		lw	a5,-36(s0)
 553 002c D98F     		or	a5,a4,a5
 554 002e 2326F4FE 		sw	a5,-20(s0)
 324:Drivers/src/ch32v20x_rcc.c ****   RCC->CFGR0 = tmpreg;
 555              		.loc 1 324 6
 556 0032 B7170240 		li	a5,1073876992
 557              		.loc 1 324 14
 558 0036 0327C4FE 		lw	a4,-20(s0)
 559 003a D8C3     		sw	a4,4(a5)
 325:Drivers/src/ch32v20x_rcc.c **** }
 560              		.loc 1 325 1
 561 003c 0100     		nop
 562 003e 3254     		lw	s0,44(sp)
 563              		.cfi_restore 8
 564              		.cfi_def_cfa 2, 48
 565 0040 4561     		addi	sp,sp,48
 566              		.cfi_def_cfa_offset 0
 567 0042 8280     		jr	ra
 568              		.cfi_endproc
 569              	.LFE25:
 571              		.section	.text.RCC_PCLK1Config,"ax",@progbits
 572              		.align	1
 573              		.globl	RCC_PCLK1Config
 575              	RCC_PCLK1Config:
 576              	.LFB26:
 326:Drivers/src/ch32v20x_rcc.c **** 
 327:Drivers/src/ch32v20x_rcc.c **** /*********************************************************************
 328:Drivers/src/ch32v20x_rcc.c ****  * @fn      RCC_PCLK1Config
 329:Drivers/src/ch32v20x_rcc.c ****  *
 330:Drivers/src/ch32v20x_rcc.c ****  * @brief   Configures the Low Speed APB clock (PCLK1).
 331:Drivers/src/ch32v20x_rcc.c ****  *
 332:Drivers/src/ch32v20x_rcc.c ****  * @param   RCC_HCLK - defines the APB1 clock divider. This clock is derived from
 333:Drivers/src/ch32v20x_rcc.c ****  *        the AHB clock (HCLK).
 334:Drivers/src/ch32v20x_rcc.c ****  *            RCC_HCLK_Div1 - APB1 clock = HCLK.
 335:Drivers/src/ch32v20x_rcc.c ****  *            RCC_HCLK_Div2 - APB1 clock = HCLK/2.
 336:Drivers/src/ch32v20x_rcc.c ****  *            RCC_HCLK_Div4 - APB1 clock = HCLK/4.
 337:Drivers/src/ch32v20x_rcc.c ****  *            RCC_HCLK_Div8 - APB1 clock = HCLK/8.
 338:Drivers/src/ch32v20x_rcc.c ****  *            RCC_HCLK_Div16 - APB1 clock = HCLK/16.
 339:Drivers/src/ch32v20x_rcc.c ****  *
 340:Drivers/src/ch32v20x_rcc.c ****  * @return  none
 341:Drivers/src/ch32v20x_rcc.c ****  */
 342:Drivers/src/ch32v20x_rcc.c **** void RCC_PCLK1Config(uint32_t RCC_HCLK)
 343:Drivers/src/ch32v20x_rcc.c **** {
 577              		.loc 1 343 1
 578              		.cfi_startproc
 579 0000 7971     		addi	sp,sp,-48
 580              		.cfi_def_cfa_offset 48
GAS LISTING C:\Users\SOLDER~1\AppData\Local\Temp\cchmqEOm.s 			page 17


 581 0002 22D6     		sw	s0,44(sp)
 582              		.cfi_offset 8, -4
 583 0004 0018     		addi	s0,sp,48
 584              		.cfi_def_cfa 8, 0
 585 0006 232EA4FC 		sw	a0,-36(s0)
 344:Drivers/src/ch32v20x_rcc.c ****   uint32_t tmpreg = 0;
 586              		.loc 1 344 12
 587 000a 232604FE 		sw	zero,-20(s0)
 345:Drivers/src/ch32v20x_rcc.c **** 
 346:Drivers/src/ch32v20x_rcc.c ****   tmpreg = RCC->CFGR0;
 588              		.loc 1 346 15
 589 000e B7170240 		li	a5,1073876992
 590              		.loc 1 346 10
 591 0012 DC43     		lw	a5,4(a5)
 592 0014 2326F4FE 		sw	a5,-20(s0)
 347:Drivers/src/ch32v20x_rcc.c ****   tmpreg &= CFGR0_PPRE1_Reset_Mask;
 593              		.loc 1 347 10
 594 0018 8327C4FE 		lw	a5,-20(s0)
 595 001c 93F7F78F 		andi	a5,a5,-1793
 596 0020 2326F4FE 		sw	a5,-20(s0)
 348:Drivers/src/ch32v20x_rcc.c ****   tmpreg |= RCC_HCLK;
 597              		.loc 1 348 10
 598 0024 0327C4FE 		lw	a4,-20(s0)
 599 0028 8327C4FD 		lw	a5,-36(s0)
 600 002c D98F     		or	a5,a4,a5
 601 002e 2326F4FE 		sw	a5,-20(s0)
 349:Drivers/src/ch32v20x_rcc.c ****   RCC->CFGR0 = tmpreg;
 602              		.loc 1 349 6
 603 0032 B7170240 		li	a5,1073876992
 604              		.loc 1 349 14
 605 0036 0327C4FE 		lw	a4,-20(s0)
 606 003a D8C3     		sw	a4,4(a5)
 350:Drivers/src/ch32v20x_rcc.c **** }
 607              		.loc 1 350 1
 608 003c 0100     		nop
 609 003e 3254     		lw	s0,44(sp)
 610              		.cfi_restore 8
 611              		.cfi_def_cfa 2, 48
 612 0040 4561     		addi	sp,sp,48
 613              		.cfi_def_cfa_offset 0
 614 0042 8280     		jr	ra
 615              		.cfi_endproc
 616              	.LFE26:
 618              		.section	.text.RCC_PCLK2Config,"ax",@progbits
 619              		.align	1
 620              		.globl	RCC_PCLK2Config
 622              	RCC_PCLK2Config:
 623              	.LFB27:
 351:Drivers/src/ch32v20x_rcc.c **** 
 352:Drivers/src/ch32v20x_rcc.c **** /*********************************************************************
 353:Drivers/src/ch32v20x_rcc.c ****  * @fn      RCC_PCLK2Config
 354:Drivers/src/ch32v20x_rcc.c ****  *
 355:Drivers/src/ch32v20x_rcc.c ****  * @brief   Configures the High Speed APB clock (PCLK2).
 356:Drivers/src/ch32v20x_rcc.c ****  *
 357:Drivers/src/ch32v20x_rcc.c ****  * @param   RCC_HCLK - defines the APB2 clock divider. This clock is derived from
 358:Drivers/src/ch32v20x_rcc.c ****  *        the AHB clock (HCLK).
 359:Drivers/src/ch32v20x_rcc.c ****  *            RCC_HCLK_Div1 - APB2 clock = HCLK.
GAS LISTING C:\Users\SOLDER~1\AppData\Local\Temp\cchmqEOm.s 			page 18


 360:Drivers/src/ch32v20x_rcc.c ****  *            RCC_HCLK_Div2 - APB2 clock = HCLK/2.
 361:Drivers/src/ch32v20x_rcc.c ****  *            RCC_HCLK_Div4 - APB2 clock = HCLK/4.
 362:Drivers/src/ch32v20x_rcc.c ****  *            RCC_HCLK_Div8 - APB2 clock = HCLK/8.
 363:Drivers/src/ch32v20x_rcc.c ****  *            RCC_HCLK_Div16 - APB2 clock = HCLK/16.
 364:Drivers/src/ch32v20x_rcc.c ****  * @return  none
 365:Drivers/src/ch32v20x_rcc.c ****  */
 366:Drivers/src/ch32v20x_rcc.c **** void RCC_PCLK2Config(uint32_t RCC_HCLK)
 367:Drivers/src/ch32v20x_rcc.c **** {
 624              		.loc 1 367 1
 625              		.cfi_startproc
 626 0000 7971     		addi	sp,sp,-48
 627              		.cfi_def_cfa_offset 48
 628 0002 22D6     		sw	s0,44(sp)
 629              		.cfi_offset 8, -4
 630 0004 0018     		addi	s0,sp,48
 631              		.cfi_def_cfa 8, 0
 632 0006 232EA4FC 		sw	a0,-36(s0)
 368:Drivers/src/ch32v20x_rcc.c ****   uint32_t tmpreg = 0;
 633              		.loc 1 368 12
 634 000a 232604FE 		sw	zero,-20(s0)
 369:Drivers/src/ch32v20x_rcc.c **** 
 370:Drivers/src/ch32v20x_rcc.c ****   tmpreg = RCC->CFGR0;
 635              		.loc 1 370 15
 636 000e B7170240 		li	a5,1073876992
 637              		.loc 1 370 10
 638 0012 DC43     		lw	a5,4(a5)
 639 0014 2326F4FE 		sw	a5,-20(s0)
 371:Drivers/src/ch32v20x_rcc.c ****   tmpreg &= CFGR0_PPRE2_Reset_Mask;
 640              		.loc 1 371 10
 641 0018 0327C4FE 		lw	a4,-20(s0)
 642 001c F177     		li	a5,-16384
 643 001e 9387F77F 		addi	a5,a5,2047
 644 0022 F98F     		and	a5,a4,a5
 645 0024 2326F4FE 		sw	a5,-20(s0)
 372:Drivers/src/ch32v20x_rcc.c ****   tmpreg |= RCC_HCLK << 3;
 646              		.loc 1 372 22
 647 0028 8327C4FD 		lw	a5,-36(s0)
 648 002c 8E07     		slli	a5,a5,3
 649              		.loc 1 372 10
 650 002e 0327C4FE 		lw	a4,-20(s0)
 651 0032 D98F     		or	a5,a4,a5
 652 0034 2326F4FE 		sw	a5,-20(s0)
 373:Drivers/src/ch32v20x_rcc.c ****   RCC->CFGR0 = tmpreg;
 653              		.loc 1 373 6
 654 0038 B7170240 		li	a5,1073876992
 655              		.loc 1 373 14
 656 003c 0327C4FE 		lw	a4,-20(s0)
 657 0040 D8C3     		sw	a4,4(a5)
 374:Drivers/src/ch32v20x_rcc.c **** }
 658              		.loc 1 374 1
 659 0042 0100     		nop
 660 0044 3254     		lw	s0,44(sp)
 661              		.cfi_restore 8
 662              		.cfi_def_cfa 2, 48
 663 0046 4561     		addi	sp,sp,48
 664              		.cfi_def_cfa_offset 0
 665 0048 8280     		jr	ra
GAS LISTING C:\Users\SOLDER~1\AppData\Local\Temp\cchmqEOm.s 			page 19


 666              		.cfi_endproc
 667              	.LFE27:
 669              		.section	.text.RCC_ITConfig,"ax",@progbits
 670              		.align	1
 671              		.globl	RCC_ITConfig
 673              	RCC_ITConfig:
 674              	.LFB28:
 375:Drivers/src/ch32v20x_rcc.c **** 
 376:Drivers/src/ch32v20x_rcc.c **** /*********************************************************************
 377:Drivers/src/ch32v20x_rcc.c ****  * @fn      RCC_ITConfig
 378:Drivers/src/ch32v20x_rcc.c ****  *
 379:Drivers/src/ch32v20x_rcc.c ****  * @brief   Enables or disables the specified RCC interrupts.
 380:Drivers/src/ch32v20x_rcc.c ****  *
 381:Drivers/src/ch32v20x_rcc.c ****  * @param   RCC_IT - specifies the RCC interrupt sources to be enabled or disabled.
 382:Drivers/src/ch32v20x_rcc.c ****  *            RCC_IT_LSIRDY - LSI ready interrupt.
 383:Drivers/src/ch32v20x_rcc.c ****  *            RCC_IT_LSERDY - LSE ready interrupt.
 384:Drivers/src/ch32v20x_rcc.c ****  *            RCC_IT_HSIRDY - HSI ready interrupt.
 385:Drivers/src/ch32v20x_rcc.c ****  *            RCC_IT_HSERDY - HSE ready interrupt.
 386:Drivers/src/ch32v20x_rcc.c ****  *            RCC_IT_PLLRDY - PLL ready interrupt.
 387:Drivers/src/ch32v20x_rcc.c ****  *          NewState - ENABLE or DISABLE.
 388:Drivers/src/ch32v20x_rcc.c ****  *
 389:Drivers/src/ch32v20x_rcc.c ****  * @return  none
 390:Drivers/src/ch32v20x_rcc.c ****  */
 391:Drivers/src/ch32v20x_rcc.c **** void RCC_ITConfig(uint8_t RCC_IT, FunctionalState NewState)
 392:Drivers/src/ch32v20x_rcc.c **** {
 675              		.loc 1 392 1
 676              		.cfi_startproc
 677 0000 0111     		addi	sp,sp,-32
 678              		.cfi_def_cfa_offset 32
 679 0002 22CE     		sw	s0,28(sp)
 680              		.cfi_offset 8, -4
 681 0004 0010     		addi	s0,sp,32
 682              		.cfi_def_cfa 8, 0
 683 0006 AA87     		mv	a5,a0
 684 0008 2324B4FE 		sw	a1,-24(s0)
 685 000c A307F4FE 		sb	a5,-17(s0)
 393:Drivers/src/ch32v20x_rcc.c ****   if (NewState != DISABLE)
 686              		.loc 1 393 6
 687 0010 832784FE 		lw	a5,-24(s0)
 688 0014 8DC3     		beq	a5,zero,.L30
 394:Drivers/src/ch32v20x_rcc.c ****   {
 395:Drivers/src/ch32v20x_rcc.c ****     *(__IO uint8_t *) INTR_BYTE2_ADDRESS |= RCC_IT;
 689              		.loc 1 395 5
 690 0016 B7170240 		li	a5,1073876992
 691 001a A507     		addi	a5,a5,9
 692 001c 9C23     		lbu	a5,0(a5)
 693 001e 13F7F70F 		andi	a4,a5,0xff
 694 0022 B7170240 		li	a5,1073876992
 695 0026 A507     		addi	a5,a5,9
 696              		.loc 1 395 42
 697 0028 8346F4FE 		lbu	a3,-17(s0)
 698 002c 558F     		or	a4,a4,a3
 699 002e 1377F70F 		andi	a4,a4,0xff
 700 0032 98A3     		sb	a4,0(a5)
 396:Drivers/src/ch32v20x_rcc.c ****   }
 397:Drivers/src/ch32v20x_rcc.c ****   else
 398:Drivers/src/ch32v20x_rcc.c ****   {
GAS LISTING C:\Users\SOLDER~1\AppData\Local\Temp\cchmqEOm.s 			page 20


 399:Drivers/src/ch32v20x_rcc.c ****     *(__IO uint8_t *) INTR_BYTE2_ADDRESS &= (uint8_t)~RCC_IT;
 400:Drivers/src/ch32v20x_rcc.c ****   }
 401:Drivers/src/ch32v20x_rcc.c **** }
 701              		.loc 1 401 1
 702 0034 25A0     		j	.L32
 703              	.L30:
 399:Drivers/src/ch32v20x_rcc.c ****   }
 704              		.loc 1 399 5
 705 0036 B7170240 		li	a5,1073876992
 706 003a A507     		addi	a5,a5,9
 707 003c 9C23     		lbu	a5,0(a5)
 708 003e 93F6F70F 		andi	a3,a5,0xff
 399:Drivers/src/ch32v20x_rcc.c ****   }
 709              		.loc 1 399 45
 710 0042 8347F4FE 		lbu	a5,-17(s0)
 711 0046 93C7F7FF 		not	a5,a5
 712 004a 13F7F70F 		andi	a4,a5,0xff
 399:Drivers/src/ch32v20x_rcc.c ****   }
 713              		.loc 1 399 5
 714 004e B7170240 		li	a5,1073876992
 715 0052 A507     		addi	a5,a5,9
 399:Drivers/src/ch32v20x_rcc.c ****   }
 716              		.loc 1 399 42
 717 0054 758F     		and	a4,a3,a4
 718 0056 1377F70F 		andi	a4,a4,0xff
 719 005a 98A3     		sb	a4,0(a5)
 720              	.L32:
 721              		.loc 1 401 1
 722 005c 0100     		nop
 723 005e 7244     		lw	s0,28(sp)
 724              		.cfi_restore 8
 725              		.cfi_def_cfa 2, 32
 726 0060 0561     		addi	sp,sp,32
 727              		.cfi_def_cfa_offset 0
 728 0062 8280     		jr	ra
 729              		.cfi_endproc
 730              	.LFE28:
 732              		.section	.text.RCC_USBCLKConfig,"ax",@progbits
 733              		.align	1
 734              		.globl	RCC_USBCLKConfig
 736              	RCC_USBCLKConfig:
 737              	.LFB29:
 402:Drivers/src/ch32v20x_rcc.c **** 
 403:Drivers/src/ch32v20x_rcc.c **** /*********************************************************************
 404:Drivers/src/ch32v20x_rcc.c ****  * @fn      RCC_USBCLKConfig
 405:Drivers/src/ch32v20x_rcc.c ****  *
 406:Drivers/src/ch32v20x_rcc.c ****  * @brief   Configures the USB clock (USBCLK).
 407:Drivers/src/ch32v20x_rcc.c ****  *
 408:Drivers/src/ch32v20x_rcc.c ****  * @param    RCC_USBCLKSource: specifies the USB clock source. This clock is
 409:Drivers/src/ch32v20x_rcc.c ****  *        derived from the PLL output.
 410:Drivers/src/ch32v20x_rcc.c ****  *             RCC_USBCLKSource_PLLCLK_Div1 - PLL clock selected as USB clock source(48Mhz).
 411:Drivers/src/ch32v20x_rcc.c ****  *             RCC_USBCLKSource_PLLCLK_Div2 - PLL clock selected as USB clock source(96MHz).
 412:Drivers/src/ch32v20x_rcc.c ****  *             RCC_USBCLKSource_PLLCLK_Div3 - PLL clock selected as USB clock source(144MHz).
 413:Drivers/src/ch32v20x_rcc.c ****  *             RCC_USBCLKSource_PLLCLK_Div5 - PLL clock selected as USB clock source(240MHz).
 414:Drivers/src/ch32v20x_rcc.c ****  *
 415:Drivers/src/ch32v20x_rcc.c ****  * @return  none
 416:Drivers/src/ch32v20x_rcc.c ****  */
GAS LISTING C:\Users\SOLDER~1\AppData\Local\Temp\cchmqEOm.s 			page 21


 417:Drivers/src/ch32v20x_rcc.c **** void RCC_USBCLKConfig(uint32_t RCC_USBCLKSource)
 418:Drivers/src/ch32v20x_rcc.c **** {
 738              		.loc 1 418 1
 739              		.cfi_startproc
 740 0000 0111     		addi	sp,sp,-32
 741              		.cfi_def_cfa_offset 32
 742 0002 22CE     		sw	s0,28(sp)
 743              		.cfi_offset 8, -4
 744 0004 0010     		addi	s0,sp,32
 745              		.cfi_def_cfa 8, 0
 746 0006 2326A4FE 		sw	a0,-20(s0)
 419:Drivers/src/ch32v20x_rcc.c ****     RCC->CFGR0 &= ~((uint32_t)3<<22);
 747              		.loc 1 419 8
 748 000a B7170240 		li	a5,1073876992
 749 000e D443     		lw	a3,4(a5)
 750 0010 B7170240 		li	a5,1073876992
 751              		.loc 1 419 16
 752 0014 370740FF 		li	a4,-12582912
 753 0018 7D17     		addi	a4,a4,-1
 754 001a 758F     		and	a4,a3,a4
 755 001c D8C3     		sw	a4,4(a5)
 420:Drivers/src/ch32v20x_rcc.c ****     RCC->CFGR0 |= RCC_USBCLKSource<<22;
 756              		.loc 1 420 8
 757 001e B7170240 		li	a5,1073876992
 758 0022 D443     		lw	a3,4(a5)
 759              		.loc 1 420 35
 760 0024 8327C4FE 		lw	a5,-20(s0)
 761 0028 13976701 		slli	a4,a5,22
 762              		.loc 1 420 8
 763 002c B7170240 		li	a5,1073876992
 764              		.loc 1 420 16
 765 0030 558F     		or	a4,a3,a4
 766 0032 D8C3     		sw	a4,4(a5)
 421:Drivers/src/ch32v20x_rcc.c **** }
 767              		.loc 1 421 1
 768 0034 0100     		nop
 769 0036 7244     		lw	s0,28(sp)
 770              		.cfi_restore 8
 771              		.cfi_def_cfa 2, 32
 772 0038 0561     		addi	sp,sp,32
 773              		.cfi_def_cfa_offset 0
 774 003a 8280     		jr	ra
 775              		.cfi_endproc
 776              	.LFE29:
 778              		.section	.text.RCC_ADCCLKConfig,"ax",@progbits
 779              		.align	1
 780              		.globl	RCC_ADCCLKConfig
 782              	RCC_ADCCLKConfig:
 783              	.LFB30:
 422:Drivers/src/ch32v20x_rcc.c **** 
 423:Drivers/src/ch32v20x_rcc.c **** /*********************************************************************
 424:Drivers/src/ch32v20x_rcc.c ****  * @fn      RCC_ADCCLKConfig
 425:Drivers/src/ch32v20x_rcc.c ****  *
 426:Drivers/src/ch32v20x_rcc.c ****  * @brief   Configures the ADC clock (ADCCLK).
 427:Drivers/src/ch32v20x_rcc.c ****  *
 428:Drivers/src/ch32v20x_rcc.c ****  * @param   RCC_PCLK2 - defines the ADC clock divider. This clock is derived from
 429:Drivers/src/ch32v20x_rcc.c ****  *        the APB2 clock (PCLK2).
GAS LISTING C:\Users\SOLDER~1\AppData\Local\Temp\cchmqEOm.s 			page 22


 430:Drivers/src/ch32v20x_rcc.c ****  *          RCC_PCLK2_Div2 - ADC clock = PCLK2/2.
 431:Drivers/src/ch32v20x_rcc.c ****  *          RCC_PCLK2_Div4 - ADC clock = PCLK2/4.
 432:Drivers/src/ch32v20x_rcc.c ****  *          RCC_PCLK2_Div6 - ADC clock = PCLK2/6.
 433:Drivers/src/ch32v20x_rcc.c ****  *          RCC_PCLK2_Div8 - ADC clock = PCLK2/8.
 434:Drivers/src/ch32v20x_rcc.c ****  *
 435:Drivers/src/ch32v20x_rcc.c ****  * @return  none
 436:Drivers/src/ch32v20x_rcc.c ****  */
 437:Drivers/src/ch32v20x_rcc.c **** void RCC_ADCCLKConfig(uint32_t RCC_PCLK2)
 438:Drivers/src/ch32v20x_rcc.c **** {
 784              		.loc 1 438 1
 785              		.cfi_startproc
 786 0000 7971     		addi	sp,sp,-48
 787              		.cfi_def_cfa_offset 48
 788 0002 22D6     		sw	s0,44(sp)
 789              		.cfi_offset 8, -4
 790 0004 0018     		addi	s0,sp,48
 791              		.cfi_def_cfa 8, 0
 792 0006 232EA4FC 		sw	a0,-36(s0)
 439:Drivers/src/ch32v20x_rcc.c ****   uint32_t tmpreg = 0;
 793              		.loc 1 439 12
 794 000a 232604FE 		sw	zero,-20(s0)
 440:Drivers/src/ch32v20x_rcc.c **** 
 441:Drivers/src/ch32v20x_rcc.c ****   tmpreg = RCC->CFGR0;
 795              		.loc 1 441 15
 796 000e B7170240 		li	a5,1073876992
 797              		.loc 1 441 10
 798 0012 DC43     		lw	a5,4(a5)
 799 0014 2326F4FE 		sw	a5,-20(s0)
 442:Drivers/src/ch32v20x_rcc.c ****   tmpreg &= CFGR0_ADCPRE_Reset_Mask;
 800              		.loc 1 442 10
 801 0018 0327C4FE 		lw	a4,-20(s0)
 802 001c D177     		li	a5,-49152
 803 001e FD17     		addi	a5,a5,-1
 804 0020 F98F     		and	a5,a4,a5
 805 0022 2326F4FE 		sw	a5,-20(s0)
 443:Drivers/src/ch32v20x_rcc.c ****   tmpreg |= RCC_PCLK2;
 806              		.loc 1 443 10
 807 0026 0327C4FE 		lw	a4,-20(s0)
 808 002a 8327C4FD 		lw	a5,-36(s0)
 809 002e D98F     		or	a5,a4,a5
 810 0030 2326F4FE 		sw	a5,-20(s0)
 444:Drivers/src/ch32v20x_rcc.c ****   RCC->CFGR0 = tmpreg;
 811              		.loc 1 444 6
 812 0034 B7170240 		li	a5,1073876992
 813              		.loc 1 444 14
 814 0038 0327C4FE 		lw	a4,-20(s0)
 815 003c D8C3     		sw	a4,4(a5)
 445:Drivers/src/ch32v20x_rcc.c **** }
 816              		.loc 1 445 1
 817 003e 0100     		nop
 818 0040 3254     		lw	s0,44(sp)
 819              		.cfi_restore 8
 820              		.cfi_def_cfa 2, 48
 821 0042 4561     		addi	sp,sp,48
 822              		.cfi_def_cfa_offset 0
 823 0044 8280     		jr	ra
 824              		.cfi_endproc
GAS LISTING C:\Users\SOLDER~1\AppData\Local\Temp\cchmqEOm.s 			page 23


 825              	.LFE30:
 827              		.section	.text.RCC_LSEConfig,"ax",@progbits
 828              		.align	1
 829              		.globl	RCC_LSEConfig
 831              	RCC_LSEConfig:
 832              	.LFB31:
 446:Drivers/src/ch32v20x_rcc.c **** 
 447:Drivers/src/ch32v20x_rcc.c **** /*********************************************************************
 448:Drivers/src/ch32v20x_rcc.c ****  * @fn      RCC_LSEConfig
 449:Drivers/src/ch32v20x_rcc.c ****  *
 450:Drivers/src/ch32v20x_rcc.c ****  * @brief   Configures the External Low Speed oscillator (LSE).
 451:Drivers/src/ch32v20x_rcc.c ****  *
 452:Drivers/src/ch32v20x_rcc.c ****  * @param   RCC_LSE - specifies the new state of the LSE.
 453:Drivers/src/ch32v20x_rcc.c ****  *            RCC_LSE_OFF - LSE oscillator OFF.
 454:Drivers/src/ch32v20x_rcc.c ****  *            RCC_LSE_ON - LSE oscillator ON.
 455:Drivers/src/ch32v20x_rcc.c ****  *            RCC_LSE_Bypass - LSE oscillator bypassed with external clock.
 456:Drivers/src/ch32v20x_rcc.c ****  *
 457:Drivers/src/ch32v20x_rcc.c ****  * @return  none
 458:Drivers/src/ch32v20x_rcc.c ****  */
 459:Drivers/src/ch32v20x_rcc.c **** void RCC_LSEConfig(uint8_t RCC_LSE)
 460:Drivers/src/ch32v20x_rcc.c **** {
 833              		.loc 1 460 1
 834              		.cfi_startproc
 835 0000 0111     		addi	sp,sp,-32
 836              		.cfi_def_cfa_offset 32
 837 0002 22CE     		sw	s0,28(sp)
 838              		.cfi_offset 8, -4
 839 0004 0010     		addi	s0,sp,32
 840              		.cfi_def_cfa 8, 0
 841 0006 AA87     		mv	a5,a0
 842 0008 A307F4FE 		sb	a5,-17(s0)
 461:Drivers/src/ch32v20x_rcc.c ****   *(__IO uint8_t *) BDCTLR_ADDRESS = RCC_LSE_OFF;
 843              		.loc 1 461 3
 844 000c B7170240 		li	a5,1073876992
 845 0010 93870702 		addi	a5,a5,32
 846              		.loc 1 461 36
 847 0014 23800700 		sb	zero,0(a5)
 462:Drivers/src/ch32v20x_rcc.c ****   *(__IO uint8_t *) BDCTLR_ADDRESS = RCC_LSE_OFF;
 848              		.loc 1 462 3
 849 0018 B7170240 		li	a5,1073876992
 850 001c 93870702 		addi	a5,a5,32
 851              		.loc 1 462 36
 852 0020 23800700 		sb	zero,0(a5)
 463:Drivers/src/ch32v20x_rcc.c **** 	
 464:Drivers/src/ch32v20x_rcc.c ****   switch(RCC_LSE)
 853              		.loc 1 464 3
 854 0024 8347F4FE 		lbu	a5,-17(s0)
 855 0028 0547     		li	a4,1
 856 002a 6386E700 		beq	a5,a4,.L36
 857 002e 1147     		li	a4,4
 858 0030 638AE700 		beq	a5,a4,.L37
 465:Drivers/src/ch32v20x_rcc.c ****   {
 466:Drivers/src/ch32v20x_rcc.c ****     case RCC_LSE_ON:
 467:Drivers/src/ch32v20x_rcc.c ****       *(__IO uint8_t *) BDCTLR_ADDRESS = RCC_LSE_ON;
 468:Drivers/src/ch32v20x_rcc.c ****       break;
 469:Drivers/src/ch32v20x_rcc.c ****       
 470:Drivers/src/ch32v20x_rcc.c ****     case RCC_LSE_Bypass:
GAS LISTING C:\Users\SOLDER~1\AppData\Local\Temp\cchmqEOm.s 			page 24


 471:Drivers/src/ch32v20x_rcc.c ****       *(__IO uint8_t *) BDCTLR_ADDRESS = RCC_LSE_Bypass | RCC_LSE_ON;
 472:Drivers/src/ch32v20x_rcc.c ****       break;            
 473:Drivers/src/ch32v20x_rcc.c ****       
 474:Drivers/src/ch32v20x_rcc.c ****     default:
 475:Drivers/src/ch32v20x_rcc.c ****       break;      
 859              		.loc 1 475 7
 860 0034 39A8     		j	.L39
 861              	.L36:
 467:Drivers/src/ch32v20x_rcc.c ****       break;
 862              		.loc 1 467 7
 863 0036 B7170240 		li	a5,1073876992
 864 003a 93870702 		addi	a5,a5,32
 467:Drivers/src/ch32v20x_rcc.c ****       break;
 865              		.loc 1 467 40
 866 003e 0547     		li	a4,1
 867 0040 98A3     		sb	a4,0(a5)
 468:Drivers/src/ch32v20x_rcc.c ****       
 868              		.loc 1 468 7
 869 0042 01A8     		j	.L39
 870              	.L37:
 471:Drivers/src/ch32v20x_rcc.c ****       break;            
 871              		.loc 1 471 7
 872 0044 B7170240 		li	a5,1073876992
 873 0048 93870702 		addi	a5,a5,32
 471:Drivers/src/ch32v20x_rcc.c ****       break;            
 874              		.loc 1 471 40
 875 004c 1547     		li	a4,5
 876 004e 98A3     		sb	a4,0(a5)
 472:Drivers/src/ch32v20x_rcc.c ****       
 877              		.loc 1 472 7
 878 0050 0100     		nop
 879              	.L39:
 476:Drivers/src/ch32v20x_rcc.c ****   }
 477:Drivers/src/ch32v20x_rcc.c **** }
 880              		.loc 1 477 1
 881 0052 0100     		nop
 882 0054 7244     		lw	s0,28(sp)
 883              		.cfi_restore 8
 884              		.cfi_def_cfa 2, 32
 885 0056 0561     		addi	sp,sp,32
 886              		.cfi_def_cfa_offset 0
 887 0058 8280     		jr	ra
 888              		.cfi_endproc
 889              	.LFE31:
 891              		.section	.text.RCC_LSICmd,"ax",@progbits
 892              		.align	1
 893              		.globl	RCC_LSICmd
 895              	RCC_LSICmd:
 896              	.LFB32:
 478:Drivers/src/ch32v20x_rcc.c **** 
 479:Drivers/src/ch32v20x_rcc.c **** /*********************************************************************
 480:Drivers/src/ch32v20x_rcc.c ****  * @fn      RCC_LSICmd
 481:Drivers/src/ch32v20x_rcc.c ****  *
 482:Drivers/src/ch32v20x_rcc.c ****  * @brief   Enables or disables the Internal Low Speed oscillator (LSI).
 483:Drivers/src/ch32v20x_rcc.c ****  *          Note-
 484:Drivers/src/ch32v20x_rcc.c ****  *          LSI can not be disabled if the IWDG is running.
 485:Drivers/src/ch32v20x_rcc.c ****  *
GAS LISTING C:\Users\SOLDER~1\AppData\Local\Temp\cchmqEOm.s 			page 25


 486:Drivers/src/ch32v20x_rcc.c ****  * @param   NewState - ENABLE or DISABLE.
 487:Drivers/src/ch32v20x_rcc.c ****  *
 488:Drivers/src/ch32v20x_rcc.c ****  * @return  none
 489:Drivers/src/ch32v20x_rcc.c ****  */
 490:Drivers/src/ch32v20x_rcc.c **** void RCC_LSICmd(FunctionalState NewState)
 491:Drivers/src/ch32v20x_rcc.c **** {
 897              		.loc 1 491 1
 898              		.cfi_startproc
 899 0000 0111     		addi	sp,sp,-32
 900              		.cfi_def_cfa_offset 32
 901 0002 22CE     		sw	s0,28(sp)
 902              		.cfi_offset 8, -4
 903 0004 0010     		addi	s0,sp,32
 904              		.cfi_def_cfa 8, 0
 905 0006 2326A4FE 		sw	a0,-20(s0)
 492:Drivers/src/ch32v20x_rcc.c **** 	if(NewState)
 906              		.loc 1 492 4
 907 000a 8327C4FE 		lw	a5,-20(s0)
 908 000e 91CB     		beq	a5,zero,.L41
 493:Drivers/src/ch32v20x_rcc.c **** 	{
 494:Drivers/src/ch32v20x_rcc.c **** 		RCC->RSTSCKR |= (1<<0);
 909              		.loc 1 494 6
 910 0010 B7170240 		li	a5,1073876992
 911 0014 D853     		lw	a4,36(a5)
 912 0016 B7170240 		li	a5,1073876992
 913              		.loc 1 494 16
 914 001a 13671700 		ori	a4,a4,1
 915 001e D8D3     		sw	a4,36(a5)
 495:Drivers/src/ch32v20x_rcc.c **** 	}
 496:Drivers/src/ch32v20x_rcc.c **** 	else{
 497:Drivers/src/ch32v20x_rcc.c **** 		RCC->RSTSCKR &= ~(1<<0);		
 498:Drivers/src/ch32v20x_rcc.c **** 	}	
 499:Drivers/src/ch32v20x_rcc.c **** }
 916              		.loc 1 499 1
 917 0020 01A8     		j	.L43
 918              	.L41:
 497:Drivers/src/ch32v20x_rcc.c **** 	}	
 919              		.loc 1 497 6
 920 0022 B7170240 		li	a5,1073876992
 921 0026 D853     		lw	a4,36(a5)
 922 0028 B7170240 		li	a5,1073876992
 497:Drivers/src/ch32v20x_rcc.c **** 	}	
 923              		.loc 1 497 16
 924 002c 799B     		andi	a4,a4,-2
 925 002e D8D3     		sw	a4,36(a5)
 926              	.L43:
 927              		.loc 1 499 1
 928 0030 0100     		nop
 929 0032 7244     		lw	s0,28(sp)
 930              		.cfi_restore 8
 931              		.cfi_def_cfa 2, 32
 932 0034 0561     		addi	sp,sp,32
 933              		.cfi_def_cfa_offset 0
 934 0036 8280     		jr	ra
 935              		.cfi_endproc
 936              	.LFE32:
 938              		.section	.text.RCC_RTCCLKConfig,"ax",@progbits
GAS LISTING C:\Users\SOLDER~1\AppData\Local\Temp\cchmqEOm.s 			page 26


 939              		.align	1
 940              		.globl	RCC_RTCCLKConfig
 942              	RCC_RTCCLKConfig:
 943              	.LFB33:
 500:Drivers/src/ch32v20x_rcc.c **** 
 501:Drivers/src/ch32v20x_rcc.c **** /*********************************************************************
 502:Drivers/src/ch32v20x_rcc.c ****  * @fn      RCC_RTCCLKConfig
 503:Drivers/src/ch32v20x_rcc.c ****  *
 504:Drivers/src/ch32v20x_rcc.c ****  * @brief   Once the RTC clock is selected it can't be changed unless the Backup domain is reset.
 505:Drivers/src/ch32v20x_rcc.c ****  *
 506:Drivers/src/ch32v20x_rcc.c ****  * @param   RCC_RTCCLKSource - specifies the RTC clock source.
 507:Drivers/src/ch32v20x_rcc.c ****  *            RCC_RTCCLKSource_LSE - LSE selected as RTC clock.
 508:Drivers/src/ch32v20x_rcc.c ****  *            RCC_RTCCLKSource_LSI - LSI selected as RTC clock.
 509:Drivers/src/ch32v20x_rcc.c ****  *            RCC_RTCCLKSource_HSE_Div128 - HSE clock divided by 128 selected as RTC clock.
 510:Drivers/src/ch32v20x_rcc.c ****  *         Note-   
 511:Drivers/src/ch32v20x_rcc.c ****  *           Once the RTC clock is selected it can't be changed unless the Backup domain is reset.
 512:Drivers/src/ch32v20x_rcc.c ****  * @return  none
 513:Drivers/src/ch32v20x_rcc.c ****  */
 514:Drivers/src/ch32v20x_rcc.c **** void RCC_RTCCLKConfig(uint32_t RCC_RTCCLKSource)
 515:Drivers/src/ch32v20x_rcc.c **** {
 944              		.loc 1 515 1
 945              		.cfi_startproc
 946 0000 0111     		addi	sp,sp,-32
 947              		.cfi_def_cfa_offset 32
 948 0002 22CE     		sw	s0,28(sp)
 949              		.cfi_offset 8, -4
 950 0004 0010     		addi	s0,sp,32
 951              		.cfi_def_cfa 8, 0
 952 0006 2326A4FE 		sw	a0,-20(s0)
 516:Drivers/src/ch32v20x_rcc.c ****   RCC->BDCTLR |= RCC_RTCCLKSource;
 953              		.loc 1 516 6
 954 000a B7170240 		li	a5,1073876992
 955 000e 9453     		lw	a3,32(a5)
 956 0010 B7170240 		li	a5,1073876992
 957              		.loc 1 516 15
 958 0014 0327C4FE 		lw	a4,-20(s0)
 959 0018 558F     		or	a4,a3,a4
 960 001a 98D3     		sw	a4,32(a5)
 517:Drivers/src/ch32v20x_rcc.c **** }
 961              		.loc 1 517 1
 962 001c 0100     		nop
 963 001e 7244     		lw	s0,28(sp)
 964              		.cfi_restore 8
 965              		.cfi_def_cfa 2, 32
 966 0020 0561     		addi	sp,sp,32
 967              		.cfi_def_cfa_offset 0
 968 0022 8280     		jr	ra
 969              		.cfi_endproc
 970              	.LFE33:
 972              		.section	.text.RCC_RTCCLKCmd,"ax",@progbits
 973              		.align	1
 974              		.globl	RCC_RTCCLKCmd
 976              	RCC_RTCCLKCmd:
 977              	.LFB34:
 518:Drivers/src/ch32v20x_rcc.c **** 
 519:Drivers/src/ch32v20x_rcc.c **** /*********************************************************************
 520:Drivers/src/ch32v20x_rcc.c ****  * @fn      RCC_RTCCLKCmd
GAS LISTING C:\Users\SOLDER~1\AppData\Local\Temp\cchmqEOm.s 			page 27


 521:Drivers/src/ch32v20x_rcc.c ****  *
 522:Drivers/src/ch32v20x_rcc.c ****  * @brief   This function must be used only after the RTC clock was selected
 523:Drivers/src/ch32v20x_rcc.c ****  *        using the RCC_RTCCLKConfig function.
 524:Drivers/src/ch32v20x_rcc.c ****  *
 525:Drivers/src/ch32v20x_rcc.c ****  * @param   NewState - ENABLE or DISABLE.
 526:Drivers/src/ch32v20x_rcc.c ****  *
 527:Drivers/src/ch32v20x_rcc.c ****  * @return  none
 528:Drivers/src/ch32v20x_rcc.c ****  */
 529:Drivers/src/ch32v20x_rcc.c **** void RCC_RTCCLKCmd(FunctionalState NewState)
 530:Drivers/src/ch32v20x_rcc.c **** {
 978              		.loc 1 530 1
 979              		.cfi_startproc
 980 0000 0111     		addi	sp,sp,-32
 981              		.cfi_def_cfa_offset 32
 982 0002 22CE     		sw	s0,28(sp)
 983              		.cfi_offset 8, -4
 984 0004 0010     		addi	s0,sp,32
 985              		.cfi_def_cfa 8, 0
 986 0006 2326A4FE 		sw	a0,-20(s0)
 531:Drivers/src/ch32v20x_rcc.c **** 	if(NewState)
 987              		.loc 1 531 4
 988 000a 8327C4FE 		lw	a5,-20(s0)
 989 000e 91CB     		beq	a5,zero,.L46
 532:Drivers/src/ch32v20x_rcc.c **** 	{
 533:Drivers/src/ch32v20x_rcc.c **** 		RCC->BDCTLR |= (1<<15);
 990              		.loc 1 533 6
 991 0010 B7170240 		li	a5,1073876992
 992 0014 9453     		lw	a3,32(a5)
 993 0016 B7170240 		li	a5,1073876992
 994              		.loc 1 533 15
 995 001a 2167     		li	a4,32768
 996 001c 558F     		or	a4,a3,a4
 997 001e 98D3     		sw	a4,32(a5)
 534:Drivers/src/ch32v20x_rcc.c **** 	}
 535:Drivers/src/ch32v20x_rcc.c **** 	else{
 536:Drivers/src/ch32v20x_rcc.c **** 		RCC->BDCTLR &= ~(1<<15);		
 537:Drivers/src/ch32v20x_rcc.c **** 	}	
 538:Drivers/src/ch32v20x_rcc.c **** }
 998              		.loc 1 538 1
 999 0020 11A8     		j	.L48
 1000              	.L46:
 536:Drivers/src/ch32v20x_rcc.c **** 	}	
 1001              		.loc 1 536 6
 1002 0022 B7170240 		li	a5,1073876992
 1003 0026 9453     		lw	a3,32(a5)
 1004 0028 B7170240 		li	a5,1073876992
 536:Drivers/src/ch32v20x_rcc.c **** 	}	
 1005              		.loc 1 536 15
 1006 002c 6177     		li	a4,-32768
 1007 002e 7D17     		addi	a4,a4,-1
 1008 0030 758F     		and	a4,a3,a4
 1009 0032 98D3     		sw	a4,32(a5)
 1010              	.L48:
 1011              		.loc 1 538 1
 1012 0034 0100     		nop
 1013 0036 7244     		lw	s0,28(sp)
 1014              		.cfi_restore 8
GAS LISTING C:\Users\SOLDER~1\AppData\Local\Temp\cchmqEOm.s 			page 28


 1015              		.cfi_def_cfa 2, 32
 1016 0038 0561     		addi	sp,sp,32
 1017              		.cfi_def_cfa_offset 0
 1018 003a 8280     		jr	ra
 1019              		.cfi_endproc
 1020              	.LFE34:
 1022              		.section	.text.RCC_GetClocksFreq,"ax",@progbits
 1023              		.align	1
 1024              		.globl	RCC_GetClocksFreq
 1026              	RCC_GetClocksFreq:
 1027              	.LFB35:
 539:Drivers/src/ch32v20x_rcc.c **** 
 540:Drivers/src/ch32v20x_rcc.c **** /*********************************************************************
 541:Drivers/src/ch32v20x_rcc.c ****  * @fn      RCC_GetClocksFreq
 542:Drivers/src/ch32v20x_rcc.c ****  *
 543:Drivers/src/ch32v20x_rcc.c ****  * @brief   The result of this function could be not correct when using
 544:Drivers/src/ch32v20x_rcc.c ****  *        fractional value for HSE crystal.
 545:Drivers/src/ch32v20x_rcc.c ****  *
 546:Drivers/src/ch32v20x_rcc.c ****  * @param   RCC_Clocks - pointer to a RCC_ClocksTypeDef structure which will hold
 547:Drivers/src/ch32v20x_rcc.c ****  *        the clocks frequencies.
 548:Drivers/src/ch32v20x_rcc.c ****  *
 549:Drivers/src/ch32v20x_rcc.c ****  * @return  none
 550:Drivers/src/ch32v20x_rcc.c ****  */
 551:Drivers/src/ch32v20x_rcc.c **** void RCC_GetClocksFreq(RCC_ClocksTypeDef* RCC_Clocks)
 552:Drivers/src/ch32v20x_rcc.c **** {
 1028              		.loc 1 552 1
 1029              		.cfi_startproc
 1030 0000 7971     		addi	sp,sp,-48
 1031              		.cfi_def_cfa_offset 48
 1032 0002 22D6     		sw	s0,44(sp)
 1033              		.cfi_offset 8, -4
 1034 0004 0018     		addi	s0,sp,48
 1035              		.cfi_def_cfa 8, 0
 1036 0006 232EA4FC 		sw	a0,-36(s0)
 553:Drivers/src/ch32v20x_rcc.c ****     uint32_t tmp = 0, pllmull = 0, pllsource = 0, presc = 0;
 1037              		.loc 1 553 14
 1038 000a 232404FE 		sw	zero,-24(s0)
 1039              		.loc 1 553 23
 1040 000e 232604FE 		sw	zero,-20(s0)
 1041              		.loc 1 553 36
 1042 0012 232204FE 		sw	zero,-28(s0)
 1043              		.loc 1 553 51
 1044 0016 232004FE 		sw	zero,-32(s0)
 554:Drivers/src/ch32v20x_rcc.c **** 
 555:Drivers/src/ch32v20x_rcc.c ****     tmp = RCC->CFGR0 & CFGR0_SWS_Mask;
 1045              		.loc 1 555 14
 1046 001a B7170240 		li	a5,1073876992
 1047 001e DC43     		lw	a5,4(a5)
 1048              		.loc 1 555 9
 1049 0020 B18B     		andi	a5,a5,12
 1050 0022 2324F4FE 		sw	a5,-24(s0)
 556:Drivers/src/ch32v20x_rcc.c **** 
 557:Drivers/src/ch32v20x_rcc.c ****     switch (tmp)
 1051              		.loc 1 557 5
 1052 0026 032784FE 		lw	a4,-24(s0)
 1053 002a A147     		li	a5,8
 1054 002c 6300F704 		beq	a4,a5,.L50
GAS LISTING C:\Users\SOLDER~1\AppData\Local\Temp\cchmqEOm.s 			page 29


 1055 0030 032784FE 		lw	a4,-24(s0)
 1056 0034 A147     		li	a5,8
 1057 0036 63E9E70E 		bgtu	a4,a5,.L51
 1058 003a 832784FE 		lw	a5,-24(s0)
 1059 003e 99C7     		beq	a5,zero,.L52
 1060 0040 032784FE 		lw	a4,-24(s0)
 1061 0044 9147     		li	a5,4
 1062 0046 630BF700 		beq	a4,a5,.L53
 1063 004a F9A8     		j	.L51
 1064              	.L52:
 558:Drivers/src/ch32v20x_rcc.c ****     {
 559:Drivers/src/ch32v20x_rcc.c ****       case 0x00:
 560:Drivers/src/ch32v20x_rcc.c ****         RCC_Clocks->SYSCLK_Frequency = HSI_VALUE;
 1065              		.loc 1 560 38
 1066 004c 8327C4FD 		lw	a5,-36(s0)
 1067 0050 37177A00 		li	a4,7999488
 1068 0054 13070720 		addi	a4,a4,512
 1069 0058 98C3     		sw	a4,0(a5)
 561:Drivers/src/ch32v20x_rcc.c ****         break;
 1070              		.loc 1 561 9
 1071 005a F9A8     		j	.L54
 1072              	.L53:
 562:Drivers/src/ch32v20x_rcc.c **** 
 563:Drivers/src/ch32v20x_rcc.c ****       case 0x04:
 564:Drivers/src/ch32v20x_rcc.c ****         RCC_Clocks->SYSCLK_Frequency = HSE_VALUE;
 1073              		.loc 1 564 38
 1074 005c 8327C4FD 		lw	a5,-36(s0)
 1075 0060 37177A00 		li	a4,7999488
 1076 0064 13070720 		addi	a4,a4,512
 1077 0068 98C3     		sw	a4,0(a5)
 565:Drivers/src/ch32v20x_rcc.c ****         break;
 1078              		.loc 1 565 9
 1079 006a F9A0     		j	.L54
 1080              	.L50:
 566:Drivers/src/ch32v20x_rcc.c **** 
 567:Drivers/src/ch32v20x_rcc.c ****       case 0x08:
 568:Drivers/src/ch32v20x_rcc.c ****         pllmull = RCC->CFGR0 & CFGR0_PLLMull_Mask;
 1081              		.loc 1 568 22
 1082 006c B7170240 		li	a5,1073876992
 1083 0070 D843     		lw	a4,4(a5)
 1084              		.loc 1 568 17
 1085 0072 B7073C00 		li	a5,3932160
 1086 0076 F98F     		and	a5,a4,a5
 1087 0078 2326F4FE 		sw	a5,-20(s0)
 569:Drivers/src/ch32v20x_rcc.c ****         pllsource = RCC->CFGR0 & CFGR0_PLLSRC_Mask;
 1088              		.loc 1 569 24
 1089 007c B7170240 		li	a5,1073876992
 1090 0080 D843     		lw	a4,4(a5)
 1091              		.loc 1 569 19
 1092 0082 C167     		li	a5,65536
 1093 0084 F98F     		and	a5,a4,a5
 1094 0086 2322F4FE 		sw	a5,-28(s0)
 570:Drivers/src/ch32v20x_rcc.c **** 
 571:Drivers/src/ch32v20x_rcc.c ****         pllmull = ( pllmull >> 18) + 2;
 1095              		.loc 1 571 29
 1096 008a 8327C4FE 		lw	a5,-20(s0)
 1097 008e C983     		srli	a5,a5,18
GAS LISTING C:\Users\SOLDER~1\AppData\Local\Temp\cchmqEOm.s 			page 30


 1098              		.loc 1 571 17
 1099 0090 8907     		addi	a5,a5,2
 1100 0092 2326F4FE 		sw	a5,-20(s0)
 572:Drivers/src/ch32v20x_rcc.c **** 
 573:Drivers/src/ch32v20x_rcc.c ****         if(pllmull == 17) pllmull = 18;
 1101              		.loc 1 573 11
 1102 0096 0327C4FE 		lw	a4,-20(s0)
 1103 009a C547     		li	a5,17
 1104 009c 6315F700 		bne	a4,a5,.L55
 1105              		.loc 1 573 35 discriminator 1
 1106 00a0 C947     		li	a5,18
 1107 00a2 2326F4FE 		sw	a5,-20(s0)
 1108              	.L55:
 574:Drivers/src/ch32v20x_rcc.c **** 
 575:Drivers/src/ch32v20x_rcc.c **** 
 576:Drivers/src/ch32v20x_rcc.c ****         if (pllsource == 0x00)
 1109              		.loc 1 576 12
 1110 00a6 832744FE 		lw	a5,-28(s0)
 1111 00aa A1E3     		bne	a5,zero,.L56
 577:Drivers/src/ch32v20x_rcc.c ****         {
 578:Drivers/src/ch32v20x_rcc.c ****           if(EXTEN->EXTEN_CTR & EXTEN_PLL_HSI_PRE){
 1112              		.loc 1 578 19
 1113 00ac B7470240 		li	a5,1073889280
 1114 00b0 93870780 		addi	a5,a5,-2048
 1115 00b4 9C43     		lw	a5,0(a5)
 1116              		.loc 1 578 31
 1117 00b6 C18B     		andi	a5,a5,16
 1118              		.loc 1 578 13
 1119 00b8 89CF     		beq	a5,zero,.L57
 579:Drivers/src/ch32v20x_rcc.c ****               RCC_Clocks->SYSCLK_Frequency = (HSI_VALUE) * pllmull;
 1120              		.loc 1 579 58
 1121 00ba 0327C4FE 		lw	a4,-20(s0)
 1122 00be B7177A00 		li	a5,7999488
 1123 00c2 93870720 		addi	a5,a5,512
 1124 00c6 3307F702 		mul	a4,a4,a5
 1125              		.loc 1 579 44
 1126 00ca 8327C4FD 		lw	a5,-36(s0)
 1127 00ce 98C3     		sw	a4,0(a5)
 580:Drivers/src/ch32v20x_rcc.c ****           }
 581:Drivers/src/ch32v20x_rcc.c ****           else{
 582:Drivers/src/ch32v20x_rcc.c ****               RCC_Clocks->SYSCLK_Frequency = (HSI_VALUE >>1) * pllmull;
 583:Drivers/src/ch32v20x_rcc.c ****           }
 584:Drivers/src/ch32v20x_rcc.c ****         }
 585:Drivers/src/ch32v20x_rcc.c ****         else
 586:Drivers/src/ch32v20x_rcc.c ****         {
 587:Drivers/src/ch32v20x_rcc.c **** #if defined (CH32V20x_D8W)
 588:Drivers/src/ch32v20x_rcc.c ****           if((RCC->CFGR0 & (3<<22)) == (3<<22))
 589:Drivers/src/ch32v20x_rcc.c ****           {
 590:Drivers/src/ch32v20x_rcc.c ****               RCC_Clocks->SYSCLK_Frequency = ((HSE_VALUE>>1)) * pllmull;
 591:Drivers/src/ch32v20x_rcc.c ****           }
 592:Drivers/src/ch32v20x_rcc.c ****           else
 593:Drivers/src/ch32v20x_rcc.c **** #endif
 594:Drivers/src/ch32v20x_rcc.c ****           if ((RCC->CFGR0 & CFGR0_PLLXTPRE_Mask) != (uint32_t)RESET)
 595:Drivers/src/ch32v20x_rcc.c ****           {
 596:Drivers/src/ch32v20x_rcc.c **** #if defined (CH32V20x_D8) || defined (CH32V20x_D8W)
 597:Drivers/src/ch32v20x_rcc.c ****               RCC_Clocks->SYSCLK_Frequency = ((HSE_VALUE>>2) >> 1) * pllmull;
 598:Drivers/src/ch32v20x_rcc.c **** #else
GAS LISTING C:\Users\SOLDER~1\AppData\Local\Temp\cchmqEOm.s 			page 31


 599:Drivers/src/ch32v20x_rcc.c ****             RCC_Clocks->SYSCLK_Frequency = (HSE_VALUE >> 1) * pllmull;
 600:Drivers/src/ch32v20x_rcc.c **** #endif
 601:Drivers/src/ch32v20x_rcc.c ****           }
 602:Drivers/src/ch32v20x_rcc.c ****           else
 603:Drivers/src/ch32v20x_rcc.c ****           {
 604:Drivers/src/ch32v20x_rcc.c **** #if defined (CH32V20x_D8) || defined (CH32V20x_D8W)
 605:Drivers/src/ch32v20x_rcc.c ****               RCC_Clocks->SYSCLK_Frequency = (HSE_VALUE>>2) * pllmull;
 606:Drivers/src/ch32v20x_rcc.c **** #else
 607:Drivers/src/ch32v20x_rcc.c ****             RCC_Clocks->SYSCLK_Frequency = HSE_VALUE * pllmull;
 608:Drivers/src/ch32v20x_rcc.c **** #endif
 609:Drivers/src/ch32v20x_rcc.c **** 
 610:Drivers/src/ch32v20x_rcc.c ****           }
 611:Drivers/src/ch32v20x_rcc.c ****         }
 612:Drivers/src/ch32v20x_rcc.c **** 
 613:Drivers/src/ch32v20x_rcc.c ****         break;
 1128              		.loc 1 613 9
 1129 00d0 A5A0     		j	.L54
 1130              	.L57:
 582:Drivers/src/ch32v20x_rcc.c ****           }
 1131              		.loc 1 582 62
 1132 00d2 0327C4FE 		lw	a4,-20(s0)
 1133 00d6 B7173D00 		li	a5,4001792
 1134 00da 93870790 		addi	a5,a5,-1792
 1135 00de 3307F702 		mul	a4,a4,a5
 582:Drivers/src/ch32v20x_rcc.c ****           }
 1136              		.loc 1 582 44
 1137 00e2 8327C4FD 		lw	a5,-36(s0)
 1138 00e6 98C3     		sw	a4,0(a5)
 1139              		.loc 1 613 9
 1140 00e8 81A8     		j	.L54
 1141              	.L56:
 594:Drivers/src/ch32v20x_rcc.c ****           {
 1142              		.loc 1 594 19
 1143 00ea B7170240 		li	a5,1073876992
 1144 00ee D843     		lw	a4,4(a5)
 594:Drivers/src/ch32v20x_rcc.c ****           {
 1145              		.loc 1 594 27
 1146 00f0 B7070200 		li	a5,131072
 1147 00f4 F98F     		and	a5,a4,a5
 594:Drivers/src/ch32v20x_rcc.c ****           {
 1148              		.loc 1 594 14
 1149 00f6 89CF     		beq	a5,zero,.L59
 599:Drivers/src/ch32v20x_rcc.c **** #endif
 1150              		.loc 1 599 61
 1151 00f8 0327C4FE 		lw	a4,-20(s0)
 1152 00fc B7173D00 		li	a5,4001792
 1153 0100 93870790 		addi	a5,a5,-1792
 1154 0104 3307F702 		mul	a4,a4,a5
 599:Drivers/src/ch32v20x_rcc.c **** #endif
 1155              		.loc 1 599 42
 1156 0108 8327C4FD 		lw	a5,-36(s0)
 1157 010c 98C3     		sw	a4,0(a5)
 1158              		.loc 1 613 9
 1159 010e 2DA0     		j	.L54
 1160              	.L59:
 607:Drivers/src/ch32v20x_rcc.c **** #endif
 1161              		.loc 1 607 54
GAS LISTING C:\Users\SOLDER~1\AppData\Local\Temp\cchmqEOm.s 			page 32


 1162 0110 0327C4FE 		lw	a4,-20(s0)
 1163 0114 B7177A00 		li	a5,7999488
 1164 0118 93870720 		addi	a5,a5,512
 1165 011c 3307F702 		mul	a4,a4,a5
 607:Drivers/src/ch32v20x_rcc.c **** #endif
 1166              		.loc 1 607 42
 1167 0120 8327C4FD 		lw	a5,-36(s0)
 1168 0124 98C3     		sw	a4,0(a5)
 1169              		.loc 1 613 9
 1170 0126 09A8     		j	.L54
 1171              	.L51:
 614:Drivers/src/ch32v20x_rcc.c **** 
 615:Drivers/src/ch32v20x_rcc.c ****       default:
 616:Drivers/src/ch32v20x_rcc.c ****         RCC_Clocks->SYSCLK_Frequency = HSI_VALUE;
 1172              		.loc 1 616 38
 1173 0128 8327C4FD 		lw	a5,-36(s0)
 1174 012c 37177A00 		li	a4,7999488
 1175 0130 13070720 		addi	a4,a4,512
 1176 0134 98C3     		sw	a4,0(a5)
 617:Drivers/src/ch32v20x_rcc.c ****         break;
 1177              		.loc 1 617 9
 1178 0136 0100     		nop
 1179              	.L54:
 618:Drivers/src/ch32v20x_rcc.c ****     }
 619:Drivers/src/ch32v20x_rcc.c **** 
 620:Drivers/src/ch32v20x_rcc.c ****     tmp = RCC->CFGR0 & CFGR0_HPRE_Set_Mask;
 1180              		.loc 1 620 14
 1181 0138 B7170240 		li	a5,1073876992
 1182 013c DC43     		lw	a5,4(a5)
 1183              		.loc 1 620 9
 1184 013e 93F7070F 		andi	a5,a5,240
 1185 0142 2324F4FE 		sw	a5,-24(s0)
 621:Drivers/src/ch32v20x_rcc.c ****     tmp = tmp >> 4;
 1186              		.loc 1 621 9
 1187 0146 832784FE 		lw	a5,-24(s0)
 1188 014a 9183     		srli	a5,a5,4
 1189 014c 2324F4FE 		sw	a5,-24(s0)
 622:Drivers/src/ch32v20x_rcc.c ****     presc = APBAHBPrescTable[tmp];
 1190              		.loc 1 622 29
 1191 0150 B7070000 		lui	a5,%hi(APBAHBPrescTable)
 1192 0154 13870700 		addi	a4,a5,%lo(APBAHBPrescTable)
 1193 0158 832784FE 		lw	a5,-24(s0)
 1194 015c BA97     		add	a5,a4,a5
 1195 015e 9C23     		lbu	a5,0(a5)
 1196 0160 93F7F70F 		andi	a5,a5,0xff
 1197              		.loc 1 622 11
 1198 0164 2320F4FE 		sw	a5,-32(s0)
 623:Drivers/src/ch32v20x_rcc.c ****     RCC_Clocks->HCLK_Frequency = RCC_Clocks->SYSCLK_Frequency >> presc;
 1199              		.loc 1 623 44
 1200 0168 8327C4FD 		lw	a5,-36(s0)
 1201 016c 9843     		lw	a4,0(a5)
 1202              		.loc 1 623 63
 1203 016e 832704FE 		lw	a5,-32(s0)
 1204 0172 3357F700 		srl	a4,a4,a5
 1205              		.loc 1 623 32
 1206 0176 8327C4FD 		lw	a5,-36(s0)
 1207 017a D8C3     		sw	a4,4(a5)
GAS LISTING C:\Users\SOLDER~1\AppData\Local\Temp\cchmqEOm.s 			page 33


 624:Drivers/src/ch32v20x_rcc.c ****     tmp = RCC->CFGR0 & CFGR0_PPRE1_Set_Mask;
 1208              		.loc 1 624 14
 1209 017c B7170240 		li	a5,1073876992
 1210 0180 DC43     		lw	a5,4(a5)
 1211              		.loc 1 624 9
 1212 0182 93F70770 		andi	a5,a5,1792
 1213 0186 2324F4FE 		sw	a5,-24(s0)
 625:Drivers/src/ch32v20x_rcc.c ****     tmp = tmp >> 8;
 1214              		.loc 1 625 9
 1215 018a 832784FE 		lw	a5,-24(s0)
 1216 018e A183     		srli	a5,a5,8
 1217 0190 2324F4FE 		sw	a5,-24(s0)
 626:Drivers/src/ch32v20x_rcc.c ****     presc = APBAHBPrescTable[tmp];
 1218              		.loc 1 626 29
 1219 0194 B7070000 		lui	a5,%hi(APBAHBPrescTable)
 1220 0198 13870700 		addi	a4,a5,%lo(APBAHBPrescTable)
 1221 019c 832784FE 		lw	a5,-24(s0)
 1222 01a0 BA97     		add	a5,a4,a5
 1223 01a2 9C23     		lbu	a5,0(a5)
 1224 01a4 93F7F70F 		andi	a5,a5,0xff
 1225              		.loc 1 626 11
 1226 01a8 2320F4FE 		sw	a5,-32(s0)
 627:Drivers/src/ch32v20x_rcc.c ****     RCC_Clocks->PCLK1_Frequency = RCC_Clocks->HCLK_Frequency >> presc;
 1227              		.loc 1 627 45
 1228 01ac 8327C4FD 		lw	a5,-36(s0)
 1229 01b0 D843     		lw	a4,4(a5)
 1230              		.loc 1 627 62
 1231 01b2 832704FE 		lw	a5,-32(s0)
 1232 01b6 3357F700 		srl	a4,a4,a5
 1233              		.loc 1 627 33
 1234 01ba 8327C4FD 		lw	a5,-36(s0)
 1235 01be 98C7     		sw	a4,8(a5)
 628:Drivers/src/ch32v20x_rcc.c ****     tmp = RCC->CFGR0 & CFGR0_PPRE2_Set_Mask;
 1236              		.loc 1 628 14
 1237 01c0 B7170240 		li	a5,1073876992
 1238 01c4 D843     		lw	a4,4(a5)
 1239              		.loc 1 628 9
 1240 01c6 9167     		li	a5,16384
 1241 01c8 93870780 		addi	a5,a5,-2048
 1242 01cc F98F     		and	a5,a4,a5
 1243 01ce 2324F4FE 		sw	a5,-24(s0)
 629:Drivers/src/ch32v20x_rcc.c ****     tmp = tmp >> 11;
 1244              		.loc 1 629 9
 1245 01d2 832784FE 		lw	a5,-24(s0)
 1246 01d6 AD83     		srli	a5,a5,11
 1247 01d8 2324F4FE 		sw	a5,-24(s0)
 630:Drivers/src/ch32v20x_rcc.c ****     presc = APBAHBPrescTable[tmp];
 1248              		.loc 1 630 29
 1249 01dc B7070000 		lui	a5,%hi(APBAHBPrescTable)
 1250 01e0 13870700 		addi	a4,a5,%lo(APBAHBPrescTable)
 1251 01e4 832784FE 		lw	a5,-24(s0)
 1252 01e8 BA97     		add	a5,a4,a5
 1253 01ea 9C23     		lbu	a5,0(a5)
 1254 01ec 93F7F70F 		andi	a5,a5,0xff
 1255              		.loc 1 630 11
 1256 01f0 2320F4FE 		sw	a5,-32(s0)
 631:Drivers/src/ch32v20x_rcc.c ****     RCC_Clocks->PCLK2_Frequency = RCC_Clocks->HCLK_Frequency >> presc;
GAS LISTING C:\Users\SOLDER~1\AppData\Local\Temp\cchmqEOm.s 			page 34


 1257              		.loc 1 631 45
 1258 01f4 8327C4FD 		lw	a5,-36(s0)
 1259 01f8 D843     		lw	a4,4(a5)
 1260              		.loc 1 631 62
 1261 01fa 832704FE 		lw	a5,-32(s0)
 1262 01fe 3357F700 		srl	a4,a4,a5
 1263              		.loc 1 631 33
 1264 0202 8327C4FD 		lw	a5,-36(s0)
 1265 0206 D8C7     		sw	a4,12(a5)
 632:Drivers/src/ch32v20x_rcc.c ****     tmp = RCC->CFGR0 & CFGR0_ADCPRE_Set_Mask;
 1266              		.loc 1 632 14
 1267 0208 B7170240 		li	a5,1073876992
 1268 020c D843     		lw	a4,4(a5)
 1269              		.loc 1 632 9
 1270 020e B167     		li	a5,49152
 1271 0210 F98F     		and	a5,a4,a5
 1272 0212 2324F4FE 		sw	a5,-24(s0)
 633:Drivers/src/ch32v20x_rcc.c ****     tmp = tmp >> 14;
 1273              		.loc 1 633 9
 1274 0216 832784FE 		lw	a5,-24(s0)
 1275 021a B983     		srli	a5,a5,14
 1276 021c 2324F4FE 		sw	a5,-24(s0)
 634:Drivers/src/ch32v20x_rcc.c ****     presc = ADCPrescTable[tmp];
 1277              		.loc 1 634 26
 1278 0220 B7070000 		lui	a5,%hi(ADCPrescTable)
 1279 0224 13870700 		addi	a4,a5,%lo(ADCPrescTable)
 1280 0228 832784FE 		lw	a5,-24(s0)
 1281 022c BA97     		add	a5,a4,a5
 1282 022e 9C23     		lbu	a5,0(a5)
 1283 0230 93F7F70F 		andi	a5,a5,0xff
 1284              		.loc 1 634 11
 1285 0234 2320F4FE 		sw	a5,-32(s0)
 635:Drivers/src/ch32v20x_rcc.c ****     RCC_Clocks->ADCCLK_Frequency = RCC_Clocks->PCLK2_Frequency / presc;
 1286              		.loc 1 635 46
 1287 0238 8327C4FD 		lw	a5,-36(s0)
 1288 023c D847     		lw	a4,12(a5)
 1289              		.loc 1 635 64
 1290 023e 832704FE 		lw	a5,-32(s0)
 1291 0242 3357F702 		divu	a4,a4,a5
 1292              		.loc 1 635 34
 1293 0246 8327C4FD 		lw	a5,-36(s0)
 1294 024a 98CB     		sw	a4,16(a5)
 636:Drivers/src/ch32v20x_rcc.c **** }
 1295              		.loc 1 636 1
 1296 024c 0100     		nop
 1297 024e 3254     		lw	s0,44(sp)
 1298              		.cfi_restore 8
 1299              		.cfi_def_cfa 2, 48
 1300 0250 4561     		addi	sp,sp,48
 1301              		.cfi_def_cfa_offset 0
 1302 0252 8280     		jr	ra
 1303              		.cfi_endproc
 1304              	.LFE35:
 1306              		.section	.text.RCC_AHBPeriphClockCmd,"ax",@progbits
 1307              		.align	1
 1308              		.globl	RCC_AHBPeriphClockCmd
 1310              	RCC_AHBPeriphClockCmd:
GAS LISTING C:\Users\SOLDER~1\AppData\Local\Temp\cchmqEOm.s 			page 35


 1311              	.LFB36:
 637:Drivers/src/ch32v20x_rcc.c **** 
 638:Drivers/src/ch32v20x_rcc.c **** /*********************************************************************
 639:Drivers/src/ch32v20x_rcc.c ****  * @fn      RCC_AHBPeriphClockCmd
 640:Drivers/src/ch32v20x_rcc.c ****  *
 641:Drivers/src/ch32v20x_rcc.c ****  * @brief   Enables or disables the AHB peripheral clock.
 642:Drivers/src/ch32v20x_rcc.c ****  *
 643:Drivers/src/ch32v20x_rcc.c ****  * @param   RCC_AHBPeriph - specifies the AHB peripheral to gates its clock.
 644:Drivers/src/ch32v20x_rcc.c ****  *            RCC_AHBPeriph_DMA1.
 645:Drivers/src/ch32v20x_rcc.c ****  *            RCC_AHBPeriph_DMA2.
 646:Drivers/src/ch32v20x_rcc.c ****  *            RCC_AHBPeriph_SRAM.
 647:Drivers/src/ch32v20x_rcc.c ****  *            RCC_AHBPeriph_CRC.
 648:Drivers/src/ch32v20x_rcc.c ****  *            RCC_AHBPeriph_OTG_FS
 649:Drivers/src/ch32v20x_rcc.c ****  *          Note-
 650:Drivers/src/ch32v20x_rcc.c ****  *          SRAM  clock can be disabled only during sleep mode.
 651:Drivers/src/ch32v20x_rcc.c ****  *          NewState: ENABLE or DISABLE.
 652:Drivers/src/ch32v20x_rcc.c ****  *
 653:Drivers/src/ch32v20x_rcc.c ****  * @return  none
 654:Drivers/src/ch32v20x_rcc.c ****  */
 655:Drivers/src/ch32v20x_rcc.c **** void RCC_AHBPeriphClockCmd(uint32_t RCC_AHBPeriph, FunctionalState NewState)
 656:Drivers/src/ch32v20x_rcc.c **** {
 1312              		.loc 1 656 1
 1313              		.cfi_startproc
 1314 0000 0111     		addi	sp,sp,-32
 1315              		.cfi_def_cfa_offset 32
 1316 0002 22CE     		sw	s0,28(sp)
 1317              		.cfi_offset 8, -4
 1318 0004 0010     		addi	s0,sp,32
 1319              		.cfi_def_cfa 8, 0
 1320 0006 2326A4FE 		sw	a0,-20(s0)
 1321 000a 2324B4FE 		sw	a1,-24(s0)
 657:Drivers/src/ch32v20x_rcc.c ****   if (NewState != DISABLE)
 1322              		.loc 1 657 6
 1323 000e 832784FE 		lw	a5,-24(s0)
 1324 0012 99CB     		beq	a5,zero,.L61
 658:Drivers/src/ch32v20x_rcc.c ****   {
 659:Drivers/src/ch32v20x_rcc.c ****     RCC->AHBPCENR |= RCC_AHBPeriph;
 1325              		.loc 1 659 8
 1326 0014 B7170240 		li	a5,1073876992
 1327 0018 D44B     		lw	a3,20(a5)
 1328 001a B7170240 		li	a5,1073876992
 1329              		.loc 1 659 19
 1330 001e 0327C4FE 		lw	a4,-20(s0)
 1331 0022 558F     		or	a4,a3,a4
 1332 0024 D8CB     		sw	a4,20(a5)
 660:Drivers/src/ch32v20x_rcc.c ****   }
 661:Drivers/src/ch32v20x_rcc.c ****   else
 662:Drivers/src/ch32v20x_rcc.c ****   {
 663:Drivers/src/ch32v20x_rcc.c ****     RCC->AHBPCENR &= ~RCC_AHBPeriph;
 664:Drivers/src/ch32v20x_rcc.c ****   }
 665:Drivers/src/ch32v20x_rcc.c **** }
 1333              		.loc 1 665 1
 1334 0026 21A8     		j	.L63
 1335              	.L61:
 663:Drivers/src/ch32v20x_rcc.c ****   }
 1336              		.loc 1 663 8
 1337 0028 B7170240 		li	a5,1073876992
GAS LISTING C:\Users\SOLDER~1\AppData\Local\Temp\cchmqEOm.s 			page 36


 1338 002c D44B     		lw	a3,20(a5)
 663:Drivers/src/ch32v20x_rcc.c ****   }
 1339              		.loc 1 663 22
 1340 002e 8327C4FE 		lw	a5,-20(s0)
 1341 0032 13C7F7FF 		not	a4,a5
 663:Drivers/src/ch32v20x_rcc.c ****   }
 1342              		.loc 1 663 8
 1343 0036 B7170240 		li	a5,1073876992
 663:Drivers/src/ch32v20x_rcc.c ****   }
 1344              		.loc 1 663 19
 1345 003a 758F     		and	a4,a3,a4
 1346 003c D8CB     		sw	a4,20(a5)
 1347              	.L63:
 1348              		.loc 1 665 1
 1349 003e 0100     		nop
 1350 0040 7244     		lw	s0,28(sp)
 1351              		.cfi_restore 8
 1352              		.cfi_def_cfa 2, 32
 1353 0042 0561     		addi	sp,sp,32
 1354              		.cfi_def_cfa_offset 0
 1355 0044 8280     		jr	ra
 1356              		.cfi_endproc
 1357              	.LFE36:
 1359              		.section	.text.RCC_APB2PeriphClockCmd,"ax",@progbits
 1360              		.align	1
 1361              		.globl	RCC_APB2PeriphClockCmd
 1363              	RCC_APB2PeriphClockCmd:
 1364              	.LFB37:
 666:Drivers/src/ch32v20x_rcc.c **** 
 667:Drivers/src/ch32v20x_rcc.c **** /*********************************************************************
 668:Drivers/src/ch32v20x_rcc.c ****  * @fn      RCC_APB2PeriphClockCmd
 669:Drivers/src/ch32v20x_rcc.c ****  *
 670:Drivers/src/ch32v20x_rcc.c ****  * @brief   Enables or disables the High Speed APB (APB2) peripheral clock.
 671:Drivers/src/ch32v20x_rcc.c ****  *
 672:Drivers/src/ch32v20x_rcc.c ****  * @param   RCC_APB2Periph - specifies the APB2 peripheral to gates its clock.
 673:Drivers/src/ch32v20x_rcc.c ****  *            RCC_APB2Periph_AFIO.
 674:Drivers/src/ch32v20x_rcc.c ****  *            RCC_APB2Periph_GPIOA.
 675:Drivers/src/ch32v20x_rcc.c ****  *            RCC_APB2Periph_GPIOB.
 676:Drivers/src/ch32v20x_rcc.c ****  *            RCC_APB2Periph_GPIOC.
 677:Drivers/src/ch32v20x_rcc.c ****  *            RCC_APB2Periph_GPIOD.
 678:Drivers/src/ch32v20x_rcc.c ****  *            RCC_APB2Periph_GPIOE
 679:Drivers/src/ch32v20x_rcc.c ****  *            RCC_APB2Periph_ADC1.
 680:Drivers/src/ch32v20x_rcc.c ****  *            RCC_APB2Periph_ADC2
 681:Drivers/src/ch32v20x_rcc.c ****  *            RCC_APB2Periph_TIM1.
 682:Drivers/src/ch32v20x_rcc.c ****  *            RCC_APB2Periph_SPI1.
 683:Drivers/src/ch32v20x_rcc.c ****  *            RCC_APB2Periph_TIM8
 684:Drivers/src/ch32v20x_rcc.c ****  *            RCC_APB2Periph_USART1.
 685:Drivers/src/ch32v20x_rcc.c ****  *          NewState - ENABLE or DISABLE
 686:Drivers/src/ch32v20x_rcc.c ****  *
 687:Drivers/src/ch32v20x_rcc.c ****  * @return  none
 688:Drivers/src/ch32v20x_rcc.c ****  */
 689:Drivers/src/ch32v20x_rcc.c **** void RCC_APB2PeriphClockCmd(uint32_t RCC_APB2Periph, FunctionalState NewState)
 690:Drivers/src/ch32v20x_rcc.c **** {
 1365              		.loc 1 690 1
 1366              		.cfi_startproc
 1367 0000 0111     		addi	sp,sp,-32
 1368              		.cfi_def_cfa_offset 32
GAS LISTING C:\Users\SOLDER~1\AppData\Local\Temp\cchmqEOm.s 			page 37


 1369 0002 22CE     		sw	s0,28(sp)
 1370              		.cfi_offset 8, -4
 1371 0004 0010     		addi	s0,sp,32
 1372              		.cfi_def_cfa 8, 0
 1373 0006 2326A4FE 		sw	a0,-20(s0)
 1374 000a 2324B4FE 		sw	a1,-24(s0)
 691:Drivers/src/ch32v20x_rcc.c ****   if (NewState != DISABLE)
 1375              		.loc 1 691 6
 1376 000e 832784FE 		lw	a5,-24(s0)
 1377 0012 99CB     		beq	a5,zero,.L65
 692:Drivers/src/ch32v20x_rcc.c ****   {
 693:Drivers/src/ch32v20x_rcc.c ****     RCC->APB2PCENR |= RCC_APB2Periph;
 1378              		.loc 1 693 8
 1379 0014 B7170240 		li	a5,1073876992
 1380 0018 944F     		lw	a3,24(a5)
 1381 001a B7170240 		li	a5,1073876992
 1382              		.loc 1 693 20
 1383 001e 0327C4FE 		lw	a4,-20(s0)
 1384 0022 558F     		or	a4,a3,a4
 1385 0024 98CF     		sw	a4,24(a5)
 694:Drivers/src/ch32v20x_rcc.c ****   }
 695:Drivers/src/ch32v20x_rcc.c ****   else
 696:Drivers/src/ch32v20x_rcc.c ****   {
 697:Drivers/src/ch32v20x_rcc.c ****     RCC->APB2PCENR &= ~RCC_APB2Periph;
 698:Drivers/src/ch32v20x_rcc.c ****   }
 699:Drivers/src/ch32v20x_rcc.c **** }
 1386              		.loc 1 699 1
 1387 0026 21A8     		j	.L67
 1388              	.L65:
 697:Drivers/src/ch32v20x_rcc.c ****   }
 1389              		.loc 1 697 8
 1390 0028 B7170240 		li	a5,1073876992
 1391 002c 944F     		lw	a3,24(a5)
 697:Drivers/src/ch32v20x_rcc.c ****   }
 1392              		.loc 1 697 23
 1393 002e 8327C4FE 		lw	a5,-20(s0)
 1394 0032 13C7F7FF 		not	a4,a5
 697:Drivers/src/ch32v20x_rcc.c ****   }
 1395              		.loc 1 697 8
 1396 0036 B7170240 		li	a5,1073876992
 697:Drivers/src/ch32v20x_rcc.c ****   }
 1397              		.loc 1 697 20
 1398 003a 758F     		and	a4,a3,a4
 1399 003c 98CF     		sw	a4,24(a5)
 1400              	.L67:
 1401              		.loc 1 699 1
 1402 003e 0100     		nop
 1403 0040 7244     		lw	s0,28(sp)
 1404              		.cfi_restore 8
 1405              		.cfi_def_cfa 2, 32
 1406 0042 0561     		addi	sp,sp,32
 1407              		.cfi_def_cfa_offset 0
 1408 0044 8280     		jr	ra
 1409              		.cfi_endproc
 1410              	.LFE37:
 1412              		.section	.text.RCC_APB1PeriphClockCmd,"ax",@progbits
 1413              		.align	1
GAS LISTING C:\Users\SOLDER~1\AppData\Local\Temp\cchmqEOm.s 			page 38


 1414              		.globl	RCC_APB1PeriphClockCmd
 1416              	RCC_APB1PeriphClockCmd:
 1417              	.LFB38:
 700:Drivers/src/ch32v20x_rcc.c **** 
 701:Drivers/src/ch32v20x_rcc.c **** /*********************************************************************
 702:Drivers/src/ch32v20x_rcc.c ****  * @fn      RCC_APB1PeriphClockCmd
 703:Drivers/src/ch32v20x_rcc.c ****  *
 704:Drivers/src/ch32v20x_rcc.c ****  * @brief   Enables or disables the Low Speed APB (APB1) peripheral clock.
 705:Drivers/src/ch32v20x_rcc.c ****  *
 706:Drivers/src/ch32v20x_rcc.c ****  * @param   RCC_APB1Periph - specifies the APB1 peripheral to gates its clock.
 707:Drivers/src/ch32v20x_rcc.c ****  *            RCC_APB1Periph_TIM2.
 708:Drivers/src/ch32v20x_rcc.c ****  *            RCC_APB1Periph_TIM3.
 709:Drivers/src/ch32v20x_rcc.c ****  *            RCC_APB1Periph_TIM4.
 710:Drivers/src/ch32v20x_rcc.c ****  *            RCC_APB1Periph_TIM5
 711:Drivers/src/ch32v20x_rcc.c ****  *            RCC_APB1Periph_WWDG.
 712:Drivers/src/ch32v20x_rcc.c ****  *            RCC_APB1Periph_SPI2.
 713:Drivers/src/ch32v20x_rcc.c ****  *            RCC_APB1Periph_USART2.
 714:Drivers/src/ch32v20x_rcc.c ****  *            RCC_APB1Periph_USART3.
 715:Drivers/src/ch32v20x_rcc.c ****  *            RCC_APB1Periph_UART4
 716:Drivers/src/ch32v20x_rcc.c ****  *            RCC_APB1Periph_I2C1.
 717:Drivers/src/ch32v20x_rcc.c ****  *            RCC_APB1Periph_I2C2.
 718:Drivers/src/ch32v20x_rcc.c ****  *            RCC_APB1Periph_USB.
 719:Drivers/src/ch32v20x_rcc.c ****  *            RCC_APB1Periph_CAN1.
 720:Drivers/src/ch32v20x_rcc.c ****  *            RCC_APB1Periph_BKP.
 721:Drivers/src/ch32v20x_rcc.c ****  *            RCC_APB1Periph_PWR.
 722:Drivers/src/ch32v20x_rcc.c ****  *          NewState - ENABLE or DISABLE.
 723:Drivers/src/ch32v20x_rcc.c ****  *
 724:Drivers/src/ch32v20x_rcc.c ****  * @return  none
 725:Drivers/src/ch32v20x_rcc.c ****  */
 726:Drivers/src/ch32v20x_rcc.c **** void RCC_APB1PeriphClockCmd(uint32_t RCC_APB1Periph, FunctionalState NewState)
 727:Drivers/src/ch32v20x_rcc.c **** {
 1418              		.loc 1 727 1
 1419              		.cfi_startproc
 1420 0000 0111     		addi	sp,sp,-32
 1421              		.cfi_def_cfa_offset 32
 1422 0002 22CE     		sw	s0,28(sp)
 1423              		.cfi_offset 8, -4
 1424 0004 0010     		addi	s0,sp,32
 1425              		.cfi_def_cfa 8, 0
 1426 0006 2326A4FE 		sw	a0,-20(s0)
 1427 000a 2324B4FE 		sw	a1,-24(s0)
 728:Drivers/src/ch32v20x_rcc.c ****   if (NewState != DISABLE)
 1428              		.loc 1 728 6
 1429 000e 832784FE 		lw	a5,-24(s0)
 1430 0012 99CB     		beq	a5,zero,.L69
 729:Drivers/src/ch32v20x_rcc.c ****   {
 730:Drivers/src/ch32v20x_rcc.c ****     RCC->APB1PCENR |= RCC_APB1Periph;
 1431              		.loc 1 730 8
 1432 0014 B7170240 		li	a5,1073876992
 1433 0018 D44F     		lw	a3,28(a5)
 1434 001a B7170240 		li	a5,1073876992
 1435              		.loc 1 730 20
 1436 001e 0327C4FE 		lw	a4,-20(s0)
 1437 0022 558F     		or	a4,a3,a4
 1438 0024 D8CF     		sw	a4,28(a5)
 731:Drivers/src/ch32v20x_rcc.c ****   }
 732:Drivers/src/ch32v20x_rcc.c ****   else
GAS LISTING C:\Users\SOLDER~1\AppData\Local\Temp\cchmqEOm.s 			page 39


 733:Drivers/src/ch32v20x_rcc.c ****   {
 734:Drivers/src/ch32v20x_rcc.c ****     RCC->APB1PCENR &= ~RCC_APB1Periph;
 735:Drivers/src/ch32v20x_rcc.c ****   }
 736:Drivers/src/ch32v20x_rcc.c **** }
 1439              		.loc 1 736 1
 1440 0026 21A8     		j	.L71
 1441              	.L69:
 734:Drivers/src/ch32v20x_rcc.c ****   }
 1442              		.loc 1 734 8
 1443 0028 B7170240 		li	a5,1073876992
 1444 002c D44F     		lw	a3,28(a5)
 734:Drivers/src/ch32v20x_rcc.c ****   }
 1445              		.loc 1 734 23
 1446 002e 8327C4FE 		lw	a5,-20(s0)
 1447 0032 13C7F7FF 		not	a4,a5
 734:Drivers/src/ch32v20x_rcc.c ****   }
 1448              		.loc 1 734 8
 1449 0036 B7170240 		li	a5,1073876992
 734:Drivers/src/ch32v20x_rcc.c ****   }
 1450              		.loc 1 734 20
 1451 003a 758F     		and	a4,a3,a4
 1452 003c D8CF     		sw	a4,28(a5)
 1453              	.L71:
 1454              		.loc 1 736 1
 1455 003e 0100     		nop
 1456 0040 7244     		lw	s0,28(sp)
 1457              		.cfi_restore 8
 1458              		.cfi_def_cfa 2, 32
 1459 0042 0561     		addi	sp,sp,32
 1460              		.cfi_def_cfa_offset 0
 1461 0044 8280     		jr	ra
 1462              		.cfi_endproc
 1463              	.LFE38:
 1465              		.section	.text.RCC_APB2PeriphResetCmd,"ax",@progbits
 1466              		.align	1
 1467              		.globl	RCC_APB2PeriphResetCmd
 1469              	RCC_APB2PeriphResetCmd:
 1470              	.LFB39:
 737:Drivers/src/ch32v20x_rcc.c **** 
 738:Drivers/src/ch32v20x_rcc.c **** /*********************************************************************
 739:Drivers/src/ch32v20x_rcc.c ****  * @fn      RCC_APB2PeriphResetCmd
 740:Drivers/src/ch32v20x_rcc.c ****  *
 741:Drivers/src/ch32v20x_rcc.c ****  * @brief   Forces or releases High Speed APB (APB2) peripheral reset.
 742:Drivers/src/ch32v20x_rcc.c ****  *
 743:Drivers/src/ch32v20x_rcc.c ****  * @param   RCC_APB2Periph - specifies the APB2 peripheral to reset.
 744:Drivers/src/ch32v20x_rcc.c ****  *            RCC_APB2Periph_AFIO.
 745:Drivers/src/ch32v20x_rcc.c ****  *            RCC_APB2Periph_GPIOA.
 746:Drivers/src/ch32v20x_rcc.c ****  *            RCC_APB2Periph_GPIOB.
 747:Drivers/src/ch32v20x_rcc.c ****  *            RCC_APB2Periph_GPIOC.
 748:Drivers/src/ch32v20x_rcc.c ****  *            RCC_APB2Periph_GPIOD.
 749:Drivers/src/ch32v20x_rcc.c ****  *            RCC_APB2Periph_GPIOE
 750:Drivers/src/ch32v20x_rcc.c ****  *            RCC_APB2Periph_ADC1.
 751:Drivers/src/ch32v20x_rcc.c ****  *            RCC_APB2Periph_ADC2
 752:Drivers/src/ch32v20x_rcc.c ****  *            RCC_APB2Periph_TIM1.
 753:Drivers/src/ch32v20x_rcc.c ****  *            RCC_APB2Periph_SPI1.
 754:Drivers/src/ch32v20x_rcc.c ****  *            RCC_APB2Periph_TIM8
 755:Drivers/src/ch32v20x_rcc.c ****  *            RCC_APB2Periph_USART1.
GAS LISTING C:\Users\SOLDER~1\AppData\Local\Temp\cchmqEOm.s 			page 40


 756:Drivers/src/ch32v20x_rcc.c ****  *          NewState - ENABLE or DISABLE
 757:Drivers/src/ch32v20x_rcc.c ****  *
 758:Drivers/src/ch32v20x_rcc.c ****  * @return  none
 759:Drivers/src/ch32v20x_rcc.c ****  */
 760:Drivers/src/ch32v20x_rcc.c **** void RCC_APB2PeriphResetCmd(uint32_t RCC_APB2Periph, FunctionalState NewState)
 761:Drivers/src/ch32v20x_rcc.c **** {
 1471              		.loc 1 761 1
 1472              		.cfi_startproc
 1473 0000 0111     		addi	sp,sp,-32
 1474              		.cfi_def_cfa_offset 32
 1475 0002 22CE     		sw	s0,28(sp)
 1476              		.cfi_offset 8, -4
 1477 0004 0010     		addi	s0,sp,32
 1478              		.cfi_def_cfa 8, 0
 1479 0006 2326A4FE 		sw	a0,-20(s0)
 1480 000a 2324B4FE 		sw	a1,-24(s0)
 762:Drivers/src/ch32v20x_rcc.c ****   if (NewState != DISABLE)
 1481              		.loc 1 762 6
 1482 000e 832784FE 		lw	a5,-24(s0)
 1483 0012 99CB     		beq	a5,zero,.L73
 763:Drivers/src/ch32v20x_rcc.c ****   {
 764:Drivers/src/ch32v20x_rcc.c ****     RCC->APB2PRSTR |= RCC_APB2Periph;
 1484              		.loc 1 764 8
 1485 0014 B7170240 		li	a5,1073876992
 1486 0018 D447     		lw	a3,12(a5)
 1487 001a B7170240 		li	a5,1073876992
 1488              		.loc 1 764 20
 1489 001e 0327C4FE 		lw	a4,-20(s0)
 1490 0022 558F     		or	a4,a3,a4
 1491 0024 D8C7     		sw	a4,12(a5)
 765:Drivers/src/ch32v20x_rcc.c ****   }
 766:Drivers/src/ch32v20x_rcc.c ****   else
 767:Drivers/src/ch32v20x_rcc.c ****   {
 768:Drivers/src/ch32v20x_rcc.c ****     RCC->APB2PRSTR &= ~RCC_APB2Periph;
 769:Drivers/src/ch32v20x_rcc.c ****   }
 770:Drivers/src/ch32v20x_rcc.c **** }
 1492              		.loc 1 770 1
 1493 0026 21A8     		j	.L75
 1494              	.L73:
 768:Drivers/src/ch32v20x_rcc.c ****   }
 1495              		.loc 1 768 8
 1496 0028 B7170240 		li	a5,1073876992
 1497 002c D447     		lw	a3,12(a5)
 768:Drivers/src/ch32v20x_rcc.c ****   }
 1498              		.loc 1 768 23
 1499 002e 8327C4FE 		lw	a5,-20(s0)
 1500 0032 13C7F7FF 		not	a4,a5
 768:Drivers/src/ch32v20x_rcc.c ****   }
 1501              		.loc 1 768 8
 1502 0036 B7170240 		li	a5,1073876992
 768:Drivers/src/ch32v20x_rcc.c ****   }
 1503              		.loc 1 768 20
 1504 003a 758F     		and	a4,a3,a4
 1505 003c D8C7     		sw	a4,12(a5)
 1506              	.L75:
 1507              		.loc 1 770 1
 1508 003e 0100     		nop
GAS LISTING C:\Users\SOLDER~1\AppData\Local\Temp\cchmqEOm.s 			page 41


 1509 0040 7244     		lw	s0,28(sp)
 1510              		.cfi_restore 8
 1511              		.cfi_def_cfa 2, 32
 1512 0042 0561     		addi	sp,sp,32
 1513              		.cfi_def_cfa_offset 0
 1514 0044 8280     		jr	ra
 1515              		.cfi_endproc
 1516              	.LFE39:
 1518              		.section	.text.RCC_APB1PeriphResetCmd,"ax",@progbits
 1519              		.align	1
 1520              		.globl	RCC_APB1PeriphResetCmd
 1522              	RCC_APB1PeriphResetCmd:
 1523              	.LFB40:
 771:Drivers/src/ch32v20x_rcc.c **** 
 772:Drivers/src/ch32v20x_rcc.c **** /*********************************************************************
 773:Drivers/src/ch32v20x_rcc.c ****  * @fn      RCC_APB1PeriphResetCmd
 774:Drivers/src/ch32v20x_rcc.c ****  *
 775:Drivers/src/ch32v20x_rcc.c ****  * @brief   Forces or releases Low Speed APB (APB1) peripheral reset.
 776:Drivers/src/ch32v20x_rcc.c ****  *
 777:Drivers/src/ch32v20x_rcc.c ****  * @param   RCC_APB1Periph - specifies the APB1 peripheral to reset.
 778:Drivers/src/ch32v20x_rcc.c ****  *            RCC_APB1Periph_TIM2.
 779:Drivers/src/ch32v20x_rcc.c ****  *            RCC_APB1Periph_TIM3.
 780:Drivers/src/ch32v20x_rcc.c ****  *            RCC_APB1Periph_TIM4.
 781:Drivers/src/ch32v20x_rcc.c ****  *            RCC_APB1Periph_TIM5
 782:Drivers/src/ch32v20x_rcc.c ****  *            RCC_APB1Periph_WWDG.
 783:Drivers/src/ch32v20x_rcc.c ****  *            RCC_APB1Periph_SPI2.
 784:Drivers/src/ch32v20x_rcc.c ****  *            RCC_APB1Periph_USART2.
 785:Drivers/src/ch32v20x_rcc.c ****  *            RCC_APB1Periph_USART3.
 786:Drivers/src/ch32v20x_rcc.c ****  *            RCC_APB1Periph_UART4
 787:Drivers/src/ch32v20x_rcc.c ****  *            RCC_APB1Periph_I2C1.
 788:Drivers/src/ch32v20x_rcc.c ****  *            RCC_APB1Periph_I2C2.
 789:Drivers/src/ch32v20x_rcc.c ****  *            RCC_APB1Periph_USB.
 790:Drivers/src/ch32v20x_rcc.c ****  *            RCC_APB1Periph_CAN1.
 791:Drivers/src/ch32v20x_rcc.c ****  *            RCC_APB1Periph_BKP.
 792:Drivers/src/ch32v20x_rcc.c ****  *            RCC_APB1Periph_PWR.
 793:Drivers/src/ch32v20x_rcc.c ****  *          NewState - ENABLE or DISABLE.
 794:Drivers/src/ch32v20x_rcc.c ****  *
 795:Drivers/src/ch32v20x_rcc.c ****  * @return  none
 796:Drivers/src/ch32v20x_rcc.c ****  */
 797:Drivers/src/ch32v20x_rcc.c **** void RCC_APB1PeriphResetCmd(uint32_t RCC_APB1Periph, FunctionalState NewState)
 798:Drivers/src/ch32v20x_rcc.c **** {
 1524              		.loc 1 798 1
 1525              		.cfi_startproc
 1526 0000 0111     		addi	sp,sp,-32
 1527              		.cfi_def_cfa_offset 32
 1528 0002 22CE     		sw	s0,28(sp)
 1529              		.cfi_offset 8, -4
 1530 0004 0010     		addi	s0,sp,32
 1531              		.cfi_def_cfa 8, 0
 1532 0006 2326A4FE 		sw	a0,-20(s0)
 1533 000a 2324B4FE 		sw	a1,-24(s0)
 799:Drivers/src/ch32v20x_rcc.c ****   if (NewState != DISABLE)
 1534              		.loc 1 799 6
 1535 000e 832784FE 		lw	a5,-24(s0)
 1536 0012 99CB     		beq	a5,zero,.L77
 800:Drivers/src/ch32v20x_rcc.c ****   {
 801:Drivers/src/ch32v20x_rcc.c ****     RCC->APB1PRSTR |= RCC_APB1Periph;
GAS LISTING C:\Users\SOLDER~1\AppData\Local\Temp\cchmqEOm.s 			page 42


 1537              		.loc 1 801 8
 1538 0014 B7170240 		li	a5,1073876992
 1539 0018 944B     		lw	a3,16(a5)
 1540 001a B7170240 		li	a5,1073876992
 1541              		.loc 1 801 20
 1542 001e 0327C4FE 		lw	a4,-20(s0)
 1543 0022 558F     		or	a4,a3,a4
 1544 0024 98CB     		sw	a4,16(a5)
 802:Drivers/src/ch32v20x_rcc.c ****   }
 803:Drivers/src/ch32v20x_rcc.c ****   else
 804:Drivers/src/ch32v20x_rcc.c ****   {
 805:Drivers/src/ch32v20x_rcc.c ****     RCC->APB1PRSTR &= ~RCC_APB1Periph;
 806:Drivers/src/ch32v20x_rcc.c ****   }
 807:Drivers/src/ch32v20x_rcc.c **** }
 1545              		.loc 1 807 1
 1546 0026 21A8     		j	.L79
 1547              	.L77:
 805:Drivers/src/ch32v20x_rcc.c ****   }
 1548              		.loc 1 805 8
 1549 0028 B7170240 		li	a5,1073876992
 1550 002c 944B     		lw	a3,16(a5)
 805:Drivers/src/ch32v20x_rcc.c ****   }
 1551              		.loc 1 805 23
 1552 002e 8327C4FE 		lw	a5,-20(s0)
 1553 0032 13C7F7FF 		not	a4,a5
 805:Drivers/src/ch32v20x_rcc.c ****   }
 1554              		.loc 1 805 8
 1555 0036 B7170240 		li	a5,1073876992
 805:Drivers/src/ch32v20x_rcc.c ****   }
 1556              		.loc 1 805 20
 1557 003a 758F     		and	a4,a3,a4
 1558 003c 98CB     		sw	a4,16(a5)
 1559              	.L79:
 1560              		.loc 1 807 1
 1561 003e 0100     		nop
 1562 0040 7244     		lw	s0,28(sp)
 1563              		.cfi_restore 8
 1564              		.cfi_def_cfa 2, 32
 1565 0042 0561     		addi	sp,sp,32
 1566              		.cfi_def_cfa_offset 0
 1567 0044 8280     		jr	ra
 1568              		.cfi_endproc
 1569              	.LFE40:
 1571              		.section	.text.RCC_BackupResetCmd,"ax",@progbits
 1572              		.align	1
 1573              		.globl	RCC_BackupResetCmd
 1575              	RCC_BackupResetCmd:
 1576              	.LFB41:
 808:Drivers/src/ch32v20x_rcc.c **** 
 809:Drivers/src/ch32v20x_rcc.c **** /*********************************************************************
 810:Drivers/src/ch32v20x_rcc.c ****  * @fn      RCC_BackupResetCmd
 811:Drivers/src/ch32v20x_rcc.c ****  *
 812:Drivers/src/ch32v20x_rcc.c ****  * @brief   Forces or releases the Backup domain reset.
 813:Drivers/src/ch32v20x_rcc.c ****  *
 814:Drivers/src/ch32v20x_rcc.c ****  * @param   NewState - ENABLE or DISABLE.
 815:Drivers/src/ch32v20x_rcc.c ****  *
 816:Drivers/src/ch32v20x_rcc.c ****  * @return  none
GAS LISTING C:\Users\SOLDER~1\AppData\Local\Temp\cchmqEOm.s 			page 43


 817:Drivers/src/ch32v20x_rcc.c ****  */
 818:Drivers/src/ch32v20x_rcc.c **** void RCC_BackupResetCmd(FunctionalState NewState)
 819:Drivers/src/ch32v20x_rcc.c **** {
 1577              		.loc 1 819 1
 1578              		.cfi_startproc
 1579 0000 0111     		addi	sp,sp,-32
 1580              		.cfi_def_cfa_offset 32
 1581 0002 22CE     		sw	s0,28(sp)
 1582              		.cfi_offset 8, -4
 1583 0004 0010     		addi	s0,sp,32
 1584              		.cfi_def_cfa 8, 0
 1585 0006 2326A4FE 		sw	a0,-20(s0)
 820:Drivers/src/ch32v20x_rcc.c **** 	if(NewState)
 1586              		.loc 1 820 4
 1587 000a 8327C4FE 		lw	a5,-20(s0)
 1588 000e 91CB     		beq	a5,zero,.L81
 821:Drivers/src/ch32v20x_rcc.c **** 	{
 822:Drivers/src/ch32v20x_rcc.c **** 		RCC->BDCTLR |= (1<<16);
 1589              		.loc 1 822 6
 1590 0010 B7170240 		li	a5,1073876992
 1591 0014 9453     		lw	a3,32(a5)
 1592 0016 B7170240 		li	a5,1073876992
 1593              		.loc 1 822 15
 1594 001a 4167     		li	a4,65536
 1595 001c 558F     		or	a4,a3,a4
 1596 001e 98D3     		sw	a4,32(a5)
 823:Drivers/src/ch32v20x_rcc.c **** 	}
 824:Drivers/src/ch32v20x_rcc.c **** 	else{
 825:Drivers/src/ch32v20x_rcc.c **** 		RCC->BDCTLR &= ~(1<<16);		
 826:Drivers/src/ch32v20x_rcc.c **** 	}		
 827:Drivers/src/ch32v20x_rcc.c **** }
 1597              		.loc 1 827 1
 1598 0020 11A8     		j	.L83
 1599              	.L81:
 825:Drivers/src/ch32v20x_rcc.c **** 	}		
 1600              		.loc 1 825 6
 1601 0022 B7170240 		li	a5,1073876992
 1602 0026 9453     		lw	a3,32(a5)
 1603 0028 B7170240 		li	a5,1073876992
 825:Drivers/src/ch32v20x_rcc.c **** 	}		
 1604              		.loc 1 825 15
 1605 002c 4177     		li	a4,-65536
 1606 002e 7D17     		addi	a4,a4,-1
 1607 0030 758F     		and	a4,a3,a4
 1608 0032 98D3     		sw	a4,32(a5)
 1609              	.L83:
 1610              		.loc 1 827 1
 1611 0034 0100     		nop
 1612 0036 7244     		lw	s0,28(sp)
 1613              		.cfi_restore 8
 1614              		.cfi_def_cfa 2, 32
 1615 0038 0561     		addi	sp,sp,32
 1616              		.cfi_def_cfa_offset 0
 1617 003a 8280     		jr	ra
 1618              		.cfi_endproc
 1619              	.LFE41:
 1621              		.section	.text.RCC_ClockSecuritySystemCmd,"ax",@progbits
GAS LISTING C:\Users\SOLDER~1\AppData\Local\Temp\cchmqEOm.s 			page 44


 1622              		.align	1
 1623              		.globl	RCC_ClockSecuritySystemCmd
 1625              	RCC_ClockSecuritySystemCmd:
 1626              	.LFB42:
 828:Drivers/src/ch32v20x_rcc.c **** 
 829:Drivers/src/ch32v20x_rcc.c **** /*******************************************************************************
 830:Drivers/src/ch32v20x_rcc.c **** * Function Name  : RCC_ClockSecuritySystemCmd
 831:Drivers/src/ch32v20x_rcc.c **** * Description    : Enables or disables the Clock Security System.
 832:Drivers/src/ch32v20x_rcc.c **** * Input          : NewState: ENABLE or DISABLE.
 833:Drivers/src/ch32v20x_rcc.c **** * Return         : None
 834:Drivers/src/ch32v20x_rcc.c **** *******************************************************************************/	
 835:Drivers/src/ch32v20x_rcc.c **** void RCC_ClockSecuritySystemCmd(FunctionalState NewState)
 836:Drivers/src/ch32v20x_rcc.c **** {
 1627              		.loc 1 836 1
 1628              		.cfi_startproc
 1629 0000 0111     		addi	sp,sp,-32
 1630              		.cfi_def_cfa_offset 32
 1631 0002 22CE     		sw	s0,28(sp)
 1632              		.cfi_offset 8, -4
 1633 0004 0010     		addi	s0,sp,32
 1634              		.cfi_def_cfa 8, 0
 1635 0006 2326A4FE 		sw	a0,-20(s0)
 837:Drivers/src/ch32v20x_rcc.c **** 	if(NewState)
 1636              		.loc 1 837 4
 1637 000a 8327C4FE 		lw	a5,-20(s0)
 1638 000e 99CB     		beq	a5,zero,.L85
 838:Drivers/src/ch32v20x_rcc.c **** 	{
 839:Drivers/src/ch32v20x_rcc.c **** 		RCC->CTLR |= (1<<19);
 1639              		.loc 1 839 6
 1640 0010 B7170240 		li	a5,1073876992
 1641 0014 9443     		lw	a3,0(a5)
 1642 0016 B7170240 		li	a5,1073876992
 1643              		.loc 1 839 13
 1644 001a 37070800 		li	a4,524288
 1645 001e 558F     		or	a4,a3,a4
 1646 0020 98C3     		sw	a4,0(a5)
 840:Drivers/src/ch32v20x_rcc.c **** 	}
 841:Drivers/src/ch32v20x_rcc.c **** 	else{
 842:Drivers/src/ch32v20x_rcc.c **** 		RCC->CTLR &= ~(1<<19);		
 843:Drivers/src/ch32v20x_rcc.c **** 	}		
 844:Drivers/src/ch32v20x_rcc.c **** }
 1647              		.loc 1 844 1
 1648 0022 19A8     		j	.L87
 1649              	.L85:
 842:Drivers/src/ch32v20x_rcc.c **** 	}		
 1650              		.loc 1 842 6
 1651 0024 B7170240 		li	a5,1073876992
 1652 0028 9443     		lw	a3,0(a5)
 1653 002a B7170240 		li	a5,1073876992
 842:Drivers/src/ch32v20x_rcc.c **** 	}		
 1654              		.loc 1 842 13
 1655 002e 3707F8FF 		li	a4,-524288
 1656 0032 7D17     		addi	a4,a4,-1
 1657 0034 758F     		and	a4,a3,a4
 1658 0036 98C3     		sw	a4,0(a5)
 1659              	.L87:
 1660              		.loc 1 844 1
GAS LISTING C:\Users\SOLDER~1\AppData\Local\Temp\cchmqEOm.s 			page 45


 1661 0038 0100     		nop
 1662 003a 7244     		lw	s0,28(sp)
 1663              		.cfi_restore 8
 1664              		.cfi_def_cfa 2, 32
 1665 003c 0561     		addi	sp,sp,32
 1666              		.cfi_def_cfa_offset 0
 1667 003e 8280     		jr	ra
 1668              		.cfi_endproc
 1669              	.LFE42:
 1671              		.section	.text.RCC_MCOConfig,"ax",@progbits
 1672              		.align	1
 1673              		.globl	RCC_MCOConfig
 1675              	RCC_MCOConfig:
 1676              	.LFB43:
 845:Drivers/src/ch32v20x_rcc.c **** 
 846:Drivers/src/ch32v20x_rcc.c **** /*********************************************************************
 847:Drivers/src/ch32v20x_rcc.c ****  * @fn      RCC_MCOConfig
 848:Drivers/src/ch32v20x_rcc.c ****  *
 849:Drivers/src/ch32v20x_rcc.c ****  * @brief   Selects the clock source to output on MCO pin.
 850:Drivers/src/ch32v20x_rcc.c ****  *
 851:Drivers/src/ch32v20x_rcc.c ****  * @param   RCC_MCO - specifies the clock source to output.
 852:Drivers/src/ch32v20x_rcc.c ****  *            RCC_MCO_NoClock - No clock selected.
 853:Drivers/src/ch32v20x_rcc.c ****  *            RCC_MCO_SYSCLK - System clock selected.
 854:Drivers/src/ch32v20x_rcc.c ****  *            RCC_MCO_HSI - HSI oscillator clock selected.
 855:Drivers/src/ch32v20x_rcc.c ****  *            RCC_MCO_HSE - HSE oscillator clock selected.
 856:Drivers/src/ch32v20x_rcc.c ****  *            RCC_MCO_PLLCLK_Div2 - PLL clock divided by 2 selected.
 857:Drivers/src/ch32v20x_rcc.c ****  *
 858:Drivers/src/ch32v20x_rcc.c ****  * @return  none
 859:Drivers/src/ch32v20x_rcc.c ****  */
 860:Drivers/src/ch32v20x_rcc.c **** void RCC_MCOConfig(uint8_t RCC_MCO)
 861:Drivers/src/ch32v20x_rcc.c **** {
 1677              		.loc 1 861 1
 1678              		.cfi_startproc
 1679 0000 0111     		addi	sp,sp,-32
 1680              		.cfi_def_cfa_offset 32
 1681 0002 22CE     		sw	s0,28(sp)
 1682              		.cfi_offset 8, -4
 1683 0004 0010     		addi	s0,sp,32
 1684              		.cfi_def_cfa 8, 0
 1685 0006 AA87     		mv	a5,a0
 1686 0008 A307F4FE 		sb	a5,-17(s0)
 862:Drivers/src/ch32v20x_rcc.c ****   *(__IO uint8_t *) CFGR0_BYTE4_ADDRESS = RCC_MCO;
 1687              		.loc 1 862 3
 1688 000c B7170240 		li	a5,1073876992
 1689 0010 9D07     		addi	a5,a5,7
 1690              		.loc 1 862 41
 1691 0012 0347F4FE 		lbu	a4,-17(s0)
 1692 0016 98A3     		sb	a4,0(a5)
 863:Drivers/src/ch32v20x_rcc.c **** }
 1693              		.loc 1 863 1
 1694 0018 0100     		nop
 1695 001a 7244     		lw	s0,28(sp)
 1696              		.cfi_restore 8
 1697              		.cfi_def_cfa 2, 32
 1698 001c 0561     		addi	sp,sp,32
 1699              		.cfi_def_cfa_offset 0
 1700 001e 8280     		jr	ra
GAS LISTING C:\Users\SOLDER~1\AppData\Local\Temp\cchmqEOm.s 			page 46


 1701              		.cfi_endproc
 1702              	.LFE43:
 1704              		.section	.text.RCC_GetFlagStatus,"ax",@progbits
 1705              		.align	1
 1706              		.globl	RCC_GetFlagStatus
 1708              	RCC_GetFlagStatus:
 1709              	.LFB44:
 864:Drivers/src/ch32v20x_rcc.c **** 
 865:Drivers/src/ch32v20x_rcc.c **** /*********************************************************************
 866:Drivers/src/ch32v20x_rcc.c ****  * @fn      RCC_GetFlagStatus
 867:Drivers/src/ch32v20x_rcc.c ****  *
 868:Drivers/src/ch32v20x_rcc.c ****  * @brief   Checks whether the specified RCC flag is set or not.
 869:Drivers/src/ch32v20x_rcc.c ****  *
 870:Drivers/src/ch32v20x_rcc.c ****  * @param   RCC_FLAG - specifies the flag to check.
 871:Drivers/src/ch32v20x_rcc.c ****  *            RCC_FLAG_HSIRDY - HSI oscillator clock ready.
 872:Drivers/src/ch32v20x_rcc.c ****  *            RCC_FLAG_HSERDY - HSE oscillator clock ready.
 873:Drivers/src/ch32v20x_rcc.c ****  *            RCC_FLAG_PLLRDY - PLL clock ready.
 874:Drivers/src/ch32v20x_rcc.c ****  *            RCC_FLAG_PLL2RDY - PLL2 clock ready.
 875:Drivers/src/ch32v20x_rcc.c ****  *            RCC_FLAG_PLL3RDY - PLL3 clock ready.
 876:Drivers/src/ch32v20x_rcc.c ****  *            RCC_FLAG_LSERDY - LSE oscillator clock ready.
 877:Drivers/src/ch32v20x_rcc.c ****  *            RCC_FLAG_LSIRDY - LSI oscillator clock ready.
 878:Drivers/src/ch32v20x_rcc.c ****  *            RCC_FLAG_PINRST - Pin reset.
 879:Drivers/src/ch32v20x_rcc.c ****  *            RCC_FLAG_PORRST - POR/PDR reset.
 880:Drivers/src/ch32v20x_rcc.c ****  *            RCC_FLAG_SFTRST - Software reset.
 881:Drivers/src/ch32v20x_rcc.c ****  *            RCC_FLAG_IWDGRST - Independent Watchdog reset.
 882:Drivers/src/ch32v20x_rcc.c ****  *            RCC_FLAG_WWDGRST - Window Watchdog reset.
 883:Drivers/src/ch32v20x_rcc.c ****  *            RCC_FLAG_LPWRRST - Low Power reset.
 884:Drivers/src/ch32v20x_rcc.c ****  *
 885:Drivers/src/ch32v20x_rcc.c ****  * @return  FlagStatus - SET or RESET.
 886:Drivers/src/ch32v20x_rcc.c ****  */
 887:Drivers/src/ch32v20x_rcc.c **** FlagStatus RCC_GetFlagStatus(uint8_t RCC_FLAG)
 888:Drivers/src/ch32v20x_rcc.c **** {
 1710              		.loc 1 888 1
 1711              		.cfi_startproc
 1712 0000 7971     		addi	sp,sp,-48
 1713              		.cfi_def_cfa_offset 48
 1714 0002 22D6     		sw	s0,44(sp)
 1715              		.cfi_offset 8, -4
 1716 0004 0018     		addi	s0,sp,48
 1717              		.cfi_def_cfa 8, 0
 1718 0006 AA87     		mv	a5,a0
 1719 0008 A30FF4FC 		sb	a5,-33(s0)
 889:Drivers/src/ch32v20x_rcc.c ****   uint32_t tmp = 0;
 1720              		.loc 1 889 12
 1721 000c 232204FE 		sw	zero,-28(s0)
 890:Drivers/src/ch32v20x_rcc.c ****   uint32_t statusreg = 0;
 1722              		.loc 1 890 12
 1723 0010 232604FE 		sw	zero,-20(s0)
 891:Drivers/src/ch32v20x_rcc.c **** 	
 892:Drivers/src/ch32v20x_rcc.c ****   FlagStatus bitstatus = RESET;
 1724              		.loc 1 892 14
 1725 0014 232404FE 		sw	zero,-24(s0)
 893:Drivers/src/ch32v20x_rcc.c ****   tmp = RCC_FLAG >> 5;
 1726              		.loc 1 893 18
 1727 0018 8347F4FD 		lbu	a5,-33(s0)
 1728 001c 9583     		srli	a5,a5,5
 1729 001e 93F7F70F 		andi	a5,a5,0xff
GAS LISTING C:\Users\SOLDER~1\AppData\Local\Temp\cchmqEOm.s 			page 47


 1730              		.loc 1 893 7
 1731 0022 2322F4FE 		sw	a5,-28(s0)
 894:Drivers/src/ch32v20x_rcc.c **** 	
 895:Drivers/src/ch32v20x_rcc.c ****   if (tmp == 1)            
 1732              		.loc 1 895 6
 1733 0026 032744FE 		lw	a4,-28(s0)
 1734 002a 8547     		li	a5,1
 1735 002c 6318F700 		bne	a4,a5,.L90
 896:Drivers/src/ch32v20x_rcc.c ****   {
 897:Drivers/src/ch32v20x_rcc.c ****     statusreg = RCC->CTLR;
 1736              		.loc 1 897 20
 1737 0030 B7170240 		li	a5,1073876992
 1738              		.loc 1 897 15
 1739 0034 9C43     		lw	a5,0(a5)
 1740 0036 2326F4FE 		sw	a5,-20(s0)
 1741 003a 0DA0     		j	.L91
 1742              	.L90:
 898:Drivers/src/ch32v20x_rcc.c ****   }
 899:Drivers/src/ch32v20x_rcc.c ****   else if (tmp == 2)       
 1743              		.loc 1 899 11
 1744 003c 032744FE 		lw	a4,-28(s0)
 1745 0040 8947     		li	a5,2
 1746 0042 6318F700 		bne	a4,a5,.L92
 900:Drivers/src/ch32v20x_rcc.c ****   {
 901:Drivers/src/ch32v20x_rcc.c ****     statusreg = RCC->BDCTLR;
 1747              		.loc 1 901 20
 1748 0046 B7170240 		li	a5,1073876992
 1749              		.loc 1 901 15
 1750 004a 9C53     		lw	a5,32(a5)
 1751 004c 2326F4FE 		sw	a5,-20(s0)
 1752 0050 31A0     		j	.L91
 1753              	.L92:
 902:Drivers/src/ch32v20x_rcc.c ****   }
 903:Drivers/src/ch32v20x_rcc.c ****   else                    
 904:Drivers/src/ch32v20x_rcc.c ****   {
 905:Drivers/src/ch32v20x_rcc.c ****     statusreg = RCC->RSTSCKR;
 1754              		.loc 1 905 20
 1755 0052 B7170240 		li	a5,1073876992
 1756              		.loc 1 905 15
 1757 0056 DC53     		lw	a5,36(a5)
 1758 0058 2326F4FE 		sw	a5,-20(s0)
 1759              	.L91:
 906:Drivers/src/ch32v20x_rcc.c ****   }
 907:Drivers/src/ch32v20x_rcc.c **** 
 908:Drivers/src/ch32v20x_rcc.c ****   tmp = RCC_FLAG & FLAG_Mask;
 1760              		.loc 1 908 18
 1761 005c 8347F4FD 		lbu	a5,-33(s0)
 1762              		.loc 1 908 7
 1763 0060 FD8B     		andi	a5,a5,31
 1764 0062 2322F4FE 		sw	a5,-28(s0)
 909:Drivers/src/ch32v20x_rcc.c **** 	
 910:Drivers/src/ch32v20x_rcc.c ****   if ((statusreg & ((uint32_t)1 << tmp)) != (uint32_t)RESET)
 1765              		.loc 1 910 42
 1766 0066 832744FE 		lw	a5,-28(s0)
 1767 006a 0327C4FE 		lw	a4,-20(s0)
 1768 006e B357F700 		srl	a5,a4,a5
 1769 0072 858B     		andi	a5,a5,1
GAS LISTING C:\Users\SOLDER~1\AppData\Local\Temp\cchmqEOm.s 			page 48


 1770              		.loc 1 910 6
 1771 0074 89C7     		beq	a5,zero,.L93
 911:Drivers/src/ch32v20x_rcc.c ****   {
 912:Drivers/src/ch32v20x_rcc.c ****     bitstatus = SET;
 1772              		.loc 1 912 15
 1773 0076 8547     		li	a5,1
 1774 0078 2324F4FE 		sw	a5,-24(s0)
 1775 007c 19A0     		j	.L94
 1776              	.L93:
 913:Drivers/src/ch32v20x_rcc.c ****   }
 914:Drivers/src/ch32v20x_rcc.c ****   else
 915:Drivers/src/ch32v20x_rcc.c ****   {
 916:Drivers/src/ch32v20x_rcc.c ****     bitstatus = RESET;
 1777              		.loc 1 916 15
 1778 007e 232404FE 		sw	zero,-24(s0)
 1779              	.L94:
 917:Drivers/src/ch32v20x_rcc.c ****   }
 918:Drivers/src/ch32v20x_rcc.c **** 
 919:Drivers/src/ch32v20x_rcc.c ****   return bitstatus;
 1780              		.loc 1 919 10
 1781 0082 832784FE 		lw	a5,-24(s0)
 920:Drivers/src/ch32v20x_rcc.c **** }
 1782              		.loc 1 920 1
 1783 0086 3E85     		mv	a0,a5
 1784 0088 3254     		lw	s0,44(sp)
 1785              		.cfi_restore 8
 1786              		.cfi_def_cfa 2, 48
 1787 008a 4561     		addi	sp,sp,48
 1788              		.cfi_def_cfa_offset 0
 1789 008c 8280     		jr	ra
 1790              		.cfi_endproc
 1791              	.LFE44:
 1793              		.section	.text.RCC_ClearFlag,"ax",@progbits
 1794              		.align	1
 1795              		.globl	RCC_ClearFlag
 1797              	RCC_ClearFlag:
 1798              	.LFB45:
 921:Drivers/src/ch32v20x_rcc.c **** 
 922:Drivers/src/ch32v20x_rcc.c **** /*********************************************************************
 923:Drivers/src/ch32v20x_rcc.c ****  * @fn      RCC_ClearFlag
 924:Drivers/src/ch32v20x_rcc.c ****  *
 925:Drivers/src/ch32v20x_rcc.c ****  * @brief   Clears the RCC reset flags.
 926:Drivers/src/ch32v20x_rcc.c ****  *          Note-   
 927:Drivers/src/ch32v20x_rcc.c ****  *          The reset flags are: RCC_FLAG_PINRST, RCC_FLAG_PORRST, RCC_FLAG_SFTRST,
 928:Drivers/src/ch32v20x_rcc.c ****  *          RCC_FLAG_IWDGRST, RCC_FLAG_WWDGRST, RCC_FLAG_LPWRRST
 929:Drivers/src/ch32v20x_rcc.c ****  * @return  none
 930:Drivers/src/ch32v20x_rcc.c ****  */
 931:Drivers/src/ch32v20x_rcc.c **** void RCC_ClearFlag(void)
 932:Drivers/src/ch32v20x_rcc.c **** {
 1799              		.loc 1 932 1
 1800              		.cfi_startproc
 1801 0000 4111     		addi	sp,sp,-16
 1802              		.cfi_def_cfa_offset 16
 1803 0002 22C6     		sw	s0,12(sp)
 1804              		.cfi_offset 8, -4
 1805 0004 0008     		addi	s0,sp,16
 1806              		.cfi_def_cfa 8, 0
GAS LISTING C:\Users\SOLDER~1\AppData\Local\Temp\cchmqEOm.s 			page 49


 933:Drivers/src/ch32v20x_rcc.c ****   RCC->RSTSCKR |= RSTSCKR_RMVF_Set;
 1807              		.loc 1 933 6
 1808 0006 B7170240 		li	a5,1073876992
 1809 000a D453     		lw	a3,36(a5)
 1810 000c B7170240 		li	a5,1073876992
 1811              		.loc 1 933 16
 1812 0010 37070001 		li	a4,16777216
 1813 0014 558F     		or	a4,a3,a4
 1814 0016 D8D3     		sw	a4,36(a5)
 934:Drivers/src/ch32v20x_rcc.c **** }
 1815              		.loc 1 934 1
 1816 0018 0100     		nop
 1817 001a 3244     		lw	s0,12(sp)
 1818              		.cfi_restore 8
 1819              		.cfi_def_cfa 2, 16
 1820 001c 4101     		addi	sp,sp,16
 1821              		.cfi_def_cfa_offset 0
 1822 001e 8280     		jr	ra
 1823              		.cfi_endproc
 1824              	.LFE45:
 1826              		.section	.text.RCC_GetITStatus,"ax",@progbits
 1827              		.align	1
 1828              		.globl	RCC_GetITStatus
 1830              	RCC_GetITStatus:
 1831              	.LFB46:
 935:Drivers/src/ch32v20x_rcc.c **** 
 936:Drivers/src/ch32v20x_rcc.c **** /*********************************************************************
 937:Drivers/src/ch32v20x_rcc.c ****  * @fn      RCC_GetITStatus
 938:Drivers/src/ch32v20x_rcc.c ****  *
 939:Drivers/src/ch32v20x_rcc.c ****  * @brief   Checks whether the specified RCC interrupt has occurred or not.
 940:Drivers/src/ch32v20x_rcc.c ****  *
 941:Drivers/src/ch32v20x_rcc.c ****  * @param   RCC_IT - specifies the RCC interrupt source to check.
 942:Drivers/src/ch32v20x_rcc.c ****  *            RCC_IT_LSIRDY - LSI ready interrupt.
 943:Drivers/src/ch32v20x_rcc.c ****  *            RCC_IT_LSERDY - LSE ready interrupt.
 944:Drivers/src/ch32v20x_rcc.c ****  *            RCC_IT_HSIRDY - HSI ready interrupt.
 945:Drivers/src/ch32v20x_rcc.c ****  *            RCC_IT_HSERDY - HSE ready interrupt.
 946:Drivers/src/ch32v20x_rcc.c ****  *            RCC_IT_PLLRDY - PLL ready interrupt.
 947:Drivers/src/ch32v20x_rcc.c ****  *            RCC_IT_PLL2RDY - PLL2 ready interrupt.
 948:Drivers/src/ch32v20x_rcc.c ****  *            RCC_IT_PLL3RDY - PLL3 ready interrupt.
 949:Drivers/src/ch32v20x_rcc.c ****  *            RCC_IT_CSS - Clock Security System interrupt.
 950:Drivers/src/ch32v20x_rcc.c ****  *
 951:Drivers/src/ch32v20x_rcc.c ****  * @return  ITStatus - SET or RESET.
 952:Drivers/src/ch32v20x_rcc.c ****  */
 953:Drivers/src/ch32v20x_rcc.c **** 
 954:Drivers/src/ch32v20x_rcc.c **** ITStatus RCC_GetITStatus(uint8_t RCC_IT)
 955:Drivers/src/ch32v20x_rcc.c **** {
 1832              		.loc 1 955 1
 1833              		.cfi_startproc
 1834 0000 7971     		addi	sp,sp,-48
 1835              		.cfi_def_cfa_offset 48
 1836 0002 22D6     		sw	s0,44(sp)
 1837              		.cfi_offset 8, -4
 1838 0004 0018     		addi	s0,sp,48
 1839              		.cfi_def_cfa 8, 0
 1840 0006 AA87     		mv	a5,a0
 1841 0008 A30FF4FC 		sb	a5,-33(s0)
 956:Drivers/src/ch32v20x_rcc.c ****   ITStatus bitstatus = RESET;
GAS LISTING C:\Users\SOLDER~1\AppData\Local\Temp\cchmqEOm.s 			page 50


 1842              		.loc 1 956 12
 1843 000c 232604FE 		sw	zero,-20(s0)
 957:Drivers/src/ch32v20x_rcc.c **** 
 958:Drivers/src/ch32v20x_rcc.c ****   if ((RCC->INTR & RCC_IT) != (uint32_t)RESET)
 1844              		.loc 1 958 11
 1845 0010 B7170240 		li	a5,1073876992
 1846 0014 9847     		lw	a4,8(a5)
 1847              		.loc 1 958 18
 1848 0016 8347F4FD 		lbu	a5,-33(s0)
 1849 001a F98F     		and	a5,a4,a5
 1850              		.loc 1 958 6
 1851 001c 89C7     		beq	a5,zero,.L98
 959:Drivers/src/ch32v20x_rcc.c ****   {
 960:Drivers/src/ch32v20x_rcc.c ****     bitstatus = SET;
 1852              		.loc 1 960 15
 1853 001e 8547     		li	a5,1
 1854 0020 2326F4FE 		sw	a5,-20(s0)
 1855 0024 19A0     		j	.L99
 1856              	.L98:
 961:Drivers/src/ch32v20x_rcc.c ****   }
 962:Drivers/src/ch32v20x_rcc.c ****   else
 963:Drivers/src/ch32v20x_rcc.c ****   {
 964:Drivers/src/ch32v20x_rcc.c ****     bitstatus = RESET;
 1857              		.loc 1 964 15
 1858 0026 232604FE 		sw	zero,-20(s0)
 1859              	.L99:
 965:Drivers/src/ch32v20x_rcc.c ****   }
 966:Drivers/src/ch32v20x_rcc.c **** 
 967:Drivers/src/ch32v20x_rcc.c ****   return  bitstatus;
 1860              		.loc 1 967 11
 1861 002a 8327C4FE 		lw	a5,-20(s0)
 968:Drivers/src/ch32v20x_rcc.c **** }
 1862              		.loc 1 968 1
 1863 002e 3E85     		mv	a0,a5
 1864 0030 3254     		lw	s0,44(sp)
 1865              		.cfi_restore 8
 1866              		.cfi_def_cfa 2, 48
 1867 0032 4561     		addi	sp,sp,48
 1868              		.cfi_def_cfa_offset 0
 1869 0034 8280     		jr	ra
 1870              		.cfi_endproc
 1871              	.LFE46:
 1873              		.section	.text.RCC_ClearITPendingBit,"ax",@progbits
 1874              		.align	1
 1875              		.globl	RCC_ClearITPendingBit
 1877              	RCC_ClearITPendingBit:
 1878              	.LFB47:
 969:Drivers/src/ch32v20x_rcc.c **** 
 970:Drivers/src/ch32v20x_rcc.c **** /*********************************************************************
 971:Drivers/src/ch32v20x_rcc.c ****  * @fn      RCC_ClearITPendingBit
 972:Drivers/src/ch32v20x_rcc.c ****  *
 973:Drivers/src/ch32v20x_rcc.c ****  * @brief   Clears the RCC's interrupt pending bits.
 974:Drivers/src/ch32v20x_rcc.c ****  *
 975:Drivers/src/ch32v20x_rcc.c ****  * @param   RCC_IT - specifies the interrupt pending bit to clear.
 976:Drivers/src/ch32v20x_rcc.c ****  *            RCC_IT_LSIRDY - LSI ready interrupt.
 977:Drivers/src/ch32v20x_rcc.c ****  *            RCC_IT_LSERDY - LSE ready interrupt.
 978:Drivers/src/ch32v20x_rcc.c ****  *            RCC_IT_HSIRDY - HSI ready interrupt.
GAS LISTING C:\Users\SOLDER~1\AppData\Local\Temp\cchmqEOm.s 			page 51


 979:Drivers/src/ch32v20x_rcc.c ****  *            RCC_IT_HSERDY - HSE ready interrupt.
 980:Drivers/src/ch32v20x_rcc.c ****  *            RCC_IT_PLLRDY - PLL ready interrupt.
 981:Drivers/src/ch32v20x_rcc.c ****  *            RCC_IT_PLL2RDY - PLL2 ready interrupt.
 982:Drivers/src/ch32v20x_rcc.c ****  *            RCC_IT_PLL3RDY - PLL3 ready interrupt.
 983:Drivers/src/ch32v20x_rcc.c ****  *            RCC_IT_CSS - Clock Security System interrupt.
 984:Drivers/src/ch32v20x_rcc.c ****  *
 985:Drivers/src/ch32v20x_rcc.c ****  * @return  none
 986:Drivers/src/ch32v20x_rcc.c ****  */
 987:Drivers/src/ch32v20x_rcc.c **** void RCC_ClearITPendingBit(uint8_t RCC_IT)
 988:Drivers/src/ch32v20x_rcc.c **** {
 1879              		.loc 1 988 1
 1880              		.cfi_startproc
 1881 0000 0111     		addi	sp,sp,-32
 1882              		.cfi_def_cfa_offset 32
 1883 0002 22CE     		sw	s0,28(sp)
 1884              		.cfi_offset 8, -4
 1885 0004 0010     		addi	s0,sp,32
 1886              		.cfi_def_cfa 8, 0
 1887 0006 AA87     		mv	a5,a0
 1888 0008 A307F4FE 		sb	a5,-17(s0)
 989:Drivers/src/ch32v20x_rcc.c ****   *(__IO uint8_t *) INTR_BYTE3_ADDRESS = RCC_IT;
 1889              		.loc 1 989 3
 1890 000c B7170240 		li	a5,1073876992
 1891 0010 A907     		addi	a5,a5,10
 1892              		.loc 1 989 40
 1893 0012 0347F4FE 		lbu	a4,-17(s0)
 1894 0016 98A3     		sb	a4,0(a5)
 990:Drivers/src/ch32v20x_rcc.c **** }
 1895              		.loc 1 990 1
 1896 0018 0100     		nop
 1897 001a 7244     		lw	s0,28(sp)
 1898              		.cfi_restore 8
 1899              		.cfi_def_cfa 2, 32
 1900 001c 0561     		addi	sp,sp,32
 1901              		.cfi_def_cfa_offset 0
 1902 001e 8280     		jr	ra
 1903              		.cfi_endproc
 1904              	.LFE47:
 1906              		.section	.text.RCC_ADCCLKADJcmd,"ax",@progbits
 1907              		.align	1
 1908              		.globl	RCC_ADCCLKADJcmd
 1910              	RCC_ADCCLKADJcmd:
 1911              	.LFB48:
 991:Drivers/src/ch32v20x_rcc.c **** 
 992:Drivers/src/ch32v20x_rcc.c **** /*********************************************************************
 993:Drivers/src/ch32v20x_rcc.c ****  * @fn      RCC_ADCCLKADJcmd
 994:Drivers/src/ch32v20x_rcc.c ****  *
 995:Drivers/src/ch32v20x_rcc.c ****  * @brief   Enable ADC clock duty cycle adjustment.
 996:Drivers/src/ch32v20x_rcc.c ****  *
 997:Drivers/src/ch32v20x_rcc.c ****  * @param   NewState - ENABLE or DISABLE.
 998:Drivers/src/ch32v20x_rcc.c ****  *
 999:Drivers/src/ch32v20x_rcc.c ****  * @return  none
1000:Drivers/src/ch32v20x_rcc.c ****  */
1001:Drivers/src/ch32v20x_rcc.c **** void RCC_ADCCLKADJcmd(FunctionalState NewState)
1002:Drivers/src/ch32v20x_rcc.c **** {
 1912              		.loc 1 1002 1
 1913              		.cfi_startproc
GAS LISTING C:\Users\SOLDER~1\AppData\Local\Temp\cchmqEOm.s 			page 52


 1914 0000 0111     		addi	sp,sp,-32
 1915              		.cfi_def_cfa_offset 32
 1916 0002 22CE     		sw	s0,28(sp)
 1917              		.cfi_offset 8, -4
 1918 0004 0010     		addi	s0,sp,32
 1919              		.cfi_def_cfa 8, 0
 1920 0006 2326A4FE 		sw	a0,-20(s0)
1003:Drivers/src/ch32v20x_rcc.c ****   if (NewState != DISABLE)
 1921              		.loc 1 1003 6
 1922 000a 8327C4FE 		lw	a5,-20(s0)
 1923 000e 99CB     		beq	a5,zero,.L103
1004:Drivers/src/ch32v20x_rcc.c ****   {
1005:Drivers/src/ch32v20x_rcc.c ****     RCC->CFGR0 |= (1<<31);
 1924              		.loc 1 1005 8
 1925 0010 B7170240 		li	a5,1073876992
 1926 0014 D443     		lw	a3,4(a5)
 1927 0016 B7170240 		li	a5,1073876992
 1928              		.loc 1 1005 16
 1929 001a 37070080 		li	a4,-2147483648
 1930 001e 558F     		or	a4,a3,a4
 1931 0020 D8C3     		sw	a4,4(a5)
1006:Drivers/src/ch32v20x_rcc.c ****   }
1007:Drivers/src/ch32v20x_rcc.c ****   else
1008:Drivers/src/ch32v20x_rcc.c ****   {
1009:Drivers/src/ch32v20x_rcc.c ****     RCC->CFGR0 &= ~(1<<31);
1010:Drivers/src/ch32v20x_rcc.c ****   }
1011:Drivers/src/ch32v20x_rcc.c **** }
 1932              		.loc 1 1011 1
 1933 0022 19A8     		j	.L105
 1934              	.L103:
1009:Drivers/src/ch32v20x_rcc.c ****   }
 1935              		.loc 1 1009 8
 1936 0024 B7170240 		li	a5,1073876992
 1937 0028 D443     		lw	a3,4(a5)
 1938 002a B7170240 		li	a5,1073876992
1009:Drivers/src/ch32v20x_rcc.c ****   }
 1939              		.loc 1 1009 16
 1940 002e 37070080 		li	a4,-2147483648
 1941 0032 7D17     		addi	a4,a4,-1
 1942 0034 758F     		and	a4,a3,a4
 1943 0036 D8C3     		sw	a4,4(a5)
 1944              	.L105:
 1945              		.loc 1 1011 1
 1946 0038 0100     		nop
 1947 003a 7244     		lw	s0,28(sp)
 1948              		.cfi_restore 8
 1949              		.cfi_def_cfa 2, 32
 1950 003c 0561     		addi	sp,sp,32
 1951              		.cfi_def_cfa_offset 0
 1952 003e 8280     		jr	ra
 1953              		.cfi_endproc
 1954              	.LFE48:
 1956              		.section	.text.RCC_ETHDIVConfig,"ax",@progbits
 1957              		.align	1
 1958              		.globl	RCC_ETHDIVConfig
 1960              	RCC_ETHDIVConfig:
 1961              	.LFB49:
GAS LISTING C:\Users\SOLDER~1\AppData\Local\Temp\cchmqEOm.s 			page 53


1012:Drivers/src/ch32v20x_rcc.c **** 
1013:Drivers/src/ch32v20x_rcc.c **** /*********************************************************************
1014:Drivers/src/ch32v20x_rcc.c ****  * @fn      RCC_ETHDIVConfig
1015:Drivers/src/ch32v20x_rcc.c ****  *
1016:Drivers/src/ch32v20x_rcc.c ****  * @brief   Configures the ETH clock.
1017:Drivers/src/ch32v20x_rcc.c ****  *
1018:Drivers/src/ch32v20x_rcc.c ****  * @param   RCC_ETHPRE_Div - defines the USBHS clock divider.
1019:Drivers/src/ch32v20x_rcc.c ****  *            RCC_ETHCLK_Div1 - ETH clock = AHB/1.
1020:Drivers/src/ch32v20x_rcc.c ****  *            RCC_ETHCLK_Div2 - ETH clock = AHB/2.
1021:Drivers/src/ch32v20x_rcc.c ****  *
1022:Drivers/src/ch32v20x_rcc.c ****  * @return  none
1023:Drivers/src/ch32v20x_rcc.c ****  */
1024:Drivers/src/ch32v20x_rcc.c **** void RCC_ETHDIVConfig(uint32_t RCC_ETHPRE_Div)
1025:Drivers/src/ch32v20x_rcc.c **** {
 1962              		.loc 1 1025 1
 1963              		.cfi_startproc
 1964 0000 0111     		addi	sp,sp,-32
 1965              		.cfi_def_cfa_offset 32
 1966 0002 22CE     		sw	s0,28(sp)
 1967              		.cfi_offset 8, -4
 1968 0004 0010     		addi	s0,sp,32
 1969              		.cfi_def_cfa 8, 0
 1970 0006 2326A4FE 		sw	a0,-20(s0)
1026:Drivers/src/ch32v20x_rcc.c ****     RCC->CFGR0 &= ~((uint32_t)1<<28);
 1971              		.loc 1 1026 8
 1972 000a B7170240 		li	a5,1073876992
 1973 000e D443     		lw	a3,4(a5)
 1974 0010 B7170240 		li	a5,1073876992
 1975              		.loc 1 1026 16
 1976 0014 370700F0 		li	a4,-268435456
 1977 0018 7D17     		addi	a4,a4,-1
 1978 001a 758F     		and	a4,a3,a4
 1979 001c D8C3     		sw	a4,4(a5)
1027:Drivers/src/ch32v20x_rcc.c ****     RCC->CFGR0 |= RCC_ETHPRE_Div<<28;
 1980              		.loc 1 1027 8
 1981 001e B7170240 		li	a5,1073876992
 1982 0022 D443     		lw	a3,4(a5)
 1983              		.loc 1 1027 33
 1984 0024 8327C4FE 		lw	a5,-20(s0)
 1985 0028 1397C701 		slli	a4,a5,28
 1986              		.loc 1 1027 8
 1987 002c B7170240 		li	a5,1073876992
 1988              		.loc 1 1027 16
 1989 0030 558F     		or	a4,a3,a4
 1990 0032 D8C3     		sw	a4,4(a5)
1028:Drivers/src/ch32v20x_rcc.c **** }
 1991              		.loc 1 1028 1
 1992 0034 0100     		nop
 1993 0036 7244     		lw	s0,28(sp)
 1994              		.cfi_restore 8
 1995              		.cfi_def_cfa 2, 32
 1996 0038 0561     		addi	sp,sp,32
 1997              		.cfi_def_cfa_offset 0
 1998 003a 8280     		jr	ra
 1999              		.cfi_endproc
 2000              	.LFE49:
 2002              		.text
GAS LISTING C:\Users\SOLDER~1\AppData\Local\Temp\cchmqEOm.s 			page 54


 2003              	.Letext0:
 2004              		.file 2 "c:\\dev_tools\\ch32_tools\\risc-v_embedded_gcc12\\riscv-none-elf\\include\\machine\\_defa
 2005              		.file 3 "c:\\dev_tools\\ch32_tools\\risc-v_embedded_gcc12\\riscv-none-elf\\include\\sys\\_stdint.h
 2006              		.file 4 "Drivers/inc/core_riscv.h"
 2007              		.file 5 "Drivers/inc/ch32v20x.h"
 2008              		.file 6 "Drivers/inc/ch32v20x_rcc.h"
GAS LISTING C:\Users\SOLDER~1\AppData\Local\Temp\cchmqEOm.s 			page 55


DEFINED SYMBOLS
                            *ABS*:0000000000000000 ch32v20x_rcc.c
C:\Users\SOLDER~1\AppData\Local\Temp\cchmqEOm.s:14     .data.APBAHBPrescTable:0000000000000000 APBAHBPrescTable
C:\Users\SOLDER~1\AppData\Local\Temp\cchmqEOm.s:24     .sdata.ADCPrescTable:0000000000000000 ADCPrescTable
C:\Users\SOLDER~1\AppData\Local\Temp\cchmqEOm.s:30     .text.RCC_DeInit:0000000000000000 RCC_DeInit
C:\Users\SOLDER~1\AppData\Local\Temp\cchmqEOm.s:34     .text.RCC_DeInit:0000000000000000 .L0 
C:\Users\SOLDER~1\AppData\Local\Temp\cchmqEOm.s:35     .text.RCC_DeInit:0000000000000000 $x
C:\Users\SOLDER~1\AppData\Local\Temp\cchmqEOm.s:35     .text.RCC_DeInit:0000000000000000 .L0 
C:\Users\SOLDER~1\AppData\Local\Temp\cchmqEOm.s:36     .text.RCC_DeInit:0000000000000002 .L0 
C:\Users\SOLDER~1\AppData\Local\Temp\cchmqEOm.s:38     .text.RCC_DeInit:0000000000000004 .L0 
C:\Users\SOLDER~1\AppData\Local\Temp\cchmqEOm.s:40     .text.RCC_DeInit:0000000000000006 .L0 
C:\Users\SOLDER~1\AppData\Local\Temp\cchmqEOm.s:42     .text.RCC_DeInit:0000000000000006 .L0 
C:\Users\SOLDER~1\AppData\Local\Temp\cchmqEOm.s:46     .text.RCC_DeInit:0000000000000010 .L0 
C:\Users\SOLDER~1\AppData\Local\Temp\cchmqEOm.s:49     .text.RCC_DeInit:0000000000000016 .L0 
C:\Users\SOLDER~1\AppData\Local\Temp\cchmqEOm.s:53     .text.RCC_DeInit:0000000000000020 .L0 
C:\Users\SOLDER~1\AppData\Local\Temp\cchmqEOm.s:57     .text.RCC_DeInit:0000000000000028 .L0 
C:\Users\SOLDER~1\AppData\Local\Temp\cchmqEOm.s:61     .text.RCC_DeInit:0000000000000032 .L0 
C:\Users\SOLDER~1\AppData\Local\Temp\cchmqEOm.s:66     .text.RCC_DeInit:000000000000003c .L0 
C:\Users\SOLDER~1\AppData\Local\Temp\cchmqEOm.s:70     .text.RCC_DeInit:0000000000000046 .L0 
C:\Users\SOLDER~1\AppData\Local\Temp\cchmqEOm.s:75     .text.RCC_DeInit:0000000000000050 .L0 
C:\Users\SOLDER~1\AppData\Local\Temp\cchmqEOm.s:79     .text.RCC_DeInit:000000000000005a .L0 
C:\Users\SOLDER~1\AppData\Local\Temp\cchmqEOm.s:84     .text.RCC_DeInit:0000000000000064 .L0 
C:\Users\SOLDER~1\AppData\Local\Temp\cchmqEOm.s:86     .text.RCC_DeInit:0000000000000068 .L0 
C:\Users\SOLDER~1\AppData\Local\Temp\cchmqEOm.s:89     .text.RCC_DeInit:000000000000006e .L0 
C:\Users\SOLDER~1\AppData\Local\Temp\cchmqEOm.s:91     .text.RCC_DeInit:0000000000000072 .L0 
C:\Users\SOLDER~1\AppData\Local\Temp\cchmqEOm.s:92     .text.RCC_DeInit:0000000000000072 .L0 
C:\Users\SOLDER~1\AppData\Local\Temp\cchmqEOm.s:94     .text.RCC_DeInit:0000000000000074 .L0 
C:\Users\SOLDER~1\AppData\Local\Temp\cchmqEOm.s:96     .text.RCC_DeInit:0000000000000076 .L0 
C:\Users\SOLDER~1\AppData\Local\Temp\cchmqEOm.s:103    .text.RCC_HSEConfig:0000000000000000 RCC_HSEConfig
C:\Users\SOLDER~1\AppData\Local\Temp\cchmqEOm.s:106    .text.RCC_HSEConfig:0000000000000000 .L0 
C:\Users\SOLDER~1\AppData\Local\Temp\cchmqEOm.s:107    .text.RCC_HSEConfig:0000000000000000 $x
C:\Users\SOLDER~1\AppData\Local\Temp\cchmqEOm.s:107    .text.RCC_HSEConfig:0000000000000000 .L0 
C:\Users\SOLDER~1\AppData\Local\Temp\cchmqEOm.s:108    .text.RCC_HSEConfig:0000000000000002 .L0 
C:\Users\SOLDER~1\AppData\Local\Temp\cchmqEOm.s:110    .text.RCC_HSEConfig:0000000000000004 .L0 
C:\Users\SOLDER~1\AppData\Local\Temp\cchmqEOm.s:112    .text.RCC_HSEConfig:0000000000000006 .L0 
C:\Users\SOLDER~1\AppData\Local\Temp\cchmqEOm.s:115    .text.RCC_HSEConfig:000000000000000a .L0 
C:\Users\SOLDER~1\AppData\Local\Temp\cchmqEOm.s:119    .text.RCC_HSEConfig:0000000000000014 .L0 
C:\Users\SOLDER~1\AppData\Local\Temp\cchmqEOm.s:124    .text.RCC_HSEConfig:000000000000001c .L0 
C:\Users\SOLDER~1\AppData\Local\Temp\cchmqEOm.s:128    .text.RCC_HSEConfig:0000000000000026 .L0 
C:\Users\SOLDER~1\AppData\Local\Temp\cchmqEOm.s:133    .text.RCC_HSEConfig:0000000000000030 .L0 
C:\Users\SOLDER~1\AppData\Local\Temp\cchmqEOm.s:140    .text.RCC_HSEConfig:0000000000000046 .L0 
C:\Users\SOLDER~1\AppData\Local\Temp\cchmqEOm.s:143    .text.RCC_HSEConfig:0000000000000048 .L0 
C:\Users\SOLDER~1\AppData\Local\Temp\cchmqEOm.s:147    .text.RCC_HSEConfig:0000000000000052 .L0 
C:\Users\SOLDER~1\AppData\Local\Temp\cchmqEOm.s:151    .text.RCC_HSEConfig:0000000000000058 .L0 
C:\Users\SOLDER~1\AppData\Local\Temp\cchmqEOm.s:154    .text.RCC_HSEConfig:000000000000005a .L0 
C:\Users\SOLDER~1\AppData\Local\Temp\cchmqEOm.s:158    .text.RCC_HSEConfig:0000000000000064 .L0 
C:\Users\SOLDER~1\AppData\Local\Temp\cchmqEOm.s:162    .text.RCC_HSEConfig:000000000000006c .L0 
C:\Users\SOLDER~1\AppData\Local\Temp\cchmqEOm.s:165    .text.RCC_HSEConfig:000000000000006e .L0 
C:\Users\SOLDER~1\AppData\Local\Temp\cchmqEOm.s:167    .text.RCC_HSEConfig:0000000000000072 .L0 
C:\Users\SOLDER~1\AppData\Local\Temp\cchmqEOm.s:168    .text.RCC_HSEConfig:0000000000000072 .L0 
C:\Users\SOLDER~1\AppData\Local\Temp\cchmqEOm.s:170    .text.RCC_HSEConfig:0000000000000074 .L0 
C:\Users\SOLDER~1\AppData\Local\Temp\cchmqEOm.s:172    .text.RCC_HSEConfig:0000000000000076 .L0 
C:\Users\SOLDER~1\AppData\Local\Temp\cchmqEOm.s:179    .text.RCC_WaitForHSEStartUp:0000000000000000 RCC_WaitForHSEStartUp
C:\Users\SOLDER~1\AppData\Local\Temp\cchmqEOm.s:182    .text.RCC_WaitForHSEStartUp:0000000000000000 .L0 
C:\Users\SOLDER~1\AppData\Local\Temp\cchmqEOm.s:183    .text.RCC_WaitForHSEStartUp:0000000000000000 $x
C:\Users\SOLDER~1\AppData\Local\Temp\cchmqEOm.s:183    .text.RCC_WaitForHSEStartUp:0000000000000000 .L0 
C:\Users\SOLDER~1\AppData\Local\Temp\cchmqEOm.s:184    .text.RCC_WaitForHSEStartUp:0000000000000002 .L0 
GAS LISTING C:\Users\SOLDER~1\AppData\Local\Temp\cchmqEOm.s 			page 56


C:\Users\SOLDER~1\AppData\Local\Temp\cchmqEOm.s:187    .text.RCC_WaitForHSEStartUp:0000000000000006 .L0 
C:\Users\SOLDER~1\AppData\Local\Temp\cchmqEOm.s:188    .text.RCC_WaitForHSEStartUp:0000000000000006 .L0 
C:\Users\SOLDER~1\AppData\Local\Temp\cchmqEOm.s:190    .text.RCC_WaitForHSEStartUp:0000000000000008 .L0 
C:\Users\SOLDER~1\AppData\Local\Temp\cchmqEOm.s:192    .text.RCC_WaitForHSEStartUp:0000000000000008 .L0 
C:\Users\SOLDER~1\AppData\Local\Temp\cchmqEOm.s:194    .text.RCC_WaitForHSEStartUp:000000000000000c .L0 
C:\Users\SOLDER~1\AppData\Local\Temp\cchmqEOm.s:196    .text.RCC_WaitForHSEStartUp:0000000000000010 .L0 
C:\Users\SOLDER~1\AppData\Local\Temp\cchmqEOm.s:199    .text.RCC_WaitForHSEStartUp:0000000000000014 .L0 
C:\Users\SOLDER~1\AppData\Local\Temp\cchmqEOm.s:1708   .text.RCC_GetFlagStatus:0000000000000000 RCC_GetFlagStatus
C:\Users\SOLDER~1\AppData\Local\Temp\cchmqEOm.s:203    .text.RCC_WaitForHSEStartUp:0000000000000024 .L0 
C:\Users\SOLDER~1\AppData\Local\Temp\cchmqEOm.s:207    .text.RCC_WaitForHSEStartUp:000000000000002e .L0 
C:\Users\SOLDER~1\AppData\Local\Temp\cchmqEOm.s:209    .text.RCC_WaitForHSEStartUp:0000000000000032 .L0 
C:\Users\SOLDER~1\AppData\Local\Temp\cchmqEOm.s:212    .text.RCC_WaitForHSEStartUp:0000000000000038 .L0 
C:\Users\SOLDER~1\AppData\Local\Temp\cchmqEOm.s:216    .text.RCC_WaitForHSEStartUp:000000000000003e .L0 
C:\Users\SOLDER~1\AppData\Local\Temp\cchmqEOm.s:220    .text.RCC_WaitForHSEStartUp:000000000000004c .L0 
C:\Users\SOLDER~1\AppData\Local\Temp\cchmqEOm.s:222    .text.RCC_WaitForHSEStartUp:000000000000004e .L0 
C:\Users\SOLDER~1\AppData\Local\Temp\cchmqEOm.s:227    .text.RCC_WaitForHSEStartUp:0000000000000056 .L0 
C:\Users\SOLDER~1\AppData\Local\Temp\cchmqEOm.s:230    .text.RCC_WaitForHSEStartUp:000000000000005a .L0 
C:\Users\SOLDER~1\AppData\Local\Temp\cchmqEOm.s:232    .text.RCC_WaitForHSEStartUp:000000000000005e .L0 
C:\Users\SOLDER~1\AppData\Local\Temp\cchmqEOm.s:234    .text.RCC_WaitForHSEStartUp:0000000000000062 .L0 
C:\Users\SOLDER~1\AppData\Local\Temp\cchmqEOm.s:236    .text.RCC_WaitForHSEStartUp:0000000000000064 .L0 
C:\Users\SOLDER~1\AppData\Local\Temp\cchmqEOm.s:237    .text.RCC_WaitForHSEStartUp:0000000000000064 .L0 
C:\Users\SOLDER~1\AppData\Local\Temp\cchmqEOm.s:239    .text.RCC_WaitForHSEStartUp:0000000000000066 .L0 
C:\Users\SOLDER~1\AppData\Local\Temp\cchmqEOm.s:241    .text.RCC_WaitForHSEStartUp:0000000000000068 .L0 
C:\Users\SOLDER~1\AppData\Local\Temp\cchmqEOm.s:248    .text.RCC_AdjustHSICalibrationValue:0000000000000000 RCC_AdjustHSICalibrationValue
C:\Users\SOLDER~1\AppData\Local\Temp\cchmqEOm.s:251    .text.RCC_AdjustHSICalibrationValue:0000000000000000 .L0 
C:\Users\SOLDER~1\AppData\Local\Temp\cchmqEOm.s:252    .text.RCC_AdjustHSICalibrationValue:0000000000000000 $x
C:\Users\SOLDER~1\AppData\Local\Temp\cchmqEOm.s:252    .text.RCC_AdjustHSICalibrationValue:0000000000000000 .L0 
C:\Users\SOLDER~1\AppData\Local\Temp\cchmqEOm.s:253    .text.RCC_AdjustHSICalibrationValue:0000000000000002 .L0 
C:\Users\SOLDER~1\AppData\Local\Temp\cchmqEOm.s:255    .text.RCC_AdjustHSICalibrationValue:0000000000000004 .L0 
C:\Users\SOLDER~1\AppData\Local\Temp\cchmqEOm.s:257    .text.RCC_AdjustHSICalibrationValue:0000000000000006 .L0 
C:\Users\SOLDER~1\AppData\Local\Temp\cchmqEOm.s:261    .text.RCC_AdjustHSICalibrationValue:000000000000000c .L0 
C:\Users\SOLDER~1\AppData\Local\Temp\cchmqEOm.s:263    .text.RCC_AdjustHSICalibrationValue:0000000000000010 .L0 
C:\Users\SOLDER~1\AppData\Local\Temp\cchmqEOm.s:265    .text.RCC_AdjustHSICalibrationValue:0000000000000014 .L0 
C:\Users\SOLDER~1\AppData\Local\Temp\cchmqEOm.s:268    .text.RCC_AdjustHSICalibrationValue:000000000000001a .L0 
C:\Users\SOLDER~1\AppData\Local\Temp\cchmqEOm.s:272    .text.RCC_AdjustHSICalibrationValue:0000000000000026 .L0 
C:\Users\SOLDER~1\AppData\Local\Temp\cchmqEOm.s:274    .text.RCC_AdjustHSICalibrationValue:000000000000002a .L0 
C:\Users\SOLDER~1\AppData\Local\Temp\cchmqEOm.s:276    .text.RCC_AdjustHSICalibrationValue:000000000000002c .L0 
C:\Users\SOLDER~1\AppData\Local\Temp\cchmqEOm.s:280    .text.RCC_AdjustHSICalibrationValue:0000000000000036 .L0 
C:\Users\SOLDER~1\AppData\Local\Temp\cchmqEOm.s:282    .text.RCC_AdjustHSICalibrationValue:000000000000003a .L0 
C:\Users\SOLDER~1\AppData\Local\Temp\cchmqEOm.s:285    .text.RCC_AdjustHSICalibrationValue:0000000000000040 .L0 
C:\Users\SOLDER~1\AppData\Local\Temp\cchmqEOm.s:287    .text.RCC_AdjustHSICalibrationValue:0000000000000044 .L0 
C:\Users\SOLDER~1\AppData\Local\Temp\cchmqEOm.s:288    .text.RCC_AdjustHSICalibrationValue:0000000000000044 .L0 
C:\Users\SOLDER~1\AppData\Local\Temp\cchmqEOm.s:290    .text.RCC_AdjustHSICalibrationValue:0000000000000046 .L0 
C:\Users\SOLDER~1\AppData\Local\Temp\cchmqEOm.s:292    .text.RCC_AdjustHSICalibrationValue:0000000000000048 .L0 
C:\Users\SOLDER~1\AppData\Local\Temp\cchmqEOm.s:299    .text.RCC_HSICmd:0000000000000000 RCC_HSICmd
C:\Users\SOLDER~1\AppData\Local\Temp\cchmqEOm.s:302    .text.RCC_HSICmd:0000000000000000 .L0 
C:\Users\SOLDER~1\AppData\Local\Temp\cchmqEOm.s:303    .text.RCC_HSICmd:0000000000000000 $x
C:\Users\SOLDER~1\AppData\Local\Temp\cchmqEOm.s:303    .text.RCC_HSICmd:0000000000000000 .L0 
C:\Users\SOLDER~1\AppData\Local\Temp\cchmqEOm.s:304    .text.RCC_HSICmd:0000000000000002 .L0 
C:\Users\SOLDER~1\AppData\Local\Temp\cchmqEOm.s:306    .text.RCC_HSICmd:0000000000000004 .L0 
C:\Users\SOLDER~1\AppData\Local\Temp\cchmqEOm.s:308    .text.RCC_HSICmd:0000000000000006 .L0 
C:\Users\SOLDER~1\AppData\Local\Temp\cchmqEOm.s:311    .text.RCC_HSICmd:000000000000000a .L0 
C:\Users\SOLDER~1\AppData\Local\Temp\cchmqEOm.s:314    .text.RCC_HSICmd:0000000000000010 .L0 
C:\Users\SOLDER~1\AppData\Local\Temp\cchmqEOm.s:318    .text.RCC_HSICmd:000000000000001a .L0 
C:\Users\SOLDER~1\AppData\Local\Temp\cchmqEOm.s:321    .text.RCC_HSICmd:0000000000000020 .L0 
C:\Users\SOLDER~1\AppData\Local\Temp\cchmqEOm.s:324    .text.RCC_HSICmd:0000000000000022 .L0 
C:\Users\SOLDER~1\AppData\Local\Temp\cchmqEOm.s:328    .text.RCC_HSICmd:000000000000002c .L0 
GAS LISTING C:\Users\SOLDER~1\AppData\Local\Temp\cchmqEOm.s 			page 57


C:\Users\SOLDER~1\AppData\Local\Temp\cchmqEOm.s:332    .text.RCC_HSICmd:0000000000000030 .L0 
C:\Users\SOLDER~1\AppData\Local\Temp\cchmqEOm.s:334    .text.RCC_HSICmd:0000000000000034 .L0 
C:\Users\SOLDER~1\AppData\Local\Temp\cchmqEOm.s:335    .text.RCC_HSICmd:0000000000000034 .L0 
C:\Users\SOLDER~1\AppData\Local\Temp\cchmqEOm.s:337    .text.RCC_HSICmd:0000000000000036 .L0 
C:\Users\SOLDER~1\AppData\Local\Temp\cchmqEOm.s:339    .text.RCC_HSICmd:0000000000000038 .L0 
C:\Users\SOLDER~1\AppData\Local\Temp\cchmqEOm.s:346    .text.RCC_PLLConfig:0000000000000000 RCC_PLLConfig
C:\Users\SOLDER~1\AppData\Local\Temp\cchmqEOm.s:349    .text.RCC_PLLConfig:0000000000000000 .L0 
C:\Users\SOLDER~1\AppData\Local\Temp\cchmqEOm.s:350    .text.RCC_PLLConfig:0000000000000000 $x
C:\Users\SOLDER~1\AppData\Local\Temp\cchmqEOm.s:350    .text.RCC_PLLConfig:0000000000000000 .L0 
C:\Users\SOLDER~1\AppData\Local\Temp\cchmqEOm.s:351    .text.RCC_PLLConfig:0000000000000002 .L0 
C:\Users\SOLDER~1\AppData\Local\Temp\cchmqEOm.s:353    .text.RCC_PLLConfig:0000000000000004 .L0 
C:\Users\SOLDER~1\AppData\Local\Temp\cchmqEOm.s:355    .text.RCC_PLLConfig:0000000000000006 .L0 
C:\Users\SOLDER~1\AppData\Local\Temp\cchmqEOm.s:359    .text.RCC_PLLConfig:000000000000000e .L0 
C:\Users\SOLDER~1\AppData\Local\Temp\cchmqEOm.s:361    .text.RCC_PLLConfig:0000000000000012 .L0 
C:\Users\SOLDER~1\AppData\Local\Temp\cchmqEOm.s:363    .text.RCC_PLLConfig:0000000000000016 .L0 
C:\Users\SOLDER~1\AppData\Local\Temp\cchmqEOm.s:366    .text.RCC_PLLConfig:000000000000001c .L0 
C:\Users\SOLDER~1\AppData\Local\Temp\cchmqEOm.s:372    .text.RCC_PLLConfig:000000000000002c .L0 
C:\Users\SOLDER~1\AppData\Local\Temp\cchmqEOm.s:376    .text.RCC_PLLConfig:0000000000000036 .L0 
C:\Users\SOLDER~1\AppData\Local\Temp\cchmqEOm.s:380    .text.RCC_PLLConfig:0000000000000040 .L0 
C:\Users\SOLDER~1\AppData\Local\Temp\cchmqEOm.s:382    .text.RCC_PLLConfig:0000000000000044 .L0 
C:\Users\SOLDER~1\AppData\Local\Temp\cchmqEOm.s:385    .text.RCC_PLLConfig:000000000000004a .L0 
C:\Users\SOLDER~1\AppData\Local\Temp\cchmqEOm.s:387    .text.RCC_PLLConfig:000000000000004e .L0 
C:\Users\SOLDER~1\AppData\Local\Temp\cchmqEOm.s:388    .text.RCC_PLLConfig:000000000000004e .L0 
C:\Users\SOLDER~1\AppData\Local\Temp\cchmqEOm.s:390    .text.RCC_PLLConfig:0000000000000050 .L0 
C:\Users\SOLDER~1\AppData\Local\Temp\cchmqEOm.s:392    .text.RCC_PLLConfig:0000000000000052 .L0 
C:\Users\SOLDER~1\AppData\Local\Temp\cchmqEOm.s:399    .text.RCC_PLLCmd:0000000000000000 RCC_PLLCmd
C:\Users\SOLDER~1\AppData\Local\Temp\cchmqEOm.s:402    .text.RCC_PLLCmd:0000000000000000 .L0 
C:\Users\SOLDER~1\AppData\Local\Temp\cchmqEOm.s:403    .text.RCC_PLLCmd:0000000000000000 $x
C:\Users\SOLDER~1\AppData\Local\Temp\cchmqEOm.s:403    .text.RCC_PLLCmd:0000000000000000 .L0 
C:\Users\SOLDER~1\AppData\Local\Temp\cchmqEOm.s:404    .text.RCC_PLLCmd:0000000000000002 .L0 
C:\Users\SOLDER~1\AppData\Local\Temp\cchmqEOm.s:406    .text.RCC_PLLCmd:0000000000000004 .L0 
C:\Users\SOLDER~1\AppData\Local\Temp\cchmqEOm.s:408    .text.RCC_PLLCmd:0000000000000006 .L0 
C:\Users\SOLDER~1\AppData\Local\Temp\cchmqEOm.s:411    .text.RCC_PLLCmd:000000000000000a .L0 
C:\Users\SOLDER~1\AppData\Local\Temp\cchmqEOm.s:414    .text.RCC_PLLCmd:0000000000000010 .L0 
C:\Users\SOLDER~1\AppData\Local\Temp\cchmqEOm.s:418    .text.RCC_PLLCmd:000000000000001a .L0 
C:\Users\SOLDER~1\AppData\Local\Temp\cchmqEOm.s:422    .text.RCC_PLLCmd:0000000000000022 .L0 
C:\Users\SOLDER~1\AppData\Local\Temp\cchmqEOm.s:425    .text.RCC_PLLCmd:0000000000000024 .L0 
C:\Users\SOLDER~1\AppData\Local\Temp\cchmqEOm.s:429    .text.RCC_PLLCmd:000000000000002e .L0 
C:\Users\SOLDER~1\AppData\Local\Temp\cchmqEOm.s:435    .text.RCC_PLLCmd:0000000000000038 .L0 
C:\Users\SOLDER~1\AppData\Local\Temp\cchmqEOm.s:437    .text.RCC_PLLCmd:000000000000003c .L0 
C:\Users\SOLDER~1\AppData\Local\Temp\cchmqEOm.s:438    .text.RCC_PLLCmd:000000000000003c .L0 
C:\Users\SOLDER~1\AppData\Local\Temp\cchmqEOm.s:440    .text.RCC_PLLCmd:000000000000003e .L0 
C:\Users\SOLDER~1\AppData\Local\Temp\cchmqEOm.s:442    .text.RCC_PLLCmd:0000000000000040 .L0 
C:\Users\SOLDER~1\AppData\Local\Temp\cchmqEOm.s:449    .text.RCC_SYSCLKConfig:0000000000000000 RCC_SYSCLKConfig
C:\Users\SOLDER~1\AppData\Local\Temp\cchmqEOm.s:452    .text.RCC_SYSCLKConfig:0000000000000000 .L0 
C:\Users\SOLDER~1\AppData\Local\Temp\cchmqEOm.s:453    .text.RCC_SYSCLKConfig:0000000000000000 $x
C:\Users\SOLDER~1\AppData\Local\Temp\cchmqEOm.s:453    .text.RCC_SYSCLKConfig:0000000000000000 .L0 
C:\Users\SOLDER~1\AppData\Local\Temp\cchmqEOm.s:454    .text.RCC_SYSCLKConfig:0000000000000002 .L0 
C:\Users\SOLDER~1\AppData\Local\Temp\cchmqEOm.s:456    .text.RCC_SYSCLKConfig:0000000000000004 .L0 
C:\Users\SOLDER~1\AppData\Local\Temp\cchmqEOm.s:458    .text.RCC_SYSCLKConfig:0000000000000006 .L0 
C:\Users\SOLDER~1\AppData\Local\Temp\cchmqEOm.s:461    .text.RCC_SYSCLKConfig:000000000000000a .L0 
C:\Users\SOLDER~1\AppData\Local\Temp\cchmqEOm.s:463    .text.RCC_SYSCLKConfig:000000000000000e .L0 
C:\Users\SOLDER~1\AppData\Local\Temp\cchmqEOm.s:465    .text.RCC_SYSCLKConfig:0000000000000012 .L0 
C:\Users\SOLDER~1\AppData\Local\Temp\cchmqEOm.s:468    .text.RCC_SYSCLKConfig:0000000000000018 .L0 
C:\Users\SOLDER~1\AppData\Local\Temp\cchmqEOm.s:472    .text.RCC_SYSCLKConfig:0000000000000022 .L0 
C:\Users\SOLDER~1\AppData\Local\Temp\cchmqEOm.s:477    .text.RCC_SYSCLKConfig:0000000000000030 .L0 
C:\Users\SOLDER~1\AppData\Local\Temp\cchmqEOm.s:479    .text.RCC_SYSCLKConfig:0000000000000034 .L0 
GAS LISTING C:\Users\SOLDER~1\AppData\Local\Temp\cchmqEOm.s 			page 58


C:\Users\SOLDER~1\AppData\Local\Temp\cchmqEOm.s:482    .text.RCC_SYSCLKConfig:000000000000003a .L0 
C:\Users\SOLDER~1\AppData\Local\Temp\cchmqEOm.s:484    .text.RCC_SYSCLKConfig:000000000000003e .L0 
C:\Users\SOLDER~1\AppData\Local\Temp\cchmqEOm.s:485    .text.RCC_SYSCLKConfig:000000000000003e .L0 
C:\Users\SOLDER~1\AppData\Local\Temp\cchmqEOm.s:487    .text.RCC_SYSCLKConfig:0000000000000040 .L0 
C:\Users\SOLDER~1\AppData\Local\Temp\cchmqEOm.s:489    .text.RCC_SYSCLKConfig:0000000000000042 .L0 
C:\Users\SOLDER~1\AppData\Local\Temp\cchmqEOm.s:496    .text.RCC_GetSYSCLKSource:0000000000000000 RCC_GetSYSCLKSource
C:\Users\SOLDER~1\AppData\Local\Temp\cchmqEOm.s:499    .text.RCC_GetSYSCLKSource:0000000000000000 .L0 
C:\Users\SOLDER~1\AppData\Local\Temp\cchmqEOm.s:500    .text.RCC_GetSYSCLKSource:0000000000000000 $x
C:\Users\SOLDER~1\AppData\Local\Temp\cchmqEOm.s:500    .text.RCC_GetSYSCLKSource:0000000000000000 .L0 
C:\Users\SOLDER~1\AppData\Local\Temp\cchmqEOm.s:501    .text.RCC_GetSYSCLKSource:0000000000000002 .L0 
C:\Users\SOLDER~1\AppData\Local\Temp\cchmqEOm.s:503    .text.RCC_GetSYSCLKSource:0000000000000004 .L0 
C:\Users\SOLDER~1\AppData\Local\Temp\cchmqEOm.s:505    .text.RCC_GetSYSCLKSource:0000000000000006 .L0 
C:\Users\SOLDER~1\AppData\Local\Temp\cchmqEOm.s:507    .text.RCC_GetSYSCLKSource:0000000000000006 .L0 
C:\Users\SOLDER~1\AppData\Local\Temp\cchmqEOm.s:510    .text.RCC_GetSYSCLKSource:000000000000000c .L0 
C:\Users\SOLDER~1\AppData\Local\Temp\cchmqEOm.s:514    .text.RCC_GetSYSCLKSource:0000000000000016 .L0 
C:\Users\SOLDER~1\AppData\Local\Temp\cchmqEOm.s:516    .text.RCC_GetSYSCLKSource:000000000000001a .L0 
C:\Users\SOLDER~1\AppData\Local\Temp\cchmqEOm.s:517    .text.RCC_GetSYSCLKSource:000000000000001a .L0 
C:\Users\SOLDER~1\AppData\Local\Temp\cchmqEOm.s:519    .text.RCC_GetSYSCLKSource:000000000000001c .L0 
C:\Users\SOLDER~1\AppData\Local\Temp\cchmqEOm.s:521    .text.RCC_GetSYSCLKSource:000000000000001e .L0 
C:\Users\SOLDER~1\AppData\Local\Temp\cchmqEOm.s:528    .text.RCC_HCLKConfig:0000000000000000 RCC_HCLKConfig
C:\Users\SOLDER~1\AppData\Local\Temp\cchmqEOm.s:531    .text.RCC_HCLKConfig:0000000000000000 .L0 
C:\Users\SOLDER~1\AppData\Local\Temp\cchmqEOm.s:532    .text.RCC_HCLKConfig:0000000000000000 $x
C:\Users\SOLDER~1\AppData\Local\Temp\cchmqEOm.s:532    .text.RCC_HCLKConfig:0000000000000000 .L0 
C:\Users\SOLDER~1\AppData\Local\Temp\cchmqEOm.s:533    .text.RCC_HCLKConfig:0000000000000002 .L0 
C:\Users\SOLDER~1\AppData\Local\Temp\cchmqEOm.s:535    .text.RCC_HCLKConfig:0000000000000004 .L0 
C:\Users\SOLDER~1\AppData\Local\Temp\cchmqEOm.s:537    .text.RCC_HCLKConfig:0000000000000006 .L0 
C:\Users\SOLDER~1\AppData\Local\Temp\cchmqEOm.s:540    .text.RCC_HCLKConfig:000000000000000a .L0 
C:\Users\SOLDER~1\AppData\Local\Temp\cchmqEOm.s:542    .text.RCC_HCLKConfig:000000000000000e .L0 
C:\Users\SOLDER~1\AppData\Local\Temp\cchmqEOm.s:544    .text.RCC_HCLKConfig:0000000000000012 .L0 
C:\Users\SOLDER~1\AppData\Local\Temp\cchmqEOm.s:547    .text.RCC_HCLKConfig:0000000000000018 .L0 
C:\Users\SOLDER~1\AppData\Local\Temp\cchmqEOm.s:551    .text.RCC_HCLKConfig:0000000000000024 .L0 
C:\Users\SOLDER~1\AppData\Local\Temp\cchmqEOm.s:556    .text.RCC_HCLKConfig:0000000000000032 .L0 
C:\Users\SOLDER~1\AppData\Local\Temp\cchmqEOm.s:558    .text.RCC_HCLKConfig:0000000000000036 .L0 
C:\Users\SOLDER~1\AppData\Local\Temp\cchmqEOm.s:561    .text.RCC_HCLKConfig:000000000000003c .L0 
C:\Users\SOLDER~1\AppData\Local\Temp\cchmqEOm.s:563    .text.RCC_HCLKConfig:0000000000000040 .L0 
C:\Users\SOLDER~1\AppData\Local\Temp\cchmqEOm.s:564    .text.RCC_HCLKConfig:0000000000000040 .L0 
C:\Users\SOLDER~1\AppData\Local\Temp\cchmqEOm.s:566    .text.RCC_HCLKConfig:0000000000000042 .L0 
C:\Users\SOLDER~1\AppData\Local\Temp\cchmqEOm.s:568    .text.RCC_HCLKConfig:0000000000000044 .L0 
C:\Users\SOLDER~1\AppData\Local\Temp\cchmqEOm.s:575    .text.RCC_PCLK1Config:0000000000000000 RCC_PCLK1Config
C:\Users\SOLDER~1\AppData\Local\Temp\cchmqEOm.s:578    .text.RCC_PCLK1Config:0000000000000000 .L0 
C:\Users\SOLDER~1\AppData\Local\Temp\cchmqEOm.s:579    .text.RCC_PCLK1Config:0000000000000000 $x
C:\Users\SOLDER~1\AppData\Local\Temp\cchmqEOm.s:579    .text.RCC_PCLK1Config:0000000000000000 .L0 
C:\Users\SOLDER~1\AppData\Local\Temp\cchmqEOm.s:580    .text.RCC_PCLK1Config:0000000000000002 .L0 
C:\Users\SOLDER~1\AppData\Local\Temp\cchmqEOm.s:582    .text.RCC_PCLK1Config:0000000000000004 .L0 
C:\Users\SOLDER~1\AppData\Local\Temp\cchmqEOm.s:584    .text.RCC_PCLK1Config:0000000000000006 .L0 
C:\Users\SOLDER~1\AppData\Local\Temp\cchmqEOm.s:587    .text.RCC_PCLK1Config:000000000000000a .L0 
C:\Users\SOLDER~1\AppData\Local\Temp\cchmqEOm.s:589    .text.RCC_PCLK1Config:000000000000000e .L0 
C:\Users\SOLDER~1\AppData\Local\Temp\cchmqEOm.s:591    .text.RCC_PCLK1Config:0000000000000012 .L0 
C:\Users\SOLDER~1\AppData\Local\Temp\cchmqEOm.s:594    .text.RCC_PCLK1Config:0000000000000018 .L0 
C:\Users\SOLDER~1\AppData\Local\Temp\cchmqEOm.s:598    .text.RCC_PCLK1Config:0000000000000024 .L0 
C:\Users\SOLDER~1\AppData\Local\Temp\cchmqEOm.s:603    .text.RCC_PCLK1Config:0000000000000032 .L0 
C:\Users\SOLDER~1\AppData\Local\Temp\cchmqEOm.s:605    .text.RCC_PCLK1Config:0000000000000036 .L0 
C:\Users\SOLDER~1\AppData\Local\Temp\cchmqEOm.s:608    .text.RCC_PCLK1Config:000000000000003c .L0 
C:\Users\SOLDER~1\AppData\Local\Temp\cchmqEOm.s:610    .text.RCC_PCLK1Config:0000000000000040 .L0 
C:\Users\SOLDER~1\AppData\Local\Temp\cchmqEOm.s:611    .text.RCC_PCLK1Config:0000000000000040 .L0 
C:\Users\SOLDER~1\AppData\Local\Temp\cchmqEOm.s:613    .text.RCC_PCLK1Config:0000000000000042 .L0 
C:\Users\SOLDER~1\AppData\Local\Temp\cchmqEOm.s:615    .text.RCC_PCLK1Config:0000000000000044 .L0 
GAS LISTING C:\Users\SOLDER~1\AppData\Local\Temp\cchmqEOm.s 			page 59


C:\Users\SOLDER~1\AppData\Local\Temp\cchmqEOm.s:622    .text.RCC_PCLK2Config:0000000000000000 RCC_PCLK2Config
C:\Users\SOLDER~1\AppData\Local\Temp\cchmqEOm.s:625    .text.RCC_PCLK2Config:0000000000000000 .L0 
C:\Users\SOLDER~1\AppData\Local\Temp\cchmqEOm.s:626    .text.RCC_PCLK2Config:0000000000000000 $x
C:\Users\SOLDER~1\AppData\Local\Temp\cchmqEOm.s:626    .text.RCC_PCLK2Config:0000000000000000 .L0 
C:\Users\SOLDER~1\AppData\Local\Temp\cchmqEOm.s:627    .text.RCC_PCLK2Config:0000000000000002 .L0 
C:\Users\SOLDER~1\AppData\Local\Temp\cchmqEOm.s:629    .text.RCC_PCLK2Config:0000000000000004 .L0 
C:\Users\SOLDER~1\AppData\Local\Temp\cchmqEOm.s:631    .text.RCC_PCLK2Config:0000000000000006 .L0 
C:\Users\SOLDER~1\AppData\Local\Temp\cchmqEOm.s:634    .text.RCC_PCLK2Config:000000000000000a .L0 
C:\Users\SOLDER~1\AppData\Local\Temp\cchmqEOm.s:636    .text.RCC_PCLK2Config:000000000000000e .L0 
C:\Users\SOLDER~1\AppData\Local\Temp\cchmqEOm.s:638    .text.RCC_PCLK2Config:0000000000000012 .L0 
C:\Users\SOLDER~1\AppData\Local\Temp\cchmqEOm.s:641    .text.RCC_PCLK2Config:0000000000000018 .L0 
C:\Users\SOLDER~1\AppData\Local\Temp\cchmqEOm.s:647    .text.RCC_PCLK2Config:0000000000000028 .L0 
C:\Users\SOLDER~1\AppData\Local\Temp\cchmqEOm.s:650    .text.RCC_PCLK2Config:000000000000002e .L0 
C:\Users\SOLDER~1\AppData\Local\Temp\cchmqEOm.s:654    .text.RCC_PCLK2Config:0000000000000038 .L0 
C:\Users\SOLDER~1\AppData\Local\Temp\cchmqEOm.s:656    .text.RCC_PCLK2Config:000000000000003c .L0 
C:\Users\SOLDER~1\AppData\Local\Temp\cchmqEOm.s:659    .text.RCC_PCLK2Config:0000000000000042 .L0 
C:\Users\SOLDER~1\AppData\Local\Temp\cchmqEOm.s:661    .text.RCC_PCLK2Config:0000000000000046 .L0 
C:\Users\SOLDER~1\AppData\Local\Temp\cchmqEOm.s:662    .text.RCC_PCLK2Config:0000000000000046 .L0 
C:\Users\SOLDER~1\AppData\Local\Temp\cchmqEOm.s:664    .text.RCC_PCLK2Config:0000000000000048 .L0 
C:\Users\SOLDER~1\AppData\Local\Temp\cchmqEOm.s:666    .text.RCC_PCLK2Config:000000000000004a .L0 
C:\Users\SOLDER~1\AppData\Local\Temp\cchmqEOm.s:673    .text.RCC_ITConfig:0000000000000000 RCC_ITConfig
C:\Users\SOLDER~1\AppData\Local\Temp\cchmqEOm.s:676    .text.RCC_ITConfig:0000000000000000 .L0 
C:\Users\SOLDER~1\AppData\Local\Temp\cchmqEOm.s:677    .text.RCC_ITConfig:0000000000000000 $x
C:\Users\SOLDER~1\AppData\Local\Temp\cchmqEOm.s:677    .text.RCC_ITConfig:0000000000000000 .L0 
C:\Users\SOLDER~1\AppData\Local\Temp\cchmqEOm.s:678    .text.RCC_ITConfig:0000000000000002 .L0 
C:\Users\SOLDER~1\AppData\Local\Temp\cchmqEOm.s:680    .text.RCC_ITConfig:0000000000000004 .L0 
C:\Users\SOLDER~1\AppData\Local\Temp\cchmqEOm.s:682    .text.RCC_ITConfig:0000000000000006 .L0 
C:\Users\SOLDER~1\AppData\Local\Temp\cchmqEOm.s:687    .text.RCC_ITConfig:0000000000000010 .L0 
C:\Users\SOLDER~1\AppData\Local\Temp\cchmqEOm.s:690    .text.RCC_ITConfig:0000000000000016 .L0 
C:\Users\SOLDER~1\AppData\Local\Temp\cchmqEOm.s:697    .text.RCC_ITConfig:0000000000000028 .L0 
C:\Users\SOLDER~1\AppData\Local\Temp\cchmqEOm.s:702    .text.RCC_ITConfig:0000000000000034 .L0 
C:\Users\SOLDER~1\AppData\Local\Temp\cchmqEOm.s:705    .text.RCC_ITConfig:0000000000000036 .L0 
C:\Users\SOLDER~1\AppData\Local\Temp\cchmqEOm.s:710    .text.RCC_ITConfig:0000000000000042 .L0 
C:\Users\SOLDER~1\AppData\Local\Temp\cchmqEOm.s:714    .text.RCC_ITConfig:000000000000004e .L0 
C:\Users\SOLDER~1\AppData\Local\Temp\cchmqEOm.s:717    .text.RCC_ITConfig:0000000000000054 .L0 
C:\Users\SOLDER~1\AppData\Local\Temp\cchmqEOm.s:722    .text.RCC_ITConfig:000000000000005c .L0 
C:\Users\SOLDER~1\AppData\Local\Temp\cchmqEOm.s:724    .text.RCC_ITConfig:0000000000000060 .L0 
C:\Users\SOLDER~1\AppData\Local\Temp\cchmqEOm.s:725    .text.RCC_ITConfig:0000000000000060 .L0 
C:\Users\SOLDER~1\AppData\Local\Temp\cchmqEOm.s:727    .text.RCC_ITConfig:0000000000000062 .L0 
C:\Users\SOLDER~1\AppData\Local\Temp\cchmqEOm.s:729    .text.RCC_ITConfig:0000000000000064 .L0 
C:\Users\SOLDER~1\AppData\Local\Temp\cchmqEOm.s:736    .text.RCC_USBCLKConfig:0000000000000000 RCC_USBCLKConfig
C:\Users\SOLDER~1\AppData\Local\Temp\cchmqEOm.s:739    .text.RCC_USBCLKConfig:0000000000000000 .L0 
C:\Users\SOLDER~1\AppData\Local\Temp\cchmqEOm.s:740    .text.RCC_USBCLKConfig:0000000000000000 $x
C:\Users\SOLDER~1\AppData\Local\Temp\cchmqEOm.s:740    .text.RCC_USBCLKConfig:0000000000000000 .L0 
C:\Users\SOLDER~1\AppData\Local\Temp\cchmqEOm.s:741    .text.RCC_USBCLKConfig:0000000000000002 .L0 
C:\Users\SOLDER~1\AppData\Local\Temp\cchmqEOm.s:743    .text.RCC_USBCLKConfig:0000000000000004 .L0 
C:\Users\SOLDER~1\AppData\Local\Temp\cchmqEOm.s:745    .text.RCC_USBCLKConfig:0000000000000006 .L0 
C:\Users\SOLDER~1\AppData\Local\Temp\cchmqEOm.s:748    .text.RCC_USBCLKConfig:000000000000000a .L0 
C:\Users\SOLDER~1\AppData\Local\Temp\cchmqEOm.s:752    .text.RCC_USBCLKConfig:0000000000000014 .L0 
C:\Users\SOLDER~1\AppData\Local\Temp\cchmqEOm.s:757    .text.RCC_USBCLKConfig:000000000000001e .L0 
C:\Users\SOLDER~1\AppData\Local\Temp\cchmqEOm.s:760    .text.RCC_USBCLKConfig:0000000000000024 .L0 
C:\Users\SOLDER~1\AppData\Local\Temp\cchmqEOm.s:763    .text.RCC_USBCLKConfig:000000000000002c .L0 
C:\Users\SOLDER~1\AppData\Local\Temp\cchmqEOm.s:765    .text.RCC_USBCLKConfig:0000000000000030 .L0 
C:\Users\SOLDER~1\AppData\Local\Temp\cchmqEOm.s:768    .text.RCC_USBCLKConfig:0000000000000034 .L0 
C:\Users\SOLDER~1\AppData\Local\Temp\cchmqEOm.s:770    .text.RCC_USBCLKConfig:0000000000000038 .L0 
C:\Users\SOLDER~1\AppData\Local\Temp\cchmqEOm.s:771    .text.RCC_USBCLKConfig:0000000000000038 .L0 
C:\Users\SOLDER~1\AppData\Local\Temp\cchmqEOm.s:773    .text.RCC_USBCLKConfig:000000000000003a .L0 
GAS LISTING C:\Users\SOLDER~1\AppData\Local\Temp\cchmqEOm.s 			page 60


C:\Users\SOLDER~1\AppData\Local\Temp\cchmqEOm.s:775    .text.RCC_USBCLKConfig:000000000000003c .L0 
C:\Users\SOLDER~1\AppData\Local\Temp\cchmqEOm.s:782    .text.RCC_ADCCLKConfig:0000000000000000 RCC_ADCCLKConfig
C:\Users\SOLDER~1\AppData\Local\Temp\cchmqEOm.s:785    .text.RCC_ADCCLKConfig:0000000000000000 .L0 
C:\Users\SOLDER~1\AppData\Local\Temp\cchmqEOm.s:786    .text.RCC_ADCCLKConfig:0000000000000000 $x
C:\Users\SOLDER~1\AppData\Local\Temp\cchmqEOm.s:786    .text.RCC_ADCCLKConfig:0000000000000000 .L0 
C:\Users\SOLDER~1\AppData\Local\Temp\cchmqEOm.s:787    .text.RCC_ADCCLKConfig:0000000000000002 .L0 
C:\Users\SOLDER~1\AppData\Local\Temp\cchmqEOm.s:789    .text.RCC_ADCCLKConfig:0000000000000004 .L0 
C:\Users\SOLDER~1\AppData\Local\Temp\cchmqEOm.s:791    .text.RCC_ADCCLKConfig:0000000000000006 .L0 
C:\Users\SOLDER~1\AppData\Local\Temp\cchmqEOm.s:794    .text.RCC_ADCCLKConfig:000000000000000a .L0 
C:\Users\SOLDER~1\AppData\Local\Temp\cchmqEOm.s:796    .text.RCC_ADCCLKConfig:000000000000000e .L0 
C:\Users\SOLDER~1\AppData\Local\Temp\cchmqEOm.s:798    .text.RCC_ADCCLKConfig:0000000000000012 .L0 
C:\Users\SOLDER~1\AppData\Local\Temp\cchmqEOm.s:801    .text.RCC_ADCCLKConfig:0000000000000018 .L0 
C:\Users\SOLDER~1\AppData\Local\Temp\cchmqEOm.s:807    .text.RCC_ADCCLKConfig:0000000000000026 .L0 
C:\Users\SOLDER~1\AppData\Local\Temp\cchmqEOm.s:812    .text.RCC_ADCCLKConfig:0000000000000034 .L0 
C:\Users\SOLDER~1\AppData\Local\Temp\cchmqEOm.s:814    .text.RCC_ADCCLKConfig:0000000000000038 .L0 
C:\Users\SOLDER~1\AppData\Local\Temp\cchmqEOm.s:817    .text.RCC_ADCCLKConfig:000000000000003e .L0 
C:\Users\SOLDER~1\AppData\Local\Temp\cchmqEOm.s:819    .text.RCC_ADCCLKConfig:0000000000000042 .L0 
C:\Users\SOLDER~1\AppData\Local\Temp\cchmqEOm.s:820    .text.RCC_ADCCLKConfig:0000000000000042 .L0 
C:\Users\SOLDER~1\AppData\Local\Temp\cchmqEOm.s:822    .text.RCC_ADCCLKConfig:0000000000000044 .L0 
C:\Users\SOLDER~1\AppData\Local\Temp\cchmqEOm.s:824    .text.RCC_ADCCLKConfig:0000000000000046 .L0 
C:\Users\SOLDER~1\AppData\Local\Temp\cchmqEOm.s:831    .text.RCC_LSEConfig:0000000000000000 RCC_LSEConfig
C:\Users\SOLDER~1\AppData\Local\Temp\cchmqEOm.s:834    .text.RCC_LSEConfig:0000000000000000 .L0 
C:\Users\SOLDER~1\AppData\Local\Temp\cchmqEOm.s:835    .text.RCC_LSEConfig:0000000000000000 $x
C:\Users\SOLDER~1\AppData\Local\Temp\cchmqEOm.s:835    .text.RCC_LSEConfig:0000000000000000 .L0 
C:\Users\SOLDER~1\AppData\Local\Temp\cchmqEOm.s:836    .text.RCC_LSEConfig:0000000000000002 .L0 
C:\Users\SOLDER~1\AppData\Local\Temp\cchmqEOm.s:838    .text.RCC_LSEConfig:0000000000000004 .L0 
C:\Users\SOLDER~1\AppData\Local\Temp\cchmqEOm.s:840    .text.RCC_LSEConfig:0000000000000006 .L0 
C:\Users\SOLDER~1\AppData\Local\Temp\cchmqEOm.s:844    .text.RCC_LSEConfig:000000000000000c .L0 
C:\Users\SOLDER~1\AppData\Local\Temp\cchmqEOm.s:847    .text.RCC_LSEConfig:0000000000000014 .L0 
C:\Users\SOLDER~1\AppData\Local\Temp\cchmqEOm.s:849    .text.RCC_LSEConfig:0000000000000018 .L0 
C:\Users\SOLDER~1\AppData\Local\Temp\cchmqEOm.s:852    .text.RCC_LSEConfig:0000000000000020 .L0 
C:\Users\SOLDER~1\AppData\Local\Temp\cchmqEOm.s:854    .text.RCC_LSEConfig:0000000000000024 .L0 
C:\Users\SOLDER~1\AppData\Local\Temp\cchmqEOm.s:860    .text.RCC_LSEConfig:0000000000000034 .L0 
C:\Users\SOLDER~1\AppData\Local\Temp\cchmqEOm.s:863    .text.RCC_LSEConfig:0000000000000036 .L0 
C:\Users\SOLDER~1\AppData\Local\Temp\cchmqEOm.s:866    .text.RCC_LSEConfig:000000000000003e .L0 
C:\Users\SOLDER~1\AppData\Local\Temp\cchmqEOm.s:869    .text.RCC_LSEConfig:0000000000000042 .L0 
C:\Users\SOLDER~1\AppData\Local\Temp\cchmqEOm.s:872    .text.RCC_LSEConfig:0000000000000044 .L0 
C:\Users\SOLDER~1\AppData\Local\Temp\cchmqEOm.s:875    .text.RCC_LSEConfig:000000000000004c .L0 
C:\Users\SOLDER~1\AppData\Local\Temp\cchmqEOm.s:878    .text.RCC_LSEConfig:0000000000000050 .L0 
C:\Users\SOLDER~1\AppData\Local\Temp\cchmqEOm.s:881    .text.RCC_LSEConfig:0000000000000052 .L0 
C:\Users\SOLDER~1\AppData\Local\Temp\cchmqEOm.s:883    .text.RCC_LSEConfig:0000000000000056 .L0 
C:\Users\SOLDER~1\AppData\Local\Temp\cchmqEOm.s:884    .text.RCC_LSEConfig:0000000000000056 .L0 
C:\Users\SOLDER~1\AppData\Local\Temp\cchmqEOm.s:886    .text.RCC_LSEConfig:0000000000000058 .L0 
C:\Users\SOLDER~1\AppData\Local\Temp\cchmqEOm.s:888    .text.RCC_LSEConfig:000000000000005a .L0 
C:\Users\SOLDER~1\AppData\Local\Temp\cchmqEOm.s:895    .text.RCC_LSICmd:0000000000000000 RCC_LSICmd
C:\Users\SOLDER~1\AppData\Local\Temp\cchmqEOm.s:898    .text.RCC_LSICmd:0000000000000000 .L0 
C:\Users\SOLDER~1\AppData\Local\Temp\cchmqEOm.s:899    .text.RCC_LSICmd:0000000000000000 $x
C:\Users\SOLDER~1\AppData\Local\Temp\cchmqEOm.s:899    .text.RCC_LSICmd:0000000000000000 .L0 
C:\Users\SOLDER~1\AppData\Local\Temp\cchmqEOm.s:900    .text.RCC_LSICmd:0000000000000002 .L0 
C:\Users\SOLDER~1\AppData\Local\Temp\cchmqEOm.s:902    .text.RCC_LSICmd:0000000000000004 .L0 
C:\Users\SOLDER~1\AppData\Local\Temp\cchmqEOm.s:904    .text.RCC_LSICmd:0000000000000006 .L0 
C:\Users\SOLDER~1\AppData\Local\Temp\cchmqEOm.s:907    .text.RCC_LSICmd:000000000000000a .L0 
C:\Users\SOLDER~1\AppData\Local\Temp\cchmqEOm.s:910    .text.RCC_LSICmd:0000000000000010 .L0 
C:\Users\SOLDER~1\AppData\Local\Temp\cchmqEOm.s:914    .text.RCC_LSICmd:000000000000001a .L0 
C:\Users\SOLDER~1\AppData\Local\Temp\cchmqEOm.s:917    .text.RCC_LSICmd:0000000000000020 .L0 
C:\Users\SOLDER~1\AppData\Local\Temp\cchmqEOm.s:920    .text.RCC_LSICmd:0000000000000022 .L0 
C:\Users\SOLDER~1\AppData\Local\Temp\cchmqEOm.s:924    .text.RCC_LSICmd:000000000000002c .L0 
GAS LISTING C:\Users\SOLDER~1\AppData\Local\Temp\cchmqEOm.s 			page 61


C:\Users\SOLDER~1\AppData\Local\Temp\cchmqEOm.s:928    .text.RCC_LSICmd:0000000000000030 .L0 
C:\Users\SOLDER~1\AppData\Local\Temp\cchmqEOm.s:930    .text.RCC_LSICmd:0000000000000034 .L0 
C:\Users\SOLDER~1\AppData\Local\Temp\cchmqEOm.s:931    .text.RCC_LSICmd:0000000000000034 .L0 
C:\Users\SOLDER~1\AppData\Local\Temp\cchmqEOm.s:933    .text.RCC_LSICmd:0000000000000036 .L0 
C:\Users\SOLDER~1\AppData\Local\Temp\cchmqEOm.s:935    .text.RCC_LSICmd:0000000000000038 .L0 
C:\Users\SOLDER~1\AppData\Local\Temp\cchmqEOm.s:942    .text.RCC_RTCCLKConfig:0000000000000000 RCC_RTCCLKConfig
C:\Users\SOLDER~1\AppData\Local\Temp\cchmqEOm.s:945    .text.RCC_RTCCLKConfig:0000000000000000 .L0 
C:\Users\SOLDER~1\AppData\Local\Temp\cchmqEOm.s:946    .text.RCC_RTCCLKConfig:0000000000000000 $x
C:\Users\SOLDER~1\AppData\Local\Temp\cchmqEOm.s:946    .text.RCC_RTCCLKConfig:0000000000000000 .L0 
C:\Users\SOLDER~1\AppData\Local\Temp\cchmqEOm.s:947    .text.RCC_RTCCLKConfig:0000000000000002 .L0 
C:\Users\SOLDER~1\AppData\Local\Temp\cchmqEOm.s:949    .text.RCC_RTCCLKConfig:0000000000000004 .L0 
C:\Users\SOLDER~1\AppData\Local\Temp\cchmqEOm.s:951    .text.RCC_RTCCLKConfig:0000000000000006 .L0 
C:\Users\SOLDER~1\AppData\Local\Temp\cchmqEOm.s:954    .text.RCC_RTCCLKConfig:000000000000000a .L0 
C:\Users\SOLDER~1\AppData\Local\Temp\cchmqEOm.s:958    .text.RCC_RTCCLKConfig:0000000000000014 .L0 
C:\Users\SOLDER~1\AppData\Local\Temp\cchmqEOm.s:962    .text.RCC_RTCCLKConfig:000000000000001c .L0 
C:\Users\SOLDER~1\AppData\Local\Temp\cchmqEOm.s:964    .text.RCC_RTCCLKConfig:0000000000000020 .L0 
C:\Users\SOLDER~1\AppData\Local\Temp\cchmqEOm.s:965    .text.RCC_RTCCLKConfig:0000000000000020 .L0 
C:\Users\SOLDER~1\AppData\Local\Temp\cchmqEOm.s:967    .text.RCC_RTCCLKConfig:0000000000000022 .L0 
C:\Users\SOLDER~1\AppData\Local\Temp\cchmqEOm.s:969    .text.RCC_RTCCLKConfig:0000000000000024 .L0 
C:\Users\SOLDER~1\AppData\Local\Temp\cchmqEOm.s:976    .text.RCC_RTCCLKCmd:0000000000000000 RCC_RTCCLKCmd
C:\Users\SOLDER~1\AppData\Local\Temp\cchmqEOm.s:979    .text.RCC_RTCCLKCmd:0000000000000000 .L0 
C:\Users\SOLDER~1\AppData\Local\Temp\cchmqEOm.s:980    .text.RCC_RTCCLKCmd:0000000000000000 $x
C:\Users\SOLDER~1\AppData\Local\Temp\cchmqEOm.s:980    .text.RCC_RTCCLKCmd:0000000000000000 .L0 
C:\Users\SOLDER~1\AppData\Local\Temp\cchmqEOm.s:981    .text.RCC_RTCCLKCmd:0000000000000002 .L0 
C:\Users\SOLDER~1\AppData\Local\Temp\cchmqEOm.s:983    .text.RCC_RTCCLKCmd:0000000000000004 .L0 
C:\Users\SOLDER~1\AppData\Local\Temp\cchmqEOm.s:985    .text.RCC_RTCCLKCmd:0000000000000006 .L0 
C:\Users\SOLDER~1\AppData\Local\Temp\cchmqEOm.s:988    .text.RCC_RTCCLKCmd:000000000000000a .L0 
C:\Users\SOLDER~1\AppData\Local\Temp\cchmqEOm.s:991    .text.RCC_RTCCLKCmd:0000000000000010 .L0 
C:\Users\SOLDER~1\AppData\Local\Temp\cchmqEOm.s:995    .text.RCC_RTCCLKCmd:000000000000001a .L0 
C:\Users\SOLDER~1\AppData\Local\Temp\cchmqEOm.s:999    .text.RCC_RTCCLKCmd:0000000000000020 .L0 
C:\Users\SOLDER~1\AppData\Local\Temp\cchmqEOm.s:1002   .text.RCC_RTCCLKCmd:0000000000000022 .L0 
C:\Users\SOLDER~1\AppData\Local\Temp\cchmqEOm.s:1006   .text.RCC_RTCCLKCmd:000000000000002c .L0 
C:\Users\SOLDER~1\AppData\Local\Temp\cchmqEOm.s:1012   .text.RCC_RTCCLKCmd:0000000000000034 .L0 
C:\Users\SOLDER~1\AppData\Local\Temp\cchmqEOm.s:1014   .text.RCC_RTCCLKCmd:0000000000000038 .L0 
C:\Users\SOLDER~1\AppData\Local\Temp\cchmqEOm.s:1015   .text.RCC_RTCCLKCmd:0000000000000038 .L0 
C:\Users\SOLDER~1\AppData\Local\Temp\cchmqEOm.s:1017   .text.RCC_RTCCLKCmd:000000000000003a .L0 
C:\Users\SOLDER~1\AppData\Local\Temp\cchmqEOm.s:1019   .text.RCC_RTCCLKCmd:000000000000003c .L0 
C:\Users\SOLDER~1\AppData\Local\Temp\cchmqEOm.s:1026   .text.RCC_GetClocksFreq:0000000000000000 RCC_GetClocksFreq
C:\Users\SOLDER~1\AppData\Local\Temp\cchmqEOm.s:1029   .text.RCC_GetClocksFreq:0000000000000000 .L0 
C:\Users\SOLDER~1\AppData\Local\Temp\cchmqEOm.s:1030   .text.RCC_GetClocksFreq:0000000000000000 $x
C:\Users\SOLDER~1\AppData\Local\Temp\cchmqEOm.s:1030   .text.RCC_GetClocksFreq:0000000000000000 .L0 
C:\Users\SOLDER~1\AppData\Local\Temp\cchmqEOm.s:1031   .text.RCC_GetClocksFreq:0000000000000002 .L0 
C:\Users\SOLDER~1\AppData\Local\Temp\cchmqEOm.s:1033   .text.RCC_GetClocksFreq:0000000000000004 .L0 
C:\Users\SOLDER~1\AppData\Local\Temp\cchmqEOm.s:1035   .text.RCC_GetClocksFreq:0000000000000006 .L0 
C:\Users\SOLDER~1\AppData\Local\Temp\cchmqEOm.s:1038   .text.RCC_GetClocksFreq:000000000000000a .L0 
C:\Users\SOLDER~1\AppData\Local\Temp\cchmqEOm.s:1040   .text.RCC_GetClocksFreq:000000000000000e .L0 
C:\Users\SOLDER~1\AppData\Local\Temp\cchmqEOm.s:1042   .text.RCC_GetClocksFreq:0000000000000012 .L0 
C:\Users\SOLDER~1\AppData\Local\Temp\cchmqEOm.s:1044   .text.RCC_GetClocksFreq:0000000000000016 .L0 
C:\Users\SOLDER~1\AppData\Local\Temp\cchmqEOm.s:1046   .text.RCC_GetClocksFreq:000000000000001a .L0 
C:\Users\SOLDER~1\AppData\Local\Temp\cchmqEOm.s:1049   .text.RCC_GetClocksFreq:0000000000000020 .L0 
C:\Users\SOLDER~1\AppData\Local\Temp\cchmqEOm.s:1052   .text.RCC_GetClocksFreq:0000000000000026 .L0 
C:\Users\SOLDER~1\AppData\Local\Temp\cchmqEOm.s:1066   .text.RCC_GetClocksFreq:000000000000004c .L0 
C:\Users\SOLDER~1\AppData\Local\Temp\cchmqEOm.s:1071   .text.RCC_GetClocksFreq:000000000000005a .L0 
C:\Users\SOLDER~1\AppData\Local\Temp\cchmqEOm.s:1074   .text.RCC_GetClocksFreq:000000000000005c .L0 
C:\Users\SOLDER~1\AppData\Local\Temp\cchmqEOm.s:1079   .text.RCC_GetClocksFreq:000000000000006a .L0 
C:\Users\SOLDER~1\AppData\Local\Temp\cchmqEOm.s:1082   .text.RCC_GetClocksFreq:000000000000006c .L0 
C:\Users\SOLDER~1\AppData\Local\Temp\cchmqEOm.s:1085   .text.RCC_GetClocksFreq:0000000000000072 .L0 
GAS LISTING C:\Users\SOLDER~1\AppData\Local\Temp\cchmqEOm.s 			page 62


C:\Users\SOLDER~1\AppData\Local\Temp\cchmqEOm.s:1089   .text.RCC_GetClocksFreq:000000000000007c .L0 
C:\Users\SOLDER~1\AppData\Local\Temp\cchmqEOm.s:1092   .text.RCC_GetClocksFreq:0000000000000082 .L0 
C:\Users\SOLDER~1\AppData\Local\Temp\cchmqEOm.s:1096   .text.RCC_GetClocksFreq:000000000000008a .L0 
C:\Users\SOLDER~1\AppData\Local\Temp\cchmqEOm.s:1099   .text.RCC_GetClocksFreq:0000000000000090 .L0 
C:\Users\SOLDER~1\AppData\Local\Temp\cchmqEOm.s:1102   .text.RCC_GetClocksFreq:0000000000000096 .L0 
C:\Users\SOLDER~1\AppData\Local\Temp\cchmqEOm.s:1106   .text.RCC_GetClocksFreq:00000000000000a0 .L0 
C:\Users\SOLDER~1\AppData\Local\Temp\cchmqEOm.s:1110   .text.RCC_GetClocksFreq:00000000000000a6 .L0 
C:\Users\SOLDER~1\AppData\Local\Temp\cchmqEOm.s:1113   .text.RCC_GetClocksFreq:00000000000000ac .L0 
C:\Users\SOLDER~1\AppData\Local\Temp\cchmqEOm.s:1117   .text.RCC_GetClocksFreq:00000000000000b6 .L0 
C:\Users\SOLDER~1\AppData\Local\Temp\cchmqEOm.s:1119   .text.RCC_GetClocksFreq:00000000000000b8 .L0 
C:\Users\SOLDER~1\AppData\Local\Temp\cchmqEOm.s:1121   .text.RCC_GetClocksFreq:00000000000000ba .L0 
C:\Users\SOLDER~1\AppData\Local\Temp\cchmqEOm.s:1126   .text.RCC_GetClocksFreq:00000000000000ca .L0 
C:\Users\SOLDER~1\AppData\Local\Temp\cchmqEOm.s:1129   .text.RCC_GetClocksFreq:00000000000000d0 .L0 
C:\Users\SOLDER~1\AppData\Local\Temp\cchmqEOm.s:1132   .text.RCC_GetClocksFreq:00000000000000d2 .L0 
C:\Users\SOLDER~1\AppData\Local\Temp\cchmqEOm.s:1137   .text.RCC_GetClocksFreq:00000000000000e2 .L0 
C:\Users\SOLDER~1\AppData\Local\Temp\cchmqEOm.s:1140   .text.RCC_GetClocksFreq:00000000000000e8 .L0 
C:\Users\SOLDER~1\AppData\Local\Temp\cchmqEOm.s:1143   .text.RCC_GetClocksFreq:00000000000000ea .L0 
C:\Users\SOLDER~1\AppData\Local\Temp\cchmqEOm.s:1146   .text.RCC_GetClocksFreq:00000000000000f0 .L0 
C:\Users\SOLDER~1\AppData\Local\Temp\cchmqEOm.s:1149   .text.RCC_GetClocksFreq:00000000000000f6 .L0 
C:\Users\SOLDER~1\AppData\Local\Temp\cchmqEOm.s:1151   .text.RCC_GetClocksFreq:00000000000000f8 .L0 
C:\Users\SOLDER~1\AppData\Local\Temp\cchmqEOm.s:1156   .text.RCC_GetClocksFreq:0000000000000108 .L0 
C:\Users\SOLDER~1\AppData\Local\Temp\cchmqEOm.s:1159   .text.RCC_GetClocksFreq:000000000000010e .L0 
C:\Users\SOLDER~1\AppData\Local\Temp\cchmqEOm.s:1162   .text.RCC_GetClocksFreq:0000000000000110 .L0 
C:\Users\SOLDER~1\AppData\Local\Temp\cchmqEOm.s:1167   .text.RCC_GetClocksFreq:0000000000000120 .L0 
C:\Users\SOLDER~1\AppData\Local\Temp\cchmqEOm.s:1170   .text.RCC_GetClocksFreq:0000000000000126 .L0 
C:\Users\SOLDER~1\AppData\Local\Temp\cchmqEOm.s:1173   .text.RCC_GetClocksFreq:0000000000000128 .L0 
C:\Users\SOLDER~1\AppData\Local\Temp\cchmqEOm.s:1178   .text.RCC_GetClocksFreq:0000000000000136 .L0 
C:\Users\SOLDER~1\AppData\Local\Temp\cchmqEOm.s:1181   .text.RCC_GetClocksFreq:0000000000000138 .L0 
C:\Users\SOLDER~1\AppData\Local\Temp\cchmqEOm.s:1184   .text.RCC_GetClocksFreq:000000000000013e .L0 
C:\Users\SOLDER~1\AppData\Local\Temp\cchmqEOm.s:1187   .text.RCC_GetClocksFreq:0000000000000146 .L0 
C:\Users\SOLDER~1\AppData\Local\Temp\cchmqEOm.s:1191   .text.RCC_GetClocksFreq:0000000000000150 .L0 
C:\Users\SOLDER~1\AppData\Local\Temp\cchmqEOm.s:1198   .text.RCC_GetClocksFreq:0000000000000164 .L0 
C:\Users\SOLDER~1\AppData\Local\Temp\cchmqEOm.s:1200   .text.RCC_GetClocksFreq:0000000000000168 .L0 
C:\Users\SOLDER~1\AppData\Local\Temp\cchmqEOm.s:1203   .text.RCC_GetClocksFreq:000000000000016e .L0 
C:\Users\SOLDER~1\AppData\Local\Temp\cchmqEOm.s:1206   .text.RCC_GetClocksFreq:0000000000000176 .L0 
C:\Users\SOLDER~1\AppData\Local\Temp\cchmqEOm.s:1209   .text.RCC_GetClocksFreq:000000000000017c .L0 
C:\Users\SOLDER~1\AppData\Local\Temp\cchmqEOm.s:1212   .text.RCC_GetClocksFreq:0000000000000182 .L0 
C:\Users\SOLDER~1\AppData\Local\Temp\cchmqEOm.s:1215   .text.RCC_GetClocksFreq:000000000000018a .L0 
C:\Users\SOLDER~1\AppData\Local\Temp\cchmqEOm.s:1219   .text.RCC_GetClocksFreq:0000000000000194 .L0 
C:\Users\SOLDER~1\AppData\Local\Temp\cchmqEOm.s:1226   .text.RCC_GetClocksFreq:00000000000001a8 .L0 
C:\Users\SOLDER~1\AppData\Local\Temp\cchmqEOm.s:1228   .text.RCC_GetClocksFreq:00000000000001ac .L0 
C:\Users\SOLDER~1\AppData\Local\Temp\cchmqEOm.s:1231   .text.RCC_GetClocksFreq:00000000000001b2 .L0 
C:\Users\SOLDER~1\AppData\Local\Temp\cchmqEOm.s:1234   .text.RCC_GetClocksFreq:00000000000001ba .L0 
C:\Users\SOLDER~1\AppData\Local\Temp\cchmqEOm.s:1237   .text.RCC_GetClocksFreq:00000000000001c0 .L0 
C:\Users\SOLDER~1\AppData\Local\Temp\cchmqEOm.s:1240   .text.RCC_GetClocksFreq:00000000000001c6 .L0 
C:\Users\SOLDER~1\AppData\Local\Temp\cchmqEOm.s:1245   .text.RCC_GetClocksFreq:00000000000001d2 .L0 
C:\Users\SOLDER~1\AppData\Local\Temp\cchmqEOm.s:1249   .text.RCC_GetClocksFreq:00000000000001dc .L0 
C:\Users\SOLDER~1\AppData\Local\Temp\cchmqEOm.s:1256   .text.RCC_GetClocksFreq:00000000000001f0 .L0 
C:\Users\SOLDER~1\AppData\Local\Temp\cchmqEOm.s:1258   .text.RCC_GetClocksFreq:00000000000001f4 .L0 
C:\Users\SOLDER~1\AppData\Local\Temp\cchmqEOm.s:1261   .text.RCC_GetClocksFreq:00000000000001fa .L0 
C:\Users\SOLDER~1\AppData\Local\Temp\cchmqEOm.s:1264   .text.RCC_GetClocksFreq:0000000000000202 .L0 
C:\Users\SOLDER~1\AppData\Local\Temp\cchmqEOm.s:1267   .text.RCC_GetClocksFreq:0000000000000208 .L0 
C:\Users\SOLDER~1\AppData\Local\Temp\cchmqEOm.s:1270   .text.RCC_GetClocksFreq:000000000000020e .L0 
C:\Users\SOLDER~1\AppData\Local\Temp\cchmqEOm.s:1274   .text.RCC_GetClocksFreq:0000000000000216 .L0 
C:\Users\SOLDER~1\AppData\Local\Temp\cchmqEOm.s:1278   .text.RCC_GetClocksFreq:0000000000000220 .L0 
C:\Users\SOLDER~1\AppData\Local\Temp\cchmqEOm.s:1285   .text.RCC_GetClocksFreq:0000000000000234 .L0 
C:\Users\SOLDER~1\AppData\Local\Temp\cchmqEOm.s:1287   .text.RCC_GetClocksFreq:0000000000000238 .L0 
GAS LISTING C:\Users\SOLDER~1\AppData\Local\Temp\cchmqEOm.s 			page 63


C:\Users\SOLDER~1\AppData\Local\Temp\cchmqEOm.s:1290   .text.RCC_GetClocksFreq:000000000000023e .L0 
C:\Users\SOLDER~1\AppData\Local\Temp\cchmqEOm.s:1293   .text.RCC_GetClocksFreq:0000000000000246 .L0 
C:\Users\SOLDER~1\AppData\Local\Temp\cchmqEOm.s:1296   .text.RCC_GetClocksFreq:000000000000024c .L0 
C:\Users\SOLDER~1\AppData\Local\Temp\cchmqEOm.s:1298   .text.RCC_GetClocksFreq:0000000000000250 .L0 
C:\Users\SOLDER~1\AppData\Local\Temp\cchmqEOm.s:1299   .text.RCC_GetClocksFreq:0000000000000250 .L0 
C:\Users\SOLDER~1\AppData\Local\Temp\cchmqEOm.s:1301   .text.RCC_GetClocksFreq:0000000000000252 .L0 
C:\Users\SOLDER~1\AppData\Local\Temp\cchmqEOm.s:1303   .text.RCC_GetClocksFreq:0000000000000254 .L0 
C:\Users\SOLDER~1\AppData\Local\Temp\cchmqEOm.s:1310   .text.RCC_AHBPeriphClockCmd:0000000000000000 RCC_AHBPeriphClockCmd
C:\Users\SOLDER~1\AppData\Local\Temp\cchmqEOm.s:1313   .text.RCC_AHBPeriphClockCmd:0000000000000000 .L0 
C:\Users\SOLDER~1\AppData\Local\Temp\cchmqEOm.s:1314   .text.RCC_AHBPeriphClockCmd:0000000000000000 $x
C:\Users\SOLDER~1\AppData\Local\Temp\cchmqEOm.s:1314   .text.RCC_AHBPeriphClockCmd:0000000000000000 .L0 
C:\Users\SOLDER~1\AppData\Local\Temp\cchmqEOm.s:1315   .text.RCC_AHBPeriphClockCmd:0000000000000002 .L0 
C:\Users\SOLDER~1\AppData\Local\Temp\cchmqEOm.s:1317   .text.RCC_AHBPeriphClockCmd:0000000000000004 .L0 
C:\Users\SOLDER~1\AppData\Local\Temp\cchmqEOm.s:1319   .text.RCC_AHBPeriphClockCmd:0000000000000006 .L0 
C:\Users\SOLDER~1\AppData\Local\Temp\cchmqEOm.s:1323   .text.RCC_AHBPeriphClockCmd:000000000000000e .L0 
C:\Users\SOLDER~1\AppData\Local\Temp\cchmqEOm.s:1326   .text.RCC_AHBPeriphClockCmd:0000000000000014 .L0 
C:\Users\SOLDER~1\AppData\Local\Temp\cchmqEOm.s:1330   .text.RCC_AHBPeriphClockCmd:000000000000001e .L0 
C:\Users\SOLDER~1\AppData\Local\Temp\cchmqEOm.s:1334   .text.RCC_AHBPeriphClockCmd:0000000000000026 .L0 
C:\Users\SOLDER~1\AppData\Local\Temp\cchmqEOm.s:1337   .text.RCC_AHBPeriphClockCmd:0000000000000028 .L0 
C:\Users\SOLDER~1\AppData\Local\Temp\cchmqEOm.s:1340   .text.RCC_AHBPeriphClockCmd:000000000000002e .L0 
C:\Users\SOLDER~1\AppData\Local\Temp\cchmqEOm.s:1343   .text.RCC_AHBPeriphClockCmd:0000000000000036 .L0 
C:\Users\SOLDER~1\AppData\Local\Temp\cchmqEOm.s:1345   .text.RCC_AHBPeriphClockCmd:000000000000003a .L0 
C:\Users\SOLDER~1\AppData\Local\Temp\cchmqEOm.s:1349   .text.RCC_AHBPeriphClockCmd:000000000000003e .L0 
C:\Users\SOLDER~1\AppData\Local\Temp\cchmqEOm.s:1351   .text.RCC_AHBPeriphClockCmd:0000000000000042 .L0 
C:\Users\SOLDER~1\AppData\Local\Temp\cchmqEOm.s:1352   .text.RCC_AHBPeriphClockCmd:0000000000000042 .L0 
C:\Users\SOLDER~1\AppData\Local\Temp\cchmqEOm.s:1354   .text.RCC_AHBPeriphClockCmd:0000000000000044 .L0 
C:\Users\SOLDER~1\AppData\Local\Temp\cchmqEOm.s:1356   .text.RCC_AHBPeriphClockCmd:0000000000000046 .L0 
C:\Users\SOLDER~1\AppData\Local\Temp\cchmqEOm.s:1363   .text.RCC_APB2PeriphClockCmd:0000000000000000 RCC_APB2PeriphClockCmd
C:\Users\SOLDER~1\AppData\Local\Temp\cchmqEOm.s:1366   .text.RCC_APB2PeriphClockCmd:0000000000000000 .L0 
C:\Users\SOLDER~1\AppData\Local\Temp\cchmqEOm.s:1367   .text.RCC_APB2PeriphClockCmd:0000000000000000 $x
C:\Users\SOLDER~1\AppData\Local\Temp\cchmqEOm.s:1367   .text.RCC_APB2PeriphClockCmd:0000000000000000 .L0 
C:\Users\SOLDER~1\AppData\Local\Temp\cchmqEOm.s:1368   .text.RCC_APB2PeriphClockCmd:0000000000000002 .L0 
C:\Users\SOLDER~1\AppData\Local\Temp\cchmqEOm.s:1370   .text.RCC_APB2PeriphClockCmd:0000000000000004 .L0 
C:\Users\SOLDER~1\AppData\Local\Temp\cchmqEOm.s:1372   .text.RCC_APB2PeriphClockCmd:0000000000000006 .L0 
C:\Users\SOLDER~1\AppData\Local\Temp\cchmqEOm.s:1376   .text.RCC_APB2PeriphClockCmd:000000000000000e .L0 
C:\Users\SOLDER~1\AppData\Local\Temp\cchmqEOm.s:1379   .text.RCC_APB2PeriphClockCmd:0000000000000014 .L0 
C:\Users\SOLDER~1\AppData\Local\Temp\cchmqEOm.s:1383   .text.RCC_APB2PeriphClockCmd:000000000000001e .L0 
C:\Users\SOLDER~1\AppData\Local\Temp\cchmqEOm.s:1387   .text.RCC_APB2PeriphClockCmd:0000000000000026 .L0 
C:\Users\SOLDER~1\AppData\Local\Temp\cchmqEOm.s:1390   .text.RCC_APB2PeriphClockCmd:0000000000000028 .L0 
C:\Users\SOLDER~1\AppData\Local\Temp\cchmqEOm.s:1393   .text.RCC_APB2PeriphClockCmd:000000000000002e .L0 
C:\Users\SOLDER~1\AppData\Local\Temp\cchmqEOm.s:1396   .text.RCC_APB2PeriphClockCmd:0000000000000036 .L0 
C:\Users\SOLDER~1\AppData\Local\Temp\cchmqEOm.s:1398   .text.RCC_APB2PeriphClockCmd:000000000000003a .L0 
C:\Users\SOLDER~1\AppData\Local\Temp\cchmqEOm.s:1402   .text.RCC_APB2PeriphClockCmd:000000000000003e .L0 
C:\Users\SOLDER~1\AppData\Local\Temp\cchmqEOm.s:1404   .text.RCC_APB2PeriphClockCmd:0000000000000042 .L0 
C:\Users\SOLDER~1\AppData\Local\Temp\cchmqEOm.s:1405   .text.RCC_APB2PeriphClockCmd:0000000000000042 .L0 
C:\Users\SOLDER~1\AppData\Local\Temp\cchmqEOm.s:1407   .text.RCC_APB2PeriphClockCmd:0000000000000044 .L0 
C:\Users\SOLDER~1\AppData\Local\Temp\cchmqEOm.s:1409   .text.RCC_APB2PeriphClockCmd:0000000000000046 .L0 
C:\Users\SOLDER~1\AppData\Local\Temp\cchmqEOm.s:1416   .text.RCC_APB1PeriphClockCmd:0000000000000000 RCC_APB1PeriphClockCmd
C:\Users\SOLDER~1\AppData\Local\Temp\cchmqEOm.s:1419   .text.RCC_APB1PeriphClockCmd:0000000000000000 .L0 
C:\Users\SOLDER~1\AppData\Local\Temp\cchmqEOm.s:1420   .text.RCC_APB1PeriphClockCmd:0000000000000000 $x
C:\Users\SOLDER~1\AppData\Local\Temp\cchmqEOm.s:1420   .text.RCC_APB1PeriphClockCmd:0000000000000000 .L0 
C:\Users\SOLDER~1\AppData\Local\Temp\cchmqEOm.s:1421   .text.RCC_APB1PeriphClockCmd:0000000000000002 .L0 
C:\Users\SOLDER~1\AppData\Local\Temp\cchmqEOm.s:1423   .text.RCC_APB1PeriphClockCmd:0000000000000004 .L0 
C:\Users\SOLDER~1\AppData\Local\Temp\cchmqEOm.s:1425   .text.RCC_APB1PeriphClockCmd:0000000000000006 .L0 
C:\Users\SOLDER~1\AppData\Local\Temp\cchmqEOm.s:1429   .text.RCC_APB1PeriphClockCmd:000000000000000e .L0 
C:\Users\SOLDER~1\AppData\Local\Temp\cchmqEOm.s:1432   .text.RCC_APB1PeriphClockCmd:0000000000000014 .L0 
C:\Users\SOLDER~1\AppData\Local\Temp\cchmqEOm.s:1436   .text.RCC_APB1PeriphClockCmd:000000000000001e .L0 
GAS LISTING C:\Users\SOLDER~1\AppData\Local\Temp\cchmqEOm.s 			page 64


C:\Users\SOLDER~1\AppData\Local\Temp\cchmqEOm.s:1440   .text.RCC_APB1PeriphClockCmd:0000000000000026 .L0 
C:\Users\SOLDER~1\AppData\Local\Temp\cchmqEOm.s:1443   .text.RCC_APB1PeriphClockCmd:0000000000000028 .L0 
C:\Users\SOLDER~1\AppData\Local\Temp\cchmqEOm.s:1446   .text.RCC_APB1PeriphClockCmd:000000000000002e .L0 
C:\Users\SOLDER~1\AppData\Local\Temp\cchmqEOm.s:1449   .text.RCC_APB1PeriphClockCmd:0000000000000036 .L0 
C:\Users\SOLDER~1\AppData\Local\Temp\cchmqEOm.s:1451   .text.RCC_APB1PeriphClockCmd:000000000000003a .L0 
C:\Users\SOLDER~1\AppData\Local\Temp\cchmqEOm.s:1455   .text.RCC_APB1PeriphClockCmd:000000000000003e .L0 
C:\Users\SOLDER~1\AppData\Local\Temp\cchmqEOm.s:1457   .text.RCC_APB1PeriphClockCmd:0000000000000042 .L0 
C:\Users\SOLDER~1\AppData\Local\Temp\cchmqEOm.s:1458   .text.RCC_APB1PeriphClockCmd:0000000000000042 .L0 
C:\Users\SOLDER~1\AppData\Local\Temp\cchmqEOm.s:1460   .text.RCC_APB1PeriphClockCmd:0000000000000044 .L0 
C:\Users\SOLDER~1\AppData\Local\Temp\cchmqEOm.s:1462   .text.RCC_APB1PeriphClockCmd:0000000000000046 .L0 
C:\Users\SOLDER~1\AppData\Local\Temp\cchmqEOm.s:1469   .text.RCC_APB2PeriphResetCmd:0000000000000000 RCC_APB2PeriphResetCmd
C:\Users\SOLDER~1\AppData\Local\Temp\cchmqEOm.s:1472   .text.RCC_APB2PeriphResetCmd:0000000000000000 .L0 
C:\Users\SOLDER~1\AppData\Local\Temp\cchmqEOm.s:1473   .text.RCC_APB2PeriphResetCmd:0000000000000000 $x
C:\Users\SOLDER~1\AppData\Local\Temp\cchmqEOm.s:1473   .text.RCC_APB2PeriphResetCmd:0000000000000000 .L0 
C:\Users\SOLDER~1\AppData\Local\Temp\cchmqEOm.s:1474   .text.RCC_APB2PeriphResetCmd:0000000000000002 .L0 
C:\Users\SOLDER~1\AppData\Local\Temp\cchmqEOm.s:1476   .text.RCC_APB2PeriphResetCmd:0000000000000004 .L0 
C:\Users\SOLDER~1\AppData\Local\Temp\cchmqEOm.s:1478   .text.RCC_APB2PeriphResetCmd:0000000000000006 .L0 
C:\Users\SOLDER~1\AppData\Local\Temp\cchmqEOm.s:1482   .text.RCC_APB2PeriphResetCmd:000000000000000e .L0 
C:\Users\SOLDER~1\AppData\Local\Temp\cchmqEOm.s:1485   .text.RCC_APB2PeriphResetCmd:0000000000000014 .L0 
C:\Users\SOLDER~1\AppData\Local\Temp\cchmqEOm.s:1489   .text.RCC_APB2PeriphResetCmd:000000000000001e .L0 
C:\Users\SOLDER~1\AppData\Local\Temp\cchmqEOm.s:1493   .text.RCC_APB2PeriphResetCmd:0000000000000026 .L0 
C:\Users\SOLDER~1\AppData\Local\Temp\cchmqEOm.s:1496   .text.RCC_APB2PeriphResetCmd:0000000000000028 .L0 
C:\Users\SOLDER~1\AppData\Local\Temp\cchmqEOm.s:1499   .text.RCC_APB2PeriphResetCmd:000000000000002e .L0 
C:\Users\SOLDER~1\AppData\Local\Temp\cchmqEOm.s:1502   .text.RCC_APB2PeriphResetCmd:0000000000000036 .L0 
C:\Users\SOLDER~1\AppData\Local\Temp\cchmqEOm.s:1504   .text.RCC_APB2PeriphResetCmd:000000000000003a .L0 
C:\Users\SOLDER~1\AppData\Local\Temp\cchmqEOm.s:1508   .text.RCC_APB2PeriphResetCmd:000000000000003e .L0 
C:\Users\SOLDER~1\AppData\Local\Temp\cchmqEOm.s:1510   .text.RCC_APB2PeriphResetCmd:0000000000000042 .L0 
C:\Users\SOLDER~1\AppData\Local\Temp\cchmqEOm.s:1511   .text.RCC_APB2PeriphResetCmd:0000000000000042 .L0 
C:\Users\SOLDER~1\AppData\Local\Temp\cchmqEOm.s:1513   .text.RCC_APB2PeriphResetCmd:0000000000000044 .L0 
C:\Users\SOLDER~1\AppData\Local\Temp\cchmqEOm.s:1515   .text.RCC_APB2PeriphResetCmd:0000000000000046 .L0 
C:\Users\SOLDER~1\AppData\Local\Temp\cchmqEOm.s:1522   .text.RCC_APB1PeriphResetCmd:0000000000000000 RCC_APB1PeriphResetCmd
C:\Users\SOLDER~1\AppData\Local\Temp\cchmqEOm.s:1525   .text.RCC_APB1PeriphResetCmd:0000000000000000 .L0 
C:\Users\SOLDER~1\AppData\Local\Temp\cchmqEOm.s:1526   .text.RCC_APB1PeriphResetCmd:0000000000000000 $x
C:\Users\SOLDER~1\AppData\Local\Temp\cchmqEOm.s:1526   .text.RCC_APB1PeriphResetCmd:0000000000000000 .L0 
C:\Users\SOLDER~1\AppData\Local\Temp\cchmqEOm.s:1527   .text.RCC_APB1PeriphResetCmd:0000000000000002 .L0 
C:\Users\SOLDER~1\AppData\Local\Temp\cchmqEOm.s:1529   .text.RCC_APB1PeriphResetCmd:0000000000000004 .L0 
C:\Users\SOLDER~1\AppData\Local\Temp\cchmqEOm.s:1531   .text.RCC_APB1PeriphResetCmd:0000000000000006 .L0 
C:\Users\SOLDER~1\AppData\Local\Temp\cchmqEOm.s:1535   .text.RCC_APB1PeriphResetCmd:000000000000000e .L0 
C:\Users\SOLDER~1\AppData\Local\Temp\cchmqEOm.s:1538   .text.RCC_APB1PeriphResetCmd:0000000000000014 .L0 
C:\Users\SOLDER~1\AppData\Local\Temp\cchmqEOm.s:1542   .text.RCC_APB1PeriphResetCmd:000000000000001e .L0 
C:\Users\SOLDER~1\AppData\Local\Temp\cchmqEOm.s:1546   .text.RCC_APB1PeriphResetCmd:0000000000000026 .L0 
C:\Users\SOLDER~1\AppData\Local\Temp\cchmqEOm.s:1549   .text.RCC_APB1PeriphResetCmd:0000000000000028 .L0 
C:\Users\SOLDER~1\AppData\Local\Temp\cchmqEOm.s:1552   .text.RCC_APB1PeriphResetCmd:000000000000002e .L0 
C:\Users\SOLDER~1\AppData\Local\Temp\cchmqEOm.s:1555   .text.RCC_APB1PeriphResetCmd:0000000000000036 .L0 
C:\Users\SOLDER~1\AppData\Local\Temp\cchmqEOm.s:1557   .text.RCC_APB1PeriphResetCmd:000000000000003a .L0 
C:\Users\SOLDER~1\AppData\Local\Temp\cchmqEOm.s:1561   .text.RCC_APB1PeriphResetCmd:000000000000003e .L0 
C:\Users\SOLDER~1\AppData\Local\Temp\cchmqEOm.s:1563   .text.RCC_APB1PeriphResetCmd:0000000000000042 .L0 
C:\Users\SOLDER~1\AppData\Local\Temp\cchmqEOm.s:1564   .text.RCC_APB1PeriphResetCmd:0000000000000042 .L0 
C:\Users\SOLDER~1\AppData\Local\Temp\cchmqEOm.s:1566   .text.RCC_APB1PeriphResetCmd:0000000000000044 .L0 
C:\Users\SOLDER~1\AppData\Local\Temp\cchmqEOm.s:1568   .text.RCC_APB1PeriphResetCmd:0000000000000046 .L0 
C:\Users\SOLDER~1\AppData\Local\Temp\cchmqEOm.s:1575   .text.RCC_BackupResetCmd:0000000000000000 RCC_BackupResetCmd
C:\Users\SOLDER~1\AppData\Local\Temp\cchmqEOm.s:1578   .text.RCC_BackupResetCmd:0000000000000000 .L0 
C:\Users\SOLDER~1\AppData\Local\Temp\cchmqEOm.s:1579   .text.RCC_BackupResetCmd:0000000000000000 $x
C:\Users\SOLDER~1\AppData\Local\Temp\cchmqEOm.s:1579   .text.RCC_BackupResetCmd:0000000000000000 .L0 
C:\Users\SOLDER~1\AppData\Local\Temp\cchmqEOm.s:1580   .text.RCC_BackupResetCmd:0000000000000002 .L0 
C:\Users\SOLDER~1\AppData\Local\Temp\cchmqEOm.s:1582   .text.RCC_BackupResetCmd:0000000000000004 .L0 
C:\Users\SOLDER~1\AppData\Local\Temp\cchmqEOm.s:1584   .text.RCC_BackupResetCmd:0000000000000006 .L0 
GAS LISTING C:\Users\SOLDER~1\AppData\Local\Temp\cchmqEOm.s 			page 65


C:\Users\SOLDER~1\AppData\Local\Temp\cchmqEOm.s:1587   .text.RCC_BackupResetCmd:000000000000000a .L0 
C:\Users\SOLDER~1\AppData\Local\Temp\cchmqEOm.s:1590   .text.RCC_BackupResetCmd:0000000000000010 .L0 
C:\Users\SOLDER~1\AppData\Local\Temp\cchmqEOm.s:1594   .text.RCC_BackupResetCmd:000000000000001a .L0 
C:\Users\SOLDER~1\AppData\Local\Temp\cchmqEOm.s:1598   .text.RCC_BackupResetCmd:0000000000000020 .L0 
C:\Users\SOLDER~1\AppData\Local\Temp\cchmqEOm.s:1601   .text.RCC_BackupResetCmd:0000000000000022 .L0 
C:\Users\SOLDER~1\AppData\Local\Temp\cchmqEOm.s:1605   .text.RCC_BackupResetCmd:000000000000002c .L0 
C:\Users\SOLDER~1\AppData\Local\Temp\cchmqEOm.s:1611   .text.RCC_BackupResetCmd:0000000000000034 .L0 
C:\Users\SOLDER~1\AppData\Local\Temp\cchmqEOm.s:1613   .text.RCC_BackupResetCmd:0000000000000038 .L0 
C:\Users\SOLDER~1\AppData\Local\Temp\cchmqEOm.s:1614   .text.RCC_BackupResetCmd:0000000000000038 .L0 
C:\Users\SOLDER~1\AppData\Local\Temp\cchmqEOm.s:1616   .text.RCC_BackupResetCmd:000000000000003a .L0 
C:\Users\SOLDER~1\AppData\Local\Temp\cchmqEOm.s:1618   .text.RCC_BackupResetCmd:000000000000003c .L0 
C:\Users\SOLDER~1\AppData\Local\Temp\cchmqEOm.s:1625   .text.RCC_ClockSecuritySystemCmd:0000000000000000 RCC_ClockSecuritySystemCmd
C:\Users\SOLDER~1\AppData\Local\Temp\cchmqEOm.s:1628   .text.RCC_ClockSecuritySystemCmd:0000000000000000 .L0 
C:\Users\SOLDER~1\AppData\Local\Temp\cchmqEOm.s:1629   .text.RCC_ClockSecuritySystemCmd:0000000000000000 $x
C:\Users\SOLDER~1\AppData\Local\Temp\cchmqEOm.s:1629   .text.RCC_ClockSecuritySystemCmd:0000000000000000 .L0 
C:\Users\SOLDER~1\AppData\Local\Temp\cchmqEOm.s:1630   .text.RCC_ClockSecuritySystemCmd:0000000000000002 .L0 
C:\Users\SOLDER~1\AppData\Local\Temp\cchmqEOm.s:1632   .text.RCC_ClockSecuritySystemCmd:0000000000000004 .L0 
C:\Users\SOLDER~1\AppData\Local\Temp\cchmqEOm.s:1634   .text.RCC_ClockSecuritySystemCmd:0000000000000006 .L0 
C:\Users\SOLDER~1\AppData\Local\Temp\cchmqEOm.s:1637   .text.RCC_ClockSecuritySystemCmd:000000000000000a .L0 
C:\Users\SOLDER~1\AppData\Local\Temp\cchmqEOm.s:1640   .text.RCC_ClockSecuritySystemCmd:0000000000000010 .L0 
C:\Users\SOLDER~1\AppData\Local\Temp\cchmqEOm.s:1644   .text.RCC_ClockSecuritySystemCmd:000000000000001a .L0 
C:\Users\SOLDER~1\AppData\Local\Temp\cchmqEOm.s:1648   .text.RCC_ClockSecuritySystemCmd:0000000000000022 .L0 
C:\Users\SOLDER~1\AppData\Local\Temp\cchmqEOm.s:1651   .text.RCC_ClockSecuritySystemCmd:0000000000000024 .L0 
C:\Users\SOLDER~1\AppData\Local\Temp\cchmqEOm.s:1655   .text.RCC_ClockSecuritySystemCmd:000000000000002e .L0 
C:\Users\SOLDER~1\AppData\Local\Temp\cchmqEOm.s:1661   .text.RCC_ClockSecuritySystemCmd:0000000000000038 .L0 
C:\Users\SOLDER~1\AppData\Local\Temp\cchmqEOm.s:1663   .text.RCC_ClockSecuritySystemCmd:000000000000003c .L0 
C:\Users\SOLDER~1\AppData\Local\Temp\cchmqEOm.s:1664   .text.RCC_ClockSecuritySystemCmd:000000000000003c .L0 
C:\Users\SOLDER~1\AppData\Local\Temp\cchmqEOm.s:1666   .text.RCC_ClockSecuritySystemCmd:000000000000003e .L0 
C:\Users\SOLDER~1\AppData\Local\Temp\cchmqEOm.s:1668   .text.RCC_ClockSecuritySystemCmd:0000000000000040 .L0 
C:\Users\SOLDER~1\AppData\Local\Temp\cchmqEOm.s:1675   .text.RCC_MCOConfig:0000000000000000 RCC_MCOConfig
C:\Users\SOLDER~1\AppData\Local\Temp\cchmqEOm.s:1678   .text.RCC_MCOConfig:0000000000000000 .L0 
C:\Users\SOLDER~1\AppData\Local\Temp\cchmqEOm.s:1679   .text.RCC_MCOConfig:0000000000000000 $x
C:\Users\SOLDER~1\AppData\Local\Temp\cchmqEOm.s:1679   .text.RCC_MCOConfig:0000000000000000 .L0 
C:\Users\SOLDER~1\AppData\Local\Temp\cchmqEOm.s:1680   .text.RCC_MCOConfig:0000000000000002 .L0 
C:\Users\SOLDER~1\AppData\Local\Temp\cchmqEOm.s:1682   .text.RCC_MCOConfig:0000000000000004 .L0 
C:\Users\SOLDER~1\AppData\Local\Temp\cchmqEOm.s:1684   .text.RCC_MCOConfig:0000000000000006 .L0 
C:\Users\SOLDER~1\AppData\Local\Temp\cchmqEOm.s:1688   .text.RCC_MCOConfig:000000000000000c .L0 
C:\Users\SOLDER~1\AppData\Local\Temp\cchmqEOm.s:1691   .text.RCC_MCOConfig:0000000000000012 .L0 
C:\Users\SOLDER~1\AppData\Local\Temp\cchmqEOm.s:1694   .text.RCC_MCOConfig:0000000000000018 .L0 
C:\Users\SOLDER~1\AppData\Local\Temp\cchmqEOm.s:1696   .text.RCC_MCOConfig:000000000000001c .L0 
C:\Users\SOLDER~1\AppData\Local\Temp\cchmqEOm.s:1697   .text.RCC_MCOConfig:000000000000001c .L0 
C:\Users\SOLDER~1\AppData\Local\Temp\cchmqEOm.s:1699   .text.RCC_MCOConfig:000000000000001e .L0 
C:\Users\SOLDER~1\AppData\Local\Temp\cchmqEOm.s:1701   .text.RCC_MCOConfig:0000000000000020 .L0 
C:\Users\SOLDER~1\AppData\Local\Temp\cchmqEOm.s:1711   .text.RCC_GetFlagStatus:0000000000000000 .L0 
C:\Users\SOLDER~1\AppData\Local\Temp\cchmqEOm.s:1712   .text.RCC_GetFlagStatus:0000000000000000 $x
C:\Users\SOLDER~1\AppData\Local\Temp\cchmqEOm.s:1712   .text.RCC_GetFlagStatus:0000000000000000 .L0 
C:\Users\SOLDER~1\AppData\Local\Temp\cchmqEOm.s:1713   .text.RCC_GetFlagStatus:0000000000000002 .L0 
C:\Users\SOLDER~1\AppData\Local\Temp\cchmqEOm.s:1715   .text.RCC_GetFlagStatus:0000000000000004 .L0 
C:\Users\SOLDER~1\AppData\Local\Temp\cchmqEOm.s:1717   .text.RCC_GetFlagStatus:0000000000000006 .L0 
C:\Users\SOLDER~1\AppData\Local\Temp\cchmqEOm.s:1721   .text.RCC_GetFlagStatus:000000000000000c .L0 
C:\Users\SOLDER~1\AppData\Local\Temp\cchmqEOm.s:1723   .text.RCC_GetFlagStatus:0000000000000010 .L0 
C:\Users\SOLDER~1\AppData\Local\Temp\cchmqEOm.s:1725   .text.RCC_GetFlagStatus:0000000000000014 .L0 
C:\Users\SOLDER~1\AppData\Local\Temp\cchmqEOm.s:1727   .text.RCC_GetFlagStatus:0000000000000018 .L0 
C:\Users\SOLDER~1\AppData\Local\Temp\cchmqEOm.s:1731   .text.RCC_GetFlagStatus:0000000000000022 .L0 
C:\Users\SOLDER~1\AppData\Local\Temp\cchmqEOm.s:1733   .text.RCC_GetFlagStatus:0000000000000026 .L0 
C:\Users\SOLDER~1\AppData\Local\Temp\cchmqEOm.s:1737   .text.RCC_GetFlagStatus:0000000000000030 .L0 
C:\Users\SOLDER~1\AppData\Local\Temp\cchmqEOm.s:1739   .text.RCC_GetFlagStatus:0000000000000034 .L0 
GAS LISTING C:\Users\SOLDER~1\AppData\Local\Temp\cchmqEOm.s 			page 66


C:\Users\SOLDER~1\AppData\Local\Temp\cchmqEOm.s:1744   .text.RCC_GetFlagStatus:000000000000003c .L0 
C:\Users\SOLDER~1\AppData\Local\Temp\cchmqEOm.s:1748   .text.RCC_GetFlagStatus:0000000000000046 .L0 
C:\Users\SOLDER~1\AppData\Local\Temp\cchmqEOm.s:1750   .text.RCC_GetFlagStatus:000000000000004a .L0 
C:\Users\SOLDER~1\AppData\Local\Temp\cchmqEOm.s:1755   .text.RCC_GetFlagStatus:0000000000000052 .L0 
C:\Users\SOLDER~1\AppData\Local\Temp\cchmqEOm.s:1757   .text.RCC_GetFlagStatus:0000000000000056 .L0 
C:\Users\SOLDER~1\AppData\Local\Temp\cchmqEOm.s:1761   .text.RCC_GetFlagStatus:000000000000005c .L0 
C:\Users\SOLDER~1\AppData\Local\Temp\cchmqEOm.s:1763   .text.RCC_GetFlagStatus:0000000000000060 .L0 
C:\Users\SOLDER~1\AppData\Local\Temp\cchmqEOm.s:1766   .text.RCC_GetFlagStatus:0000000000000066 .L0 
C:\Users\SOLDER~1\AppData\Local\Temp\cchmqEOm.s:1771   .text.RCC_GetFlagStatus:0000000000000074 .L0 
C:\Users\SOLDER~1\AppData\Local\Temp\cchmqEOm.s:1773   .text.RCC_GetFlagStatus:0000000000000076 .L0 
C:\Users\SOLDER~1\AppData\Local\Temp\cchmqEOm.s:1778   .text.RCC_GetFlagStatus:000000000000007e .L0 
C:\Users\SOLDER~1\AppData\Local\Temp\cchmqEOm.s:1781   .text.RCC_GetFlagStatus:0000000000000082 .L0 
C:\Users\SOLDER~1\AppData\Local\Temp\cchmqEOm.s:1783   .text.RCC_GetFlagStatus:0000000000000086 .L0 
C:\Users\SOLDER~1\AppData\Local\Temp\cchmqEOm.s:1785   .text.RCC_GetFlagStatus:000000000000008a .L0 
C:\Users\SOLDER~1\AppData\Local\Temp\cchmqEOm.s:1786   .text.RCC_GetFlagStatus:000000000000008a .L0 
C:\Users\SOLDER~1\AppData\Local\Temp\cchmqEOm.s:1788   .text.RCC_GetFlagStatus:000000000000008c .L0 
C:\Users\SOLDER~1\AppData\Local\Temp\cchmqEOm.s:1790   .text.RCC_GetFlagStatus:000000000000008e .L0 
C:\Users\SOLDER~1\AppData\Local\Temp\cchmqEOm.s:1797   .text.RCC_ClearFlag:0000000000000000 RCC_ClearFlag
C:\Users\SOLDER~1\AppData\Local\Temp\cchmqEOm.s:1800   .text.RCC_ClearFlag:0000000000000000 .L0 
C:\Users\SOLDER~1\AppData\Local\Temp\cchmqEOm.s:1801   .text.RCC_ClearFlag:0000000000000000 $x
C:\Users\SOLDER~1\AppData\Local\Temp\cchmqEOm.s:1801   .text.RCC_ClearFlag:0000000000000000 .L0 
C:\Users\SOLDER~1\AppData\Local\Temp\cchmqEOm.s:1802   .text.RCC_ClearFlag:0000000000000002 .L0 
C:\Users\SOLDER~1\AppData\Local\Temp\cchmqEOm.s:1804   .text.RCC_ClearFlag:0000000000000004 .L0 
C:\Users\SOLDER~1\AppData\Local\Temp\cchmqEOm.s:1806   .text.RCC_ClearFlag:0000000000000006 .L0 
C:\Users\SOLDER~1\AppData\Local\Temp\cchmqEOm.s:1808   .text.RCC_ClearFlag:0000000000000006 .L0 
C:\Users\SOLDER~1\AppData\Local\Temp\cchmqEOm.s:1812   .text.RCC_ClearFlag:0000000000000010 .L0 
C:\Users\SOLDER~1\AppData\Local\Temp\cchmqEOm.s:1816   .text.RCC_ClearFlag:0000000000000018 .L0 
C:\Users\SOLDER~1\AppData\Local\Temp\cchmqEOm.s:1818   .text.RCC_ClearFlag:000000000000001c .L0 
C:\Users\SOLDER~1\AppData\Local\Temp\cchmqEOm.s:1819   .text.RCC_ClearFlag:000000000000001c .L0 
C:\Users\SOLDER~1\AppData\Local\Temp\cchmqEOm.s:1821   .text.RCC_ClearFlag:000000000000001e .L0 
C:\Users\SOLDER~1\AppData\Local\Temp\cchmqEOm.s:1823   .text.RCC_ClearFlag:0000000000000020 .L0 
C:\Users\SOLDER~1\AppData\Local\Temp\cchmqEOm.s:1830   .text.RCC_GetITStatus:0000000000000000 RCC_GetITStatus
C:\Users\SOLDER~1\AppData\Local\Temp\cchmqEOm.s:1833   .text.RCC_GetITStatus:0000000000000000 .L0 
C:\Users\SOLDER~1\AppData\Local\Temp\cchmqEOm.s:1834   .text.RCC_GetITStatus:0000000000000000 $x
C:\Users\SOLDER~1\AppData\Local\Temp\cchmqEOm.s:1834   .text.RCC_GetITStatus:0000000000000000 .L0 
C:\Users\SOLDER~1\AppData\Local\Temp\cchmqEOm.s:1835   .text.RCC_GetITStatus:0000000000000002 .L0 
C:\Users\SOLDER~1\AppData\Local\Temp\cchmqEOm.s:1837   .text.RCC_GetITStatus:0000000000000004 .L0 
C:\Users\SOLDER~1\AppData\Local\Temp\cchmqEOm.s:1839   .text.RCC_GetITStatus:0000000000000006 .L0 
C:\Users\SOLDER~1\AppData\Local\Temp\cchmqEOm.s:1843   .text.RCC_GetITStatus:000000000000000c .L0 
C:\Users\SOLDER~1\AppData\Local\Temp\cchmqEOm.s:1845   .text.RCC_GetITStatus:0000000000000010 .L0 
C:\Users\SOLDER~1\AppData\Local\Temp\cchmqEOm.s:1848   .text.RCC_GetITStatus:0000000000000016 .L0 
C:\Users\SOLDER~1\AppData\Local\Temp\cchmqEOm.s:1851   .text.RCC_GetITStatus:000000000000001c .L0 
C:\Users\SOLDER~1\AppData\Local\Temp\cchmqEOm.s:1853   .text.RCC_GetITStatus:000000000000001e .L0 
C:\Users\SOLDER~1\AppData\Local\Temp\cchmqEOm.s:1858   .text.RCC_GetITStatus:0000000000000026 .L0 
C:\Users\SOLDER~1\AppData\Local\Temp\cchmqEOm.s:1861   .text.RCC_GetITStatus:000000000000002a .L0 
C:\Users\SOLDER~1\AppData\Local\Temp\cchmqEOm.s:1863   .text.RCC_GetITStatus:000000000000002e .L0 
C:\Users\SOLDER~1\AppData\Local\Temp\cchmqEOm.s:1865   .text.RCC_GetITStatus:0000000000000032 .L0 
C:\Users\SOLDER~1\AppData\Local\Temp\cchmqEOm.s:1866   .text.RCC_GetITStatus:0000000000000032 .L0 
C:\Users\SOLDER~1\AppData\Local\Temp\cchmqEOm.s:1868   .text.RCC_GetITStatus:0000000000000034 .L0 
C:\Users\SOLDER~1\AppData\Local\Temp\cchmqEOm.s:1870   .text.RCC_GetITStatus:0000000000000036 .L0 
C:\Users\SOLDER~1\AppData\Local\Temp\cchmqEOm.s:1877   .text.RCC_ClearITPendingBit:0000000000000000 RCC_ClearITPendingBit
C:\Users\SOLDER~1\AppData\Local\Temp\cchmqEOm.s:1880   .text.RCC_ClearITPendingBit:0000000000000000 .L0 
C:\Users\SOLDER~1\AppData\Local\Temp\cchmqEOm.s:1881   .text.RCC_ClearITPendingBit:0000000000000000 $x
C:\Users\SOLDER~1\AppData\Local\Temp\cchmqEOm.s:1881   .text.RCC_ClearITPendingBit:0000000000000000 .L0 
C:\Users\SOLDER~1\AppData\Local\Temp\cchmqEOm.s:1882   .text.RCC_ClearITPendingBit:0000000000000002 .L0 
C:\Users\SOLDER~1\AppData\Local\Temp\cchmqEOm.s:1884   .text.RCC_ClearITPendingBit:0000000000000004 .L0 
C:\Users\SOLDER~1\AppData\Local\Temp\cchmqEOm.s:1886   .text.RCC_ClearITPendingBit:0000000000000006 .L0 
GAS LISTING C:\Users\SOLDER~1\AppData\Local\Temp\cchmqEOm.s 			page 67


C:\Users\SOLDER~1\AppData\Local\Temp\cchmqEOm.s:1890   .text.RCC_ClearITPendingBit:000000000000000c .L0 
C:\Users\SOLDER~1\AppData\Local\Temp\cchmqEOm.s:1893   .text.RCC_ClearITPendingBit:0000000000000012 .L0 
C:\Users\SOLDER~1\AppData\Local\Temp\cchmqEOm.s:1896   .text.RCC_ClearITPendingBit:0000000000000018 .L0 
C:\Users\SOLDER~1\AppData\Local\Temp\cchmqEOm.s:1898   .text.RCC_ClearITPendingBit:000000000000001c .L0 
C:\Users\SOLDER~1\AppData\Local\Temp\cchmqEOm.s:1899   .text.RCC_ClearITPendingBit:000000000000001c .L0 
C:\Users\SOLDER~1\AppData\Local\Temp\cchmqEOm.s:1901   .text.RCC_ClearITPendingBit:000000000000001e .L0 
C:\Users\SOLDER~1\AppData\Local\Temp\cchmqEOm.s:1903   .text.RCC_ClearITPendingBit:0000000000000020 .L0 
C:\Users\SOLDER~1\AppData\Local\Temp\cchmqEOm.s:1910   .text.RCC_ADCCLKADJcmd:0000000000000000 RCC_ADCCLKADJcmd
C:\Users\SOLDER~1\AppData\Local\Temp\cchmqEOm.s:1913   .text.RCC_ADCCLKADJcmd:0000000000000000 .L0 
C:\Users\SOLDER~1\AppData\Local\Temp\cchmqEOm.s:1914   .text.RCC_ADCCLKADJcmd:0000000000000000 $x
C:\Users\SOLDER~1\AppData\Local\Temp\cchmqEOm.s:1914   .text.RCC_ADCCLKADJcmd:0000000000000000 .L0 
C:\Users\SOLDER~1\AppData\Local\Temp\cchmqEOm.s:1915   .text.RCC_ADCCLKADJcmd:0000000000000002 .L0 
C:\Users\SOLDER~1\AppData\Local\Temp\cchmqEOm.s:1917   .text.RCC_ADCCLKADJcmd:0000000000000004 .L0 
C:\Users\SOLDER~1\AppData\Local\Temp\cchmqEOm.s:1919   .text.RCC_ADCCLKADJcmd:0000000000000006 .L0 
C:\Users\SOLDER~1\AppData\Local\Temp\cchmqEOm.s:1922   .text.RCC_ADCCLKADJcmd:000000000000000a .L0 
C:\Users\SOLDER~1\AppData\Local\Temp\cchmqEOm.s:1925   .text.RCC_ADCCLKADJcmd:0000000000000010 .L0 
C:\Users\SOLDER~1\AppData\Local\Temp\cchmqEOm.s:1929   .text.RCC_ADCCLKADJcmd:000000000000001a .L0 
C:\Users\SOLDER~1\AppData\Local\Temp\cchmqEOm.s:1933   .text.RCC_ADCCLKADJcmd:0000000000000022 .L0 
C:\Users\SOLDER~1\AppData\Local\Temp\cchmqEOm.s:1936   .text.RCC_ADCCLKADJcmd:0000000000000024 .L0 
C:\Users\SOLDER~1\AppData\Local\Temp\cchmqEOm.s:1940   .text.RCC_ADCCLKADJcmd:000000000000002e .L0 
C:\Users\SOLDER~1\AppData\Local\Temp\cchmqEOm.s:1946   .text.RCC_ADCCLKADJcmd:0000000000000038 .L0 
C:\Users\SOLDER~1\AppData\Local\Temp\cchmqEOm.s:1948   .text.RCC_ADCCLKADJcmd:000000000000003c .L0 
C:\Users\SOLDER~1\AppData\Local\Temp\cchmqEOm.s:1949   .text.RCC_ADCCLKADJcmd:000000000000003c .L0 
C:\Users\SOLDER~1\AppData\Local\Temp\cchmqEOm.s:1951   .text.RCC_ADCCLKADJcmd:000000000000003e .L0 
C:\Users\SOLDER~1\AppData\Local\Temp\cchmqEOm.s:1953   .text.RCC_ADCCLKADJcmd:0000000000000040 .L0 
C:\Users\SOLDER~1\AppData\Local\Temp\cchmqEOm.s:1960   .text.RCC_ETHDIVConfig:0000000000000000 RCC_ETHDIVConfig
C:\Users\SOLDER~1\AppData\Local\Temp\cchmqEOm.s:1963   .text.RCC_ETHDIVConfig:0000000000000000 .L0 
C:\Users\SOLDER~1\AppData\Local\Temp\cchmqEOm.s:1964   .text.RCC_ETHDIVConfig:0000000000000000 $x
C:\Users\SOLDER~1\AppData\Local\Temp\cchmqEOm.s:1964   .text.RCC_ETHDIVConfig:0000000000000000 .L0 
C:\Users\SOLDER~1\AppData\Local\Temp\cchmqEOm.s:1965   .text.RCC_ETHDIVConfig:0000000000000002 .L0 
C:\Users\SOLDER~1\AppData\Local\Temp\cchmqEOm.s:1967   .text.RCC_ETHDIVConfig:0000000000000004 .L0 
C:\Users\SOLDER~1\AppData\Local\Temp\cchmqEOm.s:1969   .text.RCC_ETHDIVConfig:0000000000000006 .L0 
C:\Users\SOLDER~1\AppData\Local\Temp\cchmqEOm.s:1972   .text.RCC_ETHDIVConfig:000000000000000a .L0 
C:\Users\SOLDER~1\AppData\Local\Temp\cchmqEOm.s:1976   .text.RCC_ETHDIVConfig:0000000000000014 .L0 
C:\Users\SOLDER~1\AppData\Local\Temp\cchmqEOm.s:1981   .text.RCC_ETHDIVConfig:000000000000001e .L0 
C:\Users\SOLDER~1\AppData\Local\Temp\cchmqEOm.s:1984   .text.RCC_ETHDIVConfig:0000000000000024 .L0 
C:\Users\SOLDER~1\AppData\Local\Temp\cchmqEOm.s:1987   .text.RCC_ETHDIVConfig:000000000000002c .L0 
C:\Users\SOLDER~1\AppData\Local\Temp\cchmqEOm.s:1989   .text.RCC_ETHDIVConfig:0000000000000030 .L0 
C:\Users\SOLDER~1\AppData\Local\Temp\cchmqEOm.s:1992   .text.RCC_ETHDIVConfig:0000000000000034 .L0 
C:\Users\SOLDER~1\AppData\Local\Temp\cchmqEOm.s:1994   .text.RCC_ETHDIVConfig:0000000000000038 .L0 
C:\Users\SOLDER~1\AppData\Local\Temp\cchmqEOm.s:1995   .text.RCC_ETHDIVConfig:0000000000000038 .L0 
C:\Users\SOLDER~1\AppData\Local\Temp\cchmqEOm.s:1997   .text.RCC_ETHDIVConfig:000000000000003a .L0 
C:\Users\SOLDER~1\AppData\Local\Temp\cchmqEOm.s:1999   .text.RCC_ETHDIVConfig:000000000000003c .L0 
C:\Users\SOLDER~1\AppData\Local\Temp\cchmqEOm.s:33107  .debug_line_str:0000000000000065 .L0 
C:\Users\SOLDER~1\AppData\Local\Temp\cchmqEOm.s:33107  .debug_line_str:00000000000000af .L0 
C:\Users\SOLDER~1\AppData\Local\Temp\cchmqEOm.s:33107  .debug_line_str:00000000000000bb .L0 
C:\Users\SOLDER~1\AppData\Local\Temp\cchmqEOm.s:33107  .debug_line_str:0000000000000108 .L0 
C:\Users\SOLDER~1\AppData\Local\Temp\cchmqEOm.s:33107  .debug_line_str:0000000000000151 .L0 
C:\Users\SOLDER~1\AppData\Local\Temp\cchmqEOm.s:33107  .debug_line_str:000000000000015d .L0 
C:\Users\SOLDER~1\AppData\Local\Temp\cchmqEOm.s:33107  .debug_line_str:00000000000001b1 .L0 
C:\Users\SOLDER~1\AppData\Local\Temp\cchmqEOm.s:33107  .debug_line_str:00000000000001f6 .L0 
C:\Users\SOLDER~1\AppData\Local\Temp\cchmqEOm.s:33107  .debug_line_str:0000000000000205 .L0 
C:\Users\SOLDER~1\AppData\Local\Temp\cchmqEOm.s:33107  .debug_line_str:0000000000000214 .L0 
C:\Users\SOLDER~1\AppData\Local\Temp\cchmqEOm.s:33107  .debug_line_str:0000000000000225 .L0 
C:\Users\SOLDER~1\AppData\Local\Temp\cchmqEOm.s:33107  .debug_line_str:000000000000022f .L0 
C:\Users\SOLDER~1\AppData\Local\Temp\cchmqEOm.s:33107  .debug_line_str:000000000000023c .L0 
C:\Users\SOLDER~1\AppData\Local\Temp\cchmqEOm.s:33107  .debug_line_str:0000000000000247 .L0 
GAS LISTING C:\Users\SOLDER~1\AppData\Local\Temp\cchmqEOm.s 			page 68


C:\Users\SOLDER~1\AppData\Local\Temp\cchmqEOm.s:33107  .debug_line_str:0000000000000256 .L0 
C:\Users\SOLDER~1\AppData\Local\Temp\cchmqEOm.s:33107  .debug_line_str:000000000000025f .L0 
C:\Users\SOLDER~1\AppData\Local\Temp\cchmqEOm.s:33107  .debug_line_str:0000000000000268 .L0 
C:\Users\SOLDER~1\AppData\Local\Temp\cchmqEOm.s:33107  .debug_line_str:0000000000000273 .L0 
C:\Users\SOLDER~1\AppData\Local\Temp\cchmqEOm.s:33107  .debug_line_str:0000000000000285 .L0 
C:\Users\SOLDER~1\AppData\Local\Temp\cchmqEOm.s:33107  .debug_line_str:000000000000028f .L0 
C:\Users\SOLDER~1\AppData\Local\Temp\cchmqEOm.s:33107  .debug_line_str:000000000000029f .L0 
C:\Users\SOLDER~1\AppData\Local\Temp\cchmqEOm.s:33107  .debug_line_str:00000000000002ae .L0 
C:\Users\SOLDER~1\AppData\Local\Temp\cchmqEOm.s:33107  .debug_line_str:00000000000002bd .L0 
C:\Users\SOLDER~1\AppData\Local\Temp\cchmqEOm.s:33107  .debug_line_str:00000000000002cc .L0 
C:\Users\SOLDER~1\AppData\Local\Temp\cchmqEOm.s:33107  .debug_line_str:00000000000002db .L0 
C:\Users\SOLDER~1\AppData\Local\Temp\cchmqEOm.s:33107  .debug_line_str:00000000000002ed .L0 
C:\Users\SOLDER~1\AppData\Local\Temp\cchmqEOm.s:33107  .debug_line_str:00000000000002fc .L0 
C:\Users\SOLDER~1\AppData\Local\Temp\cchmqEOm.s:33107  .debug_line_str:000000000000030c .L0 
C:\Users\SOLDER~1\AppData\Local\Temp\cchmqEOm.s:33107  .debug_line_str:000000000000031d .L0 
C:\Users\SOLDER~1\AppData\Local\Temp\cchmqEOm.s:33107  .debug_line_str:000000000000032d .L0 
C:\Users\SOLDER~1\AppData\Local\Temp\cchmqEOm.s:33107  .debug_line_str:000000000000033c .L0 
C:\Users\SOLDER~1\AppData\Local\Temp\cchmqEOm.s:33107  .debug_line_str:000000000000034c .L0 
C:\Users\SOLDER~1\AppData\Local\Temp\cchmqEOm.s:33107  .debug_line_str:000000000000035b .L0 
C:\Users\SOLDER~1\AppData\Local\Temp\cchmqEOm.s:33107  .debug_line_str:000000000000036a .L0 
C:\Users\SOLDER~1\AppData\Local\Temp\cchmqEOm.s:33107  .debug_line_str:0000000000000379 .L0 
C:\Users\SOLDER~1\AppData\Local\Temp\cchmqEOm.s:33107  .debug_line_str:0000000000000388 .L0 
C:\Users\SOLDER~1\AppData\Local\Temp\cchmqEOm.s:33107  .debug_line_str:0000000000000399 .L0 
C:\Users\SOLDER~1\AppData\Local\Temp\cchmqEOm.s:33107  .debug_line_str:00000000000003a9 .L0 
C:\Users\SOLDER~1\AppData\Local\Temp\cchmqEOm.s:99     .text.RCC_DeInit:0000000000000076 .L0 
C:\Users\SOLDER~1\AppData\Local\Temp\cchmqEOm.s:175    .text.RCC_HSEConfig:0000000000000076 .L0 
C:\Users\SOLDER~1\AppData\Local\Temp\cchmqEOm.s:244    .text.RCC_WaitForHSEStartUp:0000000000000068 .L0 
C:\Users\SOLDER~1\AppData\Local\Temp\cchmqEOm.s:295    .text.RCC_AdjustHSICalibrationValue:0000000000000048 .L0 
C:\Users\SOLDER~1\AppData\Local\Temp\cchmqEOm.s:342    .text.RCC_HSICmd:0000000000000038 .L0 
C:\Users\SOLDER~1\AppData\Local\Temp\cchmqEOm.s:395    .text.RCC_PLLConfig:0000000000000052 .L0 
C:\Users\SOLDER~1\AppData\Local\Temp\cchmqEOm.s:445    .text.RCC_PLLCmd:0000000000000040 .L0 
C:\Users\SOLDER~1\AppData\Local\Temp\cchmqEOm.s:492    .text.RCC_SYSCLKConfig:0000000000000042 .L0 
C:\Users\SOLDER~1\AppData\Local\Temp\cchmqEOm.s:524    .text.RCC_GetSYSCLKSource:000000000000001e .L0 
C:\Users\SOLDER~1\AppData\Local\Temp\cchmqEOm.s:571    .text.RCC_HCLKConfig:0000000000000044 .L0 
C:\Users\SOLDER~1\AppData\Local\Temp\cchmqEOm.s:618    .text.RCC_PCLK1Config:0000000000000044 .L0 
C:\Users\SOLDER~1\AppData\Local\Temp\cchmqEOm.s:669    .text.RCC_PCLK2Config:000000000000004a .L0 
C:\Users\SOLDER~1\AppData\Local\Temp\cchmqEOm.s:732    .text.RCC_ITConfig:0000000000000064 .L0 
C:\Users\SOLDER~1\AppData\Local\Temp\cchmqEOm.s:778    .text.RCC_USBCLKConfig:000000000000003c .L0 
C:\Users\SOLDER~1\AppData\Local\Temp\cchmqEOm.s:827    .text.RCC_ADCCLKConfig:0000000000000046 .L0 
C:\Users\SOLDER~1\AppData\Local\Temp\cchmqEOm.s:891    .text.RCC_LSEConfig:000000000000005a .L0 
C:\Users\SOLDER~1\AppData\Local\Temp\cchmqEOm.s:938    .text.RCC_LSICmd:0000000000000038 .L0 
C:\Users\SOLDER~1\AppData\Local\Temp\cchmqEOm.s:972    .text.RCC_RTCCLKConfig:0000000000000024 .L0 
C:\Users\SOLDER~1\AppData\Local\Temp\cchmqEOm.s:1022   .text.RCC_RTCCLKCmd:000000000000003c .L0 
C:\Users\SOLDER~1\AppData\Local\Temp\cchmqEOm.s:1306   .text.RCC_GetClocksFreq:0000000000000254 .L0 
C:\Users\SOLDER~1\AppData\Local\Temp\cchmqEOm.s:1359   .text.RCC_AHBPeriphClockCmd:0000000000000046 .L0 
C:\Users\SOLDER~1\AppData\Local\Temp\cchmqEOm.s:1412   .text.RCC_APB2PeriphClockCmd:0000000000000046 .L0 
C:\Users\SOLDER~1\AppData\Local\Temp\cchmqEOm.s:1465   .text.RCC_APB1PeriphClockCmd:0000000000000046 .L0 
C:\Users\SOLDER~1\AppData\Local\Temp\cchmqEOm.s:1518   .text.RCC_APB2PeriphResetCmd:0000000000000046 .L0 
C:\Users\SOLDER~1\AppData\Local\Temp\cchmqEOm.s:1571   .text.RCC_APB1PeriphResetCmd:0000000000000046 .L0 
C:\Users\SOLDER~1\AppData\Local\Temp\cchmqEOm.s:1621   .text.RCC_BackupResetCmd:000000000000003c .L0 
C:\Users\SOLDER~1\AppData\Local\Temp\cchmqEOm.s:1671   .text.RCC_ClockSecuritySystemCmd:0000000000000040 .L0 
C:\Users\SOLDER~1\AppData\Local\Temp\cchmqEOm.s:1704   .text.RCC_MCOConfig:0000000000000020 .L0 
C:\Users\SOLDER~1\AppData\Local\Temp\cchmqEOm.s:1793   .text.RCC_GetFlagStatus:000000000000008e .L0 
C:\Users\SOLDER~1\AppData\Local\Temp\cchmqEOm.s:1826   .text.RCC_ClearFlag:0000000000000020 .L0 
C:\Users\SOLDER~1\AppData\Local\Temp\cchmqEOm.s:1873   .text.RCC_GetITStatus:0000000000000036 .L0 
C:\Users\SOLDER~1\AppData\Local\Temp\cchmqEOm.s:1906   .text.RCC_ClearITPendingBit:0000000000000020 .L0 
C:\Users\SOLDER~1\AppData\Local\Temp\cchmqEOm.s:1956   .text.RCC_ADCCLKADJcmd:0000000000000040 .L0 
GAS LISTING C:\Users\SOLDER~1\AppData\Local\Temp\cchmqEOm.s 			page 69


C:\Users\SOLDER~1\AppData\Local\Temp\cchmqEOm.s:2002   .text.RCC_ETHDIVConfig:000000000000003c .L0 
                     .debug_frame:0000000000000000 .L0 
C:\Users\SOLDER~1\AppData\Local\Temp\cchmqEOm.s:141    .text.RCC_HSEConfig:0000000000000048 .L3
C:\Users\SOLDER~1\AppData\Local\Temp\cchmqEOm.s:152    .text.RCC_HSEConfig:000000000000005a .L4
C:\Users\SOLDER~1\AppData\Local\Temp\cchmqEOm.s:163    .text.RCC_HSEConfig:000000000000006e .L6
C:\Users\SOLDER~1\AppData\Local\Temp\cchmqEOm.s:214    .text.RCC_WaitForHSEStartUp:000000000000003e .L8
C:\Users\SOLDER~1\AppData\Local\Temp\cchmqEOm.s:197    .text.RCC_WaitForHSEStartUp:0000000000000014 .L9
C:\Users\SOLDER~1\AppData\Local\Temp\cchmqEOm.s:225    .text.RCC_WaitForHSEStartUp:0000000000000056 .L10
C:\Users\SOLDER~1\AppData\Local\Temp\cchmqEOm.s:228    .text.RCC_WaitForHSEStartUp:000000000000005a .L11
C:\Users\SOLDER~1\AppData\Local\Temp\cchmqEOm.s:322    .text.RCC_HSICmd:0000000000000022 .L15
C:\Users\SOLDER~1\AppData\Local\Temp\cchmqEOm.s:330    .text.RCC_HSICmd:0000000000000030 .L17
C:\Users\SOLDER~1\AppData\Local\Temp\cchmqEOm.s:423    .text.RCC_PLLCmd:0000000000000024 .L20
C:\Users\SOLDER~1\AppData\Local\Temp\cchmqEOm.s:433    .text.RCC_PLLCmd:0000000000000038 .L22
C:\Users\SOLDER~1\AppData\Local\Temp\cchmqEOm.s:703    .text.RCC_ITConfig:0000000000000036 .L30
C:\Users\SOLDER~1\AppData\Local\Temp\cchmqEOm.s:720    .text.RCC_ITConfig:000000000000005c .L32
C:\Users\SOLDER~1\AppData\Local\Temp\cchmqEOm.s:861    .text.RCC_LSEConfig:0000000000000036 .L36
C:\Users\SOLDER~1\AppData\Local\Temp\cchmqEOm.s:870    .text.RCC_LSEConfig:0000000000000044 .L37
C:\Users\SOLDER~1\AppData\Local\Temp\cchmqEOm.s:879    .text.RCC_LSEConfig:0000000000000052 .L39
C:\Users\SOLDER~1\AppData\Local\Temp\cchmqEOm.s:918    .text.RCC_LSICmd:0000000000000022 .L41
C:\Users\SOLDER~1\AppData\Local\Temp\cchmqEOm.s:926    .text.RCC_LSICmd:0000000000000030 .L43
C:\Users\SOLDER~1\AppData\Local\Temp\cchmqEOm.s:1000   .text.RCC_RTCCLKCmd:0000000000000022 .L46
C:\Users\SOLDER~1\AppData\Local\Temp\cchmqEOm.s:1010   .text.RCC_RTCCLKCmd:0000000000000034 .L48
C:\Users\SOLDER~1\AppData\Local\Temp\cchmqEOm.s:1080   .text.RCC_GetClocksFreq:000000000000006c .L50
C:\Users\SOLDER~1\AppData\Local\Temp\cchmqEOm.s:1171   .text.RCC_GetClocksFreq:0000000000000128 .L51
C:\Users\SOLDER~1\AppData\Local\Temp\cchmqEOm.s:1064   .text.RCC_GetClocksFreq:000000000000004c .L52
C:\Users\SOLDER~1\AppData\Local\Temp\cchmqEOm.s:1072   .text.RCC_GetClocksFreq:000000000000005c .L53
C:\Users\SOLDER~1\AppData\Local\Temp\cchmqEOm.s:1179   .text.RCC_GetClocksFreq:0000000000000138 .L54
C:\Users\SOLDER~1\AppData\Local\Temp\cchmqEOm.s:1108   .text.RCC_GetClocksFreq:00000000000000a6 .L55
C:\Users\SOLDER~1\AppData\Local\Temp\cchmqEOm.s:1141   .text.RCC_GetClocksFreq:00000000000000ea .L56
C:\Users\SOLDER~1\AppData\Local\Temp\cchmqEOm.s:1130   .text.RCC_GetClocksFreq:00000000000000d2 .L57
C:\Users\SOLDER~1\AppData\Local\Temp\cchmqEOm.s:1160   .text.RCC_GetClocksFreq:0000000000000110 .L59
C:\Users\SOLDER~1\AppData\Local\Temp\cchmqEOm.s:1335   .text.RCC_AHBPeriphClockCmd:0000000000000028 .L61
C:\Users\SOLDER~1\AppData\Local\Temp\cchmqEOm.s:1347   .text.RCC_AHBPeriphClockCmd:000000000000003e .L63
C:\Users\SOLDER~1\AppData\Local\Temp\cchmqEOm.s:1388   .text.RCC_APB2PeriphClockCmd:0000000000000028 .L65
C:\Users\SOLDER~1\AppData\Local\Temp\cchmqEOm.s:1400   .text.RCC_APB2PeriphClockCmd:000000000000003e .L67
C:\Users\SOLDER~1\AppData\Local\Temp\cchmqEOm.s:1441   .text.RCC_APB1PeriphClockCmd:0000000000000028 .L69
C:\Users\SOLDER~1\AppData\Local\Temp\cchmqEOm.s:1453   .text.RCC_APB1PeriphClockCmd:000000000000003e .L71
C:\Users\SOLDER~1\AppData\Local\Temp\cchmqEOm.s:1494   .text.RCC_APB2PeriphResetCmd:0000000000000028 .L73
C:\Users\SOLDER~1\AppData\Local\Temp\cchmqEOm.s:1506   .text.RCC_APB2PeriphResetCmd:000000000000003e .L75
C:\Users\SOLDER~1\AppData\Local\Temp\cchmqEOm.s:1547   .text.RCC_APB1PeriphResetCmd:0000000000000028 .L77
C:\Users\SOLDER~1\AppData\Local\Temp\cchmqEOm.s:1559   .text.RCC_APB1PeriphResetCmd:000000000000003e .L79
C:\Users\SOLDER~1\AppData\Local\Temp\cchmqEOm.s:1599   .text.RCC_BackupResetCmd:0000000000000022 .L81
C:\Users\SOLDER~1\AppData\Local\Temp\cchmqEOm.s:1609   .text.RCC_BackupResetCmd:0000000000000034 .L83
C:\Users\SOLDER~1\AppData\Local\Temp\cchmqEOm.s:1649   .text.RCC_ClockSecuritySystemCmd:0000000000000024 .L85
C:\Users\SOLDER~1\AppData\Local\Temp\cchmqEOm.s:1659   .text.RCC_ClockSecuritySystemCmd:0000000000000038 .L87
C:\Users\SOLDER~1\AppData\Local\Temp\cchmqEOm.s:1742   .text.RCC_GetFlagStatus:000000000000003c .L90
C:\Users\SOLDER~1\AppData\Local\Temp\cchmqEOm.s:1759   .text.RCC_GetFlagStatus:000000000000005c .L91
C:\Users\SOLDER~1\AppData\Local\Temp\cchmqEOm.s:1753   .text.RCC_GetFlagStatus:0000000000000052 .L92
C:\Users\SOLDER~1\AppData\Local\Temp\cchmqEOm.s:1776   .text.RCC_GetFlagStatus:000000000000007e .L93
C:\Users\SOLDER~1\AppData\Local\Temp\cchmqEOm.s:1779   .text.RCC_GetFlagStatus:0000000000000082 .L94
C:\Users\SOLDER~1\AppData\Local\Temp\cchmqEOm.s:1856   .text.RCC_GetITStatus:0000000000000026 .L98
C:\Users\SOLDER~1\AppData\Local\Temp\cchmqEOm.s:1859   .text.RCC_GetITStatus:000000000000002a .L99
C:\Users\SOLDER~1\AppData\Local\Temp\cchmqEOm.s:1934   .text.RCC_ADCCLKADJcmd:0000000000000024 .L103
C:\Users\SOLDER~1\AppData\Local\Temp\cchmqEOm.s:1944   .text.RCC_ADCCLKADJcmd:0000000000000038 .L105
C:\Users\SOLDER~1\AppData\Local\Temp\cchmqEOm.s:3082   .debug_abbrev:0000000000000000 .Ldebug_abbrev0
C:\Users\SOLDER~1\AppData\Local\Temp\cchmqEOm.s:21498  .debug_str:0000000000000678 .LASF5853
C:\Users\SOLDER~1\AppData\Local\Temp\cchmqEOm.s:33103  .debug_line_str:0000000000000000 .LASF0
GAS LISTING C:\Users\SOLDER~1\AppData\Local\Temp\cchmqEOm.s 			page 70


C:\Users\SOLDER~1\AppData\Local\Temp\cchmqEOm.s:33105  .debug_line_str:000000000000001b .LASF1
C:\Users\SOLDER~1\AppData\Local\Temp\cchmqEOm.s:3681   .debug_rnglists:000000000000000c .LLRL0
C:\Users\SOLDER~1\AppData\Local\Temp\cchmqEOm.s:21394  .debug_line:0000000000000000 .Ldebug_line0
C:\Users\SOLDER~1\AppData\Local\Temp\cchmqEOm.s:3787   .debug_macro:0000000000000000 .Ldebug_macro0
C:\Users\SOLDER~1\AppData\Local\Temp\cchmqEOm.s:33040  .debug_str:000000000002f35b .LASF5744
C:\Users\SOLDER~1\AppData\Local\Temp\cchmqEOm.s:27758  .debug_str:0000000000019de8 .LASF5745
C:\Users\SOLDER~1\AppData\Local\Temp\cchmqEOm.s:23694  .debug_str:00000000000094c7 .LASF5748
C:\Users\SOLDER~1\AppData\Local\Temp\cchmqEOm.s:27232  .debug_str:0000000000017b9e .LASF5746
C:\Users\SOLDER~1\AppData\Local\Temp\cchmqEOm.s:26514  .debug_str:0000000000014d66 .LASF5747
C:\Users\SOLDER~1\AppData\Local\Temp\cchmqEOm.s:25060  .debug_str:000000000000ee37 .LASF5749
C:\Users\SOLDER~1\AppData\Local\Temp\cchmqEOm.s:26632  .debug_str:000000000001551d .LASF5750
C:\Users\SOLDER~1\AppData\Local\Temp\cchmqEOm.s:31038  .debug_str:00000000000272b7 .LASF5751
C:\Users\SOLDER~1\AppData\Local\Temp\cchmqEOm.s:27954  .debug_str:000000000001aa4a .LASF5752
C:\Users\SOLDER~1\AppData\Local\Temp\cchmqEOm.s:21510  .debug_str:00000000000007d4 .LASF5753
C:\Users\SOLDER~1\AppData\Local\Temp\cchmqEOm.s:21416  .debug_str:000000000000014b .LASF5754
C:\Users\SOLDER~1\AppData\Local\Temp\cchmqEOm.s:31126  .debug_str:0000000000027865 .LASF5755
C:\Users\SOLDER~1\AppData\Local\Temp\cchmqEOm.s:30700  .debug_str:0000000000025bfe .LASF5756
C:\Users\SOLDER~1\AppData\Local\Temp\cchmqEOm.s:31054  .debug_str:00000000000273a4 .LASF5757
C:\Users\SOLDER~1\AppData\Local\Temp\cchmqEOm.s:22244  .debug_str:000000000000375b .LASF5758
C:\Users\SOLDER~1\AppData\Local\Temp\cchmqEOm.s:24820  .debug_str:000000000000de9c .LASF5759
C:\Users\SOLDER~1\AppData\Local\Temp\cchmqEOm.s:32306  .debug_str:000000000002c436 .LASF5760
C:\Users\SOLDER~1\AppData\Local\Temp\cchmqEOm.s:30744  .debug_str:0000000000025edb .LASF5761
C:\Users\SOLDER~1\AppData\Local\Temp\cchmqEOm.s:23510  .debug_str:000000000000889a .LASF5762
C:\Users\SOLDER~1\AppData\Local\Temp\cchmqEOm.s:25042  .debug_str:000000000000ed35 .LASF5763
C:\Users\SOLDER~1\AppData\Local\Temp\cchmqEOm.s:26988  .debug_str:0000000000016bbb .LASF5764
C:\Users\SOLDER~1\AppData\Local\Temp\cchmqEOm.s:30790  .debug_str:00000000000261e7 .LASF5765
C:\Users\SOLDER~1\AppData\Local\Temp\cchmqEOm.s:24068  .debug_str:000000000000ad4b .LASF5766
C:\Users\SOLDER~1\AppData\Local\Temp\cchmqEOm.s:26686  .debug_str:0000000000015895 .LASF5767
C:\Users\SOLDER~1\AppData\Local\Temp\cchmqEOm.s:27662  .debug_str:00000000000197dd .LASF5768
C:\Users\SOLDER~1\AppData\Local\Temp\cchmqEOm.s:30036  .debug_str:00000000000230b2 .LASF5769
C:\Users\SOLDER~1\AppData\Local\Temp\cchmqEOm.s:31146  .debug_str:00000000000279bb .LASF5770
C:\Users\SOLDER~1\AppData\Local\Temp\cchmqEOm.s:29498  .debug_str:0000000000020e84 .LASF5771
C:\Users\SOLDER~1\AppData\Local\Temp\cchmqEOm.s:25914  .debug_str:0000000000012558 .LASF5772
C:\Users\SOLDER~1\AppData\Local\Temp\cchmqEOm.s:22624  .debug_str:0000000000004f60 .LASF5773
C:\Users\SOLDER~1\AppData\Local\Temp\cchmqEOm.s:23632  .debug_str:00000000000090a6 .LASF5774
C:\Users\SOLDER~1\AppData\Local\Temp\cchmqEOm.s:31744  .debug_str:0000000000029f84 .LASF5775
C:\Users\SOLDER~1\AppData\Local\Temp\cchmqEOm.s:23038  .debug_str:0000000000006a2f .LASF5776
C:\Users\SOLDER~1\AppData\Local\Temp\cchmqEOm.s:29996  .debug_str:0000000000022e18 .LASF5777
C:\Users\SOLDER~1\AppData\Local\Temp\cchmqEOm.s:22698  .debug_str:00000000000053af .LASF5778
C:\Users\SOLDER~1\AppData\Local\Temp\cchmqEOm.s:30040  .debug_str:00000000000230dd .LASF5779
C:\Users\SOLDER~1\AppData\Local\Temp\cchmqEOm.s:32712  .debug_str:000000000002ded6 .LASF5780
C:\Users\SOLDER~1\AppData\Local\Temp\cchmqEOm.s:29064  .debug_str:000000000001f25f .LASF5781
C:\Users\SOLDER~1\AppData\Local\Temp\cchmqEOm.s:28746  .debug_str:000000000001ddf3 .LASF5782
C:\Users\SOLDER~1\AppData\Local\Temp\cchmqEOm.s:29374  .debug_str:0000000000020697 .LASF5783
C:\Users\SOLDER~1\AppData\Local\Temp\cchmqEOm.s:29762  .debug_str:0000000000021f66 .LASF5784
C:\Users\SOLDER~1\AppData\Local\Temp\cchmqEOm.s:28406  .debug_str:000000000001c76f .LASF5785
C:\Users\SOLDER~1\AppData\Local\Temp\cchmqEOm.s:32014  .debug_str:000000000002b15a .LASF5786
C:\Users\SOLDER~1\AppData\Local\Temp\cchmqEOm.s:31252  .debug_str:0000000000028029 .LASF5787
C:\Users\SOLDER~1\AppData\Local\Temp\cchmqEOm.s:22498  .debug_str:000000000000478a .LASF5788
C:\Users\SOLDER~1\AppData\Local\Temp\cchmqEOm.s:23616  .debug_str:0000000000008fa8 .LASF5789
C:\Users\SOLDER~1\AppData\Local\Temp\cchmqEOm.s:27602  .debug_str:000000000001941b .LASF5790
C:\Users\SOLDER~1\AppData\Local\Temp\cchmqEOm.s:26480  .debug_str:0000000000014b0b .LASF5791
C:\Users\SOLDER~1\AppData\Local\Temp\cchmqEOm.s:1961   .text.RCC_ETHDIVConfig:0000000000000000 .LFB49
C:\Users\SOLDER~1\AppData\Local\Temp\cchmqEOm.s:2000   .text.RCC_ETHDIVConfig:000000000000003c .LFE49
C:\Users\SOLDER~1\AppData\Local\Temp\cchmqEOm.s:25738  .debug_str:00000000000119f9 .LASF5793
C:\Users\SOLDER~1\AppData\Local\Temp\cchmqEOm.s:24248  .debug_str:000000000000b8ee .LASF5792
C:\Users\SOLDER~1\AppData\Local\Temp\cchmqEOm.s:1911   .text.RCC_ADCCLKADJcmd:0000000000000000 .LFB48
GAS LISTING C:\Users\SOLDER~1\AppData\Local\Temp\cchmqEOm.s 			page 71


C:\Users\SOLDER~1\AppData\Local\Temp\cchmqEOm.s:1954   .text.RCC_ADCCLKADJcmd:0000000000000040 .LFE48
C:\Users\SOLDER~1\AppData\Local\Temp\cchmqEOm.s:28998  .debug_str:000000000001ee32 .LASF5794
C:\Users\SOLDER~1\AppData\Local\Temp\cchmqEOm.s:23486  .debug_str:00000000000086ff .LASF5795
C:\Users\SOLDER~1\AppData\Local\Temp\cchmqEOm.s:1878   .text.RCC_ClearITPendingBit:0000000000000000 .LFB47
C:\Users\SOLDER~1\AppData\Local\Temp\cchmqEOm.s:1904   .text.RCC_ClearITPendingBit:0000000000000020 .LFE47
C:\Users\SOLDER~1\AppData\Local\Temp\cchmqEOm.s:32946  .debug_str:000000000002ed73 .LASF5796
C:\Users\SOLDER~1\AppData\Local\Temp\cchmqEOm.s:26402  .debug_str:000000000001460b .LASF5798
C:\Users\SOLDER~1\AppData\Local\Temp\cchmqEOm.s:1831   .text.RCC_GetITStatus:0000000000000000 .LFB46
C:\Users\SOLDER~1\AppData\Local\Temp\cchmqEOm.s:1871   .text.RCC_GetITStatus:0000000000000036 .LFE46
C:\Users\SOLDER~1\AppData\Local\Temp\cchmqEOm.s:26000  .debug_str:0000000000012a88 .LASF5797
C:\Users\SOLDER~1\AppData\Local\Temp\cchmqEOm.s:27286  .debug_str:0000000000017ef8 .LASF5851
C:\Users\SOLDER~1\AppData\Local\Temp\cchmqEOm.s:1798   .text.RCC_ClearFlag:0000000000000000 .LFB45
C:\Users\SOLDER~1\AppData\Local\Temp\cchmqEOm.s:1824   .text.RCC_ClearFlag:0000000000000020 .LFE45
C:\Users\SOLDER~1\AppData\Local\Temp\cchmqEOm.s:29334  .debug_str:00000000000203fe .LASF5799
C:\Users\SOLDER~1\AppData\Local\Temp\cchmqEOm.s:1709   .text.RCC_GetFlagStatus:0000000000000000 .LFB44
C:\Users\SOLDER~1\AppData\Local\Temp\cchmqEOm.s:1791   .text.RCC_GetFlagStatus:000000000000008e .LFE44
C:\Users\SOLDER~1\AppData\Local\Temp\cchmqEOm.s:29688  .debug_str:0000000000021ad7 .LASF5800
C:\Users\SOLDER~1\AppData\Local\Temp\cchmqEOm.s:26612  .debug_str:00000000000153c5 .LASF5801
C:\Users\SOLDER~1\AppData\Local\Temp\cchmqEOm.s:31812  .debug_str:000000000002a433 .LASF5802
C:\Users\SOLDER~1\AppData\Local\Temp\cchmqEOm.s:1676   .text.RCC_MCOConfig:0000000000000000 .LFB43
C:\Users\SOLDER~1\AppData\Local\Temp\cchmqEOm.s:1702   .text.RCC_MCOConfig:0000000000000020 .LFE43
C:\Users\SOLDER~1\AppData\Local\Temp\cchmqEOm.s:29622  .debug_str:00000000000216a0 .LASF5803
C:\Users\SOLDER~1\AppData\Local\Temp\cchmqEOm.s:23134  .debug_str:000000000000706c .LASF5804
C:\Users\SOLDER~1\AppData\Local\Temp\cchmqEOm.s:1626   .text.RCC_ClockSecuritySystemCmd:0000000000000000 .LFB42
C:\Users\SOLDER~1\AppData\Local\Temp\cchmqEOm.s:1669   .text.RCC_ClockSecuritySystemCmd:0000000000000040 .LFE42
C:\Users\SOLDER~1\AppData\Local\Temp\cchmqEOm.s:25522  .debug_str:0000000000010c63 .LASF5805
C:\Users\SOLDER~1\AppData\Local\Temp\cchmqEOm.s:1576   .text.RCC_BackupResetCmd:0000000000000000 .LFB41
C:\Users\SOLDER~1\AppData\Local\Temp\cchmqEOm.s:1619   .text.RCC_BackupResetCmd:000000000000003c .LFE41
C:\Users\SOLDER~1\AppData\Local\Temp\cchmqEOm.s:21440  .debug_str:00000000000002b8 .LASF5806
C:\Users\SOLDER~1\AppData\Local\Temp\cchmqEOm.s:1523   .text.RCC_APB1PeriphResetCmd:0000000000000000 .LFB40
C:\Users\SOLDER~1\AppData\Local\Temp\cchmqEOm.s:1569   .text.RCC_APB1PeriphResetCmd:0000000000000046 .LFE40
C:\Users\SOLDER~1\AppData\Local\Temp\cchmqEOm.s:27748  .debug_str:0000000000019d56 .LASF5807
C:\Users\SOLDER~1\AppData\Local\Temp\cchmqEOm.s:29238  .debug_str:000000000001fe03 .LASF5808
C:\Users\SOLDER~1\AppData\Local\Temp\cchmqEOm.s:1470   .text.RCC_APB2PeriphResetCmd:0000000000000000 .LFB39
C:\Users\SOLDER~1\AppData\Local\Temp\cchmqEOm.s:1516   .text.RCC_APB2PeriphResetCmd:0000000000000046 .LFE39
C:\Users\SOLDER~1\AppData\Local\Temp\cchmqEOm.s:23036  .debug_str:0000000000006a20 .LASF5809
C:\Users\SOLDER~1\AppData\Local\Temp\cchmqEOm.s:30606  .debug_str:000000000002561d .LASF5810
C:\Users\SOLDER~1\AppData\Local\Temp\cchmqEOm.s:1417   .text.RCC_APB1PeriphClockCmd:0000000000000000 .LFB38
C:\Users\SOLDER~1\AppData\Local\Temp\cchmqEOm.s:1463   .text.RCC_APB1PeriphClockCmd:0000000000000046 .LFE38
C:\Users\SOLDER~1\AppData\Local\Temp\cchmqEOm.s:28478  .debug_str:000000000001cc31 .LASF5811
C:\Users\SOLDER~1\AppData\Local\Temp\cchmqEOm.s:1364   .text.RCC_APB2PeriphClockCmd:0000000000000000 .LFB37
C:\Users\SOLDER~1\AppData\Local\Temp\cchmqEOm.s:1410   .text.RCC_APB2PeriphClockCmd:0000000000000046 .LFE37
C:\Users\SOLDER~1\AppData\Local\Temp\cchmqEOm.s:30302  .debug_str:00000000000241f6 .LASF5812
C:\Users\SOLDER~1\AppData\Local\Temp\cchmqEOm.s:1311   .text.RCC_AHBPeriphClockCmd:0000000000000000 .LFB36
C:\Users\SOLDER~1\AppData\Local\Temp\cchmqEOm.s:1357   .text.RCC_AHBPeriphClockCmd:0000000000000046 .LFE36
C:\Users\SOLDER~1\AppData\Local\Temp\cchmqEOm.s:28214  .debug_str:000000000001bb11 .LASF5813
C:\Users\SOLDER~1\AppData\Local\Temp\cchmqEOm.s:29678  .debug_str:0000000000021a51 .LASF5814
C:\Users\SOLDER~1\AppData\Local\Temp\cchmqEOm.s:1027   .text.RCC_GetClocksFreq:0000000000000000 .LFB35
C:\Users\SOLDER~1\AppData\Local\Temp\cchmqEOm.s:1304   .text.RCC_GetClocksFreq:0000000000000254 .LFE35
C:\Users\SOLDER~1\AppData\Local\Temp\cchmqEOm.s:32480  .debug_str:000000000002cfc6 .LASF5815
C:\Users\SOLDER~1\AppData\Local\Temp\cchmqEOm.s:21778  .debug_str:000000000000190a .LASF5816
C:\Users\SOLDER~1\AppData\Local\Temp\cchmqEOm.s:24588  .debug_str:000000000000cf85 .LASF5817
C:\Users\SOLDER~1\AppData\Local\Temp\cchmqEOm.s:21524  .debug_str:00000000000008b6 .LASF5818
C:\Users\SOLDER~1\AppData\Local\Temp\cchmqEOm.s:32294  .debug_str:000000000002c372 .LASF5819
C:\Users\SOLDER~1\AppData\Local\Temp\cchmqEOm.s:977    .text.RCC_RTCCLKCmd:0000000000000000 .LFB34
C:\Users\SOLDER~1\AppData\Local\Temp\cchmqEOm.s:1020   .text.RCC_RTCCLKCmd:000000000000003c .LFE34
C:\Users\SOLDER~1\AppData\Local\Temp\cchmqEOm.s:25320  .debug_str:000000000000ff66 .LASF5820
GAS LISTING C:\Users\SOLDER~1\AppData\Local\Temp\cchmqEOm.s 			page 72


C:\Users\SOLDER~1\AppData\Local\Temp\cchmqEOm.s:943    .text.RCC_RTCCLKConfig:0000000000000000 .LFB33
C:\Users\SOLDER~1\AppData\Local\Temp\cchmqEOm.s:970    .text.RCC_RTCCLKConfig:0000000000000024 .LFE33
C:\Users\SOLDER~1\AppData\Local\Temp\cchmqEOm.s:31694  .debug_str:0000000000029c9e .LASF5821
C:\Users\SOLDER~1\AppData\Local\Temp\cchmqEOm.s:22240  .debug_str:000000000000372c .LASF5822
C:\Users\SOLDER~1\AppData\Local\Temp\cchmqEOm.s:896    .text.RCC_LSICmd:0000000000000000 .LFB32
C:\Users\SOLDER~1\AppData\Local\Temp\cchmqEOm.s:936    .text.RCC_LSICmd:0000000000000038 .LFE32
C:\Users\SOLDER~1\AppData\Local\Temp\cchmqEOm.s:24736  .debug_str:000000000000d964 .LASF5823
C:\Users\SOLDER~1\AppData\Local\Temp\cchmqEOm.s:832    .text.RCC_LSEConfig:0000000000000000 .LFB31
C:\Users\SOLDER~1\AppData\Local\Temp\cchmqEOm.s:889    .text.RCC_LSEConfig:000000000000005a .LFE31
C:\Users\SOLDER~1\AppData\Local\Temp\cchmqEOm.s:31526  .debug_str:00000000000291ea .LASF5824
C:\Users\SOLDER~1\AppData\Local\Temp\cchmqEOm.s:32762  .debug_str:000000000002e1d2 .LASF5825
C:\Users\SOLDER~1\AppData\Local\Temp\cchmqEOm.s:783    .text.RCC_ADCCLKConfig:0000000000000000 .LFB30
C:\Users\SOLDER~1\AppData\Local\Temp\cchmqEOm.s:825    .text.RCC_ADCCLKConfig:0000000000000046 .LFE30
C:\Users\SOLDER~1\AppData\Local\Temp\cchmqEOm.s:25106  .debug_str:000000000000f122 .LASF5826
C:\Users\SOLDER~1\AppData\Local\Temp\cchmqEOm.s:22056  .debug_str:0000000000002b79 .LASF5827
C:\Users\SOLDER~1\AppData\Local\Temp\cchmqEOm.s:28136  .debug_str:000000000001b61e .LASF5828
C:\Users\SOLDER~1\AppData\Local\Temp\cchmqEOm.s:737    .text.RCC_USBCLKConfig:0000000000000000 .LFB29
C:\Users\SOLDER~1\AppData\Local\Temp\cchmqEOm.s:776    .text.RCC_USBCLKConfig:000000000000003c .LFE29
C:\Users\SOLDER~1\AppData\Local\Temp\cchmqEOm.s:22888  .debug_str:0000000000005fe2 .LASF5829
C:\Users\SOLDER~1\AppData\Local\Temp\cchmqEOm.s:30760  .debug_str:0000000000025fe8 .LASF5830
C:\Users\SOLDER~1\AppData\Local\Temp\cchmqEOm.s:674    .text.RCC_ITConfig:0000000000000000 .LFB28
C:\Users\SOLDER~1\AppData\Local\Temp\cchmqEOm.s:730    .text.RCC_ITConfig:0000000000000064 .LFE28
C:\Users\SOLDER~1\AppData\Local\Temp\cchmqEOm.s:25936  .debug_str:00000000000126a0 .LASF5831
C:\Users\SOLDER~1\AppData\Local\Temp\cchmqEOm.s:623    .text.RCC_PCLK2Config:0000000000000000 .LFB27
C:\Users\SOLDER~1\AppData\Local\Temp\cchmqEOm.s:667    .text.RCC_PCLK2Config:000000000000004a .LFE27
C:\Users\SOLDER~1\AppData\Local\Temp\cchmqEOm.s:24956  .debug_str:000000000000e7b3 .LASF5832
C:\Users\SOLDER~1\AppData\Local\Temp\cchmqEOm.s:26958  .debug_str:00000000000169e5 .LASF5833
C:\Users\SOLDER~1\AppData\Local\Temp\cchmqEOm.s:576    .text.RCC_PCLK1Config:0000000000000000 .LFB26
C:\Users\SOLDER~1\AppData\Local\Temp\cchmqEOm.s:616    .text.RCC_PCLK1Config:0000000000000044 .LFE26
C:\Users\SOLDER~1\AppData\Local\Temp\cchmqEOm.s:21736  .debug_str:00000000000016a8 .LASF5834
C:\Users\SOLDER~1\AppData\Local\Temp\cchmqEOm.s:529    .text.RCC_HCLKConfig:0000000000000000 .LFB25
C:\Users\SOLDER~1\AppData\Local\Temp\cchmqEOm.s:569    .text.RCC_HCLKConfig:0000000000000044 .LFE25
C:\Users\SOLDER~1\AppData\Local\Temp\cchmqEOm.s:24522  .debug_str:000000000000cb33 .LASF5835
C:\Users\SOLDER~1\AppData\Local\Temp\cchmqEOm.s:31806  .debug_str:000000000002a3cc .LASF5854
C:\Users\SOLDER~1\AppData\Local\Temp\cchmqEOm.s:497    .text.RCC_GetSYSCLKSource:0000000000000000 .LFB24
C:\Users\SOLDER~1\AppData\Local\Temp\cchmqEOm.s:522    .text.RCC_GetSYSCLKSource:000000000000001e .LFE24
C:\Users\SOLDER~1\AppData\Local\Temp\cchmqEOm.s:22530  .debug_str:00000000000049a5 .LASF5836
C:\Users\SOLDER~1\AppData\Local\Temp\cchmqEOm.s:450    .text.RCC_SYSCLKConfig:0000000000000000 .LFB23
C:\Users\SOLDER~1\AppData\Local\Temp\cchmqEOm.s:490    .text.RCC_SYSCLKConfig:0000000000000042 .LFE23
C:\Users\SOLDER~1\AppData\Local\Temp\cchmqEOm.s:29018  .debug_str:000000000001ef86 .LASF5837
C:\Users\SOLDER~1\AppData\Local\Temp\cchmqEOm.s:26094  .debug_str:00000000000130bf .LASF5838
C:\Users\SOLDER~1\AppData\Local\Temp\cchmqEOm.s:400    .text.RCC_PLLCmd:0000000000000000 .LFB22
C:\Users\SOLDER~1\AppData\Local\Temp\cchmqEOm.s:443    .text.RCC_PLLCmd:0000000000000040 .LFE22
C:\Users\SOLDER~1\AppData\Local\Temp\cchmqEOm.s:31206  .debug_str:0000000000027d89 .LASF5839
C:\Users\SOLDER~1\AppData\Local\Temp\cchmqEOm.s:347    .text.RCC_PLLConfig:0000000000000000 .LFB21
C:\Users\SOLDER~1\AppData\Local\Temp\cchmqEOm.s:393    .text.RCC_PLLConfig:0000000000000052 .LFE21
C:\Users\SOLDER~1\AppData\Local\Temp\cchmqEOm.s:25986  .debug_str:00000000000129dc .LASF5840
C:\Users\SOLDER~1\AppData\Local\Temp\cchmqEOm.s:32498  .debug_str:000000000002d0d6 .LASF5841
C:\Users\SOLDER~1\AppData\Local\Temp\cchmqEOm.s:30988  .debug_str:0000000000026f5b .LASF5842
C:\Users\SOLDER~1\AppData\Local\Temp\cchmqEOm.s:300    .text.RCC_HSICmd:0000000000000000 .LFB20
C:\Users\SOLDER~1\AppData\Local\Temp\cchmqEOm.s:340    .text.RCC_HSICmd:0000000000000038 .LFE20
C:\Users\SOLDER~1\AppData\Local\Temp\cchmqEOm.s:32922  .debug_str:000000000002ebf4 .LASF5843
C:\Users\SOLDER~1\AppData\Local\Temp\cchmqEOm.s:249    .text.RCC_AdjustHSICalibrationValue:0000000000000000 .LFB19
C:\Users\SOLDER~1\AppData\Local\Temp\cchmqEOm.s:293    .text.RCC_AdjustHSICalibrationValue:0000000000000048 .LFE19
C:\Users\SOLDER~1\AppData\Local\Temp\cchmqEOm.s:25104  .debug_str:000000000000f10e .LASF5844
C:\Users\SOLDER~1\AppData\Local\Temp\cchmqEOm.s:26636  .debug_str:0000000000015559 .LASF5845
C:\Users\SOLDER~1\AppData\Local\Temp\cchmqEOm.s:180    .text.RCC_WaitForHSEStartUp:0000000000000000 .LFB18
GAS LISTING C:\Users\SOLDER~1\AppData\Local\Temp\cchmqEOm.s 			page 73


C:\Users\SOLDER~1\AppData\Local\Temp\cchmqEOm.s:242    .text.RCC_WaitForHSEStartUp:0000000000000068 .LFE18
C:\Users\SOLDER~1\AppData\Local\Temp\cchmqEOm.s:32678  .debug_str:000000000002dc86 .LASF5846
C:\Users\SOLDER~1\AppData\Local\Temp\cchmqEOm.s:24508  .debug_str:000000000000ca58 .LASF5847
C:\Users\SOLDER~1\AppData\Local\Temp\cchmqEOm.s:22492  .debug_str:0000000000004744 .LASF5848
C:\Users\SOLDER~1\AppData\Local\Temp\cchmqEOm.s:22632  .debug_str:0000000000004fb1 .LASF5849
C:\Users\SOLDER~1\AppData\Local\Temp\cchmqEOm.s:104    .text.RCC_HSEConfig:0000000000000000 .LFB17
C:\Users\SOLDER~1\AppData\Local\Temp\cchmqEOm.s:173    .text.RCC_HSEConfig:0000000000000076 .LFE17
C:\Users\SOLDER~1\AppData\Local\Temp\cchmqEOm.s:27904  .debug_str:000000000001a724 .LASF5850
C:\Users\SOLDER~1\AppData\Local\Temp\cchmqEOm.s:31754  .debug_str:000000000002a050 .LASF5852
C:\Users\SOLDER~1\AppData\Local\Temp\cchmqEOm.s:31     .text.RCC_DeInit:0000000000000000 .LFB16
C:\Users\SOLDER~1\AppData\Local\Temp\cchmqEOm.s:97     .text.RCC_DeInit:0000000000000076 .LFE16
C:\Users\SOLDER~1\AppData\Local\Temp\cchmqEOm.s:2010   .debug_info:0000000000000000 .Ldebug_info0
C:\Users\SOLDER~1\AppData\Local\Temp\cchmqEOm.s:4121   .debug_macro:0000000000000000 .Ldebug_macro2
C:\Users\SOLDER~1\AppData\Local\Temp\cchmqEOm.s:25174  .debug_str:000000000000f573 .LASF318
C:\Users\SOLDER~1\AppData\Local\Temp\cchmqEOm.s:5074   .debug_macro:0000000000000000 .Ldebug_macro3
C:\Users\SOLDER~1\AppData\Local\Temp\cchmqEOm.s:27852  .debug_str:000000000001a3e0 .LASF336
C:\Users\SOLDER~1\AppData\Local\Temp\cchmqEOm.s:22452  .debug_str:00000000000044b9 .LASF337
C:\Users\SOLDER~1\AppData\Local\Temp\cchmqEOm.s:29860  .debug_str:0000000000022599 .LASF338
C:\Users\SOLDER~1\AppData\Local\Temp\cchmqEOm.s:5130   .debug_macro:0000000000000000 .Ldebug_macro4
C:\Users\SOLDER~1\AppData\Local\Temp\cchmqEOm.s:5150   .debug_macro:0000000000000000 .Ldebug_macro5
C:\Users\SOLDER~1\AppData\Local\Temp\cchmqEOm.s:5215   .debug_macro:0000000000000000 .Ldebug_macro6
C:\Users\SOLDER~1\AppData\Local\Temp\cchmqEOm.s:5256   .debug_macro:0000000000000000 .Ldebug_macro7
C:\Users\SOLDER~1\AppData\Local\Temp\cchmqEOm.s:5381   .debug_macro:0000000000000000 .Ldebug_macro8
C:\Users\SOLDER~1\AppData\Local\Temp\cchmqEOm.s:5437   .debug_macro:0000000000000000 .Ldebug_macro9
C:\Users\SOLDER~1\AppData\Local\Temp\cchmqEOm.s:27140  .debug_str:000000000001754e .LASF493
C:\Users\SOLDER~1\AppData\Local\Temp\cchmqEOm.s:5649   .debug_macro:0000000000000000 .Ldebug_macro10
C:\Users\SOLDER~1\AppData\Local\Temp\cchmqEOm.s:5687   .debug_macro:0000000000000000 .Ldebug_macro11
C:\Users\SOLDER~1\AppData\Local\Temp\cchmqEOm.s:22042  .debug_str:0000000000002a9e .LASF4592
C:\Users\SOLDER~1\AppData\Local\Temp\cchmqEOm.s:30662  .debug_str:00000000000259a2 .LASF4593
C:\Users\SOLDER~1\AppData\Local\Temp\cchmqEOm.s:17953  .debug_macro:0000000000000000 .Ldebug_macro12
C:\Users\SOLDER~1\AppData\Local\Temp\cchmqEOm.s:18234  .debug_macro:0000000000000000 .Ldebug_macro13
C:\Users\SOLDER~1\AppData\Local\Temp\cchmqEOm.s:18386  .debug_macro:0000000000000000 .Ldebug_macro14
C:\Users\SOLDER~1\AppData\Local\Temp\cchmqEOm.s:26980  .debug_str:0000000000016b2d .LASF4851
C:\Users\SOLDER~1\AppData\Local\Temp\cchmqEOm.s:18739  .debug_macro:0000000000000000 .Ldebug_macro15
C:\Users\SOLDER~1\AppData\Local\Temp\cchmqEOm.s:18804  .debug_macro:0000000000000000 .Ldebug_macro16
C:\Users\SOLDER~1\AppData\Local\Temp\cchmqEOm.s:19073  .debug_macro:0000000000000000 .Ldebug_macro17
C:\Users\SOLDER~1\AppData\Local\Temp\cchmqEOm.s:19144  .debug_macro:0000000000000000 .Ldebug_macro18
C:\Users\SOLDER~1\AppData\Local\Temp\cchmqEOm.s:19308  .debug_macro:0000000000000000 .Ldebug_macro19
C:\Users\SOLDER~1\AppData\Local\Temp\cchmqEOm.s:19580  .debug_macro:0000000000000000 .Ldebug_macro20
C:\Users\SOLDER~1\AppData\Local\Temp\cchmqEOm.s:19831  .debug_macro:0000000000000000 .Ldebug_macro21
C:\Users\SOLDER~1\AppData\Local\Temp\cchmqEOm.s:19872  .debug_macro:0000000000000000 .Ldebug_macro22
C:\Users\SOLDER~1\AppData\Local\Temp\cchmqEOm.s:19925  .debug_macro:0000000000000000 .Ldebug_macro23
C:\Users\SOLDER~1\AppData\Local\Temp\cchmqEOm.s:19957  .debug_macro:0000000000000000 .Ldebug_macro24
C:\Users\SOLDER~1\AppData\Local\Temp\cchmqEOm.s:20187  .debug_macro:0000000000000000 .Ldebug_macro25
C:\Users\SOLDER~1\AppData\Local\Temp\cchmqEOm.s:20783  .debug_macro:0000000000000000 .Ldebug_macro26
C:\Users\SOLDER~1\AppData\Local\Temp\cchmqEOm.s:20953  .debug_macro:0000000000000000 .Ldebug_macro27
C:\Users\SOLDER~1\AppData\Local\Temp\cchmqEOm.s:20973  .debug_macro:0000000000000000 .Ldebug_macro28
C:\Users\SOLDER~1\AppData\Local\Temp\cchmqEOm.s:20996  .debug_macro:0000000000000000 .Ldebug_macro29
C:\Users\SOLDER~1\AppData\Local\Temp\cchmqEOm.s:28978  .debug_str:000000000001eccf .LASF5712
C:\Users\SOLDER~1\AppData\Local\Temp\cchmqEOm.s:32822  .debug_str:000000000002e5c2 .LASF5713
C:\Users\SOLDER~1\AppData\Local\Temp\cchmqEOm.s:23014  .debug_str:000000000000688e .LASF5714
C:\Users\SOLDER~1\AppData\Local\Temp\cchmqEOm.s:32906  .debug_str:000000000002ead6 .LASF5715
C:\Users\SOLDER~1\AppData\Local\Temp\cchmqEOm.s:27512  .debug_str:0000000000018dd7 .LASF5716
C:\Users\SOLDER~1\AppData\Local\Temp\cchmqEOm.s:28360  .debug_str:000000000001c464 .LASF5717
C:\Users\SOLDER~1\AppData\Local\Temp\cchmqEOm.s:24564  .debug_str:000000000000ce01 .LASF5718
C:\Users\SOLDER~1\AppData\Local\Temp\cchmqEOm.s:31134  .debug_str:00000000000278e7 .LASF5719
C:\Users\SOLDER~1\AppData\Local\Temp\cchmqEOm.s:28686  .debug_str:000000000001da3d .LASF5720
GAS LISTING C:\Users\SOLDER~1\AppData\Local\Temp\cchmqEOm.s 			page 74


C:\Users\SOLDER~1\AppData\Local\Temp\cchmqEOm.s:28222  .debug_str:000000000001bb8e .LASF5721
C:\Users\SOLDER~1\AppData\Local\Temp\cchmqEOm.s:27526  .debug_str:0000000000018ebd .LASF5722
C:\Users\SOLDER~1\AppData\Local\Temp\cchmqEOm.s:22358  .debug_str:0000000000003ec3 .LASF5723
C:\Users\SOLDER~1\AppData\Local\Temp\cchmqEOm.s:22870  .debug_str:0000000000005ebd .LASF5724
C:\Users\SOLDER~1\AppData\Local\Temp\cchmqEOm.s:28576  .debug_str:000000000001d2b2 .LASF5725
C:\Users\SOLDER~1\AppData\Local\Temp\cchmqEOm.s:22854  .debug_str:0000000000005db9 .LASF5726
C:\Users\SOLDER~1\AppData\Local\Temp\cchmqEOm.s:27944  .debug_str:000000000001a9a5 .LASF5727
C:\Users\SOLDER~1\AppData\Local\Temp\cchmqEOm.s:22284  .debug_str:00000000000039f6 .LASF5728
C:\Users\SOLDER~1\AppData\Local\Temp\cchmqEOm.s:27540  .debug_str:0000000000018fdb .LASF5729
C:\Users\SOLDER~1\AppData\Local\Temp\cchmqEOm.s:21532  .debug_str:0000000000000954 .LASF5730
C:\Users\SOLDER~1\AppData\Local\Temp\cchmqEOm.s:29250  .debug_str:000000000001fecd .LASF5731
C:\Users\SOLDER~1\AppData\Local\Temp\cchmqEOm.s:22246  .debug_str:0000000000003764 .LASF5732
C:\Users\SOLDER~1\AppData\Local\Temp\cchmqEOm.s:24206  .debug_str:000000000000b64c .LASF5733
C:\Users\SOLDER~1\AppData\Local\Temp\cchmqEOm.s:26552  .debug_str:0000000000014ff2 .LASF5734
C:\Users\SOLDER~1\AppData\Local\Temp\cchmqEOm.s:21864  .debug_str:0000000000001ec9 .LASF5735
C:\Users\SOLDER~1\AppData\Local\Temp\cchmqEOm.s:24168  .debug_str:000000000000b3b3 .LASF5736
C:\Users\SOLDER~1\AppData\Local\Temp\cchmqEOm.s:31294  .debug_str:00000000000282d7 .LASF5737
C:\Users\SOLDER~1\AppData\Local\Temp\cchmqEOm.s:26704  .debug_str:00000000000159aa .LASF5738
C:\Users\SOLDER~1\AppData\Local\Temp\cchmqEOm.s:29340  .debug_str:000000000002045b .LASF5739
C:\Users\SOLDER~1\AppData\Local\Temp\cchmqEOm.s:30424  .debug_str:0000000000024a06 .LASF5740
C:\Users\SOLDER~1\AppData\Local\Temp\cchmqEOm.s:29400  .debug_str:000000000002081c .LASF5741
C:\Users\SOLDER~1\AppData\Local\Temp\cchmqEOm.s:22074  .debug_str:0000000000002c50 .LASF5742
C:\Users\SOLDER~1\AppData\Local\Temp\cchmqEOm.s:28326  .debug_str:000000000001c1e8 .LASF5743
C:\Users\SOLDER~1\AppData\Local\Temp\cchmqEOm.s:22834  .debug_str:0000000000005c89 .LASF2
C:\Users\SOLDER~1\AppData\Local\Temp\cchmqEOm.s:31822  .debug_str:000000000002a4b6 .LASF3
C:\Users\SOLDER~1\AppData\Local\Temp\cchmqEOm.s:32194  .debug_str:000000000002bd1c .LASF4
C:\Users\SOLDER~1\AppData\Local\Temp\cchmqEOm.s:25592  .debug_str:00000000000110ad .LASF5
C:\Users\SOLDER~1\AppData\Local\Temp\cchmqEOm.s:26956  .debug_str:00000000000169d3 .LASF6
C:\Users\SOLDER~1\AppData\Local\Temp\cchmqEOm.s:32624  .debug_str:000000000002d946 .LASF7
C:\Users\SOLDER~1\AppData\Local\Temp\cchmqEOm.s:25652  .debug_str:0000000000011480 .LASF8
C:\Users\SOLDER~1\AppData\Local\Temp\cchmqEOm.s:26392  .debug_str:000000000001455f .LASF9
C:\Users\SOLDER~1\AppData\Local\Temp\cchmqEOm.s:23578  .debug_str:0000000000008d1a .LASF10
C:\Users\SOLDER~1\AppData\Local\Temp\cchmqEOm.s:31532  .debug_str:0000000000029236 .LASF11
C:\Users\SOLDER~1\AppData\Local\Temp\cchmqEOm.s:28046  .debug_str:000000000001b046 .LASF12
C:\Users\SOLDER~1\AppData\Local\Temp\cchmqEOm.s:27898  .debug_str:000000000001a6cd .LASF13
C:\Users\SOLDER~1\AppData\Local\Temp\cchmqEOm.s:30470  .debug_str:0000000000024d2d .LASF14
C:\Users\SOLDER~1\AppData\Local\Temp\cchmqEOm.s:27918  .debug_str:000000000001a7eb .LASF15
C:\Users\SOLDER~1\AppData\Local\Temp\cchmqEOm.s:24072  .debug_str:000000000000ad7b .LASF16
C:\Users\SOLDER~1\AppData\Local\Temp\cchmqEOm.s:29352  .debug_str:0000000000020522 .LASF17
C:\Users\SOLDER~1\AppData\Local\Temp\cchmqEOm.s:30082  .debug_str:00000000000233ab .LASF18
C:\Users\SOLDER~1\AppData\Local\Temp\cchmqEOm.s:24110  .debug_str:000000000000b006 .LASF19
C:\Users\SOLDER~1\AppData\Local\Temp\cchmqEOm.s:22990  .debug_str:00000000000066c3 .LASF20
C:\Users\SOLDER~1\AppData\Local\Temp\cchmqEOm.s:25124  .debug_str:000000000000f23b .LASF21
C:\Users\SOLDER~1\AppData\Local\Temp\cchmqEOm.s:30936  .debug_str:0000000000026bde .LASF22
C:\Users\SOLDER~1\AppData\Local\Temp\cchmqEOm.s:27728  .debug_str:0000000000019c6b .LASF23
C:\Users\SOLDER~1\AppData\Local\Temp\cchmqEOm.s:27726  .debug_str:0000000000019c51 .LASF24
C:\Users\SOLDER~1\AppData\Local\Temp\cchmqEOm.s:30390  .debug_str:00000000000247d4 .LASF25
C:\Users\SOLDER~1\AppData\Local\Temp\cchmqEOm.s:31052  .debug_str:0000000000027395 .LASF26
C:\Users\SOLDER~1\AppData\Local\Temp\cchmqEOm.s:22342  .debug_str:0000000000003dc0 .LASF27
C:\Users\SOLDER~1\AppData\Local\Temp\cchmqEOm.s:27104  .debug_str:00000000000172ec .LASF28
C:\Users\SOLDER~1\AppData\Local\Temp\cchmqEOm.s:30284  .debug_str:00000000000240c6 .LASF29
C:\Users\SOLDER~1\AppData\Local\Temp\cchmqEOm.s:30092  .debug_str:0000000000023453 .LASF30
C:\Users\SOLDER~1\AppData\Local\Temp\cchmqEOm.s:22776  .debug_str:0000000000005875 .LASF31
C:\Users\SOLDER~1\AppData\Local\Temp\cchmqEOm.s:29124  .debug_str:000000000001f622 .LASF32
C:\Users\SOLDER~1\AppData\Local\Temp\cchmqEOm.s:21732  .debug_str:0000000000001671 .LASF33
C:\Users\SOLDER~1\AppData\Local\Temp\cchmqEOm.s:25822  .debug_str:0000000000011f71 .LASF34
C:\Users\SOLDER~1\AppData\Local\Temp\cchmqEOm.s:26764  .debug_str:0000000000015da7 .LASF35
GAS LISTING C:\Users\SOLDER~1\AppData\Local\Temp\cchmqEOm.s 			page 75


C:\Users\SOLDER~1\AppData\Local\Temp\cchmqEOm.s:24876  .debug_str:000000000000e225 .LASF36
C:\Users\SOLDER~1\AppData\Local\Temp\cchmqEOm.s:23944  .debug_str:000000000000a50b .LASF37
C:\Users\SOLDER~1\AppData\Local\Temp\cchmqEOm.s:23792  .debug_str:0000000000009b27 .LASF38
C:\Users\SOLDER~1\AppData\Local\Temp\cchmqEOm.s:25150  .debug_str:000000000000f3e8 .LASF39
C:\Users\SOLDER~1\AppData\Local\Temp\cchmqEOm.s:28152  .debug_str:000000000001b725 .LASF40
C:\Users\SOLDER~1\AppData\Local\Temp\cchmqEOm.s:23320  .debug_str:0000000000007c13 .LASF41
C:\Users\SOLDER~1\AppData\Local\Temp\cchmqEOm.s:25530  .debug_str:0000000000010cc4 .LASF42
C:\Users\SOLDER~1\AppData\Local\Temp\cchmqEOm.s:31362  .debug_str:0000000000028774 .LASF43
C:\Users\SOLDER~1\AppData\Local\Temp\cchmqEOm.s:22100  .debug_str:0000000000002e2a .LASF44
C:\Users\SOLDER~1\AppData\Local\Temp\cchmqEOm.s:25218  .debug_str:000000000000f83c .LASF45
C:\Users\SOLDER~1\AppData\Local\Temp\cchmqEOm.s:26128  .debug_str:00000000000132dd .LASF46
C:\Users\SOLDER~1\AppData\Local\Temp\cchmqEOm.s:30668  .debug_str:0000000000025a0c .LASF47
C:\Users\SOLDER~1\AppData\Local\Temp\cchmqEOm.s:28142  .debug_str:000000000001b67a .LASF48
C:\Users\SOLDER~1\AppData\Local\Temp\cchmqEOm.s:25980  .debug_str:0000000000012980 .LASF49
C:\Users\SOLDER~1\AppData\Local\Temp\cchmqEOm.s:22600  .debug_str:0000000000004de6 .LASF50
C:\Users\SOLDER~1\AppData\Local\Temp\cchmqEOm.s:26130  .debug_str:00000000000132f6 .LASF51
C:\Users\SOLDER~1\AppData\Local\Temp\cchmqEOm.s:30846  .debug_str:00000000000265c3 .LASF52
C:\Users\SOLDER~1\AppData\Local\Temp\cchmqEOm.s:24874  .debug_str:000000000000e205 .LASF53
C:\Users\SOLDER~1\AppData\Local\Temp\cchmqEOm.s:21942  .debug_str:00000000000023fa .LASF54
C:\Users\SOLDER~1\AppData\Local\Temp\cchmqEOm.s:21424  .debug_str:00000000000001b0 .LASF55
C:\Users\SOLDER~1\AppData\Local\Temp\cchmqEOm.s:32234  .debug_str:000000000002bfa7 .LASF56
C:\Users\SOLDER~1\AppData\Local\Temp\cchmqEOm.s:30260  .debug_str:0000000000023f69 .LASF57
C:\Users\SOLDER~1\AppData\Local\Temp\cchmqEOm.s:21512  .debug_str:00000000000007e6 .LASF58
C:\Users\SOLDER~1\AppData\Local\Temp\cchmqEOm.s:25494  .debug_str:0000000000010a59 .LASF59
C:\Users\SOLDER~1\AppData\Local\Temp\cchmqEOm.s:23406  .debug_str:00000000000081ed .LASF60
C:\Users\SOLDER~1\AppData\Local\Temp\cchmqEOm.s:29914  .debug_str:00000000000228c3 .LASF61
C:\Users\SOLDER~1\AppData\Local\Temp\cchmqEOm.s:21682  .debug_str:0000000000001325 .LASF62
C:\Users\SOLDER~1\AppData\Local\Temp\cchmqEOm.s:24756  .debug_str:000000000000da93 .LASF63
C:\Users\SOLDER~1\AppData\Local\Temp\cchmqEOm.s:27694  .debug_str:0000000000019a0b .LASF64
C:\Users\SOLDER~1\AppData\Local\Temp\cchmqEOm.s:28514  .debug_str:000000000001ce75 .LASF65
C:\Users\SOLDER~1\AppData\Local\Temp\cchmqEOm.s:22180  .debug_str:0000000000003354 .LASF66
C:\Users\SOLDER~1\AppData\Local\Temp\cchmqEOm.s:24864  .debug_str:000000000000e156 .LASF67
C:\Users\SOLDER~1\AppData\Local\Temp\cchmqEOm.s:24590  .debug_str:000000000000cf8f .LASF68
C:\Users\SOLDER~1\AppData\Local\Temp\cchmqEOm.s:28132  .debug_str:000000000001b5f2 .LASF69
C:\Users\SOLDER~1\AppData\Local\Temp\cchmqEOm.s:26760  .debug_str:0000000000015d60 .LASF70
C:\Users\SOLDER~1\AppData\Local\Temp\cchmqEOm.s:31996  .debug_str:000000000002b01a .LASF71
C:\Users\SOLDER~1\AppData\Local\Temp\cchmqEOm.s:32466  .debug_str:000000000002cee9 .LASF72
C:\Users\SOLDER~1\AppData\Local\Temp\cchmqEOm.s:25938  .debug_str:00000000000126b0 .LASF73
C:\Users\SOLDER~1\AppData\Local\Temp\cchmqEOm.s:25034  .debug_str:000000000000ecd0 .LASF74
C:\Users\SOLDER~1\AppData\Local\Temp\cchmqEOm.s:22618  .debug_str:0000000000004efd .LASF75
C:\Users\SOLDER~1\AppData\Local\Temp\cchmqEOm.s:25970  .debug_str:00000000000128e6 .LASF76
C:\Users\SOLDER~1\AppData\Local\Temp\cchmqEOm.s:24502  .debug_str:000000000000c9f4 .LASF77
C:\Users\SOLDER~1\AppData\Local\Temp\cchmqEOm.s:26218  .debug_str:00000000000138f0 .LASF78
C:\Users\SOLDER~1\AppData\Local\Temp\cchmqEOm.s:26766  .debug_str:0000000000015dd5 .LASF79
C:\Users\SOLDER~1\AppData\Local\Temp\cchmqEOm.s:26158  .debug_str:00000000000134e7 .LASF80
C:\Users\SOLDER~1\AppData\Local\Temp\cchmqEOm.s:30754  .debug_str:0000000000025f9f .LASF81
C:\Users\SOLDER~1\AppData\Local\Temp\cchmqEOm.s:28646  .debug_str:000000000001d777 .LASF82
C:\Users\SOLDER~1\AppData\Local\Temp\cchmqEOm.s:29086  .debug_str:000000000001f3dd .LASF83
C:\Users\SOLDER~1\AppData\Local\Temp\cchmqEOm.s:31982  .debug_str:000000000002af2b .LASF84
C:\Users\SOLDER~1\AppData\Local\Temp\cchmqEOm.s:23888  .debug_str:000000000000a158 .LASF85
C:\Users\SOLDER~1\AppData\Local\Temp\cchmqEOm.s:32124  .debug_str:000000000002b8b5 .LASF86
C:\Users\SOLDER~1\AppData\Local\Temp\cchmqEOm.s:25972  .debug_str:000000000001290d .LASF87
C:\Users\SOLDER~1\AppData\Local\Temp\cchmqEOm.s:28158  .debug_str:000000000001b785 .LASF88
C:\Users\SOLDER~1\AppData\Local\Temp\cchmqEOm.s:23136  .debug_str:0000000000007087 .LASF89
C:\Users\SOLDER~1\AppData\Local\Temp\cchmqEOm.s:32460  .debug_str:000000000002ce87 .LASF90
C:\Users\SOLDER~1\AppData\Local\Temp\cchmqEOm.s:32150  .debug_str:000000000002ba28 .LASF91
C:\Users\SOLDER~1\AppData\Local\Temp\cchmqEOm.s:29522  .debug_str:0000000000020ff4 .LASF92
GAS LISTING C:\Users\SOLDER~1\AppData\Local\Temp\cchmqEOm.s 			page 76


C:\Users\SOLDER~1\AppData\Local\Temp\cchmqEOm.s:28232  .debug_str:000000000001bc35 .LASF93
C:\Users\SOLDER~1\AppData\Local\Temp\cchmqEOm.s:29546  .debug_str:000000000002118f .LASF94
C:\Users\SOLDER~1\AppData\Local\Temp\cchmqEOm.s:32370  .debug_str:000000000002c8a1 .LASF95
C:\Users\SOLDER~1\AppData\Local\Temp\cchmqEOm.s:31158  .debug_str:0000000000027a7d .LASF96
C:\Users\SOLDER~1\AppData\Local\Temp\cchmqEOm.s:23978  .debug_str:000000000000a74a .LASF97
C:\Users\SOLDER~1\AppData\Local\Temp\cchmqEOm.s:30384  .debug_str:0000000000024759 .LASF98
C:\Users\SOLDER~1\AppData\Local\Temp\cchmqEOm.s:26456  .debug_str:000000000001498a .LASF99
C:\Users\SOLDER~1\AppData\Local\Temp\cchmqEOm.s:26440  .debug_str:0000000000014883 .LASF100
C:\Users\SOLDER~1\AppData\Local\Temp\cchmqEOm.s:32662  .debug_str:000000000002dba7 .LASF101
C:\Users\SOLDER~1\AppData\Local\Temp\cchmqEOm.s:26064  .debug_str:0000000000012ecb .LASF102
C:\Users\SOLDER~1\AppData\Local\Temp\cchmqEOm.s:30104  .debug_str:0000000000023504 .LASF103
C:\Users\SOLDER~1\AppData\Local\Temp\cchmqEOm.s:28712  .debug_str:000000000001dbf0 .LASF104
C:\Users\SOLDER~1\AppData\Local\Temp\cchmqEOm.s:25548  .debug_str:0000000000010dd7 .LASF105
C:\Users\SOLDER~1\AppData\Local\Temp\cchmqEOm.s:23232  .debug_str:0000000000007697 .LASF106
C:\Users\SOLDER~1\AppData\Local\Temp\cchmqEOm.s:25816  .debug_str:0000000000011efc .LASF107
C:\Users\SOLDER~1\AppData\Local\Temp\cchmqEOm.s:24782  .debug_str:000000000000dc1f .LASF108
C:\Users\SOLDER~1\AppData\Local\Temp\cchmqEOm.s:25990  .debug_str:0000000000012a1e .LASF109
C:\Users\SOLDER~1\AppData\Local\Temp\cchmqEOm.s:22656  .debug_str:0000000000005106 .LASF110
C:\Users\SOLDER~1\AppData\Local\Temp\cchmqEOm.s:25810  .debug_str:0000000000011ea6 .LASF111
C:\Users\SOLDER~1\AppData\Local\Temp\cchmqEOm.s:24778  .debug_str:000000000000dbea .LASF112
C:\Users\SOLDER~1\AppData\Local\Temp\cchmqEOm.s:26276  .debug_str:0000000000013d45 .LASF113
C:\Users\SOLDER~1\AppData\Local\Temp\cchmqEOm.s:25176  .debug_str:000000000000f585 .LASF114
C:\Users\SOLDER~1\AppData\Local\Temp\cchmqEOm.s:27782  .debug_str:0000000000019f78 .LASF115
C:\Users\SOLDER~1\AppData\Local\Temp\cchmqEOm.s:22274  .debug_str:0000000000003956 .LASF116
C:\Users\SOLDER~1\AppData\Local\Temp\cchmqEOm.s:23972  .debug_str:000000000000a6c3 .LASF117
C:\Users\SOLDER~1\AppData\Local\Temp\cchmqEOm.s:25346  .debug_str:0000000000010119 .LASF118
C:\Users\SOLDER~1\AppData\Local\Temp\cchmqEOm.s:32032  .debug_str:000000000002b27f .LASF119
C:\Users\SOLDER~1\AppData\Local\Temp\cchmqEOm.s:27296  .debug_str:0000000000017fa7 .LASF120
C:\Users\SOLDER~1\AppData\Local\Temp\cchmqEOm.s:23734  .debug_str:000000000000976c .LASF121
C:\Users\SOLDER~1\AppData\Local\Temp\cchmqEOm.s:28496  .debug_str:000000000001cd41 .LASF122
C:\Users\SOLDER~1\AppData\Local\Temp\cchmqEOm.s:32798  .debug_str:000000000002e448 .LASF123
C:\Users\SOLDER~1\AppData\Local\Temp\cchmqEOm.s:25090  .debug_str:000000000000f019 .LASF124
C:\Users\SOLDER~1\AppData\Local\Temp\cchmqEOm.s:30740  .debug_str:0000000000025ea0 .LASF125
C:\Users\SOLDER~1\AppData\Local\Temp\cchmqEOm.s:24558  .debug_str:000000000000cda6 .LASF126
C:\Users\SOLDER~1\AppData\Local\Temp\cchmqEOm.s:24656  .debug_str:000000000000d3fe .LASF127
C:\Users\SOLDER~1\AppData\Local\Temp\cchmqEOm.s:22282  .debug_str:00000000000039d9 .LASF128
C:\Users\SOLDER~1\AppData\Local\Temp\cchmqEOm.s:22570  .debug_str:0000000000004c0d .LASF129
C:\Users\SOLDER~1\AppData\Local\Temp\cchmqEOm.s:31722  .debug_str:0000000000029e44 .LASF130
C:\Users\SOLDER~1\AppData\Local\Temp\cchmqEOm.s:25994  .debug_str:0000000000012a36 .LASF131
C:\Users\SOLDER~1\AppData\Local\Temp\cchmqEOm.s:28908  .debug_str:000000000001e841 .LASF132
C:\Users\SOLDER~1\AppData\Local\Temp\cchmqEOm.s:23802  .debug_str:0000000000009baa .LASF133
C:\Users\SOLDER~1\AppData\Local\Temp\cchmqEOm.s:31266  .debug_str:00000000000280f1 .LASF134
C:\Users\SOLDER~1\AppData\Local\Temp\cchmqEOm.s:31592  .debug_str:00000000000295c1 .LASF135
C:\Users\SOLDER~1\AppData\Local\Temp\cchmqEOm.s:31396  .debug_str:000000000002898e .LASF136
C:\Users\SOLDER~1\AppData\Local\Temp\cchmqEOm.s:25066  .debug_str:000000000000ee84 .LASF137
C:\Users\SOLDER~1\AppData\Local\Temp\cchmqEOm.s:30656  .debug_str:0000000000025940 .LASF138
C:\Users\SOLDER~1\AppData\Local\Temp\cchmqEOm.s:22556  .debug_str:0000000000004b00 .LASF139
C:\Users\SOLDER~1\AppData\Local\Temp\cchmqEOm.s:23450  .debug_str:00000000000084d6 .LASF140
C:\Users\SOLDER~1\AppData\Local\Temp\cchmqEOm.s:32458  .debug_str:000000000002ce73 .LASF141
C:\Users\SOLDER~1\AppData\Local\Temp\cchmqEOm.s:28390  .debug_str:000000000001c647 .LASF142
C:\Users\SOLDER~1\AppData\Local\Temp\cchmqEOm.s:31928  .debug_str:000000000002abf2 .LASF143
C:\Users\SOLDER~1\AppData\Local\Temp\cchmqEOm.s:31028  .debug_str:0000000000027212 .LASF144
C:\Users\SOLDER~1\AppData\Local\Temp\cchmqEOm.s:28592  .debug_str:000000000001d3f7 .LASF145
C:\Users\SOLDER~1\AppData\Local\Temp\cchmqEOm.s:23928  .debug_str:000000000000a3f1 .LASF146
C:\Users\SOLDER~1\AppData\Local\Temp\cchmqEOm.s:26212  .debug_str:0000000000013896 .LASF147
C:\Users\SOLDER~1\AppData\Local\Temp\cchmqEOm.s:27746  .debug_str:0000000000019d46 .LASF148
C:\Users\SOLDER~1\AppData\Local\Temp\cchmqEOm.s:26774  .debug_str:0000000000015e2d .LASF149
GAS LISTING C:\Users\SOLDER~1\AppData\Local\Temp\cchmqEOm.s 			page 77


C:\Users\SOLDER~1\AppData\Local\Temp\cchmqEOm.s:31600  .debug_str:000000000002963c .LASF150
C:\Users\SOLDER~1\AppData\Local\Temp\cchmqEOm.s:22616  .debug_str:0000000000004ee6 .LASF151
C:\Users\SOLDER~1\AppData\Local\Temp\cchmqEOm.s:25214  .debug_str:000000000000f7fe .LASF152
C:\Users\SOLDER~1\AppData\Local\Temp\cchmqEOm.s:27732  .debug_str:0000000000019c9b .LASF153
C:\Users\SOLDER~1\AppData\Local\Temp\cchmqEOm.s:21502  .debug_str:0000000000000754 .LASF154
C:\Users\SOLDER~1\AppData\Local\Temp\cchmqEOm.s:30094  .debug_str:000000000002346d .LASF155
C:\Users\SOLDER~1\AppData\Local\Temp\cchmqEOm.s:26266  .debug_str:0000000000013c65 .LASF156
C:\Users\SOLDER~1\AppData\Local\Temp\cchmqEOm.s:31030  .debug_str:000000000002722a .LASF157
C:\Users\SOLDER~1\AppData\Local\Temp\cchmqEOm.s:28800  .debug_str:000000000001e111 .LASF158
C:\Users\SOLDER~1\AppData\Local\Temp\cchmqEOm.s:30966  .debug_str:0000000000026dd9 .LASF159
C:\Users\SOLDER~1\AppData\Local\Temp\cchmqEOm.s:31646  .debug_str:0000000000029942 .LASF160
C:\Users\SOLDER~1\AppData\Local\Temp\cchmqEOm.s:28942  .debug_str:000000000001ea4d .LASF161
C:\Users\SOLDER~1\AppData\Local\Temp\cchmqEOm.s:24480  .debug_str:000000000000c87f .LASF162
C:\Users\SOLDER~1\AppData\Local\Temp\cchmqEOm.s:23554  .debug_str:0000000000008b84 .LASF163
C:\Users\SOLDER~1\AppData\Local\Temp\cchmqEOm.s:26406  .debug_str:0000000000014638 .LASF164
C:\Users\SOLDER~1\AppData\Local\Temp\cchmqEOm.s:28436  .debug_str:000000000001c965 .LASF165
C:\Users\SOLDER~1\AppData\Local\Temp\cchmqEOm.s:29906  .debug_str:0000000000022866 .LASF166
C:\Users\SOLDER~1\AppData\Local\Temp\cchmqEOm.s:31524  .debug_str:00000000000291d2 .LASF167
C:\Users\SOLDER~1\AppData\Local\Temp\cchmqEOm.s:30646  .debug_str:0000000000025886 .LASF168
C:\Users\SOLDER~1\AppData\Local\Temp\cchmqEOm.s:32352  .debug_str:000000000002c773 .LASF169
C:\Users\SOLDER~1\AppData\Local\Temp\cchmqEOm.s:23310  .debug_str:0000000000007b63 .LASF170
C:\Users\SOLDER~1\AppData\Local\Temp\cchmqEOm.s:32024  .debug_str:000000000002b1ff .LASF171
C:\Users\SOLDER~1\AppData\Local\Temp\cchmqEOm.s:23696  .debug_str:00000000000094d1 .LASF172
C:\Users\SOLDER~1\AppData\Local\Temp\cchmqEOm.s:31746  .debug_str:0000000000029f8e .LASF173
C:\Users\SOLDER~1\AppData\Local\Temp\cchmqEOm.s:27528  .debug_str:0000000000018ee8 .LASF174
C:\Users\SOLDER~1\AppData\Local\Temp\cchmqEOm.s:25844  .debug_str:00000000000120cb .LASF175
C:\Users\SOLDER~1\AppData\Local\Temp\cchmqEOm.s:27144  .debug_str:0000000000017583 .LASF176
C:\Users\SOLDER~1\AppData\Local\Temp\cchmqEOm.s:28722  .debug_str:000000000001dc84 .LASF177
C:\Users\SOLDER~1\AppData\Local\Temp\cchmqEOm.s:23922  .debug_str:000000000000a3ac .LASF178
C:\Users\SOLDER~1\AppData\Local\Temp\cchmqEOm.s:21426  .debug_str:00000000000001ce .LASF179
C:\Users\SOLDER~1\AppData\Local\Temp\cchmqEOm.s:27856  .debug_str:000000000001a40e .LASF180
C:\Users\SOLDER~1\AppData\Local\Temp\cchmqEOm.s:22960  .debug_str:00000000000064dd .LASF181
C:\Users\SOLDER~1\AppData\Local\Temp\cchmqEOm.s:23778  .debug_str:0000000000009a60 .LASF182
C:\Users\SOLDER~1\AppData\Local\Temp\cchmqEOm.s:22420  .debug_str:00000000000042c1 .LASF183
C:\Users\SOLDER~1\AppData\Local\Temp\cchmqEOm.s:27912  .debug_str:000000000001a78c .LASF184
C:\Users\SOLDER~1\AppData\Local\Temp\cchmqEOm.s:26408  .debug_str:000000000001464f .LASF185
C:\Users\SOLDER~1\AppData\Local\Temp\cchmqEOm.s:21936  .debug_str:000000000000238a .LASF186
C:\Users\SOLDER~1\AppData\Local\Temp\cchmqEOm.s:32660  .debug_str:000000000002db94 .LASF187
C:\Users\SOLDER~1\AppData\Local\Temp\cchmqEOm.s:21716  .debug_str:000000000000157c .LASF188
C:\Users\SOLDER~1\AppData\Local\Temp\cchmqEOm.s:26384  .debug_str:00000000000144c5 .LASF189
C:\Users\SOLDER~1\AppData\Local\Temp\cchmqEOm.s:26846  .debug_str:00000000000162d1 .LASF190
C:\Users\SOLDER~1\AppData\Local\Temp\cchmqEOm.s:31854  .debug_str:000000000002a6e9 .LASF191
C:\Users\SOLDER~1\AppData\Local\Temp\cchmqEOm.s:24816  .debug_str:000000000000de35 .LASF192
C:\Users\SOLDER~1\AppData\Local\Temp\cchmqEOm.s:32324  .debug_str:000000000002c55c .LASF193
C:\Users\SOLDER~1\AppData\Local\Temp\cchmqEOm.s:26350  .debug_str:0000000000014255 .LASF194
C:\Users\SOLDER~1\AppData\Local\Temp\cchmqEOm.s:25110  .debug_str:000000000000f157 .LASF195
C:\Users\SOLDER~1\AppData\Local\Temp\cchmqEOm.s:24124  .debug_str:000000000000b0f6 .LASF196
C:\Users\SOLDER~1\AppData\Local\Temp\cchmqEOm.s:29000  .debug_str:000000000001ee3b .LASF197
C:\Users\SOLDER~1\AppData\Local\Temp\cchmqEOm.s:31942  .debug_str:000000000002ace5 .LASF198
C:\Users\SOLDER~1\AppData\Local\Temp\cchmqEOm.s:26642  .debug_str:00000000000155b7 .LASF199
C:\Users\SOLDER~1\AppData\Local\Temp\cchmqEOm.s:29202  .debug_str:000000000001fb7b .LASF200
C:\Users\SOLDER~1\AppData\Local\Temp\cchmqEOm.s:21726  .debug_str:000000000000161e .LASF201
C:\Users\SOLDER~1\AppData\Local\Temp\cchmqEOm.s:32898  .debug_str:000000000002ea65 .LASF202
C:\Users\SOLDER~1\AppData\Local\Temp\cchmqEOm.s:26616  .debug_str:00000000000153f4 .LASF203
C:\Users\SOLDER~1\AppData\Local\Temp\cchmqEOm.s:29398  .debug_str:0000000000020804 .LASF204
C:\Users\SOLDER~1\AppData\Local\Temp\cchmqEOm.s:27932  .debug_str:000000000001a8ce .LASF205
C:\Users\SOLDER~1\AppData\Local\Temp\cchmqEOm.s:23008  .debug_str:0000000000006801 .LASF206
GAS LISTING C:\Users\SOLDER~1\AppData\Local\Temp\cchmqEOm.s 			page 78


C:\Users\SOLDER~1\AppData\Local\Temp\cchmqEOm.s:26628  .debug_str:00000000000154bb .LASF207
C:\Users\SOLDER~1\AppData\Local\Temp\cchmqEOm.s:28642  .debug_str:000000000001d710 .LASF208
C:\Users\SOLDER~1\AppData\Local\Temp\cchmqEOm.s:29638  .debug_str:00000000000217a5 .LASF209
C:\Users\SOLDER~1\AppData\Local\Temp\cchmqEOm.s:25438  .debug_str:00000000000106f8 .LASF210
C:\Users\SOLDER~1\AppData\Local\Temp\cchmqEOm.s:31032  .debug_str:0000000000027266 .LASF211
C:\Users\SOLDER~1\AppData\Local\Temp\cchmqEOm.s:30832  .debug_str:00000000000264b0 .LASF212
C:\Users\SOLDER~1\AppData\Local\Temp\cchmqEOm.s:23254  .debug_str:0000000000007802 .LASF213
C:\Users\SOLDER~1\AppData\Local\Temp\cchmqEOm.s:30348  .debug_str:0000000000024507 .LASF214
C:\Users\SOLDER~1\AppData\Local\Temp\cchmqEOm.s:26936  .debug_str:00000000000168c8 .LASF215
C:\Users\SOLDER~1\AppData\Local\Temp\cchmqEOm.s:23220  .debug_str:00000000000075dd .LASF216
C:\Users\SOLDER~1\AppData\Local\Temp\cchmqEOm.s:23638  .debug_str:00000000000090f9 .LASF217
C:\Users\SOLDER~1\AppData\Local\Temp\cchmqEOm.s:30904  .debug_str:00000000000269da .LASF218
C:\Users\SOLDER~1\AppData\Local\Temp\cchmqEOm.s:29838  .debug_str:0000000000022430 .LASF219
C:\Users\SOLDER~1\AppData\Local\Temp\cchmqEOm.s:22032  .debug_str:0000000000002a06 .LASF220
C:\Users\SOLDER~1\AppData\Local\Temp\cchmqEOm.s:23772  .debug_str:00000000000099bd .LASF221
C:\Users\SOLDER~1\AppData\Local\Temp\cchmqEOm.s:29586  .debug_str:0000000000021437 .LASF222
C:\Users\SOLDER~1\AppData\Local\Temp\cchmqEOm.s:29432  .debug_str:0000000000020a28 .LASF223
C:\Users\SOLDER~1\AppData\Local\Temp\cchmqEOm.s:23684  .debug_str:000000000000940a .LASF224
C:\Users\SOLDER~1\AppData\Local\Temp\cchmqEOm.s:23018  .debug_str:00000000000068dd .LASF225
C:\Users\SOLDER~1\AppData\Local\Temp\cchmqEOm.s:28906  .debug_str:000000000001e82a .LASF226
C:\Users\SOLDER~1\AppData\Local\Temp\cchmqEOm.s:27038  .debug_str:0000000000016ef2 .LASF227
C:\Users\SOLDER~1\AppData\Local\Temp\cchmqEOm.s:25354  .debug_str:0000000000010189 .LASF228
C:\Users\SOLDER~1\AppData\Local\Temp\cchmqEOm.s:29430  .debug_str:0000000000020a0f .LASF229
C:\Users\SOLDER~1\AppData\Local\Temp\cchmqEOm.s:30478  .debug_str:0000000000024dae .LASF230
C:\Users\SOLDER~1\AppData\Local\Temp\cchmqEOm.s:25378  .debug_str:000000000001030a .LASF231
C:\Users\SOLDER~1\AppData\Local\Temp\cchmqEOm.s:31262  .debug_str:00000000000280b5 .LASF232
C:\Users\SOLDER~1\AppData\Local\Temp\cchmqEOm.s:30542  .debug_str:0000000000025201 .LASF233
C:\Users\SOLDER~1\AppData\Local\Temp\cchmqEOm.s:32300  .debug_str:000000000002c3be .LASF234
C:\Users\SOLDER~1\AppData\Local\Temp\cchmqEOm.s:23422  .debug_str:0000000000008302 .LASF235
C:\Users\SOLDER~1\AppData\Local\Temp\cchmqEOm.s:25432  .debug_str:0000000000010691 .LASF236
C:\Users\SOLDER~1\AppData\Local\Temp\cchmqEOm.s:24882  .debug_str:000000000000e295 .LASF237
C:\Users\SOLDER~1\AppData\Local\Temp\cchmqEOm.s:30706  .debug_str:0000000000025c44 .LASF238
C:\Users\SOLDER~1\AppData\Local\Temp\cchmqEOm.s:26250  .debug_str:0000000000013b2b .LASF239
C:\Users\SOLDER~1\AppData\Local\Temp\cchmqEOm.s:29444  .debug_str:0000000000020af5 .LASF240
C:\Users\SOLDER~1\AppData\Local\Temp\cchmqEOm.s:22120  .debug_str:0000000000002f71 .LASF241
C:\Users\SOLDER~1\AppData\Local\Temp\cchmqEOm.s:27240  .debug_str:0000000000017bf4 .LASF242
C:\Users\SOLDER~1\AppData\Local\Temp\cchmqEOm.s:28736  .debug_str:000000000001dd4f .LASF243
C:\Users\SOLDER~1\AppData\Local\Temp\cchmqEOm.s:28096  .debug_str:000000000001b3cd .LASF244
C:\Users\SOLDER~1\AppData\Local\Temp\cchmqEOm.s:32628  .debug_str:000000000002d97b .LASF245
C:\Users\SOLDER~1\AppData\Local\Temp\cchmqEOm.s:28670  .debug_str:000000000001d934 .LASF246
C:\Users\SOLDER~1\AppData\Local\Temp\cchmqEOm.s:30400  .debug_str:000000000002487c .LASF247
C:\Users\SOLDER~1\AppData\Local\Temp\cchmqEOm.s:24906  .debug_str:000000000000e480 .LASF248
C:\Users\SOLDER~1\AppData\Local\Temp\cchmqEOm.s:31120  .debug_str:00000000000277f5 .LASF249
C:\Users\SOLDER~1\AppData\Local\Temp\cchmqEOm.s:24754  .debug_str:000000000000da7b .LASF250
C:\Users\SOLDER~1\AppData\Local\Temp\cchmqEOm.s:28004  .debug_str:000000000001adac .LASF251
C:\Users\SOLDER~1\AppData\Local\Temp\cchmqEOm.s:25468  .debug_str:00000000000108bc .LASF252
C:\Users\SOLDER~1\AppData\Local\Temp\cchmqEOm.s:21650  .debug_str:000000000000110c .LASF253
C:\Users\SOLDER~1\AppData\Local\Temp\cchmqEOm.s:24200  .debug_str:000000000000b5d2 .LASF254
C:\Users\SOLDER~1\AppData\Local\Temp\cchmqEOm.s:21592  .debug_str:0000000000000d87 .LASF255
C:\Users\SOLDER~1\AppData\Local\Temp\cchmqEOm.s:24310  .debug_str:000000000000bcf3 .LASF256
C:\Users\SOLDER~1\AppData\Local\Temp\cchmqEOm.s:23776  .debug_str:0000000000009a1b .LASF257
C:\Users\SOLDER~1\AppData\Local\Temp\cchmqEOm.s:32840  .debug_str:000000000002e6d7 .LASF258
C:\Users\SOLDER~1\AppData\Local\Temp\cchmqEOm.s:28618  .debug_str:000000000001d586 .LASF259
C:\Users\SOLDER~1\AppData\Local\Temp\cchmqEOm.s:27398  .debug_str:0000000000018690 .LASF260
C:\Users\SOLDER~1\AppData\Local\Temp\cchmqEOm.s:32510  .debug_str:000000000002d190 .LASF261
C:\Users\SOLDER~1\AppData\Local\Temp\cchmqEOm.s:24934  .debug_str:000000000000e672 .LASF262
C:\Users\SOLDER~1\AppData\Local\Temp\cchmqEOm.s:24256  .debug_str:000000000000b96e .LASF263
GAS LISTING C:\Users\SOLDER~1\AppData\Local\Temp\cchmqEOm.s 			page 79


C:\Users\SOLDER~1\AppData\Local\Temp\cchmqEOm.s:32114  .debug_str:000000000002b804 .LASF264
C:\Users\SOLDER~1\AppData\Local\Temp\cchmqEOm.s:24574  .debug_str:000000000000ceaf .LASF265
C:\Users\SOLDER~1\AppData\Local\Temp\cchmqEOm.s:25564  .debug_str:0000000000010ecd .LASF266
C:\Users\SOLDER~1\AppData\Local\Temp\cchmqEOm.s:27434  .debug_str:00000000000188cc .LASF267
C:\Users\SOLDER~1\AppData\Local\Temp\cchmqEOm.s:31374  .debug_str:000000000002884c .LASF268
C:\Users\SOLDER~1\AppData\Local\Temp\cchmqEOm.s:24390  .debug_str:000000000000c21e .LASF269
C:\Users\SOLDER~1\AppData\Local\Temp\cchmqEOm.s:23110  .debug_str:0000000000006e7e .LASF270
C:\Users\SOLDER~1\AppData\Local\Temp\cchmqEOm.s:23288  .debug_str:00000000000079e7 .LASF271
C:\Users\SOLDER~1\AppData\Local\Temp\cchmqEOm.s:24628  .debug_str:000000000000d222 .LASF272
C:\Users\SOLDER~1\AppData\Local\Temp\cchmqEOm.s:24460  .debug_str:000000000000c70f .LASF273
C:\Users\SOLDER~1\AppData\Local\Temp\cchmqEOm.s:21738  .debug_str:00000000000016b7 .LASF274
C:\Users\SOLDER~1\AppData\Local\Temp\cchmqEOm.s:23102  .debug_str:0000000000006e0b .LASF275
C:\Users\SOLDER~1\AppData\Local\Temp\cchmqEOm.s:32050  .debug_str:000000000002b39b .LASF276
C:\Users\SOLDER~1\AppData\Local\Temp\cchmqEOm.s:29988  .debug_str:0000000000022d97 .LASF277
C:\Users\SOLDER~1\AppData\Local\Temp\cchmqEOm.s:30930  .debug_str:0000000000026b92 .LASF278
C:\Users\SOLDER~1\AppData\Local\Temp\cchmqEOm.s:23062  .debug_str:0000000000006b79 .LASF279
C:\Users\SOLDER~1\AppData\Local\Temp\cchmqEOm.s:22836  .debug_str:0000000000005c94 .LASF280
C:\Users\SOLDER~1\AppData\Local\Temp\cchmqEOm.s:22720  .debug_str:00000000000054f0 .LASF281
C:\Users\SOLDER~1\AppData\Local\Temp\cchmqEOm.s:27464  .debug_str:0000000000018ade .LASF282
C:\Users\SOLDER~1\AppData\Local\Temp\cchmqEOm.s:30900  .debug_str:0000000000026995 .LASF283
C:\Users\SOLDER~1\AppData\Local\Temp\cchmqEOm.s:31166  .debug_str:0000000000027af4 .LASF284
C:\Users\SOLDER~1\AppData\Local\Temp\cchmqEOm.s:32030  .debug_str:000000000002b261 .LASF285
C:\Users\SOLDER~1\AppData\Local\Temp\cchmqEOm.s:28680  .debug_str:000000000001d9d8 .LASF286
C:\Users\SOLDER~1\AppData\Local\Temp\cchmqEOm.s:32830  .debug_str:000000000002e636 .LASF287
C:\Users\SOLDER~1\AppData\Local\Temp\cchmqEOm.s:22810  .debug_str:0000000000005ad6 .LASF288
C:\Users\SOLDER~1\AppData\Local\Temp\cchmqEOm.s:26646  .debug_str:00000000000155ec .LASF289
C:\Users\SOLDER~1\AppData\Local\Temp\cchmqEOm.s:25518  .debug_str:0000000000010c20 .LASF290
C:\Users\SOLDER~1\AppData\Local\Temp\cchmqEOm.s:33078  .debug_str:000000000002f59d .LASF291
C:\Users\SOLDER~1\AppData\Local\Temp\cchmqEOm.s:31872  .debug_str:000000000002a844 .LASF292
C:\Users\SOLDER~1\AppData\Local\Temp\cchmqEOm.s:22642  .debug_str:0000000000005046 .LASF293
C:\Users\SOLDER~1\AppData\Local\Temp\cchmqEOm.s:21442  .debug_str:00000000000002cf .LASF294
C:\Users\SOLDER~1\AppData\Local\Temp\cchmqEOm.s:26696  .debug_str:000000000001592c .LASF295
C:\Users\SOLDER~1\AppData\Local\Temp\cchmqEOm.s:27548  .debug_str:0000000000019064 .LASF296
C:\Users\SOLDER~1\AppData\Local\Temp\cchmqEOm.s:24926  .debug_str:000000000000e5ec .LASF297
C:\Users\SOLDER~1\AppData\Local\Temp\cchmqEOm.s:25460  .debug_str:0000000000010849 .LASF298
C:\Users\SOLDER~1\AppData\Local\Temp\cchmqEOm.s:28260  .debug_str:000000000001bddb .LASF299
C:\Users\SOLDER~1\AppData\Local\Temp\cchmqEOm.s:26768  .debug_str:0000000000015dee .LASF300
C:\Users\SOLDER~1\AppData\Local\Temp\cchmqEOm.s:26192  .debug_str:0000000000013730 .LASF301
C:\Users\SOLDER~1\AppData\Local\Temp\cchmqEOm.s:21972  .debug_str:0000000000002600 .LASF302
C:\Users\SOLDER~1\AppData\Local\Temp\cchmqEOm.s:24580  .debug_str:000000000000ceff .LASF303
C:\Users\SOLDER~1\AppData\Local\Temp\cchmqEOm.s:30074  .debug_str:0000000000023328 .LASF304
C:\Users\SOLDER~1\AppData\Local\Temp\cchmqEOm.s:25482  .debug_str:000000000001098e .LASF305
C:\Users\SOLDER~1\AppData\Local\Temp\cchmqEOm.s:30920  .debug_str:0000000000026b01 .LASF306
C:\Users\SOLDER~1\AppData\Local\Temp\cchmqEOm.s:30514  .debug_str:0000000000025011 .LASF307
C:\Users\SOLDER~1\AppData\Local\Temp\cchmqEOm.s:28694  .debug_str:000000000001dacd .LASF308
C:\Users\SOLDER~1\AppData\Local\Temp\cchmqEOm.s:22426  .debug_str:0000000000004325 .LASF309
C:\Users\SOLDER~1\AppData\Local\Temp\cchmqEOm.s:29062  .debug_str:000000000001f24d .LASF310
C:\Users\SOLDER~1\AppData\Local\Temp\cchmqEOm.s:24700  .debug_str:000000000000d70b .LASF311
C:\Users\SOLDER~1\AppData\Local\Temp\cchmqEOm.s:26020  .debug_str:0000000000012bc4 .LASF312
C:\Users\SOLDER~1\AppData\Local\Temp\cchmqEOm.s:23846  .debug_str:0000000000009e85 .LASF313
C:\Users\SOLDER~1\AppData\Local\Temp\cchmqEOm.s:26450  .debug_str:0000000000014932 .LASF314
C:\Users\SOLDER~1\AppData\Local\Temp\cchmqEOm.s:23284  .debug_str:00000000000079a8 .LASF315
C:\Users\SOLDER~1\AppData\Local\Temp\cchmqEOm.s:28768  .debug_str:000000000001df24 .LASF316
C:\Users\SOLDER~1\AppData\Local\Temp\cchmqEOm.s:31258  .debug_str:0000000000028086 .LASF317
C:\Users\SOLDER~1\AppData\Local\Temp\cchmqEOm.s:30520  .debug_str:000000000002507e .LASF319
C:\Users\SOLDER~1\AppData\Local\Temp\cchmqEOm.s:25316  .debug_str:000000000000ff1d .LASF320
C:\Users\SOLDER~1\AppData\Local\Temp\cchmqEOm.s:26614  .debug_str:00000000000153cf .LASF321
GAS LISTING C:\Users\SOLDER~1\AppData\Local\Temp\cchmqEOm.s 			page 80


C:\Users\SOLDER~1\AppData\Local\Temp\cchmqEOm.s:29106  .debug_str:000000000001f4f6 .LASF322
C:\Users\SOLDER~1\AppData\Local\Temp\cchmqEOm.s:27906  .debug_str:000000000001a72c .LASF323
C:\Users\SOLDER~1\AppData\Local\Temp\cchmqEOm.s:24594  .debug_str:000000000000cfcb .LASF324
C:\Users\SOLDER~1\AppData\Local\Temp\cchmqEOm.s:22806  .debug_str:0000000000005a9d .LASF325
C:\Users\SOLDER~1\AppData\Local\Temp\cchmqEOm.s:21528  .debug_str:00000000000008dd .LASF326
C:\Users\SOLDER~1\AppData\Local\Temp\cchmqEOm.s:31876  .debug_str:000000000002a889 .LASF327
C:\Users\SOLDER~1\AppData\Local\Temp\cchmqEOm.s:24670  .debug_str:000000000000d4e7 .LASF328
C:\Users\SOLDER~1\AppData\Local\Temp\cchmqEOm.s:32752  .debug_str:000000000002e13d .LASF329
C:\Users\SOLDER~1\AppData\Local\Temp\cchmqEOm.s:22930  .debug_str:00000000000062e0 .LASF330
C:\Users\SOLDER~1\AppData\Local\Temp\cchmqEOm.s:22472  .debug_str:00000000000045e4 .LASF331
C:\Users\SOLDER~1\AppData\Local\Temp\cchmqEOm.s:21454  .debug_str:0000000000000390 .LASF332
C:\Users\SOLDER~1\AppData\Local\Temp\cchmqEOm.s:26870  .debug_str:000000000001646f .LASF333
C:\Users\SOLDER~1\AppData\Local\Temp\cchmqEOm.s:29536  .debug_str:00000000000210ea .LASF334
C:\Users\SOLDER~1\AppData\Local\Temp\cchmqEOm.s:27788  .debug_str:0000000000019fd4 .LASF335
C:\Users\SOLDER~1\AppData\Local\Temp\cchmqEOm.s:27648  .debug_str:00000000000196e9 .LASF339
C:\Users\SOLDER~1\AppData\Local\Temp\cchmqEOm.s:28194  .debug_str:000000000001b9d5 .LASF340
C:\Users\SOLDER~1\AppData\Local\Temp\cchmqEOm.s:24150  .debug_str:000000000000b28e .LASF341
C:\Users\SOLDER~1\AppData\Local\Temp\cchmqEOm.s:27406  .debug_str:0000000000018715 .LASF342
C:\Users\SOLDER~1\AppData\Local\Temp\cchmqEOm.s:27634  .debug_str:000000000001960f .LASF343
C:\Users\SOLDER~1\AppData\Local\Temp\cchmqEOm.s:22016  .debug_str:00000000000028bc .LASF344
C:\Users\SOLDER~1\AppData\Local\Temp\cchmqEOm.s:24194  .debug_str:000000000000b560 .LASF345
C:\Users\SOLDER~1\AppData\Local\Temp\cchmqEOm.s:22338  .debug_str:0000000000003d7d .LASF346
C:\Users\SOLDER~1\AppData\Local\Temp\cchmqEOm.s:32400  .debug_str:000000000002caa5 .LASF347
C:\Users\SOLDER~1\AppData\Local\Temp\cchmqEOm.s:26962  .debug_str:0000000000016a2d .LASF348
C:\Users\SOLDER~1\AppData\Local\Temp\cchmqEOm.s:29466  .debug_str:0000000000020c71 .LASF349
C:\Users\SOLDER~1\AppData\Local\Temp\cchmqEOm.s:23674  .debug_str:0000000000009385 .LASF350
C:\Users\SOLDER~1\AppData\Local\Temp\cchmqEOm.s:27474  .debug_str:0000000000018b75 .LASF351
C:\Users\SOLDER~1\AppData\Local\Temp\cchmqEOm.s:32742  .debug_str:000000000002e0a6 .LASF352
C:\Users\SOLDER~1\AppData\Local\Temp\cchmqEOm.s:24126  .debug_str:000000000000b10f .LASF353
C:\Users\SOLDER~1\AppData\Local\Temp\cchmqEOm.s:25232  .debug_str:000000000000f936 .LASF354
C:\Users\SOLDER~1\AppData\Local\Temp\cchmqEOm.s:28708  .debug_str:000000000001dbb9 .LASF355
C:\Users\SOLDER~1\AppData\Local\Temp\cchmqEOm.s:26868  .debug_str:000000000001645f .LASF356
C:\Users\SOLDER~1\AppData\Local\Temp\cchmqEOm.s:27014  .debug_str:0000000000016d73 .LASF357
C:\Users\SOLDER~1\AppData\Local\Temp\cchmqEOm.s:30118  .debug_str:00000000000235dc .LASF358
C:\Users\SOLDER~1\AppData\Local\Temp\cchmqEOm.s:26076  .debug_str:0000000000012f99 .LASF359
C:\Users\SOLDER~1\AppData\Local\Temp\cchmqEOm.s:27078  .debug_str:000000000001712b .LASF360
C:\Users\SOLDER~1\AppData\Local\Temp\cchmqEOm.s:30228  .debug_str:0000000000023d66 .LASF361
C:\Users\SOLDER~1\AppData\Local\Temp\cchmqEOm.s:23174  .debug_str:00000000000072ea .LASF362
C:\Users\SOLDER~1\AppData\Local\Temp\cchmqEOm.s:32004  .debug_str:000000000002b0ae .LASF363
C:\Users\SOLDER~1\AppData\Local\Temp\cchmqEOm.s:22688  .debug_str:0000000000005311 .LASF364
C:\Users\SOLDER~1\AppData\Local\Temp\cchmqEOm.s:27568  .debug_str:00000000000191c5 .LASF365
C:\Users\SOLDER~1\AppData\Local\Temp\cchmqEOm.s:23272  .debug_str:00000000000078ed .LASF366
C:\Users\SOLDER~1\AppData\Local\Temp\cchmqEOm.s:24216  .debug_str:000000000000b710 .LASF367
C:\Users\SOLDER~1\AppData\Local\Temp\cchmqEOm.s:21412  .debug_str:0000000000000117 .LASF368
C:\Users\SOLDER~1\AppData\Local\Temp\cchmqEOm.s:29418  .debug_str:0000000000020950 .LASF369
C:\Users\SOLDER~1\AppData\Local\Temp\cchmqEOm.s:24914  .debug_str:000000000000e513 .LASF370
C:\Users\SOLDER~1\AppData\Local\Temp\cchmqEOm.s:30426  .debug_str:0000000000024a30 .LASF371
C:\Users\SOLDER~1\AppData\Local\Temp\cchmqEOm.s:29348  .debug_str:00000000000204e4 .LASF372
C:\Users\SOLDER~1\AppData\Local\Temp\cchmqEOm.s:25676  .debug_str:00000000000115f1 .LASF373
C:\Users\SOLDER~1\AppData\Local\Temp\cchmqEOm.s:32890  .debug_str:000000000002e9e8 .LASF374
C:\Users\SOLDER~1\AppData\Local\Temp\cchmqEOm.s:32828  .debug_str:000000000002e630 .LASF375
C:\Users\SOLDER~1\AppData\Local\Temp\cchmqEOm.s:23460  .debug_str:0000000000008575 .LASF376
C:\Users\SOLDER~1\AppData\Local\Temp\cchmqEOm.s:31906  .debug_str:000000000002aa75 .LASF377
C:\Users\SOLDER~1\AppData\Local\Temp\cchmqEOm.s:26852  .debug_str:0000000000016359 .LASF378
C:\Users\SOLDER~1\AppData\Local\Temp\cchmqEOm.s:30688  .debug_str:0000000000025b38 .LASF379
C:\Users\SOLDER~1\AppData\Local\Temp\cchmqEOm.s:31706  .debug_str:0000000000029d54 .LASF380
C:\Users\SOLDER~1\AppData\Local\Temp\cchmqEOm.s:30154  .debug_str:0000000000023849 .LASF381
GAS LISTING C:\Users\SOLDER~1\AppData\Local\Temp\cchmqEOm.s 			page 81


C:\Users\SOLDER~1\AppData\Local\Temp\cchmqEOm.s:27054  .debug_str:0000000000016fda .LASF382
C:\Users\SOLDER~1\AppData\Local\Temp\cchmqEOm.s:31732  .debug_str:0000000000029ed2 .LASF383
C:\Users\SOLDER~1\AppData\Local\Temp\cchmqEOm.s:28424  .debug_str:000000000001c8a9 .LASF384
C:\Users\SOLDER~1\AppData\Local\Temp\cchmqEOm.s:25780  .debug_str:0000000000011cd2 .LASF385
C:\Users\SOLDER~1\AppData\Local\Temp\cchmqEOm.s:30274  .debug_str:000000000002403f .LASF386
C:\Users\SOLDER~1\AppData\Local\Temp\cchmqEOm.s:29260  .debug_str:000000000001ff81 .LASF387
C:\Users\SOLDER~1\AppData\Local\Temp\cchmqEOm.s:21772  .debug_str:00000000000018d3 .LASF388
C:\Users\SOLDER~1\AppData\Local\Temp\cchmqEOm.s:22442  .debug_str:000000000000440d .LASF389
C:\Users\SOLDER~1\AppData\Local\Temp\cchmqEOm.s:22862  .debug_str:0000000000005e4d .LASF390
C:\Users\SOLDER~1\AppData\Local\Temp\cchmqEOm.s:24052  .debug_str:000000000000ac5d .LASF391
C:\Users\SOLDER~1\AppData\Local\Temp\cchmqEOm.s:23528  .debug_str:00000000000089b3 .LASF392
C:\Users\SOLDER~1\AppData\Local\Temp\cchmqEOm.s:28950  .debug_str:000000000001eacb .LASF393
C:\Users\SOLDER~1\AppData\Local\Temp\cchmqEOm.s:29606  .debug_str:00000000000215a7 .LASF394
C:\Users\SOLDER~1\AppData\Local\Temp\cchmqEOm.s:29742  .debug_str:0000000000021e3d .LASF395
C:\Users\SOLDER~1\AppData\Local\Temp\cchmqEOm.s:23680  .debug_str:00000000000093db .LASF396
C:\Users\SOLDER~1\AppData\Local\Temp\cchmqEOm.s:23262  .debug_str:000000000000786c .LASF397
C:\Users\SOLDER~1\AppData\Local\Temp\cchmqEOm.s:28764  .debug_str:000000000001df00 .LASF398
C:\Users\SOLDER~1\AppData\Local\Temp\cchmqEOm.s:31424  .debug_str:0000000000028b77 .LASF399
C:\Users\SOLDER~1\AppData\Local\Temp\cchmqEOm.s:25992  .debug_str:0000000000012a2c .LASF400
C:\Users\SOLDER~1\AppData\Local\Temp\cchmqEOm.s:26752  .debug_str:0000000000015ce3 .LASF401
C:\Users\SOLDER~1\AppData\Local\Temp\cchmqEOm.s:24560  .debug_str:000000000000cdd1 .LASF402
C:\Users\SOLDER~1\AppData\Local\Temp\cchmqEOm.s:28452  .debug_str:000000000001ca6b .LASF403
C:\Users\SOLDER~1\AppData\Local\Temp\cchmqEOm.s:26970  .debug_str:0000000000016a9a .LASF404
C:\Users\SOLDER~1\AppData\Local\Temp\cchmqEOm.s:27424  .debug_str:0000000000018839 .LASF405
C:\Users\SOLDER~1\AppData\Local\Temp\cchmqEOm.s:23582  .debug_str:0000000000008d49 .LASF406
C:\Users\SOLDER~1\AppData\Local\Temp\cchmqEOm.s:32348  .debug_str:000000000002c73f .LASF407
C:\Users\SOLDER~1\AppData\Local\Temp\cchmqEOm.s:26298  .debug_str:0000000000013ee0 .LASF408
C:\Users\SOLDER~1\AppData\Local\Temp\cchmqEOm.s:28794  .debug_str:000000000001e0c1 .LASF409
C:\Users\SOLDER~1\AppData\Local\Temp\cchmqEOm.s:25144  .debug_str:000000000000f387 .LASF410
C:\Users\SOLDER~1\AppData\Local\Temp\cchmqEOm.s:29502  .debug_str:0000000000020eb6 .LASF411
C:\Users\SOLDER~1\AppData\Local\Temp\cchmqEOm.s:31488  .debug_str:0000000000028f83 .LASF412
C:\Users\SOLDER~1\AppData\Local\Temp\cchmqEOm.s:25848  .debug_str:000000000001212b .LASF413
C:\Users\SOLDER~1\AppData\Local\Temp\cchmqEOm.s:25838  .debug_str:000000000001207d .LASF414
C:\Users\SOLDER~1\AppData\Local\Temp\cchmqEOm.s:27850  .debug_str:000000000001a3cc .LASF415
C:\Users\SOLDER~1\AppData\Local\Temp\cchmqEOm.s:32930  .debug_str:000000000002ec83 .LASF416
C:\Users\SOLDER~1\AppData\Local\Temp\cchmqEOm.s:33070  .debug_str:000000000002f524 .LASF417
C:\Users\SOLDER~1\AppData\Local\Temp\cchmqEOm.s:23338  .debug_str:0000000000007d51 .LASF418
C:\Users\SOLDER~1\AppData\Local\Temp\cchmqEOm.s:24414  .debug_str:000000000000c3f1 .LASF419
C:\Users\SOLDER~1\AppData\Local\Temp\cchmqEOm.s:21954  .debug_str:00000000000024cd .LASF420
C:\Users\SOLDER~1\AppData\Local\Temp\cchmqEOm.s:29556  .debug_str:000000000002123d .LASF421
C:\Users\SOLDER~1\AppData\Local\Temp\cchmqEOm.s:30250  .debug_str:0000000000023ec6 .LASF422
C:\Users\SOLDER~1\AppData\Local\Temp\cchmqEOm.s:21886  .debug_str:0000000000002035 .LASF423
C:\Users\SOLDER~1\AppData\Local\Temp\cchmqEOm.s:26232  .debug_str:00000000000139e9 .LASF424
C:\Users\SOLDER~1\AppData\Local\Temp\cchmqEOm.s:29492  .debug_str:0000000000020e25 .LASF425
C:\Users\SOLDER~1\AppData\Local\Temp\cchmqEOm.s:25828  .debug_str:0000000000011fe8 .LASF426
C:\Users\SOLDER~1\AppData\Local\Temp\cchmqEOm.s:33052  .debug_str:000000000002f404 .LASF427
C:\Users\SOLDER~1\AppData\Local\Temp\cchmqEOm.s:28464  .debug_str:000000000001cb20 .LASF428
C:\Users\SOLDER~1\AppData\Local\Temp\cchmqEOm.s:22704  .debug_str:0000000000005408 .LASF429
C:\Users\SOLDER~1\AppData\Local\Temp\cchmqEOm.s:30630  .debug_str:000000000002579b .LASF430
C:\Users\SOLDER~1\AppData\Local\Temp\cchmqEOm.s:26166  .debug_str:0000000000013570 .LASF431
C:\Users\SOLDER~1\AppData\Local\Temp\cchmqEOm.s:30544  .debug_str:000000000002521f .LASF432
C:\Users\SOLDER~1\AppData\Local\Temp\cchmqEOm.s:22606  .debug_str:0000000000004e4e .LASF433
C:\Users\SOLDER~1\AppData\Local\Temp\cchmqEOm.s:25116  .debug_str:000000000000f1b9 .LASF434
C:\Users\SOLDER~1\AppData\Local\Temp\cchmqEOm.s:29384  .debug_str:000000000002072e .LASF435
C:\Users\SOLDER~1\AppData\Local\Temp\cchmqEOm.s:21576  .debug_str:0000000000000c78 .LASF436
C:\Users\SOLDER~1\AppData\Local\Temp\cchmqEOm.s:21744  .debug_str:0000000000001716 .LASF437
C:\Users\SOLDER~1\AppData\Local\Temp\cchmqEOm.s:26584  .debug_str:00000000000151f8 .LASF438
GAS LISTING C:\Users\SOLDER~1\AppData\Local\Temp\cchmqEOm.s 			page 82


C:\Users\SOLDER~1\AppData\Local\Temp\cchmqEOm.s:22690  .debug_str:0000000000005326 .LASF439
C:\Users\SOLDER~1\AppData\Local\Temp\cchmqEOm.s:25898  .debug_str:000000000001244e .LASF440
C:\Users\SOLDER~1\AppData\Local\Temp\cchmqEOm.s:31672  .debug_str:0000000000029b12 .LASF441
C:\Users\SOLDER~1\AppData\Local\Temp\cchmqEOm.s:24244  .debug_str:000000000000b8af .LASF442
C:\Users\SOLDER~1\AppData\Local\Temp\cchmqEOm.s:28512  .debug_str:000000000001ce59 .LASF443
C:\Users\SOLDER~1\AppData\Local\Temp\cchmqEOm.s:32220  .debug_str:000000000002beab .LASF444
C:\Users\SOLDER~1\AppData\Local\Temp\cchmqEOm.s:26032  .debug_str:0000000000012c9e .LASF445
C:\Users\SOLDER~1\AppData\Local\Temp\cchmqEOm.s:25446  .debug_str:000000000001076f .LASF446
C:\Users\SOLDER~1\AppData\Local\Temp\cchmqEOm.s:29280  .debug_str:00000000000200b6 .LASF447
C:\Users\SOLDER~1\AppData\Local\Temp\cchmqEOm.s:23580  .debug_str:0000000000008d2f .LASF448
C:\Users\SOLDER~1\AppData\Local\Temp\cchmqEOm.s:28868  .debug_str:000000000001e5c7 .LASF449
C:\Users\SOLDER~1\AppData\Local\Temp\cchmqEOm.s:25108  .debug_str:000000000000f12c .LASF450
C:\Users\SOLDER~1\AppData\Local\Temp\cchmqEOm.s:31644  .debug_str:000000000002991c .LASF451
C:\Users\SOLDER~1\AppData\Local\Temp\cchmqEOm.s:25754  .debug_str:0000000000011b00 .LASF452
C:\Users\SOLDER~1\AppData\Local\Temp\cchmqEOm.s:22138  .debug_str:00000000000030a5 .LASF453
C:\Users\SOLDER~1\AppData\Local\Temp\cchmqEOm.s:21722  .debug_str:00000000000015db .LASF454
C:\Users\SOLDER~1\AppData\Local\Temp\cchmqEOm.s:29998  .debug_str:0000000000022e20 .LASF455
C:\Users\SOLDER~1\AppData\Local\Temp\cchmqEOm.s:30898  .debug_str:000000000002696a .LASF456
C:\Users\SOLDER~1\AppData\Local\Temp\cchmqEOm.s:24624  .debug_str:000000000000d1d3 .LASF457
C:\Users\SOLDER~1\AppData\Local\Temp\cchmqEOm.s:24950  .debug_str:000000000000e768 .LASF458
C:\Users\SOLDER~1\AppData\Local\Temp\cchmqEOm.s:31546  .debug_str:0000000000029301 .LASF459
C:\Users\SOLDER~1\AppData\Local\Temp\cchmqEOm.s:32470  .debug_str:000000000002cf21 .LASF460
C:\Users\SOLDER~1\AppData\Local\Temp\cchmqEOm.s:21708  .debug_str:00000000000014e6 .LASF461
C:\Users\SOLDER~1\AppData\Local\Temp\cchmqEOm.s:24226  .debug_str:000000000000b799 .LASF462
C:\Users\SOLDER~1\AppData\Local\Temp\cchmqEOm.s:30858  .debug_str:000000000002668b .LASF463
C:\Users\SOLDER~1\AppData\Local\Temp\cchmqEOm.s:28192  .debug_str:000000000001b9af .LASF464
C:\Users\SOLDER~1\AppData\Local\Temp\cchmqEOm.s:31400  .debug_str:00000000000289cc .LASF465
C:\Users\SOLDER~1\AppData\Local\Temp\cchmqEOm.s:27348  .debug_str:0000000000018339 .LASF466
C:\Users\SOLDER~1\AppData\Local\Temp\cchmqEOm.s:29792  .debug_str:000000000002214f .LASF467
C:\Users\SOLDER~1\AppData\Local\Temp\cchmqEOm.s:28416  .debug_str:000000000001c819 .LASF468
C:\Users\SOLDER~1\AppData\Local\Temp\cchmqEOm.s:21812  .debug_str:0000000000001b5b .LASF469
C:\Users\SOLDER~1\AppData\Local\Temp\cchmqEOm.s:26778  .debug_str:0000000000015e6b .LASF470
C:\Users\SOLDER~1\AppData\Local\Temp\cchmqEOm.s:29364  .debug_str:00000000000205e4 .LASF471
C:\Users\SOLDER~1\AppData\Local\Temp\cchmqEOm.s:32732  .debug_str:000000000002e005 .LASF472
C:\Users\SOLDER~1\AppData\Local\Temp\cchmqEOm.s:32986  .debug_str:000000000002f01b .LASF473
C:\Users\SOLDER~1\AppData\Local\Temp\cchmqEOm.s:32832  .debug_str:000000000002e658 .LASF474
C:\Users\SOLDER~1\AppData\Local\Temp\cchmqEOm.s:30890  .debug_str:00000000000268c4 .LASF475
C:\Users\SOLDER~1\AppData\Local\Temp\cchmqEOm.s:23866  .debug_str:0000000000009fde .LASF476
C:\Users\SOLDER~1\AppData\Local\Temp\cchmqEOm.s:27972  .debug_str:000000000001ab70 .LASF477
C:\Users\SOLDER~1\AppData\Local\Temp\cchmqEOm.s:27030  .debug_str:0000000000016e7d .LASF478
C:\Users\SOLDER~1\AppData\Local\Temp\cchmqEOm.s:30998  .debug_str:0000000000026ff1 .LASF479
C:\Users\SOLDER~1\AppData\Local\Temp\cchmqEOm.s:21614  .debug_str:0000000000000ef3 .LASF480
C:\Users\SOLDER~1\AppData\Local\Temp\cchmqEOm.s:29806  .debug_str:000000000002223c .LASF481
C:\Users\SOLDER~1\AppData\Local\Temp\cchmqEOm.s:31092  .debug_str:0000000000027638 .LASF482
C:\Users\SOLDER~1\AppData\Local\Temp\cchmqEOm.s:24366  .debug_str:000000000000c0a8 .LASF483
C:\Users\SOLDER~1\AppData\Local\Temp\cchmqEOm.s:28130  .debug_str:000000000001b5da .LASF484
C:\Users\SOLDER~1\AppData\Local\Temp\cchmqEOm.s:28044  .debug_str:000000000001b02e .LASF485
C:\Users\SOLDER~1\AppData\Local\Temp\cchmqEOm.s:31218  .debug_str:0000000000027e2b .LASF486
C:\Users\SOLDER~1\AppData\Local\Temp\cchmqEOm.s:28616  .debug_str:000000000001d56e .LASF487
C:\Users\SOLDER~1\AppData\Local\Temp\cchmqEOm.s:25370  .debug_str:0000000000010293 .LASF488
C:\Users\SOLDER~1\AppData\Local\Temp\cchmqEOm.s:27520  .debug_str:0000000000018e5d .LASF489
C:\Users\SOLDER~1\AppData\Local\Temp\cchmqEOm.s:22634  .debug_str:0000000000004fbf .LASF490
C:\Users\SOLDER~1\AppData\Local\Temp\cchmqEOm.s:25728  .debug_str:0000000000011973 .LASF491
C:\Users\SOLDER~1\AppData\Local\Temp\cchmqEOm.s:31456  .debug_str:0000000000028d66 .LASF492
C:\Users\SOLDER~1\AppData\Local\Temp\cchmqEOm.s:30114  .debug_str:00000000000235a5 .LASF494
C:\Users\SOLDER~1\AppData\Local\Temp\cchmqEOm.s:23746  .debug_str:0000000000009823 .LASF495
C:\Users\SOLDER~1\AppData\Local\Temp\cchmqEOm.s:22732  .debug_str:000000000000559f .LASF496
GAS LISTING C:\Users\SOLDER~1\AppData\Local\Temp\cchmqEOm.s 			page 83


C:\Users\SOLDER~1\AppData\Local\Temp\cchmqEOm.s:28874  .debug_str:000000000001e620 .LASF497
C:\Users\SOLDER~1\AppData\Local\Temp\cchmqEOm.s:28196  .debug_str:000000000001b9ed .LASF498
C:\Users\SOLDER~1\AppData\Local\Temp\cchmqEOm.s:28294  .debug_str:000000000001bff9 .LASF499
C:\Users\SOLDER~1\AppData\Local\Temp\cchmqEOm.s:24954  .debug_str:000000000000e7a9 .LASF500
C:\Users\SOLDER~1\AppData\Local\Temp\cchmqEOm.s:22528  .debug_str:0000000000004984 .LASF501
C:\Users\SOLDER~1\AppData\Local\Temp\cchmqEOm.s:25882  .debug_str:000000000001235b .LASF502
C:\Users\SOLDER~1\AppData\Local\Temp\cchmqEOm.s:30594  .debug_str:0000000000025572 .LASF503
C:\Users\SOLDER~1\AppData\Local\Temp\cchmqEOm.s:26736  .debug_str:0000000000015bbd .LASF504
C:\Users\SOLDER~1\AppData\Local\Temp\cchmqEOm.s:21422  .debug_str:000000000000019c .LASF505
C:\Users\SOLDER~1\AppData\Local\Temp\cchmqEOm.s:24766  .debug_str:000000000000db3c .LASF506
C:\Users\SOLDER~1\AppData\Local\Temp\cchmqEOm.s:32794  .debug_str:000000000002e3e9 .LASF507
C:\Users\SOLDER~1\AppData\Local\Temp\cchmqEOm.s:31712  .debug_str:0000000000029da0 .LASF508
C:\Users\SOLDER~1\AppData\Local\Temp\cchmqEOm.s:26258  .debug_str:0000000000013bd3 .LASF509
C:\Users\SOLDER~1\AppData\Local\Temp\cchmqEOm.s:27202  .debug_str:00000000000179a1 .LASF510
C:\Users\SOLDER~1\AppData\Local\Temp\cchmqEOm.s:26570  .debug_str:0000000000015124 .LASF511
C:\Users\SOLDER~1\AppData\Local\Temp\cchmqEOm.s:27666  .debug_str:0000000000019807 .LASF512
C:\Users\SOLDER~1\AppData\Local\Temp\cchmqEOm.s:29530  .debug_str:000000000002107f .LASF513
C:\Users\SOLDER~1\AppData\Local\Temp\cchmqEOm.s:28532  .debug_str:000000000001cfb4 .LASF514
C:\Users\SOLDER~1\AppData\Local\Temp\cchmqEOm.s:24616  .debug_str:000000000000d138 .LASF515
C:\Users\SOLDER~1\AppData\Local\Temp\cchmqEOm.s:32320  .debug_str:000000000002c514 .LASF516
C:\Users\SOLDER~1\AppData\Local\Temp\cchmqEOm.s:28784  .debug_str:000000000001e017 .LASF517
C:\Users\SOLDER~1\AppData\Local\Temp\cchmqEOm.s:32190  .debug_str:000000000002bcd6 .LASF518
C:\Users\SOLDER~1\AppData\Local\Temp\cchmqEOm.s:30784  .debug_str:0000000000026179 .LASF519
C:\Users\SOLDER~1\AppData\Local\Temp\cchmqEOm.s:27936  .debug_str:000000000001a92f .LASF520
C:\Users\SOLDER~1\AppData\Local\Temp\cchmqEOm.s:22954  .debug_str:0000000000006466 .LASF521
C:\Users\SOLDER~1\AppData\Local\Temp\cchmqEOm.s:30158  .debug_str:000000000002387a .LASF522
C:\Users\SOLDER~1\AppData\Local\Temp\cchmqEOm.s:26184  .debug_str:0000000000013697 .LASF523
C:\Users\SOLDER~1\AppData\Local\Temp\cchmqEOm.s:21918  .debug_str:000000000000225e .LASF524
C:\Users\SOLDER~1\AppData\Local\Temp\cchmqEOm.s:28834  .debug_str:000000000001e374 .LASF525
C:\Users\SOLDER~1\AppData\Local\Temp\cchmqEOm.s:24828  .debug_str:000000000000def8 .LASF526
C:\Users\SOLDER~1\AppData\Local\Temp\cchmqEOm.s:26588  .debug_str:0000000000015234 .LASF527
C:\Users\SOLDER~1\AppData\Local\Temp\cchmqEOm.s:24866  .debug_str:000000000000e178 .LASF528
C:\Users\SOLDER~1\AppData\Local\Temp\cchmqEOm.s:23636  .debug_str:00000000000090d5 .LASF529
C:\Users\SOLDER~1\AppData\Local\Temp\cchmqEOm.s:23276  .debug_str:0000000000007926 .LASF530
C:\Users\SOLDER~1\AppData\Local\Temp\cchmqEOm.s:24450  .debug_str:000000000000c663 .LASF531
C:\Users\SOLDER~1\AppData\Local\Temp\cchmqEOm.s:31142  .debug_str:0000000000027971 .LASF532
C:\Users\SOLDER~1\AppData\Local\Temp\cchmqEOm.s:32948  .debug_str:000000000002ed7a .LASF533
C:\Users\SOLDER~1\AppData\Local\Temp\cchmqEOm.s:25904  .debug_str:00000000000124be .LASF534
C:\Users\SOLDER~1\AppData\Local\Temp\cchmqEOm.s:32312  .debug_str:000000000002c486 .LASF535
C:\Users\SOLDER~1\AppData\Local\Temp\cchmqEOm.s:28418  .debug_str:000000000001c842 .LASF536
C:\Users\SOLDER~1\AppData\Local\Temp\cchmqEOm.s:24774  .debug_str:000000000000dbb2 .LASF537
C:\Users\SOLDER~1\AppData\Local\Temp\cchmqEOm.s:28190  .debug_str:000000000001b989 .LASF538
C:\Users\SOLDER~1\AppData\Local\Temp\cchmqEOm.s:22516  .debug_str:00000000000048b3 .LASF539
C:\Users\SOLDER~1\AppData\Local\Temp\cchmqEOm.s:30210  .debug_str:0000000000023c20 .LASF540
C:\Users\SOLDER~1\AppData\Local\Temp\cchmqEOm.s:28238  .debug_str:000000000001bc8c .LASF541
C:\Users\SOLDER~1\AppData\Local\Temp\cchmqEOm.s:32406  .debug_str:000000000002cb02 .LASF542
C:\Users\SOLDER~1\AppData\Local\Temp\cchmqEOm.s:24268  .debug_str:000000000000ba38 .LASF543
C:\Users\SOLDER~1\AppData\Local\Temp\cchmqEOm.s:31116  .debug_str:00000000000277b4 .LASF544
C:\Users\SOLDER~1\AppData\Local\Temp\cchmqEOm.s:30344  .debug_str:00000000000244b7 .LASF545
C:\Users\SOLDER~1\AppData\Local\Temp\cchmqEOm.s:29108  .debug_str:000000000001f518 .LASF546
C:\Users\SOLDER~1\AppData\Local\Temp\cchmqEOm.s:31342  .debug_str:00000000000285ff .LASF547
C:\Users\SOLDER~1\AppData\Local\Temp\cchmqEOm.s:29314  .debug_str:00000000000202cf .LASF548
C:\Users\SOLDER~1\AppData\Local\Temp\cchmqEOm.s:27402  .debug_str:00000000000186ca .LASF549
C:\Users\SOLDER~1\AppData\Local\Temp\cchmqEOm.s:26090  .debug_str:000000000001306a .LASF550
C:\Users\SOLDER~1\AppData\Local\Temp\cchmqEOm.s:29748  .debug_str:0000000000021e87 .LASF551
C:\Users\SOLDER~1\AppData\Local\Temp\cchmqEOm.s:26322  .debug_str:0000000000014071 .LASF552
C:\Users\SOLDER~1\AppData\Local\Temp\cchmqEOm.s:28974  .debug_str:000000000001ec87 .LASF553
GAS LISTING C:\Users\SOLDER~1\AppData\Local\Temp\cchmqEOm.s 			page 84


C:\Users\SOLDER~1\AppData\Local\Temp\cchmqEOm.s:26880  .debug_str:0000000000016517 .LASF554
C:\Users\SOLDER~1\AppData\Local\Temp\cchmqEOm.s:21748  .debug_str:0000000000001754 .LASF555
C:\Users\SOLDER~1\AppData\Local\Temp\cchmqEOm.s:25622  .debug_str:0000000000011299 .LASF556
C:\Users\SOLDER~1\AppData\Local\Temp\cchmqEOm.s:22914  .debug_str:00000000000061c9 .LASF557
C:\Users\SOLDER~1\AppData\Local\Temp\cchmqEOm.s:25520  .debug_str:0000000000010c3d .LASF558
C:\Users\SOLDER~1\AppData\Local\Temp\cchmqEOm.s:25382  .debug_str:000000000001032b .LASF559
C:\Users\SOLDER~1\AppData\Local\Temp\cchmqEOm.s:21838  .debug_str:0000000000001d29 .LASF560
C:\Users\SOLDER~1\AppData\Local\Temp\cchmqEOm.s:30660  .debug_str:0000000000025982 .LASF561
C:\Users\SOLDER~1\AppData\Local\Temp\cchmqEOm.s:32612  .debug_str:000000000002d88d .LASF562
C:\Users\SOLDER~1\AppData\Local\Temp\cchmqEOm.s:32852  .debug_str:000000000002e782 .LASF563
C:\Users\SOLDER~1\AppData\Local\Temp\cchmqEOm.s:24850  .debug_str:000000000000e05f .LASF564
C:\Users\SOLDER~1\AppData\Local\Temp\cchmqEOm.s:21654  .debug_str:000000000000116a .LASF565
C:\Users\SOLDER~1\AppData\Local\Temp\cchmqEOm.s:30256  .debug_str:0000000000023f26 .LASF566
C:\Users\SOLDER~1\AppData\Local\Temp\cchmqEOm.s:28116  .debug_str:000000000001b518 .LASF567
C:\Users\SOLDER~1\AppData\Local\Temp\cchmqEOm.s:28352  .debug_str:000000000001c3cd .LASF568
C:\Users\SOLDER~1\AppData\Local\Temp\cchmqEOm.s:21868  .debug_str:0000000000001f07 .LASF569
C:\Users\SOLDER~1\AppData\Local\Temp\cchmqEOm.s:26678  .debug_str:0000000000015811 .LASF570
C:\Users\SOLDER~1\AppData\Local\Temp\cchmqEOm.s:30448  .debug_str:0000000000024b91 .LASF571
C:\Users\SOLDER~1\AppData\Local\Temp\cchmqEOm.s:25170  .debug_str:000000000000f52f .LASF572
C:\Users\SOLDER~1\AppData\Local\Temp\cchmqEOm.s:27126  .debug_str:0000000000017465 .LASF573
C:\Users\SOLDER~1\AppData\Local\Temp\cchmqEOm.s:24984  .debug_str:000000000000e965 .LASF574
C:\Users\SOLDER~1\AppData\Local\Temp\cchmqEOm.s:27018  .debug_str:0000000000016da9 .LASF575
C:\Users\SOLDER~1\AppData\Local\Temp\cchmqEOm.s:26116  .debug_str:000000000001321c .LASF576
C:\Users\SOLDER~1\AppData\Local\Temp\cchmqEOm.s:26078  .debug_str:0000000000012faa .LASF577
C:\Users\SOLDER~1\AppData\Local\Temp\cchmqEOm.s:32686  .debug_str:000000000002dd0a .LASF578
C:\Users\SOLDER~1\AppData\Local\Temp\cchmqEOm.s:27590  .debug_str:0000000000019352 .LASF579
C:\Users\SOLDER~1\AppData\Local\Temp\cchmqEOm.s:30860  .debug_str:00000000000266af .LASF580
C:\Users\SOLDER~1\AppData\Local\Temp\cchmqEOm.s:22512  .debug_str:0000000000004875 .LASF581
C:\Users\SOLDER~1\AppData\Local\Temp\cchmqEOm.s:24018  .debug_str:000000000000a9f3 .LASF582
C:\Users\SOLDER~1\AppData\Local\Temp\cchmqEOm.s:29128  .debug_str:000000000001f672 .LASF583
C:\Users\SOLDER~1\AppData\Local\Temp\cchmqEOm.s:32444  .debug_str:000000000002cd8f .LASF584
C:\Users\SOLDER~1\AppData\Local\Temp\cchmqEOm.s:24086  .debug_str:000000000000ae4e .LASF585
C:\Users\SOLDER~1\AppData\Local\Temp\cchmqEOm.s:31978  .debug_str:000000000002aee0 .LASF586
C:\Users\SOLDER~1\AppData\Local\Temp\cchmqEOm.s:30870  .debug_str:0000000000026763 .LASF587
C:\Users\SOLDER~1\AppData\Local\Temp\cchmqEOm.s:26014  .debug_str:0000000000012b57 .LASF588
C:\Users\SOLDER~1\AppData\Local\Temp\cchmqEOm.s:27970  .debug_str:000000000001ab4f .LASF589
C:\Users\SOLDER~1\AppData\Local\Temp\cchmqEOm.s:30148  .debug_str:00000000000237e3 .LASF590
C:\Users\SOLDER~1\AppData\Local\Temp\cchmqEOm.s:27050  .debug_str:0000000000016f9a .LASF591
C:\Users\SOLDER~1\AppData\Local\Temp\cchmqEOm.s:21474  .debug_str:00000000000004d8 .LASF592
C:\Users\SOLDER~1\AppData\Local\Temp\cchmqEOm.s:28678  .debug_str:000000000001d9b8 .LASF593
C:\Users\SOLDER~1\AppData\Local\Temp\cchmqEOm.s:27346  .debug_str:00000000000182ff .LASF594
C:\Users\SOLDER~1\AppData\Local\Temp\cchmqEOm.s:32784  .debug_str:000000000002e329 .LASF595
C:\Users\SOLDER~1\AppData\Local\Temp\cchmqEOm.s:24096  .debug_str:000000000000af0a .LASF596
C:\Users\SOLDER~1\AppData\Local\Temp\cchmqEOm.s:32198  .debug_str:000000000002bd41 .LASF597
C:\Users\SOLDER~1\AppData\Local\Temp\cchmqEOm.s:29568  .debug_str:00000000000212fb .LASF598
C:\Users\SOLDER~1\AppData\Local\Temp\cchmqEOm.s:31614  .debug_str:000000000002971f .LASF599
C:\Users\SOLDER~1\AppData\Local\Temp\cchmqEOm.s:25498  .debug_str:0000000000010a9e .LASF600
C:\Users\SOLDER~1\AppData\Local\Temp\cchmqEOm.s:30916  .debug_str:0000000000026a9f .LASF601
C:\Users\SOLDER~1\AppData\Local\Temp\cchmqEOm.s:31024  .debug_str:00000000000271ca .LASF602
C:\Users\SOLDER~1\AppData\Local\Temp\cchmqEOm.s:24854  .debug_str:000000000000e0a4 .LASF603
C:\Users\SOLDER~1\AppData\Local\Temp\cchmqEOm.s:24638  .debug_str:000000000000d2d8 .LASF604
C:\Users\SOLDER~1\AppData\Local\Temp\cchmqEOm.s:28760  .debug_str:000000000001dec3 .LASF605
C:\Users\SOLDER~1\AppData\Local\Temp\cchmqEOm.s:30694  .debug_str:0000000000025b88 .LASF606
C:\Users\SOLDER~1\AppData\Local\Temp\cchmqEOm.s:27134  .debug_str:00000000000174ec .LASF607
C:\Users\SOLDER~1\AppData\Local\Temp\cchmqEOm.s:29900  .debug_str:000000000002280d .LASF608
C:\Users\SOLDER~1\AppData\Local\Temp\cchmqEOm.s:32282  .debug_str:000000000002c297 .LASF609
C:\Users\SOLDER~1\AppData\Local\Temp\cchmqEOm.s:23720  .debug_str:0000000000009694 .LASF610
GAS LISTING C:\Users\SOLDER~1\AppData\Local\Temp\cchmqEOm.s 			page 85


C:\Users\SOLDER~1\AppData\Local\Temp\cchmqEOm.s:25796  .debug_str:0000000000011db6 .LASF611
C:\Users\SOLDER~1\AppData\Local\Temp\cchmqEOm.s:26066  .debug_str:0000000000012ee5 .LASF612
C:\Users\SOLDER~1\AppData\Local\Temp\cchmqEOm.s:28754  .debug_str:000000000001de6e .LASF613
C:\Users\SOLDER~1\AppData\Local\Temp\cchmqEOm.s:23158  .debug_str:00000000000071fa .LASF614
C:\Users\SOLDER~1\AppData\Local\Temp\cchmqEOm.s:21882  .debug_str:000000000000200f .LASF615
C:\Users\SOLDER~1\AppData\Local\Temp\cchmqEOm.s:27206  .debug_str:00000000000179ea .LASF616
C:\Users\SOLDER~1\AppData\Local\Temp\cchmqEOm.s:22756  .debug_str:0000000000005709 .LASF617
C:\Users\SOLDER~1\AppData\Local\Temp\cchmqEOm.s:30004  .debug_str:0000000000022e92 .LASF618
C:\Users\SOLDER~1\AppData\Local\Temp\cchmqEOm.s:22168  .debug_str:000000000000329b .LASF619
C:\Users\SOLDER~1\AppData\Local\Temp\cchmqEOm.s:28882  .debug_str:000000000001e69d .LASF620
C:\Users\SOLDER~1\AppData\Local\Temp\cchmqEOm.s:22262  .debug_str:0000000000003893 .LASF621
C:\Users\SOLDER~1\AppData\Local\Temp\cchmqEOm.s:26742  .debug_str:0000000000015c2e .LASF622
C:\Users\SOLDER~1\AppData\Local\Temp\cchmqEOm.s:27838  .debug_str:000000000001a2f6 .LASF623
C:\Users\SOLDER~1\AppData\Local\Temp\cchmqEOm.s:25668  .debug_str:0000000000011573 .LASF624
C:\Users\SOLDER~1\AppData\Local\Temp\cchmqEOm.s:28428  .debug_str:000000000001c8d2 .LASF625
C:\Users\SOLDER~1\AppData\Local\Temp\cchmqEOm.s:23124  .debug_str:0000000000006f95 .LASF626
C:\Users\SOLDER~1\AppData\Local\Temp\cchmqEOm.s:23082  .debug_str:0000000000006cc3 .LASF627
C:\Users\SOLDER~1\AppData\Local\Temp\cchmqEOm.s:28080  .debug_str:000000000001b2ce .LASF628
C:\Users\SOLDER~1\AppData\Local\Temp\cchmqEOm.s:24858  .debug_str:000000000000e0ee .LASF629
C:\Users\SOLDER~1\AppData\Local\Temp\cchmqEOm.s:29388  .debug_str:000000000002076d .LASF630
C:\Users\SOLDER~1\AppData\Local\Temp\cchmqEOm.s:28346  .debug_str:000000000001c374 .LASF631
C:\Users\SOLDER~1\AppData\Local\Temp\cchmqEOm.s:29376  .debug_str:00000000000206a8 .LASF632
C:\Users\SOLDER~1\AppData\Local\Temp\cchmqEOm.s:27804  .debug_str:000000000001a0df .LASF633
C:\Users\SOLDER~1\AppData\Local\Temp\cchmqEOm.s:31436  .debug_str:0000000000028c32 .LASF634
C:\Users\SOLDER~1\AppData\Local\Temp\cchmqEOm.s:26534  .debug_str:0000000000014ec6 .LASF635
C:\Users\SOLDER~1\AppData\Local\Temp\cchmqEOm.s:28310  .debug_str:000000000001c101 .LASF636
C:\Users\SOLDER~1\AppData\Local\Temp\cchmqEOm.s:30494  .debug_str:0000000000024eb2 .LASF637
C:\Users\SOLDER~1\AppData\Local\Temp\cchmqEOm.s:21848  .debug_str:0000000000001dc9 .LASF638
C:\Users\SOLDER~1\AppData\Local\Temp\cchmqEOm.s:32290  .debug_str:000000000002c32c .LASF639
C:\Users\SOLDER~1\AppData\Local\Temp\cchmqEOm.s:26118  .debug_str:000000000001323a .LASF640
C:\Users\SOLDER~1\AppData\Local\Temp\cchmqEOm.s:27156  .debug_str:0000000000017688 .LASF641
C:\Users\SOLDER~1\AppData\Local\Temp\cchmqEOm.s:27062  .debug_str:0000000000017046 .LASF642
C:\Users\SOLDER~1\AppData\Local\Temp\cchmqEOm.s:28446  .debug_str:000000000001c9ff .LASF643
C:\Users\SOLDER~1\AppData\Local\Temp\cchmqEOm.s:22982  .debug_str:0000000000006644 .LASF644
C:\Users\SOLDER~1\AppData\Local\Temp\cchmqEOm.s:30442  .debug_str:0000000000024b33 .LASF645
C:\Users\SOLDER~1\AppData\Local\Temp\cchmqEOm.s:27114  .debug_str:0000000000017392 .LASF646
C:\Users\SOLDER~1\AppData\Local\Temp\cchmqEOm.s:24992  .debug_str:000000000000e9e8 .LASF647
C:\Users\SOLDER~1\AppData\Local\Temp\cchmqEOm.s:26528  .debug_str:0000000000014e4c .LASF648
C:\Users\SOLDER~1\AppData\Local\Temp\cchmqEOm.s:25076  .debug_str:000000000000ef44 .LASF649
C:\Users\SOLDER~1\AppData\Local\Temp\cchmqEOm.s:31780  .debug_str:000000000002a1fa .LASF650
C:\Users\SOLDER~1\AppData\Local\Temp\cchmqEOm.s:27978  .debug_str:000000000001abcf .LASF651
C:\Users\SOLDER~1\AppData\Local\Temp\cchmqEOm.s:25948  .debug_str:000000000001273b .LASF652
C:\Users\SOLDER~1\AppData\Local\Temp\cchmqEOm.s:27578  .debug_str:0000000000019273 .LASF653
C:\Users\SOLDER~1\AppData\Local\Temp\cchmqEOm.s:26856  .debug_str:0000000000016382 .LASF654
C:\Users\SOLDER~1\AppData\Local\Temp\cchmqEOm.s:32804  .debug_str:000000000002e48d .LASF655
C:\Users\SOLDER~1\AppData\Local\Temp\cchmqEOm.s:27626  .debug_str:0000000000019593 .LASF656
C:\Users\SOLDER~1\AppData\Local\Temp\cchmqEOm.s:32056  .debug_str:000000000002b3f2 .LASF657
C:\Users\SOLDER~1\AppData\Local\Temp\cchmqEOm.s:29240  .debug_str:000000000001fe1a .LASF658
C:\Users\SOLDER~1\AppData\Local\Temp\cchmqEOm.s:31328  .debug_str:000000000002851f .LASF659
C:\Users\SOLDER~1\AppData\Local\Temp\cchmqEOm.s:30238  .debug_str:0000000000023e16 .LASF660
C:\Users\SOLDER~1\AppData\Local\Temp\cchmqEOm.s:32452  .debug_str:000000000002ce24 .LASF661
C:\Users\SOLDER~1\AppData\Local\Temp\cchmqEOm.s:24868  .debug_str:000000000000e19c .LASF662
C:\Users\SOLDER~1\AppData\Local\Temp\cchmqEOm.s:24170  .debug_str:000000000000b3d8 .LASF663
C:\Users\SOLDER~1\AppData\Local\Temp\cchmqEOm.s:31730  .debug_str:0000000000029eb3 .LASF664
C:\Users\SOLDER~1\AppData\Local\Temp\cchmqEOm.s:28904  .debug_str:000000000001e816 .LASF665
C:\Users\SOLDER~1\AppData\Local\Temp\cchmqEOm.s:29182  .debug_str:000000000001fa26 .LASF666
C:\Users\SOLDER~1\AppData\Local\Temp\cchmqEOm.s:29198  .debug_str:000000000001fb4a .LASF667
GAS LISTING C:\Users\SOLDER~1\AppData\Local\Temp\cchmqEOm.s 			page 86


C:\Users\SOLDER~1\AppData\Local\Temp\cchmqEOm.s:23044  .debug_str:0000000000006a78 .LASF668
C:\Users\SOLDER~1\AppData\Local\Temp\cchmqEOm.s:30272  .debug_str:000000000002402b .LASF669
C:\Users\SOLDER~1\AppData\Local\Temp\cchmqEOm.s:31300  .debug_str:0000000000028354 .LASF670
C:\Users\SOLDER~1\AppData\Local\Temp\cchmqEOm.s:32772  .debug_str:000000000002e279 .LASF671
C:\Users\SOLDER~1\AppData\Local\Temp\cchmqEOm.s:32048  .debug_str:000000000002b378 .LASF672
C:\Users\SOLDER~1\AppData\Local\Temp\cchmqEOm.s:28280  .debug_str:000000000001bf13 .LASF673
C:\Users\SOLDER~1\AppData\Local\Temp\cchmqEOm.s:26822  .debug_str:0000000000016139 .LASF674
C:\Users\SOLDER~1\AppData\Local\Temp\cchmqEOm.s:22300  .debug_str:0000000000003b08 .LASF675
C:\Users\SOLDER~1\AppData\Local\Temp\cchmqEOm.s:25528  .debug_str:0000000000010cad .LASF676
C:\Users\SOLDER~1\AppData\Local\Temp\cchmqEOm.s:27982  .debug_str:000000000001ac1b .LASF677
C:\Users\SOLDER~1\AppData\Local\Temp\cchmqEOm.s:31096  .debug_str:000000000002766a .LASF678
C:\Users\SOLDER~1\AppData\Local\Temp\cchmqEOm.s:32372  .debug_str:000000000002c8b9 .LASF679
C:\Users\SOLDER~1\AppData\Local\Temp\cchmqEOm.s:27282  .debug_str:0000000000017ec4 .LASF680
C:\Users\SOLDER~1\AppData\Local\Temp\cchmqEOm.s:28824  .debug_str:000000000001e2b6 .LASF681
C:\Users\SOLDER~1\AppData\Local\Temp\cchmqEOm.s:26068  .debug_str:0000000000012efd .LASF682
C:\Users\SOLDER~1\AppData\Local\Temp\cchmqEOm.s:26998  .debug_str:0000000000016c61 .LASF683
C:\Users\SOLDER~1\AppData\Local\Temp\cchmqEOm.s:23526  .debug_str:0000000000008990 .LASF684
C:\Users\SOLDER~1\AppData\Local\Temp\cchmqEOm.s:28598  .debug_str:000000000001d44c .LASF685
C:\Users\SOLDER~1\AppData\Local\Temp\cchmqEOm.s:29144  .debug_str:000000000001f791 .LASF686
C:\Users\SOLDER~1\AppData\Local\Temp\cchmqEOm.s:21814  .debug_str:0000000000001b7f .LASF687
C:\Users\SOLDER~1\AppData\Local\Temp\cchmqEOm.s:28916  .debug_str:000000000001e8c0 .LASF688
C:\Users\SOLDER~1\AppData\Local\Temp\cchmqEOm.s:32256  .debug_str:000000000002c0f3 .LASF689
C:\Users\SOLDER~1\AppData\Local\Temp\cchmqEOm.s:21428  .debug_str:00000000000001e6 .LASF690
C:\Users\SOLDER~1\AppData\Local\Temp\cchmqEOm.s:29412  .debug_str:00000000000208f2 .LASF691
C:\Users\SOLDER~1\AppData\Local\Temp\cchmqEOm.s:29360  .debug_str:000000000002059e .LASF692
C:\Users\SOLDER~1\AppData\Local\Temp\cchmqEOm.s:23622  .debug_str:0000000000009002 .LASF693
C:\Users\SOLDER~1\AppData\Local\Temp\cchmqEOm.s:29110  .debug_str:000000000001f545 .LASF694
C:\Users\SOLDER~1\AppData\Local\Temp\cchmqEOm.s:23606  .debug_str:0000000000008ef6 .LASF695
C:\Users\SOLDER~1\AppData\Local\Temp\cchmqEOm.s:28608  .debug_str:000000000001d4fa .LASF696
C:\Users\SOLDER~1\AppData\Local\Temp\cchmqEOm.s:31288  .debug_str:000000000002826c .LASF697
C:\Users\SOLDER~1\AppData\Local\Temp\cchmqEOm.s:32070  .debug_str:000000000002b4bb .LASF698
C:\Users\SOLDER~1\AppData\Local\Temp\cchmqEOm.s:25010  .debug_str:000000000000eb48 .LASF699
C:\Users\SOLDER~1\AppData\Local\Temp\cchmqEOm.s:32774  .debug_str:000000000002e28f .LASF700
C:\Users\SOLDER~1\AppData\Local\Temp\cchmqEOm.s:27836  .debug_str:000000000001a2e3 .LASF701
C:\Users\SOLDER~1\AppData\Local\Temp\cchmqEOm.s:22230  .debug_str:0000000000003684 .LASF702
C:\Users\SOLDER~1\AppData\Local\Temp\cchmqEOm.s:30346  .debug_str:00000000000244e4 .LASF703
C:\Users\SOLDER~1\AppData\Local\Temp\cchmqEOm.s:28314  .debug_str:000000000001c12c .LASF704
C:\Users\SOLDER~1\AppData\Local\Temp\cchmqEOm.s:31340  .debug_str:00000000000285dc .LASF705
C:\Users\SOLDER~1\AppData\Local\Temp\cchmqEOm.s:27034  .debug_str:0000000000016ec1 .LASF706
C:\Users\SOLDER~1\AppData\Local\Temp\cchmqEOm.s:24320  .debug_str:000000000000bdd8 .LASF707
C:\Users\SOLDER~1\AppData\Local\Temp\cchmqEOm.s:29944  .debug_str:0000000000022a92 .LASF708
C:\Users\SOLDER~1\AppData\Local\Temp\cchmqEOm.s:29406  .debug_str:0000000000020889 .LASF709
C:\Users\SOLDER~1\AppData\Local\Temp\cchmqEOm.s:22248  .debug_str:0000000000003791 .LASF710
C:\Users\SOLDER~1\AppData\Local\Temp\cchmqEOm.s:30826  .debug_str:0000000000026452 .LASF711
C:\Users\SOLDER~1\AppData\Local\Temp\cchmqEOm.s:30140  .debug_str:000000000002374f .LASF712
C:\Users\SOLDER~1\AppData\Local\Temp\cchmqEOm.s:23386  .debug_str:0000000000008091 .LASF713
C:\Users\SOLDER~1\AppData\Local\Temp\cchmqEOm.s:31176  .debug_str:0000000000027b92 .LASF714
C:\Users\SOLDER~1\AppData\Local\Temp\cchmqEOm.s:29126  .debug_str:000000000001f64f .LASF715
C:\Users\SOLDER~1\AppData\Local\Temp\cchmqEOm.s:30286  .debug_str:00000000000240e0 .LASF716
C:\Users\SOLDER~1\AppData\Local\Temp\cchmqEOm.s:25552  .debug_str:0000000000010e0e .LASF717
C:\Users\SOLDER~1\AppData\Local\Temp\cchmqEOm.s:32814  .debug_str:000000000002e53a .LASF718
C:\Users\SOLDER~1\AppData\Local\Temp\cchmqEOm.s:28014  .debug_str:000000000001ae64 .LASF719
C:\Users\SOLDER~1\AppData\Local\Temp\cchmqEOm.s:25982  .debug_str:000000000001299d .LASF720
C:\Users\SOLDER~1\AppData\Local\Temp\cchmqEOm.s:29684  .debug_str:0000000000021aa8 .LASF721
C:\Users\SOLDER~1\AppData\Local\Temp\cchmqEOm.s:27806  .debug_str:000000000001a101 .LASF722
C:\Users\SOLDER~1\AppData\Local\Temp\cchmqEOm.s:29730  .debug_str:0000000000021d76 .LASF723
C:\Users\SOLDER~1\AppData\Local\Temp\cchmqEOm.s:26924  .debug_str:00000000000167e4 .LASF724
GAS LISTING C:\Users\SOLDER~1\AppData\Local\Temp\cchmqEOm.s 			page 87


C:\Users\SOLDER~1\AppData\Local\Temp\cchmqEOm.s:26154  .debug_str:000000000001349b .LASF725
C:\Users\SOLDER~1\AppData\Local\Temp\cchmqEOm.s:31948  .debug_str:000000000002ad41 .LASF726
C:\Users\SOLDER~1\AppData\Local\Temp\cchmqEOm.s:26332  .debug_str:0000000000014126 .LASF727
C:\Users\SOLDER~1\AppData\Local\Temp\cchmqEOm.s:21570  .debug_str:0000000000000c09 .LASF728
C:\Users\SOLDER~1\AppData\Local\Temp\cchmqEOm.s:24762  .debug_str:000000000000daf4 .LASF729
C:\Users\SOLDER~1\AppData\Local\Temp\cchmqEOm.s:27658  .debug_str:0000000000019790 .LASF730
C:\Users\SOLDER~1\AppData\Local\Temp\cchmqEOm.s:28264  .debug_str:000000000001be14 .LASF731
C:\Users\SOLDER~1\AppData\Local\Temp\cchmqEOm.s:23210  .debug_str:000000000000752c .LASF732
C:\Users\SOLDER~1\AppData\Local\Temp\cchmqEOm.s:23826  .debug_str:0000000000009d13 .LASF733
C:\Users\SOLDER~1\AppData\Local\Temp\cchmqEOm.s:29928  .debug_str:0000000000022988 .LASF734
C:\Users\SOLDER~1\AppData\Local\Temp\cchmqEOm.s:29862  .debug_str:00000000000225aa .LASF735
C:\Users\SOLDER~1\AppData\Local\Temp\cchmqEOm.s:27482  .debug_str:0000000000018bf0 .LASF736
C:\Users\SOLDER~1\AppData\Local\Temp\cchmqEOm.s:24314  .debug_str:000000000000bd63 .LASF737
C:\Users\SOLDER~1\AppData\Local\Temp\cchmqEOm.s:32952  .debug_str:000000000002edbc .LASF738
C:\Users\SOLDER~1\AppData\Local\Temp\cchmqEOm.s:24546  .debug_str:000000000000ccdb .LASF739
C:\Users\SOLDER~1\AppData\Local\Temp\cchmqEOm.s:21920  .debug_str:0000000000002284 .LASF740
C:\Users\SOLDER~1\AppData\Local\Temp\cchmqEOm.s:26650  .debug_str:0000000000015630 .LASF741
C:\Users\SOLDER~1\AppData\Local\Temp\cchmqEOm.s:24302  .debug_str:000000000000bc87 .LASF742
C:\Users\SOLDER~1\AppData\Local\Temp\cchmqEOm.s:31212  .debug_str:0000000000027dc8 .LASF743
C:\Users\SOLDER~1\AppData\Local\Temp\cchmqEOm.s:27824  .debug_str:000000000001a23a .LASF744
C:\Users\SOLDER~1\AppData\Local\Temp\cchmqEOm.s:25924  .debug_str:00000000000125d9 .LASF745
C:\Users\SOLDER~1\AppData\Local\Temp\cchmqEOm.s:29276  .debug_str:0000000000020079 .LASF746
C:\Users\SOLDER~1\AppData\Local\Temp\cchmqEOm.s:29856  .debug_str:0000000000022544 .LASF747
C:\Users\SOLDER~1\AppData\Local\Temp\cchmqEOm.s:30792  .debug_str:00000000000261ed .LASF748
C:\Users\SOLDER~1\AppData\Local\Temp\cchmqEOm.s:30226  .debug_str:0000000000023d44 .LASF749
C:\Users\SOLDER~1\AppData\Local\Temp\cchmqEOm.s:23108  .debug_str:0000000000006e5c .LASF750
C:\Users\SOLDER~1\AppData\Local\Temp\cchmqEOm.s:22592  .debug_str:0000000000004d85 .LASF751
C:\Users\SOLDER~1\AppData\Local\Temp\cchmqEOm.s:24000  .debug_str:000000000000a8ed .LASF752
C:\Users\SOLDER~1\AppData\Local\Temp\cchmqEOm.s:24220  .debug_str:000000000000b73b .LASF753
C:\Users\SOLDER~1\AppData\Local\Temp\cchmqEOm.s:32034  .debug_str:000000000002b298 .LASF754
C:\Users\SOLDER~1\AppData\Local\Temp\cchmqEOm.s:29940  .debug_str:0000000000022a57 .LASF755
C:\Users\SOLDER~1\AppData\Local\Temp\cchmqEOm.s:22068  .debug_str:0000000000002bff .LASF756
C:\Users\SOLDER~1\AppData\Local\Temp\cchmqEOm.s:31242  .debug_str:0000000000027f9f .LASF757
C:\Users\SOLDER~1\AppData\Local\Temp\cchmqEOm.s:21952  .debug_str:00000000000024ab .LASF758
C:\Users\SOLDER~1\AppData\Local\Temp\cchmqEOm.s:28850  .debug_str:000000000001e48f .LASF759
C:\Users\SOLDER~1\AppData\Local\Temp\cchmqEOm.s:26860  .debug_str:00000000000163d0 .LASF760
C:\Users\SOLDER~1\AppData\Local\Temp\cchmqEOm.s:21464  .debug_str:000000000000043a .LASF761
C:\Users\SOLDER~1\AppData\Local\Temp\cchmqEOm.s:21652  .debug_str:000000000000114a .LASF762
C:\Users\SOLDER~1\AppData\Local\Temp\cchmqEOm.s:30324  .debug_str:000000000002436e .LASF763
C:\Users\SOLDER~1\AppData\Local\Temp\cchmqEOm.s:30634  .debug_str:00000000000257d9 .LASF764
C:\Users\SOLDER~1\AppData\Local\Temp\cchmqEOm.s:22866  .debug_str:0000000000005e7d .LASF765
C:\Users\SOLDER~1\AppData\Local\Temp\cchmqEOm.s:23690  .debug_str:000000000000948f .LASF766
C:\Users\SOLDER~1\AppData\Local\Temp\cchmqEOm.s:31784  .debug_str:000000000002a23b .LASF767
C:\Users\SOLDER~1\AppData\Local\Temp\cchmqEOm.s:21598  .debug_str:0000000000000e09 .LASF768
C:\Users\SOLDER~1\AppData\Local\Temp\cchmqEOm.s:26434  .debug_str:000000000001481c .LASF769
C:\Users\SOLDER~1\AppData\Local\Temp\cchmqEOm.s:28468  .debug_str:000000000001cb5d .LASF770
C:\Users\SOLDER~1\AppData\Local\Temp\cchmqEOm.s:23164  .debug_str:0000000000007251 .LASF771
C:\Users\SOLDER~1\AppData\Local\Temp\cchmqEOm.s:22840  .debug_str:0000000000005cc3 .LASF772
C:\Users\SOLDER~1\AppData\Local\Temp\cchmqEOm.s:24422  .debug_str:000000000000c46c .LASF773
C:\Users\SOLDER~1\AppData\Local\Temp\cchmqEOm.s:21970  .debug_str:00000000000025de .LASF774
C:\Users\SOLDER~1\AppData\Local\Temp\cchmqEOm.s:22636  .debug_str:0000000000004fd9 .LASF775
C:\Users\SOLDER~1\AppData\Local\Temp\cchmqEOm.s:22614  .debug_str:0000000000004ed3 .LASF776
C:\Users\SOLDER~1\AppData\Local\Temp\cchmqEOm.s:22890  .debug_str:0000000000005ff3 .LASF777
C:\Users\SOLDER~1\AppData\Local\Temp\cchmqEOm.s:31938  .debug_str:000000000002aca1 .LASF778
C:\Users\SOLDER~1\AppData\Local\Temp\cchmqEOm.s:28704  .debug_str:000000000001db72 .LASF779
C:\Users\SOLDER~1\AppData\Local\Temp\cchmqEOm.s:27816  .debug_str:000000000001a1b4 .LASF780
C:\Users\SOLDER~1\AppData\Local\Temp\cchmqEOm.s:29696  .debug_str:0000000000021b44 .LASF781
GAS LISTING C:\Users\SOLDER~1\AppData\Local\Temp\cchmqEOm.s 			page 88


C:\Users\SOLDER~1\AppData\Local\Temp\cchmqEOm.s:23480  .debug_str:00000000000086a9 .LASF782
C:\Users\SOLDER~1\AppData\Local\Temp\cchmqEOm.s:33094  .debug_str:000000000002f6a4 .LASF783
C:\Users\SOLDER~1\AppData\Local\Temp\cchmqEOm.s:21810  .debug_str:0000000000001b3b .LASF784
C:\Users\SOLDER~1\AppData\Local\Temp\cchmqEOm.s:24724  .debug_str:000000000000d87a .LASF785
C:\Users\SOLDER~1\AppData\Local\Temp\cchmqEOm.s:23160  .debug_str:0000000000007212 .LASF786
C:\Users\SOLDER~1\AppData\Local\Temp\cchmqEOm.s:28118  .debug_str:000000000001b539 .LASF787
C:\Users\SOLDER~1\AppData\Local\Temp\cchmqEOm.s:30136  .debug_str:000000000002370e .LASF788
C:\Users\SOLDER~1\AppData\Local\Temp\cchmqEOm.s:27284  .debug_str:0000000000017ee8 .LASF789
C:\Users\SOLDER~1\AppData\Local\Temp\cchmqEOm.s:32744  .debug_str:000000000002e0b5 .LASF790
C:\Users\SOLDER~1\AppData\Local\Temp\cchmqEOm.s:27632  .debug_str:00000000000195ff .LASF791
C:\Users\SOLDER~1\AppData\Local\Temp\cchmqEOm.s:33046  .debug_str:000000000002f3b3 .LASF792
C:\Users\SOLDER~1\AppData\Local\Temp\cchmqEOm.s:25730  .debug_str:000000000001198d .LASF793
C:\Users\SOLDER~1\AppData\Local\Temp\cchmqEOm.s:30864  .debug_str:00000000000266f5 .LASF794
C:\Users\SOLDER~1\AppData\Local\Temp\cchmqEOm.s:31304  .debug_str:000000000002839e .LASF795
C:\Users\SOLDER~1\AppData\Local\Temp\cchmqEOm.s:24396  .debug_str:000000000000c2a8 .LASF796
C:\Users\SOLDER~1\AppData\Local\Temp\cchmqEOm.s:31334  .debug_str:0000000000028583 .LASF797
C:\Users\SOLDER~1\AppData\Local\Temp\cchmqEOm.s:26638  .debug_str:000000000001556f .LASF798
C:\Users\SOLDER~1\AppData\Local\Temp\cchmqEOm.s:26600  .debug_str:00000000000152d6 .LASF799
C:\Users\SOLDER~1\AppData\Local\Temp\cchmqEOm.s:26046  .debug_str:0000000000012d8c .LASF800
C:\Users\SOLDER~1\AppData\Local\Temp\cchmqEOm.s:24456  .debug_str:000000000000c6c9 .LASF801
C:\Users\SOLDER~1\AppData\Local\Temp\cchmqEOm.s:29178  .debug_str:000000000001f9e2 .LASF802
C:\Users\SOLDER~1\AppData\Local\Temp\cchmqEOm.s:33044  .debug_str:000000000002f391 .LASF803
C:\Users\SOLDER~1\AppData\Local\Temp\cchmqEOm.s:32780  .debug_str:000000000002e2e5 .LASF804
C:\Users\SOLDER~1\AppData\Local\Temp\cchmqEOm.s:30974  .debug_str:0000000000026e79 .LASF805
C:\Users\SOLDER~1\AppData\Local\Temp\cchmqEOm.s:22020  .debug_str:0000000000002932 .LASF806
C:\Users\SOLDER~1\AppData\Local\Temp\cchmqEOm.s:31036  .debug_str:00000000000272a4 .LASF807
C:\Users\SOLDER~1\AppData\Local\Temp\cchmqEOm.s:31264  .debug_str:00000000000280d1 .LASF808
C:\Users\SOLDER~1\AppData\Local\Temp\cchmqEOm.s:23040  .debug_str:0000000000006a36 .LASF809
C:\Users\SOLDER~1\AppData\Local\Temp\cchmqEOm.s:27878  .debug_str:000000000001a583 .LASF810
C:\Users\SOLDER~1\AppData\Local\Temp\cchmqEOm.s:26912  .debug_str:000000000001673a .LASF811
C:\Users\SOLDER~1\AppData\Local\Temp\cchmqEOm.s:23006  .debug_str:00000000000067df .LASF812
C:\Users\SOLDER~1\AppData\Local\Temp\cchmqEOm.s:32630  .debug_str:000000000002d995 .LASF813
C:\Users\SOLDER~1\AppData\Local\Temp\cchmqEOm.s:31648  .debug_str:0000000000029980 .LASF814
C:\Users\SOLDER~1\AppData\Local\Temp\cchmqEOm.s:29852  .debug_str:000000000002250b .LASF815
C:\Users\SOLDER~1\AppData\Local\Temp\cchmqEOm.s:32286  .debug_str:000000000002c2e5 .LASF816
C:\Users\SOLDER~1\AppData\Local\Temp\cchmqEOm.s:31160  .debug_str:0000000000027a91 .LASF817
C:\Users\SOLDER~1\AppData\Local\Temp\cchmqEOm.s:29188  .debug_str:000000000001fa95 .LASF818
C:\Users\SOLDER~1\AppData\Local\Temp\cchmqEOm.s:30906  .debug_str:00000000000269f1 .LASF819
C:\Users\SOLDER~1\AppData\Local\Temp\cchmqEOm.s:27940  .debug_str:000000000001a975 .LASF820
C:\Users\SOLDER~1\AppData\Local\Temp\cchmqEOm.s:24592  .debug_str:000000000000cfbb .LASF821
C:\Users\SOLDER~1\AppData\Local\Temp\cchmqEOm.s:27624  .debug_str:0000000000019576 .LASF822
C:\Users\SOLDER~1\AppData\Local\Temp\cchmqEOm.s:23768  .debug_str:000000000000998c .LASF823
C:\Users\SOLDER~1\AppData\Local\Temp\cchmqEOm.s:28788  .debug_str:000000000001e05f .LASF824
C:\Users\SOLDER~1\AppData\Local\Temp\cchmqEOm.s:25064  .debug_str:000000000000ee65 .LASF825
C:\Users\SOLDER~1\AppData\Local\Temp\cchmqEOm.s:28548  .debug_str:000000000001d0df .LASF826
C:\Users\SOLDER~1\AppData\Local\Temp\cchmqEOm.s:31208  .debug_str:0000000000027d97 .LASF827
C:\Users\SOLDER~1\AppData\Local\Temp\cchmqEOm.s:27352  .debug_str:0000000000018380 .LASF828
C:\Users\SOLDER~1\AppData\Local\Temp\cchmqEOm.s:24622  .debug_str:000000000000d1b2 .LASF829
C:\Users\SOLDER~1\AppData\Local\Temp\cchmqEOm.s:30720  .debug_str:0000000000025d2f .LASF830
C:\Users\SOLDER~1\AppData\Local\Temp\cchmqEOm.s:25252  .debug_str:000000000000fa7f .LASF831
C:\Users\SOLDER~1\AppData\Local\Temp\cchmqEOm.s:31640  .debug_str:00000000000298e2 .LASF832
C:\Users\SOLDER~1\AppData\Local\Temp\cchmqEOm.s:23686  .debug_str:0000000000009449 .LASF833
C:\Users\SOLDER~1\AppData\Local\Temp\cchmqEOm.s:31536  .debug_str:0000000000029264 .LASF834
C:\Users\SOLDER~1\AppData\Local\Temp\cchmqEOm.s:32502  .debug_str:000000000002d107 .LASF835
C:\Users\SOLDER~1\AppData\Local\Temp\cchmqEOm.s:22368  .debug_str:0000000000003f74 .LASF836
C:\Users\SOLDER~1\AppData\Local\Temp\cchmqEOm.s:29510  .debug_str:0000000000020f28 .LASF837
C:\Users\SOLDER~1\AppData\Local\Temp\cchmqEOm.s:26080  .debug_str:0000000000012fcb .LASF838
GAS LISTING C:\Users\SOLDER~1\AppData\Local\Temp\cchmqEOm.s 			page 89


C:\Users\SOLDER~1\AppData\Local\Temp\cchmqEOm.s:24304  .debug_str:000000000000bca7 .LASF839
C:\Users\SOLDER~1\AppData\Local\Temp\cchmqEOm.s:22742  .debug_str:0000000000005624 .LASF840
C:\Users\SOLDER~1\AppData\Local\Temp\cchmqEOm.s:25672  .debug_str:00000000000115b8 .LASF841
C:\Users\SOLDER~1\AppData\Local\Temp\cchmqEOm.s:25656  .debug_str:00000000000114a4 .LASF842
C:\Users\SOLDER~1\AppData\Local\Temp\cchmqEOm.s:28320  .debug_str:000000000001c18d .LASF843
C:\Users\SOLDER~1\AppData\Local\Temp\cchmqEOm.s:32874  .debug_str:000000000002e8e9 .LASF844
C:\Users\SOLDER~1\AppData\Local\Temp\cchmqEOm.s:31888  .debug_str:000000000002a955 .LASF845
C:\Users\SOLDER~1\AppData\Local\Temp\cchmqEOm.s:27946  .debug_str:000000000001a9d3 .LASF846
C:\Users\SOLDER~1\AppData\Local\Temp\cchmqEOm.s:25472  .debug_str:00000000000108e6 .LASF847
C:\Users\SOLDER~1\AppData\Local\Temp\cchmqEOm.s:21774  .debug_str:00000000000018dc .LASF848
C:\Users\SOLDER~1\AppData\Local\Temp\cchmqEOm.s:28968  .debug_str:000000000001ec12 .LASF849
C:\Users\SOLDER~1\AppData\Local\Temp\cchmqEOm.s:31972  .debug_str:000000000002ae91 .LASF850
C:\Users\SOLDER~1\AppData\Local\Temp\cchmqEOm.s:22714  .debug_str:0000000000005488 .LASF851
C:\Users\SOLDER~1\AppData\Local\Temp\cchmqEOm.s:25160  .debug_str:000000000000f475 .LASF852
C:\Users\SOLDER~1\AppData\Local\Temp\cchmqEOm.s:26854  .debug_str:0000000000016360 .LASF853
C:\Users\SOLDER~1\AppData\Local\Temp\cchmqEOm.s:23984  .debug_str:000000000000a7d0 .LASF854
C:\Users\SOLDER~1\AppData\Local\Temp\cchmqEOm.s:25044  .debug_str:000000000000ed3c .LASF855
C:\Users\SOLDER~1\AppData\Local\Temp\cchmqEOm.s:29078  .debug_str:000000000001f33e .LASF856
C:\Users\SOLDER~1\AppData\Local\Temp\cchmqEOm.s:25078  .debug_str:000000000000ef5a .LASF857
C:\Users\SOLDER~1\AppData\Local\Temp\cchmqEOm.s:29982  .debug_str:0000000000022d46 .LASF858
C:\Users\SOLDER~1\AppData\Local\Temp\cchmqEOm.s:22332  .debug_str:0000000000003d1a .LASF859
C:\Users\SOLDER~1\AppData\Local\Temp\cchmqEOm.s:24362  .debug_str:000000000000c061 .LASF860
C:\Users\SOLDER~1\AppData\Local\Temp\cchmqEOm.s:22050  .debug_str:0000000000002b0f .LASF861
C:\Users\SOLDER~1\AppData\Local\Temp\cchmqEOm.s:25654  .debug_str:0000000000011491 .LASF862
C:\Users\SOLDER~1\AppData\Local\Temp\cchmqEOm.s:28022  .debug_str:000000000001aed8 .LASF863
C:\Users\SOLDER~1\AppData\Local\Temp\cchmqEOm.s:26136  .debug_str:000000000001333b .LASF864
C:\Users\SOLDER~1\AppData\Local\Temp\cchmqEOm.s:29898  .debug_str:00000000000227eb .LASF865
C:\Users\SOLDER~1\AppData\Local\Temp\cchmqEOm.s:25456  .debug_str:0000000000010801 .LASF866
C:\Users\SOLDER~1\AppData\Local\Temp\cchmqEOm.s:22212  .debug_str:000000000000357e .LASF867
C:\Users\SOLDER~1\AppData\Local\Temp\cchmqEOm.s:32916  .debug_str:000000000002eb88 .LASF868
C:\Users\SOLDER~1\AppData\Local\Temp\cchmqEOm.s:22646  .debug_str:000000000000508e .LASF869
C:\Users\SOLDER~1\AppData\Local\Temp\cchmqEOm.s:26328  .debug_str:00000000000140da .LASF870
C:\Users\SOLDER~1\AppData\Local\Temp\cchmqEOm.s:32402  .debug_str:000000000002cab7 .LASF871
C:\Users\SOLDER~1\AppData\Local\Temp\cchmqEOm.s:26834  .debug_str:0000000000016206 .LASF872
C:\Users\SOLDER~1\AppData\Local\Temp\cchmqEOm.s:33038  .debug_str:000000000002f33a .LASF873
C:\Users\SOLDER~1\AppData\Local\Temp\cchmqEOm.s:28394  .debug_str:000000000001c68c .LASF874
C:\Users\SOLDER~1\AppData\Local\Temp\cchmqEOm.s:27638  .debug_str:0000000000019643 .LASF875
C:\Users\SOLDER~1\AppData\Local\Temp\cchmqEOm.s:22966  .debug_str:0000000000006539 .LASF876
C:\Users\SOLDER~1\AppData\Local\Temp\cchmqEOm.s:31590  .debug_str:00000000000295a2 .LASF877
C:\Users\SOLDER~1\AppData\Local\Temp\cchmqEOm.s:30138  .debug_str:000000000002372e .LASF878
C:\Users\SOLDER~1\AppData\Local\Temp\cchmqEOm.s:25614  .debug_str:00000000000111fc .LASF879
C:\Users\SOLDER~1\AppData\Local\Temp\cchmqEOm.s:22098  .debug_str:0000000000002e09 .LASF880
C:\Users\SOLDER~1\AppData\Local\Temp\cchmqEOm.s:32078  .debug_str:000000000002b548 .LASF881
C:\Users\SOLDER~1\AppData\Local\Temp\cchmqEOm.s:23112  .debug_str:0000000000006ec2 .LASF882
C:\Users\SOLDER~1\AppData\Local\Temp\cchmqEOm.s:22682  .debug_str:00000000000052bd .LASF883
C:\Users\SOLDER~1\AppData\Local\Temp\cchmqEOm.s:26722  .debug_str:0000000000015adb .LASF884
C:\Users\SOLDER~1\AppData\Local\Temp\cchmqEOm.s:24372  .debug_str:000000000000c107 .LASF885
C:\Users\SOLDER~1\AppData\Local\Temp\cchmqEOm.s:28844  .debug_str:000000000001e421 .LASF886
C:\Users\SOLDER~1\AppData\Local\Temp\cchmqEOm.s:27914  .debug_str:000000000001a7a8 .LASF887
C:\Users\SOLDER~1\AppData\Local\Temp\cchmqEOm.s:23994  .debug_str:000000000000a889 .LASF888
C:\Users\SOLDER~1\AppData\Local\Temp\cchmqEOm.s:25550  .debug_str:0000000000010ded .LASF889
C:\Users\SOLDER~1\AppData\Local\Temp\cchmqEOm.s:23794  .debug_str:0000000000009b3a .LASF890
C:\Users\SOLDER~1\AppData\Local\Temp\cchmqEOm.s:21476  .debug_str:00000000000004fe .LASF891
C:\Users\SOLDER~1\AppData\Local\Temp\cchmqEOm.s:32254  .debug_str:000000000002c0d2 .LASF892
C:\Users\SOLDER~1\AppData\Local\Temp\cchmqEOm.s:32172  .debug_str:000000000002bb86 .LASF893
C:\Users\SOLDER~1\AppData\Local\Temp\cchmqEOm.s:30152  .debug_str:0000000000023828 .LASF894
C:\Users\SOLDER~1\AppData\Local\Temp\cchmqEOm.s:31760  .debug_str:000000000002a0ae .LASF895
GAS LISTING C:\Users\SOLDER~1\AppData\Local\Temp\cchmqEOm.s 			page 90


C:\Users\SOLDER~1\AppData\Local\Temp\cchmqEOm.s:29006  .debug_str:000000000001eea5 .LASF896
C:\Users\SOLDER~1\AppData\Local\Temp\cchmqEOm.s:31336  .debug_str:00000000000285a5 .LASF897
C:\Users\SOLDER~1\AppData\Local\Temp\cchmqEOm.s:23034  .debug_str:0000000000006a01 .LASF898
C:\Users\SOLDER~1\AppData\Local\Temp\cchmqEOm.s:21494  .debug_str:000000000000063b .LASF899
C:\Users\SOLDER~1\AppData\Local\Temp\cchmqEOm.s:22962  .debug_str:00000000000064f3 .LASF900
C:\Users\SOLDER~1\AppData\Local\Temp\cchmqEOm.s:22588  .debug_str:0000000000004d3e .LASF901
C:\Users\SOLDER~1\AppData\Local\Temp\cchmqEOm.s:29298  .debug_str:00000000000201df .LASF902
C:\Users\SOLDER~1\AppData\Local\Temp\cchmqEOm.s:23188  .debug_str:00000000000073ca .LASF903
C:\Users\SOLDER~1\AppData\Local\Temp\cchmqEOm.s:22220  .debug_str:00000000000035f1 .LASF904
C:\Users\SOLDER~1\AppData\Local\Temp\cchmqEOm.s:24328  .debug_str:000000000000be54 .LASF905
C:\Users\SOLDER~1\AppData\Local\Temp\cchmqEOm.s:22456  .debug_str:00000000000044f9 .LASF906
C:\Users\SOLDER~1\AppData\Local\Temp\cchmqEOm.s:23240  .debug_str:0000000000007715 .LASF907
C:\Users\SOLDER~1\AppData\Local\Temp\cchmqEOm.s:30326  .debug_str:0000000000024390 .LASF908
C:\Users\SOLDER~1\AppData\Local\Temp\cchmqEOm.s:27162  .debug_str:00000000000176ea .LASF909
C:\Users\SOLDER~1\AppData\Local\Temp\cchmqEOm.s:26216  .debug_str:00000000000138cf .LASF910
C:\Users\SOLDER~1\AppData\Local\Temp\cchmqEOm.s:28878  .debug_str:000000000001e665 .LASF911
C:\Users\SOLDER~1\AppData\Local\Temp\cchmqEOm.s:22726  .debug_str:000000000000553d .LASF912
C:\Users\SOLDER~1\AppData\Local\Temp\cchmqEOm.s:31940  .debug_str:000000000002acc3 .LASF913
C:\Users\SOLDER~1\AppData\Local\Temp\cchmqEOm.s:26356  .debug_str:00000000000142ae .LASF914
C:\Users\SOLDER~1\AppData\Local\Temp\cchmqEOm.s:32560  .debug_str:000000000002d4c0 .LASF915
C:\Users\SOLDER~1\AppData\Local\Temp\cchmqEOm.s:27300  .debug_str:0000000000017fe5 .LASF916
C:\Users\SOLDER~1\AppData\Local\Temp\cchmqEOm.s:22520  .debug_str:00000000000048fe .LASF917
C:\Users\SOLDER~1\AppData\Local\Temp\cchmqEOm.s:29212  .debug_str:000000000001fc5f .LASF918
C:\Users\SOLDER~1\AppData\Local\Temp\cchmqEOm.s:28034  .debug_str:000000000001af79 .LASF919
C:\Users\SOLDER~1\AppData\Local\Temp\cchmqEOm.s:29770  .debug_str:0000000000021fdf .LASF920
C:\Users\SOLDER~1\AppData\Local\Temp\cchmqEOm.s:25226  .debug_str:000000000000f8ce .LASF921
C:\Users\SOLDER~1\AppData\Local\Temp\cchmqEOm.s:21798  .debug_str:0000000000001a68 .LASF922
C:\Users\SOLDER~1\AppData\Local\Temp\cchmqEOm.s:31846  .debug_str:000000000002a65a .LASF923
C:\Users\SOLDER~1\AppData\Local\Temp\cchmqEOm.s:31926  .debug_str:000000000002abd0 .LASF924
C:\Users\SOLDER~1\AppData\Local\Temp\cchmqEOm.s:22596  .debug_str:0000000000004dbe .LASF925
C:\Users\SOLDER~1\AppData\Local\Temp\cchmqEOm.s:23032  .debug_str:00000000000069e1 .LASF926
C:\Users\SOLDER~1\AppData\Local\Temp\cchmqEOm.s:23902  .debug_str:000000000000a24c .LASF927
C:\Users\SOLDER~1\AppData\Local\Temp\cchmqEOm.s:28472  .debug_str:000000000001cbb9 .LASF928
C:\Users\SOLDER~1\AppData\Local\Temp\cchmqEOm.s:27558  .debug_str:000000000001910e .LASF929
C:\Users\SOLDER~1\AppData\Local\Temp\cchmqEOm.s:28992  .debug_str:000000000001edcb .LASF930
C:\Users\SOLDER~1\AppData\Local\Temp\cchmqEOm.s:21734  .debug_str:0000000000001686 .LASF931
C:\Users\SOLDER~1\AppData\Local\Temp\cchmqEOm.s:23106  .debug_str:0000000000006e49 .LASF932
C:\Users\SOLDER~1\AppData\Local\Temp\cchmqEOm.s:21648  .debug_str:00000000000010ec .LASF933
C:\Users\SOLDER~1\AppData\Local\Temp\cchmqEOm.s:24902  .debug_str:000000000000e435 .LASF934
C:\Users\SOLDER~1\AppData\Local\Temp\cchmqEOm.s:31804  .debug_str:000000000002a3aa .LASF935
C:\Users\SOLDER~1\AppData\Local\Temp\cchmqEOm.s:29786  .debug_str:00000000000220e1 .LASF936
C:\Users\SOLDER~1\AppData\Local\Temp\cchmqEOm.s:31372  .debug_str:000000000002882a .LASF937
C:\Users\SOLDER~1\AppData\Local\Temp\cchmqEOm.s:28630  .debug_str:000000000001d631 .LASF938
C:\Users\SOLDER~1\AppData\Local\Temp\cchmqEOm.s:31650  .debug_str:0000000000029993 .LASF939
C:\Users\SOLDER~1\AppData\Local\Temp\cchmqEOm.s:23726  .debug_str:00000000000096fc .LASF940
C:\Users\SOLDER~1\AppData\Local\Temp\cchmqEOm.s:31790  .debug_str:000000000002a2b8 .LASF941
C:\Users\SOLDER~1\AppData\Local\Temp\cchmqEOm.s:32860  .debug_str:000000000002e803 .LASF942
C:\Users\SOLDER~1\AppData\Local\Temp\cchmqEOm.s:30702  .debug_str:0000000000025c06 .LASF943
C:\Users\SOLDER~1\AppData\Local\Temp\cchmqEOm.s:22234  .debug_str:00000000000036c9 .LASF944
C:\Users\SOLDER~1\AppData\Local\Temp\cchmqEOm.s:24946  .debug_str:000000000000e729 .LASF945
C:\Users\SOLDER~1\AppData\Local\Temp\cchmqEOm.s:31960  .debug_str:000000000002adde .LASF946
C:\Users\SOLDER~1\AppData\Local\Temp\cchmqEOm.s:30776  .debug_str:0000000000026100 .LASF947
C:\Users\SOLDER~1\AppData\Local\Temp\cchmqEOm.s:28218  .debug_str:000000000001bb45 .LASF948
C:\Users\SOLDER~1\AppData\Local\Temp\cchmqEOm.s:23796  .debug_str:0000000000009b4c .LASF949
C:\Users\SOLDER~1\AppData\Local\Temp\cchmqEOm.s:24918  .debug_str:000000000000e550 .LASF950
C:\Users\SOLDER~1\AppData\Local\Temp\cchmqEOm.s:25274  .debug_str:000000000000fc17 .LASF951
C:\Users\SOLDER~1\AppData\Local\Temp\cchmqEOm.s:32644  .debug_str:000000000002da8c .LASF952
GAS LISTING C:\Users\SOLDER~1\AppData\Local\Temp\cchmqEOm.s 			page 91


C:\Users\SOLDER~1\AppData\Local\Temp\cchmqEOm.s:24770  .debug_str:000000000000db74 .LASF953
C:\Users\SOLDER~1\AppData\Local\Temp\cchmqEOm.s:27198  .debug_str:0000000000017951 .LASF954
C:\Users\SOLDER~1\AppData\Local\Temp\cchmqEOm.s:27744  .debug_str:0000000000019d30 .LASF955
C:\Users\SOLDER~1\AppData\Local\Temp\cchmqEOm.s:27586  .debug_str:000000000001930b .LASF956
C:\Users\SOLDER~1\AppData\Local\Temp\cchmqEOm.s:27048  .debug_str:0000000000016f84 .LASF957
C:\Users\SOLDER~1\AppData\Local\Temp\cchmqEOm.s:25130  .debug_str:000000000000f28a .LASF958
C:\Users\SOLDER~1\AppData\Local\Temp\cchmqEOm.s:22560  .debug_str:0000000000004b5c .LASF959
C:\Users\SOLDER~1\AppData\Local\Temp\cchmqEOm.s:22798  .debug_str:0000000000005a06 .LASF960
C:\Users\SOLDER~1\AppData\Local\Temp\cchmqEOm.s:29724  .debug_str:0000000000021d27 .LASF961
C:\Users\SOLDER~1\AppData\Local\Temp\cchmqEOm.s:32082  .debug_str:000000000002b592 .LASF962
C:\Users\SOLDER~1\AppData\Local\Temp\cchmqEOm.s:25204  .debug_str:000000000000f75c .LASF963
C:\Users\SOLDER~1\AppData\Local\Temp\cchmqEOm.s:29666  .debug_str:000000000002199b .LASF964
C:\Users\SOLDER~1\AppData\Local\Temp\cchmqEOm.s:32364  .debug_str:000000000002c856 .LASF965
C:\Users\SOLDER~1\AppData\Local\Temp\cchmqEOm.s:27302  .debug_str:0000000000018007 .LASF966
C:\Users\SOLDER~1\AppData\Local\Temp\cchmqEOm.s:27090  .debug_str:00000000000171f6 .LASF967
C:\Users\SOLDER~1\AppData\Local\Temp\cchmqEOm.s:24840  .debug_str:000000000000dfc0 .LASF968
C:\Users\SOLDER~1\AppData\Local\Temp\cchmqEOm.s:23396  .debug_str:000000000000814c .LASF969
C:\Users\SOLDER~1\AppData\Local\Temp\cchmqEOm.s:22412  .debug_str:0000000000004245 .LASF970
C:\Users\SOLDER~1\AppData\Local\Temp\cchmqEOm.s:30526  .debug_str:00000000000250c2 .LASF971
C:\Users\SOLDER~1\AppData\Local\Temp\cchmqEOm.s:31716  .debug_str:0000000000029dde .LASF972
C:\Users\SOLDER~1\AppData\Local\Temp\cchmqEOm.s:24612  .debug_str:000000000000d100 .LASF973
C:\Users\SOLDER~1\AppData\Local\Temp\cchmqEOm.s:25694  .debug_str:0000000000011743 .LASF974
C:\Users\SOLDER~1\AppData\Local\Temp\cchmqEOm.s:25238  .debug_str:000000000000f98a .LASF975
C:\Users\SOLDER~1\AppData\Local\Temp\cchmqEOm.s:26114  .debug_str:00000000000131fb .LASF976
C:\Users\SOLDER~1\AppData\Local\Temp\cchmqEOm.s:32494  .debug_str:000000000002d0ab .LASF977
C:\Users\SOLDER~1\AppData\Local\Temp\cchmqEOm.s:32556  .debug_str:000000000002d47e .LASF978
C:\Users\SOLDER~1\AppData\Local\Temp\cchmqEOm.s:27976  .debug_str:000000000001abb8 .LASF979
C:\Users\SOLDER~1\AppData\Local\Temp\cchmqEOm.s:30120  .debug_str:00000000000235f2 .LASF980
C:\Users\SOLDER~1\AppData\Local\Temp\cchmqEOm.s:23426  .debug_str:0000000000008342 .LASF981
C:\Users\SOLDER~1\AppData\Local\Temp\cchmqEOm.s:27752  .debug_str:0000000000019d7c .LASF982
C:\Users\SOLDER~1\AppData\Local\Temp\cchmqEOm.s:30550  .debug_str:0000000000025287 .LASF983
C:\Users\SOLDER~1\AppData\Local\Temp\cchmqEOm.s:25420  .debug_str:00000000000105b0 .LASF984
C:\Users\SOLDER~1\AppData\Local\Temp\cchmqEOm.s:26042  .debug_str:0000000000012d51 .LASF985
C:\Users\SOLDER~1\AppData\Local\Temp\cchmqEOm.s:22976  .debug_str:00000000000065dc .LASF986
C:\Users\SOLDER~1\AppData\Local\Temp\cchmqEOm.s:26574  .debug_str:000000000001515a .LASF987
C:\Users\SOLDER~1\AppData\Local\Temp\cchmqEOm.s:32262  .debug_str:000000000002c15b .LASF988
C:\Users\SOLDER~1\AppData\Local\Temp\cchmqEOm.s:28766  .debug_str:000000000001df0d .LASF989
C:\Users\SOLDER~1\AppData\Local\Temp\cchmqEOm.s:22856  .debug_str:0000000000005de4 .LASF990
C:\Users\SOLDER~1\AppData\Local\Temp\cchmqEOm.s:24224  .debug_str:000000000000b782 .LASF991
C:\Users\SOLDER~1\AppData\Local\Temp\cchmqEOm.s:27476  .debug_str:0000000000018b8d .LASF992
C:\Users\SOLDER~1\AppData\Local\Temp\cchmqEOm.s:31380  .debug_str:00000000000288a5 .LASF993
C:\Users\SOLDER~1\AppData\Local\Temp\cchmqEOm.s:28570  .debug_str:000000000001d251 .LASF994
C:\Users\SOLDER~1\AppData\Local\Temp\cchmqEOm.s:26874  .debug_str:00000000000164c2 .LASF995
C:\Users\SOLDER~1\AppData\Local\Temp\cchmqEOm.s:25502  .debug_str:0000000000010af7 .LASF996
C:\Users\SOLDER~1\AppData\Local\Temp\cchmqEOm.s:22322  .debug_str:0000000000003c83 .LASF997
C:\Users\SOLDER~1\AppData\Local\Temp\cchmqEOm.s:23736  .debug_str:000000000000977b .LASF998
C:\Users\SOLDER~1\AppData\Local\Temp\cchmqEOm.s:29570  .debug_str:0000000000021335 .LASF999
C:\Users\SOLDER~1\AppData\Local\Temp\cchmqEOm.s:33034  .debug_str:000000000002f2f2 .LASF1000
C:\Users\SOLDER~1\AppData\Local\Temp\cchmqEOm.s:25036  .debug_str:000000000000ece7 .LASF1001
C:\Users\SOLDER~1\AppData\Local\Temp\cchmqEOm.s:30578  .debug_str:000000000002544d .LASF1002
C:\Users\SOLDER~1\AppData\Local\Temp\cchmqEOm.s:32212  .debug_str:000000000002be3e .LASF1003
C:\Users\SOLDER~1\AppData\Local\Temp\cchmqEOm.s:28296  .debug_str:000000000001c01a .LASF1004
C:\Users\SOLDER~1\AppData\Local\Temp\cchmqEOm.s:27708  .debug_str:0000000000019b00 .LASF1005
C:\Users\SOLDER~1\AppData\Local\Temp\cchmqEOm.s:25866  .debug_str:0000000000012260 .LASF1006
C:\Users\SOLDER~1\AppData\Local\Temp\cchmqEOm.s:23142  .debug_str:00000000000070dd .LASF1007
C:\Users\SOLDER~1\AppData\Local\Temp\cchmqEOm.s:23452  .debug_str:00000000000084f0 .LASF1008
C:\Users\SOLDER~1\AppData\Local\Temp\cchmqEOm.s:30370  .debug_str:0000000000024679 .LASF1009
GAS LISTING C:\Users\SOLDER~1\AppData\Local\Temp\cchmqEOm.s 			page 92


C:\Users\SOLDER~1\AppData\Local\Temp\cchmqEOm.s:32738  .debug_str:000000000002e062 .LASF1010
C:\Users\SOLDER~1\AppData\Local\Temp\cchmqEOm.s:25858  .debug_str:00000000000121d2 .LASF1011
C:\Users\SOLDER~1\AppData\Local\Temp\cchmqEOm.s:30952  .debug_str:0000000000026ce5 .LASF1012
C:\Users\SOLDER~1\AppData\Local\Temp\cchmqEOm.s:33028  .debug_str:000000000002f299 .LASF1013
C:\Users\SOLDER~1\AppData\Local\Temp\cchmqEOm.s:31444  .debug_str:0000000000028ca6 .LASF1014
C:\Users\SOLDER~1\AppData\Local\Temp\cchmqEOm.s:28484  .debug_str:000000000001cc87 .LASF1015
C:\Users\SOLDER~1\AppData\Local\Temp\cchmqEOm.s:29040  .debug_str:000000000001f0ef .LASF1016
C:\Users\SOLDER~1\AppData\Local\Temp\cchmqEOm.s:23926  .debug_str:000000000000a3da .LASF1017
C:\Users\SOLDER~1\AppData\Local\Temp\cchmqEOm.s:26620  .debug_str:0000000000015432 .LASF1018
C:\Users\SOLDER~1\AppData\Local\Temp\cchmqEOm.s:31088  .debug_str:0000000000027604 .LASF1019
C:\Users\SOLDER~1\AppData\Local\Temp\cchmqEOm.s:24192  .debug_str:000000000000b53f .LASF1020
C:\Users\SOLDER~1\AppData\Local\Temp\cchmqEOm.s:25832  .debug_str:0000000000012026 .LASF1021
C:\Users\SOLDER~1\AppData\Local\Temp\cchmqEOm.s:27938  .debug_str:000000000001a954 .LASF1022
C:\Users\SOLDER~1\AppData\Local\Temp\cchmqEOm.s:22134  .debug_str:000000000000307a .LASF1023
C:\Users\SOLDER~1\AppData\Local\Temp\cchmqEOm.s:31140  .debug_str:0000000000027950 .LASF1024
C:\Users\SOLDER~1\AppData\Local\Temp\cchmqEOm.s:30108  .debug_str:000000000002354e .LASF1025
C:\Users\SOLDER~1\AppData\Local\Temp\cchmqEOm.s:28742  .debug_str:000000000001ddac .LASF1026
C:\Users\SOLDER~1\AppData\Local\Temp\cchmqEOm.s:24750  .debug_str:000000000000da43 .LASF1027
C:\Users\SOLDER~1\AppData\Local\Temp\cchmqEOm.s:26336  .debug_str:000000000001416c .LASF1028
C:\Users\SOLDER~1\AppData\Local\Temp\cchmqEOm.s:31920  .debug_str:000000000002ab57 .LASF1029
C:\Users\SOLDER~1\AppData\Local\Temp\cchmqEOm.s:23898  .debug_str:000000000000a208 .LASF1030
C:\Users\SOLDER~1\AppData\Local\Temp\cchmqEOm.s:23496  .debug_str:000000000000879d .LASF1031
C:\Users\SOLDER~1\AppData\Local\Temp\cchmqEOm.s:21522  .debug_str:0000000000000895 .LASF1032
C:\Users\SOLDER~1\AppData\Local\Temp\cchmqEOm.s:22842  .debug_str:0000000000005ce3 .LASF1033
C:\Users\SOLDER~1\AppData\Local\Temp\cchmqEOm.s:22622  .debug_str:0000000000004f3f .LASF1034
C:\Users\SOLDER~1\AppData\Local\Temp\cchmqEOm.s:29986  .debug_str:0000000000022d80 .LASF1035
C:\Users\SOLDER~1\AppData\Local\Temp\cchmqEOm.s:31904  .debug_str:000000000002aa54 .LASF1036
C:\Users\SOLDER~1\AppData\Local\Temp\cchmqEOm.s:25588  .debug_str:0000000000011071 .LASF1037
C:\Users\SOLDER~1\AppData\Local\Temp\cchmqEOm.s:29490  .debug_str:0000000000020e04 .LASF1038
C:\Users\SOLDER~1\AppData\Local\Temp\cchmqEOm.s:30498  .debug_str:0000000000024ef6 .LASF1039
C:\Users\SOLDER~1\AppData\Local\Temp\cchmqEOm.s:23790  .debug_str:0000000000009b0c .LASF1040
C:\Users\SOLDER~1\AppData\Local\Temp\cchmqEOm.s:22544  .debug_str:0000000000004a5d .LASF1041
C:\Users\SOLDER~1\AppData\Local\Temp\cchmqEOm.s:25442  .debug_str:0000000000010739 .LASF1042
C:\Users\SOLDER~1\AppData\Local\Temp\cchmqEOm.s:31568  .debug_str:0000000000029465 .LASF1043
C:\Users\SOLDER~1\AppData\Local\Temp\cchmqEOm.s:29286  .debug_str:0000000000020110 .LASF1044
C:\Users\SOLDER~1\AppData\Local\Temp\cchmqEOm.s:26786  .debug_str:0000000000015ef8 .LASF1045
C:\Users\SOLDER~1\AppData\Local\Temp\cchmqEOm.s:22330  .debug_str:0000000000003cfe .LASF1046
C:\Users\SOLDER~1\AppData\Local\Temp\cchmqEOm.s:30984  .debug_str:0000000000026f25 .LASF1047
C:\Users\SOLDER~1\AppData\Local\Temp\cchmqEOm.s:22934  .debug_str:000000000000631e .LASF1048
C:\Users\SOLDER~1\AppData\Local\Temp\cchmqEOm.s:27166  .debug_str:0000000000017730 .LASF1049
C:\Users\SOLDER~1\AppData\Local\Temp\cchmqEOm.s:25842  .debug_str:00000000000120b2 .LASF1050
C:\Users\SOLDER~1\AppData\Local\Temp\cchmqEOm.s:28562  .debug_str:000000000001d1de .LASF1051
C:\Users\SOLDER~1\AppData\Local\Temp\cchmqEOm.s:30972  .debug_str:0000000000026e5e .LASF1052
C:\Users\SOLDER~1\AppData\Local\Temp\cchmqEOm.s:25022  .debug_str:000000000000ec15 .LASF1053
C:\Users\SOLDER~1\AppData\Local\Temp\cchmqEOm.s:28384  .debug_str:000000000001c5ef .LASF1054
C:\Users\SOLDER~1\AppData\Local\Temp\cchmqEOm.s:22630  .debug_str:0000000000004f9f .LASF1055
C:\Users\SOLDER~1\AppData\Local\Temp\cchmqEOm.s:29676  .debug_str:0000000000021a35 .LASF1056
C:\Users\SOLDER~1\AppData\Local\Temp\cchmqEOm.s:29766  .debug_str:0000000000021f97 .LASF1057
C:\Users\SOLDER~1\AppData\Local\Temp\cchmqEOm.s:28724  .debug_str:000000000001dc99 .LASF1058
C:\Users\SOLDER~1\AppData\Local\Temp\cchmqEOm.s:31768  .debug_str:000000000002a133 .LASF1059
C:\Users\SOLDER~1\AppData\Local\Temp\cchmqEOm.s:29686  .debug_str:0000000000021abc .LASF1060
C:\Users\SOLDER~1\AppData\Local\Temp\cchmqEOm.s:29446  .debug_str:0000000000020b36 .LASF1061
C:\Users\SOLDER~1\AppData\Local\Temp\cchmqEOm.s:32682  .debug_str:000000000002dccd .LASF1062
C:\Users\SOLDER~1\AppData\Local\Temp\cchmqEOm.s:22998  .debug_str:0000000000006772 .LASF1063
C:\Users\SOLDER~1\AppData\Local\Temp\cchmqEOm.s:25348  .debug_str:000000000001012e .LASF1064
C:\Users\SOLDER~1\AppData\Local\Temp\cchmqEOm.s:30100  .debug_str:00000000000234cb .LASF1065
C:\Users\SOLDER~1\AppData\Local\Temp\cchmqEOm.s:30122  .debug_str:0000000000023613 .LASF1066
GAS LISTING C:\Users\SOLDER~1\AppData\Local\Temp\cchmqEOm.s 			page 93


C:\Users\SOLDER~1\AppData\Local\Temp\cchmqEOm.s:24752  .debug_str:000000000000da5a .LASF1067
C:\Users\SOLDER~1\AppData\Local\Temp\cchmqEOm.s:32914  .debug_str:000000000002eb67 .LASF1068
C:\Users\SOLDER~1\AppData\Local\Temp\cchmqEOm.s:26054  .debug_str:0000000000012e0c .LASF1069
C:\Users\SOLDER~1\AppData\Local\Temp\cchmqEOm.s:29970  .debug_str:0000000000022c69 .LASF1070
C:\Users\SOLDER~1\AppData\Local\Temp\cchmqEOm.s:28638  .debug_str:000000000001d6c9 .LASF1071
C:\Users\SOLDER~1\AppData\Local\Temp\cchmqEOm.s:25562  .debug_str:0000000000010eab .LASF1072
C:\Users\SOLDER~1\AppData\Local\Temp\cchmqEOm.s:30216  .debug_str:0000000000023c8a .LASF1073
C:\Users\SOLDER~1\AppData\Local\Temp\cchmqEOm.s:21544  .debug_str:0000000000000a34 .LASF1074
C:\Users\SOLDER~1\AppData\Local\Temp\cchmqEOm.s:27892  .debug_str:000000000001a67a .LASF1075
C:\Users\SOLDER~1\AppData\Local\Temp\cchmqEOm.s:23308  .debug_str:0000000000007b42 .LASF1076
C:\Users\SOLDER~1\AppData\Local\Temp\cchmqEOm.s:24550  .debug_str:000000000000cd14 .LASF1077
C:\Users\SOLDER~1\AppData\Local\Temp\cchmqEOm.s:21998  .debug_str:000000000000279b .LASF1078
C:\Users\SOLDER~1\AppData\Local\Temp\cchmqEOm.s:30676  .debug_str:0000000000025a81 .LASF1079
C:\Users\SOLDER~1\AppData\Local\Temp\cchmqEOm.s:23612  .debug_str:0000000000008f66 .LASF1080
C:\Users\SOLDER~1\AppData\Local\Temp\cchmqEOm.s:26016  .debug_str:0000000000012b78 .LASF1081
C:\Users\SOLDER~1\AppData\Local\Temp\cchmqEOm.s:29526  .debug_str:0000000000021033 .LASF1082
C:\Users\SOLDER~1\AppData\Local\Temp\cchmqEOm.s:28970  .debug_str:000000000001ec32 .LASF1083
C:\Users\SOLDER~1\AppData\Local\Temp\cchmqEOm.s:26866  .debug_str:0000000000016437 .LASF1084
C:\Users\SOLDER~1\AppData\Local\Temp\cchmqEOm.s:22846  .debug_str:0000000000005d1f .LASF1085
C:\Users\SOLDER~1\AppData\Local\Temp\cchmqEOm.s:30084  .debug_str:00000000000233bc .LASF1086
C:\Users\SOLDER~1\AppData\Local\Temp\cchmqEOm.s:31848  .debug_str:000000000002a67c .LASF1087
C:\Users\SOLDER~1\AppData\Local\Temp\cchmqEOm.s:29670  .debug_str:00000000000219d1 .LASF1088
C:\Users\SOLDER~1\AppData\Local\Temp\cchmqEOm.s:22816  .debug_str:0000000000005b43 .LASF1089
C:\Users\SOLDER~1\AppData\Local\Temp\cchmqEOm.s:30996  .debug_str:0000000000026fc9 .LASF1090
C:\Users\SOLDER~1\AppData\Local\Temp\cchmqEOm.s:28812  .debug_str:000000000001e1de .LASF1091
C:\Users\SOLDER~1\AppData\Local\Temp\cchmqEOm.s:23182  .debug_str:000000000000736f .LASF1092
C:\Users\SOLDER~1\AppData\Local\Temp\cchmqEOm.s:27318  .debug_str:0000000000018111 .LASF1093
C:\Users\SOLDER~1\AppData\Local\Temp\cchmqEOm.s:24720  .debug_str:000000000000d83b .LASF1094
C:\Users\SOLDER~1\AppData\Local\Temp\cchmqEOm.s:21750  .debug_str:0000000000001777 .LASF1095
C:\Users\SOLDER~1\AppData\Local\Temp\cchmqEOm.s:22906  .debug_str:0000000000006114 .LASF1096
C:\Users\SOLDER~1\AppData\Local\Temp\cchmqEOm.s:30106  .debug_str:0000000000023527 .LASF1097
C:\Users\SOLDER~1\AppData\Local\Temp\cchmqEOm.s:29392  .debug_str:00000000000207a5 .LASF1098
C:\Users\SOLDER~1\AppData\Local\Temp\cchmqEOm.s:23144  .debug_str:00000000000070f4 .LASF1099
C:\Users\SOLDER~1\AppData\Local\Temp\cchmqEOm.s:26630  .debug_str:00000000000154f6 .LASF1100
C:\Users\SOLDER~1\AppData\Local\Temp\cchmqEOm.s:30350  .debug_str:000000000002451d .LASF1101
C:\Users\SOLDER~1\AppData\Local\Temp\cchmqEOm.s:32042  .debug_str:000000000002b318 .LASF1102
C:\Users\SOLDER~1\AppData\Local\Temp\cchmqEOm.s:21608  .debug_str:0000000000000e9d .LASF1103
C:\Users\SOLDER~1\AppData\Local\Temp\cchmqEOm.s:21718  .debug_str:0000000000001594 .LASF1104
C:\Users\SOLDER~1\AppData\Local\Temp\cchmqEOm.s:29318  .debug_str:0000000000020313 .LASF1105
C:\Users\SOLDER~1\AppData\Local\Temp\cchmqEOm.s:22792  .debug_str:000000000000599a .LASF1106
C:\Users\SOLDER~1\AppData\Local\Temp\cchmqEOm.s:24346  .debug_str:000000000000bf61 .LASF1107
C:\Users\SOLDER~1\AppData\Local\Temp\cchmqEOm.s:21792  .debug_str:0000000000001a05 .LASF1108
C:\Users\SOLDER~1\AppData\Local\Temp\cchmqEOm.s:29408  .debug_str:00000000000208ac .LASF1109
C:\Users\SOLDER~1\AppData\Local\Temp\cchmqEOm.s:22880  .debug_str:0000000000005f5f .LASF1110
C:\Users\SOLDER~1\AppData\Local\Temp\cchmqEOm.s:23394  .debug_str:0000000000008124 .LASF1111
C:\Users\SOLDER~1\AppData\Local\Temp\cchmqEOm.s:23878  .debug_str:000000000000a0aa .LASF1112
C:\Users\SOLDER~1\AppData\Local\Temp\cchmqEOm.s:24318  .debug_str:000000000000bdb0 .LASF1113
C:\Users\SOLDER~1\AppData\Local\Temp\cchmqEOm.s:31348  .debug_str:000000000002866a .LASF1114
C:\Users\SOLDER~1\AppData\Local\Temp\cchmqEOm.s:23538  .debug_str:0000000000008a44 .LASF1115
C:\Users\SOLDER~1\AppData\Local\Temp\cchmqEOm.s:31058  .debug_str:00000000000273c8 .LASF1116
C:\Users\SOLDER~1\AppData\Local\Temp\cchmqEOm.s:32528  .debug_str:000000000002d2ad .LASF1117
C:\Users\SOLDER~1\AppData\Local\Temp\cchmqEOm.s:32008  .debug_str:000000000002b0e9 .LASF1118
C:\Users\SOLDER~1\AppData\Local\Temp\cchmqEOm.s:26278  .debug_str:0000000000013d5e .LASF1119
C:\Users\SOLDER~1\AppData\Local\Temp\cchmqEOm.s:22546  .debug_str:0000000000004a6e .LASF1120
C:\Users\SOLDER~1\AppData\Local\Temp\cchmqEOm.s:32564  .debug_str:000000000002d501 .LASF1121
C:\Users\SOLDER~1\AppData\Local\Temp\cchmqEOm.s:23652  .debug_str:00000000000091ec .LASF1122
C:\Users\SOLDER~1\AppData\Local\Temp\cchmqEOm.s:32178  .debug_str:000000000002bc00 .LASF1123
GAS LISTING C:\Users\SOLDER~1\AppData\Local\Temp\cchmqEOm.s 			page 94


C:\Users\SOLDER~1\AppData\Local\Temp\cchmqEOm.s:26522  .debug_str:0000000000014de3 .LASF1124
C:\Users\SOLDER~1\AppData\Local\Temp\cchmqEOm.s:24208  .debug_str:000000000000b674 .LASF1125
C:\Users\SOLDER~1\AppData\Local\Temp\cchmqEOm.s:32714  .debug_str:000000000002dee2 .LASF1126
C:\Users\SOLDER~1\AppData\Local\Temp\cchmqEOm.s:30808  .debug_str:0000000000026313 .LASF1127
C:\Users\SOLDER~1\AppData\Local\Temp\cchmqEOm.s:29866  .debug_str:0000000000022606 .LASF1128
C:\Users\SOLDER~1\AppData\Local\Temp\cchmqEOm.s:27506  .debug_str:0000000000018d7d .LASF1129
C:\Users\SOLDER~1\AppData\Local\Temp\cchmqEOm.s:28122  .debug_str:000000000001b566 .LASF1130
C:\Users\SOLDER~1\AppData\Local\Temp\cchmqEOm.s:23550  .debug_str:0000000000008b37 .LASF1131
C:\Users\SOLDER~1\AppData\Local\Temp\cchmqEOm.s:29162  .debug_str:000000000001f8cc .LASF1132
C:\Users\SOLDER~1\AppData\Local\Temp\cchmqEOm.s:24122  .debug_str:000000000000b0d1 .LASF1133
C:\Users\SOLDER~1\AppData\Local\Temp\cchmqEOm.s:27154  .debug_str:0000000000017663 .LASF1134
C:\Users\SOLDER~1\AppData\Local\Temp\cchmqEOm.s:26520  .debug_str:0000000000014dbe .LASF1135
C:\Users\SOLDER~1\AppData\Local\Temp\cchmqEOm.s:27164  .debug_str:000000000001770b .LASF1136
C:\Users\SOLDER~1\AppData\Local\Temp\cchmqEOm.s:31248  .debug_str:0000000000027ff2 .LASF1137
C:\Users\SOLDER~1\AppData\Local\Temp\cchmqEOm.s:29098  .debug_str:000000000001f482 .LASF1138
C:\Users\SOLDER~1\AppData\Local\Temp\cchmqEOm.s:30412  .debug_str:0000000000024934 .LASF1139
C:\Users\SOLDER~1\AppData\Local\Temp\cchmqEOm.s:21940  .debug_str:00000000000023d3 .LASF1140
C:\Users\SOLDER~1\AppData\Local\Temp\cchmqEOm.s:30678  .debug_str:0000000000025aa9 .LASF1141
C:\Users\SOLDER~1\AppData\Local\Temp\cchmqEOm.s:29980  .debug_str:0000000000022d20 .LASF1142
C:\Users\SOLDER~1\AppData\Local\Temp\cchmqEOm.s:28490  .debug_str:000000000001cce0 .LASF1143
C:\Users\SOLDER~1\AppData\Local\Temp\cchmqEOm.s:32270  .debug_str:000000000002c1e8 .LASF1144
C:\Users\SOLDER~1\AppData\Local\Temp\cchmqEOm.s:28990  .debug_str:000000000001eda4 .LASF1145
C:\Users\SOLDER~1\AppData\Local\Temp\cchmqEOm.s:28750  .debug_str:000000000001de26 .LASF1146
C:\Users\SOLDER~1\AppData\Local\Temp\cchmqEOm.s:27040  .debug_str:0000000000016f0b .LASF1147
C:\Users\SOLDER~1\AppData\Local\Temp\cchmqEOm.s:32388  .debug_str:000000000002c9b2 .LASF1148
C:\Users\SOLDER~1\AppData\Local\Temp\cchmqEOm.s:24394  .debug_str:000000000000c27f .LASF1149
C:\Users\SOLDER~1\AppData\Local\Temp\cchmqEOm.s:26762  .debug_str:0000000000015d7e .LASF1150
C:\Users\SOLDER~1\AppData\Local\Temp\cchmqEOm.s:28544  .debug_str:000000000001d094 .LASF1151
C:\Users\SOLDER~1\AppData\Local\Temp\cchmqEOm.s:25576  .debug_str:0000000000010f93 .LASF1152
C:\Users\SOLDER~1\AppData\Local\Temp\cchmqEOm.s:31150  .debug_str:00000000000279e4 .LASF1153
C:\Users\SOLDER~1\AppData\Local\Temp\cchmqEOm.s:27408  .debug_str:0000000000018728 .LASF1154
C:\Users\SOLDER~1\AppData\Local\Temp\cchmqEOm.s:26518  .debug_str:0000000000014d95 .LASF1155
C:\Users\SOLDER~1\AppData\Local\Temp\cchmqEOm.s:26288  .debug_str:0000000000013e30 .LASF1156
C:\Users\SOLDER~1\AppData\Local\Temp\cchmqEOm.s:29436  .debug_str:0000000000020a7b .LASF1157
C:\Users\SOLDER~1\AppData\Local\Temp\cchmqEOm.s:32826  .debug_str:000000000002e60a .LASF1158
C:\Users\SOLDER~1\AppData\Local\Temp\cchmqEOm.s:32834  .debug_str:000000000002e670 .LASF1159
C:\Users\SOLDER~1\AppData\Local\Temp\cchmqEOm.s:31408  .debug_str:0000000000028a5b .LASF1160
C:\Users\SOLDER~1\AppData\Local\Temp\cchmqEOm.s:27672  .debug_str:000000000001986a .LASF1161
C:\Users\SOLDER~1\AppData\Local\Temp\cchmqEOm.s:27436  .debug_str:00000000000188e7 .LASF1162
C:\Users\SOLDER~1\AppData\Local\Temp\cchmqEOm.s:31234  .debug_str:0000000000027f1c .LASF1163
C:\Users\SOLDER~1\AppData\Local\Temp\cchmqEOm.s:25632  .debug_str:000000000001132c .LASF1164
C:\Users\SOLDER~1\AppData\Local\Temp\cchmqEOm.s:31168  .debug_str:0000000000027b12 .LASF1165
C:\Users\SOLDER~1\AppData\Local\Temp\cchmqEOm.s:32886  .debug_str:000000000002e99a .LASF1166
C:\Users\SOLDER~1\AppData\Local\Temp\cchmqEOm.s:29220  .debug_str:000000000001fcd7 .LASF1167
C:\Users\SOLDER~1\AppData\Local\Temp\cchmqEOm.s:26156  .debug_str:00000000000134be .LASF1168
C:\Users\SOLDER~1\AppData\Local\Temp\cchmqEOm.s:31720  .debug_str:0000000000029e1b .LASF1169
C:\Users\SOLDER~1\AppData\Local\Temp\cchmqEOm.s:23590  .debug_str:0000000000008dc2 .LASF1170
C:\Users\SOLDER~1\AppData\Local\Temp\cchmqEOm.s:29722  .debug_str:0000000000021cfe .LASF1171
C:\Users\SOLDER~1\AppData\Local\Temp\cchmqEOm.s:30576  .debug_str:0000000000025426 .LASF1172
C:\Users\SOLDER~1\AppData\Local\Temp\cchmqEOm.s:29046  .debug_str:000000000001f14f .LASF1173
C:\Users\SOLDER~1\AppData\Local\Temp\cchmqEOm.s:27422  .debug_str:0000000000018813 .LASF1174
C:\Users\SOLDER~1\AppData\Local\Temp\cchmqEOm.s:25372  .debug_str:00000000000102ad .LASF1175
C:\Users\SOLDER~1\AppData\Local\Temp\cchmqEOm.s:29254  .debug_str:000000000001ff23 .LASF1176
C:\Users\SOLDER~1\AppData\Local\Temp\cchmqEOm.s:26292  .debug_str:0000000000013e7c .LASF1177
C:\Users\SOLDER~1\AppData\Local\Temp\cchmqEOm.s:26036  .debug_str:0000000000012ce0 .LASF1178
C:\Users\SOLDER~1\AppData\Local\Temp\cchmqEOm.s:23870  .debug_str:000000000000a023 .LASF1179
C:\Users\SOLDER~1\AppData\Local\Temp\cchmqEOm.s:25254  .debug_str:000000000000faa0 .LASF1180
GAS LISTING C:\Users\SOLDER~1\AppData\Local\Temp\cchmqEOm.s 			page 95


C:\Users\SOLDER~1\AppData\Local\Temp\cchmqEOm.s:27344  .debug_str:00000000000182d6 .LASF1181
C:\Users\SOLDER~1\AppData\Local\Temp\cchmqEOm.s:30848  .debug_str:00000000000265ea .LASF1182
C:\Users\SOLDER~1\AppData\Local\Temp\cchmqEOm.s:25436  .debug_str:00000000000106cf .LASF1183
C:\Users\SOLDER~1\AppData\Local\Temp\cchmqEOm.s:31066  .debug_str:000000000002745d .LASF1184
C:\Users\SOLDER~1\AppData\Local\Temp\cchmqEOm.s:27948  .debug_str:000000000001a9f4 .LASF1185
C:\Users\SOLDER~1\AppData\Local\Temp\cchmqEOm.s:31492  .debug_str:0000000000028fbc .LASF1186
C:\Users\SOLDER~1\AppData\Local\Temp\cchmqEOm.s:25946  .debug_str:0000000000012712 .LASF1187
C:\Users\SOLDER~1\AppData\Local\Temp\cchmqEOm.s:23962  .debug_str:000000000000a630 .LASF1188
C:\Users\SOLDER~1\AppData\Local\Temp\cchmqEOm.s:23292  .debug_str:0000000000007a49 .LASF1189
C:\Users\SOLDER~1\AppData\Local\Temp\cchmqEOm.s:21870  .debug_str:0000000000001f2d .LASF1190
C:\Users\SOLDER~1\AppData\Local\Temp\cchmqEOm.s:25674  .debug_str:00000000000115ca .LASF1191
C:\Users\SOLDER~1\AppData\Local\Temp\cchmqEOm.s:22364  .debug_str:0000000000003f36 .LASF1192
C:\Users\SOLDER~1\AppData\Local\Temp\cchmqEOm.s:33036  .debug_str:000000000002f313 .LASF1193
C:\Users\SOLDER~1\AppData\Local\Temp\cchmqEOm.s:27984  .debug_str:000000000001ac3f .LASF1194
C:\Users\SOLDER~1\AppData\Local\Temp\cchmqEOm.s:23132  .debug_str:0000000000007043 .LASF1195
C:\Users\SOLDER~1\AppData\Local\Temp\cchmqEOm.s:28692  .debug_str:000000000001daa4 .LASF1196
C:\Users\SOLDER~1\AppData\Local\Temp\cchmqEOm.s:32260  .debug_str:000000000002c132 .LASF1197
C:\Users\SOLDER~1\AppData\Local\Temp\cchmqEOm.s:26728  .debug_str:0000000000015b3d .LASF1198
C:\Users\SOLDER~1\AppData\Local\Temp\cchmqEOm.s:23754  .debug_str:00000000000098a6 .LASF1199
C:\Users\SOLDER~1\AppData\Local\Temp\cchmqEOm.s:29244  .debug_str:000000000001fe61 .LASF1200
C:\Users\SOLDER~1\AppData\Local\Temp\cchmqEOm.s:32816  .debug_str:000000000002e55d .LASF1201
C:\Users\SOLDER~1\AppData\Local\Temp\cchmqEOm.s:27374  .debug_str:00000000000184fb .LASF1202
C:\Users\SOLDER~1\AppData\Local\Temp\cchmqEOm.s:22696  .debug_str:0000000000005389 .LASF1203
C:\Users\SOLDER~1\AppData\Local\Temp\cchmqEOm.s:21926  .debug_str:00000000000022de .LASF1204
C:\Users\SOLDER~1\AppData\Local\Temp\cchmqEOm.s:26112  .debug_str:00000000000131d4 .LASF1205
C:\Users\SOLDER~1\AppData\Local\Temp\cchmqEOm.s:29968  .debug_str:0000000000022c42 .LASF1206
C:\Users\SOLDER~1\AppData\Local\Temp\cchmqEOm.s:32726  .debug_str:000000000002dfa5 .LASF1207
C:\Users\SOLDER~1\AppData\Local\Temp\cchmqEOm.s:31666  .debug_str:0000000000029aaf .LASF1208
C:\Users\SOLDER~1\AppData\Local\Temp\cchmqEOm.s:32210  .debug_str:000000000002be16 .LASF1209
C:\Users\SOLDER~1\AppData\Local\Temp\cchmqEOm.s:31018  .debug_str:0000000000027164 .LASF1210
C:\Users\SOLDER~1\AppData\Local\Temp\cchmqEOm.s:24904  .debug_str:000000000000e457 .LASF1211
C:\Users\SOLDER~1\AppData\Local\Temp\cchmqEOm.s:28392  .debug_str:000000000001c663 .LASF1212
C:\Users\SOLDER~1\AppData\Local\Temp\cchmqEOm.s:22928  .debug_str:00000000000062b7 .LASF1213
C:\Users\SOLDER~1\AppData\Local\Temp\cchmqEOm.s:32080  .debug_str:000000000002b569 .LASF1214
C:\Users\SOLDER~1\AppData\Local\Temp\cchmqEOm.s:22786  .debug_str:0000000000005935 .LASF1215
C:\Users\SOLDER~1\AppData\Local\Temp\cchmqEOm.s:29016  .debug_str:000000000001ef5d .LASF1216
C:\Users\SOLDER~1\AppData\Local\Temp\cchmqEOm.s:23564  .debug_str:0000000000008c1f .LASF1217
C:\Users\SOLDER~1\AppData\Local\Temp\cchmqEOm.s:22148  .debug_str:000000000000314b .LASF1218
C:\Users\SOLDER~1\AppData\Local\Temp\cchmqEOm.s:30258  .debug_str:0000000000023f47 .LASF1219
C:\Users\SOLDER~1\AppData\Local\Temp\cchmqEOm.s:29974  .debug_str:0000000000022ca2 .LASF1220
C:\Users\SOLDER~1\AppData\Local\Temp\cchmqEOm.s:29426  .debug_str:00000000000209d0 .LASF1221
C:\Users\SOLDER~1\AppData\Local\Temp\cchmqEOm.s:26008  .debug_str:0000000000012b04 .LASF1222
C:\Users\SOLDER~1\AppData\Local\Temp\cchmqEOm.s:22784  .debug_str:0000000000005912 .LASF1223
C:\Users\SOLDER~1\AppData\Local\Temp\cchmqEOm.s:24242  .debug_str:000000000000b88c .LASF1224
C:\Users\SOLDER~1\AppData\Local\Temp\cchmqEOm.s:27682  .debug_str:0000000000019924 .LASF1225
C:\Users\SOLDER~1\AppData\Local\Temp\cchmqEOm.s:25164  .debug_str:000000000000f4d0 .LASF1226
C:\Users\SOLDER~1\AppData\Local\Temp\cchmqEOm.s:30396  .debug_str:000000000002482e .LASF1227
C:\Users\SOLDER~1\AppData\Local\Temp\cchmqEOm.s:24108  .debug_str:000000000000afe3 .LASF1228
C:\Users\SOLDER~1\AppData\Local\Temp\cchmqEOm.s:25208  .debug_str:000000000000f79c .LASF1229
C:\Users\SOLDER~1\AppData\Local\Temp\cchmqEOm.s:31236  .debug_str:0000000000027f44 .LASF1230
C:\Users\SOLDER~1\AppData\Local\Temp\cchmqEOm.s:26194  .debug_str:0000000000013745 .LASF1231
C:\Users\SOLDER~1\AppData\Local\Temp\cchmqEOm.s:27354  .debug_str:000000000001839f .LASF1232
C:\Users\SOLDER~1\AppData\Local\Temp\cchmqEOm.s:25534  .debug_str:0000000000010d08 .LASF1233
C:\Users\SOLDER~1\AppData\Local\Temp\cchmqEOm.s:23080  .debug_str:0000000000006ca1 .LASF1234
C:\Users\SOLDER~1\AppData\Local\Temp\cchmqEOm.s:26246  .debug_str:0000000000013ae7 .LASF1235
C:\Users\SOLDER~1\AppData\Local\Temp\cchmqEOm.s:22716  .debug_str:00000000000054aa .LASF1236
C:\Users\SOLDER~1\AppData\Local\Temp\cchmqEOm.s:30990  .debug_str:0000000000026f66 .LASF1237
GAS LISTING C:\Users\SOLDER~1\AppData\Local\Temp\cchmqEOm.s 			page 96


C:\Users\SOLDER~1\AppData\Local\Temp\cchmqEOm.s:27822  .debug_str:000000000001a217 .LASF1238
C:\Users\SOLDER~1\AppData\Local\Temp\cchmqEOm.s:24940  .debug_str:000000000000e6c8 .LASF1239
C:\Users\SOLDER~1\AppData\Local\Temp\cchmqEOm.s:32646  .debug_str:000000000002dab3 .LASF1240
C:\Users\SOLDER~1\AppData\Local\Temp\cchmqEOm.s:30142  .debug_str:0000000000023770 .LASF1241
C:\Users\SOLDER~1\AppData\Local\Temp\cchmqEOm.s:28804  .debug_str:000000000001e169 .LASF1242
C:\Users\SOLDER~1\AppData\Local\Temp\cchmqEOm.s:29034  .debug_str:000000000001f08f .LASF1243
C:\Users\SOLDER~1\AppData\Local\Temp\cchmqEOm.s:22132  .debug_str:0000000000003057 .LASF1244
C:\Users\SOLDER~1\AppData\Local\Temp\cchmqEOm.s:24890  .debug_str:000000000000e359 .LASF1245
C:\Users\SOLDER~1\AppData\Local\Temp\cchmqEOm.s:31516  .debug_str:000000000002914c .LASF1246
C:\Users\SOLDER~1\AppData\Local\Temp\cchmqEOm.s:31046  .debug_str:0000000000027321 .LASF1247
C:\Users\SOLDER~1\AppData\Local\Temp\cchmqEOm.s:30824  .debug_str:000000000002642e .LASF1248
C:\Users\SOLDER~1\AppData\Local\Temp\cchmqEOm.s:30862  .debug_str:00000000000266d2 .LASF1249
C:\Users\SOLDER~1\AppData\Local\Temp\cchmqEOm.s:24464  .debug_str:000000000000c772 .LASF1250
C:\Users\SOLDER~1\AppData\Local\Temp\cchmqEOm.s:32668  .debug_str:000000000002dbeb .LASF1251
C:\Users\SOLDER~1\AppData\Local\Temp\cchmqEOm.s:29264  .debug_str:000000000001ffa3 .LASF1252
C:\Users\SOLDER~1\AppData\Local\Temp\cchmqEOm.s:26024  .debug_str:0000000000012bfc .LASF1253
C:\Users\SOLDER~1\AppData\Local\Temp\cchmqEOm.s:28092  .debug_str:000000000001b38d .LASF1254
C:\Users\SOLDER~1\AppData\Local\Temp\cchmqEOm.s:30856  .debug_str:0000000000026667 .LASF1255
C:\Users\SOLDER~1\AppData\Local\Temp\cchmqEOm.s:28410  .debug_str:000000000001c7a8 .LASF1256
C:\Users\SOLDER~1\AppData\Local\Temp\cchmqEOm.s:27074  .debug_str:00000000000170e1 .LASF1257
C:\Users\SOLDER~1\AppData\Local\Temp\cchmqEOm.s:27388  .debug_str:00000000000185fa .LASF1258
C:\Users\SOLDER~1\AppData\Local\Temp\cchmqEOm.s:32060  .debug_str:000000000002b41c .LASF1259
C:\Users\SOLDER~1\AppData\Local\Temp\cchmqEOm.s:24264  .debug_str:000000000000b9ee .LASF1260
C:\Users\SOLDER~1\AppData\Local\Temp\cchmqEOm.s:30872  .debug_str:0000000000026783 .LASF1261
C:\Users\SOLDER~1\AppData\Local\Temp\cchmqEOm.s:23536  .debug_str:0000000000008a1f .LASF1262
C:\Users\SOLDER~1\AppData\Local\Temp\cchmqEOm.s:30116  .debug_str:00000000000235b7 .LASF1263
C:\Users\SOLDER~1\AppData\Local\Temp\cchmqEOm.s:27890  .debug_str:000000000001a65a .LASF1264
C:\Users\SOLDER~1\AppData\Local\Temp\cchmqEOm.s:30080  .debug_str:000000000002338a .LASF1265
C:\Users\SOLDER~1\AppData\Local\Temp\cchmqEOm.s:26594  .debug_str:0000000000015289 .LASF1266
C:\Users\SOLDER~1\AppData\Local\Temp\cchmqEOm.s:23186  .debug_str:00000000000073a9 .LASF1267
C:\Users\SOLDER~1\AppData\Local\Temp\cchmqEOm.s:31654  .debug_str:00000000000299d5 .LASF1268
C:\Users\SOLDER~1\AppData\Local\Temp\cchmqEOm.s:22000  .debug_str:00000000000027bb .LASF1269
C:\Users\SOLDER~1\AppData\Local\Temp\cchmqEOm.s:24800  .debug_str:000000000000dd1a .LASF1270
C:\Users\SOLDER~1\AppData\Local\Temp\cchmqEOm.s:22324  .debug_str:0000000000003c9a .LASF1271
C:\Users\SOLDER~1\AppData\Local\Temp\cchmqEOm.s:30434  .debug_str:0000000000024ab6 .LASF1272
C:\Users\SOLDER~1\AppData\Local\Temp\cchmqEOm.s:32998  .debug_str:000000000002f0cb .LASF1273
C:\Users\SOLDER~1\AppData\Local\Temp\cchmqEOm.s:26084  .debug_str:0000000000013012 .LASF1274
C:\Users\SOLDER~1\AppData\Local\Temp\cchmqEOm.s:27966  .debug_str:000000000001ab09 .LASF1275
C:\Users\SOLDER~1\AppData\Local\Temp\cchmqEOm.s:22948  .debug_str:0000000000006407 .LASF1276
C:\Users\SOLDER~1\AppData\Local\Temp\cchmqEOm.s:24076  .debug_str:000000000000adaf .LASF1277
C:\Users\SOLDER~1\AppData\Local\Temp\cchmqEOm.s:22276  .debug_str:000000000000396f .LASF1278
C:\Users\SOLDER~1\AppData\Local\Temp\cchmqEOm.s:21802  .debug_str:0000000000001aa8 .LASF1279
C:\Users\SOLDER~1\AppData\Local\Temp\cchmqEOm.s:23212  .debug_str:000000000000754c .LASF1280
C:\Users\SOLDER~1\AppData\Local\Temp\cchmqEOm.s:22396  .debug_str:000000000000411c .LASF1281
C:\Users\SOLDER~1\AppData\Local\Temp\cchmqEOm.s:25772  .debug_str:0000000000011c3e .LASF1282
C:\Users\SOLDER~1\AppData\Local\Temp\cchmqEOm.s:31914  .debug_str:000000000002aaf4 .LASF1283
C:\Users\SOLDER~1\AppData\Local\Temp\cchmqEOm.s:27020  .debug_str:0000000000016dc7 .LASF1284
C:\Users\SOLDER~1\AppData\Local\Temp\cchmqEOm.s:24838  .debug_str:000000000000df9c .LASF1285
C:\Users\SOLDER~1\AppData\Local\Temp\cchmqEOm.s:21432  .debug_str:000000000000022c .LASF1286
C:\Users\SOLDER~1\AppData\Local\Temp\cchmqEOm.s:31314  .debug_str:0000000000028446 .LASF1287
C:\Users\SOLDER~1\AppData\Local\Temp\cchmqEOm.s:26324  .debug_str:000000000001409e .LASF1288
C:\Users\SOLDER~1\AppData\Local\Temp\cchmqEOm.s:32288  .debug_str:000000000002c307 .LASF1289
C:\Users\SOLDER~1\AppData\Local\Temp\cchmqEOm.s:25148  .debug_str:000000000000f3c3 .LASF1290
C:\Users\SOLDER~1\AppData\Local\Temp\cchmqEOm.s:24184  .debug_str:000000000000b4ac .LASF1291
C:\Users\SOLDER~1\AppData\Local\Temp\cchmqEOm.s:31908  .debug_str:000000000002aa91 .LASF1292
C:\Users\SOLDER~1\AppData\Local\Temp\cchmqEOm.s:29818  .debug_str:00000000000222d3 .LASF1293
C:\Users\SOLDER~1\AppData\Local\Temp\cchmqEOm.s:31338  .debug_str:00000000000285b7 .LASF1294
GAS LISTING C:\Users\SOLDER~1\AppData\Local\Temp\cchmqEOm.s 			page 97


C:\Users\SOLDER~1\AppData\Local\Temp\cchmqEOm.s:26648  .debug_str:000000000001560b .LASF1295
C:\Users\SOLDER~1\AppData\Local\Temp\cchmqEOm.s:24534  .debug_str:000000000000cbf8 .LASF1296
C:\Users\SOLDER~1\AppData\Local\Temp\cchmqEOm.s:32790  .debug_str:000000000002e3a9 .LASF1297
C:\Users\SOLDER~1\AppData\Local\Temp\cchmqEOm.s:23388  .debug_str:00000000000080b4 .LASF1298
C:\Users\SOLDER~1\AppData\Local\Temp\cchmqEOm.s:24810  .debug_str:000000000000ddc2 .LASF1299
C:\Users\SOLDER~1\AppData\Local\Temp\cchmqEOm.s:32166  .debug_str:000000000002bb23 .LASF1300
C:\Users\SOLDER~1\AppData\Local\Temp\cchmqEOm.s:26580  .debug_str:00000000000151b1 .LASF1301
C:\Users\SOLDER~1\AppData\Local\Temp\cchmqEOm.s:24644  .debug_str:000000000000d324 .LASF1302
C:\Users\SOLDER~1\AppData\Local\Temp\cchmqEOm.s:30126  .debug_str:0000000000023660 .LASF1303
C:\Users\SOLDER~1\AppData\Local\Temp\cchmqEOm.s:27714  .debug_str:0000000000019b75 .LASF1304
C:\Users\SOLDER~1\AppData\Local\Temp\cchmqEOm.s:28448  .debug_str:000000000001ca22 .LASF1305
C:\Users\SOLDER~1\AppData\Local\Temp\cchmqEOm.s:23860  .debug_str:0000000000009f6e .LASF1306
C:\Users\SOLDER~1\AppData\Local\Temp\cchmqEOm.s:32334  .debug_str:000000000002c626 .LASF1307
C:\Users\SOLDER~1\AppData\Local\Temp\cchmqEOm.s:31420  .debug_str:0000000000028b32 .LASF1308
C:\Users\SOLDER~1\AppData\Local\Temp\cchmqEOm.s:26310  .debug_str:0000000000013f9b .LASF1309
C:\Users\SOLDER~1\AppData\Local\Temp\cchmqEOm.s:27996  .debug_str:000000000001ad12 .LASF1310
C:\Users\SOLDER~1\AppData\Local\Temp\cchmqEOm.s:26126  .debug_str:00000000000132b9 .LASF1311
C:\Users\SOLDER~1\AppData\Local\Temp\cchmqEOm.s:32230  .debug_str:000000000002bf66 .LASF1312
C:\Users\SOLDER~1\AppData\Local\Temp\cchmqEOm.s:26756  .debug_str:0000000000015d12 .LASF1313
C:\Users\SOLDER~1\AppData\Local\Temp\cchmqEOm.s:27022  .debug_str:0000000000016deb .LASF1314
C:\Users\SOLDER~1\AppData\Local\Temp\cchmqEOm.s:33022  .debug_str:000000000002f23f .LASF1315
C:\Users\SOLDER~1\AppData\Local\Temp\cchmqEOm.s:22038  .debug_str:0000000000002a55 .LASF1316
C:\Users\SOLDER~1\AppData\Local\Temp\cchmqEOm.s:29190  .debug_str:000000000001fab7 .LASF1317
C:\Users\SOLDER~1\AppData\Local\Temp\cchmqEOm.s:25742  .debug_str:0000000000011a29 .LASF1318
C:\Users\SOLDER~1\AppData\Local\Temp\cchmqEOm.s:23952  .debug_str:000000000000a580 .LASF1319
C:\Users\SOLDER~1\AppData\Local\Temp\cchmqEOm.s:26694  .debug_str:0000000000015908 .LASF1320
C:\Users\SOLDER~1\AppData\Local\Temp\cchmqEOm.s:28508  .debug_str:000000000001ce14 .LASF1321
C:\Users\SOLDER~1\AppData\Local\Temp\cchmqEOm.s:33086  .debug_str:000000000002f60e .LASF1322
C:\Users\SOLDER~1\AppData\Local\Temp\cchmqEOm.s:32000  .debug_str:000000000002b068 .LASF1323
C:\Users\SOLDER~1\AppData\Local\Temp\cchmqEOm.s:28144  .debug_str:000000000001b697 .LASF1324
C:\Users\SOLDER~1\AppData\Local\Temp\cchmqEOm.s:26040  .debug_str:0000000000012d2c .LASF1325
C:\Users\SOLDER~1\AppData\Local\Temp\cchmqEOm.s:27610  .debug_str:000000000001948e .LASF1326
C:\Users\SOLDER~1\AppData\Local\Temp\cchmqEOm.s:22848  .debug_str:0000000000005d47 .LASF1327
C:\Users\SOLDER~1\AppData\Local\Temp\cchmqEOm.s:32454  .debug_str:000000000002ce36 .LASF1328
C:\Users\SOLDER~1\AppData\Local\Temp\cchmqEOm.s:22336  .debug_str:0000000000003d58 .LASF1329
C:\Users\SOLDER~1\AppData\Local\Temp\cchmqEOm.s:31276  .debug_str:0000000000028198 .LASF1330
C:\Users\SOLDER~1\AppData\Local\Temp\cchmqEOm.s:21596  .debug_str:0000000000000de4 .LASF1331
C:\Users\SOLDER~1\AppData\Local\Temp\cchmqEOm.s:32092  .debug_str:000000000002b675 .LASF1332
C:\Users\SOLDER~1\AppData\Local\Temp\cchmqEOm.s:30590  .debug_str:000000000002552a .LASF1333
C:\Users\SOLDER~1\AppData\Local\Temp\cchmqEOm.s:26608  .debug_str:000000000001537d .LASF1334
C:\Users\SOLDER~1\AppData\Local\Temp\cchmqEOm.s:26360  .debug_str:00000000000142f0 .LASF1335
C:\Users\SOLDER~1\AppData\Local\Temp\cchmqEOm.s:23884  .debug_str:000000000000a101 .LASF1336
C:\Users\SOLDER~1\AppData\Local\Temp\cchmqEOm.s:24654  .debug_str:000000000000d3d9 .LASF1337
C:\Users\SOLDER~1\AppData\Local\Temp\cchmqEOm.s:31788  .debug_str:000000000002a293 .LASF1338
C:\Users\SOLDER~1\AppData\Local\Temp\cchmqEOm.s:28556  .debug_str:000000000001d176 .LASF1339
C:\Users\SOLDER~1\AppData\Local\Temp\cchmqEOm.s:27676  .debug_str:00000000000198ab .LASF1340
C:\Users\SOLDER~1\AppData\Local\Temp\cchmqEOm.s:22500  .debug_str:000000000000479c .LASF1341
C:\Users\SOLDER~1\AppData\Local\Temp\cchmqEOm.s:24180  .debug_str:000000000000b474 .LASF1342
C:\Users\SOLDER~1\AppData\Local\Temp\cchmqEOm.s:30430  .debug_str:0000000000024a64 .LASF1343
C:\Users\SOLDER~1\AppData\Local\Temp\cchmqEOm.s:24768  .debug_str:000000000000db50 .LASF1344
C:\Users\SOLDER~1\AppData\Local\Temp\cchmqEOm.s:30956  .debug_str:0000000000026d26 .LASF1345
C:\Users\SOLDER~1\AppData\Local\Temp\cchmqEOm.s:25690  .debug_str:00000000000116f4 .LASF1346
C:\Users\SOLDER~1\AppData\Local\Temp\cchmqEOm.s:29634  .debug_str:0000000000021761 .LASF1347
C:\Users\SOLDER~1\AppData\Local\Temp\cchmqEOm.s:26376  .debug_str:0000000000014429 .LASF1348
C:\Users\SOLDER~1\AppData\Local\Temp\cchmqEOm.s:21816  .debug_str:0000000000001b95 .LASF1349
C:\Users\SOLDER~1\AppData\Local\Temp\cchmqEOm.s:30050  .debug_str:0000000000023186 .LASF1350
C:\Users\SOLDER~1\AppData\Local\Temp\cchmqEOm.s:28224  .debug_str:000000000001bbb7 .LASF1351
GAS LISTING C:\Users\SOLDER~1\AppData\Local\Temp\cchmqEOm.s 			page 98


C:\Users\SOLDER~1\AppData\Local\Temp\cchmqEOm.s:24030  .debug_str:000000000000aac3 .LASF1352
C:\Users\SOLDER~1\AppData\Local\Temp\cchmqEOm.s:24712  .debug_str:000000000000d7c6 .LASF1353
C:\Users\SOLDER~1\AppData\Local\Temp\cchmqEOm.s:29194  .debug_str:000000000001fb02 .LASF1354
C:\Users\SOLDER~1\AppData\Local\Temp\cchmqEOm.s:28246  .debug_str:000000000001bd07 .LASF1355
C:\Users\SOLDER~1\AppData\Local\Temp\cchmqEOm.s:24336  .debug_str:000000000000bed4 .LASF1356
C:\Users\SOLDER~1\AppData\Local\Temp\cchmqEOm.s:22256  .debug_str:0000000000003828 .LASF1357
C:\Users\SOLDER~1\AppData\Local\Temp\cchmqEOm.s:23520  .debug_str:000000000000892d .LASF1358
C:\Users\SOLDER~1\AppData\Local\Temp\cchmqEOm.s:30652  .debug_str:00000000000258fe .LASF1359
C:\Users\SOLDER~1\AppData\Local\Temp\cchmqEOm.s:28666  .debug_str:000000000001d8dd .LASF1360
C:\Users\SOLDER~1\AppData\Local\Temp\cchmqEOm.s:30224  .debug_str:0000000000023d1f .LASF1361
C:\Users\SOLDER~1\AppData\Local\Temp\cchmqEOm.s:27546  .debug_str:000000000001903f .LASF1362
C:\Users\SOLDER~1\AppData\Local\Temp\cchmqEOm.s:29472  .debug_str:0000000000020cce .LASF1363
C:\Users\SOLDER~1\AppData\Local\Temp\cchmqEOm.s:22794  .debug_str:00000000000059bb .LASF1364
C:\Users\SOLDER~1\AppData\Local\Temp\cchmqEOm.s:26748  .debug_str:0000000000015c94 .LASF1365
C:\Users\SOLDER~1\AppData\Local\Temp\cchmqEOm.s:28772  .debug_str:000000000001df44 .LASF1366
C:\Users\SOLDER~1\AppData\Local\Temp\cchmqEOm.s:26966  .debug_str:0000000000016a54 .LASF1367
C:\Users\SOLDER~1\AppData\Local\Temp\cchmqEOm.s:31810  .debug_str:000000000002a40e .LASF1368
C:\Users\SOLDER~1\AppData\Local\Temp\cchmqEOm.s:32574  .debug_str:000000000002d5b9 .LASF1369
C:\Users\SOLDER~1\AppData\Local\Temp\cchmqEOm.s:32588  .debug_str:000000000002d6c3 .LASF1370
C:\Users\SOLDER~1\AppData\Local\Temp\cchmqEOm.s:24758  .debug_str:000000000000daab .LASF1371
C:\Users\SOLDER~1\AppData\Local\Temp\cchmqEOm.s:23836  .debug_str:0000000000009dad .LASF1372
C:\Users\SOLDER~1\AppData\Local\Temp\cchmqEOm.s:30402  .debug_str:000000000002488e .LASF1373
C:\Users\SOLDER~1\AppData\Local\Temp\cchmqEOm.s:32094  .debug_str:000000000002b69a .LASF1374
C:\Users\SOLDER~1\AppData\Local\Temp\cchmqEOm.s:22994  .debug_str:0000000000006714 .LASF1375
C:\Users\SOLDER~1\AppData\Local\Temp\cchmqEOm.s:26088  .debug_str:0000000000013046 .LASF1376
C:\Users\SOLDER~1\AppData\Local\Temp\cchmqEOm.s:23618  .debug_str:0000000000008fb9 .LASF1377
C:\Users\SOLDER~1\AppData\Local\Temp\cchmqEOm.s:28656  .debug_str:000000000001d836 .LASF1378
C:\Users\SOLDER~1\AppData\Local\Temp\cchmqEOm.s:29952  .debug_str:0000000000022b29 .LASF1379
C:\Users\SOLDER~1\AppData\Local\Temp\cchmqEOm.s:30764  .debug_str:0000000000026011 .LASF1380
C:\Users\SOLDER~1\AppData\Local\Temp\cchmqEOm.s:26044  .debug_str:0000000000012d68 .LASF1381
C:\Users\SOLDER~1\AppData\Local\Temp\cchmqEOm.s:22602  .debug_str:0000000000004e09 .LASF1382
C:\Users\SOLDER~1\AppData\Local\Temp\cchmqEOm.s:32546  .debug_str:000000000002d3d6 .LASF1383
C:\Users\SOLDER~1\AppData\Local\Temp\cchmqEOm.s:23568  .debug_str:0000000000008c5d .LASF1384
C:\Users\SOLDER~1\AppData\Local\Temp\cchmqEOm.s:32638  .debug_str:000000000002da22 .LASF1385
C:\Users\SOLDER~1\AppData\Local\Temp\cchmqEOm.s:25410  .debug_str:00000000000104e0 .LASF1386
C:\Users\SOLDER~1\AppData\Local\Temp\cchmqEOm.s:32006  .debug_str:000000000002b0c4 .LASF1387
C:\Users\SOLDER~1\AppData\Local\Temp\cchmqEOm.s:32244  .debug_str:000000000002c033 .LASF1388
C:\Users\SOLDER~1\AppData\Local\Temp\cchmqEOm.s:30150  .debug_str:0000000000023803 .LASF1389
C:\Users\SOLDER~1\AppData\Local\Temp\cchmqEOm.s:31688  .debug_str:0000000000029c37 .LASF1390
C:\Users\SOLDER~1\AppData\Local\Temp\cchmqEOm.s:26904  .debug_str:00000000000166b5 .LASF1391
C:\Users\SOLDER~1\AppData\Local\Temp\cchmqEOm.s:24872  .debug_str:000000000000e1e0 .LASF1392
C:\Users\SOLDER~1\AppData\Local\Temp\cchmqEOm.s:26476  .debug_str:0000000000014ab4 .LASF1393
C:\Users\SOLDER~1\AppData\Local\Temp\cchmqEOm.s:25512  .debug_str:0000000000010bab .LASF1394
C:\Users\SOLDER~1\AppData\Local\Temp\cchmqEOm.s:25702  .debug_str:00000000000117db .LASF1395
C:\Users\SOLDER~1\AppData\Local\Temp\cchmqEOm.s:30692  .debug_str:0000000000025b63 .LASF1396
C:\Users\SOLDER~1\AppData\Local\Temp\cchmqEOm.s:22942  .debug_str:0000000000006391 .LASF1397
C:\Users\SOLDER~1\AppData\Local\Temp\cchmqEOm.s:24976  .debug_str:000000000000e8d5 .LASF1398
C:\Users\SOLDER~1\AppData\Local\Temp\cchmqEOm.s:30454  .debug_str:0000000000024c05 .LASF1399
C:\Users\SOLDER~1\AppData\Local\Temp\cchmqEOm.s:28040  .debug_str:000000000001afe4 .LASF1400
C:\Users\SOLDER~1\AppData\Local\Temp\cchmqEOm.s:28688  .debug_str:000000000001da67 .LASF1401
C:\Users\SOLDER~1\AppData\Local\Temp\cchmqEOm.s:24202  .debug_str:000000000000b615 .LASF1402
C:\Users\SOLDER~1\AppData\Local\Temp\cchmqEOm.s:30570  .debug_str:00000000000253c4 .LASF1403
C:\Users\SOLDER~1\AppData\Local\Temp\cchmqEOm.s:31764  .debug_str:000000000002a0e8 .LASF1404
C:\Users\SOLDER~1\AppData\Local\Temp\cchmqEOm.s:26644  .debug_str:00000000000155c7 .LASF1405
C:\Users\SOLDER~1\AppData\Local\Temp\cchmqEOm.s:28324  .debug_str:000000000001c1c3 .LASF1406
C:\Users\SOLDER~1\AppData\Local\Temp\cchmqEOm.s:27368  .debug_str:00000000000184a1 .LASF1407
C:\Users\SOLDER~1\AppData\Local\Temp\cchmqEOm.s:29076  .debug_str:000000000001f31a .LASF1408
GAS LISTING C:\Users\SOLDER~1\AppData\Local\Temp\cchmqEOm.s 			page 99


C:\Users\SOLDER~1\AppData\Local\Temp\cchmqEOm.s:27968  .debug_str:000000000001ab2b .LASF1409
C:\Users\SOLDER~1\AppData\Local\Temp\cchmqEOm.s:22638  .debug_str:0000000000004ffb .LASF1410
C:\Users\SOLDER~1\AppData\Local\Temp\cchmqEOm.s:22502  .debug_str:00000000000047c1 .LASF1411
C:\Users\SOLDER~1\AppData\Local\Temp\cchmqEOm.s:23250  .debug_str:00000000000077c0 .LASF1412
C:\Users\SOLDER~1\AppData\Local\Temp\cchmqEOm.s:30354  .debug_str:000000000002456d .LASF1413
C:\Users\SOLDER~1\AppData\Local\Temp\cchmqEOm.s:26974  .debug_str:0000000000016ac3 .LASF1414
C:\Users\SOLDER~1\AppData\Local\Temp\cchmqEOm.s:25172  .debug_str:000000000000f54f .LASF1415
C:\Users\SOLDER~1\AppData\Local\Temp\cchmqEOm.s:27926  .debug_str:000000000001a85c .LASF1416
C:\Users\SOLDER~1\AppData\Local\Temp\cchmqEOm.s:28748  .debug_str:000000000001de01 .LASF1417
C:\Users\SOLDER~1\AppData\Local\Temp\cchmqEOm.s:21632  .debug_str:0000000000000fff .LASF1418
C:\Users\SOLDER~1\AppData\Local\Temp\cchmqEOm.s:32338  .debug_str:000000000002c66d .LASF1419
C:\Users\SOLDER~1\AppData\Local\Temp\cchmqEOm.s:28466  .debug_str:000000000001cb38 .LASF1420
C:\Users\SOLDER~1\AppData\Local\Temp\cchmqEOm.s:21582  .debug_str:0000000000000cd7 .LASF1421
C:\Users\SOLDER~1\AppData\Local\Temp\cchmqEOm.s:27930  .debug_str:000000000001a8a9 .LASF1422
C:\Users\SOLDER~1\AppData\Local\Temp\cchmqEOm.s:23096  .debug_str:0000000000006d9f .LASF1423
C:\Users\SOLDER~1\AppData\Local\Temp\cchmqEOm.s:32808  .debug_str:000000000002e4c6 .LASF1424
C:\Users\SOLDER~1\AppData\Local\Temp\cchmqEOm.s:22670  .debug_str:00000000000051db .LASF1425
C:\Users\SOLDER~1\AppData\Local\Temp\cchmqEOm.s:31620  .debug_str:0000000000029795 .LASF1426
C:\Users\SOLDER~1\AppData\Local\Temp\cchmqEOm.s:21902  .debug_str:000000000000213d .LASF1427
C:\Users\SOLDER~1\AppData\Local\Temp\cchmqEOm.s:26850  .debug_str:0000000000016334 .LASF1428
C:\Users\SOLDER~1\AppData\Local\Temp\cchmqEOm.s:30830  .debug_str:000000000002648b .LASF1429
C:\Users\SOLDER~1\AppData\Local\Temp\cchmqEOm.s:32918  .debug_str:000000000002ebaa .LASF1430
C:\Users\SOLDER~1\AppData\Local\Temp\cchmqEOm.s:22188  .debug_str:00000000000033e1 .LASF1431
C:\Users\SOLDER~1\AppData\Local\Temp\cchmqEOm.s:24222  .debug_str:000000000000b75d .LASF1432
C:\Users\SOLDER~1\AppData\Local\Temp\cchmqEOm.s:24900  .debug_str:000000000000e410 .LASF1433
C:\Users\SOLDER~1\AppData\Local\Temp\cchmqEOm.s:32112  .debug_str:000000000002b7df .LASF1434
C:\Users\SOLDER~1\AppData\Local\Temp\cchmqEOm.s:28896  .debug_str:000000000001e781 .LASF1435
C:\Users\SOLDER~1\AppData\Local\Temp\cchmqEOm.s:23512  .debug_str:00000000000088a2 .LASF1436
C:\Users\SOLDER~1\AppData\Local\Temp\cchmqEOm.s:22568  .debug_str:0000000000004be8 .LASF1437
C:\Users\SOLDER~1\AppData\Local\Temp\cchmqEOm.s:24512  .debug_str:000000000000ca7f .LASF1438
C:\Users\SOLDER~1\AppData\Local\Temp\cchmqEOm.s:31662  .debug_str:0000000000029a66 .LASF1439
C:\Users\SOLDER~1\AppData\Local\Temp\cchmqEOm.s:26070  .debug_str:0000000000012f21 .LASF1440
C:\Users\SOLDER~1\AppData\Local\Temp\cchmqEOm.s:32272  .debug_str:000000000002c20f .LASF1441
C:\Users\SOLDER~1\AppData\Local\Temp\cchmqEOm.s:26906  .debug_str:00000000000166da .LASF1442
C:\Users\SOLDER~1\AppData\Local\Temp\cchmqEOm.s:26862  .debug_str:00000000000163f2 .LASF1443
C:\Users\SOLDER~1\AppData\Local\Temp\cchmqEOm.s:27620  .debug_str:000000000001953b .LASF1444
C:\Users\SOLDER~1\AppData\Local\Temp\cchmqEOm.s:23012  .debug_str:000000000000686a .LASF1445
C:\Users\SOLDER~1\AppData\Local\Temp\cchmqEOm.s:24970  .debug_str:000000000000e86f .LASF1446
C:\Users\SOLDER~1\AppData\Local\Temp\cchmqEOm.s:29496  .debug_str:0000000000020e60 .LASF1447
C:\Users\SOLDER~1\AppData\Local\Temp\cchmqEOm.s:32224  .debug_str:000000000002befc .LASF1448
C:\Users\SOLDER~1\AppData\Local\Temp\cchmqEOm.s:23524  .debug_str:000000000000896b .LASF1449
C:\Users\SOLDER~1\AppData\Local\Temp\cchmqEOm.s:29506  .debug_str:0000000000020eeb .LASF1450
C:\Users\SOLDER~1\AppData\Local\Temp\cchmqEOm.s:26374  .debug_str:0000000000014404 .LASF1451
C:\Users\SOLDER~1\AppData\Local\Temp\cchmqEOm.s:24668  .debug_str:000000000000d4c2 .LASF1452
C:\Users\SOLDER~1\AppData\Local\Temp\cchmqEOm.s:22584  .debug_str:0000000000004cf6 .LASF1453
C:\Users\SOLDER~1\AppData\Local\Temp\cchmqEOm.s:24106  .debug_str:000000000000afbe .LASF1454
C:\Users\SOLDER~1\AppData\Local\Temp\cchmqEOm.s:30986  .debug_str:0000000000026f36 .LASF1455
C:\Users\SOLDER~1\AppData\Local\Temp\cchmqEOm.s:21564  .debug_str:0000000000000b9d .LASF1456
C:\Users\SOLDER~1\AppData\Local\Temp\cchmqEOm.s:30560  .debug_str:0000000000025322 .LASF1457
C:\Users\SOLDER~1\AppData\Local\Temp\cchmqEOm.s:27778  .debug_str:0000000000019f2d .LASF1458
C:\Users\SOLDER~1\AppData\Local\Temp\cchmqEOm.s:29802  .debug_str:00000000000221f1 .LASF1459
C:\Users\SOLDER~1\AppData\Local\Temp\cchmqEOm.s:22974  .debug_str:00000000000065b7 .LASF1460
C:\Users\SOLDER~1\AppData\Local\Temp\cchmqEOm.s:27102  .debug_str:00000000000172c7 .LASF1461
C:\Users\SOLDER~1\AppData\Local\Temp\cchmqEOm.s:27032  .debug_str:0000000000016e9c .LASF1462
C:\Users\SOLDER~1\AppData\Local\Temp\cchmqEOm.s:22904  .debug_str:00000000000060ef .LASF1463
C:\Users\SOLDER~1\AppData\Local\Temp\cchmqEOm.s:32136  .debug_str:000000000002b941 .LASF1464
C:\Users\SOLDER~1\AppData\Local\Temp\cchmqEOm.s:32836  .debug_str:000000000002e697 .LASF1465
GAS LISTING C:\Users\SOLDER~1\AppData\Local\Temp\cchmqEOm.s 			page 100


C:\Users\SOLDER~1\AppData\Local\Temp\cchmqEOm.s:28342  .debug_str:000000000001c325 .LASF1466
C:\Users\SOLDER~1\AppData\Local\Temp\cchmqEOm.s:23056  .debug_str:0000000000006b2e .LASF1467
C:\Users\SOLDER~1\AppData\Local\Temp\cchmqEOm.s:24092  .debug_str:000000000000aebb .LASF1468
C:\Users\SOLDER~1\AppData\Local\Temp\cchmqEOm.s:28730  .debug_str:000000000001dcf8 .LASF1469
C:\Users\SOLDER~1\AppData\Local\Temp\cchmqEOm.s:27312  .debug_str:00000000000180ac .LASF1470
C:\Users\SOLDER~1\AppData\Local\Temp\cchmqEOm.s:24294  .debug_str:000000000000bbfb .LASF1471
C:\Users\SOLDER~1\AppData\Local\Temp\cchmqEOm.s:30282  .debug_str:00000000000240a2 .LASF1472
C:\Users\SOLDER~1\AppData\Local\Temp\cchmqEOm.s:24812  .debug_str:000000000000dde7 .LASF1473
C:\Users\SOLDER~1\AppData\Local\Temp\cchmqEOm.s:31198  .debug_str:0000000000027cfe .LASF1474
C:\Users\SOLDER~1\AppData\Local\Temp\cchmqEOm.s:31162  .debug_str:0000000000027ab3 .LASF1475
C:\Users\SOLDER~1\AppData\Local\Temp\cchmqEOm.s:31896  .debug_str:000000000002a9d0 .LASF1476
C:\Users\SOLDER~1\AppData\Local\Temp\cchmqEOm.s:27378  .debug_str:0000000000018549 .LASF1477
C:\Users\SOLDER~1\AppData\Local\Temp\cchmqEOm.s:23892  .debug_str:000000000000a18c .LASF1478
C:\Users\SOLDER~1\AppData\Local\Temp\cchmqEOm.s:22048  .debug_str:0000000000002aeb .LASF1479
C:\Users\SOLDER~1\AppData\Local\Temp\cchmqEOm.s:24760  .debug_str:000000000000dad0 .LASF1480
C:\Users\SOLDER~1\AppData\Local\Temp\cchmqEOm.s:32892  .debug_str:000000000002ea03 .LASF1481
C:\Users\SOLDER~1\AppData\Local\Temp\cchmqEOm.s:25732  .debug_str:000000000001199f .LASF1482
C:\Users\SOLDER~1\AppData\Local\Temp\cchmqEOm.s:24764  .debug_str:000000000000db17 .LASF1483
C:\Users\SOLDER~1\AppData\Local\Temp\cchmqEOm.s:32584  .debug_str:000000000002d675 .LASF1484
C:\Users\SOLDER~1\AppData\Local\Temp\cchmqEOm.s:30480  .debug_str:0000000000024dc6 .LASF1485
C:\Users\SOLDER~1\AppData\Local\Temp\cchmqEOm.s:31932  .debug_str:000000000002ac31 .LASF1486
C:\Users\SOLDER~1\AppData\Local\Temp\cchmqEOm.s:27264  .debug_str:0000000000017da0 .LASF1487
C:\Users\SOLDER~1\AppData\Local\Temp\cchmqEOm.s:24556  .debug_str:000000000000cd81 .LASF1488
C:\Users\SOLDER~1\AppData\Local\Temp\cchmqEOm.s:26816  .debug_str:00000000000160cc .LASF1489
C:\Users\SOLDER~1\AppData\Local\Temp\cchmqEOm.s:23940  .debug_str:000000000000a4c0 .LASF1490
C:\Users\SOLDER~1\AppData\Local\Temp\cchmqEOm.s:22916  .debug_str:00000000000061ec .LASF1491
C:\Users\SOLDER~1\AppData\Local\Temp\cchmqEOm.s:30928  .debug_str:0000000000026b6d .LASF1492
C:\Users\SOLDER~1\AppData\Local\Temp\cchmqEOm.s:23294  .debug_str:0000000000007a6f .LASF1493
C:\Users\SOLDER~1\AppData\Local\Temp\cchmqEOm.s:25328  .debug_str:000000000000ffd9 .LASF1494
C:\Users\SOLDER~1\AppData\Local\Temp\cchmqEOm.s:30786  .debug_str:000000000002619e .LASF1495
C:\Users\SOLDER~1\AppData\Local\Temp\cchmqEOm.s:28364  .debug_str:000000000001c4b9 .LASF1496
C:\Users\SOLDER~1\AppData\Local\Temp\cchmqEOm.s:29038  .debug_str:000000000001f0ca .LASF1497
C:\Users\SOLDER~1\AppData\Local\Temp\cchmqEOm.s:24536  .debug_str:000000000000cc1d .LASF1498
C:\Users\SOLDER~1\AppData\Local\Temp\cchmqEOm.s:32920  .debug_str:000000000002ebcf .LASF1499
C:\Users\SOLDER~1\AppData\Local\Temp\cchmqEOm.s:31992  .debug_str:000000000002afcd .LASF1500
C:\Users\SOLDER~1\AppData\Local\Temp\cchmqEOm.s:27000  .debug_str:0000000000016c77 .LASF1501
C:\Users\SOLDER~1\AppData\Local\Temp\cchmqEOm.s:22040  .debug_str:0000000000002a79 .LASF1502
C:\Users\SOLDER~1\AppData\Local\Temp\cchmqEOm.s:28540  .debug_str:000000000001d049 .LASF1503
C:\Users\SOLDER~1\AppData\Local\Temp\cchmqEOm.s:22940  .debug_str:000000000000636d .LASF1504
C:\Users\SOLDER~1\AppData\Local\Temp\cchmqEOm.s:29172  .debug_str:000000000001f978 .LASF1505
C:\Users\SOLDER~1\AppData\Local\Temp\cchmqEOm.s:23840  .debug_str:0000000000009e15 .LASF1506
C:\Users\SOLDER~1\AppData\Local\Temp\cchmqEOm.s:23804  .debug_str:0000000000009bc2 .LASF1507
C:\Users\SOLDER~1\AppData\Local\Temp\cchmqEOm.s:24528  .debug_str:000000000000cb91 .LASF1508
C:\Users\SOLDER~1\AppData\Local\Temp\cchmqEOm.s:31574  .debug_str:00000000000294b6 .LASF1509
C:\Users\SOLDER~1\AppData\Local\Temp\cchmqEOm.s:28946  .debug_str:000000000001ea81 .LASF1510
C:\Users\SOLDER~1\AppData\Local\Temp\cchmqEOm.s:26382  .debug_str:00000000000144a1 .LASF1511
C:\Users\SOLDER~1\AppData\Local\Temp\cchmqEOm.s:29116  .debug_str:000000000001f5a7 .LASF1512
C:\Users\SOLDER~1\AppData\Local\Temp\cchmqEOm.s:29100  .debug_str:000000000001f4a8 .LASF1513
C:\Users\SOLDER~1\AppData\Local\Temp\cchmqEOm.s:21908  .debug_str:00000000000021b2 .LASF1514
C:\Users\SOLDER~1\AppData\Local\Temp\cchmqEOm.s:32690  .debug_str:000000000002dd40 .LASF1515
C:\Users\SOLDER~1\AppData\Local\Temp\cchmqEOm.s:28796  .debug_str:000000000001e0d4 .LASF1516
C:\Users\SOLDER~1\AppData\Local\Temp\cchmqEOm.s:29704  .debug_str:0000000000021bc5 .LASF1517
C:\Users\SOLDER~1\AppData\Local\Temp\cchmqEOm.s:28160  .debug_str:000000000001b798 .LASF1518
C:\Users\SOLDER~1\AppData\Local\Temp\cchmqEOm.s:23438  .debug_str:0000000000008405 .LASF1519
C:\Users\SOLDER~1\AppData\Local\Temp\cchmqEOm.s:33056  .debug_str:000000000002f436 .LASF1520
C:\Users\SOLDER~1\AppData\Local\Temp\cchmqEOm.s:30528  .debug_str:00000000000250d8 .LASF1521
C:\Users\SOLDER~1\AppData\Local\Temp\cchmqEOm.s:31860  .debug_str:000000000002a765 .LASF1522
GAS LISTING C:\Users\SOLDER~1\AppData\Local\Temp\cchmqEOm.s 			page 101


C:\Users\SOLDER~1\AppData\Local\Temp\cchmqEOm.s:22152  .debug_str:000000000000318c .LASF1523
C:\Users\SOLDER~1\AppData\Local\Temp\cchmqEOm.s:27212  .debug_str:0000000000017a4b .LASF1524
C:\Users\SOLDER~1\AppData\Local\Temp\cchmqEOm.s:31182  .debug_str:0000000000027c03 .LASF1525
C:\Users\SOLDER~1\AppData\Local\Temp\cchmqEOm.s:21468  .debug_str:0000000000000477 .LASF1526
C:\Users\SOLDER~1\AppData\Local\Temp\cchmqEOm.s:27056  .debug_str:0000000000016fe2 .LASF1527
C:\Users\SOLDER~1\AppData\Local\Temp\cchmqEOm.s:24468  .debug_str:000000000000c7ae .LASF1528
C:\Users\SOLDER~1\AppData\Local\Temp\cchmqEOm.s:25250  .debug_str:000000000000fa5a .LASF1529
C:\Users\SOLDER~1\AppData\Local\Temp\cchmqEOm.s:23410  .debug_str:000000000000824f .LASF1530
C:\Users\SOLDER~1\AppData\Local\Temp\cchmqEOm.s:30070  .debug_str:00000000000232d6 .LASF1531
C:\Users\SOLDER~1\AppData\Local\Temp\cchmqEOm.s:28234  .debug_str:000000000001bc4b .LASF1532
C:\Users\SOLDER~1\AppData\Local\Temp\cchmqEOm.s:22970  .debug_str:000000000000656f .LASF1533
C:\Users\SOLDER~1\AppData\Local\Temp\cchmqEOm.s:24852  .debug_str:000000000000e07f .LASF1534
C:\Users\SOLDER~1\AppData\Local\Temp\cchmqEOm.s:32884  .debug_str:000000000002e976 .LASF1535
C:\Users\SOLDER~1\AppData\Local\Temp\cchmqEOm.s:27322  .debug_str:0000000000018153 .LASF1536
C:\Users\SOLDER~1\AppData\Local\Temp\cchmqEOm.s:21796  .debug_str:0000000000001a44 .LASF1537
C:\Users\SOLDER~1\AppData\Local\Temp\cchmqEOm.s:28200  .debug_str:000000000001ba3b .LASF1538
C:\Users\SOLDER~1\AppData\Local\Temp\cchmqEOm.s:28068  .debug_str:000000000001b1d5 .LASF1539
C:\Users\SOLDER~1\AppData\Local\Temp\cchmqEOm.s:28778  .debug_str:000000000001dfb4 .LASF1540
C:\Users\SOLDER~1\AppData\Local\Temp\cchmqEOm.s:24214  .debug_str:000000000000b6ec .LASF1541
C:\Users\SOLDER~1\AppData\Local\Temp\cchmqEOm.s:32486  .debug_str:000000000002d017 .LASF1542
C:\Users\SOLDER~1\AppData\Local\Temp\cchmqEOm.s:30536  .debug_str:0000000000025178 .LASF1543
C:\Users\SOLDER~1\AppData\Local\Temp\cchmqEOm.s:21746  .debug_str:0000000000001730 .LASF1544
C:\Users\SOLDER~1\AppData\Local\Temp\cchmqEOm.s:25308  .debug_str:000000000000fe90 .LASF1545
C:\Users\SOLDER~1\AppData\Local\Temp\cchmqEOm.s:29836  .debug_str:000000000002240b .LASF1546
C:\Users\SOLDER~1\AppData\Local\Temp\cchmqEOm.s:28900  .debug_str:000000000001e7cc .LASF1547
C:\Users\SOLDER~1\AppData\Local\Temp\cchmqEOm.s:25002  .debug_str:000000000000eabd .LASF1548
C:\Users\SOLDER~1\AppData\Local\Temp\cchmqEOm.s:32748  .debug_str:000000000002e0f2 .LASF1549
C:\Users\SOLDER~1\AppData\Local\Temp\cchmqEOm.s:23340  .debug_str:0000000000007d65 .LASF1550
C:\Users\SOLDER~1\AppData\Local\Temp\cchmqEOm.s:25412  .debug_str:0000000000010505 .LASF1551
C:\Users\SOLDER~1\AppData\Local\Temp\cchmqEOm.s:29258  .debug_str:000000000001ff5c .LASF1552
C:\Users\SOLDER~1\AppData\Local\Temp\cchmqEOm.s:30892  .debug_str:00000000000268f0 .LASF1553
C:\Users\SOLDER~1\AppData\Local\Temp\cchmqEOm.s:28098  .debug_str:000000000001b3e8 .LASF1554
C:\Users\SOLDER~1\AppData\Local\Temp\cchmqEOm.s:30038  .debug_str:00000000000230b8 .LASF1555
C:\Users\SOLDER~1\AppData\Local\Temp\cchmqEOm.s:23392  .debug_str:00000000000080ff .LASF1556
C:\Users\SOLDER~1\AppData\Local\Temp\cchmqEOm.s:27446  .debug_str:000000000001897b .LASF1557
C:\Users\SOLDER~1\AppData\Local\Temp\cchmqEOm.s:29362  .debug_str:00000000000205bf .LASF1558
C:\Users\SOLDER~1\AppData\Local\Temp\cchmqEOm.s:23246  .debug_str:0000000000007784 .LASF1559
C:\Users\SOLDER~1\AppData\Local\Temp\cchmqEOm.s:32386  .debug_str:000000000002c98d .LASF1560
C:\Users\SOLDER~1\AppData\Local\Temp\cchmqEOm.s:21478  .debug_str:000000000000051d .LASF1561
C:\Users\SOLDER~1\AppData\Local\Temp\cchmqEOm.s:28578  .debug_str:000000000001d2df .LASF1562
C:\Users\SOLDER~1\AppData\Local\Temp\cchmqEOm.s:25360  .debug_str:00000000000101eb .LASF1563
C:\Users\SOLDER~1\AppData\Local\Temp\cchmqEOm.s:24420  .debug_str:000000000000c447 .LASF1564
C:\Users\SOLDER~1\AppData\Local\Temp\cchmqEOm.s:31072  .debug_str:00000000000274d8 .LASF1565
C:\Users\SOLDER~1\AppData\Local\Temp\cchmqEOm.s:27220  .debug_str:0000000000017ac9 .LASF1566
C:\Users\SOLDER~1\AppData\Local\Temp\cchmqEOm.s:26562  .debug_str:000000000001509b .LASF1567
C:\Users\SOLDER~1\AppData\Local\Temp\cchmqEOm.s:31604  .debug_str:0000000000029673 .LASF1568
C:\Users\SOLDER~1\AppData\Local\Temp\cchmqEOm.s:26018  .debug_str:0000000000012ba0 .LASF1569
C:\Users\SOLDER~1\AppData\Local\Temp\cchmqEOm.s:32420  .debug_str:000000000002cc0a .LASF1570
C:\Users\SOLDER~1\AppData\Local\Temp\cchmqEOm.s:32384  .debug_str:000000000002c969 .LASF1571
C:\Users\SOLDER~1\AppData\Local\Temp\cchmqEOm.s:21438  .debug_str:0000000000000294 .LASF1572
C:\Users\SOLDER~1\AppData\Local\Temp\cchmqEOm.s:28554  .debug_str:000000000001d152 .LASF1573
C:\Users\SOLDER~1\AppData\Local\Temp\cchmqEOm.s:25112  .debug_str:000000000000f16f .LASF1574
C:\Users\SOLDER~1\AppData\Local\Temp\cchmqEOm.s:23352  .debug_str:0000000000007e5b .LASF1575
C:\Users\SOLDER~1\AppData\Local\Temp\cchmqEOm.s:25968  .debug_str:00000000000128c2 .LASF1576
C:\Users\SOLDER~1\AppData\Local\Temp\cchmqEOm.s:21536  .debug_str:00000000000009a7 .LASF1577
C:\Users\SOLDER~1\AppData\Local\Temp\cchmqEOm.s:26060  .debug_str:0000000000012e83 .LASF1578
C:\Users\SOLDER~1\AppData\Local\Temp\cchmqEOm.s:25102  .debug_str:000000000000f0e9 .LASF1579
GAS LISTING C:\Users\SOLDER~1\AppData\Local\Temp\cchmqEOm.s 			page 102


C:\Users\SOLDER~1\AppData\Local\Temp\cchmqEOm.s:32846  .debug_str:000000000002e72a .LASF1580
C:\Users\SOLDER~1\AppData\Local\Temp\cchmqEOm.s:30732  .debug_str:0000000000025e00 .LASF1581
C:\Users\SOLDER~1\AppData\Local\Temp\cchmqEOm.s:32264  .debug_str:000000000002c17c .LASF1582
C:\Users\SOLDER~1\AppData\Local\Temp\cchmqEOm.s:27598  .debug_str:00000000000193d1 .LASF1583
C:\Users\SOLDER~1\AppData\Local\Temp\cchmqEOm.s:23844  .debug_str:0000000000009e60 .LASF1584
C:\Users\SOLDER~1\AppData\Local\Temp\cchmqEOm.s:27072  .debug_str:00000000000170bc .LASF1585
C:\Users\SOLDER~1\AppData\Local\Temp\cchmqEOm.s:24292  .debug_str:000000000000bbd6 .LASF1586
C:\Users\SOLDER~1\AppData\Local\Temp\cchmqEOm.s:26290  .debug_str:0000000000013e57 .LASF1587
C:\Users\SOLDER~1\AppData\Local\Temp\cchmqEOm.s:31280  .debug_str:00000000000281d9 .LASF1588
C:\Users\SOLDER~1\AppData\Local\Temp\cchmqEOm.s:23620  .debug_str:0000000000008fdd .LASF1589
C:\Users\SOLDER~1\AppData\Local\Temp\cchmqEOm.s:25584  .debug_str:0000000000011028 .LASF1590
C:\Users\SOLDER~1\AppData\Local\Temp\cchmqEOm.s:31034  .debug_str:000000000002727f .LASF1591
C:\Users\SOLDER~1\AppData\Local\Temp\cchmqEOm.s:28602  .debug_str:000000000001d485 .LASF1592
C:\Users\SOLDER~1\AppData\Local\Temp\cchmqEOm.s:31292  .debug_str:00000000000282b2 .LASF1593
C:\Users\SOLDER~1\AppData\Local\Temp\cchmqEOm.s:24786  .debug_str:000000000000dc48 .LASF1594
C:\Users\SOLDER~1\AppData\Local\Temp\cchmqEOm.s:21586  .debug_str:0000000000000d21 .LASF1595
C:\Users\SOLDER~1\AppData\Local\Temp\cchmqEOm.s:32332  .debug_str:000000000002c601 .LASF1596
C:\Users\SOLDER~1\AppData\Local\Temp\cchmqEOm.s:27260  .debug_str:0000000000017d57 .LASF1597
C:\Users\SOLDER~1\AppData\Local\Temp\cchmqEOm.s:30182  .debug_str:0000000000023a37 .LASF1598
C:\Users\SOLDER~1\AppData\Local\Temp\cchmqEOm.s:32468  .debug_str:000000000002cefc .LASF1599
C:\Users\SOLDER~1\AppData\Local\Temp\cchmqEOm.s:26894  .debug_str:00000000000165fb .LASF1600
C:\Users\SOLDER~1\AppData\Local\Temp\cchmqEOm.s:21408  .debug_str:00000000000000e3 .LASF1601
C:\Users\SOLDER~1\AppData\Local\Temp\cchmqEOm.s:27720  .debug_str:0000000000019be7 .LASF1602
C:\Users\SOLDER~1\AppData\Local\Temp\cchmqEOm.s:27688  .debug_str:0000000000019991 .LASF1603
C:\Users\SOLDER~1\AppData\Local\Temp\cchmqEOm.s:28386  .debug_str:000000000001c60a .LASF1604
C:\Users\SOLDER~1\AppData\Local\Temp\cchmqEOm.s:23810  .debug_str:0000000000009c21 .LASF1605
C:\Users\SOLDER~1\AppData\Local\Temp\cchmqEOm.s:32074  .debug_str:000000000002b508 .LASF1606
C:\Users\SOLDER~1\AppData\Local\Temp\cchmqEOm.s:30278  .debug_str:0000000000024065 .LASF1607
C:\Users\SOLDER~1\AppData\Local\Temp\cchmqEOm.s:32962  .debug_str:000000000002ee60 .LASF1608
C:\Users\SOLDER~1\AppData\Local\Temp\cchmqEOm.s:32710  .debug_str:000000000002deb0 .LASF1609
C:\Users\SOLDER~1\AppData\Local\Temp\cchmqEOm.s:24886  .debug_str:000000000000e2f9 .LASF1610
C:\Users\SOLDER~1\AppData\Local\Temp\cchmqEOm.s:29230  .debug_str:000000000001fd73 .LASF1611
C:\Users\SOLDER~1\AppData\Local\Temp\cchmqEOm.s:22090  .debug_str:0000000000002d7a .LASF1612
C:\Users\SOLDER~1\AppData\Local\Temp\cchmqEOm.s:29578  .debug_str:00000000000213ad .LASF1613
C:\Users\SOLDER~1\AppData\Local\Temp\cchmqEOm.s:31080  .debug_str:000000000002755e .LASF1614
C:\Users\SOLDER~1\AppData\Local\Temp\cchmqEOm.s:26394  .debug_str:0000000000014575 .LASF1615
C:\Users\SOLDER~1\AppData\Local\Temp\cchmqEOm.s:23476  .debug_str:0000000000008670 .LASF1616
C:\Users\SOLDER~1\AppData\Local\Temp\cchmqEOm.s:25878  .debug_str:000000000001231e .LASF1617
C:\Users\SOLDER~1\AppData\Local\Temp\cchmqEOm.s:23128  .debug_str:0000000000006fea .LASF1618
C:\Users\SOLDER~1\AppData\Local\Temp\cchmqEOm.s:25098  .debug_str:000000000000f09e .LASF1619
C:\Users\SOLDER~1\AppData\Local\Temp\cchmqEOm.s:30112  .debug_str:000000000002357f .LASF1620
C:\Users\SOLDER~1\AppData\Local\Temp\cchmqEOm.s:22436  .debug_str:00000000000043a8 .LASF1621
C:\Users\SOLDER~1\AppData\Local\Temp\cchmqEOm.s:24384  .debug_str:000000000000c1bd .LASF1622
C:\Users\SOLDER~1\AppData\Local\Temp\cchmqEOm.s:29872  .debug_str:0000000000022663 .LASF1623
C:\Users\SOLDER~1\AppData\Local\Temp\cchmqEOm.s:27472  .debug_str:0000000000018b4f .LASF1624
C:\Users\SOLDER~1\AppData\Local\Temp\cchmqEOm.s:28216  .debug_str:000000000001bb1f .LASF1625
C:\Users\SOLDER~1\AppData\Local\Temp\cchmqEOm.s:23626  .debug_str:0000000000009042 .LASF1626
C:\Users\SOLDER~1\AppData\Local\Temp\cchmqEOm.s:32084  .debug_str:000000000002b5b2 .LASF1627
C:\Users\SOLDER~1\AppData\Local\Temp\cchmqEOm.s:31156  .debug_str:0000000000027a57 .LASF1628
C:\Users\SOLDER~1\AppData\Local\Temp\cchmqEOm.s:30644  .debug_str:0000000000025860 .LASF1629
C:\Users\SOLDER~1\AppData\Local\Temp\cchmqEOm.s:27754  .debug_str:0000000000019d9d .LASF1630
C:\Users\SOLDER~1\AppData\Local\Temp\cchmqEOm.s:25094  .debug_str:000000000000f058 .LASF1631
C:\Users\SOLDER~1\AppData\Local\Temp\cchmqEOm.s:31098  .debug_str:000000000002767f .LASF1632
C:\Users\SOLDER~1\AppData\Local\Temp\cchmqEOm.s:25642  .debug_str:00000000000113d4 .LASF1633
C:\Users\SOLDER~1\AppData\Local\Temp\cchmqEOm.s:32010  .debug_str:000000000002b111 .LASF1634
C:\Users\SOLDER~1\AppData\Local\Temp\cchmqEOm.s:30364  .debug_str:000000000002461b .LASF1635
C:\Users\SOLDER~1\AppData\Local\Temp\cchmqEOm.s:32718  .debug_str:000000000002df23 .LASF1636
GAS LISTING C:\Users\SOLDER~1\AppData\Local\Temp\cchmqEOm.s 			page 103


C:\Users\SOLDER~1\AppData\Local\Temp\cchmqEOm.s:28166  .debug_str:000000000001b801 .LASF1637
C:\Users\SOLDER~1\AppData\Local\Temp\cchmqEOm.s:24704  .debug_str:000000000000d740 .LASF1638
C:\Users\SOLDER~1\AppData\Local\Temp\cchmqEOm.s:22844  .debug_str:0000000000005cfa .LASF1639
C:\Users\SOLDER~1\AppData\Local\Temp\cchmqEOm.s:25590  .debug_str:0000000000011088 .LASF1640
C:\Users\SOLDER~1\AppData\Local\Temp\cchmqEOm.s:28278  .debug_str:000000000001beed .LASF1641
C:\Users\SOLDER~1\AppData\Local\Temp\cchmqEOm.s:32824  .debug_str:000000000002e5e4 .LASF1642
C:\Users\SOLDER~1\AppData\Local\Temp\cchmqEOm.s:31766  .debug_str:000000000002a10d .LASF1643
C:\Users\SOLDER~1\AppData\Local\Temp\cchmqEOm.s:25114  .debug_str:000000000000f193 .LASF1644
C:\Users\SOLDER~1\AppData\Local\Temp\cchmqEOm.s:25790  .debug_str:0000000000011d43 .LASF1645
C:\Users\SOLDER~1\AppData\Local\Temp\cchmqEOm.s:31826  .debug_str:000000000002a4fe .LASF1646
C:\Users\SOLDER~1\AppData\Local\Temp\cchmqEOm.s:22590  .debug_str:0000000000004d5f .LASF1647
C:\Users\SOLDER~1\AppData\Local\Temp\cchmqEOm.s:26502  .debug_str:0000000000014c8d .LASF1648
C:\Users\SOLDER~1\AppData\Local\Temp\cchmqEOm.s:22086  .debug_str:0000000000002d39 .LASF1649
C:\Users\SOLDER~1\AppData\Local\Temp\cchmqEOm.s:31016  .debug_str:000000000002713e .LASF1650
C:\Users\SOLDER~1\AppData\Local\Temp\cchmqEOm.s:33030  .debug_str:000000000002f2b0 .LASF1651
C:\Users\SOLDER~1\AppData\Local\Temp\cchmqEOm.s:22198  .debug_str:000000000000349d .LASF1652
C:\Users\SOLDER~1\AppData\Local\Temp\cchmqEOm.s:30334  .debug_str:0000000000024412 .LASF1653
C:\Users\SOLDER~1\AppData\Local\Temp\cchmqEOm.s:32302  .debug_str:000000000002c3d7 .LASF1654
C:\Users\SOLDER~1\AppData\Local\Temp\cchmqEOm.s:26104  .debug_str:000000000001313b .LASF1655
C:\Users\SOLDER~1\AppData\Local\Temp\cchmqEOm.s:23648  .debug_str:00000000000091a4 .LASF1656
C:\Users\SOLDER~1\AppData\Local\Temp\cchmqEOm.s:26410  .debug_str:0000000000014666 .LASF1657
C:\Users\SOLDER~1\AppData\Local\Temp\cchmqEOm.s:31522  .debug_str:00000000000291ac .LASF1658
C:\Users\SOLDER~1\AppData\Local\Temp\cchmqEOm.s:28318  .debug_str:000000000001c167 .LASF1659
C:\Users\SOLDER~1\AppData\Local\Temp\cchmqEOm.s:27418  .debug_str:00000000000187ce .LASF1660
C:\Users\SOLDER~1\AppData\Local\Temp\cchmqEOm.s:22260  .debug_str:000000000000386d .LASF1661
C:\Users\SOLDER~1\AppData\Local\Temp\cchmqEOm.s:23916  .debug_str:000000000000a33c .LASF1662
C:\Users\SOLDER~1\AppData\Local\Temp\cchmqEOm.s:29346  .debug_str:00000000000204bf .LASF1663
C:\Users\SOLDER~1\AppData\Local\Temp\cchmqEOm.s:23750  .debug_str:000000000000985c .LASF1664
C:\Users\SOLDER~1\AppData\Local\Temp\cchmqEOm.s:29936  .debug_str:0000000000022a07 .LASF1665
C:\Users\SOLDER~1\AppData\Local\Temp\cchmqEOm.s:24648  .debug_str:000000000000d36e .LASF1666
C:\Users\SOLDER~1\AppData\Local\Temp\cchmqEOm.s:24606  .debug_str:000000000000d09f .LASF1667
C:\Users\SOLDER~1\AppData\Local\Temp\cchmqEOm.s:25356  .debug_str:00000000000101a3 .LASF1668
C:\Users\SOLDER~1\AppData\Local\Temp\cchmqEOm.s:32390  .debug_str:000000000002c9db .LASF1669
C:\Users\SOLDER~1\AppData\Local\Temp\cchmqEOm.s:28956  .debug_str:000000000001eb32 .LASF1670
C:\Users\SOLDER~1\AppData\Local\Temp\cchmqEOm.s:27228  .debug_str:0000000000017b64 .LASF1671
C:\Users\SOLDER~1\AppData\Local\Temp\cchmqEOm.s:29886  .debug_str:0000000000022734 .LASF1672
C:\Users\SOLDER~1\AppData\Local\Temp\cchmqEOm.s:24458  .debug_str:000000000000c6e9 .LASF1673
C:\Users\SOLDER~1\AppData\Local\Temp\cchmqEOm.s:32204  .debug_str:000000000002bdab .LASF1674
C:\Users\SOLDER~1\AppData\Local\Temp\cchmqEOm.s:27992  .debug_str:000000000001acd0 .LASF1675
C:\Users\SOLDER~1\AppData\Local\Temp\cchmqEOm.s:24088  .debug_str:000000000000ae71 .LASF1676
C:\Users\SOLDER~1\AppData\Local\Temp\cchmqEOm.s:22008  .debug_str:000000000000283b .LASF1677
C:\Users\SOLDER~1\AppData\Local\Temp\cchmqEOm.s:23540  .debug_str:0000000000008a6d .LASF1678
C:\Users\SOLDER~1\AppData\Local\Temp\cchmqEOm.s:24298  .debug_str:000000000000bc3c .LASF1679
C:\Users\SOLDER~1\AppData\Local\Temp\cchmqEOm.s:28420  .debug_str:000000000001c868 .LASF1680
C:\Users\SOLDER~1\AppData\Local\Temp\cchmqEOm.s:32500  .debug_str:000000000002d0e1 .LASF1681
C:\Users\SOLDER~1\AppData\Local\Temp\cchmqEOm.s:27292  .debug_str:0000000000017f5a .LASF1682
C:\Users\SOLDER~1\AppData\Local\Temp\cchmqEOm.s:29242  .debug_str:000000000001fe3b .LASF1683
C:\Users\SOLDER~1\AppData\Local\Temp\cchmqEOm.s:22538  .debug_str:00000000000049f9 .LASF1684
C:\Users\SOLDER~1\AppData\Local\Temp\cchmqEOm.s:26494  .debug_str:0000000000014c07 .LASF1685
C:\Users\SOLDER~1\AppData\Local\Temp\cchmqEOm.s:28526  .debug_str:000000000001cf3f .LASF1686
C:\Users\SOLDER~1\AppData\Local\Temp\cchmqEOm.s:22320  .debug_str:0000000000003c5d .LASF1687
C:\Users\SOLDER~1\AppData\Local\Temp\cchmqEOm.s:31544  .debug_str:00000000000292db .LASF1688
C:\Users\SOLDER~1\AppData\Local\Temp\cchmqEOm.s:32316  .debug_str:000000000002c4cd .LASF1689
C:\Users\SOLDER~1\AppData\Local\Temp\cchmqEOm.s:27780  .debug_str:0000000000019f52 .LASF1690
C:\Users\SOLDER~1\AppData\Local\Temp\cchmqEOm.s:24504  .debug_str:000000000000ca0d .LASF1691
C:\Users\SOLDER~1\AppData\Local\Temp\cchmqEOm.s:23598  .debug_str:0000000000008e5d .LASF1692
C:\Users\SOLDER~1\AppData\Local\Temp\cchmqEOm.s:25008  .debug_str:000000000000eb22 .LASF1693
GAS LISTING C:\Users\SOLDER~1\AppData\Local\Temp\cchmqEOm.s 			page 104


C:\Users\SOLDER~1\AppData\Local\Temp\cchmqEOm.s:31844  .debug_str:000000000002a634 .LASF1694
C:\Users\SOLDER~1\AppData\Local\Temp\cchmqEOm.s:28374  .debug_str:000000000001c541 .LASF1695
C:\Users\SOLDER~1\AppData\Local\Temp\cchmqEOm.s:28100  .debug_str:000000000001b40d .LASF1696
C:\Users\SOLDER~1\AppData\Local\Temp\cchmqEOm.s:22192  .debug_str:0000000000003430 .LASF1697
C:\Users\SOLDER~1\AppData\Local\Temp\cchmqEOm.s:28988  .debug_str:000000000001ed7f .LASF1698
C:\Users\SOLDER~1\AppData\Local\Temp\cchmqEOm.s:28860  .debug_str:000000000001e54c .LASF1699
C:\Users\SOLDER~1\AppData\Local\Temp\cchmqEOm.s:29580  .debug_str:00000000000213d3 .LASF1700
C:\Users\SOLDER~1\AppData\Local\Temp\cchmqEOm.s:25018  .debug_str:000000000000ebcb .LASF1701
C:\Users\SOLDER~1\AppData\Local\Temp\cchmqEOm.s:27252  .debug_str:0000000000017cba .LASF1702
C:\Users\SOLDER~1\AppData\Local\Temp\cchmqEOm.s:31502  .debug_str:000000000002906d .LASF1703
C:\Users\SOLDER~1\AppData\Local\Temp\cchmqEOm.s:22522  .debug_str:0000000000004920 .LASF1704
C:\Users\SOLDER~1\AppData\Local\Temp\cchmqEOm.s:32378  .debug_str:000000000002c919 .LASF1705
C:\Users\SOLDER~1\AppData\Local\Temp\cchmqEOm.s:25140  .debug_str:000000000000f327 .LASF1706
C:\Users\SOLDER~1\AppData\Local\Temp\cchmqEOm.s:24176  .debug_str:000000000000b433 .LASF1707
C:\Users\SOLDER~1\AppData\Local\Temp\cchmqEOm.s:31990  .debug_str:000000000002afa7 .LASF1708
C:\Users\SOLDER~1\AppData\Local\Temp\cchmqEOm.s:29894  .debug_str:00000000000227b2 .LASF1709
C:\Users\SOLDER~1\AppData\Local\Temp\cchmqEOm.s:31434  .debug_str:0000000000028c0c .LASF1710
C:\Users\SOLDER~1\AppData\Local\Temp\cchmqEOm.s:26640  .debug_str:0000000000015591 .LASF1711
C:\Users\SOLDER~1\AppData\Local\Temp\cchmqEOm.s:32928  .debug_str:000000000002ec5d .LASF1712
C:\Users\SOLDER~1\AppData\Local\Temp\cchmqEOm.s:26226  .debug_str:0000000000013981 .LASF1713
C:\Users\SOLDER~1\AppData\Local\Temp\cchmqEOm.s:23470  .debug_str:00000000000085fc .LASF1714
C:\Users\SOLDER~1\AppData\Local\Temp\cchmqEOm.s:25458  .debug_str:0000000000010823 .LASF1715
C:\Users\SOLDER~1\AppData\Local\Temp\cchmqEOm.s:23218  .debug_str:00000000000075b7 .LASF1716
C:\Users\SOLDER~1\AppData\Local\Temp\cchmqEOm.s:21916  .debug_str:0000000000002238 .LASF1717
C:\Users\SOLDER~1\AppData\Local\Temp\cchmqEOm.s:24726  .debug_str:000000000000d890 .LASF1718
C:\Users\SOLDER~1\AppData\Local\Temp\cchmqEOm.s:30204  .debug_str:0000000000023bba .LASF1719
C:\Users\SOLDER~1\AppData\Local\Temp\cchmqEOm.s:27798  .debug_str:000000000001a07a .LASF1720
C:\Users\SOLDER~1\AppData\Local\Temp\cchmqEOm.s:28538  .debug_str:000000000001d023 .LASF1721
C:\Users\SOLDER~1\AppData\Local\Temp\cchmqEOm.s:23942  .debug_str:000000000000a4e5 .LASF1722
C:\Users\SOLDER~1\AppData\Local\Temp\cchmqEOm.s:32426  .debug_str:000000000002cc67 .LASF1723
C:\Users\SOLDER~1\AppData\Local\Temp\cchmqEOm.s:31500  .debug_str:0000000000029047 .LASF1724
C:\Users\SOLDER~1\AppData\Local\Temp\cchmqEOm.s:26388  .debug_str:0000000000014516 .LASF1725
C:\Users\SOLDER~1\AppData\Local\Temp\cchmqEOm.s:28078  .debug_str:000000000001b2a8 .LASF1726
C:\Users\SOLDER~1\AppData\Local\Temp\cchmqEOm.s:24706  .debug_str:000000000000d765 .LASF1727
C:\Users\SOLDER~1\AppData\Local\Temp\cchmqEOm.s:30794  .debug_str:000000000002620f .LASF1728
C:\Users\SOLDER~1\AppData\Local\Temp\cchmqEOm.s:25342  .debug_str:00000000000100c8 .LASF1729
C:\Users\SOLDER~1\AppData\Local\Temp\cchmqEOm.s:31734  .debug_str:0000000000029edc .LASF1730
C:\Users\SOLDER~1\AppData\Local\Temp\cchmqEOm.s:31690  .debug_str:0000000000029c5c .LASF1731
C:\Users\SOLDER~1\AppData\Local\Temp\cchmqEOm.s:32414  .debug_str:000000000002cb9c .LASF1732
C:\Users\SOLDER~1\AppData\Local\Temp\cchmqEOm.s:27884  .debug_str:000000000001a5ec .LASF1733
C:\Users\SOLDER~1\AppData\Local\Temp\cchmqEOm.s:24326  .debug_str:000000000000be30 .LASF1734
C:\Users\SOLDER~1\AppData\Local\Temp\cchmqEOm.s:22782  .debug_str:00000000000058ee .LASF1735
C:\Users\SOLDER~1\AppData\Local\Temp\cchmqEOm.s:25288  .debug_str:000000000000fd0e .LASF1736
C:\Users\SOLDER~1\AppData\Local\Temp\cchmqEOm.s:26888  .debug_str:0000000000016595 .LASF1737
C:\Users\SOLDER~1\AppData\Local\Temp\cchmqEOm.s:22272  .debug_str:0000000000003931 .LASF1738
C:\Users\SOLDER~1\AppData\Local\Temp\cchmqEOm.s:22830  .debug_str:0000000000005c45 .LASF1739
C:\Users\SOLDER~1\AppData\Local\Temp\cchmqEOm.s:30632  .debug_str:00000000000257b4 .LASF1740
C:\Users\SOLDER~1\AppData\Local\Temp\cchmqEOm.s:28482  .debug_str:000000000001cc62 .LASF1741
C:\Users\SOLDER~1\AppData\Local\Temp\cchmqEOm.s:32360  .debug_str:000000000002c805 .LASF1742
C:\Users\SOLDER~1\AppData\Local\Temp\cchmqEOm.s:25294  .debug_str:000000000000fd6e .LASF1743
C:\Users\SOLDER~1\AppData\Local\Temp\cchmqEOm.s:23200  .debug_str:0000000000007497 .LASF1744
C:\Users\SOLDER~1\AppData\Local\Temp\cchmqEOm.s:24860  .debug_str:000000000000e10f .LASF1745
C:\Users\SOLDER~1\AppData\Local\Temp\cchmqEOm.s:30268  .debug_str:0000000000023ff1 .LASF1746
C:\Users\SOLDER~1\AppData\Local\Temp\cchmqEOm.s:23992  .debug_str:000000000000a864 .LASF1747
C:\Users\SOLDER~1\AppData\Local\Temp\cchmqEOm.s:29030  .debug_str:000000000001f048 .LASF1748
C:\Users\SOLDER~1\AppData\Local\Temp\cchmqEOm.s:33072  .debug_str:000000000002f537 .LASF1749
C:\Users\SOLDER~1\AppData\Local\Temp\cchmqEOm.s:23306  .debug_str:0000000000007b1d .LASF1750
GAS LISTING C:\Users\SOLDER~1\AppData\Local\Temp\cchmqEOm.s 			page 105


C:\Users\SOLDER~1\AppData\Local\Temp\cchmqEOm.s:28886  .debug_str:000000000001e6d3 .LASF1751
C:\Users\SOLDER~1\AppData\Local\Temp\cchmqEOm.s:26334  .debug_str:0000000000014147 .LASF1752
C:\Users\SOLDER~1\AppData\Local\Temp\cchmqEOm.s:27124  .debug_str:0000000000017440 .LASF1753
C:\Users\SOLDER~1\AppData\Local\Temp\cchmqEOm.s:22508  .debug_str:0000000000004831 .LASF1754
C:\Users\SOLDER~1\AppData\Local\Temp\cchmqEOm.s:30962  .debug_str:0000000000026da0 .LASF1755
C:\Users\SOLDER~1\AppData\Local\Temp\cchmqEOm.s:30048  .debug_str:0000000000023161 .LASF1756
C:\Users\SOLDER~1\AppData\Local\Temp\cchmqEOm.s:25032  .debug_str:000000000000ecab .LASF1757
C:\Users\SOLDER~1\AppData\Local\Temp\cchmqEOm.s:26720  .debug_str:0000000000015ab6 .LASF1758
C:\Users\SOLDER~1\AppData\Local\Temp\cchmqEOm.s:29060  .debug_str:000000000001f229 .LASF1759
C:\Users\SOLDER~1\AppData\Local\Temp\cchmqEOm.s:23464  .debug_str:00000000000085a2 .LASF1760
C:\Users\SOLDER~1\AppData\Local\Temp\cchmqEOm.s:29656  .debug_str:00000000000218f5 .LASF1761
C:\Users\SOLDER~1\AppData\Local\Temp\cchmqEOm.s:24348  .debug_str:000000000000bf81 .LASF1762
C:\Users\SOLDER~1\AppData\Local\Temp\cchmqEOm.s:21944  .debug_str:0000000000002419 .LASF1763
C:\Users\SOLDER~1\AppData\Local\Temp\cchmqEOm.s:24948  .debug_str:000000000000e744 .LASF1764
C:\Users\SOLDER~1\AppData\Local\Temp\cchmqEOm.s:25824  .debug_str:0000000000011f97 .LASF1765
C:\Users\SOLDER~1\AppData\Local\Temp\cchmqEOm.s:28664  .debug_str:000000000001d8b9 .LASF1766
C:\Users\SOLDER~1\AppData\Local\Temp\cchmqEOm.s:26910  .debug_str:0000000000016716 .LASF1767
C:\Users\SOLDER~1\AppData\Local\Temp\cchmqEOm.s:29612  .debug_str:0000000000021601 .LASF1768
C:\Users\SOLDER~1\AppData\Local\Temp\cchmqEOm.s:27192  .debug_str:00000000000178fb .LASF1769
C:\Users\SOLDER~1\AppData\Local\Temp\cchmqEOm.s:31708  .debug_str:0000000000029d59 .LASF1770
C:\Users\SOLDER~1\AppData\Local\Temp\cchmqEOm.s:30730  .debug_str:0000000000025ddb .LASF1771
C:\Users\SOLDER~1\AppData\Local\Temp\cchmqEOm.s:26884  .debug_str:0000000000016555 .LASF1772
C:\Users\SOLDER~1\AppData\Local\Temp\cchmqEOm.s:24680  .debug_str:000000000000d58b .LASF1773
C:\Users\SOLDER~1\AppData\Local\Temp\cchmqEOm.s:26220  .debug_str:0000000000013913 .LASF1774
C:\Users\SOLDER~1\AppData\Local\Temp\cchmqEOm.s:21520  .debug_str:0000000000000870 .LASF1775
C:\Users\SOLDER~1\AppData\Local\Temp\cchmqEOm.s:31078  .debug_str:0000000000027539 .LASF1776
C:\Users\SOLDER~1\AppData\Local\Temp\cchmqEOm.s:32788  .debug_str:000000000002e384 .LASF1777
C:\Users\SOLDER~1\AppData\Local\Temp\cchmqEOm.s:29910  .debug_str:000000000002288a .LASF1778
C:\Users\SOLDER~1\AppData\Local\Temp\cchmqEOm.s:29328  .debug_str:00000000000203ab .LASF1779
C:\Users\SOLDER~1\AppData\Local\Temp\cchmqEOm.s:25240  .debug_str:000000000000f9a1 .LASF1780
C:\Users\SOLDER~1\AppData\Local\Temp\cchmqEOm.s:29270  .debug_str:0000000000020009 .LASF1781
C:\Users\SOLDER~1\AppData\Local\Temp\cchmqEOm.s:31190  .debug_str:0000000000027c7f .LASF1782
C:\Users\SOLDER~1\AppData\Local\Temp\cchmqEOm.s:25088  .debug_str:000000000000eff4 .LASF1783
C:\Users\SOLDER~1\AppData\Local\Temp\cchmqEOm.s:22526  .debug_str:000000000000495f .LASF1784
C:\Users\SOLDER~1\AppData\Local\Temp\cchmqEOm.s:23316  .debug_str:0000000000007bcc .LASF1785
C:\Users\SOLDER~1\AppData\Local\Temp\cchmqEOm.s:30406  .debug_str:00000000000248cf .LASF1786
C:\Users\SOLDER~1\AppData\Local\Temp\cchmqEOm.s:27246  .debug_str:0000000000017c54 .LASF1787
C:\Users\SOLDER~1\AppData\Local\Temp\cchmqEOm.s:26296  .debug_str:0000000000013ebb .LASF1788
C:\Users\SOLDER~1\AppData\Local\Temp\cchmqEOm.s:32970  .debug_str:000000000002eee5 .LASF1789
C:\Users\SOLDER~1\AppData\Local\Temp\cchmqEOm.s:22826  .debug_str:0000000000005bfc .LASF1790
C:\Users\SOLDER~1\AppData\Local\Temp\cchmqEOm.s:21702  .debug_str:000000000000147d .LASF1791
C:\Users\SOLDER~1\AppData\Local\Temp\cchmqEOm.s:27820  .debug_str:000000000001a1f3 .LASF1792
C:\Users\SOLDER~1\AppData\Local\Temp\cchmqEOm.s:22302  .debug_str:0000000000003b2d .LASF1793
C:\Users\SOLDER~1\AppData\Local\Temp\cchmqEOm.s:28606  .debug_str:000000000001d4d6 .LASF1794
C:\Users\SOLDER~1\AppData\Local\Temp\cchmqEOm.s:28568  .debug_str:000000000001d22d .LASF1795
C:\Users\SOLDER~1\AppData\Local\Temp\cchmqEOm.s:29294  .debug_str:000000000002018f .LASF1796
C:\Users\SOLDER~1\AppData\Local\Temp\cchmqEOm.s:25570  .debug_str:0000000000010f26 .LASF1797
C:\Users\SOLDER~1\AppData\Local\Temp\cchmqEOm.s:33008  .debug_str:000000000002f171 .LASF1798
C:\Users\SOLDER~1\AppData\Local\Temp\cchmqEOm.s:31202  .debug_str:0000000000027d48 .LASF1799
C:\Users\SOLDER~1\AppData\Local\Temp\cchmqEOm.s:22242  .debug_str:0000000000003737 .LASF1800
C:\Users\SOLDER~1\AppData\Local\Temp\cchmqEOm.s:23376  .debug_str:0000000000007fe9 .LASF1801
C:\Users\SOLDER~1\AppData\Local\Temp\cchmqEOm.s:29164  .debug_str:000000000001f8f1 .LASF1802
C:\Users\SOLDER~1\AppData\Local\Temp\cchmqEOm.s:26990  .debug_str:0000000000016bcb .LASF1803
C:\Users\SOLDER~1\AppData\Local\Temp\cchmqEOm.s:22978  .debug_str:00000000000065fd .LASF1804
C:\Users\SOLDER~1\AppData\Local\Temp\cchmqEOm.s:32602  .debug_str:000000000002d7da .LASF1805
C:\Users\SOLDER~1\AppData\Local\Temp\cchmqEOm.s:22406  .debug_str:00000000000041d4 .LASF1806
C:\Users\SOLDER~1\AppData\Local\Temp\cchmqEOm.s:29414  .debug_str:0000000000020905 .LASF1807
GAS LISTING C:\Users\SOLDER~1\AppData\Local\Temp\cchmqEOm.s 			page 106


C:\Users\SOLDER~1\AppData\Local\Temp\cchmqEOm.s:27200  .debug_str:000000000001797c .LASF1808
C:\Users\SOLDER~1\AppData\Local\Temp\cchmqEOm.s:28902  .debug_str:000000000001e7f1 .LASF1809
C:\Users\SOLDER~1\AppData\Local\Temp\cchmqEOm.s:26152  .debug_str:0000000000013476 .LASF1810
C:\Users\SOLDER~1\AppData\Local\Temp\cchmqEOm.s:28140  .debug_str:000000000001b655 .LASF1811
C:\Users\SOLDER~1\AppData\Local\Temp\cchmqEOm.s:21470  .debug_str:000000000000049c .LASF1812
C:\Users\SOLDER~1\AppData\Local\Temp\cchmqEOm.s:25490  .debug_str:0000000000010a13 .LASF1813
C:\Users\SOLDER~1\AppData\Local\Temp\cchmqEOm.s:27456  .debug_str:0000000000018a3d .LASF1814
C:\Users\SOLDER~1\AppData\Local\Temp\cchmqEOm.s:32934  .debug_str:000000000002ecbf .LASF1815
C:\Users\SOLDER~1\AppData\Local\Temp\cchmqEOm.s:28852  .debug_str:000000000001e4b1 .LASF1816
C:\Users\SOLDER~1\AppData\Local\Temp\cchmqEOm.s:31664  .debug_str:0000000000029a8a .LASF1817
C:\Users\SOLDER~1\AppData\Local\Temp\cchmqEOm.s:26652  .debug_str:0000000000015642 .LASF1818
C:\Users\SOLDER~1\AppData\Local\Temp\cchmqEOm.s:23420  .debug_str:00000000000082dd .LASF1819
C:\Users\SOLDER~1\AppData\Local\Temp\cchmqEOm.s:22478  .debug_str:000000000000464c .LASF1820
C:\Users\SOLDER~1\AppData\Local\Temp\cchmqEOm.s:29074  .debug_str:000000000001f2f5 .LASF1821
C:\Users\SOLDER~1\AppData\Local\Temp\cchmqEOm.s:30726  .debug_str:0000000000025d94 .LASF1822
C:\Users\SOLDER~1\AppData\Local\Temp\cchmqEOm.s:26004  .debug_str:0000000000012abe .LASF1823
C:\Users\SOLDER~1\AppData\Local\Temp\cchmqEOm.s:32020  .debug_str:000000000002b1b5 .LASF1824
C:\Users\SOLDER~1\AppData\Local\Temp\cchmqEOm.s:26548  .debug_str:0000000000014fa9 .LASF1825
C:\Users\SOLDER~1\AppData\Local\Temp\cchmqEOm.s:32956  .debug_str:000000000002edf9 .LASF1826
C:\Users\SOLDER~1\AppData\Local\Temp\cchmqEOm.s:31346  .debug_str:0000000000028646 .LASF1827
C:\Users\SOLDER~1\AppData\Local\Temp\cchmqEOm.s:21922  .debug_str:00000000000022a6 .LASF1828
C:\Users\SOLDER~1\AppData\Local\Temp\cchmqEOm.s:29068  .debug_str:000000000001f290 .LASF1829
C:\Users\SOLDER~1\AppData\Local\Temp\cchmqEOm.s:23808  .debug_str:0000000000009bfd .LASF1830
C:\Users\SOLDER~1\AppData\Local\Temp\cchmqEOm.s:23762  .debug_str:0000000000009927 .LASF1831
C:\Users\SOLDER~1\AppData\Local\Temp\cchmqEOm.s:26496  .debug_str:0000000000014c2d .LASF1832
C:\Users\SOLDER~1\AppData\Local\Temp\cchmqEOm.s:31260  .debug_str:0000000000028090 .LASF1833
C:\Users\SOLDER~1\AppData\Local\Temp\cchmqEOm.s:24118  .debug_str:000000000000b08a .LASF1834
C:\Users\SOLDER~1\AppData\Local\Temp\cchmqEOm.s:23078  .debug_str:0000000000006c7c .LASF1835
C:\Users\SOLDER~1\AppData\Local\Temp\cchmqEOm.s:30868  .debug_str:000000000002673e .LASF1836
C:\Users\SOLDER~1\AppData\Local\Temp\cchmqEOm.s:28814  .debug_str:000000000001e206 .LASF1837
C:\Users\SOLDER~1\AppData\Local\Temp\cchmqEOm.s:29726  .debug_str:0000000000021d3d .LASF1838
C:\Users\SOLDER~1\AppData\Local\Temp\cchmqEOm.s:25636  .debug_str:0000000000011379 .LASF1839
C:\Users\SOLDER~1\AppData\Local\Temp\cchmqEOm.s:24402  .debug_str:000000000000c30a .LASF1840
C:\Users\SOLDER~1\AppData\Local\Temp\cchmqEOm.s:27416  .debug_str:00000000000187a9 .LASF1841
C:\Users\SOLDER~1\AppData\Local\Temp\cchmqEOm.s:22346  .debug_str:0000000000003dfc .LASF1842
C:\Users\SOLDER~1\AppData\Local\Temp\cchmqEOm.s:24332  .debug_str:000000000000be97 .LASF1843
C:\Users\SOLDER~1\AppData\Local\Temp\cchmqEOm.s:29366  .debug_str:0000000000020600 .LASF1844
C:\Users\SOLDER~1\AppData\Local\Temp\cchmqEOm.s:21706  .debug_str:00000000000014c1 .LASF1845
C:\Users\SOLDER~1\AppData\Local\Temp\cchmqEOm.s:23634  .debug_str:00000000000090b0 .LASF1846
C:\Users\SOLDER~1\AppData\Local\Temp\cchmqEOm.s:29142  .debug_str:000000000001f76c .LASF1847
C:\Users\SOLDER~1\AppData\Local\Temp\cchmqEOm.s:26666  .debug_str:0000000000015742 .LASF1848
C:\Users\SOLDER~1\AppData\Local\Temp\cchmqEOm.s:27468  .debug_str:0000000000018b0a .LASF1849
C:\Users\SOLDER~1\AppData\Local\Temp\cchmqEOm.s:22852  .debug_str:0000000000005d94 .LASF1850
C:\Users\SOLDER~1\AppData\Local\Temp\cchmqEOm.s:31306  .debug_str:00000000000283c0 .LASF1851
C:\Users\SOLDER~1\AppData\Local\Temp\cchmqEOm.s:30382  .debug_str:0000000000024734 .LASF1852
C:\Users\SOLDER~1\AppData\Local\Temp\cchmqEOm.s:31598  .debug_str:0000000000029617 .LASF1853
C:\Users\SOLDER~1\AppData\Local\Temp\cchmqEOm.s:26984  .debug_str:0000000000016b6b .LASF1854
C:\Users\SOLDER~1\AppData\Local\Temp\cchmqEOm.s:30222  .debug_str:0000000000023cfb .LASF1855
C:\Users\SOLDER~1\AppData\Local\Temp\cchmqEOm.s:27846  .debug_str:000000000001a370 .LASF1856
C:\Users\SOLDER~1\AppData\Local\Temp\cchmqEOm.s:30844  .debug_str:000000000002659f .LASF1857
C:\Users\SOLDER~1\AppData\Local\Temp\cchmqEOm.s:25586  .debug_str:000000000001104d .LASF1858
C:\Users\SOLDER~1\AppData\Local\Temp\cchmqEOm.s:25554  .debug_str:0000000000010e2f .LASF1859
C:\Users\SOLDER~1\AppData\Local\Temp\cchmqEOm.s:26270  .debug_str:0000000000013cd5 .LASF1860
C:\Users\SOLDER~1\AppData\Local\Temp\cchmqEOm.s:24104  .debug_str:000000000000af9a .LASF1861
C:\Users\SOLDER~1\AppData\Local\Temp\cchmqEOm.s:29850  .debug_str:00000000000224e7 .LASF1862
C:\Users\SOLDER~1\AppData\Local\Temp\cchmqEOm.s:28114  .debug_str:000000000001b4f4 .LASF1863
C:\Users\SOLDER~1\AppData\Local\Temp\cchmqEOm.s:30788  .debug_str:00000000000261c3 .LASF1864
GAS LISTING C:\Users\SOLDER~1\AppData\Local\Temp\cchmqEOm.s 			page 107


C:\Users\SOLDER~1\AppData\Local\Temp\cchmqEOm.s:27532  .debug_str:0000000000018f4f .LASF1865
C:\Users\SOLDER~1\AppData\Local\Temp\cchmqEOm.s:32028  .debug_str:000000000002b23c .LASF1866
C:\Users\SOLDER~1\AppData\Local\Temp\cchmqEOm.s:30968  .debug_str:0000000000026e13 .LASF1867
C:\Users\SOLDER~1\AppData\Local\Temp\cchmqEOm.s:27138  .debug_str:0000000000017529 .LASF1868
C:\Users\SOLDER~1\AppData\Local\Temp\cchmqEOm.s:25020  .debug_str:000000000000ebf0 .LASF1869
C:\Users\SOLDER~1\AppData\Local\Temp\cchmqEOm.s:26554  .debug_str:000000000001501a .LASF1870
C:\Users\SOLDER~1\AppData\Local\Temp\cchmqEOm.s:21754  .debug_str:00000000000017bc .LASF1871
C:\Users\SOLDER~1\AppData\Local\Temp\cchmqEOm.s:31432  .debug_str:0000000000028be7 .LASF1872
C:\Users\SOLDER~1\AppData\Local\Temp\cchmqEOm.s:30386  .debug_str:0000000000024786 .LASF1873
C:\Users\SOLDER~1\AppData\Local\Temp\cchmqEOm.s:30236  .debug_str:0000000000023df1 .LASF1874
C:\Users\SOLDER~1\AppData\Local\Temp\cchmqEOm.s:32242  .debug_str:000000000002c00e .LASF1875
C:\Users\SOLDER~1\AppData\Local\Temp\cchmqEOm.s:29784  .debug_str:00000000000220bc .LASF1876
C:\Users\SOLDER~1\AppData\Local\Temp\cchmqEOm.s:28506  .debug_str:000000000001cdef .LASF1877
C:\Users\SOLDER~1\AppData\Local\Temp\cchmqEOm.s:31530  .debug_str:0000000000029211 .LASF1878
C:\Users\SOLDER~1\AppData\Local\Temp\cchmqEOm.s:30194  .debug_str:0000000000023b13 .LASF1879
C:\Users\SOLDER~1\AppData\Local\Temp\cchmqEOm.s:22872  .debug_str:0000000000005ee2 .LASF1880
C:\Users\SOLDER~1\AppData\Local\Temp\cchmqEOm.s:23644  .debug_str:000000000000915d .LASF1881
C:\Users\SOLDER~1\AppData\Local\Temp\cchmqEOm.s:30742  .debug_str:0000000000025eb6 .LASF1882
C:\Users\SOLDER~1\AppData\Local\Temp\cchmqEOm.s:27576  .debug_str:000000000001924e .LASF1883
C:\Users\SOLDER~1\AppData\Local\Temp\cchmqEOm.s:21668  .debug_str:000000000000124b .LASF1884
C:\Users\SOLDER~1\AppData\Local\Temp\cchmqEOm.s:21516  .debug_str:0000000000000825 .LASF1885
C:\Users\SOLDER~1\AppData\Local\Temp\cchmqEOm.s:23176  .debug_str:00000000000072fa .LASF1886
C:\Users\SOLDER~1\AppData\Local\Temp\cchmqEOm.s:22884  .debug_str:0000000000005fa6 .LASF1887
C:\Users\SOLDER~1\AppData\Local\Temp\cchmqEOm.s:28996  .debug_str:000000000001ee0e .LASF1888
C:\Users\SOLDER~1\AppData\Local\Temp\cchmqEOm.s:23516  .debug_str:00000000000088e4 .LASF1889
C:\Users\SOLDER~1\AppData\Local\Temp\cchmqEOm.s:29880  .debug_str:00000000000226d5 .LASF1890
C:\Users\SOLDER~1\AppData\Local\Temp\cchmqEOm.s:29844  .debug_str:0000000000022476 .LASF1891
C:\Users\SOLDER~1\AppData\Local\Temp\cchmqEOm.s:30472  .debug_str:0000000000024d40 .LASF1892
C:\Users\SOLDER~1\AppData\Local\Temp\cchmqEOm.s:25932  .debug_str:000000000001265a .LASF1893
C:\Users\SOLDER~1\AppData\Local\Temp\cchmqEOm.s:22488  .debug_str:00000000000046f8 .LASF1894
C:\Users\SOLDER~1\AppData\Local\Temp\cchmqEOm.s:32424  .debug_str:000000000002cc43 .LASF1895
C:\Users\SOLDER~1\AppData\Local\Temp\cchmqEOm.s:23454  .debug_str:0000000000008511 .LASF1896
C:\Users\SOLDER~1\AppData\Local\Temp\cchmqEOm.s:23700  .debug_str:0000000000009530 .LASF1897
C:\Users\SOLDER~1\AppData\Local\Temp\cchmqEOm.s:28176  .debug_str:000000000001b8ad .LASF1898
C:\Users\SOLDER~1\AppData\Local\Temp\cchmqEOm.s:27248  .debug_str:0000000000017c79 .LASF1899
C:\Users\SOLDER~1\AppData\Local\Temp\cchmqEOm.s:23330  .debug_str:0000000000007cc5 .LASF1900
C:\Users\SOLDER~1\AppData\Local\Temp\cchmqEOm.s:32958  .debug_str:000000000002ee1d .LASF1901
C:\Users\SOLDER~1\AppData\Local\Temp\cchmqEOm.s:22754  .debug_str:00000000000056e4 .LASF1902
C:\Users\SOLDER~1\AppData\Local\Temp\cchmqEOm.s:32536  .debug_str:000000000002d32f .LASF1903
C:\Users\SOLDER~1\AppData\Local\Temp\cchmqEOm.s:27686  .debug_str:000000000001996c .LASF1904
C:\Users\SOLDER~1\AppData\Local\Temp\cchmqEOm.s:29248  .debug_str:000000000001fea8 .LASF1905
C:\Users\SOLDER~1\AppData\Local\Temp\cchmqEOm.s:26490  .debug_str:0000000000014bab .LASF1906
C:\Users\SOLDER~1\AppData\Local\Temp\cchmqEOm.s:28460  .debug_str:000000000001cad5 .LASF1907
C:\Users\SOLDER~1\AppData\Local\Temp\cchmqEOm.s:21790  .debug_str:00000000000019e0 .LASF1908
C:\Users\SOLDER~1\AppData\Local\Temp\cchmqEOm.s:31520  .debug_str:0000000000029187 .LASF1909
C:\Users\SOLDER~1\AppData\Local\Temp\cchmqEOm.s:27786  .debug_str:0000000000019faf .LASF1910
C:\Users\SOLDER~1\AppData\Local\Temp\cchmqEOm.s:21572  .debug_str:0000000000000c2c .LASF1911
C:\Users\SOLDER~1\AppData\Local\Temp\cchmqEOm.s:26238  .debug_str:0000000000013a37 .LASF1912
C:\Users\SOLDER~1\AppData\Local\Temp\cchmqEOm.s:31542  .debug_str:00000000000292b6 .LASF1913
C:\Users\SOLDER~1\AppData\Local\Temp\cchmqEOm.s:27008  .debug_str:0000000000016d05 .LASF1914
C:\Users\SOLDER~1\AppData\Local\Temp\cchmqEOm.s:32292  .debug_str:000000000002c34d .LASF1915
C:\Users\SOLDER~1\AppData\Local\Temp\cchmqEOm.s:22820  .debug_str:0000000000005b8f .LASF1916
C:\Users\SOLDER~1\AppData\Local\Temp\cchmqEOm.s:29410  .debug_str:00000000000208cd .LASF1917
C:\Users\SOLDER~1\AppData\Local\Temp\cchmqEOm.s:27960  .debug_str:000000000001aaa3 .LASF1918
C:\Users\SOLDER~1\AppData\Local\Temp\cchmqEOm.s:27262  .debug_str:0000000000017d7c .LASF1919
C:\Users\SOLDER~1\AppData\Local\Temp\cchmqEOm.s:21656  .debug_str:0000000000001188 .LASF1920
C:\Users\SOLDER~1\AppData\Local\Temp\cchmqEOm.s:27866  .debug_str:000000000001a4b3 .LASF1921
GAS LISTING C:\Users\SOLDER~1\AppData\Local\Temp\cchmqEOm.s 			page 108


C:\Users\SOLDER~1\AppData\Local\Temp\cchmqEOm.s:22424  .debug_str:0000000000004301 .LASF1922
C:\Users\SOLDER~1\AppData\Local\Temp\cchmqEOm.s:22390  .debug_str:00000000000040c3 .LASF1923
C:\Users\SOLDER~1\AppData\Local\Temp\cchmqEOm.s:30206  .debug_str:0000000000023be0 .LASF1924
C:\Users\SOLDER~1\AppData\Local\Temp\cchmqEOm.s:30234  .debug_str:0000000000023dcd .LASF1925
C:\Users\SOLDER~1\AppData\Local\Temp\cchmqEOm.s:26848  .debug_str:0000000000016310 .LASF1926
C:\Users\SOLDER~1\AppData\Local\Temp\cchmqEOm.s:25056  .debug_str:000000000000edf1 .LASF1927
C:\Users\SOLDER~1\AppData\Local\Temp\cchmqEOm.s:27812  .debug_str:000000000001a16b .LASF1928
C:\Users\SOLDER~1\AppData\Local\Temp\cchmqEOm.s:31508  .debug_str:00000000000290d3 .LASF1929
C:\Users\SOLDER~1\AppData\Local\Temp\cchmqEOm.s:24358  .debug_str:000000000000c00e .LASF1930
C:\Users\SOLDER~1\AppData\Local\Temp\cchmqEOm.s:23424  .debug_str:000000000000831d .LASF1931
C:\Users\SOLDER~1\AppData\Local\Temp\cchmqEOm.s:31216  .debug_str:0000000000027e06 .LASF1932
C:\Users\SOLDER~1\AppData\Local\Temp\cchmqEOm.s:24822  .debug_str:000000000000dea4 .LASF1933
C:\Users\SOLDER~1\AppData\Local\Temp\cchmqEOm.s:30648  .debug_str:00000000000258a0 .LASF1934
C:\Users\SOLDER~1\AppData\Local\Temp\cchmqEOm.s:28288  .debug_str:000000000001bf94 .LASF1935
C:\Users\SOLDER~1\AppData\Local\Temp\cchmqEOm.s:23848  .debug_str:0000000000009e97 .LASF1936
C:\Users\SOLDER~1\AppData\Local\Temp\cchmqEOm.s:25464  .debug_str:000000000001087b .LASF1937
C:\Users\SOLDER~1\AppData\Local\Temp\cchmqEOm.s:22680  .debug_str:0000000000005298 .LASF1938
C:\Users\SOLDER~1\AppData\Local\Temp\cchmqEOm.s:24662  .debug_str:000000000000d457 .LASF1939
C:\Users\SOLDER~1\AppData\Local\Temp\cchmqEOm.s:29600  .debug_str:000000000002152e .LASF1940
C:\Users\SOLDER~1\AppData\Local\Temp\cchmqEOm.s:21928  .debug_str:0000000000002304 .LASF1941
C:\Users\SOLDER~1\AppData\Local\Temp\cchmqEOm.s:27298  .debug_str:0000000000017fc0 .LASF1942
C:\Users\SOLDER~1\AppData\Local\Temp\cchmqEOm.s:29454  .debug_str:0000000000020bb2 .LASF1943
C:\Users\SOLDER~1\AppData\Local\Temp\cchmqEOm.s:31496  .debug_str:0000000000029006 .LASF1944
C:\Users\SOLDER~1\AppData\Local\Temp\cchmqEOm.s:27710  .debug_str:0000000000019b17 .LASF1945
C:\Users\SOLDER~1\AppData\Local\Temp\cchmqEOm.s:23202  .debug_str:00000000000074bc .LASF1946
C:\Users\SOLDER~1\AppData\Local\Temp\cchmqEOm.s:31658  .debug_str:0000000000029a1b .LASF1947
C:\Users\SOLDER~1\AppData\Local\Temp\cchmqEOm.s:30626  .debug_str:0000000000025763 .LASF1948
C:\Users\SOLDER~1\AppData\Local\Temp\cchmqEOm.s:28982  .debug_str:000000000001ed16 .LASF1949
C:\Users\SOLDER~1\AppData\Local\Temp\cchmqEOm.s:27332  .debug_str:0000000000018211 .LASF1950
C:\Users\SOLDER~1\AppData\Local\Temp\cchmqEOm.s:24856  .debug_str:000000000000e0ca .LASF1951
C:\Users\SOLDER~1\AppData\Local\Temp\cchmqEOm.s:25870  .debug_str:00000000000122a3 .LASF1952
C:\Users\SOLDER~1\AppData\Local\Temp\cchmqEOm.s:32066  .debug_str:000000000002b472 .LASF1953
C:\Users\SOLDER~1\AppData\Local\Temp\cchmqEOm.s:26788  .debug_str:0000000000015f0a .LASF1954
C:\Users\SOLDER~1\AppData\Local\Temp\cchmqEOm.s:26746  .debug_str:0000000000015c70 .LASF1955
C:\Users\SOLDER~1\AppData\Local\Temp\cchmqEOm.s:27502  .debug_str:0000000000018d30 .LASF1956
C:\Users\SOLDER~1\AppData\Local\Temp\cchmqEOm.s:22900  .debug_str:00000000000060ae .LASF1957
C:\Users\SOLDER~1\AppData\Local\Temp\cchmqEOm.s:31144  .debug_str:0000000000027997 .LASF1958
C:\Users\SOLDER~1\AppData\Local\Temp\cchmqEOm.s:29302  .debug_str:0000000000020213 .LASF1959
C:\Users\SOLDER~1\AppData\Local\Temp\cchmqEOm.s:32012  .debug_str:000000000002b136 .LASF1960
C:\Users\SOLDER~1\AppData\Local\Temp\cchmqEOm.s:27764  .debug_str:0000000000019e49 .LASF1961
C:\Users\SOLDER~1\AppData\Local\Temp\cchmqEOm.s:30806  .debug_str:00000000000262ee .LASF1962
C:\Users\SOLDER~1\AppData\Local\Temp\cchmqEOm.s:31308  .debug_str:00000000000283e5 .LASF1963
C:\Users\SOLDER~1\AppData\Local\Temp\cchmqEOm.s:27484  .debug_str:0000000000018c02 .LASF1964
C:\Users\SOLDER~1\AppData\Local\Temp\cchmqEOm.s:27886  .debug_str:000000000001a610 .LASF1965
C:\Users\SOLDER~1\AppData\Local\Temp\cchmqEOm.s:26900  .debug_str:0000000000016675 .LASF1966
C:\Users\SOLDER~1\AppData\Local\Temp\cchmqEOm.s:22076  .debug_str:0000000000002c7b .LASF1967
C:\Users\SOLDER~1\AppData\Local\Temp\cchmqEOm.s:31774  .debug_str:000000000002a181 .LASF1968
C:\Users\SOLDER~1\AppData\Local\Temp\cchmqEOm.s:27814  .debug_str:000000000001a18f .LASF1969
C:\Users\SOLDER~1\AppData\Local\Temp\cchmqEOm.s:30580  .debug_str:000000000002546e .LASF1970
C:\Users\SOLDER~1\AppData\Local\Temp\cchmqEOm.s:32580  .debug_str:000000000002d625 .LASF1971
C:\Users\SOLDER~1\AppData\Local\Temp\cchmqEOm.s:25812  .debug_str:0000000000011ec1 .LASF1972
C:\Users\SOLDER~1\AppData\Local\Temp\cchmqEOm.s:29824  .debug_str:000000000002232c .LASF1973
C:\Users\SOLDER~1\AppData\Local\Temp\cchmqEOm.s:31866  .debug_str:000000000002a7c9 .LASF1974
C:\Users\SOLDER~1\AppData\Local\Temp\cchmqEOm.s:25680  .debug_str:000000000001162b .LASF1975
C:\Users\SOLDER~1\AppData\Local\Temp\cchmqEOm.s:23222  .debug_str:00000000000075f7 .LASF1976
C:\Users\SOLDER~1\AppData\Local\Temp\cchmqEOm.s:23872  .debug_str:000000000000a04b .LASF1977
C:\Users\SOLDER~1\AppData\Local\Temp\cchmqEOm.s:21568  .debug_str:0000000000000be4 .LASF1978
GAS LISTING C:\Users\SOLDER~1\AppData\Local\Temp\cchmqEOm.s 			page 109


C:\Users\SOLDER~1\AppData\Local\Temp\cchmqEOm.s:27810  .debug_str:000000000001a146 .LASF1979
C:\Users\SOLDER~1\AppData\Local\Temp\cchmqEOm.s:26878  .debug_str:00000000000164f2 .LASF1980
C:\Users\SOLDER~1\AppData\Local\Temp\cchmqEOm.s:21836  .debug_str:0000000000001d04 .LASF1981
C:\Users\SOLDER~1\AppData\Local\Temp\cchmqEOm.s:23518  .debug_str:0000000000008908 .LASF1982
C:\Users\SOLDER~1\AppData\Local\Temp\cchmqEOm.s:24090  .debug_str:000000000000ae97 .LASF1983
C:\Users\SOLDER~1\AppData\Local\Temp\cchmqEOm.s:30180  .debug_str:0000000000023a13 .LASF1984
C:\Users\SOLDER~1\AppData\Local\Temp\cchmqEOm.s:25800  .debug_str:0000000000011ded .LASF1985
C:\Users\SOLDER~1\AppData\Local\Temp\cchmqEOm.s:31082  .debug_str:0000000000027584 .LASF1986
C:\Users\SOLDER~1\AppData\Local\Temp\cchmqEOm.s:31040  .debug_str:00000000000272c0 .LASF1987
C:\Users\SOLDER~1\AppData\Local\Temp\cchmqEOm.s:31798  .debug_str:000000000002a34b .LASF1988
C:\Users\SOLDER~1\AppData\Local\Temp\cchmqEOm.s:27178  .debug_str:00000000000177ea .LASF1989
C:\Users\SOLDER~1\AppData\Local\Temp\cchmqEOm.s:24412  .debug_str:000000000000c3cd .LASF1990
C:\Users\SOLDER~1\AppData\Local\Temp\cchmqEOm.s:21934  .debug_str:0000000000002366 .LASF1991
C:\Users\SOLDER~1\AppData\Local\Temp\cchmqEOm.s:24650  .debug_str:000000000000d393 .LASF1992
C:\Users\SOLDER~1\AppData\Local\Temp\cchmqEOm.s:29800  .debug_str:00000000000221cc .LASF1993
C:\Users\SOLDER~1\AppData\Local\Temp\cchmqEOm.s:28498  .debug_str:000000000001cd5d .LASF1994
C:\Users\SOLDER~1\AppData\Local\Temp\cchmqEOm.s:27582  .debug_str:00000000000192bd .LASF1995
C:\Users\SOLDER~1\AppData\Local\Temp\cchmqEOm.s:23658  .debug_str:000000000000926e .LASF1996
C:\Users\SOLDER~1\AppData\Local\Temp\cchmqEOm.s:21600  .debug_str:0000000000000e2b .LASF1997
C:\Users\SOLDER~1\AppData\Local\Temp\cchmqEOm.s:23000  .debug_str:0000000000006793 .LASF1998
C:\Users\SOLDER~1\AppData\Local\Temp\cchmqEOm.s:29964  .debug_str:0000000000022bfa .LASF1999
C:\Users\SOLDER~1\AppData\Local\Temp\cchmqEOm.s:28006  .debug_str:000000000001adc6 .LASF2000
C:\Users\SOLDER~1\AppData\Local\Temp\cchmqEOm.s:29560  .debug_str:0000000000021266 .LASF2001
C:\Users\SOLDER~1\AppData\Local\Temp\cchmqEOm.s:26738  .debug_str:0000000000015be3 .LASF2002
C:\Users\SOLDER~1\AppData\Local\Temp\cchmqEOm.s:28700  .debug_str:000000000001db35 .LASF2003
C:\Users\SOLDER~1\AppData\Local\Temp\cchmqEOm.s:22024  .debug_str:000000000000297a .LASF2004
C:\Users\SOLDER~1\AppData\Local\Temp\cchmqEOm.s:26048  .debug_str:0000000000012d9e .LASF2005
C:\Users\SOLDER~1\AppData\Local\Temp\cchmqEOm.s:21634  .debug_str:0000000000001024 .LASF2006
C:\Users\SOLDER~1\AppData\Local\Temp\cchmqEOm.s:21880  .debug_str:0000000000001fea .LASF2007
C:\Users\SOLDER~1\AppData\Local\Temp\cchmqEOm.s:31106  .debug_str:000000000002770a .LASF2008
C:\Users\SOLDER~1\AppData\Local\Temp\cchmqEOm.s:31802  .debug_str:000000000002a385 .LASF2009
C:\Users\SOLDER~1\AppData\Local\Temp\cchmqEOm.s:27356  .debug_str:00000000000183c3 .LASF2010
C:\Users\SOLDER~1\AppData\Local\Temp\cchmqEOm.s:23982  .debug_str:000000000000a7ab .LASF2011
C:\Users\SOLDER~1\AppData\Local\Temp\cchmqEOm.s:23070  .debug_str:0000000000006c02 .LASF2012
C:\Users\SOLDER~1\AppData\Local\Temp\cchmqEOm.s:23342  .debug_str:0000000000007d8a .LASF2013
C:\Users\SOLDER~1\AppData\Local\Temp\cchmqEOm.s:31410  .debug_str:0000000000028a82 .LASF2014
C:\Users\SOLDER~1\AppData\Local\Temp\cchmqEOm.s:28426  .debug_str:000000000001c8ae .LASF2015
C:\Users\SOLDER~1\AppData\Local\Temp\cchmqEOm.s:22828  .debug_str:0000000000005c21 .LASF2016
C:\Users\SOLDER~1\AppData\Local\Temp\cchmqEOm.s:29050  .debug_str:000000000001f18f .LASF2017
C:\Users\SOLDER~1\AppData\Local\Temp\cchmqEOm.s:23738  .debug_str:000000000000979c .LASF2018
C:\Users\SOLDER~1\AppData\Local\Temp\cchmqEOm.s:23610  .debug_str:0000000000008f42 .LASF2019
C:\Users\SOLDER~1\AppData\Local\Temp\cchmqEOm.s:24330  .debug_str:000000000000be73 .LASF2020
C:\Users\SOLDER~1\AppData\Local\Temp\cchmqEOm.s:31470  .debug_str:0000000000028e51 .LASF2021
C:\Users\SOLDER~1\AppData\Local\Temp\cchmqEOm.s:28052  .debug_str:000000000001b0a0 .LASF2022
C:\Users\SOLDER~1\AppData\Local\Temp\cchmqEOm.s:26282  .debug_str:0000000000013db8 .LASF2023
C:\Users\SOLDER~1\AppData\Local\Temp\cchmqEOm.s:32440  .debug_str:000000000002cd44 .LASF2024
C:\Users\SOLDER~1\AppData\Local\Temp\cchmqEOm.s:32858  .debug_str:000000000002e7de .LASF2025
C:\Users\SOLDER~1\AppData\Local\Temp\cchmqEOm.s:25186  .debug_str:000000000000f616 .LASF2026
C:\Users\SOLDER~1\AppData\Local\Temp\cchmqEOm.s:23752  .debug_str:0000000000009881 .LASF2027
C:\Users\SOLDER~1\AppData\Local\Temp\cchmqEOm.s:31558  .debug_str:00000000000293bb .LASF2028
C:\Users\SOLDER~1\AppData\Local\Temp\cchmqEOm.s:29476  .debug_str:0000000000020d16 .LASF2029
C:\Users\SOLDER~1\AppData\Local\Temp\cchmqEOm.s:30880  .debug_str:000000000002680b .LASF2030
C:\Users\SOLDER~1\AppData\Local\Temp\cchmqEOm.s:26210  .debug_str:0000000000013871 .LASF2031
C:\Users\SOLDER~1\AppData\Local\Temp\cchmqEOm.s:24098  .debug_str:000000000000af44 .LASF2032
C:\Users\SOLDER~1\AppData\Local\Temp\cchmqEOm.s:25786  .debug_str:0000000000011d0c .LASF2033
C:\Users\SOLDER~1\AppData\Local\Temp\cchmqEOm.s:22932  .debug_str:00000000000062f9 .LASF2034
C:\Users\SOLDER~1\AppData\Local\Temp\cchmqEOm.s:24910  .debug_str:000000000000e4c5 .LASF2035
GAS LISTING C:\Users\SOLDER~1\AppData\Local\Temp\cchmqEOm.s 			page 110


C:\Users\SOLDER~1\AppData\Local\Temp\cchmqEOm.s:32484  .debug_str:000000000002cff2 .LASF2036
C:\Users\SOLDER~1\AppData\Local\Temp\cchmqEOm.s:31934  .debug_str:000000000002ac56 .LASF2037
C:\Users\SOLDER~1\AppData\Local\Temp\cchmqEOm.s:23718  .debug_str:000000000000966f .LASF2038
C:\Users\SOLDER~1\AppData\Local\Temp\cchmqEOm.s:29782  .debug_str:0000000000022097 .LASF2039
C:\Users\SOLDER~1\AppData\Local\Temp\cchmqEOm.s:27288  .debug_str:0000000000017f06 .LASF2040
C:\Users\SOLDER~1\AppData\Local\Temp\cchmqEOm.s:28032  .debug_str:000000000001af54 .LASF2041
C:\Users\SOLDER~1\AppData\Local\Temp\cchmqEOm.s:26684  .debug_str:0000000000015870 .LASF2042
C:\Users\SOLDER~1\AppData\Local\Temp\cchmqEOm.s:31892  .debug_str:000000000002a998 .LASF2043
C:\Users\SOLDER~1\AppData\Local\Temp\cchmqEOm.s:30958  .debug_str:0000000000026d4a .LASF2044
C:\Users\SOLDER~1\AppData\Local\Temp\cchmqEOm.s:26364  .debug_str:0000000000014336 .LASF2045
C:\Users\SOLDER~1\AppData\Local\Temp\cchmqEOm.s:27664  .debug_str:00000000000197e2 .LASF2046
C:\Users\SOLDER~1\AppData\Local\Temp\cchmqEOm.s:23688  .debug_str:000000000000946a .LASF2047
C:\Users\SOLDER~1\AppData\Local\Temp\cchmqEOm.s:29788  .debug_str:0000000000022103 .LASF2048
C:\Users\SOLDER~1\AppData\Local\Temp\cchmqEOm.s:24300  .debug_str:000000000000bc62 .LASF2049
C:\Users\SOLDER~1\AppData\Local\Temp\cchmqEOm.s:30682  .debug_str:0000000000025ae3 .LASF2050
C:\Users\SOLDER~1\AppData\Local\Temp\cchmqEOm.s:29344  .debug_str:000000000002049a .LASF2051
C:\Users\SOLDER~1\AppData\Local\Temp\cchmqEOm.s:31290  .debug_str:000000000002828d .LASF2052
C:\Users\SOLDER~1\AppData\Local\Temp\cchmqEOm.s:26754  .debug_str:0000000000015ced .LASF2053
C:\Users\SOLDER~1\AppData\Local\Temp\cchmqEOm.s:32576  .debug_str:000000000002d5de .LASF2054
C:\Users\SOLDER~1\AppData\Local\Temp\cchmqEOm.s:21554  .debug_str:0000000000000ade .LASF2055
C:\Users\SOLDER~1\AppData\Local\Temp\cchmqEOm.s:24250  .debug_str:000000000000b8ff .LASF2056
C:\Users\SOLDER~1\AppData\Local\Temp\cchmqEOm.s:30666  .debug_str:00000000000259e6 .LASF2057
C:\Users\SOLDER~1\AppData\Local\Temp\cchmqEOm.s:23552  .debug_str:0000000000008b5e .LASF2058
C:\Users\SOLDER~1\AppData\Local\Temp\cchmqEOm.s:22574  .debug_str:0000000000004c48 .LASF2059
C:\Users\SOLDER~1\AppData\Local\Temp\cchmqEOm.s:30380  .debug_str:000000000002470e .LASF2060
C:\Users\SOLDER~1\AppData\Local\Temp\cchmqEOm.s:32696  .debug_str:000000000002dda9 .LASF2061
C:\Users\SOLDER~1\AppData\Local\Temp\cchmqEOm.s:29734  .debug_str:0000000000021db4 .LASF2062
C:\Users\SOLDER~1\AppData\Local\Temp\cchmqEOm.s:25030  .debug_str:000000000000ec85 .LASF2063
C:\Users\SOLDER~1\AppData\Local\Temp\cchmqEOm.s:32396  .debug_str:000000000002ca48 .LASF2064
C:\Users\SOLDER~1\AppData\Local\Temp\cchmqEOm.s:24604  .debug_str:000000000000d079 .LASF2065
C:\Users\SOLDER~1\AppData\Local\Temp\cchmqEOm.s:21782  .debug_str:0000000000001937 .LASF2066
C:\Users\SOLDER~1\AppData\Local\Temp\cchmqEOm.s:23748  .debug_str:0000000000009836 .LASF2067
C:\Users\SOLDER~1\AppData\Local\Temp\cchmqEOm.s:23054  .debug_str:0000000000006b08 .LASF2068
C:\Users\SOLDER~1\AppData\Local\Temp\cchmqEOm.s:32812  .debug_str:000000000002e514 .LASF2069
C:\Users\SOLDER~1\AppData\Local\Temp\cchmqEOm.s:23140  .debug_str:00000000000070b7 .LASF2070
C:\Users\SOLDER~1\AppData\Local\Temp\cchmqEOm.s:28626  .debug_str:000000000001d5f7 .LASF2071
C:\Users\SOLDER~1\AppData\Local\Temp\cchmqEOm.s:26074  .debug_str:0000000000012f73 .LASF2072
C:\Users\SOLDER~1\AppData\Local\Temp\cchmqEOm.s:30948  .debug_str:0000000000026ca4 .LASF2073
C:\Users\SOLDER~1\AppData\Local\Temp\cchmqEOm.s:22268  .debug_str:00000000000038f0 .LASF2074
C:\Users\SOLDER~1\AppData\Local\Temp\cchmqEOm.s:30718  .debug_str:0000000000025d09 .LASF2075
C:\Users\SOLDER~1\AppData\Local\Temp\cchmqEOm.s:29804  .debug_str:0000000000022216 .LASF2076
C:\Users\SOLDER~1\AppData\Local\Temp\cchmqEOm.s:24780  .debug_str:000000000000dbf9 .LASF2077
C:\Users\SOLDER~1\AppData\Local\Temp\cchmqEOm.s:26472  .debug_str:0000000000014a67 .LASF2078
C:\Users\SOLDER~1\AppData\Local\Temp\cchmqEOm.s:28042  .debug_str:000000000001b009 .LASF2079
C:\Users\SOLDER~1\AppData\Local\Temp\cchmqEOm.s:22416  .debug_str:0000000000004281 .LASF2080
C:\Users\SOLDER~1\AppData\Local\Temp\cchmqEOm.s:28640  .debug_str:000000000001d6eb .LASF2081
C:\Users\SOLDER~1\AppData\Local\Temp\cchmqEOm.s:27480  .debug_str:0000000000018bcb .LASF2082
C:\Users\SOLDER~1\AppData\Local\Temp\cchmqEOm.s:23216  .debug_str:0000000000007592 .LASF2083
C:\Users\SOLDER~1\AppData\Local\Temp\cchmqEOm.s:23912  .debug_str:000000000000a2f5 .LASF2084
C:\Users\SOLDER~1\AppData\Local\Temp\cchmqEOm.s:26688  .debug_str:000000000001589e .LASF2085
C:\Users\SOLDER~1\AppData\Local\Temp\cchmqEOm.s:26038  .debug_str:0000000000012d07 .LASF2086
C:\Users\SOLDER~1\AppData\Local\Temp\cchmqEOm.s:28822  .debug_str:000000000001e291 .LASF2087
C:\Users\SOLDER~1\AppData\Local\Temp\cchmqEOm.s:28584  .debug_str:000000000001d364 .LASF2088
C:\Users\SOLDER~1\AppData\Local\Temp\cchmqEOm.s:26926  .debug_str:0000000000016807 .LASF2089
C:\Users\SOLDER~1\AppData\Local\Temp\cchmqEOm.s:31452  .debug_str:0000000000028d1a .LASF2090
C:\Users\SOLDER~1\AppData\Local\Temp\cchmqEOm.s:28440  .debug_str:000000000001c99b .LASF2091
C:\Users\SOLDER~1\AppData\Local\Temp\cchmqEOm.s:26618  .debug_str:000000000001540c .LASF2092
GAS LISTING C:\Users\SOLDER~1\AppData\Local\Temp\cchmqEOm.s 			page 111


C:\Users\SOLDER~1\AppData\Local\Temp\cchmqEOm.s:24430  .debug_str:000000000000c4f0 .LASF2093
C:\Users\SOLDER~1\AppData\Local\Temp\cchmqEOm.s:25954  .debug_str:00000000000127b4 .LASF2094
C:\Users\SOLDER~1\AppData\Local\Temp\cchmqEOm.s:32968  .debug_str:000000000002eebf .LASF2095
C:\Users\SOLDER~1\AppData\Local\Temp\cchmqEOm.s:30820  .debug_str:00000000000263dc .LASF2096
C:\Users\SOLDER~1\AppData\Local\Temp\cchmqEOm.s:27654  .debug_str:0000000000019747 .LASF2097
C:\Users\SOLDER~1\AppData\Local\Temp\cchmqEOm.s:29672  .debug_str:00000000000219f9 .LASF2098
C:\Users\SOLDER~1\AppData\Local\Temp\cchmqEOm.s:31660  .debug_str:0000000000029a40 .LASF2099
C:\Users\SOLDER~1\AppData\Local\Temp\cchmqEOm.s:26082  .debug_str:0000000000012fec .LASF2100
C:\Users\SOLDER~1\AppData\Local\Temp\cchmqEOm.s:29012  .debug_str:000000000001ef09 .LASF2101
C:\Users\SOLDER~1\AppData\Local\Temp\cchmqEOm.s:30926  .debug_str:0000000000026b47 .LASF2102
C:\Users\SOLDER~1\AppData\Local\Temp\cchmqEOm.s:24834  .debug_str:000000000000df57 .LASF2103
C:\Users\SOLDER~1\AppData\Local\Temp\cchmqEOm.s:22292  .debug_str:0000000000003a7c .LASF2104
C:\Users\SOLDER~1\AppData\Local\Temp\cchmqEOm.s:23052  .debug_str:0000000000006ae2 .LASF2105
C:\Users\SOLDER~1\AppData\Local\Temp\cchmqEOm.s:30164  .debug_str:00000000000238e8 .LASF2106
C:\Users\SOLDER~1\AppData\Local\Temp\cchmqEOm.s:26978  .debug_str:0000000000016b07 .LASF2107
C:\Users\SOLDER~1\AppData\Local\Temp\cchmqEOm.s:26022  .debug_str:0000000000012bd6 .LASF2108
C:\Users\SOLDER~1\AppData\Local\Temp\cchmqEOm.s:32702  .debug_str:000000000002de12 .LASF2109
C:\Users\SOLDER~1\AppData\Local\Temp\cchmqEOm.s:31504  .debug_str:0000000000029092 .LASF2110
C:\Users\SOLDER~1\AppData\Local\Temp\cchmqEOm.s:32346  .debug_str:000000000002c71a .LASF2111
C:\Users\SOLDER~1\AppData\Local\Temp\cchmqEOm.s:26676  .debug_str:00000000000157ec .LASF2112
C:\Users\SOLDER~1\AppData\Local\Temp\cchmqEOm.s:32896  .debug_str:000000000002ea40 .LASF2113
C:\Users\SOLDER~1\AppData\Local\Temp\cchmqEOm.s:30938  .debug_str:0000000000026bf1 .LASF2114
C:\Users\SOLDER~1\AppData\Local\Temp\cchmqEOm.s:27580  .debug_str:0000000000019298 .LASF2115
C:\Users\SOLDER~1\AppData\Local\Temp\cchmqEOm.s:28284  .debug_str:000000000001bf4d .LASF2116
C:\Users\SOLDER~1\AppData\Local\Temp\cchmqEOm.s:23704  .debug_str:0000000000009584 .LASF2117
C:\Users\SOLDER~1\AppData\Local\Temp\cchmqEOm.s:31970  .debug_str:000000000002ae6c .LASF2118
C:\Users\SOLDER~1\AppData\Local\Temp\cchmqEOm.s:30088  .debug_str:0000000000023407 .LASF2119
C:\Users\SOLDER~1\AppData\Local\Temp\cchmqEOm.s:32842  .debug_str:000000000002e6ef .LASF2120
C:\Users\SOLDER~1\AppData\Local\Temp\cchmqEOm.s:23114  .debug_str:0000000000006ee3 .LASF2121
C:\Users\SOLDER~1\AppData\Local\Temp\cchmqEOm.s:27702  .debug_str:0000000000019a9d .LASF2122
C:\Users\SOLDER~1\AppData\Local\Temp\cchmqEOm.s:26716  .debug_str:0000000000015a76 .LASF2123
C:\Users\SOLDER~1\AppData\Local\Temp\cchmqEOm.s:25390  .debug_str:00000000000103b6 .LASF2124
C:\Users\SOLDER~1\AppData\Local\Temp\cchmqEOm.s:32342  .debug_str:000000000002c6bc .LASF2125
C:\Users\SOLDER~1\AppData\Local\Temp\cchmqEOm.s:22174  .debug_str:00000000000032f4 .LASF2126
C:\Users\SOLDER~1\AppData\Local\Temp\cchmqEOm.s:29176  .debug_str:000000000001f9bc .LASF2127
C:\Users\SOLDER~1\AppData\Local\Temp\cchmqEOm.s:27094  .debug_str:000000000001722f .LASF2128
C:\Users\SOLDER~1\AppData\Local\Temp\cchmqEOm.s:29706  .debug_str:0000000000021bea .LASF2129
C:\Users\SOLDER~1\AppData\Local\Temp\cchmqEOm.s:25892  .debug_str:00000000000123ef .LASF2130
C:\Users\SOLDER~1\AppData\Local\Temp\cchmqEOm.s:24148  .debug_str:000000000000b268 .LASF2131
C:\Users\SOLDER~1\AppData\Local\Temp\cchmqEOm.s:32912  .debug_str:000000000002eb41 .LASF2132
C:\Users\SOLDER~1\AppData\Local\Temp\cchmqEOm.s:25224  .debug_str:000000000000f8a8 .LASF2133
C:\Users\SOLDER~1\AppData\Local\Temp\cchmqEOm.s:27210  .debug_str:0000000000017a25 .LASF2134
C:\Users\SOLDER~1\AppData\Local\Temp\cchmqEOm.s:32758  .debug_str:000000000002e192 .LASF2135
C:\Users\SOLDER~1\AppData\Local\Temp\cchmqEOm.s:26530  .debug_str:0000000000014e71 .LASF2136
C:\Users\SOLDER~1\AppData\Local\Temp\cchmqEOm.s:30940  .debug_str:0000000000026c16 .LASF2137
C:\Users\SOLDER~1\AppData\Local\Temp\cchmqEOm.s:26398  .debug_str:00000000000145bc .LASF2138
C:\Users\SOLDER~1\AppData\Local\Temp\cchmqEOm.s:23170  .debug_str:00000000000072ac .LASF2139
C:\Users\SOLDER~1\AppData\Local\Temp\cchmqEOm.s:22236  .debug_str:00000000000036ee .LASF2140
C:\Users\SOLDER~1\AppData\Local\Temp\cchmqEOm.s:29120  .debug_str:000000000001f5dd .LASF2141
C:\Users\SOLDER~1\AppData\Local\Temp\cchmqEOm.s:30468  .debug_str:0000000000024d07 .LASF2142
C:\Users\SOLDER~1\AppData\Local\Temp\cchmqEOm.s:24884  .debug_str:000000000000e2d4 .LASF2143
C:\Users\SOLDER~1\AppData\Local\Temp\cchmqEOm.s:30982  .debug_str:0000000000026f00 .LASF2144
C:\Users\SOLDER~1\AppData\Local\Temp\cchmqEOm.s:25536  .debug_str:0000000000010d2c .LASF2145
C:\Users\SOLDER~1\AppData\Local\Temp\cchmqEOm.s:31900  .debug_str:000000000002aa1a .LASF2146
C:\Users\SOLDER~1\AppData\Local\Temp\cchmqEOm.s:31862  .debug_str:000000000002a78a .LASF2147
C:\Users\SOLDER~1\AppData\Local\Temp\cchmqEOm.s:32598  .debug_str:000000000002d790 .LASF2148
C:\Users\SOLDER~1\AppData\Local\Temp\cchmqEOm.s:29026  .debug_str:000000000001efff .LASF2149
GAS LISTING C:\Users\SOLDER~1\AppData\Local\Temp\cchmqEOm.s 			page 112


C:\Users\SOLDER~1\AppData\Local\Temp\cchmqEOm.s:24494  .debug_str:000000000000c965 .LASF2150
C:\Users\SOLDER~1\AppData\Local\Temp\cchmqEOm.s:22730  .debug_str:000000000000557a .LASF2151
C:\Users\SOLDER~1\AppData\Local\Temp\cchmqEOm.s:25476  .debug_str:0000000000010916 .LASF2152
C:\Users\SOLDER~1\AppData\Local\Temp\cchmqEOm.s:31002  .debug_str:000000000002703e .LASF2153
C:\Users\SOLDER~1\AppData\Local\Temp\cchmqEOm.s:23862  .debug_str:0000000000009f93 .LASF2154
C:\Users\SOLDER~1\AppData\Local\Temp\cchmqEOm.s:22918  .debug_str:0000000000006211 .LASF2155
C:\Users\SOLDER~1\AppData\Local\Temp\cchmqEOm.s:30622  .debug_str:0000000000025718 .LASF2156
C:\Users\SOLDER~1\AppData\Local\Temp\cchmqEOm.s:28566  .debug_str:000000000001d207 .LASF2157
C:\Users\SOLDER~1\AppData\Local\Temp\cchmqEOm.s:30066  .debug_str:000000000002328c .LASF2158
C:\Users\SOLDER~1\AppData\Local\Temp\cchmqEOm.s:25388  .debug_str:0000000000010390 .LASF2159
C:\Users\SOLDER~1\AppData\Local\Temp\cchmqEOm.s:23286  .debug_str:00000000000079c1 .LASF2160
C:\Users\SOLDER~1\AppData\Local\Temp\cchmqEOm.s:32750  .debug_str:000000000002e117 .LASF2161
C:\Users\SOLDER~1\AppData\Local\Temp\cchmqEOm.s:22104  .debug_str:0000000000002e66 .LASF2162
C:\Users\SOLDER~1\AppData\Local\Temp\cchmqEOm.s:24084  .debug_str:000000000000ae28 .LASF2163
C:\Users\SOLDER~1\AppData\Local\Temp\cchmqEOm.s:32122  .debug_str:000000000002b88f .LASF2164
C:\Users\SOLDER~1\AppData\Local\Temp\cchmqEOm.s:21456  .debug_str:00000000000003b7 .LASF2165
C:\Users\SOLDER~1\AppData\Local\Temp\cchmqEOm.s:23390  .debug_str:00000000000080d9 .LASF2166
C:\Users\SOLDER~1\AppData\Local\Temp\cchmqEOm.s:28880  .debug_str:000000000001e677 .LASF2167
C:\Users\SOLDER~1\AppData\Local\Temp\cchmqEOm.s:26420  .debug_str:0000000000014727 .LASF2168
C:\Users\SOLDER~1\AppData\Local\Temp\cchmqEOm.s:27224  .debug_str:0000000000017b1c .LASF2169
C:\Users\SOLDER~1\AppData\Local\Temp\cchmqEOm.s:22594  .debug_str:0000000000004d98 .LASF2170
C:\Users\SOLDER~1\AppData\Local\Temp\cchmqEOm.s:31048  .debug_str:0000000000027345 .LASF2171
C:\Users\SOLDER~1\AppData\Local\Temp\cchmqEOm.s:30132  .debug_str:00000000000236c6 .LASF2172
C:\Users\SOLDER~1\AppData\Local\Temp\cchmqEOm.s:25024  .debug_str:000000000000ec26 .LASF2173
C:\Users\SOLDER~1\AppData\Local\Temp\cchmqEOm.s:26710  .debug_str:0000000000015a01 .LASF2174
C:\Users\SOLDER~1\AppData\Local\Temp\cchmqEOm.s:28128  .debug_str:000000000001b5c4 .LASF2175
C:\Users\SOLDER~1\AppData\Local\Temp\cchmqEOm.s:27366  .debug_str:000000000001847d .LASF2176
C:\Users\SOLDER~1\AppData\Local\Temp\cchmqEOm.s:26708  .debug_str:00000000000159e9 .LASF2177
C:\Users\SOLDER~1\AppData\Local\Temp\cchmqEOm.s:28414  .debug_str:000000000001c7fa .LASF2178
C:\Users\SOLDER~1\AppData\Local\Temp\cchmqEOm.s:25374  .debug_str:00000000000102d4 .LASF2179
C:\Users\SOLDER~1\AppData\Local\Temp\cchmqEOm.s:27492  .debug_str:0000000000018c83 .LASF2180
C:\Users\SOLDER~1\AppData\Local\Temp\cchmqEOm.s:23770  .debug_str:00000000000099ab .LASF2181
C:\Users\SOLDER~1\AppData\Local\Temp\cchmqEOm.s:25628  .debug_str:00000000000112f3 .LASF2182
C:\Users\SOLDER~1\AppData\Local\Temp\cchmqEOm.s:21980  .debug_str:000000000000266d .LASF2183
C:\Users\SOLDER~1\AppData\Local\Temp\cchmqEOm.s:30914  .debug_str:0000000000026a7e .LASF2184
C:\Users\SOLDER~1\AppData\Local\Temp\cchmqEOm.s:26318  .debug_str:0000000000014040 .LASF2185
C:\Users\SOLDER~1\AppData\Local\Temp\cchmqEOm.s:24418  .debug_str:000000000000c426 .LASF2186
C:\Users\SOLDER~1\AppData\Local\Temp\cchmqEOm.s:23716  .debug_str:000000000000965c .LASF2187
C:\Users\SOLDER~1\AppData\Local\Temp\cchmqEOm.s:29624  .debug_str:00000000000216a8 .LASF2188
C:\Users\SOLDER~1\AppData\Local\Temp\cchmqEOm.s:29394  .debug_str:00000000000207cc .LASF2189
C:\Users\SOLDER~1\AppData\Local\Temp\cchmqEOm.s:26256  .debug_str:0000000000013bb3 .LASF2190
C:\Users\SOLDER~1\AppData\Local\Temp\cchmqEOm.s:25038  .debug_str:000000000000ecfe .LASF2191
C:\Users\SOLDER~1\AppData\Local\Temp\cchmqEOm.s:26202  .debug_str:00000000000137e1 .LASF2192
C:\Users\SOLDER~1\AppData\Local\Temp\cchmqEOm.s:30684  .debug_str:0000000000025b08 .LASF2193
C:\Users\SOLDER~1\AppData\Local\Temp\cchmqEOm.s:32002  .debug_str:000000000002b08d .LASF2194
C:\Users\SOLDER~1\AppData\Local\Temp\cchmqEOm.s:29326  .debug_str:0000000000020398 .LASF2195
C:\Users\SOLDER~1\AppData\Local\Temp\cchmqEOm.s:28154  .debug_str:000000000001b743 .LASF2196
C:\Users\SOLDER~1\AppData\Local\Temp\cchmqEOm.s:24960  .debug_str:000000000000e7d5 .LASF2197
C:\Users\SOLDER~1\AppData\Local\Temp\cchmqEOm.s:28510  .debug_str:000000000001ce39 .LASF2198
C:\Users\SOLDER~1\AppData\Local\Temp\cchmqEOm.s:30636  .debug_str:00000000000257fb .LASF2199
C:\Users\SOLDER~1\AppData\Local\Temp\cchmqEOm.s:24488  .debug_str:000000000000c90c .LASF2200
C:\Users\SOLDER~1\AppData\Local\Temp\cchmqEOm.s:22216  .debug_str:00000000000035c0 .LASF2201
C:\Users\SOLDER~1\AppData\Local\Temp\cchmqEOm.s:22608  .debug_str:0000000000004e6a .LASF2202
C:\Users\SOLDER~1\AppData\Local\Temp\cchmqEOm.s:31596  .debug_str:0000000000029603 .LASF2203
C:\Users\SOLDER~1\AppData\Local\Temp\cchmqEOm.s:32700  .debug_str:000000000002ddf1 .LASF2204
C:\Users\SOLDER~1\AppData\Local\Temp\cchmqEOm.s:26814  .debug_str:00000000000160b9 .LASF2205
C:\Users\SOLDER~1\AppData\Local\Temp\cchmqEOm.s:21962  .debug_str:0000000000002548 .LASF2206
GAS LISTING C:\Users\SOLDER~1\AppData\Local\Temp\cchmqEOm.s 			page 113


C:\Users\SOLDER~1\AppData\Local\Temp\cchmqEOm.s:21924  .debug_str:00000000000022ca .LASF2207
C:\Users\SOLDER~1\AppData\Local\Temp\cchmqEOm.s:29004  .debug_str:000000000001ee84 .LASF2208
C:\Users\SOLDER~1\AppData\Local\Temp\cchmqEOm.s:28108  .debug_str:000000000001b4a2 .LASF2209
C:\Users\SOLDER~1\AppData\Local\Temp\cchmqEOm.s:25532  .debug_str:0000000000010ce7 .LASF2210
C:\Users\SOLDER~1\AppData\Local\Temp\cchmqEOm.s:25784  .debug_str:0000000000011cf8 .LASF2211
C:\Users\SOLDER~1\AppData\Local\Temp\cchmqEOm.s:27142  .debug_str:0000000000017562 .LASF2212
C:\Users\SOLDER~1\AppData\Local\Temp\cchmqEOm.s:32326  .debug_str:000000000002c59d .LASF2213
C:\Users\SOLDER~1\AppData\Local\Temp\cchmqEOm.s:29754  .debug_str:0000000000021ef6 .LASF2214
C:\Users\SOLDER~1\AppData\Local\Temp\cchmqEOm.s:27830  .debug_str:000000000001a29b .LASF2215
C:\Users\SOLDER~1\AppData\Local\Temp\cchmqEOm.s:27016  .debug_str:0000000000016d88 .LASF2216
C:\Users\SOLDER~1\AppData\Local\Temp\cchmqEOm.s:22178  .debug_str:0000000000003340 .LASF2217
C:\Users\SOLDER~1\AppData\Local\Temp\cchmqEOm.s:26944  .debug_str:000000000001692c .LASF2218
C:\Users\SOLDER~1\AppData\Local\Temp\cchmqEOm.s:31554  .debug_str:0000000000029391 .LASF2219
C:\Users\SOLDER~1\AppData\Local\Temp\cchmqEOm.s:24054  .debug_str:000000000000ac64 .LASF2220
C:\Users\SOLDER~1\AppData\Local\Temp\cchmqEOm.s:29300  .debug_str:0000000000020200 .LASF2221
C:\Users\SOLDER~1\AppData\Local\Temp\cchmqEOm.s:31186  .debug_str:0000000000027c3c .LASF2222
C:\Users\SOLDER~1\AppData\Local\Temp\cchmqEOm.s:23002  .debug_str:00000000000067b8 .LASF2223
C:\Users\SOLDER~1\AppData\Local\Temp\cchmqEOm.s:23742  .debug_str:00000000000097d8 .LASF2224
C:\Users\SOLDER~1\AppData\Local\Temp\cchmqEOm.s:25940  .debug_str:00000000000126c4 .LASF2225
C:\Users\SOLDER~1\AppData\Local\Temp\cchmqEOm.s:26362  .debug_str:0000000000014315 .LASF2226
C:\Users\SOLDER~1\AppData\Local\Temp\cchmqEOm.s:28534  .debug_str:000000000001cfd9 .LASF2227
C:\Users\SOLDER~1\AppData\Local\Temp\cchmqEOm.s:32482  .debug_str:000000000002cfd1 .LASF2228
C:\Users\SOLDER~1\AppData\Local\Temp\cchmqEOm.s:23478  .debug_str:0000000000008696 .LASF2229
C:\Users\SOLDER~1\AppData\Local\Temp\cchmqEOm.s:29636  .debug_str:0000000000021785 .LASF2230
C:\Users\SOLDER~1\AppData\Local\Temp\cchmqEOm.s:30522  .debug_str:000000000002508c .LASF2231
C:\Users\SOLDER~1\AppData\Local\Temp\cchmqEOm.s:26412  .debug_str:000000000001468c .LASF2232
C:\Users\SOLDER~1\AppData\Local\Temp\cchmqEOm.s:23074  .debug_str:0000000000006c3f .LASF2233
C:\Users\SOLDER~1\AppData\Local\Temp\cchmqEOm.s:25850  .debug_str:000000000001213f .LASF2234
C:\Users\SOLDER~1\AppData\Local\Temp\cchmqEOm.s:22694  .debug_str:0000000000005375 .LASF2235
C:\Users\SOLDER~1\AppData\Local\Temp\cchmqEOm.s:32540  .debug_str:000000000002d37e .LASF2236
C:\Users\SOLDER~1\AppData\Local\Temp\cchmqEOm.s:29356  .debug_str:0000000000020565 .LASF2237
C:\Users\SOLDER~1\AppData\Local\Temp\cchmqEOm.s:31952  .debug_str:000000000002ad69 .LASF2238
C:\Users\SOLDER~1\AppData\Local\Temp\cchmqEOm.s:24718  .debug_str:000000000000d827 .LASF2239
C:\Users\SOLDER~1\AppData\Local\Temp\cchmqEOm.s:26168  .debug_str:0000000000013589 .LASF2240
C:\Users\SOLDER~1\AppData\Local\Temp\cchmqEOm.s:21884  .debug_str:0000000000002021 .LASF2241
C:\Users\SOLDER~1\AppData\Local\Temp\cchmqEOm.s:31022  .debug_str:00000000000271a9 .LASF2242
C:\Users\SOLDER~1\AppData\Local\Temp\cchmqEOm.s:30964  .debug_str:0000000000026dc5 .LASF2243
C:\Users\SOLDER~1\AppData\Local\Temp\cchmqEOm.s:25312  .debug_str:000000000000fed9 .LASF2244
C:\Users\SOLDER~1\AppData\Local\Temp\cchmqEOm.s:21484  .debug_str:000000000000058c .LASF2245
C:\Users\SOLDER~1\AppData\Local\Temp\cchmqEOm.s:21434  .debug_str:0000000000000250 .LASF2246
C:\Users\SOLDER~1\AppData\Local\Temp\cchmqEOm.s:27270  .debug_str:0000000000017dfe .LASF2247
C:\Users\SOLDER~1\AppData\Local\Temp\cchmqEOm.s:23362  .debug_str:0000000000007ef7 .LASF2248
C:\Users\SOLDER~1\AppData\Local\Temp\cchmqEOm.s:26438  .debug_str:0000000000014862 .LASF2249
C:\Users\SOLDER~1\AppData\Local\Temp\cchmqEOm.s:24652  .debug_str:000000000000d3b7 .LASF2250
C:\Users\SOLDER~1\AppData\Local\Temp\cchmqEOm.s:24120  .debug_str:000000000000b0af .LASF2251
C:\Users\SOLDER~1\AppData\Local\Temp\cchmqEOm.s:32674  .debug_str:000000000002dc4e .LASF2252
C:\Users\SOLDER~1\AppData\Local\Temp\cchmqEOm.s:25836  .debug_str:000000000001205c .LASF2253
C:\Users\SOLDER~1\AppData\Local\Temp\cchmqEOm.s:27628  .debug_str:00000000000195b5 .LASF2254
C:\Users\SOLDER~1\AppData\Local\Temp\cchmqEOm.s:27146  .debug_str:00000000000175cc .LASF2255
C:\Users\SOLDER~1\AppData\Local\Temp\cchmqEOm.s:29648  .debug_str:000000000002186e .LASF2256
C:\Users\SOLDER~1\AppData\Local\Temp\cchmqEOm.s:31726  .debug_str:0000000000029e8c .LASF2257
C:\Users\SOLDER~1\AppData\Local\Temp\cchmqEOm.s:24554  .debug_str:000000000000cd60 .LASF2258
C:\Users\SOLDER~1\AppData\Local\Temp\cchmqEOm.s:22060  .debug_str:0000000000002ba0 .LASF2259
C:\Users\SOLDER~1\AppData\Local\Temp\cchmqEOm.s:30218  .debug_str:0000000000023cac .LASF2260
C:\Users\SOLDER~1\AppData\Local\Temp\cchmqEOm.s:31184  .debug_str:0000000000027c28 .LASF2261
C:\Users\SOLDER~1\AppData\Local\Temp\cchmqEOm.s:23440  .debug_str:000000000000842a .LASF2262
C:\Users\SOLDER~1\AppData\Local\Temp\cchmqEOm.s:22654  .debug_str:00000000000050f2 .LASF2263
GAS LISTING C:\Users\SOLDER~1\AppData\Local\Temp\cchmqEOm.s 			page 114


C:\Users\SOLDER~1\AppData\Local\Temp\cchmqEOm.s:29304  .debug_str:0000000000020237 .LASF2264
C:\Users\SOLDER~1\AppData\Local\Temp\cchmqEOm.s:25650  .debug_str:000000000001146d .LASF2265
C:\Users\SOLDER~1\AppData\Local\Temp\cchmqEOm.s:25188  .debug_str:000000000000f63b .LASF2266
C:\Users\SOLDER~1\AppData\Local\Temp\cchmqEOm.s:27706  .debug_str:0000000000019aec .LASF2267
C:\Users\SOLDER~1\AppData\Local\Temp\cchmqEOm.s:24982  .debug_str:000000000000e943 .LASF2268
C:\Users\SOLDER~1\AppData\Local\Temp\cchmqEOm.s:21658  .debug_str:00000000000011ac .LASF2269
C:\Users\SOLDER~1\AppData\Local\Temp\cchmqEOm.s:30548  .debug_str:0000000000025265 .LASF2270
C:\Users\SOLDER~1\AppData\Local\Temp\cchmqEOm.s:31950  .debug_str:000000000002ad55 .LASF2271
C:\Users\SOLDER~1\AppData\Local\Temp\cchmqEOm.s:27380  .debug_str:000000000001856d .LASF2272
C:\Users\SOLDER~1\AppData\Local\Temp\cchmqEOm.s:31226  .debug_str:0000000000027eb1 .LASF2273
C:\Users\SOLDER~1\AppData\Local\Temp\cchmqEOm.s:21526  .debug_str:00000000000008bc .LASF2274
C:\Users\SOLDER~1\AppData\Local\Temp\cchmqEOm.s:21606  .debug_str:0000000000000e89 .LASF2275
C:\Users\SOLDER~1\AppData\Local\Temp\cchmqEOm.s:23798  .debug_str:0000000000009b67 .LASF2276
C:\Users\SOLDER~1\AppData\Local\Temp\cchmqEOm.s:29114  .debug_str:000000000001f592 .LASF2277
C:\Users\SOLDER~1\AppData\Local\Temp\cchmqEOm.s:21834  .debug_str:0000000000001ce2 .LASF2278
C:\Users\SOLDER~1\AppData\Local\Temp\cchmqEOm.s:33020  .debug_str:000000000002f22a .LASF2279
C:\Users\SOLDER~1\AppData\Local\Temp\cchmqEOm.s:25934  .debug_str:000000000001267e .LASF2280
C:\Users\SOLDER~1\AppData\Local\Temp\cchmqEOm.s:29184  .debug_str:000000000001fa48 .LASF2281
C:\Users\SOLDER~1\AppData\Local\Temp\cchmqEOm.s:32614  .debug_str:000000000002d8ad .LASF2282
C:\Users\SOLDER~1\AppData\Local\Temp\cchmqEOm.s:23268  .debug_str:00000000000078bf .LASF2283
C:\Users\SOLDER~1\AppData\Local\Temp\cchmqEOm.s:22018  .debug_str:0000000000002910 .LASF2284
C:\Users\SOLDER~1\AppData\Local\Temp\cchmqEOm.s:29484  .debug_str:0000000000020d99 .LASF2285
C:\Users\SOLDER~1\AppData\Local\Temp\cchmqEOm.s:23228  .debug_str:0000000000007660 .LASF2286
C:\Users\SOLDER~1\AppData\Local\Temp\cchmqEOm.s:27230  .debug_str:0000000000017b89 .LASF2287
C:\Users\SOLDER~1\AppData\Local\Temp\cchmqEOm.s:25886  .debug_str:000000000001238f .LASF2288
C:\Users\SOLDER~1\AppData\Local\Temp\cchmqEOm.s:23356  .debug_str:0000000000007ea4 .LASF2289
C:\Users\SOLDER~1\AppData\Local\Temp\cchmqEOm.s:28714  .debug_str:000000000001dc03 .LASF2290
C:\Users\SOLDER~1\AppData\Local\Temp\cchmqEOm.s:29218  .debug_str:000000000001fcc2 .LASF2291
C:\Users\SOLDER~1\AppData\Local\Temp\cchmqEOm.s:26302  .debug_str:0000000000013f12 .LASF2292
C:\Users\SOLDER~1\AppData\Local\Temp\cchmqEOm.s:22428  .debug_str:0000000000004339 .LASF2293
C:\Users\SOLDER~1\AppData\Local\Temp\cchmqEOm.s:26560  .debug_str:0000000000015079 .LASF2294
C:\Users\SOLDER~1\AppData\Local\Temp\cchmqEOm.s:32988  .debug_str:000000000002f039 .LASF2295
C:\Users\SOLDER~1\AppData\Local\Temp\cchmqEOm.s:23282  .debug_str:0000000000007986 .LASF2296
C:\Users\SOLDER~1\AppData\Local\Temp\cchmqEOm.s:31912  .debug_str:000000000002aae0 .LASF2297
C:\Users\SOLDER~1\AppData\Local\Temp\cchmqEOm.s:30128  .debug_str:0000000000023685 .LASF2298
C:\Users\SOLDER~1\AppData\Local\Temp\cchmqEOm.s:26172  .debug_str:00000000000135c9 .LASF2299
C:\Users\SOLDER~1\AppData\Local\Temp\cchmqEOm.s:29424  .debug_str:00000000000209ae .LASF2300
C:\Users\SOLDER~1\AppData\Local\Temp\cchmqEOm.s:32236  .debug_str:000000000002bfca .LASF2301
C:\Users\SOLDER~1\AppData\Local\Temp\cchmqEOm.s:25670  .debug_str:0000000000011596 .LASF2302
C:\Users\SOLDER~1\AppData\Local\Temp\cchmqEOm.s:29908  .debug_str:0000000000022875 .LASF2303
C:\Users\SOLDER~1\AppData\Local\Temp\cchmqEOm.s:27208  .debug_str:0000000000017a03 .LASF2304
C:\Users\SOLDER~1\AppData\Local\Temp\cchmqEOm.s:26096  .debug_str:00000000000130ca .LASF2305
C:\Users\SOLDER~1\AppData\Local\Temp\cchmqEOm.s:28586  .debug_str:000000000001d389 .LASF2306
C:\Users\SOLDER~1\AppData\Local\Temp\cchmqEOm.s:31954  .debug_str:000000000002ad89 .LASF2307
C:\Users\SOLDER~1\AppData\Local\Temp\cchmqEOm.s:25714  .debug_str:00000000000118a4 .LASF2308
C:\Users\SOLDER~1\AppData\Local\Temp\cchmqEOm.s:26426  .debug_str:000000000001479e .LASF2309
C:\Users\SOLDER~1\AppData\Local\Temp\cchmqEOm.s:25058  .debug_str:000000000000ee15 .LASF2310
C:\Users\SOLDER~1\AppData\Local\Temp\cchmqEOm.s:24102  .debug_str:000000000000af85 .LASF2311
C:\Users\SOLDER~1\AppData\Local\Temp\cchmqEOm.s:31832  .debug_str:000000000002a56d .LASF2312
C:\Users\SOLDER~1\AppData\Local\Temp\cchmqEOm.s:31974  .debug_str:000000000002aeb3 .LASF2313
C:\Users\SOLDER~1\AppData\Local\Temp\cchmqEOm.s:24436  .debug_str:000000000000c55e .LASF2314
C:\Users\SOLDER~1\AppData\Local\Temp\cchmqEOm.s:26132  .debug_str:0000000000013318 .LASF2315
C:\Users\SOLDER~1\AppData\Local\Temp\cchmqEOm.s:25840  .debug_str:0000000000012090 .LASF2316
C:\Users\SOLDER~1\AppData\Local\Temp\cchmqEOm.s:23302  .debug_str:0000000000007aee .LASF2317
C:\Users\SOLDER~1\AppData\Local\Temp\cchmqEOm.s:25644  .debug_str:00000000000113f9 .LASF2318
C:\Users\SOLDER~1\AppData\Local\Temp\cchmqEOm.s:32688  .debug_str:000000000002dd2b .LASF2319
C:\Users\SOLDER~1\AppData\Local\Temp\cchmqEOm.s:26784  .debug_str:0000000000015ed6 .LASF2320
GAS LISTING C:\Users\SOLDER~1\AppData\Local\Temp\cchmqEOm.s 			page 115


C:\Users\SOLDER~1\AppData\Local\Temp\cchmqEOm.s:29922  .debug_str:0000000000022932 .LASF2321
C:\Users\SOLDER~1\AppData\Local\Temp\cchmqEOm.s:27244  .debug_str:0000000000017c34 .LASF2322
C:\Users\SOLDER~1\AppData\Local\Temp\cchmqEOm.s:24424  .debug_str:000000000000c48e .LASF2323
C:\Users\SOLDER~1\AppData\Local\Temp\cchmqEOm.s:29764  .debug_str:0000000000021f75 .LASF2324
C:\Users\SOLDER~1\AppData\Local\Temp\cchmqEOm.s:28690  .debug_str:000000000001da8c .LASF2325
C:\Users\SOLDER~1\AppData\Local\Temp\cchmqEOm.s:23238  .debug_str:00000000000076f3 .LASF2326
C:\Users\SOLDER~1\AppData\Local\Temp\cchmqEOm.s:28388  .debug_str:000000000001c62f .LASF2327
C:\Users\SOLDER~1\AppData\Local\Temp\cchmqEOm.s:24032  .debug_str:000000000000aae7 .LASF2328
C:\Users\SOLDER~1\AppData\Local\Temp\cchmqEOm.s:23930  .debug_str:000000000000a412 .LASF2329
C:\Users\SOLDER~1\AppData\Local\Temp\cchmqEOm.s:22736  .debug_str:00000000000055c3 .LASF2330
C:\Users\SOLDER~1\AppData\Local\Temp\cchmqEOm.s:21760  .debug_str:000000000000181c .LASF2331
C:\Users\SOLDER~1\AppData\Local\Temp\cchmqEOm.s:32162  .debug_str:000000000002bad8 .LASF2332
C:\Users\SOLDER~1\AppData\Local\Temp\cchmqEOm.s:22684  .debug_str:00000000000052cf .LASF2333
C:\Users\SOLDER~1\AppData\Local\Temp\cchmqEOm.s:31468  .debug_str:0000000000028e2f .LASF2334
C:\Users\SOLDER~1\AppData\Local\Temp\cchmqEOm.s:24324  .debug_str:000000000000be18 .LASF2335
C:\Users\SOLDER~1\AppData\Local\Temp\cchmqEOm.s:29180  .debug_str:000000000001fa04 .LASF2336
C:\Users\SOLDER~1\AppData\Local\Temp\cchmqEOm.s:24792  .debug_str:000000000000dcaf .LASF2337
C:\Users\SOLDER~1\AppData\Local\Temp\cchmqEOm.s:32672  .debug_str:000000000002dc2b .LASF2338
C:\Users\SOLDER~1\AppData\Local\Temp\cchmqEOm.s:24566  .debug_str:000000000000ce2a .LASF2339
C:\Users\SOLDER~1\AppData\Local\Temp\cchmqEOm.s:29390  .debug_str:0000000000020780 .LASF2340
C:\Users\SOLDER~1\AppData\Local\Temp\cchmqEOm.s:29262  .debug_str:000000000001ff89 .LASF2341
C:\Users\SOLDER~1\AppData\Local\Temp\cchmqEOm.s:32250  .debug_str:000000000002c095 .LASF2342
C:\Users\SOLDER~1\AppData\Local\Temp\cchmqEOm.s:24426  .debug_str:000000000000c4a6 .LASF2343
C:\Users\SOLDER~1\AppData\Local\Temp\cchmqEOm.s:31042  .debug_str:00000000000272e4 .LASF2344
C:\Users\SOLDER~1\AppData\Local\Temp\cchmqEOm.s:25568  .debug_str:0000000000010f0f .LASF2345
C:\Users\SOLDER~1\AppData\Local\Temp\cchmqEOm.s:24944  .debug_str:000000000000e709 .LASF2346
C:\Users\SOLDER~1\AppData\Local\Temp\cchmqEOm.s:31360  .debug_str:0000000000028752 .LASF2347
C:\Users\SOLDER~1\AppData\Local\Temp\cchmqEOm.s:29564  .debug_str:00000000000212b5 .LASF2348
C:\Users\SOLDER~1\AppData\Local\Temp\cchmqEOm.s:23374  .debug_str:0000000000007fcd .LASF2349
C:\Users\SOLDER~1\AppData\Local\Temp\cchmqEOm.s:28358  .debug_str:000000000001c43f .LASF2350
C:\Users\SOLDER~1\AppData\Local\Temp\cchmqEOm.s:31556  .debug_str:00000000000293a5 .LASF2351
C:\Users\SOLDER~1\AppData\Local\Temp\cchmqEOm.s:30062  .debug_str:000000000002324a .LASF2352
C:\Users\SOLDER~1\AppData\Local\Temp\cchmqEOm.s:24006  .debug_str:000000000000a944 .LASF2353
C:\Users\SOLDER~1\AppData\Local\Temp\cchmqEOm.s:32578  .debug_str:000000000002d603 .LASF2354
C:\Users\SOLDER~1\AppData\Local\Temp\cchmqEOm.s:24798  .debug_str:000000000000dd02 .LASF2355
C:\Users\SOLDER~1\AppData\Local\Temp\cchmqEOm.s:27564  .debug_str:000000000001917c .LASF2356
C:\Users\SOLDER~1\AppData\Local\Temp\cchmqEOm.s:24388  .debug_str:000000000000c206 .LASF2357
C:\Users\SOLDER~1\AppData\Local\Temp\cchmqEOm.s:28336  .debug_str:000000000001c2ad .LASF2358
C:\Users\SOLDER~1\AppData\Local\Temp\cchmqEOm.s:25270  .debug_str:000000000000fbe3 .LASF2359
C:\Users\SOLDER~1\AppData\Local\Temp\cchmqEOm.s:28752  .debug_str:000000000001de4d .LASF2360
C:\Users\SOLDER~1\AppData\Local\Temp\cchmqEOm.s:29458  .debug_str:0000000000020bf5 .LASF2361
C:\Users\SOLDER~1\AppData\Local\Temp\cchmqEOm.s:24842  .debug_str:000000000000dfe0 .LASF2362
C:\Users\SOLDER~1\AppData\Local\Temp\cchmqEOm.s:26102  .debug_str:0000000000013123 .LASF2363
C:\Users\SOLDER~1\AppData\Local\Temp\cchmqEOm.s:24144  .debug_str:000000000000b231 .LASF2364
C:\Users\SOLDER~1\AppData\Local\Temp\cchmqEOm.s:32126  .debug_str:000000000002b8c7 .LASF2365
C:\Users\SOLDER~1\AppData\Local\Temp\cchmqEOm.s:29380  .debug_str:00000000000206e3 .LASF2366
C:\Users\SOLDER~1\AppData\Local\Temp\cchmqEOm.s:30618  .debug_str:00000000000256e2 .LASF2367
C:\Users\SOLDER~1\AppData\Local\Temp\cchmqEOm.s:29474  .debug_str:0000000000020cf3 .LASF2368
C:\Users\SOLDER~1\AppData\Local\Temp\cchmqEOm.s:27536  .debug_str:0000000000018f93 .LASF2369
C:\Users\SOLDER~1\AppData\Local\Temp\cchmqEOm.s:22014  .debug_str:0000000000002897 .LASF2370
C:\Users\SOLDER~1\AppData\Local\Temp\cchmqEOm.s:22470  .debug_str:00000000000045ca .LASF2371
C:\Users\SOLDER~1\AppData\Local\Temp\cchmqEOm.s:28980  .debug_str:000000000001ecf3 .LASF2372
C:\Users\SOLDER~1\AppData\Local\Temp\cchmqEOm.s:22454  .debug_str:00000000000044d4 .LASF2373
C:\Users\SOLDER~1\AppData\Local\Temp\cchmqEOm.s:22294  .debug_str:0000000000003aa2 .LASF2374
C:\Users\SOLDER~1\AppData\Local\Temp\cchmqEOm.s:22920  .debug_str:0000000000006237 .LASF2375
C:\Users\SOLDER~1\AppData\Local\Temp\cchmqEOm.s:27868  .debug_str:000000000001a4d7 .LASF2376
C:\Users\SOLDER~1\AppData\Local\Temp\cchmqEOm.s:23950  .debug_str:000000000000a55e .LASF2377
GAS LISTING C:\Users\SOLDER~1\AppData\Local\Temp\cchmqEOm.s 			page 116


C:\Users\SOLDER~1\AppData\Local\Temp\cchmqEOm.s:22166  .debug_str:0000000000003279 .LASF2378
C:\Users\SOLDER~1\AppData\Local\Temp\cchmqEOm.s:31850  .debug_str:000000000002a6a4 .LASF2379
C:\Users\SOLDER~1\AppData\Local\Temp\cchmqEOm.s:31256  .debug_str:0000000000028061 .LASF2380
C:\Users\SOLDER~1\AppData\Local\Temp\cchmqEOm.s:21514  .debug_str:000000000000080f .LASF2381
C:\Users\SOLDER~1\AppData\Local\Temp\cchmqEOm.s:32980  .debug_str:000000000002efb1 .LASF2382
C:\Users\SOLDER~1\AppData\Local\Temp\cchmqEOm.s:28376  .debug_str:000000000001c566 .LASF2383
C:\Users\SOLDER~1\AppData\Local\Temp\cchmqEOm.s:24440  .debug_str:000000000000c5b2 .LASF2384
C:\Users\SOLDER~1\AppData\Local\Temp\cchmqEOm.s:32524  .debug_str:000000000002d275 .LASF2385
C:\Users\SOLDER~1\AppData\Local\Temp\cchmqEOm.s:31890  .debug_str:000000000002a976 .LASF2386
C:\Users\SOLDER~1\AppData\Local\Temp\cchmqEOm.s:32214  .debug_str:000000000002be55 .LASF2387
C:\Users\SOLDER~1\AppData\Local\Temp\cchmqEOm.s:28308  .debug_str:000000000001c0df .LASF2388
C:\Users\SOLDER~1\AppData\Local\Temp\cchmqEOm.s:26592  .debug_str:0000000000015272 .LASF2389
C:\Users\SOLDER~1\AppData\Local\Temp\cchmqEOm.s:23068  .debug_str:0000000000006be1 .LASF2390
C:\Users\SOLDER~1\AppData\Local\Temp\cchmqEOm.s:25594  .debug_str:00000000000110bf .LASF2391
C:\Users\SOLDER~1\AppData\Local\Temp\cchmqEOm.s:29156  .debug_str:000000000001f865 .LASF2392
C:\Users\SOLDER~1\AppData\Local\Temp\cchmqEOm.s:23030  .debug_str:00000000000069c9 .LASF2393
C:\Users\SOLDER~1\AppData\Local\Temp\cchmqEOm.s:28444  .debug_str:000000000001c9dd .LASF2394
C:\Users\SOLDER~1\AppData\Local\Temp\cchmqEOm.s:28170  .debug_str:000000000001b857 .LASF2395
C:\Users\SOLDER~1\AppData\Local\Temp\cchmqEOm.s:22052  .debug_str:0000000000002b31 .LASF2396
C:\Users\SOLDER~1\AppData\Local\Temp\cchmqEOm.s:22648  .debug_str:000000000000509f .LASF2397
C:\Users\SOLDER~1\AppData\Local\Temp\cchmqEOm.s:26214  .debug_str:00000000000138ac .LASF2398
C:\Users\SOLDER~1\AppData\Local\Temp\cchmqEOm.s:30394  .debug_str:0000000000024809 .LASF2399
C:\Users\SOLDER~1\AppData\Local\Temp\cchmqEOm.s:23532  .debug_str:00000000000089d9 .LASF2400
C:\Users\SOLDER~1\AppData\Local\Temp\cchmqEOm.s:25086  .debug_str:000000000000efda .LASF2401
C:\Users\SOLDER~1\AppData\Local\Temp\cchmqEOm.s:25792  .debug_str:0000000000011d69 .LASF2402
C:\Users\SOLDER~1\AppData\Local\Temp\cchmqEOm.s:30248  .debug_str:0000000000023ea1 .LASF2403
C:\Users\SOLDER~1\AppData\Local\Temp\cchmqEOm.s:25216  .debug_str:000000000000f817 .LASF2404
C:\Users\SOLDER~1\AppData\Local\Temp\cchmqEOm.s:24236  .debug_str:000000000000b83e .LASF2405
C:\Users\SOLDER~1\AppData\Local\Temp\cchmqEOm.s:30698  .debug_str:0000000000025bde .LASF2406
C:\Users\SOLDER~1\AppData\Local\Temp\cchmqEOm.s:28274  .debug_str:000000000001beab .LASF2407
C:\Users\SOLDER~1\AppData\Local\Temp\cchmqEOm.s:26462  .debug_str:00000000000149d7 .LASF2408
C:\Users\SOLDER~1\AppData\Local\Temp\cchmqEOm.s:28658  .debug_str:000000000001d85a .LASF2409
C:\Users\SOLDER~1\AppData\Local\Temp\cchmqEOm.s:22576  .debug_str:0000000000004c6e .LASF2410
C:\Users\SOLDER~1\AppData\Local\Temp\cchmqEOm.s:23024  .debug_str:0000000000006960 .LASF2411
C:\Users\SOLDER~1\AppData\Local\Temp\cchmqEOm.s:24132  .debug_str:000000000000b162 .LASF2412
C:\Users\SOLDER~1\AppData\Local\Temp\cchmqEOm.s:24466  .debug_str:000000000000c796 .LASF2413
C:\Users\SOLDER~1\AppData\Local\Temp\cchmqEOm.s:29544  .debug_str:000000000002116d .LASF2414
C:\Users\SOLDER~1\AppData\Local\Temp\cchmqEOm.s:23172  .debug_str:00000000000072d2 .LASF2415
C:\Users\SOLDER~1\AppData\Local\Temp\cchmqEOm.s:22438  .debug_str:00000000000043ce .LASF2416
C:\Users\SOLDER~1\AppData\Local\Temp\cchmqEOm.s:28250  .debug_str:000000000001bd51 .LASF2417
C:\Users\SOLDER~1\AppData\Local\Temp\cchmqEOm.s:25304  .debug_str:000000000000fe35 .LASF2418
C:\Users\SOLDER~1\AppData\Local\Temp\cchmqEOm.s:28020  .debug_str:000000000001aec1 .LASF2419
C:\Users\SOLDER~1\AppData\Local\Temp\cchmqEOm.s:28994  .debug_str:000000000001eded .LASF2420
C:\Users\SOLDER~1\AppData\Local\Temp\cchmqEOm.s:21624  .debug_str:0000000000000f96 .LASF2421
C:\Users\SOLDER~1\AppData\Local\Temp\cchmqEOm.s:21740  .debug_str:00000000000016cf .LASF2422
C:\Users\SOLDER~1\AppData\Local\Temp\cchmqEOm.s:22626  .debug_str:0000000000004f69 .LASF2423
C:\Users\SOLDER~1\AppData\Local\Temp\cchmqEOm.s:32736  .debug_str:000000000002e040 .LASF2424
C:\Users\SOLDER~1\AppData\Local\Temp\cchmqEOm.s:24260  .debug_str:000000000000b9a9 .LASF2425
C:\Users\SOLDER~1\AppData\Local\Temp\cchmqEOm.s:26344  .debug_str:0000000000014202 .LASF2426
C:\Users\SOLDER~1\AppData\Local\Temp\cchmqEOm.s:27186  .debug_str:0000000000017894 .LASF2427
C:\Users\SOLDER~1\AppData\Local\Temp\cchmqEOm.s:23020  .debug_str:0000000000006920 .LASF2428
C:\Users\SOLDER~1\AppData\Local\Temp\cchmqEOm.s:21742  .debug_str:00000000000016f1 .LASF2429
C:\Users\SOLDER~1\AppData\Local\Temp\cchmqEOm.s:26546  .debug_str:0000000000014f84 .LASF2430
C:\Users\SOLDER~1\AppData\Local\Temp\cchmqEOm.s:28674  .debug_str:000000000001d976 .LASF2431
C:\Users\SOLDER~1\AppData\Local\Temp\cchmqEOm.s:21436  .debug_str:0000000000000271 .LASF2432
C:\Users\SOLDER~1\AppData\Local\Temp\cchmqEOm.s:21626  .debug_str:0000000000000fae .LASF2433
C:\Users\SOLDER~1\AppData\Local\Temp\cchmqEOm.s:28248  .debug_str:000000000001bd2c .LASF2434
GAS LISTING C:\Users\SOLDER~1\AppData\Local\Temp\cchmqEOm.s 			page 117


C:\Users\SOLDER~1\AppData\Local\Temp\cchmqEOm.s:32328  .debug_str:000000000002c5b0 .LASF2435
C:\Users\SOLDER~1\AppData\Local\Temp\cchmqEOm.s:21896  .debug_str:00000000000020ce .LASF2436
C:\Users\SOLDER~1\AppData\Local\Temp\cchmqEOm.s:32642  .debug_str:000000000002da6a .LASF2437
C:\Users\SOLDER~1\AppData\Local\Temp\cchmqEOm.s:30802  .debug_str:00000000000262b0 .LASF2438
C:\Users\SOLDER~1\AppData\Local\Temp\cchmqEOm.s:31958  .debug_str:000000000002adc2 .LASF2439
C:\Users\SOLDER~1\AppData\Local\Temp\cchmqEOm.s:27382  .debug_str:000000000001858f .LASF2440
C:\Users\SOLDER~1\AppData\Local\Temp\cchmqEOm.s:24640  .debug_str:000000000000d2f6 .LASF2441
C:\Users\SOLDER~1\AppData\Local\Temp\cchmqEOm.s:27052  .debug_str:0000000000016fba .LASF2442
C:\Users\SOLDER~1\AppData\Local\Temp\cchmqEOm.s:32278  .debug_str:000000000002c269 .LASF2443
C:\Users\SOLDER~1\AppData\Local\Temp\cchmqEOm.s:22146  .debug_str:0000000000003129 .LASF2444
C:\Users\SOLDER~1\AppData\Local\Temp\cchmqEOm.s:24642  .debug_str:000000000000d30c .LASF2445
C:\Users\SOLDER~1\AppData\Local\Temp\cchmqEOm.s:28780  .debug_str:000000000001dfd8 .LASF2446
C:\Users\SOLDER~1\AppData\Local\Temp\cchmqEOm.s:24334  .debug_str:000000000000bebc .LASF2447
C:\Users\SOLDER~1\AppData\Local\Temp\cchmqEOm.s:29582  .debug_str:00000000000213f8 .LASF2448
C:\Users\SOLDER~1\AppData\Local\Temp\cchmqEOm.s:29316  .debug_str:00000000000202fc .LASF2449
C:\Users\SOLDER~1\AppData\Local\Temp\cchmqEOm.s:26540  .debug_str:0000000000014f2f .LASF2450
C:\Users\SOLDER~1\AppData\Local\Temp\cchmqEOm.s:26908  .debug_str:00000000000166fe .LASF2451
C:\Users\SOLDER~1\AppData\Local\Temp\cchmqEOm.s:26106  .debug_str:0000000000013161 .LASF2452
C:\Users\SOLDER~1\AppData\Local\Temp\cchmqEOm.s:30416  .debug_str:000000000002496e .LASF2453
C:\Users\SOLDER~1\AppData\Local\Temp\cchmqEOm.s:24728  .debug_str:000000000000d8b6 .LASF2454
C:\Users\SOLDER~1\AppData\Local\Temp\cchmqEOm.s:32062  .debug_str:000000000002b440 .LASF2455
C:\Users\SOLDER~1\AppData\Local\Temp\cchmqEOm.s:30602  .debug_str:00000000000255d8 .LASF2456
C:\Users\SOLDER~1\AppData\Local\Temp\cchmqEOm.s:24952  .debug_str:000000000000e790 .LASF2457
C:\Users\SOLDER~1\AppData\Local\Temp\cchmqEOm.s:31440  .debug_str:0000000000028c5e .LASF2458
C:\Users\SOLDER~1\AppData\Local\Temp\cchmqEOm.s:24646  .debug_str:000000000000d349 .LASF2459
C:\Users\SOLDER~1\AppData\Local\Temp\cchmqEOm.s:29452  .debug_str:0000000000020b8d .LASF2460
C:\Users\SOLDER~1\AppData\Local\Temp\cchmqEOm.s:21844  .debug_str:0000000000001d8f .LASF2461
C:\Users\SOLDER~1\AppData\Local\Temp\cchmqEOm.s:30910  .debug_str:0000000000026a2c .LASF2462
C:\Users\SOLDER~1\AppData\Local\Temp\cchmqEOm.s:24506  .debug_str:000000000000ca33 .LASF2463
C:\Users\SOLDER~1\AppData\Local\Temp\cchmqEOm.s:31130  .debug_str:0000000000027898 .LASF2464
C:\Users\SOLDER~1\AppData\Local\Temp\cchmqEOm.s:23562  .debug_str:0000000000008c08 .LASF2465
C:\Users\SOLDER~1\AppData\Local\Temp\cchmqEOm.s:24772  .debug_str:000000000000db92 .LASF2466
C:\Users\SOLDER~1\AppData\Local\Temp\cchmqEOm.s:25228  .debug_str:000000000000f8f0 .LASF2467
C:\Users\SOLDER~1\AppData\Local\Temp\cchmqEOm.s:23430  .debug_str:000000000000836b .LASF2468
C:\Users\SOLDER~1\AppData\Local\Temp\cchmqEOm.s:22334  .debug_str:0000000000003d3c .LASF2469
C:\Users\SOLDER~1\AppData\Local\Temp\cchmqEOm.s:28434  .debug_str:000000000001c940 .LASF2470
C:\Users\SOLDER~1\AppData\Local\Temp\cchmqEOm.s:30852  .debug_str:000000000002663d .LASF2471
C:\Users\SOLDER~1\AppData\Local\Temp\cchmqEOm.s:29884  .debug_str:0000000000022714 .LASF2472
C:\Users\SOLDER~1\AppData\Local\Temp\cchmqEOm.s:28316  .debug_str:000000000001c14f .LASF2473
C:\Users\SOLDER~1\AppData\Local\Temp\cchmqEOm.s:31710  .debug_str:0000000000029d7e .LASF2474
C:\Users\SOLDER~1\AppData\Local\Temp\cchmqEOm.s:32456  .debug_str:000000000002ce5b .LASF2475
C:\Users\SOLDER~1\AppData\Local\Temp\cchmqEOm.s:33096  .debug_str:000000000002f6ba .LASF2476
C:\Users\SOLDER~1\AppData\Local\Temp\cchmqEOm.s:32140  .debug_str:000000000002b98a .LASF2477
C:\Users\SOLDER~1\AppData\Local\Temp\cchmqEOm.s:22266  .debug_str:00000000000038ce .LASF2478
C:\Users\SOLDER~1\AppData\Local\Temp\cchmqEOm.s:30612  .debug_str:0000000000025683 .LASF2479
C:\Users\SOLDER~1\AppData\Local\Temp\cchmqEOm.s:29324  .debug_str:0000000000020377 .LASF2480
C:\Users\SOLDER~1\AppData\Local\Temp\cchmqEOm.s:24722  .debug_str:000000000000d862 .LASF2481
C:\Users\SOLDER~1\AppData\Local\Temp\cchmqEOm.s:30374  .debug_str:00000000000246b5 .LASF2482
C:\Users\SOLDER~1\AppData\Local\Temp\cchmqEOm.s:26470  .debug_str:0000000000014a4f .LASF2483
C:\Users\SOLDER~1\AppData\Local\Temp\cchmqEOm.s:29692  .debug_str:0000000000021afe .LASF2484
C:\Users\SOLDER~1\AppData\Local\Temp\cchmqEOm.s:28110  .debug_str:000000000001b4b6 .LASF2485
C:\Users\SOLDER~1\AppData\Local\Temp\cchmqEOm.s:23318  .debug_str:0000000000007bf1 .LASF2486
C:\Users\SOLDER~1\AppData\Local\Temp\cchmqEOm.s:30876  .debug_str:00000000000267c7 .LASF2487
C:\Users\SOLDER~1\AppData\Local\Temp\cchmqEOm.s:28186  .debug_str:000000000001b943 .LASF2488
C:\Users\SOLDER~1\AppData\Local\Temp\cchmqEOm.s:30410  .debug_str:000000000002490f .LASF2489
C:\Users\SOLDER~1\AppData\Local\Temp\cchmqEOm.s:32376  .debug_str:000000000002c8f4 .LASF2490
C:\Users\SOLDER~1\AppData\Local\Temp\cchmqEOm.s:32368  .debug_str:000000000002c887 .LASF2491
GAS LISTING C:\Users\SOLDER~1\AppData\Local\Temp\cchmqEOm.s 			page 118


C:\Users\SOLDER~1\AppData\Local\Temp\cchmqEOm.s:27790  .debug_str:0000000000019fe9 .LASF2492
C:\Users\SOLDER~1\AppData\Local\Temp\cchmqEOm.s:33018  .debug_str:000000000002f205 .LASF2493
C:\Users\SOLDER~1\AppData\Local\Temp\cchmqEOm.s:22360  .debug_str:0000000000003ee9 .LASF2494
C:\Users\SOLDER~1\AppData\Local\Temp\cchmqEOm.s:28312  .debug_str:000000000001c115 .LASF2495
C:\Users\SOLDER~1\AppData\Local\Temp\cchmqEOm.s:27696  .debug_str:0000000000019a2d .LASF2496
C:\Users\SOLDER~1\AppData\Local\Temp\cchmqEOm.s:29504  .debug_str:0000000000020ec9 .LASF2497
C:\Users\SOLDER~1\AppData\Local\Temp\cchmqEOm.s:27740  .debug_str:0000000000019cef .LASF2498
C:\Users\SOLDER~1\AppData\Local\Temp\cchmqEOm.s:30804  .debug_str:00000000000262d2 .LASF2499
C:\Users\SOLDER~1\AppData\Local\Temp\cchmqEOm.s:31442  .debug_str:0000000000028c81 .LASF2500
C:\Users\SOLDER~1\AppData\Local\Temp\cchmqEOm.s:27834  .debug_str:000000000001a2cd .LASF2501
C:\Users\SOLDER~1\AppData\Local\Temp\cchmqEOm.s:32392  .debug_str:000000000002ca00 .LASF2502
C:\Users\SOLDER~1\AppData\Local\Temp\cchmqEOm.s:24398  .debug_str:000000000000c2ca .LASF2503
C:\Users\SOLDER~1\AppData\Local\Temp\cchmqEOm.s:27360  .debug_str:000000000001840d .LASF2504
C:\Users\SOLDER~1\AppData\Local\Temp\cchmqEOm.s:28572  .debug_str:000000000001d272 .LASF2505
C:\Users\SOLDER~1\AppData\Local\Temp\cchmqEOm.s:25758  .debug_str:0000000000011b50 .LASF2506
C:\Users\SOLDER~1\AppData\Local\Temp\cchmqEOm.s:28182  .debug_str:000000000001b908 .LASF2507
C:\Users\SOLDER~1\AppData\Local\Temp\cchmqEOm.s:26564  .debug_str:00000000000150bf .LASF2508
C:\Users\SOLDER~1\AppData\Local\Temp\cchmqEOm.s:23924  .debug_str:000000000000a3c3 .LASF2509
C:\Users\SOLDER~1\AppData\Local\Temp\cchmqEOm.s:23640  .debug_str:0000000000009115 .LASF2510
C:\Users\SOLDER~1\AppData\Local\Temp\cchmqEOm.s:21552  .debug_str:0000000000000ac6 .LASF2511
C:\Users\SOLDER~1\AppData\Local\Temp\cchmqEOm.s:22980  .debug_str:0000000000006622 .LASF2512
C:\Users\SOLDER~1\AppData\Local\Temp\cchmqEOm.s:22554  .debug_str:0000000000004ae8 .LASF2513
C:\Users\SOLDER~1\AppData\Local\Temp\cchmqEOm.s:22296  .debug_str:0000000000003ac7 .LASF2514
C:\Users\SOLDER~1\AppData\Local\Temp\cchmqEOm.s:24190  .debug_str:000000000000b527 .LASF2515
C:\Users\SOLDER~1\AppData\Local\Temp\cchmqEOm.s:27646  .debug_str:00000000000196c7 .LASF2516
C:\Users\SOLDER~1\AppData\Local\Temp\cchmqEOm.s:22738  .debug_str:00000000000055e4 .LASF2517
C:\Users\SOLDER~1\AppData\Local\Temp\cchmqEOm.s:24974  .debug_str:000000000000e8b2 .LASF2518
C:\Users\SOLDER~1\AppData\Local\Temp\cchmqEOm.s:30558  .debug_str:00000000000252fd .LASF2519
C:\Users\SOLDER~1\AppData\Local\Temp\cchmqEOm.s:23692  .debug_str:00000000000094a2 .LASF2520
C:\Users\SOLDER~1\AppData\Local\Temp\cchmqEOm.s:32064  .debug_str:000000000002b458 .LASF2521
C:\Users\SOLDER~1\AppData\Local\Temp\cchmqEOm.s:24472  .debug_str:000000000000c7e9 .LASF2522
C:\Users\SOLDER~1\AppData\Local\Temp\cchmqEOm.s:30332  .debug_str:00000000000243ed .LASF2523
C:\Users\SOLDER~1\AppData\Local\Temp\cchmqEOm.s:25302  .debug_str:000000000000fe10 .LASF2524
C:\Users\SOLDER~1\AppData\Local\Temp\cchmqEOm.s:30980  .debug_str:0000000000026ee9 .LASF2525
C:\Users\SOLDER~1\AppData\Local\Temp\cchmqEOm.s:22578  .debug_str:0000000000004c93 .LASF2526
C:\Users\SOLDER~1\AppData\Local\Temp\cchmqEOm.s:22196  .debug_str:000000000000347b .LASF2527
C:\Users\SOLDER~1\AppData\Local\Temp\cchmqEOm.s:29736  .debug_str:0000000000021dda .LASF2528
C:\Users\SOLDER~1\AppData\Local\Temp\cchmqEOm.s:27668  .debug_str:000000000001982f .LASF2529
C:\Users\SOLDER~1\AppData\Local\Temp\cchmqEOm.s:22660  .debug_str:0000000000005138 .LASF2530
C:\Users\SOLDER~1\AppData\Local\Temp\cchmqEOm.s:31518  .debug_str:0000000000029170 .LASF2531
C:\Users\SOLDER~1\AppData\Local\Temp\cchmqEOm.s:22604  .debug_str:0000000000004e2d .LASF2532
C:\Users\SOLDER~1\AppData\Local\Temp\cchmqEOm.s:32870  .debug_str:000000000002e8b1 .LASF2533
C:\Users\SOLDER~1\AppData\Local\Temp\cchmqEOm.s:21804  .debug_str:0000000000001acc .LASF2534
C:\Users\SOLDER~1\AppData\Local\Temp\cchmqEOm.s:22460  .debug_str:0000000000004532 .LASF2535
C:\Users\SOLDER~1\AppData\Local\Temp\cchmqEOm.s:27840  .debug_str:000000000001a319 .LASF2536
C:\Users\SOLDER~1\AppData\Local\Temp\cchmqEOm.s:29434  .debug_str:0000000000020a64 .LASF2537
C:\Users\SOLDER~1\AppData\Local\Temp\cchmqEOm.s:22124  .debug_str:0000000000002fda .LASF2538
C:\Users\SOLDER~1\AppData\Local\Temp\cchmqEOm.s:25202  .debug_str:000000000000f745 .LASF2539
C:\Users\SOLDER~1\AppData\Local\Temp\cchmqEOm.s:28156  .debug_str:000000000001b764 .LASF2540
C:\Users\SOLDER~1\AppData\Local\Temp\cchmqEOm.s:32110  .debug_str:000000000002b7c8 .LASF2541
C:\Users\SOLDER~1\AppData\Local\Temp\cchmqEOm.s:22352  .debug_str:0000000000003e5f .LASF2542
C:\Users\SOLDER~1\AppData\Local\Temp\cchmqEOm.s:27876  .debug_str:000000000001a56c .LASF2543
C:\Users\SOLDER~1\AppData\Local\Temp\cchmqEOm.s:25942  .debug_str:00000000000126d8 .LASF2544
C:\Users\SOLDER~1\AppData\Local\Temp\cchmqEOm.s:21630  .debug_str:0000000000000fe8 .LASF2545
C:\Users\SOLDER~1\AppData\Local\Temp\cchmqEOm.s:32228  .debug_str:000000000002bf41 .LASF2546
C:\Users\SOLDER~1\AppData\Local\Temp\cchmqEOm.s:23234  .debug_str:00000000000076b3 .LASF2547
C:\Users\SOLDER~1\AppData\Local\Temp\cchmqEOm.s:31428  .debug_str:0000000000028ba5 .LASF2548
GAS LISTING C:\Users\SOLDER~1\AppData\Local\Temp\cchmqEOm.s 			page 119


C:\Users\SOLDER~1\AppData\Local\Temp\cchmqEOm.s:24846  .debug_str:000000000000e026 .LASF2549
C:\Users\SOLDER~1\AppData\Local\Temp\cchmqEOm.s:30774  .debug_str:00000000000260db .LASF2550
C:\Users\SOLDER~1\AppData\Local\Temp\cchmqEOm.s:26386  .debug_str:00000000000144ff .LASF2551
C:\Users\SOLDER~1\AppData\Local\Temp\cchmqEOm.s:24134  .debug_str:000000000000b182 .LASF2552
C:\Users\SOLDER~1\AppData\Local\Temp\cchmqEOm.s:28030  .debug_str:000000000001af3d .LASF2553
C:\Users\SOLDER~1\AppData\Local\Temp\cchmqEOm.s:23998  .debug_str:000000000000a8c8 .LASF2554
C:\Users\SOLDER~1\AppData\Local\Temp\cchmqEOm.s:29532  .debug_str:00000000000210a6 .LASF2555
C:\Users\SOLDER~1\AppData\Local\Temp\cchmqEOm.s:22702  .debug_str:00000000000053e3 .LASF2556
C:\Users\SOLDER~1\AppData\Local\Temp\cchmqEOm.s:27750  .debug_str:0000000000019d65 .LASF2557
C:\Users\SOLDER~1\AppData\Local\Temp\cchmqEOm.s:27792  .debug_str:000000000001a00c .LASF2558
C:\Users\SOLDER~1\AppData\Local\Temp\cchmqEOm.s:28126  .debug_str:000000000001b5ad .LASF2559
C:\Users\SOLDER~1\AppData\Local\Temp\cchmqEOm.s:28976  .debug_str:000000000001ecaa .LASF2560
C:\Users\SOLDER~1\AppData\Local\Temp\cchmqEOm.s:29632  .debug_str:000000000002174a .LASF2561
C:\Users\SOLDER~1\AppData\Local\Temp\cchmqEOm.s:27364  .debug_str:0000000000018458 .LASF2562
C:\Users\SOLDER~1\AppData\Local\Temp\cchmqEOm.s:31244  .debug_str:0000000000027fbf .LASF2563
C:\Users\SOLDER~1\AppData\Local\Temp\cchmqEOm.s:32462  .debug_str:000000000002ce9c .LASF2564
C:\Users\SOLDER~1\AppData\Local\Temp\cchmqEOm.s:32904  .debug_str:000000000002eabf .LASF2565
C:\Users\SOLDER~1\AppData\Local\Temp\cchmqEOm.s:25804  .debug_str:0000000000011e32 .LASF2566
C:\Users\SOLDER~1\AppData\Local\Temp\cchmqEOm.s:22708  .debug_str:000000000000543c .LASF2567
C:\Users\SOLDER~1\AppData\Local\Temp\cchmqEOm.s:30670  .debug_str:0000000000025a24 .LASF2568
C:\Users\SOLDER~1\AppData\Local\Temp\cchmqEOm.s:24338  .debug_str:000000000000bef9 .LASF2569
C:\Users\SOLDER~1\AppData\Local\Temp\cchmqEOm.s:24364  .debug_str:000000000000c083 .LASF2570
C:\Users\SOLDER~1\AppData\Local\Temp\cchmqEOm.s:25962  .debug_str:0000000000012865 .LASF2571
C:\Users\SOLDER~1\AppData\Local\Temp\cchmqEOm.s:29420  .debug_str:0000000000020965 .LASF2572
C:\Users\SOLDER~1\AppData\Local\Temp\cchmqEOm.s:28864  .debug_str:000000000001e593 .LASF2573
C:\Users\SOLDER~1\AppData\Local\Temp\cchmqEOm.s:22080  .debug_str:0000000000002ccb .LASF2574
C:\Users\SOLDER~1\AppData\Local\Temp\cchmqEOm.s:26964  .debug_str:0000000000016a3b .LASF2575
C:\Users\SOLDER~1\AppData\Local\Temp\cchmqEOm.s:28208  .debug_str:000000000001bab0 .LASF2576
C:\Users\SOLDER~1\AppData\Local\Temp\cchmqEOm.s:25004  .debug_str:000000000000eae2 .LASF2577
C:\Users\SOLDER~1\AppData\Local\Temp\cchmqEOm.s:28870  .debug_str:000000000001e5e3 .LASF2578
C:\Users\SOLDER~1\AppData\Local\Temp\cchmqEOm.s:23088  .debug_str:0000000000006d1d .LASF2579
C:\Users\SOLDER~1\AppData\Local\Temp\cchmqEOm.s:24476  .debug_str:000000000000c829 .LASF2580
C:\Users\SOLDER~1\AppData\Local\Temp\cchmqEOm.s:32880  .debug_str:000000000002e93f .LASF2581
C:\Users\SOLDER~1\AppData\Local\Temp\cchmqEOm.s:29066  .debug_str:000000000001f269 .LASF2582
C:\Users\SOLDER~1\AppData\Local\Temp\cchmqEOm.s:30908  .debug_str:0000000000026a13 .LASF2583
C:\Users\SOLDER~1\AppData\Local\Temp\cchmqEOm.s:29682  .debug_str:0000000000021a81 .LASF2584
C:\Users\SOLDER~1\AppData\Local\Temp\cchmqEOm.s:29024  .debug_str:000000000001efe6 .LASF2585
C:\Users\SOLDER~1\AppData\Local\Temp\cchmqEOm.s:25132  .debug_str:000000000000f2aa .LASF2586
C:\Users\SOLDER~1\AppData\Local\Temp\cchmqEOm.s:27122  .debug_str:0000000000017427 .LASF2587
C:\Users\SOLDER~1\AppData\Local\Temp\cchmqEOm.s:21712  .debug_str:0000000000001531 .LASF2588
C:\Users\SOLDER~1\AppData\Local\Temp\cchmqEOm.s:25168  .debug_str:000000000000f516 .LASF2589
C:\Users\SOLDER~1\AppData\Local\Temp\cchmqEOm.s:31616  .debug_str:0000000000029759 .LASF2590
C:\Users\SOLDER~1\AppData\Local\Temp\cchmqEOm.s:27990  .debug_str:000000000001acb7 .LASF2591
C:\Users\SOLDER~1\AppData\Local\Temp\cchmqEOm.s:22640  .debug_str:000000000000501f .LASF2592
C:\Users\SOLDER~1\AppData\Local\Temp\cchmqEOm.s:29268  .debug_str:000000000001ffee .LASF2593
C:\Users\SOLDER~1\AppData\Local\Temp\cchmqEOm.s:28960  .debug_str:000000000001eb72 .LASF2594
C:\Users\SOLDER~1\AppData\Local\Temp\cchmqEOm.s:27550  .debug_str:0000000000019080 .LASF2595
C:\Users\SOLDER~1\AppData\Local\Temp\cchmqEOm.s:21820  .debug_str:0000000000001bf0 .LASF2596
C:\Users\SOLDER~1\AppData\Local\Temp\cchmqEOm.s:25846  .debug_str:0000000000012110 .LASF2597
C:\Users\SOLDER~1\AppData\Local\Temp\cchmqEOm.s:32464  .debug_str:000000000002cec1 .LASF2598
C:\Users\SOLDER~1\AppData\Local\Temp\cchmqEOm.s:24178  .debug_str:000000000000b459 .LASF2599
C:\Users\SOLDER~1\AppData\Local\Temp\cchmqEOm.s:28580  .debug_str:000000000001d304 .LASF2600
C:\Users\SOLDER~1\AppData\Local\Temp\cchmqEOm.s:22418  .debug_str:00000000000042a6 .LASF2601
C:\Users\SOLDER~1\AppData\Local\Temp\cchmqEOm.s:24678  .debug_str:000000000000d563 .LASF2602
C:\Users\SOLDER~1\AppData\Local\Temp\cchmqEOm.s:32478  .debug_str:000000000002cfab .LASF2603
C:\Users\SOLDER~1\AppData\Local\Temp\cchmqEOm.s:28038  .debug_str:000000000001afbc .LASF2604
C:\Users\SOLDER~1\AppData\Local\Temp\cchmqEOm.s:27258  .debug_str:0000000000017d3c .LASF2605
GAS LISTING C:\Users\SOLDER~1\AppData\Local\Temp\cchmqEOm.s 			page 120


C:\Users\SOLDER~1\AppData\Local\Temp\cchmqEOm.s:23312  .debug_str:0000000000007b7a .LASF2606
C:\Users\SOLDER~1\AppData\Local\Temp\cchmqEOm.s:29070  .debug_str:000000000001f2b4 .LASF2607
C:\Users\SOLDER~1\AppData\Local\Temp\cchmqEOm.s:32932  .debug_str:000000000002ec97 .LASF2608
C:\Users\SOLDER~1\AppData\Local\Temp\cchmqEOm.s:27442  .debug_str:0000000000018942 .LASF2609
C:\Users\SOLDER~1\AppData\Local\Temp\cchmqEOm.s:26446  .debug_str:00000000000148e5 .LASF2610
C:\Users\SOLDER~1\AppData\Local\Temp\cchmqEOm.s:25750  .debug_str:0000000000011abc .LASF2611
C:\Users\SOLDER~1\AppData\Local\Temp\cchmqEOm.s:31748  .debug_str:0000000000029fd5 .LASF2612
C:\Users\SOLDER~1\AppData\Local\Temp\cchmqEOm.s:25266  .debug_str:000000000000fba8 .LASF2613
C:\Users\SOLDER~1\AppData\Local\Temp\cchmqEOm.s:22422  .debug_str:00000000000042db .LASF2614
C:\Users\SOLDER~1\AppData\Local\Temp\cchmqEOm.s:21488  .debug_str:00000000000005d5 .LASF2615
C:\Users\SOLDER~1\AppData\Local\Temp\cchmqEOm.s:28456  .debug_str:000000000001ca8f .LASF2616
C:\Users\SOLDER~1\AppData\Local\Temp\cchmqEOm.s:31222  .debug_str:0000000000027e68 .LASF2617
C:\Users\SOLDER~1\AppData\Local\Temp\cchmqEOm.s:22956  .debug_str:000000000000648b .LASF2618
C:\Users\SOLDER~1\AppData\Local\Temp\cchmqEOm.s:29312  .debug_str:00000000000202b7 .LASF2619
C:\Users\SOLDER~1\AppData\Local\Temp\cchmqEOm.s:29372  .debug_str:0000000000020671 .LASF2620
C:\Users\SOLDER~1\AppData\Local\Temp\cchmqEOm.s:27466  .debug_str:0000000000018af2 .LASF2621
C:\Users\SOLDER~1\AppData\Local\Temp\cchmqEOm.s:29322  .debug_str:0000000000020351 .LASF2622
C:\Users\SOLDER~1\AppData\Local\Temp\cchmqEOm.s:24610  .debug_str:000000000000d0e8 .LASF2623
C:\Users\SOLDER~1\AppData\Local\Temp\cchmqEOm.s:30030  .debug_str:000000000002304e .LASF2624
C:\Users\SOLDER~1\AppData\Local\Temp\cchmqEOm.s:22652  .debug_str:00000000000050da .LASF2625
C:\Users\SOLDER~1\AppData\Local\Temp\cchmqEOm.s:25508  .debug_str:0000000000010b5c .LASF2626
C:\Users\SOLDER~1\AppData\Local\Temp\cchmqEOm.s:21646  .debug_str:00000000000010d4 .LASF2627
C:\Users\SOLDER~1\AppData\Local\Temp\cchmqEOm.s:22054  .debug_str:0000000000002b53 .LASF2628
C:\Users\SOLDER~1\AppData\Local\Temp\cchmqEOm.s:31382  .debug_str:00000000000288bc .LASF2629
C:\Users\SOLDER~1\AppData\Local\Temp\cchmqEOm.s:31874  .debug_str:000000000002a863 .LASF2630
C:\Users\SOLDER~1\AppData\Local\Temp\cchmqEOm.s:29554  .debug_str:0000000000021225 .LASF2631
C:\Users\SOLDER~1\AppData\Local\Temp\cchmqEOm.s:22912  .debug_str:00000000000061a3 .LASF2632
C:\Users\SOLDER~1\AppData\Local\Temp\cchmqEOm.s:33060  .debug_str:000000000002f477 .LASF2633
C:\Users\SOLDER~1\AppData\Local\Temp\cchmqEOm.s:25662  .debug_str:0000000000011509 .LASF2634
C:\Users\SOLDER~1\AppData\Local\Temp\cchmqEOm.s:25046  .debug_str:000000000000ed4f .LASF2635
C:\Users\SOLDER~1\AppData\Local\Temp\cchmqEOm.s:30178  .debug_str:00000000000239ec .LASF2636
C:\Users\SOLDER~1\AppData\Local\Temp\cchmqEOm.s:31312  .debug_str:000000000002842c .LASF2637
C:\Users\SOLDER~1\AppData\Local\Temp\cchmqEOm.s:29252  .debug_str:000000000001fefc .LASF2638
C:\Users\SOLDER~1\AppData\Local\Temp\cchmqEOm.s:25084  .debug_str:000000000000efc0 .LASF2639
C:\Users\SOLDER~1\AppData\Local\Temp\cchmqEOm.s:27214  .debug_str:0000000000017a70 .LASF2640
C:\Users\SOLDER~1\AppData\Local\Temp\cchmqEOm.s:31772  .debug_str:000000000002a167 .LASF2641
C:\Users\SOLDER~1\AppData\Local\Temp\cchmqEOm.s:23192  .debug_str:000000000000740b .LASF2642
C:\Users\SOLDER~1\AppData\Local\Temp\cchmqEOm.s:29994  .debug_str:0000000000022dfe .LASF2643
C:\Users\SOLDER~1\AppData\Local\Temp\cchmqEOm.s:24692  .debug_str:000000000000d679 .LASF2644
C:\Users\SOLDER~1\AppData\Local\Temp\cchmqEOm.s:28370  .debug_str:000000000001c50f .LASF2645
C:\Users\SOLDER~1\AppData\Local\Temp\cchmqEOm.s:26668  .debug_str:0000000000015767 .LASF2646
C:\Users\SOLDER~1\AppData\Local\Temp\cchmqEOm.s:26706  .debug_str:00000000000159cf .LASF2647
C:\Users\SOLDER~1\AppData\Local\Temp\cchmqEOm.s:29592  .debug_str:00000000000214b5 .LASF2648
C:\Users\SOLDER~1\AppData\Local\Temp\cchmqEOm.s:24938  .debug_str:000000000000e6ae .LASF2649
C:\Users\SOLDER~1\AppData\Local\Temp\cchmqEOm.s:31254  .debug_str:000000000002803a .LASF2650
C:\Users\SOLDER~1\AppData\Local\Temp\cchmqEOm.s:23300  .debug_str:0000000000007ad4 .LASF2651
C:\Users\SOLDER~1\AppData\Local\Temp\cchmqEOm.s:28430  .debug_str:000000000001c8f5 .LASF2652
C:\Users\SOLDER~1\AppData\Local\Temp\cchmqEOm.s:23906  .debug_str:000000000000a29c .LASF2653
C:\Users\SOLDER~1\AppData\Local\Temp\cchmqEOm.s:22022  .debug_str:0000000000002954 .LASF2654
C:\Users\SOLDER~1\AppData\Local\Temp\cchmqEOm.s:22004  .debug_str:0000000000002805 .LASF2655
C:\Users\SOLDER~1\AppData\Local\Temp\cchmqEOm.s:28150  .debug_str:000000000001b6ff .LASF2656
C:\Users\SOLDER~1\AppData\Local\Temp\cchmqEOm.s:30102  .debug_str:00000000000234ec .LASF2657
C:\Users\SOLDER~1\AppData\Local\Temp\cchmqEOm.s:22752  .debug_str:00000000000056be .LASF2658
C:\Users\SOLDER~1\AppData\Local\Temp\cchmqEOm.s:29840  .debug_str:0000000000022449 .LASF2659
C:\Users\SOLDER~1\AppData\Local\Temp\cchmqEOm.s:28948  .debug_str:000000000001eaa5 .LASF2660
C:\Users\SOLDER~1\AppData\Local\Temp\cchmqEOm.s:27952  .debug_str:000000000001aa32 .LASF2661
C:\Users\SOLDER~1\AppData\Local\Temp\cchmqEOm.s:28914  .debug_str:000000000001e89a .LASF2662
GAS LISTING C:\Users\SOLDER~1\AppData\Local\Temp\cchmqEOm.s 			page 121


C:\Users\SOLDER~1\AppData\Local\Temp\cchmqEOm.s:25998  .debug_str:0000000000012a70 .LASF2663
C:\Users\SOLDER~1\AppData\Local\Temp\cchmqEOm.s:29628  .debug_str:00000000000216ea .LASF2664
C:\Users\SOLDER~1\AppData\Local\Temp\cchmqEOm.s:24082  .debug_str:000000000000ae10 .LASF2665
C:\Users\SOLDER~1\AppData\Local\Temp\cchmqEOm.s:25072  .debug_str:000000000000eef8 .LASF2666
C:\Users\SOLDER~1\AppData\Local\Temp\cchmqEOm.s:22162  .debug_str:000000000000324e .LASF2667
C:\Users\SOLDER~1\AppData\Local\Temp\cchmqEOm.s:21666  .debug_str:0000000000001225 .LASF2668
C:\Users\SOLDER~1\AppData\Local\Temp\cchmqEOm.s:22482  .debug_str:0000000000004691 .LASF2669
C:\Users\SOLDER~1\AppData\Local\Temp\cchmqEOm.s:30518  .debug_str:0000000000025058 .LASF2670
C:\Users\SOLDER~1\AppData\Local\Temp\cchmqEOm.s:29984  .debug_str:0000000000022d68 .LASF2671
C:\Users\SOLDER~1\AppData\Local\Temp\cchmqEOm.s:22580  .debug_str:0000000000004cb3 .LASF2672
C:\Users\SOLDER~1\AppData\Local\Temp\cchmqEOm.s:30674  .debug_str:0000000000025a67 .LASF2673
C:\Users\SOLDER~1\AppData\Local\Temp\cchmqEOm.s:29710  .debug_str:0000000000021c32 .LASF2674
C:\Users\SOLDER~1\AppData\Local\Temp\cchmqEOm.s:29048  .debug_str:000000000001f175 .LASF2675
C:\Users\SOLDER~1\AppData\Local\Temp\cchmqEOm.s:27794  .debug_str:000000000001a031 .LASF2676
C:\Users\SOLDER~1\AppData\Local\Temp\cchmqEOm.s:27414  .debug_str:000000000001878f .LASF2677
C:\Users\SOLDER~1\AppData\Local\Temp\cchmqEOm.s:26824  .debug_str:000000000001615e .LASF2678
C:\Users\SOLDER~1\AppData\Local\Temp\cchmqEOm.s:25726  .debug_str:0000000000011959 .LASF2679
C:\Users\SOLDER~1\AppData\Local\Temp\cchmqEOm.s:22922  .debug_str:000000000000624e .LASF2680
C:\Users\SOLDER~1\AppData\Local\Temp\cchmqEOm.s:23954  .debug_str:000000000000a5a4 .LASF2681
C:\Users\SOLDER~1\AppData\Local\Temp\cchmqEOm.s:32548  .debug_str:000000000002d3fa .LASF2682
C:\Users\SOLDER~1\AppData\Local\Temp\cchmqEOm.s:22314  .debug_str:0000000000003c06 .LASF2683
C:\Users\SOLDER~1\AppData\Local\Temp\cchmqEOm.s:22350  .debug_str:0000000000003e38 .LASF2684
C:\Users\SOLDER~1\AppData\Local\Temp\cchmqEOm.s:28986  .debug_str:000000000001ed65 .LASF2685
C:\Users\SOLDER~1\AppData\Local\Temp\cchmqEOm.s:29266  .debug_str:000000000001ffc7 .LASF2686
C:\Users\SOLDER~1\AppData\Local\Temp\cchmqEOm.s:30568  .debug_str:00000000000253aa .LASF2687
C:\Users\SOLDER~1\AppData\Local\Temp\cchmqEOm.s:27294  .debug_str:0000000000017f80 .LASF2688
C:\Users\SOLDER~1\AppData\Local\Temp\cchmqEOm.s:28938  .debug_str:000000000001ea1c .LASF2689
C:\Users\SOLDER~1\AppData\Local\Temp\cchmqEOm.s:28840  .debug_str:000000000001e3d8 .LASF2690
C:\Users\SOLDER~1\AppData\Local\Temp\cchmqEOm.s:27320  .debug_str:0000000000018139 .LASF2691
C:\Users\SOLDER~1\AppData\Local\Temp\cchmqEOm.s:30090  .debug_str:000000000002342c .LASF2692
C:\Users\SOLDER~1\AppData\Local\Temp\cchmqEOm.s:22722  .debug_str:0000000000005500 .LASF2693
C:\Users\SOLDER~1\AppData\Local\Temp\cchmqEOm.s:21914  .debug_str:0000000000002212 .LASF2694
C:\Users\SOLDER~1\AppData\Local\Temp\cchmqEOm.s:24492  .debug_str:000000000000c94d .LASF2695
C:\Users\SOLDER~1\AppData\Local\Temp\cchmqEOm.s:26206  .debug_str:000000000001382d .LASF2696
C:\Users\SOLDER~1\AppData\Local\Temp\cchmqEOm.s:26124  .debug_str:00000000000132a1 .LASF2697
C:\Users\SOLDER~1\AppData\Local\Temp\cchmqEOm.s:22518  .debug_str:00000000000048d8 .LASF2698
C:\Users\SOLDER~1\AppData\Local\Temp\cchmqEOm.s:28660  .debug_str:000000000001d876 .LASF2699
C:\Users\SOLDER~1\AppData\Local\Temp\cchmqEOm.s:28936  .debug_str:000000000001e9f6 .LASF2700
C:\Users\SOLDER~1\AppData\Local\Temp\cchmqEOm.s:33080  .debug_str:000000000002f5bb .LASF2701
C:\Users\SOLDER~1\AppData\Local\Temp\cchmqEOm.s:28898  .debug_str:000000000001e7a6 .LASF2702
C:\Users\SOLDER~1\AppData\Local\Temp\cchmqEOm.s:24804  .debug_str:000000000000dd5e .LASF2703
C:\Users\SOLDER~1\AppData\Local\Temp\cchmqEOm.s:29520  .debug_str:0000000000020fce .LASF2704
C:\Users\SOLDER~1\AppData\Local\Temp\cchmqEOm.s:22886  .debug_str:0000000000005fca .LASF2705
C:\Users\SOLDER~1\AppData\Local\Temp\cchmqEOm.s:29234  .debug_str:000000000001fdba .LASF2706
C:\Users\SOLDER~1\AppData\Local\Temp\cchmqEOm.s:32666  .debug_str:000000000002dbd3 .LASF2707
C:\Users\SOLDER~1\AppData\Local\Temp\cchmqEOm.s:26466  .debug_str:0000000000014a0b .LASF2708
C:\Users\SOLDER~1\AppData\Local\Temp\cchmqEOm.s:30800  .debug_str:0000000000026298 .LASF2709
C:\Users\SOLDER~1\AppData\Local\Temp\cchmqEOm.s:31454  .debug_str:0000000000028d40 .LASF2710
C:\Users\SOLDER~1\AppData\Local\Temp\cchmqEOm.s:28910  .debug_str:000000000001e85f .LASF2711
C:\Users\SOLDER~1\AppData\Local\Temp\cchmqEOm.s:29310  .debug_str:0000000000020291 .LASF2712
C:\Users\SOLDER~1\AppData\Local\Temp\cchmqEOm.s:27280  .debug_str:0000000000017eaa .LASF2713
C:\Users\SOLDER~1\AppData\Local\Temp\cchmqEOm.s:29650  .debug_str:0000000000021890 .LASF2714
C:\Users\SOLDER~1\AppData\Local\Temp\cchmqEOm.s:23614  .debug_str:0000000000008f8e .LASF2715
C:\Users\SOLDER~1\AppData\Local\Temp\cchmqEOm.s:22388  .debug_str:000000000000409c .LASF2716
C:\Users\SOLDER~1\AppData\Local\Temp\cchmqEOm.s:23818  .debug_str:0000000000009ca6 .LASF2717
C:\Users\SOLDER~1\AppData\Local\Temp\cchmqEOm.s:21574  .debug_str:0000000000000c51 .LASF2718
C:\Users\SOLDER~1\AppData\Local\Temp\cchmqEOm.s:21404  .debug_str:00000000000000a0 .LASF2719
GAS LISTING C:\Users\SOLDER~1\AppData\Local\Temp\cchmqEOm.s 			page 122


C:\Users\SOLDER~1\AppData\Local\Temp\cchmqEOm.s:29378  .debug_str:00000000000206bc .LASF2720
C:\Users\SOLDER~1\AppData\Local\Temp\cchmqEOm.s:27392  .debug_str:0000000000018632 .LASF2721
C:\Users\SOLDER~1\AppData\Local\Temp\cchmqEOm.s:30186  .debug_str:0000000000023a85 .LASF2722
C:\Users\SOLDER~1\AppData\Local\Temp\cchmqEOm.s:30428  .debug_str:0000000000024a4a .LASF2723
C:\Users\SOLDER~1\AppData\Local\Temp\cchmqEOm.s:28710  .debug_str:000000000001dbc9 .LASF2724
C:\Users\SOLDER~1\AppData\Local\Temp\cchmqEOm.s:28792  .debug_str:000000000001e0a7 .LASF2725
C:\Users\SOLDER~1\AppData\Local\Temp\cchmqEOm.s:23988  .debug_str:000000000000a817 .LASF2726
C:\Users\SOLDER~1\AppData\Local\Temp\cchmqEOm.s:27170  .debug_str:0000000000017755 .LASF2727
C:\Users\SOLDER~1\AppData\Local\Temp\cchmqEOm.s:21900  .debug_str:0000000000002116 .LASF2728
C:\Users\SOLDER~1\AppData\Local\Temp\cchmqEOm.s:25400  .debug_str:000000000001045c .LASF2729
C:\Users\SOLDER~1\AppData\Local\Temp\cchmqEOm.s:23586  .debug_str:0000000000008d7b .LASF2730
C:\Users\SOLDER~1\AppData\Local\Temp\cchmqEOm.s:23728  .debug_str:000000000000971a .LASF2731
C:\Users\SOLDER~1\AppData\Local\Temp\cchmqEOm.s:32432  .debug_str:000000000002ccbe .LASF2732
C:\Users\SOLDER~1\AppData\Local\Temp\cchmqEOm.s:32572  .debug_str:000000000002d59c .LASF2733
C:\Users\SOLDER~1\AppData\Local\Temp\cchmqEOm.s:30778  .debug_str:000000000002611b .LASF2734
C:\Users\SOLDER~1\AppData\Local\Temp\cchmqEOm.s:30620  .debug_str:00000000000256fb .LASF2735
C:\Users\SOLDER~1\AppData\Local\Temp\cchmqEOm.s:25220  .debug_str:000000000000f856 .LASF2736
C:\Users\SOLDER~1\AppData\Local\Temp\cchmqEOm.s:28720  .debug_str:000000000001dc67 .LASF2737
C:\Users\SOLDER~1\AppData\Local\Temp\cchmqEOm.s:31418  .debug_str:0000000000028b07 .LASF2738
C:\Users\SOLDER~1\AppData\Local\Temp\cchmqEOm.s:26810  .debug_str:0000000000016085 .LASF2739
C:\Users\SOLDER~1\AppData\Local\Temp\cchmqEOm.s:26120  .debug_str:000000000001324f .LASF2740
C:\Users\SOLDER~1\AppData\Local\Temp\cchmqEOm.s:23484  .debug_str:00000000000086e2 .LASF2741
C:\Users\SOLDER~1\AppData\Local\Temp\cchmqEOm.s:22310  .debug_str:0000000000003bb3 .LASF2742
C:\Users\SOLDER~1\AppData\Local\Temp\cchmqEOm.s:27678  .debug_str:00000000000198d0 .LASF2743
C:\Users\SOLDER~1\AppData\Local\Temp\cchmqEOm.s:26726  .debug_str:0000000000015b12 .LASF2744
C:\Users\SOLDER~1\AppData\Local\Temp\cchmqEOm.s:32730  .debug_str:000000000002dfe8 .LASF2745
C:\Users\SOLDER~1\AppData\Local\Temp\cchmqEOm.s:22160  .debug_str:0000000000003223 .LASF2746
C:\Users\SOLDER~1\AppData\Local\Temp\cchmqEOm.s:30772  .debug_str:00000000000260be .LASF2747
C:\Users\SOLDER~1\AppData\Local\Temp\cchmqEOm.s:30398  .debug_str:0000000000024851 .LASF2748
C:\Users\SOLDER~1\AppData\Local\Temp\cchmqEOm.s:28884  .debug_str:000000000001e6b6 .LASF2749
C:\Users\SOLDER~1\AppData\Local\Temp\cchmqEOm.s:28652  .debug_str:000000000001d7ea .LASF2750
C:\Users\SOLDER~1\AppData\Local\Temp\cchmqEOm.s:27068  .debug_str:000000000001708d .LASF2751
C:\Users\SOLDER~1\AppData\Local\Temp\cchmqEOm.s:31356  .debug_str:0000000000028702 .LASF2752
C:\Users\SOLDER~1\AppData\Local\Temp\cchmqEOm.s:22510  .debug_str:0000000000004856 .LASF2753
C:\Users\SOLDER~1\AppData\Local\Temp\cchmqEOm.s:28338  .debug_str:000000000001c2cf .LASF2754
C:\Users\SOLDER~1\AppData\Local\Temp\cchmqEOm.s:32562  .debug_str:000000000002d4e2 .LASF2755
C:\Users\SOLDER~1\AppData\Local\Temp\cchmqEOm.s:29646  .debug_str:0000000000021842 .LASF2756
C:\Users\SOLDER~1\AppData\Local\Temp\cchmqEOm.s:30874  .debug_str:00000000000267a8 .LASF2757
C:\Users\SOLDER~1\AppData\Local\Temp\cchmqEOm.s:31918  .debug_str:000000000002ab2b .LASF2758
C:\Users\SOLDER~1\AppData\Local\Temp\cchmqEOm.s:29170  .debug_str:000000000001f959 .LASF2759
C:\Users\SOLDER~1\AppData\Local\Temp\cchmqEOm.s:28056  .debug_str:000000000001b0e9 .LASF2760
C:\Users\SOLDER~1\AppData\Local\Temp\cchmqEOm.s:27534  .debug_str:0000000000018f74 .LASF2761
C:\Users\SOLDER~1\AppData\Local\Temp\cchmqEOm.s:25952  .debug_str:0000000000012788 .LASF2762
C:\Users\SOLDER~1\AppData\Local\Temp\cchmqEOm.s:25834  .debug_str:000000000001203d .LASF2763
C:\Users\SOLDER~1\AppData\Local\Temp\cchmqEOm.s:27518  .debug_str:0000000000018e31 .LASF2764
C:\Users\SOLDER~1\AppData\Local\Temp\cchmqEOm.s:24078  .debug_str:000000000000add1 .LASF2765
C:\Users\SOLDER~1\AppData\Local\Temp\cchmqEOm.s:22666  .debug_str:0000000000005192 .LASF2766
C:\Users\SOLDER~1\AppData\Local\Temp\cchmqEOm.s:24836  .debug_str:000000000000df7d .LASF2767
C:\Users\SOLDER~1\AppData\Local\Temp\cchmqEOm.s:32362  .debug_str:000000000002c82a .LASF2768
C:\Users\SOLDER~1\AppData\Local\Temp\cchmqEOm.s:29094  .debug_str:000000000001f44a .LASF2769
C:\Users\SOLDER~1\AppData\Local\Temp\cchmqEOm.s:22250  .debug_str:00000000000037b4 .LASF2770
C:\Users\SOLDER~1\AppData\Local\Temp\cchmqEOm.s:22832  .debug_str:0000000000005c6a .LASF2771
C:\Users\SOLDER~1\AppData\Local\Temp\cchmqEOm.s:32550  .debug_str:000000000002d421 .LASF2772
C:\Users\SOLDER~1\AppData\Local\Temp\cchmqEOm.s:29464  .debug_str:0000000000020c58 .LASF2773
C:\Users\SOLDER~1\AppData\Local\Temp\cchmqEOm.s:26512  .debug_str:0000000000014d3f .LASF2774
C:\Users\SOLDER~1\AppData\Local\Temp\cchmqEOm.s:22662  .debug_str:000000000000515d .LASF2775
C:\Users\SOLDER~1\AppData\Local\Temp\cchmqEOm.s:32530  .debug_str:000000000002d2d6 .LASF2776
GAS LISTING C:\Users\SOLDER~1\AppData\Local\Temp\cchmqEOm.s 			page 123


C:\Users\SOLDER~1\AppData\Local\Temp\cchmqEOm.s:25722  .debug_str:0000000000011931 .LASF2777
C:\Users\SOLDER~1\AppData\Local\Temp\cchmqEOm.s:27060  .debug_str:000000000001701f .LASF2778
C:\Users\SOLDER~1\AppData\Local\Temp\cchmqEOm.s:23786  .debug_str:0000000000009acd .LASF2779
C:\Users\SOLDER~1\AppData\Local\Temp\cchmqEOm.s:24228  .debug_str:000000000000b7c2 .LASF2780
C:\Users\SOLDER~1\AppData\Local\Temp\cchmqEOm.s:21866  .debug_str:0000000000001eee .LASF2781
C:\Users\SOLDER~1\AppData\Local\Temp\cchmqEOm.s:21710  .debug_str:000000000000150a .LASF2782
C:\Users\SOLDER~1\AppData\Local\Temp\cchmqEOm.s:31642  .debug_str:0000000000029903 .LASF2783
C:\Users\SOLDER~1\AppData\Local\Temp\cchmqEOm.s:22404  .debug_str:00000000000041ad .LASF2784
C:\Users\SOLDER~1\AppData\Local\Temp\cchmqEOm.s:22432  .debug_str:000000000000436c .LASF2785
C:\Users\SOLDER~1\AppData\Local\Temp\cchmqEOm.s:29552  .debug_str:00000000000211fe .LASF2786
C:\Users\SOLDER~1\AppData\Local\Temp\cchmqEOm.s:27826  .debug_str:000000000001a25c .LASF2787
C:\Users\SOLDER~1\AppData\Local\Temp\cchmqEOm.s:26122  .debug_str:000000000001327a .LASF2788
C:\Users\SOLDER~1\AppData\Local\Temp\cchmqEOm.s:25872  .debug_str:00000000000122c7 .LASF2789
C:\Users\SOLDER~1\AppData\Local\Temp\cchmqEOm.s:24254  .debug_str:000000000000b947 .LASF2790
C:\Users\SOLDER~1\AppData\Local\Temp\cchmqEOm.s:27026  .debug_str:0000000000016e42 .LASF2791
C:\Users\SOLDER~1\AppData\Local\Temp\cchmqEOm.s:27012  .debug_str:0000000000016d4c .LASF2792
C:\Users\SOLDER~1\AppData\Local\Temp\cchmqEOm.s:23360  .debug_str:0000000000007edc .LASF2793
C:\Users\SOLDER~1\AppData\Local\Temp\cchmqEOm.s:29652  .debug_str:00000000000218b7 .LASF2794
C:\Users\SOLDER~1\AppData\Local\Temp\cchmqEOm.s:28918  .debug_str:000000000001e8e3 .LASF2795
C:\Users\SOLDER~1\AppData\Local\Temp\cchmqEOm.s:26264  .debug_str:0000000000013c3d .LASF2796
C:\Users\SOLDER~1\AppData\Local\Temp\cchmqEOm.s:22658  .debug_str:000000000000511d .LASF2797
C:\Users\SOLDER~1\AppData\Local\Temp\cchmqEOm.s:21492  .debug_str:0000000000000613 .LASF2798
C:\Users\SOLDER~1\AppData\Local\Temp\cchmqEOm.s:29956  .debug_str:0000000000022b78 .LASF2799
C:\Users\SOLDER~1\AppData\Local\Temp\cchmqEOm.s:29288  .debug_str:000000000002012c .LASF2800
C:\Users\SOLDER~1\AppData\Local\Temp\cchmqEOm.s:28332  .debug_str:000000000001c270 .LASF2801
C:\Users\SOLDER~1\AppData\Local\Temp\cchmqEOm.s:27242  .debug_str:0000000000017c0c .LASF2802
C:\Users\SOLDER~1\AppData\Local\Temp\cchmqEOm.s:26660  .debug_str:00000000000156dd .LASF2803
C:\Users\SOLDER~1\AppData\Local\Temp\cchmqEOm.s:28716  .debug_str:000000000001dc24 .LASF2804
C:\Users\SOLDER~1\AppData\Local\Temp\cchmqEOm.s:24988  .debug_str:000000000000e9aa .LASF2805
C:\Users\SOLDER~1\AppData\Local\Temp\cchmqEOm.s:23894  .debug_str:000000000000a1b0 .LASF2806
C:\Users\SOLDER~1\AppData\Local\Temp\cchmqEOm.s:23256  .debug_str:000000000000781b .LASF2807
C:\Users\SOLDER~1\AppData\Local\Temp\cchmqEOm.s:21906  .debug_str:000000000000218a .LASF2808
C:\Users\SOLDER~1\AppData\Local\Temp\cchmqEOm.s:21616  .debug_str:0000000000000f0d .LASF2809
C:\Users\SOLDER~1\AppData\Local\Temp\cchmqEOm.s:23504  .debug_str:0000000000008833 .LASF2810
C:\Users\SOLDER~1\AppData\Local\Temp\cchmqEOm.s:31624  .debug_str:00000000000297d7 .LASF2811
C:\Users\SOLDER~1\AppData\Local\Temp\cchmqEOm.s:32436  .debug_str:000000000002cd0a .LASF2812
C:\Users\SOLDER~1\AppData\Local\Temp\cchmqEOm.s:21872  .debug_str:0000000000001f54 .LASF2813
C:\Users\SOLDER~1\AppData\Local\Temp\cchmqEOm.s:28574  .debug_str:000000000001d28a .LASF2814
C:\Users\SOLDER~1\AppData\Local\Temp\cchmqEOm.s:29488  .debug_str:0000000000020de7 .LASF2815
C:\Users\SOLDER~1\AppData\Local\Temp\cchmqEOm.s:21806  .debug_str:0000000000001aed .LASF2816
C:\Users\SOLDER~1\AppData\Local\Temp\cchmqEOm.s:29152  .debug_str:000000000001f81d .LASF2817
C:\Users\SOLDER~1\AppData\Local\Temp\cchmqEOm.s:29092  .debug_str:000000000001f428 .LASF2818
C:\Users\SOLDER~1\AppData\Local\Temp\cchmqEOm.s:25582  .debug_str:0000000000011003 .LASF2819
C:\Users\SOLDER~1\AppData\Local\Temp\cchmqEOm.s:23166  .debug_str:0000000000007264 .LASF2820
C:\Users\SOLDER~1\AppData\Local\Temp\cchmqEOm.s:29816  .debug_str:00000000000222bc .LASF2821
C:\Users\SOLDER~1\AppData\Local\Temp\cchmqEOm.s:23372  .debug_str:0000000000007fa8 .LASF2822
C:\Users\SOLDER~1\AppData\Local\Temp\cchmqEOm.s:22238  .debug_str:0000000000003714 .LASF2823
C:\Users\SOLDER~1\AppData\Local\Temp\cchmqEOm.s:27618  .debug_str:0000000000019515 .LASF2824
C:\Users\SOLDER~1\AppData\Local\Temp\cchmqEOm.s:30440  .debug_str:0000000000024b1b .LASF2825
C:\Users\SOLDER~1\AppData\Local\Temp\cchmqEOm.s:25798  .debug_str:0000000000011dc7 .LASF2826
C:\Users\SOLDER~1\AppData\Local\Temp\cchmqEOm.s:22534  .debug_str:00000000000049cf .LASF2827
C:\Users\SOLDER~1\AppData\Local\Temp\cchmqEOm.s:30000  .debug_str:0000000000022e3c .LASF2828
C:\Users\SOLDER~1\AppData\Local\Temp\cchmqEOm.s:26718  .debug_str:0000000000015a9c .LASF2829
C:\Users\SOLDER~1\AppData\Local\Temp\cchmqEOm.s:31548  .debug_str:0000000000029328 .LASF2830
C:\Users\SOLDER~1\AppData\Local\Temp\cchmqEOm.s:28930  .debug_str:000000000001e990 .LASF2831
C:\Users\SOLDER~1\AppData\Local\Temp\cchmqEOm.s:33100  .debug_str:000000000002f6fb .LASF2832
C:\Users\SOLDER~1\AppData\Local\Temp\cchmqEOm.s:27802  .debug_str:000000000001a0c6 .LASF2833
GAS LISTING C:\Users\SOLDER~1\AppData\Local\Temp\cchmqEOm.s 			page 124


C:\Users\SOLDER~1\AppData\Local\Temp\cchmqEOm.s:25718  .debug_str:00000000000118ea .LASF2834
C:\Users\SOLDER~1\AppData\Local\Temp\cchmqEOm.s:27004  .debug_str:0000000000016cbf .LASF2835
C:\Users\SOLDER~1\AppData\Local\Temp\cchmqEOm.s:22908  .debug_str:000000000000613b .LASF2836
C:\Users\SOLDER~1\AppData\Local\Temp\cchmqEOm.s:28500  .debug_str:000000000001cd82 .LASF2837
C:\Users\SOLDER~1\AppData\Local\Temp\cchmqEOm.s:25658  .debug_str:00000000000114c3 .LASF2838
C:\Users\SOLDER~1\AppData\Local\Temp\cchmqEOm.s:22494  .debug_str:000000000000474e .LASF2839
C:\Users\SOLDER~1\AppData\Local\Temp\cchmqEOm.s:31758  .debug_str:000000000002a086 .LASF2840
C:\Users\SOLDER~1\AppData\Local\Temp\cchmqEOm.s:29122  .debug_str:000000000001f603 .LASF2841
C:\Users\SOLDER~1\AppData\Local\Temp\cchmqEOm.s:28530  .debug_str:000000000001cf88 .LASF2842
C:\Users\SOLDER~1\AppData\Local\Temp\cchmqEOm.s:29330  .debug_str:00000000000203d0 .LASF2843
C:\Users\SOLDER~1\AppData\Local\Temp\cchmqEOm.s:31132  .debug_str:00000000000278bd .LASF2844
C:\Users\SOLDER~1\AppData\Local\Temp\cchmqEOm.s:31474  .debug_str:0000000000028e9e .LASF2845
C:\Users\SOLDER~1\AppData\Local\Temp\cchmqEOm.s:24880  .debug_str:000000000000e26b .LASF2846
C:\Users\SOLDER~1\AppData\Local\Temp\cchmqEOm.s:28404  .debug_str:000000000001c74f .LASF2847
C:\Users\SOLDER~1\AppData\Local\Temp\cchmqEOm.s:33062  .debug_str:000000000002f491 .LASF2848
C:\Users\SOLDER~1\AppData\Local\Temp\cchmqEOm.s:28458  .debug_str:000000000001cab5 .LASF2849
C:\Users\SOLDER~1\AppData\Local\Temp\cchmqEOm.s:25864  .debug_str:0000000000012233 .LASF2850
C:\Users\SOLDER~1\AppData\Local\Temp\cchmqEOm.s:32608  .debug_str:000000000002d844 .LASF2851
C:\Users\SOLDER~1\AppData\Local\Temp\cchmqEOm.s:24698  .debug_str:000000000000d6e1 .LASF2852
C:\Users\SOLDER~1\AppData\Local\Temp\cchmqEOm.s:24306  .debug_str:000000000000bcc8 .LASF2853
C:\Users\SOLDER~1\AppData\Local\Temp\cchmqEOm.s:31898  .debug_str:000000000002a9f4 .LASF2854
C:\Users\SOLDER~1\AppData\Local\Temp\cchmqEOm.s:28090  .debug_str:000000000001b369 .LASF2855
C:\Users\SOLDER~1\AppData\Local\Temp\cchmqEOm.s:32276  .debug_str:000000000002c246 .LASF2856
C:\Users\SOLDER~1\AppData\Local\Temp\cchmqEOm.s:24520  .debug_str:000000000000cb11 .LASF2857
C:\Users\SOLDER~1\AppData\Local\Temp\cchmqEOm.s:29028  .debug_str:000000000001f024 .LASF2858
C:\Users\SOLDER~1\AppData\Local\Temp\cchmqEOm.s:22740  .debug_str:00000000000055fd .LASF2859
C:\Users\SOLDER~1\AppData\Local\Temp\cchmqEOm.s:22264  .debug_str:00000000000038a6 .LASF2860
C:\Users\SOLDER~1\AppData\Local\Temp\cchmqEOm.s:31114  .debug_str:0000000000027792 .LASF2861
C:\Users\SOLDER~1\AppData\Local\Temp\cchmqEOm.s:23354  .debug_str:0000000000007e7f .LASF2862
C:\Users\SOLDER~1\AppData\Local\Temp\cchmqEOm.s:29644  .debug_str:000000000002181b .LASF2863
C:\Users\SOLDER~1\AppData\Local\Temp\cchmqEOm.s:29154  .debug_str:000000000001f83d .LASF2864
C:\Users\SOLDER~1\AppData\Local\Temp\cchmqEOm.s:25900  .debug_str:0000000000012474 .LASF2865
C:\Users\SOLDER~1\AppData\Local\Temp\cchmqEOm.s:24400  .debug_str:000000000000c2e2 .LASF2866
C:\Users\SOLDER~1\AppData\Local\Temp\cchmqEOm.s:25598  .debug_str:00000000000110fe .LASF2867
C:\Users\SOLDER~1\AppData\Local\Temp\cchmqEOm.s:26176  .debug_str:0000000000013607 .LASF2868
C:\Users\SOLDER~1\AppData\Local\Temp\cchmqEOm.s:32966  .debug_str:000000000002ee96 .LASF2869
C:\Users\SOLDER~1\AppData\Local\Temp\cchmqEOm.s:26188  .debug_str:00000000000136e0 .LASF2870
C:\Users\SOLDER~1\AppData\Local\Temp\cchmqEOm.s:32418  .debug_str:000000000002cbe1 .LASF2871
C:\Users\SOLDER~1\AppData\Local\Temp\cchmqEOm.s:32538  .debug_str:000000000002d354 .LASF2872
C:\Users\SOLDER~1\AppData\Local\Temp\cchmqEOm.s:28102  .debug_str:000000000001b432 .LASF2873
C:\Users\SOLDER~1\AppData\Local\Temp\cchmqEOm.s:32450  .debug_str:000000000002cdfa .LASF2874
C:\Users\SOLDER~1\AppData\Local\Temp\cchmqEOm.s:29620  .debug_str:0000000000021677 .LASF2875
C:\Users\SOLDER~1\AppData\Local\Temp\cchmqEOm.s:25194  .debug_str:000000000000f6a6 .LASF2876
C:\Users\SOLDER~1\AppData\Local\Temp\cchmqEOm.s:25298  .debug_str:000000000000fdb9 .LASF2877
C:\Users\SOLDER~1\AppData\Local\Temp\cchmqEOm.s:25206  .debug_str:000000000000f772 .LASF2878
C:\Users\SOLDER~1\AppData\Local\Temp\cchmqEOm.s:27236  .debug_str:0000000000017bca .LASF2879
C:\Users\SOLDER~1\AppData\Local\Temp\cchmqEOm.s:32924  .debug_str:000000000002ec12 .LASF2880
C:\Users\SOLDER~1\AppData\Local\Temp\cchmqEOm.s:24714  .debug_str:000000000000d7eb .LASF2881
C:\Users\SOLDER~1\AppData\Local\Temp\cchmqEOm.s:33004  .debug_str:000000000002f122 .LASF2882
C:\Users\SOLDER~1\AppData\Local\Temp\cchmqEOm.s:32116  .debug_str:000000000002b820 .LASF2883
C:\Users\SOLDER~1\AppData\Local\Temp\cchmqEOm.s:23180  .debug_str:0000000000007345 .LASF2884
C:\Users\SOLDER~1\AppData\Local\Temp\cchmqEOm.s:30298  .debug_str:00000000000241b0 .LASF2885
C:\Users\SOLDER~1\AppData\Local\Temp\cchmqEOm.s:22850  .debug_str:0000000000005d6c .LASF2886
C:\Users\SOLDER~1\AppData\Local\Temp\cchmqEOm.s:23474  .debug_str:0000000000008646 .LASF2887
C:\Users\SOLDER~1\AppData\Local\Temp\cchmqEOm.s:24186  .debug_str:000000000000b4d1 .LASF2888
C:\Users\SOLDER~1\AppData\Local\Temp\cchmqEOm.s:24240  .debug_str:000000000000b872 .LASF2889
C:\Users\SOLDER~1\AppData\Local\Temp\cchmqEOm.s:23168  .debug_str:0000000000007284 .LASF2890
GAS LISTING C:\Users\SOLDER~1\AppData\Local\Temp\cchmqEOm.s 			page 125


C:\Users\SOLDER~1\AppData\Local\Temp\cchmqEOm.s:22190  .debug_str:0000000000003406 .LASF2891
C:\Users\SOLDER~1\AppData\Local\Temp\cchmqEOm.s:24908  .debug_str:000000000000e49b .LASF2892
C:\Users\SOLDER~1\AppData\Local\Temp\cchmqEOm.s:26972  .debug_str:0000000000016aa8 .LASF2893
C:\Users\SOLDER~1\AppData\Local\Temp\cchmqEOm.s:32756  .debug_str:000000000002e16a .LASF2894
C:\Users\SOLDER~1\AppData\Local\Temp\cchmqEOm.s:24094  .debug_str:000000000000aee0 .LASF2895
C:\Users\SOLDER~1\AppData\Local\Temp\cchmqEOm.s:31816  .debug_str:000000000002a45a .LASF2896
C:\Users\SOLDER~1\AppData\Local\Temp\cchmqEOm.s:32838  .debug_str:000000000002e6bc .LASF2897
C:\Users\SOLDER~1\AppData\Local\Temp\cchmqEOm.s:32618  .debug_str:000000000002d8ef .LASF2898
C:\Users\SOLDER~1\AppData\Local\Temp\cchmqEOm.s:22686  .debug_str:00000000000052e7 .LASF2899
C:\Users\SOLDER~1\AppData\Local\Temp\cchmqEOm.s:23670  .debug_str:0000000000009349 .LASF2900
C:\Users\SOLDER~1\AppData\Local\Temp\cchmqEOm.s:28718  .debug_str:000000000001dc4c .LASF2901
C:\Users\SOLDER~1\AppData\Local\Temp\cchmqEOm.s:24596  .debug_str:000000000000cfee .LASF2902
C:\Users\SOLDER~1\AppData\Local\Temp\cchmqEOm.s:26454  .debug_str:0000000000014960 .LASF2903
C:\Users\SOLDER~1\AppData\Local\Temp\cchmqEOm.s:31460  .debug_str:0000000000028da5 .LASF2904
C:\Users\SOLDER~1\AppData\Local\Temp\cchmqEOm.s:23856  .debug_str:0000000000009f40 .LASF2905
C:\Users\SOLDER~1\AppData\Local\Temp\cchmqEOm.s:31564  .debug_str:000000000002941a .LASF2906
C:\Users\SOLDER~1\AppData\Local\Temp\cchmqEOm.s:27522  .debug_str:0000000000018e75 .LASF2907
C:\Users\SOLDER~1\AppData\Local\Temp\cchmqEOm.s:24922  .debug_str:000000000000e596 .LASF2908
C:\Users\SOLDER~1\AppData\Local\Temp\cchmqEOm.s:29732  .debug_str:0000000000021d99 .LASF2909
C:\Users\SOLDER~1\AppData\Local\Temp\cchmqEOm.s:30488  .debug_str:0000000000024e50 .LASF2910
C:\Users\SOLDER~1\AppData\Local\Temp\cchmqEOm.s:25748  .debug_str:0000000000011a92 .LASF2911
C:\Users\SOLDER~1\AppData\Local\Temp\cchmqEOm.s:24814  .debug_str:000000000000de0b .LASF2912
C:\Users\SOLDER~1\AppData\Local\Temp\cchmqEOm.s:25158  .debug_str:000000000000f45d .LASF2913
C:\Users\SOLDER~1\AppData\Local\Temp\cchmqEOm.s:22070  .debug_str:0000000000002c12 .LASF2914
C:\Users\SOLDER~1\AppData\Local\Temp\cchmqEOm.s:27510  .debug_str:0000000000018dbe .LASF2915
C:\Users\SOLDER~1\AppData\Local\Temp\cchmqEOm.s:21482  .debug_str:0000000000000565 .LASF2916
C:\Users\SOLDER~1\AppData\Local\Temp\cchmqEOm.s:30214  .debug_str:0000000000023c61 .LASF2917
C:\Users\SOLDER~1\AppData\Local\Temp\cchmqEOm.s:24932  .debug_str:000000000000e649 .LASF2918
C:\Users\SOLDER~1\AppData\Local\Temp\cchmqEOm.s:29148  .debug_str:000000000001f7e3 .LASF2919
C:\Users\SOLDER~1\AppData\Local\Temp\cchmqEOm.s:30458  .debug_str:0000000000024c40 .LASF2920
C:\Users\SOLDER~1\AppData\Local\Temp\cchmqEOm.s:28832  .debug_str:000000000001e34b .LASF2921
C:\Users\SOLDER~1\AppData\Local\Temp\cchmqEOm.s:25414  .debug_str:000000000001052a .LASF2922
C:\Users\SOLDER~1\AppData\Local\Temp\cchmqEOm.s:30512  .debug_str:0000000000024ff7 .LASF2923
C:\Users\SOLDER~1\AppData\Local\Temp\cchmqEOm.s:27588  .debug_str:000000000001932b .LASF2924
C:\Users\SOLDER~1\AppData\Local\Temp\cchmqEOm.s:27130  .debug_str:00000000000174aa .LASF2925
C:\Users\SOLDER~1\AppData\Local\Temp\cchmqEOm.s:26400  .debug_str:00000000000145e2 .LASF2926
C:\Users\SOLDER~1\AppData\Local\Temp\cchmqEOm.s:24708  .debug_str:000000000000d789 .LASF2927
C:\Users\SOLDER~1\AppData\Local\Temp\cchmqEOm.s:25006  .debug_str:000000000000eafb .LASF2928
C:\Users\SOLDER~1\AppData\Local\Temp\cchmqEOm.s:27362  .debug_str:000000000001842f .LASF2929
C:\Users\SOLDER~1\AppData\Local\Temp\cchmqEOm.s:28848  .debug_str:000000000001e466 .LASF2930
C:\Users\SOLDER~1\AppData\Local\Temp\cchmqEOm.s:30564  .debug_str:000000000002536d .LASF2931
C:\Users\SOLDER~1\AppData\Local\Temp\cchmqEOm.s:31074  .debug_str:00000000000274fd .LASF2932
C:\Users\SOLDER~1\AppData\Local\Temp\cchmqEOm.s:31472  .debug_str:0000000000028e75 .LASF2933
C:\Users\SOLDER~1\AppData\Local\Temp\cchmqEOm.s:28726  .debug_str:000000000001dcb4 .LASF2934
C:\Users\SOLDER~1\AppData\Local\Temp\cchmqEOm.s:27508  .debug_str:0000000000018da4 .LASF2935
C:\Users\SOLDER~1\AppData\Local\Temp\cchmqEOm.s:30616  .debug_str:00000000000256bb .LASF2936
C:\Users\SOLDER~1\AppData\Local\Temp\cchmqEOm.s:21406  .debug_str:00000000000000ba .LASF2937
C:\Users\SOLDER~1\AppData\Local\Temp\cchmqEOm.s:30866  .debug_str:0000000000026715 .LASF2938
C:\Users\SOLDER~1\AppData\Local\Temp\cchmqEOm.s:21672  .debug_str:000000000000128c .LASF2939
C:\Users\SOLDER~1\AppData\Local\Temp\cchmqEOm.s:22566  .debug_str:0000000000004bc1 .LASF2940
C:\Users\SOLDER~1\AppData\Local\Temp\cchmqEOm.s:30422  .debug_str:00000000000249dd .LASF2941
C:\Users\SOLDER~1\AppData\Local\Temp\cchmqEOm.s:30388  .debug_str:00000000000247ab .LASF2942
C:\Users\SOLDER~1\AppData\Local\Temp\cchmqEOm.s:30276  .debug_str:000000000002404b .LASF2943
C:\Users\SOLDER~1\AppData\Local\Temp\cchmqEOm.s:23498  .debug_str:00000000000087b4 .LASF2944
C:\Users\SOLDER~1\AppData\Local\Temp\cchmqEOm.s:26272  .debug_str:0000000000013cf9 .LASF2945
C:\Users\SOLDER~1\AppData\Local\Temp\cchmqEOm.s:27874  .debug_str:000000000001a543 .LASF2946
C:\Users\SOLDER~1\AppData\Local\Temp\cchmqEOm.s:26934  .debug_str:00000000000168af .LASF2947
GAS LISTING C:\Users\SOLDER~1\AppData\Local\Temp\cchmqEOm.s 			page 126


C:\Users\SOLDER~1\AppData\Local\Temp\cchmqEOm.s:27396  .debug_str:0000000000018669 .LASF2948
C:\Users\SOLDER~1\AppData\Local\Temp\cchmqEOm.s:27674  .debug_str:0000000000019891 .LASF2949
C:\Users\SOLDER~1\AppData\Local\Temp\cchmqEOm.s:26058  .debug_str:0000000000012e5b .LASF2950
C:\Users\SOLDER~1\AppData\Local\Temp\cchmqEOm.s:27776  .debug_str:0000000000019f03 .LASF2951
C:\Users\SOLDER~1\AppData\Local\Temp\cchmqEOm.s:22158  .debug_str:00000000000031f9 .LASF2952
C:\Users\SOLDER~1\AppData\Local\Temp\cchmqEOm.s:21612  .debug_str:0000000000000ed9 .LASF2953
C:\Users\SOLDER~1\AppData\Local\Temp\cchmqEOm.s:27574  .debug_str:0000000000019226 .LASF2954
C:\Users\SOLDER~1\AppData\Local\Temp\cchmqEOm.s:30850  .debug_str:0000000000026613 .LASF2955
C:\Users\SOLDER~1\AppData\Local\Temp\cchmqEOm.s:31594  .debug_str:00000000000295d9 .LASF2956
C:\Users\SOLDER~1\AppData\Local\Temp\cchmqEOm.s:21974  .debug_str:0000000000002611 .LASF2957
C:\Users\SOLDER~1\AppData\Local\Temp\cchmqEOm.s:25146  .debug_str:000000000000f39a .LASF2958
C:\Users\SOLDER~1\AppData\Local\Temp\cchmqEOm.s:32582  .debug_str:000000000002d64a .LASF2959
C:\Users\SOLDER~1\AppData\Local\Temp\cchmqEOm.s:25692  .debug_str:0000000000011718 .LASF2960
C:\Users\SOLDER~1\AppData\Local\Temp\cchmqEOm.s:27084  .debug_str:0000000000017186 .LASF2961
C:\Users\SOLDER~1\AppData\Local\Temp\cchmqEOm.s:23226  .debug_str:0000000000007637 .LASF2962
C:\Users\SOLDER~1\AppData\Local\Temp\cchmqEOm.s:24818  .debug_str:000000000000de71 .LASF2963
C:\Users\SOLDER~1\AppData\Local\Temp\cchmqEOm.s:30582  .debug_str:0000000000025493 .LASF2964
C:\Users\SOLDER~1\AppData\Local\Temp\cchmqEOm.s:33032  .debug_str:000000000002f2d6 .LASF2965
C:\Users\SOLDER~1\AppData\Local\Temp\cchmqEOm.s:28070  .debug_str:000000000001b1f9 .LASF2966
C:\Users\SOLDER~1\AppData\Local\Temp\cchmqEOm.s:21420  .debug_str:0000000000000171 .LASF2967
C:\Users\SOLDER~1\AppData\Local\Temp\cchmqEOm.s:30976  .debug_str:0000000000026e9b .LASF2968
C:\Users\SOLDER~1\AppData\Local\Temp\cchmqEOm.s:29870  .debug_str:0000000000022647 .LASF2969
C:\Users\SOLDER~1\AppData\Local\Temp\cchmqEOm.s:29160  .debug_str:000000000001f8a3 .LASF2970
C:\Users\SOLDER~1\AppData\Local\Temp\cchmqEOm.s:25242  .debug_str:000000000000f9c6 .LASF2971
C:\Users\SOLDER~1\AppData\Local\Temp\cchmqEOm.s:30144  .debug_str:0000000000023793 .LASF2972
C:\Users\SOLDER~1\AppData\Local\Temp\cchmqEOm.s:24066  .debug_str:000000000000ad2f .LASF2973
C:\Users\SOLDER~1\AppData\Local\Temp\cchmqEOm.s:21860  .debug_str:0000000000001e83 .LASF2974
C:\Users\SOLDER~1\AppData\Local\Temp\cchmqEOm.s:26182  .debug_str:000000000001366c .LASF2975
C:\Users\SOLDER~1\AppData\Local\Temp\cchmqEOm.s:23722  .debug_str:00000000000096af .LASF2976
C:\Users\SOLDER~1\AppData\Local\Temp\cchmqEOm.s:29924  .debug_str:0000000000022948 .LASF2977
C:\Users\SOLDER~1\AppData\Local\Temp\cchmqEOm.s:32586  .debug_str:000000000002d69a .LASF2978
C:\Users\SOLDER~1\AppData\Local\Temp\cchmqEOm.s:24432  .debug_str:000000000000c516 .LASF2979
C:\Users\SOLDER~1\AppData\Local\Temp\cchmqEOm.s:30156  .debug_str:000000000002384f .LASF2980
C:\Users\SOLDER~1\AppData\Local\Temp\cchmqEOm.s:24014  .debug_str:000000000000a9ba .LASF2981
C:\Users\SOLDER~1\AppData\Local\Temp\cchmqEOm.s:32568  .debug_str:000000000002d552 .LASF2982
C:\Users\SOLDER~1\AppData\Local\Temp\cchmqEOm.s:26876  .debug_str:00000000000164d9 .LASF2983
C:\Users\SOLDER~1\AppData\Local\Temp\cchmqEOm.s:31350  .debug_str:0000000000028693 .LASF2984
C:\Users\SOLDER~1\AppData\Local\Temp\cchmqEOm.s:27704  .debug_str:0000000000019ac3 .LASF2985
C:\Users\SOLDER~1\AppData\Local\Temp\cchmqEOm.s:22356  .debug_str:0000000000003e9a .LASF2986
C:\Users\SOLDER~1\AppData\Local\Temp\cchmqEOm.s:32474  .debug_str:000000000002cf68 .LASF2987
C:\Users\SOLDER~1\AppData\Local\Temp\cchmqEOm.s:21878  .debug_str:0000000000001fc3 .LASF2988
C:\Users\SOLDER~1\AppData\Local\Temp\cchmqEOm.s:25510  .debug_str:0000000000010b82 .LASF2989
C:\Users\SOLDER~1\AppData\Local\Temp\cchmqEOm.s:22812  .debug_str:0000000000005af7 .LASF2990
C:\Users\SOLDER~1\AppData\Local\Temp\cchmqEOm.s:32994  .debug_str:000000000002f093 .LASF2991
C:\Users\SOLDER~1\AppData\Local\Temp\cchmqEOm.s:21904  .debug_str:0000000000002162 .LASF2992
C:\Users\SOLDER~1\AppData\Local\Temp\cchmqEOm.s:31104  .debug_str:00000000000276e0 .LASF2993
C:\Users\SOLDER~1\AppData\Local\Temp\cchmqEOm.s:23960  .debug_str:000000000000a606 .LASF2994
C:\Users\SOLDER~1\AppData\Local\Temp\cchmqEOm.s:22088  .debug_str:0000000000002d5f .LASF2995
C:\Users\SOLDER~1\AppData\Local\Temp\cchmqEOm.s:30918  .debug_str:0000000000026ad9 .LASF2996
C:\Users\SOLDER~1\AppData\Local\Temp\cchmqEOm.s:24808  .debug_str:000000000000dd98 .LASF2997
C:\Users\SOLDER~1\AppData\Local\Temp\cchmqEOm.s:26342  .debug_str:00000000000141d8 .LASF2998
C:\Users\SOLDER~1\AppData\Local\Temp\cchmqEOm.s:30888  .debug_str:00000000000268a9 .LASF2999
C:\Users\SOLDER~1\AppData\Local\Temp\cchmqEOm.s:21898  .debug_str:00000000000020ee .LASF3000
C:\Users\SOLDER~1\AppData\Local\Temp\cchmqEOm.s:27974  .debug_str:000000000001ab8e .LASF3001
C:\Users\SOLDER~1\AppData\Local\Temp\cchmqEOm.s:26224  .debug_str:0000000000013957 .LASF3002
C:\Users\SOLDER~1\AppData\Local\Temp\cchmqEOm.s:29882  .debug_str:00000000000226f9 .LASF3003
C:\Users\SOLDER~1\AppData\Local\Temp\cchmqEOm.s:28740  .debug_str:000000000001dd84 .LASF3004
GAS LISTING C:\Users\SOLDER~1\AppData\Local\Temp\cchmqEOm.s 			page 127


C:\Users\SOLDER~1\AppData\Local\Temp\cchmqEOm.s:30540  .debug_str:00000000000251d7 .LASF3005
C:\Users\SOLDER~1\AppData\Local\Temp\cchmqEOm.s:24042  .debug_str:000000000000abab .LASF3006
C:\Users\SOLDER~1\AppData\Local\Temp\cchmqEOm.s:29932  .debug_str:00000000000229cd .LASF3007
C:\Users\SOLDER~1\AppData\Local\Temp\cchmqEOm.s:27630  .debug_str:00000000000195d7 .LASF3008
C:\Users\SOLDER~1\AppData\Local\Temp\cchmqEOm.s:32476  .debug_str:000000000002cf81 .LASF3009
C:\Users\SOLDER~1\AppData\Local\Temp\cchmqEOm.s:28010  .debug_str:000000000001ae0e .LASF3010
C:\Users\SOLDER~1\AppData\Local\Temp\cchmqEOm.s:32716  .debug_str:000000000002df08 .LASF3011
C:\Users\SOLDER~1\AppData\Local\Temp\cchmqEOm.s:29336  .debug_str:0000000000020410 .LASF3012
C:\Users\SOLDER~1\AppData\Local\Temp\cchmqEOm.s:23744  .debug_str:00000000000097f9 .LASF3013
C:\Users\SOLDER~1\AppData\Local\Temp\cchmqEOm.s:25440  .debug_str:000000000001070f .LASF3014
C:\Users\SOLDER~1\AppData\Local\Temp\cchmqEOm.s:26326  .debug_str:00000000000140c2 .LASF3015
C:\Users\SOLDER~1\AppData\Local\Temp\cchmqEOm.s:27324  .debug_str:0000000000018177 .LASF3016
C:\Users\SOLDER~1\AppData\Local\Temp\cchmqEOm.s:24378  .debug_str:000000000000c16b .LASF3017
C:\Users\SOLDER~1\AppData\Local\Temp\cchmqEOm.s:23774  .debug_str:00000000000099f9 .LASF3018
C:\Users\SOLDER~1\AppData\Local\Temp\cchmqEOm.s:22458  .debug_str:000000000000451a .LASF3019
C:\Users\SOLDER~1\AppData\Local\Temp\cchmqEOm.s:32940  .debug_str:000000000002ed22 .LASF3020
C:\Users\SOLDER~1\AppData\Local\Temp\cchmqEOm.s:32238  .debug_str:000000000002bfdf .LASF3021
C:\Users\SOLDER~1\AppData\Local\Temp\cchmqEOm.s:28842  .debug_str:000000000001e3ff .LASF3022
C:\Users\SOLDER~1\AppData\Local\Temp\cchmqEOm.s:30814  .debug_str:0000000000026382 .LASF3023
C:\Users\SOLDER~1\AppData\Local\Temp\cchmqEOm.s:28146  .debug_str:000000000001b6bc .LASF3024
C:\Users\SOLDER~1\AppData\Local\Temp\cchmqEOm.s:28494  .debug_str:000000000001cd29 .LASF3025
C:\Users\SOLDER~1\AppData\Local\Temp\cchmqEOm.s:21992  .debug_str:000000000000272e .LASF3026
C:\Users\SOLDER~1\AppData\Local\Temp\cchmqEOm.s:26572  .debug_str:0000000000015142 .LASF3027
C:\Users\SOLDER~1\AppData\Local\Temp\cchmqEOm.s:31194  .debug_str:0000000000027cb7 .LASF3028
C:\Users\SOLDER~1\AppData\Local\Temp\cchmqEOm.s:24636  .debug_str:000000000000d2c0 .LASF3029
C:\Users\SOLDER~1\AppData\Local\Temp\cchmqEOm.s:26524  .debug_str:0000000000014e0b .LASF3030
C:\Users\SOLDER~1\AppData\Local\Temp\cchmqEOm.s:32132  .debug_str:000000000002b90f .LASF3031
C:\Users\SOLDER~1\AppData\Local\Temp\cchmqEOm.s:23668  .debug_str:0000000000009327 .LASF3032
C:\Users\SOLDER~1\AppData\Local\Temp\cchmqEOm.s:30034  .debug_str:000000000002309a .LASF3033
C:\Users\SOLDER~1\AppData\Local\Temp\cchmqEOm.s:25958  .debug_str:0000000000012804 .LASF3034
C:\Users\SOLDER~1\AppData\Local\Temp\cchmqEOm.s:31864  .debug_str:000000000002a7af .LASF3035
C:\Users\SOLDER~1\AppData\Local\Temp\cchmqEOm.s:23910  .debug_str:000000000000a2d2 .LASF3036
C:\Users\SOLDER~1\AppData\Local\Temp\cchmqEOm.s:30110  .debug_str:0000000000023565 .LASF3037
C:\Users\SOLDER~1\AppData\Local\Temp\cchmqEOm.s:21808  .debug_str:0000000000001b18 .LASF3038
C:\Users\SOLDER~1\AppData\Local\Temp\cchmqEOm.s:21856  .debug_str:0000000000001e40 .LASF3039
C:\Users\SOLDER~1\AppData\Local\Temp\cchmqEOm.s:22028  .debug_str:00000000000029c0 .LASF3040
C:\Users\SOLDER~1\AppData\Local\Temp\cchmqEOm.s:26820  .debug_str:000000000001611f .LASF3041
C:\Users\SOLDER~1\AppData\Local\Temp\cchmqEOm.s:25516  .debug_str:0000000000010bfd .LASF3042
C:\Users\SOLDER~1\AppData\Local\Temp\cchmqEOm.s:25050  .debug_str:000000000000ed8c .LASF3043
C:\Users\SOLDER~1\AppData\Local\Temp\cchmqEOm.s:27656  .debug_str:000000000001976d .LASF3044
C:\Users\SOLDER~1\AppData\Local\Temp\cchmqEOm.s:23400  .debug_str:0000000000008180 .LASF3045
C:\Users\SOLDER~1\AppData\Local\Temp\cchmqEOm.s:24710  .debug_str:000000000000d7a3 .LASF3046
C:\Users\SOLDER~1\AppData\Local\Temp\cchmqEOm.s:27384  .debug_str:00000000000185b4 .LASF3047
C:\Users\SOLDER~1\AppData\Local\Temp\cchmqEOm.s:30086  .debug_str:00000000000233e4 .LASF3048
C:\Users\SOLDER~1\AppData\Local\Temp\cchmqEOm.s:25888  .debug_str:00000000000123b1 .LASF3049
C:\Users\SOLDER~1\AppData\Local\Temp\cchmqEOm.s:29236  .debug_str:000000000001fde0 .LASF3050
C:\Users\SOLDER~1\AppData\Local\Temp\cchmqEOm.s:23522  .debug_str:0000000000008952 .LASF3051
C:\Users\SOLDER~1\AppData\Local\Temp\cchmqEOm.s:24368  .debug_str:000000000000c0be .LASF3052
C:\Users\SOLDER~1\AppData\Local\Temp\cchmqEOm.s:21696  .debug_str:0000000000001417 .LASF3053
C:\Users\SOLDER~1\AppData\Local\Temp\cchmqEOm.s:32876  .debug_str:000000000002e90a .LASF3054
C:\Users\SOLDER~1\AppData\Local\Temp\cchmqEOm.s:31446  .debug_str:0000000000028cc7 .LASF3055
C:\Users\SOLDER~1\AppData\Local\Temp\cchmqEOm.s:26702  .debug_str:0000000000015987 .LASF3056
C:\Users\SOLDER~1\AppData\Local\Temp\cchmqEOm.s:29516  .debug_str:0000000000020f99 .LASF3057
C:\Users\SOLDER~1\AppData\Local\Temp\cchmqEOm.s:24386  .debug_str:000000000000c1e3 .LASF3058
C:\Users\SOLDER~1\AppData\Local\Temp\cchmqEOm.s:26590  .debug_str:0000000000015259 .LASF3059
C:\Users\SOLDER~1\AppData\Local\Temp\cchmqEOm.s:23542  .debug_str:0000000000008a93 .LASF3060
C:\Users\SOLDER~1\AppData\Local\Temp\cchmqEOm.s:25684  .debug_str:0000000000011675 .LASF3061
GAS LISTING C:\Users\SOLDER~1\AppData\Local\Temp\cchmqEOm.s 			page 128


C:\Users\SOLDER~1\AppData\Local\Temp\cchmqEOm.s:27844  .debug_str:000000000001a34d .LASF3062
C:\Users\SOLDER~1\AppData\Local\Temp\cchmqEOm.s:21826  .debug_str:0000000000001c51 .LASF3063
C:\Users\SOLDER~1\AppData\Local\Temp\cchmqEOm.s:22344  .debug_str:0000000000003dd9 .LASF3064
C:\Users\SOLDER~1\AppData\Local\Temp\cchmqEOm.s:31112  .debug_str:0000000000027779 .LASF3065
C:\Users\SOLDER~1\AppData\Local\Temp\cchmqEOm.s:27328  .debug_str:00000000000181c5 .LASF3066
C:\Users\SOLDER~1\AppData\Local\Temp\cchmqEOm.s:28230  .debug_str:000000000001bc1a .LASF3067
C:\Users\SOLDER~1\AppData\Local\Temp\cchmqEOm.s:25538  .debug_str:0000000000010d51 .LASF3068
C:\Users\SOLDER~1\AppData\Local\Temp\cchmqEOm.s:27440  .debug_str:0000000000018927 .LASF3069
C:\Users\SOLDER~1\AppData\Local\Temp\cchmqEOm.s:32138  .debug_str:000000000002b966 .LASF3070
C:\Users\SOLDER~1\AppData\Local\Temp\cchmqEOm.s:28244  .debug_str:000000000001bcec .LASF3071
C:\Users\SOLDER~1\AppData\Local\Temp\cchmqEOm.s:23766  .debug_str:0000000000009968 .LASF3072
C:\Users\SOLDER~1\AppData\Local\Temp\cchmqEOm.s:31964  .debug_str:000000000002ae20 .LASF3073
C:\Users\SOLDER~1\AppData\Local\Temp\cchmqEOm.s:31462  .debug_str:0000000000028dcf .LASF3074
C:\Users\SOLDER~1\AppData\Local\Temp\cchmqEOm.s:32488  .debug_str:000000000002d03b .LASF3075
C:\Users\SOLDER~1\AppData\Local\Temp\cchmqEOm.s:28922  .debug_str:000000000001e917 .LASF3076
C:\Users\SOLDER~1\AppData\Local\Temp\cchmqEOm.s:32366  .debug_str:000000000002c86c .LASF3077
C:\Users\SOLDER~1\AppData\Local\Temp\cchmqEOm.s:23380  .debug_str:000000000000802b .LASF3078
C:\Users\SOLDER~1\AppData\Local\Temp\cchmqEOm.s:28734  .debug_str:000000000001dd38 .LASF3079
C:\Users\SOLDER~1\AppData\Local\Temp\cchmqEOm.s:31426  .debug_str:0000000000028b80 .LASF3080
C:\Users\SOLDER~1\AppData\Local\Temp\cchmqEOm.s:24282  .debug_str:000000000000bb20 .LASF3081
C:\Users\SOLDER~1\AppData\Local\Temp\cchmqEOm.s:31704  .debug_str:0000000000029d2f .LASF3082
C:\Users\SOLDER~1\AppData\Local\Temp\cchmqEOm.s:22348  .debug_str:0000000000003e21 .LASF3083
C:\Users\SOLDER~1\AppData\Local\Temp\cchmqEOm.s:22926  .debug_str:0000000000006292 .LASF3084
C:\Users\SOLDER~1\AppData\Local\Temp\cchmqEOm.s:31670  .debug_str:0000000000029afb .LASF3085
C:\Users\SOLDER~1\AppData\Local\Temp\cchmqEOm.s:26658  .debug_str:00000000000156b8 .LASF3086
C:\Users\SOLDER~1\AppData\Local\Temp\cchmqEOm.s:30190  .debug_str:0000000000023ace .LASF3087
C:\Users\SOLDER~1\AppData\Local\Temp\cchmqEOm.s:26622  .debug_str:0000000000015453 .LASF3088
C:\Users\SOLDER~1\AppData\Local\Temp\cchmqEOm.s:28306  .debug_str:000000000001c0c8 .LASF3089
C:\Users\SOLDER~1\AppData\Local\Temp\cchmqEOm.s:27376  .debug_str:0000000000018524 .LASF3090
C:\Users\SOLDER~1\AppData\Local\Temp\cchmqEOm.s:31628  .debug_str:0000000000029819 .LASF3091
C:\Users\SOLDER~1\AppData\Local\Temp\cchmqEOm.s:22774  .debug_str:0000000000005850 .LASF3092
C:\Users\SOLDER~1\AppData\Local\Temp\cchmqEOm.s:24518  .debug_str:000000000000cafa .LASF3093
C:\Users\SOLDER~1\AppData\Local\Temp\cchmqEOm.s:22968  .debug_str:000000000000654a .LASF3094
C:\Users\SOLDER~1\AppData\Local\Temp\cchmqEOm.s:26882  .debug_str:000000000001653e .LASF3095
C:\Users\SOLDER~1\AppData\Local\Temp\cchmqEOm.s:29282  .debug_str:00000000000200d5 .LASF3096
C:\Users\SOLDER~1\AppData\Local\Temp\cchmqEOm.s:32380  .debug_str:000000000002c93f .LASF3097
C:\Users\SOLDER~1\AppData\Local\Temp\cchmqEOm.s:25118  .debug_str:000000000000f1d7 .LASF3098
C:\Users\SOLDER~1\AppData\Local\Temp\cchmqEOm.s:26918  .debug_str:0000000000016790 .LASF3099
C:\Users\SOLDER~1\AppData\Local\Temp\cchmqEOm.s:32222  .debug_str:000000000002bed6 .LASF3100
C:\Users\SOLDER~1\AppData\Local\Temp\cchmqEOm.s:25766  .debug_str:0000000000011bd5 .LASF3101
C:\Users\SOLDER~1\AppData\Local\Temp\cchmqEOm.s:25074  .debug_str:000000000000ef1e .LASF3102
C:\Users\SOLDER~1\AppData\Local\Temp\cchmqEOm.s:26680  .debug_str:0000000000015837 .LASF3103
C:\Users\SOLDER~1\AppData\Local\Temp\cchmqEOm.s:24112  .debug_str:000000000000b018 .LASF3104
C:\Users\SOLDER~1\AppData\Local\Temp\cchmqEOm.s:24958  .debug_str:000000000000e7bc .LASF3105
C:\Users\SOLDER~1\AppData\Local\Temp\cchmqEOm.s:31936  .debug_str:000000000002ac7b .LASF3106
C:\Users\SOLDER~1\AppData\Local\Temp\cchmqEOm.s:23280  .debug_str:000000000000796d .LASF3107
C:\Users\SOLDER~1\AppData\Local\Temp\cchmqEOm.s:29750  .debug_str:0000000000021eb4 .LASF3108
C:\Users\SOLDER~1\AppData\Local\Temp\cchmqEOm.s:21636  .debug_str:0000000000001049 .LASF3109
C:\Users\SOLDER~1\AppData\Local\Temp\cchmqEOm.s:26740  .debug_str:0000000000015c08 .LASF3110
C:\Users\SOLDER~1\AppData\Local\Temp\cchmqEOm.s:22370  .debug_str:0000000000003f95 .LASF3111
C:\Users\SOLDER~1\AppData\Local\Temp\cchmqEOm.s:30610  .debug_str:000000000002565e .LASF3112
C:\Users\SOLDER~1\AppData\Local\Temp\cchmqEOm.s:30280  .debug_str:000000000002408a .LASF3113
C:\Users\SOLDER~1\AppData\Local\Temp\cchmqEOm.s:28632  .debug_str:000000000001d653 .LASF3114
C:\Users\SOLDER~1\AppData\Local\Temp\cchmqEOm.s:28564  .debug_str:000000000001d1ef .LASF3115
C:\Users\SOLDER~1\AppData\Local\Temp\cchmqEOm.s:30196  .debug_str:0000000000023b38 .LASF3116
C:\Users\SOLDER~1\AppData\Local\Temp\cchmqEOm.s:25364  .debug_str:0000000000010236 .LASF3117
C:\Users\SOLDER~1\AppData\Local\Temp\cchmqEOm.s:28856  .debug_str:000000000001e504 .LASF3118
GAS LISTING C:\Users\SOLDER~1\AppData\Local\Temp\cchmqEOm.s 			page 129


C:\Users\SOLDER~1\AppData\Local\Temp\cchmqEOm.s:28048  .debug_str:000000000001b059 .LASF3119
C:\Users\SOLDER~1\AppData\Local\Temp\cchmqEOm.s:26626  .debug_str:0000000000015496 .LASF3120
C:\Users\SOLDER~1\AppData\Local\Temp\cchmqEOm.s:26294  .debug_str:0000000000013ea3 .LASF3121
C:\Users\SOLDER~1\AppData\Local\Temp\cchmqEOm.s:31878  .debug_str:000000000002a8b0 .LASF3122
C:\Users\SOLDER~1\AppData\Local\Temp\cchmqEOm.s:23058  .debug_str:0000000000006b53 .LASF3123
C:\Users\SOLDER~1\AppData\Local\Temp\cchmqEOm.s:23864  .debug_str:0000000000009fb9 .LASF3124
C:\Users\SOLDER~1\AppData\Local\Temp\cchmqEOm.s:22952  .debug_str:000000000000644e .LASF3125
C:\Users\SOLDER~1\AppData\Local\Temp\cchmqEOm.s:24496  .debug_str:000000000000c98a .LASF3126
C:\Users\SOLDER~1\AppData\Local\Temp\cchmqEOm.s:22140  .debug_str:00000000000030c4 .LASF3127
C:\Users\SOLDER~1\AppData\Local\Temp\cchmqEOm.s:31404  .debug_str:0000000000028a23 .LASF3128
C:\Users\SOLDER~1\AppData\Local\Temp\cchmqEOm.s:31228  .debug_str:0000000000027ec4 .LASF3129
C:\Users\SOLDER~1\AppData\Local\Temp\cchmqEOm.s:28952  .debug_str:000000000001eadb .LASF3130
C:\Users\SOLDER~1\AppData\Local\Temp\cchmqEOm.s:31700  .debug_str:0000000000029cec .LASF3131
C:\Users\SOLDER~1\AppData\Local\Temp\cchmqEOm.s:26380  .debug_str:000000000001447b .LASF3132
C:\Users\SOLDER~1\AppData\Local\Temp\cchmqEOm.s:23710  .debug_str:0000000000009608 .LASF3133
C:\Users\SOLDER~1\AppData\Local\Temp\cchmqEOm.s:21888  .debug_str:000000000000204a .LASF3134
C:\Users\SOLDER~1\AppData\Local\Temp\cchmqEOm.s:25136  .debug_str:000000000000f2ed .LASF3135
C:\Users\SOLDER~1\AppData\Local\Temp\cchmqEOm.s:27204  .debug_str:00000000000179c4 .LASF3136
C:\Users\SOLDER~1\AppData\Local\Temp\cchmqEOm.s:23482  .debug_str:00000000000086c9 .LASF3137
C:\Users\SOLDER~1\AppData\Local\Temp\cchmqEOm.s:29358  .debug_str:0000000000020578 .LASF3138
C:\Users\SOLDER~1\AppData\Local\Temp\cchmqEOm.s:30242  .debug_str:0000000000023e54 .LASF3139
C:\Users\SOLDER~1\AppData\Local\Temp\cchmqEOm.s:21518  .debug_str:000000000000084a .LASF3140
C:\Users\SOLDER~1\AppData\Local\Temp\cchmqEOm.s:31976  .debug_str:000000000002aec7 .LASF3141
C:\Users\SOLDER~1\AppData\Local\Temp\cchmqEOm.s:23178  .debug_str:000000000000731f .LASF3142
C:\Users\SOLDER~1\AppData\Local\Temp\cchmqEOm.s:22748  .debug_str:000000000000568b .LASF3143
C:\Users\SOLDER~1\AppData\Local\Temp\cchmqEOm.s:27308  .debug_str:0000000000018064 .LASF3144
C:\Users\SOLDER~1\AppData\Local\Temp\cchmqEOm.s:32058  .debug_str:000000000002b406 .LASF3145
C:\Users\SOLDER~1\AppData\Local\Temp\cchmqEOm.s:23756  .debug_str:00000000000098cf .LASF3146
C:\Users\SOLDER~1\AppData\Local\Temp\cchmqEOm.s:29674  .debug_str:0000000000021a1f .LASF3147
C:\Users\SOLDER~1\AppData\Local\Temp\cchmqEOm.s:22824  .debug_str:0000000000005bdc .LASF3148
C:\Users\SOLDER~1\AppData\Local\Temp\cchmqEOm.s:27340  .debug_str:00000000000182a2 .LASF3149
C:\Users\SOLDER~1\AppData\Local\Temp\cchmqEOm.s:31512  .debug_str:000000000002910e .LASF3150
C:\Users\SOLDER~1\AppData\Local\Temp\cchmqEOm.s:29654  .debug_str:00000000000218df .LASF3151
C:\Users\SOLDER~1\AppData\Local\Temp\cchmqEOm.s:30838  .debug_str:0000000000026525 .LASF3152
C:\Users\SOLDER~1\AppData\Local\Temp\cchmqEOm.s:27770  .debug_str:0000000000019ea4 .LASF3153
C:\Users\SOLDER~1\AppData\Local\Temp\cchmqEOm.s:21976  .debug_str:000000000000262c .LASF3154
C:\Users\SOLDER~1\AppData\Local\Temp\cchmqEOm.s:25814  .debug_str:0000000000011ee6 .LASF3155
C:\Users\SOLDER~1\AppData\Local\Temp\cchmqEOm.s:31180  .debug_str:0000000000027be3 .LASF3156
C:\Users\SOLDER~1\AppData\Local\Temp\cchmqEOm.s:23876  .debug_str:000000000000a094 .LASF3157
C:\Users\SOLDER~1\AppData\Local\Temp\cchmqEOm.s:29822  .debug_str:000000000002230c .LASF3158
C:\Users\SOLDER~1\AppData\Local\Temp\cchmqEOm.s:22062  .debug_str:0000000000002bb4 .LASF3159
C:\Users\SOLDER~1\AppData\Local\Temp\cchmqEOm.s:30130  .debug_str:00000000000236a6 .LASF3160
C:\Users\SOLDER~1\AppData\Local\Temp\cchmqEOm.s:31828  .debug_str:000000000002a524 .LASF3161
C:\Users\SOLDER~1\AppData\Local\Temp\cchmqEOm.s:32508  .debug_str:000000000002d170 .LASF3162
C:\Users\SOLDER~1\AppData\Local\Temp\cchmqEOm.s:32128  .debug_str:000000000002b8df .LASF3163
C:\Users\SOLDER~1\AppData\Local\Temp\cchmqEOm.s:29494  .debug_str:0000000000020e3f .LASF3164
C:\Users\SOLDER~1\AppData\Local\Temp\cchmqEOm.s:24966  .debug_str:000000000000e830 .LASF3165
C:\Users\SOLDER~1\AppData\Local\Temp\cchmqEOm.s:30096  .debug_str:0000000000023483 .LASF3166
C:\Users\SOLDER~1\AppData\Local\Temp\cchmqEOm.s:25820  .debug_str:0000000000011f59 .LASF3167
C:\Users\SOLDER~1\AppData\Local\Temp\cchmqEOm.s:32656  .debug_str:000000000002db4e .LASF3168
C:\Users\SOLDER~1\AppData\Local\Temp\cchmqEOm.s:24152  .debug_str:000000000000b29b .LASF3169
C:\Users\SOLDER~1\AppData\Local\Temp\cchmqEOm.s:30818  .debug_str:00000000000263bb .LASF3170
C:\Users\SOLDER~1\AppData\Local\Temp\cchmqEOm.s:22394  .debug_str:0000000000004104 .LASF3171
C:\Users\SOLDER~1\AppData\Local\Temp\cchmqEOm.s:30816  .debug_str:000000000002639a .LASF3172
C:\Users\SOLDER~1\AppData\Local\Temp\cchmqEOm.s:22468  .debug_str:00000000000045b2 .LASF3173
C:\Users\SOLDER~1\AppData\Local\Temp\cchmqEOm.s:26826  .debug_str:0000000000016185 .LASF3174
C:\Users\SOLDER~1\AppData\Local\Temp\cchmqEOm.s:27842  .debug_str:000000000001a33a .LASF3175
GAS LISTING C:\Users\SOLDER~1\AppData\Local\Temp\cchmqEOm.s 			page 130


C:\Users\SOLDER~1\AppData\Local\Temp\cchmqEOm.s:28654  .debug_str:000000000001d815 .LASF3176
C:\Users\SOLDER~1\AppData\Local\Temp\cchmqEOm.s:25884  .debug_str:000000000001237c .LASF3177
C:\Users\SOLDER~1\AppData\Local\Temp\cchmqEOm.s:28148  .debug_str:000000000001b6de .LASF3178
C:\Users\SOLDER~1\AppData\Local\Temp\cchmqEOm.s:23946  .debug_str:000000000000a520 .LASF3179
C:\Users\SOLDER~1\AppData\Local\Temp\cchmqEOm.s:30614  .debug_str:000000000002569a .LASF3180
C:\Users\SOLDER~1\AppData\Local\Temp\cchmqEOm.s:24308  .debug_str:000000000000bce0 .LASF3181
C:\Users\SOLDER~1\AppData\Local\Temp\cchmqEOm.s:29044  .debug_str:000000000001f12e .LASF3182
C:\Users\SOLDER~1\AppData\Local\Temp\cchmqEOm.s:31894  .debug_str:000000000002a9bd .LASF3183
C:\Users\SOLDER~1\AppData\Local\Temp\cchmqEOm.s:31494  .debug_str:0000000000028fe5 .LASF3184
C:\Users\SOLDER~1\AppData\Local\Temp\cchmqEOm.s:29958  .debug_str:0000000000022b93 .LASF3185
C:\Users\SOLDER~1\AppData\Local\Temp\cchmqEOm.s:29626  .debug_str:00000000000216c9 .LASF3186
C:\Users\SOLDER~1\AppData\Local\Temp\cchmqEOm.s:28074  .debug_str:000000000001b26b .LASF3187
C:\Users\SOLDER~1\AppData\Local\Temp\cchmqEOm.s:25070  .debug_str:000000000000eed7 .LASF3188
C:\Users\SOLDER~1\AppData\Local\Temp\cchmqEOm.s:26486  .debug_str:0000000000014b6d .LASF3189
C:\Users\SOLDER~1\AppData\Local\Temp\cchmqEOm.s:21662  .debug_str:00000000000011f1 .LASF3190
C:\Users\SOLDER~1\AppData\Local\Temp\cchmqEOm.s:23956  .debug_str:000000000000a5be .LASF3191
C:\Users\SOLDER~1\AppData\Local\Temp\cchmqEOm.s:31552  .debug_str:0000000000029370 .LASF3192
C:\Users\SOLDER~1\AppData\Local\Temp\cchmqEOm.s:22286  .debug_str:0000000000003a22 .LASF3193
C:\Users\SOLDER~1\AppData\Local\Temp\cchmqEOm.s:26830  .debug_str:00000000000161c9 .LASF3194
C:\Users\SOLDER~1\AppData\Local\Temp\cchmqEOm.s:31966  .debug_str:000000000002ae3b .LASF3195
C:\Users\SOLDER~1\AppData\Local\Temp\cchmqEOm.s:23914  .debug_str:000000000000a31a .LASF3196
C:\Users\SOLDER~1\AppData\Local\Temp\cchmqEOm.s:30270  .debug_str:0000000000024016 .LASF3197
C:\Users\SOLDER~1\AppData\Local\Temp\cchmqEOm.s:28492  .debug_str:000000000001cd07 .LASF3198
C:\Users\SOLDER~1\AppData\Local\Temp\cchmqEOm.s:29842  .debug_str:0000000000022461 .LASF3199
C:\Users\SOLDER~1\AppData\Local\Temp\cchmqEOm.s:27572  .debug_str:0000000000019204 .LASF3200
C:\Users\SOLDER~1\AppData\Local\Temp\cchmqEOm.s:26914  .debug_str:000000000001675c .LASF3201
C:\Users\SOLDER~1\AppData\Local\Temp\cchmqEOm.s:23650  .debug_str:00000000000091ca .LASF3202
C:\Users\SOLDER~1\AppData\Local\Temp\cchmqEOm.s:30328  .debug_str:00000000000243b1 .LASF3203
C:\Users\SOLDER~1\AppData\Local\Temp\cchmqEOm.s:25000  .debug_str:000000000000ea9b .LASF3204
C:\Users\SOLDER~1\AppData\Local\Temp\cchmqEOm.s:23488  .debug_str:0000000000008715 .LASF3205
C:\Users\SOLDER~1\AppData\Local\Temp\cchmqEOm.s:22986  .debug_str:0000000000006684 .LASF3206
C:\Users\SOLDER~1\AppData\Local\Temp\cchmqEOm.s:30854  .debug_str:0000000000026653 .LASF3207
C:\Users\SOLDER~1\AppData\Local\Temp\cchmqEOm.s:23834  .debug_str:0000000000009d8c .LASF3208
C:\Users\SOLDER~1\AppData\Local\Temp\cchmqEOm.s:25920  .debug_str:000000000001259b .LASF3209
C:\Users\SOLDER~1\AppData\Local\Temp\cchmqEOm.s:25916  .debug_str:0000000000012562 .LASF3210
C:\Users\SOLDER~1\AppData\Local\Temp\cchmqEOm.s:26994  .debug_str:0000000000016c13 .LASF3211
C:\Users\SOLDER~1\AppData\Local\Temp\cchmqEOm.s:31370  .debug_str:000000000002880b .LASF3212
C:\Users\SOLDER~1\AppData\Local\Temp\cchmqEOm.s:30992  .debug_str:0000000000026f89 .LASF3213
C:\Users\SOLDER~1\AppData\Local\Temp\cchmqEOm.s:28684  .debug_str:000000000001da1e .LASF3214
C:\Users\SOLDER~1\AppData\Local\Temp\cchmqEOm.s:21398  .debug_str:0000000000000023 .LASF3215
C:\Users\SOLDER~1\AppData\Local\Temp\cchmqEOm.s:30438  .debug_str:0000000000024afa .LASF3216
C:\Users\SOLDER~1\AppData\Local\Temp\cchmqEOm.s:31696  .debug_str:0000000000029caf .LASF3217
C:\Users\SOLDER~1\AppData\Local\Temp\cchmqEOm.s:25154  .debug_str:000000000000f424 .LASF3218
C:\Users\SOLDER~1\AppData\Local\Temp\cchmqEOm.s:28830  .debug_str:000000000001e32a .LASF3219
C:\Users\SOLDER~1\AppData\Local\Temp\cchmqEOm.s:26968  .debug_str:0000000000016a79 .LASF3220
C:\Users\SOLDER~1\AppData\Local\Temp\cchmqEOm.s:28838  .debug_str:000000000001e3b7 .LASF3221
C:\Users\SOLDER~1\AppData\Local\Temp\cchmqEOm.s:24074  .debug_str:000000000000ad8e .LASF3222
C:\Users\SOLDER~1\AppData\Local\Temp\cchmqEOm.s:23534  .debug_str:00000000000089fe .LASF3223
C:\Users\SOLDER~1\AppData\Local\Temp\cchmqEOm.s:32520  .debug_str:000000000002d230 .LASF3224
C:\Users\SOLDER~1\AppData\Local\Temp\cchmqEOm.s:23214  .debug_str:0000000000007570 .LASF3225
C:\Users\SOLDER~1\AppData\Local\Temp\cchmqEOm.s:31588  .debug_str:0000000000029580 .LASF3226
C:\Users\SOLDER~1\AppData\Local\Temp\cchmqEOm.s:29588  .debug_str:0000000000021478 .LASF3227
C:\Users\SOLDER~1\AppData\Local\Temp\cchmqEOm.s:27010  .debug_str:0000000000016d2a .LASF3228
C:\Users\SOLDER~1\AppData\Local\Temp\cchmqEOm.s:24274  .debug_str:000000000000baa1 .LASF3229
C:\Users\SOLDER~1\AppData\Local\Temp\cchmqEOm.s:21602  .debug_str:0000000000000e50 .LASF3230
C:\Users\SOLDER~1\AppData\Local\Temp\cchmqEOm.s:30710  .debug_str:0000000000025c9a .LASF3231
C:\Users\SOLDER~1\AppData\Local\Temp\cchmqEOm.s:31858  .debug_str:000000000002a747 .LASF3232
GAS LISTING C:\Users\SOLDER~1\AppData\Local\Temp\cchmqEOm.s 			page 131


C:\Users\SOLDER~1\AppData\Local\Temp\cchmqEOm.s:21852  .debug_str:0000000000001e06 .LASF3233
C:\Users\SOLDER~1\AppData\Local\Temp\cchmqEOm.s:25978  .debug_str:0000000000012960 .LASF3234
C:\Users\SOLDER~1\AppData\Local\Temp\cchmqEOm.s:32778  .debug_str:000000000002e2c5 .LASF3235
C:\Users\SOLDER~1\AppData\Local\Temp\cchmqEOm.s:27988  .debug_str:000000000001ac96 .LASF3236
C:\Users\SOLDER~1\AppData\Local\Temp\cchmqEOm.s:25096  .debug_str:000000000000f07d .LASF3237
C:\Users\SOLDER~1\AppData\Local\Temp\cchmqEOm.s:28802  .debug_str:000000000001e148 .LASF3238
C:\Users\SOLDER~1\AppData\Local\Temp\cchmqEOm.s:32416  .debug_str:000000000002cbc0 .LASF3239
C:\Users\SOLDER~1\AppData\Local\Temp\cchmqEOm.s:24416  .debug_str:000000000000c405 .LASF3240
C:\Users\SOLDER~1\AppData\Local\Temp\cchmqEOm.s:30596  .debug_str:0000000000025593 .LASF3241
C:\Users\SOLDER~1\AppData\Local\Temp\cchmqEOm.s:32308  .debug_str:000000000002c43c .LASF3242
C:\Users\SOLDER~1\AppData\Local\Temp\cchmqEOm.s:26170  .debug_str:00000000000135aa .LASF3243
C:\Users\SOLDER~1\AppData\Local\Temp\cchmqEOm.s:25344  .debug_str:00000000000100ec .LASF3244
C:\Users\SOLDER~1\AppData\Local\Temp\cchmqEOm.s:31316  .debug_str:000000000002846a .LASF3245
C:\Users\SOLDER~1\AppData\Local\Temp\cchmqEOm.s:28972  .debug_str:000000000001ec5a .LASF3246
C:\Users\SOLDER~1\AppData\Local\Temp\cchmqEOm.s:31482  .debug_str:0000000000028f3c .LASF3247
C:\Users\SOLDER~1\AppData\Local\Temp\cchmqEOm.s:25196  .debug_str:000000000000f6d0 .LASF3248
C:\Users\SOLDER~1\AppData\Local\Temp\cchmqEOm.s:32208  .debug_str:000000000002bdf5 .LASF3249
C:\Users\SOLDER~1\AppData\Local\Temp\cchmqEOm.s:26602  .debug_str:00000000000152f8 .LASF3250
C:\Users\SOLDER~1\AppData\Local\Temp\cchmqEOm.s:32872  .debug_str:000000000002e8c8 .LASF3251
C:\Users\SOLDER~1\AppData\Local\Temp\cchmqEOm.s:31930  .debug_str:000000000002ac02 .LASF3252
C:\Users\SOLDER~1\AppData\Local\Temp\cchmqEOm.s:30894  .debug_str:0000000000026915 .LASF3253
C:\Users\SOLDER~1\AppData\Local\Temp\cchmqEOm.s:31652  .debug_str:00000000000299a4 .LASF3254
C:\Users\SOLDER~1\AppData\Local\Temp\cchmqEOm.s:28474  .debug_str:000000000001cbdb .LASF3255
C:\Users\SOLDER~1\AppData\Local\Temp\cchmqEOm.s:25700  .debug_str:000000000001179f .LASF3256
C:\Users\SOLDER~1\AppData\Local\Temp\cchmqEOm.s:23344  .debug_str:0000000000007daf .LASF3257
C:\Users\SOLDER~1\AppData\Local\Temp\cchmqEOm.s:24322  .debug_str:000000000000bdf9 .LASF3258
C:\Users\SOLDER~1\AppData\Local\Temp\cchmqEOm.s:28300  .debug_str:000000000001c063 .LASF3259
C:\Users\SOLDER~1\AppData\Local\Temp\cchmqEOm.s:25506  .debug_str:0000000000010b2d .LASF3260
C:\Users\SOLDER~1\AppData\Local\Temp\cchmqEOm.s:28198  .debug_str:000000000001ba0c .LASF3261
C:\Users\SOLDER~1\AppData\Local\Temp\cchmqEOm.s:29858  .debug_str:0000000000022564 .LASF3262
C:\Users\SOLDER~1\AppData\Local\Temp\cchmqEOm.s:30420  .debug_str:00000000000249a3 .LASF3263
C:\Users\SOLDER~1\AppData\Local\Temp\cchmqEOm.s:23492  .debug_str:0000000000008748 .LASF3264
C:\Users\SOLDER~1\AppData\Local\Temp\cchmqEOm.s:31376  .debug_str:0000000000028866 .LASF3265
C:\Users\SOLDER~1\AppData\Local\Temp\cchmqEOm.s:27760  .debug_str:0000000000019df4 .LASF3266
C:\Users\SOLDER~1\AppData\Local\Temp\cchmqEOm.s:24478  .debug_str:000000000000c850 .LASF3267
C:\Users\SOLDER~1\AppData\Local\Temp\cchmqEOm.s:23702  .debug_str:0000000000009555 .LASF3268
C:\Users\SOLDER~1\AppData\Local\Temp\cchmqEOm.s:23408  .debug_str:000000000000821a .LASF3269
C:\Users\SOLDER~1\AppData\Local\Temp\cchmqEOm.s:25258  .debug_str:000000000000faf7 .LASF3270
C:\Users\SOLDER~1\AppData\Local\Temp\cchmqEOm.s:27494  .debug_str:0000000000018ca2 .LASF3271
C:\Users\SOLDER~1\AppData\Local\Temp\cchmqEOm.s:26492  .debug_str:0000000000014bd0 .LASF3272
C:\Users\SOLDER~1\AppData\Local\Temp\cchmqEOm.s:28806  .debug_str:000000000001e18c .LASF3273
C:\Users\SOLDER~1\AppData\Local\Temp\cchmqEOm.s:21948  .debug_str:0000000000002462 .LASF3274
C:\Users\SOLDER~1\AppData\Local\Temp\cchmqEOm.s:24994  .debug_str:000000000000ea0d .LASF3275
C:\Users\SOLDER~1\AppData\Local\Temp\cchmqEOm.s:26674  .debug_str:00000000000157bd .LASF3276
C:\Users\SOLDER~1\AppData\Local\Temp\cchmqEOm.s:29134  .debug_str:000000000001f6e0 .LASF3277
C:\Users\SOLDER~1\AppData\Local\Temp\cchmqEOm.s:30044  .debug_str:00000000000230fa .LASF3278
C:\Users\SOLDER~1\AppData\Local\Temp\cchmqEOm.s:32984  .debug_str:000000000002efe4 .LASF3279
C:\Users\SOLDER~1\AppData\Local\Temp\cchmqEOm.s:31838  .debug_str:000000000002a5d4 .LASF3280
C:\Users\SOLDER~1\AppData\Local\Temp\cchmqEOm.s:32106  .debug_str:000000000002b771 .LASF3281
C:\Users\SOLDER~1\AppData\Local\Temp\cchmqEOm.s:23576  .debug_str:0000000000008cfb .LASF3282
C:\Users\SOLDER~1\AppData\Local\Temp\cchmqEOm.s:27326  .debug_str:0000000000018199 .LASF3283
C:\Users\SOLDER~1\AppData\Local\Temp\cchmqEOm.s:32632  .debug_str:000000000002d9b7 .LASF3284
C:\Users\SOLDER~1\AppData\Local\Temp\cchmqEOm.s:30516  .debug_str:000000000002502a .LASF3285
C:\Users\SOLDER~1\AppData\Local\Temp\cchmqEOm.s:24998  .debug_str:000000000000ea68 .LASF3286
C:\Users\SOLDER~1\AppData\Local\Temp\cchmqEOm.s:26536  .debug_str:0000000000014ee6 .LASF3287
C:\Users\SOLDER~1\AppData\Local\Temp\cchmqEOm.s:24438  .debug_str:000000000000c57f .LASF3288
C:\Users\SOLDER~1\AppData\Local\Temp\cchmqEOm.s:25720  .debug_str:0000000000011911 .LASF3289
GAS LISTING C:\Users\SOLDER~1\AppData\Local\Temp\cchmqEOm.s 			page 132


C:\Users\SOLDER~1\AppData\Local\Temp\cchmqEOm.s:26330  .debug_str:00000000000140f9 .LASF3290
C:\Users\SOLDER~1\AppData\Local\Temp\cchmqEOm.s:25716  .debug_str:00000000000118c6 .LASF3291
C:\Users\SOLDER~1\AppData\Local\Temp\cchmqEOm.s:29002  .debug_str:000000000001ee53 .LASF3292
C:\Users\SOLDER~1\AppData\Local\Temp\cchmqEOm.s:26100  .debug_str:00000000000130fb .LASF3293
C:\Users\SOLDER~1\AppData\Local\Temp\cchmqEOm.s:31298  .debug_str:000000000002831f .LASF3294
C:\Users\SOLDER~1\AppData\Local\Temp\cchmqEOm.s:28676  .debug_str:000000000001d990 .LASF3295
C:\Users\SOLDER~1\AppData\Local\Temp\cchmqEOm.s:29828  .debug_str:0000000000022381 .LASF3296
C:\Users\SOLDER~1\AppData\Local\Temp\cchmqEOm.s:27310  .debug_str:0000000000018084 .LASF3297
C:\Users\SOLDER~1\AppData\Local\Temp\cchmqEOm.s:22778  .debug_str:000000000000589c .LASF3298
C:\Users\SOLDER~1\AppData\Local\Temp\cchmqEOm.s:25276  .debug_str:000000000000fc30 .LASF3299
C:\Users\SOLDER~1\AppData\Local\Temp\cchmqEOm.s:26872  .debug_str:000000000001648d .LASF3300
C:\Users\SOLDER~1\AppData\Local\Temp\cchmqEOm.s:28782  .debug_str:000000000001dffa .LASF3301
C:\Users\SOLDER~1\AppData\Local\Temp\cchmqEOm.s:28340  .debug_str:000000000001c2fb .LASF3302
C:\Users\SOLDER~1\AppData\Local\Temp\cchmqEOm.s:24620  .debug_str:000000000000d186 .LASF3303
C:\Users\SOLDER~1\AppData\Local\Temp\cchmqEOm.s:22170  .debug_str:00000000000032ad .LASF3304
C:\Users\SOLDER~1\AppData\Local\Temp\cchmqEOm.s:28330  .debug_str:000000000001c244 .LASF3305
C:\Users\SOLDER~1\AppData\Local\Temp\cchmqEOm.s:23602  .debug_str:0000000000008ea4 .LASF3306
C:\Users\SOLDER~1\AppData\Local\Temp\cchmqEOm.s:25068  .debug_str:000000000000eea4 .LASF3307
C:\Users\SOLDER~1\AppData\Local\Temp\cchmqEOm.s:22476  .debug_str:0000000000004616 .LASF3308
C:\Users\SOLDER~1\AppData\Local\Temp\cchmqEOm.s:25416  .debug_str:0000000000010553 .LASF3309
C:\Users\SOLDER~1\AppData\Local\Temp\cchmqEOm.s:22664  .debug_str:0000000000005176 .LASF3310
C:\Users\SOLDER~1\AppData\Local\Temp\cchmqEOm.s:21450  .debug_str:0000000000000348 .LASF3311
C:\Users\SOLDER~1\AppData\Local\Temp\cchmqEOm.s:23880  .debug_str:000000000000a0d3 .LASF3312
C:\Users\SOLDER~1\AppData\Local\Temp\cchmqEOm.s:29072  .debug_str:000000000001f2cf .LASF3313
C:\Users\SOLDER~1\AppData\Local\Temp\cchmqEOm.s:32950  .debug_str:000000000002eda0 .LASF3314
C:\Users\SOLDER~1\AppData\Local\Temp\cchmqEOm.s:21642  .debug_str:000000000000109c .LASF3315
C:\Users\SOLDER~1\AppData\Local\Temp\cchmqEOm.s:22326  .debug_str:0000000000003cbb .LASF3316
C:\Users\SOLDER~1\AppData\Local\Temp\cchmqEOm.s:26930  .debug_str:0000000000016868 .LASF3317
C:\Users\SOLDER~1\AppData\Local\Temp\cchmqEOm.s:27958  .debug_str:000000000001aa7a .LASF3318
C:\Users\SOLDER~1\AppData\Local\Temp\cchmqEOm.s:27504  .debug_str:0000000000018d54 .LASF3319
C:\Users\SOLDER~1\AppData\Local\Temp\cchmqEOm.s:32626  .debug_str:000000000002d952 .LASF3320
C:\Users\SOLDER~1\AppData\Local\Temp\cchmqEOm.s:29132  .debug_str:000000000001f6b7 .LASF3321
C:\Users\SOLDER~1\AppData\Local\Temp\cchmqEOm.s:25620  .debug_str:0000000000011270 .LASF3322
C:\Users\SOLDER~1\AppData\Local\Temp\cchmqEOm.s:22094  .debug_str:0000000000002dbd .LASF3323
C:\Users\SOLDER~1\AppData\Local\Temp\cchmqEOm.s:30254  .debug_str:0000000000023efd .LASF3324
C:\Users\SOLDER~1\AppData\Local\Temp\cchmqEOm.s:26306  .debug_str:0000000000013f51 .LASF3325
C:\Users\SOLDER~1\AppData\Local\Temp\cchmqEOm.s:25752  .debug_str:0000000000011ad7 .LASF3326
C:\Users\SOLDER~1\AppData\Local\Temp\cchmqEOm.s:25198  .debug_str:000000000000f6ff .LASF3327
C:\Users\SOLDER~1\AppData\Local\Temp\cchmqEOm.s:27584  .debug_str:00000000000192e2 .LASF3328
C:\Users\SOLDER~1\AppData\Local\Temp\cchmqEOm.s:30318  .debug_str:0000000000024301 .LASF3329
C:\Users\SOLDER~1\AppData\Local\Temp\cchmqEOm.s:21486  .debug_str:00000000000005ac .LASF3330
C:\Users\SOLDER~1\AppData\Local\Temp\cchmqEOm.s:23010  .debug_str:0000000000006841 .LASF3331
C:\Users\SOLDER~1\AppData\Local\Temp\cchmqEOm.s:22002  .debug_str:00000000000027dc .LASF3332
C:\Users\SOLDER~1\AppData\Local\Temp\cchmqEOm.s:29228  .debug_str:000000000001fd4a .LASF3333
C:\Users\SOLDER~1\AppData\Local\Temp\cchmqEOm.s:31602  .debug_str:000000000002964a .LASF3334
C:\Users\SOLDER~1\AppData\Local\Temp\cchmqEOm.s:24404  .debug_str:000000000000c32f .LASF3335
C:\Users\SOLDER~1\AppData\Local\Temp\cchmqEOm.s:29512  .debug_str:0000000000020f49 .LASF3336
C:\Users\SOLDER~1\AppData\Local\Temp\cchmqEOm.s:22620  .debug_str:0000000000004f16 .LASF3337
C:\Users\SOLDER~1\AppData\Local\Temp\cchmqEOm.s:23572  .debug_str:0000000000008cae .LASF3338
C:\Users\SOLDER~1\AppData\Local\Temp\cchmqEOm.s:25192  .debug_str:000000000000f67d .LASF3339
C:\Users\SOLDER~1\AppData\Local\Temp\cchmqEOm.s:23076  .debug_str:0000000000006c53 .LASF3340
C:\Users\SOLDER~1\AppData\Local\Temp\cchmqEOm.s:32992  .debug_str:000000000002f06a .LASF3341
C:\Users\SOLDER~1\AppData\Local\Temp\cchmqEOm.s:28518  .debug_str:000000000001cebc .LASF3342
C:\Users\SOLDER~1\AppData\Local\Temp\cchmqEOm.s:29382  .debug_str:0000000000020705 .LASF3343
C:\Users\SOLDER~1\AppData\Local\Temp\cchmqEOm.s:27612  .debug_str:00000000000194b3 .LASF3344
C:\Users\SOLDER~1\AppData\Local\Temp\cchmqEOm.s:25770  .debug_str:0000000000011c15 .LASF3345
C:\Users\SOLDER~1\AppData\Local\Temp\cchmqEOm.s:23242  .debug_str:0000000000007736 .LASF3346
GAS LISTING C:\Users\SOLDER~1\AppData\Local\Temp\cchmqEOm.s 			page 133


C:\Users\SOLDER~1\AppData\Local\Temp\cchmqEOm.s:32022  .debug_str:000000000002b1d9 .LASF3347
C:\Users\SOLDER~1\AppData\Local\Temp\cchmqEOm.s:24272  .debug_str:000000000000ba85 .LASF3348
C:\Users\SOLDER~1\AppData\Local\Temp\cchmqEOm.s:26662  .debug_str:00000000000156f8 .LASF3349
C:\Users\SOLDER~1\AppData\Local\Temp\cchmqEOm.s:29868  .debug_str:000000000002262b .LASF3350
C:\Users\SOLDER~1\AppData\Local\Temp\cchmqEOm.s:30934  .debug_str:0000000000026bb8 .LASF3351
C:\Users\SOLDER~1\AppData\Local\Temp\cchmqEOm.s:26404  .debug_str:000000000001461b .LASF3352
C:\Users\SOLDER~1\AppData\Local\Temp\cchmqEOm.s:26690  .debug_str:00000000000158c3 .LASF3353
C:\Users\SOLDER~1\AppData\Local\Temp\cchmqEOm.s:26414  .debug_str:00000000000146ad .LASF3354
C:\Users\SOLDER~1\AppData\Local\Temp\cchmqEOm.s:22896  .debug_str:000000000000605f .LASF3355
C:\Users\SOLDER~1\AppData\Local\Temp\cchmqEOm.s:31064  .debug_str:0000000000027434 .LASF3356
C:\Users\SOLDER~1\AppData\Local\Temp\cchmqEOm.s:30184  .debug_str:0000000000023a5c .LASF3357
C:\Users\SOLDER~1\AppData\Local\Temp\cchmqEOm.s:27452  .debug_str:00000000000189ef .LASF3358
C:\Users\SOLDER~1\AppData\Local\Temp\cchmqEOm.s:32258  .debug_str:000000000002c109 .LASF3359
C:\Users\SOLDER~1\AppData\Local\Temp\cchmqEOm.s:24444  .debug_str:000000000000c5f6 .LASF3360
C:\Users\SOLDER~1\AppData\Local\Temp\cchmqEOm.s:29292  .debug_str:0000000000020166 .LASF3361
C:\Users\SOLDER~1\AppData\Local\Temp\cchmqEOm.s:32088  .debug_str:000000000002b612 .LASF3362
C:\Users\SOLDER~1\AppData\Local\Temp\cchmqEOm.s:31606  .debug_str:0000000000029697 .LASF3363
C:\Users\SOLDER~1\AppData\Local\Temp\cchmqEOm.s:29470  .debug_str:0000000000020ca5 .LASF3364
C:\Users\SOLDER~1\AppData\Local\Temp\cchmqEOm.s:28820  .debug_str:000000000001e268 .LASF3365
C:\Users\SOLDER~1\AppData\Local\Temp\cchmqEOm.s:29950  .debug_str:0000000000022b00 .LASF3366
C:\Users\SOLDER~1\AppData\Local\Temp\cchmqEOm.s:31086  .debug_str:00000000000275db .LASF3367
C:\Users\SOLDER~1\AppData\Local\Temp\cchmqEOm.s:32164  .debug_str:000000000002bafa .LASF3368
C:\Users\SOLDER~1\AppData\Local\Temp\cchmqEOm.s:25278  .debug_str:000000000000fc58 .LASF3369
C:\Users\SOLDER~1\AppData\Local\Temp\cchmqEOm.s:30060  .debug_str:0000000000023221 .LASF3370
C:\Users\SOLDER~1\AppData\Local\Temp\cchmqEOm.s:31006  .debug_str:0000000000027088 .LASF3371
C:\Users\SOLDER~1\AppData\Local\Temp\cchmqEOm.s:22878  .debug_str:0000000000005f36 .LASF3372
C:\Users\SOLDER~1\AppData\Local\Temp\cchmqEOm.s:32810  .debug_str:000000000002e4eb .LASF3373
C:\Users\SOLDER~1\AppData\Local\Temp\cchmqEOm.s:29960  .debug_str:0000000000022ba6 .LASF3374
C:\Users\SOLDER~1\AppData\Local\Temp\cchmqEOm.s:31448  .debug_str:0000000000028ce0 .LASF3375
C:\Users\SOLDER~1\AppData\Local\Temp\cchmqEOm.s:24166  .debug_str:000000000000b38a .LASF3376
C:\Users\SOLDER~1\AppData\Local\Temp\cchmqEOm.s:25966  .debug_str:0000000000012899 .LASF3377
C:\Users\SOLDER~1\AppData\Local\Temp\cchmqEOm.s:23236  .debug_str:00000000000076ca .LASF3378
C:\Users\SOLDER~1\AppData\Local\Temp\cchmqEOm.s:27872  .debug_str:000000000001a51a .LASF3379
C:\Users\SOLDER~1\AppData\Local\Temp\cchmqEOm.s:26030  .debug_str:0000000000012c75 .LASF3380
C:\Users\SOLDER~1\AppData\Local\Temp\cchmqEOm.s:29204  .debug_str:000000000001fb94 .LASF3381
C:\Users\SOLDER~1\AppData\Local\Temp\cchmqEOm.s:27268  .debug_str:0000000000017de2 .LASF3382
C:\Users\SOLDER~1\AppData\Local\Temp\cchmqEOm.s:28932  .debug_str:000000000001e9a9 .LASF3383
C:\Users\SOLDER~1\AppData\Local\Temp\cchmqEOm.s:28236  .debug_str:000000000001bc70 .LASF3384
C:\Users\SOLDER~1\AppData\Local\Temp\cchmqEOm.s:27828  .debug_str:000000000001a275 .LASF3385
C:\Users\SOLDER~1\AppData\Local\Temp\cchmqEOm.s:32996  .debug_str:000000000002f0ae .LASF3386
C:\Users\SOLDER~1\AppData\Local\Temp\cchmqEOm.s:26474  .debug_str:0000000000014a8d .LASF3387
C:\Users\SOLDER~1\AppData\Local\Temp\cchmqEOm.s:32534  .debug_str:000000000002d311 .LASF3388
C:\Users\SOLDER~1\AppData\Local\Temp\cchmqEOm.s:26566  .debug_str:00000000000150e1 .LASF3389
C:\Users\SOLDER~1\AppData\Local\Temp\cchmqEOm.s:28964  .debug_str:000000000001ebc4 .LASF3390
C:\Users\SOLDER~1\AppData\Local\Temp\cchmqEOm.s:33092  .debug_str:000000000002f67b .LASF3391
C:\Users\SOLDER~1\AppData\Local\Temp\cchmqEOm.s:25082  .debug_str:000000000000ef97 .LASF3392
C:\Users\SOLDER~1\AppData\Local\Temp\cchmqEOm.s:23608  .debug_str:0000000000008f19 .LASF3393
C:\Users\SOLDER~1\AppData\Local\Temp\cchmqEOm.s:21724  .debug_str:00000000000015f5 .LASF3394
C:\Users\SOLDER~1\AppData\Local\Temp\cchmqEOm.s:30714  .debug_str:0000000000025cc5 .LASF3395
C:\Users\SOLDER~1\AppData\Local\Temp\cchmqEOm.s:30836  .debug_str:00000000000264fc .LASF3396
C:\Users\SOLDER~1\AppData\Local\Temp\cchmqEOm.s:27880  .debug_str:000000000001a5a5 .LASF3397
C:\Users\SOLDER~1\AppData\Local\Temp\cchmqEOm.s:24912  .debug_str:000000000000e4ea .LASF3398
C:\Users\SOLDER~1\AppData\Local\Temp\cchmqEOm.s:23918  .debug_str:000000000000a362 .LASF3399
C:\Users\SOLDER~1\AppData\Local\Temp\cchmqEOm.s:27112  .debug_str:0000000000017369 .LASF3400
C:\Users\SOLDER~1\AppData\Local\Temp\cchmqEOm.s:27330  .debug_str:00000000000181e8 .LASF3401
C:\Users\SOLDER~1\AppData\Local\Temp\cchmqEOm.s:31852  .debug_str:000000000002a6c0 .LASF3402
C:\Users\SOLDER~1\AppData\Local\Temp\cchmqEOm.s:27106  .debug_str:0000000000017309 .LASF3403
GAS LISTING C:\Users\SOLDER~1\AppData\Local\Temp\cchmqEOm.s 			page 134


C:\Users\SOLDER~1\AppData\Local\Temp\cchmqEOm.s:31050  .debug_str:000000000002736b .LASF3404
C:\Users\SOLDER~1\AppData\Local\Temp\cchmqEOm.s:24172  .debug_str:000000000000b3e9 .LASF3405
C:\Users\SOLDER~1\AppData\Local\Temp\cchmqEOm.s:28984  .debug_str:000000000001ed3b .LASF3406
C:\Users\SOLDER~1\AppData\Local\Temp\cchmqEOm.s:22084  .debug_str:0000000000002d0f .LASF3407
C:\Users\SOLDER~1\AppData\Local\Temp\cchmqEOm.s:32404  .debug_str:000000000002cad8 .LASF3408
C:\Users\SOLDER~1\AppData\Local\Temp\cchmqEOm.s:31702  .debug_str:0000000000029d05 .LASF3409
C:\Users\SOLDER~1\AppData\Local\Temp\cchmqEOm.s:32446  .debug_str:000000000002cdb2 .LASF3410
C:\Users\SOLDER~1\AppData\Local\Temp\cchmqEOm.s:22252  .debug_str:00000000000037e0 .LASF3411
C:\Users\SOLDER~1\AppData\Local\Temp\cchmqEOm.s:32148  .debug_str:000000000002b9fe .LASF3412
C:\Users\SOLDER~1\AppData\Local\Temp\cchmqEOm.s:30316  .debug_str:00000000000242d7 .LASF3413
C:\Users\SOLDER~1\AppData\Local\Temp\cchmqEOm.s:28550  .debug_str:000000000001d0fe .LASF3414
C:\Users\SOLDER~1\AppData\Local\Temp\cchmqEOm.s:26758  .debug_str:0000000000015d36 .LASF3415
C:\Users\SOLDER~1\AppData\Local\Temp\cchmqEOm.s:31910  .debug_str:000000000002aab6 .LASF3416
C:\Users\SOLDER~1\AppData\Local\Temp\cchmqEOm.s:23146  .debug_str:000000000000711a .LASF3417
C:\Users\SOLDER~1\AppData\Local\Temp\cchmqEOm.s:26576  .debug_str:0000000000015171 .LASF3418
C:\Users\SOLDER~1\AppData\Local\Temp\cchmqEOm.s:25596  .debug_str:00000000000110d7 .LASF3419
C:\Users\SOLDER~1\AppData\Local\Temp\cchmqEOm.s:25092  .debug_str:000000000000f03b .LASF3420
C:\Users\SOLDER~1\AppData\Local\Temp\cchmqEOm.s:30474  .debug_str:0000000000024d64 .LASF3421
C:\Users\SOLDER~1\AppData\Local\Temp\cchmqEOm.s:30686  .debug_str:0000000000025b1b .LASF3422
C:\Users\SOLDER~1\AppData\Local\Temp\cchmqEOm.s:25768  .debug_str:0000000000011bee .LASF3423
C:\Users\SOLDER~1\AppData\Local\Temp\cchmqEOm.s:31562  .debug_str:00000000000293fc .LASF3424
C:\Users\SOLDER~1\AppData\Local\Temp\cchmqEOm.s:28892  .debug_str:000000000001e740 .LASF3425
C:\Users\SOLDER~1\AppData\Local\Temp\cchmqEOm.s:29460  .debug_str:0000000000020c0d .LASF3426
C:\Users\SOLDER~1\AppData\Local\Temp\cchmqEOm.s:25956  .debug_str:00000000000127da .LASF3427
C:\Users\SOLDER~1\AppData\Local\Temp\cchmqEOm.s:27858  .debug_str:000000000001a425 .LASF3428
C:\Users\SOLDER~1\AppData\Local\Temp\cchmqEOm.s:22318  .debug_str:0000000000003c33 .LASF3429
C:\Users\SOLDER~1\AppData\Local\Temp\cchmqEOm.s:27172  .debug_str:000000000001776f .LASF3430
C:\Users\SOLDER~1\AppData\Local\Temp\cchmqEOm.s:26794  .debug_str:0000000000015f64 .LASF3431
C:\Users\SOLDER~1\AppData\Local\Temp\cchmqEOm.s:29562  .debug_str:000000000002128b .LASF3432
C:\Users\SOLDER~1\AppData\Local\Temp\cchmqEOm.s:32340  .debug_str:000000000002c692 .LASF3433
C:\Users\SOLDER~1\AppData\Local\Temp\cchmqEOm.s:25602  .debug_str:0000000000011144 .LASF3434
C:\Users\SOLDER~1\AppData\Local\Temp\cchmqEOm.s:26284  .debug_str:0000000000013ddc .LASF3435
C:\Users\SOLDER~1\AppData\Local\Temp\cchmqEOm.s:29082  .debug_str:000000000001f383 .LASF3436
C:\Users\SOLDER~1\AppData\Local\Temp\cchmqEOm.s:31870  .debug_str:000000000002a81a .LASF3437
C:\Users\SOLDER~1\AppData\Local\Temp\cchmqEOm.s:22984  .debug_str:000000000000665a .LASF3438
C:\Users\SOLDER~1\AppData\Local\Temp\cchmqEOm.s:25794  .debug_str:0000000000011d8c .LASF3439
C:\Users\SOLDER~1\AppData\Local\Temp\cchmqEOm.s:23544  .debug_str:0000000000008ab6 .LASF3440
C:\Users\SOLDER~1\AppData\Local\Temp\cchmqEOm.s:28344  .debug_str:000000000001c34a .LASF3441
C:\Users\SOLDER~1\AppData\Local\Temp\cchmqEOm.s:21466  .debug_str:000000000000044d .LASF3442
C:\Users\SOLDER~1\AppData\Local\Temp\cchmqEOm.s:24448  .debug_str:000000000000c639 .LASF3443
C:\Users\SOLDER~1\AppData\Local\Temp\cchmqEOm.s:31026  .debug_str:00000000000271e8 .LASF3444
C:\Users\SOLDER~1\AppData\Local\Temp\cchmqEOm.s:22944  .debug_str:00000000000063b6 .LASF3445
C:\Users\SOLDER~1\AppData\Local\Temp\cchmqEOm.s:28962  .debug_str:000000000001eb9a .LASF3446
C:\Users\SOLDER~1\AppData\Local\Temp\cchmqEOm.s:26418  .debug_str:00000000000146fd .LASF3447
C:\Users\SOLDER~1\AppData\Local\Temp\cchmqEOm.s:24600  .debug_str:000000000000d02d .LASF3448
C:\Users\SOLDER~1\AppData\Local\Temp\cchmqEOm.s:31068  .debug_str:0000000000027486 .LASF3449
C:\Users\SOLDER~1\AppData\Local\Temp\cchmqEOm.s:32708  .debug_str:000000000002de86 .LASF3450
C:\Users\SOLDER~1\AppData\Local\Temp\cchmqEOm.s:26750  .debug_str:0000000000015cb9 .LASF3451
C:\Users\SOLDER~1\AppData\Local\Temp\cchmqEOm.s:29112  .debug_str:000000000001f568 .LASF3452
C:\Users\SOLDER~1\AppData\Local\Temp\cchmqEOm.s:27336  .debug_str:0000000000018252 .LASF3453
C:\Users\SOLDER~1\AppData\Local\Temp\cchmqEOm.s:29776  .debug_str:0000000000022049 .LASF3454
C:\Users\SOLDER~1\AppData\Local\Temp\cchmqEOm.s:27616  .debug_str:00000000000194fd .LASF3455
C:\Users\SOLDER~1\AppData\Local\Temp\cchmqEOm.s:22046  .debug_str:0000000000002ad1 .LASF3456
C:\Users\SOLDER~1\AppData\Local\Temp\cchmqEOm.s:32134  .debug_str:000000000002b927 .LASF3457
C:\Users\SOLDER~1\AppData\Local\Temp\cchmqEOm.s:31344  .debug_str:000000000002862c .LASF3458
C:\Users\SOLDER~1\AppData\Local\Temp\cchmqEOm.s:32954  .debug_str:000000000002edde .LASF3459
C:\Users\SOLDER~1\AppData\Local\Temp\cchmqEOm.s:25778  .debug_str:0000000000011cb9 .LASF3460
GAS LISTING C:\Users\SOLDER~1\AppData\Local\Temp\cchmqEOm.s 			page 135


C:\Users\SOLDER~1\AppData\Local\Temp\cchmqEOm.s:30556  .debug_str:00000000000252e4 .LASF3461
C:\Users\SOLDER~1\AppData\Local\Temp\cchmqEOm.s:25874  .debug_str:00000000000122e0 .LASF3462
C:\Users\SOLDER~1\AppData\Local\Temp\cchmqEOm.s:31378  .debug_str:0000000000028885 .LASF3463
C:\Users\SOLDER~1\AppData\Local\Temp\cchmqEOm.s:29874  .debug_str:0000000000022689 .LASF3464
C:\Users\SOLDER~1\AppData\Local\Temp\cchmqEOm.s:22760  .debug_str:0000000000005746 .LASF3465
C:\Users\SOLDER~1\AppData\Local\Temp\cchmqEOm.s:25234  .debug_str:000000000000f949 .LASF3466
C:\Users\SOLDER~1\AppData\Local\Temp\cchmqEOm.s:27128  .debug_str:0000000000017485 .LASF3467
C:\Users\SOLDER~1\AppData\Local\Temp\cchmqEOm.s:27306  .debug_str:000000000001804b .LASF3468
C:\Users\SOLDER~1\AppData\Local\Temp\cchmqEOm.s:22030  .debug_str:00000000000029e3 .LASF3469
C:\Users\SOLDER~1\AppData\Local\Temp\cchmqEOm.s:27438  .debug_str:000000000001890e .LASF3470
C:\Users\SOLDER~1\AppData\Local\Temp\cchmqEOm.s:32218  .debug_str:000000000002be88 .LASF3471
C:\Users\SOLDER~1\AppData\Local\Temp\cchmqEOm.s:29036  .debug_str:000000000001f0b2 .LASF3472
C:\Users\SOLDER~1\AppData\Local\Temp\cchmqEOm.s:22304  .debug_str:0000000000003b51 .LASF3473
C:\Users\SOLDER~1\AppData\Local\Temp\cchmqEOm.s:22988  .debug_str:00000000000066a6 .LASF3474
C:\Users\SOLDER~1\AppData\Local\Temp\cchmqEOm.s:26262  .debug_str:0000000000013c16 .LASF3475
C:\Users\SOLDER~1\AppData\Local\Temp\cchmqEOm.s:24568  .debug_str:000000000000ce4f .LASF3476
C:\Users\SOLDER~1\AppData\Local\Temp\cchmqEOm.s:26366  .debug_str:000000000001435b .LASF3477
C:\Users\SOLDER~1\AppData\Local\Temp\cchmqEOm.s:23260  .debug_str:0000000000007854 .LASF3478
C:\Users\SOLDER~1\AppData\Local\Temp\cchmqEOm.s:23604  .debug_str:0000000000008ed4 .LASF3479
C:\Users\SOLDER~1\AppData\Local\Temp\cchmqEOm.s:23206  .debug_str:00000000000074f9 .LASF3480
C:\Users\SOLDER~1\AppData\Local\Temp\cchmqEOm.s:27562  .debug_str:000000000001915b .LASF3481
C:\Users\SOLDER~1\AppData\Local\Temp\cchmqEOm.s:32130  .debug_str:000000000002b8f7 .LASF3482
C:\Users\SOLDER~1\AppData\Local\Temp\cchmqEOm.s:22150  .debug_str:000000000000316b .LASF3483
C:\Users\SOLDER~1\AppData\Local\Temp\cchmqEOm.s:29892  .debug_str:000000000002279a .LASF3484
C:\Users\SOLDER~1\AppData\Local\Temp\cchmqEOm.s:26248  .debug_str:0000000000013b0a .LASF3485
C:\Users\SOLDER~1\AppData\Local\Temp\cchmqEOm.s:23384  .debug_str:0000000000008077 .LASF3486
C:\Users\SOLDER~1\AppData\Local\Temp\cchmqEOm.s:22130  .debug_str:0000000000003034 .LASF3487
C:\Users\SOLDER~1\AppData\Local\Temp\cchmqEOm.s:31438  .debug_str:0000000000028c44 .LASF3488
C:\Users\SOLDER~1\AppData\Local\Temp\cchmqEOm.s:27538  .debug_str:0000000000018fb8 .LASF3489
C:\Users\SOLDER~1\AppData\Local\Temp\cchmqEOm.s:28926  .debug_str:000000000001e95e .LASF3490
C:\Users\SOLDER~1\AppData\Local\Temp\cchmqEOm.s:26164  .debug_str:000000000001354e .LASF3491
C:\Users\SOLDER~1\AppData\Local\Temp\cchmqEOm.s:28450  .debug_str:000000000001ca47 .LASF3492
C:\Users\SOLDER~1\AppData\Local\Temp\cchmqEOm.s:24936  .debug_str:000000000000e68a .LASF3493
C:\Users\SOLDER~1\AppData\Local\Temp\cchmqEOm.s:24376  .debug_str:000000000000c147 .LASF3494
C:\Users\SOLDER~1\AppData\Local\Temp\cchmqEOm.s:29528  .debug_str:000000000002105b .LASF3495
C:\Users\SOLDER~1\AppData\Local\Temp\cchmqEOm.s:32040  .debug_str:000000000002b2f4 .LASF3496
C:\Users\SOLDER~1\AppData\Local\Temp\cchmqEOm.s:31108  .debug_str:000000000002772f .LASF3497
C:\Users\SOLDER~1\AppData\Local\Temp\cchmqEOm.s:23120  .debug_str:0000000000006f49 .LASF3498
C:\Users\SOLDER~1\AppData\Local\Temp\cchmqEOm.s:27530  .debug_str:0000000000018f2a .LASF3499
C:\Users\SOLDER~1\AppData\Local\Temp\cchmqEOm.s:26886  .debug_str:000000000001657a .LASF3500
C:\Users\SOLDER~1\AppData\Local\Temp\cchmqEOm.s:22724  .debug_str:0000000000005518 .LASF3501
C:\Users\SOLDER~1\AppData\Local\Temp\cchmqEOm.s:22066  .debug_str:0000000000002be3 .LASF3502
C:\Users\SOLDER~1\AppData\Local\Temp\cchmqEOm.s:24070  .debug_str:000000000000ad56 .LASF3503
C:\Users\SOLDER~1\AppData\Local\Temp\cchmqEOm.s:30292  .debug_str:0000000000024157 .LASF3504
C:\Users\SOLDER~1\AppData\Local\Temp\cchmqEOm.s:33000  .debug_str:000000000002f0ec .LASF3505
C:\Users\SOLDER~1\AppData\Local\Temp\cchmqEOm.s:30584  .debug_str:00000000000254be .LASF3506
C:\Users\SOLDER~1\AppData\Local\Temp\cchmqEOm.s:31680  .debug_str:0000000000029ba4 .LASF3507
C:\Users\SOLDER~1\AppData\Local\Temp\cchmqEOm.s:31416  .debug_str:0000000000028ae2 .LASF3508
C:\Users\SOLDER~1\AppData\Local\Temp\cchmqEOm.s:23446  .debug_str:0000000000008479 .LASF3509
C:\Users\SOLDER~1\AppData\Local\Temp\cchmqEOm.s:28520  .debug_str:000000000001cee5 .LASF3510
C:\Users\SOLDER~1\AppData\Local\Temp\cchmqEOm.s:28858  .debug_str:000000000001e529 .LASF3511
C:\Users\SOLDER~1\AppData\Local\Temp\cchmqEOm.s:32374  .debug_str:000000000002c8db .LASF3512
C:\Users\SOLDER~1\AppData\Local\Temp\cchmqEOm.s:25062  .debug_str:000000000000ee42 .LASF3513
C:\Users\SOLDER~1\AppData\Local\Temp\cchmqEOm.s:32800  .debug_str:000000000002e458 .LASF3514
C:\Users\SOLDER~1\AppData\Local\Temp\cchmqEOm.s:29022  .debug_str:000000000001efc3 .LASF3515
C:\Users\SOLDER~1\AppData\Local\Temp\cchmqEOm.s:30924  .debug_str:0000000000026b2e .LASF3516
C:\Users\SOLDER~1\AppData\Local\Temp\cchmqEOm.s:22864  .debug_str:0000000000005e5a .LASF3517
GAS LISTING C:\Users\SOLDER~1\AppData\Local\Temp\cchmqEOm.s 			page 136


C:\Users\SOLDER~1\AppData\Local\Temp\cchmqEOm.s:31584  .debug_str:000000000002954a .LASF3518
C:\Users\SOLDER~1\AppData\Local\Temp\cchmqEOm.s:27870  .debug_str:000000000001a4f7 .LASF3519
C:\Users\SOLDER~1\AppData\Local\Temp\cchmqEOm.s:27136  .debug_str:0000000000017510 .LASF3520
C:\Users\SOLDER~1\AppData\Local\Temp\cchmqEOm.s:31946  .debug_str:000000000002ad1e .LASF3521
C:\Users\SOLDER~1\AppData\Local\Temp\cchmqEOm.s:25180  .debug_str:000000000000f5c1 .LASF3522
C:\Users\SOLDER~1\AppData\Local\Temp\cchmqEOm.s:28184  .debug_str:000000000001b920 .LASF3523
C:\Users\SOLDER~1\AppData\Local\Temp\cchmqEOm.s:23270  .debug_str:00000000000078d4 .LASF3524
C:\Users\SOLDER~1\AppData\Local\Temp\cchmqEOm.s:26828  .debug_str:00000000000161a6 .LASF3525
C:\Users\SOLDER~1\AppData\Local\Temp\cchmqEOm.s:22064  .debug_str:0000000000002bca .LASF3526
C:\Users\SOLDER~1\AppData\Local\Temp\cchmqEOm.s:27150  .debug_str:0000000000017621 .LASF3527
C:\Users\SOLDER~1\AppData\Local\Temp\cchmqEOm.s:31638  .debug_str:00000000000298c9 .LASF3528
C:\Users\SOLDER~1\AppData\Local\Temp\cchmqEOm.s:21762  .debug_str:0000000000001834 .LASF3529
C:\Users\SOLDER~1\AppData\Local\Temp\cchmqEOm.s:32410  .debug_str:000000000002cb43 .LASF3530
C:\Users\SOLDER~1\AppData\Local\Temp\cchmqEOm.s:27176  .debug_str:00000000000177c4 .LASF3531
C:\Users\SOLDER~1\AppData\Local\Temp\cchmqEOm.s:28866  .debug_str:000000000001e5ac .LASF3532
C:\Users\SOLDER~1\AppData\Local\Temp\cchmqEOm.s:24848  .debug_str:000000000000e03d .LASF3533
C:\Users\SOLDER~1\AppData\Local\Temp\cchmqEOm.s:32160  .debug_str:000000000002babf .LASF3534
C:\Users\SOLDER~1\AppData\Local\Temp\cchmqEOm.s:25280  .debug_str:000000000000fc81 .LASF3535
C:\Users\SOLDER~1\AppData\Local\Temp\cchmqEOm.s:29668  .debug_str:00000000000219bb .LASF3536
C:\Users\SOLDER~1\AppData\Local\Temp\cchmqEOm.s:22462  .debug_str:0000000000004549 .LASF3537
C:\Users\SOLDER~1\AppData\Local\Temp\cchmqEOm.s:25546  .debug_str:0000000000010dc1 .LASF3538
C:\Users\SOLDER~1\AppData\Local\Temp\cchmqEOm.s:22058  .debug_str:0000000000002b80 .LASF3539
C:\Users\SOLDER~1\AppData\Local\Temp\cchmqEOm.s:26790  .debug_str:0000000000015f2e .LASF3540
C:\Users\SOLDER~1\AppData\Local\Temp\cchmqEOm.s:28438  .debug_str:000000000001c979 .LASF3541
C:\Users\SOLDER~1\AppData\Local\Temp\cchmqEOm.s:21444  .debug_str:00000000000002f0 .LASF3542
C:\Users\SOLDER~1\AppData\Local\Temp\cchmqEOm.s:25138  .debug_str:000000000000f306 .LASF3543
C:\Users\SOLDER~1\AppData\Local\Temp\cchmqEOm.s:29942  .debug_str:0000000000022a79 .LASF3544
C:\Users\SOLDER~1\AppData\Local\Temp\cchmqEOm.s:32740  .debug_str:000000000002e083 .LASF3545
C:\Users\SOLDER~1\AppData\Local\Temp\cchmqEOm.s:29740  .debug_str:0000000000021e24 .LASF3546
C:\Users\SOLDER~1\AppData\Local\Temp\cchmqEOm.s:22972  .debug_str:0000000000006594 .LASF3547
C:\Users\SOLDER~1\AppData\Local\Temp\cchmqEOm.s:22838  .debug_str:0000000000005cab .LASF3548
C:\Users\SOLDER~1\AppData\Local\Temp\cchmqEOm.s:24542  .debug_str:000000000000cc9f .LASF3549
C:\Users\SOLDER~1\AppData\Local\Temp\cchmqEOm.s:21618  .debug_str:0000000000000f28 .LASF3550
C:\Users\SOLDER~1\AppData\Local\Temp\cchmqEOm.s:25368  .debug_str:0000000000010272 .LASF3551
C:\Users\SOLDER~1\AppData\Local\Temp\cchmqEOm.s:23072  .debug_str:0000000000006c27 .LASF3552
C:\Users\SOLDER~1\AppData\Local\Temp\cchmqEOm.s:22650  .debug_str:00000000000050b8 .LASF3553
C:\Users\SOLDER~1\AppData\Local\Temp\cchmqEOm.s:21822  .debug_str:0000000000001c18 .LASF3554
C:\Users\SOLDER~1\AppData\Local\Temp\cchmqEOm.s:30658  .debug_str:0000000000025960 .LASF3555
C:\Users\SOLDER~1\AppData\Local\Temp\cchmqEOm.s:21604  .debug_str:0000000000000e72 .LASF3556
C:\Users\SOLDER~1\AppData\Local\Temp\cchmqEOm.s:28002  .debug_str:000000000001ad8c .LASF3557
C:\Users\SOLDER~1\AppData\Local\Temp\cchmqEOm.s:25156  .debug_str:000000000000f445 .LASF3558
C:\Users\SOLDER~1\AppData\Local\Temp\cchmqEOm.s:21930  .debug_str:0000000000002329 .LASF3559
C:\Users\SOLDER~1\AppData\Local\Temp\cchmqEOm.s:22706  .debug_str:0000000000005421 .LASF3560
C:\Users\SOLDER~1\AppData\Local\Temp\cchmqEOm.s:25040  .debug_str:000000000000ed11 .LASF3561
C:\Users\SOLDER~1\AppData\Local\Temp\cchmqEOm.s:25918  .debug_str:000000000001257f .LASF3562
C:\Users\SOLDER~1\AppData\Local\Temp\cchmqEOm.s:32516  .debug_str:000000000002d1e6 .LASF3563
C:\Users\SOLDER~1\AppData\Local\Temp\cchmqEOm.s:26840  .debug_str:000000000001626e .LASF3564
C:\Users\SOLDER~1\AppData\Local\Temp\cchmqEOm.s:28304  .debug_str:000000000001c0a2 .LASF3565
C:\Users\SOLDER~1\AppData\Local\Temp\cchmqEOm.s:29058  .debug_str:000000000001f212 .LASF3566
C:\Users\SOLDER~1\AppData\Local\Temp\cchmqEOm.s:22026  .debug_str:000000000000299f .LASF3567
C:\Users\SOLDER~1\AppData\Local\Temp\cchmqEOm.s:27058  .debug_str:0000000000017007 .LASF3568
C:\Users\SOLDER~1\AppData\Local\Temp\cchmqEOm.s:25868  .debug_str:0000000000012281 .LASF3569
C:\Users\SOLDER~1\AppData\Local\Temp\cchmqEOm.s:32180  .debug_str:000000000002bc28 .LASF3570
C:\Users\SOLDER~1\AppData\Local\Temp\cchmqEOm.s:29462  .debug_str:0000000000020c37 .LASF3571
C:\Users\SOLDER~1\AppData\Local\Temp\cchmqEOm.s:21984  .debug_str:0000000000002696 .LASF3572
C:\Users\SOLDER~1\AppData\Local\Temp\cchmqEOm.s:27600  .debug_str:00000000000193f6 .LASF3573
C:\Users\SOLDER~1\AppData\Local\Temp\cchmqEOm.s:25462  .debug_str:000000000001085d .LASF3574
GAS LISTING C:\Users\SOLDER~1\AppData\Local\Temp\cchmqEOm.s 			page 137


C:\Users\SOLDER~1\AppData\Local\Temp\cchmqEOm.s:24730  .debug_str:000000000000d8d8 .LASF3575
C:\Users\SOLDER~1\AppData\Local\Temp\cchmqEOm.s:30950  .debug_str:0000000000026cca .LASF3576
C:\Users\SOLDER~1\AppData\Local\Temp\cchmqEOm.s:32434  .debug_str:000000000002cce5 .LASF3577
C:\Users\SOLDER~1\AppData\Local\Temp\cchmqEOm.s:25126  .debug_str:000000000000f24e .LASF3578
C:\Users\SOLDER~1\AppData\Local\Temp\cchmqEOm.s:30252  .debug_str:0000000000023eda .LASF3579
C:\Users\SOLDER~1\AppData\Local\Temp\cchmqEOm.s:32848  .debug_str:000000000002e74f .LASF3580
C:\Users\SOLDER~1\AppData\Local\Temp\cchmqEOm.s:22496  .debug_str:0000000000004769 .LASF3581
C:\Users\SOLDER~1\AppData\Local\Temp\cchmqEOm.s:26922  .debug_str:00000000000167cc .LASF3582
C:\Users\SOLDER~1\AppData\Local\Temp\cchmqEOm.s:27276  .debug_str:0000000000017e5b .LASF3583
C:\Users\SOLDER~1\AppData\Local\Temp\cchmqEOm.s:22034  .debug_str:0000000000002a1f .LASF3584
C:\Users\SOLDER~1\AppData\Local\Temp\cchmqEOm.s:23366  .debug_str:0000000000007f36 .LASF3585
C:\Users\SOLDER~1\AppData\Local\Temp\cchmqEOm.s:21472  .debug_str:00000000000004c1 .LASF3586
C:\Users\SOLDER~1\AppData\Local\Temp\cchmqEOm.s:29920  .debug_str:0000000000022911 .LASF3587
C:\Users\SOLDER~1\AppData\Local\Temp\cchmqEOm.s:25292  .debug_str:000000000000fd57 .LASF3588
C:\Users\SOLDER~1\AppData\Local\Temp\cchmqEOm.s:30750  .debug_str:0000000000025f48 .LASF3589
C:\Users\SOLDER~1\AppData\Local\Temp\cchmqEOm.s:30312  .debug_str:0000000000024297 .LASF3590
C:\Users\SOLDER~1\AppData\Local\Temp\cchmqEOm.s:32902  .debug_str:000000000002ea9e .LASF3591
C:\Users\SOLDER~1\AppData\Local\Temp\cchmqEOm.s:24016  .debug_str:000000000000a9d2 .LASF3592
C:\Users\SOLDER~1\AppData\Local\Temp\cchmqEOm.s:25052  .debug_str:000000000000eda6 .LASF3593
C:\Users\SOLDER~1\AppData\Local\Temp\cchmqEOm.s:25744  .debug_str:0000000000011a4d .LASF3594
C:\Users\SOLDER~1\AppData\Local\Temp\cchmqEOm.s:22214  .debug_str:00000000000035a0 .LASF3595
C:\Users\SOLDER~1\AppData\Local\Temp\cchmqEOm.s:30728  .debug_str:0000000000025db9 .LASF3596
C:\Users\SOLDER~1\AppData\Local\Temp\cchmqEOm.s:28286  .debug_str:000000000001bf72 .LASF3597
C:\Users\SOLDER~1\AppData\Local\Temp\cchmqEOm.s:32154  .debug_str:000000000002ba5b .LASF3598
C:\Users\SOLDER~1\AppData\Local\Temp\cchmqEOm.s:24578  .debug_str:000000000000cedb .LASF3599
C:\Users\SOLDER~1\AppData\Local\Temp\cchmqEOm.s:21506  .debug_str:0000000000000787 .LASF3600
C:\Users\SOLDER~1\AppData\Local\Temp\cchmqEOm.s:31856  .debug_str:000000000002a723 .LASF3601
C:\Users\SOLDER~1\AppData\Local\Temp\cchmqEOm.s:28242  .debug_str:000000000001bcc8 .LASF3602
C:\Users\SOLDER~1\AppData\Local\Temp\cchmqEOm.s:25746  .debug_str:0000000000011a6e .LASF3603
C:\Users\SOLDER~1\AppData\Local\Temp\cchmqEOm.s:29214  .debug_str:000000000001fc71 .LASF3604
C:\Users\SOLDER~1\AppData\Local\Temp\cchmqEOm.s:25830  .debug_str:0000000000012002 .LASF3605
C:\Users\SOLDER~1\AppData\Local\Temp\cchmqEOm.s:28106  .debug_str:000000000001b47e .LASF3606
C:\Users\SOLDER~1\AppData\Local\Temp\cchmqEOm.s:24490  .debug_str:000000000000c92d .LASF3607
C:\Users\SOLDER~1\AppData\Local\Temp\cchmqEOm.s:28258  .debug_str:000000000001bdbc .LASF3608
C:\Users\SOLDER~1\AppData\Local\Temp\cchmqEOm.s:32430  .debug_str:000000000002cc9f .LASF3609
C:\Users\SOLDER~1\AppData\Local\Temp\cchmqEOm.s:25322  .debug_str:000000000000ff77 .LASF3610
C:\Users\SOLDER~1\AppData\Local\Temp\cchmqEOm.s:31750  .debug_str:0000000000029ffd .LASF3611
C:\Users\SOLDER~1\AppData\Local\Temp\cchmqEOm.s:21758  .debug_str:0000000000001809 .LASF3612
C:\Users\SOLDER~1\AppData\Local\Temp\cchmqEOm.s:23558  .debug_str:0000000000008bc5 .LASF3613
C:\Users\SOLDER~1\AppData\Local\Temp\cchmqEOm.s:30342  .debug_str:00000000000244a3 .LASF3614
C:\Users\SOLDER~1\AppData\Local\Temp\cchmqEOm.s:29720  .debug_str:0000000000021cdc .LASF3615
C:\Users\SOLDER~1\AppData\Local\Temp\cchmqEOm.s:30244  .debug_str:0000000000023e6d .LASF3616
C:\Users\SOLDER~1\AppData\Local\Temp\cchmqEOm.s:31220  .debug_str:0000000000027e45 .LASF3617
C:\Users\SOLDER~1\AppData\Local\Temp\cchmqEOm.s:30574  .debug_str:0000000000025412 .LASF3618
C:\Users\SOLDER~1\AppData\Local\Temp\cchmqEOm.s:24682  .debug_str:000000000000d5b0 .LASF3619
C:\Users\SOLDER~1\AppData\Local\Temp\cchmqEOm.s:27116  .debug_str:00000000000173b7 .LASF3620
C:\Users\SOLDER~1\AppData\Local\Temp\cchmqEOm.s:31632  .debug_str:000000000002985b .LASF3621
C:\Users\SOLDER~1\AppData\Local\Temp\cchmqEOm.s:28282  .debug_str:000000000001bf38 .LASF3622
C:\Users\SOLDER~1\AppData\Local\Temp\cchmqEOm.s:28174  .debug_str:000000000001b88b .LASF3623
C:\Users\SOLDER~1\AppData\Local\Temp\cchmqEOm.s:22376  .debug_str:0000000000003fde .LASF3624
C:\Users\SOLDER~1\AppData\Local\Temp\cchmqEOm.s:30358  .debug_str:00000000000245b9 .LASF3625
C:\Users\SOLDER~1\AppData\Local\Temp\cchmqEOm.s:29728  .debug_str:0000000000021d62 .LASF3626
C:\Users\SOLDER~1\AppData\Local\Temp\cchmqEOm.s:32100  .debug_str:000000000002b707 .LASF3627
C:\Users\SOLDER~1\AppData\Local\Temp\cchmqEOm.s:28062  .debug_str:000000000001b16d .LASF3628
C:\Users\SOLDER~1\AppData\Local\Temp\cchmqEOm.s:31412  .debug_str:0000000000028aa7 .LASF3629
C:\Users\SOLDER~1\AppData\Local\Temp\cchmqEOm.s:26012  .debug_str:0000000000012b42 .LASF3630
C:\Users\SOLDER~1\AppData\Local\Temp\cchmqEOm.s:27500  .debug_str:0000000000018d0e .LASF3631
GAS LISTING C:\Users\SOLDER~1\AppData\Local\Temp\cchmqEOm.s 			page 138


C:\Users\SOLDER~1\AppData\Local\Temp\cchmqEOm.s:29778  .debug_str:0000000000022065 .LASF3632
C:\Users\SOLDER~1\AppData\Local\Temp\cchmqEOm.s:32942  .debug_str:000000000002ed44 .LASF3633
C:\Users\SOLDER~1\AppData\Local\Temp\cchmqEOm.s:30008  .debug_str:0000000000022ec8 .LASF3634
C:\Users\SOLDER~1\AppData\Local\Temp\cchmqEOm.s:27274  .debug_str:0000000000017e3b .LASF3635
C:\Users\SOLDER~1\AppData\Local\Temp\cchmqEOm.s:30064  .debug_str:000000000002326a .LASF3636
C:\Users\SOLDER~1\AppData\Local\Temp\cchmqEOm.s:25246  .debug_str:000000000000fa05 .LASF3637
C:\Users\SOLDER~1\AppData\Local\Temp\cchmqEOm.s:29386  .debug_str:000000000002074b .LASF3638
C:\Users\SOLDER~1\AppData\Local\Temp\cchmqEOm.s:25760  .debug_str:0000000000011b72 .LASF3639
C:\Users\SOLDER~1\AppData\Local\Temp\cchmqEOm.s:31738  .debug_str:0000000000029f1b .LASF3640
C:\Users\SOLDER~1\AppData\Local\Temp\cchmqEOm.s:30078  .debug_str:0000000000023369 .LASF3641
C:\Users\SOLDER~1\AppData\Local\Temp\cchmqEOm.s:24790  .debug_str:000000000000dc8e .LASF3642
C:\Users\SOLDER~1\AppData\Local\Temp\cchmqEOm.s:31770  .debug_str:000000000002a144 .LASF3643
C:\Users\SOLDER~1\AppData\Local\Temp\cchmqEOm.s:30592  .debug_str:000000000002554f .LASF3644
C:\Users\SOLDER~1\AppData\Local\Temp\cchmqEOm.s:31944  .debug_str:000000000002acfb .LASF3645
C:\Users\SOLDER~1\AppData\Local\Temp\cchmqEOm.s:32438  .debug_str:000000000002cd32 .LASF3646
C:\Users\SOLDER~1\AppData\Local\Temp\cchmqEOm.s:23042  .debug_str:0000000000006a58 .LASF3647
C:\Users\SOLDER~1\AppData\Local\Temp\cchmqEOm.s:21452  .debug_str:000000000000036e .LASF3648
C:\Users\SOLDER~1\AppData\Local\Temp\cchmqEOm.s:29130  .debug_str:000000000001f695 .LASF3649
C:\Users\SOLDER~1\AppData\Local\Temp\cchmqEOm.s:23724  .debug_str:00000000000096da .LASF3650
C:\Users\SOLDER~1\AppData\Local\Temp\cchmqEOm.s:26800  .debug_str:0000000000015fcf .LASF3651
C:\Users\SOLDER~1\AppData\Local\Temp\cchmqEOm.s:21584  .debug_str:0000000000000cfc .LASF3652
C:\Users\SOLDER~1\AppData\Local\Temp\cchmqEOm.s:32606  .debug_str:000000000002d81f .LASF3653
C:\Users\SOLDER~1\AppData\Local\Temp\cchmqEOm.s:27684  .debug_str:0000000000019947 .LASF3654
C:\Users\SOLDER~1\AppData\Local\Temp\cchmqEOm.s:32720  .debug_str:000000000002df48 .LASF3655
C:\Users\SOLDER~1\AppData\Local\Temp\cchmqEOm.s:31152  .debug_str:0000000000027a0d .LASF3656
C:\Users\SOLDER~1\AppData\Local\Temp\cchmqEOm.s:23780  .debug_str:0000000000009a70 .LASF3657
C:\Users\SOLDER~1\AppData\Local\Temp\cchmqEOm.s:30336  .debug_str:0000000000024438 .LASF3658
C:\Users\SOLDER~1\AppData\Local\Temp\cchmqEOm.s:32492  .debug_str:000000000002d084 .LASF3659
C:\Users\SOLDER~1\AppData\Local\Temp\cchmqEOm.s:22946  .debug_str:00000000000063e0 .LASF3660
C:\Users\SOLDER~1\AppData\Local\Temp\cchmqEOm.s:28178  .debug_str:000000000001b8d2 .LASF3661
C:\Users\SOLDER~1\AppData\Local\Temp\cchmqEOm.s:30842  .debug_str:000000000002657e .LASF3662
C:\Users\SOLDER~1\AppData\Local\Temp\cchmqEOm.s:22552  .debug_str:0000000000004ac5 .LASF3663
C:\Users\SOLDER~1\AppData\Local\Temp\cchmqEOm.s:22586  .debug_str:0000000000004d1b .LASF3664
C:\Users\SOLDER~1\AppData\Local\Temp\cchmqEOm.s:22128  .debug_str:0000000000003011 .LASF3665
C:\Users\SOLDER~1\AppData\Local\Temp\cchmqEOm.s:31014  .debug_str:0000000000027118 .LASF3666
C:\Users\SOLDER~1\AppData\Local\Temp\cchmqEOm.s:26190  .debug_str:000000000001370a .LASF3667
C:\Users\SOLDER~1\AppData\Local\Temp\cchmqEOm.s:27426  .debug_str:0000000000018847 .LASF3668
C:\Users\SOLDER~1\AppData\Local\Temp\cchmqEOm.s:25014  .debug_str:000000000000eb8d .LASF3669
C:\Users\SOLDER~1\AppData\Local\Temp\cchmqEOm.s:25282  .debug_str:000000000000fca1 .LASF3670
C:\Users\SOLDER~1\AppData\Local\Temp\cchmqEOm.s:29912  .debug_str:00000000000228af .LASF3671
C:\Users\SOLDER~1\AppData\Local\Temp\cchmqEOm.s:30994  .debug_str:0000000000026fa8 .LASF3672
C:\Users\SOLDER~1\AppData\Local\Temp\cchmqEOm.s:27900  .debug_str:000000000001a6e0 .LASF3673
C:\Users\SOLDER~1\AppData\Local\Temp\cchmqEOm.s:27920  .debug_str:000000000001a7fe .LASF3674
C:\Users\SOLDER~1\AppData\Local\Temp\cchmqEOm.s:23900  .debug_str:000000000000a229 .LASF3675
C:\Users\SOLDER~1\AppData\Local\Temp\cchmqEOm.s:25646  .debug_str:000000000001141b .LASF3676
C:\Users\SOLDER~1\AppData\Local\Temp\cchmqEOm.s:30032  .debug_str:0000000000023074 .LASF3677
C:\Users\SOLDER~1\AppData\Local\Temp\cchmqEOm.s:27934  .debug_str:000000000001a909 .LASF3678
C:\Users\SOLDER~1\AppData\Local\Temp\cchmqEOm.s:30262  .debug_str:0000000000023f8c .LASF3679
C:\Users\SOLDER~1\AppData\Local\Temp\cchmqEOm.s:31626  .debug_str:00000000000297f2 .LASF3680
C:\Users\SOLDER~1\AppData\Local\Temp\cchmqEOm.s:32422  .debug_str:000000000002cc2e .LASF3681
C:\Users\SOLDER~1\AppData\Local\Temp\cchmqEOm.s:27028  .debug_str:0000000000016e5b .LASF3682
C:\Users\SOLDER~1\AppData\Local\Temp\cchmqEOm.s:32102  .debug_str:000000000002b728 .LASF3683
C:\Users\SOLDER~1\AppData\Local\Temp\cchmqEOm.s:25774  .debug_str:0000000000011c62 .LASF3684
C:\Users\SOLDER~1\AppData\Local\Temp\cchmqEOm.s:29702  .debug_str:0000000000021b9e .LASF3685
C:\Users\SOLDER~1\AppData\Local\Temp\cchmqEOm.s:25574  .debug_str:0000000000010f6c .LASF3686
C:\Users\SOLDER~1\AppData\Local\Temp\cchmqEOm.s:33006  .debug_str:000000000002f14a .LASF3687
C:\Users\SOLDER~1\AppData\Local\Temp\cchmqEOm.s:29718  .debug_str:0000000000021cb5 .LASF3688
GAS LISTING C:\Users\SOLDER~1\AppData\Local\Temp\cchmqEOm.s 			page 139


C:\Users\SOLDER~1\AppData\Local\Temp\cchmqEOm.s:23566  .debug_str:0000000000008c48 .LASF3689
C:\Users\SOLDER~1\AppData\Local\Temp\cchmqEOm.s:29708  .debug_str:0000000000021c10 .LASF3690
C:\Users\SOLDER~1\AppData\Local\Temp\cchmqEOm.s:21830  .debug_str:0000000000001c91 .LASF3691
C:\Users\SOLDER~1\AppData\Local\Temp\cchmqEOm.s:22818  .debug_str:0000000000005b6b .LASF3692
C:\Users\SOLDER~1\AppData\Local\Temp\cchmqEOm.s:24470  .debug_str:000000000000c7d3 .LASF3693
C:\Users\SOLDER~1\AppData\Local\Temp\cchmqEOm.s:31566  .debug_str:0000000000029442 .LASF3694
C:\Users\SOLDER~1\AppData\Local\Temp\cchmqEOm.s:26516  .debug_str:0000000000014d70 .LASF3695
C:\Users\SOLDER~1\AppData\Local\Temp\cchmqEOm.s:23758  .debug_str:00000000000098ef .LASF3696
C:\Users\SOLDER~1\AppData\Local\Temp\cchmqEOm.s:24350  .debug_str:000000000000bfa5 .LASF3697
C:\Users\SOLDER~1\AppData\Local\Temp\cchmqEOm.s:27956  .debug_str:000000000001aa55 .LASF3698
C:\Users\SOLDER~1\AppData\Local\Temp\cchmqEOm.s:25264  .debug_str:000000000000fb7d .LASF3699
C:\Users\SOLDER~1\AppData\Local\Temp\cchmqEOm.s:28888  .debug_str:000000000001e6f8 .LASF3700
C:\Users\SOLDER~1\AppData\Local\Temp\cchmqEOm.s:21874  .debug_str:0000000000001f6e .LASF3701
C:\Users\SOLDER~1\AppData\Local\Temp\cchmqEOm.s:25514  .debug_str:0000000000010bd0 .LASF3702
C:\Users\SOLDER~1\AppData\Local\Temp\cchmqEOm.s:24962  .debug_str:000000000000e7e7 .LASF3703
C:\Users\SOLDER~1\AppData\Local\Temp\cchmqEOm.s:22222  .debug_str:0000000000003603 .LASF3704
C:\Users\SOLDER~1\AppData\Local\Temp\cchmqEOm.s:31148  .debug_str:00000000000279c0 .LASF3705
C:\Users\SOLDER~1\AppData\Local\Temp\cchmqEOm.s:30482  .debug_str:0000000000024deb .LASF3706
C:\Users\SOLDER~1\AppData\Local\Temp\cchmqEOm.s:24634  .debug_str:000000000000d29c .LASF3707
C:\Users\SOLDER~1\AppData\Local\Temp\cchmqEOm.s:21956  .debug_str:00000000000024e1 .LASF3708
C:\Users\SOLDER~1\AppData\Local\Temp\cchmqEOm.s:30724  .debug_str:0000000000025d70 .LASF3709
C:\Users\SOLDER~1\AppData\Local\Temp\cchmqEOm.s:22154  .debug_str:00000000000031b1 .LASF3710
C:\Users\SOLDER~1\AppData\Local\Temp\cchmqEOm.s:21890  .debug_str:0000000000002070 .LASF3711
C:\Users\SOLDER~1\AppData\Local\Temp\cchmqEOm.s:30812  .debug_str:000000000002635d .LASF3712
C:\Users\SOLDER~1\AppData\Local\Temp\cchmqEOm.s:31196  .debug_str:0000000000027cd9 .LASF3713
C:\Users\SOLDER~1\AppData\Local\Temp\cchmqEOm.s:31668  .debug_str:0000000000029ad6 .LASF3714
C:\Users\SOLDER~1\AppData\Local\Temp\cchmqEOm.s:22562  .debug_str:0000000000004b72 .LASF3715
C:\Users\SOLDER~1\AppData\Local\Temp\cchmqEOm.s:31682  .debug_str:0000000000029bc6 .LASF3716
C:\Users\SOLDER~1\AppData\Local\Temp\cchmqEOm.s:27700  .debug_str:0000000000019a78 .LASF3717
C:\Users\SOLDER~1\AppData\Local\Temp\cchmqEOm.s:24382  .debug_str:000000000000c198 .LASF3718
C:\Users\SOLDER~1\AppData\Local\Temp\cchmqEOm.s:31076  .debug_str:0000000000027524 .LASF3719
C:\Users\SOLDER~1\AppData\Local\Temp\cchmqEOm.s:24694  .debug_str:000000000000d6a0 .LASF3720
C:\Users\SOLDER~1\AppData\Local\Temp\cchmqEOm.s:32894  .debug_str:000000000002ea28 .LASF3721
C:\Users\SOLDER~1\AppData\Local\Temp\cchmqEOm.s:24114  .debug_str:000000000000b03e .LASF3722
C:\Users\SOLDER~1\AppData\Local\Temp\cchmqEOm.s:30554  .debug_str:00000000000252c3 .LASF3723
C:\Users\SOLDER~1\AppData\Local\Temp\cchmqEOm.s:32616  .debug_str:000000000002d8ce .LASF3724
C:\Users\SOLDER~1\AppData\Local\Temp\cchmqEOm.s:29596  .debug_str:00000000000214f1 .LASF3725
C:\Users\SOLDER~1\AppData\Local\Temp\cchmqEOm.s:26430  .debug_str:00000000000147d4 .LASF3726
C:\Users\SOLDER~1\AppData\Local\Temp\cchmqEOm.s:31868  .debug_str:000000000002a7ee .LASF3727
C:\Users\SOLDER~1\AppData\Local\Temp\cchmqEOm.s:24062  .debug_str:000000000000acdd .LASF3728
C:\Users\SOLDER~1\AppData\Local\Temp\cchmqEOm.s:26732  .debug_str:0000000000015b82 .LASF3729
C:\Users\SOLDER~1\AppData\Local\Temp\cchmqEOm.s:27556  .debug_str:00000000000190e5 .LASF3730
C:\Users\SOLDER~1\AppData\Local\Temp\cchmqEOm.s:23336  .debug_str:0000000000007d3c .LASF3731
C:\Users\SOLDER~1\AppData\Local\Temp\cchmqEOm.s:28084  .debug_str:000000000001b301 .LASF3732
C:\Users\SOLDER~1\AppData\Local\Temp\cchmqEOm.s:24352  .debug_str:000000000000bfca .LASF3733
C:\Users\SOLDER~1\AppData\Local\Temp\cchmqEOm.s:27854  .debug_str:000000000001a3eb .LASF3734
C:\Users\SOLDER~1\AppData\Local\Temp\cchmqEOm.s:24280  .debug_str:000000000000bb0b .LASF3735
C:\Users\SOLDER~1\AppData\Local\Temp\cchmqEOm.s:22808  .debug_str:0000000000005ab3 .LASF3736
C:\Users\SOLDER~1\AppData\Local\Temp\cchmqEOm.s:25330  .debug_str:000000000000fffe .LASF3737
C:\Users\SOLDER~1\AppData\Local\Temp\cchmqEOm.s:23116  .debug_str:0000000000006f09 .LASF3738
C:\Users\SOLDER~1\AppData\Local\Temp\cchmqEOm.s:22208  .debug_str:0000000000003547 .LASF3739
C:\Users\SOLDER~1\AppData\Local\Temp\cchmqEOm.s:29196  .debug_str:000000000001fb27 .LASF3740
C:\Users\SOLDER~1\AppData\Local\Temp\cchmqEOm.s:29290  .debug_str:0000000000020154 .LASF3741
C:\Users\SOLDER~1\AppData\Local\Temp\cchmqEOm.s:24794  .debug_str:000000000000dcc8 .LASF3742
C:\Users\SOLDER~1\AppData\Local\Temp\cchmqEOm.s:32844  .debug_str:000000000002e714 .LASF3743
C:\Users\SOLDER~1\AppData\Local\Temp\cchmqEOm.s:22802  .debug_str:0000000000005a51 .LASF3744
C:\Users\SOLDER~1\AppData\Local\Temp\cchmqEOm.s:31800  .debug_str:000000000002a36f .LASF3745
GAS LISTING C:\Users\SOLDER~1\AppData\Local\Temp\cchmqEOm.s 			page 140


C:\Users\SOLDER~1\AppData\Local\Temp\cchmqEOm.s:24844  .debug_str:000000000000e002 .LASF3746
C:\Users\SOLDER~1\AppData\Local\Temp\cchmqEOm.s:30042  .debug_str:00000000000230e3 .LASF3747
C:\Users\SOLDER~1\AppData\Local\Temp\cchmqEOm.s:26138  .debug_str:000000000001335d .LASF3748
C:\Users\SOLDER~1\AppData\Local\Temp\cchmqEOm.s:24598  .debug_str:000000000000d016 .LASF3749
C:\Users\SOLDER~1\AppData\Local\Temp\cchmqEOm.s:31956  .debug_str:000000000002ad9e .LASF3750
C:\Users\SOLDER~1\AppData\Local\Temp\cchmqEOm.s:28266  .debug_str:000000000001be26 .LASF3751
C:\Users\SOLDER~1\AppData\Local\Temp\cchmqEOm.s:25350  .debug_str:000000000001014f .LASF3752
C:\Users\SOLDER~1\AppData\Local\Temp\cchmqEOm.s:28872  .debug_str:000000000001e60a .LASF3753
C:\Users\SOLDER~1\AppData\Local\Temp\cchmqEOm.s:25314  .debug_str:000000000000fefa .LASF3754
C:\Users\SOLDER~1\AppData\Local\Temp\cchmqEOm.s:27864  .debug_str:000000000001a49d .LASF3755
C:\Users\SOLDER~1\AppData\Local\Temp\cchmqEOm.s:28104  .debug_str:000000000001b45b .LASF3756
C:\Users\SOLDER~1\AppData\Local\Temp\cchmqEOm.s:25912  .debug_str:0000000000012542 .LASF3757
C:\Users\SOLDER~1\AppData\Local\Temp\cchmqEOm.s:27430  .debug_str:0000000000018895 .LASF3758
C:\Users\SOLDER~1\AppData\Local\Temp\cchmqEOm.s:21982  .debug_str:0000000000002680 .LASF3759
C:\Users\SOLDER~1\AppData\Local\Temp\cchmqEOm.s:22712  .debug_str:0000000000005465 .LASF3760
C:\Users\SOLDER~1\AppData\Local\Temp\cchmqEOm.s:29478  .debug_str:0000000000020d3b .LASF3761
C:\Users\SOLDER~1\AppData\Local\Temp\cchmqEOm.s:32640  .debug_str:000000000002da47 .LASF3762
C:\Users\SOLDER~1\AppData\Local\Temp\cchmqEOm.s:21678  .debug_str:00000000000012f7 .LASF3763
C:\Users\SOLDER~1\AppData\Local\Temp\cchmqEOm.s:27490  .debug_str:0000000000018c63 .LASF3764
C:\Users\SOLDER~1\AppData\Local\Temp\cchmqEOm.s:25624  .debug_str:00000000000112be .LASF3765
C:\Users\SOLDER~1\AppData\Local\Temp\cchmqEOm.s:30484  .debug_str:0000000000024e0f .LASF3766
C:\Users\SOLDER~1\AppData\Local\Temp\cchmqEOm.s:24146  .debug_str:000000000000b253 .LASF3767
C:\Users\SOLDER~1\AppData\Local\Temp\cchmqEOm.s:29774  .debug_str:0000000000022026 .LASF3768
C:\Users\SOLDER~1\AppData\Local\Temp\cchmqEOm.s:21960  .debug_str:0000000000002533 .LASF3769
C:\Users\SOLDER~1\AppData\Local\Temp\cchmqEOm.s:31272  .debug_str:0000000000028162 .LASF3770
C:\Users\SOLDER~1\AppData\Local\Temp\cchmqEOm.s:21628  .debug_str:0000000000000fd3 .LASF3771
C:\Users\SOLDER~1\AppData\Local\Temp\cchmqEOm.s:30338  .debug_str:000000000002445f .LASF3772
C:\Users\SOLDER~1\AppData\Local\Temp\cchmqEOm.s:26254  .debug_str:0000000000013b9e .LASF3773
C:\Users\SOLDER~1\AppData\Local\Temp\cchmqEOm.s:31676  .debug_str:0000000000029b54 .LASF3774
C:\Users\SOLDER~1\AppData\Local\Temp\cchmqEOm.s:29104  .debug_str:000000000001f4e1 .LASF3775
C:\Users\SOLDER~1\AppData\Local\Temp\cchmqEOm.s:24674  .debug_str:000000000000d524 .LASF3776
C:\Users\SOLDER~1\AppData\Local\Temp\cchmqEOm.s:23230  .debug_str:0000000000007682 .LASF3777
C:\Users\SOLDER~1\AppData\Local\Temp\cchmqEOm.s:30978  .debug_str:0000000000026ec6 .LASF3778
C:\Users\SOLDER~1\AppData\Local\Temp\cchmqEOm.s:29284  .debug_str:00000000000200fa .LASF3779
C:\Users\SOLDER~1\AppData\Local\Temp\cchmqEOm.s:29548  .debug_str:00000000000211b5 .LASF3780
C:\Users\SOLDER~1\AppData\Local\Temp\cchmqEOm.s:30456  .debug_str:0000000000024c2a .LASF3781
C:\Users\SOLDER~1\AppData\Local\Temp\cchmqEOm.s:22402  .debug_str:000000000000418a .LASF3782
C:\Users\SOLDER~1\AppData\Local\Temp\cchmqEOm.s:26538  .debug_str:0000000000014f19 .LASF3783
C:\Users\SOLDER~1\AppData\Local\Temp\cchmqEOm.s:25128  .debug_str:000000000000f267 .LASF3784
C:\Users\SOLDER~1\AppData\Local\Temp\cchmqEOm.s:23084  .debug_str:0000000000006ce6 .LASF3785
C:\Users\SOLDER~1\AppData\Local\Temp\cchmqEOm.s:27358  .debug_str:00000000000183e8 .LASF3786
C:\Users\SOLDER~1\AppData\Local\Temp\cchmqEOm.s:32620  .debug_str:000000000002d917 .LASF3787
C:\Users\SOLDER~1\AppData\Local\Temp\cchmqEOm.s:30460  .debug_str:0000000000024c67 .LASF3788
C:\Users\SOLDER~1\AppData\Local\Temp\cchmqEOm.s:22860  .debug_str:0000000000005e38 .LASF3789
C:\Users\SOLDER~1\AppData\Local\Temp\cchmqEOm.s:24010  .debug_str:000000000000a986 .LASF3790
C:\Users\SOLDER~1\AppData\Local\Temp\cchmqEOm.s:31510  .debug_str:00000000000290f8 .LASF3791
C:\Users\SOLDER~1\AppData\Local\Temp\cchmqEOm.s:31100  .debug_str:00000000000276a4 .LASF3792
C:\Users\SOLDER~1\AppData\Local\Temp\cchmqEOm.s:28702  .debug_str:000000000001db5a .LASF3793
C:\Users\SOLDER~1\AppData\Local\Temp\cchmqEOm.s:32518  .debug_str:000000000002d20b .LASF3794
C:\Users\SOLDER~1\AppData\Local\Temp\cchmqEOm.s:25450  .debug_str:00000000000107aa .LASF3795
C:\Users\SOLDER~1\AppData\Local\Temp\cchmqEOm.s:23890  .debug_str:000000000000a169 .LASF3796
C:\Users\SOLDER~1\AppData\Local\Temp\cchmqEOm.s:25352  .debug_str:0000000000010173 .LASF3797
C:\Users\SOLDER~1\AppData\Local\Temp\cchmqEOm.s:31296  .debug_str:00000000000282fc .LASF3798
C:\Users\SOLDER~1\AppData\Local\Temp\cchmqEOm.s:31902  .debug_str:000000000002aa3f .LASF3799
C:\Users\SOLDER~1\AppData\Local\Temp\cchmqEOm.s:28334  .debug_str:000000000001c28b .LASF3800
C:\Users\SOLDER~1\AppData\Local\Temp\cchmqEOm.s:29594  .debug_str:00000000000214dc .LASF3801
C:\Users\SOLDER~1\AppData\Local\Temp\cchmqEOm.s:27226  .debug_str:0000000000017b42 .LASF3802
GAS LISTING C:\Users\SOLDER~1\AppData\Local\Temp\cchmqEOm.s 			page 141


C:\Users\SOLDER~1\AppData\Local\Temp\cchmqEOm.s:31618  .debug_str:0000000000029780 .LASF3803
C:\Users\SOLDER~1\AppData\Local\Temp\cchmqEOm.s:29350  .debug_str:00000000000204ff .LASF3804
C:\Users\SOLDER~1\AppData\Local\Temp\cchmqEOm.s:28454  .debug_str:000000000001ca79 .LASF3805
C:\Users\SOLDER~1\AppData\Local\Temp\cchmqEOm.s:21480  .debug_str:0000000000000542 .LASF3806
C:\Users\SOLDER~1\AppData\Local\Temp\cchmqEOm.s:32246  .debug_str:000000000002c058 .LASF3807
C:\Users\SOLDER~1\AppData\Local\Temp\cchmqEOm.s:21548  .debug_str:0000000000000a78 .LASF3808
C:\Users\SOLDER~1\AppData\Local\Temp\cchmqEOm.s:26672  .debug_str:00000000000157a7 .LASF3809
C:\Users\SOLDER~1\AppData\Local\Temp\cchmqEOm.s:26992  .debug_str:0000000000016bf0 .LASF3810
C:\Users\SOLDER~1\AppData\Local\Temp\cchmqEOm.s:29308  .debug_str:000000000002027c .LASF3811
C:\Users\SOLDER~1\AppData\Local\Temp\cchmqEOm.s:26796  .debug_str:0000000000015f8e .LASF3812
C:\Users\SOLDER~1\AppData\Local\Temp\cchmqEOm.s:23494  .debug_str:000000000000877f .LASF3813
C:\Users\SOLDER~1\AppData\Local\Temp\cchmqEOm.s:22430  .debug_str:000000000000434e .LASF3814
C:\Users\SOLDER~1\AppData\Local\Temp\cchmqEOm.s:23676  .debug_str:0000000000009395 .LASF3815
C:\Users\SOLDER~1\AppData\Local\Temp\cchmqEOm.s:26772  .debug_str:0000000000015e10 .LASF3816
C:\Users\SOLDER~1\AppData\Local\Temp\cchmqEOm.s:23514  .debug_str:00000000000088c7 .LASF3817
C:\Users\SOLDER~1\AppData\Local\Temp\cchmqEOm.s:24732  .debug_str:000000000000d900 .LASF3818
C:\Users\SOLDER~1\AppData\Local\Temp\cchmqEOm.s:22610  .debug_str:0000000000004e8b .LASF3819
C:\Users\SOLDER~1\AppData\Local\Temp\cchmqEOm.s:30524  .debug_str:00000000000250a0 .LASF3820
C:\Users\SOLDER~1\AppData\Local\Temp\cchmqEOm.s:25996  .debug_str:0000000000012a4e .LASF3821
C:\Users\SOLDER~1\AppData\Local\Temp\cchmqEOm.s:25326  .debug_str:000000000000ffb7 .LASF3822
C:\Users\SOLDER~1\AppData\Local\Temp\cchmqEOm.s:28600  .debug_str:000000000001d463 .LASF3823
C:\Users\SOLDER~1\AppData\Local\Temp\cchmqEOm.s:31840  .debug_str:000000000002a5f4 .LASF3824
C:\Users\SOLDER~1\AppData\Local\Temp\cchmqEOm.s:23646  .debug_str:0000000000009182 .LASF3825
C:\Users\SOLDER~1\AppData\Local\Temp\cchmqEOm.s:29780  .debug_str:0000000000022075 .LASF3826
C:\Users\SOLDER~1\AppData\Local\Temp\cchmqEOm.s:23874  .debug_str:000000000000a070 .LASF3827
C:\Users\SOLDER~1\AppData\Local\Temp\cchmqEOm.s:23278  .debug_str:000000000000794b .LASF3828
C:\Users\SOLDER~1\AppData\Local\Temp\cchmqEOm.s:21688  .debug_str:000000000000137a .LASF3829
C:\Users\SOLDER~1\AppData\Local\Temp\cchmqEOm.s:24482  .debug_str:000000000000c896 .LASF3830
C:\Users\SOLDER~1\AppData\Local\Temp\cchmqEOm.s:22116  .debug_str:0000000000002f1b .LASF3831
C:\Users\SOLDER~1\AppData\Local\Temp\cchmqEOm.s:24286  .debug_str:000000000000bb69 .LASF3832
C:\Users\SOLDER~1\AppData\Local\Temp\cchmqEOm.s:30266  .debug_str:0000000000023fd0 .LASF3833
C:\Users\SOLDER~1\AppData\Local\Temp\cchmqEOm.s:28366  .debug_str:000000000001c4de .LASF3834
C:\Users\SOLDER~1\AppData\Local\Temp\cchmqEOm.s:24830  .debug_str:000000000000df1d .LASF3835
C:\Users\SOLDER~1\AppData\Local\Temp\cchmqEOm.s:32118  .debug_str:000000000002b84a .LASF3836
C:\Users\SOLDER~1\AppData\Local\Temp\cchmqEOm.s:30188  .debug_str:0000000000023aac .LASF3837
C:\Users\SOLDER~1\AppData\Local\Temp\cchmqEOm.s:24452  .debug_str:000000000000c688 .LASF3838
C:\Users\SOLDER~1\AppData\Local\Temp\cchmqEOm.s:30452  .debug_str:0000000000024be3 .LASF3839
C:\Users\SOLDER~1\AppData\Local\Temp\cchmqEOm.s:29976  .debug_str:0000000000022cc5 .LASF3840
C:\Users\SOLDER~1\AppData\Local\Temp\cchmqEOm.s:22448  .debug_str:000000000000446c .LASF3841
C:\Users\SOLDER~1\AppData\Local\Temp\cchmqEOm.s:24552  .debug_str:000000000000cd36 .LASF3842
C:\Users\SOLDER~1\AppData\Local\Temp\cchmqEOm.s:31684  .debug_str:0000000000029beb .LASF3843
C:\Users\SOLDER~1\AppData\Local\Temp\cchmqEOm.s:23990  .debug_str:000000000000a83e .LASF3844
C:\Users\SOLDER~1\AppData\Local\Temp\cchmqEOm.s:30014  .debug_str:0000000000022f26 .LASF3845
C:\Users\SOLDER~1\AppData\Local\Temp\cchmqEOm.s:28590  .debug_str:000000000001d3d6 .LASF3846
C:\Users\SOLDER~1\AppData\Local\Temp\cchmqEOm.s:30322  .debug_str:000000000002434d .LASF3847
C:\Users\SOLDER~1\AppData\Local\Temp\cchmqEOm.s:25540  .debug_str:0000000000010d75 .LASF3848
C:\Users\SOLDER~1\AppData\Local\Temp\cchmqEOm.s:26932  .debug_str:000000000001688e .LASF3849
C:\Users\SOLDER~1\AppData\Local\Temp\cchmqEOm.s:22876  .debug_str:0000000000005f22 .LASF3850
C:\Users\SOLDER~1\AppData\Local\Temp\cchmqEOm.s:24392  .debug_str:000000000000c25d .LASF3851
C:\Users\SOLDER~1\AppData\Local\Temp\cchmqEOm.s:24142  .debug_str:000000000000b21e .LASF3852
C:\Users\SOLDER~1\AppData\Local\Temp\cchmqEOm.s:24174  .debug_str:000000000000b413 .LASF3853
C:\Users\SOLDER~1\AppData\Local\Temp\cchmqEOm.s:22126  .debug_str:0000000000002ffb .LASF3854
C:\Users\SOLDER~1\AppData\Local\Temp\cchmqEOm.s:27690  .debug_str:00000000000199b6 .LASF3855
C:\Users\SOLDER~1\AppData\Local\Temp\cchmqEOm.s:24826  .debug_str:000000000000dee2 .LASF3856
C:\Users\SOLDER~1\AppData\Local\Temp\cchmqEOm.s:32592  .debug_str:000000000002d715 .LASF3857
C:\Users\SOLDER~1\AppData\Local\Temp\cchmqEOm.s:32280  .debug_str:000000000002c281 .LASF3858
C:\Users\SOLDER~1\AppData\Local\Temp\cchmqEOm.s:30696  .debug_str:0000000000025bbb .LASF3859
GAS LISTING C:\Users\SOLDER~1\AppData\Local\Temp\cchmqEOm.s 			page 142


C:\Users\SOLDER~1\AppData\Local\Temp\cchmqEOm.s:28940  .debug_str:000000000001ea36 .LASF3860
C:\Users\SOLDER~1\AppData\Local\Temp\cchmqEOm.s:21578  .debug_str:0000000000000c90 .LASF3861
C:\Users\SOLDER~1\AppData\Local\Temp\cchmqEOm.s:31742  .debug_str:0000000000029f6d .LASF3862
C:\Users\SOLDER~1\AppData\Local\Temp\cchmqEOm.s:22290  .debug_str:0000000000003a58 .LASF3863
C:\Users\SOLDER~1\AppData\Local\Temp\cchmqEOm.s:32664  .debug_str:000000000002dbbc .LASF3864
C:\Users\SOLDER~1\AppData\Local\Temp\cchmqEOm.s:24980  .debug_str:000000000000e91f .LASF3865
C:\Users\SOLDER~1\AppData\Local\Temp\cchmqEOm.s:24140  .debug_str:000000000000b1fe .LASF3866
C:\Users\SOLDER~1\AppData\Local\Temp\cchmqEOm.s:25324  .debug_str:000000000000ff97 .LASF3867
C:\Users\SOLDER~1\AppData\Local\Temp\cchmqEOm.s:27420  .debug_str:00000000000187f4 .LASF3868
C:\Users\SOLDER~1\AppData\Local\Temp\cchmqEOm.s:28476  .debug_str:000000000001cc12 .LASF3869
C:\Users\SOLDER~1\AppData\Local\Temp\cchmqEOm.s:24972  .debug_str:000000000000e893 .LASF3870
C:\Users\SOLDER~1\AppData\Local\Temp\cchmqEOm.s:24892  .debug_str:000000000000e37d .LASF3871
C:\Users\SOLDER~1\AppData\Local\Temp\cchmqEOm.s:32768  .debug_str:000000000002e238 .LASF3872
C:\Users\SOLDER~1\AppData\Local\Temp\cchmqEOm.s:27524  .debug_str:0000000000018e9f .LASF3873
C:\Users\SOLDER~1\AppData\Local\Temp\cchmqEOm.s:22382  .debug_str:0000000000004034 .LASF3874
C:\Users\SOLDER~1\AppData\Local\Temp\cchmqEOm.s:31576  .debug_str:00000000000294da .LASF3875
C:\Users\SOLDER~1\AppData\Local\Temp\cchmqEOm.s:23328  .debug_str:0000000000007ca5 .LASF3876
C:\Users\SOLDER~1\AppData\Local\Temp\cchmqEOm.s:22380  .debug_str:0000000000004010 .LASF3877
C:\Users\SOLDER~1\AppData\Local\Temp\cchmqEOm.s:27652  .debug_str:0000000000019723 .LASF3878
C:\Users\SOLDER~1\AppData\Local\Temp\cchmqEOm.s:24406  .debug_str:000000000000c358 .LASF3879
C:\Users\SOLDER~1\AppData\Local\Temp\cchmqEOm.s:24484  .debug_str:000000000000c8b8 .LASF3880
C:\Users\SOLDER~1\AppData\Local\Temp\cchmqEOm.s:30532  .debug_str:000000000002511a .LASF3881
C:\Users\SOLDER~1\AppData\Local\Temp\cchmqEOm.s:25236  .debug_str:000000000000f964 .LASF3882
C:\Users\SOLDER~1\AppData\Local\Temp\cchmqEOm.s:21418  .debug_str:0000000000000159 .LASF3883
C:\Users\SOLDER~1\AppData\Local\Temp\cchmqEOm.s:32192  .debug_str:000000000002bcfa .LASF3884
C:\Users\SOLDER~1\AppData\Local\Temp\cchmqEOm.s:31608  .debug_str:00000000000296c0 .LASF3885
C:\Users\SOLDER~1\AppData\Local\Temp\cchmqEOm.s:24862  .debug_str:000000000000e134 .LASF3886
C:\Users\SOLDER~1\AppData\Local\Temp\cchmqEOm.s:29508  .debug_str:0000000000020f10 .LASF3887
C:\Users\SOLDER~1\AppData\Local\Temp\cchmqEOm.s:21558  .debug_str:0000000000000b1f .LASF3888
C:\Users\SOLDER~1\AppData\Local\Temp\cchmqEOm.s:32854  .debug_str:000000000002e7a2 .LASF3889
C:\Users\SOLDER~1\AppData\Local\Temp\cchmqEOm.s:24130  .debug_str:000000000000b142 .LASF3890
C:\Users\SOLDER~1\AppData\Local\Temp\cchmqEOm.s:25398  .debug_str:000000000001043a .LASF3891
C:\Users\SOLDER~1\AppData\Local\Temp\cchmqEOm.s:32336  .debug_str:000000000002c64b .LASF3892
C:\Users\SOLDER~1\AppData\Local\Temp\cchmqEOm.s:23458  .debug_str:0000000000008553 .LASF3893
C:\Users\SOLDER~1\AppData\Local\Temp\cchmqEOm.s:28620  .debug_str:000000000001d5a0 .LASF3894
C:\Users\SOLDER~1\AppData\Local\Temp\cchmqEOm.s:27614  .debug_str:00000000000194dc .LASF3895
C:\Users\SOLDER~1\AppData\Local\Temp\cchmqEOm.s:29598  .debug_str:0000000000021512 .LASF3896
C:\Users\SOLDER~1\AppData\Local\Temp\cchmqEOm.s:23788  .debug_str:0000000000009ae6 .LASF3897
C:\Users\SOLDER~1\AppData\Local\Temp\cchmqEOm.s:31320  .debug_str:00000000000284b3 .LASF3898
C:\Users\SOLDER~1\AppData\Local\Temp\cchmqEOm.s:21824  .debug_str:0000000000001c30 .LASF3899
C:\Users\SOLDER~1\AppData\Local\Temp\cchmqEOm.s:27196  .debug_str:000000000001793a .LASF3900
C:\Users\SOLDER~1\AppData\Local\Temp\cchmqEOm.s:32036  .debug_str:000000000002b2ba .LASF3901
C:\Users\SOLDER~1\AppData\Local\Temp\cchmqEOm.s:32868  .debug_str:000000000002e896 .LASF3902
C:\Users\SOLDER~1\AppData\Local\Temp\cchmqEOm.s:25120  .debug_str:000000000000f1fc .LASF3903
C:\Users\SOLDER~1\AppData\Local\Temp\cchmqEOm.s:26452  .debug_str:0000000000014948 .LASF3904
C:\Users\SOLDER~1\AppData\Local\Temp\cchmqEOm.s:28522  .debug_str:000000000001cefe .LASF3905
C:\Users\SOLDER~1\AppData\Local\Temp\cchmqEOm.s:30466  .debug_str:0000000000024ceb .LASF3906
C:\Users\SOLDER~1\AppData\Local\Temp\cchmqEOm.s:31538  .debug_str:0000000000029275 .LASF3907
C:\Users\SOLDER~1\AppData\Local\Temp\cchmqEOm.s:28894  .debug_str:000000000001e767 .LASF3908
C:\Users\SOLDER~1\AppData\Local\Temp\cchmqEOm.s:32866  .debug_str:000000000002e873 .LASF3909
C:\Users\SOLDER~1\AppData\Local\Temp\cchmqEOm.s:26842  .debug_str:000000000001628b .LASF3910
C:\Users\SOLDER~1\AppData\Local\Temp\cchmqEOm.s:32724  .debug_str:000000000002df81 .LASF3911
C:\Users\SOLDER~1\AppData\Local\Temp\cchmqEOm.s:27394  .debug_str:000000000001864c .LASF3912
C:\Users\SOLDER~1\AppData\Local\Temp\cchmqEOm.s:31368  .debug_str:00000000000287e5 .LASF3913
C:\Users\SOLDER~1\AppData\Local\Temp\cchmqEOm.s:22514  .debug_str:0000000000004898 .LASF3914
C:\Users\SOLDER~1\AppData\Local\Temp\cchmqEOm.s:27916  .debug_str:000000000001a7c9 .LASF3915
C:\Users\SOLDER~1\AppData\Local\Temp\cchmqEOm.s:29136  .debug_str:000000000001f715 .LASF3916
GAS LISTING C:\Users\SOLDER~1\AppData\Local\Temp\cchmqEOm.s 			page 143


C:\Users\SOLDER~1\AppData\Local\Temp\cchmqEOm.s:29610  .debug_str:00000000000215df .LASF3917
C:\Users\SOLDER~1\AppData\Local\Temp\cchmqEOm.s:26724  .debug_str:0000000000015afa .LASF3918
C:\Users\SOLDER~1\AppData\Local\Temp\cchmqEOm.s:30884  .debug_str:0000000000026865 .LASF3919
C:\Users\SOLDER~1\AppData\Local\Temp\cchmqEOm.s:31814  .debug_str:000000000002a441 .LASF3920
C:\Users\SOLDER~1\AppData\Local\Temp\cchmqEOm.s:30766  .debug_str:0000000000026035 .LASF3921
C:\Users\SOLDER~1\AppData\Local\Temp\cchmqEOm.s:23196  .debug_str:000000000000744f .LASF3922
C:\Users\SOLDER~1\AppData\Local\Temp\cchmqEOm.s:29700  .debug_str:0000000000021b7d .LASF3923
C:\Users\SOLDER~1\AppData\Local\Temp\cchmqEOm.s:25630  .debug_str:0000000000011313 .LASF3924
C:\Users\SOLDER~1\AppData\Local\Temp\cchmqEOm.s:29540  .debug_str:0000000000021127 .LASF3925
C:\Users\SOLDER~1\AppData\Local\Temp\cchmqEOm.s:22672  .debug_str:0000000000005200 .LASF3926
C:\Users\SOLDER~1\AppData\Local\Temp\cchmqEOm.s:26178  .debug_str:0000000000013631 .LASF3927
C:\Users\SOLDER~1\AppData\Local\Temp\cchmqEOm.s:23806  .debug_str:0000000000009be6 .LASF3928
C:\Users\SOLDER~1\AppData\Local\Temp\cchmqEOm.s:22254  .debug_str:000000000000380a .LASF3929
C:\Users\SOLDER~1\AppData\Local\Temp\cchmqEOm.s:23304  .debug_str:0000000000007b03 .LASF3930
C:\Users\SOLDER~1\AppData\Local\Temp\cchmqEOm.s:29150  .debug_str:000000000001f7fc .LASF3931
C:\Users\SOLDER~1\AppData\Local\Temp\cchmqEOm.s:28622  .debug_str:000000000001d5b7 .LASF3932
C:\Users\SOLDER~1\AppData\Local\Temp\cchmqEOm.s:31386  .debug_str:00000000000288f0 .LASF3933
C:\Users\SOLDER~1\AppData\Local\Temp\cchmqEOm.s:30942  .debug_str:0000000000026c3c .LASF3934
C:\Users\SOLDER~1\AppData\Local\Temp\cchmqEOm.s:23800  .debug_str:0000000000009b89 .LASF3935
C:\Users\SOLDER~1\AppData\Local\Temp\cchmqEOm.s:25016  .debug_str:000000000000ebb3 .LASF3936
C:\Users\SOLDER~1\AppData\Local\Temp\cchmqEOm.s:26798  .debug_str:0000000000015fb0 .LASF3937
C:\Users\SOLDER~1\AppData\Local\Temp\cchmqEOm.s:22734  .debug_str:00000000000055ac .LASF3938
C:\Users\SOLDER~1\AppData\Local\Temp\cchmqEOm.s:23490  .debug_str:000000000000872a .LASF3939
C:\Users\SOLDER~1\AppData\Local\Temp\cchmqEOm.s:31886  .debug_str:000000000002a93e .LASF3940
C:\Users\SOLDER~1\AppData\Local\Temp\cchmqEOm.s:27342  .debug_str:00000000000182b8 .LASF3941
C:\Users\SOLDER~1\AppData\Local\Temp\cchmqEOm.s:33082  .debug_str:000000000002f5d3 .LASF3942
C:\Users\SOLDER~1\AppData\Local\Temp\cchmqEOm.s:29614  .debug_str:0000000000021625 .LASF3943
C:\Users\SOLDER~1\AppData\Local\Temp\cchmqEOm.s:22012  .debug_str:000000000000287d .LASF3944
C:\Users\SOLDER~1\AppData\Local\Temp\cchmqEOm.s:28378  .debug_str:000000000001c57e .LASF3945
C:\Users\SOLDER~1\AppData\Local\Temp\cchmqEOm.s:23444  .debug_str:0000000000008460 .LASF3946
C:\Users\SOLDER~1\AppData\Local\Temp\cchmqEOm.s:29482  .debug_str:0000000000020d76 .LASF3947
C:\Users\SOLDER~1\AppData\Local\Temp\cchmqEOm.s:30640  .debug_str:000000000002582b .LASF3948
C:\Users\SOLDER~1\AppData\Local\Temp\cchmqEOm.s:26698  .debug_str:0000000000015948 .LASF3949
C:\Users\SOLDER~1\AppData\Local\Temp\cchmqEOm.s:21680  .debug_str:000000000000130a .LASF3950
C:\Users\SOLDER~1\AppData\Local\Temp\cchmqEOm.s:30230  .debug_str:0000000000023d77 .LASF3951
C:\Users\SOLDER~1\AppData\Local\Temp\cchmqEOm.s:22386  .debug_str:0000000000004080 .LASF3952
C:\Users\SOLDER~1\AppData\Local\Temp\cchmqEOm.s:25362  .debug_str:0000000000010210 .LASF3953
C:\Users\SOLDER~1\AppData\Local\Temp\cchmqEOm.s:26802  .debug_str:0000000000015ff1 .LASF3954
C:\Users\SOLDER~1\AppData\Local\Temp\cchmqEOm.s:23382  .debug_str:000000000000804f .LASF3955
C:\Users\SOLDER~1\AppData\Local\Temp\cchmqEOm.s:21728  .debug_str:0000000000001639 .LASF3956
C:\Users\SOLDER~1\AppData\Local\Temp\cchmqEOm.s:33084  .debug_str:000000000002f5e9 .LASF3957
C:\Users\SOLDER~1\AppData\Local\Temp\cchmqEOm.s:25928  .debug_str:0000000000012619 .LASF3958
C:\Users\SOLDER~1\AppData\Local\Temp\cchmqEOm.s:27158  .debug_str:00000000000176aa .LASF3959
C:\Users\SOLDER~1\AppData\Local\Temp\cchmqEOm.s:24896  .debug_str:000000000000e3c2 .LASF3960
C:\Users\SOLDER~1\AppData\Local\Temp\cchmqEOm.s:27428  .debug_str:000000000001886d .LASF3961
C:\Users\SOLDER~1\AppData\Local\Temp\cchmqEOm.s:30654  .debug_str:0000000000025923 .LASF3962
C:\Users\SOLDER~1\AppData\Local\Temp\cchmqEOm.s:24894  .debug_str:000000000000e39b .LASF3963
C:\Users\SOLDER~1\AppData\Local\Temp\cchmqEOm.s:25028  .debug_str:000000000000ec69 .LASF3964
C:\Users\SOLDER~1\AppData\Local\Temp\cchmqEOm.s:29542  .debug_str:0000000000021147 .LASF3965
C:\Users\SOLDER~1\AppData\Local\Temp\cchmqEOm.s:29608  .debug_str:00000000000215b7 .LASF3966
C:\Users\SOLDER~1\AppData\Local\Temp\cchmqEOm.s:28560  .debug_str:000000000001d1b6 .LASF3967
C:\Users\SOLDER~1\AppData\Local\Temp\cchmqEOm.s:30368  .debug_str:000000000002465e .LASF3968
C:\Users\SOLDER~1\AppData\Local\Temp\cchmqEOm.s:27304  .debug_str:0000000000018027 .LASF3969
C:\Users\SOLDER~1\AppData\Local\Temp\cchmqEOm.s:24474  .debug_str:000000000000c80c .LASF3970
C:\Users\SOLDER~1\AppData\Local\Temp\cchmqEOm.s:24036  .debug_str:000000000000ab2d .LASF3971
C:\Users\SOLDER~1\AppData\Local\Temp\cchmqEOm.s:22524  .debug_str:0000000000004945 .LASF3972
C:\Users\SOLDER~1\AppData\Local\Temp\cchmqEOm.s:30896  .debug_str:0000000000026946 .LASF3973
GAS LISTING C:\Users\SOLDER~1\AppData\Local\Temp\cchmqEOm.s 			page 144


C:\Users\SOLDER~1\AppData\Local\Temp\cchmqEOm.s:25286  .debug_str:000000000000fcf7 .LASF3974
C:\Users\SOLDER~1\AppData\Local\Temp\cchmqEOm.s:25486  .debug_str:00000000000109cc .LASF3975
C:\Users\SOLDER~1\AppData\Local\Temp\cchmqEOm.s:21538  .debug_str:00000000000009cc .LASF3976
C:\Users\SOLDER~1\AppData\Local\Temp\cchmqEOm.s:23098  .debug_str:0000000000006dc4 .LASF3977
C:\Users\SOLDER~1\AppData\Local\Temp\cchmqEOm.s:32964  .debug_str:000000000002ee85 .LASF3978
C:\Users\SOLDER~1\AppData\Local\Temp\cchmqEOm.s:23970  .debug_str:000000000000a6a8 .LASF3979
C:\Users\SOLDER~1\AppData\Local\Temp\cchmqEOm.s:27070  .debug_str:00000000000170aa .LASF3980
C:\Users\SOLDER~1\AppData\Local\Temp\cchmqEOm.s:31062  .debug_str:0000000000027418 .LASF3981
C:\Users\SOLDER~1\AppData\Local\Temp\cchmqEOm.s:33014  .debug_str:000000000002f1e0 .LASF3982
C:\Users\SOLDER~1\AppData\Local\Temp\cchmqEOm.s:31506  .debug_str:00000000000290b8 .LASF3983
C:\Users\SOLDER~1\AppData\Local\Temp\cchmqEOm.s:27238  .debug_str:0000000000017be3 .LASF3984
C:\Users\SOLDER~1\AppData\Local\Temp\cchmqEOm.s:31056  .debug_str:00000000000273ad .LASF3985
C:\Users\SOLDER~1\AppData\Local\Temp\cchmqEOm.s:33026  .debug_str:000000000002f288 .LASF3986
C:\Users\SOLDER~1\AppData\Local\Temp\cchmqEOm.s:23048  .debug_str:0000000000006aab .LASF3987
C:\Users\SOLDER~1\AppData\Local\Temp\cchmqEOm.s:28762  .debug_str:000000000001deef .LASF3988
C:\Users\SOLDER~1\AppData\Local\Temp\cchmqEOm.s:23224  .debug_str:000000000000761c .LASF3989
C:\Users\SOLDER~1\AppData\Local\Temp\cchmqEOm.s:30922  .debug_str:0000000000026b11 .LASF3990
C:\Users\SOLDER~1\AppData\Local\Temp\cchmqEOm.s:22378  .debug_str:0000000000003ff3 .LASF3991
C:\Users\SOLDER~1\AppData\Local\Temp\cchmqEOm.s:30360  .debug_str:00000000000245db .LASF3992
C:\Users\SOLDER~1\AppData\Local\Temp\cchmqEOm.s:23628  .debug_str:0000000000009068 .LASF3993
C:\Users\SOLDER~1\AppData\Local\Temp\cchmqEOm.s:24218  .debug_str:000000000000b724 .LASF3994
C:\Users\SOLDER~1\AppData\Local\Temp\cchmqEOm.s:24500  .debug_str:000000000000c9d3 .LASF3995
C:\Users\SOLDER~1\AppData\Local\Temp\cchmqEOm.s:30446  .debug_str:0000000000024b74 .LASF3996
C:\Users\SOLDER~1\AppData\Local\Temp\cchmqEOm.s:32046  .debug_str:000000000002b35b .LASF3997
C:\Users\SOLDER~1\AppData\Local\Temp\cchmqEOm.s:23672  .debug_str:0000000000009373 .LASF3998
C:\Users\SOLDER~1\AppData\Local\Temp\cchmqEOm.s:25984  .debug_str:00000000000129c0 .LASF3999
C:\Users\SOLDER~1\AppData\Local\Temp\cchmqEOm.s:26464  .debug_str:00000000000149f9 .LASF4000
C:\Users\SOLDER~1\AppData\Local\Temp\cchmqEOm.s:31278  .debug_str:00000000000281bd .LASF4001
C:\Users\SOLDER~1\AppData\Local\Temp\cchmqEOm.s:32878  .debug_str:000000000002e92d .LASF4002
C:\Users\SOLDER~1\AppData\Local\Temp\cchmqEOm.s:21950  .debug_str:000000000000248f .LASF4003
C:\Users\SOLDER~1\AppData\Local\Temp\cchmqEOm.s:26938  .debug_str:00000000000168d9 .LASF4004
C:\Users\SOLDER~1\AppData\Local\Temp\cchmqEOm.s:30376  .debug_str:00000000000246d7 .LASF4005
C:\Users\SOLDER~1\AppData\Local\Temp\cchmqEOm.s:31622  .debug_str:00000000000297ba .LASF4006
C:\Users\SOLDER~1\AppData\Local\Temp\cchmqEOm.s:22728  .debug_str:000000000000555d .LASF4007
C:\Users\SOLDER~1\AppData\Local\Temp\cchmqEOm.s:23418  .debug_str:00000000000082c0 .LASF4008
C:\Users\SOLDER~1\AppData\Local\Temp\cchmqEOm.s:21644  .debug_str:00000000000010c2 .LASF4009
C:\Users\SOLDER~1\AppData\Local\Temp\cchmqEOm.s:31478  .debug_str:0000000000028ef3 .LASF4010
C:\Users\SOLDER~1\AppData\Local\Temp\cchmqEOm.s:21610  .debug_str:0000000000000ebd .LASF4011
C:\Users\SOLDER~1\AppData\Local\Temp\cchmqEOm.s:31962  .debug_str:000000000002ae03 .LASF4012
C:\Users\SOLDER~1\AppData\Local\Temp\cchmqEOm.s:31498  .debug_str:000000000002902b .LASF4013
C:\Users\SOLDER~1\AppData\Local\Temp\cchmqEOm.s:27908  .debug_str:000000000001a74b .LASF4014
C:\Users\SOLDER~1\AppData\Local\Temp\cchmqEOm.s:24022  .debug_str:000000000000aa3d .LASF4015
C:\Users\SOLDER~1\AppData\Local\Temp\cchmqEOm.s:21862  .debug_str:0000000000001eac .LASF4016
C:\Users\SOLDER~1\AppData\Local\Temp\cchmqEOm.s:32554  .debug_str:000000000002d462 .LASF4017
C:\Users\SOLDER~1\AppData\Local\Temp\cchmqEOm.s:29794  .debug_str:0000000000022175 .LASF4018
C:\Users\SOLDER~1\AppData\Local\Temp\cchmqEOm.s:21460  .debug_str:00000000000003fe .LASF4019
C:\Users\SOLDER~1\AppData\Local\Temp\cchmqEOm.s:24462  .debug_str:000000000000c755 .LASF4020
C:\Users\SOLDER~1\AppData\Local\Temp\cchmqEOm.s:24296  .debug_str:000000000000bc1f .LASF4021
C:\Users\SOLDER~1\AppData\Local\Temp\cchmqEOm.s:30418  .debug_str:0000000000024986 .LASF4022
C:\Users\SOLDER~1\AppData\Local\Temp\cchmqEOm.s:30780  .debug_str:0000000000026146 .LASF4023
C:\Users\SOLDER~1\AppData\Local\Temp\cchmqEOm.s:31414  .debug_str:0000000000028ac8 .LASF4024
C:\Users\SOLDER~1\AppData\Local\Temp\cchmqEOm.s:22414  .debug_str:0000000000004265 .LASF4025
C:\Users\SOLDER~1\AppData\Local\Temp\cchmqEOm.s:29052  .debug_str:000000000001f1b3 .LASF4026
C:\Users\SOLDER~1\AppData\Local\Temp\cchmqEOm.s:26568  .debug_str:0000000000015108 .LASF4027
C:\Users\SOLDER~1\AppData\Local\Temp\cchmqEOm.s:32944  .debug_str:000000000002ed62 .LASF4028
C:\Users\SOLDER~1\AppData\Local\Temp\cchmqEOm.s:22270  .debug_str:0000000000003916 .LASF4029
C:\Users\SOLDER~1\AppData\Local\Temp\cchmqEOm.s:28256  .debug_str:000000000001bdab .LASF4030
GAS LISTING C:\Users\SOLDER~1\AppData\Local\Temp\cchmqEOm.s 			page 145


C:\Users\SOLDER~1\AppData\Local\Temp\cchmqEOm.s:30946  .debug_str:0000000000026c89 .LASF4031
C:\Users\SOLDER~1\AppData\Local\Temp\cchmqEOm.s:25392  .debug_str:00000000000103dc .LASF4032
C:\Users\SOLDER~1\AppData\Local\Temp\cchmqEOm.s:30160  .debug_str:00000000000238a1 .LASF4033
C:\Users\SOLDER~1\AppData\Local\Temp\cchmqEOm.s:28612  .debug_str:000000000001d532 .LASF4034
C:\Users\SOLDER~1\AppData\Local\Temp\cchmqEOm.s:31818  .debug_str:000000000002a484 .LASF4035
C:\Users\SOLDER~1\AppData\Local\Temp\cchmqEOm.s:23760  .debug_str:0000000000009914 .LASF4036
C:\Users\SOLDER~1\AppData\Local\Temp\cchmqEOm.s:31560  .debug_str:00000000000293e0 .LASF4037
C:\Users\SOLDER~1\AppData\Local\Temp\cchmqEOm.s:27404  .debug_str:00000000000186f7 .LASF4038
C:\Users\SOLDER~1\AppData\Local\Temp\cchmqEOm.s:23506  .debug_str:000000000000885b .LASF4039
C:\Users\SOLDER~1\AppData\Local\Temp\cchmqEOm.s:29572  .debug_str:000000000002134c .LASF4040
C:\Users\SOLDER~1\AppData\Local\Temp\cchmqEOm.s:32684  .debug_str:000000000002dcef .LASF4041
C:\Users\SOLDER~1\AppData\Local\Temp\cchmqEOm.s:31268  .debug_str:0000000000028119 .LASF4042
C:\Users\SOLDER~1\AppData\Local\Temp\cchmqEOm.s:32792  .debug_str:000000000002e3ce .LASF4043
C:\Users\SOLDER~1\AppData\Local\Temp\cchmqEOm.s:29332  .debug_str:00000000000203ed .LASF4044
C:\Users\SOLDER~1\AppData\Local\Temp\cchmqEOm.s:22788  .debug_str:000000000000595e .LASF4045
C:\Users\SOLDER~1\AppData\Local\Temp\cchmqEOm.s:28770  .debug_str:000000000001df31 .LASF4046
C:\Users\SOLDER~1\AppData\Local\Temp\cchmqEOm.s:22780  .debug_str:00000000000058d1 .LASF4047
C:\Users\SOLDER~1\AppData\Local\Temp\cchmqEOm.s:30628  .debug_str:0000000000025788 .LASF4048
C:\Users\SOLDER~1\AppData\Local\Temp\cchmqEOm.s:25666  .debug_str:0000000000011556 .LASF4049
C:\Users\SOLDER~1\AppData\Local\Temp\cchmqEOm.s:26234  .debug_str:0000000000013a02 .LASF4050
C:\Users\SOLDER~1\AppData\Local\Temp\cchmqEOm.s:22082  .debug_str:0000000000002cf2 .LASF4051
C:\Users\SOLDER~1\AppData\Local\Temp\cchmqEOm.s:26346  .debug_str:0000000000014224 .LASF4052
C:\Users\SOLDER~1\AppData\Local\Temp\cchmqEOm.s:25452  .debug_str:00000000000107c0 .LASF4053
C:\Users\SOLDER~1\AppData\Local\Temp\cchmqEOm.s:25640  .debug_str:00000000000113c1 .LASF4054
C:\Users\SOLDER~1\AppData\Local\Temp\cchmqEOm.s:30026  .debug_str:0000000000023009 .LASF4055
C:\Users\SOLDER~1\AppData\Local\Temp\cchmqEOm.s:25560  .debug_str:0000000000010e9a .LASF4056
C:\Users\SOLDER~1\AppData\Local\Temp\cchmqEOm.s:22172  .debug_str:00000000000032d9 .LASF4057
C:\Users\SOLDER~1\AppData\Local\Temp\cchmqEOm.s:24784  .debug_str:000000000000dc37 .LASF4058
C:\Users\SOLDER~1\AppData\Local\Temp\cchmqEOm.s:26010  .debug_str:0000000000012b27 .LASF4059
C:\Users\SOLDER~1\AppData\Local\Temp\cchmqEOm.s:23664  .debug_str:00000000000092ee .LASF4060
C:\Users\SOLDER~1\AppData\Local\Temp\cchmqEOm.s:22874  .debug_str:0000000000005f07 .LASF4061
C:\Users\SOLDER~1\AppData\Local\Temp\cchmqEOm.s:22106  .debug_str:0000000000002e8c .LASF4062
C:\Users\SOLDER~1\AppData\Local\Temp\cchmqEOm.s:27184  .debug_str:0000000000017877 .LASF4063
C:\Users\SOLDER~1\AppData\Local\Temp\cchmqEOm.s:29442  .debug_str:0000000000020ae1 .LASF4064
C:\Users\SOLDER~1\AppData\Local\Temp\cchmqEOm.s:29834  .debug_str:00000000000223ee .LASF4065
C:\Users\SOLDER~1\AppData\Local\Temp\cchmqEOm.s:29102  .debug_str:000000000001f4cd .LASF4066
C:\Users\SOLDER~1\AppData\Local\Temp\cchmqEOm.s:25964  .debug_str:000000000001287c .LASF4067
C:\Users\SOLDER~1\AppData\Local\Temp\cchmqEOm.s:30170  .debug_str:0000000000023950 .LASF4068
C:\Users\SOLDER~1\AppData\Local\Temp\cchmqEOm.s:22924  .debug_str:0000000000006275 .LASF4069
C:\Users\SOLDER~1\AppData\Local\Temp\cchmqEOm.s:30310  .debug_str:0000000000024283 .LASF4070
C:\Users\SOLDER~1\AppData\Local\Temp\cchmqEOm.s:27478  .debug_str:0000000000018bae .LASF4071
C:\Users\SOLDER~1\AppData\Local\Temp\cchmqEOm.s:29812  .debug_str:000000000002228f .LASF4072
C:\Users\SOLDER~1\AppData\Local\Temp\cchmqEOm.s:21910  .debug_str:00000000000021d7 .LASF4073
C:\Users\SOLDER~1\AppData\Local\Temp\cchmqEOm.s:30932  .debug_str:0000000000026ba7 .LASF4074
C:\Users\SOLDER~1\AppData\Local\Temp\cchmqEOm.s:29916  .debug_str:00000000000228da .LASF4075
C:\Users\SOLDER~1\AppData\Local\Temp\cchmqEOm.s:26086  .debug_str:0000000000013033 .LASF4076
C:\Users\SOLDER~1\AppData\Local\Temp\cchmqEOm.s:30734  .debug_str:0000000000025e25 .LASF4077
C:\Users\SOLDER~1\AppData\Local\Temp\cchmqEOm.s:22316  .debug_str:0000000000003c20 .LASF4078
C:\Users\SOLDER~1\AppData\Local\Temp\cchmqEOm.s:25272  .debug_str:000000000000fbfa .LASF4079
C:\Users\SOLDER~1\AppData\Local\Temp\cchmqEOm.s:24182  .debug_str:000000000000b499 .LASF4080
C:\Users\SOLDER~1\AppData\Local\Temp\cchmqEOm.s:22582  .debug_str:0000000000004cd9 .LASF4081
C:\Users\SOLDER~1\AppData\Local\Temp\cchmqEOm.s:31274  .debug_str:0000000000028185 .LASF4082
C:\Users\SOLDER~1\AppData\Local\Temp\cchmqEOm.s:23764  .debug_str:000000000000994b .LASF4083
C:\Users\SOLDER~1\AppData\Local\Temp\cchmqEOm.s:32274  .debug_str:000000000002c233 .LASF4084
C:\Users\SOLDER~1\AppData\Local\Temp\cchmqEOm.s:30168  .debug_str:0000000000023933 .LASF4085
C:\Users\SOLDER~1\AppData\Local\Temp\cchmqEOm.s:31450  .debug_str:0000000000028d09 .LASF4086
C:\Users\SOLDER~1\AppData\Local\Temp\cchmqEOm.s:28422  .debug_str:000000000001c88e .LASF4087
GAS LISTING C:\Users\SOLDER~1\AppData\Local\Temp\cchmqEOm.s 			page 146


C:\Users\SOLDER~1\AppData\Local\Temp\cchmqEOm.s:26506  .debug_str:0000000000014cdc .LASF4088
C:\Users\SOLDER~1\AppData\Local\Temp\cchmqEOm.s:22398  .debug_str:0000000000004140 .LASF4089
C:\Users\SOLDER~1\AppData\Local\Temp\cchmqEOm.s:28206  .debug_str:000000000001ba9d .LASF4090
C:\Users\SOLDER~1\AppData\Local\Temp\cchmqEOm.s:32182  .debug_str:000000000002bc3f .LASF4091
C:\Users\SOLDER~1\AppData\Local\Temp\cchmqEOm.s:33050  .debug_str:000000000002f3f0 .LASF4092
C:\Users\SOLDER~1\AppData\Local\Temp\cchmqEOm.s:23194  .debug_str:0000000000007432 .LASF4093
C:\Users\SOLDER~1\AppData\Local\Temp\cchmqEOm.s:32496  .debug_str:000000000002d0c2 .LASF4094
C:\Users\SOLDER~1\AppData\Local\Temp\cchmqEOm.s:32754  .debug_str:000000000002e14d .LASF4095
C:\Users\SOLDER~1\AppData\Local\Temp\cchmqEOm.s:27390  .debug_str:000000000001861e .LASF4096
C:\Users\SOLDER~1\AppData\Local\Temp\cchmqEOm.s:21730  .debug_str:0000000000001654 .LASF4097
C:\Users\SOLDER~1\AppData\Local\Temp\cchmqEOm.s:22536  .debug_str:00000000000049e9 .LASF4098
C:\Users\SOLDER~1\AppData\Local\Temp\cchmqEOm.s:22366  .debug_str:0000000000003f5d .LASF4099
C:\Users\SOLDER~1\AppData\Local\Temp\cchmqEOm.s:28210  .debug_str:000000000001bad7 .LASF4100
C:\Users\SOLDER~1\AppData\Local\Temp\cchmqEOm.s:32038  .debug_str:000000000002b2db .LASF4101
C:\Users\SOLDER~1\AppData\Local\Temp\cchmqEOm.s:26544  .debug_str:0000000000014f72 .LASF4102
C:\Users\SOLDER~1\AppData\Local\Temp\cchmqEOm.s:22532  .debug_str:00000000000049b6 .LASF4103
C:\Users\SOLDER~1\AppData\Local\Temp\cchmqEOm.s:24776  .debug_str:000000000000dbd8 .LASF4104
C:\Users\SOLDER~1\AppData\Local\Temp\cchmqEOm.s:23964  .debug_str:000000000000a656 .LASF4105
C:\Users\SOLDER~1\AppData\Local\Temp\cchmqEOm.s:23882  .debug_str:000000000000a0ef .LASF4106
C:\Users\SOLDER~1\AppData\Local\Temp\cchmqEOm.s:27064  .debug_str:000000000001705c .LASF4107
C:\Users\SOLDER~1\AppData\Local\Temp\cchmqEOm.s:27544  .debug_str:000000000001902d .LASF4108
C:\Users\SOLDER~1\AppData\Local\Temp\cchmqEOm.s:32936  .debug_str:000000000002ece4 .LASF4109
C:\Users\SOLDER~1\AppData\Local\Temp\cchmqEOm.s:22374  .debug_str:0000000000003fce .LASF4110
C:\Users\SOLDER~1\AppData\Local\Temp\cchmqEOm.s:29972  .debug_str:0000000000022c8b .LASF4111
C:\Users\SOLDER~1\AppData\Local\Temp\cchmqEOm.s:25470  .debug_str:00000000000108d6 .LASF4112
C:\Users\SOLDER~1\AppData\Local\Temp\cchmqEOm.s:27486  .debug_str:0000000000018c27 .LASF4113
C:\Users\SOLDER~1\AppData\Local\Temp\cchmqEOm.s:29716  .debug_str:0000000000021ca3 .LASF4114
C:\Users\SOLDER~1\AppData\Local\Temp\cchmqEOm.s:27736  .debug_str:0000000000019cc0 .LASF4115
C:\Users\SOLDER~1\AppData\Local\Temp\cchmqEOm.s:24942  .debug_str:000000000000e6eb .LASF4116
C:\Users\SOLDER~1\AppData\Local\Temp\cchmqEOm.s:32706  .debug_str:000000000002de68 .LASF4117
C:\Users\SOLDER~1\AppData\Local\Temp\cchmqEOm.s:23820  .debug_str:0000000000009cc0 .LASF4118
C:\Users\SOLDER~1\AppData\Local\Temp\cchmqEOm.s:23118  .debug_str:0000000000006f2c .LASF4119
C:\Users\SOLDER~1\AppData\Local\Temp\cchmqEOm.s:31192  .debug_str:0000000000027ca4 .LASF4120
C:\Users\SOLDER~1\AppData\Local\Temp\cchmqEOm.s:25608  .debug_str:00000000000111ab .LASF4121
C:\Users\SOLDER~1\AppData\Local\Temp\cchmqEOm.s:22710  .debug_str:0000000000005453 .LASF4122
C:\Users\SOLDER~1\AppData\Local\Temp\cchmqEOm.s:23050  .debug_str:0000000000006ac6 .LASF4123
C:\Users\SOLDER~1\AppData\Local\Temp\cchmqEOm.s:26792  .debug_str:0000000000015f46 .LASF4124
C:\Users\SOLDER~1\AppData\Local\Temp\cchmqEOm.s:24198  .debug_str:000000000000b5b4 .LASF4125
C:\Users\SOLDER~1\AppData\Local\Temp\cchmqEOm.s:21840  .debug_str:0000000000001d48 .LASF4126
C:\Users\SOLDER~1\AppData\Local\Temp\cchmqEOm.s:26586  .debug_str:0000000000015221 .LASF4127
C:\Users\SOLDER~1\AppData\Local\Temp\cchmqEOm.s:24344  .debug_str:000000000000bf44 .LASF4128
C:\Users\SOLDER~1\AppData\Local\Temp\cchmqEOm.s:23184  .debug_str:0000000000007397 .LASF4129
C:\Users\SOLDER~1\AppData\Local\Temp\cchmqEOm.s:22010  .debug_str:0000000000002861 .LASF4130
C:\Users\SOLDER~1\AppData\Local\Temp\cchmqEOm.s:23996  .debug_str:000000000000a8aa .LASF4131
C:\Users\SOLDER~1\AppData\Local\Temp\cchmqEOm.s:28808  .debug_str:000000000001e1ac .LASF4132
C:\Users\SOLDER~1\AppData\Local\Temp\cchmqEOm.s:24630  .debug_str:000000000000d263 .LASF4133
C:\Users\SOLDER~1\AppData\Local\Temp\cchmqEOm.s:22750  .debug_str:00000000000056a1 .LASF4134
C:\Users\SOLDER~1\AppData\Local\Temp\cchmqEOm.s:25402  .debug_str:0000000000010476 .LASF4135
C:\Users\SOLDER~1\AppData\Local\Temp\cchmqEOm.s:31164  .debug_str:0000000000027ad7 .LASF4136
C:\Users\SOLDER~1\AppData\Local\Temp\cchmqEOm.s:30200  .debug_str:0000000000023b95 .LASF4137
C:\Users\SOLDER~1\AppData\Local\Temp\cchmqEOm.s:32990  .debug_str:000000000002f04e .LASF4138
C:\Users\SOLDER~1\AppData\Local\Temp\cchmqEOm.s:26468  .debug_str:0000000000014a31 .LASF4139
C:\Users\SOLDER~1\AppData\Local\Temp\cchmqEOm.s:23252  .debug_str:00000000000077e4 .LASF4140
C:\Users\SOLDER~1\AppData\Local\Temp\cchmqEOm.s:30264  .debug_str:0000000000023fb2 .LASF4141
C:\Users\SOLDER~1\AppData\Local\Temp\cchmqEOm.s:23414  .debug_str:000000000000828f .LASF4142
C:\Users\SOLDER~1\AppData\Local\Temp\cchmqEOm.s:21770  .debug_str:00000000000018b6 .LASF4143
C:\Users\SOLDER~1\AppData\Local\Temp\cchmqEOm.s:30414  .debug_str:000000000002495a .LASF4144
GAS LISTING C:\Users\SOLDER~1\AppData\Local\Temp\cchmqEOm.s 			page 147


C:\Users\SOLDER~1\AppData\Local\Temp\cchmqEOm.s:26624  .debug_str:0000000000015478 .LASF4145
C:\Users\SOLDER~1\AppData\Local\Temp\cchmqEOm.s:24928  .debug_str:000000000000e601 .LASF4146
C:\Users\SOLDER~1\AppData\Local\Temp\cchmqEOm.s:24026  .debug_str:000000000000aa87 .LASF4147
C:\Users\SOLDER~1\AppData\Local\Temp\cchmqEOm.s:30202  .debug_str:0000000000023ba8 .LASF4148
C:\Users\SOLDER~1\AppData\Local\Temp\cchmqEOm.s:22110  .debug_str:0000000000002ec7 .LASF4149
C:\Users\SOLDER~1\AppData\Local\Temp\cchmqEOm.s:29456  .debug_str:0000000000020bd7 .LASF4150
C:\Users\SOLDER~1\AppData\Local\Temp\cchmqEOm.s:32266  .debug_str:000000000002c1a1 .LASF4151
C:\Users\SOLDER~1\AppData\Local\Temp\cchmqEOm.s:29690  .debug_str:0000000000021ae0 .LASF4152
C:\Users\SOLDER~1\AppData\Local\Temp\cchmqEOm.s:28356  .debug_str:000000000001c421 .LASF4153
C:\Users\SOLDER~1\AppData\Local\Temp\cchmqEOm.s:22550  .debug_str:0000000000004ab0 .LASF4154
C:\Users\SOLDER~1\AppData\Local\Temp\cchmqEOm.s:21968  .debug_str:00000000000025c0 .LASF4155
C:\Users\SOLDER~1\AppData\Local\Temp\cchmqEOm.s:24080  .debug_str:000000000000adf0 .LASF4156
C:\Users\SOLDER~1\AppData\Local\Temp\cchmqEOm.s:27470  .debug_str:0000000000018b2f .LASF4157
C:\Users\SOLDER~1\AppData\Local\Temp\cchmqEOm.s:31916  .debug_str:000000000002ab18 .LASF4158
C:\Users\SOLDER~1\AppData\Local\Temp\cchmqEOm.s:29918  .debug_str:00000000000228f5 .LASF4159
C:\Users\SOLDER~1\AppData\Local\Temp\cchmqEOm.s:27766  .debug_str:0000000000019e6e .LASF4160
C:\Users\SOLDER~1\AppData\Local\Temp\cchmqEOm.s:22006  .debug_str:000000000000281d .LASF4161
C:\Users\SOLDER~1\AppData\Local\Temp\cchmqEOm.s:25926  .debug_str:00000000000125fb .LASF4162
C:\Users\SOLDER~1\AppData\Local\Temp\cchmqEOm.s:29438  .debug_str:0000000000020aa1 .LASF4163
C:\Users\SOLDER~1\AppData\Local\Temp\cchmqEOm.s:26954  .debug_str:00000000000169c1 .LASF4164
C:\Users\SOLDER~1\AppData\Local\Temp\cchmqEOm.s:24028  .debug_str:000000000000aaa7 .LASF4165
C:\Users\SOLDER~1\AppData\Local\Temp\cchmqEOm.s:30240  .debug_str:0000000000023e36 .LASF4166
C:\Users\SOLDER~1\AppData\Local\Temp\cchmqEOm.s:23908  .debug_str:000000000000a2b4 .LASF4167
C:\Users\SOLDER~1\AppData\Local\Temp\cchmqEOm.s:31326  .debug_str:000000000002850c .LASF4168
C:\Users\SOLDER~1\AppData\Local\Temp\cchmqEOm.s:29088  .debug_str:000000000001f3ef .LASF4169
C:\Users\SOLDER~1\AppData\Local\Temp\cchmqEOm.s:32232  .debug_str:000000000002bf8a .LASF4170
C:\Users\SOLDER~1\AppData\Local\Temp\cchmqEOm.s:28302  .debug_str:000000000001c090 .LASF4171
C:\Users\SOLDER~1\AppData\Local\Temp\cchmqEOm.s:31540  .debug_str:000000000002929a .LASF4172
C:\Users\SOLDER~1\AppData\Local\Temp\cchmqEOm.s:32636  .debug_str:000000000002da04 .LASF4173
C:\Users\SOLDER~1\AppData\Local\Temp\cchmqEOm.s:22628  .debug_str:0000000000004f81 .LASF4174
C:\Users\SOLDER~1\AppData\Local\Temp\cchmqEOm.s:32882  .debug_str:000000000002e958 .LASF4175
C:\Users\SOLDER~1\AppData\Local\Temp\cchmqEOm.s:29224  .debug_str:000000000001fd1b .LASF4176
C:\Users\SOLDER~1\AppData\Local\Temp\cchmqEOm.s:31204  .debug_str:0000000000027d6c .LASF4177
C:\Users\SOLDER~1\AppData\Local\Temp\cchmqEOm.s:30708  .debug_str:0000000000025c88 .LASF4178
C:\Users\SOLDER~1\AppData\Local\Temp\cchmqEOm.s:25182  .debug_str:000000000000f5da .LASF4179
C:\Users\SOLDER~1\AppData\Local\Temp\cchmqEOm.s:27832  .debug_str:000000000001a2af .LASF4180
C:\Users\SOLDER~1\AppData\Local\Temp\cchmqEOm.s:22868  .debug_str:0000000000005e9f .LASF4181
C:\Users\SOLDER~1\AppData\Local\Temp\cchmqEOm.s:22474  .debug_str:0000000000004602 .LASF4182
C:\Users\SOLDER~1\AppData\Local\Temp\cchmqEOm.s:23150  .debug_str:000000000000716c .LASF4183
C:\Users\SOLDER~1\AppData\Local\Temp\cchmqEOm.s:30600  .debug_str:00000000000255c4 .LASF4184
C:\Users\SOLDER~1\AppData\Local\Temp\cchmqEOm.s:26354  .debug_str:0000000000014291 .LASF4185
C:\Users\SOLDER~1\AppData\Local\Temp\cchmqEOm.s:32776  .debug_str:000000000002e2b2 .LASF4186
C:\Users\SOLDER~1\AppData\Local\Temp\cchmqEOm.s:29810  .debug_str:0000000000022273 .LASF4187
C:\Users\SOLDER~1\AppData\Local\Temp\cchmqEOm.s:23364  .debug_str:0000000000007f18 .LASF4188
C:\Users\SOLDER~1\AppData\Local\Temp\cchmqEOm.s:29008  .debug_str:000000000001eec6 .LASF4189
C:\Users\SOLDER~1\AppData\Local\Temp\cchmqEOm.s:23258  .debug_str:0000000000007836 .LASF4190
C:\Users\SOLDER~1\AppData\Local\Temp\cchmqEOm.s:23046  .debug_str:0000000000006a97 .LASF4191
C:\Users\SOLDER~1\AppData\Local\Temp\cchmqEOm.s:31586  .debug_str:0000000000029563 .LASF4192
C:\Users\SOLDER~1\AppData\Local\Temp\cchmqEOm.s:21892  .debug_str:0000000000002095 .LASF4193
C:\Users\SOLDER~1\AppData\Local\Temp\cchmqEOm.s:30672  .debug_str:0000000000025a49 .LASF4194
C:\Users\SOLDER~1\AppData\Local\Temp\cchmqEOm.s:24524  .debug_str:000000000000cb3e .LASF4195
C:\Users\SOLDER~1\AppData\Local\Temp\cchmqEOm.s:28276  .debug_str:000000000001becd .LASF4196
C:\Users\SOLDER~1\AppData\Local\Temp\cchmqEOm.s:21530  .debug_str:0000000000000942 .LASF4197
C:\Users\SOLDER~1\AppData\Local\Temp\cchmqEOm.s:26338  .debug_str:000000000001418d .LASF4198
C:\Users\SOLDER~1\AppData\Local\Temp\cchmqEOm.s:26320  .debug_str:0000000000014053 .LASF4199
C:\Users\SOLDER~1\AppData\Local\Temp\cchmqEOm.s:24044  .debug_str:000000000000abd5 .LASF4200
C:\Users\SOLDER~1\AppData\Local\Temp\cchmqEOm.s:28836  .debug_str:000000000001e399 .LASF4201
GAS LISTING C:\Users\SOLDER~1\AppData\Local\Temp\cchmqEOm.s 			page 148


C:\Users\SOLDER~1\AppData\Local\Temp\cchmqEOm.s:24138  .debug_str:000000000000b1e0 .LASF4202
C:\Users\SOLDER~1\AppData\Local\Temp\cchmqEOm.s:25504  .debug_str:0000000000010b18 .LASF4203
C:\Users\SOLDER~1\AppData\Local\Temp\cchmqEOm.s:24048  .debug_str:000000000000ac17 .LASF4204
C:\Users\SOLDER~1\AppData\Local\Temp\cchmqEOm.s:26300  .debug_str:0000000000013ef2 .LASF4205
C:\Users\SOLDER~1\AppData\Local\Temp\cchmqEOm.s:27642  .debug_str:0000000000019682 .LASF4206
C:\Users\SOLDER~1\AppData\Local\Temp\cchmqEOm.s:22936  .debug_str:0000000000006336 .LASF4207
C:\Users\SOLDER~1\AppData\Local\Temp\cchmqEOm.s:26180  .debug_str:0000000000013650 .LASF4208
C:\Users\SOLDER~1\AppData\Local\Temp\cchmqEOm.s:23500  .debug_str:00000000000087db .LASF4209
C:\Users\SOLDER~1\AppData\Local\Temp\cchmqEOm.s:32448  .debug_str:000000000002cddc .LASF4210
C:\Users\SOLDER~1\AppData\Local\Temp\cchmqEOm.s:31692  .debug_str:0000000000029c80 .LASF4211
C:\Users\SOLDER~1\AppData\Local\Temp\cchmqEOm.s:21794  .debug_str:0000000000001a26 .LASF4212
C:\Users\SOLDER~1\AppData\Local\Temp\cchmqEOm.s:29642  .debug_str:0000000000021809 .LASF4213
C:\Users\SOLDER~1\AppData\Local\Temp\cchmqEOm.s:31240  .debug_str:0000000000027f83 .LASF4214
C:\Users\SOLDER~1\AppData\Local\Temp\cchmqEOm.s:23466  .debug_str:00000000000085c6 .LASF4215
C:\Users\SOLDER~1\AppData\Local\Temp\cchmqEOm.s:26730  .debug_str:0000000000015b66 .LASF4216
C:\Users\SOLDER~1\AppData\Local\Temp\cchmqEOm.s:27168  .debug_str:0000000000017742 .LASF4217
C:\Users\SOLDER~1\AppData\Local\Temp\cchmqEOm.s:21448  .debug_str:000000000000032b .LASF4218
C:\Users\SOLDER~1\AppData\Local\Temp\cchmqEOm.s:26458  .debug_str:00000000000149a2 .LASF4219
C:\Users\SOLDER~1\AppData\Local\Temp\cchmqEOm.s:31466  .debug_str:0000000000028e12 .LASF4220
C:\Users\SOLDER~1\AppData\Local\Temp\cchmqEOm.s:32544  .debug_str:000000000002d3c4 .LASF4221
C:\Users\SOLDER~1\AppData\Local\Temp\cchmqEOm.s:31792  .debug_str:000000000002a2d8 .LASF4222
C:\Users\SOLDER~1\AppData\Local\Temp\cchmqEOm.s:29256  .debug_str:000000000001ff4a .LASF4223
C:\Users\SOLDER~1\AppData\Local\Temp\cchmqEOm.s:31714  .debug_str:0000000000029dc2 .LASF4224
C:\Users\SOLDER~1\AppData\Local\Temp\cchmqEOm.s:27498  .debug_str:0000000000018cfb .LASF4225
C:\Users\SOLDER~1\AppData\Local\Temp\cchmqEOm.s:25496  .debug_str:0000000000010a81 .LASF4226
C:\Users\SOLDER~1\AppData\Local\Temp\cchmqEOm.s:24154  .debug_str:000000000000b2b3 .LASF4227
C:\Users\SOLDER~1\AppData\Local\Temp\cchmqEOm.s:24232  .debug_str:000000000000b805 .LASF4228
C:\Users\SOLDER~1\AppData\Local\Temp\cchmqEOm.s:26596  .debug_str:00000000000152aa .LASF4229
C:\Users\SOLDER~1\AppData\Local\Temp\cchmqEOm.s:24100  .debug_str:000000000000af69 .LASF4230
C:\Users\SOLDER~1\AppData\Local\Temp\cchmqEOm.s:23428  .debug_str:0000000000008359 .LASF4231
C:\Users\SOLDER~1\AppData\Local\Temp\cchmqEOm.s:27994  .debug_str:000000000001acf6 .LASF4232
C:\Users\SOLDER~1\AppData\Local\Temp\cchmqEOm.s:25542  .debug_str:0000000000010d88 .LASF4233
C:\Users\SOLDER~1\AppData\Local\Temp\cchmqEOm.s:32098  .debug_str:000000000002b6ea .LASF4234
C:\Users\SOLDER~1\AppData\Local\Temp\cchmqEOm.s:23442  .debug_str:000000000000844c .LASF4235
C:\Users\SOLDER~1\AppData\Local\Temp\cchmqEOm.s:26098  .debug_str:00000000000130de .LASF4236
C:\Users\SOLDER~1\AppData\Local\Temp\cchmqEOm.s:23004  .debug_str:00000000000067cc .LASF4237
C:\Users\SOLDER~1\AppData\Local\Temp\cchmqEOm.s:21496  .debug_str:000000000000065c .LASF4238
C:\Users\SOLDER~1\AppData\Local\Temp\cchmqEOm.s:22164  .debug_str:0000000000003266 .LASF4239
C:\Users\SOLDER~1\AppData\Local\Temp\cchmqEOm.s:30404  .debug_str:00000000000248b3 .LASF4240
C:\Users\SOLDER~1\AppData\Local\Temp\cchmqEOm.s:22136  .debug_str:0000000000003091 .LASF4241
C:\Users\SOLDER~1\AppData\Local\Temp\cchmqEOm.s:29320  .debug_str:0000000000020334 .LASF4242
C:\Users\SOLDER~1\AppData\Local\Temp\cchmqEOm.s:25080  .debug_str:000000000000ef7c .LASF4243
C:\Users\SOLDER~1\AppData\Local\Temp\cchmqEOm.s:23208  .debug_str:0000000000007511 .LASF4244
C:\Users\SOLDER~1\AppData\Local\Temp\cchmqEOm.s:29590  .debug_str:000000000002149a .LASF4245
C:\Users\SOLDER~1\AppData\Local\Temp\cchmqEOm.s:22072  .debug_str:0000000000002c38 .LASF4246
C:\Users\SOLDER~1\AppData\Local\Temp\cchmqEOm.s:29158  .debug_str:000000000001f887 .LASF4247
C:\Users\SOLDER~1\AppData\Local\Temp\cchmqEOm.s:25558  .debug_str:0000000000010e7e .LASF4248
C:\Users\SOLDER~1\AppData\Local\Temp\cchmqEOm.s:21932  .debug_str:000000000000234a .LASF4249
C:\Users\SOLDER~1\AppData\Local\Temp\cchmqEOm.s:26700  .debug_str:000000000001596b .LASF4250
C:\Users\SOLDER~1\AppData\Local\Temp\cchmqEOm.s:29524  .debug_str:0000000000021018 .LASF4251
C:\Users\SOLDER~1\AppData\Local\Temp\cchmqEOm.s:32016  .debug_str:000000000002b16a .LASF4252
C:\Users\SOLDER~1\AppData\Local\Temp\cchmqEOm.s:27266  .debug_str:0000000000017dc5 .LASF4253
C:\Users\SOLDER~1\AppData\Local\Temp\cchmqEOm.s:26780  .debug_str:0000000000015e91 .LASF4254
C:\Users\SOLDER~1\AppData\Local\Temp\cchmqEOm.s:25026  .debug_str:000000000000ec4c .LASF4255
C:\Users\SOLDER~1\AppData\Local\Temp\cchmqEOm.s:31718  .debug_str:0000000000029dfe .LASF4256
C:\Users\SOLDER~1\AppData\Local\Temp\cchmqEOm.s:22392  .debug_str:00000000000040e7 .LASF4257
C:\Users\SOLDER~1\AppData\Local\Temp\cchmqEOm.s:29584  .debug_str:000000000002141a .LASF4258
GAS LISTING C:\Users\SOLDER~1\AppData\Local\Temp\cchmqEOm.s 			page 149


C:\Users\SOLDER~1\AppData\Local\Temp\cchmqEOm.s:22902  .debug_str:00000000000060d2 .LASF4259
C:\Users\SOLDER~1\AppData\Local\Temp\cchmqEOm.s:25782  .debug_str:0000000000011cdc .LASF4260
C:\Users\SOLDER~1\AppData\Local\Temp\cchmqEOm.s:27640  .debug_str:0000000000019664 .LASF4261
C:\Users\SOLDER~1\AppData\Local\Temp\cchmqEOm.s:30492  .debug_str:0000000000024e94 .LASF4262
C:\Users\SOLDER~1\AppData\Local\Temp\cchmqEOm.s:29752  .debug_str:0000000000021eda .LASF4263
C:\Users\SOLDER~1\AppData\Local\Temp\cchmqEOm.s:32850  .debug_str:000000000002e766 .LASF4264
C:\Users\SOLDER~1\AppData\Local\Temp\cchmqEOm.s:31238  .debug_str:0000000000027f68 .LASF4265
C:\Users\SOLDER~1\AppData\Local\Temp\cchmqEOm.s:32054  .debug_str:000000000002b3d7 .LASF4266
C:\Users\SOLDER~1\AppData\Local\Temp\cchmqEOm.s:31534  .debug_str:0000000000029249 .LASF4267
C:\Users\SOLDER~1\AppData\Local\Temp\cchmqEOm.s:28732  .debug_str:000000000001dd1d .LASF4268
C:\Users\SOLDER~1\AppData\Local\Temp\cchmqEOm.s:21638  .debug_str:0000000000001062 .LASF4269
C:\Users\SOLDER~1\AppData\Local\Temp\cchmqEOm.s:29664  .debug_str:000000000002197e .LASF4270
C:\Users\SOLDER~1\AppData\Local\Temp\cchmqEOm.s:23416  .debug_str:00000000000082a3 .LASF4271
C:\Users\SOLDER~1\AppData\Local\Temp\cchmqEOm.s:27450  .debug_str:00000000000189d2 .LASF4272
C:\Users\SOLDER~1\AppData\Local\Temp\cchmqEOm.s:31118  .debug_str:00000000000277d8 .LASF4273
C:\Users\SOLDER~1\AppData\Local\Temp\cchmqEOm.s:21504  .debug_str:000000000000076a .LASF4274
C:\Users\SOLDER~1\AppData\Local\Temp\cchmqEOm.s:30716  .debug_str:0000000000025cee .LASF4275
C:\Users\SOLDER~1\AppData\Local\Temp\cchmqEOm.s:22440  .debug_str:00000000000043f0 .LASF4276
C:\Users\SOLDER~1\AppData\Local\Temp\cchmqEOm.s:24744  .debug_str:000000000000d9db .LASF4277
C:\Users\SOLDER~1\AppData\Local\Temp\cchmqEOm.s:23462  .debug_str:0000000000008585 .LASF4278
C:\Users\SOLDER~1\AppData\Local\Temp\cchmqEOm.s:29796  .debug_str:0000000000022186 .LASF4279
C:\Users\SOLDER~1\AppData\Local\Temp\cchmqEOm.s:25600  .debug_str:0000000000011127 .LASF4280
C:\Users\SOLDER~1\AppData\Local\Temp\cchmqEOm.s:21458  .debug_str:00000000000003dd .LASF4281
C:\Users\SOLDER~1\AppData\Local\Temp\cchmqEOm.s:23740  .debug_str:00000000000097c0 .LASF4282
C:\Users\SOLDER~1\AppData\Local\Temp\cchmqEOm.s:26460  .debug_str:00000000000149b5 .LASF4283
C:\Users\SOLDER~1\AppData\Local\Temp\cchmqEOm.s:23204  .debug_str:00000000000074e1 .LASF4284
C:\Users\SOLDER~1\AppData\Local\Temp\cchmqEOm.s:30690  .debug_str:0000000000025b41 .LASF4285
C:\Users\SOLDER~1\AppData\Local\Temp\cchmqEOm.s:27460  .debug_str:0000000000018a9c .LASF4286
C:\Users\SOLDER~1\AppData\Local\Temp\cchmqEOm.s:26368  .debug_str:000000000001437e .LASF4287
C:\Users\SOLDER~1\AppData\Local\Temp\cchmqEOm.s:29854  .debug_str:000000000002252b .LASF4288
C:\Users\SOLDER~1\AppData\Local\Temp\cchmqEOm.s:28924  .debug_str:000000000001e93b .LASF4289
C:\Users\SOLDER~1\AppData\Local\Temp\cchmqEOm.s:25604  .debug_str:000000000001116e .LASF4290
C:\Users\SOLDER~1\AppData\Local\Temp\cchmqEOm.s:26664  .debug_str:000000000001571e .LASF4291
C:\Users\SOLDER~1\AppData\Local\Temp\cchmqEOm.s:21694  .debug_str:00000000000013fd .LASF4292
C:\Users\SOLDER~1\AppData\Local\Temp\cchmqEOm.s:27774  .debug_str:0000000000019edf .LASF4293
C:\Users\SOLDER~1\AppData\Local\Temp\cchmqEOm.s:28372  .debug_str:000000000001c529 .LASF4294
C:\Users\SOLDER~1\AppData\Local\Temp\cchmqEOm.s:29574  .debug_str:000000000002135e .LASF4295
C:\Users\SOLDER~1\AppData\Local\Temp\cchmqEOm.s:31102  .debug_str:00000000000276c7 .LASF4296
C:\Users\SOLDER~1\AppData\Local\Temp\cchmqEOm.s:25048  .debug_str:000000000000ed69 .LASF4297
C:\Users\SOLDER~1\AppData\Local\Temp\cchmqEOm.s:26196  .debug_str:0000000000013769 .LASF4298
C:\Users\SOLDER~1\AppData\Local\Temp\cchmqEOm.s:22718  .debug_str:00000000000054cd .LASF4299
C:\Users\SOLDER~1\AppData\Local\Temp\cchmqEOm.s:24824  .debug_str:000000000000dec9 .LASF4300
C:\Users\SOLDER~1\AppData\Local\Temp\cchmqEOm.s:23548  .debug_str:0000000000008b14 .LASF4301
C:\Users\SOLDER~1\AppData\Local\Temp\cchmqEOm.s:27372  .debug_str:00000000000184e3 .LASF4302
C:\Users\SOLDER~1\AppData\Local\Temp\cchmqEOm.s:32782  .debug_str:000000000002e307 .LASF4303
C:\Users\SOLDER~1\AppData\Local\Temp\cchmqEOm.s:21912  .debug_str:00000000000021f2 .LASF4304
C:\Users\SOLDER~1\AppData\Local\Temp\cchmqEOm.s:26776  .debug_str:0000000000015e41 .LASF4305
C:\Users\SOLDER~1\AppData\Local\Temp\cchmqEOm.s:30902  .debug_str:00000000000269ba .LASF4306
C:\Users\SOLDER~1\AppData\Local\Temp\cchmqEOm.s:30608  .debug_str:0000000000025634 .LASF4307
C:\Users\SOLDER~1\AppData\Local\Temp\cchmqEOm.s:29096  .debug_str:000000000001f469 .LASF4308
C:\Users\SOLDER~1\AppData\Local\Temp\cchmqEOm.s:32900  .debug_str:000000000002ea7b .LASF4309
C:\Users\SOLDER~1\AppData\Local\Temp\cchmqEOm.s:24340  .debug_str:000000000000bf10 .LASF4310
C:\Users\SOLDER~1\AppData\Local\Temp\cchmqEOm.s:25358  .debug_str:00000000000101c8 .LASF4311
C:\Users\SOLDER~1\AppData\Local\Temp\cchmqEOm.s:22764  .debug_str:000000000000578e .LASF4312
C:\Users\SOLDER~1\AppData\Local\Temp\cchmqEOm.s:28262  .debug_str:000000000001bdf2 .LASF4313
C:\Users\SOLDER~1\AppData\Local\Temp\cchmqEOm.s:21764  .debug_str:0000000000001857 .LASF4314
C:\Users\SOLDER~1\AppData\Local\Temp\cchmqEOm.s:26948  .debug_str:000000000001696e .LASF4315
GAS LISTING C:\Users\SOLDER~1\AppData\Local\Temp\cchmqEOm.s 			page 150


C:\Users\SOLDER~1\AppData\Local\Temp\cchmqEOm.s:23028  .debug_str:00000000000069ad .LASF4316
C:\Users\SOLDER~1\AppData\Local\Temp\cchmqEOm.s:23322  .debug_str:0000000000007c3b .LASF4317
C:\Users\SOLDER~1\AppData\Local\Temp\cchmqEOm.s:26832  .debug_str:00000000000161ea .LASF4318
C:\Users\SOLDER~1\AppData\Local\Temp\cchmqEOm.s:22892  .debug_str:0000000000006013 .LASF4319
C:\Users\SOLDER~1\AppData\Local\Temp\cchmqEOm.s:32252  .debug_str:000000000002c0b8 .LASF4320
C:\Users\SOLDER~1\AppData\Local\Temp\cchmqEOm.s:31322  .debug_str:00000000000284ca .LASF4321
C:\Users\SOLDER~1\AppData\Local\Temp\cchmqEOm.s:29814  .debug_str:00000000000222a1 .LASF4322
C:\Users\SOLDER~1\AppData\Local\Temp\cchmqEOm.s:32472  .debug_str:000000000002cf43 .LASF4323
C:\Users\SOLDER~1\AppData\Local\Temp\cchmqEOm.s:21854  .debug_str:0000000000001e26 .LASF4324
C:\Users\SOLDER~1\AppData\Local\Temp\cchmqEOm.s:32864  .debug_str:000000000002e84f .LASF4325
C:\Users\SOLDER~1\AppData\Local\Temp\cchmqEOm.s:25698  .debug_str:0000000000011787 .LASF4326
C:\Users\SOLDER~1\AppData\Local\Temp\cchmqEOm.s:23370  .debug_str:0000000000007f86 .LASF4327
C:\Users\SOLDER~1\AppData\Local\Temp\cchmqEOm.s:32760  .debug_str:000000000002e1b8 .LASF4328
C:\Users\SOLDER~1\AppData\Local\Temp\cchmqEOm.s:30016  .debug_str:0000000000022f4c .LASF4329
C:\Users\SOLDER~1\AppData\Local\Temp\cchmqEOm.s:29222  .debug_str:000000000001fd00 .LASF4330
C:\Users\SOLDER~1\AppData\Local\Temp\cchmqEOm.s:28432  .debug_str:000000000001c91c .LASF4331
C:\Users\SOLDER~1\AppData\Local\Temp\cchmqEOm.s:26144  .debug_str:00000000000133c7 .LASF4332
C:\Users\SOLDER~1\AppData\Local\Temp\cchmqEOm.s:29232  .debug_str:000000000001fd99 .LASF4333
C:\Users\SOLDER~1\AppData\Local\Temp\cchmqEOm.s:25944  .debug_str:00000000000126f9 .LASF4334
C:\Users\SOLDER~1\AppData\Local\Temp\cchmqEOm.s:28546  .debug_str:000000000001d0bd .LASF4335
C:\Users\SOLDER~1\AppData\Local\Temp\cchmqEOm.s:28094  .debug_str:000000000001b3b1 .LASF4336
C:\Users\SOLDER~1\AppData\Local\Temp\cchmqEOm.s:22964  .debug_str:0000000000006514 .LASF4337
C:\Users\SOLDER~1\AppData\Local\Temp\cchmqEOm.s:28920  .debug_str:000000000001e8fe .LASF4338
C:\Users\SOLDER~1\AppData\Local\Temp\cchmqEOm.s:27784  .debug_str:0000000000019f8c .LASF4339
C:\Users\SOLDER~1\AppData\Local\Temp\cchmqEOm.s:28480  .debug_str:000000000001cc48 .LASF4340
C:\Users\SOLDER~1\AppData\Local\Temp\cchmqEOm.s:27256  .debug_str:0000000000017d18 .LASF4341
C:\Users\SOLDER~1\AppData\Local\Temp\cchmqEOm.s:28728  .debug_str:000000000001dcdd .LASF4342
C:\Users\SOLDER~1\AppData\Local\Temp\cchmqEOm.s:25890  .debug_str:00000000000123ca .LASF4343
C:\Users\SOLDER~1\AppData\Local\Temp\cchmqEOm.s:27160  .debug_str:00000000000176d0 .LASF4344
C:\Users\SOLDER~1\AppData\Local\Temp\cchmqEOm.s:30506  .debug_str:0000000000024f88 .LASF4345
C:\Users\SOLDER~1\AppData\Local\Temp\cchmqEOm.s:25974  .debug_str:0000000000012924 .LASF4346
C:\Users\SOLDER~1\AppData\Local\Temp\cchmqEOm.s:22156  .debug_str:00000000000031d5 .LASF4347
C:\Users\SOLDER~1\AppData\Local\Temp\cchmqEOm.s:30408  .debug_str:00000000000248f4 .LASF4348
C:\Users\SOLDER~1\AppData\Local\Temp\cchmqEOm.s:32206  .debug_str:000000000002bdd1 .LASF4349
C:\Users\SOLDER~1\AppData\Local\Temp\cchmqEOm.s:30058  .debug_str:0000000000023205 .LASF4350
C:\Users\SOLDER~1\AppData\Local\Temp\cchmqEOm.s:25100  .debug_str:000000000000f0c4 .LASF4351
C:\Users\SOLDER~1\AppData\Local\Temp\cchmqEOm.s:26902  .debug_str:000000000001669a .LASF4352
C:\Users\SOLDER~1\AppData\Local\Temp\cchmqEOm.s:22102  .debug_str:0000000000002e42 .LASF4353
C:\Users\SOLDER~1\AppData\Local\Temp\cchmqEOm.s:27800  .debug_str:000000000001a0a0 .LASF4354
C:\Users\SOLDER~1\AppData\Local\Temp\cchmqEOm.s:26142  .debug_str:00000000000133a1 .LASF4355
C:\Users\SOLDER~1\AppData\Local\Temp\cchmqEOm.s:28172  .debug_str:000000000001b86f .LASF4356
C:\Users\SOLDER~1\AppData\Local\Temp\cchmqEOm.s:30166  .debug_str:000000000002390e .LASF4357
C:\Users\SOLDER~1\AppData\Local\Temp\cchmqEOm.s:24832  .debug_str:000000000000df3e .LASF4358
C:\Users\SOLDER~1\AppData\Local\Temp\cchmqEOm.s:25210  .debug_str:000000000000f7bf .LASF4359
C:\Users\SOLDER~1\AppData\Local\Temp\cchmqEOm.s:32170  .debug_str:000000000002bb6c .LASF4360
C:\Users\SOLDER~1\AppData\Local\Temp\cchmqEOm.s:22182  .debug_str:0000000000003376 .LASF4361
C:\Users\SOLDER~1\AppData\Local\Temp\cchmqEOm.s:23730  .debug_str:0000000000009734 .LASF4362
C:\Users\SOLDER~1\AppData\Local\Temp\cchmqEOm.s:22464  .debug_str:0000000000004566 .LASF4363
C:\Users\SOLDER~1\AppData\Local\Temp\cchmqEOm.s:24342  .debug_str:000000000000bf29 .LASF4364
C:\Users\SOLDER~1\AppData\Local\Temp\cchmqEOm.s:24632  .debug_str:000000000000d277 .LASF4365
C:\Users\SOLDER~1\AppData\Local\Temp\cchmqEOm.s:27194  .debug_str:0000000000017920 .LASF4366
C:\Users\SOLDER~1\AppData\Local\Temp\cchmqEOm.s:32926  .debug_str:000000000002ec39 .LASF4367
C:\Users\SOLDER~1\AppData\Local\Temp\cchmqEOm.s:24446  .debug_str:000000000000c61f .LASF4368
C:\Users\SOLDER~1\AppData\Local\Temp\cchmqEOm.s:29848  .debug_str:00000000000224c3 .LASF4369
C:\Users\SOLDER~1\AppData\Local\Temp\cchmqEOm.s:31094  .debug_str:0000000000027650 .LASF4370
C:\Users\SOLDER~1\AppData\Local\Temp\cchmqEOm.s:23468  .debug_str:00000000000085d8 .LASF4371
C:\Users\SOLDER~1\AppData\Local\Temp\cchmqEOm.s:32652  .debug_str:000000000002db13 .LASF4372
GAS LISTING C:\Users\SOLDER~1\AppData\Local\Temp\cchmqEOm.s 			page 151


C:\Users\SOLDER~1\AppData\Local\Temp\cchmqEOm.s:24608  .debug_str:000000000000d0c4 .LASF4373
C:\Users\SOLDER~1\AppData\Local\Temp\cchmqEOm.s:24796  .debug_str:000000000000dce8 .LASF4374
C:\Users\SOLDER~1\AppData\Local\Temp\cchmqEOm.s:27650  .debug_str:00000000000196ff .LASF4375
C:\Users\SOLDER~1\AppData\Local\Temp\cchmqEOm.s:26498  .debug_str:0000000000014c51 .LASF4376
C:\Users\SOLDER~1\AppData\Local\Temp\cchmqEOm.s:27924  .debug_str:000000000001a838 .LASF4377
C:\Users\SOLDER~1\AppData\Local\Temp\cchmqEOm.s:24676  .debug_str:000000000000d547 .LASF4378
C:\Users\SOLDER~1\AppData\Local\Temp\cchmqEOm.s:28706  .debug_str:000000000001db94 .LASF4379
C:\Users\SOLDER~1\AppData\Local\Temp\cchmqEOm.s:30530  .debug_str:00000000000250fd .LASF4380
C:\Users\SOLDER~1\AppData\Local\Temp\cchmqEOm.s:31686  .debug_str:0000000000029c11 .LASF4381
C:\Users\SOLDER~1\AppData\Local\Temp\cchmqEOm.s:24002  .debug_str:000000000000a90d .LASF4382
C:\Users\SOLDER~1\AppData\Local\Temp\cchmqEOm.s:24570  .debug_str:000000000000ce68 .LASF4383
C:\Users\SOLDER~1\AppData\Local\Temp\cchmqEOm.s:31674  .debug_str:0000000000029b31 .LASF4384
C:\Users\SOLDER~1\AppData\Local\Temp\cchmqEOm.s:28188  .debug_str:000000000001b966 .LASF4385
C:\Users\SOLDER~1\AppData\Local\Temp\cchmqEOm.s:24746  .debug_str:000000000000d9f8 .LASF4386
C:\Users\SOLDER~1\AppData\Local\Temp\cchmqEOm.s:21560  .debug_str:0000000000000b41 .LASF4387
C:\Users\SOLDER~1\AppData\Local\Temp\cchmqEOm.s:23584  .debug_str:0000000000008d58 .LASF4388
C:\Users\SOLDER~1\AppData\Local\Temp\cchmqEOm.s:26390  .debug_str:000000000001453c .LASF4389
C:\Users\SOLDER~1\AppData\Local\Temp\cchmqEOm.s:22484  .debug_str:00000000000046a9 .LASF4390
C:\Users\SOLDER~1\AppData\Local\Temp\cchmqEOm.s:22540  .debug_str:0000000000004a1f .LASF4391
C:\Users\SOLDER~1\AppData\Local\Temp\cchmqEOm.s:32676  .debug_str:000000000002dc70 .LASF4392
C:\Users\SOLDER~1\AppData\Local\Temp\cchmqEOm.s:27514  .debug_str:0000000000018dff .LASF4393
C:\Users\SOLDER~1\AppData\Local\Temp\cchmqEOm.s:32802  .debug_str:000000000002e471 .LASF4394
C:\Users\SOLDER~1\AppData\Local\Temp\cchmqEOm.s:26940  .debug_str:00000000000168ea .LASF4395
C:\Users\SOLDER~1\AppData\Local\Temp\cchmqEOm.s:24658  .debug_str:000000000000d415 .LASF4396
C:\Users\SOLDER~1\AppData\Local\Temp\cchmqEOm.s:24238  .debug_str:000000000000b855 .LASF4397
C:\Users\SOLDER~1\AppData\Local\Temp\cchmqEOm.s:31430  .debug_str:0000000000028bca .LASF4398
C:\Users\SOLDER~1\AppData\Local\Temp\cchmqEOm.s:22668  .debug_str:00000000000051be .LASF4399
C:\Users\SOLDER~1\AppData\Local\Temp\cchmqEOm.s:26304  .debug_str:0000000000013f34 .LASF4400
C:\Users\SOLDER~1\AppData\Local\Temp\cchmqEOm.s:27818  .debug_str:000000000001a1d6 .LASF4401
C:\Users\SOLDER~1\AppData\Local\Temp\cchmqEOm.s:27742  .debug_str:0000000000019d11 .LASF4402
C:\Users\SOLDER~1\AppData\Local\Temp\cchmqEOm.s:28614  .debug_str:000000000001d54f .LASF4403
C:\Users\SOLDER~1\AppData\Local\Temp\cchmqEOm.s:26358  .debug_str:00000000000142d0 .LASF4404
C:\Users\SOLDER~1\AppData\Local\Temp\cchmqEOm.s:29888  .debug_str:0000000000022759 .LASF4405
C:\Users\SOLDER~1\AppData\Local\Temp\cchmqEOm.s:23588  .debug_str:0000000000008da2 .LASF4406
C:\Users\SOLDER~1\AppData\Local\Temp\cchmqEOm.s:25478  .debug_str:000000000001093b .LASF4407
C:\Users\SOLDER~1\AppData\Local\Temp\cchmqEOm.s:26976  .debug_str:0000000000016ae7 .LASF4408
C:\Users\SOLDER~1\AppData\Local\Temp\cchmqEOm.s:29744  .debug_str:0000000000021e49 .LASF4409
C:\Users\SOLDER~1\AppData\Local\Temp\cchmqEOm.s:27316  .debug_str:00000000000180f1 .LASF4410
C:\Users\SOLDER~1\AppData\Local\Temp\cchmqEOm.s:30476  .debug_str:0000000000024d8b .LASF4411
C:\Users\SOLDER~1\AppData\Local\Temp\cchmqEOm.s:30306  .debug_str:0000000000024240 .LASF4412
C:\Users\SOLDER~1\AppData\Local\Temp\cchmqEOm.s:23100  .debug_str:0000000000006de7 .LASF4413
C:\Users\SOLDER~1\AppData\Local\Temp\cchmqEOm.s:31392  .debug_str:000000000002894d .LASF4414
C:\Users\SOLDER~1\AppData\Local\Temp\cchmqEOm.s:25524  .debug_str:0000000000010c76 .LASF4415
C:\Users\SOLDER~1\AppData\Local\Temp\cchmqEOm.s:21990  .debug_str:0000000000002709 .LASF4416
C:\Users\SOLDER~1\AppData\Local\Temp\cchmqEOm.s:27100  .debug_str:000000000001729f .LASF4417
C:\Users\SOLDER~1\AppData\Local\Temp\cchmqEOm.s:22362  .debug_str:0000000000003f0e .LASF4418
C:\Users\SOLDER~1\AppData\Local\Temp\cchmqEOm.s:21994  .debug_str:0000000000002750 .LASF4419
C:\Users\SOLDER~1\AppData\Local\Temp\cchmqEOm.s:23938  .debug_str:000000000000a499 .LASF4420
C:\Users\SOLDER~1\AppData\Local\Temp\cchmqEOm.s:28634  .debug_str:000000000001d678 .LASF4421
C:\Users\SOLDER~1\AppData\Local\Temp\cchmqEOm.s:27762  .debug_str:0000000000019e21 .LASF4422
C:\Users\SOLDER~1\AppData\Local\Temp\cchmqEOm.s:25854  .debug_str:0000000000012186 .LASF4423
C:\Users\SOLDER~1\AppData\Local\Temp\cchmqEOm.s:28790  .debug_str:000000000001e07e .LASF4424
C:\Users\SOLDER~1\AppData\Local\Temp\cchmqEOm.s:22882  .debug_str:0000000000005f80 .LASF4425
C:\Users\SOLDER~1\AppData\Local\Temp\cchmqEOm.s:26484  .debug_str:0000000000014b46 .LASF4426
C:\Users\SOLDER~1\AppData\Local\Temp\cchmqEOm.s:29514  .debug_str:0000000000020f72 .LASF4427
C:\Users\SOLDER~1\AppData\Local\Temp\cchmqEOm.s:33002  .debug_str:000000000002f10f .LASF4428
C:\Users\SOLDER~1\AppData\Local\Temp\cchmqEOm.s:28016  .debug_str:000000000001ae87 .LASF4429
GAS LISTING C:\Users\SOLDER~1\AppData\Local\Temp\cchmqEOm.s 			page 152


C:\Users\SOLDER~1\AppData\Local\Temp\cchmqEOm.s:32722  .debug_str:000000000002df6d .LASF4430
C:\Users\SOLDER~1\AppData\Local\Temp\cchmqEOm.s:31728  .debug_str:0000000000029e9f .LASF4431
C:\Users\SOLDER~1\AppData\Local\Temp\cchmqEOm.s:27768  .debug_str:0000000000019e8c .LASF4432
C:\Users\SOLDER~1\AppData\Local\Temp\cchmqEOm.s:28028  .debug_str:000000000001af2a .LASF4433
C:\Users\SOLDER~1\AppData\Local\Temp\cchmqEOm.s:25712  .debug_str:0000000000011890 .LASF4434
C:\Users\SOLDER~1\AppData\Local\Temp\cchmqEOm.s:32532  .debug_str:000000000002d2fd .LASF4435
C:\Users\SOLDER~1\AppData\Local\Temp\cchmqEOm.s:27734  .debug_str:0000000000019caf .LASF4436
C:\Users\SOLDER~1\AppData\Local\Temp\cchmqEOm.s:31406  .debug_str:0000000000028a48 .LASF4437
C:\Users\SOLDER~1\AppData\Local\Temp\cchmqEOm.s:30056  .debug_str:00000000000231f1 .LASF4438
C:\Users\SOLDER~1\AppData\Local\Temp\cchmqEOm.s:25244  .debug_str:000000000000f9f1 .LASF4439
C:\Users\SOLDER~1\AppData\Local\Temp\cchmqEOm.s:30680  .debug_str:0000000000025acf .LASF4440
C:\Users\SOLDER~1\AppData\Local\Temp\cchmqEOm.s:27046  .debug_str:0000000000016f75 .LASF4441
C:\Users\SOLDER~1\AppData\Local\Temp\cchmqEOm.s:31484  .debug_str:0000000000028f5d .LASF4442
C:\Users\SOLDER~1\AppData\Local\Temp\cchmqEOm.s:26950  .debug_str:0000000000016990 .LASF4443
C:\Users\SOLDER~1\AppData\Local\Temp\cchmqEOm.s:24354  .debug_str:000000000000bfdf .LASF4444
C:\Users\SOLDER~1\AppData\Local\Temp\cchmqEOm.s:26734  .debug_str:0000000000015bab .LASF4445
C:\Users\SOLDER~1\AppData\Local\Temp\cchmqEOm.s:27516  .debug_str:0000000000018e1f .LASF4446
C:\Users\SOLDER~1\AppData\Local\Temp\cchmqEOm.s:24548  .debug_str:000000000000ccfd .LASF4447
C:\Users\SOLDER~1\AppData\Local\Temp\cchmqEOm.s:28350  .debug_str:000000000001c3b5 .LASF4448
C:\Users\SOLDER~1\AppData\Local\Temp\cchmqEOm.s:29878  .debug_str:00000000000226bd .LASF4449
C:\Users\SOLDER~1\AppData\Local\Temp\cchmqEOm.s:31580  .debug_str:0000000000029518 .LASF4450
C:\Users\SOLDER~1\AppData\Local\Temp\cchmqEOm.s:29618  .debug_str:0000000000021660 .LASF4451
C:\Users\SOLDER~1\AppData\Local\Temp\cchmqEOm.s:28120  .debug_str:000000000001b54f .LASF4452
C:\Users\SOLDER~1\AppData\Local\Temp\cchmqEOm.s:28024  .debug_str:000000000001aef8 .LASF4453
C:\Users\SOLDER~1\AppData\Local\Temp\cchmqEOm.s:28596  .debug_str:000000000001d434 .LASF4454
C:\Users\SOLDER~1\AppData\Local\Temp\cchmqEOm.s:25880  .debug_str:0000000000012344 .LASF4455
C:\Users\SOLDER~1\AppData\Local\Temp\cchmqEOm.s:31012  .debug_str:0000000000027101 .LASF4456
C:\Users\SOLDER~1\AppData\Local\Temp\cchmqEOm.s:25338  .debug_str:000000000001008f .LASF4457
C:\Users\SOLDER~1\AppData\Local\Temp\cchmqEOm.s:31836  .debug_str:000000000002a5be .LASF4458
C:\Users\SOLDER~1\AppData\Local\Temp\cchmqEOm.s:30712  .debug_str:0000000000025cb1 .LASF4459
C:\Users\SOLDER~1\AppData\Local\Temp\cchmqEOm.s:31762  .debug_str:000000000002a0cf .LASF4460
C:\Users\SOLDER~1\AppData\Local\Temp\cchmqEOm.s:25776  .debug_str:0000000000011c86 .LASF4461
C:\Users\SOLDER~1\AppData\Local\Temp\cchmqEOm.s:27108  .debug_str:0000000000017332 .LASF4462
C:\Users\SOLDER~1\AppData\Local\Temp\cchmqEOm.s:27950  .debug_str:000000000001aa1d .LASF4463
C:\Users\SOLDER~1\AppData\Local\Temp\cchmqEOm.s:30294  .debug_str:0000000000024171 .LASF4464
C:\Users\SOLDER~1\AppData\Local\Temp\cchmqEOm.s:28322  .debug_str:000000000001c1ae .LASF4465
C:\Users\SOLDER~1\AppData\Local\Temp\cchmqEOm.s:27922  .debug_str:000000000001a821 .LASF4466
C:\Users\SOLDER~1\AppData\Local\Temp\cchmqEOm.s:27622  .debug_str:000000000001955f .LASF4467
C:\Users\SOLDER~1\AppData\Local\Temp\cchmqEOm.s:28504  .debug_str:000000000001cdd8 .LASF4468
C:\Users\SOLDER~1\AppData\Local\Temp\cchmqEOm.s:27024  .debug_str:0000000000016e0f .LASF4469
C:\Users\SOLDER~1\AppData\Local\Temp\cchmqEOm.s:31486  .debug_str:0000000000028f6e .LASF4470
C:\Users\SOLDER~1\AppData\Local\Temp\cchmqEOm.s:32240  .debug_str:000000000002bff7 .LASF4471
C:\Users\SOLDER~1\AppData\Local\Temp\cchmqEOm.s:22598  .debug_str:0000000000004dd1 .LASF4472
C:\Users\SOLDER~1\AppData\Local\Temp\cchmqEOm.s:32650  .debug_str:000000000002dafc .LASF4473
C:\Users\SOLDER~1\AppData\Local\Temp\cchmqEOm.s:25406  .debug_str:00000000000104ab .LASF4474
C:\Users\SOLDER~1\AppData\Local\Temp\cchmqEOm.s:31922  .debug_str:000000000002ab6e .LASF4475
C:\Users\SOLDER~1\AppData\Local\Temp\cchmqEOm.s:27190  .debug_str:00000000000178e5 .LASF4476
C:\Users\SOLDER~1\AppData\Local\Temp\cchmqEOm.s:28798  .debug_str:000000000001e0f9 .LASF4477
C:\Users\SOLDER~1\AppData\Local\Temp\cchmqEOm.s:31122  .debug_str:0000000000027812 .LASF4478
C:\Users\SOLDER~1\AppData\Local\Temp\cchmqEOm.s:31736  .debug_str:0000000000029f00 .LASF4479
C:\Users\SOLDER~1\AppData\Local\Temp\cchmqEOm.s:29760  .debug_str:0000000000021f4d .LASF4480
C:\Users\SOLDER~1\AppData\Local\Temp\cchmqEOm.s:25734  .debug_str:00000000000119c4 .LASF4481
C:\Users\SOLDER~1\AppData\Local\Temp\cchmqEOm.s:32820  .debug_str:000000000002e5a9 .LASF4482
C:\Users\SOLDER~1\AppData\Local\Temp\cchmqEOm.s:23958  .debug_str:000000000000a5d1 .LASF4483
C:\Users\SOLDER~1\AppData\Local\Temp\cchmqEOm.s:31820  .debug_str:000000000002a4a1 .LASF4484
C:\Users\SOLDER~1\AppData\Local\Temp\cchmqEOm.s:23090  .debug_str:0000000000006d36 .LASF4485
C:\Users\SOLDER~1\AppData\Local\Temp\cchmqEOm.s:28240  .debug_str:000000000001bcb1 .LASF4486
GAS LISTING C:\Users\SOLDER~1\AppData\Local\Temp\cchmqEOm.s 			page 153


C:\Users\SOLDER~1\AppData\Local\Temp\cchmqEOm.s:32594  .debug_str:000000000002d738 .LASF4487
C:\Users\SOLDER~1\AppData\Local\Temp\cchmqEOm.s:32146  .debug_str:000000000002b9e6 .LASF4488
C:\Users\SOLDER~1\AppData\Local\Temp\cchmqEOm.s:28134  .debug_str:000000000001b606 .LASF4489
C:\Users\SOLDER~1\AppData\Local\Temp\cchmqEOm.s:26228  .debug_str:00000000000139a7 .LASF4490
C:\Users\SOLDER~1\AppData\Local\Temp\cchmqEOm.s:26812  .debug_str:00000000000160a2 .LASF4491
C:\Users\SOLDER~1\AppData\Local\Temp\cchmqEOm.s:25988  .debug_str:00000000000129ea .LASF4492
C:\Users\SOLDER~1\AppData\Local\Temp\cchmqEOm.s:31998  .debug_str:000000000002b031 .LASF4493
C:\Users\SOLDER~1\AppData\Local\Temp\cchmqEOm.s:27120  .debug_str:00000000000173ee .LASF4494
C:\Users\SOLDER~1\AppData\Local\Temp\cchmqEOm.s:30738  .debug_str:0000000000025e6a .LASF4495
C:\Users\SOLDER~1\AppData\Local\Temp\cchmqEOm.s:27254  .debug_str:0000000000017cdf .LASF4496
C:\Users\SOLDER~1\AppData\Local\Temp\cchmqEOm.s:29486  .debug_str:0000000000020dae .LASF4497
C:\Users\SOLDER~1\AppData\Local\Temp\cchmqEOm.s:32680  .debug_str:000000000002dc95 .LASF4498
C:\Users\SOLDER~1\AppData\Local\Temp\cchmqEOm.s:26508  .debug_str:0000000000014ced .LASF4499
C:\Users\SOLDER~1\AppData\Local\Temp\cchmqEOm.s:27680  .debug_str:00000000000198ed .LASF4500
C:\Users\SOLDER~1\AppData\Local\Temp\cchmqEOm.s:28876  .debug_str:000000000001e62e .LASF4501
C:\Users\SOLDER~1\AppData\Local\Temp\cchmqEOm.s:29978  .debug_str:0000000000022ce9 .LASF4502
C:\Users\SOLDER~1\AppData\Local\Temp\cchmqEOm.s:28398  .debug_str:000000000001c6d1 .LASF4503
C:\Users\SOLDER~1\AppData\Local\Temp\cchmqEOm.s:32398  .debug_str:000000000002ca6e .LASF4504
C:\Users\SOLDER~1\AppData\Local\Temp\cchmqEOm.s:30022  .debug_str:0000000000022fb1 .LASF4505
C:\Users\SOLDER~1\AppData\Local\Temp\cchmqEOm.s:21818  .debug_str:0000000000001bb9 .LASF4506
C:\Users\SOLDER~1\AppData\Local\Temp\cchmqEOm.s:30770  .debug_str:0000000000026087 .LASF4507
C:\Users\SOLDER~1\AppData\Local\Temp\cchmqEOm.s:22992  .debug_str:00000000000066da .LASF4508
C:\Users\SOLDER~1\AppData\Local\Temp\cchmqEOm.s:25688  .debug_str:00000000000116ba .LASF4509
C:\Users\SOLDER~1\AppData\Local\Temp\cchmqEOm.s:28204  .debug_str:000000000001ba84 .LASF4510
C:\Users\SOLDER~1\AppData\Local\Temp\cchmqEOm.s:22354  .debug_str:0000000000003e80 .LASF4511
C:\Users\SOLDER~1\AppData\Local\Temp\cchmqEOm.s:29756  .debug_str:0000000000021f16 .LASF4512
C:\Users\SOLDER~1\AppData\Local\Temp\cchmqEOm.s:29832  .debug_str:00000000000223d5 .LASF4513
C:\Users\SOLDER~1\AppData\Local\Temp\cchmqEOm.s:27132  .debug_str:00000000000174d3 .LASF4514
C:\Users\SOLDER~1\AppData\Local\Temp\cchmqEOm.s:23814  .debug_str:0000000000009c71 .LASF4515
C:\Users\SOLDER~1\AppData\Local\Temp\cchmqEOm.s:26670  .debug_str:000000000001578e .LASF4516
C:\Users\SOLDER~1\AppData\Local\Temp\cchmqEOm.s:29186  .debug_str:000000000001fa5c .LASF4517
C:\Users\SOLDER~1\AppData\Local\Temp\cchmqEOm.s:33054  .debug_str:000000000002f41e .LASF4518
C:\Users\SOLDER~1\AppData\Local\Temp\cchmqEOm.s:28928  .debug_str:000000000001e976 .LASF4519
C:\Users\SOLDER~1\AppData\Local\Temp\cchmqEOm.s:21684  .debug_str:000000000000133d .LASF4520
C:\Users\SOLDER~1\AppData\Local\Temp\cchmqEOm.s:25444  .debug_str:0000000000010754 .LASF4521
C:\Users\SOLDER~1\AppData\Local\Temp\cchmqEOm.s:24544  .debug_str:000000000000ccc1 .LASF4522
C:\Users\SOLDER~1\AppData\Local\Temp\cchmqEOm.s:30650  .debug_str:00000000000258c5 .LASF4523
C:\Users\SOLDER~1\AppData\Local\Temp\cchmqEOm.s:23936  .debug_str:000000000000a47f .LASF4524
C:\Users\SOLDER~1\AppData\Local\Temp\cchmqEOm.s:32216  .debug_str:000000000002be6d .LASF4525
C:\Users\SOLDER~1\AppData\Local\Temp\cchmqEOm.s:27604  .debug_str:0000000000019429 .LASF4526
C:\Users\SOLDER~1\AppData\Local\Temp\cchmqEOm.s:26598  .debug_str:00000000000152bc .LASF4527
C:\Users\SOLDER~1\AppData\Local\Temp\cchmqEOm.s:30598  .debug_str:00000000000255aa .LASF4528
C:\Users\SOLDER~1\AppData\Local\Temp\cchmqEOm.s:32086  .debug_str:000000000002b5d8 .LASF4529
C:\Users\SOLDER~1\AppData\Local\Temp\cchmqEOm.s:24230  .debug_str:000000000000b7e9 .LASF4530
C:\Users\SOLDER~1\AppData\Local\Temp\cchmqEOm.s:30534  .debug_str:0000000000025140 .LASF4531
C:\Users\SOLDER~1\AppData\Local\Temp\cchmqEOm.s:30174  .debug_str:0000000000023988 .LASF4532
C:\Users\SOLDER~1\AppData\Local\Temp\cchmqEOm.s:28648  .debug_str:000000000001d790 .LASF4533
C:\Users\SOLDER~1\AppData\Local\Temp\cchmqEOm.s:30840  .debug_str:0000000000026545 .LASF4534
C:\Users\SOLDER~1\AppData\Local\Temp\cchmqEOm.s:32304  .debug_str:000000000002c3fd .LASF4535
C:\Users\SOLDER~1\AppData\Local\Temp\cchmqEOm.s:26928  .debug_str:000000000001682d .LASF4536
C:\Users\SOLDER~1\AppData\Local\Temp\cchmqEOm.s:22548  .debug_str:0000000000004a96 .LASF4537
C:\Users\SOLDER~1\AppData\Local\Temp\cchmqEOm.s:25162  .debug_str:000000000000f497 .LASF4538
C:\Users\SOLDER~1\AppData\Local\Temp\cchmqEOm.s:26160  .debug_str:00000000000134f7 .LASF4539
C:\Users\SOLDER~1\AppData\Local\Temp\cchmqEOm.s:28502  .debug_str:000000000001cd9d .LASF4540
C:\Users\SOLDER~1\AppData\Local\Temp\cchmqEOm.s:28470  .debug_str:000000000001cb7f .LASF4541
C:\Users\SOLDER~1\AppData\Local\Temp\cchmqEOm.s:26370  .debug_str:00000000000143a0 .LASF4542
C:\Users\SOLDER~1\AppData\Local\Temp\cchmqEOm.s:32358  .debug_str:000000000002c7cb .LASF4543
GAS LISTING C:\Users\SOLDER~1\AppData\Local\Temp\cchmqEOm.s 			page 154


C:\Users\SOLDER~1\AppData\Local\Temp\cchmqEOm.s:32330  .debug_str:000000000002c5c7 .LASF4544
C:\Users\SOLDER~1\AppData\Local\Temp\cchmqEOm.s:30538  .debug_str:000000000002519c .LASF4545
C:\Users\SOLDER~1\AppData\Local\Temp\cchmqEOm.s:24888  .debug_str:000000000000e31f .LASF4546
C:\Users\SOLDER~1\AppData\Local\Temp\cchmqEOm.s:22996  .debug_str:0000000000006738 .LASF4547
C:\Users\SOLDER~1\AppData\Local\Temp\cchmqEOm.s:23060  .debug_str:0000000000006b6b .LASF4548
C:\Users\SOLDER~1\AppData\Local\Temp\cchmqEOm.s:26134  .debug_str:000000000001332d .LASF4549
C:\Users\SOLDER~1\AppData\Local\Temp\cchmqEOm.s:27942  .debug_str:000000000001a997 .LASF4550
C:\Users\SOLDER~1\AppData\Local\Temp\cchmqEOm.s:28368  .debug_str:000000000001c4ff .LASF4551
C:\Users\SOLDER~1\AppData\Local\Temp\cchmqEOm.s:30758  .debug_str:0000000000025fda .LASF4552
C:\Users\SOLDER~1\AppData\Local\Temp\cchmqEOm.s:24576  .debug_str:000000000000cecd .LASF4553
C:\Users\SOLDER~1\AppData\Local\Temp\cchmqEOm.s:21410  .debug_str:0000000000000108 .LASF4554
C:\Users\SOLDER~1\AppData\Local\Temp\cchmqEOm.s:29820  .debug_str:00000000000222f8 .LASF4555
C:\Users\SOLDER~1\AppData\Local\Temp\cchmqEOm.s:29558  .debug_str:0000000000021252 .LASF4556
C:\Users\SOLDER~1\AppData\Local\Temp\cchmqEOm.s:27432  .debug_str:00000000000188b8 .LASF4557
C:\Users\SOLDER~1\AppData\Local\Temp\cchmqEOm.s:32196  .debug_str:000000000002bd2e .LASF4558
C:\Users\SOLDER~1\AppData\Local\Temp\cchmqEOm.s:25380  .debug_str:000000000001031c .LASF4559
C:\Users\SOLDER~1\AppData\Local\Temp\cchmqEOm.s:25474  .debug_str:0000000000010907 .LASF4560
C:\Users\SOLDER~1\AppData\Local\Temp\cchmqEOm.s:25578  .debug_str:0000000000010fbc .LASF4561
C:\Users\SOLDER~1\AppData\Local\Temp\cchmqEOm.s:25724  .debug_str:000000000001194a .LASF4562
C:\Users\SOLDER~1\AppData\Local\Temp\cchmqEOm.s:25448  .debug_str:0000000000010797 .LASF4563
C:\Users\SOLDER~1\AppData\Local\Temp\cchmqEOm.s:23858  .debug_str:0000000000009f5b .LASF4564
C:\Users\SOLDER~1\AppData\Local\Temp\cchmqEOm.s:32982  .debug_str:000000000002efd1 .LASF4565
C:\Users\SOLDER~1\AppData\Local\Temp\cchmqEOm.s:22504  .debug_str:00000000000047e5 .LASF4566
C:\Users\SOLDER~1\AppData\Local\Temp\cchmqEOm.s:25896  .debug_str:000000000001243a .LASF4567
C:\Users\SOLDER~1\AppData\Local\Temp\cchmqEOm.s:31174  .debug_str:0000000000027b7e .LASF4568
C:\Users\SOLDER~1\AppData\Local\Temp\cchmqEOm.s:26892  .debug_str:00000000000165e7 .LASF4569
C:\Users\SOLDER~1\AppData\Local\Temp\cchmqEOm.s:28628  .debug_str:000000000001d61d .LASF4570
C:\Users\SOLDER~1\AppData\Local\Temp\cchmqEOm.s:28818  .debug_str:000000000001e258 .LASF4571
C:\Users\SOLDER~1\AppData\Local\Temp\cchmqEOm.s:25612  .debug_str:00000000000111ec .LASF4572
C:\Users\SOLDER~1\AppData\Local\Temp\cchmqEOm.s:27216  .debug_str:0000000000017a97 .LASF4573
C:\Users\SOLDER~1\AppData\Local\Temp\cchmqEOm.s:32200  .debug_str:000000000002bd7b .LASF4574
C:\Users\SOLDER~1\AppData\Local\Temp\cchmqEOm.s:28810  .debug_str:000000000001e1ca .LASF4575
C:\Users\SOLDER~1\AppData\Local\Temp\cchmqEOm.s:21966  .debug_str:00000000000025ae .LASF4576
C:\Users\SOLDER~1\AppData\Local\Temp\cchmqEOm.s:24058  .debug_str:000000000000aca7 .LASF4577
C:\Users\SOLDER~1\AppData\Local\Temp\cchmqEOm.s:24012  .debug_str:000000000000a9a9 .LASF4578
C:\Users\SOLDER~1\AppData\Local\Temp\cchmqEOm.s:28382  .debug_str:000000000001c5da .LASF4579
C:\Users\SOLDER~1\AppData\Local\Temp\cchmqEOm.s:25526  .debug_str:0000000000010c96 .LASF4580
C:\Users\SOLDER~1\AppData\Local\Temp\cchmqEOm.s:28292  .debug_str:000000000001bfe1 .LASF4581
C:\Users\SOLDER~1\AppData\Local\Temp\cchmqEOm.s:31230  .debug_str:0000000000027edc .LASF4582
C:\Users\SOLDER~1\AppData\Local\Temp\cchmqEOm.s:24380  .debug_str:000000000000c183 .LASF4583
C:\Users\SOLDER~1\AppData\Local\Temp\cchmqEOm.s:23248  .debug_str:00000000000077a9 .LASF4584
C:\Users\SOLDER~1\AppData\Local\Temp\cchmqEOm.s:32552  .debug_str:000000000002d44d .LASF4585
C:\Users\SOLDER~1\AppData\Local\Temp\cchmqEOm.s:28228  .debug_str:000000000001bc03 .LASF4586
C:\Users\SOLDER~1\AppData\Local\Temp\cchmqEOm.s:22772  .debug_str:000000000000582b .LASF4587
C:\Users\SOLDER~1\AppData\Local\Temp\cchmqEOm.s:23350  .debug_str:0000000000007e3e .LASF4588
C:\Users\SOLDER~1\AppData\Local\Temp\cchmqEOm.s:23556  .debug_str:0000000000008b9c .LASF4589
C:\Users\SOLDER~1\AppData\Local\Temp\cchmqEOm.s:28958  .debug_str:000000000001eb57 .LASF4590
C:\Users\SOLDER~1\AppData\Local\Temp\cchmqEOm.s:32512  .debug_str:000000000002d1aa .LASF4591
C:\Users\SOLDER~1\AppData\Local\Temp\cchmqEOm.s:23266  .debug_str:0000000000007893 .LASF4594
C:\Users\SOLDER~1\AppData\Local\Temp\cchmqEOm.s:27986  .debug_str:000000000001ac67 .LASF4595
C:\Users\SOLDER~1\AppData\Local\Temp\cchmqEOm.s:26252  .debug_str:0000000000013b6a .LASF4596
C:\Users\SOLDER~1\AppData\Local\Temp\cchmqEOm.s:23026  .debug_str:0000000000006976 .LASF4597
C:\Users\SOLDER~1\AppData\Local\Temp\cchmqEOm.s:29768  .debug_str:0000000000021fa8 .LASF4598
C:\Users\SOLDER~1\AppData\Local\Temp\cchmqEOm.s:26656  .debug_str:000000000001568c .LASF4599
C:\Users\SOLDER~1\AppData\Local\Temp\cchmqEOm.s:32108  .debug_str:000000000002b79e .LASF4600
C:\Users\SOLDER~1\AppData\Local\Temp\cchmqEOm.s:27006  .debug_str:0000000000016cda .LASF4601
C:\Users\SOLDER~1\AppData\Local\Temp\cchmqEOm.s:24584  .debug_str:000000000000cf31 .LASF4602
GAS LISTING C:\Users\SOLDER~1\AppData\Local\Temp\cchmqEOm.s 			page 155


C:\Users\SOLDER~1\AppData\Local\Temp\cchmqEOm.s:26372  .debug_str:00000000000143da .LASF4603
C:\Users\SOLDER~1\AppData\Local\Temp\cchmqEOm.s:25248  .debug_str:000000000000fa27 .LASF4604
C:\Users\SOLDER~1\AppData\Local\Temp\cchmqEOm.s:31830  .debug_str:000000000002a53a .LASF4605
C:\Users\SOLDER~1\AppData\Local\Temp\cchmqEOm.s:22858  .debug_str:0000000000005e05 .LASF4606
C:\Users\SOLDER~1\AppData\Local\Temp\cchmqEOm.s:30304  .debug_str:000000000002420c .LASF4607
C:\Users\SOLDER~1\AppData\Local\Temp\cchmqEOm.s:24686  .debug_str:000000000000d603 .LASF4608
C:\Users\SOLDER~1\AppData\Local\Temp\cchmqEOm.s:26146  .debug_str:00000000000133df .LASF4609
C:\Users\SOLDER~1\AppData\Local\Temp\cchmqEOm.s:30288  .debug_str:00000000000240f4 .LASF4610
C:\Users\SOLDER~1\AppData\Local\Temp\cchmqEOm.s:23122  .debug_str:0000000000006f64 .LASF4611
C:\Users\SOLDER~1\AppData\Local\Temp\cchmqEOm.s:29208  .debug_str:000000000001fbfe .LASF4612
C:\Users\SOLDER~1\AppData\Local\Temp\cchmqEOm.s:22340  .debug_str:0000000000003d8d .LASF4613
C:\Users\SOLDER~1\AppData\Local\Temp\cchmqEOm.s:30944  .debug_str:0000000000026c56 .LASF4614
C:\Users\SOLDER~1\AppData\Local\Temp\cchmqEOm.s:23546  .debug_str:0000000000008ae0 .LASF4615
C:\Users\SOLDER~1\AppData\Local\Temp\cchmqEOm.s:31000  .debug_str:000000000002700b .LASF4616
C:\Users\SOLDER~1\AppData\Local\Temp\cchmqEOm.s:23130  .debug_str:0000000000007010 .LASF4617
C:\Users\SOLDER~1\AppData\Local\Temp\cchmqEOm.s:22078  .debug_str:0000000000002ca0 .LASF4618
C:\Users\SOLDER~1\AppData\Local\Temp\cchmqEOm.s:24164  .debug_str:000000000000b360 .LASF4619
C:\Users\SOLDER~1\AppData\Local\Temp\cchmqEOm.s:24288  .debug_str:000000000000bb8b .LASF4620
C:\Users\SOLDER~1\AppData\Local\Temp\cchmqEOm.s:30444  .debug_str:0000000000024b56 .LASF4621
C:\Users\SOLDER~1\AppData\Local\Temp\cchmqEOm.s:31578  .debug_str:00000000000294fa .LASF4622
C:\Users\SOLDER~1\AppData\Local\Temp\cchmqEOm.s:27370  .debug_str:00000000000184c5 .LASF4623
C:\Users\SOLDER~1\AppData\Local\Temp\cchmqEOm.s:25376  .debug_str:00000000000102ec .LASF4624
C:\Users\SOLDER~1\AppData\Local\Temp\cchmqEOm.s:31988  .debug_str:000000000002af89 .LASF4625
C:\Users\SOLDER~1\AppData\Local\Temp\cchmqEOm.s:27042  .debug_str:0000000000016f33 .LASF4626
C:\Users\SOLDER~1\AppData\Local\Temp\cchmqEOm.s:29056  .debug_str:000000000001f1f4 .LASF4627
C:\Users\SOLDER~1\AppData\Local\Temp\cchmqEOm.s:26348  .debug_str:0000000000014237 .LASF4628
C:\Users\SOLDER~1\AppData\Local\Temp\cchmqEOm.s:23732  .debug_str:000000000000974e .LASF4629
C:\Users\SOLDER~1\AppData\Local\Temp\cchmqEOm.s:28944  .debug_str:000000000001ea62 .LASF4630
C:\Users\SOLDER~1\AppData\Local\Temp\cchmqEOm.s:29934  .debug_str:00000000000229e8 .LASF4631
C:\Users\SOLDER~1\AppData\Local\Temp\cchmqEOm.s:28756  .debug_str:000000000001de7f .LASF4632
C:\Users\SOLDER~1\AppData\Local\Temp\cchmqEOm.s:32634  .debug_str:000000000002d9e5 .LASF4633
C:\Users\SOLDER~1\AppData\Local\Temp\cchmqEOm.s:29902  .debug_str:000000000002282b .LASF4634
C:\Users\SOLDER~1\AppData\Local\Temp\cchmqEOm.s:21414  .debug_str:000000000000012c .LASF4635
C:\Users\SOLDER~1\AppData\Local\Temp\cchmqEOm.s:27152  .debug_str:0000000000017644 .LASF4636
C:\Users\SOLDER~1\AppData\Local\Temp\cchmqEOm.s:26222  .debug_str:0000000000013938 .LASF4637
C:\Users\SOLDER~1\AppData\Local\Temp\cchmqEOm.s:26198  .debug_str:0000000000013782 .LASF4638
C:\Users\SOLDER~1\AppData\Local\Temp\cchmqEOm.s:26200  .debug_str:00000000000137b3 .LASF4639
C:\Users\SOLDER~1\AppData\Local\Temp\cchmqEOm.s:31824  .debug_str:000000000002a4cf .LASF4640
C:\Users\SOLDER~1\AppData\Local\Temp\cchmqEOm.s:24486  .debug_str:000000000000c8dc .LASF4641
C:\Users\SOLDER~1\AppData\Local\Temp\cchmqEOm.s:33076  .debug_str:000000000002f57c .LASF4642
C:\Users\SOLDER~1\AppData\Local\Temp\cchmqEOm.s:29890  .debug_str:0000000000022779 .LASF4643
C:\Users\SOLDER~1\AppData\Local\Temp\cchmqEOm.s:24716  .debug_str:000000000000d805 .LASF4644
C:\Users\SOLDER~1\AppData\Local\Temp\cchmqEOm.s:28862  .debug_str:000000000001e571 .LASF4645
C:\Users\SOLDER~1\AppData\Local\Temp\cchmqEOm.s:24748  .debug_str:000000000000da1b .LASF4646
C:\Users\SOLDER~1\AppData\Local\Temp\cchmqEOm.s:28298  .debug_str:000000000001c03b .LASF4647
C:\Users\SOLDER~1\AppData\Local\Temp\cchmqEOm.s:25336  .debug_str:0000000000010066 .LASF4648
C:\Users\SOLDER~1\AppData\Local\Temp\cchmqEOm.s:24258  .debug_str:000000000000b980 .LASF4649
C:\Users\SOLDER~1\AppData\Local\Temp\cchmqEOm.s:21850  .debug_str:0000000000001ddd .LASF4650
C:\Users\SOLDER~1\AppData\Local\Temp\cchmqEOm.s:24618  .debug_str:000000000000d15d .LASF4651
C:\Users\SOLDER~1\AppData\Local\Temp\cchmqEOm.s:27928  .debug_str:000000000001a880 .LASF4652
C:\Users\SOLDER~1\AppData\Local\Temp\cchmqEOm.s:30176  .debug_str:00000000000239c2 .LASF4653
C:\Users\SOLDER~1\AppData\Local\Temp\cchmqEOm.s:26268  .debug_str:0000000000013c9c .LASF4654
C:\Users\SOLDER~1\AppData\Local\Temp\cchmqEOm.s:23448  .debug_str:000000000000849e .LASF4655
C:\Users\SOLDER~1\AppData\Local\Temp\cchmqEOm.s:28380  .debug_str:000000000001c5a2 .LASF4656
C:\Users\SOLDER~1\AppData\Local\Temp\cchmqEOm.s:25306  .debug_str:000000000000fe57 .LASF4657
C:\Users\SOLDER~1\AppData\Local\Temp\cchmqEOm.s:23838  .debug_str:0000000000009dd2 .LASF4658
C:\Users\SOLDER~1\AppData\Local\Temp\cchmqEOm.s:24136  .debug_str:000000000000b1a7 .LASF4659
GAS LISTING C:\Users\SOLDER~1\AppData\Local\Temp\cchmqEOm.s 			page 156


C:\Users\SOLDER~1\AppData\Local\Temp\cchmqEOm.s:31786  .debug_str:000000000002a25b .LASF4660
C:\Users\SOLDER~1\AppData\Local\Temp\cchmqEOm.s:28536  .debug_str:000000000001cfed .LASF4661
C:\Users\SOLDER~1\AppData\Local\Temp\cchmqEOm.s:27848  .debug_str:000000000001a394 .LASF4662
C:\Users\SOLDER~1\AppData\Local\Temp\cchmqEOm.s:21402  .debug_str:0000000000000068 .LASF4663
C:\Users\SOLDER~1\AppData\Local\Temp\cchmqEOm.s:25818  .debug_str:0000000000011f21 .LASF4664
C:\Users\SOLDER~1\AppData\Local\Temp\cchmqEOm.s:27712  .debug_str:0000000000019b3c .LASF4665
C:\Users\SOLDER~1\AppData\Local\Temp\cchmqEOm.s:32344  .debug_str:000000000002c6e2 .LASF4666
C:\Users\SOLDER~1\AppData\Local\Temp\cchmqEOm.s:21700  .debug_str:0000000000001457 .LASF4667
C:\Users\SOLDER~1\AppData\Local\Temp\cchmqEOm.s:21490  .debug_str:00000000000005ed .LASF4668
C:\Users\SOLDER~1\AppData\Local\Temp\cchmqEOm.s:23016  .debug_str:00000000000068b7 .LASF4669
C:\Users\SOLDER~1\AppData\Local\Temp\cchmqEOm.s:24898  .debug_str:000000000000e3ea .LASF4670
C:\Users\SOLDER~1\AppData\Local\Temp\cchmqEOm.s:21832  .debug_str:0000000000001ca8 .LASF4671
C:\Users\SOLDER~1\AppData\Local\Temp\cchmqEOm.s:32412  .debug_str:000000000002cb60 .LASF4672
C:\Users\SOLDER~1\AppData\Local\Temp\cchmqEOm.s:29206  .debug_str:000000000001fbbd .LASF4673
C:\Users\SOLDER~1\AppData\Local\Temp\cchmqEOm.s:26898  .debug_str:000000000001663e .LASF4674
C:\Users\SOLDER~1\AppData\Local\Temp\cchmqEOm.s:22506  .debug_str:00000000000047f8 .LASF4675
C:\Users\SOLDER~1\AppData\Local\Temp\cchmqEOm.s:25960  .debug_str:0000000000012826 .LASF4676
C:\Users\SOLDER~1\AppData\Local\Temp\cchmqEOm.s:25284  .debug_str:000000000000fcc8 .LASF4677
C:\Users\SOLDER~1\AppData\Local\Temp\cchmqEOm.s:23398  .debug_str:0000000000008162 .LASF4678
C:\Users\SOLDER~1\AppData\Local\Temp\cchmqEOm.s:30486  .debug_str:0000000000024e32 .LASF4679
C:\Users\SOLDER~1\AppData\Local\Temp\cchmqEOm.s:26526  .debug_str:0000000000014e2d .LASF4680
C:\Users\SOLDER~1\AppData\Local\Temp\cchmqEOm.s:22092  .debug_str:0000000000002da0 .LASF4681
C:\Users\SOLDER~1\AppData\Local\Temp\cchmqEOm.s:23022  .debug_str:0000000000006943 .LASF4682
C:\Users\SOLDER~1\AppData\Local\Temp\cchmqEOm.s:21800  .debug_str:0000000000001a8a .LASF4683
C:\Users\SOLDER~1\AppData\Local\Temp\cchmqEOm.s:24454  .debug_str:000000000000c6aa .LASF4684
C:\Users\SOLDER~1\AppData\Local\Temp\cchmqEOm.s:31782  .debug_str:000000000002a21d .LASF4685
C:\Users\SOLDER~1\AppData\Local\Temp\cchmqEOm.s:31250  .debug_str:0000000000028017 .LASF4686
C:\Users\SOLDER~1\AppData\Local\Temp\cchmqEOm.s:28698  .debug_str:000000000001db0a .LASF4687
C:\Users\SOLDER~1\AppData\Local\Temp\cchmqEOm.s:31318  .debug_str:0000000000028489 .LASF4688
C:\Users\SOLDER~1\AppData\Local\Temp\cchmqEOm.s:29296  .debug_str:00000000000201b3 .LASF4689
C:\Users\SOLDER~1\AppData\Local\Temp\cchmqEOm.s:30768  .debug_str:0000000000026055 .LASF4690
C:\Users\SOLDER~1\AppData\Local\Temp\cchmqEOm.s:21674  .debug_str:00000000000012a6 .LASF4691
C:\Users\SOLDER~1\AppData\Local\Temp\cchmqEOm.s:29146  .debug_str:000000000001f7b5 .LASF4692
C:\Users\SOLDER~1\AppData\Local\Temp\cchmqEOm.s:30012  .debug_str:0000000000022f0b .LASF4693
C:\Users\SOLDER~1\AppData\Local\Temp\cchmqEOm.s:31582  .debug_str:000000000002952f .LASF4694
C:\Users\SOLDER~1\AppData\Local\Temp\cchmqEOm.s:28738  .debug_str:000000000001dd69 .LASF4695
C:\Users\SOLDER~1\AppData\Local\Temp\cchmqEOm.s:21776  .debug_str:00000000000018ef .LASF4696
C:\Users\SOLDER~1\AppData\Local\Temp\cchmqEOm.s:26510  .debug_str:0000000000014d24 .LASF4697
C:\Users\SOLDER~1\AppData\Local\Temp\cchmqEOm.s:23296  .debug_str:0000000000007a94 .LASF4698
C:\Users\SOLDER~1\AppData\Local\Temp\cchmqEOm.s:32076  .debug_str:000000000002b52d .LASF4699
C:\Users\SOLDER~1\AppData\Local\Temp\cchmqEOm.s:28558  .debug_str:000000000001d19b .LASF4700
C:\Users\SOLDER~1\AppData\Local\Temp\cchmqEOm.s:23782  .debug_str:0000000000009a96 .LASF4701
C:\Users\SOLDER~1\AppData\Local\Temp\cchmqEOm.s:32728  .debug_str:000000000002dfcc .LASF4702
C:\Users\SOLDER~1\AppData\Local\Temp\cchmqEOm.s:22036  .debug_str:0000000000002a39 .LASF4703
C:\Users\SOLDER~1\AppData\Local\Temp\cchmqEOm.s:30490  .debug_str:0000000000024e78 .LASF4704
C:\Users\SOLDER~1\AppData\Local\Temp\cchmqEOm.s:27334  .debug_str:0000000000018236 .LASF4705
C:\Users\SOLDER~1\AppData\Local\Temp\cchmqEOm.s:31384  .debug_str:00000000000288d4 .LASF4706
C:\Users\SOLDER~1\AppData\Local\Temp\cchmqEOm.s:25736  .debug_str:00000000000119dd .LASF4707
C:\Users\SOLDER~1\AppData\Local\Temp\cchmqEOm.s:24234  .debug_str:000000000000b822 .LASF4708
C:\Users\SOLDER~1\AppData\Local\Temp\cchmqEOm.s:27412  .debug_str:0000000000018773 .LASF4709
C:\Users\SOLDER~1\AppData\Local\Temp\cchmqEOm.s:28442  .debug_str:000000000001c9c1 .LASF4710
C:\Users\SOLDER~1\AppData\Local\Temp\cchmqEOm.s:29428  .debug_str:00000000000209f3 .LASF4711
C:\Users\SOLDER~1\AppData\Local\Temp\cchmqEOm.s:27272  .debug_str:0000000000017e1f .LASF4712
C:\Users\SOLDER~1\AppData\Local\Temp\cchmqEOm.s:28086  .debug_str:000000000001b324 .LASF4713
C:\Users\SOLDER~1\AppData\Local\Temp\cchmqEOm.s:25466  .debug_str:00000000000108a0 .LASF4714
C:\Users\SOLDER~1\AppData\Local\Temp\cchmqEOm.s:29450  .debug_str:0000000000020b71 .LASF4715
C:\Users\SOLDER~1\AppData\Local\Temp\cchmqEOm.s:32044  .debug_str:000000000002b33f .LASF4716
GAS LISTING C:\Users\SOLDER~1\AppData\Local\Temp\cchmqEOm.s 			page 157


C:\Users\SOLDER~1\AppData\Local\Temp\cchmqEOm.s:31128  .debug_str:000000000002787c .LASF4717
C:\Users\SOLDER~1\AppData\Local\Temp\cchmqEOm.s:31570  .debug_str:0000000000029477 .LASF4718
C:\Users\SOLDER~1\AppData\Local\Temp\cchmqEOm.s:30006  .debug_str:0000000000022eac .LASF4719
C:\Users\SOLDER~1\AppData\Local\Temp\cchmqEOm.s:25862  .debug_str:0000000000012217 .LASF4720
C:\Users\SOLDER~1\AppData\Local\Temp\cchmqEOm.s:27636  .debug_str:0000000000019627 .LASF4721
C:\Users\SOLDER~1\AppData\Local\Temp\cchmqEOm.s:21590  .debug_str:0000000000000d6b .LASF4722
C:\Users\SOLDER~1\AppData\Local\Temp\cchmqEOm.s:29090  .debug_str:000000000001f40c .LASF4723
C:\Users\SOLDER~1\AppData\Local\Temp\cchmqEOm.s:23712  .debug_str:0000000000009621 .LASF4724
C:\Users\SOLDER~1\AppData\Local\Temp\cchmqEOm.s:29138  .debug_str:000000000001f730 .LASF4725
C:\Users\SOLDER~1\AppData\Local\Temp\cchmqEOm.s:27730  .debug_str:0000000000019c7f .LASF4726
C:\Users\SOLDER~1\AppData\Local\Temp\cchmqEOm.s:31388  .debug_str:000000000002890e .LASF4727
C:\Users\SOLDER~1\AppData\Local\Temp\cchmqEOm.s:23784  .debug_str:0000000000009ab1 .LASF4728
C:\Users\SOLDER~1\AppData\Local\Temp\cchmqEOm.s:31020  .debug_str:000000000002718d .LASF4729
C:\Users\SOLDER~1\AppData\Local\Temp\cchmqEOm.s:29990  .debug_str:0000000000022db1 .LASF4730
C:\Users\SOLDER~1\AppData\Local\Temp\cchmqEOm.s:32408  .debug_str:000000000002cb27 .LASF4731
C:\Users\SOLDER~1\AppData\Local\Temp\cchmqEOm.s:30212  .debug_str:0000000000023c45 .LASF4732
C:\Users\SOLDER~1\AppData\Local\Temp\cchmqEOm.s:31246  .debug_str:0000000000027fd6 .LASF4733
C:\Users\SOLDER~1\AppData\Local\Temp\cchmqEOm.s:31698  .debug_str:0000000000029cd0 .LASF4734
C:\Users\SOLDER~1\AppData\Local\Temp\cchmqEOm.s:24204  .debug_str:000000000000b63a .LASF4735
C:\Users\SOLDER~1\AppData\Local\Temp\cchmqEOm.s:22894  .debug_str:0000000000006039 .LASF4736
C:\Users\SOLDER~1\AppData\Local\Temp\cchmqEOm.s:28542  .debug_str:000000000001d06d .LASF4737
C:\Users\SOLDER~1\AppData\Local\Temp\cchmqEOm.s:31170  .debug_str:0000000000027b3b .LASF4738
C:\Users\SOLDER~1\AppData\Local\Temp\cchmqEOm.s:24806  .debug_str:000000000000dd76 .LASF4739
C:\Users\SOLDER~1\AppData\Local\Temp\cchmqEOm.s:22306  .debug_str:0000000000003b73 .LASF4740
C:\Users\SOLDER~1\AppData\Local\Temp\cchmqEOm.s:22410  .debug_str:000000000000421c .LASF4741
C:\Users\SOLDER~1\AppData\Local\Temp\cchmqEOm.s:30232  .debug_str:0000000000023d9c .LASF4742
C:\Users\SOLDER~1\AppData\Local\Temp\cchmqEOm.s:30572  .debug_str:00000000000253e9 .LASF4743
C:\Users\SOLDER~1\AppData\Local\Temp\cchmqEOm.s:26092  .debug_str:0000000000013097 .LASF4744
C:\Users\SOLDER~1\AppData\Local\Temp\cchmqEOm.s:24212  .debug_str:000000000000b6c6 .LASF4745
C:\Users\SOLDER~1\AppData\Local\Temp\cchmqEOm.s:30752  .debug_str:0000000000025f66 .LASF4746
C:\Users\SOLDER~1\AppData\Local\Temp\cchmqEOm.s:24740  .debug_str:000000000000d99b .LASF4747
C:\Users\SOLDER~1\AppData\Local\Temp\cchmqEOm.s:21670  .debug_str:0000000000001270 .LASF4748
C:\Users\SOLDER~1\AppData\Local\Temp\cchmqEOm.s:30208  .debug_str:0000000000023c04 .LASF4749
C:\Users\SOLDER~1\AppData\Local\Temp\cchmqEOm.s:31968  .debug_str:000000000002ae50 .LASF4750
C:\Users\SOLDER~1\AppData\Local\Temp\cchmqEOm.s:25178  .debug_str:000000000000f5a5 .LASF4751
C:\Users\SOLDER~1\AppData\Local\Temp\cchmqEOm.s:24356  .debug_str:000000000000bff2 .LASF4752
C:\Users\SOLDER~1\AppData\Local\Temp\cchmqEOm.s:30642  .debug_str:0000000000025844 .LASF4753
C:\Users\SOLDER~1\AppData\Local\Temp\cchmqEOm.s:27596  .debug_str:00000000000193b5 .LASF4754
C:\Users\SOLDER~1\AppData\Local\Temp\cchmqEOm.s:21556  .debug_str:0000000000000b03 .LASF4755
C:\Users\SOLDER~1\AppData\Local\Temp\cchmqEOm.s:33058  .debug_str:000000000002f45b .LASF4756
C:\Users\SOLDER~1\AppData\Local\Temp\cchmqEOm.s:29904  .debug_str:000000000002284a .LASF4757
C:\Users\SOLDER~1\AppData\Local\Temp\cchmqEOm.s:30378  .debug_str:00000000000246f2 .LASF4758
C:\Users\SOLDER~1\AppData\Local\Temp\cchmqEOm.s:22676  .debug_str:0000000000005250 .LASF4759
C:\Users\SOLDER~1\AppData\Local\Temp\cchmqEOm.s:25200  .debug_str:000000000000f728 .LASF4760
C:\Users\SOLDER~1\AppData\Local\Temp\cchmqEOm.s:30638  .debug_str:000000000002580e .LASF4761
C:\Users\SOLDER~1\AppData\Local\Temp\cchmqEOm.s:27592  .debug_str:0000000000019375 .LASF4762
C:\Users\SOLDER~1\AppData\Local\Temp\cchmqEOm.s:24434  .debug_str:000000000000c541 .LASF4763
C:\Users\SOLDER~1\AppData\Local\Temp\cchmqEOm.s:23698  .debug_str:0000000000009513 .LASF4764
C:\Users\SOLDER~1\AppData\Local\Temp\cchmqEOm.s:23624  .debug_str:0000000000009025 .LASF4765
C:\Users\SOLDER~1\AppData\Local\Temp\cchmqEOm.s:26836  .debug_str:0000000000016227 .LASF4766
C:\Users\SOLDER~1\AppData\Local\Temp\cchmqEOm.s:29166  .debug_str:000000000001f916 .LASF4767
C:\Users\SOLDER~1\AppData\Local\Temp\cchmqEOm.s:26034  .debug_str:0000000000012cc4 .LASF4768
C:\Users\SOLDER~1\AppData\Local\Temp\cchmqEOm.s:32670  .debug_str:000000000002dc0f .LASF4769
C:\Users\SOLDER~1\AppData\Local\Temp\cchmqEOm.s:29226  .debug_str:000000000001fd2e .LASF4770
C:\Users\SOLDER~1\AppData\Local\Temp\cchmqEOm.s:25212  .debug_str:000000000000f7e2 .LASF4771
C:\Users\SOLDER~1\AppData\Local\Temp\cchmqEOm.s:25134  .debug_str:000000000000f2d1 .LASF4772
C:\Users\SOLDER~1\AppData\Local\Temp\cchmqEOm.s:22200  .debug_str:00000000000034c3 .LASF4773
GAS LISTING C:\Users\SOLDER~1\AppData\Local\Temp\cchmqEOm.s 			page 158


C:\Users\SOLDER~1\AppData\Local\Temp\cchmqEOm.s:30762  .debug_str:0000000000025ff5 .LASF4774
C:\Users\SOLDER~1\AppData\Local\Temp\cchmqEOm.s:21720  .debug_str:00000000000015b5 .LASF4775
C:\Users\SOLDER~1\AppData\Local\Temp\cchmqEOm.s:22328  .debug_str:0000000000003cd8 .LASF4776
C:\Users\SOLDER~1\AppData\Local\Temp\cchmqEOm.s:25704  .debug_str:0000000000011800 .LASF4777
C:\Users\SOLDER~1\AppData\Local\Temp\cchmqEOm.s:22744  .debug_str:0000000000005645 .LASF4778
C:\Users\SOLDER~1\AppData\Local\Temp\cchmqEOm.s:32052  .debug_str:000000000002b3b6 .LASF4779
C:\Users\SOLDER~1\AppData\Local\Temp\cchmqEOm.s:32318  .debug_str:000000000002c4f3 .LASF4780
C:\Users\SOLDER~1\AppData\Local\Temp\cchmqEOm.s:24968  .debug_str:000000000000e848 .LASF4781
C:\Users\SOLDER~1\AppData\Local\Temp\cchmqEOm.s:29168  .debug_str:000000000001f932 .LASF4782
C:\Users\SOLDER~1\AppData\Local\Temp\cchmqEOm.s:24870  .debug_str:000000000000e1bc .LASF4783
C:\Users\SOLDER~1\AppData\Local\Temp\cchmqEOm.s:24270  .debug_str:000000000000ba5f .LASF4784
C:\Users\SOLDER~1\AppData\Local\Temp\cchmqEOm.s:29566  .debug_str:00000000000212d7 .LASF4785
C:\Users\SOLDER~1\AppData\Local\Temp\cchmqEOm.s:21846  .debug_str:0000000000001da9 .LASF4786
C:\Users\SOLDER~1\AppData\Local\Temp\cchmqEOm.s:28054  .debug_str:000000000001b0c4 .LASF4787
C:\Users\SOLDER~1\AppData\Local\Temp\cchmqEOm.s:32972  .debug_str:000000000002ef0a .LASF4788
C:\Users\SOLDER~1\AppData\Local\Temp\cchmqEOm.s:23966  .debug_str:000000000000a66f .LASF4789
C:\Users\SOLDER~1\AppData\Local\Temp\cchmqEOm.s:32622  .debug_str:000000000002d92c .LASF4790
C:\Users\SOLDER~1\AppData\Local\Temp\cchmqEOm.s:22372  .debug_str:0000000000003fad .LASF4791
C:\Users\SOLDER~1\AppData\Local\Temp\cchmqEOm.s:31090  .debug_str:000000000002761b .LASF4792
C:\Users\SOLDER~1\AppData\Local\Temp\cchmqEOm.s:31310  .debug_str:000000000002840a .LASF4793
C:\Users\SOLDER~1\AppData\Local\Temp\cchmqEOm.s:23530  .debug_str:00000000000089bb .LASF4794
C:\Users\SOLDER~1\AppData\Local\Temp\cchmqEOm.s:23976  .debug_str:000000000000a726 .LASF4795
C:\Users\SOLDER~1\AppData\Local\Temp\cchmqEOm.s:31986  .debug_str:000000000002af62 .LASF4796
C:\Users\SOLDER~1\AppData\Local\Temp\cchmqEOm.s:27076  .debug_str:0000000000017105 .LASF4797
C:\Users\SOLDER~1\AppData\Local\Temp\cchmqEOm.s:22226  .debug_str:000000000000363f .LASF4798
C:\Users\SOLDER~1\AppData\Local\Temp\cchmqEOm.s:24360  .debug_str:000000000000c033 .LASF4799
C:\Users\SOLDER~1\AppData\Local\Temp\cchmqEOm.s:25484  .debug_str:000000000001099f .LASF4800
C:\Users\SOLDER~1\AppData\Local\Temp\cchmqEOm.s:31656  .debug_str:00000000000299f6 .LASF4801
C:\Users\SOLDER~1\AppData\Local\Temp\cchmqEOm.s:23094  .debug_str:0000000000006d72 .LASF4802
C:\Users\SOLDER~1\AppData\Local\Temp\cchmqEOm.s:29946  .debug_str:0000000000022ab5 .LASF4803
C:\Users\SOLDER~1\AppData\Local\Temp\cchmqEOm.s:25296  .debug_str:000000000000fd93 .LASF4804
C:\Users\SOLDER~1\AppData\Local\Temp\cchmqEOm.s:29550  .debug_str:00000000000211d8 .LASF4805
C:\Users\SOLDER~1\AppData\Local\Temp\cchmqEOm.s:32542  .debug_str:000000000002d39f .LASF4806
C:\Users\SOLDER~1\AppData\Local\Temp\cchmqEOm.s:22938  .debug_str:0000000000006349 .LASF4807
C:\Users\SOLDER~1\AppData\Local\Temp\cchmqEOm.s:30546  .debug_str:0000000000025240 .LASF4808
C:\Users\SOLDER~1\AppData\Local\Temp\cchmqEOm.s:23654  .debug_str:0000000000009214 .LASF4809
C:\Users\SOLDER~1\AppData\Local\Temp\cchmqEOm.s:25310  .debug_str:000000000000feb5 .LASF4810
C:\Users\SOLDER~1\AppData\Local\Temp\cchmqEOm.s:28202  .debug_str:000000000001ba5f .LASF4811
C:\Users\SOLDER~1\AppData\Local\Temp\cchmqEOm.s:32806  .debug_str:000000000002e4a2 .LASF4812
C:\Users\SOLDER~1\AppData\Local\Temp\cchmqEOm.s:32104  .debug_str:000000000002b74c .LASF4813
C:\Users\SOLDER~1\AppData\Local\Temp\cchmqEOm.s:23472  .debug_str:0000000000008622 .LASF4814
C:\Users\SOLDER~1\AppData\Local\Temp\cchmqEOm.s:25610  .debug_str:00000000000111c8 .LASF4815
C:\Users\SOLDER~1\AppData\Local\Temp\cchmqEOm.s:24666  .debug_str:000000000000d49e .LASF4816
C:\Users\SOLDER~1\AppData\Local\Temp\cchmqEOm.s:23596  .debug_str:0000000000008e39 .LASF4817
C:\Users\SOLDER~1\AppData\Local\Temp\cchmqEOm.s:22210  .debug_str:000000000000355c .LASF4818
C:\Users\SOLDER~1\AppData\Local\Temp\cchmqEOm.s:21396  .debug_str:0000000000000000 .LASF4819
C:\Users\SOLDER~1\AppData\Local\Temp\cchmqEOm.s:29032  .debug_str:000000000001f06d .LASF4820
C:\Users\SOLDER~1\AppData\Local\Temp\cchmqEOm.s:29698  .debug_str:0000000000021b5a .LASF4821
C:\Users\SOLDER~1\AppData\Local\Temp\cchmqEOm.s:32746  .debug_str:000000000002e0cf .LASF4822
C:\Users\SOLDER~1\AppData\Local\Temp\cchmqEOm.s:23630  .debug_str:0000000000009084 .LASF4823
C:\Users\SOLDER~1\AppData\Local\Temp\cchmqEOm.s:22814  .debug_str:0000000000005b20 .LASF4824
C:\Users\SOLDER~1\AppData\Local\Temp\cchmqEOm.s:21566  .debug_str:0000000000000bc2 .LASF4825
C:\Users\SOLDER~1\AppData\Local\Temp\cchmqEOm.s:30134  .debug_str:00000000000236ec .LASF4826
C:\Users\SOLDER~1\AppData\Local\Temp\cchmqEOm.s:25012  .debug_str:000000000000eb6b .LASF4827
C:\Users\SOLDER~1\AppData\Local\Temp\cchmqEOm.s:27096  .debug_str:0000000000017255 .LASF4828
C:\Users\SOLDER~1\AppData\Local\Temp\cchmqEOm.s:27218  .debug_str:0000000000017aa7 .LASF4829
C:\Users\SOLDER~1\AppData\Local\Temp\cchmqEOm.s:21996  .debug_str:0000000000002779 .LASF4830
GAS LISTING C:\Users\SOLDER~1\AppData\Local\Temp\cchmqEOm.s 			page 159


C:\Users\SOLDER~1\AppData\Local\Temp\cchmqEOm.s:26582  .debug_str:00000000000151d6 .LASF4831
C:\Users\SOLDER~1\AppData\Local\Temp\cchmqEOm.s:31282  .debug_str:00000000000281fe .LASF4832
C:\Users\SOLDER~1\AppData\Local\Temp\cchmqEOm.s:26770  .debug_str:0000000000015df8 .LASF4833
C:\Users\SOLDER~1\AppData\Local\Temp\cchmqEOm.s:22224  .debug_str:0000000000003627 .LASF4834
C:\Users\SOLDER~1\AppData\Local\Temp\cchmqEOm.s:29694  .debug_str:0000000000021b20 .LASF4835
C:\Users\SOLDER~1\AppData\Local\Temp\cchmqEOm.s:26428  .debug_str:00000000000147b3 .LASF4836
C:\Users\SOLDER~1\AppData\Local\Temp\cchmqEOm.s:23508  .debug_str:0000000000008879 .LASF4837
C:\Users\SOLDER~1\AppData\Local\Temp\cchmqEOm.s:24920  .debug_str:000000000000e575 .LASF4838
C:\Users\SOLDER~1\AppData\Local\Temp\cchmqEOm.s:29876  .debug_str:00000000000226a2 .LASF4839
C:\Users\SOLDER~1\AppData\Local\Temp\cchmqEOm.s:29616  .debug_str:0000000000021645 .LASF4840
C:\Users\SOLDER~1\AppData\Local\Temp\cchmqEOm.s:28026  .debug_str:000000000001af10 .LASF4841
C:\Users\SOLDER~1\AppData\Local\Temp\cchmqEOm.s:27036  .debug_str:0000000000016ed4 .LASF4842
C:\Users\SOLDER~1\AppData\Local\Temp\cchmqEOm.s:22298  .debug_str:0000000000003ae9 .LASF4843
C:\Users\SOLDER~1\AppData\Local\Temp\cchmqEOm.s:27066  .debug_str:0000000000017075 .LASF4844
C:\Users\SOLDER~1\AppData\Local\Temp\cchmqEOm.s:31634  .debug_str:000000000002987c .LASF4845
C:\Users\SOLDER~1\AppData\Local\Temp\cchmqEOm.s:24788  .debug_str:000000000000dc6d .LASF4846
C:\Users\SOLDER~1\AppData\Local\Temp\cchmqEOm.s:31422  .debug_str:0000000000028b57 .LASF4847
C:\Users\SOLDER~1\AppData\Local\Temp\cchmqEOm.s:31044  .debug_str:0000000000027309 .LASF4848
C:\Users\SOLDER~1\AppData\Local\Temp\cchmqEOm.s:26236  .debug_str:0000000000013a15 .LASF4849
C:\Users\SOLDER~1\AppData\Local\Temp\cchmqEOm.s:29448  .debug_str:0000000000020b57 .LASF4850
C:\Users\SOLDER~1\AppData\Local\Temp\cchmqEOm.s:28000  .debug_str:000000000001ad77 .LASF4852
C:\Users\SOLDER~1\AppData\Local\Temp\cchmqEOm.s:29926  .debug_str:0000000000022964 .LASF4853
C:\Users\SOLDER~1\AppData\Local\Temp\cchmqEOm.s:22122  .debug_str:0000000000002fb7 .LASF4854
C:\Users\SOLDER~1\AppData\Local\Temp\cchmqEOm.s:26026  .debug_str:0000000000012c20 .LASF4855
C:\Users\SOLDER~1\AppData\Local\Temp\cchmqEOm.s:24930  .debug_str:000000000000e621 .LASF4856
C:\Users\SOLDER~1\AppData\Local\Temp\cchmqEOm.s:28212  .debug_str:000000000001bae9 .LASF4857
C:\Users\SOLDER~1\AppData\Local\Temp\cchmqEOm.s:23432  .debug_str:000000000000838d .LASF4858
C:\Users\SOLDER~1\AppData\Local\Temp\cchmqEOm.s:24038  .debug_str:000000000000ab53 .LASF4859
C:\Users\SOLDER~1\AppData\Local\Temp\cchmqEOm.s:31994  .debug_str:000000000002aff2 .LASF4860
C:\Users\SOLDER~1\AppData\Local\Temp\cchmqEOm.s:22312  .debug_str:0000000000003bde .LASF4861
C:\Users\SOLDER~1\AppData\Local\Temp\cchmqEOm.s:31010  .debug_str:00000000000270d9 .LASF4862
C:\Users\SOLDER~1\AppData\Local\Temp\cchmqEOm.s:29712  .debug_str:0000000000021c59 .LASF4863
C:\Users\SOLDER~1\AppData\Local\Temp\cchmqEOm.s:22446  .debug_str:0000000000004444 .LASF4864
C:\Users\SOLDER~1\AppData\Local\Temp\cchmqEOm.s:30028  .debug_str:0000000000023026 .LASF4865
C:\Users\SOLDER~1\AppData\Local\Temp\cchmqEOm.s:22278  .debug_str:0000000000003991 .LASF4866
C:\Users\SOLDER~1\AppData\Local\Temp\cchmqEOm.s:22466  .debug_str:000000000000458a .LASF4867
C:\Users\SOLDER~1\AppData\Local\Temp\cchmqEOm.s:24916  .debug_str:000000000000e528 .LASF4868
C:\Users\SOLDER~1\AppData\Local\Temp\cchmqEOm.s:31284  .debug_str:0000000000028216 .LASF4869
C:\Users\SOLDER~1\AppData\Local\Temp\cchmqEOm.s:22490  .debug_str:000000000000471c .LASF4870
C:\Users\SOLDER~1\AppData\Local\Temp\cchmqEOm.s:21542  .debug_str:0000000000000a0b .LASF4871
C:\Users\SOLDER~1\AppData\Local\Temp\cchmqEOm.s:29118  .debug_str:000000000001f5cb .LASF4872
C:\Users\SOLDER~1\AppData\Local\Temp\cchmqEOm.s:24262  .debug_str:000000000000b9c1 .LASF4873
C:\Users\SOLDER~1\AppData\Local\Temp\cchmqEOm.s:26890  .debug_str:00000000000165ba .LASF4874
C:\Users\SOLDER~1\AppData\Local\Temp\cchmqEOm.s:32704  .debug_str:000000000002de38 .LASF4875
C:\Users\SOLDER~1\AppData\Local\Temp\cchmqEOm.s:21986  .debug_str:00000000000026b1 .LASF4876
C:\Users\SOLDER~1\AppData\Local\Temp\cchmqEOm.s:22486  .debug_str:00000000000046cc .LASF4877
C:\Users\SOLDER~1\AppData\Local\Temp\cchmqEOm.s:29576  .debug_str:0000000000021380 .LASF4878
C:\Users\SOLDER~1\AppData\Local\Temp\cchmqEOm.s:31752  .debug_str:000000000002a01d .LASF4879
C:\Users\SOLDER~1\AppData\Local\Temp\cchmqEOm.s:31270  .debug_str:000000000002812b .LASF4880
C:\Users\SOLDER~1\AppData\Local\Temp\cchmqEOm.s:31084  .debug_str:00000000000275a8 .LASF4881
C:\Users\SOLDER~1\AppData\Local\Temp\cchmqEOm.s:31776  .debug_str:000000000002a1a6 .LASF4882
C:\Users\SOLDER~1\AppData\Local\Temp\cchmqEOm.s:26422  .debug_str:000000000001474d .LASF4883
C:\Users\SOLDER~1\AppData\Local\Temp\cchmqEOm.s:31834  .debug_str:000000000002a58f .LASF4884
C:\Users\SOLDER~1\AppData\Local\Temp\cchmqEOm.s:29370  .debug_str:0000000000020648 .LASF4885
C:\Users\SOLDER~1\AppData\Local\Temp\cchmqEOm.s:30462  .debug_str:0000000000024c8a .LASF4886
C:\Users\SOLDER~1\AppData\Local\Temp\cchmqEOm.s:26056  .debug_str:0000000000012e2e .LASF4887
C:\Users\SOLDER~1\AppData\Local\Temp\cchmqEOm.s:21858  .debug_str:0000000000001e5a .LASF4888
GAS LISTING C:\Users\SOLDER~1\AppData\Local\Temp\cchmqEOm.s 			page 160


C:\Users\SOLDER~1\AppData\Local\Temp\cchmqEOm.s:22692  .debug_str:000000000000534a .LASF4889
C:\Users\SOLDER~1\AppData\Local\Temp\cchmqEOm.s:29738  .debug_str:0000000000021dfc .LASF4890
C:\Users\SOLDER~1\AppData\Local\Temp\cchmqEOm.s:30970  .debug_str:0000000000026e38 .LASF4891
C:\Users\SOLDER~1\AppData\Local\Temp\cchmqEOm.s:25616  .debug_str:000000000001121d .LASF4892
C:\Users\SOLDER~1\AppData\Local\Temp\cchmqEOm.s:30392  .debug_str:00000000000247e8 .LASF4893
C:\Users\SOLDER~1\AppData\Local\Temp\cchmqEOm.s:28164  .debug_str:000000000001b7e0 .LASF4894
C:\Users\SOLDER~1\AppData\Local\Temp\cchmqEOm.s:25492  .debug_str:0000000000010a38 .LASF4895
C:\Users\SOLDER~1\AppData\Local\Temp\cchmqEOm.s:32504  .debug_str:000000000002d126 .LASF4896
C:\Users\SOLDER~1\AppData\Local\Temp\cchmqEOm.s:30796  .debug_str:0000000000026233 .LASF4897
C:\Users\SOLDER~1\AppData\Local\Temp\cchmqEOm.s:24802  .debug_str:000000000000dd3b .LASF4898
C:\Users\SOLDER~1\AppData\Local\Temp\cchmqEOm.s:32770  .debug_str:000000000002e256 .LASF4899
C:\Users\SOLDER~1\AppData\Local\Temp\cchmqEOm.s:23326  .debug_str:0000000000007c82 .LASF4900
C:\Users\SOLDER~1\AppData\Local\Temp\cchmqEOm.s:27594  .debug_str:0000000000019392 .LASF4901
C:\Users\SOLDER~1\AppData\Local\Temp\cchmqEOm.s:24530  .debug_str:000000000000cbb5 .LASF4902
C:\Users\SOLDER~1\AppData\Local\Temp\cchmqEOm.s:30782  .debug_str:0000000000026156 .LASF4903
C:\Users\SOLDER~1\AppData\Local\Temp\cchmqEOm.s:31172  .debug_str:0000000000027b5b .LASF4904
C:\Users\SOLDER~1\AppData\Local\Temp\cchmqEOm.s:28774  .debug_str:000000000001df69 .LASF4905
C:\Users\SOLDER~1\AppData\Local\Temp\cchmqEOm.s:22096  .debug_str:0000000000002de6 .LASF4906
C:\Users\SOLDER~1\AppData\Local\Temp\cchmqEOm.s:29404  .debug_str:0000000000020866 .LASF4907
C:\Users\SOLDER~1\AppData\Local\Temp\cchmqEOm.s:30566  .debug_str:0000000000025387 .LASF4908
C:\Users\SOLDER~1\AppData\Local\Temp\cchmqEOm.s:29930  .debug_str:00000000000229aa .LASF4909
C:\Users\SOLDER~1\AppData\Local\Temp\cchmqEOm.s:23290  .debug_str:0000000000007a26 .LASF4910
C:\Users\SOLDER~1\AppData\Local\Temp\cchmqEOm.s:24538  .debug_str:000000000000cc42 .LASF4911
C:\Users\SOLDER~1\AppData\Local\Temp\cchmqEOm.s:26806  .debug_str:000000000001603e .LASF4912
C:\Users\SOLDER~1\AppData\Local\Temp\cchmqEOm.s:30508  .debug_str:0000000000024fac .LASF4913
C:\Users\SOLDER~1\AppData\Local\Temp\cchmqEOm.s:31390  .debug_str:000000000002892a .LASF4914
C:\Users\SOLDER~1\AppData\Local\Temp\cchmqEOm.s:25696  .debug_str:0000000000011764 .LASF4915
C:\Users\SOLDER~1\AppData\Local\Temp\cchmqEOm.s:21580  .debug_str:0000000000000cb4 .LASF4916
C:\Users\SOLDER~1\AppData\Local\Temp\cchmqEOm.s:28036  .debug_str:000000000001af99 .LASF4917
C:\Users\SOLDER~1\AppData\Local\Temp\cchmqEOm.s:30320  .debug_str:000000000002432a .LASF4918
C:\Users\SOLDER~1\AppData\Local\Temp\cchmqEOm.s:30604  .debug_str:00000000000255fa .LASF4919
C:\Users\SOLDER~1\AppData\Local\Temp\cchmqEOm.s:26578  .debug_str:000000000001518e .LASF4920
C:\Users\SOLDER~1\AppData\Local\Temp\cchmqEOm.s:30010  .debug_str:0000000000022ee8 .LASF4921
C:\Users\SOLDER~1\AppData\Local\Temp\cchmqEOm.s:31572  .debug_str:0000000000029493 .LASF4922
C:\Users\SOLDER~1\AppData\Local\Temp\cchmqEOm.s:24252  .debug_str:000000000000b924 .LASF4923
C:\Users\SOLDER~1\AppData\Local\Temp\cchmqEOm.s:22408  .debug_str:00000000000041f9 .LASF4924
C:\Users\SOLDER~1\AppData\Local\Temp\cchmqEOm.s:28180  .debug_str:000000000001b8e5 .LASF4925
C:\Users\SOLDER~1\AppData\Local\Temp\cchmqEOm.s:29368  .debug_str:0000000000020625 .LASF4926
C:\Users\SOLDER~1\AppData\Local\Temp\cchmqEOm.s:25856  .debug_str:00000000000121af .LASF4927
C:\Users\SOLDER~1\AppData\Local\Temp\cchmqEOm.s:32938  .debug_str:000000000002ecfd .LASF4928
C:\Users\SOLDER~1\AppData\Local\Temp\cchmqEOm.s:24964  .debug_str:000000000000e80b .LASF4929
C:\Users\SOLDER~1\AppData\Local\Temp\cchmqEOm.s:31778  .debug_str:000000000002a1d5 .LASF4930
C:\Users\SOLDER~1\AppData\Local\Temp\cchmqEOm.s:32600  .debug_str:000000000002d7b5 .LASF4931
C:\Users\SOLDER~1\AppData\Local\Temp\cchmqEOm.s:28610  .debug_str:000000000001d50d .LASF4932
C:\Users\SOLDER~1\AppData\Local\Temp\cchmqEOm.s:32068  .debug_str:000000000002b496 .LASF4933
C:\Users\SOLDER~1\AppData\Local\Temp\cchmqEOm.s:28696  .debug_str:000000000001dae5 .LASF4934
C:\Users\SOLDER~1\AppData\Local\Temp\cchmqEOm.s:29342  .debug_str:0000000000020475 .LASF4935
C:\Users\SOLDER~1\AppData\Local\Temp\cchmqEOm.s:27608  .debug_str:0000000000019469 .LASF4936
C:\Users\SOLDER~1\AppData\Local\Temp\cchmqEOm.s:23298  .debug_str:0000000000007aaf .LASF4937
C:\Users\SOLDER~1\AppData\Local\Temp\cchmqEOm.s:25682  .debug_str:0000000000011650 .LASF4938
C:\Users\SOLDER~1\AppData\Local\Temp\cchmqEOm.s:25894  .debug_str:0000000000012415 .LASF4939
C:\Users\SOLDER~1\AppData\Local\Temp\cchmqEOm.s:26942  .debug_str:0000000000016907 .LASF4940
C:\Users\SOLDER~1\AppData\Local\Temp\cchmqEOm.s:28966  .debug_str:000000000001ebed .LASF4941
C:\Users\SOLDER~1\AppData\Local\Temp\cchmqEOm.s:30624  .debug_str:000000000002573e .LASF4942
C:\Users\SOLDER~1\AppData\Local\Temp\cchmqEOm.s:30054  .debug_str:00000000000231cc .LASF4943
C:\Users\SOLDER~1\AppData\Local\Temp\cchmqEOm.s:29480  .debug_str:0000000000020d51 .LASF4944
C:\Users\SOLDER~1\AppData\Local\Temp\cchmqEOm.s:29772  .debug_str:0000000000022001 .LASF4945
GAS LISTING C:\Users\SOLDER~1\AppData\Local\Temp\cchmqEOm.s 			page 161


C:\Users\SOLDER~1\AppData\Local\Temp\cchmqEOm.s:24986  .debug_str:000000000000e985 .LASF4946
C:\Users\SOLDER~1\AppData\Local\Temp\cchmqEOm.s:26050  .debug_str:0000000000012dc3 .LASF4947
C:\Users\SOLDER~1\AppData\Local\Temp\cchmqEOm.s:25930  .debug_str:0000000000012635 .LASF4948
C:\Users\SOLDER~1\AppData\Local\Temp\cchmqEOm.s:24660  .debug_str:000000000000d432 .LASF4949
C:\Users\SOLDER~1\AppData\Local\Temp\cchmqEOm.s:31490  .debug_str:0000000000028f97 .LASF4950
C:\Users\SOLDER~1\AppData\Local\Temp\cchmqEOm.s:21946  .debug_str:000000000000243d .LASF4951
C:\Users\SOLDER~1\AppData\Local\Temp\cchmqEOm.s:31358  .debug_str:000000000002872d .LASF4952
C:\Users\SOLDER~1\AppData\Local\Temp\cchmqEOm.s:26654  .debug_str:0000000000015667 .LASF4953
C:\Users\SOLDER~1\AppData\Local\Temp\cchmqEOm.s:24266  .debug_str:000000000000ba13 .LASF4954
C:\Users\SOLDER~1\AppData\Local\Temp\cchmqEOm.s:25386  .debug_str:000000000001036b .LASF4955
C:\Users\SOLDER~1\AppData\Local\Temp\cchmqEOm.s:32658  .debug_str:000000000002db6f .LASF4956
C:\Users\SOLDER~1\AppData\Local\Temp\cchmqEOm.s:26606  .debug_str:0000000000015358 .LASF4957
C:\Users\SOLDER~1\AppData\Local\Temp\cchmqEOm.s:22950  .debug_str:0000000000006429 .LASF4958
C:\Users\SOLDER~1\AppData\Local\Temp\cchmqEOm.s:28758  .debug_str:000000000001de9e .LASF4959
C:\Users\SOLDER~1\AppData\Local\Temp\cchmqEOm.s:23832  .debug_str:0000000000009d79 .LASF4960
C:\Users\SOLDER~1\AppData\Local\Temp\cchmqEOm.s:27964  .debug_str:000000000001aaea .LASF4961
C:\Users\SOLDER~1\AppData\Local\Temp\cchmqEOm.s:25424  .debug_str:00000000000105fc .LASF4962
C:\Users\SOLDER~1\AppData\Local\Temp\cchmqEOm.s:23822  .debug_str:0000000000009cd3 .LASF4963
C:\Users\SOLDER~1\AppData\Local\Temp\cchmqEOm.s:26916  .debug_str:0000000000016771 .LASF4964
C:\Users\SOLDER~1\AppData\Local\Temp\cchmqEOm.s:24162  .debug_str:000000000000b341 .LASF4965
C:\Users\SOLDER~1\AppData\Local\Temp\cchmqEOm.s:21752  .debug_str:000000000000179d .LASF4966
C:\Users\SOLDER~1\AppData\Local\Temp\cchmqEOm.s:23968  .debug_str:000000000000a689 .LASF4967
C:\Users\SOLDER~1\AppData\Local\Temp\cchmqEOm.s:24374  .debug_str:000000000000c128 .LASF4968
C:\Users\SOLDER~1\AppData\Local\Temp\cchmqEOm.s:27400  .debug_str:00000000000186ab .LASF4969
C:\Users\SOLDER~1\AppData\Local\Temp\cchmqEOm.s:27552  .debug_str:000000000001909b .LASF4970
C:\Users\SOLDER~1\AppData\Local\Temp\cchmqEOm.s:32142  .debug_str:000000000002b9a2 .LASF4971
C:\Users\SOLDER~1\AppData\Local\Temp\cchmqEOm.s:22480  .debug_str:0000000000004671 .LASF4972
C:\Users\SOLDER~1\AppData\Local\Temp\cchmqEOm.s:29200  .debug_str:000000000001fb5b .LASF4973
C:\Users\SOLDER~1\AppData\Local\Temp\cchmqEOm.s:25808  .debug_str:0000000000011e86 .LASF4974
C:\Users\SOLDER~1\AppData\Local\Temp\cchmqEOm.s:21704  .debug_str:00000000000014a1 .LASF4975
C:\Users\SOLDER~1\AppData\Local\Temp\cchmqEOm.s:22280  .debug_str:00000000000039b9 .LASF4976
C:\Users\SOLDER~1\AppData\Local\Temp\cchmqEOm.s:25626  .debug_str:00000000000112d3 .LASF4977
C:\Users\SOLDER~1\AppData\Local\Temp\cchmqEOm.s:22044  .debug_str:0000000000002ab1 .LASF4978
C:\Users\SOLDER~1\AppData\Local\Temp\cchmqEOm.s:29174  .debug_str:000000000001f99c .LASF4979
C:\Users\SOLDER~1\AppData\Local\Temp\cchmqEOm.s:28486  .debug_str:000000000001cc9e .LASF4980
C:\Users\SOLDER~1\AppData\Local\Temp\cchmqEOm.s:33068  .debug_str:000000000002f503 .LASF4981
C:\Users\SOLDER~1\AppData\Local\Temp\cchmqEOm.s:33016  .debug_str:000000000002f1f1 .LASF4982
C:\Users\SOLDER~1\AppData\Local\Temp\cchmqEOm.s:31924  .debug_str:000000000002aba3 .LASF4983
C:\Users\SOLDER~1\AppData\Local\Temp\cchmqEOm.s:29216  .debug_str:000000000001fc95 .LASF4984
C:\Users\SOLDER~1\AppData\Local\Temp\cchmqEOm.s:23708  .debug_str:00000000000095db .LASF4985
C:\Users\SOLDER~1\AppData\Local\Temp\cchmqEOm.s:29534  .debug_str:00000000000210bd .LASF4986
C:\Users\SOLDER~1\AppData\Local\Temp\cchmqEOm.s:30046  .debug_str:0000000000023134 .LASF4987
C:\Users\SOLDER~1\AppData\Local\Temp\cchmqEOm.s:31678  .debug_str:0000000000029b77 .LASF4988
C:\Users\SOLDER~1\AppData\Local\Temp\cchmqEOm.s:26148  .debug_str:000000000001341e .LASF4989
C:\Users\SOLDER~1\AppData\Local\Temp\cchmqEOm.s:27278  .debug_str:0000000000017e7d .LASF4990
C:\Users\SOLDER~1\AppData\Local\Temp\cchmqEOm.s:22142  .debug_str:00000000000030dc .LASF4991
C:\Users\SOLDER~1\AppData\Local\Temp\cchmqEOm.s:30072  .debug_str:00000000000232fb .LASF4992
C:\Users\SOLDER~1\AppData\Local\Temp\cchmqEOm.s:32018  .debug_str:000000000002b187 .LASF4993
C:\Users\SOLDER~1\AppData\Local\Temp\cchmqEOm.s:30362  .debug_str:00000000000245ed .LASF4994
C:\Users\SOLDER~1\AppData\Local\Temp\cchmqEOm.s:25860  .debug_str:00000000000121e9 .LASF4995
C:\Users\SOLDER~1\AppData\Local\Temp\cchmqEOm.s:30432  .debug_str:0000000000024a88 .LASF4996
C:\Users\SOLDER~1\AppData\Local\Temp\cchmqEOm.s:32184  .debug_str:000000000002bc5c .LASF4997
C:\Users\SOLDER~1\AppData\Local\Temp\cchmqEOm.s:26312  .debug_str:0000000000013fc0 .LASF4998
C:\Users\SOLDER~1\AppData\Local\Temp\cchmqEOm.s:23904  .debug_str:000000000000a26e .LASF4999
C:\Users\SOLDER~1\AppData\Local\Temp\cchmqEOm.s:31178  .debug_str:0000000000027bb5 .LASF5000
C:\Users\SOLDER~1\AppData\Local\Temp\cchmqEOm.s:30748  .debug_str:0000000000025f1a .LASF5001
C:\Users\SOLDER~1\AppData\Local\Temp\cchmqEOm.s:30002  .debug_str:0000000000022e64 .LASF5002
GAS LISTING C:\Users\SOLDER~1\AppData\Local\Temp\cchmqEOm.s 			page 162


C:\Users\SOLDER~1\AppData\Local\Temp\cchmqEOm.s:28412  .debug_str:000000000001c7cc .LASF5003
C:\Users\SOLDER~1\AppData\Local\Temp\cchmqEOm.s:25332  .debug_str:0000000000010013 .LASF5004
C:\Users\SOLDER~1\AppData\Local\Temp\cchmqEOm.s:30192  .debug_str:0000000000023ae5 .LASF5005
C:\Users\SOLDER~1\AppData\Local\Temp\cchmqEOm.s:31286  .debug_str:000000000002823e .LASF5006
C:\Users\SOLDER~1\AppData\Local\Temp\cchmqEOm.s:26072  .debug_str:0000000000012f45 .LASF5007
C:\Users\SOLDER~1\AppData\Local\Temp\cchmqEOm.s:27222  .debug_str:0000000000017aee .LASF5008
C:\Users\SOLDER~1\AppData\Local\Temp\cchmqEOm.s:26818  .debug_str:00000000000160f1 .LASF5009
C:\Users\SOLDER~1\AppData\Local\Temp\cchmqEOm.s:30500  .debug_str:0000000000024f07 .LASF5010
C:\Users\SOLDER~1\AppData\Local\Temp\cchmqEOm.s:31364  .debug_str:0000000000028796 .LASF5011
C:\Users\SOLDER~1\AppData\Local\Temp\cchmqEOm.s:26378  .debug_str:000000000001444d .LASF5012
C:\Users\SOLDER~1\AppData\Local\Temp\cchmqEOm.s:31402  .debug_str:00000000000289f5 .LASF5013
C:\Users\SOLDER~1\AppData\Local\Temp\cchmqEOm.s:31740  .debug_str:0000000000029f3a .LASF5014
C:\Users\SOLDER~1\AppData\Local\Temp\cchmqEOm.s:26340  .debug_str:00000000000141a9 .LASF5015
C:\Users\SOLDER~1\AppData\Local\Temp\cchmqEOm.s:30366  .debug_str:0000000000024640 .LASF5016
C:\Users\SOLDER~1\AppData\Local\Temp\cchmqEOm.s:26424  .debug_str:0000000000014780 .LASF5017
C:\Users\SOLDER~1\AppData\Local\Temp\cchmqEOm.s:27110  .debug_str:0000000000017348 .LASF5018
C:\Users\SOLDER~1\AppData\Local\Temp\cchmqEOm.s:26692  .debug_str:00000000000158e9 .LASF5019
C:\Users\SOLDER~1\AppData\Local\Temp\cchmqEOm.s:27796  .debug_str:000000000001a058 .LASF5020
C:\Users\SOLDER~1\AppData\Local\Temp\cchmqEOm.s:24510  .debug_str:000000000000ca5f .LASF5021
C:\Users\SOLDER~1\AppData\Local\Temp\cchmqEOm.s:31110  .debug_str:0000000000027753 .LASF5022
C:\Users\SOLDER~1\AppData\Local\Temp\cchmqEOm.s:32144  .debug_str:000000000002b9c2 .LASF5023
C:\Users\SOLDER~1\AppData\Local\Temp\cchmqEOm.s:29422  .debug_str:000000000002098a .LASF5024
C:\Users\SOLDER~1\AppData\Local\Temp\cchmqEOm.s:26140  .debug_str:0000000000013381 .LASF5025
C:\Users\SOLDER~1\AppData\Local\Temp\cchmqEOm.s:25852  .debug_str:0000000000012160 .LASF5026
C:\Users\SOLDER~1\AppData\Local\Temp\cchmqEOm.s:29416  .debug_str:000000000002092a .LASF5027
C:\Users\SOLDER~1\AppData\Local\Temp\cchmqEOm.s:26488  .debug_str:0000000000014b80 .LASF5028
C:\Users\SOLDER~1\AppData\Local\Temp\cchmqEOm.s:28088  .debug_str:000000000001b340 .LASF5029
C:\Users\SOLDER~1\AppData\Local\Temp\cchmqEOm.s:25366  .debug_str:000000000001024e .LASF5030
C:\Users\SOLDER~1\AppData\Local\Temp\cchmqEOm.s:31004  .debug_str:0000000000027064 .LASF5031
C:\Users\SOLDER~1\AppData\Local\Temp\cchmqEOm.s:29210  .debug_str:000000000001fc31 .LASF5032
C:\Users\SOLDER~1\AppData\Local\Temp\cchmqEOm.s:21938  .debug_str:00000000000023a3 .LASF5033
C:\Users\SOLDER~1\AppData\Local\Temp\cchmqEOm.s:21692  .debug_str:00000000000013d2 .LASF5034
C:\Users\SOLDER~1\AppData\Local\Temp\cchmqEOm.s:29896  .debug_str:00000000000227d8 .LASF5035
C:\Users\SOLDER~1\AppData\Local\Temp\cchmqEOm.s:25384  .debug_str:000000000001034d .LASF5036
C:\Users\SOLDER~1\AppData\Local\Temp\cchmqEOm.s:25910  .debug_str:0000000000012524 .LASF5037
C:\Users\SOLDER~1\AppData\Local\Temp\cchmqEOm.s:31514  .debug_str:000000000002912e .LASF5038
C:\Users\SOLDER~1\AppData\Local\Temp\cchmqEOm.s:28252  .debug_str:000000000001bd69 .LASF5039
C:\Users\SOLDER~1\AppData\Local\Temp\cchmqEOm.s:26162  .debug_str:0000000000013530 .LASF5040
C:\Users\SOLDER~1\AppData\Local\Temp\cchmqEOm.s:29746  .debug_str:0000000000021e69 .LASF5041
C:\Users\SOLDER~1\AppData\Local\Temp\cchmqEOm.s:27444  .debug_str:000000000001895d .LASF5042
C:\Users\SOLDER~1\AppData\Local\Temp\cchmqEOm.s:29246  .debug_str:000000000001fe8a .LASF5043
C:\Users\SOLDER~1\AppData\Local\Temp\cchmqEOm.s:27496  .debug_str:0000000000018cdd .LASF5044
C:\Users\SOLDER~1\AppData\Local\Temp\cchmqEOm.s:26208  .debug_str:0000000000013853 .LASF5045
C:\Users\SOLDER~1\AppData\Local\Temp\cchmqEOm.s:23714  .debug_str:000000000000963d .LASF5046
C:\Users\SOLDER~1\AppData\Local\Temp\cchmqEOm.s:30308  .debug_str:0000000000024264 .LASF5047
C:\Users\SOLDER~1\AppData\Local\Temp\cchmqEOm.s:31464  .debug_str:0000000000028df3 .LASF5048
C:\Users\SOLDER~1\AppData\Local\Temp\cchmqEOm.s:29660  .debug_str:0000000000021938 .LASF5049
C:\Users\SOLDER~1\AppData\Local\Temp\cchmqEOm.s:29658  .debug_str:0000000000021919 .LASF5050
C:\Users\SOLDER~1\AppData\Local\Temp\cchmqEOm.s:21594  .debug_str:0000000000000dc5 .LASF5051
C:\Users\SOLDER~1\AppData\Local\Temp\cchmqEOm.s:33074  .debug_str:000000000002f55c .LASF5052
C:\Users\SOLDER~1\AppData\Local\Temp\cchmqEOm.s:28594  .debug_str:000000000001d40d .LASF5053
C:\Users\SOLDER~1\AppData\Local\Temp\cchmqEOm.s:23852  .debug_str:0000000000009ee9 .LASF5054
C:\Users\SOLDER~1\AppData\Local\Temp\cchmqEOm.s:26174  .debug_str:00000000000135de .LASF5055
C:\Users\SOLDER~1\AppData\Local\Temp\cchmqEOm.s:32268  .debug_str:000000000002c1bf .LASF5056
C:\Users\SOLDER~1\AppData\Local\Temp\cchmqEOm.s:23896  .debug_str:000000000000a1d8 .LASF5057
C:\Users\SOLDER~1\AppData\Local\Temp\cchmqEOm.s:25826  .debug_str:0000000000011fbb .LASF5058
C:\Users\SOLDER~1\AppData\Local\Temp\cchmqEOm.s:31808  .debug_str:000000000002a3e0 .LASF5059
GAS LISTING C:\Users\SOLDER~1\AppData\Local\Temp\cchmqEOm.s 			page 163


C:\Users\SOLDER~1\AppData\Local\Temp\cchmqEOm.s:26314  .debug_str:0000000000013fee .LASF5060
C:\Users\SOLDER~1\AppData\Local\Temp\cchmqEOm.s:21784  .debug_str:000000000000195d .LASF5061
C:\Users\SOLDER~1\AppData\Local\Temp\cchmqEOm.s:26996  .debug_str:0000000000016c32 .LASF5062
C:\Users\SOLDER~1\AppData\Local\Temp\cchmqEOm.s:24878  .debug_str:000000000000e240 .LASF5063
C:\Users\SOLDER~1\AppData\Local\Temp\cchmqEOm.s:24156  .debug_str:000000000000b2c6 .LASF5064
C:\Users\SOLDER~1\AppData\Local\Temp\cchmqEOm.s:24514  .debug_str:000000000000caa4 .LASF5065
C:\Users\SOLDER~1\AppData\Local\Temp\cchmqEOm.s:21534  .debug_str:0000000000000980 .LASF5066
C:\Users\SOLDER~1\AppData\Local\Temp\cchmqEOm.s:30510  .debug_str:0000000000024fcf .LASF5067
C:\Users\SOLDER~1\AppData\Local\Temp\cchmqEOm.s:22108  .debug_str:0000000000002e9f .LASF5068
C:\Users\SOLDER~1\AppData\Local\Temp\cchmqEOm.s:24040  .debug_str:000000000000ab84 .LASF5069
C:\Users\SOLDER~1\AppData\Local\Temp\cchmqEOm.s:23346  .debug_str:0000000000007de8 .LASF5070
C:\Users\SOLDER~1\AppData\Local\Temp\cchmqEOm.s:25706  .debug_str:0000000000011826 .LASF5071
C:\Users\SOLDER~1\AppData\Local\Temp\cchmqEOm.s:28328  .debug_str:000000000001c215 .LASF5072
C:\Users\SOLDER~1\AppData\Local\Temp\cchmqEOm.s:24312  .debug_str:000000000000bd34 .LASF5073
C:\Users\SOLDER~1\AppData\Local\Temp\cchmqEOm.s:26244  .debug_str:0000000000013ab8 .LASF5074
C:\Users\SOLDER~1\AppData\Local\Temp\cchmqEOm.s:23594  .debug_str:0000000000008e13 .LASF5075
C:\Users\SOLDER~1\AppData\Local\Temp\cchmqEOm.s:31352  .debug_str:00000000000286ba .LASF5076
C:\Users\SOLDER~1\AppData\Local\Temp\cchmqEOm.s:25806  .debug_str:0000000000011e57 .LASF5077
C:\Users\SOLDER~1\AppData\Local\Temp\cchmqEOm.s:23198  .debug_str:0000000000007469 .LASF5078
C:\Users\SOLDER~1\AppData\Local\Temp\cchmqEOm.s:21828  .debug_str:0000000000001c6a .LASF5079
C:\Users\SOLDER~1\AppData\Local\Temp\cchmqEOm.s:30076  .debug_str:0000000000023336 .LASF5080
C:\Users\SOLDER~1\AppData\Local\Temp\cchmqEOm.s:25762  .debug_str:0000000000011b83 .LASF5081
C:\Users\SOLDER~1\AppData\Local\Temp\cchmqEOm.s:23678  .debug_str:00000000000093b4 .LASF5082
C:\Users\SOLDER~1\AppData\Local\Temp\cchmqEOm.s:23402  .debug_str:000000000000819a .LASF5083
C:\Users\SOLDER~1\AppData\Local\Temp\cchmqEOm.s:28662  .debug_str:000000000001d88e .LASF5084
C:\Users\SOLDER~1\AppData\Local\Temp\cchmqEOm.s:30912  .debug_str:0000000000026a4f .LASF5085
C:\Users\SOLDER~1\AppData\Local\Temp\cchmqEOm.s:28012  .debug_str:000000000001ae38 .LASF5086
C:\Users\SOLDER~1\AppData\Local\Temp\cchmqEOm.s:24210  .debug_str:000000000000b69a .LASF5087
C:\Users\SOLDER~1\AppData\Local\Temp\cchmqEOm.s:23854  .debug_str:0000000000009f10 .LASF5088
C:\Users\SOLDER~1\AppData\Local\Temp\cchmqEOm.s:23570  .debug_str:0000000000008c81 .LASF5089
C:\Users\SOLDER~1\AppData\Local\Temp\cchmqEOm.s:30290  .debug_str:0000000000024127 .LASF5090
C:\Users\SOLDER~1\AppData\Local\Temp\cchmqEOm.s:23850  .debug_str:0000000000009ebc .LASF5091
C:\Users\SOLDER~1\AppData\Local\Temp\cchmqEOm.s:29084  .debug_str:000000000001f3ad .LASF5092
C:\Users\SOLDER~1\AppData\Local\Temp\cchmqEOm.s:24316  .debug_str:000000000000bd83 .LASF5093
C:\Users\SOLDER~1\AppData\Local\Temp\cchmqEOm.s:23660  .debug_str:0000000000009293 .LASF5094
C:\Users\SOLDER~1\AppData\Local\Temp\cchmqEOm.s:31332  .debug_str:0000000000028556 .LASF5095
C:\Users\SOLDER~1\AppData\Local\Temp\cchmqEOm.s:26442  .debug_str:0000000000014895 .LASF5096
C:\Users\SOLDER~1\AppData\Local\Temp\cchmqEOm.s:31480  .debug_str:0000000000028f0f .LASF5097
C:\Users\SOLDER~1\AppData\Local\Temp\cchmqEOm.s:28168  .debug_str:000000000001b826 .LASF5098
C:\Users\SOLDER~1\AppData\Local\Temp\cchmqEOm.s:23404  .debug_str:00000000000081c8 .LASF5099
C:\Users\SOLDER~1\AppData\Local\Temp\cchmqEOm.s:27756  .debug_str:0000000000019dc3 .LASF5100
C:\Users\SOLDER~1\AppData\Local\Temp\cchmqEOm.s:21588  .debug_str:0000000000000d46 .LASF5101
C:\Users\SOLDER~1\AppData\Local\Temp\cchmqEOm.s:28268  .debug_str:000000000001be3d .LASF5102
C:\Users\SOLDER~1\AppData\Local\Temp\cchmqEOm.s:30372  .debug_str:0000000000024690 .LASF5103
C:\Users\SOLDER~1\AppData\Local\Temp\cchmqEOm.s:21780  .debug_str:0000000000001912 .LASF5104
C:\Users\SOLDER~1\AppData\Local\Temp\cchmqEOm.s:29272  .debug_str:000000000002002e .LASF5105
C:\Users\SOLDER~1\AppData\Local\Temp\cchmqEOm.s:22308  .debug_str:0000000000003b93 .LASF5106
C:\Users\SOLDER~1\AppData\Local\Temp\cchmqEOm.s:22228  .debug_str:0000000000003664 .LASF5107
C:\Users\SOLDER~1\AppData\Local\Temp\cchmqEOm.s:30756  .debug_str:0000000000025fba .LASF5108
C:\Users\SOLDER~1\AppData\Local\Temp\cchmqEOm.s:28524  .debug_str:000000000001cf1f .LASF5109
C:\Users\SOLDER~1\AppData\Local\Temp\cchmqEOm.s:25908  .debug_str:0000000000012504 .LASF5110
C:\Users\SOLDER~1\AppData\Local\Temp\cchmqEOm.s:31550  .debug_str:0000000000029350 .LASF5111
C:\Users\SOLDER~1\AppData\Local\Temp\cchmqEOm.s:25430  .debug_str:0000000000010671 .LASF5112
C:\Users\SOLDER~1\AppData\Local\Temp\cchmqEOm.s:23066  .debug_str:0000000000006bc1 .LASF5113
C:\Users\SOLDER~1\AppData\Local\Temp\cchmqEOm.s:28082  .debug_str:000000000001b2e1 .LASF5114
C:\Users\SOLDER~1\AppData\Local\Temp\cchmqEOm.s:24278  .debug_str:000000000000baeb .LASF5115
C:\Users\SOLDER~1\AppData\Local\Temp\cchmqEOm.s:28272  .debug_str:000000000001be8a .LASF5116
GAS LISTING C:\Users\SOLDER~1\AppData\Local\Temp\cchmqEOm.s 			page 164


C:\Users\SOLDER~1\AppData\Local\Temp\cchmqEOm.s:25190  .debug_str:000000000000f65c .LASF5117
C:\Users\SOLDER~1\AppData\Local\Temp\cchmqEOm.s:25404  .debug_str:000000000001048a .LASF5118
C:\Users\SOLDER~1\AppData\Local\Temp\cchmqEOm.s:25152  .debug_str:000000000000f403 .LASF5119
C:\Users\SOLDER~1\AppData\Local\Temp\cchmqEOm.s:33064  .debug_str:000000000002f4be .LASF5120
C:\Users\SOLDER~1\AppData\Local\Temp\cchmqEOm.s:24614  .debug_str:000000000000d117 .LASF5121
C:\Users\SOLDER~1\AppData\Local\Temp\cchmqEOm.s:25300  .debug_str:000000000000fde2 .LASF5122
C:\Users\SOLDER~1\AppData\Local\Temp\cchmqEOm.s:22400  .debug_str:000000000000415b .LASF5123
C:\Users\SOLDER~1\AppData\Local\Temp\cchmqEOm.s:31138  .debug_str:000000000002793e .LASF5124
C:\Users\SOLDER~1\AppData\Local\Temp\cchmqEOm.s:32202  .debug_str:000000000002bd8b .LASF5125
C:\Users\SOLDER~1\AppData\Local\Temp\cchmqEOm.s:22822  .debug_str:0000000000005bb4 .LASF5126
C:\Users\SOLDER~1\AppData\Local\Temp\cchmqEOm.s:27338  .debug_str:000000000001827c .LASF5127
C:\Users\SOLDER~1\AppData\Local\Temp\cchmqEOm.s:28112  .debug_str:000000000001b4ce .LASF5128
C:\Users\SOLDER~1\AppData\Local\Temp\cchmqEOm.s:27082  .debug_str:0000000000017163 .LASF5129
C:\Users\SOLDER~1\AppData\Local\Temp\cchmqEOm.s:27410  .debug_str:0000000000018751 .LASF5130
C:\Users\SOLDER~1\AppData\Local\Temp\cchmqEOm.s:26062  .debug_str:0000000000012ea8 .LASF5131
C:\Users\SOLDER~1\AppData\Local\Temp\cchmqEOm.s:31724  .debug_str:0000000000029e62 .LASF5132
C:\Users\SOLDER~1\AppData\Local\Temp\cchmqEOm.s:29790  .debug_str:0000000000022128 .LASF5133
C:\Users\SOLDER~1\AppData\Local\Temp\cchmqEOm.s:29826  .debug_str:0000000000022351 .LASF5134
C:\Users\SOLDER~1\AppData\Local\Temp\cchmqEOm.s:31136  .debug_str:000000000002790d .LASF5135
C:\Users\SOLDER~1\AppData\Local\Temp\cchmqEOm.s:33048  .debug_str:000000000002f3cd .LASF5136
C:\Users\SOLDER~1\AppData\Local\Temp\cchmqEOm.s:32978  .debug_str:000000000002ef8e .LASF5137
C:\Users\SOLDER~1\AppData\Local\Temp\cchmqEOm.s:27044  .debug_str:0000000000016f51 .LASF5138
C:\Users\SOLDER~1\AppData\Local\Temp\cchmqEOm.s:26436  .debug_str:000000000001483e .LASF5139
C:\Users\SOLDER~1\AppData\Local\Temp\cchmqEOm.s:26274  .debug_str:0000000000013d22 .LASF5140
C:\Users\SOLDER~1\AppData\Local\Temp\cchmqEOm.s:31188  .debug_str:0000000000027c5c .LASF5141
C:\Users\SOLDER~1\AppData\Local\Temp\cchmqEOm.s:27350  .debug_str:000000000001835d .LASF5142
C:\Users\SOLDER~1\AppData\Local\Temp\cchmqEOm.s:21714  .debug_str:0000000000001558 .LASF5143
C:\Users\SOLDER~1\AppData\Local\Temp\cchmqEOm.s:26396  .debug_str:000000000001459b .LASF5144
C:\Users\SOLDER~1\AppData\Local\Temp\cchmqEOm.s:29274  .debug_str:0000000000020053 .LASF5145
C:\Users\SOLDER~1\AppData\Local\Temp\cchmqEOm.s:24116  .debug_str:000000000000b063 .LASF5146
C:\Users\SOLDER~1\AppData\Local\Temp\cchmqEOm.s:31070  .debug_str:00000000000274b0 .LASF5147
C:\Users\SOLDER~1\AppData\Local\Temp\cchmqEOm.s:29962  .debug_str:0000000000022bcf .LASF5148
C:\Users\SOLDER~1\AppData\Local\Temp\cchmqEOm.s:26634  .debug_str:0000000000015530 .LASF5149
C:\Users\SOLDER~1\AppData\Local\Temp\cchmqEOm.s:30822  .debug_str:0000000000026402 .LASF5150
C:\Users\SOLDER~1\AppData\Local\Temp\cchmqEOm.s:25660  .debug_str:00000000000114eb .LASF5151
C:\Users\SOLDER~1\AppData\Local\Temp\cchmqEOm.s:32734  .debug_str:000000000002e022 .LASF5152
C:\Users\SOLDER~1\AppData\Local\Temp\cchmqEOm.s:32960  .debug_str:000000000002ee42 .LASF5153
C:\Users\SOLDER~1\AppData\Local\Temp\cchmqEOm.s:30098  .debug_str:00000000000234a4 .LASF5154
C:\Users\SOLDER~1\AppData\Local\Temp\cchmqEOm.s:31612  .debug_str:00000000000296f9 .LASF5155
C:\Users\SOLDER~1\AppData\Local\Temp\cchmqEOm.s:27644  .debug_str:00000000000196a2 .LASF5156
C:\Users\SOLDER~1\AppData\Local\Temp\cchmqEOm.s:28402  .debug_str:000000000001c72d .LASF5157
C:\Users\SOLDER~1\AppData\Local\Temp\cchmqEOm.s:23600  .debug_str:0000000000008e83 .LASF5158
C:\Users\SOLDER~1\AppData\Local\Temp\cchmqEOm.s:29338  .debug_str:0000000000020438 .LASF5159
C:\Users\SOLDER~1\AppData\Local\Temp\cchmqEOm.s:31458  .debug_str:0000000000028d82 .LASF5160
C:\Users\SOLDER~1\AppData\Local\Temp\cchmqEOm.s:29640  .debug_str:00000000000217e7 .LASF5161
C:\Users\SOLDER~1\AppData\Local\Temp\cchmqEOm.s:21686  .debug_str:0000000000001357 .LASF5162
C:\Users\SOLDER~1\AppData\Local\Temp\cchmqEOm.s:21400  .debug_str:0000000000000044 .LASF5163
C:\Users\SOLDER~1\AppData\Local\Temp\cchmqEOm.s:28254  .debug_str:000000000001bd87 .LASF5164
C:\Users\SOLDER~1\AppData\Local\Temp\cchmqEOm.s:32698  .debug_str:000000000002ddcf .LASF5165
C:\Users\SOLDER~1\AppData\Local\Temp\cchmqEOm.s:21430  .debug_str:0000000000000209 .LASF5166
C:\Users\SOLDER~1\AppData\Local\Temp\cchmqEOm.s:23824  .debug_str:0000000000009cf2 .LASF5167
C:\Users\SOLDER~1\AppData\Local\Temp\cchmqEOm.s:33088  .debug_str:000000000002f633 .LASF5168
C:\Users\SOLDER~1\AppData\Local\Temp\cchmqEOm.s:25876  .debug_str:00000000000122f6 .LASF5169
C:\Users\SOLDER~1\AppData\Local\Temp\cchmqEOm.s:27554  .debug_str:00000000000190ba .LASF5170
C:\Users\SOLDER~1\AppData\Local\Temp\cchmqEOm.s:23348  .debug_str:0000000000007e16 .LASF5171
C:\Users\SOLDER~1\AppData\Local\Temp\cchmqEOm.s:23358  .debug_str:0000000000007eb8 .LASF5172
C:\Users\SOLDER~1\AppData\Local\Temp\cchmqEOm.s:29054  .debug_str:000000000001f1cf .LASF5173
GAS LISTING C:\Users\SOLDER~1\AppData\Local\Temp\cchmqEOm.s 			page 165


C:\Users\SOLDER~1\AppData\Local\Temp\cchmqEOm.s:32692  .debug_str:000000000002dd65 .LASF5174
C:\Users\SOLDER~1\AppData\Local\Temp\cchmqEOm.s:25566  .debug_str:0000000000010ee6 .LASF5175
C:\Users\SOLDER~1\AppData\Local\Temp\cchmqEOm.s:23666  .debug_str:00000000000092ff .LASF5176
C:\Users\SOLDER~1\AppData\Local\Temp\cchmqEOm.s:26316  .debug_str:0000000000014019 .LASF5177
C:\Users\SOLDER~1\AppData\Local\Temp\cchmqEOm.s:29468  .debug_str:0000000000020c81 .LASF5178
C:\Users\SOLDER~1\AppData\Local\Temp\cchmqEOm.s:26920  .debug_str:00000000000167a9 .LASF5179
C:\Users\SOLDER~1\AppData\Local\Temp\cchmqEOm.s:25290  .debug_str:000000000000fd32 .LASF5180
C:\Users\SOLDER~1\AppData\Local\Temp\cchmqEOm.s:33024  .debug_str:000000000002f263 .LASF5181
C:\Users\SOLDER~1\AppData\Local\Temp\cchmqEOm.s:24582  .debug_str:000000000000cf0d .LASF5182
C:\Users\SOLDER~1\AppData\Local\Temp\cchmqEOm.s:29080  .debug_str:000000000001f35e .LASF5183
C:\Users\SOLDER~1\AppData\Local\Temp\cchmqEOm.s:22112  .debug_str:0000000000002ee3 .LASF5184
C:\Users\SOLDER~1\AppData\Local\Temp\cchmqEOm.s:25664  .debug_str:0000000000011530 .LASF5185
C:\Users\SOLDER~1\AppData\Local\Temp\cchmqEOm.s:28846  .debug_str:000000000001e442 .LASF5186
C:\Users\SOLDER~1\AppData\Local\Temp\cchmqEOm.s:26550  .debug_str:0000000000014fcd .LASF5187
C:\Users\SOLDER~1\AppData\Local\Temp\cchmqEOm.s:28008  .debug_str:000000000001adeb .LASF5188
C:\Users\SOLDER~1\AppData\Local\Temp\cchmqEOm.s:28354  .debug_str:000000000001c3ed .LASF5189
C:\Users\SOLDER~1\AppData\Local\Temp\cchmqEOm.s:24734  .debug_str:000000000000d922 .LASF5190
C:\Users\SOLDER~1\AppData\Local\Temp\cchmqEOm.s:22910  .debug_str:0000000000006164 .LASF5191
C:\Users\SOLDER~1\AppData\Local\Temp\cchmqEOm.s:32976  .debug_str:000000000002ef57 .LASF5192
C:\Users\SOLDER~1\AppData\Local\Temp\cchmqEOm.s:21690  .debug_str:000000000000139c .LASF5193
C:\Users\SOLDER~1\AppData\Local\Temp\cchmqEOm.s:25142  .debug_str:000000000000f34d .LASF5194
C:\Users\SOLDER~1\AppData\Local\Temp\cchmqEOm.s:31124  .debug_str:000000000002782c .LASF5195
C:\Users\SOLDER~1\AppData\Local\Temp\cchmqEOm.s:27998  .debug_str:000000000001ad37 .LASF5196
C:\Users\SOLDER~1\AppData\Local\Temp\cchmqEOm.s:23980  .debug_str:000000000000a768 .LASF5197
C:\Users\SOLDER~1\AppData\Local\Temp\cchmqEOm.s:21964  .debug_str:0000000000002568 .LASF5198
C:\Users\SOLDER~1\AppData\Local\Temp\cchmqEOm.s:28072  .debug_str:000000000001b222 .LASF5199
C:\Users\SOLDER~1\AppData\Local\Temp\cchmqEOm.s:30798  .debug_str:0000000000026256 .LASF5200
C:\Users\SOLDER~1\AppData\Local\Temp\cchmqEOm.s:23656  .debug_str:0000000000009239 .LASF5201
C:\Users\SOLDER~1\AppData\Local\Temp\cchmqEOm.s:30882  .debug_str:0000000000026830 .LASF5202
C:\Users\SOLDER~1\AppData\Local\Temp\cchmqEOm.s:22674  .debug_str:0000000000005218 .LASF5203
C:\Users\SOLDER~1\AppData\Local\Temp\cchmqEOm.s:21562  .debug_str:0000000000000b64 .LASF5204
C:\Users\SOLDER~1\AppData\Local\Temp\cchmqEOm.s:24526  .debug_str:000000000000cb5e .LASF5205
C:\Users\SOLDER~1\AppData\Local\Temp\cchmqEOm.s:27738  .debug_str:0000000000019cdc .LASF5206
C:\Users\SOLDER~1\AppData\Local\Temp\cchmqEOm.s:26986  .debug_str:0000000000016b90 .LASF5207
C:\Users\SOLDER~1\AppData\Local\Temp\cchmqEOm.s:22958  .debug_str:00000000000064b1 .LASF5208
C:\Users\SOLDER~1\AppData\Local\Temp\cchmqEOm.s:31354  .debug_str:00000000000286e1 .LASF5209
C:\Users\SOLDER~1\AppData\Local\Temp\cchmqEOm.s:30024  .debug_str:0000000000022fe8 .LASF5210
C:\Users\SOLDER~1\AppData\Local\Temp\cchmqEOm.s:26240  .debug_str:0000000000013a5c .LASF5211
C:\Users\SOLDER~1\AppData\Local\Temp\cchmqEOm.s:29714  .debug_str:0000000000021c81 .LASF5212
C:\Users\SOLDER~1\AppData\Local\Temp\cchmqEOm.s:30496  .debug_str:0000000000024ed4 .LASF5213
C:\Users\SOLDER~1\AppData\Local\Temp\cchmqEOm.s:28528  .debug_str:000000000001cf65 .LASF5214
C:\Users\SOLDER~1\AppData\Local\Temp\cchmqEOm.s:27002  .debug_str:0000000000016c9c .LASF5215
C:\Users\SOLDER~1\AppData\Local\Temp\cchmqEOm.s:30340  .debug_str:0000000000024482 .LASF5216
C:\Users\SOLDER~1\AppData\Local\Temp\cchmqEOm.s:32654  .debug_str:000000000002db2d .LASF5217
C:\Users\SOLDER~1\AppData\Local\Temp\cchmqEOm.s:27894  .debug_str:000000000001a69b .LASF5218
C:\Users\SOLDER~1\AppData\Local\Temp\cchmqEOm.s:28226  .debug_str:000000000001bbdb .LASF5219
C:\Users\SOLDER~1\AppData\Local\Temp\cchmqEOm.s:29500  .debug_str:0000000000020e8e .LASF5220
C:\Users\SOLDER~1\AppData\Local\Temp\cchmqEOm.s:28290  .debug_str:000000000001bfb9 .LASF5221
C:\Users\SOLDER~1\AppData\Local\Temp\cchmqEOm.s:27098  .debug_str:0000000000017277 .LASF5222
C:\Users\SOLDER~1\AppData\Local\Temp\cchmqEOm.s:30736  .debug_str:0000000000025e42 .LASF5223
C:\Users\SOLDER~1\AppData\Local\Temp\cchmqEOm.s:21756  .debug_str:00000000000017e1 .LASF5224
C:\Users\SOLDER~1\AppData\Local\Temp\cchmqEOm.s:25756  .debug_str:0000000000011b28 .LASF5225
C:\Users\SOLDER~1\AppData\Local\Temp\cchmqEOm.s:25764  .debug_str:0000000000011bad .LASF5226
C:\Users\SOLDER~1\AppData\Local\Temp\cchmqEOm.s:24050  .debug_str:000000000000ac35 .LASF5227
C:\Users\SOLDER~1\AppData\Local\Temp\cchmqEOm.s:29014  .debug_str:000000000001ef2f .LASF5228
C:\Users\SOLDER~1\AppData\Local\Temp\cchmqEOm.s:23560  .debug_str:0000000000008be6 .LASF5229
C:\Users\SOLDER~1\AppData\Local\Temp\cchmqEOm.s:23434  .debug_str:00000000000083be .LASF5230
GAS LISTING C:\Users\SOLDER~1\AppData\Local\Temp\cchmqEOm.s 			page 166


C:\Users\SOLDER~1\AppData\Local\Temp\cchmqEOm.s:22434  .debug_str:0000000000004385 .LASF5231
C:\Users\SOLDER~1\AppData\Local\Temp\cchmqEOm.s:24690  .debug_str:000000000000d656 .LASF5232
C:\Users\SOLDER~1\AppData\Local\Temp\cchmqEOm.s:29538  .debug_str:0000000000021102 .LASF5233
C:\Users\SOLDER~1\AppData\Local\Temp\cchmqEOm.s:22114  .debug_str:0000000000002f09 .LASF5234
C:\Users\SOLDER~1\AppData\Local\Temp\cchmqEOm.s:23378  .debug_str:000000000000800e .LASF5235
C:\Users\SOLDER~1\AppData\Local\Temp\cchmqEOm.s:27882  .debug_str:000000000001a5ce .LASF5236
C:\Users\SOLDER~1\AppData\Local\Temp\cchmqEOm.s:26896  .debug_str:0000000000016620 .LASF5237
C:\Users\SOLDER~1\AppData\Local\Temp\cchmqEOm.s:30502  .debug_str:0000000000024f35 .LASF5238
C:\Users\SOLDER~1\AppData\Local\Temp\cchmqEOm.s:25906  .debug_str:00000000000124e4 .LASF5239
C:\Users\SOLDER~1\AppData\Local\Temp\cchmqEOm.s:32296  .debug_str:000000000002c380 .LASF5240
C:\Users\SOLDER~1\AppData\Local\Temp\cchmqEOm.s:26444  .debug_str:00000000000148c5 .LASF5241
C:\Users\SOLDER~1\AppData\Local\Temp\cchmqEOm.s:24688  .debug_str:000000000000d636 .LASF5242
C:\Users\SOLDER~1\AppData\Local\Temp\cchmqEOm.s:32428  .debug_str:000000000002cc8d .LASF5243
C:\Users\SOLDER~1\AppData\Local\Temp\cchmqEOm.s:30746  .debug_str:0000000000025ee7 .LASF5244
C:\Users\SOLDER~1\AppData\Local\Temp\cchmqEOm.s:26532  .debug_str:0000000000014e97 .LASF5245
C:\Users\SOLDER~1\AppData\Local\Temp\cchmqEOm.s:22564  .debug_str:0000000000004b97 .LASF5246
C:\Users\SOLDER~1\AppData\Local\Temp\cchmqEOm.s:22758  .debug_str:000000000000571c .LASF5247
C:\Users\SOLDER~1\AppData\Local\Temp\cchmqEOm.s:27860  .debug_str:000000000001a44f .LASF5248
C:\Users\SOLDER~1\AppData\Local\Temp\cchmqEOm.s:30020  .debug_str:0000000000022f8f .LASF5249
C:\Users\SOLDER~1\AppData\Local\Temp\cchmqEOm.s:21676  .debug_str:00000000000012d3 .LASF5250
C:\Users\SOLDER~1\AppData\Local\Temp\cchmqEOm.s:25268  .debug_str:000000000000fbc0 .LASF5251
C:\Users\SOLDER~1\AppData\Local\Temp\cchmqEOm.s:30722  .debug_str:0000000000025d50 .LASF5252
C:\Users\SOLDER~1\AppData\Local\Temp\cchmqEOm.s:21462  .debug_str:0000000000000419 .LASF5253
C:\Users\SOLDER~1\AppData\Local\Temp\cchmqEOm.s:26714  .debug_str:0000000000015a54 .LASF5254
C:\Users\SOLDER~1\AppData\Local\Temp\cchmqEOm.s:33090  .debug_str:000000000002f659 .LASF5255
C:\Users\SOLDER~1\AppData\Local\Temp\cchmqEOm.s:27716  .debug_str:0000000000019b9a .LASF5256
C:\Users\SOLDER~1\AppData\Local\Temp\cchmqEOm.s:32356  .debug_str:000000000002c7ab .LASF5257
C:\Users\SOLDER~1\AppData\Local\Temp\cchmqEOm.s:27698  .debug_str:0000000000019a4d .LASF5258
C:\Users\SOLDER~1\AppData\Local\Temp\cchmqEOm.s:25418  .debug_str:0000000000010585 .LASF5259
C:\Users\SOLDER~1\AppData\Local\Temp\cchmqEOm.s:23332  .debug_str:0000000000007cea .LASF5260
C:\Users\SOLDER~1\AppData\Local\Temp\cchmqEOm.s:26110  .debug_str:00000000000131a8 .LASF5261
C:\Users\SOLDER~1\AppData\Local\Temp\cchmqEOm.s:29354  .debug_str:0000000000020539 .LASF5262
C:\Users\SOLDER~1\AppData\Local\Temp\cchmqEOm.s:32862  .debug_str:000000000002e823 .LASF5263
C:\Users\SOLDER~1\AppData\Local\Temp\cchmqEOm.s:24290  .debug_str:000000000000bba9 .LASF5264
C:\Users\SOLDER~1\AppData\Local\Temp\cchmqEOm.s:28060  .debug_str:000000000001b140 .LASF5265
C:\Users\SOLDER~1\AppData\Local\Temp\cchmqEOm.s:32570  .debug_str:000000000002d578 .LASF5266
C:\Users\SOLDER~1\AppData\Local\Temp\cchmqEOm.s:27808  .debug_str:000000000001a122 .LASF5267
C:\Users\SOLDER~1\AppData\Local\Temp\cchmqEOm.s:28396  .debug_str:000000000001c6ad .LASF5268
C:\Users\SOLDER~1\AppData\Local\Temp\cchmqEOm.s:28682  .debug_str:000000000001d9fa .LASF5269
C:\Users\SOLDER~1\AppData\Local\Temp\cchmqEOm.s:24246  .debug_str:000000000000b8c9 .LASF5270
C:\Users\SOLDER~1\AppData\Local\Temp\cchmqEOm.s:27454  .debug_str:0000000000018a18 .LASF5271
C:\Users\SOLDER~1\AppData\Local\Temp\cchmqEOm.s:31232  .debug_str:0000000000027ef3 .LASF5272
C:\Users\SOLDER~1\AppData\Local\Temp\cchmqEOm.s:25434  .debug_str:00000000000106ab .LASF5273
C:\Users\SOLDER~1\AppData\Local\Temp\cchmqEOm.s:27542  .debug_str:0000000000019009 .LASF5274
C:\Users\SOLDER~1\AppData\Local\Temp\cchmqEOm.s:26504  .debug_str:0000000000014cb3 .LASF5275
C:\Users\SOLDER~1\AppData\Local\Temp\cchmqEOm.s:32176  .debug_str:000000000002bbd8 .LASF5276
C:\Users\SOLDER~1\AppData\Local\Temp\cchmqEOm.s:32648  .debug_str:000000000002dad6 .LASF5277
C:\Users\SOLDER~1\AppData\Local\Temp\cchmqEOm.s:32490  .debug_str:000000000002d056 .LASF5278
C:\Users\SOLDER~1\AppData\Local\Temp\cchmqEOm.s:22898  .debug_str:0000000000006088 .LASF5279
C:\Users\SOLDER~1\AppData\Local\Temp\cchmqEOm.s:30562  .debug_str:0000000000025347 .LASF5280
C:\Users\SOLDER~1\AppData\Local\Temp\cchmqEOm.s:24064  .debug_str:000000000000ad06 .LASF5281
C:\Users\SOLDER~1\AppData\Local\Temp\cchmqEOm.s:24008  .debug_str:000000000000a95c .LASF5282
C:\Users\SOLDER~1\AppData\Local\Temp\cchmqEOm.s:27724  .debug_str:0000000000019c2b .LASF5283
C:\Users\SOLDER~1\AppData\Local\Temp\cchmqEOm.s:31154  .debug_str:0000000000027a33 .LASF5284
C:\Users\SOLDER~1\AppData\Local\Temp\cchmqEOm.s:24498  .debug_str:000000000000c9af .LASF5285
C:\Users\SOLDER~1\AppData\Local\Temp\cchmqEOm.s:25634  .debug_str:0000000000011355 .LASF5286
C:\Users\SOLDER~1\AppData\Local\Temp\cchmqEOm.s:24034  .debug_str:000000000000ab09 .LASF5287
GAS LISTING C:\Users\SOLDER~1\AppData\Local\Temp\cchmqEOm.s 			page 167


C:\Users\SOLDER~1\AppData\Local\Temp\cchmqEOm.s:32522  .debug_str:000000000002d251 .LASF5288
C:\Users\SOLDER~1\AppData\Local\Temp\cchmqEOm.s:25230  .debug_str:000000000000f912 .LASF5289
C:\Users\SOLDER~1\AppData\Local\Temp\cchmqEOm.s:30068  .debug_str:00000000000232b2 .LASF5290
C:\Users\SOLDER~1\AppData\Local\Temp\cchmqEOm.s:28488  .debug_str:000000000001ccbe .LASF5291
C:\Users\SOLDER~1\AppData\Local\Temp\cchmqEOm.s:23574  .debug_str:0000000000008cd7 .LASF5292
C:\Users\SOLDER~1\AppData\Local\Temp\cchmqEOm.s:31394  .debug_str:000000000002896e .LASF5293
C:\Users\SOLDER~1\AppData\Local\Temp\cchmqEOm.s:32786  .debug_str:000000000002e363 .LASF5294
C:\Users\SOLDER~1\AppData\Local\Temp\cchmqEOm.s:22762  .debug_str:0000000000005769 .LASF5295
C:\Users\SOLDER~1\AppData\Local\Temp\cchmqEOm.s:26448  .debug_str:000000000001490d .LASF5296
C:\Users\SOLDER~1\AppData\Local\Temp\cchmqEOm.s:32188  .debug_str:000000000002bcab .LASF5297
C:\Users\SOLDER~1\AppData\Local\Temp\cchmqEOm.s:32590  .debug_str:000000000002d6e8 .LASF5298
C:\Users\SOLDER~1\AppData\Local\Temp\cchmqEOm.s:25710  .debug_str:0000000000011875 .LASF5299
C:\Users\SOLDER~1\AppData\Local\Temp\cchmqEOm.s:22542  .debug_str:0000000000004a42 .LASF5300
C:\Users\SOLDER~1\AppData\Local\Temp\cchmqEOm.s:22186  .debug_str:00000000000033bd .LASF5301
C:\Users\SOLDER~1\AppData\Local\Temp\cchmqEOm.s:28220  .debug_str:000000000001bb6a .LASF5302
C:\Users\SOLDER~1\AppData\Local\Temp\cchmqEOm.s:31528  .debug_str:00000000000291f2 .LASF5303
C:\Users\SOLDER~1\AppData\Local\Temp\cchmqEOm.s:24004  .debug_str:000000000000a924 .LASF5304
C:\Users\SOLDER~1\AppData\Local\Temp\cchmqEOm.s:25262  .debug_str:000000000000fb5e .LASF5305
C:\Users\SOLDER~1\AppData\Local\Temp\cchmqEOm.s:28650  .debug_str:000000000001d7cb .LASF5306
C:\Users\SOLDER~1\AppData\Local\Temp\cchmqEOm.s:29518  .debug_str:0000000000020fb2 .LASF5307
C:\Users\SOLDER~1\AppData\Local\Temp\cchmqEOm.s:23868  .debug_str:000000000000a005 .LASF5308
C:\Users\SOLDER~1\AppData\Local\Temp\cchmqEOm.s:23412  .debug_str:0000000000008274 .LASF5309
C:\Users\SOLDER~1\AppData\Local\Temp\cchmqEOm.s:31984  .debug_str:000000000002af3d .LASF5310
C:\Users\SOLDER~1\AppData\Local\Temp\cchmqEOm.s:22572  .debug_str:0000000000004c24 .LASF5311
C:\Users\SOLDER~1\AppData\Local\Temp\cchmqEOm.s:32354  .debug_str:000000000002c788 .LASF5312
C:\Users\SOLDER~1\AppData\Local\Temp\cchmqEOm.s:29402  .debug_str:0000000000020846 .LASF5313
C:\Users\SOLDER~1\AppData\Local\Temp\cchmqEOm.s:25638  .debug_str:000000000001139e .LASF5314
C:\Users\SOLDER~1\AppData\Local\Temp\cchmqEOm.s:26946  .debug_str:000000000001694d .LASF5315
C:\Users\SOLDER~1\AppData\Local\Temp\cchmqEOm.s:25454  .debug_str:00000000000107dd .LASF5316
C:\Users\SOLDER~1\AppData\Local\Temp\cchmqEOm.s:26808  .debug_str:0000000000016061 .LASF5317
C:\Users\SOLDER~1\AppData\Local\Temp\cchmqEOm.s:25788  .debug_str:0000000000011d31 .LASF5318
C:\Users\SOLDER~1\AppData\Local\Temp\cchmqEOm.s:30828  .debug_str:0000000000026466 .LASF5319
C:\Users\SOLDER~1\AppData\Local\Temp\cchmqEOm.s:25334  .debug_str:0000000000010041 .LASF5320
C:\Users\SOLDER~1\AppData\Local\Temp\cchmqEOm.s:24196  .debug_str:000000000000b58d .LASF5321
C:\Users\SOLDER~1\AppData\Local\Temp\cchmqEOm.s:26108  .debug_str:0000000000013183 .LASF5322
C:\Users\SOLDER~1\AppData\Local\Temp\cchmqEOm.s:25166  .debug_str:000000000000f4f3 .LASF5323
C:\Users\SOLDER~1\AppData\Local\Temp\cchmqEOm.s:22288  .debug_str:0000000000003a35 .LASF5324
C:\Users\SOLDER~1\AppData\Local\Temp\cchmqEOm.s:23986  .debug_str:000000000000a7f2 .LASF5325
C:\Users\SOLDER~1\AppData\Local\Temp\cchmqEOm.s:22450  .debug_str:0000000000004490 .LASF5326
C:\Users\SOLDER~1\AppData\Local\Temp\cchmqEOm.s:23920  .debug_str:000000000000a38b .LASF5327
C:\Users\SOLDER~1\AppData\Local\Temp\cchmqEOm.s:23830  .debug_str:0000000000009d58 .LASF5328
C:\Users\SOLDER~1\AppData\Local\Temp\cchmqEOm.s:32314  .debug_str:000000000002c4ac .LASF5329
C:\Users\SOLDER~1\AppData\Local\Temp\cchmqEOm.s:27080  .debug_str:0000000000017142 .LASF5330
C:\Users\SOLDER~1\AppData\Local\Temp\cchmqEOm.s:27896  .debug_str:000000000001a6ad .LASF5331
C:\Users\SOLDER~1\AppData\Local\Temp\cchmqEOm.s:25184  .debug_str:000000000000f5f6 .LASF5332
C:\Users\SOLDER~1\AppData\Local\Temp\cchmqEOm.s:29758  .debug_str:0000000000021f2d .LASF5333
C:\Users\SOLDER~1\AppData\Local\Temp\cchmqEOm.s:31200  .debug_str:0000000000027d22 .LASF5334
C:\Users\SOLDER~1\AppData\Local\Temp\cchmqEOm.s:24276  .debug_str:000000000000bac3 .LASF5335
C:\Users\SOLDER~1\AppData\Local\Temp\cchmqEOm.s:23126  .debug_str:0000000000006fb8 .LASF5336
C:\Users\SOLDER~1\AppData\Local\Temp\cchmqEOm.s:23706  .debug_str:00000000000095a9 .LASF5337
C:\Users\SOLDER~1\AppData\Local\Temp\cchmqEOm.s:24284  .debug_str:000000000000bb37 .LASF5338
C:\Users\SOLDER~1\AppData\Local\Temp\cchmqEOm.s:25222  .debug_str:000000000000f881 .LASF5339
C:\Users\SOLDER~1\AppData\Local\Temp\cchmqEOm.s:28018  .debug_str:000000000001ae9b .LASF5340
C:\Users\SOLDER~1\AppData\Local\Temp\cchmqEOm.s:28636  .debug_str:000000000001d6a1 .LASF5341
C:\Users\SOLDER~1\AppData\Local\Temp\cchmqEOm.s:32442  .debug_str:000000000002cd68 .LASF5342
C:\Users\SOLDER~1\AppData\Local\Temp\cchmqEOm.s:31980  .debug_str:000000000002af00 .LASF5343
C:\Users\SOLDER~1\AppData\Local\Temp\cchmqEOm.s:28552  .debug_str:000000000001d128 .LASF5344
GAS LISTING C:\Users\SOLDER~1\AppData\Local\Temp\cchmqEOm.s 			page 168


C:\Users\SOLDER~1\AppData\Local\Temp\cchmqEOm.s:25260  .debug_str:000000000000fb32 .LASF5345
C:\Users\SOLDER~1\AppData\Local\Temp\cchmqEOm.s:27086  .debug_str:00000000000171a2 .LASF5346
C:\Users\SOLDER~1\AppData\Local\Temp\cchmqEOm.s:24602  .debug_str:000000000000d057 .LASF5347
C:\Users\SOLDER~1\AppData\Local\Temp\cchmqEOm.s:23828  .debug_str:0000000000009d35 .LASF5348
C:\Users\SOLDER~1\AppData\Local\Temp\cchmqEOm.s:30704  .debug_str:0000000000025c21 .LASF5349
C:\Users\SOLDER~1\AppData\Local\Temp\cchmqEOm.s:25340  .debug_str:00000000000100a4 .LASF5350
C:\Users\SOLDER~1\AppData\Local\Temp\cchmqEOm.s:32764  .debug_str:000000000002e1e3 .LASF5351
C:\Users\SOLDER~1\AppData\Local\Temp\cchmqEOm.s:29010  .debug_str:000000000001eee4 .LASF5352
C:\Users\SOLDER~1\AppData\Local\Temp\cchmqEOm.s:21550  .debug_str:0000000000000a9d .LASF5353
C:\Users\SOLDER~1\AppData\Local\Temp\cchmqEOm.s:26286  .debug_str:0000000000013e06 .LASF5354
C:\Users\SOLDER~1\AppData\Local\Temp\cchmqEOm.s:24160  .debug_str:000000000000b313 .LASF5355
C:\Users\SOLDER~1\AppData\Local\Temp\cchmqEOm.s:28050  .debug_str:000000000001b071 .LASF5356
C:\Users\SOLDER~1\AppData\Local\Temp\cchmqEOm.s:27488  .debug_str:0000000000018c3e .LASF5357
C:\Users\SOLDER~1\AppData\Local\Temp\cchmqEOm.s:27118  .debug_str:00000000000173cb .LASF5358
C:\Users\SOLDER~1\AppData\Local\Temp\cchmqEOm.s:31882  .debug_str:000000000002a8f7 .LASF5359
C:\Users\SOLDER~1\AppData\Local\Temp\cchmqEOm.s:24990  .debug_str:000000000000e9c5 .LASF5360
C:\Users\SOLDER~1\AppData\Local\Temp\cchmqEOm.s:28270  .debug_str:000000000001be62 .LASF5361
C:\Users\SOLDER~1\AppData\Local\Temp\cchmqEOm.s:24738  .debug_str:000000000000d972 .LASF5362
C:\Users\SOLDER~1\AppData\Local\Temp\cchmqEOm.s:31008  .debug_str:00000000000270b1 .LASF5363
C:\Users\SOLDER~1\AppData\Local\Temp\cchmqEOm.s:30352  .debug_str:0000000000024544 .LASF5364
C:\Users\SOLDER~1\AppData\Local\Temp\cchmqEOm.s:32284  .debug_str:000000000002c2be .LASF5365
C:\Users\SOLDER~1\AppData\Local\Temp\cchmqEOm.s:24626  .debug_str:000000000000d1f9 .LASF5366
C:\Users\SOLDER~1\AppData\Local\Temp\cchmqEOm.s:30296  .debug_str:0000000000024188 .LASF5367
C:\Users\SOLDER~1\AppData\Local\Temp\cchmqEOm.s:27462  .debug_str:0000000000018ab4 .LASF5368
C:\Users\SOLDER~1\AppData\Local\Temp\cchmqEOm.s:33042  .debug_str:000000000002f368 .LASF5369
C:\Users\SOLDER~1\AppData\Local\Temp\cchmqEOm.s:28076  .debug_str:000000000001b27e .LASF5370
C:\Users\SOLDER~1\AppData\Local\Temp\cchmqEOm.s:25422  .debug_str:00000000000105d1 .LASF5371
C:\Users\SOLDER~1\AppData\Local\Temp\cchmqEOm.s:22700  .debug_str:00000000000053b7 .LASF5372
C:\Users\SOLDER~1\AppData\Local\Temp\cchmqEOm.s:24024  .debug_str:000000000000aa59 .LASF5373
C:\Users\SOLDER~1\AppData\Local\Temp\cchmqEOm.s:26416  .debug_str:00000000000146d6 .LASF5374
C:\Users\SOLDER~1\AppData\Local\Temp\cchmqEOm.s:24664  .debug_str:000000000000d47c .LASF5375
C:\Users\SOLDER~1\AppData\Local\Temp\cchmqEOm.s:24562  .debug_str:000000000000cddf .LASF5376
C:\Users\SOLDER~1\AppData\Local\Temp\cchmqEOm.s:29440  .debug_str:0000000000020abf .LASF5377
C:\Users\SOLDER~1\AppData\Local\Temp\cchmqEOm.s:26500  .debug_str:0000000000014c6b .LASF5378
C:\Users\SOLDER~1\AppData\Local\Temp\cchmqEOm.s:25740  .debug_str:0000000000011a08 .LASF5379
C:\Users\SOLDER~1\AppData\Local\Temp\cchmqEOm.s:29680  .debug_str:0000000000021a63 .LASF5380
C:\Users\SOLDER~1\AppData\Local\Temp\cchmqEOm.s:29602  .debug_str:0000000000021553 .LASF5381
C:\Users\SOLDER~1\AppData\Local\Temp\cchmqEOm.s:23138  .debug_str:0000000000007099 .LASF5382
C:\Users\SOLDER~1\AppData\Local\Temp\cchmqEOm.s:25408  .debug_str:00000000000104c2 .LASF5383
C:\Users\SOLDER~1\AppData\Local\Temp\cchmqEOm.s:31324  .debug_str:00000000000284ee .LASF5384
C:\Users\SOLDER~1\AppData\Local\Temp\cchmqEOm.s:31880  .debug_str:000000000002a8d5 .LASF5385
C:\Users\SOLDER~1\AppData\Local\Temp\cchmqEOm.s:28348  .debug_str:000000000001c395 .LASF5386
C:\Users\SOLDER~1\AppData\Local\Temp\cchmqEOm.s:24702  .debug_str:000000000000d71d .LASF5387
C:\Users\SOLDER~1\AppData\Local\Temp\cchmqEOm.s:32322  .debug_str:000000000002c539 .LASF5388
C:\Users\SOLDER~1\AppData\Local\Temp\cchmqEOm.s:30172  .debug_str:0000000000023964 .LASF5389
C:\Users\SOLDER~1\AppData\Local\Temp\cchmqEOm.s:21766  .debug_str:000000000000186f .LASF5390
C:\Users\SOLDER~1\AppData\Local\Temp\cchmqEOm.s:26186  .debug_str:00000000000136be .LASF5391
C:\Users\SOLDER~1\AppData\Local\Temp\cchmqEOm.s:25902  .debug_str:000000000001249b .LASF5392
C:\Users\SOLDER~1\AppData\Local\Temp\cchmqEOm.s:25426  .debug_str:000000000001061b .LASF5393
C:\Users\SOLDER~1\AppData\Local\Temp\cchmqEOm.s:21894  .debug_str:00000000000020a9 .LASF5394
C:\Users\SOLDER~1\AppData\Local\Temp\cchmqEOm.s:21622  .debug_str:0000000000000f72 .LASF5395
C:\Users\SOLDER~1\AppData\Local\Temp\cchmqEOm.s:29306  .debug_str:0000000000020259 .LASF5396
C:\Users\SOLDER~1\AppData\Local\Temp\cchmqEOm.s:32596  .debug_str:000000000002d76d .LASF5397
C:\Users\SOLDER~1\AppData\Local\Temp\cchmqEOm.s:28912  .debug_str:000000000001e877 .LASF5398
C:\Users\SOLDER~1\AppData\Local\Temp\cchmqEOm.s:30436  .debug_str:0000000000024ad7 .LASF5399
C:\Users\SOLDER~1\AppData\Local\Temp\cchmqEOm.s:23154  .debug_str:00000000000071b2 .LASF5400
C:\Users\SOLDER~1\AppData\Local\Temp\cchmqEOm.s:28400  .debug_str:000000000001c709 .LASF5401
GAS LISTING C:\Users\SOLDER~1\AppData\Local\Temp\cchmqEOm.s 			page 169


C:\Users\SOLDER~1\AppData\Local\Temp\cchmqEOm.s:26052  .debug_str:0000000000012de8 .LASF5402
C:\Users\SOLDER~1\AppData\Local\Temp\cchmqEOm.s:33010  .debug_str:000000000002f195 .LASF5403
C:\Users\SOLDER~1\AppData\Local\Temp\cchmqEOm.s:24742  .debug_str:000000000000d9b7 .LASF5404
C:\Users\SOLDER~1\AppData\Local\Temp\cchmqEOm.s:29966  .debug_str:0000000000022c1f .LASF5405
C:\Users\SOLDER~1\AppData\Local\Temp\cchmqEOm.s:24672  .debug_str:000000000000d4f4 .LASF5406
C:\Users\SOLDER~1\AppData\Local\Temp\cchmqEOm.s:30960  .debug_str:0000000000026d6f .LASF5407
C:\Users\SOLDER~1\AppData\Local\Temp\cchmqEOm.s:24684  .debug_str:000000000000d5d2 .LASF5408
C:\Users\SOLDER~1\AppData\Local\Temp\cchmqEOm.s:27180  .debug_str:000000000001780e .LASF5409
C:\Users\SOLDER~1\AppData\Local\Temp\cchmqEOm.s:32174  .debug_str:000000000002bba7 .LASF5410
C:\Users\SOLDER~1\AppData\Local\Temp\cchmqEOm.s:29992  .debug_str:0000000000022dcd .LASF5411
C:\Users\SOLDER~1\AppData\Local\Temp\cchmqEOm.s:31224  .debug_str:0000000000027e80 .LASF5412
C:\Users\SOLDER~1\AppData\Local\Temp\cchmqEOm.s:26604  .debug_str:0000000000015327 .LASF5413
C:\Users\SOLDER~1\AppData\Local\Temp\cchmqEOm.s:32766  .debug_str:000000000002e207 .LASF5414
C:\Users\SOLDER~1\AppData\Local\Temp\cchmqEOm.s:27448  .debug_str:00000000000189a0 .LASF5415
C:\Users\SOLDER~1\AppData\Local\Temp\cchmqEOm.s:26478  .debug_str:0000000000014ad9 .LASF5416
C:\Users\SOLDER~1\AppData\Local\Temp\cchmqEOm.s:26280  .debug_str:0000000000013d86 .LASF5417
C:\Users\SOLDER~1\AppData\Local\Temp\cchmqEOm.s:23886  .debug_str:000000000000a126 .LASF5418
C:\Users\SOLDER~1\AppData\Local\Temp\cchmqEOm.s:28668  .debug_str:000000000001d902 .LASF5419
C:\Users\SOLDER~1\AppData\Local\Temp\cchmqEOm.s:27692  .debug_str:00000000000199d9 .LASF5420
C:\Users\SOLDER~1\AppData\Local\Temp\cchmqEOm.s:30834  .debug_str:00000000000264ca .LASF5421
C:\Users\SOLDER~1\AppData\Local\Temp\cchmqEOm.s:22118  .debug_str:0000000000002f3f .LASF5422
C:\Users\SOLDER~1\AppData\Local\Temp\cchmqEOm.s:22558  .debug_str:0000000000004b2a .LASF5423
C:\Users\SOLDER~1\AppData\Local\Temp\cchmqEOm.s:24128  .debug_str:000000000000b120 .LASF5424
C:\Users\SOLDER~1\AppData\Local\Temp\cchmqEOm.s:27670  .debug_str:000000000001984b .LASF5425
C:\Users\SOLDER~1\AppData\Local\Temp\cchmqEOm.s:24696  .debug_str:000000000000d6c2 .LASF5426
C:\Users\SOLDER~1\AppData\Local\Temp\cchmqEOm.s:30246  .debug_str:0000000000023e82 .LASF5427
C:\Users\SOLDER~1\AppData\Local\Temp\cchmqEOm.s:31398  .debug_str:00000000000289ad .LASF5428
C:\Users\SOLDER~1\AppData\Local\Temp\cchmqEOm.s:24158  .debug_str:000000000000b2f4 .LASF5429
C:\Users\SOLDER~1\AppData\Local\Temp\cchmqEOm.s:28786  .debug_str:000000000001e03c .LASF5430
C:\Users\SOLDER~1\AppData\Local\Temp\cchmqEOm.s:31330  .debug_str:0000000000028531 .LASF5431
C:\Users\SOLDER~1\AppData\Local\Temp\cchmqEOm.s:28516  .debug_str:000000000001ce96 .LASF5432
C:\Users\SOLDER~1\AppData\Local\Temp\cchmqEOm.s:32974  .debug_str:000000000002ef31 .LASF5433
C:\Users\SOLDER~1\AppData\Local\Temp\cchmqEOm.s:32026  .debug_str:000000000002b216 .LASF5434
C:\Users\SOLDER~1\AppData\Local\Temp\cchmqEOm.s:32298  .debug_str:000000000002c39f .LASF5435
C:\Users\SOLDER~1\AppData\Local\Temp\cchmqEOm.s:27722  .debug_str:0000000000019c0c .LASF5436
C:\Users\SOLDER~1\AppData\Local\Temp\cchmqEOm.s:23086  .debug_str:0000000000006cfe .LASF5437
C:\Users\SOLDER~1\AppData\Local\Temp\cchmqEOm.s:21640  .debug_str:000000000000107d .LASF5438
C:\Users\SOLDER~1\AppData\Local\Temp\cchmqEOm.s:30052  .debug_str:00000000000231aa .LASF5439
C:\Users\SOLDER~1\AppData\Local\Temp\cchmqEOm.s:21546  .debug_str:0000000000000a57 .LASF5440
C:\Users\SOLDER~1\AppData\Local\Temp\cchmqEOm.s:26308  .debug_str:0000000000013f7a .LASF5441
C:\Users\SOLDER~1\AppData\Local\Temp\cchmqEOm.s:25678  .debug_str:000000000001160c .LASF5442
C:\Users\SOLDER~1\AppData\Local\Temp\cchmqEOm.s:30504  .debug_str:0000000000024f57 .LASF5443
C:\Users\SOLDER~1\AppData\Local\Temp\cchmqEOm.s:21660  .debug_str:00000000000011c0 .LASF5444
C:\Users\SOLDER~1\AppData\Local\Temp\cchmqEOm.s:27148  .debug_str:00000000000175ee .LASF5445
C:\Users\SOLDER~1\AppData\Local\Temp\cchmqEOm.s:28362  .debug_str:000000000001c48a .LASF5446
C:\Users\SOLDER~1\AppData\Local\Temp\cchmqEOm.s:23244  .debug_str:0000000000007752 .LASF5447
C:\Users\SOLDER~1\AppData\Local\Temp\cchmqEOm.s:24996  .debug_str:000000000000ea3c .LASF5448
C:\Users\SOLDER~1\AppData\Local\Temp\cchmqEOm.s:26028  .debug_str:0000000000012c46 .LASF5449
C:\Users\SOLDER~1\AppData\Local\Temp\cchmqEOm.s:27862  .debug_str:000000000001a472 .LASF5450
C:\Users\SOLDER~1\AppData\Local\Temp\cchmqEOm.s:27718  .debug_str:0000000000019bba .LASF5451
C:\Users\SOLDER~1\AppData\Local\Temp\cchmqEOm.s:27980  .debug_str:000000000001abf4 .LASF5452
C:\Users\SOLDER~1\AppData\Local\Temp\cchmqEOm.s:29192  .debug_str:000000000001fadb .LASF5453
C:\Users\SOLDER~1\AppData\Local\Temp\cchmqEOm.s:25922  .debug_str:00000000000125b1 .LASF5454
C:\Users\SOLDER~1\AppData\Local\Temp\cchmqEOm.s:32072  .debug_str:000000000002b4de .LASF5455
C:\Users\SOLDER~1\AppData\Local\Temp\cchmqEOm.s:23642  .debug_str:0000000000009136 .LASF5456
C:\Users\SOLDER~1\AppData\Local\Temp\cchmqEOm.s:29662  .debug_str:0000000000021957 .LASF5457
C:\Users\SOLDER~1\AppData\Local\Temp\cchmqEOm.s:25318  .debug_str:000000000000ff3f .LASF5458
GAS LISTING C:\Users\SOLDER~1\AppData\Local\Temp\cchmqEOm.s 			page 170


C:\Users\SOLDER~1\AppData\Local\Temp\cchmqEOm.s:24020  .debug_str:000000000000aa16 .LASF5459
C:\Users\SOLDER~1\AppData\Local\Temp\cchmqEOm.s:27566  .debug_str:000000000001919e .LASF5460
C:\Users\SOLDER~1\AppData\Local\Temp\cchmqEOm.s:29938  .debug_str:0000000000022a2c .LASF5461
C:\Users\SOLDER~1\AppData\Local\Temp\cchmqEOm.s:23274  .debug_str:00000000000078fd .LASF5462
C:\Users\SOLDER~1\AppData\Local\Temp\cchmqEOm.s:23934  .debug_str:000000000000a454 .LASF5463
C:\Users\SOLDER~1\AppData\Local\Temp\cchmqEOm.s:30124  .debug_str:0000000000023634 .LASF5464
C:\Users\SOLDER~1\AppData\Local\Temp\cchmqEOm.s:28776  .debug_str:000000000001df8c .LASF5465
C:\Users\SOLDER~1\AppData\Local\Temp\cchmqEOm.s:21508  .debug_str:00000000000007ab .LASF5466
C:\Users\SOLDER~1\AppData\Local\Temp\cchmqEOm.s:25544  .debug_str:0000000000010d9c .LASF5467
C:\Users\SOLDER~1\AppData\Local\Temp\cchmqEOm.s:26352  .debug_str:000000000001426b .LASF5468
C:\Users\SOLDER~1\AppData\Local\Temp\cchmqEOm.s:22612  .debug_str:0000000000004ead .LASF5469
C:\Users\SOLDER~1\AppData\Local\Temp\cchmqEOm.s:30330  .debug_str:00000000000243c6 .LASF5470
C:\Users\SOLDER~1\AppData\Local\Temp\cchmqEOm.s:32394  .debug_str:000000000002ca20 .LASF5471
C:\Users\SOLDER~1\AppData\Local\Temp\cchmqEOm.s:29846  .debug_str:000000000002249a .LASF5472
C:\Users\SOLDER~1\AppData\Local\Temp\cchmqEOm.s:29798  .debug_str:00000000000221a3 .LASF5473
C:\Users\SOLDER~1\AppData\Local\Temp\cchmqEOm.s:29396  .debug_str:00000000000207de .LASF5474
C:\Users\SOLDER~1\AppData\Local\Temp\cchmqEOm.s:21842  .debug_str:0000000000001d66 .LASF5475
C:\Users\SOLDER~1\AppData\Local\Temp\cchmqEOm.s:30586  .debug_str:00000000000254d7 .LASF5476
C:\Users\SOLDER~1\AppData\Local\Temp\cchmqEOm.s:28644  .debug_str:000000000001d74e .LASF5477
C:\Users\SOLDER~1\AppData\Local\Temp\cchmqEOm.s:32566  .debug_str:000000000002d529 .LASF5478
C:\Users\SOLDER~1\AppData\Local\Temp\cchmqEOm.s:23092  .debug_str:0000000000006d4b .LASF5479
C:\Users\SOLDER~1\AppData\Local\Temp\cchmqEOm.s:24408  .debug_str:000000000000c37c .LASF5480
C:\Users\SOLDER~1\AppData\Local\Temp\cchmqEOm.s:31796  .debug_str:000000000002a322 .LASF5481
C:\Users\SOLDER~1\AppData\Local\Temp\cchmqEOm.s:27570  .debug_str:00000000000191d9 .LASF5482
C:\Users\SOLDER~1\AppData\Local\Temp\cchmqEOm.s:30450  .debug_str:0000000000024bb5 .LASF5483
C:\Users\SOLDER~1\AppData\Local\Temp\cchmqEOm.s:28826  .debug_str:000000000001e2da .LASF5484
C:\Users\SOLDER~1\AppData\Local\Temp\cchmqEOm.s:27092  .debug_str:000000000001720c .LASF5485
C:\Users\SOLDER~1\AppData\Local\Temp\cchmqEOm.s:22746  .debug_str:000000000000566b .LASF5486
C:\Users\SOLDER~1\AppData\Local\Temp\cchmqEOm.s:26952  .debug_str:00000000000169a1 .LASF5487
C:\Users\SOLDER~1\AppData\Local\Temp\cchmqEOm.s:30954  .debug_str:0000000000026d06 .LASF5488
C:\Users\SOLDER~1\AppData\Local\Temp\cchmqEOm.s:25708  .debug_str:0000000000011855 .LASF5489
C:\Users\SOLDER~1\AppData\Local\Temp\cchmqEOm.s:28124  .debug_str:000000000001b58d .LASF5490
C:\Users\SOLDER~1\AppData\Local\Temp\cchmqEOm.s:21500  .debug_str:0000000000000730 .LASF5491
C:\Users\SOLDER~1\AppData\Local\Temp\cchmqEOm.s:24056  .debug_str:000000000000ac85 .LASF5492
C:\Users\SOLDER~1\AppData\Local\Temp\cchmqEOm.s:28890  .debug_str:000000000001e71e .LASF5493
C:\Users\SOLDER~1\AppData\Local\Temp\cchmqEOm.s:26006  .debug_str:0000000000012ae2 .LASF5494
C:\Users\SOLDER~1\AppData\Local\Temp\cchmqEOm.s:26260  .debug_str:0000000000013bf4 .LASF5495
C:\Users\SOLDER~1\AppData\Local\Temp\cchmqEOm.s:24442  .debug_str:000000000000c5d4 .LASF5496
C:\Users\SOLDER~1\AppData\Local\Temp\cchmqEOm.s:29604  .debug_str:0000000000021571 .LASF5497
C:\Users\SOLDER~1\AppData\Local\Temp\cchmqEOm.s:27182  .debug_str:000000000001783f .LASF5498
C:\Users\SOLDER~1\AppData\Local\Temp\cchmqEOm.s:31476  .debug_str:0000000000028ebb .LASF5499
C:\Users\SOLDER~1\AppData\Local\Temp\cchmqEOm.s:27188  .debug_str:00000000000178ad .LASF5500
C:\Users\SOLDER~1\AppData\Local\Temp\cchmqEOm.s:32796  .debug_str:000000000002e410 .LASF5501
C:\Users\SOLDER~1\AppData\Local\Temp\cchmqEOm.s:26960  .debug_str:00000000000169f5 .LASF5502
C:\Users\SOLDER~1\AppData\Local\Temp\cchmqEOm.s:28582  .debug_str:000000000001d32c .LASF5503
C:\Users\SOLDER~1\AppData\Local\Temp\cchmqEOm.s:30198  .debug_str:0000000000023b5d .LASF5504
C:\Users\SOLDER~1\AppData\Local\Temp\cchmqEOm.s:25580  .debug_str:0000000000010fcb .LASF5505
C:\Users\SOLDER~1\AppData\Local\Temp\cchmqEOm.s:27458  .debug_str:0000000000018a62 .LASF5506
C:\Users\SOLDER~1\AppData\Local\Temp\cchmqEOm.s:23502  .debug_str:00000000000087f9 .LASF5507
C:\Users\SOLDER~1\AppData\Local\Temp\cchmqEOm.s:26242  .debug_str:0000000000013a7e .LASF5508
C:\Users\SOLDER~1\AppData\Local\Temp\cchmqEOm.s:24540  .debug_str:000000000000cc65 .LASF5509
C:\Users\SOLDER~1\AppData\Local\Temp\cchmqEOm.s:32090  .debug_str:000000000002b63b .LASF5510
C:\Users\SOLDER~1\AppData\Local\Temp\cchmqEOm.s:23974  .debug_str:000000000000a6ec .LASF5511
C:\Users\SOLDER~1\AppData\Local\Temp\cchmqEOm.s:29630  .debug_str:0000000000021710 .LASF5512
C:\Users\SOLDER~1\AppData\Local\Temp\cchmqEOm.s:29864  .debug_str:00000000000225cc .LASF5513
C:\Users\SOLDER~1\AppData\Local\Temp\cchmqEOm.s:30464  .debug_str:0000000000024cb1 .LASF5514
C:\Users\SOLDER~1\AppData\Local\Temp\cchmqEOm.s:26558  .debug_str:0000000000015065 .LASF5515
GAS LISTING C:\Users\SOLDER~1\AppData\Local\Temp\cchmqEOm.s 			page 171


C:\Users\SOLDER~1\AppData\Local\Temp\cchmqEOm.s:23842  .debug_str:0000000000009e39 .LASF5516
C:\Users\SOLDER~1\AppData\Local\Temp\cchmqEOm.s:33012  .debug_str:000000000002f1b9 .LASF5517
C:\Users\SOLDER~1\AppData\Local\Temp\cchmqEOm.s:32350  .debug_str:000000000002c74f .LASF5518
C:\Users\SOLDER~1\AppData\Local\Temp\cchmqEOm.s:32856  .debug_str:000000000002e7b8 .LASF5519
C:\Users\SOLDER~1\AppData\Local\Temp\cchmqEOm.s:23104  .debug_str:0000000000006e25 .LASF5520
C:\Users\SOLDER~1\AppData\Local\Temp\cchmqEOm.s:26556  .debug_str:000000000001503f .LASF5521
C:\Users\SOLDER~1\AppData\Local\Temp\cchmqEOm.s:21768  .debug_str:0000000000001893 .LASF5522
C:\Users\SOLDER~1\AppData\Local\Temp\cchmqEOm.s:30146  .debug_str:00000000000237be .LASF5523
C:\Users\SOLDER~1\AppData\Local\Temp\cchmqEOm.s:32168  .debug_str:000000000002bb48 .LASF5524
C:\Users\SOLDER~1\AppData\Local\Temp\cchmqEOm.s:22202  .debug_str:00000000000034df .LASF5525
C:\Users\SOLDER~1\AppData\Local\Temp\cchmqEOm.s:32152  .debug_str:000000000002ba3a .LASF5526
C:\Users\SOLDER~1\AppData\Local\Temp\cchmqEOm.s:28954  .debug_str:000000000001eb00 .LASF5527
C:\Users\SOLDER~1\AppData\Local\Temp\cchmqEOm.s:25428  .debug_str:0000000000010640 .LASF5528
C:\Users\SOLDER~1\AppData\Local\Temp\cchmqEOm.s:23064  .debug_str:0000000000006b90 .LASF5529
C:\Users\SOLDER~1\AppData\Local\Temp\cchmqEOm.s:22766  .debug_str:00000000000057a6 .LASF5530
C:\Users\SOLDER~1\AppData\Local\Temp\cchmqEOm.s:21988  .debug_str:00000000000026e2 .LASF5531
C:\Users\SOLDER~1\AppData\Local\Temp\cchmqEOm.s:22204  .debug_str:0000000000003500 .LASF5532
C:\Users\SOLDER~1\AppData\Local\Temp\cchmqEOm.s:25572  .debug_str:0000000000010f4a .LASF5533
C:\Users\SOLDER~1\AppData\Local\Temp\cchmqEOm.s:23682  .debug_str:00000000000093e7 .LASF5534
C:\Users\SOLDER~1\AppData\Local\Temp\cchmqEOm.s:22770  .debug_str:0000000000005807 .LASF5535
C:\Users\SOLDER~1\AppData\Local\Temp\cchmqEOm.s:30810  .debug_str:0000000000026339 .LASF5536
C:\Users\SOLDER~1\AppData\Local\Temp\cchmqEOm.s:24586  .debug_str:000000000000cf5c .LASF5537
C:\Users\SOLDER~1\AppData\Local\Temp\cchmqEOm.s:23148  .debug_str:0000000000007144 .LASF5538
C:\Users\SOLDER~1\AppData\Local\Temp\cchmqEOm.s:33098  .debug_str:000000000002f6dc .LASF5539
C:\Users\SOLDER~1\AppData\Local\Temp\cchmqEOm.s:31210  .debug_str:0000000000027da8 .LASF5540
C:\Users\SOLDER~1\AppData\Local\Temp\cchmqEOm.s:23162  .debug_str:0000000000007232 .LASF5541
C:\Users\SOLDER~1\AppData\Local\Temp\cchmqEOm.s:26864  .debug_str:0000000000016416 .LASF5542
C:\Users\SOLDER~1\AppData\Local\Temp\cchmqEOm.s:32908  .debug_str:000000000002eafd .LASF5543
C:\Users\SOLDER~1\AppData\Local\Temp\cchmqEOm.s:32514  .debug_str:000000000002d1c5 .LASF5544
C:\Users\SOLDER~1\AppData\Local\Temp\cchmqEOm.s:26682  .debug_str:0000000000015850 .LASF5545
C:\Users\SOLDER~1\AppData\Local\Temp\cchmqEOm.s:32694  .debug_str:000000000002dd89 .LASF5546
C:\Users\SOLDER~1\AppData\Local\Temp\cchmqEOm.s:29140  .debug_str:000000000001f74c .LASF5547
C:\Users\SOLDER~1\AppData\Local\Temp\cchmqEOm.s:25606  .debug_str:0000000000011188 .LASF5548
C:\Users\SOLDER~1\AppData\Local\Temp\cchmqEOm.s:30314  .debug_str:00000000000242b8 .LASF5549
C:\Users\SOLDER~1\AppData\Local\Temp\cchmqEOm.s:29830  .debug_str:00000000000223b6 .LASF5550
C:\Users\SOLDER~1\AppData\Local\Temp\cchmqEOm.s:22218  .debug_str:00000000000035d4 .LASF5551
C:\Users\SOLDER~1\AppData\Local\Temp\cchmqEOm.s:28162  .debug_str:000000000001b7bd .LASF5552
C:\Users\SOLDER~1\AppData\Local\Temp\cchmqEOm.s:26610  .debug_str:00000000000153a2 .LASF5553
C:\Users\SOLDER~1\AppData\Local\Temp\cchmqEOm.s:28624  .debug_str:000000000001d5ce .LASF5554
C:\Users\SOLDER~1\AppData\Local\Temp\cchmqEOm.s:32310  .debug_str:000000000002c45a .LASF5555
C:\Users\SOLDER~1\AppData\Local\Temp\cchmqEOm.s:30664  .debug_str:00000000000259b4 .LASF5556
C:\Users\SOLDER~1\AppData\Local\Temp\cchmqEOm.s:28066  .debug_str:000000000001b1a3 .LASF5557
C:\Users\SOLDER~1\AppData\Local\Temp\cchmqEOm.s:28058  .debug_str:000000000001b115 .LASF5558
C:\Users\SOLDER~1\AppData\Local\Temp\cchmqEOm.s:28408  .debug_str:000000000001c77f .LASF5559
C:\Users\SOLDER~1\AppData\Local\Temp\cchmqEOm.s:26542  .debug_str:0000000000014f50 .LASF5560
C:\Users\SOLDER~1\AppData\Local\Temp\cchmqEOm.s:25976  .debug_str:000000000001293e .LASF5561
C:\Users\SOLDER~1\AppData\Local\Temp\cchmqEOm.s:28064  .debug_str:000000000001b181 .LASF5562
C:\Users\SOLDER~1\AppData\Local\Temp\cchmqEOm.s:32910  .debug_str:000000000002eb20 .LASF5563
C:\Users\SOLDER~1\AppData\Local\Temp\cchmqEOm.s:32818  .debug_str:000000000002e586 .LASF5564
C:\Users\SOLDER~1\AppData\Local\Temp\cchmqEOm.s:25394  .debug_str:00000000000103f9 .LASF5565
C:\Users\SOLDER~1\AppData\Local\Temp\cchmqEOm.s:32156  .debug_str:000000000002ba7d .LASF5566
C:\Users\SOLDER~1\AppData\Local\Temp\cchmqEOm.s:28828  .debug_str:000000000001e309 .LASF5567
C:\Users\SOLDER~1\AppData\Local\Temp\cchmqEOm.s:25802  .debug_str:0000000000011e11 .LASF5568
C:\Users\SOLDER~1\AppData\Local\Temp\cchmqEOm.s:23324  .debug_str:0000000000007c61 .LASF5569
C:\Users\SOLDER~1\AppData\Local\Temp\cchmqEOm.s:21664  .debug_str:0000000000001212 .LASF5570
C:\Users\SOLDER~1\AppData\Local\Temp\cchmqEOm.s:30356  .debug_str:0000000000024591 .LASF5571
C:\Users\SOLDER~1\AppData\Local\Temp\cchmqEOm.s:25950  .debug_str:0000000000012760 .LASF5572
GAS LISTING C:\Users\SOLDER~1\AppData\Local\Temp\cchmqEOm.s 			page 172


C:\Users\SOLDER~1\AppData\Local\Temp\cchmqEOm.s:23592  .debug_str:0000000000008deb .LASF5573
C:\Users\SOLDER~1\AppData\Local\Temp\cchmqEOm.s:22804  .debug_str:0000000000005a75 .LASF5574
C:\Users\SOLDER~1\AppData\Local\Temp\cchmqEOm.s:32382  .debug_str:000000000002c956 .LASF5575
C:\Users\SOLDER~1\AppData\Local\Temp\cchmqEOm.s:24370  .debug_str:000000000000c0e1 .LASF5576
C:\Users\SOLDER~1\AppData\Local\Temp\cchmqEOm.s:24572  .debug_str:000000000000ce89 .LASF5577
C:\Users\SOLDER~1\AppData\Local\Temp\cchmqEOm.s:28744  .debug_str:000000000001ddcd .LASF5578
C:\Users\SOLDER~1\AppData\Local\Temp\cchmqEOm.s:28138  .debug_str:000000000001b62f .LASF5579
C:\Users\SOLDER~1\AppData\Local\Temp\cchmqEOm.s:27606  .debug_str:0000000000019443 .LASF5580
C:\Users\SOLDER~1\AppData\Local\Temp\cchmqEOm.s:22184  .debug_str:000000000000339a .LASF5581
C:\Users\SOLDER~1\AppData\Local\Temp\cchmqEOm.s:27962  .debug_str:000000000001aac8 .LASF5582
C:\Users\SOLDER~1\AppData\Local\Temp\cchmqEOm.s:25488  .debug_str:00000000000109ed .LASF5583
C:\Users\SOLDER~1\AppData\Local\Temp\cchmqEOm.s:31794  .debug_str:000000000002a2f4 .LASF5584
C:\Users\SOLDER~1\AppData\Local\Temp\cchmqEOm.s:25256  .debug_str:000000000000fac9 .LASF5585
C:\Users\SOLDER~1\AppData\Local\Temp\cchmqEOm.s:21958  .debug_str:0000000000002505 .LASF5586
C:\Users\SOLDER~1\AppData\Local\Temp\cchmqEOm.s:27910  .debug_str:000000000001a768 .LASF5587
C:\Users\SOLDER~1\AppData\Local\Temp\cchmqEOm.s:22232  .debug_str:00000000000036a5 .LASF5588
C:\Users\SOLDER~1\AppData\Local\Temp\cchmqEOm.s:22644  .debug_str:000000000000506a .LASF5589
C:\Users\SOLDER~1\AppData\Local\Temp\cchmqEOm.s:31884  .debug_str:000000000002a91a .LASF5590
C:\Users\SOLDER~1\AppData\Local\Temp\cchmqEOm.s:21446  .debug_str:0000000000000307 .LASF5591
C:\Users\SOLDER~1\AppData\Local\Temp\cchmqEOm.s:23156  .debug_str:00000000000071d6 .LASF5592
C:\Users\SOLDER~1\AppData\Local\Temp\cchmqEOm.s:32120  .debug_str:000000000002b86b .LASF5593
C:\Users\SOLDER~1\AppData\Local\Temp\cchmqEOm.s:24046  .debug_str:000000000000abf3 .LASF5594
C:\Users\SOLDER~1\AppData\Local\Temp\cchmqEOm.s:30886  .debug_str:0000000000026884 .LASF5595
C:\Users\SOLDER~1\AppData\Local\Temp\cchmqEOm.s:32248  .debug_str:000000000002c070 .LASF5596
C:\Users\SOLDER~1\AppData\Local\Temp\cchmqEOm.s:23436  .debug_str:00000000000083e0 .LASF5597
C:\Users\SOLDER~1\AppData\Local\Temp\cchmqEOm.s:24428  .debug_str:000000000000c4cb .LASF5598
C:\Users\SOLDER~1\AppData\Local\Temp\cchmqEOm.s:30552  .debug_str:000000000002529e .LASF5599
C:\Users\SOLDER~1\AppData\Local\Temp\cchmqEOm.s:27772  .debug_str:0000000000019eba .LASF5600
C:\Users\SOLDER~1\AppData\Local\Temp\cchmqEOm.s:24978  .debug_str:000000000000e8fa .LASF5601
C:\Users\SOLDER~1\AppData\Local\Temp\cchmqEOm.s:32888  .debug_str:000000000002e9c3 .LASF5602
C:\Users\SOLDER~1\AppData\Local\Temp\cchmqEOm.s:25686  .debug_str:000000000001168e .LASF5603
C:\Users\SOLDER~1\AppData\Local\Temp\cchmqEOm.s:28588  .debug_str:000000000001d3aa .LASF5604
C:\Users\SOLDER~1\AppData\Local\Temp\cchmqEOm.s:27290  .debug_str:0000000000017f2b .LASF5605
C:\Users\SOLDER~1\AppData\Local\Temp\cchmqEOm.s:23334  .debug_str:0000000000007d15 .LASF5606
C:\Users\SOLDER~1\AppData\Local\Temp\cchmqEOm.s:32506  .debug_str:000000000002d149 .LASF5607
C:\Users\SOLDER~1\AppData\Local\Temp\cchmqEOm.s:28934  .debug_str:000000000001e9cf .LASF5608
C:\Users\SOLDER~1\AppData\Local\Temp\cchmqEOm.s:21698  .debug_str:0000000000001430 .LASF5609
C:\Users\SOLDER~1\AppData\Local\Temp\cchmqEOm.s:26782  .debug_str:0000000000015eae .LASF5610
C:\Users\SOLDER~1\AppData\Local\Temp\cchmqEOm.s:31060  .debug_str:00000000000273f0 .LASF5611
C:\Users\SOLDER~1\AppData\Local\Temp\cchmqEOm.s:26858  .debug_str:00000000000163a7 .LASF5612
C:\Users\SOLDER~1\AppData\Local\Temp\cchmqEOm.s:31302  .debug_str:0000000000028375 .LASF5613
C:\Users\SOLDER~1\AppData\Local\Temp\cchmqEOm.s:21788  .debug_str:00000000000019b7 .LASF5614
C:\Users\SOLDER~1\AppData\Local\Temp\cchmqEOm.s:29948  .debug_str:0000000000022adb .LASF5615
C:\Users\SOLDER~1\AppData\Local\Temp\cchmqEOm.s:27888  .debug_str:000000000001a635 .LASF5616
C:\Users\SOLDER~1\AppData\Local\Temp\cchmqEOm.s:26804  .debug_str:0000000000016019 .LASF5617
C:\Users\SOLDER~1\AppData\Local\Temp\cchmqEOm.s:24060  .debug_str:000000000000acb8 .LASF5618
C:\Users\SOLDER~1\AppData\Local\Temp\cchmqEOm.s:21540  .debug_str:00000000000009e5 .LASF5619
C:\Users\SOLDER~1\AppData\Local\Temp\cchmqEOm.s:29042  .debug_str:000000000001f110 .LASF5620
C:\Users\SOLDER~1\AppData\Local\Temp\cchmqEOm.s:31842  .debug_str:000000000002a616 .LASF5621
C:\Users\SOLDER~1\AppData\Local\Temp\cchmqEOm.s:27234  .debug_str:0000000000017bac .LASF5622
C:\Users\SOLDER~1\AppData\Local\Temp\cchmqEOm.s:25396  .debug_str:000000000001041c .LASF5623
C:\Users\SOLDER~1\AppData\Local\Temp\cchmqEOm.s:23456  .debug_str:0000000000008535 .LASF5624
C:\Users\SOLDER~1\AppData\Local\Temp\cchmqEOm.s:23264  .debug_str:0000000000007878 .LASF5625
C:\Users\SOLDER~1\AppData\Local\Temp\cchmqEOm.s:28816  .debug_str:000000000001e22b .LASF5626
C:\Users\SOLDER~1\AppData\Local\Temp\cchmqEOm.s:23368  .debug_str:0000000000007f59 .LASF5627
C:\Users\SOLDER~1\AppData\Local\Temp\cchmqEOm.s:27386  .debug_str:00000000000185cd .LASF5628
C:\Users\SOLDER~1\AppData\Local\Temp\cchmqEOm.s:22176  .debug_str:000000000000331a .LASF5629
GAS LISTING C:\Users\SOLDER~1\AppData\Local\Temp\cchmqEOm.s 			page 173


C:\Users\SOLDER~1\AppData\Local\Temp\cchmqEOm.s:22796  .debug_str:00000000000059e0 .LASF5630
C:\Users\SOLDER~1\AppData\Local\Temp\cchmqEOm.s:28462  .debug_str:000000000001cafa .LASF5631
C:\Users\SOLDER~1\AppData\Local\Temp\cchmqEOm.s:22194  .debug_str:0000000000003455 .LASF5632
C:\Users\SOLDER~1\AppData\Local\Temp\cchmqEOm.s:27250  .debug_str:0000000000017c9e .LASF5633
C:\Users\SOLDER~1\AppData\Local\Temp\cchmqEOm.s:25122  .debug_str:000000000000f220 .LASF5634
C:\Users\SOLDER~1\AppData\Local\Temp\cchmqEOm.s:25500  .debug_str:0000000000010ad8 .LASF5635
C:\Users\SOLDER~1\AppData\Local\Temp\cchmqEOm.s:22384  .debug_str:0000000000004054 .LASF5636
C:\Users\SOLDER~1\AppData\Local\Temp\cchmqEOm.s:22768  .debug_str:00000000000057db .LASF5637
C:\Users\SOLDER~1\AppData\Local\Temp\cchmqEOm.s:21620  .debug_str:0000000000000f3f .LASF5638
C:\Users\SOLDER~1\AppData\Local\Temp\cchmqEOm.s:26230  .debug_str:00000000000139bf .LASF5639
C:\Users\SOLDER~1\AppData\Local\Temp\cchmqEOm.s:30162  .debug_str:00000000000238be .LASF5640
C:\Users\SOLDER~1\AppData\Local\Temp\cchmqEOm.s:27660  .debug_str:00000000000197b3 .LASF5641
C:\Users\SOLDER~1\AppData\Local\Temp\cchmqEOm.s:27088  .debug_str:00000000000171cd .LASF5642
C:\Users\SOLDER~1\AppData\Local\Temp\cchmqEOm.s:25054  .debug_str:000000000000edc7 .LASF5643
C:\Users\SOLDER~1\AppData\Local\Temp\cchmqEOm.s:23152  .debug_str:0000000000007189 .LASF5644
C:\Users\SOLDER~1\AppData\Local\Temp\cchmqEOm.s:26482  .debug_str:0000000000014b1c .LASF5645
C:\Users\SOLDER~1\AppData\Local\Temp\cchmqEOm.s:31630  .debug_str:0000000000029830 .LASF5646
C:\Users\SOLDER~1\AppData\Local\Temp\cchmqEOm.s:26982  .debug_str:0000000000016b3f .LASF5647
C:\Users\SOLDER~1\AppData\Local\Temp\cchmqEOm.s:24516  .debug_str:000000000000cacf .LASF5648
C:\Users\SOLDER~1\AppData\Local\Temp\cchmqEOm.s:30300  .debug_str:00000000000241ca .LASF5649
C:\Users\SOLDER~1\AppData\Local\Temp\cchmqEOm.s:32610  .debug_str:000000000002d861 .LASF5650
C:\Users\SOLDER~1\AppData\Local\Temp\cchmqEOm.s:28604  .debug_str:000000000001d4aa .LASF5651
C:\Users\SOLDER~1\AppData\Local\Temp\cchmqEOm.s:25648  .debug_str:0000000000011441 .LASF5652
C:\Users\SOLDER~1\AppData\Local\Temp\cchmqEOm.s:24188  .debug_str:000000000000b4fb .LASF5653
C:\Users\SOLDER~1\AppData\Local\Temp\cchmqEOm.s:23948  .debug_str:000000000000a533 .LASF5654
C:\Users\SOLDER~1\AppData\Local\Temp\cchmqEOm.s:29278  .debug_str:000000000002008b .LASF5655
C:\Users\SOLDER~1\AppData\Local\Temp\cchmqEOm.s:23812  .debug_str:0000000000009c46 .LASF5656
C:\Users\SOLDER~1\AppData\Local\Temp\cchmqEOm.s:32096  .debug_str:000000000002b6bf .LASF5657
C:\Users\SOLDER~1\AppData\Local\Temp\cchmqEOm.s:30878  .debug_str:00000000000267e0 .LASF5658
C:\Users\SOLDER~1\AppData\Local\Temp\cchmqEOm.s:21876  .debug_str:0000000000001f96 .LASF5659
C:\Users\SOLDER~1\AppData\Local\Temp\cchmqEOm.s:26150  .debug_str:000000000001344b .LASF5660
C:\Users\SOLDER~1\AppData\Local\Temp\cchmqEOm.s:22444  .debug_str:0000000000004418 .LASF5661
C:\Users\SOLDER~1\AppData\Local\Temp\cchmqEOm.s:26204  .debug_str:0000000000013802 .LASF5662
C:\Users\SOLDER~1\AppData\Local\Temp\cchmqEOm.s:23932  .debug_str:000000000000a429 .LASF5663
C:\Users\SOLDER~1\AppData\Local\Temp\cchmqEOm.s:29954  .debug_str:0000000000022b4d .LASF5664
C:\Users\SOLDER~1\AppData\Local\Temp\cchmqEOm.s:26844  .debug_str:00000000000162a6 .LASF5665
C:\Users\SOLDER~1\AppData\Local\Temp\cchmqEOm.s:31756  .debug_str:000000000002a05b .LASF5666
C:\Users\SOLDER~1\AppData\Local\Temp\cchmqEOm.s:27560  .debug_str:0000000000019130 .LASF5667
C:\Users\SOLDER~1\AppData\Local\Temp\cchmqEOm.s:24924  .debug_str:000000000000e5c0 .LASF5668
C:\Users\SOLDER~1\AppData\Local\Temp\cchmqEOm.s:29020  .debug_str:000000000001ef97 .LASF5669
C:\Users\SOLDER~1\AppData\Local\Temp\cchmqEOm.s:26002  .debug_str:0000000000012a92 .LASF5670
C:\Users\SOLDER~1\AppData\Local\Temp\cchmqEOm.s:27174  .debug_str:0000000000017799 .LASF5671
C:\Users\SOLDER~1\AppData\Local\Temp\cchmqEOm.s:28672  .debug_str:000000000001d94b .LASF5672
C:\Users\SOLDER~1\AppData\Local\Temp\cchmqEOm.s:21786  .debug_str:000000000000198c .LASF5673
C:\Users\SOLDER~1\AppData\Local\Temp\cchmqEOm.s:30220  .debug_str:0000000000023cce .LASF5674
C:\Users\SOLDER~1\AppData\Local\Temp\cchmqEOm.s:26712  .debug_str:0000000000015a27 .LASF5675
C:\Users\SOLDER~1\AppData\Local\Temp\cchmqEOm.s:25618  .debug_str:0000000000011244 .LASF5676
C:\Users\SOLDER~1\AppData\Local\Temp\cchmqEOm.s:22678  .debug_str:000000000000526c .LASF5677
C:\Users\SOLDER~1\AppData\Local\Temp\cchmqEOm.s:25556  .debug_str:0000000000010e53 .LASF5678
C:\Users\SOLDER~1\AppData\Local\Temp\cchmqEOm.s:23662  .debug_str:00000000000092c3 .LASF5679
C:\Users\SOLDER~1\AppData\Local\Temp\cchmqEOm.s:30588  .debug_str:0000000000025500 .LASF5680
C:\Users\SOLDER~1\AppData\Local\Temp\cchmqEOm.s:31636  .debug_str:000000000002989e .LASF5681
C:\Users\SOLDER~1\AppData\Local\Temp\cchmqEOm.s:22800  .debug_str:0000000000005a26 .LASF5682
C:\Users\SOLDER~1\AppData\Local\Temp\cchmqEOm.s:26838  .debug_str:0000000000016244 .LASF5683
C:\Users\SOLDER~1\AppData\Local\Temp\cchmqEOm.s:24410  .debug_str:000000000000c3a3 .LASF5684
C:\Users\SOLDER~1\AppData\Local\Temp\cchmqEOm.s:23314  .debug_str:0000000000007ba2 .LASF5685
C:\Users\SOLDER~1\AppData\Local\Temp\cchmqEOm.s:23190  .debug_str:00000000000073eb .LASF5686
GAS LISTING C:\Users\SOLDER~1\AppData\Local\Temp\cchmqEOm.s 			page 174


C:\Users\SOLDER~1\AppData\Local\Temp\cchmqEOm.s:29808  .debug_str:0000000000022254 .LASF5687
C:\Users\SOLDER~1\AppData\Local\Temp\cchmqEOm.s:23816  .debug_str:0000000000009c8a .LASF5688
C:\Users\SOLDER~1\AppData\Local\Temp\cchmqEOm.s:31214  .debug_str:0000000000027dea .LASF5689
C:\Users\SOLDER~1\AppData\Local\Temp\cchmqEOm.s:33066  .debug_str:000000000002f4df .LASF5690
C:\Users\SOLDER~1\AppData\Local\Temp\cchmqEOm.s:30018  .debug_str:0000000000022f6f .LASF5691
C:\Users\SOLDER~1\AppData\Local\Temp\cchmqEOm.s:32526  .debug_str:000000000002d28d .LASF5692
C:\Users\SOLDER~1\AppData\Local\Temp\cchmqEOm.s:22258  .debug_str:000000000000384d .LASF5693
C:\Users\SOLDER~1\AppData\Local\Temp\cchmqEOm.s:32158  .debug_str:000000000002ba9f .LASF5694
C:\Users\SOLDER~1\AppData\Local\Temp\cchmqEOm.s:32604  .debug_str:000000000002d7ff .LASF5695
C:\Users\SOLDER~1\AppData\Local\Temp\cchmqEOm.s:27314  .debug_str:00000000000180d1 .LASF5696
C:\Users\SOLDER~1\AppData\Local\Temp\cchmqEOm.s:22144  .debug_str:0000000000003109 .LASF5697
C:\Users\SOLDER~1\AppData\Local\Temp\cchmqEOm.s:24532  .debug_str:000000000000cbd8 .LASF5698
C:\Users\SOLDER~1\AppData\Local\Temp\cchmqEOm.s:32226  .debug_str:000000000002bf20 .LASF5699
C:\Users\SOLDER~1\AppData\Local\Temp\cchmqEOm.s:31610  .debug_str:00000000000296d8 .LASF5700
C:\Users\SOLDER~1\AppData\Local\Temp\cchmqEOm.s:32558  .debug_str:000000000002d49f .LASF5701
C:\Users\SOLDER~1\AppData\Local\Temp\cchmqEOm.s:25480  .debug_str:000000000001095b .LASF5702
C:\Users\SOLDER~1\AppData\Local\Temp\cchmqEOm.s:28854  .debug_str:000000000001e4d6 .LASF5703
C:\Users\SOLDER~1\AppData\Local\Temp\cchmqEOm.s:22790  .debug_str:0000000000005979 .LASF5704
C:\Users\SOLDER~1\AppData\Local\Temp\cchmqEOm.s:32186  .debug_str:000000000002bc8a .LASF5705
C:\Users\SOLDER~1\AppData\Local\Temp\cchmqEOm.s:26744  .debug_str:0000000000015c4f .LASF5706
C:\Users\SOLDER~1\AppData\Local\Temp\cchmqEOm.s:26432  .debug_str:00000000000147fb .LASF5707
C:\Users\SOLDER~1\AppData\Local\Temp\cchmqEOm.s:31366  .debug_str:00000000000287c4 .LASF5708
C:\Users\SOLDER~1\AppData\Local\Temp\cchmqEOm.s:22206  .debug_str:0000000000003526 .LASF5709
C:\Users\SOLDER~1\AppData\Local\Temp\cchmqEOm.s:21978  .debug_str:000000000000264c .LASF5710
C:\Users\SOLDER~1\AppData\Local\Temp\cchmqEOm.s:27902  .debug_str:000000000001a703 .LASF5711
                           .group:0000000000000000 wm4.0.cc27e0d2094b492664a2491ca1ae43b0
                           .group:0000000000000000 wm4.ch32v20x.h.13.a030255a3e90e7179ae3b08da8e2408d
                           .group:0000000000000000 wm4._newlib_version.h.4.529115dae5e4f67702b1de0b6e841f38
                           .group:0000000000000000 wm4.features.h.33.3e67abe6fb64142d4f6fa9496796153c
                           .group:0000000000000000 wm4._default_types.h.15.247e5cd201eca3442cbf5404108c4935
                           .group:0000000000000000 wm4._intsup.h.10.48bafbb683905c4daa4565a85aeeb264
                           .group:0000000000000000 wm4._stdint.h.10.c24fa3af3bc1706662bb5593a907e841
                           .group:0000000000000000 wm4.stdint.h.23.d53047a68f4a85177f80b422d52785ed
                           .group:0000000000000000 wm4.core_riscv.h.11.151d7acb41e203dcc664023294f59bdc
                           .group:0000000000000000 wm4.ch32v20x.h.153.1d8393f26361703471ea96fe9aa4b4f9
                           .group:0000000000000000 wm4.ch32v20x_adc.h.56.f131972e7ce35efbe3b5c47a075d6d1b
                           .group:0000000000000000 wm4.ch32v20x_bkp.h.14.0a7965eb5be5000a494c3059b6f0eca5
                           .group:0000000000000000 wm4.ch32v20x_can.h.14.aa1dae2c28cbaf083875b4b61810c3c7
                           .group:0000000000000000 wm4.ch32v20x_dbgmcu.h.14.26ef95879978d9caaa154b373f3a512b
                           .group:0000000000000000 wm4.ch32v20x_dma.h.14.425a907348dd0134bf6e82c73bbd3df8
                           .group:0000000000000000 wm4.ch32v20x_exti.h.14.f67190d3fb91aa9aecce0f4d5a543221
                           .group:0000000000000000 wm4.ch32v20x_flash.h.14.91c5ecdad44f358d5032244aabf7ef4e
                           .group:0000000000000000 wm4.ch32v20x_gpio.h.14.bdb7f79cce0dffbc24dc81ea80f90bd2
                           .group:0000000000000000 wm4.ch32v20x_i2c.h.14.101eb625c9d2afac400f4e8ac2e9fb1d
                           .group:0000000000000000 wm4.ch32v20x_iwdg.h.14.26025d04ceeb3151185969ed5850fbb4
                           .group:0000000000000000 wm4.ch32v20x_pwr.h.14.8eaa3508938f71b27f140895c21602e6
                           .group:0000000000000000 wm4.ch32v20x_rtc.h.14.eb8734f5dd75abcf831b4f12ec49aebe
                           .group:0000000000000000 wm4.ch32v20x_spi.h.14.f12b1f237c615e7304ae62cc2e2c3c1a
                           .group:0000000000000000 wm4.ch32v20x_tim.h.14.35d11fab62898d9d661122ade86d8a6c
                           .group:0000000000000000 wm4.ch32v20x_usart.h.14.9d28c7ec28f2121810b69a55079cd38f
                           .group:0000000000000000 wm4.ch32v20x_wwdg.h.14.49bada437175894a4dce7e12e4216bc9
                           .group:0000000000000000 wm4.ch32v20x_misc.h.14.f3992cf724c30ec0bea268444ffdb6e0
                           .group:0000000000000000 wm4.ch32v20x_rcc.h.32.7667b5aaa364268ca209c4ed193c235b

NO UNDEFINED SYMBOLS
