GAS LISTING C:\Users\SOLDER~1\AppData\Local\Temp\ccheWc1y.s 			page 1


   1              		.file	"ch32v20x_usart.c"
   2              		.option nopic
   3              		.attribute arch, "rv32i2p0_m2p0_a2p0_c2p0_xw"
   4              		.attribute unaligned_access, 0
   5              		.attribute stack_align, 16
   6              		.text
   7              	.Ltext0:
   8              		.cfi_sections	.debug_frame
   9              		.file 0 "C:\\Users\\Solderingiron\\Documents\\GitHub\\VSC-make-example\\VSC_CH32V203C8T6" "Drivers
  10              		.section	.text.USART_DeInit,"ax",@progbits
  11              		.align	1
  12              		.globl	USART_DeInit
  14              	USART_DeInit:
  15              	.LFB16:
  16              		.file 1 "Drivers/src/ch32v20x_usart.c"
   1:Drivers/src/ch32v20x_usart.c **** /********************************** (C) COPYRIGHT *******************************
   2:Drivers/src/ch32v20x_usart.c ****  * File Name          : ch32v20x_usart.c
   3:Drivers/src/ch32v20x_usart.c ****  * Author             : WCH
   4:Drivers/src/ch32v20x_usart.c ****  * Version            : V1.0.0
   5:Drivers/src/ch32v20x_usart.c ****  * Date               : 2021/06/06
   6:Drivers/src/ch32v20x_usart.c ****  * Description        : This file provides all the USART firmware functions.
   7:Drivers/src/ch32v20x_usart.c **** *********************************************************************************
   8:Drivers/src/ch32v20x_usart.c **** * Copyright (c) 2021 Nanjing Qinheng Microelectronics Co., Ltd.
   9:Drivers/src/ch32v20x_usart.c **** * Attention: This software (modified or not) and binary are used for 
  10:Drivers/src/ch32v20x_usart.c **** * microcontroller manufactured by Nanjing Qinheng Microelectronics.
  11:Drivers/src/ch32v20x_usart.c **** *******************************************************************************/
  12:Drivers/src/ch32v20x_usart.c **** #include "ch32v20x_usart.h"
  13:Drivers/src/ch32v20x_usart.c **** #include "ch32v20x_rcc.h"
  14:Drivers/src/ch32v20x_usart.c **** 
  15:Drivers/src/ch32v20x_usart.c **** /* USART_Private_Defines */
  16:Drivers/src/ch32v20x_usart.c **** #define CTLR1_UE_Set              ((uint16_t)0x2000) /* USART Enable Mask */
  17:Drivers/src/ch32v20x_usart.c **** #define CTLR1_UE_Reset            ((uint16_t)0xDFFF) /* USART Disable Mask */
  18:Drivers/src/ch32v20x_usart.c **** 
  19:Drivers/src/ch32v20x_usart.c **** #define CTLR1_WAKE_Mask           ((uint16_t)0xF7FF) /* USART WakeUp Method Mask */
  20:Drivers/src/ch32v20x_usart.c **** 
  21:Drivers/src/ch32v20x_usart.c **** #define CTLR1_RWU_Set             ((uint16_t)0x0002) /* USART mute mode Enable Mask */
  22:Drivers/src/ch32v20x_usart.c **** #define CTLR1_RWU_Reset           ((uint16_t)0xFFFD) /* USART mute mode Enable Mask */
  23:Drivers/src/ch32v20x_usart.c **** #define CTLR1_SBK_Set             ((uint16_t)0x0001) /* USART Break Character send Mask */
  24:Drivers/src/ch32v20x_usart.c **** #define CTLR1_CLEAR_Mask          ((uint16_t)0xE9F3) /* USART CR1 Mask */
  25:Drivers/src/ch32v20x_usart.c **** #define CTLR2_Address_Mask        ((uint16_t)0xFFF0) /* USART address Mask */
  26:Drivers/src/ch32v20x_usart.c **** 
  27:Drivers/src/ch32v20x_usart.c **** #define CTLR2_LINEN_Set           ((uint16_t)0x4000) /* USART LIN Enable Mask */
  28:Drivers/src/ch32v20x_usart.c **** #define CTLR2_LINEN_Reset         ((uint16_t)0xBFFF) /* USART LIN Disable Mask */
  29:Drivers/src/ch32v20x_usart.c **** 
  30:Drivers/src/ch32v20x_usart.c **** #define CTLR2_LBDL_Mask           ((uint16_t)0xFFDF) /* USART LIN Break detection Mask */
  31:Drivers/src/ch32v20x_usart.c **** #define CTLR2_STOP_CLEAR_Mask     ((uint16_t)0xCFFF) /* USART CR2 STOP Bits Mask */
  32:Drivers/src/ch32v20x_usart.c **** #define CTLR2_CLOCK_CLEAR_Mask    ((uint16_t)0xF0FF) /* USART CR2 Clock Mask */
  33:Drivers/src/ch32v20x_usart.c **** 
  34:Drivers/src/ch32v20x_usart.c **** #define CTLR3_SCEN_Set            ((uint16_t)0x0020) /* USART SC Enable Mask */
  35:Drivers/src/ch32v20x_usart.c **** #define CTLR3_SCEN_Reset          ((uint16_t)0xFFDF) /* USART SC Disable Mask */
  36:Drivers/src/ch32v20x_usart.c **** 
  37:Drivers/src/ch32v20x_usart.c **** #define CTLR3_NACK_Set            ((uint16_t)0x0010) /* USART SC NACK Enable Mask */
  38:Drivers/src/ch32v20x_usart.c **** #define CTLR3_NACK_Reset          ((uint16_t)0xFFEF) /* USART SC NACK Disable Mask */
  39:Drivers/src/ch32v20x_usart.c **** 
  40:Drivers/src/ch32v20x_usart.c **** #define CTLR3_HDSEL_Set           ((uint16_t)0x0008) /* USART Half-Duplex Enable Mask */
  41:Drivers/src/ch32v20x_usart.c **** #define CTLR3_HDSEL_Reset         ((uint16_t)0xFFF7) /* USART Half-Duplex Disable Mask */
  42:Drivers/src/ch32v20x_usart.c **** 
GAS LISTING C:\Users\SOLDER~1\AppData\Local\Temp\ccheWc1y.s 			page 2


  43:Drivers/src/ch32v20x_usart.c **** #define CTLR3_IRLP_Mask           ((uint16_t)0xFFFB) /* USART IrDA LowPower mode Mask */
  44:Drivers/src/ch32v20x_usart.c **** #define CTLR3_CLEAR_Mask          ((uint16_t)0xFCFF) /* USART CR3 Mask */
  45:Drivers/src/ch32v20x_usart.c **** 
  46:Drivers/src/ch32v20x_usart.c **** #define CTLR3_IREN_Set            ((uint16_t)0x0002) /* USART IrDA Enable Mask */
  47:Drivers/src/ch32v20x_usart.c **** #define CTLR3_IREN_Reset          ((uint16_t)0xFFFD) /* USART IrDA Disable Mask */
  48:Drivers/src/ch32v20x_usart.c **** #define GPR_LSB_Mask              ((uint16_t)0x00FF) /* Guard Time Register LSB Mask */
  49:Drivers/src/ch32v20x_usart.c **** #define GPR_MSB_Mask              ((uint16_t)0xFF00) /* Guard Time Register MSB Mask */
  50:Drivers/src/ch32v20x_usart.c **** #define IT_Mask                   ((uint16_t)0x001F) /* USART Interrupt Mask */
  51:Drivers/src/ch32v20x_usart.c **** 
  52:Drivers/src/ch32v20x_usart.c **** /* USART OverSampling-8 Mask */
  53:Drivers/src/ch32v20x_usart.c **** #define CTLR1_OVER8_Set           ((uint16_t)0x8000) /* USART OVER8 mode Enable Mask */
  54:Drivers/src/ch32v20x_usart.c **** #define CTLR1_OVER8_Reset         ((uint16_t)0x7FFF) /* USART OVER8 mode Disable Mask */
  55:Drivers/src/ch32v20x_usart.c **** 
  56:Drivers/src/ch32v20x_usart.c **** /* USART One Bit Sampling Mask */
  57:Drivers/src/ch32v20x_usart.c **** #define CTLR3_ONEBITE_Set         ((uint16_t)0x0800) /* USART ONEBITE mode Enable Mask */
  58:Drivers/src/ch32v20x_usart.c **** #define CTLR3_ONEBITE_Reset       ((uint16_t)0xF7FF) /* USART ONEBITE mode Disable Mask */
  59:Drivers/src/ch32v20x_usart.c **** 
  60:Drivers/src/ch32v20x_usart.c **** /*********************************************************************
  61:Drivers/src/ch32v20x_usart.c ****  * @fn      USART_DeInit
  62:Drivers/src/ch32v20x_usart.c ****  *
  63:Drivers/src/ch32v20x_usart.c ****  * @brief   Deinitializes the USARTx peripheral registers to their default
  64:Drivers/src/ch32v20x_usart.c ****  *        reset values.
  65:Drivers/src/ch32v20x_usart.c ****  *
  66:Drivers/src/ch32v20x_usart.c ****  * @param   USARTx - where x can be 1, 2 or 3 to select the UART peripheral.
  67:Drivers/src/ch32v20x_usart.c ****  *
  68:Drivers/src/ch32v20x_usart.c ****  * @return  none
  69:Drivers/src/ch32v20x_usart.c ****  */
  70:Drivers/src/ch32v20x_usart.c **** void USART_DeInit(USART_TypeDef *USARTx)
  71:Drivers/src/ch32v20x_usart.c **** {
  17              		.loc 1 71 1
  18              		.cfi_startproc
  19 0000 0111     		addi	sp,sp,-32
  20              		.cfi_def_cfa_offset 32
  21 0002 06CE     		sw	ra,28(sp)
  22 0004 22CC     		sw	s0,24(sp)
  23              		.cfi_offset 1, -4
  24              		.cfi_offset 8, -8
  25 0006 0010     		addi	s0,sp,32
  26              		.cfi_def_cfa 8, 0
  27 0008 2326A4FE 		sw	a0,-20(s0)
  72:Drivers/src/ch32v20x_usart.c ****     if(USARTx == USART1)
  28              		.loc 1 72 7
  29 000c 0327C4FE 		lw	a4,-20(s0)
  30 0010 B7470140 		li	a5,1073823744
  31 0014 93870780 		addi	a5,a5,-2048
  32 0018 631FF700 		bne	a4,a5,.L2
  73:Drivers/src/ch32v20x_usart.c ****     {
  74:Drivers/src/ch32v20x_usart.c ****         RCC_APB2PeriphResetCmd(RCC_APB2Periph_USART1, ENABLE);
  33              		.loc 1 74 9
  34 001c 8545     		li	a1,1
  35 001e 1165     		li	a0,16384
  36 0020 97000000 		call	RCC_APB2PeriphResetCmd
  36      E7800000 
  75:Drivers/src/ch32v20x_usart.c ****         RCC_APB2PeriphResetCmd(RCC_APB2Periph_USART1, DISABLE);
  37              		.loc 1 75 9
  38 0028 8145     		li	a1,0
  39 002a 1165     		li	a0,16384
GAS LISTING C:\Users\SOLDER~1\AppData\Local\Temp\ccheWc1y.s 			page 3


  40 002c 97000000 		call	RCC_APB2PeriphResetCmd
  40      E7800000 
  76:Drivers/src/ch32v20x_usart.c ****     }
  77:Drivers/src/ch32v20x_usart.c ****     else if(USARTx == USART2)
  78:Drivers/src/ch32v20x_usart.c ****     {
  79:Drivers/src/ch32v20x_usart.c ****         RCC_APB1PeriphResetCmd(RCC_APB1Periph_USART2, ENABLE);
  80:Drivers/src/ch32v20x_usart.c ****         RCC_APB1PeriphResetCmd(RCC_APB1Periph_USART2, DISABLE);
  81:Drivers/src/ch32v20x_usart.c ****     }
  82:Drivers/src/ch32v20x_usart.c ****     else if(USARTx == USART3)
  83:Drivers/src/ch32v20x_usart.c ****     {
  84:Drivers/src/ch32v20x_usart.c ****         RCC_APB1PeriphResetCmd(RCC_APB1Periph_USART3, ENABLE);
  85:Drivers/src/ch32v20x_usart.c ****         RCC_APB1PeriphResetCmd(RCC_APB1Periph_USART3, DISABLE);
  86:Drivers/src/ch32v20x_usart.c ****     }
  87:Drivers/src/ch32v20x_usart.c ****     else if(USARTx == UART4)
  88:Drivers/src/ch32v20x_usart.c ****     {
  89:Drivers/src/ch32v20x_usart.c ****         RCC_APB1PeriphResetCmd(RCC_APB1Periph_UART4, ENABLE);
  90:Drivers/src/ch32v20x_usart.c ****         RCC_APB1PeriphResetCmd(RCC_APB1Periph_UART4, DISABLE);
  91:Drivers/src/ch32v20x_usart.c ****     }
  92:Drivers/src/ch32v20x_usart.c **** }
  41              		.loc 1 92 1
  42 0034 69A0     		j	.L6
  43              	.L2:
  77:Drivers/src/ch32v20x_usart.c ****     {
  44              		.loc 1 77 12
  45 0036 0327C4FE 		lw	a4,-20(s0)
  46 003a B7470040 		li	a5,1073758208
  47 003e 93870740 		addi	a5,a5,1024
  48 0042 6311F702 		bne	a4,a5,.L4
  79:Drivers/src/ch32v20x_usart.c ****         RCC_APB1PeriphResetCmd(RCC_APB1Periph_USART2, DISABLE);
  49              		.loc 1 79 9
  50 0046 8545     		li	a1,1
  51 0048 37050200 		li	a0,131072
  52 004c 97000000 		call	RCC_APB1PeriphResetCmd
  52      E7800000 
  80:Drivers/src/ch32v20x_usart.c ****     }
  53              		.loc 1 80 9
  54 0054 8145     		li	a1,0
  55 0056 37050200 		li	a0,131072
  56 005a 97000000 		call	RCC_APB1PeriphResetCmd
  56      E7800000 
  57              		.loc 1 92 1
  58 0062 B1A8     		j	.L6
  59              	.L4:
  82:Drivers/src/ch32v20x_usart.c ****     {
  60              		.loc 1 82 12
  61 0064 0327C4FE 		lw	a4,-20(s0)
  62 0068 B7570040 		li	a5,1073762304
  63 006c 93870780 		addi	a5,a5,-2048
  64 0070 6311F702 		bne	a4,a5,.L5
  84:Drivers/src/ch32v20x_usart.c ****         RCC_APB1PeriphResetCmd(RCC_APB1Periph_USART3, DISABLE);
  65              		.loc 1 84 9
  66 0074 8545     		li	a1,1
  67 0076 37050400 		li	a0,262144
  68 007a 97000000 		call	RCC_APB1PeriphResetCmd
  68      E7800000 
  85:Drivers/src/ch32v20x_usart.c ****     }
  69              		.loc 1 85 9
GAS LISTING C:\Users\SOLDER~1\AppData\Local\Temp\ccheWc1y.s 			page 4


  70 0082 8145     		li	a1,0
  71 0084 37050400 		li	a0,262144
  72 0088 97000000 		call	RCC_APB1PeriphResetCmd
  72      E7800000 
  73              		.loc 1 92 1
  74 0090 3DA0     		j	.L6
  75              	.L5:
  87:Drivers/src/ch32v20x_usart.c ****     {
  76              		.loc 1 87 12
  77 0092 0327C4FE 		lw	a4,-20(s0)
  78 0096 B7570040 		li	a5,1073762304
  79 009a 938707C0 		addi	a5,a5,-1024
  80 009e 6310F702 		bne	a4,a5,.L6
  89:Drivers/src/ch32v20x_usart.c ****         RCC_APB1PeriphResetCmd(RCC_APB1Periph_UART4, DISABLE);
  81              		.loc 1 89 9
  82 00a2 8545     		li	a1,1
  83 00a4 37050800 		li	a0,524288
  84 00a8 97000000 		call	RCC_APB1PeriphResetCmd
  84      E7800000 
  90:Drivers/src/ch32v20x_usart.c ****     }
  85              		.loc 1 90 9
  86 00b0 8145     		li	a1,0
  87 00b2 37050800 		li	a0,524288
  88 00b6 97000000 		call	RCC_APB1PeriphResetCmd
  88      E7800000 
  89              	.L6:
  90              		.loc 1 92 1
  91 00be 0100     		nop
  92 00c0 F240     		lw	ra,28(sp)
  93              		.cfi_restore 1
  94 00c2 6244     		lw	s0,24(sp)
  95              		.cfi_restore 8
  96              		.cfi_def_cfa 2, 32
  97 00c4 0561     		addi	sp,sp,32
  98              		.cfi_def_cfa_offset 0
  99 00c6 8280     		jr	ra
 100              		.cfi_endproc
 101              	.LFE16:
 103              		.section	.text.USART_Init,"ax",@progbits
 104              		.align	1
 105              		.globl	USART_Init
 107              	USART_Init:
 108              	.LFB17:
  93:Drivers/src/ch32v20x_usart.c **** 
  94:Drivers/src/ch32v20x_usart.c **** /*********************************************************************
  95:Drivers/src/ch32v20x_usart.c ****  * @fn      USART_Init
  96:Drivers/src/ch32v20x_usart.c ****  *
  97:Drivers/src/ch32v20x_usart.c ****  * @brief   Initializes the USARTx peripheral according to the specified
  98:Drivers/src/ch32v20x_usart.c ****  *        parameters in the USART_InitStruct.
  99:Drivers/src/ch32v20x_usart.c ****  *
 100:Drivers/src/ch32v20x_usart.c ****  * @param   USARTx - where x can be 1, 2 or 3 to select the UART peripheral.
 101:Drivers/src/ch32v20x_usart.c ****  *          USART_InitStruct - pointer to a USART_InitTypeDef structure
 102:Drivers/src/ch32v20x_usart.c ****  *        that contains the configuration information for the specified
 103:Drivers/src/ch32v20x_usart.c ****  *        USART peripheral.
 104:Drivers/src/ch32v20x_usart.c ****  *
 105:Drivers/src/ch32v20x_usart.c ****  * @return  none
 106:Drivers/src/ch32v20x_usart.c ****  */
GAS LISTING C:\Users\SOLDER~1\AppData\Local\Temp\ccheWc1y.s 			page 5


 107:Drivers/src/ch32v20x_usart.c **** void USART_Init(USART_TypeDef *USARTx, USART_InitTypeDef *USART_InitStruct)
 108:Drivers/src/ch32v20x_usart.c **** {
 109              		.loc 1 108 1
 110              		.cfi_startproc
 111 0000 5D71     		addi	sp,sp,-80
 112              		.cfi_def_cfa_offset 80
 113 0002 86C6     		sw	ra,76(sp)
 114 0004 A2C4     		sw	s0,72(sp)
 115              		.cfi_offset 1, -4
 116              		.cfi_offset 8, -8
 117 0006 8008     		addi	s0,sp,80
 118              		.cfi_def_cfa 8, 0
 119 0008 232EA4FA 		sw	a0,-68(s0)
 120 000c 232CB4FA 		sw	a1,-72(s0)
 109:Drivers/src/ch32v20x_usart.c ****     uint32_t          tmpreg = 0x00, apbclock = 0x00;
 121              		.loc 1 109 23
 122 0010 232604FE 		sw	zero,-20(s0)
 123              		.loc 1 109 38
 124 0014 232404FE 		sw	zero,-24(s0)
 110:Drivers/src/ch32v20x_usart.c ****     uint32_t          integerdivider = 0x00;
 125              		.loc 1 110 23
 126 0018 232204FE 		sw	zero,-28(s0)
 111:Drivers/src/ch32v20x_usart.c ****     uint32_t          fractionaldivider = 0x00;
 127              		.loc 1 111 23
 128 001c 232004FE 		sw	zero,-32(s0)
 112:Drivers/src/ch32v20x_usart.c ****     uint32_t          usartxbase = 0;
 129              		.loc 1 112 23
 130 0020 232E04FC 		sw	zero,-36(s0)
 113:Drivers/src/ch32v20x_usart.c ****     RCC_ClocksTypeDef RCC_ClocksStatus;
 114:Drivers/src/ch32v20x_usart.c **** 
 115:Drivers/src/ch32v20x_usart.c ****     if(USART_InitStruct->USART_HardwareFlowControl != USART_HardwareFlowControl_None)
 116:Drivers/src/ch32v20x_usart.c ****     {
 117:Drivers/src/ch32v20x_usart.c ****     }
 118:Drivers/src/ch32v20x_usart.c **** 
 119:Drivers/src/ch32v20x_usart.c ****     usartxbase = (uint32_t)USARTx;
 131              		.loc 1 119 16
 132 0024 8327C4FB 		lw	a5,-68(s0)
 133 0028 232EF4FC 		sw	a5,-36(s0)
 120:Drivers/src/ch32v20x_usart.c ****     tmpreg = USARTx->CTLR2;
 134              		.loc 1 120 20
 135 002c 8327C4FB 		lw	a5,-68(s0)
 136 0030 9E2B     		lhu	a5,16(a5)
 137 0032 C207     		slli	a5,a5,16
 138 0034 C183     		srli	a5,a5,16
 139              		.loc 1 120 12
 140 0036 2326F4FE 		sw	a5,-20(s0)
 121:Drivers/src/ch32v20x_usart.c ****     tmpreg &= CTLR2_STOP_CLEAR_Mask;
 141              		.loc 1 121 12
 142 003a 0327C4FE 		lw	a4,-20(s0)
 143 003e B567     		li	a5,53248
 144 0040 FD17     		addi	a5,a5,-1
 145 0042 F98F     		and	a5,a4,a5
 146 0044 2326F4FE 		sw	a5,-20(s0)
 122:Drivers/src/ch32v20x_usart.c ****     tmpreg |= (uint32_t)USART_InitStruct->USART_StopBits;
 147              		.loc 1 122 41
 148 0048 832784FB 		lw	a5,-72(s0)
 149 004c FE23     		lhu	a5,6(a5)
GAS LISTING C:\Users\SOLDER~1\AppData\Local\Temp\ccheWc1y.s 			page 6


 150              		.loc 1 122 15
 151 004e 3E87     		mv	a4,a5
 152              		.loc 1 122 12
 153 0050 8327C4FE 		lw	a5,-20(s0)
 154 0054 D98F     		or	a5,a5,a4
 155 0056 2326F4FE 		sw	a5,-20(s0)
 123:Drivers/src/ch32v20x_usart.c **** 
 124:Drivers/src/ch32v20x_usart.c ****     USARTx->CTLR2 = (uint16_t)tmpreg;
 156              		.loc 1 124 21
 157 005a 8327C4FE 		lw	a5,-20(s0)
 158 005e 13970701 		slli	a4,a5,16
 159 0062 4183     		srli	a4,a4,16
 160              		.loc 1 124 19
 161 0064 8327C4FB 		lw	a5,-68(s0)
 162 0068 9AAB     		sh	a4,16(a5)
 125:Drivers/src/ch32v20x_usart.c ****     tmpreg = USARTx->CTLR1;
 163              		.loc 1 125 20
 164 006a 8327C4FB 		lw	a5,-68(s0)
 165 006e DE27     		lhu	a5,12(a5)
 166 0070 C207     		slli	a5,a5,16
 167 0072 C183     		srli	a5,a5,16
 168              		.loc 1 125 12
 169 0074 2326F4FE 		sw	a5,-20(s0)
 126:Drivers/src/ch32v20x_usart.c ****     tmpreg &= CTLR1_CLEAR_Mask;
 170              		.loc 1 126 12
 171 0078 0327C4FE 		lw	a4,-20(s0)
 172 007c BD67     		li	a5,61440
 173 007e 9387379F 		addi	a5,a5,-1549
 174 0082 F98F     		and	a5,a4,a5
 175 0084 2326F4FE 		sw	a5,-20(s0)
 127:Drivers/src/ch32v20x_usart.c ****     tmpreg |= (uint32_t)USART_InitStruct->USART_WordLength | USART_InitStruct->USART_Parity |
 176              		.loc 1 127 41
 177 0088 832784FB 		lw	a5,-72(s0)
 178 008c DA23     		lhu	a4,4(a5)
 179              		.loc 1 127 78
 180 008e 832784FB 		lw	a5,-72(s0)
 181 0092 9E27     		lhu	a5,8(a5)
 182              		.loc 1 127 93
 183 0094 D98F     		or	a5,a4,a5
 184 0096 13970701 		slli	a4,a5,16
 185 009a 4183     		srli	a4,a4,16
 128:Drivers/src/ch32v20x_usart.c ****               USART_InitStruct->USART_Mode;
 186              		.loc 1 128 31
 187 009c 832784FB 		lw	a5,-72(s0)
 188 00a0 BE27     		lhu	a5,10(a5)
 127:Drivers/src/ch32v20x_usart.c ****     tmpreg |= (uint32_t)USART_InitStruct->USART_WordLength | USART_InitStruct->USART_Parity |
 189              		.loc 1 127 93
 190 00a2 D98F     		or	a5,a4,a5
 191 00a4 C207     		slli	a5,a5,16
 192 00a6 C183     		srli	a5,a5,16
 193 00a8 3E87     		mv	a4,a5
 127:Drivers/src/ch32v20x_usart.c ****     tmpreg |= (uint32_t)USART_InitStruct->USART_WordLength | USART_InitStruct->USART_Parity |
 194              		.loc 1 127 12
 195 00aa 8327C4FE 		lw	a5,-20(s0)
 196 00ae D98F     		or	a5,a5,a4
 197 00b0 2326F4FE 		sw	a5,-20(s0)
 129:Drivers/src/ch32v20x_usart.c ****     USARTx->CTLR1 = (uint16_t)tmpreg;
GAS LISTING C:\Users\SOLDER~1\AppData\Local\Temp\ccheWc1y.s 			page 7


 198              		.loc 1 129 21
 199 00b4 8327C4FE 		lw	a5,-20(s0)
 200 00b8 13970701 		slli	a4,a5,16
 201 00bc 4183     		srli	a4,a4,16
 202              		.loc 1 129 19
 203 00be 8327C4FB 		lw	a5,-68(s0)
 204 00c2 DAA7     		sh	a4,12(a5)
 130:Drivers/src/ch32v20x_usart.c **** 
 131:Drivers/src/ch32v20x_usart.c ****     tmpreg = USARTx->CTLR3;
 205              		.loc 1 131 20
 206 00c4 8327C4FB 		lw	a5,-68(s0)
 207 00c8 DE2B     		lhu	a5,20(a5)
 208 00ca C207     		slli	a5,a5,16
 209 00cc C183     		srli	a5,a5,16
 210              		.loc 1 131 12
 211 00ce 2326F4FE 		sw	a5,-20(s0)
 132:Drivers/src/ch32v20x_usart.c ****     tmpreg &= CTLR3_CLEAR_Mask;
 212              		.loc 1 132 12
 213 00d2 0327C4FE 		lw	a4,-20(s0)
 214 00d6 C167     		li	a5,65536
 215 00d8 9387F7CF 		addi	a5,a5,-769
 216 00dc F98F     		and	a5,a4,a5
 217 00de 2326F4FE 		sw	a5,-20(s0)
 133:Drivers/src/ch32v20x_usart.c ****     tmpreg |= USART_InitStruct->USART_HardwareFlowControl;
 218              		.loc 1 133 31
 219 00e2 832784FB 		lw	a5,-72(s0)
 220 00e6 DE27     		lhu	a5,12(a5)
 221 00e8 3E87     		mv	a4,a5
 222              		.loc 1 133 12
 223 00ea 8327C4FE 		lw	a5,-20(s0)
 224 00ee D98F     		or	a5,a5,a4
 225 00f0 2326F4FE 		sw	a5,-20(s0)
 134:Drivers/src/ch32v20x_usart.c ****     USARTx->CTLR3 = (uint16_t)tmpreg;
 226              		.loc 1 134 21
 227 00f4 8327C4FE 		lw	a5,-20(s0)
 228 00f8 13970701 		slli	a4,a5,16
 229 00fc 4183     		srli	a4,a4,16
 230              		.loc 1 134 19
 231 00fe 8327C4FB 		lw	a5,-68(s0)
 232 0102 DAAB     		sh	a4,20(a5)
 135:Drivers/src/ch32v20x_usart.c **** 
 136:Drivers/src/ch32v20x_usart.c ****     RCC_GetClocksFreq(&RCC_ClocksStatus);
 233              		.loc 1 136 5
 234 0104 930784FC 		addi	a5,s0,-56
 235 0108 3E85     		mv	a0,a5
 236 010a 97000000 		call	RCC_GetClocksFreq
 236      E7800000 
 137:Drivers/src/ch32v20x_usart.c **** 
 138:Drivers/src/ch32v20x_usart.c ****     if(usartxbase == USART1_BASE)
 237              		.loc 1 138 7
 238 0112 0327C4FD 		lw	a4,-36(s0)
 239 0116 B7470140 		li	a5,1073823744
 240 011a 93870780 		addi	a5,a5,-2048
 241 011e 6317F700 		bne	a4,a5,.L8
 139:Drivers/src/ch32v20x_usart.c ****     {
 140:Drivers/src/ch32v20x_usart.c ****         apbclock = RCC_ClocksStatus.PCLK2_Frequency;
 242              		.loc 1 140 18
GAS LISTING C:\Users\SOLDER~1\AppData\Local\Temp\ccheWc1y.s 			page 8


 243 0122 832744FD 		lw	a5,-44(s0)
 244 0126 2324F4FE 		sw	a5,-24(s0)
 245 012a 29A0     		j	.L9
 246              	.L8:
 141:Drivers/src/ch32v20x_usart.c ****     }
 142:Drivers/src/ch32v20x_usart.c ****     else
 143:Drivers/src/ch32v20x_usart.c ****     {
 144:Drivers/src/ch32v20x_usart.c ****         apbclock = RCC_ClocksStatus.PCLK1_Frequency;
 247              		.loc 1 144 18
 248 012c 832704FD 		lw	a5,-48(s0)
 249 0130 2324F4FE 		sw	a5,-24(s0)
 250              	.L9:
 145:Drivers/src/ch32v20x_usart.c ****     }
 146:Drivers/src/ch32v20x_usart.c **** 
 147:Drivers/src/ch32v20x_usart.c ****     if((USARTx->CTLR1 & CTLR1_OVER8_Set) != 0)
 251              		.loc 1 147 15
 252 0134 8327C4FB 		lw	a5,-68(s0)
 253 0138 DE27     		lhu	a5,12(a5)
 254 013a C207     		slli	a5,a5,16
 255 013c C183     		srli	a5,a5,16
 256              		.loc 1 147 42
 257 013e C207     		slli	a5,a5,16
 258 0140 C187     		srai	a5,a5,16
 259              		.loc 1 147 7
 260 0142 63D20702 		bge	a5,zero,.L10
 148:Drivers/src/ch32v20x_usart.c ****     {
 149:Drivers/src/ch32v20x_usart.c ****         integerdivider = ((25 * apbclock) / (2 * (USART_InitStruct->USART_BaudRate)));
 261              		.loc 1 149 31
 262 0146 032784FE 		lw	a4,-24(s0)
 263 014a BA87     		mv	a5,a4
 264 014c 8607     		slli	a5,a5,1
 265 014e BA97     		add	a5,a5,a4
 266 0150 8E07     		slli	a5,a5,3
 267 0152 3E97     		add	a4,a5,a4
 268              		.loc 1 149 67
 269 0154 832784FB 		lw	a5,-72(s0)
 270 0158 9C43     		lw	a5,0(a5)
 271              		.loc 1 149 48
 272 015a 8607     		slli	a5,a5,1
 273              		.loc 1 149 24
 274 015c B357F702 		divu	a5,a4,a5
 275 0160 2322F4FE 		sw	a5,-28(s0)
 276 0164 05A0     		j	.L11
 277              	.L10:
 150:Drivers/src/ch32v20x_usart.c ****     }
 151:Drivers/src/ch32v20x_usart.c ****     else
 152:Drivers/src/ch32v20x_usart.c ****     {
 153:Drivers/src/ch32v20x_usart.c ****         integerdivider = ((25 * apbclock) / (4 * (USART_InitStruct->USART_BaudRate)));
 278              		.loc 1 153 31
 279 0166 032784FE 		lw	a4,-24(s0)
 280 016a BA87     		mv	a5,a4
 281 016c 8607     		slli	a5,a5,1
 282 016e BA97     		add	a5,a5,a4
 283 0170 8E07     		slli	a5,a5,3
 284 0172 3E97     		add	a4,a5,a4
 285              		.loc 1 153 67
 286 0174 832784FB 		lw	a5,-72(s0)
GAS LISTING C:\Users\SOLDER~1\AppData\Local\Temp\ccheWc1y.s 			page 9


 287 0178 9C43     		lw	a5,0(a5)
 288              		.loc 1 153 48
 289 017a 8A07     		slli	a5,a5,2
 290              		.loc 1 153 24
 291 017c B357F702 		divu	a5,a4,a5
 292 0180 2322F4FE 		sw	a5,-28(s0)
 293              	.L11:
 154:Drivers/src/ch32v20x_usart.c ****     }
 155:Drivers/src/ch32v20x_usart.c ****     tmpreg = (integerdivider / 100) << 4;
 294              		.loc 1 155 30
 295 0184 032744FE 		lw	a4,-28(s0)
 296 0188 93074006 		li	a5,100
 297 018c B357F702 		divu	a5,a4,a5
 298              		.loc 1 155 12
 299 0190 9207     		slli	a5,a5,4
 300 0192 2326F4FE 		sw	a5,-20(s0)
 156:Drivers/src/ch32v20x_usart.c **** 
 157:Drivers/src/ch32v20x_usart.c ****     fractionaldivider = integerdivider - (100 * (tmpreg >> 4));
 301              		.loc 1 157 57
 302 0196 8327C4FE 		lw	a5,-20(s0)
 303 019a 13D74700 		srli	a4,a5,4
 304              		.loc 1 157 47
 305 019e 93074006 		li	a5,100
 306 01a2 B307F702 		mul	a5,a4,a5
 307              		.loc 1 157 23
 308 01a6 032744FE 		lw	a4,-28(s0)
 309 01aa B307F740 		sub	a5,a4,a5
 310 01ae 2320F4FE 		sw	a5,-32(s0)
 158:Drivers/src/ch32v20x_usart.c **** 
 159:Drivers/src/ch32v20x_usart.c ****     if((USARTx->CTLR1 & CTLR1_OVER8_Set) != 0)
 311              		.loc 1 159 15
 312 01b2 8327C4FB 		lw	a5,-68(s0)
 313 01b6 DE27     		lhu	a5,12(a5)
 314 01b8 C207     		slli	a5,a5,16
 315 01ba C183     		srli	a5,a5,16
 316              		.loc 1 159 42
 317 01bc C207     		slli	a5,a5,16
 318 01be C187     		srai	a5,a5,16
 319              		.loc 1 159 7
 320 01c0 63D20702 		bge	a5,zero,.L12
 160:Drivers/src/ch32v20x_usart.c ****     {
 161:Drivers/src/ch32v20x_usart.c ****         tmpreg |= ((((fractionaldivider * 8) + 50) / 100)) & ((uint8_t)0x07);
 321              		.loc 1 161 41
 322 01c4 832704FE 		lw	a5,-32(s0)
 323 01c8 8E07     		slli	a5,a5,3
 324              		.loc 1 161 46
 325 01ca 13872703 		addi	a4,a5,50
 326              		.loc 1 161 52
 327 01ce 93074006 		li	a5,100
 328 01d2 B357F702 		divu	a5,a4,a5
 329              		.loc 1 161 60
 330 01d6 9D8B     		andi	a5,a5,7
 331              		.loc 1 161 16
 332 01d8 0327C4FE 		lw	a4,-20(s0)
 333 01dc D98F     		or	a5,a4,a5
 334 01de 2326F4FE 		sw	a5,-20(s0)
 335 01e2 05A0     		j	.L13
GAS LISTING C:\Users\SOLDER~1\AppData\Local\Temp\ccheWc1y.s 			page 10


 336              	.L12:
 162:Drivers/src/ch32v20x_usart.c ****     }
 163:Drivers/src/ch32v20x_usart.c ****     else
 164:Drivers/src/ch32v20x_usart.c ****     {
 165:Drivers/src/ch32v20x_usart.c ****         tmpreg |= ((((fractionaldivider * 16) + 50) / 100)) & ((uint8_t)0x0F);
 337              		.loc 1 165 41
 338 01e4 832704FE 		lw	a5,-32(s0)
 339 01e8 9207     		slli	a5,a5,4
 340              		.loc 1 165 47
 341 01ea 13872703 		addi	a4,a5,50
 342              		.loc 1 165 53
 343 01ee 93074006 		li	a5,100
 344 01f2 B357F702 		divu	a5,a4,a5
 345              		.loc 1 165 61
 346 01f6 BD8B     		andi	a5,a5,15
 347              		.loc 1 165 16
 348 01f8 0327C4FE 		lw	a4,-20(s0)
 349 01fc D98F     		or	a5,a4,a5
 350 01fe 2326F4FE 		sw	a5,-20(s0)
 351              	.L13:
 166:Drivers/src/ch32v20x_usart.c ****     }
 167:Drivers/src/ch32v20x_usart.c **** 
 168:Drivers/src/ch32v20x_usart.c ****     USARTx->BRR = (uint16_t)tmpreg;
 352              		.loc 1 168 19
 353 0202 8327C4FE 		lw	a5,-20(s0)
 354 0206 13970701 		slli	a4,a5,16
 355 020a 4183     		srli	a4,a4,16
 356              		.loc 1 168 17
 357 020c 8327C4FB 		lw	a5,-68(s0)
 358 0210 9AA7     		sh	a4,8(a5)
 169:Drivers/src/ch32v20x_usart.c **** }
 359              		.loc 1 169 1
 360 0212 0100     		nop
 361 0214 B640     		lw	ra,76(sp)
 362              		.cfi_restore 1
 363 0216 2644     		lw	s0,72(sp)
 364              		.cfi_restore 8
 365              		.cfi_def_cfa 2, 80
 366 0218 6161     		addi	sp,sp,80
 367              		.cfi_def_cfa_offset 0
 368 021a 8280     		jr	ra
 369              		.cfi_endproc
 370              	.LFE17:
 372              		.section	.text.USART_StructInit,"ax",@progbits
 373              		.align	1
 374              		.globl	USART_StructInit
 376              	USART_StructInit:
 377              	.LFB18:
 170:Drivers/src/ch32v20x_usart.c **** 
 171:Drivers/src/ch32v20x_usart.c **** /*********************************************************************
 172:Drivers/src/ch32v20x_usart.c ****  * @fn      USART_StructInit
 173:Drivers/src/ch32v20x_usart.c ****  *
 174:Drivers/src/ch32v20x_usart.c ****  * @brief   Fills each USART_InitStruct member with its default value.
 175:Drivers/src/ch32v20x_usart.c ****  *
 176:Drivers/src/ch32v20x_usart.c ****  * @param   USART_InitStruct: pointer to a USART_InitTypeDef structure
 177:Drivers/src/ch32v20x_usart.c ****  *       which will be initialized.
 178:Drivers/src/ch32v20x_usart.c ****  *
GAS LISTING C:\Users\SOLDER~1\AppData\Local\Temp\ccheWc1y.s 			page 11


 179:Drivers/src/ch32v20x_usart.c ****  * @return  none
 180:Drivers/src/ch32v20x_usart.c ****  */
 181:Drivers/src/ch32v20x_usart.c **** void USART_StructInit(USART_InitTypeDef *USART_InitStruct)
 182:Drivers/src/ch32v20x_usart.c **** {
 378              		.loc 1 182 1
 379              		.cfi_startproc
 380 0000 0111     		addi	sp,sp,-32
 381              		.cfi_def_cfa_offset 32
 382 0002 22CE     		sw	s0,28(sp)
 383              		.cfi_offset 8, -4
 384 0004 0010     		addi	s0,sp,32
 385              		.cfi_def_cfa 8, 0
 386 0006 2326A4FE 		sw	a0,-20(s0)
 183:Drivers/src/ch32v20x_usart.c ****     USART_InitStruct->USART_BaudRate = 9600;
 387              		.loc 1 183 38
 388 000a 8327C4FE 		lw	a5,-20(s0)
 389 000e 0967     		li	a4,8192
 390 0010 13070758 		addi	a4,a4,1408
 391 0014 98C3     		sw	a4,0(a5)
 184:Drivers/src/ch32v20x_usart.c ****     USART_InitStruct->USART_WordLength = USART_WordLength_8b;
 392              		.loc 1 184 40
 393 0016 8327C4FE 		lw	a5,-20(s0)
 394 001a 23920700 		sh	zero,4(a5)
 185:Drivers/src/ch32v20x_usart.c ****     USART_InitStruct->USART_StopBits = USART_StopBits_1;
 395              		.loc 1 185 38
 396 001e 8327C4FE 		lw	a5,-20(s0)
 397 0022 23930700 		sh	zero,6(a5)
 186:Drivers/src/ch32v20x_usart.c ****     USART_InitStruct->USART_Parity = USART_Parity_No;
 398              		.loc 1 186 36
 399 0026 8327C4FE 		lw	a5,-20(s0)
 400 002a 23940700 		sh	zero,8(a5)
 187:Drivers/src/ch32v20x_usart.c ****     USART_InitStruct->USART_Mode = USART_Mode_Rx | USART_Mode_Tx;
 401              		.loc 1 187 34
 402 002e 8327C4FE 		lw	a5,-20(s0)
 403 0032 3147     		li	a4,12
 404 0034 BAA7     		sh	a4,10(a5)
 188:Drivers/src/ch32v20x_usart.c ****     USART_InitStruct->USART_HardwareFlowControl = USART_HardwareFlowControl_None;
 405              		.loc 1 188 49
 406 0036 8327C4FE 		lw	a5,-20(s0)
 407 003a 23960700 		sh	zero,12(a5)
 189:Drivers/src/ch32v20x_usart.c **** }
 408              		.loc 1 189 1
 409 003e 0100     		nop
 410 0040 7244     		lw	s0,28(sp)
 411              		.cfi_restore 8
 412              		.cfi_def_cfa 2, 32
 413 0042 0561     		addi	sp,sp,32
 414              		.cfi_def_cfa_offset 0
 415 0044 8280     		jr	ra
 416              		.cfi_endproc
 417              	.LFE18:
 419              		.section	.text.USART_ClockInit,"ax",@progbits
 420              		.align	1
 421              		.globl	USART_ClockInit
 423              	USART_ClockInit:
 424              	.LFB19:
 190:Drivers/src/ch32v20x_usart.c **** 
GAS LISTING C:\Users\SOLDER~1\AppData\Local\Temp\ccheWc1y.s 			page 12


 191:Drivers/src/ch32v20x_usart.c **** /*********************************************************************
 192:Drivers/src/ch32v20x_usart.c ****  * @fn      USART_ClockInit
 193:Drivers/src/ch32v20x_usart.c ****  *
 194:Drivers/src/ch32v20x_usart.c ****  * @brief   Initializes the USARTx peripheral Clock according to the
 195:Drivers/src/ch32v20x_usart.c ****  *        specified parameters in the USART_ClockInitStruct .
 196:Drivers/src/ch32v20x_usart.c ****  *
 197:Drivers/src/ch32v20x_usart.c ****  * @param   USARTx - where x can be 1, 2, 3 to select the USART peripheral.
 198:Drivers/src/ch32v20x_usart.c ****  *          USART_ClockInitStruct - pointer to a USART_ClockInitTypeDef
 199:Drivers/src/ch32v20x_usart.c ****  *        structure that contains the configuration information for the specified
 200:Drivers/src/ch32v20x_usart.c ****  *        USART peripheral.
 201:Drivers/src/ch32v20x_usart.c ****  *
 202:Drivers/src/ch32v20x_usart.c ****  * @return  none
 203:Drivers/src/ch32v20x_usart.c ****  */
 204:Drivers/src/ch32v20x_usart.c **** void USART_ClockInit(USART_TypeDef *USARTx, USART_ClockInitTypeDef *USART_ClockInitStruct)
 205:Drivers/src/ch32v20x_usart.c **** {
 425              		.loc 1 205 1
 426              		.cfi_startproc
 427 0000 7971     		addi	sp,sp,-48
 428              		.cfi_def_cfa_offset 48
 429 0002 22D6     		sw	s0,44(sp)
 430              		.cfi_offset 8, -4
 431 0004 0018     		addi	s0,sp,48
 432              		.cfi_def_cfa 8, 0
 433 0006 232EA4FC 		sw	a0,-36(s0)
 434 000a 232CB4FC 		sw	a1,-40(s0)
 206:Drivers/src/ch32v20x_usart.c ****     uint32_t tmpreg = 0x00;
 435              		.loc 1 206 14
 436 000e 232604FE 		sw	zero,-20(s0)
 207:Drivers/src/ch32v20x_usart.c **** 
 208:Drivers/src/ch32v20x_usart.c ****     tmpreg = USARTx->CTLR2;
 437              		.loc 1 208 20
 438 0012 8327C4FD 		lw	a5,-36(s0)
 439 0016 9E2B     		lhu	a5,16(a5)
 440 0018 C207     		slli	a5,a5,16
 441 001a C183     		srli	a5,a5,16
 442              		.loc 1 208 12
 443 001c 2326F4FE 		sw	a5,-20(s0)
 209:Drivers/src/ch32v20x_usart.c ****     tmpreg &= CTLR2_CLOCK_CLEAR_Mask;
 444              		.loc 1 209 12
 445 0020 0327C4FE 		lw	a4,-20(s0)
 446 0024 BD67     		li	a5,61440
 447 0026 9387F70F 		addi	a5,a5,255
 448 002a F98F     		and	a5,a4,a5
 449 002c 2326F4FE 		sw	a5,-20(s0)
 210:Drivers/src/ch32v20x_usart.c ****     tmpreg |= (uint32_t)USART_ClockInitStruct->USART_Clock | USART_ClockInitStruct->USART_CPOL |
 450              		.loc 1 210 46
 451 0030 832784FD 		lw	a5,-40(s0)
 452 0034 9A23     		lhu	a4,0(a5)
 453              		.loc 1 210 83
 454 0036 832784FD 		lw	a5,-40(s0)
 455 003a BE23     		lhu	a5,2(a5)
 211:Drivers/src/ch32v20x_usart.c ****               USART_ClockInitStruct->USART_CPHA | USART_ClockInitStruct->USART_LastBit;
 456              		.loc 1 211 49
 457 003c D98F     		or	a5,a4,a5
 458 003e 13970701 		slli	a4,a5,16
 459 0042 4183     		srli	a4,a4,16
 460              		.loc 1 211 36
GAS LISTING C:\Users\SOLDER~1\AppData\Local\Temp\ccheWc1y.s 			page 13


 461 0044 832784FD 		lw	a5,-40(s0)
 462 0048 DE23     		lhu	a5,4(a5)
 463              		.loc 1 211 49
 464 004a D98F     		or	a5,a4,a5
 465 004c 13970701 		slli	a4,a5,16
 466 0050 4183     		srli	a4,a4,16
 467              		.loc 1 211 72
 468 0052 832784FD 		lw	a5,-40(s0)
 469 0056 FE23     		lhu	a5,6(a5)
 470              		.loc 1 211 49
 471 0058 D98F     		or	a5,a4,a5
 472 005a C207     		slli	a5,a5,16
 473 005c C183     		srli	a5,a5,16
 474 005e 3E87     		mv	a4,a5
 210:Drivers/src/ch32v20x_usart.c ****     tmpreg |= (uint32_t)USART_ClockInitStruct->USART_Clock | USART_ClockInitStruct->USART_CPOL |
 475              		.loc 1 210 12
 476 0060 8327C4FE 		lw	a5,-20(s0)
 477 0064 D98F     		or	a5,a5,a4
 478 0066 2326F4FE 		sw	a5,-20(s0)
 212:Drivers/src/ch32v20x_usart.c ****     USARTx->CTLR2 = (uint16_t)tmpreg;
 479              		.loc 1 212 21
 480 006a 8327C4FE 		lw	a5,-20(s0)
 481 006e 13970701 		slli	a4,a5,16
 482 0072 4183     		srli	a4,a4,16
 483              		.loc 1 212 19
 484 0074 8327C4FD 		lw	a5,-36(s0)
 485 0078 9AAB     		sh	a4,16(a5)
 213:Drivers/src/ch32v20x_usart.c **** }
 486              		.loc 1 213 1
 487 007a 0100     		nop
 488 007c 3254     		lw	s0,44(sp)
 489              		.cfi_restore 8
 490              		.cfi_def_cfa 2, 48
 491 007e 4561     		addi	sp,sp,48
 492              		.cfi_def_cfa_offset 0
 493 0080 8280     		jr	ra
 494              		.cfi_endproc
 495              	.LFE19:
 497              		.section	.text.USART_ClockStructInit,"ax",@progbits
 498              		.align	1
 499              		.globl	USART_ClockStructInit
 501              	USART_ClockStructInit:
 502              	.LFB20:
 214:Drivers/src/ch32v20x_usart.c **** 
 215:Drivers/src/ch32v20x_usart.c **** /*********************************************************************
 216:Drivers/src/ch32v20x_usart.c ****  * @fn      USART_ClockStructInit
 217:Drivers/src/ch32v20x_usart.c ****  *
 218:Drivers/src/ch32v20x_usart.c ****  * @brief   Fills each USART_ClockStructInit member with its default value.
 219:Drivers/src/ch32v20x_usart.c ****  *
 220:Drivers/src/ch32v20x_usart.c ****  * @param   USART_ClockInitStruct - pointer to a USART_ClockInitTypeDef
 221:Drivers/src/ch32v20x_usart.c ****  *        structure which will be initialized.
 222:Drivers/src/ch32v20x_usart.c ****  *
 223:Drivers/src/ch32v20x_usart.c ****  * @return  none
 224:Drivers/src/ch32v20x_usart.c ****  */
 225:Drivers/src/ch32v20x_usart.c **** void USART_ClockStructInit(USART_ClockInitTypeDef *USART_ClockInitStruct)
 226:Drivers/src/ch32v20x_usart.c **** {
 503              		.loc 1 226 1
GAS LISTING C:\Users\SOLDER~1\AppData\Local\Temp\ccheWc1y.s 			page 14


 504              		.cfi_startproc
 505 0000 0111     		addi	sp,sp,-32
 506              		.cfi_def_cfa_offset 32
 507 0002 22CE     		sw	s0,28(sp)
 508              		.cfi_offset 8, -4
 509 0004 0010     		addi	s0,sp,32
 510              		.cfi_def_cfa 8, 0
 511 0006 2326A4FE 		sw	a0,-20(s0)
 227:Drivers/src/ch32v20x_usart.c ****     USART_ClockInitStruct->USART_Clock = USART_Clock_Disable;
 512              		.loc 1 227 40
 513 000a 8327C4FE 		lw	a5,-20(s0)
 514 000e 23900700 		sh	zero,0(a5)
 228:Drivers/src/ch32v20x_usart.c ****     USART_ClockInitStruct->USART_CPOL = USART_CPOL_Low;
 515              		.loc 1 228 39
 516 0012 8327C4FE 		lw	a5,-20(s0)
 517 0016 23910700 		sh	zero,2(a5)
 229:Drivers/src/ch32v20x_usart.c ****     USART_ClockInitStruct->USART_CPHA = USART_CPHA_1Edge;
 518              		.loc 1 229 39
 519 001a 8327C4FE 		lw	a5,-20(s0)
 520 001e 23920700 		sh	zero,4(a5)
 230:Drivers/src/ch32v20x_usart.c ****     USART_ClockInitStruct->USART_LastBit = USART_LastBit_Disable;
 521              		.loc 1 230 42
 522 0022 8327C4FE 		lw	a5,-20(s0)
 523 0026 23930700 		sh	zero,6(a5)
 231:Drivers/src/ch32v20x_usart.c **** }
 524              		.loc 1 231 1
 525 002a 0100     		nop
 526 002c 7244     		lw	s0,28(sp)
 527              		.cfi_restore 8
 528              		.cfi_def_cfa 2, 32
 529 002e 0561     		addi	sp,sp,32
 530              		.cfi_def_cfa_offset 0
 531 0030 8280     		jr	ra
 532              		.cfi_endproc
 533              	.LFE20:
 535              		.section	.text.USART_Cmd,"ax",@progbits
 536              		.align	1
 537              		.globl	USART_Cmd
 539              	USART_Cmd:
 540              	.LFB21:
 232:Drivers/src/ch32v20x_usart.c **** 
 233:Drivers/src/ch32v20x_usart.c **** /*********************************************************************
 234:Drivers/src/ch32v20x_usart.c ****  * @fn      USART_Cmd
 235:Drivers/src/ch32v20x_usart.c ****  *
 236:Drivers/src/ch32v20x_usart.c ****  * @brief   Enables or disables the specified USART peripheral.
 237:Drivers/src/ch32v20x_usart.c ****  *        reset values (Affects also the I2Ss).
 238:Drivers/src/ch32v20x_usart.c ****  *
 239:Drivers/src/ch32v20x_usart.c ****  * @param   USARTx - where x can be 1, 2, 3 to select the USART peripheral.
 240:Drivers/src/ch32v20x_usart.c ****  *          NewState: ENABLE or DISABLE.
 241:Drivers/src/ch32v20x_usart.c ****  *
 242:Drivers/src/ch32v20x_usart.c ****  * @return  none
 243:Drivers/src/ch32v20x_usart.c ****  */
 244:Drivers/src/ch32v20x_usart.c **** void USART_Cmd(USART_TypeDef *USARTx, FunctionalState NewState)
 245:Drivers/src/ch32v20x_usart.c **** {
 541              		.loc 1 245 1
 542              		.cfi_startproc
 543 0000 0111     		addi	sp,sp,-32
GAS LISTING C:\Users\SOLDER~1\AppData\Local\Temp\ccheWc1y.s 			page 15


 544              		.cfi_def_cfa_offset 32
 545 0002 22CE     		sw	s0,28(sp)
 546              		.cfi_offset 8, -4
 547 0004 0010     		addi	s0,sp,32
 548              		.cfi_def_cfa 8, 0
 549 0006 2326A4FE 		sw	a0,-20(s0)
 550 000a 2324B4FE 		sw	a1,-24(s0)
 246:Drivers/src/ch32v20x_usart.c ****     if(NewState != DISABLE)
 551              		.loc 1 246 7
 552 000e 832784FE 		lw	a5,-24(s0)
 553 0012 85C3     		beq	a5,zero,.L18
 247:Drivers/src/ch32v20x_usart.c ****     {
 248:Drivers/src/ch32v20x_usart.c ****         USARTx->CTLR1 |= CTLR1_UE_Set;
 554              		.loc 1 248 15
 555 0014 8327C4FE 		lw	a5,-20(s0)
 556 0018 DE27     		lhu	a5,12(a5)
 557 001a 13970701 		slli	a4,a5,16
 558 001e 4183     		srli	a4,a4,16
 559              		.loc 1 248 23
 560 0020 8967     		li	a5,8192
 561 0022 D98F     		or	a5,a4,a5
 562 0024 13970701 		slli	a4,a5,16
 563 0028 4183     		srli	a4,a4,16
 564 002a 8327C4FE 		lw	a5,-20(s0)
 565 002e DAA7     		sh	a4,12(a5)
 249:Drivers/src/ch32v20x_usart.c ****     }
 250:Drivers/src/ch32v20x_usart.c ****     else
 251:Drivers/src/ch32v20x_usart.c ****     {
 252:Drivers/src/ch32v20x_usart.c ****         USARTx->CTLR1 &= CTLR1_UE_Reset;
 253:Drivers/src/ch32v20x_usart.c ****     }
 254:Drivers/src/ch32v20x_usart.c **** }
 566              		.loc 1 254 1
 567 0030 05A0     		j	.L20
 568              	.L18:
 252:Drivers/src/ch32v20x_usart.c ****     }
 569              		.loc 1 252 15
 570 0032 8327C4FE 		lw	a5,-20(s0)
 571 0036 DE27     		lhu	a5,12(a5)
 572 0038 13970701 		slli	a4,a5,16
 573 003c 4183     		srli	a4,a4,16
 252:Drivers/src/ch32v20x_usart.c ****     }
 574              		.loc 1 252 23
 575 003e F977     		li	a5,-8192
 576 0040 FD17     		addi	a5,a5,-1
 577 0042 F98F     		and	a5,a4,a5
 578 0044 13970701 		slli	a4,a5,16
 579 0048 4183     		srli	a4,a4,16
 580 004a 8327C4FE 		lw	a5,-20(s0)
 581 004e DAA7     		sh	a4,12(a5)
 582              	.L20:
 583              		.loc 1 254 1
 584 0050 0100     		nop
 585 0052 7244     		lw	s0,28(sp)
 586              		.cfi_restore 8
 587              		.cfi_def_cfa 2, 32
 588 0054 0561     		addi	sp,sp,32
 589              		.cfi_def_cfa_offset 0
GAS LISTING C:\Users\SOLDER~1\AppData\Local\Temp\ccheWc1y.s 			page 16


 590 0056 8280     		jr	ra
 591              		.cfi_endproc
 592              	.LFE21:
 594              		.section	.text.USART_ITConfig,"ax",@progbits
 595              		.align	1
 596              		.globl	USART_ITConfig
 598              	USART_ITConfig:
 599              	.LFB22:
 255:Drivers/src/ch32v20x_usart.c **** 
 256:Drivers/src/ch32v20x_usart.c **** /*********************************************************************
 257:Drivers/src/ch32v20x_usart.c ****  * @fn      USART_ITConfig
 258:Drivers/src/ch32v20x_usart.c ****  *
 259:Drivers/src/ch32v20x_usart.c ****  * @brief   Enables or disables the specified USART interrupts.
 260:Drivers/src/ch32v20x_usart.c ****  *        reset values (Affects also the I2Ss).
 261:Drivers/src/ch32v20x_usart.c ****  *
 262:Drivers/src/ch32v20x_usart.c ****  * @param   USARTx - where x can be 1, 2, 3 to select the USART peripheral.
 263:Drivers/src/ch32v20x_usart.c ****  *          USART_IT - specifies the USART interrupt sources to be enabled or disabled.
 264:Drivers/src/ch32v20x_usart.c ****  *            USART_IT_LBD - LIN Break detection interrupt.
 265:Drivers/src/ch32v20x_usart.c ****  *            USART_IT_TXE - Transmit Data Register empty interrupt.
 266:Drivers/src/ch32v20x_usart.c ****  *            USART_IT_TC - Transmission complete interrupt.
 267:Drivers/src/ch32v20x_usart.c ****  *            USART_IT_RXNE - Receive Data register not empty interrupt.
 268:Drivers/src/ch32v20x_usart.c ****  *            USART_IT_IDLE - Idle line detection interrupt.
 269:Drivers/src/ch32v20x_usart.c ****  *            USART_IT_PE - Parity Error interrupt.
 270:Drivers/src/ch32v20x_usart.c ****  *            USART_IT_ERR - Error interrupt.
 271:Drivers/src/ch32v20x_usart.c ****  *          NewState - ENABLE or DISABLE.
 272:Drivers/src/ch32v20x_usart.c ****  *
 273:Drivers/src/ch32v20x_usart.c ****  * @return  none
 274:Drivers/src/ch32v20x_usart.c ****  */
 275:Drivers/src/ch32v20x_usart.c **** void USART_ITConfig(USART_TypeDef *USARTx, uint16_t USART_IT, FunctionalState NewState)
 276:Drivers/src/ch32v20x_usart.c **** {
 600              		.loc 1 276 1
 601              		.cfi_startproc
 602 0000 7971     		addi	sp,sp,-48
 603              		.cfi_def_cfa_offset 48
 604 0002 22D6     		sw	s0,44(sp)
 605              		.cfi_offset 8, -4
 606 0004 0018     		addi	s0,sp,48
 607              		.cfi_def_cfa 8, 0
 608 0006 232EA4FC 		sw	a0,-36(s0)
 609 000a AE87     		mv	a5,a1
 610 000c 232AC4FC 		sw	a2,-44(s0)
 611 0010 231DF4FC 		sh	a5,-38(s0)
 277:Drivers/src/ch32v20x_usart.c ****     uint32_t usartreg = 0x00, itpos = 0x00, itmask = 0x00;
 612              		.loc 1 277 14
 613 0014 232404FE 		sw	zero,-24(s0)
 614              		.loc 1 277 31
 615 0018 232204FE 		sw	zero,-28(s0)
 616              		.loc 1 277 45
 617 001c 232004FE 		sw	zero,-32(s0)
 278:Drivers/src/ch32v20x_usart.c ****     uint32_t usartxbase = 0x00;
 618              		.loc 1 278 14
 619 0020 232604FE 		sw	zero,-20(s0)
 279:Drivers/src/ch32v20x_usart.c **** 
 280:Drivers/src/ch32v20x_usart.c **** 
 281:Drivers/src/ch32v20x_usart.c ****     usartxbase = (uint32_t)USARTx;
 620              		.loc 1 281 16
 621 0024 8327C4FD 		lw	a5,-36(s0)
GAS LISTING C:\Users\SOLDER~1\AppData\Local\Temp\ccheWc1y.s 			page 17


 622 0028 2326F4FE 		sw	a5,-20(s0)
 282:Drivers/src/ch32v20x_usart.c ****     usartreg = (((uint8_t)USART_IT) >> 0x05);
 623              		.loc 1 282 18
 624 002c 8357A4FD 		lhu	a5,-38(s0)
 625 0030 93F7F70F 		andi	a5,a5,0xff
 626              		.loc 1 282 37
 627 0034 9583     		srli	a5,a5,5
 628 0036 93F7F70F 		andi	a5,a5,0xff
 629              		.loc 1 282 14
 630 003a 2324F4FE 		sw	a5,-24(s0)
 283:Drivers/src/ch32v20x_usart.c ****     itpos = USART_IT & IT_Mask;
 631              		.loc 1 283 22
 632 003e 8357A4FD 		lhu	a5,-38(s0)
 633              		.loc 1 283 11
 634 0042 FD8B     		andi	a5,a5,31
 635 0044 2322F4FE 		sw	a5,-28(s0)
 284:Drivers/src/ch32v20x_usart.c ****     itmask = (((uint32_t)0x01) << itpos);
 636              		.loc 1 284 12
 637 0048 832744FE 		lw	a5,-28(s0)
 638 004c 0547     		li	a4,1
 639 004e B317F700 		sll	a5,a4,a5
 640 0052 2320F4FE 		sw	a5,-32(s0)
 285:Drivers/src/ch32v20x_usart.c **** 
 286:Drivers/src/ch32v20x_usart.c ****     if(usartreg == 0x01)
 641              		.loc 1 286 7
 642 0056 032784FE 		lw	a4,-24(s0)
 643 005a 8547     		li	a5,1
 644 005c 6318F700 		bne	a4,a5,.L22
 287:Drivers/src/ch32v20x_usart.c ****     {
 288:Drivers/src/ch32v20x_usart.c ****         usartxbase += 0x0C;
 645              		.loc 1 288 20
 646 0060 8327C4FE 		lw	a5,-20(s0)
 647 0064 B107     		addi	a5,a5,12
 648 0066 2326F4FE 		sw	a5,-20(s0)
 649 006a 0DA0     		j	.L23
 650              	.L22:
 289:Drivers/src/ch32v20x_usart.c ****     }
 290:Drivers/src/ch32v20x_usart.c ****     else if(usartreg == 0x02)
 651              		.loc 1 290 12
 652 006c 032784FE 		lw	a4,-24(s0)
 653 0070 8947     		li	a5,2
 654 0072 6318F700 		bne	a4,a5,.L24
 291:Drivers/src/ch32v20x_usart.c ****     {
 292:Drivers/src/ch32v20x_usart.c ****         usartxbase += 0x10;
 655              		.loc 1 292 20
 656 0076 8327C4FE 		lw	a5,-20(s0)
 657 007a C107     		addi	a5,a5,16
 658 007c 2326F4FE 		sw	a5,-20(s0)
 659 0080 31A0     		j	.L23
 660              	.L24:
 293:Drivers/src/ch32v20x_usart.c ****     }
 294:Drivers/src/ch32v20x_usart.c ****     else
 295:Drivers/src/ch32v20x_usart.c ****     {
 296:Drivers/src/ch32v20x_usart.c ****         usartxbase += 0x14;
 661              		.loc 1 296 20
 662 0082 8327C4FE 		lw	a5,-20(s0)
 663 0086 D107     		addi	a5,a5,20
GAS LISTING C:\Users\SOLDER~1\AppData\Local\Temp\ccheWc1y.s 			page 18


 664 0088 2326F4FE 		sw	a5,-20(s0)
 665              	.L23:
 297:Drivers/src/ch32v20x_usart.c ****     }
 298:Drivers/src/ch32v20x_usart.c **** 
 299:Drivers/src/ch32v20x_usart.c ****     if(NewState != DISABLE)
 666              		.loc 1 299 7
 667 008c 832744FD 		lw	a5,-44(s0)
 668 0090 99CB     		beq	a5,zero,.L25
 300:Drivers/src/ch32v20x_usart.c ****     {
 301:Drivers/src/ch32v20x_usart.c ****         *(__IO uint32_t *)usartxbase |= itmask;
 669              		.loc 1 301 9
 670 0092 8327C4FE 		lw	a5,-20(s0)
 671 0096 9443     		lw	a3,0(a5)
 672 0098 8327C4FE 		lw	a5,-20(s0)
 673              		.loc 1 301 38
 674 009c 032704FE 		lw	a4,-32(s0)
 675 00a0 558F     		or	a4,a3,a4
 676 00a2 98C3     		sw	a4,0(a5)
 302:Drivers/src/ch32v20x_usart.c ****     }
 303:Drivers/src/ch32v20x_usart.c ****     else
 304:Drivers/src/ch32v20x_usart.c ****     {
 305:Drivers/src/ch32v20x_usart.c ****         *(__IO uint32_t *)usartxbase &= ~itmask;
 306:Drivers/src/ch32v20x_usart.c ****     }
 307:Drivers/src/ch32v20x_usart.c **** }
 677              		.loc 1 307 1
 678 00a4 21A8     		j	.L27
 679              	.L25:
 305:Drivers/src/ch32v20x_usart.c ****     }
 680              		.loc 1 305 9
 681 00a6 8327C4FE 		lw	a5,-20(s0)
 682 00aa 9443     		lw	a3,0(a5)
 305:Drivers/src/ch32v20x_usart.c ****     }
 683              		.loc 1 305 41
 684 00ac 832704FE 		lw	a5,-32(s0)
 685 00b0 13C7F7FF 		not	a4,a5
 305:Drivers/src/ch32v20x_usart.c ****     }
 686              		.loc 1 305 9
 687 00b4 8327C4FE 		lw	a5,-20(s0)
 305:Drivers/src/ch32v20x_usart.c ****     }
 688              		.loc 1 305 38
 689 00b8 758F     		and	a4,a3,a4
 690 00ba 98C3     		sw	a4,0(a5)
 691              	.L27:
 692              		.loc 1 307 1
 693 00bc 0100     		nop
 694 00be 3254     		lw	s0,44(sp)
 695              		.cfi_restore 8
 696              		.cfi_def_cfa 2, 48
 697 00c0 4561     		addi	sp,sp,48
 698              		.cfi_def_cfa_offset 0
 699 00c2 8280     		jr	ra
 700              		.cfi_endproc
 701              	.LFE22:
 703              		.section	.text.USART_DMACmd,"ax",@progbits
 704              		.align	1
 705              		.globl	USART_DMACmd
 707              	USART_DMACmd:
GAS LISTING C:\Users\SOLDER~1\AppData\Local\Temp\ccheWc1y.s 			page 19


 708              	.LFB23:
 308:Drivers/src/ch32v20x_usart.c **** 
 309:Drivers/src/ch32v20x_usart.c **** /*********************************************************************
 310:Drivers/src/ch32v20x_usart.c ****  * @fn      USART_DMACmd
 311:Drivers/src/ch32v20x_usart.c ****  *
 312:Drivers/src/ch32v20x_usart.c ****  * @brief   Enables or disables the USART DMA interface.
 313:Drivers/src/ch32v20x_usart.c ****  *
 314:Drivers/src/ch32v20x_usart.c ****  * @param   USARTx - where x can be 1, 2, 3 to select the USART peripheral.
 315:Drivers/src/ch32v20x_usart.c ****  *          USART_DMAReq - specifies the DMA request.
 316:Drivers/src/ch32v20x_usart.c ****  *            USART_DMAReq_Tx - USART DMA transmit request.
 317:Drivers/src/ch32v20x_usart.c ****  *            USART_DMAReq_Rx - USART DMA receive request.
 318:Drivers/src/ch32v20x_usart.c ****  *          NewState - ENABLE or DISABLE.
 319:Drivers/src/ch32v20x_usart.c ****  *
 320:Drivers/src/ch32v20x_usart.c ****  * @return  none
 321:Drivers/src/ch32v20x_usart.c ****  */
 322:Drivers/src/ch32v20x_usart.c **** void USART_DMACmd(USART_TypeDef *USARTx, uint16_t USART_DMAReq, FunctionalState NewState)
 323:Drivers/src/ch32v20x_usart.c **** {
 709              		.loc 1 323 1
 710              		.cfi_startproc
 711 0000 0111     		addi	sp,sp,-32
 712              		.cfi_def_cfa_offset 32
 713 0002 22CE     		sw	s0,28(sp)
 714              		.cfi_offset 8, -4
 715 0004 0010     		addi	s0,sp,32
 716              		.cfi_def_cfa 8, 0
 717 0006 2326A4FE 		sw	a0,-20(s0)
 718 000a AE87     		mv	a5,a1
 719 000c 2322C4FE 		sw	a2,-28(s0)
 720 0010 2315F4FE 		sh	a5,-22(s0)
 324:Drivers/src/ch32v20x_usart.c ****     if(NewState != DISABLE)
 721              		.loc 1 324 7
 722 0014 832744FE 		lw	a5,-28(s0)
 723 0018 85C3     		beq	a5,zero,.L29
 325:Drivers/src/ch32v20x_usart.c ****     {
 326:Drivers/src/ch32v20x_usart.c ****         USARTx->CTLR3 |= USART_DMAReq;
 724              		.loc 1 326 15
 725 001a 8327C4FE 		lw	a5,-20(s0)
 726 001e DE2B     		lhu	a5,20(a5)
 727 0020 C207     		slli	a5,a5,16
 728 0022 C183     		srli	a5,a5,16
 729              		.loc 1 326 23
 730 0024 0357A4FE 		lhu	a4,-22(s0)
 731 0028 D98F     		or	a5,a5,a4
 732 002a 13970701 		slli	a4,a5,16
 733 002e 4183     		srli	a4,a4,16
 734 0030 8327C4FE 		lw	a5,-20(s0)
 735 0034 DAAB     		sh	a4,20(a5)
 327:Drivers/src/ch32v20x_usart.c ****     }
 328:Drivers/src/ch32v20x_usart.c ****     else
 329:Drivers/src/ch32v20x_usart.c ****     {
 330:Drivers/src/ch32v20x_usart.c ****         USARTx->CTLR3 &= (uint16_t)~USART_DMAReq;
 331:Drivers/src/ch32v20x_usart.c ****     }
 332:Drivers/src/ch32v20x_usart.c **** }
 736              		.loc 1 332 1
 737 0036 25A0     		j	.L31
 738              	.L29:
 330:Drivers/src/ch32v20x_usart.c ****     }
GAS LISTING C:\Users\SOLDER~1\AppData\Local\Temp\ccheWc1y.s 			page 20


 739              		.loc 1 330 15
 740 0038 8327C4FE 		lw	a5,-20(s0)
 741 003c DE2B     		lhu	a5,20(a5)
 742 003e 13970701 		slli	a4,a5,16
 743 0042 4183     		srli	a4,a4,16
 330:Drivers/src/ch32v20x_usart.c ****     }
 744              		.loc 1 330 26
 745 0044 8357A4FE 		lhu	a5,-22(s0)
 746 0048 93C7F7FF 		not	a5,a5
 747 004c C207     		slli	a5,a5,16
 748 004e C183     		srli	a5,a5,16
 330:Drivers/src/ch32v20x_usart.c ****     }
 749              		.loc 1 330 23
 750 0050 F98F     		and	a5,a4,a5
 751 0052 13970701 		slli	a4,a5,16
 752 0056 4183     		srli	a4,a4,16
 753 0058 8327C4FE 		lw	a5,-20(s0)
 754 005c DAAB     		sh	a4,20(a5)
 755              	.L31:
 756              		.loc 1 332 1
 757 005e 0100     		nop
 758 0060 7244     		lw	s0,28(sp)
 759              		.cfi_restore 8
 760              		.cfi_def_cfa 2, 32
 761 0062 0561     		addi	sp,sp,32
 762              		.cfi_def_cfa_offset 0
 763 0064 8280     		jr	ra
 764              		.cfi_endproc
 765              	.LFE23:
 767              		.section	.text.USART_SetAddress,"ax",@progbits
 768              		.align	1
 769              		.globl	USART_SetAddress
 771              	USART_SetAddress:
 772              	.LFB24:
 333:Drivers/src/ch32v20x_usart.c **** 
 334:Drivers/src/ch32v20x_usart.c **** /*********************************************************************
 335:Drivers/src/ch32v20x_usart.c ****  * @fn      USART_SetAddress
 336:Drivers/src/ch32v20x_usart.c ****  *
 337:Drivers/src/ch32v20x_usart.c ****  * @brief   Sets the address of the USART node.
 338:Drivers/src/ch32v20x_usart.c ****  *
 339:Drivers/src/ch32v20x_usart.c ****  * @param   USARTx - where x can be 1, 2, 3 to select the USART peripheral.
 340:Drivers/src/ch32v20x_usart.c ****  *          USART_Address - Indicates the address of the USART node.
 341:Drivers/src/ch32v20x_usart.c ****  *
 342:Drivers/src/ch32v20x_usart.c ****  * @return  none
 343:Drivers/src/ch32v20x_usart.c ****  */
 344:Drivers/src/ch32v20x_usart.c **** void USART_SetAddress(USART_TypeDef *USARTx, uint8_t USART_Address)
 345:Drivers/src/ch32v20x_usart.c **** {
 773              		.loc 1 345 1
 774              		.cfi_startproc
 775 0000 0111     		addi	sp,sp,-32
 776              		.cfi_def_cfa_offset 32
 777 0002 22CE     		sw	s0,28(sp)
 778              		.cfi_offset 8, -4
 779 0004 0010     		addi	s0,sp,32
 780              		.cfi_def_cfa 8, 0
 781 0006 2326A4FE 		sw	a0,-20(s0)
 782 000a AE87     		mv	a5,a1
GAS LISTING C:\Users\SOLDER~1\AppData\Local\Temp\ccheWc1y.s 			page 21


 783 000c A305F4FE 		sb	a5,-21(s0)
 346:Drivers/src/ch32v20x_usart.c ****     USARTx->CTLR2 &= CTLR2_Address_Mask;
 784              		.loc 1 346 11
 785 0010 8327C4FE 		lw	a5,-20(s0)
 786 0014 9E2B     		lhu	a5,16(a5)
 787 0016 C207     		slli	a5,a5,16
 788 0018 C183     		srli	a5,a5,16
 789              		.loc 1 346 19
 790 001a C19B     		andi	a5,a5,-16
 791 001c 13970701 		slli	a4,a5,16
 792 0020 4183     		srli	a4,a4,16
 793 0022 8327C4FE 		lw	a5,-20(s0)
 794 0026 9AAB     		sh	a4,16(a5)
 347:Drivers/src/ch32v20x_usart.c ****     USARTx->CTLR2 |= USART_Address;
 795              		.loc 1 347 11
 796 0028 8327C4FE 		lw	a5,-20(s0)
 797 002c 9E2B     		lhu	a5,16(a5)
 798 002e 13970701 		slli	a4,a5,16
 799 0032 4183     		srli	a4,a4,16
 800              		.loc 1 347 19
 801 0034 8347B4FE 		lbu	a5,-21(s0)
 802 0038 C207     		slli	a5,a5,16
 803 003a C183     		srli	a5,a5,16
 804 003c D98F     		or	a5,a4,a5
 805 003e 13970701 		slli	a4,a5,16
 806 0042 4183     		srli	a4,a4,16
 807 0044 8327C4FE 		lw	a5,-20(s0)
 808 0048 9AAB     		sh	a4,16(a5)
 348:Drivers/src/ch32v20x_usart.c **** }
 809              		.loc 1 348 1
 810 004a 0100     		nop
 811 004c 7244     		lw	s0,28(sp)
 812              		.cfi_restore 8
 813              		.cfi_def_cfa 2, 32
 814 004e 0561     		addi	sp,sp,32
 815              		.cfi_def_cfa_offset 0
 816 0050 8280     		jr	ra
 817              		.cfi_endproc
 818              	.LFE24:
 820              		.section	.text.USART_WakeUpConfig,"ax",@progbits
 821              		.align	1
 822              		.globl	USART_WakeUpConfig
 824              	USART_WakeUpConfig:
 825              	.LFB25:
 349:Drivers/src/ch32v20x_usart.c **** 
 350:Drivers/src/ch32v20x_usart.c **** /*********************************************************************
 351:Drivers/src/ch32v20x_usart.c ****  * @fn      USART_WakeUpConfig
 352:Drivers/src/ch32v20x_usart.c ****  *
 353:Drivers/src/ch32v20x_usart.c ****  * @brief   Selects the USART WakeUp method.
 354:Drivers/src/ch32v20x_usart.c ****  *
 355:Drivers/src/ch32v20x_usart.c ****  * @param   USARTx - where x can be 1, 2, 3 to select the USART peripheral.
 356:Drivers/src/ch32v20x_usart.c ****  *          USART_WakeUp - specifies the USART wakeup method.
 357:Drivers/src/ch32v20x_usart.c ****  *            USART_WakeUp_IdleLine - WakeUp by an idle line detection.
 358:Drivers/src/ch32v20x_usart.c ****  *            USART_WakeUp_AddressMark - WakeUp by an address mark.
 359:Drivers/src/ch32v20x_usart.c ****  *
 360:Drivers/src/ch32v20x_usart.c ****  * @return  none
 361:Drivers/src/ch32v20x_usart.c ****  */
GAS LISTING C:\Users\SOLDER~1\AppData\Local\Temp\ccheWc1y.s 			page 22


 362:Drivers/src/ch32v20x_usart.c **** void USART_WakeUpConfig(USART_TypeDef *USARTx, uint16_t USART_WakeUp)
 363:Drivers/src/ch32v20x_usart.c **** {
 826              		.loc 1 363 1
 827              		.cfi_startproc
 828 0000 0111     		addi	sp,sp,-32
 829              		.cfi_def_cfa_offset 32
 830 0002 22CE     		sw	s0,28(sp)
 831              		.cfi_offset 8, -4
 832 0004 0010     		addi	s0,sp,32
 833              		.cfi_def_cfa 8, 0
 834 0006 2326A4FE 		sw	a0,-20(s0)
 835 000a AE87     		mv	a5,a1
 836 000c 2315F4FE 		sh	a5,-22(s0)
 364:Drivers/src/ch32v20x_usart.c ****     USARTx->CTLR1 &= CTLR1_WAKE_Mask;
 837              		.loc 1 364 11
 838 0010 8327C4FE 		lw	a5,-20(s0)
 839 0014 DE27     		lhu	a5,12(a5)
 840 0016 13970701 		slli	a4,a5,16
 841 001a 4183     		srli	a4,a4,16
 842              		.loc 1 364 19
 843 001c FD77     		li	a5,-4096
 844 001e 9387F77F 		addi	a5,a5,2047
 845 0022 F98F     		and	a5,a4,a5
 846 0024 13970701 		slli	a4,a5,16
 847 0028 4183     		srli	a4,a4,16
 848 002a 8327C4FE 		lw	a5,-20(s0)
 849 002e DAA7     		sh	a4,12(a5)
 365:Drivers/src/ch32v20x_usart.c ****     USARTx->CTLR1 |= USART_WakeUp;
 850              		.loc 1 365 11
 851 0030 8327C4FE 		lw	a5,-20(s0)
 852 0034 DE27     		lhu	a5,12(a5)
 853 0036 C207     		slli	a5,a5,16
 854 0038 C183     		srli	a5,a5,16
 855              		.loc 1 365 19
 856 003a 0357A4FE 		lhu	a4,-22(s0)
 857 003e D98F     		or	a5,a5,a4
 858 0040 13970701 		slli	a4,a5,16
 859 0044 4183     		srli	a4,a4,16
 860 0046 8327C4FE 		lw	a5,-20(s0)
 861 004a DAA7     		sh	a4,12(a5)
 366:Drivers/src/ch32v20x_usart.c **** }
 862              		.loc 1 366 1
 863 004c 0100     		nop
 864 004e 7244     		lw	s0,28(sp)
 865              		.cfi_restore 8
 866              		.cfi_def_cfa 2, 32
 867 0050 0561     		addi	sp,sp,32
 868              		.cfi_def_cfa_offset 0
 869 0052 8280     		jr	ra
 870              		.cfi_endproc
 871              	.LFE25:
 873              		.section	.text.USART_ReceiverWakeUpCmd,"ax",@progbits
 874              		.align	1
 875              		.globl	USART_ReceiverWakeUpCmd
 877              	USART_ReceiverWakeUpCmd:
 878              	.LFB26:
 367:Drivers/src/ch32v20x_usart.c **** 
GAS LISTING C:\Users\SOLDER~1\AppData\Local\Temp\ccheWc1y.s 			page 23


 368:Drivers/src/ch32v20x_usart.c **** /*********************************************************************
 369:Drivers/src/ch32v20x_usart.c ****  * @fn      USART_ReceiverWakeUpCmd
 370:Drivers/src/ch32v20x_usart.c ****  *
 371:Drivers/src/ch32v20x_usart.c ****  * @brief   Determines if the USART is in mute mode or not.
 372:Drivers/src/ch32v20x_usart.c ****  *
 373:Drivers/src/ch32v20x_usart.c ****  * @param   USARTx - where x can be 1, 2, 3 to select the USART peripheral.
 374:Drivers/src/ch32v20x_usart.c ****  *          NewState - ENABLE or DISABLE.
 375:Drivers/src/ch32v20x_usart.c ****  *
 376:Drivers/src/ch32v20x_usart.c ****  * @return  none
 377:Drivers/src/ch32v20x_usart.c ****  */
 378:Drivers/src/ch32v20x_usart.c **** void USART_ReceiverWakeUpCmd(USART_TypeDef *USARTx, FunctionalState NewState)
 379:Drivers/src/ch32v20x_usart.c **** {
 879              		.loc 1 379 1
 880              		.cfi_startproc
 881 0000 0111     		addi	sp,sp,-32
 882              		.cfi_def_cfa_offset 32
 883 0002 22CE     		sw	s0,28(sp)
 884              		.cfi_offset 8, -4
 885 0004 0010     		addi	s0,sp,32
 886              		.cfi_def_cfa 8, 0
 887 0006 2326A4FE 		sw	a0,-20(s0)
 888 000a 2324B4FE 		sw	a1,-24(s0)
 380:Drivers/src/ch32v20x_usart.c ****     if(NewState != DISABLE)
 889              		.loc 1 380 7
 890 000e 832784FE 		lw	a5,-24(s0)
 891 0012 99CF     		beq	a5,zero,.L35
 381:Drivers/src/ch32v20x_usart.c ****     {
 382:Drivers/src/ch32v20x_usart.c ****         USARTx->CTLR1 |= CTLR1_RWU_Set;
 892              		.loc 1 382 15
 893 0014 8327C4FE 		lw	a5,-20(s0)
 894 0018 DE27     		lhu	a5,12(a5)
 895 001a C207     		slli	a5,a5,16
 896 001c C183     		srli	a5,a5,16
 897              		.loc 1 382 23
 898 001e 93E72700 		ori	a5,a5,2
 899 0022 13970701 		slli	a4,a5,16
 900 0026 4183     		srli	a4,a4,16
 901 0028 8327C4FE 		lw	a5,-20(s0)
 902 002c DAA7     		sh	a4,12(a5)
 383:Drivers/src/ch32v20x_usart.c ****     }
 384:Drivers/src/ch32v20x_usart.c ****     else
 385:Drivers/src/ch32v20x_usart.c ****     {
 386:Drivers/src/ch32v20x_usart.c ****         USARTx->CTLR1 &= CTLR1_RWU_Reset;
 387:Drivers/src/ch32v20x_usart.c ****     }
 388:Drivers/src/ch32v20x_usart.c **** }
 903              		.loc 1 388 1
 904 002e 29A8     		j	.L37
 905              	.L35:
 386:Drivers/src/ch32v20x_usart.c ****     }
 906              		.loc 1 386 15
 907 0030 8327C4FE 		lw	a5,-20(s0)
 908 0034 DE27     		lhu	a5,12(a5)
 909 0036 C207     		slli	a5,a5,16
 910 0038 C183     		srli	a5,a5,16
 386:Drivers/src/ch32v20x_usart.c ****     }
 911              		.loc 1 386 23
 912 003a F59B     		andi	a5,a5,-3
GAS LISTING C:\Users\SOLDER~1\AppData\Local\Temp\ccheWc1y.s 			page 24


 913 003c 13970701 		slli	a4,a5,16
 914 0040 4183     		srli	a4,a4,16
 915 0042 8327C4FE 		lw	a5,-20(s0)
 916 0046 DAA7     		sh	a4,12(a5)
 917              	.L37:
 918              		.loc 1 388 1
 919 0048 0100     		nop
 920 004a 7244     		lw	s0,28(sp)
 921              		.cfi_restore 8
 922              		.cfi_def_cfa 2, 32
 923 004c 0561     		addi	sp,sp,32
 924              		.cfi_def_cfa_offset 0
 925 004e 8280     		jr	ra
 926              		.cfi_endproc
 927              	.LFE26:
 929              		.section	.text.USART_LINBreakDetectLengthConfig,"ax",@progbits
 930              		.align	1
 931              		.globl	USART_LINBreakDetectLengthConfig
 933              	USART_LINBreakDetectLengthConfig:
 934              	.LFB27:
 389:Drivers/src/ch32v20x_usart.c **** 
 390:Drivers/src/ch32v20x_usart.c **** /*********************************************************************
 391:Drivers/src/ch32v20x_usart.c ****  * @fn      USART_LINBreakDetectLengthConfig
 392:Drivers/src/ch32v20x_usart.c ****  *
 393:Drivers/src/ch32v20x_usart.c ****  * @brief   Sets the USART LIN Break detection length.
 394:Drivers/src/ch32v20x_usart.c ****  *
 395:Drivers/src/ch32v20x_usart.c ****  * @param   USARTx - where x can be 1, 2, 3 to select the USART peripheral.
 396:Drivers/src/ch32v20x_usart.c ****  *          USART_LINBreakDetectLength - specifies the LIN break detection length.
 397:Drivers/src/ch32v20x_usart.c ****  *            USART_LINBreakDetectLength_10b - 10-bit break detection.
 398:Drivers/src/ch32v20x_usart.c ****  *            USART_LINBreakDetectLength_11b - 11-bit break detection.
 399:Drivers/src/ch32v20x_usart.c ****  *
 400:Drivers/src/ch32v20x_usart.c ****  * @return  none
 401:Drivers/src/ch32v20x_usart.c ****  */
 402:Drivers/src/ch32v20x_usart.c **** void USART_LINBreakDetectLengthConfig(USART_TypeDef *USARTx, uint16_t USART_LINBreakDetectLength)
 403:Drivers/src/ch32v20x_usart.c **** {
 935              		.loc 1 403 1
 936              		.cfi_startproc
 937 0000 0111     		addi	sp,sp,-32
 938              		.cfi_def_cfa_offset 32
 939 0002 22CE     		sw	s0,28(sp)
 940              		.cfi_offset 8, -4
 941 0004 0010     		addi	s0,sp,32
 942              		.cfi_def_cfa 8, 0
 943 0006 2326A4FE 		sw	a0,-20(s0)
 944 000a AE87     		mv	a5,a1
 945 000c 2315F4FE 		sh	a5,-22(s0)
 404:Drivers/src/ch32v20x_usart.c ****     USARTx->CTLR2 &= CTLR2_LBDL_Mask;
 946              		.loc 1 404 11
 947 0010 8327C4FE 		lw	a5,-20(s0)
 948 0014 9E2B     		lhu	a5,16(a5)
 949 0016 C207     		slli	a5,a5,16
 950 0018 C183     		srli	a5,a5,16
 951              		.loc 1 404 19
 952 001a 93F7F7FD 		andi	a5,a5,-33
 953 001e 13970701 		slli	a4,a5,16
 954 0022 4183     		srli	a4,a4,16
 955 0024 8327C4FE 		lw	a5,-20(s0)
GAS LISTING C:\Users\SOLDER~1\AppData\Local\Temp\ccheWc1y.s 			page 25


 956 0028 9AAB     		sh	a4,16(a5)
 405:Drivers/src/ch32v20x_usart.c ****     USARTx->CTLR2 |= USART_LINBreakDetectLength;
 957              		.loc 1 405 11
 958 002a 8327C4FE 		lw	a5,-20(s0)
 959 002e 9E2B     		lhu	a5,16(a5)
 960 0030 C207     		slli	a5,a5,16
 961 0032 C183     		srli	a5,a5,16
 962              		.loc 1 405 19
 963 0034 0357A4FE 		lhu	a4,-22(s0)
 964 0038 D98F     		or	a5,a5,a4
 965 003a 13970701 		slli	a4,a5,16
 966 003e 4183     		srli	a4,a4,16
 967 0040 8327C4FE 		lw	a5,-20(s0)
 968 0044 9AAB     		sh	a4,16(a5)
 406:Drivers/src/ch32v20x_usart.c **** }
 969              		.loc 1 406 1
 970 0046 0100     		nop
 971 0048 7244     		lw	s0,28(sp)
 972              		.cfi_restore 8
 973              		.cfi_def_cfa 2, 32
 974 004a 0561     		addi	sp,sp,32
 975              		.cfi_def_cfa_offset 0
 976 004c 8280     		jr	ra
 977              		.cfi_endproc
 978              	.LFE27:
 980              		.section	.text.USART_LINCmd,"ax",@progbits
 981              		.align	1
 982              		.globl	USART_LINCmd
 984              	USART_LINCmd:
 985              	.LFB28:
 407:Drivers/src/ch32v20x_usart.c **** 
 408:Drivers/src/ch32v20x_usart.c **** /*********************************************************************
 409:Drivers/src/ch32v20x_usart.c ****  * @fn      USART_LINCmd
 410:Drivers/src/ch32v20x_usart.c ****  *
 411:Drivers/src/ch32v20x_usart.c ****  * @brief   Enables or disables the USART LIN mode.
 412:Drivers/src/ch32v20x_usart.c ****  *
 413:Drivers/src/ch32v20x_usart.c ****  * @param   USARTx - where x can be 1, 2, 3 to select the USART peripheral.
 414:Drivers/src/ch32v20x_usart.c ****  *          NewState - ENABLE or DISABLE.
 415:Drivers/src/ch32v20x_usart.c ****  *
 416:Drivers/src/ch32v20x_usart.c ****  * @return  none
 417:Drivers/src/ch32v20x_usart.c ****  */
 418:Drivers/src/ch32v20x_usart.c **** void USART_LINCmd(USART_TypeDef *USARTx, FunctionalState NewState)
 419:Drivers/src/ch32v20x_usart.c **** {
 986              		.loc 1 419 1
 987              		.cfi_startproc
 988 0000 0111     		addi	sp,sp,-32
 989              		.cfi_def_cfa_offset 32
 990 0002 22CE     		sw	s0,28(sp)
 991              		.cfi_offset 8, -4
 992 0004 0010     		addi	s0,sp,32
 993              		.cfi_def_cfa 8, 0
 994 0006 2326A4FE 		sw	a0,-20(s0)
 995 000a 2324B4FE 		sw	a1,-24(s0)
 420:Drivers/src/ch32v20x_usart.c ****     if(NewState != DISABLE)
 996              		.loc 1 420 7
 997 000e 832784FE 		lw	a5,-24(s0)
 998 0012 85C3     		beq	a5,zero,.L40
GAS LISTING C:\Users\SOLDER~1\AppData\Local\Temp\ccheWc1y.s 			page 26


 421:Drivers/src/ch32v20x_usart.c ****     {
 422:Drivers/src/ch32v20x_usart.c ****         USARTx->CTLR2 |= CTLR2_LINEN_Set;
 999              		.loc 1 422 15
 1000 0014 8327C4FE 		lw	a5,-20(s0)
 1001 0018 9E2B     		lhu	a5,16(a5)
 1002 001a 13970701 		slli	a4,a5,16
 1003 001e 4183     		srli	a4,a4,16
 1004              		.loc 1 422 23
 1005 0020 9167     		li	a5,16384
 1006 0022 D98F     		or	a5,a4,a5
 1007 0024 13970701 		slli	a4,a5,16
 1008 0028 4183     		srli	a4,a4,16
 1009 002a 8327C4FE 		lw	a5,-20(s0)
 1010 002e 9AAB     		sh	a4,16(a5)
 423:Drivers/src/ch32v20x_usart.c ****     }
 424:Drivers/src/ch32v20x_usart.c ****     else
 425:Drivers/src/ch32v20x_usart.c ****     {
 426:Drivers/src/ch32v20x_usart.c ****         USARTx->CTLR2 &= CTLR2_LINEN_Reset;
 427:Drivers/src/ch32v20x_usart.c ****     }
 428:Drivers/src/ch32v20x_usart.c **** }
 1011              		.loc 1 428 1
 1012 0030 05A0     		j	.L42
 1013              	.L40:
 426:Drivers/src/ch32v20x_usart.c ****     }
 1014              		.loc 1 426 15
 1015 0032 8327C4FE 		lw	a5,-20(s0)
 1016 0036 9E2B     		lhu	a5,16(a5)
 1017 0038 13970701 		slli	a4,a5,16
 1018 003c 4183     		srli	a4,a4,16
 426:Drivers/src/ch32v20x_usart.c ****     }
 1019              		.loc 1 426 23
 1020 003e F177     		li	a5,-16384
 1021 0040 FD17     		addi	a5,a5,-1
 1022 0042 F98F     		and	a5,a4,a5
 1023 0044 13970701 		slli	a4,a5,16
 1024 0048 4183     		srli	a4,a4,16
 1025 004a 8327C4FE 		lw	a5,-20(s0)
 1026 004e 9AAB     		sh	a4,16(a5)
 1027              	.L42:
 1028              		.loc 1 428 1
 1029 0050 0100     		nop
 1030 0052 7244     		lw	s0,28(sp)
 1031              		.cfi_restore 8
 1032              		.cfi_def_cfa 2, 32
 1033 0054 0561     		addi	sp,sp,32
 1034              		.cfi_def_cfa_offset 0
 1035 0056 8280     		jr	ra
 1036              		.cfi_endproc
 1037              	.LFE28:
 1039              		.section	.text.USART_SendData,"ax",@progbits
 1040              		.align	1
 1041              		.globl	USART_SendData
 1043              	USART_SendData:
 1044              	.LFB29:
 429:Drivers/src/ch32v20x_usart.c **** 
 430:Drivers/src/ch32v20x_usart.c **** /*********************************************************************
 431:Drivers/src/ch32v20x_usart.c ****  * @fn      USART_SendData
GAS LISTING C:\Users\SOLDER~1\AppData\Local\Temp\ccheWc1y.s 			page 27


 432:Drivers/src/ch32v20x_usart.c ****  *
 433:Drivers/src/ch32v20x_usart.c ****  * @brief   Transmits single data through the USARTx peripheral.
 434:Drivers/src/ch32v20x_usart.c ****  *
 435:Drivers/src/ch32v20x_usart.c ****  * @param   USARTx - where x can be 1, 2, 3 to select the USART peripheral.
 436:Drivers/src/ch32v20x_usart.c ****  *          Data - the data to transmit.
 437:Drivers/src/ch32v20x_usart.c ****  *
 438:Drivers/src/ch32v20x_usart.c ****  * @return  none
 439:Drivers/src/ch32v20x_usart.c ****  */
 440:Drivers/src/ch32v20x_usart.c **** void USART_SendData(USART_TypeDef *USARTx, uint16_t Data)
 441:Drivers/src/ch32v20x_usart.c **** {
 1045              		.loc 1 441 1
 1046              		.cfi_startproc
 1047 0000 0111     		addi	sp,sp,-32
 1048              		.cfi_def_cfa_offset 32
 1049 0002 22CE     		sw	s0,28(sp)
 1050              		.cfi_offset 8, -4
 1051 0004 0010     		addi	s0,sp,32
 1052              		.cfi_def_cfa 8, 0
 1053 0006 2326A4FE 		sw	a0,-20(s0)
 1054 000a AE87     		mv	a5,a1
 1055 000c 2315F4FE 		sh	a5,-22(s0)
 442:Drivers/src/ch32v20x_usart.c ****     USARTx->DATAR = (Data & (uint16_t)0x01FF);
 1056              		.loc 1 442 27
 1057 0010 8357A4FE 		lhu	a5,-22(s0)
 1058 0014 93F7F71F 		andi	a5,a5,511
 1059 0018 13970701 		slli	a4,a5,16
 1060 001c 4183     		srli	a4,a4,16
 1061              		.loc 1 442 19
 1062 001e 8327C4FE 		lw	a5,-20(s0)
 1063 0022 DAA3     		sh	a4,4(a5)
 443:Drivers/src/ch32v20x_usart.c **** }
 1064              		.loc 1 443 1
 1065 0024 0100     		nop
 1066 0026 7244     		lw	s0,28(sp)
 1067              		.cfi_restore 8
 1068              		.cfi_def_cfa 2, 32
 1069 0028 0561     		addi	sp,sp,32
 1070              		.cfi_def_cfa_offset 0
 1071 002a 8280     		jr	ra
 1072              		.cfi_endproc
 1073              	.LFE29:
 1075              		.section	.text.USART_ReceiveData,"ax",@progbits
 1076              		.align	1
 1077              		.globl	USART_ReceiveData
 1079              	USART_ReceiveData:
 1080              	.LFB30:
 444:Drivers/src/ch32v20x_usart.c **** 
 445:Drivers/src/ch32v20x_usart.c **** /*********************************************************************
 446:Drivers/src/ch32v20x_usart.c ****  * @fn      USART_ReceiveData
 447:Drivers/src/ch32v20x_usart.c ****  *
 448:Drivers/src/ch32v20x_usart.c ****  * @brief   Returns the most recent received data by the USARTx peripheral.
 449:Drivers/src/ch32v20x_usart.c ****  *
 450:Drivers/src/ch32v20x_usart.c ****  * @param   USARTx - where x can be 1, 2, 3 to select the USART peripheral.
 451:Drivers/src/ch32v20x_usart.c ****  *
 452:Drivers/src/ch32v20x_usart.c ****  * @return  The received data.
 453:Drivers/src/ch32v20x_usart.c ****  */
 454:Drivers/src/ch32v20x_usart.c **** uint16_t USART_ReceiveData(USART_TypeDef *USARTx)
GAS LISTING C:\Users\SOLDER~1\AppData\Local\Temp\ccheWc1y.s 			page 28


 455:Drivers/src/ch32v20x_usart.c **** {
 1081              		.loc 1 455 1
 1082              		.cfi_startproc
 1083 0000 0111     		addi	sp,sp,-32
 1084              		.cfi_def_cfa_offset 32
 1085 0002 22CE     		sw	s0,28(sp)
 1086              		.cfi_offset 8, -4
 1087 0004 0010     		addi	s0,sp,32
 1088              		.cfi_def_cfa 8, 0
 1089 0006 2326A4FE 		sw	a0,-20(s0)
 456:Drivers/src/ch32v20x_usart.c ****     return (uint16_t)(USARTx->DATAR & (uint16_t)0x01FF);
 1090              		.loc 1 456 29
 1091 000a 8327C4FE 		lw	a5,-20(s0)
 1092 000e DE23     		lhu	a5,4(a5)
 1093 0010 C207     		slli	a5,a5,16
 1094 0012 C183     		srli	a5,a5,16
 1095              		.loc 1 456 12
 1096 0014 93F7F71F 		andi	a5,a5,511
 1097 0018 C207     		slli	a5,a5,16
 1098 001a C183     		srli	a5,a5,16
 457:Drivers/src/ch32v20x_usart.c **** }
 1099              		.loc 1 457 1
 1100 001c 3E85     		mv	a0,a5
 1101 001e 7244     		lw	s0,28(sp)
 1102              		.cfi_restore 8
 1103              		.cfi_def_cfa 2, 32
 1104 0020 0561     		addi	sp,sp,32
 1105              		.cfi_def_cfa_offset 0
 1106 0022 8280     		jr	ra
 1107              		.cfi_endproc
 1108              	.LFE30:
 1110              		.section	.text.USART_SendBreak,"ax",@progbits
 1111              		.align	1
 1112              		.globl	USART_SendBreak
 1114              	USART_SendBreak:
 1115              	.LFB31:
 458:Drivers/src/ch32v20x_usart.c **** 
 459:Drivers/src/ch32v20x_usart.c **** /*********************************************************************
 460:Drivers/src/ch32v20x_usart.c ****  * @fn      USART_SendBreak
 461:Drivers/src/ch32v20x_usart.c ****  *
 462:Drivers/src/ch32v20x_usart.c ****  * @brief   Transmits break characters.
 463:Drivers/src/ch32v20x_usart.c ****  *
 464:Drivers/src/ch32v20x_usart.c ****  * @param   USARTx - where x can be 1, 2, 3 to select the USART peripheral.
 465:Drivers/src/ch32v20x_usart.c ****  *
 466:Drivers/src/ch32v20x_usart.c ****  * @return  none
 467:Drivers/src/ch32v20x_usart.c ****  */
 468:Drivers/src/ch32v20x_usart.c **** void USART_SendBreak(USART_TypeDef *USARTx)
 469:Drivers/src/ch32v20x_usart.c **** {
 1116              		.loc 1 469 1
 1117              		.cfi_startproc
 1118 0000 0111     		addi	sp,sp,-32
 1119              		.cfi_def_cfa_offset 32
 1120 0002 22CE     		sw	s0,28(sp)
 1121              		.cfi_offset 8, -4
 1122 0004 0010     		addi	s0,sp,32
 1123              		.cfi_def_cfa 8, 0
 1124 0006 2326A4FE 		sw	a0,-20(s0)
GAS LISTING C:\Users\SOLDER~1\AppData\Local\Temp\ccheWc1y.s 			page 29


 470:Drivers/src/ch32v20x_usart.c ****     USARTx->CTLR1 |= CTLR1_SBK_Set;
 1125              		.loc 1 470 11
 1126 000a 8327C4FE 		lw	a5,-20(s0)
 1127 000e DE27     		lhu	a5,12(a5)
 1128 0010 C207     		slli	a5,a5,16
 1129 0012 C183     		srli	a5,a5,16
 1130              		.loc 1 470 19
 1131 0014 93E71700 		ori	a5,a5,1
 1132 0018 13970701 		slli	a4,a5,16
 1133 001c 4183     		srli	a4,a4,16
 1134 001e 8327C4FE 		lw	a5,-20(s0)
 1135 0022 DAA7     		sh	a4,12(a5)
 471:Drivers/src/ch32v20x_usart.c **** }
 1136              		.loc 1 471 1
 1137 0024 0100     		nop
 1138 0026 7244     		lw	s0,28(sp)
 1139              		.cfi_restore 8
 1140              		.cfi_def_cfa 2, 32
 1141 0028 0561     		addi	sp,sp,32
 1142              		.cfi_def_cfa_offset 0
 1143 002a 8280     		jr	ra
 1144              		.cfi_endproc
 1145              	.LFE31:
 1147              		.section	.text.USART_SetGuardTime,"ax",@progbits
 1148              		.align	1
 1149              		.globl	USART_SetGuardTime
 1151              	USART_SetGuardTime:
 1152              	.LFB32:
 472:Drivers/src/ch32v20x_usart.c **** 
 473:Drivers/src/ch32v20x_usart.c **** /*********************************************************************
 474:Drivers/src/ch32v20x_usart.c ****  * @fn      USART_SetGuardTime
 475:Drivers/src/ch32v20x_usart.c ****  *
 476:Drivers/src/ch32v20x_usart.c ****  * @brief   Sets the specified USART guard time.
 477:Drivers/src/ch32v20x_usart.c ****  *
 478:Drivers/src/ch32v20x_usart.c ****  * @param   USARTx - where x can be 1, 2, 3 to select the USART peripheral.
 479:Drivers/src/ch32v20x_usart.c ****  *          USART_GuardTime - specifies the guard time.
 480:Drivers/src/ch32v20x_usart.c ****  *
 481:Drivers/src/ch32v20x_usart.c ****  * @return  none
 482:Drivers/src/ch32v20x_usart.c ****  */
 483:Drivers/src/ch32v20x_usart.c **** void USART_SetGuardTime(USART_TypeDef *USARTx, uint8_t USART_GuardTime)
 484:Drivers/src/ch32v20x_usart.c **** {
 1153              		.loc 1 484 1
 1154              		.cfi_startproc
 1155 0000 0111     		addi	sp,sp,-32
 1156              		.cfi_def_cfa_offset 32
 1157 0002 22CE     		sw	s0,28(sp)
 1158              		.cfi_offset 8, -4
 1159 0004 0010     		addi	s0,sp,32
 1160              		.cfi_def_cfa 8, 0
 1161 0006 2326A4FE 		sw	a0,-20(s0)
 1162 000a AE87     		mv	a5,a1
 1163 000c A305F4FE 		sb	a5,-21(s0)
 485:Drivers/src/ch32v20x_usart.c ****     USARTx->GPR &= GPR_LSB_Mask;
 1164              		.loc 1 485 11
 1165 0010 8327C4FE 		lw	a5,-20(s0)
 1166 0014 9E2F     		lhu	a5,24(a5)
 1167 0016 C207     		slli	a5,a5,16
GAS LISTING C:\Users\SOLDER~1\AppData\Local\Temp\ccheWc1y.s 			page 30


 1168 0018 C183     		srli	a5,a5,16
 1169              		.loc 1 485 17
 1170 001a 93F7F70F 		andi	a5,a5,255
 1171 001e 13970701 		slli	a4,a5,16
 1172 0022 4183     		srli	a4,a4,16
 1173 0024 8327C4FE 		lw	a5,-20(s0)
 1174 0028 9AAF     		sh	a4,24(a5)
 486:Drivers/src/ch32v20x_usart.c ****     USARTx->GPR |= (uint16_t)((uint16_t)USART_GuardTime << 0x08);
 1175              		.loc 1 486 11
 1176 002a 8327C4FE 		lw	a5,-20(s0)
 1177 002e 9E2F     		lhu	a5,24(a5)
 1178 0030 13970701 		slli	a4,a5,16
 1179 0034 4183     		srli	a4,a4,16
 1180              		.loc 1 486 20
 1181 0036 8347B4FE 		lbu	a5,-21(s0)
 1182 003a C207     		slli	a5,a5,16
 1183 003c C183     		srli	a5,a5,16
 1184 003e A207     		slli	a5,a5,8
 1185 0040 C207     		slli	a5,a5,16
 1186 0042 C183     		srli	a5,a5,16
 1187              		.loc 1 486 17
 1188 0044 D98F     		or	a5,a4,a5
 1189 0046 13970701 		slli	a4,a5,16
 1190 004a 4183     		srli	a4,a4,16
 1191 004c 8327C4FE 		lw	a5,-20(s0)
 1192 0050 9AAF     		sh	a4,24(a5)
 487:Drivers/src/ch32v20x_usart.c **** }
 1193              		.loc 1 487 1
 1194 0052 0100     		nop
 1195 0054 7244     		lw	s0,28(sp)
 1196              		.cfi_restore 8
 1197              		.cfi_def_cfa 2, 32
 1198 0056 0561     		addi	sp,sp,32
 1199              		.cfi_def_cfa_offset 0
 1200 0058 8280     		jr	ra
 1201              		.cfi_endproc
 1202              	.LFE32:
 1204              		.section	.text.USART_SetPrescaler,"ax",@progbits
 1205              		.align	1
 1206              		.globl	USART_SetPrescaler
 1208              	USART_SetPrescaler:
 1209              	.LFB33:
 488:Drivers/src/ch32v20x_usart.c **** 
 489:Drivers/src/ch32v20x_usart.c **** /*********************************************************************
 490:Drivers/src/ch32v20x_usart.c ****  * @fn      USART_SetPrescaler
 491:Drivers/src/ch32v20x_usart.c ****  *
 492:Drivers/src/ch32v20x_usart.c ****  * @brief   Sets the system clock prescaler.
 493:Drivers/src/ch32v20x_usart.c ****  *
 494:Drivers/src/ch32v20x_usart.c ****  * @param   USARTx - where x can be 1, 2, 3 to select the USART peripheral.
 495:Drivers/src/ch32v20x_usart.c ****  *          USART_Prescaler - specifies the prescaler clock.
 496:Drivers/src/ch32v20x_usart.c ****  *
 497:Drivers/src/ch32v20x_usart.c ****  * @return  none
 498:Drivers/src/ch32v20x_usart.c ****  */
 499:Drivers/src/ch32v20x_usart.c **** void USART_SetPrescaler(USART_TypeDef *USARTx, uint8_t USART_Prescaler)
 500:Drivers/src/ch32v20x_usart.c **** {
 1210              		.loc 1 500 1
 1211              		.cfi_startproc
GAS LISTING C:\Users\SOLDER~1\AppData\Local\Temp\ccheWc1y.s 			page 31


 1212 0000 0111     		addi	sp,sp,-32
 1213              		.cfi_def_cfa_offset 32
 1214 0002 22CE     		sw	s0,28(sp)
 1215              		.cfi_offset 8, -4
 1216 0004 0010     		addi	s0,sp,32
 1217              		.cfi_def_cfa 8, 0
 1218 0006 2326A4FE 		sw	a0,-20(s0)
 1219 000a AE87     		mv	a5,a1
 1220 000c A305F4FE 		sb	a5,-21(s0)
 501:Drivers/src/ch32v20x_usart.c ****     USARTx->GPR &= GPR_MSB_Mask;
 1221              		.loc 1 501 11
 1222 0010 8327C4FE 		lw	a5,-20(s0)
 1223 0014 9E2F     		lhu	a5,24(a5)
 1224 0016 C207     		slli	a5,a5,16
 1225 0018 C183     		srli	a5,a5,16
 1226              		.loc 1 501 17
 1227 001a 93F707F0 		andi	a5,a5,-256
 1228 001e 13970701 		slli	a4,a5,16
 1229 0022 4183     		srli	a4,a4,16
 1230 0024 8327C4FE 		lw	a5,-20(s0)
 1231 0028 9AAF     		sh	a4,24(a5)
 502:Drivers/src/ch32v20x_usart.c ****     USARTx->GPR |= USART_Prescaler;
 1232              		.loc 1 502 11
 1233 002a 8327C4FE 		lw	a5,-20(s0)
 1234 002e 9E2F     		lhu	a5,24(a5)
 1235 0030 13970701 		slli	a4,a5,16
 1236 0034 4183     		srli	a4,a4,16
 1237              		.loc 1 502 17
 1238 0036 8347B4FE 		lbu	a5,-21(s0)
 1239 003a C207     		slli	a5,a5,16
 1240 003c C183     		srli	a5,a5,16
 1241 003e D98F     		or	a5,a4,a5
 1242 0040 13970701 		slli	a4,a5,16
 1243 0044 4183     		srli	a4,a4,16
 1244 0046 8327C4FE 		lw	a5,-20(s0)
 1245 004a 9AAF     		sh	a4,24(a5)
 503:Drivers/src/ch32v20x_usart.c **** }
 1246              		.loc 1 503 1
 1247 004c 0100     		nop
 1248 004e 7244     		lw	s0,28(sp)
 1249              		.cfi_restore 8
 1250              		.cfi_def_cfa 2, 32
 1251 0050 0561     		addi	sp,sp,32
 1252              		.cfi_def_cfa_offset 0
 1253 0052 8280     		jr	ra
 1254              		.cfi_endproc
 1255              	.LFE33:
 1257              		.section	.text.USART_SmartCardCmd,"ax",@progbits
 1258              		.align	1
 1259              		.globl	USART_SmartCardCmd
 1261              	USART_SmartCardCmd:
 1262              	.LFB34:
 504:Drivers/src/ch32v20x_usart.c **** 
 505:Drivers/src/ch32v20x_usart.c **** /*********************************************************************
 506:Drivers/src/ch32v20x_usart.c ****  * @fn      USART_SmartCardCmd
 507:Drivers/src/ch32v20x_usart.c ****  *
 508:Drivers/src/ch32v20x_usart.c ****  * @brief   Enables or disables the USART Smart Card mode.
GAS LISTING C:\Users\SOLDER~1\AppData\Local\Temp\ccheWc1y.s 			page 32


 509:Drivers/src/ch32v20x_usart.c ****  *
 510:Drivers/src/ch32v20x_usart.c ****  * @param   USARTx - where x can be 1, 2, 3 to select the USART peripheral.
 511:Drivers/src/ch32v20x_usart.c ****  *          NewState - ENABLE or DISABLE.
 512:Drivers/src/ch32v20x_usart.c ****  *
 513:Drivers/src/ch32v20x_usart.c ****  * @return  none
 514:Drivers/src/ch32v20x_usart.c ****  */
 515:Drivers/src/ch32v20x_usart.c **** void USART_SmartCardCmd(USART_TypeDef *USARTx, FunctionalState NewState)
 516:Drivers/src/ch32v20x_usart.c **** {
 1263              		.loc 1 516 1
 1264              		.cfi_startproc
 1265 0000 0111     		addi	sp,sp,-32
 1266              		.cfi_def_cfa_offset 32
 1267 0002 22CE     		sw	s0,28(sp)
 1268              		.cfi_offset 8, -4
 1269 0004 0010     		addi	s0,sp,32
 1270              		.cfi_def_cfa 8, 0
 1271 0006 2326A4FE 		sw	a0,-20(s0)
 1272 000a 2324B4FE 		sw	a1,-24(s0)
 517:Drivers/src/ch32v20x_usart.c ****     if(NewState != DISABLE)
 1273              		.loc 1 517 7
 1274 000e 832784FE 		lw	a5,-24(s0)
 1275 0012 99CF     		beq	a5,zero,.L50
 518:Drivers/src/ch32v20x_usart.c ****     {
 519:Drivers/src/ch32v20x_usart.c ****         USARTx->CTLR3 |= CTLR3_SCEN_Set;
 1276              		.loc 1 519 15
 1277 0014 8327C4FE 		lw	a5,-20(s0)
 1278 0018 DE2B     		lhu	a5,20(a5)
 1279 001a C207     		slli	a5,a5,16
 1280 001c C183     		srli	a5,a5,16
 1281              		.loc 1 519 23
 1282 001e 93E70702 		ori	a5,a5,32
 1283 0022 13970701 		slli	a4,a5,16
 1284 0026 4183     		srli	a4,a4,16
 1285 0028 8327C4FE 		lw	a5,-20(s0)
 1286 002c DAAB     		sh	a4,20(a5)
 520:Drivers/src/ch32v20x_usart.c ****     }
 521:Drivers/src/ch32v20x_usart.c ****     else
 522:Drivers/src/ch32v20x_usart.c ****     {
 523:Drivers/src/ch32v20x_usart.c ****         USARTx->CTLR3 &= CTLR3_SCEN_Reset;
 524:Drivers/src/ch32v20x_usart.c ****     }
 525:Drivers/src/ch32v20x_usart.c **** }
 1287              		.loc 1 525 1
 1288 002e 31A8     		j	.L52
 1289              	.L50:
 523:Drivers/src/ch32v20x_usart.c ****     }
 1290              		.loc 1 523 15
 1291 0030 8327C4FE 		lw	a5,-20(s0)
 1292 0034 DE2B     		lhu	a5,20(a5)
 1293 0036 C207     		slli	a5,a5,16
 1294 0038 C183     		srli	a5,a5,16
 523:Drivers/src/ch32v20x_usart.c ****     }
 1295              		.loc 1 523 23
 1296 003a 93F7F7FD 		andi	a5,a5,-33
 1297 003e 13970701 		slli	a4,a5,16
 1298 0042 4183     		srli	a4,a4,16
 1299 0044 8327C4FE 		lw	a5,-20(s0)
 1300 0048 DAAB     		sh	a4,20(a5)
GAS LISTING C:\Users\SOLDER~1\AppData\Local\Temp\ccheWc1y.s 			page 33


 1301              	.L52:
 1302              		.loc 1 525 1
 1303 004a 0100     		nop
 1304 004c 7244     		lw	s0,28(sp)
 1305              		.cfi_restore 8
 1306              		.cfi_def_cfa 2, 32
 1307 004e 0561     		addi	sp,sp,32
 1308              		.cfi_def_cfa_offset 0
 1309 0050 8280     		jr	ra
 1310              		.cfi_endproc
 1311              	.LFE34:
 1313              		.section	.text.USART_SmartCardNACKCmd,"ax",@progbits
 1314              		.align	1
 1315              		.globl	USART_SmartCardNACKCmd
 1317              	USART_SmartCardNACKCmd:
 1318              	.LFB35:
 526:Drivers/src/ch32v20x_usart.c **** 
 527:Drivers/src/ch32v20x_usart.c **** /*********************************************************************
 528:Drivers/src/ch32v20x_usart.c ****  * @fn      USART_SmartCardNACKCmd
 529:Drivers/src/ch32v20x_usart.c ****  *
 530:Drivers/src/ch32v20x_usart.c ****  * @brief   Enables or disables NACK transmission.
 531:Drivers/src/ch32v20x_usart.c ****  *
 532:Drivers/src/ch32v20x_usart.c ****  * @param   USARTx - where x can be 1, 2, 3 to select the USART peripheral.
 533:Drivers/src/ch32v20x_usart.c ****  *          NewState - ENABLE or DISABLE.
 534:Drivers/src/ch32v20x_usart.c ****  *
 535:Drivers/src/ch32v20x_usart.c ****  * @return  none
 536:Drivers/src/ch32v20x_usart.c ****  */
 537:Drivers/src/ch32v20x_usart.c **** void USART_SmartCardNACKCmd(USART_TypeDef *USARTx, FunctionalState NewState)
 538:Drivers/src/ch32v20x_usart.c **** {
 1319              		.loc 1 538 1
 1320              		.cfi_startproc
 1321 0000 0111     		addi	sp,sp,-32
 1322              		.cfi_def_cfa_offset 32
 1323 0002 22CE     		sw	s0,28(sp)
 1324              		.cfi_offset 8, -4
 1325 0004 0010     		addi	s0,sp,32
 1326              		.cfi_def_cfa 8, 0
 1327 0006 2326A4FE 		sw	a0,-20(s0)
 1328 000a 2324B4FE 		sw	a1,-24(s0)
 539:Drivers/src/ch32v20x_usart.c ****     if(NewState != DISABLE)
 1329              		.loc 1 539 7
 1330 000e 832784FE 		lw	a5,-24(s0)
 1331 0012 99CF     		beq	a5,zero,.L54
 540:Drivers/src/ch32v20x_usart.c ****     {
 541:Drivers/src/ch32v20x_usart.c ****         USARTx->CTLR3 |= CTLR3_NACK_Set;
 1332              		.loc 1 541 15
 1333 0014 8327C4FE 		lw	a5,-20(s0)
 1334 0018 DE2B     		lhu	a5,20(a5)
 1335 001a C207     		slli	a5,a5,16
 1336 001c C183     		srli	a5,a5,16
 1337              		.loc 1 541 23
 1338 001e 93E70701 		ori	a5,a5,16
 1339 0022 13970701 		slli	a4,a5,16
 1340 0026 4183     		srli	a4,a4,16
 1341 0028 8327C4FE 		lw	a5,-20(s0)
 1342 002c DAAB     		sh	a4,20(a5)
 542:Drivers/src/ch32v20x_usart.c ****     }
GAS LISTING C:\Users\SOLDER~1\AppData\Local\Temp\ccheWc1y.s 			page 34


 543:Drivers/src/ch32v20x_usart.c ****     else
 544:Drivers/src/ch32v20x_usart.c ****     {
 545:Drivers/src/ch32v20x_usart.c ****         USARTx->CTLR3 &= CTLR3_NACK_Reset;
 546:Drivers/src/ch32v20x_usart.c ****     }
 547:Drivers/src/ch32v20x_usart.c **** }
 1343              		.loc 1 547 1
 1344 002e 29A8     		j	.L56
 1345              	.L54:
 545:Drivers/src/ch32v20x_usart.c ****     }
 1346              		.loc 1 545 15
 1347 0030 8327C4FE 		lw	a5,-20(s0)
 1348 0034 DE2B     		lhu	a5,20(a5)
 1349 0036 C207     		slli	a5,a5,16
 1350 0038 C183     		srli	a5,a5,16
 545:Drivers/src/ch32v20x_usart.c ****     }
 1351              		.loc 1 545 23
 1352 003a BD9B     		andi	a5,a5,-17
 1353 003c 13970701 		slli	a4,a5,16
 1354 0040 4183     		srli	a4,a4,16
 1355 0042 8327C4FE 		lw	a5,-20(s0)
 1356 0046 DAAB     		sh	a4,20(a5)
 1357              	.L56:
 1358              		.loc 1 547 1
 1359 0048 0100     		nop
 1360 004a 7244     		lw	s0,28(sp)
 1361              		.cfi_restore 8
 1362              		.cfi_def_cfa 2, 32
 1363 004c 0561     		addi	sp,sp,32
 1364              		.cfi_def_cfa_offset 0
 1365 004e 8280     		jr	ra
 1366              		.cfi_endproc
 1367              	.LFE35:
 1369              		.section	.text.USART_HalfDuplexCmd,"ax",@progbits
 1370              		.align	1
 1371              		.globl	USART_HalfDuplexCmd
 1373              	USART_HalfDuplexCmd:
 1374              	.LFB36:
 548:Drivers/src/ch32v20x_usart.c **** 
 549:Drivers/src/ch32v20x_usart.c **** /*********************************************************************
 550:Drivers/src/ch32v20x_usart.c ****  * @fn      USART_HalfDuplexCmd
 551:Drivers/src/ch32v20x_usart.c ****  *
 552:Drivers/src/ch32v20x_usart.c ****  * @brief   Enables or disables the USART Half Duplex communication.
 553:Drivers/src/ch32v20x_usart.c ****  *
 554:Drivers/src/ch32v20x_usart.c ****  * @param   USARTx - where x can be 1, 2, 3 to select the USART peripheral.
 555:Drivers/src/ch32v20x_usart.c ****  *                  NewState - ENABLE or DISABLE.
 556:Drivers/src/ch32v20x_usart.c ****  *
 557:Drivers/src/ch32v20x_usart.c ****  * @return  none
 558:Drivers/src/ch32v20x_usart.c ****  */
 559:Drivers/src/ch32v20x_usart.c **** void USART_HalfDuplexCmd(USART_TypeDef *USARTx, FunctionalState NewState)
 560:Drivers/src/ch32v20x_usart.c **** {
 1375              		.loc 1 560 1
 1376              		.cfi_startproc
 1377 0000 0111     		addi	sp,sp,-32
 1378              		.cfi_def_cfa_offset 32
 1379 0002 22CE     		sw	s0,28(sp)
 1380              		.cfi_offset 8, -4
 1381 0004 0010     		addi	s0,sp,32
GAS LISTING C:\Users\SOLDER~1\AppData\Local\Temp\ccheWc1y.s 			page 35


 1382              		.cfi_def_cfa 8, 0
 1383 0006 2326A4FE 		sw	a0,-20(s0)
 1384 000a 2324B4FE 		sw	a1,-24(s0)
 561:Drivers/src/ch32v20x_usart.c ****     if(NewState != DISABLE)
 1385              		.loc 1 561 7
 1386 000e 832784FE 		lw	a5,-24(s0)
 1387 0012 99CF     		beq	a5,zero,.L58
 562:Drivers/src/ch32v20x_usart.c ****     {
 563:Drivers/src/ch32v20x_usart.c ****         USARTx->CTLR3 |= CTLR3_HDSEL_Set;
 1388              		.loc 1 563 15
 1389 0014 8327C4FE 		lw	a5,-20(s0)
 1390 0018 DE2B     		lhu	a5,20(a5)
 1391 001a C207     		slli	a5,a5,16
 1392 001c C183     		srli	a5,a5,16
 1393              		.loc 1 563 23
 1394 001e 93E78700 		ori	a5,a5,8
 1395 0022 13970701 		slli	a4,a5,16
 1396 0026 4183     		srli	a4,a4,16
 1397 0028 8327C4FE 		lw	a5,-20(s0)
 1398 002c DAAB     		sh	a4,20(a5)
 564:Drivers/src/ch32v20x_usart.c ****     }
 565:Drivers/src/ch32v20x_usart.c ****     else
 566:Drivers/src/ch32v20x_usart.c ****     {
 567:Drivers/src/ch32v20x_usart.c ****         USARTx->CTLR3 &= CTLR3_HDSEL_Reset;
 568:Drivers/src/ch32v20x_usart.c ****     }
 569:Drivers/src/ch32v20x_usart.c **** }
 1399              		.loc 1 569 1
 1400 002e 29A8     		j	.L60
 1401              	.L58:
 567:Drivers/src/ch32v20x_usart.c ****     }
 1402              		.loc 1 567 15
 1403 0030 8327C4FE 		lw	a5,-20(s0)
 1404 0034 DE2B     		lhu	a5,20(a5)
 1405 0036 C207     		slli	a5,a5,16
 1406 0038 C183     		srli	a5,a5,16
 567:Drivers/src/ch32v20x_usart.c ****     }
 1407              		.loc 1 567 23
 1408 003a DD9B     		andi	a5,a5,-9
 1409 003c 13970701 		slli	a4,a5,16
 1410 0040 4183     		srli	a4,a4,16
 1411 0042 8327C4FE 		lw	a5,-20(s0)
 1412 0046 DAAB     		sh	a4,20(a5)
 1413              	.L60:
 1414              		.loc 1 569 1
 1415 0048 0100     		nop
 1416 004a 7244     		lw	s0,28(sp)
 1417              		.cfi_restore 8
 1418              		.cfi_def_cfa 2, 32
 1419 004c 0561     		addi	sp,sp,32
 1420              		.cfi_def_cfa_offset 0
 1421 004e 8280     		jr	ra
 1422              		.cfi_endproc
 1423              	.LFE36:
 1425              		.section	.text.USART_OverSampling8Cmd,"ax",@progbits
 1426              		.align	1
 1427              		.globl	USART_OverSampling8Cmd
 1429              	USART_OverSampling8Cmd:
GAS LISTING C:\Users\SOLDER~1\AppData\Local\Temp\ccheWc1y.s 			page 36


 1430              	.LFB37:
 570:Drivers/src/ch32v20x_usart.c **** 
 571:Drivers/src/ch32v20x_usart.c **** /*********************************************************************
 572:Drivers/src/ch32v20x_usart.c ****  * @fn      USART_OverSampling8Cmd
 573:Drivers/src/ch32v20x_usart.c ****  *
 574:Drivers/src/ch32v20x_usart.c ****  * @brief   Enables or disables the USART's 8x oversampling mode.
 575:Drivers/src/ch32v20x_usart.c ****  *
 576:Drivers/src/ch32v20x_usart.c ****  * @param   USARTx - where x can be 1, 2, 3 to select the USART peripheral.
 577:Drivers/src/ch32v20x_usart.c ****  *          NewState - ENABLE or DISABLE.
 578:Drivers/src/ch32v20x_usart.c ****  *          Note-
 579:Drivers/src/ch32v20x_usart.c ****  *          This function has to be called before calling USART_Init()
 580:Drivers/src/ch32v20x_usart.c ****  *          function in order to have correct baudrate Divider value. 
 581:Drivers/src/ch32v20x_usart.c ****  * @return  none
 582:Drivers/src/ch32v20x_usart.c ****  */
 583:Drivers/src/ch32v20x_usart.c **** void USART_OverSampling8Cmd(USART_TypeDef *USARTx, FunctionalState NewState)
 584:Drivers/src/ch32v20x_usart.c **** {
 1431              		.loc 1 584 1
 1432              		.cfi_startproc
 1433 0000 0111     		addi	sp,sp,-32
 1434              		.cfi_def_cfa_offset 32
 1435 0002 22CE     		sw	s0,28(sp)
 1436              		.cfi_offset 8, -4
 1437 0004 0010     		addi	s0,sp,32
 1438              		.cfi_def_cfa 8, 0
 1439 0006 2326A4FE 		sw	a0,-20(s0)
 1440 000a 2324B4FE 		sw	a1,-24(s0)
 585:Drivers/src/ch32v20x_usart.c ****     if(NewState != DISABLE)
 1441              		.loc 1 585 7
 1442 000e 832784FE 		lw	a5,-24(s0)
 1443 0012 85C3     		beq	a5,zero,.L62
 586:Drivers/src/ch32v20x_usart.c ****     {
 587:Drivers/src/ch32v20x_usart.c ****         USARTx->CTLR1 |= CTLR1_OVER8_Set;
 1444              		.loc 1 587 15
 1445 0014 8327C4FE 		lw	a5,-20(s0)
 1446 0018 DE27     		lhu	a5,12(a5)
 1447 001a 13970701 		slli	a4,a5,16
 1448 001e 4183     		srli	a4,a4,16
 1449              		.loc 1 587 23
 1450 0020 E177     		li	a5,-32768
 1451 0022 D98F     		or	a5,a4,a5
 1452 0024 13970701 		slli	a4,a5,16
 1453 0028 4183     		srli	a4,a4,16
 1454 002a 8327C4FE 		lw	a5,-20(s0)
 1455 002e DAA7     		sh	a4,12(a5)
 588:Drivers/src/ch32v20x_usart.c ****     }
 589:Drivers/src/ch32v20x_usart.c ****     else
 590:Drivers/src/ch32v20x_usart.c ****     {
 591:Drivers/src/ch32v20x_usart.c ****         USARTx->CTLR1 &= CTLR1_OVER8_Reset;
 592:Drivers/src/ch32v20x_usart.c ****     }
 593:Drivers/src/ch32v20x_usart.c **** }
 1456              		.loc 1 593 1
 1457 0030 05A0     		j	.L64
 1458              	.L62:
 591:Drivers/src/ch32v20x_usart.c ****     }
 1459              		.loc 1 591 15
 1460 0032 8327C4FE 		lw	a5,-20(s0)
 1461 0036 DE27     		lhu	a5,12(a5)
GAS LISTING C:\Users\SOLDER~1\AppData\Local\Temp\ccheWc1y.s 			page 37


 1462 0038 13970701 		slli	a4,a5,16
 1463 003c 4183     		srli	a4,a4,16
 591:Drivers/src/ch32v20x_usart.c ****     }
 1464              		.loc 1 591 23
 1465 003e A167     		li	a5,32768
 1466 0040 FD17     		addi	a5,a5,-1
 1467 0042 F98F     		and	a5,a4,a5
 1468 0044 13970701 		slli	a4,a5,16
 1469 0048 4183     		srli	a4,a4,16
 1470 004a 8327C4FE 		lw	a5,-20(s0)
 1471 004e DAA7     		sh	a4,12(a5)
 1472              	.L64:
 1473              		.loc 1 593 1
 1474 0050 0100     		nop
 1475 0052 7244     		lw	s0,28(sp)
 1476              		.cfi_restore 8
 1477              		.cfi_def_cfa 2, 32
 1478 0054 0561     		addi	sp,sp,32
 1479              		.cfi_def_cfa_offset 0
 1480 0056 8280     		jr	ra
 1481              		.cfi_endproc
 1482              	.LFE37:
 1484              		.section	.text.USART_OneBitMethodCmd,"ax",@progbits
 1485              		.align	1
 1486              		.globl	USART_OneBitMethodCmd
 1488              	USART_OneBitMethodCmd:
 1489              	.LFB38:
 594:Drivers/src/ch32v20x_usart.c **** 
 595:Drivers/src/ch32v20x_usart.c **** /*********************************************************************
 596:Drivers/src/ch32v20x_usart.c ****  * @fn      USART_OneBitMethodCmd
 597:Drivers/src/ch32v20x_usart.c ****  *
 598:Drivers/src/ch32v20x_usart.c ****  * @brief   Enables or disables the USART's one bit sampling method.
 599:Drivers/src/ch32v20x_usart.c ****  *
 600:Drivers/src/ch32v20x_usart.c ****  * @param   USARTx - where x can be 1, 2, 3 to select the USART peripheral.
 601:Drivers/src/ch32v20x_usart.c ****  *          NewState - ENABLE or DISABLE.
 602:Drivers/src/ch32v20x_usart.c ****  *
 603:Drivers/src/ch32v20x_usart.c ****  * @return  none
 604:Drivers/src/ch32v20x_usart.c ****  */
 605:Drivers/src/ch32v20x_usart.c **** void USART_OneBitMethodCmd(USART_TypeDef *USARTx, FunctionalState NewState)
 606:Drivers/src/ch32v20x_usart.c **** {
 1490              		.loc 1 606 1
 1491              		.cfi_startproc
 1492 0000 0111     		addi	sp,sp,-32
 1493              		.cfi_def_cfa_offset 32
 1494 0002 22CE     		sw	s0,28(sp)
 1495              		.cfi_offset 8, -4
 1496 0004 0010     		addi	s0,sp,32
 1497              		.cfi_def_cfa 8, 0
 1498 0006 2326A4FE 		sw	a0,-20(s0)
 1499 000a 2324B4FE 		sw	a1,-24(s0)
 607:Drivers/src/ch32v20x_usart.c ****     if(NewState != DISABLE)
 1500              		.loc 1 607 7
 1501 000e 832784FE 		lw	a5,-24(s0)
 1502 0012 95C3     		beq	a5,zero,.L66
 608:Drivers/src/ch32v20x_usart.c ****     {
 609:Drivers/src/ch32v20x_usart.c ****         USARTx->CTLR3 |= CTLR3_ONEBITE_Set;
 1503              		.loc 1 609 15
GAS LISTING C:\Users\SOLDER~1\AppData\Local\Temp\ccheWc1y.s 			page 38


 1504 0014 8327C4FE 		lw	a5,-20(s0)
 1505 0018 DE2B     		lhu	a5,20(a5)
 1506 001a 13970701 		slli	a4,a5,16
 1507 001e 4183     		srli	a4,a4,16
 1508              		.loc 1 609 23
 1509 0020 8567     		li	a5,4096
 1510 0022 93870780 		addi	a5,a5,-2048
 1511 0026 D98F     		or	a5,a4,a5
 1512 0028 13970701 		slli	a4,a5,16
 1513 002c 4183     		srli	a4,a4,16
 1514 002e 8327C4FE 		lw	a5,-20(s0)
 1515 0032 DAAB     		sh	a4,20(a5)
 610:Drivers/src/ch32v20x_usart.c ****     }
 611:Drivers/src/ch32v20x_usart.c ****     else
 612:Drivers/src/ch32v20x_usart.c ****     {
 613:Drivers/src/ch32v20x_usart.c ****         USARTx->CTLR3 &= CTLR3_ONEBITE_Reset;
 614:Drivers/src/ch32v20x_usart.c ****     }
 615:Drivers/src/ch32v20x_usart.c **** }
 1516              		.loc 1 615 1
 1517 0034 0DA0     		j	.L68
 1518              	.L66:
 613:Drivers/src/ch32v20x_usart.c ****     }
 1519              		.loc 1 613 15
 1520 0036 8327C4FE 		lw	a5,-20(s0)
 1521 003a DE2B     		lhu	a5,20(a5)
 1522 003c 13970701 		slli	a4,a5,16
 1523 0040 4183     		srli	a4,a4,16
 613:Drivers/src/ch32v20x_usart.c ****     }
 1524              		.loc 1 613 23
 1525 0042 FD77     		li	a5,-4096
 1526 0044 9387F77F 		addi	a5,a5,2047
 1527 0048 F98F     		and	a5,a4,a5
 1528 004a 13970701 		slli	a4,a5,16
 1529 004e 4183     		srli	a4,a4,16
 1530 0050 8327C4FE 		lw	a5,-20(s0)
 1531 0054 DAAB     		sh	a4,20(a5)
 1532              	.L68:
 1533              		.loc 1 615 1
 1534 0056 0100     		nop
 1535 0058 7244     		lw	s0,28(sp)
 1536              		.cfi_restore 8
 1537              		.cfi_def_cfa 2, 32
 1538 005a 0561     		addi	sp,sp,32
 1539              		.cfi_def_cfa_offset 0
 1540 005c 8280     		jr	ra
 1541              		.cfi_endproc
 1542              	.LFE38:
 1544              		.section	.text.USART_IrDAConfig,"ax",@progbits
 1545              		.align	1
 1546              		.globl	USART_IrDAConfig
 1548              	USART_IrDAConfig:
 1549              	.LFB39:
 616:Drivers/src/ch32v20x_usart.c **** 
 617:Drivers/src/ch32v20x_usart.c **** /*********************************************************************
 618:Drivers/src/ch32v20x_usart.c ****  * @fn      USART_IrDAConfig
 619:Drivers/src/ch32v20x_usart.c ****  *
 620:Drivers/src/ch32v20x_usart.c ****  * @brief   Configures the USART's IrDA interface.
GAS LISTING C:\Users\SOLDER~1\AppData\Local\Temp\ccheWc1y.s 			page 39


 621:Drivers/src/ch32v20x_usart.c ****  *
 622:Drivers/src/ch32v20x_usart.c ****  * @param   USARTx - where x can be 1, 2, 3 to select the USART peripheral.
 623:Drivers/src/ch32v20x_usart.c ****  *          USART_IrDAMode - specifies the IrDA mode.
 624:Drivers/src/ch32v20x_usart.c ****  *            USART_IrDAMode_LowPower.
 625:Drivers/src/ch32v20x_usart.c ****  *            USART_IrDAMode_Normal.
 626:Drivers/src/ch32v20x_usart.c ****  *
 627:Drivers/src/ch32v20x_usart.c ****  * @return  none
 628:Drivers/src/ch32v20x_usart.c ****  */
 629:Drivers/src/ch32v20x_usart.c **** void USART_IrDAConfig(USART_TypeDef *USARTx, uint16_t USART_IrDAMode)
 630:Drivers/src/ch32v20x_usart.c **** {
 1550              		.loc 1 630 1
 1551              		.cfi_startproc
 1552 0000 0111     		addi	sp,sp,-32
 1553              		.cfi_def_cfa_offset 32
 1554 0002 22CE     		sw	s0,28(sp)
 1555              		.cfi_offset 8, -4
 1556 0004 0010     		addi	s0,sp,32
 1557              		.cfi_def_cfa 8, 0
 1558 0006 2326A4FE 		sw	a0,-20(s0)
 1559 000a AE87     		mv	a5,a1
 1560 000c 2315F4FE 		sh	a5,-22(s0)
 631:Drivers/src/ch32v20x_usart.c ****     USARTx->CTLR3 &= CTLR3_IRLP_Mask;
 1561              		.loc 1 631 11
 1562 0010 8327C4FE 		lw	a5,-20(s0)
 1563 0014 DE2B     		lhu	a5,20(a5)
 1564 0016 C207     		slli	a5,a5,16
 1565 0018 C183     		srli	a5,a5,16
 1566              		.loc 1 631 19
 1567 001a ED9B     		andi	a5,a5,-5
 1568 001c 13970701 		slli	a4,a5,16
 1569 0020 4183     		srli	a4,a4,16
 1570 0022 8327C4FE 		lw	a5,-20(s0)
 1571 0026 DAAB     		sh	a4,20(a5)
 632:Drivers/src/ch32v20x_usart.c ****     USARTx->CTLR3 |= USART_IrDAMode;
 1572              		.loc 1 632 11
 1573 0028 8327C4FE 		lw	a5,-20(s0)
 1574 002c DE2B     		lhu	a5,20(a5)
 1575 002e C207     		slli	a5,a5,16
 1576 0030 C183     		srli	a5,a5,16
 1577              		.loc 1 632 19
 1578 0032 0357A4FE 		lhu	a4,-22(s0)
 1579 0036 D98F     		or	a5,a5,a4
 1580 0038 13970701 		slli	a4,a5,16
 1581 003c 4183     		srli	a4,a4,16
 1582 003e 8327C4FE 		lw	a5,-20(s0)
 1583 0042 DAAB     		sh	a4,20(a5)
 633:Drivers/src/ch32v20x_usart.c **** }
 1584              		.loc 1 633 1
 1585 0044 0100     		nop
 1586 0046 7244     		lw	s0,28(sp)
 1587              		.cfi_restore 8
 1588              		.cfi_def_cfa 2, 32
 1589 0048 0561     		addi	sp,sp,32
 1590              		.cfi_def_cfa_offset 0
 1591 004a 8280     		jr	ra
 1592              		.cfi_endproc
 1593              	.LFE39:
GAS LISTING C:\Users\SOLDER~1\AppData\Local\Temp\ccheWc1y.s 			page 40


 1595              		.section	.text.USART_IrDACmd,"ax",@progbits
 1596              		.align	1
 1597              		.globl	USART_IrDACmd
 1599              	USART_IrDACmd:
 1600              	.LFB40:
 634:Drivers/src/ch32v20x_usart.c **** 
 635:Drivers/src/ch32v20x_usart.c **** /*********************************************************************
 636:Drivers/src/ch32v20x_usart.c ****  * @fn      USART_IrDACmd
 637:Drivers/src/ch32v20x_usart.c ****  *
 638:Drivers/src/ch32v20x_usart.c ****  * @brief   Enables or disables the USART's IrDA interface.
 639:Drivers/src/ch32v20x_usart.c ****  *
 640:Drivers/src/ch32v20x_usart.c ****  * @param   USARTx - where x can be 1, 2, 3 to select the USART peripheral.
 641:Drivers/src/ch32v20x_usart.c ****  *          NewState - ENABLE or DISABLE.
 642:Drivers/src/ch32v20x_usart.c ****  *
 643:Drivers/src/ch32v20x_usart.c ****  * @return  none
 644:Drivers/src/ch32v20x_usart.c ****  */
 645:Drivers/src/ch32v20x_usart.c **** void USART_IrDACmd(USART_TypeDef *USARTx, FunctionalState NewState)
 646:Drivers/src/ch32v20x_usart.c **** {
 1601              		.loc 1 646 1
 1602              		.cfi_startproc
 1603 0000 0111     		addi	sp,sp,-32
 1604              		.cfi_def_cfa_offset 32
 1605 0002 22CE     		sw	s0,28(sp)
 1606              		.cfi_offset 8, -4
 1607 0004 0010     		addi	s0,sp,32
 1608              		.cfi_def_cfa 8, 0
 1609 0006 2326A4FE 		sw	a0,-20(s0)
 1610 000a 2324B4FE 		sw	a1,-24(s0)
 647:Drivers/src/ch32v20x_usart.c ****     if(NewState != DISABLE)
 1611              		.loc 1 647 7
 1612 000e 832784FE 		lw	a5,-24(s0)
 1613 0012 99CF     		beq	a5,zero,.L71
 648:Drivers/src/ch32v20x_usart.c ****     {
 649:Drivers/src/ch32v20x_usart.c ****         USARTx->CTLR3 |= CTLR3_IREN_Set;
 1614              		.loc 1 649 15
 1615 0014 8327C4FE 		lw	a5,-20(s0)
 1616 0018 DE2B     		lhu	a5,20(a5)
 1617 001a C207     		slli	a5,a5,16
 1618 001c C183     		srli	a5,a5,16
 1619              		.loc 1 649 23
 1620 001e 93E72700 		ori	a5,a5,2
 1621 0022 13970701 		slli	a4,a5,16
 1622 0026 4183     		srli	a4,a4,16
 1623 0028 8327C4FE 		lw	a5,-20(s0)
 1624 002c DAAB     		sh	a4,20(a5)
 650:Drivers/src/ch32v20x_usart.c ****     }
 651:Drivers/src/ch32v20x_usart.c ****     else
 652:Drivers/src/ch32v20x_usart.c ****     {
 653:Drivers/src/ch32v20x_usart.c ****         USARTx->CTLR3 &= CTLR3_IREN_Reset;
 654:Drivers/src/ch32v20x_usart.c ****     }
 655:Drivers/src/ch32v20x_usart.c **** }
 1625              		.loc 1 655 1
 1626 002e 29A8     		j	.L73
 1627              	.L71:
 653:Drivers/src/ch32v20x_usart.c ****     }
 1628              		.loc 1 653 15
 1629 0030 8327C4FE 		lw	a5,-20(s0)
GAS LISTING C:\Users\SOLDER~1\AppData\Local\Temp\ccheWc1y.s 			page 41


 1630 0034 DE2B     		lhu	a5,20(a5)
 1631 0036 C207     		slli	a5,a5,16
 1632 0038 C183     		srli	a5,a5,16
 653:Drivers/src/ch32v20x_usart.c ****     }
 1633              		.loc 1 653 23
 1634 003a F59B     		andi	a5,a5,-3
 1635 003c 13970701 		slli	a4,a5,16
 1636 0040 4183     		srli	a4,a4,16
 1637 0042 8327C4FE 		lw	a5,-20(s0)
 1638 0046 DAAB     		sh	a4,20(a5)
 1639              	.L73:
 1640              		.loc 1 655 1
 1641 0048 0100     		nop
 1642 004a 7244     		lw	s0,28(sp)
 1643              		.cfi_restore 8
 1644              		.cfi_def_cfa 2, 32
 1645 004c 0561     		addi	sp,sp,32
 1646              		.cfi_def_cfa_offset 0
 1647 004e 8280     		jr	ra
 1648              		.cfi_endproc
 1649              	.LFE40:
 1651              		.section	.text.USART_GetFlagStatus,"ax",@progbits
 1652              		.align	1
 1653              		.globl	USART_GetFlagStatus
 1655              	USART_GetFlagStatus:
 1656              	.LFB41:
 656:Drivers/src/ch32v20x_usart.c **** 
 657:Drivers/src/ch32v20x_usart.c **** /*********************************************************************
 658:Drivers/src/ch32v20x_usart.c ****  * @fn      USART_GetFlagStatus
 659:Drivers/src/ch32v20x_usart.c ****  *
 660:Drivers/src/ch32v20x_usart.c ****  * @brief   Checks whether the specified USART flag is set or not.
 661:Drivers/src/ch32v20x_usart.c ****  *
 662:Drivers/src/ch32v20x_usart.c ****  * @param   USARTx - where x can be 1, 2, 3 to select the USART peripheral.
 663:Drivers/src/ch32v20x_usart.c ****  *          USART_FLAG - specifies the flag to check.
 664:Drivers/src/ch32v20x_usart.c ****  *            USART_FLAG_LBD - LIN Break detection flag.
 665:Drivers/src/ch32v20x_usart.c ****  *            USART_FLAG_TXE - Transmit data register empty flag.
 666:Drivers/src/ch32v20x_usart.c ****  *            USART_FLAG_TC - Transmission Complete flag.
 667:Drivers/src/ch32v20x_usart.c ****  *            USART_FLAG_RXNE - Receive data register not empty flag.
 668:Drivers/src/ch32v20x_usart.c ****  *            USART_FLAG_IDLE - Idle Line detection flag.
 669:Drivers/src/ch32v20x_usart.c ****  *            USART_FLAG_ORE - OverRun Error flag.
 670:Drivers/src/ch32v20x_usart.c ****  *            USART_FLAG_NE - Noise Error flag.
 671:Drivers/src/ch32v20x_usart.c ****  *            USART_FLAG_FE - Framing Error flag.
 672:Drivers/src/ch32v20x_usart.c ****  *            USART_FLAG_PE - Parity Error flag.
 673:Drivers/src/ch32v20x_usart.c ****  *
 674:Drivers/src/ch32v20x_usart.c ****  * @return  bitstatus: SET or RESET
 675:Drivers/src/ch32v20x_usart.c ****  */
 676:Drivers/src/ch32v20x_usart.c **** FlagStatus USART_GetFlagStatus(USART_TypeDef *USARTx, uint16_t USART_FLAG)
 677:Drivers/src/ch32v20x_usart.c **** {
 1657              		.loc 1 677 1
 1658              		.cfi_startproc
 1659 0000 7971     		addi	sp,sp,-48
 1660              		.cfi_def_cfa_offset 48
 1661 0002 22D6     		sw	s0,44(sp)
 1662              		.cfi_offset 8, -4
 1663 0004 0018     		addi	s0,sp,48
 1664              		.cfi_def_cfa 8, 0
 1665 0006 232EA4FC 		sw	a0,-36(s0)
GAS LISTING C:\Users\SOLDER~1\AppData\Local\Temp\ccheWc1y.s 			page 42


 1666 000a AE87     		mv	a5,a1
 1667 000c 231DF4FC 		sh	a5,-38(s0)
 678:Drivers/src/ch32v20x_usart.c ****     FlagStatus bitstatus = RESET;
 1668              		.loc 1 678 16
 1669 0010 232604FE 		sw	zero,-20(s0)
 679:Drivers/src/ch32v20x_usart.c **** 
 680:Drivers/src/ch32v20x_usart.c **** 
 681:Drivers/src/ch32v20x_usart.c ****     if((USARTx->STATR & USART_FLAG) != (uint16_t)RESET)
 1670              		.loc 1 681 15
 1671 0014 8327C4FD 		lw	a5,-36(s0)
 1672 0018 9E23     		lhu	a5,0(a5)
 1673 001a C207     		slli	a5,a5,16
 1674 001c C183     		srli	a5,a5,16
 1675              		.loc 1 681 37
 1676 001e 0357A4FD 		lhu	a4,-38(s0)
 1677 0022 F98F     		and	a5,a5,a4
 1678 0024 C207     		slli	a5,a5,16
 1679 0026 C183     		srli	a5,a5,16
 1680              		.loc 1 681 7
 1681 0028 89C7     		beq	a5,zero,.L75
 682:Drivers/src/ch32v20x_usart.c ****     {
 683:Drivers/src/ch32v20x_usart.c ****         bitstatus = SET;
 1682              		.loc 1 683 19
 1683 002a 8547     		li	a5,1
 1684 002c 2326F4FE 		sw	a5,-20(s0)
 1685 0030 19A0     		j	.L76
 1686              	.L75:
 684:Drivers/src/ch32v20x_usart.c ****     }
 685:Drivers/src/ch32v20x_usart.c ****     else
 686:Drivers/src/ch32v20x_usart.c ****     {
 687:Drivers/src/ch32v20x_usart.c ****         bitstatus = RESET;
 1687              		.loc 1 687 19
 1688 0032 232604FE 		sw	zero,-20(s0)
 1689              	.L76:
 688:Drivers/src/ch32v20x_usart.c ****     }
 689:Drivers/src/ch32v20x_usart.c ****     return bitstatus;
 1690              		.loc 1 689 12
 1691 0036 8327C4FE 		lw	a5,-20(s0)
 690:Drivers/src/ch32v20x_usart.c **** }
 1692              		.loc 1 690 1
 1693 003a 3E85     		mv	a0,a5
 1694 003c 3254     		lw	s0,44(sp)
 1695              		.cfi_restore 8
 1696              		.cfi_def_cfa 2, 48
 1697 003e 4561     		addi	sp,sp,48
 1698              		.cfi_def_cfa_offset 0
 1699 0040 8280     		jr	ra
 1700              		.cfi_endproc
 1701              	.LFE41:
 1703              		.section	.text.USART_ClearFlag,"ax",@progbits
 1704              		.align	1
 1705              		.globl	USART_ClearFlag
 1707              	USART_ClearFlag:
 1708              	.LFB42:
 691:Drivers/src/ch32v20x_usart.c **** 
 692:Drivers/src/ch32v20x_usart.c **** /*********************************************************************
 693:Drivers/src/ch32v20x_usart.c ****  * @fn      USART_ClearFlag
GAS LISTING C:\Users\SOLDER~1\AppData\Local\Temp\ccheWc1y.s 			page 43


 694:Drivers/src/ch32v20x_usart.c ****  *
 695:Drivers/src/ch32v20x_usart.c ****  * @brief   Clears the USARTx's pending flags.
 696:Drivers/src/ch32v20x_usart.c ****  *
 697:Drivers/src/ch32v20x_usart.c ****  * @param   USARTx - where x can be 1, 2, 3 to select the USART peripheral.
 698:Drivers/src/ch32v20x_usart.c ****  *          USART_FLAG - specifies the flag to clear.
 699:Drivers/src/ch32v20x_usart.c ****  *            USART_FLAG_LBD - LIN Break detection flag.
 700:Drivers/src/ch32v20x_usart.c ****  *            USART_FLAG_TC - Transmission Complete flag.
 701:Drivers/src/ch32v20x_usart.c ****  *            USART_FLAG_RXNE - Receive data register not empty flag.
 702:Drivers/src/ch32v20x_usart.c ****  *          Note-
 703:Drivers/src/ch32v20x_usart.c ****  *            - PE (Parity error), FE (Framing error), NE (Noise error), ORE (OverRun 
 704:Drivers/src/ch32v20x_usart.c ****  *            error) and IDLE (Idle line detected) flags are cleared by software 
 705:Drivers/src/ch32v20x_usart.c ****  *            sequence: a read operation to USART_STATR register (USART_GetFlagStatus()) 
 706:Drivers/src/ch32v20x_usart.c ****  *            followed by a read operation to USART_DATAR register (USART_ReceiveData()).
 707:Drivers/src/ch32v20x_usart.c ****  *            - RXNE flag can be also cleared by a read to the USART_DATAR register 
 708:Drivers/src/ch32v20x_usart.c ****  *            (USART_ReceiveData()).
 709:Drivers/src/ch32v20x_usart.c ****  *            - TC flag can be also cleared by software sequence: a read operation to 
 710:Drivers/src/ch32v20x_usart.c ****  *            USART_STATR register (USART_GetFlagStatus()) followed by a write operation
 711:Drivers/src/ch32v20x_usart.c ****  *            to USART_DATAR register (USART_SendData()).
 712:Drivers/src/ch32v20x_usart.c ****  *            - TXE flag is cleared only by a write to the USART_DATAR register 
 713:Drivers/src/ch32v20x_usart.c ****  *            (USART_SendData()).
 714:Drivers/src/ch32v20x_usart.c ****  * @return  none
 715:Drivers/src/ch32v20x_usart.c ****  */
 716:Drivers/src/ch32v20x_usart.c **** void USART_ClearFlag(USART_TypeDef *USARTx, uint16_t USART_FLAG)
 717:Drivers/src/ch32v20x_usart.c **** {
 1709              		.loc 1 717 1
 1710              		.cfi_startproc
 1711 0000 0111     		addi	sp,sp,-32
 1712              		.cfi_def_cfa_offset 32
 1713 0002 22CE     		sw	s0,28(sp)
 1714              		.cfi_offset 8, -4
 1715 0004 0010     		addi	s0,sp,32
 1716              		.cfi_def_cfa 8, 0
 1717 0006 2326A4FE 		sw	a0,-20(s0)
 1718 000a AE87     		mv	a5,a1
 1719 000c 2315F4FE 		sh	a5,-22(s0)
 718:Drivers/src/ch32v20x_usart.c **** 
 719:Drivers/src/ch32v20x_usart.c ****     USARTx->STATR = (uint16_t)~USART_FLAG;
 1720              		.loc 1 719 21
 1721 0010 8357A4FE 		lhu	a5,-22(s0)
 1722 0014 93C7F7FF 		not	a5,a5
 1723 0018 13970701 		slli	a4,a5,16
 1724 001c 4183     		srli	a4,a4,16
 1725              		.loc 1 719 19
 1726 001e 8327C4FE 		lw	a5,-20(s0)
 1727 0022 9AA3     		sh	a4,0(a5)
 720:Drivers/src/ch32v20x_usart.c **** }
 1728              		.loc 1 720 1
 1729 0024 0100     		nop
 1730 0026 7244     		lw	s0,28(sp)
 1731              		.cfi_restore 8
 1732              		.cfi_def_cfa 2, 32
 1733 0028 0561     		addi	sp,sp,32
 1734              		.cfi_def_cfa_offset 0
 1735 002a 8280     		jr	ra
 1736              		.cfi_endproc
 1737              	.LFE42:
 1739              		.section	.text.USART_GetITStatus,"ax",@progbits
GAS LISTING C:\Users\SOLDER~1\AppData\Local\Temp\ccheWc1y.s 			page 44


 1740              		.align	1
 1741              		.globl	USART_GetITStatus
 1743              	USART_GetITStatus:
 1744              	.LFB43:
 721:Drivers/src/ch32v20x_usart.c **** 
 722:Drivers/src/ch32v20x_usart.c **** /*********************************************************************
 723:Drivers/src/ch32v20x_usart.c ****  * @fn      USART_GetITStatus
 724:Drivers/src/ch32v20x_usart.c ****  *
 725:Drivers/src/ch32v20x_usart.c ****  * @brief   Checks whether the specified USART interrupt has occurred or not.
 726:Drivers/src/ch32v20x_usart.c ****  *
 727:Drivers/src/ch32v20x_usart.c ****  * @param   USARTx - where x can be 1, 2, 3 to select the USART peripheral.
 728:Drivers/src/ch32v20x_usart.c ****  *          USART_IT - specifies the USART interrupt source to check.
 729:Drivers/src/ch32v20x_usart.c ****  *            USART_IT_LBD - LIN Break detection interrupt.
 730:Drivers/src/ch32v20x_usart.c ****  *            USART_IT_TXE - Tansmit Data Register empty interrupt.
 731:Drivers/src/ch32v20x_usart.c ****  *            USART_IT_TC - Transmission complete interrupt.
 732:Drivers/src/ch32v20x_usart.c ****  *            USART_IT_RXNE - Receive Data register not empty interrupt.
 733:Drivers/src/ch32v20x_usart.c ****  *            USART_IT_IDLE - Idle line detection interrupt.
 734:Drivers/src/ch32v20x_usart.c ****  *            USART_IT_ORE_RX - OverRun Error interrupt if the RXNEIE bit is set.
 735:Drivers/src/ch32v20x_usart.c ****  *            USART_IT_ORE_ER - OverRun Error interrupt if the EIE bit is set.
 736:Drivers/src/ch32v20x_usart.c ****  *            USART_IT_NE - Noise Error interrupt.
 737:Drivers/src/ch32v20x_usart.c ****  *            USART_IT_FE - Framing Error interrupt.
 738:Drivers/src/ch32v20x_usart.c ****  *            USART_IT_PE - Parity Error interrupt.
 739:Drivers/src/ch32v20x_usart.c ****  *
 740:Drivers/src/ch32v20x_usart.c ****  * @return  bitstatus: SET or RESET.
 741:Drivers/src/ch32v20x_usart.c ****  */
 742:Drivers/src/ch32v20x_usart.c **** ITStatus USART_GetITStatus(USART_TypeDef *USARTx, uint16_t USART_IT)
 743:Drivers/src/ch32v20x_usart.c **** {
 1745              		.loc 1 743 1
 1746              		.cfi_startproc
 1747 0000 7971     		addi	sp,sp,-48
 1748              		.cfi_def_cfa_offset 48
 1749 0002 22D6     		sw	s0,44(sp)
 1750              		.cfi_offset 8, -4
 1751 0004 0018     		addi	s0,sp,48
 1752              		.cfi_def_cfa 8, 0
 1753 0006 232EA4FC 		sw	a0,-36(s0)
 1754 000a AE87     		mv	a5,a1
 1755 000c 231DF4FC 		sh	a5,-38(s0)
 744:Drivers/src/ch32v20x_usart.c ****     uint32_t bitpos = 0x00, itmask = 0x00, usartreg = 0x00;
 1756              		.loc 1 744 14
 1757 0010 232204FE 		sw	zero,-28(s0)
 1758              		.loc 1 744 29
 1759 0014 232604FE 		sw	zero,-20(s0)
 1760              		.loc 1 744 44
 1761 0018 232004FE 		sw	zero,-32(s0)
 745:Drivers/src/ch32v20x_usart.c ****     ITStatus bitstatus = RESET;
 1762              		.loc 1 745 14
 1763 001c 232404FE 		sw	zero,-24(s0)
 746:Drivers/src/ch32v20x_usart.c **** 
 747:Drivers/src/ch32v20x_usart.c ****     usartreg = (((uint8_t)USART_IT) >> 0x05);
 1764              		.loc 1 747 18
 1765 0020 8357A4FD 		lhu	a5,-38(s0)
 1766 0024 93F7F70F 		andi	a5,a5,0xff
 1767              		.loc 1 747 37
 1768 0028 9583     		srli	a5,a5,5
 1769 002a 93F7F70F 		andi	a5,a5,0xff
 1770              		.loc 1 747 14
GAS LISTING C:\Users\SOLDER~1\AppData\Local\Temp\ccheWc1y.s 			page 45


 1771 002e 2320F4FE 		sw	a5,-32(s0)
 748:Drivers/src/ch32v20x_usart.c ****     itmask = USART_IT & IT_Mask;
 1772              		.loc 1 748 23
 1773 0032 8357A4FD 		lhu	a5,-38(s0)
 1774              		.loc 1 748 12
 1775 0036 FD8B     		andi	a5,a5,31
 1776 0038 2326F4FE 		sw	a5,-20(s0)
 749:Drivers/src/ch32v20x_usart.c ****     itmask = (uint32_t)0x01 << itmask;
 1777              		.loc 1 749 12
 1778 003c 8327C4FE 		lw	a5,-20(s0)
 1779 0040 0547     		li	a4,1
 1780 0042 B317F700 		sll	a5,a4,a5
 1781 0046 2326F4FE 		sw	a5,-20(s0)
 750:Drivers/src/ch32v20x_usart.c **** 
 751:Drivers/src/ch32v20x_usart.c ****     if(usartreg == 0x01)
 1782              		.loc 1 751 7
 1783 004a 032704FE 		lw	a4,-32(s0)
 1784 004e 8547     		li	a5,1
 1785 0050 631EF700 		bne	a4,a5,.L80
 752:Drivers/src/ch32v20x_usart.c ****     {
 753:Drivers/src/ch32v20x_usart.c ****         itmask &= USARTx->CTLR1;
 1786              		.loc 1 753 25
 1787 0054 8327C4FD 		lw	a5,-36(s0)
 1788 0058 DE27     		lhu	a5,12(a5)
 1789 005a C207     		slli	a5,a5,16
 1790 005c C183     		srli	a5,a5,16
 1791 005e 3E87     		mv	a4,a5
 1792              		.loc 1 753 16
 1793 0060 8327C4FE 		lw	a5,-20(s0)
 1794 0064 F98F     		and	a5,a5,a4
 1795 0066 2326F4FE 		sw	a5,-20(s0)
 1796 006a 2DA8     		j	.L81
 1797              	.L80:
 754:Drivers/src/ch32v20x_usart.c ****     }
 755:Drivers/src/ch32v20x_usart.c ****     else if(usartreg == 0x02)
 1798              		.loc 1 755 12
 1799 006c 032704FE 		lw	a4,-32(s0)
 1800 0070 8947     		li	a5,2
 1801 0072 631EF700 		bne	a4,a5,.L82
 756:Drivers/src/ch32v20x_usart.c ****     {
 757:Drivers/src/ch32v20x_usart.c ****         itmask &= USARTx->CTLR2;
 1802              		.loc 1 757 25
 1803 0076 8327C4FD 		lw	a5,-36(s0)
 1804 007a 9E2B     		lhu	a5,16(a5)
 1805 007c C207     		slli	a5,a5,16
 1806 007e C183     		srli	a5,a5,16
 1807 0080 3E87     		mv	a4,a5
 1808              		.loc 1 757 16
 1809 0082 8327C4FE 		lw	a5,-20(s0)
 1810 0086 F98F     		and	a5,a5,a4
 1811 0088 2326F4FE 		sw	a5,-20(s0)
 1812 008c 21A8     		j	.L81
 1813              	.L82:
 758:Drivers/src/ch32v20x_usart.c ****     }
 759:Drivers/src/ch32v20x_usart.c ****     else
 760:Drivers/src/ch32v20x_usart.c ****     {
 761:Drivers/src/ch32v20x_usart.c ****         itmask &= USARTx->CTLR3;
GAS LISTING C:\Users\SOLDER~1\AppData\Local\Temp\ccheWc1y.s 			page 46


 1814              		.loc 1 761 25
 1815 008e 8327C4FD 		lw	a5,-36(s0)
 1816 0092 DE2B     		lhu	a5,20(a5)
 1817 0094 C207     		slli	a5,a5,16
 1818 0096 C183     		srli	a5,a5,16
 1819 0098 3E87     		mv	a4,a5
 1820              		.loc 1 761 16
 1821 009a 8327C4FE 		lw	a5,-20(s0)
 1822 009e F98F     		and	a5,a5,a4
 1823 00a0 2326F4FE 		sw	a5,-20(s0)
 1824              	.L81:
 762:Drivers/src/ch32v20x_usart.c ****     }
 763:Drivers/src/ch32v20x_usart.c **** 
 764:Drivers/src/ch32v20x_usart.c ****     bitpos = USART_IT >> 0x08;
 1825              		.loc 1 764 23
 1826 00a4 8357A4FD 		lhu	a5,-38(s0)
 1827 00a8 A183     		srli	a5,a5,8
 1828 00aa C207     		slli	a5,a5,16
 1829 00ac C183     		srli	a5,a5,16
 1830              		.loc 1 764 12
 1831 00ae 2322F4FE 		sw	a5,-28(s0)
 765:Drivers/src/ch32v20x_usart.c ****     bitpos = (uint32_t)0x01 << bitpos;
 1832              		.loc 1 765 12
 1833 00b2 832744FE 		lw	a5,-28(s0)
 1834 00b6 0547     		li	a4,1
 1835 00b8 B317F700 		sll	a5,a4,a5
 1836 00bc 2322F4FE 		sw	a5,-28(s0)
 766:Drivers/src/ch32v20x_usart.c ****     bitpos &= USARTx->STATR;
 1837              		.loc 1 766 21
 1838 00c0 8327C4FD 		lw	a5,-36(s0)
 1839 00c4 9E23     		lhu	a5,0(a5)
 1840 00c6 C207     		slli	a5,a5,16
 1841 00c8 C183     		srli	a5,a5,16
 1842 00ca 3E87     		mv	a4,a5
 1843              		.loc 1 766 12
 1844 00cc 832744FE 		lw	a5,-28(s0)
 1845 00d0 F98F     		and	a5,a5,a4
 1846 00d2 2322F4FE 		sw	a5,-28(s0)
 767:Drivers/src/ch32v20x_usart.c **** 
 768:Drivers/src/ch32v20x_usart.c ****     if((itmask != (uint16_t)RESET) && (bitpos != (uint16_t)RESET))
 1847              		.loc 1 768 7
 1848 00d6 8327C4FE 		lw	a5,-20(s0)
 1849 00da 81CB     		beq	a5,zero,.L83
 1850              		.loc 1 768 36 discriminator 1
 1851 00dc 832744FE 		lw	a5,-28(s0)
 1852 00e0 89C7     		beq	a5,zero,.L83
 769:Drivers/src/ch32v20x_usart.c ****     {
 770:Drivers/src/ch32v20x_usart.c ****         bitstatus = SET;
 1853              		.loc 1 770 19
 1854 00e2 8547     		li	a5,1
 1855 00e4 2324F4FE 		sw	a5,-24(s0)
 1856 00e8 19A0     		j	.L84
 1857              	.L83:
 771:Drivers/src/ch32v20x_usart.c ****     }
 772:Drivers/src/ch32v20x_usart.c ****     else
 773:Drivers/src/ch32v20x_usart.c ****     {
 774:Drivers/src/ch32v20x_usart.c ****         bitstatus = RESET;
GAS LISTING C:\Users\SOLDER~1\AppData\Local\Temp\ccheWc1y.s 			page 47


 1858              		.loc 1 774 19
 1859 00ea 232404FE 		sw	zero,-24(s0)
 1860              	.L84:
 775:Drivers/src/ch32v20x_usart.c ****     }
 776:Drivers/src/ch32v20x_usart.c **** 
 777:Drivers/src/ch32v20x_usart.c ****     return bitstatus;
 1861              		.loc 1 777 12
 1862 00ee 832784FE 		lw	a5,-24(s0)
 778:Drivers/src/ch32v20x_usart.c **** }
 1863              		.loc 1 778 1
 1864 00f2 3E85     		mv	a0,a5
 1865 00f4 3254     		lw	s0,44(sp)
 1866              		.cfi_restore 8
 1867              		.cfi_def_cfa 2, 48
 1868 00f6 4561     		addi	sp,sp,48
 1869              		.cfi_def_cfa_offset 0
 1870 00f8 8280     		jr	ra
 1871              		.cfi_endproc
 1872              	.LFE43:
 1874              		.section	.text.USART_ClearITPendingBit,"ax",@progbits
 1875              		.align	1
 1876              		.globl	USART_ClearITPendingBit
 1878              	USART_ClearITPendingBit:
 1879              	.LFB44:
 779:Drivers/src/ch32v20x_usart.c **** 
 780:Drivers/src/ch32v20x_usart.c **** /*********************************************************************
 781:Drivers/src/ch32v20x_usart.c ****  * @fn      USART_ClearITPendingBit
 782:Drivers/src/ch32v20x_usart.c ****  *
 783:Drivers/src/ch32v20x_usart.c ****  * @brief   Clears the USARTx's interrupt pending bits.
 784:Drivers/src/ch32v20x_usart.c ****  *
 785:Drivers/src/ch32v20x_usart.c ****  * @param   USARTx - where x can be 1, 2, 3 to select the USART peripheral.
 786:Drivers/src/ch32v20x_usart.c ****  *          USART_IT - specifies the interrupt pending bit to clear.
 787:Drivers/src/ch32v20x_usart.c ****  *            USART_IT_LBD - LIN Break detection interrupt.
 788:Drivers/src/ch32v20x_usart.c ****  *            USART_IT_TC - Transmission complete interrupt.
 789:Drivers/src/ch32v20x_usart.c ****  *            USART_IT_RXNE - Receive Data register not empty interrupt.
 790:Drivers/src/ch32v20x_usart.c ****  *         Note-
 791:Drivers/src/ch32v20x_usart.c ****  *            - PE (Parity error), FE (Framing error), NE (Noise error), ORE (OverRun 
 792:Drivers/src/ch32v20x_usart.c ****  *            error) and IDLE (Idle line detected) pending bits are cleared by 
 793:Drivers/src/ch32v20x_usart.c ****  *            software sequence: a read operation to USART_STATR register 
 794:Drivers/src/ch32v20x_usart.c ****  *            (USART_GetITStatus()) followed by a read operation to USART_DATAR register 
 795:Drivers/src/ch32v20x_usart.c ****  *            (USART_ReceiveData()).
 796:Drivers/src/ch32v20x_usart.c ****  *            - RXNE pending bit can be also cleared by a read to the USART_DATAR register 
 797:Drivers/src/ch32v20x_usart.c ****  *            (USART_ReceiveData()).
 798:Drivers/src/ch32v20x_usart.c ****  *            - TC pending bit can be also cleared by software sequence: a read 
 799:Drivers/src/ch32v20x_usart.c ****  *            operation to USART_STATR register (USART_GetITStatus()) followed by a write 
 800:Drivers/src/ch32v20x_usart.c ****  *            operation to USART_DATAR register (USART_SendData()).
 801:Drivers/src/ch32v20x_usart.c ****  *            - TXE pending bit is cleared only by a write to the USART_DATAR register 
 802:Drivers/src/ch32v20x_usart.c ****  *            (USART_SendData()).
 803:Drivers/src/ch32v20x_usart.c ****  * @return  none
 804:Drivers/src/ch32v20x_usart.c ****  */
 805:Drivers/src/ch32v20x_usart.c **** void USART_ClearITPendingBit(USART_TypeDef *USARTx, uint16_t USART_IT)
 806:Drivers/src/ch32v20x_usart.c **** {
 1880              		.loc 1 806 1
 1881              		.cfi_startproc
 1882 0000 7971     		addi	sp,sp,-48
 1883              		.cfi_def_cfa_offset 48
 1884 0002 22D6     		sw	s0,44(sp)
GAS LISTING C:\Users\SOLDER~1\AppData\Local\Temp\ccheWc1y.s 			page 48


 1885              		.cfi_offset 8, -4
 1886 0004 0018     		addi	s0,sp,48
 1887              		.cfi_def_cfa 8, 0
 1888 0006 232EA4FC 		sw	a0,-36(s0)
 1889 000a AE87     		mv	a5,a1
 1890 000c 231DF4FC 		sh	a5,-38(s0)
 807:Drivers/src/ch32v20x_usart.c ****     uint16_t bitpos = 0x00, itmask = 0x00;
 1891              		.loc 1 807 14
 1892 0010 231704FE 		sh	zero,-18(s0)
 1893              		.loc 1 807 29
 1894 0014 231604FE 		sh	zero,-20(s0)
 808:Drivers/src/ch32v20x_usart.c **** 
 809:Drivers/src/ch32v20x_usart.c ****     bitpos = USART_IT >> 0x08;
 1895              		.loc 1 809 12
 1896 0018 8357A4FD 		lhu	a5,-38(s0)
 1897 001c A183     		srli	a5,a5,8
 1898 001e 2317F4FE 		sh	a5,-18(s0)
 810:Drivers/src/ch32v20x_usart.c ****     itmask = ((uint16_t)0x01 << (uint16_t)bitpos);
 1899              		.loc 1 810 33
 1900 0022 8357E4FE 		lhu	a5,-18(s0)
 1901              		.loc 1 810 30
 1902 0026 0547     		li	a4,1
 1903 0028 B317F700 		sll	a5,a4,a5
 1904              		.loc 1 810 12
 1905 002c 2316F4FE 		sh	a5,-20(s0)
 811:Drivers/src/ch32v20x_usart.c ****     USARTx->STATR = (uint16_t)~itmask;
 1906              		.loc 1 811 21
 1907 0030 8357C4FE 		lhu	a5,-20(s0)
 1908 0034 93C7F7FF 		not	a5,a5
 1909 0038 13970701 		slli	a4,a5,16
 1910 003c 4183     		srli	a4,a4,16
 1911              		.loc 1 811 19
 1912 003e 8327C4FD 		lw	a5,-36(s0)
 1913 0042 9AA3     		sh	a4,0(a5)
 812:Drivers/src/ch32v20x_usart.c **** }
 1914              		.loc 1 812 1
 1915 0044 0100     		nop
 1916 0046 3254     		lw	s0,44(sp)
 1917              		.cfi_restore 8
 1918              		.cfi_def_cfa 2, 48
 1919 0048 4561     		addi	sp,sp,48
 1920              		.cfi_def_cfa_offset 0
 1921 004a 8280     		jr	ra
 1922              		.cfi_endproc
 1923              	.LFE44:
 1925              		.text
 1926              	.Letext0:
 1927              		.file 2 "c:\\dev_tools\\ch32_tools\\risc-v_embedded_gcc12\\riscv-none-elf\\include\\machine\\_defa
 1928              		.file 3 "c:\\dev_tools\\ch32_tools\\risc-v_embedded_gcc12\\riscv-none-elf\\include\\sys\\_stdint.h
 1929              		.file 4 "Drivers/inc/core_riscv.h"
 1930              		.file 5 "Drivers/inc/ch32v20x.h"
 1931              		.file 6 "Drivers/inc/ch32v20x_rcc.h"
 1932              		.file 7 "Drivers/inc/ch32v20x_usart.h"
GAS LISTING C:\Users\SOLDER~1\AppData\Local\Temp\ccheWc1y.s 			page 49

