GAS LISTING C:\Users\SOLDER~1\AppData\Local\Temp\cc2EfhU3.s 			page 1


   1              		.file	"ch32v20x_crc.c"
   2              		.option nopic
   3              		.attribute arch, "rv32i2p0_m2p0_a2p0_c2p0_xw"
   4              		.attribute unaligned_access, 0
   5              		.attribute stack_align, 16
   6              		.text
   7              	.Ltext0:
   8              		.cfi_sections	.debug_frame
   9              		.file 0 "C:\\Users\\Solderingiron\\Documents\\GitHub\\VSC-make-example\\VSC_CH32V203C8T6" "Drivers
  10              		.section	.text.CRC_ResetDR,"ax",@progbits
  11              		.align	1
  12              		.globl	CRC_ResetDR
  14              	CRC_ResetDR:
  15              	.LFB16:
  16              		.file 1 "Drivers/src/ch32v20x_crc.c"
   1:Drivers/src/ch32v20x_crc.c **** /********************************** (C) COPYRIGHT  *******************************
   2:Drivers/src/ch32v20x_crc.c ****  * File Name          : ch32v20x_crc.c
   3:Drivers/src/ch32v20x_crc.c ****  * Author             : WCH
   4:Drivers/src/ch32v20x_crc.c ****  * Version            : V1.0.0
   5:Drivers/src/ch32v20x_crc.c ****  * Date               : 2021/06/06
   6:Drivers/src/ch32v20x_crc.c ****  * Description        : This file provides all the CRC firmware functions.
   7:Drivers/src/ch32v20x_crc.c **** *********************************************************************************
   8:Drivers/src/ch32v20x_crc.c **** * Copyright (c) 2021 Nanjing Qinheng Microelectronics Co., Ltd.
   9:Drivers/src/ch32v20x_crc.c **** * Attention: This software (modified or not) and binary are used for 
  10:Drivers/src/ch32v20x_crc.c **** * microcontroller manufactured by Nanjing Qinheng Microelectronics.
  11:Drivers/src/ch32v20x_crc.c **** *******************************************************************************/
  12:Drivers/src/ch32v20x_crc.c **** #include "ch32v20x_crc.h"
  13:Drivers/src/ch32v20x_crc.c **** 
  14:Drivers/src/ch32v20x_crc.c **** /*********************************************************************
  15:Drivers/src/ch32v20x_crc.c ****  * @fn      CRC_ResetDR
  16:Drivers/src/ch32v20x_crc.c ****  *
  17:Drivers/src/ch32v20x_crc.c ****  * @brief   Resets the CRC Data register (DR).
  18:Drivers/src/ch32v20x_crc.c ****  *
  19:Drivers/src/ch32v20x_crc.c ****  * @return  none
  20:Drivers/src/ch32v20x_crc.c ****  */
  21:Drivers/src/ch32v20x_crc.c **** void CRC_ResetDR(void)
  22:Drivers/src/ch32v20x_crc.c **** {
  17              		.loc 1 22 1
  18              		.cfi_startproc
  19 0000 4111     		addi	sp,sp,-16
  20              		.cfi_def_cfa_offset 16
  21 0002 22C6     		sw	s0,12(sp)
  22              		.cfi_offset 8, -4
  23 0004 0008     		addi	s0,sp,16
  24              		.cfi_def_cfa 8, 0
  23:Drivers/src/ch32v20x_crc.c ****     CRC->CTLR = CRC_CTLR_RESET;
  25              		.loc 1 23 8
  26 0006 B7370240 		li	a5,1073885184
  27              		.loc 1 23 15
  28 000a 0547     		li	a4,1
  29 000c 98C7     		sw	a4,8(a5)
  24:Drivers/src/ch32v20x_crc.c **** }
  30              		.loc 1 24 1
  31 000e 0100     		nop
  32 0010 3244     		lw	s0,12(sp)
  33              		.cfi_restore 8
  34              		.cfi_def_cfa 2, 16
GAS LISTING C:\Users\SOLDER~1\AppData\Local\Temp\cc2EfhU3.s 			page 2


  35 0012 4101     		addi	sp,sp,16
  36              		.cfi_def_cfa_offset 0
  37 0014 8280     		jr	ra
  38              		.cfi_endproc
  39              	.LFE16:
  41              		.section	.text.CRC_CalcCRC,"ax",@progbits
  42              		.align	1
  43              		.globl	CRC_CalcCRC
  45              	CRC_CalcCRC:
  46              	.LFB17:
  25:Drivers/src/ch32v20x_crc.c **** 
  26:Drivers/src/ch32v20x_crc.c **** /*********************************************************************
  27:Drivers/src/ch32v20x_crc.c ****  * @fn      CRC_CalcCRC
  28:Drivers/src/ch32v20x_crc.c ****  *
  29:Drivers/src/ch32v20x_crc.c ****  * @brief   Computes the 32-bit CRC of a given data word(32-bit).
  30:Drivers/src/ch32v20x_crc.c ****  *
  31:Drivers/src/ch32v20x_crc.c ****  * @param   Data - data word(32-bit) to compute its CRC.
  32:Drivers/src/ch32v20x_crc.c ****  *
  33:Drivers/src/ch32v20x_crc.c ****  * @return  32-bit CRC.
  34:Drivers/src/ch32v20x_crc.c ****  */
  35:Drivers/src/ch32v20x_crc.c **** uint32_t CRC_CalcCRC(uint32_t Data)
  36:Drivers/src/ch32v20x_crc.c **** {
  47              		.loc 1 36 1
  48              		.cfi_startproc
  49 0000 0111     		addi	sp,sp,-32
  50              		.cfi_def_cfa_offset 32
  51 0002 22CE     		sw	s0,28(sp)
  52              		.cfi_offset 8, -4
  53 0004 0010     		addi	s0,sp,32
  54              		.cfi_def_cfa 8, 0
  55 0006 2326A4FE 		sw	a0,-20(s0)
  37:Drivers/src/ch32v20x_crc.c ****     CRC->DATAR = Data;
  56              		.loc 1 37 8
  57 000a B7370240 		li	a5,1073885184
  58              		.loc 1 37 16
  59 000e 0327C4FE 		lw	a4,-20(s0)
  60 0012 98C3     		sw	a4,0(a5)
  38:Drivers/src/ch32v20x_crc.c **** 
  39:Drivers/src/ch32v20x_crc.c ****     return (CRC->DATAR);
  61              		.loc 1 39 16
  62 0014 B7370240 		li	a5,1073885184
  63 0018 9C43     		lw	a5,0(a5)
  40:Drivers/src/ch32v20x_crc.c **** }
  64              		.loc 1 40 1
  65 001a 3E85     		mv	a0,a5
  66 001c 7244     		lw	s0,28(sp)
  67              		.cfi_restore 8
  68              		.cfi_def_cfa 2, 32
  69 001e 0561     		addi	sp,sp,32
  70              		.cfi_def_cfa_offset 0
  71 0020 8280     		jr	ra
  72              		.cfi_endproc
  73              	.LFE17:
  75              		.section	.text.CRC_CalcBlockCRC,"ax",@progbits
  76              		.align	1
  77              		.globl	CRC_CalcBlockCRC
  79              	CRC_CalcBlockCRC:
GAS LISTING C:\Users\SOLDER~1\AppData\Local\Temp\cc2EfhU3.s 			page 3


  80              	.LFB18:
  41:Drivers/src/ch32v20x_crc.c **** 
  42:Drivers/src/ch32v20x_crc.c **** /*********************************************************************
  43:Drivers/src/ch32v20x_crc.c ****  * @fn      CRC_CalcBlockCRC
  44:Drivers/src/ch32v20x_crc.c ****  *
  45:Drivers/src/ch32v20x_crc.c ****  * @brief   Computes the 32-bit CRC of a given buffer of data word(32-bit).
  46:Drivers/src/ch32v20x_crc.c ****  *
  47:Drivers/src/ch32v20x_crc.c ****  * @param   pBuffer - pointer to the buffer containing the data to be computed.
  48:Drivers/src/ch32v20x_crc.c ****  *          BufferLength - length of the buffer to be computed.
  49:Drivers/src/ch32v20x_crc.c ****  *
  50:Drivers/src/ch32v20x_crc.c ****  * @return  32-bit CRC.
  51:Drivers/src/ch32v20x_crc.c ****  */
  52:Drivers/src/ch32v20x_crc.c **** uint32_t CRC_CalcBlockCRC(uint32_t pBuffer[], uint32_t BufferLength)
  53:Drivers/src/ch32v20x_crc.c **** {
  81              		.loc 1 53 1
  82              		.cfi_startproc
  83 0000 7971     		addi	sp,sp,-48
  84              		.cfi_def_cfa_offset 48
  85 0002 22D6     		sw	s0,44(sp)
  86              		.cfi_offset 8, -4
  87 0004 0018     		addi	s0,sp,48
  88              		.cfi_def_cfa 8, 0
  89 0006 232EA4FC 		sw	a0,-36(s0)
  90 000a 232CB4FC 		sw	a1,-40(s0)
  54:Drivers/src/ch32v20x_crc.c ****     uint32_t index = 0;
  91              		.loc 1 54 14
  92 000e 232604FE 		sw	zero,-20(s0)
  55:Drivers/src/ch32v20x_crc.c **** 
  56:Drivers/src/ch32v20x_crc.c ****     for(index = 0; index < BufferLength; index++){
  93              		.loc 1 56 15
  94 0012 232604FE 		sw	zero,-20(s0)
  95              		.loc 1 56 5
  96 0016 05A0     		j	.L5
  97              	.L6:
  57:Drivers/src/ch32v20x_crc.c ****         CRC->DATAR = pBuffer[index];
  98              		.loc 1 57 29 discriminator 3
  99 0018 8327C4FE 		lw	a5,-20(s0)
 100 001c 8A07     		slli	a5,a5,2
 101 001e 0327C4FD 		lw	a4,-36(s0)
 102 0022 3E97     		add	a4,a4,a5
 103              		.loc 1 57 12 discriminator 3
 104 0024 B7370240 		li	a5,1073885184
 105              		.loc 1 57 29 discriminator 3
 106 0028 1843     		lw	a4,0(a4)
 107              		.loc 1 57 20 discriminator 3
 108 002a 98C3     		sw	a4,0(a5)
  56:Drivers/src/ch32v20x_crc.c ****         CRC->DATAR = pBuffer[index];
 109              		.loc 1 56 47 discriminator 3
 110 002c 8327C4FE 		lw	a5,-20(s0)
 111 0030 8507     		addi	a5,a5,1
 112 0032 2326F4FE 		sw	a5,-20(s0)
 113              	.L5:
  56:Drivers/src/ch32v20x_crc.c ****         CRC->DATAR = pBuffer[index];
 114              		.loc 1 56 26 discriminator 1
 115 0036 0327C4FE 		lw	a4,-20(s0)
 116 003a 832784FD 		lw	a5,-40(s0)
 117 003e E36DF7FC 		bltu	a4,a5,.L6
GAS LISTING C:\Users\SOLDER~1\AppData\Local\Temp\cc2EfhU3.s 			page 4


  58:Drivers/src/ch32v20x_crc.c ****     }
  59:Drivers/src/ch32v20x_crc.c **** 
  60:Drivers/src/ch32v20x_crc.c ****     return (CRC->DATAR);
 118              		.loc 1 60 16
 119 0042 B7370240 		li	a5,1073885184
 120 0046 9C43     		lw	a5,0(a5)
  61:Drivers/src/ch32v20x_crc.c **** }
 121              		.loc 1 61 1
 122 0048 3E85     		mv	a0,a5
 123 004a 3254     		lw	s0,44(sp)
 124              		.cfi_restore 8
 125              		.cfi_def_cfa 2, 48
 126 004c 4561     		addi	sp,sp,48
 127              		.cfi_def_cfa_offset 0
 128 004e 8280     		jr	ra
 129              		.cfi_endproc
 130              	.LFE18:
 132              		.section	.text.CRC_GetCRC,"ax",@progbits
 133              		.align	1
 134              		.globl	CRC_GetCRC
 136              	CRC_GetCRC:
 137              	.LFB19:
  62:Drivers/src/ch32v20x_crc.c **** 
  63:Drivers/src/ch32v20x_crc.c **** /*********************************************************************
  64:Drivers/src/ch32v20x_crc.c ****  * @fn      CRC_GetCRC
  65:Drivers/src/ch32v20x_crc.c ****  *
  66:Drivers/src/ch32v20x_crc.c ****  * @brief   Returns the current CRC value.
  67:Drivers/src/ch32v20x_crc.c ****  *
  68:Drivers/src/ch32v20x_crc.c ****  * @return  32-bit CRC.
  69:Drivers/src/ch32v20x_crc.c ****  */
  70:Drivers/src/ch32v20x_crc.c **** uint32_t CRC_GetCRC(void)
  71:Drivers/src/ch32v20x_crc.c **** {
 138              		.loc 1 71 1
 139              		.cfi_startproc
 140 0000 4111     		addi	sp,sp,-16
 141              		.cfi_def_cfa_offset 16
 142 0002 22C6     		sw	s0,12(sp)
 143              		.cfi_offset 8, -4
 144 0004 0008     		addi	s0,sp,16
 145              		.cfi_def_cfa 8, 0
  72:Drivers/src/ch32v20x_crc.c ****     return (CRC->DATAR);
 146              		.loc 1 72 16
 147 0006 B7370240 		li	a5,1073885184
 148 000a 9C43     		lw	a5,0(a5)
  73:Drivers/src/ch32v20x_crc.c **** }
 149              		.loc 1 73 1
 150 000c 3E85     		mv	a0,a5
 151 000e 3244     		lw	s0,12(sp)
 152              		.cfi_restore 8
 153              		.cfi_def_cfa 2, 16
 154 0010 4101     		addi	sp,sp,16
 155              		.cfi_def_cfa_offset 0
 156 0012 8280     		jr	ra
 157              		.cfi_endproc
 158              	.LFE19:
 160              		.section	.text.CRC_SetIDRegister,"ax",@progbits
 161              		.align	1
GAS LISTING C:\Users\SOLDER~1\AppData\Local\Temp\cc2EfhU3.s 			page 5


 162              		.globl	CRC_SetIDRegister
 164              	CRC_SetIDRegister:
 165              	.LFB20:
  74:Drivers/src/ch32v20x_crc.c **** 
  75:Drivers/src/ch32v20x_crc.c **** /*********************************************************************
  76:Drivers/src/ch32v20x_crc.c ****  * @fn      CRC_SetIDRegister
  77:Drivers/src/ch32v20x_crc.c ****  *
  78:Drivers/src/ch32v20x_crc.c ****  * @brief   Stores a 8-bit data in the Independent Data(ID) register.
  79:Drivers/src/ch32v20x_crc.c ****  *
  80:Drivers/src/ch32v20x_crc.c ****  * @param   IDValue - 8-bit value to be stored in the ID register.
  81:Drivers/src/ch32v20x_crc.c ****  *
  82:Drivers/src/ch32v20x_crc.c ****  * @return  none
  83:Drivers/src/ch32v20x_crc.c ****  */
  84:Drivers/src/ch32v20x_crc.c **** void CRC_SetIDRegister(uint8_t IDValue)
  85:Drivers/src/ch32v20x_crc.c **** {
 166              		.loc 1 85 1
 167              		.cfi_startproc
 168 0000 0111     		addi	sp,sp,-32
 169              		.cfi_def_cfa_offset 32
 170 0002 22CE     		sw	s0,28(sp)
 171              		.cfi_offset 8, -4
 172 0004 0010     		addi	s0,sp,32
 173              		.cfi_def_cfa 8, 0
 174 0006 AA87     		mv	a5,a0
 175 0008 A307F4FE 		sb	a5,-17(s0)
  86:Drivers/src/ch32v20x_crc.c ****     CRC->IDATAR = IDValue;
 176              		.loc 1 86 8
 177 000c B7370240 		li	a5,1073885184
 178              		.loc 1 86 17
 179 0010 0347F4FE 		lbu	a4,-17(s0)
 180 0014 D8A3     		sb	a4,4(a5)
  87:Drivers/src/ch32v20x_crc.c **** }
 181              		.loc 1 87 1
 182 0016 0100     		nop
 183 0018 7244     		lw	s0,28(sp)
 184              		.cfi_restore 8
 185              		.cfi_def_cfa 2, 32
 186 001a 0561     		addi	sp,sp,32
 187              		.cfi_def_cfa_offset 0
 188 001c 8280     		jr	ra
 189              		.cfi_endproc
 190              	.LFE20:
 192              		.section	.text.CRC_GetIDRegister,"ax",@progbits
 193              		.align	1
 194              		.globl	CRC_GetIDRegister
 196              	CRC_GetIDRegister:
 197              	.LFB21:
  88:Drivers/src/ch32v20x_crc.c **** 
  89:Drivers/src/ch32v20x_crc.c **** /*********************************************************************
  90:Drivers/src/ch32v20x_crc.c ****  * @fn      CRC_GetIDRegister
  91:Drivers/src/ch32v20x_crc.c ****  *
  92:Drivers/src/ch32v20x_crc.c ****  * @brief   Returns the 8-bit data stored in the Independent Data(ID) register.
  93:Drivers/src/ch32v20x_crc.c ****  *
  94:Drivers/src/ch32v20x_crc.c ****  * @return  8-bit value of the ID register.
  95:Drivers/src/ch32v20x_crc.c ****  */
  96:Drivers/src/ch32v20x_crc.c **** uint8_t CRC_GetIDRegister(void)
  97:Drivers/src/ch32v20x_crc.c **** {
GAS LISTING C:\Users\SOLDER~1\AppData\Local\Temp\cc2EfhU3.s 			page 6


 198              		.loc 1 97 1
 199              		.cfi_startproc
 200 0000 4111     		addi	sp,sp,-16
 201              		.cfi_def_cfa_offset 16
 202 0002 22C6     		sw	s0,12(sp)
 203              		.cfi_offset 8, -4
 204 0004 0008     		addi	s0,sp,16
 205              		.cfi_def_cfa 8, 0
  98:Drivers/src/ch32v20x_crc.c ****     return (CRC->IDATAR);
 206              		.loc 1 98 16
 207 0006 B7370240 		li	a5,1073885184
 208 000a DC23     		lbu	a5,4(a5)
 209 000c 93F7F70F 		andi	a5,a5,0xff
  99:Drivers/src/ch32v20x_crc.c **** }
 210              		.loc 1 99 1
 211 0010 3E85     		mv	a0,a5
 212 0012 3244     		lw	s0,12(sp)
 213              		.cfi_restore 8
 214              		.cfi_def_cfa 2, 16
 215 0014 4101     		addi	sp,sp,16
 216              		.cfi_def_cfa_offset 0
 217 0016 8280     		jr	ra
 218              		.cfi_endproc
 219              	.LFE21:
 221              		.text
 222              	.Letext0:
 223              		.file 2 "c:\\dev_tools\\ch32_tools\\risc-v_embedded_gcc12\\riscv-none-elf\\include\\machine\\_defa
 224              		.file 3 "c:\\dev_tools\\ch32_tools\\risc-v_embedded_gcc12\\riscv-none-elf\\include\\sys\\_stdint.h
 225              		.file 4 "Drivers/inc/ch32v20x.h"
GAS LISTING C:\Users\SOLDER~1\AppData\Local\Temp\cc2EfhU3.s 			page 7


DEFINED SYMBOLS
                            *ABS*:0000000000000000 ch32v20x_crc.c
C:\Users\SOLDER~1\AppData\Local\Temp\cc2EfhU3.s:14     .text.CRC_ResetDR:0000000000000000 CRC_ResetDR
C:\Users\SOLDER~1\AppData\Local\Temp\cc2EfhU3.s:18     .text.CRC_ResetDR:0000000000000000 .L0 
C:\Users\SOLDER~1\AppData\Local\Temp\cc2EfhU3.s:19     .text.CRC_ResetDR:0000000000000000 $x
C:\Users\SOLDER~1\AppData\Local\Temp\cc2EfhU3.s:19     .text.CRC_ResetDR:0000000000000000 .L0 
C:\Users\SOLDER~1\AppData\Local\Temp\cc2EfhU3.s:20     .text.CRC_ResetDR:0000000000000002 .L0 
C:\Users\SOLDER~1\AppData\Local\Temp\cc2EfhU3.s:22     .text.CRC_ResetDR:0000000000000004 .L0 
C:\Users\SOLDER~1\AppData\Local\Temp\cc2EfhU3.s:24     .text.CRC_ResetDR:0000000000000006 .L0 
C:\Users\SOLDER~1\AppData\Local\Temp\cc2EfhU3.s:26     .text.CRC_ResetDR:0000000000000006 .L0 
C:\Users\SOLDER~1\AppData\Local\Temp\cc2EfhU3.s:28     .text.CRC_ResetDR:000000000000000a .L0 
C:\Users\SOLDER~1\AppData\Local\Temp\cc2EfhU3.s:31     .text.CRC_ResetDR:000000000000000e .L0 
C:\Users\SOLDER~1\AppData\Local\Temp\cc2EfhU3.s:33     .text.CRC_ResetDR:0000000000000012 .L0 
C:\Users\SOLDER~1\AppData\Local\Temp\cc2EfhU3.s:34     .text.CRC_ResetDR:0000000000000012 .L0 
C:\Users\SOLDER~1\AppData\Local\Temp\cc2EfhU3.s:36     .text.CRC_ResetDR:0000000000000014 .L0 
C:\Users\SOLDER~1\AppData\Local\Temp\cc2EfhU3.s:38     .text.CRC_ResetDR:0000000000000016 .L0 
C:\Users\SOLDER~1\AppData\Local\Temp\cc2EfhU3.s:45     .text.CRC_CalcCRC:0000000000000000 CRC_CalcCRC
C:\Users\SOLDER~1\AppData\Local\Temp\cc2EfhU3.s:48     .text.CRC_CalcCRC:0000000000000000 .L0 
C:\Users\SOLDER~1\AppData\Local\Temp\cc2EfhU3.s:49     .text.CRC_CalcCRC:0000000000000000 $x
C:\Users\SOLDER~1\AppData\Local\Temp\cc2EfhU3.s:49     .text.CRC_CalcCRC:0000000000000000 .L0 
C:\Users\SOLDER~1\AppData\Local\Temp\cc2EfhU3.s:50     .text.CRC_CalcCRC:0000000000000002 .L0 
C:\Users\SOLDER~1\AppData\Local\Temp\cc2EfhU3.s:52     .text.CRC_CalcCRC:0000000000000004 .L0 
C:\Users\SOLDER~1\AppData\Local\Temp\cc2EfhU3.s:54     .text.CRC_CalcCRC:0000000000000006 .L0 
C:\Users\SOLDER~1\AppData\Local\Temp\cc2EfhU3.s:57     .text.CRC_CalcCRC:000000000000000a .L0 
C:\Users\SOLDER~1\AppData\Local\Temp\cc2EfhU3.s:59     .text.CRC_CalcCRC:000000000000000e .L0 
C:\Users\SOLDER~1\AppData\Local\Temp\cc2EfhU3.s:62     .text.CRC_CalcCRC:0000000000000014 .L0 
C:\Users\SOLDER~1\AppData\Local\Temp\cc2EfhU3.s:65     .text.CRC_CalcCRC:000000000000001a .L0 
C:\Users\SOLDER~1\AppData\Local\Temp\cc2EfhU3.s:67     .text.CRC_CalcCRC:000000000000001e .L0 
C:\Users\SOLDER~1\AppData\Local\Temp\cc2EfhU3.s:68     .text.CRC_CalcCRC:000000000000001e .L0 
C:\Users\SOLDER~1\AppData\Local\Temp\cc2EfhU3.s:70     .text.CRC_CalcCRC:0000000000000020 .L0 
C:\Users\SOLDER~1\AppData\Local\Temp\cc2EfhU3.s:72     .text.CRC_CalcCRC:0000000000000022 .L0 
C:\Users\SOLDER~1\AppData\Local\Temp\cc2EfhU3.s:79     .text.CRC_CalcBlockCRC:0000000000000000 CRC_CalcBlockCRC
C:\Users\SOLDER~1\AppData\Local\Temp\cc2EfhU3.s:82     .text.CRC_CalcBlockCRC:0000000000000000 .L0 
C:\Users\SOLDER~1\AppData\Local\Temp\cc2EfhU3.s:83     .text.CRC_CalcBlockCRC:0000000000000000 $x
C:\Users\SOLDER~1\AppData\Local\Temp\cc2EfhU3.s:83     .text.CRC_CalcBlockCRC:0000000000000000 .L0 
C:\Users\SOLDER~1\AppData\Local\Temp\cc2EfhU3.s:84     .text.CRC_CalcBlockCRC:0000000000000002 .L0 
C:\Users\SOLDER~1\AppData\Local\Temp\cc2EfhU3.s:86     .text.CRC_CalcBlockCRC:0000000000000004 .L0 
C:\Users\SOLDER~1\AppData\Local\Temp\cc2EfhU3.s:88     .text.CRC_CalcBlockCRC:0000000000000006 .L0 
C:\Users\SOLDER~1\AppData\Local\Temp\cc2EfhU3.s:92     .text.CRC_CalcBlockCRC:000000000000000e .L0 
C:\Users\SOLDER~1\AppData\Local\Temp\cc2EfhU3.s:94     .text.CRC_CalcBlockCRC:0000000000000012 .L0 
C:\Users\SOLDER~1\AppData\Local\Temp\cc2EfhU3.s:96     .text.CRC_CalcBlockCRC:0000000000000016 .L0 
C:\Users\SOLDER~1\AppData\Local\Temp\cc2EfhU3.s:99     .text.CRC_CalcBlockCRC:0000000000000018 .L0 
C:\Users\SOLDER~1\AppData\Local\Temp\cc2EfhU3.s:104    .text.CRC_CalcBlockCRC:0000000000000024 .L0 
C:\Users\SOLDER~1\AppData\Local\Temp\cc2EfhU3.s:106    .text.CRC_CalcBlockCRC:0000000000000028 .L0 
C:\Users\SOLDER~1\AppData\Local\Temp\cc2EfhU3.s:108    .text.CRC_CalcBlockCRC:000000000000002a .L0 
C:\Users\SOLDER~1\AppData\Local\Temp\cc2EfhU3.s:110    .text.CRC_CalcBlockCRC:000000000000002c .L0 
C:\Users\SOLDER~1\AppData\Local\Temp\cc2EfhU3.s:115    .text.CRC_CalcBlockCRC:0000000000000036 .L0 
C:\Users\SOLDER~1\AppData\Local\Temp\cc2EfhU3.s:119    .text.CRC_CalcBlockCRC:0000000000000042 .L0 
C:\Users\SOLDER~1\AppData\Local\Temp\cc2EfhU3.s:122    .text.CRC_CalcBlockCRC:0000000000000048 .L0 
C:\Users\SOLDER~1\AppData\Local\Temp\cc2EfhU3.s:124    .text.CRC_CalcBlockCRC:000000000000004c .L0 
C:\Users\SOLDER~1\AppData\Local\Temp\cc2EfhU3.s:125    .text.CRC_CalcBlockCRC:000000000000004c .L0 
C:\Users\SOLDER~1\AppData\Local\Temp\cc2EfhU3.s:127    .text.CRC_CalcBlockCRC:000000000000004e .L0 
C:\Users\SOLDER~1\AppData\Local\Temp\cc2EfhU3.s:129    .text.CRC_CalcBlockCRC:0000000000000050 .L0 
C:\Users\SOLDER~1\AppData\Local\Temp\cc2EfhU3.s:136    .text.CRC_GetCRC:0000000000000000 CRC_GetCRC
C:\Users\SOLDER~1\AppData\Local\Temp\cc2EfhU3.s:139    .text.CRC_GetCRC:0000000000000000 .L0 
C:\Users\SOLDER~1\AppData\Local\Temp\cc2EfhU3.s:140    .text.CRC_GetCRC:0000000000000000 $x
C:\Users\SOLDER~1\AppData\Local\Temp\cc2EfhU3.s:140    .text.CRC_GetCRC:0000000000000000 .L0 
GAS LISTING C:\Users\SOLDER~1\AppData\Local\Temp\cc2EfhU3.s 			page 8


C:\Users\SOLDER~1\AppData\Local\Temp\cc2EfhU3.s:141    .text.CRC_GetCRC:0000000000000002 .L0 
C:\Users\SOLDER~1\AppData\Local\Temp\cc2EfhU3.s:143    .text.CRC_GetCRC:0000000000000004 .L0 
C:\Users\SOLDER~1\AppData\Local\Temp\cc2EfhU3.s:145    .text.CRC_GetCRC:0000000000000006 .L0 
C:\Users\SOLDER~1\AppData\Local\Temp\cc2EfhU3.s:147    .text.CRC_GetCRC:0000000000000006 .L0 
C:\Users\SOLDER~1\AppData\Local\Temp\cc2EfhU3.s:150    .text.CRC_GetCRC:000000000000000c .L0 
C:\Users\SOLDER~1\AppData\Local\Temp\cc2EfhU3.s:152    .text.CRC_GetCRC:0000000000000010 .L0 
C:\Users\SOLDER~1\AppData\Local\Temp\cc2EfhU3.s:153    .text.CRC_GetCRC:0000000000000010 .L0 
C:\Users\SOLDER~1\AppData\Local\Temp\cc2EfhU3.s:155    .text.CRC_GetCRC:0000000000000012 .L0 
C:\Users\SOLDER~1\AppData\Local\Temp\cc2EfhU3.s:157    .text.CRC_GetCRC:0000000000000014 .L0 
C:\Users\SOLDER~1\AppData\Local\Temp\cc2EfhU3.s:164    .text.CRC_SetIDRegister:0000000000000000 CRC_SetIDRegister
C:\Users\SOLDER~1\AppData\Local\Temp\cc2EfhU3.s:167    .text.CRC_SetIDRegister:0000000000000000 .L0 
C:\Users\SOLDER~1\AppData\Local\Temp\cc2EfhU3.s:168    .text.CRC_SetIDRegister:0000000000000000 $x
C:\Users\SOLDER~1\AppData\Local\Temp\cc2EfhU3.s:168    .text.CRC_SetIDRegister:0000000000000000 .L0 
C:\Users\SOLDER~1\AppData\Local\Temp\cc2EfhU3.s:169    .text.CRC_SetIDRegister:0000000000000002 .L0 
C:\Users\SOLDER~1\AppData\Local\Temp\cc2EfhU3.s:171    .text.CRC_SetIDRegister:0000000000000004 .L0 
C:\Users\SOLDER~1\AppData\Local\Temp\cc2EfhU3.s:173    .text.CRC_SetIDRegister:0000000000000006 .L0 
C:\Users\SOLDER~1\AppData\Local\Temp\cc2EfhU3.s:177    .text.CRC_SetIDRegister:000000000000000c .L0 
C:\Users\SOLDER~1\AppData\Local\Temp\cc2EfhU3.s:179    .text.CRC_SetIDRegister:0000000000000010 .L0 
C:\Users\SOLDER~1\AppData\Local\Temp\cc2EfhU3.s:182    .text.CRC_SetIDRegister:0000000000000016 .L0 
C:\Users\SOLDER~1\AppData\Local\Temp\cc2EfhU3.s:184    .text.CRC_SetIDRegister:000000000000001a .L0 
C:\Users\SOLDER~1\AppData\Local\Temp\cc2EfhU3.s:185    .text.CRC_SetIDRegister:000000000000001a .L0 
C:\Users\SOLDER~1\AppData\Local\Temp\cc2EfhU3.s:187    .text.CRC_SetIDRegister:000000000000001c .L0 
C:\Users\SOLDER~1\AppData\Local\Temp\cc2EfhU3.s:189    .text.CRC_SetIDRegister:000000000000001e .L0 
C:\Users\SOLDER~1\AppData\Local\Temp\cc2EfhU3.s:196    .text.CRC_GetIDRegister:0000000000000000 CRC_GetIDRegister
C:\Users\SOLDER~1\AppData\Local\Temp\cc2EfhU3.s:199    .text.CRC_GetIDRegister:0000000000000000 .L0 
C:\Users\SOLDER~1\AppData\Local\Temp\cc2EfhU3.s:200    .text.CRC_GetIDRegister:0000000000000000 $x
C:\Users\SOLDER~1\AppData\Local\Temp\cc2EfhU3.s:200    .text.CRC_GetIDRegister:0000000000000000 .L0 
C:\Users\SOLDER~1\AppData\Local\Temp\cc2EfhU3.s:201    .text.CRC_GetIDRegister:0000000000000002 .L0 
C:\Users\SOLDER~1\AppData\Local\Temp\cc2EfhU3.s:203    .text.CRC_GetIDRegister:0000000000000004 .L0 
C:\Users\SOLDER~1\AppData\Local\Temp\cc2EfhU3.s:205    .text.CRC_GetIDRegister:0000000000000006 .L0 
C:\Users\SOLDER~1\AppData\Local\Temp\cc2EfhU3.s:207    .text.CRC_GetIDRegister:0000000000000006 .L0 
C:\Users\SOLDER~1\AppData\Local\Temp\cc2EfhU3.s:211    .text.CRC_GetIDRegister:0000000000000010 .L0 
C:\Users\SOLDER~1\AppData\Local\Temp\cc2EfhU3.s:213    .text.CRC_GetIDRegister:0000000000000014 .L0 
C:\Users\SOLDER~1\AppData\Local\Temp\cc2EfhU3.s:214    .text.CRC_GetIDRegister:0000000000000014 .L0 
C:\Users\SOLDER~1\AppData\Local\Temp\cc2EfhU3.s:216    .text.CRC_GetIDRegister:0000000000000016 .L0 
C:\Users\SOLDER~1\AppData\Local\Temp\cc2EfhU3.s:218    .text.CRC_GetIDRegister:0000000000000018 .L0 
C:\Users\SOLDER~1\AppData\Local\Temp\cc2EfhU3.s:29793  .debug_line_str:0000000000000065 .L0 
C:\Users\SOLDER~1\AppData\Local\Temp\cc2EfhU3.s:29793  .debug_line_str:00000000000000af .L0 
C:\Users\SOLDER~1\AppData\Local\Temp\cc2EfhU3.s:29793  .debug_line_str:00000000000000bb .L0 
C:\Users\SOLDER~1\AppData\Local\Temp\cc2EfhU3.s:29793  .debug_line_str:0000000000000108 .L0 
C:\Users\SOLDER~1\AppData\Local\Temp\cc2EfhU3.s:29793  .debug_line_str:0000000000000151 .L0 
C:\Users\SOLDER~1\AppData\Local\Temp\cc2EfhU3.s:29793  .debug_line_str:000000000000015d .L0 
C:\Users\SOLDER~1\AppData\Local\Temp\cc2EfhU3.s:29793  .debug_line_str:00000000000001b1 .L0 
C:\Users\SOLDER~1\AppData\Local\Temp\cc2EfhU3.s:29793  .debug_line_str:00000000000001f6 .L0 
C:\Users\SOLDER~1\AppData\Local\Temp\cc2EfhU3.s:29793  .debug_line_str:0000000000000205 .L0 
C:\Users\SOLDER~1\AppData\Local\Temp\cc2EfhU3.s:29793  .debug_line_str:0000000000000214 .L0 
C:\Users\SOLDER~1\AppData\Local\Temp\cc2EfhU3.s:29793  .debug_line_str:0000000000000225 .L0 
C:\Users\SOLDER~1\AppData\Local\Temp\cc2EfhU3.s:29793  .debug_line_str:000000000000022f .L0 
C:\Users\SOLDER~1\AppData\Local\Temp\cc2EfhU3.s:29793  .debug_line_str:000000000000023a .L0 
C:\Users\SOLDER~1\AppData\Local\Temp\cc2EfhU3.s:29793  .debug_line_str:0000000000000249 .L0 
C:\Users\SOLDER~1\AppData\Local\Temp\cc2EfhU3.s:29793  .debug_line_str:0000000000000252 .L0 
C:\Users\SOLDER~1\AppData\Local\Temp\cc2EfhU3.s:29793  .debug_line_str:000000000000025b .L0 
C:\Users\SOLDER~1\AppData\Local\Temp\cc2EfhU3.s:29793  .debug_line_str:0000000000000266 .L0 
C:\Users\SOLDER~1\AppData\Local\Temp\cc2EfhU3.s:29793  .debug_line_str:0000000000000278 .L0 
C:\Users\SOLDER~1\AppData\Local\Temp\cc2EfhU3.s:29793  .debug_line_str:0000000000000282 .L0 
C:\Users\SOLDER~1\AppData\Local\Temp\cc2EfhU3.s:29793  .debug_line_str:000000000000028f .L0 
C:\Users\SOLDER~1\AppData\Local\Temp\cc2EfhU3.s:29793  .debug_line_str:000000000000029f .L0 
GAS LISTING C:\Users\SOLDER~1\AppData\Local\Temp\cc2EfhU3.s 			page 9


C:\Users\SOLDER~1\AppData\Local\Temp\cc2EfhU3.s:29793  .debug_line_str:00000000000002ae .L0 
C:\Users\SOLDER~1\AppData\Local\Temp\cc2EfhU3.s:29793  .debug_line_str:00000000000002bd .L0 
C:\Users\SOLDER~1\AppData\Local\Temp\cc2EfhU3.s:29793  .debug_line_str:00000000000002cc .L0 
C:\Users\SOLDER~1\AppData\Local\Temp\cc2EfhU3.s:29793  .debug_line_str:00000000000002de .L0 
C:\Users\SOLDER~1\AppData\Local\Temp\cc2EfhU3.s:29793  .debug_line_str:00000000000002ed .L0 
C:\Users\SOLDER~1\AppData\Local\Temp\cc2EfhU3.s:29793  .debug_line_str:00000000000002fd .L0 
C:\Users\SOLDER~1\AppData\Local\Temp\cc2EfhU3.s:29793  .debug_line_str:000000000000030e .L0 
C:\Users\SOLDER~1\AppData\Local\Temp\cc2EfhU3.s:29793  .debug_line_str:000000000000031e .L0 
C:\Users\SOLDER~1\AppData\Local\Temp\cc2EfhU3.s:29793  .debug_line_str:000000000000032d .L0 
C:\Users\SOLDER~1\AppData\Local\Temp\cc2EfhU3.s:29793  .debug_line_str:000000000000033d .L0 
C:\Users\SOLDER~1\AppData\Local\Temp\cc2EfhU3.s:29793  .debug_line_str:000000000000034c .L0 
C:\Users\SOLDER~1\AppData\Local\Temp\cc2EfhU3.s:29793  .debug_line_str:000000000000035b .L0 
C:\Users\SOLDER~1\AppData\Local\Temp\cc2EfhU3.s:29793  .debug_line_str:000000000000036a .L0 
C:\Users\SOLDER~1\AppData\Local\Temp\cc2EfhU3.s:29793  .debug_line_str:0000000000000379 .L0 
C:\Users\SOLDER~1\AppData\Local\Temp\cc2EfhU3.s:29793  .debug_line_str:0000000000000388 .L0 
C:\Users\SOLDER~1\AppData\Local\Temp\cc2EfhU3.s:29793  .debug_line_str:0000000000000399 .L0 
C:\Users\SOLDER~1\AppData\Local\Temp\cc2EfhU3.s:29793  .debug_line_str:00000000000003a9 .L0 
C:\Users\SOLDER~1\AppData\Local\Temp\cc2EfhU3.s:41     .text.CRC_ResetDR:0000000000000016 .L0 
C:\Users\SOLDER~1\AppData\Local\Temp\cc2EfhU3.s:75     .text.CRC_CalcCRC:0000000000000022 .L0 
C:\Users\SOLDER~1\AppData\Local\Temp\cc2EfhU3.s:132    .text.CRC_CalcBlockCRC:0000000000000050 .L0 
C:\Users\SOLDER~1\AppData\Local\Temp\cc2EfhU3.s:160    .text.CRC_GetCRC:0000000000000014 .L0 
C:\Users\SOLDER~1\AppData\Local\Temp\cc2EfhU3.s:192    .text.CRC_SetIDRegister:000000000000001e .L0 
C:\Users\SOLDER~1\AppData\Local\Temp\cc2EfhU3.s:221    .text.CRC_GetIDRegister:0000000000000018 .L0 
                     .debug_frame:0000000000000000 .L0 
C:\Users\SOLDER~1\AppData\Local\Temp\cc2EfhU3.s:113    .text.CRC_CalcBlockCRC:0000000000000036 .L5
C:\Users\SOLDER~1\AppData\Local\Temp\cc2EfhU3.s:97     .text.CRC_CalcBlockCRC:0000000000000018 .L6
C:\Users\SOLDER~1\AppData\Local\Temp\cc2EfhU3.s:464    .debug_abbrev:0000000000000000 .Ldebug_abbrev0
C:\Users\SOLDER~1\AppData\Local\Temp\cc2EfhU3.s:18400  .debug_str:0000000000000668 .LASF5741
C:\Users\SOLDER~1\AppData\Local\Temp\cc2EfhU3.s:29789  .debug_line_str:0000000000000000 .LASF0
C:\Users\SOLDER~1\AppData\Local\Temp\cc2EfhU3.s:29791  .debug_line_str:000000000000001b .LASF1
C:\Users\SOLDER~1\AppData\Local\Temp\cc2EfhU3.s:765    .debug_rnglists:000000000000000c .LLRL0
C:\Users\SOLDER~1\AppData\Local\Temp\cc2EfhU3.s:18300  .debug_line:0000000000000000 .Ldebug_line0
C:\Users\SOLDER~1\AppData\Local\Temp\cc2EfhU3.s:787    .debug_macro:0000000000000000 .Ldebug_macro0
C:\Users\SOLDER~1\AppData\Local\Temp\cc2EfhU3.s:29724  .debug_str:000000000002ea03 .LASF5712
C:\Users\SOLDER~1\AppData\Local\Temp\cc2EfhU3.s:24530  .debug_str:0000000000019704 .LASF5713
C:\Users\SOLDER~1\AppData\Local\Temp\cc2EfhU3.s:20560  .debug_str:0000000000009386 .LASF5716
C:\Users\SOLDER~1\AppData\Local\Temp\cc2EfhU3.s:24030  .debug_str:00000000000176a2 .LASF5714
C:\Users\SOLDER~1\AppData\Local\Temp\cc2EfhU3.s:23338  .debug_str:0000000000014a2d .LASF5715
C:\Users\SOLDER~1\AppData\Local\Temp\cc2EfhU3.s:21898  .debug_str:000000000000eb58 .LASF5717
C:\Users\SOLDER~1\AppData\Local\Temp\cc2EfhU3.s:27486  .debug_str:0000000000025769 .LASF5718
C:\Users\SOLDER~1\AppData\Local\Temp\cc2EfhU3.s:27762  .debug_str:0000000000026a63 .LASF5719
C:\Users\SOLDER~1\AppData\Local\Temp\cc2EfhU3.s:24726  .debug_str:000000000001a361 .LASF5720
C:\Users\SOLDER~1\AppData\Local\Temp\cc2EfhU3.s:18412  .debug_str:00000000000007a8 .LASF5721
C:\Users\SOLDER~1\AppData\Local\Temp\cc2EfhU3.s:18322  .debug_str:000000000000014f .LASF5722
C:\Users\SOLDER~1\AppData\Local\Temp\cc2EfhU3.s:27850  .debug_str:0000000000027011 .LASF5723
C:\Users\SOLDER~1\AppData\Local\Temp\cc2EfhU3.s:27424  .debug_str:000000000002534c .LASF5724
C:\Users\SOLDER~1\AppData\Local\Temp\cc2EfhU3.s:27778  .debug_str:0000000000026b50 .LASF5725
C:\Users\SOLDER~1\AppData\Local\Temp\cc2EfhU3.s:19132  .debug_str:00000000000036e0 .LASF5726
C:\Users\SOLDER~1\AppData\Local\Temp\cc2EfhU3.s:21628  .debug_str:000000000000d9aa .LASF5727
C:\Users\SOLDER~1\AppData\Local\Temp\cc2EfhU3.s:27460  .debug_str:0000000000025596 .LASF5728
C:\Users\SOLDER~1\AppData\Local\Temp\cc2EfhU3.s:21100  .debug_str:000000000000b6b2 .LASF5729
C:\Users\SOLDER~1\AppData\Local\Temp\cc2EfhU3.s:23526  .debug_str:000000000001566d .LASF5730
C:\Users\SOLDER~1\AppData\Local\Temp\cc2EfhU3.s:24436  .debug_str:0000000000019120 .LASF5731
C:\Users\SOLDER~1\AppData\Local\Temp\cc2EfhU3.s:19848  .debug_str:00000000000064a8 .LASF5732
C:\Users\SOLDER~1\AppData\Local\Temp\cc2EfhU3.s:29056  .debug_str:000000000002beee .LASF5733
C:\Users\SOLDER~1\AppData\Local\Temp\cc2EfhU3.s:197    .text.CRC_GetIDRegister:0000000000000000 .LFB21
C:\Users\SOLDER~1\AppData\Local\Temp\cc2EfhU3.s:219    .text.CRC_GetIDRegister:0000000000000018 .LFE21
GAS LISTING C:\Users\SOLDER~1\AppData\Local\Temp\cc2EfhU3.s 			page 10


C:\Users\SOLDER~1\AppData\Local\Temp\cc2EfhU3.s:22794  .debug_str:0000000000012549 .LASF5742
C:\Users\SOLDER~1\AppData\Local\Temp\cc2EfhU3.s:165    .text.CRC_SetIDRegister:0000000000000000 .LFB20
C:\Users\SOLDER~1\AppData\Local\Temp\cc2EfhU3.s:190    .text.CRC_SetIDRegister:000000000000001e .LFE20
C:\Users\SOLDER~1\AppData\Local\Temp\cc2EfhU3.s:18408  .debug_str:0000000000000777 .LASF5735
C:\Users\SOLDER~1\AppData\Local\Temp\cc2EfhU3.s:26842  .debug_str:0000000000022d58 .LASF5734
C:\Users\SOLDER~1\AppData\Local\Temp\cc2EfhU3.s:137    .text.CRC_GetCRC:0000000000000000 .LFB19
C:\Users\SOLDER~1\AppData\Local\Temp\cc2EfhU3.s:158    .text.CRC_GetCRC:0000000000000014 .LFE19
C:\Users\SOLDER~1\AppData\Local\Temp\cc2EfhU3.s:20200  .debug_str:0000000000007bb4 .LASF5738
C:\Users\SOLDER~1\AppData\Local\Temp\cc2EfhU3.s:80     .text.CRC_CalcBlockCRC:0000000000000000 .LFB18
C:\Users\SOLDER~1\AppData\Local\Temp\cc2EfhU3.s:130    .text.CRC_CalcBlockCRC:0000000000000050 .LFE18
C:\Users\SOLDER~1\AppData\Local\Temp\cc2EfhU3.s:29772  .debug_str:000000000002ecdc .LASF5736
C:\Users\SOLDER~1\AppData\Local\Temp\cc2EfhU3.s:25980  .debug_str:000000000001f609 .LASF5737
C:\Users\SOLDER~1\AppData\Local\Temp\cc2EfhU3.s:22856  .debug_str:0000000000012915 .LASF5743
C:\Users\SOLDER~1\AppData\Local\Temp\cc2EfhU3.s:21972  .debug_str:000000000000f007 .LASF5739
C:\Users\SOLDER~1\AppData\Local\Temp\cc2EfhU3.s:46     .text.CRC_CalcCRC:0000000000000000 .LFB17
C:\Users\SOLDER~1\AppData\Local\Temp\cc2EfhU3.s:73     .text.CRC_CalcCRC:0000000000000022 .LFE17
C:\Users\SOLDER~1\AppData\Local\Temp\cc2EfhU3.s:28838  .debug_str:000000000002b0cd .LASF5740
C:\Users\SOLDER~1\AppData\Local\Temp\cc2EfhU3.s:23700  .debug_str:0000000000016181 .LASF5744
C:\Users\SOLDER~1\AppData\Local\Temp\cc2EfhU3.s:15     .text.CRC_ResetDR:0000000000000000 .LFB16
C:\Users\SOLDER~1\AppData\Local\Temp\cc2EfhU3.s:39     .text.CRC_ResetDR:0000000000000016 .LFE16
C:\Users\SOLDER~1\AppData\Local\Temp\cc2EfhU3.s:227    .debug_info:0000000000000000 .Ldebug_info0
C:\Users\SOLDER~1\AppData\Local\Temp\cc2EfhU3.s:1024   .debug_macro:0000000000000000 .Ldebug_macro2
C:\Users\SOLDER~1\AppData\Local\Temp\cc2EfhU3.s:29150  .debug_str:000000000002c4e3 .LASF318
C:\Users\SOLDER~1\AppData\Local\Temp\cc2EfhU3.s:1977   .debug_macro:0000000000000000 .Ldebug_macro3
C:\Users\SOLDER~1\AppData\Local\Temp\cc2EfhU3.s:24626  .debug_str:0000000000019d07 .LASF336
C:\Users\SOLDER~1\AppData\Local\Temp\cc2EfhU3.s:19334  .debug_str:00000000000043ca .LASF337
C:\Users\SOLDER~1\AppData\Local\Temp\cc2EfhU3.s:26586  .debug_str:0000000000021cf0 .LASF338
C:\Users\SOLDER~1\AppData\Local\Temp\cc2EfhU3.s:2033   .debug_macro:0000000000000000 .Ldebug_macro4
C:\Users\SOLDER~1\AppData\Local\Temp\cc2EfhU3.s:2053   .debug_macro:0000000000000000 .Ldebug_macro5
C:\Users\SOLDER~1\AppData\Local\Temp\cc2EfhU3.s:2118   .debug_macro:0000000000000000 .Ldebug_macro6
C:\Users\SOLDER~1\AppData\Local\Temp\cc2EfhU3.s:2159   .debug_macro:0000000000000000 .Ldebug_macro7
C:\Users\SOLDER~1\AppData\Local\Temp\cc2EfhU3.s:2284   .debug_macro:0000000000000000 .Ldebug_macro8
C:\Users\SOLDER~1\AppData\Local\Temp\cc2EfhU3.s:2340   .debug_macro:0000000000000000 .Ldebug_macro9
C:\Users\SOLDER~1\AppData\Local\Temp\cc2EfhU3.s:18672  .debug_str:00000000000018b3 .LASF493
C:\Users\SOLDER~1\AppData\Local\Temp\cc2EfhU3.s:2552   .debug_macro:0000000000000000 .Ldebug_macro10
C:\Users\SOLDER~1\AppData\Local\Temp\cc2EfhU3.s:2590   .debug_macro:0000000000000000 .Ldebug_macro11
C:\Users\SOLDER~1\AppData\Local\Temp\cc2EfhU3.s:18932  .debug_str:0000000000002a41 .LASF4592
C:\Users\SOLDER~1\AppData\Local\Temp\cc2EfhU3.s:27384  .debug_str:00000000000250c9 .LASF4593
C:\Users\SOLDER~1\AppData\Local\Temp\cc2EfhU3.s:14856  .debug_macro:0000000000000000 .Ldebug_macro12
C:\Users\SOLDER~1\AppData\Local\Temp\cc2EfhU3.s:15137  .debug_macro:0000000000000000 .Ldebug_macro13
C:\Users\SOLDER~1\AppData\Local\Temp\cc2EfhU3.s:15289  .debug_macro:0000000000000000 .Ldebug_macro14
C:\Users\SOLDER~1\AppData\Local\Temp\cc2EfhU3.s:15642  .debug_macro:0000000000000000 .Ldebug_macro15
C:\Users\SOLDER~1\AppData\Local\Temp\cc2EfhU3.s:15707  .debug_macro:0000000000000000 .Ldebug_macro16
C:\Users\SOLDER~1\AppData\Local\Temp\cc2EfhU3.s:15976  .debug_macro:0000000000000000 .Ldebug_macro17
C:\Users\SOLDER~1\AppData\Local\Temp\cc2EfhU3.s:16047  .debug_macro:0000000000000000 .Ldebug_macro18
C:\Users\SOLDER~1\AppData\Local\Temp\cc2EfhU3.s:16211  .debug_macro:0000000000000000 .Ldebug_macro19
C:\Users\SOLDER~1\AppData\Local\Temp\cc2EfhU3.s:16483  .debug_macro:0000000000000000 .Ldebug_macro20
C:\Users\SOLDER~1\AppData\Local\Temp\cc2EfhU3.s:16734  .debug_macro:0000000000000000 .Ldebug_macro21
C:\Users\SOLDER~1\AppData\Local\Temp\cc2EfhU3.s:16775  .debug_macro:0000000000000000 .Ldebug_macro22
C:\Users\SOLDER~1\AppData\Local\Temp\cc2EfhU3.s:16828  .debug_macro:0000000000000000 .Ldebug_macro23
C:\Users\SOLDER~1\AppData\Local\Temp\cc2EfhU3.s:17229  .debug_macro:0000000000000000 .Ldebug_macro24
C:\Users\SOLDER~1\AppData\Local\Temp\cc2EfhU3.s:17261  .debug_macro:0000000000000000 .Ldebug_macro25
C:\Users\SOLDER~1\AppData\Local\Temp\cc2EfhU3.s:17491  .debug_macro:0000000000000000 .Ldebug_macro26
C:\Users\SOLDER~1\AppData\Local\Temp\cc2EfhU3.s:18087  .debug_macro:0000000000000000 .Ldebug_macro27
C:\Users\SOLDER~1\AppData\Local\Temp\cc2EfhU3.s:18257  .debug_macro:0000000000000000 .Ldebug_macro28
C:\Users\SOLDER~1\AppData\Local\Temp\cc2EfhU3.s:18277  .debug_macro:0000000000000000 .Ldebug_macro29
C:\Users\SOLDER~1\AppData\Local\Temp\cc2EfhU3.s:19716  .debug_str:0000000000005c09 .LASF2
GAS LISTING C:\Users\SOLDER~1\AppData\Local\Temp\cc2EfhU3.s 			page 11


C:\Users\SOLDER~1\AppData\Local\Temp\cc2EfhU3.s:28538  .debug_str:0000000000029ce9 .LASF3
C:\Users\SOLDER~1\AppData\Local\Temp\cc2EfhU3.s:28910  .debug_str:000000000002b54d .LASF4
C:\Users\SOLDER~1\AppData\Local\Temp\cc2EfhU3.s:22422  .debug_str:0000000000010d6c .LASF5
C:\Users\SOLDER~1\AppData\Local\Temp\cc2EfhU3.s:23764  .debug_str:000000000001655e .LASF6
C:\Users\SOLDER~1\AppData\Local\Temp\cc2EfhU3.s:29324  .debug_str:000000000002d05d .LASF7
C:\Users\SOLDER~1\AppData\Local\Temp\cc2EfhU3.s:22482  .debug_str:000000000001114a .LASF8
C:\Users\SOLDER~1\AppData\Local\Temp\cc2EfhU3.s:23222  .debug_str:0000000000014257 .LASF9
C:\Users\SOLDER~1\AppData\Local\Temp\cc2EfhU3.s:20444  .debug_str:0000000000008ba9 .LASF10
C:\Users\SOLDER~1\AppData\Local\Temp\cc2EfhU3.s:28246  .debug_str:0000000000028a0e .LASF11
C:\Users\SOLDER~1\AppData\Local\Temp\cc2EfhU3.s:24814  .debug_str:000000000001a91c .LASF12
C:\Users\SOLDER~1\AppData\Local\Temp\cc2EfhU3.s:24672  .debug_str:0000000000019ff4 .LASF13
C:\Users\SOLDER~1\AppData\Local\Temp\cc2EfhU3.s:27190  .debug_str:000000000002444e .LASF14
C:\Users\SOLDER~1\AppData\Local\Temp\cc2EfhU3.s:24692  .debug_str:000000000001a130 .LASF15
C:\Users\SOLDER~1\AppData\Local\Temp\cc2EfhU3.s:20926  .debug_str:000000000000ab9d .LASF16
C:\Users\SOLDER~1\AppData\Local\Temp\cc2EfhU3.s:26088  .debug_str:000000000001fcb9 .LASF17
C:\Users\SOLDER~1\AppData\Local\Temp\cc2EfhU3.s:26804  .debug_str:0000000000022b11 .LASF18
C:\Users\SOLDER~1\AppData\Local\Temp\cc2EfhU3.s:20966  .debug_str:000000000000ae48 .LASF19
C:\Users\SOLDER~1\AppData\Local\Temp\cc2EfhU3.s:19870  .debug_str:0000000000006608 .LASF20
C:\Users\SOLDER~1\AppData\Local\Temp\cc2EfhU3.s:21960  .debug_str:000000000000ef55 .LASF21
C:\Users\SOLDER~1\AppData\Local\Temp\cc2EfhU3.s:27662  .debug_str:0000000000026395 .LASF22
C:\Users\SOLDER~1\AppData\Local\Temp\cc2EfhU3.s:24502  .debug_str:0000000000019598 .LASF23
C:\Users\SOLDER~1\AppData\Local\Temp\cc2EfhU3.s:24500  .debug_str:000000000001957e .LASF24
C:\Users\SOLDER~1\AppData\Local\Temp\cc2EfhU3.s:27114  .debug_str:0000000000023f32 .LASF25
C:\Users\SOLDER~1\AppData\Local\Temp\cc2EfhU3.s:27776  .debug_str:0000000000026b41 .LASF26
C:\Users\SOLDER~1\AppData\Local\Temp\cc2EfhU3.s:19226  .debug_str:0000000000003cf7 .LASF27
C:\Users\SOLDER~1\AppData\Local\Temp\cc2EfhU3.s:23904  .debug_str:0000000000016e35 .LASF28
C:\Users\SOLDER~1\AppData\Local\Temp\cc2EfhU3.s:27010  .debug_str:0000000000023839 .LASF29
C:\Users\SOLDER~1\AppData\Local\Temp\cc2EfhU3.s:26814  .debug_str:0000000000022bb9 .LASF30
C:\Users\SOLDER~1\AppData\Local\Temp\cc2EfhU3.s:19652  .debug_str:000000000000579a .LASF31
C:\Users\SOLDER~1\AppData\Local\Temp\cc2EfhU3.s:25866  .debug_str:000000000001ee2f .LASF32
C:\Users\SOLDER~1\AppData\Local\Temp\cc2EfhU3.s:18630  .debug_str:000000000000162d .LASF33
C:\Users\SOLDER~1\AppData\Local\Temp\cc2EfhU3.s:22648  .debug_str:0000000000011c06 .LASF34
C:\Users\SOLDER~1\AppData\Local\Temp\cc2EfhU3.s:23578  .debug_str:00000000000159ca .LASF35
C:\Users\SOLDER~1\AppData\Local\Temp\cc2EfhU3.s:21712  .debug_str:000000000000df21 .LASF36
C:\Users\SOLDER~1\AppData\Local\Temp\cc2EfhU3.s:20800  .debug_str:000000000000a335 .LASF37
C:\Users\SOLDER~1\AppData\Local\Temp\cc2EfhU3.s:20656  .debug_str:00000000000099b3 .LASF38
C:\Users\SOLDER~1\AppData\Local\Temp\cc2EfhU3.s:21984  .debug_str:000000000000f0bb .LASF39
C:\Users\SOLDER~1\AppData\Local\Temp\cc2EfhU3.s:24920  .debug_str:000000000001b017 .LASF40
C:\Users\SOLDER~1\AppData\Local\Temp\cc2EfhU3.s:20192  .debug_str:0000000000007b25 .LASF41
C:\Users\SOLDER~1\AppData\Local\Temp\cc2EfhU3.s:22360  .debug_str:0000000000010986 .LASF42
C:\Users\SOLDER~1\AppData\Local\Temp\cc2EfhU3.s:28078  .debug_str:0000000000027f21 .LASF43
C:\Users\SOLDER~1\AppData\Local\Temp\cc2EfhU3.s:18988  .debug_str:0000000000002d9f .LASF44
C:\Users\SOLDER~1\AppData\Local\Temp\cc2EfhU3.s:22052  .debug_str:000000000000f524 .LASF45
C:\Users\SOLDER~1\AppData\Local\Temp\cc2EfhU3.s:22956  .debug_str:0000000000012fb3 .LASF46
C:\Users\SOLDER~1\AppData\Local\Temp\cc2EfhU3.s:27390  .debug_str:0000000000025133 .LASF47
C:\Users\SOLDER~1\AppData\Local\Temp\cc2EfhU3.s:24910  .debug_str:000000000001af5e .LASF48
C:\Users\SOLDER~1\AppData\Local\Temp\cc2EfhU3.s:22808  .debug_str:0000000000012619 .LASF49
C:\Users\SOLDER~1\AppData\Local\Temp\cc2EfhU3.s:19484  .debug_str:0000000000004d39 .LASF50
C:\Users\SOLDER~1\AppData\Local\Temp\cc2EfhU3.s:22958  .debug_str:0000000000012fcc .LASF51
C:\Users\SOLDER~1\AppData\Local\Temp\cc2EfhU3.s:27574  .debug_str:0000000000025d97 .LASF52
C:\Users\SOLDER~1\AppData\Local\Temp\cc2EfhU3.s:21710  .debug_str:000000000000df01 .LASF53
C:\Users\SOLDER~1\AppData\Local\Temp\cc2EfhU3.s:18834  .debug_str:00000000000023b8 .LASF54
C:\Users\SOLDER~1\AppData\Local\Temp\cc2EfhU3.s:18330  .debug_str:00000000000001b4 .LASF55
C:\Users\SOLDER~1\AppData\Local\Temp\cc2EfhU3.s:28950  .debug_str:000000000002b7d8 .LASF56
C:\Users\SOLDER~1\AppData\Local\Temp\cc2EfhU3.s:26986  .debug_str:00000000000236dc .LASF57
C:\Users\SOLDER~1\AppData\Local\Temp\cc2EfhU3.s:18414  .debug_str:00000000000007ba .LASF58
C:\Users\SOLDER~1\AppData\Local\Temp\cc2EfhU3.s:22326  .debug_str:0000000000010733 .LASF59
GAS LISTING C:\Users\SOLDER~1\AppData\Local\Temp\cc2EfhU3.s 			page 12


C:\Users\SOLDER~1\AppData\Local\Temp\cc2EfhU3.s:20276  .debug_str:00000000000080bf .LASF60
C:\Users\SOLDER~1\AppData\Local\Temp\cc2EfhU3.s:26642  .debug_str:000000000002202f .LASF61
C:\Users\SOLDER~1\AppData\Local\Temp\cc2EfhU3.s:18582  .debug_str:0000000000001303 .LASF62
C:\Users\SOLDER~1\AppData\Local\Temp\cc2EfhU3.s:21596  .debug_str:000000000000d7c0 .LASF63
C:\Users\SOLDER~1\AppData\Local\Temp\cc2EfhU3.s:24466  .debug_str:000000000001931c .LASF64
C:\Users\SOLDER~1\AppData\Local\Temp\cc2EfhU3.s:25272  .debug_str:000000000001c73d .LASF65
C:\Users\SOLDER~1\AppData\Local\Temp\cc2EfhU3.s:19068  .debug_str:00000000000032bd .LASF66
C:\Users\SOLDER~1\AppData\Local\Temp\cc2EfhU3.s:21700  .debug_str:000000000000de52 .LASF67
C:\Users\SOLDER~1\AppData\Local\Temp\cc2EfhU3.s:21430  .debug_str:000000000000cce8 .LASF68
C:\Users\SOLDER~1\AppData\Local\Temp\cc2EfhU3.s:24900  .debug_str:000000000001aed6 .LASF69
C:\Users\SOLDER~1\AppData\Local\Temp\cc2EfhU3.s:23574  .debug_str:0000000000015983 .LASF70
C:\Users\SOLDER~1\AppData\Local\Temp\cc2EfhU3.s:28712  .debug_str:000000000002a843 .LASF71
C:\Users\SOLDER~1\AppData\Local\Temp\cc2EfhU3.s:29176  .debug_str:000000000002c67c .LASF72
C:\Users\SOLDER~1\AppData\Local\Temp\cc2EfhU3.s:22764  .debug_str:0000000000012337 .LASF73
C:\Users\SOLDER~1\AppData\Local\Temp\cc2EfhU3.s:21872  .debug_str:000000000000e9d8 .LASF74
C:\Users\SOLDER~1\AppData\Local\Temp\cc2EfhU3.s:19502  .debug_str:0000000000004e50 .LASF75
C:\Users\SOLDER~1\AppData\Local\Temp\cc2EfhU3.s:22798  .debug_str:000000000001257f .LASF76
C:\Users\SOLDER~1\AppData\Local\Temp\cc2EfhU3.s:21344  .debug_str:000000000000c705 .LASF77
C:\Users\SOLDER~1\AppData\Local\Temp\cc2EfhU3.s:23046  .debug_str:00000000000135c5 .LASF78
C:\Users\SOLDER~1\AppData\Local\Temp\cc2EfhU3.s:23580  .debug_str:00000000000159f8 .LASF79
C:\Users\SOLDER~1\AppData\Local\Temp\cc2EfhU3.s:22986  .debug_str:00000000000131bd .LASF80
C:\Users\SOLDER~1\AppData\Local\Temp\cc2EfhU3.s:27482  .debug_str:000000000002572e .LASF81
C:\Users\SOLDER~1\AppData\Local\Temp\cc2EfhU3.s:25398  .debug_str:000000000001cfce .LASF82
C:\Users\SOLDER~1\AppData\Local\Temp\cc2EfhU3.s:25830  .debug_str:000000000001ebec .LASF83
C:\Users\SOLDER~1\AppData\Local\Temp\cc2EfhU3.s:28698  .debug_str:000000000002a757 .LASF84
C:\Users\SOLDER~1\AppData\Local\Temp\cc2EfhU3.s:20748  .debug_str:0000000000009fb2 .LASF85
C:\Users\SOLDER~1\AppData\Local\Temp\cc2EfhU3.s:24586  .debug_str:0000000000019aa4 .LASF86
C:\Users\SOLDER~1\AppData\Local\Temp\cc2EfhU3.s:22800  .debug_str:00000000000125a6 .LASF87
C:\Users\SOLDER~1\AppData\Local\Temp\cc2EfhU3.s:24926  .debug_str:000000000001b077 .LASF88
C:\Users\SOLDER~1\AppData\Local\Temp\cc2EfhU3.s:20010  .debug_str:0000000000006f97 .LASF89
C:\Users\SOLDER~1\AppData\Local\Temp\cc2EfhU3.s:29170  .debug_str:000000000002c61a .LASF90
C:\Users\SOLDER~1\AppData\Local\Temp\cc2EfhU3.s:28866  .debug_str:000000000002b259 .LASF91
C:\Users\SOLDER~1\AppData\Local\Temp\cc2EfhU3.s:26254  .debug_str:000000000002077c .LASF92
C:\Users\SOLDER~1\AppData\Local\Temp\cc2EfhU3.s:24996  .debug_str:000000000001b4ec .LASF93
C:\Users\SOLDER~1\AppData\Local\Temp\cc2EfhU3.s:26278  .debug_str:0000000000020917 .LASF94
C:\Users\SOLDER~1\AppData\Local\Temp\cc2EfhU3.s:29086  .debug_str:000000000002c0e5 .LASF95
C:\Users\SOLDER~1\AppData\Local\Temp\cc2EfhU3.s:27880  .debug_str:0000000000027228 .LASF96
C:\Users\SOLDER~1\AppData\Local\Temp\cc2EfhU3.s:20834  .debug_str:000000000000a576 .LASF97
C:\Users\SOLDER~1\AppData\Local\Temp\cc2EfhU3.s:27108  .debug_str:0000000000023eb7 .LASF98
C:\Users\SOLDER~1\AppData\Local\Temp\cc2EfhU3.s:23284  .debug_str:000000000001468c .LASF99
C:\Users\SOLDER~1\AppData\Local\Temp\cc2EfhU3.s:27270  .debug_str:00000000000249a7 .LASF100
C:\Users\SOLDER~1\AppData\Local\Temp\cc2EfhU3.s:29362  .debug_str:000000000002d2be .LASF101
C:\Users\SOLDER~1\AppData\Local\Temp\cc2EfhU3.s:22892  .debug_str:0000000000012b89 .LASF102
C:\Users\SOLDER~1\AppData\Local\Temp\cc2EfhU3.s:26826  .debug_str:0000000000022c6a .LASF103
C:\Users\SOLDER~1\AppData\Local\Temp\cc2EfhU3.s:25462  .debug_str:000000000001d417 .LASF104
C:\Users\SOLDER~1\AppData\Local\Temp\cc2EfhU3.s:22378  .debug_str:0000000000010a99 .LASF105
C:\Users\SOLDER~1\AppData\Local\Temp\cc2EfhU3.s:20104  .debug_str:0000000000007587 .LASF106
C:\Users\SOLDER~1\AppData\Local\Temp\cc2EfhU3.s:22642  .debug_str:0000000000011b91 .LASF107
C:\Users\SOLDER~1\AppData\Local\Temp\cc2EfhU3.s:21622  .debug_str:000000000000d94c .LASF108
C:\Users\SOLDER~1\AppData\Local\Temp\cc2EfhU3.s:22816  .debug_str:00000000000126a9 .LASF109
C:\Users\SOLDER~1\AppData\Local\Temp\cc2EfhU3.s:19536  .debug_str:0000000000005047 .LASF110
C:\Users\SOLDER~1\AppData\Local\Temp\cc2EfhU3.s:22636  .debug_str:0000000000011b3b .LASF111
C:\Users\SOLDER~1\AppData\Local\Temp\cc2EfhU3.s:21618  .debug_str:000000000000d917 .LASF112
C:\Users\SOLDER~1\AppData\Local\Temp\cc2EfhU3.s:23104  .debug_str:0000000000013a15 .LASF113
C:\Users\SOLDER~1\AppData\Local\Temp\cc2EfhU3.s:22012  .debug_str:000000000000f28d .LASF114
C:\Users\SOLDER~1\AppData\Local\Temp\cc2EfhU3.s:24554  .debug_str:0000000000019894 .LASF115
C:\Users\SOLDER~1\AppData\Local\Temp\cc2EfhU3.s:21096  .debug_str:000000000000b674 .LASF116
GAS LISTING C:\Users\SOLDER~1\AppData\Local\Temp\cc2EfhU3.s 			page 13


C:\Users\SOLDER~1\AppData\Local\Temp\cc2EfhU3.s:20828  .debug_str:000000000000a4ef .LASF117
C:\Users\SOLDER~1\AppData\Local\Temp\cc2EfhU3.s:22180  .debug_str:000000000000fe19 .LASF118
C:\Users\SOLDER~1\AppData\Local\Temp\cc2EfhU3.s:28748  .debug_str:000000000002aabd .LASF119
C:\Users\SOLDER~1\AppData\Local\Temp\cc2EfhU3.s:24090  .debug_str:0000000000017a71 .LASF120
C:\Users\SOLDER~1\AppData\Local\Temp\cc2EfhU3.s:20600  .debug_str:000000000000962b .LASF121
C:\Users\SOLDER~1\AppData\Local\Temp\cc2EfhU3.s:25254  .debug_str:000000000001c609 .LASF122
C:\Users\SOLDER~1\AppData\Local\Temp\cc2EfhU3.s:29494  .debug_str:000000000002db47 .LASF123
C:\Users\SOLDER~1\AppData\Local\Temp\cc2EfhU3.s:21926  .debug_str:000000000000ed20 .LASF124
C:\Users\SOLDER~1\AppData\Local\Temp\cc2EfhU3.s:27468  .debug_str:0000000000025618 .LASF125
C:\Users\SOLDER~1\AppData\Local\Temp\cc2EfhU3.s:21398  .debug_str:000000000000cab4 .LASF126
C:\Users\SOLDER~1\AppData\Local\Temp\cc2EfhU3.s:21496  .debug_str:000000000000d136 .LASF127
C:\Users\SOLDER~1\AppData\Local\Temp\cc2EfhU3.s:19166  .debug_str:0000000000003918 .LASF128
C:\Users\SOLDER~1\AppData\Local\Temp\cc2EfhU3.s:19454  .debug_str:0000000000004b65 .LASF129
C:\Users\SOLDER~1\AppData\Local\Temp\cc2EfhU3.s:28438  .debug_str:000000000002966f .LASF130
C:\Users\SOLDER~1\AppData\Local\Temp\cc2EfhU3.s:22822  .debug_str:00000000000126ec .LASF131
C:\Users\SOLDER~1\AppData\Local\Temp\cc2EfhU3.s:25658  .debug_str:000000000001e075 .LASF132
C:\Users\SOLDER~1\AppData\Local\Temp\cc2EfhU3.s:20666  .debug_str:0000000000009a4e .LASF133
C:\Users\SOLDER~1\AppData\Local\Temp\cc2EfhU3.s:27986  .debug_str:00000000000278c1 .LASF134
C:\Users\SOLDER~1\AppData\Local\Temp\cc2EfhU3.s:28308  .debug_str:0000000000028dd4 .LASF135
C:\Users\SOLDER~1\AppData\Local\Temp\cc2EfhU3.s:28108  .debug_str:00000000000280fe .LASF136
C:\Users\SOLDER~1\AppData\Local\Temp\cc2EfhU3.s:21904  .debug_str:000000000000eba5 .LASF137
C:\Users\SOLDER~1\AppData\Local\Temp\cc2EfhU3.s:27378  .debug_str:0000000000025067 .LASF138
C:\Users\SOLDER~1\AppData\Local\Temp\cc2EfhU3.s:19440  .debug_str:0000000000004a58 .LASF139
C:\Users\SOLDER~1\AppData\Local\Temp\cc2EfhU3.s:20316  .debug_str:000000000000836d .LASF140
C:\Users\SOLDER~1\AppData\Local\Temp\cc2EfhU3.s:29168  .debug_str:000000000002c606 .LASF141
C:\Users\SOLDER~1\AppData\Local\Temp\cc2EfhU3.s:25148  .debug_str:000000000001beb3 .LASF142
C:\Users\SOLDER~1\AppData\Local\Temp\cc2EfhU3.s:28644  .debug_str:000000000002a41e .LASF143
C:\Users\SOLDER~1\AppData\Local\Temp\cc2EfhU3.s:27752  .debug_str:00000000000269be .LASF144
C:\Users\SOLDER~1\AppData\Local\Temp\cc2EfhU3.s:25346  .debug_str:000000000001cc6b .LASF145
C:\Users\SOLDER~1\AppData\Local\Temp\cc2EfhU3.s:20786  .debug_str:000000000000a235 .LASF146
C:\Users\SOLDER~1\AppData\Local\Temp\cc2EfhU3.s:23040  .debug_str:000000000001356b .LASF147
C:\Users\SOLDER~1\AppData\Local\Temp\cc2EfhU3.s:24518  .debug_str:0000000000019660 .LASF148
C:\Users\SOLDER~1\AppData\Local\Temp\cc2EfhU3.s:23588  .debug_str:0000000000015a50 .LASF149
C:\Users\SOLDER~1\AppData\Local\Temp\cc2EfhU3.s:21456  .debug_str:000000000000ce87 .LASF150
C:\Users\SOLDER~1\AppData\Local\Temp\cc2EfhU3.s:19500  .debug_str:0000000000004e39 .LASF151
C:\Users\SOLDER~1\AppData\Local\Temp\cc2EfhU3.s:22048  .debug_str:000000000000f4e6 .LASF152
C:\Users\SOLDER~1\AppData\Local\Temp\cc2EfhU3.s:24506  .debug_str:00000000000195c8 .LASF153
C:\Users\SOLDER~1\AppData\Local\Temp\cc2EfhU3.s:18404  .debug_str:0000000000000744 .LASF154
C:\Users\SOLDER~1\AppData\Local\Temp\cc2EfhU3.s:26816  .debug_str:0000000000022bd3 .LASF155
C:\Users\SOLDER~1\AppData\Local\Temp\cc2EfhU3.s:23094  .debug_str:0000000000013930 .LASF156
C:\Users\SOLDER~1\AppData\Local\Temp\cc2EfhU3.s:27754  .debug_str:00000000000269d6 .LASF157
C:\Users\SOLDER~1\AppData\Local\Temp\cc2EfhU3.s:25552  .debug_str:000000000001d966 .LASF158
C:\Users\SOLDER~1\AppData\Local\Temp\cc2EfhU3.s:27692  .debug_str:0000000000026590 .LASF159
C:\Users\SOLDER~1\AppData\Local\Temp\cc2EfhU3.s:28362  .debug_str:0000000000029168 .LASF160
C:\Users\SOLDER~1\AppData\Local\Temp\cc2EfhU3.s:25692  .debug_str:000000000001e289 .LASF161
C:\Users\SOLDER~1\AppData\Local\Temp\cc2EfhU3.s:21324  .debug_str:000000000000c5ab .LASF162
C:\Users\SOLDER~1\AppData\Local\Temp\cc2EfhU3.s:20418  .debug_str:00000000000089ee .LASF163
C:\Users\SOLDER~1\AppData\Local\Temp\cc2EfhU3.s:23232  .debug_str:00000000000142ff .LASF164
C:\Users\SOLDER~1\AppData\Local\Temp\cc2EfhU3.s:25194  .debug_str:000000000001c217 .LASF165
C:\Users\SOLDER~1\AppData\Local\Temp\cc2EfhU3.s:26634  .debug_str:0000000000021fd2 .LASF166
C:\Users\SOLDER~1\AppData\Local\Temp\cc2EfhU3.s:28238  .debug_str:000000000002898f .LASF167
C:\Users\SOLDER~1\AppData\Local\Temp\cc2EfhU3.s:27368  .debug_str:0000000000024fad .LASF168
C:\Users\SOLDER~1\AppData\Local\Temp\cc2EfhU3.s:29068  .debug_str:000000000002bfb7 .LASF169
C:\Users\SOLDER~1\AppData\Local\Temp\cc2EfhU3.s:20182  .debug_str:0000000000007a75 .LASF170
C:\Users\SOLDER~1\AppData\Local\Temp\cc2EfhU3.s:28740  .debug_str:000000000002aa3d .LASF171
C:\Users\SOLDER~1\AppData\Local\Temp\cc2EfhU3.s:20562  .debug_str:0000000000009390 .LASF172
C:\Users\SOLDER~1\AppData\Local\Temp\cc2EfhU3.s:25054  .debug_str:000000000001b87a .LASF173
GAS LISTING C:\Users\SOLDER~1\AppData\Local\Temp\cc2EfhU3.s 			page 14


C:\Users\SOLDER~1\AppData\Local\Temp\cc2EfhU3.s:24308  .debug_str:0000000000018890 .LASF174
C:\Users\SOLDER~1\AppData\Local\Temp\cc2EfhU3.s:28170  .debug_str:00000000000284fa .LASF175
C:\Users\SOLDER~1\AppData\Local\Temp\cc2EfhU3.s:25190  .debug_str:000000000001c1a9 .LASF176
C:\Users\SOLDER~1\AppData\Local\Temp\cc2EfhU3.s:25472  .debug_str:000000000001d4ab .LASF177
C:\Users\SOLDER~1\AppData\Local\Temp\cc2EfhU3.s:20780  .debug_str:000000000000a1f0 .LASF178
C:\Users\SOLDER~1\AppData\Local\Temp\cc2EfhU3.s:22762  .debug_str:000000000001231f .LASF179
C:\Users\SOLDER~1\AppData\Local\Temp\cc2EfhU3.s:24630  .debug_str:0000000000019d35 .LASF180
C:\Users\SOLDER~1\AppData\Local\Temp\cc2EfhU3.s:19840  .debug_str:000000000000643b .LASF181
C:\Users\SOLDER~1\AppData\Local\Temp\cc2EfhU3.s:20642  .debug_str:00000000000098ec .LASF182
C:\Users\SOLDER~1\AppData\Local\Temp\cc2EfhU3.s:19302  .debug_str:00000000000041d2 .LASF183
C:\Users\SOLDER~1\AppData\Local\Temp\cc2EfhU3.s:24686  .debug_str:000000000001a0d1 .LASF184
C:\Users\SOLDER~1\AppData\Local\Temp\cc2EfhU3.s:23234  .debug_str:0000000000014316 .LASF185
C:\Users\SOLDER~1\AppData\Local\Temp\cc2EfhU3.s:18828  .debug_str:0000000000002348 .LASF186
C:\Users\SOLDER~1\AppData\Local\Temp\cc2EfhU3.s:29360  .debug_str:000000000002d2ab .LASF187
C:\Users\SOLDER~1\AppData\Local\Temp\cc2EfhU3.s:18614  .debug_str:0000000000001538 .LASF188
C:\Users\SOLDER~1\AppData\Local\Temp\cc2EfhU3.s:23214  .debug_str:00000000000141bd .LASF189
C:\Users\SOLDER~1\AppData\Local\Temp\cc2EfhU3.s:23658  .debug_str:0000000000015ec3 .LASF190
C:\Users\SOLDER~1\AppData\Local\Temp\cc2EfhU3.s:28570  .debug_str:0000000000029f15 .LASF191
C:\Users\SOLDER~1\AppData\Local\Temp\cc2EfhU3.s:21654  .debug_str:000000000000db36 .LASF192
C:\Users\SOLDER~1\AppData\Local\Temp\cc2EfhU3.s:29038  .debug_str:000000000002bd96 .LASF193
C:\Users\SOLDER~1\AppData\Local\Temp\cc2EfhU3.s:23180  .debug_str:0000000000013f52 .LASF194
C:\Users\SOLDER~1\AppData\Local\Temp\cc2EfhU3.s:21946  .debug_str:000000000000ee85 .LASF195
C:\Users\SOLDER~1\AppData\Local\Temp\cc2EfhU3.s:20978  .debug_str:000000000000af13 .LASF196
C:\Users\SOLDER~1\AppData\Local\Temp\cc2EfhU3.s:25748  .debug_str:000000000001e678 .LASF197
C:\Users\SOLDER~1\AppData\Local\Temp\cc2EfhU3.s:28658  .debug_str:000000000002a511 .LASF198
C:\Users\SOLDER~1\AppData\Local\Temp\cc2EfhU3.s:23456  .debug_str:00000000000151e3 .LASF199
C:\Users\SOLDER~1\AppData\Local\Temp\cc2EfhU3.s:25944  .debug_str:000000000001f389 .LASF200
C:\Users\SOLDER~1\AppData\Local\Temp\cc2EfhU3.s:18624  .debug_str:00000000000015da .LASF201
C:\Users\SOLDER~1\AppData\Local\Temp\cc2EfhU3.s:29592  .debug_str:000000000002e149 .LASF202
C:\Users\SOLDER~1\AppData\Local\Temp\cc2EfhU3.s:23432  .debug_str:0000000000015035 .LASF203
C:\Users\SOLDER~1\AppData\Local\Temp\cc2EfhU3.s:26130  .debug_str:000000000001ff63 .LASF204
C:\Users\SOLDER~1\AppData\Local\Temp\cc2EfhU3.s:24706  .debug_str:000000000001a213 .LASF205
C:\Users\SOLDER~1\AppData\Local\Temp\cc2EfhU3.s:19888  .debug_str:0000000000006746 .LASF206
C:\Users\SOLDER~1\AppData\Local\Temp\cc2EfhU3.s:23444  .debug_str:00000000000150fc .LASF207
C:\Users\SOLDER~1\AppData\Local\Temp\cc2EfhU3.s:25394  .debug_str:000000000001cf67 .LASF208
C:\Users\SOLDER~1\AppData\Local\Temp\cc2EfhU3.s:26366  .debug_str:0000000000020ec5 .LASF209
C:\Users\SOLDER~1\AppData\Local\Temp\cc2EfhU3.s:22270  .debug_str:00000000000103d8 .LASF210
C:\Users\SOLDER~1\AppData\Local\Temp\cc2EfhU3.s:27756  .debug_str:0000000000026a12 .LASF211
C:\Users\SOLDER~1\AppData\Local\Temp\cc2EfhU3.s:27560  .debug_str:0000000000025c81 .LASF212
C:\Users\SOLDER~1\AppData\Local\Temp\cc2EfhU3.s:20126  .debug_str:00000000000076f2 .LASF213
C:\Users\SOLDER~1\AppData\Local\Temp\cc2EfhU3.s:27074  .debug_str:0000000000023c80 .LASF214
C:\Users\SOLDER~1\AppData\Local\Temp\cc2EfhU3.s:23746  .debug_str:0000000000016473 .LASF215
C:\Users\SOLDER~1\AppData\Local\Temp\cc2EfhU3.s:20092  .debug_str:00000000000074e3 .LASF216
C:\Users\SOLDER~1\AppData\Local\Temp\cc2EfhU3.s:20504  .debug_str:0000000000008fc3 .LASF217
C:\Users\SOLDER~1\AppData\Local\Temp\cc2EfhU3.s:27632  .debug_str:00000000000261b7 .LASF218
C:\Users\SOLDER~1\AppData\Local\Temp\cc2EfhU3.s:26564  .debug_str:0000000000021b77 .LASF219
C:\Users\SOLDER~1\AppData\Local\Temp\cc2EfhU3.s:18924  .debug_str:00000000000029c9 .LASF220
C:\Users\SOLDER~1\AppData\Local\Temp\cc2EfhU3.s:20636  .debug_str:0000000000009869 .LASF221
C:\Users\SOLDER~1\AppData\Local\Temp\cc2EfhU3.s:18344  .debug_str:00000000000002a4 .LASF222
C:\Users\SOLDER~1\AppData\Local\Temp\cc2EfhU3.s:26164  .debug_str:0000000000020182 .LASF223
C:\Users\SOLDER~1\AppData\Local\Temp\cc2EfhU3.s:20550  .debug_str:00000000000092c9 .LASF224
C:\Users\SOLDER~1\AppData\Local\Temp\cc2EfhU3.s:19896  .debug_str:00000000000067f9 .LASF225
C:\Users\SOLDER~1\AppData\Local\Temp\cc2EfhU3.s:25656  .debug_str:000000000001e05e .LASF226
C:\Users\SOLDER~1\AppData\Local\Temp\cc2EfhU3.s:23840  .debug_str:0000000000016a4b .LASF227
C:\Users\SOLDER~1\AppData\Local\Temp\cc2EfhU3.s:22188  .debug_str:000000000000fe89 .LASF228
C:\Users\SOLDER~1\AppData\Local\Temp\cc2EfhU3.s:26162  .debug_str:0000000000020169 .LASF229
C:\Users\SOLDER~1\AppData\Local\Temp\cc2EfhU3.s:27198  .debug_str:00000000000244cf .LASF230
GAS LISTING C:\Users\SOLDER~1\AppData\Local\Temp\cc2EfhU3.s 			page 15


C:\Users\SOLDER~1\AppData\Local\Temp\cc2EfhU3.s:22212  .debug_str:000000000001000a .LASF231
C:\Users\SOLDER~1\AppData\Local\Temp\cc2EfhU3.s:27982  .debug_str:0000000000027885 .LASF232
C:\Users\SOLDER~1\AppData\Local\Temp\cc2EfhU3.s:27262  .debug_str:0000000000024922 .LASF233
C:\Users\SOLDER~1\AppData\Local\Temp\cc2EfhU3.s:29014  .debug_str:000000000002bbe1 .LASF234
C:\Users\SOLDER~1\AppData\Local\Temp\cc2EfhU3.s:20290  .debug_str:00000000000081be .LASF235
C:\Users\SOLDER~1\AppData\Local\Temp\cc2EfhU3.s:22264  .debug_str:0000000000010370 .LASF236
C:\Users\SOLDER~1\AppData\Local\Temp\cc2EfhU3.s:21718  .debug_str:000000000000df91 .LASF237
C:\Users\SOLDER~1\AppData\Local\Temp\cc2EfhU3.s:27432  .debug_str:00000000000253b5 .LASF238
C:\Users\SOLDER~1\AppData\Local\Temp\cc2EfhU3.s:23078  .debug_str:00000000000137f6 .LASF239
C:\Users\SOLDER~1\AppData\Local\Temp\cc2EfhU3.s:26178  .debug_str:0000000000020273 .LASF240
C:\Users\SOLDER~1\AppData\Local\Temp\cc2EfhU3.s:18472  .debug_str:0000000000000be1 .LASF241
C:\Users\SOLDER~1\AppData\Local\Temp\cc2EfhU3.s:24038  .debug_str:00000000000176f8 .LASF242
C:\Users\SOLDER~1\AppData\Local\Temp\cc2EfhU3.s:25486  .debug_str:000000000001d576 .LASF243
C:\Users\SOLDER~1\AppData\Local\Temp\cc2EfhU3.s:24864  .debug_str:000000000001acb1 .LASF244
C:\Users\SOLDER~1\AppData\Local\Temp\cc2EfhU3.s:29328  .debug_str:000000000002d092 .LASF245
C:\Users\SOLDER~1\AppData\Local\Temp\cc2EfhU3.s:25422  .debug_str:000000000001d185 .LASF246
C:\Users\SOLDER~1\AppData\Local\Temp\cc2EfhU3.s:28462  .debug_str:00000000000297c3 .LASF247
C:\Users\SOLDER~1\AppData\Local\Temp\cc2EfhU3.s:21742  .debug_str:000000000000e174 .LASF248
C:\Users\SOLDER~1\AppData\Local\Temp\cc2EfhU3.s:27844  .debug_str:0000000000026fa1 .LASF249
C:\Users\SOLDER~1\AppData\Local\Temp\cc2EfhU3.s:21594  .debug_str:000000000000d7a8 .LASF250
C:\Users\SOLDER~1\AppData\Local\Temp\cc2EfhU3.s:24774  .debug_str:000000000001a6a4 .LASF251
C:\Users\SOLDER~1\AppData\Local\Temp\cc2EfhU3.s:22302  .debug_str:00000000000105c9 .LASF252
C:\Users\SOLDER~1\AppData\Local\Temp\cc2EfhU3.s:18548  .debug_str:00000000000010c2 .LASF253
C:\Users\SOLDER~1\AppData\Local\Temp\cc2EfhU3.s:21052  .debug_str:000000000000b3a6 .LASF254
C:\Users\SOLDER~1\AppData\Local\Temp\cc2EfhU3.s:18490  .debug_str:0000000000000d36 .LASF255
C:\Users\SOLDER~1\AppData\Local\Temp\cc2EfhU3.s:21158  .debug_str:000000000000ba5b .LASF256
C:\Users\SOLDER~1\AppData\Local\Temp\cc2EfhU3.s:18794  .debug_str:00000000000020db .LASF257
C:\Users\SOLDER~1\AppData\Local\Temp\cc2EfhU3.s:29534  .debug_str:000000000002ddb4 .LASF258
C:\Users\SOLDER~1\AppData\Local\Temp\cc2EfhU3.s:25370  .debug_str:000000000001cddd .LASF259
C:\Users\SOLDER~1\AppData\Local\Temp\cc2EfhU3.s:24190  .debug_str:0000000000018125 .LASF260
C:\Users\SOLDER~1\AppData\Local\Temp\cc2EfhU3.s:24984  .debug_str:000000000001b430 .LASF261
C:\Users\SOLDER~1\AppData\Local\Temp\cc2EfhU3.s:21770  .debug_str:000000000000e34c .LASF262
C:\Users\SOLDER~1\AppData\Local\Temp\cc2EfhU3.s:21104  .debug_str:000000000000b6e3 .LASF263
C:\Users\SOLDER~1\AppData\Local\Temp\cc2EfhU3.s:28830  .debug_str:000000000002b042 .LASF264
C:\Users\SOLDER~1\AppData\Local\Temp\cc2EfhU3.s:21414  .debug_str:000000000000cbd0 .LASF265
C:\Users\SOLDER~1\AppData\Local\Temp\cc2EfhU3.s:22394  .debug_str:0000000000010b8f .LASF266
C:\Users\SOLDER~1\AppData\Local\Temp\cc2EfhU3.s:24222  .debug_str:000000000001831d .LASF267
C:\Users\SOLDER~1\AppData\Local\Temp\cc2EfhU3.s:28090  .debug_str:0000000000027ff9 .LASF268
C:\Users\SOLDER~1\AppData\Local\Temp\cc2EfhU3.s:21236  .debug_str:000000000000bf6a .LASF269
C:\Users\SOLDER~1\AppData\Local\Temp\cc2EfhU3.s:19984  .debug_str:0000000000006d7d .LASF270
C:\Users\SOLDER~1\AppData\Local\Temp\cc2EfhU3.s:20160  .debug_str:00000000000078e7 .LASF271
C:\Users\SOLDER~1\AppData\Local\Temp\cc2EfhU3.s:21468  .debug_str:000000000000cf5a .LASF272
C:\Users\SOLDER~1\AppData\Local\Temp\cc2EfhU3.s:21304  .debug_str:000000000000c43b .LASF273
C:\Users\SOLDER~1\AppData\Local\Temp\cc2EfhU3.s:18636  .debug_str:00000000000016a0 .LASF274
C:\Users\SOLDER~1\AppData\Local\Temp\cc2EfhU3.s:19976  .debug_str:0000000000006d0a .LASF275
C:\Users\SOLDER~1\AppData\Local\Temp\cc2EfhU3.s:28766  .debug_str:000000000002abd9 .LASF276
C:\Users\SOLDER~1\AppData\Local\Temp\cc2EfhU3.s:26716  .debug_str:000000000002250b .LASF277
C:\Users\SOLDER~1\AppData\Local\Temp\cc2EfhU3.s:27658  .debug_str:000000000002636f .LASF278
C:\Users\SOLDER~1\AppData\Local\Temp\cc2EfhU3.s:19936  .debug_str:0000000000006a79 .LASF279
C:\Users\SOLDER~1\AppData\Local\Temp\cc2EfhU3.s:19718  .debug_str:0000000000005c14 .LASF280
C:\Users\SOLDER~1\AppData\Local\Temp\cc2EfhU3.s:19596  .debug_str:000000000000540e .LASF281
C:\Users\SOLDER~1\AppData\Local\Temp\cc2EfhU3.s:24252  .debug_str:0000000000018520 .LASF282
C:\Users\SOLDER~1\AppData\Local\Temp\cc2EfhU3.s:27628  .debug_str:0000000000026172 .LASF283
C:\Users\SOLDER~1\AppData\Local\Temp\cc2EfhU3.s:27888  .debug_str:000000000002729f .LASF284
C:\Users\SOLDER~1\AppData\Local\Temp\cc2EfhU3.s:28746  .debug_str:000000000002aa9f .LASF285
C:\Users\SOLDER~1\AppData\Local\Temp\cc2EfhU3.s:25432  .debug_str:000000000001d229 .LASF286
C:\Users\SOLDER~1\AppData\Local\Temp\cc2EfhU3.s:29524  .debug_str:000000000002dd13 .LASF287
GAS LISTING C:\Users\SOLDER~1\AppData\Local\Temp\cc2EfhU3.s 			page 16


C:\Users\SOLDER~1\AppData\Local\Temp\cc2EfhU3.s:19690  .debug_str:0000000000005a36 .LASF288
C:\Users\SOLDER~1\AppData\Local\Temp\cc2EfhU3.s:23460  .debug_str:0000000000015218 .LASF289
C:\Users\SOLDER~1\AppData\Local\Temp\cc2EfhU3.s:22348  .debug_str:00000000000108d1 .LASF290
C:\Users\SOLDER~1\AppData\Local\Temp\cc2EfhU3.s:29762  .debug_str:000000000002ec42 .LASF291
C:\Users\SOLDER~1\AppData\Local\Temp\cc2EfhU3.s:28588  .debug_str:000000000002a070 .LASF292
C:\Users\SOLDER~1\AppData\Local\Temp\cc2EfhU3.s:19522  .debug_str:0000000000004f82 .LASF293
C:\Users\SOLDER~1\AppData\Local\Temp\cc2EfhU3.s:18346  .debug_str:00000000000002e5 .LASF294
C:\Users\SOLDER~1\AppData\Local\Temp\cc2EfhU3.s:23510  .debug_str:0000000000015573 .LASF295
C:\Users\SOLDER~1\AppData\Local\Temp\cc2EfhU3.s:24326  .debug_str:00000000000189de .LASF296
C:\Users\SOLDER~1\AppData\Local\Temp\cc2EfhU3.s:21762  .debug_str:000000000000e2c6 .LASF297
C:\Users\SOLDER~1\AppData\Local\Temp\cc2EfhU3.s:22294  .debug_str:0000000000010556 .LASF298
C:\Users\SOLDER~1\AppData\Local\Temp\cc2EfhU3.s:25024  .debug_str:000000000001b692 .LASF299
C:\Users\SOLDER~1\AppData\Local\Temp\cc2EfhU3.s:23582  .debug_str:0000000000015a11 .LASF300
C:\Users\SOLDER~1\AppData\Local\Temp\cc2EfhU3.s:23020  .debug_str:0000000000013405 .LASF301
C:\Users\SOLDER~1\AppData\Local\Temp\cc2EfhU3.s:18864  .debug_str:00000000000025c2 .LASF302
C:\Users\SOLDER~1\AppData\Local\Temp\cc2EfhU3.s:21420  .debug_str:000000000000cc39 .LASF303
C:\Users\SOLDER~1\AppData\Local\Temp\cc2EfhU3.s:26796  .debug_str:0000000000022a8e .LASF304
C:\Users\SOLDER~1\AppData\Local\Temp\cc2EfhU3.s:22314  .debug_str:0000000000010668 .LASF305
C:\Users\SOLDER~1\AppData\Local\Temp\cc2EfhU3.s:27648  .debug_str:00000000000262de .LASF306
C:\Users\SOLDER~1\AppData\Local\Temp\cc2EfhU3.s:27234  .debug_str:0000000000024732 .LASF307
C:\Users\SOLDER~1\AppData\Local\Temp\cc2EfhU3.s:25444  .debug_str:000000000001d2f4 .LASF308
C:\Users\SOLDER~1\AppData\Local\Temp\cc2EfhU3.s:19308  .debug_str:0000000000004236 .LASF309
C:\Users\SOLDER~1\AppData\Local\Temp\cc2EfhU3.s:25808  .debug_str:000000000001ea73 .LASF310
C:\Users\SOLDER~1\AppData\Local\Temp\cc2EfhU3.s:21540  .debug_str:000000000000d42c .LASF311
C:\Users\SOLDER~1\AppData\Local\Temp\cc2EfhU3.s:22848  .debug_str:0000000000012893 .LASF312
C:\Users\SOLDER~1\AppData\Local\Temp\cc2EfhU3.s:20706  .debug_str:0000000000009cdf .LASF313
C:\Users\SOLDER~1\AppData\Local\Temp\cc2EfhU3.s:23278  .debug_str:0000000000014634 .LASF314
C:\Users\SOLDER~1\AppData\Local\Temp\cc2EfhU3.s:26324  .debug_str:0000000000020bfc .LASF315
C:\Users\SOLDER~1\AppData\Local\Temp\cc2EfhU3.s:25516  .debug_str:000000000001d730 .LASF316
C:\Users\SOLDER~1\AppData\Local\Temp\cc2EfhU3.s:27978  .debug_str:0000000000027856 .LASF317
C:\Users\SOLDER~1\AppData\Local\Temp\cc2EfhU3.s:27240  .debug_str:000000000002479f .LASF319
C:\Users\SOLDER~1\AppData\Local\Temp\cc2EfhU3.s:22152  .debug_str:000000000000fc2a .LASF320
C:\Users\SOLDER~1\AppData\Local\Temp\cc2EfhU3.s:23430  .debug_str:0000000000015010 .LASF321
C:\Users\SOLDER~1\AppData\Local\Temp\cc2EfhU3.s:25848  .debug_str:000000000001ecfc .LASF322
C:\Users\SOLDER~1\AppData\Local\Temp\cc2EfhU3.s:24680  .debug_str:000000000001a071 .LASF323
C:\Users\SOLDER~1\AppData\Local\Temp\cc2EfhU3.s:21434  .debug_str:000000000000cd24 .LASF324
C:\Users\SOLDER~1\AppData\Local\Temp\cc2EfhU3.s:19686  .debug_str:00000000000059fd .LASF325
C:\Users\SOLDER~1\AppData\Local\Temp\cc2EfhU3.s:18428  .debug_str:00000000000008ab .LASF326
C:\Users\SOLDER~1\AppData\Local\Temp\cc2EfhU3.s:28592  .debug_str:000000000002a0b5 .LASF327
C:\Users\SOLDER~1\AppData\Local\Temp\cc2EfhU3.s:21510  .debug_str:000000000000d21f .LASF328
C:\Users\SOLDER~1\AppData\Local\Temp\cc2EfhU3.s:29450  .debug_str:000000000002d849 .LASF329
C:\Users\SOLDER~1\AppData\Local\Temp\cc2EfhU3.s:19810  .debug_str:000000000000623e .LASF330
C:\Users\SOLDER~1\AppData\Local\Temp\cc2EfhU3.s:19356  .debug_str:0000000000004514 .LASF331
C:\Users\SOLDER~1\AppData\Local\Temp\cc2EfhU3.s:18358  .debug_str:00000000000003a6 .LASF332
C:\Users\SOLDER~1\AppData\Local\Temp\cc2EfhU3.s:23680  .debug_str:0000000000016038 .LASF333
C:\Users\SOLDER~1\AppData\Local\Temp\cc2EfhU3.s:26268  .debug_str:0000000000020872 .LASF334
C:\Users\SOLDER~1\AppData\Local\Temp\cc2EfhU3.s:24562  .debug_str:0000000000019915 .LASF335
C:\Users\SOLDER~1\AppData\Local\Temp\cc2EfhU3.s:24424  .debug_str:0000000000019056 .LASF339
C:\Users\SOLDER~1\AppData\Local\Temp\cc2EfhU3.s:24960  .debug_str:000000000001b2a9 .LASF340
C:\Users\SOLDER~1\AppData\Local\Temp\cc2EfhU3.s:21004  .debug_str:000000000000b097 .LASF341
C:\Users\SOLDER~1\AppData\Local\Temp\cc2EfhU3.s:24196  .debug_str:000000000001818b .LASF342
C:\Users\SOLDER~1\AppData\Local\Temp\cc2EfhU3.s:24410  .debug_str:0000000000018f7c .LASF343
C:\Users\SOLDER~1\AppData\Local\Temp\cc2EfhU3.s:18908  .debug_str:000000000000287f .LASF344
C:\Users\SOLDER~1\AppData\Local\Temp\cc2EfhU3.s:21046  .debug_str:000000000000b334 .LASF345
C:\Users\SOLDER~1\AppData\Local\Temp\cc2EfhU3.s:19222  .debug_str:0000000000003cb4 .LASF346
C:\Users\SOLDER~1\AppData\Local\Temp\cc2EfhU3.s:29114  .debug_str:000000000002c2a6 .LASF347
C:\Users\SOLDER~1\AppData\Local\Temp\cc2EfhU3.s:23768  .debug_str:00000000000165a8 .LASF348
GAS LISTING C:\Users\SOLDER~1\AppData\Local\Temp\cc2EfhU3.s 			page 17


C:\Users\SOLDER~1\AppData\Local\Temp\cc2EfhU3.s:26198  .debug_str:00000000000203d3 .LASF349
C:\Users\SOLDER~1\AppData\Local\Temp\cc2EfhU3.s:20540  .debug_str:0000000000009244 .LASF350
C:\Users\SOLDER~1\AppData\Local\Temp\cc2EfhU3.s:24262  .debug_str:00000000000185b7 .LASF351
C:\Users\SOLDER~1\AppData\Local\Temp\cc2EfhU3.s:29440  .debug_str:000000000002d7b2 .LASF352
C:\Users\SOLDER~1\AppData\Local\Temp\cc2EfhU3.s:20980  .debug_str:000000000000af2c .LASF353
C:\Users\SOLDER~1\AppData\Local\Temp\cc2EfhU3.s:22064  .debug_str:000000000000f5fa .LASF354
C:\Users\SOLDER~1\AppData\Local\Temp\cc2EfhU3.s:25458  .debug_str:000000000001d3e0 .LASF355
C:\Users\SOLDER~1\AppData\Local\Temp\cc2EfhU3.s:23678  .debug_str:0000000000016028 .LASF356
C:\Users\SOLDER~1\AppData\Local\Temp\cc2EfhU3.s:23816  .debug_str:00000000000168cc .LASF357
C:\Users\SOLDER~1\AppData\Local\Temp\cc2EfhU3.s:26840  .debug_str:0000000000022d42 .LASF358
C:\Users\SOLDER~1\AppData\Local\Temp\cc2EfhU3.s:22904  .debug_str:0000000000012c63 .LASF359
C:\Users\SOLDER~1\AppData\Local\Temp\cc2EfhU3.s:23880  .debug_str:0000000000016c90 .LASF360
C:\Users\SOLDER~1\AppData\Local\Temp\cc2EfhU3.s:26952  .debug_str:00000000000234b7 .LASF361
C:\Users\SOLDER~1\AppData\Local\Temp\cc2EfhU3.s:20048  .debug_str:00000000000071fa .LASF362
C:\Users\SOLDER~1\AppData\Local\Temp\cc2EfhU3.s:28720  .debug_str:000000000002a8d7 .LASF363
C:\Users\SOLDER~1\AppData\Local\Temp\cc2EfhU3.s:19566  .debug_str:0000000000005237 .LASF364
C:\Users\SOLDER~1\AppData\Local\Temp\cc2EfhU3.s:24346  .debug_str:0000000000018b3e .LASF365
C:\Users\SOLDER~1\AppData\Local\Temp\cc2EfhU3.s:20144  .debug_str:00000000000077dd .LASF366
C:\Users\SOLDER~1\AppData\Local\Temp\cc2EfhU3.s:21064  .debug_str:000000000000b496 .LASF367
C:\Users\SOLDER~1\AppData\Local\Temp\cc2EfhU3.s:18318  .debug_str:000000000000011b .LASF368
C:\Users\SOLDER~1\AppData\Local\Temp\cc2EfhU3.s:26148  .debug_str:0000000000020085 .LASF369
C:\Users\SOLDER~1\AppData\Local\Temp\cc2EfhU3.s:21752  .debug_str:000000000000e219 .LASF370
C:\Users\SOLDER~1\AppData\Local\Temp\cc2EfhU3.s:27144  .debug_str:000000000002412d .LASF371
C:\Users\SOLDER~1\AppData\Local\Temp\cc2EfhU3.s:26084  .debug_str:000000000001fc7b .LASF372
C:\Users\SOLDER~1\AppData\Local\Temp\cc2EfhU3.s:22506  .debug_str:00000000000112bb .LASF373
C:\Users\SOLDER~1\AppData\Local\Temp\cc2EfhU3.s:29584  .debug_str:000000000002e0cc .LASF374
C:\Users\SOLDER~1\AppData\Local\Temp\cc2EfhU3.s:29522  .debug_str:000000000002dd0d .LASF375
C:\Users\SOLDER~1\AppData\Local\Temp\cc2EfhU3.s:20324  .debug_str:00000000000083ee .LASF376
C:\Users\SOLDER~1\AppData\Local\Temp\cc2EfhU3.s:28622  .debug_str:000000000002a2a1 .LASF377
C:\Users\SOLDER~1\AppData\Local\Temp\cc2EfhU3.s:23664  .debug_str:0000000000015f4b .LASF378
C:\Users\SOLDER~1\AppData\Local\Temp\cc2EfhU3.s:27412  .debug_str:000000000002527b .LASF379
C:\Users\SOLDER~1\AppData\Local\Temp\cc2EfhU3.s:28422  .debug_str:000000000002957f .LASF380
C:\Users\SOLDER~1\AppData\Local\Temp\cc2EfhU3.s:26878  .debug_str:0000000000022fb1 .LASF381
C:\Users\SOLDER~1\AppData\Local\Temp\cc2EfhU3.s:23856  .debug_str:0000000000016b33 .LASF382
C:\Users\SOLDER~1\AppData\Local\Temp\cc2EfhU3.s:28448  .debug_str:00000000000296fd .LASF383
C:\Users\SOLDER~1\AppData\Local\Temp\cc2EfhU3.s:25182  .debug_str:000000000001c136 .LASF384
C:\Users\SOLDER~1\AppData\Local\Temp\cc2EfhU3.s:22606  .debug_str:0000000000011967 .LASF385
C:\Users\SOLDER~1\AppData\Local\Temp\cc2EfhU3.s:27000  .debug_str:00000000000237b2 .LASF386
C:\Users\SOLDER~1\AppData\Local\Temp\cc2EfhU3.s:26000  .debug_str:000000000001f750 .LASF387
C:\Users\SOLDER~1\AppData\Local\Temp\cc2EfhU3.s:18666  .debug_str:000000000000187c .LASF388
C:\Users\SOLDER~1\AppData\Local\Temp\cc2EfhU3.s:19324  .debug_str:000000000000431e .LASF389
C:\Users\SOLDER~1\AppData\Local\Temp\cc2EfhU3.s:19744  .debug_str:0000000000005dbb .LASF390
C:\Users\SOLDER~1\AppData\Local\Temp\cc2EfhU3.s:20906  .debug_str:000000000000aa73 .LASF391
C:\Users\SOLDER~1\AppData\Local\Temp\cc2EfhU3.s:20392  .debug_str:000000000000883f .LASF392
C:\Users\SOLDER~1\AppData\Local\Temp\cc2EfhU3.s:25700  .debug_str:000000000001e307 .LASF393
C:\Users\SOLDER~1\AppData\Local\Temp\cc2EfhU3.s:26336  .debug_str:0000000000020ccf .LASF394
C:\Users\SOLDER~1\AppData\Local\Temp\cc2EfhU3.s:26472  .debug_str:0000000000021590 .LASF395
C:\Users\SOLDER~1\AppData\Local\Temp\cc2EfhU3.s:20546  .debug_str:000000000000929a .LASF396
C:\Users\SOLDER~1\AppData\Local\Temp\cc2EfhU3.s:20134  .debug_str:000000000000775c .LASF397
C:\Users\SOLDER~1\AppData\Local\Temp\cc2EfhU3.s:25512  .debug_str:000000000001d70c .LASF398
C:\Users\SOLDER~1\AppData\Local\Temp\cc2EfhU3.s:28136  .debug_str:00000000000282e7 .LASF399
C:\Users\SOLDER~1\AppData\Local\Temp\cc2EfhU3.s:22818  .debug_str:00000000000126b7 .LASF400
C:\Users\SOLDER~1\AppData\Local\Temp\cc2EfhU3.s:23566  .debug_str:0000000000015906 .LASF401
C:\Users\SOLDER~1\AppData\Local\Temp\cc2EfhU3.s:21400  .debug_str:000000000000cadf .LASF402
C:\Users\SOLDER~1\AppData\Local\Temp\cc2EfhU3.s:25210  .debug_str:000000000001c31d .LASF403
C:\Users\SOLDER~1\AppData\Local\Temp\cc2EfhU3.s:23776  .debug_str:0000000000016615 .LASF404
C:\Users\SOLDER~1\AppData\Local\Temp\cc2EfhU3.s:24212  .debug_str:000000000001828a .LASF405
GAS LISTING C:\Users\SOLDER~1\AppData\Local\Temp\cc2EfhU3.s 			page 18


C:\Users\SOLDER~1\AppData\Local\Temp\cc2EfhU3.s:20448  .debug_str:0000000000008bd8 .LASF406
C:\Users\SOLDER~1\AppData\Local\Temp\cc2EfhU3.s:29064  .debug_str:000000000002bf83 .LASF407
C:\Users\SOLDER~1\AppData\Local\Temp\cc2EfhU3.s:23126  .debug_str:0000000000013bb0 .LASF408
C:\Users\SOLDER~1\AppData\Local\Temp\cc2EfhU3.s:25544  .debug_str:000000000001d8f1 .LASF409
C:\Users\SOLDER~1\AppData\Local\Temp\cc2EfhU3.s:21978  .debug_str:000000000000f05a .LASF410
C:\Users\SOLDER~1\AppData\Local\Temp\cc2EfhU3.s:26234  .debug_str:000000000002063e .LASF411
C:\Users\SOLDER~1\AppData\Local\Temp\cc2EfhU3.s:28202  .debug_str:0000000000028740 .LASF412
C:\Users\SOLDER~1\AppData\Local\Temp\cc2EfhU3.s:23448  .debug_str:000000000001515e .LASF413
C:\Users\SOLDER~1\AppData\Local\Temp\cc2EfhU3.s:22664  .debug_str:0000000000011d01 .LASF414
C:\Users\SOLDER~1\AppData\Local\Temp\cc2EfhU3.s:24624  .debug_str:0000000000019cf3 .LASF415
C:\Users\SOLDER~1\AppData\Local\Temp\cc2EfhU3.s:29618  .debug_str:000000000002e307 .LASF416
C:\Users\SOLDER~1\AppData\Local\Temp\cc2EfhU3.s:29754  .debug_str:000000000002ebc9 .LASF417
C:\Users\SOLDER~1\AppData\Local\Temp\cc2EfhU3.s:20208  .debug_str:0000000000007c23 .LASF418
C:\Users\SOLDER~1\AppData\Local\Temp\cc2EfhU3.s:21258  .debug_str:000000000000c114 .LASF419
C:\Users\SOLDER~1\AppData\Local\Temp\cc2EfhU3.s:21260  .debug_str:000000000000c128 .LASF420
C:\Users\SOLDER~1\AppData\Local\Temp\cc2EfhU3.s:26288  .debug_str:00000000000209c5 .LASF421
C:\Users\SOLDER~1\AppData\Local\Temp\cc2EfhU3.s:26976  .debug_str:0000000000023639 .LASF422
C:\Users\SOLDER~1\AppData\Local\Temp\cc2EfhU3.s:18780  .debug_str:0000000000001ffb .LASF423
C:\Users\SOLDER~1\AppData\Local\Temp\cc2EfhU3.s:23060  .debug_str:00000000000136be .LASF424
C:\Users\SOLDER~1\AppData\Local\Temp\cc2EfhU3.s:26224  .debug_str:0000000000020596 .LASF425
C:\Users\SOLDER~1\AppData\Local\Temp\cc2EfhU3.s:22654  .debug_str:0000000000011c7d .LASF426
C:\Users\SOLDER~1\AppData\Local\Temp\cc2EfhU3.s:29736  .debug_str:000000000002eaa9 .LASF427
C:\Users\SOLDER~1\AppData\Local\Temp\cc2EfhU3.s:25222  .debug_str:000000000001c3d2 .LASF428
C:\Users\SOLDER~1\AppData\Local\Temp\cc2EfhU3.s:19580  .debug_str:0000000000005326 .LASF429
C:\Users\SOLDER~1\AppData\Local\Temp\cc2EfhU3.s:27350  .debug_str:0000000000024eac .LASF430
C:\Users\SOLDER~1\AppData\Local\Temp\cc2EfhU3.s:22994  .debug_str:0000000000013246 .LASF431
C:\Users\SOLDER~1\AppData\Local\Temp\cc2EfhU3.s:27264  .debug_str:0000000000024940 .LASF432
C:\Users\SOLDER~1\AppData\Local\Temp\cc2EfhU3.s:19490  .debug_str:0000000000004da1 .LASF433
C:\Users\SOLDER~1\AppData\Local\Temp\cc2EfhU3.s:21952  .debug_str:000000000000eed3 .LASF434
C:\Users\SOLDER~1\AppData\Local\Temp\cc2EfhU3.s:26118  .debug_str:000000000001feb4 .LASF435
C:\Users\SOLDER~1\AppData\Local\Temp\cc2EfhU3.s:18474  .debug_str:0000000000000c27 .LASF436
C:\Users\SOLDER~1\AppData\Local\Temp\cc2EfhU3.s:21444  .debug_str:000000000000cdd2 .LASF437
C:\Users\SOLDER~1\AppData\Local\Temp\cc2EfhU3.s:23402  .debug_str:0000000000014e51 .LASF438
C:\Users\SOLDER~1\AppData\Local\Temp\cc2EfhU3.s:19568  .debug_str:000000000000524c .LASF439
C:\Users\SOLDER~1\AppData\Local\Temp\cc2EfhU3.s:20762  .debug_str:000000000000a0a6 .LASF440
C:\Users\SOLDER~1\AppData\Local\Temp\cc2EfhU3.s:28390  .debug_str:000000000002936a .LASF441
C:\Users\SOLDER~1\AppData\Local\Temp\cc2EfhU3.s:21092  .debug_str:000000000000b635 .LASF442
C:\Users\SOLDER~1\AppData\Local\Temp\cc2EfhU3.s:25270  .debug_str:000000000001c721 .LASF443
C:\Users\SOLDER~1\AppData\Local\Temp\cc2EfhU3.s:28936  .debug_str:000000000002b6dc .LASF444
C:\Users\SOLDER~1\AppData\Local\Temp\cc2EfhU3.s:22860  .debug_str:0000000000012944 .LASF445
C:\Users\SOLDER~1\AppData\Local\Temp\cc2EfhU3.s:22280  .debug_str:000000000001047c .LASF446
C:\Users\SOLDER~1\AppData\Local\Temp\cc2EfhU3.s:26020  .debug_str:000000000001f885 .LASF447
C:\Users\SOLDER~1\AppData\Local\Temp\cc2EfhU3.s:20446  .debug_str:0000000000008bbe .LASF448
C:\Users\SOLDER~1\AppData\Local\Temp\cc2EfhU3.s:25618  .debug_str:000000000001ddfb .LASF449
C:\Users\SOLDER~1\AppData\Local\Temp\cc2EfhU3.s:21944  .debug_str:000000000000ee5a .LASF450
C:\Users\SOLDER~1\AppData\Local\Temp\cc2EfhU3.s:28360  .debug_str:0000000000029142 .LASF451
C:\Users\SOLDER~1\AppData\Local\Temp\cc2EfhU3.s:22580  .debug_str:0000000000011795 .LASF452
C:\Users\SOLDER~1\AppData\Local\Temp\cc2EfhU3.s:19026  .debug_str:000000000000300e .LASF453
C:\Users\SOLDER~1\AppData\Local\Temp\cc2EfhU3.s:18620  .debug_str:0000000000001597 .LASF454
C:\Users\SOLDER~1\AppData\Local\Temp\cc2EfhU3.s:26724  .debug_str:000000000002258c .LASF455
C:\Users\SOLDER~1\AppData\Local\Temp\cc2EfhU3.s:27626  .debug_str:0000000000026147 .LASF456
C:\Users\SOLDER~1\AppData\Local\Temp\cc2EfhU3.s:21464  .debug_str:000000000000cf0b .LASF457
C:\Users\SOLDER~1\AppData\Local\Temp\cc2EfhU3.s:21790  .debug_str:000000000000e47f .LASF458
C:\Users\SOLDER~1\AppData\Local\Temp\cc2EfhU3.s:28260  .debug_str:0000000000028ad9 .LASF459
C:\Users\SOLDER~1\AppData\Local\Temp\cc2EfhU3.s:29180  .debug_str:000000000002c6b4 .LASF460
C:\Users\SOLDER~1\AppData\Local\Temp\cc2EfhU3.s:18606  .debug_str:00000000000014a2 .LASF461
C:\Users\SOLDER~1\AppData\Local\Temp\cc2EfhU3.s:21074  .debug_str:000000000000b51f .LASF462
GAS LISTING C:\Users\SOLDER~1\AppData\Local\Temp\cc2EfhU3.s 			page 19


C:\Users\SOLDER~1\AppData\Local\Temp\cc2EfhU3.s:27586  .debug_str:0000000000025e5d .LASF463
C:\Users\SOLDER~1\AppData\Local\Temp\cc2EfhU3.s:24958  .debug_str:000000000001b283 .LASF464
C:\Users\SOLDER~1\AppData\Local\Temp\cc2EfhU3.s:28112  .debug_str:000000000002813c .LASF465
C:\Users\SOLDER~1\AppData\Local\Temp\cc2EfhU3.s:24142  .debug_str:0000000000017dfb .LASF466
C:\Users\SOLDER~1\AppData\Local\Temp\cc2EfhU3.s:26520  .debug_str:00000000000218b1 .LASF467
C:\Users\SOLDER~1\AppData\Local\Temp\cc2EfhU3.s:25172  .debug_str:000000000001c07d .LASF468
C:\Users\SOLDER~1\AppData\Local\Temp\cc2EfhU3.s:18708  .debug_str:0000000000001b2b .LASF469
C:\Users\SOLDER~1\AppData\Local\Temp\cc2EfhU3.s:21208  .debug_str:000000000000bd9b .LASF470
C:\Users\SOLDER~1\AppData\Local\Temp\cc2EfhU3.s:26100  .debug_str:000000000001fd7b .LASF471
C:\Users\SOLDER~1\AppData\Local\Temp\cc2EfhU3.s:29430  .debug_str:000000000002d711 .LASF472
C:\Users\SOLDER~1\AppData\Local\Temp\cc2EfhU3.s:29672  .debug_str:000000000002e6bc .LASF473
C:\Users\SOLDER~1\AppData\Local\Temp\cc2EfhU3.s:29526  .debug_str:000000000002dd35 .LASF474
C:\Users\SOLDER~1\AppData\Local\Temp\cc2EfhU3.s:27618  .debug_str:00000000000260a1 .LASF475
C:\Users\SOLDER~1\AppData\Local\Temp\cc2EfhU3.s:20726  .debug_str:0000000000009e38 .LASF476
C:\Users\SOLDER~1\AppData\Local\Temp\cc2EfhU3.s:24742  .debug_str:000000000001a465 .LASF477
C:\Users\SOLDER~1\AppData\Local\Temp\cc2EfhU3.s:23832  .debug_str:00000000000169d6 .LASF478
C:\Users\SOLDER~1\AppData\Local\Temp\cc2EfhU3.s:27722  .debug_str:000000000002679d .LASF479
C:\Users\SOLDER~1\AppData\Local\Temp\cc2EfhU3.s:29766  .debug_str:000000000002ec78 .LASF480
C:\Users\SOLDER~1\AppData\Local\Temp\cc2EfhU3.s:26532  .debug_str:0000000000021981 .LASF481
C:\Users\SOLDER~1\AppData\Local\Temp\cc2EfhU3.s:27816  .debug_str:0000000000026de4 .LASF482
C:\Users\SOLDER~1\AppData\Local\Temp\cc2EfhU3.s:21728  .debug_str:000000000000e079 .LASF483
C:\Users\SOLDER~1\AppData\Local\Temp\cc2EfhU3.s:24898  .debug_str:000000000001aebe .LASF484
C:\Users\SOLDER~1\AppData\Local\Temp\cc2EfhU3.s:24812  .debug_str:000000000001a904 .LASF485
C:\Users\SOLDER~1\AppData\Local\Temp\cc2EfhU3.s:27940  .debug_str:00000000000275f8 .LASF486
C:\Users\SOLDER~1\AppData\Local\Temp\cc2EfhU3.s:25368  .debug_str:000000000001cdc5 .LASF487
C:\Users\SOLDER~1\AppData\Local\Temp\cc2EfhU3.s:22204  .debug_str:000000000000ff93 .LASF488
C:\Users\SOLDER~1\AppData\Local\Temp\cc2EfhU3.s:24302  .debug_str:0000000000018830 .LASF489
C:\Users\SOLDER~1\AppData\Local\Temp\cc2EfhU3.s:19514  .debug_str:0000000000004efb .LASF490
C:\Users\SOLDER~1\AppData\Local\Temp\cc2EfhU3.s:22556  .debug_str:0000000000011617 .LASF491
C:\Users\SOLDER~1\AppData\Local\Temp\cc2EfhU3.s:21526  .debug_str:000000000000d33b .LASF492
C:\Users\SOLDER~1\AppData\Local\Temp\cc2EfhU3.s:26836  .debug_str:0000000000022d0b .LASF494
C:\Users\SOLDER~1\AppData\Local\Temp\cc2EfhU3.s:20612  .debug_str:00000000000096e2 .LASF495
C:\Users\SOLDER~1\AppData\Local\Temp\cc2EfhU3.s:19608  .debug_str:00000000000054bd .LASF496
C:\Users\SOLDER~1\AppData\Local\Temp\cc2EfhU3.s:25624  .debug_str:000000000001de54 .LASF497
C:\Users\SOLDER~1\AppData\Local\Temp\cc2EfhU3.s:24962  .debug_str:000000000001b2c1 .LASF498
C:\Users\SOLDER~1\AppData\Local\Temp\cc2EfhU3.s:25060  .debug_str:000000000001b901 .LASF499
C:\Users\SOLDER~1\AppData\Local\Temp\cc2EfhU3.s:21794  .debug_str:000000000000e4c0 .LASF500
C:\Users\SOLDER~1\AppData\Local\Temp\cc2EfhU3.s:19412  .debug_str:00000000000048d6 .LASF501
C:\Users\SOLDER~1\AppData\Local\Temp\cc2EfhU3.s:22708  .debug_str:0000000000011fbf .LASF502
C:\Users\SOLDER~1\AppData\Local\Temp\cc2EfhU3.s:27314  .debug_str:0000000000024c7b .LASF503
C:\Users\SOLDER~1\AppData\Local\Temp\cc2EfhU3.s:23550  .debug_str:00000000000157e0 .LASF504
C:\Users\SOLDER~1\AppData\Local\Temp\cc2EfhU3.s:18328  .debug_str:00000000000001a0 .LASF505
C:\Users\SOLDER~1\AppData\Local\Temp\cc2EfhU3.s:21606  .debug_str:000000000000d869 .LASF506
C:\Users\SOLDER~1\AppData\Local\Temp\cc2EfhU3.s:29490  .debug_str:000000000002dae8 .LASF507
C:\Users\SOLDER~1\AppData\Local\Temp\cc2EfhU3.s:28428  .debug_str:00000000000295cb .LASF508
C:\Users\SOLDER~1\AppData\Local\Temp\cc2EfhU3.s:23086  .debug_str:000000000001389e .LASF509
C:\Users\SOLDER~1\AppData\Local\Temp\cc2EfhU3.s:24000  .debug_str:00000000000174a5 .LASF510
C:\Users\SOLDER~1\AppData\Local\Temp\cc2EfhU3.s:23390  .debug_str:0000000000014d94 .LASF511
C:\Users\SOLDER~1\AppData\Local\Temp\cc2EfhU3.s:24440  .debug_str:000000000001914a .LASF512
C:\Users\SOLDER~1\AppData\Local\Temp\cc2EfhU3.s:26262  .debug_str:0000000000020807 .LASF513
C:\Users\SOLDER~1\AppData\Local\Temp\cc2EfhU3.s:25290  .debug_str:000000000001c87c .LASF514
C:\Users\SOLDER~1\AppData\Local\Temp\cc2EfhU3.s:20990  .debug_str:000000000000afc4 .LASF515
C:\Users\SOLDER~1\AppData\Local\Temp\cc2EfhU3.s:29034  .debug_str:000000000002bd4e .LASF516
C:\Users\SOLDER~1\AppData\Local\Temp\cc2EfhU3.s:25532  .debug_str:000000000001d823 .LASF517
C:\Users\SOLDER~1\AppData\Local\Temp\cc2EfhU3.s:28906  .debug_str:000000000002b507 .LASF518
C:\Users\SOLDER~1\AppData\Local\Temp\cc2EfhU3.s:27514  .debug_str:0000000000025943 .LASF519
C:\Users\SOLDER~1\AppData\Local\Temp\cc2EfhU3.s:24710  .debug_str:000000000001a274 .LASF520
GAS LISTING C:\Users\SOLDER~1\AppData\Local\Temp\cc2EfhU3.s 			page 20


C:\Users\SOLDER~1\AppData\Local\Temp\cc2EfhU3.s:19834  .debug_str:00000000000063c4 .LASF521
C:\Users\SOLDER~1\AppData\Local\Temp\cc2EfhU3.s:26882  .debug_str:0000000000022fe2 .LASF522
C:\Users\SOLDER~1\AppData\Local\Temp\cc2EfhU3.s:20768  .debug_str:000000000000a112 .LASF523
C:\Users\SOLDER~1\AppData\Local\Temp\cc2EfhU3.s:18810  .debug_str:000000000000221c .LASF524
C:\Users\SOLDER~1\AppData\Local\Temp\cc2EfhU3.s:25586  .debug_str:000000000001dbc9 .LASF525
C:\Users\SOLDER~1\AppData\Local\Temp\cc2EfhU3.s:21662  .debug_str:000000000000dbc6 .LASF526
C:\Users\SOLDER~1\AppData\Local\Temp\cc2EfhU3.s:23406  .debug_str:0000000000014e8d .LASF527
C:\Users\SOLDER~1\AppData\Local\Temp\cc2EfhU3.s:21702  .debug_str:000000000000de74 .LASF528
C:\Users\SOLDER~1\AppData\Local\Temp\cc2EfhU3.s:20502  .debug_str:0000000000008f9f .LASF529
C:\Users\SOLDER~1\AppData\Local\Temp\cc2EfhU3.s:20148  .debug_str:0000000000007816 .LASF530
C:\Users\SOLDER~1\AppData\Local\Temp\cc2EfhU3.s:21294  .debug_str:000000000000c38f .LASF531
C:\Users\SOLDER~1\AppData\Local\Temp\cc2EfhU3.s:27864  .debug_str:00000000000270fe .LASF532
C:\Users\SOLDER~1\AppData\Local\Temp\cc2EfhU3.s:29634  .debug_str:000000000002e3fd .LASF533
C:\Users\SOLDER~1\AppData\Local\Temp\cc2EfhU3.s:22730  .debug_str:0000000000012122 .LASF534
C:\Users\SOLDER~1\AppData\Local\Temp\cc2EfhU3.s:29026  .debug_str:000000000002bcc0 .LASF535
C:\Users\SOLDER~1\AppData\Local\Temp\cc2EfhU3.s:25176  .debug_str:000000000001c0cf .LASF536
C:\Users\SOLDER~1\AppData\Local\Temp\cc2EfhU3.s:21614  .debug_str:000000000000d8df .LASF537
C:\Users\SOLDER~1\AppData\Local\Temp\cc2EfhU3.s:24956  .debug_str:000000000001b25d .LASF538
C:\Users\SOLDER~1\AppData\Local\Temp\cc2EfhU3.s:19400  .debug_str:0000000000004805 .LASF539
C:\Users\SOLDER~1\AppData\Local\Temp\cc2EfhU3.s:26932  .debug_str:000000000002335f .LASF540
C:\Users\SOLDER~1\AppData\Local\Temp\cc2EfhU3.s:25002  .debug_str:000000000001b543 .LASF541
C:\Users\SOLDER~1\AppData\Local\Temp\cc2EfhU3.s:29120  .debug_str:000000000002c2ef .LASF542
C:\Users\SOLDER~1\AppData\Local\Temp\cc2EfhU3.s:21116  .debug_str:000000000000b7a9 .LASF543
C:\Users\SOLDER~1\AppData\Local\Temp\cc2EfhU3.s:27840  .debug_str:0000000000026f60 .LASF544
C:\Users\SOLDER~1\AppData\Local\Temp\cc2EfhU3.s:27070  .debug_str:0000000000023c30 .LASF545
C:\Users\SOLDER~1\AppData\Local\Temp\cc2EfhU3.s:25850  .debug_str:000000000001ed1e .LASF546
C:\Users\SOLDER~1\AppData\Local\Temp\cc2EfhU3.s:28060  .debug_str:0000000000027dd3 .LASF547
C:\Users\SOLDER~1\AppData\Local\Temp\cc2EfhU3.s:26054  .debug_str:000000000001fa9e .LASF548
C:\Users\SOLDER~1\AppData\Local\Temp\cc2EfhU3.s:24192  .debug_str:0000000000018140 .LASF549
C:\Users\SOLDER~1\AppData\Local\Temp\cc2EfhU3.s:22918  .debug_str:0000000000012d3a .LASF550
C:\Users\SOLDER~1\AppData\Local\Temp\cc2EfhU3.s:26478  .debug_str:00000000000215da .LASF551
C:\Users\SOLDER~1\AppData\Local\Temp\cc2EfhU3.s:23152  .debug_str:0000000000013d6e .LASF552
C:\Users\SOLDER~1\AppData\Local\Temp\cc2EfhU3.s:25724  .debug_str:000000000001e4c0 .LASF553
C:\Users\SOLDER~1\AppData\Local\Temp\cc2EfhU3.s:23690  .debug_str:00000000000160e0 .LASF554
C:\Users\SOLDER~1\AppData\Local\Temp\cc2EfhU3.s:18646  .debug_str:000000000000173d .LASF555
C:\Users\SOLDER~1\AppData\Local\Temp\cc2EfhU3.s:22452  .debug_str:0000000000010f58 .LASF556
C:\Users\SOLDER~1\AppData\Local\Temp\cc2EfhU3.s:19794  .debug_str:0000000000006127 .LASF557
C:\Users\SOLDER~1\AppData\Local\Temp\cc2EfhU3.s:22350  .debug_str:00000000000108ee .LASF558
C:\Users\SOLDER~1\AppData\Local\Temp\cc2EfhU3.s:22216  .debug_str:000000000001002b .LASF559
C:\Users\SOLDER~1\AppData\Local\Temp\cc2EfhU3.s:18734  .debug_str:0000000000001d0f .LASF560
C:\Users\SOLDER~1\AppData\Local\Temp\cc2EfhU3.s:27382  .debug_str:00000000000250a9 .LASF561
C:\Users\SOLDER~1\AppData\Local\Temp\cc2EfhU3.s:29312  .debug_str:000000000002cf98 .LASF562
C:\Users\SOLDER~1\AppData\Local\Temp\cc2EfhU3.s:29546  .debug_str:000000000002de5f .LASF563
C:\Users\SOLDER~1\AppData\Local\Temp\cc2EfhU3.s:21686  .debug_str:000000000000dd5b .LASF564
C:\Users\SOLDER~1\AppData\Local\Temp\cc2EfhU3.s:18552  .debug_str:0000000000001120 .LASF565
C:\Users\SOLDER~1\AppData\Local\Temp\cc2EfhU3.s:26982  .debug_str:0000000000023699 .LASF566
C:\Users\SOLDER~1\AppData\Local\Temp\cc2EfhU3.s:24884  .debug_str:000000000001adfc .LASF567
C:\Users\SOLDER~1\AppData\Local\Temp\cc2EfhU3.s:25114  .debug_str:000000000001bc80 .LASF568
C:\Users\SOLDER~1\AppData\Local\Temp\cc2EfhU3.s:18764  .debug_str:0000000000001ee9 .LASF569
C:\Users\SOLDER~1\AppData\Local\Temp\cc2EfhU3.s:23492  .debug_str:000000000001543d .LASF570
C:\Users\SOLDER~1\AppData\Local\Temp\cc2EfhU3.s:27166  .debug_str:000000000002428e .LASF571
C:\Users\SOLDER~1\AppData\Local\Temp\cc2EfhU3.s:22006  .debug_str:000000000000f237 .LASF572
C:\Users\SOLDER~1\AppData\Local\Temp\cc2EfhU3.s:23926  .debug_str:0000000000016fae .LASF573
C:\Users\SOLDER~1\AppData\Local\Temp\cc2EfhU3.s:21824  .debug_str:000000000000e699 .LASF574
C:\Users\SOLDER~1\AppData\Local\Temp\cc2EfhU3.s:23820  .debug_str:0000000000016902 .LASF575
C:\Users\SOLDER~1\AppData\Local\Temp\cc2EfhU3.s:22944  .debug_str:0000000000012ef2 .LASF576
C:\Users\SOLDER~1\AppData\Local\Temp\cc2EfhU3.s:22906  .debug_str:0000000000012c74 .LASF577
GAS LISTING C:\Users\SOLDER~1\AppData\Local\Temp\cc2EfhU3.s 			page 21


C:\Users\SOLDER~1\AppData\Local\Temp\cc2EfhU3.s:29386  .debug_str:000000000002d42b .LASF578
C:\Users\SOLDER~1\AppData\Local\Temp\cc2EfhU3.s:24368  .debug_str:0000000000018ccb .LASF579
C:\Users\SOLDER~1\AppData\Local\Temp\cc2EfhU3.s:27588  .debug_str:0000000000025e81 .LASF580
C:\Users\SOLDER~1\AppData\Local\Temp\cc2EfhU3.s:19396  .debug_str:00000000000047c7 .LASF581
C:\Users\SOLDER~1\AppData\Local\Temp\cc2EfhU3.s:22690  .debug_str:0000000000011ea1 .LASF582
C:\Users\SOLDER~1\AppData\Local\Temp\cc2EfhU3.s:25870  .debug_str:000000000001ee7f .LASF583
C:\Users\SOLDER~1\AppData\Local\Temp\cc2EfhU3.s:29156  .debug_str:000000000002c540 .LASF584
C:\Users\SOLDER~1\AppData\Local\Temp\cc2EfhU3.s:20940  .debug_str:000000000000ac70 .LASF585
C:\Users\SOLDER~1\AppData\Local\Temp\cc2EfhU3.s:28694  .debug_str:000000000002a70c .LASF586
C:\Users\SOLDER~1\AppData\Local\Temp\cc2EfhU3.s:27598  .debug_str:0000000000025f35 .LASF587
C:\Users\SOLDER~1\AppData\Local\Temp\cc2EfhU3.s:22842  .debug_str:0000000000012826 .LASF588
C:\Users\SOLDER~1\AppData\Local\Temp\cc2EfhU3.s:24740  .debug_str:000000000001a444 .LASF589
C:\Users\SOLDER~1\AppData\Local\Temp\cc2EfhU3.s:26872  .debug_str:0000000000022f4b .LASF590
C:\Users\SOLDER~1\AppData\Local\Temp\cc2EfhU3.s:23852  .debug_str:0000000000016af3 .LASF591
C:\Users\SOLDER~1\AppData\Local\Temp\cc2EfhU3.s:28316  .debug_str:0000000000028e4f .LASF592
C:\Users\SOLDER~1\AppData\Local\Temp\cc2EfhU3.s:25430  .debug_str:000000000001d209 .LASF593
C:\Users\SOLDER~1\AppData\Local\Temp\cc2EfhU3.s:24140  .debug_str:0000000000017dc1 .LASF594
C:\Users\SOLDER~1\AppData\Local\Temp\cc2EfhU3.s:29480  .debug_str:000000000002da28 .LASF595
C:\Users\SOLDER~1\AppData\Local\Temp\cc2EfhU3.s:20952  .debug_str:000000000000ad4c .LASF596
C:\Users\SOLDER~1\AppData\Local\Temp\cc2EfhU3.s:28914  .debug_str:000000000002b572 .LASF597
C:\Users\SOLDER~1\AppData\Local\Temp\cc2EfhU3.s:22882  .debug_str:0000000000012ab2 .LASF598
C:\Users\SOLDER~1\AppData\Local\Temp\cc2EfhU3.s:28330  .debug_str:0000000000028f4a .LASF599
C:\Users\SOLDER~1\AppData\Local\Temp\cc2EfhU3.s:22330  .debug_str:0000000000010778 .LASF600
C:\Users\SOLDER~1\AppData\Local\Temp\cc2EfhU3.s:27644  .debug_str:000000000002627c .LASF601
C:\Users\SOLDER~1\AppData\Local\Temp\cc2EfhU3.s:27748  .debug_str:0000000000026976 .LASF602
C:\Users\SOLDER~1\AppData\Local\Temp\cc2EfhU3.s:21690  .debug_str:000000000000dda0 .LASF603
C:\Users\SOLDER~1\AppData\Local\Temp\cc2EfhU3.s:21478  .debug_str:000000000000d010 .LASF604
C:\Users\SOLDER~1\AppData\Local\Temp\cc2EfhU3.s:25508  .debug_str:000000000001d6cf .LASF605
C:\Users\SOLDER~1\AppData\Local\Temp\cc2EfhU3.s:27418  .debug_str:00000000000252d6 .LASF606
C:\Users\SOLDER~1\AppData\Local\Temp\cc2EfhU3.s:23932  .debug_str:000000000001701c .LASF607
C:\Users\SOLDER~1\AppData\Local\Temp\cc2EfhU3.s:26626  .debug_str:0000000000021f54 .LASF608
C:\Users\SOLDER~1\AppData\Local\Temp\cc2EfhU3.s:28998  .debug_str:000000000002bac8 .LASF609
C:\Users\SOLDER~1\AppData\Local\Temp\cc2EfhU3.s:20586  .debug_str:0000000000009553 .LASF610
C:\Users\SOLDER~1\AppData\Local\Temp\cc2EfhU3.s:22622  .debug_str:0000000000011a4b .LASF611
C:\Users\SOLDER~1\AppData\Local\Temp\cc2EfhU3.s:22894  .debug_str:0000000000012ba3 .LASF612
C:\Users\SOLDER~1\AppData\Local\Temp\cc2EfhU3.s:25502  .debug_str:000000000001d67a .LASF613
C:\Users\SOLDER~1\AppData\Local\Temp\cc2EfhU3.s:20032  .debug_str:000000000000710a .LASF614
C:\Users\SOLDER~1\AppData\Local\Temp\cc2EfhU3.s:26408  .debug_str:0000000000021193 .LASF615
C:\Users\SOLDER~1\AppData\Local\Temp\cc2EfhU3.s:24004  .debug_str:00000000000174ee .LASF616
C:\Users\SOLDER~1\AppData\Local\Temp\cc2EfhU3.s:19632  .debug_str:0000000000005627 .LASF617
C:\Users\SOLDER~1\AppData\Local\Temp\cc2EfhU3.s:27336  .debug_str:0000000000024dd9 .LASF618
C:\Users\SOLDER~1\AppData\Local\Temp\cc2EfhU3.s:19056  .debug_str:0000000000003204 .LASF619
C:\Users\SOLDER~1\AppData\Local\Temp\cc2EfhU3.s:25632  .debug_str:000000000001ded1 .LASF620
C:\Users\SOLDER~1\AppData\Local\Temp\cc2EfhU3.s:19148  .debug_str:00000000000037eb .LASF621
C:\Users\SOLDER~1\AppData\Local\Temp\cc2EfhU3.s:23556  .debug_str:0000000000015851 .LASF622
C:\Users\SOLDER~1\AppData\Local\Temp\cc2EfhU3.s:24612  .debug_str:0000000000019c1d .LASF623
C:\Users\SOLDER~1\AppData\Local\Temp\cc2EfhU3.s:22498  .debug_str:000000000001123d .LASF624
C:\Users\SOLDER~1\AppData\Local\Temp\cc2EfhU3.s:25186  .debug_str:000000000001c15f .LASF625
C:\Users\SOLDER~1\AppData\Local\Temp\cc2EfhU3.s:19998  .debug_str:0000000000006e94 .LASF626
C:\Users\SOLDER~1\AppData\Local\Temp\cc2EfhU3.s:19956  .debug_str:0000000000006bc3 .LASF627
C:\Users\SOLDER~1\AppData\Local\Temp\cc2EfhU3.s:24848  .debug_str:000000000001abb2 .LASF628
C:\Users\SOLDER~1\AppData\Local\Temp\cc2EfhU3.s:21694  .debug_str:000000000000ddea .LASF629
C:\Users\SOLDER~1\AppData\Local\Temp\cc2EfhU3.s:26122  .debug_str:000000000001fef3 .LASF630
C:\Users\SOLDER~1\AppData\Local\Temp\cc2EfhU3.s:25108  .debug_str:000000000001bc27 .LASF631
C:\Users\SOLDER~1\AppData\Local\Temp\cc2EfhU3.s:26110  .debug_str:000000000001fe2e .LASF632
C:\Users\SOLDER~1\AppData\Local\Temp\cc2EfhU3.s:24578  .debug_str:0000000000019a20 .LASF633
C:\Users\SOLDER~1\AppData\Local\Temp\cc2EfhU3.s:28148  .debug_str:000000000002839d .LASF634
GAS LISTING C:\Users\SOLDER~1\AppData\Local\Temp\cc2EfhU3.s 			page 22


C:\Users\SOLDER~1\AppData\Local\Temp\cc2EfhU3.s:23356  .debug_str:0000000000014b66 .LASF635
C:\Users\SOLDER~1\AppData\Local\Temp\cc2EfhU3.s:25074  .debug_str:000000000001b9e7 .LASF636
C:\Users\SOLDER~1\AppData\Local\Temp\cc2EfhU3.s:27214  .debug_str:00000000000245d3 .LASF637
C:\Users\SOLDER~1\AppData\Local\Temp\cc2EfhU3.s:18746  .debug_str:0000000000001dd0 .LASF638
C:\Users\SOLDER~1\AppData\Local\Temp\cc2EfhU3.s:29006  .debug_str:000000000002bb5d .LASF639
C:\Users\SOLDER~1\AppData\Local\Temp\cc2EfhU3.s:22946  .debug_str:0000000000012f10 .LASF640
C:\Users\SOLDER~1\AppData\Local\Temp\cc2EfhU3.s:23954  .debug_str:000000000001719b .LASF641
C:\Users\SOLDER~1\AppData\Local\Temp\cc2EfhU3.s:23864  .debug_str:0000000000016b9f .LASF642
C:\Users\SOLDER~1\AppData\Local\Temp\cc2EfhU3.s:25204  .debug_str:000000000001c2b1 .LASF643
C:\Users\SOLDER~1\AppData\Local\Temp\cc2EfhU3.s:19862  .debug_str:0000000000006589 .LASF644
C:\Users\SOLDER~1\AppData\Local\Temp\cc2EfhU3.s:27160  .debug_str:0000000000024230 .LASF645
C:\Users\SOLDER~1\AppData\Local\Temp\cc2EfhU3.s:23914  .debug_str:0000000000016edb .LASF646
C:\Users\SOLDER~1\AppData\Local\Temp\cc2EfhU3.s:21832  .debug_str:000000000000e71c .LASF647
C:\Users\SOLDER~1\AppData\Local\Temp\cc2EfhU3.s:23350  .debug_str:0000000000014aec .LASF648
C:\Users\SOLDER~1\AppData\Local\Temp\cc2EfhU3.s:21914  .debug_str:000000000000ec65 .LASF649
C:\Users\SOLDER~1\AppData\Local\Temp\cc2EfhU3.s:28496  .debug_str:0000000000029a0c .LASF650
C:\Users\SOLDER~1\AppData\Local\Temp\cc2EfhU3.s:24748  .debug_str:000000000001a4c4 .LASF651
C:\Users\SOLDER~1\AppData\Local\Temp\cc2EfhU3.s:20440  .debug_str:0000000000008b65 .LASF652
C:\Users\SOLDER~1\AppData\Local\Temp\cc2EfhU3.s:24356  .debug_str:0000000000018bec .LASF653
C:\Users\SOLDER~1\AppData\Local\Temp\cc2EfhU3.s:23668  .debug_str:0000000000015f74 .LASF654
C:\Users\SOLDER~1\AppData\Local\Temp\cc2EfhU3.s:29500  .debug_str:000000000002db8c .LASF655
C:\Users\SOLDER~1\AppData\Local\Temp\cc2EfhU3.s:24402  .debug_str:0000000000018eff .LASF656
C:\Users\SOLDER~1\AppData\Local\Temp\cc2EfhU3.s:28772  .debug_str:000000000002ac30 .LASF657
C:\Users\SOLDER~1\AppData\Local\Temp\cc2EfhU3.s:28146  .debug_str:000000000002837c .LASF658
C:\Users\SOLDER~1\AppData\Local\Temp\cc2EfhU3.s:26934  .debug_str:0000000000023384 .LASF659
C:\Users\SOLDER~1\AppData\Local\Temp\cc2EfhU3.s:26962  .debug_str:0000000000023567 .LASF660
C:\Users\SOLDER~1\AppData\Local\Temp\cc2EfhU3.s:29162  .debug_str:000000000002c5b7 .LASF661
C:\Users\SOLDER~1\AppData\Local\Temp\cc2EfhU3.s:21704  .debug_str:000000000000de98 .LASF662
C:\Users\SOLDER~1\AppData\Local\Temp\cc2EfhU3.s:21022  .debug_str:000000000000b1ac .LASF663
C:\Users\SOLDER~1\AppData\Local\Temp\cc2EfhU3.s:28446  .debug_str:00000000000296de .LASF664
C:\Users\SOLDER~1\AppData\Local\Temp\cc2EfhU3.s:25654  .debug_str:000000000001e04a .LASF665
C:\Users\SOLDER~1\AppData\Local\Temp\cc2EfhU3.s:25924  .debug_str:000000000001f234 .LASF666
C:\Users\SOLDER~1\AppData\Local\Temp\cc2EfhU3.s:25940  .debug_str:000000000001f358 .LASF667
C:\Users\SOLDER~1\AppData\Local\Temp\cc2EfhU3.s:19918  .debug_str:0000000000006978 .LASF668
C:\Users\SOLDER~1\AppData\Local\Temp\cc2EfhU3.s:26998  .debug_str:000000000002379e .LASF669
C:\Users\SOLDER~1\AppData\Local\Temp\cc2EfhU3.s:28018  .debug_str:0000000000027b15 .LASF670
C:\Users\SOLDER~1\AppData\Local\Temp\cc2EfhU3.s:29468  .debug_str:000000000002d978 .LASF671
C:\Users\SOLDER~1\AppData\Local\Temp\cc2EfhU3.s:28764  .debug_str:000000000002abb6 .LASF672
C:\Users\SOLDER~1\AppData\Local\Temp\cc2EfhU3.s:25046  .debug_str:000000000001b7f9 .LASF673
C:\Users\SOLDER~1\AppData\Local\Temp\cc2EfhU3.s:21214  .debug_str:000000000000be08 .LASF674
C:\Users\SOLDER~1\AppData\Local\Temp\cc2EfhU3.s:19182  .debug_str:0000000000003a1b .LASF675
C:\Users\SOLDER~1\AppData\Local\Temp\cc2EfhU3.s:22358  .debug_str:000000000001096f .LASF676
C:\Users\SOLDER~1\AppData\Local\Temp\cc2EfhU3.s:24754  .debug_str:000000000001a534 .LASF677
C:\Users\SOLDER~1\AppData\Local\Temp\cc2EfhU3.s:27820  .debug_str:0000000000026e16 .LASF678
C:\Users\SOLDER~1\AppData\Local\Temp\cc2EfhU3.s:29088  .debug_str:000000000002c0fd .LASF679
C:\Users\SOLDER~1\AppData\Local\Temp\cc2EfhU3.s:24076  .debug_str:0000000000017987 .LASF680
C:\Users\SOLDER~1\AppData\Local\Temp\cc2EfhU3.s:25576  .debug_str:000000000001db0b .LASF681
C:\Users\SOLDER~1\AppData\Local\Temp\cc2EfhU3.s:22896  .debug_str:0000000000012bbb .LASF682
C:\Users\SOLDER~1\AppData\Local\Temp\cc2EfhU3.s:23800  .debug_str:00000000000167ba .LASF683
C:\Users\SOLDER~1\AppData\Local\Temp\cc2EfhU3.s:20390  .debug_str:000000000000881c .LASF684
C:\Users\SOLDER~1\AppData\Local\Temp\cc2EfhU3.s:25352  .debug_str:000000000001ccc0 .LASF685
C:\Users\SOLDER~1\AppData\Local\Temp\cc2EfhU3.s:25886  .debug_str:000000000001ef9e .LASF686
C:\Users\SOLDER~1\AppData\Local\Temp\cc2EfhU3.s:18710  .debug_str:0000000000001b4f .LASF687
C:\Users\SOLDER~1\AppData\Local\Temp\cc2EfhU3.s:25666  .debug_str:000000000001e0fc .LASF688
C:\Users\SOLDER~1\AppData\Local\Temp\cc2EfhU3.s:28972  .debug_str:000000000002b924 .LASF689
C:\Users\SOLDER~1\AppData\Local\Temp\cc2EfhU3.s:18332  .debug_str:00000000000001d2 .LASF690
C:\Users\SOLDER~1\AppData\Local\Temp\cc2EfhU3.s:26142  .debug_str:0000000000020027 .LASF691
GAS LISTING C:\Users\SOLDER~1\AppData\Local\Temp\cc2EfhU3.s 			page 23


C:\Users\SOLDER~1\AppData\Local\Temp\cc2EfhU3.s:26096  .debug_str:000000000001fd35 .LASF692
C:\Users\SOLDER~1\AppData\Local\Temp\cc2EfhU3.s:20488  .debug_str:0000000000008eac .LASF693
C:\Users\SOLDER~1\AppData\Local\Temp\cc2EfhU3.s:25852  .debug_str:000000000001ed4b .LASF694
C:\Users\SOLDER~1\AppData\Local\Temp\cc2EfhU3.s:20472  .debug_str:0000000000008d8b .LASF695
C:\Users\SOLDER~1\AppData\Local\Temp\cc2EfhU3.s:25362  .debug_str:000000000001cd6e .LASF696
C:\Users\SOLDER~1\AppData\Local\Temp\cc2EfhU3.s:28008  .debug_str:0000000000027a52 .LASF697
C:\Users\SOLDER~1\AppData\Local\Temp\cc2EfhU3.s:28786  .debug_str:000000000002acf9 .LASF698
C:\Users\SOLDER~1\AppData\Local\Temp\cc2EfhU3.s:21848  .debug_str:000000000000e84d .LASF699
C:\Users\SOLDER~1\AppData\Local\Temp\cc2EfhU3.s:29470  .debug_str:000000000002d98e .LASF700
C:\Users\SOLDER~1\AppData\Local\Temp\cc2EfhU3.s:24610  .debug_str:0000000000019c0a .LASF701
C:\Users\SOLDER~1\AppData\Local\Temp\cc2EfhU3.s:19118  .debug_str:00000000000035ed .LASF702
C:\Users\SOLDER~1\AppData\Local\Temp\cc2EfhU3.s:27072  .debug_str:0000000000023c5d .LASF703
C:\Users\SOLDER~1\AppData\Local\Temp\cc2EfhU3.s:25078  .debug_str:000000000001ba12 .LASF704
C:\Users\SOLDER~1\AppData\Local\Temp\cc2EfhU3.s:28058  .debug_str:0000000000027db0 .LASF705
C:\Users\SOLDER~1\AppData\Local\Temp\cc2EfhU3.s:23836  .debug_str:0000000000016a1a .LASF706
C:\Users\SOLDER~1\AppData\Local\Temp\cc2EfhU3.s:21168  .debug_str:000000000000bb40 .LASF707
C:\Users\SOLDER~1\AppData\Local\Temp\cc2EfhU3.s:26672  .debug_str:0000000000022206 .LASF708
C:\Users\SOLDER~1\AppData\Local\Temp\cc2EfhU3.s:26136  .debug_str:000000000001ffbe .LASF709
C:\Users\SOLDER~1\AppData\Local\Temp\cc2EfhU3.s:19134  .debug_str:00000000000036e9 .LASF710
C:\Users\SOLDER~1\AppData\Local\Temp\cc2EfhU3.s:27554  .debug_str:0000000000025c23 .LASF711
C:\Users\SOLDER~1\AppData\Local\Temp\cc2EfhU3.s:26864  .debug_str:0000000000022ec0 .LASF712
C:\Users\SOLDER~1\AppData\Local\Temp\cc2EfhU3.s:20256  .debug_str:0000000000007f63 .LASF713
C:\Users\SOLDER~1\AppData\Local\Temp\cc2EfhU3.s:27898  .debug_str:000000000002733d .LASF714
C:\Users\SOLDER~1\AppData\Local\Temp\cc2EfhU3.s:25868  .debug_str:000000000001ee5c .LASF715
C:\Users\SOLDER~1\AppData\Local\Temp\cc2EfhU3.s:18948  .debug_str:0000000000002b33 .LASF716
C:\Users\SOLDER~1\AppData\Local\Temp\cc2EfhU3.s:22382  .debug_str:0000000000010ad0 .LASF717
C:\Users\SOLDER~1\AppData\Local\Temp\cc2EfhU3.s:29510  .debug_str:000000000002dc39 .LASF718
C:\Users\SOLDER~1\AppData\Local\Temp\cc2EfhU3.s:24784  .debug_str:000000000001a752 .LASF719
C:\Users\SOLDER~1\AppData\Local\Temp\cc2EfhU3.s:22810  .debug_str:0000000000012636 .LASF720
C:\Users\SOLDER~1\AppData\Local\Temp\cc2EfhU3.s:26414  .debug_str:00000000000211ea .LASF721
C:\Users\SOLDER~1\AppData\Local\Temp\cc2EfhU3.s:24580  .debug_str:0000000000019a42 .LASF722
C:\Users\SOLDER~1\AppData\Local\Temp\cc2EfhU3.s:26460  .debug_str:00000000000214c9 .LASF723
C:\Users\SOLDER~1\AppData\Local\Temp\cc2EfhU3.s:23734  .debug_str:000000000001638f .LASF724
C:\Users\SOLDER~1\AppData\Local\Temp\cc2EfhU3.s:22982  .debug_str:0000000000013171 .LASF725
C:\Users\SOLDER~1\AppData\Local\Temp\cc2EfhU3.s:28664  .debug_str:000000000002a56d .LASF726
C:\Users\SOLDER~1\AppData\Local\Temp\cc2EfhU3.s:23162  .debug_str:0000000000013e23 .LASF727
C:\Users\SOLDER~1\AppData\Local\Temp\cc2EfhU3.s:18468  .debug_str:0000000000000b99 .LASF728
C:\Users\SOLDER~1\AppData\Local\Temp\cc2EfhU3.s:21602  .debug_str:000000000000d821 .LASF729
C:\Users\SOLDER~1\AppData\Local\Temp\cc2EfhU3.s:24434  .debug_str:00000000000190fd .LASF730
C:\Users\SOLDER~1\AppData\Local\Temp\cc2EfhU3.s:25028  .debug_str:000000000001b6cb .LASF731
C:\Users\SOLDER~1\AppData\Local\Temp\cc2EfhU3.s:20082  .debug_str:0000000000007432 .LASF732
C:\Users\SOLDER~1\AppData\Local\Temp\cc2EfhU3.s:20688  .debug_str:0000000000009b9b .LASF733
C:\Users\SOLDER~1\AppData\Local\Temp\cc2EfhU3.s:26656  .debug_str:00000000000220f4 .LASF734
C:\Users\SOLDER~1\AppData\Local\Temp\cc2EfhU3.s:26588  .debug_str:0000000000021d01 .LASF735
C:\Users\SOLDER~1\AppData\Local\Temp\cc2EfhU3.s:24270  .debug_str:0000000000018632 .LASF736
C:\Users\SOLDER~1\AppData\Local\Temp\cc2EfhU3.s:21162  .debug_str:000000000000bacb .LASF737
C:\Users\SOLDER~1\AppData\Local\Temp\cc2EfhU3.s:29638  .debug_str:000000000002e43f .LASF738
C:\Users\SOLDER~1\AppData\Local\Temp\cc2EfhU3.s:21386  .debug_str:000000000000c9e9 .LASF739
C:\Users\SOLDER~1\AppData\Local\Temp\cc2EfhU3.s:18812  .debug_str:0000000000002242 .LASF740
C:\Users\SOLDER~1\AppData\Local\Temp\cc2EfhU3.s:23464  .debug_str:000000000001525c .LASF741
C:\Users\SOLDER~1\AppData\Local\Temp\cc2EfhU3.s:21150  .debug_str:000000000000b9ef .LASF742
C:\Users\SOLDER~1\AppData\Local\Temp\cc2EfhU3.s:27934  .debug_str:000000000002759b .LASF743
C:\Users\SOLDER~1\AppData\Local\Temp\cc2EfhU3.s:24598  .debug_str:0000000000019b61 .LASF744
C:\Users\SOLDER~1\AppData\Local\Temp\cc2EfhU3.s:22750  .debug_str:0000000000012258 .LASF745
C:\Users\SOLDER~1\AppData\Local\Temp\cc2EfhU3.s:26016  .debug_str:000000000001f848 .LASF746
C:\Users\SOLDER~1\AppData\Local\Temp\cc2EfhU3.s:26582  .debug_str:0000000000021c9b .LASF747
C:\Users\SOLDER~1\AppData\Local\Temp\cc2EfhU3.s:27520  .debug_str:00000000000259b1 .LASF748
GAS LISTING C:\Users\SOLDER~1\AppData\Local\Temp\cc2EfhU3.s 			page 24


C:\Users\SOLDER~1\AppData\Local\Temp\cc2EfhU3.s:26950  .debug_str:0000000000023495 .LASF749
C:\Users\SOLDER~1\AppData\Local\Temp\cc2EfhU3.s:19982  .debug_str:0000000000006d5b .LASF750
C:\Users\SOLDER~1\AppData\Local\Temp\cc2EfhU3.s:19476  .debug_str:0000000000004cd8 .LASF751
C:\Users\SOLDER~1\AppData\Local\Temp\cc2EfhU3.s:20856  .debug_str:000000000000a719 .LASF752
C:\Users\SOLDER~1\AppData\Local\Temp\cc2EfhU3.s:21068  .debug_str:000000000000b4c1 .LASF753
C:\Users\SOLDER~1\AppData\Local\Temp\cc2EfhU3.s:28750  .debug_str:000000000002aad6 .LASF754
C:\Users\SOLDER~1\AppData\Local\Temp\cc2EfhU3.s:26668  .debug_str:00000000000221cb .LASF755
C:\Users\SOLDER~1\AppData\Local\Temp\cc2EfhU3.s:18958  .debug_str:0000000000002ba6 .LASF756
C:\Users\SOLDER~1\AppData\Local\Temp\cc2EfhU3.s:27964  .debug_str:0000000000027780 .LASF757
C:\Users\SOLDER~1\AppData\Local\Temp\cc2EfhU3.s:18844  .debug_str:0000000000002469 .LASF758
C:\Users\SOLDER~1\AppData\Local\Temp\cc2EfhU3.s:24528  .debug_str:00000000000196e2 .LASF759
C:\Users\SOLDER~1\AppData\Local\Temp\cc2EfhU3.s:23670  .debug_str:0000000000015f99 .LASF760
C:\Users\SOLDER~1\AppData\Local\Temp\cc2EfhU3.s:18368  .debug_str:0000000000000450 .LASF761
C:\Users\SOLDER~1\AppData\Local\Temp\cc2EfhU3.s:18550  .debug_str:0000000000001100 .LASF762
C:\Users\SOLDER~1\AppData\Local\Temp\cc2EfhU3.s:27050  .debug_str:0000000000023ae7 .LASF763
C:\Users\SOLDER~1\AppData\Local\Temp\cc2EfhU3.s:27356  .debug_str:0000000000024f01 .LASF764
C:\Users\SOLDER~1\AppData\Local\Temp\cc2EfhU3.s:19748  .debug_str:0000000000005deb .LASF765
C:\Users\SOLDER~1\AppData\Local\Temp\cc2EfhU3.s:20556  .debug_str:000000000000934e .LASF766
C:\Users\SOLDER~1\AppData\Local\Temp\cc2EfhU3.s:28500  .debug_str:0000000000029a4d .LASF767
C:\Users\SOLDER~1\AppData\Local\Temp\cc2EfhU3.s:18496  .debug_str:0000000000000db8 .LASF768
C:\Users\SOLDER~1\AppData\Local\Temp\cc2EfhU3.s:23260  .debug_str:00000000000144e3 .LASF769
C:\Users\SOLDER~1\AppData\Local\Temp\cc2EfhU3.s:25226  .debug_str:000000000001c40f .LASF770
C:\Users\SOLDER~1\AppData\Local\Temp\cc2EfhU3.s:20038  .debug_str:0000000000007161 .LASF771
C:\Users\SOLDER~1\AppData\Local\Temp\cc2EfhU3.s:19722  .debug_str:0000000000005c43 .LASF772
C:\Users\SOLDER~1\AppData\Local\Temp\cc2EfhU3.s:21266  .debug_str:000000000000c182 .LASF773
C:\Users\SOLDER~1\AppData\Local\Temp\cc2EfhU3.s:18862  .debug_str:00000000000025a0 .LASF774
C:\Users\SOLDER~1\AppData\Local\Temp\cc2EfhU3.s:19516  .debug_str:0000000000004f15 .LASF775
C:\Users\SOLDER~1\AppData\Local\Temp\cc2EfhU3.s:19498  .debug_str:0000000000004e26 .LASF776
C:\Users\SOLDER~1\AppData\Local\Temp\cc2EfhU3.s:19770  .debug_str:0000000000005f4c .LASF777
C:\Users\SOLDER~1\AppData\Local\Temp\cc2EfhU3.s:28654  .debug_str:000000000002a4cd .LASF778
C:\Users\SOLDER~1\AppData\Local\Temp\cc2EfhU3.s:25454  .debug_str:000000000001d399 .LASF779
C:\Users\SOLDER~1\AppData\Local\Temp\cc2EfhU3.s:24590  .debug_str:0000000000019adb .LASF780
C:\Users\SOLDER~1\AppData\Local\Temp\cc2EfhU3.s:26424  .debug_str:0000000000021279 .LASF781
C:\Users\SOLDER~1\AppData\Local\Temp\cc2EfhU3.s:20344  .debug_str:0000000000008522 .LASF782
C:\Users\SOLDER~1\AppData\Local\Temp\cc2EfhU3.s:29780  .debug_str:000000000002ed55 .LASF783
C:\Users\SOLDER~1\AppData\Local\Temp\cc2EfhU3.s:18706  .debug_str:0000000000001b0b .LASF784
C:\Users\SOLDER~1\AppData\Local\Temp\cc2EfhU3.s:21564  .debug_str:000000000000d59b .LASF785
C:\Users\SOLDER~1\AppData\Local\Temp\cc2EfhU3.s:20034  .debug_str:0000000000007122 .LASF786
C:\Users\SOLDER~1\AppData\Local\Temp\cc2EfhU3.s:24886  .debug_str:000000000001ae1d .LASF787
C:\Users\SOLDER~1\AppData\Local\Temp\cc2EfhU3.s:26860  .debug_str:0000000000022e7f .LASF788
C:\Users\SOLDER~1\AppData\Local\Temp\cc2EfhU3.s:24078  .debug_str:00000000000179ab .LASF789
C:\Users\SOLDER~1\AppData\Local\Temp\cc2EfhU3.s:29442  .debug_str:000000000002d7c1 .LASF790
C:\Users\SOLDER~1\AppData\Local\Temp\cc2EfhU3.s:24408  .debug_str:0000000000018f6c .LASF791
C:\Users\SOLDER~1\AppData\Local\Temp\cc2EfhU3.s:26622  .debug_str:0000000000021f18 .LASF792
C:\Users\SOLDER~1\AppData\Local\Temp\cc2EfhU3.s:22558  .debug_str:0000000000011631 .LASF793
C:\Users\SOLDER~1\AppData\Local\Temp\cc2EfhU3.s:27592  .debug_str:0000000000025ec7 .LASF794
C:\Users\SOLDER~1\AppData\Local\Temp\cc2EfhU3.s:28022  .debug_str:0000000000027b5f .LASF795
C:\Users\SOLDER~1\AppData\Local\Temp\cc2EfhU3.s:21240  .debug_str:000000000000bfcb .LASF796
C:\Users\SOLDER~1\AppData\Local\Temp\cc2EfhU3.s:28052  .debug_str:0000000000027d57 .LASF797
C:\Users\SOLDER~1\AppData\Local\Temp\cc2EfhU3.s:23452  .debug_str:000000000001519b .LASF798
C:\Users\SOLDER~1\AppData\Local\Temp\cc2EfhU3.s:23418  .debug_str:0000000000014f2f .LASF799
C:\Users\SOLDER~1\AppData\Local\Temp\cc2EfhU3.s:22874  .debug_str:0000000000012a32 .LASF800
C:\Users\SOLDER~1\AppData\Local\Temp\cc2EfhU3.s:21300  .debug_str:000000000000c3f5 .LASF801
C:\Users\SOLDER~1\AppData\Local\Temp\cc2EfhU3.s:25920  .debug_str:000000000001f1f0 .LASF802
C:\Users\SOLDER~1\AppData\Local\Temp\cc2EfhU3.s:29728  .debug_str:000000000002ea35 .LASF803
C:\Users\SOLDER~1\AppData\Local\Temp\cc2EfhU3.s:29476  .debug_str:000000000002d9e4 .LASF804
C:\Users\SOLDER~1\AppData\Local\Temp\cc2EfhU3.s:27700  .debug_str:0000000000026630 .LASF805
GAS LISTING C:\Users\SOLDER~1\AppData\Local\Temp\cc2EfhU3.s 			page 25


C:\Users\SOLDER~1\AppData\Local\Temp\cc2EfhU3.s:18912  .debug_str:00000000000028f5 .LASF806
C:\Users\SOLDER~1\AppData\Local\Temp\cc2EfhU3.s:27760  .debug_str:0000000000026a50 .LASF807
C:\Users\SOLDER~1\AppData\Local\Temp\cc2EfhU3.s:27984  .debug_str:00000000000278a1 .LASF808
C:\Users\SOLDER~1\AppData\Local\Temp\cc2EfhU3.s:19914  .debug_str:0000000000006936 .LASF809
C:\Users\SOLDER~1\AppData\Local\Temp\cc2EfhU3.s:24652  .debug_str:0000000000019eaa .LASF810
C:\Users\SOLDER~1\AppData\Local\Temp\cc2EfhU3.s:22724  .debug_str:00000000000120b6 .LASF811
C:\Users\SOLDER~1\AppData\Local\Temp\cc2EfhU3.s:19886  .debug_str:0000000000006724 .LASF812
C:\Users\SOLDER~1\AppData\Local\Temp\cc2EfhU3.s:29330  .debug_str:000000000002d0ac .LASF813
C:\Users\SOLDER~1\AppData\Local\Temp\cc2EfhU3.s:28364  .debug_str:00000000000291a6 .LASF814
C:\Users\SOLDER~1\AppData\Local\Temp\cc2EfhU3.s:19694  .debug_str:0000000000005a80 .LASF815
C:\Users\SOLDER~1\AppData\Local\Temp\cc2EfhU3.s:29002  .debug_str:000000000002bb16 .LASF816
C:\Users\SOLDER~1\AppData\Local\Temp\cc2EfhU3.s:27882  .debug_str:000000000002723c .LASF817
C:\Users\SOLDER~1\AppData\Local\Temp\cc2EfhU3.s:25930  .debug_str:000000000001f2a3 .LASF818
C:\Users\SOLDER~1\AppData\Local\Temp\cc2EfhU3.s:27634  .debug_str:00000000000261ce .LASF819
C:\Users\SOLDER~1\AppData\Local\Temp\cc2EfhU3.s:24714  .debug_str:000000000001a2ba .LASF820
C:\Users\SOLDER~1\AppData\Local\Temp\cc2EfhU3.s:21432  .debug_str:000000000000cd14 .LASF821
C:\Users\SOLDER~1\AppData\Local\Temp\cc2EfhU3.s:24400  .debug_str:0000000000018ee2 .LASF822
C:\Users\SOLDER~1\AppData\Local\Temp\cc2EfhU3.s:20632  .debug_str:0000000000009838 .LASF823
C:\Users\SOLDER~1\AppData\Local\Temp\cc2EfhU3.s:25536  .debug_str:000000000001d86b .LASF824
C:\Users\SOLDER~1\AppData\Local\Temp\cc2EfhU3.s:21902  .debug_str:000000000000eb86 .LASF825
C:\Users\SOLDER~1\AppData\Local\Temp\cc2EfhU3.s:25304  .debug_str:000000000001c980 .LASF826
C:\Users\SOLDER~1\AppData\Local\Temp\cc2EfhU3.s:27930  .debug_str:0000000000027567 .LASF827
C:\Users\SOLDER~1\AppData\Local\Temp\cc2EfhU3.s:24146  .debug_str:0000000000017e42 .LASF828
C:\Users\SOLDER~1\AppData\Local\Temp\cc2EfhU3.s:21462  .debug_str:000000000000ceea .LASF829
C:\Users\SOLDER~1\AppData\Local\Temp\cc2EfhU3.s:27446  .debug_str:00000000000254a0 .LASF830
C:\Users\SOLDER~1\AppData\Local\Temp\cc2EfhU3.s:22084  .debug_str:000000000000f743 .LASF831
C:\Users\SOLDER~1\AppData\Local\Temp\cc2EfhU3.s:28356  .debug_str:0000000000029108 .LASF832
C:\Users\SOLDER~1\AppData\Local\Temp\cc2EfhU3.s:20552  .debug_str:0000000000009308 .LASF833
C:\Users\SOLDER~1\AppData\Local\Temp\cc2EfhU3.s:28250  .debug_str:0000000000028a3c .LASF834
C:\Users\SOLDER~1\AppData\Local\Temp\cc2EfhU3.s:29210  .debug_str:000000000002c89c .LASF835
C:\Users\SOLDER~1\AppData\Local\Temp\cc2EfhU3.s:19250  .debug_str:0000000000003e85 .LASF836
C:\Users\SOLDER~1\AppData\Local\Temp\cc2EfhU3.s:26242  .debug_str:00000000000206b0 .LASF837
C:\Users\SOLDER~1\AppData\Local\Temp\cc2EfhU3.s:18928  .debug_str:00000000000029fc .LASF838
C:\Users\SOLDER~1\AppData\Local\Temp\cc2EfhU3.s:21152  .debug_str:000000000000ba0f .LASF839
C:\Users\SOLDER~1\AppData\Local\Temp\cc2EfhU3.s:19618  .debug_str:0000000000005542 .LASF840
C:\Users\SOLDER~1\AppData\Local\Temp\cc2EfhU3.s:22502  .debug_str:0000000000011282 .LASF841
C:\Users\SOLDER~1\AppData\Local\Temp\cc2EfhU3.s:22486  .debug_str:000000000001116e .LASF842
C:\Users\SOLDER~1\AppData\Local\Temp\cc2EfhU3.s:25084  .debug_str:000000000001ba73 .LASF843
C:\Users\SOLDER~1\AppData\Local\Temp\cc2EfhU3.s:29568  .debug_str:000000000002dfcd .LASF844
C:\Users\SOLDER~1\AppData\Local\Temp\cc2EfhU3.s:28604  .debug_str:000000000002a181 .LASF845
C:\Users\SOLDER~1\AppData\Local\Temp\cc2EfhU3.s:24718  .debug_str:000000000001a2ea .LASF846
C:\Users\SOLDER~1\AppData\Local\Temp\cc2EfhU3.s:22670  .debug_str:0000000000011d4f .LASF847
C:\Users\SOLDER~1\AppData\Local\Temp\cc2EfhU3.s:18668  .debug_str:0000000000001885 .LASF848
C:\Users\SOLDER~1\AppData\Local\Temp\cc2EfhU3.s:25718  .debug_str:000000000001e44b .LASF849
C:\Users\SOLDER~1\AppData\Local\Temp\cc2EfhU3.s:28688  .debug_str:000000000002a6bd .LASF850
C:\Users\SOLDER~1\AppData\Local\Temp\cc2EfhU3.s:19590  .debug_str:00000000000053a6 .LASF851
C:\Users\SOLDER~1\AppData\Local\Temp\cc2EfhU3.s:21994  .debug_str:000000000000f148 .LASF852
C:\Users\SOLDER~1\AppData\Local\Temp\cc2EfhU3.s:23666  .debug_str:0000000000015f52 .LASF853
C:\Users\SOLDER~1\AppData\Local\Temp\cc2EfhU3.s:20840  .debug_str:000000000000a5fc .LASF854
C:\Users\SOLDER~1\AppData\Local\Temp\cc2EfhU3.s:21882  .debug_str:000000000000ea5d .LASF855
C:\Users\SOLDER~1\AppData\Local\Temp\cc2EfhU3.s:25824  .debug_str:000000000001eb7d .LASF856
C:\Users\SOLDER~1\AppData\Local\Temp\cc2EfhU3.s:21916  .debug_str:000000000000ec7b .LASF857
C:\Users\SOLDER~1\AppData\Local\Temp\cc2EfhU3.s:26710  .debug_str:00000000000224ba .LASF858
C:\Users\SOLDER~1\AppData\Local\Temp\cc2EfhU3.s:19216  .debug_str:0000000000003c51 .LASF859
C:\Users\SOLDER~1\AppData\Local\Temp\cc2EfhU3.s:21210  .debug_str:000000000000bdc1 .LASF860
C:\Users\SOLDER~1\AppData\Local\Temp\cc2EfhU3.s:26578  .debug_str:0000000000021c60 .LASF861
C:\Users\SOLDER~1\AppData\Local\Temp\cc2EfhU3.s:22484  .debug_str:000000000001115b .LASF862
GAS LISTING C:\Users\SOLDER~1\AppData\Local\Temp\cc2EfhU3.s 			page 26


C:\Users\SOLDER~1\AppData\Local\Temp\cc2EfhU3.s:24792  .debug_str:000000000001a7c6 .LASF863
C:\Users\SOLDER~1\AppData\Local\Temp\cc2EfhU3.s:22964  .debug_str:0000000000013011 .LASF864
C:\Users\SOLDER~1\AppData\Local\Temp\cc2EfhU3.s:26624  .debug_str:0000000000021f32 .LASF865
C:\Users\SOLDER~1\AppData\Local\Temp\cc2EfhU3.s:22290  .debug_str:000000000001050e .LASF866
C:\Users\SOLDER~1\AppData\Local\Temp\cc2EfhU3.s:19100  .debug_str:00000000000034e7 .LASF867
C:\Users\SOLDER~1\AppData\Local\Temp\cc2EfhU3.s:29606  .debug_str:000000000002e224 .LASF868
C:\Users\SOLDER~1\AppData\Local\Temp\cc2EfhU3.s:19526  .debug_str:0000000000004fca .LASF869
C:\Users\SOLDER~1\AppData\Local\Temp\cc2EfhU3.s:23158  .debug_str:0000000000013dd7 .LASF870
C:\Users\SOLDER~1\AppData\Local\Temp\cc2EfhU3.s:29116  .debug_str:000000000002c2b8 .LASF871
C:\Users\SOLDER~1\AppData\Local\Temp\cc2EfhU3.s:23646  .debug_str:0000000000015df8 .LASF872
C:\Users\SOLDER~1\AppData\Local\Temp\cc2EfhU3.s:29722  .debug_str:000000000002e9e2 .LASF873
C:\Users\SOLDER~1\AppData\Local\Temp\cc2EfhU3.s:25152  .debug_str:000000000001bef8 .LASF874
C:\Users\SOLDER~1\AppData\Local\Temp\cc2EfhU3.s:24414  .debug_str:0000000000018fb0 .LASF875
C:\Users\SOLDER~1\AppData\Local\Temp\cc2EfhU3.s:19846  .debug_str:0000000000006497 .LASF876
C:\Users\SOLDER~1\AppData\Local\Temp\cc2EfhU3.s:28306  .debug_str:0000000000028db5 .LASF877
C:\Users\SOLDER~1\AppData\Local\Temp\cc2EfhU3.s:26862  .debug_str:0000000000022e9f .LASF878
C:\Users\SOLDER~1\AppData\Local\Temp\cc2EfhU3.s:22444  .debug_str:0000000000010ebb .LASF879
C:\Users\SOLDER~1\AppData\Local\Temp\cc2EfhU3.s:18986  .debug_str:0000000000002d7e .LASF880
C:\Users\SOLDER~1\AppData\Local\Temp\cc2EfhU3.s:28794  .debug_str:000000000002ad86 .LASF881
C:\Users\SOLDER~1\AppData\Local\Temp\cc2EfhU3.s:19986  .debug_str:0000000000006dc1 .LASF882
C:\Users\SOLDER~1\AppData\Local\Temp\cc2EfhU3.s:19560  .debug_str:00000000000051e3 .LASF883
C:\Users\SOLDER~1\AppData\Local\Temp\cc2EfhU3.s:23536  .debug_str:00000000000156fe .LASF884
C:\Users\SOLDER~1\AppData\Local\Temp\cc2EfhU3.s:21220  .debug_str:000000000000be76 .LASF885
C:\Users\SOLDER~1\AppData\Local\Temp\cc2EfhU3.s:25594  .debug_str:000000000001dc58 .LASF886
C:\Users\SOLDER~1\AppData\Local\Temp\cc2EfhU3.s:24688  .debug_str:000000000001a0ed .LASF887
C:\Users\SOLDER~1\AppData\Local\Temp\cc2EfhU3.s:20850  .debug_str:000000000000a6b5 .LASF888
C:\Users\SOLDER~1\AppData\Local\Temp\cc2EfhU3.s:22380  .debug_str:0000000000010aaf .LASF889
C:\Users\SOLDER~1\AppData\Local\Temp\cc2EfhU3.s:28460  .debug_str:00000000000297b1 .LASF890
C:\Users\SOLDER~1\AppData\Local\Temp\cc2EfhU3.s:18378  .debug_str:00000000000004ee .LASF891
C:\Users\SOLDER~1\AppData\Local\Temp\cc2EfhU3.s:28970  .debug_str:000000000002b903 .LASF892
C:\Users\SOLDER~1\AppData\Local\Temp\cc2EfhU3.s:28888  .debug_str:000000000002b3b7 .LASF893
C:\Users\SOLDER~1\AppData\Local\Temp\cc2EfhU3.s:26876  .debug_str:0000000000022f90 .LASF894
C:\Users\SOLDER~1\AppData\Local\Temp\cc2EfhU3.s:28476  .debug_str:00000000000298c0 .LASF895
C:\Users\SOLDER~1\AppData\Local\Temp\cc2EfhU3.s:29264  .debug_str:000000000002cc1a .LASF896
C:\Users\SOLDER~1\AppData\Local\Temp\cc2EfhU3.s:28054  .debug_str:0000000000027d79 .LASF897
C:\Users\SOLDER~1\AppData\Local\Temp\cc2EfhU3.s:19910  .debug_str:00000000000068ee .LASF898
C:\Users\SOLDER~1\AppData\Local\Temp\cc2EfhU3.s:18396  .debug_str:000000000000062b .LASF899
C:\Users\SOLDER~1\AppData\Local\Temp\cc2EfhU3.s:19842  .debug_str:0000000000006451 .LASF900
C:\Users\SOLDER~1\AppData\Local\Temp\cc2EfhU3.s:24174  .debug_str:0000000000018030 .LASF901
C:\Users\SOLDER~1\AppData\Local\Temp\cc2EfhU3.s:26038  .debug_str:000000000001f9ae .LASF902
C:\Users\SOLDER~1\AppData\Local\Temp\cc2EfhU3.s:20062  .debug_str:00000000000072eb .LASF903
C:\Users\SOLDER~1\AppData\Local\Temp\cc2EfhU3.s:19108  .debug_str:000000000000355a .LASF904
C:\Users\SOLDER~1\AppData\Local\Temp\cc2EfhU3.s:21176  .debug_str:000000000000bbbc .LASF905
C:\Users\SOLDER~1\AppData\Local\Temp\cc2EfhU3.s:19338  .debug_str:000000000000440a .LASF906
C:\Users\SOLDER~1\AppData\Local\Temp\cc2EfhU3.s:20112  .debug_str:0000000000007605 .LASF907
C:\Users\SOLDER~1\AppData\Local\Temp\cc2EfhU3.s:27052  .debug_str:0000000000023b09 .LASF908
C:\Users\SOLDER~1\AppData\Local\Temp\cc2EfhU3.s:23960  .debug_str:00000000000171fd .LASF909
C:\Users\SOLDER~1\AppData\Local\Temp\cc2EfhU3.s:23044  .debug_str:00000000000135a4 .LASF910
C:\Users\SOLDER~1\AppData\Local\Temp\cc2EfhU3.s:25628  .debug_str:000000000001de99 .LASF911
C:\Users\SOLDER~1\AppData\Local\Temp\cc2EfhU3.s:19602  .debug_str:000000000000545b .LASF912
C:\Users\SOLDER~1\AppData\Local\Temp\cc2EfhU3.s:28656  .debug_str:000000000002a4ef .LASF913
C:\Users\SOLDER~1\AppData\Local\Temp\cc2EfhU3.s:18902  .debug_str:000000000000281e .LASF914
C:\Users\SOLDER~1\AppData\Local\Temp\cc2EfhU3.s:25702  .debug_str:000000000001e317 .LASF915
C:\Users\SOLDER~1\AppData\Local\Temp\cc2EfhU3.s:24094  .debug_str:0000000000017aaf .LASF916
C:\Users\SOLDER~1\AppData\Local\Temp\cc2EfhU3.s:19404  .debug_str:0000000000004850 .LASF917
C:\Users\SOLDER~1\AppData\Local\Temp\cc2EfhU3.s:25954  .debug_str:000000000001f46d .LASF918
C:\Users\SOLDER~1\AppData\Local\Temp\cc2EfhU3.s:24802  .debug_str:000000000001a84f .LASF919
GAS LISTING C:\Users\SOLDER~1\AppData\Local\Temp\cc2EfhU3.s 			page 27


C:\Users\SOLDER~1\AppData\Local\Temp\cc2EfhU3.s:26500  .debug_str:000000000002175d .LASF920
C:\Users\SOLDER~1\AppData\Local\Temp\cc2EfhU3.s:22060  .debug_str:000000000000f5b6 .LASF921
C:\Users\SOLDER~1\AppData\Local\Temp\cc2EfhU3.s:18692  .debug_str:0000000000001a1d .LASF922
C:\Users\SOLDER~1\AppData\Local\Temp\cc2EfhU3.s:28332  .debug_str:0000000000028f84 .LASF923
C:\Users\SOLDER~1\AppData\Local\Temp\cc2EfhU3.s:28642  .debug_str:000000000002a3fc .LASF924
C:\Users\SOLDER~1\AppData\Local\Temp\cc2EfhU3.s:19480  .debug_str:0000000000004d11 .LASF925
C:\Users\SOLDER~1\AppData\Local\Temp\cc2EfhU3.s:19908  .debug_str:00000000000068ce .LASF926
C:\Users\SOLDER~1\AppData\Local\Temp\cc2EfhU3.s:29048  .debug_str:000000000002be60 .LASF927
C:\Users\SOLDER~1\AppData\Local\Temp\cc2EfhU3.s:25230  .debug_str:000000000001c46b .LASF928
C:\Users\SOLDER~1\AppData\Local\Temp\cc2EfhU3.s:24336  .debug_str:0000000000018a88 .LASF929
C:\Users\SOLDER~1\AppData\Local\Temp\cc2EfhU3.s:25740  .debug_str:000000000001e5e3 .LASF930
C:\Users\SOLDER~1\AppData\Local\Temp\cc2EfhU3.s:18632  .debug_str:0000000000001642 .LASF931
C:\Users\SOLDER~1\AppData\Local\Temp\cc2EfhU3.s:19980  .debug_str:0000000000006d48 .LASF932
C:\Users\SOLDER~1\AppData\Local\Temp\cc2EfhU3.s:18546  .debug_str:00000000000010a2 .LASF933
C:\Users\SOLDER~1\AppData\Local\Temp\cc2EfhU3.s:21738  .debug_str:000000000000e129 .LASF934
C:\Users\SOLDER~1\AppData\Local\Temp\cc2EfhU3.s:28522  .debug_str:0000000000029bed .LASF935
C:\Users\SOLDER~1\AppData\Local\Temp\cc2EfhU3.s:26514  .debug_str:0000000000021843 .LASF936
C:\Users\SOLDER~1\AppData\Local\Temp\cc2EfhU3.s:28088  .debug_str:0000000000027fd7 .LASF937
C:\Users\SOLDER~1\AppData\Local\Temp\cc2EfhU3.s:25382  .debug_str:000000000001ce88 .LASF938
C:\Users\SOLDER~1\AppData\Local\Temp\cc2EfhU3.s:28366  .debug_str:00000000000291b9 .LASF939
C:\Users\SOLDER~1\AppData\Local\Temp\cc2EfhU3.s:20592  .debug_str:00000000000095bb .LASF940
C:\Users\SOLDER~1\AppData\Local\Temp\cc2EfhU3.s:28506  .debug_str:0000000000029aca .LASF941
C:\Users\SOLDER~1\AppData\Local\Temp\cc2EfhU3.s:21940  .debug_str:000000000000ee15 .LASF942
C:\Users\SOLDER~1\AppData\Local\Temp\cc2EfhU3.s:27426  .debug_str:0000000000025354 .LASF943
C:\Users\SOLDER~1\AppData\Local\Temp\cc2EfhU3.s:19122  .debug_str:0000000000003632 .LASF944
C:\Users\SOLDER~1\AppData\Local\Temp\cc2EfhU3.s:21786  .debug_str:000000000000e440 .LASF945
C:\Users\SOLDER~1\AppData\Local\Temp\cc2EfhU3.s:28676  .debug_str:000000000002a60a .LASF946
C:\Users\SOLDER~1\AppData\Local\Temp\cc2EfhU3.s:27506  .debug_str:00000000000258ca .LASF947
C:\Users\SOLDER~1\AppData\Local\Temp\cc2EfhU3.s:24982  .debug_str:000000000001b40b .LASF948
C:\Users\SOLDER~1\AppData\Local\Temp\cc2EfhU3.s:20660  .debug_str:00000000000099f0 .LASF949
C:\Users\SOLDER~1\AppData\Local\Temp\cc2EfhU3.s:21756  .debug_str:000000000000e256 .LASF950
C:\Users\SOLDER~1\AppData\Local\Temp\cc2EfhU3.s:22106  .debug_str:000000000000f8db .LASF951
C:\Users\SOLDER~1\AppData\Local\Temp\cc2EfhU3.s:29344  .debug_str:000000000002d1a3 .LASF952
C:\Users\SOLDER~1\AppData\Local\Temp\cc2EfhU3.s:21610  .debug_str:000000000000d8a1 .LASF953
C:\Users\SOLDER~1\AppData\Local\Temp\cc2EfhU3.s:23996  .debug_str:0000000000017455 .LASF954
C:\Users\SOLDER~1\AppData\Local\Temp\cc2EfhU3.s:24516  .debug_str:000000000001964a .LASF955
C:\Users\SOLDER~1\AppData\Local\Temp\cc2EfhU3.s:24364  .debug_str:0000000000018c84 .LASF956
C:\Users\SOLDER~1\AppData\Local\Temp\cc2EfhU3.s:23850  .debug_str:0000000000016add .LASF957
C:\Users\SOLDER~1\AppData\Local\Temp\cc2EfhU3.s:21966  .debug_str:000000000000efa4 .LASF958
C:\Users\SOLDER~1\AppData\Local\Temp\cc2EfhU3.s:19444  .debug_str:0000000000004ab4 .LASF959
C:\Users\SOLDER~1\AppData\Local\Temp\cc2EfhU3.s:19676  .debug_str:0000000000005945 .LASF960
C:\Users\SOLDER~1\AppData\Local\Temp\cc2EfhU3.s:26454  .debug_str:000000000002147a .LASF961
C:\Users\SOLDER~1\AppData\Local\Temp\cc2EfhU3.s:28798  .debug_str:000000000002add0 .LASF962
C:\Users\SOLDER~1\AppData\Local\Temp\cc2EfhU3.s:22038  .debug_str:000000000000f444 .LASF963
C:\Users\SOLDER~1\AppData\Local\Temp\cc2EfhU3.s:26394  .debug_str:00000000000210bb .LASF964
C:\Users\SOLDER~1\AppData\Local\Temp\cc2EfhU3.s:29080  .debug_str:000000000002c09a .LASF965
C:\Users\SOLDER~1\AppData\Local\Temp\cc2EfhU3.s:24096  .debug_str:0000000000017ad1 .LASF966
C:\Users\SOLDER~1\AppData\Local\Temp\cc2EfhU3.s:23890  .debug_str:0000000000016d3f .LASF967
C:\Users\SOLDER~1\AppData\Local\Temp\cc2EfhU3.s:21674  .debug_str:000000000000dc8e .LASF968
C:\Users\SOLDER~1\AppData\Local\Temp\cc2EfhU3.s:20266  .debug_str:000000000000801e .LASF969
C:\Users\SOLDER~1\AppData\Local\Temp\cc2EfhU3.s:19294  .debug_str:0000000000004156 .LASF970
C:\Users\SOLDER~1\AppData\Local\Temp\cc2EfhU3.s:27246  .debug_str:00000000000247e3 .LASF971
C:\Users\SOLDER~1\AppData\Local\Temp\cc2EfhU3.s:28432  .debug_str:0000000000029609 .LASF972
C:\Users\SOLDER~1\AppData\Local\Temp\cc2EfhU3.s:21452  .debug_str:000000000000ce4f .LASF973
C:\Users\SOLDER~1\AppData\Local\Temp\cc2EfhU3.s:22524  .debug_str:000000000001140d .LASF974
C:\Users\SOLDER~1\AppData\Local\Temp\cc2EfhU3.s:22070  .debug_str:000000000000f64e .LASF975
C:\Users\SOLDER~1\AppData\Local\Temp\cc2EfhU3.s:22942  .debug_str:0000000000012ed1 .LASF976
GAS LISTING C:\Users\SOLDER~1\AppData\Local\Temp\cc2EfhU3.s 			page 28


C:\Users\SOLDER~1\AppData\Local\Temp\cc2EfhU3.s:29202  .debug_str:000000000002c833 .LASF977
C:\Users\SOLDER~1\AppData\Local\Temp\cc2EfhU3.s:29260  .debug_str:000000000002cbd8 .LASF978
C:\Users\SOLDER~1\AppData\Local\Temp\cc2EfhU3.s:24746  .debug_str:000000000001a4ad .LASF979
C:\Users\SOLDER~1\AppData\Local\Temp\cc2EfhU3.s:26844  .debug_str:0000000000022d63 .LASF980
C:\Users\SOLDER~1\AppData\Local\Temp\cc2EfhU3.s:20294  .debug_str:00000000000081fe .LASF981
C:\Users\SOLDER~1\AppData\Local\Temp\cc2EfhU3.s:24524  .debug_str:000000000001969b .LASF982
C:\Users\SOLDER~1\AppData\Local\Temp\cc2EfhU3.s:27272  .debug_str:00000000000249b9 .LASF983
C:\Users\SOLDER~1\AppData\Local\Temp\cc2EfhU3.s:22252  .debug_str:0000000000010295 .LASF984
C:\Users\SOLDER~1\AppData\Local\Temp\cc2EfhU3.s:22870  .debug_str:00000000000129f7 .LASF985
C:\Users\SOLDER~1\AppData\Local\Temp\cc2EfhU3.s:19856  .debug_str:0000000000006521 .LASF986
C:\Users\SOLDER~1\AppData\Local\Temp\cc2EfhU3.s:18530  .debug_str:0000000000000fc3 .LASF987
C:\Users\SOLDER~1\AppData\Local\Temp\cc2EfhU3.s:28978  .debug_str:000000000002b98c .LASF988
C:\Users\SOLDER~1\AppData\Local\Temp\cc2EfhU3.s:25514  .debug_str:000000000001d719 .LASF989
C:\Users\SOLDER~1\AppData\Local\Temp\cc2EfhU3.s:19736  .debug_str:0000000000005d39 .LASF990
C:\Users\SOLDER~1\AppData\Local\Temp\cc2EfhU3.s:21072  .debug_str:000000000000b508 .LASF991
C:\Users\SOLDER~1\AppData\Local\Temp\cc2EfhU3.s:24264  .debug_str:00000000000185cf .LASF992
C:\Users\SOLDER~1\AppData\Local\Temp\cc2EfhU3.s:28096  .debug_str:0000000000028052 .LASF993
C:\Users\SOLDER~1\AppData\Local\Temp\cc2EfhU3.s:25326  .debug_str:000000000001caf2 .LASF994
C:\Users\SOLDER~1\AppData\Local\Temp\cc2EfhU3.s:23684  .debug_str:000000000001608b .LASF995
C:\Users\SOLDER~1\AppData\Local\Temp\cc2EfhU3.s:22334  .debug_str:00000000000107d1 .LASF996
C:\Users\SOLDER~1\AppData\Local\Temp\cc2EfhU3.s:19204  .debug_str:0000000000003b96 .LASF997
C:\Users\SOLDER~1\AppData\Local\Temp\cc2EfhU3.s:20602  .debug_str:000000000000963a .LASF998
C:\Users\SOLDER~1\AppData\Local\Temp\cc2EfhU3.s:26302  .debug_str:0000000000020a96 .LASF999
C:\Users\SOLDER~1\AppData\Local\Temp\cc2EfhU3.s:29718  .debug_str:000000000002e99a .LASF1000
C:\Users\SOLDER~1\AppData\Local\Temp\cc2EfhU3.s:21874  .debug_str:000000000000e9ef .LASF1001
C:\Users\SOLDER~1\AppData\Local\Temp\cc2EfhU3.s:27300  .debug_str:0000000000024b7f .LASF1002
C:\Users\SOLDER~1\AppData\Local\Temp\cc2EfhU3.s:28928  .debug_str:000000000002b66f .LASF1003
C:\Users\SOLDER~1\AppData\Local\Temp\cc2EfhU3.s:25062  .debug_str:000000000001b922 .LASF1004
C:\Users\SOLDER~1\AppData\Local\Temp\cc2EfhU3.s:24480  .debug_str:0000000000019411 .LASF1005
C:\Users\SOLDER~1\AppData\Local\Temp\cc2EfhU3.s:22692  .debug_str:0000000000011ec4 .LASF1006
C:\Users\SOLDER~1\AppData\Local\Temp\cc2EfhU3.s:20016  .debug_str:0000000000006fed .LASF1007
C:\Users\SOLDER~1\AppData\Local\Temp\cc2EfhU3.s:20318  .debug_str:0000000000008387 .LASF1008
C:\Users\SOLDER~1\AppData\Local\Temp\cc2EfhU3.s:27096  .debug_str:0000000000023df2 .LASF1009
C:\Users\SOLDER~1\AppData\Local\Temp\cc2EfhU3.s:29436  .debug_str:000000000002d76e .LASF1010
C:\Users\SOLDER~1\AppData\Local\Temp\cc2EfhU3.s:22684  .debug_str:0000000000011e40 .LASF1011
C:\Users\SOLDER~1\AppData\Local\Temp\cc2EfhU3.s:27678  .debug_str:000000000002649c .LASF1012
C:\Users\SOLDER~1\AppData\Local\Temp\cc2EfhU3.s:29712  .debug_str:000000000002e941 .LASF1013
C:\Users\SOLDER~1\AppData\Local\Temp\cc2EfhU3.s:28156  .debug_str:0000000000028411 .LASF1014
C:\Users\SOLDER~1\AppData\Local\Temp\cc2EfhU3.s:25242  .debug_str:000000000001c54f .LASF1015
C:\Users\SOLDER~1\AppData\Local\Temp\cc2EfhU3.s:25786  .debug_str:000000000001e915 .LASF1016
C:\Users\SOLDER~1\AppData\Local\Temp\cc2EfhU3.s:20784  .debug_str:000000000000a21e .LASF1017
C:\Users\SOLDER~1\AppData\Local\Temp\cc2EfhU3.s:23436  .debug_str:0000000000015073 .LASF1018
C:\Users\SOLDER~1\AppData\Local\Temp\cc2EfhU3.s:27812  .debug_str:0000000000026db0 .LASF1019
C:\Users\SOLDER~1\AppData\Local\Temp\cc2EfhU3.s:21044  .debug_str:000000000000b313 .LASF1020
C:\Users\SOLDER~1\AppData\Local\Temp\cc2EfhU3.s:22658  .debug_str:0000000000011caa .LASF1021
C:\Users\SOLDER~1\AppData\Local\Temp\cc2EfhU3.s:24712  .debug_str:000000000001a299 .LASF1022
C:\Users\SOLDER~1\AppData\Local\Temp\cc2EfhU3.s:19022  .debug_str:0000000000002fe3 .LASF1023
C:\Users\SOLDER~1\AppData\Local\Temp\cc2EfhU3.s:27862  .debug_str:00000000000270dd .LASF1024
C:\Users\SOLDER~1\AppData\Local\Temp\cc2EfhU3.s:26830  .debug_str:0000000000022cb4 .LASF1025
C:\Users\SOLDER~1\AppData\Local\Temp\cc2EfhU3.s:25492  .debug_str:000000000001d5c6 .LASF1026
C:\Users\SOLDER~1\AppData\Local\Temp\cc2EfhU3.s:21590  .debug_str:000000000000d770 .LASF1027
C:\Users\SOLDER~1\AppData\Local\Temp\cc2EfhU3.s:23166  .debug_str:0000000000013e69 .LASF1028
C:\Users\SOLDER~1\AppData\Local\Temp\cc2EfhU3.s:28636  .debug_str:000000000002a383 .LASF1029
C:\Users\SOLDER~1\AppData\Local\Temp\cc2EfhU3.s:20758  .debug_str:000000000000a062 .LASF1030
C:\Users\SOLDER~1\AppData\Local\Temp\cc2EfhU3.s:20360  .debug_str:0000000000008620 .LASF1031
C:\Users\SOLDER~1\AppData\Local\Temp\cc2EfhU3.s:18424  .debug_str:0000000000000869 .LASF1032
C:\Users\SOLDER~1\AppData\Local\Temp\cc2EfhU3.s:19724  .debug_str:0000000000005c63 .LASF1033
GAS LISTING C:\Users\SOLDER~1\AppData\Local\Temp\cc2EfhU3.s 			page 29


C:\Users\SOLDER~1\AppData\Local\Temp\cc2EfhU3.s:19506  .debug_str:0000000000004e92 .LASF1034
C:\Users\SOLDER~1\AppData\Local\Temp\cc2EfhU3.s:26714  .debug_str:00000000000224f4 .LASF1035
C:\Users\SOLDER~1\AppData\Local\Temp\cc2EfhU3.s:28620  .debug_str:000000000002a280 .LASF1036
C:\Users\SOLDER~1\AppData\Local\Temp\cc2EfhU3.s:22418  .debug_str:0000000000010d30 .LASF1037
C:\Users\SOLDER~1\AppData\Local\Temp\cc2EfhU3.s:26222  .debug_str:0000000000020575 .LASF1038
C:\Users\SOLDER~1\AppData\Local\Temp\cc2EfhU3.s:27218  .debug_str:0000000000024617 .LASF1039
C:\Users\SOLDER~1\AppData\Local\Temp\cc2EfhU3.s:20654  .debug_str:0000000000009998 .LASF1040
C:\Users\SOLDER~1\AppData\Local\Temp\cc2EfhU3.s:19428  .debug_str:00000000000049bf .LASF1041
C:\Users\SOLDER~1\AppData\Local\Temp\cc2EfhU3.s:22276  .debug_str:0000000000010446 .LASF1042
C:\Users\SOLDER~1\AppData\Local\Temp\cc2EfhU3.s:28284  .debug_str:0000000000028c78 .LASF1043
C:\Users\SOLDER~1\AppData\Local\Temp\cc2EfhU3.s:26026  .debug_str:000000000001f8df .LASF1044
C:\Users\SOLDER~1\AppData\Local\Temp\cc2EfhU3.s:23600  .debug_str:0000000000015b1d .LASF1045
C:\Users\SOLDER~1\AppData\Local\Temp\cc2EfhU3.s:19214  .debug_str:0000000000003c35 .LASF1046
C:\Users\SOLDER~1\AppData\Local\Temp\cc2EfhU3.s:27710  .debug_str:00000000000266dc .LASF1047
C:\Users\SOLDER~1\AppData\Local\Temp\cc2EfhU3.s:19814  .debug_str:000000000000627c .LASF1048
C:\Users\SOLDER~1\AppData\Local\Temp\cc2EfhU3.s:23964  .debug_str:0000000000017243 .LASF1049
C:\Users\SOLDER~1\AppData\Local\Temp\cc2EfhU3.s:22668  .debug_str:0000000000011d36 .LASF1050
C:\Users\SOLDER~1\AppData\Local\Temp\cc2EfhU3.s:25318  .debug_str:000000000001ca7f .LASF1051
C:\Users\SOLDER~1\AppData\Local\Temp\cc2EfhU3.s:27698  .debug_str:0000000000026615 .LASF1052
C:\Users\SOLDER~1\AppData\Local\Temp\cc2EfhU3.s:21860  .debug_str:000000000000e91a .LASF1053
C:\Users\SOLDER~1\AppData\Local\Temp\cc2EfhU3.s:25142  .debug_str:000000000001be5b .LASF1054
C:\Users\SOLDER~1\AppData\Local\Temp\cc2EfhU3.s:19512  .debug_str:0000000000004ee9 .LASF1055
C:\Users\SOLDER~1\AppData\Local\Temp\cc2EfhU3.s:26406  .debug_str:0000000000021177 .LASF1056
C:\Users\SOLDER~1\AppData\Local\Temp\cc2EfhU3.s:26496  .debug_str:0000000000021715 .LASF1057
C:\Users\SOLDER~1\AppData\Local\Temp\cc2EfhU3.s:25474  .debug_str:000000000001d4c0 .LASF1058
C:\Users\SOLDER~1\AppData\Local\Temp\cc2EfhU3.s:28484  .debug_str:0000000000029945 .LASF1059
C:\Users\SOLDER~1\AppData\Local\Temp\cc2EfhU3.s:26416  .debug_str:00000000000211fe .LASF1060
C:\Users\SOLDER~1\AppData\Local\Temp\cc2EfhU3.s:26180  .debug_str:00000000000202b4 .LASF1061
C:\Users\SOLDER~1\AppData\Local\Temp\cc2EfhU3.s:29382  .debug_str:000000000002d3ee .LASF1062
C:\Users\SOLDER~1\AppData\Local\Temp\cc2EfhU3.s:19878  .debug_str:00000000000066b7 .LASF1063
C:\Users\SOLDER~1\AppData\Local\Temp\cc2EfhU3.s:22182  .debug_str:000000000000fe2e .LASF1064
C:\Users\SOLDER~1\AppData\Local\Temp\cc2EfhU3.s:26822  .debug_str:0000000000022c31 .LASF1065
C:\Users\SOLDER~1\AppData\Local\Temp\cc2EfhU3.s:26846  .debug_str:0000000000022d84 .LASF1066
C:\Users\SOLDER~1\AppData\Local\Temp\cc2EfhU3.s:21592  .debug_str:000000000000d787 .LASF1067
C:\Users\SOLDER~1\AppData\Local\Temp\cc2EfhU3.s:19414  .debug_str:00000000000048f7 .LASF1068
C:\Users\SOLDER~1\AppData\Local\Temp\cc2EfhU3.s:22412  .debug_str:0000000000010cc5 .LASF1069
C:\Users\SOLDER~1\AppData\Local\Temp\cc2EfhU3.s:26698  .debug_str:00000000000223dd .LASF1070
C:\Users\SOLDER~1\AppData\Local\Temp\cc2EfhU3.s:25390  .debug_str:000000000001cf20 .LASF1071
C:\Users\SOLDER~1\AppData\Local\Temp\cc2EfhU3.s:22392  .debug_str:0000000000010b6d .LASF1072
C:\Users\SOLDER~1\AppData\Local\Temp\cc2EfhU3.s:26940  .debug_str:00000000000233db .LASF1073
C:\Users\SOLDER~1\AppData\Local\Temp\cc2EfhU3.s:18442  .debug_str:00000000000009d6 .LASF1074
C:\Users\SOLDER~1\AppData\Local\Temp\cc2EfhU3.s:24666  .debug_str:0000000000019fa1 .LASF1075
C:\Users\SOLDER~1\AppData\Local\Temp\cc2EfhU3.s:23186  .debug_str:0000000000013fa6 .LASF1076
C:\Users\SOLDER~1\AppData\Local\Temp\cc2EfhU3.s:21390  .debug_str:000000000000ca22 .LASF1077
C:\Users\SOLDER~1\AppData\Local\Temp\cc2EfhU3.s:18888  .debug_str:000000000000273c .LASF1078
C:\Users\SOLDER~1\AppData\Local\Temp\cc2EfhU3.s:27398  .debug_str:00000000000251a8 .LASF1079
C:\Users\SOLDER~1\AppData\Local\Temp\cc2EfhU3.s:20478  .debug_str:0000000000008dfb .LASF1080
C:\Users\SOLDER~1\AppData\Local\Temp\cc2EfhU3.s:22844  .debug_str:0000000000012847 .LASF1081
C:\Users\SOLDER~1\AppData\Local\Temp\cc2EfhU3.s:26258  .debug_str:00000000000207bb .LASF1082
C:\Users\SOLDER~1\AppData\Local\Temp\cc2EfhU3.s:25720  .debug_str:000000000001e46b .LASF1083
C:\Users\SOLDER~1\AppData\Local\Temp\cc2EfhU3.s:23676  .debug_str:0000000000016000 .LASF1084
C:\Users\SOLDER~1\AppData\Local\Temp\cc2EfhU3.s:19728  .debug_str:0000000000005c9f .LASF1085
C:\Users\SOLDER~1\AppData\Local\Temp\cc2EfhU3.s:26806  .debug_str:0000000000022b22 .LASF1086
C:\Users\SOLDER~1\AppData\Local\Temp\cc2EfhU3.s:28562  .debug_str:0000000000029e84 .LASF1087
C:\Users\SOLDER~1\AppData\Local\Temp\cc2EfhU3.s:26398  .debug_str:00000000000210f1 .LASF1088
C:\Users\SOLDER~1\AppData\Local\Temp\cc2EfhU3.s:19698  .debug_str:0000000000005ac3 .LASF1089
C:\Users\SOLDER~1\AppData\Local\Temp\cc2EfhU3.s:27720  .debug_str:0000000000026775 .LASF1090
GAS LISTING C:\Users\SOLDER~1\AppData\Local\Temp\cc2EfhU3.s 			page 30


C:\Users\SOLDER~1\AppData\Local\Temp\cc2EfhU3.s:25564  .debug_str:000000000001da33 .LASF1091
C:\Users\SOLDER~1\AppData\Local\Temp\cc2EfhU3.s:20056  .debug_str:000000000000727f .LASF1092
C:\Users\SOLDER~1\AppData\Local\Temp\cc2EfhU3.s:24112  .debug_str:0000000000017bd3 .LASF1093
C:\Users\SOLDER~1\AppData\Local\Temp\cc2EfhU3.s:21560  .debug_str:000000000000d55c .LASF1094
C:\Users\SOLDER~1\AppData\Local\Temp\cc2EfhU3.s:18648  .debug_str:0000000000001760 .LASF1095
C:\Users\SOLDER~1\AppData\Local\Temp\cc2EfhU3.s:19786  .debug_str:0000000000006072 .LASF1096
C:\Users\SOLDER~1\AppData\Local\Temp\cc2EfhU3.s:26828  .debug_str:0000000000022c8d .LASF1097
C:\Users\SOLDER~1\AppData\Local\Temp\cc2EfhU3.s:23722  .debug_str:00000000000162e0 .LASF1098
C:\Users\SOLDER~1\AppData\Local\Temp\cc2EfhU3.s:20018  .debug_str:0000000000007004 .LASF1099
C:\Users\SOLDER~1\AppData\Local\Temp\cc2EfhU3.s:23446  .debug_str:0000000000015137 .LASF1100
C:\Users\SOLDER~1\AppData\Local\Temp\cc2EfhU3.s:27076  .debug_str:0000000000023c96 .LASF1101
C:\Users\SOLDER~1\AppData\Local\Temp\cc2EfhU3.s:28758  .debug_str:000000000002ab56 .LASF1102
C:\Users\SOLDER~1\AppData\Local\Temp\cc2EfhU3.s:18506  .debug_str:0000000000000e4c .LASF1103
C:\Users\SOLDER~1\AppData\Local\Temp\cc2EfhU3.s:18616  .debug_str:0000000000001550 .LASF1104
C:\Users\SOLDER~1\AppData\Local\Temp\cc2EfhU3.s:26058  .debug_str:000000000001fae2 .LASF1105
C:\Users\SOLDER~1\AppData\Local\Temp\cc2EfhU3.s:19668  .debug_str:00000000000058c6 .LASF1106
C:\Users\SOLDER~1\AppData\Local\Temp\cc2EfhU3.s:21194  .debug_str:000000000000bcc9 .LASF1107
C:\Users\SOLDER~1\AppData\Local\Temp\cc2EfhU3.s:18686  .debug_str:00000000000019ba .LASF1108
C:\Users\SOLDER~1\AppData\Local\Temp\cc2EfhU3.s:26138  .debug_str:000000000001ffe1 .LASF1109
C:\Users\SOLDER~1\AppData\Local\Temp\cc2EfhU3.s:19760  .debug_str:0000000000005ea8 .LASF1110
C:\Users\SOLDER~1\AppData\Local\Temp\cc2EfhU3.s:20264  .debug_str:0000000000007ff6 .LASF1111
C:\Users\SOLDER~1\AppData\Local\Temp\cc2EfhU3.s:20738  .debug_str:0000000000009f04 .LASF1112
C:\Users\SOLDER~1\AppData\Local\Temp\cc2EfhU3.s:21166  .debug_str:000000000000bb18 .LASF1113
C:\Users\SOLDER~1\AppData\Local\Temp\cc2EfhU3.s:28066  .debug_str:0000000000027e3e .LASF1114
C:\Users\SOLDER~1\AppData\Local\Temp\cc2EfhU3.s:20402  .debug_str:00000000000088bc .LASF1115
C:\Users\SOLDER~1\AppData\Local\Temp\cc2EfhU3.s:27782  .debug_str:0000000000026b74 .LASF1116
C:\Users\SOLDER~1\AppData\Local\Temp\cc2EfhU3.s:29234  .debug_str:000000000002ca1c .LASF1117
C:\Users\SOLDER~1\AppData\Local\Temp\cc2EfhU3.s:28724  .debug_str:000000000002a912 .LASF1118
C:\Users\SOLDER~1\AppData\Local\Temp\cc2EfhU3.s:23106  .debug_str:0000000000013a2e .LASF1119
C:\Users\SOLDER~1\AppData\Local\Temp\cc2EfhU3.s:19430  .debug_str:00000000000049d0 .LASF1120
C:\Users\SOLDER~1\AppData\Local\Temp\cc2EfhU3.s:25608  .debug_str:000000000001dd58 .LASF1121
C:\Users\SOLDER~1\AppData\Local\Temp\cc2EfhU3.s:20518  .debug_str:00000000000090b6 .LASF1122
C:\Users\SOLDER~1\AppData\Local\Temp\cc2EfhU3.s:28894  .debug_str:000000000002b431 .LASF1123
C:\Users\SOLDER~1\AppData\Local\Temp\cc2EfhU3.s:23346  .debug_str:0000000000014aa5 .LASF1124
C:\Users\SOLDER~1\AppData\Local\Temp\cc2EfhU3.s:21058  .debug_str:000000000000b420 .LASF1125
C:\Users\SOLDER~1\AppData\Local\Temp\cc2EfhU3.s:29412  .debug_str:000000000002d5f3 .LASF1126
C:\Users\SOLDER~1\AppData\Local\Temp\cc2EfhU3.s:27536  .debug_str:0000000000025ad7 .LASF1127
C:\Users\SOLDER~1\AppData\Local\Temp\cc2EfhU3.s:26590  .debug_str:0000000000021d23 .LASF1128
C:\Users\SOLDER~1\AppData\Local\Temp\cc2EfhU3.s:24290  .debug_str:0000000000018778 .LASF1129
C:\Users\SOLDER~1\AppData\Local\Temp\cc2EfhU3.s:24890  .debug_str:000000000001ae4a .LASF1130
C:\Users\SOLDER~1\AppData\Local\Temp\cc2EfhU3.s:20414  .debug_str:00000000000089af .LASF1131
C:\Users\SOLDER~1\AppData\Local\Temp\cc2EfhU3.s:25904  .debug_str:000000000001f0d6 .LASF1132
C:\Users\SOLDER~1\AppData\Local\Temp\cc2EfhU3.s:20976  .debug_str:000000000000aeee .LASF1133
C:\Users\SOLDER~1\AppData\Local\Temp\cc2EfhU3.s:23952  .debug_str:0000000000017176 .LASF1134
C:\Users\SOLDER~1\AppData\Local\Temp\cc2EfhU3.s:23344  .debug_str:0000000000014a80 .LASF1135
C:\Users\SOLDER~1\AppData\Local\Temp\cc2EfhU3.s:23962  .debug_str:000000000001721e .LASF1136
C:\Users\SOLDER~1\AppData\Local\Temp\cc2EfhU3.s:27970  .debug_str:00000000000277d3 .LASF1137
C:\Users\SOLDER~1\AppData\Local\Temp\cc2EfhU3.s:25842  .debug_str:000000000001ec9c .LASF1138
C:\Users\SOLDER~1\AppData\Local\Temp\cc2EfhU3.s:27134  .debug_str:0000000000024084 .LASF1139
C:\Users\SOLDER~1\AppData\Local\Temp\cc2EfhU3.s:18832  .debug_str:0000000000002391 .LASF1140
C:\Users\SOLDER~1\AppData\Local\Temp\cc2EfhU3.s:27400  .debug_str:00000000000251d0 .LASF1141
C:\Users\SOLDER~1\AppData\Local\Temp\cc2EfhU3.s:26708  .debug_str:0000000000022494 .LASF1142
C:\Users\SOLDER~1\AppData\Local\Temp\cc2EfhU3.s:25248  .debug_str:000000000001c5a8 .LASF1143
C:\Users\SOLDER~1\AppData\Local\Temp\cc2EfhU3.s:28986  .debug_str:000000000002ba19 .LASF1144
C:\Users\SOLDER~1\AppData\Local\Temp\cc2EfhU3.s:25738  .debug_str:000000000001e5bc .LASF1145
C:\Users\SOLDER~1\AppData\Local\Temp\cc2EfhU3.s:25498  .debug_str:000000000001d632 .LASF1146
C:\Users\SOLDER~1\AppData\Local\Temp\cc2EfhU3.s:23842  .debug_str:0000000000016a64 .LASF1147
GAS LISTING C:\Users\SOLDER~1\AppData\Local\Temp\cc2EfhU3.s 			page 31


C:\Users\SOLDER~1\AppData\Local\Temp\cc2EfhU3.s:29104  .debug_str:000000000002c1f6 .LASF1148
C:\Users\SOLDER~1\AppData\Local\Temp\cc2EfhU3.s:20156  .debug_str:0000000000007898 .LASF1149
C:\Users\SOLDER~1\AppData\Local\Temp\cc2EfhU3.s:23576  .debug_str:00000000000159a1 .LASF1150
C:\Users\SOLDER~1\AppData\Local\Temp\cc2EfhU3.s:25300  .debug_str:000000000001c935 .LASF1151
C:\Users\SOLDER~1\AppData\Local\Temp\cc2EfhU3.s:22406  .debug_str:0000000000010c55 .LASF1152
C:\Users\SOLDER~1\AppData\Local\Temp\cc2EfhU3.s:27872  .debug_str:000000000002718f .LASF1153
C:\Users\SOLDER~1\AppData\Local\Temp\cc2EfhU3.s:24198  .debug_str:000000000001819e .LASF1154
C:\Users\SOLDER~1\AppData\Local\Temp\cc2EfhU3.s:18730  .debug_str:0000000000001cc1 .LASF1155
C:\Users\SOLDER~1\AppData\Local\Temp\cc2EfhU3.s:23116  .debug_str:0000000000013b00 .LASF1156
C:\Users\SOLDER~1\AppData\Local\Temp\cc2EfhU3.s:26168  .debug_str:00000000000201d5 .LASF1157
C:\Users\SOLDER~1\AppData\Local\Temp\cc2EfhU3.s:29520  .debug_str:000000000002dce7 .LASF1158
C:\Users\SOLDER~1\AppData\Local\Temp\cc2EfhU3.s:29528  .debug_str:000000000002dd4d .LASF1159
C:\Users\SOLDER~1\AppData\Local\Temp\cc2EfhU3.s:28120  .debug_str:00000000000281cb .LASF1160
C:\Users\SOLDER~1\AppData\Local\Temp\cc2EfhU3.s:24446  .debug_str:00000000000191ad .LASF1161
C:\Users\SOLDER~1\AppData\Local\Temp\cc2EfhU3.s:24224  .debug_str:0000000000018338 .LASF1162
C:\Users\SOLDER~1\AppData\Local\Temp\cc2EfhU3.s:27956  .debug_str:00000000000276fd .LASF1163
C:\Users\SOLDER~1\AppData\Local\Temp\cc2EfhU3.s:22462  .debug_str:0000000000010feb .LASF1164
C:\Users\SOLDER~1\AppData\Local\Temp\cc2EfhU3.s:27890  .debug_str:00000000000272bd .LASF1165
C:\Users\SOLDER~1\AppData\Local\Temp\cc2EfhU3.s:29580  .debug_str:000000000002e07e .LASF1166
C:\Users\SOLDER~1\AppData\Local\Temp\cc2EfhU3.s:25964  .debug_str:000000000001f503 .LASF1167
C:\Users\SOLDER~1\AppData\Local\Temp\cc2EfhU3.s:22984  .debug_str:0000000000013194 .LASF1168
C:\Users\SOLDER~1\AppData\Local\Temp\cc2EfhU3.s:28436  .debug_str:0000000000029646 .LASF1169
C:\Users\SOLDER~1\AppData\Local\Temp\cc2EfhU3.s:20456  .debug_str:0000000000008c57 .LASF1170
C:\Users\SOLDER~1\AppData\Local\Temp\cc2EfhU3.s:26452  .debug_str:0000000000021451 .LASF1171
C:\Users\SOLDER~1\AppData\Local\Temp\cc2EfhU3.s:27298  .debug_str:0000000000024b58 .LASF1172
C:\Users\SOLDER~1\AppData\Local\Temp\cc2EfhU3.s:25792  .debug_str:000000000001e975 .LASF1173
C:\Users\SOLDER~1\AppData\Local\Temp\cc2EfhU3.s:24210  .debug_str:0000000000018264 .LASF1174
C:\Users\SOLDER~1\AppData\Local\Temp\cc2EfhU3.s:22206  .debug_str:000000000000ffad .LASF1175
C:\Users\SOLDER~1\AppData\Local\Temp\cc2EfhU3.s:25994  .debug_str:000000000001f6f2 .LASF1176
C:\Users\SOLDER~1\AppData\Local\Temp\cc2EfhU3.s:23120  .debug_str:0000000000013b4c .LASF1177
C:\Users\SOLDER~1\AppData\Local\Temp\cc2EfhU3.s:22864  .debug_str:0000000000012986 .LASF1178
C:\Users\SOLDER~1\AppData\Local\Temp\cc2EfhU3.s:20730  .debug_str:0000000000009e7d .LASF1179
C:\Users\SOLDER~1\AppData\Local\Temp\cc2EfhU3.s:22086  .debug_str:000000000000f764 .LASF1180
C:\Users\SOLDER~1\AppData\Local\Temp\cc2EfhU3.s:24138  .debug_str:0000000000017d98 .LASF1181
C:\Users\SOLDER~1\AppData\Local\Temp\cc2EfhU3.s:27576  .debug_str:0000000000025dbe .LASF1182
C:\Users\SOLDER~1\AppData\Local\Temp\cc2EfhU3.s:22268  .debug_str:00000000000103af .LASF1183
C:\Users\SOLDER~1\AppData\Local\Temp\cc2EfhU3.s:27790  .debug_str:0000000000026c09 .LASF1184
C:\Users\SOLDER~1\AppData\Local\Temp\cc2EfhU3.s:24720  .debug_str:000000000001a30b .LASF1185
C:\Users\SOLDER~1\AppData\Local\Temp\cc2EfhU3.s:28206  .debug_str:0000000000028779 .LASF1186
C:\Users\SOLDER~1\AppData\Local\Temp\cc2EfhU3.s:22772  .debug_str:0000000000012399 .LASF1187
C:\Users\SOLDER~1\AppData\Local\Temp\cc2EfhU3.s:20818  .debug_str:000000000000a462 .LASF1188
C:\Users\SOLDER~1\AppData\Local\Temp\cc2EfhU3.s:20166  .debug_str:0000000000007978 .LASF1189
C:\Users\SOLDER~1\AppData\Local\Temp\cc2EfhU3.s:18766  .debug_str:0000000000001f0f .LASF1190
C:\Users\SOLDER~1\AppData\Local\Temp\cc2EfhU3.s:22504  .debug_str:0000000000011294 .LASF1191
C:\Users\SOLDER~1\AppData\Local\Temp\cc2EfhU3.s:19246  .debug_str:0000000000003e47 .LASF1192
C:\Users\SOLDER~1\AppData\Local\Temp\cc2EfhU3.s:29720  .debug_str:000000000002e9bb .LASF1193
C:\Users\SOLDER~1\AppData\Local\Temp\cc2EfhU3.s:24756  .debug_str:000000000001a558 .LASF1194
C:\Users\SOLDER~1\AppData\Local\Temp\cc2EfhU3.s:20006  .debug_str:0000000000006f42 .LASF1195
C:\Users\SOLDER~1\AppData\Local\Temp\cc2EfhU3.s:25442  .debug_str:000000000001d2cb .LASF1196
C:\Users\SOLDER~1\AppData\Local\Temp\cc2EfhU3.s:28976  .debug_str:000000000002b963 .LASF1197
C:\Users\SOLDER~1\AppData\Local\Temp\cc2EfhU3.s:23542  .debug_str:0000000000015760 .LASF1198
C:\Users\SOLDER~1\AppData\Local\Temp\cc2EfhU3.s:20620  .debug_str:0000000000009765 .LASF1199
C:\Users\SOLDER~1\AppData\Local\Temp\cc2EfhU3.s:25986  .debug_str:000000000001f65f .LASF1200
C:\Users\SOLDER~1\AppData\Local\Temp\cc2EfhU3.s:29512  .debug_str:000000000002dc5c .LASF1201
C:\Users\SOLDER~1\AppData\Local\Temp\cc2EfhU3.s:24168  .debug_str:0000000000017fbe .LASF1202
C:\Users\SOLDER~1\AppData\Local\Temp\cc2EfhU3.s:19574  .debug_str:00000000000052af .LASF1203
C:\Users\SOLDER~1\AppData\Local\Temp\cc2EfhU3.s:18818  .debug_str:000000000000229c .LASF1204
GAS LISTING C:\Users\SOLDER~1\AppData\Local\Temp\cc2EfhU3.s 			page 32


C:\Users\SOLDER~1\AppData\Local\Temp\cc2EfhU3.s:22940  .debug_str:0000000000012eaa .LASF1205
C:\Users\SOLDER~1\AppData\Local\Temp\cc2EfhU3.s:26696  .debug_str:00000000000223b6 .LASF1206
C:\Users\SOLDER~1\AppData\Local\Temp\cc2EfhU3.s:29424  .debug_str:000000000002d6b6 .LASF1207
C:\Users\SOLDER~1\AppData\Local\Temp\cc2EfhU3.s:28384  .debug_str:00000000000292fb .LASF1208
C:\Users\SOLDER~1\AppData\Local\Temp\cc2EfhU3.s:28926  .debug_str:000000000002b647 .LASF1209
C:\Users\SOLDER~1\AppData\Local\Temp\cc2EfhU3.s:27742  .debug_str:0000000000026910 .LASF1210
C:\Users\SOLDER~1\AppData\Local\Temp\cc2EfhU3.s:21740  .debug_str:000000000000e14b .LASF1211
C:\Users\SOLDER~1\AppData\Local\Temp\cc2EfhU3.s:25150  .debug_str:000000000001becf .LASF1212
C:\Users\SOLDER~1\AppData\Local\Temp\cc2EfhU3.s:19808  .debug_str:0000000000006215 .LASF1213
C:\Users\SOLDER~1\AppData\Local\Temp\cc2EfhU3.s:28796  .debug_str:000000000002ada7 .LASF1214
C:\Users\SOLDER~1\AppData\Local\Temp\cc2EfhU3.s:19662  .debug_str:0000000000005861 .LASF1215
C:\Users\SOLDER~1\AppData\Local\Temp\cc2EfhU3.s:25764  .debug_str:000000000001e794 .LASF1216
C:\Users\SOLDER~1\AppData\Local\Temp\cc2EfhU3.s:20428  .debug_str:0000000000008a89 .LASF1217
C:\Users\SOLDER~1\AppData\Local\Temp\cc2EfhU3.s:19036  .debug_str:00000000000030b4 .LASF1218
C:\Users\SOLDER~1\AppData\Local\Temp\cc2EfhU3.s:26984  .debug_str:00000000000236ba .LASF1219
C:\Users\SOLDER~1\AppData\Local\Temp\cc2EfhU3.s:26702  .debug_str:0000000000022416 .LASF1220
C:\Users\SOLDER~1\AppData\Local\Temp\cc2EfhU3.s:26158  .debug_str:000000000002012a .LASF1221
C:\Users\SOLDER~1\AppData\Local\Temp\cc2EfhU3.s:22836  .debug_str:00000000000127d3 .LASF1222
C:\Users\SOLDER~1\AppData\Local\Temp\cc2EfhU3.s:19660  .debug_str:000000000000583e .LASF1223
C:\Users\SOLDER~1\AppData\Local\Temp\cc2EfhU3.s:21090  .debug_str:000000000000b612 .LASF1224
C:\Users\SOLDER~1\AppData\Local\Temp\cc2EfhU3.s:24456  .debug_str:0000000000019267 .LASF1225
C:\Users\SOLDER~1\AppData\Local\Temp\cc2EfhU3.s:22000  .debug_str:000000000000f1d8 .LASF1226
C:\Users\SOLDER~1\AppData\Local\Temp\cc2EfhU3.s:27120  .debug_str:0000000000023f8f .LASF1227
C:\Users\SOLDER~1\AppData\Local\Temp\cc2EfhU3.s:20964  .debug_str:000000000000ae25 .LASF1228
C:\Users\SOLDER~1\AppData\Local\Temp\cc2EfhU3.s:22042  .debug_str:000000000000f484 .LASF1229
C:\Users\SOLDER~1\AppData\Local\Temp\cc2EfhU3.s:27958  .debug_str:0000000000027725 .LASF1230
C:\Users\SOLDER~1\AppData\Local\Temp\cc2EfhU3.s:23022  .debug_str:000000000001341a .LASF1231
C:\Users\SOLDER~1\AppData\Local\Temp\cc2EfhU3.s:24148  .debug_str:0000000000017e61 .LASF1232
C:\Users\SOLDER~1\AppData\Local\Temp\cc2EfhU3.s:22364  .debug_str:00000000000109ca .LASF1233
C:\Users\SOLDER~1\AppData\Local\Temp\cc2EfhU3.s:19954  .debug_str:0000000000006ba1 .LASF1234
C:\Users\SOLDER~1\AppData\Local\Temp\cc2EfhU3.s:23074  .debug_str:00000000000137af .LASF1235
C:\Users\SOLDER~1\AppData\Local\Temp\cc2EfhU3.s:19592  .debug_str:00000000000053c8 .LASF1236
C:\Users\SOLDER~1\AppData\Local\Temp\cc2EfhU3.s:27714  .debug_str:0000000000026712 .LASF1237
C:\Users\SOLDER~1\AppData\Local\Temp\cc2EfhU3.s:24596  .debug_str:0000000000019b3e .LASF1238
C:\Users\SOLDER~1\AppData\Local\Temp\cc2EfhU3.s:21776  .debug_str:000000000000e3a2 .LASF1239
C:\Users\SOLDER~1\AppData\Local\Temp\cc2EfhU3.s:29346  .debug_str:000000000002d1ca .LASF1240
C:\Users\SOLDER~1\AppData\Local\Temp\cc2EfhU3.s:26866  .debug_str:0000000000022ee1 .LASF1241
C:\Users\SOLDER~1\AppData\Local\Temp\cc2EfhU3.s:25556  .debug_str:000000000001d9be .LASF1242
C:\Users\SOLDER~1\AppData\Local\Temp\cc2EfhU3.s:25780  .debug_str:000000000001e8b5 .LASF1243
C:\Users\SOLDER~1\AppData\Local\Temp\cc2EfhU3.s:19020  .debug_str:0000000000002fc0 .LASF1244
C:\Users\SOLDER~1\AppData\Local\Temp\cc2EfhU3.s:21726  .debug_str:000000000000e055 .LASF1245
C:\Users\SOLDER~1\AppData\Local\Temp\cc2EfhU3.s:28230  .debug_str:0000000000028909 .LASF1246
C:\Users\SOLDER~1\AppData\Local\Temp\cc2EfhU3.s:27770  .debug_str:0000000000026acd .LASF1247
C:\Users\SOLDER~1\AppData\Local\Temp\cc2EfhU3.s:27552  .debug_str:0000000000025bff .LASF1248
C:\Users\SOLDER~1\AppData\Local\Temp\cc2EfhU3.s:27590  .debug_str:0000000000025ea4 .LASF1249
C:\Users\SOLDER~1\AppData\Local\Temp\cc2EfhU3.s:21308  .debug_str:000000000000c49e .LASF1250
C:\Users\SOLDER~1\AppData\Local\Temp\cc2EfhU3.s:29368  .debug_str:000000000002d302 .LASF1251
C:\Users\SOLDER~1\AppData\Local\Temp\cc2EfhU3.s:26004  .debug_str:000000000001f772 .LASF1252
C:\Users\SOLDER~1\AppData\Local\Temp\cc2EfhU3.s:22852  .debug_str:00000000000128cb .LASF1253
C:\Users\SOLDER~1\AppData\Local\Temp\cc2EfhU3.s:24860  .debug_str:000000000001ac71 .LASF1254
C:\Users\SOLDER~1\AppData\Local\Temp\cc2EfhU3.s:25538  .debug_str:000000000001d88a .LASF1255
C:\Users\SOLDER~1\AppData\Local\Temp\cc2EfhU3.s:25166  .debug_str:000000000001c00c .LASF1256
C:\Users\SOLDER~1\AppData\Local\Temp\cc2EfhU3.s:23876  .debug_str:0000000000016c46 .LASF1257
C:\Users\SOLDER~1\AppData\Local\Temp\cc2EfhU3.s:24180  .debug_str:000000000001808f .LASF1258
C:\Users\SOLDER~1\AppData\Local\Temp\cc2EfhU3.s:28776  .debug_str:000000000002ac5a .LASF1259
C:\Users\SOLDER~1\AppData\Local\Temp\cc2EfhU3.s:21112  .debug_str:000000000000b75f .LASF1260
C:\Users\SOLDER~1\AppData\Local\Temp\cc2EfhU3.s:27600  .debug_str:0000000000025f55 .LASF1261
GAS LISTING C:\Users\SOLDER~1\AppData\Local\Temp\cc2EfhU3.s 			page 33


C:\Users\SOLDER~1\AppData\Local\Temp\cc2EfhU3.s:28730  .debug_str:000000000002a983 .LASF1262
C:\Users\SOLDER~1\AppData\Local\Temp\cc2EfhU3.s:26838  .debug_str:0000000000022d1d .LASF1263
C:\Users\SOLDER~1\AppData\Local\Temp\cc2EfhU3.s:24664  .debug_str:0000000000019f81 .LASF1264
C:\Users\SOLDER~1\AppData\Local\Temp\cc2EfhU3.s:26802  .debug_str:0000000000022af0 .LASF1265
C:\Users\SOLDER~1\AppData\Local\Temp\cc2EfhU3.s:23412  .debug_str:0000000000014ee2 .LASF1266
C:\Users\SOLDER~1\AppData\Local\Temp\cc2EfhU3.s:20060  .debug_str:00000000000072ca .LASF1267
C:\Users\SOLDER~1\AppData\Local\Temp\cc2EfhU3.s:28372  .debug_str:0000000000029221 .LASF1268
C:\Users\SOLDER~1\AppData\Local\Temp\cc2EfhU3.s:18890  .debug_str:000000000000275c .LASF1269
C:\Users\SOLDER~1\AppData\Local\Temp\cc2EfhU3.s:21638  .debug_str:000000000000da1b .LASF1270
C:\Users\SOLDER~1\AppData\Local\Temp\cc2EfhU3.s:19208  .debug_str:0000000000003bd1 .LASF1271
C:\Users\SOLDER~1\AppData\Local\Temp\cc2EfhU3.s:27152  .debug_str:00000000000241b3 .LASF1272
C:\Users\SOLDER~1\AppData\Local\Temp\cc2EfhU3.s:29686  .debug_str:000000000002e795 .LASF1273
C:\Users\SOLDER~1\AppData\Local\Temp\cc2EfhU3.s:22912  .debug_str:0000000000012ce2 .LASF1274
C:\Users\SOLDER~1\AppData\Local\Temp\cc2EfhU3.s:24736  .debug_str:000000000001a3fe .LASF1275
C:\Users\SOLDER~1\AppData\Local\Temp\cc2EfhU3.s:19828  .debug_str:0000000000006365 .LASF1276
C:\Users\SOLDER~1\AppData\Local\Temp\cc2EfhU3.s:20930  .debug_str:000000000000abd1 .LASF1277
C:\Users\SOLDER~1\AppData\Local\Temp\cc2EfhU3.s:19160  .debug_str:00000000000038ae .LASF1278
C:\Users\SOLDER~1\AppData\Local\Temp\cc2EfhU3.s:18696  .debug_str:0000000000001a5d .LASF1279
C:\Users\SOLDER~1\AppData\Local\Temp\cc2EfhU3.s:20084  .debug_str:0000000000007452 .LASF1280
C:\Users\SOLDER~1\AppData\Local\Temp\cc2EfhU3.s:19278  .debug_str:000000000000402d .LASF1281
C:\Users\SOLDER~1\AppData\Local\Temp\cc2EfhU3.s:22598  .debug_str:00000000000118d3 .LASF1282
C:\Users\SOLDER~1\AppData\Local\Temp\cc2EfhU3.s:28630  .debug_str:000000000002a320 .LASF1283
C:\Users\SOLDER~1\AppData\Local\Temp\cc2EfhU3.s:23822  .debug_str:0000000000016920 .LASF1284
C:\Users\SOLDER~1\AppData\Local\Temp\cc2EfhU3.s:21672  .debug_str:000000000000dc6a .LASF1285
C:\Users\SOLDER~1\AppData\Local\Temp\cc2EfhU3.s:18336  .debug_str:0000000000000218 .LASF1286
C:\Users\SOLDER~1\AppData\Local\Temp\cc2EfhU3.s:23076  .debug_str:00000000000137d2 .LASF1287
C:\Users\SOLDER~1\AppData\Local\Temp\cc2EfhU3.s:23154  .debug_str:0000000000013d9b .LASF1288
C:\Users\SOLDER~1\AppData\Local\Temp\cc2EfhU3.s:29004  .debug_str:000000000002bb38 .LASF1289
C:\Users\SOLDER~1\AppData\Local\Temp\cc2EfhU3.s:21982  .debug_str:000000000000f096 .LASF1290
C:\Users\SOLDER~1\AppData\Local\Temp\cc2EfhU3.s:21036  .debug_str:000000000000b280 .LASF1291
C:\Users\SOLDER~1\AppData\Local\Temp\cc2EfhU3.s:28624  .debug_str:000000000002a2bd .LASF1292
C:\Users\SOLDER~1\AppData\Local\Temp\cc2EfhU3.s:26544  .debug_str:0000000000021a18 .LASF1293
C:\Users\SOLDER~1\AppData\Local\Temp\cc2EfhU3.s:28056  .debug_str:0000000000027d8b .LASF1294
C:\Users\SOLDER~1\AppData\Local\Temp\cc2EfhU3.s:23462  .debug_str:0000000000015237 .LASF1295
C:\Users\SOLDER~1\AppData\Local\Temp\cc2EfhU3.s:21376  .debug_str:000000000000c940 .LASF1296
C:\Users\SOLDER~1\AppData\Local\Temp\cc2EfhU3.s:29486  .debug_str:000000000002daa8 .LASF1297
C:\Users\SOLDER~1\AppData\Local\Temp\cc2EfhU3.s:20258  .debug_str:0000000000007f86 .LASF1298
C:\Users\SOLDER~1\AppData\Local\Temp\cc2EfhU3.s:21648  .debug_str:000000000000dac3 .LASF1299
C:\Users\SOLDER~1\AppData\Local\Temp\cc2EfhU3.s:28882  .debug_str:000000000002b354 .LASF1300
C:\Users\SOLDER~1\AppData\Local\Temp\cc2EfhU3.s:23398  .debug_str:0000000000014e0a .LASF1301
C:\Users\SOLDER~1\AppData\Local\Temp\cc2EfhU3.s:21484  .debug_str:000000000000d05c .LASF1302
C:\Users\SOLDER~1\AppData\Local\Temp\cc2EfhU3.s:26850  .debug_str:0000000000022dd1 .LASF1303
C:\Users\SOLDER~1\AppData\Local\Temp\cc2EfhU3.s:24488  .debug_str:00000000000194a2 .LASF1304
C:\Users\SOLDER~1\AppData\Local\Temp\cc2EfhU3.s:25206  .debug_str:000000000001c2d4 .LASF1305
C:\Users\SOLDER~1\AppData\Local\Temp\cc2EfhU3.s:20720  .debug_str:0000000000009dc8 .LASF1306
C:\Users\SOLDER~1\AppData\Local\Temp\cc2EfhU3.s:29050  .debug_str:000000000002be82 .LASF1307
C:\Users\SOLDER~1\AppData\Local\Temp\cc2EfhU3.s:28132  .debug_str:00000000000282a2 .LASF1308
C:\Users\SOLDER~1\AppData\Local\Temp\cc2EfhU3.s:23140  .debug_str:0000000000013c98 .LASF1309
C:\Users\SOLDER~1\AppData\Local\Temp\cc2EfhU3.s:24766  .debug_str:000000000001a60a .LASF1310
C:\Users\SOLDER~1\AppData\Local\Temp\cc2EfhU3.s:22954  .debug_str:0000000000012f8f .LASF1311
C:\Users\SOLDER~1\AppData\Local\Temp\cc2EfhU3.s:28946  .debug_str:000000000002b797 .LASF1312
C:\Users\SOLDER~1\AppData\Local\Temp\cc2EfhU3.s:23570  .debug_str:0000000000015935 .LASF1313
C:\Users\SOLDER~1\AppData\Local\Temp\cc2EfhU3.s:23824  .debug_str:0000000000016944 .LASF1314
C:\Users\SOLDER~1\AppData\Local\Temp\cc2EfhU3.s:29708  .debug_str:000000000002e8f8 .LASF1315
C:\Users\SOLDER~1\AppData\Local\Temp\cc2EfhU3.s:18930  .debug_str:0000000000002a1d .LASF1316
C:\Users\SOLDER~1\AppData\Local\Temp\cc2EfhU3.s:25932  .debug_str:000000000001f2c5 .LASF1317
C:\Users\SOLDER~1\AppData\Local\Temp\cc2EfhU3.s:22568  .debug_str:00000000000116be .LASF1318
GAS LISTING C:\Users\SOLDER~1\AppData\Local\Temp\cc2EfhU3.s 			page 34


C:\Users\SOLDER~1\AppData\Local\Temp\cc2EfhU3.s:20808  .debug_str:000000000000a3b2 .LASF1319
C:\Users\SOLDER~1\AppData\Local\Temp\cc2EfhU3.s:23508  .debug_str:000000000001554f .LASF1320
C:\Users\SOLDER~1\AppData\Local\Temp\cc2EfhU3.s:25266  .debug_str:000000000001c6dc .LASF1321
C:\Users\SOLDER~1\AppData\Local\Temp\cc2EfhU3.s:29770  .debug_str:000000000002ecb7 .LASF1322
C:\Users\SOLDER~1\AppData\Local\Temp\cc2EfhU3.s:28716  .debug_str:000000000002a891 .LASF1323
C:\Users\SOLDER~1\AppData\Local\Temp\cc2EfhU3.s:24912  .debug_str:000000000001af7b .LASF1324
C:\Users\SOLDER~1\AppData\Local\Temp\cc2EfhU3.s:22868  .debug_str:00000000000129d2 .LASF1325
C:\Users\SOLDER~1\AppData\Local\Temp\cc2EfhU3.s:24386  .debug_str:0000000000018df9 .LASF1326
C:\Users\SOLDER~1\AppData\Local\Temp\cc2EfhU3.s:19730  .debug_str:0000000000005cc7 .LASF1327
C:\Users\SOLDER~1\AppData\Local\Temp\cc2EfhU3.s:29164  .debug_str:000000000002c5c9 .LASF1328
C:\Users\SOLDER~1\AppData\Local\Temp\cc2EfhU3.s:19220  .debug_str:0000000000003c8f .LASF1329
C:\Users\SOLDER~1\AppData\Local\Temp\cc2EfhU3.s:27994  .debug_str:0000000000027956 .LASF1330
C:\Users\SOLDER~1\AppData\Local\Temp\cc2EfhU3.s:18494  .debug_str:0000000000000d93 .LASF1331
C:\Users\SOLDER~1\AppData\Local\Temp\cc2EfhU3.s:28808  .debug_str:000000000002aeb3 .LASF1332
C:\Users\SOLDER~1\AppData\Local\Temp\cc2EfhU3.s:27310  .debug_str:0000000000024c33 .LASF1333
C:\Users\SOLDER~1\AppData\Local\Temp\cc2EfhU3.s:29268  .debug_str:000000000002cc5a .LASF1334
C:\Users\SOLDER~1\AppData\Local\Temp\cc2EfhU3.s:23190  .debug_str:0000000000013fe7 .LASF1335
C:\Users\SOLDER~1\AppData\Local\Temp\cc2EfhU3.s:20744  .debug_str:0000000000009f5b .LASF1336
C:\Users\SOLDER~1\AppData\Local\Temp\cc2EfhU3.s:21494  .debug_str:000000000000d111 .LASF1337
C:\Users\SOLDER~1\AppData\Local\Temp\cc2EfhU3.s:28504  .debug_str:0000000000029aa5 .LASF1338
C:\Users\SOLDER~1\AppData\Local\Temp\cc2EfhU3.s:25312  .debug_str:000000000001ca17 .LASF1339
C:\Users\SOLDER~1\AppData\Local\Temp\cc2EfhU3.s:24450  .debug_str:00000000000191ee .LASF1340
C:\Users\SOLDER~1\AppData\Local\Temp\cc2EfhU3.s:19384  .debug_str:00000000000046ee .LASF1341
C:\Users\SOLDER~1\AppData\Local\Temp\cc2EfhU3.s:21032  .debug_str:000000000000b248 .LASF1342
C:\Users\SOLDER~1\AppData\Local\Temp\cc2EfhU3.s:27148  .debug_str:0000000000024161 .LASF1343
C:\Users\SOLDER~1\AppData\Local\Temp\cc2EfhU3.s:21608  .debug_str:000000000000d87d .LASF1344
C:\Users\SOLDER~1\AppData\Local\Temp\cc2EfhU3.s:27682  .debug_str:00000000000264dd .LASF1345
C:\Users\SOLDER~1\AppData\Local\Temp\cc2EfhU3.s:22520  .debug_str:00000000000113be .LASF1346
C:\Users\SOLDER~1\AppData\Local\Temp\cc2EfhU3.s:26362  .debug_str:0000000000020e81 .LASF1347
C:\Users\SOLDER~1\AppData\Local\Temp\cc2EfhU3.s:23206  .debug_str:0000000000014121 .LASF1348
C:\Users\SOLDER~1\AppData\Local\Temp\cc2EfhU3.s:18712  .debug_str:0000000000001b65 .LASF1349
C:\Users\SOLDER~1\AppData\Local\Temp\cc2EfhU3.s:26772  .debug_str:00000000000228ec .LASF1350
C:\Users\SOLDER~1\AppData\Local\Temp\cc2EfhU3.s:24988  .debug_str:000000000001b46e .LASF1351
C:\Users\SOLDER~1\AppData\Local\Temp\cc2EfhU3.s:20886  .debug_str:000000000000a903 .LASF1352
C:\Users\SOLDER~1\AppData\Local\Temp\cc2EfhU3.s:21552  .debug_str:000000000000d4e7 .LASF1353
C:\Users\SOLDER~1\AppData\Local\Temp\cc2EfhU3.s:25936  .debug_str:000000000001f310 .LASF1354
C:\Users\SOLDER~1\AppData\Local\Temp\cc2EfhU3.s:25010  .debug_str:000000000001b5be .LASF1355
C:\Users\SOLDER~1\AppData\Local\Temp\cc2EfhU3.s:21184  .debug_str:000000000000bc3c .LASF1356
C:\Users\SOLDER~1\AppData\Local\Temp\cc2EfhU3.s:19142  .debug_str:0000000000003780 .LASF1357
C:\Users\SOLDER~1\AppData\Local\Temp\cc2EfhU3.s:20640  .debug_str:00000000000098c7 .LASF1358
C:\Users\SOLDER~1\AppData\Local\Temp\cc2EfhU3.s:27374  .debug_str:0000000000025025 .LASF1359
C:\Users\SOLDER~1\AppData\Local\Temp\cc2EfhU3.s:25418  .debug_str:000000000001d12e .LASF1360
C:\Users\SOLDER~1\AppData\Local\Temp\cc2EfhU3.s:26948  .debug_str:0000000000023470 .LASF1361
C:\Users\SOLDER~1\AppData\Local\Temp\cc2EfhU3.s:24324  .debug_str:00000000000189b9 .LASF1362
C:\Users\SOLDER~1\AppData\Local\Temp\cc2EfhU3.s:26206  .debug_str:0000000000020455 .LASF1363
C:\Users\SOLDER~1\AppData\Local\Temp\cc2EfhU3.s:19670  .debug_str:00000000000058e7 .LASF1364
C:\Users\SOLDER~1\AppData\Local\Temp\cc2EfhU3.s:23562  .debug_str:00000000000158b7 .LASF1365
C:\Users\SOLDER~1\AppData\Local\Temp\cc2EfhU3.s:25520  .debug_str:000000000001d750 .LASF1366
C:\Users\SOLDER~1\AppData\Local\Temp\cc2EfhU3.s:23772  .debug_str:00000000000165cf .LASF1367
C:\Users\SOLDER~1\AppData\Local\Temp\cc2EfhU3.s:28526  .debug_str:0000000000029c3d .LASF1368
C:\Users\SOLDER~1\AppData\Local\Temp\cc2EfhU3.s:29278  .debug_str:000000000002cd0f .LASF1369
C:\Users\SOLDER~1\AppData\Local\Temp\cc2EfhU3.s:29292  .debug_str:000000000002ce19 .LASF1370
C:\Users\SOLDER~1\AppData\Local\Temp\cc2EfhU3.s:21598  .debug_str:000000000000d7d8 .LASF1371
C:\Users\SOLDER~1\AppData\Local\Temp\cc2EfhU3.s:20698  .debug_str:0000000000009c35 .LASF1372
C:\Users\SOLDER~1\AppData\Local\Temp\cc2EfhU3.s:27126  .debug_str:0000000000024003 .LASF1373
C:\Users\SOLDER~1\AppData\Local\Temp\cc2EfhU3.s:28810  .debug_str:000000000002aed8 .LASF1374
C:\Users\SOLDER~1\AppData\Local\Temp\cc2EfhU3.s:19874  .debug_str:0000000000006659 .LASF1375
GAS LISTING C:\Users\SOLDER~1\AppData\Local\Temp\cc2EfhU3.s 			page 35


C:\Users\SOLDER~1\AppData\Local\Temp\cc2EfhU3.s:22916  .debug_str:0000000000012d16 .LASF1376
C:\Users\SOLDER~1\AppData\Local\Temp\cc2EfhU3.s:20484  .debug_str:0000000000008e63 .LASF1377
C:\Users\SOLDER~1\AppData\Local\Temp\cc2EfhU3.s:25408  .debug_str:000000000001d087 .LASF1378
C:\Users\SOLDER~1\AppData\Local\Temp\cc2EfhU3.s:26680  .debug_str:000000000002229d .LASF1379
C:\Users\SOLDER~1\AppData\Local\Temp\cc2EfhU3.s:27494  .debug_str:00000000000257db .LASF1380
C:\Users\SOLDER~1\AppData\Local\Temp\cc2EfhU3.s:22872  .debug_str:0000000000012a0e .LASF1381
C:\Users\SOLDER~1\AppData\Local\Temp\cc2EfhU3.s:19486  .debug_str:0000000000004d5c .LASF1382
C:\Users\SOLDER~1\AppData\Local\Temp\cc2EfhU3.s:29252  .debug_str:000000000002cb45 .LASF1383
C:\Users\SOLDER~1\AppData\Local\Temp\cc2EfhU3.s:20432  .debug_str:0000000000008ac7 .LASF1384
C:\Users\SOLDER~1\AppData\Local\Temp\cc2EfhU3.s:29338  .debug_str:000000000002d139 .LASF1385
C:\Users\SOLDER~1\AppData\Local\Temp\cc2EfhU3.s:22244  .debug_str:00000000000101ea .LASF1386
C:\Users\SOLDER~1\AppData\Local\Temp\cc2EfhU3.s:28722  .debug_str:000000000002a8ed .LASF1387
C:\Users\SOLDER~1\AppData\Local\Temp\cc2EfhU3.s:28960  .debug_str:000000000002b864 .LASF1388
C:\Users\SOLDER~1\AppData\Local\Temp\cc2EfhU3.s:26874  .debug_str:0000000000022f6b .LASF1389
C:\Users\SOLDER~1\AppData\Local\Temp\cc2EfhU3.s:28404  .debug_str:0000000000029455 .LASF1390
C:\Users\SOLDER~1\AppData\Local\Temp\cc2EfhU3.s:23714  .debug_str:000000000001625b .LASF1391
C:\Users\SOLDER~1\AppData\Local\Temp\cc2EfhU3.s:21708  .debug_str:000000000000dedc .LASF1392
C:\Users\SOLDER~1\AppData\Local\Temp\cc2EfhU3.s:23304  .debug_str:00000000000147b6 .LASF1393
C:\Users\SOLDER~1\AppData\Local\Temp\cc2EfhU3.s:22342  .debug_str:000000000001085c .LASF1394
C:\Users\SOLDER~1\AppData\Local\Temp\cc2EfhU3.s:22532  .debug_str:00000000000114a5 .LASF1395
C:\Users\SOLDER~1\AppData\Local\Temp\cc2EfhU3.s:27416  .debug_str:00000000000252b1 .LASF1396
C:\Users\SOLDER~1\AppData\Local\Temp\cc2EfhU3.s:19822  .debug_str:00000000000062ef .LASF1397
C:\Users\SOLDER~1\AppData\Local\Temp\cc2EfhU3.s:21816  .debug_str:000000000000e609 .LASF1398
C:\Users\SOLDER~1\AppData\Local\Temp\cc2EfhU3.s:27172  .debug_str:0000000000024302 .LASF1399
C:\Users\SOLDER~1\AppData\Local\Temp\cc2EfhU3.s:24808  .debug_str:000000000001a8ba .LASF1400
C:\Users\SOLDER~1\AppData\Local\Temp\cc2EfhU3.s:25438  .debug_str:000000000001d28e .LASF1401
C:\Users\SOLDER~1\AppData\Local\Temp\cc2EfhU3.s:21054  .debug_str:000000000000b3e9 .LASF1402
C:\Users\SOLDER~1\AppData\Local\Temp\cc2EfhU3.s:27292  .debug_str:0000000000024af6 .LASF1403
C:\Users\SOLDER~1\AppData\Local\Temp\cc2EfhU3.s:28480  .debug_str:00000000000298fa .LASF1404
C:\Users\SOLDER~1\AppData\Local\Temp\cc2EfhU3.s:23458  .debug_str:00000000000151f3 .LASF1405
C:\Users\SOLDER~1\AppData\Local\Temp\cc2EfhU3.s:25088  .debug_str:000000000001baa9 .LASF1406
C:\Users\SOLDER~1\AppData\Local\Temp\cc2EfhU3.s:24162  .debug_str:0000000000017f64 .LASF1407
C:\Users\SOLDER~1\AppData\Local\Temp\cc2EfhU3.s:25822  .debug_str:000000000001eb59 .LASF1408
C:\Users\SOLDER~1\AppData\Local\Temp\cc2EfhU3.s:24738  .debug_str:000000000001a420 .LASF1409
C:\Users\SOLDER~1\AppData\Local\Temp\cc2EfhU3.s:19518  .debug_str:0000000000004f37 .LASF1410
C:\Users\SOLDER~1\AppData\Local\Temp\cc2EfhU3.s:19386  .debug_str:0000000000004713 .LASF1411
C:\Users\SOLDER~1\AppData\Local\Temp\cc2EfhU3.s:20122  .debug_str:00000000000076b0 .LASF1412
C:\Users\SOLDER~1\AppData\Local\Temp\cc2EfhU3.s:27080  .debug_str:0000000000023ce6 .LASF1413
C:\Users\SOLDER~1\AppData\Local\Temp\cc2EfhU3.s:23780  .debug_str:000000000001663e .LASF1414
C:\Users\SOLDER~1\AppData\Local\Temp\cc2EfhU3.s:22008  .debug_str:000000000000f257 .LASF1415
C:\Users\SOLDER~1\AppData\Local\Temp\cc2EfhU3.s:24700  .debug_str:000000000001a1a1 .LASF1416
C:\Users\SOLDER~1\AppData\Local\Temp\cc2EfhU3.s:25496  .debug_str:000000000001d60d .LASF1417
C:\Users\SOLDER~1\AppData\Local\Temp\cc2EfhU3.s:21366  .debug_str:000000000000c897 .LASF1418
C:\Users\SOLDER~1\AppData\Local\Temp\cc2EfhU3.s:29054  .debug_str:000000000002bec9 .LASF1419
C:\Users\SOLDER~1\AppData\Local\Temp\cc2EfhU3.s:25224  .debug_str:000000000001c3ea .LASF1420
C:\Users\SOLDER~1\AppData\Local\Temp\cc2EfhU3.s:18480  .debug_str:0000000000000c86 .LASF1421
C:\Users\SOLDER~1\AppData\Local\Temp\cc2EfhU3.s:24704  .debug_str:000000000001a1ee .LASF1422
C:\Users\SOLDER~1\AppData\Local\Temp\cc2EfhU3.s:19970  .debug_str:0000000000006c9f .LASF1423
C:\Users\SOLDER~1\AppData\Local\Temp\cc2EfhU3.s:29504  .debug_str:000000000002dbc5 .LASF1424
C:\Users\SOLDER~1\AppData\Local\Temp\cc2EfhU3.s:19548  .debug_str:0000000000005101 .LASF1425
C:\Users\SOLDER~1\AppData\Local\Temp\cc2EfhU3.s:28336  .debug_str:0000000000028fbb .LASF1426
C:\Users\SOLDER~1\AppData\Local\Temp\cc2EfhU3.s:26204  .debug_str:0000000000020430 .LASF1427
C:\Users\SOLDER~1\AppData\Local\Temp\cc2EfhU3.s:23662  .debug_str:0000000000015f26 .LASF1428
C:\Users\SOLDER~1\AppData\Local\Temp\cc2EfhU3.s:27558  .debug_str:0000000000025c5c .LASF1429
C:\Users\SOLDER~1\AppData\Local\Temp\cc2EfhU3.s:29608  .debug_str:000000000002e246 .LASF1430
C:\Users\SOLDER~1\AppData\Local\Temp\cc2EfhU3.s:19076  .debug_str:000000000000334a .LASF1431
C:\Users\SOLDER~1\AppData\Local\Temp\cc2EfhU3.s:21070  .debug_str:000000000000b4e3 .LASF1432
GAS LISTING C:\Users\SOLDER~1\AppData\Local\Temp\cc2EfhU3.s 			page 36


C:\Users\SOLDER~1\AppData\Local\Temp\cc2EfhU3.s:21736  .debug_str:000000000000e104 .LASF1433
C:\Users\SOLDER~1\AppData\Local\Temp\cc2EfhU3.s:28828  .debug_str:000000000002b01d .LASF1434
C:\Users\SOLDER~1\AppData\Local\Temp\cc2EfhU3.s:25646  .debug_str:000000000001dfb5 .LASF1435
C:\Users\SOLDER~1\AppData\Local\Temp\cc2EfhU3.s:20376  .debug_str:0000000000008730 .LASF1436
C:\Users\SOLDER~1\AppData\Local\Temp\cc2EfhU3.s:19452  .debug_str:0000000000004b40 .LASF1437
C:\Users\SOLDER~1\AppData\Local\Temp\cc2EfhU3.s:21352  .debug_str:000000000000c789 .LASF1438
C:\Users\SOLDER~1\AppData\Local\Temp\cc2EfhU3.s:28380  .debug_str:00000000000292b2 .LASF1439
C:\Users\SOLDER~1\AppData\Local\Temp\cc2EfhU3.s:22898  .debug_str:0000000000012bdf .LASF1440
C:\Users\SOLDER~1\AppData\Local\Temp\cc2EfhU3.s:28988  .debug_str:000000000002ba40 .LASF1441
C:\Users\SOLDER~1\AppData\Local\Temp\cc2EfhU3.s:23716  .debug_str:0000000000016280 .LASF1442
C:\Users\SOLDER~1\AppData\Local\Temp\cc2EfhU3.s:23672  .debug_str:0000000000015fbb .LASF1443
C:\Users\SOLDER~1\AppData\Local\Temp\cc2EfhU3.s:26176  .debug_str:000000000002024f .LASF1444
C:\Users\SOLDER~1\AppData\Local\Temp\cc2EfhU3.s:19892  .debug_str:00000000000067af .LASF1445
C:\Users\SOLDER~1\AppData\Local\Temp\cc2EfhU3.s:21810  .debug_str:000000000000e5a3 .LASF1446
C:\Users\SOLDER~1\AppData\Local\Temp\cc2EfhU3.s:26228  .debug_str:00000000000205d1 .LASF1447
C:\Users\SOLDER~1\AppData\Local\Temp\cc2EfhU3.s:28940  .debug_str:000000000002b72d .LASF1448
C:\Users\SOLDER~1\AppData\Local\Temp\cc2EfhU3.s:20388  .debug_str:00000000000087f7 .LASF1449
C:\Users\SOLDER~1\AppData\Local\Temp\cc2EfhU3.s:26238  .debug_str:0000000000020673 .LASF1450
C:\Users\SOLDER~1\AppData\Local\Temp\cc2EfhU3.s:23204  .debug_str:00000000000140fc .LASF1451
C:\Users\SOLDER~1\AppData\Local\Temp\cc2EfhU3.s:21508  .debug_str:000000000000d1fa .LASF1452
C:\Users\SOLDER~1\AppData\Local\Temp\cc2EfhU3.s:19468  .debug_str:0000000000004c4e .LASF1453
C:\Users\SOLDER~1\AppData\Local\Temp\cc2EfhU3.s:20962  .debug_str:000000000000ae00 .LASF1454
C:\Users\SOLDER~1\AppData\Local\Temp\cc2EfhU3.s:27712  .debug_str:00000000000266ed .LASF1455
C:\Users\SOLDER~1\AppData\Local\Temp\cc2EfhU3.s:25754  .debug_str:000000000001e6e2 .LASF1456
C:\Users\SOLDER~1\AppData\Local\Temp\cc2EfhU3.s:27282  .debug_str:0000000000024a54 .LASF1457
C:\Users\SOLDER~1\AppData\Local\Temp\cc2EfhU3.s:24550  .debug_str:0000000000019849 .LASF1458
C:\Users\SOLDER~1\AppData\Local\Temp\cc2EfhU3.s:26528  .debug_str:0000000000021936 .LASF1459
C:\Users\SOLDER~1\AppData\Local\Temp\cc2EfhU3.s:19854  .debug_str:00000000000064fc .LASF1460
C:\Users\SOLDER~1\AppData\Local\Temp\cc2EfhU3.s:23902  .debug_str:0000000000016e10 .LASF1461
C:\Users\SOLDER~1\AppData\Local\Temp\cc2EfhU3.s:23834  .debug_str:00000000000169f5 .LASF1462
C:\Users\SOLDER~1\AppData\Local\Temp\cc2EfhU3.s:19784  .debug_str:000000000000604d .LASF1463
C:\Users\SOLDER~1\AppData\Local\Temp\cc2EfhU3.s:28852  .debug_str:000000000002b170 .LASF1464
C:\Users\SOLDER~1\AppData\Local\Temp\cc2EfhU3.s:29530  .debug_str:000000000002dd74 .LASF1465
C:\Users\SOLDER~1\AppData\Local\Temp\cc2EfhU3.s:25104  .debug_str:000000000001bbd8 .LASF1466
C:\Users\SOLDER~1\AppData\Local\Temp\cc2EfhU3.s:19930  .debug_str:0000000000006a2e .LASF1467
C:\Users\SOLDER~1\AppData\Local\Temp\cc2EfhU3.s:20946  .debug_str:000000000000acdd .LASF1468
C:\Users\SOLDER~1\AppData\Local\Temp\cc2EfhU3.s:25480  .debug_str:000000000001d51f .LASF1469
C:\Users\SOLDER~1\AppData\Local\Temp\cc2EfhU3.s:24106  .debug_str:0000000000017b76 .LASF1470
C:\Users\SOLDER~1\AppData\Local\Temp\cc2EfhU3.s:21142  .debug_str:000000000000b96c .LASF1471
C:\Users\SOLDER~1\AppData\Local\Temp\cc2EfhU3.s:27008  .debug_str:0000000000023815 .LASF1472
C:\Users\SOLDER~1\AppData\Local\Temp\cc2EfhU3.s:21650  .debug_str:000000000000dae8 .LASF1473
C:\Users\SOLDER~1\AppData\Local\Temp\cc2EfhU3.s:27920  .debug_str:00000000000274b4 .LASF1474
C:\Users\SOLDER~1\AppData\Local\Temp\cc2EfhU3.s:27884  .debug_str:000000000002725e .LASF1475
C:\Users\SOLDER~1\AppData\Local\Temp\cc2EfhU3.s:28612  .debug_str:000000000002a1fc .LASF1476
C:\Users\SOLDER~1\AppData\Local\Temp\cc2EfhU3.s:24172  .debug_str:000000000001800c .LASF1477
C:\Users\SOLDER~1\AppData\Local\Temp\cc2EfhU3.s:20752  .debug_str:0000000000009fe6 .LASF1478
C:\Users\SOLDER~1\AppData\Local\Temp\cc2EfhU3.s:18938  .debug_str:0000000000002a8e .LASF1479
C:\Users\SOLDER~1\AppData\Local\Temp\cc2EfhU3.s:21600  .debug_str:000000000000d7fd .LASF1480
C:\Users\SOLDER~1\AppData\Local\Temp\cc2EfhU3.s:29586  .debug_str:000000000002e0e7 .LASF1481
C:\Users\SOLDER~1\AppData\Local\Temp\cc2EfhU3.s:22560  .debug_str:0000000000011643 .LASF1482
C:\Users\SOLDER~1\AppData\Local\Temp\cc2EfhU3.s:21604  .debug_str:000000000000d844 .LASF1483
C:\Users\SOLDER~1\AppData\Local\Temp\cc2EfhU3.s:29288  .debug_str:000000000002cdcb .LASF1484
C:\Users\SOLDER~1\AppData\Local\Temp\cc2EfhU3.s:27200  .debug_str:00000000000244e7 .LASF1485
C:\Users\SOLDER~1\AppData\Local\Temp\cc2EfhU3.s:28648  .debug_str:000000000002a45d .LASF1486
C:\Users\SOLDER~1\AppData\Local\Temp\cc2EfhU3.s:24058  .debug_str:0000000000017863 .LASF1487
C:\Users\SOLDER~1\AppData\Local\Temp\cc2EfhU3.s:21396  .debug_str:000000000000ca8f .LASF1488
C:\Users\SOLDER~1\AppData\Local\Temp\cc2EfhU3.s:23628  .debug_str:0000000000015cc7 .LASF1489
GAS LISTING C:\Users\SOLDER~1\AppData\Local\Temp\cc2EfhU3.s 			page 37


C:\Users\SOLDER~1\AppData\Local\Temp\cc2EfhU3.s:20796  .debug_str:000000000000a2ea .LASF1490
C:\Users\SOLDER~1\AppData\Local\Temp\cc2EfhU3.s:19796  .debug_str:000000000000614a .LASF1491
C:\Users\SOLDER~1\AppData\Local\Temp\cc2EfhU3.s:27656  .debug_str:000000000002634a .LASF1492
C:\Users\SOLDER~1\AppData\Local\Temp\cc2EfhU3.s:24778  .debug_str:000000000001a6e3 .LASF1493
C:\Users\SOLDER~1\AppData\Local\Temp\cc2EfhU3.s:22162  .debug_str:000000000000fcd5 .LASF1494
C:\Users\SOLDER~1\AppData\Local\Temp\cc2EfhU3.s:27516  .debug_str:0000000000025968 .LASF1495
C:\Users\SOLDER~1\AppData\Local\Temp\cc2EfhU3.s:25124  .debug_str:000000000001bd46 .LASF1496
C:\Users\SOLDER~1\AppData\Local\Temp\cc2EfhU3.s:25784  .debug_str:000000000001e8f0 .LASF1497
C:\Users\SOLDER~1\AppData\Local\Temp\cc2EfhU3.s:21378  .debug_str:000000000000c965 .LASF1498
C:\Users\SOLDER~1\AppData\Local\Temp\cc2EfhU3.s:29632  .debug_str:000000000002e3d8 .LASF1499
C:\Users\SOLDER~1\AppData\Local\Temp\cc2EfhU3.s:28708  .debug_str:000000000002a7f6 .LASF1500
C:\Users\SOLDER~1\AppData\Local\Temp\cc2EfhU3.s:23802  .debug_str:00000000000167d0 .LASF1501
C:\Users\SOLDER~1\AppData\Local\Temp\cc2EfhU3.s:25404  .debug_str:000000000001d041 .LASF1502
C:\Users\SOLDER~1\AppData\Local\Temp\cc2EfhU3.s:25298  .debug_str:000000000001c911 .LASF1503
C:\Users\SOLDER~1\AppData\Local\Temp\cc2EfhU3.s:19820  .debug_str:00000000000062cb .LASF1504
C:\Users\SOLDER~1\AppData\Local\Temp\cc2EfhU3.s:25914  .debug_str:000000000001f182 .LASF1505
C:\Users\SOLDER~1\AppData\Local\Temp\cc2EfhU3.s:20702  .debug_str:0000000000009c9d .LASF1506
C:\Users\SOLDER~1\AppData\Local\Temp\cc2EfhU3.s:20668  .debug_str:0000000000009a66 .LASF1507
C:\Users\SOLDER~1\AppData\Local\Temp\cc2EfhU3.s:21370  .debug_str:000000000000c8d9 .LASF1508
C:\Users\SOLDER~1\AppData\Local\Temp\cc2EfhU3.s:28290  .debug_str:0000000000028cc9 .LASF1509
C:\Users\SOLDER~1\AppData\Local\Temp\cc2EfhU3.s:25696  .debug_str:000000000001e2bd .LASF1510
C:\Users\SOLDER~1\AppData\Local\Temp\cc2EfhU3.s:23212  .debug_str:0000000000014199 .LASF1511
C:\Users\SOLDER~1\AppData\Local\Temp\cc2EfhU3.s:25858  .debug_str:000000000001edad .LASF1512
C:\Users\SOLDER~1\AppData\Local\Temp\cc2EfhU3.s:25844  .debug_str:000000000001ecc2 .LASF1513
C:\Users\SOLDER~1\AppData\Local\Temp\cc2EfhU3.s:18800  .debug_str:0000000000002170 .LASF1514
C:\Users\SOLDER~1\AppData\Local\Temp\cc2EfhU3.s:29390  .debug_str:000000000002d461 .LASF1515
C:\Users\SOLDER~1\AppData\Local\Temp\cc2EfhU3.s:25548  .debug_str:000000000001d929 .LASF1516
C:\Users\SOLDER~1\AppData\Local\Temp\cc2EfhU3.s:26432  .debug_str:00000000000212fa .LASF1517
C:\Users\SOLDER~1\AppData\Local\Temp\cc2EfhU3.s:24928  .debug_str:000000000001b08a .LASF1518
C:\Users\SOLDER~1\AppData\Local\Temp\cc2EfhU3.s:20304  .debug_str:000000000000829c .LASF1519
C:\Users\SOLDER~1\AppData\Local\Temp\cc2EfhU3.s:29740  .debug_str:000000000002eadb .LASF1520
C:\Users\SOLDER~1\AppData\Local\Temp\cc2EfhU3.s:27248  .debug_str:00000000000247f9 .LASF1521
C:\Users\SOLDER~1\AppData\Local\Temp\cc2EfhU3.s:28576  .debug_str:0000000000029f91 .LASF1522
C:\Users\SOLDER~1\AppData\Local\Temp\cc2EfhU3.s:19040  .debug_str:00000000000030f5 .LASF1523
C:\Users\SOLDER~1\AppData\Local\Temp\cc2EfhU3.s:24010  .debug_str:000000000001754f .LASF1524
C:\Users\SOLDER~1\AppData\Local\Temp\cc2EfhU3.s:27904  .debug_str:00000000000273ae .LASF1525
C:\Users\SOLDER~1\AppData\Local\Temp\cc2EfhU3.s:18372  .debug_str:000000000000048d .LASF1526
C:\Users\SOLDER~1\AppData\Local\Temp\cc2EfhU3.s:23858  .debug_str:0000000000016b3b .LASF1527
C:\Users\SOLDER~1\AppData\Local\Temp\cc2EfhU3.s:21312  .debug_str:000000000000c4da .LASF1528
C:\Users\SOLDER~1\AppData\Local\Temp\cc2EfhU3.s:22082  .debug_str:000000000000f71e .LASF1529
C:\Users\SOLDER~1\AppData\Local\Temp\cc2EfhU3.s:29076  .debug_str:000000000002c049 .LASF1530
C:\Users\SOLDER~1\AppData\Local\Temp\cc2EfhU3.s:26792  .debug_str:0000000000022a3c .LASF1531
C:\Users\SOLDER~1\AppData\Local\Temp\cc2EfhU3.s:24998  .debug_str:000000000001b502 .LASF1532
C:\Users\SOLDER~1\AppData\Local\Temp\cc2EfhU3.s:19850  .debug_str:00000000000064b4 .LASF1533
C:\Users\SOLDER~1\AppData\Local\Temp\cc2EfhU3.s:21688  .debug_str:000000000000dd7b .LASF1534
C:\Users\SOLDER~1\AppData\Local\Temp\cc2EfhU3.s:29578  .debug_str:000000000002e05a .LASF1535
C:\Users\SOLDER~1\AppData\Local\Temp\cc2EfhU3.s:24116  .debug_str:0000000000017c15 .LASF1536
C:\Users\SOLDER~1\AppData\Local\Temp\cc2EfhU3.s:18690  .debug_str:00000000000019f9 .LASF1537
C:\Users\SOLDER~1\AppData\Local\Temp\cc2EfhU3.s:24966  .debug_str:000000000001b30f .LASF1538
C:\Users\SOLDER~1\AppData\Local\Temp\cc2EfhU3.s:24836  .debug_str:000000000001aaab .LASF1539
C:\Users\SOLDER~1\AppData\Local\Temp\cc2EfhU3.s:25526  .debug_str:000000000001d7c0 .LASF1540
C:\Users\SOLDER~1\AppData\Local\Temp\cc2EfhU3.s:21062  .debug_str:000000000000b472 .LASF1541
C:\Users\SOLDER~1\AppData\Local\Temp\cc2EfhU3.s:29194  .debug_str:000000000002c79f .LASF1542
C:\Users\SOLDER~1\AppData\Local\Temp\cc2EfhU3.s:27332  .debug_str:0000000000024d94 .LASF1543
C:\Users\SOLDER~1\AppData\Local\Temp\cc2EfhU3.s:18644  .debug_str:0000000000001719 .LASF1544
C:\Users\SOLDER~1\AppData\Local\Temp\cc2EfhU3.s:22142  .debug_str:000000000000fb79 .LASF1545
C:\Users\SOLDER~1\AppData\Local\Temp\cc2EfhU3.s:26562  .debug_str:0000000000021b52 .LASF1546
GAS LISTING C:\Users\SOLDER~1\AppData\Local\Temp\cc2EfhU3.s 			page 38


C:\Users\SOLDER~1\AppData\Local\Temp\cc2EfhU3.s:25650  .debug_str:000000000001e000 .LASF1547
C:\Users\SOLDER~1\AppData\Local\Temp\cc2EfhU3.s:21840  .debug_str:000000000000e7c2 .LASF1548
C:\Users\SOLDER~1\AppData\Local\Temp\cc2EfhU3.s:29446  .debug_str:000000000002d7fe .LASF1549
C:\Users\SOLDER~1\AppData\Local\Temp\cc2EfhU3.s:20210  .debug_str:0000000000007c37 .LASF1550
C:\Users\SOLDER~1\AppData\Local\Temp\cc2EfhU3.s:28046  .debug_str:0000000000027ce0 .LASF1551
C:\Users\SOLDER~1\AppData\Local\Temp\cc2EfhU3.s:25998  .debug_str:000000000001f72b .LASF1552
C:\Users\SOLDER~1\AppData\Local\Temp\cc2EfhU3.s:27620  .debug_str:00000000000260cd .LASF1553
C:\Users\SOLDER~1\AppData\Local\Temp\cc2EfhU3.s:24866  .debug_str:000000000001accc .LASF1554
C:\Users\SOLDER~1\AppData\Local\Temp\cc2EfhU3.s:26762  .debug_str:0000000000022824 .LASF1555
C:\Users\SOLDER~1\AppData\Local\Temp\cc2EfhU3.s:20262  .debug_str:0000000000007fd1 .LASF1556
C:\Users\SOLDER~1\AppData\Local\Temp\cc2EfhU3.s:24234  .debug_str:00000000000183cc .LASF1557
C:\Users\SOLDER~1\AppData\Local\Temp\cc2EfhU3.s:26098  .debug_str:000000000001fd56 .LASF1558
C:\Users\SOLDER~1\AppData\Local\Temp\cc2EfhU3.s:20118  .debug_str:0000000000007674 .LASF1559
C:\Users\SOLDER~1\AppData\Local\Temp\cc2EfhU3.s:29102  .debug_str:000000000002c1d1 .LASF1560
C:\Users\SOLDER~1\AppData\Local\Temp\cc2EfhU3.s:18380  .debug_str:000000000000050d .LASF1561
C:\Users\SOLDER~1\AppData\Local\Temp\cc2EfhU3.s:25332  .debug_str:000000000001cb53 .LASF1562
C:\Users\SOLDER~1\AppData\Local\Temp\cc2EfhU3.s:22194  .debug_str:000000000000feeb .LASF1563
C:\Users\SOLDER~1\AppData\Local\Temp\cc2EfhU3.s:21264  .debug_str:000000000000c15d .LASF1564
C:\Users\SOLDER~1\AppData\Local\Temp\cc2EfhU3.s:27796  .debug_str:0000000000026c84 .LASF1565
C:\Users\SOLDER~1\AppData\Local\Temp\cc2EfhU3.s:24018  .debug_str:00000000000175cd .LASF1566
C:\Users\SOLDER~1\AppData\Local\Temp\cc2EfhU3.s:22352  .debug_str:0000000000010914 .LASF1567
C:\Users\SOLDER~1\AppData\Local\Temp\cc2EfhU3.s:28320  .debug_str:0000000000028e9e .LASF1568
C:\Users\SOLDER~1\AppData\Local\Temp\cc2EfhU3.s:22846  .debug_str:000000000001286f .LASF1569
C:\Users\SOLDER~1\AppData\Local\Temp\cc2EfhU3.s:29132  .debug_str:000000000002c3bb .LASF1570
C:\Users\SOLDER~1\AppData\Local\Temp\cc2EfhU3.s:29100  .debug_str:000000000002c1ad .LASF1571
C:\Users\SOLDER~1\AppData\Local\Temp\cc2EfhU3.s:18342  .debug_str:0000000000000280 .LASF1572
C:\Users\SOLDER~1\AppData\Local\Temp\cc2EfhU3.s:25310  .debug_str:000000000001c9f3 .LASF1573
C:\Users\SOLDER~1\AppData\Local\Temp\cc2EfhU3.s:21948  .debug_str:000000000000ee9d .LASF1574
C:\Users\SOLDER~1\AppData\Local\Temp\cc2EfhU3.s:20222  .debug_str:0000000000007d2d .LASF1575
C:\Users\SOLDER~1\AppData\Local\Temp\cc2EfhU3.s:22796  .debug_str:000000000001255b .LASF1576
C:\Users\SOLDER~1\AppData\Local\Temp\cc2EfhU3.s:18434  .debug_str:0000000000000949 .LASF1577
C:\Users\SOLDER~1\AppData\Local\Temp\cc2EfhU3.s:22888  .debug_str:0000000000012b41 .LASF1578
C:\Users\SOLDER~1\AppData\Local\Temp\cc2EfhU3.s:21938  .debug_str:000000000000edf0 .LASF1579
C:\Users\SOLDER~1\AppData\Local\Temp\cc2EfhU3.s:29540  .debug_str:000000000002de07 .LASF1580
C:\Users\SOLDER~1\AppData\Local\Temp\cc2EfhU3.s:27458  .debug_str:0000000000025571 .LASF1581
C:\Users\SOLDER~1\AppData\Local\Temp\cc2EfhU3.s:28980  .debug_str:000000000002b9ad .LASF1582
C:\Users\SOLDER~1\AppData\Local\Temp\cc2EfhU3.s:24376  .debug_str:0000000000018d4a .LASF1583
C:\Users\SOLDER~1\AppData\Local\Temp\cc2EfhU3.s:22310  .debug_str:0000000000010623 .LASF1584
C:\Users\SOLDER~1\AppData\Local\Temp\cc2EfhU3.s:23874  .debug_str:0000000000016c21 .LASF1585
C:\Users\SOLDER~1\AppData\Local\Temp\cc2EfhU3.s:21140  .debug_str:000000000000b947 .LASF1586
C:\Users\SOLDER~1\AppData\Local\Temp\cc2EfhU3.s:23118  .debug_str:0000000000013b27 .LASF1587
C:\Users\SOLDER~1\AppData\Local\Temp\cc2EfhU3.s:27998  .debug_str:0000000000027997 .LASF1588
C:\Users\SOLDER~1\AppData\Local\Temp\cc2EfhU3.s:20486  .debug_str:0000000000008e87 .LASF1589
C:\Users\SOLDER~1\AppData\Local\Temp\cc2EfhU3.s:22414  .debug_str:0000000000010ce7 .LASF1590
C:\Users\SOLDER~1\AppData\Local\Temp\cc2EfhU3.s:27758  .debug_str:0000000000026a2b .LASF1591
C:\Users\SOLDER~1\AppData\Local\Temp\cc2EfhU3.s:25356  .debug_str:000000000001ccf9 .LASF1592
C:\Users\SOLDER~1\AppData\Local\Temp\cc2EfhU3.s:28012  .debug_str:0000000000027a98 .LASF1593
C:\Users\SOLDER~1\AppData\Local\Temp\cc2EfhU3.s:21624  .debug_str:000000000000d964 .LASF1594
C:\Users\SOLDER~1\AppData\Local\Temp\cc2EfhU3.s:18484  .debug_str:0000000000000cd0 .LASF1595
C:\Users\SOLDER~1\AppData\Local\Temp\cc2EfhU3.s:29046  .debug_str:000000000002be3b .LASF1596
C:\Users\SOLDER~1\AppData\Local\Temp\cc2EfhU3.s:24054  .debug_str:000000000001781a .LASF1597
C:\Users\SOLDER~1\AppData\Local\Temp\cc2EfhU3.s:26906  .debug_str:000000000002319f .LASF1598
C:\Users\SOLDER~1\AppData\Local\Temp\cc2EfhU3.s:29178  .debug_str:000000000002c68f .LASF1599
C:\Users\SOLDER~1\AppData\Local\Temp\cc2EfhU3.s:23704  .debug_str:00000000000161a1 .LASF1600
C:\Users\SOLDER~1\AppData\Local\Temp\cc2EfhU3.s:18314  .debug_str:00000000000000e7 .LASF1601
C:\Users\SOLDER~1\AppData\Local\Temp\cc2EfhU3.s:24494  .debug_str:0000000000019514 .LASF1602
C:\Users\SOLDER~1\AppData\Local\Temp\cc2EfhU3.s:24462  .debug_str:00000000000192d4 .LASF1603
GAS LISTING C:\Users\SOLDER~1\AppData\Local\Temp\cc2EfhU3.s 			page 39


C:\Users\SOLDER~1\AppData\Local\Temp\cc2EfhU3.s:25144  .debug_str:000000000001be76 .LASF1604
C:\Users\SOLDER~1\AppData\Local\Temp\cc2EfhU3.s:20674  .debug_str:0000000000009ac5 .LASF1605
C:\Users\SOLDER~1\AppData\Local\Temp\cc2EfhU3.s:28790  .debug_str:000000000002ad46 .LASF1606
C:\Users\SOLDER~1\AppData\Local\Temp\cc2EfhU3.s:27004  .debug_str:00000000000237d8 .LASF1607
C:\Users\SOLDER~1\AppData\Local\Temp\cc2EfhU3.s:29648  .debug_str:000000000002e4f8 .LASF1608
C:\Users\SOLDER~1\AppData\Local\Temp\cc2EfhU3.s:23194  .debug_str:000000000001402d .LASF1609
C:\Users\SOLDER~1\AppData\Local\Temp\cc2EfhU3.s:21722  .debug_str:000000000000dff5 .LASF1610
C:\Users\SOLDER~1\AppData\Local\Temp\cc2EfhU3.s:25974  .debug_str:000000000001f59f .LASF1611
C:\Users\SOLDER~1\AppData\Local\Temp\cc2EfhU3.s:18980  .debug_str:0000000000002d12 .LASF1612
C:\Users\SOLDER~1\AppData\Local\Temp\cc2EfhU3.s:26310  .debug_str:0000000000020b0e .LASF1613
C:\Users\SOLDER~1\AppData\Local\Temp\cc2EfhU3.s:27804  .debug_str:0000000000026d0a .LASF1614
C:\Users\SOLDER~1\AppData\Local\Temp\cc2EfhU3.s:23224  .debug_str:000000000001426d .LASF1615
C:\Users\SOLDER~1\AppData\Local\Temp\cc2EfhU3.s:20340  .debug_str:00000000000084e9 .LASF1616
C:\Users\SOLDER~1\AppData\Local\Temp\cc2EfhU3.s:22704  .debug_str:0000000000011f82 .LASF1617
C:\Users\SOLDER~1\AppData\Local\Temp\cc2EfhU3.s:20002  .debug_str:0000000000006ee9 .LASF1618
C:\Users\SOLDER~1\AppData\Local\Temp\cc2EfhU3.s:21934  .debug_str:000000000000eda5 .LASF1619
C:\Users\SOLDER~1\AppData\Local\Temp\cc2EfhU3.s:26834  .debug_str:0000000000022ce5 .LASF1620
C:\Users\SOLDER~1\AppData\Local\Temp\cc2EfhU3.s:19318  .debug_str:00000000000042b9 .LASF1621
C:\Users\SOLDER~1\AppData\Local\Temp\cc2EfhU3.s:21232  .debug_str:000000000000bf2c .LASF1622
C:\Users\SOLDER~1\AppData\Local\Temp\cc2EfhU3.s:26596  .debug_str:0000000000021d80 .LASF1623
C:\Users\SOLDER~1\AppData\Local\Temp\cc2EfhU3.s:24260  .debug_str:0000000000018591 .LASF1624
C:\Users\SOLDER~1\AppData\Local\Temp\cc2EfhU3.s:24980  .debug_str:000000000001b3e5 .LASF1625
C:\Users\SOLDER~1\AppData\Local\Temp\cc2EfhU3.s:20492  .debug_str:0000000000008eec .LASF1626
C:\Users\SOLDER~1\AppData\Local\Temp\cc2EfhU3.s:28800  .debug_str:000000000002adf0 .LASF1627
C:\Users\SOLDER~1\AppData\Local\Temp\cc2EfhU3.s:27878  .debug_str:0000000000027202 .LASF1628
C:\Users\SOLDER~1\AppData\Local\Temp\cc2EfhU3.s:20454  .debug_str:0000000000008c31 .LASF1629
C:\Users\SOLDER~1\AppData\Local\Temp\cc2EfhU3.s:24526  .debug_str:00000000000196bc .LASF1630
C:\Users\SOLDER~1\AppData\Local\Temp\cc2EfhU3.s:21930  .debug_str:000000000000ed5f .LASF1631
C:\Users\SOLDER~1\AppData\Local\Temp\cc2EfhU3.s:27822  .debug_str:0000000000026e2b .LASF1632
C:\Users\SOLDER~1\AppData\Local\Temp\cc2EfhU3.s:22472  .debug_str:000000000001109e .LASF1633
C:\Users\SOLDER~1\AppData\Local\Temp\cc2EfhU3.s:28726  .debug_str:000000000002a93a .LASF1634
C:\Users\SOLDER~1\AppData\Local\Temp\cc2EfhU3.s:27090  .debug_str:0000000000023d94 .LASF1635
C:\Users\SOLDER~1\AppData\Local\Temp\cc2EfhU3.s:29416  .debug_str:000000000002d634 .LASF1636
C:\Users\SOLDER~1\AppData\Local\Temp\cc2EfhU3.s:24934  .debug_str:000000000001b0e8 .LASF1637
C:\Users\SOLDER~1\AppData\Local\Temp\cc2EfhU3.s:21544  .debug_str:000000000000d461 .LASF1638
C:\Users\SOLDER~1\AppData\Local\Temp\cc2EfhU3.s:19726  .debug_str:0000000000005c7a .LASF1639
C:\Users\SOLDER~1\AppData\Local\Temp\cc2EfhU3.s:22420  .debug_str:0000000000010d47 .LASF1640
C:\Users\SOLDER~1\AppData\Local\Temp\cc2EfhU3.s:25044  .debug_str:000000000001b7d3 .LASF1641
C:\Users\SOLDER~1\AppData\Local\Temp\cc2EfhU3.s:29518  .debug_str:000000000002dcc1 .LASF1642
C:\Users\SOLDER~1\AppData\Local\Temp\cc2EfhU3.s:28482  .debug_str:000000000002991f .LASF1643
C:\Users\SOLDER~1\AppData\Local\Temp\cc2EfhU3.s:24678  .debug_str:000000000001a04b .LASF1644
C:\Users\SOLDER~1\AppData\Local\Temp\cc2EfhU3.s:22616  .debug_str:00000000000119d8 .LASF1645
C:\Users\SOLDER~1\AppData\Local\Temp\cc2EfhU3.s:24150  .debug_str:0000000000017e85 .LASF1646
C:\Users\SOLDER~1\AppData\Local\Temp\cc2EfhU3.s:19474  .debug_str:0000000000004cb2 .LASF1647
C:\Users\SOLDER~1\AppData\Local\Temp\cc2EfhU3.s:23326  .debug_str:0000000000014954 .LASF1648
C:\Users\SOLDER~1\AppData\Local\Temp\cc2EfhU3.s:18976  .debug_str:0000000000002cd1 .LASF1649
C:\Users\SOLDER~1\AppData\Local\Temp\cc2EfhU3.s:27740  .debug_str:00000000000268ea .LASF1650
C:\Users\SOLDER~1\AppData\Local\Temp\cc2EfhU3.s:29714  .debug_str:000000000002e958 .LASF1651
C:\Users\SOLDER~1\AppData\Local\Temp\cc2EfhU3.s:19086  .debug_str:0000000000003406 .LASF1652
C:\Users\SOLDER~1\AppData\Local\Temp\cc2EfhU3.s:27060  .debug_str:0000000000023b8b .LASF1653
C:\Users\SOLDER~1\AppData\Local\Temp\cc2EfhU3.s:29016  .debug_str:000000000002bbfa .LASF1654
C:\Users\SOLDER~1\AppData\Local\Temp\cc2EfhU3.s:22932  .debug_str:0000000000012e11 .LASF1655
C:\Users\SOLDER~1\AppData\Local\Temp\cc2EfhU3.s:20514  .debug_str:000000000000906e .LASF1656
C:\Users\SOLDER~1\AppData\Local\Temp\cc2EfhU3.s:23236  .debug_str:000000000001432d .LASF1657
C:\Users\SOLDER~1\AppData\Local\Temp\cc2EfhU3.s:28236  .debug_str:0000000000028969 .LASF1658
C:\Users\SOLDER~1\AppData\Local\Temp\cc2EfhU3.s:25082  .debug_str:000000000001ba4d .LASF1659
C:\Users\SOLDER~1\AppData\Local\Temp\cc2EfhU3.s:24206  .debug_str:000000000001821f .LASF1660
GAS LISTING C:\Users\SOLDER~1\AppData\Local\Temp\cc2EfhU3.s 			page 40


C:\Users\SOLDER~1\AppData\Local\Temp\cc2EfhU3.s:19146  .debug_str:00000000000037c5 .LASF1661
C:\Users\SOLDER~1\AppData\Local\Temp\cc2EfhU3.s:20774  .debug_str:000000000000a180 .LASF1662
C:\Users\SOLDER~1\AppData\Local\Temp\cc2EfhU3.s:26082  .debug_str:000000000001fc56 .LASF1663
C:\Users\SOLDER~1\AppData\Local\Temp\cc2EfhU3.s:20616  .debug_str:000000000000971b .LASF1664
C:\Users\SOLDER~1\AppData\Local\Temp\cc2EfhU3.s:26664  .debug_str:0000000000022173 .LASF1665
C:\Users\SOLDER~1\AppData\Local\Temp\cc2EfhU3.s:21488  .debug_str:000000000000d0a6 .LASF1666
C:\Users\SOLDER~1\AppData\Local\Temp\cc2EfhU3.s:21448  .debug_str:000000000000ce12 .LASF1667
C:\Users\SOLDER~1\AppData\Local\Temp\cc2EfhU3.s:22190  .debug_str:000000000000fea3 .LASF1668
C:\Users\SOLDER~1\AppData\Local\Temp\cc2EfhU3.s:29106  .debug_str:000000000002c21f .LASF1669
C:\Users\SOLDER~1\AppData\Local\Temp\cc2EfhU3.s:25706  .debug_str:000000000001e36b .LASF1670
C:\Users\SOLDER~1\AppData\Local\Temp\cc2EfhU3.s:24026  .debug_str:0000000000017668 .LASF1671
C:\Users\SOLDER~1\AppData\Local\Temp\cc2EfhU3.s:26610  .debug_str:0000000000021e51 .LASF1672
C:\Users\SOLDER~1\AppData\Local\Temp\cc2EfhU3.s:21302  .debug_str:000000000000c415 .LASF1673
C:\Users\SOLDER~1\AppData\Local\Temp\cc2EfhU3.s:28920  .debug_str:000000000002b5dc .LASF1674
C:\Users\SOLDER~1\AppData\Local\Temp\cc2EfhU3.s:24762  .debug_str:000000000001a5c8 .LASF1675
C:\Users\SOLDER~1\AppData\Local\Temp\cc2EfhU3.s:20942  .debug_str:000000000000ac93 .LASF1676
C:\Users\SOLDER~1\AppData\Local\Temp\cc2EfhU3.s:18898  .debug_str:00000000000027dc .LASF1677
C:\Users\SOLDER~1\AppData\Local\Temp\cc2EfhU3.s:20404  .debug_str:00000000000088e5 .LASF1678
C:\Users\SOLDER~1\AppData\Local\Temp\cc2EfhU3.s:27124  .debug_str:0000000000023fdd .LASF1679
C:\Users\SOLDER~1\AppData\Local\Temp\cc2EfhU3.s:25178  .debug_str:000000000001c0f5 .LASF1680
C:\Users\SOLDER~1\AppData\Local\Temp\cc2EfhU3.s:29208  .debug_str:000000000002c876 .LASF1681
C:\Users\SOLDER~1\AppData\Local\Temp\cc2EfhU3.s:24086  .debug_str:0000000000017a24 .LASF1682
C:\Users\SOLDER~1\AppData\Local\Temp\cc2EfhU3.s:25984  .debug_str:000000000001f639 .LASF1683
C:\Users\SOLDER~1\AppData\Local\Temp\cc2EfhU3.s:19422  .debug_str:000000000000495b .LASF1684
C:\Users\SOLDER~1\AppData\Local\Temp\cc2EfhU3.s:23318  .debug_str:00000000000148ce .LASF1685
C:\Users\SOLDER~1\AppData\Local\Temp\cc2EfhU3.s:25284  .debug_str:000000000001c807 .LASF1686
C:\Users\SOLDER~1\AppData\Local\Temp\cc2EfhU3.s:19202  .debug_str:0000000000003b70 .LASF1687
C:\Users\SOLDER~1\AppData\Local\Temp\cc2EfhU3.s:28258  .debug_str:0000000000028ab3 .LASF1688
C:\Users\SOLDER~1\AppData\Local\Temp\cc2EfhU3.s:29030  .debug_str:000000000002bd07 .LASF1689
C:\Users\SOLDER~1\AppData\Local\Temp\cc2EfhU3.s:24552  .debug_str:000000000001986e .LASF1690
C:\Users\SOLDER~1\AppData\Local\Temp\cc2EfhU3.s:21346  .debug_str:000000000000c71e .LASF1691
C:\Users\SOLDER~1\AppData\Local\Temp\cc2EfhU3.s:20464  .debug_str:0000000000008cf2 .LASF1692
C:\Users\SOLDER~1\AppData\Local\Temp\cc2EfhU3.s:21846  .debug_str:000000000000e827 .LASF1693
C:\Users\SOLDER~1\AppData\Local\Temp\cc2EfhU3.s:28558  .debug_str:0000000000029e41 .LASF1694
C:\Users\SOLDER~1\AppData\Local\Temp\cc2EfhU3.s:25132  .debug_str:000000000001bdad .LASF1695
C:\Users\SOLDER~1\AppData\Local\Temp\cc2EfhU3.s:24868  .debug_str:000000000001acf1 .LASF1696
C:\Users\SOLDER~1\AppData\Local\Temp\cc2EfhU3.s:19080  .debug_str:0000000000003399 .LASF1697
C:\Users\SOLDER~1\AppData\Local\Temp\cc2EfhU3.s:25736  .debug_str:000000000001e597 .LASF1698
C:\Users\SOLDER~1\AppData\Local\Temp\cc2EfhU3.s:25610  .debug_str:000000000001dd80 .LASF1699
C:\Users\SOLDER~1\AppData\Local\Temp\cc2EfhU3.s:26312  .debug_str:0000000000020b34 .LASF1700
C:\Users\SOLDER~1\AppData\Local\Temp\cc2EfhU3.s:21856  .debug_str:000000000000e8d0 .LASF1701
C:\Users\SOLDER~1\AppData\Local\Temp\cc2EfhU3.s:18512  .debug_str:0000000000000ea2 .LASF1702
C:\Users\SOLDER~1\AppData\Local\Temp\cc2EfhU3.s:28216  .debug_str:000000000002882a .LASF1703
C:\Users\SOLDER~1\AppData\Local\Temp\cc2EfhU3.s:19406  .debug_str:0000000000004872 .LASF1704
C:\Users\SOLDER~1\AppData\Local\Temp\cc2EfhU3.s:29094  .debug_str:000000000002c15d .LASF1705
C:\Users\SOLDER~1\AppData\Local\Temp\cc2EfhU3.s:21976  .debug_str:000000000000f034 .LASF1706
C:\Users\SOLDER~1\AppData\Local\Temp\cc2EfhU3.s:21028  .debug_str:000000000000b207 .LASF1707
C:\Users\SOLDER~1\AppData\Local\Temp\cc2EfhU3.s:28706  .debug_str:000000000002a7d0 .LASF1708
C:\Users\SOLDER~1\AppData\Local\Temp\cc2EfhU3.s:26620  .debug_str:0000000000021ef2 .LASF1709
C:\Users\SOLDER~1\AppData\Local\Temp\cc2EfhU3.s:23012  .debug_str:000000000001336d .LASF1710
C:\Users\SOLDER~1\AppData\Local\Temp\cc2EfhU3.s:23454  .debug_str:00000000000151bd .LASF1711
C:\Users\SOLDER~1\AppData\Local\Temp\cc2EfhU3.s:29616  .debug_str:000000000002e2e1 .LASF1712
C:\Users\SOLDER~1\AppData\Local\Temp\cc2EfhU3.s:23054  .debug_str:0000000000013656 .LASF1713
C:\Users\SOLDER~1\AppData\Local\Temp\cc2EfhU3.s:20334  .debug_str:0000000000008475 .LASF1714
C:\Users\SOLDER~1\AppData\Local\Temp\cc2EfhU3.s:22292  .debug_str:0000000000010530 .LASF1715
C:\Users\SOLDER~1\AppData\Local\Temp\cc2EfhU3.s:20090  .debug_str:00000000000074bd .LASF1716
C:\Users\SOLDER~1\AppData\Local\Temp\cc2EfhU3.s:18808  .debug_str:00000000000021f6 .LASF1717
GAS LISTING C:\Users\SOLDER~1\AppData\Local\Temp\cc2EfhU3.s 			page 41


C:\Users\SOLDER~1\AppData\Local\Temp\cc2EfhU3.s:21566  .debug_str:000000000000d5b1 .LASF1718
C:\Users\SOLDER~1\AppData\Local\Temp\cc2EfhU3.s:26926  .debug_str:00000000000232f9 .LASF1719
C:\Users\SOLDER~1\AppData\Local\Temp\cc2EfhU3.s:24572  .debug_str:00000000000199bb .LASF1720
C:\Users\SOLDER~1\AppData\Local\Temp\cc2EfhU3.s:25296  .debug_str:000000000001c8eb .LASF1721
C:\Users\SOLDER~1\AppData\Local\Temp\cc2EfhU3.s:20798  .debug_str:000000000000a30f .LASF1722
C:\Users\SOLDER~1\AppData\Local\Temp\cc2EfhU3.s:29138  .debug_str:000000000002c418 .LASF1723
C:\Users\SOLDER~1\AppData\Local\Temp\cc2EfhU3.s:28214  .debug_str:0000000000028804 .LASF1724
C:\Users\SOLDER~1\AppData\Local\Temp\cc2EfhU3.s:23218  .debug_str:000000000001420e .LASF1725
C:\Users\SOLDER~1\AppData\Local\Temp\cc2EfhU3.s:24846  .debug_str:000000000001ab8c .LASF1726
C:\Users\SOLDER~1\AppData\Local\Temp\cc2EfhU3.s:21546  .debug_str:000000000000d486 .LASF1727
C:\Users\SOLDER~1\AppData\Local\Temp\cc2EfhU3.s:27522  .debug_str:00000000000259d3 .LASF1728
C:\Users\SOLDER~1\AppData\Local\Temp\cc2EfhU3.s:23520  .debug_str:000000000001560b .LASF1729
C:\Users\SOLDER~1\AppData\Local\Temp\cc2EfhU3.s:19206  .debug_str:0000000000003bad .LASF1730
C:\Users\SOLDER~1\AppData\Local\Temp\cc2EfhU3.s:28406  .debug_str:000000000002947a .LASF1731
C:\Users\SOLDER~1\AppData\Local\Temp\cc2EfhU3.s:29126  .debug_str:000000000002c34d .LASF1732
C:\Users\SOLDER~1\AppData\Local\Temp\cc2EfhU3.s:24658  .debug_str:0000000000019f13 .LASF1733
C:\Users\SOLDER~1\AppData\Local\Temp\cc2EfhU3.s:21174  .debug_str:000000000000bb98 .LASF1734
C:\Users\SOLDER~1\AppData\Local\Temp\cc2EfhU3.s:19904  .debug_str:0000000000006892 .LASF1735
C:\Users\SOLDER~1\AppData\Local\Temp\cc2EfhU3.s:22120  .debug_str:000000000000f9d2 .LASF1736
C:\Users\SOLDER~1\AppData\Local\Temp\cc2EfhU3.s:23698  .debug_str:000000000001615c .LASF1737
C:\Users\SOLDER~1\AppData\Local\Temp\cc2EfhU3.s:19158  .debug_str:0000000000003889 .LASF1738
C:\Users\SOLDER~1\AppData\Local\Temp\cc2EfhU3.s:19712  .debug_str:0000000000005bc5 .LASF1739
C:\Users\SOLDER~1\AppData\Local\Temp\cc2EfhU3.s:27352  .debug_str:0000000000024ec5 .LASF1740
C:\Users\SOLDER~1\AppData\Local\Temp\cc2EfhU3.s:25240  .debug_str:000000000001c52a .LASF1741
C:\Users\SOLDER~1\AppData\Local\Temp\cc2EfhU3.s:22256  .debug_str:00000000000102d5 .LASF1742
C:\Users\SOLDER~1\AppData\Local\Temp\cc2EfhU3.s:22126  .debug_str:000000000000fa32 .LASF1743
C:\Users\SOLDER~1\AppData\Local\Temp\cc2EfhU3.s:20074  .debug_str:00000000000073b8 .LASF1744
C:\Users\SOLDER~1\AppData\Local\Temp\cc2EfhU3.s:21696  .debug_str:000000000000de0b .LASF1745
C:\Users\SOLDER~1\AppData\Local\Temp\cc2EfhU3.s:26994  .debug_str:0000000000023764 .LASF1746
C:\Users\SOLDER~1\AppData\Local\Temp\cc2EfhU3.s:20848  .debug_str:000000000000a690 .LASF1747
C:\Users\SOLDER~1\AppData\Local\Temp\cc2EfhU3.s:25776  .debug_str:000000000001e86e .LASF1748
C:\Users\SOLDER~1\AppData\Local\Temp\cc2EfhU3.s:29756  .debug_str:000000000002ebdc .LASF1749
C:\Users\SOLDER~1\AppData\Local\Temp\cc2EfhU3.s:20180  .debug_str:0000000000007a50 .LASF1750
C:\Users\SOLDER~1\AppData\Local\Temp\cc2EfhU3.s:25636  .debug_str:000000000001df07 .LASF1751
C:\Users\SOLDER~1\AppData\Local\Temp\cc2EfhU3.s:23164  .debug_str:0000000000013e44 .LASF1752
C:\Users\SOLDER~1\AppData\Local\Temp\cc2EfhU3.s:23924  .debug_str:0000000000016f89 .LASF1753
C:\Users\SOLDER~1\AppData\Local\Temp\cc2EfhU3.s:19392  .debug_str:0000000000004783 .LASF1754
C:\Users\SOLDER~1\AppData\Local\Temp\cc2EfhU3.s:27688  .debug_str:0000000000026557 .LASF1755
C:\Users\SOLDER~1\AppData\Local\Temp\cc2EfhU3.s:26770  .debug_str:00000000000228c7 .LASF1756
C:\Users\SOLDER~1\AppData\Local\Temp\cc2EfhU3.s:21870  .debug_str:000000000000e9b3 .LASF1757
C:\Users\SOLDER~1\AppData\Local\Temp\cc2EfhU3.s:23534  .debug_str:00000000000156d9 .LASF1758
C:\Users\SOLDER~1\AppData\Local\Temp\cc2EfhU3.s:25806  .debug_str:000000000001ea4f .LASF1759
C:\Users\SOLDER~1\AppData\Local\Temp\cc2EfhU3.s:20328  .debug_str:000000000000841b .LASF1760
C:\Users\SOLDER~1\AppData\Local\Temp\cc2EfhU3.s:26384  .debug_str:0000000000021015 .LASF1761
C:\Users\SOLDER~1\AppData\Local\Temp\cc2EfhU3.s:21196  .debug_str:000000000000bce9 .LASF1762
C:\Users\SOLDER~1\AppData\Local\Temp\cc2EfhU3.s:18836  .debug_str:00000000000023d7 .LASF1763
C:\Users\SOLDER~1\AppData\Local\Temp\cc2EfhU3.s:21788  .debug_str:000000000000e45b .LASF1764
C:\Users\SOLDER~1\AppData\Local\Temp\cc2EfhU3.s:22650  .debug_str:0000000000011c2c .LASF1765
C:\Users\SOLDER~1\AppData\Local\Temp\cc2EfhU3.s:25416  .debug_str:000000000001d10a .LASF1766
C:\Users\SOLDER~1\AppData\Local\Temp\cc2EfhU3.s:23720  .debug_str:00000000000162bc .LASF1767
C:\Users\SOLDER~1\AppData\Local\Temp\cc2EfhU3.s:26342  .debug_str:0000000000020d29 .LASF1768
C:\Users\SOLDER~1\AppData\Local\Temp\cc2EfhU3.s:23990  .debug_str:00000000000173ff .LASF1769
C:\Users\SOLDER~1\AppData\Local\Temp\cc2EfhU3.s:28424  .debug_str:0000000000029584 .LASF1770
C:\Users\SOLDER~1\AppData\Local\Temp\cc2EfhU3.s:27456  .debug_str:000000000002554c .LASF1771
C:\Users\SOLDER~1\AppData\Local\Temp\cc2EfhU3.s:26326  .debug_str:0000000000020c15 .LASF1772
C:\Users\SOLDER~1\AppData\Local\Temp\cc2EfhU3.s:21520  .debug_str:000000000000d2c3 .LASF1773
C:\Users\SOLDER~1\AppData\Local\Temp\cc2EfhU3.s:23048  .debug_str:00000000000135e8 .LASF1774
GAS LISTING C:\Users\SOLDER~1\AppData\Local\Temp\cc2EfhU3.s 			page 42


C:\Users\SOLDER~1\AppData\Local\Temp\cc2EfhU3.s:18422  .debug_str:0000000000000844 .LASF1775
C:\Users\SOLDER~1\AppData\Local\Temp\cc2EfhU3.s:27802  .debug_str:0000000000026ce5 .LASF1776
C:\Users\SOLDER~1\AppData\Local\Temp\cc2EfhU3.s:29484  .debug_str:000000000002da83 .LASF1777
C:\Users\SOLDER~1\AppData\Local\Temp\cc2EfhU3.s:26638  .debug_str:0000000000021ff6 .LASF1778
C:\Users\SOLDER~1\AppData\Local\Temp\cc2EfhU3.s:26068  .debug_str:000000000001fb7a .LASF1779
C:\Users\SOLDER~1\AppData\Local\Temp\cc2EfhU3.s:22072  .debug_str:000000000000f665 .LASF1780
C:\Users\SOLDER~1\AppData\Local\Temp\cc2EfhU3.s:26010  .debug_str:000000000001f7d8 .LASF1781
C:\Users\SOLDER~1\AppData\Local\Temp\cc2EfhU3.s:27910  .debug_str:0000000000027416 .LASF1782
C:\Users\SOLDER~1\AppData\Local\Temp\cc2EfhU3.s:21924  .debug_str:000000000000ecfb .LASF1783
C:\Users\SOLDER~1\AppData\Local\Temp\cc2EfhU3.s:19410  .debug_str:00000000000048b1 .LASF1784
C:\Users\SOLDER~1\AppData\Local\Temp\cc2EfhU3.s:20188  .debug_str:0000000000007ade .LASF1785
C:\Users\SOLDER~1\AppData\Local\Temp\cc2EfhU3.s:27130  .debug_str:0000000000024044 .LASF1786
C:\Users\SOLDER~1\AppData\Local\Temp\cc2EfhU3.s:24044  .debug_str:0000000000017758 .LASF1787
C:\Users\SOLDER~1\AppData\Local\Temp\cc2EfhU3.s:23124  .debug_str:0000000000013b8b .LASF1788
C:\Users\SOLDER~1\AppData\Local\Temp\cc2EfhU3.s:29656  .debug_str:000000000002e57d .LASF1789
C:\Users\SOLDER~1\AppData\Local\Temp\cc2EfhU3.s:19708  .debug_str:0000000000005b7c .LASF1790
C:\Users\SOLDER~1\AppData\Local\Temp\cc2EfhU3.s:18600  .debug_str:0000000000001439 .LASF1791
C:\Users\SOLDER~1\AppData\Local\Temp\cc2EfhU3.s:24594  .debug_str:0000000000019b1a .LASF1792
C:\Users\SOLDER~1\AppData\Local\Temp\cc2EfhU3.s:19184  .debug_str:0000000000003a40 .LASF1793
C:\Users\SOLDER~1\AppData\Local\Temp\cc2EfhU3.s:25360  .debug_str:000000000001cd4a .LASF1794
C:\Users\SOLDER~1\AppData\Local\Temp\cc2EfhU3.s:25324  .debug_str:000000000001cace .LASF1795
C:\Users\SOLDER~1\AppData\Local\Temp\cc2EfhU3.s:26034  .debug_str:000000000001f95e .LASF1796
C:\Users\SOLDER~1\AppData\Local\Temp\cc2EfhU3.s:22400  .debug_str:0000000000010be8 .LASF1797
C:\Users\SOLDER~1\AppData\Local\Temp\cc2EfhU3.s:29696  .debug_str:000000000002e83b .LASF1798
C:\Users\SOLDER~1\AppData\Local\Temp\cc2EfhU3.s:27924  .debug_str:0000000000027504 .LASF1799
C:\Users\SOLDER~1\AppData\Local\Temp\cc2EfhU3.s:19130  .debug_str:00000000000036bc .LASF1800
C:\Users\SOLDER~1\AppData\Local\Temp\cc2EfhU3.s:20246  .debug_str:0000000000007ebb .LASF1801
C:\Users\SOLDER~1\AppData\Local\Temp\cc2EfhU3.s:25906  .debug_str:000000000001f0fb .LASF1802
C:\Users\SOLDER~1\AppData\Local\Temp\cc2EfhU3.s:23792  .debug_str:0000000000016724 .LASF1803
C:\Users\SOLDER~1\AppData\Local\Temp\cc2EfhU3.s:19858  .debug_str:0000000000006542 .LASF1804
C:\Users\SOLDER~1\AppData\Local\Temp\cc2EfhU3.s:29306  .debug_str:000000000002cf31 .LASF1805
C:\Users\SOLDER~1\AppData\Local\Temp\cc2EfhU3.s:19288  .debug_str:00000000000040e5 .LASF1806
C:\Users\SOLDER~1\AppData\Local\Temp\cc2EfhU3.s:26144  .debug_str:000000000002003a .LASF1807
C:\Users\SOLDER~1\AppData\Local\Temp\cc2EfhU3.s:23998  .debug_str:0000000000017480 .LASF1808
C:\Users\SOLDER~1\AppData\Local\Temp\cc2EfhU3.s:25652  .debug_str:000000000001e025 .LASF1809
C:\Users\SOLDER~1\AppData\Local\Temp\cc2EfhU3.s:22980  .debug_str:000000000001314c .LASF1810
C:\Users\SOLDER~1\AppData\Local\Temp\cc2EfhU3.s:24908  .debug_str:000000000001af39 .LASF1811
C:\Users\SOLDER~1\AppData\Local\Temp\cc2EfhU3.s:18374  .debug_str:00000000000004b2 .LASF1812
C:\Users\SOLDER~1\AppData\Local\Temp\cc2EfhU3.s:22322  .debug_str:00000000000106ed .LASF1813
C:\Users\SOLDER~1\AppData\Local\Temp\cc2EfhU3.s:24244  .debug_str:000000000001847f .LASF1814
C:\Users\SOLDER~1\AppData\Local\Temp\cc2EfhU3.s:29622  .debug_str:000000000002e342 .LASF1815
C:\Users\SOLDER~1\AppData\Local\Temp\cc2EfhU3.s:25602  .debug_str:000000000001dced .LASF1816
C:\Users\SOLDER~1\AppData\Local\Temp\cc2EfhU3.s:28382  .debug_str:00000000000292d6 .LASF1817
C:\Users\SOLDER~1\AppData\Local\Temp\cc2EfhU3.s:23466  .debug_str:000000000001526e .LASF1818
C:\Users\SOLDER~1\AppData\Local\Temp\cc2EfhU3.s:20288  .debug_str:0000000000008199 .LASF1819
C:\Users\SOLDER~1\AppData\Local\Temp\cc2EfhU3.s:19362  .debug_str:000000000000457c .LASF1820
C:\Users\SOLDER~1\AppData\Local\Temp\cc2EfhU3.s:25820  .debug_str:000000000001eb34 .LASF1821
C:\Users\SOLDER~1\AppData\Local\Temp\cc2EfhU3.s:27452  .debug_str:0000000000025505 .LASF1822
C:\Users\SOLDER~1\AppData\Local\Temp\cc2EfhU3.s:22832  .debug_str:000000000001278d .LASF1823
C:\Users\SOLDER~1\AppData\Local\Temp\cc2EfhU3.s:28736  .debug_str:000000000002a9f3 .LASF1824
C:\Users\SOLDER~1\AppData\Local\Temp\cc2EfhU3.s:23370  .debug_str:0000000000014c49 .LASF1825
C:\Users\SOLDER~1\AppData\Local\Temp\cc2EfhU3.s:29642  .debug_str:000000000002e47c .LASF1826
C:\Users\SOLDER~1\AppData\Local\Temp\cc2EfhU3.s:28064  .debug_str:0000000000027e1a .LASF1827
C:\Users\SOLDER~1\AppData\Local\Temp\cc2EfhU3.s:18814  .debug_str:0000000000002264 .LASF1828
C:\Users\SOLDER~1\AppData\Local\Temp\cc2EfhU3.s:25812  .debug_str:000000000001eaac .LASF1829
C:\Users\SOLDER~1\AppData\Local\Temp\cc2EfhU3.s:20672  .debug_str:0000000000009aa1 .LASF1830
C:\Users\SOLDER~1\AppData\Local\Temp\cc2EfhU3.s:20626  .debug_str:00000000000097d3 .LASF1831
GAS LISTING C:\Users\SOLDER~1\AppData\Local\Temp\cc2EfhU3.s 			page 43


C:\Users\SOLDER~1\AppData\Local\Temp\cc2EfhU3.s:23320  .debug_str:00000000000148f4 .LASF1832
C:\Users\SOLDER~1\AppData\Local\Temp\cc2EfhU3.s:27980  .debug_str:0000000000027860 .LASF1833
C:\Users\SOLDER~1\AppData\Local\Temp\cc2EfhU3.s:20972  .debug_str:000000000000aea7 .LASF1834
C:\Users\SOLDER~1\AppData\Local\Temp\cc2EfhU3.s:19952  .debug_str:0000000000006b7c .LASF1835
C:\Users\SOLDER~1\AppData\Local\Temp\cc2EfhU3.s:27596  .debug_str:0000000000025f10 .LASF1836
C:\Users\SOLDER~1\AppData\Local\Temp\cc2EfhU3.s:25566  .debug_str:000000000001da5b .LASF1837
C:\Users\SOLDER~1\AppData\Local\Temp\cc2EfhU3.s:26456  .debug_str:0000000000021490 .LASF1838
C:\Users\SOLDER~1\AppData\Local\Temp\cc2EfhU3.s:22466  .debug_str:0000000000011038 .LASF1839
C:\Users\SOLDER~1\AppData\Local\Temp\cc2EfhU3.s:21246  .debug_str:000000000000c02d .LASF1840
C:\Users\SOLDER~1\AppData\Local\Temp\cc2EfhU3.s:21942  .debug_str:000000000000ee35 .LASF1841
C:\Users\SOLDER~1\AppData\Local\Temp\cc2EfhU3.s:19230  .debug_str:0000000000003d33 .LASF1842
C:\Users\SOLDER~1\AppData\Local\Temp\cc2EfhU3.s:21180  .debug_str:000000000000bbff .LASF1843
C:\Users\SOLDER~1\AppData\Local\Temp\cc2EfhU3.s:26102  .debug_str:000000000001fd97 .LASF1844
C:\Users\SOLDER~1\AppData\Local\Temp\cc2EfhU3.s:18604  .debug_str:000000000000147d .LASF1845
C:\Users\SOLDER~1\AppData\Local\Temp\cc2EfhU3.s:20500  .debug_str:0000000000008f7a .LASF1846
C:\Users\SOLDER~1\AppData\Local\Temp\cc2EfhU3.s:25884  .debug_str:000000000001ef79 .LASF1847
C:\Users\SOLDER~1\AppData\Local\Temp\cc2EfhU3.s:23480  .debug_str:000000000001536e .LASF1848
C:\Users\SOLDER~1\AppData\Local\Temp\cc2EfhU3.s:24256  .debug_str:000000000001854c .LASF1849
C:\Users\SOLDER~1\AppData\Local\Temp\cc2EfhU3.s:19734  .debug_str:0000000000005d14 .LASF1850
C:\Users\SOLDER~1\AppData\Local\Temp\cc2EfhU3.s:28024  .debug_str:0000000000027b81 .LASF1851
C:\Users\SOLDER~1\AppData\Local\Temp\cc2EfhU3.s:27106  .debug_str:0000000000023e92 .LASF1852
C:\Users\SOLDER~1\AppData\Local\Temp\cc2EfhU3.s:28314  .debug_str:0000000000028e2a .LASF1853
C:\Users\SOLDER~1\AppData\Local\Temp\cc2EfhU3.s:23788  .debug_str:00000000000166d4 .LASF1854
C:\Users\SOLDER~1\AppData\Local\Temp\cc2EfhU3.s:26946  .debug_str:000000000002344c .LASF1855
C:\Users\SOLDER~1\AppData\Local\Temp\cc2EfhU3.s:24620  .debug_str:0000000000019c97 .LASF1856
C:\Users\SOLDER~1\AppData\Local\Temp\cc2EfhU3.s:27572  .debug_str:0000000000025d73 .LASF1857
C:\Users\SOLDER~1\AppData\Local\Temp\cc2EfhU3.s:22416  .debug_str:0000000000010d0c .LASF1858
C:\Users\SOLDER~1\AppData\Local\Temp\cc2EfhU3.s:22384  .debug_str:0000000000010af1 .LASF1859
C:\Users\SOLDER~1\AppData\Local\Temp\cc2EfhU3.s:29220  .debug_str:000000000002c931 .LASF1860
C:\Users\SOLDER~1\AppData\Local\Temp\cc2EfhU3.s:20960  .debug_str:000000000000addc .LASF1861
C:\Users\SOLDER~1\AppData\Local\Temp\cc2EfhU3.s:26576  .debug_str:0000000000021c3c .LASF1862
C:\Users\SOLDER~1\AppData\Local\Temp\cc2EfhU3.s:24882  .debug_str:000000000001add8 .LASF1863
C:\Users\SOLDER~1\AppData\Local\Temp\cc2EfhU3.s:27518  .debug_str:000000000002598d .LASF1864
C:\Users\SOLDER~1\AppData\Local\Temp\cc2EfhU3.s:24312  .debug_str:00000000000188f7 .LASF1865
C:\Users\SOLDER~1\AppData\Local\Temp\cc2EfhU3.s:28744  .debug_str:000000000002aa7a .LASF1866
C:\Users\SOLDER~1\AppData\Local\Temp\cc2EfhU3.s:27694  .debug_str:00000000000265ca .LASF1867
C:\Users\SOLDER~1\AppData\Local\Temp\cc2EfhU3.s:23936  .debug_str:0000000000017059 .LASF1868
C:\Users\SOLDER~1\AppData\Local\Temp\cc2EfhU3.s:21858  .debug_str:000000000000e8f5 .LASF1869
C:\Users\SOLDER~1\AppData\Local\Temp\cc2EfhU3.s:23374  .debug_str:0000000000014c92 .LASF1870
C:\Users\SOLDER~1\AppData\Local\Temp\cc2EfhU3.s:18652  .debug_str:00000000000017a5 .LASF1871
C:\Users\SOLDER~1\AppData\Local\Temp\cc2EfhU3.s:28144  .debug_str:0000000000028357 .LASF1872
C:\Users\SOLDER~1\AppData\Local\Temp\cc2EfhU3.s:27110  .debug_str:0000000000023ee4 .LASF1873
C:\Users\SOLDER~1\AppData\Local\Temp\cc2EfhU3.s:26960  .debug_str:0000000000023542 .LASF1874
C:\Users\SOLDER~1\AppData\Local\Temp\cc2EfhU3.s:28958  .debug_str:000000000002b83f .LASF1875
C:\Users\SOLDER~1\AppData\Local\Temp\cc2EfhU3.s:26512  .debug_str:000000000002181e .LASF1876
C:\Users\SOLDER~1\AppData\Local\Temp\cc2EfhU3.s:25264  .debug_str:000000000001c6b7 .LASF1877
C:\Users\SOLDER~1\AppData\Local\Temp\cc2EfhU3.s:28244  .debug_str:00000000000289e9 .LASF1878
C:\Users\SOLDER~1\AppData\Local\Temp\cc2EfhU3.s:26916  .debug_str:0000000000023252 .LASF1879
C:\Users\SOLDER~1\AppData\Local\Temp\cc2EfhU3.s:19752  .debug_str:0000000000005e2b .LASF1880
C:\Users\SOLDER~1\AppData\Local\Temp\cc2EfhU3.s:20510  .debug_str:0000000000009027 .LASF1881
C:\Users\SOLDER~1\AppData\Local\Temp\cc2EfhU3.s:27470  .debug_str:000000000002562e .LASF1882
C:\Users\SOLDER~1\AppData\Local\Temp\cc2EfhU3.s:24354  .debug_str:0000000000018bc7 .LASF1883
C:\Users\SOLDER~1\AppData\Local\Temp\cc2EfhU3.s:18566  .debug_str:0000000000001201 .LASF1884
C:\Users\SOLDER~1\AppData\Local\Temp\cc2EfhU3.s:18418  .debug_str:00000000000007f9 .LASF1885
C:\Users\SOLDER~1\AppData\Local\Temp\cc2EfhU3.s:20050  .debug_str:000000000000720a .LASF1886
C:\Users\SOLDER~1\AppData\Local\Temp\cc2EfhU3.s:19764  .debug_str:0000000000005eef .LASF1887
C:\Users\SOLDER~1\AppData\Local\Temp\cc2EfhU3.s:25744  .debug_str:000000000001e626 .LASF1888
GAS LISTING C:\Users\SOLDER~1\AppData\Local\Temp\cc2EfhU3.s 			page 44


C:\Users\SOLDER~1\AppData\Local\Temp\cc2EfhU3.s:20380  .debug_str:0000000000008772 .LASF1889
C:\Users\SOLDER~1\AppData\Local\Temp\cc2EfhU3.s:26604  .debug_str:0000000000021df2 .LASF1890
C:\Users\SOLDER~1\AppData\Local\Temp\cc2EfhU3.s:26570  .debug_str:0000000000021bcb .LASF1891
C:\Users\SOLDER~1\AppData\Local\Temp\cc2EfhU3.s:27192  .debug_str:0000000000024461 .LASF1892
C:\Users\SOLDER~1\AppData\Local\Temp\cc2EfhU3.s:22758  .debug_str:00000000000122d9 .LASF1893
C:\Users\SOLDER~1\AppData\Local\Temp\cc2EfhU3.s:19372  .debug_str:0000000000004628 .LASF1894
C:\Users\SOLDER~1\AppData\Local\Temp\cc2EfhU3.s:29136  .debug_str:000000000002c3f4 .LASF1895
C:\Users\SOLDER~1\AppData\Local\Temp\cc2EfhU3.s:20320  .debug_str:00000000000083a8 .LASF1896
C:\Users\SOLDER~1\AppData\Local\Temp\cc2EfhU3.s:20566  .debug_str:00000000000093ef .LASF1897
C:\Users\SOLDER~1\AppData\Local\Temp\cc2EfhU3.s:24944  .debug_str:000000000001b194 .LASF1898
C:\Users\SOLDER~1\AppData\Local\Temp\cc2EfhU3.s:24046  .debug_str:000000000001777d .LASF1899
C:\Users\SOLDER~1\AppData\Local\Temp\cc2EfhU3.s:25840  .debug_str:000000000001ec77 .LASF1900
C:\Users\SOLDER~1\AppData\Local\Temp\cc2EfhU3.s:29644  .debug_str:000000000002e4a0 .LASF1901
C:\Users\SOLDER~1\AppData\Local\Temp\cc2EfhU3.s:19630  .debug_str:0000000000005602 .LASF1902
C:\Users\SOLDER~1\AppData\Local\Temp\cc2EfhU3.s:29242  .debug_str:000000000002ca9e .LASF1903
C:\Users\SOLDER~1\AppData\Local\Temp\cc2EfhU3.s:24460  .debug_str:00000000000192af .LASF1904
C:\Users\SOLDER~1\AppData\Local\Temp\cc2EfhU3.s:25990  .debug_str:000000000001f6a6 .LASF1905
C:\Users\SOLDER~1\AppData\Local\Temp\cc2EfhU3.s:23314  .debug_str:0000000000014872 .LASF1906
C:\Users\SOLDER~1\AppData\Local\Temp\cc2EfhU3.s:25218  .debug_str:000000000001c387 .LASF1907
C:\Users\SOLDER~1\AppData\Local\Temp\cc2EfhU3.s:18684  .debug_str:0000000000001995 .LASF1908
C:\Users\SOLDER~1\AppData\Local\Temp\cc2EfhU3.s:28234  .debug_str:0000000000028944 .LASF1909
C:\Users\SOLDER~1\AppData\Local\Temp\cc2EfhU3.s:24560  .debug_str:00000000000198f0 .LASF1910
C:\Users\SOLDER~1\AppData\Local\Temp\cc2EfhU3.s:18470  .debug_str:0000000000000bbc .LASF1911
C:\Users\SOLDER~1\AppData\Local\Temp\cc2EfhU3.s:27490  .debug_str:000000000002579a .LASF1912
C:\Users\SOLDER~1\AppData\Local\Temp\cc2EfhU3.s:28256  .debug_str:0000000000028a8e .LASF1913
C:\Users\SOLDER~1\AppData\Local\Temp\cc2EfhU3.s:23810  .debug_str:000000000001685e .LASF1914
C:\Users\SOLDER~1\AppData\Local\Temp\cc2EfhU3.s:29008  .debug_str:000000000002bb7e .LASF1915
C:\Users\SOLDER~1\AppData\Local\Temp\cc2EfhU3.s:19702  .debug_str:0000000000005b0f .LASF1916
C:\Users\SOLDER~1\AppData\Local\Temp\cc2EfhU3.s:26140  .debug_str:0000000000020002 .LASF1917
C:\Users\SOLDER~1\AppData\Local\Temp\cc2EfhU3.s:24732  .debug_str:000000000001a3ba .LASF1918
C:\Users\SOLDER~1\AppData\Local\Temp\cc2EfhU3.s:24056  .debug_str:000000000001783f .LASF1919
C:\Users\SOLDER~1\AppData\Local\Temp\cc2EfhU3.s:18554  .debug_str:000000000000113e .LASF1920
C:\Users\SOLDER~1\AppData\Local\Temp\cc2EfhU3.s:24640  .debug_str:0000000000019dda .LASF1921
C:\Users\SOLDER~1\AppData\Local\Temp\cc2EfhU3.s:19306  .debug_str:0000000000004212 .LASF1922
C:\Users\SOLDER~1\AppData\Local\Temp\cc2EfhU3.s:19272  .debug_str:0000000000003fd4 .LASF1923
C:\Users\SOLDER~1\AppData\Local\Temp\cc2EfhU3.s:26928  .debug_str:000000000002331f .LASF1924
C:\Users\SOLDER~1\AppData\Local\Temp\cc2EfhU3.s:26958  .debug_str:000000000002351e .LASF1925
C:\Users\SOLDER~1\AppData\Local\Temp\cc2EfhU3.s:23660  .debug_str:0000000000015f02 .LASF1926
C:\Users\SOLDER~1\AppData\Local\Temp\cc2EfhU3.s:21894  .debug_str:000000000000eb12 .LASF1927
C:\Users\SOLDER~1\AppData\Local\Temp\cc2EfhU3.s:28032  .debug_str:0000000000027c07 .LASF1928
C:\Users\SOLDER~1\AppData\Local\Temp\cc2EfhU3.s:28222  .debug_str:0000000000028890 .LASF1929
C:\Users\SOLDER~1\AppData\Local\Temp\cc2EfhU3.s:21206  .debug_str:000000000000bd76 .LASF1930
C:\Users\SOLDER~1\AppData\Local\Temp\cc2EfhU3.s:20292  .debug_str:00000000000081d9 .LASF1931
C:\Users\SOLDER~1\AppData\Local\Temp\cc2EfhU3.s:28820  .debug_str:000000000002af8a .LASF1932
C:\Users\SOLDER~1\AppData\Local\Temp\cc2EfhU3.s:21656  .debug_str:000000000000db72 .LASF1933
C:\Users\SOLDER~1\AppData\Local\Temp\cc2EfhU3.s:27370  .debug_str:0000000000024fc7 .LASF1934
C:\Users\SOLDER~1\AppData\Local\Temp\cc2EfhU3.s:18304  .debug_str:0000000000000023 .LASF1935
C:\Users\SOLDER~1\AppData\Local\Temp\cc2EfhU3.s:20708  .debug_str:0000000000009cf1 .LASF1936
C:\Users\SOLDER~1\AppData\Local\Temp\cc2EfhU3.s:22298  .debug_str:0000000000010588 .LASF1937
C:\Users\SOLDER~1\AppData\Local\Temp\cc2EfhU3.s:19558  .debug_str:00000000000051be .LASF1938
C:\Users\SOLDER~1\AppData\Local\Temp\cc2EfhU3.s:21502  .debug_str:000000000000d18f .LASF1939
C:\Users\SOLDER~1\AppData\Local\Temp\cc2EfhU3.s:26330  .debug_str:0000000000020c56 .LASF1940
C:\Users\SOLDER~1\AppData\Local\Temp\cc2EfhU3.s:18820  .debug_str:00000000000022c2 .LASF1941
C:\Users\SOLDER~1\AppData\Local\Temp\cc2EfhU3.s:24092  .debug_str:0000000000017a8a .LASF1942
C:\Users\SOLDER~1\AppData\Local\Temp\cc2EfhU3.s:26186  .debug_str:0000000000020314 .LASF1943
C:\Users\SOLDER~1\AppData\Local\Temp\cc2EfhU3.s:28210  .debug_str:00000000000287c3 .LASF1944
C:\Users\SOLDER~1\AppData\Local\Temp\cc2EfhU3.s:24482  .debug_str:0000000000019428 .LASF1945
GAS LISTING C:\Users\SOLDER~1\AppData\Local\Temp\cc2EfhU3.s 			page 45


C:\Users\SOLDER~1\AppData\Local\Temp\cc2EfhU3.s:20076  .debug_str:00000000000073dd .LASF1946
C:\Users\SOLDER~1\AppData\Local\Temp\cc2EfhU3.s:28376  .debug_str:0000000000029267 .LASF1947
C:\Users\SOLDER~1\AppData\Local\Temp\cc2EfhU3.s:27346  .debug_str:0000000000024e74 .LASF1948
C:\Users\SOLDER~1\AppData\Local\Temp\cc2EfhU3.s:25730  .debug_str:000000000001e52e .LASF1949
C:\Users\SOLDER~1\AppData\Local\Temp\cc2EfhU3.s:24126  .debug_str:0000000000017cd3 .LASF1950
C:\Users\SOLDER~1\AppData\Local\Temp\cc2EfhU3.s:21692  .debug_str:000000000000ddc6 .LASF1951
C:\Users\SOLDER~1\AppData\Local\Temp\cc2EfhU3.s:22696  .debug_str:0000000000011f07 .LASF1952
C:\Users\SOLDER~1\AppData\Local\Temp\cc2EfhU3.s:28782  .debug_str:000000000002acb0 .LASF1953
C:\Users\SOLDER~1\AppData\Local\Temp\cc2EfhU3.s:23602  .debug_str:0000000000015b2f .LASF1954
C:\Users\SOLDER~1\AppData\Local\Temp\cc2EfhU3.s:23560  .debug_str:0000000000015893 .LASF1955
C:\Users\SOLDER~1\AppData\Local\Temp\cc2EfhU3.s:24286  .debug_str:000000000001872b .LASF1956
C:\Users\SOLDER~1\AppData\Local\Temp\cc2EfhU3.s:27116  .debug_str:0000000000023f46 .LASF1957
C:\Users\SOLDER~1\AppData\Local\Temp\cc2EfhU3.s:27866  .debug_str:0000000000027124 .LASF1958
C:\Users\SOLDER~1\AppData\Local\Temp\cc2EfhU3.s:26042  .debug_str:000000000001f9e2 .LASF1959
C:\Users\SOLDER~1\AppData\Local\Temp\cc2EfhU3.s:28728  .debug_str:000000000002a95f .LASF1960
C:\Users\SOLDER~1\AppData\Local\Temp\cc2EfhU3.s:24536  .debug_str:0000000000019765 .LASF1961
C:\Users\SOLDER~1\AppData\Local\Temp\cc2EfhU3.s:27534  .debug_str:0000000000025ab2 .LASF1962
C:\Users\SOLDER~1\AppData\Local\Temp\cc2EfhU3.s:28026  .debug_str:0000000000027ba6 .LASF1963
C:\Users\SOLDER~1\AppData\Local\Temp\cc2EfhU3.s:24272  .debug_str:0000000000018644 .LASF1964
C:\Users\SOLDER~1\AppData\Local\Temp\cc2EfhU3.s:24660  .debug_str:0000000000019f37 .LASF1965
C:\Users\SOLDER~1\AppData\Local\Temp\cc2EfhU3.s:23710  .debug_str:000000000001621b .LASF1966
C:\Users\SOLDER~1\AppData\Local\Temp\cc2EfhU3.s:18964  .debug_str:0000000000002bf7 .LASF1967
C:\Users\SOLDER~1\AppData\Local\Temp\cc2EfhU3.s:28490  .debug_str:0000000000029993 .LASF1968
C:\Users\SOLDER~1\AppData\Local\Temp\cc2EfhU3.s:24588  .debug_str:0000000000019ab6 .LASF1969
C:\Users\SOLDER~1\AppData\Local\Temp\cc2EfhU3.s:27302  .debug_str:0000000000024ba0 .LASF1970
C:\Users\SOLDER~1\AppData\Local\Temp\cc2EfhU3.s:29284  .debug_str:000000000002cd7b .LASF1971
C:\Users\SOLDER~1\AppData\Local\Temp\cc2EfhU3.s:22638  .debug_str:0000000000011b56 .LASF1972
C:\Users\SOLDER~1\AppData\Local\Temp\cc2EfhU3.s:26550  .debug_str:0000000000021a71 .LASF1973
C:\Users\SOLDER~1\AppData\Local\Temp\cc2EfhU3.s:28582  .debug_str:0000000000029ff5 .LASF1974
C:\Users\SOLDER~1\AppData\Local\Temp\cc2EfhU3.s:22510  .debug_str:00000000000112f5 .LASF1975
C:\Users\SOLDER~1\AppData\Local\Temp\cc2EfhU3.s:20094  .debug_str:00000000000074fd .LASF1976
C:\Users\SOLDER~1\AppData\Local\Temp\cc2EfhU3.s:20732  .debug_str:0000000000009ea5 .LASF1977
C:\Users\SOLDER~1\AppData\Local\Temp\cc2EfhU3.s:18466  .debug_str:0000000000000b74 .LASF1978
C:\Users\SOLDER~1\AppData\Local\Temp\cc2EfhU3.s:24584  .debug_str:0000000000019a7f .LASF1979
C:\Users\SOLDER~1\AppData\Local\Temp\cc2EfhU3.s:23688  .debug_str:00000000000160bb .LASF1980
C:\Users\SOLDER~1\AppData\Local\Temp\cc2EfhU3.s:18732  .debug_str:0000000000001cea .LASF1981
C:\Users\SOLDER~1\AppData\Local\Temp\cc2EfhU3.s:20382  .debug_str:0000000000008796 .LASF1982
C:\Users\SOLDER~1\AppData\Local\Temp\cc2EfhU3.s:20944  .debug_str:000000000000acb9 .LASF1983
C:\Users\SOLDER~1\AppData\Local\Temp\cc2EfhU3.s:26904  .debug_str:000000000002317b .LASF1984
C:\Users\SOLDER~1\AppData\Local\Temp\cc2EfhU3.s:22626  .debug_str:0000000000011a82 .LASF1985
C:\Users\SOLDER~1\AppData\Local\Temp\cc2EfhU3.s:27806  .debug_str:0000000000026d30 .LASF1986
C:\Users\SOLDER~1\AppData\Local\Temp\cc2EfhU3.s:27764  .debug_str:0000000000026a6c .LASF1987
C:\Users\SOLDER~1\AppData\Local\Temp\cc2EfhU3.s:28514  .debug_str:0000000000029b5d .LASF1988
C:\Users\SOLDER~1\AppData\Local\Temp\cc2EfhU3.s:29296  .debug_str:000000000002ce6b .LASF1989
C:\Users\SOLDER~1\AppData\Local\Temp\cc2EfhU3.s:21256  .debug_str:000000000000c0f0 .LASF1990
C:\Users\SOLDER~1\AppData\Local\Temp\cc2EfhU3.s:18826  .debug_str:0000000000002324 .LASF1991
C:\Users\SOLDER~1\AppData\Local\Temp\cc2EfhU3.s:21490  .debug_str:000000000000d0cb .LASF1992
C:\Users\SOLDER~1\AppData\Local\Temp\cc2EfhU3.s:26526  .debug_str:0000000000021911 .LASF1993
C:\Users\SOLDER~1\AppData\Local\Temp\cc2EfhU3.s:25256  .debug_str:000000000001c625 .LASF1994
C:\Users\SOLDER~1\AppData\Local\Temp\cc2EfhU3.s:24360  .debug_str:0000000000018c36 .LASF1995
C:\Users\SOLDER~1\AppData\Local\Temp\cc2EfhU3.s:20524  .debug_str:0000000000009138 .LASF1996
C:\Users\SOLDER~1\AppData\Local\Temp\cc2EfhU3.s:18498  .debug_str:0000000000000dda .LASF1997
C:\Users\SOLDER~1\AppData\Local\Temp\cc2EfhU3.s:19880  .debug_str:00000000000066d8 .LASF1998
C:\Users\SOLDER~1\AppData\Local\Temp\cc2EfhU3.s:26692  .debug_str:000000000002236e .LASF1999
C:\Users\SOLDER~1\AppData\Local\Temp\cc2EfhU3.s:24776  .debug_str:000000000001a6be .LASF2000
C:\Users\SOLDER~1\AppData\Local\Temp\cc2EfhU3.s:26292  .debug_str:00000000000209ee .LASF2001
C:\Users\SOLDER~1\AppData\Local\Temp\cc2EfhU3.s:23552  .debug_str:0000000000015806 .LASF2002
GAS LISTING C:\Users\SOLDER~1\AppData\Local\Temp\cc2EfhU3.s 			page 46


C:\Users\SOLDER~1\AppData\Local\Temp\cc2EfhU3.s:25450  .debug_str:000000000001d35c .LASF2003
C:\Users\SOLDER~1\AppData\Local\Temp\cc2EfhU3.s:18916  .debug_str:000000000000293d .LASF2004
C:\Users\SOLDER~1\AppData\Local\Temp\cc2EfhU3.s:22876  .debug_str:0000000000012a44 .LASF2005
C:\Users\SOLDER~1\AppData\Local\Temp\cc2EfhU3.s:18532  .debug_str:0000000000000fda .LASF2006
C:\Users\SOLDER~1\AppData\Local\Temp\cc2EfhU3.s:18774  .debug_str:0000000000001fa5 .LASF2007
C:\Users\SOLDER~1\AppData\Local\Temp\cc2EfhU3.s:27830  .debug_str:0000000000026eb6 .LASF2008
C:\Users\SOLDER~1\AppData\Local\Temp\cc2EfhU3.s:28520  .debug_str:0000000000029bc8 .LASF2009
C:\Users\SOLDER~1\AppData\Local\Temp\cc2EfhU3.s:21404  .debug_str:000000000000cb26 .LASF2010
C:\Users\SOLDER~1\AppData\Local\Temp\cc2EfhU3.s:20838  .debug_str:000000000000a5d7 .LASF2011
C:\Users\SOLDER~1\AppData\Local\Temp\cc2EfhU3.s:19944  .debug_str:0000000000006b02 .LASF2012
C:\Users\SOLDER~1\AppData\Local\Temp\cc2EfhU3.s:20212  .debug_str:0000000000007c5c .LASF2013
C:\Users\SOLDER~1\AppData\Local\Temp\cc2EfhU3.s:28122  .debug_str:00000000000281f2 .LASF2014
C:\Users\SOLDER~1\AppData\Local\Temp\cc2EfhU3.s:25184  .debug_str:000000000001c13b .LASF2015
C:\Users\SOLDER~1\AppData\Local\Temp\cc2EfhU3.s:19710  .debug_str:0000000000005ba1 .LASF2016
C:\Users\SOLDER~1\AppData\Local\Temp\cc2EfhU3.s:25796  .debug_str:000000000001e9b5 .LASF2017
C:\Users\SOLDER~1\AppData\Local\Temp\cc2EfhU3.s:20604  .debug_str:000000000000965b .LASF2018
C:\Users\SOLDER~1\AppData\Local\Temp\cc2EfhU3.s:20476  .debug_str:0000000000008dd7 .LASF2019
C:\Users\SOLDER~1\AppData\Local\Temp\cc2EfhU3.s:21178  .debug_str:000000000000bbdb .LASF2020
C:\Users\SOLDER~1\AppData\Local\Temp\cc2EfhU3.s:28184  .debug_str:000000000002860e .LASF2021
C:\Users\SOLDER~1\AppData\Local\Temp\cc2EfhU3.s:24820  .debug_str:000000000001a976 .LASF2022
C:\Users\SOLDER~1\AppData\Local\Temp\cc2EfhU3.s:23110  .debug_str:0000000000013a88 .LASF2023
C:\Users\SOLDER~1\AppData\Local\Temp\cc2EfhU3.s:29152  .debug_str:000000000002c4f5 .LASF2024
C:\Users\SOLDER~1\AppData\Local\Temp\cc2EfhU3.s:29552  .debug_str:000000000002debc .LASF2025
C:\Users\SOLDER~1\AppData\Local\Temp\cc2EfhU3.s:22020  .debug_str:000000000000f2fe .LASF2026
C:\Users\SOLDER~1\AppData\Local\Temp\cc2EfhU3.s:20618  .debug_str:0000000000009740 .LASF2027
C:\Users\SOLDER~1\AppData\Local\Temp\cc2EfhU3.s:28272  .debug_str:0000000000028b93 .LASF2028
C:\Users\SOLDER~1\AppData\Local\Temp\cc2EfhU3.s:26210  .debug_str:000000000002049d .LASF2029
C:\Users\SOLDER~1\AppData\Local\Temp\cc2EfhU3.s:27610  .debug_str:0000000000026003 .LASF2030
C:\Users\SOLDER~1\AppData\Local\Temp\cc2EfhU3.s:23038  .debug_str:0000000000013546 .LASF2031
C:\Users\SOLDER~1\AppData\Local\Temp\cc2EfhU3.s:20954  .debug_str:000000000000ad86 .LASF2032
C:\Users\SOLDER~1\AppData\Local\Temp\cc2EfhU3.s:22612  .debug_str:00000000000119a1 .LASF2033
C:\Users\SOLDER~1\AppData\Local\Temp\cc2EfhU3.s:19812  .debug_str:0000000000006257 .LASF2034
C:\Users\SOLDER~1\AppData\Local\Temp\cc2EfhU3.s:21748  .debug_str:000000000000e1cb .LASF2035
C:\Users\SOLDER~1\AppData\Local\Temp\cc2EfhU3.s:29192  .debug_str:000000000002c77a .LASF2036
C:\Users\SOLDER~1\AppData\Local\Temp\cc2EfhU3.s:28650  .debug_str:000000000002a482 .LASF2037
C:\Users\SOLDER~1\AppData\Local\Temp\cc2EfhU3.s:20584  .debug_str:000000000000952e .LASF2038
C:\Users\SOLDER~1\AppData\Local\Temp\cc2EfhU3.s:26510  .debug_str:00000000000217f9 .LASF2039
C:\Users\SOLDER~1\AppData\Local\Temp\cc2EfhU3.s:24082  .debug_str:00000000000179d0 .LASF2040
C:\Users\SOLDER~1\AppData\Local\Temp\cc2EfhU3.s:24800  .debug_str:000000000001a82a .LASF2041
C:\Users\SOLDER~1\AppData\Local\Temp\cc2EfhU3.s:26630  .debug_str:0000000000021f91 .LASF2042
C:\Users\SOLDER~1\AppData\Local\Temp\cc2EfhU3.s:28608  .debug_str:000000000002a1c4 .LASF2043
C:\Users\SOLDER~1\AppData\Local\Temp\cc2EfhU3.s:27684  .debug_str:0000000000026501 .LASF2044
C:\Users\SOLDER~1\AppData\Local\Temp\cc2EfhU3.s:22774  .debug_str:00000000000123c2 .LASF2045
C:\Users\SOLDER~1\AppData\Local\Temp\cc2EfhU3.s:24438  .debug_str:0000000000019125 .LASF2046
C:\Users\SOLDER~1\AppData\Local\Temp\cc2EfhU3.s:20554  .debug_str:0000000000009329 .LASF2047
C:\Users\SOLDER~1\AppData\Local\Temp\cc2EfhU3.s:26516  .debug_str:0000000000021865 .LASF2048
C:\Users\SOLDER~1\AppData\Local\Temp\cc2EfhU3.s:21148  .debug_str:000000000000b9ca .LASF2049
C:\Users\SOLDER~1\AppData\Local\Temp\cc2EfhU3.s:27404  .debug_str:000000000002520a .LASF2050
C:\Users\SOLDER~1\AppData\Local\Temp\cc2EfhU3.s:27366  .debug_str:0000000000024f88 .LASF2051
C:\Users\SOLDER~1\AppData\Local\Temp\cc2EfhU3.s:28010  .debug_str:0000000000027a73 .LASF2052
C:\Users\SOLDER~1\AppData\Local\Temp\cc2EfhU3.s:23568  .debug_str:0000000000015910 .LASF2053
C:\Users\SOLDER~1\AppData\Local\Temp\cc2EfhU3.s:29280  .debug_str:000000000002cd34 .LASF2054
C:\Users\SOLDER~1\AppData\Local\Temp\cc2EfhU3.s:18452  .debug_str:0000000000000a80 .LASF2055
C:\Users\SOLDER~1\AppData\Local\Temp\cc2EfhU3.s:21098  .debug_str:000000000000b68d .LASF2056
C:\Users\SOLDER~1\AppData\Local\Temp\cc2EfhU3.s:27388  .debug_str:000000000002510d .LASF2057
C:\Users\SOLDER~1\AppData\Local\Temp\cc2EfhU3.s:28452  .debug_str:0000000000029722 .LASF2058
C:\Users\SOLDER~1\AppData\Local\Temp\cc2EfhU3.s:19458  .debug_str:0000000000004ba0 .LASF2059
GAS LISTING C:\Users\SOLDER~1\AppData\Local\Temp\cc2EfhU3.s 			page 47


C:\Users\SOLDER~1\AppData\Local\Temp\cc2EfhU3.s:27104  .debug_str:0000000000023e6c .LASF2060
C:\Users\SOLDER~1\AppData\Local\Temp\cc2EfhU3.s:29396  .debug_str:000000000002d4ca .LASF2061
C:\Users\SOLDER~1\AppData\Local\Temp\cc2EfhU3.s:26464  .debug_str:0000000000021507 .LASF2062
C:\Users\SOLDER~1\AppData\Local\Temp\cc2EfhU3.s:21868  .debug_str:000000000000e98d .LASF2063
C:\Users\SOLDER~1\AppData\Local\Temp\cc2EfhU3.s:29112  .debug_str:000000000002c280 .LASF2064
C:\Users\SOLDER~1\AppData\Local\Temp\cc2EfhU3.s:21446  .debug_str:000000000000cdec .LASF2065
C:\Users\SOLDER~1\AppData\Local\Temp\cc2EfhU3.s:18676  .debug_str:00000000000018ec .LASF2066
C:\Users\SOLDER~1\AppData\Local\Temp\cc2EfhU3.s:20614  .debug_str:00000000000096f5 .LASF2067
C:\Users\SOLDER~1\AppData\Local\Temp\cc2EfhU3.s:19928  .debug_str:0000000000006a08 .LASF2068
C:\Users\SOLDER~1\AppData\Local\Temp\cc2EfhU3.s:29508  .debug_str:000000000002dc13 .LASF2069
C:\Users\SOLDER~1\AppData\Local\Temp\cc2EfhU3.s:20014  .debug_str:0000000000006fc7 .LASF2070
C:\Users\SOLDER~1\AppData\Local\Temp\cc2EfhU3.s:25378  .debug_str:000000000001ce4e .LASF2071
C:\Users\SOLDER~1\AppData\Local\Temp\cc2EfhU3.s:22902  .debug_str:0000000000012c3d .LASF2072
C:\Users\SOLDER~1\AppData\Local\Temp\cc2EfhU3.s:27674  .debug_str:000000000002645b .LASF2073
C:\Users\SOLDER~1\AppData\Local\Temp\cc2EfhU3.s:19154  .debug_str:0000000000003848 .LASF2074
C:\Users\SOLDER~1\AppData\Local\Temp\cc2EfhU3.s:27444  .debug_str:000000000002547a .LASF2075
C:\Users\SOLDER~1\AppData\Local\Temp\cc2EfhU3.s:26530  .debug_str:000000000002195b .LASF2076
C:\Users\SOLDER~1\AppData\Local\Temp\cc2EfhU3.s:21620  .debug_str:000000000000d926 .LASF2077
C:\Users\SOLDER~1\AppData\Local\Temp\cc2EfhU3.s:23300  .debug_str:0000000000014769 .LASF2078
C:\Users\SOLDER~1\AppData\Local\Temp\cc2EfhU3.s:24810  .debug_str:000000000001a8df .LASF2079
C:\Users\SOLDER~1\AppData\Local\Temp\cc2EfhU3.s:19298  .debug_str:0000000000004192 .LASF2080
C:\Users\SOLDER~1\AppData\Local\Temp\cc2EfhU3.s:25392  .debug_str:000000000001cf42 .LASF2081
C:\Users\SOLDER~1\AppData\Local\Temp\cc2EfhU3.s:24268  .debug_str:000000000001860d .LASF2082
C:\Users\SOLDER~1\AppData\Local\Temp\cc2EfhU3.s:20088  .debug_str:0000000000007498 .LASF2083
C:\Users\SOLDER~1\AppData\Local\Temp\cc2EfhU3.s:20770  .debug_str:000000000000a139 .LASF2084
C:\Users\SOLDER~1\AppData\Local\Temp\cc2EfhU3.s:23502  .debug_str:00000000000154e5 .LASF2085
C:\Users\SOLDER~1\AppData\Local\Temp\cc2EfhU3.s:22866  .debug_str:00000000000129ad .LASF2086
C:\Users\SOLDER~1\AppData\Local\Temp\cc2EfhU3.s:25574  .debug_str:000000000001dae6 .LASF2087
C:\Users\SOLDER~1\AppData\Local\Temp\cc2EfhU3.s:25338  .debug_str:000000000001cbd8 .LASF2088
C:\Users\SOLDER~1\AppData\Local\Temp\cc2EfhU3.s:23736  .debug_str:00000000000163b2 .LASF2089
C:\Users\SOLDER~1\AppData\Local\Temp\cc2EfhU3.s:28164  .debug_str:0000000000028485 .LASF2090
C:\Users\SOLDER~1\AppData\Local\Temp\cc2EfhU3.s:25198  .debug_str:000000000001c24d .LASF2091
C:\Users\SOLDER~1\AppData\Local\Temp\cc2EfhU3.s:23434  .debug_str:000000000001504d .LASF2092
C:\Users\SOLDER~1\AppData\Local\Temp\cc2EfhU3.s:21274  .debug_str:000000000000c21c .LASF2093
C:\Users\SOLDER~1\AppData\Local\Temp\cc2EfhU3.s:22780  .debug_str:000000000001243b .LASF2094
C:\Users\SOLDER~1\AppData\Local\Temp\cc2EfhU3.s:29654  .debug_str:000000000002e557 .LASF2095
C:\Users\SOLDER~1\AppData\Local\Temp\cc2EfhU3.s:27548  .debug_str:0000000000025bad .LASF2096
C:\Users\SOLDER~1\AppData\Local\Temp\cc2EfhU3.s:24430  .debug_str:00000000000190b4 .LASF2097
C:\Users\SOLDER~1\AppData\Local\Temp\cc2EfhU3.s:26402  .debug_str:000000000002113b .LASF2098
C:\Users\SOLDER~1\AppData\Local\Temp\cc2EfhU3.s:28378  .debug_str:000000000002928c .LASF2099
C:\Users\SOLDER~1\AppData\Local\Temp\cc2EfhU3.s:22910  .debug_str:0000000000012cbc .LASF2100
C:\Users\SOLDER~1\AppData\Local\Temp\cc2EfhU3.s:25760  .debug_str:000000000001e74a .LASF2101
C:\Users\SOLDER~1\AppData\Local\Temp\cc2EfhU3.s:27654  .debug_str:0000000000026324 .LASF2102
C:\Users\SOLDER~1\AppData\Local\Temp\cc2EfhU3.s:21668  .debug_str:000000000000dc25 .LASF2103
C:\Users\SOLDER~1\AppData\Local\Temp\cc2EfhU3.s:19174  .debug_str:000000000000398f .LASF2104
C:\Users\SOLDER~1\AppData\Local\Temp\cc2EfhU3.s:19926  .debug_str:00000000000069e2 .LASF2105
C:\Users\SOLDER~1\AppData\Local\Temp\cc2EfhU3.s:26888  .debug_str:0000000000023050 .LASF2106
C:\Users\SOLDER~1\AppData\Local\Temp\cc2EfhU3.s:23784  .debug_str:0000000000016682 .LASF2107
C:\Users\SOLDER~1\AppData\Local\Temp\cc2EfhU3.s:22850  .debug_str:00000000000128a5 .LASF2108
C:\Users\SOLDER~1\AppData\Local\Temp\cc2EfhU3.s:29402  .debug_str:000000000002d533 .LASF2109
C:\Users\SOLDER~1\AppData\Local\Temp\cc2EfhU3.s:28218  .debug_str:000000000002884f .LASF2110
C:\Users\SOLDER~1\AppData\Local\Temp\cc2EfhU3.s:29062  .debug_str:000000000002bf5e .LASF2111
C:\Users\SOLDER~1\AppData\Local\Temp\cc2EfhU3.s:23490  .debug_str:0000000000015418 .LASF2112
C:\Users\SOLDER~1\AppData\Local\Temp\cc2EfhU3.s:29590  .debug_str:000000000002e124 .LASF2113
C:\Users\SOLDER~1\AppData\Local\Temp\cc2EfhU3.s:27664  .debug_str:00000000000263a8 .LASF2114
C:\Users\SOLDER~1\AppData\Local\Temp\cc2EfhU3.s:24358  .debug_str:0000000000018c11 .LASF2115
C:\Users\SOLDER~1\AppData\Local\Temp\cc2EfhU3.s:25050  .debug_str:000000000001b833 .LASF2116
GAS LISTING C:\Users\SOLDER~1\AppData\Local\Temp\cc2EfhU3.s 			page 48


C:\Users\SOLDER~1\AppData\Local\Temp\cc2EfhU3.s:20570  .debug_str:0000000000009443 .LASF2117
C:\Users\SOLDER~1\AppData\Local\Temp\cc2EfhU3.s:28686  .debug_str:000000000002a698 .LASF2118
C:\Users\SOLDER~1\AppData\Local\Temp\cc2EfhU3.s:26810  .debug_str:0000000000022b6d .LASF2119
C:\Users\SOLDER~1\AppData\Local\Temp\cc2EfhU3.s:29536  .debug_str:000000000002ddcc .LASF2120
C:\Users\SOLDER~1\AppData\Local\Temp\cc2EfhU3.s:19988  .debug_str:0000000000006de2 .LASF2121
C:\Users\SOLDER~1\AppData\Local\Temp\cc2EfhU3.s:24474  .debug_str:00000000000193ae .LASF2122
C:\Users\SOLDER~1\AppData\Local\Temp\cc2EfhU3.s:23530  .debug_str:0000000000015699 .LASF2123
C:\Users\SOLDER~1\AppData\Local\Temp\cc2EfhU3.s:22224  .debug_str:00000000000100b6 .LASF2124
C:\Users\SOLDER~1\AppData\Local\Temp\cc2EfhU3.s:29058  .debug_str:000000000002bf00 .LASF2125
C:\Users\SOLDER~1\AppData\Local\Temp\cc2EfhU3.s:19062  .debug_str:000000000000325d .LASF2126
C:\Users\SOLDER~1\AppData\Local\Temp\cc2EfhU3.s:25918  .debug_str:000000000001f1ca .LASF2127
C:\Users\SOLDER~1\AppData\Local\Temp\cc2EfhU3.s:23894  .debug_str:0000000000016d78 .LASF2128
C:\Users\SOLDER~1\AppData\Local\Temp\cc2EfhU3.s:26434  .debug_str:000000000002131f .LASF2129
C:\Users\SOLDER~1\AppData\Local\Temp\cc2EfhU3.s:22718  .debug_str:0000000000012057 .LASF2130
C:\Users\SOLDER~1\AppData\Local\Temp\cc2EfhU3.s:21002  .debug_str:000000000000b071 .LASF2131
C:\Users\SOLDER~1\AppData\Local\Temp\cc2EfhU3.s:29604  .debug_str:000000000002e1fe .LASF2132
C:\Users\SOLDER~1\AppData\Local\Temp\cc2EfhU3.s:22058  .debug_str:000000000000f590 .LASF2133
C:\Users\SOLDER~1\AppData\Local\Temp\cc2EfhU3.s:24008  .debug_str:0000000000017529 .LASF2134
C:\Users\SOLDER~1\AppData\Local\Temp\cc2EfhU3.s:29456  .debug_str:000000000002d8a2 .LASF2135
C:\Users\SOLDER~1\AppData\Local\Temp\cc2EfhU3.s:23352  .debug_str:0000000000014b11 .LASF2136
C:\Users\SOLDER~1\AppData\Local\Temp\cc2EfhU3.s:27666  .debug_str:00000000000263cd .LASF2137
C:\Users\SOLDER~1\AppData\Local\Temp\cc2EfhU3.s:23226  .debug_str:0000000000014293 .LASF2138
C:\Users\SOLDER~1\AppData\Local\Temp\cc2EfhU3.s:20044  .debug_str:00000000000071bc .LASF2139
C:\Users\SOLDER~1\AppData\Local\Temp\cc2EfhU3.s:19124  .debug_str:0000000000003657 .LASF2140
C:\Users\SOLDER~1\AppData\Local\Temp\cc2EfhU3.s:25862  .debug_str:000000000001ede3 .LASF2141
C:\Users\SOLDER~1\AppData\Local\Temp\cc2EfhU3.s:27188  .debug_str:0000000000024428 .LASF2142
C:\Users\SOLDER~1\AppData\Local\Temp\cc2EfhU3.s:21720  .debug_str:000000000000dfd0 .LASF2143
C:\Users\SOLDER~1\AppData\Local\Temp\cc2EfhU3.s:27708  .debug_str:00000000000266b7 .LASF2144
C:\Users\SOLDER~1\AppData\Local\Temp\cc2EfhU3.s:22366  .debug_str:00000000000109ee .LASF2145
C:\Users\SOLDER~1\AppData\Local\Temp\cc2EfhU3.s:28616  .debug_str:000000000002a246 .LASF2146
C:\Users\SOLDER~1\AppData\Local\Temp\cc2EfhU3.s:28578  .debug_str:0000000000029fb6 .LASF2147
C:\Users\SOLDER~1\AppData\Local\Temp\cc2EfhU3.s:29302  .debug_str:000000000002cee7 .LASF2148
C:\Users\SOLDER~1\AppData\Local\Temp\cc2EfhU3.s:25772  .debug_str:000000000001e825 .LASF2149
C:\Users\SOLDER~1\AppData\Local\Temp\cc2EfhU3.s:21336  .debug_str:000000000000c679 .LASF2150
C:\Users\SOLDER~1\AppData\Local\Temp\cc2EfhU3.s:19606  .debug_str:0000000000005498 .LASF2151
C:\Users\SOLDER~1\AppData\Local\Temp\cc2EfhU3.s:23442  .debug_str:00000000000150d7 .LASF2152
C:\Users\SOLDER~1\AppData\Local\Temp\cc2EfhU3.s:27726  .debug_str:00000000000267ea .LASF2153
C:\Users\SOLDER~1\AppData\Local\Temp\cc2EfhU3.s:20722  .debug_str:0000000000009ded .LASF2154
C:\Users\SOLDER~1\AppData\Local\Temp\cc2EfhU3.s:19798  .debug_str:000000000000616f .LASF2155
C:\Users\SOLDER~1\AppData\Local\Temp\cc2EfhU3.s:27342  .debug_str:0000000000024e29 .LASF2156
C:\Users\SOLDER~1\AppData\Local\Temp\cc2EfhU3.s:25322  .debug_str:000000000001caa8 .LASF2157
C:\Users\SOLDER~1\AppData\Local\Temp\cc2EfhU3.s:26788  .debug_str:00000000000229f2 .LASF2158
C:\Users\SOLDER~1\AppData\Local\Temp\cc2EfhU3.s:22222  .debug_str:0000000000010090 .LASF2159
C:\Users\SOLDER~1\AppData\Local\Temp\cc2EfhU3.s:20158  .debug_str:00000000000078c1 .LASF2160
C:\Users\SOLDER~1\AppData\Local\Temp\cc2EfhU3.s:29448  .debug_str:000000000002d823 .LASF2161
C:\Users\SOLDER~1\AppData\Local\Temp\cc2EfhU3.s:18992  .debug_str:0000000000002ddb .LASF2162
C:\Users\SOLDER~1\AppData\Local\Temp\cc2EfhU3.s:20938  .debug_str:000000000000ac4a .LASF2163
C:\Users\SOLDER~1\AppData\Local\Temp\cc2EfhU3.s:25864  .debug_str:000000000001ee09 .LASF2164
C:\Users\SOLDER~1\AppData\Local\Temp\cc2EfhU3.s:18360  .debug_str:00000000000003cd .LASF2165
C:\Users\SOLDER~1\AppData\Local\Temp\cc2EfhU3.s:20260  .debug_str:0000000000007fab .LASF2166
C:\Users\SOLDER~1\AppData\Local\Temp\cc2EfhU3.s:25630  .debug_str:000000000001deab .LASF2167
C:\Users\SOLDER~1\AppData\Local\Temp\cc2EfhU3.s:23246  .debug_str:00000000000143ee .LASF2168
C:\Users\SOLDER~1\AppData\Local\Temp\cc2EfhU3.s:24022  .debug_str:0000000000017620 .LASF2169
C:\Users\SOLDER~1\AppData\Local\Temp\cc2EfhU3.s:19478  .debug_str:0000000000004ceb .LASF2170
C:\Users\SOLDER~1\AppData\Local\Temp\cc2EfhU3.s:27772  .debug_str:0000000000026af1 .LASF2171
C:\Users\SOLDER~1\AppData\Local\Temp\cc2EfhU3.s:26856  .debug_str:0000000000022e37 .LASF2172
C:\Users\SOLDER~1\AppData\Local\Temp\cc2EfhU3.s:21862  .debug_str:000000000000e92b .LASF2173
GAS LISTING C:\Users\SOLDER~1\AppData\Local\Temp\cc2EfhU3.s 			page 49


C:\Users\SOLDER~1\AppData\Local\Temp\cc2EfhU3.s:23524  .debug_str:0000000000015647 .LASF2174
C:\Users\SOLDER~1\AppData\Local\Temp\cc2EfhU3.s:24896  .debug_str:000000000001aea8 .LASF2175
C:\Users\SOLDER~1\AppData\Local\Temp\cc2EfhU3.s:24160  .debug_str:0000000000017f40 .LASF2176
C:\Users\SOLDER~1\AppData\Local\Temp\cc2EfhU3.s:23522  .debug_str:000000000001562f .LASF2177
C:\Users\SOLDER~1\AppData\Local\Temp\cc2EfhU3.s:25170  .debug_str:000000000001c05e .LASF2178
C:\Users\SOLDER~1\AppData\Local\Temp\cc2EfhU3.s:22208  .debug_str:000000000000ffd4 .LASF2179
C:\Users\SOLDER~1\AppData\Local\Temp\cc2EfhU3.s:24278  .debug_str:00000000000186a0 .LASF2180
C:\Users\SOLDER~1\AppData\Local\Temp\cc2EfhU3.s:20634  .debug_str:0000000000009857 .LASF2181
C:\Users\SOLDER~1\AppData\Local\Temp\cc2EfhU3.s:22458  .debug_str:0000000000010fb2 .LASF2182
C:\Users\SOLDER~1\AppData\Local\Temp\cc2EfhU3.s:18870  .debug_str:000000000000260e .LASF2183
C:\Users\SOLDER~1\AppData\Local\Temp\cc2EfhU3.s:27642  .debug_str:000000000002625b .LASF2184
C:\Users\SOLDER~1\AppData\Local\Temp\cc2EfhU3.s:23148  .debug_str:0000000000013d3d .LASF2185
C:\Users\SOLDER~1\AppData\Local\Temp\cc2EfhU3.s:21262  .debug_str:000000000000c13c .LASF2186
C:\Users\SOLDER~1\AppData\Local\Temp\cc2EfhU3.s:20582  .debug_str:000000000000951b .LASF2187
C:\Users\SOLDER~1\AppData\Local\Temp\cc2EfhU3.s:26352  .debug_str:0000000000020dc8 .LASF2188
C:\Users\SOLDER~1\AppData\Local\Temp\cc2EfhU3.s:26126  .debug_str:000000000001ff2b .LASF2189
C:\Users\SOLDER~1\AppData\Local\Temp\cc2EfhU3.s:23084  .debug_str:000000000001387e .LASF2190
C:\Users\SOLDER~1\AppData\Local\Temp\cc2EfhU3.s:21876  .debug_str:000000000000ea06 .LASF2191
C:\Users\SOLDER~1\AppData\Local\Temp\cc2EfhU3.s:23030  .debug_str:00000000000134b6 .LASF2192
C:\Users\SOLDER~1\AppData\Local\Temp\cc2EfhU3.s:27406  .debug_str:000000000002522f .LASF2193
C:\Users\SOLDER~1\AppData\Local\Temp\cc2EfhU3.s:28718  .debug_str:000000000002a8b6 .LASF2194
C:\Users\SOLDER~1\AppData\Local\Temp\cc2EfhU3.s:26066  .debug_str:000000000001fb67 .LASF2195
C:\Users\SOLDER~1\AppData\Local\Temp\cc2EfhU3.s:24922  .debug_str:000000000001b035 .LASF2196
C:\Users\SOLDER~1\AppData\Local\Temp\cc2EfhU3.s:21800  .debug_str:000000000000e509 .LASF2197
C:\Users\SOLDER~1\AppData\Local\Temp\cc2EfhU3.s:25268  .debug_str:000000000001c701 .LASF2198
C:\Users\SOLDER~1\AppData\Local\Temp\cc2EfhU3.s:27358  .debug_str:0000000000024f23 .LASF2199
C:\Users\SOLDER~1\AppData\Local\Temp\cc2EfhU3.s:21332  .debug_str:000000000000c638 .LASF2200
C:\Users\SOLDER~1\AppData\Local\Temp\cc2EfhU3.s:19104  .debug_str:0000000000003529 .LASF2201
C:\Users\SOLDER~1\AppData\Local\Temp\cc2EfhU3.s:19492  .debug_str:0000000000004dbd .LASF2202
C:\Users\SOLDER~1\AppData\Local\Temp\cc2EfhU3.s:28312  .debug_str:0000000000028e16 .LASF2203
C:\Users\SOLDER~1\AppData\Local\Temp\cc2EfhU3.s:29400  .debug_str:000000000002d512 .LASF2204
C:\Users\SOLDER~1\AppData\Local\Temp\cc2EfhU3.s:23626  .debug_str:0000000000015cb4 .LASF2205
C:\Users\SOLDER~1\AppData\Local\Temp\cc2EfhU3.s:18854  .debug_str:000000000000250a .LASF2206
C:\Users\SOLDER~1\AppData\Local\Temp\cc2EfhU3.s:18816  .debug_str:0000000000002288 .LASF2207
C:\Users\SOLDER~1\AppData\Local\Temp\cc2EfhU3.s:25752  .debug_str:000000000001e6c1 .LASF2208
C:\Users\SOLDER~1\AppData\Local\Temp\cc2EfhU3.s:24876  .debug_str:000000000001ad86 .LASF2209
C:\Users\SOLDER~1\AppData\Local\Temp\cc2EfhU3.s:22362  .debug_str:00000000000109a9 .LASF2210
C:\Users\SOLDER~1\AppData\Local\Temp\cc2EfhU3.s:22610  .debug_str:000000000001198d .LASF2211
C:\Users\SOLDER~1\AppData\Local\Temp\cc2EfhU3.s:23940  .debug_str:000000000001709c .LASF2212
C:\Users\SOLDER~1\AppData\Local\Temp\cc2EfhU3.s:29040  .debug_str:000000000002bdd7 .LASF2213
C:\Users\SOLDER~1\AppData\Local\Temp\cc2EfhU3.s:26484  .debug_str:0000000000021649 .LASF2214
C:\Users\SOLDER~1\AppData\Local\Temp\cc2EfhU3.s:24604  .debug_str:0000000000019bc2 .LASF2215
C:\Users\SOLDER~1\AppData\Local\Temp\cc2EfhU3.s:23818  .debug_str:00000000000168e1 .LASF2216
C:\Users\SOLDER~1\AppData\Local\Temp\cc2EfhU3.s:19066  .debug_str:00000000000032a9 .LASF2217
C:\Users\SOLDER~1\AppData\Local\Temp\cc2EfhU3.s:23754  .debug_str:00000000000164d7 .LASF2218
C:\Users\SOLDER~1\AppData\Local\Temp\cc2EfhU3.s:28268  .debug_str:0000000000028b69 .LASF2219
C:\Users\SOLDER~1\AppData\Local\Temp\cc2EfhU3.s:20908  .debug_str:000000000000aa7a .LASF2220
C:\Users\SOLDER~1\AppData\Local\Temp\cc2EfhU3.s:26040  .debug_str:000000000001f9cf .LASF2221
C:\Users\SOLDER~1\AppData\Local\Temp\cc2EfhU3.s:27906  .debug_str:00000000000273d3 .LASF2222
C:\Users\SOLDER~1\AppData\Local\Temp\cc2EfhU3.s:19882  .debug_str:00000000000066fd .LASF2223
C:\Users\SOLDER~1\AppData\Local\Temp\cc2EfhU3.s:20608  .debug_str:0000000000009697 .LASF2224
C:\Users\SOLDER~1\AppData\Local\Temp\cc2EfhU3.s:22766  .debug_str:000000000001234b .LASF2225
C:\Users\SOLDER~1\AppData\Local\Temp\cc2EfhU3.s:23192  .debug_str:000000000001400c .LASF2226
C:\Users\SOLDER~1\AppData\Local\Temp\cc2EfhU3.s:25292  .debug_str:000000000001c8a1 .LASF2227
C:\Users\SOLDER~1\AppData\Local\Temp\cc2EfhU3.s:29190  .debug_str:000000000002c759 .LASF2228
C:\Users\SOLDER~1\AppData\Local\Temp\cc2EfhU3.s:20342  .debug_str:000000000000850f .LASF2229
C:\Users\SOLDER~1\AppData\Local\Temp\cc2EfhU3.s:26364  .debug_str:0000000000020ea5 .LASF2230
GAS LISTING C:\Users\SOLDER~1\AppData\Local\Temp\cc2EfhU3.s 			page 50


C:\Users\SOLDER~1\AppData\Local\Temp\cc2EfhU3.s:27242  .debug_str:00000000000247ad .LASF2231
C:\Users\SOLDER~1\AppData\Local\Temp\cc2EfhU3.s:23238  .debug_str:0000000000014353 .LASF2232
C:\Users\SOLDER~1\AppData\Local\Temp\cc2EfhU3.s:19948  .debug_str:0000000000006b3f .LASF2233
C:\Users\SOLDER~1\AppData\Local\Temp\cc2EfhU3.s:22676  .debug_str:0000000000011dad .LASF2234
C:\Users\SOLDER~1\AppData\Local\Temp\cc2EfhU3.s:19572  .debug_str:000000000000529b .LASF2235
C:\Users\SOLDER~1\AppData\Local\Temp\cc2EfhU3.s:29246  .debug_str:000000000002caed .LASF2236
C:\Users\SOLDER~1\AppData\Local\Temp\cc2EfhU3.s:26092  .debug_str:000000000001fcfc .LASF2237
C:\Users\SOLDER~1\AppData\Local\Temp\cc2EfhU3.s:28668  .debug_str:000000000002a595 .LASF2238
C:\Users\SOLDER~1\AppData\Local\Temp\cc2EfhU3.s:21558  .debug_str:000000000000d548 .LASF2239
C:\Users\SOLDER~1\AppData\Local\Temp\cc2EfhU3.s:22996  .debug_str:000000000001325f .LASF2240
C:\Users\SOLDER~1\AppData\Local\Temp\cc2EfhU3.s:18778  .debug_str:0000000000001fe7 .LASF2241
C:\Users\SOLDER~1\AppData\Local\Temp\cc2EfhU3.s:27746  .debug_str:0000000000026955 .LASF2242
C:\Users\SOLDER~1\AppData\Local\Temp\cc2EfhU3.s:27690  .debug_str:000000000002657c .LASF2243
C:\Users\SOLDER~1\AppData\Local\Temp\cc2EfhU3.s:22146  .debug_str:000000000000fbc2 .LASF2244
C:\Users\SOLDER~1\AppData\Local\Temp\cc2EfhU3.s:18386  .debug_str:000000000000057c .LASF2245
C:\Users\SOLDER~1\AppData\Local\Temp\cc2EfhU3.s:18338  .debug_str:000000000000023c .LASF2246
C:\Users\SOLDER~1\AppData\Local\Temp\cc2EfhU3.s:24064  .debug_str:00000000000178c1 .LASF2247
C:\Users\SOLDER~1\AppData\Local\Temp\cc2EfhU3.s:20232  .debug_str:0000000000007dc9 .LASF2248
C:\Users\SOLDER~1\AppData\Local\Temp\cc2EfhU3.s:23264  .debug_str:0000000000014529 .LASF2249
C:\Users\SOLDER~1\AppData\Local\Temp\cc2EfhU3.s:21492  .debug_str:000000000000d0ef .LASF2250
C:\Users\SOLDER~1\AppData\Local\Temp\cc2EfhU3.s:20974  .debug_str:000000000000aecc .LASF2251
C:\Users\SOLDER~1\AppData\Local\Temp\cc2EfhU3.s:29374  .debug_str:000000000002d365 .LASF2252
C:\Users\SOLDER~1\AppData\Local\Temp\cc2EfhU3.s:22662  .debug_str:0000000000011ce0 .LASF2253
C:\Users\SOLDER~1\AppData\Local\Temp\cc2EfhU3.s:24404  .debug_str:0000000000018f21 .LASF2254
C:\Users\SOLDER~1\AppData\Local\Temp\cc2EfhU3.s:23944  .debug_str:00000000000170df .LASF2255
C:\Users\SOLDER~1\AppData\Local\Temp\cc2EfhU3.s:26376  .debug_str:0000000000020f8e .LASF2256
C:\Users\SOLDER~1\AppData\Local\Temp\cc2EfhU3.s:28442  .debug_str:00000000000296b7 .LASF2257
C:\Users\SOLDER~1\AppData\Local\Temp\cc2EfhU3.s:21394  .debug_str:000000000000ca6e .LASF2258
C:\Users\SOLDER~1\AppData\Local\Temp\cc2EfhU3.s:18950  .debug_str:0000000000002b47 .LASF2259
C:\Users\SOLDER~1\AppData\Local\Temp\cc2EfhU3.s:26942  .debug_str:00000000000233fd .LASF2260
C:\Users\SOLDER~1\AppData\Local\Temp\cc2EfhU3.s:24520  .debug_str:0000000000019670 .LASF2261
C:\Users\SOLDER~1\AppData\Local\Temp\cc2EfhU3.s:20306  .debug_str:00000000000082c1 .LASF2262
C:\Users\SOLDER~1\AppData\Local\Temp\cc2EfhU3.s:19534  .debug_str:0000000000005033 .LASF2263
C:\Users\SOLDER~1\AppData\Local\Temp\cc2EfhU3.s:26044  .debug_str:000000000001fa06 .LASF2264
C:\Users\SOLDER~1\AppData\Local\Temp\cc2EfhU3.s:22480  .debug_str:0000000000011137 .LASF2265
C:\Users\SOLDER~1\AppData\Local\Temp\cc2EfhU3.s:22022  .debug_str:000000000000f323 .LASF2266
C:\Users\SOLDER~1\AppData\Local\Temp\cc2EfhU3.s:24478  .debug_str:00000000000193fd .LASF2267
C:\Users\SOLDER~1\AppData\Local\Temp\cc2EfhU3.s:21822  .debug_str:000000000000e677 .LASF2268
C:\Users\SOLDER~1\AppData\Local\Temp\cc2EfhU3.s:18556  .debug_str:0000000000001162 .LASF2269
C:\Users\SOLDER~1\AppData\Local\Temp\cc2EfhU3.s:27928  .debug_str:0000000000027545 .LASF2270
C:\Users\SOLDER~1\AppData\Local\Temp\cc2EfhU3.s:28666  .debug_str:000000000002a581 .LASF2271
C:\Users\SOLDER~1\AppData\Local\Temp\cc2EfhU3.s:28858  .debug_str:000000000002b1d1 .LASF2272
C:\Users\SOLDER~1\AppData\Local\Temp\cc2EfhU3.s:27948  .debug_str:0000000000027692 .LASF2273
C:\Users\SOLDER~1\AppData\Local\Temp\cc2EfhU3.s:18426  .debug_str:000000000000088a .LASF2274
C:\Users\SOLDER~1\AppData\Local\Temp\cc2EfhU3.s:18504  .debug_str:0000000000000e38 .LASF2275
C:\Users\SOLDER~1\AppData\Local\Temp\cc2EfhU3.s:20662  .debug_str:0000000000009a0b .LASF2276
C:\Users\SOLDER~1\AppData\Local\Temp\cc2EfhU3.s:25856  .debug_str:000000000001ed98 .LASF2277
C:\Users\SOLDER~1\AppData\Local\Temp\cc2EfhU3.s:20202  .debug_str:0000000000007bc5 .LASF2278
C:\Users\SOLDER~1\AppData\Local\Temp\cc2EfhU3.s:29706  .debug_str:000000000002e8e3 .LASF2279
C:\Users\SOLDER~1\AppData\Local\Temp\cc2EfhU3.s:22760  .debug_str:00000000000122fd .LASF2280
C:\Users\SOLDER~1\AppData\Local\Temp\cc2EfhU3.s:25926  .debug_str:000000000001f256 .LASF2281
C:\Users\SOLDER~1\AppData\Local\Temp\cc2EfhU3.s:29314  .debug_str:000000000002cfb8 .LASF2282
C:\Users\SOLDER~1\AppData\Local\Temp\cc2EfhU3.s:20140  .debug_str:00000000000077af .LASF2283
C:\Users\SOLDER~1\AppData\Local\Temp\cc2EfhU3.s:18910  .debug_str:00000000000028d3 .LASF2284
C:\Users\SOLDER~1\AppData\Local\Temp\cc2EfhU3.s:26216  .debug_str:000000000002050a .LASF2285
C:\Users\SOLDER~1\AppData\Local\Temp\cc2EfhU3.s:20100  .debug_str:0000000000007550 .LASF2286
C:\Users\SOLDER~1\AppData\Local\Temp\cc2EfhU3.s:24028  .debug_str:000000000001768d .LASF2287
GAS LISTING C:\Users\SOLDER~1\AppData\Local\Temp\cc2EfhU3.s 			page 51


C:\Users\SOLDER~1\AppData\Local\Temp\cc2EfhU3.s:22712  .debug_str:0000000000011ff3 .LASF2288
C:\Users\SOLDER~1\AppData\Local\Temp\cc2EfhU3.s:20226  .debug_str:0000000000007d76 .LASF2289
C:\Users\SOLDER~1\AppData\Local\Temp\cc2EfhU3.s:25464  .debug_str:000000000001d42a .LASF2290
C:\Users\SOLDER~1\AppData\Local\Temp\cc2EfhU3.s:25962  .debug_str:000000000001f4ee .LASF2291
C:\Users\SOLDER~1\AppData\Local\Temp\cc2EfhU3.s:23130  .debug_str:0000000000013be2 .LASF2292
C:\Users\SOLDER~1\AppData\Local\Temp\cc2EfhU3.s:19310  .debug_str:000000000000424a .LASF2293
C:\Users\SOLDER~1\AppData\Local\Temp\cc2EfhU3.s:23380  .debug_str:0000000000014cf1 .LASF2294
C:\Users\SOLDER~1\AppData\Local\Temp\cc2EfhU3.s:29674  .debug_str:000000000002e6da .LASF2295
C:\Users\SOLDER~1\AppData\Local\Temp\cc2EfhU3.s:20154  .debug_str:0000000000007876 .LASF2296
C:\Users\SOLDER~1\AppData\Local\Temp\cc2EfhU3.s:28628  .debug_str:000000000002a30c .LASF2297
C:\Users\SOLDER~1\AppData\Local\Temp\cc2EfhU3.s:26852  .debug_str:0000000000022df6 .LASF2298
C:\Users\SOLDER~1\AppData\Local\Temp\cc2EfhU3.s:23000  .debug_str:000000000001329f .LASF2299
C:\Users\SOLDER~1\AppData\Local\Temp\cc2EfhU3.s:26156  .debug_str:0000000000020108 .LASF2300
C:\Users\SOLDER~1\AppData\Local\Temp\cc2EfhU3.s:28952  .debug_str:000000000002b7fb .LASF2301
C:\Users\SOLDER~1\AppData\Local\Temp\cc2EfhU3.s:22500  .debug_str:0000000000011260 .LASF2302
C:\Users\SOLDER~1\AppData\Local\Temp\cc2EfhU3.s:26636  .debug_str:0000000000021fe1 .LASF2303
C:\Users\SOLDER~1\AppData\Local\Temp\cc2EfhU3.s:24006  .debug_str:0000000000017507 .LASF2304
C:\Users\SOLDER~1\AppData\Local\Temp\cc2EfhU3.s:22924  .debug_str:0000000000012da0 .LASF2305
C:\Users\SOLDER~1\AppData\Local\Temp\cc2EfhU3.s:25340  .debug_str:000000000001cbfd .LASF2306
C:\Users\SOLDER~1\AppData\Local\Temp\cc2EfhU3.s:28670  .debug_str:000000000002a5b5 .LASF2307
C:\Users\SOLDER~1\AppData\Local\Temp\cc2EfhU3.s:22542  .debug_str:0000000000011548 .LASF2308
C:\Users\SOLDER~1\AppData\Local\Temp\cc2EfhU3.s:23252  .debug_str:0000000000014465 .LASF2309
C:\Users\SOLDER~1\AppData\Local\Temp\cc2EfhU3.s:21896  .debug_str:000000000000eb36 .LASF2310
C:\Users\SOLDER~1\AppData\Local\Temp\cc2EfhU3.s:20958  .debug_str:000000000000adc7 .LASF2311
C:\Users\SOLDER~1\AppData\Local\Temp\cc2EfhU3.s:28546  .debug_str:0000000000029d7a .LASF2312
C:\Users\SOLDER~1\AppData\Local\Temp\cc2EfhU3.s:28690  .debug_str:000000000002a6df .LASF2313
C:\Users\SOLDER~1\AppData\Local\Temp\cc2EfhU3.s:21280  .debug_str:000000000000c28a .LASF2314
C:\Users\SOLDER~1\AppData\Local\Temp\cc2EfhU3.s:22960  .debug_str:0000000000012fee .LASF2315
C:\Users\SOLDER~1\AppData\Local\Temp\cc2EfhU3.s:22666  .debug_str:0000000000011d14 .LASF2316
C:\Users\SOLDER~1\AppData\Local\Temp\cc2EfhU3.s:20176  .debug_str:0000000000007a21 .LASF2317
C:\Users\SOLDER~1\AppData\Local\Temp\cc2EfhU3.s:22474  .debug_str:00000000000110c3 .LASF2318
C:\Users\SOLDER~1\AppData\Local\Temp\cc2EfhU3.s:29388  .debug_str:000000000002d44c .LASF2319
C:\Users\SOLDER~1\AppData\Local\Temp\cc2EfhU3.s:23598  .debug_str:0000000000015afb .LASF2320
C:\Users\SOLDER~1\AppData\Local\Temp\cc2EfhU3.s:26650  .debug_str:000000000002209e .LASF2321
C:\Users\SOLDER~1\AppData\Local\Temp\cc2EfhU3.s:24042  .debug_str:0000000000017738 .LASF2322
C:\Users\SOLDER~1\AppData\Local\Temp\cc2EfhU3.s:27028  .debug_str:000000000002396d .LASF2323
C:\Users\SOLDER~1\AppData\Local\Temp\cc2EfhU3.s:26494  .debug_str:00000000000216f3 .LASF2324
C:\Users\SOLDER~1\AppData\Local\Temp\cc2EfhU3.s:25440  .debug_str:000000000001d2b3 .LASF2325
C:\Users\SOLDER~1\AppData\Local\Temp\cc2EfhU3.s:20110  .debug_str:00000000000075e3 .LASF2326
C:\Users\SOLDER~1\AppData\Local\Temp\cc2EfhU3.s:25146  .debug_str:000000000001be9b .LASF2327
C:\Users\SOLDER~1\AppData\Local\Temp\cc2EfhU3.s:20888  .debug_str:000000000000a927 .LASF2328
C:\Users\SOLDER~1\AppData\Local\Temp\cc2EfhU3.s:20788  .debug_str:000000000000a256 .LASF2329
C:\Users\SOLDER~1\AppData\Local\Temp\cc2EfhU3.s:19612  .debug_str:00000000000054e1 .LASF2330
C:\Users\SOLDER~1\AppData\Local\Temp\cc2EfhU3.s:18658  .debug_str:0000000000001805 .LASF2331
C:\Users\SOLDER~1\AppData\Local\Temp\cc2EfhU3.s:28878  .debug_str:000000000002b309 .LASF2332
C:\Users\SOLDER~1\AppData\Local\Temp\cc2EfhU3.s:19562  .debug_str:00000000000051f5 .LASF2333
C:\Users\SOLDER~1\AppData\Local\Temp\cc2EfhU3.s:28182  .debug_str:00000000000285ec .LASF2334
C:\Users\SOLDER~1\AppData\Local\Temp\cc2EfhU3.s:21172  .debug_str:000000000000bb80 .LASF2335
C:\Users\SOLDER~1\AppData\Local\Temp\cc2EfhU3.s:25922  .debug_str:000000000001f212 .LASF2336
C:\Users\SOLDER~1\AppData\Local\Temp\cc2EfhU3.s:21630  .debug_str:000000000000d9b0 .LASF2337
C:\Users\SOLDER~1\AppData\Local\Temp\cc2EfhU3.s:29372  .debug_str:000000000002d342 .LASF2338
C:\Users\SOLDER~1\AppData\Local\Temp\cc2EfhU3.s:21406  .debug_str:000000000000cb4b .LASF2339
C:\Users\SOLDER~1\AppData\Local\Temp\cc2EfhU3.s:26124  .debug_str:000000000001ff06 .LASF2340
C:\Users\SOLDER~1\AppData\Local\Temp\cc2EfhU3.s:26002  .debug_str:000000000001f758 .LASF2341
C:\Users\SOLDER~1\AppData\Local\Temp\cc2EfhU3.s:28966  .debug_str:000000000002b8c6 .LASF2342
C:\Users\SOLDER~1\AppData\Local\Temp\cc2EfhU3.s:21270  .debug_str:000000000000c1d2 .LASF2343
C:\Users\SOLDER~1\AppData\Local\Temp\cc2EfhU3.s:27766  .debug_str:0000000000026a90 .LASF2344
GAS LISTING C:\Users\SOLDER~1\AppData\Local\Temp\cc2EfhU3.s 			page 52


C:\Users\SOLDER~1\AppData\Local\Temp\cc2EfhU3.s:22398  .debug_str:0000000000010bd1 .LASF2345
C:\Users\SOLDER~1\AppData\Local\Temp\cc2EfhU3.s:21782  .debug_str:000000000000e3f9 .LASF2346
C:\Users\SOLDER~1\AppData\Local\Temp\cc2EfhU3.s:28076  .debug_str:0000000000027eff .LASF2347
C:\Users\SOLDER~1\AppData\Local\Temp\cc2EfhU3.s:26296  .debug_str:0000000000020a3d .LASF2348
C:\Users\SOLDER~1\AppData\Local\Temp\cc2EfhU3.s:20244  .debug_str:0000000000007e9f .LASF2349
C:\Users\SOLDER~1\AppData\Local\Temp\cc2EfhU3.s:25120  .debug_str:000000000001bcf2 .LASF2350
C:\Users\SOLDER~1\AppData\Local\Temp\cc2EfhU3.s:28270  .debug_str:0000000000028b7d .LASF2351
C:\Users\SOLDER~1\AppData\Local\Temp\cc2EfhU3.s:26784  .debug_str:00000000000229b0 .LASF2352
C:\Users\SOLDER~1\AppData\Local\Temp\cc2EfhU3.s:20862  .debug_str:000000000000a770 .LASF2353
C:\Users\SOLDER~1\AppData\Local\Temp\cc2EfhU3.s:29282  .debug_str:000000000002cd59 .LASF2354
C:\Users\SOLDER~1\AppData\Local\Temp\cc2EfhU3.s:21636  .debug_str:000000000000da03 .LASF2355
C:\Users\SOLDER~1\AppData\Local\Temp\cc2EfhU3.s:24342  .debug_str:0000000000018af5 .LASF2356
C:\Users\SOLDER~1\AppData\Local\Temp\cc2EfhU3.s:21234  .debug_str:000000000000bf52 .LASF2357
C:\Users\SOLDER~1\AppData\Local\Temp\cc2EfhU3.s:25098  .debug_str:000000000001bb62 .LASF2358
C:\Users\SOLDER~1\AppData\Local\Temp\cc2EfhU3.s:22102  .debug_str:000000000000f8a7 .LASF2359
C:\Users\SOLDER~1\AppData\Local\Temp\cc2EfhU3.s:25500  .debug_str:000000000001d659 .LASF2360
C:\Users\SOLDER~1\AppData\Local\Temp\cc2EfhU3.s:26190  .debug_str:0000000000020357 .LASF2361
C:\Users\SOLDER~1\AppData\Local\Temp\cc2EfhU3.s:21676  .debug_str:000000000000dcae .LASF2362
C:\Users\SOLDER~1\AppData\Local\Temp\cc2EfhU3.s:22930  .debug_str:0000000000012df9 .LASF2363
C:\Users\SOLDER~1\AppData\Local\Temp\cc2EfhU3.s:20998  .debug_str:000000000000b03a .LASF2364
C:\Users\SOLDER~1\AppData\Local\Temp\cc2EfhU3.s:28842  .debug_str:000000000002b0e9 .LASF2365
C:\Users\SOLDER~1\AppData\Local\Temp\cc2EfhU3.s:26114  .debug_str:000000000001fe69 .LASF2366
C:\Users\SOLDER~1\AppData\Local\Temp\cc2EfhU3.s:27338  .debug_str:0000000000024df3 .LASF2367
C:\Users\SOLDER~1\AppData\Local\Temp\cc2EfhU3.s:26208  .debug_str:000000000002047a .LASF2368
C:\Users\SOLDER~1\AppData\Local\Temp\cc2EfhU3.s:24316  .debug_str:000000000001893b .LASF2369
C:\Users\SOLDER~1\AppData\Local\Temp\cc2EfhU3.s:18906  .debug_str:000000000000285a .LASF2370
C:\Users\SOLDER~1\AppData\Local\Temp\cc2EfhU3.s:19354  .debug_str:00000000000044fa .LASF2371
C:\Users\SOLDER~1\AppData\Local\Temp\cc2EfhU3.s:25728  .debug_str:000000000001e50b .LASF2372
C:\Users\SOLDER~1\AppData\Local\Temp\cc2EfhU3.s:19336  .debug_str:00000000000043e5 .LASF2373
C:\Users\SOLDER~1\AppData\Local\Temp\cc2EfhU3.s:19176  .debug_str:00000000000039b5 .LASF2374
C:\Users\SOLDER~1\AppData\Local\Temp\cc2EfhU3.s:19800  .debug_str:0000000000006195 .LASF2375
C:\Users\SOLDER~1\AppData\Local\Temp\cc2EfhU3.s:24642  .debug_str:0000000000019dfe .LASF2376
C:\Users\SOLDER~1\AppData\Local\Temp\cc2EfhU3.s:20806  .debug_str:000000000000a390 .LASF2377
C:\Users\SOLDER~1\AppData\Local\Temp\cc2EfhU3.s:19054  .debug_str:00000000000031e2 .LASF2378
C:\Users\SOLDER~1\AppData\Local\Temp\cc2EfhU3.s:28564  .debug_str:0000000000029eac .LASF2379
C:\Users\SOLDER~1\AppData\Local\Temp\cc2EfhU3.s:27976  .debug_str:0000000000027831 .LASF2380
C:\Users\SOLDER~1\AppData\Local\Temp\cc2EfhU3.s:18416  .debug_str:00000000000007e3 .LASF2381
C:\Users\SOLDER~1\AppData\Local\Temp\cc2EfhU3.s:29666  .debug_str:000000000002e649 .LASF2382
C:\Users\SOLDER~1\AppData\Local\Temp\cc2EfhU3.s:25134  .debug_str:000000000001bdd2 .LASF2383
C:\Users\SOLDER~1\AppData\Local\Temp\cc2EfhU3.s:21284  .debug_str:000000000000c2de .LASF2384
C:\Users\SOLDER~1\AppData\Local\Temp\cc2EfhU3.s:29230  .debug_str:000000000002c9e4 .LASF2385
C:\Users\SOLDER~1\AppData\Local\Temp\cc2EfhU3.s:28606  .debug_str:000000000002a1a2 .LASF2386
C:\Users\SOLDER~1\AppData\Local\Temp\cc2EfhU3.s:28930  .debug_str:000000000002b686 .LASF2387
C:\Users\SOLDER~1\AppData\Local\Temp\cc2EfhU3.s:29410  .debug_str:000000000002d5d1 .LASF2388
C:\Users\SOLDER~1\AppData\Local\Temp\cc2EfhU3.s:23410  .debug_str:0000000000014ecb .LASF2389
C:\Users\SOLDER~1\AppData\Local\Temp\cc2EfhU3.s:19942  .debug_str:0000000000006ae1 .LASF2390
C:\Users\SOLDER~1\AppData\Local\Temp\cc2EfhU3.s:22424  .debug_str:0000000000010d7e .LASF2391
C:\Users\SOLDER~1\AppData\Local\Temp\cc2EfhU3.s:25898  .debug_str:000000000001f072 .LASF2392
C:\Users\SOLDER~1\AppData\Local\Temp\cc2EfhU3.s:19906  .debug_str:00000000000068b6 .LASF2393
C:\Users\SOLDER~1\AppData\Local\Temp\cc2EfhU3.s:25202  .debug_str:000000000001c28f .LASF2394
C:\Users\SOLDER~1\AppData\Local\Temp\cc2EfhU3.s:24938  .debug_str:000000000001b13e .LASF2395
C:\Users\SOLDER~1\AppData\Local\Temp\cc2EfhU3.s:18942  .debug_str:0000000000002ad6 .LASF2396
C:\Users\SOLDER~1\AppData\Local\Temp\cc2EfhU3.s:19528  .debug_str:0000000000004fdb .LASF2397
C:\Users\SOLDER~1\AppData\Local\Temp\cc2EfhU3.s:23042  .debug_str:0000000000013581 .LASF2398
C:\Users\SOLDER~1\AppData\Local\Temp\cc2EfhU3.s:27118  .debug_str:0000000000023f6a .LASF2399
C:\Users\SOLDER~1\AppData\Local\Temp\cc2EfhU3.s:20396  .debug_str:0000000000008865 .LASF2400
C:\Users\SOLDER~1\AppData\Local\Temp\cc2EfhU3.s:21922  .debug_str:000000000000ece1 .LASF2401
GAS LISTING C:\Users\SOLDER~1\AppData\Local\Temp\cc2EfhU3.s 			page 53


C:\Users\SOLDER~1\AppData\Local\Temp\cc2EfhU3.s:22618  .debug_str:00000000000119fe .LASF2402
C:\Users\SOLDER~1\AppData\Local\Temp\cc2EfhU3.s:26974  .debug_str:0000000000023614 .LASF2403
C:\Users\SOLDER~1\AppData\Local\Temp\cc2EfhU3.s:22050  .debug_str:000000000000f4ff .LASF2404
C:\Users\SOLDER~1\AppData\Local\Temp\cc2EfhU3.s:21084  .debug_str:000000000000b5c4 .LASF2405
C:\Users\SOLDER~1\AppData\Local\Temp\cc2EfhU3.s:27422  .debug_str:000000000002532c .LASF2406
C:\Users\SOLDER~1\AppData\Local\Temp\cc2EfhU3.s:25040  .debug_str:000000000001b791 .LASF2407
C:\Users\SOLDER~1\AppData\Local\Temp\cc2EfhU3.s:23290  .debug_str:00000000000146d9 .LASF2408
C:\Users\SOLDER~1\AppData\Local\Temp\cc2EfhU3.s:25410  .debug_str:000000000001d0ab .LASF2409
C:\Users\SOLDER~1\AppData\Local\Temp\cc2EfhU3.s:19460  .debug_str:0000000000004bc6 .LASF2410
C:\Users\SOLDER~1\AppData\Local\Temp\cc2EfhU3.s:19902  .debug_str:000000000000687c .LASF2411
C:\Users\SOLDER~1\AppData\Local\Temp\cc2EfhU3.s:20986  .debug_str:000000000000af7f .LASF2412
C:\Users\SOLDER~1\AppData\Local\Temp\cc2EfhU3.s:21310  .debug_str:000000000000c4c2 .LASF2413
C:\Users\SOLDER~1\AppData\Local\Temp\cc2EfhU3.s:26276  .debug_str:00000000000208f5 .LASF2414
C:\Users\SOLDER~1\AppData\Local\Temp\cc2EfhU3.s:20046  .debug_str:00000000000071e2 .LASF2415
C:\Users\SOLDER~1\AppData\Local\Temp\cc2EfhU3.s:19320  .debug_str:00000000000042df .LASF2416
C:\Users\SOLDER~1\AppData\Local\Temp\cc2EfhU3.s:25014  .debug_str:000000000001b608 .LASF2417
C:\Users\SOLDER~1\AppData\Local\Temp\cc2EfhU3.s:22138  .debug_str:000000000000fb1e .LASF2418
C:\Users\SOLDER~1\AppData\Local\Temp\cc2EfhU3.s:24790  .debug_str:000000000001a7af .LASF2419
C:\Users\SOLDER~1\AppData\Local\Temp\cc2EfhU3.s:25742  .debug_str:000000000001e605 .LASF2420
C:\Users\SOLDER~1\AppData\Local\Temp\cc2EfhU3.s:18522  .debug_str:0000000000000f5a .LASF2421
C:\Users\SOLDER~1\AppData\Local\Temp\cc2EfhU3.s:18638  .debug_str:00000000000016b8 .LASF2422
C:\Users\SOLDER~1\AppData\Local\Temp\cc2EfhU3.s:19508  .debug_str:0000000000004eb3 .LASF2423
C:\Users\SOLDER~1\AppData\Local\Temp\cc2EfhU3.s:29434  .debug_str:000000000002d74c .LASF2424
C:\Users\SOLDER~1\AppData\Local\Temp\cc2EfhU3.s:21108  .debug_str:000000000000b71a .LASF2425
C:\Users\SOLDER~1\AppData\Local\Temp\cc2EfhU3.s:23174  .debug_str:0000000000013eff .LASF2426
C:\Users\SOLDER~1\AppData\Local\Temp\cc2EfhU3.s:23984  .debug_str:0000000000017398 .LASF2427
C:\Users\SOLDER~1\AppData\Local\Temp\cc2EfhU3.s:19898  .debug_str:000000000000683c .LASF2428
C:\Users\SOLDER~1\AppData\Local\Temp\cc2EfhU3.s:18640  .debug_str:00000000000016da .LASF2429
C:\Users\SOLDER~1\AppData\Local\Temp\cc2EfhU3.s:23368  .debug_str:0000000000014c24 .LASF2430
C:\Users\SOLDER~1\AppData\Local\Temp\cc2EfhU3.s:25426  .debug_str:000000000001d1c7 .LASF2431
C:\Users\SOLDER~1\AppData\Local\Temp\cc2EfhU3.s:18340  .debug_str:000000000000025d .LASF2432
C:\Users\SOLDER~1\AppData\Local\Temp\cc2EfhU3.s:18524  .debug_str:0000000000000f72 .LASF2433
C:\Users\SOLDER~1\AppData\Local\Temp\cc2EfhU3.s:25012  .debug_str:000000000001b5e3 .LASF2434
C:\Users\SOLDER~1\AppData\Local\Temp\cc2EfhU3.s:29042  .debug_str:000000000002bdea .LASF2435
C:\Users\SOLDER~1\AppData\Local\Temp\cc2EfhU3.s:18790  .debug_str:0000000000002094 .LASF2436
C:\Users\SOLDER~1\AppData\Local\Temp\cc2EfhU3.s:29342  .debug_str:000000000002d181 .LASF2437
C:\Users\SOLDER~1\AppData\Local\Temp\cc2EfhU3.s:27530  .debug_str:0000000000025a74 .LASF2438
C:\Users\SOLDER~1\AppData\Local\Temp\cc2EfhU3.s:28674  .debug_str:000000000002a5ee .LASF2439
C:\Users\SOLDER~1\AppData\Local\Temp\cc2EfhU3.s:24176  .debug_str:0000000000018051 .LASF2440
C:\Users\SOLDER~1\AppData\Local\Temp\cc2EfhU3.s:21480  .debug_str:000000000000d02e .LASF2441
C:\Users\SOLDER~1\AppData\Local\Temp\cc2EfhU3.s:23854  .debug_str:0000000000016b13 .LASF2442
C:\Users\SOLDER~1\AppData\Local\Temp\cc2EfhU3.s:28994  .debug_str:000000000002ba9a .LASF2443
C:\Users\SOLDER~1\AppData\Local\Temp\cc2EfhU3.s:19034  .debug_str:0000000000003092 .LASF2444
C:\Users\SOLDER~1\AppData\Local\Temp\cc2EfhU3.s:21482  .debug_str:000000000000d044 .LASF2445
C:\Users\SOLDER~1\AppData\Local\Temp\cc2EfhU3.s:25528  .debug_str:000000000001d7e4 .LASF2446
C:\Users\SOLDER~1\AppData\Local\Temp\cc2EfhU3.s:21182  .debug_str:000000000000bc24 .LASF2447
C:\Users\SOLDER~1\AppData\Local\Temp\cc2EfhU3.s:26314  .debug_str:0000000000020b59 .LASF2448
C:\Users\SOLDER~1\AppData\Local\Temp\cc2EfhU3.s:26056  .debug_str:000000000001facb .LASF2449
C:\Users\SOLDER~1\AppData\Local\Temp\cc2EfhU3.s:23362  .debug_str:0000000000014bcf .LASF2450
C:\Users\SOLDER~1\AppData\Local\Temp\cc2EfhU3.s:23718  .debug_str:00000000000162a4 .LASF2451
C:\Users\SOLDER~1\AppData\Local\Temp\cc2EfhU3.s:22934  .debug_str:0000000000012e37 .LASF2452
C:\Users\SOLDER~1\AppData\Local\Temp\cc2EfhU3.s:27138  .debug_str:00000000000240be .LASF2453
C:\Users\SOLDER~1\AppData\Local\Temp\cc2EfhU3.s:21568  .debug_str:000000000000d5d7 .LASF2454
C:\Users\SOLDER~1\AppData\Local\Temp\cc2EfhU3.s:28778  .debug_str:000000000002ac7e .LASF2455
C:\Users\SOLDER~1\AppData\Local\Temp\cc2EfhU3.s:27322  .debug_str:0000000000024ce1 .LASF2456
C:\Users\SOLDER~1\AppData\Local\Temp\cc2EfhU3.s:21792  .debug_str:000000000000e4a7 .LASF2457
C:\Users\SOLDER~1\AppData\Local\Temp\cc2EfhU3.s:28152  .debug_str:00000000000283c9 .LASF2458
GAS LISTING C:\Users\SOLDER~1\AppData\Local\Temp\cc2EfhU3.s 			page 54


C:\Users\SOLDER~1\AppData\Local\Temp\cc2EfhU3.s:21486  .debug_str:000000000000d081 .LASF2459
C:\Users\SOLDER~1\AppData\Local\Temp\cc2EfhU3.s:26184  .debug_str:00000000000202ef .LASF2460
C:\Users\SOLDER~1\AppData\Local\Temp\cc2EfhU3.s:18742  .debug_str:0000000000001d96 .LASF2461
C:\Users\SOLDER~1\AppData\Local\Temp\cc2EfhU3.s:27638  .debug_str:0000000000026209 .LASF2462
C:\Users\SOLDER~1\AppData\Local\Temp\cc2EfhU3.s:21348  .debug_str:000000000000c744 .LASF2463
C:\Users\SOLDER~1\AppData\Local\Temp\cc2EfhU3.s:27854  .debug_str:000000000002704b .LASF2464
C:\Users\SOLDER~1\AppData\Local\Temp\cc2EfhU3.s:20426  .debug_str:0000000000008a72 .LASF2465
C:\Users\SOLDER~1\AppData\Local\Temp\cc2EfhU3.s:21612  .debug_str:000000000000d8bf .LASF2466
C:\Users\SOLDER~1\AppData\Local\Temp\cc2EfhU3.s:22062  .debug_str:000000000000f5d8 .LASF2467
C:\Users\SOLDER~1\AppData\Local\Temp\cc2EfhU3.s:20298  .debug_str:0000000000008227 .LASF2468
C:\Users\SOLDER~1\AppData\Local\Temp\cc2EfhU3.s:19218  .debug_str:0000000000003c73 .LASF2469
C:\Users\SOLDER~1\AppData\Local\Temp\cc2EfhU3.s:25192  .debug_str:000000000001c1f2 .LASF2470
C:\Users\SOLDER~1\AppData\Local\Temp\cc2EfhU3.s:27580  .debug_str:0000000000025e11 .LASF2471
C:\Users\SOLDER~1\AppData\Local\Temp\cc2EfhU3.s:26608  .debug_str:0000000000021e31 .LASF2472
C:\Users\SOLDER~1\AppData\Local\Temp\cc2EfhU3.s:25080  .debug_str:000000000001ba35 .LASF2473
C:\Users\SOLDER~1\AppData\Local\Temp\cc2EfhU3.s:23266  .debug_str:000000000001454a .LASF2474
C:\Users\SOLDER~1\AppData\Local\Temp\cc2EfhU3.s:29166  .debug_str:000000000002c5ee .LASF2475
C:\Users\SOLDER~1\AppData\Local\Temp\cc2EfhU3.s:29782  .debug_str:000000000002ed6b .LASF2476
C:\Users\SOLDER~1\AppData\Local\Temp\cc2EfhU3.s:28856  .debug_str:000000000002b1b9 .LASF2477
C:\Users\SOLDER~1\AppData\Local\Temp\cc2EfhU3.s:19152  .debug_str:0000000000003826 .LASF2478
C:\Users\SOLDER~1\AppData\Local\Temp\cc2EfhU3.s:29426  .debug_str:000000000002d6dd .LASF2479
C:\Users\SOLDER~1\AppData\Local\Temp\cc2EfhU3.s:26064  .debug_str:000000000001fb46 .LASF2480
C:\Users\SOLDER~1\AppData\Local\Temp\cc2EfhU3.s:21562  .debug_str:000000000000d583 .LASF2481
C:\Users\SOLDER~1\AppData\Local\Temp\cc2EfhU3.s:27100  .debug_str:0000000000023e2e .LASF2482
C:\Users\SOLDER~1\AppData\Local\Temp\cc2EfhU3.s:23298  .debug_str:0000000000014751 .LASF2483
C:\Users\SOLDER~1\AppData\Local\Temp\cc2EfhU3.s:26420  .debug_str:0000000000021237 .LASF2484
C:\Users\SOLDER~1\AppData\Local\Temp\cc2EfhU3.s:24878  .debug_str:000000000001ad9a .LASF2485
C:\Users\SOLDER~1\AppData\Local\Temp\cc2EfhU3.s:20190  .debug_str:0000000000007b03 .LASF2486
C:\Users\SOLDER~1\AppData\Local\Temp\cc2EfhU3.s:27604  .debug_str:0000000000025f99 .LASF2487
C:\Users\SOLDER~1\AppData\Local\Temp\cc2EfhU3.s:24952  .debug_str:000000000001b217 .LASF2488
C:\Users\SOLDER~1\AppData\Local\Temp\cc2EfhU3.s:24396  .debug_str:0000000000018ea6 .LASF2489
C:\Users\SOLDER~1\AppData\Local\Temp\cc2EfhU3.s:29092  .debug_str:000000000002c138 .LASF2490
C:\Users\SOLDER~1\AppData\Local\Temp\cc2EfhU3.s:29084  .debug_str:000000000002c0cb .LASF2491
C:\Users\SOLDER~1\AppData\Local\Temp\cc2EfhU3.s:24564  .debug_str:000000000001992a .LASF2492
C:\Users\SOLDER~1\AppData\Local\Temp\cc2EfhU3.s:29704  .debug_str:000000000002e8be .LASF2493
C:\Users\SOLDER~1\AppData\Local\Temp\cc2EfhU3.s:19242  .debug_str:0000000000003dfa .LASF2494
C:\Users\SOLDER~1\AppData\Local\Temp\cc2EfhU3.s:25076  .debug_str:000000000001b9fb .LASF2495
C:\Users\SOLDER~1\AppData\Local\Temp\cc2EfhU3.s:24468  .debug_str:000000000001933e .LASF2496
C:\Users\SOLDER~1\AppData\Local\Temp\cc2EfhU3.s:26236  .debug_str:0000000000020651 .LASF2497
C:\Users\SOLDER~1\AppData\Local\Temp\cc2EfhU3.s:24512  .debug_str:0000000000019609 .LASF2498
C:\Users\SOLDER~1\AppData\Local\Temp\cc2EfhU3.s:27532  .debug_str:0000000000025a96 .LASF2499
C:\Users\SOLDER~1\AppData\Local\Temp\cc2EfhU3.s:28154  .debug_str:00000000000283ec .LASF2500
C:\Users\SOLDER~1\AppData\Local\Temp\cc2EfhU3.s:24608  .debug_str:0000000000019bf4 .LASF2501
C:\Users\SOLDER~1\AppData\Local\Temp\cc2EfhU3.s:29108  .debug_str:000000000002c244 .LASF2502
C:\Users\SOLDER~1\AppData\Local\Temp\cc2EfhU3.s:21242  .debug_str:000000000000bfed .LASF2503
C:\Users\SOLDER~1\AppData\Local\Temp\cc2EfhU3.s:24154  .debug_str:0000000000017ed0 .LASF2504
C:\Users\SOLDER~1\AppData\Local\Temp\cc2EfhU3.s:25328  .debug_str:000000000001cb13 .LASF2505
C:\Users\SOLDER~1\AppData\Local\Temp\cc2EfhU3.s:22584  .debug_str:00000000000117e5 .LASF2506
C:\Users\SOLDER~1\AppData\Local\Temp\cc2EfhU3.s:24948  .debug_str:000000000001b1dc .LASF2507
C:\Users\SOLDER~1\AppData\Local\Temp\cc2EfhU3.s:23384  .debug_str:0000000000014d2f .LASF2508
C:\Users\SOLDER~1\AppData\Local\Temp\cc2EfhU3.s:20782  .debug_str:000000000000a207 .LASF2509
C:\Users\SOLDER~1\AppData\Local\Temp\cc2EfhU3.s:20506  .debug_str:0000000000008fdf .LASF2510
C:\Users\SOLDER~1\AppData\Local\Temp\cc2EfhU3.s:18450  .debug_str:0000000000000a68 .LASF2511
C:\Users\SOLDER~1\AppData\Local\Temp\cc2EfhU3.s:19860  .debug_str:0000000000006567 .LASF2512
C:\Users\SOLDER~1\AppData\Local\Temp\cc2EfhU3.s:19438  .debug_str:0000000000004a40 .LASF2513
C:\Users\SOLDER~1\AppData\Local\Temp\cc2EfhU3.s:19178  .debug_str:00000000000039da .LASF2514
C:\Users\SOLDER~1\AppData\Local\Temp\cc2EfhU3.s:21042  .debug_str:000000000000b2fb .LASF2515
GAS LISTING C:\Users\SOLDER~1\AppData\Local\Temp\cc2EfhU3.s 			page 55


C:\Users\SOLDER~1\AppData\Local\Temp\cc2EfhU3.s:24422  .debug_str:0000000000019034 .LASF2516
C:\Users\SOLDER~1\AppData\Local\Temp\cc2EfhU3.s:19614  .debug_str:0000000000005502 .LASF2517
C:\Users\SOLDER~1\AppData\Local\Temp\cc2EfhU3.s:21814  .debug_str:000000000000e5e6 .LASF2518
C:\Users\SOLDER~1\AppData\Local\Temp\cc2EfhU3.s:27280  .debug_str:0000000000024a2f .LASF2519
C:\Users\SOLDER~1\AppData\Local\Temp\cc2EfhU3.s:20558  .debug_str:0000000000009361 .LASF2520
C:\Users\SOLDER~1\AppData\Local\Temp\cc2EfhU3.s:28780  .debug_str:000000000002ac96 .LASF2521
C:\Users\SOLDER~1\AppData\Local\Temp\cc2EfhU3.s:21316  .debug_str:000000000000c515 .LASF2522
C:\Users\SOLDER~1\AppData\Local\Temp\cc2EfhU3.s:27058  .debug_str:0000000000023b66 .LASF2523
C:\Users\SOLDER~1\AppData\Local\Temp\cc2EfhU3.s:22136  .debug_str:000000000000faf9 .LASF2524
C:\Users\SOLDER~1\AppData\Local\Temp\cc2EfhU3.s:27706  .debug_str:00000000000266a0 .LASF2525
C:\Users\SOLDER~1\AppData\Local\Temp\cc2EfhU3.s:19462  .debug_str:0000000000004beb .LASF2526
C:\Users\SOLDER~1\AppData\Local\Temp\cc2EfhU3.s:19084  .debug_str:00000000000033e4 .LASF2527
C:\Users\SOLDER~1\AppData\Local\Temp\cc2EfhU3.s:26466  .debug_str:000000000002152d .LASF2528
C:\Users\SOLDER~1\AppData\Local\Temp\cc2EfhU3.s:24442  .debug_str:0000000000019172 .LASF2529
C:\Users\SOLDER~1\AppData\Local\Temp\cc2EfhU3.s:19538  .debug_str:000000000000505e .LASF2530
C:\Users\SOLDER~1\AppData\Local\Temp\cc2EfhU3.s:28232  .debug_str:000000000002892d .LASF2531
C:\Users\SOLDER~1\AppData\Local\Temp\cc2EfhU3.s:19488  .debug_str:0000000000004d80 .LASF2532
C:\Users\SOLDER~1\AppData\Local\Temp\cc2EfhU3.s:29564  .debug_str:000000000002df95 .LASF2533
C:\Users\SOLDER~1\AppData\Local\Temp\cc2EfhU3.s:18698  .debug_str:0000000000001a81 .LASF2534
C:\Users\SOLDER~1\AppData\Local\Temp\cc2EfhU3.s:19344  .debug_str:0000000000004462 .LASF2535
C:\Users\SOLDER~1\AppData\Local\Temp\cc2EfhU3.s:24614  .debug_str:0000000000019c40 .LASF2536
C:\Users\SOLDER~1\AppData\Local\Temp\cc2EfhU3.s:26166  .debug_str:00000000000201be .LASF2537
C:\Users\SOLDER~1\AppData\Local\Temp\cc2EfhU3.s:19012  .debug_str:0000000000002f43 .LASF2538
C:\Users\SOLDER~1\AppData\Local\Temp\cc2EfhU3.s:22036  .debug_str:000000000000f42d .LASF2539
C:\Users\SOLDER~1\AppData\Local\Temp\cc2EfhU3.s:24924  .debug_str:000000000001b056 .LASF2540
C:\Users\SOLDER~1\AppData\Local\Temp\cc2EfhU3.s:28826  .debug_str:000000000002b006 .LASF2541
C:\Users\SOLDER~1\AppData\Local\Temp\cc2EfhU3.s:19236  .debug_str:0000000000003d96 .LASF2542
C:\Users\SOLDER~1\AppData\Local\Temp\cc2EfhU3.s:24650  .debug_str:0000000000019e93 .LASF2543
C:\Users\SOLDER~1\AppData\Local\Temp\cc2EfhU3.s:22768  .debug_str:000000000001235f .LASF2544
C:\Users\SOLDER~1\AppData\Local\Temp\cc2EfhU3.s:18528  .debug_str:0000000000000fac .LASF2545
C:\Users\SOLDER~1\AppData\Local\Temp\cc2EfhU3.s:28944  .debug_str:000000000002b772 .LASF2546
C:\Users\SOLDER~1\AppData\Local\Temp\cc2EfhU3.s:20106  .debug_str:00000000000075a3 .LASF2547
C:\Users\SOLDER~1\AppData\Local\Temp\cc2EfhU3.s:28140  .debug_str:0000000000028315 .LASF2548
C:\Users\SOLDER~1\AppData\Local\Temp\cc2EfhU3.s:21680  .debug_str:000000000000dcf4 .LASF2549
C:\Users\SOLDER~1\AppData\Local\Temp\cc2EfhU3.s:27504  .debug_str:00000000000258a5 .LASF2550
C:\Users\SOLDER~1\AppData\Local\Temp\cc2EfhU3.s:23216  .debug_str:00000000000141f7 .LASF2551
C:\Users\SOLDER~1\AppData\Local\Temp\cc2EfhU3.s:20988  .debug_str:000000000000af9f .LASF2552
C:\Users\SOLDER~1\AppData\Local\Temp\cc2EfhU3.s:24798  .debug_str:000000000001a813 .LASF2553
C:\Users\SOLDER~1\AppData\Local\Temp\cc2EfhU3.s:20854  .debug_str:000000000000a6f4 .LASF2554
C:\Users\SOLDER~1\AppData\Local\Temp\cc2EfhU3.s:26264  .debug_str:000000000002082e .LASF2555
C:\Users\SOLDER~1\AppData\Local\Temp\cc2EfhU3.s:19578  .debug_str:0000000000005301 .LASF2556
C:\Users\SOLDER~1\AppData\Local\Temp\cc2EfhU3.s:24522  .debug_str:0000000000019684 .LASF2557
C:\Users\SOLDER~1\AppData\Local\Temp\cc2EfhU3.s:24566  .debug_str:000000000001994d .LASF2558
C:\Users\SOLDER~1\AppData\Local\Temp\cc2EfhU3.s:24894  .debug_str:000000000001ae91 .LASF2559
C:\Users\SOLDER~1\AppData\Local\Temp\cc2EfhU3.s:20916  .debug_str:000000000000aaf3 .LASF2560
C:\Users\SOLDER~1\AppData\Local\Temp\cc2EfhU3.s:26360  .debug_str:0000000000020e6a .LASF2561
C:\Users\SOLDER~1\AppData\Local\Temp\cc2EfhU3.s:24158  .debug_str:0000000000017f1b .LASF2562
C:\Users\SOLDER~1\AppData\Local\Temp\cc2EfhU3.s:27966  .debug_str:00000000000277a0 .LASF2563
C:\Users\SOLDER~1\AppData\Local\Temp\cc2EfhU3.s:29172  .debug_str:000000000002c62f .LASF2564
C:\Users\SOLDER~1\AppData\Local\Temp\cc2EfhU3.s:29598  .debug_str:000000000002e1a3 .LASF2565
C:\Users\SOLDER~1\AppData\Local\Temp\cc2EfhU3.s:22630  .debug_str:0000000000011ac7 .LASF2566
C:\Users\SOLDER~1\AppData\Local\Temp\cc2EfhU3.s:19584  .debug_str:000000000000535a .LASF2567
C:\Users\SOLDER~1\AppData\Local\Temp\cc2EfhU3.s:27392  .debug_str:000000000002514b .LASF2568
C:\Users\SOLDER~1\AppData\Local\Temp\cc2EfhU3.s:21186  .debug_str:000000000000bc61 .LASF2569
C:\Users\SOLDER~1\AppData\Local\Temp\cc2EfhU3.s:21212  .debug_str:000000000000bde3 .LASF2570
C:\Users\SOLDER~1\AppData\Local\Temp\cc2EfhU3.s:22788  .debug_str:00000000000124ec .LASF2571
C:\Users\SOLDER~1\AppData\Local\Temp\cc2EfhU3.s:26152  .debug_str:00000000000200bf .LASF2572
GAS LISTING C:\Users\SOLDER~1\AppData\Local\Temp\cc2EfhU3.s 			page 56


C:\Users\SOLDER~1\AppData\Local\Temp\cc2EfhU3.s:25614  .debug_str:000000000001ddc7 .LASF2573
C:\Users\SOLDER~1\AppData\Local\Temp\cc2EfhU3.s:18968  .debug_str:0000000000002c47 .LASF2574
C:\Users\SOLDER~1\AppData\Local\Temp\cc2EfhU3.s:23770  .debug_str:00000000000165b6 .LASF2575
C:\Users\SOLDER~1\AppData\Local\Temp\cc2EfhU3.s:24974  .debug_str:000000000001b384 .LASF2576
C:\Users\SOLDER~1\AppData\Local\Temp\cc2EfhU3.s:21842  .debug_str:000000000000e7e7 .LASF2577
C:\Users\SOLDER~1\AppData\Local\Temp\cc2EfhU3.s:25620  .debug_str:000000000001de17 .LASF2578
C:\Users\SOLDER~1\AppData\Local\Temp\cc2EfhU3.s:19962  .debug_str:0000000000006c1d .LASF2579
C:\Users\SOLDER~1\AppData\Local\Temp\cc2EfhU3.s:21320  .debug_str:000000000000c555 .LASF2580
C:\Users\SOLDER~1\AppData\Local\Temp\cc2EfhU3.s:29574  .debug_str:000000000002e023 .LASF2581
C:\Users\SOLDER~1\AppData\Local\Temp\cc2EfhU3.s:25810  .debug_str:000000000001ea85 .LASF2582
C:\Users\SOLDER~1\AppData\Local\Temp\cc2EfhU3.s:27636  .debug_str:00000000000261f0 .LASF2583
C:\Users\SOLDER~1\AppData\Local\Temp\cc2EfhU3.s:26412  .debug_str:00000000000211c3 .LASF2584
C:\Users\SOLDER~1\AppData\Local\Temp\cc2EfhU3.s:25770  .debug_str:000000000001e80c .LASF2585
C:\Users\SOLDER~1\AppData\Local\Temp\cc2EfhU3.s:21968  .debug_str:000000000000efc4 .LASF2586
C:\Users\SOLDER~1\AppData\Local\Temp\cc2EfhU3.s:23922  .debug_str:0000000000016f70 .LASF2587
C:\Users\SOLDER~1\AppData\Local\Temp\cc2EfhU3.s:18610  .debug_str:00000000000014ed .LASF2588
C:\Users\SOLDER~1\AppData\Local\Temp\cc2EfhU3.s:22004  .debug_str:000000000000f21e .LASF2589
C:\Users\SOLDER~1\AppData\Local\Temp\cc2EfhU3.s:21784  .debug_str:000000000000e419 .LASF2590
C:\Users\SOLDER~1\AppData\Local\Temp\cc2EfhU3.s:24760  .debug_str:000000000001a5af .LASF2591
C:\Users\SOLDER~1\AppData\Local\Temp\cc2EfhU3.s:19520  .debug_str:0000000000004f5b .LASF2592
C:\Users\SOLDER~1\AppData\Local\Temp\cc2EfhU3.s:26008  .debug_str:000000000001f7bd .LASF2593
C:\Users\SOLDER~1\AppData\Local\Temp\cc2EfhU3.s:25710  .debug_str:000000000001e3ab .LASF2594
C:\Users\SOLDER~1\AppData\Local\Temp\cc2EfhU3.s:24328  .debug_str:00000000000189fa .LASF2595
C:\Users\SOLDER~1\AppData\Local\Temp\cc2EfhU3.s:18716  .debug_str:0000000000001bc0 .LASF2596
C:\Users\SOLDER~1\AppData\Local\Temp\cc2EfhU3.s:22672  .debug_str:0000000000011d70 .LASF2597
C:\Users\SOLDER~1\AppData\Local\Temp\cc2EfhU3.s:29174  .debug_str:000000000002c654 .LASF2598
C:\Users\SOLDER~1\AppData\Local\Temp\cc2EfhU3.s:21030  .debug_str:000000000000b22d .LASF2599
C:\Users\SOLDER~1\AppData\Local\Temp\cc2EfhU3.s:25334  .debug_str:000000000001cb78 .LASF2600
C:\Users\SOLDER~1\AppData\Local\Temp\cc2EfhU3.s:19300  .debug_str:00000000000041b7 .LASF2601
C:\Users\SOLDER~1\AppData\Local\Temp\cc2EfhU3.s:21518  .debug_str:000000000000d29b .LASF2602
C:\Users\SOLDER~1\AppData\Local\Temp\cc2EfhU3.s:29188  .debug_str:000000000002c73e .LASF2603
C:\Users\SOLDER~1\AppData\Local\Temp\cc2EfhU3.s:24806  .debug_str:000000000001a892 .LASF2604
C:\Users\SOLDER~1\AppData\Local\Temp\cc2EfhU3.s:24052  .debug_str:00000000000177ff .LASF2605
C:\Users\SOLDER~1\AppData\Local\Temp\cc2EfhU3.s:20184  .debug_str:0000000000007a8c .LASF2606
C:\Users\SOLDER~1\AppData\Local\Temp\cc2EfhU3.s:25814  .debug_str:000000000001ead0 .LASF2607
C:\Users\SOLDER~1\AppData\Local\Temp\cc2EfhU3.s:18574  .debug_str:0000000000001289 .LASF2608
C:\Users\SOLDER~1\AppData\Local\Temp\cc2EfhU3.s:24230  .debug_str:0000000000018393 .LASF2609
C:\Users\SOLDER~1\AppData\Local\Temp\cc2EfhU3.s:23274  .debug_str:00000000000145e7 .LASF2610
C:\Users\SOLDER~1\AppData\Local\Temp\cc2EfhU3.s:22576  .debug_str:0000000000011751 .LASF2611
C:\Users\SOLDER~1\AppData\Local\Temp\cc2EfhU3.s:28464  .debug_str:00000000000297d5 .LASF2612
C:\Users\SOLDER~1\AppData\Local\Temp\cc2EfhU3.s:22098  .debug_str:000000000000f86c .LASF2613
C:\Users\SOLDER~1\AppData\Local\Temp\cc2EfhU3.s:19304  .debug_str:00000000000041ec .LASF2614
C:\Users\SOLDER~1\AppData\Local\Temp\cc2EfhU3.s:18390  .debug_str:00000000000005c5 .LASF2615
C:\Users\SOLDER~1\AppData\Local\Temp\cc2EfhU3.s:25214  .debug_str:000000000001c341 .LASF2616
C:\Users\SOLDER~1\AppData\Local\Temp\cc2EfhU3.s:27944  .debug_str:0000000000027649 .LASF2617
C:\Users\SOLDER~1\AppData\Local\Temp\cc2EfhU3.s:19836  .debug_str:00000000000063e9 .LASF2618
C:\Users\SOLDER~1\AppData\Local\Temp\cc2EfhU3.s:26052  .debug_str:000000000001fa86 .LASF2619
C:\Users\SOLDER~1\AppData\Local\Temp\cc2EfhU3.s:26108  .debug_str:000000000001fe08 .LASF2620
C:\Users\SOLDER~1\AppData\Local\Temp\cc2EfhU3.s:24254  .debug_str:0000000000018534 .LASF2621
C:\Users\SOLDER~1\AppData\Local\Temp\cc2EfhU3.s:26062  .debug_str:000000000001fb20 .LASF2622
C:\Users\SOLDER~1\AppData\Local\Temp\cc2EfhU3.s:21450  .debug_str:000000000000ce37 .LASF2623
C:\Users\SOLDER~1\AppData\Local\Temp\cc2EfhU3.s:26756  .debug_str:00000000000227c4 .LASF2624
C:\Users\SOLDER~1\AppData\Local\Temp\cc2EfhU3.s:20416  .debug_str:00000000000089d6 .LASF2625
C:\Users\SOLDER~1\AppData\Local\Temp\cc2EfhU3.s:22340  .debug_str:0000000000010836 .LASF2626
C:\Users\SOLDER~1\AppData\Local\Temp\cc2EfhU3.s:18544  .debug_str:000000000000108a .LASF2627
C:\Users\SOLDER~1\AppData\Local\Temp\cc2EfhU3.s:18944  .debug_str:0000000000002af8 .LASF2628
C:\Users\SOLDER~1\AppData\Local\Temp\cc2EfhU3.s:28098  .debug_str:0000000000028069 .LASF2629
GAS LISTING C:\Users\SOLDER~1\AppData\Local\Temp\cc2EfhU3.s 			page 57


C:\Users\SOLDER~1\AppData\Local\Temp\cc2EfhU3.s:28590  .debug_str:000000000002a08f .LASF2630
C:\Users\SOLDER~1\AppData\Local\Temp\cc2EfhU3.s:26286  .debug_str:00000000000209ad .LASF2631
C:\Users\SOLDER~1\AppData\Local\Temp\cc2EfhU3.s:19792  .debug_str:0000000000006101 .LASF2632
C:\Users\SOLDER~1\AppData\Local\Temp\cc2EfhU3.s:29744  .debug_str:000000000002eb1c .LASF2633
C:\Users\SOLDER~1\AppData\Local\Temp\cc2EfhU3.s:22492  .debug_str:00000000000111d3 .LASF2634
C:\Users\SOLDER~1\AppData\Local\Temp\cc2EfhU3.s:21884  .debug_str:000000000000ea70 .LASF2635
C:\Users\SOLDER~1\AppData\Local\Temp\cc2EfhU3.s:26902  .debug_str:0000000000023154 .LASF2636
C:\Users\SOLDER~1\AppData\Local\Temp\cc2EfhU3.s:28030  .debug_str:0000000000027bed .LASF2637
C:\Users\SOLDER~1\AppData\Local\Temp\cc2EfhU3.s:25992  .debug_str:000000000001f6cb .LASF2638
C:\Users\SOLDER~1\AppData\Local\Temp\cc2EfhU3.s:18642  .debug_str:00000000000016ff .LASF2639
C:\Users\SOLDER~1\AppData\Local\Temp\cc2EfhU3.s:24012  .debug_str:0000000000017574 .LASF2640
C:\Users\SOLDER~1\AppData\Local\Temp\cc2EfhU3.s:28488  .debug_str:0000000000029979 .LASF2641
C:\Users\SOLDER~1\AppData\Local\Temp\cc2EfhU3.s:20066  .debug_str:000000000000732c .LASF2642
C:\Users\SOLDER~1\AppData\Local\Temp\cc2EfhU3.s:26722  .debug_str:0000000000022572 .LASF2643
C:\Users\SOLDER~1\AppData\Local\Temp\cc2EfhU3.s:21532  .debug_str:000000000000d39a .LASF2644
C:\Users\SOLDER~1\AppData\Local\Temp\cc2EfhU3.s:25128  .debug_str:000000000001bd7b .LASF2645
C:\Users\SOLDER~1\AppData\Local\Temp\cc2EfhU3.s:23482  .debug_str:0000000000015393 .LASF2646
C:\Users\SOLDER~1\AppData\Local\Temp\cc2EfhU3.s:23518  .debug_str:00000000000155f1 .LASF2647
C:\Users\SOLDER~1\AppData\Local\Temp\cc2EfhU3.s:26322  .debug_str:0000000000020bd5 .LASF2648
C:\Users\SOLDER~1\AppData\Local\Temp\cc2EfhU3.s:21774  .debug_str:000000000000e388 .LASF2649
C:\Users\SOLDER~1\AppData\Local\Temp\cc2EfhU3.s:27974  .debug_str:000000000002780a .LASF2650
C:\Users\SOLDER~1\AppData\Local\Temp\cc2EfhU3.s:20174  .debug_str:0000000000007a07 .LASF2651
C:\Users\SOLDER~1\AppData\Local\Temp\cc2EfhU3.s:25188  .debug_str:000000000001c182 .LASF2652
C:\Users\SOLDER~1\AppData\Local\Temp\cc2EfhU3.s:20766  .debug_str:000000000000a0fa .LASF2653
C:\Users\SOLDER~1\AppData\Local\Temp\cc2EfhU3.s:18914  .debug_str:0000000000002917 .LASF2654
C:\Users\SOLDER~1\AppData\Local\Temp\cc2EfhU3.s:18894  .debug_str:00000000000027a6 .LASF2655
C:\Users\SOLDER~1\AppData\Local\Temp\cc2EfhU3.s:24918  .debug_str:000000000001aff1 .LASF2656
C:\Users\SOLDER~1\AppData\Local\Temp\cc2EfhU3.s:26824  .debug_str:0000000000022c52 .LASF2657
C:\Users\SOLDER~1\AppData\Local\Temp\cc2EfhU3.s:19628  .debug_str:00000000000055dc .LASF2658
C:\Users\SOLDER~1\AppData\Local\Temp\cc2EfhU3.s:24110  .debug_str:0000000000017bbb .LASF2659
C:\Users\SOLDER~1\AppData\Local\Temp\cc2EfhU3.s:25698  .debug_str:000000000001e2e1 .LASF2660
C:\Users\SOLDER~1\AppData\Local\Temp\cc2EfhU3.s:24724  .debug_str:000000000001a349 .LASF2661
C:\Users\SOLDER~1\AppData\Local\Temp\cc2EfhU3.s:25664  .debug_str:000000000001e0d6 .LASF2662
C:\Users\SOLDER~1\AppData\Local\Temp\cc2EfhU3.s:22826  .debug_str:0000000000012726 .LASF2663
C:\Users\SOLDER~1\AppData\Local\Temp\cc2EfhU3.s:26356  .debug_str:0000000000020e0a .LASF2664
C:\Users\SOLDER~1\AppData\Local\Temp\cc2EfhU3.s:20936  .debug_str:000000000000ac32 .LASF2665
C:\Users\SOLDER~1\AppData\Local\Temp\cc2EfhU3.s:21910  .debug_str:000000000000ec19 .LASF2666
C:\Users\SOLDER~1\AppData\Local\Temp\cc2EfhU3.s:19050  .debug_str:00000000000031b7 .LASF2667
C:\Users\SOLDER~1\AppData\Local\Temp\cc2EfhU3.s:18564  .debug_str:00000000000011db .LASF2668
C:\Users\SOLDER~1\AppData\Local\Temp\cc2EfhU3.s:19366  .debug_str:00000000000045c1 .LASF2669
C:\Users\SOLDER~1\AppData\Local\Temp\cc2EfhU3.s:27238  .debug_str:0000000000024779 .LASF2670
C:\Users\SOLDER~1\AppData\Local\Temp\cc2EfhU3.s:26712  .debug_str:00000000000224dc .LASF2671
C:\Users\SOLDER~1\AppData\Local\Temp\cc2EfhU3.s:19464  .debug_str:0000000000004c0b .LASF2672
C:\Users\SOLDER~1\AppData\Local\Temp\cc2EfhU3.s:27396  .debug_str:000000000002518e .LASF2673
C:\Users\SOLDER~1\AppData\Local\Temp\cc2EfhU3.s:26440  .debug_str:0000000000021385 .LASF2674
C:\Users\SOLDER~1\AppData\Local\Temp\cc2EfhU3.s:25794  .debug_str:000000000001e99b .LASF2675
C:\Users\SOLDER~1\AppData\Local\Temp\cc2EfhU3.s:24568  .debug_str:0000000000019972 .LASF2676
C:\Users\SOLDER~1\AppData\Local\Temp\cc2EfhU3.s:24204  .debug_str:0000000000018205 .LASF2677
C:\Users\SOLDER~1\AppData\Local\Temp\cc2EfhU3.s:23636  .debug_str:0000000000015d50 .LASF2678
C:\Users\SOLDER~1\AppData\Local\Temp\cc2EfhU3.s:22554  .debug_str:00000000000115fd .LASF2679
C:\Users\SOLDER~1\AppData\Local\Temp\cc2EfhU3.s:19802  .debug_str:00000000000061ac .LASF2680
C:\Users\SOLDER~1\AppData\Local\Temp\cc2EfhU3.s:20810  .debug_str:000000000000a3d6 .LASF2681
C:\Users\SOLDER~1\AppData\Local\Temp\cc2EfhU3.s:29254  .debug_str:000000000002cb69 .LASF2682
C:\Users\SOLDER~1\AppData\Local\Temp\cc2EfhU3.s:19196  .debug_str:0000000000003b19 .LASF2683
C:\Users\SOLDER~1\AppData\Local\Temp\cc2EfhU3.s:19234  .debug_str:0000000000003d6f .LASF2684
C:\Users\SOLDER~1\AppData\Local\Temp\cc2EfhU3.s:25734  .debug_str:000000000001e57d .LASF2685
C:\Users\SOLDER~1\AppData\Local\Temp\cc2EfhU3.s:26006  .debug_str:000000000001f796 .LASF2686
GAS LISTING C:\Users\SOLDER~1\AppData\Local\Temp\cc2EfhU3.s 			page 58


C:\Users\SOLDER~1\AppData\Local\Temp\cc2EfhU3.s:27290  .debug_str:0000000000024adc .LASF2687
C:\Users\SOLDER~1\AppData\Local\Temp\cc2EfhU3.s:24088  .debug_str:0000000000017a4a .LASF2688
C:\Users\SOLDER~1\AppData\Local\Temp\cc2EfhU3.s:25688  .debug_str:000000000001e258 .LASF2689
C:\Users\SOLDER~1\AppData\Local\Temp\cc2EfhU3.s:25590  .debug_str:000000000001dc0f .LASF2690
C:\Users\SOLDER~1\AppData\Local\Temp\cc2EfhU3.s:24114  .debug_str:0000000000017bfb .LASF2691
C:\Users\SOLDER~1\AppData\Local\Temp\cc2EfhU3.s:26812  .debug_str:0000000000022b92 .LASF2692
C:\Users\SOLDER~1\AppData\Local\Temp\cc2EfhU3.s:19598  .debug_str:000000000000541e .LASF2693
C:\Users\SOLDER~1\AppData\Local\Temp\cc2EfhU3.s:18806  .debug_str:00000000000021d0 .LASF2694
C:\Users\SOLDER~1\AppData\Local\Temp\cc2EfhU3.s:29216  .debug_str:000000000002c8fe .LASF2695
C:\Users\SOLDER~1\AppData\Local\Temp\cc2EfhU3.s:23034  .debug_str:0000000000013502 .LASF2696
C:\Users\SOLDER~1\AppData\Local\Temp\cc2EfhU3.s:22952  .debug_str:0000000000012f77 .LASF2697
C:\Users\SOLDER~1\AppData\Local\Temp\cc2EfhU3.s:19402  .debug_str:000000000000482a .LASF2698
C:\Users\SOLDER~1\AppData\Local\Temp\cc2EfhU3.s:25412  .debug_str:000000000001d0c7 .LASF2699
C:\Users\SOLDER~1\AppData\Local\Temp\cc2EfhU3.s:25686  .debug_str:000000000001e232 .LASF2700
C:\Users\SOLDER~1\AppData\Local\Temp\cc2EfhU3.s:29764  .debug_str:000000000002ec60 .LASF2701
C:\Users\SOLDER~1\AppData\Local\Temp\cc2EfhU3.s:25648  .debug_str:000000000001dfda .LASF2702
C:\Users\SOLDER~1\AppData\Local\Temp\cc2EfhU3.s:21642  .debug_str:000000000000da5f .LASF2703
C:\Users\SOLDER~1\AppData\Local\Temp\cc2EfhU3.s:26252  .debug_str:0000000000020756 .LASF2704
C:\Users\SOLDER~1\AppData\Local\Temp\cc2EfhU3.s:19766  .debug_str:0000000000005f13 .LASF2705
C:\Users\SOLDER~1\AppData\Local\Temp\cc2EfhU3.s:21796  .debug_str:000000000000e4ca .LASF2706
C:\Users\SOLDER~1\AppData\Local\Temp\cc2EfhU3.s:29366  .debug_str:000000000002d2ea .LASF2707
C:\Users\SOLDER~1\AppData\Local\Temp\cc2EfhU3.s:23294  .debug_str:000000000001470d .LASF2708
C:\Users\SOLDER~1\AppData\Local\Temp\cc2EfhU3.s:27528  .debug_str:0000000000025a5c .LASF2709
C:\Users\SOLDER~1\AppData\Local\Temp\cc2EfhU3.s:28166  .debug_str:00000000000284ab .LASF2710
C:\Users\SOLDER~1\AppData\Local\Temp\cc2EfhU3.s:25660  .debug_str:000000000001e093 .LASF2711
C:\Users\SOLDER~1\AppData\Local\Temp\cc2EfhU3.s:26050  .debug_str:000000000001fa60 .LASF2712
C:\Users\SOLDER~1\AppData\Local\Temp\cc2EfhU3.s:24074  .debug_str:000000000001796d .LASF2713
C:\Users\SOLDER~1\AppData\Local\Temp\cc2EfhU3.s:26378  .debug_str:0000000000020fb0 .LASF2714
C:\Users\SOLDER~1\AppData\Local\Temp\cc2EfhU3.s:20480  .debug_str:0000000000008e23 .LASF2715
C:\Users\SOLDER~1\AppData\Local\Temp\cc2EfhU3.s:19270  .debug_str:0000000000003fad .LASF2716
C:\Users\SOLDER~1\AppData\Local\Temp\cc2EfhU3.s:20680  .debug_str:0000000000009b2e .LASF2717
C:\Users\SOLDER~1\AppData\Local\Temp\cc2EfhU3.s:29620  .debug_str:000000000002e31b .LASF2718
C:\Users\SOLDER~1\AppData\Local\Temp\cc2EfhU3.s:18310  .debug_str:00000000000000a4 .LASF2719
C:\Users\SOLDER~1\AppData\Local\Temp\cc2EfhU3.s:26112  .debug_str:000000000001fe42 .LASF2720
C:\Users\SOLDER~1\AppData\Local\Temp\cc2EfhU3.s:24184  .debug_str:00000000000180c7 .LASF2721
C:\Users\SOLDER~1\AppData\Local\Temp\cc2EfhU3.s:26908  .debug_str:00000000000231c4 .LASF2722
C:\Users\SOLDER~1\AppData\Local\Temp\cc2EfhU3.s:27146  .debug_str:0000000000024147 .LASF2723
C:\Users\SOLDER~1\AppData\Local\Temp\cc2EfhU3.s:25460  .debug_str:000000000001d3f0 .LASF2724
C:\Users\SOLDER~1\AppData\Local\Temp\cc2EfhU3.s:25542  .debug_str:000000000001d8d7 .LASF2725
C:\Users\SOLDER~1\AppData\Local\Temp\cc2EfhU3.s:20844  .debug_str:000000000000a643 .LASF2726
C:\Users\SOLDER~1\AppData\Local\Temp\cc2EfhU3.s:23968  .debug_str:0000000000017268 .LASF2727
C:\Users\SOLDER~1\AppData\Local\Temp\cc2EfhU3.s:18792  .debug_str:00000000000020b4 .LASF2728
C:\Users\SOLDER~1\AppData\Local\Temp\cc2EfhU3.s:22234  .debug_str:000000000001015c .LASF2729
C:\Users\SOLDER~1\AppData\Local\Temp\cc2EfhU3.s:20452  .debug_str:0000000000008c0a .LASF2730
C:\Users\SOLDER~1\AppData\Local\Temp\cc2EfhU3.s:20594  .debug_str:00000000000095d9 .LASF2731
C:\Users\SOLDER~1\AppData\Local\Temp\cc2EfhU3.s:29144  .debug_str:000000000002c46f .LASF2732
C:\Users\SOLDER~1\AppData\Local\Temp\cc2EfhU3.s:29276  .debug_str:000000000002ccf2 .LASF2733
C:\Users\SOLDER~1\AppData\Local\Temp\cc2EfhU3.s:27508  .debug_str:00000000000258e5 .LASF2734
C:\Users\SOLDER~1\AppData\Local\Temp\cc2EfhU3.s:27340  .debug_str:0000000000024e0c .LASF2735
C:\Users\SOLDER~1\AppData\Local\Temp\cc2EfhU3.s:22054  .debug_str:000000000000f53e .LASF2736
C:\Users\SOLDER~1\AppData\Local\Temp\cc2EfhU3.s:25470  .debug_str:000000000001d48e .LASF2737
C:\Users\SOLDER~1\AppData\Local\Temp\cc2EfhU3.s:28130  .debug_str:0000000000028277 .LASF2738
C:\Users\SOLDER~1\AppData\Local\Temp\cc2EfhU3.s:23622  .debug_str:0000000000015c80 .LASF2739
C:\Users\SOLDER~1\AppData\Local\Temp\cc2EfhU3.s:22948  .debug_str:0000000000012f25 .LASF2740
C:\Users\SOLDER~1\AppData\Local\Temp\cc2EfhU3.s:20348  .debug_str:000000000000855b .LASF2741
C:\Users\SOLDER~1\AppData\Local\Temp\cc2EfhU3.s:19192  .debug_str:0000000000003ac6 .LASF2742
C:\Users\SOLDER~1\AppData\Local\Temp\cc2EfhU3.s:24452  .debug_str:0000000000019213 .LASF2743
GAS LISTING C:\Users\SOLDER~1\AppData\Local\Temp\cc2EfhU3.s 			page 59


C:\Users\SOLDER~1\AppData\Local\Temp\cc2EfhU3.s:23540  .debug_str:0000000000015735 .LASF2744
C:\Users\SOLDER~1\AppData\Local\Temp\cc2EfhU3.s:29428  .debug_str:000000000002d6f4 .LASF2745
C:\Users\SOLDER~1\AppData\Local\Temp\cc2EfhU3.s:19048  .debug_str:000000000000318c .LASF2746
C:\Users\SOLDER~1\AppData\Local\Temp\cc2EfhU3.s:27502  .debug_str:0000000000025888 .LASF2747
C:\Users\SOLDER~1\AppData\Local\Temp\cc2EfhU3.s:27122  .debug_str:0000000000023fb2 .LASF2748
C:\Users\SOLDER~1\AppData\Local\Temp\cc2EfhU3.s:25634  .debug_str:000000000001deea .LASF2749
C:\Users\SOLDER~1\AppData\Local\Temp\cc2EfhU3.s:25090  .debug_str:000000000001bace .LASF2750
C:\Users\SOLDER~1\AppData\Local\Temp\cc2EfhU3.s:23870  .debug_str:0000000000016bf2 .LASF2751
C:\Users\SOLDER~1\AppData\Local\Temp\cc2EfhU3.s:28072  .debug_str:0000000000027eaf .LASF2752
C:\Users\SOLDER~1\AppData\Local\Temp\cc2EfhU3.s:19394  .debug_str:00000000000047a8 .LASF2753
C:\Users\SOLDER~1\AppData\Local\Temp\cc2EfhU3.s:22448  .debug_str:0000000000010f03 .LASF2754
C:\Users\SOLDER~1\AppData\Local\Temp\cc2EfhU3.s:29266  .debug_str:000000000002cc3b .LASF2755
C:\Users\SOLDER~1\AppData\Local\Temp\cc2EfhU3.s:26374  .debug_str:0000000000020f62 .LASF2756
C:\Users\SOLDER~1\AppData\Local\Temp\cc2EfhU3.s:27602  .debug_str:0000000000025f7a .LASF2757
C:\Users\SOLDER~1\AppData\Local\Temp\cc2EfhU3.s:28634  .debug_str:000000000002a357 .LASF2758
C:\Users\SOLDER~1\AppData\Local\Temp\cc2EfhU3.s:25912  .debug_str:000000000001f163 .LASF2759
C:\Users\SOLDER~1\AppData\Local\Temp\cc2EfhU3.s:24824  .debug_str:000000000001a9bf .LASF2760
C:\Users\SOLDER~1\AppData\Local\Temp\cc2EfhU3.s:24314  .debug_str:000000000001891c .LASF2761
C:\Users\SOLDER~1\AppData\Local\Temp\cc2EfhU3.s:22778  .debug_str:000000000001240f .LASF2762
C:\Users\SOLDER~1\AppData\Local\Temp\cc2EfhU3.s:22660  .debug_str:0000000000011cc1 .LASF2763
C:\Users\SOLDER~1\AppData\Local\Temp\cc2EfhU3.s:24300  .debug_str:0000000000018804 .LASF2764
C:\Users\SOLDER~1\AppData\Local\Temp\cc2EfhU3.s:20932  .debug_str:000000000000abf3 .LASF2765
C:\Users\SOLDER~1\AppData\Local\Temp\cc2EfhU3.s:19544  .debug_str:00000000000050b8 .LASF2766
C:\Users\SOLDER~1\AppData\Local\Temp\cc2EfhU3.s:21670  .debug_str:000000000000dc4b .LASF2767
C:\Users\SOLDER~1\AppData\Local\Temp\cc2EfhU3.s:29078  .debug_str:000000000002c06e .LASF2768
C:\Users\SOLDER~1\AppData\Local\Temp\cc2EfhU3.s:25838  .debug_str:000000000001ec58 .LASF2769
C:\Users\SOLDER~1\AppData\Local\Temp\cc2EfhU3.s:19136  .debug_str:000000000000370c .LASF2770
C:\Users\SOLDER~1\AppData\Local\Temp\cc2EfhU3.s:19714  .debug_str:0000000000005bea .LASF2771
C:\Users\SOLDER~1\AppData\Local\Temp\cc2EfhU3.s:29256  .debug_str:000000000002cb90 .LASF2772
C:\Users\SOLDER~1\AppData\Local\Temp\cc2EfhU3.s:26196  .debug_str:00000000000203ba .LASF2773
C:\Users\SOLDER~1\AppData\Local\Temp\cc2EfhU3.s:23336  .debug_str:0000000000014a06 .LASF2774
C:\Users\SOLDER~1\AppData\Local\Temp\cc2EfhU3.s:19540  .debug_str:0000000000005083 .LASF2775
C:\Users\SOLDER~1\AppData\Local\Temp\cc2EfhU3.s:29236  .debug_str:000000000002ca45 .LASF2776
C:\Users\SOLDER~1\AppData\Local\Temp\cc2EfhU3.s:22550  .debug_str:00000000000115d5 .LASF2777
C:\Users\SOLDER~1\AppData\Local\Temp\cc2EfhU3.s:23862  .debug_str:0000000000016b78 .LASF2778
C:\Users\SOLDER~1\AppData\Local\Temp\cc2EfhU3.s:20650  .debug_str:0000000000009959 .LASF2779
C:\Users\SOLDER~1\AppData\Local\Temp\cc2EfhU3.s:21076  .debug_str:000000000000b548 .LASF2780
C:\Users\SOLDER~1\AppData\Local\Temp\cc2EfhU3.s:18762  .debug_str:0000000000001ed0 .LASF2781
C:\Users\SOLDER~1\AppData\Local\Temp\cc2EfhU3.s:18608  .debug_str:00000000000014c6 .LASF2782
C:\Users\SOLDER~1\AppData\Local\Temp\cc2EfhU3.s:28358  .debug_str:0000000000029129 .LASF2783
C:\Users\SOLDER~1\AppData\Local\Temp\cc2EfhU3.s:19286  .debug_str:00000000000040be .LASF2784
C:\Users\SOLDER~1\AppData\Local\Temp\cc2EfhU3.s:19314  .debug_str:000000000000427d .LASF2785
C:\Users\SOLDER~1\AppData\Local\Temp\cc2EfhU3.s:26284  .debug_str:0000000000020986 .LASF2786
C:\Users\SOLDER~1\AppData\Local\Temp\cc2EfhU3.s:24600  .debug_str:0000000000019b83 .LASF2787
C:\Users\SOLDER~1\AppData\Local\Temp\cc2EfhU3.s:22950  .debug_str:0000000000012f50 .LASF2788
C:\Users\SOLDER~1\AppData\Local\Temp\cc2EfhU3.s:22698  .debug_str:0000000000011f2b .LASF2789
C:\Users\SOLDER~1\AppData\Local\Temp\cc2EfhU3.s:21102  .debug_str:000000000000b6bc .LASF2790
C:\Users\SOLDER~1\AppData\Local\Temp\cc2EfhU3.s:23828  .debug_str:000000000001699b .LASF2791
C:\Users\SOLDER~1\AppData\Local\Temp\cc2EfhU3.s:23814  .debug_str:00000000000168a5 .LASF2792
C:\Users\SOLDER~1\AppData\Local\Temp\cc2EfhU3.s:20230  .debug_str:0000000000007dae .LASF2793
C:\Users\SOLDER~1\AppData\Local\Temp\cc2EfhU3.s:26380  .debug_str:0000000000020fd7 .LASF2794
C:\Users\SOLDER~1\AppData\Local\Temp\cc2EfhU3.s:25668  .debug_str:000000000001e11f .LASF2795
C:\Users\SOLDER~1\AppData\Local\Temp\cc2EfhU3.s:23092  .debug_str:0000000000013908 .LASF2796
C:\Users\SOLDER~1\AppData\Local\Temp\cc2EfhU3.s:28450  .debug_str:0000000000029707 .LASF2797
C:\Users\SOLDER~1\AppData\Local\Temp\cc2EfhU3.s:18394  .debug_str:0000000000000603 .LASF2798
C:\Users\SOLDER~1\AppData\Local\Temp\cc2EfhU3.s:26684  .debug_str:00000000000222ec .LASF2799
C:\Users\SOLDER~1\AppData\Local\Temp\cc2EfhU3.s:26028  .debug_str:000000000001f8fb .LASF2800
GAS LISTING C:\Users\SOLDER~1\AppData\Local\Temp\cc2EfhU3.s 			page 60


C:\Users\SOLDER~1\AppData\Local\Temp\cc2EfhU3.s:25094  .debug_str:000000000001bb25 .LASF2801
C:\Users\SOLDER~1\AppData\Local\Temp\cc2EfhU3.s:24040  .debug_str:0000000000017710 .LASF2802
C:\Users\SOLDER~1\AppData\Local\Temp\cc2EfhU3.s:23474  .debug_str:0000000000015309 .LASF2803
C:\Users\SOLDER~1\AppData\Local\Temp\cc2EfhU3.s:25466  .debug_str:000000000001d44b .LASF2804
C:\Users\SOLDER~1\AppData\Local\Temp\cc2EfhU3.s:21828  .debug_str:000000000000e6de .LASF2805
C:\Users\SOLDER~1\AppData\Local\Temp\cc2EfhU3.s:20754  .debug_str:000000000000a00a .LASF2806
C:\Users\SOLDER~1\AppData\Local\Temp\cc2EfhU3.s:20128  .debug_str:000000000000770b .LASF2807
C:\Users\SOLDER~1\AppData\Local\Temp\cc2EfhU3.s:18798  .debug_str:0000000000002148 .LASF2808
C:\Users\SOLDER~1\AppData\Local\Temp\cc2EfhU3.s:18514  .debug_str:0000000000000ec7 .LASF2809
C:\Users\SOLDER~1\AppData\Local\Temp\cc2EfhU3.s:20368  .debug_str:00000000000086b6 .LASF2810
C:\Users\SOLDER~1\AppData\Local\Temp\cc2EfhU3.s:28340  .debug_str:0000000000028ffd .LASF2811
C:\Users\SOLDER~1\AppData\Local\Temp\cc2EfhU3.s:29148  .debug_str:000000000002c4bb .LASF2812
C:\Users\SOLDER~1\AppData\Local\Temp\cc2EfhU3.s:18768  .debug_str:0000000000001f36 .LASF2813
C:\Users\SOLDER~1\AppData\Local\Temp\cc2EfhU3.s:25330  .debug_str:000000000001cb2b .LASF2814
C:\Users\SOLDER~1\AppData\Local\Temp\cc2EfhU3.s:26220  .debug_str:0000000000020558 .LASF2815
C:\Users\SOLDER~1\AppData\Local\Temp\cc2EfhU3.s:18700  .debug_str:0000000000001aa2 .LASF2816
C:\Users\SOLDER~1\AppData\Local\Temp\cc2EfhU3.s:25894  .debug_str:000000000001f02a .LASF2817
C:\Users\SOLDER~1\AppData\Local\Temp\cc2EfhU3.s:23942  .debug_str:00000000000170bd .LASF2818
C:\Users\SOLDER~1\AppData\Local\Temp\cc2EfhU3.s:26150  .debug_str:000000000002009a .LASF2819
C:\Users\SOLDER~1\AppData\Local\Temp\cc2EfhU3.s:20040  .debug_str:0000000000007174 .LASF2820
C:\Users\SOLDER~1\AppData\Local\Temp\cc2EfhU3.s:26542  .debug_str:0000000000021a01 .LASF2821
C:\Users\SOLDER~1\AppData\Local\Temp\cc2EfhU3.s:20242  .debug_str:0000000000007e7a .LASF2822
C:\Users\SOLDER~1\AppData\Local\Temp\cc2EfhU3.s:19126  .debug_str:000000000000367d .LASF2823
C:\Users\SOLDER~1\AppData\Local\Temp\cc2EfhU3.s:24394  .debug_str:0000000000018e80 .LASF2824
C:\Users\SOLDER~1\AppData\Local\Temp\cc2EfhU3.s:27158  .debug_str:0000000000024218 .LASF2825
C:\Users\SOLDER~1\AppData\Local\Temp\cc2EfhU3.s:22624  .debug_str:0000000000011a5c .LASF2826
C:\Users\SOLDER~1\AppData\Local\Temp\cc2EfhU3.s:19418  .debug_str:0000000000004931 .LASF2827
C:\Users\SOLDER~1\AppData\Local\Temp\cc2EfhU3.s:26726  .debug_str:00000000000225a8 .LASF2828
C:\Users\SOLDER~1\AppData\Local\Temp\cc2EfhU3.s:23532  .debug_str:00000000000156bf .LASF2829
C:\Users\SOLDER~1\AppData\Local\Temp\cc2EfhU3.s:28262  .debug_str:0000000000028b00 .LASF2830
C:\Users\SOLDER~1\AppData\Local\Temp\cc2EfhU3.s:25680  .debug_str:000000000001e1cc .LASF2831
C:\Users\SOLDER~1\AppData\Local\Temp\cc2EfhU3.s:29786  .debug_str:000000000002edac .LASF2832
C:\Users\SOLDER~1\AppData\Local\Temp\cc2EfhU3.s:24576  .debug_str:0000000000019a07 .LASF2833
C:\Users\SOLDER~1\AppData\Local\Temp\cc2EfhU3.s:22546  .debug_str:000000000001158e .LASF2834
C:\Users\SOLDER~1\AppData\Local\Temp\cc2EfhU3.s:23806  .debug_str:0000000000016818 .LASF2835
C:\Users\SOLDER~1\AppData\Local\Temp\cc2EfhU3.s:19788  .debug_str:0000000000006099 .LASF2836
C:\Users\SOLDER~1\AppData\Local\Temp\cc2EfhU3.s:25258  .debug_str:000000000001c64a .LASF2837
C:\Users\SOLDER~1\AppData\Local\Temp\cc2EfhU3.s:22488  .debug_str:000000000001118d .LASF2838
C:\Users\SOLDER~1\AppData\Local\Temp\cc2EfhU3.s:19378  .debug_str:0000000000004696 .LASF2839
C:\Users\SOLDER~1\AppData\Local\Temp\cc2EfhU3.s:28474  .debug_str:0000000000029898 .LASF2840
C:\Users\SOLDER~1\AppData\Local\Temp\cc2EfhU3.s:27938  .debug_str:00000000000275d9 .LASF2841
C:\Users\SOLDER~1\AppData\Local\Temp\cc2EfhU3.s:25288  .debug_str:000000000001c850 .LASF2842
C:\Users\SOLDER~1\AppData\Local\Temp\cc2EfhU3.s:26070  .debug_str:000000000001fb9f .LASF2843
C:\Users\SOLDER~1\AppData\Local\Temp\cc2EfhU3.s:27856  .debug_str:0000000000027070 .LASF2844
C:\Users\SOLDER~1\AppData\Local\Temp\cc2EfhU3.s:28188  .debug_str:000000000002865b .LASF2845
C:\Users\SOLDER~1\AppData\Local\Temp\cc2EfhU3.s:21716  .debug_str:000000000000df67 .LASF2846
C:\Users\SOLDER~1\AppData\Local\Temp\cc2EfhU3.s:25162  .debug_str:000000000001bfc3 .LASF2847
C:\Users\SOLDER~1\AppData\Local\Temp\cc2EfhU3.s:29746  .debug_str:000000000002eb36 .LASF2848
C:\Users\SOLDER~1\AppData\Local\Temp\cc2EfhU3.s:25216  .debug_str:000000000001c367 .LASF2849
C:\Users\SOLDER~1\AppData\Local\Temp\cc2EfhU3.s:23138  .debug_str:0000000000013c6b .LASF2850
C:\Users\SOLDER~1\AppData\Local\Temp\cc2EfhU3.s:29310  .debug_str:000000000002cf7b .LASF2851
C:\Users\SOLDER~1\AppData\Local\Temp\cc2EfhU3.s:21538  .debug_str:000000000000d402 .LASF2852
C:\Users\SOLDER~1\AppData\Local\Temp\cc2EfhU3.s:21154  .debug_str:000000000000ba30 .LASF2853
C:\Users\SOLDER~1\AppData\Local\Temp\cc2EfhU3.s:28614  .debug_str:000000000002a220 .LASF2854
C:\Users\SOLDER~1\AppData\Local\Temp\cc2EfhU3.s:24858  .debug_str:000000000001ac4d .LASF2855
C:\Users\SOLDER~1\AppData\Local\Temp\cc2EfhU3.s:28992  .debug_str:000000000002ba77 .LASF2856
C:\Users\SOLDER~1\AppData\Local\Temp\cc2EfhU3.s:21360  .debug_str:000000000000c81b .LASF2857
GAS LISTING C:\Users\SOLDER~1\AppData\Local\Temp\cc2EfhU3.s 			page 61


C:\Users\SOLDER~1\AppData\Local\Temp\cc2EfhU3.s:25774  .debug_str:000000000001e84a .LASF2858
C:\Users\SOLDER~1\AppData\Local\Temp\cc2EfhU3.s:19616  .debug_str:000000000000551b .LASF2859
C:\Users\SOLDER~1\AppData\Local\Temp\cc2EfhU3.s:19150  .debug_str:00000000000037fe .LASF2860
C:\Users\SOLDER~1\AppData\Local\Temp\cc2EfhU3.s:27838  .debug_str:0000000000026f3e .LASF2861
C:\Users\SOLDER~1\AppData\Local\Temp\cc2EfhU3.s:20224  .debug_str:0000000000007d51 .LASF2862
C:\Users\SOLDER~1\AppData\Local\Temp\cc2EfhU3.s:26372  .debug_str:0000000000020f3b .LASF2863
C:\Users\SOLDER~1\AppData\Local\Temp\cc2EfhU3.s:25896  .debug_str:000000000001f04a .LASF2864
C:\Users\SOLDER~1\AppData\Local\Temp\cc2EfhU3.s:22726  .debug_str:00000000000120d8 .LASF2865
C:\Users\SOLDER~1\AppData\Local\Temp\cc2EfhU3.s:21244  .debug_str:000000000000c005 .LASF2866
C:\Users\SOLDER~1\AppData\Local\Temp\cc2EfhU3.s:22428  .debug_str:0000000000010dbd .LASF2867
C:\Users\SOLDER~1\AppData\Local\Temp\cc2EfhU3.s:23004  .debug_str:00000000000132dd .LASF2868
C:\Users\SOLDER~1\AppData\Local\Temp\cc2EfhU3.s:29652  .debug_str:000000000002e52e .LASF2869
C:\Users\SOLDER~1\AppData\Local\Temp\cc2EfhU3.s:23016  .debug_str:00000000000133b5 .LASF2870
C:\Users\SOLDER~1\AppData\Local\Temp\cc2EfhU3.s:29130  .debug_str:000000000002c392 .LASF2871
C:\Users\SOLDER~1\AppData\Local\Temp\cc2EfhU3.s:29244  .debug_str:000000000002cac3 .LASF2872
C:\Users\SOLDER~1\AppData\Local\Temp\cc2EfhU3.s:24870  .debug_str:000000000001ad16 .LASF2873
C:\Users\SOLDER~1\AppData\Local\Temp\cc2EfhU3.s:29160  .debug_str:000000000002c58d .LASF2874
C:\Users\SOLDER~1\AppData\Local\Temp\cc2EfhU3.s:26350  .debug_str:0000000000020d9f .LASF2875
C:\Users\SOLDER~1\AppData\Local\Temp\cc2EfhU3.s:22028  .debug_str:000000000000f38e .LASF2876
C:\Users\SOLDER~1\AppData\Local\Temp\cc2EfhU3.s:22130  .debug_str:000000000000fa7d .LASF2877
C:\Users\SOLDER~1\AppData\Local\Temp\cc2EfhU3.s:22040  .debug_str:000000000000f45a .LASF2878
C:\Users\SOLDER~1\AppData\Local\Temp\cc2EfhU3.s:24034  .debug_str:00000000000176ce .LASF2879
C:\Users\SOLDER~1\AppData\Local\Temp\cc2EfhU3.s:29612  .debug_str:000000000002e296 .LASF2880
C:\Users\SOLDER~1\AppData\Local\Temp\cc2EfhU3.s:21554  .debug_str:000000000000d50c .LASF2881
C:\Users\SOLDER~1\AppData\Local\Temp\cc2EfhU3.s:29692  .debug_str:000000000002e7ec .LASF2882
C:\Users\SOLDER~1\AppData\Local\Temp\cc2EfhU3.s:28832  .debug_str:000000000002b05e .LASF2883
C:\Users\SOLDER~1\AppData\Local\Temp\cc2EfhU3.s:20054  .debug_str:0000000000007255 .LASF2884
C:\Users\SOLDER~1\AppData\Local\Temp\cc2EfhU3.s:27024  .debug_str:0000000000023927 .LASF2885
C:\Users\SOLDER~1\AppData\Local\Temp\cc2EfhU3.s:19732  .debug_str:0000000000005cec .LASF2886
C:\Users\SOLDER~1\AppData\Local\Temp\cc2EfhU3.s:20338  .debug_str:00000000000084bf .LASF2887
C:\Users\SOLDER~1\AppData\Local\Temp\cc2EfhU3.s:21038  .debug_str:000000000000b2a5 .LASF2888
C:\Users\SOLDER~1\AppData\Local\Temp\cc2EfhU3.s:21088  .debug_str:000000000000b5f8 .LASF2889
C:\Users\SOLDER~1\AppData\Local\Temp\cc2EfhU3.s:20042  .debug_str:0000000000007194 .LASF2890
C:\Users\SOLDER~1\AppData\Local\Temp\cc2EfhU3.s:19078  .debug_str:000000000000336f .LASF2891
C:\Users\SOLDER~1\AppData\Local\Temp\cc2EfhU3.s:21744  .debug_str:000000000000e18f .LASF2892
C:\Users\SOLDER~1\AppData\Local\Temp\cc2EfhU3.s:23778  .debug_str:0000000000016623 .LASF2893
C:\Users\SOLDER~1\AppData\Local\Temp\cc2EfhU3.s:29454  .debug_str:000000000002d87a .LASF2894
C:\Users\SOLDER~1\AppData\Local\Temp\cc2EfhU3.s:20948  .debug_str:000000000000ad02 .LASF2895
C:\Users\SOLDER~1\AppData\Local\Temp\cc2EfhU3.s:28532  .debug_str:0000000000029c8d .LASF2896
C:\Users\SOLDER~1\AppData\Local\Temp\cc2EfhU3.s:29532  .debug_str:000000000002dd99 .LASF2897
C:\Users\SOLDER~1\AppData\Local\Temp\cc2EfhU3.s:29318  .debug_str:000000000002cffa .LASF2898
C:\Users\SOLDER~1\AppData\Local\Temp\cc2EfhU3.s:19564  .debug_str:000000000000520d .LASF2899
C:\Users\SOLDER~1\AppData\Local\Temp\cc2EfhU3.s:20536  .debug_str:0000000000009208 .LASF2900
C:\Users\SOLDER~1\AppData\Local\Temp\cc2EfhU3.s:25468  .debug_str:000000000001d473 .LASF2901
C:\Users\SOLDER~1\AppData\Local\Temp\cc2EfhU3.s:21436  .debug_str:000000000000cd47 .LASF2902
C:\Users\SOLDER~1\AppData\Local\Temp\cc2EfhU3.s:23282  .debug_str:0000000000014662 .LASF2903
C:\Users\SOLDER~1\AppData\Local\Temp\cc2EfhU3.s:28174  .debug_str:0000000000028562 .LASF2904
C:\Users\SOLDER~1\AppData\Local\Temp\cc2EfhU3.s:20716  .debug_str:0000000000009d9a .LASF2905
C:\Users\SOLDER~1\AppData\Local\Temp\cc2EfhU3.s:28280  .debug_str:0000000000028c2d .LASF2906
C:\Users\SOLDER~1\AppData\Local\Temp\cc2EfhU3.s:24304  .debug_str:0000000000018848 .LASF2907
C:\Users\SOLDER~1\AppData\Local\Temp\cc2EfhU3.s:21760  .debug_str:000000000000e29c .LASF2908
C:\Users\SOLDER~1\AppData\Local\Temp\cc2EfhU3.s:26462  .debug_str:00000000000214ec .LASF2909
C:\Users\SOLDER~1\AppData\Local\Temp\cc2EfhU3.s:27208  .debug_str:0000000000024571 .LASF2910
C:\Users\SOLDER~1\AppData\Local\Temp\cc2EfhU3.s:22574  .debug_str:0000000000011727 .LASF2911
C:\Users\SOLDER~1\AppData\Local\Temp\cc2EfhU3.s:21652  .debug_str:000000000000db0c .LASF2912
C:\Users\SOLDER~1\AppData\Local\Temp\cc2EfhU3.s:21992  .debug_str:000000000000f130 .LASF2913
C:\Users\SOLDER~1\AppData\Local\Temp\cc2EfhU3.s:18960  .debug_str:0000000000002bb9 .LASF2914
GAS LISTING C:\Users\SOLDER~1\AppData\Local\Temp\cc2EfhU3.s 			page 62


C:\Users\SOLDER~1\AppData\Local\Temp\cc2EfhU3.s:24294  .debug_str:00000000000187b9 .LASF2915
C:\Users\SOLDER~1\AppData\Local\Temp\cc2EfhU3.s:18384  .debug_str:0000000000000555 .LASF2916
C:\Users\SOLDER~1\AppData\Local\Temp\cc2EfhU3.s:26938  .debug_str:00000000000233b2 .LASF2917
C:\Users\SOLDER~1\AppData\Local\Temp\cc2EfhU3.s:21768  .debug_str:000000000000e323 .LASF2918
C:\Users\SOLDER~1\AppData\Local\Temp\cc2EfhU3.s:25890  .debug_str:000000000001eff0 .LASF2919
C:\Users\SOLDER~1\AppData\Local\Temp\cc2EfhU3.s:27176  .debug_str:000000000002433d .LASF2920
C:\Users\SOLDER~1\AppData\Local\Temp\cc2EfhU3.s:25584  .debug_str:000000000001dba0 .LASF2921
C:\Users\SOLDER~1\AppData\Local\Temp\cc2EfhU3.s:22246  .debug_str:000000000001020f .LASF2922
C:\Users\SOLDER~1\AppData\Local\Temp\cc2EfhU3.s:27232  .debug_str:0000000000024718 .LASF2923
C:\Users\SOLDER~1\AppData\Local\Temp\cc2EfhU3.s:24366  .debug_str:0000000000018ca4 .LASF2924
C:\Users\SOLDER~1\AppData\Local\Temp\cc2EfhU3.s:23930  .debug_str:0000000000016ff3 .LASF2925
C:\Users\SOLDER~1\AppData\Local\Temp\cc2EfhU3.s:23228  .debug_str:00000000000142b9 .LASF2926
C:\Users\SOLDER~1\AppData\Local\Temp\cc2EfhU3.s:21548  .debug_str:000000000000d4aa .LASF2927
C:\Users\SOLDER~1\AppData\Local\Temp\cc2EfhU3.s:21844  .debug_str:000000000000e800 .LASF2928
C:\Users\SOLDER~1\AppData\Local\Temp\cc2EfhU3.s:24156  .debug_str:0000000000017ef2 .LASF2929
C:\Users\SOLDER~1\AppData\Local\Temp\cc2EfhU3.s:25598  .debug_str:000000000001dc9d .LASF2930
C:\Users\SOLDER~1\AppData\Local\Temp\cc2EfhU3.s:27286  .debug_str:0000000000024a9f .LASF2931
C:\Users\SOLDER~1\AppData\Local\Temp\cc2EfhU3.s:27798  .debug_str:0000000000026ca9 .LASF2932
C:\Users\SOLDER~1\AppData\Local\Temp\cc2EfhU3.s:28186  .debug_str:0000000000028632 .LASF2933
C:\Users\SOLDER~1\AppData\Local\Temp\cc2EfhU3.s:25476  .debug_str:000000000001d4db .LASF2934
C:\Users\SOLDER~1\AppData\Local\Temp\cc2EfhU3.s:24292  .debug_str:000000000001879f .LASF2935
C:\Users\SOLDER~1\AppData\Local\Temp\cc2EfhU3.s:21416  .debug_str:000000000000cbee .LASF2936
C:\Users\SOLDER~1\AppData\Local\Temp\cc2EfhU3.s:18312  .debug_str:00000000000000be .LASF2937
C:\Users\SOLDER~1\AppData\Local\Temp\cc2EfhU3.s:27594  .debug_str:0000000000025ee7 .LASF2938
C:\Users\SOLDER~1\AppData\Local\Temp\cc2EfhU3.s:18570  .debug_str:0000000000001242 .LASF2939
C:\Users\SOLDER~1\AppData\Local\Temp\cc2EfhU3.s:19450  .debug_str:0000000000004b19 .LASF2940
C:\Users\SOLDER~1\AppData\Local\Temp\cc2EfhU3.s:20168  .debug_str:000000000000799e .LASF2941
C:\Users\SOLDER~1\AppData\Local\Temp\cc2EfhU3.s:27112  .debug_str:0000000000023f09 .LASF2942
C:\Users\SOLDER~1\AppData\Local\Temp\cc2EfhU3.s:27002  .debug_str:00000000000237be .LASF2943
C:\Users\SOLDER~1\AppData\Local\Temp\cc2EfhU3.s:20362  .debug_str:0000000000008637 .LASF2944
C:\Users\SOLDER~1\AppData\Local\Temp\cc2EfhU3.s:23100  .debug_str:00000000000139c9 .LASF2945
C:\Users\SOLDER~1\AppData\Local\Temp\cc2EfhU3.s:24648  .debug_str:0000000000019e6a .LASF2946
C:\Users\SOLDER~1\AppData\Local\Temp\cc2EfhU3.s:23744  .debug_str:000000000001645a .LASF2947
C:\Users\SOLDER~1\AppData\Local\Temp\cc2EfhU3.s:24188  .debug_str:00000000000180fe .LASF2948
C:\Users\SOLDER~1\AppData\Local\Temp\cc2EfhU3.s:24448  .debug_str:00000000000191d4 .LASF2949
C:\Users\SOLDER~1\AppData\Local\Temp\cc2EfhU3.s:22886  .debug_str:0000000000012b19 .LASF2950
C:\Users\SOLDER~1\AppData\Local\Temp\cc2EfhU3.s:24548  .debug_str:000000000001981f .LASF2951
C:\Users\SOLDER~1\AppData\Local\Temp\cc2EfhU3.s:19046  .debug_str:0000000000003162 .LASF2952
C:\Users\SOLDER~1\AppData\Local\Temp\cc2EfhU3.s:18510  .debug_str:0000000000000e88 .LASF2953
C:\Users\SOLDER~1\AppData\Local\Temp\cc2EfhU3.s:24352  .debug_str:0000000000018b9f .LASF2954
C:\Users\SOLDER~1\AppData\Local\Temp\cc2EfhU3.s:27578  .debug_str:0000000000025de7 .LASF2955
C:\Users\SOLDER~1\AppData\Local\Temp\cc2EfhU3.s:28310  .debug_str:0000000000028dec .LASF2956
C:\Users\SOLDER~1\AppData\Local\Temp\cc2EfhU3.s:18866  .debug_str:00000000000025d3 .LASF2957
C:\Users\SOLDER~1\AppData\Local\Temp\cc2EfhU3.s:21980  .debug_str:000000000000f06d .LASF2958
C:\Users\SOLDER~1\AppData\Local\Temp\cc2EfhU3.s:29286  .debug_str:000000000002cda0 .LASF2959
C:\Users\SOLDER~1\AppData\Local\Temp\cc2EfhU3.s:22522  .debug_str:00000000000113e2 .LASF2960
C:\Users\SOLDER~1\AppData\Local\Temp\cc2EfhU3.s:23976  .debug_str:00000000000172fd .LASF2961
C:\Users\SOLDER~1\AppData\Local\Temp\cc2EfhU3.s:19912  .debug_str:000000000000690d .LASF2962
C:\Users\SOLDER~1\AppData\Local\Temp\cc2EfhU3.s:19658  .debug_str:0000000000005813 .LASF2963
C:\Users\SOLDER~1\AppData\Local\Temp\cc2EfhU3.s:27304  .debug_str:0000000000024bc5 .LASF2964
C:\Users\SOLDER~1\AppData\Local\Temp\cc2EfhU3.s:29716  .debug_str:000000000002e97e .LASF2965
C:\Users\SOLDER~1\AppData\Local\Temp\cc2EfhU3.s:19780  .debug_str:0000000000006007 .LASF2966
C:\Users\SOLDER~1\AppData\Local\Temp\cc2EfhU3.s:18326  .debug_str:0000000000000175 .LASF2967
C:\Users\SOLDER~1\AppData\Local\Temp\cc2EfhU3.s:27702  .debug_str:0000000000026652 .LASF2968
C:\Users\SOLDER~1\AppData\Local\Temp\cc2EfhU3.s:26594  .debug_str:0000000000021d64 .LASF2969
C:\Users\SOLDER~1\AppData\Local\Temp\cc2EfhU3.s:23498  .debug_str:000000000001549c .LASF2970
C:\Users\SOLDER~1\AppData\Local\Temp\cc2EfhU3.s:22074  .debug_str:000000000000f68a .LASF2971
GAS LISTING C:\Users\SOLDER~1\AppData\Local\Temp\cc2EfhU3.s 			page 63


C:\Users\SOLDER~1\AppData\Local\Temp\cc2EfhU3.s:22820  .debug_str:00000000000126c1 .LASF2972
C:\Users\SOLDER~1\AppData\Local\Temp\cc2EfhU3.s:20920  .debug_str:000000000000ab41 .LASF2973
C:\Users\SOLDER~1\AppData\Local\Temp\cc2EfhU3.s:18758  .debug_str:0000000000001e8a .LASF2974
C:\Users\SOLDER~1\AppData\Local\Temp\cc2EfhU3.s:23010  .debug_str:0000000000013342 .LASF2975
C:\Users\SOLDER~1\AppData\Local\Temp\cc2EfhU3.s:20588  .debug_str:000000000000956e .LASF2976
C:\Users\SOLDER~1\AppData\Local\Temp\cc2EfhU3.s:26652  .debug_str:00000000000220b4 .LASF2977
C:\Users\SOLDER~1\AppData\Local\Temp\cc2EfhU3.s:29290  .debug_str:000000000002cdf0 .LASF2978
C:\Users\SOLDER~1\AppData\Local\Temp\cc2EfhU3.s:21276  .debug_str:000000000000c242 .LASF2979
C:\Users\SOLDER~1\AppData\Local\Temp\cc2EfhU3.s:26880  .debug_str:0000000000022fb7 .LASF2980
C:\Users\SOLDER~1\AppData\Local\Temp\cc2EfhU3.s:20872  .debug_str:000000000000a80b .LASF2981
C:\Users\SOLDER~1\AppData\Local\Temp\cc2EfhU3.s:29272  .debug_str:000000000002cca8 .LASF2982
C:\Users\SOLDER~1\AppData\Local\Temp\cc2EfhU3.s:23686  .debug_str:00000000000160a2 .LASF2983
C:\Users\SOLDER~1\AppData\Local\Temp\cc2EfhU3.s:25600  .debug_str:000000000001dcc6 .LASF2984
C:\Users\SOLDER~1\AppData\Local\Temp\cc2EfhU3.s:24476  .debug_str:00000000000193d4 .LASF2985
C:\Users\SOLDER~1\AppData\Local\Temp\cc2EfhU3.s:19240  .debug_str:0000000000003dd1 .LASF2986
C:\Users\SOLDER~1\AppData\Local\Temp\cc2EfhU3.s:29184  .debug_str:000000000002c6fb .LASF2987
C:\Users\SOLDER~1\AppData\Local\Temp\cc2EfhU3.s:22908  .debug_str:0000000000012c95 .LASF2988
C:\Users\SOLDER~1\AppData\Local\Temp\cc2EfhU3.s:23098  .debug_str:00000000000139a0 .LASF2989
C:\Users\SOLDER~1\AppData\Local\Temp\cc2EfhU3.s:19692  .debug_str:0000000000005a57 .LASF2990
C:\Users\SOLDER~1\AppData\Local\Temp\cc2EfhU3.s:29682  .debug_str:000000000002e760 .LASF2991
C:\Users\SOLDER~1\AppData\Local\Temp\cc2EfhU3.s:18796  .debug_str:0000000000002120 .LASF2992
C:\Users\SOLDER~1\AppData\Local\Temp\cc2EfhU3.s:27828  .debug_str:0000000000026e8c .LASF2993
C:\Users\SOLDER~1\AppData\Local\Temp\cc2EfhU3.s:20816  .debug_str:000000000000a438 .LASF2994
C:\Users\SOLDER~1\AppData\Local\Temp\cc2EfhU3.s:18978  .debug_str:0000000000002cf7 .LASF2995
C:\Users\SOLDER~1\AppData\Local\Temp\cc2EfhU3.s:27646  .debug_str:00000000000262b6 .LASF2996
C:\Users\SOLDER~1\AppData\Local\Temp\cc2EfhU3.s:21646  .debug_str:000000000000da99 .LASF2997
C:\Users\SOLDER~1\AppData\Local\Temp\cc2EfhU3.s:23172  .debug_str:0000000000013ed5 .LASF2998
C:\Users\SOLDER~1\AppData\Local\Temp\cc2EfhU3.s:29730  .debug_str:000000000002ea57 .LASF2999
C:\Users\SOLDER~1\AppData\Local\Temp\cc2EfhU3.s:22176  .debug_str:000000000000fdc4 .LASF3000
C:\Users\SOLDER~1\AppData\Local\Temp\cc2EfhU3.s:24744  .debug_str:000000000001a483 .LASF3001
C:\Users\SOLDER~1\AppData\Local\Temp\cc2EfhU3.s:23052  .debug_str:000000000001362c .LASF3002
C:\Users\SOLDER~1\AppData\Local\Temp\cc2EfhU3.s:26606  .debug_str:0000000000021e16 .LASF3003
C:\Users\SOLDER~1\AppData\Local\Temp\cc2EfhU3.s:23592  .debug_str:0000000000015a8e .LASF3004
C:\Users\SOLDER~1\AppData\Local\Temp\cc2EfhU3.s:27260  .debug_str:00000000000248f8 .LASF3005
C:\Users\SOLDER~1\AppData\Local\Temp\cc2EfhU3.s:25100  .debug_str:000000000001bb84 .LASF3006
C:\Users\SOLDER~1\AppData\Local\Temp\cc2EfhU3.s:26660  .debug_str:0000000000022139 .LASF3007
C:\Users\SOLDER~1\AppData\Local\Temp\cc2EfhU3.s:25726  .debug_str:000000000001e4e3 .LASF3008
C:\Users\SOLDER~1\AppData\Local\Temp\cc2EfhU3.s:29186  .debug_str:000000000002c714 .LASF3009
C:\Users\SOLDER~1\AppData\Local\Temp\cc2EfhU3.s:24780  .debug_str:000000000001a708 .LASF3010
C:\Users\SOLDER~1\AppData\Local\Temp\cc2EfhU3.s:29414  .debug_str:000000000002d619 .LASF3011
C:\Users\SOLDER~1\AppData\Local\Temp\cc2EfhU3.s:26076  .debug_str:000000000001fbe6 .LASF3012
C:\Users\SOLDER~1\AppData\Local\Temp\cc2EfhU3.s:20610  .debug_str:00000000000096b8 .LASF3013
C:\Users\SOLDER~1\AppData\Local\Temp\cc2EfhU3.s:22272  .debug_str:00000000000103ef .LASF3014
C:\Users\SOLDER~1\AppData\Local\Temp\cc2EfhU3.s:23156  .debug_str:0000000000013dbf .LASF3015
C:\Users\SOLDER~1\AppData\Local\Temp\cc2EfhU3.s:24118  .debug_str:0000000000017c39 .LASF3016
C:\Users\SOLDER~1\AppData\Local\Temp\cc2EfhU3.s:21226  .debug_str:000000000000beda .LASF3017
C:\Users\SOLDER~1\AppData\Local\Temp\cc2EfhU3.s:20638  .debug_str:00000000000098a5 .LASF3018
C:\Users\SOLDER~1\AppData\Local\Temp\cc2EfhU3.s:19340  .debug_str:000000000000442b .LASF3019
C:\Users\SOLDER~1\AppData\Local\Temp\cc2EfhU3.s:29628  .debug_str:000000000002e3a5 .LASF3020
C:\Users\SOLDER~1\AppData\Local\Temp\cc2EfhU3.s:28954  .debug_str:000000000002b810 .LASF3021
C:\Users\SOLDER~1\AppData\Local\Temp\cc2EfhU3.s:25592  .debug_str:000000000001dc36 .LASF3022
C:\Users\SOLDER~1\AppData\Local\Temp\cc2EfhU3.s:27012  .debug_str:0000000000023853 .LASF3023
C:\Users\SOLDER~1\AppData\Local\Temp\cc2EfhU3.s:27584  .debug_str:0000000000025e3b .LASF3024
C:\Users\SOLDER~1\AppData\Local\Temp\cc2EfhU3.s:25252  .debug_str:000000000001c5f1 .LASF3025
C:\Users\SOLDER~1\AppData\Local\Temp\cc2EfhU3.s:18882  .debug_str:00000000000026cf .LASF3026
C:\Users\SOLDER~1\AppData\Local\Temp\cc2EfhU3.s:23392  .debug_str:0000000000014db2 .LASF3027
C:\Users\SOLDER~1\AppData\Local\Temp\cc2EfhU3.s:27914  .debug_str:000000000002744e .LASF3028
GAS LISTING C:\Users\SOLDER~1\AppData\Local\Temp\cc2EfhU3.s 			page 64


C:\Users\SOLDER~1\AppData\Local\Temp\cc2EfhU3.s:21476  .debug_str:000000000000cff8 .LASF3029
C:\Users\SOLDER~1\AppData\Local\Temp\cc2EfhU3.s:26566  .debug_str:0000000000021b90 .LASF3030
C:\Users\SOLDER~1\AppData\Local\Temp\cc2EfhU3.s:18846  .debug_str:000000000000248b .LASF3031
C:\Users\SOLDER~1\AppData\Local\Temp\cc2EfhU3.s:26868  .debug_str:0000000000022f04 .LASF3032
C:\Users\SOLDER~1\AppData\Local\Temp\cc2EfhU3.s:29206  .debug_str:000000000002c85e .LASF3033
C:\Users\SOLDER~1\AppData\Local\Temp\cc2EfhU3.s:22784  .debug_str:000000000001248b .LASF3034
C:\Users\SOLDER~1\AppData\Local\Temp\cc2EfhU3.s:28580  .debug_str:0000000000029fdb .LASF3035
C:\Users\SOLDER~1\AppData\Local\Temp\cc2EfhU3.s:23694  .debug_str:000000000001611e .LASF3036
C:\Users\SOLDER~1\AppData\Local\Temp\cc2EfhU3.s:26832  .debug_str:0000000000022ccb .LASF3037
C:\Users\SOLDER~1\AppData\Local\Temp\cc2EfhU3.s:18702  .debug_str:0000000000001acd .LASF3038
C:\Users\SOLDER~1\AppData\Local\Temp\cc2EfhU3.s:18754  .debug_str:0000000000001e47 .LASF3039
C:\Users\SOLDER~1\AppData\Local\Temp\cc2EfhU3.s:18920  .debug_str:0000000000002983 .LASF3040
C:\Users\SOLDER~1\AppData\Local\Temp\cc2EfhU3.s:23632  .debug_str:0000000000015d1a .LASF3041
C:\Users\SOLDER~1\AppData\Local\Temp\cc2EfhU3.s:22346  .debug_str:00000000000108ae .LASF3042
C:\Users\SOLDER~1\AppData\Local\Temp\cc2EfhU3.s:21888  .debug_str:000000000000eaad .LASF3043
C:\Users\SOLDER~1\AppData\Local\Temp\cc2EfhU3.s:24432  .debug_str:00000000000190da .LASF3044
C:\Users\SOLDER~1\AppData\Local\Temp\cc2EfhU3.s:20270  .debug_str:0000000000008052 .LASF3045
C:\Users\SOLDER~1\AppData\Local\Temp\cc2EfhU3.s:21550  .debug_str:000000000000d4c4 .LASF3046
C:\Users\SOLDER~1\AppData\Local\Temp\cc2EfhU3.s:24178  .debug_str:0000000000018076 .LASF3047
C:\Users\SOLDER~1\AppData\Local\Temp\cc2EfhU3.s:26808  .debug_str:0000000000022b4a .LASF3048
C:\Users\SOLDER~1\AppData\Local\Temp\cc2EfhU3.s:22714  .debug_str:0000000000012015 .LASF3049
C:\Users\SOLDER~1\AppData\Local\Temp\cc2EfhU3.s:25978  .debug_str:000000000001f5e6 .LASF3050
C:\Users\SOLDER~1\AppData\Local\Temp\cc2EfhU3.s:20384  .debug_str:00000000000087bb .LASF3051
C:\Users\SOLDER~1\AppData\Local\Temp\cc2EfhU3.s:21216  .debug_str:000000000000be2d .LASF3052
C:\Users\SOLDER~1\AppData\Local\Temp\cc2EfhU3.s:18594  .debug_str:00000000000013d3 .LASF3053
C:\Users\SOLDER~1\AppData\Local\Temp\cc2EfhU3.s:29570  .debug_str:000000000002dfee .LASF3054
C:\Users\SOLDER~1\AppData\Local\Temp\cc2EfhU3.s:28158  .debug_str:0000000000028432 .LASF3055
C:\Users\SOLDER~1\AppData\Local\Temp\cc2EfhU3.s:23516  .debug_str:00000000000155ce .LASF3056
C:\Users\SOLDER~1\AppData\Local\Temp\cc2EfhU3.s:26248  .debug_str:0000000000020721 .LASF3057
C:\Users\SOLDER~1\AppData\Local\Temp\cc2EfhU3.s:22828  .debug_str:000000000001273e .LASF3058
C:\Users\SOLDER~1\AppData\Local\Temp\cc2EfhU3.s:23408  .debug_str:0000000000014eb2 .LASF3059
C:\Users\SOLDER~1\AppData\Local\Temp\cc2EfhU3.s:20406  .debug_str:000000000000890b .LASF3060
C:\Users\SOLDER~1\AppData\Local\Temp\cc2EfhU3.s:22514  .debug_str:000000000001133f .LASF3061
C:\Users\SOLDER~1\AppData\Local\Temp\cc2EfhU3.s:24618  .debug_str:0000000000019c74 .LASF3062
C:\Users\SOLDER~1\AppData\Local\Temp\cc2EfhU3.s:18722  .debug_str:0000000000001c21 .LASF3063
C:\Users\SOLDER~1\AppData\Local\Temp\cc2EfhU3.s:19228  .debug_str:0000000000003d10 .LASF3064
C:\Users\SOLDER~1\AppData\Local\Temp\cc2EfhU3.s:27836  .debug_str:0000000000026f25 .LASF3065
C:\Users\SOLDER~1\AppData\Local\Temp\cc2EfhU3.s:24122  .debug_str:0000000000017c87 .LASF3066
C:\Users\SOLDER~1\AppData\Local\Temp\cc2EfhU3.s:24994  .debug_str:000000000001b4d1 .LASF3067
C:\Users\SOLDER~1\AppData\Local\Temp\cc2EfhU3.s:22368  .debug_str:0000000000010a13 .LASF3068
C:\Users\SOLDER~1\AppData\Local\Temp\cc2EfhU3.s:24228  .debug_str:0000000000018378 .LASF3069
C:\Users\SOLDER~1\AppData\Local\Temp\cc2EfhU3.s:28854  .debug_str:000000000002b195 .LASF3070
C:\Users\SOLDER~1\AppData\Local\Temp\cc2EfhU3.s:25008  .debug_str:000000000001b5a3 .LASF3071
C:\Users\SOLDER~1\AppData\Local\Temp\cc2EfhU3.s:20630  .debug_str:0000000000009814 .LASF3072
C:\Users\SOLDER~1\AppData\Local\Temp\cc2EfhU3.s:28680  .debug_str:000000000002a64c .LASF3073
C:\Users\SOLDER~1\AppData\Local\Temp\cc2EfhU3.s:28176  .debug_str:000000000002858c .LASF3074
C:\Users\SOLDER~1\AppData\Local\Temp\cc2EfhU3.s:29196  .debug_str:000000000002c7c3 .LASF3075
C:\Users\SOLDER~1\AppData\Local\Temp\cc2EfhU3.s:25672  .debug_str:000000000001e153 .LASF3076
C:\Users\SOLDER~1\AppData\Local\Temp\cc2EfhU3.s:29082  .debug_str:000000000002c0b0 .LASF3077
C:\Users\SOLDER~1\AppData\Local\Temp\cc2EfhU3.s:20250  .debug_str:0000000000007efd .LASF3078
C:\Users\SOLDER~1\AppData\Local\Temp\cc2EfhU3.s:25484  .debug_str:000000000001d55f .LASF3079
C:\Users\SOLDER~1\AppData\Local\Temp\cc2EfhU3.s:28138  .debug_str:00000000000282f0 .LASF3080
C:\Users\SOLDER~1\AppData\Local\Temp\cc2EfhU3.s:21130  .debug_str:000000000000b891 .LASF3081
C:\Users\SOLDER~1\AppData\Local\Temp\cc2EfhU3.s:28420  .debug_str:000000000002955a .LASF3082
C:\Users\SOLDER~1\AppData\Local\Temp\cc2EfhU3.s:19232  .debug_str:0000000000003d58 .LASF3083
C:\Users\SOLDER~1\AppData\Local\Temp\cc2EfhU3.s:19806  .debug_str:00000000000061f0 .LASF3084
C:\Users\SOLDER~1\AppData\Local\Temp\cc2EfhU3.s:28840  .debug_str:000000000002b0d2 .LASF3085
GAS LISTING C:\Users\SOLDER~1\AppData\Local\Temp\cc2EfhU3.s 			page 65


C:\Users\SOLDER~1\AppData\Local\Temp\cc2EfhU3.s:23472  .debug_str:00000000000152e4 .LASF3086
C:\Users\SOLDER~1\AppData\Local\Temp\cc2EfhU3.s:26912  .debug_str:000000000002320d .LASF3087
C:\Users\SOLDER~1\AppData\Local\Temp\cc2EfhU3.s:23438  .debug_str:0000000000015094 .LASF3088
C:\Users\SOLDER~1\AppData\Local\Temp\cc2EfhU3.s:25072  .debug_str:000000000001b9d0 .LASF3089
C:\Users\SOLDER~1\AppData\Local\Temp\cc2EfhU3.s:24170  .debug_str:0000000000017fe7 .LASF3090
C:\Users\SOLDER~1\AppData\Local\Temp\cc2EfhU3.s:28344  .debug_str:000000000002903f .LASF3091
C:\Users\SOLDER~1\AppData\Local\Temp\cc2EfhU3.s:19650  .debug_str:0000000000005775 .LASF3092
C:\Users\SOLDER~1\AppData\Local\Temp\cc2EfhU3.s:21358  .debug_str:000000000000c804 .LASF3093
C:\Users\SOLDER~1\AppData\Local\Temp\cc2EfhU3.s:27542  .debug_str:0000000000025b46 .LASF3094
C:\Users\SOLDER~1\AppData\Local\Temp\cc2EfhU3.s:23692  .debug_str:0000000000016107 .LASF3095
C:\Users\SOLDER~1\AppData\Local\Temp\cc2EfhU3.s:26022  .debug_str:000000000001f8a4 .LASF3096
C:\Users\SOLDER~1\AppData\Local\Temp\cc2EfhU3.s:29096  .debug_str:000000000002c183 .LASF3097
C:\Users\SOLDER~1\AppData\Local\Temp\cc2EfhU3.s:21954  .debug_str:000000000000eef1 .LASF3098
C:\Users\SOLDER~1\AppData\Local\Temp\cc2EfhU3.s:23728  .debug_str:000000000001633b .LASF3099
C:\Users\SOLDER~1\AppData\Local\Temp\cc2EfhU3.s:28938  .debug_str:000000000002b707 .LASF3100
C:\Users\SOLDER~1\AppData\Local\Temp\cc2EfhU3.s:22592  .debug_str:000000000001186a .LASF3101
C:\Users\SOLDER~1\AppData\Local\Temp\cc2EfhU3.s:21912  .debug_str:000000000000ec3f .LASF3102
C:\Users\SOLDER~1\AppData\Local\Temp\cc2EfhU3.s:23494  .debug_str:0000000000015463 .LASF3103
C:\Users\SOLDER~1\AppData\Local\Temp\cc2EfhU3.s:20968  .debug_str:000000000000ae5a .LASF3104
C:\Users\SOLDER~1\AppData\Local\Temp\cc2EfhU3.s:21798  .debug_str:000000000000e4f0 .LASF3105
C:\Users\SOLDER~1\AppData\Local\Temp\cc2EfhU3.s:28652  .debug_str:000000000002a4a7 .LASF3106
C:\Users\SOLDER~1\AppData\Local\Temp\cc2EfhU3.s:20152  .debug_str:000000000000785d .LASF3107
C:\Users\SOLDER~1\AppData\Local\Temp\cc2EfhU3.s:26480  .debug_str:0000000000021607 .LASF3108
C:\Users\SOLDER~1\AppData\Local\Temp\cc2EfhU3.s:18534  .debug_str:0000000000000fff .LASF3109
C:\Users\SOLDER~1\AppData\Local\Temp\cc2EfhU3.s:23554  .debug_str:000000000001582b .LASF3110
C:\Users\SOLDER~1\AppData\Local\Temp\cc2EfhU3.s:19252  .debug_str:0000000000003ea6 .LASF3111
C:\Users\SOLDER~1\AppData\Local\Temp\cc2EfhU3.s:27330  .debug_str:0000000000024d6f .LASF3112
C:\Users\SOLDER~1\AppData\Local\Temp\cc2EfhU3.s:27006  .debug_str:00000000000237fd .LASF3113
C:\Users\SOLDER~1\AppData\Local\Temp\cc2EfhU3.s:25384  .debug_str:000000000001ceaa .LASF3114
C:\Users\SOLDER~1\AppData\Local\Temp\cc2EfhU3.s:25320  .debug_str:000000000001ca90 .LASF3115
C:\Users\SOLDER~1\AppData\Local\Temp\cc2EfhU3.s:26918  .debug_str:0000000000023277 .LASF3116
C:\Users\SOLDER~1\AppData\Local\Temp\cc2EfhU3.s:22198  .debug_str:000000000000ff36 .LASF3117
C:\Users\SOLDER~1\AppData\Local\Temp\cc2EfhU3.s:25606  .debug_str:000000000001dd33 .LASF3118
C:\Users\SOLDER~1\AppData\Local\Temp\cc2EfhU3.s:24816  .debug_str:000000000001a92f .LASF3119
C:\Users\SOLDER~1\AppData\Local\Temp\cc2EfhU3.s:25546  .debug_str:000000000001d904 .LASF3120
C:\Users\SOLDER~1\AppData\Local\Temp\cc2EfhU3.s:23122  .debug_str:0000000000013b73 .LASF3121
C:\Users\SOLDER~1\AppData\Local\Temp\cc2EfhU3.s:28594  .debug_str:000000000002a0dc .LASF3122
C:\Users\SOLDER~1\AppData\Local\Temp\cc2EfhU3.s:19932  .debug_str:0000000000006a53 .LASF3123
C:\Users\SOLDER~1\AppData\Local\Temp\cc2EfhU3.s:20724  .debug_str:0000000000009e13 .LASF3124
C:\Users\SOLDER~1\AppData\Local\Temp\cc2EfhU3.s:19832  .debug_str:00000000000063ac .LASF3125
C:\Users\SOLDER~1\AppData\Local\Temp\cc2EfhU3.s:22740  .debug_str:00000000000121bc .LASF3126
C:\Users\SOLDER~1\AppData\Local\Temp\cc2EfhU3.s:19028  .debug_str:000000000000302d .LASF3127
C:\Users\SOLDER~1\AppData\Local\Temp\cc2EfhU3.s:28116  .debug_str:0000000000028193 .LASF3128
C:\Users\SOLDER~1\AppData\Local\Temp\cc2EfhU3.s:27950  .debug_str:00000000000276a5 .LASF3129
C:\Users\SOLDER~1\AppData\Local\Temp\cc2EfhU3.s:22134  .debug_str:000000000000fad4 .LASF3130
C:\Users\SOLDER~1\AppData\Local\Temp\cc2EfhU3.s:28416  .debug_str:0000000000029517 .LASF3131
C:\Users\SOLDER~1\AppData\Local\Temp\cc2EfhU3.s:23210  .debug_str:0000000000014173 .LASF3132
C:\Users\SOLDER~1\AppData\Local\Temp\cc2EfhU3.s:20576  .debug_str:00000000000094c7 .LASF3133
C:\Users\SOLDER~1\AppData\Local\Temp\cc2EfhU3.s:18782  .debug_str:0000000000002010 .LASF3134
C:\Users\SOLDER~1\AppData\Local\Temp\cc2EfhU3.s:19436  .debug_str:0000000000004a27 .LASF3135
C:\Users\SOLDER~1\AppData\Local\Temp\cc2EfhU3.s:24002  .debug_str:00000000000174c8 .LASF3136
C:\Users\SOLDER~1\AppData\Local\Temp\cc2EfhU3.s:20346  .debug_str:0000000000008542 .LASF3137
C:\Users\SOLDER~1\AppData\Local\Temp\cc2EfhU3.s:26094  .debug_str:000000000001fd0f .LASF3138
C:\Users\SOLDER~1\AppData\Local\Temp\cc2EfhU3.s:26968  .debug_str:00000000000235c5 .LASF3139
C:\Users\SOLDER~1\AppData\Local\Temp\cc2EfhU3.s:18420  .debug_str:000000000000081e .LASF3140
C:\Users\SOLDER~1\AppData\Local\Temp\cc2EfhU3.s:28692  .debug_str:000000000002a6f3 .LASF3141
C:\Users\SOLDER~1\AppData\Local\Temp\cc2EfhU3.s:20052  .debug_str:000000000000722f .LASF3142
GAS LISTING C:\Users\SOLDER~1\AppData\Local\Temp\cc2EfhU3.s 			page 66


C:\Users\SOLDER~1\AppData\Local\Temp\cc2EfhU3.s:19624  .debug_str:00000000000055a9 .LASF3143
C:\Users\SOLDER~1\AppData\Local\Temp\cc2EfhU3.s:24102  .debug_str:0000000000017b2e .LASF3144
C:\Users\SOLDER~1\AppData\Local\Temp\cc2EfhU3.s:28774  .debug_str:000000000002ac44 .LASF3145
C:\Users\SOLDER~1\AppData\Local\Temp\cc2EfhU3.s:20622  .debug_str:000000000000978e .LASF3146
C:\Users\SOLDER~1\AppData\Local\Temp\cc2EfhU3.s:26404  .debug_str:0000000000021161 .LASF3147
C:\Users\SOLDER~1\AppData\Local\Temp\cc2EfhU3.s:19706  .debug_str:0000000000005b5c .LASF3148
C:\Users\SOLDER~1\AppData\Local\Temp\cc2EfhU3.s:24134  .debug_str:0000000000017d64 .LASF3149
C:\Users\SOLDER~1\AppData\Local\Temp\cc2EfhU3.s:28226  .debug_str:00000000000288cb .LASF3150
C:\Users\SOLDER~1\AppData\Local\Temp\cc2EfhU3.s:26382  .debug_str:0000000000020fff .LASF3151
C:\Users\SOLDER~1\AppData\Local\Temp\cc2EfhU3.s:27566  .debug_str:0000000000025cf6 .LASF3152
C:\Users\SOLDER~1\AppData\Local\Temp\cc2EfhU3.s:24542  .debug_str:00000000000197c0 .LASF3153
C:\Users\SOLDER~1\AppData\Local\Temp\cc2EfhU3.s:18868  .debug_str:00000000000025ee .LASF3154
C:\Users\SOLDER~1\AppData\Local\Temp\cc2EfhU3.s:22640  .debug_str:0000000000011b7b .LASF3155
C:\Users\SOLDER~1\AppData\Local\Temp\cc2EfhU3.s:27902  .debug_str:000000000002738e .LASF3156
C:\Users\SOLDER~1\AppData\Local\Temp\cc2EfhU3.s:20736  .debug_str:0000000000009eee .LASF3157
C:\Users\SOLDER~1\AppData\Local\Temp\cc2EfhU3.s:26548  .debug_str:0000000000021a51 .LASF3158
C:\Users\SOLDER~1\AppData\Local\Temp\cc2EfhU3.s:18952  .debug_str:0000000000002b5b .LASF3159
C:\Users\SOLDER~1\AppData\Local\Temp\cc2EfhU3.s:26854  .debug_str:0000000000022e17 .LASF3160
C:\Users\SOLDER~1\AppData\Local\Temp\cc2EfhU3.s:28542  .debug_str:0000000000029d31 .LASF3161
C:\Users\SOLDER~1\AppData\Local\Temp\cc2EfhU3.s:29214  .debug_str:000000000002c8de .LASF3162
C:\Users\SOLDER~1\AppData\Local\Temp\cc2EfhU3.s:28844  .debug_str:000000000002b101 .LASF3163
C:\Users\SOLDER~1\AppData\Local\Temp\cc2EfhU3.s:26226  .debug_str:00000000000205b0 .LASF3164
C:\Users\SOLDER~1\AppData\Local\Temp\cc2EfhU3.s:21806  .debug_str:000000000000e564 .LASF3165
C:\Users\SOLDER~1\AppData\Local\Temp\cc2EfhU3.s:26818  .debug_str:0000000000022be9 .LASF3166
C:\Users\SOLDER~1\AppData\Local\Temp\cc2EfhU3.s:22646  .debug_str:0000000000011bee .LASF3167
C:\Users\SOLDER~1\AppData\Local\Temp\cc2EfhU3.s:29356  .debug_str:000000000002d265 .LASF3168
C:\Users\SOLDER~1\AppData\Local\Temp\cc2EfhU3.s:21006  .debug_str:000000000000b0a4 .LASF3169
C:\Users\SOLDER~1\AppData\Local\Temp\cc2EfhU3.s:27546  .debug_str:0000000000025b8c .LASF3170
C:\Users\SOLDER~1\AppData\Local\Temp\cc2EfhU3.s:19276  .debug_str:0000000000004015 .LASF3171
C:\Users\SOLDER~1\AppData\Local\Temp\cc2EfhU3.s:27544  .debug_str:0000000000025b6b .LASF3172
C:\Users\SOLDER~1\AppData\Local\Temp\cc2EfhU3.s:19352  .debug_str:00000000000044e2 .LASF3173
C:\Users\SOLDER~1\AppData\Local\Temp\cc2EfhU3.s:23638  .debug_str:0000000000015d77 .LASF3174
C:\Users\SOLDER~1\AppData\Local\Temp\cc2EfhU3.s:24616  .debug_str:0000000000019c61 .LASF3175
C:\Users\SOLDER~1\AppData\Local\Temp\cc2EfhU3.s:25406  .debug_str:000000000001d066 .LASF3176
C:\Users\SOLDER~1\AppData\Local\Temp\cc2EfhU3.s:22710  .debug_str:0000000000011fe0 .LASF3177
C:\Users\SOLDER~1\AppData\Local\Temp\cc2EfhU3.s:24916  .debug_str:000000000001afd0 .LASF3178
C:\Users\SOLDER~1\AppData\Local\Temp\cc2EfhU3.s:20802  .debug_str:000000000000a34a .LASF3179
C:\Users\SOLDER~1\AppData\Local\Temp\cc2EfhU3.s:27334  .debug_str:0000000000024db8 .LASF3180
C:\Users\SOLDER~1\AppData\Local\Temp\cc2EfhU3.s:21156  .debug_str:000000000000ba48 .LASF3181
C:\Users\SOLDER~1\AppData\Local\Temp\cc2EfhU3.s:25790  .debug_str:000000000001e954 .LASF3182
C:\Users\SOLDER~1\AppData\Local\Temp\cc2EfhU3.s:28610  .debug_str:000000000002a1e9 .LASF3183
C:\Users\SOLDER~1\AppData\Local\Temp\cc2EfhU3.s:28208  .debug_str:00000000000287a2 .LASF3184
C:\Users\SOLDER~1\AppData\Local\Temp\cc2EfhU3.s:26686  .debug_str:0000000000022307 .LASF3185
C:\Users\SOLDER~1\AppData\Local\Temp\cc2EfhU3.s:26354  .debug_str:0000000000020de9 .LASF3186
C:\Users\SOLDER~1\AppData\Local\Temp\cc2EfhU3.s:24842  .debug_str:000000000001ab4f .LASF3187
C:\Users\SOLDER~1\AppData\Local\Temp\cc2EfhU3.s:21908  .debug_str:000000000000ebf8 .LASF3188
C:\Users\SOLDER~1\AppData\Local\Temp\cc2EfhU3.s:23310  .debug_str:0000000000014834 .LASF3189
C:\Users\SOLDER~1\AppData\Local\Temp\cc2EfhU3.s:18560  .debug_str:00000000000011a7 .LASF3190
C:\Users\SOLDER~1\AppData\Local\Temp\cc2EfhU3.s:20812  .debug_str:000000000000a3f0 .LASF3191
C:\Users\SOLDER~1\AppData\Local\Temp\cc2EfhU3.s:28266  .debug_str:0000000000028b48 .LASF3192
C:\Users\SOLDER~1\AppData\Local\Temp\cc2EfhU3.s:19168  .debug_str:0000000000003935 .LASF3193
C:\Users\SOLDER~1\AppData\Local\Temp\cc2EfhU3.s:23642  .debug_str:0000000000015dbb .LASF3194
C:\Users\SOLDER~1\AppData\Local\Temp\cc2EfhU3.s:28682  .debug_str:000000000002a667 .LASF3195
C:\Users\SOLDER~1\AppData\Local\Temp\cc2EfhU3.s:20772  .debug_str:000000000000a15e .LASF3196
C:\Users\SOLDER~1\AppData\Local\Temp\cc2EfhU3.s:26996  .debug_str:0000000000023789 .LASF3197
C:\Users\SOLDER~1\AppData\Local\Temp\cc2EfhU3.s:25250  .debug_str:000000000001c5cf .LASF3198
C:\Users\SOLDER~1\AppData\Local\Temp\cc2EfhU3.s:18946  .debug_str:0000000000002b1e .LASF3199
GAS LISTING C:\Users\SOLDER~1\AppData\Local\Temp\cc2EfhU3.s 			page 67


C:\Users\SOLDER~1\AppData\Local\Temp\cc2EfhU3.s:24350  .debug_str:0000000000018b7d .LASF3200
C:\Users\SOLDER~1\AppData\Local\Temp\cc2EfhU3.s:23724  .debug_str:0000000000016307 .LASF3201
C:\Users\SOLDER~1\AppData\Local\Temp\cc2EfhU3.s:20516  .debug_str:0000000000009094 .LASF3202
C:\Users\SOLDER~1\AppData\Local\Temp\cc2EfhU3.s:27054  .debug_str:0000000000023b2a .LASF3203
C:\Users\SOLDER~1\AppData\Local\Temp\cc2EfhU3.s:21838  .debug_str:000000000000e7a0 .LASF3204
C:\Users\SOLDER~1\AppData\Local\Temp\cc2EfhU3.s:20352  .debug_str:0000000000008598 .LASF3205
C:\Users\SOLDER~1\AppData\Local\Temp\cc2EfhU3.s:19866  .debug_str:00000000000065c9 .LASF3206
C:\Users\SOLDER~1\AppData\Local\Temp\cc2EfhU3.s:27582  .debug_str:0000000000025e27 .LASF3207
C:\Users\SOLDER~1\AppData\Local\Temp\cc2EfhU3.s:20696  .debug_str:0000000000009c14 .LASF3208
C:\Users\SOLDER~1\AppData\Local\Temp\cc2EfhU3.s:22746  .debug_str:000000000001221a .LASF3209
C:\Users\SOLDER~1\AppData\Local\Temp\cc2EfhU3.s:22742  .debug_str:00000000000121e1 .LASF3210
C:\Users\SOLDER~1\AppData\Local\Temp\cc2EfhU3.s:23796  .debug_str:000000000001676c .LASF3211
C:\Users\SOLDER~1\AppData\Local\Temp\cc2EfhU3.s:28086  .debug_str:0000000000027fb8 .LASF3212
C:\Users\SOLDER~1\AppData\Local\Temp\cc2EfhU3.s:27716  .debug_str:0000000000026735 .LASF3213
C:\Users\SOLDER~1\AppData\Local\Temp\cc2EfhU3.s:25436  .debug_str:000000000001d26f .LASF3214
C:\Users\SOLDER~1\AppData\Local\Temp\cc2EfhU3.s:19738  .debug_str:0000000000005d5a .LASF3215
C:\Users\SOLDER~1\AppData\Local\Temp\cc2EfhU3.s:27156  .debug_str:00000000000241f7 .LASF3216
C:\Users\SOLDER~1\AppData\Local\Temp\cc2EfhU3.s:28412  .debug_str:00000000000294da .LASF3217
C:\Users\SOLDER~1\AppData\Local\Temp\cc2EfhU3.s:21988  .debug_str:000000000000f0f7 .LASF3218
C:\Users\SOLDER~1\AppData\Local\Temp\cc2EfhU3.s:25582  .debug_str:000000000001db7f .LASF3219
C:\Users\SOLDER~1\AppData\Local\Temp\cc2EfhU3.s:23774  .debug_str:00000000000165f4 .LASF3220
C:\Users\SOLDER~1\AppData\Local\Temp\cc2EfhU3.s:25588  .debug_str:000000000001dbee .LASF3221
C:\Users\SOLDER~1\AppData\Local\Temp\cc2EfhU3.s:20928  .debug_str:000000000000abb0 .LASF3222
C:\Users\SOLDER~1\AppData\Local\Temp\cc2EfhU3.s:20398  .debug_str:000000000000888a .LASF3223
C:\Users\SOLDER~1\AppData\Local\Temp\cc2EfhU3.s:29226  .debug_str:000000000002c99f .LASF3224
C:\Users\SOLDER~1\AppData\Local\Temp\cc2EfhU3.s:20086  .debug_str:0000000000007476 .LASF3225
C:\Users\SOLDER~1\AppData\Local\Temp\cc2EfhU3.s:28304  .debug_str:0000000000028d93 .LASF3226
C:\Users\SOLDER~1\AppData\Local\Temp\cc2EfhU3.s:26318  .debug_str:0000000000020b98 .LASF3227
C:\Users\SOLDER~1\AppData\Local\Temp\cc2EfhU3.s:23812  .debug_str:0000000000016883 .LASF3228
C:\Users\SOLDER~1\AppData\Local\Temp\cc2EfhU3.s:21122  .debug_str:000000000000b812 .LASF3229
C:\Users\SOLDER~1\AppData\Local\Temp\cc2EfhU3.s:18500  .debug_str:0000000000000dff .LASF3230
C:\Users\SOLDER~1\AppData\Local\Temp\cc2EfhU3.s:27436  .debug_str:000000000002540b .LASF3231
C:\Users\SOLDER~1\AppData\Local\Temp\cc2EfhU3.s:28574  .debug_str:0000000000029f73 .LASF3232
C:\Users\SOLDER~1\AppData\Local\Temp\cc2EfhU3.s:18750  .debug_str:0000000000001e0d .LASF3233
C:\Users\SOLDER~1\AppData\Local\Temp\cc2EfhU3.s:22806  .debug_str:00000000000125f9 .LASF3234
C:\Users\SOLDER~1\AppData\Local\Temp\cc2EfhU3.s:29474  .debug_str:000000000002d9c4 .LASF3235
C:\Users\SOLDER~1\AppData\Local\Temp\cc2EfhU3.s:27268  .debug_str:0000000000024986 .LASF3236
C:\Users\SOLDER~1\AppData\Local\Temp\cc2EfhU3.s:21932  .debug_str:000000000000ed84 .LASF3237
C:\Users\SOLDER~1\AppData\Local\Temp\cc2EfhU3.s:25554  .debug_str:000000000001d99d .LASF3238
C:\Users\SOLDER~1\AppData\Local\Temp\cc2EfhU3.s:29128  .debug_str:000000000002c371 .LASF3239
C:\Users\SOLDER~1\AppData\Local\Temp\cc2EfhU3.s:29452  .debug_str:000000000002d859 .LASF3240
C:\Users\SOLDER~1\AppData\Local\Temp\cc2EfhU3.s:27316  .debug_str:0000000000024c9c .LASF3241
C:\Users\SOLDER~1\AppData\Local\Temp\cc2EfhU3.s:29022  .debug_str:000000000002bc76 .LASF3242
C:\Users\SOLDER~1\AppData\Local\Temp\cc2EfhU3.s:22998  .debug_str:0000000000013280 .LASF3243
C:\Users\SOLDER~1\AppData\Local\Temp\cc2EfhU3.s:22178  .debug_str:000000000000fdec .LASF3244
C:\Users\SOLDER~1\AppData\Local\Temp\cc2EfhU3.s:28034  .debug_str:0000000000027c2b .LASF3245
C:\Users\SOLDER~1\AppData\Local\Temp\cc2EfhU3.s:25722  .debug_str:000000000001e493 .LASF3246
C:\Users\SOLDER~1\AppData\Local\Temp\cc2EfhU3.s:28196  .debug_str:00000000000286f9 .LASF3247
C:\Users\SOLDER~1\AppData\Local\Temp\cc2EfhU3.s:22030  .debug_str:000000000000f3b8 .LASF3248
C:\Users\SOLDER~1\AppData\Local\Temp\cc2EfhU3.s:28924  .debug_str:000000000002b626 .LASF3249
C:\Users\SOLDER~1\AppData\Local\Temp\cc2EfhU3.s:23420  .debug_str:0000000000014f51 .LASF3250
C:\Users\SOLDER~1\AppData\Local\Temp\cc2EfhU3.s:29566  .debug_str:000000000002dfac .LASF3251
C:\Users\SOLDER~1\AppData\Local\Temp\cc2EfhU3.s:28646  .debug_str:000000000002a42e .LASF3252
C:\Users\SOLDER~1\AppData\Local\Temp\cc2EfhU3.s:27622  .debug_str:00000000000260f2 .LASF3253
C:\Users\SOLDER~1\AppData\Local\Temp\cc2EfhU3.s:28370  .debug_str:00000000000291f0 .LASF3254
C:\Users\SOLDER~1\AppData\Local\Temp\cc2EfhU3.s:25232  .debug_str:000000000001c48d .LASF3255
C:\Users\SOLDER~1\AppData\Local\Temp\cc2EfhU3.s:22530  .debug_str:0000000000011469 .LASF3256
GAS LISTING C:\Users\SOLDER~1\AppData\Local\Temp\cc2EfhU3.s 			page 68


C:\Users\SOLDER~1\AppData\Local\Temp\cc2EfhU3.s:20214  .debug_str:0000000000007c81 .LASF3257
C:\Users\SOLDER~1\AppData\Local\Temp\cc2EfhU3.s:21170  .debug_str:000000000000bb61 .LASF3258
C:\Users\SOLDER~1\AppData\Local\Temp\cc2EfhU3.s:25066  .debug_str:000000000001b96b .LASF3259
C:\Users\SOLDER~1\AppData\Local\Temp\cc2EfhU3.s:22338  .debug_str:0000000000010807 .LASF3260
C:\Users\SOLDER~1\AppData\Local\Temp\cc2EfhU3.s:24964  .debug_str:000000000001b2e0 .LASF3261
C:\Users\SOLDER~1\AppData\Local\Temp\cc2EfhU3.s:26584  .debug_str:0000000000021cbb .LASF3262
C:\Users\SOLDER~1\AppData\Local\Temp\cc2EfhU3.s:27142  .debug_str:00000000000240f3 .LASF3263
C:\Users\SOLDER~1\AppData\Local\Temp\cc2EfhU3.s:20356  .debug_str:00000000000085cb .LASF3264
C:\Users\SOLDER~1\AppData\Local\Temp\cc2EfhU3.s:28092  .debug_str:0000000000028013 .LASF3265
C:\Users\SOLDER~1\AppData\Local\Temp\cc2EfhU3.s:24532  .debug_str:0000000000019710 .LASF3266
C:\Users\SOLDER~1\AppData\Local\Temp\cc2EfhU3.s:21322  .debug_str:000000000000c57c .LASF3267
C:\Users\SOLDER~1\AppData\Local\Temp\cc2EfhU3.s:20568  .debug_str:0000000000009414 .LASF3268
C:\Users\SOLDER~1\AppData\Local\Temp\cc2EfhU3.s:20278  .debug_str:00000000000080ec .LASF3269
C:\Users\SOLDER~1\AppData\Local\Temp\cc2EfhU3.s:22090  .debug_str:000000000000f7bb .LASF3270
C:\Users\SOLDER~1\AppData\Local\Temp\cc2EfhU3.s:24280  .debug_str:00000000000186bf .LASF3271
C:\Users\SOLDER~1\AppData\Local\Temp\cc2EfhU3.s:23316  .debug_str:0000000000014897 .LASF3272
C:\Users\SOLDER~1\AppData\Local\Temp\cc2EfhU3.s:25558  .debug_str:000000000001d9e1 .LASF3273
C:\Users\SOLDER~1\AppData\Local\Temp\cc2EfhU3.s:18840  .debug_str:0000000000002420 .LASF3274
C:\Users\SOLDER~1\AppData\Local\Temp\cc2EfhU3.s:19008  .debug_str:0000000000002ef1 .LASF3275
C:\Users\SOLDER~1\AppData\Local\Temp\cc2EfhU3.s:23488  .debug_str:00000000000153e9 .LASF3276
C:\Users\SOLDER~1\AppData\Local\Temp\cc2EfhU3.s:25876  .debug_str:000000000001eeed .LASF3277
C:\Users\SOLDER~1\AppData\Local\Temp\cc2EfhU3.s:26766  .debug_str:0000000000022860 .LASF3278
C:\Users\SOLDER~1\AppData\Local\Temp\cc2EfhU3.s:29670  .debug_str:000000000002e685 .LASF3279
C:\Users\SOLDER~1\AppData\Local\Temp\cc2EfhU3.s:28552  .debug_str:0000000000029de1 .LASF3280
C:\Users\SOLDER~1\AppData\Local\Temp\cc2EfhU3.s:28822  .debug_str:000000000002afaf .LASF3281
C:\Users\SOLDER~1\AppData\Local\Temp\cc2EfhU3.s:20442  .debug_str:0000000000008b8a .LASF3282
C:\Users\SOLDER~1\AppData\Local\Temp\cc2EfhU3.s:24120  .debug_str:0000000000017c5b .LASF3283
C:\Users\SOLDER~1\AppData\Local\Temp\cc2EfhU3.s:29332  .debug_str:000000000002d0ce .LASF3284
C:\Users\SOLDER~1\AppData\Local\Temp\cc2EfhU3.s:27236  .debug_str:000000000002474b .LASF3285
C:\Users\SOLDER~1\AppData\Local\Temp\cc2EfhU3.s:21836  .debug_str:000000000000e76d .LASF3286
C:\Users\SOLDER~1\AppData\Local\Temp\cc2EfhU3.s:23358  .debug_str:0000000000014b86 .LASF3287
C:\Users\SOLDER~1\AppData\Local\Temp\cc2EfhU3.s:21282  .debug_str:000000000000c2ab .LASF3288
C:\Users\SOLDER~1\AppData\Local\Temp\cc2EfhU3.s:22548  .debug_str:00000000000115b5 .LASF3289
C:\Users\SOLDER~1\AppData\Local\Temp\cc2EfhU3.s:23160  .debug_str:0000000000013df6 .LASF3290
C:\Users\SOLDER~1\AppData\Local\Temp\cc2EfhU3.s:22544  .debug_str:000000000001156a .LASF3291
C:\Users\SOLDER~1\AppData\Local\Temp\cc2EfhU3.s:25750  .debug_str:000000000001e690 .LASF3292
C:\Users\SOLDER~1\AppData\Local\Temp\cc2EfhU3.s:22928  .debug_str:0000000000012dd1 .LASF3293
C:\Users\SOLDER~1\AppData\Local\Temp\cc2EfhU3.s:28016  .debug_str:0000000000027ae0 .LASF3294
C:\Users\SOLDER~1\AppData\Local\Temp\cc2EfhU3.s:25428  .debug_str:000000000001d1e1 .LASF3295
C:\Users\SOLDER~1\AppData\Local\Temp\cc2EfhU3.s:26554  .debug_str:0000000000021ac6 .LASF3296
C:\Users\SOLDER~1\AppData\Local\Temp\cc2EfhU3.s:24104  .debug_str:0000000000017b4e .LASF3297
C:\Users\SOLDER~1\AppData\Local\Temp\cc2EfhU3.s:19654  .debug_str:00000000000057c1 .LASF3298
C:\Users\SOLDER~1\AppData\Local\Temp\cc2EfhU3.s:22108  .debug_str:000000000000f8f4 .LASF3299
C:\Users\SOLDER~1\AppData\Local\Temp\cc2EfhU3.s:23682  .debug_str:0000000000016056 .LASF3300
C:\Users\SOLDER~1\AppData\Local\Temp\cc2EfhU3.s:25530  .debug_str:000000000001d806 .LASF3301
C:\Users\SOLDER~1\AppData\Local\Temp\cc2EfhU3.s:25102  .debug_str:000000000001bbae .LASF3302
C:\Users\SOLDER~1\AppData\Local\Temp\cc2EfhU3.s:21460  .debug_str:000000000000cebe .LASF3303
C:\Users\SOLDER~1\AppData\Local\Temp\cc2EfhU3.s:19058  .debug_str:0000000000003216 .LASF3304
C:\Users\SOLDER~1\AppData\Local\Temp\cc2EfhU3.s:25092  .debug_str:000000000001baf9 .LASF3305
C:\Users\SOLDER~1\AppData\Local\Temp\cc2EfhU3.s:20468  .debug_str:0000000000008d39 .LASF3306
C:\Users\SOLDER~1\AppData\Local\Temp\cc2EfhU3.s:21906  .debug_str:000000000000ebc5 .LASF3307
C:\Users\SOLDER~1\AppData\Local\Temp\cc2EfhU3.s:19360  .debug_str:0000000000004546 .LASF3308
C:\Users\SOLDER~1\AppData\Local\Temp\cc2EfhU3.s:22248  .debug_str:0000000000010238 .LASF3309
C:\Users\SOLDER~1\AppData\Local\Temp\cc2EfhU3.s:19542  .debug_str:000000000000509c .LASF3310
C:\Users\SOLDER~1\AppData\Local\Temp\cc2EfhU3.s:18354  .debug_str:000000000000035e .LASF3311
C:\Users\SOLDER~1\AppData\Local\Temp\cc2EfhU3.s:20740  .debug_str:0000000000009f2d .LASF3312
C:\Users\SOLDER~1\AppData\Local\Temp\cc2EfhU3.s:25818  .debug_str:000000000001eb0e .LASF3313
GAS LISTING C:\Users\SOLDER~1\AppData\Local\Temp\cc2EfhU3.s 			page 69


C:\Users\SOLDER~1\AppData\Local\Temp\cc2EfhU3.s:29636  .debug_str:000000000002e423 .LASF3314
C:\Users\SOLDER~1\AppData\Local\Temp\cc2EfhU3.s:18540  .debug_str:0000000000001052 .LASF3315
C:\Users\SOLDER~1\AppData\Local\Temp\cc2EfhU3.s:19210  .debug_str:0000000000003bf2 .LASF3316
C:\Users\SOLDER~1\AppData\Local\Temp\cc2EfhU3.s:23740  .debug_str:0000000000016413 .LASF3317
C:\Users\SOLDER~1\AppData\Local\Temp\cc2EfhU3.s:24730  .debug_str:000000000001a391 .LASF3318
C:\Users\SOLDER~1\AppData\Local\Temp\cc2EfhU3.s:24288  .debug_str:000000000001874f .LASF3319
C:\Users\SOLDER~1\AppData\Local\Temp\cc2EfhU3.s:29326  .debug_str:000000000002d069 .LASF3320
C:\Users\SOLDER~1\AppData\Local\Temp\cc2EfhU3.s:25874  .debug_str:000000000001eec4 .LASF3321
C:\Users\SOLDER~1\AppData\Local\Temp\cc2EfhU3.s:22450  .debug_str:0000000000010f2f .LASF3322
C:\Users\SOLDER~1\AppData\Local\Temp\cc2EfhU3.s:18984  .debug_str:0000000000002d55 .LASF3323
C:\Users\SOLDER~1\AppData\Local\Temp\cc2EfhU3.s:26980  .debug_str:0000000000023670 .LASF3324
C:\Users\SOLDER~1\AppData\Local\Temp\cc2EfhU3.s:23134  .debug_str:0000000000013c21 .LASF3325
C:\Users\SOLDER~1\AppData\Local\Temp\cc2EfhU3.s:22578  .debug_str:000000000001176c .LASF3326
C:\Users\SOLDER~1\AppData\Local\Temp\cc2EfhU3.s:22032  .debug_str:000000000000f3e7 .LASF3327
C:\Users\SOLDER~1\AppData\Local\Temp\cc2EfhU3.s:24362  .debug_str:0000000000018c5b .LASF3328
C:\Users\SOLDER~1\AppData\Local\Temp\cc2EfhU3.s:27044  .debug_str:0000000000023a7a .LASF3329
C:\Users\SOLDER~1\AppData\Local\Temp\cc2EfhU3.s:18388  .debug_str:000000000000059c .LASF3330
C:\Users\SOLDER~1\AppData\Local\Temp\cc2EfhU3.s:19890  .debug_str:0000000000006786 .LASF3331
C:\Users\SOLDER~1\AppData\Local\Temp\cc2EfhU3.s:18892  .debug_str:000000000000277d .LASF3332
C:\Users\SOLDER~1\AppData\Local\Temp\cc2EfhU3.s:25972  .debug_str:000000000001f576 .LASF3333
C:\Users\SOLDER~1\AppData\Local\Temp\cc2EfhU3.s:28318  .debug_str:0000000000028e75 .LASF3334
C:\Users\SOLDER~1\AppData\Local\Temp\cc2EfhU3.s:21248  .debug_str:000000000000c052 .LASF3335
C:\Users\SOLDER~1\AppData\Local\Temp\cc2EfhU3.s:26244  .debug_str:00000000000206d1 .LASF3336
C:\Users\SOLDER~1\AppData\Local\Temp\cc2EfhU3.s:19504  .debug_str:0000000000004e69 .LASF3337
C:\Users\SOLDER~1\AppData\Local\Temp\cc2EfhU3.s:20436  .debug_str:0000000000008b18 .LASF3338
C:\Users\SOLDER~1\AppData\Local\Temp\cc2EfhU3.s:22026  .debug_str:000000000000f365 .LASF3339
C:\Users\SOLDER~1\AppData\Local\Temp\cc2EfhU3.s:19950  .debug_str:0000000000006b53 .LASF3340
C:\Users\SOLDER~1\AppData\Local\Temp\cc2EfhU3.s:29680  .debug_str:000000000002e737 .LASF3341
C:\Users\SOLDER~1\AppData\Local\Temp\cc2EfhU3.s:25276  .debug_str:000000000001c784 .LASF3342
C:\Users\SOLDER~1\AppData\Local\Temp\cc2EfhU3.s:26116  .debug_str:000000000001fe8b .LASF3343
C:\Users\SOLDER~1\AppData\Local\Temp\cc2EfhU3.s:24388  .debug_str:0000000000018e1e .LASF3344
C:\Users\SOLDER~1\AppData\Local\Temp\cc2EfhU3.s:22596  .debug_str:00000000000118aa .LASF3345
C:\Users\SOLDER~1\AppData\Local\Temp\cc2EfhU3.s:20114  .debug_str:0000000000007626 .LASF3346
C:\Users\SOLDER~1\AppData\Local\Temp\cc2EfhU3.s:28738  .debug_str:000000000002aa17 .LASF3347
C:\Users\SOLDER~1\AppData\Local\Temp\cc2EfhU3.s:21120  .debug_str:000000000000b7f6 .LASF3348
C:\Users\SOLDER~1\AppData\Local\Temp\cc2EfhU3.s:23476  .debug_str:0000000000015324 .LASF3349
C:\Users\SOLDER~1\AppData\Local\Temp\cc2EfhU3.s:26592  .debug_str:0000000000021d48 .LASF3350
C:\Users\SOLDER~1\AppData\Local\Temp\cc2EfhU3.s:25902  .debug_str:000000000001f0b0 .LASF3351
C:\Users\SOLDER~1\AppData\Local\Temp\cc2EfhU3.s:23230  .debug_str:00000000000142e2 .LASF3352
C:\Users\SOLDER~1\AppData\Local\Temp\cc2EfhU3.s:23504  .debug_str:000000000001550a .LASF3353
C:\Users\SOLDER~1\AppData\Local\Temp\cc2EfhU3.s:23240  .debug_str:0000000000014374 .LASF3354
C:\Users\SOLDER~1\AppData\Local\Temp\cc2EfhU3.s:19776  .debug_str:0000000000005fb8 .LASF3355
C:\Users\SOLDER~1\AppData\Local\Temp\cc2EfhU3.s:27788  .debug_str:0000000000026be0 .LASF3356
C:\Users\SOLDER~1\AppData\Local\Temp\cc2EfhU3.s:24406  .debug_str:0000000000018f43 .LASF3357
C:\Users\SOLDER~1\AppData\Local\Temp\cc2EfhU3.s:24238  .debug_str:0000000000018423 .LASF3358
C:\Users\SOLDER~1\AppData\Local\Temp\cc2EfhU3.s:28974  .debug_str:000000000002b93a .LASF3359
C:\Users\SOLDER~1\AppData\Local\Temp\cc2EfhU3.s:21288  .debug_str:000000000000c322 .LASF3360
C:\Users\SOLDER~1\AppData\Local\Temp\cc2EfhU3.s:26032  .debug_str:000000000001f935 .LASF3361
C:\Users\SOLDER~1\AppData\Local\Temp\cc2EfhU3.s:28804  .debug_str:000000000002ae50 .LASF3362
C:\Users\SOLDER~1\AppData\Local\Temp\cc2EfhU3.s:28322  .debug_str:0000000000028ec2 .LASF3363
C:\Users\SOLDER~1\AppData\Local\Temp\cc2EfhU3.s:26202  .debug_str:0000000000020407 .LASF3364
C:\Users\SOLDER~1\AppData\Local\Temp\cc2EfhU3.s:25572  .debug_str:000000000001dabd .LASF3365
C:\Users\SOLDER~1\AppData\Local\Temp\cc2EfhU3.s:26678  .debug_str:0000000000022274 .LASF3366
C:\Users\SOLDER~1\AppData\Local\Temp\cc2EfhU3.s:27810  .debug_str:0000000000026d87 .LASF3367
C:\Users\SOLDER~1\AppData\Local\Temp\cc2EfhU3.s:28880  .debug_str:000000000002b32b .LASF3368
C:\Users\SOLDER~1\AppData\Local\Temp\cc2EfhU3.s:22110  .debug_str:000000000000f91c .LASF3369
C:\Users\SOLDER~1\AppData\Local\Temp\cc2EfhU3.s:26782  .debug_str:0000000000022987 .LASF3370
GAS LISTING C:\Users\SOLDER~1\AppData\Local\Temp\cc2EfhU3.s 			page 70


C:\Users\SOLDER~1\AppData\Local\Temp\cc2EfhU3.s:27730  .debug_str:0000000000026834 .LASF3371
C:\Users\SOLDER~1\AppData\Local\Temp\cc2EfhU3.s:19758  .debug_str:0000000000005e7f .LASF3372
C:\Users\SOLDER~1\AppData\Local\Temp\cc2EfhU3.s:29506  .debug_str:000000000002dbea .LASF3373
C:\Users\SOLDER~1\AppData\Local\Temp\cc2EfhU3.s:26688  .debug_str:000000000002231a .LASF3374
C:\Users\SOLDER~1\AppData\Local\Temp\cc2EfhU3.s:28160  .debug_str:000000000002844b .LASF3375
C:\Users\SOLDER~1\AppData\Local\Temp\cc2EfhU3.s:21020  .debug_str:000000000000b183 .LASF3376
C:\Users\SOLDER~1\AppData\Local\Temp\cc2EfhU3.s:22792  .debug_str:0000000000012520 .LASF3377
C:\Users\SOLDER~1\AppData\Local\Temp\cc2EfhU3.s:20108  .debug_str:00000000000075ba .LASF3378
C:\Users\SOLDER~1\AppData\Local\Temp\cc2EfhU3.s:24646  .debug_str:0000000000019e41 .LASF3379
C:\Users\SOLDER~1\AppData\Local\Temp\cc2EfhU3.s:22858  .debug_str:000000000001291b .LASF3380
C:\Users\SOLDER~1\AppData\Local\Temp\cc2EfhU3.s:25946  .debug_str:000000000001f3a2 .LASF3381
C:\Users\SOLDER~1\AppData\Local\Temp\cc2EfhU3.s:24062  .debug_str:00000000000178a5 .LASF3382
C:\Users\SOLDER~1\AppData\Local\Temp\cc2EfhU3.s:29554  .debug_str:000000000002dee1 .LASF3383
C:\Users\SOLDER~1\AppData\Local\Temp\cc2EfhU3.s:25000  .debug_str:000000000001b527 .LASF3384
C:\Users\SOLDER~1\AppData\Local\Temp\cc2EfhU3.s:24602  .debug_str:0000000000019b9c .LASF3385
C:\Users\SOLDER~1\AppData\Local\Temp\cc2EfhU3.s:28470  .debug_str:0000000000029850 .LASF3386
C:\Users\SOLDER~1\AppData\Local\Temp\cc2EfhU3.s:23302  .debug_str:000000000001478f .LASF3387
C:\Users\SOLDER~1\AppData\Local\Temp\cc2EfhU3.s:29240  .debug_str:000000000002ca80 .LASF3388
C:\Users\SOLDER~1\AppData\Local\Temp\cc2EfhU3.s:23386  .debug_str:0000000000014d51 .LASF3389
C:\Users\SOLDER~1\AppData\Local\Temp\cc2EfhU3.s:25714  .debug_str:000000000001e3fd .LASF3390
C:\Users\SOLDER~1\AppData\Local\Temp\cc2EfhU3.s:29778  .debug_str:000000000002ed2c .LASF3391
C:\Users\SOLDER~1\AppData\Local\Temp\cc2EfhU3.s:21920  .debug_str:000000000000ecb8 .LASF3392
C:\Users\SOLDER~1\AppData\Local\Temp\cc2EfhU3.s:20474  .debug_str:0000000000008dae .LASF3393
C:\Users\SOLDER~1\AppData\Local\Temp\cc2EfhU3.s:18622  .debug_str:00000000000015b1 .LASF3394
C:\Users\SOLDER~1\AppData\Local\Temp\cc2EfhU3.s:27440  .debug_str:0000000000025436 .LASF3395
C:\Users\SOLDER~1\AppData\Local\Temp\cc2EfhU3.s:27564  .debug_str:0000000000025ccd .LASF3396
C:\Users\SOLDER~1\AppData\Local\Temp\cc2EfhU3.s:24654  .debug_str:0000000000019ecc .LASF3397
C:\Users\SOLDER~1\AppData\Local\Temp\cc2EfhU3.s:21750  .debug_str:000000000000e1f0 .LASF3398
C:\Users\SOLDER~1\AppData\Local\Temp\cc2EfhU3.s:20776  .debug_str:000000000000a1a6 .LASF3399
C:\Users\SOLDER~1\AppData\Local\Temp\cc2EfhU3.s:23912  .debug_str:0000000000016eb2 .LASF3400
C:\Users\SOLDER~1\AppData\Local\Temp\cc2EfhU3.s:24124  .debug_str:0000000000017caa .LASF3401
C:\Users\SOLDER~1\AppData\Local\Temp\cc2EfhU3.s:28566  .debug_str:0000000000029ec8 .LASF3402
C:\Users\SOLDER~1\AppData\Local\Temp\cc2EfhU3.s:23906  .debug_str:0000000000016e52 .LASF3403
C:\Users\SOLDER~1\AppData\Local\Temp\cc2EfhU3.s:27774  .debug_str:0000000000026b17 .LASF3404
C:\Users\SOLDER~1\AppData\Local\Temp\cc2EfhU3.s:21024  .debug_str:000000000000b1bd .LASF3405
C:\Users\SOLDER~1\AppData\Local\Temp\cc2EfhU3.s:25732  .debug_str:000000000001e553 .LASF3406
C:\Users\SOLDER~1\AppData\Local\Temp\cc2EfhU3.s:18974  .debug_str:0000000000002ca7 .LASF3407
C:\Users\SOLDER~1\AppData\Local\Temp\cc2EfhU3.s:20658  .debug_str:00000000000099c6 .LASF3408
C:\Users\SOLDER~1\AppData\Local\Temp\cc2EfhU3.s:28418  .debug_str:0000000000029530 .LASF3409
C:\Users\SOLDER~1\AppData\Local\Temp\cc2EfhU3.s:29158  .debug_str:000000000002c563 .LASF3410
C:\Users\SOLDER~1\AppData\Local\Temp\cc2EfhU3.s:19138  .debug_str:0000000000003738 .LASF3411
C:\Users\SOLDER~1\AppData\Local\Temp\cc2EfhU3.s:28864  .debug_str:000000000002b22f .LASF3412
C:\Users\SOLDER~1\AppData\Local\Temp\cc2EfhU3.s:27042  .debug_str:0000000000023a50 .LASF3413
C:\Users\SOLDER~1\AppData\Local\Temp\cc2EfhU3.s:25306  .debug_str:000000000001c99f .LASF3414
C:\Users\SOLDER~1\AppData\Local\Temp\cc2EfhU3.s:23572  .debug_str:0000000000015959 .LASF3415
C:\Users\SOLDER~1\AppData\Local\Temp\cc2EfhU3.s:28626  .debug_str:000000000002a2e2 .LASF3416
C:\Users\SOLDER~1\AppData\Local\Temp\cc2EfhU3.s:20020  .debug_str:000000000000702a .LASF3417
C:\Users\SOLDER~1\AppData\Local\Temp\cc2EfhU3.s:23394  .debug_str:0000000000014dca .LASF3418
C:\Users\SOLDER~1\AppData\Local\Temp\cc2EfhU3.s:22426  .debug_str:0000000000010d96 .LASF3419
C:\Users\SOLDER~1\AppData\Local\Temp\cc2EfhU3.s:21928  .debug_str:000000000000ed42 .LASF3420
C:\Users\SOLDER~1\AppData\Local\Temp\cc2EfhU3.s:27194  .debug_str:0000000000024485 .LASF3421
C:\Users\SOLDER~1\AppData\Local\Temp\cc2EfhU3.s:27410  .debug_str:000000000002525e .LASF3422
C:\Users\SOLDER~1\AppData\Local\Temp\cc2EfhU3.s:22594  .debug_str:0000000000011883 .LASF3423
C:\Users\SOLDER~1\AppData\Local\Temp\cc2EfhU3.s:28278  .debug_str:0000000000028c0f .LASF3424
C:\Users\SOLDER~1\AppData\Local\Temp\cc2EfhU3.s:25642  .debug_str:000000000001df74 .LASF3425
C:\Users\SOLDER~1\AppData\Local\Temp\cc2EfhU3.s:26192  .debug_str:000000000002036f .LASF3426
C:\Users\SOLDER~1\AppData\Local\Temp\cc2EfhU3.s:22782  .debug_str:0000000000012461 .LASF3427
GAS LISTING C:\Users\SOLDER~1\AppData\Local\Temp\cc2EfhU3.s 			page 71


C:\Users\SOLDER~1\AppData\Local\Temp\cc2EfhU3.s:24632  .debug_str:0000000000019d4c .LASF3428
C:\Users\SOLDER~1\AppData\Local\Temp\cc2EfhU3.s:19200  .debug_str:0000000000003b46 .LASF3429
C:\Users\SOLDER~1\AppData\Local\Temp\cc2EfhU3.s:23970  .debug_str:0000000000017282 .LASF3430
C:\Users\SOLDER~1\AppData\Local\Temp\cc2EfhU3.s:20498  .debug_str:0000000000008f50 .LASF3431
C:\Users\SOLDER~1\AppData\Local\Temp\cc2EfhU3.s:26294  .debug_str:0000000000020a13 .LASF3432
C:\Users\SOLDER~1\AppData\Local\Temp\cc2EfhU3.s:22240  .debug_str:00000000000101ab .LASF3433
C:\Users\SOLDER~1\AppData\Local\Temp\cc2EfhU3.s:22432  .debug_str:0000000000010e03 .LASF3434
C:\Users\SOLDER~1\AppData\Local\Temp\cc2EfhU3.s:23112  .debug_str:0000000000013aac .LASF3435
C:\Users\SOLDER~1\AppData\Local\Temp\cc2EfhU3.s:25828  .debug_str:000000000001ebc2 .LASF3436
C:\Users\SOLDER~1\AppData\Local\Temp\cc2EfhU3.s:28586  .debug_str:000000000002a046 .LASF3437
C:\Users\SOLDER~1\AppData\Local\Temp\cc2EfhU3.s:19864  .debug_str:000000000000659f .LASF3438
C:\Users\SOLDER~1\AppData\Local\Temp\cc2EfhU3.s:22620  .debug_str:0000000000011a21 .LASF3439
C:\Users\SOLDER~1\AppData\Local\Temp\cc2EfhU3.s:20408  .debug_str:000000000000892e .LASF3440
C:\Users\SOLDER~1\AppData\Local\Temp\cc2EfhU3.s:25106  .debug_str:000000000001bbfd .LASF3441
C:\Users\SOLDER~1\AppData\Local\Temp\cc2EfhU3.s:18370  .debug_str:0000000000000463 .LASF3442
C:\Users\SOLDER~1\AppData\Local\Temp\cc2EfhU3.s:21292  .debug_str:000000000000c365 .LASF3443
C:\Users\SOLDER~1\AppData\Local\Temp\cc2EfhU3.s:27750  .debug_str:0000000000026994 .LASF3444
C:\Users\SOLDER~1\AppData\Local\Temp\cc2EfhU3.s:19824  .debug_str:0000000000006314 .LASF3445
C:\Users\SOLDER~1\AppData\Local\Temp\cc2EfhU3.s:25712  .debug_str:000000000001e3d3 .LASF3446
C:\Users\SOLDER~1\AppData\Local\Temp\cc2EfhU3.s:23244  .debug_str:00000000000143c4 .LASF3447
C:\Users\SOLDER~1\AppData\Local\Temp\cc2EfhU3.s:21440  .debug_str:000000000000cd86 .LASF3448
C:\Users\SOLDER~1\AppData\Local\Temp\cc2EfhU3.s:27792  .debug_str:0000000000026c32 .LASF3449
C:\Users\SOLDER~1\AppData\Local\Temp\cc2EfhU3.s:29408  .debug_str:000000000002d5a7 .LASF3450
C:\Users\SOLDER~1\AppData\Local\Temp\cc2EfhU3.s:23564  .debug_str:00000000000158dc .LASF3451
C:\Users\SOLDER~1\AppData\Local\Temp\cc2EfhU3.s:25854  .debug_str:000000000001ed6e .LASF3452
C:\Users\SOLDER~1\AppData\Local\Temp\cc2EfhU3.s:24130  .debug_str:0000000000017d14 .LASF3453
C:\Users\SOLDER~1\AppData\Local\Temp\cc2EfhU3.s:19382  .debug_str:00000000000046d2 .LASF3454
C:\Users\SOLDER~1\AppData\Local\Temp\cc2EfhU3.s:24392  .debug_str:0000000000018e68 .LASF3455
C:\Users\SOLDER~1\AppData\Local\Temp\cc2EfhU3.s:18936  .debug_str:0000000000002a74 .LASF3456
C:\Users\SOLDER~1\AppData\Local\Temp\cc2EfhU3.s:28850  .debug_str:000000000002b156 .LASF3457
C:\Users\SOLDER~1\AppData\Local\Temp\cc2EfhU3.s:28062  .debug_str:0000000000027e00 .LASF3458
C:\Users\SOLDER~1\AppData\Local\Temp\cc2EfhU3.s:29640  .debug_str:000000000002e461 .LASF3459
C:\Users\SOLDER~1\AppData\Local\Temp\cc2EfhU3.s:22604  .debug_str:000000000001194e .LASF3460
C:\Users\SOLDER~1\AppData\Local\Temp\cc2EfhU3.s:27278  .debug_str:0000000000024a16 .LASF3461
C:\Users\SOLDER~1\AppData\Local\Temp\cc2EfhU3.s:22700  .debug_str:0000000000011f44 .LASF3462
C:\Users\SOLDER~1\AppData\Local\Temp\cc2EfhU3.s:28094  .debug_str:0000000000028032 .LASF3463
C:\Users\SOLDER~1\AppData\Local\Temp\cc2EfhU3.s:26598  .debug_str:0000000000021da6 .LASF3464
C:\Users\SOLDER~1\AppData\Local\Temp\cc2EfhU3.s:19636  .debug_str:0000000000005664 .LASF3465
C:\Users\SOLDER~1\AppData\Local\Temp\cc2EfhU3.s:22066  .debug_str:000000000000f60d .LASF3466
C:\Users\SOLDER~1\AppData\Local\Temp\cc2EfhU3.s:23928  .debug_str:0000000000016fce .LASF3467
C:\Users\SOLDER~1\AppData\Local\Temp\cc2EfhU3.s:24100  .debug_str:0000000000017b15 .LASF3468
C:\Users\SOLDER~1\AppData\Local\Temp\cc2EfhU3.s:18922  .debug_str:00000000000029a6 .LASF3469
C:\Users\SOLDER~1\AppData\Local\Temp\cc2EfhU3.s:24226  .debug_str:000000000001835f .LASF3470
C:\Users\SOLDER~1\AppData\Local\Temp\cc2EfhU3.s:28934  .debug_str:000000000002b6b9 .LASF3471
C:\Users\SOLDER~1\AppData\Local\Temp\cc2EfhU3.s:25782  .debug_str:000000000001e8d8 .LASF3472
C:\Users\SOLDER~1\AppData\Local\Temp\cc2EfhU3.s:19186  .debug_str:0000000000003a64 .LASF3473
C:\Users\SOLDER~1\AppData\Local\Temp\cc2EfhU3.s:19868  .debug_str:00000000000065eb .LASF3474
C:\Users\SOLDER~1\AppData\Local\Temp\cc2EfhU3.s:23090  .debug_str:00000000000138e1 .LASF3475
C:\Users\SOLDER~1\AppData\Local\Temp\cc2EfhU3.s:21408  .debug_str:000000000000cb70 .LASF3476
C:\Users\SOLDER~1\AppData\Local\Temp\cc2EfhU3.s:23196  .debug_str:0000000000014053 .LASF3477
C:\Users\SOLDER~1\AppData\Local\Temp\cc2EfhU3.s:20132  .debug_str:0000000000007744 .LASF3478
C:\Users\SOLDER~1\AppData\Local\Temp\cc2EfhU3.s:20470  .debug_str:0000000000008d69 .LASF3479
C:\Users\SOLDER~1\AppData\Local\Temp\cc2EfhU3.s:20080  .debug_str:000000000000741a .LASF3480
C:\Users\SOLDER~1\AppData\Local\Temp\cc2EfhU3.s:25836  .debug_str:000000000001ec37 .LASF3481
C:\Users\SOLDER~1\AppData\Local\Temp\cc2EfhU3.s:28846  .debug_str:000000000002b119 .LASF3482
C:\Users\SOLDER~1\AppData\Local\Temp\cc2EfhU3.s:19038  .debug_str:00000000000030d4 .LASF3483
C:\Users\SOLDER~1\AppData\Local\Temp\cc2EfhU3.s:26618  .debug_str:0000000000021eda .LASF3484
GAS LISTING C:\Users\SOLDER~1\AppData\Local\Temp\cc2EfhU3.s 			page 72


C:\Users\SOLDER~1\AppData\Local\Temp\cc2EfhU3.s:19640  .debug_str:00000000000056ac .LASF3485
C:\Users\SOLDER~1\AppData\Local\Temp\cc2EfhU3.s:20254  .debug_str:0000000000007f49 .LASF3486
C:\Users\SOLDER~1\AppData\Local\Temp\cc2EfhU3.s:19018  .debug_str:0000000000002f9d .LASF3487
C:\Users\SOLDER~1\AppData\Local\Temp\cc2EfhU3.s:28150  .debug_str:00000000000283af .LASF3488
C:\Users\SOLDER~1\AppData\Local\Temp\cc2EfhU3.s:24318  .debug_str:0000000000018960 .LASF3489
C:\Users\SOLDER~1\AppData\Local\Temp\cc2EfhU3.s:25676  .debug_str:000000000001e19a .LASF3490
C:\Users\SOLDER~1\AppData\Local\Temp\cc2EfhU3.s:22992  .debug_str:0000000000013224 .LASF3491
C:\Users\SOLDER~1\AppData\Local\Temp\cc2EfhU3.s:25208  .debug_str:000000000001c2f9 .LASF3492
C:\Users\SOLDER~1\AppData\Local\Temp\cc2EfhU3.s:21772  .debug_str:000000000000e364 .LASF3493
C:\Users\SOLDER~1\AppData\Local\Temp\cc2EfhU3.s:21224  .debug_str:000000000000beb6 .LASF3494
C:\Users\SOLDER~1\AppData\Local\Temp\cc2EfhU3.s:26260  .debug_str:00000000000207e3 .LASF3495
C:\Users\SOLDER~1\AppData\Local\Temp\cc2EfhU3.s:28756  .debug_str:000000000002ab32 .LASF3496
C:\Users\SOLDER~1\AppData\Local\Temp\cc2EfhU3.s:27832  .debug_str:0000000000026edb .LASF3497
C:\Users\SOLDER~1\AppData\Local\Temp\cc2EfhU3.s:19994  .debug_str:0000000000006e48 .LASF3498
C:\Users\SOLDER~1\AppData\Local\Temp\cc2EfhU3.s:24310  .debug_str:00000000000188d2 .LASF3499
C:\Users\SOLDER~1\AppData\Local\Temp\cc2EfhU3.s:23696  .debug_str:0000000000016141 .LASF3500
C:\Users\SOLDER~1\AppData\Local\Temp\cc2EfhU3.s:19600  .debug_str:0000000000005436 .LASF3501
C:\Users\SOLDER~1\AppData\Local\Temp\cc2EfhU3.s:18956  .debug_str:0000000000002b8a .LASF3502
C:\Users\SOLDER~1\AppData\Local\Temp\cc2EfhU3.s:20924  .debug_str:000000000000ab78 .LASF3503
C:\Users\SOLDER~1\AppData\Local\Temp\cc2EfhU3.s:27018  .debug_str:00000000000238ce .LASF3504
C:\Users\SOLDER~1\AppData\Local\Temp\cc2EfhU3.s:29688  .debug_str:000000000002e7b6 .LASF3505
C:\Users\SOLDER~1\AppData\Local\Temp\cc2EfhU3.s:27306  .debug_str:0000000000024bf0 .LASF3506
C:\Users\SOLDER~1\AppData\Local\Temp\cc2EfhU3.s:22674  .debug_str:0000000000011d8b .LASF3507
C:\Users\SOLDER~1\AppData\Local\Temp\cc2EfhU3.s:28128  .debug_str:0000000000028252 .LASF3508
C:\Users\SOLDER~1\AppData\Local\Temp\cc2EfhU3.s:20312  .debug_str:0000000000008310 .LASF3509
C:\Users\SOLDER~1\AppData\Local\Temp\cc2EfhU3.s:25278  .debug_str:000000000001c7ad .LASF3510
C:\Users\SOLDER~1\AppData\Local\Temp\cc2EfhU3.s:27868  .debug_str:0000000000027148 .LASF3511
C:\Users\SOLDER~1\AppData\Local\Temp\cc2EfhU3.s:29090  .debug_str:000000000002c11f .LASF3512
C:\Users\SOLDER~1\AppData\Local\Temp\cc2EfhU3.s:21900  .debug_str:000000000000eb63 .LASF3513
C:\Users\SOLDER~1\AppData\Local\Temp\cc2EfhU3.s:29496  .debug_str:000000000002db57 .LASF3514
C:\Users\SOLDER~1\AppData\Local\Temp\cc2EfhU3.s:25768  .debug_str:000000000001e7e9 .LASF3515
C:\Users\SOLDER~1\AppData\Local\Temp\cc2EfhU3.s:27652  .debug_str:000000000002630b .LASF3516
C:\Users\SOLDER~1\AppData\Local\Temp\cc2EfhU3.s:19746  .debug_str:0000000000005dc8 .LASF3517
C:\Users\SOLDER~1\AppData\Local\Temp\cc2EfhU3.s:28300  .debug_str:0000000000028d5d .LASF3518
C:\Users\SOLDER~1\AppData\Local\Temp\cc2EfhU3.s:24644  .debug_str:0000000000019e1e .LASF3519
C:\Users\SOLDER~1\AppData\Local\Temp\cc2EfhU3.s:23934  .debug_str:0000000000017040 .LASF3520
C:\Users\SOLDER~1\AppData\Local\Temp\cc2EfhU3.s:28662  .debug_str:000000000002a54a .LASF3521
C:\Users\SOLDER~1\AppData\Local\Temp\cc2EfhU3.s:22016  .debug_str:000000000000f2c9 .LASF3522
C:\Users\SOLDER~1\AppData\Local\Temp\cc2EfhU3.s:24950  .debug_str:000000000001b1f4 .LASF3523
C:\Users\SOLDER~1\AppData\Local\Temp\cc2EfhU3.s:20142  .debug_str:00000000000077c4 .LASF3524
C:\Users\SOLDER~1\AppData\Local\Temp\cc2EfhU3.s:23640  .debug_str:0000000000015d98 .LASF3525
C:\Users\SOLDER~1\AppData\Local\Temp\cc2EfhU3.s:18954  .debug_str:0000000000002b71 .LASF3526
C:\Users\SOLDER~1\AppData\Local\Temp\cc2EfhU3.s:23948  .debug_str:0000000000017134 .LASF3527
C:\Users\SOLDER~1\AppData\Local\Temp\cc2EfhU3.s:28354  .debug_str:00000000000290ef .LASF3528
C:\Users\SOLDER~1\AppData\Local\Temp\cc2EfhU3.s:18660  .debug_str:000000000000181d .LASF3529
C:\Users\SOLDER~1\AppData\Local\Temp\cc2EfhU3.s:29124  .debug_str:000000000002c330 .LASF3530
C:\Users\SOLDER~1\AppData\Local\Temp\cc2EfhU3.s:23974  .debug_str:00000000000172d7 .LASF3531
C:\Users\SOLDER~1\AppData\Local\Temp\cc2EfhU3.s:25616  .debug_str:000000000001dde0 .LASF3532
C:\Users\SOLDER~1\AppData\Local\Temp\cc2EfhU3.s:21684  .debug_str:000000000000dd39 .LASF3533
C:\Users\SOLDER~1\AppData\Local\Temp\cc2EfhU3.s:28876  .debug_str:000000000002b2f0 .LASF3534
C:\Users\SOLDER~1\AppData\Local\Temp\cc2EfhU3.s:22112  .debug_str:000000000000f945 .LASF3535
C:\Users\SOLDER~1\AppData\Local\Temp\cc2EfhU3.s:26396  .debug_str:00000000000210db .LASF3536
C:\Users\SOLDER~1\AppData\Local\Temp\cc2EfhU3.s:19346  .debug_str:0000000000004479 .LASF3537
C:\Users\SOLDER~1\AppData\Local\Temp\cc2EfhU3.s:22376  .debug_str:0000000000010a83 .LASF3538
C:\Users\SOLDER~1\AppData\Local\Temp\cc2EfhU3.s:26422  .debug_str:0000000000021259 .LASF3539
C:\Users\SOLDER~1\AppData\Local\Temp\cc2EfhU3.s:23604  .debug_str:0000000000015b53 .LASF3540
C:\Users\SOLDER~1\AppData\Local\Temp\cc2EfhU3.s:25196  .debug_str:000000000001c22b .LASF3541
GAS LISTING C:\Users\SOLDER~1\AppData\Local\Temp\cc2EfhU3.s 			page 73


C:\Users\SOLDER~1\AppData\Local\Temp\cc2EfhU3.s:18348  .debug_str:0000000000000306 .LASF3542
C:\Users\SOLDER~1\AppData\Local\Temp\cc2EfhU3.s:21974  .debug_str:000000000000f013 .LASF3543
C:\Users\SOLDER~1\AppData\Local\Temp\cc2EfhU3.s:26670  .debug_str:00000000000221ed .LASF3544
C:\Users\SOLDER~1\AppData\Local\Temp\cc2EfhU3.s:29438  .debug_str:000000000002d78f .LASF3545
C:\Users\SOLDER~1\AppData\Local\Temp\cc2EfhU3.s:26470  .debug_str:0000000000021577 .LASF3546
C:\Users\SOLDER~1\AppData\Local\Temp\cc2EfhU3.s:19852  .debug_str:00000000000064d9 .LASF3547
C:\Users\SOLDER~1\AppData\Local\Temp\cc2EfhU3.s:19720  .debug_str:0000000000005c2b .LASF3548
C:\Users\SOLDER~1\AppData\Local\Temp\cc2EfhU3.s:21382  .debug_str:000000000000c9ad .LASF3549
C:\Users\SOLDER~1\AppData\Local\Temp\cc2EfhU3.s:20534  .debug_str:00000000000091f1 .LASF3550
C:\Users\SOLDER~1\AppData\Local\Temp\cc2EfhU3.s:22202  .debug_str:000000000000ff72 .LASF3551
C:\Users\SOLDER~1\AppData\Local\Temp\cc2EfhU3.s:19946  .debug_str:0000000000006b27 .LASF3552
C:\Users\SOLDER~1\AppData\Local\Temp\cc2EfhU3.s:19530  .debug_str:0000000000004ff4 .LASF3553
C:\Users\SOLDER~1\AppData\Local\Temp\cc2EfhU3.s:18718  .debug_str:0000000000001be8 .LASF3554
C:\Users\SOLDER~1\AppData\Local\Temp\cc2EfhU3.s:27380  .debug_str:0000000000025087 .LASF3555
C:\Users\SOLDER~1\AppData\Local\Temp\cc2EfhU3.s:18502  .debug_str:0000000000000e21 .LASF3556
C:\Users\SOLDER~1\AppData\Local\Temp\cc2EfhU3.s:24772  .debug_str:000000000001a684 .LASF3557
C:\Users\SOLDER~1\AppData\Local\Temp\cc2EfhU3.s:21990  .debug_str:000000000000f118 .LASF3558
C:\Users\SOLDER~1\AppData\Local\Temp\cc2EfhU3.s:18822  .debug_str:00000000000022e7 .LASF3559
C:\Users\SOLDER~1\AppData\Local\Temp\cc2EfhU3.s:19582  .debug_str:000000000000533f .LASF3560
C:\Users\SOLDER~1\AppData\Local\Temp\cc2EfhU3.s:21878  .debug_str:000000000000ea19 .LASF3561
C:\Users\SOLDER~1\AppData\Local\Temp\cc2EfhU3.s:22744  .debug_str:00000000000121fe .LASF3562
C:\Users\SOLDER~1\AppData\Local\Temp\cc2EfhU3.s:29222  .debug_str:000000000002c955 .LASF3563
C:\Users\SOLDER~1\AppData\Local\Temp\cc2EfhU3.s:23652  .debug_str:0000000000015e60 .LASF3564
C:\Users\SOLDER~1\AppData\Local\Temp\cc2EfhU3.s:25070  .debug_str:000000000001b9aa .LASF3565
C:\Users\SOLDER~1\AppData\Local\Temp\cc2EfhU3.s:25804  .debug_str:000000000001ea38 .LASF3566
C:\Users\SOLDER~1\AppData\Local\Temp\cc2EfhU3.s:18918  .debug_str:0000000000002962 .LASF3567
C:\Users\SOLDER~1\AppData\Local\Temp\cc2EfhU3.s:23860  .debug_str:0000000000016b60 .LASF3568
C:\Users\SOLDER~1\AppData\Local\Temp\cc2EfhU3.s:22694  .debug_str:0000000000011ee5 .LASF3569
C:\Users\SOLDER~1\AppData\Local\Temp\cc2EfhU3.s:28896  .debug_str:000000000002b459 .LASF3570
C:\Users\SOLDER~1\AppData\Local\Temp\cc2EfhU3.s:26194  .debug_str:0000000000020399 .LASF3571
C:\Users\SOLDER~1\AppData\Local\Temp\cc2EfhU3.s:18874  .debug_str:0000000000002637 .LASF3572
C:\Users\SOLDER~1\AppData\Local\Temp\cc2EfhU3.s:24378  .debug_str:0000000000018d6f .LASF3573
C:\Users\SOLDER~1\AppData\Local\Temp\cc2EfhU3.s:22296  .debug_str:000000000001056a .LASF3574
C:\Users\SOLDER~1\AppData\Local\Temp\cc2EfhU3.s:21570  .debug_str:000000000000d5f9 .LASF3575
C:\Users\SOLDER~1\AppData\Local\Temp\cc2EfhU3.s:27676  .debug_str:0000000000026481 .LASF3576
C:\Users\SOLDER~1\AppData\Local\Temp\cc2EfhU3.s:29146  .debug_str:000000000002c496 .LASF3577
C:\Users\SOLDER~1\AppData\Local\Temp\cc2EfhU3.s:21962  .debug_str:000000000000ef68 .LASF3578
C:\Users\SOLDER~1\AppData\Local\Temp\cc2EfhU3.s:26978  .debug_str:000000000002364d .LASF3579
C:\Users\SOLDER~1\AppData\Local\Temp\cc2EfhU3.s:29542  .debug_str:000000000002de2c .LASF3580
C:\Users\SOLDER~1\AppData\Local\Temp\cc2EfhU3.s:19380  .debug_str:00000000000046b1 .LASF3581
C:\Users\SOLDER~1\AppData\Local\Temp\cc2EfhU3.s:23732  .debug_str:0000000000016377 .LASF3582
C:\Users\SOLDER~1\AppData\Local\Temp\cc2EfhU3.s:24070  .debug_str:000000000001791e .LASF3583
C:\Users\SOLDER~1\AppData\Local\Temp\cc2EfhU3.s:18926  .debug_str:00000000000029e2 .LASF3584
C:\Users\SOLDER~1\AppData\Local\Temp\cc2EfhU3.s:20236  .debug_str:0000000000007e08 .LASF3585
C:\Users\SOLDER~1\AppData\Local\Temp\cc2EfhU3.s:18376  .debug_str:00000000000004d7 .LASF3586
C:\Users\SOLDER~1\AppData\Local\Temp\cc2EfhU3.s:26648  .debug_str:000000000002207d .LASF3587
C:\Users\SOLDER~1\AppData\Local\Temp\cc2EfhU3.s:22124  .debug_str:000000000000fa1b .LASF3588
C:\Users\SOLDER~1\AppData\Local\Temp\cc2EfhU3.s:27478  .debug_str:00000000000256d7 .LASF3589
C:\Users\SOLDER~1\AppData\Local\Temp\cc2EfhU3.s:27038  .debug_str:0000000000023a10 .LASF3590
C:\Users\SOLDER~1\AppData\Local\Temp\cc2EfhU3.s:29596  .debug_str:000000000002e182 .LASF3591
C:\Users\SOLDER~1\AppData\Local\Temp\cc2EfhU3.s:20874  .debug_str:000000000000a823 .LASF3592
C:\Users\SOLDER~1\AppData\Local\Temp\cc2EfhU3.s:21890  .debug_str:000000000000eac7 .LASF3593
C:\Users\SOLDER~1\AppData\Local\Temp\cc2EfhU3.s:22570  .debug_str:00000000000116e2 .LASF3594
C:\Users\SOLDER~1\AppData\Local\Temp\cc2EfhU3.s:19102  .debug_str:0000000000003509 .LASF3595
C:\Users\SOLDER~1\AppData\Local\Temp\cc2EfhU3.s:27454  .debug_str:000000000002552a .LASF3596
C:\Users\SOLDER~1\AppData\Local\Temp\cc2EfhU3.s:25052  .debug_str:000000000001b858 .LASF3597
C:\Users\SOLDER~1\AppData\Local\Temp\cc2EfhU3.s:28870  .debug_str:000000000002b28c .LASF3598
GAS LISTING C:\Users\SOLDER~1\AppData\Local\Temp\cc2EfhU3.s 			page 74


C:\Users\SOLDER~1\AppData\Local\Temp\cc2EfhU3.s:21418  .debug_str:000000000000cc15 .LASF3599
C:\Users\SOLDER~1\AppData\Local\Temp\cc2EfhU3.s:25006  .debug_str:000000000001b57f .LASF3600
C:\Users\SOLDER~1\AppData\Local\Temp\cc2EfhU3.s:28572  .debug_str:0000000000029f4f .LASF3601
C:\Users\SOLDER~1\AppData\Local\Temp\cc2EfhU3.s:28568  .debug_str:0000000000029ef1 .LASF3602
C:\Users\SOLDER~1\AppData\Local\Temp\cc2EfhU3.s:22572  .debug_str:0000000000011703 .LASF3603
C:\Users\SOLDER~1\AppData\Local\Temp\cc2EfhU3.s:25958  .debug_str:000000000001f49d .LASF3604
C:\Users\SOLDER~1\AppData\Local\Temp\cc2EfhU3.s:27256  .debug_str:0000000000024899 .LASF3605
C:\Users\SOLDER~1\AppData\Local\Temp\cc2EfhU3.s:24874  .debug_str:000000000001ad62 .LASF3606
C:\Users\SOLDER~1\AppData\Local\Temp\cc2EfhU3.s:21334  .debug_str:000000000000c659 .LASF3607
C:\Users\SOLDER~1\AppData\Local\Temp\cc2EfhU3.s:25022  .debug_str:000000000001b673 .LASF3608
C:\Users\SOLDER~1\AppData\Local\Temp\cc2EfhU3.s:29142  .debug_str:000000000002c450 .LASF3609
C:\Users\SOLDER~1\AppData\Local\Temp\cc2EfhU3.s:22156  .debug_str:000000000000fc73 .LASF3610
C:\Users\SOLDER~1\AppData\Local\Temp\cc2EfhU3.s:28466  .debug_str:00000000000297fd .LASF3611
C:\Users\SOLDER~1\AppData\Local\Temp\cc2EfhU3.s:18656  .debug_str:00000000000017f2 .LASF3612
C:\Users\SOLDER~1\AppData\Local\Temp\cc2EfhU3.s:20422  .debug_str:0000000000008a2f .LASF3613
C:\Users\SOLDER~1\AppData\Local\Temp\cc2EfhU3.s:27068  .debug_str:0000000000023c1c .LASF3614
C:\Users\SOLDER~1\AppData\Local\Temp\cc2EfhU3.s:26450  .debug_str:000000000002142f .LASF3615
C:\Users\SOLDER~1\AppData\Local\Temp\cc2EfhU3.s:26970  .debug_str:00000000000235de .LASF3616
C:\Users\SOLDER~1\AppData\Local\Temp\cc2EfhU3.s:28240  .debug_str:00000000000289a7 .LASF3617
C:\Users\SOLDER~1\AppData\Local\Temp\cc2EfhU3.s:27296  .debug_str:0000000000024b44 .LASF3618
C:\Users\SOLDER~1\AppData\Local\Temp\cc2EfhU3.s:21522  .debug_str:000000000000d2e8 .LASF3619
C:\Users\SOLDER~1\AppData\Local\Temp\cc2EfhU3.s:23916  .debug_str:0000000000016f00 .LASF3620
C:\Users\SOLDER~1\AppData\Local\Temp\cc2EfhU3.s:28348  .debug_str:0000000000029081 .LASF3621
C:\Users\SOLDER~1\AppData\Local\Temp\cc2EfhU3.s:25048  .debug_str:000000000001b81e .LASF3622
C:\Users\SOLDER~1\AppData\Local\Temp\cc2EfhU3.s:24942  .debug_str:000000000001b172 .LASF3623
C:\Users\SOLDER~1\AppData\Local\Temp\cc2EfhU3.s:19258  .debug_str:0000000000003eef .LASF3624
C:\Users\SOLDER~1\AppData\Local\Temp\cc2EfhU3.s:27084  .debug_str:0000000000023d32 .LASF3625
C:\Users\SOLDER~1\AppData\Local\Temp\cc2EfhU3.s:26458  .debug_str:00000000000214b5 .LASF3626
C:\Users\SOLDER~1\AppData\Local\Temp\cc2EfhU3.s:28816  .debug_str:000000000002af45 .LASF3627
C:\Users\SOLDER~1\AppData\Local\Temp\cc2EfhU3.s:24830  .debug_str:000000000001aa43 .LASF3628
C:\Users\SOLDER~1\AppData\Local\Temp\cc2EfhU3.s:28124  .debug_str:0000000000028217 .LASF3629
C:\Users\SOLDER~1\AppData\Local\Temp\cc2EfhU3.s:22840  .debug_str:0000000000012811 .LASF3630
C:\Users\SOLDER~1\AppData\Local\Temp\cc2EfhU3.s:28426  .debug_str:00000000000295a9 .LASF3631
C:\Users\SOLDER~1\AppData\Local\Temp\cc2EfhU3.s:26506  .debug_str:00000000000217c7 .LASF3632
C:\Users\SOLDER~1\AppData\Local\Temp\cc2EfhU3.s:23938  .debug_str:000000000001707e .LASF3633
C:\Users\SOLDER~1\AppData\Local\Temp\cc2EfhU3.s:26734  .debug_str:000000000002263a .LASF3634
C:\Users\SOLDER~1\AppData\Local\Temp\cc2EfhU3.s:24068  .debug_str:00000000000178fe .LASF3635
C:\Users\SOLDER~1\AppData\Local\Temp\cc2EfhU3.s:26786  .debug_str:00000000000229d0 .LASF3636
C:\Users\SOLDER~1\AppData\Local\Temp\cc2EfhU3.s:22078  .debug_str:000000000000f6c9 .LASF3637
C:\Users\SOLDER~1\AppData\Local\Temp\cc2EfhU3.s:26120  .debug_str:000000000001fed1 .LASF3638
C:\Users\SOLDER~1\AppData\Local\Temp\cc2EfhU3.s:22586  .debug_str:0000000000011807 .LASF3639
C:\Users\SOLDER~1\AppData\Local\Temp\cc2EfhU3.s:28454  .debug_str:0000000000029748 .LASF3640
C:\Users\SOLDER~1\AppData\Local\Temp\cc2EfhU3.s:26800  .debug_str:0000000000022acf .LASF3641
C:\Users\SOLDER~1\AppData\Local\Temp\cc2EfhU3.s:26972  .debug_str:00000000000235f3 .LASF3642
C:\Users\SOLDER~1\AppData\Local\Temp\cc2EfhU3.s:28486  .debug_str:0000000000029956 .LASF3643
C:\Users\SOLDER~1\AppData\Local\Temp\cc2EfhU3.s:27312  .debug_str:0000000000024c58 .LASF3644
C:\Users\SOLDER~1\AppData\Local\Temp\cc2EfhU3.s:28660  .debug_str:000000000002a527 .LASF3645
C:\Users\SOLDER~1\AppData\Local\Temp\cc2EfhU3.s:21746  .debug_str:000000000000e1b9 .LASF3646
C:\Users\SOLDER~1\AppData\Local\Temp\cc2EfhU3.s:19916  .debug_str:0000000000006958 .LASF3647
C:\Users\SOLDER~1\AppData\Local\Temp\cc2EfhU3.s:18356  .debug_str:0000000000000384 .LASF3648
C:\Users\SOLDER~1\AppData\Local\Temp\cc2EfhU3.s:25872  .debug_str:000000000001eea2 .LASF3649
C:\Users\SOLDER~1\AppData\Local\Temp\cc2EfhU3.s:20590  .debug_str:0000000000009599 .LASF3650
C:\Users\SOLDER~1\AppData\Local\Temp\cc2EfhU3.s:23612  .debug_str:0000000000015bca .LASF3651
C:\Users\SOLDER~1\AppData\Local\Temp\cc2EfhU3.s:18482  .debug_str:0000000000000cab .LASF3652
C:\Users\SOLDER~1\AppData\Local\Temp\cc2EfhU3.s:29308  .debug_str:000000000002cf56 .LASF3653
C:\Users\SOLDER~1\AppData\Local\Temp\cc2EfhU3.s:24458  .debug_str:000000000001928a .LASF3654
C:\Users\SOLDER~1\AppData\Local\Temp\cc2EfhU3.s:29418  .debug_str:000000000002d659 .LASF3655
GAS LISTING C:\Users\SOLDER~1\AppData\Local\Temp\cc2EfhU3.s 			page 75


C:\Users\SOLDER~1\AppData\Local\Temp\cc2EfhU3.s:27874  .debug_str:00000000000271b8 .LASF3656
C:\Users\SOLDER~1\AppData\Local\Temp\cc2EfhU3.s:20644  .debug_str:00000000000098fc .LASF3657
C:\Users\SOLDER~1\AppData\Local\Temp\cc2EfhU3.s:27062  .debug_str:0000000000023bb1 .LASF3658
C:\Users\SOLDER~1\AppData\Local\Temp\cc2EfhU3.s:29200  .debug_str:000000000002c80c .LASF3659
C:\Users\SOLDER~1\AppData\Local\Temp\cc2EfhU3.s:19826  .debug_str:000000000000633e .LASF3660
C:\Users\SOLDER~1\AppData\Local\Temp\cc2EfhU3.s:18462  .debug_str:0000000000000b3f .LASF3661
C:\Users\SOLDER~1\AppData\Local\Temp\cc2EfhU3.s:19768  .debug_str:0000000000005f2b .LASF3662
C:\Users\SOLDER~1\AppData\Local\Temp\cc2EfhU3.s:28388  .debug_str:0000000000029347 .LASF3663
C:\Users\SOLDER~1\AppData\Local\Temp\cc2EfhU3.s:19470  .debug_str:0000000000004c73 .LASF3664
C:\Users\SOLDER~1\AppData\Local\Temp\cc2EfhU3.s:19016  .debug_str:0000000000002f7a .LASF3665
C:\Users\SOLDER~1\AppData\Local\Temp\cc2EfhU3.s:27738  .debug_str:00000000000268c4 .LASF3666
C:\Users\SOLDER~1\AppData\Local\Temp\cc2EfhU3.s:23018  .debug_str:00000000000133df .LASF3667
C:\Users\SOLDER~1\AppData\Local\Temp\cc2EfhU3.s:24214  .debug_str:0000000000018298 .LASF3668
C:\Users\SOLDER~1\AppData\Local\Temp\cc2EfhU3.s:21852  .debug_str:000000000000e892 .LASF3669
C:\Users\SOLDER~1\AppData\Local\Temp\cc2EfhU3.s:22114  .debug_str:000000000000f965 .LASF3670
C:\Users\SOLDER~1\AppData\Local\Temp\cc2EfhU3.s:26640  .debug_str:000000000002201b .LASF3671
C:\Users\SOLDER~1\AppData\Local\Temp\cc2EfhU3.s:27718  .debug_str:0000000000026754 .LASF3672
C:\Users\SOLDER~1\AppData\Local\Temp\cc2EfhU3.s:24674  .debug_str:000000000001a007 .LASF3673
C:\Users\SOLDER~1\AppData\Local\Temp\cc2EfhU3.s:24694  .debug_str:000000000001a143 .LASF3674
C:\Users\SOLDER~1\AppData\Local\Temp\cc2EfhU3.s:20760  .debug_str:000000000000a083 .LASF3675
C:\Users\SOLDER~1\AppData\Local\Temp\cc2EfhU3.s:22476  .debug_str:00000000000110e5 .LASF3676
C:\Users\SOLDER~1\AppData\Local\Temp\cc2EfhU3.s:26758  .debug_str:00000000000227ea .LASF3677
C:\Users\SOLDER~1\AppData\Local\Temp\cc2EfhU3.s:24708  .debug_str:000000000001a24e .LASF3678
C:\Users\SOLDER~1\AppData\Local\Temp\cc2EfhU3.s:26988  .debug_str:00000000000236ff .LASF3679
C:\Users\SOLDER~1\AppData\Local\Temp\cc2EfhU3.s:28342  .debug_str:0000000000029018 .LASF3680
C:\Users\SOLDER~1\AppData\Local\Temp\cc2EfhU3.s:29134  .debug_str:000000000002c3df .LASF3681
C:\Users\SOLDER~1\AppData\Local\Temp\cc2EfhU3.s:23830  .debug_str:00000000000169b4 .LASF3682
C:\Users\SOLDER~1\AppData\Local\Temp\cc2EfhU3.s:28818  .debug_str:000000000002af66 .LASF3683
C:\Users\SOLDER~1\AppData\Local\Temp\cc2EfhU3.s:22600  .debug_str:00000000000118f7 .LASF3684
C:\Users\SOLDER~1\AppData\Local\Temp\cc2EfhU3.s:26430  .debug_str:00000000000212d3 .LASF3685
C:\Users\SOLDER~1\AppData\Local\Temp\cc2EfhU3.s:22404  .debug_str:0000000000010c2e .LASF3686
C:\Users\SOLDER~1\AppData\Local\Temp\cc2EfhU3.s:29694  .debug_str:000000000002e814 .LASF3687
C:\Users\SOLDER~1\AppData\Local\Temp\cc2EfhU3.s:26448  .debug_str:0000000000021408 .LASF3688
C:\Users\SOLDER~1\AppData\Local\Temp\cc2EfhU3.s:20430  .debug_str:0000000000008ab2 .LASF3689
C:\Users\SOLDER~1\AppData\Local\Temp\cc2EfhU3.s:26438  .debug_str:0000000000021363 .LASF3690
C:\Users\SOLDER~1\AppData\Local\Temp\cc2EfhU3.s:23428  .debug_str:0000000000014ff9 .LASF3691
C:\Users\SOLDER~1\AppData\Local\Temp\cc2EfhU3.s:19700  .debug_str:0000000000005aeb .LASF3692
C:\Users\SOLDER~1\AppData\Local\Temp\cc2EfhU3.s:21314  .debug_str:000000000000c4ff .LASF3693
C:\Users\SOLDER~1\AppData\Local\Temp\cc2EfhU3.s:28282  .debug_str:0000000000028c55 .LASF3694
C:\Users\SOLDER~1\AppData\Local\Temp\cc2EfhU3.s:23340  .debug_str:0000000000014a37 .LASF3695
C:\Users\SOLDER~1\AppData\Local\Temp\cc2EfhU3.s:20624  .debug_str:00000000000097ae .LASF3696
C:\Users\SOLDER~1\AppData\Local\Temp\cc2EfhU3.s:21198  .debug_str:000000000000bd0d .LASF3697
C:\Users\SOLDER~1\AppData\Local\Temp\cc2EfhU3.s:24728  .debug_str:000000000001a36c .LASF3698
C:\Users\SOLDER~1\AppData\Local\Temp\cc2EfhU3.s:22096  .debug_str:000000000000f841 .LASF3699
C:\Users\SOLDER~1\AppData\Local\Temp\cc2EfhU3.s:25638  .debug_str:000000000001df2c .LASF3700
C:\Users\SOLDER~1\AppData\Local\Temp\cc2EfhU3.s:18770  .debug_str:0000000000001f50 .LASF3701
C:\Users\SOLDER~1\AppData\Local\Temp\cc2EfhU3.s:22344  .debug_str:0000000000010881 .LASF3702
C:\Users\SOLDER~1\AppData\Local\Temp\cc2EfhU3.s:21802  .debug_str:000000000000e51b .LASF3703
C:\Users\SOLDER~1\AppData\Local\Temp\cc2EfhU3.s:19110  .debug_str:000000000000356c .LASF3704
C:\Users\SOLDER~1\AppData\Local\Temp\cc2EfhU3.s:27870  .debug_str:000000000002716b .LASF3705
C:\Users\SOLDER~1\AppData\Local\Temp\cc2EfhU3.s:27202  .debug_str:000000000002450c .LASF3706
C:\Users\SOLDER~1\AppData\Local\Temp\cc2EfhU3.s:21474  .debug_str:000000000000cfd4 .LASF3707
C:\Users\SOLDER~1\AppData\Local\Temp\cc2EfhU3.s:18848  .debug_str:00000000000024a3 .LASF3708
C:\Users\SOLDER~1\AppData\Local\Temp\cc2EfhU3.s:27450  .debug_str:00000000000254e1 .LASF3709
C:\Users\SOLDER~1\AppData\Local\Temp\cc2EfhU3.s:19042  .debug_str:000000000000311a .LASF3710
C:\Users\SOLDER~1\AppData\Local\Temp\cc2EfhU3.s:18784  .debug_str:0000000000002036 .LASF3711
C:\Users\SOLDER~1\AppData\Local\Temp\cc2EfhU3.s:27540  .debug_str:0000000000025b21 .LASF3712
GAS LISTING C:\Users\SOLDER~1\AppData\Local\Temp\cc2EfhU3.s 			page 76


C:\Users\SOLDER~1\AppData\Local\Temp\cc2EfhU3.s:27918  .debug_str:000000000002748f .LASF3713
C:\Users\SOLDER~1\AppData\Local\Temp\cc2EfhU3.s:28386  .debug_str:0000000000029322 .LASF3714
C:\Users\SOLDER~1\AppData\Local\Temp\cc2EfhU3.s:19446  .debug_str:0000000000004aca .LASF3715
C:\Users\SOLDER~1\AppData\Local\Temp\cc2EfhU3.s:28398  .debug_str:00000000000293fc .LASF3716
C:\Users\SOLDER~1\AppData\Local\Temp\cc2EfhU3.s:24472  .debug_str:0000000000019389 .LASF3717
C:\Users\SOLDER~1\AppData\Local\Temp\cc2EfhU3.s:21230  .debug_str:000000000000bf07 .LASF3718
C:\Users\SOLDER~1\AppData\Local\Temp\cc2EfhU3.s:27800  .debug_str:0000000000026cd0 .LASF3719
C:\Users\SOLDER~1\AppData\Local\Temp\cc2EfhU3.s:21534  .debug_str:000000000000d3c1 .LASF3720
C:\Users\SOLDER~1\AppData\Local\Temp\cc2EfhU3.s:29588  .debug_str:000000000002e10c .LASF3721
C:\Users\SOLDER~1\AppData\Local\Temp\cc2EfhU3.s:28848  .debug_str:000000000002b131 .LASF3722
C:\Users\SOLDER~1\AppData\Local\Temp\cc2EfhU3.s:27276  .debug_str:00000000000249f5 .LASF3723
C:\Users\SOLDER~1\AppData\Local\Temp\cc2EfhU3.s:29316  .debug_str:000000000002cfd9 .LASF3724
C:\Users\SOLDER~1\AppData\Local\Temp\cc2EfhU3.s:19682  .debug_str:00000000000059b4 .LASF3725
C:\Users\SOLDER~1\AppData\Local\Temp\cc2EfhU3.s:23256  .debug_str:000000000001449b .LASF3726
C:\Users\SOLDER~1\AppData\Local\Temp\cc2EfhU3.s:28584  .debug_str:000000000002a01a .LASF3727
C:\Users\SOLDER~1\AppData\Local\Temp\cc2EfhU3.s:25174  .debug_str:000000000001c0a6 .LASF3728
C:\Users\SOLDER~1\AppData\Local\Temp\cc2EfhU3.s:23546  .debug_str:00000000000157a5 .LASF3729
C:\Users\SOLDER~1\AppData\Local\Temp\cc2EfhU3.s:24334  .debug_str:0000000000018a5f .LASF3730
C:\Users\SOLDER~1\AppData\Local\Temp\cc2EfhU3.s:20206  .debug_str:0000000000007c0e .LASF3731
C:\Users\SOLDER~1\AppData\Local\Temp\cc2EfhU3.s:24852  .debug_str:000000000001abe5 .LASF3732
C:\Users\SOLDER~1\AppData\Local\Temp\cc2EfhU3.s:21200  .debug_str:000000000000bd32 .LASF3733
C:\Users\SOLDER~1\AppData\Local\Temp\cc2EfhU3.s:24628  .debug_str:0000000000019d12 .LASF3734
C:\Users\SOLDER~1\AppData\Local\Temp\cc2EfhU3.s:21128  .debug_str:000000000000b87c .LASF3735
C:\Users\SOLDER~1\AppData\Local\Temp\cc2EfhU3.s:19688  .debug_str:0000000000005a13 .LASF3736
C:\Users\SOLDER~1\AppData\Local\Temp\cc2EfhU3.s:22164  .debug_str:000000000000fcfa .LASF3737
C:\Users\SOLDER~1\AppData\Local\Temp\cc2EfhU3.s:19990  .debug_str:0000000000006e08 .LASF3738
C:\Users\SOLDER~1\AppData\Local\Temp\cc2EfhU3.s:19096  .debug_str:00000000000034b0 .LASF3739
C:\Users\SOLDER~1\AppData\Local\Temp\cc2EfhU3.s:25938  .debug_str:000000000001f335 .LASF3740
C:\Users\SOLDER~1\AppData\Local\Temp\cc2EfhU3.s:26030  .debug_str:000000000001f923 .LASF3741
C:\Users\SOLDER~1\AppData\Local\Temp\cc2EfhU3.s:21632  .debug_str:000000000000d9c9 .LASF3742
C:\Users\SOLDER~1\AppData\Local\Temp\cc2EfhU3.s:29538  .debug_str:000000000002ddf1 .LASF3743
C:\Users\SOLDER~1\AppData\Local\Temp\cc2EfhU3.s:19680  .debug_str:0000000000005990 .LASF3744
C:\Users\SOLDER~1\AppData\Local\Temp\cc2EfhU3.s:28518  .debug_str:0000000000029bb2 .LASF3745
C:\Users\SOLDER~1\AppData\Local\Temp\cc2EfhU3.s:21678  .debug_str:000000000000dcd0 .LASF3746
C:\Users\SOLDER~1\AppData\Local\Temp\cc2EfhU3.s:26764  .debug_str:0000000000022849 .LASF3747
C:\Users\SOLDER~1\AppData\Local\Temp\cc2EfhU3.s:22966  .debug_str:0000000000013033 .LASF3748
C:\Users\SOLDER~1\AppData\Local\Temp\cc2EfhU3.s:21438  .debug_str:000000000000cd6f .LASF3749
C:\Users\SOLDER~1\AppData\Local\Temp\cc2EfhU3.s:28672  .debug_str:000000000002a5ca .LASF3750
C:\Users\SOLDER~1\AppData\Local\Temp\cc2EfhU3.s:25030  .debug_str:000000000001b6dd .LASF3751
C:\Users\SOLDER~1\AppData\Local\Temp\cc2EfhU3.s:22184  .debug_str:000000000000fe4f .LASF3752
C:\Users\SOLDER~1\AppData\Local\Temp\cc2EfhU3.s:25622  .debug_str:000000000001de3e .LASF3753
C:\Users\SOLDER~1\AppData\Local\Temp\cc2EfhU3.s:22148  .debug_str:000000000000fbe3 .LASF3754
C:\Users\SOLDER~1\AppData\Local\Temp\cc2EfhU3.s:24638  .debug_str:0000000000019dc4 .LASF3755
C:\Users\SOLDER~1\AppData\Local\Temp\cc2EfhU3.s:24872  .debug_str:000000000001ad3f .LASF3756
C:\Users\SOLDER~1\AppData\Local\Temp\cc2EfhU3.s:22738  .debug_str:00000000000121a6 .LASF3757
C:\Users\SOLDER~1\AppData\Local\Temp\cc2EfhU3.s:24218  .debug_str:00000000000182e6 .LASF3758
C:\Users\SOLDER~1\AppData\Local\Temp\cc2EfhU3.s:18872  .debug_str:0000000000002621 .LASF3759
C:\Users\SOLDER~1\AppData\Local\Temp\cc2EfhU3.s:19588  .debug_str:0000000000005383 .LASF3760
C:\Users\SOLDER~1\AppData\Local\Temp\cc2EfhU3.s:29118  .debug_str:000000000002c2d9 .LASF3761
C:\Users\SOLDER~1\AppData\Local\Temp\cc2EfhU3.s:29340  .debug_str:000000000002d15e .LASF3762
C:\Users\SOLDER~1\AppData\Local\Temp\cc2EfhU3.s:18578  .debug_str:00000000000012d5 .LASF3763
C:\Users\SOLDER~1\AppData\Local\Temp\cc2EfhU3.s:24276  .debug_str:0000000000018680 .LASF3764
C:\Users\SOLDER~1\AppData\Local\Temp\cc2EfhU3.s:22454  .debug_str:0000000000010f7d .LASF3765
C:\Users\SOLDER~1\AppData\Local\Temp\cc2EfhU3.s:27204  .debug_str:0000000000024530 .LASF3766
C:\Users\SOLDER~1\AppData\Local\Temp\cc2EfhU3.s:21000  .debug_str:000000000000b05c .LASF3767
C:\Users\SOLDER~1\AppData\Local\Temp\cc2EfhU3.s:26504  .debug_str:00000000000217a4 .LASF3768
C:\Users\SOLDER~1\AppData\Local\Temp\cc2EfhU3.s:18852  .debug_str:00000000000024f5 .LASF3769
GAS LISTING C:\Users\SOLDER~1\AppData\Local\Temp\cc2EfhU3.s 			page 77


C:\Users\SOLDER~1\AppData\Local\Temp\cc2EfhU3.s:27990  .debug_str:0000000000027920 .LASF3770
C:\Users\SOLDER~1\AppData\Local\Temp\cc2EfhU3.s:18526  .debug_str:0000000000000f97 .LASF3771
C:\Users\SOLDER~1\AppData\Local\Temp\cc2EfhU3.s:27064  .debug_str:0000000000023bd8 .LASF3772
C:\Users\SOLDER~1\AppData\Local\Temp\cc2EfhU3.s:23082  .debug_str:0000000000013869 .LASF3773
C:\Users\SOLDER~1\AppData\Local\Temp\cc2EfhU3.s:28394  .debug_str:00000000000293ac .LASF3774
C:\Users\SOLDER~1\AppData\Local\Temp\cc2EfhU3.s:25846  .debug_str:000000000001ece7 .LASF3775
C:\Users\SOLDER~1\AppData\Local\Temp\cc2EfhU3.s:21514  .debug_str:000000000000d25c .LASF3776
C:\Users\SOLDER~1\AppData\Local\Temp\cc2EfhU3.s:20102  .debug_str:0000000000007572 .LASF3777
C:\Users\SOLDER~1\AppData\Local\Temp\cc2EfhU3.s:27704  .debug_str:000000000002667d .LASF3778
C:\Users\SOLDER~1\AppData\Local\Temp\cc2EfhU3.s:26024  .debug_str:000000000001f8c9 .LASF3779
C:\Users\SOLDER~1\AppData\Local\Temp\cc2EfhU3.s:26280  .debug_str:000000000002093d .LASF3780
C:\Users\SOLDER~1\AppData\Local\Temp\cc2EfhU3.s:27174  .debug_str:0000000000024327 .LASF3781
C:\Users\SOLDER~1\AppData\Local\Temp\cc2EfhU3.s:19284  .debug_str:000000000000409b .LASF3782
C:\Users\SOLDER~1\AppData\Local\Temp\cc2EfhU3.s:23360  .debug_str:0000000000014bb9 .LASF3783
C:\Users\SOLDER~1\AppData\Local\Temp\cc2EfhU3.s:21964  .debug_str:000000000000ef81 .LASF3784
C:\Users\SOLDER~1\AppData\Local\Temp\cc2EfhU3.s:19958  .debug_str:0000000000006be6 .LASF3785
C:\Users\SOLDER~1\AppData\Local\Temp\cc2EfhU3.s:24152  .debug_str:0000000000017eab .LASF3786
C:\Users\SOLDER~1\AppData\Local\Temp\cc2EfhU3.s:29320  .debug_str:000000000002d022 .LASF3787
C:\Users\SOLDER~1\AppData\Local\Temp\cc2EfhU3.s:27178  .debug_str:0000000000024364 .LASF3788
C:\Users\SOLDER~1\AppData\Local\Temp\cc2EfhU3.s:19740  .debug_str:0000000000005d7b .LASF3789
C:\Users\SOLDER~1\AppData\Local\Temp\cc2EfhU3.s:20868  .debug_str:000000000000a7d7 .LASF3790
C:\Users\SOLDER~1\AppData\Local\Temp\cc2EfhU3.s:28224  .debug_str:00000000000288b5 .LASF3791
C:\Users\SOLDER~1\AppData\Local\Temp\cc2EfhU3.s:27824  .debug_str:0000000000026e50 .LASF3792
C:\Users\SOLDER~1\AppData\Local\Temp\cc2EfhU3.s:25452  .debug_str:000000000001d381 .LASF3793
C:\Users\SOLDER~1\AppData\Local\Temp\cc2EfhU3.s:29224  .debug_str:000000000002c97a .LASF3794
C:\Users\SOLDER~1\AppData\Local\Temp\cc2EfhU3.s:22284  .debug_str:00000000000104b7 .LASF3795
C:\Users\SOLDER~1\AppData\Local\Temp\cc2EfhU3.s:20750  .debug_str:0000000000009fc3 .LASF3796
C:\Users\SOLDER~1\AppData\Local\Temp\cc2EfhU3.s:22186  .debug_str:000000000000fe73 .LASF3797
C:\Users\SOLDER~1\AppData\Local\Temp\cc2EfhU3.s:28014  .debug_str:0000000000027abd .LASF3798
C:\Users\SOLDER~1\AppData\Local\Temp\cc2EfhU3.s:28618  .debug_str:000000000002a26b .LASF3799
C:\Users\SOLDER~1\AppData\Local\Temp\cc2EfhU3.s:25096  .debug_str:000000000001bb40 .LASF3800
C:\Users\SOLDER~1\AppData\Local\Temp\cc2EfhU3.s:22242  .debug_str:00000000000101d5 .LASF3801
C:\Users\SOLDER~1\AppData\Local\Temp\cc2EfhU3.s:24024  .debug_str:0000000000017646 .LASF3802
C:\Users\SOLDER~1\AppData\Local\Temp\cc2EfhU3.s:28334  .debug_str:0000000000028fa6 .LASF3803
C:\Users\SOLDER~1\AppData\Local\Temp\cc2EfhU3.s:26086  .debug_str:000000000001fc96 .LASF3804
C:\Users\SOLDER~1\AppData\Local\Temp\cc2EfhU3.s:25212  .debug_str:000000000001c32b .LASF3805
C:\Users\SOLDER~1\AppData\Local\Temp\cc2EfhU3.s:18382  .debug_str:0000000000000532 .LASF3806
C:\Users\SOLDER~1\AppData\Local\Temp\cc2EfhU3.s:28962  .debug_str:000000000002b889 .LASF3807
C:\Users\SOLDER~1\AppData\Local\Temp\cc2EfhU3.s:18446  .debug_str:0000000000000a1a .LASF3808
C:\Users\SOLDER~1\AppData\Local\Temp\cc2EfhU3.s:23486  .debug_str:00000000000153d3 .LASF3809
C:\Users\SOLDER~1\AppData\Local\Temp\cc2EfhU3.s:23794  .debug_str:0000000000016749 .LASF3810
C:\Users\SOLDER~1\AppData\Local\Temp\cc2EfhU3.s:26048  .debug_str:000000000001fa4b .LASF3811
C:\Users\SOLDER~1\AppData\Local\Temp\cc2EfhU3.s:23608  .debug_str:0000000000015b89 .LASF3812
C:\Users\SOLDER~1\AppData\Local\Temp\cc2EfhU3.s:20358  .debug_str:0000000000008602 .LASF3813
C:\Users\SOLDER~1\AppData\Local\Temp\cc2EfhU3.s:19312  .debug_str:000000000000425f .LASF3814
C:\Users\SOLDER~1\AppData\Local\Temp\cc2EfhU3.s:20542  .debug_str:0000000000009254 .LASF3815
C:\Users\SOLDER~1\AppData\Local\Temp\cc2EfhU3.s:23586  .debug_str:0000000000015a33 .LASF3816
C:\Users\SOLDER~1\AppData\Local\Temp\cc2EfhU3.s:20378  .debug_str:0000000000008755 .LASF3817
C:\Users\SOLDER~1\AppData\Local\Temp\cc2EfhU3.s:21572  .debug_str:000000000000d621 .LASF3818
C:\Users\SOLDER~1\AppData\Local\Temp\cc2EfhU3.s:19494  .debug_str:0000000000004dde .LASF3819
C:\Users\SOLDER~1\AppData\Local\Temp\cc2EfhU3.s:27244  .debug_str:00000000000247c1 .LASF3820
C:\Users\SOLDER~1\AppData\Local\Temp\cc2EfhU3.s:22824  .debug_str:0000000000012704 .LASF3821
C:\Users\SOLDER~1\AppData\Local\Temp\cc2EfhU3.s:22160  .debug_str:000000000000fcb3 .LASF3822
C:\Users\SOLDER~1\AppData\Local\Temp\cc2EfhU3.s:25354  .debug_str:000000000001ccd7 .LASF3823
C:\Users\SOLDER~1\AppData\Local\Temp\cc2EfhU3.s:28554  .debug_str:0000000000029e01 .LASF3824
C:\Users\SOLDER~1\AppData\Local\Temp\cc2EfhU3.s:20512  .debug_str:000000000000904c .LASF3825
C:\Users\SOLDER~1\AppData\Local\Temp\cc2EfhU3.s:26508  .debug_str:00000000000217d7 .LASF3826
GAS LISTING C:\Users\SOLDER~1\AppData\Local\Temp\cc2EfhU3.s 			page 78


C:\Users\SOLDER~1\AppData\Local\Temp\cc2EfhU3.s:20734  .debug_str:0000000000009eca .LASF3827
C:\Users\SOLDER~1\AppData\Local\Temp\cc2EfhU3.s:20150  .debug_str:000000000000783b .LASF3828
C:\Users\SOLDER~1\AppData\Local\Temp\cc2EfhU3.s:21338  .debug_str:000000000000c69e .LASF3829
C:\Users\SOLDER~1\AppData\Local\Temp\cc2EfhU3.s:21326  .debug_str:000000000000c5c2 .LASF3830
C:\Users\SOLDER~1\AppData\Local\Temp\cc2EfhU3.s:19004  .debug_str:0000000000002e9b .LASF3831
C:\Users\SOLDER~1\AppData\Local\Temp\cc2EfhU3.s:21134  .debug_str:000000000000b8da .LASF3832
C:\Users\SOLDER~1\AppData\Local\Temp\cc2EfhU3.s:26992  .debug_str:0000000000023743 .LASF3833
C:\Users\SOLDER~1\AppData\Local\Temp\cc2EfhU3.s:18516  .debug_str:0000000000000ee2 .LASF3834
C:\Users\SOLDER~1\AppData\Local\Temp\cc2EfhU3.s:21664  .debug_str:000000000000dbeb .LASF3835
C:\Users\SOLDER~1\AppData\Local\Temp\cc2EfhU3.s:28834  .debug_str:000000000002b088 .LASF3836
C:\Users\SOLDER~1\AppData\Local\Temp\cc2EfhU3.s:26910  .debug_str:00000000000231eb .LASF3837
C:\Users\SOLDER~1\AppData\Local\Temp\cc2EfhU3.s:19376  .debug_str:0000000000004674 .LASF3838
C:\Users\SOLDER~1\AppData\Local\Temp\cc2EfhU3.s:27170  .debug_str:00000000000242e0 .LASF3839
C:\Users\SOLDER~1\AppData\Local\Temp\cc2EfhU3.s:26704  .debug_str:0000000000022439 .LASF3840
C:\Users\SOLDER~1\AppData\Local\Temp\cc2EfhU3.s:19330  .debug_str:000000000000437d .LASF3841
C:\Users\SOLDER~1\AppData\Local\Temp\cc2EfhU3.s:21392  .debug_str:000000000000ca44 .LASF3842
C:\Users\SOLDER~1\AppData\Local\Temp\cc2EfhU3.s:28400  .debug_str:0000000000029421 .LASF3843
C:\Users\SOLDER~1\AppData\Local\Temp\cc2EfhU3.s:20846  .debug_str:000000000000a66a .LASF3844
C:\Users\SOLDER~1\AppData\Local\Temp\cc2EfhU3.s:26740  .debug_str:000000000002269c .LASF3845
C:\Users\SOLDER~1\AppData\Local\Temp\cc2EfhU3.s:25344  .debug_str:000000000001cc4a .LASF3846
C:\Users\SOLDER~1\AppData\Local\Temp\cc2EfhU3.s:27048  .debug_str:0000000000023ac6 .LASF3847
C:\Users\SOLDER~1\AppData\Local\Temp\cc2EfhU3.s:22370  .debug_str:0000000000010a37 .LASF3848
C:\Users\SOLDER~1\AppData\Local\Temp\cc2EfhU3.s:23742  .debug_str:0000000000016439 .LASF3849
C:\Users\SOLDER~1\AppData\Local\Temp\cc2EfhU3.s:19756  .debug_str:0000000000005e6b .LASF3850
C:\Users\SOLDER~1\AppData\Local\Temp\cc2EfhU3.s:21238  .debug_str:000000000000bfa9 .LASF3851
C:\Users\SOLDER~1\AppData\Local\Temp\cc2EfhU3.s:20996  .debug_str:000000000000b027 .LASF3852
C:\Users\SOLDER~1\AppData\Local\Temp\cc2EfhU3.s:21026  .debug_str:000000000000b1e7 .LASF3853
C:\Users\SOLDER~1\AppData\Local\Temp\cc2EfhU3.s:19014  .debug_str:0000000000002f64 .LASF3854
C:\Users\SOLDER~1\AppData\Local\Temp\cc2EfhU3.s:24464  .debug_str:00000000000192f9 .LASF3855
C:\Users\SOLDER~1\AppData\Local\Temp\cc2EfhU3.s:21660  .debug_str:000000000000dbb0 .LASF3856
C:\Users\SOLDER~1\AppData\Local\Temp\cc2EfhU3.s:27852  .debug_str:0000000000027028 .LASF3857
C:\Users\SOLDER~1\AppData\Local\Temp\cc2EfhU3.s:28996  .debug_str:000000000002bab2 .LASF3858
C:\Users\SOLDER~1\AppData\Local\Temp\cc2EfhU3.s:27420  .debug_str:0000000000025309 .LASF3859
C:\Users\SOLDER~1\AppData\Local\Temp\cc2EfhU3.s:25690  .debug_str:000000000001e272 .LASF3860
C:\Users\SOLDER~1\AppData\Local\Temp\cc2EfhU3.s:18476  .debug_str:0000000000000c3f .LASF3861
C:\Users\SOLDER~1\AppData\Local\Temp\cc2EfhU3.s:28458  .debug_str:000000000002979a .LASF3862
C:\Users\SOLDER~1\AppData\Local\Temp\cc2EfhU3.s:19172  .debug_str:000000000000396b .LASF3863
C:\Users\SOLDER~1\AppData\Local\Temp\cc2EfhU3.s:29364  .debug_str:000000000002d2d3 .LASF3864
C:\Users\SOLDER~1\AppData\Local\Temp\cc2EfhU3.s:21820  .debug_str:000000000000e653 .LASF3865
C:\Users\SOLDER~1\AppData\Local\Temp\cc2EfhU3.s:20994  .debug_str:000000000000b007 .LASF3866
C:\Users\SOLDER~1\AppData\Local\Temp\cc2EfhU3.s:22158  .debug_str:000000000000fc93 .LASF3867
C:\Users\SOLDER~1\AppData\Local\Temp\cc2EfhU3.s:24208  .debug_str:0000000000018245 .LASF3868
C:\Users\SOLDER~1\AppData\Local\Temp\cc2EfhU3.s:25234  .debug_str:000000000001c4c4 .LASF3869
C:\Users\SOLDER~1\AppData\Local\Temp\cc2EfhU3.s:21812  .debug_str:000000000000e5c7 .LASF3870
C:\Users\SOLDER~1\AppData\Local\Temp\cc2EfhU3.s:21014  .debug_str:000000000000b11c .LASF3871
C:\Users\SOLDER~1\AppData\Local\Temp\cc2EfhU3.s:29464  .debug_str:000000000002d937 .LASF3872
C:\Users\SOLDER~1\AppData\Local\Temp\cc2EfhU3.s:24306  .debug_str:0000000000018872 .LASF3873
C:\Users\SOLDER~1\AppData\Local\Temp\cc2EfhU3.s:19264  .debug_str:0000000000003f45 .LASF3874
C:\Users\SOLDER~1\AppData\Local\Temp\cc2EfhU3.s:28292  .debug_str:0000000000028ced .LASF3875
C:\Users\SOLDER~1\AppData\Local\Temp\cc2EfhU3.s:20198  .debug_str:0000000000007b94 .LASF3876
C:\Users\SOLDER~1\AppData\Local\Temp\cc2EfhU3.s:19262  .debug_str:0000000000003f21 .LASF3877
C:\Users\SOLDER~1\AppData\Local\Temp\cc2EfhU3.s:24428  .debug_str:0000000000019090 .LASF3878
C:\Users\SOLDER~1\AppData\Local\Temp\cc2EfhU3.s:21250  .debug_str:000000000000c07b .LASF3879
C:\Users\SOLDER~1\AppData\Local\Temp\cc2EfhU3.s:21328  .debug_str:000000000000c5e4 .LASF3880
C:\Users\SOLDER~1\AppData\Local\Temp\cc2EfhU3.s:27252  .debug_str:000000000002483b .LASF3881
C:\Users\SOLDER~1\AppData\Local\Temp\cc2EfhU3.s:22068  .debug_str:000000000000f628 .LASF3882
C:\Users\SOLDER~1\AppData\Local\Temp\cc2EfhU3.s:18324  .debug_str:000000000000015d .LASF3883
GAS LISTING C:\Users\SOLDER~1\AppData\Local\Temp\cc2EfhU3.s 			page 79


C:\Users\SOLDER~1\AppData\Local\Temp\cc2EfhU3.s:28908  .debug_str:000000000002b52b .LASF3884
C:\Users\SOLDER~1\AppData\Local\Temp\cc2EfhU3.s:28324  .debug_str:0000000000028eeb .LASF3885
C:\Users\SOLDER~1\AppData\Local\Temp\cc2EfhU3.s:21698  .debug_str:000000000000de30 .LASF3886
C:\Users\SOLDER~1\AppData\Local\Temp\cc2EfhU3.s:26240  .debug_str:0000000000020698 .LASF3887
C:\Users\SOLDER~1\AppData\Local\Temp\cc2EfhU3.s:18456  .debug_str:0000000000000ac1 .LASF3888
C:\Users\SOLDER~1\AppData\Local\Temp\cc2EfhU3.s:29548  .debug_str:000000000002de7f .LASF3889
C:\Users\SOLDER~1\AppData\Local\Temp\cc2EfhU3.s:20984  .debug_str:000000000000af5f .LASF3890
C:\Users\SOLDER~1\AppData\Local\Temp\cc2EfhU3.s:22232  .debug_str:000000000001013a .LASF3891
C:\Users\SOLDER~1\AppData\Local\Temp\cc2EfhU3.s:29052  .debug_str:000000000002bea7 .LASF3892
C:\Users\SOLDER~1\AppData\Local\Temp\cc2EfhU3.s:20322  .debug_str:00000000000083cc .LASF3893
C:\Users\SOLDER~1\AppData\Local\Temp\cc2EfhU3.s:25372  .debug_str:000000000001cdf7 .LASF3894
C:\Users\SOLDER~1\AppData\Local\Temp\cc2EfhU3.s:24390  .debug_str:0000000000018e47 .LASF3895
C:\Users\SOLDER~1\AppData\Local\Temp\cc2EfhU3.s:26328  .debug_str:0000000000020c3a .LASF3896
C:\Users\SOLDER~1\AppData\Local\Temp\cc2EfhU3.s:20652  .debug_str:0000000000009972 .LASF3897
C:\Users\SOLDER~1\AppData\Local\Temp\cc2EfhU3.s:28038  .debug_str:0000000000027c74 .LASF3898
C:\Users\SOLDER~1\AppData\Local\Temp\cc2EfhU3.s:18720  .debug_str:0000000000001c00 .LASF3899
C:\Users\SOLDER~1\AppData\Local\Temp\cc2EfhU3.s:23994  .debug_str:000000000001743e .LASF3900
C:\Users\SOLDER~1\AppData\Local\Temp\cc2EfhU3.s:28752  .debug_str:000000000002aaf8 .LASF3901
C:\Users\SOLDER~1\AppData\Local\Temp\cc2EfhU3.s:29562  .debug_str:000000000002df7a .LASF3902
C:\Users\SOLDER~1\AppData\Local\Temp\cc2EfhU3.s:21956  .debug_str:000000000000ef16 .LASF3903
C:\Users\SOLDER~1\AppData\Local\Temp\cc2EfhU3.s:23280  .debug_str:000000000001464a .LASF3904
C:\Users\SOLDER~1\AppData\Local\Temp\cc2EfhU3.s:25280  .debug_str:000000000001c7c6 .LASF3905
C:\Users\SOLDER~1\AppData\Local\Temp\cc2EfhU3.s:27184  .debug_str:00000000000243e8 .LASF3906
C:\Users\SOLDER~1\AppData\Local\Temp\cc2EfhU3.s:28252  .debug_str:0000000000028a4d .LASF3907
C:\Users\SOLDER~1\AppData\Local\Temp\cc2EfhU3.s:25644  .debug_str:000000000001df9b .LASF3908
C:\Users\SOLDER~1\AppData\Local\Temp\cc2EfhU3.s:29560  .debug_str:000000000002df57 .LASF3909
C:\Users\SOLDER~1\AppData\Local\Temp\cc2EfhU3.s:23654  .debug_str:0000000000015e7d .LASF3910
C:\Users\SOLDER~1\AppData\Local\Temp\cc2EfhU3.s:29422  .debug_str:000000000002d692 .LASF3911
C:\Users\SOLDER~1\AppData\Local\Temp\cc2EfhU3.s:24186  .debug_str:00000000000180e1 .LASF3912
C:\Users\SOLDER~1\AppData\Local\Temp\cc2EfhU3.s:28084  .debug_str:0000000000027f92 .LASF3913
C:\Users\SOLDER~1\AppData\Local\Temp\cc2EfhU3.s:19398  .debug_str:00000000000047ea .LASF3914
C:\Users\SOLDER~1\AppData\Local\Temp\cc2EfhU3.s:24690  .debug_str:000000000001a10e .LASF3915
C:\Users\SOLDER~1\AppData\Local\Temp\cc2EfhU3.s:25878  .debug_str:000000000001ef22 .LASF3916
C:\Users\SOLDER~1\AppData\Local\Temp\cc2EfhU3.s:26340  .debug_str:0000000000020d07 .LASF3917
C:\Users\SOLDER~1\AppData\Local\Temp\cc2EfhU3.s:23538  .debug_str:000000000001571d .LASF3918
C:\Users\SOLDER~1\AppData\Local\Temp\cc2EfhU3.s:27614  .debug_str:000000000002605d .LASF3919
C:\Users\SOLDER~1\AppData\Local\Temp\cc2EfhU3.s:28530  .debug_str:0000000000029c74 .LASF3920
C:\Users\SOLDER~1\AppData\Local\Temp\cc2EfhU3.s:27496  .debug_str:00000000000257ff .LASF3921
C:\Users\SOLDER~1\AppData\Local\Temp\cc2EfhU3.s:20070  .debug_str:0000000000007370 .LASF3922
C:\Users\SOLDER~1\AppData\Local\Temp\cc2EfhU3.s:26428  .debug_str:00000000000212b2 .LASF3923
C:\Users\SOLDER~1\AppData\Local\Temp\cc2EfhU3.s:22460  .debug_str:0000000000010fd2 .LASF3924
C:\Users\SOLDER~1\AppData\Local\Temp\cc2EfhU3.s:26272  .debug_str:00000000000208af .LASF3925
C:\Users\SOLDER~1\AppData\Local\Temp\cc2EfhU3.s:19550  .debug_str:0000000000005126 .LASF3926
C:\Users\SOLDER~1\AppData\Local\Temp\cc2EfhU3.s:23006  .debug_str:0000000000013307 .LASF3927
C:\Users\SOLDER~1\AppData\Local\Temp\cc2EfhU3.s:20670  .debug_str:0000000000009a8a .LASF3928
C:\Users\SOLDER~1\AppData\Local\Temp\cc2EfhU3.s:19140  .debug_str:0000000000003762 .LASF3929
C:\Users\SOLDER~1\AppData\Local\Temp\cc2EfhU3.s:20178  .debug_str:0000000000007a36 .LASF3930
C:\Users\SOLDER~1\AppData\Local\Temp\cc2EfhU3.s:25892  .debug_str:000000000001f009 .LASF3931
C:\Users\SOLDER~1\AppData\Local\Temp\cc2EfhU3.s:25374  .debug_str:000000000001ce0e .LASF3932
C:\Users\SOLDER~1\AppData\Local\Temp\cc2EfhU3.s:28100  .debug_str:0000000000028081 .LASF3933
C:\Users\SOLDER~1\AppData\Local\Temp\cc2EfhU3.s:27668  .debug_str:00000000000263f3 .LASF3934
C:\Users\SOLDER~1\AppData\Local\Temp\cc2EfhU3.s:20664  .debug_str:0000000000009a2d .LASF3935
C:\Users\SOLDER~1\AppData\Local\Temp\cc2EfhU3.s:21854  .debug_str:000000000000e8b8 .LASF3936
C:\Users\SOLDER~1\AppData\Local\Temp\cc2EfhU3.s:23610  .debug_str:0000000000015bab .LASF3937
C:\Users\SOLDER~1\AppData\Local\Temp\cc2EfhU3.s:19610  .debug_str:00000000000054ca .LASF3938
C:\Users\SOLDER~1\AppData\Local\Temp\cc2EfhU3.s:20354  .debug_str:00000000000085ad .LASF3939
C:\Users\SOLDER~1\AppData\Local\Temp\cc2EfhU3.s:28602  .debug_str:000000000002a16a .LASF3940
GAS LISTING C:\Users\SOLDER~1\AppData\Local\Temp\cc2EfhU3.s 			page 80


C:\Users\SOLDER~1\AppData\Local\Temp\cc2EfhU3.s:24136  .debug_str:0000000000017d7a .LASF3941
C:\Users\SOLDER~1\AppData\Local\Temp\cc2EfhU3.s:21780  .debug_str:000000000000e3e3 .LASF3942
C:\Users\SOLDER~1\AppData\Local\Temp\cc2EfhU3.s:26344  .debug_str:0000000000020d4d .LASF3943
C:\Users\SOLDER~1\AppData\Local\Temp\cc2EfhU3.s:18904  .debug_str:0000000000002840 .LASF3944
C:\Users\SOLDER~1\AppData\Local\Temp\cc2EfhU3.s:25136  .debug_str:000000000001bdea .LASF3945
C:\Users\SOLDER~1\AppData\Local\Temp\cc2EfhU3.s:20310  .debug_str:00000000000082f7 .LASF3946
C:\Users\SOLDER~1\AppData\Local\Temp\cc2EfhU3.s:26214  .debug_str:00000000000204e7 .LASF3947
C:\Users\SOLDER~1\AppData\Local\Temp\cc2EfhU3.s:27362  .debug_str:0000000000024f53 .LASF3948
C:\Users\SOLDER~1\AppData\Local\Temp\cc2EfhU3.s:23512  .debug_str:000000000001558f .LASF3949
C:\Users\SOLDER~1\AppData\Local\Temp\cc2EfhU3.s:18580  .debug_str:00000000000012e8 .LASF3950
C:\Users\SOLDER~1\AppData\Local\Temp\cc2EfhU3.s:26954  .debug_str:00000000000234c8 .LASF3951
C:\Users\SOLDER~1\AppData\Local\Temp\cc2EfhU3.s:19268  .debug_str:0000000000003f91 .LASF3952
C:\Users\SOLDER~1\AppData\Local\Temp\cc2EfhU3.s:22196  .debug_str:000000000000ff10 .LASF3953
C:\Users\SOLDER~1\AppData\Local\Temp\cc2EfhU3.s:23614  .debug_str:0000000000015bec .LASF3954
C:\Users\SOLDER~1\AppData\Local\Temp\cc2EfhU3.s:20252  .debug_str:0000000000007f21 .LASF3955
C:\Users\SOLDER~1\AppData\Local\Temp\cc2EfhU3.s:18626  .debug_str:00000000000015f5 .LASF3956
C:\Users\SOLDER~1\AppData\Local\Temp\cc2EfhU3.s:29768  .debug_str:000000000002ec92 .LASF3957
C:\Users\SOLDER~1\AppData\Local\Temp\cc2EfhU3.s:22754  .debug_str:0000000000012298 .LASF3958
C:\Users\SOLDER~1\AppData\Local\Temp\cc2EfhU3.s:23956  .debug_str:00000000000171bd .LASF3959
C:\Users\SOLDER~1\AppData\Local\Temp\cc2EfhU3.s:21732  .debug_str:000000000000e0b6 .LASF3960
C:\Users\SOLDER~1\AppData\Local\Temp\cc2EfhU3.s:24216  .debug_str:00000000000182be .LASF3961
C:\Users\SOLDER~1\AppData\Local\Temp\cc2EfhU3.s:27376  .debug_str:000000000002504a .LASF3962
C:\Users\SOLDER~1\AppData\Local\Temp\cc2EfhU3.s:21730  .debug_str:000000000000e08f .LASF3963
C:\Users\SOLDER~1\AppData\Local\Temp\cc2EfhU3.s:21866  .debug_str:000000000000e971 .LASF3964
C:\Users\SOLDER~1\AppData\Local\Temp\cc2EfhU3.s:26274  .debug_str:00000000000208cf .LASF3965
C:\Users\SOLDER~1\AppData\Local\Temp\cc2EfhU3.s:26338  .debug_str:0000000000020cdf .LASF3966
C:\Users\SOLDER~1\AppData\Local\Temp\cc2EfhU3.s:25316  .debug_str:000000000001ca57 .LASF3967
C:\Users\SOLDER~1\AppData\Local\Temp\cc2EfhU3.s:27094  .debug_str:0000000000023dd7 .LASF3968
C:\Users\SOLDER~1\AppData\Local\Temp\cc2EfhU3.s:24098  .debug_str:0000000000017af1 .LASF3969
C:\Users\SOLDER~1\AppData\Local\Temp\cc2EfhU3.s:21318  .debug_str:000000000000c538 .LASF3970
C:\Users\SOLDER~1\AppData\Local\Temp\cc2EfhU3.s:20892  .debug_str:000000000000a96d .LASF3971
C:\Users\SOLDER~1\AppData\Local\Temp\cc2EfhU3.s:19408  .debug_str:0000000000004897 .LASF3972
C:\Users\SOLDER~1\AppData\Local\Temp\cc2EfhU3.s:27624  .debug_str:0000000000026123 .LASF3973
C:\Users\SOLDER~1\AppData\Local\Temp\cc2EfhU3.s:22118  .debug_str:000000000000f9bb .LASF3974
C:\Users\SOLDER~1\AppData\Local\Temp\cc2EfhU3.s:22318  .debug_str:00000000000106a6 .LASF3975
C:\Users\SOLDER~1\AppData\Local\Temp\cc2EfhU3.s:18436  .debug_str:000000000000096e .LASF3976
C:\Users\SOLDER~1\AppData\Local\Temp\cc2EfhU3.s:19972  .debug_str:0000000000006cc4 .LASF3977
C:\Users\SOLDER~1\AppData\Local\Temp\cc2EfhU3.s:29650  .debug_str:000000000002e51d .LASF3978
C:\Users\SOLDER~1\AppData\Local\Temp\cc2EfhU3.s:20826  .debug_str:000000000000a4d4 .LASF3979
C:\Users\SOLDER~1\AppData\Local\Temp\cc2EfhU3.s:23872  .debug_str:0000000000016c0f .LASF3980
C:\Users\SOLDER~1\AppData\Local\Temp\cc2EfhU3.s:27786  .debug_str:0000000000026bc4 .LASF3981
C:\Users\SOLDER~1\AppData\Local\Temp\cc2EfhU3.s:24904  .debug_str:000000000001af02 .LASF3982
C:\Users\SOLDER~1\AppData\Local\Temp\cc2EfhU3.s:28220  .debug_str:0000000000028875 .LASF3983
C:\Users\SOLDER~1\AppData\Local\Temp\cc2EfhU3.s:24036  .debug_str:00000000000176e7 .LASF3984
C:\Users\SOLDER~1\AppData\Local\Temp\cc2EfhU3.s:27780  .debug_str:0000000000026b59 .LASF3985
C:\Users\SOLDER~1\AppData\Local\Temp\cc2EfhU3.s:20400  .debug_str:00000000000088ab .LASF3986
C:\Users\SOLDER~1\AppData\Local\Temp\cc2EfhU3.s:19922  .debug_str:00000000000069ab .LASF3987
C:\Users\SOLDER~1\AppData\Local\Temp\cc2EfhU3.s:25510  .debug_str:000000000001d6fb .LASF3988
C:\Users\SOLDER~1\AppData\Local\Temp\cc2EfhU3.s:20096  .debug_str:0000000000007522 .LASF3989
C:\Users\SOLDER~1\AppData\Local\Temp\cc2EfhU3.s:27650  .debug_str:00000000000262ee .LASF3990
C:\Users\SOLDER~1\AppData\Local\Temp\cc2EfhU3.s:19260  .debug_str:0000000000003f04 .LASF3991
C:\Users\SOLDER~1\AppData\Local\Temp\cc2EfhU3.s:27086  .debug_str:0000000000023d54 .LASF3992
C:\Users\SOLDER~1\AppData\Local\Temp\cc2EfhU3.s:20494  .debug_str:0000000000008f12 .LASF3993
C:\Users\SOLDER~1\AppData\Local\Temp\cc2EfhU3.s:21066  .debug_str:000000000000b4aa .LASF3994
C:\Users\SOLDER~1\AppData\Local\Temp\cc2EfhU3.s:21342  .debug_str:000000000000c6e4 .LASF3995
C:\Users\SOLDER~1\AppData\Local\Temp\cc2EfhU3.s:27164  .debug_str:0000000000024271 .LASF3996
C:\Users\SOLDER~1\AppData\Local\Temp\cc2EfhU3.s:28762  .debug_str:000000000002ab99 .LASF3997
GAS LISTING C:\Users\SOLDER~1\AppData\Local\Temp\cc2EfhU3.s 			page 81


C:\Users\SOLDER~1\AppData\Local\Temp\cc2EfhU3.s:20538  .debug_str:0000000000009232 .LASF3998
C:\Users\SOLDER~1\AppData\Local\Temp\cc2EfhU3.s:22812  .debug_str:0000000000012659 .LASF3999
C:\Users\SOLDER~1\AppData\Local\Temp\cc2EfhU3.s:23292  .debug_str:00000000000146fb .LASF4000
C:\Users\SOLDER~1\AppData\Local\Temp\cc2EfhU3.s:27996  .debug_str:000000000002797b .LASF4001
C:\Users\SOLDER~1\AppData\Local\Temp\cc2EfhU3.s:29572  .debug_str:000000000002e011 .LASF4002
C:\Users\SOLDER~1\AppData\Local\Temp\cc2EfhU3.s:18842  .debug_str:000000000000244d .LASF4003
C:\Users\SOLDER~1\AppData\Local\Temp\cc2EfhU3.s:23748  .debug_str:0000000000016484 .LASF4004
C:\Users\SOLDER~1\AppData\Local\Temp\cc2EfhU3.s:25490  .debug_str:000000000001d5ab .LASF4005
C:\Users\SOLDER~1\AppData\Local\Temp\cc2EfhU3.s:28338  .debug_str:0000000000028fe0 .LASF4006
C:\Users\SOLDER~1\AppData\Local\Temp\cc2EfhU3.s:19604  .debug_str:000000000000547b .LASF4007
C:\Users\SOLDER~1\AppData\Local\Temp\cc2EfhU3.s:20286  .debug_str:000000000000817c .LASF4008
C:\Users\SOLDER~1\AppData\Local\Temp\cc2EfhU3.s:18542  .debug_str:0000000000001078 .LASF4009
C:\Users\SOLDER~1\AppData\Local\Temp\cc2EfhU3.s:28192  .debug_str:00000000000286b0 .LASF4010
C:\Users\SOLDER~1\AppData\Local\Temp\cc2EfhU3.s:18508  .debug_str:0000000000000e6c .LASF4011
C:\Users\SOLDER~1\AppData\Local\Temp\cc2EfhU3.s:28678  .debug_str:000000000002a62f .LASF4012
C:\Users\SOLDER~1\AppData\Local\Temp\cc2EfhU3.s:28212  .debug_str:00000000000287e8 .LASF4013
C:\Users\SOLDER~1\AppData\Local\Temp\cc2EfhU3.s:24682  .debug_str:000000000001a090 .LASF4014
C:\Users\SOLDER~1\AppData\Local\Temp\cc2EfhU3.s:20880  .debug_str:000000000000a89d .LASF4015
C:\Users\SOLDER~1\AppData\Local\Temp\cc2EfhU3.s:18760  .debug_str:0000000000001eb3 .LASF4016
C:\Users\SOLDER~1\AppData\Local\Temp\cc2EfhU3.s:29258  .debug_str:000000000002cbbc .LASF4017
C:\Users\SOLDER~1\AppData\Local\Temp\cc2EfhU3.s:26522  .debug_str:00000000000218d7 .LASF4018
C:\Users\SOLDER~1\AppData\Local\Temp\cc2EfhU3.s:18364  .debug_str:0000000000000414 .LASF4019
C:\Users\SOLDER~1\AppData\Local\Temp\cc2EfhU3.s:21306  .debug_str:000000000000c481 .LASF4020
C:\Users\SOLDER~1\AppData\Local\Temp\cc2EfhU3.s:21144  .debug_str:000000000000b990 .LASF4021
C:\Users\SOLDER~1\AppData\Local\Temp\cc2EfhU3.s:27140  .debug_str:00000000000240d6 .LASF4022
C:\Users\SOLDER~1\AppData\Local\Temp\cc2EfhU3.s:27510  .debug_str:0000000000025910 .LASF4023
C:\Users\SOLDER~1\AppData\Local\Temp\cc2EfhU3.s:28126  .debug_str:0000000000028238 .LASF4024
C:\Users\SOLDER~1\AppData\Local\Temp\cc2EfhU3.s:19296  .debug_str:0000000000004176 .LASF4025
C:\Users\SOLDER~1\AppData\Local\Temp\cc2EfhU3.s:25798  .debug_str:000000000001e9d9 .LASF4026
C:\Users\SOLDER~1\AppData\Local\Temp\cc2EfhU3.s:23388  .debug_str:0000000000014d78 .LASF4027
C:\Users\SOLDER~1\AppData\Local\Temp\cc2EfhU3.s:29630  .debug_str:000000000002e3c7 .LASF4028
C:\Users\SOLDER~1\AppData\Local\Temp\cc2EfhU3.s:19156  .debug_str:000000000000386e .LASF4029
C:\Users\SOLDER~1\AppData\Local\Temp\cc2EfhU3.s:25020  .debug_str:000000000001b662 .LASF4030
C:\Users\SOLDER~1\AppData\Local\Temp\cc2EfhU3.s:27672  .debug_str:0000000000026440 .LASF4031
C:\Users\SOLDER~1\AppData\Local\Temp\cc2EfhU3.s:22226  .debug_str:00000000000100dc .LASF4032
C:\Users\SOLDER~1\AppData\Local\Temp\cc2EfhU3.s:26884  .debug_str:0000000000023009 .LASF4033
C:\Users\SOLDER~1\AppData\Local\Temp\cc2EfhU3.s:21146  .debug_str:000000000000b9ad .LASF4034
C:\Users\SOLDER~1\AppData\Local\Temp\cc2EfhU3.s:28534  .debug_str:0000000000029cb7 .LASF4035
C:\Users\SOLDER~1\AppData\Local\Temp\cc2EfhU3.s:20374  .debug_str:000000000000871d .LASF4036
C:\Users\SOLDER~1\AppData\Local\Temp\cc2EfhU3.s:19472  .debug_str:0000000000004c96 .LASF4037
C:\Users\SOLDER~1\AppData\Local\Temp\cc2EfhU3.s:24194  .debug_str:000000000001816d .LASF4038
C:\Users\SOLDER~1\AppData\Local\Temp\cc2EfhU3.s:20370  .debug_str:00000000000086de .LASF4039
C:\Users\SOLDER~1\AppData\Local\Temp\cc2EfhU3.s:26304  .debug_str:0000000000020aad .LASF4040
C:\Users\SOLDER~1\AppData\Local\Temp\cc2EfhU3.s:29384  .debug_str:000000000002d410 .LASF4041
C:\Users\SOLDER~1\AppData\Local\Temp\cc2EfhU3.s:21950  .debug_str:000000000000eec1 .LASF4042
C:\Users\SOLDER~1\AppData\Local\Temp\cc2EfhU3.s:29488  .debug_str:000000000002dacd .LASF4043
C:\Users\SOLDER~1\AppData\Local\Temp\cc2EfhU3.s:26072  .debug_str:000000000001fbbc .LASF4044
C:\Users\SOLDER~1\AppData\Local\Temp\cc2EfhU3.s:19664  .debug_str:000000000000588a .LASF4045
C:\Users\SOLDER~1\AppData\Local\Temp\cc2EfhU3.s:25518  .debug_str:000000000001d73d .LASF4046
C:\Users\SOLDER~1\AppData\Local\Temp\cc2EfhU3.s:19656  .debug_str:00000000000057f6 .LASF4047
C:\Users\SOLDER~1\AppData\Local\Temp\cc2EfhU3.s:27348  .debug_str:0000000000024e99 .LASF4048
C:\Users\SOLDER~1\AppData\Local\Temp\cc2EfhU3.s:22496  .debug_str:0000000000011220 .LASF4049
C:\Users\SOLDER~1\AppData\Local\Temp\cc2EfhU3.s:23062  .debug_str:00000000000136d7 .LASF4050
C:\Users\SOLDER~1\AppData\Local\Temp\cc2EfhU3.s:18970  .debug_str:0000000000002c6e .LASF4051
C:\Users\SOLDER~1\AppData\Local\Temp\cc2EfhU3.s:23176  .debug_str:0000000000013f21 .LASF4052
C:\Users\SOLDER~1\AppData\Local\Temp\cc2EfhU3.s:22286  .debug_str:00000000000104cd .LASF4053
C:\Users\SOLDER~1\AppData\Local\Temp\cc2EfhU3.s:22470  .debug_str:000000000001108b .LASF4054
GAS LISTING C:\Users\SOLDER~1\AppData\Local\Temp\cc2EfhU3.s 			page 82


C:\Users\SOLDER~1\AppData\Local\Temp\cc2EfhU3.s:26752  .debug_str:000000000002277f .LASF4055
C:\Users\SOLDER~1\AppData\Local\Temp\cc2EfhU3.s:22390  .debug_str:0000000000010b5c .LASF4056
C:\Users\SOLDER~1\AppData\Local\Temp\cc2EfhU3.s:19060  .debug_str:0000000000003242 .LASF4057
C:\Users\SOLDER~1\AppData\Local\Temp\cc2EfhU3.s:22922  .debug_str:0000000000012d8f .LASF4058
C:\Users\SOLDER~1\AppData\Local\Temp\cc2EfhU3.s:22838  .debug_str:00000000000127f6 .LASF4059
C:\Users\SOLDER~1\AppData\Local\Temp\cc2EfhU3.s:20530  .debug_str:00000000000091b8 .LASF4060
C:\Users\SOLDER~1\AppData\Local\Temp\cc2EfhU3.s:19754  .debug_str:0000000000005e50 .LASF4061
C:\Users\SOLDER~1\AppData\Local\Temp\cc2EfhU3.s:26300  .debug_str:0000000000020a83 .LASF4062
C:\Users\SOLDER~1\AppData\Local\Temp\cc2EfhU3.s:23982  .debug_str:000000000001737b .LASF4063
C:\Users\SOLDER~1\AppData\Local\Temp\cc2EfhU3.s:26174  .debug_str:000000000002023b .LASF4064
C:\Users\SOLDER~1\AppData\Local\Temp\cc2EfhU3.s:26558  .debug_str:0000000000021b1a .LASF4065
C:\Users\SOLDER~1\AppData\Local\Temp\cc2EfhU3.s:26760  .debug_str:0000000000022810 .LASF4066
C:\Users\SOLDER~1\AppData\Local\Temp\cc2EfhU3.s:22790  .debug_str:0000000000012503 .LASF4067
C:\Users\SOLDER~1\AppData\Local\Temp\cc2EfhU3.s:26894  .debug_str:00000000000230b8 .LASF4068
C:\Users\SOLDER~1\AppData\Local\Temp\cc2EfhU3.s:19804  .debug_str:00000000000061d3 .LASF4069
C:\Users\SOLDER~1\AppData\Local\Temp\cc2EfhU3.s:27036  .debug_str:00000000000239fc .LASF4070
C:\Users\SOLDER~1\AppData\Local\Temp\cc2EfhU3.s:24266  .debug_str:00000000000185f0 .LASF4071
C:\Users\SOLDER~1\AppData\Local\Temp\cc2EfhU3.s:26538  .debug_str:00000000000219d4 .LASF4072
C:\Users\SOLDER~1\AppData\Local\Temp\cc2EfhU3.s:18802  .debug_str:0000000000002195 .LASF4073
C:\Users\SOLDER~1\AppData\Local\Temp\cc2EfhU3.s:27660  .debug_str:0000000000026384 .LASF4074
C:\Users\SOLDER~1\AppData\Local\Temp\cc2EfhU3.s:26644  .debug_str:0000000000022046 .LASF4075
C:\Users\SOLDER~1\AppData\Local\Temp\cc2EfhU3.s:22914  .debug_str:0000000000012d03 .LASF4076
C:\Users\SOLDER~1\AppData\Local\Temp\cc2EfhU3.s:27462  .debug_str:000000000002559d .LASF4077
C:\Users\SOLDER~1\AppData\Local\Temp\cc2EfhU3.s:19198  .debug_str:0000000000003b33 .LASF4078
C:\Users\SOLDER~1\AppData\Local\Temp\cc2EfhU3.s:22104  .debug_str:000000000000f8be .LASF4079
C:\Users\SOLDER~1\AppData\Local\Temp\cc2EfhU3.s:21034  .debug_str:000000000000b26d .LASF4080
C:\Users\SOLDER~1\AppData\Local\Temp\cc2EfhU3.s:19466  .debug_str:0000000000004c31 .LASF4081
C:\Users\SOLDER~1\AppData\Local\Temp\cc2EfhU3.s:27992  .debug_str:0000000000027943 .LASF4082
C:\Users\SOLDER~1\AppData\Local\Temp\cc2EfhU3.s:20628  .debug_str:00000000000097f7 .LASF4083
C:\Users\SOLDER~1\AppData\Local\Temp\cc2EfhU3.s:28990  .debug_str:000000000002ba64 .LASF4084
C:\Users\SOLDER~1\AppData\Local\Temp\cc2EfhU3.s:26892  .debug_str:000000000002309b .LASF4085
C:\Users\SOLDER~1\AppData\Local\Temp\cc2EfhU3.s:28162  .debug_str:0000000000028474 .LASF4086
C:\Users\SOLDER~1\AppData\Local\Temp\cc2EfhU3.s:25180  .debug_str:000000000001c11b .LASF4087
C:\Users\SOLDER~1\AppData\Local\Temp\cc2EfhU3.s:23330  .debug_str:00000000000149a3 .LASF4088
C:\Users\SOLDER~1\AppData\Local\Temp\cc2EfhU3.s:19280  .debug_str:0000000000004051 .LASF4089
C:\Users\SOLDER~1\AppData\Local\Temp\cc2EfhU3.s:24972  .debug_str:000000000001b371 .LASF4090
C:\Users\SOLDER~1\AppData\Local\Temp\cc2EfhU3.s:28898  .debug_str:000000000002b470 .LASF4091
C:\Users\SOLDER~1\AppData\Local\Temp\cc2EfhU3.s:29734  .debug_str:000000000002ea95 .LASF4092
C:\Users\SOLDER~1\AppData\Local\Temp\cc2EfhU3.s:20068  .debug_str:0000000000007353 .LASF4093
C:\Users\SOLDER~1\AppData\Local\Temp\cc2EfhU3.s:29204  .debug_str:000000000002c84a .LASF4094
C:\Users\SOLDER~1\AppData\Local\Temp\cc2EfhU3.s:21368  .debug_str:000000000000c8bc .LASF4095
C:\Users\SOLDER~1\AppData\Local\Temp\cc2EfhU3.s:24182  .debug_str:00000000000180b3 .LASF4096
C:\Users\SOLDER~1\AppData\Local\Temp\cc2EfhU3.s:18628  .debug_str:0000000000001610 .LASF4097
C:\Users\SOLDER~1\AppData\Local\Temp\cc2EfhU3.s:19420  .debug_str:000000000000494b .LASF4098
C:\Users\SOLDER~1\AppData\Local\Temp\cc2EfhU3.s:19248  .debug_str:0000000000003e6e .LASF4099
C:\Users\SOLDER~1\AppData\Local\Temp\cc2EfhU3.s:24976  .debug_str:000000000001b3ab .LASF4100
C:\Users\SOLDER~1\AppData\Local\Temp\cc2EfhU3.s:28754  .debug_str:000000000002ab19 .LASF4101
C:\Users\SOLDER~1\AppData\Local\Temp\cc2EfhU3.s:23366  .debug_str:0000000000014c12 .LASF4102
C:\Users\SOLDER~1\AppData\Local\Temp\cc2EfhU3.s:19416  .debug_str:0000000000004918 .LASF4103
C:\Users\SOLDER~1\AppData\Local\Temp\cc2EfhU3.s:21616  .debug_str:000000000000d905 .LASF4104
C:\Users\SOLDER~1\AppData\Local\Temp\cc2EfhU3.s:20820  .debug_str:000000000000a488 .LASF4105
C:\Users\SOLDER~1\AppData\Local\Temp\cc2EfhU3.s:20742  .debug_str:0000000000009f49 .LASF4106
C:\Users\SOLDER~1\AppData\Local\Temp\cc2EfhU3.s:29378  .debug_str:000000000002d39d .LASF4107
C:\Users\SOLDER~1\AppData\Local\Temp\cc2EfhU3.s:24322  .debug_str:00000000000189a7 .LASF4108
C:\Users\SOLDER~1\AppData\Local\Temp\cc2EfhU3.s:29624  .debug_str:000000000002e367 .LASF4109
C:\Users\SOLDER~1\AppData\Local\Temp\cc2EfhU3.s:19256  .debug_str:0000000000003edf .LASF4110
C:\Users\SOLDER~1\AppData\Local\Temp\cc2EfhU3.s:26700  .debug_str:00000000000223ff .LASF4111
GAS LISTING C:\Users\SOLDER~1\AppData\Local\Temp\cc2EfhU3.s 			page 83


C:\Users\SOLDER~1\AppData\Local\Temp\cc2EfhU3.s:22304  .debug_str:00000000000105e3 .LASF4112
C:\Users\SOLDER~1\AppData\Local\Temp\cc2EfhU3.s:24274  .debug_str:0000000000018669 .LASF4113
C:\Users\SOLDER~1\AppData\Local\Temp\cc2EfhU3.s:26446  .debug_str:00000000000213f6 .LASF4114
C:\Users\SOLDER~1\AppData\Local\Temp\cc2EfhU3.s:24510  .debug_str:00000000000195ed .LASF4115
C:\Users\SOLDER~1\AppData\Local\Temp\cc2EfhU3.s:21778  .debug_str:000000000000e3c5 .LASF4116
C:\Users\SOLDER~1\AppData\Local\Temp\cc2EfhU3.s:29406  .debug_str:000000000002d589 .LASF4117
C:\Users\SOLDER~1\AppData\Local\Temp\cc2EfhU3.s:20682  .debug_str:0000000000009b48 .LASF4118
C:\Users\SOLDER~1\AppData\Local\Temp\cc2EfhU3.s:19992  .debug_str:0000000000006e2b .LASF4119
C:\Users\SOLDER~1\AppData\Local\Temp\cc2EfhU3.s:27912  .debug_str:000000000002743b .LASF4120
C:\Users\SOLDER~1\AppData\Local\Temp\cc2EfhU3.s:22438  .debug_str:0000000000010e6a .LASF4121
C:\Users\SOLDER~1\AppData\Local\Temp\cc2EfhU3.s:19586  .debug_str:0000000000005371 .LASF4122
C:\Users\SOLDER~1\AppData\Local\Temp\cc2EfhU3.s:19924  .debug_str:00000000000069c6 .LASF4123
C:\Users\SOLDER~1\AppData\Local\Temp\cc2EfhU3.s:23606  .debug_str:0000000000015b6b .LASF4124
C:\Users\SOLDER~1\AppData\Local\Temp\cc2EfhU3.s:21050  .debug_str:000000000000b388 .LASF4125
C:\Users\SOLDER~1\AppData\Local\Temp\cc2EfhU3.s:18736  .debug_str:0000000000001d2e .LASF4126
C:\Users\SOLDER~1\AppData\Local\Temp\cc2EfhU3.s:23404  .debug_str:0000000000014e7a .LASF4127
C:\Users\SOLDER~1\AppData\Local\Temp\cc2EfhU3.s:21192  .debug_str:000000000000bcac .LASF4128
C:\Users\SOLDER~1\AppData\Local\Temp\cc2EfhU3.s:28528  .debug_str:0000000000029c62 .LASF4129
C:\Users\SOLDER~1\AppData\Local\Temp\cc2EfhU3.s:18900  .debug_str:0000000000002802 .LASF4130
C:\Users\SOLDER~1\AppData\Local\Temp\cc2EfhU3.s:20852  .debug_str:000000000000a6d6 .LASF4131
C:\Users\SOLDER~1\AppData\Local\Temp\cc2EfhU3.s:25560  .debug_str:000000000001da01 .LASF4132
C:\Users\SOLDER~1\AppData\Local\Temp\cc2EfhU3.s:21470  .debug_str:000000000000cf9b .LASF4133
C:\Users\SOLDER~1\AppData\Local\Temp\cc2EfhU3.s:19626  .debug_str:00000000000055bf .LASF4134
C:\Users\SOLDER~1\AppData\Local\Temp\cc2EfhU3.s:22236  .debug_str:0000000000010176 .LASF4135
C:\Users\SOLDER~1\AppData\Local\Temp\cc2EfhU3.s:27886  .debug_str:0000000000027282 .LASF4136
C:\Users\SOLDER~1\AppData\Local\Temp\cc2EfhU3.s:26922  .debug_str:00000000000232d4 .LASF4137
C:\Users\SOLDER~1\AppData\Local\Temp\cc2EfhU3.s:29676  .debug_str:000000000002e6ef .LASF4138
C:\Users\SOLDER~1\AppData\Local\Temp\cc2EfhU3.s:23296  .debug_str:0000000000014733 .LASF4139
C:\Users\SOLDER~1\AppData\Local\Temp\cc2EfhU3.s:20124  .debug_str:00000000000076d4 .LASF4140
C:\Users\SOLDER~1\AppData\Local\Temp\cc2EfhU3.s:26990  .debug_str:0000000000023725 .LASF4141
C:\Users\SOLDER~1\AppData\Local\Temp\cc2EfhU3.s:20282  .debug_str:000000000000814b .LASF4142
C:\Users\SOLDER~1\AppData\Local\Temp\cc2EfhU3.s:28560  .debug_str:0000000000029e67 .LASF4143
C:\Users\SOLDER~1\AppData\Local\Temp\cc2EfhU3.s:27136  .debug_str:00000000000240aa .LASF4144
C:\Users\SOLDER~1\AppData\Local\Temp\cc2EfhU3.s:23440  .debug_str:00000000000150b9 .LASF4145
C:\Users\SOLDER~1\AppData\Local\Temp\cc2EfhU3.s:21764  .debug_str:000000000000e2db .LASF4146
C:\Users\SOLDER~1\AppData\Local\Temp\cc2EfhU3.s:26730  .debug_str:00000000000225fe .LASF4147
C:\Users\SOLDER~1\AppData\Local\Temp\cc2EfhU3.s:26924  .debug_str:00000000000232e7 .LASF4148
C:\Users\SOLDER~1\AppData\Local\Temp\cc2EfhU3.s:18998  .debug_str:0000000000002e47 .LASF4149
C:\Users\SOLDER~1\AppData\Local\Temp\cc2EfhU3.s:26188  .debug_str:0000000000020339 .LASF4150
C:\Users\SOLDER~1\AppData\Local\Temp\cc2EfhU3.s:28982  .debug_str:000000000002b9d2 .LASF4151
C:\Users\SOLDER~1\AppData\Local\Temp\cc2EfhU3.s:26418  .debug_str:0000000000021219 .LASF4152
C:\Users\SOLDER~1\AppData\Local\Temp\cc2EfhU3.s:25118  .debug_str:000000000001bcd4 .LASF4153
C:\Users\SOLDER~1\AppData\Local\Temp\cc2EfhU3.s:19434  .debug_str:0000000000004a12 .LASF4154
C:\Users\SOLDER~1\AppData\Local\Temp\cc2EfhU3.s:18860  .debug_str:0000000000002582 .LASF4155
C:\Users\SOLDER~1\AppData\Local\Temp\cc2EfhU3.s:20934  .debug_str:000000000000ac12 .LASF4156
C:\Users\SOLDER~1\AppData\Local\Temp\cc2EfhU3.s:24258  .debug_str:0000000000018571 .LASF4157
C:\Users\SOLDER~1\AppData\Local\Temp\cc2EfhU3.s:28632  .debug_str:000000000002a344 .LASF4158
C:\Users\SOLDER~1\AppData\Local\Temp\cc2EfhU3.s:26646  .debug_str:0000000000022061 .LASF4159
C:\Users\SOLDER~1\AppData\Local\Temp\cc2EfhU3.s:24538  .debug_str:000000000001978a .LASF4160
C:\Users\SOLDER~1\AppData\Local\Temp\cc2EfhU3.s:18896  .debug_str:00000000000027be .LASF4161
C:\Users\SOLDER~1\AppData\Local\Temp\cc2EfhU3.s:22752  .debug_str:000000000001227a .LASF4162
C:\Users\SOLDER~1\AppData\Local\Temp\cc2EfhU3.s:26170  .debug_str:00000000000201fb .LASF4163
C:\Users\SOLDER~1\AppData\Local\Temp\cc2EfhU3.s:23762  .debug_str:000000000001654c .LASF4164
C:\Users\SOLDER~1\AppData\Local\Temp\cc2EfhU3.s:20884  .debug_str:000000000000a8e7 .LASF4165
C:\Users\SOLDER~1\AppData\Local\Temp\cc2EfhU3.s:26964  .debug_str:0000000000023587 .LASF4166
C:\Users\SOLDER~1\AppData\Local\Temp\cc2EfhU3.s:27488  .debug_str:000000000002577c .LASF4167
C:\Users\SOLDER~1\AppData\Local\Temp\cc2EfhU3.s:28044  .debug_str:0000000000027ccd .LASF4168
GAS LISTING C:\Users\SOLDER~1\AppData\Local\Temp\cc2EfhU3.s 			page 84


C:\Users\SOLDER~1\AppData\Local\Temp\cc2EfhU3.s:25832  .debug_str:000000000001ebfe .LASF4169
C:\Users\SOLDER~1\AppData\Local\Temp\cc2EfhU3.s:28948  .debug_str:000000000002b7bb .LASF4170
C:\Users\SOLDER~1\AppData\Local\Temp\cc2EfhU3.s:25068  .debug_str:000000000001b998 .LASF4171
C:\Users\SOLDER~1\AppData\Local\Temp\cc2EfhU3.s:28254  .debug_str:0000000000028a72 .LASF4172
C:\Users\SOLDER~1\AppData\Local\Temp\cc2EfhU3.s:29336  .debug_str:000000000002d11b .LASF4173
C:\Users\SOLDER~1\AppData\Local\Temp\cc2EfhU3.s:19510  .debug_str:0000000000004ecb .LASF4174
C:\Users\SOLDER~1\AppData\Local\Temp\cc2EfhU3.s:29576  .debug_str:000000000002e03c .LASF4175
C:\Users\SOLDER~1\AppData\Local\Temp\cc2EfhU3.s:25968  .debug_str:000000000001f547 .LASF4176
C:\Users\SOLDER~1\AppData\Local\Temp\cc2EfhU3.s:27926  .debug_str:0000000000027528 .LASF4177
C:\Users\SOLDER~1\AppData\Local\Temp\cc2EfhU3.s:27434  .debug_str:00000000000253f9 .LASF4178
C:\Users\SOLDER~1\AppData\Local\Temp\cc2EfhU3.s:22018  .debug_str:000000000000f2e2 .LASF4179
C:\Users\SOLDER~1\AppData\Local\Temp\cc2EfhU3.s:24606  .debug_str:0000000000019bd6 .LASF4180
C:\Users\SOLDER~1\AppData\Local\Temp\cc2EfhU3.s:19750  .debug_str:0000000000005e0d .LASF4181
C:\Users\SOLDER~1\AppData\Local\Temp\cc2EfhU3.s:19358  .debug_str:0000000000004532 .LASF4182
C:\Users\SOLDER~1\AppData\Local\Temp\cc2EfhU3.s:20024  .debug_str:000000000000707c .LASF4183
C:\Users\SOLDER~1\AppData\Local\Temp\cc2EfhU3.s:27320  .debug_str:0000000000024ccd .LASF4184
C:\Users\SOLDER~1\AppData\Local\Temp\cc2EfhU3.s:23184  .debug_str:0000000000013f89 .LASF4185
C:\Users\SOLDER~1\AppData\Local\Temp\cc2EfhU3.s:29472  .debug_str:000000000002d9b1 .LASF4186
C:\Users\SOLDER~1\AppData\Local\Temp\cc2EfhU3.s:26536  .debug_str:00000000000219b8 .LASF4187
C:\Users\SOLDER~1\AppData\Local\Temp\cc2EfhU3.s:20234  .debug_str:0000000000007dea .LASF4188
C:\Users\SOLDER~1\AppData\Local\Temp\cc2EfhU3.s:25756  .debug_str:000000000001e707 .LASF4189
C:\Users\SOLDER~1\AppData\Local\Temp\cc2EfhU3.s:20130  .debug_str:0000000000007726 .LASF4190
C:\Users\SOLDER~1\AppData\Local\Temp\cc2EfhU3.s:19920  .debug_str:0000000000006997 .LASF4191
C:\Users\SOLDER~1\AppData\Local\Temp\cc2EfhU3.s:28302  .debug_str:0000000000028d76 .LASF4192
C:\Users\SOLDER~1\AppData\Local\Temp\cc2EfhU3.s:18786  .debug_str:000000000000205b .LASF4193
C:\Users\SOLDER~1\AppData\Local\Temp\cc2EfhU3.s:27394  .debug_str:0000000000025170 .LASF4194
C:\Users\SOLDER~1\AppData\Local\Temp\cc2EfhU3.s:21364  .debug_str:000000000000c877 .LASF4195
C:\Users\SOLDER~1\AppData\Local\Temp\cc2EfhU3.s:25042  .debug_str:000000000001b7b3 .LASF4196
C:\Users\SOLDER~1\AppData\Local\Temp\cc2EfhU3.s:18430  .debug_str:0000000000000910 .LASF4197
C:\Users\SOLDER~1\AppData\Local\Temp\cc2EfhU3.s:23168  .debug_str:0000000000013e8a .LASF4198
C:\Users\SOLDER~1\AppData\Local\Temp\cc2EfhU3.s:23150  .debug_str:0000000000013d50 .LASF4199
C:\Users\SOLDER~1\AppData\Local\Temp\cc2EfhU3.s:20898  .debug_str:000000000000a9eb .LASF4200
C:\Users\SOLDER~1\AppData\Local\Temp\cc2EfhU3.s:20704  .debug_str:0000000000009cc1 .LASF4201
C:\Users\SOLDER~1\AppData\Local\Temp\cc2EfhU3.s:20992  .debug_str:000000000000afe9 .LASF4202
C:\Users\SOLDER~1\AppData\Local\Temp\cc2EfhU3.s:22336  .debug_str:00000000000107f2 .LASF4203
C:\Users\SOLDER~1\AppData\Local\Temp\cc2EfhU3.s:20902  .debug_str:000000000000aa2d .LASF4204
C:\Users\SOLDER~1\AppData\Local\Temp\cc2EfhU3.s:23128  .debug_str:0000000000013bc2 .LASF4205
C:\Users\SOLDER~1\AppData\Local\Temp\cc2EfhU3.s:24418  .debug_str:0000000000018fef .LASF4206
C:\Users\SOLDER~1\AppData\Local\Temp\cc2EfhU3.s:19816  .debug_str:0000000000006294 .LASF4207
C:\Users\SOLDER~1\AppData\Local\Temp\cc2EfhU3.s:23008  .debug_str:0000000000013326 .LASF4208
C:\Users\SOLDER~1\AppData\Local\Temp\cc2EfhU3.s:20364  .debug_str:000000000000865e .LASF4209
C:\Users\SOLDER~1\AppData\Local\Temp\cc2EfhU3.s:28410  .debug_str:00000000000294bc .LASF4210
C:\Users\SOLDER~1\AppData\Local\Temp\cc2EfhU3.s:28408  .debug_str:000000000002949e .LASF4211
C:\Users\SOLDER~1\AppData\Local\Temp\cc2EfhU3.s:18688  .debug_str:00000000000019db .LASF4212
C:\Users\SOLDER~1\AppData\Local\Temp\cc2EfhU3.s:26370  .debug_str:0000000000020f29 .LASF4213
C:\Users\SOLDER~1\AppData\Local\Temp\cc2EfhU3.s:27962  .debug_str:0000000000027764 .LASF4214
C:\Users\SOLDER~1\AppData\Local\Temp\cc2EfhU3.s:20330  .debug_str:000000000000843f .LASF4215
C:\Users\SOLDER~1\AppData\Local\Temp\cc2EfhU3.s:23544  .debug_str:0000000000015789 .LASF4216
C:\Users\SOLDER~1\AppData\Local\Temp\cc2EfhU3.s:23966  .debug_str:0000000000017255 .LASF4217
C:\Users\SOLDER~1\AppData\Local\Temp\cc2EfhU3.s:18352  .debug_str:0000000000000341 .LASF4218
C:\Users\SOLDER~1\AppData\Local\Temp\cc2EfhU3.s:23286  .debug_str:00000000000146a4 .LASF4219
C:\Users\SOLDER~1\AppData\Local\Temp\cc2EfhU3.s:28180  .debug_str:00000000000285cf .LASF4220
C:\Users\SOLDER~1\AppData\Local\Temp\cc2EfhU3.s:29250  .debug_str:000000000002cb33 .LASF4221
C:\Users\SOLDER~1\AppData\Local\Temp\cc2EfhU3.s:28508  .debug_str:0000000000029aea .LASF4222
C:\Users\SOLDER~1\AppData\Local\Temp\cc2EfhU3.s:25996  .debug_str:000000000001f719 .LASF4223
C:\Users\SOLDER~1\AppData\Local\Temp\cc2EfhU3.s:28430  .debug_str:00000000000295ed .LASF4224
C:\Users\SOLDER~1\AppData\Local\Temp\cc2EfhU3.s:24284  .debug_str:0000000000018718 .LASF4225
GAS LISTING C:\Users\SOLDER~1\AppData\Local\Temp\cc2EfhU3.s 			page 85


C:\Users\SOLDER~1\AppData\Local\Temp\cc2EfhU3.s:22328  .debug_str:000000000001075b .LASF4226
C:\Users\SOLDER~1\AppData\Local\Temp\cc2EfhU3.s:21008  .debug_str:000000000000b0bc .LASF4227
C:\Users\SOLDER~1\AppData\Local\Temp\cc2EfhU3.s:21080  .debug_str:000000000000b58b .LASF4228
C:\Users\SOLDER~1\AppData\Local\Temp\cc2EfhU3.s:23414  .debug_str:0000000000014f03 .LASF4229
C:\Users\SOLDER~1\AppData\Local\Temp\cc2EfhU3.s:20956  .debug_str:000000000000adab .LASF4230
C:\Users\SOLDER~1\AppData\Local\Temp\cc2EfhU3.s:20296  .debug_str:0000000000008215 .LASF4231
C:\Users\SOLDER~1\AppData\Local\Temp\cc2EfhU3.s:24764  .debug_str:000000000001a5ee .LASF4232
C:\Users\SOLDER~1\AppData\Local\Temp\cc2EfhU3.s:22372  .debug_str:0000000000010a4a .LASF4233
C:\Users\SOLDER~1\AppData\Local\Temp\cc2EfhU3.s:28814  .debug_str:000000000002af28 .LASF4234
C:\Users\SOLDER~1\AppData\Local\Temp\cc2EfhU3.s:20308  .debug_str:00000000000082e3 .LASF4235
C:\Users\SOLDER~1\AppData\Local\Temp\cc2EfhU3.s:22926  .debug_str:0000000000012db4 .LASF4236
C:\Users\SOLDER~1\AppData\Local\Temp\cc2EfhU3.s:19884  .debug_str:0000000000006711 .LASF4237
C:\Users\SOLDER~1\AppData\Local\Temp\cc2EfhU3.s:18398  .debug_str:000000000000064c .LASF4238
C:\Users\SOLDER~1\AppData\Local\Temp\cc2EfhU3.s:19052  .debug_str:00000000000031cf .LASF4239
C:\Users\SOLDER~1\AppData\Local\Temp\cc2EfhU3.s:27128  .debug_str:0000000000024028 .LASF4240
C:\Users\SOLDER~1\AppData\Local\Temp\cc2EfhU3.s:19024  .debug_str:0000000000002ffa .LASF4241
C:\Users\SOLDER~1\AppData\Local\Temp\cc2EfhU3.s:26060  .debug_str:000000000001fb03 .LASF4242
C:\Users\SOLDER~1\AppData\Local\Temp\cc2EfhU3.s:21918  .debug_str:000000000000ec9d .LASF4243
C:\Users\SOLDER~1\AppData\Local\Temp\cc2EfhU3.s:20922  .debug_str:000000000000ab5d .LASF4244
C:\Users\SOLDER~1\AppData\Local\Temp\cc2EfhU3.s:26320  .debug_str:0000000000020bba .LASF4245
C:\Users\SOLDER~1\AppData\Local\Temp\cc2EfhU3.s:18962  .debug_str:0000000000002bdf .LASF4246
C:\Users\SOLDER~1\AppData\Local\Temp\cc2EfhU3.s:25900  .debug_str:000000000001f094 .LASF4247
C:\Users\SOLDER~1\AppData\Local\Temp\cc2EfhU3.s:22388  .debug_str:0000000000010b40 .LASF4248
C:\Users\SOLDER~1\AppData\Local\Temp\cc2EfhU3.s:18824  .debug_str:0000000000002308 .LASF4249
C:\Users\SOLDER~1\AppData\Local\Temp\cc2EfhU3.s:23514  .debug_str:00000000000155b2 .LASF4250
C:\Users\SOLDER~1\AppData\Local\Temp\cc2EfhU3.s:26256  .debug_str:00000000000207a0 .LASF4251
C:\Users\SOLDER~1\AppData\Local\Temp\cc2EfhU3.s:28732  .debug_str:000000000002a9a8 .LASF4252
C:\Users\SOLDER~1\AppData\Local\Temp\cc2EfhU3.s:24060  .debug_str:0000000000017888 .LASF4253
C:\Users\SOLDER~1\AppData\Local\Temp\cc2EfhU3.s:23594  .debug_str:0000000000015ab6 .LASF4254
C:\Users\SOLDER~1\AppData\Local\Temp\cc2EfhU3.s:18776  .debug_str:0000000000001fca .LASF4255
C:\Users\SOLDER~1\AppData\Local\Temp\cc2EfhU3.s:28434  .debug_str:0000000000029629 .LASF4256
C:\Users\SOLDER~1\AppData\Local\Temp\cc2EfhU3.s:19274  .debug_str:0000000000003ff8 .LASF4257
C:\Users\SOLDER~1\AppData\Local\Temp\cc2EfhU3.s:26316  .debug_str:0000000000020b7b .LASF4258
C:\Users\SOLDER~1\AppData\Local\Temp\cc2EfhU3.s:19782  .debug_str:0000000000006030 .LASF4259
C:\Users\SOLDER~1\AppData\Local\Temp\cc2EfhU3.s:22608  .debug_str:0000000000011971 .LASF4260
C:\Users\SOLDER~1\AppData\Local\Temp\cc2EfhU3.s:24416  .debug_str:0000000000018fd1 .LASF4261
C:\Users\SOLDER~1\AppData\Local\Temp\cc2EfhU3.s:27212  .debug_str:00000000000245b5 .LASF4262
C:\Users\SOLDER~1\AppData\Local\Temp\cc2EfhU3.s:26482  .debug_str:000000000002162d .LASF4263
C:\Users\SOLDER~1\AppData\Local\Temp\cc2EfhU3.s:29544  .debug_str:000000000002de43 .LASF4264
C:\Users\SOLDER~1\AppData\Local\Temp\cc2EfhU3.s:27960  .debug_str:0000000000027749 .LASF4265
C:\Users\SOLDER~1\AppData\Local\Temp\cc2EfhU3.s:28770  .debug_str:000000000002ac15 .LASF4266
C:\Users\SOLDER~1\AppData\Local\Temp\cc2EfhU3.s:28248  .debug_str:0000000000028a21 .LASF4267
C:\Users\SOLDER~1\AppData\Local\Temp\cc2EfhU3.s:25482  .debug_str:000000000001d544 .LASF4268
C:\Users\SOLDER~1\AppData\Local\Temp\cc2EfhU3.s:18536  .debug_str:0000000000001018 .LASF4269
C:\Users\SOLDER~1\AppData\Local\Temp\cc2EfhU3.s:26392  .debug_str:000000000002109e .LASF4270
C:\Users\SOLDER~1\AppData\Local\Temp\cc2EfhU3.s:20284  .debug_str:000000000000815f .LASF4271
C:\Users\SOLDER~1\AppData\Local\Temp\cc2EfhU3.s:19532  .debug_str:0000000000005016 .LASF4272
C:\Users\SOLDER~1\AppData\Local\Temp\cc2EfhU3.s:27842  .debug_str:0000000000026f84 .LASF4273
C:\Users\SOLDER~1\AppData\Local\Temp\cc2EfhU3.s:18406  .debug_str:000000000000075a .LASF4274
C:\Users\SOLDER~1\AppData\Local\Temp\cc2EfhU3.s:27442  .debug_str:000000000002545f .LASF4275
C:\Users\SOLDER~1\AppData\Local\Temp\cc2EfhU3.s:19322  .debug_str:0000000000004301 .LASF4276
C:\Users\SOLDER~1\AppData\Local\Temp\cc2EfhU3.s:21584  .debug_str:000000000000d708 .LASF4277
C:\Users\SOLDER~1\AppData\Local\Temp\cc2EfhU3.s:20326  .debug_str:00000000000083fe .LASF4278
C:\Users\SOLDER~1\AppData\Local\Temp\cc2EfhU3.s:29020  .debug_str:000000000002bc59 .LASF4279
C:\Users\SOLDER~1\AppData\Local\Temp\cc2EfhU3.s:22430  .debug_str:0000000000010de6 .LASF4280
C:\Users\SOLDER~1\AppData\Local\Temp\cc2EfhU3.s:18362  .debug_str:00000000000003f3 .LASF4281
C:\Users\SOLDER~1\AppData\Local\Temp\cc2EfhU3.s:20606  .debug_str:000000000000967f .LASF4282
GAS LISTING C:\Users\SOLDER~1\AppData\Local\Temp\cc2EfhU3.s 			page 86


C:\Users\SOLDER~1\AppData\Local\Temp\cc2EfhU3.s:23288  .debug_str:00000000000146b7 .LASF4283
C:\Users\SOLDER~1\AppData\Local\Temp\cc2EfhU3.s:20078  .debug_str:0000000000007402 .LASF4284
C:\Users\SOLDER~1\AppData\Local\Temp\cc2EfhU3.s:21296  .debug_str:000000000000c3b4 .LASF4285
C:\Users\SOLDER~1\AppData\Local\Temp\cc2EfhU3.s:24248  .debug_str:00000000000184de .LASF4286
C:\Users\SOLDER~1\AppData\Local\Temp\cc2EfhU3.s:23198  .debug_str:0000000000014076 .LASF4287
C:\Users\SOLDER~1\AppData\Local\Temp\cc2EfhU3.s:26580  .debug_str:0000000000021c82 .LASF4288
C:\Users\SOLDER~1\AppData\Local\Temp\cc2EfhU3.s:25674  .debug_str:000000000001e177 .LASF4289
C:\Users\SOLDER~1\AppData\Local\Temp\cc2EfhU3.s:22434  .debug_str:0000000000010e2d .LASF4290
C:\Users\SOLDER~1\AppData\Local\Temp\cc2EfhU3.s:23478  .debug_str:000000000001534a .LASF4291
C:\Users\SOLDER~1\AppData\Local\Temp\cc2EfhU3.s:18592  .debug_str:00000000000013b9 .LASF4292
C:\Users\SOLDER~1\AppData\Local\Temp\cc2EfhU3.s:24546  .debug_str:00000000000197fb .LASF4293
C:\Users\SOLDER~1\AppData\Local\Temp\cc2EfhU3.s:25130  .debug_str:000000000001bd95 .LASF4294
C:\Users\SOLDER~1\AppData\Local\Temp\cc2EfhU3.s:26306  .debug_str:0000000000020abf .LASF4295
C:\Users\SOLDER~1\AppData\Local\Temp\cc2EfhU3.s:27826  .debug_str:0000000000026e73 .LASF4296
C:\Users\SOLDER~1\AppData\Local\Temp\cc2EfhU3.s:21886  .debug_str:000000000000ea8a .LASF4297
C:\Users\SOLDER~1\AppData\Local\Temp\cc2EfhU3.s:23024  .debug_str:000000000001343e .LASF4298
C:\Users\SOLDER~1\AppData\Local\Temp\cc2EfhU3.s:19594  .debug_str:00000000000053eb .LASF4299
C:\Users\SOLDER~1\AppData\Local\Temp\cc2EfhU3.s:21658  .debug_str:000000000000db97 .LASF4300
C:\Users\SOLDER~1\AppData\Local\Temp\cc2EfhU3.s:20412  .debug_str:000000000000898c .LASF4301
C:\Users\SOLDER~1\AppData\Local\Temp\cc2EfhU3.s:24166  .debug_str:0000000000017fa6 .LASF4302
C:\Users\SOLDER~1\AppData\Local\Temp\cc2EfhU3.s:29478  .debug_str:000000000002da06 .LASF4303
C:\Users\SOLDER~1\AppData\Local\Temp\cc2EfhU3.s:18804  .debug_str:00000000000021b0 .LASF4304
C:\Users\SOLDER~1\AppData\Local\Temp\cc2EfhU3.s:23590  .debug_str:0000000000015a64 .LASF4305
C:\Users\SOLDER~1\AppData\Local\Temp\cc2EfhU3.s:27630  .debug_str:0000000000026197 .LASF4306
C:\Users\SOLDER~1\AppData\Local\Temp\cc2EfhU3.s:27328  .debug_str:0000000000024d45 .LASF4307
C:\Users\SOLDER~1\AppData\Local\Temp\cc2EfhU3.s:20824  .debug_str:000000000000a4bb .LASF4308
C:\Users\SOLDER~1\AppData\Local\Temp\cc2EfhU3.s:29594  .debug_str:000000000002e15f .LASF4309
C:\Users\SOLDER~1\AppData\Local\Temp\cc2EfhU3.s:21188  .debug_str:000000000000bc78 .LASF4310
C:\Users\SOLDER~1\AppData\Local\Temp\cc2EfhU3.s:22192  .debug_str:000000000000fec8 .LASF4311
C:\Users\SOLDER~1\AppData\Local\Temp\cc2EfhU3.s:24930  .debug_str:000000000001b0af .LASF4312
C:\Users\SOLDER~1\AppData\Local\Temp\cc2EfhU3.s:25026  .debug_str:000000000001b6a9 .LASF4313
C:\Users\SOLDER~1\AppData\Local\Temp\cc2EfhU3.s:18662  .debug_str:0000000000001840 .LASF4314
C:\Users\SOLDER~1\AppData\Local\Temp\cc2EfhU3.s:23758  .debug_str:0000000000016519 .LASF4315
C:\Users\SOLDER~1\AppData\Local\Temp\cc2EfhU3.s:23382  .debug_str:0000000000014d13 .LASF4316
C:\Users\SOLDER~1\AppData\Local\Temp\cc2EfhU3.s:20194  .debug_str:0000000000007b4d .LASF4317
C:\Users\SOLDER~1\AppData\Local\Temp\cc2EfhU3.s:23644  .debug_str:0000000000015ddc .LASF4318
C:\Users\SOLDER~1\AppData\Local\Temp\cc2EfhU3.s:19772  .debug_str:0000000000005f6c .LASF4319
C:\Users\SOLDER~1\AppData\Local\Temp\cc2EfhU3.s:28968  .debug_str:000000000002b8e9 .LASF4320
C:\Users\SOLDER~1\AppData\Local\Temp\cc2EfhU3.s:28040  .debug_str:0000000000027c8b .LASF4321
C:\Users\SOLDER~1\AppData\Local\Temp\cc2EfhU3.s:26540  .debug_str:00000000000219e6 .LASF4322
C:\Users\SOLDER~1\AppData\Local\Temp\cc2EfhU3.s:29182  .debug_str:000000000002c6d6 .LASF4323
C:\Users\SOLDER~1\AppData\Local\Temp\cc2EfhU3.s:18752  .debug_str:0000000000001e2d .LASF4324
C:\Users\SOLDER~1\AppData\Local\Temp\cc2EfhU3.s:29558  .debug_str:000000000002df33 .LASF4325
C:\Users\SOLDER~1\AppData\Local\Temp\cc2EfhU3.s:22528  .debug_str:0000000000011451 .LASF4326
C:\Users\SOLDER~1\AppData\Local\Temp\cc2EfhU3.s:20240  .debug_str:0000000000007e58 .LASF4327
C:\Users\SOLDER~1\AppData\Local\Temp\cc2EfhU3.s:29458  .debug_str:000000000002d8c8 .LASF4328
C:\Users\SOLDER~1\AppData\Local\Temp\cc2EfhU3.s:26742  .debug_str:00000000000226c2 .LASF4329
C:\Users\SOLDER~1\AppData\Local\Temp\cc2EfhU3.s:25966  .debug_str:000000000001f52c .LASF4330
C:\Users\SOLDER~1\AppData\Local\Temp\cc2EfhU3.s:18940  .debug_str:0000000000002ab2 .LASF4331
C:\Users\SOLDER~1\AppData\Local\Temp\cc2EfhU3.s:22972  .debug_str:000000000001309d .LASF4332
C:\Users\SOLDER~1\AppData\Local\Temp\cc2EfhU3.s:25976  .debug_str:000000000001f5c5 .LASF4333
C:\Users\SOLDER~1\AppData\Local\Temp\cc2EfhU3.s:22770  .debug_str:0000000000012380 .LASF4334
C:\Users\SOLDER~1\AppData\Local\Temp\cc2EfhU3.s:25302  .debug_str:000000000001c95e .LASF4335
C:\Users\SOLDER~1\AppData\Local\Temp\cc2EfhU3.s:24862  .debug_str:000000000001ac95 .LASF4336
C:\Users\SOLDER~1\AppData\Local\Temp\cc2EfhU3.s:19844  .debug_str:0000000000006472 .LASF4337
C:\Users\SOLDER~1\AppData\Local\Temp\cc2EfhU3.s:25670  .debug_str:000000000001e13a .LASF4338
C:\Users\SOLDER~1\AppData\Local\Temp\cc2EfhU3.s:24556  .debug_str:00000000000198a8 .LASF4339
GAS LISTING C:\Users\SOLDER~1\AppData\Local\Temp\cc2EfhU3.s 			page 87


C:\Users\SOLDER~1\AppData\Local\Temp\cc2EfhU3.s:25238  .debug_str:000000000001c510 .LASF4340
C:\Users\SOLDER~1\AppData\Local\Temp\cc2EfhU3.s:24050  .debug_str:00000000000177db .LASF4341
C:\Users\SOLDER~1\AppData\Local\Temp\cc2EfhU3.s:25478  .debug_str:000000000001d504 .LASF4342
C:\Users\SOLDER~1\AppData\Local\Temp\cc2EfhU3.s:23866  .debug_str:0000000000016bb5 .LASF4343
C:\Users\SOLDER~1\AppData\Local\Temp\cc2EfhU3.s:23958  .debug_str:00000000000171e3 .LASF4344
C:\Users\SOLDER~1\AppData\Local\Temp\cc2EfhU3.s:27226  .debug_str:00000000000246a9 .LASF4345
C:\Users\SOLDER~1\AppData\Local\Temp\cc2EfhU3.s:22802  .debug_str:00000000000125bd .LASF4346
C:\Users\SOLDER~1\AppData\Local\Temp\cc2EfhU3.s:19044  .debug_str:000000000000313e .LASF4347
C:\Users\SOLDER~1\AppData\Local\Temp\cc2EfhU3.s:27132  .debug_str:0000000000024069 .LASF4348
C:\Users\SOLDER~1\AppData\Local\Temp\cc2EfhU3.s:28922  .debug_str:000000000002b602 .LASF4349
C:\Users\SOLDER~1\AppData\Local\Temp\cc2EfhU3.s:26780  .debug_str:000000000002296b .LASF4350
C:\Users\SOLDER~1\AppData\Local\Temp\cc2EfhU3.s:21936  .debug_str:000000000000edcb .LASF4351
C:\Users\SOLDER~1\AppData\Local\Temp\cc2EfhU3.s:23712  .debug_str:0000000000016240 .LASF4352
C:\Users\SOLDER~1\AppData\Local\Temp\cc2EfhU3.s:18990  .debug_str:0000000000002db7 .LASF4353
C:\Users\SOLDER~1\AppData\Local\Temp\cc2EfhU3.s:24574  .debug_str:00000000000199e1 .LASF4354
C:\Users\SOLDER~1\AppData\Local\Temp\cc2EfhU3.s:22970  .debug_str:0000000000013077 .LASF4355
C:\Users\SOLDER~1\AppData\Local\Temp\cc2EfhU3.s:24940  .debug_str:000000000001b156 .LASF4356
C:\Users\SOLDER~1\AppData\Local\Temp\cc2EfhU3.s:26890  .debug_str:0000000000023076 .LASF4357
C:\Users\SOLDER~1\AppData\Local\Temp\cc2EfhU3.s:21666  .debug_str:000000000000dc0c .LASF4358
C:\Users\SOLDER~1\AppData\Local\Temp\cc2EfhU3.s:22044  .debug_str:000000000000f4a7 .LASF4359
C:\Users\SOLDER~1\AppData\Local\Temp\cc2EfhU3.s:28886  .debug_str:000000000002b39d .LASF4360
C:\Users\SOLDER~1\AppData\Local\Temp\cc2EfhU3.s:19070  .debug_str:00000000000032df .LASF4361
C:\Users\SOLDER~1\AppData\Local\Temp\cc2EfhU3.s:20596  .debug_str:00000000000095f3 .LASF4362
C:\Users\SOLDER~1\AppData\Local\Temp\cc2EfhU3.s:19348  .debug_str:0000000000004496 .LASF4363
C:\Users\SOLDER~1\AppData\Local\Temp\cc2EfhU3.s:21190  .debug_str:000000000000bc91 .LASF4364
C:\Users\SOLDER~1\AppData\Local\Temp\cc2EfhU3.s:21472  .debug_str:000000000000cfaf .LASF4365
C:\Users\SOLDER~1\AppData\Local\Temp\cc2EfhU3.s:23992  .debug_str:0000000000017424 .LASF4366
C:\Users\SOLDER~1\AppData\Local\Temp\cc2EfhU3.s:29614  .debug_str:000000000002e2bd .LASF4367
C:\Users\SOLDER~1\AppData\Local\Temp\cc2EfhU3.s:21290  .debug_str:000000000000c34b .LASF4368
C:\Users\SOLDER~1\AppData\Local\Temp\cc2EfhU3.s:26574  .debug_str:0000000000021c18 .LASF4369
C:\Users\SOLDER~1\AppData\Local\Temp\cc2EfhU3.s:27818  .debug_str:0000000000026dfc .LASF4370
C:\Users\SOLDER~1\AppData\Local\Temp\cc2EfhU3.s:20332  .debug_str:0000000000008451 .LASF4371
C:\Users\SOLDER~1\AppData\Local\Temp\cc2EfhU3.s:29352  .debug_str:000000000002d22a .LASF4372
C:\Users\SOLDER~1\AppData\Local\Temp\cc2EfhU3.s:23342  .debug_str:0000000000014a5c .LASF4373
C:\Users\SOLDER~1\AppData\Local\Temp\cc2EfhU3.s:21634  .debug_str:000000000000d9e9 .LASF4374
C:\Users\SOLDER~1\AppData\Local\Temp\cc2EfhU3.s:24426  .debug_str:000000000001906c .LASF4375
C:\Users\SOLDER~1\AppData\Local\Temp\cc2EfhU3.s:23322  .debug_str:0000000000014918 .LASF4376
C:\Users\SOLDER~1\AppData\Local\Temp\cc2EfhU3.s:24698  .debug_str:000000000001a17d .LASF4377
C:\Users\SOLDER~1\AppData\Local\Temp\cc2EfhU3.s:21516  .debug_str:000000000000d27f .LASF4378
C:\Users\SOLDER~1\AppData\Local\Temp\cc2EfhU3.s:25456  .debug_str:000000000001d3bb .LASF4379
C:\Users\SOLDER~1\AppData\Local\Temp\cc2EfhU3.s:27250  .debug_str:000000000002481e .LASF4380
C:\Users\SOLDER~1\AppData\Local\Temp\cc2EfhU3.s:20482  .debug_str:0000000000008e3d .LASF4381
C:\Users\SOLDER~1\AppData\Local\Temp\cc2EfhU3.s:20858  .debug_str:000000000000a739 .LASF4382
C:\Users\SOLDER~1\AppData\Local\Temp\cc2EfhU3.s:21410  .debug_str:000000000000cb89 .LASF4383
C:\Users\SOLDER~1\AppData\Local\Temp\cc2EfhU3.s:28392  .debug_str:0000000000029389 .LASF4384
C:\Users\SOLDER~1\AppData\Local\Temp\cc2EfhU3.s:24954  .debug_str:000000000001b23a .LASF4385
C:\Users\SOLDER~1\AppData\Local\Temp\cc2EfhU3.s:21586  .debug_str:000000000000d725 .LASF4386
C:\Users\SOLDER~1\AppData\Local\Temp\cc2EfhU3.s:18458  .debug_str:0000000000000ae3 .LASF4387
C:\Users\SOLDER~1\AppData\Local\Temp\cc2EfhU3.s:20450  .debug_str:0000000000008be7 .LASF4388
C:\Users\SOLDER~1\AppData\Local\Temp\cc2EfhU3.s:23220  .debug_str:0000000000014234 .LASF4389
C:\Users\SOLDER~1\AppData\Local\Temp\cc2EfhU3.s:19368  .debug_str:00000000000045d9 .LASF4390
C:\Users\SOLDER~1\AppData\Local\Temp\cc2EfhU3.s:19424  .debug_str:0000000000004981 .LASF4391
C:\Users\SOLDER~1\AppData\Local\Temp\cc2EfhU3.s:29376  .debug_str:000000000002d387 .LASF4392
C:\Users\SOLDER~1\AppData\Local\Temp\cc2EfhU3.s:24296  .debug_str:00000000000187d2 .LASF4393
C:\Users\SOLDER~1\AppData\Local\Temp\cc2EfhU3.s:29498  .debug_str:000000000002db70 .LASF4394
C:\Users\SOLDER~1\AppData\Local\Temp\cc2EfhU3.s:23750  .debug_str:0000000000016495 .LASF4395
C:\Users\SOLDER~1\AppData\Local\Temp\cc2EfhU3.s:21498  .debug_str:000000000000d14d .LASF4396
GAS LISTING C:\Users\SOLDER~1\AppData\Local\Temp\cc2EfhU3.s 			page 88


C:\Users\SOLDER~1\AppData\Local\Temp\cc2EfhU3.s:21086  .debug_str:000000000000b5db .LASF4397
C:\Users\SOLDER~1\AppData\Local\Temp\cc2EfhU3.s:28142  .debug_str:000000000002833a .LASF4398
C:\Users\SOLDER~1\AppData\Local\Temp\cc2EfhU3.s:19546  .debug_str:00000000000050e4 .LASF4399
C:\Users\SOLDER~1\AppData\Local\Temp\cc2EfhU3.s:23132  .debug_str:0000000000013c04 .LASF4400
C:\Users\SOLDER~1\AppData\Local\Temp\cc2EfhU3.s:24592  .debug_str:0000000000019afd .LASF4401
C:\Users\SOLDER~1\AppData\Local\Temp\cc2EfhU3.s:24514  .debug_str:000000000001962b .LASF4402
C:\Users\SOLDER~1\AppData\Local\Temp\cc2EfhU3.s:25366  .debug_str:000000000001cda6 .LASF4403
C:\Users\SOLDER~1\AppData\Local\Temp\cc2EfhU3.s:23188  .debug_str:0000000000013fc7 .LASF4404
C:\Users\SOLDER~1\AppData\Local\Temp\cc2EfhU3.s:26612  .debug_str:0000000000021e76 .LASF4405
C:\Users\SOLDER~1\AppData\Local\Temp\cc2EfhU3.s:27448  .debug_str:00000000000254c1 .LASF4406
C:\Users\SOLDER~1\AppData\Local\Temp\cc2EfhU3.s:22312  .debug_str:0000000000010648 .LASF4407
C:\Users\SOLDER~1\AppData\Local\Temp\cc2EfhU3.s:23782  .debug_str:0000000000016662 .LASF4408
C:\Users\SOLDER~1\AppData\Local\Temp\cc2EfhU3.s:26474  .debug_str:000000000002159c .LASF4409
C:\Users\SOLDER~1\AppData\Local\Temp\cc2EfhU3.s:20950  .debug_str:000000000000ad2c .LASF4410
C:\Users\SOLDER~1\AppData\Local\Temp\cc2EfhU3.s:27196  .debug_str:00000000000244ac .LASF4411
C:\Users\SOLDER~1\AppData\Local\Temp\cc2EfhU3.s:27032  .debug_str:00000000000239b9 .LASF4412
C:\Users\SOLDER~1\AppData\Local\Temp\cc2EfhU3.s:27570  .debug_str:0000000000025d4f .LASF4413
C:\Users\SOLDER~1\AppData\Local\Temp\cc2EfhU3.s:22306  .debug_str:00000000000105f3 .LASF4414
C:\Users\SOLDER~1\AppData\Local\Temp\cc2EfhU3.s:22354  .debug_str:0000000000010938 .LASF4415
C:\Users\SOLDER~1\AppData\Local\Temp\cc2EfhU3.s:18880  .debug_str:00000000000026aa .LASF4416
C:\Users\SOLDER~1\AppData\Local\Temp\cc2EfhU3.s:23900  .debug_str:0000000000016de8 .LASF4417
C:\Users\SOLDER~1\AppData\Local\Temp\cc2EfhU3.s:19244  .debug_str:0000000000003e1f .LASF4418
C:\Users\SOLDER~1\AppData\Local\Temp\cc2EfhU3.s:18884  .debug_str:00000000000026f1 .LASF4419
C:\Users\SOLDER~1\AppData\Local\Temp\cc2EfhU3.s:20794  .debug_str:000000000000a2c3 .LASF4420
C:\Users\SOLDER~1\AppData\Local\Temp\cc2EfhU3.s:25386  .debug_str:000000000001cecf .LASF4421
C:\Users\SOLDER~1\AppData\Local\Temp\cc2EfhU3.s:24534  .debug_str:000000000001973d .LASF4422
C:\Users\SOLDER~1\AppData\Local\Temp\cc2EfhU3.s:22680  .debug_str:0000000000011df4 .LASF4423
C:\Users\SOLDER~1\AppData\Local\Temp\cc2EfhU3.s:25540  .debug_str:000000000001d8ae .LASF4424
C:\Users\SOLDER~1\AppData\Local\Temp\cc2EfhU3.s:19762  .debug_str:0000000000005ec9 .LASF4425
C:\Users\SOLDER~1\AppData\Local\Temp\cc2EfhU3.s:23308  .debug_str:000000000001480d .LASF4426
C:\Users\SOLDER~1\AppData\Local\Temp\cc2EfhU3.s:26246  .debug_str:00000000000206fa .LASF4427
C:\Users\SOLDER~1\AppData\Local\Temp\cc2EfhU3.s:29690  .debug_str:000000000002e7d9 .LASF4428
C:\Users\SOLDER~1\AppData\Local\Temp\cc2EfhU3.s:24786  .debug_str:000000000001a775 .LASF4429
C:\Users\SOLDER~1\AppData\Local\Temp\cc2EfhU3.s:29420  .debug_str:000000000002d67e .LASF4430
C:\Users\SOLDER~1\AppData\Local\Temp\cc2EfhU3.s:28444  .debug_str:00000000000296ca .LASF4431
C:\Users\SOLDER~1\AppData\Local\Temp\cc2EfhU3.s:24540  .debug_str:00000000000197a8 .LASF4432
C:\Users\SOLDER~1\AppData\Local\Temp\cc2EfhU3.s:24796  .debug_str:000000000001a800 .LASF4433
C:\Users\SOLDER~1\AppData\Local\Temp\cc2EfhU3.s:22540  .debug_str:0000000000011534 .LASF4434
C:\Users\SOLDER~1\AppData\Local\Temp\cc2EfhU3.s:29238  .debug_str:000000000002ca6c .LASF4435
C:\Users\SOLDER~1\AppData\Local\Temp\cc2EfhU3.s:24508  .debug_str:00000000000195dc .LASF4436
C:\Users\SOLDER~1\AppData\Local\Temp\cc2EfhU3.s:28118  .debug_str:00000000000281b8 .LASF4437
C:\Users\SOLDER~1\AppData\Local\Temp\cc2EfhU3.s:26778  .debug_str:0000000000022957 .LASF4438
C:\Users\SOLDER~1\AppData\Local\Temp\cc2EfhU3.s:22076  .debug_str:000000000000f6b5 .LASF4439
C:\Users\SOLDER~1\AppData\Local\Temp\cc2EfhU3.s:27402  .debug_str:00000000000251f6 .LASF4440
C:\Users\SOLDER~1\AppData\Local\Temp\cc2EfhU3.s:23848  .debug_str:0000000000016ace .LASF4441
C:\Users\SOLDER~1\AppData\Local\Temp\cc2EfhU3.s:28198  .debug_str:000000000002871a .LASF4442
C:\Users\SOLDER~1\AppData\Local\Temp\cc2EfhU3.s:23760  .debug_str:000000000001653b .LASF4443
C:\Users\SOLDER~1\AppData\Local\Temp\cc2EfhU3.s:21202  .debug_str:000000000000bd47 .LASF4444
C:\Users\SOLDER~1\AppData\Local\Temp\cc2EfhU3.s:23548  .debug_str:00000000000157ce .LASF4445
C:\Users\SOLDER~1\AppData\Local\Temp\cc2EfhU3.s:24298  .debug_str:00000000000187f2 .LASF4446
C:\Users\SOLDER~1\AppData\Local\Temp\cc2EfhU3.s:21388  .debug_str:000000000000ca0b .LASF4447
C:\Users\SOLDER~1\AppData\Local\Temp\cc2EfhU3.s:25112  .debug_str:000000000001bc68 .LASF4448
C:\Users\SOLDER~1\AppData\Local\Temp\cc2EfhU3.s:26602  .debug_str:0000000000021dda .LASF4449
C:\Users\SOLDER~1\AppData\Local\Temp\cc2EfhU3.s:28296  .debug_str:0000000000028d2b .LASF4450
C:\Users\SOLDER~1\AppData\Local\Temp\cc2EfhU3.s:26348  .debug_str:0000000000020d88 .LASF4451
C:\Users\SOLDER~1\AppData\Local\Temp\cc2EfhU3.s:24888  .debug_str:000000000001ae33 .LASF4452
C:\Users\SOLDER~1\AppData\Local\Temp\cc2EfhU3.s:23066  .debug_str:000000000001370c .LASF4453
GAS LISTING C:\Users\SOLDER~1\AppData\Local\Temp\cc2EfhU3.s 			page 89


C:\Users\SOLDER~1\AppData\Local\Temp\cc2EfhU3.s:25350  .debug_str:000000000001cca8 .LASF4454
C:\Users\SOLDER~1\AppData\Local\Temp\cc2EfhU3.s:22706  .debug_str:0000000000011fa8 .LASF4455
C:\Users\SOLDER~1\AppData\Local\Temp\cc2EfhU3.s:27736  .debug_str:00000000000268ad .LASF4456
C:\Users\SOLDER~1\AppData\Local\Temp\cc2EfhU3.s:22172  .debug_str:000000000000fd8b .LASF4457
C:\Users\SOLDER~1\AppData\Local\Temp\cc2EfhU3.s:28550  .debug_str:0000000000029dcb .LASF4458
C:\Users\SOLDER~1\AppData\Local\Temp\cc2EfhU3.s:27438  .debug_str:0000000000025422 .LASF4459
C:\Users\SOLDER~1\AppData\Local\Temp\cc2EfhU3.s:28478  .debug_str:00000000000298e1 .LASF4460
C:\Users\SOLDER~1\AppData\Local\Temp\cc2EfhU3.s:22602  .debug_str:000000000001191b .LASF4461
C:\Users\SOLDER~1\AppData\Local\Temp\cc2EfhU3.s:23908  .debug_str:0000000000016e7b .LASF4462
C:\Users\SOLDER~1\AppData\Local\Temp\cc2EfhU3.s:24722  .debug_str:000000000001a334 .LASF4463
C:\Users\SOLDER~1\AppData\Local\Temp\cc2EfhU3.s:27020  .debug_str:00000000000238e8 .LASF4464
C:\Users\SOLDER~1\AppData\Local\Temp\cc2EfhU3.s:25086  .debug_str:000000000001ba94 .LASF4465
C:\Users\SOLDER~1\AppData\Local\Temp\cc2EfhU3.s:24696  .debug_str:000000000001a166 .LASF4466
C:\Users\SOLDER~1\AppData\Local\Temp\cc2EfhU3.s:24398  .debug_str:0000000000018ecb .LASF4467
C:\Users\SOLDER~1\AppData\Local\Temp\cc2EfhU3.s:25262  .debug_str:000000000001c6a0 .LASF4468
C:\Users\SOLDER~1\AppData\Local\Temp\cc2EfhU3.s:23826  .debug_str:0000000000016968 .LASF4469
C:\Users\SOLDER~1\AppData\Local\Temp\cc2EfhU3.s:28200  .debug_str:000000000002872b .LASF4470
C:\Users\SOLDER~1\AppData\Local\Temp\cc2EfhU3.s:28956  .debug_str:000000000002b828 .LASF4471
C:\Users\SOLDER~1\AppData\Local\Temp\cc2EfhU3.s:19482  .debug_str:0000000000004d24 .LASF4472
C:\Users\SOLDER~1\AppData\Local\Temp\cc2EfhU3.s:29350  .debug_str:000000000002d213 .LASF4473
C:\Users\SOLDER~1\AppData\Local\Temp\cc2EfhU3.s:27354  .debug_str:0000000000024eea .LASF4474
C:\Users\SOLDER~1\AppData\Local\Temp\cc2EfhU3.s:28638  .debug_str:000000000002a39a .LASF4475
C:\Users\SOLDER~1\AppData\Local\Temp\cc2EfhU3.s:23988  .debug_str:00000000000173e9 .LASF4476
C:\Users\SOLDER~1\AppData\Local\Temp\cc2EfhU3.s:25550  .debug_str:000000000001d94e .LASF4477
C:\Users\SOLDER~1\AppData\Local\Temp\cc2EfhU3.s:27846  .debug_str:0000000000026fbe .LASF4478
C:\Users\SOLDER~1\AppData\Local\Temp\cc2EfhU3.s:26560  .debug_str:0000000000021b37 .LASF4479
C:\Users\SOLDER~1\AppData\Local\Temp\cc2EfhU3.s:26490  .debug_str:00000000000216a0 .LASF4480
C:\Users\SOLDER~1\AppData\Local\Temp\cc2EfhU3.s:22562  .debug_str:0000000000011668 .LASF4481
C:\Users\SOLDER~1\AppData\Local\Temp\cc2EfhU3.s:29516  .debug_str:000000000002dca8 .LASF4482
C:\Users\SOLDER~1\AppData\Local\Temp\cc2EfhU3.s:20814  .debug_str:000000000000a403 .LASF4483
C:\Users\SOLDER~1\AppData\Local\Temp\cc2EfhU3.s:28536  .debug_str:0000000000029cd4 .LASF4484
C:\Users\SOLDER~1\AppData\Local\Temp\cc2EfhU3.s:19964  .debug_str:0000000000006c36 .LASF4485
C:\Users\SOLDER~1\AppData\Local\Temp\cc2EfhU3.s:25004  .debug_str:000000000001b568 .LASF4486
C:\Users\SOLDER~1\AppData\Local\Temp\cc2EfhU3.s:29298  .debug_str:000000000002ce8f .LASF4487
C:\Users\SOLDER~1\AppData\Local\Temp\cc2EfhU3.s:28862  .debug_str:000000000002b217 .LASF4488
C:\Users\SOLDER~1\AppData\Local\Temp\cc2EfhU3.s:24902  .debug_str:000000000001aeea .LASF4489
C:\Users\SOLDER~1\AppData\Local\Temp\cc2EfhU3.s:23056  .debug_str:000000000001367c .LASF4490
C:\Users\SOLDER~1\AppData\Local\Temp\cc2EfhU3.s:23624  .debug_str:0000000000015c9d .LASF4491
C:\Users\SOLDER~1\AppData\Local\Temp\cc2EfhU3.s:22814  .debug_str:0000000000012675 .LASF4492
C:\Users\SOLDER~1\AppData\Local\Temp\cc2EfhU3.s:28714  .debug_str:000000000002a85a .LASF4493
C:\Users\SOLDER~1\AppData\Local\Temp\cc2EfhU3.s:23920  .debug_str:0000000000016f37 .LASF4494
C:\Users\SOLDER~1\AppData\Local\Temp\cc2EfhU3.s:27466  .debug_str:00000000000255e2 .LASF4495
C:\Users\SOLDER~1\AppData\Local\Temp\cc2EfhU3.s:24048  .debug_str:00000000000177a2 .LASF4496
C:\Users\SOLDER~1\AppData\Local\Temp\cc2EfhU3.s:26218  .debug_str:000000000002051f .LASF4497
C:\Users\SOLDER~1\AppData\Local\Temp\cc2EfhU3.s:29380  .debug_str:000000000002d3b6 .LASF4498
C:\Users\SOLDER~1\AppData\Local\Temp\cc2EfhU3.s:23332  .debug_str:00000000000149b4 .LASF4499
C:\Users\SOLDER~1\AppData\Local\Temp\cc2EfhU3.s:24454  .debug_str:0000000000019230 .LASF4500
C:\Users\SOLDER~1\AppData\Local\Temp\cc2EfhU3.s:25626  .debug_str:000000000001de62 .LASF4501
C:\Users\SOLDER~1\AppData\Local\Temp\cc2EfhU3.s:26706  .debug_str:000000000002245d .LASF4502
C:\Users\SOLDER~1\AppData\Local\Temp\cc2EfhU3.s:25156  .debug_str:000000000001bf45 .LASF4503
C:\Users\SOLDER~1\AppData\Local\Temp\cc2EfhU3.s:27942  .debug_str:0000000000027612 .LASF4504
C:\Users\SOLDER~1\AppData\Local\Temp\cc2EfhU3.s:26748  .debug_str:0000000000022727 .LASF4505
C:\Users\SOLDER~1\AppData\Local\Temp\cc2EfhU3.s:18714  .debug_str:0000000000001b89 .LASF4506
C:\Users\SOLDER~1\AppData\Local\Temp\cc2EfhU3.s:27500  .debug_str:0000000000025851 .LASF4507
C:\Users\SOLDER~1\AppData\Local\Temp\cc2EfhU3.s:19872  .debug_str:000000000000661f .LASF4508
C:\Users\SOLDER~1\AppData\Local\Temp\cc2EfhU3.s:22518  .debug_str:0000000000011384 .LASF4509
C:\Users\SOLDER~1\AppData\Local\Temp\cc2EfhU3.s:24970  .debug_str:000000000001b358 .LASF4510
GAS LISTING C:\Users\SOLDER~1\AppData\Local\Temp\cc2EfhU3.s 			page 90


C:\Users\SOLDER~1\AppData\Local\Temp\cc2EfhU3.s:19238  .debug_str:0000000000003db7 .LASF4511
C:\Users\SOLDER~1\AppData\Local\Temp\cc2EfhU3.s:26486  .debug_str:0000000000021669 .LASF4512
C:\Users\SOLDER~1\AppData\Local\Temp\cc2EfhU3.s:26568  .debug_str:0000000000021bb2 .LASF4513
C:\Users\SOLDER~1\AppData\Local\Temp\cc2EfhU3.s:26074  .debug_str:000000000001fbcd .LASF4514
C:\Users\SOLDER~1\AppData\Local\Temp\cc2EfhU3.s:20678  .debug_str:0000000000009b15 .LASF4515
C:\Users\SOLDER~1\AppData\Local\Temp\cc2EfhU3.s:23484  .debug_str:00000000000153ba .LASF4516
C:\Users\SOLDER~1\AppData\Local\Temp\cc2EfhU3.s:25928  .debug_str:000000000001f26a .LASF4517
C:\Users\SOLDER~1\AppData\Local\Temp\cc2EfhU3.s:29738  .debug_str:000000000002eac3 .LASF4518
C:\Users\SOLDER~1\AppData\Local\Temp\cc2EfhU3.s:25678  .debug_str:000000000001e1b2 .LASF4519
C:\Users\SOLDER~1\AppData\Local\Temp\cc2EfhU3.s:18584  .debug_str:000000000000131b .LASF4520
C:\Users\SOLDER~1\AppData\Local\Temp\cc2EfhU3.s:22278  .debug_str:0000000000010461 .LASF4521
C:\Users\SOLDER~1\AppData\Local\Temp\cc2EfhU3.s:21384  .debug_str:000000000000c9cf .LASF4522
C:\Users\SOLDER~1\AppData\Local\Temp\cc2EfhU3.s:27372  .debug_str:0000000000024fec .LASF4523
C:\Users\SOLDER~1\AppData\Local\Temp\cc2EfhU3.s:21576  .debug_str:000000000000d685 .LASF4524
C:\Users\SOLDER~1\AppData\Local\Temp\cc2EfhU3.s:28932  .debug_str:000000000002b69e .LASF4525
C:\Users\SOLDER~1\AppData\Local\Temp\cc2EfhU3.s:24380  .debug_str:0000000000018d94 .LASF4526
C:\Users\SOLDER~1\AppData\Local\Temp\cc2EfhU3.s:23416  .debug_str:0000000000014f15 .LASF4527
C:\Users\SOLDER~1\AppData\Local\Temp\cc2EfhU3.s:27318  .debug_str:0000000000024cb3 .LASF4528
C:\Users\SOLDER~1\AppData\Local\Temp\cc2EfhU3.s:28802  .debug_str:000000000002ae16 .LASF4529
C:\Users\SOLDER~1\AppData\Local\Temp\cc2EfhU3.s:21078  .debug_str:000000000000b56f .LASF4530
C:\Users\SOLDER~1\AppData\Local\Temp\cc2EfhU3.s:27254  .debug_str:0000000000024861 .LASF4531
C:\Users\SOLDER~1\AppData\Local\Temp\cc2EfhU3.s:26898  .debug_str:00000000000230f0 .LASF4532
C:\Users\SOLDER~1\AppData\Local\Temp\cc2EfhU3.s:25400  .debug_str:000000000001cfe7 .LASF4533
C:\Users\SOLDER~1\AppData\Local\Temp\cc2EfhU3.s:27568  .debug_str:0000000000025d16 .LASF4534
C:\Users\SOLDER~1\AppData\Local\Temp\cc2EfhU3.s:29018  .debug_str:000000000002bc20 .LASF4535
C:\Users\SOLDER~1\AppData\Local\Temp\cc2EfhU3.s:23738  .debug_str:00000000000163d8 .LASF4536
C:\Users\SOLDER~1\AppData\Local\Temp\cc2EfhU3.s:19432  .debug_str:00000000000049f8 .LASF4537
C:\Users\SOLDER~1\AppData\Local\Temp\cc2EfhU3.s:21998  .debug_str:000000000000f19f .LASF4538
C:\Users\SOLDER~1\AppData\Local\Temp\cc2EfhU3.s:22988  .debug_str:00000000000131cd .LASF4539
C:\Users\SOLDER~1\AppData\Local\Temp\cc2EfhU3.s:25260  .debug_str:000000000001c665 .LASF4540
C:\Users\SOLDER~1\AppData\Local\Temp\cc2EfhU3.s:25228  .debug_str:000000000001c431 .LASF4541
C:\Users\SOLDER~1\AppData\Local\Temp\cc2EfhU3.s:23200  .debug_str:0000000000014098 .LASF4542
C:\Users\SOLDER~1\AppData\Local\Temp\cc2EfhU3.s:29074  .debug_str:000000000002c00f .LASF4543
C:\Users\SOLDER~1\AppData\Local\Temp\cc2EfhU3.s:29044  .debug_str:000000000002be01 .LASF4544
C:\Users\SOLDER~1\AppData\Local\Temp\cc2EfhU3.s:27258  .debug_str:00000000000248bd .LASF4545
C:\Users\SOLDER~1\AppData\Local\Temp\cc2EfhU3.s:21724  .debug_str:000000000000e01b .LASF4546
C:\Users\SOLDER~1\AppData\Local\Temp\cc2EfhU3.s:19876  .debug_str:000000000000667d .LASF4547
C:\Users\SOLDER~1\AppData\Local\Temp\cc2EfhU3.s:19934  .debug_str:0000000000006a6b .LASF4548
C:\Users\SOLDER~1\AppData\Local\Temp\cc2EfhU3.s:22962  .debug_str:0000000000013003 .LASF4549
C:\Users\SOLDER~1\AppData\Local\Temp\cc2EfhU3.s:24716  .debug_str:000000000001a2dc .LASF4550
C:\Users\SOLDER~1\AppData\Local\Temp\cc2EfhU3.s:25126  .debug_str:000000000001bd6b .LASF4551
C:\Users\SOLDER~1\AppData\Local\Temp\cc2EfhU3.s:24242  .debug_str:0000000000018471 .LASF4552
C:\Users\SOLDER~1\AppData\Local\Temp\cc2EfhU3.s:28402  .debug_str:0000000000029447 .LASF4553
C:\Users\SOLDER~1\AppData\Local\Temp\cc2EfhU3.s:18316  .debug_str:000000000000010c .LASF4554
C:\Users\SOLDER~1\AppData\Local\Temp\cc2EfhU3.s:26546  .debug_str:0000000000021a3d .LASF4555
C:\Users\SOLDER~1\AppData\Local\Temp\cc2EfhU3.s:26290  .debug_str:00000000000209da .LASF4556
C:\Users\SOLDER~1\AppData\Local\Temp\cc2EfhU3.s:24220  .debug_str:0000000000018309 .LASF4557
C:\Users\SOLDER~1\AppData\Local\Temp\cc2EfhU3.s:28912  .debug_str:000000000002b55f .LASF4558
C:\Users\SOLDER~1\AppData\Local\Temp\cc2EfhU3.s:22214  .debug_str:000000000001001c .LASF4559
C:\Users\SOLDER~1\AppData\Local\Temp\cc2EfhU3.s:22308  .debug_str:0000000000010614 .LASF4560
C:\Users\SOLDER~1\AppData\Local\Temp\cc2EfhU3.s:22408  .debug_str:0000000000010c7e .LASF4561
C:\Users\SOLDER~1\AppData\Local\Temp\cc2EfhU3.s:22552  .debug_str:00000000000115ee .LASF4562
C:\Users\SOLDER~1\AppData\Local\Temp\cc2EfhU3.s:22282  .debug_str:00000000000104a4 .LASF4563
C:\Users\SOLDER~1\AppData\Local\Temp\cc2EfhU3.s:20718  .debug_str:0000000000009db5 .LASF4564
C:\Users\SOLDER~1\AppData\Local\Temp\cc2EfhU3.s:20098  .debug_str:000000000000753d .LASF4565
C:\Users\SOLDER~1\AppData\Local\Temp\cc2EfhU3.s:19388  .debug_str:0000000000004737 .LASF4566
C:\Users\SOLDER~1\AppData\Local\Temp\cc2EfhU3.s:22722  .debug_str:00000000000120a2 .LASF4567
GAS LISTING C:\Users\SOLDER~1\AppData\Local\Temp\cc2EfhU3.s 			page 91


C:\Users\SOLDER~1\AppData\Local\Temp\cc2EfhU3.s:27896  .debug_str:0000000000027329 .LASF4568
C:\Users\SOLDER~1\AppData\Local\Temp\cc2EfhU3.s:23702  .debug_str:000000000001618d .LASF4569
C:\Users\SOLDER~1\AppData\Local\Temp\cc2EfhU3.s:25380  .debug_str:000000000001ce74 .LASF4570
C:\Users\SOLDER~1\AppData\Local\Temp\cc2EfhU3.s:25570  .debug_str:000000000001daad .LASF4571
C:\Users\SOLDER~1\AppData\Local\Temp\cc2EfhU3.s:22442  .debug_str:0000000000010eab .LASF4572
C:\Users\SOLDER~1\AppData\Local\Temp\cc2EfhU3.s:24014  .debug_str:000000000001759b .LASF4573
C:\Users\SOLDER~1\AppData\Local\Temp\cc2EfhU3.s:28916  .debug_str:000000000002b5ac .LASF4574
C:\Users\SOLDER~1\AppData\Local\Temp\cc2EfhU3.s:25562  .debug_str:000000000001da1f .LASF4575
C:\Users\SOLDER~1\AppData\Local\Temp\cc2EfhU3.s:18858  .debug_str:0000000000002570 .LASF4576
C:\Users\SOLDER~1\AppData\Local\Temp\cc2EfhU3.s:20912  .debug_str:000000000000aabd .LASF4577
C:\Users\SOLDER~1\AppData\Local\Temp\cc2EfhU3.s:20870  .debug_str:000000000000a7fa .LASF4578
C:\Users\SOLDER~1\AppData\Local\Temp\cc2EfhU3.s:25140  .debug_str:000000000001be46 .LASF4579
C:\Users\SOLDER~1\AppData\Local\Temp\cc2EfhU3.s:22356  .debug_str:0000000000010958 .LASF4580
C:\Users\SOLDER~1\AppData\Local\Temp\cc2EfhU3.s:25058  .debug_str:000000000001b8e9 .LASF4581
C:\Users\SOLDER~1\AppData\Local\Temp\cc2EfhU3.s:27952  .debug_str:00000000000276bd .LASF4582
C:\Users\SOLDER~1\AppData\Local\Temp\cc2EfhU3.s:21228  .debug_str:000000000000bef2 .LASF4583
C:\Users\SOLDER~1\AppData\Local\Temp\cc2EfhU3.s:20120  .debug_str:0000000000007699 .LASF4584
C:\Users\SOLDER~1\AppData\Local\Temp\cc2EfhU3.s:24080  .debug_str:00000000000179bb .LASF4585
C:\Users\SOLDER~1\AppData\Local\Temp\cc2EfhU3.s:24992  .debug_str:000000000001b4ba .LASF4586
C:\Users\SOLDER~1\AppData\Local\Temp\cc2EfhU3.s:19648  .debug_str:0000000000005750 .LASF4587
C:\Users\SOLDER~1\AppData\Local\Temp\cc2EfhU3.s:20220  .debug_str:0000000000007d10 .LASF4588
C:\Users\SOLDER~1\AppData\Local\Temp\cc2EfhU3.s:20420  .debug_str:0000000000008a06 .LASF4589
C:\Users\SOLDER~1\AppData\Local\Temp\cc2EfhU3.s:25708  .debug_str:000000000001e390 .LASF4590
C:\Users\SOLDER~1\AppData\Local\Temp\cc2EfhU3.s:29218  .debug_str:000000000002c916 .LASF4591
C:\Users\SOLDER~1\AppData\Local\Temp\cc2EfhU3.s:20138  .debug_str:0000000000007783 .LASF4594
C:\Users\SOLDER~1\AppData\Local\Temp\cc2EfhU3.s:24758  .debug_str:000000000001a580 .LASF4595
C:\Users\SOLDER~1\AppData\Local\Temp\cc2EfhU3.s:23080  .debug_str:0000000000013835 .LASF4596
C:\Users\SOLDER~1\AppData\Local\Temp\cc2EfhU3.s:24838  .debug_str:000000000001aacf .LASF4597
C:\Users\SOLDER~1\AppData\Local\Temp\cc2EfhU3.s:26498  .debug_str:0000000000021726 .LASF4598
C:\Users\SOLDER~1\AppData\Local\Temp\cc2EfhU3.s:23470  .debug_str:00000000000152b8 .LASF4599
C:\Users\SOLDER~1\AppData\Local\Temp\cc2EfhU3.s:28824  .debug_str:000000000002afdc .LASF4600
C:\Users\SOLDER~1\AppData\Local\Temp\cc2EfhU3.s:23808  .debug_str:0000000000016833 .LASF4601
C:\Users\SOLDER~1\AppData\Local\Temp\cc2EfhU3.s:21424  .debug_str:000000000000cc6b .LASF4602
C:\Users\SOLDER~1\AppData\Local\Temp\cc2EfhU3.s:23202  .debug_str:00000000000140d2 .LASF4603
C:\Users\SOLDER~1\AppData\Local\Temp\cc2EfhU3.s:22080  .debug_str:000000000000f6eb .LASF4604
C:\Users\SOLDER~1\AppData\Local\Temp\cc2EfhU3.s:28544  .debug_str:0000000000029d47 .LASF4605
C:\Users\SOLDER~1\AppData\Local\Temp\cc2EfhU3.s:29646  .debug_str:000000000002e4c5 .LASF4606
C:\Users\SOLDER~1\AppData\Local\Temp\cc2EfhU3.s:27030  .debug_str:0000000000023985 .LASF4607
C:\Users\SOLDER~1\AppData\Local\Temp\cc2EfhU3.s:20804  .debug_str:000000000000a35d .LASF4608
C:\Users\SOLDER~1\AppData\Local\Temp\cc2EfhU3.s:22974  .debug_str:00000000000130b5 .LASF4609
C:\Users\SOLDER~1\AppData\Local\Temp\cc2EfhU3.s:27014  .debug_str:000000000002386b .LASF4610
C:\Users\SOLDER~1\AppData\Local\Temp\cc2EfhU3.s:19996  .debug_str:0000000000006e63 .LASF4611
C:\Users\SOLDER~1\AppData\Local\Temp\cc2EfhU3.s:25950  .debug_str:000000000001f40c .LASF4612
C:\Users\SOLDER~1\AppData\Local\Temp\cc2EfhU3.s:19224  .debug_str:0000000000003cc4 .LASF4613
C:\Users\SOLDER~1\AppData\Local\Temp\cc2EfhU3.s:27670  .debug_str:000000000002640d .LASF4614
C:\Users\SOLDER~1\AppData\Local\Temp\cc2EfhU3.s:20410  .debug_str:0000000000008958 .LASF4615
C:\Users\SOLDER~1\AppData\Local\Temp\cc2EfhU3.s:27724  .debug_str:00000000000267b7 .LASF4616
C:\Users\SOLDER~1\AppData\Local\Temp\cc2EfhU3.s:20004  .debug_str:0000000000006f0f .LASF4617
C:\Users\SOLDER~1\AppData\Local\Temp\cc2EfhU3.s:18966  .debug_str:0000000000002c1c .LASF4618
C:\Users\SOLDER~1\AppData\Local\Temp\cc2EfhU3.s:21018  .debug_str:000000000000b159 .LASF4619
C:\Users\SOLDER~1\AppData\Local\Temp\cc2EfhU3.s:21136  .debug_str:000000000000b8fc .LASF4620
C:\Users\SOLDER~1\AppData\Local\Temp\cc2EfhU3.s:27162  .debug_str:0000000000024253 .LASF4621
C:\Users\SOLDER~1\AppData\Local\Temp\cc2EfhU3.s:28294  .debug_str:0000000000028d0d .LASF4622
C:\Users\SOLDER~1\AppData\Local\Temp\cc2EfhU3.s:24164  .debug_str:0000000000017f88 .LASF4623
C:\Users\SOLDER~1\AppData\Local\Temp\cc2EfhU3.s:22210  .debug_str:000000000000ffec .LASF4624
C:\Users\SOLDER~1\AppData\Local\Temp\cc2EfhU3.s:28704  .debug_str:000000000002a7b2 .LASF4625
C:\Users\SOLDER~1\AppData\Local\Temp\cc2EfhU3.s:23844  .debug_str:0000000000016a8c .LASF4626
GAS LISTING C:\Users\SOLDER~1\AppData\Local\Temp\cc2EfhU3.s 			page 92


C:\Users\SOLDER~1\AppData\Local\Temp\cc2EfhU3.s:25802  .debug_str:000000000001ea1a .LASF4627
C:\Users\SOLDER~1\AppData\Local\Temp\cc2EfhU3.s:23178  .debug_str:0000000000013f34 .LASF4628
C:\Users\SOLDER~1\AppData\Local\Temp\cc2EfhU3.s:20598  .debug_str:000000000000960d .LASF4629
C:\Users\SOLDER~1\AppData\Local\Temp\cc2EfhU3.s:25694  .debug_str:000000000001e29e .LASF4630
C:\Users\SOLDER~1\AppData\Local\Temp\cc2EfhU3.s:26662  .debug_str:0000000000022154 .LASF4631
C:\Users\SOLDER~1\AppData\Local\Temp\cc2EfhU3.s:25504  .debug_str:000000000001d68b .LASF4632
C:\Users\SOLDER~1\AppData\Local\Temp\cc2EfhU3.s:29334  .debug_str:000000000002d0fc .LASF4633
C:\Users\SOLDER~1\AppData\Local\Temp\cc2EfhU3.s:26628  .debug_str:0000000000021f72 .LASF4634
C:\Users\SOLDER~1\AppData\Local\Temp\cc2EfhU3.s:18320  .debug_str:0000000000000130 .LASF4635
C:\Users\SOLDER~1\AppData\Local\Temp\cc2EfhU3.s:23950  .debug_str:0000000000017157 .LASF4636
C:\Users\SOLDER~1\AppData\Local\Temp\cc2EfhU3.s:23050  .debug_str:000000000001360d .LASF4637
C:\Users\SOLDER~1\AppData\Local\Temp\cc2EfhU3.s:23026  .debug_str:0000000000013457 .LASF4638
C:\Users\SOLDER~1\AppData\Local\Temp\cc2EfhU3.s:23028  .debug_str:0000000000013488 .LASF4639
C:\Users\SOLDER~1\AppData\Local\Temp\cc2EfhU3.s:28540  .debug_str:0000000000029d02 .LASF4640
C:\Users\SOLDER~1\AppData\Local\Temp\cc2EfhU3.s:21330  .debug_str:000000000000c608 .LASF4641
C:\Users\SOLDER~1\AppData\Local\Temp\cc2EfhU3.s:29760  .debug_str:000000000002ec21 .LASF4642
C:\Users\SOLDER~1\AppData\Local\Temp\cc2EfhU3.s:26616  .debug_str:0000000000021eb9 .LASF4643
C:\Users\SOLDER~1\AppData\Local\Temp\cc2EfhU3.s:21556  .debug_str:000000000000d526 .LASF4644
C:\Users\SOLDER~1\AppData\Local\Temp\cc2EfhU3.s:25612  .debug_str:000000000001dda5 .LASF4645
C:\Users\SOLDER~1\AppData\Local\Temp\cc2EfhU3.s:21588  .debug_str:000000000000d748 .LASF4646
C:\Users\SOLDER~1\AppData\Local\Temp\cc2EfhU3.s:25064  .debug_str:000000000001b943 .LASF4647
C:\Users\SOLDER~1\AppData\Local\Temp\cc2EfhU3.s:22170  .debug_str:000000000000fd62 .LASF4648
C:\Users\SOLDER~1\AppData\Local\Temp\cc2EfhU3.s:21428  .debug_str:000000000000ccbf .LASF4649
C:\Users\SOLDER~1\AppData\Local\Temp\cc2EfhU3.s:18748  .debug_str:0000000000001de4 .LASF4650
C:\Users\SOLDER~1\AppData\Local\Temp\cc2EfhU3.s:21458  .debug_str:000000000000ce95 .LASF4651
C:\Users\SOLDER~1\AppData\Local\Temp\cc2EfhU3.s:24702  .debug_str:000000000001a1c5 .LASF4652
C:\Users\SOLDER~1\AppData\Local\Temp\cc2EfhU3.s:26900  .debug_str:000000000002312a .LASF4653
C:\Users\SOLDER~1\AppData\Local\Temp\cc2EfhU3.s:23096  .debug_str:0000000000013967 .LASF4654
C:\Users\SOLDER~1\AppData\Local\Temp\cc2EfhU3.s:20314  .debug_str:0000000000008335 .LASF4655
C:\Users\SOLDER~1\AppData\Local\Temp\cc2EfhU3.s:25138  .debug_str:000000000001be0e .LASF4656
C:\Users\SOLDER~1\AppData\Local\Temp\cc2EfhU3.s:22140  .debug_str:000000000000fb40 .LASF4657
C:\Users\SOLDER~1\AppData\Local\Temp\cc2EfhU3.s:20700  .debug_str:0000000000009c5a .LASF4658
C:\Users\SOLDER~1\AppData\Local\Temp\cc2EfhU3.s:21402  .debug_str:000000000000caed .LASF4659
C:\Users\SOLDER~1\AppData\Local\Temp\cc2EfhU3.s:28502  .debug_str:0000000000029a6d .LASF4660
C:\Users\SOLDER~1\AppData\Local\Temp\cc2EfhU3.s:25294  .debug_str:000000000001c8b5 .LASF4661
C:\Users\SOLDER~1\AppData\Local\Temp\cc2EfhU3.s:24622  .debug_str:0000000000019cbb .LASF4662
C:\Users\SOLDER~1\AppData\Local\Temp\cc2EfhU3.s:18308  .debug_str:000000000000006c .LASF4663
C:\Users\SOLDER~1\AppData\Local\Temp\cc2EfhU3.s:22644  .debug_str:0000000000011bb6 .LASF4664
C:\Users\SOLDER~1\AppData\Local\Temp\cc2EfhU3.s:24486  .debug_str:0000000000019469 .LASF4665
C:\Users\SOLDER~1\AppData\Local\Temp\cc2EfhU3.s:29060  .debug_str:000000000002bf26 .LASF4666
C:\Users\SOLDER~1\AppData\Local\Temp\cc2EfhU3.s:18598  .debug_str:0000000000001413 .LASF4667
C:\Users\SOLDER~1\AppData\Local\Temp\cc2EfhU3.s:18392  .debug_str:00000000000005dd .LASF4668
C:\Users\SOLDER~1\AppData\Local\Temp\cc2EfhU3.s:19894  .debug_str:00000000000067d3 .LASF4669
C:\Users\SOLDER~1\AppData\Local\Temp\cc2EfhU3.s:21734  .debug_str:000000000000e0de .LASF4670
C:\Users\SOLDER~1\AppData\Local\Temp\cc2EfhU3.s:18728  .debug_str:0000000000001c87 .LASF4671
C:\Users\SOLDER~1\AppData\Local\Temp\cc2EfhU3.s:18634  .debug_str:0000000000001664 .LASF4672
C:\Users\SOLDER~1\AppData\Local\Temp\cc2EfhU3.s:25948  .debug_str:000000000001f3cb .LASF4673
C:\Users\SOLDER~1\AppData\Local\Temp\cc2EfhU3.s:23708  .debug_str:00000000000161e4 .LASF4674
C:\Users\SOLDER~1\AppData\Local\Temp\cc2EfhU3.s:19390  .debug_str:000000000000474a .LASF4675
C:\Users\SOLDER~1\AppData\Local\Temp\cc2EfhU3.s:22786  .debug_str:00000000000124ad .LASF4676
C:\Users\SOLDER~1\AppData\Local\Temp\cc2EfhU3.s:22116  .debug_str:000000000000f98c .LASF4677
C:\Users\SOLDER~1\AppData\Local\Temp\cc2EfhU3.s:20268  .debug_str:0000000000008034 .LASF4678
C:\Users\SOLDER~1\AppData\Local\Temp\cc2EfhU3.s:27206  .debug_str:0000000000024553 .LASF4679
C:\Users\SOLDER~1\AppData\Local\Temp\cc2EfhU3.s:23348  .debug_str:0000000000014acd .LASF4680
C:\Users\SOLDER~1\AppData\Local\Temp\cc2EfhU3.s:18982  .debug_str:0000000000002d38 .LASF4681
C:\Users\SOLDER~1\AppData\Local\Temp\cc2EfhU3.s:19900  .debug_str:000000000000685f .LASF4682
C:\Users\SOLDER~1\AppData\Local\Temp\cc2EfhU3.s:18694  .debug_str:0000000000001a3f .LASF4683
GAS LISTING C:\Users\SOLDER~1\AppData\Local\Temp\cc2EfhU3.s 			page 93


C:\Users\SOLDER~1\AppData\Local\Temp\cc2EfhU3.s:21298  .debug_str:000000000000c3d6 .LASF4684
C:\Users\SOLDER~1\AppData\Local\Temp\cc2EfhU3.s:28498  .debug_str:0000000000029a2f .LASF4685
C:\Users\SOLDER~1\AppData\Local\Temp\cc2EfhU3.s:27972  .debug_str:00000000000277f8 .LASF4686
C:\Users\SOLDER~1\AppData\Local\Temp\cc2EfhU3.s:25448  .debug_str:000000000001d331 .LASF4687
C:\Users\SOLDER~1\AppData\Local\Temp\cc2EfhU3.s:28036  .debug_str:0000000000027c4a .LASF4688
C:\Users\SOLDER~1\AppData\Local\Temp\cc2EfhU3.s:26036  .debug_str:000000000001f982 .LASF4689
C:\Users\SOLDER~1\AppData\Local\Temp\cc2EfhU3.s:27498  .debug_str:000000000002581f .LASF4690
C:\Users\SOLDER~1\AppData\Local\Temp\cc2EfhU3.s:18572  .debug_str:000000000000125c .LASF4691
C:\Users\SOLDER~1\AppData\Local\Temp\cc2EfhU3.s:25888  .debug_str:000000000001efc2 .LASF4692
C:\Users\SOLDER~1\AppData\Local\Temp\cc2EfhU3.s:26738  .debug_str:0000000000022681 .LASF4693
C:\Users\SOLDER~1\AppData\Local\Temp\cc2EfhU3.s:28298  .debug_str:0000000000028d42 .LASF4694
C:\Users\SOLDER~1\AppData\Local\Temp\cc2EfhU3.s:25488  .debug_str:000000000001d590 .LASF4695
C:\Users\SOLDER~1\AppData\Local\Temp\cc2EfhU3.s:18670  .debug_str:0000000000001898 .LASF4696
C:\Users\SOLDER~1\AppData\Local\Temp\cc2EfhU3.s:23334  .debug_str:00000000000149eb .LASF4697
C:\Users\SOLDER~1\AppData\Local\Temp\cc2EfhU3.s:20170  .debug_str:00000000000079c7 .LASF4698
C:\Users\SOLDER~1\AppData\Local\Temp\cc2EfhU3.s:28792  .debug_str:000000000002ad6b .LASF4699
C:\Users\SOLDER~1\AppData\Local\Temp\cc2EfhU3.s:25314  .debug_str:000000000001ca3c .LASF4700
C:\Users\SOLDER~1\AppData\Local\Temp\cc2EfhU3.s:20646  .debug_str:0000000000009922 .LASF4701
C:\Users\SOLDER~1\AppData\Local\Temp\cc2EfhU3.s:18972  .debug_str:0000000000002c8b .LASF4702
C:\Users\SOLDER~1\AppData\Local\Temp\cc2EfhU3.s:24484  .debug_str:000000000001944d .LASF4703
C:\Users\SOLDER~1\AppData\Local\Temp\cc2EfhU3.s:27210  .debug_str:0000000000024599 .LASF4704
C:\Users\SOLDER~1\AppData\Local\Temp\cc2EfhU3.s:24128  .debug_str:0000000000017cf8 .LASF4705
C:\Users\SOLDER~1\AppData\Local\Temp\cc2EfhU3.s:23634  .debug_str:0000000000015d34 .LASF4706
C:\Users\SOLDER~1\AppData\Local\Temp\cc2EfhU3.s:22564  .debug_str:0000000000011681 .LASF4707
C:\Users\SOLDER~1\AppData\Local\Temp\cc2EfhU3.s:21082  .debug_str:000000000000b5a8 .LASF4708
C:\Users\SOLDER~1\AppData\Local\Temp\cc2EfhU3.s:24202  .debug_str:00000000000181e9 .LASF4709
C:\Users\SOLDER~1\AppData\Local\Temp\cc2EfhU3.s:25200  .debug_str:000000000001c273 .LASF4710
C:\Users\SOLDER~1\AppData\Local\Temp\cc2EfhU3.s:26160  .debug_str:000000000002014d .LASF4711
C:\Users\SOLDER~1\AppData\Local\Temp\cc2EfhU3.s:24066  .debug_str:00000000000178e2 .LASF4712
C:\Users\SOLDER~1\AppData\Local\Temp\cc2EfhU3.s:24854  .debug_str:000000000001ac08 .LASF4713
C:\Users\SOLDER~1\AppData\Local\Temp\cc2EfhU3.s:22300  .debug_str:00000000000105ad .LASF4714
C:\Users\SOLDER~1\AppData\Local\Temp\cc2EfhU3.s:29668  .debug_str:000000000002e669 .LASF4715
C:\Users\SOLDER~1\AppData\Local\Temp\cc2EfhU3.s:28760  .debug_str:000000000002ab7d .LASF4716
C:\Users\SOLDER~1\AppData\Local\Temp\cc2EfhU3.s:27408  .debug_str:0000000000025242 .LASF4717
C:\Users\SOLDER~1\AppData\Local\Temp\cc2EfhU3.s:28286  .debug_str:0000000000028c8a .LASF4718
C:\Users\SOLDER~1\AppData\Local\Temp\cc2EfhU3.s:26732  .debug_str:000000000002261e .LASF4719
C:\Users\SOLDER~1\AppData\Local\Temp\cc2EfhU3.s:22688  .debug_str:0000000000011e85 .LASF4720
C:\Users\SOLDER~1\AppData\Local\Temp\cc2EfhU3.s:24412  .debug_str:0000000000018f94 .LASF4721
C:\Users\SOLDER~1\AppData\Local\Temp\cc2EfhU3.s:18488  .debug_str:0000000000000d1a .LASF4722
C:\Users\SOLDER~1\AppData\Local\Temp\cc2EfhU3.s:25834  .debug_str:000000000001ec1b .LASF4723
C:\Users\SOLDER~1\AppData\Local\Temp\cc2EfhU3.s:20578  .debug_str:00000000000094e0 .LASF4724
C:\Users\SOLDER~1\AppData\Local\Temp\cc2EfhU3.s:25880  .debug_str:000000000001ef3d .LASF4725
C:\Users\SOLDER~1\AppData\Local\Temp\cc2EfhU3.s:24504  .debug_str:00000000000195ac .LASF4726
C:\Users\SOLDER~1\AppData\Local\Temp\cc2EfhU3.s:28102  .debug_str:000000000002809f .LASF4727
C:\Users\SOLDER~1\AppData\Local\Temp\cc2EfhU3.s:20648  .debug_str:000000000000993d .LASF4728
C:\Users\SOLDER~1\AppData\Local\Temp\cc2EfhU3.s:27744  .debug_str:0000000000026939 .LASF4729
C:\Users\SOLDER~1\AppData\Local\Temp\cc2EfhU3.s:26718  .debug_str:0000000000022525 .LASF4730
C:\Users\SOLDER~1\AppData\Local\Temp\cc2EfhU3.s:29122  .debug_str:000000000002c314 .LASF4731
C:\Users\SOLDER~1\AppData\Local\Temp\cc2EfhU3.s:26936  .debug_str:0000000000023396 .LASF4732
C:\Users\SOLDER~1\AppData\Local\Temp\cc2EfhU3.s:27968  .debug_str:00000000000277b7 .LASF4733
C:\Users\SOLDER~1\AppData\Local\Temp\cc2EfhU3.s:28414  .debug_str:00000000000294fb .LASF4734
C:\Users\SOLDER~1\AppData\Local\Temp\cc2EfhU3.s:21056  .debug_str:000000000000b40e .LASF4735
C:\Users\SOLDER~1\AppData\Local\Temp\cc2EfhU3.s:19774  .debug_str:0000000000005f92 .LASF4736
C:\Users\SOLDER~1\AppData\Local\Temp\cc2EfhU3.s:19128  .debug_str:0000000000003695 .LASF4737
C:\Users\SOLDER~1\AppData\Local\Temp\cc2EfhU3.s:27892  .debug_str:00000000000272e6 .LASF4738
C:\Users\SOLDER~1\AppData\Local\Temp\cc2EfhU3.s:21644  .debug_str:000000000000da77 .LASF4739
C:\Users\SOLDER~1\AppData\Local\Temp\cc2EfhU3.s:19188  .debug_str:0000000000003a86 .LASF4740
GAS LISTING C:\Users\SOLDER~1\AppData\Local\Temp\cc2EfhU3.s 			page 94


C:\Users\SOLDER~1\AppData\Local\Temp\cc2EfhU3.s:19292  .debug_str:000000000000412d .LASF4741
C:\Users\SOLDER~1\AppData\Local\Temp\cc2EfhU3.s:26956  .debug_str:00000000000234ed .LASF4742
C:\Users\SOLDER~1\AppData\Local\Temp\cc2EfhU3.s:27294  .debug_str:0000000000024b1b .LASF4743
C:\Users\SOLDER~1\AppData\Local\Temp\cc2EfhU3.s:22920  .debug_str:0000000000012d67 .LASF4744
C:\Users\SOLDER~1\AppData\Local\Temp\cc2EfhU3.s:18726  .debug_str:0000000000001c61 .LASF4745
C:\Users\SOLDER~1\AppData\Local\Temp\cc2EfhU3.s:27480  .debug_str:00000000000256f5 .LASF4746
C:\Users\SOLDER~1\AppData\Local\Temp\cc2EfhU3.s:21580  .debug_str:000000000000d6c8 .LASF4747
C:\Users\SOLDER~1\AppData\Local\Temp\cc2EfhU3.s:18568  .debug_str:0000000000001226 .LASF4748
C:\Users\SOLDER~1\AppData\Local\Temp\cc2EfhU3.s:26930  .debug_str:0000000000023343 .LASF4749
C:\Users\SOLDER~1\AppData\Local\Temp\cc2EfhU3.s:28684  .debug_str:000000000002a67c .LASF4750
C:\Users\SOLDER~1\AppData\Local\Temp\cc2EfhU3.s:22014  .debug_str:000000000000f2ad .LASF4751
C:\Users\SOLDER~1\AppData\Local\Temp\cc2EfhU3.s:21204  .debug_str:000000000000bd5a .LASF4752
C:\Users\SOLDER~1\AppData\Local\Temp\cc2EfhU3.s:27364  .debug_str:0000000000024f6c .LASF4753
C:\Users\SOLDER~1\AppData\Local\Temp\cc2EfhU3.s:24374  .debug_str:0000000000018d2e .LASF4754
C:\Users\SOLDER~1\AppData\Local\Temp\cc2EfhU3.s:18454  .debug_str:0000000000000aa5 .LASF4755
C:\Users\SOLDER~1\AppData\Local\Temp\cc2EfhU3.s:29742  .debug_str:000000000002eb00 .LASF4756
C:\Users\SOLDER~1\AppData\Local\Temp\cc2EfhU3.s:26632  .debug_str:0000000000021fb6 .LASF4757
C:\Users\SOLDER~1\AppData\Local\Temp\cc2EfhU3.s:27102  .debug_str:0000000000023e50 .LASF4758
C:\Users\SOLDER~1\AppData\Local\Temp\cc2EfhU3.s:19554  .debug_str:0000000000005176 .LASF4759
C:\Users\SOLDER~1\AppData\Local\Temp\cc2EfhU3.s:22034  .debug_str:000000000000f410 .LASF4760
C:\Users\SOLDER~1\AppData\Local\Temp\cc2EfhU3.s:27360  .debug_str:0000000000024f36 .LASF4761
C:\Users\SOLDER~1\AppData\Local\Temp\cc2EfhU3.s:24370  .debug_str:0000000000018cee .LASF4762
C:\Users\SOLDER~1\AppData\Local\Temp\cc2EfhU3.s:21278  .debug_str:000000000000c26d .LASF4763
C:\Users\SOLDER~1\AppData\Local\Temp\cc2EfhU3.s:20564  .debug_str:00000000000093d2 .LASF4764
C:\Users\SOLDER~1\AppData\Local\Temp\cc2EfhU3.s:20490  .debug_str:0000000000008ecf .LASF4765
C:\Users\SOLDER~1\AppData\Local\Temp\cc2EfhU3.s:23648  .debug_str:0000000000015e19 .LASF4766
C:\Users\SOLDER~1\AppData\Local\Temp\cc2EfhU3.s:25908  .debug_str:000000000001f120 .LASF4767
C:\Users\SOLDER~1\AppData\Local\Temp\cc2EfhU3.s:22862  .debug_str:000000000001296a .LASF4768
C:\Users\SOLDER~1\AppData\Local\Temp\cc2EfhU3.s:29370  .debug_str:000000000002d326 .LASF4769
C:\Users\SOLDER~1\AppData\Local\Temp\cc2EfhU3.s:25970  .debug_str:000000000001f55a .LASF4770
C:\Users\SOLDER~1\AppData\Local\Temp\cc2EfhU3.s:22046  .debug_str:000000000000f4ca .LASF4771
C:\Users\SOLDER~1\AppData\Local\Temp\cc2EfhU3.s:21970  .debug_str:000000000000efeb .LASF4772
C:\Users\SOLDER~1\AppData\Local\Temp\cc2EfhU3.s:19088  .debug_str:000000000000342c .LASF4773
C:\Users\SOLDER~1\AppData\Local\Temp\cc2EfhU3.s:27492  .debug_str:00000000000257bf .LASF4774
C:\Users\SOLDER~1\AppData\Local\Temp\cc2EfhU3.s:18618  .debug_str:0000000000001571 .LASF4775
C:\Users\SOLDER~1\AppData\Local\Temp\cc2EfhU3.s:19212  .debug_str:0000000000003c0f .LASF4776
C:\Users\SOLDER~1\AppData\Local\Temp\cc2EfhU3.s:25682  .debug_str:000000000001e1e5 .LASF4777
C:\Users\SOLDER~1\AppData\Local\Temp\cc2EfhU3.s:19620  .debug_str:0000000000005563 .LASF4778
C:\Users\SOLDER~1\AppData\Local\Temp\cc2EfhU3.s:28768  .debug_str:000000000002abf4 .LASF4779
C:\Users\SOLDER~1\AppData\Local\Temp\cc2EfhU3.s:29032  .debug_str:000000000002bd2d .LASF4780
C:\Users\SOLDER~1\AppData\Local\Temp\cc2EfhU3.s:21808  .debug_str:000000000000e57c .LASF4781
C:\Users\SOLDER~1\AppData\Local\Temp\cc2EfhU3.s:25910  .debug_str:000000000001f13c .LASF4782
C:\Users\SOLDER~1\AppData\Local\Temp\cc2EfhU3.s:21706  .debug_str:000000000000deb8 .LASF4783
C:\Users\SOLDER~1\AppData\Local\Temp\cc2EfhU3.s:21118  .debug_str:000000000000b7d0 .LASF4784
C:\Users\SOLDER~1\AppData\Local\Temp\cc2EfhU3.s:26298  .debug_str:0000000000020a5f .LASF4785
C:\Users\SOLDER~1\AppData\Local\Temp\cc2EfhU3.s:18744  .debug_str:0000000000001db0 .LASF4786
C:\Users\SOLDER~1\AppData\Local\Temp\cc2EfhU3.s:24822  .debug_str:000000000001a99a .LASF4787
C:\Users\SOLDER~1\AppData\Local\Temp\cc2EfhU3.s:29658  .debug_str:000000000002e5a2 .LASF4788
C:\Users\SOLDER~1\AppData\Local\Temp\cc2EfhU3.s:20822  .debug_str:000000000000a4a1 .LASF4789
C:\Users\SOLDER~1\AppData\Local\Temp\cc2EfhU3.s:29684  .debug_str:000000000002e77b .LASF4790
C:\Users\SOLDER~1\AppData\Local\Temp\cc2EfhU3.s:19254  .debug_str:0000000000003ebe .LASF4791
C:\Users\SOLDER~1\AppData\Local\Temp\cc2EfhU3.s:27814  .debug_str:0000000000026dc7 .LASF4792
C:\Users\SOLDER~1\AppData\Local\Temp\cc2EfhU3.s:28028  .debug_str:0000000000027bcb .LASF4793
C:\Users\SOLDER~1\AppData\Local\Temp\cc2EfhU3.s:20394  .debug_str:0000000000008847 .LASF4794
C:\Users\SOLDER~1\AppData\Local\Temp\cc2EfhU3.s:20832  .debug_str:000000000000a552 .LASF4795
C:\Users\SOLDER~1\AppData\Local\Temp\cc2EfhU3.s:28702  .debug_str:000000000002a78b .LASF4796
C:\Users\SOLDER~1\AppData\Local\Temp\cc2EfhU3.s:23878  .debug_str:0000000000016c6a .LASF4797
GAS LISTING C:\Users\SOLDER~1\AppData\Local\Temp\cc2EfhU3.s 			page 95


C:\Users\SOLDER~1\AppData\Local\Temp\cc2EfhU3.s:19114  .debug_str:00000000000035a8 .LASF4798
C:\Users\SOLDER~1\AppData\Local\Temp\cc2EfhU3.s:21682  .debug_str:000000000000dd0b .LASF4799
C:\Users\SOLDER~1\AppData\Local\Temp\cc2EfhU3.s:22316  .debug_str:0000000000010679 .LASF4800
C:\Users\SOLDER~1\AppData\Local\Temp\cc2EfhU3.s:28374  .debug_str:0000000000029242 .LASF4801
C:\Users\SOLDER~1\AppData\Local\Temp\cc2EfhU3.s:19968  .debug_str:0000000000006c72 .LASF4802
C:\Users\SOLDER~1\AppData\Local\Temp\cc2EfhU3.s:26674  .debug_str:0000000000022229 .LASF4803
C:\Users\SOLDER~1\AppData\Local\Temp\cc2EfhU3.s:22128  .debug_str:000000000000fa57 .LASF4804
C:\Users\SOLDER~1\AppData\Local\Temp\cc2EfhU3.s:26282  .debug_str:0000000000020960 .LASF4805
C:\Users\SOLDER~1\AppData\Local\Temp\cc2EfhU3.s:29248  .debug_str:000000000002cb0e .LASF4806
C:\Users\SOLDER~1\AppData\Local\Temp\cc2EfhU3.s:19818  .debug_str:00000000000062a7 .LASF4807
C:\Users\SOLDER~1\AppData\Local\Temp\cc2EfhU3.s:27266  .debug_str:0000000000024961 .LASF4808
C:\Users\SOLDER~1\AppData\Local\Temp\cc2EfhU3.s:20520  .debug_str:00000000000090de .LASF4809
C:\Users\SOLDER~1\AppData\Local\Temp\cc2EfhU3.s:22144  .debug_str:000000000000fb9e .LASF4810
C:\Users\SOLDER~1\AppData\Local\Temp\cc2EfhU3.s:24968  .debug_str:000000000001b333 .LASF4811
C:\Users\SOLDER~1\AppData\Local\Temp\cc2EfhU3.s:29502  .debug_str:000000000002dba1 .LASF4812
C:\Users\SOLDER~1\AppData\Local\Temp\cc2EfhU3.s:29726  .debug_str:000000000002ea10 .LASF4813
C:\Users\SOLDER~1\AppData\Local\Temp\cc2EfhU3.s:20336  .debug_str:000000000000849b .LASF4814
C:\Users\SOLDER~1\AppData\Local\Temp\cc2EfhU3.s:22440  .debug_str:0000000000010e87 .LASF4815
C:\Users\SOLDER~1\AppData\Local\Temp\cc2EfhU3.s:21506  .debug_str:000000000000d1d6 .LASF4816
C:\Users\SOLDER~1\AppData\Local\Temp\cc2EfhU3.s:20462  .debug_str:0000000000008cce .LASF4817
C:\Users\SOLDER~1\AppData\Local\Temp\cc2EfhU3.s:19098  .debug_str:00000000000034c5 .LASF4818
C:\Users\SOLDER~1\AppData\Local\Temp\cc2EfhU3.s:18302  .debug_str:0000000000000000 .LASF4819
C:\Users\SOLDER~1\AppData\Local\Temp\cc2EfhU3.s:25778  .debug_str:000000000001e893 .LASF4820
C:\Users\SOLDER~1\AppData\Local\Temp\cc2EfhU3.s:26426  .debug_str:000000000002128f .LASF4821
C:\Users\SOLDER~1\AppData\Local\Temp\cc2EfhU3.s:29444  .debug_str:000000000002d7db .LASF4822
C:\Users\SOLDER~1\AppData\Local\Temp\cc2EfhU3.s:20496  .debug_str:0000000000008f2e .LASF4823
C:\Users\SOLDER~1\AppData\Local\Temp\cc2EfhU3.s:19696  .debug_str:0000000000005aa0 .LASF4824
C:\Users\SOLDER~1\AppData\Local\Temp\cc2EfhU3.s:18464  .debug_str:0000000000000b52 .LASF4825
C:\Users\SOLDER~1\AppData\Local\Temp\cc2EfhU3.s:26858  .debug_str:0000000000022e5d .LASF4826
C:\Users\SOLDER~1\AppData\Local\Temp\cc2EfhU3.s:21850  .debug_str:000000000000e870 .LASF4827
C:\Users\SOLDER~1\AppData\Local\Temp\cc2EfhU3.s:23896  .debug_str:0000000000016d9e .LASF4828
C:\Users\SOLDER~1\AppData\Local\Temp\cc2EfhU3.s:24016  .debug_str:00000000000175ab .LASF4829
C:\Users\SOLDER~1\AppData\Local\Temp\cc2EfhU3.s:18886  .debug_str:000000000000271a .LASF4830
C:\Users\SOLDER~1\AppData\Local\Temp\cc2EfhU3.s:23400  .debug_str:0000000000014e2f .LASF4831
C:\Users\SOLDER~1\AppData\Local\Temp\cc2EfhU3.s:28000  .debug_str:00000000000279bc .LASF4832
C:\Users\SOLDER~1\AppData\Local\Temp\cc2EfhU3.s:23584  .debug_str:0000000000015a1b .LASF4833
C:\Users\SOLDER~1\AppData\Local\Temp\cc2EfhU3.s:19112  .debug_str:0000000000003590 .LASF4834
C:\Users\SOLDER~1\AppData\Local\Temp\cc2EfhU3.s:25916  .debug_str:000000000001f1a6 .LASF4835
C:\Users\SOLDER~1\AppData\Local\Temp\cc2EfhU3.s:23254  .debug_str:000000000001447a .LASF4836
C:\Users\SOLDER~1\AppData\Local\Temp\cc2EfhU3.s:20372  .debug_str:00000000000086fc .LASF4837
C:\Users\SOLDER~1\AppData\Local\Temp\cc2EfhU3.s:21758  .debug_str:000000000000e27b .LASF4838
C:\Users\SOLDER~1\AppData\Local\Temp\cc2EfhU3.s:26600  .debug_str:0000000000021dbf .LASF4839
C:\Users\SOLDER~1\AppData\Local\Temp\cc2EfhU3.s:26346  .debug_str:0000000000020d6d .LASF4840
C:\Users\SOLDER~1\AppData\Local\Temp\cc2EfhU3.s:24794  .debug_str:000000000001a7e6 .LASF4841
C:\Users\SOLDER~1\AppData\Local\Temp\cc2EfhU3.s:23838  .debug_str:0000000000016a2d .LASF4842
C:\Users\SOLDER~1\AppData\Local\Temp\cc2EfhU3.s:19180  .debug_str:00000000000039fc .LASF4843
C:\Users\SOLDER~1\AppData\Local\Temp\cc2EfhU3.s:23868  .debug_str:0000000000016bda .LASF4844
C:\Users\SOLDER~1\AppData\Local\Temp\cc2EfhU3.s:28350  .debug_str:00000000000290a2 .LASF4845
C:\Users\SOLDER~1\AppData\Local\Temp\cc2EfhU3.s:21626  .debug_str:000000000000d989 .LASF4846
C:\Users\SOLDER~1\AppData\Local\Temp\cc2EfhU3.s:28134  .debug_str:00000000000282c7 .LASF4847
C:\Users\SOLDER~1\AppData\Local\Temp\cc2EfhU3.s:27768  .debug_str:0000000000026ab5 .LASF4848
C:\Users\SOLDER~1\AppData\Local\Temp\cc2EfhU3.s:23064  .debug_str:00000000000136ea .LASF4849
C:\Users\SOLDER~1\AppData\Local\Temp\cc2EfhU3.s:26182  .debug_str:00000000000202d5 .LASF4850
C:\Users\SOLDER~1\AppData\Local\Temp\cc2EfhU3.s:24770  .debug_str:000000000001a66f .LASF4851
C:\Users\SOLDER~1\AppData\Local\Temp\cc2EfhU3.s:26654  .debug_str:00000000000220d0 .LASF4852
C:\Users\SOLDER~1\AppData\Local\Temp\cc2EfhU3.s:19010  .debug_str:0000000000002f20 .LASF4853
C:\Users\SOLDER~1\AppData\Local\Temp\cc2EfhU3.s:22854  .debug_str:00000000000128ef .LASF4854
GAS LISTING C:\Users\SOLDER~1\AppData\Local\Temp\cc2EfhU3.s 			page 96


C:\Users\SOLDER~1\AppData\Local\Temp\cc2EfhU3.s:21766  .debug_str:000000000000e2fb .LASF4855
C:\Users\SOLDER~1\AppData\Local\Temp\cc2EfhU3.s:24978  .debug_str:000000000001b3bd .LASF4856
C:\Users\SOLDER~1\AppData\Local\Temp\cc2EfhU3.s:20300  .debug_str:0000000000008249 .LASF4857
C:\Users\SOLDER~1\AppData\Local\Temp\cc2EfhU3.s:20894  .debug_str:000000000000a993 .LASF4858
C:\Users\SOLDER~1\AppData\Local\Temp\cc2EfhU3.s:28710  .debug_str:000000000002a81b .LASF4859
C:\Users\SOLDER~1\AppData\Local\Temp\cc2EfhU3.s:19194  .debug_str:0000000000003af1 .LASF4860
C:\Users\SOLDER~1\AppData\Local\Temp\cc2EfhU3.s:27734  .debug_str:0000000000026885 .LASF4861
C:\Users\SOLDER~1\AppData\Local\Temp\cc2EfhU3.s:26442  .debug_str:00000000000213ac .LASF4862
C:\Users\SOLDER~1\AppData\Local\Temp\cc2EfhU3.s:19328  .debug_str:0000000000004355 .LASF4863
C:\Users\SOLDER~1\AppData\Local\Temp\cc2EfhU3.s:26754  .debug_str:000000000002279c .LASF4864
C:\Users\SOLDER~1\AppData\Local\Temp\cc2EfhU3.s:19162  .debug_str:00000000000038d0 .LASF4865
C:\Users\SOLDER~1\AppData\Local\Temp\cc2EfhU3.s:19350  .debug_str:00000000000044ba .LASF4866
C:\Users\SOLDER~1\AppData\Local\Temp\cc2EfhU3.s:21754  .debug_str:000000000000e22e .LASF4867
C:\Users\SOLDER~1\AppData\Local\Temp\cc2EfhU3.s:28004  .debug_str:00000000000279fc .LASF4868
C:\Users\SOLDER~1\AppData\Local\Temp\cc2EfhU3.s:19374  .debug_str:000000000000464c .LASF4869
C:\Users\SOLDER~1\AppData\Local\Temp\cc2EfhU3.s:18440  .debug_str:00000000000009ad .LASF4870
C:\Users\SOLDER~1\AppData\Local\Temp\cc2EfhU3.s:25860  .debug_str:000000000001edd1 .LASF4871
C:\Users\SOLDER~1\AppData\Local\Temp\cc2EfhU3.s:21110  .debug_str:000000000000b732 .LASF4872
C:\Users\SOLDER~1\AppData\Local\Temp\cc2EfhU3.s:27414  .debug_str:0000000000025284 .LASF4873
C:\Users\SOLDER~1\AppData\Local\Temp\cc2EfhU3.s:29404  .debug_str:000000000002d559 .LASF4874
C:\Users\SOLDER~1\AppData\Local\Temp\cc2EfhU3.s:18876  .debug_str:0000000000002652 .LASF4875
C:\Users\SOLDER~1\AppData\Local\Temp\cc2EfhU3.s:19370  .debug_str:00000000000045fc .LASF4876
C:\Users\SOLDER~1\AppData\Local\Temp\cc2EfhU3.s:26308  .debug_str:0000000000020ae1 .LASF4877
C:\Users\SOLDER~1\AppData\Local\Temp\cc2EfhU3.s:28468  .debug_str:000000000002981d .LASF4878
C:\Users\SOLDER~1\AppData\Local\Temp\cc2EfhU3.s:27988  .debug_str:00000000000278e9 .LASF4879
C:\Users\SOLDER~1\AppData\Local\Temp\cc2EfhU3.s:27808  .debug_str:0000000000026d54 .LASF4880
C:\Users\SOLDER~1\AppData\Local\Temp\cc2EfhU3.s:28492  .debug_str:00000000000299b8 .LASF4881
C:\Users\SOLDER~1\AppData\Local\Temp\cc2EfhU3.s:23248  .debug_str:0000000000014414 .LASF4882
C:\Users\SOLDER~1\AppData\Local\Temp\cc2EfhU3.s:28548  .debug_str:0000000000029d9c .LASF4883
C:\Users\SOLDER~1\AppData\Local\Temp\cc2EfhU3.s:26106  .debug_str:000000000001fddf .LASF4884
C:\Users\SOLDER~1\AppData\Local\Temp\cc2EfhU3.s:27180  .debug_str:0000000000024387 .LASF4885
C:\Users\SOLDER~1\AppData\Local\Temp\cc2EfhU3.s:22884  .debug_str:0000000000012aec .LASF4886
C:\Users\SOLDER~1\AppData\Local\Temp\cc2EfhU3.s:18756  .debug_str:0000000000001e61 .LASF4887
C:\Users\SOLDER~1\AppData\Local\Temp\cc2EfhU3.s:19570  .debug_str:0000000000005270 .LASF4888
C:\Users\SOLDER~1\AppData\Local\Temp\cc2EfhU3.s:26468  .debug_str:000000000002154f .LASF4889
C:\Users\SOLDER~1\AppData\Local\Temp\cc2EfhU3.s:27696  .debug_str:00000000000265ef .LASF4890
C:\Users\SOLDER~1\AppData\Local\Temp\cc2EfhU3.s:22446  .debug_str:0000000000010edc .LASF4891
C:\Users\SOLDER~1\AppData\Local\Temp\cc2EfhU3.s:25604  .debug_str:000000000001dd12 .LASF4892
C:\Users\SOLDER~1\AppData\Local\Temp\cc2EfhU3.s:24932  .debug_str:000000000001b0c7 .LASF4893
C:\Users\SOLDER~1\AppData\Local\Temp\cc2EfhU3.s:22324  .debug_str:0000000000010712 .LASF4894
C:\Users\SOLDER~1\AppData\Local\Temp\cc2EfhU3.s:29212  .debug_str:000000000002c8bb .LASF4895
C:\Users\SOLDER~1\AppData\Local\Temp\cc2EfhU3.s:27524  .debug_str:00000000000259f7 .LASF4896
C:\Users\SOLDER~1\AppData\Local\Temp\cc2EfhU3.s:21640  .debug_str:000000000000da3c .LASF4897
C:\Users\SOLDER~1\AppData\Local\Temp\cc2EfhU3.s:29466  .debug_str:000000000002d955 .LASF4898
C:\Users\SOLDER~1\AppData\Local\Temp\cc2EfhU3.s:20058  .debug_str:00000000000072a7 .LASF4899
C:\Users\SOLDER~1\AppData\Local\Temp\cc2EfhU3.s:24372  .debug_str:0000000000018d0b .LASF4900
C:\Users\SOLDER~1\AppData\Local\Temp\cc2EfhU3.s:21372  .debug_str:000000000000c8fd .LASF4901
C:\Users\SOLDER~1\AppData\Local\Temp\cc2EfhU3.s:27512  .debug_str:0000000000025920 .LASF4902
C:\Users\SOLDER~1\AppData\Local\Temp\cc2EfhU3.s:27894  .debug_str:0000000000027306 .LASF4903
C:\Users\SOLDER~1\AppData\Local\Temp\cc2EfhU3.s:25522  .debug_str:000000000001d775 .LASF4904
C:\Users\SOLDER~1\AppData\Local\Temp\cc2EfhU3.s:25982  .debug_str:000000000001f616 .LASF4905
C:\Users\SOLDER~1\AppData\Local\Temp\cc2EfhU3.s:26134  .debug_str:000000000001ff9b .LASF4906
C:\Users\SOLDER~1\AppData\Local\Temp\cc2EfhU3.s:27288  .debug_str:0000000000024ab9 .LASF4907
C:\Users\SOLDER~1\AppData\Local\Temp\cc2EfhU3.s:26658  .debug_str:0000000000022116 .LASF4908
C:\Users\SOLDER~1\AppData\Local\Temp\cc2EfhU3.s:20164  .debug_str:0000000000007955 .LASF4909
C:\Users\SOLDER~1\AppData\Local\Temp\cc2EfhU3.s:21380  .debug_str:000000000000c98a .LASF4910
C:\Users\SOLDER~1\AppData\Local\Temp\cc2EfhU3.s:23618  .debug_str:0000000000015c39 .LASF4911
GAS LISTING C:\Users\SOLDER~1\AppData\Local\Temp\cc2EfhU3.s 			page 97


C:\Users\SOLDER~1\AppData\Local\Temp\cc2EfhU3.s:27228  .debug_str:00000000000246cd .LASF4912
C:\Users\SOLDER~1\AppData\Local\Temp\cc2EfhU3.s:28104  .debug_str:00000000000280bb .LASF4913
C:\Users\SOLDER~1\AppData\Local\Temp\cc2EfhU3.s:22526  .debug_str:000000000001142e .LASF4914
C:\Users\SOLDER~1\AppData\Local\Temp\cc2EfhU3.s:18478  .debug_str:0000000000000c63 .LASF4915
C:\Users\SOLDER~1\AppData\Local\Temp\cc2EfhU3.s:24804  .debug_str:000000000001a86f .LASF4916
C:\Users\SOLDER~1\AppData\Local\Temp\cc2EfhU3.s:27046  .debug_str:0000000000023aa3 .LASF4917
C:\Users\SOLDER~1\AppData\Local\Temp\cc2EfhU3.s:27324  .debug_str:0000000000024d03 .LASF4918
C:\Users\SOLDER~1\AppData\Local\Temp\cc2EfhU3.s:23396  .debug_str:0000000000014de7 .LASF4919
C:\Users\SOLDER~1\AppData\Local\Temp\cc2EfhU3.s:27472  .debug_str:0000000000025653 .LASF4920
C:\Users\SOLDER~1\AppData\Local\Temp\cc2EfhU3.s:28288  .debug_str:0000000000028ca6 .LASF4921
C:\Users\SOLDER~1\AppData\Local\Temp\cc2EfhU3.s:20386  .debug_str:00000000000087d4 .LASF4922
C:\Users\SOLDER~1\AppData\Local\Temp\cc2EfhU3.s:19290  .debug_str:000000000000410a .LASF4923
C:\Users\SOLDER~1\AppData\Local\Temp\cc2EfhU3.s:24946  .debug_str:000000000001b1b9 .LASF4924
C:\Users\SOLDER~1\AppData\Local\Temp\cc2EfhU3.s:26104  .debug_str:000000000001fdbc .LASF4925
C:\Users\SOLDER~1\AppData\Local\Temp\cc2EfhU3.s:22682  .debug_str:0000000000011e1d .LASF4926
C:\Users\SOLDER~1\AppData\Local\Temp\cc2EfhU3.s:29626  .debug_str:000000000002e380 .LASF4927
C:\Users\SOLDER~1\AppData\Local\Temp\cc2EfhU3.s:21804  .debug_str:000000000000e53f .LASF4928
C:\Users\SOLDER~1\AppData\Local\Temp\cc2EfhU3.s:28494  .debug_str:00000000000299e7 .LASF4929
C:\Users\SOLDER~1\AppData\Local\Temp\cc2EfhU3.s:29304  .debug_str:000000000002cf0c .LASF4930
C:\Users\SOLDER~1\AppData\Local\Temp\cc2EfhU3.s:25364  .debug_str:000000000001cd81 .LASF4931
C:\Users\SOLDER~1\AppData\Local\Temp\cc2EfhU3.s:28784  .debug_str:000000000002acd4 .LASF4932
C:\Users\SOLDER~1\AppData\Local\Temp\cc2EfhU3.s:25446  .debug_str:000000000001d30c .LASF4933
C:\Users\SOLDER~1\AppData\Local\Temp\cc2EfhU3.s:26080  .debug_str:000000000001fc31 .LASF4934
C:\Users\SOLDER~1\AppData\Local\Temp\cc2EfhU3.s:24384  .debug_str:0000000000018dd4 .LASF4935
C:\Users\SOLDER~1\AppData\Local\Temp\cc2EfhU3.s:20172  .debug_str:00000000000079e2 .LASF4936
C:\Users\SOLDER~1\AppData\Local\Temp\cc2EfhU3.s:22512  .debug_str:000000000001131a .LASF4937
C:\Users\SOLDER~1\AppData\Local\Temp\cc2EfhU3.s:22720  .debug_str:000000000001207d .LASF4938
C:\Users\SOLDER~1\AppData\Local\Temp\cc2EfhU3.s:23752  .debug_str:00000000000164b2 .LASF4939
C:\Users\SOLDER~1\AppData\Local\Temp\cc2EfhU3.s:25716  .debug_str:000000000001e426 .LASF4940
C:\Users\SOLDER~1\AppData\Local\Temp\cc2EfhU3.s:27344  .debug_str:0000000000024e4f .LASF4941
C:\Users\SOLDER~1\AppData\Local\Temp\cc2EfhU3.s:26776  .debug_str:0000000000022932 .LASF4942
C:\Users\SOLDER~1\AppData\Local\Temp\cc2EfhU3.s:26212  .debug_str:00000000000204c2 .LASF4943
C:\Users\SOLDER~1\AppData\Local\Temp\cc2EfhU3.s:26502  .debug_str:000000000002177f .LASF4944
C:\Users\SOLDER~1\AppData\Local\Temp\cc2EfhU3.s:21826  .debug_str:000000000000e6b9 .LASF4945
C:\Users\SOLDER~1\AppData\Local\Temp\cc2EfhU3.s:22878  .debug_str:0000000000012a69 .LASF4946
C:\Users\SOLDER~1\AppData\Local\Temp\cc2EfhU3.s:22756  .debug_str:00000000000122b4 .LASF4947
C:\Users\SOLDER~1\AppData\Local\Temp\cc2EfhU3.s:21500  .debug_str:000000000000d16a .LASF4948
C:\Users\SOLDER~1\AppData\Local\Temp\cc2EfhU3.s:28204  .debug_str:0000000000028754 .LASF4949
C:\Users\SOLDER~1\AppData\Local\Temp\cc2EfhU3.s:18838  .debug_str:00000000000023fb .LASF4950
C:\Users\SOLDER~1\AppData\Local\Temp\cc2EfhU3.s:28074  .debug_str:0000000000027eda .LASF4951
C:\Users\SOLDER~1\AppData\Local\Temp\cc2EfhU3.s:23468  .debug_str:0000000000015293 .LASF4952
C:\Users\SOLDER~1\AppData\Local\Temp\cc2EfhU3.s:21114  .debug_str:000000000000b784 .LASF4953
C:\Users\SOLDER~1\AppData\Local\Temp\cc2EfhU3.s:22220  .debug_str:000000000001006b .LASF4954
C:\Users\SOLDER~1\AppData\Local\Temp\cc2EfhU3.s:29358  .debug_str:000000000002d286 .LASF4955
C:\Users\SOLDER~1\AppData\Local\Temp\cc2EfhU3.s:23424  .debug_str:0000000000014fb1 .LASF4956
C:\Users\SOLDER~1\AppData\Local\Temp\cc2EfhU3.s:19830  .debug_str:0000000000006387 .LASF4957
C:\Users\SOLDER~1\AppData\Local\Temp\cc2EfhU3.s:25506  .debug_str:000000000001d6aa .LASF4958
C:\Users\SOLDER~1\AppData\Local\Temp\cc2EfhU3.s:20694  .debug_str:0000000000009c01 .LASF4959
C:\Users\SOLDER~1\AppData\Local\Temp\cc2EfhU3.s:24734  .debug_str:000000000001a3df .LASF4960
C:\Users\SOLDER~1\AppData\Local\Temp\cc2EfhU3.s:22254  .debug_str:00000000000102b6 .LASF4961
C:\Users\SOLDER~1\AppData\Local\Temp\cc2EfhU3.s:20684  .debug_str:0000000000009b5b .LASF4962
C:\Users\SOLDER~1\AppData\Local\Temp\cc2EfhU3.s:23726  .debug_str:000000000001631c .LASF4963
C:\Users\SOLDER~1\AppData\Local\Temp\cc2EfhU3.s:21016  .debug_str:000000000000b13a .LASF4964
C:\Users\SOLDER~1\AppData\Local\Temp\cc2EfhU3.s:18650  .debug_str:0000000000001786 .LASF4965
C:\Users\SOLDER~1\AppData\Local\Temp\cc2EfhU3.s:27916  .debug_str:0000000000027470 .LASF4966
C:\Users\SOLDER~1\AppData\Local\Temp\cc2EfhU3.s:21222  .debug_str:000000000000be97 .LASF4967
C:\Users\SOLDER~1\AppData\Local\Temp\cc2EfhU3.s:27326  .debug_str:0000000000024d26 .LASF4968
GAS LISTING C:\Users\SOLDER~1\AppData\Local\Temp\cc2EfhU3.s 			page 98


C:\Users\SOLDER~1\AppData\Local\Temp\cc2EfhU3.s:24330  .debug_str:0000000000018a15 .LASF4969
C:\Users\SOLDER~1\AppData\Local\Temp\cc2EfhU3.s:24782  .debug_str:000000000001a732 .LASF4970
C:\Users\SOLDER~1\AppData\Local\Temp\cc2EfhU3.s:19364  .debug_str:00000000000045a1 .LASF4971
C:\Users\SOLDER~1\AppData\Local\Temp\cc2EfhU3.s:25942  .debug_str:000000000001f369 .LASF4972
C:\Users\SOLDER~1\AppData\Local\Temp\cc2EfhU3.s:22634  .debug_str:0000000000011b1b .LASF4973
C:\Users\SOLDER~1\AppData\Local\Temp\cc2EfhU3.s:18602  .debug_str:000000000000145d .LASF4974
C:\Users\SOLDER~1\AppData\Local\Temp\cc2EfhU3.s:19164  .debug_str:00000000000038f8 .LASF4975
C:\Users\SOLDER~1\AppData\Local\Temp\cc2EfhU3.s:22456  .debug_str:0000000000010f92 .LASF4976
C:\Users\SOLDER~1\AppData\Local\Temp\cc2EfhU3.s:18934  .debug_str:0000000000002a54 .LASF4977
C:\Users\SOLDER~1\AppData\Local\Temp\cc2EfhU3.s:21864  .debug_str:000000000000e951 .LASF4978
C:\Users\SOLDER~1\AppData\Local\Temp\cc2EfhU3.s:25244  .debug_str:000000000001c566 .LASF4979
C:\Users\SOLDER~1\AppData\Local\Temp\cc2EfhU3.s:29752  .debug_str:000000000002eba8 .LASF4980
C:\Users\SOLDER~1\AppData\Local\Temp\cc2EfhU3.s:29702  .debug_str:000000000002e8aa .LASF4981
C:\Users\SOLDER~1\AppData\Local\Temp\cc2EfhU3.s:28640  .debug_str:000000000002a3cf .LASF4982
C:\Users\SOLDER~1\AppData\Local\Temp\cc2EfhU3.s:25960  .debug_str:000000000001f4c1 .LASF4983
C:\Users\SOLDER~1\AppData\Local\Temp\cc2EfhU3.s:20574  .debug_str:000000000000949a .LASF4984
C:\Users\SOLDER~1\AppData\Local\Temp\cc2EfhU3.s:26266  .debug_str:0000000000020845 .LASF4985
C:\Users\SOLDER~1\AppData\Local\Temp\cc2EfhU3.s:26768  .debug_str:000000000002289a .LASF4986
C:\Users\SOLDER~1\AppData\Local\Temp\cc2EfhU3.s:28396  .debug_str:00000000000293cf .LASF4987
C:\Users\SOLDER~1\AppData\Local\Temp\cc2EfhU3.s:22976  .debug_str:00000000000130f4 .LASF4988
C:\Users\SOLDER~1\AppData\Local\Temp\cc2EfhU3.s:24072  .debug_str:0000000000017940 .LASF4989
C:\Users\SOLDER~1\AppData\Local\Temp\cc2EfhU3.s:19030  .debug_str:0000000000003045 .LASF4990
C:\Users\SOLDER~1\AppData\Local\Temp\cc2EfhU3.s:26794  .debug_str:0000000000022a61 .LASF4991
C:\Users\SOLDER~1\AppData\Local\Temp\cc2EfhU3.s:28734  .debug_str:000000000002a9c5 .LASF4992
C:\Users\SOLDER~1\AppData\Local\Temp\cc2EfhU3.s:27088  .debug_str:0000000000023d66 .LASF4993
C:\Users\SOLDER~1\AppData\Local\Temp\cc2EfhU3.s:22686  .debug_str:0000000000011e57 .LASF4994
C:\Users\SOLDER~1\AppData\Local\Temp\cc2EfhU3.s:27150  .debug_str:0000000000024185 .LASF4995
C:\Users\SOLDER~1\AppData\Local\Temp\cc2EfhU3.s:28900  .debug_str:000000000002b48d .LASF4996
C:\Users\SOLDER~1\AppData\Local\Temp\cc2EfhU3.s:23142  .debug_str:0000000000013cbd .LASF4997
C:\Users\SOLDER~1\AppData\Local\Temp\cc2EfhU3.s:20764  .debug_str:000000000000a0cc .LASF4998
C:\Users\SOLDER~1\AppData\Local\Temp\cc2EfhU3.s:27900  .debug_str:0000000000027360 .LASF4999
C:\Users\SOLDER~1\AppData\Local\Temp\cc2EfhU3.s:27476  .debug_str:00000000000256a9 .LASF5000
C:\Users\SOLDER~1\AppData\Local\Temp\cc2EfhU3.s:26728  .debug_str:00000000000225d0 .LASF5001
C:\Users\SOLDER~1\AppData\Local\Temp\cc2EfhU3.s:25168  .debug_str:000000000001c030 .LASF5002
C:\Users\SOLDER~1\AppData\Local\Temp\cc2EfhU3.s:22166  .debug_str:000000000000fd0f .LASF5003
C:\Users\SOLDER~1\AppData\Local\Temp\cc2EfhU3.s:26914  .debug_str:0000000000023224 .LASF5004
C:\Users\SOLDER~1\AppData\Local\Temp\cc2EfhU3.s:28006  .debug_str:0000000000027a24 .LASF5005
C:\Users\SOLDER~1\AppData\Local\Temp\cc2EfhU3.s:25746  .debug_str:000000000001e64a .LASF5006
C:\Users\SOLDER~1\AppData\Local\Temp\cc2EfhU3.s:24020  .debug_str:00000000000175f2 .LASF5007
C:\Users\SOLDER~1\AppData\Local\Temp\cc2EfhU3.s:23630  .debug_str:0000000000015cec .LASF5008
C:\Users\SOLDER~1\AppData\Local\Temp\cc2EfhU3.s:27220  .debug_str:0000000000024628 .LASF5009
C:\Users\SOLDER~1\AppData\Local\Temp\cc2EfhU3.s:28080  .debug_str:0000000000027f43 .LASF5010
C:\Users\SOLDER~1\AppData\Local\Temp\cc2EfhU3.s:23208  .debug_str:0000000000014145 .LASF5011
C:\Users\SOLDER~1\AppData\Local\Temp\cc2EfhU3.s:28114  .debug_str:0000000000028165 .LASF5012
C:\Users\SOLDER~1\AppData\Local\Temp\cc2EfhU3.s:28456  .debug_str:0000000000029767 .LASF5013
C:\Users\SOLDER~1\AppData\Local\Temp\cc2EfhU3.s:23170  .debug_str:0000000000013ea6 .LASF5014
C:\Users\SOLDER~1\AppData\Local\Temp\cc2EfhU3.s:27092  .debug_str:0000000000023db9 .LASF5015
C:\Users\SOLDER~1\AppData\Local\Temp\cc2EfhU3.s:23250  .debug_str:0000000000014447 .LASF5016
C:\Users\SOLDER~1\AppData\Local\Temp\cc2EfhU3.s:23910  .debug_str:0000000000016e91 .LASF5017
C:\Users\SOLDER~1\AppData\Local\Temp\cc2EfhU3.s:23506  .debug_str:0000000000015530 .LASF5018
C:\Users\SOLDER~1\AppData\Local\Temp\cc2EfhU3.s:24570  .debug_str:0000000000019999 .LASF5019
C:\Users\SOLDER~1\AppData\Local\Temp\cc2EfhU3.s:21350  .debug_str:000000000000c769 .LASF5020
C:\Users\SOLDER~1\AppData\Local\Temp\cc2EfhU3.s:27834  .debug_str:0000000000026eff .LASF5021
C:\Users\SOLDER~1\AppData\Local\Temp\cc2EfhU3.s:28860  .debug_str:000000000002b1f3 .LASF5022
C:\Users\SOLDER~1\AppData\Local\Temp\cc2EfhU3.s:26154  .debug_str:00000000000200e4 .LASF5023
C:\Users\SOLDER~1\AppData\Local\Temp\cc2EfhU3.s:22968  .debug_str:0000000000013057 .LASF5024
C:\Users\SOLDER~1\AppData\Local\Temp\cc2EfhU3.s:22678  .debug_str:0000000000011dce .LASF5025
GAS LISTING C:\Users\SOLDER~1\AppData\Local\Temp\cc2EfhU3.s 			page 99


C:\Users\SOLDER~1\AppData\Local\Temp\cc2EfhU3.s:26146  .debug_str:000000000002005f .LASF5026
C:\Users\SOLDER~1\AppData\Local\Temp\cc2EfhU3.s:23312  .debug_str:0000000000014847 .LASF5027
C:\Users\SOLDER~1\AppData\Local\Temp\cc2EfhU3.s:24856  .debug_str:000000000001ac24 .LASF5028
C:\Users\SOLDER~1\AppData\Local\Temp\cc2EfhU3.s:22200  .debug_str:000000000000ff4e .LASF5029
C:\Users\SOLDER~1\AppData\Local\Temp\cc2EfhU3.s:27728  .debug_str:0000000000026810 .LASF5030
C:\Users\SOLDER~1\AppData\Local\Temp\cc2EfhU3.s:25952  .debug_str:000000000001f43f .LASF5031
C:\Users\SOLDER~1\AppData\Local\Temp\cc2EfhU3.s:18830  .debug_str:0000000000002361 .LASF5032
C:\Users\SOLDER~1\AppData\Local\Temp\cc2EfhU3.s:18590  .debug_str:000000000000138e .LASF5033
C:\Users\SOLDER~1\AppData\Local\Temp\cc2EfhU3.s:19674  .debug_str:0000000000005932 .LASF5034
C:\Users\SOLDER~1\AppData\Local\Temp\cc2EfhU3.s:22218  .debug_str:000000000001004d .LASF5035
C:\Users\SOLDER~1\AppData\Local\Temp\cc2EfhU3.s:22736  .debug_str:0000000000012188 .LASF5036
C:\Users\SOLDER~1\AppData\Local\Temp\cc2EfhU3.s:28228  .debug_str:00000000000288eb .LASF5037
C:\Users\SOLDER~1\AppData\Local\Temp\cc2EfhU3.s:25016  .debug_str:000000000001b620 .LASF5038
C:\Users\SOLDER~1\AppData\Local\Temp\cc2EfhU3.s:22990  .debug_str:0000000000013206 .LASF5039
C:\Users\SOLDER~1\AppData\Local\Temp\cc2EfhU3.s:26476  .debug_str:00000000000215bc .LASF5040
C:\Users\SOLDER~1\AppData\Local\Temp\cc2EfhU3.s:24232  .debug_str:00000000000183ae .LASF5041
C:\Users\SOLDER~1\AppData\Local\Temp\cc2EfhU3.s:25988  .debug_str:000000000001f688 .LASF5042
C:\Users\SOLDER~1\AppData\Local\Temp\cc2EfhU3.s:24282  .debug_str:00000000000186fa .LASF5043
C:\Users\SOLDER~1\AppData\Local\Temp\cc2EfhU3.s:23036  .debug_str:0000000000013528 .LASF5044
C:\Users\SOLDER~1\AppData\Local\Temp\cc2EfhU3.s:20580  .debug_str:00000000000094fc .LASF5045
C:\Users\SOLDER~1\AppData\Local\Temp\cc2EfhU3.s:27034  .debug_str:00000000000239dd .LASF5046
C:\Users\SOLDER~1\AppData\Local\Temp\cc2EfhU3.s:28178  .debug_str:00000000000285b0 .LASF5047
C:\Users\SOLDER~1\AppData\Local\Temp\cc2EfhU3.s:26388  .debug_str:0000000000021058 .LASF5048
C:\Users\SOLDER~1\AppData\Local\Temp\cc2EfhU3.s:26386  .debug_str:0000000000021039 .LASF5049
C:\Users\SOLDER~1\AppData\Local\Temp\cc2EfhU3.s:18492  .debug_str:0000000000000d74 .LASF5050
C:\Users\SOLDER~1\AppData\Local\Temp\cc2EfhU3.s:29758  .debug_str:000000000002ec01 .LASF5051
C:\Users\SOLDER~1\AppData\Local\Temp\cc2EfhU3.s:25348  .debug_str:000000000001cc81 .LASF5052
C:\Users\SOLDER~1\AppData\Local\Temp\cc2EfhU3.s:20712  .debug_str:0000000000009d43 .LASF5053
C:\Users\SOLDER~1\AppData\Local\Temp\cc2EfhU3.s:23002  .debug_str:00000000000132b4 .LASF5054
C:\Users\SOLDER~1\AppData\Local\Temp\cc2EfhU3.s:28984  .debug_str:000000000002b9f0 .LASF5055
C:\Users\SOLDER~1\AppData\Local\Temp\cc2EfhU3.s:20756  .debug_str:000000000000a032 .LASF5056
C:\Users\SOLDER~1\AppData\Local\Temp\cc2EfhU3.s:22652  .debug_str:0000000000011c50 .LASF5057
C:\Users\SOLDER~1\AppData\Local\Temp\cc2EfhU3.s:28524  .debug_str:0000000000029c0f .LASF5058
C:\Users\SOLDER~1\AppData\Local\Temp\cc2EfhU3.s:23144  .debug_str:0000000000013ceb .LASF5059
C:\Users\SOLDER~1\AppData\Local\Temp\cc2EfhU3.s:18678  .debug_str:0000000000001912 .LASF5060
C:\Users\SOLDER~1\AppData\Local\Temp\cc2EfhU3.s:23798  .debug_str:000000000001678b .LASF5061
C:\Users\SOLDER~1\AppData\Local\Temp\cc2EfhU3.s:21714  .debug_str:000000000000df3c .LASF5062
C:\Users\SOLDER~1\AppData\Local\Temp\cc2EfhU3.s:21010  .debug_str:000000000000b0cf .LASF5063
C:\Users\SOLDER~1\AppData\Local\Temp\cc2EfhU3.s:21354  .debug_str:000000000000c7ae .LASF5064
C:\Users\SOLDER~1\AppData\Local\Temp\cc2EfhU3.s:18432  .debug_str:0000000000000922 .LASF5065
C:\Users\SOLDER~1\AppData\Local\Temp\cc2EfhU3.s:27230  .debug_str:00000000000246f0 .LASF5066
C:\Users\SOLDER~1\AppData\Local\Temp\cc2EfhU3.s:18996  .debug_str:0000000000002e1f .LASF5067
C:\Users\SOLDER~1\AppData\Local\Temp\cc2EfhU3.s:20896  .debug_str:000000000000a9c4 .LASF5068
C:\Users\SOLDER~1\AppData\Local\Temp\cc2EfhU3.s:20216  .debug_str:0000000000007cba .LASF5069
C:\Users\SOLDER~1\AppData\Local\Temp\cc2EfhU3.s:22534  .debug_str:00000000000114ca .LASF5070
C:\Users\SOLDER~1\AppData\Local\Temp\cc2EfhU3.s:25032  .debug_str:000000000001b6f4 .LASF5071
C:\Users\SOLDER~1\AppData\Local\Temp\cc2EfhU3.s:21160  .debug_str:000000000000ba9c .LASF5072
C:\Users\SOLDER~1\AppData\Local\Temp\cc2EfhU3.s:23072  .debug_str:0000000000013780 .LASF5073
C:\Users\SOLDER~1\AppData\Local\Temp\cc2EfhU3.s:20460  .debug_str:0000000000008ca8 .LASF5074
C:\Users\SOLDER~1\AppData\Local\Temp\cc2EfhU3.s:28068  .debug_str:0000000000027e67 .LASF5075
C:\Users\SOLDER~1\AppData\Local\Temp\cc2EfhU3.s:22632  .debug_str:0000000000011aec .LASF5076
C:\Users\SOLDER~1\AppData\Local\Temp\cc2EfhU3.s:20072  .debug_str:000000000000738a .LASF5077
C:\Users\SOLDER~1\AppData\Local\Temp\cc2EfhU3.s:18724  .debug_str:0000000000001c3a .LASF5078
C:\Users\SOLDER~1\AppData\Local\Temp\cc2EfhU3.s:26798  .debug_str:0000000000022a9c .LASF5079
C:\Users\SOLDER~1\AppData\Local\Temp\cc2EfhU3.s:22588  .debug_str:0000000000011818 .LASF5080
C:\Users\SOLDER~1\AppData\Local\Temp\cc2EfhU3.s:20544  .debug_str:0000000000009273 .LASF5081
C:\Users\SOLDER~1\AppData\Local\Temp\cc2EfhU3.s:20272  .debug_str:000000000000806c .LASF5082
GAS LISTING C:\Users\SOLDER~1\AppData\Local\Temp\cc2EfhU3.s 			page 100


C:\Users\SOLDER~1\AppData\Local\Temp\cc2EfhU3.s:25414  .debug_str:000000000001d0df .LASF5083
C:\Users\SOLDER~1\AppData\Local\Temp\cc2EfhU3.s:27640  .debug_str:000000000002622c .LASF5084
C:\Users\SOLDER~1\AppData\Local\Temp\cc2EfhU3.s:29678  .debug_str:000000000002e70b .LASF5085
C:\Users\SOLDER~1\AppData\Local\Temp\cc2EfhU3.s:21060  .debug_str:000000000000b446 .LASF5086
C:\Users\SOLDER~1\AppData\Local\Temp\cc2EfhU3.s:20714  .debug_str:0000000000009d6a .LASF5087
C:\Users\SOLDER~1\AppData\Local\Temp\cc2EfhU3.s:20434  .debug_str:0000000000008aeb .LASF5088
C:\Users\SOLDER~1\AppData\Local\Temp\cc2EfhU3.s:27016  .debug_str:000000000002389e .LASF5089
C:\Users\SOLDER~1\AppData\Local\Temp\cc2EfhU3.s:20710  .debug_str:0000000000009d16 .LASF5090
C:\Users\SOLDER~1\AppData\Local\Temp\cc2EfhU3.s:24914  .debug_str:000000000001afa0 .LASF5091
C:\Users\SOLDER~1\AppData\Local\Temp\cc2EfhU3.s:21164  .debug_str:000000000000baeb .LASF5092
C:\Users\SOLDER~1\AppData\Local\Temp\cc2EfhU3.s:20526  .debug_str:000000000000915d .LASF5093
C:\Users\SOLDER~1\AppData\Local\Temp\cc2EfhU3.s:28050  .debug_str:0000000000027d2a .LASF5094
C:\Users\SOLDER~1\AppData\Local\Temp\cc2EfhU3.s:23268  .debug_str:000000000001456c .LASF5095
C:\Users\SOLDER~1\AppData\Local\Temp\cc2EfhU3.s:28194  .debug_str:00000000000286cc .LASF5096
C:\Users\SOLDER~1\AppData\Local\Temp\cc2EfhU3.s:24936  .debug_str:000000000001b10d .LASF5097
C:\Users\SOLDER~1\AppData\Local\Temp\cc2EfhU3.s:20274  .debug_str:000000000000809a .LASF5098
C:\Users\SOLDER~1\AppData\Local\Temp\cc2EfhU3.s:20864  .debug_str:000000000000a788 .LASF5099
C:\Users\SOLDER~1\AppData\Local\Temp\cc2EfhU3.s:18486  .debug_str:0000000000000cf5 .LASF5100
C:\Users\SOLDER~1\AppData\Local\Temp\cc2EfhU3.s:25034  .debug_str:000000000001b723 .LASF5101
C:\Users\SOLDER~1\AppData\Local\Temp\cc2EfhU3.s:27098  .debug_str:0000000000023e09 .LASF5102
C:\Users\SOLDER~1\AppData\Local\Temp\cc2EfhU3.s:18674  .debug_str:00000000000018c7 .LASF5103
C:\Users\SOLDER~1\AppData\Local\Temp\cc2EfhU3.s:26012  .debug_str:000000000001f7fd .LASF5104
C:\Users\SOLDER~1\AppData\Local\Temp\cc2EfhU3.s:19190  .debug_str:0000000000003aa6 .LASF5105
C:\Users\SOLDER~1\AppData\Local\Temp\cc2EfhU3.s:19116  .debug_str:00000000000035cd .LASF5106
C:\Users\SOLDER~1\AppData\Local\Temp\cc2EfhU3.s:27484  .debug_str:0000000000025749 .LASF5107
C:\Users\SOLDER~1\AppData\Local\Temp\cc2EfhU3.s:25282  .debug_str:000000000001c7e7 .LASF5108
C:\Users\SOLDER~1\AppData\Local\Temp\cc2EfhU3.s:22734  .debug_str:0000000000012168 .LASF5109
C:\Users\SOLDER~1\AppData\Local\Temp\cc2EfhU3.s:28264  .debug_str:0000000000028b28 .LASF5110
C:\Users\SOLDER~1\AppData\Local\Temp\cc2EfhU3.s:22262  .debug_str:0000000000010350 .LASF5111
C:\Users\SOLDER~1\AppData\Local\Temp\cc2EfhU3.s:19940  .debug_str:0000000000006ac1 .LASF5112
C:\Users\SOLDER~1\AppData\Local\Temp\cc2EfhU3.s:24850  .debug_str:000000000001abc5 .LASF5113
C:\Users\SOLDER~1\AppData\Local\Temp\cc2EfhU3.s:21126  .debug_str:000000000000b85c .LASF5114
C:\Users\SOLDER~1\AppData\Local\Temp\cc2EfhU3.s:25038  .debug_str:000000000001b770 .LASF5115
C:\Users\SOLDER~1\AppData\Local\Temp\cc2EfhU3.s:22024  .debug_str:000000000000f344 .LASF5116
C:\Users\SOLDER~1\AppData\Local\Temp\cc2EfhU3.s:22238  .debug_str:000000000001018a .LASF5117
C:\Users\SOLDER~1\AppData\Local\Temp\cc2EfhU3.s:21986  .debug_str:000000000000f0d6 .LASF5118
C:\Users\SOLDER~1\AppData\Local\Temp\cc2EfhU3.s:29748  .debug_str:000000000002eb63 .LASF5119
C:\Users\SOLDER~1\AppData\Local\Temp\cc2EfhU3.s:21454  .debug_str:000000000000ce66 .LASF5120
C:\Users\SOLDER~1\AppData\Local\Temp\cc2EfhU3.s:22132  .debug_str:000000000000faa6 .LASF5121
C:\Users\SOLDER~1\AppData\Local\Temp\cc2EfhU3.s:19282  .debug_str:000000000000406c .LASF5122
C:\Users\SOLDER~1\AppData\Local\Temp\cc2EfhU3.s:27860  .debug_str:00000000000270cb .LASF5123
C:\Users\SOLDER~1\AppData\Local\Temp\cc2EfhU3.s:28918  .debug_str:000000000002b5bc .LASF5124
C:\Users\SOLDER~1\AppData\Local\Temp\cc2EfhU3.s:19704  .debug_str:0000000000005b34 .LASF5125
C:\Users\SOLDER~1\AppData\Local\Temp\cc2EfhU3.s:24132  .debug_str:0000000000017d3e .LASF5126
C:\Users\SOLDER~1\AppData\Local\Temp\cc2EfhU3.s:24880  .debug_str:000000000001adb2 .LASF5127
C:\Users\SOLDER~1\AppData\Local\Temp\cc2EfhU3.s:23884  .debug_str:0000000000016cc8 .LASF5128
C:\Users\SOLDER~1\AppData\Local\Temp\cc2EfhU3.s:24200  .debug_str:00000000000181c7 .LASF5129
C:\Users\SOLDER~1\AppData\Local\Temp\cc2EfhU3.s:22890  .debug_str:0000000000012b66 .LASF5130
C:\Users\SOLDER~1\AppData\Local\Temp\cc2EfhU3.s:28440  .debug_str:000000000002968d .LASF5131
C:\Users\SOLDER~1\AppData\Local\Temp\cc2EfhU3.s:26518  .debug_str:000000000002188a .LASF5132
C:\Users\SOLDER~1\AppData\Local\Temp\cc2EfhU3.s:26552  .debug_str:0000000000021a96 .LASF5133
C:\Users\SOLDER~1\AppData\Local\Temp\cc2EfhU3.s:27858  .debug_str:000000000002709a .LASF5134
C:\Users\SOLDER~1\AppData\Local\Temp\cc2EfhU3.s:29732  .debug_str:000000000002ea72 .LASF5135
C:\Users\SOLDER~1\AppData\Local\Temp\cc2EfhU3.s:29664  .debug_str:000000000002e626 .LASF5136
C:\Users\SOLDER~1\AppData\Local\Temp\cc2EfhU3.s:23846  .debug_str:0000000000016aaa .LASF5137
C:\Users\SOLDER~1\AppData\Local\Temp\cc2EfhU3.s:23262  .debug_str:0000000000014505 .LASF5138
C:\Users\SOLDER~1\AppData\Local\Temp\cc2EfhU3.s:23102  .debug_str:00000000000139f2 .LASF5139
GAS LISTING C:\Users\SOLDER~1\AppData\Local\Temp\cc2EfhU3.s 			page 101


C:\Users\SOLDER~1\AppData\Local\Temp\cc2EfhU3.s:27908  .debug_str:00000000000273f3 .LASF5140
C:\Users\SOLDER~1\AppData\Local\Temp\cc2EfhU3.s:24144  .debug_str:0000000000017e1f .LASF5141
C:\Users\SOLDER~1\AppData\Local\Temp\cc2EfhU3.s:18612  .debug_str:0000000000001514 .LASF5142
C:\Users\SOLDER~1\AppData\Local\Temp\cc2EfhU3.s:26230  .debug_str:00000000000205f5 .LASF5143
C:\Users\SOLDER~1\AppData\Local\Temp\cc2EfhU3.s:26014  .debug_str:000000000001f822 .LASF5144
C:\Users\SOLDER~1\AppData\Local\Temp\cc2EfhU3.s:20970  .debug_str:000000000000ae80 .LASF5145
C:\Users\SOLDER~1\AppData\Local\Temp\cc2EfhU3.s:27794  .debug_str:0000000000026c5c .LASF5146
C:\Users\SOLDER~1\AppData\Local\Temp\cc2EfhU3.s:26690  .debug_str:0000000000022343 .LASF5147
C:\Users\SOLDER~1\AppData\Local\Temp\cc2EfhU3.s:23450  .debug_str:0000000000015172 .LASF5148
C:\Users\SOLDER~1\AppData\Local\Temp\cc2EfhU3.s:27550  .debug_str:0000000000025bd3 .LASF5149
C:\Users\SOLDER~1\AppData\Local\Temp\cc2EfhU3.s:22490  .debug_str:00000000000111b5 .LASF5150
C:\Users\SOLDER~1\AppData\Local\Temp\cc2EfhU3.s:29432  .debug_str:000000000002d72e .LASF5151
C:\Users\SOLDER~1\AppData\Local\Temp\cc2EfhU3.s:25956  .debug_str:000000000001f47f .LASF5152
C:\Users\SOLDER~1\AppData\Local\Temp\cc2EfhU3.s:26820  .debug_str:0000000000022c0a .LASF5153
C:\Users\SOLDER~1\AppData\Local\Temp\cc2EfhU3.s:28328  .debug_str:0000000000028f24 .LASF5154
C:\Users\SOLDER~1\AppData\Local\Temp\cc2EfhU3.s:24420  .debug_str:000000000001900f .LASF5155
C:\Users\SOLDER~1\AppData\Local\Temp\cc2EfhU3.s:25160  .debug_str:000000000001bfa1 .LASF5156
C:\Users\SOLDER~1\AppData\Local\Temp\cc2EfhU3.s:20466  .debug_str:0000000000008d18 .LASF5157
C:\Users\SOLDER~1\AppData\Local\Temp\cc2EfhU3.s:26078  .debug_str:000000000001fc0e .LASF5158
C:\Users\SOLDER~1\AppData\Local\Temp\cc2EfhU3.s:28172  .debug_str:000000000002853f .LASF5159
C:\Users\SOLDER~1\AppData\Local\Temp\cc2EfhU3.s:26368  .debug_str:0000000000020f07 .LASF5160
C:\Users\SOLDER~1\AppData\Local\Temp\cc2EfhU3.s:18586  .debug_str:0000000000001335 .LASF5161
C:\Users\SOLDER~1\AppData\Local\Temp\cc2EfhU3.s:18306  .debug_str:0000000000000048 .LASF5162
C:\Users\SOLDER~1\AppData\Local\Temp\cc2EfhU3.s:25018  .debug_str:000000000001b63e .LASF5163
C:\Users\SOLDER~1\AppData\Local\Temp\cc2EfhU3.s:29398  .debug_str:000000000002d4f0 .LASF5164
C:\Users\SOLDER~1\AppData\Local\Temp\cc2EfhU3.s:18334  .debug_str:00000000000001f5 .LASF5165
C:\Users\SOLDER~1\AppData\Local\Temp\cc2EfhU3.s:20686  .debug_str:0000000000009b7a .LASF5166
C:\Users\SOLDER~1\AppData\Local\Temp\cc2EfhU3.s:29774  .debug_str:000000000002ece4 .LASF5167
C:\Users\SOLDER~1\AppData\Local\Temp\cc2EfhU3.s:22702  .debug_str:0000000000011f5a .LASF5168
C:\Users\SOLDER~1\AppData\Local\Temp\cc2EfhU3.s:24332  .debug_str:0000000000018a34 .LASF5169
C:\Users\SOLDER~1\AppData\Local\Temp\cc2EfhU3.s:20218  .debug_str:0000000000007ce8 .LASF5170
C:\Users\SOLDER~1\AppData\Local\Temp\cc2EfhU3.s:20228  .debug_str:0000000000007d8a .LASF5171
C:\Users\SOLDER~1\AppData\Local\Temp\cc2EfhU3.s:25800  .debug_str:000000000001e9f5 .LASF5172
C:\Users\SOLDER~1\AppData\Local\Temp\cc2EfhU3.s:29392  .debug_str:000000000002d486 .LASF5173
C:\Users\SOLDER~1\AppData\Local\Temp\cc2EfhU3.s:22396  .debug_str:0000000000010ba8 .LASF5174
C:\Users\SOLDER~1\AppData\Local\Temp\cc2EfhU3.s:20532  .debug_str:00000000000091c9 .LASF5175
C:\Users\SOLDER~1\AppData\Local\Temp\cc2EfhU3.s:23146  .debug_str:0000000000013d16 .LASF5176
C:\Users\SOLDER~1\AppData\Local\Temp\cc2EfhU3.s:26200  .debug_str:00000000000203e3 .LASF5177
C:\Users\SOLDER~1\AppData\Local\Temp\cc2EfhU3.s:23730  .debug_str:0000000000016354 .LASF5178
C:\Users\SOLDER~1\AppData\Local\Temp\cc2EfhU3.s:22122  .debug_str:000000000000f9f6 .LASF5179
C:\Users\SOLDER~1\AppData\Local\Temp\cc2EfhU3.s:29710  .debug_str:000000000002e91c .LASF5180
C:\Users\SOLDER~1\AppData\Local\Temp\cc2EfhU3.s:21422  .debug_str:000000000000cc47 .LASF5181
C:\Users\SOLDER~1\AppData\Local\Temp\cc2EfhU3.s:25826  .debug_str:000000000001eb9d .LASF5182
C:\Users\SOLDER~1\AppData\Local\Temp\cc2EfhU3.s:19000  .debug_str:0000000000002e63 .LASF5183
C:\Users\SOLDER~1\AppData\Local\Temp\cc2EfhU3.s:22494  .debug_str:00000000000111fa .LASF5184
C:\Users\SOLDER~1\AppData\Local\Temp\cc2EfhU3.s:25596  .debug_str:000000000001dc79 .LASF5185
C:\Users\SOLDER~1\AppData\Local\Temp\cc2EfhU3.s:23372  .debug_str:0000000000014c6d .LASF5186
C:\Users\SOLDER~1\AppData\Local\Temp\cc2EfhU3.s:27428  .debug_str:000000000002536f .LASF5187
C:\Users\SOLDER~1\AppData\Local\Temp\cc2EfhU3.s:25116  .debug_str:000000000001bca0 .LASF5188
C:\Users\SOLDER~1\AppData\Local\Temp\cc2EfhU3.s:21574  .debug_str:000000000000d643 .LASF5189
C:\Users\SOLDER~1\AppData\Local\Temp\cc2EfhU3.s:19790  .debug_str:00000000000060c2 .LASF5190
C:\Users\SOLDER~1\AppData\Local\Temp\cc2EfhU3.s:29662  .debug_str:000000000002e5ef .LASF5191
C:\Users\SOLDER~1\AppData\Local\Temp\cc2EfhU3.s:18588  .debug_str:0000000000001358 .LASF5192
C:\Users\SOLDER~1\AppData\Local\Temp\cc2EfhU3.s:21362  .debug_str:000000000000c83d .LASF5193
C:\Users\SOLDER~1\AppData\Local\Temp\cc2EfhU3.s:27848  .debug_str:0000000000026fd8 .LASF5194
C:\Users\SOLDER~1\AppData\Local\Temp\cc2EfhU3.s:24768  .debug_str:000000000001a62f .LASF5195
C:\Users\SOLDER~1\AppData\Local\Temp\cc2EfhU3.s:20836  .debug_str:000000000000a594 .LASF5196
GAS LISTING C:\Users\SOLDER~1\AppData\Local\Temp\cc2EfhU3.s 			page 102


C:\Users\SOLDER~1\AppData\Local\Temp\cc2EfhU3.s:18856  .debug_str:000000000000252a .LASF5197
C:\Users\SOLDER~1\AppData\Local\Temp\cc2EfhU3.s:24840  .debug_str:000000000001ab06 .LASF5198
C:\Users\SOLDER~1\AppData\Local\Temp\cc2EfhU3.s:27526  .debug_str:0000000000025a1a .LASF5199
C:\Users\SOLDER~1\AppData\Local\Temp\cc2EfhU3.s:20522  .debug_str:0000000000009103 .LASF5200
C:\Users\SOLDER~1\AppData\Local\Temp\cc2EfhU3.s:27612  .debug_str:0000000000026028 .LASF5201
C:\Users\SOLDER~1\AppData\Local\Temp\cc2EfhU3.s:19552  .debug_str:000000000000513e .LASF5202
C:\Users\SOLDER~1\AppData\Local\Temp\cc2EfhU3.s:18460  .debug_str:0000000000000b06 .LASF5203
C:\Users\SOLDER~1\AppData\Local\Temp\cc2EfhU3.s:19642  .debug_str:00000000000056cd .LASF5204
C:\Users\SOLDER~1\AppData\Local\Temp\cc2EfhU3.s:22656  .debug_str:0000000000011c97 .LASF5205
C:\Users\SOLDER~1\AppData\Local\Temp\cc2EfhU3.s:23790  .debug_str:00000000000166f9 .LASF5206
C:\Users\SOLDER~1\AppData\Local\Temp\cc2EfhU3.s:19838  .debug_str:000000000000640f .LASF5207
C:\Users\SOLDER~1\AppData\Local\Temp\cc2EfhU3.s:28070  .debug_str:0000000000027e8e .LASF5208
C:\Users\SOLDER~1\AppData\Local\Temp\cc2EfhU3.s:26750  .debug_str:000000000002275e .LASF5209
C:\Users\SOLDER~1\AppData\Local\Temp\cc2EfhU3.s:23068  .debug_str:0000000000013724 .LASF5210
C:\Users\SOLDER~1\AppData\Local\Temp\cc2EfhU3.s:26444  .debug_str:00000000000213d4 .LASF5211
C:\Users\SOLDER~1\AppData\Local\Temp\cc2EfhU3.s:27216  .debug_str:00000000000245f5 .LASF5212
C:\Users\SOLDER~1\AppData\Local\Temp\cc2EfhU3.s:25286  .debug_str:000000000001c82d .LASF5213
C:\Users\SOLDER~1\AppData\Local\Temp\cc2EfhU3.s:23804  .debug_str:00000000000167f5 .LASF5214
C:\Users\SOLDER~1\AppData\Local\Temp\cc2EfhU3.s:27066  .debug_str:0000000000023bfb .LASF5215
C:\Users\SOLDER~1\AppData\Local\Temp\cc2EfhU3.s:29354  .debug_str:000000000002d244 .LASF5216
C:\Users\SOLDER~1\AppData\Local\Temp\cc2EfhU3.s:24668  .debug_str:0000000000019fc2 .LASF5217
C:\Users\SOLDER~1\AppData\Local\Temp\cc2EfhU3.s:24990  .debug_str:000000000001b492 .LASF5218
C:\Users\SOLDER~1\AppData\Local\Temp\cc2EfhU3.s:26232  .debug_str:0000000000020616 .LASF5219
C:\Users\SOLDER~1\AppData\Local\Temp\cc2EfhU3.s:25056  .debug_str:000000000001b8c1 .LASF5220
C:\Users\SOLDER~1\AppData\Local\Temp\cc2EfhU3.s:23898  .debug_str:0000000000016dc0 .LASF5221
C:\Users\SOLDER~1\AppData\Local\Temp\cc2EfhU3.s:27464  .debug_str:00000000000255ba .LASF5222
C:\Users\SOLDER~1\AppData\Local\Temp\cc2EfhU3.s:18654  .debug_str:00000000000017ca .LASF5223
C:\Users\SOLDER~1\AppData\Local\Temp\cc2EfhU3.s:22582  .debug_str:00000000000117bd .LASF5224
C:\Users\SOLDER~1\AppData\Local\Temp\cc2EfhU3.s:22590  .debug_str:0000000000011842 .LASF5225
C:\Users\SOLDER~1\AppData\Local\Temp\cc2EfhU3.s:20904  .debug_str:000000000000aa4b .LASF5226
C:\Users\SOLDER~1\AppData\Local\Temp\cc2EfhU3.s:21268  .debug_str:000000000000c1a4 .LASF5227
C:\Users\SOLDER~1\AppData\Local\Temp\cc2EfhU3.s:20424  .debug_str:0000000000008a50 .LASF5228
C:\Users\SOLDER~1\AppData\Local\Temp\cc2EfhU3.s:20302  .debug_str:000000000000827a .LASF5229
C:\Users\SOLDER~1\AppData\Local\Temp\cc2EfhU3.s:19316  .debug_str:0000000000004296 .LASF5230
C:\Users\SOLDER~1\AppData\Local\Temp\cc2EfhU3.s:21530  .debug_str:000000000000d377 .LASF5231
C:\Users\SOLDER~1\AppData\Local\Temp\cc2EfhU3.s:26270  .debug_str:000000000002088a .LASF5232
C:\Users\SOLDER~1\AppData\Local\Temp\cc2EfhU3.s:22010  .debug_str:000000000000f27b .LASF5233
C:\Users\SOLDER~1\AppData\Local\Temp\cc2EfhU3.s:19072  .debug_str:0000000000003303 .LASF5234
C:\Users\SOLDER~1\AppData\Local\Temp\cc2EfhU3.s:28700  .debug_str:000000000002a769 .LASF5235
C:\Users\SOLDER~1\AppData\Local\Temp\cc2EfhU3.s:22320  .debug_str:00000000000106c7 .LASF5236
C:\Users\SOLDER~1\AppData\Local\Temp\cc2EfhU3.s:28510  .debug_str:0000000000029b06 .LASF5237
C:\Users\SOLDER~1\AppData\Local\Temp\cc2EfhU3.s:22088  .debug_str:000000000000f78d .LASF5238
C:\Users\SOLDER~1\AppData\Local\Temp\cc2EfhU3.s:18850  .debug_str:00000000000024c7 .LASF5239
C:\Users\SOLDER~1\AppData\Local\Temp\cc2EfhU3.s:24684  .debug_str:000000000001a0ad .LASF5240
C:\Users\SOLDER~1\AppData\Local\Temp\cc2EfhU3.s:19120  .debug_str:000000000000360e .LASF5241
C:\Users\SOLDER~1\AppData\Local\Temp\cc2EfhU3.s:19524  .debug_str:0000000000004fa6 .LASF5242
C:\Users\SOLDER~1\AppData\Local\Temp\cc2EfhU3.s:28600  .debug_str:000000000002a146 .LASF5243
C:\Users\SOLDER~1\AppData\Local\Temp\cc2EfhU3.s:18350  .debug_str:000000000000031d .LASF5244
C:\Users\SOLDER~1\AppData\Local\Temp\cc2EfhU3.s:20030  .debug_str:00000000000070e6 .LASF5245
C:\Users\SOLDER~1\AppData\Local\Temp\cc2EfhU3.s:28836  .debug_str:000000000002b0a9 .LASF5246
C:\Users\SOLDER~1\AppData\Local\Temp\cc2EfhU3.s:20900  .debug_str:000000000000aa09 .LASF5247
C:\Users\SOLDER~1\AppData\Local\Temp\cc2EfhU3.s:27616  .debug_str:000000000002607c .LASF5248
C:\Users\SOLDER~1\AppData\Local\Temp\cc2EfhU3.s:28964  .debug_str:000000000002b8a1 .LASF5249
C:\Users\SOLDER~1\AppData\Local\Temp\cc2EfhU3.s:22266  .debug_str:000000000001038a .LASF5250
C:\Users\SOLDER~1\AppData\Local\Temp\cc2EfhU3.s:21272  .debug_str:000000000000c1f7 .LASF5251
C:\Users\SOLDER~1\AppData\Local\Temp\cc2EfhU3.s:27274  .debug_str:00000000000249d0 .LASF5252
C:\Users\SOLDER~1\AppData\Local\Temp\cc2EfhU3.s:24544  .debug_str:00000000000197d6 .LASF5253
GAS LISTING C:\Users\SOLDER~1\AppData\Local\Temp\cc2EfhU3.s 			page 103


C:\Users\SOLDER~1\AppData\Local\Temp\cc2EfhU3.s:21818  .debug_str:000000000000e62e .LASF5254
C:\Users\SOLDER~1\AppData\Local\Temp\cc2EfhU3.s:29582  .debug_str:000000000002e0a7 .LASF5255
C:\Users\SOLDER~1\AppData\Local\Temp\cc2EfhU3.s:22516  .debug_str:0000000000011358 .LASF5256
C:\Users\SOLDER~1\AppData\Local\Temp\cc2EfhU3.s:25342  .debug_str:000000000001cc1e .LASF5257
C:\Users\SOLDER~1\AppData\Local\Temp\cc2EfhU3.s:24084  .debug_str:00000000000179f5 .LASF5258
C:\Users\SOLDER~1\AppData\Local\Temp\cc2EfhU3.s:20204  .debug_str:0000000000007be7 .LASF5259
C:\Users\SOLDER~1\AppData\Local\Temp\cc2EfhU3.s:29550  .debug_str:000000000002de95 .LASF5260
C:\Users\SOLDER~1\AppData\Local\Temp\cc2EfhU3.s:25684  .debug_str:000000000001e20b .LASF5261
C:\Users\SOLDER~1\AppData\Local\Temp\cc2EfhU3.s:18596  .debug_str:00000000000013ec .LASF5262
C:\Users\SOLDER~1\AppData\Local\Temp\cc2EfhU3.s:23596  .debug_str:0000000000015ad3 .LASF5263
C:\Users\SOLDER~1\AppData\Local\Temp\cc2EfhU3.s:27784  .debug_str:0000000000026b9c .LASF5264
C:\Users\SOLDER~1\AppData\Local\Temp\cc2EfhU3.s:22716  .debug_str:000000000001202e .LASF5265
C:\Users\SOLDER~1\AppData\Local\Temp\cc2EfhU3.s:28020  .debug_str:0000000000027b36 .LASF5266
C:\Users\SOLDER~1\AppData\Local\Temp\cc2EfhU3.s:18682  .debug_str:000000000000196c .LASF5267
C:\Users\SOLDER~1\AppData\Local\Temp\cc2EfhU3.s:26676  .debug_str:000000000002224f .LASF5268
C:\Users\SOLDER~1\AppData\Local\Temp\cc2EfhU3.s:24662  .debug_str:0000000000019f5c .LASF5269
C:\Users\SOLDER~1\AppData\Local\Temp\cc2EfhU3.s:23616  .debug_str:0000000000015c14 .LASF5270
C:\Users\SOLDER~1\AppData\Local\Temp\cc2EfhU3.s:20914  .debug_str:000000000000aace .LASF5271
C:\Users\SOLDER~1\AppData\Local\Temp\cc2EfhU3.s:18438  .debug_str:0000000000000987 .LASF5272
C:\Users\SOLDER~1\AppData\Local\Temp\cc2EfhU3.s:25788  .debug_str:000000000001e936 .LASF5273
C:\Users\SOLDER~1\AppData\Local\Temp\cc2EfhU3.s:28556  .debug_str:0000000000029e23 .LASF5274
C:\Users\SOLDER~1\AppData\Local\Temp\cc2EfhU3.s:24032  .debug_str:00000000000176b0 .LASF5275
C:\Users\SOLDER~1\AppData\Local\Temp\cc2EfhU3.s:22230  .debug_str:000000000001011c .LASF5276
C:\Users\SOLDER~1\AppData\Local\Temp\cc2EfhU3.s:18994  .debug_str:0000000000002e01 .LASF5277
C:\Users\SOLDER~1\AppData\Local\Temp\cc2EfhU3.s:20136  .debug_str:0000000000007768 .LASF5278
C:\Users\SOLDER~1\AppData\Local\Temp\cc2EfhU3.s:25568  .debug_str:000000000001da80 .LASF5279
C:\Users\SOLDER~1\AppData\Local\Temp\cc2EfhU3.s:20238  .debug_str:0000000000007e2b .LASF5280
C:\Users\SOLDER~1\AppData\Local\Temp\cc2EfhU3.s:25236  .debug_str:000000000001c4e3 .LASF5281
C:\Users\SOLDER~1\AppData\Local\Temp\cc2EfhU3.s:19064  .debug_str:0000000000003283 .LASF5282
C:\Users\SOLDER~1\AppData\Local\Temp\cc2EfhU3.s:19672  .debug_str:000000000000590c .LASF5283
C:\Users\SOLDER~1\AppData\Local\Temp\cc2EfhU3.s:25220  .debug_str:000000000001c3ac .LASF5284
C:\Users\SOLDER~1\AppData\Local\Temp\cc2EfhU3.s:19082  .debug_str:00000000000033be .LASF5285
C:\Users\SOLDER~1\AppData\Local\Temp\cc2EfhU3.s:29110  .debug_str:000000000002c264 .LASF5286
C:\Users\SOLDER~1\AppData\Local\Temp\cc2EfhU3.s:21958  .debug_str:000000000000ef3a .LASF5287
C:\Users\SOLDER~1\AppData\Local\Temp\cc2EfhU3.s:22332  .debug_str:00000000000107b2 .LASF5288
C:\Users\SOLDER~1\AppData\Local\Temp\cc2EfhU3.s:19266  .debug_str:0000000000003f65 .LASF5289
C:\Users\SOLDER~1\AppData\Local\Temp\cc2EfhU3.s:19644  .debug_str:0000000000005700 .LASF5290
C:\Users\SOLDER~1\AppData\Local\Temp\cc2EfhU3.s:18518  .debug_str:0000000000000f03 .LASF5291
C:\Users\SOLDER~1\AppData\Local\Temp\cc2EfhU3.s:23058  .debug_str:0000000000013694 .LASF5292
C:\Users\SOLDER~1\AppData\Local\Temp\cc2EfhU3.s:26886  .debug_str:0000000000023026 .LASF5293
C:\Users\SOLDER~1\AppData\Local\Temp\cc2EfhU3.s:23978  .debug_str:0000000000017319 .LASF5294
C:\Users\SOLDER~1\AppData\Local\Temp\cc2EfhU3.s:23888  .debug_str:0000000000016d16 .LASF5295
C:\Users\SOLDER~1\AppData\Local\Temp\cc2EfhU3.s:21892  .debug_str:000000000000eae8 .LASF5296
C:\Users\SOLDER~1\AppData\Local\Temp\cc2EfhU3.s:20026  .debug_str:0000000000007099 .LASF5297
C:\Users\SOLDER~1\AppData\Local\Temp\cc2EfhU3.s:20280  .debug_str:0000000000008121 .LASF5298
C:\Users\SOLDER~1\AppData\Local\Temp\cc2EfhU3.s:28346  .debug_str:0000000000029056 .LASF5299
C:\Users\SOLDER~1\AppData\Local\Temp\cc2EfhU3.s:23786  .debug_str:00000000000166a8 .LASF5300
C:\Users\SOLDER~1\AppData\Local\Temp\cc2EfhU3.s:21356  .debug_str:000000000000c7d9 .LASF5301
C:\Users\SOLDER~1\AppData\Local\Temp\cc2EfhU3.s:27026  .debug_str:0000000000023941 .LASF5302
C:\Users\SOLDER~1\AppData\Local\Temp\cc2EfhU3.s:25154  .debug_str:000000000001bf19 .LASF5303
C:\Users\SOLDER~1\AppData\Local\Temp\cc2EfhU3.s:25358  .debug_str:000000000001cd1e .LASF5304
C:\Users\SOLDER~1\AppData\Local\Temp\cc2EfhU3.s:22478  .debug_str:000000000001110b .LASF5305
C:\Users\SOLDER~1\AppData\Local\Temp\cc2EfhU3.s:21040  .debug_str:000000000000b2cf .LASF5306
C:\Users\SOLDER~1\AppData\Local\Temp\cc2EfhU3.s:25662  .debug_str:000000000001e0ab .LASF5307
C:\Users\SOLDER~1\AppData\Local\Temp\cc2EfhU3.s:26018  .debug_str:000000000001f85a .LASF5308
C:\Users\SOLDER~1\AppData\Local\Temp\cc2EfhU3.s:20676  .debug_str:0000000000009aea .LASF5309
C:\Users\SOLDER~1\AppData\Local\Temp\cc2EfhU3.s:28812  .debug_str:000000000002aefd .LASF5310
GAS LISTING C:\Users\SOLDER~1\AppData\Local\Temp\cc2EfhU3.s 			page 104


C:\Users\SOLDER~1\AppData\Local\Temp\cc2EfhU3.s:27608  .debug_str:0000000000025fd8 .LASF5311
C:\Users\SOLDER~1\AppData\Local\Temp\cc2EfhU3.s:18772  .debug_str:0000000000001f78 .LASF5312
C:\Users\SOLDER~1\AppData\Local\Temp\cc2EfhU3.s:22978  .debug_str:0000000000013121 .LASF5313
C:\Users\SOLDER~1\AppData\Local\Temp\cc2EfhU3.s:19326  .debug_str:0000000000004329 .LASF5314
C:\Users\SOLDER~1\AppData\Local\Temp\cc2EfhU3.s:23032  .debug_str:00000000000134d7 .LASF5315
C:\Users\SOLDER~1\AppData\Local\Temp\cc2EfhU3.s:20790  .debug_str:000000000000a26d .LASF5316
C:\Users\SOLDER~1\AppData\Local\Temp\cc2EfhU3.s:26682  .debug_str:00000000000222c1 .LASF5317
C:\Users\SOLDER~1\AppData\Local\Temp\cc2EfhU3.s:23656  .debug_str:0000000000015e98 .LASF5318
C:\Users\SOLDER~1\AppData\Local\Temp\cc2EfhU3.s:28472  .debug_str:000000000002986d .LASF5319
C:\Users\SOLDER~1\AppData\Local\Temp\cc2EfhU3.s:24338  .debug_str:0000000000018aaa .LASF5320
C:\Users\SOLDER~1\AppData\Local\Temp\cc2EfhU3.s:27922  .debug_str:00000000000274d8 .LASF5321
C:\Users\SOLDER~1\AppData\Local\Temp\cc2EfhU3.s:25766  .debug_str:000000000001e7bd .LASF5322
C:\Users\SOLDER~1\AppData\Local\Temp\cc2EfhU3.s:22830  .debug_str:0000000000012761 .LASF5323
C:\Users\SOLDER~1\AppData\Local\Temp\cc2EfhU3.s:23972  .debug_str:00000000000172ac .LASF5324
C:\Users\SOLDER~1\AppData\Local\Temp\cc2EfhU3.s:25424  .debug_str:000000000001d19c .LASF5325
C:\Users\SOLDER~1\AppData\Local\Temp\cc2EfhU3.s:18680  .debug_str:0000000000001941 .LASF5326
C:\Users\SOLDER~1\AppData\Local\Temp\cc2EfhU3.s:26944  .debug_str:000000000002341f .LASF5327
C:\Users\SOLDER~1\AppData\Local\Temp\cc2EfhU3.s:22274  .debug_str:0000000000010419 .LASF5328
C:\Users\SOLDER~1\AppData\Local\Temp\cc2EfhU3.s:20008  .debug_str:0000000000006f6b .LASF5329
C:\Users\SOLDER~1\AppData\Local\Temp\cc2EfhU3.s:19556  .debug_str:0000000000005192 .LASF5330
C:\Users\SOLDER~1\AppData\Local\Temp\cc2EfhU3.s:22386  .debug_str:0000000000010b15 .LASF5331
C:\Users\SOLDER~1\AppData\Local\Temp\cc2EfhU3.s:20528  .debug_str:000000000000918d .LASF5332
C:\Users\SOLDER~1\AppData\Local\Temp\cc2EfhU3.s:27308  .debug_str:0000000000024c09 .LASF5333
C:\Users\SOLDER~1\AppData\Local\Temp\cc2EfhU3.s:28352  .debug_str:00000000000290c4 .LASF5334
C:\Users\SOLDER~1\AppData\Local\Temp\cc2EfhU3.s:19678  .debug_str:0000000000005965 .LASF5335
C:\Users\SOLDER~1\AppData\Local\Temp\cc2EfhU3.s:23650  .debug_str:0000000000015e36 .LASF5336
C:\Users\SOLDER~1\AppData\Local\Temp\cc2EfhU3.s:21254  .debug_str:000000000000c0c6 .LASF5337
C:\Users\SOLDER~1\AppData\Local\Temp\cc2EfhU3.s:20186  .debug_str:0000000000007ab4 .LASF5338
C:\Users\SOLDER~1\AppData\Local\Temp\cc2EfhU3.s:20064  .debug_str:000000000000730c .LASF5339
C:\Users\SOLDER~1\AppData\Local\Temp\cc2EfhU3.s:26534  .debug_str:0000000000021999 .LASF5340
C:\Users\SOLDER~1\AppData\Local\Temp\cc2EfhU3.s:24582  .debug_str:0000000000019a63 .LASF5341
C:\Users\SOLDER~1\AppData\Local\Temp\cc2EfhU3.s:27936  .debug_str:00000000000275bd .LASF5342
C:\Users\SOLDER~1\AppData\Local\Temp\cc2EfhU3.s:29750  .debug_str:000000000002eb84 .LASF5343
C:\Users\SOLDER~1\AppData\Local\Temp\cc2EfhU3.s:26744  .debug_str:00000000000226e5 .LASF5344
C:\Users\SOLDER~1\AppData\Local\Temp\cc2EfhU3.s:29232  .debug_str:000000000002c9fc .LASF5345
C:\Users\SOLDER~1\AppData\Local\Temp\cc2EfhU3.s:19144  .debug_str:00000000000037a5 .LASF5346
C:\Users\SOLDER~1\AppData\Local\Temp\cc2EfhU3.s:28874  .debug_str:000000000002b2d0 .LASF5347
C:\Users\SOLDER~1\AppData\Local\Temp\cc2EfhU3.s:24340  .debug_str:0000000000018ad5 .LASF5348
C:\Users\SOLDER~1\AppData\Local\Temp\cc2EfhU3.s:24108  .debug_str:0000000000017b9b .LASF5349
C:\Users\SOLDER~1\AppData\Local\Temp\cc2EfhU3.s:19032  .debug_str:0000000000003072 .LASF5350
C:\Users\SOLDER~1\AppData\Local\Temp\cc2EfhU3.s:21374  .debug_str:000000000000c920 .LASF5351
C:\Users\SOLDER~1\AppData\Local\Temp\cc2EfhU3.s:28942  .debug_str:000000000002b751 .LASF5352
C:\Users\SOLDER~1\AppData\Local\Temp\cc2EfhU3.s:28326  .debug_str:0000000000028f03 .LASF5353
C:\Users\SOLDER~1\AppData\Local\Temp\cc2EfhU3.s:29262  .debug_str:000000000002cbf9 .LASF5354
C:\Users\SOLDER~1\AppData\Local\Temp\cc2EfhU3.s:26666  .debug_str:0000000000022198 .LASF5355
C:\Users\SOLDER~1\AppData\Local\Temp\cc2EfhU3.s:22468  .debug_str:000000000001105d .LASF5356
C:\Users\SOLDER~1\AppData\Local\Temp\cc2EfhU3.s:19666  .debug_str:00000000000058a5 .LASF5357
C:\Users\SOLDER~1\AppData\Local\Temp\cc2EfhU3.s:28902  .debug_str:000000000002b4bb .LASF5358
C:\Users\SOLDER~1\AppData\Local\Temp\cc2EfhU3.s:23558  .debug_str:0000000000015872 .LASF5359
C:\Users\SOLDER~1\AppData\Local\Temp\cc2EfhU3.s:23258  .debug_str:00000000000144c2 .LASF5360
C:\Users\SOLDER~1\AppData\Local\Temp\cc2EfhU3.s:28082  .debug_str:0000000000027f71 .LASF5361
C:\Users\SOLDER~1\AppData\Local\Temp\cc2EfhU3.s:19094  .debug_str:000000000000348f .LASF5362
C:\Users\SOLDER~1\AppData\Local\Temp\cc2EfhU3.s:23182  .debug_str:0000000000013f68 .LASF5363
C:\Users\SOLDER~1\AppData\Local\Temp\cc2EfhU3.s:24676  .debug_str:000000000001a02a .LASF5364
C:\Users\SOLDER~1\AppData\Local\Temp\cc2EfhU3.s:19002  .debug_str:0000000000002e89 .LASF5365
C:\Users\SOLDER~1\AppData\Local\Temp\cc2EfhU3.s:20248  .debug_str:0000000000007ee0 .LASF5366
C:\Users\SOLDER~1\AppData\Local\Temp\cc2EfhU3.s:24656  .debug_str:0000000000019ef5 .LASF5367
GAS LISTING C:\Users\SOLDER~1\AppData\Local\Temp\cc2EfhU3.s 			page 105


C:\Users\SOLDER~1\AppData\Local\Temp\cc2EfhU3.s:23706  .debug_str:00000000000161c6 .LASF5368
C:\Users\SOLDER~1\AppData\Local\Temp\cc2EfhU3.s:27222  .debug_str:0000000000024656 .LASF5369
C:\Users\SOLDER~1\AppData\Local\Temp\cc2EfhU3.s:22732  .debug_str:0000000000012148 .LASF5370
C:\Users\SOLDER~1\AppData\Local\Temp\cc2EfhU3.s:29010  .debug_str:000000000002bba3 .LASF5371
C:\Users\SOLDER~1\AppData\Local\Temp\cc2EfhU3.s:23270  .debug_str:000000000001459c .LASF5372
C:\Users\SOLDER~1\AppData\Local\Temp\cc2EfhU3.s:21528  .debug_str:000000000000d357 .LASF5373
C:\Users\SOLDER~1\AppData\Local\Temp\cc2EfhU3.s:29140  .debug_str:000000000002c43e .LASF5374
C:\Users\SOLDER~1\AppData\Local\Temp\cc2EfhU3.s:27474  .debug_str:0000000000025676 .LASF5375
C:\Users\SOLDER~1\AppData\Local\Temp\cc2EfhU3.s:23354  .debug_str:0000000000014b37 .LASF5376
C:\Users\SOLDER~1\AppData\Local\Temp\cc2EfhU3.s:19448  .debug_str:0000000000004aef .LASF5377
C:\Users\SOLDER~1\AppData\Local\Temp\cc2EfhU3.s:19634  .debug_str:000000000000563a .LASF5378
C:\Users\SOLDER~1\AppData\Local\Temp\cc2EfhU3.s:24634  .debug_str:0000000000019d76 .LASF5379
C:\Users\SOLDER~1\AppData\Local\Temp\cc2EfhU3.s:26746  .debug_str:0000000000022705 .LASF5380
C:\Users\SOLDER~1\AppData\Local\Temp\cc2EfhU3.s:18576  .debug_str:00000000000012b1 .LASF5381
C:\Users\SOLDER~1\AppData\Local\Temp\cc2EfhU3.s:22100  .debug_str:000000000000f884 .LASF5382
C:\Users\SOLDER~1\AppData\Local\Temp\cc2EfhU3.s:26966  .debug_str:00000000000235a5 .LASF5383
C:\Users\SOLDER~1\AppData\Local\Temp\cc2EfhU3.s:18366  .debug_str:000000000000042f .LASF5384
C:\Users\SOLDER~1\AppData\Local\Temp\cc2EfhU3.s:23528  .debug_str:0000000000015677 .LASF5385
C:\Users\SOLDER~1\AppData\Local\Temp\cc2EfhU3.s:29776  .debug_str:000000000002ed0a .LASF5386
C:\Users\SOLDER~1\AppData\Local\Temp\cc2EfhU3.s:24490  .debug_str:00000000000194c7 .LASF5387
C:\Users\SOLDER~1\AppData\Local\Temp\cc2EfhU3.s:29072  .debug_str:000000000002bfef .LASF5388
C:\Users\SOLDER~1\AppData\Local\Temp\cc2EfhU3.s:24470  .debug_str:000000000001935e .LASF5389
C:\Users\SOLDER~1\AppData\Local\Temp\cc2EfhU3.s:22250  .debug_str:000000000001026a .LASF5390
C:\Users\SOLDER~1\AppData\Local\Temp\cc2EfhU3.s:23272  .debug_str:00000000000145bc .LASF5391
C:\Users\SOLDER~1\AppData\Local\Temp\cc2EfhU3.s:22938  .debug_str:0000000000012e7e .LASF5392
C:\Users\SOLDER~1\AppData\Local\Temp\cc2EfhU3.s:26090  .debug_str:000000000001fcd0 .LASF5393
C:\Users\SOLDER~1\AppData\Local\Temp\cc2EfhU3.s:29556  .debug_str:000000000002df07 .LASF5394
C:\Users\SOLDER~1\AppData\Local\Temp\cc2EfhU3.s:21138  .debug_str:000000000000b91a .LASF5395
C:\Users\SOLDER~1\AppData\Local\Temp\cc2EfhU3.s:24828  .debug_str:000000000001aa16 .LASF5396
C:\Users\SOLDER~1\AppData\Local\Temp\cc2EfhU3.s:29274  .debug_str:000000000002ccce .LASF5397
C:\Users\SOLDER~1\AppData\Local\Temp\cc2EfhU3.s:27186  .debug_str:0000000000024404 .LASF5398
C:\Users\SOLDER~1\AppData\Local\Temp\cc2EfhU3.s:24752  .debug_str:000000000001a510 .LASF5399
C:\Users\SOLDER~1\AppData\Local\Temp\cc2EfhU3.s:25434  .debug_str:000000000001d24b .LASF5400
C:\Users\SOLDER~1\AppData\Local\Temp\cc2EfhU3.s:21094  .debug_str:000000000000b64f .LASF5401
C:\Users\SOLDER~1\AppData\Local\Temp\cc2EfhU3.s:24240  .debug_str:000000000001844c .LASF5402
C:\Users\SOLDER~1\AppData\Local\Temp\cc2EfhU3.s:27954  .debug_str:00000000000276d4 .LASF5403
C:\Users\SOLDER~1\AppData\Local\Temp\cc2EfhU3.s:22150  .debug_str:000000000000fc06 .LASF5404
C:\Users\SOLDER~1\AppData\Local\Temp\cc2EfhU3.s:24320  .debug_str:0000000000018983 .LASF5405
C:\Users\SOLDER~1\AppData\Local\Temp\cc2EfhU3.s:23328  .debug_str:000000000001497a .LASF5406
C:\Users\SOLDER~1\AppData\Local\Temp\cc2EfhU3.s:28892  .debug_str:000000000002b409 .LASF5407
C:\Users\SOLDER~1\AppData\Local\Temp\cc2EfhU3.s:29348  .debug_str:000000000002d1ed .LASF5408
C:\Users\SOLDER~1\AppData\Local\Temp\cc2EfhU3.s:29198  .debug_str:000000000002c7de .LASF5409
C:\Users\SOLDER~1\AppData\Local\Temp\cc2EfhU3.s:19778  .debug_str:0000000000005fe1 .LASF5410
C:\Users\SOLDER~1\AppData\Local\Temp\cc2EfhU3.s:27284  .debug_str:0000000000024a79 .LASF5411
C:\Users\SOLDER~1\AppData\Local\Temp\cc2EfhU3.s:20918  .debug_str:000000000000ab18 .LASF5412
C:\Users\SOLDER~1\AppData\Local\Temp\cc2EfhU3.s:20866  .debug_str:000000000000a7ad .LASF5413
C:\Users\SOLDER~1\AppData\Local\Temp\cc2EfhU3.s:24498  .debug_str:0000000000019558 .LASF5414
C:\Users\SOLDER~1\AppData\Local\Temp\cc2EfhU3.s:27876  .debug_str:00000000000271de .LASF5415
C:\Users\SOLDER~1\AppData\Local\Temp\cc2EfhU3.s:21340  .debug_str:000000000000c6c0 .LASF5416
C:\Users\SOLDER~1\AppData\Local\Temp\cc2EfhU3.s:22464  .debug_str:0000000000011014 .LASF5417
C:\Users\SOLDER~1\AppData\Local\Temp\cc2EfhU3.s:20890  .debug_str:000000000000a949 .LASF5418
C:\Users\SOLDER~1\AppData\Local\Temp\cc2EfhU3.s:29228  .debug_str:000000000002c9c0 .LASF5419
C:\Users\SOLDER~1\AppData\Local\Temp\cc2EfhU3.s:25762  .debug_str:000000000001e770 .LASF5420
C:\Users\SOLDER~1\AppData\Local\Temp\cc2EfhU3.s:26790  .debug_str:0000000000022a18 .LASF5421
C:\Users\SOLDER~1\AppData\Local\Temp\cc2EfhU3.s:25246  .debug_str:000000000001c586 .LASF5422
C:\Users\SOLDER~1\AppData\Local\Temp\cc2EfhU3.s:20438  .debug_str:0000000000008b41 .LASF5423
C:\Users\SOLDER~1\AppData\Local\Temp\cc2EfhU3.s:28106  .debug_str:00000000000280de .LASF5424
GAS LISTING C:\Users\SOLDER~1\AppData\Local\Temp\cc2EfhU3.s 			page 106


C:\Users\SOLDER~1\AppData\Local\Temp\cc2EfhU3.s:29482  .debug_str:000000000002da62 .LASF5425
C:\Users\SOLDER~1\AppData\Local\Temp\cc2EfhU3.s:19638  .debug_str:0000000000005687 .LASF5426
C:\Users\SOLDER~1\AppData\Local\Temp\cc2EfhU3.s:23276  .debug_str:000000000001460f .LASF5427
C:\Users\SOLDER~1\AppData\Local\Temp\cc2EfhU3.s:28904  .debug_str:000000000002b4dc .LASF5428
C:\Users\SOLDER~1\AppData\Local\Temp\cc2EfhU3.s:29294  .debug_str:000000000002ce3e .LASF5429
C:\Users\SOLDER~1\AppData\Local\Temp\cc2EfhU3.s:22538  .debug_str:0000000000011519 .LASF5430
C:\Users\SOLDER~1\AppData\Local\Temp\cc2EfhU3.s:19426  .debug_str:00000000000049a4 .LASF5431
C:\Users\SOLDER~1\AppData\Local\Temp\cc2EfhU3.s:19074  .debug_str:0000000000003326 .LASF5432
C:\Users\SOLDER~1\AppData\Local\Temp\cc2EfhU3.s:24986  .debug_str:000000000001b44a .LASF5433
C:\Users\SOLDER~1\AppData\Local\Temp\cc2EfhU3.s:28242  .debug_str:00000000000289ca .LASF5434
C:\Users\SOLDER~1\AppData\Local\Temp\cc2EfhU3.s:20860  .debug_str:000000000000a750 .LASF5435
C:\Users\SOLDER~1\AppData\Local\Temp\cc2EfhU3.s:22094  .debug_str:000000000000f822 .LASF5436
C:\Users\SOLDER~1\AppData\Local\Temp\cc2EfhU3.s:25402  .debug_str:000000000001d022 .LASF5437
C:\Users\SOLDER~1\AppData\Local\Temp\cc2EfhU3.s:26250  .debug_str:000000000002073a .LASF5438
C:\Users\SOLDER~1\AppData\Local\Temp\cc2EfhU3.s:20728  .debug_str:0000000000009e5f .LASF5439
C:\Users\SOLDER~1\AppData\Local\Temp\cc2EfhU3.s:18704  .debug_str:0000000000001af0 .LASF5440
C:\Users\SOLDER~1\AppData\Local\Temp\cc2EfhU3.s:24558  .debug_str:00000000000198cb .LASF5441
C:\Users\SOLDER~1\AppData\Local\Temp\cc2EfhU3.s:19456  .debug_str:0000000000004b7c .LASF5442
C:\Users\SOLDER~1\AppData\Local\Temp\cc2EfhU3.s:29070  .debug_str:000000000002bfcc .LASF5443
C:\Users\SOLDER~1\AppData\Local\Temp\cc2EfhU3.s:26132  .debug_str:000000000001ff7b .LASF5444
C:\Users\SOLDER~1\AppData\Local\Temp\cc2EfhU3.s:26614  .debug_str:0000000000021e96 .LASF5445
C:\Users\SOLDER~1\AppData\Local\Temp\cc2EfhU3.s:23756  .debug_str:00000000000164f8 .LASF5446
C:\Users\SOLDER~1\AppData\Local\Temp\cc2EfhU3.s:22288  .debug_str:00000000000104ea .LASF5447
C:\Users\SOLDER~1\AppData\Local\Temp\cc2EfhU3.s:23620  .debug_str:0000000000015c5c .LASF5448
C:\Users\SOLDER~1\AppData\Local\Temp\cc2EfhU3.s:22614  .debug_str:00000000000119c6 .LASF5449
C:\Users\SOLDER~1\AppData\Local\Temp\cc2EfhU3.s:27556  .debug_str:0000000000025c37 .LASF5450
C:\Users\SOLDER~1\AppData\Local\Temp\cc2EfhU3.s:22168  .debug_str:000000000000fd3d .LASF5451
C:\Users\SOLDER~1\AppData\Local\Temp\cc2EfhU3.s:21048  .debug_str:000000000000b361 .LASF5452
C:\Users\SOLDER~1\AppData\Local\Temp\cc2EfhU3.s:22936  .debug_str:0000000000012e59 .LASF5453
C:\Users\SOLDER~1\AppData\Local\Temp\cc2EfhU3.s:22002  .debug_str:000000000000f1fb .LASF5454
C:\Users\SOLDER~1\AppData\Local\Temp\cc2EfhU3.s:19170  .debug_str:0000000000003948 .LASF5455
C:\Users\SOLDER~1\AppData\Local\Temp\cc2EfhU3.s:20842  .debug_str:000000000000a61e .LASF5456
C:\Users\SOLDER~1\AppData\Local\Temp\cc2EfhU3.s:19332  .debug_str:00000000000043a1 .LASF5457
C:\Users\SOLDER~1\AppData\Local\Temp\cc2EfhU3.s:20778  .debug_str:000000000000a1cf .LASF5458
C:\Users\SOLDER~1\AppData\Local\Temp\cc2EfhU3.s:20692  .debug_str:0000000000009be0 .LASF5459
C:\Users\SOLDER~1\AppData\Local\Temp\cc2EfhU3.s:29028  .debug_str:000000000002bce6 .LASF5460
C:\Users\SOLDER~1\AppData\Local\Temp\cc2EfhU3.s:23882  .debug_str:0000000000016ca7 .LASF5461
C:\Users\SOLDER~1\AppData\Local\Temp\cc2EfhU3.s:24670  .debug_str:0000000000019fd4 .LASF5462
C:\Users\SOLDER~1\AppData\Local\Temp\cc2EfhU3.s:23500  .debug_str:00000000000154c5 .LASF5463
C:\Users\SOLDER~1\AppData\Local\Temp\cc2EfhU3.s:26488  .debug_str:0000000000021680 .LASF5464
C:\Users\SOLDER~1\AppData\Local\Temp\cc2EfhU3.s:27606  .debug_str:0000000000025fb2 .LASF5465
C:\Users\SOLDER~1\AppData\Local\Temp\cc2EfhU3.s:21124  .debug_str:000000000000b834 .LASF5466
C:\Users\SOLDER~1\AppData\Local\Temp\cc2EfhU3.s:20000  .debug_str:0000000000006eb7 .LASF5467
C:\Users\SOLDER~1\AppData\Local\Temp\cc2EfhU3.s:20572  .debug_str:0000000000009468 .LASF5468
C:\Users\SOLDER~1\AppData\Local\Temp\cc2EfhU3.s:21132  .debug_str:000000000000b8a8 .LASF5469
C:\Users\SOLDER~1\AppData\Local\Temp\cc2EfhU3.s:22056  .debug_str:000000000000f569 .LASF5470
C:\Users\SOLDER~1\AppData\Local\Temp\cc2EfhU3.s:24788  .debug_str:000000000001a789 .LASF5471
C:\Users\SOLDER~1\AppData\Local\Temp\cc2EfhU3.s:25388  .debug_str:000000000001cef8 .LASF5472
C:\Users\SOLDER~1\AppData\Local\Temp\cc2EfhU3.s:29154  .debug_str:000000000002c519 .LASF5473
C:\Users\SOLDER~1\AppData\Local\Temp\cc2EfhU3.s:28696  .debug_str:000000000002a72c .LASF5474
C:\Users\SOLDER~1\AppData\Local\Temp\cc2EfhU3.s:25308  .debug_str:000000000001c9c9 .LASF5475
C:\Users\SOLDER~1\AppData\Local\Temp\cc2EfhU3.s:22092  .debug_str:000000000000f7f6 .LASF5476
C:\Users\SOLDER~1\AppData\Local\Temp\cc2EfhU3.s:23886  .debug_str:0000000000016ceb .LASF5477
C:\Users\SOLDER~1\AppData\Local\Temp\cc2EfhU3.s:21442  .debug_str:000000000000cdb0 .LASF5478
C:\Users\SOLDER~1\AppData\Local\Temp\cc2EfhU3.s:20690  .debug_str:0000000000009bbd .LASF5479
C:\Users\SOLDER~1\AppData\Local\Temp\cc2EfhU3.s:27430  .debug_str:0000000000025392 .LASF5480
C:\Users\SOLDER~1\AppData\Local\Temp\cc2EfhU3.s:22174  .debug_str:000000000000fda0 .LASF5481
GAS LISTING C:\Users\SOLDER~1\AppData\Local\Temp\cc2EfhU3.s 			page 107


C:\Users\SOLDER~1\AppData\Local\Temp\cc2EfhU3.s:29460  .debug_str:000000000002d8e2 .LASF5482
C:\Users\SOLDER~1\AppData\Local\Temp\cc2EfhU3.s:25758  .debug_str:000000000001e725 .LASF5483
C:\Users\SOLDER~1\AppData\Local\Temp\cc2EfhU3.s:18448  .debug_str:0000000000000a3f .LASF5484
C:\Users\SOLDER~1\AppData\Local\Temp\cc2EfhU3.s:23114  .debug_str:0000000000013ad6 .LASF5485
C:\Users\SOLDER~1\AppData\Local\Temp\cc2EfhU3.s:28276  .debug_str:0000000000028be1 .LASF5486
C:\Users\SOLDER~1\AppData\Local\Temp\cc2EfhU3.s:24818  .debug_str:000000000001a947 .LASF5487
C:\Users\SOLDER~1\AppData\Local\Temp\cc2EfhU3.s:21106  .debug_str:000000000000b6f5 .LASF5488
C:\Users\SOLDER~1\AppData\Local\Temp\cc2EfhU3.s:23918  .debug_str:0000000000016f14 .LASF5489
C:\Users\SOLDER~1\AppData\Local\Temp\cc2EfhU3.s:28598  .debug_str:000000000002a123 .LASF5490
C:\Users\SOLDER~1\AppData\Local\Temp\cc2EfhU3.s:21830  .debug_str:000000000000e6f9 .LASF5491
C:\Users\SOLDER~1\AppData\Local\Temp\cc2EfhU3.s:25036  .debug_str:000000000001b748 .LASF5492
C:\Users\SOLDER~1\AppData\Local\Temp\cc2EfhU3.s:21578  .debug_str:000000000000d69f .LASF5493
C:\Users\SOLDER~1\AppData\Local\Temp\cc2EfhU3.s:27732  .debug_str:000000000002685d .LASF5494
C:\Users\SOLDER~1\AppData\Local\Temp\cc2EfhU3.s:27078  .debug_str:0000000000023cbd .LASF5495
C:\Users\SOLDER~1\AppData\Local\Temp\cc2EfhU3.s:29000  .debug_str:000000000002baef .LASF5496
C:\Users\SOLDER~1\AppData\Local\Temp\cc2EfhU3.s:21466  .debug_str:000000000000cf31 .LASF5497
C:\Users\SOLDER~1\AppData\Local\Temp\cc2EfhU3.s:27022  .debug_str:00000000000238ff .LASF5498
C:\Users\SOLDER~1\AppData\Local\Temp\cc2EfhU3.s:24250  .debug_str:00000000000184f6 .LASF5499
C:\Users\SOLDER~1\AppData\Local\Temp\cc2EfhU3.s:28168  .debug_str:00000000000284d1 .LASF5500
C:\Users\SOLDER~1\AppData\Local\Temp\cc2EfhU3.s:24844  .debug_str:000000000001ab62 .LASF5501
C:\Users\SOLDER~1\AppData\Local\Temp\cc2EfhU3.s:29610  .debug_str:000000000002e26b .LASF5502
C:\Users\SOLDER~1\AppData\Local\Temp\cc2EfhU3.s:19576  .debug_str:00000000000052d5 .LASF5503
C:\Users\SOLDER~1\AppData\Local\Temp\cc2EfhU3.s:20882  .debug_str:000000000000a8b9 .LASF5504
C:\Users\SOLDER~1\AppData\Local\Temp\cc2EfhU3.s:23242  .debug_str:000000000001439d .LASF5505
C:\Users\SOLDER~1\AppData\Local\Temp\cc2EfhU3.s:21504  .debug_str:000000000000d1b4 .LASF5506
C:\Users\SOLDER~1\AppData\Local\Temp\cc2EfhU3.s:26400  .debug_str:0000000000021119 .LASF5507
C:\Users\SOLDER~1\AppData\Local\Temp\cc2EfhU3.s:26172  .debug_str:0000000000020219 .LASF5508
C:\Users\SOLDER~1\AppData\Local\Temp\cc2EfhU3.s:23324  .debug_str:0000000000014932 .LASF5509
C:\Users\SOLDER~1\AppData\Local\Temp\cc2EfhU3.s:22566  .debug_str:000000000001169d .LASF5510
C:\Users\SOLDER~1\AppData\Local\Temp\cc2EfhU3.s:26410  .debug_str:00000000000211a5 .LASF5511
C:\Users\SOLDER~1\AppData\Local\Temp\cc2EfhU3.s:26332  .debug_str:0000000000020c7b .LASF5512
C:\Users\SOLDER~1\AppData\Local\Temp\cc2EfhU3.s:20012  .debug_str:0000000000006fa9 .LASF5513
C:\Users\SOLDER~1\AppData\Local\Temp\cc2EfhU3.s:26436  .debug_str:0000000000021345 .LASF5514
C:\Users\SOLDER~1\AppData\Local\Temp\cc2EfhU3.s:28042  .debug_str:0000000000027caf .LASF5515
C:\Users\SOLDER~1\AppData\Local\Temp\cc2EfhU3.s:28596  .debug_str:000000000002a101 .LASF5516
C:\Users\SOLDER~1\AppData\Local\Temp\cc2EfhU3.s:25110  .debug_str:000000000001bc48 .LASF5517
C:\Users\SOLDER~1\AppData\Local\Temp\cc2EfhU3.s:21542  .debug_str:000000000000d43e .LASF5518
C:\Users\SOLDER~1\AppData\Local\Temp\cc2EfhU3.s:29036  .debug_str:000000000002bd73 .LASF5519
C:\Users\SOLDER~1\AppData\Local\Temp\cc2EfhU3.s:26896  .debug_str:00000000000230cc .LASF5520
C:\Users\SOLDER~1\AppData\Local\Temp\cc2EfhU3.s:18664  .debug_str:0000000000001858 .LASF5521
C:\Users\SOLDER~1\AppData\Local\Temp\cc2EfhU3.s:23014  .debug_str:0000000000013393 .LASF5522
C:\Users\SOLDER~1\AppData\Local\Temp\cc2EfhU3.s:22728  .debug_str:00000000000120ff .LASF5523
C:\Users\SOLDER~1\AppData\Local\Temp\cc2EfhU3.s:22258  .debug_str:00000000000102fa .LASF5524
C:\Users\SOLDER~1\AppData\Local\Temp\cc2EfhU3.s:18788  .debug_str:000000000000206f .LASF5525
C:\Users\SOLDER~1\AppData\Local\Temp\cc2EfhU3.s:18520  .debug_str:0000000000000f36 .LASF5526
C:\Users\SOLDER~1\AppData\Local\Temp\cc2EfhU3.s:26046  .debug_str:000000000001fa28 .LASF5527
C:\Users\SOLDER~1\AppData\Local\Temp\cc2EfhU3.s:29300  .debug_str:000000000002cec4 .LASF5528
C:\Users\SOLDER~1\AppData\Local\Temp\cc2EfhU3.s:25816  .debug_str:000000000001eaeb .LASF5529
C:\Users\SOLDER~1\AppData\Local\Temp\cc2EfhU3.s:27154  .debug_str:00000000000241d4 .LASF5530
C:\Users\SOLDER~1\AppData\Local\Temp\cc2EfhU3.s:20028  .debug_str:00000000000070c2 .LASF5531
C:\Users\SOLDER~1\AppData\Local\Temp\cc2EfhU3.s:25158  .debug_str:000000000001bf7d .LASF5532
C:\Users\SOLDER~1\AppData\Local\Temp\cc2EfhU3.s:22880  .debug_str:0000000000012a8e .LASF5533
C:\Users\SOLDER~1\AppData\Local\Temp\cc2EfhU3.s:29698  .debug_str:000000000002e85f .LASF5534
C:\Users\SOLDER~1\AppData\Local\Temp\cc2EfhU3.s:21582  .debug_str:000000000000d6e4 .LASF5535
C:\Users\SOLDER~1\AppData\Local\Temp\cc2EfhU3.s:26694  .debug_str:0000000000022393 .LASF5536
C:\Users\SOLDER~1\AppData\Local\Temp\cc2EfhU3.s:21512  .debug_str:000000000000d22c .LASF5537
C:\Users\SOLDER~1\AppData\Local\Temp\cc2EfhU3.s:27686  .debug_str:0000000000026526 .LASF5538
GAS LISTING C:\Users\SOLDER~1\AppData\Local\Temp\cc2EfhU3.s 			page 108


C:\Users\SOLDER~1\AppData\Local\Temp\cc2EfhU3.s:21524  .debug_str:000000000000d30a .LASF5539
C:\Users\SOLDER~1\AppData\Local\Temp\cc2EfhU3.s:28516  .debug_str:0000000000029b81 .LASF5540
C:\Users\SOLDER~1\AppData\Local\Temp\cc2EfhU3.s:28890  .debug_str:000000000002b3d8 .LASF5541
C:\Users\SOLDER~1\AppData\Local\Temp\cc2EfhU3.s:26720  .debug_str:0000000000022541 .LASF5542
C:\Users\SOLDER~1\AppData\Local\Temp\cc2EfhU3.s:27946  .debug_str:0000000000027661 .LASF5543
C:\Users\SOLDER~1\AppData\Local\Temp\cc2EfhU3.s:23422  .debug_str:0000000000014f80 .LASF5544
C:\Users\SOLDER~1\AppData\Local\Temp\cc2EfhU3.s:29462  .debug_str:000000000002d906 .LASF5545
C:\Users\SOLDER~1\AppData\Local\Temp\cc2EfhU3.s:24236  .debug_str:00000000000183f1 .LASF5546
C:\Users\SOLDER~1\AppData\Local\Temp\cc2EfhU3.s:23306  .debug_str:00000000000147db .LASF5547
C:\Users\SOLDER~1\AppData\Local\Temp\cc2EfhU3.s:23108  .debug_str:0000000000013a56 .LASF5548
C:\Users\SOLDER~1\AppData\Local\Temp\cc2EfhU3.s:20746  .debug_str:0000000000009f80 .LASF5549
C:\Users\SOLDER~1\AppData\Local\Temp\cc2EfhU3.s:25420  .debug_str:000000000001d153 .LASF5550
C:\Users\SOLDER~1\AppData\Local\Temp\cc2EfhU3.s:20876  .debug_str:000000000000a844 .LASF5551
C:\Users\SOLDER~1\AppData\Local\Temp\cc2EfhU3.s:27562  .debug_str:0000000000025c9b .LASF5552
C:\Users\SOLDER~1\AppData\Local\Temp\cc2EfhU3.s:19006  .debug_str:0000000000002ebf .LASF5553
C:\Users\SOLDER~1\AppData\Local\Temp\cc2EfhU3.s:19442  .debug_str:0000000000004a82 .LASF5554
C:\Users\SOLDER~1\AppData\Local\Temp\cc2EfhU3.s:20982  .debug_str:000000000000af3d .LASF5555
C:\Users\SOLDER~1\AppData\Local\Temp\cc2EfhU3.s:24444  .debug_str:000000000001918e .LASF5556
C:\Users\SOLDER~1\AppData\Local\Temp\cc2EfhU3.s:21536  .debug_str:000000000000d3e3 .LASF5557
C:\Users\SOLDER~1\AppData\Local\Temp\cc2EfhU3.s:19342  .debug_str:0000000000004443 .LASF5558
C:\Users\SOLDER~1\AppData\Local\Temp\cc2EfhU3.s:28110  .debug_str:000000000002811d .LASF5559
C:\Users\SOLDER~1\AppData\Local\Temp\cc2EfhU3.s:21012  .debug_str:000000000000b0fd .LASF5560
C:\Users\SOLDER~1\AppData\Local\Temp\cc2EfhU3.s:25534  .debug_str:000000000001d848 .LASF5561
C:\Users\SOLDER~1\AppData\Local\Temp\cc2EfhU3.s:28048  .debug_str:0000000000027d05 .LASF5562
C:\Users\SOLDER~1\AppData\Local\Temp\cc2EfhU3.s:25274  .debug_str:000000000001c75e .LASF5563
C:\Users\SOLDER~1\AppData\Local\Temp\cc2EfhU3.s:29660  .debug_str:000000000002e5c9 .LASF5564
C:\Users\SOLDER~1\AppData\Local\Temp\cc2EfhU3.s:28742  .debug_str:000000000002aa54 .LASF5565
C:\Users\SOLDER~1\AppData\Local\Temp\cc2EfhU3.s:29012  .debug_str:000000000002bbc2 .LASF5566
C:\Users\SOLDER~1\AppData\Local\Temp\cc2EfhU3.s:24496  .debug_str:0000000000019539 .LASF5567
C:\Users\SOLDER~1\AppData\Local\Temp\cc2EfhU3.s:19960  .debug_str:0000000000006bfe .LASF5568
C:\Users\SOLDER~1\AppData\Local\Temp\cc2EfhU3.s:18538  .debug_str:0000000000001033 .LASF5569
C:\Users\SOLDER~1\AppData\Local\Temp\cc2EfhU3.s:26774  .debug_str:0000000000022910 .LASF5570
C:\Users\SOLDER~1\AppData\Local\Temp\cc2EfhU3.s:18444  .debug_str:00000000000009f9 .LASF5571
C:\Users\SOLDER~1\AppData\Local\Temp\cc2EfhU3.s:23136  .debug_str:0000000000013c4a .LASF5572
C:\Users\SOLDER~1\AppData\Local\Temp\cc2EfhU3.s:22508  .debug_str:00000000000112d6 .LASF5573
C:\Users\SOLDER~1\AppData\Local\Temp\cc2EfhU3.s:27224  .debug_str:0000000000024678 .LASF5574
C:\Users\SOLDER~1\AppData\Local\Temp\cc2EfhU3.s:18558  .debug_str:0000000000001176 .LASF5575
C:\Users\SOLDER~1\AppData\Local\Temp\cc2EfhU3.s:23946  .debug_str:0000000000017101 .LASF5576
C:\Users\SOLDER~1\AppData\Local\Temp\cc2EfhU3.s:25122  .debug_str:000000000001bd17 .LASF5577
C:\Users\SOLDER~1\AppData\Local\Temp\cc2EfhU3.s:20116  .debug_str:0000000000007642 .LASF5578
C:\Users\SOLDER~1\AppData\Local\Temp\cc2EfhU3.s:21834  .debug_str:000000000000e741 .LASF5579
C:\Users\SOLDER~1\AppData\Local\Temp\cc2EfhU3.s:20162  .debug_str:0000000000007926 .LASF5580
C:\Users\SOLDER~1\AppData\Local\Temp\cc2EfhU3.s:24636  .debug_str:0000000000019d99 .LASF5581
C:\Users\SOLDER~1\AppData\Local\Temp\cc2EfhU3.s:24492  .debug_str:00000000000194e7 .LASF5582
C:\Users\SOLDER~1\AppData\Local\Temp\cc2EfhU3.s:24750  .debug_str:000000000001a4e9 .LASF5583
C:\Users\SOLDER~1\AppData\Local\Temp\cc2EfhU3.s:25934  .debug_str:000000000001f2e9 .LASF5584
C:\Users\SOLDER~1\AppData\Local\Temp\cc2EfhU3.s:22748  .debug_str:0000000000012230 .LASF5585
C:\Users\SOLDER~1\AppData\Local\Temp\cc2EfhU3.s:28788  .debug_str:000000000002ad1c .LASF5586
C:\Users\SOLDER~1\AppData\Local\Temp\cc2EfhU3.s:20508  .debug_str:0000000000009000 .LASF5587
C:\Users\SOLDER~1\AppData\Local\Temp\cc2EfhU3.s:26390  .debug_str:0000000000021077 .LASF5588
C:\Users\SOLDER~1\AppData\Local\Temp\cc2EfhU3.s:22154  .debug_str:000000000000fc4c .LASF5589
C:\Users\SOLDER~1\AppData\Local\Temp\cc2EfhU3.s:20878  .debug_str:000000000000a876 .LASF5590
C:\Users\SOLDER~1\AppData\Local\Temp\cc2EfhU3.s:24344  .debug_str:0000000000018b17 .LASF5591
C:\Users\SOLDER~1\AppData\Local\Temp\cc2EfhU3.s:19742  .debug_str:0000000000005d90 .LASF5592
C:\Users\SOLDER~1\AppData\Local\Temp\cc2EfhU3.s:20146  .debug_str:00000000000077ed .LASF5593
C:\Users\SOLDER~1\AppData\Local\Temp\cc2EfhU3.s:20792  .debug_str:000000000000a298 .LASF5594
C:\Users\SOLDER~1\AppData\Local\Temp\cc2EfhU3.s:26848  .debug_str:0000000000022da5 .LASF5595
GAS LISTING C:\Users\SOLDER~1\AppData\Local\Temp\cc2EfhU3.s 			page 109


C:\Users\SOLDER~1\AppData\Local\Temp\cc2EfhU3.s:25524  .debug_str:000000000001d798 .LASF5596
C:\Users\SOLDER~1\AppData\Local\Temp\cc2EfhU3.s:18410  .debug_str:000000000000077f .LASF5597
C:\Users\SOLDER~1\AppData\Local\Temp\cc2EfhU3.s:22374  .debug_str:0000000000010a5e .LASF5598
C:\Users\SOLDER~1\AppData\Local\Temp\cc2EfhU3.s:29322  .debug_str:000000000002d037 .LASF5599
C:\Users\SOLDER~1\AppData\Local\Temp\cc2EfhU3.s:19496  .debug_str:0000000000004e00 .LASF5600
C:\Users\SOLDER~1\AppData\Local\Temp\cc2EfhU3.s:27056  .debug_str:0000000000023b3f .LASF5601
C:\Users\SOLDER~1\AppData\Local\Temp\cc2EfhU3.s:28002  .debug_str:00000000000279d4 .LASF5602
C:\Users\SOLDER~1\AppData\Local\Temp\cc2EfhU3.s:26572  .debug_str:0000000000021bef .LASF5603
C:\Users\SOLDER~1\AppData\Local\Temp\cc2EfhU3.s:26524  .debug_str:00000000000218e8 .LASF5604
C:\Users\SOLDER~1\AppData\Local\Temp\cc2EfhU3.s:26128  .debug_str:000000000001ff3d .LASF5605
C:\Users\SOLDER~1\AppData\Local\Temp\cc2EfhU3.s:18740  .debug_str:0000000000001d6d .LASF5606
C:\Users\SOLDER~1\AppData\Local\Temp\cc2EfhU3.s:28274  .debug_str:0000000000028bb8 .LASF5607
C:\Users\SOLDER~1\AppData\Local\Temp\cc2EfhU3.s:25396  .debug_str:000000000001cfa5 .LASF5608
C:\Users\SOLDER~1\AppData\Local\Temp\cc2EfhU3.s:29270  .debug_str:000000000002cc7f .LASF5609
C:\Users\SOLDER~1\AppData\Local\Temp\cc2EfhU3.s:19966  .debug_str:0000000000006c4b .LASF5610
C:\Users\SOLDER~1\AppData\Local\Temp\cc2EfhU3.s:21252  .debug_str:000000000000c09f .LASF5611
C:\Users\SOLDER~1\AppData\Local\Temp\cc2EfhU3.s:28512  .debug_str:0000000000029b34 .LASF5612
C:\Users\SOLDER~1\AppData\Local\Temp\cc2EfhU3.s:24348  .debug_str:0000000000018b52 .LASF5613
C:\Users\SOLDER~1\AppData\Local\Temp\cc2EfhU3.s:27168  .debug_str:00000000000242b2 .LASF5614
C:\Users\SOLDER~1\AppData\Local\Temp\cc2EfhU3.s:25578  .debug_str:000000000001db2f .LASF5615
C:\Users\SOLDER~1\AppData\Local\Temp\cc2EfhU3.s:23892  .debug_str:0000000000016d55 .LASF5616
C:\Users\SOLDER~1\AppData\Local\Temp\cc2EfhU3.s:19622  .debug_str:0000000000005589 .LASF5617
C:\Users\SOLDER~1\AppData\Local\Temp\cc2EfhU3.s:21880  .debug_str:000000000000ea3d .LASF5618
C:\Users\SOLDER~1\AppData\Local\Temp\cc2EfhU3.s:27680  .debug_str:00000000000264bd .LASF5619
C:\Users\SOLDER~1\AppData\Local\Temp\cc2EfhU3.s:22536  .debug_str:00000000000114f9 .LASF5620
C:\Users\SOLDER~1\AppData\Local\Temp\cc2EfhU3.s:24892  .debug_str:000000000001ae71 .LASF5621
C:\Users\SOLDER~1\AppData\Local\Temp\cc2EfhU3.s:18402  .debug_str:0000000000000720 .LASF5622
C:\Users\SOLDER~1\AppData\Local\Temp\cc2EfhU3.s:20910  .debug_str:000000000000aa9b .LASF5623
C:\Users\SOLDER~1\AppData\Local\Temp\cc2EfhU3.s:25640  .debug_str:000000000001df52 .LASF5624
C:\Users\SOLDER~1\AppData\Local\Temp\cc2EfhU3.s:22834  .debug_str:00000000000127b1 .LASF5625
C:\Users\SOLDER~1\AppData\Local\Temp\cc2EfhU3.s:23088  .debug_str:00000000000138bf .LASF5626
C:\Users\SOLDER~1\AppData\Local\Temp\cc2EfhU3.s:21286  .debug_str:000000000000c300 .LASF5627
C:\Users\SOLDER~1\AppData\Local\Temp\cc2EfhU3.s:26334  .debug_str:0000000000020c99 .LASF5628
C:\Users\SOLDER~1\AppData\Local\Temp\cc2EfhU3.s:23980  .debug_str:0000000000017343 .LASF5629
C:\Users\SOLDER~1\AppData\Local\Temp\cc2EfhU3.s:28190  .debug_str:0000000000028678 .LASF5630
C:\Users\SOLDER~1\AppData\Local\Temp\cc2EfhU3.s:23986  .debug_str:00000000000173b1 .LASF5631
C:\Users\SOLDER~1\AppData\Local\Temp\cc2EfhU3.s:29492  .debug_str:000000000002db0f .LASF5632
C:\Users\SOLDER~1\AppData\Local\Temp\cc2EfhU3.s:23766  .debug_str:0000000000016570 .LASF5633
C:\Users\SOLDER~1\AppData\Local\Temp\cc2EfhU3.s:25336  .debug_str:000000000001cba0 .LASF5634
C:\Users\SOLDER~1\AppData\Local\Temp\cc2EfhU3.s:26920  .debug_str:000000000002329c .LASF5635
C:\Users\SOLDER~1\AppData\Local\Temp\cc2EfhU3.s:22410  .debug_str:0000000000010c8d .LASF5636
C:\Users\SOLDER~1\AppData\Local\Temp\cc2EfhU3.s:24246  .debug_str:00000000000184a4 .LASF5637
C:\Users\SOLDER~1\AppData\Local\Temp\cc2EfhU3.s:20366  .debug_str:000000000000867c .LASF5638
C:\Users\SOLDER~1\AppData\Local\Temp\cc2EfhU3.s:23070  .debug_str:0000000000013746 .LASF5639
C:\Users\SOLDER~1\AppData\Local\Temp\cc2EfhU3.s:26492  .debug_str:00000000000216b9 .LASF5640
C:\Users\SOLDER~1\AppData\Local\Temp\cc2EfhU3.s:28806  .debug_str:000000000002ae79 .LASF5641
C:\Users\SOLDER~1\AppData\Local\Temp\cc2EfhU3.s:20830  .debug_str:000000000000a518 .LASF5642
C:\Users\SOLDER~1\AppData\Local\Temp\cc2EfhU3.s:26358  .debug_str:0000000000020e30 .LASF5643
C:\Users\SOLDER~1\AppData\Local\Temp\cc2EfhU3.s:22900  .debug_str:0000000000012c03 .LASF5644
C:\Users\SOLDER~1\AppData\Local\Temp\cc2EfhU3.s:27182  .debug_str:00000000000243ae .LASF5645
C:\Users\SOLDER~1\AppData\Local\Temp\cc2EfhU3.s:23378  .debug_str:0000000000014cdd .LASF5646
C:\Users\SOLDER~1\AppData\Local\Temp\cc2EfhU3.s:26736  .debug_str:000000000002265a .LASF5647
C:\Users\SOLDER~1\AppData\Local\Temp\cc2EfhU3.s:29700  .debug_str:000000000002e883 .LASF5648
C:\Users\SOLDER~1\AppData\Local\Temp\cc2EfhU3.s:29066  .debug_str:000000000002bf93 .LASF5649
C:\Users\SOLDER~1\AppData\Local\Temp\cc2EfhU3.s:28368  .debug_str:00000000000291ca .LASF5650
C:\Users\SOLDER~1\AppData\Local\Temp\cc2EfhU3.s:19978  .debug_str:0000000000006d24 .LASF5651
C:\Users\SOLDER~1\AppData\Local\Temp\cc2EfhU3.s:23376  .debug_str:0000000000014cb7 .LASF5652
GAS LISTING C:\Users\SOLDER~1\AppData\Local\Temp\cc2EfhU3.s 			page 110


C:\Users\SOLDER~1\AppData\Local\Temp\cc2EfhU3.s:19974  .debug_str:0000000000006ce7 .LASF5653
C:\Users\SOLDER~1\AppData\Local\Temp\cc2EfhU3.s:26870  .debug_str:0000000000022f26 .LASF5654
C:\Users\SOLDER~1\AppData\Local\Temp\cc2EfhU3.s:28884  .debug_str:000000000002b379 .LASF5655
C:\Users\SOLDER~1\AppData\Local\Temp\cc2EfhU3.s:19090  .debug_str:0000000000003448 .LASF5656
C:\Users\SOLDER~1\AppData\Local\Temp\cc2EfhU3.s:28868  .debug_str:000000000002b26b .LASF5657
C:\Users\SOLDER~1\AppData\Local\Temp\cc2EfhU3.s:25704  .debug_str:000000000001e339 .LASF5658
C:\Users\SOLDER~1\AppData\Local\Temp\cc2EfhU3.s:22260  .debug_str:000000000001031f .LASF5659
C:\Users\SOLDER~1\AppData\Local\Temp\cc2EfhU3.s:19938  .debug_str:0000000000006a90 .LASF5660
C:\Users\SOLDER~1\AppData\Local\Temp\cc2EfhU3.s:21996  .debug_str:000000000000f16a .LASF5661
C:\Users\SOLDER~1\AppData\Local\Temp\cc2EfhU3.s:18878  .debug_str:0000000000002683 .LASF5662
C:\Users\SOLDER~1\AppData\Local\Temp\cc2EfhU3.s:19092  .debug_str:0000000000003469 .LASF5663
C:\Users\SOLDER~1\AppData\Local\Temp\cc2EfhU3.s:22402  .debug_str:0000000000010c0c .LASF5664
C:\Users\SOLDER~1\AppData\Local\Temp\cc2EfhU3.s:20548  .debug_str:00000000000092a6 .LASF5665
C:\Users\SOLDER~1\AppData\Local\Temp\cc2EfhU3.s:19646  .debug_str:000000000000572c .LASF5666
C:\Users\SOLDER~1\AppData\Local\Temp\cc2EfhU3.s:27538  .debug_str:0000000000025afd .LASF5667
C:\Users\SOLDER~1\AppData\Local\Temp\cc2EfhU3.s:21426  .debug_str:000000000000cc96 .LASF5668
C:\Users\SOLDER~1\AppData\Local\Temp\cc2EfhU3.s:20022  .debug_str:0000000000007054 .LASF5669
C:\Users\SOLDER~1\AppData\Local\Temp\cc2EfhU3.s:29784  .debug_str:000000000002ed8d .LASF5670
C:\Users\SOLDER~1\AppData\Local\Temp\cc2EfhU3.s:20350  .debug_str:0000000000008578 .LASF5671
C:\Users\SOLDER~1\AppData\Local\Temp\cc2EfhU3.s:20036  .debug_str:0000000000007142 .LASF5672
C:\Users\SOLDER~1\AppData\Local\Temp\cc2EfhU3.s:23674  .debug_str:0000000000015fdf .LASF5673
C:\Users\SOLDER~1\AppData\Local\Temp\cc2EfhU3.s:29600  .debug_str:000000000002e1ba .LASF5674
C:\Users\SOLDER~1\AppData\Local\Temp\cc2EfhU3.s:18738  .debug_str:0000000000001d4c .LASF5675
C:\Users\SOLDER~1\AppData\Local\Temp\cc2EfhU3.s:23496  .debug_str:000000000001547c .LASF5676
C:\Users\SOLDER~1\AppData\Local\Temp\cc2EfhU3.s:29394  .debug_str:000000000002d4aa .LASF5677
C:\Users\SOLDER~1\AppData\Local\Temp\cc2EfhU3.s:25882  .debug_str:000000000001ef59 .LASF5678
C:\Users\SOLDER~1\AppData\Local\Temp\cc2EfhU3.s:22436  .debug_str:0000000000010e47 .LASF5679
C:\Users\SOLDER~1\AppData\Local\Temp\cc2EfhU3.s:27040  .debug_str:0000000000023a31 .LASF5680
C:\Users\SOLDER~1\AppData\Local\Temp\cc2EfhU3.s:26556  .debug_str:0000000000021afb .LASF5681
C:\Users\SOLDER~1\AppData\Local\Temp\cc2EfhU3.s:19106  .debug_str:000000000000353d .LASF5682
C:\Users\SOLDER~1\AppData\Local\Temp\cc2EfhU3.s:27932  .debug_str:0000000000027578 .LASF5683
C:\Users\SOLDER~1\AppData\Local\Temp\cc2EfhU3.s:23426  .debug_str:0000000000014fd6 .LASF5684
C:\Users\SOLDER~1\AppData\Local\Temp\cc2EfhU3.s:25376  .debug_str:000000000001ce25 .LASF5685
C:\Users\SOLDER~1\AppData\Local\Temp\cc2EfhU3.s:29024  .debug_str:000000000002bc94 .LASF5686
C:\Users\SOLDER~1\AppData\Local\Temp\cc2EfhU3.s:27386  .debug_str:00000000000250db .LASF5687
C:\Users\SOLDER~1\AppData\Local\Temp\cc2EfhU3.s:24834  .debug_str:000000000001aa79 .LASF5688
C:\Users\SOLDER~1\AppData\Local\Temp\cc2EfhU3.s:24826  .debug_str:000000000001a9eb .LASF5689
C:\Users\SOLDER~1\AppData\Local\Temp\cc2EfhU3.s:25164  .debug_str:000000000001bfe3 .LASF5690
C:\Users\SOLDER~1\AppData\Local\Temp\cc2EfhU3.s:23364  .debug_str:0000000000014bf0 .LASF5691
C:\Users\SOLDER~1\AppData\Local\Temp\cc2EfhU3.s:22804  .debug_str:00000000000125d7 .LASF5692
C:\Users\SOLDER~1\AppData\Local\Temp\cc2EfhU3.s:24832  .debug_str:000000000001aa57 .LASF5693
C:\Users\SOLDER~1\AppData\Local\Temp\cc2EfhU3.s:29602  .debug_str:000000000002e1dd .LASF5694
C:\Users\SOLDER~1\AppData\Local\Temp\cc2EfhU3.s:29514  .debug_str:000000000002dc85 .LASF5695
C:\Users\SOLDER~1\AppData\Local\Temp\cc2EfhU3.s:22228  .debug_str:00000000000100f9 .LASF5696
C:\Users\SOLDER~1\AppData\Local\Temp\cc2EfhU3.s:28872  .debug_str:000000000002b2ae .LASF5697
C:\Users\SOLDER~1\AppData\Local\Temp\cc2EfhU3.s:25580  .debug_str:000000000001db5e .LASF5698
C:\Users\SOLDER~1\AppData\Local\Temp\cc2EfhU3.s:22628  .debug_str:0000000000011aa6 .LASF5699
C:\Users\SOLDER~1\AppData\Local\Temp\cc2EfhU3.s:20196  .debug_str:0000000000007b73 .LASF5700
C:\Users\SOLDER~1\AppData\Local\Temp\cc2EfhU3.s:18562  .debug_str:00000000000011c8 .LASF5701
C:\Users\SOLDER~1\AppData\Local\Temp\cc2EfhU3.s:27082  .debug_str:0000000000023d0a .LASF5702
C:\Users\SOLDER~1\AppData\Local\Temp\cc2EfhU3.s:22776  .debug_str:00000000000123e7 .LASF5703
C:\Users\SOLDER~1\AppData\Local\Temp\cc2EfhU3.s:20458  .debug_str:0000000000008c80 .LASF5704
C:\Users\SOLDER~1\AppData\Local\Temp\cc2EfhU3.s:19684  .debug_str:00000000000059d5 .LASF5705
C:\Users\SOLDER~1\AppData\Local\Temp\cc2EfhU3.s:29098  .debug_str:000000000002c19a .LASF5706
C:\Users\SOLDER~1\AppData\Local\Temp\cc2EfhU3.s:21218  .debug_str:000000000000be50 .LASF5707
C:\Users\SOLDER~1\AppData\Local\Temp\cc2EfhU3.s:21412  .debug_str:000000000000cbaa .LASF5708
C:\Users\SOLDER~1\AppData\Local\Temp\cc2EfhU3.s:25494  .debug_str:000000000001d5e7 .LASF5709
GAS LISTING C:\Users\SOLDER~1\AppData\Local\Temp\cc2EfhU3.s 			page 111


C:\Users\SOLDER~1\AppData\Local\Temp\cc2EfhU3.s:24906  .debug_str:000000000001af13 .LASF5710
C:\Users\SOLDER~1\AppData\Local\Temp\cc2EfhU3.s:24382  .debug_str:0000000000018dae .LASF5711
                           .group:0000000000000000 wm4.0.cc27e0d2094b492664a2491ca1ae43b0
                           .group:0000000000000000 wm4.ch32v20x.h.13.a030255a3e90e7179ae3b08da8e2408d
                           .group:0000000000000000 wm4._newlib_version.h.4.529115dae5e4f67702b1de0b6e841f38
                           .group:0000000000000000 wm4.features.h.33.3e67abe6fb64142d4f6fa9496796153c
                           .group:0000000000000000 wm4._default_types.h.15.247e5cd201eca3442cbf5404108c4935
                           .group:0000000000000000 wm4._intsup.h.10.48bafbb683905c4daa4565a85aeeb264
                           .group:0000000000000000 wm4._stdint.h.10.c24fa3af3bc1706662bb5593a907e841
                           .group:0000000000000000 wm4.stdint.h.23.d53047a68f4a85177f80b422d52785ed
                           .group:0000000000000000 wm4.core_riscv.h.11.151d7acb41e203dcc664023294f59bdc
                           .group:0000000000000000 wm4.ch32v20x.h.153.1d8393f26361703471ea96fe9aa4b4f9
                           .group:0000000000000000 wm4.ch32v20x_adc.h.56.f131972e7ce35efbe3b5c47a075d6d1b
                           .group:0000000000000000 wm4.ch32v20x_bkp.h.14.0a7965eb5be5000a494c3059b6f0eca5
                           .group:0000000000000000 wm4.ch32v20x_can.h.14.aa1dae2c28cbaf083875b4b61810c3c7
                           .group:0000000000000000 wm4.ch32v20x_dbgmcu.h.14.26ef95879978d9caaa154b373f3a512b
                           .group:0000000000000000 wm4.ch32v20x_dma.h.14.425a907348dd0134bf6e82c73bbd3df8
                           .group:0000000000000000 wm4.ch32v20x_exti.h.14.f67190d3fb91aa9aecce0f4d5a543221
                           .group:0000000000000000 wm4.ch32v20x_flash.h.14.91c5ecdad44f358d5032244aabf7ef4e
                           .group:0000000000000000 wm4.ch32v20x_gpio.h.14.bdb7f79cce0dffbc24dc81ea80f90bd2
                           .group:0000000000000000 wm4.ch32v20x_i2c.h.14.101eb625c9d2afac400f4e8ac2e9fb1d
                           .group:0000000000000000 wm4.ch32v20x_iwdg.h.14.26025d04ceeb3151185969ed5850fbb4
                           .group:0000000000000000 wm4.ch32v20x_pwr.h.14.8eaa3508938f71b27f140895c21602e6
                           .group:0000000000000000 wm4.ch32v20x_rcc.h.13.18c6b8696a30372de01acaf3c246ecb8
                           .group:0000000000000000 wm4.ch32v20x_rtc.h.14.eb8734f5dd75abcf831b4f12ec49aebe
                           .group:0000000000000000 wm4.ch32v20x_spi.h.14.f12b1f237c615e7304ae62cc2e2c3c1a
                           .group:0000000000000000 wm4.ch32v20x_tim.h.14.35d11fab62898d9d661122ade86d8a6c
                           .group:0000000000000000 wm4.ch32v20x_usart.h.14.9d28c7ec28f2121810b69a55079cd38f
                           .group:0000000000000000 wm4.ch32v20x_wwdg.h.14.49bada437175894a4dce7e12e4216bc9
                           .group:0000000000000000 wm4.ch32v20x_misc.h.14.f3992cf724c30ec0bea268444ffdb6e0

NO UNDEFINED SYMBOLS
