GAS LISTING C:\Users\SOLDER~1\AppData\Local\Temp\ccUIzJuS.s 			page 1


   1              		.file	"ch32v20x_dma.c"
   2              		.option nopic
   3              		.attribute arch, "rv32i2p0_m2p0_a2p0_c2p0_xw"
   4              		.attribute unaligned_access, 0
   5              		.attribute stack_align, 16
   6              		.text
   7              	.Ltext0:
   8              		.cfi_sections	.debug_frame
   9              		.file 0 "C:\\Users\\Solderingiron\\Documents\\GitHub\\VSC-make-example\\VSC_CH32V203C8T6" "Drivers
  10              		.section	.text.DMA_DeInit,"ax",@progbits
  11              		.align	1
  12              		.globl	DMA_DeInit
  14              	DMA_DeInit:
  15              	.LFB16:
  16              		.file 1 "Drivers/src/ch32v20x_dma.c"
   1:Drivers/src/ch32v20x_dma.c **** /********************************** (C) COPYRIGHT  *******************************
   2:Drivers/src/ch32v20x_dma.c ****  * File Name          : ch32v20x_dma.c
   3:Drivers/src/ch32v20x_dma.c ****  * Author             : WCH
   4:Drivers/src/ch32v20x_dma.c ****  * Version            : V1.0.0
   5:Drivers/src/ch32v20x_dma.c ****  * Date               : 2021/06/06
   6:Drivers/src/ch32v20x_dma.c ****  * Description        : This file provides all the DMA firmware functions.
   7:Drivers/src/ch32v20x_dma.c **** *********************************************************************************
   8:Drivers/src/ch32v20x_dma.c **** * Copyright (c) 2021 Nanjing Qinheng Microelectronics Co., Ltd.
   9:Drivers/src/ch32v20x_dma.c **** * Attention: This software (modified or not) and binary are used for 
  10:Drivers/src/ch32v20x_dma.c **** * microcontroller manufactured by Nanjing Qinheng Microelectronics.
  11:Drivers/src/ch32v20x_dma.c **** *******************************************************************************/
  12:Drivers/src/ch32v20x_dma.c **** #include "ch32v20x_dma.h"
  13:Drivers/src/ch32v20x_dma.c **** #include "ch32v20x_rcc.h"
  14:Drivers/src/ch32v20x_dma.c **** 
  15:Drivers/src/ch32v20x_dma.c **** /* DMA1 Channelx interrupt pending bit masks */
  16:Drivers/src/ch32v20x_dma.c **** #define DMA1_Channel1_IT_Mask    ((uint32_t)(DMA_GIF1 | DMA_TCIF1 | DMA_HTIF1 | DMA_TEIF1))
  17:Drivers/src/ch32v20x_dma.c **** #define DMA1_Channel2_IT_Mask    ((uint32_t)(DMA_GIF2 | DMA_TCIF2 | DMA_HTIF2 | DMA_TEIF2))
  18:Drivers/src/ch32v20x_dma.c **** #define DMA1_Channel3_IT_Mask    ((uint32_t)(DMA_GIF3 | DMA_TCIF3 | DMA_HTIF3 | DMA_TEIF3))
  19:Drivers/src/ch32v20x_dma.c **** #define DMA1_Channel4_IT_Mask    ((uint32_t)(DMA_GIF4 | DMA_TCIF4 | DMA_HTIF4 | DMA_TEIF4))
  20:Drivers/src/ch32v20x_dma.c **** #define DMA1_Channel5_IT_Mask    ((uint32_t)(DMA_GIF5 | DMA_TCIF5 | DMA_HTIF5 | DMA_TEIF5))
  21:Drivers/src/ch32v20x_dma.c **** #define DMA1_Channel6_IT_Mask    ((uint32_t)(DMA_GIF6 | DMA_TCIF6 | DMA_HTIF6 | DMA_TEIF6))
  22:Drivers/src/ch32v20x_dma.c **** #define DMA1_Channel7_IT_Mask    ((uint32_t)(DMA_GIF7 | DMA_TCIF7 | DMA_HTIF7 | DMA_TEIF7))
  23:Drivers/src/ch32v20x_dma.c **** #define DMA1_Channel8_IT_Mask    ((uint32_t)(DMA_GIF8 | DMA_TCIF8 | DMA_HTIF8 | DMA_TEIF8))
  24:Drivers/src/ch32v20x_dma.c **** 
  25:Drivers/src/ch32v20x_dma.c **** /* DMA2 FLAG mask */
  26:Drivers/src/ch32v20x_dma.c **** #define FLAG_Mask                ((uint32_t)0x10000000)
  27:Drivers/src/ch32v20x_dma.c **** 
  28:Drivers/src/ch32v20x_dma.c **** /* DMA registers Masks */
  29:Drivers/src/ch32v20x_dma.c **** #define CFGR_CLEAR_Mask          ((uint32_t)0xFFFF800F)
  30:Drivers/src/ch32v20x_dma.c **** 
  31:Drivers/src/ch32v20x_dma.c **** /*********************************************************************
  32:Drivers/src/ch32v20x_dma.c ****  * @fn      DMA_DeInit
  33:Drivers/src/ch32v20x_dma.c ****  *
  34:Drivers/src/ch32v20x_dma.c ****  * @brief   Deinitializes the DMAy Channelx registers to their default
  35:Drivers/src/ch32v20x_dma.c ****  *        reset values.
  36:Drivers/src/ch32v20x_dma.c ****  *
  37:Drivers/src/ch32v20x_dma.c ****  * @param   DMAy_Channelx - here y can be 1 or 2 to select the DMA and x can be
  38:Drivers/src/ch32v20x_dma.c ****  *        1 to 7 for DMA1 and 1 to 11 for DMA2 to select the DMA Channel.
  39:Drivers/src/ch32v20x_dma.c ****  *
  40:Drivers/src/ch32v20x_dma.c ****  * @return  none
  41:Drivers/src/ch32v20x_dma.c ****  */
  42:Drivers/src/ch32v20x_dma.c **** void DMA_DeInit(DMA_Channel_TypeDef *DMAy_Channelx)
GAS LISTING C:\Users\SOLDER~1\AppData\Local\Temp\ccUIzJuS.s 			page 2


  43:Drivers/src/ch32v20x_dma.c **** {
  17              		.loc 1 43 1
  18              		.cfi_startproc
  19 0000 0111     		addi	sp,sp,-32
  20              		.cfi_def_cfa_offset 32
  21 0002 22CE     		sw	s0,28(sp)
  22              		.cfi_offset 8, -4
  23 0004 0010     		addi	s0,sp,32
  24              		.cfi_def_cfa 8, 0
  25 0006 2326A4FE 		sw	a0,-20(s0)
  44:Drivers/src/ch32v20x_dma.c ****     DMAy_Channelx->CFGR &= (uint16_t)(~DMA_CFGR1_EN);
  26              		.loc 1 44 18
  27 000a 8327C4FE 		lw	a5,-20(s0)
  28 000e 9843     		lw	a4,0(a5)
  29              		.loc 1 44 25
  30 0010 C167     		li	a5,65536
  31 0012 F917     		addi	a5,a5,-2
  32 0014 7D8F     		and	a4,a4,a5
  33 0016 8327C4FE 		lw	a5,-20(s0)
  34 001a 98C3     		sw	a4,0(a5)
  45:Drivers/src/ch32v20x_dma.c ****     DMAy_Channelx->CFGR = 0;
  35              		.loc 1 45 25
  36 001c 8327C4FE 		lw	a5,-20(s0)
  37 0020 23A00700 		sw	zero,0(a5)
  46:Drivers/src/ch32v20x_dma.c ****     DMAy_Channelx->CNTR = 0;
  38              		.loc 1 46 25
  39 0024 8327C4FE 		lw	a5,-20(s0)
  40 0028 23A20700 		sw	zero,4(a5)
  47:Drivers/src/ch32v20x_dma.c ****     DMAy_Channelx->PADDR = 0;
  41              		.loc 1 47 26
  42 002c 8327C4FE 		lw	a5,-20(s0)
  43 0030 23A40700 		sw	zero,8(a5)
  48:Drivers/src/ch32v20x_dma.c ****     DMAy_Channelx->MADDR = 0;
  44              		.loc 1 48 26
  45 0034 8327C4FE 		lw	a5,-20(s0)
  46 0038 23A60700 		sw	zero,12(a5)
  49:Drivers/src/ch32v20x_dma.c ****     if(DMAy_Channelx == DMA1_Channel1)
  47              		.loc 1 49 7
  48 003c 0327C4FE 		lw	a4,-20(s0)
  49 0040 B7070240 		li	a5,1073872896
  50 0044 A107     		addi	a5,a5,8
  51 0046 631BF700 		bne	a4,a5,.L2
  50:Drivers/src/ch32v20x_dma.c ****     {
  51:Drivers/src/ch32v20x_dma.c ****         DMA1->INTFCR |= DMA1_Channel1_IT_Mask;
  52              		.loc 1 51 13
  53 004a B7070240 		li	a5,1073872896
  54 004e D843     		lw	a4,4(a5)
  55 0050 B7070240 		li	a5,1073872896
  56              		.loc 1 51 22
  57 0054 1367F700 		ori	a4,a4,15
  58 0058 D8C3     		sw	a4,4(a5)
  52:Drivers/src/ch32v20x_dma.c ****     }
  53:Drivers/src/ch32v20x_dma.c ****     else if(DMAy_Channelx == DMA1_Channel2)
  54:Drivers/src/ch32v20x_dma.c ****     {
  55:Drivers/src/ch32v20x_dma.c ****         DMA1->INTFCR |= DMA1_Channel2_IT_Mask;
  56:Drivers/src/ch32v20x_dma.c ****     }
  57:Drivers/src/ch32v20x_dma.c ****     else if(DMAy_Channelx == DMA1_Channel3)
GAS LISTING C:\Users\SOLDER~1\AppData\Local\Temp\ccUIzJuS.s 			page 3


  58:Drivers/src/ch32v20x_dma.c ****     {
  59:Drivers/src/ch32v20x_dma.c ****         DMA1->INTFCR |= DMA1_Channel3_IT_Mask;
  60:Drivers/src/ch32v20x_dma.c ****     }
  61:Drivers/src/ch32v20x_dma.c ****     else if(DMAy_Channelx == DMA1_Channel4)
  62:Drivers/src/ch32v20x_dma.c ****     {
  63:Drivers/src/ch32v20x_dma.c ****         DMA1->INTFCR |= DMA1_Channel4_IT_Mask;
  64:Drivers/src/ch32v20x_dma.c ****     }
  65:Drivers/src/ch32v20x_dma.c ****     else if(DMAy_Channelx == DMA1_Channel5)
  66:Drivers/src/ch32v20x_dma.c ****     {
  67:Drivers/src/ch32v20x_dma.c ****         DMA1->INTFCR |= DMA1_Channel5_IT_Mask;
  68:Drivers/src/ch32v20x_dma.c ****     }
  69:Drivers/src/ch32v20x_dma.c ****     else if(DMAy_Channelx == DMA1_Channel6)
  70:Drivers/src/ch32v20x_dma.c ****     {
  71:Drivers/src/ch32v20x_dma.c ****         DMA1->INTFCR |= DMA1_Channel6_IT_Mask;
  72:Drivers/src/ch32v20x_dma.c ****     }
  73:Drivers/src/ch32v20x_dma.c ****     else if(DMAy_Channelx == DMA1_Channel7)
  74:Drivers/src/ch32v20x_dma.c ****     {
  75:Drivers/src/ch32v20x_dma.c ****         DMA1->INTFCR |= DMA1_Channel7_IT_Mask;
  76:Drivers/src/ch32v20x_dma.c ****     }
  77:Drivers/src/ch32v20x_dma.c ****     else if(DMAy_Channelx == DMA1_Channel8)
  78:Drivers/src/ch32v20x_dma.c ****     {
  79:Drivers/src/ch32v20x_dma.c ****         DMA1->INTFCR |= DMA1_Channel8_IT_Mask;
  80:Drivers/src/ch32v20x_dma.c ****     }
  81:Drivers/src/ch32v20x_dma.c **** }
  59              		.loc 1 81 1
  60 005a DDA8     		j	.L10
  61              	.L2:
  53:Drivers/src/ch32v20x_dma.c ****     {
  62              		.loc 1 53 12
  63 005c 0327C4FE 		lw	a4,-20(s0)
  64 0060 B7070240 		li	a5,1073872896
  65 0064 F107     		addi	a5,a5,28
  66 0066 631BF700 		bne	a4,a5,.L4
  55:Drivers/src/ch32v20x_dma.c ****     }
  67              		.loc 1 55 13
  68 006a B7070240 		li	a5,1073872896
  69 006e D843     		lw	a4,4(a5)
  70 0070 B7070240 		li	a5,1073872896
  55:Drivers/src/ch32v20x_dma.c ****     }
  71              		.loc 1 55 22
  72 0074 1367070F 		ori	a4,a4,240
  73 0078 D8C3     		sw	a4,4(a5)
  74              		.loc 1 81 1
  75 007a D9A8     		j	.L10
  76              	.L4:
  57:Drivers/src/ch32v20x_dma.c ****     {
  77              		.loc 1 57 12
  78 007c 0327C4FE 		lw	a4,-20(s0)
  79 0080 B7070240 		li	a5,1073872896
  80 0084 93870703 		addi	a5,a5,48
  81 0088 631DF700 		bne	a4,a5,.L5
  59:Drivers/src/ch32v20x_dma.c ****     }
  82              		.loc 1 59 13
  83 008c B7070240 		li	a5,1073872896
  84 0090 D443     		lw	a3,4(a5)
  85 0092 B7070240 		li	a5,1073872896
  59:Drivers/src/ch32v20x_dma.c ****     }
GAS LISTING C:\Users\SOLDER~1\AppData\Local\Temp\ccUIzJuS.s 			page 4


  86              		.loc 1 59 22
  87 0096 0567     		li	a4,4096
  88 0098 130707F0 		addi	a4,a4,-256
  89 009c 558F     		or	a4,a3,a4
  90 009e D8C3     		sw	a4,4(a5)
  91              		.loc 1 81 1
  92 00a0 45A8     		j	.L10
  93              	.L5:
  61:Drivers/src/ch32v20x_dma.c ****     {
  94              		.loc 1 61 12
  95 00a2 0327C4FE 		lw	a4,-20(s0)
  96 00a6 B7070240 		li	a5,1073872896
  97 00aa 93874704 		addi	a5,a5,68
  98 00ae 631BF700 		bne	a4,a5,.L6
  63:Drivers/src/ch32v20x_dma.c ****     }
  99              		.loc 1 63 13
 100 00b2 B7070240 		li	a5,1073872896
 101 00b6 D443     		lw	a3,4(a5)
 102 00b8 B7070240 		li	a5,1073872896
  63:Drivers/src/ch32v20x_dma.c ****     }
 103              		.loc 1 63 22
 104 00bc 3D67     		li	a4,61440
 105 00be 558F     		or	a4,a3,a4
 106 00c0 D8C3     		sw	a4,4(a5)
 107              		.loc 1 81 1
 108 00c2 79A0     		j	.L10
 109              	.L6:
  65:Drivers/src/ch32v20x_dma.c ****     {
 110              		.loc 1 65 12
 111 00c4 0327C4FE 		lw	a4,-20(s0)
 112 00c8 B7070240 		li	a5,1073872896
 113 00cc 93878705 		addi	a5,a5,88
 114 00d0 631CF700 		bne	a4,a5,.L7
  67:Drivers/src/ch32v20x_dma.c ****     }
 115              		.loc 1 67 13
 116 00d4 B7070240 		li	a5,1073872896
 117 00d8 D443     		lw	a3,4(a5)
 118 00da B7070240 		li	a5,1073872896
  67:Drivers/src/ch32v20x_dma.c ****     }
 119              		.loc 1 67 22
 120 00de 37070F00 		li	a4,983040
 121 00e2 558F     		or	a4,a3,a4
 122 00e4 D8C3     		sw	a4,4(a5)
 123              		.loc 1 81 1
 124 00e6 ADA0     		j	.L10
 125              	.L7:
  69:Drivers/src/ch32v20x_dma.c ****     {
 126              		.loc 1 69 12
 127 00e8 0327C4FE 		lw	a4,-20(s0)
 128 00ec B7070240 		li	a5,1073872896
 129 00f0 9387C706 		addi	a5,a5,108
 130 00f4 631CF700 		bne	a4,a5,.L8
  71:Drivers/src/ch32v20x_dma.c ****     }
 131              		.loc 1 71 13
 132 00f8 B7070240 		li	a5,1073872896
 133 00fc D443     		lw	a3,4(a5)
 134 00fe B7070240 		li	a5,1073872896
GAS LISTING C:\Users\SOLDER~1\AppData\Local\Temp\ccUIzJuS.s 			page 5


  71:Drivers/src/ch32v20x_dma.c ****     }
 135              		.loc 1 71 22
 136 0102 3707F000 		li	a4,15728640
 137 0106 558F     		or	a4,a3,a4
 138 0108 D8C3     		sw	a4,4(a5)
 139              		.loc 1 81 1
 140 010a 99A0     		j	.L10
 141              	.L8:
  73:Drivers/src/ch32v20x_dma.c ****     {
 142              		.loc 1 73 12
 143 010c 0327C4FE 		lw	a4,-20(s0)
 144 0110 B7070240 		li	a5,1073872896
 145 0114 93870708 		addi	a5,a5,128
 146 0118 631CF700 		bne	a4,a5,.L9
  75:Drivers/src/ch32v20x_dma.c ****     }
 147              		.loc 1 75 13
 148 011c B7070240 		li	a5,1073872896
 149 0120 D443     		lw	a3,4(a5)
 150 0122 B7070240 		li	a5,1073872896
  75:Drivers/src/ch32v20x_dma.c ****     }
 151              		.loc 1 75 22
 152 0126 3707000F 		li	a4,251658240
 153 012a 558F     		or	a4,a3,a4
 154 012c D8C3     		sw	a4,4(a5)
 155              		.loc 1 81 1
 156 012e 0DA0     		j	.L10
 157              	.L9:
  77:Drivers/src/ch32v20x_dma.c ****     {
 158              		.loc 1 77 12
 159 0130 0327C4FE 		lw	a4,-20(s0)
 160 0134 B7070240 		li	a5,1073872896
 161 0138 93874709 		addi	a5,a5,148
 162 013c 631AF700 		bne	a4,a5,.L10
  79:Drivers/src/ch32v20x_dma.c ****     }
 163              		.loc 1 79 13
 164 0140 B7070240 		li	a5,1073872896
 165 0144 D843     		lw	a4,4(a5)
 166 0146 B7070240 		li	a5,1073872896
  79:Drivers/src/ch32v20x_dma.c ****     }
 167              		.loc 1 79 22
 168 014a 1367F700 		ori	a4,a4,15
 169 014e D8C3     		sw	a4,4(a5)
 170              	.L10:
 171              		.loc 1 81 1
 172 0150 0100     		nop
 173 0152 7244     		lw	s0,28(sp)
 174              		.cfi_restore 8
 175              		.cfi_def_cfa 2, 32
 176 0154 0561     		addi	sp,sp,32
 177              		.cfi_def_cfa_offset 0
 178 0156 8280     		jr	ra
 179              		.cfi_endproc
 180              	.LFE16:
 182              		.section	.text.DMA_Init,"ax",@progbits
 183              		.align	1
 184              		.globl	DMA_Init
 186              	DMA_Init:
GAS LISTING C:\Users\SOLDER~1\AppData\Local\Temp\ccUIzJuS.s 			page 6


 187              	.LFB17:
  82:Drivers/src/ch32v20x_dma.c **** 
  83:Drivers/src/ch32v20x_dma.c **** /*********************************************************************
  84:Drivers/src/ch32v20x_dma.c ****  * @fn      DMA_Init
  85:Drivers/src/ch32v20x_dma.c ****  *
  86:Drivers/src/ch32v20x_dma.c ****  * @brief   Initializes the DMAy Channelx according to the specified
  87:Drivers/src/ch32v20x_dma.c ****  *        parameters in the DMA_InitStruct.
  88:Drivers/src/ch32v20x_dma.c ****  *
  89:Drivers/src/ch32v20x_dma.c ****  * @param   DMAy_Channelx - here y can be 1 or 2 to select the DMA and x can be
  90:Drivers/src/ch32v20x_dma.c ****  *        1 to 7 for DMA1 and 1 to 11 for DMA2 to select the DMA Channel.
  91:Drivers/src/ch32v20x_dma.c ****  *          DMA_InitStruct - pointer to a DMA_InitTypeDef structure that contains
  92:Drivers/src/ch32v20x_dma.c ****  *        contains the configuration information for the specified DMA Channel.
  93:Drivers/src/ch32v20x_dma.c ****  *
  94:Drivers/src/ch32v20x_dma.c ****  * @return  none
  95:Drivers/src/ch32v20x_dma.c ****  */
  96:Drivers/src/ch32v20x_dma.c **** void DMA_Init(DMA_Channel_TypeDef *DMAy_Channelx, DMA_InitTypeDef *DMA_InitStruct)
  97:Drivers/src/ch32v20x_dma.c **** {
 188              		.loc 1 97 1
 189              		.cfi_startproc
 190 0000 7971     		addi	sp,sp,-48
 191              		.cfi_def_cfa_offset 48
 192 0002 22D6     		sw	s0,44(sp)
 193              		.cfi_offset 8, -4
 194 0004 0018     		addi	s0,sp,48
 195              		.cfi_def_cfa 8, 0
 196 0006 232EA4FC 		sw	a0,-36(s0)
 197 000a 232CB4FC 		sw	a1,-40(s0)
  98:Drivers/src/ch32v20x_dma.c ****     uint32_t tmpreg = 0;
 198              		.loc 1 98 14
 199 000e 232604FE 		sw	zero,-20(s0)
  99:Drivers/src/ch32v20x_dma.c **** 
 100:Drivers/src/ch32v20x_dma.c ****     tmpreg = DMAy_Channelx->CFGR;
 200              		.loc 1 100 12
 201 0012 8327C4FD 		lw	a5,-36(s0)
 202 0016 9C43     		lw	a5,0(a5)
 203 0018 2326F4FE 		sw	a5,-20(s0)
 101:Drivers/src/ch32v20x_dma.c ****     tmpreg &= CFGR_CLEAR_Mask;
 204              		.loc 1 101 12
 205 001c 0327C4FE 		lw	a4,-20(s0)
 206 0020 E177     		li	a5,-32768
 207 0022 BD07     		addi	a5,a5,15
 208 0024 F98F     		and	a5,a4,a5
 209 0026 2326F4FE 		sw	a5,-20(s0)
 102:Drivers/src/ch32v20x_dma.c ****     tmpreg |= DMA_InitStruct->DMA_DIR | DMA_InitStruct->DMA_Mode |
 210              		.loc 1 102 29
 211 002a 832784FD 		lw	a5,-40(s0)
 212 002e 9847     		lw	a4,8(a5)
 213              		.loc 1 102 55
 214 0030 832784FD 		lw	a5,-40(s0)
 215 0034 9C53     		lw	a5,32(a5)
 216              		.loc 1 102 39
 217 0036 5D8F     		or	a4,a4,a5
 103:Drivers/src/ch32v20x_dma.c ****               DMA_InitStruct->DMA_PeripheralInc | DMA_InitStruct->DMA_MemoryInc |
 218              		.loc 1 103 29
 219 0038 832784FD 		lw	a5,-40(s0)
 220 003c 9C4B     		lw	a5,16(a5)
 102:Drivers/src/ch32v20x_dma.c ****     tmpreg |= DMA_InitStruct->DMA_DIR | DMA_InitStruct->DMA_Mode |
GAS LISTING C:\Users\SOLDER~1\AppData\Local\Temp\ccUIzJuS.s 			page 7


 221              		.loc 1 102 66
 222 003e 5D8F     		or	a4,a4,a5
 223              		.loc 1 103 65
 224 0040 832784FD 		lw	a5,-40(s0)
 225 0044 DC4B     		lw	a5,20(a5)
 226              		.loc 1 103 49
 227 0046 5D8F     		or	a4,a4,a5
 104:Drivers/src/ch32v20x_dma.c ****               DMA_InitStruct->DMA_PeripheralDataSize | DMA_InitStruct->DMA_MemoryDataSize |
 228              		.loc 1 104 29
 229 0048 832784FD 		lw	a5,-40(s0)
 230 004c 9C4F     		lw	a5,24(a5)
 103:Drivers/src/ch32v20x_dma.c ****               DMA_InitStruct->DMA_PeripheralInc | DMA_InitStruct->DMA_MemoryInc |
 231              		.loc 1 103 81
 232 004e 5D8F     		or	a4,a4,a5
 233              		.loc 1 104 70
 234 0050 832784FD 		lw	a5,-40(s0)
 235 0054 DC4F     		lw	a5,28(a5)
 236              		.loc 1 104 54
 237 0056 5D8F     		or	a4,a4,a5
 105:Drivers/src/ch32v20x_dma.c ****               DMA_InitStruct->DMA_Priority | DMA_InitStruct->DMA_M2M;
 238              		.loc 1 105 29
 239 0058 832784FD 		lw	a5,-40(s0)
 240 005c DC53     		lw	a5,36(a5)
 104:Drivers/src/ch32v20x_dma.c ****               DMA_InitStruct->DMA_PeripheralDataSize | DMA_InitStruct->DMA_MemoryDataSize |
 241              		.loc 1 104 91
 242 005e 5D8F     		or	a4,a4,a5
 243              		.loc 1 105 60
 244 0060 832784FD 		lw	a5,-40(s0)
 245 0064 9C57     		lw	a5,40(a5)
 246              		.loc 1 105 44
 247 0066 D98F     		or	a5,a4,a5
 102:Drivers/src/ch32v20x_dma.c ****               DMA_InitStruct->DMA_PeripheralInc | DMA_InitStruct->DMA_MemoryInc |
 248              		.loc 1 102 12
 249 0068 0327C4FE 		lw	a4,-20(s0)
 250 006c D98F     		or	a5,a4,a5
 251 006e 2326F4FE 		sw	a5,-20(s0)
 106:Drivers/src/ch32v20x_dma.c **** 
 107:Drivers/src/ch32v20x_dma.c ****     DMAy_Channelx->CFGR = tmpreg;
 252              		.loc 1 107 25
 253 0072 8327C4FD 		lw	a5,-36(s0)
 254 0076 0327C4FE 		lw	a4,-20(s0)
 255 007a 98C3     		sw	a4,0(a5)
 108:Drivers/src/ch32v20x_dma.c ****     DMAy_Channelx->CNTR = DMA_InitStruct->DMA_BufferSize;
 256              		.loc 1 108 41
 257 007c 832784FD 		lw	a5,-40(s0)
 258 0080 D847     		lw	a4,12(a5)
 259              		.loc 1 108 25
 260 0082 8327C4FD 		lw	a5,-36(s0)
 261 0086 D8C3     		sw	a4,4(a5)
 109:Drivers/src/ch32v20x_dma.c ****     DMAy_Channelx->PADDR = DMA_InitStruct->DMA_PeripheralBaseAddr;
 262              		.loc 1 109 42
 263 0088 832784FD 		lw	a5,-40(s0)
 264 008c 9843     		lw	a4,0(a5)
 265              		.loc 1 109 26
 266 008e 8327C4FD 		lw	a5,-36(s0)
 267 0092 98C7     		sw	a4,8(a5)
 110:Drivers/src/ch32v20x_dma.c ****     DMAy_Channelx->MADDR = DMA_InitStruct->DMA_MemoryBaseAddr;
GAS LISTING C:\Users\SOLDER~1\AppData\Local\Temp\ccUIzJuS.s 			page 8


 268              		.loc 1 110 42
 269 0094 832784FD 		lw	a5,-40(s0)
 270 0098 D843     		lw	a4,4(a5)
 271              		.loc 1 110 26
 272 009a 8327C4FD 		lw	a5,-36(s0)
 273 009e D8C7     		sw	a4,12(a5)
 111:Drivers/src/ch32v20x_dma.c **** }
 274              		.loc 1 111 1
 275 00a0 0100     		nop
 276 00a2 3254     		lw	s0,44(sp)
 277              		.cfi_restore 8
 278              		.cfi_def_cfa 2, 48
 279 00a4 4561     		addi	sp,sp,48
 280              		.cfi_def_cfa_offset 0
 281 00a6 8280     		jr	ra
 282              		.cfi_endproc
 283              	.LFE17:
 285              		.section	.text.DMA_StructInit,"ax",@progbits
 286              		.align	1
 287              		.globl	DMA_StructInit
 289              	DMA_StructInit:
 290              	.LFB18:
 112:Drivers/src/ch32v20x_dma.c **** 
 113:Drivers/src/ch32v20x_dma.c **** /*********************************************************************
 114:Drivers/src/ch32v20x_dma.c ****  * @fn      DMA_StructInit
 115:Drivers/src/ch32v20x_dma.c ****  *
 116:Drivers/src/ch32v20x_dma.c ****  * @brief   Fills each DMA_InitStruct member with its default value.
 117:Drivers/src/ch32v20x_dma.c ****  *
 118:Drivers/src/ch32v20x_dma.c ****  * @param   DMAy_Channelx - here y can be 1 or 2 to select the DMA and x can be
 119:Drivers/src/ch32v20x_dma.c ****  *        1 to 7 for DMA1 and 1 to 11 for DMA2 to select the DMA Channel.
 120:Drivers/src/ch32v20x_dma.c ****  *          DMA_InitStruct - pointer to a DMA_InitTypeDef structure that contains
 121:Drivers/src/ch32v20x_dma.c ****  *        contains the configuration information for the specified DMA Channel.
 122:Drivers/src/ch32v20x_dma.c ****  *
 123:Drivers/src/ch32v20x_dma.c ****  * @return  none
 124:Drivers/src/ch32v20x_dma.c ****  */
 125:Drivers/src/ch32v20x_dma.c **** void DMA_StructInit(DMA_InitTypeDef *DMA_InitStruct)
 126:Drivers/src/ch32v20x_dma.c **** {
 291              		.loc 1 126 1
 292              		.cfi_startproc
 293 0000 0111     		addi	sp,sp,-32
 294              		.cfi_def_cfa_offset 32
 295 0002 22CE     		sw	s0,28(sp)
 296              		.cfi_offset 8, -4
 297 0004 0010     		addi	s0,sp,32
 298              		.cfi_def_cfa 8, 0
 299 0006 2326A4FE 		sw	a0,-20(s0)
 127:Drivers/src/ch32v20x_dma.c ****     DMA_InitStruct->DMA_PeripheralBaseAddr = 0;
 300              		.loc 1 127 44
 301 000a 8327C4FE 		lw	a5,-20(s0)
 302 000e 23A00700 		sw	zero,0(a5)
 128:Drivers/src/ch32v20x_dma.c ****     DMA_InitStruct->DMA_MemoryBaseAddr = 0;
 303              		.loc 1 128 40
 304 0012 8327C4FE 		lw	a5,-20(s0)
 305 0016 23A20700 		sw	zero,4(a5)
 129:Drivers/src/ch32v20x_dma.c ****     DMA_InitStruct->DMA_DIR = DMA_DIR_PeripheralSRC;
 306              		.loc 1 129 29
 307 001a 8327C4FE 		lw	a5,-20(s0)
GAS LISTING C:\Users\SOLDER~1\AppData\Local\Temp\ccUIzJuS.s 			page 9


 308 001e 23A40700 		sw	zero,8(a5)
 130:Drivers/src/ch32v20x_dma.c ****     DMA_InitStruct->DMA_BufferSize = 0;
 309              		.loc 1 130 36
 310 0022 8327C4FE 		lw	a5,-20(s0)
 311 0026 23A60700 		sw	zero,12(a5)
 131:Drivers/src/ch32v20x_dma.c ****     DMA_InitStruct->DMA_PeripheralInc = DMA_PeripheralInc_Disable;
 312              		.loc 1 131 39
 313 002a 8327C4FE 		lw	a5,-20(s0)
 314 002e 23A80700 		sw	zero,16(a5)
 132:Drivers/src/ch32v20x_dma.c ****     DMA_InitStruct->DMA_MemoryInc = DMA_MemoryInc_Disable;
 315              		.loc 1 132 35
 316 0032 8327C4FE 		lw	a5,-20(s0)
 317 0036 23AA0700 		sw	zero,20(a5)
 133:Drivers/src/ch32v20x_dma.c ****     DMA_InitStruct->DMA_PeripheralDataSize = DMA_PeripheralDataSize_Byte;
 318              		.loc 1 133 44
 319 003a 8327C4FE 		lw	a5,-20(s0)
 320 003e 23AC0700 		sw	zero,24(a5)
 134:Drivers/src/ch32v20x_dma.c ****     DMA_InitStruct->DMA_MemoryDataSize = DMA_MemoryDataSize_Byte;
 321              		.loc 1 134 40
 322 0042 8327C4FE 		lw	a5,-20(s0)
 323 0046 23AE0700 		sw	zero,28(a5)
 135:Drivers/src/ch32v20x_dma.c ****     DMA_InitStruct->DMA_Mode = DMA_Mode_Normal;
 324              		.loc 1 135 30
 325 004a 8327C4FE 		lw	a5,-20(s0)
 326 004e 23A00702 		sw	zero,32(a5)
 136:Drivers/src/ch32v20x_dma.c ****     DMA_InitStruct->DMA_Priority = DMA_Priority_Low;
 327              		.loc 1 136 34
 328 0052 8327C4FE 		lw	a5,-20(s0)
 329 0056 23A20702 		sw	zero,36(a5)
 137:Drivers/src/ch32v20x_dma.c ****     DMA_InitStruct->DMA_M2M = DMA_M2M_Disable;
 330              		.loc 1 137 29
 331 005a 8327C4FE 		lw	a5,-20(s0)
 332 005e 23A40702 		sw	zero,40(a5)
 138:Drivers/src/ch32v20x_dma.c **** }
 333              		.loc 1 138 1
 334 0062 0100     		nop
 335 0064 7244     		lw	s0,28(sp)
 336              		.cfi_restore 8
 337              		.cfi_def_cfa 2, 32
 338 0066 0561     		addi	sp,sp,32
 339              		.cfi_def_cfa_offset 0
 340 0068 8280     		jr	ra
 341              		.cfi_endproc
 342              	.LFE18:
 344              		.section	.text.DMA_Cmd,"ax",@progbits
 345              		.align	1
 346              		.globl	DMA_Cmd
 348              	DMA_Cmd:
 349              	.LFB19:
 139:Drivers/src/ch32v20x_dma.c **** 
 140:Drivers/src/ch32v20x_dma.c **** /*********************************************************************
 141:Drivers/src/ch32v20x_dma.c ****  * @fn      DMA_Cmd
 142:Drivers/src/ch32v20x_dma.c ****  *
 143:Drivers/src/ch32v20x_dma.c ****  * @brief   Enables or disables the specified DMAy Channelx.
 144:Drivers/src/ch32v20x_dma.c ****  *
 145:Drivers/src/ch32v20x_dma.c ****  * @param   DMAy_Channelx - here y can be 1 or 2 to select the DMA and x can be
 146:Drivers/src/ch32v20x_dma.c ****  *        1 to 7 for DMA1 and 1 to 11 for DMA2 to select the DMA Channel.
GAS LISTING C:\Users\SOLDER~1\AppData\Local\Temp\ccUIzJuS.s 			page 10


 147:Drivers/src/ch32v20x_dma.c ****  *          NewState - new state of the DMAy Channelx(ENABLE or DISABLE).
 148:Drivers/src/ch32v20x_dma.c ****  *
 149:Drivers/src/ch32v20x_dma.c ****  * @return  none
 150:Drivers/src/ch32v20x_dma.c ****  */
 151:Drivers/src/ch32v20x_dma.c **** void DMA_Cmd(DMA_Channel_TypeDef *DMAy_Channelx, FunctionalState NewState)
 152:Drivers/src/ch32v20x_dma.c **** {
 350              		.loc 1 152 1
 351              		.cfi_startproc
 352 0000 0111     		addi	sp,sp,-32
 353              		.cfi_def_cfa_offset 32
 354 0002 22CE     		sw	s0,28(sp)
 355              		.cfi_offset 8, -4
 356 0004 0010     		addi	s0,sp,32
 357              		.cfi_def_cfa 8, 0
 358 0006 2326A4FE 		sw	a0,-20(s0)
 359 000a 2324B4FE 		sw	a1,-24(s0)
 153:Drivers/src/ch32v20x_dma.c ****     if(NewState != DISABLE)
 360              		.loc 1 153 7
 361 000e 832784FE 		lw	a5,-24(s0)
 362 0012 91CB     		beq	a5,zero,.L14
 154:Drivers/src/ch32v20x_dma.c ****     {
 155:Drivers/src/ch32v20x_dma.c ****         DMAy_Channelx->CFGR |= DMA_CFGR1_EN;
 363              		.loc 1 155 22
 364 0014 8327C4FE 		lw	a5,-20(s0)
 365 0018 9C43     		lw	a5,0(a5)
 366              		.loc 1 155 29
 367 001a 13E71700 		ori	a4,a5,1
 368 001e 8327C4FE 		lw	a5,-20(s0)
 369 0022 98C3     		sw	a4,0(a5)
 156:Drivers/src/ch32v20x_dma.c ****     }
 157:Drivers/src/ch32v20x_dma.c ****     else
 158:Drivers/src/ch32v20x_dma.c ****     {
 159:Drivers/src/ch32v20x_dma.c ****         DMAy_Channelx->CFGR &= (uint16_t)(~DMA_CFGR1_EN);
 160:Drivers/src/ch32v20x_dma.c ****     }
 161:Drivers/src/ch32v20x_dma.c **** }
 370              		.loc 1 161 1
 371 0024 11A8     		j	.L16
 372              	.L14:
 159:Drivers/src/ch32v20x_dma.c ****     }
 373              		.loc 1 159 22
 374 0026 8327C4FE 		lw	a5,-20(s0)
 375 002a 9843     		lw	a4,0(a5)
 159:Drivers/src/ch32v20x_dma.c ****     }
 376              		.loc 1 159 29
 377 002c C167     		li	a5,65536
 378 002e F917     		addi	a5,a5,-2
 379 0030 7D8F     		and	a4,a4,a5
 380 0032 8327C4FE 		lw	a5,-20(s0)
 381 0036 98C3     		sw	a4,0(a5)
 382              	.L16:
 383              		.loc 1 161 1
 384 0038 0100     		nop
 385 003a 7244     		lw	s0,28(sp)
 386              		.cfi_restore 8
 387              		.cfi_def_cfa 2, 32
 388 003c 0561     		addi	sp,sp,32
 389              		.cfi_def_cfa_offset 0
GAS LISTING C:\Users\SOLDER~1\AppData\Local\Temp\ccUIzJuS.s 			page 11


 390 003e 8280     		jr	ra
 391              		.cfi_endproc
 392              	.LFE19:
 394              		.section	.text.DMA_ITConfig,"ax",@progbits
 395              		.align	1
 396              		.globl	DMA_ITConfig
 398              	DMA_ITConfig:
 399              	.LFB20:
 162:Drivers/src/ch32v20x_dma.c **** 
 163:Drivers/src/ch32v20x_dma.c **** /*********************************************************************
 164:Drivers/src/ch32v20x_dma.c ****  * @fn      DMA_ITConfig
 165:Drivers/src/ch32v20x_dma.c ****  *
 166:Drivers/src/ch32v20x_dma.c ****  * @brief   Enables or disables the specified DMAy Channelx interrupts.
 167:Drivers/src/ch32v20x_dma.c ****  *
 168:Drivers/src/ch32v20x_dma.c ****  * @param   DMAy_Channelx - here y can be 1 or 2 to select the DMA and x can be
 169:Drivers/src/ch32v20x_dma.c ****  *        1 to 7 for DMA1 and 1 to 11 for DMA2 to select the DMA Channel.
 170:Drivers/src/ch32v20x_dma.c ****  *          DMA_IT - specifies the DMA interrupts sources to be enabled
 171:Drivers/src/ch32v20x_dma.c ****  *        or disabled.
 172:Drivers/src/ch32v20x_dma.c ****  *           DMA_IT_TC - Transfer complete interrupt mask
 173:Drivers/src/ch32v20x_dma.c ****  *           DMA_IT_HT - Half transfer interrupt mask
 174:Drivers/src/ch32v20x_dma.c ****  *           DMA_IT_TE -  Transfer error interrupt mask
 175:Drivers/src/ch32v20x_dma.c ****  *          NewState - new state of the DMAy Channelx(ENABLE or DISABLE).
 176:Drivers/src/ch32v20x_dma.c ****  *
 177:Drivers/src/ch32v20x_dma.c ****  * @return  none
 178:Drivers/src/ch32v20x_dma.c ****  */
 179:Drivers/src/ch32v20x_dma.c **** void DMA_ITConfig(DMA_Channel_TypeDef *DMAy_Channelx, uint32_t DMA_IT, FunctionalState NewState)
 180:Drivers/src/ch32v20x_dma.c **** {
 400              		.loc 1 180 1
 401              		.cfi_startproc
 402 0000 0111     		addi	sp,sp,-32
 403              		.cfi_def_cfa_offset 32
 404 0002 22CE     		sw	s0,28(sp)
 405              		.cfi_offset 8, -4
 406 0004 0010     		addi	s0,sp,32
 407              		.cfi_def_cfa 8, 0
 408 0006 2326A4FE 		sw	a0,-20(s0)
 409 000a 2324B4FE 		sw	a1,-24(s0)
 410 000e 2322C4FE 		sw	a2,-28(s0)
 181:Drivers/src/ch32v20x_dma.c ****     if(NewState != DISABLE)
 411              		.loc 1 181 7
 412 0012 832744FE 		lw	a5,-28(s0)
 413 0016 99CB     		beq	a5,zero,.L18
 182:Drivers/src/ch32v20x_dma.c ****     {
 183:Drivers/src/ch32v20x_dma.c ****         DMAy_Channelx->CFGR |= DMA_IT;
 414              		.loc 1 183 22
 415 0018 8327C4FE 		lw	a5,-20(s0)
 416 001c 9843     		lw	a4,0(a5)
 417              		.loc 1 183 29
 418 001e 832784FE 		lw	a5,-24(s0)
 419 0022 5D8F     		or	a4,a4,a5
 420 0024 8327C4FE 		lw	a5,-20(s0)
 421 0028 98C3     		sw	a4,0(a5)
 184:Drivers/src/ch32v20x_dma.c ****     }
 185:Drivers/src/ch32v20x_dma.c ****     else
 186:Drivers/src/ch32v20x_dma.c ****     {
 187:Drivers/src/ch32v20x_dma.c ****         DMAy_Channelx->CFGR &= ~DMA_IT;
 188:Drivers/src/ch32v20x_dma.c ****     }
GAS LISTING C:\Users\SOLDER~1\AppData\Local\Temp\ccUIzJuS.s 			page 12


 189:Drivers/src/ch32v20x_dma.c **** }
 422              		.loc 1 189 1
 423 002a 21A8     		j	.L20
 424              	.L18:
 187:Drivers/src/ch32v20x_dma.c ****     }
 425              		.loc 1 187 22
 426 002c 8327C4FE 		lw	a5,-20(s0)
 427 0030 9843     		lw	a4,0(a5)
 187:Drivers/src/ch32v20x_dma.c ****     }
 428              		.loc 1 187 32
 429 0032 832784FE 		lw	a5,-24(s0)
 430 0036 93C7F7FF 		not	a5,a5
 187:Drivers/src/ch32v20x_dma.c ****     }
 431              		.loc 1 187 29
 432 003a 7D8F     		and	a4,a4,a5
 433 003c 8327C4FE 		lw	a5,-20(s0)
 434 0040 98C3     		sw	a4,0(a5)
 435              	.L20:
 436              		.loc 1 189 1
 437 0042 0100     		nop
 438 0044 7244     		lw	s0,28(sp)
 439              		.cfi_restore 8
 440              		.cfi_def_cfa 2, 32
 441 0046 0561     		addi	sp,sp,32
 442              		.cfi_def_cfa_offset 0
 443 0048 8280     		jr	ra
 444              		.cfi_endproc
 445              	.LFE20:
 447              		.section	.text.DMA_SetCurrDataCounter,"ax",@progbits
 448              		.align	1
 449              		.globl	DMA_SetCurrDataCounter
 451              	DMA_SetCurrDataCounter:
 452              	.LFB21:
 190:Drivers/src/ch32v20x_dma.c **** 
 191:Drivers/src/ch32v20x_dma.c **** /*********************************************************************
 192:Drivers/src/ch32v20x_dma.c ****  * @fn      DMA_SetCurrDataCounter
 193:Drivers/src/ch32v20x_dma.c ****  *
 194:Drivers/src/ch32v20x_dma.c ****  * @brief   Sets the number of data units in the current DMAy Channelx transfer.
 195:Drivers/src/ch32v20x_dma.c ****  *
 196:Drivers/src/ch32v20x_dma.c ****  * @param   DMAy_Channelx - here y can be 1 or 2 to select the DMA and x can be
 197:Drivers/src/ch32v20x_dma.c ****  *        1 to 7 for DMA1 and 1 to 11 for DMA2 to select the DMA Channel.
 198:Drivers/src/ch32v20x_dma.c ****  *          DataNumber - The number of data units in the current DMAy Channelx
 199:Drivers/src/ch32v20x_dma.c ****  *        transfer.
 200:Drivers/src/ch32v20x_dma.c ****  *
 201:Drivers/src/ch32v20x_dma.c ****  * @return  none
 202:Drivers/src/ch32v20x_dma.c ****  */
 203:Drivers/src/ch32v20x_dma.c **** void DMA_SetCurrDataCounter(DMA_Channel_TypeDef *DMAy_Channelx, uint16_t DataNumber)
 204:Drivers/src/ch32v20x_dma.c **** {
 453              		.loc 1 204 1
 454              		.cfi_startproc
 455 0000 0111     		addi	sp,sp,-32
 456              		.cfi_def_cfa_offset 32
 457 0002 22CE     		sw	s0,28(sp)
 458              		.cfi_offset 8, -4
 459 0004 0010     		addi	s0,sp,32
 460              		.cfi_def_cfa 8, 0
 461 0006 2326A4FE 		sw	a0,-20(s0)
GAS LISTING C:\Users\SOLDER~1\AppData\Local\Temp\ccUIzJuS.s 			page 13


 462 000a AE87     		mv	a5,a1
 463 000c 2315F4FE 		sh	a5,-22(s0)
 205:Drivers/src/ch32v20x_dma.c ****     DMAy_Channelx->CNTR = DataNumber;
 464              		.loc 1 205 25
 465 0010 0357A4FE 		lhu	a4,-22(s0)
 466 0014 8327C4FE 		lw	a5,-20(s0)
 467 0018 D8C3     		sw	a4,4(a5)
 206:Drivers/src/ch32v20x_dma.c **** }
 468              		.loc 1 206 1
 469 001a 0100     		nop
 470 001c 7244     		lw	s0,28(sp)
 471              		.cfi_restore 8
 472              		.cfi_def_cfa 2, 32
 473 001e 0561     		addi	sp,sp,32
 474              		.cfi_def_cfa_offset 0
 475 0020 8280     		jr	ra
 476              		.cfi_endproc
 477              	.LFE21:
 479              		.section	.text.DMA_GetCurrDataCounter,"ax",@progbits
 480              		.align	1
 481              		.globl	DMA_GetCurrDataCounter
 483              	DMA_GetCurrDataCounter:
 484              	.LFB22:
 207:Drivers/src/ch32v20x_dma.c **** 
 208:Drivers/src/ch32v20x_dma.c **** /*********************************************************************
 209:Drivers/src/ch32v20x_dma.c ****  * @fn      DMA_GetCurrDataCounter
 210:Drivers/src/ch32v20x_dma.c ****  *
 211:Drivers/src/ch32v20x_dma.c ****  * @brief   Returns the number of remaining data units in the current
 212:Drivers/src/ch32v20x_dma.c ****  *        DMAy Channelx transfer.
 213:Drivers/src/ch32v20x_dma.c ****  *
 214:Drivers/src/ch32v20x_dma.c ****  * @param   DMAy_Channelx - here y can be 1 or 2 to select the DMA and x can be
 215:Drivers/src/ch32v20x_dma.c ****  *        1 to 7 for DMA1 and 1 to 11 for DMA2 to select the DMA Channel.
 216:Drivers/src/ch32v20x_dma.c ****  *
 217:Drivers/src/ch32v20x_dma.c ****  * @return  DataNumber - The number of remaining data units in the current
 218:Drivers/src/ch32v20x_dma.c ****  *        DMAy Channelx transfer.
 219:Drivers/src/ch32v20x_dma.c ****  */
 220:Drivers/src/ch32v20x_dma.c **** uint16_t DMA_GetCurrDataCounter(DMA_Channel_TypeDef *DMAy_Channelx)
 221:Drivers/src/ch32v20x_dma.c **** {
 485              		.loc 1 221 1
 486              		.cfi_startproc
 487 0000 0111     		addi	sp,sp,-32
 488              		.cfi_def_cfa_offset 32
 489 0002 22CE     		sw	s0,28(sp)
 490              		.cfi_offset 8, -4
 491 0004 0010     		addi	s0,sp,32
 492              		.cfi_def_cfa 8, 0
 493 0006 2326A4FE 		sw	a0,-20(s0)
 222:Drivers/src/ch32v20x_dma.c ****     return ((uint16_t)(DMAy_Channelx->CNTR));
 494              		.loc 1 222 37
 495 000a 8327C4FE 		lw	a5,-20(s0)
 496 000e DC43     		lw	a5,4(a5)
 497              		.loc 1 222 13
 498 0010 C207     		slli	a5,a5,16
 499 0012 C183     		srli	a5,a5,16
 223:Drivers/src/ch32v20x_dma.c **** }
 500              		.loc 1 223 1
 501 0014 3E85     		mv	a0,a5
GAS LISTING C:\Users\SOLDER~1\AppData\Local\Temp\ccUIzJuS.s 			page 14


 502 0016 7244     		lw	s0,28(sp)
 503              		.cfi_restore 8
 504              		.cfi_def_cfa 2, 32
 505 0018 0561     		addi	sp,sp,32
 506              		.cfi_def_cfa_offset 0
 507 001a 8280     		jr	ra
 508              		.cfi_endproc
 509              	.LFE22:
 511              		.section	.text.DMA_GetFlagStatus,"ax",@progbits
 512              		.align	1
 513              		.globl	DMA_GetFlagStatus
 515              	DMA_GetFlagStatus:
 516              	.LFB23:
 224:Drivers/src/ch32v20x_dma.c **** 
 225:Drivers/src/ch32v20x_dma.c **** /*********************************************************************
 226:Drivers/src/ch32v20x_dma.c ****  * @fn      DMA_GetFlagStatus
 227:Drivers/src/ch32v20x_dma.c ****  *
 228:Drivers/src/ch32v20x_dma.c ****  * @brief   Checks whether the specified DMAy Channelx flag is set or not.
 229:Drivers/src/ch32v20x_dma.c ****  *
 230:Drivers/src/ch32v20x_dma.c ****  * @param   DMAy_FLAG - specifies the flag to check.
 231:Drivers/src/ch32v20x_dma.c ****  *            DMA1_FLAG_GL1 - DMA1 Channel1 global flag.
 232:Drivers/src/ch32v20x_dma.c ****  *            DMA1_FLAG_TC1 - DMA1 Channel1 transfer complete flag.
 233:Drivers/src/ch32v20x_dma.c ****  *            DMA1_FLAG_HT1 - DMA1 Channel1 half transfer flag.
 234:Drivers/src/ch32v20x_dma.c ****  *            DMA1_FLAG_TE1 - DMA1 Channel1 transfer error flag.
 235:Drivers/src/ch32v20x_dma.c ****  *            DMA1_FLAG_GL2 - DMA1 Channel2 global flag.
 236:Drivers/src/ch32v20x_dma.c ****  *            DMA1_FLAG_TC2 - DMA1 Channel2 transfer complete flag.
 237:Drivers/src/ch32v20x_dma.c ****  *            DMA1_FLAG_HT2 - DMA1 Channel2 half transfer flag.
 238:Drivers/src/ch32v20x_dma.c ****  *            DMA1_FLAG_TE2 - DMA1 Channel2 transfer error flag.
 239:Drivers/src/ch32v20x_dma.c ****  *            DMA1_FLAG_GL3 - DMA1 Channel3 global flag.
 240:Drivers/src/ch32v20x_dma.c ****  *            DMA1_FLAG_TC3 - DMA1 Channel3 transfer complete flag.
 241:Drivers/src/ch32v20x_dma.c ****  *            DMA1_FLAG_HT3 - DMA1 Channel3 half transfer flag.
 242:Drivers/src/ch32v20x_dma.c ****  *            DMA1_FLAG_TE3 - DMA1 Channel3 transfer error flag.
 243:Drivers/src/ch32v20x_dma.c ****  *            DMA1_FLAG_GL4 - DMA1 Channel4 global flag.
 244:Drivers/src/ch32v20x_dma.c ****  *            DMA1_FLAG_TC4 - DMA1 Channel4 transfer complete flag.
 245:Drivers/src/ch32v20x_dma.c ****  *            DMA1_FLAG_HT4 - DMA1 Channel4 half transfer flag.
 246:Drivers/src/ch32v20x_dma.c ****  *            DMA1_FLAG_TE4 - DMA1 Channel4 transfer error flag.
 247:Drivers/src/ch32v20x_dma.c ****  *            DMA1_FLAG_GL5 - DMA1 Channel5 global flag.
 248:Drivers/src/ch32v20x_dma.c ****  *            DMA1_FLAG_TC5 - DMA1 Channel5 transfer complete flag.
 249:Drivers/src/ch32v20x_dma.c ****  *            DMA1_FLAG_HT5 - DMA1 Channel5 half transfer flag.
 250:Drivers/src/ch32v20x_dma.c ****  *            DMA1_FLAG_TE5 - DMA1 Channel5 transfer error flag.
 251:Drivers/src/ch32v20x_dma.c ****  *            DMA1_FLAG_GL6 - DMA1 Channel6 global flag.
 252:Drivers/src/ch32v20x_dma.c ****  *            DMA1_FLAG_TC6 - DMA1 Channel6 transfer complete flag.
 253:Drivers/src/ch32v20x_dma.c ****  *            DMA1_FLAG_HT6 - DMA1 Channel6 half transfer flag.
 254:Drivers/src/ch32v20x_dma.c ****  *            DMA1_FLAG_TE6 - DMA1 Channel6 transfer error flag.
 255:Drivers/src/ch32v20x_dma.c ****  *            DMA1_FLAG_GL7 - DMA1 Channel7 global flag.
 256:Drivers/src/ch32v20x_dma.c ****  *            DMA1_FLAG_TC7 - DMA1 Channel7 transfer complete flag.
 257:Drivers/src/ch32v20x_dma.c ****  *            DMA1_FLAG_HT7 - DMA1 Channel7 half transfer flag.
 258:Drivers/src/ch32v20x_dma.c ****  *            DMA1_FLAG_TE7 - DMA1 Channel7 transfer error flag.
 259:Drivers/src/ch32v20x_dma.c ****  *            DMA2_FLAG_GL1 - DMA2 Channel1 global flag.
 260:Drivers/src/ch32v20x_dma.c ****  *            DMA2_FLAG_TC1 - DMA2 Channel1 transfer complete flag.
 261:Drivers/src/ch32v20x_dma.c ****  *            DMA2_FLAG_HT1 - DMA2 Channel1 half transfer flag.
 262:Drivers/src/ch32v20x_dma.c ****  *            DMA2_FLAG_TE1 - DMA2 Channel1 transfer error flag.
 263:Drivers/src/ch32v20x_dma.c **** 
 264:Drivers/src/ch32v20x_dma.c ****  * @return  The new state of DMAy_FLAG (SET or RESET).
 265:Drivers/src/ch32v20x_dma.c ****  */
 266:Drivers/src/ch32v20x_dma.c **** FlagStatus DMA_GetFlagStatus(uint32_t DMAy_FLAG)
 267:Drivers/src/ch32v20x_dma.c **** {
GAS LISTING C:\Users\SOLDER~1\AppData\Local\Temp\ccUIzJuS.s 			page 15


 517              		.loc 1 267 1
 518              		.cfi_startproc
 519 0000 7971     		addi	sp,sp,-48
 520              		.cfi_def_cfa_offset 48
 521 0002 22D6     		sw	s0,44(sp)
 522              		.cfi_offset 8, -4
 523 0004 0018     		addi	s0,sp,48
 524              		.cfi_def_cfa 8, 0
 525 0006 232EA4FC 		sw	a0,-36(s0)
 268:Drivers/src/ch32v20x_dma.c ****     FlagStatus bitstatus = RESET;
 526              		.loc 1 268 16
 527 000a 232604FE 		sw	zero,-20(s0)
 269:Drivers/src/ch32v20x_dma.c ****     uint32_t   tmpreg = 0;
 528              		.loc 1 269 16
 529 000e 232404FE 		sw	zero,-24(s0)
 270:Drivers/src/ch32v20x_dma.c **** 
 271:Drivers/src/ch32v20x_dma.c ****     tmpreg = DMA1->INTFR;
 530              		.loc 1 271 18
 531 0012 B7070240 		li	a5,1073872896
 532              		.loc 1 271 12
 533 0016 9C43     		lw	a5,0(a5)
 534 0018 2324F4FE 		sw	a5,-24(s0)
 272:Drivers/src/ch32v20x_dma.c **** 
 273:Drivers/src/ch32v20x_dma.c ****     if((tmpreg & DMAy_FLAG) != (uint32_t)RESET)
 535              		.loc 1 273 16
 536 001c 032784FE 		lw	a4,-24(s0)
 537 0020 8327C4FD 		lw	a5,-36(s0)
 538 0024 F98F     		and	a5,a4,a5
 539              		.loc 1 273 7
 540 0026 89C7     		beq	a5,zero,.L25
 274:Drivers/src/ch32v20x_dma.c ****     {
 275:Drivers/src/ch32v20x_dma.c ****         bitstatus = SET;
 541              		.loc 1 275 19
 542 0028 8547     		li	a5,1
 543 002a 2326F4FE 		sw	a5,-20(s0)
 544 002e 19A0     		j	.L26
 545              	.L25:
 276:Drivers/src/ch32v20x_dma.c ****     }
 277:Drivers/src/ch32v20x_dma.c ****     else
 278:Drivers/src/ch32v20x_dma.c ****     {
 279:Drivers/src/ch32v20x_dma.c ****         bitstatus = RESET;
 546              		.loc 1 279 19
 547 0030 232604FE 		sw	zero,-20(s0)
 548              	.L26:
 280:Drivers/src/ch32v20x_dma.c ****     }
 281:Drivers/src/ch32v20x_dma.c **** 
 282:Drivers/src/ch32v20x_dma.c ****     return bitstatus;
 549              		.loc 1 282 12
 550 0034 8327C4FE 		lw	a5,-20(s0)
 283:Drivers/src/ch32v20x_dma.c **** }
 551              		.loc 1 283 1
 552 0038 3E85     		mv	a0,a5
 553 003a 3254     		lw	s0,44(sp)
 554              		.cfi_restore 8
 555              		.cfi_def_cfa 2, 48
 556 003c 4561     		addi	sp,sp,48
 557              		.cfi_def_cfa_offset 0
GAS LISTING C:\Users\SOLDER~1\AppData\Local\Temp\ccUIzJuS.s 			page 16


 558 003e 8280     		jr	ra
 559              		.cfi_endproc
 560              	.LFE23:
 562              		.section	.text.DMA_ClearFlag,"ax",@progbits
 563              		.align	1
 564              		.globl	DMA_ClearFlag
 566              	DMA_ClearFlag:
 567              	.LFB24:
 284:Drivers/src/ch32v20x_dma.c **** 
 285:Drivers/src/ch32v20x_dma.c **** /*********************************************************************
 286:Drivers/src/ch32v20x_dma.c ****  * @fn      DMA_ClearFlag
 287:Drivers/src/ch32v20x_dma.c ****  *
 288:Drivers/src/ch32v20x_dma.c ****  * @brief   Clears the DMAy Channelx's pending flags.
 289:Drivers/src/ch32v20x_dma.c ****  *
 290:Drivers/src/ch32v20x_dma.c ****  * @param   DMAy_FLAG - specifies the flag to check.
 291:Drivers/src/ch32v20x_dma.c ****  *            DMA1_FLAG_GL1 - DMA1 Channel1 global flag.
 292:Drivers/src/ch32v20x_dma.c ****  *            DMA1_FLAG_TC1 - DMA1 Channel1 transfer complete flag.
 293:Drivers/src/ch32v20x_dma.c ****  *            DMA1_FLAG_HT1 - DMA1 Channel1 half transfer flag.
 294:Drivers/src/ch32v20x_dma.c ****  *            DMA1_FLAG_TE1 - DMA1 Channel1 transfer error flag.
 295:Drivers/src/ch32v20x_dma.c ****  *            DMA1_FLAG_GL2 - DMA1 Channel2 global flag.
 296:Drivers/src/ch32v20x_dma.c ****  *            DMA1_FLAG_TC2 - DMA1 Channel2 transfer complete flag.
 297:Drivers/src/ch32v20x_dma.c ****  *            DMA1_FLAG_HT2 - DMA1 Channel2 half transfer flag.
 298:Drivers/src/ch32v20x_dma.c ****  *            DMA1_FLAG_TE2 - DMA1 Channel2 transfer error flag.
 299:Drivers/src/ch32v20x_dma.c ****  *            DMA1_FLAG_GL3 - DMA1 Channel3 global flag.
 300:Drivers/src/ch32v20x_dma.c ****  *            DMA1_FLAG_TC3 - DMA1 Channel3 transfer complete flag.
 301:Drivers/src/ch32v20x_dma.c ****  *            DMA1_FLAG_HT3 - DMA1 Channel3 half transfer flag.
 302:Drivers/src/ch32v20x_dma.c ****  *            DMA1_FLAG_TE3 - DMA1 Channel3 transfer error flag.
 303:Drivers/src/ch32v20x_dma.c ****  *            DMA1_FLAG_GL4 - DMA1 Channel4 global flag.
 304:Drivers/src/ch32v20x_dma.c ****  *            DMA1_FLAG_TC4 - DMA1 Channel4 transfer complete flag.
 305:Drivers/src/ch32v20x_dma.c ****  *            DMA1_FLAG_HT4 - DMA1 Channel4 half transfer flag.
 306:Drivers/src/ch32v20x_dma.c ****  *            DMA1_FLAG_TE4 - DMA1 Channel4 transfer error flag.
 307:Drivers/src/ch32v20x_dma.c ****  *            DMA1_FLAG_GL5 - DMA1 Channel5 global flag.
 308:Drivers/src/ch32v20x_dma.c ****  *            DMA1_FLAG_TC5 - DMA1 Channel5 transfer complete flag.
 309:Drivers/src/ch32v20x_dma.c ****  *            DMA1_FLAG_HT5 - DMA1 Channel5 half transfer flag.
 310:Drivers/src/ch32v20x_dma.c ****  *            DMA1_FLAG_TE5 - DMA1 Channel5 transfer error flag.
 311:Drivers/src/ch32v20x_dma.c ****  *            DMA1_FLAG_GL6 - DMA1 Channel6 global flag.
 312:Drivers/src/ch32v20x_dma.c ****  *            DMA1_FLAG_TC6 - DMA1 Channel6 transfer complete flag.
 313:Drivers/src/ch32v20x_dma.c ****  *            DMA1_FLAG_HT6 - DMA1 Channel6 half transfer flag.
 314:Drivers/src/ch32v20x_dma.c ****  *            DMA1_FLAG_TE6 - DMA1 Channel6 transfer error flag.
 315:Drivers/src/ch32v20x_dma.c ****  *            DMA1_FLAG_GL7 - DMA1 Channel7 global flag.
 316:Drivers/src/ch32v20x_dma.c ****  *            DMA1_FLAG_TC7 - DMA1 Channel7 transfer complete flag.
 317:Drivers/src/ch32v20x_dma.c ****  *            DMA1_FLAG_HT7 - DMA1 Channel7 half transfer flag.
 318:Drivers/src/ch32v20x_dma.c ****  *            DMA1_FLAG_TE7 - DMA1 Channel7 transfer error flag.
 319:Drivers/src/ch32v20x_dma.c ****  *            DMA2_FLAG_GL1 - DMA2 Channel1 global flag.
 320:Drivers/src/ch32v20x_dma.c ****  *            DMA2_FLAG_TC1 - DMA2 Channel1 transfer complete flag.
 321:Drivers/src/ch32v20x_dma.c ****  *            DMA2_FLAG_HT1 - DMA2 Channel1 half transfer flag.
 322:Drivers/src/ch32v20x_dma.c ****  *            DMA2_FLAG_TE1 - DMA2 Channel1 transfer error flag.
 323:Drivers/src/ch32v20x_dma.c ****  * @return  none
 324:Drivers/src/ch32v20x_dma.c ****  */
 325:Drivers/src/ch32v20x_dma.c **** void DMA_ClearFlag(uint32_t DMAy_FLAG)
 326:Drivers/src/ch32v20x_dma.c **** {
 568              		.loc 1 326 1
 569              		.cfi_startproc
 570 0000 0111     		addi	sp,sp,-32
 571              		.cfi_def_cfa_offset 32
 572 0002 22CE     		sw	s0,28(sp)
 573              		.cfi_offset 8, -4
GAS LISTING C:\Users\SOLDER~1\AppData\Local\Temp\ccUIzJuS.s 			page 17


 574 0004 0010     		addi	s0,sp,32
 575              		.cfi_def_cfa 8, 0
 576 0006 2326A4FE 		sw	a0,-20(s0)
 327:Drivers/src/ch32v20x_dma.c ****     DMA1->INTFCR = DMAy_FLAG;
 577              		.loc 1 327 9
 578 000a B7070240 		li	a5,1073872896
 579              		.loc 1 327 18
 580 000e 0327C4FE 		lw	a4,-20(s0)
 581 0012 D8C3     		sw	a4,4(a5)
 328:Drivers/src/ch32v20x_dma.c **** }
 582              		.loc 1 328 1
 583 0014 0100     		nop
 584 0016 7244     		lw	s0,28(sp)
 585              		.cfi_restore 8
 586              		.cfi_def_cfa 2, 32
 587 0018 0561     		addi	sp,sp,32
 588              		.cfi_def_cfa_offset 0
 589 001a 8280     		jr	ra
 590              		.cfi_endproc
 591              	.LFE24:
 593              		.section	.text.DMA_GetITStatus,"ax",@progbits
 594              		.align	1
 595              		.globl	DMA_GetITStatus
 597              	DMA_GetITStatus:
 598              	.LFB25:
 329:Drivers/src/ch32v20x_dma.c **** 
 330:Drivers/src/ch32v20x_dma.c **** /*********************************************************************
 331:Drivers/src/ch32v20x_dma.c ****  * @fn      DMA_GetITStatus
 332:Drivers/src/ch32v20x_dma.c ****  *
 333:Drivers/src/ch32v20x_dma.c ****  * @brief   Checks whether the specified DMAy Channelx interrupt has
 334:Drivers/src/ch32v20x_dma.c ****  *        occurred or not.
 335:Drivers/src/ch32v20x_dma.c ****  *
 336:Drivers/src/ch32v20x_dma.c ****  * @param   DMAy_IT - specifies the DMAy interrupt source to check.
 337:Drivers/src/ch32v20x_dma.c ****  *            DMA1_IT_GL1 - DMA1 Channel1 global flag.
 338:Drivers/src/ch32v20x_dma.c ****  *            DMA1_IT_TC1 - DMA1 Channel1 transfer complete flag.
 339:Drivers/src/ch32v20x_dma.c ****  *            DMA1_IT_HT1 - DMA1 Channel1 half transfer flag.
 340:Drivers/src/ch32v20x_dma.c ****  *            DMA1_IT_TE1 - DMA1 Channel1 transfer error flag.
 341:Drivers/src/ch32v20x_dma.c ****  *            DMA1_IT_GL2 - DMA1 Channel2 global flag.
 342:Drivers/src/ch32v20x_dma.c ****  *            DMA1_IT_TC2 - DMA1 Channel2 transfer complete flag.
 343:Drivers/src/ch32v20x_dma.c ****  *            DMA1_IT_HT2 - DMA1 Channel2 half transfer flag.
 344:Drivers/src/ch32v20x_dma.c ****  *            DMA1_IT_TE2 - DMA1 Channel2 transfer error flag.
 345:Drivers/src/ch32v20x_dma.c ****  *            DMA1_IT_GL3 - DMA1 Channel3 global flag.
 346:Drivers/src/ch32v20x_dma.c ****  *            DMA1_IT_TC3 - DMA1 Channel3 transfer complete flag.
 347:Drivers/src/ch32v20x_dma.c ****  *            DMA1_IT_HT3 - DMA1 Channel3 half transfer flag.
 348:Drivers/src/ch32v20x_dma.c ****  *            DMA1_IT_TE3 - DMA1 Channel3 transfer error flag.
 349:Drivers/src/ch32v20x_dma.c ****  *            DMA1_IT_GL4 - DMA1 Channel4 global flag.
 350:Drivers/src/ch32v20x_dma.c ****  *            DMA1_IT_TC4 - DMA1 Channel4 transfer complete flag.
 351:Drivers/src/ch32v20x_dma.c ****  *            DMA1_IT_HT4 - DMA1 Channel4 half transfer flag.
 352:Drivers/src/ch32v20x_dma.c ****  *            DMA1_IT_TE4 - DMA1 Channel4 transfer error flag.
 353:Drivers/src/ch32v20x_dma.c ****  *            DMA1_IT_GL5 - DMA1 Channel5 global flag.
 354:Drivers/src/ch32v20x_dma.c ****  *            DMA1_IT_TC5 - DMA1 Channel5 transfer complete flag.
 355:Drivers/src/ch32v20x_dma.c ****  *            DMA1_IT_HT5 - DMA1 Channel5 half transfer flag.
 356:Drivers/src/ch32v20x_dma.c ****  *            DMA1_IT_TE5 - DMA1 Channel5 transfer error flag.
 357:Drivers/src/ch32v20x_dma.c ****  *            DMA1_IT_GL6 - DMA1 Channel6 global flag.
 358:Drivers/src/ch32v20x_dma.c ****  *            DMA1_IT_TC6 - DMA1 Channel6 transfer complete flag.
 359:Drivers/src/ch32v20x_dma.c ****  *            DMA1_IT_HT6 - DMA1 Channel6 half transfer flag.
 360:Drivers/src/ch32v20x_dma.c ****  *            DMA1_IT_TE6 - DMA1 Channel6 transfer error flag.
GAS LISTING C:\Users\SOLDER~1\AppData\Local\Temp\ccUIzJuS.s 			page 18


 361:Drivers/src/ch32v20x_dma.c ****  *            DMA1_IT_GL7 - DMA1 Channel7 global flag.
 362:Drivers/src/ch32v20x_dma.c ****  *            DMA1_IT_TC7 - DMA1 Channel7 transfer complete flag.
 363:Drivers/src/ch32v20x_dma.c ****  *            DMA1_IT_HT7 - DMA1 Channel7 half transfer flag.
 364:Drivers/src/ch32v20x_dma.c ****  *            DMA1_IT_TE7 - DMA1 Channel7 transfer error flag.
 365:Drivers/src/ch32v20x_dma.c ****  *            DMA2_IT_GL1 - DMA2 Channel1 global flag.
 366:Drivers/src/ch32v20x_dma.c ****  *            DMA2_IT_TC1 - DMA2 Channel1 transfer complete flag.
 367:Drivers/src/ch32v20x_dma.c ****  *            DMA2_IT_HT1 - DMA2 Channel1 half transfer flag.
 368:Drivers/src/ch32v20x_dma.c ****  *            DMA2_IT_TE1 - DMA2 Channel1 transfer error flag.
 369:Drivers/src/ch32v20x_dma.c ****  * @return  The new state of DMAy_IT (SET or RESET).
 370:Drivers/src/ch32v20x_dma.c ****  */
 371:Drivers/src/ch32v20x_dma.c **** ITStatus DMA_GetITStatus(uint32_t DMAy_IT)
 372:Drivers/src/ch32v20x_dma.c **** {
 599              		.loc 1 372 1
 600              		.cfi_startproc
 601 0000 7971     		addi	sp,sp,-48
 602              		.cfi_def_cfa_offset 48
 603 0002 22D6     		sw	s0,44(sp)
 604              		.cfi_offset 8, -4
 605 0004 0018     		addi	s0,sp,48
 606              		.cfi_def_cfa 8, 0
 607 0006 232EA4FC 		sw	a0,-36(s0)
 373:Drivers/src/ch32v20x_dma.c ****     ITStatus bitstatus = RESET;
 608              		.loc 1 373 14
 609 000a 232604FE 		sw	zero,-20(s0)
 374:Drivers/src/ch32v20x_dma.c ****     uint32_t tmpreg = 0;
 610              		.loc 1 374 14
 611 000e 232404FE 		sw	zero,-24(s0)
 375:Drivers/src/ch32v20x_dma.c **** 
 376:Drivers/src/ch32v20x_dma.c ****     tmpreg = DMA1->INTFR;
 612              		.loc 1 376 18
 613 0012 B7070240 		li	a5,1073872896
 614              		.loc 1 376 12
 615 0016 9C43     		lw	a5,0(a5)
 616 0018 2324F4FE 		sw	a5,-24(s0)
 377:Drivers/src/ch32v20x_dma.c **** 
 378:Drivers/src/ch32v20x_dma.c ****     if((tmpreg & DMAy_IT) != (uint32_t)RESET)
 617              		.loc 1 378 16
 618 001c 032784FE 		lw	a4,-24(s0)
 619 0020 8327C4FD 		lw	a5,-36(s0)
 620 0024 F98F     		and	a5,a4,a5
 621              		.loc 1 378 7
 622 0026 89C7     		beq	a5,zero,.L30
 379:Drivers/src/ch32v20x_dma.c ****     {
 380:Drivers/src/ch32v20x_dma.c ****         bitstatus = SET;
 623              		.loc 1 380 19
 624 0028 8547     		li	a5,1
 625 002a 2326F4FE 		sw	a5,-20(s0)
 626 002e 19A0     		j	.L31
 627              	.L30:
 381:Drivers/src/ch32v20x_dma.c ****     }
 382:Drivers/src/ch32v20x_dma.c ****     else
 383:Drivers/src/ch32v20x_dma.c ****     {
 384:Drivers/src/ch32v20x_dma.c ****         bitstatus = RESET;
 628              		.loc 1 384 19
 629 0030 232604FE 		sw	zero,-20(s0)
 630              	.L31:
 385:Drivers/src/ch32v20x_dma.c ****     }
GAS LISTING C:\Users\SOLDER~1\AppData\Local\Temp\ccUIzJuS.s 			page 19


 386:Drivers/src/ch32v20x_dma.c ****     return bitstatus;
 631              		.loc 1 386 12
 632 0034 8327C4FE 		lw	a5,-20(s0)
 387:Drivers/src/ch32v20x_dma.c **** }
 633              		.loc 1 387 1
 634 0038 3E85     		mv	a0,a5
 635 003a 3254     		lw	s0,44(sp)
 636              		.cfi_restore 8
 637              		.cfi_def_cfa 2, 48
 638 003c 4561     		addi	sp,sp,48
 639              		.cfi_def_cfa_offset 0
 640 003e 8280     		jr	ra
 641              		.cfi_endproc
 642              	.LFE25:
 644              		.section	.text.DMA_ClearITPendingBit,"ax",@progbits
 645              		.align	1
 646              		.globl	DMA_ClearITPendingBit
 648              	DMA_ClearITPendingBit:
 649              	.LFB26:
 388:Drivers/src/ch32v20x_dma.c **** 
 389:Drivers/src/ch32v20x_dma.c **** /*********************************************************************
 390:Drivers/src/ch32v20x_dma.c ****  * @fn      DMA_ClearITPendingBit
 391:Drivers/src/ch32v20x_dma.c ****  *
 392:Drivers/src/ch32v20x_dma.c ****  * @brief   Clears the DMAy Channelx's interrupt pending bits.
 393:Drivers/src/ch32v20x_dma.c ****  *
 394:Drivers/src/ch32v20x_dma.c ****  * @param   DMAy_IT - specifies the DMAy interrupt source to check.
 395:Drivers/src/ch32v20x_dma.c ****  *            DMA1_IT_GL1 - DMA1 Channel1 global flag.
 396:Drivers/src/ch32v20x_dma.c ****  *            DMA1_IT_TC1 - DMA1 Channel1 transfer complete flag.
 397:Drivers/src/ch32v20x_dma.c ****  *            DMA1_IT_HT1 - DMA1 Channel1 half transfer flag.
 398:Drivers/src/ch32v20x_dma.c ****  *            DMA1_IT_TE1 - DMA1 Channel1 transfer error flag.
 399:Drivers/src/ch32v20x_dma.c ****  *            DMA1_IT_GL2 - DMA1 Channel2 global flag.
 400:Drivers/src/ch32v20x_dma.c ****  *            DMA1_IT_TC2 - DMA1 Channel2 transfer complete flag.
 401:Drivers/src/ch32v20x_dma.c ****  *            DMA1_IT_HT2 - DMA1 Channel2 half transfer flag.
 402:Drivers/src/ch32v20x_dma.c ****  *            DMA1_IT_TE2 - DMA1 Channel2 transfer error flag.
 403:Drivers/src/ch32v20x_dma.c ****  *            DMA1_IT_GL3 - DMA1 Channel3 global flag.
 404:Drivers/src/ch32v20x_dma.c ****  *            DMA1_IT_TC3 - DMA1 Channel3 transfer complete flag.
 405:Drivers/src/ch32v20x_dma.c ****  *            DMA1_IT_HT3 - DMA1 Channel3 half transfer flag.
 406:Drivers/src/ch32v20x_dma.c ****  *            DMA1_IT_TE3 - DMA1 Channel3 transfer error flag.
 407:Drivers/src/ch32v20x_dma.c ****  *            DMA1_IT_GL4 - DMA1 Channel4 global flag.
 408:Drivers/src/ch32v20x_dma.c ****  *            DMA1_IT_TC4 - DMA1 Channel4 transfer complete flag.
 409:Drivers/src/ch32v20x_dma.c ****  *            DMA1_IT_HT4 - DMA1 Channel4 half transfer flag.
 410:Drivers/src/ch32v20x_dma.c ****  *            DMA1_IT_TE4 - DMA1 Channel4 transfer error flag.
 411:Drivers/src/ch32v20x_dma.c ****  *            DMA1_IT_GL5 - DMA1 Channel5 global flag.
 412:Drivers/src/ch32v20x_dma.c ****  *            DMA1_IT_TC5 - DMA1 Channel5 transfer complete flag.
 413:Drivers/src/ch32v20x_dma.c ****  *            DMA1_IT_HT5 - DMA1 Channel5 half transfer flag.
 414:Drivers/src/ch32v20x_dma.c ****  *            DMA1_IT_TE5 - DMA1 Channel5 transfer error flag.
 415:Drivers/src/ch32v20x_dma.c ****  *            DMA1_IT_GL6 - DMA1 Channel6 global flag.
 416:Drivers/src/ch32v20x_dma.c ****  *            DMA1_IT_TC6 - DMA1 Channel6 transfer complete flag.
 417:Drivers/src/ch32v20x_dma.c ****  *            DMA1_IT_HT6 - DMA1 Channel6 half transfer flag.
 418:Drivers/src/ch32v20x_dma.c ****  *            DMA1_IT_TE6 - DMA1 Channel6 transfer error flag.
 419:Drivers/src/ch32v20x_dma.c ****  *            DMA1_IT_GL7 - DMA1 Channel7 global flag.
 420:Drivers/src/ch32v20x_dma.c ****  *            DMA1_IT_TC7 - DMA1 Channel7 transfer complete flag.
 421:Drivers/src/ch32v20x_dma.c ****  *            DMA1_IT_HT7 - DMA1 Channel7 half transfer flag.
 422:Drivers/src/ch32v20x_dma.c ****  *            DMA1_IT_TE7 - DMA1 Channel7 transfer error flag.
 423:Drivers/src/ch32v20x_dma.c ****  *            DMA2_IT_GL1 - DMA2 Channel1 global flag.
 424:Drivers/src/ch32v20x_dma.c ****  *            DMA2_IT_TC1 - DMA2 Channel1 transfer complete flag.
 425:Drivers/src/ch32v20x_dma.c ****  *            DMA2_IT_HT1 - DMA2 Channel1 half transfer flag.
GAS LISTING C:\Users\SOLDER~1\AppData\Local\Temp\ccUIzJuS.s 			page 20


 426:Drivers/src/ch32v20x_dma.c ****  *            DMA2_IT_TE1 - DMA2 Channel1 transfer error flag.
 427:Drivers/src/ch32v20x_dma.c ****  * @return  none
 428:Drivers/src/ch32v20x_dma.c ****  */
 429:Drivers/src/ch32v20x_dma.c **** void DMA_ClearITPendingBit(uint32_t DMAy_IT)
 430:Drivers/src/ch32v20x_dma.c **** {
 650              		.loc 1 430 1
 651              		.cfi_startproc
 652 0000 0111     		addi	sp,sp,-32
 653              		.cfi_def_cfa_offset 32
 654 0002 22CE     		sw	s0,28(sp)
 655              		.cfi_offset 8, -4
 656 0004 0010     		addi	s0,sp,32
 657              		.cfi_def_cfa 8, 0
 658 0006 2326A4FE 		sw	a0,-20(s0)
 431:Drivers/src/ch32v20x_dma.c ****     DMA1->INTFCR = DMAy_IT;
 659              		.loc 1 431 9
 660 000a B7070240 		li	a5,1073872896
 661              		.loc 1 431 18
 662 000e 0327C4FE 		lw	a4,-20(s0)
 663 0012 D8C3     		sw	a4,4(a5)
 432:Drivers/src/ch32v20x_dma.c **** }
 664              		.loc 1 432 1
 665 0014 0100     		nop
 666 0016 7244     		lw	s0,28(sp)
 667              		.cfi_restore 8
 668              		.cfi_def_cfa 2, 32
 669 0018 0561     		addi	sp,sp,32
 670              		.cfi_def_cfa_offset 0
 671 001a 8280     		jr	ra
 672              		.cfi_endproc
 673              	.LFE26:
 675              		.text
 676              	.Letext0:
 677              		.file 2 "c:\\dev_tools\\ch32_tools\\risc-v_embedded_gcc12\\riscv-none-elf\\include\\machine\\_defa
 678              		.file 3 "c:\\dev_tools\\ch32_tools\\risc-v_embedded_gcc12\\riscv-none-elf\\include\\sys\\_stdint.h
 679              		.file 4 "Drivers/inc/core_riscv.h"
 680              		.file 5 "Drivers/inc/ch32v20x.h"
 681              		.file 6 "Drivers/inc/ch32v20x_dma.h"
GAS LISTING C:\Users\SOLDER~1\AppData\Local\Temp\ccUIzJuS.s 			page 21

