GAS LISTING C:\Users\SOLDER~1\AppData\Local\Temp\ccEQi33f.s 			page 1


   1              		.file	"ch32v20x_pwr.c"
   2              		.option nopic
   3              		.attribute arch, "rv32i2p0_m2p0_a2p0_c2p0_xw"
   4              		.attribute unaligned_access, 0
   5              		.attribute stack_align, 16
   6              		.text
   7              	.Ltext0:
   8              		.cfi_sections	.debug_frame
   9              		.file 0 "C:\\Users\\Solderingiron\\Documents\\GitHub\\VSC-make-example\\VSC_CH32V203C8T6" "Drivers
  10              		.section	.text.PWR_DeInit,"ax",@progbits
  11              		.align	1
  12              		.globl	PWR_DeInit
  14              	PWR_DeInit:
  15              	.LFB16:
  16              		.file 1 "Drivers/src/ch32v20x_pwr.c"
   1:Drivers/src/ch32v20x_pwr.c **** /********************************** (C) COPYRIGHT *******************************
   2:Drivers/src/ch32v20x_pwr.c ****  * File Name          : ch32v20x_pwr.c
   3:Drivers/src/ch32v20x_pwr.c ****  * Author             : WCH
   4:Drivers/src/ch32v20x_pwr.c ****  * Version            : V1.0.0
   5:Drivers/src/ch32v20x_pwr.c ****  * Date               : 2021/06/06
   6:Drivers/src/ch32v20x_pwr.c ****  * Description        : This file provides all the PWR firmware functions.
   7:Drivers/src/ch32v20x_pwr.c **** *********************************************************************************
   8:Drivers/src/ch32v20x_pwr.c **** * Copyright (c) 2021 Nanjing Qinheng Microelectronics Co., Ltd.
   9:Drivers/src/ch32v20x_pwr.c **** * Attention: This software (modified or not) and binary are used for 
  10:Drivers/src/ch32v20x_pwr.c **** * microcontroller manufactured by Nanjing Qinheng Microelectronics.
  11:Drivers/src/ch32v20x_pwr.c **** *******************************************************************************/
  12:Drivers/src/ch32v20x_pwr.c **** #include "ch32v20x_pwr.h"
  13:Drivers/src/ch32v20x_pwr.c **** #include "ch32v20x_rcc.h"
  14:Drivers/src/ch32v20x_pwr.c **** 
  15:Drivers/src/ch32v20x_pwr.c **** /* PWR registers bit mask */
  16:Drivers/src/ch32v20x_pwr.c **** /* CTLR register bit mask */
  17:Drivers/src/ch32v20x_pwr.c **** #define CTLR_DS_MASK     ((uint32_t)0xFFFFFFFC)
  18:Drivers/src/ch32v20x_pwr.c **** #define CTLR_PLS_MASK    ((uint32_t)0xFFFFFF1F)
  19:Drivers/src/ch32v20x_pwr.c **** 
  20:Drivers/src/ch32v20x_pwr.c **** /*********************************************************************
  21:Drivers/src/ch32v20x_pwr.c ****  * @fn      PWR_DeInit
  22:Drivers/src/ch32v20x_pwr.c ****  *
  23:Drivers/src/ch32v20x_pwr.c ****  * @brief   Deinitializes the PWR peripheral registers to their default
  24:Drivers/src/ch32v20x_pwr.c ****  *        reset values.
  25:Drivers/src/ch32v20x_pwr.c ****  *
  26:Drivers/src/ch32v20x_pwr.c ****  * @return  none
  27:Drivers/src/ch32v20x_pwr.c ****  */
  28:Drivers/src/ch32v20x_pwr.c **** void PWR_DeInit(void)
  29:Drivers/src/ch32v20x_pwr.c **** {
  17              		.loc 1 29 1
  18              		.cfi_startproc
  19 0000 4111     		addi	sp,sp,-16
  20              		.cfi_def_cfa_offset 16
  21 0002 06C6     		sw	ra,12(sp)
  22 0004 22C4     		sw	s0,8(sp)
  23              		.cfi_offset 1, -4
  24              		.cfi_offset 8, -8
  25 0006 0008     		addi	s0,sp,16
  26              		.cfi_def_cfa 8, 0
  30:Drivers/src/ch32v20x_pwr.c ****     RCC_APB1PeriphResetCmd(RCC_APB1Periph_PWR, ENABLE);
  27              		.loc 1 30 5
  28 0008 8545     		li	a1,1
GAS LISTING C:\Users\SOLDER~1\AppData\Local\Temp\ccEQi33f.s 			page 2


  29 000a 37050010 		li	a0,268435456
  30 000e 97000000 		call	RCC_APB1PeriphResetCmd
  30      E7800000 
  31:Drivers/src/ch32v20x_pwr.c ****     RCC_APB1PeriphResetCmd(RCC_APB1Periph_PWR, DISABLE);
  31              		.loc 1 31 5
  32 0016 8145     		li	a1,0
  33 0018 37050010 		li	a0,268435456
  34 001c 97000000 		call	RCC_APB1PeriphResetCmd
  34      E7800000 
  32:Drivers/src/ch32v20x_pwr.c **** }
  35              		.loc 1 32 1
  36 0024 0100     		nop
  37 0026 B240     		lw	ra,12(sp)
  38              		.cfi_restore 1
  39 0028 2244     		lw	s0,8(sp)
  40              		.cfi_restore 8
  41              		.cfi_def_cfa 2, 16
  42 002a 4101     		addi	sp,sp,16
  43              		.cfi_def_cfa_offset 0
  44 002c 8280     		jr	ra
  45              		.cfi_endproc
  46              	.LFE16:
  48              		.section	.text.PWR_BackupAccessCmd,"ax",@progbits
  49              		.align	1
  50              		.globl	PWR_BackupAccessCmd
  52              	PWR_BackupAccessCmd:
  53              	.LFB17:
  33:Drivers/src/ch32v20x_pwr.c **** 
  34:Drivers/src/ch32v20x_pwr.c **** /*********************************************************************
  35:Drivers/src/ch32v20x_pwr.c ****  * @fn      PWR_BackupAccessCmd
  36:Drivers/src/ch32v20x_pwr.c ****  *
  37:Drivers/src/ch32v20x_pwr.c ****  * @brief   Enables or disables access to the RTC and backup registers.
  38:Drivers/src/ch32v20x_pwr.c ****  *
  39:Drivers/src/ch32v20x_pwr.c ****  * @param   NewState - new state of the access to the RTC and backup registers,
  40:Drivers/src/ch32v20x_pwr.c ****  *            This parameter can be: ENABLE or DISABLE.
  41:Drivers/src/ch32v20x_pwr.c ****  *
  42:Drivers/src/ch32v20x_pwr.c ****  * @return  none
  43:Drivers/src/ch32v20x_pwr.c ****  */
  44:Drivers/src/ch32v20x_pwr.c **** void PWR_BackupAccessCmd(FunctionalState NewState)
  45:Drivers/src/ch32v20x_pwr.c **** {
  54              		.loc 1 45 1
  55              		.cfi_startproc
  56 0000 0111     		addi	sp,sp,-32
  57              		.cfi_def_cfa_offset 32
  58 0002 22CE     		sw	s0,28(sp)
  59              		.cfi_offset 8, -4
  60 0004 0010     		addi	s0,sp,32
  61              		.cfi_def_cfa 8, 0
  62 0006 2326A4FE 		sw	a0,-20(s0)
  46:Drivers/src/ch32v20x_pwr.c ****     if(NewState)
  63              		.loc 1 46 7
  64 000a 8327C4FE 		lw	a5,-20(s0)
  65 000e 91CB     		beq	a5,zero,.L3
  47:Drivers/src/ch32v20x_pwr.c ****     {
  48:Drivers/src/ch32v20x_pwr.c ****         PWR->CTLR |= (1 << 8);
  66              		.loc 1 48 12
  67 0010 B7770040 		li	a5,1073770496
GAS LISTING C:\Users\SOLDER~1\AppData\Local\Temp\ccEQi33f.s 			page 3


  68 0014 9843     		lw	a4,0(a5)
  69 0016 B7770040 		li	a5,1073770496
  70              		.loc 1 48 19
  71 001a 13670710 		ori	a4,a4,256
  72 001e 98C3     		sw	a4,0(a5)
  49:Drivers/src/ch32v20x_pwr.c ****     }
  50:Drivers/src/ch32v20x_pwr.c ****     else
  51:Drivers/src/ch32v20x_pwr.c ****     {
  52:Drivers/src/ch32v20x_pwr.c ****         PWR->CTLR &= ~(1 << 8);
  53:Drivers/src/ch32v20x_pwr.c ****     }
  54:Drivers/src/ch32v20x_pwr.c **** }
  73              		.loc 1 54 1
  74 0020 09A8     		j	.L5
  75              	.L3:
  52:Drivers/src/ch32v20x_pwr.c ****     }
  76              		.loc 1 52 12
  77 0022 B7770040 		li	a5,1073770496
  78 0026 9843     		lw	a4,0(a5)
  79 0028 B7770040 		li	a5,1073770496
  52:Drivers/src/ch32v20x_pwr.c ****     }
  80              		.loc 1 52 19
  81 002c 1377F7EF 		andi	a4,a4,-257
  82 0030 98C3     		sw	a4,0(a5)
  83              	.L5:
  84              		.loc 1 54 1
  85 0032 0100     		nop
  86 0034 7244     		lw	s0,28(sp)
  87              		.cfi_restore 8
  88              		.cfi_def_cfa 2, 32
  89 0036 0561     		addi	sp,sp,32
  90              		.cfi_def_cfa_offset 0
  91 0038 8280     		jr	ra
  92              		.cfi_endproc
  93              	.LFE17:
  95              		.section	.text.PWR_PVDCmd,"ax",@progbits
  96              		.align	1
  97              		.globl	PWR_PVDCmd
  99              	PWR_PVDCmd:
 100              	.LFB18:
  55:Drivers/src/ch32v20x_pwr.c **** 
  56:Drivers/src/ch32v20x_pwr.c **** /*********************************************************************
  57:Drivers/src/ch32v20x_pwr.c ****  * @fn      PWR_PVDCmd
  58:Drivers/src/ch32v20x_pwr.c ****  *
  59:Drivers/src/ch32v20x_pwr.c ****  * @brief   Enables or disables the Power Voltage Detector(PVD).
  60:Drivers/src/ch32v20x_pwr.c ****  *
  61:Drivers/src/ch32v20x_pwr.c ****  * @param   NewState - new state of the PVD(ENABLE or DISABLE).
  62:Drivers/src/ch32v20x_pwr.c ****  *
  63:Drivers/src/ch32v20x_pwr.c ****  * @return  none
  64:Drivers/src/ch32v20x_pwr.c ****  */
  65:Drivers/src/ch32v20x_pwr.c **** void PWR_PVDCmd(FunctionalState NewState)
  66:Drivers/src/ch32v20x_pwr.c **** {
 101              		.loc 1 66 1
 102              		.cfi_startproc
 103 0000 0111     		addi	sp,sp,-32
 104              		.cfi_def_cfa_offset 32
 105 0002 22CE     		sw	s0,28(sp)
 106              		.cfi_offset 8, -4
GAS LISTING C:\Users\SOLDER~1\AppData\Local\Temp\ccEQi33f.s 			page 4


 107 0004 0010     		addi	s0,sp,32
 108              		.cfi_def_cfa 8, 0
 109 0006 2326A4FE 		sw	a0,-20(s0)
  67:Drivers/src/ch32v20x_pwr.c ****     if(NewState)
 110              		.loc 1 67 7
 111 000a 8327C4FE 		lw	a5,-20(s0)
 112 000e 91CB     		beq	a5,zero,.L7
  68:Drivers/src/ch32v20x_pwr.c ****     {
  69:Drivers/src/ch32v20x_pwr.c ****         PWR->CTLR |= (1 << 4);
 113              		.loc 1 69 12
 114 0010 B7770040 		li	a5,1073770496
 115 0014 9843     		lw	a4,0(a5)
 116 0016 B7770040 		li	a5,1073770496
 117              		.loc 1 69 19
 118 001a 13670701 		ori	a4,a4,16
 119 001e 98C3     		sw	a4,0(a5)
  70:Drivers/src/ch32v20x_pwr.c ****     }
  71:Drivers/src/ch32v20x_pwr.c ****     else
  72:Drivers/src/ch32v20x_pwr.c ****     {
  73:Drivers/src/ch32v20x_pwr.c ****         PWR->CTLR &= ~(1 << 4);
  74:Drivers/src/ch32v20x_pwr.c ****     }
  75:Drivers/src/ch32v20x_pwr.c **** }
 120              		.loc 1 75 1
 121 0020 01A8     		j	.L9
 122              	.L7:
  73:Drivers/src/ch32v20x_pwr.c ****     }
 123              		.loc 1 73 12
 124 0022 B7770040 		li	a5,1073770496
 125 0026 9843     		lw	a4,0(a5)
 126 0028 B7770040 		li	a5,1073770496
  73:Drivers/src/ch32v20x_pwr.c ****     }
 127              		.loc 1 73 19
 128 002c 3D9B     		andi	a4,a4,-17
 129 002e 98C3     		sw	a4,0(a5)
 130              	.L9:
 131              		.loc 1 75 1
 132 0030 0100     		nop
 133 0032 7244     		lw	s0,28(sp)
 134              		.cfi_restore 8
 135              		.cfi_def_cfa 2, 32
 136 0034 0561     		addi	sp,sp,32
 137              		.cfi_def_cfa_offset 0
 138 0036 8280     		jr	ra
 139              		.cfi_endproc
 140              	.LFE18:
 142              		.section	.text.PWR_PVDLevelConfig,"ax",@progbits
 143              		.align	1
 144              		.globl	PWR_PVDLevelConfig
 146              	PWR_PVDLevelConfig:
 147              	.LFB19:
  76:Drivers/src/ch32v20x_pwr.c **** 
  77:Drivers/src/ch32v20x_pwr.c **** /*********************************************************************
  78:Drivers/src/ch32v20x_pwr.c ****  * @fn      PWR_PVDLevelConfig
  79:Drivers/src/ch32v20x_pwr.c ****  *
  80:Drivers/src/ch32v20x_pwr.c ****  * @brief   Configures the voltage threshold detected by the Power Voltage
  81:Drivers/src/ch32v20x_pwr.c ****  *        Detector(PVD).
  82:Drivers/src/ch32v20x_pwr.c ****  *
GAS LISTING C:\Users\SOLDER~1\AppData\Local\Temp\ccEQi33f.s 			page 5


  83:Drivers/src/ch32v20x_pwr.c ****  * @param   PWR_PVDLevel - specifies the PVD detection level
  84:Drivers/src/ch32v20x_pwr.c ****  *            PWR_PVDLevel_2V2 - PVD detection level set to 2.2V
  85:Drivers/src/ch32v20x_pwr.c ****  *            PWR_PVDLevel_2V3 - PVD detection level set to 2.3V
  86:Drivers/src/ch32v20x_pwr.c ****  *            PWR_PVDLevel_2V4 - PVD detection level set to 2.4V
  87:Drivers/src/ch32v20x_pwr.c ****  *            PWR_PVDLevel_2V5 - PVD detection level set to 2.5V
  88:Drivers/src/ch32v20x_pwr.c ****  *            PWR_PVDLevel_2V6 - PVD detection level set to 2.6V
  89:Drivers/src/ch32v20x_pwr.c ****  *            PWR_PVDLevel_2V7 - PVD detection level set to 2.7V
  90:Drivers/src/ch32v20x_pwr.c ****  *            PWR_PVDLevel_2V8 - PVD detection level set to 2.8V
  91:Drivers/src/ch32v20x_pwr.c ****  *            PWR_PVDLevel_2V9 - PVD detection level set to 2.9V
  92:Drivers/src/ch32v20x_pwr.c ****  *
  93:Drivers/src/ch32v20x_pwr.c ****  * @return  none
  94:Drivers/src/ch32v20x_pwr.c ****  */
  95:Drivers/src/ch32v20x_pwr.c **** void PWR_PVDLevelConfig(uint32_t PWR_PVDLevel)
  96:Drivers/src/ch32v20x_pwr.c **** {
 148              		.loc 1 96 1
 149              		.cfi_startproc
 150 0000 7971     		addi	sp,sp,-48
 151              		.cfi_def_cfa_offset 48
 152 0002 22D6     		sw	s0,44(sp)
 153              		.cfi_offset 8, -4
 154 0004 0018     		addi	s0,sp,48
 155              		.cfi_def_cfa 8, 0
 156 0006 232EA4FC 		sw	a0,-36(s0)
  97:Drivers/src/ch32v20x_pwr.c ****     uint32_t tmpreg = 0;
 157              		.loc 1 97 14
 158 000a 232604FE 		sw	zero,-20(s0)
  98:Drivers/src/ch32v20x_pwr.c ****     tmpreg = PWR->CTLR;
 159              		.loc 1 98 17
 160 000e B7770040 		li	a5,1073770496
 161              		.loc 1 98 12
 162 0012 9C43     		lw	a5,0(a5)
 163 0014 2326F4FE 		sw	a5,-20(s0)
  99:Drivers/src/ch32v20x_pwr.c ****     tmpreg &= CTLR_PLS_MASK;
 164              		.loc 1 99 12
 165 0018 8327C4FE 		lw	a5,-20(s0)
 166 001c 93F7F7F1 		andi	a5,a5,-225
 167 0020 2326F4FE 		sw	a5,-20(s0)
 100:Drivers/src/ch32v20x_pwr.c ****     tmpreg |= PWR_PVDLevel;
 168              		.loc 1 100 12
 169 0024 0327C4FE 		lw	a4,-20(s0)
 170 0028 8327C4FD 		lw	a5,-36(s0)
 171 002c D98F     		or	a5,a4,a5
 172 002e 2326F4FE 		sw	a5,-20(s0)
 101:Drivers/src/ch32v20x_pwr.c ****     PWR->CTLR = tmpreg;
 173              		.loc 1 101 8
 174 0032 B7770040 		li	a5,1073770496
 175              		.loc 1 101 15
 176 0036 0327C4FE 		lw	a4,-20(s0)
 177 003a 98C3     		sw	a4,0(a5)
 102:Drivers/src/ch32v20x_pwr.c **** }
 178              		.loc 1 102 1
 179 003c 0100     		nop
 180 003e 3254     		lw	s0,44(sp)
 181              		.cfi_restore 8
 182              		.cfi_def_cfa 2, 48
 183 0040 4561     		addi	sp,sp,48
 184              		.cfi_def_cfa_offset 0
GAS LISTING C:\Users\SOLDER~1\AppData\Local\Temp\ccEQi33f.s 			page 6


 185 0042 8280     		jr	ra
 186              		.cfi_endproc
 187              	.LFE19:
 189              		.section	.text.PWR_WakeUpPinCmd,"ax",@progbits
 190              		.align	1
 191              		.globl	PWR_WakeUpPinCmd
 193              	PWR_WakeUpPinCmd:
 194              	.LFB20:
 103:Drivers/src/ch32v20x_pwr.c **** 
 104:Drivers/src/ch32v20x_pwr.c **** /*********************************************************************
 105:Drivers/src/ch32v20x_pwr.c ****  * @fn      PWR_WakeUpPinCmd
 106:Drivers/src/ch32v20x_pwr.c ****  *
 107:Drivers/src/ch32v20x_pwr.c ****  * @brief   Enables or disables the WakeUp Pin functionality.
 108:Drivers/src/ch32v20x_pwr.c ****  *
 109:Drivers/src/ch32v20x_pwr.c ****  * @param   NewState - new state of the WakeUp Pin functionality
 110:Drivers/src/ch32v20x_pwr.c ****  *        (ENABLE or DISABLE).
 111:Drivers/src/ch32v20x_pwr.c ****  *
 112:Drivers/src/ch32v20x_pwr.c ****  * @return  none
 113:Drivers/src/ch32v20x_pwr.c ****  */
 114:Drivers/src/ch32v20x_pwr.c **** void PWR_WakeUpPinCmd(FunctionalState NewState)
 115:Drivers/src/ch32v20x_pwr.c **** {
 195              		.loc 1 115 1
 196              		.cfi_startproc
 197 0000 0111     		addi	sp,sp,-32
 198              		.cfi_def_cfa_offset 32
 199 0002 22CE     		sw	s0,28(sp)
 200              		.cfi_offset 8, -4
 201 0004 0010     		addi	s0,sp,32
 202              		.cfi_def_cfa 8, 0
 203 0006 2326A4FE 		sw	a0,-20(s0)
 116:Drivers/src/ch32v20x_pwr.c ****     if(NewState)
 204              		.loc 1 116 7
 205 000a 8327C4FE 		lw	a5,-20(s0)
 206 000e 91CB     		beq	a5,zero,.L12
 117:Drivers/src/ch32v20x_pwr.c ****     {
 118:Drivers/src/ch32v20x_pwr.c ****         PWR->CSR |= (1 << 8);
 207              		.loc 1 118 12
 208 0010 B7770040 		li	a5,1073770496
 209 0014 D843     		lw	a4,4(a5)
 210 0016 B7770040 		li	a5,1073770496
 211              		.loc 1 118 18
 212 001a 13670710 		ori	a4,a4,256
 213 001e D8C3     		sw	a4,4(a5)
 119:Drivers/src/ch32v20x_pwr.c ****     }
 120:Drivers/src/ch32v20x_pwr.c ****     else
 121:Drivers/src/ch32v20x_pwr.c ****     {
 122:Drivers/src/ch32v20x_pwr.c ****         PWR->CSR &= ~(1 << 8);
 123:Drivers/src/ch32v20x_pwr.c ****     }
 124:Drivers/src/ch32v20x_pwr.c **** }
 214              		.loc 1 124 1
 215 0020 09A8     		j	.L14
 216              	.L12:
 122:Drivers/src/ch32v20x_pwr.c ****     }
 217              		.loc 1 122 12
 218 0022 B7770040 		li	a5,1073770496
 219 0026 D843     		lw	a4,4(a5)
 220 0028 B7770040 		li	a5,1073770496
GAS LISTING C:\Users\SOLDER~1\AppData\Local\Temp\ccEQi33f.s 			page 7


 122:Drivers/src/ch32v20x_pwr.c ****     }
 221              		.loc 1 122 18
 222 002c 1377F7EF 		andi	a4,a4,-257
 223 0030 D8C3     		sw	a4,4(a5)
 224              	.L14:
 225              		.loc 1 124 1
 226 0032 0100     		nop
 227 0034 7244     		lw	s0,28(sp)
 228              		.cfi_restore 8
 229              		.cfi_def_cfa 2, 32
 230 0036 0561     		addi	sp,sp,32
 231              		.cfi_def_cfa_offset 0
 232 0038 8280     		jr	ra
 233              		.cfi_endproc
 234              	.LFE20:
 236              		.section	.text.PWR_EnterSTOPMode,"ax",@progbits
 237              		.align	1
 238              		.globl	PWR_EnterSTOPMode
 240              	PWR_EnterSTOPMode:
 241              	.LFB21:
 125:Drivers/src/ch32v20x_pwr.c **** 
 126:Drivers/src/ch32v20x_pwr.c **** /*********************************************************************
 127:Drivers/src/ch32v20x_pwr.c ****  * @fn      PWR_EnterSTOPMode
 128:Drivers/src/ch32v20x_pwr.c ****  *
 129:Drivers/src/ch32v20x_pwr.c ****  * @brief   Enters STOP mode.
 130:Drivers/src/ch32v20x_pwr.c ****  *
 131:Drivers/src/ch32v20x_pwr.c ****  * @param   PWR_Regulator - specifies the regulator state in STOP mode.
 132:Drivers/src/ch32v20x_pwr.c ****  *            PWR_Regulator_ON - STOP mode with regulator ON
 133:Drivers/src/ch32v20x_pwr.c ****  *            PWR_Regulator_LowPower - STOP mode with regulator in low power mode
 134:Drivers/src/ch32v20x_pwr.c ****  *          PWR_STOPEntry - specifies if STOP mode in entered with WFI or WFE instruction.
 135:Drivers/src/ch32v20x_pwr.c ****  *            PWR_STOPEntry_WFI - enter STOP mode with WFI instruction
 136:Drivers/src/ch32v20x_pwr.c ****  *            PWR_STOPEntry_WFE - enter STOP mode with WFE instruction
 137:Drivers/src/ch32v20x_pwr.c ****  *
 138:Drivers/src/ch32v20x_pwr.c ****  * @return  none
 139:Drivers/src/ch32v20x_pwr.c ****  */
 140:Drivers/src/ch32v20x_pwr.c **** void PWR_EnterSTOPMode(uint32_t PWR_Regulator, uint8_t PWR_STOPEntry)
 141:Drivers/src/ch32v20x_pwr.c **** {
 242              		.loc 1 141 1
 243              		.cfi_startproc
 244 0000 7971     		addi	sp,sp,-48
 245              		.cfi_def_cfa_offset 48
 246 0002 22D6     		sw	s0,44(sp)
 247              		.cfi_offset 8, -4
 248 0004 0018     		addi	s0,sp,48
 249              		.cfi_def_cfa 8, 0
 250 0006 232EA4FC 		sw	a0,-36(s0)
 251 000a AE87     		mv	a5,a1
 252 000c A30DF4FC 		sb	a5,-37(s0)
 142:Drivers/src/ch32v20x_pwr.c ****     uint32_t tmpreg = 0;
 253              		.loc 1 142 14
 254 0010 232604FE 		sw	zero,-20(s0)
 143:Drivers/src/ch32v20x_pwr.c ****     tmpreg = PWR->CTLR;
 255              		.loc 1 143 17
 256 0014 B7770040 		li	a5,1073770496
 257              		.loc 1 143 12
 258 0018 9C43     		lw	a5,0(a5)
 259 001a 2326F4FE 		sw	a5,-20(s0)
GAS LISTING C:\Users\SOLDER~1\AppData\Local\Temp\ccEQi33f.s 			page 8


 144:Drivers/src/ch32v20x_pwr.c ****     tmpreg &= CTLR_DS_MASK;
 260              		.loc 1 144 12
 261 001e 8327C4FE 		lw	a5,-20(s0)
 262 0022 F19B     		andi	a5,a5,-4
 263 0024 2326F4FE 		sw	a5,-20(s0)
 145:Drivers/src/ch32v20x_pwr.c ****     tmpreg |= PWR_Regulator;
 264              		.loc 1 145 12
 265 0028 0327C4FE 		lw	a4,-20(s0)
 266 002c 8327C4FD 		lw	a5,-36(s0)
 267 0030 D98F     		or	a5,a4,a5
 268 0032 2326F4FE 		sw	a5,-20(s0)
 146:Drivers/src/ch32v20x_pwr.c ****     PWR->CTLR = tmpreg;
 269              		.loc 1 146 8
 270 0036 B7770040 		li	a5,1073770496
 271              		.loc 1 146 15
 272 003a 0327C4FE 		lw	a4,-20(s0)
 273 003e 98C3     		sw	a4,0(a5)
 147:Drivers/src/ch32v20x_pwr.c **** 
 148:Drivers/src/ch32v20x_pwr.c ****     NVIC->SCTLR |= (1 << 2);
 274              		.loc 1 148 9
 275 0040 37E700E0 		li	a4,-536813568
 276 0044 8567     		li	a5,4096
 277 0046 BA97     		add	a5,a4,a5
 278 0048 83A707D1 		lw	a5,-752(a5)
 279 004c B7E600E0 		li	a3,-536813568
 280              		.loc 1 148 17
 281 0050 13E74700 		ori	a4,a5,4
 282 0054 8567     		li	a5,4096
 283 0056 B697     		add	a5,a3,a5
 284 0058 23A8E7D0 		sw	a4,-752(a5)
 149:Drivers/src/ch32v20x_pwr.c **** 
 150:Drivers/src/ch32v20x_pwr.c ****     if(PWR_STOPEntry == PWR_STOPEntry_WFI)
 285              		.loc 1 150 7
 286 005c 0347B4FD 		lbu	a4,-37(s0)
 287 0060 8547     		li	a5,1
 288 0062 6313F702 		bne	a4,a5,.L16
 289              	.LBB20:
 290              	.LBB21:
 291              		.file 2 "Drivers/inc/core_riscv.h"
   1:Drivers/inc/core_riscv.h **** /********************************** (C) COPYRIGHT  *******************************
   2:Drivers/inc/core_riscv.h ****  * File Name          : core_riscv.h
   3:Drivers/inc/core_riscv.h ****  * Author             : WCH
   4:Drivers/inc/core_riscv.h ****  * Version            : V1.0.0
   5:Drivers/inc/core_riscv.h ****  * Date               : 2021/06/06
   6:Drivers/inc/core_riscv.h ****  * Description        : RISC-V Core Peripheral Access Layer Header File for CH32V20x
   7:Drivers/inc/core_riscv.h ****  * Copyright (c) 2021 Nanjing Qinheng Microelectronics Co., Ltd.
   8:Drivers/inc/core_riscv.h ****  * SPDX-License-Identifier: Apache-2.0
   9:Drivers/inc/core_riscv.h ****  *******************************************************************************/
  10:Drivers/inc/core_riscv.h **** #ifndef __CORE_RISCV_H__
  11:Drivers/inc/core_riscv.h **** #define __CORE_RISCV_H__
  12:Drivers/inc/core_riscv.h **** 
  13:Drivers/inc/core_riscv.h **** /* IO definitions */
  14:Drivers/inc/core_riscv.h **** #ifdef __cplusplus
  15:Drivers/inc/core_riscv.h **** #define     __I     volatile                /*!< defines 'read only' permissions      */
  16:Drivers/inc/core_riscv.h **** #else
  17:Drivers/inc/core_riscv.h **** #define     __I     volatile const          /*!< defines 'read only' permissions     */
  18:Drivers/inc/core_riscv.h **** #endif
GAS LISTING C:\Users\SOLDER~1\AppData\Local\Temp\ccEQi33f.s 			page 9


  19:Drivers/inc/core_riscv.h **** #define     __O     volatile                  /*!< defines 'write only' permissions     */
  20:Drivers/inc/core_riscv.h **** #define     __IO    volatile                  /*!< defines 'read / write' permissions   */
  21:Drivers/inc/core_riscv.h **** 
  22:Drivers/inc/core_riscv.h **** /* Standard Peripheral Library old types (maintained for legacy purpose) */
  23:Drivers/inc/core_riscv.h **** typedef __I uint64_t vuc64; /* Read Only */
  24:Drivers/inc/core_riscv.h **** typedef __I uint32_t vuc32; /* Read Only */
  25:Drivers/inc/core_riscv.h **** typedef __I uint16_t vuc16; /* Read Only */
  26:Drivers/inc/core_riscv.h **** typedef __I uint8_t vuc8; /* Read Only */
  27:Drivers/inc/core_riscv.h **** 
  28:Drivers/inc/core_riscv.h **** typedef const uint64_t uc64; /* Read Only */
  29:Drivers/inc/core_riscv.h **** typedef const uint32_t uc32; /* Read Only */
  30:Drivers/inc/core_riscv.h **** typedef const uint16_t uc16; /* Read Only */
  31:Drivers/inc/core_riscv.h **** typedef const uint8_t uc8; /* Read Only */
  32:Drivers/inc/core_riscv.h **** 
  33:Drivers/inc/core_riscv.h **** typedef __I int64_t vsc64; /* Read Only */
  34:Drivers/inc/core_riscv.h **** typedef __I int32_t vsc32; /* Read Only */
  35:Drivers/inc/core_riscv.h **** typedef __I int16_t vsc16; /* Read Only */
  36:Drivers/inc/core_riscv.h **** typedef __I int8_t vsc8; /* Read Only */
  37:Drivers/inc/core_riscv.h **** 
  38:Drivers/inc/core_riscv.h **** typedef const int64_t sc64; /* Read Only */
  39:Drivers/inc/core_riscv.h **** typedef const int32_t sc32; /* Read Only */
  40:Drivers/inc/core_riscv.h **** typedef const int16_t sc16; /* Read Only */
  41:Drivers/inc/core_riscv.h **** typedef const int8_t sc8; /* Read Only */
  42:Drivers/inc/core_riscv.h **** 
  43:Drivers/inc/core_riscv.h **** typedef __IO uint64_t vu64;
  44:Drivers/inc/core_riscv.h **** typedef __IO uint32_t vu32;
  45:Drivers/inc/core_riscv.h **** typedef __IO uint16_t vu16;
  46:Drivers/inc/core_riscv.h **** typedef __IO uint8_t vu8;
  47:Drivers/inc/core_riscv.h **** 
  48:Drivers/inc/core_riscv.h **** typedef uint64_t u64;
  49:Drivers/inc/core_riscv.h **** typedef uint32_t u32;
  50:Drivers/inc/core_riscv.h **** typedef uint16_t u16;
  51:Drivers/inc/core_riscv.h **** typedef uint8_t u8;
  52:Drivers/inc/core_riscv.h **** 
  53:Drivers/inc/core_riscv.h **** typedef __IO int64_t vs64;
  54:Drivers/inc/core_riscv.h **** typedef __IO int32_t vs32;
  55:Drivers/inc/core_riscv.h **** typedef __IO int16_t vs16;
  56:Drivers/inc/core_riscv.h **** typedef __IO int8_t vs8;
  57:Drivers/inc/core_riscv.h **** 
  58:Drivers/inc/core_riscv.h **** typedef int64_t s64;
  59:Drivers/inc/core_riscv.h **** typedef int32_t s32;
  60:Drivers/inc/core_riscv.h **** typedef int16_t s16;
  61:Drivers/inc/core_riscv.h **** typedef int8_t s8;
  62:Drivers/inc/core_riscv.h **** 
  63:Drivers/inc/core_riscv.h **** typedef enum {
  64:Drivers/inc/core_riscv.h ****     NoREADY = 0, READY = !NoREADY
  65:Drivers/inc/core_riscv.h **** } ErrorStatus;
  66:Drivers/inc/core_riscv.h **** 
  67:Drivers/inc/core_riscv.h **** typedef enum {
  68:Drivers/inc/core_riscv.h ****     DISABLE = 0, ENABLE = !DISABLE
  69:Drivers/inc/core_riscv.h **** } FunctionalState;
  70:Drivers/inc/core_riscv.h **** 
  71:Drivers/inc/core_riscv.h **** typedef enum {
  72:Drivers/inc/core_riscv.h ****     RESET = 0, SET = !RESET
  73:Drivers/inc/core_riscv.h **** } FlagStatus, ITStatus;
  74:Drivers/inc/core_riscv.h **** 
  75:Drivers/inc/core_riscv.h **** #define   RV_STATIC_INLINE  static  inline
GAS LISTING C:\Users\SOLDER~1\AppData\Local\Temp\ccEQi33f.s 			page 10


  76:Drivers/inc/core_riscv.h **** 
  77:Drivers/inc/core_riscv.h **** /* memory mapped structure for Program Fast Interrupt Controller (PFIC) */
  78:Drivers/inc/core_riscv.h **** typedef struct {
  79:Drivers/inc/core_riscv.h ****     __I uint32_t ISR[8];
  80:Drivers/inc/core_riscv.h ****     __I uint32_t IPR[8];
  81:Drivers/inc/core_riscv.h ****     __IO uint32_t ITHRESDR;
  82:Drivers/inc/core_riscv.h ****     __IO uint32_t RESERVED;
  83:Drivers/inc/core_riscv.h ****     __IO uint32_t CFGR;
  84:Drivers/inc/core_riscv.h ****     __I uint32_t GISR;
  85:Drivers/inc/core_riscv.h ****     uint8_t VTFIDR[4];
  86:Drivers/inc/core_riscv.h ****     uint8_t RESERVED0[12];
  87:Drivers/inc/core_riscv.h ****     __IO uint32_t VTFADDR[4];
  88:Drivers/inc/core_riscv.h ****     uint8_t RESERVED1[0x90];
  89:Drivers/inc/core_riscv.h ****     __O uint32_t IENR[8];
  90:Drivers/inc/core_riscv.h ****     uint8_t RESERVED2[0x60];
  91:Drivers/inc/core_riscv.h ****     __O uint32_t IRER[8];
  92:Drivers/inc/core_riscv.h ****     uint8_t RESERVED3[0x60];
  93:Drivers/inc/core_riscv.h ****     __O uint32_t IPSR[8];
  94:Drivers/inc/core_riscv.h ****     uint8_t RESERVED4[0x60];
  95:Drivers/inc/core_riscv.h ****     __O uint32_t IPRR[8];
  96:Drivers/inc/core_riscv.h ****     uint8_t RESERVED5[0x60];
  97:Drivers/inc/core_riscv.h ****     __IO uint32_t IACTR[8];
  98:Drivers/inc/core_riscv.h ****     uint8_t RESERVED6[0xE0];
  99:Drivers/inc/core_riscv.h ****     __IO uint8_t IPRIOR[256];
 100:Drivers/inc/core_riscv.h ****     uint8_t RESERVED7[0x810];
 101:Drivers/inc/core_riscv.h ****     __IO uint32_t SCTLR;
 102:Drivers/inc/core_riscv.h **** } PFIC_Type;
 103:Drivers/inc/core_riscv.h **** 
 104:Drivers/inc/core_riscv.h **** /* memory mapped structure for SysTick */
 105:Drivers/inc/core_riscv.h **** typedef struct {
 106:Drivers/inc/core_riscv.h ****     __IO u32 CTLR;
 107:Drivers/inc/core_riscv.h ****     __IO u32 SR;
 108:Drivers/inc/core_riscv.h ****     __IO u64 CNT;
 109:Drivers/inc/core_riscv.h ****     __IO u64 CMP;
 110:Drivers/inc/core_riscv.h **** } SysTick_Type;
 111:Drivers/inc/core_riscv.h **** 
 112:Drivers/inc/core_riscv.h **** #define PFIC            ((PFIC_Type *) 0xE000E000 )
 113:Drivers/inc/core_riscv.h **** #define NVIC            PFIC
 114:Drivers/inc/core_riscv.h **** #define NVIC_KEY1       ((uint32_t)0xFA050000)
 115:Drivers/inc/core_riscv.h **** #define	NVIC_KEY2				((uint32_t)0xBCAF0000)
 116:Drivers/inc/core_riscv.h **** #define	NVIC_KEY3				((uint32_t)0xBEEF0000)
 117:Drivers/inc/core_riscv.h **** 
 118:Drivers/inc/core_riscv.h **** #define SysTick         ((SysTick_Type *) 0xE000F000)
 119:Drivers/inc/core_riscv.h **** 
 120:Drivers/inc/core_riscv.h **** /*********************************************************************
 121:Drivers/inc/core_riscv.h ****  * @fn      __enable_irq
 122:Drivers/inc/core_riscv.h ****  *
 123:Drivers/inc/core_riscv.h ****  * @brief   Enable Global Interrupt
 124:Drivers/inc/core_riscv.h ****  *
 125:Drivers/inc/core_riscv.h ****  * @return  none
 126:Drivers/inc/core_riscv.h ****  */
 127:Drivers/inc/core_riscv.h **** RV_STATIC_INLINE void __enable_irq() {
 128:Drivers/inc/core_riscv.h ****     __asm volatile ("csrw 0x800, %0" : : "r" (0x6088) );
 129:Drivers/inc/core_riscv.h **** }
 130:Drivers/inc/core_riscv.h **** 
 131:Drivers/inc/core_riscv.h **** /*********************************************************************
 132:Drivers/inc/core_riscv.h ****  * @fn      __disable_irq
GAS LISTING C:\Users\SOLDER~1\AppData\Local\Temp\ccEQi33f.s 			page 11


 133:Drivers/inc/core_riscv.h ****  *
 134:Drivers/inc/core_riscv.h ****  * @brief   Disable Global Interrupt
 135:Drivers/inc/core_riscv.h ****  *
 136:Drivers/inc/core_riscv.h ****  * @return  none
 137:Drivers/inc/core_riscv.h ****  */
 138:Drivers/inc/core_riscv.h **** RV_STATIC_INLINE void __disable_irq() {
 139:Drivers/inc/core_riscv.h ****     __asm volatile ("csrw 0x800, %0" : : "r" (0x6000) );
 140:Drivers/inc/core_riscv.h **** }
 141:Drivers/inc/core_riscv.h **** 
 142:Drivers/inc/core_riscv.h **** /*********************************************************************
 143:Drivers/inc/core_riscv.h ****  * @fn      __NOP
 144:Drivers/inc/core_riscv.h ****  *
 145:Drivers/inc/core_riscv.h ****  * @brief   nop
 146:Drivers/inc/core_riscv.h ****  *
 147:Drivers/inc/core_riscv.h ****  * @return  none
 148:Drivers/inc/core_riscv.h ****  */
 149:Drivers/inc/core_riscv.h **** RV_STATIC_INLINE void __NOP() {
 150:Drivers/inc/core_riscv.h ****     __asm volatile ("nop");
 151:Drivers/inc/core_riscv.h **** }
 152:Drivers/inc/core_riscv.h **** 
 153:Drivers/inc/core_riscv.h **** /*********************************************************************
 154:Drivers/inc/core_riscv.h ****  * @fn       NVIC_EnableIRQ
 155:Drivers/inc/core_riscv.h ****  *
 156:Drivers/inc/core_riscv.h ****  * @brief   Disable Interrupt
 157:Drivers/inc/core_riscv.h ****  *
 158:Drivers/inc/core_riscv.h ****  * @param   IRQn - Interrupt Numbers
 159:Drivers/inc/core_riscv.h ****  *
 160:Drivers/inc/core_riscv.h ****  * @return  none
 161:Drivers/inc/core_riscv.h ****  */
 162:Drivers/inc/core_riscv.h **** RV_STATIC_INLINE void NVIC_EnableIRQ(IRQn_Type IRQn) {
 163:Drivers/inc/core_riscv.h ****     NVIC->IENR[((uint32_t) (IRQn) >> 5)] = (1 << ((uint32_t) (IRQn) & 0x1F));
 164:Drivers/inc/core_riscv.h **** }
 165:Drivers/inc/core_riscv.h **** 
 166:Drivers/inc/core_riscv.h **** /*********************************************************************
 167:Drivers/inc/core_riscv.h ****  * @fn       NVIC_DisableIRQ
 168:Drivers/inc/core_riscv.h ****  *
 169:Drivers/inc/core_riscv.h ****  * @brief   Disable Interrupt
 170:Drivers/inc/core_riscv.h ****  *
 171:Drivers/inc/core_riscv.h ****  * @param   IRQn - Interrupt Numbers
 172:Drivers/inc/core_riscv.h ****  *
 173:Drivers/inc/core_riscv.h ****  * @return  none
 174:Drivers/inc/core_riscv.h ****  */
 175:Drivers/inc/core_riscv.h **** RV_STATIC_INLINE void NVIC_DisableIRQ(IRQn_Type IRQn) {
 176:Drivers/inc/core_riscv.h ****     NVIC->IRER[((uint32_t) (IRQn) >> 5)] = (1 << ((uint32_t) (IRQn) & 0x1F));
 177:Drivers/inc/core_riscv.h **** }
 178:Drivers/inc/core_riscv.h **** 
 179:Drivers/inc/core_riscv.h **** /*********************************************************************
 180:Drivers/inc/core_riscv.h ****  * @fn       NVIC_GetStatusIRQ
 181:Drivers/inc/core_riscv.h ****  *
 182:Drivers/inc/core_riscv.h ****  * @brief   Get Interrupt Enable State
 183:Drivers/inc/core_riscv.h ****  *
 184:Drivers/inc/core_riscv.h ****  * @param   IRQn - Interrupt Numbers
 185:Drivers/inc/core_riscv.h ****  *
 186:Drivers/inc/core_riscv.h ****  * @return  1 - 1: Interrupt Pending Enable
 187:Drivers/inc/core_riscv.h ****  *                0 - Interrupt Pending Disable
 188:Drivers/inc/core_riscv.h ****  */
 189:Drivers/inc/core_riscv.h **** RV_STATIC_INLINE uint32_t NVIC_GetStatusIRQ(IRQn_Type IRQn) {
GAS LISTING C:\Users\SOLDER~1\AppData\Local\Temp\ccEQi33f.s 			page 12


 190:Drivers/inc/core_riscv.h ****     return ((uint32_t) (
 191:Drivers/inc/core_riscv.h ****             (NVIC->ISR[(uint32_t) (IRQn) >> 5]
 192:Drivers/inc/core_riscv.h ****                     & (1 << ((uint32_t) (IRQn) & 0x1F))) ? 1 : 0));
 193:Drivers/inc/core_riscv.h **** }
 194:Drivers/inc/core_riscv.h **** 
 195:Drivers/inc/core_riscv.h **** /*********************************************************************
 196:Drivers/inc/core_riscv.h ****  * @fn      NVIC_GetPendingIRQ
 197:Drivers/inc/core_riscv.h ****  *
 198:Drivers/inc/core_riscv.h ****  * @brief   Get Interrupt Pending State
 199:Drivers/inc/core_riscv.h ****  *
 200:Drivers/inc/core_riscv.h ****  * @param   IRQn - Interrupt Numbers
 201:Drivers/inc/core_riscv.h ****  *
 202:Drivers/inc/core_riscv.h ****  * @return  1 - 1: Interrupt Pending Enable
 203:Drivers/inc/core_riscv.h ****  *                0 - Interrupt Pending Disable
 204:Drivers/inc/core_riscv.h ****  */
 205:Drivers/inc/core_riscv.h **** RV_STATIC_INLINE uint32_t NVIC_GetPendingIRQ(IRQn_Type IRQn) {
 206:Drivers/inc/core_riscv.h ****     return ((uint32_t) (
 207:Drivers/inc/core_riscv.h ****             (NVIC->IPR[(uint32_t) (IRQn) >> 5]
 208:Drivers/inc/core_riscv.h ****                     & (1 << ((uint32_t) (IRQn) & 0x1F))) ? 1 : 0));
 209:Drivers/inc/core_riscv.h **** }
 210:Drivers/inc/core_riscv.h **** 
 211:Drivers/inc/core_riscv.h **** /*********************************************************************
 212:Drivers/inc/core_riscv.h ****  * @fn      NVIC_SetPendingIRQ
 213:Drivers/inc/core_riscv.h ****  *
 214:Drivers/inc/core_riscv.h ****  * @brief   Set Interrupt Pending
 215:Drivers/inc/core_riscv.h ****  *
 216:Drivers/inc/core_riscv.h ****  * @param   IRQn - Interrupt Numbers
 217:Drivers/inc/core_riscv.h ****  *
 218:Drivers/inc/core_riscv.h ****  * @return  none
 219:Drivers/inc/core_riscv.h ****  */
 220:Drivers/inc/core_riscv.h **** RV_STATIC_INLINE void NVIC_SetPendingIRQ(IRQn_Type IRQn) {
 221:Drivers/inc/core_riscv.h ****     NVIC->IPSR[((uint32_t) (IRQn) >> 5)] = (1 << ((uint32_t) (IRQn) & 0x1F));
 222:Drivers/inc/core_riscv.h **** }
 223:Drivers/inc/core_riscv.h **** 
 224:Drivers/inc/core_riscv.h **** /*********************************************************************
 225:Drivers/inc/core_riscv.h ****  * @fn      NVIC_ClearPendingIRQ
 226:Drivers/inc/core_riscv.h ****  *
 227:Drivers/inc/core_riscv.h ****  * @brief   Clear Interrupt Pending
 228:Drivers/inc/core_riscv.h ****  *
 229:Drivers/inc/core_riscv.h ****  * @param   IRQn - Interrupt Numbers
 230:Drivers/inc/core_riscv.h ****  *
 231:Drivers/inc/core_riscv.h ****  * @return  none
 232:Drivers/inc/core_riscv.h ****  */
 233:Drivers/inc/core_riscv.h **** RV_STATIC_INLINE void NVIC_ClearPendingIRQ(IRQn_Type IRQn) {
 234:Drivers/inc/core_riscv.h ****     NVIC->IPRR[((uint32_t) (IRQn) >> 5)] = (1 << ((uint32_t) (IRQn) & 0x1F));
 235:Drivers/inc/core_riscv.h **** }
 236:Drivers/inc/core_riscv.h **** 
 237:Drivers/inc/core_riscv.h **** /*********************************************************************
 238:Drivers/inc/core_riscv.h ****  * @fn      NVIC_GetActive
 239:Drivers/inc/core_riscv.h ****  *
 240:Drivers/inc/core_riscv.h ****  * @brief   Get Interrupt Active State
 241:Drivers/inc/core_riscv.h ****  *
 242:Drivers/inc/core_riscv.h ****  * @param   IRQn - Interrupt Numbers
 243:Drivers/inc/core_riscv.h ****  *
 244:Drivers/inc/core_riscv.h ****  * @return  1 - Interrupt Active
 245:Drivers/inc/core_riscv.h ****  *                0 - Interrupt No Active
 246:Drivers/inc/core_riscv.h ****  */
GAS LISTING C:\Users\SOLDER~1\AppData\Local\Temp\ccEQi33f.s 			page 13


 247:Drivers/inc/core_riscv.h **** RV_STATIC_INLINE uint32_t NVIC_GetActive(IRQn_Type IRQn) {
 248:Drivers/inc/core_riscv.h ****     return ((uint32_t) (
 249:Drivers/inc/core_riscv.h ****             (NVIC->IACTR[(uint32_t) (IRQn) >> 5]
 250:Drivers/inc/core_riscv.h ****                     & (1 << ((uint32_t) (IRQn) & 0x1F))) ? 1 : 0));
 251:Drivers/inc/core_riscv.h **** }
 252:Drivers/inc/core_riscv.h **** 
 253:Drivers/inc/core_riscv.h **** /**
 254:Drivers/inc/core_riscv.h ****  ******************************************************************************
 255:Drivers/inc/core_riscv.h ****  *  @breif Задать приоритет прерыванию
 256:Drivers/inc/core_riscv.h ****  *  @attention Чем ниже номер приоритета - тем он выше. 0 - высш
 257:Drivers/inc/core_riscv.h ****  *  @param   IRQn_Type IRQn - прерывание
 258:Drivers/inc/core_riscv.h ****  *  @param   priority - приоритет (от 0 до 7)
 259:Drivers/inc/core_riscv.h ****  ******************************************************************************
 260:Drivers/inc/core_riscv.h ****  */
 261:Drivers/inc/core_riscv.h **** 
 262:Drivers/inc/core_riscv.h **** RV_STATIC_INLINE void NVIC_SetPriority(IRQn_Type IRQn, uint8_t priority) {
 263:Drivers/inc/core_riscv.h ****     if (priority > 7) {
 264:Drivers/inc/core_riscv.h ****         priority = 7;
 265:Drivers/inc/core_riscv.h ****     }
 266:Drivers/inc/core_riscv.h ****     NVIC->IPRIOR[(uint32_t) (IRQn)] = priority << 5U;
 267:Drivers/inc/core_riscv.h **** }
 268:Drivers/inc/core_riscv.h **** 
 269:Drivers/inc/core_riscv.h **** /**
 270:Drivers/inc/core_riscv.h ****  ******************************************************************************
 271:Drivers/inc/core_riscv.h ****  *  @breif Получить сведения о приоритете прерывания
 272:Drivers/inc/core_riscv.h ****  *  @attention Чем ниже номер приоритета - тем он выше. 0 - высш
 273:Drivers/inc/core_riscv.h ****  *  @param IRQn_Type IRQn - прерывание
 274:Drivers/inc/core_riscv.h ****  *  @retval Возвращает номер приоритета, в данном случае от
 275:Drivers/inc/core_riscv.h ****  ******************************************************************************
 276:Drivers/inc/core_riscv.h ****  */
 277:Drivers/inc/core_riscv.h **** 
 278:Drivers/inc/core_riscv.h **** RV_STATIC_INLINE uint8_t NVIC_GetPriority(IRQn_Type IRQn) {
 279:Drivers/inc/core_riscv.h ****     return NVIC->IPRIOR[(uint32_t) (IRQn)] >> 5U;
 280:Drivers/inc/core_riscv.h **** }
 281:Drivers/inc/core_riscv.h **** 
 282:Drivers/inc/core_riscv.h **** 
 283:Drivers/inc/core_riscv.h **** /*********************************************************************
 284:Drivers/inc/core_riscv.h ****  * @fn       __WFI
 285:Drivers/inc/core_riscv.h ****  *
 286:Drivers/inc/core_riscv.h ****  * @brief   Wait for Interrupt
 287:Drivers/inc/core_riscv.h ****  *
 288:Drivers/inc/core_riscv.h ****  * @return  none
 289:Drivers/inc/core_riscv.h ****  */
 290:Drivers/inc/core_riscv.h **** __attribute__( ( always_inline ) ) RV_STATIC_INLINE void __WFI(void) {
 291:Drivers/inc/core_riscv.h ****     NVIC->SCTLR &= ~(1 << 3);	// wfi
 292              		.loc 2 291 9
 293 0066 37E700E0 		li	a4,-536813568
 294 006a 8567     		li	a5,4096
 295 006c BA97     		add	a5,a4,a5
 296 006e 83A707D1 		lw	a5,-752(a5)
 297 0072 B7E600E0 		li	a3,-536813568
 298              		.loc 2 291 17
 299 0076 13F777FF 		andi	a4,a5,-9
 300 007a 8567     		li	a5,4096
 301 007c B697     		add	a5,a3,a5
 302 007e 23A8E7D0 		sw	a4,-752(a5)
 292:Drivers/inc/core_riscv.h ****     __asm volatile ("wfi");
GAS LISTING C:\Users\SOLDER~1\AppData\Local\Temp\ccEQi33f.s 			page 14


 303              		.loc 2 292 5
 304              	 #APP
 305              	# 292 "Drivers/inc/core_riscv.h" 1
 293              	}
 306              		wfi
 307              	# 0 "" 2
 308              		.loc 2 293 1
 309              	 #NO_APP
 310 0086 B9A8     		j	.L17
 311              	.L16:
 312              	.LBE21:
 313              	.LBE20:
 314              	.LBB22:
 315              	.LBB23:
 294:Drivers/inc/core_riscv.h **** 
 295:Drivers/inc/core_riscv.h **** /*********************************************************************
 296:Drivers/inc/core_riscv.h ****  * @fn       __WFE
 297:Drivers/inc/core_riscv.h ****  *
 298:Drivers/inc/core_riscv.h ****  * @brief   Wait for Events
 299:Drivers/inc/core_riscv.h ****  *
 300:Drivers/inc/core_riscv.h ****  * @return  none
 301:Drivers/inc/core_riscv.h ****  */
 302:Drivers/inc/core_riscv.h **** __attribute__( ( always_inline ) ) RV_STATIC_INLINE void __WFE(void) {
 303:Drivers/inc/core_riscv.h ****     uint32_t t;
 304:Drivers/inc/core_riscv.h **** 
 305:Drivers/inc/core_riscv.h ****     t = NVIC->SCTLR;
 316              		.loc 2 305 13
 317 0088 37E700E0 		li	a4,-536813568
 318              		.loc 2 305 7
 319 008c 8567     		li	a5,4096
 320 008e BA97     		add	a5,a4,a5
 321 0090 83A707D1 		lw	a5,-752(a5)
 322 0094 2324F4FE 		sw	a5,-24(s0)
 306:Drivers/inc/core_riscv.h ****     NVIC->SCTLR |= (1 << 3) | (1 << 5);		// (wfi->wfe)+(__sev)
 323              		.loc 2 306 9
 324 0098 37E700E0 		li	a4,-536813568
 325 009c 8567     		li	a5,4096
 326 009e BA97     		add	a5,a4,a5
 327 00a0 83A707D1 		lw	a5,-752(a5)
 328 00a4 B7E600E0 		li	a3,-536813568
 329              		.loc 2 306 17
 330 00a8 13E78702 		ori	a4,a5,40
 331 00ac 8567     		li	a5,4096
 332 00ae B697     		add	a5,a3,a5
 333 00b0 23A8E7D0 		sw	a4,-752(a5)
 307:Drivers/inc/core_riscv.h ****     NVIC->SCTLR = (NVIC->SCTLR & ~(1 << 5)) | (t & (1 << 5));
 334              		.loc 2 307 24
 335 00b4 37E700E0 		li	a4,-536813568
 336 00b8 8567     		li	a5,4096
 337 00ba BA97     		add	a5,a4,a5
 338 00bc 83A707D1 		lw	a5,-752(a5)
 339              		.loc 2 307 32
 340 00c0 13F7F7FD 		andi	a4,a5,-33
 341              		.loc 2 307 50
 342 00c4 832784FE 		lw	a5,-24(s0)
 343 00c8 93F70702 		andi	a5,a5,32
 344              		.loc 2 307 9
GAS LISTING C:\Users\SOLDER~1\AppData\Local\Temp\ccEQi33f.s 			page 15


 345 00cc B7E600E0 		li	a3,-536813568
 346              		.loc 2 307 45
 347 00d0 5D8F     		or	a4,a4,a5
 348              		.loc 2 307 17
 349 00d2 8567     		li	a5,4096
 350 00d4 B697     		add	a5,a3,a5
 351 00d6 23A8E7D0 		sw	a4,-752(a5)
 308:Drivers/inc/core_riscv.h ****     __asm volatile ("wfi");
 352              		.loc 2 308 5
 353              	 #APP
 354              	# 308 "Drivers/inc/core_riscv.h" 1
 309              	    __asm volatile ("wfi");
 355              		wfi
 356              	# 0 "" 2
 357              		.loc 2 309 5
 358              	# 309 "Drivers/inc/core_riscv.h" 1
 310              	}
 359              		wfi
 360              	# 0 "" 2
 361              		.loc 2 310 1
 362              	 #NO_APP
 363 00e2 0100     		nop
 364              	.L17:
 365              	.LBE23:
 366              	.LBE22:
 151:Drivers/src/ch32v20x_pwr.c ****     {
 152:Drivers/src/ch32v20x_pwr.c ****         __WFI();
 153:Drivers/src/ch32v20x_pwr.c ****     }
 154:Drivers/src/ch32v20x_pwr.c ****     else
 155:Drivers/src/ch32v20x_pwr.c ****     {
 156:Drivers/src/ch32v20x_pwr.c ****         __WFE();
 157:Drivers/src/ch32v20x_pwr.c ****     }
 158:Drivers/src/ch32v20x_pwr.c **** 
 159:Drivers/src/ch32v20x_pwr.c ****     NVIC->SCTLR &= ~(1 << 2);
 367              		.loc 1 159 9
 368 00e4 37E700E0 		li	a4,-536813568
 369 00e8 8567     		li	a5,4096
 370 00ea BA97     		add	a5,a4,a5
 371 00ec 83A707D1 		lw	a5,-752(a5)
 372 00f0 B7E600E0 		li	a3,-536813568
 373              		.loc 1 159 17
 374 00f4 13F7B7FF 		andi	a4,a5,-5
 375 00f8 8567     		li	a5,4096
 376 00fa B697     		add	a5,a3,a5
 377 00fc 23A8E7D0 		sw	a4,-752(a5)
 160:Drivers/src/ch32v20x_pwr.c **** }
 378              		.loc 1 160 1
 379 0100 0100     		nop
 380 0102 3254     		lw	s0,44(sp)
 381              		.cfi_restore 8
 382              		.cfi_def_cfa 2, 48
 383 0104 4561     		addi	sp,sp,48
 384              		.cfi_def_cfa_offset 0
 385 0106 8280     		jr	ra
 386              		.cfi_endproc
 387              	.LFE21:
 389              		.section	.text.PWR_EnterSTANDBYMode,"ax",@progbits
GAS LISTING C:\Users\SOLDER~1\AppData\Local\Temp\ccEQi33f.s 			page 16


 390              		.align	1
 391              		.globl	PWR_EnterSTANDBYMode
 393              	PWR_EnterSTANDBYMode:
 394              	.LFB22:
 161:Drivers/src/ch32v20x_pwr.c **** 
 162:Drivers/src/ch32v20x_pwr.c **** /*********************************************************************
 163:Drivers/src/ch32v20x_pwr.c ****  * @fn      PWR_EnterSTANDBYMode
 164:Drivers/src/ch32v20x_pwr.c ****  *
 165:Drivers/src/ch32v20x_pwr.c ****  * @brief   Enters STANDBY mode.
 166:Drivers/src/ch32v20x_pwr.c ****  *
 167:Drivers/src/ch32v20x_pwr.c ****  * @return  none
 168:Drivers/src/ch32v20x_pwr.c ****  */
 169:Drivers/src/ch32v20x_pwr.c **** void PWR_EnterSTANDBYMode(void)
 170:Drivers/src/ch32v20x_pwr.c **** {
 395              		.loc 1 170 1
 396              		.cfi_startproc
 397 0000 4111     		addi	sp,sp,-16
 398              		.cfi_def_cfa_offset 16
 399 0002 22C6     		sw	s0,12(sp)
 400              		.cfi_offset 8, -4
 401 0004 0008     		addi	s0,sp,16
 402              		.cfi_def_cfa 8, 0
 171:Drivers/src/ch32v20x_pwr.c ****     PWR->CTLR |= PWR_CTLR_CWUF;
 403              		.loc 1 171 8
 404 0006 B7770040 		li	a5,1073770496
 405 000a 9843     		lw	a4,0(a5)
 406 000c B7770040 		li	a5,1073770496
 407              		.loc 1 171 15
 408 0010 13674700 		ori	a4,a4,4
 409 0014 98C3     		sw	a4,0(a5)
 172:Drivers/src/ch32v20x_pwr.c ****     PWR->CTLR |= PWR_CTLR_PDDS;
 410              		.loc 1 172 8
 411 0016 B7770040 		li	a5,1073770496
 412 001a 9843     		lw	a4,0(a5)
 413 001c B7770040 		li	a5,1073770496
 414              		.loc 1 172 15
 415 0020 13672700 		ori	a4,a4,2
 416 0024 98C3     		sw	a4,0(a5)
 173:Drivers/src/ch32v20x_pwr.c ****     NVIC->SCTLR |= (1 << 2);
 417              		.loc 1 173 9
 418 0026 37E700E0 		li	a4,-536813568
 419 002a 8567     		li	a5,4096
 420 002c BA97     		add	a5,a4,a5
 421 002e 83A707D1 		lw	a5,-752(a5)
 422 0032 B7E600E0 		li	a3,-536813568
 423              		.loc 1 173 17
 424 0036 13E74700 		ori	a4,a5,4
 425 003a 8567     		li	a5,4096
 426 003c B697     		add	a5,a3,a5
 427 003e 23A8E7D0 		sw	a4,-752(a5)
 428              	.LBB24:
 429              	.LBB25:
 291:Drivers/inc/core_riscv.h ****     __asm volatile ("wfi");
 430              		.loc 2 291 9
 431 0042 37E700E0 		li	a4,-536813568
 432 0046 8567     		li	a5,4096
 433 0048 BA97     		add	a5,a4,a5
GAS LISTING C:\Users\SOLDER~1\AppData\Local\Temp\ccEQi33f.s 			page 17


 434 004a 83A707D1 		lw	a5,-752(a5)
 435 004e B7E600E0 		li	a3,-536813568
 291:Drivers/inc/core_riscv.h ****     __asm volatile ("wfi");
 436              		.loc 2 291 17
 437 0052 13F777FF 		andi	a4,a5,-9
 438 0056 8567     		li	a5,4096
 439 0058 B697     		add	a5,a3,a5
 440 005a 23A8E7D0 		sw	a4,-752(a5)
 292:Drivers/inc/core_riscv.h **** }
 441              		.loc 2 292 5
 442              	 #APP
 443              	# 292 "Drivers/inc/core_riscv.h" 1
 293:Drivers/inc/core_riscv.h **** 
 444              		wfi
 445              	# 0 "" 2
 446              		.loc 2 293 1
 447              	 #NO_APP
 448 0062 0100     		nop
 449              	.LBE25:
 450              	.LBE24:
 174:Drivers/src/ch32v20x_pwr.c **** 
 175:Drivers/src/ch32v20x_pwr.c ****     __WFI();
 176:Drivers/src/ch32v20x_pwr.c **** }
 451              		.loc 1 176 1
 452 0064 0100     		nop
 453 0066 3244     		lw	s0,12(sp)
 454              		.cfi_restore 8
 455              		.cfi_def_cfa 2, 16
 456 0068 4101     		addi	sp,sp,16
 457              		.cfi_def_cfa_offset 0
 458 006a 8280     		jr	ra
 459              		.cfi_endproc
 460              	.LFE22:
 462              		.section	.text.PWR_GetFlagStatus,"ax",@progbits
 463              		.align	1
 464              		.globl	PWR_GetFlagStatus
 466              	PWR_GetFlagStatus:
 467              	.LFB23:
 177:Drivers/src/ch32v20x_pwr.c **** 
 178:Drivers/src/ch32v20x_pwr.c **** /*********************************************************************
 179:Drivers/src/ch32v20x_pwr.c ****  * @fn      PWR_GetFlagStatus
 180:Drivers/src/ch32v20x_pwr.c ****  *
 181:Drivers/src/ch32v20x_pwr.c ****  * @brief   Checks whether the specified PWR flag is set or not.
 182:Drivers/src/ch32v20x_pwr.c ****  *
 183:Drivers/src/ch32v20x_pwr.c ****  * @param   PWR_FLAG - specifies the flag to check.
 184:Drivers/src/ch32v20x_pwr.c ****  *            PWR_FLAG_WU - Wake Up flag
 185:Drivers/src/ch32v20x_pwr.c ****  *            PWR_FLAG_SB - StandBy flag
 186:Drivers/src/ch32v20x_pwr.c ****  *            PWR_FLAG_PVDO - PVD Output
 187:Drivers/src/ch32v20x_pwr.c ****  *
 188:Drivers/src/ch32v20x_pwr.c ****  * @return  none
 189:Drivers/src/ch32v20x_pwr.c ****  */
 190:Drivers/src/ch32v20x_pwr.c **** FlagStatus PWR_GetFlagStatus(uint32_t PWR_FLAG)
 191:Drivers/src/ch32v20x_pwr.c **** {
 468              		.loc 1 191 1
 469              		.cfi_startproc
 470 0000 7971     		addi	sp,sp,-48
 471              		.cfi_def_cfa_offset 48
GAS LISTING C:\Users\SOLDER~1\AppData\Local\Temp\ccEQi33f.s 			page 18


 472 0002 22D6     		sw	s0,44(sp)
 473              		.cfi_offset 8, -4
 474 0004 0018     		addi	s0,sp,48
 475              		.cfi_def_cfa 8, 0
 476 0006 232EA4FC 		sw	a0,-36(s0)
 192:Drivers/src/ch32v20x_pwr.c ****     FlagStatus bitstatus = RESET;
 477              		.loc 1 192 16
 478 000a 232604FE 		sw	zero,-20(s0)
 193:Drivers/src/ch32v20x_pwr.c **** 
 194:Drivers/src/ch32v20x_pwr.c ****     if((PWR->CSR & PWR_FLAG) != (uint32_t)RESET)
 479              		.loc 1 194 12
 480 000e B7770040 		li	a5,1073770496
 481 0012 D843     		lw	a4,4(a5)
 482              		.loc 1 194 18
 483 0014 8327C4FD 		lw	a5,-36(s0)
 484 0018 F98F     		and	a5,a4,a5
 485              		.loc 1 194 7
 486 001a 89C7     		beq	a5,zero,.L20
 195:Drivers/src/ch32v20x_pwr.c ****     {
 196:Drivers/src/ch32v20x_pwr.c ****         bitstatus = SET;
 487              		.loc 1 196 19
 488 001c 8547     		li	a5,1
 489 001e 2326F4FE 		sw	a5,-20(s0)
 490 0022 19A0     		j	.L21
 491              	.L20:
 197:Drivers/src/ch32v20x_pwr.c ****     }
 198:Drivers/src/ch32v20x_pwr.c ****     else
 199:Drivers/src/ch32v20x_pwr.c ****     {
 200:Drivers/src/ch32v20x_pwr.c ****         bitstatus = RESET;
 492              		.loc 1 200 19
 493 0024 232604FE 		sw	zero,-20(s0)
 494              	.L21:
 201:Drivers/src/ch32v20x_pwr.c ****     }
 202:Drivers/src/ch32v20x_pwr.c ****     return bitstatus;
 495              		.loc 1 202 12
 496 0028 8327C4FE 		lw	a5,-20(s0)
 203:Drivers/src/ch32v20x_pwr.c **** }
 497              		.loc 1 203 1
 498 002c 3E85     		mv	a0,a5
 499 002e 3254     		lw	s0,44(sp)
 500              		.cfi_restore 8
 501              		.cfi_def_cfa 2, 48
 502 0030 4561     		addi	sp,sp,48
 503              		.cfi_def_cfa_offset 0
 504 0032 8280     		jr	ra
 505              		.cfi_endproc
 506              	.LFE23:
 508              		.section	.text.PWR_ClearFlag,"ax",@progbits
 509              		.align	1
 510              		.globl	PWR_ClearFlag
 512              	PWR_ClearFlag:
 513              	.LFB24:
 204:Drivers/src/ch32v20x_pwr.c **** 
 205:Drivers/src/ch32v20x_pwr.c **** /*********************************************************************
 206:Drivers/src/ch32v20x_pwr.c ****  * @fn      PWR_ClearFlag
 207:Drivers/src/ch32v20x_pwr.c ****  *
 208:Drivers/src/ch32v20x_pwr.c ****  * @brief   Clears the PWR's pending flags.
GAS LISTING C:\Users\SOLDER~1\AppData\Local\Temp\ccEQi33f.s 			page 19


 209:Drivers/src/ch32v20x_pwr.c ****  *
 210:Drivers/src/ch32v20x_pwr.c ****  * @param   PWR_FLAG - specifies the flag to clear.
 211:Drivers/src/ch32v20x_pwr.c ****  *            PWR_FLAG_WU - Wake Up flag
 212:Drivers/src/ch32v20x_pwr.c ****  *            PWR_FLAG_SB - StandBy flag
 213:Drivers/src/ch32v20x_pwr.c ****  *
 214:Drivers/src/ch32v20x_pwr.c ****  * @return  none
 215:Drivers/src/ch32v20x_pwr.c ****  */
 216:Drivers/src/ch32v20x_pwr.c **** void PWR_ClearFlag(uint32_t PWR_FLAG)
 217:Drivers/src/ch32v20x_pwr.c **** {
 514              		.loc 1 217 1
 515              		.cfi_startproc
 516 0000 0111     		addi	sp,sp,-32
 517              		.cfi_def_cfa_offset 32
 518 0002 22CE     		sw	s0,28(sp)
 519              		.cfi_offset 8, -4
 520 0004 0010     		addi	s0,sp,32
 521              		.cfi_def_cfa 8, 0
 522 0006 2326A4FE 		sw	a0,-20(s0)
 218:Drivers/src/ch32v20x_pwr.c ****     PWR->CTLR |= PWR_FLAG << 2;
 523              		.loc 1 218 8
 524 000a B7770040 		li	a5,1073770496
 525 000e 9443     		lw	a3,0(a5)
 526              		.loc 1 218 27
 527 0010 8327C4FE 		lw	a5,-20(s0)
 528 0014 13972700 		slli	a4,a5,2
 529              		.loc 1 218 8
 530 0018 B7770040 		li	a5,1073770496
 531              		.loc 1 218 15
 532 001c 558F     		or	a4,a3,a4
 533 001e 98C3     		sw	a4,0(a5)
 219:Drivers/src/ch32v20x_pwr.c **** }
 534              		.loc 1 219 1
 535 0020 0100     		nop
 536 0022 7244     		lw	s0,28(sp)
 537              		.cfi_restore 8
 538              		.cfi_def_cfa 2, 32
 539 0024 0561     		addi	sp,sp,32
 540              		.cfi_def_cfa_offset 0
 541 0026 8280     		jr	ra
 542              		.cfi_endproc
 543              	.LFE24:
 545              		.section	.text.PWR_EnterSTANDBYMode_RAM,"ax",@progbits
 546              		.align	1
 547              		.globl	PWR_EnterSTANDBYMode_RAM
 549              	PWR_EnterSTANDBYMode_RAM:
 550              	.LFB25:
 220:Drivers/src/ch32v20x_pwr.c **** 
 221:Drivers/src/ch32v20x_pwr.c **** /*********************************************************************
 222:Drivers/src/ch32v20x_pwr.c ****  * @fn      PWR_EnterSTANDBYMode_RAM
 223:Drivers/src/ch32v20x_pwr.c ****  *
 224:Drivers/src/ch32v20x_pwr.c ****  * @brief   Enters STANDBY mode with RAM data retention function on.
 225:Drivers/src/ch32v20x_pwr.c ****  *
 226:Drivers/src/ch32v20x_pwr.c ****  * @return  none
 227:Drivers/src/ch32v20x_pwr.c ****  */
 228:Drivers/src/ch32v20x_pwr.c **** void PWR_EnterSTANDBYMode_RAM(void)
 229:Drivers/src/ch32v20x_pwr.c **** {
 551              		.loc 1 229 1
GAS LISTING C:\Users\SOLDER~1\AppData\Local\Temp\ccEQi33f.s 			page 20


 552              		.cfi_startproc
 553 0000 0111     		addi	sp,sp,-32
 554              		.cfi_def_cfa_offset 32
 555 0002 22CE     		sw	s0,28(sp)
 556              		.cfi_offset 8, -4
 557 0004 0010     		addi	s0,sp,32
 558              		.cfi_def_cfa 8, 0
 230:Drivers/src/ch32v20x_pwr.c ****     uint32_t tmpreg = 0;
 559              		.loc 1 230 14
 560 0006 232604FE 		sw	zero,-20(s0)
 231:Drivers/src/ch32v20x_pwr.c ****     tmpreg = PWR->CTLR;
 561              		.loc 1 231 17
 562 000a B7770040 		li	a5,1073770496
 563              		.loc 1 231 12
 564 000e 9C43     		lw	a5,0(a5)
 565 0010 2326F4FE 		sw	a5,-20(s0)
 232:Drivers/src/ch32v20x_pwr.c **** 
 233:Drivers/src/ch32v20x_pwr.c ****     tmpreg |= PWR_CTLR_CWUF;
 566              		.loc 1 233 12
 567 0014 8327C4FE 		lw	a5,-20(s0)
 568 0018 93E74700 		ori	a5,a5,4
 569 001c 2326F4FE 		sw	a5,-20(s0)
 234:Drivers/src/ch32v20x_pwr.c ****     tmpreg |= PWR_CTLR_PDDS;
 570              		.loc 1 234 12
 571 0020 8327C4FE 		lw	a5,-20(s0)
 572 0024 93E72700 		ori	a5,a5,2
 573 0028 2326F4FE 		sw	a5,-20(s0)
 235:Drivers/src/ch32v20x_pwr.c **** 
 236:Drivers/src/ch32v20x_pwr.c **** #if defined (CH32V20x_D8) || defined (CH32V20x_D8W)
 237:Drivers/src/ch32v20x_pwr.c ****     //2K+30K in standby w power.
 238:Drivers/src/ch32v20x_pwr.c ****     tmpreg |= (0x1 << 16) | (0x1 << 17);
 239:Drivers/src/ch32v20x_pwr.c **** #else
 240:Drivers/src/ch32v20x_pwr.c ****     //RAM in standby power.
 241:Drivers/src/ch32v20x_pwr.c ****     tmpreg |= ( ( uint32_t )1 << 16 );
 574              		.loc 1 241 12
 575 002c 0327C4FE 		lw	a4,-20(s0)
 576 0030 C167     		li	a5,65536
 577 0032 D98F     		or	a5,a4,a5
 578 0034 2326F4FE 		sw	a5,-20(s0)
 242:Drivers/src/ch32v20x_pwr.c **** 
 243:Drivers/src/ch32v20x_pwr.c **** #endif
 244:Drivers/src/ch32v20x_pwr.c **** 
 245:Drivers/src/ch32v20x_pwr.c ****     PWR->CTLR = tmpreg;
 579              		.loc 1 245 8
 580 0038 B7770040 		li	a5,1073770496
 581              		.loc 1 245 15
 582 003c 0327C4FE 		lw	a4,-20(s0)
 583 0040 98C3     		sw	a4,0(a5)
 246:Drivers/src/ch32v20x_pwr.c **** 
 247:Drivers/src/ch32v20x_pwr.c ****     NVIC->SCTLR |= (1 << 2);
 584              		.loc 1 247 9
 585 0042 37E700E0 		li	a4,-536813568
 586 0046 8567     		li	a5,4096
 587 0048 BA97     		add	a5,a4,a5
 588 004a 83A707D1 		lw	a5,-752(a5)
 589 004e B7E600E0 		li	a3,-536813568
 590              		.loc 1 247 17
GAS LISTING C:\Users\SOLDER~1\AppData\Local\Temp\ccEQi33f.s 			page 21


 591 0052 13E74700 		ori	a4,a5,4
 592 0056 8567     		li	a5,4096
 593 0058 B697     		add	a5,a3,a5
 594 005a 23A8E7D0 		sw	a4,-752(a5)
 595              	.LBB26:
 596              	.LBB27:
 291:Drivers/inc/core_riscv.h ****     __asm volatile ("wfi");
 597              		.loc 2 291 9
 598 005e 37E700E0 		li	a4,-536813568
 599 0062 8567     		li	a5,4096
 600 0064 BA97     		add	a5,a4,a5
 601 0066 83A707D1 		lw	a5,-752(a5)
 602 006a B7E600E0 		li	a3,-536813568
 291:Drivers/inc/core_riscv.h ****     __asm volatile ("wfi");
 603              		.loc 2 291 17
 604 006e 13F777FF 		andi	a4,a5,-9
 605 0072 8567     		li	a5,4096
 606 0074 B697     		add	a5,a3,a5
 607 0076 23A8E7D0 		sw	a4,-752(a5)
 292:Drivers/inc/core_riscv.h **** }
 608              		.loc 2 292 5
 609              	 #APP
 610              	# 292 "Drivers/inc/core_riscv.h" 1
 293:Drivers/inc/core_riscv.h **** 
 611              		wfi
 612              	# 0 "" 2
 613              		.loc 2 293 1
 614              	 #NO_APP
 615 007e 0100     		nop
 616              	.LBE27:
 617              	.LBE26:
 248:Drivers/src/ch32v20x_pwr.c **** 
 249:Drivers/src/ch32v20x_pwr.c ****     __WFI();
 250:Drivers/src/ch32v20x_pwr.c **** }
 618              		.loc 1 250 1
 619 0080 0100     		nop
 620 0082 7244     		lw	s0,28(sp)
 621              		.cfi_restore 8
 622              		.cfi_def_cfa 2, 32
 623 0084 0561     		addi	sp,sp,32
 624              		.cfi_def_cfa_offset 0
 625 0086 8280     		jr	ra
 626              		.cfi_endproc
 627              	.LFE25:
 629              		.section	.text.PWR_EnterSTANDBYMode_RAM_LV,"ax",@progbits
 630              		.align	1
 631              		.globl	PWR_EnterSTANDBYMode_RAM_LV
 633              	PWR_EnterSTANDBYMode_RAM_LV:
 634              	.LFB26:
 251:Drivers/src/ch32v20x_pwr.c **** 
 252:Drivers/src/ch32v20x_pwr.c **** /*********************************************************************
 253:Drivers/src/ch32v20x_pwr.c ****  * @fn      PWR_EnterSTANDBYMode_RAM_LV
 254:Drivers/src/ch32v20x_pwr.c ****  *
 255:Drivers/src/ch32v20x_pwr.c ****  * @brief   Enters STANDBY mode with RAM data retention function and LV mode on.
 256:Drivers/src/ch32v20x_pwr.c ****  *
 257:Drivers/src/ch32v20x_pwr.c ****  * @return  none
 258:Drivers/src/ch32v20x_pwr.c ****  */
GAS LISTING C:\Users\SOLDER~1\AppData\Local\Temp\ccEQi33f.s 			page 22


 259:Drivers/src/ch32v20x_pwr.c **** void PWR_EnterSTANDBYMode_RAM_LV(void)
 260:Drivers/src/ch32v20x_pwr.c **** {
 635              		.loc 1 260 1
 636              		.cfi_startproc
 637 0000 0111     		addi	sp,sp,-32
 638              		.cfi_def_cfa_offset 32
 639 0002 22CE     		sw	s0,28(sp)
 640              		.cfi_offset 8, -4
 641 0004 0010     		addi	s0,sp,32
 642              		.cfi_def_cfa 8, 0
 261:Drivers/src/ch32v20x_pwr.c ****     uint32_t tmpreg = 0;
 643              		.loc 1 261 14
 644 0006 232604FE 		sw	zero,-20(s0)
 262:Drivers/src/ch32v20x_pwr.c ****     tmpreg = PWR->CTLR;
 645              		.loc 1 262 17
 646 000a B7770040 		li	a5,1073770496
 647              		.loc 1 262 12
 648 000e 9C43     		lw	a5,0(a5)
 649 0010 2326F4FE 		sw	a5,-20(s0)
 263:Drivers/src/ch32v20x_pwr.c **** 
 264:Drivers/src/ch32v20x_pwr.c ****     tmpreg |= PWR_CTLR_CWUF;
 650              		.loc 1 264 12
 651 0014 8327C4FE 		lw	a5,-20(s0)
 652 0018 93E74700 		ori	a5,a5,4
 653 001c 2326F4FE 		sw	a5,-20(s0)
 265:Drivers/src/ch32v20x_pwr.c ****     tmpreg |= PWR_CTLR_PDDS;
 654              		.loc 1 265 12
 655 0020 8327C4FE 		lw	a5,-20(s0)
 656 0024 93E72700 		ori	a5,a5,2
 657 0028 2326F4FE 		sw	a5,-20(s0)
 266:Drivers/src/ch32v20x_pwr.c **** 
 267:Drivers/src/ch32v20x_pwr.c **** #if defined (CH32V20x_D8) || defined (CH32V20x_D8W)
 268:Drivers/src/ch32v20x_pwr.c ****     //2K+30K in standby power.
 269:Drivers/src/ch32v20x_pwr.c ****     tmpreg |= (0x1 << 16) | (0x1 << 17);
 270:Drivers/src/ch32v20x_pwr.c ****     //2K+30K in standby LV .
 271:Drivers/src/ch32v20x_pwr.c ****     tmpreg |= (0x1 << 20);
 272:Drivers/src/ch32v20x_pwr.c **** #else
 273:Drivers/src/ch32v20x_pwr.c ****     //RAM in standby power.
 274:Drivers/src/ch32v20x_pwr.c ****     tmpreg |= ( ( uint32_t )1 << 16 );
 658              		.loc 1 274 12
 659 002c 0327C4FE 		lw	a4,-20(s0)
 660 0030 C167     		li	a5,65536
 661 0032 D98F     		or	a5,a4,a5
 662 0034 2326F4FE 		sw	a5,-20(s0)
 275:Drivers/src/ch32v20x_pwr.c ****     //RAM in standby LV .
 276:Drivers/src/ch32v20x_pwr.c ****     tmpreg |= ( ( uint32_t )1 << 20 );
 663              		.loc 1 276 12
 664 0038 0327C4FE 		lw	a4,-20(s0)
 665 003c B7071000 		li	a5,1048576
 666 0040 D98F     		or	a5,a4,a5
 667 0042 2326F4FE 		sw	a5,-20(s0)
 277:Drivers/src/ch32v20x_pwr.c **** 
 278:Drivers/src/ch32v20x_pwr.c **** #endif
 279:Drivers/src/ch32v20x_pwr.c **** 
 280:Drivers/src/ch32v20x_pwr.c ****     PWR->CTLR = tmpreg;
 668              		.loc 1 280 8
 669 0046 B7770040 		li	a5,1073770496
GAS LISTING C:\Users\SOLDER~1\AppData\Local\Temp\ccEQi33f.s 			page 23


 670              		.loc 1 280 15
 671 004a 0327C4FE 		lw	a4,-20(s0)
 672 004e 98C3     		sw	a4,0(a5)
 281:Drivers/src/ch32v20x_pwr.c **** 
 282:Drivers/src/ch32v20x_pwr.c ****     NVIC->SCTLR |= (1 << 2);
 673              		.loc 1 282 9
 674 0050 37E700E0 		li	a4,-536813568
 675 0054 8567     		li	a5,4096
 676 0056 BA97     		add	a5,a4,a5
 677 0058 83A707D1 		lw	a5,-752(a5)
 678 005c B7E600E0 		li	a3,-536813568
 679              		.loc 1 282 17
 680 0060 13E74700 		ori	a4,a5,4
 681 0064 8567     		li	a5,4096
 682 0066 B697     		add	a5,a3,a5
 683 0068 23A8E7D0 		sw	a4,-752(a5)
 684              	.LBB28:
 685              	.LBB29:
 291:Drivers/inc/core_riscv.h ****     __asm volatile ("wfi");
 686              		.loc 2 291 9
 687 006c 37E700E0 		li	a4,-536813568
 688 0070 8567     		li	a5,4096
 689 0072 BA97     		add	a5,a4,a5
 690 0074 83A707D1 		lw	a5,-752(a5)
 691 0078 B7E600E0 		li	a3,-536813568
 291:Drivers/inc/core_riscv.h ****     __asm volatile ("wfi");
 692              		.loc 2 291 17
 693 007c 13F777FF 		andi	a4,a5,-9
 694 0080 8567     		li	a5,4096
 695 0082 B697     		add	a5,a3,a5
 696 0084 23A8E7D0 		sw	a4,-752(a5)
 292:Drivers/inc/core_riscv.h **** }
 697              		.loc 2 292 5
 698              	 #APP
 699              	# 292 "Drivers/inc/core_riscv.h" 1
 293:Drivers/inc/core_riscv.h **** 
 700              		wfi
 701              	# 0 "" 2
 702              		.loc 2 293 1
 703              	 #NO_APP
 704 008c 0100     		nop
 705              	.LBE29:
 706              	.LBE28:
 283:Drivers/src/ch32v20x_pwr.c **** 
 284:Drivers/src/ch32v20x_pwr.c ****     __WFI();
 285:Drivers/src/ch32v20x_pwr.c **** }
 707              		.loc 1 285 1
 708 008e 0100     		nop
 709 0090 7244     		lw	s0,28(sp)
 710              		.cfi_restore 8
 711              		.cfi_def_cfa 2, 32
 712 0092 0561     		addi	sp,sp,32
 713              		.cfi_def_cfa_offset 0
 714 0094 8280     		jr	ra
 715              		.cfi_endproc
 716              	.LFE26:
 718              		.section	.text.PWR_EnterSTANDBYMode_RAM_VBAT_EN,"ax",@progbits
GAS LISTING C:\Users\SOLDER~1\AppData\Local\Temp\ccEQi33f.s 			page 24


 719              		.align	1
 720              		.globl	PWR_EnterSTANDBYMode_RAM_VBAT_EN
 722              	PWR_EnterSTANDBYMode_RAM_VBAT_EN:
 723              	.LFB27:
 286:Drivers/src/ch32v20x_pwr.c **** 
 287:Drivers/src/ch32v20x_pwr.c **** /*********************************************************************
 288:Drivers/src/ch32v20x_pwr.c ****  * @fn      PWR_EnterSTANDBYMode_RAM_VBAT_EN
 289:Drivers/src/ch32v20x_pwr.c ****  *
 290:Drivers/src/ch32v20x_pwr.c ****  * @brief   Enters STANDBY mode with RAM data retention function on (VBAT Enable).
 291:Drivers/src/ch32v20x_pwr.c ****  *
 292:Drivers/src/ch32v20x_pwr.c ****  * @return  none
 293:Drivers/src/ch32v20x_pwr.c ****  */
 294:Drivers/src/ch32v20x_pwr.c **** void PWR_EnterSTANDBYMode_RAM_VBAT_EN(void)
 295:Drivers/src/ch32v20x_pwr.c **** {
 724              		.loc 1 295 1
 725              		.cfi_startproc
 726 0000 0111     		addi	sp,sp,-32
 727              		.cfi_def_cfa_offset 32
 728 0002 22CE     		sw	s0,28(sp)
 729              		.cfi_offset 8, -4
 730 0004 0010     		addi	s0,sp,32
 731              		.cfi_def_cfa 8, 0
 296:Drivers/src/ch32v20x_pwr.c ****     uint32_t tmpreg = 0;
 732              		.loc 1 296 14
 733 0006 232604FE 		sw	zero,-20(s0)
 297:Drivers/src/ch32v20x_pwr.c ****     tmpreg = PWR->CTLR;
 734              		.loc 1 297 17
 735 000a B7770040 		li	a5,1073770496
 736              		.loc 1 297 12
 737 000e 9C43     		lw	a5,0(a5)
 738 0010 2326F4FE 		sw	a5,-20(s0)
 298:Drivers/src/ch32v20x_pwr.c **** 
 299:Drivers/src/ch32v20x_pwr.c ****     tmpreg |= PWR_CTLR_CWUF;
 739              		.loc 1 299 12
 740 0014 8327C4FE 		lw	a5,-20(s0)
 741 0018 93E74700 		ori	a5,a5,4
 742 001c 2326F4FE 		sw	a5,-20(s0)
 300:Drivers/src/ch32v20x_pwr.c ****     tmpreg |= PWR_CTLR_PDDS;
 743              		.loc 1 300 12
 744 0020 8327C4FE 		lw	a5,-20(s0)
 745 0024 93E72700 		ori	a5,a5,2
 746 0028 2326F4FE 		sw	a5,-20(s0)
 301:Drivers/src/ch32v20x_pwr.c **** 
 302:Drivers/src/ch32v20x_pwr.c **** #if defined (CH32V20x_D8) || defined (CH32V20x_D8W)
 303:Drivers/src/ch32v20x_pwr.c ****     //2K+30K in standby power (VBAT Enable).
 304:Drivers/src/ch32v20x_pwr.c ****     tmpreg |= (0x1 << 18) | (0x1 << 19);
 305:Drivers/src/ch32v20x_pwr.c **** #else
 306:Drivers/src/ch32v20x_pwr.c ****       //RAM in standby w power.
 307:Drivers/src/ch32v20x_pwr.c ****     tmpreg |= ( ( uint32_t )1 << 18 );
 747              		.loc 1 307 12
 748 002c 0327C4FE 		lw	a4,-20(s0)
 749 0030 B7070400 		li	a5,262144
 750 0034 D98F     		or	a5,a4,a5
 751 0036 2326F4FE 		sw	a5,-20(s0)
 308:Drivers/src/ch32v20x_pwr.c **** 
 309:Drivers/src/ch32v20x_pwr.c **** #endif
 310:Drivers/src/ch32v20x_pwr.c **** 
GAS LISTING C:\Users\SOLDER~1\AppData\Local\Temp\ccEQi33f.s 			page 25


 311:Drivers/src/ch32v20x_pwr.c ****     PWR->CTLR = tmpreg;
 752              		.loc 1 311 8
 753 003a B7770040 		li	a5,1073770496
 754              		.loc 1 311 15
 755 003e 0327C4FE 		lw	a4,-20(s0)
 756 0042 98C3     		sw	a4,0(a5)
 312:Drivers/src/ch32v20x_pwr.c **** 
 313:Drivers/src/ch32v20x_pwr.c ****     NVIC->SCTLR |= (1 << 2);
 757              		.loc 1 313 9
 758 0044 37E700E0 		li	a4,-536813568
 759 0048 8567     		li	a5,4096
 760 004a BA97     		add	a5,a4,a5
 761 004c 83A707D1 		lw	a5,-752(a5)
 762 0050 B7E600E0 		li	a3,-536813568
 763              		.loc 1 313 17
 764 0054 13E74700 		ori	a4,a5,4
 765 0058 8567     		li	a5,4096
 766 005a B697     		add	a5,a3,a5
 767 005c 23A8E7D0 		sw	a4,-752(a5)
 768              	.LBB30:
 769              	.LBB31:
 291:Drivers/inc/core_riscv.h ****     __asm volatile ("wfi");
 770              		.loc 2 291 9
 771 0060 37E700E0 		li	a4,-536813568
 772 0064 8567     		li	a5,4096
 773 0066 BA97     		add	a5,a4,a5
 774 0068 83A707D1 		lw	a5,-752(a5)
 775 006c B7E600E0 		li	a3,-536813568
 291:Drivers/inc/core_riscv.h ****     __asm volatile ("wfi");
 776              		.loc 2 291 17
 777 0070 13F777FF 		andi	a4,a5,-9
 778 0074 8567     		li	a5,4096
 779 0076 B697     		add	a5,a3,a5
 780 0078 23A8E7D0 		sw	a4,-752(a5)
 292:Drivers/inc/core_riscv.h **** }
 781              		.loc 2 292 5
 782              	 #APP
 783              	# 292 "Drivers/inc/core_riscv.h" 1
 293:Drivers/inc/core_riscv.h **** 
 784              		wfi
 785              	# 0 "" 2
 786              		.loc 2 293 1
 787              	 #NO_APP
 788 0080 0100     		nop
 789              	.LBE31:
 790              	.LBE30:
 314:Drivers/src/ch32v20x_pwr.c **** 
 315:Drivers/src/ch32v20x_pwr.c ****     __WFI();
 316:Drivers/src/ch32v20x_pwr.c **** }
 791              		.loc 1 316 1
 792 0082 0100     		nop
 793 0084 7244     		lw	s0,28(sp)
 794              		.cfi_restore 8
 795              		.cfi_def_cfa 2, 32
 796 0086 0561     		addi	sp,sp,32
 797              		.cfi_def_cfa_offset 0
 798 0088 8280     		jr	ra
GAS LISTING C:\Users\SOLDER~1\AppData\Local\Temp\ccEQi33f.s 			page 26


 799              		.cfi_endproc
 800              	.LFE27:
 802              		.section	.text.PWR_EnterSTANDBYMode_RAM_LV_VBAT_EN,"ax",@progbits
 803              		.align	1
 804              		.globl	PWR_EnterSTANDBYMode_RAM_LV_VBAT_EN
 806              	PWR_EnterSTANDBYMode_RAM_LV_VBAT_EN:
 807              	.LFB28:
 317:Drivers/src/ch32v20x_pwr.c **** 
 318:Drivers/src/ch32v20x_pwr.c **** /*********************************************************************
 319:Drivers/src/ch32v20x_pwr.c ****  * @fn      PWR_EnterSTANDBYMode_RAM_LV_VBAT_EN
 320:Drivers/src/ch32v20x_pwr.c ****  *
 321:Drivers/src/ch32v20x_pwr.c ****  * @brief   Enters STANDBY mode with RAM data retention function and LV mode on(VBAT Enable).
 322:Drivers/src/ch32v20x_pwr.c ****  *
 323:Drivers/src/ch32v20x_pwr.c ****  * @return  none
 324:Drivers/src/ch32v20x_pwr.c ****  */
 325:Drivers/src/ch32v20x_pwr.c **** void PWR_EnterSTANDBYMode_RAM_LV_VBAT_EN(void)
 326:Drivers/src/ch32v20x_pwr.c **** {
 808              		.loc 1 326 1
 809              		.cfi_startproc
 810 0000 0111     		addi	sp,sp,-32
 811              		.cfi_def_cfa_offset 32
 812 0002 22CE     		sw	s0,28(sp)
 813              		.cfi_offset 8, -4
 814 0004 0010     		addi	s0,sp,32
 815              		.cfi_def_cfa 8, 0
 327:Drivers/src/ch32v20x_pwr.c ****     uint32_t tmpreg = 0;
 816              		.loc 1 327 14
 817 0006 232604FE 		sw	zero,-20(s0)
 328:Drivers/src/ch32v20x_pwr.c ****     tmpreg = PWR->CTLR;
 818              		.loc 1 328 17
 819 000a B7770040 		li	a5,1073770496
 820              		.loc 1 328 12
 821 000e 9C43     		lw	a5,0(a5)
 822 0010 2326F4FE 		sw	a5,-20(s0)
 329:Drivers/src/ch32v20x_pwr.c **** 
 330:Drivers/src/ch32v20x_pwr.c ****     tmpreg |= PWR_CTLR_CWUF;
 823              		.loc 1 330 12
 824 0014 8327C4FE 		lw	a5,-20(s0)
 825 0018 93E74700 		ori	a5,a5,4
 826 001c 2326F4FE 		sw	a5,-20(s0)
 331:Drivers/src/ch32v20x_pwr.c ****     tmpreg |= PWR_CTLR_PDDS;
 827              		.loc 1 331 12
 828 0020 8327C4FE 		lw	a5,-20(s0)
 829 0024 93E72700 		ori	a5,a5,2
 830 0028 2326F4FE 		sw	a5,-20(s0)
 332:Drivers/src/ch32v20x_pwr.c **** 
 333:Drivers/src/ch32v20x_pwr.c **** #if defined (CH32V20x_D8) || defined (CH32V20x_D8W)
 334:Drivers/src/ch32v20x_pwr.c ****     //2K+30K in standby power (VBAT Enable).
 335:Drivers/src/ch32v20x_pwr.c ****     tmpreg |= (0x1 << 18) | (0x1 << 19);
 336:Drivers/src/ch32v20x_pwr.c ****     //2K+30K in standby LV .
 337:Drivers/src/ch32v20x_pwr.c ****     tmpreg |= (0x1 << 20);
 338:Drivers/src/ch32v20x_pwr.c **** #else
 339:Drivers/src/ch32v20x_pwr.c ****       //RAM in standby w power.
 340:Drivers/src/ch32v20x_pwr.c ****     tmpreg |= ( ( uint32_t )1 << 18 );
 831              		.loc 1 340 12
 832 002c 0327C4FE 		lw	a4,-20(s0)
 833 0030 B7070400 		li	a5,262144
GAS LISTING C:\Users\SOLDER~1\AppData\Local\Temp\ccEQi33f.s 			page 27


 834 0034 D98F     		or	a5,a4,a5
 835 0036 2326F4FE 		sw	a5,-20(s0)
 341:Drivers/src/ch32v20x_pwr.c ****     //RAM in standby LV .
 342:Drivers/src/ch32v20x_pwr.c ****     tmpreg |= ( ( uint32_t )1 << 20 );
 836              		.loc 1 342 12
 837 003a 0327C4FE 		lw	a4,-20(s0)
 838 003e B7071000 		li	a5,1048576
 839 0042 D98F     		or	a5,a4,a5
 840 0044 2326F4FE 		sw	a5,-20(s0)
 343:Drivers/src/ch32v20x_pwr.c **** 
 344:Drivers/src/ch32v20x_pwr.c **** #endif
 345:Drivers/src/ch32v20x_pwr.c **** 
 346:Drivers/src/ch32v20x_pwr.c ****     PWR->CTLR = tmpreg;
 841              		.loc 1 346 8
 842 0048 B7770040 		li	a5,1073770496
 843              		.loc 1 346 15
 844 004c 0327C4FE 		lw	a4,-20(s0)
 845 0050 98C3     		sw	a4,0(a5)
 347:Drivers/src/ch32v20x_pwr.c **** 
 348:Drivers/src/ch32v20x_pwr.c ****     NVIC->SCTLR |= (1 << 2);
 846              		.loc 1 348 9
 847 0052 37E700E0 		li	a4,-536813568
 848 0056 8567     		li	a5,4096
 849 0058 BA97     		add	a5,a4,a5
 850 005a 83A707D1 		lw	a5,-752(a5)
 851 005e B7E600E0 		li	a3,-536813568
 852              		.loc 1 348 17
 853 0062 13E74700 		ori	a4,a5,4
 854 0066 8567     		li	a5,4096
 855 0068 B697     		add	a5,a3,a5
 856 006a 23A8E7D0 		sw	a4,-752(a5)
 857              	.LBB32:
 858              	.LBB33:
 291:Drivers/inc/core_riscv.h ****     __asm volatile ("wfi");
 859              		.loc 2 291 9
 860 006e 37E700E0 		li	a4,-536813568
 861 0072 8567     		li	a5,4096
 862 0074 BA97     		add	a5,a4,a5
 863 0076 83A707D1 		lw	a5,-752(a5)
 864 007a B7E600E0 		li	a3,-536813568
 291:Drivers/inc/core_riscv.h ****     __asm volatile ("wfi");
 865              		.loc 2 291 17
 866 007e 13F777FF 		andi	a4,a5,-9
 867 0082 8567     		li	a5,4096
 868 0084 B697     		add	a5,a3,a5
 869 0086 23A8E7D0 		sw	a4,-752(a5)
 292:Drivers/inc/core_riscv.h **** }
 870              		.loc 2 292 5
 871              	 #APP
 872              	# 292 "Drivers/inc/core_riscv.h" 1
 293:Drivers/inc/core_riscv.h **** 
 873              		wfi
 874              	# 0 "" 2
 875              		.loc 2 293 1
 876              	 #NO_APP
 877 008e 0100     		nop
 878              	.LBE33:
GAS LISTING C:\Users\SOLDER~1\AppData\Local\Temp\ccEQi33f.s 			page 28


 879              	.LBE32:
 349:Drivers/src/ch32v20x_pwr.c **** 
 350:Drivers/src/ch32v20x_pwr.c ****     __WFI();
 351:Drivers/src/ch32v20x_pwr.c **** }
 880              		.loc 1 351 1
 881 0090 0100     		nop
 882 0092 7244     		lw	s0,28(sp)
 883              		.cfi_restore 8
 884              		.cfi_def_cfa 2, 32
 885 0094 0561     		addi	sp,sp,32
 886              		.cfi_def_cfa_offset 0
 887 0096 8280     		jr	ra
 888              		.cfi_endproc
 889              	.LFE28:
 891              		.section	.text.PWR_EnterSTOPMode_RAM_LV,"ax",@progbits
 892              		.align	1
 893              		.globl	PWR_EnterSTOPMode_RAM_LV
 895              	PWR_EnterSTOPMode_RAM_LV:
 896              	.LFB29:
 352:Drivers/src/ch32v20x_pwr.c **** 
 353:Drivers/src/ch32v20x_pwr.c **** 
 354:Drivers/src/ch32v20x_pwr.c **** /*********************************************************************
 355:Drivers/src/ch32v20x_pwr.c ****  * @fn      PWR_EnterSTOPMode_RAM_LV
 356:Drivers/src/ch32v20x_pwr.c ****  *
 357:Drivers/src/ch32v20x_pwr.c ****  * @brief   Enters STOP mode with RAM data retention function and LV mode on.
 358:Drivers/src/ch32v20x_pwr.c ****  *
 359:Drivers/src/ch32v20x_pwr.c ****  * @param   PWR_Regulator - specifies the regulator state in STOP mode.
 360:Drivers/src/ch32v20x_pwr.c ****  *            PWR_Regulator_ON - STOP mode with regulator ON
 361:Drivers/src/ch32v20x_pwr.c ****  *            PWR_Regulator_LowPower - STOP mode with regulator in low power mode
 362:Drivers/src/ch32v20x_pwr.c ****  *          PWR_STOPEntry - specifies if STOP mode in entered with WFI or WFE instruction.
 363:Drivers/src/ch32v20x_pwr.c ****  *            PWR_STOPEntry_WFI - enter STOP mode with WFI instruction
 364:Drivers/src/ch32v20x_pwr.c ****  *            PWR_STOPEntry_WFE - enter STOP mode with WFE instruction
 365:Drivers/src/ch32v20x_pwr.c ****  *
 366:Drivers/src/ch32v20x_pwr.c ****  * @return  none
 367:Drivers/src/ch32v20x_pwr.c ****  */
 368:Drivers/src/ch32v20x_pwr.c **** void PWR_EnterSTOPMode_RAM_LV(uint32_t PWR_Regulator, uint8_t PWR_STOPEntry)
 369:Drivers/src/ch32v20x_pwr.c **** {
 897              		.loc 1 369 1
 898              		.cfi_startproc
 899 0000 7971     		addi	sp,sp,-48
 900              		.cfi_def_cfa_offset 48
 901 0002 22D6     		sw	s0,44(sp)
 902              		.cfi_offset 8, -4
 903 0004 0018     		addi	s0,sp,48
 904              		.cfi_def_cfa 8, 0
 905 0006 232EA4FC 		sw	a0,-36(s0)
 906 000a AE87     		mv	a5,a1
 907 000c A30DF4FC 		sb	a5,-37(s0)
 370:Drivers/src/ch32v20x_pwr.c ****     uint32_t tmpreg = 0;
 908              		.loc 1 370 14
 909 0010 232604FE 		sw	zero,-20(s0)
 371:Drivers/src/ch32v20x_pwr.c ****     tmpreg = PWR->CTLR;
 910              		.loc 1 371 17
 911 0014 B7770040 		li	a5,1073770496
 912              		.loc 1 371 12
 913 0018 9C43     		lw	a5,0(a5)
 914 001a 2326F4FE 		sw	a5,-20(s0)
GAS LISTING C:\Users\SOLDER~1\AppData\Local\Temp\ccEQi33f.s 			page 29


 372:Drivers/src/ch32v20x_pwr.c ****     tmpreg &= CTLR_DS_MASK;
 915              		.loc 1 372 12
 916 001e 8327C4FE 		lw	a5,-20(s0)
 917 0022 F19B     		andi	a5,a5,-4
 918 0024 2326F4FE 		sw	a5,-20(s0)
 373:Drivers/src/ch32v20x_pwr.c ****     tmpreg |= PWR_Regulator;
 919              		.loc 1 373 12
 920 0028 0327C4FE 		lw	a4,-20(s0)
 921 002c 8327C4FD 		lw	a5,-36(s0)
 922 0030 D98F     		or	a5,a4,a5
 923 0032 2326F4FE 		sw	a5,-20(s0)
 374:Drivers/src/ch32v20x_pwr.c **** 
 375:Drivers/src/ch32v20x_pwr.c **** #if defined (CH32V20x_D8) || defined (CH32V20x_D8W)
 376:Drivers/src/ch32v20x_pwr.c ****     //2K+30K in standby power.
 377:Drivers/src/ch32v20x_pwr.c ****     tmpreg |= (0x1 << 16) | (0x1 << 17);
 378:Drivers/src/ch32v20x_pwr.c ****     //2K+30K in standby LV .
 379:Drivers/src/ch32v20x_pwr.c ****     tmpreg |= (0x1 << 20);
 380:Drivers/src/ch32v20x_pwr.c **** #else
 381:Drivers/src/ch32v20x_pwr.c ****     //RAM in standby power.
 382:Drivers/src/ch32v20x_pwr.c ****     tmpreg |= ( ( uint32_t )1 << 16 );
 924              		.loc 1 382 12
 925 0036 0327C4FE 		lw	a4,-20(s0)
 926 003a C167     		li	a5,65536
 927 003c D98F     		or	a5,a4,a5
 928 003e 2326F4FE 		sw	a5,-20(s0)
 383:Drivers/src/ch32v20x_pwr.c ****     //RAM in standby LV .
 384:Drivers/src/ch32v20x_pwr.c ****     tmpreg |= ( ( uint32_t )1 << 20 );
 929              		.loc 1 384 12
 930 0042 0327C4FE 		lw	a4,-20(s0)
 931 0046 B7071000 		li	a5,1048576
 932 004a D98F     		or	a5,a4,a5
 933 004c 2326F4FE 		sw	a5,-20(s0)
 385:Drivers/src/ch32v20x_pwr.c **** 
 386:Drivers/src/ch32v20x_pwr.c **** #endif
 387:Drivers/src/ch32v20x_pwr.c **** 
 388:Drivers/src/ch32v20x_pwr.c ****     PWR->CTLR = tmpreg;
 934              		.loc 1 388 8
 935 0050 B7770040 		li	a5,1073770496
 936              		.loc 1 388 15
 937 0054 0327C4FE 		lw	a4,-20(s0)
 938 0058 98C3     		sw	a4,0(a5)
 389:Drivers/src/ch32v20x_pwr.c **** 
 390:Drivers/src/ch32v20x_pwr.c ****     NVIC->SCTLR |= (1 << 2);
 939              		.loc 1 390 9
 940 005a 37E700E0 		li	a4,-536813568
 941 005e 8567     		li	a5,4096
 942 0060 BA97     		add	a5,a4,a5
 943 0062 83A707D1 		lw	a5,-752(a5)
 944 0066 B7E600E0 		li	a3,-536813568
 945              		.loc 1 390 17
 946 006a 13E74700 		ori	a4,a5,4
 947 006e 8567     		li	a5,4096
 948 0070 B697     		add	a5,a3,a5
 949 0072 23A8E7D0 		sw	a4,-752(a5)
 391:Drivers/src/ch32v20x_pwr.c **** 
 392:Drivers/src/ch32v20x_pwr.c ****     if(PWR_STOPEntry == PWR_STOPEntry_WFI)
 950              		.loc 1 392 7
GAS LISTING C:\Users\SOLDER~1\AppData\Local\Temp\ccEQi33f.s 			page 30


 951 0076 0347B4FD 		lbu	a4,-37(s0)
 952 007a 8547     		li	a5,1
 953 007c 6313F702 		bne	a4,a5,.L29
 954              	.LBB34:
 955              	.LBB35:
 291:Drivers/inc/core_riscv.h ****     __asm volatile ("wfi");
 956              		.loc 2 291 9
 957 0080 37E700E0 		li	a4,-536813568
 958 0084 8567     		li	a5,4096
 959 0086 BA97     		add	a5,a4,a5
 960 0088 83A707D1 		lw	a5,-752(a5)
 961 008c B7E600E0 		li	a3,-536813568
 291:Drivers/inc/core_riscv.h ****     __asm volatile ("wfi");
 962              		.loc 2 291 17
 963 0090 13F777FF 		andi	a4,a5,-9
 964 0094 8567     		li	a5,4096
 965 0096 B697     		add	a5,a3,a5
 966 0098 23A8E7D0 		sw	a4,-752(a5)
 292:Drivers/inc/core_riscv.h **** }
 967              		.loc 2 292 5
 968              	 #APP
 969              	# 292 "Drivers/inc/core_riscv.h" 1
 293:Drivers/inc/core_riscv.h **** 
 970              		wfi
 971              	# 0 "" 2
 972              		.loc 2 293 1
 973              	 #NO_APP
 974 00a0 B9A8     		j	.L30
 975              	.L29:
 976              	.LBE35:
 977              	.LBE34:
 978              	.LBB36:
 979              	.LBB37:
 305:Drivers/inc/core_riscv.h ****     NVIC->SCTLR |= (1 << 3) | (1 << 5);		// (wfi->wfe)+(__sev)
 980              		.loc 2 305 13
 981 00a2 37E700E0 		li	a4,-536813568
 305:Drivers/inc/core_riscv.h ****     NVIC->SCTLR |= (1 << 3) | (1 << 5);		// (wfi->wfe)+(__sev)
 982              		.loc 2 305 7
 983 00a6 8567     		li	a5,4096
 984 00a8 BA97     		add	a5,a4,a5
 985 00aa 83A707D1 		lw	a5,-752(a5)
 986 00ae 2324F4FE 		sw	a5,-24(s0)
 306:Drivers/inc/core_riscv.h ****     NVIC->SCTLR = (NVIC->SCTLR & ~(1 << 5)) | (t & (1 << 5));
 987              		.loc 2 306 9
 988 00b2 37E700E0 		li	a4,-536813568
 989 00b6 8567     		li	a5,4096
 990 00b8 BA97     		add	a5,a4,a5
 991 00ba 83A707D1 		lw	a5,-752(a5)
 992 00be B7E600E0 		li	a3,-536813568
 306:Drivers/inc/core_riscv.h ****     NVIC->SCTLR = (NVIC->SCTLR & ~(1 << 5)) | (t & (1 << 5));
 993              		.loc 2 306 17
 994 00c2 13E78702 		ori	a4,a5,40
 995 00c6 8567     		li	a5,4096
 996 00c8 B697     		add	a5,a3,a5
 997 00ca 23A8E7D0 		sw	a4,-752(a5)
 307:Drivers/inc/core_riscv.h ****     __asm volatile ("wfi");
 998              		.loc 2 307 24
GAS LISTING C:\Users\SOLDER~1\AppData\Local\Temp\ccEQi33f.s 			page 31


 999 00ce 37E700E0 		li	a4,-536813568
 1000 00d2 8567     		li	a5,4096
 1001 00d4 BA97     		add	a5,a4,a5
 1002 00d6 83A707D1 		lw	a5,-752(a5)
 307:Drivers/inc/core_riscv.h ****     __asm volatile ("wfi");
 1003              		.loc 2 307 32
 1004 00da 13F7F7FD 		andi	a4,a5,-33
 307:Drivers/inc/core_riscv.h ****     __asm volatile ("wfi");
 1005              		.loc 2 307 50
 1006 00de 832784FE 		lw	a5,-24(s0)
 1007 00e2 93F70702 		andi	a5,a5,32
 307:Drivers/inc/core_riscv.h ****     __asm volatile ("wfi");
 1008              		.loc 2 307 9
 1009 00e6 B7E600E0 		li	a3,-536813568
 307:Drivers/inc/core_riscv.h ****     __asm volatile ("wfi");
 1010              		.loc 2 307 45
 1011 00ea 5D8F     		or	a4,a4,a5
 307:Drivers/inc/core_riscv.h ****     __asm volatile ("wfi");
 1012              		.loc 2 307 17
 1013 00ec 8567     		li	a5,4096
 1014 00ee B697     		add	a5,a3,a5
 1015 00f0 23A8E7D0 		sw	a4,-752(a5)
 308:Drivers/inc/core_riscv.h ****     __asm volatile ("wfi");
 1016              		.loc 2 308 5
 1017              	 #APP
 1018              	# 308 "Drivers/inc/core_riscv.h" 1
 309:Drivers/inc/core_riscv.h **** }
 1019              		wfi
 1020              	# 0 "" 2
 1021              		.loc 2 309 5
 1022              	# 309 "Drivers/inc/core_riscv.h" 1
 1023              		wfi
 1024              	# 0 "" 2
 1025              		.loc 2 310 1
 1026              	 #NO_APP
 1027 00fc 0100     		nop
 1028              	.L30:
 1029              	.LBE37:
 1030              	.LBE36:
 393:Drivers/src/ch32v20x_pwr.c ****     {
 394:Drivers/src/ch32v20x_pwr.c ****         __WFI();
 395:Drivers/src/ch32v20x_pwr.c ****     }
 396:Drivers/src/ch32v20x_pwr.c ****     else
 397:Drivers/src/ch32v20x_pwr.c ****     {
 398:Drivers/src/ch32v20x_pwr.c ****         __WFE();
 399:Drivers/src/ch32v20x_pwr.c ****     }
 400:Drivers/src/ch32v20x_pwr.c **** 
 401:Drivers/src/ch32v20x_pwr.c ****     NVIC->SCTLR &= ~(1 << 2);
 1031              		.loc 1 401 9
 1032 00fe 37E700E0 		li	a4,-536813568
 1033 0102 8567     		li	a5,4096
 1034 0104 BA97     		add	a5,a4,a5
 1035 0106 83A707D1 		lw	a5,-752(a5)
 1036 010a B7E600E0 		li	a3,-536813568
 1037              		.loc 1 401 17
 1038 010e 13F7B7FF 		andi	a4,a5,-5
 1039 0112 8567     		li	a5,4096
GAS LISTING C:\Users\SOLDER~1\AppData\Local\Temp\ccEQi33f.s 			page 32


 1040 0114 B697     		add	a5,a3,a5
 1041 0116 23A8E7D0 		sw	a4,-752(a5)
 402:Drivers/src/ch32v20x_pwr.c **** }
 1042              		.loc 1 402 1
 1043 011a 0100     		nop
 1044 011c 3254     		lw	s0,44(sp)
 1045              		.cfi_restore 8
 1046              		.cfi_def_cfa 2, 48
 1047 011e 4561     		addi	sp,sp,48
 1048              		.cfi_def_cfa_offset 0
 1049 0120 8280     		jr	ra
 1050              		.cfi_endproc
 1051              	.LFE29:
 1053              		.text
 1054              	.Letext0:
 1055              		.file 3 "c:\\dev_tools\\ch32_tools\\risc-v_embedded_gcc12\\riscv-none-elf\\include\\machine\\_defa
 1056              		.file 4 "c:\\dev_tools\\ch32_tools\\risc-v_embedded_gcc12\\riscv-none-elf\\include\\sys\\_stdint.h
 1057              		.file 5 "Drivers/inc/ch32v20x.h"
 1058              		.file 6 "Drivers/inc/ch32v20x_rcc.h"
GAS LISTING C:\Users\SOLDER~1\AppData\Local\Temp\ccEQi33f.s 			page 33

