GAS LISTING C:\Users\SOLDER~1\AppData\Local\Temp\ccgE0nth.s 			page 1


   1              		.file	"ch32v20x_rtc.c"
   2              		.option nopic
   3              		.attribute arch, "rv32i2p0_m2p0_a2p0_c2p0_xw"
   4              		.attribute unaligned_access, 0
   5              		.attribute stack_align, 16
   6              		.text
   7              	.Ltext0:
   8              		.cfi_sections	.debug_frame
   9              		.file 0 "C:\\Users\\Solderingiron\\Documents\\GitHub\\VSC-make-example\\VSC_CH32V203C8T6" "Drivers
  10              		.section	.text.RTC_ITConfig,"ax",@progbits
  11              		.align	1
  12              		.globl	RTC_ITConfig
  14              	RTC_ITConfig:
  15              	.LFB16:
  16              		.file 1 "Drivers/src/ch32v20x_rtc.c"
   1:Drivers/src/ch32v20x_rtc.c **** /********************************** (C) COPYRIGHT *******************************
   2:Drivers/src/ch32v20x_rtc.c ****  * File Name          : ch32v20x_rtc.c
   3:Drivers/src/ch32v20x_rtc.c ****  * Author             : WCH
   4:Drivers/src/ch32v20x_rtc.c ****  * Version            : V1.0.0
   5:Drivers/src/ch32v20x_rtc.c ****  * Date               : 2021/06/06
   6:Drivers/src/ch32v20x_rtc.c ****  * Description        : This file provides all the RTC firmware functions.
   7:Drivers/src/ch32v20x_rtc.c **** *********************************************************************************
   8:Drivers/src/ch32v20x_rtc.c **** * Copyright (c) 2021 Nanjing Qinheng Microelectronics Co., Ltd.
   9:Drivers/src/ch32v20x_rtc.c **** * Attention: This software (modified or not) and binary are used for 
  10:Drivers/src/ch32v20x_rtc.c **** * microcontroller manufactured by Nanjing Qinheng Microelectronics.
  11:Drivers/src/ch32v20x_rtc.c **** *******************************************************************************/
  12:Drivers/src/ch32v20x_rtc.c **** #include "ch32v20x_rtc.h"
  13:Drivers/src/ch32v20x_rtc.c **** 
  14:Drivers/src/ch32v20x_rtc.c **** /* RTC_Private_Defines */
  15:Drivers/src/ch32v20x_rtc.c **** #define RTC_LSB_MASK     ((uint32_t)0x0000FFFF) /* RTC LSB Mask */
  16:Drivers/src/ch32v20x_rtc.c **** #define PRLH_MSB_MASK    ((uint32_t)0x000F0000) /* RTC Prescaler MSB Mask */
  17:Drivers/src/ch32v20x_rtc.c **** 
  18:Drivers/src/ch32v20x_rtc.c **** /*********************************************************************
  19:Drivers/src/ch32v20x_rtc.c ****  * @fn      RTC_ITConfig
  20:Drivers/src/ch32v20x_rtc.c ****  *
  21:Drivers/src/ch32v20x_rtc.c ****  * @brief   Enables or disables the specified RTC interrupts.
  22:Drivers/src/ch32v20x_rtc.c ****  *
  23:Drivers/src/ch32v20x_rtc.c ****  * @param   RTC_IT - specifies the RTC interrupts sources to be enabled or disabled.
  24:Drivers/src/ch32v20x_rtc.c ****  *            RTC_IT_OW - Overflow interrupt
  25:Drivers/src/ch32v20x_rtc.c ****  *            RTC_IT_ALR - Alarm interrupt
  26:Drivers/src/ch32v20x_rtc.c ****  *            RTC_IT_SEC - Second interrupt
  27:Drivers/src/ch32v20x_rtc.c ****  *
  28:Drivers/src/ch32v20x_rtc.c ****  * @return  NewState - new state of the specified RTC interrupts(ENABLE or DISABLE).
  29:Drivers/src/ch32v20x_rtc.c ****  */
  30:Drivers/src/ch32v20x_rtc.c **** void RTC_ITConfig(uint16_t RTC_IT, FunctionalState NewState)
  31:Drivers/src/ch32v20x_rtc.c **** {
  17              		.loc 1 31 1
  18              		.cfi_startproc
  19 0000 0111     		addi	sp,sp,-32
  20              		.cfi_def_cfa_offset 32
  21 0002 22CE     		sw	s0,28(sp)
  22              		.cfi_offset 8, -4
  23 0004 0010     		addi	s0,sp,32
  24              		.cfi_def_cfa 8, 0
  25 0006 AA87     		mv	a5,a0
  26 0008 2324B4FE 		sw	a1,-24(s0)
  27 000c 2317F4FE 		sh	a5,-18(s0)
GAS LISTING C:\Users\SOLDER~1\AppData\Local\Temp\ccgE0nth.s 			page 2


  32:Drivers/src/ch32v20x_rtc.c ****     if(NewState != DISABLE)
  28              		.loc 1 32 7
  29 0010 832784FE 		lw	a5,-24(s0)
  30 0014 85C7     		beq	a5,zero,.L2
  33:Drivers/src/ch32v20x_rtc.c ****     {
  34:Drivers/src/ch32v20x_rtc.c ****         RTC->CTLRH |= RTC_IT;
  31              		.loc 1 34 12
  32 0016 B7370040 		li	a5,1073754112
  33 001a 93870780 		addi	a5,a5,-2048
  34 001e 9E23     		lhu	a5,0(a5)
  35 0020 13970701 		slli	a4,a5,16
  36 0024 4183     		srli	a4,a4,16
  37 0026 B7370040 		li	a5,1073754112
  38 002a 93870780 		addi	a5,a5,-2048
  39              		.loc 1 34 20
  40 002e 8356E4FE 		lhu	a3,-18(s0)
  41 0032 558F     		or	a4,a4,a3
  42 0034 4207     		slli	a4,a4,16
  43 0036 4183     		srli	a4,a4,16
  44 0038 9AA3     		sh	a4,0(a5)
  35:Drivers/src/ch32v20x_rtc.c ****     }
  36:Drivers/src/ch32v20x_rtc.c ****     else
  37:Drivers/src/ch32v20x_rtc.c ****     {
  38:Drivers/src/ch32v20x_rtc.c ****         RTC->CTLRH &= (uint16_t)~RTC_IT;
  39:Drivers/src/ch32v20x_rtc.c ****     }
  40:Drivers/src/ch32v20x_rtc.c **** }
  45              		.loc 1 40 1
  46 003a 05A8     		j	.L4
  47              	.L2:
  38:Drivers/src/ch32v20x_rtc.c ****     }
  48              		.loc 1 38 12
  49 003c B7370040 		li	a5,1073754112
  50 0040 93870780 		addi	a5,a5,-2048
  51 0044 9E23     		lhu	a5,0(a5)
  52 0046 93960701 		slli	a3,a5,16
  53 004a C182     		srli	a3,a3,16
  38:Drivers/src/ch32v20x_rtc.c ****     }
  54              		.loc 1 38 23
  55 004c 8357E4FE 		lhu	a5,-18(s0)
  56 0050 93C7F7FF 		not	a5,a5
  57 0054 13970701 		slli	a4,a5,16
  58 0058 4183     		srli	a4,a4,16
  38:Drivers/src/ch32v20x_rtc.c ****     }
  59              		.loc 1 38 12
  60 005a B7370040 		li	a5,1073754112
  61 005e 93870780 		addi	a5,a5,-2048
  38:Drivers/src/ch32v20x_rtc.c ****     }
  62              		.loc 1 38 20
  63 0062 758F     		and	a4,a3,a4
  64 0064 4207     		slli	a4,a4,16
  65 0066 4183     		srli	a4,a4,16
  66 0068 9AA3     		sh	a4,0(a5)
  67              	.L4:
  68              		.loc 1 40 1
  69 006a 0100     		nop
  70 006c 7244     		lw	s0,28(sp)
  71              		.cfi_restore 8
GAS LISTING C:\Users\SOLDER~1\AppData\Local\Temp\ccgE0nth.s 			page 3


  72              		.cfi_def_cfa 2, 32
  73 006e 0561     		addi	sp,sp,32
  74              		.cfi_def_cfa_offset 0
  75 0070 8280     		jr	ra
  76              		.cfi_endproc
  77              	.LFE16:
  79              		.section	.text.RTC_EnterConfigMode,"ax",@progbits
  80              		.align	1
  81              		.globl	RTC_EnterConfigMode
  83              	RTC_EnterConfigMode:
  84              	.LFB17:
  41:Drivers/src/ch32v20x_rtc.c **** 
  42:Drivers/src/ch32v20x_rtc.c **** /*********************************************************************
  43:Drivers/src/ch32v20x_rtc.c ****  * @fn      RTC_EnterConfigMode
  44:Drivers/src/ch32v20x_rtc.c ****  *
  45:Drivers/src/ch32v20x_rtc.c ****  * @brief   Enters the RTC configuration mode.
  46:Drivers/src/ch32v20x_rtc.c ****  *
  47:Drivers/src/ch32v20x_rtc.c ****  * @return  none
  48:Drivers/src/ch32v20x_rtc.c ****  */
  49:Drivers/src/ch32v20x_rtc.c **** void RTC_EnterConfigMode(void)
  50:Drivers/src/ch32v20x_rtc.c **** {
  85              		.loc 1 50 1
  86              		.cfi_startproc
  87 0000 4111     		addi	sp,sp,-16
  88              		.cfi_def_cfa_offset 16
  89 0002 22C6     		sw	s0,12(sp)
  90              		.cfi_offset 8, -4
  91 0004 0008     		addi	s0,sp,16
  92              		.cfi_def_cfa 8, 0
  51:Drivers/src/ch32v20x_rtc.c ****     RTC->CTLRL |= RTC_CTLRL_CNF;
  93              		.loc 1 51 8
  94 0006 B7370040 		li	a5,1073754112
  95 000a 93870780 		addi	a5,a5,-2048
  96 000e DE23     		lhu	a5,4(a5)
  97 0010 13970701 		slli	a4,a5,16
  98 0014 4183     		srli	a4,a4,16
  99 0016 B7370040 		li	a5,1073754112
 100 001a 93870780 		addi	a5,a5,-2048
 101              		.loc 1 51 16
 102 001e 13670701 		ori	a4,a4,16
 103 0022 4207     		slli	a4,a4,16
 104 0024 4183     		srli	a4,a4,16
 105 0026 DAA3     		sh	a4,4(a5)
  52:Drivers/src/ch32v20x_rtc.c **** }
 106              		.loc 1 52 1
 107 0028 0100     		nop
 108 002a 3244     		lw	s0,12(sp)
 109              		.cfi_restore 8
 110              		.cfi_def_cfa 2, 16
 111 002c 4101     		addi	sp,sp,16
 112              		.cfi_def_cfa_offset 0
 113 002e 8280     		jr	ra
 114              		.cfi_endproc
 115              	.LFE17:
 117              		.section	.text.RTC_ExitConfigMode,"ax",@progbits
 118              		.align	1
 119              		.globl	RTC_ExitConfigMode
GAS LISTING C:\Users\SOLDER~1\AppData\Local\Temp\ccgE0nth.s 			page 4


 121              	RTC_ExitConfigMode:
 122              	.LFB18:
  53:Drivers/src/ch32v20x_rtc.c **** 
  54:Drivers/src/ch32v20x_rtc.c **** /*********************************************************************
  55:Drivers/src/ch32v20x_rtc.c ****  * @fn      RTC_ExitConfigMode
  56:Drivers/src/ch32v20x_rtc.c ****  *
  57:Drivers/src/ch32v20x_rtc.c ****  * @brief   Exits from the RTC configuration mode.
  58:Drivers/src/ch32v20x_rtc.c ****  *
  59:Drivers/src/ch32v20x_rtc.c ****  * @return  none
  60:Drivers/src/ch32v20x_rtc.c ****  */
  61:Drivers/src/ch32v20x_rtc.c **** void RTC_ExitConfigMode(void)
  62:Drivers/src/ch32v20x_rtc.c **** {
 123              		.loc 1 62 1
 124              		.cfi_startproc
 125 0000 4111     		addi	sp,sp,-16
 126              		.cfi_def_cfa_offset 16
 127 0002 22C6     		sw	s0,12(sp)
 128              		.cfi_offset 8, -4
 129 0004 0008     		addi	s0,sp,16
 130              		.cfi_def_cfa 8, 0
  63:Drivers/src/ch32v20x_rtc.c ****     RTC->CTLRL &= (uint16_t) ~((uint16_t)RTC_CTLRL_CNF);
 131              		.loc 1 63 8
 132 0006 B7370040 		li	a5,1073754112
 133 000a 93870780 		addi	a5,a5,-2048
 134 000e DE23     		lhu	a5,4(a5)
 135 0010 13970701 		slli	a4,a5,16
 136 0014 4183     		srli	a4,a4,16
 137 0016 B7370040 		li	a5,1073754112
 138 001a 93870780 		addi	a5,a5,-2048
 139              		.loc 1 63 16
 140 001e 3D9B     		andi	a4,a4,-17
 141 0020 4207     		slli	a4,a4,16
 142 0022 4183     		srli	a4,a4,16
 143 0024 DAA3     		sh	a4,4(a5)
  64:Drivers/src/ch32v20x_rtc.c **** }
 144              		.loc 1 64 1
 145 0026 0100     		nop
 146 0028 3244     		lw	s0,12(sp)
 147              		.cfi_restore 8
 148              		.cfi_def_cfa 2, 16
 149 002a 4101     		addi	sp,sp,16
 150              		.cfi_def_cfa_offset 0
 151 002c 8280     		jr	ra
 152              		.cfi_endproc
 153              	.LFE18:
 155              		.section	.text.RTC_GetCounter,"ax",@progbits
 156              		.align	1
 157              		.globl	RTC_GetCounter
 159              	RTC_GetCounter:
 160              	.LFB19:
  65:Drivers/src/ch32v20x_rtc.c **** 
  66:Drivers/src/ch32v20x_rtc.c **** /*********************************************************************
  67:Drivers/src/ch32v20x_rtc.c ****  * @fn      RTC_GetCounter
  68:Drivers/src/ch32v20x_rtc.c ****  *
  69:Drivers/src/ch32v20x_rtc.c ****  * @brief   Gets the RTC counter value
  70:Drivers/src/ch32v20x_rtc.c ****  *
  71:Drivers/src/ch32v20x_rtc.c ****  * @return  RTC counter value
GAS LISTING C:\Users\SOLDER~1\AppData\Local\Temp\ccgE0nth.s 			page 5


  72:Drivers/src/ch32v20x_rtc.c ****  */
  73:Drivers/src/ch32v20x_rtc.c **** uint32_t RTC_GetCounter(void)
  74:Drivers/src/ch32v20x_rtc.c **** {
 161              		.loc 1 74 1
 162              		.cfi_startproc
 163 0000 0111     		addi	sp,sp,-32
 164              		.cfi_def_cfa_offset 32
 165 0002 22CE     		sw	s0,28(sp)
 166              		.cfi_offset 8, -4
 167 0004 0010     		addi	s0,sp,32
 168              		.cfi_def_cfa 8, 0
  75:Drivers/src/ch32v20x_rtc.c ****     uint16_t high1 = 0, high2 = 0, low = 0;
 169              		.loc 1 75 14
 170 0006 231704FE 		sh	zero,-18(s0)
 171              		.loc 1 75 25
 172 000a 231604FE 		sh	zero,-20(s0)
 173              		.loc 1 75 36
 174 000e 231504FE 		sh	zero,-22(s0)
  76:Drivers/src/ch32v20x_rtc.c **** 
  77:Drivers/src/ch32v20x_rtc.c ****     high1 = RTC->CNTH;
 175              		.loc 1 77 16
 176 0012 B7370040 		li	a5,1073754112
 177 0016 93870780 		addi	a5,a5,-2048
 178              		.loc 1 77 11
 179 001a 9E2F     		lhu	a5,24(a5)
 180 001c 2317F4FE 		sh	a5,-18(s0)
  78:Drivers/src/ch32v20x_rtc.c ****     low = RTC->CNTL;
 181              		.loc 1 78 14
 182 0020 B7370040 		li	a5,1073754112
 183 0024 93870780 		addi	a5,a5,-2048
 184              		.loc 1 78 9
 185 0028 DE2F     		lhu	a5,28(a5)
 186 002a 2315F4FE 		sh	a5,-22(s0)
  79:Drivers/src/ch32v20x_rtc.c ****     high2 = RTC->CNTH;
 187              		.loc 1 79 16
 188 002e B7370040 		li	a5,1073754112
 189 0032 93870780 		addi	a5,a5,-2048
 190              		.loc 1 79 11
 191 0036 9E2F     		lhu	a5,24(a5)
 192 0038 2316F4FE 		sh	a5,-20(s0)
  80:Drivers/src/ch32v20x_rtc.c **** 
  81:Drivers/src/ch32v20x_rtc.c ****     if(high1 != high2)
 193              		.loc 1 81 7
 194 003c 0357E4FE 		lhu	a4,-18(s0)
 195 0040 8357C4FE 		lhu	a5,-20(s0)
 196 0044 630EF700 		beq	a4,a5,.L8
  82:Drivers/src/ch32v20x_rtc.c ****     {
  83:Drivers/src/ch32v20x_rtc.c ****         return (((uint32_t)high2 << 16) | RTC->CNTL);
 197              		.loc 1 83 18
 198 0048 8357C4FE 		lhu	a5,-20(s0)
 199              		.loc 1 83 34
 200 004c C207     		slli	a5,a5,16
 201              		.loc 1 83 46
 202 004e 37370040 		li	a4,1073754112
 203 0052 13070780 		addi	a4,a4,-2048
 204 0056 5A2F     		lhu	a4,28(a4)
 205 0058 4207     		slli	a4,a4,16
GAS LISTING C:\Users\SOLDER~1\AppData\Local\Temp\ccgE0nth.s 			page 6


 206 005a 4183     		srli	a4,a4,16
 207              		.loc 1 83 41
 208 005c D98F     		or	a5,a5,a4
 209 005e 01A8     		j	.L9
 210              	.L8:
  84:Drivers/src/ch32v20x_rtc.c ****     }
  85:Drivers/src/ch32v20x_rtc.c ****     else
  86:Drivers/src/ch32v20x_rtc.c ****     {
  87:Drivers/src/ch32v20x_rtc.c ****         return (((uint32_t)high1 << 16) | low);
 211              		.loc 1 87 18
 212 0060 8357E4FE 		lhu	a5,-18(s0)
 213              		.loc 1 87 34
 214 0064 13970701 		slli	a4,a5,16
 215              		.loc 1 87 41
 216 0068 8357A4FE 		lhu	a5,-22(s0)
 217 006c D98F     		or	a5,a4,a5
 218              	.L9:
  88:Drivers/src/ch32v20x_rtc.c ****     }
  89:Drivers/src/ch32v20x_rtc.c **** }
 219              		.loc 1 89 1
 220 006e 3E85     		mv	a0,a5
 221 0070 7244     		lw	s0,28(sp)
 222              		.cfi_restore 8
 223              		.cfi_def_cfa 2, 32
 224 0072 0561     		addi	sp,sp,32
 225              		.cfi_def_cfa_offset 0
 226 0074 8280     		jr	ra
 227              		.cfi_endproc
 228              	.LFE19:
 230              		.section	.text.RTC_SetCounter,"ax",@progbits
 231              		.align	1
 232              		.globl	RTC_SetCounter
 234              	RTC_SetCounter:
 235              	.LFB20:
  90:Drivers/src/ch32v20x_rtc.c **** 
  91:Drivers/src/ch32v20x_rtc.c **** /*********************************************************************
  92:Drivers/src/ch32v20x_rtc.c ****  * @fn      RTC_SetCounter
  93:Drivers/src/ch32v20x_rtc.c ****  *
  94:Drivers/src/ch32v20x_rtc.c ****  * @brief   Sets the RTC counter value.
  95:Drivers/src/ch32v20x_rtc.c ****  *
  96:Drivers/src/ch32v20x_rtc.c ****  * @param   CounterValue - RTC counter new value.
  97:Drivers/src/ch32v20x_rtc.c ****  *
  98:Drivers/src/ch32v20x_rtc.c ****  * @return  RTC counter value
  99:Drivers/src/ch32v20x_rtc.c ****  */
 100:Drivers/src/ch32v20x_rtc.c **** void RTC_SetCounter(uint32_t CounterValue)
 101:Drivers/src/ch32v20x_rtc.c **** {
 236              		.loc 1 101 1
 237              		.cfi_startproc
 238 0000 0111     		addi	sp,sp,-32
 239              		.cfi_def_cfa_offset 32
 240 0002 06CE     		sw	ra,28(sp)
 241 0004 22CC     		sw	s0,24(sp)
 242              		.cfi_offset 1, -4
 243              		.cfi_offset 8, -8
 244 0006 0010     		addi	s0,sp,32
 245              		.cfi_def_cfa 8, 0
 246 0008 2326A4FE 		sw	a0,-20(s0)
GAS LISTING C:\Users\SOLDER~1\AppData\Local\Temp\ccgE0nth.s 			page 7


 102:Drivers/src/ch32v20x_rtc.c ****     RTC_EnterConfigMode();
 247              		.loc 1 102 5
 248 000c 97000000 		call	RTC_EnterConfigMode
 248      E7800000 
 103:Drivers/src/ch32v20x_rtc.c ****     RTC->CNTH = CounterValue >> 16;
 249              		.loc 1 103 30
 250 0014 8327C4FE 		lw	a5,-20(s0)
 251 0018 13D70701 		srli	a4,a5,16
 252              		.loc 1 103 8
 253 001c B7370040 		li	a5,1073754112
 254 0020 93870780 		addi	a5,a5,-2048
 255              		.loc 1 103 15
 256 0024 4207     		slli	a4,a4,16
 257 0026 4183     		srli	a4,a4,16
 258 0028 9AAF     		sh	a4,24(a5)
 104:Drivers/src/ch32v20x_rtc.c ****     RTC->CNTL = (CounterValue & RTC_LSB_MASK);
 259              		.loc 1 104 8
 260 002a B7370040 		li	a5,1073754112
 261 002e 93870780 		addi	a5,a5,-2048
 262              		.loc 1 104 15
 263 0032 0327C4FE 		lw	a4,-20(s0)
 264 0036 4207     		slli	a4,a4,16
 265 0038 4183     		srli	a4,a4,16
 266 003a DAAF     		sh	a4,28(a5)
 105:Drivers/src/ch32v20x_rtc.c ****     RTC_ExitConfigMode();
 267              		.loc 1 105 5
 268 003c 97000000 		call	RTC_ExitConfigMode
 268      E7800000 
 106:Drivers/src/ch32v20x_rtc.c **** }
 269              		.loc 1 106 1
 270 0044 0100     		nop
 271 0046 F240     		lw	ra,28(sp)
 272              		.cfi_restore 1
 273 0048 6244     		lw	s0,24(sp)
 274              		.cfi_restore 8
 275              		.cfi_def_cfa 2, 32
 276 004a 0561     		addi	sp,sp,32
 277              		.cfi_def_cfa_offset 0
 278 004c 8280     		jr	ra
 279              		.cfi_endproc
 280              	.LFE20:
 282              		.section	.text.RTC_SetPrescaler,"ax",@progbits
 283              		.align	1
 284              		.globl	RTC_SetPrescaler
 286              	RTC_SetPrescaler:
 287              	.LFB21:
 107:Drivers/src/ch32v20x_rtc.c **** 
 108:Drivers/src/ch32v20x_rtc.c **** /*********************************************************************
 109:Drivers/src/ch32v20x_rtc.c ****  * @fn      RTC_SetPrescaler
 110:Drivers/src/ch32v20x_rtc.c ****  *
 111:Drivers/src/ch32v20x_rtc.c ****  * @brief   Sets the RTC prescaler value
 112:Drivers/src/ch32v20x_rtc.c ****  *
 113:Drivers/src/ch32v20x_rtc.c ****  * @param   PrescalerValue - RTC prescaler new value
 114:Drivers/src/ch32v20x_rtc.c ****  *
 115:Drivers/src/ch32v20x_rtc.c ****  * @return  none
 116:Drivers/src/ch32v20x_rtc.c ****  */
 117:Drivers/src/ch32v20x_rtc.c **** void RTC_SetPrescaler(uint32_t PrescalerValue)
GAS LISTING C:\Users\SOLDER~1\AppData\Local\Temp\ccgE0nth.s 			page 8


 118:Drivers/src/ch32v20x_rtc.c **** {
 288              		.loc 1 118 1
 289              		.cfi_startproc
 290 0000 0111     		addi	sp,sp,-32
 291              		.cfi_def_cfa_offset 32
 292 0002 06CE     		sw	ra,28(sp)
 293 0004 22CC     		sw	s0,24(sp)
 294              		.cfi_offset 1, -4
 295              		.cfi_offset 8, -8
 296 0006 0010     		addi	s0,sp,32
 297              		.cfi_def_cfa 8, 0
 298 0008 2326A4FE 		sw	a0,-20(s0)
 119:Drivers/src/ch32v20x_rtc.c ****     RTC_EnterConfigMode();
 299              		.loc 1 119 5
 300 000c 97000000 		call	RTC_EnterConfigMode
 300      E7800000 
 120:Drivers/src/ch32v20x_rtc.c ****     RTC->PSCRH = (PrescalerValue & PRLH_MSB_MASK) >> 16;
 301              		.loc 1 120 51
 302 0014 8327C4FE 		lw	a5,-20(s0)
 303 0018 C183     		srli	a5,a5,16
 304 001a 13970701 		slli	a4,a5,16
 305 001e 4183     		srli	a4,a4,16
 306              		.loc 1 120 8
 307 0020 B7370040 		li	a5,1073754112
 308 0024 93870780 		addi	a5,a5,-2048
 309              		.loc 1 120 51
 310 0028 3D8B     		andi	a4,a4,15
 311 002a 4207     		slli	a4,a4,16
 312 002c 4183     		srli	a4,a4,16
 313              		.loc 1 120 16
 314 002e 9AA7     		sh	a4,8(a5)
 121:Drivers/src/ch32v20x_rtc.c ****     RTC->PSCRL = (PrescalerValue & RTC_LSB_MASK);
 315              		.loc 1 121 8
 316 0030 B7370040 		li	a5,1073754112
 317 0034 93870780 		addi	a5,a5,-2048
 318              		.loc 1 121 16
 319 0038 0327C4FE 		lw	a4,-20(s0)
 320 003c 4207     		slli	a4,a4,16
 321 003e 4183     		srli	a4,a4,16
 322 0040 DAA7     		sh	a4,12(a5)
 122:Drivers/src/ch32v20x_rtc.c ****     RTC_ExitConfigMode();
 323              		.loc 1 122 5
 324 0042 97000000 		call	RTC_ExitConfigMode
 324      E7800000 
 123:Drivers/src/ch32v20x_rtc.c **** }
 325              		.loc 1 123 1
 326 004a 0100     		nop
 327 004c F240     		lw	ra,28(sp)
 328              		.cfi_restore 1
 329 004e 6244     		lw	s0,24(sp)
 330              		.cfi_restore 8
 331              		.cfi_def_cfa 2, 32
 332 0050 0561     		addi	sp,sp,32
 333              		.cfi_def_cfa_offset 0
 334 0052 8280     		jr	ra
 335              		.cfi_endproc
 336              	.LFE21:
GAS LISTING C:\Users\SOLDER~1\AppData\Local\Temp\ccgE0nth.s 			page 9


 338              		.section	.text.RTC_SetAlarm,"ax",@progbits
 339              		.align	1
 340              		.globl	RTC_SetAlarm
 342              	RTC_SetAlarm:
 343              	.LFB22:
 124:Drivers/src/ch32v20x_rtc.c **** 
 125:Drivers/src/ch32v20x_rtc.c **** /*********************************************************************
 126:Drivers/src/ch32v20x_rtc.c ****  * @fn      RTC_SetAlarm
 127:Drivers/src/ch32v20x_rtc.c ****  *
 128:Drivers/src/ch32v20x_rtc.c ****  * @brief   Sets the RTC alarm value
 129:Drivers/src/ch32v20x_rtc.c ****  *
 130:Drivers/src/ch32v20x_rtc.c ****  * @param   AlarmValue - RTC alarm new value
 131:Drivers/src/ch32v20x_rtc.c ****  *
 132:Drivers/src/ch32v20x_rtc.c ****  * @return  none
 133:Drivers/src/ch32v20x_rtc.c ****  */
 134:Drivers/src/ch32v20x_rtc.c **** void RTC_SetAlarm(uint32_t AlarmValue)
 135:Drivers/src/ch32v20x_rtc.c **** {
 344              		.loc 1 135 1
 345              		.cfi_startproc
 346 0000 0111     		addi	sp,sp,-32
 347              		.cfi_def_cfa_offset 32
 348 0002 06CE     		sw	ra,28(sp)
 349 0004 22CC     		sw	s0,24(sp)
 350              		.cfi_offset 1, -4
 351              		.cfi_offset 8, -8
 352 0006 0010     		addi	s0,sp,32
 353              		.cfi_def_cfa 8, 0
 354 0008 2326A4FE 		sw	a0,-20(s0)
 136:Drivers/src/ch32v20x_rtc.c ****     RTC_EnterConfigMode();
 355              		.loc 1 136 5
 356 000c 97000000 		call	RTC_EnterConfigMode
 356      E7800000 
 137:Drivers/src/ch32v20x_rtc.c ****     RTC->ALRMH = AlarmValue >> 16;
 357              		.loc 1 137 29
 358 0014 8327C4FE 		lw	a5,-20(s0)
 359 0018 13D70701 		srli	a4,a5,16
 360              		.loc 1 137 8
 361 001c B7370040 		li	a5,1073754112
 362 0020 93870780 		addi	a5,a5,-2048
 363              		.loc 1 137 16
 364 0024 4207     		slli	a4,a4,16
 365 0026 4183     		srli	a4,a4,16
 366 0028 9AB3     		sh	a4,32(a5)
 138:Drivers/src/ch32v20x_rtc.c ****     RTC->ALRML = (AlarmValue & RTC_LSB_MASK);
 367              		.loc 1 138 8
 368 002a B7370040 		li	a5,1073754112
 369 002e 93870780 		addi	a5,a5,-2048
 370              		.loc 1 138 16
 371 0032 0327C4FE 		lw	a4,-20(s0)
 372 0036 4207     		slli	a4,a4,16
 373 0038 4183     		srli	a4,a4,16
 374 003a DAB3     		sh	a4,36(a5)
 139:Drivers/src/ch32v20x_rtc.c ****     RTC_ExitConfigMode();
 375              		.loc 1 139 5
 376 003c 97000000 		call	RTC_ExitConfigMode
 376      E7800000 
 140:Drivers/src/ch32v20x_rtc.c **** }
GAS LISTING C:\Users\SOLDER~1\AppData\Local\Temp\ccgE0nth.s 			page 10


 377              		.loc 1 140 1
 378 0044 0100     		nop
 379 0046 F240     		lw	ra,28(sp)
 380              		.cfi_restore 1
 381 0048 6244     		lw	s0,24(sp)
 382              		.cfi_restore 8
 383              		.cfi_def_cfa 2, 32
 384 004a 0561     		addi	sp,sp,32
 385              		.cfi_def_cfa_offset 0
 386 004c 8280     		jr	ra
 387              		.cfi_endproc
 388              	.LFE22:
 390              		.section	.text.RTC_GetDivider,"ax",@progbits
 391              		.align	1
 392              		.globl	RTC_GetDivider
 394              	RTC_GetDivider:
 395              	.LFB23:
 141:Drivers/src/ch32v20x_rtc.c **** 
 142:Drivers/src/ch32v20x_rtc.c **** /*********************************************************************
 143:Drivers/src/ch32v20x_rtc.c ****  * @fn      RTC_GetDivider
 144:Drivers/src/ch32v20x_rtc.c ****  *
 145:Drivers/src/ch32v20x_rtc.c ****  * @brief   Gets the RTC divider value
 146:Drivers/src/ch32v20x_rtc.c ****  *
 147:Drivers/src/ch32v20x_rtc.c ****  * @return  RTC Divider value
 148:Drivers/src/ch32v20x_rtc.c ****  */
 149:Drivers/src/ch32v20x_rtc.c **** uint32_t RTC_GetDivider(void)
 150:Drivers/src/ch32v20x_rtc.c **** {
 396              		.loc 1 150 1
 397              		.cfi_startproc
 398 0000 0111     		addi	sp,sp,-32
 399              		.cfi_def_cfa_offset 32
 400 0002 22CE     		sw	s0,28(sp)
 401              		.cfi_offset 8, -4
 402 0004 0010     		addi	s0,sp,32
 403              		.cfi_def_cfa 8, 0
 151:Drivers/src/ch32v20x_rtc.c ****     uint32_t tmp = 0x00;
 404              		.loc 1 151 14
 405 0006 232604FE 		sw	zero,-20(s0)
 152:Drivers/src/ch32v20x_rtc.c ****     tmp = ((uint32_t)RTC->DIVH & (uint32_t)0x000F) << 16;
 406              		.loc 1 152 25
 407 000a B7370040 		li	a5,1073754112
 408 000e 93870780 		addi	a5,a5,-2048
 409 0012 9E2B     		lhu	a5,16(a5)
 410 0014 C207     		slli	a5,a5,16
 411 0016 C183     		srli	a5,a5,16
 412              		.loc 1 152 52
 413 0018 13970701 		slli	a4,a5,16
 414              		.loc 1 152 9
 415 001c B7070F00 		li	a5,983040
 416 0020 F98F     		and	a5,a4,a5
 417 0022 2326F4FE 		sw	a5,-20(s0)
 153:Drivers/src/ch32v20x_rtc.c ****     tmp |= RTC->DIVL;
 418              		.loc 1 153 15
 419 0026 B7370040 		li	a5,1073754112
 420 002a 93870780 		addi	a5,a5,-2048
 421 002e DE2B     		lhu	a5,20(a5)
 422 0030 C207     		slli	a5,a5,16
GAS LISTING C:\Users\SOLDER~1\AppData\Local\Temp\ccgE0nth.s 			page 11


 423 0032 C183     		srli	a5,a5,16
 424 0034 3E87     		mv	a4,a5
 425              		.loc 1 153 9
 426 0036 8327C4FE 		lw	a5,-20(s0)
 427 003a D98F     		or	a5,a5,a4
 428 003c 2326F4FE 		sw	a5,-20(s0)
 154:Drivers/src/ch32v20x_rtc.c ****     return tmp;
 429              		.loc 1 154 12
 430 0040 8327C4FE 		lw	a5,-20(s0)
 155:Drivers/src/ch32v20x_rtc.c **** }
 431              		.loc 1 155 1
 432 0044 3E85     		mv	a0,a5
 433 0046 7244     		lw	s0,28(sp)
 434              		.cfi_restore 8
 435              		.cfi_def_cfa 2, 32
 436 0048 0561     		addi	sp,sp,32
 437              		.cfi_def_cfa_offset 0
 438 004a 8280     		jr	ra
 439              		.cfi_endproc
 440              	.LFE23:
 442              		.section	.text.RTC_WaitForLastTask,"ax",@progbits
 443              		.align	1
 444              		.globl	RTC_WaitForLastTask
 446              	RTC_WaitForLastTask:
 447              	.LFB24:
 156:Drivers/src/ch32v20x_rtc.c **** 
 157:Drivers/src/ch32v20x_rtc.c **** /*********************************************************************
 158:Drivers/src/ch32v20x_rtc.c ****  * @fn      RTC_WaitForLastTask
 159:Drivers/src/ch32v20x_rtc.c ****  *
 160:Drivers/src/ch32v20x_rtc.c ****  * @brief   Waits until last write operation on RTC registers has finished
 161:Drivers/src/ch32v20x_rtc.c ****  *          Note-
 162:Drivers/src/ch32v20x_rtc.c ****  *          This function must be called before any write to RTC registers.
 163:Drivers/src/ch32v20x_rtc.c ****  * @return  none
 164:Drivers/src/ch32v20x_rtc.c ****  */
 165:Drivers/src/ch32v20x_rtc.c **** void RTC_WaitForLastTask(void)
 166:Drivers/src/ch32v20x_rtc.c **** {
 448              		.loc 1 166 1
 449              		.cfi_startproc
 450 0000 4111     		addi	sp,sp,-16
 451              		.cfi_def_cfa_offset 16
 452 0002 22C6     		sw	s0,12(sp)
 453              		.cfi_offset 8, -4
 454 0004 0008     		addi	s0,sp,16
 455              		.cfi_def_cfa 8, 0
 167:Drivers/src/ch32v20x_rtc.c ****     while((RTC->CTLRL & RTC_FLAG_RTOFF) == (uint16_t)RESET)
 456              		.loc 1 167 10
 457 0006 0100     		nop
 458              	.L16:
 459              		.loc 1 167 15 discriminator 1
 460 0008 B7370040 		li	a5,1073754112
 461 000c 93870780 		addi	a5,a5,-2048
 462 0010 DE23     		lhu	a5,4(a5)
 463 0012 C207     		slli	a5,a5,16
 464 0014 C183     		srli	a5,a5,16
 465              		.loc 1 167 23 discriminator 1
 466 0016 93F70702 		andi	a5,a5,32
 467              		.loc 1 167 41 discriminator 1
GAS LISTING C:\Users\SOLDER~1\AppData\Local\Temp\ccgE0nth.s 			page 12


 468 001a FDD7     		beq	a5,zero,.L16
 168:Drivers/src/ch32v20x_rtc.c ****     {
 169:Drivers/src/ch32v20x_rtc.c ****     }
 170:Drivers/src/ch32v20x_rtc.c **** }
 469              		.loc 1 170 1
 470 001c 0100     		nop
 471 001e 0100     		nop
 472 0020 3244     		lw	s0,12(sp)
 473              		.cfi_restore 8
 474              		.cfi_def_cfa 2, 16
 475 0022 4101     		addi	sp,sp,16
 476              		.cfi_def_cfa_offset 0
 477 0024 8280     		jr	ra
 478              		.cfi_endproc
 479              	.LFE24:
 481              		.section	.text.RTC_WaitForSynchro,"ax",@progbits
 482              		.align	1
 483              		.globl	RTC_WaitForSynchro
 485              	RTC_WaitForSynchro:
 486              	.LFB25:
 171:Drivers/src/ch32v20x_rtc.c **** 
 172:Drivers/src/ch32v20x_rtc.c **** /*********************************************************************
 173:Drivers/src/ch32v20x_rtc.c ****  * @fn      RTC_WaitForSynchro
 174:Drivers/src/ch32v20x_rtc.c ****  *
 175:Drivers/src/ch32v20x_rtc.c ****  * @brief   Waits until the RTC registers are synchronized with RTC APB clock
 176:Drivers/src/ch32v20x_rtc.c ****  *          Note-
 177:Drivers/src/ch32v20x_rtc.c ****  *          This function must be called before any read operation after an APB reset
 178:Drivers/src/ch32v20x_rtc.c ****  *          or an APB clock stop.
 179:Drivers/src/ch32v20x_rtc.c ****  *          
 180:Drivers/src/ch32v20x_rtc.c ****  * @return  none
 181:Drivers/src/ch32v20x_rtc.c ****  */
 182:Drivers/src/ch32v20x_rtc.c **** void RTC_WaitForSynchro(void)
 183:Drivers/src/ch32v20x_rtc.c **** {
 487              		.loc 1 183 1
 488              		.cfi_startproc
 489 0000 4111     		addi	sp,sp,-16
 490              		.cfi_def_cfa_offset 16
 491 0002 22C6     		sw	s0,12(sp)
 492              		.cfi_offset 8, -4
 493 0004 0008     		addi	s0,sp,16
 494              		.cfi_def_cfa 8, 0
 184:Drivers/src/ch32v20x_rtc.c ****     RTC->CTLRL &= (uint16_t)~RTC_FLAG_RSF;
 495              		.loc 1 184 8
 496 0006 B7370040 		li	a5,1073754112
 497 000a 93870780 		addi	a5,a5,-2048
 498 000e DE23     		lhu	a5,4(a5)
 499 0010 13970701 		slli	a4,a5,16
 500 0014 4183     		srli	a4,a4,16
 501 0016 B7370040 		li	a5,1073754112
 502 001a 93870780 		addi	a5,a5,-2048
 503              		.loc 1 184 16
 504 001e 5D9B     		andi	a4,a4,-9
 505 0020 4207     		slli	a4,a4,16
 506 0022 4183     		srli	a4,a4,16
 507 0024 DAA3     		sh	a4,4(a5)
 185:Drivers/src/ch32v20x_rtc.c ****     while((RTC->CTLRL & RTC_FLAG_RSF) == (uint16_t)RESET)
 508              		.loc 1 185 10
GAS LISTING C:\Users\SOLDER~1\AppData\Local\Temp\ccgE0nth.s 			page 13


 509 0026 0100     		nop
 510              	.L18:
 511              		.loc 1 185 15 discriminator 1
 512 0028 B7370040 		li	a5,1073754112
 513 002c 93870780 		addi	a5,a5,-2048
 514 0030 DE23     		lhu	a5,4(a5)
 515 0032 C207     		slli	a5,a5,16
 516 0034 C183     		srli	a5,a5,16
 517              		.loc 1 185 23 discriminator 1
 518 0036 A18B     		andi	a5,a5,8
 519              		.loc 1 185 39 discriminator 1
 520 0038 E5DB     		beq	a5,zero,.L18
 186:Drivers/src/ch32v20x_rtc.c ****     {
 187:Drivers/src/ch32v20x_rtc.c ****     }
 188:Drivers/src/ch32v20x_rtc.c **** }
 521              		.loc 1 188 1
 522 003a 0100     		nop
 523 003c 0100     		nop
 524 003e 3244     		lw	s0,12(sp)
 525              		.cfi_restore 8
 526              		.cfi_def_cfa 2, 16
 527 0040 4101     		addi	sp,sp,16
 528              		.cfi_def_cfa_offset 0
 529 0042 8280     		jr	ra
 530              		.cfi_endproc
 531              	.LFE25:
 533              		.section	.text.RTC_GetFlagStatus,"ax",@progbits
 534              		.align	1
 535              		.globl	RTC_GetFlagStatus
 537              	RTC_GetFlagStatus:
 538              	.LFB26:
 189:Drivers/src/ch32v20x_rtc.c **** 
 190:Drivers/src/ch32v20x_rtc.c **** /*********************************************************************
 191:Drivers/src/ch32v20x_rtc.c ****  * @fn      RTC_GetFlagStatus
 192:Drivers/src/ch32v20x_rtc.c ****  *
 193:Drivers/src/ch32v20x_rtc.c ****  * @brief   Checks whether the specified RTC flag is set or not
 194:Drivers/src/ch32v20x_rtc.c ****  *
 195:Drivers/src/ch32v20x_rtc.c ****  * @param   RTC_FLAG- specifies the flag to check
 196:Drivers/src/ch32v20x_rtc.c ****  *            RTC_FLAG_RTOFF - RTC Operation OFF flag
 197:Drivers/src/ch32v20x_rtc.c ****  *            RTC_FLAG_RSF - Registers Synchronized flag
 198:Drivers/src/ch32v20x_rtc.c ****  *            RTC_FLAG_OW - Overflow flag
 199:Drivers/src/ch32v20x_rtc.c ****  *            RTC_FLAG_ALR - Alarm flag
 200:Drivers/src/ch32v20x_rtc.c ****  *            RTC_FLAG_SEC - Second flag
 201:Drivers/src/ch32v20x_rtc.c ****  *
 202:Drivers/src/ch32v20x_rtc.c ****  * @return  The new state of RTC_FLAG (SET or RESET)
 203:Drivers/src/ch32v20x_rtc.c ****  */
 204:Drivers/src/ch32v20x_rtc.c **** FlagStatus RTC_GetFlagStatus(uint16_t RTC_FLAG)
 205:Drivers/src/ch32v20x_rtc.c **** {
 539              		.loc 1 205 1
 540              		.cfi_startproc
 541 0000 7971     		addi	sp,sp,-48
 542              		.cfi_def_cfa_offset 48
 543 0002 22D6     		sw	s0,44(sp)
 544              		.cfi_offset 8, -4
 545 0004 0018     		addi	s0,sp,48
 546              		.cfi_def_cfa 8, 0
 547 0006 AA87     		mv	a5,a0
GAS LISTING C:\Users\SOLDER~1\AppData\Local\Temp\ccgE0nth.s 			page 14


 548 0008 231FF4FC 		sh	a5,-34(s0)
 206:Drivers/src/ch32v20x_rtc.c ****     FlagStatus bitstatus = RESET;
 549              		.loc 1 206 16
 550 000c 232604FE 		sw	zero,-20(s0)
 207:Drivers/src/ch32v20x_rtc.c ****     if((RTC->CTLRL & RTC_FLAG) != (uint16_t)RESET)
 551              		.loc 1 207 12
 552 0010 B7370040 		li	a5,1073754112
 553 0014 93870780 		addi	a5,a5,-2048
 554 0018 DE23     		lhu	a5,4(a5)
 555 001a C207     		slli	a5,a5,16
 556 001c C183     		srli	a5,a5,16
 557              		.loc 1 207 32
 558 001e 0357E4FD 		lhu	a4,-34(s0)
 559 0022 F98F     		and	a5,a5,a4
 560 0024 C207     		slli	a5,a5,16
 561 0026 C183     		srli	a5,a5,16
 562              		.loc 1 207 7
 563 0028 89C7     		beq	a5,zero,.L20
 208:Drivers/src/ch32v20x_rtc.c ****     {
 209:Drivers/src/ch32v20x_rtc.c ****         bitstatus = SET;
 564              		.loc 1 209 19
 565 002a 8547     		li	a5,1
 566 002c 2326F4FE 		sw	a5,-20(s0)
 567 0030 19A0     		j	.L21
 568              	.L20:
 210:Drivers/src/ch32v20x_rtc.c ****     }
 211:Drivers/src/ch32v20x_rtc.c ****     else
 212:Drivers/src/ch32v20x_rtc.c ****     {
 213:Drivers/src/ch32v20x_rtc.c ****         bitstatus = RESET;
 569              		.loc 1 213 19
 570 0032 232604FE 		sw	zero,-20(s0)
 571              	.L21:
 214:Drivers/src/ch32v20x_rtc.c ****     }
 215:Drivers/src/ch32v20x_rtc.c ****     return bitstatus;
 572              		.loc 1 215 12
 573 0036 8327C4FE 		lw	a5,-20(s0)
 216:Drivers/src/ch32v20x_rtc.c **** }
 574              		.loc 1 216 1
 575 003a 3E85     		mv	a0,a5
 576 003c 3254     		lw	s0,44(sp)
 577              		.cfi_restore 8
 578              		.cfi_def_cfa 2, 48
 579 003e 4561     		addi	sp,sp,48
 580              		.cfi_def_cfa_offset 0
 581 0040 8280     		jr	ra
 582              		.cfi_endproc
 583              	.LFE26:
 585              		.section	.text.RTC_ClearFlag,"ax",@progbits
 586              		.align	1
 587              		.globl	RTC_ClearFlag
 589              	RTC_ClearFlag:
 590              	.LFB27:
 217:Drivers/src/ch32v20x_rtc.c **** 
 218:Drivers/src/ch32v20x_rtc.c **** /*********************************************************************
 219:Drivers/src/ch32v20x_rtc.c ****  * @fn      RTC_ClearFlag
 220:Drivers/src/ch32v20x_rtc.c ****  *
 221:Drivers/src/ch32v20x_rtc.c ****  * @brief   Clears the RTC's pending flags
GAS LISTING C:\Users\SOLDER~1\AppData\Local\Temp\ccgE0nth.s 			page 15


 222:Drivers/src/ch32v20x_rtc.c ****  *
 223:Drivers/src/ch32v20x_rtc.c ****  * @param   RTC_FLAG - specifies the flag to clear
 224:Drivers/src/ch32v20x_rtc.c ****  *            RTC_FLAG_RSF - Registers Synchronized flag
 225:Drivers/src/ch32v20x_rtc.c ****  *            RTC_FLAG_OW - Overflow flag
 226:Drivers/src/ch32v20x_rtc.c ****  *            RTC_FLAG_ALR - Alarm flag
 227:Drivers/src/ch32v20x_rtc.c ****  *            RTC_FLAG_SEC - Second flag
 228:Drivers/src/ch32v20x_rtc.c ****  *
 229:Drivers/src/ch32v20x_rtc.c ****  * @return  none
 230:Drivers/src/ch32v20x_rtc.c ****  */
 231:Drivers/src/ch32v20x_rtc.c **** void RTC_ClearFlag(uint16_t RTC_FLAG)
 232:Drivers/src/ch32v20x_rtc.c **** {
 591              		.loc 1 232 1
 592              		.cfi_startproc
 593 0000 0111     		addi	sp,sp,-32
 594              		.cfi_def_cfa_offset 32
 595 0002 22CE     		sw	s0,28(sp)
 596              		.cfi_offset 8, -4
 597 0004 0010     		addi	s0,sp,32
 598              		.cfi_def_cfa 8, 0
 599 0006 AA87     		mv	a5,a0
 600 0008 2317F4FE 		sh	a5,-18(s0)
 233:Drivers/src/ch32v20x_rtc.c ****     RTC->CTLRL &= (uint16_t)~RTC_FLAG;
 601              		.loc 1 233 8
 602 000c B7370040 		li	a5,1073754112
 603 0010 93870780 		addi	a5,a5,-2048
 604 0014 DE23     		lhu	a5,4(a5)
 605 0016 93960701 		slli	a3,a5,16
 606 001a C182     		srli	a3,a3,16
 607              		.loc 1 233 19
 608 001c 8357E4FE 		lhu	a5,-18(s0)
 609 0020 93C7F7FF 		not	a5,a5
 610 0024 13970701 		slli	a4,a5,16
 611 0028 4183     		srli	a4,a4,16
 612              		.loc 1 233 8
 613 002a B7370040 		li	a5,1073754112
 614 002e 93870780 		addi	a5,a5,-2048
 615              		.loc 1 233 16
 616 0032 758F     		and	a4,a3,a4
 617 0034 4207     		slli	a4,a4,16
 618 0036 4183     		srli	a4,a4,16
 619 0038 DAA3     		sh	a4,4(a5)
 234:Drivers/src/ch32v20x_rtc.c **** }
 620              		.loc 1 234 1
 621 003a 0100     		nop
 622 003c 7244     		lw	s0,28(sp)
 623              		.cfi_restore 8
 624              		.cfi_def_cfa 2, 32
 625 003e 0561     		addi	sp,sp,32
 626              		.cfi_def_cfa_offset 0
 627 0040 8280     		jr	ra
 628              		.cfi_endproc
 629              	.LFE27:
 631              		.section	.text.RTC_GetITStatus,"ax",@progbits
 632              		.align	1
 633              		.globl	RTC_GetITStatus
 635              	RTC_GetITStatus:
 636              	.LFB28:
GAS LISTING C:\Users\SOLDER~1\AppData\Local\Temp\ccgE0nth.s 			page 16


 235:Drivers/src/ch32v20x_rtc.c **** 
 236:Drivers/src/ch32v20x_rtc.c **** /*********************************************************************
 237:Drivers/src/ch32v20x_rtc.c ****  * @fn      RTC_GetITStatus
 238:Drivers/src/ch32v20x_rtc.c ****  *
 239:Drivers/src/ch32v20x_rtc.c ****  * @brief   Checks whether the specified RTC interrupt has occurred or not
 240:Drivers/src/ch32v20x_rtc.c ****  *
 241:Drivers/src/ch32v20x_rtc.c ****  * @param   RTC_IT - specifies the RTC interrupts sources to check
 242:Drivers/src/ch32v20x_rtc.c ****  *            RTC_FLAG_OW - Overflow interrupt
 243:Drivers/src/ch32v20x_rtc.c ****  *            RTC_FLAG_ALR - Alarm interrupt
 244:Drivers/src/ch32v20x_rtc.c ****  *            RTC_FLAG_SEC - Second interrupt
 245:Drivers/src/ch32v20x_rtc.c ****  *
 246:Drivers/src/ch32v20x_rtc.c ****  * @return  The new state of the RTC_IT (SET or RESET)
 247:Drivers/src/ch32v20x_rtc.c ****  */
 248:Drivers/src/ch32v20x_rtc.c **** ITStatus RTC_GetITStatus(uint16_t RTC_IT)
 249:Drivers/src/ch32v20x_rtc.c **** {
 637              		.loc 1 249 1
 638              		.cfi_startproc
 639 0000 7971     		addi	sp,sp,-48
 640              		.cfi_def_cfa_offset 48
 641 0002 22D6     		sw	s0,44(sp)
 642              		.cfi_offset 8, -4
 643 0004 0018     		addi	s0,sp,48
 644              		.cfi_def_cfa 8, 0
 645 0006 AA87     		mv	a5,a0
 646 0008 231FF4FC 		sh	a5,-34(s0)
 250:Drivers/src/ch32v20x_rtc.c ****     ITStatus bitstatus = RESET;
 647              		.loc 1 250 14
 648 000c 232604FE 		sw	zero,-20(s0)
 251:Drivers/src/ch32v20x_rtc.c **** 
 252:Drivers/src/ch32v20x_rtc.c ****     bitstatus = (ITStatus)(RTC->CTLRL & RTC_IT);
 649              		.loc 1 252 31
 650 0010 B7370040 		li	a5,1073754112
 651 0014 93870780 		addi	a5,a5,-2048
 652 0018 DE23     		lhu	a5,4(a5)
 653 001a C207     		slli	a5,a5,16
 654 001c C183     		srli	a5,a5,16
 655              		.loc 1 252 17
 656 001e 0357E4FD 		lhu	a4,-34(s0)
 657 0022 F98F     		and	a5,a5,a4
 658 0024 C207     		slli	a5,a5,16
 659 0026 C183     		srli	a5,a5,16
 660              		.loc 1 252 15
 661 0028 2326F4FE 		sw	a5,-20(s0)
 253:Drivers/src/ch32v20x_rtc.c ****     if(((RTC->CTLRH & RTC_IT) != (uint16_t)RESET) && (bitstatus != (uint16_t)RESET))
 662              		.loc 1 253 13
 663 002c B7370040 		li	a5,1073754112
 664 0030 93870780 		addi	a5,a5,-2048
 665 0034 9E23     		lhu	a5,0(a5)
 666 0036 C207     		slli	a5,a5,16
 667 0038 C183     		srli	a5,a5,16
 668              		.loc 1 253 31
 669 003a 0357E4FD 		lhu	a4,-34(s0)
 670 003e F98F     		and	a5,a5,a4
 671 0040 C207     		slli	a5,a5,16
 672 0042 C183     		srli	a5,a5,16
 673              		.loc 1 253 7
 674 0044 81CB     		beq	a5,zero,.L25
GAS LISTING C:\Users\SOLDER~1\AppData\Local\Temp\ccgE0nth.s 			page 17


 675              		.loc 1 253 51 discriminator 1
 676 0046 8327C4FE 		lw	a5,-20(s0)
 677 004a 89C7     		beq	a5,zero,.L25
 254:Drivers/src/ch32v20x_rtc.c ****     {
 255:Drivers/src/ch32v20x_rtc.c ****         bitstatus = SET;
 678              		.loc 1 255 19
 679 004c 8547     		li	a5,1
 680 004e 2326F4FE 		sw	a5,-20(s0)
 681 0052 19A0     		j	.L26
 682              	.L25:
 256:Drivers/src/ch32v20x_rtc.c ****     }
 257:Drivers/src/ch32v20x_rtc.c ****     else
 258:Drivers/src/ch32v20x_rtc.c ****     {
 259:Drivers/src/ch32v20x_rtc.c ****         bitstatus = RESET;
 683              		.loc 1 259 19
 684 0054 232604FE 		sw	zero,-20(s0)
 685              	.L26:
 260:Drivers/src/ch32v20x_rtc.c ****     }
 261:Drivers/src/ch32v20x_rtc.c ****     return bitstatus;
 686              		.loc 1 261 12
 687 0058 8327C4FE 		lw	a5,-20(s0)
 262:Drivers/src/ch32v20x_rtc.c **** }
 688              		.loc 1 262 1
 689 005c 3E85     		mv	a0,a5
 690 005e 3254     		lw	s0,44(sp)
 691              		.cfi_restore 8
 692              		.cfi_def_cfa 2, 48
 693 0060 4561     		addi	sp,sp,48
 694              		.cfi_def_cfa_offset 0
 695 0062 8280     		jr	ra
 696              		.cfi_endproc
 697              	.LFE28:
 699              		.section	.text.RTC_ClearITPendingBit,"ax",@progbits
 700              		.align	1
 701              		.globl	RTC_ClearITPendingBit
 703              	RTC_ClearITPendingBit:
 704              	.LFB29:
 263:Drivers/src/ch32v20x_rtc.c **** 
 264:Drivers/src/ch32v20x_rtc.c **** /*********************************************************************
 265:Drivers/src/ch32v20x_rtc.c ****  * @fn      RTC_ClearITPendingBit
 266:Drivers/src/ch32v20x_rtc.c ****  *
 267:Drivers/src/ch32v20x_rtc.c ****  * @brief   Clears the RTC's interrupt pending bits
 268:Drivers/src/ch32v20x_rtc.c ****  *
 269:Drivers/src/ch32v20x_rtc.c ****  * @param   RTC_IT - specifies the interrupt pending bit to clear
 270:Drivers/src/ch32v20x_rtc.c ****  *            RTC_FLAG_OW - Overflow interrupt
 271:Drivers/src/ch32v20x_rtc.c ****  *            RTC_FLAG_ALR - Alarm interrupt
 272:Drivers/src/ch32v20x_rtc.c ****  *            RTC_FLAG_SEC - Second interrupt
 273:Drivers/src/ch32v20x_rtc.c ****  *
 274:Drivers/src/ch32v20x_rtc.c ****  * @return  none
 275:Drivers/src/ch32v20x_rtc.c ****  */
 276:Drivers/src/ch32v20x_rtc.c **** void RTC_ClearITPendingBit(uint16_t RTC_IT)
 277:Drivers/src/ch32v20x_rtc.c **** {
 705              		.loc 1 277 1
 706              		.cfi_startproc
 707 0000 0111     		addi	sp,sp,-32
 708              		.cfi_def_cfa_offset 32
 709 0002 22CE     		sw	s0,28(sp)
GAS LISTING C:\Users\SOLDER~1\AppData\Local\Temp\ccgE0nth.s 			page 18


 710              		.cfi_offset 8, -4
 711 0004 0010     		addi	s0,sp,32
 712              		.cfi_def_cfa 8, 0
 713 0006 AA87     		mv	a5,a0
 714 0008 2317F4FE 		sh	a5,-18(s0)
 278:Drivers/src/ch32v20x_rtc.c ****     RTC->CTLRL &= (uint16_t)~RTC_IT;
 715              		.loc 1 278 8
 716 000c B7370040 		li	a5,1073754112
 717 0010 93870780 		addi	a5,a5,-2048
 718 0014 DE23     		lhu	a5,4(a5)
 719 0016 93960701 		slli	a3,a5,16
 720 001a C182     		srli	a3,a3,16
 721              		.loc 1 278 19
 722 001c 8357E4FE 		lhu	a5,-18(s0)
 723 0020 93C7F7FF 		not	a5,a5
 724 0024 13970701 		slli	a4,a5,16
 725 0028 4183     		srli	a4,a4,16
 726              		.loc 1 278 8
 727 002a B7370040 		li	a5,1073754112
 728 002e 93870780 		addi	a5,a5,-2048
 729              		.loc 1 278 16
 730 0032 758F     		and	a4,a3,a4
 731 0034 4207     		slli	a4,a4,16
 732 0036 4183     		srli	a4,a4,16
 733 0038 DAA3     		sh	a4,4(a5)
 279:Drivers/src/ch32v20x_rtc.c **** }
 734              		.loc 1 279 1
 735 003a 0100     		nop
 736 003c 7244     		lw	s0,28(sp)
 737              		.cfi_restore 8
 738              		.cfi_def_cfa 2, 32
 739 003e 0561     		addi	sp,sp,32
 740              		.cfi_def_cfa_offset 0
 741 0040 8280     		jr	ra
 742              		.cfi_endproc
 743              	.LFE29:
 745              		.text
 746              	.Letext0:
 747              		.file 2 "c:\\dev_tools\\ch32_tools\\risc-v_embedded_gcc12\\riscv-none-elf\\include\\machine\\_defa
 748              		.file 3 "c:\\dev_tools\\ch32_tools\\risc-v_embedded_gcc12\\riscv-none-elf\\include\\sys\\_stdint.h
 749              		.file 4 "Drivers/inc/core_riscv.h"
 750              		.file 5 "Drivers/inc/ch32v20x.h"
GAS LISTING C:\Users\SOLDER~1\AppData\Local\Temp\ccgE0nth.s 			page 19

