GAS LISTING C:\Users\SOLDER~1\AppData\Local\Temp\cc2EfhU3.s 			page 1


   1              		.file	"ch32v20x_crc.c"
   2              		.option nopic
   3              		.attribute arch, "rv32i2p0_m2p0_a2p0_c2p0_xw"
   4              		.attribute unaligned_access, 0
   5              		.attribute stack_align, 16
   6              		.text
   7              	.Ltext0:
   8              		.cfi_sections	.debug_frame
   9              		.file 0 "C:\\Users\\Solderingiron\\Documents\\GitHub\\VSC-make-example\\VSC_CH32V203C8T6" "Drivers
  10              		.section	.text.CRC_ResetDR,"ax",@progbits
  11              		.align	1
  12              		.globl	CRC_ResetDR
  14              	CRC_ResetDR:
  15              	.LFB16:
  16              		.file 1 "Drivers/src/ch32v20x_crc.c"
   1:Drivers/src/ch32v20x_crc.c **** /********************************** (C) COPYRIGHT  *******************************
   2:Drivers/src/ch32v20x_crc.c ****  * File Name          : ch32v20x_crc.c
   3:Drivers/src/ch32v20x_crc.c ****  * Author             : WCH
   4:Drivers/src/ch32v20x_crc.c ****  * Version            : V1.0.0
   5:Drivers/src/ch32v20x_crc.c ****  * Date               : 2021/06/06
   6:Drivers/src/ch32v20x_crc.c ****  * Description        : This file provides all the CRC firmware functions.
   7:Drivers/src/ch32v20x_crc.c **** *********************************************************************************
   8:Drivers/src/ch32v20x_crc.c **** * Copyright (c) 2021 Nanjing Qinheng Microelectronics Co., Ltd.
   9:Drivers/src/ch32v20x_crc.c **** * Attention: This software (modified or not) and binary are used for 
  10:Drivers/src/ch32v20x_crc.c **** * microcontroller manufactured by Nanjing Qinheng Microelectronics.
  11:Drivers/src/ch32v20x_crc.c **** *******************************************************************************/
  12:Drivers/src/ch32v20x_crc.c **** #include "ch32v20x_crc.h"
  13:Drivers/src/ch32v20x_crc.c **** 
  14:Drivers/src/ch32v20x_crc.c **** /*********************************************************************
  15:Drivers/src/ch32v20x_crc.c ****  * @fn      CRC_ResetDR
  16:Drivers/src/ch32v20x_crc.c ****  *
  17:Drivers/src/ch32v20x_crc.c ****  * @brief   Resets the CRC Data register (DR).
  18:Drivers/src/ch32v20x_crc.c ****  *
  19:Drivers/src/ch32v20x_crc.c ****  * @return  none
  20:Drivers/src/ch32v20x_crc.c ****  */
  21:Drivers/src/ch32v20x_crc.c **** void CRC_ResetDR(void)
  22:Drivers/src/ch32v20x_crc.c **** {
  17              		.loc 1 22 1
  18              		.cfi_startproc
  19 0000 4111     		addi	sp,sp,-16
  20              		.cfi_def_cfa_offset 16
  21 0002 22C6     		sw	s0,12(sp)
  22              		.cfi_offset 8, -4
  23 0004 0008     		addi	s0,sp,16
  24              		.cfi_def_cfa 8, 0
  23:Drivers/src/ch32v20x_crc.c ****     CRC->CTLR = CRC_CTLR_RESET;
  25              		.loc 1 23 8
  26 0006 B7370240 		li	a5,1073885184
  27              		.loc 1 23 15
  28 000a 0547     		li	a4,1
  29 000c 98C7     		sw	a4,8(a5)
  24:Drivers/src/ch32v20x_crc.c **** }
  30              		.loc 1 24 1
  31 000e 0100     		nop
  32 0010 3244     		lw	s0,12(sp)
  33              		.cfi_restore 8
  34              		.cfi_def_cfa 2, 16
GAS LISTING C:\Users\SOLDER~1\AppData\Local\Temp\cc2EfhU3.s 			page 2


  35 0012 4101     		addi	sp,sp,16
  36              		.cfi_def_cfa_offset 0
  37 0014 8280     		jr	ra
  38              		.cfi_endproc
  39              	.LFE16:
  41              		.section	.text.CRC_CalcCRC,"ax",@progbits
  42              		.align	1
  43              		.globl	CRC_CalcCRC
  45              	CRC_CalcCRC:
  46              	.LFB17:
  25:Drivers/src/ch32v20x_crc.c **** 
  26:Drivers/src/ch32v20x_crc.c **** /*********************************************************************
  27:Drivers/src/ch32v20x_crc.c ****  * @fn      CRC_CalcCRC
  28:Drivers/src/ch32v20x_crc.c ****  *
  29:Drivers/src/ch32v20x_crc.c ****  * @brief   Computes the 32-bit CRC of a given data word(32-bit).
  30:Drivers/src/ch32v20x_crc.c ****  *
  31:Drivers/src/ch32v20x_crc.c ****  * @param   Data - data word(32-bit) to compute its CRC.
  32:Drivers/src/ch32v20x_crc.c ****  *
  33:Drivers/src/ch32v20x_crc.c ****  * @return  32-bit CRC.
  34:Drivers/src/ch32v20x_crc.c ****  */
  35:Drivers/src/ch32v20x_crc.c **** uint32_t CRC_CalcCRC(uint32_t Data)
  36:Drivers/src/ch32v20x_crc.c **** {
  47              		.loc 1 36 1
  48              		.cfi_startproc
  49 0000 0111     		addi	sp,sp,-32
  50              		.cfi_def_cfa_offset 32
  51 0002 22CE     		sw	s0,28(sp)
  52              		.cfi_offset 8, -4
  53 0004 0010     		addi	s0,sp,32
  54              		.cfi_def_cfa 8, 0
  55 0006 2326A4FE 		sw	a0,-20(s0)
  37:Drivers/src/ch32v20x_crc.c ****     CRC->DATAR = Data;
  56              		.loc 1 37 8
  57 000a B7370240 		li	a5,1073885184
  58              		.loc 1 37 16
  59 000e 0327C4FE 		lw	a4,-20(s0)
  60 0012 98C3     		sw	a4,0(a5)
  38:Drivers/src/ch32v20x_crc.c **** 
  39:Drivers/src/ch32v20x_crc.c ****     return (CRC->DATAR);
  61              		.loc 1 39 16
  62 0014 B7370240 		li	a5,1073885184
  63 0018 9C43     		lw	a5,0(a5)
  40:Drivers/src/ch32v20x_crc.c **** }
  64              		.loc 1 40 1
  65 001a 3E85     		mv	a0,a5
  66 001c 7244     		lw	s0,28(sp)
  67              		.cfi_restore 8
  68              		.cfi_def_cfa 2, 32
  69 001e 0561     		addi	sp,sp,32
  70              		.cfi_def_cfa_offset 0
  71 0020 8280     		jr	ra
  72              		.cfi_endproc
  73              	.LFE17:
  75              		.section	.text.CRC_CalcBlockCRC,"ax",@progbits
  76              		.align	1
  77              		.globl	CRC_CalcBlockCRC
  79              	CRC_CalcBlockCRC:
GAS LISTING C:\Users\SOLDER~1\AppData\Local\Temp\cc2EfhU3.s 			page 3


  80              	.LFB18:
  41:Drivers/src/ch32v20x_crc.c **** 
  42:Drivers/src/ch32v20x_crc.c **** /*********************************************************************
  43:Drivers/src/ch32v20x_crc.c ****  * @fn      CRC_CalcBlockCRC
  44:Drivers/src/ch32v20x_crc.c ****  *
  45:Drivers/src/ch32v20x_crc.c ****  * @brief   Computes the 32-bit CRC of a given buffer of data word(32-bit).
  46:Drivers/src/ch32v20x_crc.c ****  *
  47:Drivers/src/ch32v20x_crc.c ****  * @param   pBuffer - pointer to the buffer containing the data to be computed.
  48:Drivers/src/ch32v20x_crc.c ****  *          BufferLength - length of the buffer to be computed.
  49:Drivers/src/ch32v20x_crc.c ****  *
  50:Drivers/src/ch32v20x_crc.c ****  * @return  32-bit CRC.
  51:Drivers/src/ch32v20x_crc.c ****  */
  52:Drivers/src/ch32v20x_crc.c **** uint32_t CRC_CalcBlockCRC(uint32_t pBuffer[], uint32_t BufferLength)
  53:Drivers/src/ch32v20x_crc.c **** {
  81              		.loc 1 53 1
  82              		.cfi_startproc
  83 0000 7971     		addi	sp,sp,-48
  84              		.cfi_def_cfa_offset 48
  85 0002 22D6     		sw	s0,44(sp)
  86              		.cfi_offset 8, -4
  87 0004 0018     		addi	s0,sp,48
  88              		.cfi_def_cfa 8, 0
  89 0006 232EA4FC 		sw	a0,-36(s0)
  90 000a 232CB4FC 		sw	a1,-40(s0)
  54:Drivers/src/ch32v20x_crc.c ****     uint32_t index = 0;
  91              		.loc 1 54 14
  92 000e 232604FE 		sw	zero,-20(s0)
  55:Drivers/src/ch32v20x_crc.c **** 
  56:Drivers/src/ch32v20x_crc.c ****     for(index = 0; index < BufferLength; index++){
  93              		.loc 1 56 15
  94 0012 232604FE 		sw	zero,-20(s0)
  95              		.loc 1 56 5
  96 0016 05A0     		j	.L5
  97              	.L6:
  57:Drivers/src/ch32v20x_crc.c ****         CRC->DATAR = pBuffer[index];
  98              		.loc 1 57 29 discriminator 3
  99 0018 8327C4FE 		lw	a5,-20(s0)
 100 001c 8A07     		slli	a5,a5,2
 101 001e 0327C4FD 		lw	a4,-36(s0)
 102 0022 3E97     		add	a4,a4,a5
 103              		.loc 1 57 12 discriminator 3
 104 0024 B7370240 		li	a5,1073885184
 105              		.loc 1 57 29 discriminator 3
 106 0028 1843     		lw	a4,0(a4)
 107              		.loc 1 57 20 discriminator 3
 108 002a 98C3     		sw	a4,0(a5)
  56:Drivers/src/ch32v20x_crc.c ****         CRC->DATAR = pBuffer[index];
 109              		.loc 1 56 47 discriminator 3
 110 002c 8327C4FE 		lw	a5,-20(s0)
 111 0030 8507     		addi	a5,a5,1
 112 0032 2326F4FE 		sw	a5,-20(s0)
 113              	.L5:
  56:Drivers/src/ch32v20x_crc.c ****         CRC->DATAR = pBuffer[index];
 114              		.loc 1 56 26 discriminator 1
 115 0036 0327C4FE 		lw	a4,-20(s0)
 116 003a 832784FD 		lw	a5,-40(s0)
 117 003e E36DF7FC 		bltu	a4,a5,.L6
GAS LISTING C:\Users\SOLDER~1\AppData\Local\Temp\cc2EfhU3.s 			page 4


  58:Drivers/src/ch32v20x_crc.c ****     }
  59:Drivers/src/ch32v20x_crc.c **** 
  60:Drivers/src/ch32v20x_crc.c ****     return (CRC->DATAR);
 118              		.loc 1 60 16
 119 0042 B7370240 		li	a5,1073885184
 120 0046 9C43     		lw	a5,0(a5)
  61:Drivers/src/ch32v20x_crc.c **** }
 121              		.loc 1 61 1
 122 0048 3E85     		mv	a0,a5
 123 004a 3254     		lw	s0,44(sp)
 124              		.cfi_restore 8
 125              		.cfi_def_cfa 2, 48
 126 004c 4561     		addi	sp,sp,48
 127              		.cfi_def_cfa_offset 0
 128 004e 8280     		jr	ra
 129              		.cfi_endproc
 130              	.LFE18:
 132              		.section	.text.CRC_GetCRC,"ax",@progbits
 133              		.align	1
 134              		.globl	CRC_GetCRC
 136              	CRC_GetCRC:
 137              	.LFB19:
  62:Drivers/src/ch32v20x_crc.c **** 
  63:Drivers/src/ch32v20x_crc.c **** /*********************************************************************
  64:Drivers/src/ch32v20x_crc.c ****  * @fn      CRC_GetCRC
  65:Drivers/src/ch32v20x_crc.c ****  *
  66:Drivers/src/ch32v20x_crc.c ****  * @brief   Returns the current CRC value.
  67:Drivers/src/ch32v20x_crc.c ****  *
  68:Drivers/src/ch32v20x_crc.c ****  * @return  32-bit CRC.
  69:Drivers/src/ch32v20x_crc.c ****  */
  70:Drivers/src/ch32v20x_crc.c **** uint32_t CRC_GetCRC(void)
  71:Drivers/src/ch32v20x_crc.c **** {
 138              		.loc 1 71 1
 139              		.cfi_startproc
 140 0000 4111     		addi	sp,sp,-16
 141              		.cfi_def_cfa_offset 16
 142 0002 22C6     		sw	s0,12(sp)
 143              		.cfi_offset 8, -4
 144 0004 0008     		addi	s0,sp,16
 145              		.cfi_def_cfa 8, 0
  72:Drivers/src/ch32v20x_crc.c ****     return (CRC->DATAR);
 146              		.loc 1 72 16
 147 0006 B7370240 		li	a5,1073885184
 148 000a 9C43     		lw	a5,0(a5)
  73:Drivers/src/ch32v20x_crc.c **** }
 149              		.loc 1 73 1
 150 000c 3E85     		mv	a0,a5
 151 000e 3244     		lw	s0,12(sp)
 152              		.cfi_restore 8
 153              		.cfi_def_cfa 2, 16
 154 0010 4101     		addi	sp,sp,16
 155              		.cfi_def_cfa_offset 0
 156 0012 8280     		jr	ra
 157              		.cfi_endproc
 158              	.LFE19:
 160              		.section	.text.CRC_SetIDRegister,"ax",@progbits
 161              		.align	1
GAS LISTING C:\Users\SOLDER~1\AppData\Local\Temp\cc2EfhU3.s 			page 5


 162              		.globl	CRC_SetIDRegister
 164              	CRC_SetIDRegister:
 165              	.LFB20:
  74:Drivers/src/ch32v20x_crc.c **** 
  75:Drivers/src/ch32v20x_crc.c **** /*********************************************************************
  76:Drivers/src/ch32v20x_crc.c ****  * @fn      CRC_SetIDRegister
  77:Drivers/src/ch32v20x_crc.c ****  *
  78:Drivers/src/ch32v20x_crc.c ****  * @brief   Stores a 8-bit data in the Independent Data(ID) register.
  79:Drivers/src/ch32v20x_crc.c ****  *
  80:Drivers/src/ch32v20x_crc.c ****  * @param   IDValue - 8-bit value to be stored in the ID register.
  81:Drivers/src/ch32v20x_crc.c ****  *
  82:Drivers/src/ch32v20x_crc.c ****  * @return  none
  83:Drivers/src/ch32v20x_crc.c ****  */
  84:Drivers/src/ch32v20x_crc.c **** void CRC_SetIDRegister(uint8_t IDValue)
  85:Drivers/src/ch32v20x_crc.c **** {
 166              		.loc 1 85 1
 167              		.cfi_startproc
 168 0000 0111     		addi	sp,sp,-32
 169              		.cfi_def_cfa_offset 32
 170 0002 22CE     		sw	s0,28(sp)
 171              		.cfi_offset 8, -4
 172 0004 0010     		addi	s0,sp,32
 173              		.cfi_def_cfa 8, 0
 174 0006 AA87     		mv	a5,a0
 175 0008 A307F4FE 		sb	a5,-17(s0)
  86:Drivers/src/ch32v20x_crc.c ****     CRC->IDATAR = IDValue;
 176              		.loc 1 86 8
 177 000c B7370240 		li	a5,1073885184
 178              		.loc 1 86 17
 179 0010 0347F4FE 		lbu	a4,-17(s0)
 180 0014 D8A3     		sb	a4,4(a5)
  87:Drivers/src/ch32v20x_crc.c **** }
 181              		.loc 1 87 1
 182 0016 0100     		nop
 183 0018 7244     		lw	s0,28(sp)
 184              		.cfi_restore 8
 185              		.cfi_def_cfa 2, 32
 186 001a 0561     		addi	sp,sp,32
 187              		.cfi_def_cfa_offset 0
 188 001c 8280     		jr	ra
 189              		.cfi_endproc
 190              	.LFE20:
 192              		.section	.text.CRC_GetIDRegister,"ax",@progbits
 193              		.align	1
 194              		.globl	CRC_GetIDRegister
 196              	CRC_GetIDRegister:
 197              	.LFB21:
  88:Drivers/src/ch32v20x_crc.c **** 
  89:Drivers/src/ch32v20x_crc.c **** /*********************************************************************
  90:Drivers/src/ch32v20x_crc.c ****  * @fn      CRC_GetIDRegister
  91:Drivers/src/ch32v20x_crc.c ****  *
  92:Drivers/src/ch32v20x_crc.c ****  * @brief   Returns the 8-bit data stored in the Independent Data(ID) register.
  93:Drivers/src/ch32v20x_crc.c ****  *
  94:Drivers/src/ch32v20x_crc.c ****  * @return  8-bit value of the ID register.
  95:Drivers/src/ch32v20x_crc.c ****  */
  96:Drivers/src/ch32v20x_crc.c **** uint8_t CRC_GetIDRegister(void)
  97:Drivers/src/ch32v20x_crc.c **** {
GAS LISTING C:\Users\SOLDER~1\AppData\Local\Temp\cc2EfhU3.s 			page 6


 198              		.loc 1 97 1
 199              		.cfi_startproc
 200 0000 4111     		addi	sp,sp,-16
 201              		.cfi_def_cfa_offset 16
 202 0002 22C6     		sw	s0,12(sp)
 203              		.cfi_offset 8, -4
 204 0004 0008     		addi	s0,sp,16
 205              		.cfi_def_cfa 8, 0
  98:Drivers/src/ch32v20x_crc.c ****     return (CRC->IDATAR);
 206              		.loc 1 98 16
 207 0006 B7370240 		li	a5,1073885184
 208 000a DC23     		lbu	a5,4(a5)
 209 000c 93F7F70F 		andi	a5,a5,0xff
  99:Drivers/src/ch32v20x_crc.c **** }
 210              		.loc 1 99 1
 211 0010 3E85     		mv	a0,a5
 212 0012 3244     		lw	s0,12(sp)
 213              		.cfi_restore 8
 214              		.cfi_def_cfa 2, 16
 215 0014 4101     		addi	sp,sp,16
 216              		.cfi_def_cfa_offset 0
 217 0016 8280     		jr	ra
 218              		.cfi_endproc
 219              	.LFE21:
 221              		.text
 222              	.Letext0:
 223              		.file 2 "c:\\dev_tools\\ch32_tools\\risc-v_embedded_gcc12\\riscv-none-elf\\include\\machine\\_defa
 224              		.file 3 "c:\\dev_tools\\ch32_tools\\risc-v_embedded_gcc12\\riscv-none-elf\\include\\sys\\_stdint.h
 225              		.file 4 "Drivers/inc/ch32v20x.h"
GAS LISTING C:\Users\SOLDER~1\AppData\Local\Temp\cc2EfhU3.s 			page 7

