GAS LISTING C:\Users\SOLDER~1\AppData\Local\Temp\ccdovRCu.s 			page 1


   1              		.file	"ch32v20x_gpio.c"
   2              		.option nopic
   3              		.attribute arch, "rv32i2p0_m2p0_a2p0_c2p0_xw"
   4              		.attribute unaligned_access, 0
   5              		.attribute stack_align, 16
   6              		.text
   7              	.Ltext0:
   8              		.cfi_sections	.debug_frame
   9              		.file 0 "C:\\Users\\Solderingiron\\Documents\\GitHub\\VSC-make-example\\VSC_CH32V203C8T6" "Drivers
  10              		.globl	MCU_Version
  11              		.section	.sbss.MCU_Version,"aw",@nobits
  14              	MCU_Version:
  15 0000 00       		.zero	1
  16              		.section	.text.GPIO_DeInit,"ax",@progbits
  17              		.align	1
  18              		.globl	GPIO_DeInit
  20              	GPIO_DeInit:
  21              	.LFB16:
  22              		.file 1 "Drivers/src/ch32v20x_gpio.c"
   1:Drivers/src/ch32v20x_gpio.c **** /********************************** (C) COPYRIGHT  *******************************
   2:Drivers/src/ch32v20x_gpio.c ****  * File Name          : ch32v20x_gpio.c
   3:Drivers/src/ch32v20x_gpio.c ****  * Author             : WCH
   4:Drivers/src/ch32v20x_gpio.c ****  * Version            : V1.0.0
   5:Drivers/src/ch32v20x_gpio.c ****  * Date               : 2021/06/06
   6:Drivers/src/ch32v20x_gpio.c ****  * Description        : This file provides all the GPIO firmware functions.
   7:Drivers/src/ch32v20x_gpio.c **** *********************************************************************************
   8:Drivers/src/ch32v20x_gpio.c **** * Copyright (c) 2021 Nanjing Qinheng Microelectronics Co., Ltd.
   9:Drivers/src/ch32v20x_gpio.c **** * Attention: This software (modified or not) and binary are used for 
  10:Drivers/src/ch32v20x_gpio.c **** * microcontroller manufactured by Nanjing Qinheng Microelectronics.
  11:Drivers/src/ch32v20x_gpio.c **** *******************************************************************************/
  12:Drivers/src/ch32v20x_gpio.c **** #include "ch32v20x_gpio.h"
  13:Drivers/src/ch32v20x_gpio.c **** #include "ch32v20x_rcc.h"
  14:Drivers/src/ch32v20x_gpio.c **** 
  15:Drivers/src/ch32v20x_gpio.c **** /* MASK */
  16:Drivers/src/ch32v20x_gpio.c **** #define ECR_PORTPINCONFIG_MASK    ((uint16_t)0xFF80)
  17:Drivers/src/ch32v20x_gpio.c **** #define LSB_MASK                  ((uint16_t)0xFFFF)
  18:Drivers/src/ch32v20x_gpio.c **** #define DBGAFR_POSITION_MASK      ((uint32_t)0x000F0000)
  19:Drivers/src/ch32v20x_gpio.c **** #define DBGAFR_SWJCFG_MASK        ((uint32_t)0xF0FFFFFF)
  20:Drivers/src/ch32v20x_gpio.c **** #define DBGAFR_LOCATION_MASK      ((uint32_t)0x00200000)
  21:Drivers/src/ch32v20x_gpio.c **** #define DBGAFR_NUMBITS_MASK       ((uint32_t)0x00100000)
  22:Drivers/src/ch32v20x_gpio.c **** 
  23:Drivers/src/ch32v20x_gpio.c **** #if defined (CH32V20x_D6)
  24:Drivers/src/ch32v20x_gpio.c **** uint8_t MCU_Version = 0;
  25:Drivers/src/ch32v20x_gpio.c **** #endif
  26:Drivers/src/ch32v20x_gpio.c **** 
  27:Drivers/src/ch32v20x_gpio.c **** /*********************************************************************
  28:Drivers/src/ch32v20x_gpio.c ****  * @fn      GPIO_DeInit
  29:Drivers/src/ch32v20x_gpio.c ****  *
  30:Drivers/src/ch32v20x_gpio.c ****  * @brief   Deinitializes the GPIOx peripheral registers to their default
  31:Drivers/src/ch32v20x_gpio.c ****  *        reset values.
  32:Drivers/src/ch32v20x_gpio.c ****  *
  33:Drivers/src/ch32v20x_gpio.c ****  * @param   GPIOx - where x can be (A..G) to select the GPIO peripheral.
  34:Drivers/src/ch32v20x_gpio.c ****  *
  35:Drivers/src/ch32v20x_gpio.c ****  * @return  none
  36:Drivers/src/ch32v20x_gpio.c ****  */
  37:Drivers/src/ch32v20x_gpio.c **** void GPIO_DeInit(GPIO_TypeDef *GPIOx)
  38:Drivers/src/ch32v20x_gpio.c **** {
GAS LISTING C:\Users\SOLDER~1\AppData\Local\Temp\ccdovRCu.s 			page 2


  23              		.loc 1 38 1
  24              		.cfi_startproc
  25 0000 0111     		addi	sp,sp,-32
  26              		.cfi_def_cfa_offset 32
  27 0002 06CE     		sw	ra,28(sp)
  28 0004 22CC     		sw	s0,24(sp)
  29              		.cfi_offset 1, -4
  30              		.cfi_offset 8, -8
  31 0006 0010     		addi	s0,sp,32
  32              		.cfi_def_cfa 8, 0
  33 0008 2326A4FE 		sw	a0,-20(s0)
  39:Drivers/src/ch32v20x_gpio.c ****     if(GPIOx == GPIOA)
  34              		.loc 1 39 7
  35 000c 0327C4FE 		lw	a4,-20(s0)
  36 0010 B7170140 		li	a5,1073811456
  37 0014 93870780 		addi	a5,a5,-2048
  38 0018 631FF700 		bne	a4,a5,.L2
  40:Drivers/src/ch32v20x_gpio.c ****     {
  41:Drivers/src/ch32v20x_gpio.c ****         RCC_APB2PeriphResetCmd(RCC_APB2Periph_GPIOA, ENABLE);
  39              		.loc 1 41 9
  40 001c 8545     		li	a1,1
  41 001e 1145     		li	a0,4
  42 0020 97000000 		call	RCC_APB2PeriphResetCmd
  42      E7800000 
  42:Drivers/src/ch32v20x_gpio.c ****         RCC_APB2PeriphResetCmd(RCC_APB2Periph_GPIOA, DISABLE);
  43              		.loc 1 42 9
  44 0028 8145     		li	a1,0
  45 002a 1145     		li	a0,4
  46 002c 97000000 		call	RCC_APB2PeriphResetCmd
  46      E7800000 
  43:Drivers/src/ch32v20x_gpio.c ****     }
  44:Drivers/src/ch32v20x_gpio.c ****     else if(GPIOx == GPIOB)
  45:Drivers/src/ch32v20x_gpio.c ****     {
  46:Drivers/src/ch32v20x_gpio.c ****         RCC_APB2PeriphResetCmd(RCC_APB2Periph_GPIOB, ENABLE);
  47:Drivers/src/ch32v20x_gpio.c ****         RCC_APB2PeriphResetCmd(RCC_APB2Periph_GPIOB, DISABLE);
  48:Drivers/src/ch32v20x_gpio.c ****     }
  49:Drivers/src/ch32v20x_gpio.c ****     else if(GPIOx == GPIOC)
  50:Drivers/src/ch32v20x_gpio.c ****     {
  51:Drivers/src/ch32v20x_gpio.c ****         RCC_APB2PeriphResetCmd(RCC_APB2Periph_GPIOC, ENABLE);
  52:Drivers/src/ch32v20x_gpio.c ****         RCC_APB2PeriphResetCmd(RCC_APB2Periph_GPIOC, DISABLE);
  53:Drivers/src/ch32v20x_gpio.c ****     }
  54:Drivers/src/ch32v20x_gpio.c ****     else if(GPIOx == GPIOD)
  55:Drivers/src/ch32v20x_gpio.c ****     {
  56:Drivers/src/ch32v20x_gpio.c ****         RCC_APB2PeriphResetCmd(RCC_APB2Periph_GPIOD, ENABLE);
  57:Drivers/src/ch32v20x_gpio.c ****         RCC_APB2PeriphResetCmd(RCC_APB2Periph_GPIOD, DISABLE);
  58:Drivers/src/ch32v20x_gpio.c ****     }
  59:Drivers/src/ch32v20x_gpio.c ****     else if(GPIOx == GPIOE)
  60:Drivers/src/ch32v20x_gpio.c ****     {
  61:Drivers/src/ch32v20x_gpio.c ****         RCC_APB2PeriphResetCmd(RCC_APB2Periph_GPIOE, ENABLE);
  62:Drivers/src/ch32v20x_gpio.c ****         RCC_APB2PeriphResetCmd(RCC_APB2Periph_GPIOE, DISABLE);
  63:Drivers/src/ch32v20x_gpio.c ****     }
  64:Drivers/src/ch32v20x_gpio.c **** }
  47              		.loc 1 64 1
  48 0034 75A0     		j	.L7
  49              	.L2:
  44:Drivers/src/ch32v20x_gpio.c ****     {
  50              		.loc 1 44 12
GAS LISTING C:\Users\SOLDER~1\AppData\Local\Temp\ccdovRCu.s 			page 3


  51 0036 0327C4FE 		lw	a4,-20(s0)
  52 003a B7170140 		li	a5,1073811456
  53 003e 938707C0 		addi	a5,a5,-1024
  54 0042 631FF700 		bne	a4,a5,.L4
  46:Drivers/src/ch32v20x_gpio.c ****         RCC_APB2PeriphResetCmd(RCC_APB2Periph_GPIOB, DISABLE);
  55              		.loc 1 46 9
  56 0046 8545     		li	a1,1
  57 0048 2145     		li	a0,8
  58 004a 97000000 		call	RCC_APB2PeriphResetCmd
  58      E7800000 
  47:Drivers/src/ch32v20x_gpio.c ****     }
  59              		.loc 1 47 9
  60 0052 8145     		li	a1,0
  61 0054 2145     		li	a0,8
  62 0056 97000000 		call	RCC_APB2PeriphResetCmd
  62      E7800000 
  63              		.loc 1 64 1
  64 005e 49A0     		j	.L7
  65              	.L4:
  49:Drivers/src/ch32v20x_gpio.c ****     {
  66              		.loc 1 49 12
  67 0060 0327C4FE 		lw	a4,-20(s0)
  68 0064 B7170140 		li	a5,1073811456
  69 0068 631FF700 		bne	a4,a5,.L5
  51:Drivers/src/ch32v20x_gpio.c ****         RCC_APB2PeriphResetCmd(RCC_APB2Periph_GPIOC, DISABLE);
  70              		.loc 1 51 9
  71 006c 8545     		li	a1,1
  72 006e 4145     		li	a0,16
  73 0070 97000000 		call	RCC_APB2PeriphResetCmd
  73      E7800000 
  52:Drivers/src/ch32v20x_gpio.c ****     }
  74              		.loc 1 52 9
  75 0078 8145     		li	a1,0
  76 007a 4145     		li	a0,16
  77 007c 97000000 		call	RCC_APB2PeriphResetCmd
  77      E7800000 
  78              		.loc 1 64 1
  79 0084 B1A8     		j	.L7
  80              	.L5:
  54:Drivers/src/ch32v20x_gpio.c ****     {
  81              		.loc 1 54 12
  82 0086 0327C4FE 		lw	a4,-20(s0)
  83 008a B7170140 		li	a5,1073811456
  84 008e 93870740 		addi	a5,a5,1024
  85 0092 6311F702 		bne	a4,a5,.L6
  56:Drivers/src/ch32v20x_gpio.c ****         RCC_APB2PeriphResetCmd(RCC_APB2Periph_GPIOD, DISABLE);
  86              		.loc 1 56 9
  87 0096 8545     		li	a1,1
  88 0098 13050002 		li	a0,32
  89 009c 97000000 		call	RCC_APB2PeriphResetCmd
  89      E7800000 
  57:Drivers/src/ch32v20x_gpio.c ****     }
  90              		.loc 1 57 9
  91 00a4 8145     		li	a1,0
  92 00a6 13050002 		li	a0,32
  93 00aa 97000000 		call	RCC_APB2PeriphResetCmd
  93      E7800000 
GAS LISTING C:\Users\SOLDER~1\AppData\Local\Temp\ccdovRCu.s 			page 4


  94              		.loc 1 64 1
  95 00b2 3DA0     		j	.L7
  96              	.L6:
  59:Drivers/src/ch32v20x_gpio.c ****     {
  97              		.loc 1 59 12
  98 00b4 0327C4FE 		lw	a4,-20(s0)
  99 00b8 B7270140 		li	a5,1073815552
 100 00bc 93870780 		addi	a5,a5,-2048
 101 00c0 6310F702 		bne	a4,a5,.L7
  61:Drivers/src/ch32v20x_gpio.c ****         RCC_APB2PeriphResetCmd(RCC_APB2Periph_GPIOE, DISABLE);
 102              		.loc 1 61 9
 103 00c4 8545     		li	a1,1
 104 00c6 13050004 		li	a0,64
 105 00ca 97000000 		call	RCC_APB2PeriphResetCmd
 105      E7800000 
  62:Drivers/src/ch32v20x_gpio.c ****     }
 106              		.loc 1 62 9
 107 00d2 8145     		li	a1,0
 108 00d4 13050004 		li	a0,64
 109 00d8 97000000 		call	RCC_APB2PeriphResetCmd
 109      E7800000 
 110              	.L7:
 111              		.loc 1 64 1
 112 00e0 0100     		nop
 113 00e2 F240     		lw	ra,28(sp)
 114              		.cfi_restore 1
 115 00e4 6244     		lw	s0,24(sp)
 116              		.cfi_restore 8
 117              		.cfi_def_cfa 2, 32
 118 00e6 0561     		addi	sp,sp,32
 119              		.cfi_def_cfa_offset 0
 120 00e8 8280     		jr	ra
 121              		.cfi_endproc
 122              	.LFE16:
 124              		.section	.text.GPIO_AFIODeInit,"ax",@progbits
 125              		.align	1
 126              		.globl	GPIO_AFIODeInit
 128              	GPIO_AFIODeInit:
 129              	.LFB17:
  65:Drivers/src/ch32v20x_gpio.c **** 
  66:Drivers/src/ch32v20x_gpio.c **** /*********************************************************************
  67:Drivers/src/ch32v20x_gpio.c ****  * @fn      GPIO_AFIODeInit
  68:Drivers/src/ch32v20x_gpio.c ****  *
  69:Drivers/src/ch32v20x_gpio.c ****  * @brief   Deinitializes the Alternate Functions (remap, event control
  70:Drivers/src/ch32v20x_gpio.c ****  *        and EXTI configuration) registers to their default reset values.
  71:Drivers/src/ch32v20x_gpio.c ****  *
  72:Drivers/src/ch32v20x_gpio.c ****  * @return  none
  73:Drivers/src/ch32v20x_gpio.c ****  */
  74:Drivers/src/ch32v20x_gpio.c **** void GPIO_AFIODeInit(void)
  75:Drivers/src/ch32v20x_gpio.c **** {
 130              		.loc 1 75 1
 131              		.cfi_startproc
 132 0000 4111     		addi	sp,sp,-16
 133              		.cfi_def_cfa_offset 16
 134 0002 06C6     		sw	ra,12(sp)
 135 0004 22C4     		sw	s0,8(sp)
 136              		.cfi_offset 1, -4
GAS LISTING C:\Users\SOLDER~1\AppData\Local\Temp\ccdovRCu.s 			page 5


 137              		.cfi_offset 8, -8
 138 0006 0008     		addi	s0,sp,16
 139              		.cfi_def_cfa 8, 0
  76:Drivers/src/ch32v20x_gpio.c ****     RCC_APB2PeriphResetCmd(RCC_APB2Periph_AFIO, ENABLE);
 140              		.loc 1 76 5
 141 0008 8545     		li	a1,1
 142 000a 0545     		li	a0,1
 143 000c 97000000 		call	RCC_APB2PeriphResetCmd
 143      E7800000 
  77:Drivers/src/ch32v20x_gpio.c ****     RCC_APB2PeriphResetCmd(RCC_APB2Periph_AFIO, DISABLE);
 144              		.loc 1 77 5
 145 0014 8145     		li	a1,0
 146 0016 0545     		li	a0,1
 147 0018 97000000 		call	RCC_APB2PeriphResetCmd
 147      E7800000 
  78:Drivers/src/ch32v20x_gpio.c **** }
 148              		.loc 1 78 1
 149 0020 0100     		nop
 150 0022 B240     		lw	ra,12(sp)
 151              		.cfi_restore 1
 152 0024 2244     		lw	s0,8(sp)
 153              		.cfi_restore 8
 154              		.cfi_def_cfa 2, 16
 155 0026 4101     		addi	sp,sp,16
 156              		.cfi_def_cfa_offset 0
 157 0028 8280     		jr	ra
 158              		.cfi_endproc
 159              	.LFE17:
 161              		.section	.text.GPIO_Init,"ax",@progbits
 162              		.align	1
 163              		.globl	GPIO_Init
 165              	GPIO_Init:
 166              	.LFB18:
  79:Drivers/src/ch32v20x_gpio.c **** 
  80:Drivers/src/ch32v20x_gpio.c **** /*********************************************************************
  81:Drivers/src/ch32v20x_gpio.c ****  * @fn      GPIO_Init
  82:Drivers/src/ch32v20x_gpio.c ****  *
  83:Drivers/src/ch32v20x_gpio.c ****  * @brief   GPIOx - where x can be (A..G) to select the GPIO peripheral.
  84:Drivers/src/ch32v20x_gpio.c ****  *
  85:Drivers/src/ch32v20x_gpio.c ****  * @param   GPIO_InitStruct - pointer to a GPIO_InitTypeDef structure that
  86:Drivers/src/ch32v20x_gpio.c ****  *        contains the configuration information for the specified GPIO peripheral.
  87:Drivers/src/ch32v20x_gpio.c ****  *
  88:Drivers/src/ch32v20x_gpio.c ****  * @return  none
  89:Drivers/src/ch32v20x_gpio.c ****  */
  90:Drivers/src/ch32v20x_gpio.c **** void GPIO_Init(GPIO_TypeDef *GPIOx, GPIO_InitTypeDef *GPIO_InitStruct)
  91:Drivers/src/ch32v20x_gpio.c **** {
 167              		.loc 1 91 1
 168              		.cfi_startproc
 169 0000 3971     		addi	sp,sp,-64
 170              		.cfi_def_cfa_offset 64
 171 0002 22DE     		sw	s0,60(sp)
 172              		.cfi_offset 8, -4
 173 0004 8000     		addi	s0,sp,64
 174              		.cfi_def_cfa 8, 0
 175 0006 2326A4FC 		sw	a0,-52(s0)
 176 000a 2324B4FC 		sw	a1,-56(s0)
  92:Drivers/src/ch32v20x_gpio.c ****     uint32_t currentmode = 0x00, currentpin = 0x00, pinpos = 0x00, pos = 0x00;
GAS LISTING C:\Users\SOLDER~1\AppData\Local\Temp\ccdovRCu.s 			page 6


 177              		.loc 1 92 14
 178 000e 232604FE 		sw	zero,-20(s0)
 179              		.loc 1 92 34
 180 0012 232004FE 		sw	zero,-32(s0)
 181              		.loc 1 92 53
 182 0016 232404FE 		sw	zero,-24(s0)
 183              		.loc 1 92 68
 184 001a 232E04FC 		sw	zero,-36(s0)
  93:Drivers/src/ch32v20x_gpio.c ****     uint32_t tmpreg = 0x00, pinmask = 0x00;
 185              		.loc 1 93 14
 186 001e 232204FE 		sw	zero,-28(s0)
 187              		.loc 1 93 29
 188 0022 232C04FC 		sw	zero,-40(s0)
  94:Drivers/src/ch32v20x_gpio.c **** 
  95:Drivers/src/ch32v20x_gpio.c ****     currentmode = ((uint32_t)GPIO_InitStruct->GPIO_Mode) & ((uint32_t)0x0F);
 189              		.loc 1 95 45
 190 0026 832784FC 		lw	a5,-56(s0)
 191 002a 9C47     		lw	a5,8(a5)
 192              		.loc 1 95 17
 193 002c BD8B     		andi	a5,a5,15
 194 002e 2326F4FE 		sw	a5,-20(s0)
  96:Drivers/src/ch32v20x_gpio.c **** 
  97:Drivers/src/ch32v20x_gpio.c ****     if((((uint32_t)GPIO_InitStruct->GPIO_Mode) & ((uint32_t)0x10)) != 0x00)
 195              		.loc 1 97 35
 196 0032 832784FC 		lw	a5,-56(s0)
 197 0036 9C47     		lw	a5,8(a5)
 198              		.loc 1 97 48
 199 0038 C18B     		andi	a5,a5,16
 200              		.loc 1 97 7
 201 003a 89CB     		beq	a5,zero,.L10
  98:Drivers/src/ch32v20x_gpio.c ****     {
  99:Drivers/src/ch32v20x_gpio.c ****         currentmode |= (uint32_t)GPIO_InitStruct->GPIO_Speed;
 202              		.loc 1 99 49
 203 003c 832784FC 		lw	a5,-56(s0)
 204 0040 DC43     		lw	a5,4(a5)
 205              		.loc 1 99 21
 206 0042 0327C4FE 		lw	a4,-20(s0)
 207 0046 D98F     		or	a5,a4,a5
 208 0048 2326F4FE 		sw	a5,-20(s0)
 209              	.L10:
 100:Drivers/src/ch32v20x_gpio.c ****     }
 101:Drivers/src/ch32v20x_gpio.c **** #if defined (CH32V20x_D6)
 102:Drivers/src/ch32v20x_gpio.c ****     if(((*(uint32_t *) 0x40022030) & 0x0F000000) == 0)
 210              		.loc 1 102 10
 211 004c B7270240 		li	a5,1073881088
 212 0050 93870703 		addi	a5,a5,48
 213 0054 9843     		lw	a4,0(a5)
 214              		.loc 1 102 36
 215 0056 B707000F 		li	a5,251658240
 216 005a F98F     		and	a5,a4,a5
 217              		.loc 1 102 7
 218 005c 91E7     		bne	a5,zero,.L11
 103:Drivers/src/ch32v20x_gpio.c ****     {
 104:Drivers/src/ch32v20x_gpio.c ****         MCU_Version = 1;
 219              		.loc 1 104 21
 220 005e B7070000 		lui	a5,%hi(MCU_Version)
 221 0062 0547     		li	a4,1
GAS LISTING C:\Users\SOLDER~1\AppData\Local\Temp\ccdovRCu.s 			page 7


 222 0064 2380E700 		sb	a4,%lo(MCU_Version)(a5)
 223              	.L11:
 105:Drivers/src/ch32v20x_gpio.c ****     }
 106:Drivers/src/ch32v20x_gpio.c **** 
 107:Drivers/src/ch32v20x_gpio.c ****     if((GPIOx == GPIOC) && MCU_Version){
 224              		.loc 1 107 7
 225 0068 0327C4FC 		lw	a4,-52(s0)
 226 006c B7170140 		li	a5,1073811456
 227 0070 6311F702 		bne	a4,a5,.L12
 228              		.loc 1 107 25 discriminator 1
 229 0074 B7070000 		lui	a5,%hi(MCU_Version)
 230 0078 83C70700 		lbu	a5,%lo(MCU_Version)(a5)
 231 007c 99CB     		beq	a5,zero,.L12
 108:Drivers/src/ch32v20x_gpio.c ****         GPIO_InitStruct->GPIO_Pin = GPIO_InitStruct->GPIO_Pin >> 13;
 232              		.loc 1 108 52
 233 007e 832784FC 		lw	a5,-56(s0)
 234 0082 9E23     		lhu	a5,0(a5)
 235              		.loc 1 108 35
 236 0084 B583     		srli	a5,a5,13
 237 0086 13970701 		slli	a4,a5,16
 238 008a 4183     		srli	a4,a4,16
 239 008c 832784FC 		lw	a5,-56(s0)
 240 0090 9AA3     		sh	a4,0(a5)
 241              	.L12:
 109:Drivers/src/ch32v20x_gpio.c ****     }
 110:Drivers/src/ch32v20x_gpio.c **** 
 111:Drivers/src/ch32v20x_gpio.c **** #endif
 112:Drivers/src/ch32v20x_gpio.c ****     if(((uint32_t)GPIO_InitStruct->GPIO_Pin & ((uint32_t)0x00FF)) != 0x00)
 242              		.loc 1 112 34
 243 0092 832784FC 		lw	a5,-56(s0)
 244 0096 9E23     		lhu	a5,0(a5)
 245              		.loc 1 112 45
 246 0098 93F7F70F 		andi	a5,a5,255
 247              		.loc 1 112 7
 248 009c E9CF     		beq	a5,zero,.L13
 113:Drivers/src/ch32v20x_gpio.c ****     {
 114:Drivers/src/ch32v20x_gpio.c ****         tmpreg = GPIOx->CFGLR;
 249              		.loc 1 114 16
 250 009e 8327C4FC 		lw	a5,-52(s0)
 251 00a2 9C43     		lw	a5,0(a5)
 252 00a4 2322F4FE 		sw	a5,-28(s0)
 115:Drivers/src/ch32v20x_gpio.c **** 
 116:Drivers/src/ch32v20x_gpio.c ****         for(pinpos = 0x00; pinpos < 0x08; pinpos++)
 253              		.loc 1 116 20
 254 00a8 232404FE 		sw	zero,-24(s0)
 255              		.loc 1 116 9
 256 00ac 5DA8     		j	.L14
 257              	.L17:
 117:Drivers/src/ch32v20x_gpio.c ****         {
 118:Drivers/src/ch32v20x_gpio.c ****             pos = ((uint32_t)0x01) << pinpos;
 258              		.loc 1 118 17
 259 00ae 832784FE 		lw	a5,-24(s0)
 260 00b2 0547     		li	a4,1
 261 00b4 B317F700 		sll	a5,a4,a5
 262 00b8 232EF4FC 		sw	a5,-36(s0)
 119:Drivers/src/ch32v20x_gpio.c ****             currentpin = (GPIO_InitStruct->GPIO_Pin) & pos;
 263              		.loc 1 119 42
GAS LISTING C:\Users\SOLDER~1\AppData\Local\Temp\ccdovRCu.s 			page 8


 264 00bc 832784FC 		lw	a5,-56(s0)
 265 00c0 9E23     		lhu	a5,0(a5)
 266 00c2 3E87     		mv	a4,a5
 267              		.loc 1 119 24
 268 00c4 8327C4FD 		lw	a5,-36(s0)
 269 00c8 F98F     		and	a5,a5,a4
 270 00ca 2320F4FE 		sw	a5,-32(s0)
 120:Drivers/src/ch32v20x_gpio.c **** 
 121:Drivers/src/ch32v20x_gpio.c ****             if(currentpin == pos)
 271              		.loc 1 121 15
 272 00ce 032704FE 		lw	a4,-32(s0)
 273 00d2 8327C4FD 		lw	a5,-36(s0)
 274 00d6 6311F708 		bne	a4,a5,.L15
 122:Drivers/src/ch32v20x_gpio.c ****             {
 123:Drivers/src/ch32v20x_gpio.c ****                 pos = pinpos << 2;
 275              		.loc 1 123 21
 276 00da 832784FE 		lw	a5,-24(s0)
 277 00de 8A07     		slli	a5,a5,2
 278 00e0 232EF4FC 		sw	a5,-36(s0)
 124:Drivers/src/ch32v20x_gpio.c ****                 pinmask = ((uint32_t)0x0F) << pos;
 279              		.loc 1 124 25
 280 00e4 8327C4FD 		lw	a5,-36(s0)
 281 00e8 3D47     		li	a4,15
 282 00ea B317F700 		sll	a5,a4,a5
 283 00ee 232CF4FC 		sw	a5,-40(s0)
 125:Drivers/src/ch32v20x_gpio.c ****                 tmpreg &= ~pinmask;
 284              		.loc 1 125 27
 285 00f2 832784FD 		lw	a5,-40(s0)
 286 00f6 93C7F7FF 		not	a5,a5
 287              		.loc 1 125 24
 288 00fa 032744FE 		lw	a4,-28(s0)
 289 00fe F98F     		and	a5,a4,a5
 290 0100 2322F4FE 		sw	a5,-28(s0)
 126:Drivers/src/ch32v20x_gpio.c ****                 tmpreg |= (currentmode << pos);
 291              		.loc 1 126 40
 292 0104 8327C4FD 		lw	a5,-36(s0)
 293 0108 0327C4FE 		lw	a4,-20(s0)
 294 010c B317F700 		sll	a5,a4,a5
 295              		.loc 1 126 24
 296 0110 032744FE 		lw	a4,-28(s0)
 297 0114 D98F     		or	a5,a4,a5
 298 0116 2322F4FE 		sw	a5,-28(s0)
 127:Drivers/src/ch32v20x_gpio.c **** 
 128:Drivers/src/ch32v20x_gpio.c ****                 if(GPIO_InitStruct->GPIO_Mode == GPIO_Mode_IPD)
 299              		.loc 1 128 35
 300 011a 832784FC 		lw	a5,-56(s0)
 301 011e 9847     		lw	a4,8(a5)
 302              		.loc 1 128 19
 303 0120 93078002 		li	a5,40
 304 0124 631BF700 		bne	a4,a5,.L16
 129:Drivers/src/ch32v20x_gpio.c ****                 {
 130:Drivers/src/ch32v20x_gpio.c ****                     GPIOx->BCR = (((uint32_t)0x01) << pinpos);
 305              		.loc 1 130 52
 306 0128 832784FE 		lw	a5,-24(s0)
 307 012c 0547     		li	a4,1
 308 012e 3317F700 		sll	a4,a4,a5
 309              		.loc 1 130 32
GAS LISTING C:\Users\SOLDER~1\AppData\Local\Temp\ccdovRCu.s 			page 9


 310 0132 8327C4FC 		lw	a5,-52(s0)
 311 0136 D8CB     		sw	a4,20(a5)
 312 0138 05A0     		j	.L15
 313              	.L16:
 131:Drivers/src/ch32v20x_gpio.c ****                 }
 132:Drivers/src/ch32v20x_gpio.c ****                 else
 133:Drivers/src/ch32v20x_gpio.c ****                 {
 134:Drivers/src/ch32v20x_gpio.c ****                     if(GPIO_InitStruct->GPIO_Mode == GPIO_Mode_IPU)
 314              		.loc 1 134 39
 315 013a 832784FC 		lw	a5,-56(s0)
 316 013e 9847     		lw	a4,8(a5)
 317              		.loc 1 134 23
 318 0140 93078004 		li	a5,72
 319 0144 631AF700 		bne	a4,a5,.L15
 135:Drivers/src/ch32v20x_gpio.c ****                     {
 136:Drivers/src/ch32v20x_gpio.c ****                         GPIOx->BSHR = (((uint32_t)0x01) << pinpos);
 320              		.loc 1 136 57
 321 0148 832784FE 		lw	a5,-24(s0)
 322 014c 0547     		li	a4,1
 323 014e 3317F700 		sll	a4,a4,a5
 324              		.loc 1 136 37
 325 0152 8327C4FC 		lw	a5,-52(s0)
 326 0156 98CB     		sw	a4,16(a5)
 327              	.L15:
 116:Drivers/src/ch32v20x_gpio.c ****         {
 328              		.loc 1 116 49 discriminator 2
 329 0158 832784FE 		lw	a5,-24(s0)
 330 015c 8507     		addi	a5,a5,1
 331 015e 2324F4FE 		sw	a5,-24(s0)
 332              	.L14:
 116:Drivers/src/ch32v20x_gpio.c ****         {
 333              		.loc 1 116 35 discriminator 1
 334 0162 032784FE 		lw	a4,-24(s0)
 335 0166 9D47     		li	a5,7
 336 0168 E3F3E7F4 		bleu	a4,a5,.L17
 137:Drivers/src/ch32v20x_gpio.c ****                     }
 138:Drivers/src/ch32v20x_gpio.c ****                 }
 139:Drivers/src/ch32v20x_gpio.c ****             }
 140:Drivers/src/ch32v20x_gpio.c ****         }
 141:Drivers/src/ch32v20x_gpio.c ****         GPIOx->CFGLR = tmpreg;
 337              		.loc 1 141 22
 338 016c 8327C4FC 		lw	a5,-52(s0)
 339 0170 032744FE 		lw	a4,-28(s0)
 340 0174 98C3     		sw	a4,0(a5)
 341              	.L13:
 142:Drivers/src/ch32v20x_gpio.c ****     }
 143:Drivers/src/ch32v20x_gpio.c **** 
 144:Drivers/src/ch32v20x_gpio.c ****     if(GPIO_InitStruct->GPIO_Pin > 0x00FF)
 342              		.loc 1 144 23
 343 0176 832784FC 		lw	a5,-56(s0)
 344 017a 9A23     		lhu	a4,0(a5)
 345              		.loc 1 144 7
 346 017c 9307F00F 		li	a5,255
 347 0180 63F0E70E 		bleu	a4,a5,.L23
 145:Drivers/src/ch32v20x_gpio.c ****     {
 146:Drivers/src/ch32v20x_gpio.c ****         tmpreg = GPIOx->CFGHR;
 348              		.loc 1 146 16
GAS LISTING C:\Users\SOLDER~1\AppData\Local\Temp\ccdovRCu.s 			page 10


 349 0184 8327C4FC 		lw	a5,-52(s0)
 350 0188 DC43     		lw	a5,4(a5)
 351 018a 2322F4FE 		sw	a5,-28(s0)
 147:Drivers/src/ch32v20x_gpio.c **** 
 148:Drivers/src/ch32v20x_gpio.c ****         for(pinpos = 0x00; pinpos < 0x08; pinpos++)
 352              		.loc 1 148 20
 353 018e 232404FE 		sw	zero,-24(s0)
 354              		.loc 1 148 9
 355 0192 6DA8     		j	.L19
 356              	.L22:
 149:Drivers/src/ch32v20x_gpio.c ****         {
 150:Drivers/src/ch32v20x_gpio.c ****             pos = (((uint32_t)0x01) << (pinpos + 0x08));
 357              		.loc 1 150 48
 358 0194 832784FE 		lw	a5,-24(s0)
 359 0198 A107     		addi	a5,a5,8
 360              		.loc 1 150 17
 361 019a 0547     		li	a4,1
 362 019c B317F700 		sll	a5,a4,a5
 363 01a0 232EF4FC 		sw	a5,-36(s0)
 151:Drivers/src/ch32v20x_gpio.c ****             currentpin = ((GPIO_InitStruct->GPIO_Pin) & pos);
 364              		.loc 1 151 43
 365 01a4 832784FC 		lw	a5,-56(s0)
 366 01a8 9E23     		lhu	a5,0(a5)
 367 01aa 3E87     		mv	a4,a5
 368              		.loc 1 151 24
 369 01ac 8327C4FD 		lw	a5,-36(s0)
 370 01b0 F98F     		and	a5,a5,a4
 371 01b2 2320F4FE 		sw	a5,-32(s0)
 152:Drivers/src/ch32v20x_gpio.c **** 
 153:Drivers/src/ch32v20x_gpio.c ****             if(currentpin == pos)
 372              		.loc 1 153 15
 373 01b6 032704FE 		lw	a4,-32(s0)
 374 01ba 8327C4FD 		lw	a5,-36(s0)
 375 01be 6312F708 		bne	a4,a5,.L20
 154:Drivers/src/ch32v20x_gpio.c ****             {
 155:Drivers/src/ch32v20x_gpio.c ****                 pos = pinpos << 2;
 376              		.loc 1 155 21
 377 01c2 832784FE 		lw	a5,-24(s0)
 378 01c6 8A07     		slli	a5,a5,2
 379 01c8 232EF4FC 		sw	a5,-36(s0)
 156:Drivers/src/ch32v20x_gpio.c ****                 pinmask = ((uint32_t)0x0F) << pos;
 380              		.loc 1 156 25
 381 01cc 8327C4FD 		lw	a5,-36(s0)
 382 01d0 3D47     		li	a4,15
 383 01d2 B317F700 		sll	a5,a4,a5
 384 01d6 232CF4FC 		sw	a5,-40(s0)
 157:Drivers/src/ch32v20x_gpio.c ****                 tmpreg &= ~pinmask;
 385              		.loc 1 157 27
 386 01da 832784FD 		lw	a5,-40(s0)
 387 01de 93C7F7FF 		not	a5,a5
 388              		.loc 1 157 24
 389 01e2 032744FE 		lw	a4,-28(s0)
 390 01e6 F98F     		and	a5,a4,a5
 391 01e8 2322F4FE 		sw	a5,-28(s0)
 158:Drivers/src/ch32v20x_gpio.c ****                 tmpreg |= (currentmode << pos);
 392              		.loc 1 158 40
 393 01ec 8327C4FD 		lw	a5,-36(s0)
GAS LISTING C:\Users\SOLDER~1\AppData\Local\Temp\ccdovRCu.s 			page 11


 394 01f0 0327C4FE 		lw	a4,-20(s0)
 395 01f4 B317F700 		sll	a5,a4,a5
 396              		.loc 1 158 24
 397 01f8 032744FE 		lw	a4,-28(s0)
 398 01fc D98F     		or	a5,a4,a5
 399 01fe 2322F4FE 		sw	a5,-28(s0)
 159:Drivers/src/ch32v20x_gpio.c **** 
 160:Drivers/src/ch32v20x_gpio.c ****                 if(GPIO_InitStruct->GPIO_Mode == GPIO_Mode_IPD)
 400              		.loc 1 160 35
 401 0202 832784FC 		lw	a5,-56(s0)
 402 0206 9847     		lw	a4,8(a5)
 403              		.loc 1 160 19
 404 0208 93078002 		li	a5,40
 405 020c 631BF700 		bne	a4,a5,.L21
 161:Drivers/src/ch32v20x_gpio.c ****                 {
 162:Drivers/src/ch32v20x_gpio.c ****                     GPIOx->BCR = (((uint32_t)0x01) << (pinpos + 0x08));
 406              		.loc 1 162 63
 407 0210 832784FE 		lw	a5,-24(s0)
 408 0214 A107     		addi	a5,a5,8
 409              		.loc 1 162 52
 410 0216 0547     		li	a4,1
 411 0218 3317F700 		sll	a4,a4,a5
 412              		.loc 1 162 32
 413 021c 8327C4FC 		lw	a5,-52(s0)
 414 0220 D8CB     		sw	a4,20(a5)
 415              	.L21:
 163:Drivers/src/ch32v20x_gpio.c ****                 }
 164:Drivers/src/ch32v20x_gpio.c **** 
 165:Drivers/src/ch32v20x_gpio.c ****                 if(GPIO_InitStruct->GPIO_Mode == GPIO_Mode_IPU)
 416              		.loc 1 165 35
 417 0222 832784FC 		lw	a5,-56(s0)
 418 0226 9847     		lw	a4,8(a5)
 419              		.loc 1 165 19
 420 0228 93078004 		li	a5,72
 421 022c 631BF700 		bne	a4,a5,.L20
 166:Drivers/src/ch32v20x_gpio.c ****                 {
 167:Drivers/src/ch32v20x_gpio.c ****                     GPIOx->BSHR = (((uint32_t)0x01) << (pinpos + 0x08));
 422              		.loc 1 167 64
 423 0230 832784FE 		lw	a5,-24(s0)
 424 0234 A107     		addi	a5,a5,8
 425              		.loc 1 167 53
 426 0236 0547     		li	a4,1
 427 0238 3317F700 		sll	a4,a4,a5
 428              		.loc 1 167 33
 429 023c 8327C4FC 		lw	a5,-52(s0)
 430 0240 98CB     		sw	a4,16(a5)
 431              	.L20:
 148:Drivers/src/ch32v20x_gpio.c ****         {
 432              		.loc 1 148 49 discriminator 2
 433 0242 832784FE 		lw	a5,-24(s0)
 434 0246 8507     		addi	a5,a5,1
 435 0248 2324F4FE 		sw	a5,-24(s0)
 436              	.L19:
 148:Drivers/src/ch32v20x_gpio.c ****         {
 437              		.loc 1 148 35 discriminator 1
 438 024c 032784FE 		lw	a4,-24(s0)
 439 0250 9D47     		li	a5,7
GAS LISTING C:\Users\SOLDER~1\AppData\Local\Temp\ccdovRCu.s 			page 12


 440 0252 E3F1E7F4 		bleu	a4,a5,.L22
 168:Drivers/src/ch32v20x_gpio.c ****                 }
 169:Drivers/src/ch32v20x_gpio.c ****             }
 170:Drivers/src/ch32v20x_gpio.c ****         }
 171:Drivers/src/ch32v20x_gpio.c ****         GPIOx->CFGHR = tmpreg;
 441              		.loc 1 171 22
 442 0256 8327C4FC 		lw	a5,-52(s0)
 443 025a 032744FE 		lw	a4,-28(s0)
 444 025e D8C3     		sw	a4,4(a5)
 445              	.L23:
 172:Drivers/src/ch32v20x_gpio.c ****     }
 173:Drivers/src/ch32v20x_gpio.c **** }
 446              		.loc 1 173 1
 447 0260 0100     		nop
 448 0262 7254     		lw	s0,60(sp)
 449              		.cfi_restore 8
 450              		.cfi_def_cfa 2, 64
 451 0264 2161     		addi	sp,sp,64
 452              		.cfi_def_cfa_offset 0
 453 0266 8280     		jr	ra
 454              		.cfi_endproc
 455              	.LFE18:
 457              		.section	.text.GPIO_StructInit,"ax",@progbits
 458              		.align	1
 459              		.globl	GPIO_StructInit
 461              	GPIO_StructInit:
 462              	.LFB19:
 174:Drivers/src/ch32v20x_gpio.c **** 
 175:Drivers/src/ch32v20x_gpio.c **** /*********************************************************************
 176:Drivers/src/ch32v20x_gpio.c ****  * @fn      GPIO_StructInit
 177:Drivers/src/ch32v20x_gpio.c ****  *
 178:Drivers/src/ch32v20x_gpio.c ****  * @brief   Fills each GPIO_InitStruct member with its default
 179:Drivers/src/ch32v20x_gpio.c ****  *
 180:Drivers/src/ch32v20x_gpio.c ****  * @param   GPIO_InitStruct - pointer to a GPIO_InitTypeDef structure
 181:Drivers/src/ch32v20x_gpio.c ****  *      which will be initialized.
 182:Drivers/src/ch32v20x_gpio.c ****  *
 183:Drivers/src/ch32v20x_gpio.c ****  * @return  none
 184:Drivers/src/ch32v20x_gpio.c ****  */
 185:Drivers/src/ch32v20x_gpio.c **** void GPIO_StructInit(GPIO_InitTypeDef *GPIO_InitStruct)
 186:Drivers/src/ch32v20x_gpio.c **** {
 463              		.loc 1 186 1
 464              		.cfi_startproc
 465 0000 0111     		addi	sp,sp,-32
 466              		.cfi_def_cfa_offset 32
 467 0002 22CE     		sw	s0,28(sp)
 468              		.cfi_offset 8, -4
 469 0004 0010     		addi	s0,sp,32
 470              		.cfi_def_cfa 8, 0
 471 0006 2326A4FE 		sw	a0,-20(s0)
 187:Drivers/src/ch32v20x_gpio.c ****     GPIO_InitStruct->GPIO_Pin = GPIO_Pin_All;
 472              		.loc 1 187 31
 473 000a 8327C4FE 		lw	a5,-20(s0)
 474 000e 7D57     		li	a4,-1
 475 0010 9AA3     		sh	a4,0(a5)
 188:Drivers/src/ch32v20x_gpio.c ****     GPIO_InitStruct->GPIO_Speed = GPIO_Speed_2MHz;
 476              		.loc 1 188 33
 477 0012 8327C4FE 		lw	a5,-20(s0)
GAS LISTING C:\Users\SOLDER~1\AppData\Local\Temp\ccdovRCu.s 			page 13


 478 0016 0947     		li	a4,2
 479 0018 D8C3     		sw	a4,4(a5)
 189:Drivers/src/ch32v20x_gpio.c ****     GPIO_InitStruct->GPIO_Mode = GPIO_Mode_IN_FLOATING;
 480              		.loc 1 189 32
 481 001a 8327C4FE 		lw	a5,-20(s0)
 482 001e 1147     		li	a4,4
 483 0020 98C7     		sw	a4,8(a5)
 190:Drivers/src/ch32v20x_gpio.c **** }
 484              		.loc 1 190 1
 485 0022 0100     		nop
 486 0024 7244     		lw	s0,28(sp)
 487              		.cfi_restore 8
 488              		.cfi_def_cfa 2, 32
 489 0026 0561     		addi	sp,sp,32
 490              		.cfi_def_cfa_offset 0
 491 0028 8280     		jr	ra
 492              		.cfi_endproc
 493              	.LFE19:
 495              		.section	.text.GPIO_ReadInputDataBit,"ax",@progbits
 496              		.align	1
 497              		.globl	GPIO_ReadInputDataBit
 499              	GPIO_ReadInputDataBit:
 500              	.LFB20:
 191:Drivers/src/ch32v20x_gpio.c **** 
 192:Drivers/src/ch32v20x_gpio.c **** /*********************************************************************
 193:Drivers/src/ch32v20x_gpio.c ****  * @fn      GPIO_ReadInputDataBit
 194:Drivers/src/ch32v20x_gpio.c ****  *
 195:Drivers/src/ch32v20x_gpio.c ****  * @brief   GPIOx - where x can be (A..G) to select the GPIO peripheral.
 196:Drivers/src/ch32v20x_gpio.c ****  *
 197:Drivers/src/ch32v20x_gpio.c ****  * @param    GPIO_Pin - specifies the port bit to read.
 198:Drivers/src/ch32v20x_gpio.c ****  *             This parameter can be GPIO_Pin_x where x can be (0..15).
 199:Drivers/src/ch32v20x_gpio.c ****  *
 200:Drivers/src/ch32v20x_gpio.c ****  * @return  The input port pin value.
 201:Drivers/src/ch32v20x_gpio.c ****  */
 202:Drivers/src/ch32v20x_gpio.c **** uint8_t GPIO_ReadInputDataBit(GPIO_TypeDef *GPIOx, uint16_t GPIO_Pin)
 203:Drivers/src/ch32v20x_gpio.c **** {
 501              		.loc 1 203 1
 502              		.cfi_startproc
 503 0000 7971     		addi	sp,sp,-48
 504              		.cfi_def_cfa_offset 48
 505 0002 22D6     		sw	s0,44(sp)
 506              		.cfi_offset 8, -4
 507 0004 0018     		addi	s0,sp,48
 508              		.cfi_def_cfa 8, 0
 509 0006 232EA4FC 		sw	a0,-36(s0)
 510 000a AE87     		mv	a5,a1
 511 000c 231DF4FC 		sh	a5,-38(s0)
 204:Drivers/src/ch32v20x_gpio.c ****     uint8_t bitstatus = 0x00;
 512              		.loc 1 204 13
 513 0010 A30704FE 		sb	zero,-17(s0)
 205:Drivers/src/ch32v20x_gpio.c **** 
 206:Drivers/src/ch32v20x_gpio.c **** #if defined (CH32V20x_D6)
 207:Drivers/src/ch32v20x_gpio.c ****     if((GPIOx == GPIOC) && MCU_Version){
 514              		.loc 1 207 7
 515 0014 0327C4FD 		lw	a4,-36(s0)
 516 0018 B7170140 		li	a5,1073811456
 517 001c 631CF700 		bne	a4,a5,.L26
GAS LISTING C:\Users\SOLDER~1\AppData\Local\Temp\ccdovRCu.s 			page 14


 518              		.loc 1 207 25 discriminator 1
 519 0020 B7070000 		lui	a5,%hi(MCU_Version)
 520 0024 83C70700 		lbu	a5,%lo(MCU_Version)(a5)
 521 0028 91C7     		beq	a5,zero,.L26
 208:Drivers/src/ch32v20x_gpio.c ****         GPIO_Pin = GPIO_Pin >> 13;
 522              		.loc 1 208 18
 523 002a 8357A4FD 		lhu	a5,-38(s0)
 524 002e B583     		srli	a5,a5,13
 525 0030 231DF4FC 		sh	a5,-38(s0)
 526              	.L26:
 209:Drivers/src/ch32v20x_gpio.c ****     }
 210:Drivers/src/ch32v20x_gpio.c **** 
 211:Drivers/src/ch32v20x_gpio.c **** #endif
 212:Drivers/src/ch32v20x_gpio.c **** 
 213:Drivers/src/ch32v20x_gpio.c ****     if((GPIOx->INDR & GPIO_Pin) != (uint32_t)Bit_RESET)
 527              		.loc 1 213 14
 528 0034 8327C4FD 		lw	a5,-36(s0)
 529 0038 9847     		lw	a4,8(a5)
 530              		.loc 1 213 21
 531 003a 8357A4FD 		lhu	a5,-38(s0)
 532 003e F98F     		and	a5,a4,a5
 533              		.loc 1 213 7
 534 0040 89C7     		beq	a5,zero,.L27
 214:Drivers/src/ch32v20x_gpio.c ****     {
 215:Drivers/src/ch32v20x_gpio.c ****         bitstatus = (uint8_t)Bit_SET;
 535              		.loc 1 215 19
 536 0042 8547     		li	a5,1
 537 0044 A307F4FE 		sb	a5,-17(s0)
 538 0048 19A0     		j	.L28
 539              	.L27:
 216:Drivers/src/ch32v20x_gpio.c ****     }
 217:Drivers/src/ch32v20x_gpio.c ****     else
 218:Drivers/src/ch32v20x_gpio.c ****     {
 219:Drivers/src/ch32v20x_gpio.c ****         bitstatus = (uint8_t)Bit_RESET;
 540              		.loc 1 219 19
 541 004a A30704FE 		sb	zero,-17(s0)
 542              	.L28:
 220:Drivers/src/ch32v20x_gpio.c ****     }
 221:Drivers/src/ch32v20x_gpio.c **** 
 222:Drivers/src/ch32v20x_gpio.c ****     return bitstatus;
 543              		.loc 1 222 12
 544 004e 8347F4FE 		lbu	a5,-17(s0)
 223:Drivers/src/ch32v20x_gpio.c **** }
 545              		.loc 1 223 1
 546 0052 3E85     		mv	a0,a5
 547 0054 3254     		lw	s0,44(sp)
 548              		.cfi_restore 8
 549              		.cfi_def_cfa 2, 48
 550 0056 4561     		addi	sp,sp,48
 551              		.cfi_def_cfa_offset 0
 552 0058 8280     		jr	ra
 553              		.cfi_endproc
 554              	.LFE20:
 556              		.section	.text.GPIO_ReadInputData,"ax",@progbits
 557              		.align	1
 558              		.globl	GPIO_ReadInputData
 560              	GPIO_ReadInputData:
GAS LISTING C:\Users\SOLDER~1\AppData\Local\Temp\ccdovRCu.s 			page 15


 561              	.LFB21:
 224:Drivers/src/ch32v20x_gpio.c **** 
 225:Drivers/src/ch32v20x_gpio.c **** /*********************************************************************
 226:Drivers/src/ch32v20x_gpio.c ****  * @fn      GPIO_ReadInputData
 227:Drivers/src/ch32v20x_gpio.c ****  *
 228:Drivers/src/ch32v20x_gpio.c ****  * @brief   Reads the specified GPIO input data port.
 229:Drivers/src/ch32v20x_gpio.c ****  *
 230:Drivers/src/ch32v20x_gpio.c ****  * @param   GPIOx - where x can be (A..G) to select the GPIO peripheral.
 231:Drivers/src/ch32v20x_gpio.c ****  *
 232:Drivers/src/ch32v20x_gpio.c ****  * @return  The output port pin value.
 233:Drivers/src/ch32v20x_gpio.c ****  */
 234:Drivers/src/ch32v20x_gpio.c **** uint16_t GPIO_ReadInputData(GPIO_TypeDef *GPIOx)
 235:Drivers/src/ch32v20x_gpio.c **** {
 562              		.loc 1 235 1
 563              		.cfi_startproc
 564 0000 7971     		addi	sp,sp,-48
 565              		.cfi_def_cfa_offset 48
 566 0002 22D6     		sw	s0,44(sp)
 567              		.cfi_offset 8, -4
 568 0004 0018     		addi	s0,sp,48
 569              		.cfi_def_cfa 8, 0
 570 0006 232EA4FC 		sw	a0,-36(s0)
 236:Drivers/src/ch32v20x_gpio.c ****     uint16_t val;
 237:Drivers/src/ch32v20x_gpio.c **** 
 238:Drivers/src/ch32v20x_gpio.c **** #if defined (CH32V20x_D6)
 239:Drivers/src/ch32v20x_gpio.c ****     if((GPIOx == GPIOC) && MCU_Version){
 571              		.loc 1 239 7
 572 000a 0327C4FD 		lw	a4,-36(s0)
 573 000e B7170140 		li	a5,1073811456
 574 0012 6310F702 		bne	a4,a5,.L31
 575              		.loc 1 239 25 discriminator 1
 576 0016 B7070000 		lui	a5,%hi(MCU_Version)
 577 001a 83C70700 		lbu	a5,%lo(MCU_Version)(a5)
 578 001e 91CB     		beq	a5,zero,.L31
 240:Drivers/src/ch32v20x_gpio.c ****         val = ( uint16_t )(GPIOx->INDR << 13);
 579              		.loc 1 240 33
 580 0020 8327C4FD 		lw	a5,-36(s0)
 581 0024 9C47     		lw	a5,8(a5)
 582              		.loc 1 240 15
 583 0026 C207     		slli	a5,a5,16
 584 0028 C183     		srli	a5,a5,16
 585              		.loc 1 240 13
 586 002a B607     		slli	a5,a5,13
 587 002c 2317F4FE 		sh	a5,-18(s0)
 588 0030 31A0     		j	.L32
 589              	.L31:
 241:Drivers/src/ch32v20x_gpio.c ****     }
 242:Drivers/src/ch32v20x_gpio.c ****     else{
 243:Drivers/src/ch32v20x_gpio.c ****         val = ( uint16_t )GPIOx->INDR;
 590              		.loc 1 243 32
 591 0032 8327C4FD 		lw	a5,-36(s0)
 592 0036 9C47     		lw	a5,8(a5)
 593              		.loc 1 243 13
 594 0038 2317F4FE 		sh	a5,-18(s0)
 595              	.L32:
 244:Drivers/src/ch32v20x_gpio.c ****     }
 245:Drivers/src/ch32v20x_gpio.c **** 
GAS LISTING C:\Users\SOLDER~1\AppData\Local\Temp\ccdovRCu.s 			page 16


 246:Drivers/src/ch32v20x_gpio.c **** #else
 247:Drivers/src/ch32v20x_gpio.c ****     val = ( uint16_t )GPIOx->INDR;
 248:Drivers/src/ch32v20x_gpio.c **** #endif
 249:Drivers/src/ch32v20x_gpio.c **** 
 250:Drivers/src/ch32v20x_gpio.c **** return ( val );
 596              		.loc 1 250 8
 597 003c 8357E4FE 		lhu	a5,-18(s0)
 251:Drivers/src/ch32v20x_gpio.c **** }
 598              		.loc 1 251 1
 599 0040 3E85     		mv	a0,a5
 600 0042 3254     		lw	s0,44(sp)
 601              		.cfi_restore 8
 602              		.cfi_def_cfa 2, 48
 603 0044 4561     		addi	sp,sp,48
 604              		.cfi_def_cfa_offset 0
 605 0046 8280     		jr	ra
 606              		.cfi_endproc
 607              	.LFE21:
 609              		.section	.text.GPIO_ReadOutputDataBit,"ax",@progbits
 610              		.align	1
 611              		.globl	GPIO_ReadOutputDataBit
 613              	GPIO_ReadOutputDataBit:
 614              	.LFB22:
 252:Drivers/src/ch32v20x_gpio.c **** 
 253:Drivers/src/ch32v20x_gpio.c **** /*********************************************************************
 254:Drivers/src/ch32v20x_gpio.c ****  * @fn      GPIO_ReadOutputDataBit
 255:Drivers/src/ch32v20x_gpio.c ****  *
 256:Drivers/src/ch32v20x_gpio.c ****  * @brief   Reads the specified output data port bit.
 257:Drivers/src/ch32v20x_gpio.c ****  *
 258:Drivers/src/ch32v20x_gpio.c ****  * @param   GPIOx - where x can be (A..G) to select the GPIO peripheral.
 259:Drivers/src/ch32v20x_gpio.c ****  *          GPIO_Pin - specifies the port bit to read.
 260:Drivers/src/ch32v20x_gpio.c ****  *            This parameter can be GPIO_Pin_x where x can be (0..15).
 261:Drivers/src/ch32v20x_gpio.c ****  *
 262:Drivers/src/ch32v20x_gpio.c ****  * @return  none
 263:Drivers/src/ch32v20x_gpio.c ****  */
 264:Drivers/src/ch32v20x_gpio.c **** uint8_t GPIO_ReadOutputDataBit(GPIO_TypeDef *GPIOx, uint16_t GPIO_Pin)
 265:Drivers/src/ch32v20x_gpio.c **** {
 615              		.loc 1 265 1
 616              		.cfi_startproc
 617 0000 7971     		addi	sp,sp,-48
 618              		.cfi_def_cfa_offset 48
 619 0002 22D6     		sw	s0,44(sp)
 620              		.cfi_offset 8, -4
 621 0004 0018     		addi	s0,sp,48
 622              		.cfi_def_cfa 8, 0
 623 0006 232EA4FC 		sw	a0,-36(s0)
 624 000a AE87     		mv	a5,a1
 625 000c 231DF4FC 		sh	a5,-38(s0)
 266:Drivers/src/ch32v20x_gpio.c ****     uint8_t bitstatus = 0x00;
 626              		.loc 1 266 13
 627 0010 A30704FE 		sb	zero,-17(s0)
 267:Drivers/src/ch32v20x_gpio.c **** 
 268:Drivers/src/ch32v20x_gpio.c **** #if defined (CH32V20x_D6)
 269:Drivers/src/ch32v20x_gpio.c ****     if((GPIOx == GPIOC) && MCU_Version){
 628              		.loc 1 269 7
 629 0014 0327C4FD 		lw	a4,-36(s0)
 630 0018 B7170140 		li	a5,1073811456
GAS LISTING C:\Users\SOLDER~1\AppData\Local\Temp\ccdovRCu.s 			page 17


 631 001c 631CF700 		bne	a4,a5,.L35
 632              		.loc 1 269 25 discriminator 1
 633 0020 B7070000 		lui	a5,%hi(MCU_Version)
 634 0024 83C70700 		lbu	a5,%lo(MCU_Version)(a5)
 635 0028 91C7     		beq	a5,zero,.L35
 270:Drivers/src/ch32v20x_gpio.c ****         GPIO_Pin = GPIO_Pin >> 13;
 636              		.loc 1 270 18
 637 002a 8357A4FD 		lhu	a5,-38(s0)
 638 002e B583     		srli	a5,a5,13
 639 0030 231DF4FC 		sh	a5,-38(s0)
 640              	.L35:
 271:Drivers/src/ch32v20x_gpio.c ****     }
 272:Drivers/src/ch32v20x_gpio.c **** 
 273:Drivers/src/ch32v20x_gpio.c **** #endif
 274:Drivers/src/ch32v20x_gpio.c **** 
 275:Drivers/src/ch32v20x_gpio.c ****     if((GPIOx->OUTDR & GPIO_Pin) != (uint32_t)Bit_RESET)
 641              		.loc 1 275 14
 642 0034 8327C4FD 		lw	a5,-36(s0)
 643 0038 D847     		lw	a4,12(a5)
 644              		.loc 1 275 22
 645 003a 8357A4FD 		lhu	a5,-38(s0)
 646 003e F98F     		and	a5,a4,a5
 647              		.loc 1 275 7
 648 0040 89C7     		beq	a5,zero,.L36
 276:Drivers/src/ch32v20x_gpio.c ****     {
 277:Drivers/src/ch32v20x_gpio.c ****         bitstatus = (uint8_t)Bit_SET;
 649              		.loc 1 277 19
 650 0042 8547     		li	a5,1
 651 0044 A307F4FE 		sb	a5,-17(s0)
 652 0048 19A0     		j	.L37
 653              	.L36:
 278:Drivers/src/ch32v20x_gpio.c ****     }
 279:Drivers/src/ch32v20x_gpio.c ****     else
 280:Drivers/src/ch32v20x_gpio.c ****     {
 281:Drivers/src/ch32v20x_gpio.c ****         bitstatus = (uint8_t)Bit_RESET;
 654              		.loc 1 281 19
 655 004a A30704FE 		sb	zero,-17(s0)
 656              	.L37:
 282:Drivers/src/ch32v20x_gpio.c ****     }
 283:Drivers/src/ch32v20x_gpio.c **** 
 284:Drivers/src/ch32v20x_gpio.c ****     return bitstatus;
 657              		.loc 1 284 12
 658 004e 8347F4FE 		lbu	a5,-17(s0)
 285:Drivers/src/ch32v20x_gpio.c **** }
 659              		.loc 1 285 1
 660 0052 3E85     		mv	a0,a5
 661 0054 3254     		lw	s0,44(sp)
 662              		.cfi_restore 8
 663              		.cfi_def_cfa 2, 48
 664 0056 4561     		addi	sp,sp,48
 665              		.cfi_def_cfa_offset 0
 666 0058 8280     		jr	ra
 667              		.cfi_endproc
 668              	.LFE22:
 670              		.section	.text.GPIO_ReadOutputData,"ax",@progbits
 671              		.align	1
 672              		.globl	GPIO_ReadOutputData
GAS LISTING C:\Users\SOLDER~1\AppData\Local\Temp\ccdovRCu.s 			page 18


 674              	GPIO_ReadOutputData:
 675              	.LFB23:
 286:Drivers/src/ch32v20x_gpio.c **** 
 287:Drivers/src/ch32v20x_gpio.c **** /*********************************************************************
 288:Drivers/src/ch32v20x_gpio.c ****  * @fn      GPIO_ReadOutputData
 289:Drivers/src/ch32v20x_gpio.c ****  *
 290:Drivers/src/ch32v20x_gpio.c ****  * @brief   Reads the specified GPIO output data port.
 291:Drivers/src/ch32v20x_gpio.c ****  *
 292:Drivers/src/ch32v20x_gpio.c ****  * @param   GPIOx - where x can be (A..G) to select the GPIO peripheral.
 293:Drivers/src/ch32v20x_gpio.c ****  *
 294:Drivers/src/ch32v20x_gpio.c ****  * @return  GPIO output port pin value.
 295:Drivers/src/ch32v20x_gpio.c ****  */
 296:Drivers/src/ch32v20x_gpio.c **** uint16_t GPIO_ReadOutputData(GPIO_TypeDef *GPIOx)
 297:Drivers/src/ch32v20x_gpio.c **** {
 676              		.loc 1 297 1
 677              		.cfi_startproc
 678 0000 7971     		addi	sp,sp,-48
 679              		.cfi_def_cfa_offset 48
 680 0002 22D6     		sw	s0,44(sp)
 681              		.cfi_offset 8, -4
 682 0004 0018     		addi	s0,sp,48
 683              		.cfi_def_cfa 8, 0
 684 0006 232EA4FC 		sw	a0,-36(s0)
 298:Drivers/src/ch32v20x_gpio.c ****     uint16_t val;
 299:Drivers/src/ch32v20x_gpio.c **** 
 300:Drivers/src/ch32v20x_gpio.c **** #if defined (CH32V20x_D6)
 301:Drivers/src/ch32v20x_gpio.c ****     if((GPIOx == GPIOC) && MCU_Version){
 685              		.loc 1 301 7
 686 000a 0327C4FD 		lw	a4,-36(s0)
 687 000e B7170140 		li	a5,1073811456
 688 0012 6310F702 		bne	a4,a5,.L40
 689              		.loc 1 301 25 discriminator 1
 690 0016 B7070000 		lui	a5,%hi(MCU_Version)
 691 001a 83C70700 		lbu	a5,%lo(MCU_Version)(a5)
 692 001e 91CB     		beq	a5,zero,.L40
 302:Drivers/src/ch32v20x_gpio.c ****         val = ( uint16_t )(GPIOx->OUTDR << 13);
 693              		.loc 1 302 33
 694 0020 8327C4FD 		lw	a5,-36(s0)
 695 0024 DC47     		lw	a5,12(a5)
 696              		.loc 1 302 15
 697 0026 C207     		slli	a5,a5,16
 698 0028 C183     		srli	a5,a5,16
 699              		.loc 1 302 13
 700 002a B607     		slli	a5,a5,13
 701 002c 2317F4FE 		sh	a5,-18(s0)
 702 0030 31A0     		j	.L41
 703              	.L40:
 303:Drivers/src/ch32v20x_gpio.c ****     }
 304:Drivers/src/ch32v20x_gpio.c ****     else{
 305:Drivers/src/ch32v20x_gpio.c ****         val = ( uint16_t )GPIOx->OUTDR;
 704              		.loc 1 305 32
 705 0032 8327C4FD 		lw	a5,-36(s0)
 706 0036 DC47     		lw	a5,12(a5)
 707              		.loc 1 305 13
 708 0038 2317F4FE 		sh	a5,-18(s0)
 709              	.L41:
 306:Drivers/src/ch32v20x_gpio.c ****     }
GAS LISTING C:\Users\SOLDER~1\AppData\Local\Temp\ccdovRCu.s 			page 19


 307:Drivers/src/ch32v20x_gpio.c **** 
 308:Drivers/src/ch32v20x_gpio.c **** #else
 309:Drivers/src/ch32v20x_gpio.c ****     val = ( uint16_t )GPIOx->OUTDR;
 310:Drivers/src/ch32v20x_gpio.c **** #endif
 311:Drivers/src/ch32v20x_gpio.c **** 
 312:Drivers/src/ch32v20x_gpio.c ****     return ( val );
 710              		.loc 1 312 12
 711 003c 8357E4FE 		lhu	a5,-18(s0)
 313:Drivers/src/ch32v20x_gpio.c **** }
 712              		.loc 1 313 1
 713 0040 3E85     		mv	a0,a5
 714 0042 3254     		lw	s0,44(sp)
 715              		.cfi_restore 8
 716              		.cfi_def_cfa 2, 48
 717 0044 4561     		addi	sp,sp,48
 718              		.cfi_def_cfa_offset 0
 719 0046 8280     		jr	ra
 720              		.cfi_endproc
 721              	.LFE23:
 723              		.section	.text.GPIO_SetBits,"ax",@progbits
 724              		.align	1
 725              		.globl	GPIO_SetBits
 727              	GPIO_SetBits:
 728              	.LFB24:
 314:Drivers/src/ch32v20x_gpio.c **** 
 315:Drivers/src/ch32v20x_gpio.c **** /*********************************************************************
 316:Drivers/src/ch32v20x_gpio.c ****  * @fn      GPIO_SetBits
 317:Drivers/src/ch32v20x_gpio.c ****  *
 318:Drivers/src/ch32v20x_gpio.c ****  * @brief   Sets the selected data port bits.
 319:Drivers/src/ch32v20x_gpio.c ****  *
 320:Drivers/src/ch32v20x_gpio.c ****  * @param   GPIOx - where x can be (A..G) to select the GPIO peripheral.
 321:Drivers/src/ch32v20x_gpio.c ****  *          GPIO_Pin - specifies the port bits to be written.
 322:Drivers/src/ch32v20x_gpio.c ****  *            This parameter can be any combination of GPIO_Pin_x where x can be (0..15).
 323:Drivers/src/ch32v20x_gpio.c ****  *
 324:Drivers/src/ch32v20x_gpio.c ****  * @return  none
 325:Drivers/src/ch32v20x_gpio.c ****  */
 326:Drivers/src/ch32v20x_gpio.c **** void GPIO_SetBits(GPIO_TypeDef *GPIOx, uint16_t GPIO_Pin)
 327:Drivers/src/ch32v20x_gpio.c **** {
 729              		.loc 1 327 1
 730              		.cfi_startproc
 731 0000 0111     		addi	sp,sp,-32
 732              		.cfi_def_cfa_offset 32
 733 0002 22CE     		sw	s0,28(sp)
 734              		.cfi_offset 8, -4
 735 0004 0010     		addi	s0,sp,32
 736              		.cfi_def_cfa 8, 0
 737 0006 2326A4FE 		sw	a0,-20(s0)
 738 000a AE87     		mv	a5,a1
 739 000c 2315F4FE 		sh	a5,-22(s0)
 328:Drivers/src/ch32v20x_gpio.c **** #if defined (CH32V20x_D6)
 329:Drivers/src/ch32v20x_gpio.c ****     if((GPIOx == GPIOC) && MCU_Version){
 740              		.loc 1 329 7
 741 0010 0327C4FE 		lw	a4,-20(s0)
 742 0014 B7170140 		li	a5,1073811456
 743 0018 631CF700 		bne	a4,a5,.L44
 744              		.loc 1 329 25 discriminator 1
 745 001c B7070000 		lui	a5,%hi(MCU_Version)
GAS LISTING C:\Users\SOLDER~1\AppData\Local\Temp\ccdovRCu.s 			page 20


 746 0020 83C70700 		lbu	a5,%lo(MCU_Version)(a5)
 747 0024 91C7     		beq	a5,zero,.L44
 330:Drivers/src/ch32v20x_gpio.c ****         GPIO_Pin = GPIO_Pin >> 13;
 748              		.loc 1 330 18
 749 0026 8357A4FE 		lhu	a5,-22(s0)
 750 002a B583     		srli	a5,a5,13
 751 002c 2315F4FE 		sh	a5,-22(s0)
 752              	.L44:
 331:Drivers/src/ch32v20x_gpio.c ****     }
 332:Drivers/src/ch32v20x_gpio.c **** 
 333:Drivers/src/ch32v20x_gpio.c **** #endif
 334:Drivers/src/ch32v20x_gpio.c **** 
 335:Drivers/src/ch32v20x_gpio.c ****     GPIOx->BSHR = GPIO_Pin;
 753              		.loc 1 335 17
 754 0030 0357A4FE 		lhu	a4,-22(s0)
 755 0034 8327C4FE 		lw	a5,-20(s0)
 756 0038 98CB     		sw	a4,16(a5)
 336:Drivers/src/ch32v20x_gpio.c **** }
 757              		.loc 1 336 1
 758 003a 0100     		nop
 759 003c 7244     		lw	s0,28(sp)
 760              		.cfi_restore 8
 761              		.cfi_def_cfa 2, 32
 762 003e 0561     		addi	sp,sp,32
 763              		.cfi_def_cfa_offset 0
 764 0040 8280     		jr	ra
 765              		.cfi_endproc
 766              	.LFE24:
 768              		.section	.text.GPIO_ResetBits,"ax",@progbits
 769              		.align	1
 770              		.globl	GPIO_ResetBits
 772              	GPIO_ResetBits:
 773              	.LFB25:
 337:Drivers/src/ch32v20x_gpio.c **** 
 338:Drivers/src/ch32v20x_gpio.c **** /*********************************************************************
 339:Drivers/src/ch32v20x_gpio.c ****  * @fn      GPIO_ResetBits
 340:Drivers/src/ch32v20x_gpio.c ****  *
 341:Drivers/src/ch32v20x_gpio.c ****  * @brief   Clears the selected data port bits.
 342:Drivers/src/ch32v20x_gpio.c ****  *
 343:Drivers/src/ch32v20x_gpio.c ****  * @param   GPIOx - where x can be (A..G) to select the GPIO peripheral.
 344:Drivers/src/ch32v20x_gpio.c ****  *          GPIO_Pin - specifies the port bits to be written.
 345:Drivers/src/ch32v20x_gpio.c ****  *            This parameter can be any combination of GPIO_Pin_x where x can be (0..15).
 346:Drivers/src/ch32v20x_gpio.c ****  *
 347:Drivers/src/ch32v20x_gpio.c ****  * @return  none
 348:Drivers/src/ch32v20x_gpio.c ****  */
 349:Drivers/src/ch32v20x_gpio.c **** void GPIO_ResetBits(GPIO_TypeDef *GPIOx, uint16_t GPIO_Pin)
 350:Drivers/src/ch32v20x_gpio.c **** {
 774              		.loc 1 350 1
 775              		.cfi_startproc
 776 0000 0111     		addi	sp,sp,-32
 777              		.cfi_def_cfa_offset 32
 778 0002 22CE     		sw	s0,28(sp)
 779              		.cfi_offset 8, -4
 780 0004 0010     		addi	s0,sp,32
 781              		.cfi_def_cfa 8, 0
 782 0006 2326A4FE 		sw	a0,-20(s0)
 783 000a AE87     		mv	a5,a1
GAS LISTING C:\Users\SOLDER~1\AppData\Local\Temp\ccdovRCu.s 			page 21


 784 000c 2315F4FE 		sh	a5,-22(s0)
 351:Drivers/src/ch32v20x_gpio.c **** #if defined (CH32V20x_D6)
 352:Drivers/src/ch32v20x_gpio.c ****     if((GPIOx == GPIOC) && MCU_Version){
 785              		.loc 1 352 7
 786 0010 0327C4FE 		lw	a4,-20(s0)
 787 0014 B7170140 		li	a5,1073811456
 788 0018 631CF700 		bne	a4,a5,.L46
 789              		.loc 1 352 25 discriminator 1
 790 001c B7070000 		lui	a5,%hi(MCU_Version)
 791 0020 83C70700 		lbu	a5,%lo(MCU_Version)(a5)
 792 0024 91C7     		beq	a5,zero,.L46
 353:Drivers/src/ch32v20x_gpio.c ****         GPIO_Pin = GPIO_Pin >> 13;
 793              		.loc 1 353 18
 794 0026 8357A4FE 		lhu	a5,-22(s0)
 795 002a B583     		srli	a5,a5,13
 796 002c 2315F4FE 		sh	a5,-22(s0)
 797              	.L46:
 354:Drivers/src/ch32v20x_gpio.c ****     }
 355:Drivers/src/ch32v20x_gpio.c **** 
 356:Drivers/src/ch32v20x_gpio.c **** #endif
 357:Drivers/src/ch32v20x_gpio.c **** 
 358:Drivers/src/ch32v20x_gpio.c ****     GPIOx->BCR = GPIO_Pin;
 798              		.loc 1 358 16
 799 0030 0357A4FE 		lhu	a4,-22(s0)
 800 0034 8327C4FE 		lw	a5,-20(s0)
 801 0038 D8CB     		sw	a4,20(a5)
 359:Drivers/src/ch32v20x_gpio.c **** }
 802              		.loc 1 359 1
 803 003a 0100     		nop
 804 003c 7244     		lw	s0,28(sp)
 805              		.cfi_restore 8
 806              		.cfi_def_cfa 2, 32
 807 003e 0561     		addi	sp,sp,32
 808              		.cfi_def_cfa_offset 0
 809 0040 8280     		jr	ra
 810              		.cfi_endproc
 811              	.LFE25:
 813              		.section	.text.GPIO_WriteBit,"ax",@progbits
 814              		.align	1
 815              		.globl	GPIO_WriteBit
 817              	GPIO_WriteBit:
 818              	.LFB26:
 360:Drivers/src/ch32v20x_gpio.c **** 
 361:Drivers/src/ch32v20x_gpio.c **** /*********************************************************************
 362:Drivers/src/ch32v20x_gpio.c ****  * @fn      GPIO_WriteBit
 363:Drivers/src/ch32v20x_gpio.c ****  *
 364:Drivers/src/ch32v20x_gpio.c ****  * @brief   Sets or clears the selected data port bit.
 365:Drivers/src/ch32v20x_gpio.c ****  *
 366:Drivers/src/ch32v20x_gpio.c ****  * @param   GPIO_Pin - specifies the port bit to be written.
 367:Drivers/src/ch32v20x_gpio.c ****  *            This parameter can be one of GPIO_Pin_x where x can be (0..15).
 368:Drivers/src/ch32v20x_gpio.c ****  *          BitVal - specifies the value to be written to the selected bit.
 369:Drivers/src/ch32v20x_gpio.c ****  *            Bit_SetL - to clear the port pin.
 370:Drivers/src/ch32v20x_gpio.c ****  *            Bit_SetH - to set the port pin.
 371:Drivers/src/ch32v20x_gpio.c ****  *
 372:Drivers/src/ch32v20x_gpio.c ****  * @return  none
 373:Drivers/src/ch32v20x_gpio.c ****  */
 374:Drivers/src/ch32v20x_gpio.c **** void GPIO_WriteBit(GPIO_TypeDef *GPIOx, uint16_t GPIO_Pin, BitAction BitVal)
GAS LISTING C:\Users\SOLDER~1\AppData\Local\Temp\ccdovRCu.s 			page 22


 375:Drivers/src/ch32v20x_gpio.c **** {
 819              		.loc 1 375 1
 820              		.cfi_startproc
 821 0000 0111     		addi	sp,sp,-32
 822              		.cfi_def_cfa_offset 32
 823 0002 22CE     		sw	s0,28(sp)
 824              		.cfi_offset 8, -4
 825 0004 0010     		addi	s0,sp,32
 826              		.cfi_def_cfa 8, 0
 827 0006 2326A4FE 		sw	a0,-20(s0)
 828 000a AE87     		mv	a5,a1
 829 000c 2322C4FE 		sw	a2,-28(s0)
 830 0010 2315F4FE 		sh	a5,-22(s0)
 376:Drivers/src/ch32v20x_gpio.c **** #if defined (CH32V20x_D6)
 377:Drivers/src/ch32v20x_gpio.c ****     if((GPIOx == GPIOC) && MCU_Version){
 831              		.loc 1 377 7
 832 0014 0327C4FE 		lw	a4,-20(s0)
 833 0018 B7170140 		li	a5,1073811456
 834 001c 631CF700 		bne	a4,a5,.L48
 835              		.loc 1 377 25 discriminator 1
 836 0020 B7070000 		lui	a5,%hi(MCU_Version)
 837 0024 83C70700 		lbu	a5,%lo(MCU_Version)(a5)
 838 0028 91C7     		beq	a5,zero,.L48
 378:Drivers/src/ch32v20x_gpio.c ****         GPIO_Pin = GPIO_Pin >> 13;
 839              		.loc 1 378 18
 840 002a 8357A4FE 		lhu	a5,-22(s0)
 841 002e B583     		srli	a5,a5,13
 842 0030 2315F4FE 		sh	a5,-22(s0)
 843              	.L48:
 379:Drivers/src/ch32v20x_gpio.c ****     }
 380:Drivers/src/ch32v20x_gpio.c **** 
 381:Drivers/src/ch32v20x_gpio.c **** #endif
 382:Drivers/src/ch32v20x_gpio.c **** 
 383:Drivers/src/ch32v20x_gpio.c ****     if(BitVal != Bit_RESET)
 844              		.loc 1 383 7
 845 0034 832744FE 		lw	a5,-28(s0)
 846 0038 99C7     		beq	a5,zero,.L49
 384:Drivers/src/ch32v20x_gpio.c ****     {
 385:Drivers/src/ch32v20x_gpio.c ****         GPIOx->BSHR = GPIO_Pin;
 847              		.loc 1 385 21
 848 003a 0357A4FE 		lhu	a4,-22(s0)
 849 003e 8327C4FE 		lw	a5,-20(s0)
 850 0042 98CB     		sw	a4,16(a5)
 386:Drivers/src/ch32v20x_gpio.c ****     }
 387:Drivers/src/ch32v20x_gpio.c ****     else
 388:Drivers/src/ch32v20x_gpio.c ****     {
 389:Drivers/src/ch32v20x_gpio.c ****         GPIOx->BCR = GPIO_Pin;
 390:Drivers/src/ch32v20x_gpio.c ****     }
 391:Drivers/src/ch32v20x_gpio.c **** }
 851              		.loc 1 391 1
 852 0044 31A0     		j	.L51
 853              	.L49:
 389:Drivers/src/ch32v20x_gpio.c ****     }
 854              		.loc 1 389 20
 855 0046 0357A4FE 		lhu	a4,-22(s0)
 856 004a 8327C4FE 		lw	a5,-20(s0)
 857 004e D8CB     		sw	a4,20(a5)
GAS LISTING C:\Users\SOLDER~1\AppData\Local\Temp\ccdovRCu.s 			page 23


 858              	.L51:
 859              		.loc 1 391 1
 860 0050 0100     		nop
 861 0052 7244     		lw	s0,28(sp)
 862              		.cfi_restore 8
 863              		.cfi_def_cfa 2, 32
 864 0054 0561     		addi	sp,sp,32
 865              		.cfi_def_cfa_offset 0
 866 0056 8280     		jr	ra
 867              		.cfi_endproc
 868              	.LFE26:
 870              		.section	.text.GPIO_Write,"ax",@progbits
 871              		.align	1
 872              		.globl	GPIO_Write
 874              	GPIO_Write:
 875              	.LFB27:
 392:Drivers/src/ch32v20x_gpio.c **** 
 393:Drivers/src/ch32v20x_gpio.c **** /*********************************************************************
 394:Drivers/src/ch32v20x_gpio.c ****  * @fn      GPIO_Write
 395:Drivers/src/ch32v20x_gpio.c ****  *
 396:Drivers/src/ch32v20x_gpio.c ****  * @brief   Writes data to the specified GPIO data port.
 397:Drivers/src/ch32v20x_gpio.c ****  *
 398:Drivers/src/ch32v20x_gpio.c ****  * @param   GPIOx - where x can be (A..G) to select the GPIO peripheral.
 399:Drivers/src/ch32v20x_gpio.c ****  *          PortVal - specifies the value to be written to the port output data register.
 400:Drivers/src/ch32v20x_gpio.c ****  *
 401:Drivers/src/ch32v20x_gpio.c ****  * @return  none
 402:Drivers/src/ch32v20x_gpio.c ****  */
 403:Drivers/src/ch32v20x_gpio.c **** void GPIO_Write(GPIO_TypeDef *GPIOx, uint16_t PortVal)
 404:Drivers/src/ch32v20x_gpio.c **** {
 876              		.loc 1 404 1
 877              		.cfi_startproc
 878 0000 0111     		addi	sp,sp,-32
 879              		.cfi_def_cfa_offset 32
 880 0002 22CE     		sw	s0,28(sp)
 881              		.cfi_offset 8, -4
 882 0004 0010     		addi	s0,sp,32
 883              		.cfi_def_cfa 8, 0
 884 0006 2326A4FE 		sw	a0,-20(s0)
 885 000a AE87     		mv	a5,a1
 886 000c 2315F4FE 		sh	a5,-22(s0)
 405:Drivers/src/ch32v20x_gpio.c **** #if defined (CH32V20x_D6)
 406:Drivers/src/ch32v20x_gpio.c ****     if((GPIOx == GPIOC) && MCU_Version){
 887              		.loc 1 406 7
 888 0010 0327C4FE 		lw	a4,-20(s0)
 889 0014 B7170140 		li	a5,1073811456
 890 0018 631CF700 		bne	a4,a5,.L53
 891              		.loc 1 406 25 discriminator 1
 892 001c B7070000 		lui	a5,%hi(MCU_Version)
 893 0020 83C70700 		lbu	a5,%lo(MCU_Version)(a5)
 894 0024 91C7     		beq	a5,zero,.L53
 407:Drivers/src/ch32v20x_gpio.c ****         PortVal = PortVal >> 13;
 895              		.loc 1 407 17
 896 0026 8357A4FE 		lhu	a5,-22(s0)
 897 002a B583     		srli	a5,a5,13
 898 002c 2315F4FE 		sh	a5,-22(s0)
 899              	.L53:
 408:Drivers/src/ch32v20x_gpio.c ****     }
GAS LISTING C:\Users\SOLDER~1\AppData\Local\Temp\ccdovRCu.s 			page 24


 409:Drivers/src/ch32v20x_gpio.c **** 
 410:Drivers/src/ch32v20x_gpio.c **** #endif
 411:Drivers/src/ch32v20x_gpio.c **** 
 412:Drivers/src/ch32v20x_gpio.c ****     GPIOx->OUTDR = PortVal;
 900              		.loc 1 412 18
 901 0030 0357A4FE 		lhu	a4,-22(s0)
 902 0034 8327C4FE 		lw	a5,-20(s0)
 903 0038 D8C7     		sw	a4,12(a5)
 413:Drivers/src/ch32v20x_gpio.c **** }
 904              		.loc 1 413 1
 905 003a 0100     		nop
 906 003c 7244     		lw	s0,28(sp)
 907              		.cfi_restore 8
 908              		.cfi_def_cfa 2, 32
 909 003e 0561     		addi	sp,sp,32
 910              		.cfi_def_cfa_offset 0
 911 0040 8280     		jr	ra
 912              		.cfi_endproc
 913              	.LFE27:
 915              		.section	.text.GPIO_PinLockConfig,"ax",@progbits
 916              		.align	1
 917              		.globl	GPIO_PinLockConfig
 919              	GPIO_PinLockConfig:
 920              	.LFB28:
 414:Drivers/src/ch32v20x_gpio.c **** 
 415:Drivers/src/ch32v20x_gpio.c **** /*********************************************************************
 416:Drivers/src/ch32v20x_gpio.c ****  * @fn      GPIO_PinLockConfig
 417:Drivers/src/ch32v20x_gpio.c ****  *
 418:Drivers/src/ch32v20x_gpio.c ****  * @brief   Locks GPIO Pins configuration registers.
 419:Drivers/src/ch32v20x_gpio.c ****  *
 420:Drivers/src/ch32v20x_gpio.c ****  * @param   GPIOx - where x can be (A..G) to select the GPIO peripheral.
 421:Drivers/src/ch32v20x_gpio.c ****  *          GPIO_Pin - specifies the port bit to be written.
 422:Drivers/src/ch32v20x_gpio.c ****  *            This parameter can be any combination of GPIO_Pin_x where x can be (0..15).
 423:Drivers/src/ch32v20x_gpio.c ****  *
 424:Drivers/src/ch32v20x_gpio.c ****  * @return  none
 425:Drivers/src/ch32v20x_gpio.c ****  */
 426:Drivers/src/ch32v20x_gpio.c **** void GPIO_PinLockConfig(GPIO_TypeDef *GPIOx, uint16_t GPIO_Pin)
 427:Drivers/src/ch32v20x_gpio.c **** {
 921              		.loc 1 427 1
 922              		.cfi_startproc
 923 0000 7971     		addi	sp,sp,-48
 924              		.cfi_def_cfa_offset 48
 925 0002 22D6     		sw	s0,44(sp)
 926              		.cfi_offset 8, -4
 927 0004 0018     		addi	s0,sp,48
 928              		.cfi_def_cfa 8, 0
 929 0006 232EA4FC 		sw	a0,-36(s0)
 930 000a AE87     		mv	a5,a1
 931 000c 231DF4FC 		sh	a5,-38(s0)
 428:Drivers/src/ch32v20x_gpio.c ****     uint32_t tmp = 0x00010000;
 932              		.loc 1 428 14
 933 0010 C167     		li	a5,65536
 934 0012 2326F4FE 		sw	a5,-20(s0)
 429:Drivers/src/ch32v20x_gpio.c **** 
 430:Drivers/src/ch32v20x_gpio.c **** #if defined (CH32V20x_D6)
 431:Drivers/src/ch32v20x_gpio.c ****     if((GPIOx == GPIOC) && MCU_Version){
 935              		.loc 1 431 7
GAS LISTING C:\Users\SOLDER~1\AppData\Local\Temp\ccdovRCu.s 			page 25


 936 0016 0327C4FD 		lw	a4,-36(s0)
 937 001a B7170140 		li	a5,1073811456
 938 001e 631CF700 		bne	a4,a5,.L55
 939              		.loc 1 431 25 discriminator 1
 940 0022 B7070000 		lui	a5,%hi(MCU_Version)
 941 0026 83C70700 		lbu	a5,%lo(MCU_Version)(a5)
 942 002a 91C7     		beq	a5,zero,.L55
 432:Drivers/src/ch32v20x_gpio.c ****         GPIO_Pin = GPIO_Pin >> 13;
 943              		.loc 1 432 18
 944 002c 8357A4FD 		lhu	a5,-38(s0)
 945 0030 B583     		srli	a5,a5,13
 946 0032 231DF4FC 		sh	a5,-38(s0)
 947              	.L55:
 433:Drivers/src/ch32v20x_gpio.c ****     }
 434:Drivers/src/ch32v20x_gpio.c **** 
 435:Drivers/src/ch32v20x_gpio.c **** #endif
 436:Drivers/src/ch32v20x_gpio.c **** 
 437:Drivers/src/ch32v20x_gpio.c ****     tmp |= GPIO_Pin;
 948              		.loc 1 437 9
 949 0036 8357A4FD 		lhu	a5,-38(s0)
 950 003a 0327C4FE 		lw	a4,-20(s0)
 951 003e D98F     		or	a5,a4,a5
 952 0040 2326F4FE 		sw	a5,-20(s0)
 438:Drivers/src/ch32v20x_gpio.c ****     GPIOx->LCKR = tmp;
 953              		.loc 1 438 17
 954 0044 8327C4FD 		lw	a5,-36(s0)
 955 0048 0327C4FE 		lw	a4,-20(s0)
 956 004c 98CF     		sw	a4,24(a5)
 439:Drivers/src/ch32v20x_gpio.c ****     GPIOx->LCKR = GPIO_Pin;
 957              		.loc 1 439 17
 958 004e 0357A4FD 		lhu	a4,-38(s0)
 959 0052 8327C4FD 		lw	a5,-36(s0)
 960 0056 98CF     		sw	a4,24(a5)
 440:Drivers/src/ch32v20x_gpio.c ****     GPIOx->LCKR = tmp;
 961              		.loc 1 440 17
 962 0058 8327C4FD 		lw	a5,-36(s0)
 963 005c 0327C4FE 		lw	a4,-20(s0)
 964 0060 98CF     		sw	a4,24(a5)
 441:Drivers/src/ch32v20x_gpio.c ****     tmp = GPIOx->LCKR;
 965              		.loc 1 441 9
 966 0062 8327C4FD 		lw	a5,-36(s0)
 967 0066 9C4F     		lw	a5,24(a5)
 968 0068 2326F4FE 		sw	a5,-20(s0)
 442:Drivers/src/ch32v20x_gpio.c ****     tmp = GPIOx->LCKR;
 969              		.loc 1 442 9
 970 006c 8327C4FD 		lw	a5,-36(s0)
 971 0070 9C4F     		lw	a5,24(a5)
 972 0072 2326F4FE 		sw	a5,-20(s0)
 443:Drivers/src/ch32v20x_gpio.c **** }
 973              		.loc 1 443 1
 974 0076 0100     		nop
 975 0078 3254     		lw	s0,44(sp)
 976              		.cfi_restore 8
 977              		.cfi_def_cfa 2, 48
 978 007a 4561     		addi	sp,sp,48
 979              		.cfi_def_cfa_offset 0
 980 007c 8280     		jr	ra
GAS LISTING C:\Users\SOLDER~1\AppData\Local\Temp\ccdovRCu.s 			page 26


 981              		.cfi_endproc
 982              	.LFE28:
 984              		.section	.text.GPIO_EventOutputConfig,"ax",@progbits
 985              		.align	1
 986              		.globl	GPIO_EventOutputConfig
 988              	GPIO_EventOutputConfig:
 989              	.LFB29:
 444:Drivers/src/ch32v20x_gpio.c **** 
 445:Drivers/src/ch32v20x_gpio.c **** /*********************************************************************
 446:Drivers/src/ch32v20x_gpio.c ****  * @fn      GPIO_EventOutputConfig
 447:Drivers/src/ch32v20x_gpio.c ****  *
 448:Drivers/src/ch32v20x_gpio.c ****  * @brief   Selects the GPIO pin used as Event output.
 449:Drivers/src/ch32v20x_gpio.c ****  *
 450:Drivers/src/ch32v20x_gpio.c ****  * @param   GPIO_PortSource - selects the GPIO port to be used as source
 451:Drivers/src/ch32v20x_gpio.c ****  *        for Event output.
 452:Drivers/src/ch32v20x_gpio.c ****  *            This parameter can be GPIO_PortSourceGPIOx where x can be (A..E).
 453:Drivers/src/ch32v20x_gpio.c ****  *          GPIO_PinSource - specifies the pin for the Event output.
 454:Drivers/src/ch32v20x_gpio.c ****  *            This parameter can be GPIO_PinSourcex where x can be (0..15).
 455:Drivers/src/ch32v20x_gpio.c ****  *
 456:Drivers/src/ch32v20x_gpio.c ****  * @return  none
 457:Drivers/src/ch32v20x_gpio.c ****  */
 458:Drivers/src/ch32v20x_gpio.c **** void GPIO_EventOutputConfig(uint8_t GPIO_PortSource, uint8_t GPIO_PinSource)
 459:Drivers/src/ch32v20x_gpio.c **** {
 990              		.loc 1 459 1
 991              		.cfi_startproc
 992 0000 7971     		addi	sp,sp,-48
 993              		.cfi_def_cfa_offset 48
 994 0002 22D6     		sw	s0,44(sp)
 995              		.cfi_offset 8, -4
 996 0004 0018     		addi	s0,sp,48
 997              		.cfi_def_cfa 8, 0
 998 0006 AA87     		mv	a5,a0
 999 0008 2E87     		mv	a4,a1
 1000 000a A30FF4FC 		sb	a5,-33(s0)
 1001 000e BA87     		mv	a5,a4
 1002 0010 230FF4FC 		sb	a5,-34(s0)
 460:Drivers/src/ch32v20x_gpio.c ****     uint32_t tmpreg = 0x00;
 1003              		.loc 1 460 14
 1004 0014 232604FE 		sw	zero,-20(s0)
 461:Drivers/src/ch32v20x_gpio.c **** 
 462:Drivers/src/ch32v20x_gpio.c ****     tmpreg = AFIO->ECR;
 1005              		.loc 1 462 18
 1006 0018 B7070140 		li	a5,1073807360
 1007              		.loc 1 462 12
 1008 001c 9C43     		lw	a5,0(a5)
 1009 001e 2326F4FE 		sw	a5,-20(s0)
 463:Drivers/src/ch32v20x_gpio.c ****     tmpreg &= ECR_PORTPINCONFIG_MASK;
 1010              		.loc 1 463 12
 1011 0022 0327C4FE 		lw	a4,-20(s0)
 1012 0026 C167     		li	a5,65536
 1013 0028 938707F8 		addi	a5,a5,-128
 1014 002c F98F     		and	a5,a4,a5
 1015 002e 2326F4FE 		sw	a5,-20(s0)
 464:Drivers/src/ch32v20x_gpio.c ****     tmpreg |= (uint32_t)GPIO_PortSource << 0x04;
 1016              		.loc 1 464 15
 1017 0032 8347F4FD 		lbu	a5,-33(s0)
 1018              		.loc 1 464 41
GAS LISTING C:\Users\SOLDER~1\AppData\Local\Temp\ccdovRCu.s 			page 27


 1019 0036 9207     		slli	a5,a5,4
 1020              		.loc 1 464 12
 1021 0038 0327C4FE 		lw	a4,-20(s0)
 1022 003c D98F     		or	a5,a4,a5
 1023 003e 2326F4FE 		sw	a5,-20(s0)
 465:Drivers/src/ch32v20x_gpio.c ****     tmpreg |= GPIO_PinSource;
 1024              		.loc 1 465 12
 1025 0042 8347E4FD 		lbu	a5,-34(s0)
 1026 0046 0327C4FE 		lw	a4,-20(s0)
 1027 004a D98F     		or	a5,a4,a5
 1028 004c 2326F4FE 		sw	a5,-20(s0)
 466:Drivers/src/ch32v20x_gpio.c ****     AFIO->ECR = tmpreg;
 1029              		.loc 1 466 9
 1030 0050 B7070140 		li	a5,1073807360
 1031              		.loc 1 466 15
 1032 0054 0327C4FE 		lw	a4,-20(s0)
 1033 0058 98C3     		sw	a4,0(a5)
 467:Drivers/src/ch32v20x_gpio.c **** }
 1034              		.loc 1 467 1
 1035 005a 0100     		nop
 1036 005c 3254     		lw	s0,44(sp)
 1037              		.cfi_restore 8
 1038              		.cfi_def_cfa 2, 48
 1039 005e 4561     		addi	sp,sp,48
 1040              		.cfi_def_cfa_offset 0
 1041 0060 8280     		jr	ra
 1042              		.cfi_endproc
 1043              	.LFE29:
 1045              		.section	.text.GPIO_EventOutputCmd,"ax",@progbits
 1046              		.align	1
 1047              		.globl	GPIO_EventOutputCmd
 1049              	GPIO_EventOutputCmd:
 1050              	.LFB30:
 468:Drivers/src/ch32v20x_gpio.c **** 
 469:Drivers/src/ch32v20x_gpio.c **** /*********************************************************************
 470:Drivers/src/ch32v20x_gpio.c ****  * @fn      GPIO_EventOutputCmd
 471:Drivers/src/ch32v20x_gpio.c ****  *
 472:Drivers/src/ch32v20x_gpio.c ****  * @brief   Enables or disables the Event Output.
 473:Drivers/src/ch32v20x_gpio.c ****  *
 474:Drivers/src/ch32v20x_gpio.c ****  * @param   NewState - ENABLE or DISABLE.
 475:Drivers/src/ch32v20x_gpio.c ****  *
 476:Drivers/src/ch32v20x_gpio.c ****  * @return  none
 477:Drivers/src/ch32v20x_gpio.c ****  */
 478:Drivers/src/ch32v20x_gpio.c **** void GPIO_EventOutputCmd(FunctionalState NewState)
 479:Drivers/src/ch32v20x_gpio.c **** {
 1051              		.loc 1 479 1
 1052              		.cfi_startproc
 1053 0000 0111     		addi	sp,sp,-32
 1054              		.cfi_def_cfa_offset 32
 1055 0002 22CE     		sw	s0,28(sp)
 1056              		.cfi_offset 8, -4
 1057 0004 0010     		addi	s0,sp,32
 1058              		.cfi_def_cfa 8, 0
 1059 0006 2326A4FE 		sw	a0,-20(s0)
 480:Drivers/src/ch32v20x_gpio.c ****     if(NewState)
 1060              		.loc 1 480 7
 1061 000a 8327C4FE 		lw	a5,-20(s0)
GAS LISTING C:\Users\SOLDER~1\AppData\Local\Temp\ccdovRCu.s 			page 28


 1062 000e 91CB     		beq	a5,zero,.L58
 481:Drivers/src/ch32v20x_gpio.c ****     {
 482:Drivers/src/ch32v20x_gpio.c ****         AFIO->ECR |= (1 << 7);
 1063              		.loc 1 482 13
 1064 0010 B7070140 		li	a5,1073807360
 1065 0014 9843     		lw	a4,0(a5)
 1066 0016 B7070140 		li	a5,1073807360
 1067              		.loc 1 482 19
 1068 001a 13670708 		ori	a4,a4,128
 1069 001e 98C3     		sw	a4,0(a5)
 483:Drivers/src/ch32v20x_gpio.c ****     }
 484:Drivers/src/ch32v20x_gpio.c ****     else
 485:Drivers/src/ch32v20x_gpio.c ****     {
 486:Drivers/src/ch32v20x_gpio.c ****         AFIO->ECR &= ~(1 << 7);
 487:Drivers/src/ch32v20x_gpio.c ****     }
 488:Drivers/src/ch32v20x_gpio.c **** }
 1070              		.loc 1 488 1
 1071 0020 09A8     		j	.L60
 1072              	.L58:
 486:Drivers/src/ch32v20x_gpio.c ****     }
 1073              		.loc 1 486 13
 1074 0022 B7070140 		li	a5,1073807360
 1075 0026 9843     		lw	a4,0(a5)
 1076 0028 B7070140 		li	a5,1073807360
 486:Drivers/src/ch32v20x_gpio.c ****     }
 1077              		.loc 1 486 19
 1078 002c 1377F7F7 		andi	a4,a4,-129
 1079 0030 98C3     		sw	a4,0(a5)
 1080              	.L60:
 1081              		.loc 1 488 1
 1082 0032 0100     		nop
 1083 0034 7244     		lw	s0,28(sp)
 1084              		.cfi_restore 8
 1085              		.cfi_def_cfa 2, 32
 1086 0036 0561     		addi	sp,sp,32
 1087              		.cfi_def_cfa_offset 0
 1088 0038 8280     		jr	ra
 1089              		.cfi_endproc
 1090              	.LFE30:
 1092              		.section	.text.GPIO_PinRemapConfig,"ax",@progbits
 1093              		.align	1
 1094              		.globl	GPIO_PinRemapConfig
 1096              	GPIO_PinRemapConfig:
 1097              	.LFB31:
 489:Drivers/src/ch32v20x_gpio.c **** 
 490:Drivers/src/ch32v20x_gpio.c **** /*********************************************************************
 491:Drivers/src/ch32v20x_gpio.c ****  * @fn      GPIO_PinRemapConfig
 492:Drivers/src/ch32v20x_gpio.c ****  *
 493:Drivers/src/ch32v20x_gpio.c ****  * @brief   Changes the mapping of the specified pin.
 494:Drivers/src/ch32v20x_gpio.c ****  *
 495:Drivers/src/ch32v20x_gpio.c ****  * @param   GPIO_Remap - selects the pin to remap.
 496:Drivers/src/ch32v20x_gpio.c ****  *            GPIO_Remap_SPI1 - SPI1 Alternate Function mapping
 497:Drivers/src/ch32v20x_gpio.c ****  *            GPIO_Remap_I2C1 - I2C1 Alternate Function mapping
 498:Drivers/src/ch32v20x_gpio.c ****  *            GPIO_Remap_USART1 - USART1 Alternate Function mapping
 499:Drivers/src/ch32v20x_gpio.c ****  *            GPIO_Remap_USART2 - USART2 Alternate Function mapping
 500:Drivers/src/ch32v20x_gpio.c ****  *            GPIO_PartialRemap_USART3 - USART3 Partial Alternate Function mapping
 501:Drivers/src/ch32v20x_gpio.c ****  *            GPIO_FullRemap_USART3 - USART3 Full Alternate Function mapping
GAS LISTING C:\Users\SOLDER~1\AppData\Local\Temp\ccdovRCu.s 			page 29


 502:Drivers/src/ch32v20x_gpio.c ****  *            GPIO_PartialRemap_TIM1 - TIM1 Partial Alternate Function mapping
 503:Drivers/src/ch32v20x_gpio.c ****  *            GPIO_FullRemap_TIM1 - TIM1 Full Alternate Function mapping
 504:Drivers/src/ch32v20x_gpio.c ****  *            GPIO_PartialRemap1_TIM2 - TIM2 Partial1 Alternate Function mapping
 505:Drivers/src/ch32v20x_gpio.c ****  *            GPIO_PartialRemap2_TIM2 - TIM2 Partial2 Alternate Function mapping
 506:Drivers/src/ch32v20x_gpio.c ****  *            GPIO_FullRemap_TIM2 - TIM2 Full Alternate Function mapping
 507:Drivers/src/ch32v20x_gpio.c ****  *            GPIO_PartialRemap_TIM3 - TIM3 Partial Alternate Function mapping
 508:Drivers/src/ch32v20x_gpio.c ****  *            GPIO_FullRemap_TIM3 - TIM3 Full Alternate Function mapping
 509:Drivers/src/ch32v20x_gpio.c ****  *            GPIO_Remap_TIM4 - TIM4 Alternate Function mapping
 510:Drivers/src/ch32v20x_gpio.c ****  *            GPIO_Remap1_CAN1 - CAN1 Alternate Function mapping
 511:Drivers/src/ch32v20x_gpio.c ****  *            GPIO_Remap2_CAN1 - CAN1 Alternate Function mapping
 512:Drivers/src/ch32v20x_gpio.c ****  *            GPIO_Remap_PD01 - PD01 Alternate Function mapping
 513:Drivers/src/ch32v20x_gpio.c ****  *            GPIO_Remap_ADC1_ETRGINJ - ADC1 External Trigger Injected Conversion remapping
 514:Drivers/src/ch32v20x_gpio.c ****  *            GPIO_Remap_ADC1_ETRGREG - ADC1 External Trigger Regular Conversion remapping
 515:Drivers/src/ch32v20x_gpio.c ****  *            GPIO_Remap_ADC2_ETRGINJ - ADC2 External Trigger Injected Conversion remapping
 516:Drivers/src/ch32v20x_gpio.c ****  *            GPIO_Remap_ADC2_ETRGREG - ADC2 External Trigger Regular Conversion remapping
 517:Drivers/src/ch32v20x_gpio.c ****  *            GPIO_Remap_ETH - Ethernet remapping
 518:Drivers/src/ch32v20x_gpio.c ****  *            GPIO_Remap_CAN2 - CAN2 remapping
 519:Drivers/src/ch32v20x_gpio.c ****  *            GPIO_Remap_MII_RMII_SEL - MII or RMII selection
 520:Drivers/src/ch32v20x_gpio.c ****  *            GPIO_Remap_SWJ_NoJTRST - Full SWJ Enabled (JTAG-DP + SW-DP) but without JTRST
 521:Drivers/src/ch32v20x_gpio.c ****  *            GPIO_Remap_SWJ_JTAGDisable - JTAG-DP Disabled and SW-DP Enabled
 522:Drivers/src/ch32v20x_gpio.c ****  *            GPIO_Remap_SWJ_Disable - Full SWJ Disabled (JTAG-DP + SW-DP)
 523:Drivers/src/ch32v20x_gpio.c ****  *            GPIO_Remap_TIM2ITR1_PTP_SOF - Ethernet PTP output or USB OTG SOF (Start of Frame) con
 524:Drivers/src/ch32v20x_gpio.c ****  *        to TIM2 Internal Trigger 1 for calibration
 525:Drivers/src/ch32v20x_gpio.c ****  *            GPIO_Remap_TIM2ITR1_PTP_SOF - Ethernet PTP output or USB OTG SOF (Start of Frame)
 526:Drivers/src/ch32v20x_gpio.c ****  *            GPIO_Remap_TIM8 - TIM8 Alternate Function mapping
 527:Drivers/src/ch32v20x_gpio.c ****  *            GPIO_PartialRemap_TIM9 - TIM9 Partial Alternate Function mapping
 528:Drivers/src/ch32v20x_gpio.c ****  *            GPIO_FullRemap_TIM9 - TIM9 Full Alternate Function mapping
 529:Drivers/src/ch32v20x_gpio.c ****  *            GPIO_PartialRemap_TIM10 - TIM10 Partial Alternate Function mapping
 530:Drivers/src/ch32v20x_gpio.c ****  *            GPIO_FullRemap_TIM10 - TIM10 Full Alternate Function mapping
 531:Drivers/src/ch32v20x_gpio.c ****  *            GPIO_Remap_FSMC_NADV - FSMC_NADV Alternate Function mapping
 532:Drivers/src/ch32v20x_gpio.c ****  *            GPIO_PartialRemap_USART4 - USART4 Partial Alternate Function mapping
 533:Drivers/src/ch32v20x_gpio.c ****  *            GPIO_FullRemap_USART4 - USART4 Full Alternate Function mapping
 534:Drivers/src/ch32v20x_gpio.c ****  *            GPIO_PartialRemap_USART5 - USART5 Partial Alternate Function mapping
 535:Drivers/src/ch32v20x_gpio.c ****  *            GPIO_FullRemap_USART5 - USART5 Full Alternate Function mapping
 536:Drivers/src/ch32v20x_gpio.c ****  *            GPIO_PartialRemap_USART6 - USART6 Partial Alternate Function mapping
 537:Drivers/src/ch32v20x_gpio.c ****  *            GPIO_FullRemap_USART6 - USART6 Full Alternate Function mapping
 538:Drivers/src/ch32v20x_gpio.c ****  *            GPIO_PartialRemap_USART7 - USART7 Partial Alternate Function mapping
 539:Drivers/src/ch32v20x_gpio.c ****  *            GPIO_FullRemap_USART7 - USART7 Full Alternate Function mapping
 540:Drivers/src/ch32v20x_gpio.c ****  *            GPIO_PartialRemap_USART8 - USART8 Partial Alternate Function mapping
 541:Drivers/src/ch32v20x_gpio.c ****  *            GPIO_FullRemap_USART8 - USART8 Full Alternate Function mapping
 542:Drivers/src/ch32v20x_gpio.c ****  *            GPIO_Remap_USART1_HighBit - USART1 Alternate Function mapping high bit
 543:Drivers/src/ch32v20x_gpio.c ****  *          NewState - ENABLE or DISABLE.
 544:Drivers/src/ch32v20x_gpio.c ****  *
 545:Drivers/src/ch32v20x_gpio.c ****  * @return  none
 546:Drivers/src/ch32v20x_gpio.c ****  */
 547:Drivers/src/ch32v20x_gpio.c **** void GPIO_PinRemapConfig(uint32_t GPIO_Remap, FunctionalState NewState)
 548:Drivers/src/ch32v20x_gpio.c **** {
 1098              		.loc 1 548 1
 1099              		.cfi_startproc
 1100 0000 7971     		addi	sp,sp,-48
 1101              		.cfi_def_cfa_offset 48
 1102 0002 22D6     		sw	s0,44(sp)
 1103              		.cfi_offset 8, -4
 1104 0004 0018     		addi	s0,sp,48
 1105              		.cfi_def_cfa 8, 0
 1106 0006 232EA4FC 		sw	a0,-36(s0)
 1107 000a 232CB4FC 		sw	a1,-40(s0)
GAS LISTING C:\Users\SOLDER~1\AppData\Local\Temp\ccdovRCu.s 			page 30


 549:Drivers/src/ch32v20x_gpio.c ****     uint32_t tmp = 0x00, tmp1 = 0x00, tmpreg = 0x00, tmpmask = 0x00;
 1108              		.loc 1 549 14
 1109 000e 232404FE 		sw	zero,-24(s0)
 1110              		.loc 1 549 26
 1111 0012 232204FE 		sw	zero,-28(s0)
 1112              		.loc 1 549 39
 1113 0016 232604FE 		sw	zero,-20(s0)
 1114              		.loc 1 549 54
 1115 001a 232004FE 		sw	zero,-32(s0)
 550:Drivers/src/ch32v20x_gpio.c **** 
 551:Drivers/src/ch32v20x_gpio.c ****     if((GPIO_Remap & 0x80000000) == 0x80000000)
 1116              		.loc 1 551 34
 1117 001e 8327C4FD 		lw	a5,-36(s0)
 1118              		.loc 1 551 7
 1119 0022 63D80700 		bge	a5,zero,.L62
 552:Drivers/src/ch32v20x_gpio.c ****     {
 553:Drivers/src/ch32v20x_gpio.c ****         tmpreg = AFIO->PCFR2;
 1120              		.loc 1 553 22
 1121 0026 B7070140 		li	a5,1073807360
 1122              		.loc 1 553 16
 1123 002a DC4F     		lw	a5,28(a5)
 1124 002c 2326F4FE 		sw	a5,-20(s0)
 1125 0030 2DA8     		j	.L63
 1126              	.L62:
 554:Drivers/src/ch32v20x_gpio.c ****     }
 555:Drivers/src/ch32v20x_gpio.c ****     else
 556:Drivers/src/ch32v20x_gpio.c ****     {
 557:Drivers/src/ch32v20x_gpio.c ****         tmpreg = AFIO->PCFR1;
 1127              		.loc 1 557 22
 1128 0032 B7070140 		li	a5,1073807360
 1129              		.loc 1 557 16
 1130 0036 DC43     		lw	a5,4(a5)
 1131 0038 2326F4FE 		sw	a5,-20(s0)
 558:Drivers/src/ch32v20x_gpio.c **** 
 559:Drivers/src/ch32v20x_gpio.c **** #if defined (CH32V20x_D6) || defined (CH32V20x_D8)
 560:Drivers/src/ch32v20x_gpio.c ****     if(((*(uint32_t *) 0x40022030) & 0x0F000000) == 0){
 1132              		.loc 1 560 10
 1133 003c B7270240 		li	a5,1073881088
 1134 0040 93870703 		addi	a5,a5,48
 1135 0044 9843     		lw	a4,0(a5)
 1136              		.loc 1 560 36
 1137 0046 B707000F 		li	a5,251658240
 1138 004a F98F     		and	a5,a4,a5
 1139              		.loc 1 560 7
 1140 004c 99EF     		bne	a5,zero,.L63
 561:Drivers/src/ch32v20x_gpio.c ****         tmpreg = ((tmpreg>>1)&0xFFFFE000)|(tmpreg&0x00001FFF);
 1141              		.loc 1 561 26
 1142 004e 8327C4FE 		lw	a5,-20(s0)
 1143 0052 13D71700 		srli	a4,a5,1
 1144              		.loc 1 561 30
 1145 0056 F977     		li	a5,-8192
 1146 0058 7D8F     		and	a4,a4,a5
 1147              		.loc 1 561 50
 1148 005a 8326C4FE 		lw	a3,-20(s0)
 1149 005e 8967     		li	a5,8192
 1150 0060 FD17     		addi	a5,a5,-1
 1151 0062 F58F     		and	a5,a3,a5
GAS LISTING C:\Users\SOLDER~1\AppData\Local\Temp\ccdovRCu.s 			page 31


 1152              		.loc 1 561 16
 1153 0064 D98F     		or	a5,a4,a5
 1154 0066 2326F4FE 		sw	a5,-20(s0)
 1155              	.L63:
 562:Drivers/src/ch32v20x_gpio.c ****     }
 563:Drivers/src/ch32v20x_gpio.c **** 
 564:Drivers/src/ch32v20x_gpio.c **** #endif
 565:Drivers/src/ch32v20x_gpio.c ****     }
 566:Drivers/src/ch32v20x_gpio.c **** 
 567:Drivers/src/ch32v20x_gpio.c ****     tmpmask = (GPIO_Remap & DBGAFR_POSITION_MASK) >> 0x10;
 1156              		.loc 1 567 51
 1157 006a 8327C4FD 		lw	a5,-36(s0)
 1158 006e C183     		srli	a5,a5,16
 1159              		.loc 1 567 13
 1160 0070 BD8B     		andi	a5,a5,15
 1161 0072 2320F4FE 		sw	a5,-32(s0)
 568:Drivers/src/ch32v20x_gpio.c ****     tmp = GPIO_Remap & LSB_MASK;
 1162              		.loc 1 568 9
 1163 0076 0327C4FD 		lw	a4,-36(s0)
 1164 007a C167     		li	a5,65536
 1165 007c FD17     		addi	a5,a5,-1
 1166 007e F98F     		and	a5,a4,a5
 1167 0080 2324F4FE 		sw	a5,-24(s0)
 569:Drivers/src/ch32v20x_gpio.c **** 
 570:Drivers/src/ch32v20x_gpio.c ****     /* Clear bit */
 571:Drivers/src/ch32v20x_gpio.c ****     if((GPIO_Remap & 0x80000000) == 0x80000000)
 1168              		.loc 1 571 34
 1169 0084 8327C4FD 		lw	a5,-36(s0)
 1170              		.loc 1 571 7
 1171 0088 63D40708 		bge	a5,zero,.L64
 572:Drivers/src/ch32v20x_gpio.c ****     {                                                                                              
 573:Drivers/src/ch32v20x_gpio.c ****         if((GPIO_Remap & (DBGAFR_LOCATION_MASK | DBGAFR_NUMBITS_MASK)) == (DBGAFR_LOCATION_MASK | D
 1172              		.loc 1 573 24
 1173 008c 0327C4FD 		lw	a4,-36(s0)
 1174 0090 B7073000 		li	a5,3145728
 1175 0094 7D8F     		and	a4,a4,a5
 1176              		.loc 1 573 11
 1177 0096 B7073000 		li	a5,3145728
 1178 009a 6314F702 		bne	a4,a5,.L65
 574:Drivers/src/ch32v20x_gpio.c ****         {
 575:Drivers/src/ch32v20x_gpio.c ****             tmp1 = ((uint32_t)0x03) << (tmpmask + 0x10);
 1179              		.loc 1 575 49
 1180 009e 832704FE 		lw	a5,-32(s0)
 1181 00a2 C107     		addi	a5,a5,16
 1182              		.loc 1 575 18
 1183 00a4 0D47     		li	a4,3
 1184 00a6 B317F700 		sll	a5,a4,a5
 1185 00aa 2322F4FE 		sw	a5,-28(s0)
 576:Drivers/src/ch32v20x_gpio.c ****             tmpreg &= ~tmp1;
 1186              		.loc 1 576 23
 1187 00ae 832744FE 		lw	a5,-28(s0)
 1188 00b2 93C7F7FF 		not	a5,a5
 1189              		.loc 1 576 20
 1190 00b6 0327C4FE 		lw	a4,-20(s0)
 1191 00ba F98F     		and	a5,a4,a5
 1192 00bc 2326F4FE 		sw	a5,-20(s0)
 1193 00c0 C5A8     		j	.L66
GAS LISTING C:\Users\SOLDER~1\AppData\Local\Temp\ccdovRCu.s 			page 32


 1194              	.L65:
 577:Drivers/src/ch32v20x_gpio.c ****         }
 578:Drivers/src/ch32v20x_gpio.c ****         else if((GPIO_Remap & DBGAFR_NUMBITS_MASK) == DBGAFR_NUMBITS_MASK) /* [15:0] 2bit */
 1195              		.loc 1 578 29
 1196 00c2 0327C4FD 		lw	a4,-36(s0)
 1197 00c6 B7071000 		li	a5,1048576
 1198 00ca F98F     		and	a5,a4,a5
 1199              		.loc 1 578 16
 1200 00cc 95C3     		beq	a5,zero,.L67
 579:Drivers/src/ch32v20x_gpio.c ****         {
 580:Drivers/src/ch32v20x_gpio.c ****             tmp1 = ((uint32_t)0x03) << tmpmask;
 1201              		.loc 1 580 18
 1202 00ce 832704FE 		lw	a5,-32(s0)
 1203 00d2 0D47     		li	a4,3
 1204 00d4 B317F700 		sll	a5,a4,a5
 1205 00d8 2322F4FE 		sw	a5,-28(s0)
 581:Drivers/src/ch32v20x_gpio.c ****             tmpreg &= ~tmp1;
 1206              		.loc 1 581 23
 1207 00dc 832744FE 		lw	a5,-28(s0)
 1208 00e0 93C7F7FF 		not	a5,a5
 1209              		.loc 1 581 20
 1210 00e4 0327C4FE 		lw	a4,-20(s0)
 1211 00e8 F98F     		and	a5,a4,a5
 1212 00ea 2326F4FE 		sw	a5,-20(s0)
 1213 00ee C9A0     		j	.L66
 1214              	.L67:
 582:Drivers/src/ch32v20x_gpio.c ****         }
 583:Drivers/src/ch32v20x_gpio.c ****         else /* [31:0] 1bit */
 584:Drivers/src/ch32v20x_gpio.c ****         {
 585:Drivers/src/ch32v20x_gpio.c ****             tmpreg &= ~(tmp << ((GPIO_Remap >> 0x15) * 0x10));
 1215              		.loc 1 585 45
 1216 00f0 8327C4FD 		lw	a5,-36(s0)
 1217 00f4 D583     		srli	a5,a5,21
 1218              		.loc 1 585 54
 1219 00f6 9207     		slli	a5,a5,4
 1220              		.loc 1 585 29
 1221 00f8 032784FE 		lw	a4,-24(s0)
 1222 00fc B317F700 		sll	a5,a4,a5
 1223              		.loc 1 585 23
 1224 0100 93C7F7FF 		not	a5,a5
 1225              		.loc 1 585 20
 1226 0104 0327C4FE 		lw	a4,-20(s0)
 1227 0108 F98F     		and	a5,a4,a5
 1228 010a 2326F4FE 		sw	a5,-20(s0)
 1229 010e 4DA0     		j	.L66
 1230              	.L64:
 586:Drivers/src/ch32v20x_gpio.c ****         }
 587:Drivers/src/ch32v20x_gpio.c ****     }
 588:Drivers/src/ch32v20x_gpio.c ****     else
 589:Drivers/src/ch32v20x_gpio.c ****     {                                                                                              
 590:Drivers/src/ch32v20x_gpio.c ****         if((GPIO_Remap & (DBGAFR_LOCATION_MASK | DBGAFR_NUMBITS_MASK)) == (DBGAFR_LOCATION_MASK | D
 1231              		.loc 1 590 24
 1232 0110 0327C4FD 		lw	a4,-36(s0)
 1233 0114 B7073000 		li	a5,3145728
 1234 0118 7D8F     		and	a4,a4,a5
 1235              		.loc 1 590 11
 1236 011a B7073000 		li	a5,3145728
GAS LISTING C:\Users\SOLDER~1\AppData\Local\Temp\ccdovRCu.s 			page 33


 1237 011e 6315F702 		bne	a4,a5,.L68
 591:Drivers/src/ch32v20x_gpio.c ****         {
 592:Drivers/src/ch32v20x_gpio.c ****             tmpreg &= DBGAFR_SWJCFG_MASK;
 1238              		.loc 1 592 20
 1239 0122 0327C4FE 		lw	a4,-20(s0)
 1240 0126 B70700F1 		li	a5,-251658240
 1241 012a FD17     		addi	a5,a5,-1
 1242 012c F98F     		and	a5,a4,a5
 1243 012e 2326F4FE 		sw	a5,-20(s0)
 593:Drivers/src/ch32v20x_gpio.c ****             AFIO->PCFR1 &= DBGAFR_SWJCFG_MASK;
 1244              		.loc 1 593 17
 1245 0132 B7070140 		li	a5,1073807360
 1246 0136 D443     		lw	a3,4(a5)
 1247 0138 B7070140 		li	a5,1073807360
 1248              		.loc 1 593 25
 1249 013c 370700F1 		li	a4,-251658240
 1250 0140 7D17     		addi	a4,a4,-1
 1251 0142 758F     		and	a4,a3,a4
 1252 0144 D8C3     		sw	a4,4(a5)
 1253 0146 ADA0     		j	.L66
 1254              	.L68:
 594:Drivers/src/ch32v20x_gpio.c ****         }
 595:Drivers/src/ch32v20x_gpio.c ****         else if((GPIO_Remap & DBGAFR_NUMBITS_MASK) == DBGAFR_NUMBITS_MASK) /* [15:0] 2bit */
 1255              		.loc 1 595 29
 1256 0148 0327C4FD 		lw	a4,-36(s0)
 1257 014c B7071000 		li	a5,1048576
 1258 0150 F98F     		and	a5,a4,a5
 1259              		.loc 1 595 16
 1260 0152 8DCB     		beq	a5,zero,.L69
 596:Drivers/src/ch32v20x_gpio.c ****         {
 597:Drivers/src/ch32v20x_gpio.c ****             tmp1 = ((uint32_t)0x03) << tmpmask;
 1261              		.loc 1 597 18
 1262 0154 832704FE 		lw	a5,-32(s0)
 1263 0158 0D47     		li	a4,3
 1264 015a B317F700 		sll	a5,a4,a5
 1265 015e 2322F4FE 		sw	a5,-28(s0)
 598:Drivers/src/ch32v20x_gpio.c ****             tmpreg &= ~tmp1;
 1266              		.loc 1 598 23
 1267 0162 832744FE 		lw	a5,-28(s0)
 1268 0166 93C7F7FF 		not	a5,a5
 1269              		.loc 1 598 20
 1270 016a 0327C4FE 		lw	a4,-20(s0)
 1271 016e F98F     		and	a5,a4,a5
 1272 0170 2326F4FE 		sw	a5,-20(s0)
 599:Drivers/src/ch32v20x_gpio.c ****             tmpreg |= ~DBGAFR_SWJCFG_MASK;
 1273              		.loc 1 599 20
 1274 0174 0327C4FE 		lw	a4,-20(s0)
 1275 0178 B707000F 		li	a5,251658240
 1276 017c D98F     		or	a5,a4,a5
 1277 017e 2326F4FE 		sw	a5,-20(s0)
 1278 0182 3DA0     		j	.L66
 1279              	.L69:
 600:Drivers/src/ch32v20x_gpio.c ****         }
 601:Drivers/src/ch32v20x_gpio.c ****         else /* [31:0] 1bit */
 602:Drivers/src/ch32v20x_gpio.c ****         {
 603:Drivers/src/ch32v20x_gpio.c ****             tmpreg &= ~(tmp << ((GPIO_Remap >> 0x15) * 0x10));
 1280              		.loc 1 603 45
GAS LISTING C:\Users\SOLDER~1\AppData\Local\Temp\ccdovRCu.s 			page 34


 1281 0184 8327C4FD 		lw	a5,-36(s0)
 1282 0188 D583     		srli	a5,a5,21
 1283              		.loc 1 603 54
 1284 018a 9207     		slli	a5,a5,4
 1285              		.loc 1 603 29
 1286 018c 032784FE 		lw	a4,-24(s0)
 1287 0190 B317F700 		sll	a5,a4,a5
 1288              		.loc 1 603 23
 1289 0194 93C7F7FF 		not	a5,a5
 1290              		.loc 1 603 20
 1291 0198 0327C4FE 		lw	a4,-20(s0)
 1292 019c F98F     		and	a5,a4,a5
 1293 019e 2326F4FE 		sw	a5,-20(s0)
 604:Drivers/src/ch32v20x_gpio.c ****             tmpreg |= ~DBGAFR_SWJCFG_MASK;
 1294              		.loc 1 604 20
 1295 01a2 0327C4FE 		lw	a4,-20(s0)
 1296 01a6 B707000F 		li	a5,251658240
 1297 01aa D98F     		or	a5,a4,a5
 1298 01ac 2326F4FE 		sw	a5,-20(s0)
 1299              	.L66:
 605:Drivers/src/ch32v20x_gpio.c ****         }
 606:Drivers/src/ch32v20x_gpio.c ****     }
 607:Drivers/src/ch32v20x_gpio.c **** 
 608:Drivers/src/ch32v20x_gpio.c ****     /* Set bit */
 609:Drivers/src/ch32v20x_gpio.c ****     if(NewState != DISABLE)
 1300              		.loc 1 609 7
 1301 01b0 832784FD 		lw	a5,-40(s0)
 1302 01b4 91CF     		beq	a5,zero,.L70
 610:Drivers/src/ch32v20x_gpio.c ****     {
 611:Drivers/src/ch32v20x_gpio.c ****         tmpreg |= (tmp << ((GPIO_Remap >> 0x15) * 0x10));
 1303              		.loc 1 611 40
 1304 01b6 8327C4FD 		lw	a5,-36(s0)
 1305 01ba D583     		srli	a5,a5,21
 1306              		.loc 1 611 49
 1307 01bc 9207     		slli	a5,a5,4
 1308              		.loc 1 611 24
 1309 01be 032784FE 		lw	a4,-24(s0)
 1310 01c2 B317F700 		sll	a5,a4,a5
 1311              		.loc 1 611 16
 1312 01c6 0327C4FE 		lw	a4,-20(s0)
 1313 01ca D98F     		or	a5,a4,a5
 1314 01cc 2326F4FE 		sw	a5,-20(s0)
 1315              	.L70:
 612:Drivers/src/ch32v20x_gpio.c ****     }
 613:Drivers/src/ch32v20x_gpio.c **** 
 614:Drivers/src/ch32v20x_gpio.c ****     if((GPIO_Remap & 0x80000000) == 0x80000000)
 1316              		.loc 1 614 34
 1317 01d0 8327C4FD 		lw	a5,-36(s0)
 1318              		.loc 1 614 7
 1319 01d4 63D80700 		bge	a5,zero,.L71
 615:Drivers/src/ch32v20x_gpio.c ****     {
 616:Drivers/src/ch32v20x_gpio.c ****         AFIO->PCFR2 = tmpreg;
 1320              		.loc 1 616 13
 1321 01d8 B7070140 		li	a5,1073807360
 1322              		.loc 1 616 21
 1323 01dc 0327C4FE 		lw	a4,-20(s0)
 1324 01e0 D8CF     		sw	a4,28(a5)
GAS LISTING C:\Users\SOLDER~1\AppData\Local\Temp\ccdovRCu.s 			page 35


 617:Drivers/src/ch32v20x_gpio.c ****     }
 618:Drivers/src/ch32v20x_gpio.c ****     else
 619:Drivers/src/ch32v20x_gpio.c ****     {
 620:Drivers/src/ch32v20x_gpio.c ****         AFIO->PCFR1 = tmpreg;
 621:Drivers/src/ch32v20x_gpio.c ****     }
 622:Drivers/src/ch32v20x_gpio.c **** }
 1325              		.loc 1 622 1
 1326 01e2 31A0     		j	.L73
 1327              	.L71:
 620:Drivers/src/ch32v20x_gpio.c ****     }
 1328              		.loc 1 620 13
 1329 01e4 B7070140 		li	a5,1073807360
 620:Drivers/src/ch32v20x_gpio.c ****     }
 1330              		.loc 1 620 21
 1331 01e8 0327C4FE 		lw	a4,-20(s0)
 1332 01ec D8C3     		sw	a4,4(a5)
 1333              	.L73:
 1334              		.loc 1 622 1
 1335 01ee 0100     		nop
 1336 01f0 3254     		lw	s0,44(sp)
 1337              		.cfi_restore 8
 1338              		.cfi_def_cfa 2, 48
 1339 01f2 4561     		addi	sp,sp,48
 1340              		.cfi_def_cfa_offset 0
 1341 01f4 8280     		jr	ra
 1342              		.cfi_endproc
 1343              	.LFE31:
 1345              		.section	.text.GPIO_EXTILineConfig,"ax",@progbits
 1346              		.align	1
 1347              		.globl	GPIO_EXTILineConfig
 1349              	GPIO_EXTILineConfig:
 1350              	.LFB32:
 623:Drivers/src/ch32v20x_gpio.c **** 
 624:Drivers/src/ch32v20x_gpio.c **** /*********************************************************************
 625:Drivers/src/ch32v20x_gpio.c ****  * @fn      GPIO_EXTILineConfig
 626:Drivers/src/ch32v20x_gpio.c ****  *
 627:Drivers/src/ch32v20x_gpio.c ****  * @brief   Selects the GPIO pin used as EXTI Line.
 628:Drivers/src/ch32v20x_gpio.c ****  *
 629:Drivers/src/ch32v20x_gpio.c ****  * @param   GPIO_PortSource - selects the GPIO port to be used as source for EXTI lines.
 630:Drivers/src/ch32v20x_gpio.c ****  *            This parameter can be GPIO_PortSourceGPIOx where x can be (A..G).
 631:Drivers/src/ch32v20x_gpio.c ****  *          GPIO_PinSource - specifies the EXTI line to be configured.
 632:Drivers/src/ch32v20x_gpio.c ****  *            This parameter can be GPIO_PinSourcex where x can be (0..15).
 633:Drivers/src/ch32v20x_gpio.c ****  *
 634:Drivers/src/ch32v20x_gpio.c ****  * @return  none
 635:Drivers/src/ch32v20x_gpio.c ****  */
 636:Drivers/src/ch32v20x_gpio.c **** void GPIO_EXTILineConfig(uint8_t GPIO_PortSource, uint8_t GPIO_PinSource)
 637:Drivers/src/ch32v20x_gpio.c **** {
 1351              		.loc 1 637 1
 1352              		.cfi_startproc
 1353 0000 7971     		addi	sp,sp,-48
 1354              		.cfi_def_cfa_offset 48
 1355 0002 22D6     		sw	s0,44(sp)
 1356              		.cfi_offset 8, -4
 1357 0004 0018     		addi	s0,sp,48
 1358              		.cfi_def_cfa 8, 0
 1359 0006 AA87     		mv	a5,a0
 1360 0008 2E87     		mv	a4,a1
GAS LISTING C:\Users\SOLDER~1\AppData\Local\Temp\ccdovRCu.s 			page 36


 1361 000a A30FF4FC 		sb	a5,-33(s0)
 1362 000e BA87     		mv	a5,a4
 1363 0010 230FF4FC 		sb	a5,-34(s0)
 638:Drivers/src/ch32v20x_gpio.c ****     uint32_t tmp = 0x00;
 1364              		.loc 1 638 14
 1365 0014 232604FE 		sw	zero,-20(s0)
 639:Drivers/src/ch32v20x_gpio.c **** 
 640:Drivers/src/ch32v20x_gpio.c ****     tmp = ((uint32_t)0x0F) << (0x04 * (GPIO_PinSource & (uint8_t)0x03));
 1366              		.loc 1 640 55
 1367 0018 8347E4FD 		lbu	a5,-34(s0)
 1368 001c 8D8B     		andi	a5,a5,3
 1369              		.loc 1 640 37
 1370 001e 8A07     		slli	a5,a5,2
 1371              		.loc 1 640 9
 1372 0020 3D47     		li	a4,15
 1373 0022 B317F700 		sll	a5,a4,a5
 1374 0026 2326F4FE 		sw	a5,-20(s0)
 641:Drivers/src/ch32v20x_gpio.c ****     AFIO->EXTICR[GPIO_PinSource >> 0x02] &= ~tmp;
 1375              		.loc 1 641 9
 1376 002a 37070140 		li	a4,1073807360
 1377              		.loc 1 641 17
 1378 002e 8347E4FD 		lbu	a5,-34(s0)
 1379 0032 8983     		srli	a5,a5,2
 1380 0034 93F7F70F 		andi	a5,a5,0xff
 1381 0038 8A07     		slli	a5,a5,2
 1382 003a BA97     		add	a5,a4,a5
 1383 003c 9847     		lw	a4,8(a5)
 1384              		.loc 1 641 45
 1385 003e 8327C4FE 		lw	a5,-20(s0)
 1386 0042 93C7F7FF 		not	a5,a5
 1387              		.loc 1 641 9
 1388 0046 B7060140 		li	a3,1073807360
 1389              		.loc 1 641 17
 1390 004a 0346E4FD 		lbu	a2,-34(s0)
 1391 004e 0982     		srli	a2,a2,2
 1392 0050 1376F60F 		andi	a2,a2,0xff
 1393              		.loc 1 641 42
 1394 0054 7D8F     		and	a4,a4,a5
 1395 0056 93172600 		slli	a5,a2,2
 1396 005a B697     		add	a5,a3,a5
 1397 005c 98C7     		sw	a4,8(a5)
 642:Drivers/src/ch32v20x_gpio.c ****     AFIO->EXTICR[GPIO_PinSource >> 0x02] |= (((uint32_t)GPIO_PortSource) << (0x04 * (GPIO_PinSource
 1398              		.loc 1 642 9
 1399 005e 37070140 		li	a4,1073807360
 1400              		.loc 1 642 17
 1401 0062 8347E4FD 		lbu	a5,-34(s0)
 1402 0066 8983     		srli	a5,a5,2
 1403 0068 93F7F70F 		andi	a5,a5,0xff
 1404 006c 8A07     		slli	a5,a5,2
 1405 006e BA97     		add	a5,a4,a5
 1406 0070 9847     		lw	a4,8(a5)
 1407              		.loc 1 642 47
 1408 0072 8346F4FD 		lbu	a3,-33(s0)
 1409              		.loc 1 642 101
 1410 0076 8347E4FD 		lbu	a5,-34(s0)
 1411 007a 8D8B     		andi	a5,a5,3
 1412              		.loc 1 642 83
GAS LISTING C:\Users\SOLDER~1\AppData\Local\Temp\ccdovRCu.s 			page 37


 1413 007c 8A07     		slli	a5,a5,2
 1414              		.loc 1 642 74
 1415 007e B397F600 		sll	a5,a3,a5
 1416              		.loc 1 642 9
 1417 0082 B7060140 		li	a3,1073807360
 1418              		.loc 1 642 17
 1419 0086 0346E4FD 		lbu	a2,-34(s0)
 1420 008a 0982     		srli	a2,a2,2
 1421 008c 1376F60F 		andi	a2,a2,0xff
 1422              		.loc 1 642 42
 1423 0090 5D8F     		or	a4,a4,a5
 1424 0092 93172600 		slli	a5,a2,2
 1425 0096 B697     		add	a5,a3,a5
 1426 0098 98C7     		sw	a4,8(a5)
 643:Drivers/src/ch32v20x_gpio.c **** }
 1427              		.loc 1 643 1
 1428 009a 0100     		nop
 1429 009c 3254     		lw	s0,44(sp)
 1430              		.cfi_restore 8
 1431              		.cfi_def_cfa 2, 48
 1432 009e 4561     		addi	sp,sp,48
 1433              		.cfi_def_cfa_offset 0
 1434 00a0 8280     		jr	ra
 1435              		.cfi_endproc
 1436              	.LFE32:
 1438              		.section	.text.GPIO_ETH_MediaInterfaceConfig,"ax",@progbits
 1439              		.align	1
 1440              		.globl	GPIO_ETH_MediaInterfaceConfig
 1442              	GPIO_ETH_MediaInterfaceConfig:
 1443              	.LFB33:
 644:Drivers/src/ch32v20x_gpio.c **** 
 645:Drivers/src/ch32v20x_gpio.c **** /*********************************************************************
 646:Drivers/src/ch32v20x_gpio.c ****  * @fn      GPIO_ETH_MediaInterfaceConfig
 647:Drivers/src/ch32v20x_gpio.c ****  *
 648:Drivers/src/ch32v20x_gpio.c ****  * @brief   Selects the Ethernet media interface.
 649:Drivers/src/ch32v20x_gpio.c ****  *
 650:Drivers/src/ch32v20x_gpio.c ****  * @param   GPIO_ETH_MediaInterface - specifies the Media Interface mode.
 651:Drivers/src/ch32v20x_gpio.c ****  *            GPIO_ETH_MediaInterface_MII - MII mode
 652:Drivers/src/ch32v20x_gpio.c ****  *            GPIO_ETH_MediaInterface_RMII - RMII mode
 653:Drivers/src/ch32v20x_gpio.c ****  *
 654:Drivers/src/ch32v20x_gpio.c ****  * @return  none
 655:Drivers/src/ch32v20x_gpio.c ****  */
 656:Drivers/src/ch32v20x_gpio.c **** void GPIO_ETH_MediaInterfaceConfig(uint32_t GPIO_ETH_MediaInterface)
 657:Drivers/src/ch32v20x_gpio.c **** {
 1444              		.loc 1 657 1
 1445              		.cfi_startproc
 1446 0000 0111     		addi	sp,sp,-32
 1447              		.cfi_def_cfa_offset 32
 1448 0002 22CE     		sw	s0,28(sp)
 1449              		.cfi_offset 8, -4
 1450 0004 0010     		addi	s0,sp,32
 1451              		.cfi_def_cfa 8, 0
 1452 0006 2326A4FE 		sw	a0,-20(s0)
 658:Drivers/src/ch32v20x_gpio.c ****     if(GPIO_ETH_MediaInterface)
 1453              		.loc 1 658 7
 1454 000a 8327C4FE 		lw	a5,-20(s0)
 1455 000e 99CB     		beq	a5,zero,.L76
GAS LISTING C:\Users\SOLDER~1\AppData\Local\Temp\ccdovRCu.s 			page 38


 659:Drivers/src/ch32v20x_gpio.c ****     {
 660:Drivers/src/ch32v20x_gpio.c ****         AFIO->PCFR1 |= (1 << 23);
 1456              		.loc 1 660 13
 1457 0010 B7070140 		li	a5,1073807360
 1458 0014 D443     		lw	a3,4(a5)
 1459 0016 B7070140 		li	a5,1073807360
 1460              		.loc 1 660 21
 1461 001a 37078000 		li	a4,8388608
 1462 001e 558F     		or	a4,a3,a4
 1463 0020 D8C3     		sw	a4,4(a5)
 661:Drivers/src/ch32v20x_gpio.c ****     }
 662:Drivers/src/ch32v20x_gpio.c ****     else
 663:Drivers/src/ch32v20x_gpio.c ****     {
 664:Drivers/src/ch32v20x_gpio.c ****         AFIO->PCFR1 &= ~(1 << 23);
 665:Drivers/src/ch32v20x_gpio.c ****     }
 666:Drivers/src/ch32v20x_gpio.c **** }
 1464              		.loc 1 666 1
 1465 0022 19A8     		j	.L78
 1466              	.L76:
 664:Drivers/src/ch32v20x_gpio.c ****     }
 1467              		.loc 1 664 13
 1468 0024 B7070140 		li	a5,1073807360
 1469 0028 D443     		lw	a3,4(a5)
 1470 002a B7070140 		li	a5,1073807360
 664:Drivers/src/ch32v20x_gpio.c ****     }
 1471              		.loc 1 664 21
 1472 002e 370780FF 		li	a4,-8388608
 1473 0032 7D17     		addi	a4,a4,-1
 1474 0034 758F     		and	a4,a3,a4
 1475 0036 D8C3     		sw	a4,4(a5)
 1476              	.L78:
 1477              		.loc 1 666 1
 1478 0038 0100     		nop
 1479 003a 7244     		lw	s0,28(sp)
 1480              		.cfi_restore 8
 1481              		.cfi_def_cfa 2, 32
 1482 003c 0561     		addi	sp,sp,32
 1483              		.cfi_def_cfa_offset 0
 1484 003e 8280     		jr	ra
 1485              		.cfi_endproc
 1486              	.LFE33:
 1488              		.text
 1489              	.Letext0:
 1490              		.file 2 "c:\\dev_tools\\ch32_tools\\risc-v_embedded_gcc12\\riscv-none-elf\\include\\machine\\_defa
 1491              		.file 3 "c:\\dev_tools\\ch32_tools\\risc-v_embedded_gcc12\\riscv-none-elf\\include\\sys\\_stdint.h
 1492              		.file 4 "Drivers/inc/core_riscv.h"
 1493              		.file 5 "Drivers/inc/ch32v20x.h"
 1494              		.file 6 "Drivers/inc/ch32v20x_gpio.h"
 1495              		.file 7 "Drivers/inc/ch32v20x_rcc.h"
GAS LISTING C:\Users\SOLDER~1\AppData\Local\Temp\ccdovRCu.s 			page 39


DEFINED SYMBOLS
                            *ABS*:0000000000000000 ch32v20x_gpio.c
C:\Users\SOLDER~1\AppData\Local\Temp\ccdovRCu.s:14     .sbss.MCU_Version:0000000000000000 MCU_Version
C:\Users\SOLDER~1\AppData\Local\Temp\ccdovRCu.s:20     .text.GPIO_DeInit:0000000000000000 GPIO_DeInit
C:\Users\SOLDER~1\AppData\Local\Temp\ccdovRCu.s:24     .text.GPIO_DeInit:0000000000000000 .L0 
C:\Users\SOLDER~1\AppData\Local\Temp\ccdovRCu.s:25     .text.GPIO_DeInit:0000000000000000 $x
C:\Users\SOLDER~1\AppData\Local\Temp\ccdovRCu.s:25     .text.GPIO_DeInit:0000000000000000 .L0 
C:\Users\SOLDER~1\AppData\Local\Temp\ccdovRCu.s:26     .text.GPIO_DeInit:0000000000000002 .L0 
C:\Users\SOLDER~1\AppData\Local\Temp\ccdovRCu.s:29     .text.GPIO_DeInit:0000000000000006 .L0 
C:\Users\SOLDER~1\AppData\Local\Temp\ccdovRCu.s:30     .text.GPIO_DeInit:0000000000000006 .L0 
C:\Users\SOLDER~1\AppData\Local\Temp\ccdovRCu.s:32     .text.GPIO_DeInit:0000000000000008 .L0 
C:\Users\SOLDER~1\AppData\Local\Temp\ccdovRCu.s:35     .text.GPIO_DeInit:000000000000000c .L0 
C:\Users\SOLDER~1\AppData\Local\Temp\ccdovRCu.s:40     .text.GPIO_DeInit:000000000000001c .L0 
C:\Users\SOLDER~1\AppData\Local\Temp\ccdovRCu.s:44     .text.GPIO_DeInit:0000000000000028 .L0 
C:\Users\SOLDER~1\AppData\Local\Temp\ccdovRCu.s:48     .text.GPIO_DeInit:0000000000000034 .L0 
C:\Users\SOLDER~1\AppData\Local\Temp\ccdovRCu.s:51     .text.GPIO_DeInit:0000000000000036 .L0 
C:\Users\SOLDER~1\AppData\Local\Temp\ccdovRCu.s:56     .text.GPIO_DeInit:0000000000000046 .L0 
C:\Users\SOLDER~1\AppData\Local\Temp\ccdovRCu.s:60     .text.GPIO_DeInit:0000000000000052 .L0 
C:\Users\SOLDER~1\AppData\Local\Temp\ccdovRCu.s:64     .text.GPIO_DeInit:000000000000005e .L0 
C:\Users\SOLDER~1\AppData\Local\Temp\ccdovRCu.s:67     .text.GPIO_DeInit:0000000000000060 .L0 
C:\Users\SOLDER~1\AppData\Local\Temp\ccdovRCu.s:71     .text.GPIO_DeInit:000000000000006c .L0 
C:\Users\SOLDER~1\AppData\Local\Temp\ccdovRCu.s:75     .text.GPIO_DeInit:0000000000000078 .L0 
C:\Users\SOLDER~1\AppData\Local\Temp\ccdovRCu.s:79     .text.GPIO_DeInit:0000000000000084 .L0 
C:\Users\SOLDER~1\AppData\Local\Temp\ccdovRCu.s:82     .text.GPIO_DeInit:0000000000000086 .L0 
C:\Users\SOLDER~1\AppData\Local\Temp\ccdovRCu.s:87     .text.GPIO_DeInit:0000000000000096 .L0 
C:\Users\SOLDER~1\AppData\Local\Temp\ccdovRCu.s:91     .text.GPIO_DeInit:00000000000000a4 .L0 
C:\Users\SOLDER~1\AppData\Local\Temp\ccdovRCu.s:95     .text.GPIO_DeInit:00000000000000b2 .L0 
C:\Users\SOLDER~1\AppData\Local\Temp\ccdovRCu.s:98     .text.GPIO_DeInit:00000000000000b4 .L0 
C:\Users\SOLDER~1\AppData\Local\Temp\ccdovRCu.s:103    .text.GPIO_DeInit:00000000000000c4 .L0 
C:\Users\SOLDER~1\AppData\Local\Temp\ccdovRCu.s:107    .text.GPIO_DeInit:00000000000000d2 .L0 
C:\Users\SOLDER~1\AppData\Local\Temp\ccdovRCu.s:112    .text.GPIO_DeInit:00000000000000e0 .L0 
C:\Users\SOLDER~1\AppData\Local\Temp\ccdovRCu.s:114    .text.GPIO_DeInit:00000000000000e4 .L0 
C:\Users\SOLDER~1\AppData\Local\Temp\ccdovRCu.s:116    .text.GPIO_DeInit:00000000000000e6 .L0 
C:\Users\SOLDER~1\AppData\Local\Temp\ccdovRCu.s:117    .text.GPIO_DeInit:00000000000000e6 .L0 
C:\Users\SOLDER~1\AppData\Local\Temp\ccdovRCu.s:119    .text.GPIO_DeInit:00000000000000e8 .L0 
C:\Users\SOLDER~1\AppData\Local\Temp\ccdovRCu.s:121    .text.GPIO_DeInit:00000000000000ea .L0 
C:\Users\SOLDER~1\AppData\Local\Temp\ccdovRCu.s:128    .text.GPIO_AFIODeInit:0000000000000000 GPIO_AFIODeInit
C:\Users\SOLDER~1\AppData\Local\Temp\ccdovRCu.s:131    .text.GPIO_AFIODeInit:0000000000000000 .L0 
C:\Users\SOLDER~1\AppData\Local\Temp\ccdovRCu.s:132    .text.GPIO_AFIODeInit:0000000000000000 $x
C:\Users\SOLDER~1\AppData\Local\Temp\ccdovRCu.s:132    .text.GPIO_AFIODeInit:0000000000000000 .L0 
C:\Users\SOLDER~1\AppData\Local\Temp\ccdovRCu.s:133    .text.GPIO_AFIODeInit:0000000000000002 .L0 
C:\Users\SOLDER~1\AppData\Local\Temp\ccdovRCu.s:136    .text.GPIO_AFIODeInit:0000000000000006 .L0 
C:\Users\SOLDER~1\AppData\Local\Temp\ccdovRCu.s:137    .text.GPIO_AFIODeInit:0000000000000006 .L0 
C:\Users\SOLDER~1\AppData\Local\Temp\ccdovRCu.s:139    .text.GPIO_AFIODeInit:0000000000000008 .L0 
C:\Users\SOLDER~1\AppData\Local\Temp\ccdovRCu.s:141    .text.GPIO_AFIODeInit:0000000000000008 .L0 
C:\Users\SOLDER~1\AppData\Local\Temp\ccdovRCu.s:145    .text.GPIO_AFIODeInit:0000000000000014 .L0 
C:\Users\SOLDER~1\AppData\Local\Temp\ccdovRCu.s:149    .text.GPIO_AFIODeInit:0000000000000020 .L0 
C:\Users\SOLDER~1\AppData\Local\Temp\ccdovRCu.s:151    .text.GPIO_AFIODeInit:0000000000000024 .L0 
C:\Users\SOLDER~1\AppData\Local\Temp\ccdovRCu.s:153    .text.GPIO_AFIODeInit:0000000000000026 .L0 
C:\Users\SOLDER~1\AppData\Local\Temp\ccdovRCu.s:154    .text.GPIO_AFIODeInit:0000000000000026 .L0 
C:\Users\SOLDER~1\AppData\Local\Temp\ccdovRCu.s:156    .text.GPIO_AFIODeInit:0000000000000028 .L0 
C:\Users\SOLDER~1\AppData\Local\Temp\ccdovRCu.s:158    .text.GPIO_AFIODeInit:000000000000002a .L0 
C:\Users\SOLDER~1\AppData\Local\Temp\ccdovRCu.s:165    .text.GPIO_Init:0000000000000000 GPIO_Init
C:\Users\SOLDER~1\AppData\Local\Temp\ccdovRCu.s:168    .text.GPIO_Init:0000000000000000 .L0 
C:\Users\SOLDER~1\AppData\Local\Temp\ccdovRCu.s:169    .text.GPIO_Init:0000000000000000 $x
C:\Users\SOLDER~1\AppData\Local\Temp\ccdovRCu.s:169    .text.GPIO_Init:0000000000000000 .L0 
C:\Users\SOLDER~1\AppData\Local\Temp\ccdovRCu.s:170    .text.GPIO_Init:0000000000000002 .L0 
GAS LISTING C:\Users\SOLDER~1\AppData\Local\Temp\ccdovRCu.s 			page 40


C:\Users\SOLDER~1\AppData\Local\Temp\ccdovRCu.s:172    .text.GPIO_Init:0000000000000004 .L0 
C:\Users\SOLDER~1\AppData\Local\Temp\ccdovRCu.s:174    .text.GPIO_Init:0000000000000006 .L0 
C:\Users\SOLDER~1\AppData\Local\Temp\ccdovRCu.s:178    .text.GPIO_Init:000000000000000e .L0 
C:\Users\SOLDER~1\AppData\Local\Temp\ccdovRCu.s:180    .text.GPIO_Init:0000000000000012 .L0 
C:\Users\SOLDER~1\AppData\Local\Temp\ccdovRCu.s:182    .text.GPIO_Init:0000000000000016 .L0 
C:\Users\SOLDER~1\AppData\Local\Temp\ccdovRCu.s:184    .text.GPIO_Init:000000000000001a .L0 
C:\Users\SOLDER~1\AppData\Local\Temp\ccdovRCu.s:186    .text.GPIO_Init:000000000000001e .L0 
C:\Users\SOLDER~1\AppData\Local\Temp\ccdovRCu.s:188    .text.GPIO_Init:0000000000000022 .L0 
C:\Users\SOLDER~1\AppData\Local\Temp\ccdovRCu.s:190    .text.GPIO_Init:0000000000000026 .L0 
C:\Users\SOLDER~1\AppData\Local\Temp\ccdovRCu.s:193    .text.GPIO_Init:000000000000002c .L0 
C:\Users\SOLDER~1\AppData\Local\Temp\ccdovRCu.s:196    .text.GPIO_Init:0000000000000032 .L0 
C:\Users\SOLDER~1\AppData\Local\Temp\ccdovRCu.s:199    .text.GPIO_Init:0000000000000038 .L0 
C:\Users\SOLDER~1\AppData\Local\Temp\ccdovRCu.s:201    .text.GPIO_Init:000000000000003a .L0 
C:\Users\SOLDER~1\AppData\Local\Temp\ccdovRCu.s:203    .text.GPIO_Init:000000000000003c .L0 
C:\Users\SOLDER~1\AppData\Local\Temp\ccdovRCu.s:206    .text.GPIO_Init:0000000000000042 .L0 
C:\Users\SOLDER~1\AppData\Local\Temp\ccdovRCu.s:211    .text.GPIO_Init:000000000000004c .L0 
C:\Users\SOLDER~1\AppData\Local\Temp\ccdovRCu.s:215    .text.GPIO_Init:0000000000000056 .L0 
C:\Users\SOLDER~1\AppData\Local\Temp\ccdovRCu.s:218    .text.GPIO_Init:000000000000005c .L0 
C:\Users\SOLDER~1\AppData\Local\Temp\ccdovRCu.s:220    .text.GPIO_Init:000000000000005e .L0 
C:\Users\SOLDER~1\AppData\Local\Temp\ccdovRCu.s:225    .text.GPIO_Init:0000000000000068 .L0 
C:\Users\SOLDER~1\AppData\Local\Temp\ccdovRCu.s:229    .text.GPIO_Init:0000000000000074 .L0 
C:\Users\SOLDER~1\AppData\Local\Temp\ccdovRCu.s:233    .text.GPIO_Init:000000000000007e .L0 
C:\Users\SOLDER~1\AppData\Local\Temp\ccdovRCu.s:236    .text.GPIO_Init:0000000000000084 .L0 
C:\Users\SOLDER~1\AppData\Local\Temp\ccdovRCu.s:243    .text.GPIO_Init:0000000000000092 .L0 
C:\Users\SOLDER~1\AppData\Local\Temp\ccdovRCu.s:246    .text.GPIO_Init:0000000000000098 .L0 
C:\Users\SOLDER~1\AppData\Local\Temp\ccdovRCu.s:248    .text.GPIO_Init:000000000000009c .L0 
C:\Users\SOLDER~1\AppData\Local\Temp\ccdovRCu.s:250    .text.GPIO_Init:000000000000009e .L0 
C:\Users\SOLDER~1\AppData\Local\Temp\ccdovRCu.s:254    .text.GPIO_Init:00000000000000a8 .L0 
C:\Users\SOLDER~1\AppData\Local\Temp\ccdovRCu.s:256    .text.GPIO_Init:00000000000000ac .L0 
C:\Users\SOLDER~1\AppData\Local\Temp\ccdovRCu.s:259    .text.GPIO_Init:00000000000000ae .L0 
C:\Users\SOLDER~1\AppData\Local\Temp\ccdovRCu.s:264    .text.GPIO_Init:00000000000000bc .L0 
C:\Users\SOLDER~1\AppData\Local\Temp\ccdovRCu.s:268    .text.GPIO_Init:00000000000000c4 .L0 
C:\Users\SOLDER~1\AppData\Local\Temp\ccdovRCu.s:272    .text.GPIO_Init:00000000000000ce .L0 
C:\Users\SOLDER~1\AppData\Local\Temp\ccdovRCu.s:276    .text.GPIO_Init:00000000000000da .L0 
C:\Users\SOLDER~1\AppData\Local\Temp\ccdovRCu.s:280    .text.GPIO_Init:00000000000000e4 .L0 
C:\Users\SOLDER~1\AppData\Local\Temp\ccdovRCu.s:285    .text.GPIO_Init:00000000000000f2 .L0 
C:\Users\SOLDER~1\AppData\Local\Temp\ccdovRCu.s:288    .text.GPIO_Init:00000000000000fa .L0 
C:\Users\SOLDER~1\AppData\Local\Temp\ccdovRCu.s:292    .text.GPIO_Init:0000000000000104 .L0 
C:\Users\SOLDER~1\AppData\Local\Temp\ccdovRCu.s:296    .text.GPIO_Init:0000000000000110 .L0 
C:\Users\SOLDER~1\AppData\Local\Temp\ccdovRCu.s:300    .text.GPIO_Init:000000000000011a .L0 
C:\Users\SOLDER~1\AppData\Local\Temp\ccdovRCu.s:303    .text.GPIO_Init:0000000000000120 .L0 
C:\Users\SOLDER~1\AppData\Local\Temp\ccdovRCu.s:306    .text.GPIO_Init:0000000000000128 .L0 
C:\Users\SOLDER~1\AppData\Local\Temp\ccdovRCu.s:310    .text.GPIO_Init:0000000000000132 .L0 
C:\Users\SOLDER~1\AppData\Local\Temp\ccdovRCu.s:315    .text.GPIO_Init:000000000000013a .L0 
C:\Users\SOLDER~1\AppData\Local\Temp\ccdovRCu.s:318    .text.GPIO_Init:0000000000000140 .L0 
C:\Users\SOLDER~1\AppData\Local\Temp\ccdovRCu.s:321    .text.GPIO_Init:0000000000000148 .L0 
C:\Users\SOLDER~1\AppData\Local\Temp\ccdovRCu.s:325    .text.GPIO_Init:0000000000000152 .L0 
C:\Users\SOLDER~1\AppData\Local\Temp\ccdovRCu.s:329    .text.GPIO_Init:0000000000000158 .L0 
C:\Users\SOLDER~1\AppData\Local\Temp\ccdovRCu.s:334    .text.GPIO_Init:0000000000000162 .L0 
C:\Users\SOLDER~1\AppData\Local\Temp\ccdovRCu.s:338    .text.GPIO_Init:000000000000016c .L0 
C:\Users\SOLDER~1\AppData\Local\Temp\ccdovRCu.s:343    .text.GPIO_Init:0000000000000176 .L0 
C:\Users\SOLDER~1\AppData\Local\Temp\ccdovRCu.s:346    .text.GPIO_Init:000000000000017c .L0 
C:\Users\SOLDER~1\AppData\Local\Temp\ccdovRCu.s:349    .text.GPIO_Init:0000000000000184 .L0 
C:\Users\SOLDER~1\AppData\Local\Temp\ccdovRCu.s:353    .text.GPIO_Init:000000000000018e .L0 
C:\Users\SOLDER~1\AppData\Local\Temp\ccdovRCu.s:355    .text.GPIO_Init:0000000000000192 .L0 
C:\Users\SOLDER~1\AppData\Local\Temp\ccdovRCu.s:358    .text.GPIO_Init:0000000000000194 .L0 
C:\Users\SOLDER~1\AppData\Local\Temp\ccdovRCu.s:361    .text.GPIO_Init:000000000000019a .L0 
GAS LISTING C:\Users\SOLDER~1\AppData\Local\Temp\ccdovRCu.s 			page 41


C:\Users\SOLDER~1\AppData\Local\Temp\ccdovRCu.s:365    .text.GPIO_Init:00000000000001a4 .L0 
C:\Users\SOLDER~1\AppData\Local\Temp\ccdovRCu.s:369    .text.GPIO_Init:00000000000001ac .L0 
C:\Users\SOLDER~1\AppData\Local\Temp\ccdovRCu.s:373    .text.GPIO_Init:00000000000001b6 .L0 
C:\Users\SOLDER~1\AppData\Local\Temp\ccdovRCu.s:377    .text.GPIO_Init:00000000000001c2 .L0 
C:\Users\SOLDER~1\AppData\Local\Temp\ccdovRCu.s:381    .text.GPIO_Init:00000000000001cc .L0 
C:\Users\SOLDER~1\AppData\Local\Temp\ccdovRCu.s:386    .text.GPIO_Init:00000000000001da .L0 
C:\Users\SOLDER~1\AppData\Local\Temp\ccdovRCu.s:389    .text.GPIO_Init:00000000000001e2 .L0 
C:\Users\SOLDER~1\AppData\Local\Temp\ccdovRCu.s:393    .text.GPIO_Init:00000000000001ec .L0 
C:\Users\SOLDER~1\AppData\Local\Temp\ccdovRCu.s:397    .text.GPIO_Init:00000000000001f8 .L0 
C:\Users\SOLDER~1\AppData\Local\Temp\ccdovRCu.s:401    .text.GPIO_Init:0000000000000202 .L0 
C:\Users\SOLDER~1\AppData\Local\Temp\ccdovRCu.s:404    .text.GPIO_Init:0000000000000208 .L0 
C:\Users\SOLDER~1\AppData\Local\Temp\ccdovRCu.s:407    .text.GPIO_Init:0000000000000210 .L0 
C:\Users\SOLDER~1\AppData\Local\Temp\ccdovRCu.s:410    .text.GPIO_Init:0000000000000216 .L0 
C:\Users\SOLDER~1\AppData\Local\Temp\ccdovRCu.s:413    .text.GPIO_Init:000000000000021c .L0 
C:\Users\SOLDER~1\AppData\Local\Temp\ccdovRCu.s:417    .text.GPIO_Init:0000000000000222 .L0 
C:\Users\SOLDER~1\AppData\Local\Temp\ccdovRCu.s:420    .text.GPIO_Init:0000000000000228 .L0 
C:\Users\SOLDER~1\AppData\Local\Temp\ccdovRCu.s:423    .text.GPIO_Init:0000000000000230 .L0 
C:\Users\SOLDER~1\AppData\Local\Temp\ccdovRCu.s:426    .text.GPIO_Init:0000000000000236 .L0 
C:\Users\SOLDER~1\AppData\Local\Temp\ccdovRCu.s:429    .text.GPIO_Init:000000000000023c .L0 
C:\Users\SOLDER~1\AppData\Local\Temp\ccdovRCu.s:433    .text.GPIO_Init:0000000000000242 .L0 
C:\Users\SOLDER~1\AppData\Local\Temp\ccdovRCu.s:438    .text.GPIO_Init:000000000000024c .L0 
C:\Users\SOLDER~1\AppData\Local\Temp\ccdovRCu.s:442    .text.GPIO_Init:0000000000000256 .L0 
C:\Users\SOLDER~1\AppData\Local\Temp\ccdovRCu.s:447    .text.GPIO_Init:0000000000000260 .L0 
C:\Users\SOLDER~1\AppData\Local\Temp\ccdovRCu.s:449    .text.GPIO_Init:0000000000000264 .L0 
C:\Users\SOLDER~1\AppData\Local\Temp\ccdovRCu.s:450    .text.GPIO_Init:0000000000000264 .L0 
C:\Users\SOLDER~1\AppData\Local\Temp\ccdovRCu.s:452    .text.GPIO_Init:0000000000000266 .L0 
C:\Users\SOLDER~1\AppData\Local\Temp\ccdovRCu.s:454    .text.GPIO_Init:0000000000000268 .L0 
C:\Users\SOLDER~1\AppData\Local\Temp\ccdovRCu.s:461    .text.GPIO_StructInit:0000000000000000 GPIO_StructInit
C:\Users\SOLDER~1\AppData\Local\Temp\ccdovRCu.s:464    .text.GPIO_StructInit:0000000000000000 .L0 
C:\Users\SOLDER~1\AppData\Local\Temp\ccdovRCu.s:465    .text.GPIO_StructInit:0000000000000000 $x
C:\Users\SOLDER~1\AppData\Local\Temp\ccdovRCu.s:465    .text.GPIO_StructInit:0000000000000000 .L0 
C:\Users\SOLDER~1\AppData\Local\Temp\ccdovRCu.s:466    .text.GPIO_StructInit:0000000000000002 .L0 
C:\Users\SOLDER~1\AppData\Local\Temp\ccdovRCu.s:468    .text.GPIO_StructInit:0000000000000004 .L0 
C:\Users\SOLDER~1\AppData\Local\Temp\ccdovRCu.s:470    .text.GPIO_StructInit:0000000000000006 .L0 
C:\Users\SOLDER~1\AppData\Local\Temp\ccdovRCu.s:473    .text.GPIO_StructInit:000000000000000a .L0 
C:\Users\SOLDER~1\AppData\Local\Temp\ccdovRCu.s:477    .text.GPIO_StructInit:0000000000000012 .L0 
C:\Users\SOLDER~1\AppData\Local\Temp\ccdovRCu.s:481    .text.GPIO_StructInit:000000000000001a .L0 
C:\Users\SOLDER~1\AppData\Local\Temp\ccdovRCu.s:485    .text.GPIO_StructInit:0000000000000022 .L0 
C:\Users\SOLDER~1\AppData\Local\Temp\ccdovRCu.s:487    .text.GPIO_StructInit:0000000000000026 .L0 
C:\Users\SOLDER~1\AppData\Local\Temp\ccdovRCu.s:488    .text.GPIO_StructInit:0000000000000026 .L0 
C:\Users\SOLDER~1\AppData\Local\Temp\ccdovRCu.s:490    .text.GPIO_StructInit:0000000000000028 .L0 
C:\Users\SOLDER~1\AppData\Local\Temp\ccdovRCu.s:492    .text.GPIO_StructInit:000000000000002a .L0 
C:\Users\SOLDER~1\AppData\Local\Temp\ccdovRCu.s:499    .text.GPIO_ReadInputDataBit:0000000000000000 GPIO_ReadInputDataBit
C:\Users\SOLDER~1\AppData\Local\Temp\ccdovRCu.s:502    .text.GPIO_ReadInputDataBit:0000000000000000 .L0 
C:\Users\SOLDER~1\AppData\Local\Temp\ccdovRCu.s:503    .text.GPIO_ReadInputDataBit:0000000000000000 $x
C:\Users\SOLDER~1\AppData\Local\Temp\ccdovRCu.s:503    .text.GPIO_ReadInputDataBit:0000000000000000 .L0 
C:\Users\SOLDER~1\AppData\Local\Temp\ccdovRCu.s:504    .text.GPIO_ReadInputDataBit:0000000000000002 .L0 
C:\Users\SOLDER~1\AppData\Local\Temp\ccdovRCu.s:506    .text.GPIO_ReadInputDataBit:0000000000000004 .L0 
C:\Users\SOLDER~1\AppData\Local\Temp\ccdovRCu.s:508    .text.GPIO_ReadInputDataBit:0000000000000006 .L0 
C:\Users\SOLDER~1\AppData\Local\Temp\ccdovRCu.s:513    .text.GPIO_ReadInputDataBit:0000000000000010 .L0 
C:\Users\SOLDER~1\AppData\Local\Temp\ccdovRCu.s:515    .text.GPIO_ReadInputDataBit:0000000000000014 .L0 
C:\Users\SOLDER~1\AppData\Local\Temp\ccdovRCu.s:519    .text.GPIO_ReadInputDataBit:0000000000000020 .L0 
C:\Users\SOLDER~1\AppData\Local\Temp\ccdovRCu.s:523    .text.GPIO_ReadInputDataBit:000000000000002a .L0 
C:\Users\SOLDER~1\AppData\Local\Temp\ccdovRCu.s:528    .text.GPIO_ReadInputDataBit:0000000000000034 .L0 
C:\Users\SOLDER~1\AppData\Local\Temp\ccdovRCu.s:531    .text.GPIO_ReadInputDataBit:000000000000003a .L0 
C:\Users\SOLDER~1\AppData\Local\Temp\ccdovRCu.s:534    .text.GPIO_ReadInputDataBit:0000000000000040 .L0 
C:\Users\SOLDER~1\AppData\Local\Temp\ccdovRCu.s:536    .text.GPIO_ReadInputDataBit:0000000000000042 .L0 
GAS LISTING C:\Users\SOLDER~1\AppData\Local\Temp\ccdovRCu.s 			page 42


C:\Users\SOLDER~1\AppData\Local\Temp\ccdovRCu.s:541    .text.GPIO_ReadInputDataBit:000000000000004a .L0 
C:\Users\SOLDER~1\AppData\Local\Temp\ccdovRCu.s:544    .text.GPIO_ReadInputDataBit:000000000000004e .L0 
C:\Users\SOLDER~1\AppData\Local\Temp\ccdovRCu.s:546    .text.GPIO_ReadInputDataBit:0000000000000052 .L0 
C:\Users\SOLDER~1\AppData\Local\Temp\ccdovRCu.s:548    .text.GPIO_ReadInputDataBit:0000000000000056 .L0 
C:\Users\SOLDER~1\AppData\Local\Temp\ccdovRCu.s:549    .text.GPIO_ReadInputDataBit:0000000000000056 .L0 
C:\Users\SOLDER~1\AppData\Local\Temp\ccdovRCu.s:551    .text.GPIO_ReadInputDataBit:0000000000000058 .L0 
C:\Users\SOLDER~1\AppData\Local\Temp\ccdovRCu.s:553    .text.GPIO_ReadInputDataBit:000000000000005a .L0 
C:\Users\SOLDER~1\AppData\Local\Temp\ccdovRCu.s:560    .text.GPIO_ReadInputData:0000000000000000 GPIO_ReadInputData
C:\Users\SOLDER~1\AppData\Local\Temp\ccdovRCu.s:563    .text.GPIO_ReadInputData:0000000000000000 .L0 
C:\Users\SOLDER~1\AppData\Local\Temp\ccdovRCu.s:564    .text.GPIO_ReadInputData:0000000000000000 $x
C:\Users\SOLDER~1\AppData\Local\Temp\ccdovRCu.s:564    .text.GPIO_ReadInputData:0000000000000000 .L0 
C:\Users\SOLDER~1\AppData\Local\Temp\ccdovRCu.s:565    .text.GPIO_ReadInputData:0000000000000002 .L0 
C:\Users\SOLDER~1\AppData\Local\Temp\ccdovRCu.s:567    .text.GPIO_ReadInputData:0000000000000004 .L0 
C:\Users\SOLDER~1\AppData\Local\Temp\ccdovRCu.s:569    .text.GPIO_ReadInputData:0000000000000006 .L0 
C:\Users\SOLDER~1\AppData\Local\Temp\ccdovRCu.s:572    .text.GPIO_ReadInputData:000000000000000a .L0 
C:\Users\SOLDER~1\AppData\Local\Temp\ccdovRCu.s:576    .text.GPIO_ReadInputData:0000000000000016 .L0 
C:\Users\SOLDER~1\AppData\Local\Temp\ccdovRCu.s:580    .text.GPIO_ReadInputData:0000000000000020 .L0 
C:\Users\SOLDER~1\AppData\Local\Temp\ccdovRCu.s:583    .text.GPIO_ReadInputData:0000000000000026 .L0 
C:\Users\SOLDER~1\AppData\Local\Temp\ccdovRCu.s:586    .text.GPIO_ReadInputData:000000000000002a .L0 
C:\Users\SOLDER~1\AppData\Local\Temp\ccdovRCu.s:591    .text.GPIO_ReadInputData:0000000000000032 .L0 
C:\Users\SOLDER~1\AppData\Local\Temp\ccdovRCu.s:594    .text.GPIO_ReadInputData:0000000000000038 .L0 
C:\Users\SOLDER~1\AppData\Local\Temp\ccdovRCu.s:597    .text.GPIO_ReadInputData:000000000000003c .L0 
C:\Users\SOLDER~1\AppData\Local\Temp\ccdovRCu.s:599    .text.GPIO_ReadInputData:0000000000000040 .L0 
C:\Users\SOLDER~1\AppData\Local\Temp\ccdovRCu.s:601    .text.GPIO_ReadInputData:0000000000000044 .L0 
C:\Users\SOLDER~1\AppData\Local\Temp\ccdovRCu.s:602    .text.GPIO_ReadInputData:0000000000000044 .L0 
C:\Users\SOLDER~1\AppData\Local\Temp\ccdovRCu.s:604    .text.GPIO_ReadInputData:0000000000000046 .L0 
C:\Users\SOLDER~1\AppData\Local\Temp\ccdovRCu.s:606    .text.GPIO_ReadInputData:0000000000000048 .L0 
C:\Users\SOLDER~1\AppData\Local\Temp\ccdovRCu.s:613    .text.GPIO_ReadOutputDataBit:0000000000000000 GPIO_ReadOutputDataBit
C:\Users\SOLDER~1\AppData\Local\Temp\ccdovRCu.s:616    .text.GPIO_ReadOutputDataBit:0000000000000000 .L0 
C:\Users\SOLDER~1\AppData\Local\Temp\ccdovRCu.s:617    .text.GPIO_ReadOutputDataBit:0000000000000000 $x
C:\Users\SOLDER~1\AppData\Local\Temp\ccdovRCu.s:617    .text.GPIO_ReadOutputDataBit:0000000000000000 .L0 
C:\Users\SOLDER~1\AppData\Local\Temp\ccdovRCu.s:618    .text.GPIO_ReadOutputDataBit:0000000000000002 .L0 
C:\Users\SOLDER~1\AppData\Local\Temp\ccdovRCu.s:620    .text.GPIO_ReadOutputDataBit:0000000000000004 .L0 
C:\Users\SOLDER~1\AppData\Local\Temp\ccdovRCu.s:622    .text.GPIO_ReadOutputDataBit:0000000000000006 .L0 
C:\Users\SOLDER~1\AppData\Local\Temp\ccdovRCu.s:627    .text.GPIO_ReadOutputDataBit:0000000000000010 .L0 
C:\Users\SOLDER~1\AppData\Local\Temp\ccdovRCu.s:629    .text.GPIO_ReadOutputDataBit:0000000000000014 .L0 
C:\Users\SOLDER~1\AppData\Local\Temp\ccdovRCu.s:633    .text.GPIO_ReadOutputDataBit:0000000000000020 .L0 
C:\Users\SOLDER~1\AppData\Local\Temp\ccdovRCu.s:637    .text.GPIO_ReadOutputDataBit:000000000000002a .L0 
C:\Users\SOLDER~1\AppData\Local\Temp\ccdovRCu.s:642    .text.GPIO_ReadOutputDataBit:0000000000000034 .L0 
C:\Users\SOLDER~1\AppData\Local\Temp\ccdovRCu.s:645    .text.GPIO_ReadOutputDataBit:000000000000003a .L0 
C:\Users\SOLDER~1\AppData\Local\Temp\ccdovRCu.s:648    .text.GPIO_ReadOutputDataBit:0000000000000040 .L0 
C:\Users\SOLDER~1\AppData\Local\Temp\ccdovRCu.s:650    .text.GPIO_ReadOutputDataBit:0000000000000042 .L0 
C:\Users\SOLDER~1\AppData\Local\Temp\ccdovRCu.s:655    .text.GPIO_ReadOutputDataBit:000000000000004a .L0 
C:\Users\SOLDER~1\AppData\Local\Temp\ccdovRCu.s:658    .text.GPIO_ReadOutputDataBit:000000000000004e .L0 
C:\Users\SOLDER~1\AppData\Local\Temp\ccdovRCu.s:660    .text.GPIO_ReadOutputDataBit:0000000000000052 .L0 
C:\Users\SOLDER~1\AppData\Local\Temp\ccdovRCu.s:662    .text.GPIO_ReadOutputDataBit:0000000000000056 .L0 
C:\Users\SOLDER~1\AppData\Local\Temp\ccdovRCu.s:663    .text.GPIO_ReadOutputDataBit:0000000000000056 .L0 
C:\Users\SOLDER~1\AppData\Local\Temp\ccdovRCu.s:665    .text.GPIO_ReadOutputDataBit:0000000000000058 .L0 
C:\Users\SOLDER~1\AppData\Local\Temp\ccdovRCu.s:667    .text.GPIO_ReadOutputDataBit:000000000000005a .L0 
C:\Users\SOLDER~1\AppData\Local\Temp\ccdovRCu.s:674    .text.GPIO_ReadOutputData:0000000000000000 GPIO_ReadOutputData
C:\Users\SOLDER~1\AppData\Local\Temp\ccdovRCu.s:677    .text.GPIO_ReadOutputData:0000000000000000 .L0 
C:\Users\SOLDER~1\AppData\Local\Temp\ccdovRCu.s:678    .text.GPIO_ReadOutputData:0000000000000000 $x
C:\Users\SOLDER~1\AppData\Local\Temp\ccdovRCu.s:678    .text.GPIO_ReadOutputData:0000000000000000 .L0 
C:\Users\SOLDER~1\AppData\Local\Temp\ccdovRCu.s:679    .text.GPIO_ReadOutputData:0000000000000002 .L0 
C:\Users\SOLDER~1\AppData\Local\Temp\ccdovRCu.s:681    .text.GPIO_ReadOutputData:0000000000000004 .L0 
C:\Users\SOLDER~1\AppData\Local\Temp\ccdovRCu.s:683    .text.GPIO_ReadOutputData:0000000000000006 .L0 
C:\Users\SOLDER~1\AppData\Local\Temp\ccdovRCu.s:686    .text.GPIO_ReadOutputData:000000000000000a .L0 
GAS LISTING C:\Users\SOLDER~1\AppData\Local\Temp\ccdovRCu.s 			page 43


C:\Users\SOLDER~1\AppData\Local\Temp\ccdovRCu.s:690    .text.GPIO_ReadOutputData:0000000000000016 .L0 
C:\Users\SOLDER~1\AppData\Local\Temp\ccdovRCu.s:694    .text.GPIO_ReadOutputData:0000000000000020 .L0 
C:\Users\SOLDER~1\AppData\Local\Temp\ccdovRCu.s:697    .text.GPIO_ReadOutputData:0000000000000026 .L0 
C:\Users\SOLDER~1\AppData\Local\Temp\ccdovRCu.s:700    .text.GPIO_ReadOutputData:000000000000002a .L0 
C:\Users\SOLDER~1\AppData\Local\Temp\ccdovRCu.s:705    .text.GPIO_ReadOutputData:0000000000000032 .L0 
C:\Users\SOLDER~1\AppData\Local\Temp\ccdovRCu.s:708    .text.GPIO_ReadOutputData:0000000000000038 .L0 
C:\Users\SOLDER~1\AppData\Local\Temp\ccdovRCu.s:711    .text.GPIO_ReadOutputData:000000000000003c .L0 
C:\Users\SOLDER~1\AppData\Local\Temp\ccdovRCu.s:713    .text.GPIO_ReadOutputData:0000000000000040 .L0 
C:\Users\SOLDER~1\AppData\Local\Temp\ccdovRCu.s:715    .text.GPIO_ReadOutputData:0000000000000044 .L0 
C:\Users\SOLDER~1\AppData\Local\Temp\ccdovRCu.s:716    .text.GPIO_ReadOutputData:0000000000000044 .L0 
C:\Users\SOLDER~1\AppData\Local\Temp\ccdovRCu.s:718    .text.GPIO_ReadOutputData:0000000000000046 .L0 
C:\Users\SOLDER~1\AppData\Local\Temp\ccdovRCu.s:720    .text.GPIO_ReadOutputData:0000000000000048 .L0 
C:\Users\SOLDER~1\AppData\Local\Temp\ccdovRCu.s:727    .text.GPIO_SetBits:0000000000000000 GPIO_SetBits
C:\Users\SOLDER~1\AppData\Local\Temp\ccdovRCu.s:730    .text.GPIO_SetBits:0000000000000000 .L0 
C:\Users\SOLDER~1\AppData\Local\Temp\ccdovRCu.s:731    .text.GPIO_SetBits:0000000000000000 $x
C:\Users\SOLDER~1\AppData\Local\Temp\ccdovRCu.s:731    .text.GPIO_SetBits:0000000000000000 .L0 
C:\Users\SOLDER~1\AppData\Local\Temp\ccdovRCu.s:732    .text.GPIO_SetBits:0000000000000002 .L0 
C:\Users\SOLDER~1\AppData\Local\Temp\ccdovRCu.s:734    .text.GPIO_SetBits:0000000000000004 .L0 
C:\Users\SOLDER~1\AppData\Local\Temp\ccdovRCu.s:736    .text.GPIO_SetBits:0000000000000006 .L0 
C:\Users\SOLDER~1\AppData\Local\Temp\ccdovRCu.s:741    .text.GPIO_SetBits:0000000000000010 .L0 
C:\Users\SOLDER~1\AppData\Local\Temp\ccdovRCu.s:745    .text.GPIO_SetBits:000000000000001c .L0 
C:\Users\SOLDER~1\AppData\Local\Temp\ccdovRCu.s:749    .text.GPIO_SetBits:0000000000000026 .L0 
C:\Users\SOLDER~1\AppData\Local\Temp\ccdovRCu.s:754    .text.GPIO_SetBits:0000000000000030 .L0 
C:\Users\SOLDER~1\AppData\Local\Temp\ccdovRCu.s:758    .text.GPIO_SetBits:000000000000003a .L0 
C:\Users\SOLDER~1\AppData\Local\Temp\ccdovRCu.s:760    .text.GPIO_SetBits:000000000000003e .L0 
C:\Users\SOLDER~1\AppData\Local\Temp\ccdovRCu.s:761    .text.GPIO_SetBits:000000000000003e .L0 
C:\Users\SOLDER~1\AppData\Local\Temp\ccdovRCu.s:763    .text.GPIO_SetBits:0000000000000040 .L0 
C:\Users\SOLDER~1\AppData\Local\Temp\ccdovRCu.s:765    .text.GPIO_SetBits:0000000000000042 .L0 
C:\Users\SOLDER~1\AppData\Local\Temp\ccdovRCu.s:772    .text.GPIO_ResetBits:0000000000000000 GPIO_ResetBits
C:\Users\SOLDER~1\AppData\Local\Temp\ccdovRCu.s:775    .text.GPIO_ResetBits:0000000000000000 .L0 
C:\Users\SOLDER~1\AppData\Local\Temp\ccdovRCu.s:776    .text.GPIO_ResetBits:0000000000000000 $x
C:\Users\SOLDER~1\AppData\Local\Temp\ccdovRCu.s:776    .text.GPIO_ResetBits:0000000000000000 .L0 
C:\Users\SOLDER~1\AppData\Local\Temp\ccdovRCu.s:777    .text.GPIO_ResetBits:0000000000000002 .L0 
C:\Users\SOLDER~1\AppData\Local\Temp\ccdovRCu.s:779    .text.GPIO_ResetBits:0000000000000004 .L0 
C:\Users\SOLDER~1\AppData\Local\Temp\ccdovRCu.s:781    .text.GPIO_ResetBits:0000000000000006 .L0 
C:\Users\SOLDER~1\AppData\Local\Temp\ccdovRCu.s:786    .text.GPIO_ResetBits:0000000000000010 .L0 
C:\Users\SOLDER~1\AppData\Local\Temp\ccdovRCu.s:790    .text.GPIO_ResetBits:000000000000001c .L0 
C:\Users\SOLDER~1\AppData\Local\Temp\ccdovRCu.s:794    .text.GPIO_ResetBits:0000000000000026 .L0 
C:\Users\SOLDER~1\AppData\Local\Temp\ccdovRCu.s:799    .text.GPIO_ResetBits:0000000000000030 .L0 
C:\Users\SOLDER~1\AppData\Local\Temp\ccdovRCu.s:803    .text.GPIO_ResetBits:000000000000003a .L0 
C:\Users\SOLDER~1\AppData\Local\Temp\ccdovRCu.s:805    .text.GPIO_ResetBits:000000000000003e .L0 
C:\Users\SOLDER~1\AppData\Local\Temp\ccdovRCu.s:806    .text.GPIO_ResetBits:000000000000003e .L0 
C:\Users\SOLDER~1\AppData\Local\Temp\ccdovRCu.s:808    .text.GPIO_ResetBits:0000000000000040 .L0 
C:\Users\SOLDER~1\AppData\Local\Temp\ccdovRCu.s:810    .text.GPIO_ResetBits:0000000000000042 .L0 
C:\Users\SOLDER~1\AppData\Local\Temp\ccdovRCu.s:817    .text.GPIO_WriteBit:0000000000000000 GPIO_WriteBit
C:\Users\SOLDER~1\AppData\Local\Temp\ccdovRCu.s:820    .text.GPIO_WriteBit:0000000000000000 .L0 
C:\Users\SOLDER~1\AppData\Local\Temp\ccdovRCu.s:821    .text.GPIO_WriteBit:0000000000000000 $x
C:\Users\SOLDER~1\AppData\Local\Temp\ccdovRCu.s:821    .text.GPIO_WriteBit:0000000000000000 .L0 
C:\Users\SOLDER~1\AppData\Local\Temp\ccdovRCu.s:822    .text.GPIO_WriteBit:0000000000000002 .L0 
C:\Users\SOLDER~1\AppData\Local\Temp\ccdovRCu.s:824    .text.GPIO_WriteBit:0000000000000004 .L0 
C:\Users\SOLDER~1\AppData\Local\Temp\ccdovRCu.s:826    .text.GPIO_WriteBit:0000000000000006 .L0 
C:\Users\SOLDER~1\AppData\Local\Temp\ccdovRCu.s:832    .text.GPIO_WriteBit:0000000000000014 .L0 
C:\Users\SOLDER~1\AppData\Local\Temp\ccdovRCu.s:836    .text.GPIO_WriteBit:0000000000000020 .L0 
C:\Users\SOLDER~1\AppData\Local\Temp\ccdovRCu.s:840    .text.GPIO_WriteBit:000000000000002a .L0 
C:\Users\SOLDER~1\AppData\Local\Temp\ccdovRCu.s:845    .text.GPIO_WriteBit:0000000000000034 .L0 
C:\Users\SOLDER~1\AppData\Local\Temp\ccdovRCu.s:848    .text.GPIO_WriteBit:000000000000003a .L0 
C:\Users\SOLDER~1\AppData\Local\Temp\ccdovRCu.s:852    .text.GPIO_WriteBit:0000000000000044 .L0 
GAS LISTING C:\Users\SOLDER~1\AppData\Local\Temp\ccdovRCu.s 			page 44


C:\Users\SOLDER~1\AppData\Local\Temp\ccdovRCu.s:855    .text.GPIO_WriteBit:0000000000000046 .L0 
C:\Users\SOLDER~1\AppData\Local\Temp\ccdovRCu.s:860    .text.GPIO_WriteBit:0000000000000050 .L0 
C:\Users\SOLDER~1\AppData\Local\Temp\ccdovRCu.s:862    .text.GPIO_WriteBit:0000000000000054 .L0 
C:\Users\SOLDER~1\AppData\Local\Temp\ccdovRCu.s:863    .text.GPIO_WriteBit:0000000000000054 .L0 
C:\Users\SOLDER~1\AppData\Local\Temp\ccdovRCu.s:865    .text.GPIO_WriteBit:0000000000000056 .L0 
C:\Users\SOLDER~1\AppData\Local\Temp\ccdovRCu.s:867    .text.GPIO_WriteBit:0000000000000058 .L0 
C:\Users\SOLDER~1\AppData\Local\Temp\ccdovRCu.s:874    .text.GPIO_Write:0000000000000000 GPIO_Write
C:\Users\SOLDER~1\AppData\Local\Temp\ccdovRCu.s:877    .text.GPIO_Write:0000000000000000 .L0 
C:\Users\SOLDER~1\AppData\Local\Temp\ccdovRCu.s:878    .text.GPIO_Write:0000000000000000 $x
C:\Users\SOLDER~1\AppData\Local\Temp\ccdovRCu.s:878    .text.GPIO_Write:0000000000000000 .L0 
C:\Users\SOLDER~1\AppData\Local\Temp\ccdovRCu.s:879    .text.GPIO_Write:0000000000000002 .L0 
C:\Users\SOLDER~1\AppData\Local\Temp\ccdovRCu.s:881    .text.GPIO_Write:0000000000000004 .L0 
C:\Users\SOLDER~1\AppData\Local\Temp\ccdovRCu.s:883    .text.GPIO_Write:0000000000000006 .L0 
C:\Users\SOLDER~1\AppData\Local\Temp\ccdovRCu.s:888    .text.GPIO_Write:0000000000000010 .L0 
C:\Users\SOLDER~1\AppData\Local\Temp\ccdovRCu.s:892    .text.GPIO_Write:000000000000001c .L0 
C:\Users\SOLDER~1\AppData\Local\Temp\ccdovRCu.s:896    .text.GPIO_Write:0000000000000026 .L0 
C:\Users\SOLDER~1\AppData\Local\Temp\ccdovRCu.s:901    .text.GPIO_Write:0000000000000030 .L0 
C:\Users\SOLDER~1\AppData\Local\Temp\ccdovRCu.s:905    .text.GPIO_Write:000000000000003a .L0 
C:\Users\SOLDER~1\AppData\Local\Temp\ccdovRCu.s:907    .text.GPIO_Write:000000000000003e .L0 
C:\Users\SOLDER~1\AppData\Local\Temp\ccdovRCu.s:908    .text.GPIO_Write:000000000000003e .L0 
C:\Users\SOLDER~1\AppData\Local\Temp\ccdovRCu.s:910    .text.GPIO_Write:0000000000000040 .L0 
C:\Users\SOLDER~1\AppData\Local\Temp\ccdovRCu.s:912    .text.GPIO_Write:0000000000000042 .L0 
C:\Users\SOLDER~1\AppData\Local\Temp\ccdovRCu.s:919    .text.GPIO_PinLockConfig:0000000000000000 GPIO_PinLockConfig
C:\Users\SOLDER~1\AppData\Local\Temp\ccdovRCu.s:922    .text.GPIO_PinLockConfig:0000000000000000 .L0 
C:\Users\SOLDER~1\AppData\Local\Temp\ccdovRCu.s:923    .text.GPIO_PinLockConfig:0000000000000000 $x
C:\Users\SOLDER~1\AppData\Local\Temp\ccdovRCu.s:923    .text.GPIO_PinLockConfig:0000000000000000 .L0 
C:\Users\SOLDER~1\AppData\Local\Temp\ccdovRCu.s:924    .text.GPIO_PinLockConfig:0000000000000002 .L0 
C:\Users\SOLDER~1\AppData\Local\Temp\ccdovRCu.s:926    .text.GPIO_PinLockConfig:0000000000000004 .L0 
C:\Users\SOLDER~1\AppData\Local\Temp\ccdovRCu.s:928    .text.GPIO_PinLockConfig:0000000000000006 .L0 
C:\Users\SOLDER~1\AppData\Local\Temp\ccdovRCu.s:933    .text.GPIO_PinLockConfig:0000000000000010 .L0 
C:\Users\SOLDER~1\AppData\Local\Temp\ccdovRCu.s:936    .text.GPIO_PinLockConfig:0000000000000016 .L0 
C:\Users\SOLDER~1\AppData\Local\Temp\ccdovRCu.s:940    .text.GPIO_PinLockConfig:0000000000000022 .L0 
C:\Users\SOLDER~1\AppData\Local\Temp\ccdovRCu.s:944    .text.GPIO_PinLockConfig:000000000000002c .L0 
C:\Users\SOLDER~1\AppData\Local\Temp\ccdovRCu.s:949    .text.GPIO_PinLockConfig:0000000000000036 .L0 
C:\Users\SOLDER~1\AppData\Local\Temp\ccdovRCu.s:954    .text.GPIO_PinLockConfig:0000000000000044 .L0 
C:\Users\SOLDER~1\AppData\Local\Temp\ccdovRCu.s:958    .text.GPIO_PinLockConfig:000000000000004e .L0 
C:\Users\SOLDER~1\AppData\Local\Temp\ccdovRCu.s:962    .text.GPIO_PinLockConfig:0000000000000058 .L0 
C:\Users\SOLDER~1\AppData\Local\Temp\ccdovRCu.s:966    .text.GPIO_PinLockConfig:0000000000000062 .L0 
C:\Users\SOLDER~1\AppData\Local\Temp\ccdovRCu.s:970    .text.GPIO_PinLockConfig:000000000000006c .L0 
C:\Users\SOLDER~1\AppData\Local\Temp\ccdovRCu.s:974    .text.GPIO_PinLockConfig:0000000000000076 .L0 
C:\Users\SOLDER~1\AppData\Local\Temp\ccdovRCu.s:976    .text.GPIO_PinLockConfig:000000000000007a .L0 
C:\Users\SOLDER~1\AppData\Local\Temp\ccdovRCu.s:977    .text.GPIO_PinLockConfig:000000000000007a .L0 
C:\Users\SOLDER~1\AppData\Local\Temp\ccdovRCu.s:979    .text.GPIO_PinLockConfig:000000000000007c .L0 
C:\Users\SOLDER~1\AppData\Local\Temp\ccdovRCu.s:981    .text.GPIO_PinLockConfig:000000000000007e .L0 
C:\Users\SOLDER~1\AppData\Local\Temp\ccdovRCu.s:988    .text.GPIO_EventOutputConfig:0000000000000000 GPIO_EventOutputConfig
C:\Users\SOLDER~1\AppData\Local\Temp\ccdovRCu.s:991    .text.GPIO_EventOutputConfig:0000000000000000 .L0 
C:\Users\SOLDER~1\AppData\Local\Temp\ccdovRCu.s:992    .text.GPIO_EventOutputConfig:0000000000000000 $x
C:\Users\SOLDER~1\AppData\Local\Temp\ccdovRCu.s:992    .text.GPIO_EventOutputConfig:0000000000000000 .L0 
C:\Users\SOLDER~1\AppData\Local\Temp\ccdovRCu.s:993    .text.GPIO_EventOutputConfig:0000000000000002 .L0 
C:\Users\SOLDER~1\AppData\Local\Temp\ccdovRCu.s:995    .text.GPIO_EventOutputConfig:0000000000000004 .L0 
C:\Users\SOLDER~1\AppData\Local\Temp\ccdovRCu.s:997    .text.GPIO_EventOutputConfig:0000000000000006 .L0 
C:\Users\SOLDER~1\AppData\Local\Temp\ccdovRCu.s:1004   .text.GPIO_EventOutputConfig:0000000000000014 .L0 
C:\Users\SOLDER~1\AppData\Local\Temp\ccdovRCu.s:1006   .text.GPIO_EventOutputConfig:0000000000000018 .L0 
C:\Users\SOLDER~1\AppData\Local\Temp\ccdovRCu.s:1008   .text.GPIO_EventOutputConfig:000000000000001c .L0 
C:\Users\SOLDER~1\AppData\Local\Temp\ccdovRCu.s:1011   .text.GPIO_EventOutputConfig:0000000000000022 .L0 
C:\Users\SOLDER~1\AppData\Local\Temp\ccdovRCu.s:1017   .text.GPIO_EventOutputConfig:0000000000000032 .L0 
C:\Users\SOLDER~1\AppData\Local\Temp\ccdovRCu.s:1019   .text.GPIO_EventOutputConfig:0000000000000036 .L0 
GAS LISTING C:\Users\SOLDER~1\AppData\Local\Temp\ccdovRCu.s 			page 45


C:\Users\SOLDER~1\AppData\Local\Temp\ccdovRCu.s:1021   .text.GPIO_EventOutputConfig:0000000000000038 .L0 
C:\Users\SOLDER~1\AppData\Local\Temp\ccdovRCu.s:1025   .text.GPIO_EventOutputConfig:0000000000000042 .L0 
C:\Users\SOLDER~1\AppData\Local\Temp\ccdovRCu.s:1030   .text.GPIO_EventOutputConfig:0000000000000050 .L0 
C:\Users\SOLDER~1\AppData\Local\Temp\ccdovRCu.s:1032   .text.GPIO_EventOutputConfig:0000000000000054 .L0 
C:\Users\SOLDER~1\AppData\Local\Temp\ccdovRCu.s:1035   .text.GPIO_EventOutputConfig:000000000000005a .L0 
C:\Users\SOLDER~1\AppData\Local\Temp\ccdovRCu.s:1037   .text.GPIO_EventOutputConfig:000000000000005e .L0 
C:\Users\SOLDER~1\AppData\Local\Temp\ccdovRCu.s:1038   .text.GPIO_EventOutputConfig:000000000000005e .L0 
C:\Users\SOLDER~1\AppData\Local\Temp\ccdovRCu.s:1040   .text.GPIO_EventOutputConfig:0000000000000060 .L0 
C:\Users\SOLDER~1\AppData\Local\Temp\ccdovRCu.s:1042   .text.GPIO_EventOutputConfig:0000000000000062 .L0 
C:\Users\SOLDER~1\AppData\Local\Temp\ccdovRCu.s:1049   .text.GPIO_EventOutputCmd:0000000000000000 GPIO_EventOutputCmd
C:\Users\SOLDER~1\AppData\Local\Temp\ccdovRCu.s:1052   .text.GPIO_EventOutputCmd:0000000000000000 .L0 
C:\Users\SOLDER~1\AppData\Local\Temp\ccdovRCu.s:1053   .text.GPIO_EventOutputCmd:0000000000000000 $x
C:\Users\SOLDER~1\AppData\Local\Temp\ccdovRCu.s:1053   .text.GPIO_EventOutputCmd:0000000000000000 .L0 
C:\Users\SOLDER~1\AppData\Local\Temp\ccdovRCu.s:1054   .text.GPIO_EventOutputCmd:0000000000000002 .L0 
C:\Users\SOLDER~1\AppData\Local\Temp\ccdovRCu.s:1056   .text.GPIO_EventOutputCmd:0000000000000004 .L0 
C:\Users\SOLDER~1\AppData\Local\Temp\ccdovRCu.s:1058   .text.GPIO_EventOutputCmd:0000000000000006 .L0 
C:\Users\SOLDER~1\AppData\Local\Temp\ccdovRCu.s:1061   .text.GPIO_EventOutputCmd:000000000000000a .L0 
C:\Users\SOLDER~1\AppData\Local\Temp\ccdovRCu.s:1064   .text.GPIO_EventOutputCmd:0000000000000010 .L0 
C:\Users\SOLDER~1\AppData\Local\Temp\ccdovRCu.s:1068   .text.GPIO_EventOutputCmd:000000000000001a .L0 
C:\Users\SOLDER~1\AppData\Local\Temp\ccdovRCu.s:1071   .text.GPIO_EventOutputCmd:0000000000000020 .L0 
C:\Users\SOLDER~1\AppData\Local\Temp\ccdovRCu.s:1074   .text.GPIO_EventOutputCmd:0000000000000022 .L0 
C:\Users\SOLDER~1\AppData\Local\Temp\ccdovRCu.s:1078   .text.GPIO_EventOutputCmd:000000000000002c .L0 
C:\Users\SOLDER~1\AppData\Local\Temp\ccdovRCu.s:1082   .text.GPIO_EventOutputCmd:0000000000000032 .L0 
C:\Users\SOLDER~1\AppData\Local\Temp\ccdovRCu.s:1084   .text.GPIO_EventOutputCmd:0000000000000036 .L0 
C:\Users\SOLDER~1\AppData\Local\Temp\ccdovRCu.s:1085   .text.GPIO_EventOutputCmd:0000000000000036 .L0 
C:\Users\SOLDER~1\AppData\Local\Temp\ccdovRCu.s:1087   .text.GPIO_EventOutputCmd:0000000000000038 .L0 
C:\Users\SOLDER~1\AppData\Local\Temp\ccdovRCu.s:1089   .text.GPIO_EventOutputCmd:000000000000003a .L0 
C:\Users\SOLDER~1\AppData\Local\Temp\ccdovRCu.s:1096   .text.GPIO_PinRemapConfig:0000000000000000 GPIO_PinRemapConfig
C:\Users\SOLDER~1\AppData\Local\Temp\ccdovRCu.s:1099   .text.GPIO_PinRemapConfig:0000000000000000 .L0 
C:\Users\SOLDER~1\AppData\Local\Temp\ccdovRCu.s:1100   .text.GPIO_PinRemapConfig:0000000000000000 $x
C:\Users\SOLDER~1\AppData\Local\Temp\ccdovRCu.s:1100   .text.GPIO_PinRemapConfig:0000000000000000 .L0 
C:\Users\SOLDER~1\AppData\Local\Temp\ccdovRCu.s:1101   .text.GPIO_PinRemapConfig:0000000000000002 .L0 
C:\Users\SOLDER~1\AppData\Local\Temp\ccdovRCu.s:1103   .text.GPIO_PinRemapConfig:0000000000000004 .L0 
C:\Users\SOLDER~1\AppData\Local\Temp\ccdovRCu.s:1105   .text.GPIO_PinRemapConfig:0000000000000006 .L0 
C:\Users\SOLDER~1\AppData\Local\Temp\ccdovRCu.s:1109   .text.GPIO_PinRemapConfig:000000000000000e .L0 
C:\Users\SOLDER~1\AppData\Local\Temp\ccdovRCu.s:1111   .text.GPIO_PinRemapConfig:0000000000000012 .L0 
C:\Users\SOLDER~1\AppData\Local\Temp\ccdovRCu.s:1113   .text.GPIO_PinRemapConfig:0000000000000016 .L0 
C:\Users\SOLDER~1\AppData\Local\Temp\ccdovRCu.s:1115   .text.GPIO_PinRemapConfig:000000000000001a .L0 
C:\Users\SOLDER~1\AppData\Local\Temp\ccdovRCu.s:1117   .text.GPIO_PinRemapConfig:000000000000001e .L0 
C:\Users\SOLDER~1\AppData\Local\Temp\ccdovRCu.s:1119   .text.GPIO_PinRemapConfig:0000000000000022 .L0 
C:\Users\SOLDER~1\AppData\Local\Temp\ccdovRCu.s:1121   .text.GPIO_PinRemapConfig:0000000000000026 .L0 
C:\Users\SOLDER~1\AppData\Local\Temp\ccdovRCu.s:1123   .text.GPIO_PinRemapConfig:000000000000002a .L0 
C:\Users\SOLDER~1\AppData\Local\Temp\ccdovRCu.s:1128   .text.GPIO_PinRemapConfig:0000000000000032 .L0 
C:\Users\SOLDER~1\AppData\Local\Temp\ccdovRCu.s:1130   .text.GPIO_PinRemapConfig:0000000000000036 .L0 
C:\Users\SOLDER~1\AppData\Local\Temp\ccdovRCu.s:1133   .text.GPIO_PinRemapConfig:000000000000003c .L0 
C:\Users\SOLDER~1\AppData\Local\Temp\ccdovRCu.s:1137   .text.GPIO_PinRemapConfig:0000000000000046 .L0 
C:\Users\SOLDER~1\AppData\Local\Temp\ccdovRCu.s:1140   .text.GPIO_PinRemapConfig:000000000000004c .L0 
C:\Users\SOLDER~1\AppData\Local\Temp\ccdovRCu.s:1142   .text.GPIO_PinRemapConfig:000000000000004e .L0 
C:\Users\SOLDER~1\AppData\Local\Temp\ccdovRCu.s:1145   .text.GPIO_PinRemapConfig:0000000000000056 .L0 
C:\Users\SOLDER~1\AppData\Local\Temp\ccdovRCu.s:1148   .text.GPIO_PinRemapConfig:000000000000005a .L0 
C:\Users\SOLDER~1\AppData\Local\Temp\ccdovRCu.s:1153   .text.GPIO_PinRemapConfig:0000000000000064 .L0 
C:\Users\SOLDER~1\AppData\Local\Temp\ccdovRCu.s:1157   .text.GPIO_PinRemapConfig:000000000000006a .L0 
C:\Users\SOLDER~1\AppData\Local\Temp\ccdovRCu.s:1160   .text.GPIO_PinRemapConfig:0000000000000070 .L0 
C:\Users\SOLDER~1\AppData\Local\Temp\ccdovRCu.s:1163   .text.GPIO_PinRemapConfig:0000000000000076 .L0 
C:\Users\SOLDER~1\AppData\Local\Temp\ccdovRCu.s:1169   .text.GPIO_PinRemapConfig:0000000000000084 .L0 
C:\Users\SOLDER~1\AppData\Local\Temp\ccdovRCu.s:1171   .text.GPIO_PinRemapConfig:0000000000000088 .L0 
C:\Users\SOLDER~1\AppData\Local\Temp\ccdovRCu.s:1173   .text.GPIO_PinRemapConfig:000000000000008c .L0 
GAS LISTING C:\Users\SOLDER~1\AppData\Local\Temp\ccdovRCu.s 			page 46


C:\Users\SOLDER~1\AppData\Local\Temp\ccdovRCu.s:1177   .text.GPIO_PinRemapConfig:0000000000000096 .L0 
C:\Users\SOLDER~1\AppData\Local\Temp\ccdovRCu.s:1180   .text.GPIO_PinRemapConfig:000000000000009e .L0 
C:\Users\SOLDER~1\AppData\Local\Temp\ccdovRCu.s:1183   .text.GPIO_PinRemapConfig:00000000000000a4 .L0 
C:\Users\SOLDER~1\AppData\Local\Temp\ccdovRCu.s:1187   .text.GPIO_PinRemapConfig:00000000000000ae .L0 
C:\Users\SOLDER~1\AppData\Local\Temp\ccdovRCu.s:1190   .text.GPIO_PinRemapConfig:00000000000000b6 .L0 
C:\Users\SOLDER~1\AppData\Local\Temp\ccdovRCu.s:1196   .text.GPIO_PinRemapConfig:00000000000000c2 .L0 
C:\Users\SOLDER~1\AppData\Local\Temp\ccdovRCu.s:1200   .text.GPIO_PinRemapConfig:00000000000000cc .L0 
C:\Users\SOLDER~1\AppData\Local\Temp\ccdovRCu.s:1202   .text.GPIO_PinRemapConfig:00000000000000ce .L0 
C:\Users\SOLDER~1\AppData\Local\Temp\ccdovRCu.s:1207   .text.GPIO_PinRemapConfig:00000000000000dc .L0 
C:\Users\SOLDER~1\AppData\Local\Temp\ccdovRCu.s:1210   .text.GPIO_PinRemapConfig:00000000000000e4 .L0 
C:\Users\SOLDER~1\AppData\Local\Temp\ccdovRCu.s:1216   .text.GPIO_PinRemapConfig:00000000000000f0 .L0 
C:\Users\SOLDER~1\AppData\Local\Temp\ccdovRCu.s:1219   .text.GPIO_PinRemapConfig:00000000000000f6 .L0 
C:\Users\SOLDER~1\AppData\Local\Temp\ccdovRCu.s:1221   .text.GPIO_PinRemapConfig:00000000000000f8 .L0 
C:\Users\SOLDER~1\AppData\Local\Temp\ccdovRCu.s:1224   .text.GPIO_PinRemapConfig:0000000000000100 .L0 
C:\Users\SOLDER~1\AppData\Local\Temp\ccdovRCu.s:1226   .text.GPIO_PinRemapConfig:0000000000000104 .L0 
C:\Users\SOLDER~1\AppData\Local\Temp\ccdovRCu.s:1232   .text.GPIO_PinRemapConfig:0000000000000110 .L0 
C:\Users\SOLDER~1\AppData\Local\Temp\ccdovRCu.s:1236   .text.GPIO_PinRemapConfig:000000000000011a .L0 
C:\Users\SOLDER~1\AppData\Local\Temp\ccdovRCu.s:1239   .text.GPIO_PinRemapConfig:0000000000000122 .L0 
C:\Users\SOLDER~1\AppData\Local\Temp\ccdovRCu.s:1245   .text.GPIO_PinRemapConfig:0000000000000132 .L0 
C:\Users\SOLDER~1\AppData\Local\Temp\ccdovRCu.s:1249   .text.GPIO_PinRemapConfig:000000000000013c .L0 
C:\Users\SOLDER~1\AppData\Local\Temp\ccdovRCu.s:1256   .text.GPIO_PinRemapConfig:0000000000000148 .L0 
C:\Users\SOLDER~1\AppData\Local\Temp\ccdovRCu.s:1260   .text.GPIO_PinRemapConfig:0000000000000152 .L0 
C:\Users\SOLDER~1\AppData\Local\Temp\ccdovRCu.s:1262   .text.GPIO_PinRemapConfig:0000000000000154 .L0 
C:\Users\SOLDER~1\AppData\Local\Temp\ccdovRCu.s:1267   .text.GPIO_PinRemapConfig:0000000000000162 .L0 
C:\Users\SOLDER~1\AppData\Local\Temp\ccdovRCu.s:1270   .text.GPIO_PinRemapConfig:000000000000016a .L0 
C:\Users\SOLDER~1\AppData\Local\Temp\ccdovRCu.s:1274   .text.GPIO_PinRemapConfig:0000000000000174 .L0 
C:\Users\SOLDER~1\AppData\Local\Temp\ccdovRCu.s:1281   .text.GPIO_PinRemapConfig:0000000000000184 .L0 
C:\Users\SOLDER~1\AppData\Local\Temp\ccdovRCu.s:1284   .text.GPIO_PinRemapConfig:000000000000018a .L0 
C:\Users\SOLDER~1\AppData\Local\Temp\ccdovRCu.s:1286   .text.GPIO_PinRemapConfig:000000000000018c .L0 
C:\Users\SOLDER~1\AppData\Local\Temp\ccdovRCu.s:1289   .text.GPIO_PinRemapConfig:0000000000000194 .L0 
C:\Users\SOLDER~1\AppData\Local\Temp\ccdovRCu.s:1291   .text.GPIO_PinRemapConfig:0000000000000198 .L0 
C:\Users\SOLDER~1\AppData\Local\Temp\ccdovRCu.s:1295   .text.GPIO_PinRemapConfig:00000000000001a2 .L0 
C:\Users\SOLDER~1\AppData\Local\Temp\ccdovRCu.s:1301   .text.GPIO_PinRemapConfig:00000000000001b0 .L0 
C:\Users\SOLDER~1\AppData\Local\Temp\ccdovRCu.s:1304   .text.GPIO_PinRemapConfig:00000000000001b6 .L0 
C:\Users\SOLDER~1\AppData\Local\Temp\ccdovRCu.s:1307   .text.GPIO_PinRemapConfig:00000000000001bc .L0 
C:\Users\SOLDER~1\AppData\Local\Temp\ccdovRCu.s:1309   .text.GPIO_PinRemapConfig:00000000000001be .L0 
C:\Users\SOLDER~1\AppData\Local\Temp\ccdovRCu.s:1312   .text.GPIO_PinRemapConfig:00000000000001c6 .L0 
C:\Users\SOLDER~1\AppData\Local\Temp\ccdovRCu.s:1317   .text.GPIO_PinRemapConfig:00000000000001d0 .L0 
C:\Users\SOLDER~1\AppData\Local\Temp\ccdovRCu.s:1319   .text.GPIO_PinRemapConfig:00000000000001d4 .L0 
C:\Users\SOLDER~1\AppData\Local\Temp\ccdovRCu.s:1321   .text.GPIO_PinRemapConfig:00000000000001d8 .L0 
C:\Users\SOLDER~1\AppData\Local\Temp\ccdovRCu.s:1323   .text.GPIO_PinRemapConfig:00000000000001dc .L0 
C:\Users\SOLDER~1\AppData\Local\Temp\ccdovRCu.s:1326   .text.GPIO_PinRemapConfig:00000000000001e2 .L0 
C:\Users\SOLDER~1\AppData\Local\Temp\ccdovRCu.s:1329   .text.GPIO_PinRemapConfig:00000000000001e4 .L0 
C:\Users\SOLDER~1\AppData\Local\Temp\ccdovRCu.s:1331   .text.GPIO_PinRemapConfig:00000000000001e8 .L0 
C:\Users\SOLDER~1\AppData\Local\Temp\ccdovRCu.s:1335   .text.GPIO_PinRemapConfig:00000000000001ee .L0 
C:\Users\SOLDER~1\AppData\Local\Temp\ccdovRCu.s:1337   .text.GPIO_PinRemapConfig:00000000000001f2 .L0 
C:\Users\SOLDER~1\AppData\Local\Temp\ccdovRCu.s:1338   .text.GPIO_PinRemapConfig:00000000000001f2 .L0 
C:\Users\SOLDER~1\AppData\Local\Temp\ccdovRCu.s:1340   .text.GPIO_PinRemapConfig:00000000000001f4 .L0 
C:\Users\SOLDER~1\AppData\Local\Temp\ccdovRCu.s:1342   .text.GPIO_PinRemapConfig:00000000000001f6 .L0 
C:\Users\SOLDER~1\AppData\Local\Temp\ccdovRCu.s:1349   .text.GPIO_EXTILineConfig:0000000000000000 GPIO_EXTILineConfig
C:\Users\SOLDER~1\AppData\Local\Temp\ccdovRCu.s:1352   .text.GPIO_EXTILineConfig:0000000000000000 .L0 
C:\Users\SOLDER~1\AppData\Local\Temp\ccdovRCu.s:1353   .text.GPIO_EXTILineConfig:0000000000000000 $x
C:\Users\SOLDER~1\AppData\Local\Temp\ccdovRCu.s:1353   .text.GPIO_EXTILineConfig:0000000000000000 .L0 
C:\Users\SOLDER~1\AppData\Local\Temp\ccdovRCu.s:1354   .text.GPIO_EXTILineConfig:0000000000000002 .L0 
C:\Users\SOLDER~1\AppData\Local\Temp\ccdovRCu.s:1356   .text.GPIO_EXTILineConfig:0000000000000004 .L0 
C:\Users\SOLDER~1\AppData\Local\Temp\ccdovRCu.s:1358   .text.GPIO_EXTILineConfig:0000000000000006 .L0 
C:\Users\SOLDER~1\AppData\Local\Temp\ccdovRCu.s:1365   .text.GPIO_EXTILineConfig:0000000000000014 .L0 
GAS LISTING C:\Users\SOLDER~1\AppData\Local\Temp\ccdovRCu.s 			page 47


C:\Users\SOLDER~1\AppData\Local\Temp\ccdovRCu.s:1367   .text.GPIO_EXTILineConfig:0000000000000018 .L0 
C:\Users\SOLDER~1\AppData\Local\Temp\ccdovRCu.s:1370   .text.GPIO_EXTILineConfig:000000000000001e .L0 
C:\Users\SOLDER~1\AppData\Local\Temp\ccdovRCu.s:1372   .text.GPIO_EXTILineConfig:0000000000000020 .L0 
C:\Users\SOLDER~1\AppData\Local\Temp\ccdovRCu.s:1376   .text.GPIO_EXTILineConfig:000000000000002a .L0 
C:\Users\SOLDER~1\AppData\Local\Temp\ccdovRCu.s:1378   .text.GPIO_EXTILineConfig:000000000000002e .L0 
C:\Users\SOLDER~1\AppData\Local\Temp\ccdovRCu.s:1385   .text.GPIO_EXTILineConfig:000000000000003e .L0 
C:\Users\SOLDER~1\AppData\Local\Temp\ccdovRCu.s:1388   .text.GPIO_EXTILineConfig:0000000000000046 .L0 
C:\Users\SOLDER~1\AppData\Local\Temp\ccdovRCu.s:1390   .text.GPIO_EXTILineConfig:000000000000004a .L0 
C:\Users\SOLDER~1\AppData\Local\Temp\ccdovRCu.s:1394   .text.GPIO_EXTILineConfig:0000000000000054 .L0 
C:\Users\SOLDER~1\AppData\Local\Temp\ccdovRCu.s:1399   .text.GPIO_EXTILineConfig:000000000000005e .L0 
C:\Users\SOLDER~1\AppData\Local\Temp\ccdovRCu.s:1401   .text.GPIO_EXTILineConfig:0000000000000062 .L0 
C:\Users\SOLDER~1\AppData\Local\Temp\ccdovRCu.s:1408   .text.GPIO_EXTILineConfig:0000000000000072 .L0 
C:\Users\SOLDER~1\AppData\Local\Temp\ccdovRCu.s:1410   .text.GPIO_EXTILineConfig:0000000000000076 .L0 
C:\Users\SOLDER~1\AppData\Local\Temp\ccdovRCu.s:1413   .text.GPIO_EXTILineConfig:000000000000007c .L0 
C:\Users\SOLDER~1\AppData\Local\Temp\ccdovRCu.s:1415   .text.GPIO_EXTILineConfig:000000000000007e .L0 
C:\Users\SOLDER~1\AppData\Local\Temp\ccdovRCu.s:1417   .text.GPIO_EXTILineConfig:0000000000000082 .L0 
C:\Users\SOLDER~1\AppData\Local\Temp\ccdovRCu.s:1419   .text.GPIO_EXTILineConfig:0000000000000086 .L0 
C:\Users\SOLDER~1\AppData\Local\Temp\ccdovRCu.s:1423   .text.GPIO_EXTILineConfig:0000000000000090 .L0 
C:\Users\SOLDER~1\AppData\Local\Temp\ccdovRCu.s:1428   .text.GPIO_EXTILineConfig:000000000000009a .L0 
C:\Users\SOLDER~1\AppData\Local\Temp\ccdovRCu.s:1430   .text.GPIO_EXTILineConfig:000000000000009e .L0 
C:\Users\SOLDER~1\AppData\Local\Temp\ccdovRCu.s:1431   .text.GPIO_EXTILineConfig:000000000000009e .L0 
C:\Users\SOLDER~1\AppData\Local\Temp\ccdovRCu.s:1433   .text.GPIO_EXTILineConfig:00000000000000a0 .L0 
C:\Users\SOLDER~1\AppData\Local\Temp\ccdovRCu.s:1435   .text.GPIO_EXTILineConfig:00000000000000a2 .L0 
C:\Users\SOLDER~1\AppData\Local\Temp\ccdovRCu.s:1442   .text.GPIO_ETH_MediaInterfaceConfig:0000000000000000 GPIO_ETH_MediaInterfaceConfig
C:\Users\SOLDER~1\AppData\Local\Temp\ccdovRCu.s:1445   .text.GPIO_ETH_MediaInterfaceConfig:0000000000000000 .L0 
C:\Users\SOLDER~1\AppData\Local\Temp\ccdovRCu.s:1446   .text.GPIO_ETH_MediaInterfaceConfig:0000000000000000 $x
C:\Users\SOLDER~1\AppData\Local\Temp\ccdovRCu.s:1446   .text.GPIO_ETH_MediaInterfaceConfig:0000000000000000 .L0 
C:\Users\SOLDER~1\AppData\Local\Temp\ccdovRCu.s:1447   .text.GPIO_ETH_MediaInterfaceConfig:0000000000000002 .L0 
C:\Users\SOLDER~1\AppData\Local\Temp\ccdovRCu.s:1449   .text.GPIO_ETH_MediaInterfaceConfig:0000000000000004 .L0 
C:\Users\SOLDER~1\AppData\Local\Temp\ccdovRCu.s:1451   .text.GPIO_ETH_MediaInterfaceConfig:0000000000000006 .L0 
C:\Users\SOLDER~1\AppData\Local\Temp\ccdovRCu.s:1454   .text.GPIO_ETH_MediaInterfaceConfig:000000000000000a .L0 
C:\Users\SOLDER~1\AppData\Local\Temp\ccdovRCu.s:1457   .text.GPIO_ETH_MediaInterfaceConfig:0000000000000010 .L0 
C:\Users\SOLDER~1\AppData\Local\Temp\ccdovRCu.s:1461   .text.GPIO_ETH_MediaInterfaceConfig:000000000000001a .L0 
C:\Users\SOLDER~1\AppData\Local\Temp\ccdovRCu.s:1465   .text.GPIO_ETH_MediaInterfaceConfig:0000000000000022 .L0 
C:\Users\SOLDER~1\AppData\Local\Temp\ccdovRCu.s:1468   .text.GPIO_ETH_MediaInterfaceConfig:0000000000000024 .L0 
C:\Users\SOLDER~1\AppData\Local\Temp\ccdovRCu.s:1472   .text.GPIO_ETH_MediaInterfaceConfig:000000000000002e .L0 
C:\Users\SOLDER~1\AppData\Local\Temp\ccdovRCu.s:1478   .text.GPIO_ETH_MediaInterfaceConfig:0000000000000038 .L0 
C:\Users\SOLDER~1\AppData\Local\Temp\ccdovRCu.s:1480   .text.GPIO_ETH_MediaInterfaceConfig:000000000000003c .L0 
C:\Users\SOLDER~1\AppData\Local\Temp\ccdovRCu.s:1481   .text.GPIO_ETH_MediaInterfaceConfig:000000000000003c .L0 
C:\Users\SOLDER~1\AppData\Local\Temp\ccdovRCu.s:1483   .text.GPIO_ETH_MediaInterfaceConfig:000000000000003e .L0 
C:\Users\SOLDER~1\AppData\Local\Temp\ccdovRCu.s:1485   .text.GPIO_ETH_MediaInterfaceConfig:0000000000000040 .L0 
C:\Users\SOLDER~1\AppData\Local\Temp\ccdovRCu.s:32179  .debug_line_str:0000000000000066 .L0 
C:\Users\SOLDER~1\AppData\Local\Temp\ccdovRCu.s:32179  .debug_line_str:00000000000000b0 .L0 
C:\Users\SOLDER~1\AppData\Local\Temp\ccdovRCu.s:32179  .debug_line_str:00000000000000bc .L0 
C:\Users\SOLDER~1\AppData\Local\Temp\ccdovRCu.s:32179  .debug_line_str:0000000000000109 .L0 
C:\Users\SOLDER~1\AppData\Local\Temp\ccdovRCu.s:32179  .debug_line_str:0000000000000152 .L0 
C:\Users\SOLDER~1\AppData\Local\Temp\ccdovRCu.s:32179  .debug_line_str:000000000000015e .L0 
C:\Users\SOLDER~1\AppData\Local\Temp\ccdovRCu.s:32179  .debug_line_str:00000000000001b2 .L0 
C:\Users\SOLDER~1\AppData\Local\Temp\ccdovRCu.s:32179  .debug_line_str:00000000000001f7 .L0 
C:\Users\SOLDER~1\AppData\Local\Temp\ccdovRCu.s:32179  .debug_line_str:0000000000000207 .L0 
C:\Users\SOLDER~1\AppData\Local\Temp\ccdovRCu.s:32179  .debug_line_str:0000000000000217 .L0 
C:\Users\SOLDER~1\AppData\Local\Temp\ccdovRCu.s:32179  .debug_line_str:0000000000000228 .L0 
C:\Users\SOLDER~1\AppData\Local\Temp\ccdovRCu.s:32179  .debug_line_str:0000000000000232 .L0 
C:\Users\SOLDER~1\AppData\Local\Temp\ccdovRCu.s:32179  .debug_line_str:000000000000023f .L0 
C:\Users\SOLDER~1\AppData\Local\Temp\ccdovRCu.s:32179  .debug_line_str:000000000000024a .L0 
C:\Users\SOLDER~1\AppData\Local\Temp\ccdovRCu.s:32179  .debug_line_str:000000000000025a .L0 
C:\Users\SOLDER~1\AppData\Local\Temp\ccdovRCu.s:32179  .debug_line_str:0000000000000269 .L0 
GAS LISTING C:\Users\SOLDER~1\AppData\Local\Temp\ccdovRCu.s 			page 48


C:\Users\SOLDER~1\AppData\Local\Temp\ccdovRCu.s:32179  .debug_line_str:0000000000000272 .L0 
C:\Users\SOLDER~1\AppData\Local\Temp\ccdovRCu.s:32179  .debug_line_str:000000000000027b .L0 
C:\Users\SOLDER~1\AppData\Local\Temp\ccdovRCu.s:32179  .debug_line_str:0000000000000286 .L0 
C:\Users\SOLDER~1\AppData\Local\Temp\ccdovRCu.s:32179  .debug_line_str:0000000000000298 .L0 
C:\Users\SOLDER~1\AppData\Local\Temp\ccdovRCu.s:32179  .debug_line_str:00000000000002a2 .L0 
C:\Users\SOLDER~1\AppData\Local\Temp\ccdovRCu.s:32179  .debug_line_str:00000000000002b2 .L0 
C:\Users\SOLDER~1\AppData\Local\Temp\ccdovRCu.s:32179  .debug_line_str:00000000000002c1 .L0 
C:\Users\SOLDER~1\AppData\Local\Temp\ccdovRCu.s:32179  .debug_line_str:00000000000002d0 .L0 
C:\Users\SOLDER~1\AppData\Local\Temp\ccdovRCu.s:32179  .debug_line_str:00000000000002df .L0 
C:\Users\SOLDER~1\AppData\Local\Temp\ccdovRCu.s:32179  .debug_line_str:00000000000002ee .L0 
C:\Users\SOLDER~1\AppData\Local\Temp\ccdovRCu.s:32179  .debug_line_str:0000000000000300 .L0 
C:\Users\SOLDER~1\AppData\Local\Temp\ccdovRCu.s:32179  .debug_line_str:000000000000030f .L0 
C:\Users\SOLDER~1\AppData\Local\Temp\ccdovRCu.s:32179  .debug_line_str:000000000000031f .L0 
C:\Users\SOLDER~1\AppData\Local\Temp\ccdovRCu.s:32179  .debug_line_str:0000000000000330 .L0 
C:\Users\SOLDER~1\AppData\Local\Temp\ccdovRCu.s:32179  .debug_line_str:000000000000033f .L0 
C:\Users\SOLDER~1\AppData\Local\Temp\ccdovRCu.s:32179  .debug_line_str:000000000000034f .L0 
C:\Users\SOLDER~1\AppData\Local\Temp\ccdovRCu.s:32179  .debug_line_str:000000000000035e .L0 
C:\Users\SOLDER~1\AppData\Local\Temp\ccdovRCu.s:32179  .debug_line_str:000000000000036d .L0 
C:\Users\SOLDER~1\AppData\Local\Temp\ccdovRCu.s:32179  .debug_line_str:000000000000037c .L0 
C:\Users\SOLDER~1\AppData\Local\Temp\ccdovRCu.s:32179  .debug_line_str:000000000000038b .L0 
C:\Users\SOLDER~1\AppData\Local\Temp\ccdovRCu.s:32179  .debug_line_str:000000000000039c .L0 
C:\Users\SOLDER~1\AppData\Local\Temp\ccdovRCu.s:32179  .debug_line_str:00000000000003ac .L0 
C:\Users\SOLDER~1\AppData\Local\Temp\ccdovRCu.s:124    .text.GPIO_DeInit:00000000000000ea .L0 
C:\Users\SOLDER~1\AppData\Local\Temp\ccdovRCu.s:161    .text.GPIO_AFIODeInit:000000000000002a .L0 
C:\Users\SOLDER~1\AppData\Local\Temp\ccdovRCu.s:457    .text.GPIO_Init:0000000000000268 .L0 
C:\Users\SOLDER~1\AppData\Local\Temp\ccdovRCu.s:495    .text.GPIO_StructInit:000000000000002a .L0 
C:\Users\SOLDER~1\AppData\Local\Temp\ccdovRCu.s:556    .text.GPIO_ReadInputDataBit:000000000000005a .L0 
C:\Users\SOLDER~1\AppData\Local\Temp\ccdovRCu.s:609    .text.GPIO_ReadInputData:0000000000000048 .L0 
C:\Users\SOLDER~1\AppData\Local\Temp\ccdovRCu.s:670    .text.GPIO_ReadOutputDataBit:000000000000005a .L0 
C:\Users\SOLDER~1\AppData\Local\Temp\ccdovRCu.s:723    .text.GPIO_ReadOutputData:0000000000000048 .L0 
C:\Users\SOLDER~1\AppData\Local\Temp\ccdovRCu.s:768    .text.GPIO_SetBits:0000000000000042 .L0 
C:\Users\SOLDER~1\AppData\Local\Temp\ccdovRCu.s:813    .text.GPIO_ResetBits:0000000000000042 .L0 
C:\Users\SOLDER~1\AppData\Local\Temp\ccdovRCu.s:870    .text.GPIO_WriteBit:0000000000000058 .L0 
C:\Users\SOLDER~1\AppData\Local\Temp\ccdovRCu.s:915    .text.GPIO_Write:0000000000000042 .L0 
C:\Users\SOLDER~1\AppData\Local\Temp\ccdovRCu.s:984    .text.GPIO_PinLockConfig:000000000000007e .L0 
C:\Users\SOLDER~1\AppData\Local\Temp\ccdovRCu.s:1045   .text.GPIO_EventOutputConfig:0000000000000062 .L0 
C:\Users\SOLDER~1\AppData\Local\Temp\ccdovRCu.s:1092   .text.GPIO_EventOutputCmd:000000000000003a .L0 
C:\Users\SOLDER~1\AppData\Local\Temp\ccdovRCu.s:1345   .text.GPIO_PinRemapConfig:00000000000001f6 .L0 
C:\Users\SOLDER~1\AppData\Local\Temp\ccdovRCu.s:1438   .text.GPIO_EXTILineConfig:00000000000000a2 .L0 
C:\Users\SOLDER~1\AppData\Local\Temp\ccdovRCu.s:1488   .text.GPIO_ETH_MediaInterfaceConfig:0000000000000040 .L0 
                     .debug_frame:0000000000000000 .L0 
C:\Users\SOLDER~1\AppData\Local\Temp\ccdovRCu.s:49     .text.GPIO_DeInit:0000000000000036 .L2
C:\Users\SOLDER~1\AppData\Local\Temp\ccdovRCu.s:110    .text.GPIO_DeInit:00000000000000e0 .L7
C:\Users\SOLDER~1\AppData\Local\Temp\ccdovRCu.s:65     .text.GPIO_DeInit:0000000000000060 .L4
C:\Users\SOLDER~1\AppData\Local\Temp\ccdovRCu.s:80     .text.GPIO_DeInit:0000000000000086 .L5
C:\Users\SOLDER~1\AppData\Local\Temp\ccdovRCu.s:96     .text.GPIO_DeInit:00000000000000b4 .L6
C:\Users\SOLDER~1\AppData\Local\Temp\ccdovRCu.s:209    .text.GPIO_Init:000000000000004c .L10
C:\Users\SOLDER~1\AppData\Local\Temp\ccdovRCu.s:223    .text.GPIO_Init:0000000000000068 .L11
C:\Users\SOLDER~1\AppData\Local\Temp\ccdovRCu.s:241    .text.GPIO_Init:0000000000000092 .L12
C:\Users\SOLDER~1\AppData\Local\Temp\ccdovRCu.s:341    .text.GPIO_Init:0000000000000176 .L13
C:\Users\SOLDER~1\AppData\Local\Temp\ccdovRCu.s:332    .text.GPIO_Init:0000000000000162 .L14
C:\Users\SOLDER~1\AppData\Local\Temp\ccdovRCu.s:327    .text.GPIO_Init:0000000000000158 .L15
C:\Users\SOLDER~1\AppData\Local\Temp\ccdovRCu.s:313    .text.GPIO_Init:000000000000013a .L16
C:\Users\SOLDER~1\AppData\Local\Temp\ccdovRCu.s:257    .text.GPIO_Init:00000000000000ae .L17
C:\Users\SOLDER~1\AppData\Local\Temp\ccdovRCu.s:445    .text.GPIO_Init:0000000000000260 .L23
C:\Users\SOLDER~1\AppData\Local\Temp\ccdovRCu.s:436    .text.GPIO_Init:000000000000024c .L19
C:\Users\SOLDER~1\AppData\Local\Temp\ccdovRCu.s:431    .text.GPIO_Init:0000000000000242 .L20
GAS LISTING C:\Users\SOLDER~1\AppData\Local\Temp\ccdovRCu.s 			page 49


C:\Users\SOLDER~1\AppData\Local\Temp\ccdovRCu.s:415    .text.GPIO_Init:0000000000000222 .L21
C:\Users\SOLDER~1\AppData\Local\Temp\ccdovRCu.s:356    .text.GPIO_Init:0000000000000194 .L22
C:\Users\SOLDER~1\AppData\Local\Temp\ccdovRCu.s:526    .text.GPIO_ReadInputDataBit:0000000000000034 .L26
C:\Users\SOLDER~1\AppData\Local\Temp\ccdovRCu.s:539    .text.GPIO_ReadInputDataBit:000000000000004a .L27
C:\Users\SOLDER~1\AppData\Local\Temp\ccdovRCu.s:542    .text.GPIO_ReadInputDataBit:000000000000004e .L28
C:\Users\SOLDER~1\AppData\Local\Temp\ccdovRCu.s:589    .text.GPIO_ReadInputData:0000000000000032 .L31
C:\Users\SOLDER~1\AppData\Local\Temp\ccdovRCu.s:595    .text.GPIO_ReadInputData:000000000000003c .L32
C:\Users\SOLDER~1\AppData\Local\Temp\ccdovRCu.s:640    .text.GPIO_ReadOutputDataBit:0000000000000034 .L35
C:\Users\SOLDER~1\AppData\Local\Temp\ccdovRCu.s:653    .text.GPIO_ReadOutputDataBit:000000000000004a .L36
C:\Users\SOLDER~1\AppData\Local\Temp\ccdovRCu.s:656    .text.GPIO_ReadOutputDataBit:000000000000004e .L37
C:\Users\SOLDER~1\AppData\Local\Temp\ccdovRCu.s:703    .text.GPIO_ReadOutputData:0000000000000032 .L40
C:\Users\SOLDER~1\AppData\Local\Temp\ccdovRCu.s:709    .text.GPIO_ReadOutputData:000000000000003c .L41
C:\Users\SOLDER~1\AppData\Local\Temp\ccdovRCu.s:752    .text.GPIO_SetBits:0000000000000030 .L44
C:\Users\SOLDER~1\AppData\Local\Temp\ccdovRCu.s:797    .text.GPIO_ResetBits:0000000000000030 .L46
C:\Users\SOLDER~1\AppData\Local\Temp\ccdovRCu.s:843    .text.GPIO_WriteBit:0000000000000034 .L48
C:\Users\SOLDER~1\AppData\Local\Temp\ccdovRCu.s:853    .text.GPIO_WriteBit:0000000000000046 .L49
C:\Users\SOLDER~1\AppData\Local\Temp\ccdovRCu.s:858    .text.GPIO_WriteBit:0000000000000050 .L51
C:\Users\SOLDER~1\AppData\Local\Temp\ccdovRCu.s:899    .text.GPIO_Write:0000000000000030 .L53
C:\Users\SOLDER~1\AppData\Local\Temp\ccdovRCu.s:947    .text.GPIO_PinLockConfig:0000000000000036 .L55
C:\Users\SOLDER~1\AppData\Local\Temp\ccdovRCu.s:1072   .text.GPIO_EventOutputCmd:0000000000000022 .L58
C:\Users\SOLDER~1\AppData\Local\Temp\ccdovRCu.s:1080   .text.GPIO_EventOutputCmd:0000000000000032 .L60
C:\Users\SOLDER~1\AppData\Local\Temp\ccdovRCu.s:1126   .text.GPIO_PinRemapConfig:0000000000000032 .L62
C:\Users\SOLDER~1\AppData\Local\Temp\ccdovRCu.s:1155   .text.GPIO_PinRemapConfig:000000000000006a .L63
C:\Users\SOLDER~1\AppData\Local\Temp\ccdovRCu.s:1230   .text.GPIO_PinRemapConfig:0000000000000110 .L64
C:\Users\SOLDER~1\AppData\Local\Temp\ccdovRCu.s:1194   .text.GPIO_PinRemapConfig:00000000000000c2 .L65
C:\Users\SOLDER~1\AppData\Local\Temp\ccdovRCu.s:1299   .text.GPIO_PinRemapConfig:00000000000001b0 .L66
C:\Users\SOLDER~1\AppData\Local\Temp\ccdovRCu.s:1214   .text.GPIO_PinRemapConfig:00000000000000f0 .L67
C:\Users\SOLDER~1\AppData\Local\Temp\ccdovRCu.s:1254   .text.GPIO_PinRemapConfig:0000000000000148 .L68
C:\Users\SOLDER~1\AppData\Local\Temp\ccdovRCu.s:1279   .text.GPIO_PinRemapConfig:0000000000000184 .L69
C:\Users\SOLDER~1\AppData\Local\Temp\ccdovRCu.s:1315   .text.GPIO_PinRemapConfig:00000000000001d0 .L70
C:\Users\SOLDER~1\AppData\Local\Temp\ccdovRCu.s:1327   .text.GPIO_PinRemapConfig:00000000000001e4 .L71
C:\Users\SOLDER~1\AppData\Local\Temp\ccdovRCu.s:1333   .text.GPIO_PinRemapConfig:00000000000001ee .L73
C:\Users\SOLDER~1\AppData\Local\Temp\ccdovRCu.s:1466   .text.GPIO_ETH_MediaInterfaceConfig:0000000000000024 .L76
C:\Users\SOLDER~1\AppData\Local\Temp\ccdovRCu.s:1476   .text.GPIO_ETH_MediaInterfaceConfig:0000000000000038 .L78
C:\Users\SOLDER~1\AppData\Local\Temp\ccdovRCu.s:2366   .debug_abbrev:0000000000000000 .Ldebug_abbrev0
C:\Users\SOLDER~1\AppData\Local\Temp\ccdovRCu.s:20666  .debug_str:000000000000067a .LASF5801
C:\Users\SOLDER~1\AppData\Local\Temp\ccdovRCu.s:32175  .debug_line_str:0000000000000000 .LASF0
C:\Users\SOLDER~1\AppData\Local\Temp\ccdovRCu.s:32177  .debug_line_str:000000000000001c .LASF1
C:\Users\SOLDER~1\AppData\Local\Temp\ccdovRCu.s:2974   .debug_rnglists:000000000000000c .LLRL0
C:\Users\SOLDER~1\AppData\Local\Temp\ccdovRCu.s:20564  .debug_line:0000000000000000 .Ldebug_line0
C:\Users\SOLDER~1\AppData\Local\Temp\ccdovRCu.s:3032   .debug_macro:0000000000000000 .Ldebug_macro0
C:\Users\SOLDER~1\AppData\Local\Temp\ccdovRCu.s:32114  .debug_str:000000000002ee1e .LASF5718
C:\Users\SOLDER~1\AppData\Local\Temp\ccdovRCu.s:26868  .debug_str:00000000000199e8 .LASF5719
C:\Users\SOLDER~1\AppData\Local\Temp\ccdovRCu.s:22846  .debug_str:000000000000938e .LASF5722
C:\Users\SOLDER~1\AppData\Local\Temp\ccdovRCu.s:26360  .debug_str:0000000000017907 .LASF5720
C:\Users\SOLDER~1\AppData\Local\Temp\ccdovRCu.s:25650  .debug_str:0000000000014b9d .LASF5721
C:\Users\SOLDER~1\AppData\Local\Temp\ccdovRCu.s:24200  .debug_str:000000000000ecb8 .LASF5723
C:\Users\SOLDER~1\AppData\Local\Temp\ccdovRCu.s:29860  .debug_str:0000000000025bc4 .LASF5724
C:\Users\SOLDER~1\AppData\Local\Temp\ccdovRCu.s:30142  .debug_str:0000000000026eec .LASF5725
C:\Users\SOLDER~1\AppData\Local\Temp\ccdovRCu.s:27066  .debug_str:000000000001a682 .LASF5726
C:\Users\SOLDER~1\AppData\Local\Temp\ccdovRCu.s:20676  .debug_str:00000000000007ad .LASF5727
C:\Users\SOLDER~1\AppData\Local\Temp\ccdovRCu.s:20586  .debug_str:000000000000014b .LASF5728
C:\Users\SOLDER~1\AppData\Local\Temp\ccdovRCu.s:30232  .debug_str:00000000000274a8 .LASF5729
C:\Users\SOLDER~1\AppData\Local\Temp\ccdovRCu.s:29800  .debug_str:00000000000257bd .LASF5730
C:\Users\SOLDER~1\AppData\Local\Temp\ccdovRCu.s:30158  .debug_str:0000000000026fd9 .LASF5731
C:\Users\SOLDER~1\AppData\Local\Temp\ccdovRCu.s:21414  .debug_str:0000000000003729 .LASF5732
C:\Users\SOLDER~1\AppData\Local\Temp\ccdovRCu.s:22660  .debug_str:000000000000875e .LASF5733
GAS LISTING C:\Users\SOLDER~1\AppData\Local\Temp\ccdovRCu.s 			page 50


C:\Users\SOLDER~1\AppData\Local\Temp\ccdovRCu.s:24182  .debug_str:000000000000ebb6 .LASF5734
C:\Users\SOLDER~1\AppData\Local\Temp\ccdovRCu.s:26114  .debug_str:0000000000016929 .LASF5735
C:\Users\SOLDER~1\AppData\Local\Temp\ccdovRCu.s:28618  .debug_str:0000000000020b6f .LASF5736
C:\Users\SOLDER~1\AppData\Local\Temp\ccdovRCu.s:28272  .debug_str:000000000001f556 .LASF5737
C:\Users\SOLDER~1\AppData\Local\Temp\ccdovRCu.s:28720  .debug_str:00000000000211d7 .LASF5738
C:\Users\SOLDER~1\AppData\Local\Temp\ccdovRCu.s:25002  .debug_str:0000000000012041 .LASF5739
C:\Users\SOLDER~1\AppData\Local\Temp\ccdovRCu.s:25754  .debug_str:000000000001522e .LASF5740
C:\Users\SOLDER~1\AppData\Local\Temp\ccdovRCu.s:26468  .debug_str:0000000000017fd8 .LASF5741
C:\Users\SOLDER~1\AppData\Local\Temp\ccdovRCu.s:22618  .debug_str:00000000000084a9 .LASF5742
C:\Users\SOLDER~1\AppData\Local\Temp\ccdovRCu.s:21004  .debug_str:0000000000001d24 .LASF5743
C:\Users\SOLDER~1\AppData\Local\Temp\ccdovRCu.s:23716  .debug_str:000000000000cd4b .LASF5744
C:\Users\SOLDER~1\AppData\Local\Temp\ccdovRCu.s:23400  .debug_str:000000000000b7f0 .LASF5745
C:\Users\SOLDER~1\AppData\Local\Temp\ccdovRCu.s:21006  .debug_str:0000000000001d2a .LASF5746
C:\Users\SOLDER~1\AppData\Local\Temp\ccdovRCu.s:25426  .debug_str:0000000000013c7b .LASF5747
C:\Users\SOLDER~1\AppData\Local\Temp\ccdovRCu.s:30118  .debug_str:0000000000026d62 .LASF5748
C:\Users\SOLDER~1\AppData\Local\Temp\ccdovRCu.s:31984  .debug_str:000000000002e5f2 .LASF5749
C:\Users\SOLDER~1\AppData\Local\Temp\ccdovRCu.s:25688  .debug_str:0000000000014e1d .LASF5750
C:\Users\SOLDER~1\AppData\Local\Temp\ccdovRCu.s:22734  .debug_str:0000000000008bf3 .LASF5751
C:\Users\SOLDER~1\AppData\Local\Temp\ccdovRCu.s:25140  .debug_str:00000000000128ed .LASF5752
C:\Users\SOLDER~1\AppData\Local\Temp\ccdovRCu.s:24834  .debug_str:00000000000115aa .LASF5753
C:\Users\SOLDER~1\AppData\Local\Temp\ccdovRCu.s:30250  .debug_str:00000000000275d8 .LASF5754
C:\Users\SOLDER~1\AppData\Local\Temp\ccdovRCu.s:30278  .debug_str:00000000000277a4 .LASF5755
C:\Users\SOLDER~1\AppData\Local\Temp\ccdovRCu.s:31850  .debug_str:000000000002dda0 .LASF5756
C:\Users\SOLDER~1\AppData\Local\Temp\ccdovRCu.s:31968  .debug_str:000000000002e502 .LASF5757
C:\Users\SOLDER~1\AppData\Local\Temp\ccdovRCu.s:28456  .debug_str:000000000002010e .LASF5758
C:\Users\SOLDER~1\AppData\Local\Temp\ccdovRCu.s:28552  .debug_str:0000000000020752 .LASF5759
C:\Users\SOLDER~1\AppData\Local\Temp\ccdovRCu.s:30508  .debug_str:00000000000286d4 .LASF5760
C:\Users\SOLDER~1\AppData\Local\Temp\ccdovRCu.s:26090  .debug_str:00000000000167b9 .LASF5761
C:\Users\SOLDER~1\AppData\Local\Temp\ccdovRCu.s:24306  .debug_str:000000000000f373 .LASF5762
C:\Users\SOLDER~1\AppData\Local\Temp\ccdovRCu.s:29704  .debug_str:00000000000251aa .LASF5763
C:\Users\SOLDER~1\AppData\Local\Temp\ccdovRCu.s:26390  .debug_str:0000000000017aed .LASF5764
C:\Users\SOLDER~1\AppData\Local\Temp\ccdovRCu.s:27394  .debug_str:000000000001bb72 .LASF5765
C:\Users\SOLDER~1\AppData\Local\Temp\ccdovRCu.s:23368  .debug_str:000000000000b619 .LASF5766
C:\Users\SOLDER~1\AppData\Local\Temp\ccdovRCu.s:20816  .debug_str:0000000000001103 .LASF5767
C:\Users\SOLDER~1\AppData\Local\Temp\ccdovRCu.s:21386  .debug_str:000000000000357a .LASF5802
C:\Users\SOLDER~1\AppData\Local\Temp\ccdovRCu.s:28340  .debug_str:000000000001f9d8 .LASF5803
C:\Users\SOLDER~1\AppData\Local\Temp\ccdovRCu.s:23994  .debug_str:000000000000df3e .LASF5768
C:\Users\SOLDER~1\AppData\Local\Temp\ccdovRCu.s:1443   .text.GPIO_ETH_MediaInterfaceConfig:0000000000000000 .LFB33
C:\Users\SOLDER~1\AppData\Local\Temp\ccdovRCu.s:1486   .text.GPIO_ETH_MediaInterfaceConfig:0000000000000040 .LFE33
C:\Users\SOLDER~1\AppData\Local\Temp\ccdovRCu.s:22742  .debug_str:0000000000008c7b .LASF5770
C:\Users\SOLDER~1\AppData\Local\Temp\ccdovRCu.s:30738  .debug_str:000000000002958f .LASF5769
C:\Users\SOLDER~1\AppData\Local\Temp\ccdovRCu.s:1350   .text.GPIO_EXTILineConfig:0000000000000000 .LFB32
C:\Users\SOLDER~1\AppData\Local\Temp\ccdovRCu.s:1436   .text.GPIO_EXTILineConfig:00000000000000a2 .LFE32
C:\Users\SOLDER~1\AppData\Local\Temp\ccdovRCu.s:29850  .debug_str:0000000000025b22 .LASF5771
C:\Users\SOLDER~1\AppData\Local\Temp\ccdovRCu.s:29282  .debug_str:000000000002361e .LASF5772
C:\Users\SOLDER~1\AppData\Local\Temp\ccdovRCu.s:26452  .debug_str:0000000000017ebf .LASF5773
C:\Users\SOLDER~1\AppData\Local\Temp\ccdovRCu.s:1097   .text.GPIO_PinRemapConfig:0000000000000000 .LFB31
C:\Users\SOLDER~1\AppData\Local\Temp\ccdovRCu.s:1343   .text.GPIO_PinRemapConfig:00000000000001f6 .LFE31
C:\Users\SOLDER~1\AppData\Local\Temp\ccdovRCu.s:21026  .debug_str:0000000000001e4d .LASF5774
C:\Users\SOLDER~1\AppData\Local\Temp\ccdovRCu.s:21504  .debug_str:0000000000003cef .LASF5775
C:\Users\SOLDER~1\AppData\Local\Temp\ccdovRCu.s:31566  .debug_str:000000000002cb53 .LASF5776
C:\Users\SOLDER~1\AppData\Local\Temp\ccdovRCu.s:21224  .debug_str:0000000000002b42 .LASF5777
C:\Users\SOLDER~1\AppData\Local\Temp\ccdovRCu.s:28892  .debug_str:0000000000021d26 .LASF5778
C:\Users\SOLDER~1\AppData\Local\Temp\ccdovRCu.s:26324  .debug_str:00000000000176a6 .LASF5779
C:\Users\SOLDER~1\AppData\Local\Temp\ccdovRCu.s:1050   .text.GPIO_EventOutputCmd:0000000000000000 .LFB30
C:\Users\SOLDER~1\AppData\Local\Temp\ccdovRCu.s:1090   .text.GPIO_EventOutputCmd:000000000000003a .LFE30
C:\Users\SOLDER~1\AppData\Local\Temp\ccdovRCu.s:27660  .debug_str:000000000001cd44 .LASF5780
GAS LISTING C:\Users\SOLDER~1\AppData\Local\Temp\ccdovRCu.s 			page 51


C:\Users\SOLDER~1\AppData\Local\Temp\ccdovRCu.s:989    .text.GPIO_EventOutputConfig:0000000000000000 .LFB29
C:\Users\SOLDER~1\AppData\Local\Temp\ccdovRCu.s:1043   .text.GPIO_EventOutputConfig:0000000000000062 .LFE29
C:\Users\SOLDER~1\AppData\Local\Temp\ccdovRCu.s:27462  .debug_str:000000000001bfd1 .LASF5781
C:\Users\SOLDER~1\AppData\Local\Temp\ccdovRCu.s:920    .text.GPIO_PinLockConfig:0000000000000000 .LFB28
C:\Users\SOLDER~1\AppData\Local\Temp\ccdovRCu.s:982    .text.GPIO_PinLockConfig:000000000000007e .LFE28
C:\Users\SOLDER~1\AppData\Local\Temp\ccdovRCu.s:27796  .debug_str:000000000001d66c .LASF5782
C:\Users\SOLDER~1\AppData\Local\Temp\ccdovRCu.s:21892  .debug_str:00000000000054f8 .LASF5783
C:\Users\SOLDER~1\AppData\Local\Temp\ccdovRCu.s:875    .text.GPIO_Write:0000000000000000 .LFB27
C:\Users\SOLDER~1\AppData\Local\Temp\ccdovRCu.s:913    .text.GPIO_Write:0000000000000042 .LFE27
C:\Users\SOLDER~1\AppData\Local\Temp\ccdovRCu.s:27284  .debug_str:000000000001b4b4 .LASF5784
C:\Users\SOLDER~1\AppData\Local\Temp\ccdovRCu.s:30822  .debug_str:0000000000029aef .LASF5785
C:\Users\SOLDER~1\AppData\Local\Temp\ccdovRCu.s:818    .text.GPIO_WriteBit:0000000000000000 .LFB26
C:\Users\SOLDER~1\AppData\Local\Temp\ccdovRCu.s:868    .text.GPIO_WriteBit:0000000000000058 .LFE26
C:\Users\SOLDER~1\AppData\Local\Temp\ccdovRCu.s:24328  .debug_str:000000000000f4a4 .LASF5786
C:\Users\SOLDER~1\AppData\Local\Temp\ccdovRCu.s:32050  .debug_str:000000000002ea13 .LASF5787
C:\Users\SOLDER~1\AppData\Local\Temp\ccdovRCu.s:773    .text.GPIO_ResetBits:0000000000000000 .LFB25
C:\Users\SOLDER~1\AppData\Local\Temp\ccdovRCu.s:811    .text.GPIO_ResetBits:0000000000000042 .LFE25
C:\Users\SOLDER~1\AppData\Local\Temp\ccdovRCu.s:30874  .debug_str:0000000000029e0d .LASF5788
C:\Users\SOLDER~1\AppData\Local\Temp\ccdovRCu.s:728    .text.GPIO_SetBits:0000000000000000 .LFB24
C:\Users\SOLDER~1\AppData\Local\Temp\ccdovRCu.s:766    .text.GPIO_SetBits:0000000000000042 .LFE24
C:\Users\SOLDER~1\AppData\Local\Temp\ccdovRCu.s:27950  .debug_str:000000000001dff5 .LASF5789
C:\Users\SOLDER~1\AppData\Local\Temp\ccdovRCu.s:675    .text.GPIO_ReadOutputData:0000000000000000 .LFB23
C:\Users\SOLDER~1\AppData\Local\Temp\ccdovRCu.s:721    .text.GPIO_ReadOutputData:0000000000000048 .LFE23
C:\Users\SOLDER~1\AppData\Local\Temp\ccdovRCu.s:28274  .debug_str:000000000001f55c .LASF5790
C:\Users\SOLDER~1\AppData\Local\Temp\ccdovRCu.s:614    .text.GPIO_ReadOutputDataBit:0000000000000000 .LFB22
C:\Users\SOLDER~1\AppData\Local\Temp\ccdovRCu.s:668    .text.GPIO_ReadOutputDataBit:000000000000005a .LFE22
C:\Users\SOLDER~1\AppData\Local\Temp\ccdovRCu.s:25134  .debug_str:0000000000012893 .LASF5791
C:\Users\SOLDER~1\AppData\Local\Temp\ccdovRCu.s:32000  .debug_str:000000000002e6e2 .LASF5792
C:\Users\SOLDER~1\AppData\Local\Temp\ccdovRCu.s:561    .text.GPIO_ReadInputData:0000000000000000 .LFB21
C:\Users\SOLDER~1\AppData\Local\Temp\ccdovRCu.s:607    .text.GPIO_ReadInputData:0000000000000048 .LFE21
C:\Users\SOLDER~1\AppData\Local\Temp\ccdovRCu.s:27572  .debug_str:000000000001c720 .LASF5793
C:\Users\SOLDER~1\AppData\Local\Temp\ccdovRCu.s:500    .text.GPIO_ReadInputDataBit:0000000000000000 .LFB20
C:\Users\SOLDER~1\AppData\Local\Temp\ccdovRCu.s:554    .text.GPIO_ReadInputDataBit:000000000000005a .LFE20
C:\Users\SOLDER~1\AppData\Local\Temp\ccdovRCu.s:27700  .debug_str:000000000001d000 .LASF5794
C:\Users\SOLDER~1\AppData\Local\Temp\ccdovRCu.s:462    .text.GPIO_StructInit:0000000000000000 .LFB19
C:\Users\SOLDER~1\AppData\Local\Temp\ccdovRCu.s:493    .text.GPIO_StructInit:000000000000002a .LFE19
C:\Users\SOLDER~1\AppData\Local\Temp\ccdovRCu.s:30922  .debug_str:000000000002a151 .LASF5795
C:\Users\SOLDER~1\AppData\Local\Temp\ccdovRCu.s:25326  .debug_str:0000000000013552 .LASF5796
C:\Users\SOLDER~1\AppData\Local\Temp\ccdovRCu.s:166    .text.GPIO_Init:0000000000000000 .LFB18
C:\Users\SOLDER~1\AppData\Local\Temp\ccdovRCu.s:455    .text.GPIO_Init:0000000000000268 .LFE18
C:\Users\SOLDER~1\AppData\Local\Temp\ccdovRCu.s:20630  .debug_str:0000000000000435 .LASF5797
C:\Users\SOLDER~1\AppData\Local\Temp\ccdovRCu.s:21968  .debug_str:0000000000005a1d .LASF5798
C:\Users\SOLDER~1\AppData\Local\Temp\ccdovRCu.s:29128  .debug_str:0000000000022bf0 .LASF5799
C:\Users\SOLDER~1\AppData\Local\Temp\ccdovRCu.s:26416  .debug_str:0000000000017c6b .LASF5800
C:\Users\SOLDER~1\AppData\Local\Temp\ccdovRCu.s:28608  .debug_str:0000000000020ae0 .LASF5804
C:\Users\SOLDER~1\AppData\Local\Temp\ccdovRCu.s:129    .text.GPIO_AFIODeInit:0000000000000000 .LFB17
C:\Users\SOLDER~1\AppData\Local\Temp\ccdovRCu.s:159    .text.GPIO_AFIODeInit:000000000000002a .LFE17
C:\Users\SOLDER~1\AppData\Local\Temp\ccdovRCu.s:29890  .debug_str:0000000000025dc4 .LASF5805
C:\Users\SOLDER~1\AppData\Local\Temp\ccdovRCu.s:21     .text.GPIO_DeInit:0000000000000000 .LFB16
C:\Users\SOLDER~1\AppData\Local\Temp\ccdovRCu.s:122    .text.GPIO_DeInit:00000000000000ea .LFE16
C:\Users\SOLDER~1\AppData\Local\Temp\ccdovRCu.s:1497   .debug_info:0000000000000000 .Ldebug_info0
C:\Users\SOLDER~1\AppData\Local\Temp\ccdovRCu.s:3291   .debug_macro:0000000000000000 .Ldebug_macro2
C:\Users\SOLDER~1\AppData\Local\Temp\ccdovRCu.s:28996  .debug_str:0000000000022378 .LASF318
C:\Users\SOLDER~1\AppData\Local\Temp\ccdovRCu.s:4244   .debug_macro:0000000000000000 .Ldebug_macro3
C:\Users\SOLDER~1\AppData\Local\Temp\ccdovRCu.s:26964  .debug_str:0000000000019ffd .LASF336
C:\Users\SOLDER~1\AppData\Local\Temp\ccdovRCu.s:21618  .debug_str:000000000000440d .LASF337
C:\Users\SOLDER~1\AppData\Local\Temp\ccdovRCu.s:28960  .debug_str:0000000000022150 .LASF338
GAS LISTING C:\Users\SOLDER~1\AppData\Local\Temp\ccdovRCu.s 			page 52


C:\Users\SOLDER~1\AppData\Local\Temp\ccdovRCu.s:4300   .debug_macro:0000000000000000 .Ldebug_macro4
C:\Users\SOLDER~1\AppData\Local\Temp\ccdovRCu.s:4320   .debug_macro:0000000000000000 .Ldebug_macro5
C:\Users\SOLDER~1\AppData\Local\Temp\ccdovRCu.s:4385   .debug_macro:0000000000000000 .Ldebug_macro6
C:\Users\SOLDER~1\AppData\Local\Temp\ccdovRCu.s:4426   .debug_macro:0000000000000000 .Ldebug_macro7
C:\Users\SOLDER~1\AppData\Local\Temp\ccdovRCu.s:4551   .debug_macro:0000000000000000 .Ldebug_macro8
C:\Users\SOLDER~1\AppData\Local\Temp\ccdovRCu.s:4607   .debug_macro:0000000000000000 .Ldebug_macro9
C:\Users\SOLDER~1\AppData\Local\Temp\ccdovRCu.s:20936  .debug_str:0000000000001870 .LASF493
C:\Users\SOLDER~1\AppData\Local\Temp\ccdovRCu.s:4819   .debug_macro:0000000000000000 .Ldebug_macro10
C:\Users\SOLDER~1\AppData\Local\Temp\ccdovRCu.s:4857   .debug_macro:0000000000000000 .Ldebug_macro11
C:\Users\SOLDER~1\AppData\Local\Temp\ccdovRCu.s:21210  .debug_str:0000000000002a67 .LASF4592
C:\Users\SOLDER~1\AppData\Local\Temp\ccdovRCu.s:29762  .debug_str:0000000000025558 .LASF4593
C:\Users\SOLDER~1\AppData\Local\Temp\ccdovRCu.s:17123  .debug_macro:0000000000000000 .Ldebug_macro12
C:\Users\SOLDER~1\AppData\Local\Temp\ccdovRCu.s:17404  .debug_macro:0000000000000000 .Ldebug_macro13
C:\Users\SOLDER~1\AppData\Local\Temp\ccdovRCu.s:17556  .debug_macro:0000000000000000 .Ldebug_macro14
C:\Users\SOLDER~1\AppData\Local\Temp\ccdovRCu.s:26106  .debug_str:000000000001689b .LASF4851
C:\Users\SOLDER~1\AppData\Local\Temp\ccdovRCu.s:17909  .debug_macro:0000000000000000 .Ldebug_macro15
C:\Users\SOLDER~1\AppData\Local\Temp\ccdovRCu.s:17974  .debug_macro:0000000000000000 .Ldebug_macro16
C:\Users\SOLDER~1\AppData\Local\Temp\ccdovRCu.s:18243  .debug_macro:0000000000000000 .Ldebug_macro17
C:\Users\SOLDER~1\AppData\Local\Temp\ccdovRCu.s:18314  .debug_macro:0000000000000000 .Ldebug_macro18
C:\Users\SOLDER~1\AppData\Local\Temp\ccdovRCu.s:18478  .debug_macro:0000000000000000 .Ldebug_macro19
C:\Users\SOLDER~1\AppData\Local\Temp\ccdovRCu.s:18729  .debug_macro:0000000000000000 .Ldebug_macro20
C:\Users\SOLDER~1\AppData\Local\Temp\ccdovRCu.s:18770  .debug_macro:0000000000000000 .Ldebug_macro21
C:\Users\SOLDER~1\AppData\Local\Temp\ccdovRCu.s:18823  .debug_macro:0000000000000000 .Ldebug_macro22
C:\Users\SOLDER~1\AppData\Local\Temp\ccdovRCu.s:19224  .debug_macro:0000000000000000 .Ldebug_macro23
C:\Users\SOLDER~1\AppData\Local\Temp\ccdovRCu.s:19256  .debug_macro:0000000000000000 .Ldebug_macro24
C:\Users\SOLDER~1\AppData\Local\Temp\ccdovRCu.s:19486  .debug_macro:0000000000000000 .Ldebug_macro25
C:\Users\SOLDER~1\AppData\Local\Temp\ccdovRCu.s:20082  .debug_macro:0000000000000000 .Ldebug_macro26
C:\Users\SOLDER~1\AppData\Local\Temp\ccdovRCu.s:20252  .debug_macro:0000000000000000 .Ldebug_macro27
C:\Users\SOLDER~1\AppData\Local\Temp\ccdovRCu.s:20272  .debug_macro:0000000000000000 .Ldebug_macro28
C:\Users\SOLDER~1\AppData\Local\Temp\ccdovRCu.s:20295  .debug_macro:0000000000000000 .Ldebug_macro29
C:\Users\SOLDER~1\AppData\Local\Temp\ccdovRCu.s:22366  .debug_str:0000000000007481 .LASF5712
C:\Users\SOLDER~1\AppData\Local\Temp\ccdovRCu.s:23468  .debug_str:000000000000bc7c .LASF5713
C:\Users\SOLDER~1\AppData\Local\Temp\ccdovRCu.s:27968  .debug_str:000000000001e128 .LASF5714
C:\Users\SOLDER~1\AppData\Local\Temp\ccdovRCu.s:29708  .debug_str:00000000000251de .LASF5715
C:\Users\SOLDER~1\AppData\Local\Temp\ccdovRCu.s:22884  .debug_str:0000000000009615 .LASF5716
C:\Users\SOLDER~1\AppData\Local\Temp\ccdovRCu.s:23256  .debug_str:000000000000aede .LASF5717
C:\Users\SOLDER~1\AppData\Local\Temp\ccdovRCu.s:21994  .debug_str:0000000000005bdb .LASF2
C:\Users\SOLDER~1\AppData\Local\Temp\ccdovRCu.s:30930  .debug_str:000000000002a1bd .LASF3
C:\Users\SOLDER~1\AppData\Local\Temp\ccdovRCu.s:31298  .debug_str:000000000002b9e9 .LASF4
C:\Users\SOLDER~1\AppData\Local\Temp\ccdovRCu.s:24726  .debug_str:0000000000010e9d .LASF5
C:\Users\SOLDER~1\AppData\Local\Temp\ccdovRCu.s:26084  .debug_str:0000000000016761 .LASF6
C:\Users\SOLDER~1\AppData\Local\Temp\ccdovRCu.s:31716  .debug_str:000000000002d53b .LASF7
C:\Users\SOLDER~1\AppData\Local\Temp\ccdovRCu.s:24784  .debug_str:000000000001124f .LASF8
C:\Users\SOLDER~1\AppData\Local\Temp\ccdovRCu.s:25530  .debug_str:0000000000014392 .LASF9
C:\Users\SOLDER~1\AppData\Local\Temp\ccdovRCu.s:22728  .debug_str:0000000000008bb5 .LASF10
C:\Users\SOLDER~1\AppData\Local\Temp\ccdovRCu.s:30634  .debug_str:0000000000028eff .LASF11
C:\Users\SOLDER~1\AppData\Local\Temp\ccdovRCu.s:27156  .debug_str:000000000001ac61 .LASF12
C:\Users\SOLDER~1\AppData\Local\Temp\ccdovRCu.s:27010  .debug_str:000000000001a2ea .LASF13
C:\Users\SOLDER~1\AppData\Local\Temp\ccdovRCu.s:29566  .debug_str:00000000000248a3 .LASF14
C:\Users\SOLDER~1\AppData\Local\Temp\ccdovRCu.s:27030  .debug_str:000000000001a426 .LASF15
C:\Users\SOLDER~1\AppData\Local\Temp\ccdovRCu.s:23220  .debug_str:000000000000ac6d .LASF16
C:\Users\SOLDER~1\AppData\Local\Temp\ccdovRCu.s:28448  .debug_str:0000000000020092 .LASF17
C:\Users\SOLDER~1\AppData\Local\Temp\ccdovRCu.s:29178  .debug_str:0000000000022f44 .LASF18
C:\Users\SOLDER~1\AppData\Local\Temp\ccdovRCu.s:23264  .debug_str:000000000000af72 .LASF19
C:\Users\SOLDER~1\AppData\Local\Temp\ccdovRCu.s:22152  .debug_str:0000000000006648 .LASF20
C:\Users\SOLDER~1\AppData\Local\Temp\ccdovRCu.s:24262  .debug_str:000000000000f0b5 .LASF21
C:\Users\SOLDER~1\AppData\Local\Temp\ccdovRCu.s:30040  .debug_str:000000000002680e .LASF22
GAS LISTING C:\Users\SOLDER~1\AppData\Local\Temp\ccdovRCu.s 			page 53


C:\Users\SOLDER~1\AppData\Local\Temp\ccdovRCu.s:26840  .debug_str:0000000000019879 .LASF23
C:\Users\SOLDER~1\AppData\Local\Temp\ccdovRCu.s:26838  .debug_str:000000000001985f .LASF24
C:\Users\SOLDER~1\AppData\Local\Temp\ccdovRCu.s:29492  .debug_str:00000000000243aa .LASF25
C:\Users\SOLDER~1\AppData\Local\Temp\ccdovRCu.s:30156  .debug_str:0000000000026fca .LASF26
C:\Users\SOLDER~1\AppData\Local\Temp\ccdovRCu.s:21512  .debug_str:0000000000003d60 .LASF27
C:\Users\SOLDER~1\AppData\Local\Temp\ccdovRCu.s:26228  .debug_str:0000000000017044 .LASF28
C:\Users\SOLDER~1\AppData\Local\Temp\ccdovRCu.s:29296  .debug_str:0000000000023716 .LASF29
C:\Users\SOLDER~1\AppData\Local\Temp\ccdovRCu.s:29188  .debug_str:0000000000022fec .LASF30
C:\Users\SOLDER~1\AppData\Local\Temp\ccdovRCu.s:21934  .debug_str:00000000000057b5 .LASF31
C:\Users\SOLDER~1\AppData\Local\Temp\ccdovRCu.s:28226  .debug_str:000000000001f222 .LASF32
C:\Users\SOLDER~1\AppData\Local\Temp\ccdovRCu.s:20896  .debug_str:0000000000001612 .LASF33
C:\Users\SOLDER~1\AppData\Local\Temp\ccdovRCu.s:24950  .debug_str:0000000000011d03 .LASF34
C:\Users\SOLDER~1\AppData\Local\Temp\ccdovRCu.s:25896  .debug_str:0000000000015b89 .LASF35
C:\Users\SOLDER~1\AppData\Local\Temp\ccdovRCu.s:24016  .debug_str:000000000000e0b7 .LASF36
C:\Users\SOLDER~1\AppData\Local\Temp\ccdovRCu.s:23094  .debug_str:000000000000a3ff .LASF37
C:\Users\SOLDER~1\AppData\Local\Temp\ccdovRCu.s:22948  .debug_str:0000000000009a4f .LASF38
C:\Users\SOLDER~1\AppData\Local\Temp\ccdovRCu.s:24286  .debug_str:000000000000f228 .LASF39
C:\Users\SOLDER~1\AppData\Local\Temp\ccdovRCu.s:27262  .debug_str:000000000001b34e .LASF40
C:\Users\SOLDER~1\AppData\Local\Temp\ccdovRCu.s:22474  .debug_str:0000000000007b37 .LASF41
C:\Users\SOLDER~1\AppData\Local\Temp\ccdovRCu.s:24662  .debug_str:0000000000010a92 .LASF42
C:\Users\SOLDER~1\AppData\Local\Temp\ccdovRCu.s:30464  .debug_str:00000000000283f6 .LASF43
C:\Users\SOLDER~1\AppData\Local\Temp\ccdovRCu.s:21268  .debug_str:0000000000002de8 .LASF44
C:\Users\SOLDER~1\AppData\Local\Temp\ccdovRCu.s:24356  .debug_str:000000000000f66a .LASF45
C:\Users\SOLDER~1\AppData\Local\Temp\ccdovRCu.s:25262  .debug_str:00000000000130fe .LASF46
C:\Users\SOLDER~1\AppData\Local\Temp\ccdovRCu.s:29768  .debug_str:00000000000255c2 .LASF47
C:\Users\SOLDER~1\AppData\Local\Temp\ccdovRCu.s:27252  .debug_str:000000000001b2a3 .LASF48
C:\Users\SOLDER~1\AppData\Local\Temp\ccdovRCu.s:25116  .debug_str:0000000000012796 .LASF49
C:\Users\SOLDER~1\AppData\Local\Temp\ccdovRCu.s:21766  .debug_str:0000000000004d67 .LASF50
C:\Users\SOLDER~1\AppData\Local\Temp\ccdovRCu.s:25266  .debug_str:0000000000013136 .LASF51
C:\Users\SOLDER~1\AppData\Local\Temp\ccdovRCu.s:29948  .debug_str:00000000000261cd .LASF52
C:\Users\SOLDER~1\AppData\Local\Temp\ccdovRCu.s:24014  .debug_str:000000000000e097 .LASF53
C:\Users\SOLDER~1\AppData\Local\Temp\ccdovRCu.s:21108  .debug_str:00000000000023aa .LASF54
C:\Users\SOLDER~1\AppData\Local\Temp\ccdovRCu.s:20594  .debug_str:00000000000001b0 .LASF55
C:\Users\SOLDER~1\AppData\Local\Temp\ccdovRCu.s:31340  .debug_str:000000000002bcb5 .LASF56
C:\Users\SOLDER~1\AppData\Local\Temp\ccdovRCu.s:29362  .debug_str:0000000000023b36 .LASF57
C:\Users\SOLDER~1\AppData\Local\Temp\ccdovRCu.s:20680  .debug_str:00000000000007db .LASF58
C:\Users\SOLDER~1\AppData\Local\Temp\ccdovRCu.s:24626  .debug_str:0000000000010802 .LASF59
C:\Users\SOLDER~1\AppData\Local\Temp\ccdovRCu.s:22558  .debug_str:00000000000080d9 .LASF60
C:\Users\SOLDER~1\AppData\Local\Temp\ccdovRCu.s:29016  .debug_str:0000000000022488 .LASF61
C:\Users\SOLDER~1\AppData\Local\Temp\ccdovRCu.s:20848  .debug_str:00000000000012e8 .LASF62
C:\Users\SOLDER~1\AppData\Local\Temp\ccdovRCu.s:23902  .debug_str:000000000000d971 .LASF63
C:\Users\SOLDER~1\AppData\Local\Temp\ccdovRCu.s:26806  .debug_str:00000000000195f8 .LASF64
C:\Users\SOLDER~1\AppData\Local\Temp\ccdovRCu.s:27622  .debug_str:000000000001ca86 .LASF65
C:\Users\SOLDER~1\AppData\Local\Temp\ccdovRCu.s:21348  .debug_str:00000000000032fd .LASF66
C:\Users\SOLDER~1\AppData\Local\Temp\ccdovRCu.s:24004  .debug_str:000000000000dfe8 .LASF67
C:\Users\SOLDER~1\AppData\Local\Temp\ccdovRCu.s:23734  .debug_str:000000000000ce66 .LASF68
C:\Users\SOLDER~1\AppData\Local\Temp\ccdovRCu.s:27242  .debug_str:000000000001b21b .LASF69
C:\Users\SOLDER~1\AppData\Local\Temp\ccdovRCu.s:25892  .debug_str:0000000000015b42 .LASF70
C:\Users\SOLDER~1\AppData\Local\Temp\ccdovRCu.s:31098  .debug_str:000000000002aca8 .LASF71
C:\Users\SOLDER~1\AppData\Local\Temp\ccdovRCu.s:31564  .debug_str:000000000002cb40 .LASF72
C:\Users\SOLDER~1\AppData\Local\Temp\ccdovRCu.s:25070  .debug_str:000000000001245e .LASF73
C:\Users\SOLDER~1\AppData\Local\Temp\ccdovRCu.s:24174  .debug_str:000000000000eb51 .LASF74
C:\Users\SOLDER~1\AppData\Local\Temp\ccdovRCu.s:21784  .debug_str:0000000000004e7e .LASF75
C:\Users\SOLDER~1\AppData\Local\Temp\ccdovRCu.s:25106  .debug_str:00000000000126fc .LASF76
C:\Users\SOLDER~1\AppData\Local\Temp\ccdovRCu.s:23654  .debug_str:000000000000c8ef .LASF77
C:\Users\SOLDER~1\AppData\Local\Temp\ccdovRCu.s:25354  .debug_str:0000000000013726 .LASF78
C:\Users\SOLDER~1\AppData\Local\Temp\ccdovRCu.s:25898  .debug_str:0000000000015bb7 .LASF79
GAS LISTING C:\Users\SOLDER~1\AppData\Local\Temp\ccdovRCu.s 			page 54


C:\Users\SOLDER~1\AppData\Local\Temp\ccdovRCu.s:25294  .debug_str:0000000000013330 .LASF80
C:\Users\SOLDER~1\AppData\Local\Temp\ccdovRCu.s:29856  .debug_str:0000000000025b89 .LASF81
C:\Users\SOLDER~1\AppData\Local\Temp\ccdovRCu.s:27752  .debug_str:000000000001d35d .LASF82
C:\Users\SOLDER~1\AppData\Local\Temp\ccdovRCu.s:28190  .debug_str:000000000001eff2 .LASF83
C:\Users\SOLDER~1\AppData\Local\Temp\ccdovRCu.s:31084  .debug_str:000000000002abbc .LASF84
C:\Users\SOLDER~1\AppData\Local\Temp\ccdovRCu.s:23040  .debug_str:000000000000a05d .LASF85
C:\Users\SOLDER~1\AppData\Local\Temp\ccdovRCu.s:31226  .debug_str:000000000002b558 .LASF86
C:\Users\SOLDER~1\AppData\Local\Temp\ccdovRCu.s:25108  .debug_str:0000000000012723 .LASF87
C:\Users\SOLDER~1\AppData\Local\Temp\ccdovRCu.s:27268  .debug_str:000000000001b3ae .LASF88
C:\Users\SOLDER~1\AppData\Local\Temp\ccdovRCu.s:22292  .debug_str:0000000000006fe2 .LASF89
C:\Users\SOLDER~1\AppData\Local\Temp\ccdovRCu.s:31558  .debug_str:000000000002cade .LASF90
C:\Users\SOLDER~1\AppData\Local\Temp\ccdovRCu.s:31252  .debug_str:000000000002b6da .LASF91
C:\Users\SOLDER~1\AppData\Local\Temp\ccdovRCu.s:28616  .debug_str:0000000000020b4b .LASF92
C:\Users\SOLDER~1\AppData\Local\Temp\ccdovRCu.s:27342  .debug_str:000000000001b84e .LASF93
C:\Users\SOLDER~1\AppData\Local\Temp\ccdovRCu.s:28642  .debug_str:0000000000020cec .LASF94
C:\Users\SOLDER~1\AppData\Local\Temp\ccdovRCu.s:31474  .debug_str:000000000002c5a9 .LASF95
C:\Users\SOLDER~1\AppData\Local\Temp\ccdovRCu.s:30262  .debug_str:00000000000276a3 .LASF96
C:\Users\SOLDER~1\AppData\Local\Temp\ccdovRCu.s:23128  .debug_str:000000000000a646 .LASF97
C:\Users\SOLDER~1\AppData\Local\Temp\ccdovRCu.s:29486  .debug_str:000000000002432f .LASF98
C:\Users\SOLDER~1\AppData\Local\Temp\ccdovRCu.s:25592  .debug_str:00000000000147c7 .LASF99
C:\Users\SOLDER~1\AppData\Local\Temp\ccdovRCu.s:29646  .debug_str:0000000000024dfc .LASF100
C:\Users\SOLDER~1\AppData\Local\Temp\ccdovRCu.s:31754  .debug_str:000000000002d79c .LASF101
C:\Users\SOLDER~1\AppData\Local\Temp\ccdovRCu.s:25198  .debug_str:0000000000012cda .LASF102
C:\Users\SOLDER~1\AppData\Local\Temp\ccdovRCu.s:29200  .debug_str:000000000002309d .LASF103
C:\Users\SOLDER~1\AppData\Local\Temp\ccdovRCu.s:27822  .debug_str:000000000001d7fb .LASF104
C:\Users\SOLDER~1\AppData\Local\Temp\ccdovRCu.s:24680  .debug_str:0000000000010ba5 .LASF105
C:\Users\SOLDER~1\AppData\Local\Temp\ccdovRCu.s:22388  .debug_str:00000000000075e0 .LASF106
C:\Users\SOLDER~1\AppData\Local\Temp\ccdovRCu.s:24944  .debug_str:0000000000011c8e .LASF107
C:\Users\SOLDER~1\AppData\Local\Temp\ccdovRCu.s:23928  .debug_str:000000000000dafd .LASF108
C:\Users\SOLDER~1\AppData\Local\Temp\ccdovRCu.s:25124  .debug_str:0000000000012826 .LASF109
C:\Users\SOLDER~1\AppData\Local\Temp\ccdovRCu.s:21818  .debug_str:0000000000005075 .LASF110
C:\Users\SOLDER~1\AppData\Local\Temp\ccdovRCu.s:24938  .debug_str:0000000000011c38 .LASF111
C:\Users\SOLDER~1\AppData\Local\Temp\ccdovRCu.s:23924  .debug_str:000000000000dac8 .LASF112
C:\Users\SOLDER~1\AppData\Local\Temp\ccdovRCu.s:25410  .debug_str:0000000000013b44 .LASF113
C:\Users\SOLDER~1\AppData\Local\Temp\ccdovRCu.s:24316  .debug_str:000000000000f3ed .LASF114
C:\Users\SOLDER~1\AppData\Local\Temp\ccdovRCu.s:26892  .debug_str:0000000000019b78 .LASF115
C:\Users\SOLDER~1\AppData\Local\Temp\ccdovRCu.s:23396  .debug_str:000000000000b7b2 .LASF116
C:\Users\SOLDER~1\AppData\Local\Temp\ccdovRCu.s:23122  .debug_str:000000000000a5bf .LASF117
C:\Users\SOLDER~1\AppData\Local\Temp\ccdovRCu.s:24482  .debug_str:000000000000ff36 .LASF118
C:\Users\SOLDER~1\AppData\Local\Temp\ccdovRCu.s:31134  .debug_str:000000000002af22 .LASF119
C:\Users\SOLDER~1\AppData\Local\Temp\ccdovRCu.s:26424  .debug_str:0000000000017cef .LASF120
C:\Users\SOLDER~1\AppData\Local\Temp\ccdovRCu.s:22888  .debug_str:000000000000965f .LASF121
C:\Users\SOLDER~1\AppData\Local\Temp\ccdovRCu.s:27606  .debug_str:000000000001c96d .LASF122
C:\Users\SOLDER~1\AppData\Local\Temp\ccdovRCu.s:31884  .debug_str:000000000002dff2 .LASF123
C:\Users\SOLDER~1\AppData\Local\Temp\ccdovRCu.s:24228  .debug_str:000000000000ee80 .LASF124
C:\Users\SOLDER~1\AppData\Local\Temp\ccdovRCu.s:24502  .debug_str:000000000001006b .LASF125
C:\Users\SOLDER~1\AppData\Local\Temp\ccdovRCu.s:23706  .debug_str:000000000000cc8f .LASF126
C:\Users\SOLDER~1\AppData\Local\Temp\ccdovRCu.s:23800  .debug_str:000000000000d2c6 .LASF127
C:\Users\SOLDER~1\AppData\Local\Temp\ccdovRCu.s:21448  .debug_str:0000000000003961 .LASF128
C:\Users\SOLDER~1\AppData\Local\Temp\ccdovRCu.s:21736  .debug_str:0000000000004b93 .LASF129
C:\Users\SOLDER~1\AppData\Local\Temp\ccdovRCu.s:30826  .debug_str:0000000000029b26 .LASF130
C:\Users\SOLDER~1\AppData\Local\Temp\ccdovRCu.s:25128  .debug_str:000000000001283e .LASF131
C:\Users\SOLDER~1\AppData\Local\Temp\ccdovRCu.s:28018  .debug_str:000000000001e45c .LASF132
C:\Users\SOLDER~1\AppData\Local\Temp\ccdovRCu.s:22958  .debug_str:0000000000009aea .LASF133
C:\Users\SOLDER~1\AppData\Local\Temp\ccdovRCu.s:30368  .debug_str:0000000000027d44 .LASF134
C:\Users\SOLDER~1\AppData\Local\Temp\ccdovRCu.s:30692  .debug_str:000000000002927b .LASF135
C:\Users\SOLDER~1\AppData\Local\Temp\ccdovRCu.s:30498  .debug_str:000000000002861a .LASF136
GAS LISTING C:\Users\SOLDER~1\AppData\Local\Temp\ccdovRCu.s 			page 55


C:\Users\SOLDER~1\AppData\Local\Temp\ccdovRCu.s:24206  .debug_str:000000000000ed05 .LASF137
C:\Users\SOLDER~1\AppData\Local\Temp\ccdovRCu.s:29756  .debug_str:00000000000254f6 .LASF138
C:\Users\SOLDER~1\AppData\Local\Temp\ccdovRCu.s:21722  .debug_str:0000000000004a86 .LASF139
C:\Users\SOLDER~1\AppData\Local\Temp\ccdovRCu.s:22602  .debug_str:00000000000083c5 .LASF140
C:\Users\SOLDER~1\AppData\Local\Temp\ccdovRCu.s:31556  .debug_str:000000000002caca .LASF141
C:\Users\SOLDER~1\AppData\Local\Temp\ccdovRCu.s:27502  .debug_str:000000000001c250 .LASF142
C:\Users\SOLDER~1\AppData\Local\Temp\ccdovRCu.s:31030  .debug_str:000000000002a883 .LASF143
C:\Users\SOLDER~1\AppData\Local\Temp\ccdovRCu.s:30132  .debug_str:0000000000026e47 .LASF144
C:\Users\SOLDER~1\AppData\Local\Temp\ccdovRCu.s:20996  .debug_str:0000000000001ca1 .LASF145
C:\Users\SOLDER~1\AppData\Local\Temp\ccdovRCu.s:23080  .debug_str:000000000000a2ff .LASF146
C:\Users\SOLDER~1\AppData\Local\Temp\ccdovRCu.s:25348  .debug_str:00000000000136cc .LASF147
C:\Users\SOLDER~1\AppData\Local\Temp\ccdovRCu.s:26856  .debug_str:0000000000019941 .LASF148
C:\Users\SOLDER~1\AppData\Local\Temp\ccdovRCu.s:25906  .debug_str:0000000000015c0f .LASF149
C:\Users\SOLDER~1\AppData\Local\Temp\ccdovRCu.s:23760  .debug_str:000000000000d017 .LASF150
C:\Users\SOLDER~1\AppData\Local\Temp\ccdovRCu.s:21782  .debug_str:0000000000004e67 .LASF151
C:\Users\SOLDER~1\AppData\Local\Temp\ccdovRCu.s:24352  .debug_str:000000000000f62c .LASF152
C:\Users\SOLDER~1\AppData\Local\Temp\ccdovRCu.s:26844  .debug_str:00000000000198a9 .LASF153
C:\Users\SOLDER~1\AppData\Local\Temp\ccdovRCu.s:20670  .debug_str:0000000000000756 .LASF154
C:\Users\SOLDER~1\AppData\Local\Temp\ccdovRCu.s:29190  .debug_str:0000000000023006 .LASF155
C:\Users\SOLDER~1\AppData\Local\Temp\ccdovRCu.s:25400  .debug_str:0000000000013a64 .LASF156
C:\Users\SOLDER~1\AppData\Local\Temp\ccdovRCu.s:30134  .debug_str:0000000000026e5f .LASF157
C:\Users\SOLDER~1\AppData\Local\Temp\ccdovRCu.s:27914  .debug_str:000000000001dd6d .LASF158
C:\Users\SOLDER~1\AppData\Local\Temp\ccdovRCu.s:30070  .debug_str:0000000000026a08 .LASF159
C:\Users\SOLDER~1\AppData\Local\Temp\ccdovRCu.s:30748  .debug_str:000000000002961c .LASF160
C:\Users\SOLDER~1\AppData\Local\Temp\ccdovRCu.s:28050  .debug_str:000000000001e649 .LASF161
C:\Users\SOLDER~1\AppData\Local\Temp\ccdovRCu.s:23634  .debug_str:000000000000c795 .LASF162
C:\Users\SOLDER~1\AppData\Local\Temp\ccdovRCu.s:22704  .debug_str:0000000000008a1e .LASF163
C:\Users\SOLDER~1\AppData\Local\Temp\ccdovRCu.s:25540  .debug_str:000000000001443a .LASF164
C:\Users\SOLDER~1\AppData\Local\Temp\ccdovRCu.s:27546  .debug_str:000000000001c58b .LASF165
C:\Users\SOLDER~1\AppData\Local\Temp\ccdovRCu.s:29008  .debug_str:000000000002242b .LASF166
C:\Users\SOLDER~1\AppData\Local\Temp\ccdovRCu.s:30626  .debug_str:0000000000028e80 .LASF167
C:\Users\SOLDER~1\AppData\Local\Temp\ccdovRCu.s:29746  .debug_str:000000000002543c .LASF168
C:\Users\SOLDER~1\AppData\Local\Temp\ccdovRCu.s:31456  .debug_str:000000000002c47b .LASF169
C:\Users\SOLDER~1\AppData\Local\Temp\ccdovRCu.s:22464  .debug_str:0000000000007a87 .LASF170
C:\Users\SOLDER~1\AppData\Local\Temp\ccdovRCu.s:31126  .debug_str:000000000002aea2 .LASF171
C:\Users\SOLDER~1\AppData\Local\Temp\ccdovRCu.s:22848  .debug_str:0000000000009398 .LASF172
C:\Users\SOLDER~1\AppData\Local\Temp\ccdovRCu.s:25082  .debug_str:000000000001250e .LASF173
C:\Users\SOLDER~1\AppData\Local\Temp\ccdovRCu.s:26650  .debug_str:0000000000018b6a .LASF174
C:\Users\SOLDER~1\AppData\Local\Temp\ccdovRCu.s:30558  .debug_str:00000000000289eb .LASF175
C:\Users\SOLDER~1\AppData\Local\Temp\ccdovRCu.s:27542  .debug_str:000000000001c51d .LASF176
C:\Users\SOLDER~1\AppData\Local\Temp\ccdovRCu.s:27832  .debug_str:000000000001d88f .LASF177
C:\Users\SOLDER~1\AppData\Local\Temp\ccdovRCu.s:23074  .debug_str:000000000000a2ba .LASF178
C:\Users\SOLDER~1\AppData\Local\Temp\ccdovRCu.s:25068  .debug_str:0000000000012446 .LASF179
C:\Users\SOLDER~1\AppData\Local\Temp\ccdovRCu.s:26968  .debug_str:000000000001a02b .LASF180
C:\Users\SOLDER~1\AppData\Local\Temp\ccdovRCu.s:22122  .debug_str:0000000000006463 .LASF181
C:\Users\SOLDER~1\AppData\Local\Temp\ccdovRCu.s:22932  .debug_str:000000000000995c .LASF182
C:\Users\SOLDER~1\AppData\Local\Temp\ccdovRCu.s:21586  .debug_str:000000000000421b .LASF183
C:\Users\SOLDER~1\AppData\Local\Temp\ccdovRCu.s:27024  .debug_str:000000000001a3c7 .LASF184
C:\Users\SOLDER~1\AppData\Local\Temp\ccdovRCu.s:25542  .debug_str:0000000000014451 .LASF185
C:\Users\SOLDER~1\AppData\Local\Temp\ccdovRCu.s:21102  .debug_str:000000000000233a .LASF186
C:\Users\SOLDER~1\AppData\Local\Temp\ccdovRCu.s:31752  .debug_str:000000000002d789 .LASF187
C:\Users\SOLDER~1\AppData\Local\Temp\ccdovRCu.s:20880  .debug_str:000000000000151d .LASF188
C:\Users\SOLDER~1\AppData\Local\Temp\ccdovRCu.s:25522  .debug_str:00000000000142f8 .LASF189
C:\Users\SOLDER~1\AppData\Local\Temp\ccdovRCu.s:25978  .debug_str:00000000000160b5 .LASF190
C:\Users\SOLDER~1\AppData\Local\Temp\ccdovRCu.s:30958  .debug_str:000000000002a39c .LASF191
C:\Users\SOLDER~1\AppData\Local\Temp\ccdovRCu.s:23960  .debug_str:000000000000dd02 .LASF192
C:\Users\SOLDER~1\AppData\Local\Temp\ccdovRCu.s:31428  .debug_str:000000000002c277 .LASF193
GAS LISTING C:\Users\SOLDER~1\AppData\Local\Temp\ccdovRCu.s 			page 56


C:\Users\SOLDER~1\AppData\Local\Temp\ccdovRCu.s:25488  .debug_str:000000000001408d .LASF194
C:\Users\SOLDER~1\AppData\Local\Temp\ccdovRCu.s:24248  .debug_str:000000000000efe5 .LASF195
C:\Users\SOLDER~1\AppData\Local\Temp\ccdovRCu.s:23276  .debug_str:000000000000b03d .LASF196
C:\Users\SOLDER~1\AppData\Local\Temp\ccdovRCu.s:28106  .debug_str:000000000001ea38 .LASF197
C:\Users\SOLDER~1\AppData\Local\Temp\ccdovRCu.s:31044  .debug_str:000000000002a976 .LASF198
C:\Users\SOLDER~1\AppData\Local\Temp\ccdovRCu.s:25776  .debug_str:00000000000153a3 .LASF199
C:\Users\SOLDER~1\AppData\Local\Temp\ccdovRCu.s:28306  .debug_str:000000000001f776 .LASF200
C:\Users\SOLDER~1\AppData\Local\Temp\ccdovRCu.s:20890  .debug_str:00000000000015bf .LASF201
C:\Users\SOLDER~1\AppData\Local\Temp\ccdovRCu.s:31980  .debug_str:000000000002e5b9 .LASF202
C:\Users\SOLDER~1\AppData\Local\Temp\ccdovRCu.s:25750  .debug_str:00000000000151f0 .LASF203
C:\Users\SOLDER~1\AppData\Local\Temp\ccdovRCu.s:28494  .debug_str:0000000000020373 .LASF204
C:\Users\SOLDER~1\AppData\Local\Temp\ccdovRCu.s:27044  .debug_str:000000000001a509 .LASF205
C:\Users\SOLDER~1\AppData\Local\Temp\ccdovRCu.s:22170  .debug_str:0000000000006786 .LASF206
C:\Users\SOLDER~1\AppData\Local\Temp\ccdovRCu.s:25764  .debug_str:00000000000152bc .LASF207
C:\Users\SOLDER~1\AppData\Local\Temp\ccdovRCu.s:27748  .debug_str:000000000001d2f6 .LASF208
C:\Users\SOLDER~1\AppData\Local\Temp\ccdovRCu.s:28732  .debug_str:0000000000021297 .LASF209
C:\Users\SOLDER~1\AppData\Local\Temp\ccdovRCu.s:24570  .debug_str:00000000000104ac .LASF210
C:\Users\SOLDER~1\AppData\Local\Temp\ccdovRCu.s:30136  .debug_str:0000000000026e9b .LASF211
C:\Users\SOLDER~1\AppData\Local\Temp\ccdovRCu.s:29934  .debug_str:00000000000260b7 .LASF212
C:\Users\SOLDER~1\AppData\Local\Temp\ccdovRCu.s:22410  .debug_str:0000000000007743 .LASF213
C:\Users\SOLDER~1\AppData\Local\Temp\ccdovRCu.s:29450  .debug_str:00000000000240dd .LASF214
C:\Users\SOLDER~1\AppData\Local\Temp\ccdovRCu.s:26064  .debug_str:0000000000016656 .LASF215
C:\Users\SOLDER~1\AppData\Local\Temp\ccdovRCu.s:22376  .debug_str:000000000000753c .LASF216
C:\Users\SOLDER~1\AppData\Local\Temp\ccdovRCu.s:22788  .debug_str:0000000000008fae .LASF217
C:\Users\SOLDER~1\AppData\Local\Temp\ccdovRCu.s:30010  .debug_str:0000000000026630 .LASF218
C:\Users\SOLDER~1\AppData\Local\Temp\ccdovRCu.s:28938  .debug_str:0000000000021fe7 .LASF219
C:\Users\SOLDER~1\AppData\Local\Temp\ccdovRCu.s:21200  .debug_str:00000000000029cf .LASF220
C:\Users\SOLDER~1\AppData\Local\Temp\ccdovRCu.s:22926  .debug_str:00000000000098b9 .LASF221
C:\Users\SOLDER~1\AppData\Local\Temp\ccdovRCu.s:20610  .debug_str:00000000000002c5 .LASF222
C:\Users\SOLDER~1\AppData\Local\Temp\ccdovRCu.s:28528  .debug_str:0000000000020592 .LASF223
C:\Users\SOLDER~1\AppData\Local\Temp\ccdovRCu.s:22834  .debug_str:00000000000092b6 .LASF224
C:\Users\SOLDER~1\AppData\Local\Temp\ccdovRCu.s:22178  .debug_str:0000000000006839 .LASF225
C:\Users\SOLDER~1\AppData\Local\Temp\ccdovRCu.s:28016  .debug_str:000000000001e445 .LASF226
C:\Users\SOLDER~1\AppData\Local\Temp\ccdovRCu.s:26164  .debug_str:0000000000016c5a .LASF227
C:\Users\SOLDER~1\AppData\Local\Temp\ccdovRCu.s:24490  .debug_str:000000000000ffa6 .LASF228
C:\Users\SOLDER~1\AppData\Local\Temp\ccdovRCu.s:28526  .debug_str:0000000000020579 .LASF229
C:\Users\SOLDER~1\AppData\Local\Temp\ccdovRCu.s:29574  .debug_str:0000000000024924 .LASF230
C:\Users\SOLDER~1\AppData\Local\Temp\ccdovRCu.s:24514  .debug_str:0000000000010119 .LASF231
C:\Users\SOLDER~1\AppData\Local\Temp\ccdovRCu.s:30364  .debug_str:0000000000027d08 .LASF232
C:\Users\SOLDER~1\AppData\Local\Temp\ccdovRCu.s:29638  .debug_str:0000000000024d77 .LASF233
C:\Users\SOLDER~1\AppData\Local\Temp\ccdovRCu.s:31404  .debug_str:000000000002c0c2 .LASF234
C:\Users\SOLDER~1\AppData\Local\Temp\ccdovRCu.s:22574  .debug_str:00000000000081fd .LASF235
C:\Users\SOLDER~1\AppData\Local\Temp\ccdovRCu.s:24564  .debug_str:0000000000010444 .LASF236
C:\Users\SOLDER~1\AppData\Local\Temp\ccdovRCu.s:24022  .debug_str:000000000000e120 .LASF237
C:\Users\SOLDER~1\AppData\Local\Temp\ccdovRCu.s:29808  .debug_str:0000000000025826 .LASF238
C:\Users\SOLDER~1\AppData\Local\Temp\ccdovRCu.s:25384  .debug_str:000000000001392a .LASF239
C:\Users\SOLDER~1\AppData\Local\Temp\ccdovRCu.s:28542  .debug_str:000000000002068c .LASF240
C:\Users\SOLDER~1\AppData\Local\Temp\ccdovRCu.s:26826  .debug_str:0000000000019762 .LASF241
C:\Users\SOLDER~1\AppData\Local\Temp\ccdovRCu.s:26368  .debug_str:000000000001795d .LASF242
C:\Users\SOLDER~1\AppData\Local\Temp\ccdovRCu.s:27846  .debug_str:000000000001d964 .LASF243
C:\Users\SOLDER~1\AppData\Local\Temp\ccdovRCu.s:27206  .debug_str:000000000001aff6 .LASF244
C:\Users\SOLDER~1\AppData\Local\Temp\ccdovRCu.s:31720  .debug_str:000000000002d570 .LASF245
C:\Users\SOLDER~1\AppData\Local\Temp\ccdovRCu.s:27778  .debug_str:000000000001d53f .LASF246
C:\Users\SOLDER~1\AppData\Local\Temp\ccdovRCu.s:30850  .debug_str:0000000000029c7a .LASF247
C:\Users\SOLDER~1\AppData\Local\Temp\ccdovRCu.s:24046  .debug_str:000000000000e30b .LASF248
C:\Users\SOLDER~1\AppData\Local\Temp\ccdovRCu.s:30226  .debug_str:0000000000027438 .LASF249
C:\Users\SOLDER~1\AppData\Local\Temp\ccdovRCu.s:23900  .debug_str:000000000000d959 .LASF250
GAS LISTING C:\Users\SOLDER~1\AppData\Local\Temp\ccdovRCu.s 			page 57


C:\Users\SOLDER~1\AppData\Local\Temp\ccdovRCu.s:27116  .debug_str:000000000001a9e9 .LASF251
C:\Users\SOLDER~1\AppData\Local\Temp\ccdovRCu.s:24602  .debug_str:0000000000010698 .LASF252
C:\Users\SOLDER~1\AppData\Local\Temp\ccdovRCu.s:24654  .debug_str:0000000000010a06 .LASF253
C:\Users\SOLDER~1\AppData\Local\Temp\ccdovRCu.s:23352  .debug_str:000000000000b4fe .LASF254
C:\Users\SOLDER~1\AppData\Local\Temp\ccdovRCu.s:20758  .debug_str:0000000000000d73 .LASF255
C:\Users\SOLDER~1\AppData\Local\Temp\ccdovRCu.s:23460  .debug_str:000000000000bbd0 .LASF256
C:\Users\SOLDER~1\AppData\Local\Temp\ccdovRCu.s:22930  .debug_str:0000000000009917 .LASF257
C:\Users\SOLDER~1\AppData\Local\Temp\ccdovRCu.s:31924  .debug_str:000000000002e25f .LASF258
C:\Users\SOLDER~1\AppData\Local\Temp\ccdovRCu.s:27724  .debug_str:000000000001d16c .LASF259
C:\Users\SOLDER~1\AppData\Local\Temp\ccdovRCu.s:26528  .debug_str:00000000000183be .LASF260
C:\Users\SOLDER~1\AppData\Local\Temp\ccdovRCu.s:27330  .debug_str:000000000001b792 .LASF261
C:\Users\SOLDER~1\AppData\Local\Temp\ccdovRCu.s:24072  .debug_str:000000000000e4d1 .LASF262
C:\Users\SOLDER~1\AppData\Local\Temp\ccdovRCu.s:23406  .debug_str:000000000000b850 .LASF263
C:\Users\SOLDER~1\AppData\Local\Temp\ccdovRCu.s:31216  .debug_str:000000000002b4a7 .LASF264
C:\Users\SOLDER~1\AppData\Local\Temp\ccdovRCu.s:23722  .debug_str:000000000000cd99 .LASF265
C:\Users\SOLDER~1\AppData\Local\Temp\ccdovRCu.s:24696  .debug_str:0000000000010c9b .LASF266
C:\Users\SOLDER~1\AppData\Local\Temp\ccdovRCu.s:26562  .debug_str:00000000000185d5 .LASF267
C:\Users\SOLDER~1\AppData\Local\Temp\ccdovRCu.s:30476  .debug_str:00000000000284ce .LASF268
C:\Users\SOLDER~1\AppData\Local\Temp\ccdovRCu.s:23544  .debug_str:000000000000c127 .LASF269
C:\Users\SOLDER~1\AppData\Local\Temp\ccdovRCu.s:22266  .debug_str:0000000000006dc8 .LASF270
C:\Users\SOLDER~1\AppData\Local\Temp\ccdovRCu.s:22444  .debug_str:0000000000007928 .LASF271
C:\Users\SOLDER~1\AppData\Local\Temp\ccdovRCu.s:23772  .debug_str:000000000000d0ea .LASF272
C:\Users\SOLDER~1\AppData\Local\Temp\ccdovRCu.s:23612  .debug_str:000000000000c605 .LASF273
C:\Users\SOLDER~1\AppData\Local\Temp\ccdovRCu.s:20902  .debug_str:0000000000001685 .LASF274
C:\Users\SOLDER~1\AppData\Local\Temp\ccdovRCu.s:22258  .debug_str:0000000000006d55 .LASF275
C:\Users\SOLDER~1\AppData\Local\Temp\ccdovRCu.s:31152  .debug_str:000000000002b03e .LASF276
C:\Users\SOLDER~1\AppData\Local\Temp\ccdovRCu.s:29090  .debug_str:0000000000022964 .LASF277
C:\Users\SOLDER~1\AppData\Local\Temp\ccdovRCu.s:30036  .debug_str:00000000000267e8 .LASF278
C:\Users\SOLDER~1\AppData\Local\Temp\ccdovRCu.s:22218  .debug_str:0000000000006ac4 .LASF279
C:\Users\SOLDER~1\AppData\Local\Temp\ccdovRCu.s:21996  .debug_str:0000000000005be6 .LASF280
C:\Users\SOLDER~1\AppData\Local\Temp\ccdovRCu.s:21878  .debug_str:000000000000543c .LASF281
C:\Users\SOLDER~1\AppData\Local\Temp\ccdovRCu.s:26592  .debug_str:00000000000187d8 .LASF282
C:\Users\SOLDER~1\AppData\Local\Temp\ccdovRCu.s:30006  .debug_str:00000000000265eb .LASF283
C:\Users\SOLDER~1\AppData\Local\Temp\ccdovRCu.s:30270  .debug_str:000000000002771a .LASF284
C:\Users\SOLDER~1\AppData\Local\Temp\ccdovRCu.s:31132  .debug_str:000000000002af04 .LASF285
C:\Users\SOLDER~1\AppData\Local\Temp\ccdovRCu.s:27790  .debug_str:000000000001d607 .LASF286
C:\Users\SOLDER~1\AppData\Local\Temp\ccdovRCu.s:31914  .debug_str:000000000002e1be .LASF287
C:\Users\SOLDER~1\AppData\Local\Temp\ccdovRCu.s:21970  .debug_str:0000000000005a28 .LASF288
C:\Users\SOLDER~1\AppData\Local\Temp\ccdovRCu.s:25780  .debug_str:00000000000153d8 .LASF289
C:\Users\SOLDER~1\AppData\Local\Temp\ccdovRCu.s:24650  .debug_str:00000000000109c3 .LASF290
C:\Users\SOLDER~1\AppData\Local\Temp\ccdovRCu.s:32150  .debug_str:000000000002f03e .LASF291
C:\Users\SOLDER~1\AppData\Local\Temp\ccdovRCu.s:30976  .debug_str:000000000002a4f7 .LASF292
C:\Users\SOLDER~1\AppData\Local\Temp\ccdovRCu.s:21804  .debug_str:0000000000004fb0 .LASF293
C:\Users\SOLDER~1\AppData\Local\Temp\ccdovRCu.s:20612  .debug_str:0000000000000306 .LASF294
C:\Users\SOLDER~1\AppData\Local\Temp\ccdovRCu.s:25830  .debug_str:0000000000015733 .LASF295
C:\Users\SOLDER~1\AppData\Local\Temp\ccdovRCu.s:26668  .debug_str:0000000000018cb8 .LASF296
C:\Users\SOLDER~1\AppData\Local\Temp\ccdovRCu.s:24064  .debug_str:000000000000e44b .LASF297
C:\Users\SOLDER~1\AppData\Local\Temp\ccdovRCu.s:24592  .debug_str:00000000000105fd .LASF298
C:\Users\SOLDER~1\AppData\Local\Temp\ccdovRCu.s:27370  .debug_str:000000000001ba00 .LASF299
C:\Users\SOLDER~1\AppData\Local\Temp\ccdovRCu.s:25900  .debug_str:0000000000015bd0 .LASF300
C:\Users\SOLDER~1\AppData\Local\Temp\ccdovRCu.s:25328  .debug_str:000000000001355c .LASF301
C:\Users\SOLDER~1\AppData\Local\Temp\ccdovRCu.s:21138  .debug_str:00000000000025b0 .LASF302
C:\Users\SOLDER~1\AppData\Local\Temp\ccdovRCu.s:23726  .debug_str:000000000000cddb .LASF303
C:\Users\SOLDER~1\AppData\Local\Temp\ccdovRCu.s:29170  .debug_str:0000000000022ec1 .LASF304
C:\Users\SOLDER~1\AppData\Local\Temp\ccdovRCu.s:24614  .debug_str:0000000000010737 .LASF305
C:\Users\SOLDER~1\AppData\Local\Temp\ccdovRCu.s:30026  .debug_str:0000000000026757 .LASF306
C:\Users\SOLDER~1\AppData\Local\Temp\ccdovRCu.s:29610  .debug_str:0000000000024b87 .LASF307
GAS LISTING C:\Users\SOLDER~1\AppData\Local\Temp\ccdovRCu.s 			page 58


C:\Users\SOLDER~1\AppData\Local\Temp\ccdovRCu.s:27804  .debug_str:000000000001d6d8 .LASF308
C:\Users\SOLDER~1\AppData\Local\Temp\ccdovRCu.s:21592  .debug_str:000000000000427f .LASF309
C:\Users\SOLDER~1\AppData\Local\Temp\ccdovRCu.s:28166  .debug_str:000000000001ee49 .LASF310
C:\Users\SOLDER~1\AppData\Local\Temp\ccdovRCu.s:23844  .debug_str:000000000000d5bc .LASF311
C:\Users\SOLDER~1\AppData\Local\Temp\ccdovRCu.s:25154  .debug_str:00000000000129bb .LASF312
C:\Users\SOLDER~1\AppData\Local\Temp\ccdovRCu.s:22998  .debug_str:0000000000009d76 .LASF313
C:\Users\SOLDER~1\AppData\Local\Temp\ccdovRCu.s:25586  .debug_str:000000000001476f .LASF314
C:\Users\SOLDER~1\AppData\Local\Temp\ccdovRCu.s:22440  .debug_str:00000000000078e9 .LASF315
C:\Users\SOLDER~1\AppData\Local\Temp\ccdovRCu.s:27878  .debug_str:000000000001db39 .LASF316
C:\Users\SOLDER~1\AppData\Local\Temp\ccdovRCu.s:30360  .debug_str:0000000000027cd9 .LASF317
C:\Users\SOLDER~1\AppData\Local\Temp\ccdovRCu.s:29616  .debug_str:0000000000024bf4 .LASF319
C:\Users\SOLDER~1\AppData\Local\Temp\ccdovRCu.s:24454  .debug_str:000000000000fd4b .LASF320
C:\Users\SOLDER~1\AppData\Local\Temp\ccdovRCu.s:25748  .debug_str:00000000000151cb .LASF321
C:\Users\SOLDER~1\AppData\Local\Temp\ccdovRCu.s:28208  .debug_str:000000000001f0f6 .LASF322
C:\Users\SOLDER~1\AppData\Local\Temp\ccdovRCu.s:27018  .debug_str:000000000001a367 .LASF323
C:\Users\SOLDER~1\AppData\Local\Temp\ccdovRCu.s:23738  .debug_str:000000000000ceb4 .LASF324
C:\Users\SOLDER~1\AppData\Local\Temp\ccdovRCu.s:21964  .debug_str:00000000000059e4 .LASF325
C:\Users\SOLDER~1\AppData\Local\Temp\ccdovRCu.s:20694  .debug_str:00000000000008cc .LASF326
C:\Users\SOLDER~1\AppData\Local\Temp\ccdovRCu.s:30980  .debug_str:000000000002a53c .LASF327
C:\Users\SOLDER~1\AppData\Local\Temp\ccdovRCu.s:23814  .debug_str:000000000000d3af .LASF328
C:\Users\SOLDER~1\AppData\Local\Temp\ccdovRCu.s:31840  .debug_str:000000000002dd0b .LASF329
C:\Users\SOLDER~1\AppData\Local\Temp\ccdovRCu.s:22088  .debug_str:000000000000621d .LASF330
C:\Users\SOLDER~1\AppData\Local\Temp\ccdovRCu.s:21638  .debug_str:0000000000004538 .LASF331
C:\Users\SOLDER~1\AppData\Local\Temp\ccdovRCu.s:20624  .debug_str:00000000000003c7 .LASF332
C:\Users\SOLDER~1\AppData\Local\Temp\ccdovRCu.s:26000  .debug_str:000000000001622a .LASF333
C:\Users\SOLDER~1\AppData\Local\Temp\ccdovRCu.s:28632  .debug_str:0000000000020c47 .LASF334
C:\Users\SOLDER~1\AppData\Local\Temp\ccdovRCu.s:26900  .debug_str:0000000000019bf9 .LASF335
C:\Users\SOLDER~1\AppData\Local\Temp\ccdovRCu.s:26766  .debug_str:0000000000019337 .LASF339
C:\Users\SOLDER~1\AppData\Local\Temp\ccdovRCu.s:27304  .debug_str:000000000001b5e4 .LASF340
C:\Users\SOLDER~1\AppData\Local\Temp\ccdovRCu.s:23302  .debug_str:000000000000b1c1 .LASF341
C:\Users\SOLDER~1\AppData\Local\Temp\ccdovRCu.s:26536  .debug_str:0000000000018443 .LASF342
C:\Users\SOLDER~1\AppData\Local\Temp\ccdovRCu.s:26752  .debug_str:000000000001925d .LASF343
C:\Users\SOLDER~1\AppData\Local\Temp\ccdovRCu.s:21184  .debug_str:0000000000002885 .LASF344
C:\Users\SOLDER~1\AppData\Local\Temp\ccdovRCu.s:23346  .debug_str:000000000000b48c .LASF345
C:\Users\SOLDER~1\AppData\Local\Temp\ccdovRCu.s:21508  .debug_str:0000000000003d1d .LASF346
C:\Users\SOLDER~1\AppData\Local\Temp\ccdovRCu.s:31502  .debug_str:000000000002c76a .LASF347
C:\Users\SOLDER~1\AppData\Local\Temp\ccdovRCu.s:26088  .debug_str:00000000000167ab .LASF348
C:\Users\SOLDER~1\AppData\Local\Temp\ccdovRCu.s:28562  .debug_str:00000000000207de .LASF349
C:\Users\SOLDER~1\AppData\Local\Temp\ccdovRCu.s:22824  .debug_str:0000000000009231 .LASF350
C:\Users\SOLDER~1\AppData\Local\Temp\ccdovRCu.s:26602  .debug_str:000000000001886f .LASF351
C:\Users\SOLDER~1\AppData\Local\Temp\ccdovRCu.s:31830  .debug_str:000000000002dc74 .LASF352
C:\Users\SOLDER~1\AppData\Local\Temp\ccdovRCu.s:23278  .debug_str:000000000000b056 .LASF353
C:\Users\SOLDER~1\AppData\Local\Temp\ccdovRCu.s:24368  .debug_str:000000000000f740 .LASF354
C:\Users\SOLDER~1\AppData\Local\Temp\ccdovRCu.s:27818  .debug_str:000000000001d7c4 .LASF355
C:\Users\SOLDER~1\AppData\Local\Temp\ccdovRCu.s:25998  .debug_str:000000000001621a .LASF356
C:\Users\SOLDER~1\AppData\Local\Temp\ccdovRCu.s:26140  .debug_str:0000000000016adb .LASF357
C:\Users\SOLDER~1\AppData\Local\Temp\ccdovRCu.s:29214  .debug_str:0000000000023175 .LASF358
C:\Users\SOLDER~1\AppData\Local\Temp\ccdovRCu.s:25210  .debug_str:0000000000012db4 .LASF359
C:\Users\SOLDER~1\AppData\Local\Temp\ccdovRCu.s:26204  .debug_str:0000000000016e9f .LASF360
C:\Users\SOLDER~1\AppData\Local\Temp\ccdovRCu.s:29328  .debug_str:0000000000023913 .LASF361
C:\Users\SOLDER~1\AppData\Local\Temp\ccdovRCu.s:22328  .debug_str:0000000000007221 .LASF362
C:\Users\SOLDER~1\AppData\Local\Temp\ccdovRCu.s:31106  .debug_str:000000000002ad3c .LASF363
C:\Users\SOLDER~1\AppData\Local\Temp\ccdovRCu.s:21848  .debug_str:0000000000005265 .LASF364
C:\Users\SOLDER~1\AppData\Local\Temp\ccdovRCu.s:26688  .debug_str:0000000000018e18 .LASF365
C:\Users\SOLDER~1\AppData\Local\Temp\ccdovRCu.s:22428  .debug_str:000000000000782e .LASF366
C:\Users\SOLDER~1\AppData\Local\Temp\ccdovRCu.s:23364  .debug_str:000000000000b5ee .LASF367
C:\Users\SOLDER~1\AppData\Local\Temp\ccdovRCu.s:20582  .debug_str:0000000000000117 .LASF368
GAS LISTING C:\Users\SOLDER~1\AppData\Local\Temp\ccdovRCu.s 			page 59


C:\Users\SOLDER~1\AppData\Local\Temp\ccdovRCu.s:28512  .debug_str:0000000000020495 .LASF369
C:\Users\SOLDER~1\AppData\Local\Temp\ccdovRCu.s:24054  .debug_str:000000000000e39e .LASF370
C:\Users\SOLDER~1\AppData\Local\Temp\ccdovRCu.s:29522  .debug_str:00000000000245a5 .LASF371
C:\Users\SOLDER~1\AppData\Local\Temp\ccdovRCu.s:28444  .debug_str:0000000000020054 .LASF372
C:\Users\SOLDER~1\AppData\Local\Temp\ccdovRCu.s:24808  .debug_str:00000000000113c0 .LASF373
C:\Users\SOLDER~1\AppData\Local\Temp\ccdovRCu.s:31972  .debug_str:000000000002e53c .LASF374
C:\Users\SOLDER~1\AppData\Local\Temp\ccdovRCu.s:31912  .debug_str:000000000002e1b8 .LASF375
C:\Users\SOLDER~1\AppData\Local\Temp\ccdovRCu.s:22610  .debug_str:0000000000008446 .LASF376
C:\Users\SOLDER~1\AppData\Local\Temp\ccdovRCu.s:31008  .debug_str:000000000002a706 .LASF377
C:\Users\SOLDER~1\AppData\Local\Temp\ccdovRCu.s:25984  .debug_str:000000000001613d .LASF378
C:\Users\SOLDER~1\AppData\Local\Temp\ccdovRCu.s:29788  .debug_str:00000000000256ec .LASF379
C:\Users\SOLDER~1\AppData\Local\Temp\ccdovRCu.s:30810  .debug_str:0000000000029a45 .LASF380
C:\Users\SOLDER~1\AppData\Local\Temp\ccdovRCu.s:29250  .debug_str:00000000000233e2 .LASF381
C:\Users\SOLDER~1\AppData\Local\Temp\ccdovRCu.s:26180  .debug_str:0000000000016d42 .LASF382
C:\Users\SOLDER~1\AppData\Local\Temp\ccdovRCu.s:30836  .debug_str:0000000000029bb4 .LASF383
C:\Users\SOLDER~1\AppData\Local\Temp\ccdovRCu.s:27534  .debug_str:000000000001c4aa .LASF384
C:\Users\SOLDER~1\AppData\Local\Temp\ccdovRCu.s:24908  .debug_str:0000000000011a64 .LASF385
C:\Users\SOLDER~1\AppData\Local\Temp\ccdovRCu.s:29376  .debug_str:0000000000023c0c .LASF386
C:\Users\SOLDER~1\AppData\Local\Temp\ccdovRCu.s:28360  .debug_str:000000000001fb29 .LASF387
C:\Users\SOLDER~1\AppData\Local\Temp\ccdovRCu.s:20930  .debug_str:0000000000001839 .LASF388
C:\Users\SOLDER~1\AppData\Local\Temp\ccdovRCu.s:21608  .debug_str:0000000000004367 .LASF389
C:\Users\SOLDER~1\AppData\Local\Temp\ccdovRCu.s:22022  .debug_str:0000000000005d9f .LASF390
C:\Users\SOLDER~1\AppData\Local\Temp\ccdovRCu.s:23202  .debug_str:000000000000ab68 .LASF391
C:\Users\SOLDER~1\AppData\Local\Temp\ccdovRCu.s:22678  .debug_str:000000000000886f .LASF392
C:\Users\SOLDER~1\AppData\Local\Temp\ccdovRCu.s:28058  .debug_str:000000000001e6c7 .LASF393
C:\Users\SOLDER~1\AppData\Local\Temp\ccdovRCu.s:28700  .debug_str:000000000002109c .LASF394
C:\Users\SOLDER~1\AppData\Local\Temp\ccdovRCu.s:28840  .debug_str:00000000000219bc .LASF395
C:\Users\SOLDER~1\AppData\Local\Temp\ccdovRCu.s:22830  .debug_str:0000000000009287 .LASF396
C:\Users\SOLDER~1\AppData\Local\Temp\ccdovRCu.s:22418  .debug_str:00000000000077ad .LASF397
C:\Users\SOLDER~1\AppData\Local\Temp\ccdovRCu.s:27874  .debug_str:000000000001db15 .LASF398
C:\Users\SOLDER~1\AppData\Local\Temp\ccdovRCu.s:30526  .debug_str:0000000000028801 .LASF399
C:\Users\SOLDER~1\AppData\Local\Temp\ccdovRCu.s:25126  .debug_str:0000000000012834 .LASF400
C:\Users\SOLDER~1\AppData\Local\Temp\ccdovRCu.s:25884  .debug_str:0000000000015ac5 .LASF401
C:\Users\SOLDER~1\AppData\Local\Temp\ccdovRCu.s:23708  .debug_str:000000000000ccba .LASF402
C:\Users\SOLDER~1\AppData\Local\Temp\ccdovRCu.s:27562  .debug_str:000000000001c691 .LASF403
C:\Users\SOLDER~1\AppData\Local\Temp\ccdovRCu.s:26096  .debug_str:0000000000016808 .LASF404
C:\Users\SOLDER~1\AppData\Local\Temp\ccdovRCu.s:26552  .debug_str:0000000000018542 .LASF405
C:\Users\SOLDER~1\AppData\Local\Temp\ccdovRCu.s:22732  .debug_str:0000000000008be4 .LASF406
C:\Users\SOLDER~1\AppData\Local\Temp\ccdovRCu.s:31452  .debug_str:000000000002c45a .LASF407
C:\Users\SOLDER~1\AppData\Local\Temp\ccdovRCu.s:25434  .debug_str:0000000000013cec .LASF408
C:\Users\SOLDER~1\AppData\Local\Temp\ccdovRCu.s:27906  .debug_str:000000000001dcf8 .LASF409
C:\Users\SOLDER~1\AppData\Local\Temp\ccdovRCu.s:24280  .debug_str:000000000000f1c7 .LASF410
C:\Users\SOLDER~1\AppData\Local\Temp\ccdovRCu.s:28596  .debug_str:0000000000020a24 .LASF411
C:\Users\SOLDER~1\AppData\Local\Temp\ccdovRCu.s:30590  .debug_str:0000000000028c31 .LASF412
C:\Users\SOLDER~1\AppData\Local\Temp\ccdovRCu.s:25768  .debug_str:000000000001531e .LASF413
C:\Users\SOLDER~1\AppData\Local\Temp\ccdovRCu.s:24966  .debug_str:0000000000011dfe .LASF414
C:\Users\SOLDER~1\AppData\Local\Temp\ccdovRCu.s:26962  .debug_str:0000000000019fe9 .LASF415
C:\Users\SOLDER~1\AppData\Local\Temp\ccdovRCu.s:32006  .debug_str:000000000002e73f .LASF416
C:\Users\SOLDER~1\AppData\Local\Temp\ccdovRCu.s:32142  .debug_str:000000000002efc5 .LASF417
C:\Users\SOLDER~1\AppData\Local\Temp\ccdovRCu.s:22490  .debug_str:0000000000007c49 .LASF418
C:\Users\SOLDER~1\AppData\Local\Temp\ccdovRCu.s:23566  .debug_str:000000000000c2d1 .LASF419
C:\Users\SOLDER~1\AppData\Local\Temp\ccdovRCu.s:21120  .debug_str:000000000000247d .LASF420
C:\Users\SOLDER~1\AppData\Local\Temp\ccdovRCu.s:28652  .debug_str:0000000000020d9a .LASF421
C:\Users\SOLDER~1\AppData\Local\Temp\ccdovRCu.s:29352  .debug_str:0000000000023a93 .LASF422
C:\Users\SOLDER~1\AppData\Local\Temp\ccdovRCu.s:21052  .debug_str:0000000000001fe5 .LASF423
C:\Users\SOLDER~1\AppData\Local\Temp\ccdovRCu.s:25366  .debug_str:00000000000137f5 .LASF424
C:\Users\SOLDER~1\AppData\Local\Temp\ccdovRCu.s:28586  .debug_str:000000000002097c .LASF425
GAS LISTING C:\Users\SOLDER~1\AppData\Local\Temp\ccdovRCu.s 			page 60


C:\Users\SOLDER~1\AppData\Local\Temp\ccdovRCu.s:24956  .debug_str:0000000000011d7a .LASF426
C:\Users\SOLDER~1\AppData\Local\Temp\ccdovRCu.s:32124  .debug_str:000000000002eea5 .LASF427
C:\Users\SOLDER~1\AppData\Local\Temp\ccdovRCu.s:27574  .debug_str:000000000001c736 .LASF428
C:\Users\SOLDER~1\AppData\Local\Temp\ccdovRCu.s:21862  .debug_str:0000000000005354 .LASF429
C:\Users\SOLDER~1\AppData\Local\Temp\ccdovRCu.s:29730  .debug_str:0000000000025352 .LASF430
C:\Users\SOLDER~1\AppData\Local\Temp\ccdovRCu.s:25302  .debug_str:00000000000133b9 .LASF431
C:\Users\SOLDER~1\AppData\Local\Temp\ccdovRCu.s:29640  .debug_str:0000000000024d95 .LASF432
C:\Users\SOLDER~1\AppData\Local\Temp\ccdovRCu.s:21772  .debug_str:0000000000004dcf .LASF433
C:\Users\SOLDER~1\AppData\Local\Temp\ccdovRCu.s:24254  .debug_str:000000000000f033 .LASF434
C:\Users\SOLDER~1\AppData\Local\Temp\ccdovRCu.s:28480  .debug_str:000000000002029d .LASF435
C:\Users\SOLDER~1\AppData\Local\Temp\ccdovRCu.s:20742  .debug_str:0000000000000c64 .LASF436
C:\Users\SOLDER~1\AppData\Local\Temp\ccdovRCu.s:23748  .debug_str:000000000000cf62 .LASF437
C:\Users\SOLDER~1\AppData\Local\Temp\ccdovRCu.s:25720  .debug_str:000000000001500c .LASF438
C:\Users\SOLDER~1\AppData\Local\Temp\ccdovRCu.s:21850  .debug_str:000000000000527a .LASF439
C:\Users\SOLDER~1\AppData\Local\Temp\ccdovRCu.s:25030  .debug_str:00000000000121d9 .LASF440
C:\Users\SOLDER~1\AppData\Local\Temp\ccdovRCu.s:30776  .debug_str:0000000000029812 .LASF441
C:\Users\SOLDER~1\AppData\Local\Temp\ccdovRCu.s:23392  .debug_str:000000000000b773 .LASF442
C:\Users\SOLDER~1\AppData\Local\Temp\ccdovRCu.s:27620  .debug_str:000000000001ca6a .LASF443
C:\Users\SOLDER~1\AppData\Local\Temp\ccdovRCu.s:31326  .debug_str:000000000002bbb9 .LASF444
C:\Users\SOLDER~1\AppData\Local\Temp\ccdovRCu.s:25166  .debug_str:0000000000012a95 .LASF445
C:\Users\SOLDER~1\AppData\Local\Temp\ccdovRCu.s:24578  .debug_str:0000000000010523 .LASF446
C:\Users\SOLDER~1\AppData\Local\Temp\ccdovRCu.s:28380  .debug_str:000000000001fc5e .LASF447
C:\Users\SOLDER~1\AppData\Local\Temp\ccdovRCu.s:22730  .debug_str:0000000000008bca .LASF448
C:\Users\SOLDER~1\AppData\Local\Temp\ccdovRCu.s:27980  .debug_str:000000000001e204 .LASF449
C:\Users\SOLDER~1\AppData\Local\Temp\ccdovRCu.s:24246  .debug_str:000000000000efba .LASF450
C:\Users\SOLDER~1\AppData\Local\Temp\ccdovRCu.s:30746  .debug_str:00000000000295f6 .LASF451
C:\Users\SOLDER~1\AppData\Local\Temp\ccdovRCu.s:24882  .debug_str:0000000000011890 .LASF452
C:\Users\SOLDER~1\AppData\Local\Temp\ccdovRCu.s:21306  .debug_str:0000000000003052 .LASF453
C:\Users\SOLDER~1\AppData\Local\Temp\ccdovRCu.s:20886  .debug_str:000000000000157c .LASF454
C:\Users\SOLDER~1\AppData\Local\Temp\ccdovRCu.s:29098  .debug_str:00000000000229e5 .LASF455
C:\Users\SOLDER~1\AppData\Local\Temp\ccdovRCu.s:30004  .debug_str:00000000000265c0 .LASF456
C:\Users\SOLDER~1\AppData\Local\Temp\ccdovRCu.s:23768  .debug_str:000000000000d09b .LASF457
C:\Users\SOLDER~1\AppData\Local\Temp\ccdovRCu.s:24092  .debug_str:000000000000e604 .LASF458
C:\Users\SOLDER~1\AppData\Local\Temp\ccdovRCu.s:30646  .debug_str:0000000000028fae .LASF459
C:\Users\SOLDER~1\AppData\Local\Temp\ccdovRCu.s:31568  .debug_str:000000000002cb58 .LASF460
C:\Users\SOLDER~1\AppData\Local\Temp\ccdovRCu.s:20872  .debug_str:0000000000001487 .LASF461
C:\Users\SOLDER~1\AppData\Local\Temp\ccdovRCu.s:23374  .debug_str:000000000000b65d .LASF462
C:\Users\SOLDER~1\AppData\Local\Temp\ccdovRCu.s:29962  .debug_str:00000000000262bb .LASF463
C:\Users\SOLDER~1\AppData\Local\Temp\ccdovRCu.s:27302  .debug_str:000000000001b5be .LASF464
C:\Users\SOLDER~1\AppData\Local\Temp\ccdovRCu.s:30502  .debug_str:0000000000028658 .LASF465
C:\Users\SOLDER~1\AppData\Local\Temp\ccdovRCu.s:26478  .debug_str:0000000000018074 .LASF466
C:\Users\SOLDER~1\AppData\Local\Temp\ccdovRCu.s:28890  .debug_str:0000000000021d00 .LASF467
C:\Users\SOLDER~1\AppData\Local\Temp\ccdovRCu.s:27526  .debug_str:000000000001c41a .LASF468
C:\Users\SOLDER~1\AppData\Local\Temp\ccdovRCu.s:20974  .debug_str:0000000000001b0b .LASF469
C:\Users\SOLDER~1\AppData\Local\Temp\ccdovRCu.s:25910  .debug_str:0000000000015c4d .LASF470
C:\Users\SOLDER~1\AppData\Local\Temp\ccdovRCu.s:28462  .debug_str:0000000000020164 .LASF471
C:\Users\SOLDER~1\AppData\Local\Temp\ccdovRCu.s:31820  .debug_str:000000000002dbd3 .LASF472
C:\Users\SOLDER~1\AppData\Local\Temp\ccdovRCu.s:32060  .debug_str:000000000002eab8 .LASF473
C:\Users\SOLDER~1\AppData\Local\Temp\ccdovRCu.s:31916  .debug_str:000000000002e1e0 .LASF474
C:\Users\SOLDER~1\AppData\Local\Temp\ccdovRCu.s:29996  .debug_str:000000000002651a .LASF475
C:\Users\SOLDER~1\AppData\Local\Temp\ccdovRCu.s:23018  .debug_str:0000000000009ed3 .LASF476
C:\Users\SOLDER~1\AppData\Local\Temp\ccdovRCu.s:27084  .debug_str:000000000001a7aa .LASF477
C:\Users\SOLDER~1\AppData\Local\Temp\ccdovRCu.s:26156  .debug_str:0000000000016be5 .LASF478
C:\Users\SOLDER~1\AppData\Local\Temp\ccdovRCu.s:30100  .debug_str:0000000000026c15 .LASF479
C:\Users\SOLDER~1\AppData\Local\Temp\ccdovRCu.s:32154  .debug_str:000000000002f074 .LASF480
C:\Users\SOLDER~1\AppData\Local\Temp\ccdovRCu.s:28904  .debug_str:0000000000021dd8 .LASF481
C:\Users\SOLDER~1\AppData\Local\Temp\ccdovRCu.s:30198  .debug_str:000000000002727b .LASF482
GAS LISTING C:\Users\SOLDER~1\AppData\Local\Temp\ccdovRCu.s 			page 61


C:\Users\SOLDER~1\AppData\Local\Temp\ccdovRCu.s:23518  .debug_str:000000000000bf90 .LASF483
C:\Users\SOLDER~1\AppData\Local\Temp\ccdovRCu.s:27240  .debug_str:000000000001b203 .LASF484
C:\Users\SOLDER~1\AppData\Local\Temp\ccdovRCu.s:27154  .debug_str:000000000001ac49 .LASF485
C:\Users\SOLDER~1\AppData\Local\Temp\ccdovRCu.s:30322  .debug_str:0000000000027a7b .LASF486
C:\Users\SOLDER~1\AppData\Local\Temp\ccdovRCu.s:27722  .debug_str:000000000001d154 .LASF487
C:\Users\SOLDER~1\AppData\Local\Temp\ccdovRCu.s:24506  .debug_str:00000000000100a2 .LASF488
C:\Users\SOLDER~1\AppData\Local\Temp\ccdovRCu.s:26644  .debug_str:0000000000018b0a .LASF489
C:\Users\SOLDER~1\AppData\Local\Temp\ccdovRCu.s:21796  .debug_str:0000000000004f29 .LASF490
C:\Users\SOLDER~1\AppData\Local\Temp\ccdovRCu.s:24858  .debug_str:0000000000011712 .LASF491
C:\Users\SOLDER~1\AppData\Local\Temp\ccdovRCu.s:23830  .debug_str:000000000000d4cb .LASF492
C:\Users\SOLDER~1\AppData\Local\Temp\ccdovRCu.s:29210  .debug_str:000000000002313e .LASF494
C:\Users\SOLDER~1\AppData\Local\Temp\ccdovRCu.s:22900  .debug_str:0000000000009716 .LASF495
C:\Users\SOLDER~1\AppData\Local\Temp\ccdovRCu.s:21890  .debug_str:00000000000054eb .LASF496
C:\Users\SOLDER~1\AppData\Local\Temp\ccdovRCu.s:27986  .debug_str:000000000001e25d .LASF497
C:\Users\SOLDER~1\AppData\Local\Temp\ccdovRCu.s:27308  .debug_str:000000000001b623 .LASF498
C:\Users\SOLDER~1\AppData\Local\Temp\ccdovRCu.s:27406  .debug_str:000000000001bc28 .LASF499
C:\Users\SOLDER~1\AppData\Local\Temp\ccdovRCu.s:24096  .debug_str:000000000000e645 .LASF500
C:\Users\SOLDER~1\AppData\Local\Temp\ccdovRCu.s:21694  .debug_str:00000000000048fa .LASF501
C:\Users\SOLDER~1\AppData\Local\Temp\ccdovRCu.s:25012  .debug_str:00000000000120c2 .LASF502
C:\Users\SOLDER~1\AppData\Local\Temp\ccdovRCu.s:29692  .debug_str:00000000000250ff .LASF503
C:\Users\SOLDER~1\AppData\Local\Temp\ccdovRCu.s:25868  .debug_str:000000000001599f .LASF504
C:\Users\SOLDER~1\AppData\Local\Temp\ccdovRCu.s:20592  .debug_str:000000000000019c .LASF505
C:\Users\SOLDER~1\AppData\Local\Temp\ccdovRCu.s:23912  .debug_str:000000000000da1a .LASF506
C:\Users\SOLDER~1\AppData\Local\Temp\ccdovRCu.s:31880  .debug_str:000000000002df93 .LASF507
C:\Users\SOLDER~1\AppData\Local\Temp\ccdovRCu.s:30816  .debug_str:0000000000029a91 .LASF508
C:\Users\SOLDER~1\AppData\Local\Temp\ccdovRCu.s:25392  .debug_str:00000000000139d2 .LASF509
C:\Users\SOLDER~1\AppData\Local\Temp\ccdovRCu.s:26330  .debug_str:000000000001770a .LASF510
C:\Users\SOLDER~1\AppData\Local\Temp\ccdovRCu.s:25706  .debug_str:0000000000014f38 .LASF511
C:\Users\SOLDER~1\AppData\Local\Temp\ccdovRCu.s:26780  .debug_str:0000000000019426 .LASF512
C:\Users\SOLDER~1\AppData\Local\Temp\ccdovRCu.s:28626  .debug_str:0000000000020bdc .LASF513
C:\Users\SOLDER~1\AppData\Local\Temp\ccdovRCu.s:27640  .debug_str:000000000001cbcd .LASF514
C:\Users\SOLDER~1\AppData\Local\Temp\ccdovRCu.s:23288  .debug_str:000000000000b0ee .LASF515
C:\Users\SOLDER~1\AppData\Local\Temp\ccdovRCu.s:31424  .debug_str:000000000002c22f .LASF516
C:\Users\SOLDER~1\AppData\Local\Temp\ccdovRCu.s:27894  .debug_str:000000000001dc2c .LASF517
C:\Users\SOLDER~1\AppData\Local\Temp\ccdovRCu.s:31294  .debug_str:000000000002b9a3 .LASF518
C:\Users\SOLDER~1\AppData\Local\Temp\ccdovRCu.s:29886  .debug_str:0000000000025d7a .LASF519
C:\Users\SOLDER~1\AppData\Local\Temp\ccdovRCu.s:27048  .debug_str:000000000001a56a .LASF520
C:\Users\SOLDER~1\AppData\Local\Temp\ccdovRCu.s:22116  .debug_str:00000000000063ec .LASF521
C:\Users\SOLDER~1\AppData\Local\Temp\ccdovRCu.s:29254  .debug_str:0000000000023413 .LASF522
C:\Users\SOLDER~1\AppData\Local\Temp\ccdovRCu.s:23060  .debug_str:000000000000a1b9 .LASF523
C:\Users\SOLDER~1\AppData\Local\Temp\ccdovRCu.s:21084  .debug_str:000000000000220e .LASF524
C:\Users\SOLDER~1\AppData\Local\Temp\ccdovRCu.s:27948  .debug_str:000000000001dfd0 .LASF525
C:\Users\SOLDER~1\AppData\Local\Temp\ccdovRCu.s:23968  .debug_str:000000000000dd92 .LASF526
C:\Users\SOLDER~1\AppData\Local\Temp\ccdovRCu.s:25724  .debug_str:0000000000015048 .LASF527
C:\Users\SOLDER~1\AppData\Local\Temp\ccdovRCu.s:24006  .debug_str:000000000000e00a .LASF528
C:\Users\SOLDER~1\AppData\Local\Temp\ccdovRCu.s:22786  .debug_str:0000000000008f8a .LASF529
C:\Users\SOLDER~1\AppData\Local\Temp\ccdovRCu.s:22432  .debug_str:0000000000007867 .LASF530
C:\Users\SOLDER~1\AppData\Local\Temp\ccdovRCu.s:23602  .debug_str:000000000000c559 .LASF531
C:\Users\SOLDER~1\AppData\Local\Temp\ccdovRCu.s:30246  .debug_str:000000000002758e .LASF532
C:\Users\SOLDER~1\AppData\Local\Temp\ccdovRCu.s:32022  .debug_str:000000000002e836 .LASF533
C:\Users\SOLDER~1\AppData\Local\Temp\ccdovRCu.s:25036  .debug_str:0000000000012249 .LASF534
C:\Users\SOLDER~1\AppData\Local\Temp\ccdovRCu.s:31416  .debug_str:000000000002c1a1 .LASF535
C:\Users\SOLDER~1\AppData\Local\Temp\ccdovRCu.s:27528  .debug_str:000000000001c443 .LASF536
C:\Users\SOLDER~1\AppData\Local\Temp\ccdovRCu.s:23920  .debug_str:000000000000da90 .LASF537
C:\Users\SOLDER~1\AppData\Local\Temp\ccdovRCu.s:27300  .debug_str:000000000001b598 .LASF538
C:\Users\SOLDER~1\AppData\Local\Temp\ccdovRCu.s:21682  .debug_str:0000000000004829 .LASF539
C:\Users\SOLDER~1\AppData\Local\Temp\ccdovRCu.s:29308  .debug_str:00000000000237bb .LASF540
GAS LISTING C:\Users\SOLDER~1\AppData\Local\Temp\ccdovRCu.s 			page 62


C:\Users\SOLDER~1\AppData\Local\Temp\ccdovRCu.s:27348  .debug_str:000000000001b8a5 .LASF541
C:\Users\SOLDER~1\AppData\Local\Temp\ccdovRCu.s:31508  .debug_str:000000000002c7b3 .LASF542
C:\Users\SOLDER~1\AppData\Local\Temp\ccdovRCu.s:23418  .debug_str:000000000000b916 .LASF543
C:\Users\SOLDER~1\AppData\Local\Temp\ccdovRCu.s:30222  .debug_str:00000000000273f7 .LASF544
C:\Users\SOLDER~1\AppData\Local\Temp\ccdovRCu.s:29446  .debug_str:000000000002408d .LASF545
C:\Users\SOLDER~1\AppData\Local\Temp\ccdovRCu.s:28210  .debug_str:000000000001f118 .LASF546
C:\Users\SOLDER~1\AppData\Local\Temp\ccdovRCu.s:30444  .debug_str:0000000000028281 .LASF547
C:\Users\SOLDER~1\AppData\Local\Temp\ccdovRCu.s:28414  .debug_str:000000000001fe77 .LASF548
C:\Users\SOLDER~1\AppData\Local\Temp\ccdovRCu.s:26532  .debug_str:00000000000183f8 .LASF549
C:\Users\SOLDER~1\AppData\Local\Temp\ccdovRCu.s:25224  .debug_str:0000000000012e85 .LASF550
C:\Users\SOLDER~1\AppData\Local\Temp\ccdovRCu.s:28848  .debug_str:0000000000021a29 .LASF551
C:\Users\SOLDER~1\AppData\Local\Temp\ccdovRCu.s:25460  .debug_str:0000000000013ea9 .LASF552
C:\Users\SOLDER~1\AppData\Local\Temp\ccdovRCu.s:28082  .debug_str:000000000001e883 .LASF553
C:\Users\SOLDER~1\AppData\Local\Temp\ccdovRCu.s:26010  .debug_str:00000000000162d2 .LASF554
C:\Users\SOLDER~1\AppData\Local\Temp\ccdovRCu.s:20912  .debug_str:0000000000001722 .LASF555
C:\Users\SOLDER~1\AppData\Local\Temp\ccdovRCu.s:24754  .debug_str:000000000001105d .LASF556
C:\Users\SOLDER~1\AppData\Local\Temp\ccdovRCu.s:22072  .debug_str:000000000000610b .LASF557
C:\Users\SOLDER~1\AppData\Local\Temp\ccdovRCu.s:24652  .debug_str:00000000000109e0 .LASF558
C:\Users\SOLDER~1\AppData\Local\Temp\ccdovRCu.s:31318  .debug_str:000000000002bb22 .LASF559
C:\Users\SOLDER~1\AppData\Local\Temp\ccdovRCu.s:21002  .debug_str:0000000000001d05 .LASF560
C:\Users\SOLDER~1\AppData\Local\Temp\ccdovRCu.s:29760  .debug_str:0000000000025538 .LASF561
C:\Users\SOLDER~1\AppData\Local\Temp\ccdovRCu.s:31704  .debug_str:000000000002d476 .LASF562
C:\Users\SOLDER~1\AppData\Local\Temp\ccdovRCu.s:31936  .debug_str:000000000002e30f .LASF563
C:\Users\SOLDER~1\AppData\Local\Temp\ccdovRCu.s:23990  .debug_str:000000000000def9 .LASF564
C:\Users\SOLDER~1\AppData\Local\Temp\ccdovRCu.s:20820  .debug_str:000000000000112d .LASF565
C:\Users\SOLDER~1\AppData\Local\Temp\ccdovRCu.s:29358  .debug_str:0000000000023af3 .LASF566
C:\Users\SOLDER~1\AppData\Local\Temp\ccdovRCu.s:27226  .debug_str:000000000001b141 .LASF567
C:\Users\SOLDER~1\AppData\Local\Temp\ccdovRCu.s:27464  .debug_str:000000000001bfe4 .LASF568
C:\Users\SOLDER~1\AppData\Local\Temp\ccdovRCu.s:21034  .debug_str:0000000000001eb7 .LASF569
C:\Users\SOLDER~1\AppData\Local\Temp\ccdovRCu.s:25812  .debug_str:00000000000155fd .LASF570
C:\Users\SOLDER~1\AppData\Local\Temp\ccdovRCu.s:29542  .debug_str:00000000000246e3 .LASF571
C:\Users\SOLDER~1\AppData\Local\Temp\ccdovRCu.s:24310  .debug_str:000000000000f397 .LASF572
C:\Users\SOLDER~1\AppData\Local\Temp\ccdovRCu.s:26252  .debug_str:00000000000171db .LASF573
C:\Users\SOLDER~1\AppData\Local\Temp\ccdovRCu.s:24126  .debug_str:000000000000e81e .LASF574
C:\Users\SOLDER~1\AppData\Local\Temp\ccdovRCu.s:26144  .debug_str:0000000000016b11 .LASF575
C:\Users\SOLDER~1\AppData\Local\Temp\ccdovRCu.s:25250  .debug_str:000000000001303d .LASF576
C:\Users\SOLDER~1\AppData\Local\Temp\ccdovRCu.s:25212  .debug_str:0000000000012dc5 .LASF577
C:\Users\SOLDER~1\AppData\Local\Temp\ccdovRCu.s:31776  .debug_str:000000000002d8ed .LASF578
C:\Users\SOLDER~1\AppData\Local\Temp\ccdovRCu.s:26710  .debug_str:0000000000018fa5 .LASF579
C:\Users\SOLDER~1\AppData\Local\Temp\ccdovRCu.s:29964  .debug_str:00000000000262df .LASF580
C:\Users\SOLDER~1\AppData\Local\Temp\ccdovRCu.s:21678  .debug_str:00000000000047eb .LASF581
C:\Users\SOLDER~1\AppData\Local\Temp\ccdovRCu.s:24992  .debug_str:0000000000011f9e .LASF582
C:\Users\SOLDER~1\AppData\Local\Temp\ccdovRCu.s:28230  .debug_str:000000000001f272 .LASF583
C:\Users\SOLDER~1\AppData\Local\Temp\ccdovRCu.s:31544  .debug_str:000000000002ca04 .LASF584
C:\Users\SOLDER~1\AppData\Local\Temp\ccdovRCu.s:23234  .debug_str:000000000000ad40 .LASF585
C:\Users\SOLDER~1\AppData\Local\Temp\ccdovRCu.s:31080  .debug_str:000000000002ab71 .LASF586
C:\Users\SOLDER~1\AppData\Local\Temp\ccdovRCu.s:29974  .debug_str:0000000000026393 .LASF587
C:\Users\SOLDER~1\AppData\Local\Temp\ccdovRCu.s:25148  .debug_str:000000000001294e .LASF588
C:\Users\SOLDER~1\AppData\Local\Temp\ccdovRCu.s:27082  .debug_str:000000000001a789 .LASF589
C:\Users\SOLDER~1\AppData\Local\Temp\ccdovRCu.s:29244  .debug_str:000000000002337c .LASF590
C:\Users\SOLDER~1\AppData\Local\Temp\ccdovRCu.s:26176  .debug_str:0000000000016d02 .LASF591
C:\Users\SOLDER~1\AppData\Local\Temp\ccdovRCu.s:30700  .debug_str:00000000000292f6 .LASF592
C:\Users\SOLDER~1\AppData\Local\Temp\ccdovRCu.s:27788  .debug_str:000000000001d5e7 .LASF593
C:\Users\SOLDER~1\AppData\Local\Temp\ccdovRCu.s:26476  .debug_str:000000000001803a .LASF594
C:\Users\SOLDER~1\AppData\Local\Temp\ccdovRCu.s:31870  .debug_str:000000000002ded3 .LASF595
C:\Users\SOLDER~1\AppData\Local\Temp\ccdovRCu.s:23246  .debug_str:000000000000ae2a .LASF596
C:\Users\SOLDER~1\AppData\Local\Temp\ccdovRCu.s:31302  .debug_str:000000000002ba0e .LASF597
GAS LISTING C:\Users\SOLDER~1\AppData\Local\Temp\ccdovRCu.s 			page 63


C:\Users\SOLDER~1\AppData\Local\Temp\ccdovRCu.s:25188  .debug_str:0000000000012c03 .LASF598
C:\Users\SOLDER~1\AppData\Local\Temp\ccdovRCu.s:30714  .debug_str:00000000000293f1 .LASF599
C:\Users\SOLDER~1\AppData\Local\Temp\ccdovRCu.s:24630  .debug_str:0000000000010847 .LASF600
C:\Users\SOLDER~1\AppData\Local\Temp\ccdovRCu.s:30022  .debug_str:00000000000266f5 .LASF601
C:\Users\SOLDER~1\AppData\Local\Temp\ccdovRCu.s:30128  .debug_str:0000000000026dff .LASF602
C:\Users\SOLDER~1\AppData\Local\Temp\ccdovRCu.s:31786  .debug_str:000000000002d98c .LASF603
C:\Users\SOLDER~1\AppData\Local\Temp\ccdovRCu.s:23782  .debug_str:000000000000d1a0 .LASF604
C:\Users\SOLDER~1\AppData\Local\Temp\ccdovRCu.s:27870  .debug_str:000000000001dad8 .LASF605
C:\Users\SOLDER~1\AppData\Local\Temp\ccdovRCu.s:29794  .debug_str:0000000000025747 .LASF606
C:\Users\SOLDER~1\AppData\Local\Temp\ccdovRCu.s:26258  .debug_str:0000000000017249 .LASF607
C:\Users\SOLDER~1\AppData\Local\Temp\ccdovRCu.s:29000  .debug_str:00000000000223ad .LASF608
C:\Users\SOLDER~1\AppData\Local\Temp\ccdovRCu.s:31388  .debug_str:000000000002bfa9 .LASF609
C:\Users\SOLDER~1\AppData\Local\Temp\ccdovRCu.s:22872  .debug_str:000000000000955b .LASF610
C:\Users\SOLDER~1\AppData\Local\Temp\ccdovRCu.s:24924  .debug_str:0000000000011b48 .LASF611
C:\Users\SOLDER~1\AppData\Local\Temp\ccdovRCu.s:25200  .debug_str:0000000000012cf4 .LASF612
C:\Users\SOLDER~1\AppData\Local\Temp\ccdovRCu.s:27864  .debug_str:000000000001da83 .LASF613
C:\Users\SOLDER~1\AppData\Local\Temp\ccdovRCu.s:22312  .debug_str:0000000000007131 .LASF614
C:\Users\SOLDER~1\AppData\Local\Temp\ccdovRCu.s:21048  .debug_str:0000000000001fbf .LASF615
C:\Users\SOLDER~1\AppData\Local\Temp\ccdovRCu.s:26334  .debug_str:0000000000017753 .LASF616
C:\Users\SOLDER~1\AppData\Local\Temp\ccdovRCu.s:21914  .debug_str:0000000000005649 .LASF617
C:\Users\SOLDER~1\AppData\Local\Temp\ccdovRCu.s:29104  .debug_str:0000000000022a57 .LASF618
C:\Users\SOLDER~1\AppData\Local\Temp\ccdovRCu.s:21336  .debug_str:0000000000003244 .LASF619
C:\Users\SOLDER~1\AppData\Local\Temp\ccdovRCu.s:27994  .debug_str:000000000001e2da .LASF620
C:\Users\SOLDER~1\AppData\Local\Temp\ccdovRCu.s:21430  .debug_str:0000000000003834 .LASF621
C:\Users\SOLDER~1\AppData\Local\Temp\ccdovRCu.s:25874  .debug_str:0000000000015a10 .LASF622
C:\Users\SOLDER~1\AppData\Local\Temp\ccdovRCu.s:26950  .debug_str:0000000000019f13 .LASF623
C:\Users\SOLDER~1\AppData\Local\Temp\ccdovRCu.s:24800  .debug_str:0000000000011342 .LASF624
C:\Users\SOLDER~1\AppData\Local\Temp\ccdovRCu.s:27538  .debug_str:000000000001c4d3 .LASF625
C:\Users\SOLDER~1\AppData\Local\Temp\ccdovRCu.s:22280  .debug_str:0000000000006edf .LASF626
C:\Users\SOLDER~1\AppData\Local\Temp\ccdovRCu.s:22238  .debug_str:0000000000006c0e .LASF627
C:\Users\SOLDER~1\AppData\Local\Temp\ccdovRCu.s:27190  .debug_str:000000000001aef7 .LASF628
C:\Users\SOLDER~1\AppData\Local\Temp\ccdovRCu.s:23998  .debug_str:000000000000df80 .LASF629
C:\Users\SOLDER~1\AppData\Local\Temp\ccdovRCu.s:28484  .debug_str:00000000000202dc .LASF630
C:\Users\SOLDER~1\AppData\Local\Temp\ccdovRCu.s:27458  .debug_str:000000000001bf90 .LASF631
C:\Users\SOLDER~1\AppData\Local\Temp\ccdovRCu.s:28472  .debug_str:0000000000020217 .LASF632
C:\Users\SOLDER~1\AppData\Local\Temp\ccdovRCu.s:26916  .debug_str:0000000000019d04 .LASF633
C:\Users\SOLDER~1\AppData\Local\Temp\ccdovRCu.s:30538  .debug_str:00000000000288b7 .LASF634
C:\Users\SOLDER~1\AppData\Local\Temp\ccdovRCu.s:25668  .debug_str:0000000000014cc9 .LASF635
C:\Users\SOLDER~1\AppData\Local\Temp\ccdovRCu.s:27420  .debug_str:000000000001bd0e .LASF636
C:\Users\SOLDER~1\AppData\Local\Temp\ccdovRCu.s:29590  .debug_str:0000000000024a28 .LASF637
C:\Users\SOLDER~1\AppData\Local\Temp\ccdovRCu.s:21014  .debug_str:0000000000001d93 .LASF638
C:\Users\SOLDER~1\AppData\Local\Temp\ccdovRCu.s:31396  .debug_str:000000000002c03e .LASF639
C:\Users\SOLDER~1\AppData\Local\Temp\ccdovRCu.s:25252  .debug_str:000000000001305b .LASF640
C:\Users\SOLDER~1\AppData\Local\Temp\ccdovRCu.s:26280  .debug_str:00000000000173c8 .LASF641
C:\Users\SOLDER~1\AppData\Local\Temp\ccdovRCu.s:26188  .debug_str:0000000000016dae .LASF642
C:\Users\SOLDER~1\AppData\Local\Temp\ccdovRCu.s:27556  .debug_str:000000000001c625 .LASF643
C:\Users\SOLDER~1\AppData\Local\Temp\ccdovRCu.s:22144  .debug_str:00000000000065c9 .LASF644
C:\Users\SOLDER~1\AppData\Local\Temp\ccdovRCu.s:29536  .debug_str:0000000000024685 .LASF645
C:\Users\SOLDER~1\AppData\Local\Temp\ccdovRCu.s:26238  .debug_str:00000000000170ea .LASF646
C:\Users\SOLDER~1\AppData\Local\Temp\ccdovRCu.s:24134  .debug_str:000000000000e8a1 .LASF647
C:\Users\SOLDER~1\AppData\Local\Temp\ccdovRCu.s:25664  .debug_str:0000000000014c7e .LASF648
C:\Users\SOLDER~1\AppData\Local\Temp\ccdovRCu.s:24216  .debug_str:000000000000edc5 .LASF649
C:\Users\SOLDER~1\AppData\Local\Temp\ccdovRCu.s:30886  .debug_str:0000000000029ed0 .LASF650
C:\Users\SOLDER~1\AppData\Local\Temp\ccdovRCu.s:27090  .debug_str:000000000001a809 .LASF651
C:\Users\SOLDER~1\AppData\Local\Temp\ccdovRCu.s:22724  .debug_str:0000000000008b71 .LASF652
C:\Users\SOLDER~1\AppData\Local\Temp\ccdovRCu.s:26698  .debug_str:0000000000018ec6 .LASF653
C:\Users\SOLDER~1\AppData\Local\Temp\ccdovRCu.s:25988  .debug_str:0000000000016166 .LASF654
GAS LISTING C:\Users\SOLDER~1\AppData\Local\Temp\ccdovRCu.s 			page 64


C:\Users\SOLDER~1\AppData\Local\Temp\ccdovRCu.s:31890  .debug_str:000000000002e037 .LASF655
C:\Users\SOLDER~1\AppData\Local\Temp\ccdovRCu.s:26744  .debug_str:00000000000191e1 .LASF656
C:\Users\SOLDER~1\AppData\Local\Temp\ccdovRCu.s:31158  .debug_str:000000000002b095 .LASF657
C:\Users\SOLDER~1\AppData\Local\Temp\ccdovRCu.s:30536  .debug_str:0000000000028896 .LASF658
C:\Users\SOLDER~1\AppData\Local\Temp\ccdovRCu.s:29310  .debug_str:00000000000237e0 .LASF659
C:\Users\SOLDER~1\AppData\Local\Temp\ccdovRCu.s:29338  .debug_str:00000000000239c3 .LASF660
C:\Users\SOLDER~1\AppData\Local\Temp\ccdovRCu.s:31550  .debug_str:000000000002ca7b .LASF661
C:\Users\SOLDER~1\AppData\Local\Temp\ccdovRCu.s:24008  .debug_str:000000000000e02e .LASF662
C:\Users\SOLDER~1\AppData\Local\Temp\ccdovRCu.s:23322  .debug_str:000000000000b304 .LASF663
C:\Users\SOLDER~1\AppData\Local\Temp\ccdovRCu.s:30834  .debug_str:0000000000029b95 .LASF664
C:\Users\SOLDER~1\AppData\Local\Temp\ccdovRCu.s:28014  .debug_str:000000000001e431 .LASF665
C:\Users\SOLDER~1\AppData\Local\Temp\ccdovRCu.s:28286  .debug_str:000000000001f621 .LASF666
C:\Users\SOLDER~1\AppData\Local\Temp\ccdovRCu.s:28302  .debug_str:000000000001f745 .LASF667
C:\Users\SOLDER~1\AppData\Local\Temp\ccdovRCu.s:22200  .debug_str:00000000000069b8 .LASF668
C:\Users\SOLDER~1\AppData\Local\Temp\ccdovRCu.s:29374  .debug_str:0000000000023bf8 .LASF669
C:\Users\SOLDER~1\AppData\Local\Temp\ccdovRCu.s:30400  .debug_str:0000000000027f98 .LASF670
C:\Users\SOLDER~1\AppData\Local\Temp\ccdovRCu.s:31858  .debug_str:000000000002de23 .LASF671
C:\Users\SOLDER~1\AppData\Local\Temp\ccdovRCu.s:31150  .debug_str:000000000002b01b .LASF672
C:\Users\SOLDER~1\AppData\Local\Temp\ccdovRCu.s:27390  .debug_str:000000000001bb38 .LASF673
C:\Users\SOLDER~1\AppData\Local\Temp\ccdovRCu.s:25954  .debug_str:0000000000015f19 .LASF674
C:\Users\SOLDER~1\AppData\Local\Temp\ccdovRCu.s:21466  .debug_str:0000000000003a84 .LASF675
C:\Users\SOLDER~1\AppData\Local\Temp\ccdovRCu.s:24660  .debug_str:0000000000010a7b .LASF676
C:\Users\SOLDER~1\AppData\Local\Temp\ccdovRCu.s:27096  .debug_str:000000000001a879 .LASF677
C:\Users\SOLDER~1\AppData\Local\Temp\ccdovRCu.s:30202  .debug_str:00000000000272ad .LASF678
C:\Users\SOLDER~1\AppData\Local\Temp\ccdovRCu.s:31476  .debug_str:000000000002c5c1 .LASF679
C:\Users\SOLDER~1\AppData\Local\Temp\ccdovRCu.s:26408  .debug_str:0000000000017bfd .LASF680
C:\Users\SOLDER~1\AppData\Local\Temp\ccdovRCu.s:27938  .debug_str:000000000001df12 .LASF681
C:\Users\SOLDER~1\AppData\Local\Temp\ccdovRCu.s:25202  .debug_str:0000000000012d0c .LASF682
C:\Users\SOLDER~1\AppData\Local\Temp\ccdovRCu.s:26124  .debug_str:00000000000169c9 .LASF683
C:\Users\SOLDER~1\AppData\Local\Temp\ccdovRCu.s:22676  .debug_str:000000000000884c .LASF684
C:\Users\SOLDER~1\AppData\Local\Temp\ccdovRCu.s:27706  .debug_str:000000000001d04f .LASF685
C:\Users\SOLDER~1\AppData\Local\Temp\ccdovRCu.s:28246  .debug_str:000000000001f391 .LASF686
C:\Users\SOLDER~1\AppData\Local\Temp\ccdovRCu.s:20976  .debug_str:0000000000001b2f .LASF687
C:\Users\SOLDER~1\AppData\Local\Temp\ccdovRCu.s:28026  .debug_str:000000000001e4e3 .LASF688
C:\Users\SOLDER~1\AppData\Local\Temp\ccdovRCu.s:31362  .debug_str:000000000002be05 .LASF689
C:\Users\SOLDER~1\AppData\Local\Temp\ccdovRCu.s:20598  .debug_str:00000000000001f3 .LASF690
C:\Users\SOLDER~1\AppData\Local\Temp\ccdovRCu.s:28506  .debug_str:0000000000020437 .LASF691
C:\Users\SOLDER~1\AppData\Local\Temp\ccdovRCu.s:28458  .debug_str:000000000002011e .LASF692
C:\Users\SOLDER~1\AppData\Local\Temp\ccdovRCu.s:22772  .debug_str:0000000000008e97 .LASF693
C:\Users\SOLDER~1\AppData\Local\Temp\ccdovRCu.s:28212  .debug_str:000000000001f145 .LASF694
C:\Users\SOLDER~1\AppData\Local\Temp\ccdovRCu.s:22756  .debug_str:0000000000008d76 .LASF695
C:\Users\SOLDER~1\AppData\Local\Temp\ccdovRCu.s:27716  .debug_str:000000000001d0fd .LASF696
C:\Users\SOLDER~1\AppData\Local\Temp\ccdovRCu.s:30390  .debug_str:0000000000027ed5 .LASF697
C:\Users\SOLDER~1\AppData\Local\Temp\ccdovRCu.s:31172  .debug_str:000000000002b15e .LASF698
C:\Users\SOLDER~1\AppData\Local\Temp\ccdovRCu.s:24150  .debug_str:000000000000e9c9 .LASF699
C:\Users\SOLDER~1\AppData\Local\Temp\ccdovRCu.s:31860  .debug_str:000000000002de39 .LASF700
C:\Users\SOLDER~1\AppData\Local\Temp\ccdovRCu.s:26948  .debug_str:0000000000019f00 .LASF701
C:\Users\SOLDER~1\AppData\Local\Temp\ccdovRCu.s:21400  .debug_str:0000000000003636 .LASF702
C:\Users\SOLDER~1\AppData\Local\Temp\ccdovRCu.s:29448  .debug_str:00000000000240ba .LASF703
C:\Users\SOLDER~1\AppData\Local\Temp\ccdovRCu.s:27424  .debug_str:000000000001bd39 .LASF704
C:\Users\SOLDER~1\AppData\Local\Temp\ccdovRCu.s:30442  .debug_str:000000000002825e .LASF705
C:\Users\SOLDER~1\AppData\Local\Temp\ccdovRCu.s:26160  .debug_str:0000000000016c29 .LASF706
C:\Users\SOLDER~1\AppData\Local\Temp\ccdovRCu.s:23472  .debug_str:000000000000bcc0 .LASF707
C:\Users\SOLDER~1\AppData\Local\Temp\ccdovRCu.s:29046  .debug_str:000000000002265f .LASF708
C:\Users\SOLDER~1\AppData\Local\Temp\ccdovRCu.s:28500  .debug_str:00000000000203ce .LASF709
C:\Users\SOLDER~1\AppData\Local\Temp\ccdovRCu.s:21416  .debug_str:0000000000003732 .LASF710
C:\Users\SOLDER~1\AppData\Local\Temp\ccdovRCu.s:29928  .debug_str:0000000000026059 .LASF711
GAS LISTING C:\Users\SOLDER~1\AppData\Local\Temp\ccdovRCu.s 			page 65


C:\Users\SOLDER~1\AppData\Local\Temp\ccdovRCu.s:29236  .debug_str:00000000000232e8 .LASF712
C:\Users\SOLDER~1\AppData\Local\Temp\ccdovRCu.s:22538  .debug_str:0000000000007f7d .LASF713
C:\Users\SOLDER~1\AppData\Local\Temp\ccdovRCu.s:30280  .debug_str:00000000000277b2 .LASF714
C:\Users\SOLDER~1\AppData\Local\Temp\ccdovRCu.s:28228  .debug_str:000000000001f24f .LASF715
C:\Users\SOLDER~1\AppData\Local\Temp\ccdovRCu.s:29388  .debug_str:0000000000023cb4 .LASF716
C:\Users\SOLDER~1\AppData\Local\Temp\ccdovRCu.s:24684  .debug_str:0000000000010bdc .LASF717
C:\Users\SOLDER~1\AppData\Local\Temp\ccdovRCu.s:31900  .debug_str:000000000002e0e4 .LASF718
C:\Users\SOLDER~1\AppData\Local\Temp\ccdovRCu.s:27126  .debug_str:000000000001aa97 .LASF719
C:\Users\SOLDER~1\AppData\Local\Temp\ccdovRCu.s:25118  .debug_str:00000000000127b3 .LASF720
C:\Users\SOLDER~1\AppData\Local\Temp\ccdovRCu.s:28780  .debug_str:00000000000215d3 .LASF721
C:\Users\SOLDER~1\AppData\Local\Temp\ccdovRCu.s:26918  .debug_str:0000000000019d26 .LASF722
C:\Users\SOLDER~1\AppData\Local\Temp\ccdovRCu.s:28828  .debug_str:00000000000218f5 .LASF723
C:\Users\SOLDER~1\AppData\Local\Temp\ccdovRCu.s:26052  .debug_str:0000000000016572 .LASF724
C:\Users\SOLDER~1\AppData\Local\Temp\ccdovRCu.s:25290  .debug_str:00000000000132e4 .LASF725
C:\Users\SOLDER~1\AppData\Local\Temp\ccdovRCu.s:31050  .debug_str:000000000002a9d2 .LASF726
C:\Users\SOLDER~1\AppData\Local\Temp\ccdovRCu.s:25470  .debug_str:0000000000013f5e .LASF727
C:\Users\SOLDER~1\AppData\Local\Temp\ccdovRCu.s:20736  .debug_str:0000000000000bf5 .LASF728
C:\Users\SOLDER~1\AppData\Local\Temp\ccdovRCu.s:23908  .debug_str:000000000000d9d2 .LASF729
C:\Users\SOLDER~1\AppData\Local\Temp\ccdovRCu.s:26776  .debug_str:00000000000193de .LASF730
C:\Users\SOLDER~1\AppData\Local\Temp\ccdovRCu.s:27374  .debug_str:000000000001ba39 .LASF731
C:\Users\SOLDER~1\AppData\Local\Temp\ccdovRCu.s:22364  .debug_str:0000000000007461 .LASF732
C:\Users\SOLDER~1\AppData\Local\Temp\ccdovRCu.s:22980  .debug_str:0000000000009c32 .LASF733
C:\Users\SOLDER~1\AppData\Local\Temp\ccdovRCu.s:29030  .debug_str:000000000002254d .LASF734
C:\Users\SOLDER~1\AppData\Local\Temp\ccdovRCu.s:28962  .debug_str:0000000000022161 .LASF735
C:\Users\SOLDER~1\AppData\Local\Temp\ccdovRCu.s:26610  .debug_str:00000000000188ea .LASF736
C:\Users\SOLDER~1\AppData\Local\Temp\ccdovRCu.s:23464  .debug_str:000000000000bc38 .LASF737
C:\Users\SOLDER~1\AppData\Local\Temp\ccdovRCu.s:32026  .debug_str:000000000002e878 .LASF738
C:\Users\SOLDER~1\AppData\Local\Temp\ccdovRCu.s:23694  .debug_str:000000000000cbc4 .LASF739
C:\Users\SOLDER~1\AppData\Local\Temp\ccdovRCu.s:21086  .debug_str:0000000000002234 .LASF740
C:\Users\SOLDER~1\AppData\Local\Temp\ccdovRCu.s:25784  .debug_str:000000000001541c .LASF741
C:\Users\SOLDER~1\AppData\Local\Temp\ccdovRCu.s:23452  .debug_str:000000000000bb64 .LASF742
C:\Users\SOLDER~1\AppData\Local\Temp\ccdovRCu.s:30316  .debug_str:0000000000027a18 .LASF743
C:\Users\SOLDER~1\AppData\Local\Temp\ccdovRCu.s:26936  .debug_str:0000000000019e57 .LASF744
C:\Users\SOLDER~1\AppData\Local\Temp\ccdovRCu.s:25056  .debug_str:000000000001237f .LASF745
C:\Users\SOLDER~1\AppData\Local\Temp\ccdovRCu.s:28376  .debug_str:000000000001fc21 .LASF746
C:\Users\SOLDER~1\AppData\Local\Temp\ccdovRCu.s:28956  .debug_str:00000000000220fb .LASF747
C:\Users\SOLDER~1\AppData\Local\Temp\ccdovRCu.s:29894  .debug_str:0000000000025df4 .LASF748
C:\Users\SOLDER~1\AppData\Local\Temp\ccdovRCu.s:29326  .debug_str:00000000000238f1 .LASF749
C:\Users\SOLDER~1\AppData\Local\Temp\ccdovRCu.s:22264  .debug_str:0000000000006da6 .LASF750
C:\Users\SOLDER~1\AppData\Local\Temp\ccdovRCu.s:21758  .debug_str:0000000000004d06 .LASF751
C:\Users\SOLDER~1\AppData\Local\Temp\ccdovRCu.s:23150  .debug_str:000000000000a7e9 .LASF752
C:\Users\SOLDER~1\AppData\Local\Temp\ccdovRCu.s:26636  .debug_str:0000000000018a8a .LASF753
C:\Users\SOLDER~1\AppData\Local\Temp\ccdovRCu.s:31136  .debug_str:000000000002af3b .LASF754
C:\Users\SOLDER~1\AppData\Local\Temp\ccdovRCu.s:29042  .debug_str:0000000000022624 .LASF755
C:\Users\SOLDER~1\AppData\Local\Temp\ccdovRCu.s:21236  .debug_str:0000000000002bc8 .LASF756
C:\Users\SOLDER~1\AppData\Local\Temp\ccdovRCu.s:30346  .debug_str:0000000000027c03 .LASF757
C:\Users\SOLDER~1\AppData\Local\Temp\ccdovRCu.s:21118  .debug_str:000000000000245b .LASF758
C:\Users\SOLDER~1\AppData\Local\Temp\ccdovRCu.s:27962  .debug_str:000000000001e0c0 .LASF759
C:\Users\SOLDER~1\AppData\Local\Temp\ccdovRCu.s:25990  .debug_str:000000000001618b .LASF760
C:\Users\SOLDER~1\AppData\Local\Temp\ccdovRCu.s:20634  .debug_str:0000000000000462 .LASF761
C:\Users\SOLDER~1\AppData\Local\Temp\ccdovRCu.s:20818  .debug_str:000000000000110d .LASF762
C:\Users\SOLDER~1\AppData\Local\Temp\ccdovRCu.s:29426  .debug_str:0000000000023f44 .LASF763
C:\Users\SOLDER~1\AppData\Local\Temp\ccdovRCu.s:29734  .debug_str:0000000000025390 .LASF764
C:\Users\SOLDER~1\AppData\Local\Temp\ccdovRCu.s:22026  .debug_str:0000000000005dcf .LASF765
C:\Users\SOLDER~1\AppData\Local\Temp\ccdovRCu.s:22842  .debug_str:0000000000009356 .LASF766
C:\Users\SOLDER~1\AppData\Local\Temp\ccdovRCu.s:30890  .debug_str:0000000000029f11 .LASF767
C:\Users\SOLDER~1\AppData\Local\Temp\ccdovRCu.s:20764  .debug_str:0000000000000df5 .LASF768
GAS LISTING C:\Users\SOLDER~1\AppData\Local\Temp\ccdovRCu.s 			page 66


C:\Users\SOLDER~1\AppData\Local\Temp\ccdovRCu.s:25568  .debug_str:000000000001461e .LASF769
C:\Users\SOLDER~1\AppData\Local\Temp\ccdovRCu.s:27578  .debug_str:000000000001c773 .LASF770
C:\Users\SOLDER~1\AppData\Local\Temp\ccdovRCu.s:22318  .debug_str:0000000000007188 .LASF771
C:\Users\SOLDER~1\AppData\Local\Temp\ccdovRCu.s:22000  .debug_str:0000000000005c15 .LASF772
C:\Users\SOLDER~1\AppData\Local\Temp\ccdovRCu.s:23574  .debug_str:000000000000c34c .LASF773
C:\Users\SOLDER~1\AppData\Local\Temp\ccdovRCu.s:21136  .debug_str:000000000000258e .LASF774
C:\Users\SOLDER~1\AppData\Local\Temp\ccdovRCu.s:21798  .debug_str:0000000000004f43 .LASF775
C:\Users\SOLDER~1\AppData\Local\Temp\ccdovRCu.s:21780  .debug_str:0000000000004e54 .LASF776
C:\Users\SOLDER~1\AppData\Local\Temp\ccdovRCu.s:22048  .debug_str:0000000000005f30 .LASF777
C:\Users\SOLDER~1\AppData\Local\Temp\ccdovRCu.s:31040  .debug_str:000000000002a932 .LASF778
C:\Users\SOLDER~1\AppData\Local\Temp\ccdovRCu.s:27814  .debug_str:000000000001d77d .LASF779
C:\Users\SOLDER~1\AppData\Local\Temp\ccdovRCu.s:26928  .debug_str:0000000000019dd1 .LASF780
C:\Users\SOLDER~1\AppData\Local\Temp\ccdovRCu.s:28790  .debug_str:0000000000021666 .LASF781
C:\Users\SOLDER~1\AppData\Local\Temp\ccdovRCu.s:22630  .debug_str:0000000000008563 .LASF782
C:\Users\SOLDER~1\AppData\Local\Temp\ccdovRCu.s:32166  .debug_str:000000000002f149 .LASF783
C:\Users\SOLDER~1\AppData\Local\Temp\ccdovRCu.s:20972  .debug_str:0000000000001aeb .LASF784
C:\Users\SOLDER~1\AppData\Local\Temp\ccdovRCu.s:23866  .debug_str:000000000000d708 .LASF785
C:\Users\SOLDER~1\AppData\Local\Temp\ccdovRCu.s:22314  .debug_str:0000000000007149 .LASF786
C:\Users\SOLDER~1\AppData\Local\Temp\ccdovRCu.s:27228  .debug_str:000000000001b162 .LASF787
C:\Users\SOLDER~1\AppData\Local\Temp\ccdovRCu.s:29232  .debug_str:00000000000232a7 .LASF788
C:\Users\SOLDER~1\AppData\Local\Temp\ccdovRCu.s:26410  .debug_str:0000000000017c21 .LASF789
C:\Users\SOLDER~1\AppData\Local\Temp\ccdovRCu.s:31832  .debug_str:000000000002dc83 .LASF790
C:\Users\SOLDER~1\AppData\Local\Temp\ccdovRCu.s:26750  .debug_str:000000000001924d .LASF791
C:\Users\SOLDER~1\AppData\Local\Temp\ccdovRCu.s:32118  .debug_str:000000000002ee54 .LASF792
C:\Users\SOLDER~1\AppData\Local\Temp\ccdovRCu.s:24860  .debug_str:000000000001172c .LASF793
C:\Users\SOLDER~1\AppData\Local\Temp\ccdovRCu.s:29968  .debug_str:0000000000026325 .LASF794
C:\Users\SOLDER~1\AppData\Local\Temp\ccdovRCu.s:30404  .debug_str:0000000000027fe2 .LASF795
C:\Users\SOLDER~1\AppData\Local\Temp\ccdovRCu.s:23548  .debug_str:000000000000c188 .LASF796
C:\Users\SOLDER~1\AppData\Local\Temp\ccdovRCu.s:30436  .debug_str:0000000000028205 .LASF797
C:\Users\SOLDER~1\AppData\Local\Temp\ccdovRCu.s:25772  .debug_str:000000000001535b .LASF798
C:\Users\SOLDER~1\AppData\Local\Temp\ccdovRCu.s:25736  .debug_str:00000000000150ea .LASF799
C:\Users\SOLDER~1\AppData\Local\Temp\ccdovRCu.s:25180  .debug_str:0000000000012b83 .LASF800
C:\Users\SOLDER~1\AppData\Local\Temp\ccdovRCu.s:23608  .debug_str:000000000000c5bf .LASF801
C:\Users\SOLDER~1\AppData\Local\Temp\ccdovRCu.s:28282  .debug_str:000000000001f5dd .LASF802
C:\Users\SOLDER~1\AppData\Local\Temp\ccdovRCu.s:23736  .debug_str:000000000000ce92 .LASF803
C:\Users\SOLDER~1\AppData\Local\Temp\ccdovRCu.s:31866  .debug_str:000000000002de8f .LASF804
C:\Users\SOLDER~1\AppData\Local\Temp\ccdovRCu.s:30078  .debug_str:0000000000026aa8 .LASF805
C:\Users\SOLDER~1\AppData\Local\Temp\ccdovRCu.s:21188  .debug_str:00000000000028fb .LASF806
C:\Users\SOLDER~1\AppData\Local\Temp\ccdovRCu.s:30140  .debug_str:0000000000026ed9 .LASF807
C:\Users\SOLDER~1\AppData\Local\Temp\ccdovRCu.s:30366  .debug_str:0000000000027d24 .LASF808
C:\Users\SOLDER~1\AppData\Local\Temp\ccdovRCu.s:22196  .debug_str:0000000000006976 .LASF809
C:\Users\SOLDER~1\AppData\Local\Temp\ccdovRCu.s:26990  .debug_str:000000000001a1a0 .LASF810
C:\Users\SOLDER~1\AppData\Local\Temp\ccdovRCu.s:26040  .debug_str:00000000000164c8 .LASF811
C:\Users\SOLDER~1\AppData\Local\Temp\ccdovRCu.s:22168  .debug_str:0000000000006764 .LASF812
C:\Users\SOLDER~1\AppData\Local\Temp\ccdovRCu.s:31722  .debug_str:000000000002d58a .LASF813
C:\Users\SOLDER~1\AppData\Local\Temp\ccdovRCu.s:30750  .debug_str:000000000002965a .LASF814
C:\Users\SOLDER~1\AppData\Local\Temp\ccdovRCu.s:28952  .debug_str:00000000000220c2 .LASF815
C:\Users\SOLDER~1\AppData\Local\Temp\ccdovRCu.s:31392  .debug_str:000000000002bff7 .LASF816
C:\Users\SOLDER~1\AppData\Local\Temp\ccdovRCu.s:30264  .debug_str:00000000000276b7 .LASF817
C:\Users\SOLDER~1\AppData\Local\Temp\ccdovRCu.s:28292  .debug_str:000000000001f690 .LASF818
C:\Users\SOLDER~1\AppData\Local\Temp\ccdovRCu.s:30012  .debug_str:0000000000026647 .LASF819
C:\Users\SOLDER~1\AppData\Local\Temp\ccdovRCu.s:27052  .debug_str:000000000001a5b0 .LASF820
C:\Users\SOLDER~1\AppData\Local\Temp\ccdovRCu.s:27366  .debug_str:000000000001b9d1 .LASF821
C:\Users\SOLDER~1\AppData\Local\Temp\ccdovRCu.s:29106  .debug_str:0000000000022a71 .LASF822
C:\Users\SOLDER~1\AppData\Local\Temp\ccdovRCu.s:22922  .debug_str:0000000000009888 .LASF823
C:\Users\SOLDER~1\AppData\Local\Temp\ccdovRCu.s:27898  .debug_str:000000000001dc74 .LASF824
C:\Users\SOLDER~1\AppData\Local\Temp\ccdovRCu.s:24204  .debug_str:000000000000ece6 .LASF825
GAS LISTING C:\Users\SOLDER~1\AppData\Local\Temp\ccdovRCu.s 			page 67


C:\Users\SOLDER~1\AppData\Local\Temp\ccdovRCu.s:27656  .debug_str:000000000001ccfb .LASF826
C:\Users\SOLDER~1\AppData\Local\Temp\ccdovRCu.s:30314  .debug_str:0000000000027a07 .LASF827
C:\Users\SOLDER~1\AppData\Local\Temp\ccdovRCu.s:26482  .debug_str:00000000000180bb .LASF828
C:\Users\SOLDER~1\AppData\Local\Temp\ccdovRCu.s:23766  .debug_str:000000000000d07a .LASF829
C:\Users\SOLDER~1\AppData\Local\Temp\ccdovRCu.s:29822  .debug_str:0000000000025911 .LASF830
C:\Users\SOLDER~1\AppData\Local\Temp\ccdovRCu.s:24388  .debug_str:000000000000f889 .LASF831
C:\Users\SOLDER~1\AppData\Local\Temp\ccdovRCu.s:30742  .debug_str:00000000000295bc .LASF832
C:\Users\SOLDER~1\AppData\Local\Temp\ccdovRCu.s:22836  .debug_str:00000000000092f5 .LASF833
C:\Users\SOLDER~1\AppData\Local\Temp\ccdovRCu.s:30638  .debug_str:0000000000028f2d .LASF834
C:\Users\SOLDER~1\AppData\Local\Temp\ccdovRCu.s:31600  .debug_str:000000000002cd57 .LASF835
C:\Users\SOLDER~1\AppData\Local\Temp\ccdovRCu.s:21534  .debug_str:0000000000003ed4 .LASF836
C:\Users\SOLDER~1\AppData\Local\Temp\ccdovRCu.s:28604  .debug_str:0000000000020a96 .LASF837
C:\Users\SOLDER~1\AppData\Local\Temp\ccdovRCu.s:25214  .debug_str:0000000000012de6 .LASF838
C:\Users\SOLDER~1\AppData\Local\Temp\ccdovRCu.s:23454  .debug_str:000000000000bb84 .LASF839
C:\Users\SOLDER~1\AppData\Local\Temp\ccdovRCu.s:21900  .debug_str:0000000000005564 .LASF840
C:\Users\SOLDER~1\AppData\Local\Temp\ccdovRCu.s:24804  .debug_str:0000000000011387 .LASF841
C:\Users\SOLDER~1\AppData\Local\Temp\ccdovRCu.s:24788  .debug_str:0000000000011273 .LASF842
C:\Users\SOLDER~1\AppData\Local\Temp\ccdovRCu.s:27430  .debug_str:000000000001bd9a .LASF843
C:\Users\SOLDER~1\AppData\Local\Temp\ccdovRCu.s:31956  .debug_str:000000000002e451 .LASF844
C:\Users\SOLDER~1\AppData\Local\Temp\ccdovRCu.s:30990  .debug_str:000000000002a5e6 .LASF845
C:\Users\SOLDER~1\AppData\Local\Temp\ccdovRCu.s:27058  .debug_str:000000000001a60b .LASF846
C:\Users\SOLDER~1\AppData\Local\Temp\ccdovRCu.s:24972  .debug_str:0000000000011e4c .LASF847
C:\Users\SOLDER~1\AppData\Local\Temp\ccdovRCu.s:20932  .debug_str:0000000000001842 .LASF848
C:\Users\SOLDER~1\AppData\Local\Temp\ccdovRCu.s:28076  .debug_str:000000000001e80e .LASF849
C:\Users\SOLDER~1\AppData\Local\Temp\ccdovRCu.s:31074  .debug_str:000000000002ab22 .LASF850
C:\Users\SOLDER~1\AppData\Local\Temp\ccdovRCu.s:21872  .debug_str:00000000000053d4 .LASF851
C:\Users\SOLDER~1\AppData\Local\Temp\ccdovRCu.s:24298  .debug_str:000000000000f2d2 .LASF852
C:\Users\SOLDER~1\AppData\Local\Temp\ccdovRCu.s:25986  .debug_str:0000000000016144 .LASF853
C:\Users\SOLDER~1\AppData\Local\Temp\ccdovRCu.s:23134  .debug_str:000000000000a6cc .LASF854
C:\Users\SOLDER~1\AppData\Local\Temp\ccdovRCu.s:24184  .debug_str:000000000000ebbd .LASF855
C:\Users\SOLDER~1\AppData\Local\Temp\ccdovRCu.s:28182  .debug_str:000000000001ef53 .LASF856
C:\Users\SOLDER~1\AppData\Local\Temp\ccdovRCu.s:24218  .debug_str:000000000000eddb .LASF857
C:\Users\SOLDER~1\AppData\Local\Temp\ccdovRCu.s:29084  .debug_str:0000000000022913 .LASF858
C:\Users\SOLDER~1\AppData\Local\Temp\ccdovRCu.s:21502  .debug_str:0000000000003ccd .LASF859
C:\Users\SOLDER~1\AppData\Local\Temp\ccdovRCu.s:23514  .debug_str:000000000000bf49 .LASF860
C:\Users\SOLDER~1\AppData\Local\Temp\ccdovRCu.s:21218  .debug_str:0000000000002ad8 .LASF861
C:\Users\SOLDER~1\AppData\Local\Temp\ccdovRCu.s:24786  .debug_str:0000000000011260 .LASF862
C:\Users\SOLDER~1\AppData\Local\Temp\ccdovRCu.s:27134  .debug_str:000000000001ab0b .LASF863
C:\Users\SOLDER~1\AppData\Local\Temp\ccdovRCu.s:25272  .debug_str:0000000000013184 .LASF864
C:\Users\SOLDER~1\AppData\Local\Temp\ccdovRCu.s:28998  .debug_str:000000000002238b .LASF865
C:\Users\SOLDER~1\AppData\Local\Temp\ccdovRCu.s:24588  .debug_str:00000000000105b5 .LASF866
C:\Users\SOLDER~1\AppData\Local\Temp\ccdovRCu.s:21380  .debug_str:0000000000003524 .LASF867
C:\Users\SOLDER~1\AppData\Local\Temp\ccdovRCu.s:31994  .debug_str:000000000002e683 .LASF868
C:\Users\SOLDER~1\AppData\Local\Temp\ccdovRCu.s:21808  .debug_str:0000000000004ff8 .LASF869
C:\Users\SOLDER~1\AppData\Local\Temp\ccdovRCu.s:25466  .debug_str:0000000000013f12 .LASF870
C:\Users\SOLDER~1\AppData\Local\Temp\ccdovRCu.s:31504  .debug_str:000000000002c77c .LASF871
C:\Users\SOLDER~1\AppData\Local\Temp\ccdovRCu.s:25966  .debug_str:0000000000015fea .LASF872
C:\Users\SOLDER~1\AppData\Local\Temp\ccdovRCu.s:32112  .debug_str:000000000002edfd .LASF873
C:\Users\SOLDER~1\AppData\Local\Temp\ccdovRCu.s:27506  .debug_str:000000000001c295 .LASF874
C:\Users\SOLDER~1\AppData\Local\Temp\ccdovRCu.s:26756  .debug_str:0000000000019291 .LASF875
C:\Users\SOLDER~1\AppData\Local\Temp\ccdovRCu.s:22128  .debug_str:00000000000064bf .LASF876
C:\Users\SOLDER~1\AppData\Local\Temp\ccdovRCu.s:30690  .debug_str:000000000002925c .LASF877
C:\Users\SOLDER~1\AppData\Local\Temp\ccdovRCu.s:29234  .debug_str:00000000000232c7 .LASF878
C:\Users\SOLDER~1\AppData\Local\Temp\ccdovRCu.s:24748  .debug_str:0000000000010fec .LASF879
C:\Users\SOLDER~1\AppData\Local\Temp\ccdovRCu.s:21266  .debug_str:0000000000002dc7 .LASF880
C:\Users\SOLDER~1\AppData\Local\Temp\ccdovRCu.s:31180  .debug_str:000000000002b1eb .LASF881
C:\Users\SOLDER~1\AppData\Local\Temp\ccdovRCu.s:22268  .debug_str:0000000000006e0c .LASF882
GAS LISTING C:\Users\SOLDER~1\AppData\Local\Temp\ccdovRCu.s 			page 68


C:\Users\SOLDER~1\AppData\Local\Temp\ccdovRCu.s:21842  .debug_str:0000000000005211 .LASF883
C:\Users\SOLDER~1\AppData\Local\Temp\ccdovRCu.s:25854  .debug_str:00000000000158bd .LASF884
C:\Users\SOLDER~1\AppData\Local\Temp\ccdovRCu.s:23524  .debug_str:000000000000bfef .LASF885
C:\Users\SOLDER~1\AppData\Local\Temp\ccdovRCu.s:27956  .debug_str:000000000001e052 .LASF886
C:\Users\SOLDER~1\AppData\Local\Temp\ccdovRCu.s:27026  .debug_str:000000000001a3e3 .LASF887
C:\Users\SOLDER~1\AppData\Local\Temp\ccdovRCu.s:23144  .debug_str:000000000000a785 .LASF888
C:\Users\SOLDER~1\AppData\Local\Temp\ccdovRCu.s:24682  .debug_str:0000000000010bbb .LASF889
C:\Users\SOLDER~1\AppData\Local\Temp\ccdovRCu.s:30848  .debug_str:0000000000029c68 .LASF890
C:\Users\SOLDER~1\AppData\Local\Temp\ccdovRCu.s:20644  .debug_str:0000000000000500 .LASF891
C:\Users\SOLDER~1\AppData\Local\Temp\ccdovRCu.s:22076  .debug_str:0000000000006153 .LASF892
C:\Users\SOLDER~1\AppData\Local\Temp\ccdovRCu.s:31276  .debug_str:000000000002b853 .LASF893
C:\Users\SOLDER~1\AppData\Local\Temp\ccdovRCu.s:29248  .debug_str:00000000000233c1 .LASF894
C:\Users\SOLDER~1\AppData\Local\Temp\ccdovRCu.s:30864  .debug_str:0000000000029d77 .LASF895
C:\Users\SOLDER~1\AppData\Local\Temp\ccdovRCu.s:28112  .debug_str:000000000001eaa2 .LASF896
C:\Users\SOLDER~1\AppData\Local\Temp\ccdovRCu.s:30438  .debug_str:0000000000028227 .LASF897
C:\Users\SOLDER~1\AppData\Local\Temp\ccdovRCu.s:22192  .debug_str:000000000000692e .LASF898
C:\Users\SOLDER~1\AppData\Local\Temp\ccdovRCu.s:20662  .debug_str:000000000000063d .LASF899
C:\Users\SOLDER~1\AppData\Local\Temp\ccdovRCu.s:22124  .debug_str:0000000000006479 .LASF900
C:\Users\SOLDER~1\AppData\Local\Temp\ccdovRCu.s:26512  .debug_str:00000000000182c9 .LASF901
C:\Users\SOLDER~1\AppData\Local\Temp\ccdovRCu.s:28398  .debug_str:000000000001fd87 .LASF902
C:\Users\SOLDER~1\AppData\Local\Temp\ccdovRCu.s:22342  .debug_str:0000000000007312 .LASF903
C:\Users\SOLDER~1\AppData\Local\Temp\ccdovRCu.s:21390  .debug_str:00000000000035a3 .LASF904
C:\Users\SOLDER~1\AppData\Local\Temp\ccdovRCu.s:23480  .debug_str:000000000000bd3c .LASF905
C:\Users\SOLDER~1\AppData\Local\Temp\ccdovRCu.s:21622  .debug_str:000000000000444d .LASF906
C:\Users\SOLDER~1\AppData\Local\Temp\ccdovRCu.s:22396  .debug_str:0000000000007656 .LASF907
C:\Users\SOLDER~1\AppData\Local\Temp\ccdovRCu.s:29428  .debug_str:0000000000023f66 .LASF908
C:\Users\SOLDER~1\AppData\Local\Temp\ccdovRCu.s:26286  .debug_str:000000000001742a .LASF909
C:\Users\SOLDER~1\AppData\Local\Temp\ccdovRCu.s:25352  .debug_str:0000000000013705 .LASF910
C:\Users\SOLDER~1\AppData\Local\Temp\ccdovRCu.s:27990  .debug_str:000000000001e2a2 .LASF911
C:\Users\SOLDER~1\AppData\Local\Temp\ccdovRCu.s:21884  .debug_str:0000000000005489 .LASF912
C:\Users\SOLDER~1\AppData\Local\Temp\ccdovRCu.s:31042  .debug_str:000000000002a954 .LASF913
C:\Users\SOLDER~1\AppData\Local\Temp\ccdovRCu.s:21178  .debug_str:0000000000002824 .LASF914
C:\Users\SOLDER~1\AppData\Local\Temp\ccdovRCu.s:31654  .debug_str:000000000002d0d2 .LASF915
C:\Users\SOLDER~1\AppData\Local\Temp\ccdovRCu.s:26428  .debug_str:0000000000017d2d .LASF916
C:\Users\SOLDER~1\AppData\Local\Temp\ccdovRCu.s:21686  .debug_str:0000000000004874 .LASF917
C:\Users\SOLDER~1\AppData\Local\Temp\ccdovRCu.s:28316  .debug_str:000000000001f85a .LASF918
C:\Users\SOLDER~1\AppData\Local\Temp\ccdovRCu.s:27144  .debug_str:000000000001ab94 .LASF919
C:\Users\SOLDER~1\AppData\Local\Temp\ccdovRCu.s:28870  .debug_str:0000000000021bac .LASF920
C:\Users\SOLDER~1\AppData\Local\Temp\ccdovRCu.s:24364  .debug_str:000000000000f6fc .LASF921
C:\Users\SOLDER~1\AppData\Local\Temp\ccdovRCu.s:20958  .debug_str:00000000000019fd .LASF922
C:\Users\SOLDER~1\AppData\Local\Temp\ccdovRCu.s:30718  .debug_str:000000000002944f .LASF923
C:\Users\SOLDER~1\AppData\Local\Temp\ccdovRCu.s:31028  .debug_str:000000000002a861 .LASF924
C:\Users\SOLDER~1\AppData\Local\Temp\ccdovRCu.s:21762  .debug_str:0000000000004d3f .LASF925
C:\Users\SOLDER~1\AppData\Local\Temp\ccdovRCu.s:22190  .debug_str:000000000000690e .LASF926
C:\Users\SOLDER~1\AppData\Local\Temp\ccdovRCu.s:23054  .debug_str:000000000000a151 .LASF927
C:\Users\SOLDER~1\AppData\Local\Temp\ccdovRCu.s:27582  .debug_str:000000000001c7cf .LASF928
C:\Users\SOLDER~1\AppData\Local\Temp\ccdovRCu.s:26678  .debug_str:0000000000018d62 .LASF929
C:\Users\SOLDER~1\AppData\Local\Temp\ccdovRCu.s:28098  .debug_str:000000000001e9a3 .LASF930
C:\Users\SOLDER~1\AppData\Local\Temp\ccdovRCu.s:20898  .debug_str:0000000000001627 .LASF931
C:\Users\SOLDER~1\AppData\Local\Temp\ccdovRCu.s:22262  .debug_str:0000000000006d93 .LASF932
C:\Users\SOLDER~1\AppData\Local\Temp\ccdovRCu.s:20814  .debug_str:00000000000010e3 .LASF933
C:\Users\SOLDER~1\AppData\Local\Temp\ccdovRCu.s:24042  .debug_str:000000000000e2c0 .LASF934
C:\Users\SOLDER~1\AppData\Local\Temp\ccdovRCu.s:30912  .debug_str:000000000002a0b1 .LASF935
C:\Users\SOLDER~1\AppData\Local\Temp\ccdovRCu.s:28884  .debug_str:0000000000021c92 .LASF936
C:\Users\SOLDER~1\AppData\Local\Temp\ccdovRCu.s:30474  .debug_str:00000000000284ac .LASF937
C:\Users\SOLDER~1\AppData\Local\Temp\ccdovRCu.s:27736  .debug_str:000000000001d217 .LASF938
C:\Users\SOLDER~1\AppData\Local\Temp\ccdovRCu.s:30752  .debug_str:000000000002966d .LASF939
GAS LISTING C:\Users\SOLDER~1\AppData\Local\Temp\ccdovRCu.s 			page 69


C:\Users\SOLDER~1\AppData\Local\Temp\ccdovRCu.s:22878  .debug_str:00000000000095c3 .LASF940
C:\Users\SOLDER~1\AppData\Local\Temp\ccdovRCu.s:30896  .debug_str:0000000000029f8e .LASF941
C:\Users\SOLDER~1\AppData\Local\Temp\ccdovRCu.s:24242  .debug_str:000000000000ef75 .LASF942
C:\Users\SOLDER~1\AppData\Local\Temp\ccdovRCu.s:29802  .debug_str:00000000000257c5 .LASF943
C:\Users\SOLDER~1\AppData\Local\Temp\ccdovRCu.s:21404  .debug_str:000000000000367b .LASF944
C:\Users\SOLDER~1\AppData\Local\Temp\ccdovRCu.s:24088  .debug_str:000000000000e5c5 .LASF945
C:\Users\SOLDER~1\AppData\Local\Temp\ccdovRCu.s:31062  .debug_str:000000000002aa6f .LASF946
C:\Users\SOLDER~1\AppData\Local\Temp\ccdovRCu.s:29878  .debug_str:0000000000025d01 .LASF947
C:\Users\SOLDER~1\AppData\Local\Temp\ccdovRCu.s:27328  .debug_str:000000000001b76d .LASF948
C:\Users\SOLDER~1\AppData\Local\Temp\ccdovRCu.s:22952  .debug_str:0000000000009a8c .LASF949
C:\Users\SOLDER~1\AppData\Local\Temp\ccdovRCu.s:24058  .debug_str:000000000000e3db .LASF950
C:\Users\SOLDER~1\AppData\Local\Temp\ccdovRCu.s:24410  .debug_str:000000000000fa21 .LASF951
C:\Users\SOLDER~1\AppData\Local\Temp\ccdovRCu.s:31736  .debug_str:000000000002d681 .LASF952
C:\Users\SOLDER~1\AppData\Local\Temp\ccdovRCu.s:23916  .debug_str:000000000000da52 .LASF953
C:\Users\SOLDER~1\AppData\Local\Temp\ccdovRCu.s:26326  .debug_str:00000000000176ba .LASF954
C:\Users\SOLDER~1\AppData\Local\Temp\ccdovRCu.s:26854  .debug_str:000000000001992b .LASF955
C:\Users\SOLDER~1\AppData\Local\Temp\ccdovRCu.s:26706  .debug_str:0000000000018f5e .LASF956
C:\Users\SOLDER~1\AppData\Local\Temp\ccdovRCu.s:26174  .debug_str:0000000000016cec .LASF957
C:\Users\SOLDER~1\AppData\Local\Temp\ccdovRCu.s:24268  .debug_str:000000000000f104 .LASF958
C:\Users\SOLDER~1\AppData\Local\Temp\ccdovRCu.s:21726  .debug_str:0000000000004ae2 .LASF959
C:\Users\SOLDER~1\AppData\Local\Temp\ccdovRCu.s:21956  .debug_str:000000000000594d .LASF960
C:\Users\SOLDER~1\AppData\Local\Temp\ccdovRCu.s:28822  .debug_str:00000000000218a6 .LASF961
C:\Users\SOLDER~1\AppData\Local\Temp\ccdovRCu.s:31184  .debug_str:000000000002b235 .LASF962
C:\Users\SOLDER~1\AppData\Local\Temp\ccdovRCu.s:24342  .debug_str:000000000000f58a .LASF963
C:\Users\SOLDER~1\AppData\Local\Temp\ccdovRCu.s:28760  .debug_str:000000000002148d .LASF964
C:\Users\SOLDER~1\AppData\Local\Temp\ccdovRCu.s:31468  .debug_str:000000000002c55e .LASF965
C:\Users\SOLDER~1\AppData\Local\Temp\ccdovRCu.s:26430  .debug_str:0000000000017d4f .LASF966
C:\Users\SOLDER~1\AppData\Local\Temp\ccdovRCu.s:26214  .debug_str:0000000000016f4e .LASF967
C:\Users\SOLDER~1\AppData\Local\Temp\ccdovRCu.s:23980  .debug_str:000000000000de5a .LASF968
C:\Users\SOLDER~1\AppData\Local\Temp\ccdovRCu.s:22548  .debug_str:0000000000008038 .LASF969
C:\Users\SOLDER~1\AppData\Local\Temp\ccdovRCu.s:21578  .debug_str:000000000000419f .LASF970
C:\Users\SOLDER~1\AppData\Local\Temp\ccdovRCu.s:29622  .debug_str:0000000000024c38 .LASF971
C:\Users\SOLDER~1\AppData\Local\Temp\ccdovRCu.s:30820  .debug_str:0000000000029acf .LASF972
C:\Users\SOLDER~1\AppData\Local\Temp\ccdovRCu.s:23756  .debug_str:000000000000cfdf .LASF973
C:\Users\SOLDER~1\AppData\Local\Temp\ccdovRCu.s:24824  .debug_str:00000000000114ed .LASF974
C:\Users\SOLDER~1\AppData\Local\Temp\ccdovRCu.s:24374  .debug_str:000000000000f794 .LASF975
C:\Users\SOLDER~1\AppData\Local\Temp\ccdovRCu.s:25248  .debug_str:000000000001301c .LASF976
C:\Users\SOLDER~1\AppData\Local\Temp\ccdovRCu.s:31592  .debug_str:000000000002ccee .LASF977
C:\Users\SOLDER~1\AppData\Local\Temp\ccdovRCu.s:31650  .debug_str:000000000002d090 .LASF978
C:\Users\SOLDER~1\AppData\Local\Temp\ccdovRCu.s:27088  .debug_str:000000000001a7f2 .LASF979
C:\Users\SOLDER~1\AppData\Local\Temp\ccdovRCu.s:29216  .debug_str:000000000002318b .LASF980
C:\Users\SOLDER~1\AppData\Local\Temp\ccdovRCu.s:22578  .debug_str:000000000000823d .LASF981
C:\Users\SOLDER~1\AppData\Local\Temp\ccdovRCu.s:26862  .debug_str:000000000001997c .LASF982
C:\Users\SOLDER~1\AppData\Local\Temp\ccdovRCu.s:29648  .debug_str:0000000000024e0e .LASF983
C:\Users\SOLDER~1\AppData\Local\Temp\ccdovRCu.s:24552  .debug_str:0000000000010363 .LASF984
C:\Users\SOLDER~1\AppData\Local\Temp\ccdovRCu.s:25176  .debug_str:0000000000012b48 .LASF985
C:\Users\SOLDER~1\AppData\Local\Temp\ccdovRCu.s:22138  .debug_str:0000000000006561 .LASF986
C:\Users\SOLDER~1\AppData\Local\Temp\ccdovRCu.s:25710  .debug_str:0000000000014f6e .LASF987
C:\Users\SOLDER~1\AppData\Local\Temp\ccdovRCu.s:31368  .debug_str:000000000002be6d .LASF988
C:\Users\SOLDER~1\AppData\Local\Temp\ccdovRCu.s:27876  .debug_str:000000000001db22 .LASF989
C:\Users\SOLDER~1\AppData\Local\Temp\ccdovRCu.s:22014  .debug_str:0000000000005d0b .LASF990
C:\Users\SOLDER~1\AppData\Local\Temp\ccdovRCu.s:23372  .debug_str:000000000000b646 .LASF991
C:\Users\SOLDER~1\AppData\Local\Temp\ccdovRCu.s:26604  .debug_str:0000000000018887 .LASF992
C:\Users\SOLDER~1\AppData\Local\Temp\ccdovRCu.s:30482  .debug_str:0000000000028527 .LASF993
C:\Users\SOLDER~1\AppData\Local\Temp\ccdovRCu.s:27680  .debug_str:000000000001ce87 .LASF994
C:\Users\SOLDER~1\AppData\Local\Temp\ccdovRCu.s:26004  .debug_str:000000000001627d .LASF995
C:\Users\SOLDER~1\AppData\Local\Temp\ccdovRCu.s:24634  .debug_str:000000000001089a .LASF996
GAS LISTING C:\Users\SOLDER~1\AppData\Local\Temp\ccdovRCu.s 			page 70


C:\Users\SOLDER~1\AppData\Local\Temp\ccdovRCu.s:21488  .debug_str:0000000000003bff .LASF997
C:\Users\SOLDER~1\AppData\Local\Temp\ccdovRCu.s:22890  .debug_str:000000000000966e .LASF998
C:\Users\SOLDER~1\AppData\Local\Temp\ccdovRCu.s:28666  .debug_str:0000000000020e6b .LASF999
C:\Users\SOLDER~1\AppData\Local\Temp\ccdovRCu.s:32108  .debug_str:000000000002edb5 .LASF1000
C:\Users\SOLDER~1\AppData\Local\Temp\ccdovRCu.s:24176  .debug_str:000000000000eb68 .LASF1001
C:\Users\SOLDER~1\AppData\Local\Temp\ccdovRCu.s:29676  .debug_str:0000000000024fd4 .LASF1002
C:\Users\SOLDER~1\AppData\Local\Temp\ccdovRCu.s:31316  .debug_str:000000000002bb0b .LASF1003
C:\Users\SOLDER~1\AppData\Local\Temp\ccdovRCu.s:27408  .debug_str:000000000001bc49 .LASF1004
C:\Users\SOLDER~1\AppData\Local\Temp\ccdovRCu.s:26820  .debug_str:00000000000196ed .LASF1005
C:\Users\SOLDER~1\AppData\Local\Temp\ccdovRCu.s:24994  .debug_str:0000000000011fc1 .LASF1006
C:\Users\SOLDER~1\AppData\Local\Temp\ccdovRCu.s:22298  .debug_str:0000000000007038 .LASF1007
C:\Users\SOLDER~1\AppData\Local\Temp\ccdovRCu.s:22604  .debug_str:00000000000083df .LASF1008
C:\Users\SOLDER~1\AppData\Local\Temp\ccdovRCu.s:29472  .debug_str:000000000002424f .LASF1009
C:\Users\SOLDER~1\AppData\Local\Temp\ccdovRCu.s:31826  .debug_str:000000000002dc30 .LASF1010
C:\Users\SOLDER~1\AppData\Local\Temp\ccdovRCu.s:24986  .debug_str:0000000000011f3d .LASF1011
C:\Users\SOLDER~1\AppData\Local\Temp\ccdovRCu.s:29386  .debug_str:0000000000023c93 .LASF1012
C:\Users\SOLDER~1\AppData\Local\Temp\ccdovRCu.s:32102  .debug_str:000000000002ed5c .LASF1013
C:\Users\SOLDER~1\AppData\Local\Temp\ccdovRCu.s:30546  .debug_str:000000000002892b .LASF1014
C:\Users\SOLDER~1\AppData\Local\Temp\ccdovRCu.s:27594  .debug_str:000000000001c8b3 .LASF1015
C:\Users\SOLDER~1\AppData\Local\Temp\ccdovRCu.s:28144  .debug_str:000000000001eceb .LASF1016
C:\Users\SOLDER~1\AppData\Local\Temp\ccdovRCu.s:23078  .debug_str:000000000000a2e8 .LASF1017
C:\Users\SOLDER~1\AppData\Local\Temp\ccdovRCu.s:25756  .debug_str:0000000000015233 .LASF1018
C:\Users\SOLDER~1\AppData\Local\Temp\ccdovRCu.s:30194  .debug_str:0000000000027247 .LASF1019
C:\Users\SOLDER~1\AppData\Local\Temp\ccdovRCu.s:23344  .debug_str:000000000000b46b .LASF1020
C:\Users\SOLDER~1\AppData\Local\Temp\ccdovRCu.s:24960  .debug_str:0000000000011da7 .LASF1021
C:\Users\SOLDER~1\AppData\Local\Temp\ccdovRCu.s:27050  .debug_str:000000000001a58f .LASF1022
C:\Users\SOLDER~1\AppData\Local\Temp\ccdovRCu.s:21302  .debug_str:0000000000003027 .LASF1023
C:\Users\SOLDER~1\AppData\Local\Temp\ccdovRCu.s:30244  .debug_str:000000000002756d .LASF1024
C:\Users\SOLDER~1\AppData\Local\Temp\ccdovRCu.s:29204  .debug_str:00000000000230e7 .LASF1025
C:\Users\SOLDER~1\AppData\Local\Temp\ccdovRCu.s:27854  .debug_str:000000000001d9cf .LASF1026
C:\Users\SOLDER~1\AppData\Local\Temp\ccdovRCu.s:23896  .debug_str:000000000000d921 .LASF1027
C:\Users\SOLDER~1\AppData\Local\Temp\ccdovRCu.s:25474  .debug_str:0000000000013fa4 .LASF1028
C:\Users\SOLDER~1\AppData\Local\Temp\ccdovRCu.s:31022  .debug_str:000000000002a7e8 .LASF1029
C:\Users\SOLDER~1\AppData\Local\Temp\ccdovRCu.s:23050  .debug_str:000000000000a10d .LASF1030
C:\Users\SOLDER~1\AppData\Local\Temp\ccdovRCu.s:22646  .debug_str:0000000000008661 .LASF1031
C:\Users\SOLDER~1\AppData\Local\Temp\ccdovRCu.s:20690  .debug_str:000000000000088a .LASF1032
C:\Users\SOLDER~1\AppData\Local\Temp\ccdovRCu.s:22002  .debug_str:0000000000005c35 .LASF1033
C:\Users\SOLDER~1\AppData\Local\Temp\ccdovRCu.s:21788  .debug_str:0000000000004ec0 .LASF1034
C:\Users\SOLDER~1\AppData\Local\Temp\ccdovRCu.s:29088  .debug_str:000000000002294d .LASF1035
C:\Users\SOLDER~1\AppData\Local\Temp\ccdovRCu.s:31006  .debug_str:000000000002a6e5 .LASF1036
C:\Users\SOLDER~1\AppData\Local\Temp\ccdovRCu.s:24720  .debug_str:0000000000010e3c .LASF1037
C:\Users\SOLDER~1\AppData\Local\Temp\ccdovRCu.s:28584  .debug_str:000000000002095b .LASF1038
C:\Users\SOLDER~1\AppData\Local\Temp\ccdovRCu.s:29594  .debug_str:0000000000024a6c .LASF1039
C:\Users\SOLDER~1\AppData\Local\Temp\ccdovRCu.s:22946  .debug_str:0000000000009a34 .LASF1040
C:\Users\SOLDER~1\AppData\Local\Temp\ccdovRCu.s:21710  .debug_str:00000000000049e3 .LASF1041
C:\Users\SOLDER~1\AppData\Local\Temp\ccdovRCu.s:24574  .debug_str:00000000000104ed .LASF1042
C:\Users\SOLDER~1\AppData\Local\Temp\ccdovRCu.s:30668  .debug_str:000000000002911f .LASF1043
C:\Users\SOLDER~1\AppData\Local\Temp\ccdovRCu.s:28386  .debug_str:000000000001fcb8 .LASF1044
C:\Users\SOLDER~1\AppData\Local\Temp\ccdovRCu.s:25918  .debug_str:0000000000015cda .LASF1045
C:\Users\SOLDER~1\AppData\Local\Temp\ccdovRCu.s:21500  .debug_str:0000000000003cb1 .LASF1046
C:\Users\SOLDER~1\AppData\Local\Temp\ccdovRCu.s:30088  .debug_str:0000000000026b54 .LASF1047
C:\Users\SOLDER~1\AppData\Local\Temp\ccdovRCu.s:22094  .debug_str:0000000000006282 .LASF1048
C:\Users\SOLDER~1\AppData\Local\Temp\ccdovRCu.s:26290  .debug_str:0000000000017470 .LASF1049
C:\Users\SOLDER~1\AppData\Local\Temp\ccdovRCu.s:24970  .debug_str:0000000000011e33 .LASF1050
C:\Users\SOLDER~1\AppData\Local\Temp\ccdovRCu.s:27672  .debug_str:000000000001ce14 .LASF1051
C:\Users\SOLDER~1\AppData\Local\Temp\ccdovRCu.s:30076  .debug_str:0000000000026a8d .LASF1052
C:\Users\SOLDER~1\AppData\Local\Temp\ccdovRCu.s:24162  .debug_str:000000000000ea96 .LASF1053
GAS LISTING C:\Users\SOLDER~1\AppData\Local\Temp\ccdovRCu.s 			page 71


C:\Users\SOLDER~1\AppData\Local\Temp\ccdovRCu.s:27494  .debug_str:000000000001c1e0 .LASF1054
C:\Users\SOLDER~1\AppData\Local\Temp\ccdovRCu.s:21794  .debug_str:0000000000004f17 .LASF1055
C:\Users\SOLDER~1\AppData\Local\Temp\ccdovRCu.s:28772  .debug_str:0000000000021549 .LASF1056
C:\Users\SOLDER~1\AppData\Local\Temp\ccdovRCu.s:28866  .debug_str:0000000000021b64 .LASF1057
C:\Users\SOLDER~1\AppData\Local\Temp\ccdovRCu.s:27834  .debug_str:000000000001d8a4 .LASF1058
C:\Users\SOLDER~1\AppData\Local\Temp\ccdovRCu.s:30872  .debug_str:0000000000029dfc .LASF1059
C:\Users\SOLDER~1\AppData\Local\Temp\ccdovRCu.s:28782  .debug_str:00000000000215e7 .LASF1060
C:\Users\SOLDER~1\AppData\Local\Temp\ccdovRCu.s:28544  .debug_str:00000000000206cd .LASF1061
C:\Users\SOLDER~1\AppData\Local\Temp\ccdovRCu.s:31772  .debug_str:000000000002d8b0 .LASF1062
C:\Users\SOLDER~1\AppData\Local\Temp\ccdovRCu.s:22160  .debug_str:00000000000066f7 .LASF1063
C:\Users\SOLDER~1\AppData\Local\Temp\ccdovRCu.s:24484  .debug_str:000000000000ff4b .LASF1064
C:\Users\SOLDER~1\AppData\Local\Temp\ccdovRCu.s:29196  .debug_str:0000000000023064 .LASF1065
C:\Users\SOLDER~1\AppData\Local\Temp\ccdovRCu.s:29218  .debug_str:00000000000231ac .LASF1066
C:\Users\SOLDER~1\AppData\Local\Temp\ccdovRCu.s:23898  .debug_str:000000000000d938 .LASF1067
C:\Users\SOLDER~1\AppData\Local\Temp\ccdovRCu.s:21696  .debug_str:000000000000491b .LASF1068
C:\Users\SOLDER~1\AppData\Local\Temp\ccdovRCu.s:24714  .debug_str:0000000000010dd1 .LASF1069
C:\Users\SOLDER~1\AppData\Local\Temp\ccdovRCu.s:29072  .debug_str:0000000000022836 .LASF1070
C:\Users\SOLDER~1\AppData\Local\Temp\ccdovRCu.s:27744  .debug_str:000000000001d2af .LASF1071
C:\Users\SOLDER~1\AppData\Local\Temp\ccdovRCu.s:24694  .debug_str:0000000000010c79 .LASF1072
C:\Users\SOLDER~1\AppData\Local\Temp\ccdovRCu.s:29316  .debug_str:0000000000023837 .LASF1073
C:\Users\SOLDER~1\AppData\Local\Temp\ccdovRCu.s:20708  .debug_str:00000000000009f9 .LASF1074
C:\Users\SOLDER~1\AppData\Local\Temp\ccdovRCu.s:27004  .debug_str:000000000001a297 .LASF1075
C:\Users\SOLDER~1\AppData\Local\Temp\ccdovRCu.s:25494  .debug_str:00000000000140e1 .LASF1076
C:\Users\SOLDER~1\AppData\Local\Temp\ccdovRCu.s:23698  .debug_str:000000000000cbfd .LASF1077
C:\Users\SOLDER~1\AppData\Local\Temp\ccdovRCu.s:21164  .debug_str:0000000000002742 .LASF1078
C:\Users\SOLDER~1\AppData\Local\Temp\ccdovRCu.s:29776  .debug_str:0000000000025637 .LASF1079
C:\Users\SOLDER~1\AppData\Local\Temp\ccdovRCu.s:22762  .debug_str:0000000000008de6 .LASF1080
C:\Users\SOLDER~1\AppData\Local\Temp\ccdovRCu.s:25150  .debug_str:000000000001296f .LASF1081
C:\Users\SOLDER~1\AppData\Local\Temp\ccdovRCu.s:28622  .debug_str:0000000000020b90 .LASF1082
C:\Users\SOLDER~1\AppData\Local\Temp\ccdovRCu.s:28078  .debug_str:000000000001e82e .LASF1083
C:\Users\SOLDER~1\AppData\Local\Temp\ccdovRCu.s:25996  .debug_str:00000000000161f2 .LASF1084
C:\Users\SOLDER~1\AppData\Local\Temp\ccdovRCu.s:22006  .debug_str:0000000000005c71 .LASF1085
C:\Users\SOLDER~1\AppData\Local\Temp\ccdovRCu.s:29180  .debug_str:0000000000022f55 .LASF1086
C:\Users\SOLDER~1\AppData\Local\Temp\ccdovRCu.s:30954  .debug_str:000000000002a358 .LASF1087
C:\Users\SOLDER~1\AppData\Local\Temp\ccdovRCu.s:28764  .debug_str:00000000000214c3 .LASF1088
C:\Users\SOLDER~1\AppData\Local\Temp\ccdovRCu.s:21976  .debug_str:0000000000005a95 .LASF1089
C:\Users\SOLDER~1\AppData\Local\Temp\ccdovRCu.s:30098  .debug_str:0000000000026bed .LASF1090
C:\Users\SOLDER~1\AppData\Local\Temp\ccdovRCu.s:27926  .debug_str:000000000001de3a .LASF1091
C:\Users\SOLDER~1\AppData\Local\Temp\ccdovRCu.s:22336  .debug_str:00000000000072a6 .LASF1092
C:\Users\SOLDER~1\AppData\Local\Temp\ccdovRCu.s:26446  .debug_str:0000000000017e59 .LASF1093
C:\Users\SOLDER~1\AppData\Local\Temp\ccdovRCu.s:23862  .debug_str:000000000000d6c9 .LASF1094
C:\Users\SOLDER~1\AppData\Local\Temp\ccdovRCu.s:20914  .debug_str:0000000000001745 .LASF1095
C:\Users\SOLDER~1\AppData\Local\Temp\ccdovRCu.s:22064  .debug_str:0000000000006056 .LASF1096
C:\Users\SOLDER~1\AppData\Local\Temp\ccdovRCu.s:29202  .debug_str:00000000000230c0 .LASF1097
C:\Users\SOLDER~1\AppData\Local\Temp\ccdovRCu.s:28488  .debug_str:0000000000020314 .LASF1098
C:\Users\SOLDER~1\AppData\Local\Temp\ccdovRCu.s:22300  .debug_str:000000000000704f .LASF1099
C:\Users\SOLDER~1\AppData\Local\Temp\ccdovRCu.s:25766  .debug_str:00000000000152f7 .LASF1100
C:\Users\SOLDER~1\AppData\Local\Temp\ccdovRCu.s:29452  .debug_str:00000000000240f3 .LASF1101
C:\Users\SOLDER~1\AppData\Local\Temp\ccdovRCu.s:31144  .debug_str:000000000002afbb .LASF1102
C:\Users\SOLDER~1\AppData\Local\Temp\ccdovRCu.s:20774  .debug_str:0000000000000e89 .LASF1103
C:\Users\SOLDER~1\AppData\Local\Temp\ccdovRCu.s:20882  .debug_str:0000000000001535 .LASF1104
C:\Users\SOLDER~1\AppData\Local\Temp\ccdovRCu.s:28418  .debug_str:000000000001febb .LASF1105
C:\Users\SOLDER~1\AppData\Local\Temp\ccdovRCu.s:21950  .debug_str:00000000000058e1 .LASF1106
C:\Users\SOLDER~1\AppData\Local\Temp\ccdovRCu.s:23498  .debug_str:000000000000be49 .LASF1107
C:\Users\SOLDER~1\AppData\Local\Temp\ccdovRCu.s:20952  .debug_str:000000000000199a .LASF1108
C:\Users\SOLDER~1\AppData\Local\Temp\ccdovRCu.s:28502  .debug_str:00000000000203f1 .LASF1109
C:\Users\SOLDER~1\AppData\Local\Temp\ccdovRCu.s:22038  .debug_str:0000000000005e8c .LASF1110
GAS LISTING C:\Users\SOLDER~1\AppData\Local\Temp\ccdovRCu.s 			page 72


C:\Users\SOLDER~1\AppData\Local\Temp\ccdovRCu.s:22546  .debug_str:0000000000008010 .LASF1111
C:\Users\SOLDER~1\AppData\Local\Temp\ccdovRCu.s:23030  .debug_str:0000000000009f9f .LASF1112
C:\Users\SOLDER~1\AppData\Local\Temp\ccdovRCu.s:23470  .debug_str:000000000000bc98 .LASF1113
C:\Users\SOLDER~1\AppData\Local\Temp\ccdovRCu.s:30450  .debug_str:00000000000282ec .LASF1114
C:\Users\SOLDER~1\AppData\Local\Temp\ccdovRCu.s:22688  .debug_str:00000000000088ec .LASF1115
C:\Users\SOLDER~1\AppData\Local\Temp\ccdovRCu.s:30162  .debug_str:0000000000026ffd .LASF1116
C:\Users\SOLDER~1\AppData\Local\Temp\ccdovRCu.s:31624  .debug_str:000000000002ced4 .LASF1117
C:\Users\SOLDER~1\AppData\Local\Temp\ccdovRCu.s:31110  .debug_str:000000000002ad77 .LASF1118
C:\Users\SOLDER~1\AppData\Local\Temp\ccdovRCu.s:25412  .debug_str:0000000000013b5d .LASF1119
C:\Users\SOLDER~1\AppData\Local\Temp\ccdovRCu.s:21712  .debug_str:00000000000049f4 .LASF1120
C:\Users\SOLDER~1\AppData\Local\Temp\ccdovRCu.s:27970  .debug_str:000000000001e154 .LASF1121
C:\Users\SOLDER~1\AppData\Local\Temp\ccdovRCu.s:22802  .debug_str:0000000000009098 .LASF1122
C:\Users\SOLDER~1\AppData\Local\Temp\ccdovRCu.s:31282  .debug_str:000000000002b8cd .LASF1123
C:\Users\SOLDER~1\AppData\Local\Temp\ccdovRCu.s:25658  .debug_str:0000000000014c15 .LASF1124
C:\Users\SOLDER~1\AppData\Local\Temp\ccdovRCu.s:23358  .debug_str:000000000000b578 .LASF1125
C:\Users\SOLDER~1\AppData\Local\Temp\ccdovRCu.s:31802  .debug_str:000000000002dab5 .LASF1126
C:\Users\SOLDER~1\AppData\Local\Temp\ccdovRCu.s:29910  .debug_str:0000000000025f1a .LASF1127
C:\Users\SOLDER~1\AppData\Local\Temp\ccdovRCu.s:28964  .debug_str:0000000000022183 .LASF1128
C:\Users\SOLDER~1\AppData\Local\Temp\ccdovRCu.s:26630  .debug_str:0000000000018a30 .LASF1129
C:\Users\SOLDER~1\AppData\Local\Temp\ccdovRCu.s:27232  .debug_str:000000000001b18f .LASF1130
C:\Users\SOLDER~1\AppData\Local\Temp\ccdovRCu.s:22700  .debug_str:00000000000089df .LASF1131
C:\Users\SOLDER~1\AppData\Local\Temp\ccdovRCu.s:28264  .debug_str:000000000001f4c9 .LASF1132
C:\Users\SOLDER~1\AppData\Local\Temp\ccdovRCu.s:23274  .debug_str:000000000000b018 .LASF1133
C:\Users\SOLDER~1\AppData\Local\Temp\ccdovRCu.s:26278  .debug_str:00000000000173a3 .LASF1134
C:\Users\SOLDER~1\AppData\Local\Temp\ccdovRCu.s:25656  .debug_str:0000000000014bf0 .LASF1135
C:\Users\SOLDER~1\AppData\Local\Temp\ccdovRCu.s:26288  .debug_str:000000000001744b .LASF1136
C:\Users\SOLDER~1\AppData\Local\Temp\ccdovRCu.s:30352  .debug_str:0000000000027c56 .LASF1137
C:\Users\SOLDER~1\AppData\Local\Temp\ccdovRCu.s:28202  .debug_str:000000000001f096 .LASF1138
C:\Users\SOLDER~1\AppData\Local\Temp\ccdovRCu.s:29512  .debug_str:00000000000244fc .LASF1139
C:\Users\SOLDER~1\AppData\Local\Temp\ccdovRCu.s:21106  .debug_str:0000000000002383 .LASF1140
C:\Users\SOLDER~1\AppData\Local\Temp\ccdovRCu.s:29956  .debug_str:000000000002625d .LASF1141
C:\Users\SOLDER~1\AppData\Local\Temp\ccdovRCu.s:29082  .debug_str:00000000000228ed .LASF1142
C:\Users\SOLDER~1\AppData\Local\Temp\ccdovRCu.s:27600  .debug_str:000000000001c90c .LASF1143
C:\Users\SOLDER~1\AppData\Local\Temp\ccdovRCu.s:31376  .debug_str:000000000002befa .LASF1144
C:\Users\SOLDER~1\AppData\Local\Temp\ccdovRCu.s:28096  .debug_str:000000000001e97c .LASF1145
C:\Users\SOLDER~1\AppData\Local\Temp\ccdovRCu.s:27860  .debug_str:000000000001da3b .LASF1146
C:\Users\SOLDER~1\AppData\Local\Temp\ccdovRCu.s:26166  .debug_str:0000000000016c73 .LASF1147
C:\Users\SOLDER~1\AppData\Local\Temp\ccdovRCu.s:31492  .debug_str:000000000002c6ba .LASF1148
C:\Users\SOLDER~1\AppData\Local\Temp\ccdovRCu.s:28774  .debug_str:0000000000021565 .LASF1149
C:\Users\SOLDER~1\AppData\Local\Temp\ccdovRCu.s:25894  .debug_str:0000000000015b60 .LASF1150
C:\Users\SOLDER~1\AppData\Local\Temp\ccdovRCu.s:27652  .debug_str:000000000001ccb0 .LASF1151
C:\Users\SOLDER~1\AppData\Local\Temp\ccdovRCu.s:24708  .debug_str:0000000000010d61 .LASF1152
C:\Users\SOLDER~1\AppData\Local\Temp\ccdovRCu.s:30254  .debug_str:000000000002760a .LASF1153
C:\Users\SOLDER~1\AppData\Local\Temp\ccdovRCu.s:26538  .debug_str:0000000000018456 .LASF1154
C:\Users\SOLDER~1\AppData\Local\Temp\ccdovRCu.s:20998  .debug_str:0000000000001cb7 .LASF1155
C:\Users\SOLDER~1\AppData\Local\Temp\ccdovRCu.s:25422  .debug_str:0000000000013c2f .LASF1156
C:\Users\SOLDER~1\AppData\Local\Temp\ccdovRCu.s:28532  .debug_str:00000000000205e5 .LASF1157
C:\Users\SOLDER~1\AppData\Local\Temp\ccdovRCu.s:31910  .debug_str:000000000002e192 .LASF1158
C:\Users\SOLDER~1\AppData\Local\Temp\ccdovRCu.s:31918  .debug_str:000000000002e1f8 .LASF1159
C:\Users\SOLDER~1\AppData\Local\Temp\ccdovRCu.s:30510  .debug_str:00000000000286e5 .LASF1160
C:\Users\SOLDER~1\AppData\Local\Temp\ccdovRCu.s:26786  .debug_str:0000000000019489 .LASF1161
C:\Users\SOLDER~1\AppData\Local\Temp\ccdovRCu.s:26564  .debug_str:00000000000185f0 .LASF1162
C:\Users\SOLDER~1\AppData\Local\Temp\ccdovRCu.s:30338  .debug_str:0000000000027b80 .LASF1163
C:\Users\SOLDER~1\AppData\Local\Temp\ccdovRCu.s:24764  .debug_str:00000000000110f0 .LASF1164
C:\Users\SOLDER~1\AppData\Local\Temp\ccdovRCu.s:30272  .debug_str:0000000000027738 .LASF1165
C:\Users\SOLDER~1\AppData\Local\Temp\ccdovRCu.s:31970  .debug_str:000000000002e513 .LASF1166
C:\Users\SOLDER~1\AppData\Local\Temp\ccdovRCu.s:28324  .debug_str:000000000001f8d2 .LASF1167
GAS LISTING C:\Users\SOLDER~1\AppData\Local\Temp\ccdovRCu.s 			page 73


C:\Users\SOLDER~1\AppData\Local\Temp\ccdovRCu.s:25292  .debug_str:0000000000013307 .LASF1168
C:\Users\SOLDER~1\AppData\Local\Temp\ccdovRCu.s:30824  .debug_str:0000000000029afd .LASF1169
C:\Users\SOLDER~1\AppData\Local\Temp\ccdovRCu.s:22740  .debug_str:0000000000008c52 .LASF1170
C:\Users\SOLDER~1\AppData\Local\Temp\ccdovRCu.s:28820  .debug_str:000000000002187d .LASF1171
C:\Users\SOLDER~1\AppData\Local\Temp\ccdovRCu.s:29674  .debug_str:0000000000024fad .LASF1172
C:\Users\SOLDER~1\AppData\Local\Temp\ccdovRCu.s:28150  .debug_str:000000000001ed4b .LASF1173
C:\Users\SOLDER~1\AppData\Local\Temp\ccdovRCu.s:26550  .debug_str:000000000001851c .LASF1174
C:\Users\SOLDER~1\AppData\Local\Temp\ccdovRCu.s:24508  .debug_str:00000000000100bc .LASF1175
C:\Users\SOLDER~1\AppData\Local\Temp\ccdovRCu.s:28354  .debug_str:000000000001facb .LASF1176
C:\Users\SOLDER~1\AppData\Local\Temp\ccdovRCu.s:25428  .debug_str:0000000000013c88 .LASF1177
C:\Users\SOLDER~1\AppData\Local\Temp\ccdovRCu.s:25170  .debug_str:0000000000012ad7 .LASF1178
C:\Users\SOLDER~1\AppData\Local\Temp\ccdovRCu.s:23022  .debug_str:0000000000009f18 .LASF1179
C:\Users\SOLDER~1\AppData\Local\Temp\ccdovRCu.s:24390  .debug_str:000000000000f8aa .LASF1180
C:\Users\SOLDER~1\AppData\Local\Temp\ccdovRCu.s:26474  .debug_str:0000000000018011 .LASF1181
C:\Users\SOLDER~1\AppData\Local\Temp\ccdovRCu.s:29950  .debug_str:00000000000261f4 .LASF1182
C:\Users\SOLDER~1\AppData\Local\Temp\ccdovRCu.s:24568  .debug_str:0000000000010483 .LASF1183
C:\Users\SOLDER~1\AppData\Local\Temp\ccdovRCu.s:22910  .debug_str:00000000000097c2 .LASF1184
C:\Users\SOLDER~1\AppData\Local\Temp\ccdovRCu.s:27060  .debug_str:000000000001a62c .LASF1185
C:\Users\SOLDER~1\AppData\Local\Temp\ccdovRCu.s:30594  .debug_str:0000000000028c6a .LASF1186
C:\Users\SOLDER~1\AppData\Local\Temp\ccdovRCu.s:25078  .debug_str:00000000000124c0 .LASF1187
C:\Users\SOLDER~1\AppData\Local\Temp\ccdovRCu.s:23112  .debug_str:000000000000a52c .LASF1188
C:\Users\SOLDER~1\AppData\Local\Temp\ccdovRCu.s:22448  .debug_str:000000000000798a .LASF1189
C:\Users\SOLDER~1\AppData\Local\Temp\ccdovRCu.s:21036  .debug_str:0000000000001edd .LASF1190
C:\Users\SOLDER~1\AppData\Local\Temp\ccdovRCu.s:24806  .debug_str:0000000000011399 .LASF1191
C:\Users\SOLDER~1\AppData\Local\Temp\ccdovRCu.s:21530  .debug_str:0000000000003e96 .LASF1192
C:\Users\SOLDER~1\AppData\Local\Temp\ccdovRCu.s:32110  .debug_str:000000000002edd6 .LASF1193
C:\Users\SOLDER~1\AppData\Local\Temp\ccdovRCu.s:27098  .debug_str:000000000001a89d .LASF1194
C:\Users\SOLDER~1\AppData\Local\Temp\ccdovRCu.s:22288  .debug_str:0000000000006f8d .LASF1195
C:\Users\SOLDER~1\AppData\Local\Temp\ccdovRCu.s:27802  .debug_str:000000000001d6af .LASF1196
C:\Users\SOLDER~1\AppData\Local\Temp\ccdovRCu.s:31366  .debug_str:000000000002be44 .LASF1197
C:\Users\SOLDER~1\AppData\Local\Temp\ccdovRCu.s:25860  .debug_str:000000000001591f .LASF1198
C:\Users\SOLDER~1\AppData\Local\Temp\ccdovRCu.s:22908  .debug_str:0000000000009799 .LASF1199
C:\Users\SOLDER~1\AppData\Local\Temp\ccdovRCu.s:28346  .debug_str:000000000001fa38 .LASF1200
C:\Users\SOLDER~1\AppData\Local\Temp\ccdovRCu.s:31902  .debug_str:000000000002e107 .LASF1201
C:\Users\SOLDER~1\AppData\Local\Temp\ccdovRCu.s:26506  .debug_str:0000000000018257 .LASF1202
C:\Users\SOLDER~1\AppData\Local\Temp\ccdovRCu.s:21856  .debug_str:00000000000052dd .LASF1203
C:\Users\SOLDER~1\AppData\Local\Temp\ccdovRCu.s:21092  .debug_str:000000000000228e .LASF1204
C:\Users\SOLDER~1\AppData\Local\Temp\ccdovRCu.s:25246  .debug_str:0000000000012ff5 .LASF1205
C:\Users\SOLDER~1\AppData\Local\Temp\ccdovRCu.s:29070  .debug_str:000000000002280f .LASF1206
C:\Users\SOLDER~1\AppData\Local\Temp\ccdovRCu.s:31814  .debug_str:000000000002db78 .LASF1207
C:\Users\SOLDER~1\AppData\Local\Temp\ccdovRCu.s:30770  .debug_str:00000000000297af .LASF1208
C:\Users\SOLDER~1\AppData\Local\Temp\ccdovRCu.s:31314  .debug_str:000000000002bae3 .LASF1209
C:\Users\SOLDER~1\AppData\Local\Temp\ccdovRCu.s:30122  .debug_str:0000000000026d99 .LASF1210
C:\Users\SOLDER~1\AppData\Local\Temp\ccdovRCu.s:24044  .debug_str:000000000000e2e2 .LASF1211
C:\Users\SOLDER~1\AppData\Local\Temp\ccdovRCu.s:27504  .debug_str:000000000001c26c .LASF1212
C:\Users\SOLDER~1\AppData\Local\Temp\ccdovRCu.s:22086  .debug_str:00000000000061f4 .LASF1213
C:\Users\SOLDER~1\AppData\Local\Temp\ccdovRCu.s:31182  .debug_str:000000000002b20c .LASF1214
C:\Users\SOLDER~1\AppData\Local\Temp\ccdovRCu.s:21944  .debug_str:000000000000587c .LASF1215
C:\Users\SOLDER~1\AppData\Local\Temp\ccdovRCu.s:28122  .debug_str:000000000001eb50 .LASF1216
C:\Users\SOLDER~1\AppData\Local\Temp\ccdovRCu.s:22714  .debug_str:0000000000008ab9 .LASF1217
C:\Users\SOLDER~1\AppData\Local\Temp\ccdovRCu.s:21316  .debug_str:00000000000030f4 .LASF1218
C:\Users\SOLDER~1\AppData\Local\Temp\ccdovRCu.s:29360  .debug_str:0000000000023b14 .LASF1219
C:\Users\SOLDER~1\AppData\Local\Temp\ccdovRCu.s:29076  .debug_str:000000000002286f .LASF1220
C:\Users\SOLDER~1\AppData\Local\Temp\ccdovRCu.s:28522  .debug_str:000000000002053a .LASF1221
C:\Users\SOLDER~1\AppData\Local\Temp\ccdovRCu.s:25142  .debug_str:00000000000128fb .LASF1222
C:\Users\SOLDER~1\AppData\Local\Temp\ccdovRCu.s:21942  .debug_str:0000000000005859 .LASF1223
C:\Users\SOLDER~1\AppData\Local\Temp\ccdovRCu.s:23390  .debug_str:000000000000b750 .LASF1224
GAS LISTING C:\Users\SOLDER~1\AppData\Local\Temp\ccdovRCu.s 			page 74


C:\Users\SOLDER~1\AppData\Local\Temp\ccdovRCu.s:26796  .debug_str:0000000000019543 .LASF1225
C:\Users\SOLDER~1\AppData\Local\Temp\ccdovRCu.s:24302  .debug_str:000000000000f32d .LASF1226
C:\Users\SOLDER~1\AppData\Local\Temp\ccdovRCu.s:29498  .debug_str:0000000000024407 .LASF1227
C:\Users\SOLDER~1\AppData\Local\Temp\ccdovRCu.s:23262  .debug_str:000000000000af4f .LASF1228
C:\Users\SOLDER~1\AppData\Local\Temp\ccdovRCu.s:24346  .debug_str:000000000000f5ca .LASF1229
C:\Users\SOLDER~1\AppData\Local\Temp\ccdovRCu.s:30340  .debug_str:0000000000027ba8 .LASF1230
C:\Users\SOLDER~1\AppData\Local\Temp\ccdovRCu.s:25330  .debug_str:0000000000013571 .LASF1231
C:\Users\SOLDER~1\AppData\Local\Temp\ccdovRCu.s:26484  .debug_str:00000000000180da .LASF1232
C:\Users\SOLDER~1\AppData\Local\Temp\ccdovRCu.s:24666  .debug_str:0000000000010ad6 .LASF1233
C:\Users\SOLDER~1\AppData\Local\Temp\ccdovRCu.s:22236  .debug_str:0000000000006bec .LASF1234
C:\Users\SOLDER~1\AppData\Local\Temp\ccdovRCu.s:25380  .debug_str:00000000000138e6 .LASF1235
C:\Users\SOLDER~1\AppData\Local\Temp\ccdovRCu.s:21874  .debug_str:00000000000053f6 .LASF1236
C:\Users\SOLDER~1\AppData\Local\Temp\ccdovRCu.s:30092  .debug_str:0000000000026b8a .LASF1237
C:\Users\SOLDER~1\AppData\Local\Temp\ccdovRCu.s:26934  .debug_str:0000000000019e34 .LASF1238
C:\Users\SOLDER~1\AppData\Local\Temp\ccdovRCu.s:24078  .debug_str:000000000000e527 .LASF1239
C:\Users\SOLDER~1\AppData\Local\Temp\ccdovRCu.s:31738  .debug_str:000000000002d6a8 .LASF1240
C:\Users\SOLDER~1\AppData\Local\Temp\ccdovRCu.s:29238  .debug_str:0000000000023309 .LASF1241
C:\Users\SOLDER~1\AppData\Local\Temp\ccdovRCu.s:27918  .debug_str:000000000001ddc5 .LASF1242
C:\Users\SOLDER~1\AppData\Local\Temp\ccdovRCu.s:28138  .debug_str:000000000001ec7d .LASF1243
C:\Users\SOLDER~1\AppData\Local\Temp\ccdovRCu.s:21300  .debug_str:0000000000003004 .LASF1244
C:\Users\SOLDER~1\AppData\Local\Temp\ccdovRCu.s:24030  .debug_str:000000000000e1e4 .LASF1245
C:\Users\SOLDER~1\AppData\Local\Temp\ccdovRCu.s:30618  .debug_str:0000000000028dfa .LASF1246
C:\Users\SOLDER~1\AppData\Local\Temp\ccdovRCu.s:30150  .debug_str:0000000000026f56 .LASF1247
C:\Users\SOLDER~1\AppData\Local\Temp\ccdovRCu.s:29926  .debug_str:0000000000026035 .LASF1248
C:\Users\SOLDER~1\AppData\Local\Temp\ccdovRCu.s:29966  .debug_str:0000000000026302 .LASF1249
C:\Users\SOLDER~1\AppData\Local\Temp\ccdovRCu.s:23616  .debug_str:000000000000c668 .LASF1250
C:\Users\SOLDER~1\AppData\Local\Temp\ccdovRCu.s:31760  .debug_str:000000000002d7e0 .LASF1251
C:\Users\SOLDER~1\AppData\Local\Temp\ccdovRCu.s:28364  .debug_str:000000000001fb4b .LASF1252
C:\Users\SOLDER~1\AppData\Local\Temp\ccdovRCu.s:25158  .debug_str:00000000000129f3 .LASF1253
C:\Users\SOLDER~1\AppData\Local\Temp\ccdovRCu.s:27202  .debug_str:000000000001afb6 .LASF1254
C:\Users\SOLDER~1\AppData\Local\Temp\ccdovRCu.s:29960  .debug_str:0000000000026297 .LASF1255
C:\Users\SOLDER~1\AppData\Local\Temp\ccdovRCu.s:27520  .debug_str:000000000001c3a9 .LASF1256
C:\Users\SOLDER~1\AppData\Local\Temp\ccdovRCu.s:26200  .debug_str:0000000000016e55 .LASF1257
C:\Users\SOLDER~1\AppData\Local\Temp\ccdovRCu.s:26518  .debug_str:0000000000018328 .LASF1258
C:\Users\SOLDER~1\AppData\Local\Temp\ccdovRCu.s:31162  .debug_str:000000000002b0bf .LASF1259
C:\Users\SOLDER~1\AppData\Local\Temp\ccdovRCu.s:23414  .debug_str:000000000000b8cc .LASF1260
C:\Users\SOLDER~1\AppData\Local\Temp\ccdovRCu.s:29976  .debug_str:00000000000263b3 .LASF1261
C:\Users\SOLDER~1\AppData\Local\Temp\ccdovRCu.s:31116  .debug_str:000000000002ade8 .LASF1262
C:\Users\SOLDER~1\AppData\Local\Temp\ccdovRCu.s:29212  .debug_str:0000000000023150 .LASF1263
C:\Users\SOLDER~1\AppData\Local\Temp\ccdovRCu.s:27002  .debug_str:000000000001a277 .LASF1264
C:\Users\SOLDER~1\AppData\Local\Temp\ccdovRCu.s:29176  .debug_str:0000000000022f23 .LASF1265
C:\Users\SOLDER~1\AppData\Local\Temp\ccdovRCu.s:25730  .debug_str:000000000001509d .LASF1266
C:\Users\SOLDER~1\AppData\Local\Temp\ccdovRCu.s:22340  .debug_str:00000000000072f1 .LASF1267
C:\Users\SOLDER~1\AppData\Local\Temp\ccdovRCu.s:30758  .debug_str:00000000000296d5 .LASF1268
C:\Users\SOLDER~1\AppData\Local\Temp\ccdovRCu.s:21166  .debug_str:0000000000002762 .LASF1269
C:\Users\SOLDER~1\AppData\Local\Temp\ccdovRCu.s:23944  .debug_str:000000000000dbe7 .LASF1270
C:\Users\SOLDER~1\AppData\Local\Temp\ccdovRCu.s:21494  .debug_str:0000000000003c4d .LASF1271
C:\Users\SOLDER~1\AppData\Local\Temp\ccdovRCu.s:29530  .debug_str:000000000002462b .LASF1272
C:\Users\SOLDER~1\AppData\Local\Temp\ccdovRCu.s:32074  .debug_str:000000000002eb91 .LASF1273
C:\Users\SOLDER~1\AppData\Local\Temp\ccdovRCu.s:25218  .debug_str:0000000000012e2d .LASF1274
C:\Users\SOLDER~1\AppData\Local\Temp\ccdovRCu.s:27078  .debug_str:000000000001a743 .LASF1275
C:\Users\SOLDER~1\AppData\Local\Temp\ccdovRCu.s:22108  .debug_str:000000000000636b .LASF1276
C:\Users\SOLDER~1\AppData\Local\Temp\ccdovRCu.s:23224  .debug_str:000000000000aca1 .LASF1277
C:\Users\SOLDER~1\AppData\Local\Temp\ccdovRCu.s:21442  .debug_str:00000000000038f7 .LASF1278
C:\Users\SOLDER~1\AppData\Local\Temp\ccdovRCu.s:20962  .debug_str:0000000000001a3d .LASF1279
C:\Users\SOLDER~1\AppData\Local\Temp\ccdovRCu.s:22368  .debug_str:00000000000074ab .LASF1280
C:\Users\SOLDER~1\AppData\Local\Temp\ccdovRCu.s:21562  .debug_str:000000000000407c .LASF1281
GAS LISTING C:\Users\SOLDER~1\AppData\Local\Temp\ccdovRCu.s 			page 75


C:\Users\SOLDER~1\AppData\Local\Temp\ccdovRCu.s:24900  .debug_str:00000000000119d0 .LASF1282
C:\Users\SOLDER~1\AppData\Local\Temp\ccdovRCu.s:31016  .debug_str:000000000002a785 .LASF1283
C:\Users\SOLDER~1\AppData\Local\Temp\ccdovRCu.s:26146  .debug_str:0000000000016b2f .LASF1284
C:\Users\SOLDER~1\AppData\Local\Temp\ccdovRCu.s:23978  .debug_str:000000000000de36 .LASF1285
C:\Users\SOLDER~1\AppData\Local\Temp\ccdovRCu.s:20602  .debug_str:0000000000000239 .LASF1286
C:\Users\SOLDER~1\AppData\Local\Temp\ccdovRCu.s:30416  .debug_str:00000000000280b5 .LASF1287
C:\Users\SOLDER~1\AppData\Local\Temp\ccdovRCu.s:25462  .debug_str:0000000000013ed6 .LASF1288
C:\Users\SOLDER~1\AppData\Local\Temp\ccdovRCu.s:31394  .debug_str:000000000002c019 .LASF1289
C:\Users\SOLDER~1\AppData\Local\Temp\ccdovRCu.s:24284  .debug_str:000000000000f203 .LASF1290
C:\Users\SOLDER~1\AppData\Local\Temp\ccdovRCu.s:23336  .debug_str:000000000000b3d8 .LASF1291
C:\Users\SOLDER~1\AppData\Local\Temp\ccdovRCu.s:31010  .debug_str:000000000002a722 .LASF1292
C:\Users\SOLDER~1\AppData\Local\Temp\ccdovRCu.s:28916  .debug_str:0000000000021e6f .LASF1293
C:\Users\SOLDER~1\AppData\Local\Temp\ccdovRCu.s:30440  .debug_str:0000000000028239 .LASF1294
C:\Users\SOLDER~1\AppData\Local\Temp\ccdovRCu.s:25782  .debug_str:00000000000153f7 .LASF1295
C:\Users\SOLDER~1\AppData\Local\Temp\ccdovRCu.s:23684  .debug_str:000000000000cb1b .LASF1296
C:\Users\SOLDER~1\AppData\Local\Temp\ccdovRCu.s:31876  .debug_str:000000000002df53 .LASF1297
C:\Users\SOLDER~1\AppData\Local\Temp\ccdovRCu.s:22540  .debug_str:0000000000007fa0 .LASF1298
C:\Users\SOLDER~1\AppData\Local\Temp\ccdovRCu.s:23954  .debug_str:000000000000dc8f .LASF1299
C:\Users\SOLDER~1\AppData\Local\Temp\ccdovRCu.s:31270  .debug_str:000000000002b7f0 .LASF1300
C:\Users\SOLDER~1\AppData\Local\Temp\ccdovRCu.s:25716  .debug_str:0000000000014fc5 .LASF1301
C:\Users\SOLDER~1\AppData\Local\Temp\ccdovRCu.s:23788  .debug_str:000000000000d1ec .LASF1302
C:\Users\SOLDER~1\AppData\Local\Temp\ccdovRCu.s:29222  .debug_str:00000000000231f9 .LASF1303
C:\Users\SOLDER~1\AppData\Local\Temp\ccdovRCu.s:24722  .debug_str:0000000000010e53 .LASF1304
C:\Users\SOLDER~1\AppData\Local\Temp\ccdovRCu.s:27558  .debug_str:000000000001c648 .LASF1305
C:\Users\SOLDER~1\AppData\Local\Temp\ccdovRCu.s:23012  .debug_str:0000000000009e63 .LASF1306
C:\Users\SOLDER~1\AppData\Local\Temp\ccdovRCu.s:31438  .debug_str:000000000002c341 .LASF1307
C:\Users\SOLDER~1\AppData\Local\Temp\ccdovRCu.s:30522  .debug_str:00000000000287bc .LASF1308
C:\Users\SOLDER~1\AppData\Local\Temp\ccdovRCu.s:25448  .debug_str:0000000000013dd4 .LASF1309
C:\Users\SOLDER~1\AppData\Local\Temp\ccdovRCu.s:27108  .debug_str:000000000001a94f .LASF1310
C:\Users\SOLDER~1\AppData\Local\Temp\ccdovRCu.s:25260  .debug_str:00000000000130da .LASF1311
C:\Users\SOLDER~1\AppData\Local\Temp\ccdovRCu.s:31336  .debug_str:000000000002bc74 .LASF1312
C:\Users\SOLDER~1\AppData\Local\Temp\ccdovRCu.s:25888  .debug_str:0000000000015af4 .LASF1313
C:\Users\SOLDER~1\AppData\Local\Temp\ccdovRCu.s:26148  .debug_str:0000000000016b53 .LASF1314
C:\Users\SOLDER~1\AppData\Local\Temp\ccdovRCu.s:32098  .debug_str:000000000002ed13 .LASF1315
C:\Users\SOLDER~1\AppData\Local\Temp\ccdovRCu.s:21206  .debug_str:0000000000002a1e .LASF1316
C:\Users\SOLDER~1\AppData\Local\Temp\ccdovRCu.s:28294  .debug_str:000000000001f6b2 .LASF1317
C:\Users\SOLDER~1\AppData\Local\Temp\ccdovRCu.s:24870  .debug_str:00000000000117b9 .LASF1318
C:\Users\SOLDER~1\AppData\Local\Temp\ccdovRCu.s:23102  .debug_str:000000000000a47c .LASF1319
C:\Users\SOLDER~1\AppData\Local\Temp\ccdovRCu.s:25828  .debug_str:000000000001570f .LASF1320
C:\Users\SOLDER~1\AppData\Local\Temp\ccdovRCu.s:27616  .debug_str:000000000001ca25 .LASF1321
C:\Users\SOLDER~1\AppData\Local\Temp\ccdovRCu.s:32158  .debug_str:000000000002f0b3 .LASF1322
C:\Users\SOLDER~1\AppData\Local\Temp\ccdovRCu.s:31102  .debug_str:000000000002acf6 .LASF1323
C:\Users\SOLDER~1\AppData\Local\Temp\ccdovRCu.s:27254  .debug_str:000000000001b2c0 .LASF1324
C:\Users\SOLDER~1\AppData\Local\Temp\ccdovRCu.s:25174  .debug_str:0000000000012b23 .LASF1325
C:\Users\SOLDER~1\AppData\Local\Temp\ccdovRCu.s:26728  .debug_str:00000000000190d3 .LASF1326
C:\Users\SOLDER~1\AppData\Local\Temp\ccdovRCu.s:22008  .debug_str:0000000000005c99 .LASF1327
C:\Users\SOLDER~1\AppData\Local\Temp\ccdovRCu.s:31552  .debug_str:000000000002ca8d .LASF1328
C:\Users\SOLDER~1\AppData\Local\Temp\ccdovRCu.s:21506  .debug_str:0000000000003cf8 .LASF1329
C:\Users\SOLDER~1\AppData\Local\Temp\ccdovRCu.s:30376  .debug_str:0000000000027dd9 .LASF1330
C:\Users\SOLDER~1\AppData\Local\Temp\ccdovRCu.s:20762  .debug_str:0000000000000dd0 .LASF1331
C:\Users\SOLDER~1\AppData\Local\Temp\ccdovRCu.s:31194  .debug_str:000000000002b318 .LASF1332
C:\Users\SOLDER~1\AppData\Local\Temp\ccdovRCu.s:29688  .debug_str:00000000000250b7 .LASF1333
C:\Users\SOLDER~1\AppData\Local\Temp\ccdovRCu.s:31658  .debug_str:000000000002d113 .LASF1334
C:\Users\SOLDER~1\AppData\Local\Temp\ccdovRCu.s:25498  .debug_str:0000000000014122 .LASF1335
C:\Users\SOLDER~1\AppData\Local\Temp\ccdovRCu.s:23036  .debug_str:000000000000a006 .LASF1336
C:\Users\SOLDER~1\AppData\Local\Temp\ccdovRCu.s:23798  .debug_str:000000000000d2a1 .LASF1337
C:\Users\SOLDER~1\AppData\Local\Temp\ccdovRCu.s:30894  .debug_str:0000000000029f69 .LASF1338
GAS LISTING C:\Users\SOLDER~1\AppData\Local\Temp\ccdovRCu.s 			page 76


C:\Users\SOLDER~1\AppData\Local\Temp\ccdovRCu.s:27666  .debug_str:000000000001cdac .LASF1339
C:\Users\SOLDER~1\AppData\Local\Temp\ccdovRCu.s:26790  .debug_str:00000000000194ca .LASF1340
C:\Users\SOLDER~1\AppData\Local\Temp\ccdovRCu.s:21666  .debug_str:0000000000004712 .LASF1341
C:\Users\SOLDER~1\AppData\Local\Temp\ccdovRCu.s:23332  .debug_str:000000000000b3a0 .LASF1342
C:\Users\SOLDER~1\AppData\Local\Temp\ccdovRCu.s:29526  .debug_str:00000000000245d9 .LASF1343
C:\Users\SOLDER~1\AppData\Local\Temp\ccdovRCu.s:23914  .debug_str:000000000000da2e .LASF1344
C:\Users\SOLDER~1\AppData\Local\Temp\ccdovRCu.s:30060  .debug_str:0000000000026955 .LASF1345
C:\Users\SOLDER~1\AppData\Local\Temp\ccdovRCu.s:24820  .debug_str:000000000001149e .LASF1346
C:\Users\SOLDER~1\AppData\Local\Temp\ccdovRCu.s:28728  .debug_str:0000000000021253 .LASF1347
C:\Users\SOLDER~1\AppData\Local\Temp\ccdovRCu.s:25514  .debug_str:000000000001425c .LASF1348
C:\Users\SOLDER~1\AppData\Local\Temp\ccdovRCu.s:20978  .debug_str:0000000000001b45 .LASF1349
C:\Users\SOLDER~1\AppData\Local\Temp\ccdovRCu.s:29146  .debug_str:0000000000022d1f .LASF1350
C:\Users\SOLDER~1\AppData\Local\Temp\ccdovRCu.s:27334  .debug_str:000000000001b7d0 .LASF1351
C:\Users\SOLDER~1\AppData\Local\Temp\ccdovRCu.s:23180  .debug_str:000000000000a9ce .LASF1352
C:\Users\SOLDER~1\AppData\Local\Temp\ccdovRCu.s:23854  .debug_str:000000000000d654 .LASF1353
C:\Users\SOLDER~1\AppData\Local\Temp\ccdovRCu.s:28298  .debug_str:000000000001f6fd .LASF1354
C:\Users\SOLDER~1\AppData\Local\Temp\ccdovRCu.s:27356  .debug_str:000000000001b92d .LASF1355
C:\Users\SOLDER~1\AppData\Local\Temp\ccdovRCu.s:23488  .debug_str:000000000000bdbc .LASF1356
C:\Users\SOLDER~1\AppData\Local\Temp\ccdovRCu.s:21424  .debug_str:00000000000037c9 .LASF1357
C:\Users\SOLDER~1\AppData\Local\Temp\ccdovRCu.s:22670  .debug_str:00000000000087e9 .LASF1358
C:\Users\SOLDER~1\AppData\Local\Temp\ccdovRCu.s:29752  .debug_str:00000000000254b4 .LASF1359
C:\Users\SOLDER~1\AppData\Local\Temp\ccdovRCu.s:27774  .debug_str:000000000001d4e8 .LASF1360
C:\Users\SOLDER~1\AppData\Local\Temp\ccdovRCu.s:29324  .debug_str:00000000000238cc .LASF1361
C:\Users\SOLDER~1\AppData\Local\Temp\ccdovRCu.s:26666  .debug_str:0000000000018c93 .LASF1362
C:\Users\SOLDER~1\AppData\Local\Temp\ccdovRCu.s:28568  .debug_str:000000000002083b .LASF1363
C:\Users\SOLDER~1\AppData\Local\Temp\ccdovRCu.s:21952  .debug_str:0000000000005902 .LASF1364
C:\Users\SOLDER~1\AppData\Local\Temp\ccdovRCu.s:25880  .debug_str:0000000000015a76 .LASF1365
C:\Users\SOLDER~1\AppData\Local\Temp\ccdovRCu.s:27882  .debug_str:000000000001db59 .LASF1366
C:\Users\SOLDER~1\AppData\Local\Temp\ccdovRCu.s:26092  .debug_str:00000000000167c2 .LASF1367
C:\Users\SOLDER~1\AppData\Local\Temp\ccdovRCu.s:30916  .debug_str:000000000002a101 .LASF1368
C:\Users\SOLDER~1\AppData\Local\Temp\ccdovRCu.s:31668  .debug_str:000000000002d1c8 .LASF1369
C:\Users\SOLDER~1\AppData\Local\Temp\ccdovRCu.s:31682  .debug_str:000000000002d2d2 .LASF1370
C:\Users\SOLDER~1\AppData\Local\Temp\ccdovRCu.s:23904  .debug_str:000000000000d989 .LASF1371
C:\Users\SOLDER~1\AppData\Local\Temp\ccdovRCu.s:22990  .debug_str:0000000000009ccc .LASF1372
C:\Users\SOLDER~1\AppData\Local\Temp\ccdovRCu.s:29504  .debug_str:000000000002447b .LASF1373
C:\Users\SOLDER~1\AppData\Local\Temp\ccdovRCu.s:31196  .debug_str:000000000002b33d .LASF1374
C:\Users\SOLDER~1\AppData\Local\Temp\ccdovRCu.s:22156  .debug_str:0000000000006699 .LASF1375
C:\Users\SOLDER~1\AppData\Local\Temp\ccdovRCu.s:25222  .debug_str:0000000000012e61 .LASF1376
C:\Users\SOLDER~1\AppData\Local\Temp\ccdovRCu.s:22768  .debug_str:0000000000008e4e .LASF1377
C:\Users\SOLDER~1\AppData\Local\Temp\ccdovRCu.s:27762  .debug_str:000000000001d41c .LASF1378
C:\Users\SOLDER~1\AppData\Local\Temp\ccdovRCu.s:29054  .debug_str:00000000000226f6 .LASF1379
C:\Users\SOLDER~1\AppData\Local\Temp\ccdovRCu.s:29778  .debug_str:000000000002565f .LASF1380
C:\Users\SOLDER~1\AppData\Local\Temp\ccdovRCu.s:25178  .debug_str:0000000000012b5f .LASF1381
C:\Users\SOLDER~1\AppData\Local\Temp\ccdovRCu.s:21768  .debug_str:0000000000004d8a .LASF1382
C:\Users\SOLDER~1\AppData\Local\Temp\ccdovRCu.s:31642  .debug_str:000000000002cffd .LASF1383
C:\Users\SOLDER~1\AppData\Local\Temp\ccdovRCu.s:22718  .debug_str:0000000000008af7 .LASF1384
C:\Users\SOLDER~1\AppData\Local\Temp\ccdovRCu.s:31730  .debug_str:000000000002d617 .LASF1385
C:\Users\SOLDER~1\AppData\Local\Temp\ccdovRCu.s:24546  .debug_str:00000000000102e3 .LASF1386
C:\Users\SOLDER~1\AppData\Local\Temp\ccdovRCu.s:31108  .debug_str:000000000002ad52 .LASF1387
C:\Users\SOLDER~1\AppData\Local\Temp\ccdovRCu.s:31350  .debug_str:000000000002bd41 .LASF1388
C:\Users\SOLDER~1\AppData\Local\Temp\ccdovRCu.s:29246  .debug_str:000000000002339c .LASF1389
C:\Users\SOLDER~1\AppData\Local\Temp\ccdovRCu.s:30792  .debug_str:000000000002991b .LASF1390
C:\Users\SOLDER~1\AppData\Local\Temp\ccdovRCu.s:26032  .debug_str:0000000000016443 .LASF1391
C:\Users\SOLDER~1\AppData\Local\Temp\ccdovRCu.s:24012  .debug_str:000000000000e072 .LASF1392
C:\Users\SOLDER~1\AppData\Local\Temp\ccdovRCu.s:25614  .debug_str:000000000001490b .LASF1393
C:\Users\SOLDER~1\AppData\Local\Temp\ccdovRCu.s:24644  .debug_str:000000000001094e .LASF1394
C:\Users\SOLDER~1\AppData\Local\Temp\ccdovRCu.s:24832  .debug_str:0000000000011585 .LASF1395
GAS LISTING C:\Users\SOLDER~1\AppData\Local\Temp\ccdovRCu.s 			page 77


C:\Users\SOLDER~1\AppData\Local\Temp\ccdovRCu.s:29792  .debug_str:0000000000025722 .LASF1396
C:\Users\SOLDER~1\AppData\Local\Temp\ccdovRCu.s:22102  .debug_str:00000000000062f5 .LASF1397
C:\Users\SOLDER~1\AppData\Local\Temp\ccdovRCu.s:24118  .debug_str:000000000000e78e .LASF1398
C:\Users\SOLDER~1\AppData\Local\Temp\ccdovRCu.s:29548  .debug_str:0000000000024757 .LASF1399
C:\Users\SOLDER~1\AppData\Local\Temp\ccdovRCu.s:27150  .debug_str:000000000001abff .LASF1400
C:\Users\SOLDER~1\AppData\Local\Temp\ccdovRCu.s:27798  .debug_str:000000000001d672 .LASF1401
C:\Users\SOLDER~1\AppData\Local\Temp\ccdovRCu.s:23354  .debug_str:000000000000b541 .LASF1402
C:\Users\SOLDER~1\AppData\Local\Temp\ccdovRCu.s:29668  .debug_str:0000000000024f4b .LASF1403
C:\Users\SOLDER~1\AppData\Local\Temp\ccdovRCu.s:30868  .debug_str:0000000000029db1 .LASF1404
C:\Users\SOLDER~1\AppData\Local\Temp\ccdovRCu.s:25778  .debug_str:00000000000153b3 .LASF1405
C:\Users\SOLDER~1\AppData\Local\Temp\ccdovRCu.s:27436  .debug_str:000000000001bde2 .LASF1406
C:\Users\SOLDER~1\AppData\Local\Temp\ccdovRCu.s:26500  .debug_str:00000000000181fd .LASF1407
C:\Users\SOLDER~1\AppData\Local\Temp\ccdovRCu.s:28180  .debug_str:000000000001ef2f .LASF1408
C:\Users\SOLDER~1\AppData\Local\Temp\ccdovRCu.s:27080  .debug_str:000000000001a765 .LASF1409
C:\Users\SOLDER~1\AppData\Local\Temp\ccdovRCu.s:21800  .debug_str:0000000000004f65 .LASF1410
C:\Users\SOLDER~1\AppData\Local\Temp\ccdovRCu.s:21668  .debug_str:0000000000004737 .LASF1411
C:\Users\SOLDER~1\AppData\Local\Temp\ccdovRCu.s:22406  .debug_str:0000000000007701 .LASF1412
C:\Users\SOLDER~1\AppData\Local\Temp\ccdovRCu.s:29456  .debug_str:0000000000024143 .LASF1413
C:\Users\SOLDER~1\AppData\Local\Temp\ccdovRCu.s:26100  .debug_str:0000000000016831 .LASF1414
C:\Users\SOLDER~1\AppData\Local\Temp\ccdovRCu.s:24312  .debug_str:000000000000f3b7 .LASF1415
C:\Users\SOLDER~1\AppData\Local\Temp\ccdovRCu.s:27038  .debug_str:000000000001a497 .LASF1416
C:\Users\SOLDER~1\AppData\Local\Temp\ccdovRCu.s:27858  .debug_str:000000000001da16 .LASF1417
C:\Users\SOLDER~1\AppData\Local\Temp\ccdovRCu.s:20798  .debug_str:0000000000000ff6 .LASF1418
C:\Users\SOLDER~1\AppData\Local\Temp\ccdovRCu.s:31442  .debug_str:000000000002c388 .LASF1419
C:\Users\SOLDER~1\AppData\Local\Temp\ccdovRCu.s:27576  .debug_str:000000000001c74e .LASF1420
C:\Users\SOLDER~1\AppData\Local\Temp\ccdovRCu.s:20748  .debug_str:0000000000000cc3 .LASF1421
C:\Users\SOLDER~1\AppData\Local\Temp\ccdovRCu.s:27042  .debug_str:000000000001a4e4 .LASF1422
C:\Users\SOLDER~1\AppData\Local\Temp\ccdovRCu.s:22252  .debug_str:0000000000006cea .LASF1423
C:\Users\SOLDER~1\AppData\Local\Temp\ccdovRCu.s:31894  .debug_str:000000000002e070 .LASF1424
C:\Users\SOLDER~1\AppData\Local\Temp\ccdovRCu.s:21830  .debug_str:000000000000512f .LASF1425
C:\Users\SOLDER~1\AppData\Local\Temp\ccdovRCu.s:30722  .debug_str:0000000000029486 .LASF1426
C:\Users\SOLDER~1\AppData\Local\Temp\ccdovRCu.s:21068  .debug_str:00000000000020ed .LASF1427
C:\Users\SOLDER~1\AppData\Local\Temp\ccdovRCu.s:25982  .debug_str:0000000000016118 .LASF1428
C:\Users\SOLDER~1\AppData\Local\Temp\ccdovRCu.s:29932  .debug_str:0000000000026092 .LASF1429
C:\Users\SOLDER~1\AppData\Local\Temp\ccdovRCu.s:31996  .debug_str:000000000002e6a5 .LASF1430
C:\Users\SOLDER~1\AppData\Local\Temp\ccdovRCu.s:32082  .debug_str:000000000002ec0a .LASF1431
C:\Users\SOLDER~1\AppData\Local\Temp\ccdovRCu.s:23370  .debug_str:000000000000b621 .LASF1432
C:\Users\SOLDER~1\AppData\Local\Temp\ccdovRCu.s:24040  .debug_str:000000000000e29b .LASF1433
C:\Users\SOLDER~1\AppData\Local\Temp\ccdovRCu.s:31214  .debug_str:000000000002b482 .LASF1434
C:\Users\SOLDER~1\AppData\Local\Temp\ccdovRCu.s:28006  .debug_str:000000000001e39c .LASF1435
C:\Users\SOLDER~1\AppData\Local\Temp\ccdovRCu.s:22662  .debug_str:0000000000008766 .LASF1436
C:\Users\SOLDER~1\AppData\Local\Temp\ccdovRCu.s:21734  .debug_str:0000000000004b6e .LASF1437
C:\Users\SOLDER~1\AppData\Local\Temp\ccdovRCu.s:23662  .debug_str:000000000000c973 .LASF1438
C:\Users\SOLDER~1\AppData\Local\Temp\ccdovRCu.s:30766  .debug_str:0000000000029766 .LASF1439
C:\Users\SOLDER~1\AppData\Local\Temp\ccdovRCu.s:25204  .debug_str:0000000000012d30 .LASF1440
C:\Users\SOLDER~1\AppData\Local\Temp\ccdovRCu.s:31378  .debug_str:000000000002bf21 .LASF1441
C:\Users\SOLDER~1\AppData\Local\Temp\ccdovRCu.s:26034  .debug_str:0000000000016468 .LASF1442
C:\Users\SOLDER~1\AppData\Local\Temp\ccdovRCu.s:25992  .debug_str:00000000000161ad .LASF1443
C:\Users\SOLDER~1\AppData\Local\Temp\ccdovRCu.s:28540  .debug_str:0000000000020668 .LASF1444
C:\Users\SOLDER~1\AppData\Local\Temp\ccdovRCu.s:22174  .debug_str:00000000000067ef .LASF1445
C:\Users\SOLDER~1\AppData\Local\Temp\ccdovRCu.s:24112  .debug_str:000000000000e728 .LASF1446
C:\Users\SOLDER~1\AppData\Local\Temp\ccdovRCu.s:28590  .debug_str:00000000000209b7 .LASF1447
C:\Users\SOLDER~1\AppData\Local\Temp\ccdovRCu.s:31330  .debug_str:000000000002bc0a .LASF1448
C:\Users\SOLDER~1\AppData\Local\Temp\ccdovRCu.s:22674  .debug_str:0000000000008827 .LASF1449
C:\Users\SOLDER~1\AppData\Local\Temp\ccdovRCu.s:28600  .debug_str:0000000000020a59 .LASF1450
C:\Users\SOLDER~1\AppData\Local\Temp\ccdovRCu.s:25512  .debug_str:0000000000014237 .LASF1451
C:\Users\SOLDER~1\AppData\Local\Temp\ccdovRCu.s:23812  .debug_str:000000000000d38a .LASF1452
GAS LISTING C:\Users\SOLDER~1\AppData\Local\Temp\ccdovRCu.s 			page 78


C:\Users\SOLDER~1\AppData\Local\Temp\ccdovRCu.s:21750  .debug_str:0000000000004c7c .LASF1453
C:\Users\SOLDER~1\AppData\Local\Temp\ccdovRCu.s:23258  .debug_str:000000000000af09 .LASF1454
C:\Users\SOLDER~1\AppData\Local\Temp\ccdovRCu.s:30090  .debug_str:0000000000026b65 .LASF1455
C:\Users\SOLDER~1\AppData\Local\Temp\ccdovRCu.s:20730  .debug_str:0000000000000b89 .LASF1456
C:\Users\SOLDER~1\AppData\Local\Temp\ccdovRCu.s:29658  .debug_str:0000000000024ea9 .LASF1457
C:\Users\SOLDER~1\AppData\Local\Temp\ccdovRCu.s:26888  .debug_str:0000000000019b2d .LASF1458
C:\Users\SOLDER~1\AppData\Local\Temp\ccdovRCu.s:28900  .debug_str:0000000000021d8d .LASF1459
C:\Users\SOLDER~1\AppData\Local\Temp\ccdovRCu.s:22136  .debug_str:000000000000653c .LASF1460
C:\Users\SOLDER~1\AppData\Local\Temp\ccdovRCu.s:26226  .debug_str:000000000001701f .LASF1461
C:\Users\SOLDER~1\AppData\Local\Temp\ccdovRCu.s:26158  .debug_str:0000000000016c04 .LASF1462
C:\Users\SOLDER~1\AppData\Local\Temp\ccdovRCu.s:22062  .debug_str:0000000000006031 .LASF1463
C:\Users\SOLDER~1\AppData\Local\Temp\ccdovRCu.s:31238  .debug_str:000000000002b5f1 .LASF1464
C:\Users\SOLDER~1\AppData\Local\Temp\ccdovRCu.s:31920  .debug_str:000000000002e21f .LASF1465
C:\Users\SOLDER~1\AppData\Local\Temp\ccdovRCu.s:27454  .debug_str:000000000001bf41 .LASF1466
C:\Users\SOLDER~1\AppData\Local\Temp\ccdovRCu.s:22212  .debug_str:0000000000006a79 .LASF1467
C:\Users\SOLDER~1\AppData\Local\Temp\ccdovRCu.s:23242  .debug_str:000000000000addb .LASF1468
C:\Users\SOLDER~1\AppData\Local\Temp\ccdovRCu.s:29842  .debug_str:0000000000025a82 .LASF1469
C:\Users\SOLDER~1\AppData\Local\Temp\ccdovRCu.s:26440  .debug_str:0000000000017df4 .LASF1470
C:\Users\SOLDER~1\AppData\Local\Temp\ccdovRCu.s:23444  .debug_str:000000000000bae1 .LASF1471
C:\Users\SOLDER~1\AppData\Local\Temp\ccdovRCu.s:29384  .debug_str:0000000000023c6f .LASF1472
C:\Users\SOLDER~1\AppData\Local\Temp\ccdovRCu.s:23956  .debug_str:000000000000dcb4 .LASF1473
C:\Users\SOLDER~1\AppData\Local\Temp\ccdovRCu.s:30304  .debug_str:0000000000027954 .LASF1474
C:\Users\SOLDER~1\AppData\Local\Temp\ccdovRCu.s:30266  .debug_str:00000000000276d9 .LASF1475
C:\Users\SOLDER~1\AppData\Local\Temp\ccdovRCu.s:30998  .debug_str:000000000002a661 .LASF1476
C:\Users\SOLDER~1\AppData\Local\Temp\ccdovRCu.s:26510  .debug_str:00000000000182a5 .LASF1477
C:\Users\SOLDER~1\AppData\Local\Temp\ccdovRCu.s:23044  .debug_str:000000000000a091 .LASF1478
C:\Users\SOLDER~1\AppData\Local\Temp\ccdovRCu.s:21216  .debug_str:0000000000002ab4 .LASF1479
C:\Users\SOLDER~1\AppData\Local\Temp\ccdovRCu.s:23906  .debug_str:000000000000d9ae .LASF1480
C:\Users\SOLDER~1\AppData\Local\Temp\ccdovRCu.s:31974  .debug_str:000000000002e557 .LASF1481
C:\Users\SOLDER~1\AppData\Local\Temp\ccdovRCu.s:24862  .debug_str:000000000001173e .LASF1482
C:\Users\SOLDER~1\AppData\Local\Temp\ccdovRCu.s:23910  .debug_str:000000000000d9f5 .LASF1483
C:\Users\SOLDER~1\AppData\Local\Temp\ccdovRCu.s:31678  .debug_str:000000000002d284 .LASF1484
C:\Users\SOLDER~1\AppData\Local\Temp\ccdovRCu.s:29576  .debug_str:000000000002493c .LASF1485
C:\Users\SOLDER~1\AppData\Local\Temp\ccdovRCu.s:31034  .debug_str:000000000002a8c2 .LASF1486
C:\Users\SOLDER~1\AppData\Local\Temp\ccdovRCu.s:26388  .debug_str:0000000000017ac8 .LASF1487
C:\Users\SOLDER~1\AppData\Local\Temp\ccdovRCu.s:23704  .debug_str:000000000000cc6a .LASF1488
C:\Users\SOLDER~1\AppData\Local\Temp\ccdovRCu.s:25948  .debug_str:0000000000015eac .LASF1489
C:\Users\SOLDER~1\AppData\Local\Temp\ccdovRCu.s:23090  .debug_str:000000000000a3b4 .LASF1490
C:\Users\SOLDER~1\AppData\Local\Temp\ccdovRCu.s:22074  .debug_str:000000000000612e .LASF1491
C:\Users\SOLDER~1\AppData\Local\Temp\ccdovRCu.s:30034  .debug_str:00000000000267c3 .LASF1492
C:\Users\SOLDER~1\AppData\Local\Temp\ccdovRCu.s:27120  .debug_str:000000000001aa28 .LASF1493
C:\Users\SOLDER~1\AppData\Local\Temp\ccdovRCu.s:24464  .debug_str:000000000000fdf6 .LASF1494
C:\Users\SOLDER~1\AppData\Local\Temp\ccdovRCu.s:29888  .debug_str:0000000000025d9f .LASF1495
C:\Users\SOLDER~1\AppData\Local\Temp\ccdovRCu.s:27474  .debug_str:000000000001c0aa .LASF1496
C:\Users\SOLDER~1\AppData\Local\Temp\ccdovRCu.s:28142  .debug_str:000000000001ecc6 .LASF1497
C:\Users\SOLDER~1\AppData\Local\Temp\ccdovRCu.s:23686  .debug_str:000000000000cb40 .LASF1498
C:\Users\SOLDER~1\AppData\Local\Temp\ccdovRCu.s:32020  .debug_str:000000000002e811 .LASF1499
C:\Users\SOLDER~1\AppData\Local\Temp\ccdovRCu.s:31094  .debug_str:000000000002ac5b .LASF1500
C:\Users\SOLDER~1\AppData\Local\Temp\ccdovRCu.s:26126  .debug_str:00000000000169df .LASF1501
C:\Users\SOLDER~1\AppData\Local\Temp\ccdovRCu.s:21208  .debug_str:0000000000002a42 .LASF1502
C:\Users\SOLDER~1\AppData\Local\Temp\ccdovRCu.s:27650  .debug_str:000000000001cc8c .LASF1503
C:\Users\SOLDER~1\AppData\Local\Temp\ccdovRCu.s:22100  .debug_str:00000000000062d1 .LASF1504
C:\Users\SOLDER~1\AppData\Local\Temp\ccdovRCu.s:28276  .debug_str:000000000001f573 .LASF1505
C:\Users\SOLDER~1\AppData\Local\Temp\ccdovRCu.s:22994  .debug_str:0000000000009d34 .LASF1506
C:\Users\SOLDER~1\AppData\Local\Temp\ccdovRCu.s:22960  .debug_str:0000000000009b02 .LASF1507
C:\Users\SOLDER~1\AppData\Local\Temp\ccdovRCu.s:23678  .debug_str:000000000000cab4 .LASF1508
C:\Users\SOLDER~1\AppData\Local\Temp\ccdovRCu.s:30674  .debug_str:0000000000029170 .LASF1509
GAS LISTING C:\Users\SOLDER~1\AppData\Local\Temp\ccdovRCu.s 			page 79


C:\Users\SOLDER~1\AppData\Local\Temp\ccdovRCu.s:28054  .debug_str:000000000001e67d .LASF1510
C:\Users\SOLDER~1\AppData\Local\Temp\ccdovRCu.s:25520  .debug_str:00000000000142d4 .LASF1511
C:\Users\SOLDER~1\AppData\Local\Temp\ccdovRCu.s:28218  .debug_str:000000000001f1a7 .LASF1512
C:\Users\SOLDER~1\AppData\Local\Temp\ccdovRCu.s:28204  .debug_str:000000000001f0bc .LASF1513
C:\Users\SOLDER~1\AppData\Local\Temp\ccdovRCu.s:21074  .debug_str:0000000000002162 .LASF1514
C:\Users\SOLDER~1\AppData\Local\Temp\ccdovRCu.s:31780  .debug_str:000000000002d923 .LASF1515
C:\Users\SOLDER~1\AppData\Local\Temp\ccdovRCu.s:27910  .debug_str:000000000001dd30 .LASF1516
C:\Users\SOLDER~1\AppData\Local\Temp\ccdovRCu.s:28802  .debug_str:0000000000021744 .LASF1517
C:\Users\SOLDER~1\AppData\Local\Temp\ccdovRCu.s:27270  .debug_str:000000000001b3c1 .LASF1518
C:\Users\SOLDER~1\AppData\Local\Temp\ccdovRCu.s:22590  .debug_str:00000000000082f4 .LASF1519
C:\Users\SOLDER~1\AppData\Local\Temp\ccdovRCu.s:32128  .debug_str:000000000002eed7 .LASF1520
C:\Users\SOLDER~1\AppData\Local\Temp\ccdovRCu.s:29624  .debug_str:0000000000024c4e .LASF1521
C:\Users\SOLDER~1\AppData\Local\Temp\ccdovRCu.s:30964  .debug_str:000000000002a418 .LASF1522
C:\Users\SOLDER~1\AppData\Local\Temp\ccdovRCu.s:21320  .debug_str:0000000000003135 .LASF1523
C:\Users\SOLDER~1\AppData\Local\Temp\ccdovRCu.s:26340  .debug_str:00000000000177b4 .LASF1524
C:\Users\SOLDER~1\AppData\Local\Temp\ccdovRCu.s:30286  .debug_str:0000000000027823 .LASF1525
C:\Users\SOLDER~1\AppData\Local\Temp\ccdovRCu.s:20638  .debug_str:000000000000049f .LASF1526
C:\Users\SOLDER~1\AppData\Local\Temp\ccdovRCu.s:26182  .debug_str:0000000000016d4a .LASF1527
C:\Users\SOLDER~1\AppData\Local\Temp\ccdovRCu.s:23620  .debug_str:000000000000c6a4 .LASF1528
C:\Users\SOLDER~1\AppData\Local\Temp\ccdovRCu.s:24386  .debug_str:000000000000f864 .LASF1529
C:\Users\SOLDER~1\AppData\Local\Temp\ccdovRCu.s:22562  .debug_str:000000000000813b .LASF1530
C:\Users\SOLDER~1\AppData\Local\Temp\ccdovRCu.s:29166  .debug_str:0000000000022e6f .LASF1531
C:\Users\SOLDER~1\AppData\Local\Temp\ccdovRCu.s:27344  .debug_str:000000000001b864 .LASF1532
C:\Users\SOLDER~1\AppData\Local\Temp\ccdovRCu.s:22132  .debug_str:00000000000064f4 .LASF1533
C:\Users\SOLDER~1\AppData\Local\Temp\ccdovRCu.s:23992  .debug_str:000000000000df19 .LASF1534
C:\Users\SOLDER~1\AppData\Local\Temp\ccdovRCu.s:31966  .debug_str:000000000002e4de .LASF1535
C:\Users\SOLDER~1\AppData\Local\Temp\ccdovRCu.s:26450  .debug_str:0000000000017e9b .LASF1536
C:\Users\SOLDER~1\AppData\Local\Temp\ccdovRCu.s:20956  .debug_str:00000000000019d9 .LASF1537
C:\Users\SOLDER~1\AppData\Local\Temp\ccdovRCu.s:27312  .debug_str:000000000001b671 .LASF1538
C:\Users\SOLDER~1\AppData\Local\Temp\ccdovRCu.s:27178  .debug_str:000000000001adf0 .LASF1539
C:\Users\SOLDER~1\AppData\Local\Temp\ccdovRCu.s:27888  .debug_str:000000000001dbc9 .LASF1540
C:\Users\SOLDER~1\AppData\Local\Temp\ccdovRCu.s:23362  .debug_str:000000000000b5ca .LASF1541
C:\Users\SOLDER~1\AppData\Local\Temp\ccdovRCu.s:31584  .debug_str:000000000002cc5a .LASF1542
C:\Users\SOLDER~1\AppData\Local\Temp\ccdovRCu.s:29712  .debug_str:000000000002522d .LASF1543
C:\Users\SOLDER~1\AppData\Local\Temp\ccdovRCu.s:20910  .debug_str:00000000000016fe .LASF1544
C:\Users\SOLDER~1\AppData\Local\Temp\ccdovRCu.s:24444  .debug_str:000000000000fc9a .LASF1545
C:\Users\SOLDER~1\AppData\Local\Temp\ccdovRCu.s:28936  .debug_str:0000000000021fc2 .LASF1546
C:\Users\SOLDER~1\AppData\Local\Temp\ccdovRCu.s:28010  .debug_str:000000000001e3e7 .LASF1547
C:\Users\SOLDER~1\AppData\Local\Temp\ccdovRCu.s:24142  .debug_str:000000000000e93e .LASF1548
C:\Users\SOLDER~1\AppData\Local\Temp\ccdovRCu.s:31836  .debug_str:000000000002dcc0 .LASF1549
C:\Users\SOLDER~1\AppData\Local\Temp\ccdovRCu.s:22492  .debug_str:0000000000007c5d .LASF1550
C:\Users\SOLDER~1\AppData\Local\Temp\ccdovRCu.s:30430  .debug_str:000000000002818e .LASF1551
C:\Users\SOLDER~1\AppData\Local\Temp\ccdovRCu.s:28358  .debug_str:000000000001fb04 .LASF1552
C:\Users\SOLDER~1\AppData\Local\Temp\ccdovRCu.s:29998  .debug_str:0000000000026546 .LASF1553
C:\Users\SOLDER~1\AppData\Local\Temp\ccdovRCu.s:27208  .debug_str:000000000001b011 .LASF1554
C:\Users\SOLDER~1\AppData\Local\Temp\ccdovRCu.s:29136  .debug_str:0000000000022c57 .LASF1555
C:\Users\SOLDER~1\AppData\Local\Temp\ccdovRCu.s:22544  .debug_str:0000000000007feb .LASF1556
C:\Users\SOLDER~1\AppData\Local\Temp\ccdovRCu.s:26574  .debug_str:0000000000018684 .LASF1557
C:\Users\SOLDER~1\AppData\Local\Temp\ccdovRCu.s:28460  .debug_str:000000000002013f .LASF1558
C:\Users\SOLDER~1\AppData\Local\Temp\ccdovRCu.s:22402  .debug_str:00000000000076c5 .LASF1559
C:\Users\SOLDER~1\AppData\Local\Temp\ccdovRCu.s:31490  .debug_str:000000000002c695 .LASF1560
C:\Users\SOLDER~1\AppData\Local\Temp\ccdovRCu.s:20646  .debug_str:000000000000051f .LASF1561
C:\Users\SOLDER~1\AppData\Local\Temp\ccdovRCu.s:27686  .debug_str:000000000001cee8 .LASF1562
C:\Users\SOLDER~1\AppData\Local\Temp\ccdovRCu.s:24496  .debug_str:0000000000010008 .LASF1563
C:\Users\SOLDER~1\AppData\Local\Temp\ccdovRCu.s:23572  .debug_str:000000000000c327 .LASF1564
C:\Users\SOLDER~1\AppData\Local\Temp\ccdovRCu.s:30178  .debug_str:000000000002711b .LASF1565
C:\Users\SOLDER~1\AppData\Local\Temp\ccdovRCu.s:26348  .debug_str:0000000000017832 .LASF1566
GAS LISTING C:\Users\SOLDER~1\AppData\Local\Temp\ccdovRCu.s 			page 80


C:\Users\SOLDER~1\AppData\Local\Temp\ccdovRCu.s:25698  .debug_str:0000000000014eaf .LASF1567
C:\Users\SOLDER~1\AppData\Local\Temp\ccdovRCu.s:30704  .debug_str:0000000000029345 .LASF1568
C:\Users\SOLDER~1\AppData\Local\Temp\ccdovRCu.s:25152  .debug_str:0000000000012997 .LASF1569
C:\Users\SOLDER~1\AppData\Local\Temp\ccdovRCu.s:31520  .debug_str:000000000002c87f .LASF1570
C:\Users\SOLDER~1\AppData\Local\Temp\ccdovRCu.s:31488  .debug_str:000000000002c671 .LASF1571
C:\Users\SOLDER~1\AppData\Local\Temp\ccdovRCu.s:20608  .debug_str:00000000000002a1 .LASF1572
C:\Users\SOLDER~1\AppData\Local\Temp\ccdovRCu.s:27662  .debug_str:000000000001cd5b .LASF1573
C:\Users\SOLDER~1\AppData\Local\Temp\ccdovRCu.s:24250  .debug_str:000000000000effd .LASF1574
C:\Users\SOLDER~1\AppData\Local\Temp\ccdovRCu.s:22504  .debug_str:0000000000007d47 .LASF1575
C:\Users\SOLDER~1\AppData\Local\Temp\ccdovRCu.s:25104  .debug_str:00000000000126d8 .LASF1576
C:\Users\SOLDER~1\AppData\Local\Temp\ccdovRCu.s:20700  .debug_str:000000000000096c .LASF1577
C:\Users\SOLDER~1\AppData\Local\Temp\ccdovRCu.s:25194  .debug_str:0000000000012c92 .LASF1578
C:\Users\SOLDER~1\AppData\Local\Temp\ccdovRCu.s:24240  .debug_str:000000000000ef50 .LASF1579
C:\Users\SOLDER~1\AppData\Local\Temp\ccdovRCu.s:31932  .debug_str:000000000002e2d3 .LASF1580
C:\Users\SOLDER~1\AppData\Local\Temp\ccdovRCu.s:29834  .debug_str:00000000000259e2 .LASF1581
C:\Users\SOLDER~1\AppData\Local\Temp\ccdovRCu.s:31370  .debug_str:000000000002be8e .LASF1582
C:\Users\SOLDER~1\AppData\Local\Temp\ccdovRCu.s:26718  .debug_str:0000000000019024 .LASF1583
C:\Users\SOLDER~1\AppData\Local\Temp\ccdovRCu.s:24610  .debug_str:00000000000106f2 .LASF1584
C:\Users\SOLDER~1\AppData\Local\Temp\ccdovRCu.s:26198  .debug_str:0000000000016e30 .LASF1585
C:\Users\SOLDER~1\AppData\Local\Temp\ccdovRCu.s:23442  .debug_str:000000000000babc .LASF1586
C:\Users\SOLDER~1\AppData\Local\Temp\ccdovRCu.s:25424  .debug_str:0000000000013c56 .LASF1587
C:\Users\SOLDER~1\AppData\Local\Temp\ccdovRCu.s:30380  .debug_str:0000000000027e1a .LASF1588
C:\Users\SOLDER~1\AppData\Local\Temp\ccdovRCu.s:22770  .debug_str:0000000000008e72 .LASF1589
C:\Users\SOLDER~1\AppData\Local\Temp\ccdovRCu.s:24716  .debug_str:0000000000010df3 .LASF1590
C:\Users\SOLDER~1\AppData\Local\Temp\ccdovRCu.s:30138  .debug_str:0000000000026eb4 .LASF1591
C:\Users\SOLDER~1\AppData\Local\Temp\ccdovRCu.s:27710  .debug_str:000000000001d088 .LASF1592
C:\Users\SOLDER~1\AppData\Local\Temp\ccdovRCu.s:30394  .debug_str:0000000000027f1b .LASF1593
C:\Users\SOLDER~1\AppData\Local\Temp\ccdovRCu.s:23930  .debug_str:000000000000db15 .LASF1594
C:\Users\SOLDER~1\AppData\Local\Temp\ccdovRCu.s:20752  .debug_str:0000000000000d0d .LASF1595
C:\Users\SOLDER~1\AppData\Local\Temp\ccdovRCu.s:31436  .debug_str:000000000002c31c .LASF1596
C:\Users\SOLDER~1\AppData\Local\Temp\ccdovRCu.s:26384  .debug_str:0000000000017a7f .LASF1597
C:\Users\SOLDER~1\AppData\Local\Temp\ccdovRCu.s:29278  .debug_str:00000000000235d0 .LASF1598
C:\Users\SOLDER~1\AppData\Local\Temp\ccdovRCu.s:28128  .debug_str:000000000001ebc8 .LASF1599
C:\Users\SOLDER~1\AppData\Local\Temp\ccdovRCu.s:26022  .debug_str:0000000000016389 .LASF1600
C:\Users\SOLDER~1\AppData\Local\Temp\ccdovRCu.s:20578  .debug_str:00000000000000e3 .LASF1601
C:\Users\SOLDER~1\AppData\Local\Temp\ccdovRCu.s:26832  .debug_str:00000000000197f5 .LASF1602
C:\Users\SOLDER~1\AppData\Local\Temp\ccdovRCu.s:26802  .debug_str:00000000000195b0 .LASF1603
C:\Users\SOLDER~1\AppData\Local\Temp\ccdovRCu.s:27496  .debug_str:000000000001c1fb .LASF1604
C:\Users\SOLDER~1\AppData\Local\Temp\ccdovRCu.s:22966  .debug_str:0000000000009b61 .LASF1605
C:\Users\SOLDER~1\AppData\Local\Temp\ccdovRCu.s:31176  .debug_str:000000000002b1ab .LASF1606
C:\Users\SOLDER~1\AppData\Local\Temp\ccdovRCu.s:29380  .debug_str:0000000000023c32 .LASF1607
C:\Users\SOLDER~1\AppData\Local\Temp\ccdovRCu.s:32036  .debug_str:000000000002e91c .LASF1608
C:\Users\SOLDER~1\AppData\Local\Temp\ccdovRCu.s:25502  .debug_str:0000000000014168 .LASF1609
C:\Users\SOLDER~1\AppData\Local\Temp\ccdovRCu.s:24026  .debug_str:000000000000e184 .LASF1610
C:\Users\SOLDER~1\AppData\Local\Temp\ccdovRCu.s:28334  .debug_str:000000000001f96e .LASF1611
C:\Users\SOLDER~1\AppData\Local\Temp\ccdovRCu.s:21260  .debug_str:0000000000002d5b .LASF1612
C:\Users\SOLDER~1\AppData\Local\Temp\ccdovRCu.s:28674  .debug_str:0000000000020ee3 .LASF1613
C:\Users\SOLDER~1\AppData\Local\Temp\ccdovRCu.s:30186  .debug_str:00000000000271a1 .LASF1614
C:\Users\SOLDER~1\AppData\Local\Temp\ccdovRCu.s:25532  .debug_str:00000000000143a8 .LASF1615
C:\Users\SOLDER~1\AppData\Local\Temp\ccdovRCu.s:22626  .debug_str:000000000000852a .LASF1616
C:\Users\SOLDER~1\AppData\Local\Temp\ccdovRCu.s:25008  .debug_str:0000000000012085 .LASF1617
C:\Users\SOLDER~1\AppData\Local\Temp\ccdovRCu.s:22284  .debug_str:0000000000006f34 .LASF1618
C:\Users\SOLDER~1\AppData\Local\Temp\ccdovRCu.s:24236  .debug_str:000000000000ef05 .LASF1619
C:\Users\SOLDER~1\AppData\Local\Temp\ccdovRCu.s:29208  .debug_str:0000000000023118 .LASF1620
C:\Users\SOLDER~1\AppData\Local\Temp\ccdovRCu.s:21602  .debug_str:0000000000004302 .LASF1621
C:\Users\SOLDER~1\AppData\Local\Temp\ccdovRCu.s:23538  .debug_str:000000000000c0c6 .LASF1622
C:\Users\SOLDER~1\AppData\Local\Temp\ccdovRCu.s:28970  .debug_str:00000000000221e0 .LASF1623
GAS LISTING C:\Users\SOLDER~1\AppData\Local\Temp\ccdovRCu.s 			page 81


C:\Users\SOLDER~1\AppData\Local\Temp\ccdovRCu.s:26600  .debug_str:0000000000018849 .LASF1624
C:\Users\SOLDER~1\AppData\Local\Temp\ccdovRCu.s:27326  .debug_str:000000000001b747 .LASF1625
C:\Users\SOLDER~1\AppData\Local\Temp\ccdovRCu.s:22776  .debug_str:0000000000008ed7 .LASF1626
C:\Users\SOLDER~1\AppData\Local\Temp\ccdovRCu.s:31186  .debug_str:000000000002b255 .LASF1627
C:\Users\SOLDER~1\AppData\Local\Temp\ccdovRCu.s:30260  .debug_str:000000000002767d .LASF1628
C:\Users\SOLDER~1\AppData\Local\Temp\ccdovRCu.s:22738  .debug_str:0000000000008c2c .LASF1629
C:\Users\SOLDER~1\AppData\Local\Temp\ccdovRCu.s:26864  .debug_str:000000000001999d .LASF1630
C:\Users\SOLDER~1\AppData\Local\Temp\ccdovRCu.s:24232  .debug_str:000000000000eebf .LASF1631
C:\Users\SOLDER~1\AppData\Local\Temp\ccdovRCu.s:30204  .debug_str:00000000000272c2 .LASF1632
C:\Users\SOLDER~1\AppData\Local\Temp\ccdovRCu.s:24774  .debug_str:00000000000111a3 .LASF1633
C:\Users\SOLDER~1\AppData\Local\Temp\ccdovRCu.s:31112  .debug_str:000000000002ad9f .LASF1634
C:\Users\SOLDER~1\AppData\Local\Temp\ccdovRCu.s:29466  .debug_str:00000000000241f1 .LASF1635
C:\Users\SOLDER~1\AppData\Local\Temp\ccdovRCu.s:31806  .debug_str:000000000002daf6 .LASF1636
C:\Users\SOLDER~1\AppData\Local\Temp\ccdovRCu.s:27276  .debug_str:000000000001b42a .LASF1637
C:\Users\SOLDER~1\AppData\Local\Temp\ccdovRCu.s:23846  .debug_str:000000000000d5ce .LASF1638
C:\Users\SOLDER~1\AppData\Local\Temp\ccdovRCu.s:22004  .debug_str:0000000000005c4c .LASF1639
C:\Users\SOLDER~1\AppData\Local\Temp\ccdovRCu.s:24724  .debug_str:0000000000010e78 .LASF1640
C:\Users\SOLDER~1\AppData\Local\Temp\ccdovRCu.s:27388  .debug_str:000000000001bb12 .LASF1641
C:\Users\SOLDER~1\AppData\Local\Temp\ccdovRCu.s:31908  .debug_str:000000000002e16c .LASF1642
C:\Users\SOLDER~1\AppData\Local\Temp\ccdovRCu.s:30870  .debug_str:0000000000029dd6 .LASF1643
C:\Users\SOLDER~1\AppData\Local\Temp\ccdovRCu.s:27016  .debug_str:000000000001a341 .LASF1644
C:\Users\SOLDER~1\AppData\Local\Temp\ccdovRCu.s:24918  .debug_str:0000000000011ad5 .LASF1645
C:\Users\SOLDER~1\AppData\Local\Temp\ccdovRCu.s:26486  .debug_str:00000000000180fe .LASF1646
C:\Users\SOLDER~1\AppData\Local\Temp\ccdovRCu.s:21756  .debug_str:0000000000004ce0 .LASF1647
C:\Users\SOLDER~1\AppData\Local\Temp\ccdovRCu.s:25638  .debug_str:0000000000014ac4 .LASF1648
C:\Users\SOLDER~1\AppData\Local\Temp\ccdovRCu.s:21256  .debug_str:0000000000002d1a .LASF1649
C:\Users\SOLDER~1\AppData\Local\Temp\ccdovRCu.s:30120  .debug_str:0000000000026d73 .LASF1650
C:\Users\SOLDER~1\AppData\Local\Temp\ccdovRCu.s:32104  .debug_str:000000000002ed73 .LASF1651
C:\Users\SOLDER~1\AppData\Local\Temp\ccdovRCu.s:21366  .debug_str:0000000000003443 .LASF1652
C:\Users\SOLDER~1\AppData\Local\Temp\ccdovRCu.s:29436  .debug_str:0000000000023fe8 .LASF1653
C:\Users\SOLDER~1\AppData\Local\Temp\ccdovRCu.s:31406  .debug_str:000000000002c0db .LASF1654
C:\Users\SOLDER~1\AppData\Local\Temp\ccdovRCu.s:25238  .debug_str:0000000000012f5c .LASF1655
C:\Users\SOLDER~1\AppData\Local\Temp\ccdovRCu.s:22798  .debug_str:0000000000009050 .LASF1656
C:\Users\SOLDER~1\AppData\Local\Temp\ccdovRCu.s:25544  .debug_str:0000000000014468 .LASF1657
C:\Users\SOLDER~1\AppData\Local\Temp\ccdovRCu.s:30624  .debug_str:0000000000028e5a .LASF1658
C:\Users\SOLDER~1\AppData\Local\Temp\ccdovRCu.s:27428  .debug_str:000000000001bd74 .LASF1659
C:\Users\SOLDER~1\AppData\Local\Temp\ccdovRCu.s:26546  .debug_str:00000000000184d7 .LASF1660
C:\Users\SOLDER~1\AppData\Local\Temp\ccdovRCu.s:21428  .debug_str:000000000000380e .LASF1661
C:\Users\SOLDER~1\AppData\Local\Temp\ccdovRCu.s:23068  .debug_str:000000000000a24a .LASF1662
C:\Users\SOLDER~1\AppData\Local\Temp\ccdovRCu.s:28442  .debug_str:000000000002002f .LASF1663
C:\Users\SOLDER~1\AppData\Local\Temp\ccdovRCu.s:22904  .debug_str:000000000000974f .LASF1664
C:\Users\SOLDER~1\AppData\Local\Temp\ccdovRCu.s:29038  .debug_str:00000000000225cc .LASF1665
C:\Users\SOLDER~1\AppData\Local\Temp\ccdovRCu.s:23792  .debug_str:000000000000d236 .LASF1666
C:\Users\SOLDER~1\AppData\Local\Temp\ccdovRCu.s:23752  .debug_str:000000000000cfa2 .LASF1667
C:\Users\SOLDER~1\AppData\Local\Temp\ccdovRCu.s:24492  .debug_str:000000000000ffc0 .LASF1668
C:\Users\SOLDER~1\AppData\Local\Temp\ccdovRCu.s:31494  .debug_str:000000000002c6e3 .LASF1669
C:\Users\SOLDER~1\AppData\Local\Temp\ccdovRCu.s:28064  .debug_str:000000000001e72e .LASF1670
C:\Users\SOLDER~1\AppData\Local\Temp\ccdovRCu.s:26356  .debug_str:00000000000178cd .LASF1671
C:\Users\SOLDER~1\AppData\Local\Temp\ccdovRCu.s:28984  .debug_str:00000000000222b1 .LASF1672
C:\Users\SOLDER~1\AppData\Local\Temp\ccdovRCu.s:23610  .debug_str:000000000000c5df .LASF1673
C:\Users\SOLDER~1\AppData\Local\Temp\ccdovRCu.s:31308  .debug_str:000000000002ba78 .LASF1674
C:\Users\SOLDER~1\AppData\Local\Temp\ccdovRCu.s:27104  .debug_str:000000000001a90d .LASF1675
C:\Users\SOLDER~1\AppData\Local\Temp\ccdovRCu.s:23238  .debug_str:000000000000ad91 .LASF1676
C:\Users\SOLDER~1\AppData\Local\Temp\ccdovRCu.s:21174  .debug_str:00000000000027e2 .LASF1677
C:\Users\SOLDER~1\AppData\Local\Temp\ccdovRCu.s:22690  .debug_str:0000000000008915 .LASF1678
C:\Users\SOLDER~1\AppData\Local\Temp\ccdovRCu.s:29502  .debug_str:0000000000024455 .LASF1679
C:\Users\SOLDER~1\AppData\Local\Temp\ccdovRCu.s:27530  .debug_str:000000000001c469 .LASF1680
GAS LISTING C:\Users\SOLDER~1\AppData\Local\Temp\ccdovRCu.s 			page 82


C:\Users\SOLDER~1\AppData\Local\Temp\ccdovRCu.s:31598  .debug_str:000000000002cd31 .LASF1681
C:\Users\SOLDER~1\AppData\Local\Temp\ccdovRCu.s:26420  .debug_str:0000000000017ca2 .LASF1682
C:\Users\SOLDER~1\AppData\Local\Temp\ccdovRCu.s:28344  .debug_str:000000000001fa12 .LASF1683
C:\Users\SOLDER~1\AppData\Local\Temp\ccdovRCu.s:21704  .debug_str:000000000000497f .LASF1684
C:\Users\SOLDER~1\AppData\Local\Temp\ccdovRCu.s:25628  .debug_str:0000000000014a23 .LASF1685
C:\Users\SOLDER~1\AppData\Local\Temp\ccdovRCu.s:27634  .debug_str:000000000001cb58 .LASF1686
C:\Users\SOLDER~1\AppData\Local\Temp\ccdovRCu.s:21486  .debug_str:0000000000003bd9 .LASF1687
C:\Users\SOLDER~1\AppData\Local\Temp\ccdovRCu.s:30644  .debug_str:0000000000028f88 .LASF1688
C:\Users\SOLDER~1\AppData\Local\Temp\ccdovRCu.s:31420  .debug_str:000000000002c1e8 .LASF1689
C:\Users\SOLDER~1\AppData\Local\Temp\ccdovRCu.s:26890  .debug_str:0000000000019b52 .LASF1690
C:\Users\SOLDER~1\AppData\Local\Temp\ccdovRCu.s:23656  .debug_str:000000000000c908 .LASF1691
C:\Users\SOLDER~1\AppData\Local\Temp\ccdovRCu.s:22748  .debug_str:0000000000008cdd .LASF1692
C:\Users\SOLDER~1\AppData\Local\Temp\ccdovRCu.s:24148  .debug_str:000000000000e9a3 .LASF1693
C:\Users\SOLDER~1\AppData\Local\Temp\ccdovRCu.s:30950  .debug_str:000000000002a315 .LASF1694
C:\Users\SOLDER~1\AppData\Local\Temp\ccdovRCu.s:27484  .debug_str:000000000001c132 .LASF1695
C:\Users\SOLDER~1\AppData\Local\Temp\ccdovRCu.s:27210  .debug_str:000000000001b036 .LASF1696
C:\Users\SOLDER~1\AppData\Local\Temp\ccdovRCu.s:21360  .debug_str:00000000000033d6 .LASF1697
C:\Users\SOLDER~1\AppData\Local\Temp\ccdovRCu.s:28094  .debug_str:000000000001e957 .LASF1698
C:\Users\SOLDER~1\AppData\Local\Temp\ccdovRCu.s:27972  .debug_str:000000000001e17c .LASF1699
C:\Users\SOLDER~1\AppData\Local\Temp\ccdovRCu.s:28676  .debug_str:0000000000020f09 .LASF1700
C:\Users\SOLDER~1\AppData\Local\Temp\ccdovRCu.s:24158  .debug_str:000000000000ea4c .LASF1701
C:\Users\SOLDER~1\AppData\Local\Temp\ccdovRCu.s:20780  .debug_str:0000000000000edf .LASF1702
C:\Users\SOLDER~1\AppData\Local\Temp\ccdovRCu.s:30604  .debug_str:0000000000028d1b .LASF1703
C:\Users\SOLDER~1\AppData\Local\Temp\ccdovRCu.s:21688  .debug_str:0000000000004896 .LASF1704
C:\Users\SOLDER~1\AppData\Local\Temp\ccdovRCu.s:31482  .debug_str:000000000002c621 .LASF1705
C:\Users\SOLDER~1\AppData\Local\Temp\ccdovRCu.s:24278  .debug_str:000000000000f1a1 .LASF1706
C:\Users\SOLDER~1\AppData\Local\Temp\ccdovRCu.s:23328  .debug_str:000000000000b35f .LASF1707
C:\Users\SOLDER~1\AppData\Local\Temp\ccdovRCu.s:31092  .debug_str:000000000002ac35 .LASF1708
C:\Users\SOLDER~1\AppData\Local\Temp\ccdovRCu.s:28994  .debug_str:0000000000022352 .LASF1709
C:\Users\SOLDER~1\AppData\Local\Temp\ccdovRCu.s:25320  .debug_str:00000000000134e0 .LASF1710
C:\Users\SOLDER~1\AppData\Local\Temp\ccdovRCu.s:25774  .debug_str:000000000001537d .LASF1711
C:\Users\SOLDER~1\AppData\Local\Temp\ccdovRCu.s:32004  .debug_str:000000000002e719 .LASF1712
C:\Users\SOLDER~1\AppData\Local\Temp\ccdovRCu.s:25362  .debug_str:00000000000137b7 .LASF1713
C:\Users\SOLDER~1\AppData\Local\Temp\ccdovRCu.s:22620  .debug_str:00000000000084b6 .LASF1714
C:\Users\SOLDER~1\AppData\Local\Temp\ccdovRCu.s:24590  .debug_str:00000000000105d7 .LASF1715
C:\Users\SOLDER~1\AppData\Local\Temp\ccdovRCu.s:22374  .debug_str:0000000000007516 .LASF1716
C:\Users\SOLDER~1\AppData\Local\Temp\ccdovRCu.s:21082  .debug_str:00000000000021e8 .LASF1717
C:\Users\SOLDER~1\AppData\Local\Temp\ccdovRCu.s:23868  .debug_str:000000000000d71e .LASF1718
C:\Users\SOLDER~1\AppData\Local\Temp\ccdovRCu.s:29302  .debug_str:0000000000023755 .LASF1719
C:\Users\SOLDER~1\AppData\Local\Temp\ccdovRCu.s:26910  .debug_str:0000000000019c9f .LASF1720
C:\Users\SOLDER~1\AppData\Local\Temp\ccdovRCu.s:27648  .debug_str:000000000001cc66 .LASF1721
C:\Users\SOLDER~1\AppData\Local\Temp\ccdovRCu.s:23092  .debug_str:000000000000a3d9 .LASF1722
C:\Users\SOLDER~1\AppData\Local\Temp\ccdovRCu.s:31526  .debug_str:000000000002c8dc .LASF1723
C:\Users\SOLDER~1\AppData\Local\Temp\ccdovRCu.s:30602  .debug_str:0000000000028cf5 .LASF1724
C:\Users\SOLDER~1\AppData\Local\Temp\ccdovRCu.s:25526  .debug_str:0000000000014349 .LASF1725
C:\Users\SOLDER~1\AppData\Local\Temp\ccdovRCu.s:27188  .debug_str:000000000001aed1 .LASF1726
C:\Users\SOLDER~1\AppData\Local\Temp\ccdovRCu.s:23848  .debug_str:000000000000d5f3 .LASF1727
C:\Users\SOLDER~1\AppData\Local\Temp\ccdovRCu.s:29896  .debug_str:0000000000025e16 .LASF1728
C:\Users\SOLDER~1\AppData\Local\Temp\ccdovRCu.s:24478  .debug_str:000000000000fee5 .LASF1729
C:\Users\SOLDER~1\AppData\Local\Temp\ccdovRCu.s:21492  .debug_str:0000000000003c29 .LASF1730
C:\Users\SOLDER~1\AppData\Local\Temp\ccdovRCu.s:30794  .debug_str:0000000000029940 .LASF1731
C:\Users\SOLDER~1\AppData\Local\Temp\ccdovRCu.s:31514  .debug_str:000000000002c811 .LASF1732
C:\Users\SOLDER~1\AppData\Local\Temp\ccdovRCu.s:26996  .debug_str:000000000001a209 .LASF1733
C:\Users\SOLDER~1\AppData\Local\Temp\ccdovRCu.s:23478  .debug_str:000000000000bd18 .LASF1734
C:\Users\SOLDER~1\AppData\Local\Temp\ccdovRCu.s:22186  .debug_str:00000000000068d2 .LASF1735
C:\Users\SOLDER~1\AppData\Local\Temp\ccdovRCu.s:24424  .debug_str:000000000000fb18 .LASF1736
C:\Users\SOLDER~1\AppData\Local\Temp\ccdovRCu.s:26018  .debug_str:0000000000016350 .LASF1737
GAS LISTING C:\Users\SOLDER~1\AppData\Local\Temp\ccdovRCu.s 			page 83


C:\Users\SOLDER~1\AppData\Local\Temp\ccdovRCu.s:21440  .debug_str:00000000000038d2 .LASF1738
C:\Users\SOLDER~1\AppData\Local\Temp\ccdovRCu.s:21990  .debug_str:0000000000005b97 .LASF1739
C:\Users\SOLDER~1\AppData\Local\Temp\ccdovRCu.s:29732  .debug_str:000000000002536b .LASF1740
C:\Users\SOLDER~1\AppData\Local\Temp\ccdovRCu.s:27592  .debug_str:000000000001c88e .LASF1741
C:\Users\SOLDER~1\AppData\Local\Temp\ccdovRCu.s:31464  .debug_str:000000000002c50d .LASF1742
C:\Users\SOLDER~1\AppData\Local\Temp\ccdovRCu.s:24430  .debug_str:000000000000fb78 .LASF1743
C:\Users\SOLDER~1\AppData\Local\Temp\ccdovRCu.s:22354  .debug_str:00000000000073d3 .LASF1744
C:\Users\SOLDER~1\AppData\Local\Temp\ccdovRCu.s:24000  .debug_str:000000000000dfa1 .LASF1745
C:\Users\SOLDER~1\AppData\Local\Temp\ccdovRCu.s:29370  .debug_str:0000000000023bbe .LASF1746
C:\Users\SOLDER~1\AppData\Local\Temp\ccdovRCu.s:23142  .debug_str:000000000000a760 .LASF1747
C:\Users\SOLDER~1\AppData\Local\Temp\ccdovRCu.s:28134  .debug_str:000000000001ec36 .LASF1748
C:\Users\SOLDER~1\AppData\Local\Temp\ccdovRCu.s:32144  .debug_str:000000000002efd8 .LASF1749
C:\Users\SOLDER~1\AppData\Local\Temp\ccdovRCu.s:22462  .debug_str:0000000000007a62 .LASF1750
C:\Users\SOLDER~1\AppData\Local\Temp\ccdovRCu.s:27998  .debug_str:000000000001e310 .LASF1751
C:\Users\SOLDER~1\AppData\Local\Temp\ccdovRCu.s:25472  .debug_str:0000000000013f7f .LASF1752
C:\Users\SOLDER~1\AppData\Local\Temp\ccdovRCu.s:26248  .debug_str:0000000000017198 .LASF1753
C:\Users\SOLDER~1\AppData\Local\Temp\ccdovRCu.s:21674  .debug_str:00000000000047a7 .LASF1754
C:\Users\SOLDER~1\AppData\Local\Temp\ccdovRCu.s:30066  .debug_str:00000000000269cf .LASF1755
C:\Users\SOLDER~1\AppData\Local\Temp\ccdovRCu.s:29144  .debug_str:0000000000022cfa .LASF1756
C:\Users\SOLDER~1\AppData\Local\Temp\ccdovRCu.s:24172  .debug_str:000000000000eb2c .LASF1757
C:\Users\SOLDER~1\AppData\Local\Temp\ccdovRCu.s:25852  .debug_str:0000000000015898 .LASF1758
C:\Users\SOLDER~1\AppData\Local\Temp\ccdovRCu.s:28164  .debug_str:000000000001ee25 .LASF1759
C:\Users\SOLDER~1\AppData\Local\Temp\ccdovRCu.s:22614  .debug_str:0000000000008473 .LASF1760
C:\Users\SOLDER~1\AppData\Local\Temp\ccdovRCu.s:28750  .debug_str:00000000000213e7 .LASF1761
C:\Users\SOLDER~1\AppData\Local\Temp\ccdovRCu.s:23500  .debug_str:000000000000be69 .LASF1762
C:\Users\SOLDER~1\AppData\Local\Temp\ccdovRCu.s:21110  .debug_str:00000000000023c9 .LASF1763
C:\Users\SOLDER~1\AppData\Local\Temp\ccdovRCu.s:24090  .debug_str:000000000000e5e0 .LASF1764
C:\Users\SOLDER~1\AppData\Local\Temp\ccdovRCu.s:24952  .debug_str:0000000000011d29 .LASF1765
C:\Users\SOLDER~1\AppData\Local\Temp\ccdovRCu.s:27770  .debug_str:000000000001d49f .LASF1766
C:\Users\SOLDER~1\AppData\Local\Temp\ccdovRCu.s:26038  .debug_str:00000000000164a4 .LASF1767
C:\Users\SOLDER~1\AppData\Local\Temp\ccdovRCu.s:28706  .debug_str:00000000000210f6 .LASF1768
C:\Users\SOLDER~1\AppData\Local\Temp\ccdovRCu.s:26318  .debug_str:0000000000017650 .LASF1769
C:\Users\SOLDER~1\AppData\Local\Temp\ccdovRCu.s:30812  .debug_str:0000000000029a4a .LASF1770
C:\Users\SOLDER~1\AppData\Local\Temp\ccdovRCu.s:29832  .debug_str:00000000000259bd .LASF1771
C:\Users\SOLDER~1\AppData\Local\Temp\ccdovRCu.s:26014  .debug_str:0000000000016310 .LASF1772
C:\Users\SOLDER~1\AppData\Local\Temp\ccdovRCu.s:23824  .debug_str:000000000000d453 .LASF1773
C:\Users\SOLDER~1\AppData\Local\Temp\ccdovRCu.s:25356  .debug_str:0000000000013749 .LASF1774
C:\Users\SOLDER~1\AppData\Local\Temp\ccdovRCu.s:20688  .debug_str:0000000000000865 .LASF1775
C:\Users\SOLDER~1\AppData\Local\Temp\ccdovRCu.s:30184  .debug_str:000000000002717c .LASF1776
C:\Users\SOLDER~1\AppData\Local\Temp\ccdovRCu.s:31874  .debug_str:000000000002df2e .LASF1777
C:\Users\SOLDER~1\AppData\Local\Temp\ccdovRCu.s:29012  .debug_str:000000000002244f .LASF1778
C:\Users\SOLDER~1\AppData\Local\Temp\ccdovRCu.s:28428  .debug_str:000000000001ff53 .LASF1779
C:\Users\SOLDER~1\AppData\Local\Temp\ccdovRCu.s:24376  .debug_str:000000000000f7ab .LASF1780
C:\Users\SOLDER~1\AppData\Local\Temp\ccdovRCu.s:28370  .debug_str:000000000001fbb1 .LASF1781
C:\Users\SOLDER~1\AppData\Local\Temp\ccdovRCu.s:30294  .debug_str:00000000000278a7 .LASF1782
C:\Users\SOLDER~1\AppData\Local\Temp\ccdovRCu.s:24226  .debug_str:000000000000ee5b .LASF1783
C:\Users\SOLDER~1\AppData\Local\Temp\ccdovRCu.s:21692  .debug_str:00000000000048d5 .LASF1784
C:\Users\SOLDER~1\AppData\Local\Temp\ccdovRCu.s:22470  .debug_str:0000000000007af0 .LASF1785
C:\Users\SOLDER~1\AppData\Local\Temp\ccdovRCu.s:29508  .debug_str:00000000000244bc .LASF1786
C:\Users\SOLDER~1\AppData\Local\Temp\ccdovRCu.s:26374  .debug_str:00000000000179bd .LASF1787
C:\Users\SOLDER~1\AppData\Local\Temp\ccdovRCu.s:25432  .debug_str:0000000000013cc7 .LASF1788
C:\Users\SOLDER~1\AppData\Local\Temp\ccdovRCu.s:32044  .debug_str:000000000002e9a1 .LASF1789
C:\Users\SOLDER~1\AppData\Local\Temp\ccdovRCu.s:21986  .debug_str:0000000000005b4e .LASF1790
C:\Users\SOLDER~1\AppData\Local\Temp\ccdovRCu.s:20866  .debug_str:000000000000141e .LASF1791
C:\Users\SOLDER~1\AppData\Local\Temp\ccdovRCu.s:26932  .debug_str:0000000000019e10 .LASF1792
C:\Users\SOLDER~1\AppData\Local\Temp\ccdovRCu.s:21468  .debug_str:0000000000003aa9 .LASF1793
C:\Users\SOLDER~1\AppData\Local\Temp\ccdovRCu.s:27714  .debug_str:000000000001d0d9 .LASF1794
GAS LISTING C:\Users\SOLDER~1\AppData\Local\Temp\ccdovRCu.s 			page 84


C:\Users\SOLDER~1\AppData\Local\Temp\ccdovRCu.s:27678  .debug_str:000000000001ce63 .LASF1795
C:\Users\SOLDER~1\AppData\Local\Temp\ccdovRCu.s:28394  .debug_str:000000000001fd37 .LASF1796
C:\Users\SOLDER~1\AppData\Local\Temp\ccdovRCu.s:24702  .debug_str:0000000000010cf4 .LASF1797
C:\Users\SOLDER~1\AppData\Local\Temp\ccdovRCu.s:32086  .debug_str:000000000002ec56 .LASF1798
C:\Users\SOLDER~1\AppData\Local\Temp\ccdovRCu.s:30308  .debug_str:00000000000279a4 .LASF1799
C:\Users\SOLDER~1\AppData\Local\Temp\ccdovRCu.s:21412  .debug_str:0000000000003705 .LASF1800
C:\Users\SOLDER~1\AppData\Local\Temp\ccdovRCu.s:22528  .debug_str:0000000000007ed5 .LASF1801
C:\Users\SOLDER~1\AppData\Local\Temp\ccdovRCu.s:28266  .debug_str:000000000001f4ee .LASF1802
C:\Users\SOLDER~1\AppData\Local\Temp\ccdovRCu.s:26116  .debug_str:0000000000016939 .LASF1803
C:\Users\SOLDER~1\AppData\Local\Temp\ccdovRCu.s:22140  .debug_str:0000000000006582 .LASF1804
C:\Users\SOLDER~1\AppData\Local\Temp\ccdovRCu.s:31696  .debug_str:000000000002d3e9 .LASF1805
C:\Users\SOLDER~1\AppData\Local\Temp\ccdovRCu.s:21572  .debug_str:000000000000412e .LASF1806
C:\Users\SOLDER~1\AppData\Local\Temp\ccdovRCu.s:28508  .debug_str:000000000002044a .LASF1807
C:\Users\SOLDER~1\AppData\Local\Temp\ccdovRCu.s:26328  .debug_str:00000000000176e5 .LASF1808
C:\Users\SOLDER~1\AppData\Local\Temp\ccdovRCu.s:28012  .debug_str:000000000001e40c .LASF1809
C:\Users\SOLDER~1\AppData\Local\Temp\ccdovRCu.s:25288  .debug_str:00000000000132bf .LASF1810
C:\Users\SOLDER~1\AppData\Local\Temp\ccdovRCu.s:27250  .debug_str:000000000001b27e .LASF1811
C:\Users\SOLDER~1\AppData\Local\Temp\ccdovRCu.s:20640  .debug_str:00000000000004c4 .LASF1812
C:\Users\SOLDER~1\AppData\Local\Temp\ccdovRCu.s:24622  .debug_str:00000000000107bc .LASF1813
C:\Users\SOLDER~1\AppData\Local\Temp\ccdovRCu.s:26584  .debug_str:0000000000018737 .LASF1814
C:\Users\SOLDER~1\AppData\Local\Temp\ccdovRCu.s:32010  .debug_str:000000000002e77b .LASF1815
C:\Users\SOLDER~1\AppData\Local\Temp\ccdovRCu.s:27964  .debug_str:000000000001e0e2 .LASF1816
C:\Users\SOLDER~1\AppData\Local\Temp\ccdovRCu.s:30768  .debug_str:000000000002978a .LASF1817
C:\Users\SOLDER~1\AppData\Local\Temp\ccdovRCu.s:25786  .debug_str:000000000001542e .LASF1818
C:\Users\SOLDER~1\AppData\Local\Temp\ccdovRCu.s:22572  .debug_str:00000000000081d8 .LASF1819
C:\Users\SOLDER~1\AppData\Local\Temp\ccdovRCu.s:21644  .debug_str:00000000000045a0 .LASF1820
C:\Users\SOLDER~1\AppData\Local\Temp\ccdovRCu.s:28178  .debug_str:000000000001ef0a .LASF1821
C:\Users\SOLDER~1\AppData\Local\Temp\ccdovRCu.s:29828  .debug_str:0000000000025976 .LASF1822
C:\Users\SOLDER~1\AppData\Local\Temp\ccdovRCu.s:25138  .debug_str:00000000000128c9 .LASF1823
C:\Users\SOLDER~1\AppData\Local\Temp\ccdovRCu.s:31122  .debug_str:000000000002ae58 .LASF1824
C:\Users\SOLDER~1\AppData\Local\Temp\ccdovRCu.s:25682  .debug_str:0000000000014dac .LASF1825
C:\Users\SOLDER~1\AppData\Local\Temp\ccdovRCu.s:32030  .debug_str:000000000002e8b5 .LASF1826
C:\Users\SOLDER~1\AppData\Local\Temp\ccdovRCu.s:30448  .debug_str:00000000000282c8 .LASF1827
C:\Users\SOLDER~1\AppData\Local\Temp\ccdovRCu.s:21088  .debug_str:0000000000002256 .LASF1828
C:\Users\SOLDER~1\AppData\Local\Temp\ccdovRCu.s:28170  .debug_str:000000000001ee82 .LASF1829
C:\Users\SOLDER~1\AppData\Local\Temp\ccdovRCu.s:22964  .debug_str:0000000000009b3d .LASF1830
C:\Users\SOLDER~1\AppData\Local\Temp\ccdovRCu.s:22916  .debug_str:0000000000009823 .LASF1831
C:\Users\SOLDER~1\AppData\Local\Temp\ccdovRCu.s:25630  .debug_str:0000000000014a49 .LASF1832
C:\Users\SOLDER~1\AppData\Local\Temp\ccdovRCu.s:30362  .debug_str:0000000000027ce3 .LASF1833
C:\Users\SOLDER~1\AppData\Local\Temp\ccdovRCu.s:23270  .debug_str:000000000000afd1 .LASF1834
C:\Users\SOLDER~1\AppData\Local\Temp\ccdovRCu.s:22234  .debug_str:0000000000006bc7 .LASF1835
C:\Users\SOLDER~1\AppData\Local\Temp\ccdovRCu.s:29972  .debug_str:000000000002636e .LASF1836
C:\Users\SOLDER~1\AppData\Local\Temp\ccdovRCu.s:27928  .debug_str:000000000001de62 .LASF1837
C:\Users\SOLDER~1\AppData\Local\Temp\ccdovRCu.s:28824  .debug_str:00000000000218bc .LASF1838
C:\Users\SOLDER~1\AppData\Local\Temp\ccdovRCu.s:24768  .debug_str:000000000001113d .LASF1839
C:\Users\SOLDER~1\AppData\Local\Temp\ccdovRCu.s:23554  .debug_str:000000000000c1ea .LASF1840
C:\Users\SOLDER~1\AppData\Local\Temp\ccdovRCu.s:24244  .debug_str:000000000000ef95 .LASF1841
C:\Users\SOLDER~1\AppData\Local\Temp\ccdovRCu.s:21516  .debug_str:0000000000003d9c .LASF1842
C:\Users\SOLDER~1\AppData\Local\Temp\ccdovRCu.s:23484  .debug_str:000000000000bd7f .LASF1843
C:\Users\SOLDER~1\AppData\Local\Temp\ccdovRCu.s:28464  .debug_str:0000000000020180 .LASF1844
C:\Users\SOLDER~1\AppData\Local\Temp\ccdovRCu.s:20870  .debug_str:0000000000001462 .LASF1845
C:\Users\SOLDER~1\AppData\Local\Temp\ccdovRCu.s:22784  .debug_str:0000000000008f65 .LASF1846
C:\Users\SOLDER~1\AppData\Local\Temp\ccdovRCu.s:28244  .debug_str:000000000001f36c .LASF1847
C:\Users\SOLDER~1\AppData\Local\Temp\ccdovRCu.s:25800  .debug_str:000000000001552e .LASF1848
C:\Users\SOLDER~1\AppData\Local\Temp\ccdovRCu.s:26596  .debug_str:0000000000018804 .LASF1849
C:\Users\SOLDER~1\AppData\Local\Temp\ccdovRCu.s:22012  .debug_str:0000000000005ce6 .LASF1850
C:\Users\SOLDER~1\AppData\Local\Temp\ccdovRCu.s:30406  .debug_str:0000000000028004 .LASF1851
GAS LISTING C:\Users\SOLDER~1\AppData\Local\Temp\ccdovRCu.s 			page 85


C:\Users\SOLDER~1\AppData\Local\Temp\ccdovRCu.s:29484  .debug_str:000000000002430a .LASF1852
C:\Users\SOLDER~1\AppData\Local\Temp\ccdovRCu.s:30698  .debug_str:00000000000292d1 .LASF1853
C:\Users\SOLDER~1\AppData\Local\Temp\ccdovRCu.s:26110  .debug_str:00000000000168d9 .LASF1854
C:\Users\SOLDER~1\AppData\Local\Temp\ccdovRCu.s:29322  .debug_str:00000000000238a8 .LASF1855
C:\Users\SOLDER~1\AppData\Local\Temp\ccdovRCu.s:26958  .debug_str:0000000000019f8d .LASF1856
C:\Users\SOLDER~1\AppData\Local\Temp\ccdovRCu.s:29946  .debug_str:00000000000261a9 .LASF1857
C:\Users\SOLDER~1\AppData\Local\Temp\ccdovRCu.s:24718  .debug_str:0000000000010e18 .LASF1858
C:\Users\SOLDER~1\AppData\Local\Temp\ccdovRCu.s:24686  .debug_str:0000000000010bfd .LASF1859
C:\Users\SOLDER~1\AppData\Local\Temp\ccdovRCu.s:25404  .debug_str:0000000000013ad4 .LASF1860
C:\Users\SOLDER~1\AppData\Local\Temp\ccdovRCu.s:23254  .debug_str:000000000000aeba .LASF1861
C:\Users\SOLDER~1\AppData\Local\Temp\ccdovRCu.s:28950  .debug_str:000000000002209e .LASF1862
C:\Users\SOLDER~1\AppData\Local\Temp\ccdovRCu.s:27224  .debug_str:000000000001b11d .LASF1863
C:\Users\SOLDER~1\AppData\Local\Temp\ccdovRCu.s:29892  .debug_str:0000000000025dd0 .LASF1864
C:\Users\SOLDER~1\AppData\Local\Temp\ccdovRCu.s:26654  .debug_str:0000000000018bd1 .LASF1865
C:\Users\SOLDER~1\AppData\Local\Temp\ccdovRCu.s:31130  .debug_str:000000000002aedf .LASF1866
C:\Users\SOLDER~1\AppData\Local\Temp\ccdovRCu.s:30072  .debug_str:0000000000026a42 .LASF1867
C:\Users\SOLDER~1\AppData\Local\Temp\ccdovRCu.s:26262  .debug_str:0000000000017286 .LASF1868
C:\Users\SOLDER~1\AppData\Local\Temp\ccdovRCu.s:24160  .debug_str:000000000000ea71 .LASF1869
C:\Users\SOLDER~1\AppData\Local\Temp\ccdovRCu.s:25690  .debug_str:0000000000014e2e .LASF1870
C:\Users\SOLDER~1\AppData\Local\Temp\ccdovRCu.s:20918  .debug_str:000000000000178a .LASF1871
C:\Users\SOLDER~1\AppData\Local\Temp\ccdovRCu.s:30534  .debug_str:0000000000028871 .LASF1872
C:\Users\SOLDER~1\AppData\Local\Temp\ccdovRCu.s:29488  .debug_str:000000000002435c .LASF1873
C:\Users\SOLDER~1\AppData\Local\Temp\ccdovRCu.s:29336  .debug_str:000000000002399e .LASF1874
C:\Users\SOLDER~1\AppData\Local\Temp\ccdovRCu.s:31348  .debug_str:000000000002bd1c .LASF1875
C:\Users\SOLDER~1\AppData\Local\Temp\ccdovRCu.s:28882  .debug_str:0000000000021c6d .LASF1876
C:\Users\SOLDER~1\AppData\Local\Temp\ccdovRCu.s:27614  .debug_str:000000000001ca00 .LASF1877
C:\Users\SOLDER~1\AppData\Local\Temp\ccdovRCu.s:30632  .debug_str:0000000000028eda .LASF1878
C:\Users\SOLDER~1\AppData\Local\Temp\ccdovRCu.s:29290  .debug_str:0000000000023694 .LASF1879
C:\Users\SOLDER~1\AppData\Local\Temp\ccdovRCu.s:22030  .debug_str:0000000000005e0f .LASF1880
C:\Users\SOLDER~1\AppData\Local\Temp\ccdovRCu.s:22794  .debug_str:0000000000009012 .LASF1881
C:\Users\SOLDER~1\AppData\Local\Temp\ccdovRCu.s:29844  .debug_str:0000000000025aa7 .LASF1882
C:\Users\SOLDER~1\AppData\Local\Temp\ccdovRCu.s:26696  .debug_str:0000000000018ea1 .LASF1883
C:\Users\SOLDER~1\AppData\Local\Temp\ccdovRCu.s:20834  .debug_str:000000000000120e .LASF1884
C:\Users\SOLDER~1\AppData\Local\Temp\ccdovRCu.s:20684  .debug_str:000000000000081a .LASF1885
C:\Users\SOLDER~1\AppData\Local\Temp\ccdovRCu.s:22330  .debug_str:0000000000007231 .LASF1886
C:\Users\SOLDER~1\AppData\Local\Temp\ccdovRCu.s:22042  .debug_str:0000000000005ed3 .LASF1887
C:\Users\SOLDER~1\AppData\Local\Temp\ccdovRCu.s:28102  .debug_str:000000000001e9e6 .LASF1888
C:\Users\SOLDER~1\AppData\Local\Temp\ccdovRCu.s:27350  .debug_str:000000000001b8ca .LASF1889
C:\Users\SOLDER~1\AppData\Local\Temp\ccdovRCu.s:28978  .debug_str:0000000000022252 .LASF1890
C:\Users\SOLDER~1\AppData\Local\Temp\ccdovRCu.s:28944  .debug_str:000000000002202d .LASF1891
C:\Users\SOLDER~1\AppData\Local\Temp\ccdovRCu.s:29568  .debug_str:00000000000248b6 .LASF1892
C:\Users\SOLDER~1\AppData\Local\Temp\ccdovRCu.s:25064  .debug_str:0000000000012400 .LASF1893
C:\Users\SOLDER~1\AppData\Local\Temp\ccdovRCu.s:21654  .debug_str:000000000000464c .LASF1894
C:\Users\SOLDER~1\AppData\Local\Temp\ccdovRCu.s:31524  .debug_str:000000000002c8b8 .LASF1895
C:\Users\SOLDER~1\AppData\Local\Temp\ccdovRCu.s:22606  .debug_str:0000000000008400 .LASF1896
C:\Users\SOLDER~1\AppData\Local\Temp\ccdovRCu.s:22852  .debug_str:00000000000093f7 .LASF1897
C:\Users\SOLDER~1\AppData\Local\Temp\ccdovRCu.s:27286  .debug_str:000000000001b4bc .LASF1898
C:\Users\SOLDER~1\AppData\Local\Temp\ccdovRCu.s:26376  .debug_str:00000000000179e2 .LASF1899
C:\Users\SOLDER~1\AppData\Local\Temp\ccdovRCu.s:22482  .debug_str:0000000000007bc6 .LASF1900
C:\Users\SOLDER~1\AppData\Local\Temp\ccdovRCu.s:32032  .debug_str:000000000002e8d9 .LASF1901
C:\Users\SOLDER~1\AppData\Local\Temp\ccdovRCu.s:21912  .debug_str:0000000000005624 .LASF1902
C:\Users\SOLDER~1\AppData\Local\Temp\ccdovRCu.s:31632  .debug_str:000000000002cf56 .LASF1903
C:\Users\SOLDER~1\AppData\Local\Temp\ccdovRCu.s:26800  .debug_str:000000000001958b .LASF1904
C:\Users\SOLDER~1\AppData\Local\Temp\ccdovRCu.s:28350  .debug_str:000000000001fa7f .LASF1905
C:\Users\SOLDER~1\AppData\Local\Temp\ccdovRCu.s:25624  .debug_str:00000000000149c7 .LASF1906
C:\Users\SOLDER~1\AppData\Local\Temp\ccdovRCu.s:27570  .debug_str:000000000001c6fb .LASF1907
C:\Users\SOLDER~1\AppData\Local\Temp\ccdovRCu.s:20950  .debug_str:0000000000001975 .LASF1908
GAS LISTING C:\Users\SOLDER~1\AppData\Local\Temp\ccdovRCu.s 			page 86


C:\Users\SOLDER~1\AppData\Local\Temp\ccdovRCu.s:30622  .debug_str:0000000000028e35 .LASF1909
C:\Users\SOLDER~1\AppData\Local\Temp\ccdovRCu.s:26898  .debug_str:0000000000019bd4 .LASF1910
C:\Users\SOLDER~1\AppData\Local\Temp\ccdovRCu.s:20738  .debug_str:0000000000000c18 .LASF1911
C:\Users\SOLDER~1\AppData\Local\Temp\ccdovRCu.s:29864  .debug_str:0000000000025bf5 .LASF1912
C:\Users\SOLDER~1\AppData\Local\Temp\ccdovRCu.s:30642  .debug_str:0000000000028f63 .LASF1913
C:\Users\SOLDER~1\AppData\Local\Temp\ccdovRCu.s:26134  .debug_str:0000000000016a6d .LASF1914
C:\Users\SOLDER~1\AppData\Local\Temp\ccdovRCu.s:31398  .debug_str:000000000002c05f .LASF1915
C:\Users\SOLDER~1\AppData\Local\Temp\ccdovRCu.s:21980  .debug_str:0000000000005ae1 .LASF1916
C:\Users\SOLDER~1\AppData\Local\Temp\ccdovRCu.s:28504  .debug_str:0000000000020412 .LASF1917
C:\Users\SOLDER~1\AppData\Local\Temp\ccdovRCu.s:27072  .debug_str:000000000001a6db .LASF1918
C:\Users\SOLDER~1\AppData\Local\Temp\ccdovRCu.s:26386  .debug_str:0000000000017aa4 .LASF1919
C:\Users\SOLDER~1\AppData\Local\Temp\ccdovRCu.s:20822  .debug_str:000000000000114b .LASF1920
C:\Users\SOLDER~1\AppData\Local\Temp\ccdovRCu.s:26978  .debug_str:000000000001a0d0 .LASF1921
C:\Users\SOLDER~1\AppData\Local\Temp\ccdovRCu.s:21590  .debug_str:000000000000425b .LASF1922
C:\Users\SOLDER~1\AppData\Local\Temp\ccdovRCu.s:21556  .debug_str:0000000000004023 .LASF1923
C:\Users\SOLDER~1\AppData\Local\Temp\ccdovRCu.s:29304  .debug_str:000000000002377b .LASF1924
C:\Users\SOLDER~1\AppData\Local\Temp\ccdovRCu.s:29334  .debug_str:000000000002397a .LASF1925
C:\Users\SOLDER~1\AppData\Local\Temp\ccdovRCu.s:25980  .debug_str:00000000000160f4 .LASF1926
C:\Users\SOLDER~1\AppData\Local\Temp\ccdovRCu.s:24196  .debug_str:000000000000ec72 .LASF1927
C:\Users\SOLDER~1\AppData\Local\Temp\ccdovRCu.s:26924  .debug_str:0000000000019d88 .LASF1928
C:\Users\SOLDER~1\AppData\Local\Temp\ccdovRCu.s:30610  .debug_str:0000000000028d81 .LASF1929
C:\Users\SOLDER~1\AppData\Local\Temp\ccdovRCu.s:23510  .debug_str:000000000000bef6 .LASF1930
C:\Users\SOLDER~1\AppData\Local\Temp\ccdovRCu.s:22576  .debug_str:0000000000008218 .LASF1931
C:\Users\SOLDER~1\AppData\Local\Temp\ccdovRCu.s:30320  .debug_str:0000000000027a56 .LASF1932
C:\Users\SOLDER~1\AppData\Local\Temp\ccdovRCu.s:23962  .debug_str:000000000000dd3e .LASF1933
C:\Users\SOLDER~1\AppData\Local\Temp\ccdovRCu.s:29748  .debug_str:0000000000025456 .LASF1934
C:\Users\SOLDER~1\AppData\Local\Temp\ccdovRCu.s:27400  .debug_str:000000000001bbc3 .LASF1935
C:\Users\SOLDER~1\AppData\Local\Temp\ccdovRCu.s:23000  .debug_str:0000000000009d88 .LASF1936
C:\Users\SOLDER~1\AppData\Local\Temp\ccdovRCu.s:24598  .debug_str:0000000000010657 .LASF1937
C:\Users\SOLDER~1\AppData\Local\Temp\ccdovRCu.s:21840  .debug_str:00000000000051ec .LASF1938
C:\Users\SOLDER~1\AppData\Local\Temp\ccdovRCu.s:23806  .debug_str:000000000000d31f .LASF1939
C:\Users\SOLDER~1\AppData\Local\Temp\ccdovRCu.s:28694  .debug_str:0000000000021023 .LASF1940
C:\Users\SOLDER~1\AppData\Local\Temp\ccdovRCu.s:21094  .debug_str:00000000000022b4 .LASF1941
C:\Users\SOLDER~1\AppData\Local\Temp\ccdovRCu.s:26426  .debug_str:0000000000017d08 .LASF1942
C:\Users\SOLDER~1\AppData\Local\Temp\ccdovRCu.s:28550  .debug_str:000000000002072d .LASF1943
C:\Users\SOLDER~1\AppData\Local\Temp\ccdovRCu.s:30598  .debug_str:0000000000028cb4 .LASF1944
C:\Users\SOLDER~1\AppData\Local\Temp\ccdovRCu.s:26822  .debug_str:0000000000019704 .LASF1945
C:\Users\SOLDER~1\AppData\Local\Temp\ccdovRCu.s:22356  .debug_str:00000000000073f8 .LASF1946
C:\Users\SOLDER~1\AppData\Local\Temp\ccdovRCu.s:30762  .debug_str:000000000002971b .LASF1947
C:\Users\SOLDER~1\AppData\Local\Temp\ccdovRCu.s:29726  .debug_str:000000000002531a .LASF1948
C:\Users\SOLDER~1\AppData\Local\Temp\ccdovRCu.s:28088  .debug_str:000000000001e8ee .LASF1949
C:\Users\SOLDER~1\AppData\Local\Temp\ccdovRCu.s:26462  .debug_str:0000000000017f6d .LASF1950
C:\Users\SOLDER~1\AppData\Local\Temp\ccdovRCu.s:23996  .debug_str:000000000000df5c .LASF1951
C:\Users\SOLDER~1\AppData\Local\Temp\ccdovRCu.s:24998  .debug_str:0000000000012004 .LASF1952
C:\Users\SOLDER~1\AppData\Local\Temp\ccdovRCu.s:31168  .debug_str:000000000002b115 .LASF1953
C:\Users\SOLDER~1\AppData\Local\Temp\ccdovRCu.s:25920  .debug_str:0000000000015cec .LASF1954
C:\Users\SOLDER~1\AppData\Local\Temp\ccdovRCu.s:25878  .debug_str:0000000000015a52 .LASF1955
C:\Users\SOLDER~1\AppData\Local\Temp\ccdovRCu.s:26626  .debug_str:00000000000189e3 .LASF1956
C:\Users\SOLDER~1\AppData\Local\Temp\ccdovRCu.s:29494  .debug_str:00000000000243be .LASF1957
C:\Users\SOLDER~1\AppData\Local\Temp\ccdovRCu.s:30248  .debug_str:00000000000275b4 .LASF1958
C:\Users\SOLDER~1\AppData\Local\Temp\ccdovRCu.s:28402  .debug_str:000000000001fdbb .LASF1959
C:\Users\SOLDER~1\AppData\Local\Temp\ccdovRCu.s:31114  .debug_str:000000000002adc4 .LASF1960
C:\Users\SOLDER~1\AppData\Local\Temp\ccdovRCu.s:26874  .debug_str:0000000000019a49 .LASF1961
C:\Users\SOLDER~1\AppData\Local\Temp\ccdovRCu.s:29908  .debug_str:0000000000025ef5 .LASF1962
C:\Users\SOLDER~1\AppData\Local\Temp\ccdovRCu.s:30408  .debug_str:0000000000028029 .LASF1963
C:\Users\SOLDER~1\AppData\Local\Temp\ccdovRCu.s:26612  .debug_str:00000000000188fc .LASF1964
C:\Users\SOLDER~1\AppData\Local\Temp\ccdovRCu.s:26998  .debug_str:000000000001a22d .LASF1965
GAS LISTING C:\Users\SOLDER~1\AppData\Local\Temp\ccdovRCu.s 			page 87


C:\Users\SOLDER~1\AppData\Local\Temp\ccdovRCu.s:26028  .debug_str:0000000000016403 .LASF1966
C:\Users\SOLDER~1\AppData\Local\Temp\ccdovRCu.s:21244  .debug_str:0000000000002c40 .LASF1967
C:\Users\SOLDER~1\AppData\Local\Temp\ccdovRCu.s:30880  .debug_str:0000000000029e57 .LASF1968
C:\Users\SOLDER~1\AppData\Local\Temp\ccdovRCu.s:26926  .debug_str:0000000000019dac .LASF1969
C:\Users\SOLDER~1\AppData\Local\Temp\ccdovRCu.s:29678  .debug_str:0000000000024ff5 .LASF1970
C:\Users\SOLDER~1\AppData\Local\Temp\ccdovRCu.s:31674  .debug_str:000000000002d234 .LASF1971
C:\Users\SOLDER~1\AppData\Local\Temp\ccdovRCu.s:24940  .debug_str:0000000000011c53 .LASF1972
C:\Users\SOLDER~1\AppData\Local\Temp\ccdovRCu.s:28922  .debug_str:0000000000021ec8 .LASF1973
C:\Users\SOLDER~1\AppData\Local\Temp\ccdovRCu.s:30970  .debug_str:000000000002a47c .LASF1974
C:\Users\SOLDER~1\AppData\Local\Temp\ccdovRCu.s:24812  .debug_str:00000000000113fa .LASF1975
C:\Users\SOLDER~1\AppData\Local\Temp\ccdovRCu.s:22378  .debug_str:0000000000007556 .LASF1976
C:\Users\SOLDER~1\AppData\Local\Temp\ccdovRCu.s:23024  .debug_str:0000000000009f40 .LASF1977
C:\Users\SOLDER~1\AppData\Local\Temp\ccdovRCu.s:20734  .debug_str:0000000000000bd0 .LASF1978
C:\Users\SOLDER~1\AppData\Local\Temp\ccdovRCu.s:26922  .debug_str:0000000000019d63 .LASF1979
C:\Users\SOLDER~1\AppData\Local\Temp\ccdovRCu.s:26008  .debug_str:00000000000162ad .LASF1980
C:\Users\SOLDER~1\AppData\Local\Temp\ccdovRCu.s:21000  .debug_str:0000000000001ce0 .LASF1981
C:\Users\SOLDER~1\AppData\Local\Temp\ccdovRCu.s:22668  .debug_str:00000000000087c4 .LASF1982
C:\Users\SOLDER~1\AppData\Local\Temp\ccdovRCu.s:23240  .debug_str:000000000000adb7 .LASF1983
C:\Users\SOLDER~1\AppData\Local\Temp\ccdovRCu.s:29276  .debug_str:00000000000235ac .LASF1984
C:\Users\SOLDER~1\AppData\Local\Temp\ccdovRCu.s:24928  .debug_str:0000000000011b7f .LASF1985
C:\Users\SOLDER~1\AppData\Local\Temp\ccdovRCu.s:30188  .debug_str:00000000000271c7 .LASF1986
C:\Users\SOLDER~1\AppData\Local\Temp\ccdovRCu.s:30144  .debug_str:0000000000026ef5 .LASF1987
C:\Users\SOLDER~1\AppData\Local\Temp\ccdovRCu.s:30904  .debug_str:000000000002a021 .LASF1988
C:\Users\SOLDER~1\AppData\Local\Temp\ccdovRCu.s:22130  .debug_str:00000000000064d0 .LASF1989
C:\Users\SOLDER~1\AppData\Local\Temp\ccdovRCu.s:23564  .debug_str:000000000000c2ad .LASF1990
C:\Users\SOLDER~1\AppData\Local\Temp\ccdovRCu.s:21100  .debug_str:0000000000002316 .LASF1991
C:\Users\SOLDER~1\AppData\Local\Temp\ccdovRCu.s:23794  .debug_str:000000000000d25b .LASF1992
C:\Users\SOLDER~1\AppData\Local\Temp\ccdovRCu.s:28898  .debug_str:0000000000021d68 .LASF1993
C:\Users\SOLDER~1\AppData\Local\Temp\ccdovRCu.s:27608  .debug_str:000000000001c989 .LASF1994
C:\Users\SOLDER~1\AppData\Local\Temp\ccdovRCu.s:26702  .debug_str:0000000000018f10 .LASF1995
C:\Users\SOLDER~1\AppData\Local\Temp\ccdovRCu.s:22808  .debug_str:000000000000911a .LASF1996
C:\Users\SOLDER~1\AppData\Local\Temp\ccdovRCu.s:20766  .debug_str:0000000000000e17 .LASF1997
C:\Users\SOLDER~1\AppData\Local\Temp\ccdovRCu.s:22162  .debug_str:0000000000006718 .LASF1998
C:\Users\SOLDER~1\AppData\Local\Temp\ccdovRCu.s:29066  .debug_str:00000000000227c7 .LASF1999
C:\Users\SOLDER~1\AppData\Local\Temp\ccdovRCu.s:27118  .debug_str:000000000001aa03 .LASF2000
C:\Users\SOLDER~1\AppData\Local\Temp\ccdovRCu.s:28656  .debug_str:0000000000020dc3 .LASF2001
C:\Users\SOLDER~1\AppData\Local\Temp\ccdovRCu.s:25870  .debug_str:00000000000159c5 .LASF2002
C:\Users\SOLDER~1\AppData\Local\Temp\ccdovRCu.s:27810  .debug_str:000000000001d740 .LASF2003
C:\Users\SOLDER~1\AppData\Local\Temp\ccdovRCu.s:21192  .debug_str:0000000000002943 .LASF2004
C:\Users\SOLDER~1\AppData\Local\Temp\ccdovRCu.s:25182  .debug_str:0000000000012b95 .LASF2005
C:\Users\SOLDER~1\AppData\Local\Temp\ccdovRCu.s:20800  .debug_str:000000000000101b .LASF2006
C:\Users\SOLDER~1\AppData\Local\Temp\ccdovRCu.s:21046  .debug_str:0000000000001f9a .LASF2007
C:\Users\SOLDER~1\AppData\Local\Temp\ccdovRCu.s:30212  .debug_str:000000000002734d .LASF2008
C:\Users\SOLDER~1\AppData\Local\Temp\ccdovRCu.s:30910  .debug_str:000000000002a08c .LASF2009
C:\Users\SOLDER~1\AppData\Local\Temp\ccdovRCu.s:23712  .debug_str:000000000000cd01 .LASF2010
C:\Users\SOLDER~1\AppData\Local\Temp\ccdovRCu.s:23132  .debug_str:000000000000a6a7 .LASF2011
C:\Users\SOLDER~1\AppData\Local\Temp\ccdovRCu.s:22226  .debug_str:0000000000006b4d .LASF2012
C:\Users\SOLDER~1\AppData\Local\Temp\ccdovRCu.s:22494  .debug_str:0000000000007c82 .LASF2013
C:\Users\SOLDER~1\AppData\Local\Temp\ccdovRCu.s:30512  .debug_str:000000000002870c .LASF2014
C:\Users\SOLDER~1\AppData\Local\Temp\ccdovRCu.s:27536  .debug_str:000000000001c4af .LASF2015
C:\Users\SOLDER~1\AppData\Local\Temp\ccdovRCu.s:21988  .debug_str:0000000000005b73 .LASF2016
C:\Users\SOLDER~1\AppData\Local\Temp\ccdovRCu.s:28154  .debug_str:000000000001ed8b .LASF2017
C:\Users\SOLDER~1\AppData\Local\Temp\ccdovRCu.s:22892  .debug_str:000000000000968f .LASF2018
C:\Users\SOLDER~1\AppData\Local\Temp\ccdovRCu.s:22760  .debug_str:0000000000008dc2 .LASF2019
C:\Users\SOLDER~1\AppData\Local\Temp\ccdovRCu.s:23482  .debug_str:000000000000bd5b .LASF2020
C:\Users\SOLDER~1\AppData\Local\Temp\ccdovRCu.s:30572  .debug_str:0000000000028aff .LASF2021
C:\Users\SOLDER~1\AppData\Local\Temp\ccdovRCu.s:27162  .debug_str:000000000001acbb .LASF2022
GAS LISTING C:\Users\SOLDER~1\AppData\Local\Temp\ccdovRCu.s 			page 88


C:\Users\SOLDER~1\AppData\Local\Temp\ccdovRCu.s:25416  .debug_str:0000000000013bb7 .LASF2023
C:\Users\SOLDER~1\AppData\Local\Temp\ccdovRCu.s:31540  .debug_str:000000000002c9b9 .LASF2024
C:\Users\SOLDER~1\AppData\Local\Temp\ccdovRCu.s:31942  .debug_str:000000000002e36c .LASF2025
C:\Users\SOLDER~1\AppData\Local\Temp\ccdovRCu.s:24324  .debug_str:000000000000f45e .LASF2026
C:\Users\SOLDER~1\AppData\Local\Temp\ccdovRCu.s:22906  .debug_str:0000000000009774 .LASF2027
C:\Users\SOLDER~1\AppData\Local\Temp\ccdovRCu.s:30658  .debug_str:0000000000029068 .LASF2028
C:\Users\SOLDER~1\AppData\Local\Temp\ccdovRCu.s:28572  .debug_str:0000000000020883 .LASF2029
C:\Users\SOLDER~1\AppData\Local\Temp\ccdovRCu.s:29986  .debug_str:0000000000026461 .LASF2030
C:\Users\SOLDER~1\AppData\Local\Temp\ccdovRCu.s:25346  .debug_str:00000000000136a7 .LASF2031
C:\Users\SOLDER~1\AppData\Local\Temp\ccdovRCu.s:23248  .debug_str:000000000000ae64 .LASF2032
C:\Users\SOLDER~1\AppData\Local\Temp\ccdovRCu.s:24914  .debug_str:0000000000011a9e .LASF2033
C:\Users\SOLDER~1\AppData\Local\Temp\ccdovRCu.s:22092  .debug_str:000000000000625d .LASF2034
C:\Users\SOLDER~1\AppData\Local\Temp\ccdovRCu.s:24050  .debug_str:000000000000e350 .LASF2035
C:\Users\SOLDER~1\AppData\Local\Temp\ccdovRCu.s:31582  .debug_str:000000000002cc35 .LASF2036
C:\Users\SOLDER~1\AppData\Local\Temp\ccdovRCu.s:31036  .debug_str:000000000002a8e7 .LASF2037
C:\Users\SOLDER~1\AppData\Local\Temp\ccdovRCu.s:22870  .debug_str:0000000000009536 .LASF2038
C:\Users\SOLDER~1\AppData\Local\Temp\ccdovRCu.s:28880  .debug_str:0000000000021c48 .LASF2039
C:\Users\SOLDER~1\AppData\Local\Temp\ccdovRCu.s:26414  .debug_str:0000000000017c46 .LASF2040
C:\Users\SOLDER~1\AppData\Local\Temp\ccdovRCu.s:27142  .debug_str:000000000001ab6f .LASF2041
C:\Users\SOLDER~1\AppData\Local\Temp\ccdovRCu.s:29004  .debug_str:00000000000223ea .LASF2042
C:\Users\SOLDER~1\AppData\Local\Temp\ccdovRCu.s:30994  .debug_str:000000000002a629 .LASF2043
C:\Users\SOLDER~1\AppData\Local\Temp\ccdovRCu.s:30062  .debug_str:0000000000026979 .LASF2044
C:\Users\SOLDER~1\AppData\Local\Temp\ccdovRCu.s:25080  .debug_str:00000000000124e9 .LASF2045
C:\Users\SOLDER~1\AppData\Local\Temp\ccdovRCu.s:26778  .debug_str:0000000000019401 .LASF2046
C:\Users\SOLDER~1\AppData\Local\Temp\ccdovRCu.s:22838  .debug_str:0000000000009316 .LASF2047
C:\Users\SOLDER~1\AppData\Local\Temp\ccdovRCu.s:28886  .debug_str:0000000000021cb4 .LASF2048
C:\Users\SOLDER~1\AppData\Local\Temp\ccdovRCu.s:23450  .debug_str:000000000000bb3f .LASF2049
C:\Users\SOLDER~1\AppData\Local\Temp\ccdovRCu.s:29782  .debug_str:0000000000025697 .LASF2050
C:\Users\SOLDER~1\AppData\Local\Temp\ccdovRCu.s:29744  .debug_str:0000000000025417 .LASF2051
C:\Users\SOLDER~1\AppData\Local\Temp\ccdovRCu.s:30392  .debug_str:0000000000027ef6 .LASF2052
C:\Users\SOLDER~1\AppData\Local\Temp\ccdovRCu.s:25886  .debug_str:0000000000015acf .LASF2053
C:\Users\SOLDER~1\AppData\Local\Temp\ccdovRCu.s:31670  .debug_str:000000000002d1ed .LASF2054
C:\Users\SOLDER~1\AppData\Local\Temp\ccdovRCu.s:20720  .debug_str:0000000000000aca .LASF2055
C:\Users\SOLDER~1\AppData\Local\Temp\ccdovRCu.s:23398  .debug_str:000000000000b7cb .LASF2056
C:\Users\SOLDER~1\AppData\Local\Temp\ccdovRCu.s:29766  .debug_str:000000000002559c .LASF2057
C:\Users\SOLDER~1\AppData\Local\Temp\ccdovRCu.s:30840  .debug_str:0000000000029bd9 .LASF2058
C:\Users\SOLDER~1\AppData\Local\Temp\ccdovRCu.s:21740  .debug_str:0000000000004bce .LASF2059
C:\Users\SOLDER~1\AppData\Local\Temp\ccdovRCu.s:29482  .debug_str:00000000000242e4 .LASF2060
C:\Users\SOLDER~1\AppData\Local\Temp\ccdovRCu.s:28140  .debug_str:000000000001eca0 .LASF2061
C:\Users\SOLDER~1\AppData\Local\Temp\ccdovRCu.s:28832  .debug_str:0000000000021933 .LASF2062
C:\Users\SOLDER~1\AppData\Local\Temp\ccdovRCu.s:24170  .debug_str:000000000000eb06 .LASF2063
C:\Users\SOLDER~1\AppData\Local\Temp\ccdovRCu.s:31500  .debug_str:000000000002c744 .LASF2064
C:\Users\SOLDER~1\AppData\Local\Temp\ccdovRCu.s:23750  .debug_str:000000000000cf7c .LASF2065
C:\Users\SOLDER~1\AppData\Local\Temp\ccdovRCu.s:20940  .debug_str:00000000000018a9 .LASF2066
C:\Users\SOLDER~1\AppData\Local\Temp\ccdovRCu.s:22902  .debug_str:0000000000009729 .LASF2067
C:\Users\SOLDER~1\AppData\Local\Temp\ccdovRCu.s:22210  .debug_str:0000000000006a53 .LASF2068
C:\Users\SOLDER~1\AppData\Local\Temp\ccdovRCu.s:31898  .debug_str:000000000002e0be .LASF2069
C:\Users\SOLDER~1\AppData\Local\Temp\ccdovRCu.s:22296  .debug_str:0000000000007012 .LASF2070
C:\Users\SOLDER~1\AppData\Local\Temp\ccdovRCu.s:27732  .debug_str:000000000001d1dd .LASF2071
C:\Users\SOLDER~1\AppData\Local\Temp\ccdovRCu.s:25208  .debug_str:0000000000012d8e .LASF2072
C:\Users\SOLDER~1\AppData\Local\Temp\ccdovRCu.s:30052  .debug_str:00000000000268cb .LASF2073
C:\Users\SOLDER~1\AppData\Local\Temp\ccdovRCu.s:21436  .debug_str:0000000000003891 .LASF2074
C:\Users\SOLDER~1\AppData\Local\Temp\ccdovRCu.s:29820  .debug_str:00000000000258eb .LASF2075
C:\Users\SOLDER~1\AppData\Local\Temp\ccdovRCu.s:28902  .debug_str:0000000000021db2 .LASF2076
C:\Users\SOLDER~1\AppData\Local\Temp\ccdovRCu.s:23926  .debug_str:000000000000dad7 .LASF2077
C:\Users\SOLDER~1\AppData\Local\Temp\ccdovRCu.s:25608  .debug_str:00000000000148a4 .LASF2078
C:\Users\SOLDER~1\AppData\Local\Temp\ccdovRCu.s:27152  .debug_str:000000000001ac24 .LASF2079
GAS LISTING C:\Users\SOLDER~1\AppData\Local\Temp\ccdovRCu.s 			page 89


C:\Users\SOLDER~1\AppData\Local\Temp\ccdovRCu.s:21582  .debug_str:00000000000041db .LASF2080
C:\Users\SOLDER~1\AppData\Local\Temp\ccdovRCu.s:27746  .debug_str:000000000001d2d1 .LASF2081
C:\Users\SOLDER~1\AppData\Local\Temp\ccdovRCu.s:26608  .debug_str:00000000000188c5 .LASF2082
C:\Users\SOLDER~1\AppData\Local\Temp\ccdovRCu.s:22372  .debug_str:00000000000074f1 .LASF2083
C:\Users\SOLDER~1\AppData\Local\Temp\ccdovRCu.s:23064  .debug_str:000000000000a203 .LASF2084
C:\Users\SOLDER~1\AppData\Local\Temp\ccdovRCu.s:25822  .debug_str:00000000000156a5 .LASF2085
C:\Users\SOLDER~1\AppData\Local\Temp\ccdovRCu.s:25172  .debug_str:0000000000012afe .LASF2086
C:\Users\SOLDER~1\AppData\Local\Temp\ccdovRCu.s:27936  .debug_str:000000000001deed .LASF2087
C:\Users\SOLDER~1\AppData\Local\Temp\ccdovRCu.s:27692  .debug_str:000000000001cf6d .LASF2088
C:\Users\SOLDER~1\AppData\Local\Temp\ccdovRCu.s:26054  .debug_str:0000000000016595 .LASF2089
C:\Users\SOLDER~1\AppData\Local\Temp\ccdovRCu.s:30554  .debug_str:000000000002899f .LASF2090
C:\Users\SOLDER~1\AppData\Local\Temp\ccdovRCu.s:27550  .debug_str:000000000001c5c1 .LASF2091
C:\Users\SOLDER~1\AppData\Local\Temp\ccdovRCu.s:25752  .debug_str:0000000000015208 .LASF2092
C:\Users\SOLDER~1\AppData\Local\Temp\ccdovRCu.s:23582  .debug_str:000000000000c3e6 .LASF2093
C:\Users\SOLDER~1\AppData\Local\Temp\ccdovRCu.s:25088  .debug_str:00000000000125a9 .LASF2094
C:\Users\SOLDER~1\AppData\Local\Temp\ccdovRCu.s:32042  .debug_str:000000000002e97b .LASF2095
C:\Users\SOLDER~1\AppData\Local\Temp\ccdovRCu.s:29922  .debug_str:0000000000025fe3 .LASF2096
C:\Users\SOLDER~1\AppData\Local\Temp\ccdovRCu.s:26772  .debug_str:0000000000019395 .LASF2097
C:\Users\SOLDER~1\AppData\Local\Temp\ccdovRCu.s:28768  .debug_str:000000000002150d .LASF2098
C:\Users\SOLDER~1\AppData\Local\Temp\ccdovRCu.s:30764  .debug_str:0000000000029740 .LASF2099
C:\Users\SOLDER~1\AppData\Local\Temp\ccdovRCu.s:25216  .debug_str:0000000000012e07 .LASF2100
C:\Users\SOLDER~1\AppData\Local\Temp\ccdovRCu.s:28118  .debug_str:000000000001eb06 .LASF2101
C:\Users\SOLDER~1\AppData\Local\Temp\ccdovRCu.s:30032  .debug_str:000000000002679d .LASF2102
C:\Users\SOLDER~1\AppData\Local\Temp\ccdovRCu.s:23974  .debug_str:000000000000ddf1 .LASF2103
C:\Users\SOLDER~1\AppData\Local\Temp\ccdovRCu.s:21458  .debug_str:00000000000039f8 .LASF2104
C:\Users\SOLDER~1\AppData\Local\Temp\ccdovRCu.s:22208  .debug_str:0000000000006a2d .LASF2105
C:\Users\SOLDER~1\AppData\Local\Temp\ccdovRCu.s:29260  .debug_str:0000000000023481 .LASF2106
C:\Users\SOLDER~1\AppData\Local\Temp\ccdovRCu.s:26104  .debug_str:0000000000016875 .LASF2107
C:\Users\SOLDER~1\AppData\Local\Temp\ccdovRCu.s:25156  .debug_str:00000000000129cd .LASF2108
C:\Users\SOLDER~1\AppData\Local\Temp\ccdovRCu.s:31792  .debug_str:000000000002d9f5 .LASF2109
C:\Users\SOLDER~1\AppData\Local\Temp\ccdovRCu.s:30606  .debug_str:0000000000028d40 .LASF2110
C:\Users\SOLDER~1\AppData\Local\Temp\ccdovRCu.s:31450  .debug_str:000000000002c435 .LASF2111
C:\Users\SOLDER~1\AppData\Local\Temp\ccdovRCu.s:25810  .debug_str:00000000000155d8 .LASF2112
C:\Users\SOLDER~1\AppData\Local\Temp\ccdovRCu.s:31978  .debug_str:000000000002e594 .LASF2113
C:\Users\SOLDER~1\AppData\Local\Temp\ccdovRCu.s:26742  .debug_str:00000000000191bc .LASF2114
C:\Users\SOLDER~1\AppData\Local\Temp\ccdovRCu.s:26700  .debug_str:0000000000018eeb .LASF2115
C:\Users\SOLDER~1\AppData\Local\Temp\ccdovRCu.s:27396  .debug_str:000000000001bb7c .LASF2116
C:\Users\SOLDER~1\AppData\Local\Temp\ccdovRCu.s:22856  .debug_str:000000000000944b .LASF2117
C:\Users\SOLDER~1\AppData\Local\Temp\ccdovRCu.s:31072  .debug_str:000000000002aafd .LASF2118
C:\Users\SOLDER~1\AppData\Local\Temp\ccdovRCu.s:29184  .debug_str:0000000000022fa0 .LASF2119
C:\Users\SOLDER~1\AppData\Local\Temp\ccdovRCu.s:31926  .debug_str:000000000002e277 .LASF2120
C:\Users\SOLDER~1\AppData\Local\Temp\ccdovRCu.s:22270  .debug_str:0000000000006e2d .LASF2121
C:\Users\SOLDER~1\AppData\Local\Temp\ccdovRCu.s:26814  .debug_str:000000000001968a .LASF2122
C:\Users\SOLDER~1\AppData\Local\Temp\ccdovRCu.s:25848  .debug_str:0000000000015858 .LASF2123
C:\Users\SOLDER~1\AppData\Local\Temp\ccdovRCu.s:24526  .debug_str:00000000000101bf .LASF2124
C:\Users\SOLDER~1\AppData\Local\Temp\ccdovRCu.s:31446  .debug_str:000000000002c3d7 .LASF2125
C:\Users\SOLDER~1\AppData\Local\Temp\ccdovRCu.s:21342  .debug_str:000000000000329d .LASF2126
C:\Users\SOLDER~1\AppData\Local\Temp\ccdovRCu.s:28280  .debug_str:000000000001f5b7 .LASF2127
C:\Users\SOLDER~1\AppData\Local\Temp\ccdovRCu.s:26218  .debug_str:0000000000016f87 .LASF2128
C:\Users\SOLDER~1\AppData\Local\Temp\ccdovRCu.s:28804  .debug_str:0000000000021769 .LASF2129
C:\Users\SOLDER~1\AppData\Local\Temp\ccdovRCu.s:25024  .debug_str:000000000001217a .LASF2130
C:\Users\SOLDER~1\AppData\Local\Temp\ccdovRCu.s:23300  .debug_str:000000000000b19b .LASF2131
C:\Users\SOLDER~1\AppData\Local\Temp\ccdovRCu.s:31992  .debug_str:000000000002e65d .LASF2132
C:\Users\SOLDER~1\AppData\Local\Temp\ccdovRCu.s:24362  .debug_str:000000000000f6d6 .LASF2133
C:\Users\SOLDER~1\AppData\Local\Temp\ccdovRCu.s:26338  .debug_str:000000000001778e .LASF2134
C:\Users\SOLDER~1\AppData\Local\Temp\ccdovRCu.s:31846  .debug_str:000000000002dd60 .LASF2135
C:\Users\SOLDER~1\AppData\Local\Temp\ccdovRCu.s:25666  .debug_str:0000000000014ca3 .LASF2136
GAS LISTING C:\Users\SOLDER~1\AppData\Local\Temp\ccdovRCu.s 			page 90


C:\Users\SOLDER~1\AppData\Local\Temp\ccdovRCu.s:30044  .debug_str:000000000002683d .LASF2137
C:\Users\SOLDER~1\AppData\Local\Temp\ccdovRCu.s:25534  .debug_str:00000000000143ce .LASF2138
C:\Users\SOLDER~1\AppData\Local\Temp\ccdovRCu.s:22324  .debug_str:00000000000071e3 .LASF2139
C:\Users\SOLDER~1\AppData\Local\Temp\ccdovRCu.s:21406  .debug_str:00000000000036a0 .LASF2140
C:\Users\SOLDER~1\AppData\Local\Temp\ccdovRCu.s:28222  .debug_str:000000000001f1dd .LASF2141
C:\Users\SOLDER~1\AppData\Local\Temp\ccdovRCu.s:29564  .debug_str:000000000002487d .LASF2142
C:\Users\SOLDER~1\AppData\Local\Temp\ccdovRCu.s:24024  .debug_str:000000000000e15f .LASF2143
C:\Users\SOLDER~1\AppData\Local\Temp\ccdovRCu.s:30086  .debug_str:0000000000026b2f .LASF2144
C:\Users\SOLDER~1\AppData\Local\Temp\ccdovRCu.s:24668  .debug_str:0000000000010afa .LASF2145
C:\Users\SOLDER~1\AppData\Local\Temp\ccdovRCu.s:31002  .debug_str:000000000002a6ab .LASF2146
C:\Users\SOLDER~1\AppData\Local\Temp\ccdovRCu.s:30966  .debug_str:000000000002a43d .LASF2147
C:\Users\SOLDER~1\AppData\Local\Temp\ccdovRCu.s:31692  .debug_str:000000000002d39f .LASF2148
C:\Users\SOLDER~1\AppData\Local\Temp\ccdovRCu.s:28130  .debug_str:000000000001ebed .LASF2149
C:\Users\SOLDER~1\AppData\Local\Temp\ccdovRCu.s:23646  .debug_str:000000000000c863 .LASF2150
C:\Users\SOLDER~1\AppData\Local\Temp\ccdovRCu.s:21888  .debug_str:00000000000054c6 .LASF2151
C:\Users\SOLDER~1\AppData\Local\Temp\ccdovRCu.s:25762  .debug_str:0000000000015297 .LASF2152
C:\Users\SOLDER~1\AppData\Local\Temp\ccdovRCu.s:30104  .debug_str:0000000000026c62 .LASF2153
C:\Users\SOLDER~1\AppData\Local\Temp\ccdovRCu.s:23014  .debug_str:0000000000009e88 .LASF2154
C:\Users\SOLDER~1\AppData\Local\Temp\ccdovRCu.s:22968  .debug_str:0000000000009b86 .LASF2155
C:\Users\SOLDER~1\AppData\Local\Temp\ccdovRCu.s:29722  .debug_str:00000000000252cf .LASF2156
C:\Users\SOLDER~1\AppData\Local\Temp\ccdovRCu.s:27676  .debug_str:000000000001ce3d .LASF2157
C:\Users\SOLDER~1\AppData\Local\Temp\ccdovRCu.s:29162  .debug_str:0000000000022e25 .LASF2158
C:\Users\SOLDER~1\AppData\Local\Temp\ccdovRCu.s:24524  .debug_str:0000000000010199 .LASF2159
C:\Users\SOLDER~1\AppData\Local\Temp\ccdovRCu.s:22442  .debug_str:0000000000007902 .LASF2160
C:\Users\SOLDER~1\AppData\Local\Temp\ccdovRCu.s:31838  .debug_str:000000000002dce5 .LASF2161
C:\Users\SOLDER~1\AppData\Local\Temp\ccdovRCu.s:21272  .debug_str:0000000000002e24 .LASF2162
C:\Users\SOLDER~1\AppData\Local\Temp\ccdovRCu.s:23232  .debug_str:000000000000ad1a .LASF2163
C:\Users\SOLDER~1\AppData\Local\Temp\ccdovRCu.s:31224  .debug_str:000000000002b532 .LASF2164
C:\Users\SOLDER~1\AppData\Local\Temp\ccdovRCu.s:20626  .debug_str:00000000000003ee .LASF2165
C:\Users\SOLDER~1\AppData\Local\Temp\ccdovRCu.s:22542  .debug_str:0000000000007fc5 .LASF2166
C:\Users\SOLDER~1\AppData\Local\Temp\ccdovRCu.s:27992  .debug_str:000000000001e2b4 .LASF2167
C:\Users\SOLDER~1\AppData\Local\Temp\ccdovRCu.s:25554  .debug_str:0000000000014529 .LASF2168
C:\Users\SOLDER~1\AppData\Local\Temp\ccdovRCu.s:26352  .debug_str:0000000000017885 .LASF2169
C:\Users\SOLDER~1\AppData\Local\Temp\ccdovRCu.s:21760  .debug_str:0000000000004d19 .LASF2170
C:\Users\SOLDER~1\AppData\Local\Temp\ccdovRCu.s:30152  .debug_str:0000000000026f7a .LASF2171
C:\Users\SOLDER~1\AppData\Local\Temp\ccdovRCu.s:29228  .debug_str:000000000002325f .LASF2172
C:\Users\SOLDER~1\AppData\Local\Temp\ccdovRCu.s:24164  .debug_str:000000000000eaa7 .LASF2173
C:\Users\SOLDER~1\AppData\Local\Temp\ccdovRCu.s:25842  .debug_str:00000000000157e3 .LASF2174
C:\Users\SOLDER~1\AppData\Local\Temp\ccdovRCu.s:27238  .debug_str:000000000001b1ed .LASF2175
C:\Users\SOLDER~1\AppData\Local\Temp\ccdovRCu.s:26498  .debug_str:00000000000181d9 .LASF2176
C:\Users\SOLDER~1\AppData\Local\Temp\ccdovRCu.s:25840  .debug_str:00000000000157cb .LASF2177
C:\Users\SOLDER~1\AppData\Local\Temp\ccdovRCu.s:27524  .debug_str:000000000001c3fb .LASF2178
C:\Users\SOLDER~1\AppData\Local\Temp\ccdovRCu.s:24510  .debug_str:00000000000100e3 .LASF2179
C:\Users\SOLDER~1\AppData\Local\Temp\ccdovRCu.s:26618  .debug_str:0000000000018958 .LASF2180
C:\Users\SOLDER~1\AppData\Local\Temp\ccdovRCu.s:22924  .debug_str:00000000000098a7 .LASF2181
C:\Users\SOLDER~1\AppData\Local\Temp\ccdovRCu.s:24760  .debug_str:00000000000110b7 .LASF2182
C:\Users\SOLDER~1\AppData\Local\Temp\ccdovRCu.s:21146  .debug_str:0000000000002614 .LASF2183
C:\Users\SOLDER~1\AppData\Local\Temp\ccdovRCu.s:30020  .debug_str:00000000000266d4 .LASF2184
C:\Users\SOLDER~1\AppData\Local\Temp\ccdovRCu.s:25456  .debug_str:0000000000013e78 .LASF2185
C:\Users\SOLDER~1\AppData\Local\Temp\ccdovRCu.s:23570  .debug_str:000000000000c306 .LASF2186
C:\Users\SOLDER~1\AppData\Local\Temp\ccdovRCu.s:22868  .debug_str:0000000000009523 .LASF2187
C:\Users\SOLDER~1\AppData\Local\Temp\ccdovRCu.s:28716  .debug_str:0000000000021195 .LASF2188
C:\Users\SOLDER~1\AppData\Local\Temp\ccdovRCu.s:28490  .debug_str:000000000002033b .LASF2189
C:\Users\SOLDER~1\AppData\Local\Temp\ccdovRCu.s:25390  .debug_str:00000000000139b2 .LASF2190
C:\Users\SOLDER~1\AppData\Local\Temp\ccdovRCu.s:24178  .debug_str:000000000000eb7f .LASF2191
C:\Users\SOLDER~1\AppData\Local\Temp\ccdovRCu.s:25338  .debug_str:000000000001360d .LASF2192
C:\Users\SOLDER~1\AppData\Local\Temp\ccdovRCu.s:29784  .debug_str:00000000000256bc .LASF2193
GAS LISTING C:\Users\SOLDER~1\AppData\Local\Temp\ccdovRCu.s 			page 91


C:\Users\SOLDER~1\AppData\Local\Temp\ccdovRCu.s:31104  .debug_str:000000000002ad1b .LASF2194
C:\Users\SOLDER~1\AppData\Local\Temp\ccdovRCu.s:28426  .debug_str:000000000001ff40 .LASF2195
C:\Users\SOLDER~1\AppData\Local\Temp\ccdovRCu.s:27264  .debug_str:000000000001b36c .LASF2196
C:\Users\SOLDER~1\AppData\Local\Temp\ccdovRCu.s:24102  .debug_str:000000000000e68e .LASF2197
C:\Users\SOLDER~1\AppData\Local\Temp\ccdovRCu.s:27618  .debug_str:000000000001ca4a .LASF2198
C:\Users\SOLDER~1\AppData\Local\Temp\ccdovRCu.s:29736  .debug_str:00000000000253b2 .LASF2199
C:\Users\SOLDER~1\AppData\Local\Temp\ccdovRCu.s:23642  .debug_str:000000000000c822 .LASF2200
C:\Users\SOLDER~1\AppData\Local\Temp\ccdovRCu.s:21384  .debug_str:0000000000003566 .LASF2201
C:\Users\SOLDER~1\AppData\Local\Temp\ccdovRCu.s:21774  .debug_str:0000000000004deb .LASF2202
C:\Users\SOLDER~1\AppData\Local\Temp\ccdovRCu.s:30696  .debug_str:00000000000292bd .LASF2203
C:\Users\SOLDER~1\AppData\Local\Temp\ccdovRCu.s:31790  .debug_str:000000000002d9d4 .LASF2204
C:\Users\SOLDER~1\AppData\Local\Temp\ccdovRCu.s:25946  .debug_str:0000000000015e99 .LASF2205
C:\Users\SOLDER~1\AppData\Local\Temp\ccdovRCu.s:21128  .debug_str:00000000000024f8 .LASF2206
C:\Users\SOLDER~1\AppData\Local\Temp\ccdovRCu.s:21090  .debug_str:000000000000227a .LASF2207
C:\Users\SOLDER~1\AppData\Local\Temp\ccdovRCu.s:28110  .debug_str:000000000001ea81 .LASF2208
C:\Users\SOLDER~1\AppData\Local\Temp\ccdovRCu.s:27218  .debug_str:000000000001b0cb .LASF2209
C:\Users\SOLDER~1\AppData\Local\Temp\ccdovRCu.s:24664  .debug_str:0000000000010ab5 .LASF2210
C:\Users\SOLDER~1\AppData\Local\Temp\ccdovRCu.s:24912  .debug_str:0000000000011a8a .LASF2211
C:\Users\SOLDER~1\AppData\Local\Temp\ccdovRCu.s:26266  .debug_str:00000000000172c9 .LASF2212
C:\Users\SOLDER~1\AppData\Local\Temp\ccdovRCu.s:31430  .debug_str:000000000002c2b8 .LASF2213
C:\Users\SOLDER~1\AppData\Local\Temp\ccdovRCu.s:28854  .debug_str:0000000000021a98 .LASF2214
C:\Users\SOLDER~1\AppData\Local\Temp\ccdovRCu.s:26942  .debug_str:0000000000019eb8 .LASF2215
C:\Users\SOLDER~1\AppData\Local\Temp\ccdovRCu.s:26142  .debug_str:0000000000016af0 .LASF2216
C:\Users\SOLDER~1\AppData\Local\Temp\ccdovRCu.s:21346  .debug_str:00000000000032e9 .LASF2217
C:\Users\SOLDER~1\AppData\Local\Temp\ccdovRCu.s:26072  .debug_str:00000000000166ba .LASF2218
C:\Users\SOLDER~1\AppData\Local\Temp\ccdovRCu.s:30654  .debug_str:000000000002903e .LASF2219
C:\Users\SOLDER~1\AppData\Local\Temp\ccdovRCu.s:23204  .debug_str:000000000000ab6f .LASF2220
C:\Users\SOLDER~1\AppData\Local\Temp\ccdovRCu.s:28400  .debug_str:000000000001fda8 .LASF2221
C:\Users\SOLDER~1\AppData\Local\Temp\ccdovRCu.s:30288  .debug_str:0000000000027848 .LASF2222
C:\Users\SOLDER~1\AppData\Local\Temp\ccdovRCu.s:22164  .debug_str:000000000000673d .LASF2223
C:\Users\SOLDER~1\AppData\Local\Temp\ccdovRCu.s:22896  .debug_str:00000000000096cb .LASF2224
C:\Users\SOLDER~1\AppData\Local\Temp\ccdovRCu.s:25072  .debug_str:0000000000012472 .LASF2225
C:\Users\SOLDER~1\AppData\Local\Temp\ccdovRCu.s:25500  .debug_str:0000000000014147 .LASF2226
C:\Users\SOLDER~1\AppData\Local\Temp\ccdovRCu.s:27642  .debug_str:000000000001cbf2 .LASF2227
C:\Users\SOLDER~1\AppData\Local\Temp\ccdovRCu.s:31580  .debug_str:000000000002cc14 .LASF2228
C:\Users\SOLDER~1\AppData\Local\Temp\ccdovRCu.s:22628  .debug_str:0000000000008550 .LASF2229
C:\Users\SOLDER~1\AppData\Local\Temp\ccdovRCu.s:28730  .debug_str:0000000000021277 .LASF2230
C:\Users\SOLDER~1\AppData\Local\Temp\ccdovRCu.s:29618  .debug_str:0000000000024c02 .LASF2231
C:\Users\SOLDER~1\AppData\Local\Temp\ccdovRCu.s:25546  .debug_str:000000000001448e .LASF2232
C:\Users\SOLDER~1\AppData\Local\Temp\ccdovRCu.s:22230  .debug_str:0000000000006b8a .LASF2233
C:\Users\SOLDER~1\AppData\Local\Temp\ccdovRCu.s:24978  .debug_str:0000000000011eaa .LASF2234
C:\Users\SOLDER~1\AppData\Local\Temp\ccdovRCu.s:21854  .debug_str:00000000000052c9 .LASF2235
C:\Users\SOLDER~1\AppData\Local\Temp\ccdovRCu.s:31636  .debug_str:000000000002cfa5 .LASF2236
C:\Users\SOLDER~1\AppData\Local\Temp\ccdovRCu.s:28452  .debug_str:00000000000200d5 .LASF2237
C:\Users\SOLDER~1\AppData\Local\Temp\ccdovRCu.s:31054  .debug_str:000000000002a9fa .LASF2238
C:\Users\SOLDER~1\AppData\Local\Temp\ccdovRCu.s:23860  .debug_str:000000000000d6b5 .LASF2239
C:\Users\SOLDER~1\AppData\Local\Temp\ccdovRCu.s:25304  .debug_str:00000000000133d2 .LASF2240
C:\Users\SOLDER~1\AppData\Local\Temp\ccdovRCu.s:21050  .debug_str:0000000000001fd1 .LASF2241
C:\Users\SOLDER~1\AppData\Local\Temp\ccdovRCu.s:30126  .debug_str:0000000000026dde .LASF2242
C:\Users\SOLDER~1\AppData\Local\Temp\ccdovRCu.s:30068  .debug_str:00000000000269f4 .LASF2243
C:\Users\SOLDER~1\AppData\Local\Temp\ccdovRCu.s:24448  .debug_str:000000000000fce3 .LASF2244
C:\Users\SOLDER~1\AppData\Local\Temp\ccdovRCu.s:20652  .debug_str:000000000000058e .LASF2245
C:\Users\SOLDER~1\AppData\Local\Temp\ccdovRCu.s:20604  .debug_str:000000000000025d .LASF2246
C:\Users\SOLDER~1\AppData\Local\Temp\ccdovRCu.s:26396  .debug_str:0000000000017b37 .LASF2247
C:\Users\SOLDER~1\AppData\Local\Temp\ccdovRCu.s:22514  .debug_str:0000000000007de3 .LASF2248
C:\Users\SOLDER~1\AppData\Local\Temp\ccdovRCu.s:25572  .debug_str:0000000000014664 .LASF2249
C:\Users\SOLDER~1\AppData\Local\Temp\ccdovRCu.s:23796  .debug_str:000000000000d27f .LASF2250
GAS LISTING C:\Users\SOLDER~1\AppData\Local\Temp\ccdovRCu.s 			page 92


C:\Users\SOLDER~1\AppData\Local\Temp\ccdovRCu.s:23272  .debug_str:000000000000aff6 .LASF2251
C:\Users\SOLDER~1\AppData\Local\Temp\ccdovRCu.s:31764  .debug_str:000000000002d827 .LASF2252
C:\Users\SOLDER~1\AppData\Local\Temp\ccdovRCu.s:24964  .debug_str:0000000000011ddd .LASF2253
C:\Users\SOLDER~1\AppData\Local\Temp\ccdovRCu.s:26746  .debug_str:0000000000019203 .LASF2254
C:\Users\SOLDER~1\AppData\Local\Temp\ccdovRCu.s:26270  .debug_str:000000000001730c .LASF2255
C:\Users\SOLDER~1\AppData\Local\Temp\ccdovRCu.s:28742  .debug_str:0000000000021360 .LASF2256
C:\Users\SOLDER~1\AppData\Local\Temp\ccdovRCu.s:30830  .debug_str:0000000000029b6e .LASF2257
C:\Users\SOLDER~1\AppData\Local\Temp\ccdovRCu.s:23702  .debug_str:000000000000cc49 .LASF2258
C:\Users\SOLDER~1\AppData\Local\Temp\ccdovRCu.s:21228  .debug_str:0000000000002b69 .LASF2259
C:\Users\SOLDER~1\AppData\Local\Temp\ccdovRCu.s:29318  .debug_str:0000000000023859 .LASF2260
C:\Users\SOLDER~1\AppData\Local\Temp\ccdovRCu.s:26858  .debug_str:0000000000019951 .LASF2261
C:\Users\SOLDER~1\AppData\Local\Temp\ccdovRCu.s:22592  .debug_str:0000000000008319 .LASF2262
C:\Users\SOLDER~1\AppData\Local\Temp\ccdovRCu.s:21816  .debug_str:0000000000005061 .LASF2263
C:\Users\SOLDER~1\AppData\Local\Temp\ccdovRCu.s:28404  .debug_str:000000000001fddf .LASF2264
C:\Users\SOLDER~1\AppData\Local\Temp\ccdovRCu.s:24782  .debug_str:000000000001123c .LASF2265
C:\Users\SOLDER~1\AppData\Local\Temp\ccdovRCu.s:24326  .debug_str:000000000000f483 .LASF2266
C:\Users\SOLDER~1\AppData\Local\Temp\ccdovRCu.s:26818  .debug_str:00000000000196d9 .LASF2267
C:\Users\SOLDER~1\AppData\Local\Temp\ccdovRCu.s:24124  .debug_str:000000000000e7fc .LASF2268
C:\Users\SOLDER~1\AppData\Local\Temp\ccdovRCu.s:20824  .debug_str:000000000000116f .LASF2269
C:\Users\SOLDER~1\AppData\Local\Temp\ccdovRCu.s:30312  .debug_str:00000000000279e5 .LASF2270
C:\Users\SOLDER~1\AppData\Local\Temp\ccdovRCu.s:31052  .debug_str:000000000002a9e6 .LASF2271
C:\Users\SOLDER~1\AppData\Local\Temp\ccdovRCu.s:31244  .debug_str:000000000002b652 .LASF2272
C:\Users\SOLDER~1\AppData\Local\Temp\ccdovRCu.s:30330  .debug_str:0000000000027b15 .LASF2273
C:\Users\SOLDER~1\AppData\Local\Temp\ccdovRCu.s:20692  .debug_str:00000000000008ab .LASF2274
C:\Users\SOLDER~1\AppData\Local\Temp\ccdovRCu.s:20772  .debug_str:0000000000000e75 .LASF2275
C:\Users\SOLDER~1\AppData\Local\Temp\ccdovRCu.s:22954  .debug_str:0000000000009aa7 .LASF2276
C:\Users\SOLDER~1\AppData\Local\Temp\ccdovRCu.s:28216  .debug_str:000000000001f192 .LASF2277
C:\Users\SOLDER~1\AppData\Local\Temp\ccdovRCu.s:22484  .debug_str:0000000000007beb .LASF2278
C:\Users\SOLDER~1\AppData\Local\Temp\ccdovRCu.s:32096  .debug_str:000000000002ecfe .LASF2279
C:\Users\SOLDER~1\AppData\Local\Temp\ccdovRCu.s:25066  .debug_str:0000000000012424 .LASF2280
C:\Users\SOLDER~1\AppData\Local\Temp\ccdovRCu.s:28288  .debug_str:000000000001f643 .LASF2281
C:\Users\SOLDER~1\AppData\Local\Temp\ccdovRCu.s:31706  .debug_str:000000000002d496 .LASF2282
C:\Users\SOLDER~1\AppData\Local\Temp\ccdovRCu.s:22424  .debug_str:0000000000007800 .LASF2283
C:\Users\SOLDER~1\AppData\Local\Temp\ccdovRCu.s:21186  .debug_str:00000000000028d9 .LASF2284
C:\Users\SOLDER~1\AppData\Local\Temp\ccdovRCu.s:28578  .debug_str:00000000000208f0 .LASF2285
C:\Users\SOLDER~1\AppData\Local\Temp\ccdovRCu.s:22384  .debug_str:00000000000075a9 .LASF2286
C:\Users\SOLDER~1\AppData\Local\Temp\ccdovRCu.s:26358  .debug_str:00000000000178f2 .LASF2287
C:\Users\SOLDER~1\AppData\Local\Temp\ccdovRCu.s:25020  .debug_str:000000000001213f .LASF2288
C:\Users\SOLDER~1\AppData\Local\Temp\ccdovRCu.s:22508  .debug_str:0000000000007d90 .LASF2289
C:\Users\SOLDER~1\AppData\Local\Temp\ccdovRCu.s:27824  .debug_str:000000000001d80e .LASF2290
C:\Users\SOLDER~1\AppData\Local\Temp\ccdovRCu.s:28322  .debug_str:000000000001f8bd .LASF2291
C:\Users\SOLDER~1\AppData\Local\Temp\ccdovRCu.s:25438  .debug_str:0000000000013d1e .LASF2292
C:\Users\SOLDER~1\AppData\Local\Temp\ccdovRCu.s:21594  .debug_str:0000000000004293 .LASF2293
C:\Users\SOLDER~1\AppData\Local\Temp\ccdovRCu.s:25696  .debug_str:0000000000014e8d .LASF2294
C:\Users\SOLDER~1\AppData\Local\Temp\ccdovRCu.s:32062  .debug_str:000000000002ead6 .LASF2295
C:\Users\SOLDER~1\AppData\Local\Temp\ccdovRCu.s:22438  .debug_str:00000000000078c7 .LASF2296
C:\Users\SOLDER~1\AppData\Local\Temp\ccdovRCu.s:31014  .debug_str:000000000002a771 .LASF2297
C:\Users\SOLDER~1\AppData\Local\Temp\ccdovRCu.s:29224  .debug_str:000000000002321e .LASF2298
C:\Users\SOLDER~1\AppData\Local\Temp\ccdovRCu.s:25308  .debug_str:0000000000013412 .LASF2299
C:\Users\SOLDER~1\AppData\Local\Temp\ccdovRCu.s:28520  .debug_str:0000000000020518 .LASF2300
C:\Users\SOLDER~1\AppData\Local\Temp\ccdovRCu.s:31342  .debug_str:000000000002bcd8 .LASF2301
C:\Users\SOLDER~1\AppData\Local\Temp\ccdovRCu.s:24802  .debug_str:0000000000011365 .LASF2302
C:\Users\SOLDER~1\AppData\Local\Temp\ccdovRCu.s:29010  .debug_str:000000000002243a .LASF2303
C:\Users\SOLDER~1\AppData\Local\Temp\ccdovRCu.s:26336  .debug_str:000000000001776c .LASF2304
C:\Users\SOLDER~1\AppData\Local\Temp\ccdovRCu.s:25230  .debug_str:0000000000012eeb .LASF2305
C:\Users\SOLDER~1\AppData\Local\Temp\ccdovRCu.s:27694  .debug_str:000000000001cf92 .LASF2306
C:\Users\SOLDER~1\AppData\Local\Temp\ccdovRCu.s:31056  .debug_str:000000000002aa1a .LASF2307
GAS LISTING C:\Users\SOLDER~1\AppData\Local\Temp\ccdovRCu.s 			page 93


C:\Users\SOLDER~1\AppData\Local\Temp\ccdovRCu.s:24844  .debug_str:0000000000011643 .LASF2308
C:\Users\SOLDER~1\AppData\Local\Temp\ccdovRCu.s:25560  .debug_str:00000000000145a0 .LASF2309
C:\Users\SOLDER~1\AppData\Local\Temp\ccdovRCu.s:24198  .debug_str:000000000000ec96 .LASF2310
C:\Users\SOLDER~1\AppData\Local\Temp\ccdovRCu.s:23252  .debug_str:000000000000aea5 .LASF2311
C:\Users\SOLDER~1\AppData\Local\Temp\ccdovRCu.s:30938  .debug_str:000000000002a24e .LASF2312
C:\Users\SOLDER~1\AppData\Local\Temp\ccdovRCu.s:31076  .debug_str:000000000002ab44 .LASF2313
C:\Users\SOLDER~1\AppData\Local\Temp\ccdovRCu.s:23588  .debug_str:000000000000c454 .LASF2314
C:\Users\SOLDER~1\AppData\Local\Temp\ccdovRCu.s:25268  .debug_str:0000000000013158 .LASF2315
C:\Users\SOLDER~1\AppData\Local\Temp\ccdovRCu.s:24968  .debug_str:0000000000011e11 .LASF2316
C:\Users\SOLDER~1\AppData\Local\Temp\ccdovRCu.s:22458  .debug_str:0000000000007a33 .LASF2317
C:\Users\SOLDER~1\AppData\Local\Temp\ccdovRCu.s:24776  .debug_str:00000000000111c8 .LASF2318
C:\Users\SOLDER~1\AppData\Local\Temp\ccdovRCu.s:31778  .debug_str:000000000002d90e .LASF2319
C:\Users\SOLDER~1\AppData\Local\Temp\ccdovRCu.s:25916  .debug_str:0000000000015cb8 .LASF2320
C:\Users\SOLDER~1\AppData\Local\Temp\ccdovRCu.s:29024  .debug_str:00000000000224f7 .LASF2321
C:\Users\SOLDER~1\AppData\Local\Temp\ccdovRCu.s:26372  .debug_str:000000000001799d .LASF2322
C:\Users\SOLDER~1\AppData\Local\Temp\ccdovRCu.s:29404  .debug_str:0000000000023dca .LASF2323
C:\Users\SOLDER~1\AppData\Local\Temp\ccdovRCu.s:28864  .debug_str:0000000000021b42 .LASF2324
C:\Users\SOLDER~1\AppData\Local\Temp\ccdovRCu.s:27800  .debug_str:000000000001d697 .LASF2325
C:\Users\SOLDER~1\AppData\Local\Temp\ccdovRCu.s:22394  .debug_str:0000000000007634 .LASF2326
C:\Users\SOLDER~1\AppData\Local\Temp\ccdovRCu.s:27500  .debug_str:000000000001c238 .LASF2327
C:\Users\SOLDER~1\AppData\Local\Temp\ccdovRCu.s:23182  .debug_str:000000000000a9f2 .LASF2328
C:\Users\SOLDER~1\AppData\Local\Temp\ccdovRCu.s:23082  .debug_str:000000000000a320 .LASF2329
C:\Users\SOLDER~1\AppData\Local\Temp\ccdovRCu.s:21894  .debug_str:0000000000005503 .LASF2330
C:\Users\SOLDER~1\AppData\Local\Temp\ccdovRCu.s:20922  .debug_str:00000000000017c2 .LASF2331
C:\Users\SOLDER~1\AppData\Local\Temp\ccdovRCu.s:31266  .debug_str:000000000002b7a5 .LASF2332
C:\Users\SOLDER~1\AppData\Local\Temp\ccdovRCu.s:21844  .debug_str:0000000000005223 .LASF2333
C:\Users\SOLDER~1\AppData\Local\Temp\ccdovRCu.s:30570  .debug_str:0000000000028add .LASF2334
C:\Users\SOLDER~1\AppData\Local\Temp\ccdovRCu.s:23476  .debug_str:000000000000bd00 .LASF2335
C:\Users\SOLDER~1\AppData\Local\Temp\ccdovRCu.s:28284  .debug_str:000000000001f5ff .LASF2336
C:\Users\SOLDER~1\AppData\Local\Temp\ccdovRCu.s:23936  .debug_str:000000000000db7c .LASF2337
C:\Users\SOLDER~1\AppData\Local\Temp\ccdovRCu.s:31762  .debug_str:000000000002d804 .LASF2338
C:\Users\SOLDER~1\AppData\Local\Temp\ccdovRCu.s:23714  .debug_str:000000000000cd26 .LASF2339
C:\Users\SOLDER~1\AppData\Local\Temp\ccdovRCu.s:28486  .debug_str:00000000000202ef .LASF2340
C:\Users\SOLDER~1\AppData\Local\Temp\ccdovRCu.s:28362  .debug_str:000000000001fb31 .LASF2341
C:\Users\SOLDER~1\AppData\Local\Temp\ccdovRCu.s:31356  .debug_str:000000000002bda3 .LASF2342
C:\Users\SOLDER~1\AppData\Local\Temp\ccdovRCu.s:23578  .debug_str:000000000000c39c .LASF2343
C:\Users\SOLDER~1\AppData\Local\Temp\ccdovRCu.s:30146  .debug_str:0000000000026f19 .LASF2344
C:\Users\SOLDER~1\AppData\Local\Temp\ccdovRCu.s:24700  .debug_str:0000000000010cdd .LASF2345
C:\Users\SOLDER~1\AppData\Local\Temp\ccdovRCu.s:24084  .debug_str:000000000000e57e .LASF2346
C:\Users\SOLDER~1\AppData\Local\Temp\ccdovRCu.s:30462  .debug_str:00000000000283d4 .LASF2347
C:\Users\SOLDER~1\AppData\Local\Temp\ccdovRCu.s:28660  .debug_str:0000000000020e12 .LASF2348
C:\Users\SOLDER~1\AppData\Local\Temp\ccdovRCu.s:22526  .debug_str:0000000000007eb9 .LASF2349
C:\Users\SOLDER~1\AppData\Local\Temp\ccdovRCu.s:27470  .debug_str:000000000001c056 .LASF2350
C:\Users\SOLDER~1\AppData\Local\Temp\ccdovRCu.s:30656  .debug_str:0000000000029052 .LASF2351
C:\Users\SOLDER~1\AppData\Local\Temp\ccdovRCu.s:29158  .debug_str:0000000000022de3 .LASF2352
C:\Users\SOLDER~1\AppData\Local\Temp\ccdovRCu.s:23156  .debug_str:000000000000a840 .LASF2353
C:\Users\SOLDER~1\AppData\Local\Temp\ccdovRCu.s:31672  .debug_str:000000000002d212 .LASF2354
C:\Users\SOLDER~1\AppData\Local\Temp\ccdovRCu.s:23942  .debug_str:000000000000dbcf .LASF2355
C:\Users\SOLDER~1\AppData\Local\Temp\ccdovRCu.s:26684  .debug_str:0000000000018dcf .LASF2356
C:\Users\SOLDER~1\AppData\Local\Temp\ccdovRCu.s:23542  .debug_str:000000000000c10f .LASF2357
C:\Users\SOLDER~1\AppData\Local\Temp\ccdovRCu.s:27448  .debug_str:000000000001bec9 .LASF2358
C:\Users\SOLDER~1\AppData\Local\Temp\ccdovRCu.s:24406  .debug_str:000000000000f9ed .LASF2359
C:\Users\SOLDER~1\AppData\Local\Temp\ccdovRCu.s:27862  .debug_str:000000000001da62 .LASF2360
C:\Users\SOLDER~1\AppData\Local\Temp\ccdovRCu.s:28554  .debug_str:0000000000020762 .LASF2361
C:\Users\SOLDER~1\AppData\Local\Temp\ccdovRCu.s:23982  .debug_str:000000000000de7a .LASF2362
C:\Users\SOLDER~1\AppData\Local\Temp\ccdovRCu.s:25236  .debug_str:0000000000012f44 .LASF2363
C:\Users\SOLDER~1\AppData\Local\Temp\ccdovRCu.s:23296  .debug_str:000000000000b164 .LASF2364
GAS LISTING C:\Users\SOLDER~1\AppData\Local\Temp\ccdovRCu.s 			page 94


C:\Users\SOLDER~1\AppData\Local\Temp\ccdovRCu.s:31228  .debug_str:000000000002b56a .LASF2365
C:\Users\SOLDER~1\AppData\Local\Temp\ccdovRCu.s:28476  .debug_str:0000000000020252 .LASF2366
C:\Users\SOLDER~1\AppData\Local\Temp\ccdovRCu.s:29718  .debug_str:0000000000025299 .LASF2367
C:\Users\SOLDER~1\AppData\Local\Temp\ccdovRCu.s:28570  .debug_str:0000000000020860 .LASF2368
C:\Users\SOLDER~1\AppData\Local\Temp\ccdovRCu.s:26658  .debug_str:0000000000018c15 .LASF2369
C:\Users\SOLDER~1\AppData\Local\Temp\ccdovRCu.s:21182  .debug_str:0000000000002860 .LASF2370
C:\Users\SOLDER~1\AppData\Local\Temp\ccdovRCu.s:21636  .debug_str:000000000000451e .LASF2371
C:\Users\SOLDER~1\AppData\Local\Temp\ccdovRCu.s:28086  .debug_str:000000000001e8cb .LASF2372
C:\Users\SOLDER~1\AppData\Local\Temp\ccdovRCu.s:21620  .debug_str:0000000000004428 .LASF2373
C:\Users\SOLDER~1\AppData\Local\Temp\ccdovRCu.s:21460  .debug_str:0000000000003a1e .LASF2374
C:\Users\SOLDER~1\AppData\Local\Temp\ccdovRCu.s:22078  .debug_str:0000000000006174 .LASF2375
C:\Users\SOLDER~1\AppData\Local\Temp\ccdovRCu.s:26980  .debug_str:000000000001a0f4 .LASF2376
C:\Users\SOLDER~1\AppData\Local\Temp\ccdovRCu.s:23100  .debug_str:000000000000a45a .LASF2377
C:\Users\SOLDER~1\AppData\Local\Temp\ccdovRCu.s:21334  .debug_str:0000000000003222 .LASF2378
C:\Users\SOLDER~1\AppData\Local\Temp\ccdovRCu.s:30956  .debug_str:000000000002a380 .LASF2379
C:\Users\SOLDER~1\AppData\Local\Temp\ccdovRCu.s:30358  .debug_str:0000000000027cb4 .LASF2380
C:\Users\SOLDER~1\AppData\Local\Temp\ccdovRCu.s:20682  .debug_str:0000000000000804 .LASF2381
C:\Users\SOLDER~1\AppData\Local\Temp\ccdovRCu.s:32054  .debug_str:000000000002ea45 .LASF2382
C:\Users\SOLDER~1\AppData\Local\Temp\ccdovRCu.s:27486  .debug_str:000000000001c157 .LASF2383
C:\Users\SOLDER~1\AppData\Local\Temp\ccdovRCu.s:23592  .debug_str:000000000000c4a8 .LASF2384
C:\Users\SOLDER~1\AppData\Local\Temp\ccdovRCu.s:31620  .debug_str:000000000002ce9c .LASF2385
C:\Users\SOLDER~1\AppData\Local\Temp\ccdovRCu.s:30992  .debug_str:000000000002a607 .LASF2386
C:\Users\SOLDER~1\AppData\Local\Temp\ccdovRCu.s:30172  .debug_str:00000000000270b1 .LASF2387
C:\Users\SOLDER~1\AppData\Local\Temp\ccdovRCu.s:31800  .debug_str:000000000002da93 .LASF2388
C:\Users\SOLDER~1\AppData\Local\Temp\ccdovRCu.s:25728  .debug_str:0000000000015086 .LASF2389
C:\Users\SOLDER~1\AppData\Local\Temp\ccdovRCu.s:22224  .debug_str:0000000000006b2c .LASF2390
C:\Users\SOLDER~1\AppData\Local\Temp\ccdovRCu.s:24728  .debug_str:0000000000010eaf .LASF2391
C:\Users\SOLDER~1\AppData\Local\Temp\ccdovRCu.s:28258  .debug_str:000000000001f465 .LASF2392
C:\Users\SOLDER~1\AppData\Local\Temp\ccdovRCu.s:22188  .debug_str:00000000000068f6 .LASF2393
C:\Users\SOLDER~1\AppData\Local\Temp\ccdovRCu.s:27554  .debug_str:000000000001c603 .LASF2394
C:\Users\SOLDER~1\AppData\Local\Temp\ccdovRCu.s:27280  .debug_str:000000000001b480 .LASF2395
C:\Users\SOLDER~1\AppData\Local\Temp\ccdovRCu.s:21220  .debug_str:0000000000002afa .LASF2396
C:\Users\SOLDER~1\AppData\Local\Temp\ccdovRCu.s:21810  .debug_str:0000000000005009 .LASF2397
C:\Users\SOLDER~1\AppData\Local\Temp\ccdovRCu.s:25350  .debug_str:00000000000136e2 .LASF2398
C:\Users\SOLDER~1\AppData\Local\Temp\ccdovRCu.s:29496  .debug_str:00000000000243e2 .LASF2399
C:\Users\SOLDER~1\AppData\Local\Temp\ccdovRCu.s:22682  .debug_str:0000000000008895 .LASF2400
C:\Users\SOLDER~1\AppData\Local\Temp\ccdovRCu.s:24224  .debug_str:000000000000ee41 .LASF2401
C:\Users\SOLDER~1\AppData\Local\Temp\ccdovRCu.s:24920  .debug_str:0000000000011afb .LASF2402
C:\Users\SOLDER~1\AppData\Local\Temp\ccdovRCu.s:29350  .debug_str:0000000000023a6e .LASF2403
C:\Users\SOLDER~1\AppData\Local\Temp\ccdovRCu.s:24354  .debug_str:000000000000f645 .LASF2404
C:\Users\SOLDER~1\AppData\Local\Temp\ccdovRCu.s:23384  .debug_str:000000000000b702 .LASF2405
C:\Users\SOLDER~1\AppData\Local\Temp\ccdovRCu.s:29798  .debug_str:000000000002579d .LASF2406
C:\Users\SOLDER~1\AppData\Local\Temp\ccdovRCu.s:27384  .debug_str:000000000001bad0 .LASF2407
C:\Users\SOLDER~1\AppData\Local\Temp\ccdovRCu.s:25598  .debug_str:0000000000014814 .LASF2408
C:\Users\SOLDER~1\AppData\Local\Temp\ccdovRCu.s:27764  .debug_str:000000000001d440 .LASF2409
C:\Users\SOLDER~1\AppData\Local\Temp\ccdovRCu.s:21742  .debug_str:0000000000004bf4 .LASF2410
C:\Users\SOLDER~1\AppData\Local\Temp\ccdovRCu.s:22184  .debug_str:00000000000068bc .LASF2411
C:\Users\SOLDER~1\AppData\Local\Temp\ccdovRCu.s:23284  .debug_str:000000000000b0a9 .LASF2412
C:\Users\SOLDER~1\AppData\Local\Temp\ccdovRCu.s:23618  .debug_str:000000000000c68c .LASF2413
C:\Users\SOLDER~1\AppData\Local\Temp\ccdovRCu.s:28640  .debug_str:0000000000020cca .LASF2414
C:\Users\SOLDER~1\AppData\Local\Temp\ccdovRCu.s:22326  .debug_str:0000000000007209 .LASF2415
C:\Users\SOLDER~1\AppData\Local\Temp\ccdovRCu.s:21604  .debug_str:0000000000004328 .LASF2416
C:\Users\SOLDER~1\AppData\Local\Temp\ccdovRCu.s:27360  .debug_str:000000000001b977 .LASF2417
C:\Users\SOLDER~1\AppData\Local\Temp\ccdovRCu.s:24440  .debug_str:000000000000fc3f .LASF2418
C:\Users\SOLDER~1\AppData\Local\Temp\ccdovRCu.s:27132  .debug_str:000000000001aaf4 .LASF2419
C:\Users\SOLDER~1\AppData\Local\Temp\ccdovRCu.s:28100  .debug_str:000000000001e9c5 .LASF2420
C:\Users\SOLDER~1\AppData\Local\Temp\ccdovRCu.s:20790  .debug_str:0000000000000f8d .LASF2421
GAS LISTING C:\Users\SOLDER~1\AppData\Local\Temp\ccdovRCu.s 			page 95


C:\Users\SOLDER~1\AppData\Local\Temp\ccdovRCu.s:20904  .debug_str:000000000000169d .LASF2422
C:\Users\SOLDER~1\AppData\Local\Temp\ccdovRCu.s:21790  .debug_str:0000000000004ee1 .LASF2423
C:\Users\SOLDER~1\AppData\Local\Temp\ccdovRCu.s:31824  .debug_str:000000000002dc0e .LASF2424
C:\Users\SOLDER~1\AppData\Local\Temp\ccdovRCu.s:23410  .debug_str:000000000000b887 .LASF2425
C:\Users\SOLDER~1\AppData\Local\Temp\ccdovRCu.s:25482  .debug_str:000000000001403a .LASF2426
C:\Users\SOLDER~1\AppData\Local\Temp\ccdovRCu.s:26310  .debug_str:00000000000175c5 .LASF2427
C:\Users\SOLDER~1\AppData\Local\Temp\ccdovRCu.s:22180  .debug_str:000000000000687c .LASF2428
C:\Users\SOLDER~1\AppData\Local\Temp\ccdovRCu.s:20906  .debug_str:00000000000016bf .LASF2429
C:\Users\SOLDER~1\AppData\Local\Temp\ccdovRCu.s:25680  .debug_str:0000000000014d87 .LASF2430
C:\Users\SOLDER~1\AppData\Local\Temp\ccdovRCu.s:27784  .debug_str:000000000001d5a5 .LASF2431
C:\Users\SOLDER~1\AppData\Local\Temp\ccdovRCu.s:20606  .debug_str:000000000000027e .LASF2432
C:\Users\SOLDER~1\AppData\Local\Temp\ccdovRCu.s:20792  .debug_str:0000000000000fa5 .LASF2433
C:\Users\SOLDER~1\AppData\Local\Temp\ccdovRCu.s:27358  .debug_str:000000000001b952 .LASF2434
C:\Users\SOLDER~1\AppData\Local\Temp\ccdovRCu.s:31432  .debug_str:000000000002c2cb .LASF2435
C:\Users\SOLDER~1\AppData\Local\Temp\ccdovRCu.s:21062  .debug_str:000000000000207e .LASF2436
C:\Users\SOLDER~1\AppData\Local\Temp\ccdovRCu.s:31734  .debug_str:000000000002d65f .LASF2437
C:\Users\SOLDER~1\AppData\Local\Temp\ccdovRCu.s:29904  .debug_str:0000000000025eb7 .LASF2438
C:\Users\SOLDER~1\AppData\Local\Temp\ccdovRCu.s:31060  .debug_str:000000000002aa53 .LASF2439
C:\Users\SOLDER~1\AppData\Local\Temp\ccdovRCu.s:26514  .debug_str:00000000000182ea .LASF2440
C:\Users\SOLDER~1\AppData\Local\Temp\ccdovRCu.s:23784  .debug_str:000000000000d1be .LASF2441
C:\Users\SOLDER~1\AppData\Local\Temp\ccdovRCu.s:26178  .debug_str:0000000000016d22 .LASF2442
C:\Users\SOLDER~1\AppData\Local\Temp\ccdovRCu.s:31384  .debug_str:000000000002bf7b .LASF2443
C:\Users\SOLDER~1\AppData\Local\Temp\ccdovRCu.s:21314  .debug_str:00000000000030d2 .LASF2444
C:\Users\SOLDER~1\AppData\Local\Temp\ccdovRCu.s:23786  .debug_str:000000000000d1d4 .LASF2445
C:\Users\SOLDER~1\AppData\Local\Temp\ccdovRCu.s:27890  .debug_str:000000000001dbed .LASF2446
C:\Users\SOLDER~1\AppData\Local\Temp\ccdovRCu.s:23486  .debug_str:000000000000bda4 .LASF2447
C:\Users\SOLDER~1\AppData\Local\Temp\ccdovRCu.s:28678  .debug_str:0000000000020f2e .LASF2448
C:\Users\SOLDER~1\AppData\Local\Temp\ccdovRCu.s:28416  .debug_str:000000000001fea4 .LASF2449
C:\Users\SOLDER~1\AppData\Local\Temp\ccdovRCu.s:25674  .debug_str:0000000000014d32 .LASF2450
C:\Users\SOLDER~1\AppData\Local\Temp\ccdovRCu.s:26036  .debug_str:000000000001648c .LASF2451
C:\Users\SOLDER~1\AppData\Local\Temp\ccdovRCu.s:25240  .debug_str:0000000000012f82 .LASF2452
C:\Users\SOLDER~1\AppData\Local\Temp\ccdovRCu.s:29516  .debug_str:0000000000024536 .LASF2453
C:\Users\SOLDER~1\AppData\Local\Temp\ccdovRCu.s:23870  .debug_str:000000000000d744 .LASF2454
C:\Users\SOLDER~1\AppData\Local\Temp\ccdovRCu.s:31164  .debug_str:000000000002b0e3 .LASF2455
C:\Users\SOLDER~1\AppData\Local\Temp\ccdovRCu.s:29700  .debug_str:0000000000025165 .LASF2456
C:\Users\SOLDER~1\AppData\Local\Temp\ccdovRCu.s:24094  .debug_str:000000000000e62c .LASF2457
C:\Users\SOLDER~1\AppData\Local\Temp\ccdovRCu.s:30542  .debug_str:00000000000288e3 .LASF2458
C:\Users\SOLDER~1\AppData\Local\Temp\ccdovRCu.s:23790  .debug_str:000000000000d211 .LASF2459
C:\Users\SOLDER~1\AppData\Local\Temp\ccdovRCu.s:28548  .debug_str:0000000000020708 .LASF2460
C:\Users\SOLDER~1\AppData\Local\Temp\ccdovRCu.s:21010  .debug_str:0000000000001d59 .LASF2461
C:\Users\SOLDER~1\AppData\Local\Temp\ccdovRCu.s:30016  .debug_str:0000000000026682 .LASF2462
C:\Users\SOLDER~1\AppData\Local\Temp\ccdovRCu.s:23658  .debug_str:000000000000c92e .LASF2463
C:\Users\SOLDER~1\AppData\Local\Temp\ccdovRCu.s:30236  .debug_str:00000000000274db .LASF2464
C:\Users\SOLDER~1\AppData\Local\Temp\ccdovRCu.s:22712  .debug_str:0000000000008aa2 .LASF2465
C:\Users\SOLDER~1\AppData\Local\Temp\ccdovRCu.s:23918  .debug_str:000000000000da70 .LASF2466
C:\Users\SOLDER~1\AppData\Local\Temp\ccdovRCu.s:24366  .debug_str:000000000000f71e .LASF2467
C:\Users\SOLDER~1\AppData\Local\Temp\ccdovRCu.s:22582  .debug_str:0000000000008266 .LASF2468
C:\Users\SOLDER~1\AppData\Local\Temp\ccdovRCu.s:22666  .debug_str:00000000000087a8 .LASF2469
C:\Users\SOLDER~1\AppData\Local\Temp\ccdovRCu.s:27544  .debug_str:000000000001c566 .LASF2470
C:\Users\SOLDER~1\AppData\Local\Temp\ccdovRCu.s:29954  .debug_str:0000000000026247 .LASF2471
C:\Users\SOLDER~1\AppData\Local\Temp\ccdovRCu.s:28982  .debug_str:0000000000022291 .LASF2472
C:\Users\SOLDER~1\AppData\Local\Temp\ccdovRCu.s:27426  .debug_str:000000000001bd5c .LASF2473
C:\Users\SOLDER~1\AppData\Local\Temp\ccdovRCu.s:25574  .debug_str:0000000000014685 .LASF2474
C:\Users\SOLDER~1\AppData\Local\Temp\ccdovRCu.s:31554  .debug_str:000000000002cab2 .LASF2475
C:\Users\SOLDER~1\AppData\Local\Temp\ccdovRCu.s:32168  .debug_str:000000000002f15f .LASF2476
C:\Users\SOLDER~1\AppData\Local\Temp\ccdovRCu.s:31242  .debug_str:000000000002b63a .LASF2477
C:\Users\SOLDER~1\AppData\Local\Temp\ccdovRCu.s:21434  .debug_str:000000000000386f .LASF2478
GAS LISTING C:\Users\SOLDER~1\AppData\Local\Temp\ccdovRCu.s 			page 96


C:\Users\SOLDER~1\AppData\Local\Temp\ccdovRCu.s:31816  .debug_str:000000000002db9f .LASF2479
C:\Users\SOLDER~1\AppData\Local\Temp\ccdovRCu.s:28424  .debug_str:000000000001ff1f .LASF2480
C:\Users\SOLDER~1\AppData\Local\Temp\ccdovRCu.s:23864  .debug_str:000000000000d6f0 .LASF2481
C:\Users\SOLDER~1\AppData\Local\Temp\ccdovRCu.s:29476  .debug_str:000000000002428b .LASF2482
C:\Users\SOLDER~1\AppData\Local\Temp\ccdovRCu.s:25606  .debug_str:000000000001488c .LASF2483
C:\Users\SOLDER~1\AppData\Local\Temp\ccdovRCu.s:28786  .debug_str:0000000000021620 .LASF2484
C:\Users\SOLDER~1\AppData\Local\Temp\ccdovRCu.s:27220  .debug_str:000000000001b0df .LASF2485
C:\Users\SOLDER~1\AppData\Local\Temp\ccdovRCu.s:22472  .debug_str:0000000000007b15 .LASF2486
C:\Users\SOLDER~1\AppData\Local\Temp\ccdovRCu.s:29980  .debug_str:00000000000263f7 .LASF2487
C:\Users\SOLDER~1\AppData\Local\Temp\ccdovRCu.s:27296  .debug_str:000000000001b552 .LASF2488
C:\Users\SOLDER~1\AppData\Local\Temp\ccdovRCu.s:26738  .debug_str:0000000000019180 .LASF2489
C:\Users\SOLDER~1\AppData\Local\Temp\ccdovRCu.s:31480  .debug_str:000000000002c5fc .LASF2490
C:\Users\SOLDER~1\AppData\Local\Temp\ccdovRCu.s:31472  .debug_str:000000000002c58f .LASF2491
C:\Users\SOLDER~1\AppData\Local\Temp\ccdovRCu.s:26902  .debug_str:0000000000019c0e .LASF2492
C:\Users\SOLDER~1\AppData\Local\Temp\ccdovRCu.s:32094  .debug_str:000000000002ecd9 .LASF2493
C:\Users\SOLDER~1\AppData\Local\Temp\ccdovRCu.s:21526  .debug_str:0000000000003e49 .LASF2494
C:\Users\SOLDER~1\AppData\Local\Temp\ccdovRCu.s:27422  .debug_str:000000000001bd22 .LASF2495
C:\Users\SOLDER~1\AppData\Local\Temp\ccdovRCu.s:26808  .debug_str:000000000001961a .LASF2496
C:\Users\SOLDER~1\AppData\Local\Temp\ccdovRCu.s:28598  .debug_str:0000000000020a37 .LASF2497
C:\Users\SOLDER~1\AppData\Local\Temp\ccdovRCu.s:26850  .debug_str:00000000000198ea .LASF2498
C:\Users\SOLDER~1\AppData\Local\Temp\ccdovRCu.s:29906  .debug_str:0000000000025ed9 .LASF2499
C:\Users\SOLDER~1\AppData\Local\Temp\ccdovRCu.s:30544  .debug_str:0000000000028906 .LASF2500
C:\Users\SOLDER~1\AppData\Local\Temp\ccdovRCu.s:26946  .debug_str:0000000000019eea .LASF2501
C:\Users\SOLDER~1\AppData\Local\Temp\ccdovRCu.s:31496  .debug_str:000000000002c708 .LASF2502
C:\Users\SOLDER~1\AppData\Local\Temp\ccdovRCu.s:23550  .debug_str:000000000000c1aa .LASF2503
C:\Users\SOLDER~1\AppData\Local\Temp\ccdovRCu.s:26492  .debug_str:0000000000018169 .LASF2504
C:\Users\SOLDER~1\AppData\Local\Temp\ccdovRCu.s:27682  .debug_str:000000000001cea8 .LASF2505
C:\Users\SOLDER~1\AppData\Local\Temp\ccdovRCu.s:24886  .debug_str:00000000000118e0 .LASF2506
C:\Users\SOLDER~1\AppData\Local\Temp\ccdovRCu.s:27292  .debug_str:000000000001b517 .LASF2507
C:\Users\SOLDER~1\AppData\Local\Temp\ccdovRCu.s:25700  .debug_str:0000000000014ed3 .LASF2508
C:\Users\SOLDER~1\AppData\Local\Temp\ccdovRCu.s:23076  .debug_str:000000000000a2d1 .LASF2509
C:\Users\SOLDER~1\AppData\Local\Temp\ccdovRCu.s:22790  .debug_str:0000000000008fca .LASF2510
C:\Users\SOLDER~1\AppData\Local\Temp\ccdovRCu.s:20718  .debug_str:0000000000000ab2 .LASF2511
C:\Users\SOLDER~1\AppData\Local\Temp\ccdovRCu.s:22142  .debug_str:00000000000065a7 .LASF2512
C:\Users\SOLDER~1\AppData\Local\Temp\ccdovRCu.s:21720  .debug_str:0000000000004a6e .LASF2513
C:\Users\SOLDER~1\AppData\Local\Temp\ccdovRCu.s:21462  .debug_str:0000000000003a43 .LASF2514
C:\Users\SOLDER~1\AppData\Local\Temp\ccdovRCu.s:23342  .debug_str:000000000000b453 .LASF2515
C:\Users\SOLDER~1\AppData\Local\Temp\ccdovRCu.s:26764  .debug_str:0000000000019315 .LASF2516
C:\Users\SOLDER~1\AppData\Local\Temp\ccdovRCu.s:21896  .debug_str:0000000000005524 .LASF2517
C:\Users\SOLDER~1\AppData\Local\Temp\ccdovRCu.s:24116  .debug_str:000000000000e76b .LASF2518
C:\Users\SOLDER~1\AppData\Local\Temp\ccdovRCu.s:29656  .debug_str:0000000000024e84 .LASF2519
C:\Users\SOLDER~1\AppData\Local\Temp\ccdovRCu.s:22844  .debug_str:0000000000009369 .LASF2520
C:\Users\SOLDER~1\AppData\Local\Temp\ccdovRCu.s:31166  .debug_str:000000000002b0fb .LASF2521
C:\Users\SOLDER~1\AppData\Local\Temp\ccdovRCu.s:23624  .debug_str:000000000000c6df .LASF2522
C:\Users\SOLDER~1\AppData\Local\Temp\ccdovRCu.s:29434  .debug_str:0000000000023fc3 .LASF2523
C:\Users\SOLDER~1\AppData\Local\Temp\ccdovRCu.s:24438  .debug_str:000000000000fc1a .LASF2524
C:\Users\SOLDER~1\AppData\Local\Temp\ccdovRCu.s:30084  .debug_str:0000000000026b18 .LASF2525
C:\Users\SOLDER~1\AppData\Local\Temp\ccdovRCu.s:21744  .debug_str:0000000000004c19 .LASF2526
C:\Users\SOLDER~1\AppData\Local\Temp\ccdovRCu.s:21364  .debug_str:0000000000003421 .LASF2527
C:\Users\SOLDER~1\AppData\Local\Temp\ccdovRCu.s:28834  .debug_str:0000000000021959 .LASF2528
C:\Users\SOLDER~1\AppData\Local\Temp\ccdovRCu.s:26782  .debug_str:000000000001944e .LASF2529
C:\Users\SOLDER~1\AppData\Local\Temp\ccdovRCu.s:21820  .debug_str:000000000000508c .LASF2530
C:\Users\SOLDER~1\AppData\Local\Temp\ccdovRCu.s:30620  .debug_str:0000000000028e1e .LASF2531
C:\Users\SOLDER~1\AppData\Local\Temp\ccdovRCu.s:21770  .debug_str:0000000000004dae .LASF2532
C:\Users\SOLDER~1\AppData\Local\Temp\ccdovRCu.s:31952  .debug_str:000000000002e419 .LASF2533
C:\Users\SOLDER~1\AppData\Local\Temp\ccdovRCu.s:20964  .debug_str:0000000000001a61 .LASF2534
C:\Users\SOLDER~1\AppData\Local\Temp\ccdovRCu.s:21626  .debug_str:0000000000004486 .LASF2535
GAS LISTING C:\Users\SOLDER~1\AppData\Local\Temp\ccdovRCu.s 			page 97


C:\Users\SOLDER~1\AppData\Local\Temp\ccdovRCu.s:26952  .debug_str:0000000000019f36 .LASF2536
C:\Users\SOLDER~1\AppData\Local\Temp\ccdovRCu.s:28530  .debug_str:00000000000205ce .LASF2537
C:\Users\SOLDER~1\AppData\Local\Temp\ccdovRCu.s:21292  .debug_str:0000000000002f87 .LASF2538
C:\Users\SOLDER~1\AppData\Local\Temp\ccdovRCu.s:24340  .debug_str:000000000000f573 .LASF2539
C:\Users\SOLDER~1\AppData\Local\Temp\ccdovRCu.s:27266  .debug_str:000000000001b38d .LASF2540
C:\Users\SOLDER~1\AppData\Local\Temp\ccdovRCu.s:31212  .debug_str:000000000002b46b .LASF2541
C:\Users\SOLDER~1\AppData\Local\Temp\ccdovRCu.s:21522  .debug_str:0000000000003dff .LASF2542
C:\Users\SOLDER~1\AppData\Local\Temp\ccdovRCu.s:26988  .debug_str:000000000001a189 .LASF2543
C:\Users\SOLDER~1\AppData\Local\Temp\ccdovRCu.s:25074  .debug_str:0000000000012486 .LASF2544
C:\Users\SOLDER~1\AppData\Local\Temp\ccdovRCu.s:20796  .debug_str:0000000000000fdf .LASF2545
C:\Users\SOLDER~1\AppData\Local\Temp\ccdovRCu.s:31334  .debug_str:000000000002bc4f .LASF2546
C:\Users\SOLDER~1\AppData\Local\Temp\ccdovRCu.s:22390  .debug_str:00000000000075fc .LASF2547
C:\Users\SOLDER~1\AppData\Local\Temp\ccdovRCu.s:30530  .debug_str:000000000002882f .LASF2548
C:\Users\SOLDER~1\AppData\Local\Temp\ccdovRCu.s:23986  .debug_str:000000000000dec0 .LASF2549
C:\Users\SOLDER~1\AppData\Local\Temp\ccdovRCu.s:29876  .debug_str:0000000000025cdc .LASF2550
C:\Users\SOLDER~1\AppData\Local\Temp\ccdovRCu.s:25524  .debug_str:0000000000014332 .LASF2551
C:\Users\SOLDER~1\AppData\Local\Temp\ccdovRCu.s:23286  .debug_str:000000000000b0c9 .LASF2552
C:\Users\SOLDER~1\AppData\Local\Temp\ccdovRCu.s:27140  .debug_str:000000000001ab58 .LASF2553
C:\Users\SOLDER~1\AppData\Local\Temp\ccdovRCu.s:23148  .debug_str:000000000000a7c4 .LASF2554
C:\Users\SOLDER~1\AppData\Local\Temp\ccdovRCu.s:28628  .debug_str:0000000000020c03 .LASF2555
C:\Users\SOLDER~1\AppData\Local\Temp\ccdovRCu.s:21860  .debug_str:000000000000532f .LASF2556
C:\Users\SOLDER~1\AppData\Local\Temp\ccdovRCu.s:26860  .debug_str:0000000000019965 .LASF2557
C:\Users\SOLDER~1\AppData\Local\Temp\ccdovRCu.s:26904  .debug_str:0000000000019c31 .LASF2558
C:\Users\SOLDER~1\AppData\Local\Temp\ccdovRCu.s:27236  .debug_str:000000000001b1d6 .LASF2559
C:\Users\SOLDER~1\AppData\Local\Temp\ccdovRCu.s:28084  .debug_str:000000000001e8a6 .LASF2560
C:\Users\SOLDER~1\AppData\Local\Temp\ccdovRCu.s:28726  .debug_str:000000000002123c .LASF2561
C:\Users\SOLDER~1\AppData\Local\Temp\ccdovRCu.s:26496  .debug_str:00000000000181b4 .LASF2562
C:\Users\SOLDER~1\AppData\Local\Temp\ccdovRCu.s:30348  .debug_str:0000000000027c23 .LASF2563
C:\Users\SOLDER~1\AppData\Local\Temp\ccdovRCu.s:31560  .debug_str:000000000002caf3 .LASF2564
C:\Users\SOLDER~1\AppData\Local\Temp\ccdovRCu.s:31986  .debug_str:000000000002e602 .LASF2565
C:\Users\SOLDER~1\AppData\Local\Temp\ccdovRCu.s:24932  .debug_str:0000000000011bc4 .LASF2566
C:\Users\SOLDER~1\AppData\Local\Temp\ccdovRCu.s:21866  .debug_str:0000000000005388 .LASF2567
C:\Users\SOLDER~1\AppData\Local\Temp\ccdovRCu.s:29770  .debug_str:00000000000255da .LASF2568
C:\Users\SOLDER~1\AppData\Local\Temp\ccdovRCu.s:23490  .debug_str:000000000000bde1 .LASF2569
C:\Users\SOLDER~1\AppData\Local\Temp\ccdovRCu.s:23516  .debug_str:000000000000bf6b .LASF2570
C:\Users\SOLDER~1\AppData\Local\Temp\ccdovRCu.s:25098  .debug_str:000000000001267b .LASF2571
C:\Users\SOLDER~1\AppData\Local\Temp\ccdovRCu.s:28516  .debug_str:00000000000204cf .LASF2572
C:\Users\SOLDER~1\AppData\Local\Temp\ccdovRCu.s:27976  .debug_str:000000000001e1c3 .LASF2573
C:\Users\SOLDER~1\AppData\Local\Temp\ccdovRCu.s:21248  .debug_str:0000000000002c90 .LASF2574
C:\Users\SOLDER~1\AppData\Local\Temp\ccdovRCu.s:22796  .debug_str:0000000000009037 .LASF2575
C:\Users\SOLDER~1\AppData\Local\Temp\ccdovRCu.s:27320  .debug_str:000000000001b6e6 .LASF2576
C:\Users\SOLDER~1\AppData\Local\Temp\ccdovRCu.s:24144  .debug_str:000000000000e963 .LASF2577
C:\Users\SOLDER~1\AppData\Local\Temp\ccdovRCu.s:27982  .debug_str:000000000001e220 .LASF2578
C:\Users\SOLDER~1\AppData\Local\Temp\ccdovRCu.s:22244  .debug_str:0000000000006c68 .LASF2579
C:\Users\SOLDER~1\AppData\Local\Temp\ccdovRCu.s:23630  .debug_str:000000000000c73f .LASF2580
C:\Users\SOLDER~1\AppData\Local\Temp\ccdovRCu.s:31962  .debug_str:000000000002e4a7 .LASF2581
C:\Users\SOLDER~1\AppData\Local\Temp\ccdovRCu.s:28168  .debug_str:000000000001ee5b .LASF2582
C:\Users\SOLDER~1\AppData\Local\Temp\ccdovRCu.s:30014  .debug_str:0000000000026669 .LASF2583
C:\Users\SOLDER~1\AppData\Local\Temp\ccdovRCu.s:28778  .debug_str:00000000000215ac .LASF2584
C:\Users\SOLDER~1\AppData\Local\Temp\ccdovRCu.s:22584  .debug_str:0000000000008288 .LASF2585
C:\Users\SOLDER~1\AppData\Local\Temp\ccdovRCu.s:24270  .debug_str:000000000000f124 .LASF2586
C:\Users\SOLDER~1\AppData\Local\Temp\ccdovRCu.s:26246  .debug_str:000000000001717f .LASF2587
C:\Users\SOLDER~1\AppData\Local\Temp\ccdovRCu.s:20876  .debug_str:00000000000014d2 .LASF2588
C:\Users\SOLDER~1\AppData\Local\Temp\ccdovRCu.s:24308  .debug_str:000000000000f37e .LASF2589
C:\Users\SOLDER~1\AppData\Local\Temp\ccdovRCu.s:24086  .debug_str:000000000000e59e .LASF2590
C:\Users\SOLDER~1\AppData\Local\Temp\ccdovRCu.s:27102  .debug_str:000000000001a8f4 .LASF2591
C:\Users\SOLDER~1\AppData\Local\Temp\ccdovRCu.s:21802  .debug_str:0000000000004f89 .LASF2592
GAS LISTING C:\Users\SOLDER~1\AppData\Local\Temp\ccdovRCu.s 			page 98


C:\Users\SOLDER~1\AppData\Local\Temp\ccdovRCu.s:28368  .debug_str:000000000001fb96 .LASF2593
C:\Users\SOLDER~1\AppData\Local\Temp\ccdovRCu.s:28068  .debug_str:000000000001e76e .LASF2594
C:\Users\SOLDER~1\AppData\Local\Temp\ccdovRCu.s:26670  .debug_str:0000000000018cd4 .LASF2595
C:\Users\SOLDER~1\AppData\Local\Temp\ccdovRCu.s:20982  .debug_str:0000000000001ba0 .LASF2596
C:\Users\SOLDER~1\AppData\Local\Temp\ccdovRCu.s:24974  .debug_str:0000000000011e6d .LASF2597
C:\Users\SOLDER~1\AppData\Local\Temp\ccdovRCu.s:31562  .debug_str:000000000002cb18 .LASF2598
C:\Users\SOLDER~1\AppData\Local\Temp\ccdovRCu.s:23330  .debug_str:000000000000b385 .LASF2599
C:\Users\SOLDER~1\AppData\Local\Temp\ccdovRCu.s:27688  .debug_str:000000000001cf0d .LASF2600
C:\Users\SOLDER~1\AppData\Local\Temp\ccdovRCu.s:21584  .debug_str:0000000000004200 .LASF2601
C:\Users\SOLDER~1\AppData\Local\Temp\ccdovRCu.s:23822  .debug_str:000000000000d42b .LASF2602
C:\Users\SOLDER~1\AppData\Local\Temp\ccdovRCu.s:31576  .debug_str:000000000002cbe2 .LASF2603
C:\Users\SOLDER~1\AppData\Local\Temp\ccdovRCu.s:27148  .debug_str:000000000001abd7 .LASF2604
C:\Users\SOLDER~1\AppData\Local\Temp\ccdovRCu.s:26382  .debug_str:0000000000017a64 .LASF2605
C:\Users\SOLDER~1\AppData\Local\Temp\ccdovRCu.s:22466  .debug_str:0000000000007a9e .LASF2606
C:\Users\SOLDER~1\AppData\Local\Temp\ccdovRCu.s:28172  .debug_str:000000000001eea6 .LASF2607
C:\Users\SOLDER~1\AppData\Local\Temp\ccdovRCu.s:32008  .debug_str:000000000002e753 .LASF2608
C:\Users\SOLDER~1\AppData\Local\Temp\ccdovRCu.s:26570  .debug_str:000000000001864b .LASF2609
C:\Users\SOLDER~1\AppData\Local\Temp\ccdovRCu.s:25582  .debug_str:0000000000014722 .LASF2610
C:\Users\SOLDER~1\AppData\Local\Temp\ccdovRCu.s:24878  .debug_str:000000000001184c .LASF2611
C:\Users\SOLDER~1\AppData\Local\Temp\ccdovRCu.s:30852  .debug_str:0000000000029c8c .LASF2612
C:\Users\SOLDER~1\AppData\Local\Temp\ccdovRCu.s:24402  .debug_str:000000000000f9b2 .LASF2613
C:\Users\SOLDER~1\AppData\Local\Temp\ccdovRCu.s:21588  .debug_str:0000000000004235 .LASF2614
C:\Users\SOLDER~1\AppData\Local\Temp\ccdovRCu.s:20656  .debug_str:00000000000005d7 .LASF2615
C:\Users\SOLDER~1\AppData\Local\Temp\ccdovRCu.s:27566  .debug_str:000000000001c6b5 .LASF2616
C:\Users\SOLDER~1\AppData\Local\Temp\ccdovRCu.s:30326  .debug_str:0000000000027acc .LASF2617
C:\Users\SOLDER~1\AppData\Local\Temp\ccdovRCu.s:22118  .debug_str:0000000000006411 .LASF2618
C:\Users\SOLDER~1\AppData\Local\Temp\ccdovRCu.s:28412  .debug_str:000000000001fe5f .LASF2619
C:\Users\SOLDER~1\AppData\Local\Temp\ccdovRCu.s:28470  .debug_str:00000000000201f1 .LASF2620
C:\Users\SOLDER~1\AppData\Local\Temp\ccdovRCu.s:26594  .debug_str:00000000000187ec .LASF2621
C:\Users\SOLDER~1\AppData\Local\Temp\ccdovRCu.s:28422  .debug_str:000000000001fef9 .LASF2622
C:\Users\SOLDER~1\AppData\Local\Temp\ccdovRCu.s:23754  .debug_str:000000000000cfc7 .LASF2623
C:\Users\SOLDER~1\AppData\Local\Temp\ccdovRCu.s:29130  .debug_str:0000000000022bf7 .LASF2624
C:\Users\SOLDER~1\AppData\Local\Temp\ccdovRCu.s:22702  .debug_str:0000000000008a06 .LASF2625
C:\Users\SOLDER~1\AppData\Local\Temp\ccdovRCu.s:24640  .debug_str:00000000000108ff .LASF2626
C:\Users\SOLDER~1\AppData\Local\Temp\ccdovRCu.s:20812  .debug_str:00000000000010cb .LASF2627
C:\Users\SOLDER~1\AppData\Local\Temp\ccdovRCu.s:21222  .debug_str:0000000000002b1c .LASF2628
C:\Users\SOLDER~1\AppData\Local\Temp\ccdovRCu.s:30484  .debug_str:000000000002853e .LASF2629
C:\Users\SOLDER~1\AppData\Local\Temp\ccdovRCu.s:30978  .debug_str:000000000002a516 .LASF2630
C:\Users\SOLDER~1\AppData\Local\Temp\ccdovRCu.s:28650  .debug_str:0000000000020d82 .LASF2631
C:\Users\SOLDER~1\AppData\Local\Temp\ccdovRCu.s:22070  .debug_str:00000000000060e5 .LASF2632
C:\Users\SOLDER~1\AppData\Local\Temp\ccdovRCu.s:32132  .debug_str:000000000002ef18 .LASF2633
C:\Users\SOLDER~1\AppData\Local\Temp\ccdovRCu.s:24794  .debug_str:00000000000112d8 .LASF2634
C:\Users\SOLDER~1\AppData\Local\Temp\ccdovRCu.s:24186  .debug_str:000000000000ebd0 .LASF2635
C:\Users\SOLDER~1\AppData\Local\Temp\ccdovRCu.s:29274  .debug_str:0000000000023585 .LASF2636
C:\Users\SOLDER~1\AppData\Local\Temp\ccdovRCu.s:30414  .debug_str:000000000002809b .LASF2637
C:\Users\SOLDER~1\AppData\Local\Temp\ccdovRCu.s:28352  .debug_str:000000000001faa4 .LASF2638
C:\Users\SOLDER~1\AppData\Local\Temp\ccdovRCu.s:20908  .debug_str:00000000000016e4 .LASF2639
C:\Users\SOLDER~1\AppData\Local\Temp\ccdovRCu.s:26342  .debug_str:00000000000177d9 .LASF2640
C:\Users\SOLDER~1\AppData\Local\Temp\ccdovRCu.s:30878  .debug_str:0000000000029e3d .LASF2641
C:\Users\SOLDER~1\AppData\Local\Temp\ccdovRCu.s:22346  .debug_str:0000000000007353 .LASF2642
C:\Users\SOLDER~1\AppData\Local\Temp\ccdovRCu.s:29096  .debug_str:00000000000229cb .LASF2643
C:\Users\SOLDER~1\AppData\Local\Temp\ccdovRCu.s:23836  .debug_str:000000000000d52a .LASF2644
C:\Users\SOLDER~1\AppData\Local\Temp\ccdovRCu.s:27480  .debug_str:000000000001c100 .LASF2645
C:\Users\SOLDER~1\AppData\Local\Temp\ccdovRCu.s:25802  .debug_str:0000000000015553 .LASF2646
C:\Users\SOLDER~1\AppData\Local\Temp\ccdovRCu.s:25838  .debug_str:00000000000157b1 .LASF2647
C:\Users\SOLDER~1\AppData\Local\Temp\ccdovRCu.s:28686  .debug_str:0000000000020faa .LASF2648
C:\Users\SOLDER~1\AppData\Local\Temp\ccdovRCu.s:24076  .debug_str:000000000000e50d .LASF2649
GAS LISTING C:\Users\SOLDER~1\AppData\Local\Temp\ccdovRCu.s 			page 99


C:\Users\SOLDER~1\AppData\Local\Temp\ccdovRCu.s:30356  .debug_str:0000000000027c8d .LASF2650
C:\Users\SOLDER~1\AppData\Local\Temp\ccdovRCu.s:22456  .debug_str:0000000000007a19 .LASF2651
C:\Users\SOLDER~1\AppData\Local\Temp\ccdovRCu.s:27540  .debug_str:000000000001c4f6 .LASF2652
C:\Users\SOLDER~1\AppData\Local\Temp\ccdovRCu.s:23058  .debug_str:000000000000a1a1 .LASF2653
C:\Users\SOLDER~1\AppData\Local\Temp\ccdovRCu.s:21190  .debug_str:000000000000291d .LASF2654
C:\Users\SOLDER~1\AppData\Local\Temp\ccdovRCu.s:21170  .debug_str:00000000000027ac .LASF2655
C:\Users\SOLDER~1\AppData\Local\Temp\ccdovRCu.s:27260  .debug_str:000000000001b328 .LASF2656
C:\Users\SOLDER~1\AppData\Local\Temp\ccdovRCu.s:29198  .debug_str:0000000000023085 .LASF2657
C:\Users\SOLDER~1\AppData\Local\Temp\ccdovRCu.s:21910  .debug_str:00000000000055fe .LASF2658
C:\Users\SOLDER~1\AppData\Local\Temp\ccdovRCu.s:28940  .debug_str:0000000000022000 .LASF2659
C:\Users\SOLDER~1\AppData\Local\Temp\ccdovRCu.s:28056  .debug_str:000000000001e6a1 .LASF2660
C:\Users\SOLDER~1\AppData\Local\Temp\ccdovRCu.s:27064  .debug_str:000000000001a66a .LASF2661
C:\Users\SOLDER~1\AppData\Local\Temp\ccdovRCu.s:28024  .debug_str:000000000001e4bd .LASF2662
C:\Users\SOLDER~1\AppData\Local\Temp\ccdovRCu.s:25132  .debug_str:000000000001287b .LASF2663
C:\Users\SOLDER~1\AppData\Local\Temp\ccdovRCu.s:28722  .debug_str:00000000000211dc .LASF2664
C:\Users\SOLDER~1\AppData\Local\Temp\ccdovRCu.s:23230  .debug_str:000000000000ad02 .LASF2665
C:\Users\SOLDER~1\AppData\Local\Temp\ccdovRCu.s:24212  .debug_str:000000000000ed79 .LASF2666
C:\Users\SOLDER~1\AppData\Local\Temp\ccdovRCu.s:21330  .debug_str:00000000000031f7 .LASF2667
C:\Users\SOLDER~1\AppData\Local\Temp\ccdovRCu.s:20832  .debug_str:00000000000011e8 .LASF2668
C:\Users\SOLDER~1\AppData\Local\Temp\ccdovRCu.s:21648  .debug_str:00000000000045e5 .LASF2669
C:\Users\SOLDER~1\AppData\Local\Temp\ccdovRCu.s:29614  .debug_str:0000000000024bce .LASF2670
C:\Users\SOLDER~1\AppData\Local\Temp\ccdovRCu.s:29086  .debug_str:0000000000022935 .LASF2671
C:\Users\SOLDER~1\AppData\Local\Temp\ccdovRCu.s:21746  .debug_str:0000000000004c39 .LASF2672
C:\Users\SOLDER~1\AppData\Local\Temp\ccdovRCu.s:29774  .debug_str:000000000002561d .LASF2673
C:\Users\SOLDER~1\AppData\Local\Temp\ccdovRCu.s:28808  .debug_str:00000000000217b1 .LASF2674
C:\Users\SOLDER~1\AppData\Local\Temp\ccdovRCu.s:28152  .debug_str:000000000001ed71 .LASF2675
C:\Users\SOLDER~1\AppData\Local\Temp\ccdovRCu.s:26906  .debug_str:0000000000019c56 .LASF2676
C:\Users\SOLDER~1\AppData\Local\Temp\ccdovRCu.s:26544  .debug_str:00000000000184bd .LASF2677
C:\Users\SOLDER~1\AppData\Local\Temp\ccdovRCu.s:25956  .debug_str:0000000000015f3e .LASF2678
C:\Users\SOLDER~1\AppData\Local\Temp\ccdovRCu.s:24856  .debug_str:00000000000116f8 .LASF2679
C:\Users\SOLDER~1\AppData\Local\Temp\ccdovRCu.s:22080  .debug_str:000000000000618b .LASF2680
C:\Users\SOLDER~1\AppData\Local\Temp\ccdovRCu.s:23104  .debug_str:000000000000a4a0 .LASF2681
C:\Users\SOLDER~1\AppData\Local\Temp\ccdovRCu.s:31644  .debug_str:000000000002d021 .LASF2682
C:\Users\SOLDER~1\AppData\Local\Temp\ccdovRCu.s:21480  .debug_str:0000000000003b82 .LASF2683
C:\Users\SOLDER~1\AppData\Local\Temp\ccdovRCu.s:21520  .debug_str:0000000000003dd8 .LASF2684
C:\Users\SOLDER~1\AppData\Local\Temp\ccdovRCu.s:28092  .debug_str:000000000001e93d .LASF2685
C:\Users\SOLDER~1\AppData\Local\Temp\ccdovRCu.s:28366  .debug_str:000000000001fb6f .LASF2686
C:\Users\SOLDER~1\AppData\Local\Temp\ccdovRCu.s:29666  .debug_str:0000000000024f31 .LASF2687
C:\Users\SOLDER~1\AppData\Local\Temp\ccdovRCu.s:26422  .debug_str:0000000000017cc8 .LASF2688
C:\Users\SOLDER~1\AppData\Local\Temp\ccdovRCu.s:28046  .debug_str:000000000001e618 .LASF2689
C:\Users\SOLDER~1\AppData\Local\Temp\ccdovRCu.s:27952  .debug_str:000000000001e009 .LASF2690
C:\Users\SOLDER~1\AppData\Local\Temp\ccdovRCu.s:26448  .debug_str:0000000000017e81 .LASF2691
C:\Users\SOLDER~1\AppData\Local\Temp\ccdovRCu.s:29186  .debug_str:0000000000022fc5 .LASF2692
C:\Users\SOLDER~1\AppData\Local\Temp\ccdovRCu.s:21880  .debug_str:000000000000544c .LASF2693
C:\Users\SOLDER~1\AppData\Local\Temp\ccdovRCu.s:21080  .debug_str:00000000000021c2 .LASF2694
C:\Users\SOLDER~1\AppData\Local\Temp\ccdovRCu.s:31606  .debug_str:000000000002cdb9 .LASF2695
C:\Users\SOLDER~1\AppData\Local\Temp\ccdovRCu.s:25342  .debug_str:0000000000013659 .LASF2696
C:\Users\SOLDER~1\AppData\Local\Temp\ccdovRCu.s:25258  .debug_str:00000000000130c2 .LASF2697
C:\Users\SOLDER~1\AppData\Local\Temp\ccdovRCu.s:21684  .debug_str:000000000000484e .LASF2698
C:\Users\SOLDER~1\AppData\Local\Temp\ccdovRCu.s:27766  .debug_str:000000000001d45c .LASF2699
C:\Users\SOLDER~1\AppData\Local\Temp\ccdovRCu.s:28044  .debug_str:000000000001e5f2 .LASF2700
C:\Users\SOLDER~1\AppData\Local\Temp\ccdovRCu.s:32152  .debug_str:000000000002f05c .LASF2701
C:\Users\SOLDER~1\AppData\Local\Temp\ccdovRCu.s:28008  .debug_str:000000000001e3c1 .LASF2702
C:\Users\SOLDER~1\AppData\Local\Temp\ccdovRCu.s:23948  .debug_str:000000000000dc2b .LASF2703
C:\Users\SOLDER~1\AppData\Local\Temp\ccdovRCu.s:28614  .debug_str:0000000000020b25 .LASF2704
C:\Users\SOLDER~1\AppData\Local\Temp\ccdovRCu.s:22044  .debug_str:0000000000005ef7 .LASF2705
C:\Users\SOLDER~1\AppData\Local\Temp\ccdovRCu.s:24098  .debug_str:000000000000e64f .LASF2706
GAS LISTING C:\Users\SOLDER~1\AppData\Local\Temp\ccdovRCu.s 			page 100


C:\Users\SOLDER~1\AppData\Local\Temp\ccdovRCu.s:31758  .debug_str:000000000002d7c8 .LASF2707
C:\Users\SOLDER~1\AppData\Local\Temp\ccdovRCu.s:25602  .debug_str:0000000000014848 .LASF2708
C:\Users\SOLDER~1\AppData\Local\Temp\ccdovRCu.s:29902  .debug_str:0000000000025e9f .LASF2709
C:\Users\SOLDER~1\AppData\Local\Temp\ccdovRCu.s:30556  .debug_str:00000000000289c5 .LASF2710
C:\Users\SOLDER~1\AppData\Local\Temp\ccdovRCu.s:28020  .debug_str:000000000001e47a .LASF2711
C:\Users\SOLDER~1\AppData\Local\Temp\ccdovRCu.s:28410  .debug_str:000000000001fe39 .LASF2712
C:\Users\SOLDER~1\AppData\Local\Temp\ccdovRCu.s:26406  .debug_str:0000000000017be3 .LASF2713
C:\Users\SOLDER~1\AppData\Local\Temp\ccdovRCu.s:28744  .debug_str:0000000000021382 .LASF2714
C:\Users\SOLDER~1\AppData\Local\Temp\ccdovRCu.s:22764  .debug_str:0000000000008e0e .LASF2715
C:\Users\SOLDER~1\AppData\Local\Temp\ccdovRCu.s:21554  .debug_str:0000000000003ffc .LASF2716
C:\Users\SOLDER~1\AppData\Local\Temp\ccdovRCu.s:22972  .debug_str:0000000000009bc5 .LASF2717
C:\Users\SOLDER~1\AppData\Local\Temp\ccdovRCu.s:20740  .debug_str:0000000000000c3d .LASF2718
C:\Users\SOLDER~1\AppData\Local\Temp\ccdovRCu.s:20574  .debug_str:00000000000000a0 .LASF2719
C:\Users\SOLDER~1\AppData\Local\Temp\ccdovRCu.s:28474  .debug_str:000000000002022b .LASF2720
C:\Users\SOLDER~1\AppData\Local\Temp\ccdovRCu.s:26522  .debug_str:0000000000018360 .LASF2721
C:\Users\SOLDER~1\AppData\Local\Temp\ccdovRCu.s:20714  .debug_str:0000000000000a62 .LASF2722
C:\Users\SOLDER~1\AppData\Local\Temp\ccdovRCu.s:29524  .debug_str:00000000000245bf .LASF2723
C:\Users\SOLDER~1\AppData\Local\Temp\ccdovRCu.s:27820  .debug_str:000000000001d7d4 .LASF2724
C:\Users\SOLDER~1\AppData\Local\Temp\ccdovRCu.s:27904  .debug_str:000000000001dcde .LASF2725
C:\Users\SOLDER~1\AppData\Local\Temp\ccdovRCu.s:23138  .debug_str:000000000000a713 .LASF2726
C:\Users\SOLDER~1\AppData\Local\Temp\ccdovRCu.s:26294  .debug_str:0000000000017495 .LASF2727
C:\Users\SOLDER~1\AppData\Local\Temp\ccdovRCu.s:21066  .debug_str:00000000000020c6 .LASF2728
C:\Users\SOLDER~1\AppData\Local\Temp\ccdovRCu.s:24536  .debug_str:0000000000010265 .LASF2729
C:\Users\SOLDER~1\AppData\Local\Temp\ccdovRCu.s:22736  .debug_str:0000000000008c05 .LASF2730
C:\Users\SOLDER~1\AppData\Local\Temp\ccdovRCu.s:22880  .debug_str:00000000000095e1 .LASF2731
C:\Users\SOLDER~1\AppData\Local\Temp\ccdovRCu.s:31532  .debug_str:000000000002c933 .LASF2732
C:\Users\SOLDER~1\AppData\Local\Temp\ccdovRCu.s:31666  .debug_str:000000000002d1ab .LASF2733
C:\Users\SOLDER~1\AppData\Local\Temp\ccdovRCu.s:29880  .debug_str:0000000000025d1c .LASF2734
C:\Users\SOLDER~1\AppData\Local\Temp\ccdovRCu.s:29720  .debug_str:00000000000252b2 .LASF2735
C:\Users\SOLDER~1\AppData\Local\Temp\ccdovRCu.s:24358  .debug_str:000000000000f684 .LASF2736
C:\Users\SOLDER~1\AppData\Local\Temp\ccdovRCu.s:27830  .debug_str:000000000001d872 .LASF2737
C:\Users\SOLDER~1\AppData\Local\Temp\ccdovRCu.s:30520  .debug_str:0000000000028791 .LASF2738
C:\Users\SOLDER~1\AppData\Local\Temp\ccdovRCu.s:25942  .debug_str:0000000000015e65 .LASF2739
C:\Users\SOLDER~1\AppData\Local\Temp\ccdovRCu.s:25254  .debug_str:0000000000013070 .LASF2740
C:\Users\SOLDER~1\AppData\Local\Temp\ccdovRCu.s:22634  .debug_str:000000000000859c .LASF2741
C:\Users\SOLDER~1\AppData\Local\Temp\ccdovRCu.s:21476  .debug_str:0000000000003b2f .LASF2742
C:\Users\SOLDER~1\AppData\Local\Temp\ccdovRCu.s:26792  .debug_str:00000000000194ef .LASF2743
C:\Users\SOLDER~1\AppData\Local\Temp\ccdovRCu.s:25858  .debug_str:00000000000158f4 .LASF2744
C:\Users\SOLDER~1\AppData\Local\Temp\ccdovRCu.s:31818  .debug_str:000000000002dbb6 .LASF2745
C:\Users\SOLDER~1\AppData\Local\Temp\ccdovRCu.s:21328  .debug_str:00000000000031cc .LASF2746
C:\Users\SOLDER~1\AppData\Local\Temp\ccdovRCu.s:29874  .debug_str:0000000000025cbf .LASF2747
C:\Users\SOLDER~1\AppData\Local\Temp\ccdovRCu.s:29500  .debug_str:000000000002442a .LASF2748
C:\Users\SOLDER~1\AppData\Local\Temp\ccdovRCu.s:27996  .debug_str:000000000001e2f3 .LASF2749
C:\Users\SOLDER~1\AppData\Local\Temp\ccdovRCu.s:27758  .debug_str:000000000001d3d0 .LASF2750
C:\Users\SOLDER~1\AppData\Local\Temp\ccdovRCu.s:26194  .debug_str:0000000000016e01 .LASF2751
C:\Users\SOLDER~1\AppData\Local\Temp\ccdovRCu.s:30458  .debug_str:0000000000028384 .LASF2752
C:\Users\SOLDER~1\AppData\Local\Temp\ccdovRCu.s:21676  .debug_str:00000000000047cc .LASF2753
C:\Users\SOLDER~1\AppData\Local\Temp\ccdovRCu.s:27450  .debug_str:000000000001beeb .LASF2754
C:\Users\SOLDER~1\AppData\Local\Temp\ccdovRCu.s:31656  .debug_str:000000000002d0f4 .LASF2755
C:\Users\SOLDER~1\AppData\Local\Temp\ccdovRCu.s:28740  .debug_str:0000000000021334 .LASF2756
C:\Users\SOLDER~1\AppData\Local\Temp\ccdovRCu.s:29978  .debug_str:00000000000263d8 .LASF2757
C:\Users\SOLDER~1\AppData\Local\Temp\ccdovRCu.s:31020  .debug_str:000000000002a7bc .LASF2758
C:\Users\SOLDER~1\AppData\Local\Temp\ccdovRCu.s:25264  .debug_str:0000000000013117 .LASF2759
C:\Users\SOLDER~1\AppData\Local\Temp\ccdovRCu.s:27166  .debug_str:000000000001ad04 .LASF2760
C:\Users\SOLDER~1\AppData\Local\Temp\ccdovRCu.s:26656  .debug_str:0000000000018bf6 .LASF2761
C:\Users\SOLDER~1\AppData\Local\Temp\ccdovRCu.s:25086  .debug_str:000000000001257d .LASF2762
C:\Users\SOLDER~1\AppData\Local\Temp\ccdovRCu.s:24962  .debug_str:0000000000011dbe .LASF2763
GAS LISTING C:\Users\SOLDER~1\AppData\Local\Temp\ccdovRCu.s 			page 101


C:\Users\SOLDER~1\AppData\Local\Temp\ccdovRCu.s:26642  .debug_str:0000000000018ade .LASF2764
C:\Users\SOLDER~1\AppData\Local\Temp\ccdovRCu.s:23226  .debug_str:000000000000acc3 .LASF2765
C:\Users\SOLDER~1\AppData\Local\Temp\ccdovRCu.s:21826  .debug_str:00000000000050e6 .LASF2766
C:\Users\SOLDER~1\AppData\Local\Temp\ccdovRCu.s:23976  .debug_str:000000000000de17 .LASF2767
C:\Users\SOLDER~1\AppData\Local\Temp\ccdovRCu.s:31466  .debug_str:000000000002c532 .LASF2768
C:\Users\SOLDER~1\AppData\Local\Temp\ccdovRCu.s:28198  .debug_str:000000000001f05e .LASF2769
C:\Users\SOLDER~1\AppData\Local\Temp\ccdovRCu.s:21418  .debug_str:0000000000003755 .LASF2770
C:\Users\SOLDER~1\AppData\Local\Temp\ccdovRCu.s:21992  .debug_str:0000000000005bbc .LASF2771
C:\Users\SOLDER~1\AppData\Local\Temp\ccdovRCu.s:31646  .debug_str:000000000002d048 .LASF2772
C:\Users\SOLDER~1\AppData\Local\Temp\ccdovRCu.s:28560  .debug_str:00000000000207c5 .LASF2773
C:\Users\SOLDER~1\AppData\Local\Temp\ccdovRCu.s:25648  .debug_str:0000000000014b76 .LASF2774
C:\Users\SOLDER~1\AppData\Local\Temp\ccdovRCu.s:21822  .debug_str:00000000000050b1 .LASF2775
C:\Users\SOLDER~1\AppData\Local\Temp\ccdovRCu.s:31626  .debug_str:000000000002cefd .LASF2776
C:\Users\SOLDER~1\AppData\Local\Temp\ccdovRCu.s:24852  .debug_str:00000000000116d0 .LASF2777
C:\Users\SOLDER~1\AppData\Local\Temp\ccdovRCu.s:26186  .debug_str:0000000000016d87 .LASF2778
C:\Users\SOLDER~1\AppData\Local\Temp\ccdovRCu.s:22942  .debug_str:00000000000099f5 .LASF2779
C:\Users\SOLDER~1\AppData\Local\Temp\ccdovRCu.s:23376  .debug_str:000000000000b686 .LASF2780
C:\Users\SOLDER~1\AppData\Local\Temp\ccdovRCu.s:21032  .debug_str:0000000000001e9e .LASF2781
C:\Users\SOLDER~1\AppData\Local\Temp\ccdovRCu.s:20874  .debug_str:00000000000014ab .LASF2782
C:\Users\SOLDER~1\AppData\Local\Temp\ccdovRCu.s:30744  .debug_str:00000000000295dd .LASF2783
C:\Users\SOLDER~1\AppData\Local\Temp\ccdovRCu.s:21570  .debug_str:0000000000004107 .LASF2784
C:\Users\SOLDER~1\AppData\Local\Temp\ccdovRCu.s:21598  .debug_str:00000000000042c6 .LASF2785
C:\Users\SOLDER~1\AppData\Local\Temp\ccdovRCu.s:28648  .debug_str:0000000000020d5b .LASF2786
C:\Users\SOLDER~1\AppData\Local\Temp\ccdovRCu.s:26938  .debug_str:0000000000019e79 .LASF2787
C:\Users\SOLDER~1\AppData\Local\Temp\ccdovRCu.s:25256  .debug_str:000000000001309b .LASF2788
C:\Users\SOLDER~1\AppData\Local\Temp\ccdovRCu.s:25000  .debug_str:0000000000012028 .LASF2789
C:\Users\SOLDER~1\AppData\Local\Temp\ccdovRCu.s:23402  .debug_str:000000000000b7fa .LASF2790
C:\Users\SOLDER~1\AppData\Local\Temp\ccdovRCu.s:26152  .debug_str:0000000000016baa .LASF2791
C:\Users\SOLDER~1\AppData\Local\Temp\ccdovRCu.s:26138  .debug_str:0000000000016ab4 .LASF2792
C:\Users\SOLDER~1\AppData\Local\Temp\ccdovRCu.s:22512  .debug_str:0000000000007dc8 .LASF2793
C:\Users\SOLDER~1\AppData\Local\Temp\ccdovRCu.s:28746  .debug_str:00000000000213a9 .LASF2794
C:\Users\SOLDER~1\AppData\Local\Temp\ccdovRCu.s:28028  .debug_str:000000000001e506 .LASF2795
C:\Users\SOLDER~1\AppData\Local\Temp\ccdovRCu.s:25398  .debug_str:0000000000013a3c .LASF2796
C:\Users\SOLDER~1\AppData\Local\Temp\ccdovRCu.s:30838  .debug_str:0000000000029bbe .LASF2797
C:\Users\SOLDER~1\AppData\Local\Temp\ccdovRCu.s:20660  .debug_str:0000000000000615 .LASF2798
C:\Users\SOLDER~1\AppData\Local\Temp\ccdovRCu.s:29058  .debug_str:0000000000022745 .LASF2799
C:\Users\SOLDER~1\AppData\Local\Temp\ccdovRCu.s:28388  .debug_str:000000000001fcd4 .LASF2800
C:\Users\SOLDER~1\AppData\Local\Temp\ccdovRCu.s:27442  .debug_str:000000000001be62 .LASF2801
C:\Users\SOLDER~1\AppData\Local\Temp\ccdovRCu.s:26370  .debug_str:0000000000017975 .LASF2802
C:\Users\SOLDER~1\AppData\Local\Temp\ccdovRCu.s:25794  .debug_str:00000000000154c9 .LASF2803
C:\Users\SOLDER~1\AppData\Local\Temp\ccdovRCu.s:27826  .debug_str:000000000001d82f .LASF2804
C:\Users\SOLDER~1\AppData\Local\Temp\ccdovRCu.s:24130  .debug_str:000000000000e863 .LASF2805
C:\Users\SOLDER~1\AppData\Local\Temp\ccdovRCu.s:23046  .debug_str:000000000000a0b5 .LASF2806
C:\Users\SOLDER~1\AppData\Local\Temp\ccdovRCu.s:22412  .debug_str:000000000000775c .LASF2807
C:\Users\SOLDER~1\AppData\Local\Temp\ccdovRCu.s:21072  .debug_str:000000000000213a .LASF2808
C:\Users\SOLDER~1\AppData\Local\Temp\ccdovRCu.s:20782  .debug_str:0000000000000f04 .LASF2809
C:\Users\SOLDER~1\AppData\Local\Temp\ccdovRCu.s:22654  .debug_str:00000000000086f7 .LASF2810
C:\Users\SOLDER~1\AppData\Local\Temp\ccdovRCu.s:30726  .debug_str:00000000000294c8 .LASF2811
C:\Users\SOLDER~1\AppData\Local\Temp\ccdovRCu.s:31536  .debug_str:000000000002c97f .LASF2812
C:\Users\SOLDER~1\AppData\Local\Temp\ccdovRCu.s:21038  .debug_str:0000000000001f04 .LASF2813
C:\Users\SOLDER~1\AppData\Local\Temp\ccdovRCu.s:27684  .debug_str:000000000001cec0 .LASF2814
C:\Users\SOLDER~1\AppData\Local\Temp\ccdovRCu.s:28582  .debug_str:000000000002093e .LASF2815
C:\Users\SOLDER~1\AppData\Local\Temp\ccdovRCu.s:20966  .debug_str:0000000000001a82 .LASF2816
C:\Users\SOLDER~1\AppData\Local\Temp\ccdovRCu.s:28254  .debug_str:000000000001f41d .LASF2817
C:\Users\SOLDER~1\AppData\Local\Temp\ccdovRCu.s:26268  .debug_str:00000000000172ea .LASF2818
C:\Users\SOLDER~1\AppData\Local\Temp\ccdovRCu.s:28514  .debug_str:00000000000204aa .LASF2819
C:\Users\SOLDER~1\AppData\Local\Temp\ccdovRCu.s:22320  .debug_str:000000000000719b .LASF2820
GAS LISTING C:\Users\SOLDER~1\AppData\Local\Temp\ccdovRCu.s 			page 102


C:\Users\SOLDER~1\AppData\Local\Temp\ccdovRCu.s:28914  .debug_str:0000000000021e58 .LASF2821
C:\Users\SOLDER~1\AppData\Local\Temp\ccdovRCu.s:22524  .debug_str:0000000000007e94 .LASF2822
C:\Users\SOLDER~1\AppData\Local\Temp\ccdovRCu.s:21408  .debug_str:00000000000036c6 .LASF2823
C:\Users\SOLDER~1\AppData\Local\Temp\ccdovRCu.s:26736  .debug_str:000000000001915a .LASF2824
C:\Users\SOLDER~1\AppData\Local\Temp\ccdovRCu.s:29534  .debug_str:000000000002466d .LASF2825
C:\Users\SOLDER~1\AppData\Local\Temp\ccdovRCu.s:24926  .debug_str:0000000000011b59 .LASF2826
C:\Users\SOLDER~1\AppData\Local\Temp\ccdovRCu.s:21700  .debug_str:0000000000004955 .LASF2827
C:\Users\SOLDER~1\AppData\Local\Temp\ccdovRCu.s:29100  .debug_str:0000000000022a01 .LASF2828
C:\Users\SOLDER~1\AppData\Local\Temp\ccdovRCu.s:25850  .debug_str:000000000001587e .LASF2829
C:\Users\SOLDER~1\AppData\Local\Temp\ccdovRCu.s:30648  .debug_str:0000000000028fd5 .LASF2830
C:\Users\SOLDER~1\AppData\Local\Temp\ccdovRCu.s:28040  .debug_str:000000000001e5b3 .LASF2831
C:\Users\SOLDER~1\AppData\Local\Temp\ccdovRCu.s:32172  .debug_str:000000000002f1a0 .LASF2832
C:\Users\SOLDER~1\AppData\Local\Temp\ccdovRCu.s:26914  .debug_str:0000000000019ceb .LASF2833
C:\Users\SOLDER~1\AppData\Local\Temp\ccdovRCu.s:24848  .debug_str:0000000000011689 .LASF2834
C:\Users\SOLDER~1\AppData\Local\Temp\ccdovRCu.s:26130  .debug_str:0000000000016a27 .LASF2835
C:\Users\SOLDER~1\AppData\Local\Temp\ccdovRCu.s:22066  .debug_str:000000000000607d .LASF2836
C:\Users\SOLDER~1\AppData\Local\Temp\ccdovRCu.s:31254  .debug_str:000000000002b6ec .LASF2837
C:\Users\SOLDER~1\AppData\Local\Temp\ccdovRCu.s:24790  .debug_str:0000000000011292 .LASF2838
C:\Users\SOLDER~1\AppData\Local\Temp\ccdovRCu.s:21660  .debug_str:00000000000046ba .LASF2839
C:\Users\SOLDER~1\AppData\Local\Temp\ccdovRCu.s:30862  .debug_str:0000000000029d4f .LASF2840
C:\Users\SOLDER~1\AppData\Local\Temp\ccdovRCu.s:28224  .debug_str:000000000001f203 .LASF2841
C:\Users\SOLDER~1\AppData\Local\Temp\ccdovRCu.s:27638  .debug_str:000000000001cba1 .LASF2842
C:\Users\SOLDER~1\AppData\Local\Temp\ccdovRCu.s:28430  .debug_str:000000000001ff78 .LASF2843
C:\Users\SOLDER~1\AppData\Local\Temp\ccdovRCu.s:30238  .debug_str:0000000000027500 .LASF2844
C:\Users\SOLDER~1\AppData\Local\Temp\ccdovRCu.s:30576  .debug_str:0000000000028b4c .LASF2845
C:\Users\SOLDER~1\AppData\Local\Temp\ccdovRCu.s:24020  .debug_str:000000000000e0f6 .LASF2846
C:\Users\SOLDER~1\AppData\Local\Temp\ccdovRCu.s:27516  .debug_str:000000000001c360 .LASF2847
C:\Users\SOLDER~1\AppData\Local\Temp\ccdovRCu.s:32134  .debug_str:000000000002ef32 .LASF2848
C:\Users\SOLDER~1\AppData\Local\Temp\ccdovRCu.s:27568  .debug_str:000000000001c6db .LASF2849
C:\Users\SOLDER~1\AppData\Local\Temp\ccdovRCu.s:25446  .debug_str:0000000000013da7 .LASF2850
C:\Users\SOLDER~1\AppData\Local\Temp\ccdovRCu.s:31700  .debug_str:000000000002d433 .LASF2851
C:\Users\SOLDER~1\AppData\Local\Temp\ccdovRCu.s:23842  .debug_str:000000000000d592 .LASF2852
C:\Users\SOLDER~1\AppData\Local\Temp\ccdovRCu.s:23456  .debug_str:000000000000bba5 .LASF2853
C:\Users\SOLDER~1\AppData\Local\Temp\ccdovRCu.s:31000  .debug_str:000000000002a685 .LASF2854
C:\Users\SOLDER~1\AppData\Local\Temp\ccdovRCu.s:27200  .debug_str:000000000001af92 .LASF2855
C:\Users\SOLDER~1\AppData\Local\Temp\ccdovRCu.s:31382  .debug_str:000000000002bf58 .LASF2856
C:\Users\SOLDER~1\AppData\Local\Temp\ccdovRCu.s:23670  .debug_str:000000000000ca05 .LASF2857
C:\Users\SOLDER~1\AppData\Local\Temp\ccdovRCu.s:28132  .debug_str:000000000001ec12 .LASF2858
C:\Users\SOLDER~1\AppData\Local\Temp\ccdovRCu.s:21898  .debug_str:000000000000553d .LASF2859
C:\Users\SOLDER~1\AppData\Local\Temp\ccdovRCu.s:21432  .debug_str:0000000000003847 .LASF2860
C:\Users\SOLDER~1\AppData\Local\Temp\ccdovRCu.s:30220  .debug_str:00000000000273d5 .LASF2861
C:\Users\SOLDER~1\AppData\Local\Temp\ccdovRCu.s:22506  .debug_str:0000000000007d6b .LASF2862
C:\Users\SOLDER~1\AppData\Local\Temp\ccdovRCu.s:28738  .debug_str:000000000002130d .LASF2863
C:\Users\SOLDER~1\AppData\Local\Temp\ccdovRCu.s:28256  .debug_str:000000000001f43d .LASF2864
C:\Users\SOLDER~1\AppData\Local\Temp\ccdovRCu.s:25032  .debug_str:00000000000121ff .LASF2865
C:\Users\SOLDER~1\AppData\Local\Temp\ccdovRCu.s:23552  .debug_str:000000000000c1c2 .LASF2866
C:\Users\SOLDER~1\AppData\Local\Temp\ccdovRCu.s:24732  .debug_str:0000000000010eee .LASF2867
C:\Users\SOLDER~1\AppData\Local\Temp\ccdovRCu.s:25312  .debug_str:0000000000013450 .LASF2868
C:\Users\SOLDER~1\AppData\Local\Temp\ccdovRCu.s:32040  .debug_str:000000000002e952 .LASF2869
C:\Users\SOLDER~1\AppData\Local\Temp\ccdovRCu.s:25324  .debug_str:0000000000013528 .LASF2870
C:\Users\SOLDER~1\AppData\Local\Temp\ccdovRCu.s:31518  .debug_str:000000000002c856 .LASF2871
C:\Users\SOLDER~1\AppData\Local\Temp\ccdovRCu.s:31634  .debug_str:000000000002cf7b .LASF2872
C:\Users\SOLDER~1\AppData\Local\Temp\ccdovRCu.s:27212  .debug_str:000000000001b05b .LASF2873
C:\Users\SOLDER~1\AppData\Local\Temp\ccdovRCu.s:31548  .debug_str:000000000002ca51 .LASF2874
C:\Users\SOLDER~1\AppData\Local\Temp\ccdovRCu.s:28714  .debug_str:000000000002116c .LASF2875
C:\Users\SOLDER~1\AppData\Local\Temp\ccdovRCu.s:24332  .debug_str:000000000000f4d4 .LASF2876
C:\Users\SOLDER~1\AppData\Local\Temp\ccdovRCu.s:24434  .debug_str:000000000000fbc3 .LASF2877
GAS LISTING C:\Users\SOLDER~1\AppData\Local\Temp\ccdovRCu.s 			page 103


C:\Users\SOLDER~1\AppData\Local\Temp\ccdovRCu.s:24344  .debug_str:000000000000f5a0 .LASF2878
C:\Users\SOLDER~1\AppData\Local\Temp\ccdovRCu.s:26364  .debug_str:0000000000017933 .LASF2879
C:\Users\SOLDER~1\AppData\Local\Temp\ccdovRCu.s:22090  .debug_str:0000000000006236 .LASF2880
C:\Users\SOLDER~1\AppData\Local\Temp\ccdovRCu.s:23856  .debug_str:000000000000d679 .LASF2881
C:\Users\SOLDER~1\AppData\Local\Temp\ccdovRCu.s:27978  .debug_str:000000000001e1dc .LASF2882
C:\Users\SOLDER~1\AppData\Local\Temp\ccdovRCu.s:31218  .debug_str:000000000002b4c3 .LASF2883
C:\Users\SOLDER~1\AppData\Local\Temp\ccdovRCu.s:22334  .debug_str:000000000000727c .LASF2884
C:\Users\SOLDER~1\AppData\Local\Temp\ccdovRCu.s:29400  .debug_str:0000000000023d84 .LASF2885
C:\Users\SOLDER~1\AppData\Local\Temp\ccdovRCu.s:22010  .debug_str:0000000000005cbe .LASF2886
C:\Users\SOLDER~1\AppData\Local\Temp\ccdovRCu.s:22624  .debug_str:0000000000008500 .LASF2887
C:\Users\SOLDER~1\AppData\Local\Temp\ccdovRCu.s:23338  .debug_str:000000000000b3fd .LASF2888
C:\Users\SOLDER~1\AppData\Local\Temp\ccdovRCu.s:23388  .debug_str:000000000000b736 .LASF2889
C:\Users\SOLDER~1\AppData\Local\Temp\ccdovRCu.s:22322  .debug_str:00000000000071bb .LASF2890
C:\Users\SOLDER~1\AppData\Local\Temp\ccdovRCu.s:21358  .debug_str:00000000000033ac .LASF2891
C:\Users\SOLDER~1\AppData\Local\Temp\ccdovRCu.s:24048  .debug_str:000000000000e326 .LASF2892
C:\Users\SOLDER~1\AppData\Local\Temp\ccdovRCu.s:26098  .debug_str:0000000000016816 .LASF2893
C:\Users\SOLDER~1\AppData\Local\Temp\ccdovRCu.s:31844  .debug_str:000000000002dd38 .LASF2894
C:\Users\SOLDER~1\AppData\Local\Temp\ccdovRCu.s:23244  .debug_str:000000000000ae00 .LASF2895
C:\Users\SOLDER~1\AppData\Local\Temp\ccdovRCu.s:30924  .debug_str:000000000002a161 .LASF2896
C:\Users\SOLDER~1\AppData\Local\Temp\ccdovRCu.s:31922  .debug_str:000000000002e244 .LASF2897
C:\Users\SOLDER~1\AppData\Local\Temp\ccdovRCu.s:31710  .debug_str:000000000002d4d8 .LASF2898
C:\Users\SOLDER~1\AppData\Local\Temp\ccdovRCu.s:21846  .debug_str:000000000000523b .LASF2899
C:\Users\SOLDER~1\AppData\Local\Temp\ccdovRCu.s:22820  .debug_str:00000000000091f5 .LASF2900
C:\Users\SOLDER~1\AppData\Local\Temp\ccdovRCu.s:27828  .debug_str:000000000001d857 .LASF2901
C:\Users\SOLDER~1\AppData\Local\Temp\ccdovRCu.s:23740  .debug_str:000000000000ced7 .LASF2902
C:\Users\SOLDER~1\AppData\Local\Temp\ccdovRCu.s:25590  .debug_str:000000000001479d .LASF2903
C:\Users\SOLDER~1\AppData\Local\Temp\ccdovRCu.s:30562  .debug_str:0000000000028a53 .LASF2904
C:\Users\SOLDER~1\AppData\Local\Temp\ccdovRCu.s:23008  .debug_str:0000000000009e35 .LASF2905
C:\Users\SOLDER~1\AppData\Local\Temp\ccdovRCu.s:30664  .debug_str:00000000000290d4 .LASF2906
C:\Users\SOLDER~1\AppData\Local\Temp\ccdovRCu.s:26646  .debug_str:0000000000018b22 .LASF2907
C:\Users\SOLDER~1\AppData\Local\Temp\ccdovRCu.s:24062  .debug_str:000000000000e421 .LASF2908
C:\Users\SOLDER~1\AppData\Local\Temp\ccdovRCu.s:28830  .debug_str:0000000000021918 .LASF2909
C:\Users\SOLDER~1\AppData\Local\Temp\ccdovRCu.s:29584  .debug_str:00000000000249c6 .LASF2910
C:\Users\SOLDER~1\AppData\Local\Temp\ccdovRCu.s:24876  .debug_str:0000000000011822 .LASF2911
C:\Users\SOLDER~1\AppData\Local\Temp\ccdovRCu.s:23958  .debug_str:000000000000dcd8 .LASF2912
C:\Users\SOLDER~1\AppData\Local\Temp\ccdovRCu.s:24296  .debug_str:000000000000f2ba .LASF2913
C:\Users\SOLDER~1\AppData\Local\Temp\ccdovRCu.s:21238  .debug_str:0000000000002bdb .LASF2914
C:\Users\SOLDER~1\AppData\Local\Temp\ccdovRCu.s:26634  .debug_str:0000000000018a71 .LASF2915
C:\Users\SOLDER~1\AppData\Local\Temp\ccdovRCu.s:20650  .debug_str:0000000000000567 .LASF2916
C:\Users\SOLDER~1\AppData\Local\Temp\ccdovRCu.s:29314  .debug_str:000000000002380e .LASF2917
C:\Users\SOLDER~1\AppData\Local\Temp\ccdovRCu.s:24070  .debug_str:000000000000e4a8 .LASF2918
C:\Users\SOLDER~1\AppData\Local\Temp\ccdovRCu.s:28250  .debug_str:000000000001f3e3 .LASF2919
C:\Users\SOLDER~1\AppData\Local\Temp\ccdovRCu.s:29552  .debug_str:0000000000024792 .LASF2920
C:\Users\SOLDER~1\AppData\Local\Temp\ccdovRCu.s:27946  .debug_str:000000000001dfa7 .LASF2921
C:\Users\SOLDER~1\AppData\Local\Temp\ccdovRCu.s:24548  .debug_str:0000000000010308 .LASF2922
C:\Users\SOLDER~1\AppData\Local\Temp\ccdovRCu.s:29608  .debug_str:0000000000024b6d .LASF2923
C:\Users\SOLDER~1\AppData\Local\Temp\ccdovRCu.s:26708  .debug_str:0000000000018f7e .LASF2924
C:\Users\SOLDER~1\AppData\Local\Temp\ccdovRCu.s:26256  .debug_str:0000000000017220 .LASF2925
C:\Users\SOLDER~1\AppData\Local\Temp\ccdovRCu.s:25536  .debug_str:00000000000143f4 .LASF2926
C:\Users\SOLDER~1\AppData\Local\Temp\ccdovRCu.s:23850  .debug_str:000000000000d617 .LASF2927
C:\Users\SOLDER~1\AppData\Local\Temp\ccdovRCu.s:24146  .debug_str:000000000000e97c .LASF2928
C:\Users\SOLDER~1\AppData\Local\Temp\ccdovRCu.s:26494  .debug_str:000000000001818b .LASF2929
C:\Users\SOLDER~1\AppData\Local\Temp\ccdovRCu.s:27960  .debug_str:000000000001e097 .LASF2930
C:\Users\SOLDER~1\AppData\Local\Temp\ccdovRCu.s:29662  .debug_str:0000000000024ef4 .LASF2931
C:\Users\SOLDER~1\AppData\Local\Temp\ccdovRCu.s:30180  .debug_str:0000000000027140 .LASF2932
C:\Users\SOLDER~1\AppData\Local\Temp\ccdovRCu.s:30574  .debug_str:0000000000028b23 .LASF2933
C:\Users\SOLDER~1\AppData\Local\Temp\ccdovRCu.s:27836  .debug_str:000000000001d8bf .LASF2934
GAS LISTING C:\Users\SOLDER~1\AppData\Local\Temp\ccdovRCu.s 			page 104


C:\Users\SOLDER~1\AppData\Local\Temp\ccdovRCu.s:26632  .debug_str:0000000000018a57 .LASF2935
C:\Users\SOLDER~1\AppData\Local\Temp\ccdovRCu.s:29716  .debug_str:0000000000025272 .LASF2936
C:\Users\SOLDER~1\AppData\Local\Temp\ccdovRCu.s:20576  .debug_str:00000000000000ba .LASF2937
C:\Users\SOLDER~1\AppData\Local\Temp\ccdovRCu.s:29970  .debug_str:0000000000026345 .LASF2938
C:\Users\SOLDER~1\AppData\Local\Temp\ccdovRCu.s:20838  .debug_str:000000000000124f .LASF2939
C:\Users\SOLDER~1\AppData\Local\Temp\ccdovRCu.s:21732  .debug_str:0000000000004b47 .LASF2940
C:\Users\SOLDER~1\AppData\Local\Temp\ccdovRCu.s:22450  .debug_str:00000000000079b0 .LASF2941
C:\Users\SOLDER~1\AppData\Local\Temp\ccdovRCu.s:29490  .debug_str:0000000000024381 .LASF2942
C:\Users\SOLDER~1\AppData\Local\Temp\ccdovRCu.s:29378  .debug_str:0000000000023c18 .LASF2943
C:\Users\SOLDER~1\AppData\Local\Temp\ccdovRCu.s:22648  .debug_str:0000000000008678 .LASF2944
C:\Users\SOLDER~1\AppData\Local\Temp\ccdovRCu.s:25406  .debug_str:0000000000013af8 .LASF2945
C:\Users\SOLDER~1\AppData\Local\Temp\ccdovRCu.s:26986  .debug_str:000000000001a160 .LASF2946
C:\Users\SOLDER~1\AppData\Local\Temp\ccdovRCu.s:26062  .debug_str:000000000001663d .LASF2947
C:\Users\SOLDER~1\AppData\Local\Temp\ccdovRCu.s:26526  .debug_str:0000000000018397 .LASF2948
C:\Users\SOLDER~1\AppData\Local\Temp\ccdovRCu.s:26788  .debug_str:00000000000194b0 .LASF2949
C:\Users\SOLDER~1\AppData\Local\Temp\ccdovRCu.s:25192  .debug_str:0000000000012c6a .LASF2950
C:\Users\SOLDER~1\AppData\Local\Temp\ccdovRCu.s:26886  .debug_str:0000000000019b03 .LASF2951
C:\Users\SOLDER~1\AppData\Local\Temp\ccdovRCu.s:21326  .debug_str:00000000000031a2 .LASF2952
C:\Users\SOLDER~1\AppData\Local\Temp\ccdovRCu.s:20778  .debug_str:0000000000000ec5 .LASF2953
C:\Users\SOLDER~1\AppData\Local\Temp\ccdovRCu.s:26694  .debug_str:0000000000018e79 .LASF2954
C:\Users\SOLDER~1\AppData\Local\Temp\ccdovRCu.s:29952  .debug_str:000000000002621d .LASF2955
C:\Users\SOLDER~1\AppData\Local\Temp\ccdovRCu.s:30694  .debug_str:0000000000029293 .LASF2956
C:\Users\SOLDER~1\AppData\Local\Temp\ccdovRCu.s:21140  .debug_str:00000000000025c1 .LASF2957
C:\Users\SOLDER~1\AppData\Local\Temp\ccdovRCu.s:24282  .debug_str:000000000000f1da .LASF2958
C:\Users\SOLDER~1\AppData\Local\Temp\ccdovRCu.s:31676  .debug_str:000000000002d259 .LASF2959
C:\Users\SOLDER~1\AppData\Local\Temp\ccdovRCu.s:24822  .debug_str:00000000000114c2 .LASF2960
C:\Users\SOLDER~1\AppData\Local\Temp\ccdovRCu.s:26302  .debug_str:000000000001752a .LASF2961
C:\Users\SOLDER~1\AppData\Local\Temp\ccdovRCu.s:22194  .debug_str:000000000000694d .LASF2962
C:\Users\SOLDER~1\AppData\Local\Temp\ccdovRCu.s:21940  .debug_str:000000000000582e .LASF2963
C:\Users\SOLDER~1\AppData\Local\Temp\ccdovRCu.s:29680  .debug_str:000000000002501a .LASF2964
C:\Users\SOLDER~1\AppData\Local\Temp\ccdovRCu.s:32106  .debug_str:000000000002ed99 .LASF2965
C:\Users\SOLDER~1\AppData\Local\Temp\ccdovRCu.s:22058  .debug_str:0000000000005feb .LASF2966
C:\Users\SOLDER~1\AppData\Local\Temp\ccdovRCu.s:20590  .debug_str:0000000000000171 .LASF2967
C:\Users\SOLDER~1\AppData\Local\Temp\ccdovRCu.s:30080  .debug_str:0000000000026aca .LASF2968
C:\Users\SOLDER~1\AppData\Local\Temp\ccdovRCu.s:28968  .debug_str:00000000000221c4 .LASF2969
C:\Users\SOLDER~1\AppData\Local\Temp\ccdovRCu.s:25818  .debug_str:000000000001565c .LASF2970
C:\Users\SOLDER~1\AppData\Local\Temp\ccdovRCu.s:24378  .debug_str:000000000000f7d0 .LASF2971
C:\Users\SOLDER~1\AppData\Local\Temp\ccdovRCu.s:29240  .debug_str:000000000002332c .LASF2972
C:\Users\SOLDER~1\AppData\Local\Temp\ccdovRCu.s:23214  .debug_str:000000000000ac11 .LASF2973
C:\Users\SOLDER~1\AppData\Local\Temp\ccdovRCu.s:21028  .debug_str:0000000000001e58 .LASF2974
C:\Users\SOLDER~1\AppData\Local\Temp\ccdovRCu.s:25318  .debug_str:00000000000134b5 .LASF2975
C:\Users\SOLDER~1\AppData\Local\Temp\ccdovRCu.s:22874  .debug_str:0000000000009576 .LASF2976
C:\Users\SOLDER~1\AppData\Local\Temp\ccdovRCu.s:29026  .debug_str:000000000002250d .LASF2977
C:\Users\SOLDER~1\AppData\Local\Temp\ccdovRCu.s:31680  .debug_str:000000000002d2a9 .LASF2978
C:\Users\SOLDER~1\AppData\Local\Temp\ccdovRCu.s:23584  .debug_str:000000000000c40c .LASF2979
C:\Users\SOLDER~1\AppData\Local\Temp\ccdovRCu.s:29252  .debug_str:00000000000233e8 .LASF2980
C:\Users\SOLDER~1\AppData\Local\Temp\ccdovRCu.s:23164  .debug_str:000000000000a8b6 .LASF2981
C:\Users\SOLDER~1\AppData\Local\Temp\ccdovRCu.s:31662  .debug_str:000000000002d161 .LASF2982
C:\Users\SOLDER~1\AppData\Local\Temp\ccdovRCu.s:26006  .debug_str:0000000000016294 .LASF2983
C:\Users\SOLDER~1\AppData\Local\Temp\ccdovRCu.s:30452  .debug_str:0000000000028315 .LASF2984
C:\Users\SOLDER~1\AppData\Local\Temp\ccdovRCu.s:26816  .debug_str:00000000000196b0 .LASF2985
C:\Users\SOLDER~1\AppData\Local\Temp\ccdovRCu.s:21524  .debug_str:0000000000003e20 .LASF2986
C:\Users\SOLDER~1\AppData\Local\Temp\ccdovRCu.s:31572  .debug_str:000000000002cb9f .LASF2987
C:\Users\SOLDER~1\AppData\Local\Temp\ccdovRCu.s:21044  .debug_str:0000000000001f73 .LASF2988
C:\Users\SOLDER~1\AppData\Local\Temp\ccdovRCu.s:24642  .debug_str:0000000000010925 .LASF2989
C:\Users\SOLDER~1\AppData\Local\Temp\ccdovRCu.s:21972  .debug_str:0000000000005a49 .LASF2990
C:\Users\SOLDER~1\AppData\Local\Temp\ccdovRCu.s:32070  .debug_str:000000000002eb5c .LASF2991
GAS LISTING C:\Users\SOLDER~1\AppData\Local\Temp\ccdovRCu.s 			page 105


C:\Users\SOLDER~1\AppData\Local\Temp\ccdovRCu.s:21070  .debug_str:0000000000002112 .LASF2992
C:\Users\SOLDER~1\AppData\Local\Temp\ccdovRCu.s:30210  .debug_str:0000000000027323 .LASF2993
C:\Users\SOLDER~1\AppData\Local\Temp\ccdovRCu.s:23110  .debug_str:000000000000a502 .LASF2994
C:\Users\SOLDER~1\AppData\Local\Temp\ccdovRCu.s:21258  .debug_str:0000000000002d40 .LASF2995
C:\Users\SOLDER~1\AppData\Local\Temp\ccdovRCu.s:30024  .debug_str:000000000002672f .LASF2996
C:\Users\SOLDER~1\AppData\Local\Temp\ccdovRCu.s:23952  .debug_str:000000000000dc65 .LASF2997
C:\Users\SOLDER~1\AppData\Local\Temp\ccdovRCu.s:25480  .debug_str:0000000000014010 .LASF2998
C:\Users\SOLDER~1\AppData\Local\Temp\ccdovRCu.s:29994  .debug_str:00000000000264ff .LASF2999
C:\Users\SOLDER~1\AppData\Local\Temp\ccdovRCu.s:21064  .debug_str:000000000000209e .LASF3000
C:\Users\SOLDER~1\AppData\Local\Temp\ccdovRCu.s:27086  .debug_str:000000000001a7c8 .LASF3001
C:\Users\SOLDER~1\AppData\Local\Temp\ccdovRCu.s:25360  .debug_str:000000000001378d .LASF3002
C:\Users\SOLDER~1\AppData\Local\Temp\ccdovRCu.s:28980  .debug_str:0000000000022276 .LASF3003
C:\Users\SOLDER~1\AppData\Local\Temp\ccdovRCu.s:27852  .debug_str:000000000001d9a7 .LASF3004
C:\Users\SOLDER~1\AppData\Local\Temp\ccdovRCu.s:29636  .debug_str:0000000000024d4d .LASF3005
C:\Users\SOLDER~1\AppData\Local\Temp\ccdovRCu.s:23192  .debug_str:000000000000aab6 .LASF3006
C:\Users\SOLDER~1\AppData\Local\Temp\ccdovRCu.s:29034  .debug_str:0000000000022592 .LASF3007
C:\Users\SOLDER~1\AppData\Local\Temp\ccdovRCu.s:26748  .debug_str:0000000000019225 .LASF3008
C:\Users\SOLDER~1\AppData\Local\Temp\ccdovRCu.s:31574  .debug_str:000000000002cbb8 .LASF3009
C:\Users\SOLDER~1\AppData\Local\Temp\ccdovRCu.s:27122  .debug_str:000000000001aa4d .LASF3010
C:\Users\SOLDER~1\AppData\Local\Temp\ccdovRCu.s:31804  .debug_str:000000000002dadb .LASF3011
C:\Users\SOLDER~1\AppData\Local\Temp\ccdovRCu.s:28436  .debug_str:000000000001ffbf .LASF3012
C:\Users\SOLDER~1\AppData\Local\Temp\ccdovRCu.s:22898  .debug_str:00000000000096ec .LASF3013
C:\Users\SOLDER~1\AppData\Local\Temp\ccdovRCu.s:24572  .debug_str:00000000000104c3 .LASF3014
C:\Users\SOLDER~1\AppData\Local\Temp\ccdovRCu.s:25464  .debug_str:0000000000013efa .LASF3015
C:\Users\SOLDER~1\AppData\Local\Temp\ccdovRCu.s:26454  .debug_str:0000000000017ed3 .LASF3016
C:\Users\SOLDER~1\AppData\Local\Temp\ccdovRCu.s:23530  .debug_str:000000000000c053 .LASF3017
C:\Users\SOLDER~1\AppData\Local\Temp\ccdovRCu.s:22928  .debug_str:00000000000098f5 .LASF3018
C:\Users\SOLDER~1\AppData\Local\Temp\ccdovRCu.s:21624  .debug_str:000000000000446e .LASF3019
C:\Users\SOLDER~1\AppData\Local\Temp\ccdovRCu.s:32016  .debug_str:000000000002e7de .LASF3020
C:\Users\SOLDER~1\AppData\Local\Temp\ccdovRCu.s:31344  .debug_str:000000000002bced .LASF3021
C:\Users\SOLDER~1\AppData\Local\Temp\ccdovRCu.s:27954  .debug_str:000000000001e030 .LASF3022
C:\Users\SOLDER~1\AppData\Local\Temp\ccdovRCu.s:29916  .debug_str:0000000000025f89 .LASF3023
C:\Users\SOLDER~1\AppData\Local\Temp\ccdovRCu.s:27256  .debug_str:000000000001b2e5 .LASF3024
C:\Users\SOLDER~1\AppData\Local\Temp\ccdovRCu.s:27604  .debug_str:000000000001c955 .LASF3025
C:\Users\SOLDER~1\AppData\Local\Temp\ccdovRCu.s:21158  .debug_str:00000000000026d5 .LASF3026
C:\Users\SOLDER~1\AppData\Local\Temp\ccdovRCu.s:25708  .debug_str:0000000000014f56 .LASF3027
C:\Users\SOLDER~1\AppData\Local\Temp\ccdovRCu.s:30298  .debug_str:00000000000278df .LASF3028
C:\Users\SOLDER~1\AppData\Local\Temp\ccdovRCu.s:23780  .debug_str:000000000000d188 .LASF3029
C:\Users\SOLDER~1\AppData\Local\Temp\ccdovRCu.s:25660  .debug_str:0000000000014c3d .LASF3030
C:\Users\SOLDER~1\AppData\Local\Temp\ccdovRCu.s:31998  .debug_str:000000000002e6ca .LASF3031
C:\Users\SOLDER~1\AppData\Local\Temp\ccdovRCu.s:22818  .debug_str:00000000000091d3 .LASF3032
C:\Users\SOLDER~1\AppData\Local\Temp\ccdovRCu.s:31596  .debug_str:000000000002cd19 .LASF3033
C:\Users\SOLDER~1\AppData\Local\Temp\ccdovRCu.s:25092  .debug_str:00000000000125f9 .LASF3034
C:\Users\SOLDER~1\AppData\Local\Temp\ccdovRCu.s:30968  .debug_str:000000000002a462 .LASF3035
C:\Users\SOLDER~1\AppData\Local\Temp\ccdovRCu.s:23062  .debug_str:000000000000a1e0 .LASF3036
C:\Users\SOLDER~1\AppData\Local\Temp\ccdovRCu.s:29206  .debug_str:00000000000230fe .LASF3037
C:\Users\SOLDER~1\AppData\Local\Temp\ccdovRCu.s:20968  .debug_str:0000000000001aad .LASF3038
C:\Users\SOLDER~1\AppData\Local\Temp\ccdovRCu.s:21022  .debug_str:0000000000001e0a .LASF3039
C:\Users\SOLDER~1\AppData\Local\Temp\ccdovRCu.s:21196  .debug_str:0000000000002989 .LASF3040
C:\Users\SOLDER~1\AppData\Local\Temp\ccdovRCu.s:25952  .debug_str:0000000000015eff .LASF3041
C:\Users\SOLDER~1\AppData\Local\Temp\ccdovRCu.s:24648  .debug_str:00000000000109a0 .LASF3042
C:\Users\SOLDER~1\AppData\Local\Temp\ccdovRCu.s:24190  .debug_str:000000000000ec0d .LASF3043
C:\Users\SOLDER~1\AppData\Local\Temp\ccdovRCu.s:26774  .debug_str:00000000000193bb .LASF3044
C:\Users\SOLDER~1\AppData\Local\Temp\ccdovRCu.s:22552  .debug_str:000000000000806c .LASF3045
C:\Users\SOLDER~1\AppData\Local\Temp\ccdovRCu.s:23852  .debug_str:000000000000d631 .LASF3046
C:\Users\SOLDER~1\AppData\Local\Temp\ccdovRCu.s:26516  .debug_str:000000000001830f .LASF3047
C:\Users\SOLDER~1\AppData\Local\Temp\ccdovRCu.s:29182  .debug_str:0000000000022f7d .LASF3048
GAS LISTING C:\Users\SOLDER~1\AppData\Local\Temp\ccdovRCu.s 			page 106


C:\Users\SOLDER~1\AppData\Local\Temp\ccdovRCu.s:25022  .debug_str:0000000000012161 .LASF3049
C:\Users\SOLDER~1\AppData\Local\Temp\ccdovRCu.s:28338  .debug_str:000000000001f9b5 .LASF3050
C:\Users\SOLDER~1\AppData\Local\Temp\ccdovRCu.s:22672  .debug_str:000000000000880e .LASF3051
C:\Users\SOLDER~1\AppData\Local\Temp\ccdovRCu.s:23520  .debug_str:000000000000bfa6 .LASF3052
C:\Users\SOLDER~1\AppData\Local\Temp\ccdovRCu.s:20860  .debug_str:00000000000013b8 .LASF3053
C:\Users\SOLDER~1\AppData\Local\Temp\ccdovRCu.s:31958  .debug_str:000000000002e472 .LASF3054
C:\Users\SOLDER~1\AppData\Local\Temp\ccdovRCu.s:30548  .debug_str:000000000002894c .LASF3055
C:\Users\SOLDER~1\AppData\Local\Temp\ccdovRCu.s:25836  .debug_str:000000000001578e .LASF3056
C:\Users\SOLDER~1\AppData\Local\Temp\ccdovRCu.s:28610  .debug_str:0000000000020af0 .LASF3057
C:\Users\SOLDER~1\AppData\Local\Temp\ccdovRCu.s:23540  .debug_str:000000000000c0ec .LASF3058
C:\Users\SOLDER~1\AppData\Local\Temp\ccdovRCu.s:25726  .debug_str:000000000001506d .LASF3059
C:\Users\SOLDER~1\AppData\Local\Temp\ccdovRCu.s:22692  .debug_str:000000000000893b .LASF3060
C:\Users\SOLDER~1\AppData\Local\Temp\ccdovRCu.s:24814  .debug_str:000000000001141f .LASF3061
C:\Users\SOLDER~1\AppData\Local\Temp\ccdovRCu.s:26956  .debug_str:0000000000019f6a .LASF3062
C:\Users\SOLDER~1\AppData\Local\Temp\ccdovRCu.s:20988  .debug_str:0000000000001c01 .LASF3063
C:\Users\SOLDER~1\AppData\Local\Temp\ccdovRCu.s:21514  .debug_str:0000000000003d79 .LASF3064
C:\Users\SOLDER~1\AppData\Local\Temp\ccdovRCu.s:30218  .debug_str:00000000000273bc .LASF3065
C:\Users\SOLDER~1\AppData\Local\Temp\ccdovRCu.s:26458  .debug_str:0000000000017f21 .LASF3066
C:\Users\SOLDER~1\AppData\Local\Temp\ccdovRCu.s:27340  .debug_str:000000000001b833 .LASF3067
C:\Users\SOLDER~1\AppData\Local\Temp\ccdovRCu.s:24670  .debug_str:0000000000010b1f .LASF3068
C:\Users\SOLDER~1\AppData\Local\Temp\ccdovRCu.s:26568  .debug_str:0000000000018630 .LASF3069
C:\Users\SOLDER~1\AppData\Local\Temp\ccdovRCu.s:31240  .debug_str:000000000002b616 .LASF3070
C:\Users\SOLDER~1\AppData\Local\Temp\ccdovRCu.s:27354  .debug_str:000000000001b912 .LASF3071
C:\Users\SOLDER~1\AppData\Local\Temp\ccdovRCu.s:22920  .debug_str:0000000000009864 .LASF3072
C:\Users\SOLDER~1\AppData\Local\Temp\ccdovRCu.s:31066  .debug_str:000000000002aab1 .LASF3073
C:\Users\SOLDER~1\AppData\Local\Temp\ccdovRCu.s:30564  .debug_str:0000000000028a7d .LASF3074
C:\Users\SOLDER~1\AppData\Local\Temp\ccdovRCu.s:31586  .debug_str:000000000002cc7e .LASF3075
C:\Users\SOLDER~1\AppData\Local\Temp\ccdovRCu.s:28032  .debug_str:000000000001e53a .LASF3076
C:\Users\SOLDER~1\AppData\Local\Temp\ccdovRCu.s:31470  .debug_str:000000000002c574 .LASF3077
C:\Users\SOLDER~1\AppData\Local\Temp\ccdovRCu.s:22532  .debug_str:0000000000007f17 .LASF3078
C:\Users\SOLDER~1\AppData\Local\Temp\ccdovRCu.s:27844  .debug_str:000000000001d94d .LASF3079
C:\Users\SOLDER~1\AppData\Local\Temp\ccdovRCu.s:30528  .debug_str:000000000002880a .LASF3080
C:\Users\SOLDER~1\AppData\Local\Temp\ccdovRCu.s:23432  .debug_str:000000000000ba06 .LASF3081
C:\Users\SOLDER~1\AppData\Local\Temp\ccdovRCu.s:30808  .debug_str:0000000000029a20 .LASF3082
C:\Users\SOLDER~1\AppData\Local\Temp\ccdovRCu.s:21518  .debug_str:0000000000003dc1 .LASF3083
C:\Users\SOLDER~1\AppData\Local\Temp\ccdovRCu.s:22084  .debug_str:00000000000061cf .LASF3084
C:\Users\SOLDER~1\AppData\Local\Temp\ccdovRCu.s:30774  .debug_str:00000000000297fb .LASF3085
C:\Users\SOLDER~1\AppData\Local\Temp\ccdovRCu.s:25792  .debug_str:00000000000154a4 .LASF3086
C:\Users\SOLDER~1\AppData\Local\Temp\ccdovRCu.s:29286  .debug_str:000000000002364f .LASF3087
C:\Users\SOLDER~1\AppData\Local\Temp\ccdovRCu.s:25758  .debug_str:0000000000015254 .LASF3088
C:\Users\SOLDER~1\AppData\Local\Temp\ccdovRCu.s:27418  .debug_str:000000000001bcf7 .LASF3089
C:\Users\SOLDER~1\AppData\Local\Temp\ccdovRCu.s:26508  .debug_str:0000000000018280 .LASF3090
C:\Users\SOLDER~1\AppData\Local\Temp\ccdovRCu.s:30730  .debug_str:000000000002950a .LASF3091
C:\Users\SOLDER~1\AppData\Local\Temp\ccdovRCu.s:21932  .debug_str:0000000000005790 .LASF3092
C:\Users\SOLDER~1\AppData\Local\Temp\ccdovRCu.s:23668  .debug_str:000000000000c9ee .LASF3093
C:\Users\SOLDER~1\AppData\Local\Temp\ccdovRCu.s:25958  .debug_str:0000000000015f65 .LASF3094
C:\Users\SOLDER~1\AppData\Local\Temp\ccdovRCu.s:26012  .debug_str:00000000000162f9 .LASF3095
C:\Users\SOLDER~1\AppData\Local\Temp\ccdovRCu.s:28382  .debug_str:000000000001fc7d .LASF3096
C:\Users\SOLDER~1\AppData\Local\Temp\ccdovRCu.s:31484  .debug_str:000000000002c647 .LASF3097
C:\Users\SOLDER~1\AppData\Local\Temp\ccdovRCu.s:24256  .debug_str:000000000000f051 .LASF3098
C:\Users\SOLDER~1\AppData\Local\Temp\ccdovRCu.s:26046  .debug_str:000000000001651e .LASF3099
C:\Users\SOLDER~1\AppData\Local\Temp\ccdovRCu.s:31328  .debug_str:000000000002bbe4 .LASF3100
C:\Users\SOLDER~1\AppData\Local\Temp\ccdovRCu.s:24894  .debug_str:0000000000011967 .LASF3101
C:\Users\SOLDER~1\AppData\Local\Temp\ccdovRCu.s:24214  .debug_str:000000000000ed9f .LASF3102
C:\Users\SOLDER~1\AppData\Local\Temp\ccdovRCu.s:25814  .debug_str:0000000000015623 .LASF3103
C:\Users\SOLDER~1\AppData\Local\Temp\ccdovRCu.s:23266  .debug_str:000000000000af84 .LASF3104
C:\Users\SOLDER~1\AppData\Local\Temp\ccdovRCu.s:24100  .debug_str:000000000000e675 .LASF3105
GAS LISTING C:\Users\SOLDER~1\AppData\Local\Temp\ccdovRCu.s 			page 107


C:\Users\SOLDER~1\AppData\Local\Temp\ccdovRCu.s:31038  .debug_str:000000000002a90c .LASF3106
C:\Users\SOLDER~1\AppData\Local\Temp\ccdovRCu.s:22436  .debug_str:00000000000078ae .LASF3107
C:\Users\SOLDER~1\AppData\Local\Temp\ccdovRCu.s:28850  .debug_str:0000000000021a56 .LASF3108
C:\Users\SOLDER~1\AppData\Local\Temp\ccdovRCu.s:20802  .debug_str:0000000000001040 .LASF3109
C:\Users\SOLDER~1\AppData\Local\Temp\ccdovRCu.s:25872  .debug_str:00000000000159ea .LASF3110
C:\Users\SOLDER~1\AppData\Local\Temp\ccdovRCu.s:21536  .debug_str:0000000000003ef5 .LASF3111
C:\Users\SOLDER~1\AppData\Local\Temp\ccdovRCu.s:29710  .debug_str:0000000000025208 .LASF3112
C:\Users\SOLDER~1\AppData\Local\Temp\ccdovRCu.s:29382  .debug_str:0000000000023c57 .LASF3113
C:\Users\SOLDER~1\AppData\Local\Temp\ccdovRCu.s:27738  .debug_str:000000000001d239 .LASF3114
C:\Users\SOLDER~1\AppData\Local\Temp\ccdovRCu.s:27674  .debug_str:000000000001ce25 .LASF3115
C:\Users\SOLDER~1\AppData\Local\Temp\ccdovRCu.s:29292  .debug_str:00000000000236b9 .LASF3116
C:\Users\SOLDER~1\AppData\Local\Temp\ccdovRCu.s:24500  .debug_str:0000000000010053 .LASF3117
C:\Users\SOLDER~1\AppData\Local\Temp\ccdovRCu.s:31360  .debug_str:000000000002bde0 .LASF3118
C:\Users\SOLDER~1\AppData\Local\Temp\ccdovRCu.s:27158  .debug_str:000000000001ac74 .LASF3119
C:\Users\SOLDER~1\AppData\Local\Temp\ccdovRCu.s:27908  .debug_str:000000000001dd0b .LASF3120
C:\Users\SOLDER~1\AppData\Local\Temp\ccdovRCu.s:25430  .debug_str:0000000000013caf .LASF3121
C:\Users\SOLDER~1\AppData\Local\Temp\ccdovRCu.s:30982  .debug_str:000000000002a563 .LASF3122
C:\Users\SOLDER~1\AppData\Local\Temp\ccdovRCu.s:22214  .debug_str:0000000000006a9e .LASF3123
C:\Users\SOLDER~1\AppData\Local\Temp\ccdovRCu.s:23016  .debug_str:0000000000009eae .LASF3124
C:\Users\SOLDER~1\AppData\Local\Temp\ccdovRCu.s:22114  .debug_str:00000000000063d4 .LASF3125
C:\Users\SOLDER~1\AppData\Local\Temp\ccdovRCu.s:25046  .debug_str:00000000000122e3 .LASF3126
C:\Users\SOLDER~1\AppData\Local\Temp\ccdovRCu.s:21308  .debug_str:0000000000003071 .LASF3127
C:\Users\SOLDER~1\AppData\Local\Temp\ccdovRCu.s:30506  .debug_str:00000000000286af .LASF3128
C:\Users\SOLDER~1\AppData\Local\Temp\ccdovRCu.s:30332  .debug_str:0000000000027b28 .LASF3129
C:\Users\SOLDER~1\AppData\Local\Temp\ccdovRCu.s:28060  .debug_str:000000000001e6d7 .LASF3130
C:\Users\SOLDER~1\AppData\Local\Temp\ccdovRCu.s:30804  .debug_str:00000000000299dd .LASF3131
C:\Users\SOLDER~1\AppData\Local\Temp\ccdovRCu.s:25518  .debug_str:00000000000142ae .LASF3132
C:\Users\SOLDER~1\AppData\Local\Temp\ccdovRCu.s:22862  .debug_str:00000000000094cf .LASF3133
C:\Users\SOLDER~1\AppData\Local\Temp\ccdovRCu.s:21054  .debug_str:0000000000001ffa .LASF3134
C:\Users\SOLDER~1\AppData\Local\Temp\ccdovRCu.s:24274  .debug_str:000000000000f167 .LASF3135
C:\Users\SOLDER~1\AppData\Local\Temp\ccdovRCu.s:26332  .debug_str:000000000001772d .LASF3136
C:\Users\SOLDER~1\AppData\Local\Temp\ccdovRCu.s:22632  .debug_str:0000000000008583 .LASF3137
C:\Users\SOLDER~1\AppData\Local\Temp\ccdovRCu.s:28454  .debug_str:00000000000200e8 .LASF3138
C:\Users\SOLDER~1\AppData\Local\Temp\ccdovRCu.s:29344  .debug_str:0000000000023a21 .LASF3139
C:\Users\SOLDER~1\AppData\Local\Temp\ccdovRCu.s:20686  .debug_str:000000000000083f .LASF3140
C:\Users\SOLDER~1\AppData\Local\Temp\ccdovRCu.s:31078  .debug_str:000000000002ab58 .LASF3141
C:\Users\SOLDER~1\AppData\Local\Temp\ccdovRCu.s:22332  .debug_str:0000000000007256 .LASF3142
C:\Users\SOLDER~1\AppData\Local\Temp\ccdovRCu.s:21906  .debug_str:00000000000055cb .LASF3143
C:\Users\SOLDER~1\AppData\Local\Temp\ccdovRCu.s:26436  .debug_str:0000000000017dac .LASF3144
C:\Users\SOLDER~1\AppData\Local\Temp\ccdovRCu.s:31160  .debug_str:000000000002b0a9 .LASF3145
C:\Users\SOLDER~1\AppData\Local\Temp\ccdovRCu.s:23628  .debug_str:000000000000c71f .LASF3146
C:\Users\SOLDER~1\AppData\Local\Temp\ccdovRCu.s:28770  .debug_str:0000000000021533 .LASF3147
C:\Users\SOLDER~1\AppData\Local\Temp\ccdovRCu.s:21984  .debug_str:0000000000005b2e .LASF3148
C:\Users\SOLDER~1\AppData\Local\Temp\ccdovRCu.s:26470  .debug_str:0000000000017fdd .LASF3149
C:\Users\SOLDER~1\AppData\Local\Temp\ccdovRCu.s:30614  .debug_str:0000000000028dbc .LASF3150
C:\Users\SOLDER~1\AppData\Local\Temp\ccdovRCu.s:28748  .debug_str:00000000000213d1 .LASF3151
C:\Users\SOLDER~1\AppData\Local\Temp\ccdovRCu.s:29940  .debug_str:000000000002612c .LASF3152
C:\Users\SOLDER~1\AppData\Local\Temp\ccdovRCu.s:26880  .debug_str:0000000000019aa4 .LASF3153
C:\Users\SOLDER~1\AppData\Local\Temp\ccdovRCu.s:21142  .debug_str:00000000000025dc .LASF3154
C:\Users\SOLDER~1\AppData\Local\Temp\ccdovRCu.s:24942  .debug_str:0000000000011c78 .LASF3155
C:\Users\SOLDER~1\AppData\Local\Temp\ccdovRCu.s:30284  .debug_str:0000000000027803 .LASF3156
C:\Users\SOLDER~1\AppData\Local\Temp\ccdovRCu.s:23028  .debug_str:0000000000009f89 .LASF3157
C:\Users\SOLDER~1\AppData\Local\Temp\ccdovRCu.s:28920  .debug_str:0000000000021ea8 .LASF3158
C:\Users\SOLDER~1\AppData\Local\Temp\ccdovRCu.s:21230  .debug_str:0000000000002b7d .LASF3159
C:\Users\SOLDER~1\AppData\Local\Temp\ccdovRCu.s:29226  .debug_str:000000000002323f .LASF3160
C:\Users\SOLDER~1\AppData\Local\Temp\ccdovRCu.s:30934  .debug_str:000000000002a205 .LASF3161
C:\Users\SOLDER~1\AppData\Local\Temp\ccdovRCu.s:31604  .debug_str:000000000002cd99 .LASF3162
GAS LISTING C:\Users\SOLDER~1\AppData\Local\Temp\ccdovRCu.s 			page 108


C:\Users\SOLDER~1\AppData\Local\Temp\ccdovRCu.s:31230  .debug_str:000000000002b582 .LASF3163
C:\Users\SOLDER~1\AppData\Local\Temp\ccdovRCu.s:28588  .debug_str:0000000000020996 .LASF3164
C:\Users\SOLDER~1\AppData\Local\Temp\ccdovRCu.s:24108  .debug_str:000000000000e6e9 .LASF3165
C:\Users\SOLDER~1\AppData\Local\Temp\ccdovRCu.s:29192  .debug_str:000000000002301c .LASF3166
C:\Users\SOLDER~1\AppData\Local\Temp\ccdovRCu.s:24948  .debug_str:0000000000011ceb .LASF3167
C:\Users\SOLDER~1\AppData\Local\Temp\ccdovRCu.s:31748  .debug_str:000000000002d743 .LASF3168
C:\Users\SOLDER~1\AppData\Local\Temp\ccdovRCu.s:23304  .debug_str:000000000000b1ce .LASF3169
C:\Users\SOLDER~1\AppData\Local\Temp\ccdovRCu.s:29920  .debug_str:0000000000025fc2 .LASF3170
C:\Users\SOLDER~1\AppData\Local\Temp\ccdovRCu.s:21560  .debug_str:0000000000004064 .LASF3171
C:\Users\SOLDER~1\AppData\Local\Temp\ccdovRCu.s:29918  .debug_str:0000000000025fa1 .LASF3172
C:\Users\SOLDER~1\AppData\Local\Temp\ccdovRCu.s:21634  .debug_str:0000000000004506 .LASF3173
C:\Users\SOLDER~1\AppData\Local\Temp\ccdovRCu.s:22392  .debug_str:0000000000007613 .LASF3174
C:\Users\SOLDER~1\AppData\Local\Temp\ccdovRCu.s:26954  .debug_str:0000000000019f57 .LASF3175
C:\Users\SOLDER~1\AppData\Local\Temp\ccdovRCu.s:27760  .debug_str:000000000001d3fb .LASF3176
C:\Users\SOLDER~1\AppData\Local\Temp\ccdovRCu.s:25016  .debug_str:000000000001210b .LASF3177
C:\Users\SOLDER~1\AppData\Local\Temp\ccdovRCu.s:27258  .debug_str:000000000001b307 .LASF3178
C:\Users\SOLDER~1\AppData\Local\Temp\ccdovRCu.s:23096  .debug_str:000000000000a414 .LASF3179
C:\Users\SOLDER~1\AppData\Local\Temp\ccdovRCu.s:29714  .debug_str:0000000000025251 .LASF3180
C:\Users\SOLDER~1\AppData\Local\Temp\ccdovRCu.s:23458  .debug_str:000000000000bbbd .LASF3181
C:\Users\SOLDER~1\AppData\Local\Temp\ccdovRCu.s:28148  .debug_str:000000000001ed2a .LASF3182
C:\Users\SOLDER~1\AppData\Local\Temp\ccdovRCu.s:30996  .debug_str:000000000002a64e .LASF3183
C:\Users\SOLDER~1\AppData\Local\Temp\ccdovRCu.s:30596  .debug_str:0000000000028c93 .LASF3184
C:\Users\SOLDER~1\AppData\Local\Temp\ccdovRCu.s:29060  .debug_str:0000000000022760 .LASF3185
C:\Users\SOLDER~1\AppData\Local\Temp\ccdovRCu.s:28718  .debug_str:00000000000211b6 .LASF3186
C:\Users\SOLDER~1\AppData\Local\Temp\ccdovRCu.s:27184  .debug_str:000000000001ae94 .LASF3187
C:\Users\SOLDER~1\AppData\Local\Temp\ccdovRCu.s:24210  .debug_str:000000000000ed58 .LASF3188
C:\Users\SOLDER~1\AppData\Local\Temp\ccdovRCu.s:25620  .debug_str:0000000000014989 .LASF3189
C:\Users\SOLDER~1\AppData\Local\Temp\ccdovRCu.s:20828  .debug_str:00000000000011b4 .LASF3190
C:\Users\SOLDER~1\AppData\Local\Temp\ccdovRCu.s:23106  .debug_str:000000000000a4ba .LASF3191
C:\Users\SOLDER~1\AppData\Local\Temp\ccdovRCu.s:30652  .debug_str:000000000002901d .LASF3192
C:\Users\SOLDER~1\AppData\Local\Temp\ccdovRCu.s:21452  .debug_str:000000000000399e .LASF3193
C:\Users\SOLDER~1\AppData\Local\Temp\ccdovRCu.s:25962  .debug_str:0000000000015fad .LASF3194
C:\Users\SOLDER~1\AppData\Local\Temp\ccdovRCu.s:31068  .debug_str:000000000002aacc .LASF3195
C:\Users\SOLDER~1\AppData\Local\Temp\ccdovRCu.s:23066  .debug_str:000000000000a228 .LASF3196
C:\Users\SOLDER~1\AppData\Local\Temp\ccdovRCu.s:29372  .debug_str:0000000000023be3 .LASF3197
C:\Users\SOLDER~1\AppData\Local\Temp\ccdovRCu.s:27602  .debug_str:000000000001c933 .LASF3198
C:\Users\SOLDER~1\AppData\Local\Temp\ccdovRCu.s:28942  .debug_str:0000000000022018 .LASF3199
C:\Users\SOLDER~1\AppData\Local\Temp\ccdovRCu.s:26692  .debug_str:0000000000018e57 .LASF3200
C:\Users\SOLDER~1\AppData\Local\Temp\ccdovRCu.s:26042  .debug_str:00000000000164ea .LASF3201
C:\Users\SOLDER~1\AppData\Local\Temp\ccdovRCu.s:22800  .debug_str:0000000000009076 .LASF3202
C:\Users\SOLDER~1\AppData\Local\Temp\ccdovRCu.s:29430  .debug_str:0000000000023f87 .LASF3203
C:\Users\SOLDER~1\AppData\Local\Temp\ccdovRCu.s:24140  .debug_str:000000000000e91c .LASF3204
C:\Users\SOLDER~1\AppData\Local\Temp\ccdovRCu.s:22638  .debug_str:00000000000085d9 .LASF3205
C:\Users\SOLDER~1\AppData\Local\Temp\ccdovRCu.s:22148  .debug_str:0000000000006609 .LASF3206
C:\Users\SOLDER~1\AppData\Local\Temp\ccdovRCu.s:29958  .debug_str:0000000000026283 .LASF3207
C:\Users\SOLDER~1\AppData\Local\Temp\ccdovRCu.s:22988  .debug_str:0000000000009cab .LASF3208
C:\Users\SOLDER~1\AppData\Local\Temp\ccdovRCu.s:25052  .debug_str:0000000000012341 .LASF3209
C:\Users\SOLDER~1\AppData\Local\Temp\ccdovRCu.s:25048  .debug_str:0000000000012308 .LASF3210
C:\Users\SOLDER~1\AppData\Local\Temp\ccdovRCu.s:26120  .debug_str:0000000000016981 .LASF3211
C:\Users\SOLDER~1\AppData\Local\Temp\ccdovRCu.s:30472  .debug_str:000000000002848d .LASF3212
C:\Users\SOLDER~1\AppData\Local\Temp\ccdovRCu.s:30094  .debug_str:0000000000026bad .LASF3213
C:\Users\SOLDER~1\AppData\Local\Temp\ccdovRCu.s:27794  .debug_str:000000000001d64d .LASF3214
C:\Users\SOLDER~1\AppData\Local\Temp\ccdovRCu.s:20568  .debug_str:0000000000000023 .LASF3215
C:\Users\SOLDER~1\AppData\Local\Temp\ccdovRCu.s:29532  .debug_str:000000000002464c .LASF3216
C:\Users\SOLDER~1\AppData\Local\Temp\ccdovRCu.s:30800  .debug_str:00000000000299a0 .LASF3217
C:\Users\SOLDER~1\AppData\Local\Temp\ccdovRCu.s:24290  .debug_str:000000000000f263 .LASF3218
C:\Users\SOLDER~1\AppData\Local\Temp\ccdovRCu.s:27944  .debug_str:000000000001df86 .LASF3219
GAS LISTING C:\Users\SOLDER~1\AppData\Local\Temp\ccdovRCu.s 			page 109


C:\Users\SOLDER~1\AppData\Local\Temp\ccdovRCu.s:26094  .debug_str:00000000000167e7 .LASF3220
C:\Users\SOLDER~1\AppData\Local\Temp\ccdovRCu.s:25094  .debug_str:000000000001261b .LASF3221
C:\Users\SOLDER~1\AppData\Local\Temp\ccdovRCu.s:23222  .debug_str:000000000000ac80 .LASF3222
C:\Users\SOLDER~1\AppData\Local\Temp\ccdovRCu.s:22684  .debug_str:00000000000088ba .LASF3223
C:\Users\SOLDER~1\AppData\Local\Temp\ccdovRCu.s:31616  .debug_str:000000000002ce57 .LASF3224
C:\Users\SOLDER~1\AppData\Local\Temp\ccdovRCu.s:22370  .debug_str:00000000000074cf .LASF3225
C:\Users\SOLDER~1\AppData\Local\Temp\ccdovRCu.s:30688  .debug_str:000000000002923a .LASF3226
C:\Users\SOLDER~1\AppData\Local\Temp\ccdovRCu.s:28682  .debug_str:0000000000020f6d .LASF3227
C:\Users\SOLDER~1\AppData\Local\Temp\ccdovRCu.s:26136  .debug_str:0000000000016a92 .LASF3228
C:\Users\SOLDER~1\AppData\Local\Temp\ccdovRCu.s:23424  .debug_str:000000000000b97f .LASF3229
C:\Users\SOLDER~1\AppData\Local\Temp\ccdovRCu.s:20768  .debug_str:0000000000000e3c .LASF3230
C:\Users\SOLDER~1\AppData\Local\Temp\ccdovRCu.s:29812  .debug_str:000000000002587c .LASF3231
C:\Users\SOLDER~1\AppData\Local\Temp\ccdovRCu.s:30962  .debug_str:000000000002a3fa .LASF3232
C:\Users\SOLDER~1\AppData\Local\Temp\ccdovRCu.s:21018  .debug_str:0000000000001dd0 .LASF3233
C:\Users\SOLDER~1\AppData\Local\Temp\ccdovRCu.s:25114  .debug_str:0000000000012776 .LASF3234
C:\Users\SOLDER~1\AppData\Local\Temp\ccdovRCu.s:31864  .debug_str:000000000002de6f .LASF3235
C:\Users\SOLDER~1\AppData\Local\Temp\ccdovRCu.s:29644  .debug_str:0000000000024ddb .LASF3236
C:\Users\SOLDER~1\AppData\Local\Temp\ccdovRCu.s:24234  .debug_str:000000000000eee4 .LASF3237
C:\Users\SOLDER~1\AppData\Local\Temp\ccdovRCu.s:27916  .debug_str:000000000001dda4 .LASF3238
C:\Users\SOLDER~1\AppData\Local\Temp\ccdovRCu.s:31516  .debug_str:000000000002c835 .LASF3239
C:\Users\SOLDER~1\AppData\Local\Temp\ccdovRCu.s:23568  .debug_str:000000000000c2e5 .LASF3240
C:\Users\SOLDER~1\AppData\Local\Temp\ccdovRCu.s:29694  .debug_str:0000000000025120 .LASF3241
C:\Users\SOLDER~1\AppData\Local\Temp\ccdovRCu.s:31412  .debug_str:000000000002c157 .LASF3242
C:\Users\SOLDER~1\AppData\Local\Temp\ccdovRCu.s:25306  .debug_str:00000000000133f3 .LASF3243
C:\Users\SOLDER~1\AppData\Local\Temp\ccdovRCu.s:24480  .debug_str:000000000000ff09 .LASF3244
C:\Users\SOLDER~1\AppData\Local\Temp\ccdovRCu.s:30418  .debug_str:00000000000280d9 .LASF3245
C:\Users\SOLDER~1\AppData\Local\Temp\ccdovRCu.s:28080  .debug_str:000000000001e856 .LASF3246
C:\Users\SOLDER~1\AppData\Local\Temp\ccdovRCu.s:30584  .debug_str:0000000000028bea .LASF3247
C:\Users\SOLDER~1\AppData\Local\Temp\ccdovRCu.s:24334  .debug_str:000000000000f4fe .LASF3248
C:\Users\SOLDER~1\AppData\Local\Temp\ccdovRCu.s:31312  .debug_str:000000000002bac2 .LASF3249
C:\Users\SOLDER~1\AppData\Local\Temp\ccdovRCu.s:25738  .debug_str:000000000001510c .LASF3250
C:\Users\SOLDER~1\AppData\Local\Temp\ccdovRCu.s:31954  .debug_str:000000000002e430 .LASF3251
C:\Users\SOLDER~1\AppData\Local\Temp\ccdovRCu.s:31032  .debug_str:000000000002a893 .LASF3252
C:\Users\SOLDER~1\AppData\Local\Temp\ccdovRCu.s:30000  .debug_str:000000000002656b .LASF3253
C:\Users\SOLDER~1\AppData\Local\Temp\ccdovRCu.s:30756  .debug_str:00000000000296a4 .LASF3254
C:\Users\SOLDER~1\AppData\Local\Temp\ccdovRCu.s:27584  .debug_str:000000000001c7f1 .LASF3255
C:\Users\SOLDER~1\AppData\Local\Temp\ccdovRCu.s:24830  .debug_str:0000000000011549 .LASF3256
C:\Users\SOLDER~1\AppData\Local\Temp\ccdovRCu.s:22496  .debug_str:0000000000007ca7 .LASF3257
C:\Users\SOLDER~1\AppData\Local\Temp\ccdovRCu.s:23474  .debug_str:000000000000bce1 .LASF3258
C:\Users\SOLDER~1\AppData\Local\Temp\ccdovRCu.s:27412  .debug_str:000000000001bc92 .LASF3259
C:\Users\SOLDER~1\AppData\Local\Temp\ccdovRCu.s:24638  .debug_str:00000000000108d0 .LASF3260
C:\Users\SOLDER~1\AppData\Local\Temp\ccdovRCu.s:27310  .debug_str:000000000001b642 .LASF3261
C:\Users\SOLDER~1\AppData\Local\Temp\ccdovRCu.s:28958  .debug_str:000000000002211b .LASF3262
C:\Users\SOLDER~1\AppData\Local\Temp\ccdovRCu.s:29520  .debug_str:000000000002456b .LASF3263
C:\Users\SOLDER~1\AppData\Local\Temp\ccdovRCu.s:22642  .debug_str:000000000000860c .LASF3264
C:\Users\SOLDER~1\AppData\Local\Temp\ccdovRCu.s:30478  .debug_str:00000000000284e8 .LASF3265
C:\Users\SOLDER~1\AppData\Local\Temp\ccdovRCu.s:26870  .debug_str:00000000000199f4 .LASF3266
C:\Users\SOLDER~1\AppData\Local\Temp\ccdovRCu.s:23632  .debug_str:000000000000c766 .LASF3267
C:\Users\SOLDER~1\AppData\Local\Temp\ccdovRCu.s:22854  .debug_str:000000000000941c .LASF3268
C:\Users\SOLDER~1\AppData\Local\Temp\ccdovRCu.s:22560  .debug_str:0000000000008106 .LASF3269
C:\Users\SOLDER~1\AppData\Local\Temp\ccdovRCu.s:24394  .debug_str:000000000000f901 .LASF3270
C:\Users\SOLDER~1\AppData\Local\Temp\ccdovRCu.s:26620  .debug_str:0000000000018977 .LASF3271
C:\Users\SOLDER~1\AppData\Local\Temp\ccdovRCu.s:25626  .debug_str:00000000000149ec .LASF3272
C:\Users\SOLDER~1\AppData\Local\Temp\ccdovRCu.s:27920  .debug_str:000000000001dde8 .LASF3273
C:\Users\SOLDER~1\AppData\Local\Temp\ccdovRCu.s:21114  .debug_str:0000000000002412 .LASF3274
C:\Users\SOLDER~1\AppData\Local\Temp\ccdovRCu.s:21288  .debug_str:0000000000002f35 .LASF3275
C:\Users\SOLDER~1\AppData\Local\Temp\ccdovRCu.s:25808  .debug_str:00000000000155a9 .LASF3276
GAS LISTING C:\Users\SOLDER~1\AppData\Local\Temp\ccdovRCu.s 			page 110


C:\Users\SOLDER~1\AppData\Local\Temp\ccdovRCu.s:28236  .debug_str:000000000001f2e0 .LASF3277
C:\Users\SOLDER~1\AppData\Local\Temp\ccdovRCu.s:29140  .debug_str:0000000000022c93 .LASF3278
C:\Users\SOLDER~1\AppData\Local\Temp\ccdovRCu.s:32058  .debug_str:000000000002ea81 .LASF3279
C:\Users\SOLDER~1\AppData\Local\Temp\ccdovRCu.s:30944  .debug_str:000000000002a2b5 .LASF3280
C:\Users\SOLDER~1\AppData\Local\Temp\ccdovRCu.s:31208  .debug_str:000000000002b414 .LASF3281
C:\Users\SOLDER~1\AppData\Local\Temp\ccdovRCu.s:22726  .debug_str:0000000000008b96 .LASF3282
C:\Users\SOLDER~1\AppData\Local\Temp\ccdovRCu.s:26456  .debug_str:0000000000017ef5 .LASF3283
C:\Users\SOLDER~1\AppData\Local\Temp\ccdovRCu.s:31724  .debug_str:000000000002d5ac .LASF3284
C:\Users\SOLDER~1\AppData\Local\Temp\ccdovRCu.s:29612  .debug_str:0000000000024ba0 .LASF3285
C:\Users\SOLDER~1\AppData\Local\Temp\ccdovRCu.s:24138  .debug_str:000000000000e8e9 .LASF3286
C:\Users\SOLDER~1\AppData\Local\Temp\ccdovRCu.s:25670  .debug_str:0000000000014ce9 .LASF3287
C:\Users\SOLDER~1\AppData\Local\Temp\ccdovRCu.s:23590  .debug_str:000000000000c475 .LASF3288
C:\Users\SOLDER~1\AppData\Local\Temp\ccdovRCu.s:24850  .debug_str:00000000000116b0 .LASF3289
C:\Users\SOLDER~1\AppData\Local\Temp\ccdovRCu.s:25468  .debug_str:0000000000013f31 .LASF3290
C:\Users\SOLDER~1\AppData\Local\Temp\ccdovRCu.s:24846  .debug_str:0000000000011665 .LASF3291
C:\Users\SOLDER~1\AppData\Local\Temp\ccdovRCu.s:28108  .debug_str:000000000001ea50 .LASF3292
C:\Users\SOLDER~1\AppData\Local\Temp\ccdovRCu.s:25234  .debug_str:0000000000012f1c .LASF3293
C:\Users\SOLDER~1\AppData\Local\Temp\ccdovRCu.s:30398  .debug_str:0000000000027f63 .LASF3294
C:\Users\SOLDER~1\AppData\Local\Temp\ccdovRCu.s:27786  .debug_str:000000000001d5bf .LASF3295
C:\Users\SOLDER~1\AppData\Local\Temp\ccdovRCu.s:28926  .debug_str:0000000000021f1d .LASF3296
C:\Users\SOLDER~1\AppData\Local\Temp\ccdovRCu.s:26438  .debug_str:0000000000017dcc .LASF3297
C:\Users\SOLDER~1\AppData\Local\Temp\ccdovRCu.s:21936  .debug_str:00000000000057dc .LASF3298
C:\Users\SOLDER~1\AppData\Local\Temp\ccdovRCu.s:24412  .debug_str:000000000000fa3a .LASF3299
C:\Users\SOLDER~1\AppData\Local\Temp\ccdovRCu.s:26002  .debug_str:0000000000016248 .LASF3300
C:\Users\SOLDER~1\AppData\Local\Temp\ccdovRCu.s:27892  .debug_str:000000000001dc0f .LASF3301
C:\Users\SOLDER~1\AppData\Local\Temp\ccdovRCu.s:27452  .debug_str:000000000001bf17 .LASF3302
C:\Users\SOLDER~1\AppData\Local\Temp\ccdovRCu.s:23764  .debug_str:000000000000d04e .LASF3303
C:\Users\SOLDER~1\AppData\Local\Temp\ccdovRCu.s:21338  .debug_str:0000000000003256 .LASF3304
C:\Users\SOLDER~1\AppData\Local\Temp\ccdovRCu.s:27440  .debug_str:000000000001be36 .LASF3305
C:\Users\SOLDER~1\AppData\Local\Temp\ccdovRCu.s:22752  .debug_str:0000000000008d24 .LASF3306
C:\Users\SOLDER~1\AppData\Local\Temp\ccdovRCu.s:24208  .debug_str:000000000000ed25 .LASF3307
C:\Users\SOLDER~1\AppData\Local\Temp\ccdovRCu.s:21642  .debug_str:000000000000456a .LASF3308
C:\Users\SOLDER~1\AppData\Local\Temp\ccdovRCu.s:24550  .debug_str:0000000000010331 .LASF3309
C:\Users\SOLDER~1\AppData\Local\Temp\ccdovRCu.s:21824  .debug_str:00000000000050ca .LASF3310
C:\Users\SOLDER~1\AppData\Local\Temp\ccdovRCu.s:20620  .debug_str:000000000000037f .LASF3311
C:\Users\SOLDER~1\AppData\Local\Temp\ccdovRCu.s:23032  .debug_str:0000000000009fc8 .LASF3312
C:\Users\SOLDER~1\AppData\Local\Temp\ccdovRCu.s:28176  .debug_str:000000000001eee4 .LASF3313
C:\Users\SOLDER~1\AppData\Local\Temp\ccdovRCu.s:32024  .debug_str:000000000002e85c .LASF3314
C:\Users\SOLDER~1\AppData\Local\Temp\ccdovRCu.s:20808  .debug_str:0000000000001093 .LASF3315
C:\Users\SOLDER~1\AppData\Local\Temp\ccdovRCu.s:21496  .debug_str:0000000000003c6e .LASF3316
C:\Users\SOLDER~1\AppData\Local\Temp\ccdovRCu.s:26058  .debug_str:00000000000165f6 .LASF3317
C:\Users\SOLDER~1\AppData\Local\Temp\ccdovRCu.s:27070  .debug_str:000000000001a6b2 .LASF3318
C:\Users\SOLDER~1\AppData\Local\Temp\ccdovRCu.s:26628  .debug_str:0000000000018a07 .LASF3319
C:\Users\SOLDER~1\AppData\Local\Temp\ccdovRCu.s:31718  .debug_str:000000000002d547 .LASF3320
C:\Users\SOLDER~1\AppData\Local\Temp\ccdovRCu.s:28234  .debug_str:000000000001f2b7 .LASF3321
C:\Users\SOLDER~1\AppData\Local\Temp\ccdovRCu.s:24752  .debug_str:0000000000011034 .LASF3322
C:\Users\SOLDER~1\AppData\Local\Temp\ccdovRCu.s:21264  .debug_str:0000000000002d9e .LASF3323
C:\Users\SOLDER~1\AppData\Local\Temp\ccdovRCu.s:29356  .debug_str:0000000000023aca .LASF3324
C:\Users\SOLDER~1\AppData\Local\Temp\ccdovRCu.s:25442  .debug_str:0000000000013d5d .LASF3325
C:\Users\SOLDER~1\AppData\Local\Temp\ccdovRCu.s:24880  .debug_str:0000000000011867 .LASF3326
C:\Users\SOLDER~1\AppData\Local\Temp\ccdovRCu.s:24336  .debug_str:000000000000f52d .LASF3327
C:\Users\SOLDER~1\AppData\Local\Temp\ccdovRCu.s:26704  .debug_str:0000000000018f35 .LASF3328
C:\Users\SOLDER~1\AppData\Local\Temp\ccdovRCu.s:29420  .debug_str:0000000000023ed7 .LASF3329
C:\Users\SOLDER~1\AppData\Local\Temp\ccdovRCu.s:20654  .debug_str:00000000000005ae .LASF3330
C:\Users\SOLDER~1\AppData\Local\Temp\ccdovRCu.s:22172  .debug_str:00000000000067c6 .LASF3331
C:\Users\SOLDER~1\AppData\Local\Temp\ccdovRCu.s:21168  .debug_str:0000000000002783 .LASF3332
C:\Users\SOLDER~1\AppData\Local\Temp\ccdovRCu.s:28332  .debug_str:000000000001f945 .LASF3333
GAS LISTING C:\Users\SOLDER~1\AppData\Local\Temp\ccdovRCu.s 			page 111


C:\Users\SOLDER~1\AppData\Local\Temp\ccdovRCu.s:30702  .debug_str:000000000002931c .LASF3334
C:\Users\SOLDER~1\AppData\Local\Temp\ccdovRCu.s:23556  .debug_str:000000000000c20f .LASF3335
C:\Users\SOLDER~1\AppData\Local\Temp\ccdovRCu.s:28606  .debug_str:0000000000020ab7 .LASF3336
C:\Users\SOLDER~1\AppData\Local\Temp\ccdovRCu.s:21786  .debug_str:0000000000004e97 .LASF3337
C:\Users\SOLDER~1\AppData\Local\Temp\ccdovRCu.s:22722  .debug_str:0000000000008b48 .LASF3338
C:\Users\SOLDER~1\AppData\Local\Temp\ccdovRCu.s:24330  .debug_str:000000000000f4ab .LASF3339
C:\Users\SOLDER~1\AppData\Local\Temp\ccdovRCu.s:22232  .debug_str:0000000000006b9e .LASF3340
C:\Users\SOLDER~1\AppData\Local\Temp\ccdovRCu.s:32068  .debug_str:000000000002eb33 .LASF3341
C:\Users\SOLDER~1\AppData\Local\Temp\ccdovRCu.s:27626  .debug_str:000000000001cacd .LASF3342
C:\Users\SOLDER~1\AppData\Local\Temp\ccdovRCu.s:28478  .debug_str:0000000000020274 .LASF3343
C:\Users\SOLDER~1\AppData\Local\Temp\ccdovRCu.s:26730  .debug_str:00000000000190f8 .LASF3344
C:\Users\SOLDER~1\AppData\Local\Temp\ccdovRCu.s:24898  .debug_str:00000000000119a7 .LASF3345
C:\Users\SOLDER~1\AppData\Local\Temp\ccdovRCu.s:22398  .debug_str:0000000000007677 .LASF3346
C:\Users\SOLDER~1\AppData\Local\Temp\ccdovRCu.s:31124  .debug_str:000000000002ae7c .LASF3347
C:\Users\SOLDER~1\AppData\Local\Temp\ccdovRCu.s:23422  .debug_str:000000000000b963 .LASF3348
C:\Users\SOLDER~1\AppData\Local\Temp\ccdovRCu.s:25796  .debug_str:00000000000154e4 .LASF3349
C:\Users\SOLDER~1\AppData\Local\Temp\ccdovRCu.s:28966  .debug_str:00000000000221a8 .LASF3350
C:\Users\SOLDER~1\AppData\Local\Temp\ccdovRCu.s:28262  .debug_str:000000000001f4a3 .LASF3351
C:\Users\SOLDER~1\AppData\Local\Temp\ccdovRCu.s:25538  .debug_str:000000000001441d .LASF3352
C:\Users\SOLDER~1\AppData\Local\Temp\ccdovRCu.s:25824  .debug_str:00000000000156ca .LASF3353
C:\Users\SOLDER~1\AppData\Local\Temp\ccdovRCu.s:25548  .debug_str:00000000000144af .LASF3354
C:\Users\SOLDER~1\AppData\Local\Temp\ccdovRCu.s:22054  .debug_str:0000000000005f9c .LASF3355
C:\Users\SOLDER~1\AppData\Local\Temp\ccdovRCu.s:30170  .debug_str:0000000000027088 .LASF3356
C:\Users\SOLDER~1\AppData\Local\Temp\ccdovRCu.s:29280  .debug_str:00000000000235f5 .LASF3357
C:\Users\SOLDER~1\AppData\Local\Temp\ccdovRCu.s:26578  .debug_str:00000000000186db .LASF3358
C:\Users\SOLDER~1\AppData\Local\Temp\ccdovRCu.s:31364  .debug_str:000000000002be1b .LASF3359
C:\Users\SOLDER~1\AppData\Local\Temp\ccdovRCu.s:23596  .debug_str:000000000000c4ec .LASF3360
C:\Users\SOLDER~1\AppData\Local\Temp\ccdovRCu.s:28392  .debug_str:000000000001fd0e .LASF3361
C:\Users\SOLDER~1\AppData\Local\Temp\ccdovRCu.s:31190  .debug_str:000000000002b2b5 .LASF3362
C:\Users\SOLDER~1\AppData\Local\Temp\ccdovRCu.s:30706  .debug_str:0000000000029369 .LASF3363
C:\Users\SOLDER~1\AppData\Local\Temp\ccdovRCu.s:28566  .debug_str:0000000000020812 .LASF3364
C:\Users\SOLDER~1\AppData\Local\Temp\ccdovRCu.s:27934  .debug_str:000000000001dec4 .LASF3365
C:\Users\SOLDER~1\AppData\Local\Temp\ccdovRCu.s:29052  .debug_str:00000000000226cd .LASF3366
C:\Users\SOLDER~1\AppData\Local\Temp\ccdovRCu.s:30192  .debug_str:000000000002721e .LASF3367
C:\Users\SOLDER~1\AppData\Local\Temp\ccdovRCu.s:31268  .debug_str:000000000002b7c7 .LASF3368
C:\Users\SOLDER~1\AppData\Local\Temp\ccdovRCu.s:24414  .debug_str:000000000000fa62 .LASF3369
C:\Users\SOLDER~1\AppData\Local\Temp\ccdovRCu.s:29156  .debug_str:0000000000022dba .LASF3370
C:\Users\SOLDER~1\AppData\Local\Temp\ccdovRCu.s:30108  .debug_str:0000000000026cac .LASF3371
C:\Users\SOLDER~1\AppData\Local\Temp\ccdovRCu.s:22036  .debug_str:0000000000005e63 .LASF3372
C:\Users\SOLDER~1\AppData\Local\Temp\ccdovRCu.s:31896  .debug_str:000000000002e095 .LASF3373
C:\Users\SOLDER~1\AppData\Local\Temp\ccdovRCu.s:29062  .debug_str:0000000000022773 .LASF3374
C:\Users\SOLDER~1\AppData\Local\Temp\ccdovRCu.s:30550  .debug_str:0000000000028965 .LASF3375
C:\Users\SOLDER~1\AppData\Local\Temp\ccdovRCu.s:23320  .debug_str:000000000000b2db .LASF3376
C:\Users\SOLDER~1\AppData\Local\Temp\ccdovRCu.s:25102  .debug_str:00000000000126af .LASF3377
C:\Users\SOLDER~1\AppData\Local\Temp\ccdovRCu.s:27630  .debug_str:000000000001cb0f .LASF3378
C:\Users\SOLDER~1\AppData\Local\Temp\ccdovRCu.s:26984  .debug_str:000000000001a137 .LASF3379
C:\Users\SOLDER~1\AppData\Local\Temp\ccdovRCu.s:25164  .debug_str:0000000000012a6c .LASF3380
C:\Users\SOLDER~1\AppData\Local\Temp\ccdovRCu.s:28308  .debug_str:000000000001f78f .LASF3381
C:\Users\SOLDER~1\AppData\Local\Temp\ccdovRCu.s:26394  .debug_str:0000000000017b1b .LASF3382
C:\Users\SOLDER~1\AppData\Local\Temp\ccdovRCu.s:31944  .debug_str:000000000002e391 .LASF3383
C:\Users\SOLDER~1\AppData\Local\Temp\ccdovRCu.s:27346  .debug_str:000000000001b889 .LASF3384
C:\Users\SOLDER~1\AppData\Local\Temp\ccdovRCu.s:26940  .debug_str:0000000000019e92 .LASF3385
C:\Users\SOLDER~1\AppData\Local\Temp\ccdovRCu.s:30858  .debug_str:0000000000029d07 .LASF3386
C:\Users\SOLDER~1\AppData\Local\Temp\ccdovRCu.s:25610  .debug_str:00000000000148ca .LASF3387
C:\Users\SOLDER~1\AppData\Local\Temp\ccdovRCu.s:31630  .debug_str:000000000002cf38 .LASF3388
C:\Users\SOLDER~1\AppData\Local\Temp\ccdovRCu.s:25702  .debug_str:0000000000014ef5 .LASF3389
C:\Users\SOLDER~1\AppData\Local\Temp\ccdovRCu.s:28072  .debug_str:000000000001e7c0 .LASF3390
GAS LISTING C:\Users\SOLDER~1\AppData\Local\Temp\ccdovRCu.s 			page 112


C:\Users\SOLDER~1\AppData\Local\Temp\ccdovRCu.s:32164  .debug_str:000000000002f120 .LASF3391
C:\Users\SOLDER~1\AppData\Local\Temp\ccdovRCu.s:24222  .debug_str:000000000000ee18 .LASF3392
C:\Users\SOLDER~1\AppData\Local\Temp\ccdovRCu.s:22758  .debug_str:0000000000008d99 .LASF3393
C:\Users\SOLDER~1\AppData\Local\Temp\ccdovRCu.s:20888  .debug_str:0000000000001596 .LASF3394
C:\Users\SOLDER~1\AppData\Local\Temp\ccdovRCu.s:29816  .debug_str:00000000000258a7 .LASF3395
C:\Users\SOLDER~1\AppData\Local\Temp\ccdovRCu.s:29938  .debug_str:0000000000026103 .LASF3396
C:\Users\SOLDER~1\AppData\Local\Temp\ccdovRCu.s:26992  .debug_str:000000000001a1c2 .LASF3397
C:\Users\SOLDER~1\AppData\Local\Temp\ccdovRCu.s:24052  .debug_str:000000000000e375 .LASF3398
C:\Users\SOLDER~1\AppData\Local\Temp\ccdovRCu.s:23070  .debug_str:000000000000a270 .LASF3399
C:\Users\SOLDER~1\AppData\Local\Temp\ccdovRCu.s:26236  .debug_str:00000000000170c1 .LASF3400
C:\Users\SOLDER~1\AppData\Local\Temp\ccdovRCu.s:26460  .debug_str:0000000000017f44 .LASF3401
C:\Users\SOLDER~1\AppData\Local\Temp\ccdovRCu.s:30056  .debug_str:000000000002690c .LASF3402
C:\Users\SOLDER~1\AppData\Local\Temp\ccdovRCu.s:26230  .debug_str:0000000000017061 .LASF3403
C:\Users\SOLDER~1\AppData\Local\Temp\ccdovRCu.s:30154  .debug_str:0000000000026fa0 .LASF3404
C:\Users\SOLDER~1\AppData\Local\Temp\ccdovRCu.s:23324  .debug_str:000000000000b315 .LASF3405
C:\Users\SOLDER~1\AppData\Local\Temp\ccdovRCu.s:28090  .debug_str:000000000001e913 .LASF3406
C:\Users\SOLDER~1\AppData\Local\Temp\ccdovRCu.s:21254  .debug_str:0000000000002cf0 .LASF3407
C:\Users\SOLDER~1\AppData\Local\Temp\ccdovRCu.s:22950  .debug_str:0000000000009a62 .LASF3408
C:\Users\SOLDER~1\AppData\Local\Temp\ccdovRCu.s:30806  .debug_str:00000000000299f6 .LASF3409
C:\Users\SOLDER~1\AppData\Local\Temp\ccdovRCu.s:31546  .debug_str:000000000002ca27 .LASF3410
C:\Users\SOLDER~1\AppData\Local\Temp\ccdovRCu.s:21420  .debug_str:0000000000003781 .LASF3411
C:\Users\SOLDER~1\AppData\Local\Temp\ccdovRCu.s:31250  .debug_str:000000000002b6b0 .LASF3412
C:\Users\SOLDER~1\AppData\Local\Temp\ccdovRCu.s:29418  .debug_str:0000000000023ead .LASF3413
C:\Users\SOLDER~1\AppData\Local\Temp\ccdovRCu.s:27658  .debug_str:000000000001cd1a .LASF3414
C:\Users\SOLDER~1\AppData\Local\Temp\ccdovRCu.s:25890  .debug_str:0000000000015b18 .LASF3415
C:\Users\SOLDER~1\AppData\Local\Temp\ccdovRCu.s:31012  .debug_str:000000000002a747 .LASF3416
C:\Users\SOLDER~1\AppData\Local\Temp\ccdovRCu.s:22302  .debug_str:0000000000007075 .LASF3417
C:\Users\SOLDER~1\AppData\Local\Temp\ccdovRCu.s:25712  .debug_str:0000000000014f85 .LASF3418
C:\Users\SOLDER~1\AppData\Local\Temp\ccdovRCu.s:24730  .debug_str:0000000000010ec7 .LASF3419
C:\Users\SOLDER~1\AppData\Local\Temp\ccdovRCu.s:24230  .debug_str:000000000000eea2 .LASF3420
C:\Users\SOLDER~1\AppData\Local\Temp\ccdovRCu.s:29570  .debug_str:00000000000248da .LASF3421
C:\Users\SOLDER~1\AppData\Local\Temp\ccdovRCu.s:29786  .debug_str:00000000000256cf .LASF3422
C:\Users\SOLDER~1\AppData\Local\Temp\ccdovRCu.s:24896  .debug_str:0000000000011980 .LASF3423
C:\Users\SOLDER~1\AppData\Local\Temp\ccdovRCu.s:30662  .debug_str:00000000000290b6 .LASF3424
C:\Users\SOLDER~1\AppData\Local\Temp\ccdovRCu.s:28002  .debug_str:000000000001e35b .LASF3425
C:\Users\SOLDER~1\AppData\Local\Temp\ccdovRCu.s:28556  .debug_str:000000000002077a .LASF3426
C:\Users\SOLDER~1\AppData\Local\Temp\ccdovRCu.s:25090  .debug_str:00000000000125cf .LASF3427
C:\Users\SOLDER~1\AppData\Local\Temp\ccdovRCu.s:26970  .debug_str:000000000001a042 .LASF3428
C:\Users\SOLDER~1\AppData\Local\Temp\ccdovRCu.s:21484  .debug_str:0000000000003baf .LASF3429
C:\Users\SOLDER~1\AppData\Local\Temp\ccdovRCu.s:26296  .debug_str:00000000000174af .LASF3430
C:\Users\SOLDER~1\AppData\Local\Temp\ccdovRCu.s:22782  .debug_str:0000000000008f3b .LASF3431
C:\Users\SOLDER~1\AppData\Local\Temp\ccdovRCu.s:28658  .debug_str:0000000000020de8 .LASF3432
C:\Users\SOLDER~1\AppData\Local\Temp\ccdovRCu.s:31444  .debug_str:000000000002c3ad .LASF3433
C:\Users\SOLDER~1\AppData\Local\Temp\ccdovRCu.s:24736  .debug_str:0000000000010f34 .LASF3434
C:\Users\SOLDER~1\AppData\Local\Temp\ccdovRCu.s:25418  .debug_str:0000000000013bdb .LASF3435
C:\Users\SOLDER~1\AppData\Local\Temp\ccdovRCu.s:28186  .debug_str:000000000001ef98 .LASF3436
C:\Users\SOLDER~1\AppData\Local\Temp\ccdovRCu.s:30974  .debug_str:000000000002a4cd .LASF3437
C:\Users\SOLDER~1\AppData\Local\Temp\ccdovRCu.s:22146  .debug_str:00000000000065df .LASF3438
C:\Users\SOLDER~1\AppData\Local\Temp\ccdovRCu.s:24922  .debug_str:0000000000011b1e .LASF3439
C:\Users\SOLDER~1\AppData\Local\Temp\ccdovRCu.s:22694  .debug_str:000000000000895e .LASF3440
C:\Users\SOLDER~1\AppData\Local\Temp\ccdovRCu.s:27456  .debug_str:000000000001bf66 .LASF3441
C:\Users\SOLDER~1\AppData\Local\Temp\ccdovRCu.s:20636  .debug_str:0000000000000475 .LASF3442
C:\Users\SOLDER~1\AppData\Local\Temp\ccdovRCu.s:23600  .debug_str:000000000000c52f .LASF3443
C:\Users\SOLDER~1\AppData\Local\Temp\ccdovRCu.s:30130  .debug_str:0000000000026e1d .LASF3444
C:\Users\SOLDER~1\AppData\Local\Temp\ccdovRCu.s:22104  .debug_str:000000000000631a .LASF3445
C:\Users\SOLDER~1\AppData\Local\Temp\ccdovRCu.s:28070  .debug_str:000000000001e796 .LASF3446
C:\Users\SOLDER~1\AppData\Local\Temp\ccdovRCu.s:25552  .debug_str:00000000000144ff .LASF3447
GAS LISTING C:\Users\SOLDER~1\AppData\Local\Temp\ccdovRCu.s 			page 113


C:\Users\SOLDER~1\AppData\Local\Temp\ccdovRCu.s:23744  .debug_str:000000000000cf16 .LASF3448
C:\Users\SOLDER~1\AppData\Local\Temp\ccdovRCu.s:30174  .debug_str:00000000000270c9 .LASF3449
C:\Users\SOLDER~1\AppData\Local\Temp\ccdovRCu.s:31798  .debug_str:000000000002da69 .LASF3450
C:\Users\SOLDER~1\AppData\Local\Temp\ccdovRCu.s:25882  .debug_str:0000000000015a9b .LASF3451
C:\Users\SOLDER~1\AppData\Local\Temp\ccdovRCu.s:28214  .debug_str:000000000001f168 .LASF3452
C:\Users\SOLDER~1\AppData\Local\Temp\ccdovRCu.s:26466  .debug_str:0000000000017fae .LASF3453
C:\Users\SOLDER~1\AppData\Local\Temp\ccdovRCu.s:21664  .debug_str:00000000000046f6 .LASF3454
C:\Users\SOLDER~1\AppData\Local\Temp\ccdovRCu.s:26734  .debug_str:0000000000019142 .LASF3455
C:\Users\SOLDER~1\AppData\Local\Temp\ccdovRCu.s:21214  .debug_str:0000000000002a9a .LASF3456
C:\Users\SOLDER~1\AppData\Local\Temp\ccdovRCu.s:31236  .debug_str:000000000002b5d7 .LASF3457
C:\Users\SOLDER~1\AppData\Local\Temp\ccdovRCu.s:30446  .debug_str:00000000000282ae .LASF3458
C:\Users\SOLDER~1\AppData\Local\Temp\ccdovRCu.s:32028  .debug_str:000000000002e89a .LASF3459
C:\Users\SOLDER~1\AppData\Local\Temp\ccdovRCu.s:24906  .debug_str:0000000000011a4b .LASF3460
C:\Users\SOLDER~1\AppData\Local\Temp\ccdovRCu.s:29654  .debug_str:0000000000024e6b .LASF3461
C:\Users\SOLDER~1\AppData\Local\Temp\ccdovRCu.s:25004  .debug_str:0000000000012047 .LASF3462
C:\Users\SOLDER~1\AppData\Local\Temp\ccdovRCu.s:30480  .debug_str:0000000000028507 .LASF3463
C:\Users\SOLDER~1\AppData\Local\Temp\ccdovRCu.s:28972  .debug_str:0000000000022206 .LASF3464
C:\Users\SOLDER~1\AppData\Local\Temp\ccdovRCu.s:21918  .debug_str:0000000000005686 .LASF3465
C:\Users\SOLDER~1\AppData\Local\Temp\ccdovRCu.s:24370  .debug_str:000000000000f753 .LASF3466
C:\Users\SOLDER~1\AppData\Local\Temp\ccdovRCu.s:26254  .debug_str:00000000000171fb .LASF3467
C:\Users\SOLDER~1\AppData\Local\Temp\ccdovRCu.s:26434  .debug_str:0000000000017d93 .LASF3468
C:\Users\SOLDER~1\AppData\Local\Temp\ccdovRCu.s:21198  .debug_str:00000000000029ac .LASF3469
C:\Users\SOLDER~1\AppData\Local\Temp\ccdovRCu.s:26566  .debug_str:0000000000018617 .LASF3470
C:\Users\SOLDER~1\AppData\Local\Temp\ccdovRCu.s:31322  .debug_str:000000000002bb5f .LASF3471
C:\Users\SOLDER~1\AppData\Local\Temp\ccdovRCu.s:21144  .debug_str:00000000000025fc .LASF3472
C:\Users\SOLDER~1\AppData\Local\Temp\ccdovRCu.s:21470  .debug_str:0000000000003acd .LASF3473
C:\Users\SOLDER~1\AppData\Local\Temp\ccdovRCu.s:22150  .debug_str:000000000000662b .LASF3474
C:\Users\SOLDER~1\AppData\Local\Temp\ccdovRCu.s:25396  .debug_str:0000000000013a15 .LASF3475
C:\Users\SOLDER~1\AppData\Local\Temp\ccdovRCu.s:24632  .debug_str:0000000000010881 .LASF3476
C:\Users\SOLDER~1\AppData\Local\Temp\ccdovRCu.s:25504  .debug_str:000000000001418e .LASF3477
C:\Users\SOLDER~1\AppData\Local\Temp\ccdovRCu.s:22416  .debug_str:0000000000007795 .LASF3478
C:\Users\SOLDER~1\AppData\Local\Temp\ccdovRCu.s:22754  .debug_str:0000000000008d54 .LASF3479
C:\Users\SOLDER~1\AppData\Local\Temp\ccdovRCu.s:22362  .debug_str:0000000000007449 .LASF3480
C:\Users\SOLDER~1\AppData\Local\Temp\ccdovRCu.s:28196  .debug_str:000000000001f03d .LASF3481
C:\Users\SOLDER~1\AppData\Local\Temp\ccdovRCu.s:31232  .debug_str:000000000002b59a .LASF3482
C:\Users\SOLDER~1\AppData\Local\Temp\ccdovRCu.s:21318  .debug_str:0000000000003114 .LASF3483
C:\Users\SOLDER~1\AppData\Local\Temp\ccdovRCu.s:28992  .debug_str:000000000002233a .LASF3484
C:\Users\SOLDER~1\AppData\Local\Temp\ccdovRCu.s:25382  .debug_str:0000000000013909 .LASF3485
C:\Users\SOLDER~1\AppData\Local\Temp\ccdovRCu.s:22536  .debug_str:0000000000007f63 .LASF3486
C:\Users\SOLDER~1\AppData\Local\Temp\ccdovRCu.s:21298  .debug_str:0000000000002fe1 .LASF3487
C:\Users\SOLDER~1\AppData\Local\Temp\ccdovRCu.s:30540  .debug_str:00000000000288c9 .LASF3488
C:\Users\SOLDER~1\AppData\Local\Temp\ccdovRCu.s:26660  .debug_str:0000000000018c3a .LASF3489
C:\Users\SOLDER~1\AppData\Local\Temp\ccdovRCu.s:28036  .debug_str:000000000001e581 .LASF3490
C:\Users\SOLDER~1\AppData\Local\Temp\ccdovRCu.s:25300  .debug_str:0000000000013397 .LASF3491
C:\Users\SOLDER~1\AppData\Local\Temp\ccdovRCu.s:27560  .debug_str:000000000001c66d .LASF3492
C:\Users\SOLDER~1\AppData\Local\Temp\ccdovRCu.s:24074  .debug_str:000000000000e4e9 .LASF3493
C:\Users\SOLDER~1\AppData\Local\Temp\ccdovRCu.s:23528  .debug_str:000000000000c02f .LASF3494
C:\Users\SOLDER~1\AppData\Local\Temp\ccdovRCu.s:28624  .debug_str:0000000000020bb8 .LASF3495
C:\Users\SOLDER~1\AppData\Local\Temp\ccdovRCu.s:31142  .debug_str:000000000002af97 .LASF3496
C:\Users\SOLDER~1\AppData\Local\Temp\ccdovRCu.s:30214  .debug_str:0000000000027372 .LASF3497
C:\Users\SOLDER~1\AppData\Local\Temp\ccdovRCu.s:22276  .debug_str:0000000000006e93 .LASF3498
C:\Users\SOLDER~1\AppData\Local\Temp\ccdovRCu.s:26652  .debug_str:0000000000018bac .LASF3499
C:\Users\SOLDER~1\AppData\Local\Temp\ccdovRCu.s:26016  .debug_str:0000000000016335 .LASF3500
C:\Users\SOLDER~1\AppData\Local\Temp\ccdovRCu.s:21882  .debug_str:0000000000005464 .LASF3501
C:\Users\SOLDER~1\AppData\Local\Temp\ccdovRCu.s:21234  .debug_str:0000000000002bac .LASF3502
C:\Users\SOLDER~1\AppData\Local\Temp\ccdovRCu.s:23218  .debug_str:000000000000ac48 .LASF3503
C:\Users\SOLDER~1\AppData\Local\Temp\ccdovRCu.s:29394  .debug_str:0000000000023d2b .LASF3504
GAS LISTING C:\Users\SOLDER~1\AppData\Local\Temp\ccdovRCu.s 			page 114


C:\Users\SOLDER~1\AppData\Local\Temp\ccdovRCu.s:32078  .debug_str:000000000002ebd4 .LASF3505
C:\Users\SOLDER~1\AppData\Local\Temp\ccdovRCu.s:29682  .debug_str:0000000000025045 .LASF3506
C:\Users\SOLDER~1\AppData\Local\Temp\ccdovRCu.s:24976  .debug_str:0000000000011e88 .LASF3507
C:\Users\SOLDER~1\AppData\Local\Temp\ccdovRCu.s:30518  .debug_str:000000000002876c .LASF3508
C:\Users\SOLDER~1\AppData\Local\Temp\ccdovRCu.s:22598  .debug_str:0000000000008368 .LASF3509
C:\Users\SOLDER~1\AppData\Local\Temp\ccdovRCu.s:27628  .debug_str:000000000001caf6 .LASF3510
C:\Users\SOLDER~1\AppData\Local\Temp\ccdovRCu.s:20944  .debug_str:00000000000018fe .LASF3511
C:\Users\SOLDER~1\AppData\Local\Temp\ccdovRCu.s:31478  .debug_str:000000000002c5e3 .LASF3512
C:\Users\SOLDER~1\AppData\Local\Temp\ccdovRCu.s:24202  .debug_str:000000000000ecc3 .LASF3513
C:\Users\SOLDER~1\AppData\Local\Temp\ccdovRCu.s:31886  .debug_str:000000000002e002 .LASF3514
C:\Users\SOLDER~1\AppData\Local\Temp\ccdovRCu.s:28126  .debug_str:000000000001eba5 .LASF3515
C:\Users\SOLDER~1\AppData\Local\Temp\ccdovRCu.s:30030  .debug_str:0000000000026784 .LASF3516
C:\Users\SOLDER~1\AppData\Local\Temp\ccdovRCu.s:22024  .debug_str:0000000000005dac .LASF3517
C:\Users\SOLDER~1\AppData\Local\Temp\ccdovRCu.s:30684  .debug_str:0000000000029204 .LASF3518
C:\Users\SOLDER~1\AppData\Local\Temp\ccdovRCu.s:26982  .debug_str:000000000001a114 .LASF3519
C:\Users\SOLDER~1\AppData\Local\Temp\ccdovRCu.s:26260  .debug_str:000000000001726d .LASF3520
C:\Users\SOLDER~1\AppData\Local\Temp\ccdovRCu.s:31048  .debug_str:000000000002a9af .LASF3521
C:\Users\SOLDER~1\AppData\Local\Temp\ccdovRCu.s:24320  .debug_str:000000000000f429 .LASF3522
C:\Users\SOLDER~1\AppData\Local\Temp\ccdovRCu.s:27294  .debug_str:000000000001b52f .LASF3523
C:\Users\SOLDER~1\AppData\Local\Temp\ccdovRCu.s:22426  .debug_str:0000000000007815 .LASF3524
C:\Users\SOLDER~1\AppData\Local\Temp\ccdovRCu.s:25960  .debug_str:0000000000015f8a .LASF3525
C:\Users\SOLDER~1\AppData\Local\Temp\ccdovRCu.s:21232  .debug_str:0000000000002b93 .LASF3526
C:\Users\SOLDER~1\AppData\Local\Temp\ccdovRCu.s:26274  .debug_str:0000000000017361 .LASF3527
C:\Users\SOLDER~1\AppData\Local\Temp\ccdovRCu.s:30740  .debug_str:00000000000295a3 .LASF3528
C:\Users\SOLDER~1\AppData\Local\Temp\ccdovRCu.s:20924  .debug_str:00000000000017da .LASF3529
C:\Users\SOLDER~1\AppData\Local\Temp\ccdovRCu.s:31512  .debug_str:000000000002c7f4 .LASF3530
C:\Users\SOLDER~1\AppData\Local\Temp\ccdovRCu.s:26300  .debug_str:0000000000017504 .LASF3531
C:\Users\SOLDER~1\AppData\Local\Temp\ccdovRCu.s:25634  .debug_str:0000000000014a87 .LASF3532
C:\Users\SOLDER~1\AppData\Local\Temp\ccdovRCu.s:23988  .debug_str:000000000000ded7 .LASF3533
C:\Users\SOLDER~1\AppData\Local\Temp\ccdovRCu.s:31264  .debug_str:000000000002b78c .LASF3534
C:\Users\SOLDER~1\AppData\Local\Temp\ccdovRCu.s:24416  .debug_str:000000000000fa8b .LASF3535
C:\Users\SOLDER~1\AppData\Local\Temp\ccdovRCu.s:28762  .debug_str:00000000000214ad .LASF3536
C:\Users\SOLDER~1\AppData\Local\Temp\ccdovRCu.s:21628  .debug_str:000000000000449d .LASF3537
C:\Users\SOLDER~1\AppData\Local\Temp\ccdovRCu.s:24678  .debug_str:0000000000010b8f .LASF3538
C:\Users\SOLDER~1\AppData\Local\Temp\ccdovRCu.s:21226  .debug_str:0000000000002b49 .LASF3539
C:\Users\SOLDER~1\AppData\Local\Temp\ccdovRCu.s:25922  .debug_str:0000000000015d10 .LASF3540
C:\Users\SOLDER~1\AppData\Local\Temp\ccdovRCu.s:27548  .debug_str:000000000001c59f .LASF3541
C:\Users\SOLDER~1\AppData\Local\Temp\ccdovRCu.s:20614  .debug_str:0000000000000327 .LASF3542
C:\Users\SOLDER~1\AppData\Local\Temp\ccdovRCu.s:24276  .debug_str:000000000000f180 .LASF3543
C:\Users\SOLDER~1\AppData\Local\Temp\ccdovRCu.s:29044  .debug_str:0000000000022646 .LASF3544
C:\Users\SOLDER~1\AppData\Local\Temp\ccdovRCu.s:31828  .debug_str:000000000002dc51 .LASF3545
C:\Users\SOLDER~1\AppData\Local\Temp\ccdovRCu.s:28838  .debug_str:00000000000219a3 .LASF3546
C:\Users\SOLDER~1\AppData\Local\Temp\ccdovRCu.s:22134  .debug_str:0000000000006519 .LASF3547
C:\Users\SOLDER~1\AppData\Local\Temp\ccdovRCu.s:21998  .debug_str:0000000000005bfd .LASF3548
C:\Users\SOLDER~1\AppData\Local\Temp\ccdovRCu.s:23690  .debug_str:000000000000cb88 .LASF3549
C:\Users\SOLDER~1\AppData\Local\Temp\ccdovRCu.s:20784  .debug_str:0000000000000f1f .LASF3550
C:\Users\SOLDER~1\AppData\Local\Temp\ccdovRCu.s:24504  .debug_str:0000000000010081 .LASF3551
C:\Users\SOLDER~1\AppData\Local\Temp\ccdovRCu.s:22228  .debug_str:0000000000006b72 .LASF3552
C:\Users\SOLDER~1\AppData\Local\Temp\ccdovRCu.s:21812  .debug_str:0000000000005022 .LASF3553
C:\Users\SOLDER~1\AppData\Local\Temp\ccdovRCu.s:20984  .debug_str:0000000000001bc8 .LASF3554
C:\Users\SOLDER~1\AppData\Local\Temp\ccdovRCu.s:29758  .debug_str:0000000000025516 .LASF3555
C:\Users\SOLDER~1\AppData\Local\Temp\ccdovRCu.s:20770  .debug_str:0000000000000e5e .LASF3556
C:\Users\SOLDER~1\AppData\Local\Temp\ccdovRCu.s:27114  .debug_str:000000000001a9c9 .LASF3557
C:\Users\SOLDER~1\AppData\Local\Temp\ccdovRCu.s:24294  .debug_str:000000000000f2a2 .LASF3558
C:\Users\SOLDER~1\AppData\Local\Temp\ccdovRCu.s:21096  .debug_str:00000000000022d9 .LASF3559
C:\Users\SOLDER~1\AppData\Local\Temp\ccdovRCu.s:21864  .debug_str:000000000000536d .LASF3560
C:\Users\SOLDER~1\AppData\Local\Temp\ccdovRCu.s:24180  .debug_str:000000000000eb92 .LASF3561
GAS LISTING C:\Users\SOLDER~1\AppData\Local\Temp\ccdovRCu.s 			page 115


C:\Users\SOLDER~1\AppData\Local\Temp\ccdovRCu.s:25050  .debug_str:0000000000012325 .LASF3562
C:\Users\SOLDER~1\AppData\Local\Temp\ccdovRCu.s:31612  .debug_str:000000000002ce0d .LASF3563
C:\Users\SOLDER~1\AppData\Local\Temp\ccdovRCu.s:25972  .debug_str:0000000000016052 .LASF3564
C:\Users\SOLDER~1\AppData\Local\Temp\ccdovRCu.s:27416  .debug_str:000000000001bcd1 .LASF3565
C:\Users\SOLDER~1\AppData\Local\Temp\ccdovRCu.s:28162  .debug_str:000000000001ee0e .LASF3566
C:\Users\SOLDER~1\AppData\Local\Temp\ccdovRCu.s:21194  .debug_str:0000000000002968 .LASF3567
C:\Users\SOLDER~1\AppData\Local\Temp\ccdovRCu.s:26184  .debug_str:0000000000016d6f .LASF3568
C:\Users\SOLDER~1\AppData\Local\Temp\ccdovRCu.s:24996  .debug_str:0000000000011fe2 .LASF3569
C:\Users\SOLDER~1\AppData\Local\Temp\ccdovRCu.s:31284  .debug_str:000000000002b8f5 .LASF3570
C:\Users\SOLDER~1\AppData\Local\Temp\ccdovRCu.s:28558  .debug_str:00000000000207a4 .LASF3571
C:\Users\SOLDER~1\AppData\Local\Temp\ccdovRCu.s:21150  .debug_str:000000000000263d .LASF3572
C:\Users\SOLDER~1\AppData\Local\Temp\ccdovRCu.s:26720  .debug_str:0000000000019049 .LASF3573
C:\Users\SOLDER~1\AppData\Local\Temp\ccdovRCu.s:24594  .debug_str:0000000000010611 .LASF3574
C:\Users\SOLDER~1\AppData\Local\Temp\ccdovRCu.s:23872  .debug_str:000000000000d766 .LASF3575
C:\Users\SOLDER~1\AppData\Local\Temp\ccdovRCu.s:30054  .debug_str:00000000000268f1 .LASF3576
C:\Users\SOLDER~1\AppData\Local\Temp\ccdovRCu.s:31534  .debug_str:000000000002c95a .LASF3577
C:\Users\SOLDER~1\AppData\Local\Temp\ccdovRCu.s:24264  .debug_str:000000000000f0c8 .LASF3578
C:\Users\SOLDER~1\AppData\Local\Temp\ccdovRCu.s:29354  .debug_str:0000000000023aa7 .LASF3579
C:\Users\SOLDER~1\AppData\Local\Temp\ccdovRCu.s:31934  .debug_str:000000000002e2f8 .LASF3580
C:\Users\SOLDER~1\AppData\Local\Temp\ccdovRCu.s:21662  .debug_str:00000000000046d5 .LASF3581
C:\Users\SOLDER~1\AppData\Local\Temp\ccdovRCu.s:26050  .debug_str:000000000001655a .LASF3582
C:\Users\SOLDER~1\AppData\Local\Temp\ccdovRCu.s:26402  .debug_str:0000000000017b94 .LASF3583
C:\Users\SOLDER~1\AppData\Local\Temp\ccdovRCu.s:21202  .debug_str:00000000000029e8 .LASF3584
C:\Users\SOLDER~1\AppData\Local\Temp\ccdovRCu.s:22518  .debug_str:0000000000007e22 .LASF3585
C:\Users\SOLDER~1\AppData\Local\Temp\ccdovRCu.s:20642  .debug_str:00000000000004e9 .LASF3586
C:\Users\SOLDER~1\AppData\Local\Temp\ccdovRCu.s:29022  .debug_str:00000000000224d6 .LASF3587
C:\Users\SOLDER~1\AppData\Local\Temp\ccdovRCu.s:24428  .debug_str:000000000000fb61 .LASF3588
C:\Users\SOLDER~1\AppData\Local\Temp\ccdovRCu.s:29852  .debug_str:0000000000025b32 .LASF3589
C:\Users\SOLDER~1\AppData\Local\Temp\ccdovRCu.s:29414  .debug_str:0000000000023e6d .LASF3590
C:\Users\SOLDER~1\AppData\Local\Temp\ccdovRCu.s:26490  .debug_str:0000000000018148 .LASF3591
C:\Users\SOLDER~1\AppData\Local\Temp\ccdovRCu.s:23166  .debug_str:000000000000a8ce .LASF3592
C:\Users\SOLDER~1\AppData\Local\Temp\ccdovRCu.s:24192  .debug_str:000000000000ec27 .LASF3593
C:\Users\SOLDER~1\AppData\Local\Temp\ccdovRCu.s:24872  .debug_str:00000000000117dd .LASF3594
C:\Users\SOLDER~1\AppData\Local\Temp\ccdovRCu.s:21382  .debug_str:0000000000003546 .LASF3595
C:\Users\SOLDER~1\AppData\Local\Temp\ccdovRCu.s:29830  .debug_str:000000000002599b .LASF3596
C:\Users\SOLDER~1\AppData\Local\Temp\ccdovRCu.s:27398  .debug_str:000000000001bba1 .LASF3597
C:\Users\SOLDER~1\AppData\Local\Temp\ccdovRCu.s:31258  .debug_str:000000000002b728 .LASF3598
C:\Users\SOLDER~1\AppData\Local\Temp\ccdovRCu.s:23724  .debug_str:000000000000cdb7 .LASF3599
C:\Users\SOLDER~1\AppData\Local\Temp\ccdovRCu.s:20674  .debug_str:0000000000000789 .LASF3600
C:\Users\SOLDER~1\AppData\Local\Temp\ccdovRCu.s:30960  .debug_str:000000000002a3d6 .LASF3601
C:\Users\SOLDER~1\AppData\Local\Temp\ccdovRCu.s:27352  .debug_str:000000000001b8ee .LASF3602
C:\Users\SOLDER~1\AppData\Local\Temp\ccdovRCu.s:24874  .debug_str:00000000000117fe .LASF3603
C:\Users\SOLDER~1\AppData\Local\Temp\ccdovRCu.s:28318  .debug_str:000000000001f86c .LASF3604
C:\Users\SOLDER~1\AppData\Local\Temp\ccdovRCu.s:29632  .debug_str:0000000000024cee .LASF3605
C:\Users\SOLDER~1\AppData\Local\Temp\ccdovRCu.s:27216  .debug_str:000000000001b0a7 .LASF3606
C:\Users\SOLDER~1\AppData\Local\Temp\ccdovRCu.s:23644  .debug_str:000000000000c843 .LASF3607
C:\Users\SOLDER~1\AppData\Local\Temp\ccdovRCu.s:27368  .debug_str:000000000001b9e1 .LASF3608
C:\Users\SOLDER~1\AppData\Local\Temp\ccdovRCu.s:31530  .debug_str:000000000002c914 .LASF3609
C:\Users\SOLDER~1\AppData\Local\Temp\ccdovRCu.s:24458  .debug_str:000000000000fd94 .LASF3610
C:\Users\SOLDER~1\AppData\Local\Temp\ccdovRCu.s:30854  .debug_str:0000000000029cb4 .LASF3611
C:\Users\SOLDER~1\AppData\Local\Temp\ccdovRCu.s:20920  .debug_str:00000000000017af .LASF3612
C:\Users\SOLDER~1\AppData\Local\Temp\ccdovRCu.s:22708  .debug_str:0000000000008a5f .LASF3613
C:\Users\SOLDER~1\AppData\Local\Temp\ccdovRCu.s:29444  .debug_str:0000000000024079 .LASF3614
C:\Users\SOLDER~1\AppData\Local\Temp\ccdovRCu.s:28818  .debug_str:000000000002185b .LASF3615
C:\Users\SOLDER~1\AppData\Local\Temp\ccdovRCu.s:29346  .debug_str:0000000000023a3a .LASF3616
C:\Users\SOLDER~1\AppData\Local\Temp\ccdovRCu.s:30628  .debug_str:0000000000028e98 .LASF3617
C:\Users\SOLDER~1\AppData\Local\Temp\ccdovRCu.s:29672  .debug_str:0000000000024f99 .LASF3618
GAS LISTING C:\Users\SOLDER~1\AppData\Local\Temp\ccdovRCu.s 			page 116


C:\Users\SOLDER~1\AppData\Local\Temp\ccdovRCu.s:23826  .debug_str:000000000000d478 .LASF3619
C:\Users\SOLDER~1\AppData\Local\Temp\ccdovRCu.s:26240  .debug_str:000000000001710f .LASF3620
C:\Users\SOLDER~1\AppData\Local\Temp\ccdovRCu.s:30734  .debug_str:000000000002954c .LASF3621
C:\Users\SOLDER~1\AppData\Local\Temp\ccdovRCu.s:27392  .debug_str:000000000001bb5d .LASF3622
C:\Users\SOLDER~1\AppData\Local\Temp\ccdovRCu.s:32076  .debug_str:000000000002ebb2 .LASF3623
C:\Users\SOLDER~1\AppData\Local\Temp\ccdovRCu.s:21542  .debug_str:0000000000003f3e .LASF3624
C:\Users\SOLDER~1\AppData\Local\Temp\ccdovRCu.s:29460  .debug_str:000000000002418f .LASF3625
C:\Users\SOLDER~1\AppData\Local\Temp\ccdovRCu.s:28826  .debug_str:00000000000218e1 .LASF3626
C:\Users\SOLDER~1\AppData\Local\Temp\ccdovRCu.s:31202  .debug_str:000000000002b3aa .LASF3627
C:\Users\SOLDER~1\AppData\Local\Temp\ccdovRCu.s:27172  .debug_str:000000000001ad88 .LASF3628
C:\Users\SOLDER~1\AppData\Local\Temp\ccdovRCu.s:30514  .debug_str:0000000000028731 .LASF3629
C:\Users\SOLDER~1\AppData\Local\Temp\ccdovRCu.s:25146  .debug_str:0000000000012939 .LASF3630
C:\Users\SOLDER~1\AppData\Local\Temp\ccdovRCu.s:30814  .debug_str:0000000000029a6f .LASF3631
C:\Users\SOLDER~1\AppData\Local\Temp\ccdovRCu.s:28876  .debug_str:0000000000021c16 .LASF3632
C:\Users\SOLDER~1\AppData\Local\Temp\ccdovRCu.s:26264  .debug_str:00000000000172ab .LASF3633
C:\Users\SOLDER~1\AppData\Local\Temp\ccdovRCu.s:29108  .debug_str:0000000000022a8e .LASF3634
C:\Users\SOLDER~1\AppData\Local\Temp\ccdovRCu.s:26400  .debug_str:0000000000017b74 .LASF3635
C:\Users\SOLDER~1\AppData\Local\Temp\ccdovRCu.s:29160  .debug_str:0000000000022e03 .LASF3636
C:\Users\SOLDER~1\AppData\Local\Temp\ccdovRCu.s:24382  .debug_str:000000000000f80f .LASF3637
C:\Users\SOLDER~1\AppData\Local\Temp\ccdovRCu.s:28482  .debug_str:00000000000202ba .LASF3638
C:\Users\SOLDER~1\AppData\Local\Temp\ccdovRCu.s:24888  .debug_str:0000000000011902 .LASF3639
C:\Users\SOLDER~1\AppData\Local\Temp\ccdovRCu.s:30842  .debug_str:0000000000029bff .LASF3640
C:\Users\SOLDER~1\AppData\Local\Temp\ccdovRCu.s:29174  .debug_str:0000000000022f02 .LASF3641
C:\Users\SOLDER~1\AppData\Local\Temp\ccdovRCu.s:23934  .debug_str:000000000000db5b .LASF3642
C:\Users\SOLDER~1\AppData\Local\Temp\ccdovRCu.s:30876  .debug_str:0000000000029e1a .LASF3643
C:\Users\SOLDER~1\AppData\Local\Temp\ccdovRCu.s:29690  .debug_str:00000000000250dc .LASF3644
C:\Users\SOLDER~1\AppData\Local\Temp\ccdovRCu.s:31046  .debug_str:000000000002a98c .LASF3645
C:\Users\SOLDER~1\AppData\Local\Temp\ccdovRCu.s:31538  .debug_str:000000000002c9a7 .LASF3646
C:\Users\SOLDER~1\AppData\Local\Temp\ccdovRCu.s:22198  .debug_str:0000000000006998 .LASF3647
C:\Users\SOLDER~1\AppData\Local\Temp\ccdovRCu.s:20622  .debug_str:00000000000003a5 .LASF3648
C:\Users\SOLDER~1\AppData\Local\Temp\ccdovRCu.s:28232  .debug_str:000000000001f295 .LASF3649
C:\Users\SOLDER~1\AppData\Local\Temp\ccdovRCu.s:22876  .debug_str:00000000000095a1 .LASF3650
C:\Users\SOLDER~1\AppData\Local\Temp\ccdovRCu.s:25932  .debug_str:0000000000015dae .LASF3651
C:\Users\SOLDER~1\AppData\Local\Temp\ccdovRCu.s:20750  .debug_str:0000000000000ce8 .LASF3652
C:\Users\SOLDER~1\AppData\Local\Temp\ccdovRCu.s:31698  .debug_str:000000000002d40e .LASF3653
C:\Users\SOLDER~1\AppData\Local\Temp\ccdovRCu.s:26798  .debug_str:0000000000019566 .LASF3654
C:\Users\SOLDER~1\AppData\Local\Temp\ccdovRCu.s:31808  .debug_str:000000000002db1b .LASF3655
C:\Users\SOLDER~1\AppData\Local\Temp\ccdovRCu.s:30256  .debug_str:0000000000027633 .LASF3656
C:\Users\SOLDER~1\AppData\Local\Temp\ccdovRCu.s:22934  .debug_str:000000000000996c .LASF3657
C:\Users\SOLDER~1\AppData\Local\Temp\ccdovRCu.s:29438  .debug_str:000000000002400e .LASF3658
C:\Users\SOLDER~1\AppData\Local\Temp\ccdovRCu.s:31590  .debug_str:000000000002ccc7 .LASF3659
C:\Users\SOLDER~1\AppData\Local\Temp\ccdovRCu.s:22106  .debug_str:0000000000006344 .LASF3660
C:\Users\SOLDER~1\AppData\Local\Temp\ccdovRCu.s:27288  .debug_str:000000000001b4e1 .LASF3661
C:\Users\SOLDER~1\AppData\Local\Temp\ccdovRCu.s:22046  .debug_str:0000000000005f0f .LASF3662
C:\Users\SOLDER~1\AppData\Local\Temp\ccdovRCu.s:21718  .debug_str:0000000000004a4b .LASF3663
C:\Users\SOLDER~1\AppData\Local\Temp\ccdovRCu.s:21752  .debug_str:0000000000004ca1 .LASF3664
C:\Users\SOLDER~1\AppData\Local\Temp\ccdovRCu.s:21296  .debug_str:0000000000002fbe .LASF3665
C:\Users\SOLDER~1\AppData\Local\Temp\ccdovRCu.s:30116  .debug_str:0000000000026d3c .LASF3666
C:\Users\SOLDER~1\AppData\Local\Temp\ccdovRCu.s:22204  .debug_str:00000000000069eb .LASF3667
C:\Users\SOLDER~1\AppData\Local\Temp\ccdovRCu.s:26554  .debug_str:0000000000018550 .LASF3668
C:\Users\SOLDER~1\AppData\Local\Temp\ccdovRCu.s:24154  .debug_str:000000000000ea0e .LASF3669
C:\Users\SOLDER~1\AppData\Local\Temp\ccdovRCu.s:24418  .debug_str:000000000000faab .LASF3670
C:\Users\SOLDER~1\AppData\Local\Temp\ccdovRCu.s:29014  .debug_str:0000000000022474 .LASF3671
C:\Users\SOLDER~1\AppData\Local\Temp\ccdovRCu.s:30096  .debug_str:0000000000026bcc .LASF3672
C:\Users\SOLDER~1\AppData\Local\Temp\ccdovRCu.s:27012  .debug_str:000000000001a2fd .LASF3673
C:\Users\SOLDER~1\AppData\Local\Temp\ccdovRCu.s:27032  .debug_str:000000000001a439 .LASF3674
C:\Users\SOLDER~1\AppData\Local\Temp\ccdovRCu.s:23052  .debug_str:000000000000a12e .LASF3675
GAS LISTING C:\Users\SOLDER~1\AppData\Local\Temp\ccdovRCu.s 			page 117


C:\Users\SOLDER~1\AppData\Local\Temp\ccdovRCu.s:24778  .debug_str:00000000000111ea .LASF3676
C:\Users\SOLDER~1\AppData\Local\Temp\ccdovRCu.s:29132  .debug_str:0000000000022c1d .LASF3677
C:\Users\SOLDER~1\AppData\Local\Temp\ccdovRCu.s:27046  .debug_str:000000000001a544 .LASF3678
C:\Users\SOLDER~1\AppData\Local\Temp\ccdovRCu.s:29364  .debug_str:0000000000023b59 .LASF3679
C:\Users\SOLDER~1\AppData\Local\Temp\ccdovRCu.s:30728  .debug_str:00000000000294e3 .LASF3680
C:\Users\SOLDER~1\AppData\Local\Temp\ccdovRCu.s:31522  .debug_str:000000000002c8a3 .LASF3681
C:\Users\SOLDER~1\AppData\Local\Temp\ccdovRCu.s:26154  .debug_str:0000000000016bc3 .LASF3682
C:\Users\SOLDER~1\AppData\Local\Temp\ccdovRCu.s:31204  .debug_str:000000000002b3cb .LASF3683
C:\Users\SOLDER~1\AppData\Local\Temp\ccdovRCu.s:24902  .debug_str:00000000000119f4 .LASF3684
C:\Users\SOLDER~1\AppData\Local\Temp\ccdovRCu.s:28798  .debug_str:00000000000216ef .LASF3685
C:\Users\SOLDER~1\AppData\Local\Temp\ccdovRCu.s:24706  .debug_str:0000000000010d3a .LASF3686
C:\Users\SOLDER~1\AppData\Local\Temp\ccdovRCu.s:32084  .debug_str:000000000002ec2f .LASF3687
C:\Users\SOLDER~1\AppData\Local\Temp\ccdovRCu.s:28816  .debug_str:0000000000021834 .LASF3688
C:\Users\SOLDER~1\AppData\Local\Temp\ccdovRCu.s:22716  .debug_str:0000000000008ae2 .LASF3689
C:\Users\SOLDER~1\AppData\Local\Temp\ccdovRCu.s:28806  .debug_str:000000000002178f .LASF3690
C:\Users\SOLDER~1\AppData\Local\Temp\ccdovRCu.s:25746  .debug_str:00000000000151b4 .LASF3691
C:\Users\SOLDER~1\AppData\Local\Temp\ccdovRCu.s:21978  .debug_str:0000000000005abd .LASF3692
C:\Users\SOLDER~1\AppData\Local\Temp\ccdovRCu.s:23622  .debug_str:000000000000c6c9 .LASF3693
C:\Users\SOLDER~1\AppData\Local\Temp\ccdovRCu.s:30666  .debug_str:00000000000290fc .LASF3694
C:\Users\SOLDER~1\AppData\Local\Temp\ccdovRCu.s:25652  .debug_str:0000000000014ba7 .LASF3695
C:\Users\SOLDER~1\AppData\Local\Temp\ccdovRCu.s:22912  .debug_str:00000000000097eb .LASF3696
C:\Users\SOLDER~1\AppData\Local\Temp\ccdovRCu.s:23502  .debug_str:000000000000be8d .LASF3697
C:\Users\SOLDER~1\AppData\Local\Temp\ccdovRCu.s:27068  .debug_str:000000000001a68d .LASF3698
C:\Users\SOLDER~1\AppData\Local\Temp\ccdovRCu.s:24400  .debug_str:000000000000f987 .LASF3699
C:\Users\SOLDER~1\AppData\Local\Temp\ccdovRCu.s:28000  .debug_str:000000000001e335 .LASF3700
C:\Users\SOLDER~1\AppData\Local\Temp\ccdovRCu.s:21040  .debug_str:0000000000001f1e .LASF3701
C:\Users\SOLDER~1\AppData\Local\Temp\ccdovRCu.s:24646  .debug_str:0000000000010973 .LASF3702
C:\Users\SOLDER~1\AppData\Local\Temp\ccdovRCu.s:24104  .debug_str:000000000000e6a0 .LASF3703
C:\Users\SOLDER~1\AppData\Local\Temp\ccdovRCu.s:21392  .debug_str:00000000000035b5 .LASF3704
C:\Users\SOLDER~1\AppData\Local\Temp\ccdovRCu.s:30252  .debug_str:00000000000275e6 .LASF3705
C:\Users\SOLDER~1\AppData\Local\Temp\ccdovRCu.s:29578  .debug_str:0000000000024961 .LASF3706
C:\Users\SOLDER~1\AppData\Local\Temp\ccdovRCu.s:23778  .debug_str:000000000000d164 .LASF3707
C:\Users\SOLDER~1\AppData\Local\Temp\ccdovRCu.s:21122  .debug_str:0000000000002491 .LASF3708
C:\Users\SOLDER~1\AppData\Local\Temp\ccdovRCu.s:29826  .debug_str:0000000000025952 .LASF3709
C:\Users\SOLDER~1\AppData\Local\Temp\ccdovRCu.s:21322  .debug_str:000000000000315a .LASF3710
C:\Users\SOLDER~1\AppData\Local\Temp\ccdovRCu.s:21056  .debug_str:0000000000002020 .LASF3711
C:\Users\SOLDER~1\AppData\Local\Temp\ccdovRCu.s:29914  .debug_str:0000000000025f64 .LASF3712
C:\Users\SOLDER~1\AppData\Local\Temp\ccdovRCu.s:30302  .debug_str:000000000002792f .LASF3713
C:\Users\SOLDER~1\AppData\Local\Temp\ccdovRCu.s:30772  .debug_str:00000000000297d6 .LASF3714
C:\Users\SOLDER~1\AppData\Local\Temp\ccdovRCu.s:21728  .debug_str:0000000000004af8 .LASF3715
C:\Users\SOLDER~1\AppData\Local\Temp\ccdovRCu.s:30786  .debug_str:00000000000298c2 .LASF3716
C:\Users\SOLDER~1\AppData\Local\Temp\ccdovRCu.s:26812  .debug_str:0000000000019665 .LASF3717
C:\Users\SOLDER~1\AppData\Local\Temp\ccdovRCu.s:23534  .debug_str:000000000000c080 .LASF3718
C:\Users\SOLDER~1\AppData\Local\Temp\ccdovRCu.s:30182  .debug_str:0000000000027167 .LASF3719
C:\Users\SOLDER~1\AppData\Local\Temp\ccdovRCu.s:23838  .debug_str:000000000000d551 .LASF3720
C:\Users\SOLDER~1\AppData\Local\Temp\ccdovRCu.s:31976  .debug_str:000000000002e57c .LASF3721
C:\Users\SOLDER~1\AppData\Local\Temp\ccdovRCu.s:31234  .debug_str:000000000002b5b2 .LASF3722
C:\Users\SOLDER~1\AppData\Local\Temp\ccdovRCu.s:29652  .debug_str:0000000000024e4a .LASF3723
C:\Users\SOLDER~1\AppData\Local\Temp\ccdovRCu.s:31708  .debug_str:000000000002d4b7 .LASF3724
C:\Users\SOLDER~1\AppData\Local\Temp\ccdovRCu.s:28690  .debug_str:0000000000020fe6 .LASF3725
C:\Users\SOLDER~1\AppData\Local\Temp\ccdovRCu.s:25564  .debug_str:00000000000145d6 .LASF3726
C:\Users\SOLDER~1\AppData\Local\Temp\ccdovRCu.s:30972  .debug_str:000000000002a4a1 .LASF3727
C:\Users\SOLDER~1\AppData\Local\Temp\ccdovRCu.s:23212  .debug_str:000000000000abe8 .LASF3728
C:\Users\SOLDER~1\AppData\Local\Temp\ccdovRCu.s:25864  .debug_str:0000000000015964 .LASF3729
C:\Users\SOLDER~1\AppData\Local\Temp\ccdovRCu.s:26676  .debug_str:0000000000018d39 .LASF3730
C:\Users\SOLDER~1\AppData\Local\Temp\ccdovRCu.s:22488  .debug_str:0000000000007c34 .LASF3731
C:\Users\SOLDER~1\AppData\Local\Temp\ccdovRCu.s:27194  .debug_str:000000000001af2a .LASF3732
GAS LISTING C:\Users\SOLDER~1\AppData\Local\Temp\ccdovRCu.s 			page 118


C:\Users\SOLDER~1\AppData\Local\Temp\ccdovRCu.s:23504  .debug_str:000000000000beb2 .LASF3733
C:\Users\SOLDER~1\AppData\Local\Temp\ccdovRCu.s:26966  .debug_str:000000000001a008 .LASF3734
C:\Users\SOLDER~1\AppData\Local\Temp\ccdovRCu.s:23430  .debug_str:000000000000b9f1 .LASF3735
C:\Users\SOLDER~1\AppData\Local\Temp\ccdovRCu.s:21966  .debug_str:00000000000059fa .LASF3736
C:\Users\SOLDER~1\AppData\Local\Temp\ccdovRCu.s:24466  .debug_str:000000000000fe1b .LASF3737
C:\Users\SOLDER~1\AppData\Local\Temp\ccdovRCu.s:22272  .debug_str:0000000000006e53 .LASF3738
C:\Users\SOLDER~1\AppData\Local\Temp\ccdovRCu.s:21376  .debug_str:00000000000034ed .LASF3739
C:\Users\SOLDER~1\AppData\Local\Temp\ccdovRCu.s:28300  .debug_str:000000000001f722 .LASF3740
C:\Users\SOLDER~1\AppData\Local\Temp\ccdovRCu.s:28390  .debug_str:000000000001fcfc .LASF3741
C:\Users\SOLDER~1\AppData\Local\Temp\ccdovRCu.s:23938  .debug_str:000000000000db95 .LASF3742
C:\Users\SOLDER~1\AppData\Local\Temp\ccdovRCu.s:31930  .debug_str:000000000002e2bd .LASF3743
C:\Users\SOLDER~1\AppData\Local\Temp\ccdovRCu.s:21960  .debug_str:0000000000005998 .LASF3744
C:\Users\SOLDER~1\AppData\Local\Temp\ccdovRCu.s:30908  .debug_str:000000000002a076 .LASF3745
C:\Users\SOLDER~1\AppData\Local\Temp\ccdovRCu.s:23984  .debug_str:000000000000de9c .LASF3746
C:\Users\SOLDER~1\AppData\Local\Temp\ccdovRCu.s:29138  .debug_str:0000000000022c7c .LASF3747
C:\Users\SOLDER~1\AppData\Local\Temp\ccdovRCu.s:25274  .debug_str:00000000000131a6 .LASF3748
C:\Users\SOLDER~1\AppData\Local\Temp\ccdovRCu.s:23742  .debug_str:000000000000ceff .LASF3749
C:\Users\SOLDER~1\AppData\Local\Temp\ccdovRCu.s:31058  .debug_str:000000000002aa2f .LASF3750
C:\Users\SOLDER~1\AppData\Local\Temp\ccdovRCu.s:27376  .debug_str:000000000001ba4b .LASF3751
C:\Users\SOLDER~1\AppData\Local\Temp\ccdovRCu.s:24486  .debug_str:000000000000ff6c .LASF3752
C:\Users\SOLDER~1\AppData\Local\Temp\ccdovRCu.s:27984  .debug_str:000000000001e247 .LASF3753
C:\Users\SOLDER~1\AppData\Local\Temp\ccdovRCu.s:24450  .debug_str:000000000000fd04 .LASF3754
C:\Users\SOLDER~1\AppData\Local\Temp\ccdovRCu.s:26976  .debug_str:000000000001a0ba .LASF3755
C:\Users\SOLDER~1\AppData\Local\Temp\ccdovRCu.s:27214  .debug_str:000000000001b084 .LASF3756
C:\Users\SOLDER~1\AppData\Local\Temp\ccdovRCu.s:25044  .debug_str:00000000000122cd .LASF3757
C:\Users\SOLDER~1\AppData\Local\Temp\ccdovRCu.s:26558  .debug_str:000000000001859e .LASF3758
C:\Users\SOLDER~1\AppData\Local\Temp\ccdovRCu.s:21148  .debug_str:0000000000002627 .LASF3759
C:\Users\SOLDER~1\AppData\Local\Temp\ccdovRCu.s:21870  .debug_str:00000000000053b1 .LASF3760
C:\Users\SOLDER~1\AppData\Local\Temp\ccdovRCu.s:31506  .debug_str:000000000002c79d .LASF3761
C:\Users\SOLDER~1\AppData\Local\Temp\ccdovRCu.s:31732  .debug_str:000000000002d63c .LASF3762
C:\Users\SOLDER~1\AppData\Local\Temp\ccdovRCu.s:20844  .debug_str:00000000000012ba .LASF3763
C:\Users\SOLDER~1\AppData\Local\Temp\ccdovRCu.s:26616  .debug_str:0000000000018938 .LASF3764
C:\Users\SOLDER~1\AppData\Local\Temp\ccdovRCu.s:24756  .debug_str:0000000000011082 .LASF3765
C:\Users\SOLDER~1\AppData\Local\Temp\ccdovRCu.s:29580  .debug_str:0000000000024985 .LASF3766
C:\Users\SOLDER~1\AppData\Local\Temp\ccdovRCu.s:23298  .debug_str:000000000000b186 .LASF3767
C:\Users\SOLDER~1\AppData\Local\Temp\ccdovRCu.s:28874  .debug_str:0000000000021bf3 .LASF3768
C:\Users\SOLDER~1\AppData\Local\Temp\ccdovRCu.s:21126  .debug_str:00000000000024e3 .LASF3769
C:\Users\SOLDER~1\AppData\Local\Temp\ccdovRCu.s:30372  .debug_str:0000000000027da3 .LASF3770
C:\Users\SOLDER~1\AppData\Local\Temp\ccdovRCu.s:20794  .debug_str:0000000000000fca .LASF3771
C:\Users\SOLDER~1\AppData\Local\Temp\ccdovRCu.s:29440  .debug_str:0000000000024035 .LASF3772
C:\Users\SOLDER~1\AppData\Local\Temp\ccdovRCu.s:25388  .debug_str:000000000001399d .LASF3773
C:\Users\SOLDER~1\AppData\Local\Temp\ccdovRCu.s:30782  .debug_str:0000000000029872 .LASF3774
C:\Users\SOLDER~1\AppData\Local\Temp\ccdovRCu.s:28206  .debug_str:000000000001f0e1 .LASF3775
C:\Users\SOLDER~1\AppData\Local\Temp\ccdovRCu.s:23818  .debug_str:000000000000d3ec .LASF3776
C:\Users\SOLDER~1\AppData\Local\Temp\ccdovRCu.s:22386  .debug_str:00000000000075cb .LASF3777
C:\Users\SOLDER~1\AppData\Local\Temp\ccdovRCu.s:30082  .debug_str:0000000000026af5 .LASF3778
C:\Users\SOLDER~1\AppData\Local\Temp\ccdovRCu.s:28384  .debug_str:000000000001fca2 .LASF3779
C:\Users\SOLDER~1\AppData\Local\Temp\ccdovRCu.s:28644  .debug_str:0000000000020d12 .LASF3780
C:\Users\SOLDER~1\AppData\Local\Temp\ccdovRCu.s:29550  .debug_str:000000000002477c .LASF3781
C:\Users\SOLDER~1\AppData\Local\Temp\ccdovRCu.s:21568  .debug_str:00000000000040e4 .LASF3782
C:\Users\SOLDER~1\AppData\Local\Temp\ccdovRCu.s:25672  .debug_str:0000000000014d1c .LASF3783
C:\Users\SOLDER~1\AppData\Local\Temp\ccdovRCu.s:24266  .debug_str:000000000000f0e1 .LASF3784
C:\Users\SOLDER~1\AppData\Local\Temp\ccdovRCu.s:22240  .debug_str:0000000000006c31 .LASF3785
C:\Users\SOLDER~1\AppData\Local\Temp\ccdovRCu.s:20596  .debug_str:00000000000001ce .LASF3786
C:\Users\SOLDER~1\AppData\Local\Temp\ccdovRCu.s:31712  .debug_str:000000000002d500 .LASF3787
C:\Users\SOLDER~1\AppData\Local\Temp\ccdovRCu.s:29554  .debug_str:00000000000247b9 .LASF3788
C:\Users\SOLDER~1\AppData\Local\Temp\ccdovRCu.s:22018  .debug_str:0000000000005d5f .LASF3789
GAS LISTING C:\Users\SOLDER~1\AppData\Local\Temp\ccdovRCu.s 			page 119


C:\Users\SOLDER~1\AppData\Local\Temp\ccdovRCu.s:23160  .debug_str:000000000000a882 .LASF3790
C:\Users\SOLDER~1\AppData\Local\Temp\ccdovRCu.s:30612  .debug_str:0000000000028da6 .LASF3791
C:\Users\SOLDER~1\AppData\Local\Temp\ccdovRCu.s:30206  .debug_str:00000000000272e7 .LASF3792
C:\Users\SOLDER~1\AppData\Local\Temp\ccdovRCu.s:27812  .debug_str:000000000001d765 .LASF3793
C:\Users\SOLDER~1\AppData\Local\Temp\ccdovRCu.s:31614  .debug_str:000000000002ce32 .LASF3794
C:\Users\SOLDER~1\AppData\Local\Temp\ccdovRCu.s:24582  .debug_str:000000000001055e .LASF3795
C:\Users\SOLDER~1\AppData\Local\Temp\ccdovRCu.s:23042  .debug_str:000000000000a06e .LASF3796
C:\Users\SOLDER~1\AppData\Local\Temp\ccdovRCu.s:24488  .debug_str:000000000000ff90 .LASF3797
C:\Users\SOLDER~1\AppData\Local\Temp\ccdovRCu.s:30396  .debug_str:0000000000027f40 .LASF3798
C:\Users\SOLDER~1\AppData\Local\Temp\ccdovRCu.s:31004  .debug_str:000000000002a6d0 .LASF3799
C:\Users\SOLDER~1\AppData\Local\Temp\ccdovRCu.s:27446  .debug_str:000000000001bea7 .LASF3800
C:\Users\SOLDER~1\AppData\Local\Temp\ccdovRCu.s:28688  .debug_str:0000000000020fd1 .LASF3801
C:\Users\SOLDER~1\AppData\Local\Temp\ccdovRCu.s:26354  .debug_str:00000000000178ab .LASF3802
C:\Users\SOLDER~1\AppData\Local\Temp\ccdovRCu.s:30720  .debug_str:0000000000029471 .LASF3803
C:\Users\SOLDER~1\AppData\Local\Temp\ccdovRCu.s:28446  .debug_str:000000000002006f .LASF3804
C:\Users\SOLDER~1\AppData\Local\Temp\ccdovRCu.s:27564  .debug_str:000000000001c69f .LASF3805
C:\Users\SOLDER~1\AppData\Local\Temp\ccdovRCu.s:20648  .debug_str:0000000000000544 .LASF3806
C:\Users\SOLDER~1\AppData\Local\Temp\ccdovRCu.s:31352  .debug_str:000000000002bd66 .LASF3807
C:\Users\SOLDER~1\AppData\Local\Temp\ccdovRCu.s:20712  .debug_str:0000000000000a3d .LASF3808
C:\Users\SOLDER~1\AppData\Local\Temp\ccdovRCu.s:25806  .debug_str:0000000000015593 .LASF3809
C:\Users\SOLDER~1\AppData\Local\Temp\ccdovRCu.s:26118  .debug_str:000000000001695e .LASF3810
C:\Users\SOLDER~1\AppData\Local\Temp\ccdovRCu.s:28408  .debug_str:000000000001fe24 .LASF3811
C:\Users\SOLDER~1\AppData\Local\Temp\ccdovRCu.s:25928  .debug_str:0000000000015d6d .LASF3812
C:\Users\SOLDER~1\AppData\Local\Temp\ccdovRCu.s:22644  .debug_str:0000000000008643 .LASF3813
C:\Users\SOLDER~1\AppData\Local\Temp\ccdovRCu.s:21596  .debug_str:00000000000042a8 .LASF3814
C:\Users\SOLDER~1\AppData\Local\Temp\ccdovRCu.s:22826  .debug_str:0000000000009241 .LASF3815
C:\Users\SOLDER~1\AppData\Local\Temp\ccdovRCu.s:25904  .debug_str:0000000000015bf2 .LASF3816
C:\Users\SOLDER~1\AppData\Local\Temp\ccdovRCu.s:22664  .debug_str:000000000000878b .LASF3817
C:\Users\SOLDER~1\AppData\Local\Temp\ccdovRCu.s:23876  .debug_str:000000000000d7b7 .LASF3818
C:\Users\SOLDER~1\AppData\Local\Temp\ccdovRCu.s:21776  .debug_str:0000000000004e0c .LASF3819
C:\Users\SOLDER~1\AppData\Local\Temp\ccdovRCu.s:29620  .debug_str:0000000000024c16 .LASF3820
C:\Users\SOLDER~1\AppData\Local\Temp\ccdovRCu.s:21356  .debug_str:000000000000338a .LASF3821
C:\Users\SOLDER~1\AppData\Local\Temp\ccdovRCu.s:24462  .debug_str:000000000000fdd4 .LASF3822
C:\Users\SOLDER~1\AppData\Local\Temp\ccdovRCu.s:27708  .debug_str:000000000001d066 .LASF3823
C:\Users\SOLDER~1\AppData\Local\Temp\ccdovRCu.s:30946  .debug_str:000000000002a2d5 .LASF3824
C:\Users\SOLDER~1\AppData\Local\Temp\ccdovRCu.s:23034  .debug_str:0000000000009fe4 .LASF3825
C:\Users\SOLDER~1\AppData\Local\Temp\ccdovRCu.s:28878  .debug_str:0000000000021c26 .LASF3826
C:\Users\SOLDER~1\AppData\Local\Temp\ccdovRCu.s:23026  .debug_str:0000000000009f65 .LASF3827
C:\Users\SOLDER~1\AppData\Local\Temp\ccdovRCu.s:22434  .debug_str:000000000000788c .LASF3828
C:\Users\SOLDER~1\AppData\Local\Temp\ccdovRCu.s:23648  .debug_str:000000000000c888 .LASF3829
C:\Users\SOLDER~1\AppData\Local\Temp\ccdovRCu.s:23636  .debug_str:000000000000c7ac .LASF3830
C:\Users\SOLDER~1\AppData\Local\Temp\ccdovRCu.s:21284  .debug_str:0000000000002edf .LASF3831
C:\Users\SOLDER~1\AppData\Local\Temp\ccdovRCu.s:23436  .debug_str:000000000000ba4f .LASF3832
C:\Users\SOLDER~1\AppData\Local\Temp\ccdovRCu.s:29368  .debug_str:0000000000023b9d .LASF3833
C:\Users\SOLDER~1\AppData\Local\Temp\ccdovRCu.s:27476  .debug_str:000000000001c0cf .LASF3834
C:\Users\SOLDER~1\AppData\Local\Temp\ccdovRCu.s:23970  .debug_str:000000000000ddb7 .LASF3835
C:\Users\SOLDER~1\AppData\Local\Temp\ccdovRCu.s:31220  .debug_str:000000000002b4ed .LASF3836
C:\Users\SOLDER~1\AppData\Local\Temp\ccdovRCu.s:29284  .debug_str:000000000002362d .LASF3837
C:\Users\SOLDER~1\AppData\Local\Temp\ccdovRCu.s:21658  .debug_str:0000000000004698 .LASF3838
C:\Users\SOLDER~1\AppData\Local\Temp\ccdovRCu.s:29546  .debug_str:0000000000024735 .LASF3839
C:\Users\SOLDER~1\AppData\Local\Temp\ccdovRCu.s:29078  .debug_str:0000000000022892 .LASF3840
C:\Users\SOLDER~1\AppData\Local\Temp\ccdovRCu.s:21614  .debug_str:00000000000043c6 .LASF3841
C:\Users\SOLDER~1\AppData\Local\Temp\ccdovRCu.s:23700  .debug_str:000000000000cc1f .LASF3842
C:\Users\SOLDER~1\AppData\Local\Temp\ccdovRCu.s:30788  .debug_str:00000000000298e7 .LASF3843
C:\Users\SOLDER~1\AppData\Local\Temp\ccdovRCu.s:23140  .debug_str:000000000000a73a .LASF3844
C:\Users\SOLDER~1\AppData\Local\Temp\ccdovRCu.s:29114  .debug_str:0000000000022af0 .LASF3845
C:\Users\SOLDER~1\AppData\Local\Temp\ccdovRCu.s:27698  .debug_str:000000000001cfdf .LASF3846
GAS LISTING C:\Users\SOLDER~1\AppData\Local\Temp\ccdovRCu.s 			page 120


C:\Users\SOLDER~1\AppData\Local\Temp\ccdovRCu.s:29424  .debug_str:0000000000023f23 .LASF3847
C:\Users\SOLDER~1\AppData\Local\Temp\ccdovRCu.s:24672  .debug_str:0000000000010b43 .LASF3848
C:\Users\SOLDER~1\AppData\Local\Temp\ccdovRCu.s:26060  .debug_str:000000000001661c .LASF3849
C:\Users\SOLDER~1\AppData\Local\Temp\ccdovRCu.s:22034  .debug_str:0000000000005e4f .LASF3850
C:\Users\SOLDER~1\AppData\Local\Temp\ccdovRCu.s:23546  .debug_str:000000000000c166 .LASF3851
C:\Users\SOLDER~1\AppData\Local\Temp\ccdovRCu.s:23294  .debug_str:000000000000b151 .LASF3852
C:\Users\SOLDER~1\AppData\Local\Temp\ccdovRCu.s:23326  .debug_str:000000000000b33f .LASF3853
C:\Users\SOLDER~1\AppData\Local\Temp\ccdovRCu.s:21294  .debug_str:0000000000002fa8 .LASF3854
C:\Users\SOLDER~1\AppData\Local\Temp\ccdovRCu.s:26804  .debug_str:00000000000195d5 .LASF3855
C:\Users\SOLDER~1\AppData\Local\Temp\ccdovRCu.s:23966  .debug_str:000000000000dd7c .LASF3856
C:\Users\SOLDER~1\AppData\Local\Temp\ccdovRCu.s:31686  .debug_str:000000000002d324 .LASF3857
C:\Users\SOLDER~1\AppData\Local\Temp\ccdovRCu.s:31386  .debug_str:000000000002bf93 .LASF3858
C:\Users\SOLDER~1\AppData\Local\Temp\ccdovRCu.s:29796  .debug_str:000000000002577a .LASF3859
C:\Users\SOLDER~1\AppData\Local\Temp\ccdovRCu.s:28048  .debug_str:000000000001e632 .LASF3860
C:\Users\SOLDER~1\AppData\Local\Temp\ccdovRCu.s:20744  .debug_str:0000000000000c7c .LASF3861
C:\Users\SOLDER~1\AppData\Local\Temp\ccdovRCu.s:30846  .debug_str:0000000000029c51 .LASF3862
C:\Users\SOLDER~1\AppData\Local\Temp\ccdovRCu.s:21456  .debug_str:00000000000039d4 .LASF3863
C:\Users\SOLDER~1\AppData\Local\Temp\ccdovRCu.s:31756  .debug_str:000000000002d7b1 .LASF3864
C:\Users\SOLDER~1\AppData\Local\Temp\ccdovRCu.s:24122  .debug_str:000000000000e7d8 .LASF3865
C:\Users\SOLDER~1\AppData\Local\Temp\ccdovRCu.s:23292  .debug_str:000000000000b131 .LASF3866
C:\Users\SOLDER~1\AppData\Local\Temp\ccdovRCu.s:24460  .debug_str:000000000000fdb4 .LASF3867
C:\Users\SOLDER~1\AppData\Local\Temp\ccdovRCu.s:26548  .debug_str:00000000000184fd .LASF3868
C:\Users\SOLDER~1\AppData\Local\Temp\ccdovRCu.s:27586  .debug_str:000000000001c828 .LASF3869
C:\Users\SOLDER~1\AppData\Local\Temp\ccdovRCu.s:24114  .debug_str:000000000000e74c .LASF3870
C:\Users\SOLDER~1\AppData\Local\Temp\ccdovRCu.s:24032  .debug_str:000000000000e208 .LASF3871
C:\Users\SOLDER~1\AppData\Local\Temp\ccdovRCu.s:31854  .debug_str:000000000002dde2 .LASF3872
C:\Users\SOLDER~1\AppData\Local\Temp\ccdovRCu.s:26648  .debug_str:0000000000018b4c .LASF3873
C:\Users\SOLDER~1\AppData\Local\Temp\ccdovRCu.s:21548  .debug_str:0000000000003f94 .LASF3874
C:\Users\SOLDER~1\AppData\Local\Temp\ccdovRCu.s:30676  .debug_str:0000000000029194 .LASF3875
C:\Users\SOLDER~1\AppData\Local\Temp\ccdovRCu.s:22480  .debug_str:0000000000007ba6 .LASF3876
C:\Users\SOLDER~1\AppData\Local\Temp\ccdovRCu.s:21546  .debug_str:0000000000003f70 .LASF3877
C:\Users\SOLDER~1\AppData\Local\Temp\ccdovRCu.s:26770  .debug_str:0000000000019371 .LASF3878
C:\Users\SOLDER~1\AppData\Local\Temp\ccdovRCu.s:23558  .debug_str:000000000000c238 .LASF3879
C:\Users\SOLDER~1\AppData\Local\Temp\ccdovRCu.s:23638  .debug_str:000000000000c7ce .LASF3880
C:\Users\SOLDER~1\AppData\Local\Temp\ccdovRCu.s:29628  .debug_str:0000000000024c90 .LASF3881
C:\Users\SOLDER~1\AppData\Local\Temp\ccdovRCu.s:24372  .debug_str:000000000000f76e .LASF3882
C:\Users\SOLDER~1\AppData\Local\Temp\ccdovRCu.s:20588  .debug_str:0000000000000159 .LASF3883
C:\Users\SOLDER~1\AppData\Local\Temp\ccdovRCu.s:31296  .debug_str:000000000002b9c7 .LASF3884
C:\Users\SOLDER~1\AppData\Local\Temp\ccdovRCu.s:30708  .debug_str:0000000000029392 .LASF3885
C:\Users\SOLDER~1\AppData\Local\Temp\ccdovRCu.s:24002  .debug_str:000000000000dfc6 .LASF3886
C:\Users\SOLDER~1\AppData\Local\Temp\ccdovRCu.s:28602  .debug_str:0000000000020a7e .LASF3887
C:\Users\SOLDER~1\AppData\Local\Temp\ccdovRCu.s:20724  .debug_str:0000000000000b0b .LASF3888
C:\Users\SOLDER~1\AppData\Local\Temp\ccdovRCu.s:31938  .debug_str:000000000002e32f .LASF3889
C:\Users\SOLDER~1\AppData\Local\Temp\ccdovRCu.s:23282  .debug_str:000000000000b089 .LASF3890
C:\Users\SOLDER~1\AppData\Local\Temp\ccdovRCu.s:24534  .debug_str:0000000000010243 .LASF3891
C:\Users\SOLDER~1\AppData\Local\Temp\ccdovRCu.s:31440  .debug_str:000000000002c366 .LASF3892
C:\Users\SOLDER~1\AppData\Local\Temp\ccdovRCu.s:22608  .debug_str:0000000000008424 .LASF3893
C:\Users\SOLDER~1\AppData\Local\Temp\ccdovRCu.s:27726  .debug_str:000000000001d186 .LASF3894
C:\Users\SOLDER~1\AppData\Local\Temp\ccdovRCu.s:26732  .debug_str:0000000000019121 .LASF3895
C:\Users\SOLDER~1\AppData\Local\Temp\ccdovRCu.s:28692  .debug_str:0000000000021007 .LASF3896
C:\Users\SOLDER~1\AppData\Local\Temp\ccdovRCu.s:22944  .debug_str:0000000000009a0e .LASF3897
C:\Users\SOLDER~1\AppData\Local\Temp\ccdovRCu.s:30422  .debug_str:0000000000028122 .LASF3898
C:\Users\SOLDER~1\AppData\Local\Temp\ccdovRCu.s:20986  .debug_str:0000000000001be0 .LASF3899
C:\Users\SOLDER~1\AppData\Local\Temp\ccdovRCu.s:26322  .debug_str:000000000001768f .LASF3900
C:\Users\SOLDER~1\AppData\Local\Temp\ccdovRCu.s:31138  .debug_str:000000000002af5d .LASF3901
C:\Users\SOLDER~1\AppData\Local\Temp\ccdovRCu.s:31950  .debug_str:000000000002e3fe .LASF3902
C:\Users\SOLDER~1\AppData\Local\Temp\ccdovRCu.s:24258  .debug_str:000000000000f076 .LASF3903
GAS LISTING C:\Users\SOLDER~1\AppData\Local\Temp\ccdovRCu.s 			page 121


C:\Users\SOLDER~1\AppData\Local\Temp\ccdovRCu.s:25588  .debug_str:0000000000014785 .LASF3904
C:\Users\SOLDER~1\AppData\Local\Temp\ccdovRCu.s:31928  .debug_str:000000000002e29c .LASF3905
C:\Users\SOLDER~1\AppData\Local\Temp\ccdovRCu.s:29560  .debug_str:000000000002483d .LASF3906
C:\Users\SOLDER~1\AppData\Local\Temp\ccdovRCu.s:30640  .debug_str:0000000000028f3e .LASF3907
C:\Users\SOLDER~1\AppData\Local\Temp\ccdovRCu.s:28004  .debug_str:000000000001e382 .LASF3908
C:\Users\SOLDER~1\AppData\Local\Temp\ccdovRCu.s:31948  .debug_str:000000000002e3db .LASF3909
C:\Users\SOLDER~1\AppData\Local\Temp\ccdovRCu.s:25974  .debug_str:000000000001606f .LASF3910
C:\Users\SOLDER~1\AppData\Local\Temp\ccdovRCu.s:31812  .debug_str:000000000002db54 .LASF3911
C:\Users\SOLDER~1\AppData\Local\Temp\ccdovRCu.s:26524  .debug_str:000000000001837a .LASF3912
C:\Users\SOLDER~1\AppData\Local\Temp\ccdovRCu.s:30470  .debug_str:0000000000028467 .LASF3913
C:\Users\SOLDER~1\AppData\Local\Temp\ccdovRCu.s:21680  .debug_str:000000000000480e .LASF3914
C:\Users\SOLDER~1\AppData\Local\Temp\ccdovRCu.s:27028  .debug_str:000000000001a404 .LASF3915
C:\Users\SOLDER~1\AppData\Local\Temp\ccdovRCu.s:28238  .debug_str:000000000001f315 .LASF3916
C:\Users\SOLDER~1\AppData\Local\Temp\ccdovRCu.s:28704  .debug_str:00000000000210d4 .LASF3917
C:\Users\SOLDER~1\AppData\Local\Temp\ccdovRCu.s:25856  .debug_str:00000000000158dc .LASF3918
C:\Users\SOLDER~1\AppData\Local\Temp\ccdovRCu.s:29990  .debug_str:00000000000264bb .LASF3919
C:\Users\SOLDER~1\AppData\Local\Temp\ccdovRCu.s:30920  .debug_str:000000000002a138 .LASF3920
C:\Users\SOLDER~1\AppData\Local\Temp\ccdovRCu.s:29868  .debug_str:0000000000025c36 .LASF3921
C:\Users\SOLDER~1\AppData\Local\Temp\ccdovRCu.s:22350  .debug_str:0000000000007397 .LASF3922
C:\Users\SOLDER~1\AppData\Local\Temp\ccdovRCu.s:28796  .debug_str:00000000000216ce .LASF3923
C:\Users\SOLDER~1\AppData\Local\Temp\ccdovRCu.s:24762  .debug_str:00000000000110d7 .LASF3924
C:\Users\SOLDER~1\AppData\Local\Temp\ccdovRCu.s:28636  .debug_str:0000000000020c84 .LASF3925
C:\Users\SOLDER~1\AppData\Local\Temp\ccdovRCu.s:21832  .debug_str:0000000000005154 .LASF3926
C:\Users\SOLDER~1\AppData\Local\Temp\ccdovRCu.s:25314  .debug_str:000000000001347a .LASF3927
C:\Users\SOLDER~1\AppData\Local\Temp\ccdovRCu.s:22962  .debug_str:0000000000009b26 .LASF3928
C:\Users\SOLDER~1\AppData\Local\Temp\ccdovRCu.s:21422  .debug_str:00000000000037ab .LASF3929
C:\Users\SOLDER~1\AppData\Local\Temp\ccdovRCu.s:22460  .debug_str:0000000000007a48 .LASF3930
C:\Users\SOLDER~1\AppData\Local\Temp\ccdovRCu.s:28252  .debug_str:000000000001f3fc .LASF3931
C:\Users\SOLDER~1\AppData\Local\Temp\ccdovRCu.s:27728  .debug_str:000000000001d19d .LASF3932
C:\Users\SOLDER~1\AppData\Local\Temp\ccdovRCu.s:30488  .debug_str:0000000000028572 .LASF3933
C:\Users\SOLDER~1\AppData\Local\Temp\ccdovRCu.s:30046  .debug_str:0000000000026863 .LASF3934
C:\Users\SOLDER~1\AppData\Local\Temp\ccdovRCu.s:22956  .debug_str:0000000000009ac9 .LASF3935
C:\Users\SOLDER~1\AppData\Local\Temp\ccdovRCu.s:24156  .debug_str:000000000000ea34 .LASF3936
C:\Users\SOLDER~1\AppData\Local\Temp\ccdovRCu.s:25930  .debug_str:0000000000015d8f .LASF3937
C:\Users\SOLDER~1\AppData\Local\Temp\ccdovRCu.s:25270  .debug_str:000000000001316d .LASF3938
C:\Users\SOLDER~1\AppData\Local\Temp\ccdovRCu.s:22640  .debug_str:00000000000085ee .LASF3939
C:\Users\SOLDER~1\AppData\Local\Temp\ccdovRCu.s:30988  .debug_str:000000000002a5cf .LASF3940
C:\Users\SOLDER~1\AppData\Local\Temp\ccdovRCu.s:26472  .debug_str:0000000000017ff3 .LASF3941
C:\Users\SOLDER~1\AppData\Local\Temp\ccdovRCu.s:24082  .debug_str:000000000000e568 .LASF3942
C:\Users\SOLDER~1\AppData\Local\Temp\ccdovRCu.s:28708  .debug_str:000000000002111a .LASF3943
C:\Users\SOLDER~1\AppData\Local\Temp\ccdovRCu.s:21180  .debug_str:0000000000002846 .LASF3944
C:\Users\SOLDER~1\AppData\Local\Temp\ccdovRCu.s:27488  .debug_str:000000000001c16f .LASF3945
C:\Users\SOLDER~1\AppData\Local\Temp\ccdovRCu.s:22596  .debug_str:000000000000834f .LASF3946
C:\Users\SOLDER~1\AppData\Local\Temp\ccdovRCu.s:28576  .debug_str:00000000000208cd .LASF3947
C:\Users\SOLDER~1\AppData\Local\Temp\ccdovRCu.s:29740  .debug_str:00000000000253e2 .LASF3948
C:\Users\SOLDER~1\AppData\Local\Temp\ccdovRCu.s:25832  .debug_str:000000000001574f .LASF3949
C:\Users\SOLDER~1\AppData\Local\Temp\ccdovRCu.s:20846  .debug_str:00000000000012cd .LASF3950
C:\Users\SOLDER~1\AppData\Local\Temp\ccdovRCu.s:29330  .debug_str:0000000000023924 .LASF3951
C:\Users\SOLDER~1\AppData\Local\Temp\ccdovRCu.s:21552  .debug_str:0000000000003fe0 .LASF3952
C:\Users\SOLDER~1\AppData\Local\Temp\ccdovRCu.s:24498  .debug_str:000000000001002d .LASF3953
C:\Users\SOLDER~1\AppData\Local\Temp\ccdovRCu.s:25934  .debug_str:0000000000015dd0 .LASF3954
C:\Users\SOLDER~1\AppData\Local\Temp\ccdovRCu.s:22534  .debug_str:0000000000007f3b .LASF3955
C:\Users\SOLDER~1\AppData\Local\Temp\ccdovRCu.s:20892  .debug_str:00000000000015da .LASF3956
C:\Users\SOLDER~1\AppData\Local\Temp\ccdovRCu.s:32156  .debug_str:000000000002f08e .LASF3957
C:\Users\SOLDER~1\AppData\Local\Temp\ccdovRCu.s:25060  .debug_str:00000000000123bf .LASF3958
C:\Users\SOLDER~1\AppData\Local\Temp\ccdovRCu.s:26282  .debug_str:00000000000173ea .LASF3959
C:\Users\SOLDER~1\AppData\Local\Temp\ccdovRCu.s:24036  .debug_str:000000000000e24d .LASF3960
GAS LISTING C:\Users\SOLDER~1\AppData\Local\Temp\ccdovRCu.s 			page 122


C:\Users\SOLDER~1\AppData\Local\Temp\ccdovRCu.s:26556  .debug_str:0000000000018576 .LASF3961
C:\Users\SOLDER~1\AppData\Local\Temp\ccdovRCu.s:29754  .debug_str:00000000000254d9 .LASF3962
C:\Users\SOLDER~1\AppData\Local\Temp\ccdovRCu.s:24034  .debug_str:000000000000e226 .LASF3963
C:\Users\SOLDER~1\AppData\Local\Temp\ccdovRCu.s:24168  .debug_str:000000000000eaea .LASF3964
C:\Users\SOLDER~1\AppData\Local\Temp\ccdovRCu.s:28638  .debug_str:0000000000020ca4 .LASF3965
C:\Users\SOLDER~1\AppData\Local\Temp\ccdovRCu.s:28702  .debug_str:00000000000210ac .LASF3966
C:\Users\SOLDER~1\AppData\Local\Temp\ccdovRCu.s:27670  .debug_str:000000000001cdec .LASF3967
C:\Users\SOLDER~1\AppData\Local\Temp\ccdovRCu.s:29470  .debug_str:0000000000024234 .LASF3968
C:\Users\SOLDER~1\AppData\Local\Temp\ccdovRCu.s:26432  .debug_str:0000000000017d6f .LASF3969
C:\Users\SOLDER~1\AppData\Local\Temp\ccdovRCu.s:23626  .debug_str:000000000000c702 .LASF3970
C:\Users\SOLDER~1\AppData\Local\Temp\ccdovRCu.s:23186  .debug_str:000000000000aa38 .LASF3971
C:\Users\SOLDER~1\AppData\Local\Temp\ccdovRCu.s:21690  .debug_str:00000000000048bb .LASF3972
C:\Users\SOLDER~1\AppData\Local\Temp\ccdovRCu.s:30002  .debug_str:000000000002659c .LASF3973
C:\Users\SOLDER~1\AppData\Local\Temp\ccdovRCu.s:24422  .debug_str:000000000000fb01 .LASF3974
C:\Users\SOLDER~1\AppData\Local\Temp\ccdovRCu.s:24618  .debug_str:0000000000010775 .LASF3975
C:\Users\SOLDER~1\AppData\Local\Temp\ccdovRCu.s:20702  .debug_str:0000000000000991 .LASF3976
C:\Users\SOLDER~1\AppData\Local\Temp\ccdovRCu.s:22254  .debug_str:0000000000006d0f .LASF3977
C:\Users\SOLDER~1\AppData\Local\Temp\ccdovRCu.s:32038  .debug_str:000000000002e941 .LASF3978
C:\Users\SOLDER~1\AppData\Local\Temp\ccdovRCu.s:23120  .debug_str:000000000000a5a4 .LASF3979
C:\Users\SOLDER~1\AppData\Local\Temp\ccdovRCu.s:26196  .debug_str:0000000000016e1e .LASF3980
C:\Users\SOLDER~1\AppData\Local\Temp\ccdovRCu.s:30168  .debug_str:000000000002706c .LASF3981
C:\Users\SOLDER~1\AppData\Local\Temp\ccdovRCu.s:27246  .debug_str:000000000001b247 .LASF3982
C:\Users\SOLDER~1\AppData\Local\Temp\ccdovRCu.s:30608  .debug_str:0000000000028d66 .LASF3983
C:\Users\SOLDER~1\AppData\Local\Temp\ccdovRCu.s:26366  .debug_str:000000000001794c .LASF3984
C:\Users\SOLDER~1\AppData\Local\Temp\ccdovRCu.s:30160  .debug_str:0000000000026fe2 .LASF3985
C:\Users\SOLDER~1\AppData\Local\Temp\ccdovRCu.s:22686  .debug_str:00000000000088db .LASF3986
C:\Users\SOLDER~1\AppData\Local\Temp\ccdovRCu.s:23890  .debug_str:000000000000d8bb .LASF3987
C:\Users\SOLDER~1\AppData\Local\Temp\ccdovRCu.s:27872  .debug_str:000000000001db04 .LASF3988
C:\Users\SOLDER~1\AppData\Local\Temp\ccdovRCu.s:22380  .debug_str:000000000000757b .LASF3989
C:\Users\SOLDER~1\AppData\Local\Temp\ccdovRCu.s:30028  .debug_str:0000000000026767 .LASF3990
C:\Users\SOLDER~1\AppData\Local\Temp\ccdovRCu.s:21544  .debug_str:0000000000003f53 .LASF3991
C:\Users\SOLDER~1\AppData\Local\Temp\ccdovRCu.s:29462  .debug_str:00000000000241b1 .LASF3992
C:\Users\SOLDER~1\AppData\Local\Temp\ccdovRCu.s:22778  .debug_str:0000000000008efd .LASF3993
C:\Users\SOLDER~1\AppData\Local\Temp\ccdovRCu.s:23366  .debug_str:000000000000b602 .LASF3994
C:\Users\SOLDER~1\AppData\Local\Temp\ccdovRCu.s:23652  .debug_str:000000000000c8ce .LASF3995
C:\Users\SOLDER~1\AppData\Local\Temp\ccdovRCu.s:29540  .debug_str:00000000000246c6 .LASF3996
C:\Users\SOLDER~1\AppData\Local\Temp\ccdovRCu.s:31148  .debug_str:000000000002affe .LASF3997
C:\Users\SOLDER~1\AppData\Local\Temp\ccdovRCu.s:22822  .debug_str:000000000000921f .LASF3998
C:\Users\SOLDER~1\AppData\Local\Temp\ccdovRCu.s:25120  .debug_str:00000000000127d6 .LASF3999
C:\Users\SOLDER~1\AppData\Local\Temp\ccdovRCu.s:25600  .debug_str:0000000000014836 .LASF4000
C:\Users\SOLDER~1\AppData\Local\Temp\ccdovRCu.s:30378  .debug_str:0000000000027dfe .LASF4001
C:\Users\SOLDER~1\AppData\Local\Temp\ccdovRCu.s:31960  .debug_str:000000000002e495 .LASF4002
C:\Users\SOLDER~1\AppData\Local\Temp\ccdovRCu.s:21116  .debug_str:000000000000243f .LASF4003
C:\Users\SOLDER~1\AppData\Local\Temp\ccdovRCu.s:26066  .debug_str:0000000000016667 .LASF4004
C:\Users\SOLDER~1\AppData\Local\Temp\ccdovRCu.s:29478  .debug_str:00000000000242ad .LASF4005
C:\Users\SOLDER~1\AppData\Local\Temp\ccdovRCu.s:30724  .debug_str:00000000000294ab .LASF4006
C:\Users\SOLDER~1\AppData\Local\Temp\ccdovRCu.s:21886  .debug_str:00000000000054a9 .LASF4007
C:\Users\SOLDER~1\AppData\Local\Temp\ccdovRCu.s:22570  .debug_str:00000000000081bb .LASF4008
C:\Users\SOLDER~1\AppData\Local\Temp\ccdovRCu.s:20810  .debug_str:00000000000010b9 .LASF4009
C:\Users\SOLDER~1\AppData\Local\Temp\ccdovRCu.s:30580  .debug_str:0000000000028ba1 .LASF4010
C:\Users\SOLDER~1\AppData\Local\Temp\ccdovRCu.s:20776  .debug_str:0000000000000ea9 .LASF4011
C:\Users\SOLDER~1\AppData\Local\Temp\ccdovRCu.s:31064  .debug_str:000000000002aa94 .LASF4012
C:\Users\SOLDER~1\AppData\Local\Temp\ccdovRCu.s:30600  .debug_str:0000000000028cd9 .LASF4013
C:\Users\SOLDER~1\AppData\Local\Temp\ccdovRCu.s:27020  .debug_str:000000000001a386 .LASF4014
C:\Users\SOLDER~1\AppData\Local\Temp\ccdovRCu.s:23172  .debug_str:000000000000a948 .LASF4015
C:\Users\SOLDER~1\AppData\Local\Temp\ccdovRCu.s:21030  .debug_str:0000000000001e81 .LASF4016
C:\Users\SOLDER~1\AppData\Local\Temp\ccdovRCu.s:31648  .debug_str:000000000002d074 .LASF4017
GAS LISTING C:\Users\SOLDER~1\AppData\Local\Temp\ccdovRCu.s 			page 123


C:\Users\SOLDER~1\AppData\Local\Temp\ccdovRCu.s:28894  .debug_str:0000000000021d2e .LASF4018
C:\Users\SOLDER~1\AppData\Local\Temp\ccdovRCu.s:22840  .debug_str:000000000000933b .LASF4019
C:\Users\SOLDER~1\AppData\Local\Temp\ccdovRCu.s:23614  .debug_str:000000000000c64b .LASF4020
C:\Users\SOLDER~1\AppData\Local\Temp\ccdovRCu.s:23446  .debug_str:000000000000bb05 .LASF4021
C:\Users\SOLDER~1\AppData\Local\Temp\ccdovRCu.s:29518  .debug_str:000000000002454e .LASF4022
C:\Users\SOLDER~1\AppData\Local\Temp\ccdovRCu.s:29882  .debug_str:0000000000025d47 .LASF4023
C:\Users\SOLDER~1\AppData\Local\Temp\ccdovRCu.s:30516  .debug_str:0000000000028752 .LASF4024
C:\Users\SOLDER~1\AppData\Local\Temp\ccdovRCu.s:21580  .debug_str:00000000000041bf .LASF4025
C:\Users\SOLDER~1\AppData\Local\Temp\ccdovRCu.s:28156  .debug_str:000000000001edaf .LASF4026
C:\Users\SOLDER~1\AppData\Local\Temp\ccdovRCu.s:25704  .debug_str:0000000000014f1c .LASF4027
C:\Users\SOLDER~1\AppData\Local\Temp\ccdovRCu.s:32018  .debug_str:000000000002e800 .LASF4028
C:\Users\SOLDER~1\AppData\Local\Temp\ccdovRCu.s:21438  .debug_str:00000000000038b7 .LASF4029
C:\Users\SOLDER~1\AppData\Local\Temp\ccdovRCu.s:31454  .debug_str:000000000002c46a .LASF4030
C:\Users\SOLDER~1\AppData\Local\Temp\ccdovRCu.s:30050  .debug_str:00000000000268b0 .LASF4031
C:\Users\SOLDER~1\AppData\Local\Temp\ccdovRCu.s:24528  .debug_str:00000000000101e5 .LASF4032
C:\Users\SOLDER~1\AppData\Local\Temp\ccdovRCu.s:29256  .debug_str:000000000002343a .LASF4033
C:\Users\SOLDER~1\AppData\Local\Temp\ccdovRCu.s:23448  .debug_str:000000000000bb22 .LASF4034
C:\Users\SOLDER~1\AppData\Local\Temp\ccdovRCu.s:30926  .debug_str:000000000002a18b .LASF4035
C:\Users\SOLDER~1\AppData\Local\Temp\ccdovRCu.s:22914  .debug_str:0000000000009810 .LASF4036
C:\Users\SOLDER~1\AppData\Local\Temp\ccdovRCu.s:21754  .debug_str:0000000000004cc4 .LASF4037
C:\Users\SOLDER~1\AppData\Local\Temp\ccdovRCu.s:26534  .debug_str:0000000000018425 .LASF4038
C:\Users\SOLDER~1\AppData\Local\Temp\ccdovRCu.s:22656  .debug_str:000000000000871f .LASF4039
C:\Users\SOLDER~1\AppData\Local\Temp\ccdovRCu.s:28668  .debug_str:0000000000020e82 .LASF4040
C:\Users\SOLDER~1\AppData\Local\Temp\ccdovRCu.s:31774  .debug_str:000000000002d8d2 .LASF4041
C:\Users\SOLDER~1\AppData\Local\Temp\ccdovRCu.s:24252  .debug_str:000000000000f021 .LASF4042
C:\Users\SOLDER~1\AppData\Local\Temp\ccdovRCu.s:31878  .debug_str:000000000002df78 .LASF4043
C:\Users\SOLDER~1\AppData\Local\Temp\ccdovRCu.s:28432  .debug_str:000000000001ff95 .LASF4044
C:\Users\SOLDER~1\AppData\Local\Temp\ccdovRCu.s:21946  .debug_str:00000000000058a5 .LASF4045
C:\Users\SOLDER~1\AppData\Local\Temp\ccdovRCu.s:27880  .debug_str:000000000001db46 .LASF4046
C:\Users\SOLDER~1\AppData\Local\Temp\ccdovRCu.s:21938  .debug_str:0000000000005811 .LASF4047
C:\Users\SOLDER~1\AppData\Local\Temp\ccdovRCu.s:29728  .debug_str:000000000002533f .LASF4048
C:\Users\SOLDER~1\AppData\Local\Temp\ccdovRCu.s:24798  .debug_str:0000000000011325 .LASF4049
C:\Users\SOLDER~1\AppData\Local\Temp\ccdovRCu.s:25368  .debug_str:000000000001380e .LASF4050
C:\Users\SOLDER~1\AppData\Local\Temp\ccdovRCu.s:21250  .debug_str:0000000000002cb7 .LASF4051
C:\Users\SOLDER~1\AppData\Local\Temp\ccdovRCu.s:25484  .debug_str:000000000001405c .LASF4052
C:\Users\SOLDER~1\AppData\Local\Temp\ccdovRCu.s:24584  .debug_str:0000000000010574 .LASF4053
C:\Users\SOLDER~1\AppData\Local\Temp\ccdovRCu.s:24772  .debug_str:0000000000011190 .LASF4054
C:\Users\SOLDER~1\AppData\Local\Temp\ccdovRCu.s:29126  .debug_str:0000000000022bd3 .LASF4055
C:\Users\SOLDER~1\AppData\Local\Temp\ccdovRCu.s:24692  .debug_str:0000000000010c68 .LASF4056
C:\Users\SOLDER~1\AppData\Local\Temp\ccdovRCu.s:21340  .debug_str:0000000000003282 .LASF4057
C:\Users\SOLDER~1\AppData\Local\Temp\ccdovRCu.s:25228  .debug_str:0000000000012eda .LASF4058
C:\Users\SOLDER~1\AppData\Local\Temp\ccdovRCu.s:25144  .debug_str:000000000001291e .LASF4059
C:\Users\SOLDER~1\AppData\Local\Temp\ccdovRCu.s:22814  .debug_str:000000000000919a .LASF4060
C:\Users\SOLDER~1\AppData\Local\Temp\ccdovRCu.s:22032  .debug_str:0000000000005e34 .LASF4061
C:\Users\SOLDER~1\AppData\Local\Temp\ccdovRCu.s:28664  .debug_str:0000000000020e58 .LASF4062
C:\Users\SOLDER~1\AppData\Local\Temp\ccdovRCu.s:26308  .debug_str:00000000000175a8 .LASF4063
C:\Users\SOLDER~1\AppData\Local\Temp\ccdovRCu.s:28538  .debug_str:0000000000020654 .LASF4064
C:\Users\SOLDER~1\AppData\Local\Temp\ccdovRCu.s:28932  .debug_str:0000000000021f8a .LASF4065
C:\Users\SOLDER~1\AppData\Local\Temp\ccdovRCu.s:29134  .debug_str:0000000000022c43 .LASF4066
C:\Users\SOLDER~1\AppData\Local\Temp\ccdovRCu.s:25100  .debug_str:0000000000012692 .LASF4067
C:\Users\SOLDER~1\AppData\Local\Temp\ccdovRCu.s:29266  .debug_str:00000000000234e9 .LASF4068
C:\Users\SOLDER~1\AppData\Local\Temp\ccdovRCu.s:22082  .debug_str:00000000000061b2 .LASF4069
C:\Users\SOLDER~1\AppData\Local\Temp\ccdovRCu.s:29412  .debug_str:0000000000023e59 .LASF4070
C:\Users\SOLDER~1\AppData\Local\Temp\ccdovRCu.s:26606  .debug_str:00000000000188a8 .LASF4071
C:\Users\SOLDER~1\AppData\Local\Temp\ccdovRCu.s:28910  .debug_str:0000000000021e2b .LASF4072
C:\Users\SOLDER~1\AppData\Local\Temp\ccdovRCu.s:21076  .debug_str:0000000000002187 .LASF4073
C:\Users\SOLDER~1\AppData\Local\Temp\ccdovRCu.s:30038  .debug_str:00000000000267fd .LASF4074
GAS LISTING C:\Users\SOLDER~1\AppData\Local\Temp\ccdovRCu.s 			page 124


C:\Users\SOLDER~1\AppData\Local\Temp\ccdovRCu.s:29018  .debug_str:000000000002249f .LASF4075
C:\Users\SOLDER~1\AppData\Local\Temp\ccdovRCu.s:25220  .debug_str:0000000000012e4e .LASF4076
C:\Users\SOLDER~1\AppData\Local\Temp\ccdovRCu.s:29836  .debug_str:0000000000025a07 .LASF4077
C:\Users\SOLDER~1\AppData\Local\Temp\ccdovRCu.s:21482  .debug_str:0000000000003b9c .LASF4078
C:\Users\SOLDER~1\AppData\Local\Temp\ccdovRCu.s:24408  .debug_str:000000000000fa04 .LASF4079
C:\Users\SOLDER~1\AppData\Local\Temp\ccdovRCu.s:23334  .debug_str:000000000000b3c5 .LASF4080
C:\Users\SOLDER~1\AppData\Local\Temp\ccdovRCu.s:21748  .debug_str:0000000000004c5f .LASF4081
C:\Users\SOLDER~1\AppData\Local\Temp\ccdovRCu.s:30374  .debug_str:0000000000027dc6 .LASF4082
C:\Users\SOLDER~1\AppData\Local\Temp\ccdovRCu.s:22918  .debug_str:0000000000009847 .LASF4083
C:\Users\SOLDER~1\AppData\Local\Temp\ccdovRCu.s:31380  .debug_str:000000000002bf45 .LASF4084
C:\Users\SOLDER~1\AppData\Local\Temp\ccdovRCu.s:29264  .debug_str:00000000000234cc .LASF4085
C:\Users\SOLDER~1\AppData\Local\Temp\ccdovRCu.s:30552  .debug_str:000000000002898e .LASF4086
C:\Users\SOLDER~1\AppData\Local\Temp\ccdovRCu.s:27532  .debug_str:000000000001c48f .LASF4087
C:\Users\SOLDER~1\AppData\Local\Temp\ccdovRCu.s:25642  .debug_str:0000000000014b13 .LASF4088
C:\Users\SOLDER~1\AppData\Local\Temp\ccdovRCu.s:21564  .debug_str:00000000000040a0 .LASF4089
C:\Users\SOLDER~1\AppData\Local\Temp\ccdovRCu.s:27318  .debug_str:000000000001b6d3 .LASF4090
C:\Users\SOLDER~1\AppData\Local\Temp\ccdovRCu.s:31286  .debug_str:000000000002b90c .LASF4091
C:\Users\SOLDER~1\AppData\Local\Temp\ccdovRCu.s:32122  .debug_str:000000000002ee91 .LASF4092
C:\Users\SOLDER~1\AppData\Local\Temp\ccdovRCu.s:22348  .debug_str:000000000000737a .LASF4093
C:\Users\SOLDER~1\AppData\Local\Temp\ccdovRCu.s:31594  .debug_str:000000000002cd05 .LASF4094
C:\Users\SOLDER~1\AppData\Local\Temp\ccdovRCu.s:31842  .debug_str:000000000002dd1b .LASF4095
C:\Users\SOLDER~1\AppData\Local\Temp\ccdovRCu.s:26520  .debug_str:000000000001834c .LASF4096
C:\Users\SOLDER~1\AppData\Local\Temp\ccdovRCu.s:20894  .debug_str:00000000000015f5 .LASF4097
C:\Users\SOLDER~1\AppData\Local\Temp\ccdovRCu.s:21702  .debug_str:000000000000496f .LASF4098
C:\Users\SOLDER~1\AppData\Local\Temp\ccdovRCu.s:21532  .debug_str:0000000000003ebd .LASF4099
C:\Users\SOLDER~1\AppData\Local\Temp\ccdovRCu.s:27322  .debug_str:000000000001b70d .LASF4100
C:\Users\SOLDER~1\AppData\Local\Temp\ccdovRCu.s:31140  .debug_str:000000000002af7e .LASF4101
C:\Users\SOLDER~1\AppData\Local\Temp\ccdovRCu.s:25678  .debug_str:0000000000014d75 .LASF4102
C:\Users\SOLDER~1\AppData\Local\Temp\ccdovRCu.s:21698  .debug_str:000000000000493c .LASF4103
C:\Users\SOLDER~1\AppData\Local\Temp\ccdovRCu.s:23922  .debug_str:000000000000dab6 .LASF4104
C:\Users\SOLDER~1\AppData\Local\Temp\ccdovRCu.s:23114  .debug_str:000000000000a552 .LASF4105
C:\Users\SOLDER~1\AppData\Local\Temp\ccdovRCu.s:27434  .debug_str:000000000001bdd0 .LASF4106
C:\Users\SOLDER~1\AppData\Local\Temp\ccdovRCu.s:31768  .debug_str:000000000002d85f .LASF4107
C:\Users\SOLDER~1\AppData\Local\Temp\ccdovRCu.s:26664  .debug_str:0000000000018c81 .LASF4108
C:\Users\SOLDER~1\AppData\Local\Temp\ccdovRCu.s:32012  .debug_str:000000000002e7a0 .LASF4109
C:\Users\SOLDER~1\AppData\Local\Temp\ccdovRCu.s:21540  .debug_str:0000000000003f2e .LASF4110
C:\Users\SOLDER~1\AppData\Local\Temp\ccdovRCu.s:29074  .debug_str:0000000000022858 .LASF4111
C:\Users\SOLDER~1\AppData\Local\Temp\ccdovRCu.s:24604  .debug_str:00000000000106b2 .LASF4112
C:\Users\SOLDER~1\AppData\Local\Temp\ccdovRCu.s:26614  .debug_str:0000000000018921 .LASF4113
C:\Users\SOLDER~1\AppData\Local\Temp\ccdovRCu.s:28814  .debug_str:0000000000021822 .LASF4114
C:\Users\SOLDER~1\AppData\Local\Temp\ccdovRCu.s:26848  .debug_str:00000000000198ce .LASF4115
C:\Users\SOLDER~1\AppData\Local\Temp\ccdovRCu.s:24080  .debug_str:000000000000e54a .LASF4116
C:\Users\SOLDER~1\AppData\Local\Temp\ccdovRCu.s:31796  .debug_str:000000000002da4b .LASF4117
C:\Users\SOLDER~1\AppData\Local\Temp\ccdovRCu.s:22974  .debug_str:0000000000009bdf .LASF4118
C:\Users\SOLDER~1\AppData\Local\Temp\ccdovRCu.s:22274  .debug_str:0000000000006e76 .LASF4119
C:\Users\SOLDER~1\AppData\Local\Temp\ccdovRCu.s:30296  .debug_str:00000000000278cc .LASF4120
C:\Users\SOLDER~1\AppData\Local\Temp\ccdovRCu.s:24742  .debug_str:0000000000010f9b .LASF4121
C:\Users\SOLDER~1\AppData\Local\Temp\ccdovRCu.s:21868  .debug_str:000000000000539f .LASF4122
C:\Users\SOLDER~1\AppData\Local\Temp\ccdovRCu.s:22206  .debug_str:0000000000006a11 .LASF4123
C:\Users\SOLDER~1\AppData\Local\Temp\ccdovRCu.s:25924  .debug_str:0000000000015d28 .LASF4124
C:\Users\SOLDER~1\AppData\Local\Temp\ccdovRCu.s:23350  .debug_str:000000000000b4e0 .LASF4125
C:\Users\SOLDER~1\AppData\Local\Temp\ccdovRCu.s:23310  .debug_str:000000000000b227 .LASF4126
C:\Users\SOLDER~1\AppData\Local\Temp\ccdovRCu.s:25722  .debug_str:0000000000015035 .LASF4127
C:\Users\SOLDER~1\AppData\Local\Temp\ccdovRCu.s:23496  .debug_str:000000000000be2c .LASF4128
C:\Users\SOLDER~1\AppData\Local\Temp\ccdovRCu.s:30918  .debug_str:000000000002a126 .LASF4129
C:\Users\SOLDER~1\AppData\Local\Temp\ccdovRCu.s:21176  .debug_str:0000000000002808 .LASF4130
C:\Users\SOLDER~1\AppData\Local\Temp\ccdovRCu.s:23146  .debug_str:000000000000a7a6 .LASF4131
GAS LISTING C:\Users\SOLDER~1\AppData\Local\Temp\ccdovRCu.s 			page 125


C:\Users\SOLDER~1\AppData\Local\Temp\ccdovRCu.s:27922  .debug_str:000000000001de08 .LASF4132
C:\Users\SOLDER~1\AppData\Local\Temp\ccdovRCu.s:23774  .debug_str:000000000000d12b .LASF4133
C:\Users\SOLDER~1\AppData\Local\Temp\ccdovRCu.s:21908  .debug_str:00000000000055e1 .LASF4134
C:\Users\SOLDER~1\AppData\Local\Temp\ccdovRCu.s:24538  .debug_str:000000000001027f .LASF4135
C:\Users\SOLDER~1\AppData\Local\Temp\ccdovRCu.s:30268  .debug_str:00000000000276fd .LASF4136
C:\Users\SOLDER~1\AppData\Local\Temp\ccdovRCu.s:29298  .debug_str:0000000000023730 .LASF4137
C:\Users\SOLDER~1\AppData\Local\Temp\ccdovRCu.s:32064  .debug_str:000000000002eaeb .LASF4138
C:\Users\SOLDER~1\AppData\Local\Temp\ccdovRCu.s:25604  .debug_str:000000000001486e .LASF4139
C:\Users\SOLDER~1\AppData\Local\Temp\ccdovRCu.s:22408  .debug_str:0000000000007725 .LASF4140
C:\Users\SOLDER~1\AppData\Local\Temp\ccdovRCu.s:29366  .debug_str:0000000000023b7f .LASF4141
C:\Users\SOLDER~1\AppData\Local\Temp\ccdovRCu.s:22566  .debug_str:000000000000818a .LASF4142
C:\Users\SOLDER~1\AppData\Local\Temp\ccdovRCu.s:30952  .debug_str:000000000002a33b .LASF4143
C:\Users\SOLDER~1\AppData\Local\Temp\ccdovRCu.s:29514  .debug_str:0000000000024522 .LASF4144
C:\Users\SOLDER~1\AppData\Local\Temp\ccdovRCu.s:25760  .debug_str:0000000000015279 .LASF4145
C:\Users\SOLDER~1\AppData\Local\Temp\ccdovRCu.s:24066  .debug_str:000000000000e460 .LASF4146
C:\Users\SOLDER~1\AppData\Local\Temp\ccdovRCu.s:23176  .debug_str:000000000000a992 .LASF4147
C:\Users\SOLDER~1\AppData\Local\Temp\ccdovRCu.s:29300  .debug_str:0000000000023743 .LASF4148
C:\Users\SOLDER~1\AppData\Local\Temp\ccdovRCu.s:21278  .debug_str:0000000000002e8b .LASF4149
C:\Users\SOLDER~1\AppData\Local\Temp\ccdovRCu.s:30778  .debug_str:0000000000029831 .LASF4150
C:\Users\SOLDER~1\AppData\Local\Temp\ccdovRCu.s:31372  .debug_str:000000000002beb3 .LASF4151
C:\Users\SOLDER~1\AppData\Local\Temp\ccdovRCu.s:28784  .debug_str:0000000000021602 .LASF4152
C:\Users\SOLDER~1\AppData\Local\Temp\ccdovRCu.s:27468  .debug_str:000000000001c038 .LASF4153
C:\Users\SOLDER~1\AppData\Local\Temp\ccdovRCu.s:21716  .debug_str:0000000000004a36 .LASF4154
C:\Users\SOLDER~1\AppData\Local\Temp\ccdovRCu.s:21134  .debug_str:0000000000002570 .LASF4155
C:\Users\SOLDER~1\AppData\Local\Temp\ccdovRCu.s:23228  .debug_str:000000000000ace2 .LASF4156
C:\Users\SOLDER~1\AppData\Local\Temp\ccdovRCu.s:26598  .debug_str:0000000000018829 .LASF4157
C:\Users\SOLDER~1\AppData\Local\Temp\ccdovRCu.s:31018  .debug_str:000000000002a7a9 .LASF4158
C:\Users\SOLDER~1\AppData\Local\Temp\ccdovRCu.s:29020  .debug_str:00000000000224ba .LASF4159
C:\Users\SOLDER~1\AppData\Local\Temp\ccdovRCu.s:26876  .debug_str:0000000000019a6e .LASF4160
C:\Users\SOLDER~1\AppData\Local\Temp\ccdovRCu.s:21172  .debug_str:00000000000027c4 .LASF4161
C:\Users\SOLDER~1\AppData\Local\Temp\ccdovRCu.s:25058  .debug_str:00000000000123a1 .LASF4162
C:\Users\SOLDER~1\AppData\Local\Temp\ccdovRCu.s:28534  .debug_str:000000000002060b .LASF4163
C:\Users\SOLDER~1\AppData\Local\Temp\ccdovRCu.s:26082  .debug_str:000000000001674f .LASF4164
C:\Users\SOLDER~1\AppData\Local\Temp\ccdovRCu.s:23178  .debug_str:000000000000a9b2 .LASF4165
C:\Users\SOLDER~1\AppData\Local\Temp\ccdovRCu.s:29340  .debug_str:00000000000239e3 .LASF4166
C:\Users\SOLDER~1\AppData\Local\Temp\ccdovRCu.s:29862  .debug_str:0000000000025bd7 .LASF4167
C:\Users\SOLDER~1\AppData\Local\Temp\ccdovRCu.s:30428  .debug_str:000000000002817b .LASF4168
C:\Users\SOLDER~1\AppData\Local\Temp\ccdovRCu.s:28192  .debug_str:000000000001f004 .LASF4169
C:\Users\SOLDER~1\AppData\Local\Temp\ccdovRCu.s:31338  .debug_str:000000000002bc98 .LASF4170
C:\Users\SOLDER~1\AppData\Local\Temp\ccdovRCu.s:27414  .debug_str:000000000001bcbf .LASF4171
C:\Users\SOLDER~1\AppData\Local\Temp\ccdovRCu.s:20678  .debug_str:00000000000007bf .LASF4172
C:\Users\SOLDER~1\AppData\Local\Temp\ccdovRCu.s:31728  .debug_str:000000000002d5f9 .LASF4173
C:\Users\SOLDER~1\AppData\Local\Temp\ccdovRCu.s:21792  .debug_str:0000000000004ef9 .LASF4174
C:\Users\SOLDER~1\AppData\Local\Temp\ccdovRCu.s:31964  .debug_str:000000000002e4c0 .LASF4175
C:\Users\SOLDER~1\AppData\Local\Temp\ccdovRCu.s:28328  .debug_str:000000000001f916 .LASF4176
C:\Users\SOLDER~1\AppData\Local\Temp\ccdovRCu.s:30310  .debug_str:00000000000279c8 .LASF4177
C:\Users\SOLDER~1\AppData\Local\Temp\ccdovRCu.s:29810  .debug_str:000000000002586a .LASF4178
C:\Users\SOLDER~1\AppData\Local\Temp\ccdovRCu.s:24322  .debug_str:000000000000f442 .LASF4179
C:\Users\SOLDER~1\AppData\Local\Temp\ccdovRCu.s:26944  .debug_str:0000000000019ecc .LASF4180
C:\Users\SOLDER~1\AppData\Local\Temp\ccdovRCu.s:22028  .debug_str:0000000000005df1 .LASF4181
C:\Users\SOLDER~1\AppData\Local\Temp\ccdovRCu.s:21640  .debug_str:0000000000004556 .LASF4182
C:\Users\SOLDER~1\AppData\Local\Temp\ccdovRCu.s:22306  .debug_str:00000000000070c7 .LASF4183
C:\Users\SOLDER~1\AppData\Local\Temp\ccdovRCu.s:29698  .debug_str:0000000000025151 .LASF4184
C:\Users\SOLDER~1\AppData\Local\Temp\ccdovRCu.s:25492  .debug_str:00000000000140c4 .LASF4185
C:\Users\SOLDER~1\AppData\Local\Temp\ccdovRCu.s:31862  .debug_str:000000000002de5c .LASF4186
C:\Users\SOLDER~1\AppData\Local\Temp\ccdovRCu.s:28908  .debug_str:0000000000021e0f .LASF4187
C:\Users\SOLDER~1\AppData\Local\Temp\ccdovRCu.s:22516  .debug_str:0000000000007e04 .LASF4188
GAS LISTING C:\Users\SOLDER~1\AppData\Local\Temp\ccdovRCu.s 			page 126


C:\Users\SOLDER~1\AppData\Local\Temp\ccdovRCu.s:28114  .debug_str:000000000001eac3 .LASF4189
C:\Users\SOLDER~1\AppData\Local\Temp\ccdovRCu.s:22414  .debug_str:0000000000007777 .LASF4190
C:\Users\SOLDER~1\AppData\Local\Temp\ccdovRCu.s:22202  .debug_str:00000000000069d7 .LASF4191
C:\Users\SOLDER~1\AppData\Local\Temp\ccdovRCu.s:30686  .debug_str:000000000002921d .LASF4192
C:\Users\SOLDER~1\AppData\Local\Temp\ccdovRCu.s:21058  .debug_str:0000000000002045 .LASF4193
C:\Users\SOLDER~1\AppData\Local\Temp\ccdovRCu.s:29772  .debug_str:00000000000255ff .LASF4194
C:\Users\SOLDER~1\AppData\Local\Temp\ccdovRCu.s:23674  .debug_str:000000000000ca61 .LASF4195
C:\Users\SOLDER~1\AppData\Local\Temp\ccdovRCu.s:27386  .debug_str:000000000001baf2 .LASF4196
C:\Users\SOLDER~1\AppData\Local\Temp\ccdovRCu.s:20696  .debug_str:0000000000000931 .LASF4197
C:\Users\SOLDER~1\AppData\Local\Temp\ccdovRCu.s:25476  .debug_str:0000000000013fc5 .LASF4198
C:\Users\SOLDER~1\AppData\Local\Temp\ccdovRCu.s:25458  .debug_str:0000000000013e8b .LASF4199
C:\Users\SOLDER~1\AppData\Local\Temp\ccdovRCu.s:23194  .debug_str:000000000000aae0 .LASF4200
C:\Users\SOLDER~1\AppData\Local\Temp\ccdovRCu.s:22996  .debug_str:0000000000009d58 .LASF4201
C:\Users\SOLDER~1\AppData\Local\Temp\ccdovRCu.s:23290  .debug_str:000000000000b113 .LASF4202
C:\Users\SOLDER~1\AppData\Local\Temp\ccdovRCu.s:24636  .debug_str:00000000000108bb .LASF4203
C:\Users\SOLDER~1\AppData\Local\Temp\ccdovRCu.s:23198  .debug_str:000000000000ab22 .LASF4204
C:\Users\SOLDER~1\AppData\Local\Temp\ccdovRCu.s:25436  .debug_str:0000000000013cfe .LASF4205
C:\Users\SOLDER~1\AppData\Local\Temp\ccdovRCu.s:26760  .debug_str:00000000000192d0 .LASF4206
C:\Users\SOLDER~1\AppData\Local\Temp\ccdovRCu.s:22096  .debug_str:000000000000629a .LASF4207
C:\Users\SOLDER~1\AppData\Local\Temp\ccdovRCu.s:25316  .debug_str:0000000000013499 .LASF4208
C:\Users\SOLDER~1\AppData\Local\Temp\ccdovRCu.s:22650  .debug_str:000000000000869f .LASF4209
C:\Users\SOLDER~1\AppData\Local\Temp\ccdovRCu.s:30798  .debug_str:0000000000029982 .LASF4210
C:\Users\SOLDER~1\AppData\Local\Temp\ccdovRCu.s:30796  .debug_str:0000000000029964 .LASF4211
C:\Users\SOLDER~1\AppData\Local\Temp\ccdovRCu.s:20954  .debug_str:00000000000019bb .LASF4212
C:\Users\SOLDER~1\AppData\Local\Temp\ccdovRCu.s:28736  .debug_str:00000000000212fb .LASF4213
C:\Users\SOLDER~1\AppData\Local\Temp\ccdovRCu.s:30344  .debug_str:0000000000027be7 .LASF4214
C:\Users\SOLDER~1\AppData\Local\Temp\ccdovRCu.s:22616  .debug_str:0000000000008497 .LASF4215
C:\Users\SOLDER~1\AppData\Local\Temp\ccdovRCu.s:25862  .debug_str:0000000000015948 .LASF4216
C:\Users\SOLDER~1\AppData\Local\Temp\ccdovRCu.s:26292  .debug_str:0000000000017482 .LASF4217
C:\Users\SOLDER~1\AppData\Local\Temp\ccdovRCu.s:20618  .debug_str:0000000000000362 .LASF4218
C:\Users\SOLDER~1\AppData\Local\Temp\ccdovRCu.s:25594  .debug_str:00000000000147df .LASF4219
C:\Users\SOLDER~1\AppData\Local\Temp\ccdovRCu.s:30568  .debug_str:0000000000028ac0 .LASF4220
C:\Users\SOLDER~1\AppData\Local\Temp\ccdovRCu.s:31640  .debug_str:000000000002cfeb .LASF4221
C:\Users\SOLDER~1\AppData\Local\Temp\ccdovRCu.s:30898  .debug_str:0000000000029fae .LASF4222
C:\Users\SOLDER~1\AppData\Local\Temp\ccdovRCu.s:28356  .debug_str:000000000001faf2 .LASF4223
C:\Users\SOLDER~1\AppData\Local\Temp\ccdovRCu.s:30818  .debug_str:0000000000029ab3 .LASF4224
C:\Users\SOLDER~1\AppData\Local\Temp\ccdovRCu.s:26624  .debug_str:00000000000189d0 .LASF4225
C:\Users\SOLDER~1\AppData\Local\Temp\ccdovRCu.s:24628  .debug_str:000000000001082a .LASF4226
C:\Users\SOLDER~1\AppData\Local\Temp\ccdovRCu.s:23306  .debug_str:000000000000b1e6 .LASF4227
C:\Users\SOLDER~1\AppData\Local\Temp\ccdovRCu.s:23380  .debug_str:000000000000b6c9 .LASF4228
C:\Users\SOLDER~1\AppData\Local\Temp\ccdovRCu.s:25732  .debug_str:00000000000150be .LASF4229
C:\Users\SOLDER~1\AppData\Local\Temp\ccdovRCu.s:23250  .debug_str:000000000000ae89 .LASF4230
C:\Users\SOLDER~1\AppData\Local\Temp\ccdovRCu.s:22580  .debug_str:0000000000008254 .LASF4231
C:\Users\SOLDER~1\AppData\Local\Temp\ccdovRCu.s:27106  .debug_str:000000000001a933 .LASF4232
C:\Users\SOLDER~1\AppData\Local\Temp\ccdovRCu.s:24674  .debug_str:0000000000010b56 .LASF4233
C:\Users\SOLDER~1\AppData\Local\Temp\ccdovRCu.s:31200  .debug_str:000000000002b38d .LASF4234
C:\Users\SOLDER~1\AppData\Local\Temp\ccdovRCu.s:22594  .debug_str:000000000000833b .LASF4235
C:\Users\SOLDER~1\AppData\Local\Temp\ccdovRCu.s:25232  .debug_str:0000000000012eff .LASF4236
C:\Users\SOLDER~1\AppData\Local\Temp\ccdovRCu.s:22166  .debug_str:0000000000006751 .LASF4237
C:\Users\SOLDER~1\AppData\Local\Temp\ccdovRCu.s:20664  .debug_str:000000000000065e .LASF4238
C:\Users\SOLDER~1\AppData\Local\Temp\ccdovRCu.s:21332  .debug_str:000000000000320f .LASF4239
C:\Users\SOLDER~1\AppData\Local\Temp\ccdovRCu.s:29506  .debug_str:00000000000244a0 .LASF4240
C:\Users\SOLDER~1\AppData\Local\Temp\ccdovRCu.s:21304  .debug_str:000000000000303e .LASF4241
C:\Users\SOLDER~1\AppData\Local\Temp\ccdovRCu.s:28420  .debug_str:000000000001fedc .LASF4242
C:\Users\SOLDER~1\AppData\Local\Temp\ccdovRCu.s:24220  .debug_str:000000000000edfd .LASF4243
C:\Users\SOLDER~1\AppData\Local\Temp\ccdovRCu.s:23216  .debug_str:000000000000ac2d .LASF4244
C:\Users\SOLDER~1\AppData\Local\Temp\ccdovRCu.s:28684  .debug_str:0000000000020f8f .LASF4245
GAS LISTING C:\Users\SOLDER~1\AppData\Local\Temp\ccdovRCu.s 			page 127


C:\Users\SOLDER~1\AppData\Local\Temp\ccdovRCu.s:21240  .debug_str:0000000000002c01 .LASF4246
C:\Users\SOLDER~1\AppData\Local\Temp\ccdovRCu.s:28260  .debug_str:000000000001f487 .LASF4247
C:\Users\SOLDER~1\AppData\Local\Temp\ccdovRCu.s:24690  .debug_str:0000000000010c4c .LASF4248
C:\Users\SOLDER~1\AppData\Local\Temp\ccdovRCu.s:21098  .debug_str:00000000000022fa .LASF4249
C:\Users\SOLDER~1\AppData\Local\Temp\ccdovRCu.s:25834  .debug_str:0000000000015772 .LASF4250
C:\Users\SOLDER~1\AppData\Local\Temp\ccdovRCu.s:28620  .debug_str:0000000000020b75 .LASF4251
C:\Users\SOLDER~1\AppData\Local\Temp\ccdovRCu.s:31118  .debug_str:000000000002ae0d .LASF4252
C:\Users\SOLDER~1\AppData\Local\Temp\ccdovRCu.s:26392  .debug_str:0000000000017afe .LASF4253
C:\Users\SOLDER~1\AppData\Local\Temp\ccdovRCu.s:25912  .debug_str:0000000000015c73 .LASF4254
C:\Users\SOLDER~1\AppData\Local\Temp\ccdovRCu.s:24166  .debug_str:000000000000eacd .LASF4255
C:\Users\SOLDER~1\AppData\Local\Temp\ccdovRCu.s:28846  .debug_str:0000000000021a0c .LASF4256
C:\Users\SOLDER~1\AppData\Local\Temp\ccdovRCu.s:21558  .debug_str:0000000000004047 .LASF4257
C:\Users\SOLDER~1\AppData\Local\Temp\ccdovRCu.s:28680  .debug_str:0000000000020f50 .LASF4258
C:\Users\SOLDER~1\AppData\Local\Temp\ccdovRCu.s:22060  .debug_str:0000000000006014 .LASF4259
C:\Users\SOLDER~1\AppData\Local\Temp\ccdovRCu.s:24910  .debug_str:0000000000011a6e .LASF4260
C:\Users\SOLDER~1\AppData\Local\Temp\ccdovRCu.s:26758  .debug_str:00000000000192b2 .LASF4261
C:\Users\SOLDER~1\AppData\Local\Temp\ccdovRCu.s:29588  .debug_str:0000000000024a0a .LASF4262
C:\Users\SOLDER~1\AppData\Local\Temp\ccdovRCu.s:28852  .debug_str:0000000000021a7c .LASF4263
C:\Users\SOLDER~1\AppData\Local\Temp\ccdovRCu.s:30042  .debug_str:0000000000026821 .LASF4264
C:\Users\SOLDER~1\AppData\Local\Temp\ccdovRCu.s:30342  .debug_str:0000000000027bcc .LASF4265
C:\Users\SOLDER~1\AppData\Local\Temp\ccdovRCu.s:31156  .debug_str:000000000002b07a .LASF4266
C:\Users\SOLDER~1\AppData\Local\Temp\ccdovRCu.s:30636  .debug_str:0000000000028f12 .LASF4267
C:\Users\SOLDER~1\AppData\Local\Temp\ccdovRCu.s:27842  .debug_str:000000000001d932 .LASF4268
C:\Users\SOLDER~1\AppData\Local\Temp\ccdovRCu.s:20804  .debug_str:0000000000001059 .LASF4269
C:\Users\SOLDER~1\AppData\Local\Temp\ccdovRCu.s:28758  .debug_str:0000000000021470 .LASF4270
C:\Users\SOLDER~1\AppData\Local\Temp\ccdovRCu.s:22568  .debug_str:000000000000819e .LASF4271
C:\Users\SOLDER~1\AppData\Local\Temp\ccdovRCu.s:21814  .debug_str:0000000000005044 .LASF4272
C:\Users\SOLDER~1\AppData\Local\Temp\ccdovRCu.s:30224  .debug_str:000000000002741b .LASF4273
C:\Users\SOLDER~1\AppData\Local\Temp\ccdovRCu.s:20672  .debug_str:000000000000076c .LASF4274
C:\Users\SOLDER~1\AppData\Local\Temp\ccdovRCu.s:29818  .debug_str:00000000000258d0 .LASF4275
C:\Users\SOLDER~1\AppData\Local\Temp\ccdovRCu.s:21606  .debug_str:000000000000434a .LASF4276
C:\Users\SOLDER~1\AppData\Local\Temp\ccdovRCu.s:23888  .debug_str:000000000000d89e .LASF4277
C:\Users\SOLDER~1\AppData\Local\Temp\ccdovRCu.s:22612  .debug_str:0000000000008456 .LASF4278
C:\Users\SOLDER~1\AppData\Local\Temp\ccdovRCu.s:31410  .debug_str:000000000002c13a .LASF4279
C:\Users\SOLDER~1\AppData\Local\Temp\ccdovRCu.s:24734  .debug_str:0000000000010f17 .LASF4280
C:\Users\SOLDER~1\AppData\Local\Temp\ccdovRCu.s:20628  .debug_str:0000000000000414 .LASF4281
C:\Users\SOLDER~1\AppData\Local\Temp\ccdovRCu.s:22894  .debug_str:00000000000096b3 .LASF4282
C:\Users\SOLDER~1\AppData\Local\Temp\ccdovRCu.s:25596  .debug_str:00000000000147f2 .LASF4283
C:\Users\SOLDER~1\AppData\Local\Temp\ccdovRCu.s:22358  .debug_str:000000000000741d .LASF4284
C:\Users\SOLDER~1\AppData\Local\Temp\ccdovRCu.s:23604  .debug_str:000000000000c57e .LASF4285
C:\Users\SOLDER~1\AppData\Local\Temp\ccdovRCu.s:26588  .debug_str:0000000000018796 .LASF4286
C:\Users\SOLDER~1\AppData\Local\Temp\ccdovRCu.s:25506  .debug_str:00000000000141b1 .LASF4287
C:\Users\SOLDER~1\AppData\Local\Temp\ccdovRCu.s:28954  .debug_str:00000000000220e2 .LASF4288
C:\Users\SOLDER~1\AppData\Local\Temp\ccdovRCu.s:28034  .debug_str:000000000001e55e .LASF4289
C:\Users\SOLDER~1\AppData\Local\Temp\ccdovRCu.s:24738  .debug_str:0000000000010f5e .LASF4290
C:\Users\SOLDER~1\AppData\Local\Temp\ccdovRCu.s:25798  .debug_str:000000000001550a .LASF4291
C:\Users\SOLDER~1\AppData\Local\Temp\ccdovRCu.s:20858  .debug_str:000000000000139e .LASF4292
C:\Users\SOLDER~1\AppData\Local\Temp\ccdovRCu.s:26884  .debug_str:0000000000019adf .LASF4293
C:\Users\SOLDER~1\AppData\Local\Temp\ccdovRCu.s:27482  .debug_str:000000000001c11a .LASF4294
C:\Users\SOLDER~1\AppData\Local\Temp\ccdovRCu.s:28670  .debug_str:0000000000020e94 .LASF4295
C:\Users\SOLDER~1\AppData\Local\Temp\ccdovRCu.s:30208  .debug_str:000000000002730a .LASF4296
C:\Users\SOLDER~1\AppData\Local\Temp\ccdovRCu.s:24188  .debug_str:000000000000ebea .LASF4297
C:\Users\SOLDER~1\AppData\Local\Temp\ccdovRCu.s:25332  .debug_str:0000000000013595 .LASF4298
C:\Users\SOLDER~1\AppData\Local\Temp\ccdovRCu.s:21876  .debug_str:0000000000005419 .LASF4299
C:\Users\SOLDER~1\AppData\Local\Temp\ccdovRCu.s:23964  .debug_str:000000000000dd63 .LASF4300
C:\Users\SOLDER~1\AppData\Local\Temp\ccdovRCu.s:22698  .debug_str:00000000000089bc .LASF4301
C:\Users\SOLDER~1\AppData\Local\Temp\ccdovRCu.s:26504  .debug_str:000000000001823f .LASF4302
GAS LISTING C:\Users\SOLDER~1\AppData\Local\Temp\ccdovRCu.s 			page 128


C:\Users\SOLDER~1\AppData\Local\Temp\ccdovRCu.s:31868  .debug_str:000000000002deb1 .LASF4303
C:\Users\SOLDER~1\AppData\Local\Temp\ccdovRCu.s:21078  .debug_str:00000000000021a2 .LASF4304
C:\Users\SOLDER~1\AppData\Local\Temp\ccdovRCu.s:25908  .debug_str:0000000000015c23 .LASF4305
C:\Users\SOLDER~1\AppData\Local\Temp\ccdovRCu.s:30008  .debug_str:0000000000026610 .LASF4306
C:\Users\SOLDER~1\AppData\Local\Temp\ccdovRCu.s:29706  .debug_str:00000000000251b4 .LASF4307
C:\Users\SOLDER~1\AppData\Local\Temp\ccdovRCu.s:28200  .debug_str:000000000001f07d .LASF4308
C:\Users\SOLDER~1\AppData\Local\Temp\ccdovRCu.s:31982  .debug_str:000000000002e5cf .LASF4309
C:\Users\SOLDER~1\AppData\Local\Temp\ccdovRCu.s:23492  .debug_str:000000000000bdf8 .LASF4310
C:\Users\SOLDER~1\AppData\Local\Temp\ccdovRCu.s:24494  .debug_str:000000000000ffe5 .LASF4311
C:\Users\SOLDER~1\AppData\Local\Temp\ccdovRCu.s:21922  .debug_str:00000000000056ce .LASF4312
C:\Users\SOLDER~1\AppData\Local\Temp\ccdovRCu.s:27372  .debug_str:000000000001ba17 .LASF4313
C:\Users\SOLDER~1\AppData\Local\Temp\ccdovRCu.s:20926  .debug_str:00000000000017fd .LASF4314
C:\Users\SOLDER~1\AppData\Local\Temp\ccdovRCu.s:26076  .debug_str:00000000000166fc .LASF4315
C:\Users\SOLDER~1\AppData\Local\Temp\ccdovRCu.s:30292  .debug_str:000000000002788b .LASF4316
C:\Users\SOLDER~1\AppData\Local\Temp\ccdovRCu.s:22476  .debug_str:0000000000007b5f .LASF4317
C:\Users\SOLDER~1\AppData\Local\Temp\ccdovRCu.s:25964  .debug_str:0000000000015fce .LASF4318
C:\Users\SOLDER~1\AppData\Local\Temp\ccdovRCu.s:22050  .debug_str:0000000000005f50 .LASF4319
C:\Users\SOLDER~1\AppData\Local\Temp\ccdovRCu.s:31358  .debug_str:000000000002bdc6 .LASF4320
C:\Users\SOLDER~1\AppData\Local\Temp\ccdovRCu.s:30424  .debug_str:0000000000028139 .LASF4321
C:\Users\SOLDER~1\AppData\Local\Temp\ccdovRCu.s:28912  .debug_str:0000000000021e3d .LASF4322
C:\Users\SOLDER~1\AppData\Local\Temp\ccdovRCu.s:31570  .debug_str:000000000002cb7a .LASF4323
C:\Users\SOLDER~1\AppData\Local\Temp\ccdovRCu.s:21020  .debug_str:0000000000001df0 .LASF4324
C:\Users\SOLDER~1\AppData\Local\Temp\ccdovRCu.s:31946  .debug_str:000000000002e3b7 .LASF4325
C:\Users\SOLDER~1\AppData\Local\Temp\ccdovRCu.s:24828  .debug_str:0000000000011531 .LASF4326
C:\Users\SOLDER~1\AppData\Local\Temp\ccdovRCu.s:22522  .debug_str:0000000000007e72 .LASF4327
C:\Users\SOLDER~1\AppData\Local\Temp\ccdovRCu.s:31848  .debug_str:000000000002dd86 .LASF4328
C:\Users\SOLDER~1\AppData\Local\Temp\ccdovRCu.s:29116  .debug_str:0000000000022b16 .LASF4329
C:\Users\SOLDER~1\AppData\Local\Temp\ccdovRCu.s:28326  .debug_str:000000000001f8fb .LASF4330
C:\Users\SOLDER~1\AppData\Local\Temp\ccdovRCu.s:30716  .debug_str:000000000002942b .LASF4331
C:\Users\SOLDER~1\AppData\Local\Temp\ccdovRCu.s:25280  .debug_str:0000000000013210 .LASF4332
C:\Users\SOLDER~1\AppData\Local\Temp\ccdovRCu.s:28336  .debug_str:000000000001f994 .LASF4333
C:\Users\SOLDER~1\AppData\Local\Temp\ccdovRCu.s:25076  .debug_str:00000000000124a7 .LASF4334
C:\Users\SOLDER~1\AppData\Local\Temp\ccdovRCu.s:27654  .debug_str:000000000001ccd9 .LASF4335
C:\Users\SOLDER~1\AppData\Local\Temp\ccdovRCu.s:27204  .debug_str:000000000001afda .LASF4336
C:\Users\SOLDER~1\AppData\Local\Temp\ccdovRCu.s:22126  .debug_str:000000000000649a .LASF4337
C:\Users\SOLDER~1\AppData\Local\Temp\ccdovRCu.s:28030  .debug_str:000000000001e521 .LASF4338
C:\Users\SOLDER~1\AppData\Local\Temp\ccdovRCu.s:26894  .debug_str:0000000000019b8c .LASF4339
C:\Users\SOLDER~1\AppData\Local\Temp\ccdovRCu.s:27590  .debug_str:000000000001c874 .LASF4340
C:\Users\SOLDER~1\AppData\Local\Temp\ccdovRCu.s:26380  .debug_str:0000000000017a40 .LASF4341
C:\Users\SOLDER~1\AppData\Local\Temp\ccdovRCu.s:27838  .debug_str:000000000001d8e8 .LASF4342
C:\Users\SOLDER~1\AppData\Local\Temp\ccdovRCu.s:26190  .debug_str:0000000000016dc4 .LASF4343
C:\Users\SOLDER~1\AppData\Local\Temp\ccdovRCu.s:26284  .debug_str:0000000000017410 .LASF4344
C:\Users\SOLDER~1\AppData\Local\Temp\ccdovRCu.s:29602  .debug_str:0000000000024afe .LASF4345
C:\Users\SOLDER~1\AppData\Local\Temp\ccdovRCu.s:25110  .debug_str:000000000001273a .LASF4346
C:\Users\SOLDER~1\AppData\Local\Temp\ccdovRCu.s:21324  .debug_str:000000000000317e .LASF4347
C:\Users\SOLDER~1\AppData\Local\Temp\ccdovRCu.s:29510  .debug_str:00000000000244e1 .LASF4348
C:\Users\SOLDER~1\AppData\Local\Temp\ccdovRCu.s:31310  .debug_str:000000000002ba9e .LASF4349
C:\Users\SOLDER~1\AppData\Local\Temp\ccdovRCu.s:29154  .debug_str:0000000000022d9e .LASF4350
C:\Users\SOLDER~1\AppData\Local\Temp\ccdovRCu.s:24238  .debug_str:000000000000ef2b .LASF4351
C:\Users\SOLDER~1\AppData\Local\Temp\ccdovRCu.s:26030  .debug_str:0000000000016428 .LASF4352
C:\Users\SOLDER~1\AppData\Local\Temp\ccdovRCu.s:21270  .debug_str:0000000000002e00 .LASF4353
C:\Users\SOLDER~1\AppData\Local\Temp\ccdovRCu.s:26912  .debug_str:0000000000019cc5 .LASF4354
C:\Users\SOLDER~1\AppData\Local\Temp\ccdovRCu.s:25278  .debug_str:00000000000131ea .LASF4355
C:\Users\SOLDER~1\AppData\Local\Temp\ccdovRCu.s:27282  .debug_str:000000000001b498 .LASF4356
C:\Users\SOLDER~1\AppData\Local\Temp\ccdovRCu.s:29262  .debug_str:00000000000234a7 .LASF4357
C:\Users\SOLDER~1\AppData\Local\Temp\ccdovRCu.s:23972  .debug_str:000000000000ddd8 .LASF4358
C:\Users\SOLDER~1\AppData\Local\Temp\ccdovRCu.s:24348  .debug_str:000000000000f5ed .LASF4359
GAS LISTING C:\Users\SOLDER~1\AppData\Local\Temp\ccdovRCu.s 			page 129


C:\Users\SOLDER~1\AppData\Local\Temp\ccdovRCu.s:31274  .debug_str:000000000002b839 .LASF4360
C:\Users\SOLDER~1\AppData\Local\Temp\ccdovRCu.s:21350  .debug_str:000000000000331f .LASF4361
C:\Users\SOLDER~1\AppData\Local\Temp\ccdovRCu.s:22882  .debug_str:00000000000095fb .LASF4362
C:\Users\SOLDER~1\AppData\Local\Temp\ccdovRCu.s:21630  .debug_str:00000000000044ba .LASF4363
C:\Users\SOLDER~1\AppData\Local\Temp\ccdovRCu.s:23494  .debug_str:000000000000be11 .LASF4364
C:\Users\SOLDER~1\AppData\Local\Temp\ccdovRCu.s:23776  .debug_str:000000000000d13f .LASF4365
C:\Users\SOLDER~1\AppData\Local\Temp\ccdovRCu.s:26320  .debug_str:0000000000017675 .LASF4366
C:\Users\SOLDER~1\AppData\Local\Temp\ccdovRCu.s:32002  .debug_str:000000000002e6f5 .LASF4367
C:\Users\SOLDER~1\AppData\Local\Temp\ccdovRCu.s:23598  .debug_str:000000000000c515 .LASF4368
C:\Users\SOLDER~1\AppData\Local\Temp\ccdovRCu.s:28948  .debug_str:000000000002207a .LASF4369
C:\Users\SOLDER~1\AppData\Local\Temp\ccdovRCu.s:30200  .debug_str:0000000000027293 .LASF4370
C:\Users\SOLDER~1\AppData\Local\Temp\ccdovRCu.s:26312  .debug_str:00000000000175de .LASF4371
C:\Users\SOLDER~1\AppData\Local\Temp\ccdovRCu.s:31744  .debug_str:000000000002d708 .LASF4372
C:\Users\SOLDER~1\AppData\Local\Temp\ccdovRCu.s:25654  .debug_str:0000000000014bcc .LASF4373
C:\Users\SOLDER~1\AppData\Local\Temp\ccdovRCu.s:23940  .debug_str:000000000000dbb5 .LASF4374
C:\Users\SOLDER~1\AppData\Local\Temp\ccdovRCu.s:26768  .debug_str:000000000001934d .LASF4375
C:\Users\SOLDER~1\AppData\Local\Temp\ccdovRCu.s:25632  .debug_str:0000000000014a6d .LASF4376
C:\Users\SOLDER~1\AppData\Local\Temp\ccdovRCu.s:27036  .debug_str:000000000001a473 .LASF4377
C:\Users\SOLDER~1\AppData\Local\Temp\ccdovRCu.s:23820  .debug_str:000000000000d40f .LASF4378
C:\Users\SOLDER~1\AppData\Local\Temp\ccdovRCu.s:27816  .debug_str:000000000001d79f .LASF4379
C:\Users\SOLDER~1\AppData\Local\Temp\ccdovRCu.s:29626  .debug_str:0000000000024c73 .LASF4380
C:\Users\SOLDER~1\AppData\Local\Temp\ccdovRCu.s:22766  .debug_str:0000000000008e28 .LASF4381
C:\Users\SOLDER~1\AppData\Local\Temp\ccdovRCu.s:23152  .debug_str:000000000000a809 .LASF4382
C:\Users\SOLDER~1\AppData\Local\Temp\ccdovRCu.s:23718  .debug_str:000000000000cd52 .LASF4383
C:\Users\SOLDER~1\AppData\Local\Temp\ccdovRCu.s:30780  .debug_str:000000000002984f .LASF4384
C:\Users\SOLDER~1\AppData\Local\Temp\ccdovRCu.s:27298  .debug_str:000000000001b575 .LASF4385
C:\Users\SOLDER~1\AppData\Local\Temp\ccdovRCu.s:23892  .debug_str:000000000000d8d6 .LASF4386
C:\Users\SOLDER~1\AppData\Local\Temp\ccdovRCu.s:20726  .debug_str:0000000000000b2d .LASF4387
C:\Users\SOLDER~1\AppData\Local\Temp\ccdovRCu.s:21616  .debug_str:00000000000043ea .LASF4388
C:\Users\SOLDER~1\AppData\Local\Temp\ccdovRCu.s:25528  .debug_str:000000000001436f .LASF4389
C:\Users\SOLDER~1\AppData\Local\Temp\ccdovRCu.s:21650  .debug_str:00000000000045fd .LASF4390
C:\Users\SOLDER~1\AppData\Local\Temp\ccdovRCu.s:21706  .debug_str:00000000000049a5 .LASF4391
C:\Users\SOLDER~1\AppData\Local\Temp\ccdovRCu.s:31766  .debug_str:000000000002d849 .LASF4392
C:\Users\SOLDER~1\AppData\Local\Temp\ccdovRCu.s:26638  .debug_str:0000000000018aac .LASF4393
C:\Users\SOLDER~1\AppData\Local\Temp\ccdovRCu.s:31888  .debug_str:000000000002e01b .LASF4394
C:\Users\SOLDER~1\AppData\Local\Temp\ccdovRCu.s:26068  .debug_str:0000000000016678 .LASF4395
C:\Users\SOLDER~1\AppData\Local\Temp\ccdovRCu.s:23802  .debug_str:000000000000d2dd .LASF4396
C:\Users\SOLDER~1\AppData\Local\Temp\ccdovRCu.s:23386  .debug_str:000000000000b719 .LASF4397
C:\Users\SOLDER~1\AppData\Local\Temp\ccdovRCu.s:30532  .debug_str:0000000000028854 .LASF4398
C:\Users\SOLDER~1\AppData\Local\Temp\ccdovRCu.s:21828  .debug_str:0000000000005112 .LASF4399
C:\Users\SOLDER~1\AppData\Local\Temp\ccdovRCu.s:25440  .debug_str:0000000000013d40 .LASF4400
C:\Users\SOLDER~1\AppData\Local\Temp\ccdovRCu.s:26930  .debug_str:0000000000019df3 .LASF4401
C:\Users\SOLDER~1\AppData\Local\Temp\ccdovRCu.s:26852  .debug_str:000000000001990c .LASF4402
C:\Users\SOLDER~1\AppData\Local\Temp\ccdovRCu.s:27720  .debug_str:000000000001d135 .LASF4403
C:\Users\SOLDER~1\AppData\Local\Temp\ccdovRCu.s:25496  .debug_str:0000000000014102 .LASF4404
C:\Users\SOLDER~1\AppData\Local\Temp\ccdovRCu.s:28986  .debug_str:00000000000222d6 .LASF4405
C:\Users\SOLDER~1\AppData\Local\Temp\ccdovRCu.s:29824  .debug_str:0000000000025932 .LASF4406
C:\Users\SOLDER~1\AppData\Local\Temp\ccdovRCu.s:24612  .debug_str:0000000000010717 .LASF4407
C:\Users\SOLDER~1\AppData\Local\Temp\ccdovRCu.s:26102  .debug_str:0000000000016855 .LASF4408
C:\Users\SOLDER~1\AppData\Local\Temp\ccdovRCu.s:28842  .debug_str:00000000000219c8 .LASF4409
C:\Users\SOLDER~1\AppData\Local\Temp\ccdovRCu.s:26444  .debug_str:0000000000017e39 .LASF4410
C:\Users\SOLDER~1\AppData\Local\Temp\ccdovRCu.s:29572  .debug_str:0000000000024901 .LASF4411
C:\Users\SOLDER~1\AppData\Local\Temp\ccdovRCu.s:29408  .debug_str:0000000000023e16 .LASF4412
C:\Users\SOLDER~1\AppData\Local\Temp\ccdovRCu.s:29944  .debug_str:0000000000026185 .LASF4413
C:\Users\SOLDER~1\AppData\Local\Temp\ccdovRCu.s:24606  .debug_str:00000000000106c2 .LASF4414
C:\Users\SOLDER~1\AppData\Local\Temp\ccdovRCu.s:24656  .debug_str:0000000000010a44 .LASF4415
C:\Users\SOLDER~1\AppData\Local\Temp\ccdovRCu.s:21156  .debug_str:00000000000026b0 .LASF4416
GAS LISTING C:\Users\SOLDER~1\AppData\Local\Temp\ccdovRCu.s 			page 130


C:\Users\SOLDER~1\AppData\Local\Temp\ccdovRCu.s:26224  .debug_str:0000000000016ff7 .LASF4417
C:\Users\SOLDER~1\AppData\Local\Temp\ccdovRCu.s:21528  .debug_str:0000000000003e6e .LASF4418
C:\Users\SOLDER~1\AppData\Local\Temp\ccdovRCu.s:21160  .debug_str:00000000000026f7 .LASF4419
C:\Users\SOLDER~1\AppData\Local\Temp\ccdovRCu.s:23088  .debug_str:000000000000a38d .LASF4420
C:\Users\SOLDER~1\AppData\Local\Temp\ccdovRCu.s:27740  .debug_str:000000000001d25e .LASF4421
C:\Users\SOLDER~1\AppData\Local\Temp\ccdovRCu.s:26872  .debug_str:0000000000019a21 .LASF4422
C:\Users\SOLDER~1\AppData\Local\Temp\ccdovRCu.s:24982  .debug_str:0000000000011ef1 .LASF4423
C:\Users\SOLDER~1\AppData\Local\Temp\ccdovRCu.s:27902  .debug_str:000000000001dcb5 .LASF4424
C:\Users\SOLDER~1\AppData\Local\Temp\ccdovRCu.s:22040  .debug_str:0000000000005ead .LASF4425
C:\Users\SOLDER~1\AppData\Local\Temp\ccdovRCu.s:25618  .debug_str:0000000000014962 .LASF4426
C:\Users\SOLDER~1\AppData\Local\Temp\ccdovRCu.s:23462  .debug_str:000000000000bc11 .LASF4427
C:\Users\SOLDER~1\AppData\Local\Temp\ccdovRCu.s:32080  .debug_str:000000000002ebf7 .LASF4428
C:\Users\SOLDER~1\AppData\Local\Temp\ccdovRCu.s:27128  .debug_str:000000000001aaba .LASF4429
C:\Users\SOLDER~1\AppData\Local\Temp\ccdovRCu.s:31810  .debug_str:000000000002db40 .LASF4430
C:\Users\SOLDER~1\AppData\Local\Temp\ccdovRCu.s:30832  .debug_str:0000000000029b81 .LASF4431
C:\Users\SOLDER~1\AppData\Local\Temp\ccdovRCu.s:26878  .debug_str:0000000000019a8c .LASF4432
C:\Users\SOLDER~1\AppData\Local\Temp\ccdovRCu.s:27138  .debug_str:000000000001ab45 .LASF4433
C:\Users\SOLDER~1\AppData\Local\Temp\ccdovRCu.s:24842  .debug_str:000000000001162f .LASF4434
C:\Users\SOLDER~1\AppData\Local\Temp\ccdovRCu.s:31628  .debug_str:000000000002cf24 .LASF4435
C:\Users\SOLDER~1\AppData\Local\Temp\ccdovRCu.s:26846  .debug_str:00000000000198bd .LASF4436
C:\Users\SOLDER~1\AppData\Local\Temp\ccdovRCu.s:21490  .debug_str:0000000000003c16 .LASF4437
C:\Users\SOLDER~1\AppData\Local\Temp\ccdovRCu.s:29152  .debug_str:0000000000022d8a .LASF4438
C:\Users\SOLDER~1\AppData\Local\Temp\ccdovRCu.s:24380  .debug_str:000000000000f7fb .LASF4439
C:\Users\SOLDER~1\AppData\Local\Temp\ccdovRCu.s:29780  .debug_str:0000000000025683 .LASF4440
C:\Users\SOLDER~1\AppData\Local\Temp\ccdovRCu.s:26172  .debug_str:0000000000016cdd .LASF4441
C:\Users\SOLDER~1\AppData\Local\Temp\ccdovRCu.s:30586  .debug_str:0000000000028c0b .LASF4442
C:\Users\SOLDER~1\AppData\Local\Temp\ccdovRCu.s:26078  .debug_str:000000000001671e .LASF4443
C:\Users\SOLDER~1\AppData\Local\Temp\ccdovRCu.s:23506  .debug_str:000000000000bec7 .LASF4444
C:\Users\SOLDER~1\AppData\Local\Temp\ccdovRCu.s:25866  .debug_str:000000000001598d .LASF4445
C:\Users\SOLDER~1\AppData\Local\Temp\ccdovRCu.s:26640  .debug_str:0000000000018acc .LASF4446
C:\Users\SOLDER~1\AppData\Local\Temp\ccdovRCu.s:23696  .debug_str:000000000000cbe6 .LASF4447
C:\Users\SOLDER~1\AppData\Local\Temp\ccdovRCu.s:27498  .debug_str:000000000001c220 .LASF4448
C:\Users\SOLDER~1\AppData\Local\Temp\ccdovRCu.s:28976  .debug_str:000000000002223a .LASF4449
C:\Users\SOLDER~1\AppData\Local\Temp\ccdovRCu.s:30680  .debug_str:00000000000291d2 .LASF4450
C:\Users\SOLDER~1\AppData\Local\Temp\ccdovRCu.s:28712  .debug_str:0000000000021155 .LASF4451
C:\Users\SOLDER~1\AppData\Local\Temp\ccdovRCu.s:27230  .debug_str:000000000001b178 .LASF4452
C:\Users\SOLDER~1\AppData\Local\Temp\ccdovRCu.s:25372  .debug_str:0000000000013843 .LASF4453
C:\Users\SOLDER~1\AppData\Local\Temp\ccdovRCu.s:27704  .debug_str:000000000001d037 .LASF4454
C:\Users\SOLDER~1\AppData\Local\Temp\ccdovRCu.s:25010  .debug_str:00000000000120ab .LASF4455
C:\Users\SOLDER~1\AppData\Local\Temp\ccdovRCu.s:30114  .debug_str:0000000000026d25 .LASF4456
C:\Users\SOLDER~1\AppData\Local\Temp\ccdovRCu.s:24474  .debug_str:000000000000feac .LASF4457
C:\Users\SOLDER~1\AppData\Local\Temp\ccdovRCu.s:30942  .debug_str:000000000002a29f .LASF4458
C:\Users\SOLDER~1\AppData\Local\Temp\ccdovRCu.s:29814  .debug_str:0000000000025893 .LASF4459
C:\Users\SOLDER~1\AppData\Local\Temp\ccdovRCu.s:30866  .debug_str:0000000000029d98 .LASF4460
C:\Users\SOLDER~1\AppData\Local\Temp\ccdovRCu.s:24904  .debug_str:0000000000011a18 .LASF4461
C:\Users\SOLDER~1\AppData\Local\Temp\ccdovRCu.s:26232  .debug_str:000000000001708a .LASF4462
C:\Users\SOLDER~1\AppData\Local\Temp\ccdovRCu.s:27062  .debug_str:000000000001a655 .LASF4463
C:\Users\SOLDER~1\AppData\Local\Temp\ccdovRCu.s:29396  .debug_str:0000000000023d45 .LASF4464
C:\Users\SOLDER~1\AppData\Local\Temp\ccdovRCu.s:27432  .debug_str:000000000001bdbb .LASF4465
C:\Users\SOLDER~1\AppData\Local\Temp\ccdovRCu.s:27034  .debug_str:000000000001a45c .LASF4466
C:\Users\SOLDER~1\AppData\Local\Temp\ccdovRCu.s:26740  .debug_str:00000000000191a5 .LASF4467
C:\Users\SOLDER~1\AppData\Local\Temp\ccdovRCu.s:27612  .debug_str:000000000001c9e9 .LASF4468
C:\Users\SOLDER~1\AppData\Local\Temp\ccdovRCu.s:26150  .debug_str:0000000000016b77 .LASF4469
C:\Users\SOLDER~1\AppData\Local\Temp\ccdovRCu.s:30588  .debug_str:0000000000028c1c .LASF4470
C:\Users\SOLDER~1\AppData\Local\Temp\ccdovRCu.s:31346  .debug_str:000000000002bd05 .LASF4471
C:\Users\SOLDER~1\AppData\Local\Temp\ccdovRCu.s:21764  .debug_str:0000000000004d52 .LASF4472
C:\Users\SOLDER~1\AppData\Local\Temp\ccdovRCu.s:31742  .debug_str:000000000002d6f1 .LASF4473
GAS LISTING C:\Users\SOLDER~1\AppData\Local\Temp\ccdovRCu.s 			page 131


C:\Users\SOLDER~1\AppData\Local\Temp\ccdovRCu.s:24542  .debug_str:00000000000102ae .LASF4474
C:\Users\SOLDER~1\AppData\Local\Temp\ccdovRCu.s:31024  .debug_str:000000000002a7ff .LASF4475
C:\Users\SOLDER~1\AppData\Local\Temp\ccdovRCu.s:26316  .debug_str:000000000001763a .LASF4476
C:\Users\SOLDER~1\AppData\Local\Temp\ccdovRCu.s:27912  .debug_str:000000000001dd55 .LASF4477
C:\Users\SOLDER~1\AppData\Local\Temp\ccdovRCu.s:30228  .debug_str:0000000000027455 .LASF4478
C:\Users\SOLDER~1\AppData\Local\Temp\ccdovRCu.s:28934  .debug_str:0000000000021fa7 .LASF4479
C:\Users\SOLDER~1\AppData\Local\Temp\ccdovRCu.s:28860  .debug_str:0000000000021aef .LASF4480
C:\Users\SOLDER~1\AppData\Local\Temp\ccdovRCu.s:24864  .debug_str:0000000000011763 .LASF4481
C:\Users\SOLDER~1\AppData\Local\Temp\ccdovRCu.s:31906  .debug_str:000000000002e153 .LASF4482
C:\Users\SOLDER~1\AppData\Local\Temp\ccdovRCu.s:23108  .debug_str:000000000000a4cd .LASF4483
C:\Users\SOLDER~1\AppData\Local\Temp\ccdovRCu.s:30928  .debug_str:000000000002a1a8 .LASF4484
C:\Users\SOLDER~1\AppData\Local\Temp\ccdovRCu.s:22246  .debug_str:0000000000006c81 .LASF4485
C:\Users\SOLDER~1\AppData\Local\Temp\ccdovRCu.s:31578  .debug_str:000000000002cbfd .LASF4486
C:\Users\SOLDER~1\AppData\Local\Temp\ccdovRCu.s:31688  .debug_str:000000000002d347 .LASF4487
C:\Users\SOLDER~1\AppData\Local\Temp\ccdovRCu.s:31248  .debug_str:000000000002b698 .LASF4488
C:\Users\SOLDER~1\AppData\Local\Temp\ccdovRCu.s:27244  .debug_str:000000000001b22f .LASF4489
C:\Users\SOLDER~1\AppData\Local\Temp\ccdovRCu.s:25364  .debug_str:00000000000137dd .LASF4490
C:\Users\SOLDER~1\AppData\Local\Temp\ccdovRCu.s:25944  .debug_str:0000000000015e82 .LASF4491
C:\Users\SOLDER~1\AppData\Local\Temp\ccdovRCu.s:25122  .debug_str:00000000000127f2 .LASF4492
C:\Users\SOLDER~1\AppData\Local\Temp\ccdovRCu.s:31100  .debug_str:000000000002acbf .LASF4493
C:\Users\SOLDER~1\AppData\Local\Temp\ccdovRCu.s:26244  .debug_str:0000000000017146 .LASF4494
C:\Users\SOLDER~1\AppData\Local\Temp\ccdovRCu.s:29840  .debug_str:0000000000025a4c .LASF4495
C:\Users\SOLDER~1\AppData\Local\Temp\ccdovRCu.s:26378  .debug_str:0000000000017a07 .LASF4496
C:\Users\SOLDER~1\AppData\Local\Temp\ccdovRCu.s:28580  .debug_str:0000000000020905 .LASF4497
C:\Users\SOLDER~1\AppData\Local\Temp\ccdovRCu.s:31770  .debug_str:000000000002d878 .LASF4498
C:\Users\SOLDER~1\AppData\Local\Temp\ccdovRCu.s:25644  .debug_str:0000000000014b24 .LASF4499
C:\Users\SOLDER~1\AppData\Local\Temp\ccdovRCu.s:26794  .debug_str:000000000001950c .LASF4500
C:\Users\SOLDER~1\AppData\Local\Temp\ccdovRCu.s:27988  .debug_str:000000000001e26b .LASF4501
C:\Users\SOLDER~1\AppData\Local\Temp\ccdovRCu.s:29080  .debug_str:00000000000228b6 .LASF4502
C:\Users\SOLDER~1\AppData\Local\Temp\ccdovRCu.s:27510  .debug_str:000000000001c2e2 .LASF4503
C:\Users\SOLDER~1\AppData\Local\Temp\ccdovRCu.s:30324  .debug_str:0000000000027a95 .LASF4504
C:\Users\SOLDER~1\AppData\Local\Temp\ccdovRCu.s:29122  .debug_str:0000000000022b7b .LASF4505
C:\Users\SOLDER~1\AppData\Local\Temp\ccdovRCu.s:20980  .debug_str:0000000000001b69 .LASF4506
C:\Users\SOLDER~1\AppData\Local\Temp\ccdovRCu.s:29872  .debug_str:0000000000025c88 .LASF4507
C:\Users\SOLDER~1\AppData\Local\Temp\ccdovRCu.s:22154  .debug_str:000000000000665f .LASF4508
C:\Users\SOLDER~1\AppData\Local\Temp\ccdovRCu.s:24818  .debug_str:0000000000011464 .LASF4509
C:\Users\SOLDER~1\AppData\Local\Temp\ccdovRCu.s:27316  .debug_str:000000000001b6ba .LASF4510
C:\Users\SOLDER~1\AppData\Local\Temp\ccdovRCu.s:25612  .debug_str:00000000000148f1 .LASF4511
C:\Users\SOLDER~1\AppData\Local\Temp\ccdovRCu.s:28856  .debug_str:0000000000021ab8 .LASF4512
C:\Users\SOLDER~1\AppData\Local\Temp\ccdovRCu.s:28930  .debug_str:0000000000021f71 .LASF4513
C:\Users\SOLDER~1\AppData\Local\Temp\ccdovRCu.s:28434  .debug_str:000000000001ffa6 .LASF4514
C:\Users\SOLDER~1\AppData\Local\Temp\ccdovRCu.s:22970  .debug_str:0000000000009bac .LASF4515
C:\Users\SOLDER~1\AppData\Local\Temp\ccdovRCu.s:25804  .debug_str:000000000001557a .LASF4516
C:\Users\SOLDER~1\AppData\Local\Temp\ccdovRCu.s:28290  .debug_str:000000000001f657 .LASF4517
C:\Users\SOLDER~1\AppData\Local\Temp\ccdovRCu.s:32126  .debug_str:000000000002eebf .LASF4518
C:\Users\SOLDER~1\AppData\Local\Temp\ccdovRCu.s:28038  .debug_str:000000000001e599 .LASF4519
C:\Users\SOLDER~1\AppData\Local\Temp\ccdovRCu.s:20850  .debug_str:0000000000001300 .LASF4520
C:\Users\SOLDER~1\AppData\Local\Temp\ccdovRCu.s:24576  .debug_str:0000000000010508 .LASF4521
C:\Users\SOLDER~1\AppData\Local\Temp\ccdovRCu.s:23692  .debug_str:000000000000cbaa .LASF4522
C:\Users\SOLDER~1\AppData\Local\Temp\ccdovRCu.s:29750  .debug_str:000000000002547b .LASF4523
C:\Users\SOLDER~1\AppData\Local\Temp\ccdovRCu.s:23880  .debug_str:000000000000d81b .LASF4524
C:\Users\SOLDER~1\AppData\Local\Temp\ccdovRCu.s:31320  .debug_str:000000000002bb44 .LASF4525
C:\Users\SOLDER~1\AppData\Local\Temp\ccdovRCu.s:26722  .debug_str:000000000001906e .LASF4526
C:\Users\SOLDER~1\AppData\Local\Temp\ccdovRCu.s:25734  .debug_str:00000000000150d0 .LASF4527
C:\Users\SOLDER~1\AppData\Local\Temp\ccdovRCu.s:29696  .debug_str:0000000000025137 .LASF4528
C:\Users\SOLDER~1\AppData\Local\Temp\ccdovRCu.s:31188  .debug_str:000000000002b27b .LASF4529
C:\Users\SOLDER~1\AppData\Local\Temp\ccdovRCu.s:23378  .debug_str:000000000000b6ad .LASF4530
GAS LISTING C:\Users\SOLDER~1\AppData\Local\Temp\ccdovRCu.s 			page 132


C:\Users\SOLDER~1\AppData\Local\Temp\ccdovRCu.s:29630  .debug_str:0000000000024cb6 .LASF4531
C:\Users\SOLDER~1\AppData\Local\Temp\ccdovRCu.s:29270  .debug_str:0000000000023521 .LASF4532
C:\Users\SOLDER~1\AppData\Local\Temp\ccdovRCu.s:27754  .debug_str:000000000001d376 .LASF4533
C:\Users\SOLDER~1\AppData\Local\Temp\ccdovRCu.s:29942  .debug_str:000000000002614c .LASF4534
C:\Users\SOLDER~1\AppData\Local\Temp\ccdovRCu.s:31408  .debug_str:000000000002c101 .LASF4535
C:\Users\SOLDER~1\AppData\Local\Temp\ccdovRCu.s:26056  .debug_str:00000000000165bb .LASF4536
C:\Users\SOLDER~1\AppData\Local\Temp\ccdovRCu.s:21714  .debug_str:0000000000004a1c .LASF4537
C:\Users\SOLDER~1\AppData\Local\Temp\ccdovRCu.s:24300  .debug_str:000000000000f2f4 .LASF4538
C:\Users\SOLDER~1\AppData\Local\Temp\ccdovRCu.s:25296  .debug_str:0000000000013340 .LASF4539
C:\Users\SOLDER~1\AppData\Local\Temp\ccdovRCu.s:27610  .debug_str:000000000001c9ae .LASF4540
C:\Users\SOLDER~1\AppData\Local\Temp\ccdovRCu.s:27580  .debug_str:000000000001c795 .LASF4541
C:\Users\SOLDER~1\AppData\Local\Temp\ccdovRCu.s:25508  .debug_str:00000000000141d3 .LASF4542
C:\Users\SOLDER~1\AppData\Local\Temp\ccdovRCu.s:31462  .debug_str:000000000002c4d3 .LASF4543
C:\Users\SOLDER~1\AppData\Local\Temp\ccdovRCu.s:31434  .debug_str:000000000002c2e2 .LASF4544
C:\Users\SOLDER~1\AppData\Local\Temp\ccdovRCu.s:29634  .debug_str:0000000000024d12 .LASF4545
C:\Users\SOLDER~1\AppData\Local\Temp\ccdovRCu.s:24028  .debug_str:000000000000e1aa .LASF4546
C:\Users\SOLDER~1\AppData\Local\Temp\ccdovRCu.s:22158  .debug_str:00000000000066bd .LASF4547
C:\Users\SOLDER~1\AppData\Local\Temp\ccdovRCu.s:22216  .debug_str:0000000000006ab6 .LASF4548
C:\Users\SOLDER~1\AppData\Local\Temp\ccdovRCu.s:27850  .debug_str:000000000001d999 .LASF4549
C:\Users\SOLDER~1\AppData\Local\Temp\ccdovRCu.s:27054  .debug_str:000000000001a5d2 .LASF4550
C:\Users\SOLDER~1\AppData\Local\Temp\ccdovRCu.s:27478  .debug_str:000000000001c0f0 .LASF4551
C:\Users\SOLDER~1\AppData\Local\Temp\ccdovRCu.s:26582  .debug_str:0000000000018729 .LASF4552
C:\Users\SOLDER~1\AppData\Local\Temp\ccdovRCu.s:30790  .debug_str:000000000002990d .LASF4553
C:\Users\SOLDER~1\AppData\Local\Temp\ccdovRCu.s:20580  .debug_str:0000000000000108 .LASF4554
C:\Users\SOLDER~1\AppData\Local\Temp\ccdovRCu.s:28918  .debug_str:0000000000021e94 .LASF4555
C:\Users\SOLDER~1\AppData\Local\Temp\ccdovRCu.s:28654  .debug_str:0000000000020daf .LASF4556
C:\Users\SOLDER~1\AppData\Local\Temp\ccdovRCu.s:26560  .debug_str:00000000000185c1 .LASF4557
C:\Users\SOLDER~1\AppData\Local\Temp\ccdovRCu.s:31300  .debug_str:000000000002b9fb .LASF4558
C:\Users\SOLDER~1\AppData\Local\Temp\ccdovRCu.s:24516  .debug_str:000000000001012b .LASF4559
C:\Users\SOLDER~1\AppData\Local\Temp\ccdovRCu.s:24608  .debug_str:00000000000106e3 .LASF4560
C:\Users\SOLDER~1\AppData\Local\Temp\ccdovRCu.s:24710  .debug_str:0000000000010d8a .LASF4561
C:\Users\SOLDER~1\AppData\Local\Temp\ccdovRCu.s:24854  .debug_str:00000000000116e9 .LASF4562
C:\Users\SOLDER~1\AppData\Local\Temp\ccdovRCu.s:24580  .debug_str:000000000001054b .LASF4563
C:\Users\SOLDER~1\AppData\Local\Temp\ccdovRCu.s:23010  .debug_str:0000000000009e50 .LASF4564
C:\Users\SOLDER~1\AppData\Local\Temp\ccdovRCu.s:22382  .debug_str:0000000000007596 .LASF4565
C:\Users\SOLDER~1\AppData\Local\Temp\ccdovRCu.s:21670  .debug_str:000000000000475b .LASF4566
C:\Users\SOLDER~1\AppData\Local\Temp\ccdovRCu.s:25028  .debug_str:00000000000121c5 .LASF4567
C:\Users\SOLDER~1\AppData\Local\Temp\ccdovRCu.s:22360  .debug_str:0000000000007435 .LASF4568
C:\Users\SOLDER~1\AppData\Local\Temp\ccdovRCu.s:26020  .debug_str:0000000000016375 .LASF4569
C:\Users\SOLDER~1\AppData\Local\Temp\ccdovRCu.s:27734  .debug_str:000000000001d203 .LASF4570
C:\Users\SOLDER~1\AppData\Local\Temp\ccdovRCu.s:27932  .debug_str:000000000001deb4 .LASF4571
C:\Users\SOLDER~1\AppData\Local\Temp\ccdovRCu.s:24746  .debug_str:0000000000010fdc .LASF4572
C:\Users\SOLDER~1\AppData\Local\Temp\ccdovRCu.s:26344  .debug_str:0000000000017800 .LASF4573
C:\Users\SOLDER~1\AppData\Local\Temp\ccdovRCu.s:31304  .debug_str:000000000002ba48 .LASF4574
C:\Users\SOLDER~1\AppData\Local\Temp\ccdovRCu.s:27924  .debug_str:000000000001de26 .LASF4575
C:\Users\SOLDER~1\AppData\Local\Temp\ccdovRCu.s:21132  .debug_str:000000000000255e .LASF4576
C:\Users\SOLDER~1\AppData\Local\Temp\ccdovRCu.s:23208  .debug_str:000000000000abb2 .LASF4577
C:\Users\SOLDER~1\AppData\Local\Temp\ccdovRCu.s:23162  .debug_str:000000000000a8a5 .LASF4578
C:\Users\SOLDER~1\AppData\Local\Temp\ccdovRCu.s:27492  .debug_str:000000000001c1cb .LASF4579
C:\Users\SOLDER~1\AppData\Local\Temp\ccdovRCu.s:24658  .debug_str:0000000000010a64 .LASF4580
C:\Users\SOLDER~1\AppData\Local\Temp\ccdovRCu.s:27404  .debug_str:000000000001bc10 .LASF4581
C:\Users\SOLDER~1\AppData\Local\Temp\ccdovRCu.s:30334  .debug_str:0000000000027b40 .LASF4582
C:\Users\SOLDER~1\AppData\Local\Temp\ccdovRCu.s:23532  .debug_str:000000000000c06b .LASF4583
C:\Users\SOLDER~1\AppData\Local\Temp\ccdovRCu.s:22404  .debug_str:00000000000076ea .LASF4584
C:\Users\SOLDER~1\AppData\Local\Temp\ccdovRCu.s:26412  .debug_str:0000000000017c31 .LASF4585
C:\Users\SOLDER~1\AppData\Local\Temp\ccdovRCu.s:27338  .debug_str:000000000001b81c .LASF4586
C:\Users\SOLDER~1\AppData\Local\Temp\ccdovRCu.s:21930  .debug_str:000000000000576b .LASF4587
GAS LISTING C:\Users\SOLDER~1\AppData\Local\Temp\ccdovRCu.s 			page 133


C:\Users\SOLDER~1\AppData\Local\Temp\ccdovRCu.s:22502  .debug_str:0000000000007d2a .LASF4588
C:\Users\SOLDER~1\AppData\Local\Temp\ccdovRCu.s:22706  .debug_str:0000000000008a36 .LASF4589
C:\Users\SOLDER~1\AppData\Local\Temp\ccdovRCu.s:28066  .debug_str:000000000001e753 .LASF4590
C:\Users\SOLDER~1\AppData\Local\Temp\ccdovRCu.s:31608  .debug_str:000000000002cdd1 .LASF4591
C:\Users\SOLDER~1\AppData\Local\Temp\ccdovRCu.s:22422  .debug_str:00000000000077d4 .LASF4594
C:\Users\SOLDER~1\AppData\Local\Temp\ccdovRCu.s:27100  .debug_str:000000000001a8c5 .LASF4595
C:\Users\SOLDER~1\AppData\Local\Temp\ccdovRCu.s:25386  .debug_str:0000000000013969 .LASF4596
C:\Users\SOLDER~1\AppData\Local\Temp\ccdovRCu.s:27180  .debug_str:000000000001ae14 .LASF4597
C:\Users\SOLDER~1\AppData\Local\Temp\ccdovRCu.s:28868  .debug_str:0000000000021b75 .LASF4598
C:\Users\SOLDER~1\AppData\Local\Temp\ccdovRCu.s:25790  .debug_str:0000000000015478 .LASF4599
C:\Users\SOLDER~1\AppData\Local\Temp\ccdovRCu.s:31210  .debug_str:000000000002b441 .LASF4600
C:\Users\SOLDER~1\AppData\Local\Temp\ccdovRCu.s:26132  .debug_str:0000000000016a42 .LASF4601
C:\Users\SOLDER~1\AppData\Local\Temp\ccdovRCu.s:23728  .debug_str:000000000000cde9 .LASF4602
C:\Users\SOLDER~1\AppData\Local\Temp\ccdovRCu.s:25510  .debug_str:000000000001420d .LASF4603
C:\Users\SOLDER~1\AppData\Local\Temp\ccdovRCu.s:24384  .debug_str:000000000000f831 .LASF4604
C:\Users\SOLDER~1\AppData\Local\Temp\ccdovRCu.s:30936  .debug_str:000000000002a21b .LASF4605
C:\Users\SOLDER~1\AppData\Local\Temp\ccdovRCu.s:22016  .debug_str:0000000000005d2c .LASF4606
C:\Users\SOLDER~1\AppData\Local\Temp\ccdovRCu.s:29406  .debug_str:0000000000023de2 .LASF4607
C:\Users\SOLDER~1\AppData\Local\Temp\ccdovRCu.s:23098  .debug_str:000000000000a427 .LASF4608
C:\Users\SOLDER~1\AppData\Local\Temp\ccdovRCu.s:25282  .debug_str:0000000000013228 .LASF4609
C:\Users\SOLDER~1\AppData\Local\Temp\ccdovRCu.s:29390  .debug_str:0000000000023cc8 .LASF4610
C:\Users\SOLDER~1\AppData\Local\Temp\ccdovRCu.s:22278  .debug_str:0000000000006eae .LASF4611
C:\Users\SOLDER~1\AppData\Local\Temp\ccdovRCu.s:28312  .debug_str:000000000001f7f9 .LASF4612
C:\Users\SOLDER~1\AppData\Local\Temp\ccdovRCu.s:21510  .debug_str:0000000000003d2d .LASF4613
C:\Users\SOLDER~1\AppData\Local\Temp\ccdovRCu.s:30048  .debug_str:000000000002687d .LASF4614
C:\Users\SOLDER~1\AppData\Local\Temp\ccdovRCu.s:22696  .debug_str:0000000000008988 .LASF4615
C:\Users\SOLDER~1\AppData\Local\Temp\ccdovRCu.s:30102  .debug_str:0000000000026c2f .LASF4616
C:\Users\SOLDER~1\AppData\Local\Temp\ccdovRCu.s:22286  .debug_str:0000000000006f5a .LASF4617
C:\Users\SOLDER~1\AppData\Local\Temp\ccdovRCu.s:21246  .debug_str:0000000000002c65 .LASF4618
C:\Users\SOLDER~1\AppData\Local\Temp\ccdovRCu.s:23318  .debug_str:000000000000b2b1 .LASF4619
C:\Users\SOLDER~1\AppData\Local\Temp\ccdovRCu.s:23438  .debug_str:000000000000ba71 .LASF4620
C:\Users\SOLDER~1\AppData\Local\Temp\ccdovRCu.s:29538  .debug_str:00000000000246a8 .LASF4621
C:\Users\SOLDER~1\AppData\Local\Temp\ccdovRCu.s:30678  .debug_str:00000000000291b4 .LASF4622
C:\Users\SOLDER~1\AppData\Local\Temp\ccdovRCu.s:26502  .debug_str:0000000000018221 .LASF4623
C:\Users\SOLDER~1\AppData\Local\Temp\ccdovRCu.s:24512  .debug_str:00000000000100fb .LASF4624
C:\Users\SOLDER~1\AppData\Local\Temp\ccdovRCu.s:31090  .debug_str:000000000002ac17 .LASF4625
C:\Users\SOLDER~1\AppData\Local\Temp\ccdovRCu.s:26168  .debug_str:0000000000016c9b .LASF4626
C:\Users\SOLDER~1\AppData\Local\Temp\ccdovRCu.s:28160  .debug_str:000000000001edf0 .LASF4627
C:\Users\SOLDER~1\AppData\Local\Temp\ccdovRCu.s:25486  .debug_str:000000000001406f .LASF4628
C:\Users\SOLDER~1\AppData\Local\Temp\ccdovRCu.s:22886  .debug_str:0000000000009641 .LASF4629
C:\Users\SOLDER~1\AppData\Local\Temp\ccdovRCu.s:28052  .debug_str:000000000001e65e .LASF4630
C:\Users\SOLDER~1\AppData\Local\Temp\ccdovRCu.s:29036  .debug_str:00000000000225ad .LASF4631
C:\Users\SOLDER~1\AppData\Local\Temp\ccdovRCu.s:27866  .debug_str:000000000001da94 .LASF4632
C:\Users\SOLDER~1\AppData\Local\Temp\ccdovRCu.s:31726  .debug_str:000000000002d5da .LASF4633
C:\Users\SOLDER~1\AppData\Local\Temp\ccdovRCu.s:29002  .debug_str:00000000000223cb .LASF4634
C:\Users\SOLDER~1\AppData\Local\Temp\ccdovRCu.s:20584  .debug_str:000000000000012c .LASF4635
C:\Users\SOLDER~1\AppData\Local\Temp\ccdovRCu.s:26276  .debug_str:0000000000017384 .LASF4636
C:\Users\SOLDER~1\AppData\Local\Temp\ccdovRCu.s:25358  .debug_str:000000000001376e .LASF4637
C:\Users\SOLDER~1\AppData\Local\Temp\ccdovRCu.s:25334  .debug_str:00000000000135ae .LASF4638
C:\Users\SOLDER~1\AppData\Local\Temp\ccdovRCu.s:25336  .debug_str:00000000000135df .LASF4639
C:\Users\SOLDER~1\AppData\Local\Temp\ccdovRCu.s:30932  .debug_str:000000000002a1d6 .LASF4640
C:\Users\SOLDER~1\AppData\Local\Temp\ccdovRCu.s:23640  .debug_str:000000000000c7f2 .LASF4641
C:\Users\SOLDER~1\AppData\Local\Temp\ccdovRCu.s:32148  .debug_str:000000000002f01d .LASF4642
C:\Users\SOLDER~1\AppData\Local\Temp\ccdovRCu.s:28990  .debug_str:0000000000022319 .LASF4643
C:\Users\SOLDER~1\AppData\Local\Temp\ccdovRCu.s:23858  .debug_str:000000000000d693 .LASF4644
C:\Users\SOLDER~1\AppData\Local\Temp\ccdovRCu.s:27974  .debug_str:000000000001e1a1 .LASF4645
C:\Users\SOLDER~1\AppData\Local\Temp\ccdovRCu.s:23894  .debug_str:000000000000d8f9 .LASF4646
GAS LISTING C:\Users\SOLDER~1\AppData\Local\Temp\ccdovRCu.s 			page 134


C:\Users\SOLDER~1\AppData\Local\Temp\ccdovRCu.s:27410  .debug_str:000000000001bc6a .LASF4647
C:\Users\SOLDER~1\AppData\Local\Temp\ccdovRCu.s:24472  .debug_str:000000000000fe83 .LASF4648
C:\Users\SOLDER~1\AppData\Local\Temp\ccdovRCu.s:23732  .debug_str:000000000000ce3d .LASF4649
C:\Users\SOLDER~1\AppData\Local\Temp\ccdovRCu.s:21016  .debug_str:0000000000001da7 .LASF4650
C:\Users\SOLDER~1\AppData\Local\Temp\ccdovRCu.s:23762  .debug_str:000000000000d025 .LASF4651
C:\Users\SOLDER~1\AppData\Local\Temp\ccdovRCu.s:27040  .debug_str:000000000001a4bb .LASF4652
C:\Users\SOLDER~1\AppData\Local\Temp\ccdovRCu.s:29272  .debug_str:000000000002355b .LASF4653
C:\Users\SOLDER~1\AppData\Local\Temp\ccdovRCu.s:25402  .debug_str:0000000000013a9b .LASF4654
C:\Users\SOLDER~1\AppData\Local\Temp\ccdovRCu.s:22600  .debug_str:000000000000838d .LASF4655
C:\Users\SOLDER~1\AppData\Local\Temp\ccdovRCu.s:27490  .debug_str:000000000001c193 .LASF4656
C:\Users\SOLDER~1\AppData\Local\Temp\ccdovRCu.s:24442  .debug_str:000000000000fc61 .LASF4657
C:\Users\SOLDER~1\AppData\Local\Temp\ccdovRCu.s:22992  .debug_str:0000000000009cf1 .LASF4658
C:\Users\SOLDER~1\AppData\Local\Temp\ccdovRCu.s:23710  .debug_str:000000000000ccc8 .LASF4659
C:\Users\SOLDER~1\AppData\Local\Temp\ccdovRCu.s:30892  .debug_str:0000000000029f31 .LASF4660
C:\Users\SOLDER~1\AppData\Local\Temp\ccdovRCu.s:27644  .debug_str:000000000001cc06 .LASF4661
C:\Users\SOLDER~1\AppData\Local\Temp\ccdovRCu.s:26960  .debug_str:0000000000019fb1 .LASF4662
C:\Users\SOLDER~1\AppData\Local\Temp\ccdovRCu.s:20572  .debug_str:0000000000000068 .LASF4663
C:\Users\SOLDER~1\AppData\Local\Temp\ccdovRCu.s:24946  .debug_str:0000000000011cb3 .LASF4664
C:\Users\SOLDER~1\AppData\Local\Temp\ccdovRCu.s:26824  .debug_str:0000000000019729 .LASF4665
C:\Users\SOLDER~1\AppData\Local\Temp\ccdovRCu.s:31448  .debug_str:000000000002c3fd .LASF4666
C:\Users\SOLDER~1\AppData\Local\Temp\ccdovRCu.s:20864  .debug_str:00000000000013f8 .LASF4667
C:\Users\SOLDER~1\AppData\Local\Temp\ccdovRCu.s:20658  .debug_str:00000000000005ef .LASF4668
C:\Users\SOLDER~1\AppData\Local\Temp\ccdovRCu.s:22176  .debug_str:0000000000006813 .LASF4669
C:\Users\SOLDER~1\AppData\Local\Temp\ccdovRCu.s:24038  .debug_str:000000000000e275 .LASF4670
C:\Users\SOLDER~1\AppData\Local\Temp\ccdovRCu.s:20994  .debug_str:0000000000001c67 .LASF4671
C:\Users\SOLDER~1\AppData\Local\Temp\ccdovRCu.s:20900  .debug_str:0000000000001649 .LASF4672
C:\Users\SOLDER~1\AppData\Local\Temp\ccdovRCu.s:28310  .debug_str:000000000001f7b8 .LASF4673
C:\Users\SOLDER~1\AppData\Local\Temp\ccdovRCu.s:26026  .debug_str:00000000000163cc .LASF4674
C:\Users\SOLDER~1\AppData\Local\Temp\ccdovRCu.s:21672  .debug_str:000000000000476e .LASF4675
C:\Users\SOLDER~1\AppData\Local\Temp\ccdovRCu.s:25096  .debug_str:000000000001263c .LASF4676
C:\Users\SOLDER~1\AppData\Local\Temp\ccdovRCu.s:24420  .debug_str:000000000000fad2 .LASF4677
C:\Users\SOLDER~1\AppData\Local\Temp\ccdovRCu.s:22550  .debug_str:000000000000804e .LASF4678
C:\Users\SOLDER~1\AppData\Local\Temp\ccdovRCu.s:29582  .debug_str:00000000000249a8 .LASF4679
C:\Users\SOLDER~1\AppData\Local\Temp\ccdovRCu.s:25662  .debug_str:0000000000014c5f .LASF4680
C:\Users\SOLDER~1\AppData\Local\Temp\ccdovRCu.s:21262  .debug_str:0000000000002d81 .LASF4681
C:\Users\SOLDER~1\AppData\Local\Temp\ccdovRCu.s:22182  .debug_str:000000000000689f .LASF4682
C:\Users\SOLDER~1\AppData\Local\Temp\ccdovRCu.s:20960  .debug_str:0000000000001a1f .LASF4683
C:\Users\SOLDER~1\AppData\Local\Temp\ccdovRCu.s:23606  .debug_str:000000000000c5a0 .LASF4684
C:\Users\SOLDER~1\AppData\Local\Temp\ccdovRCu.s:30888  .debug_str:0000000000029ef3 .LASF4685
C:\Users\SOLDER~1\AppData\Local\Temp\ccdovRCu.s:30354  .debug_str:0000000000027c7b .LASF4686
C:\Users\SOLDER~1\AppData\Local\Temp\ccdovRCu.s:27808  .debug_str:000000000001d715 .LASF4687
C:\Users\SOLDER~1\AppData\Local\Temp\ccdovRCu.s:30420  .debug_str:00000000000280f8 .LASF4688
C:\Users\SOLDER~1\AppData\Local\Temp\ccdovRCu.s:28396  .debug_str:000000000001fd5b .LASF4689
C:\Users\SOLDER~1\AppData\Local\Temp\ccdovRCu.s:29870  .debug_str:0000000000025c56 .LASF4690
C:\Users\SOLDER~1\AppData\Local\Temp\ccdovRCu.s:20840  .debug_str:0000000000001269 .LASF4691
C:\Users\SOLDER~1\AppData\Local\Temp\ccdovRCu.s:28248  .debug_str:000000000001f3b5 .LASF4692
C:\Users\SOLDER~1\AppData\Local\Temp\ccdovRCu.s:29112  .debug_str:0000000000022ad5 .LASF4693
C:\Users\SOLDER~1\AppData\Local\Temp\ccdovRCu.s:30682  .debug_str:00000000000291e9 .LASF4694
C:\Users\SOLDER~1\AppData\Local\Temp\ccdovRCu.s:27848  .debug_str:000000000001d97e .LASF4695
C:\Users\SOLDER~1\AppData\Local\Temp\ccdovRCu.s:20934  .debug_str:0000000000001855 .LASF4696
C:\Users\SOLDER~1\AppData\Local\Temp\ccdovRCu.s:25646  .debug_str:0000000000014b5b .LASF4697
C:\Users\SOLDER~1\AppData\Local\Temp\ccdovRCu.s:22452  .debug_str:00000000000079d9 .LASF4698
C:\Users\SOLDER~1\AppData\Local\Temp\ccdovRCu.s:31178  .debug_str:000000000002b1d0 .LASF4699
C:\Users\SOLDER~1\AppData\Local\Temp\ccdovRCu.s:27668  .debug_str:000000000001cdd1 .LASF4700
C:\Users\SOLDER~1\AppData\Local\Temp\ccdovRCu.s:22938  .debug_str:00000000000099be .LASF4701
C:\Users\SOLDER~1\AppData\Local\Temp\ccdovRCu.s:21252  .debug_str:0000000000002cd4 .LASF4702
C:\Users\SOLDER~1\AppData\Local\Temp\ccdovRCu.s:21204  .debug_str:0000000000002a02 .LASF4703
GAS LISTING C:\Users\SOLDER~1\AppData\Local\Temp\ccdovRCu.s 			page 135


C:\Users\SOLDER~1\AppData\Local\Temp\ccdovRCu.s:29586  .debug_str:00000000000249ee .LASF4704
C:\Users\SOLDER~1\AppData\Local\Temp\ccdovRCu.s:26464  .debug_str:0000000000017f92 .LASF4705
C:\Users\SOLDER~1\AppData\Local\Temp\ccdovRCu.s:30486  .debug_str:0000000000028556 .LASF4706
C:\Users\SOLDER~1\AppData\Local\Temp\ccdovRCu.s:24866  .debug_str:000000000001177c .LASF4707
C:\Users\SOLDER~1\AppData\Local\Temp\ccdovRCu.s:23382  .debug_str:000000000000b6e6 .LASF4708
C:\Users\SOLDER~1\AppData\Local\Temp\ccdovRCu.s:26542  .debug_str:00000000000184a1 .LASF4709
C:\Users\SOLDER~1\AppData\Local\Temp\ccdovRCu.s:27552  .debug_str:000000000001c5e7 .LASF4710
C:\Users\SOLDER~1\AppData\Local\Temp\ccdovRCu.s:28524  .debug_str:000000000002055d .LASF4711
C:\Users\SOLDER~1\AppData\Local\Temp\ccdovRCu.s:26398  .debug_str:0000000000017b58 .LASF4712
C:\Users\SOLDER~1\AppData\Local\Temp\ccdovRCu.s:27196  .debug_str:000000000001af4d .LASF4713
C:\Users\SOLDER~1\AppData\Local\Temp\ccdovRCu.s:24600  .debug_str:000000000001067c .LASF4714
C:\Users\SOLDER~1\AppData\Local\Temp\ccdovRCu.s:32056  .debug_str:000000000002ea65 .LASF4715
C:\Users\SOLDER~1\AppData\Local\Temp\ccdovRCu.s:31146  .debug_str:000000000002afe2 .LASF4716
C:\Users\SOLDER~1\AppData\Local\Temp\ccdovRCu.s:30234  .debug_str:00000000000274bf .LASF4717
C:\Users\SOLDER~1\AppData\Local\Temp\ccdovRCu.s:30670  .debug_str:0000000000029131 .LASF4718
C:\Users\SOLDER~1\AppData\Local\Temp\ccdovRCu.s:21312  .debug_str:00000000000030b6 .LASF4719
C:\Users\SOLDER~1\AppData\Local\Temp\ccdovRCu.s:24990  .debug_str:0000000000011f82 .LASF4720
C:\Users\SOLDER~1\AppData\Local\Temp\ccdovRCu.s:26754  .debug_str:0000000000019275 .LASF4721
C:\Users\SOLDER~1\AppData\Local\Temp\ccdovRCu.s:20756  .debug_str:0000000000000d57 .LASF4722
C:\Users\SOLDER~1\AppData\Local\Temp\ccdovRCu.s:28194  .debug_str:000000000001f021 .LASF4723
C:\Users\SOLDER~1\AppData\Local\Temp\ccdovRCu.s:22864  .debug_str:00000000000094e8 .LASF4724
C:\Users\SOLDER~1\AppData\Local\Temp\ccdovRCu.s:28240  .debug_str:000000000001f330 .LASF4725
C:\Users\SOLDER~1\AppData\Local\Temp\ccdovRCu.s:26842  .debug_str:000000000001988d .LASF4726
C:\Users\SOLDER~1\AppData\Local\Temp\ccdovRCu.s:30490  .debug_str:0000000000028590 .LASF4727
C:\Users\SOLDER~1\AppData\Local\Temp\ccdovRCu.s:22940  .debug_str:00000000000099d9 .LASF4728
C:\Users\SOLDER~1\AppData\Local\Temp\ccdovRCu.s:30124  .debug_str:0000000000026dc2 .LASF4729
C:\Users\SOLDER~1\AppData\Local\Temp\ccdovRCu.s:29092  .debug_str:000000000002297e .LASF4730
C:\Users\SOLDER~1\AppData\Local\Temp\ccdovRCu.s:31510  .debug_str:000000000002c7d8 .LASF4731
C:\Users\SOLDER~1\AppData\Local\Temp\ccdovRCu.s:29312  .debug_str:00000000000237f2 .LASF4732
C:\Users\SOLDER~1\AppData\Local\Temp\ccdovRCu.s:30350  .debug_str:0000000000027c3a .LASF4733
C:\Users\SOLDER~1\AppData\Local\Temp\ccdovRCu.s:30802  .debug_str:00000000000299c1 .LASF4734
C:\Users\SOLDER~1\AppData\Local\Temp\ccdovRCu.s:23356  .debug_str:000000000000b566 .LASF4735
C:\Users\SOLDER~1\AppData\Local\Temp\ccdovRCu.s:22052  .debug_str:0000000000005f76 .LASF4736
C:\Users\SOLDER~1\AppData\Local\Temp\ccdovRCu.s:21410  .debug_str:00000000000036de .LASF4737
C:\Users\SOLDER~1\AppData\Local\Temp\ccdovRCu.s:30274  .debug_str:0000000000027761 .LASF4738
C:\Users\SOLDER~1\AppData\Local\Temp\ccdovRCu.s:23950  .debug_str:000000000000dc43 .LASF4739
C:\Users\SOLDER~1\AppData\Local\Temp\ccdovRCu.s:21472  .debug_str:0000000000003aef .LASF4740
C:\Users\SOLDER~1\AppData\Local\Temp\ccdovRCu.s:21576  .debug_str:0000000000004176 .LASF4741
C:\Users\SOLDER~1\AppData\Local\Temp\ccdovRCu.s:29332  .debug_str:0000000000023949 .LASF4742
C:\Users\SOLDER~1\AppData\Local\Temp\ccdovRCu.s:29670  .debug_str:0000000000024f70 .LASF4743
C:\Users\SOLDER~1\AppData\Local\Temp\ccdovRCu.s:25226  .debug_str:0000000000012eb2 .LASF4744
C:\Users\SOLDER~1\AppData\Local\Temp\ccdovRCu.s:20992  .debug_str:0000000000001c41 .LASF4745
C:\Users\SOLDER~1\AppData\Local\Temp\ccdovRCu.s:29854  .debug_str:0000000000025b50 .LASF4746
C:\Users\SOLDER~1\AppData\Local\Temp\ccdovRCu.s:23884  .debug_str:000000000000d85e .LASF4747
C:\Users\SOLDER~1\AppData\Local\Temp\ccdovRCu.s:20836  .debug_str:0000000000001233 .LASF4748
C:\Users\SOLDER~1\AppData\Local\Temp\ccdovRCu.s:29306  .debug_str:000000000002379f .LASF4749
C:\Users\SOLDER~1\AppData\Local\Temp\ccdovRCu.s:31070  .debug_str:000000000002aae1 .LASF4750
C:\Users\SOLDER~1\AppData\Local\Temp\ccdovRCu.s:24318  .debug_str:000000000000f40d .LASF4751
C:\Users\SOLDER~1\AppData\Local\Temp\ccdovRCu.s:23508  .debug_str:000000000000beda .LASF4752
C:\Users\SOLDER~1\AppData\Local\Temp\ccdovRCu.s:29742  .debug_str:00000000000253fb .LASF4753
C:\Users\SOLDER~1\AppData\Local\Temp\ccdovRCu.s:26716  .debug_str:0000000000019008 .LASF4754
C:\Users\SOLDER~1\AppData\Local\Temp\ccdovRCu.s:20722  .debug_str:0000000000000aef .LASF4755
C:\Users\SOLDER~1\AppData\Local\Temp\ccdovRCu.s:32130  .debug_str:000000000002eefc .LASF4756
C:\Users\SOLDER~1\AppData\Local\Temp\ccdovRCu.s:29006  .debug_str:000000000002240f .LASF4757
C:\Users\SOLDER~1\AppData\Local\Temp\ccdovRCu.s:29480  .debug_str:00000000000242c8 .LASF4758
C:\Users\SOLDER~1\AppData\Local\Temp\ccdovRCu.s:21836  .debug_str:00000000000051a4 .LASF4759
C:\Users\SOLDER~1\AppData\Local\Temp\ccdovRCu.s:24338  .debug_str:000000000000f556 .LASF4760
GAS LISTING C:\Users\SOLDER~1\AppData\Local\Temp\ccdovRCu.s 			page 136


C:\Users\SOLDER~1\AppData\Local\Temp\ccdovRCu.s:29738  .debug_str:00000000000253c5 .LASF4761
C:\Users\SOLDER~1\AppData\Local\Temp\ccdovRCu.s:26712  .debug_str:0000000000018fc8 .LASF4762
C:\Users\SOLDER~1\AppData\Local\Temp\ccdovRCu.s:23586  .debug_str:000000000000c437 .LASF4763
C:\Users\SOLDER~1\AppData\Local\Temp\ccdovRCu.s:22850  .debug_str:00000000000093da .LASF4764
C:\Users\SOLDER~1\AppData\Local\Temp\ccdovRCu.s:22774  .debug_str:0000000000008eba .LASF4765
C:\Users\SOLDER~1\AppData\Local\Temp\ccdovRCu.s:25968  .debug_str:000000000001600b .LASF4766
C:\Users\SOLDER~1\AppData\Local\Temp\ccdovRCu.s:28268  .debug_str:000000000001f513 .LASF4767
C:\Users\SOLDER~1\AppData\Local\Temp\ccdovRCu.s:25168  .debug_str:0000000000012abb .LASF4768
C:\Users\SOLDER~1\AppData\Local\Temp\ccdovRCu.s:24518  .debug_str:000000000001013a .LASF4769
C:\Users\SOLDER~1\AppData\Local\Temp\ccdovRCu.s:28330  .debug_str:000000000001f929 .LASF4770
C:\Users\SOLDER~1\AppData\Local\Temp\ccdovRCu.s:24350  .debug_str:000000000000f610 .LASF4771
C:\Users\SOLDER~1\AppData\Local\Temp\ccdovRCu.s:24272  .debug_str:000000000000f14b .LASF4772
C:\Users\SOLDER~1\AppData\Local\Temp\ccdovRCu.s:21368  .debug_str:0000000000003469 .LASF4773
C:\Users\SOLDER~1\AppData\Local\Temp\ccdovRCu.s:29866  .debug_str:0000000000025c1a .LASF4774
C:\Users\SOLDER~1\AppData\Local\Temp\ccdovRCu.s:20884  .debug_str:0000000000001556 .LASF4775
C:\Users\SOLDER~1\AppData\Local\Temp\ccdovRCu.s:21498  .debug_str:0000000000003c8b .LASF4776
C:\Users\SOLDER~1\AppData\Local\Temp\ccdovRCu.s:28042  .debug_str:000000000001e5cc .LASF4777
C:\Users\SOLDER~1\AppData\Local\Temp\ccdovRCu.s:21902  .debug_str:0000000000005585 .LASF4778
C:\Users\SOLDER~1\AppData\Local\Temp\ccdovRCu.s:31154  .debug_str:000000000002b059 .LASF4779
C:\Users\SOLDER~1\AppData\Local\Temp\ccdovRCu.s:31422  .debug_str:000000000002c20e .LASF4780
C:\Users\SOLDER~1\AppData\Local\Temp\ccdovRCu.s:24110  .debug_str:000000000000e701 .LASF4781
C:\Users\SOLDER~1\AppData\Local\Temp\ccdovRCu.s:28270  .debug_str:000000000001f52f .LASF4782
C:\Users\SOLDER~1\AppData\Local\Temp\ccdovRCu.s:24010  .debug_str:000000000000e04e .LASF4783
C:\Users\SOLDER~1\AppData\Local\Temp\ccdovRCu.s:23420  .debug_str:000000000000b93d .LASF4784
C:\Users\SOLDER~1\AppData\Local\Temp\ccdovRCu.s:28662  .debug_str:0000000000020e34 .LASF4785
C:\Users\SOLDER~1\AppData\Local\Temp\ccdovRCu.s:21012  .debug_str:0000000000001d73 .LASF4786
C:\Users\SOLDER~1\AppData\Local\Temp\ccdovRCu.s:27164  .debug_str:000000000001acdf .LASF4787
C:\Users\SOLDER~1\AppData\Local\Temp\ccdovRCu.s:32046  .debug_str:000000000002e9c6 .LASF4788
C:\Users\SOLDER~1\AppData\Local\Temp\ccdovRCu.s:23116  .debug_str:000000000000a56b .LASF4789
C:\Users\SOLDER~1\AppData\Local\Temp\ccdovRCu.s:32072  .debug_str:000000000002eb77 .LASF4790
C:\Users\SOLDER~1\AppData\Local\Temp\ccdovRCu.s:21538  .debug_str:0000000000003f0d .LASF4791
C:\Users\SOLDER~1\AppData\Local\Temp\ccdovRCu.s:30196  .debug_str:000000000002725e .LASF4792
C:\Users\SOLDER~1\AppData\Local\Temp\ccdovRCu.s:30410  .debug_str:000000000002804e .LASF4793
C:\Users\SOLDER~1\AppData\Local\Temp\ccdovRCu.s:22680  .debug_str:0000000000008877 .LASF4794
C:\Users\SOLDER~1\AppData\Local\Temp\ccdovRCu.s:23126  .debug_str:000000000000a622 .LASF4795
C:\Users\SOLDER~1\AppData\Local\Temp\ccdovRCu.s:31088  .debug_str:000000000002abf0 .LASF4796
C:\Users\SOLDER~1\AppData\Local\Temp\ccdovRCu.s:26202  .debug_str:0000000000016e79 .LASF4797
C:\Users\SOLDER~1\AppData\Local\Temp\ccdovRCu.s:21396  .debug_str:00000000000035f1 .LASF4798
C:\Users\SOLDER~1\AppData\Local\Temp\ccdovRCu.s:23512  .debug_str:000000000000bf1b .LASF4799
C:\Users\SOLDER~1\AppData\Local\Temp\ccdovRCu.s:24616  .debug_str:0000000000010748 .LASF4800
C:\Users\SOLDER~1\AppData\Local\Temp\ccdovRCu.s:30760  .debug_str:00000000000296f6 .LASF4801
C:\Users\SOLDER~1\AppData\Local\Temp\ccdovRCu.s:22250  .debug_str:0000000000006cbd .LASF4802
C:\Users\SOLDER~1\AppData\Local\Temp\ccdovRCu.s:29048  .debug_str:0000000000022682 .LASF4803
C:\Users\SOLDER~1\AppData\Local\Temp\ccdovRCu.s:24432  .debug_str:000000000000fb9d .LASF4804
C:\Users\SOLDER~1\AppData\Local\Temp\ccdovRCu.s:28646  .debug_str:0000000000020d35 .LASF4805
C:\Users\SOLDER~1\AppData\Local\Temp\ccdovRCu.s:31638  .debug_str:000000000002cfc6 .LASF4806
C:\Users\SOLDER~1\AppData\Local\Temp\ccdovRCu.s:22098  .debug_str:00000000000062ad .LASF4807
C:\Users\SOLDER~1\AppData\Local\Temp\ccdovRCu.s:29642  .debug_str:0000000000024db6 .LASF4808
C:\Users\SOLDER~1\AppData\Local\Temp\ccdovRCu.s:22804  .debug_str:00000000000090c0 .LASF4809
C:\Users\SOLDER~1\AppData\Local\Temp\ccdovRCu.s:24446  .debug_str:000000000000fcbf .LASF4810
C:\Users\SOLDER~1\AppData\Local\Temp\ccdovRCu.s:27314  .debug_str:000000000001b695 .LASF4811
C:\Users\SOLDER~1\AppData\Local\Temp\ccdovRCu.s:31892  .debug_str:000000000002e04c .LASF4812
C:\Users\SOLDER~1\AppData\Local\Temp\ccdovRCu.s:31206  .debug_str:000000000002b3ef .LASF4813
C:\Users\SOLDER~1\AppData\Local\Temp\ccdovRCu.s:22622  .debug_str:00000000000084dc .LASF4814
C:\Users\SOLDER~1\AppData\Local\Temp\ccdovRCu.s:24744  .debug_str:0000000000010fb8 .LASF4815
C:\Users\SOLDER~1\AppData\Local\Temp\ccdovRCu.s:23810  .debug_str:000000000000d366 .LASF4816
C:\Users\SOLDER~1\AppData\Local\Temp\ccdovRCu.s:22746  .debug_str:0000000000008cb9 .LASF4817
GAS LISTING C:\Users\SOLDER~1\AppData\Local\Temp\ccdovRCu.s 			page 137


C:\Users\SOLDER~1\AppData\Local\Temp\ccdovRCu.s:21378  .debug_str:0000000000003502 .LASF4818
C:\Users\SOLDER~1\AppData\Local\Temp\ccdovRCu.s:20566  .debug_str:0000000000000000 .LASF4819
C:\Users\SOLDER~1\AppData\Local\Temp\ccdovRCu.s:28136  .debug_str:000000000001ec5b .LASF4820
C:\Users\SOLDER~1\AppData\Local\Temp\ccdovRCu.s:28792  .debug_str:000000000002167c .LASF4821
C:\Users\SOLDER~1\AppData\Local\Temp\ccdovRCu.s:31834  .debug_str:000000000002dc9d .LASF4822
C:\Users\SOLDER~1\AppData\Local\Temp\ccdovRCu.s:22780  .debug_str:0000000000008f19 .LASF4823
C:\Users\SOLDER~1\AppData\Local\Temp\ccdovRCu.s:21974  .debug_str:0000000000005a72 .LASF4824
C:\Users\SOLDER~1\AppData\Local\Temp\ccdovRCu.s:20732  .debug_str:0000000000000bae .LASF4825
C:\Users\SOLDER~1\AppData\Local\Temp\ccdovRCu.s:29230  .debug_str:0000000000023285 .LASF4826
C:\Users\SOLDER~1\AppData\Local\Temp\ccdovRCu.s:24152  .debug_str:000000000000e9ec .LASF4827
C:\Users\SOLDER~1\AppData\Local\Temp\ccdovRCu.s:26220  .debug_str:0000000000016fad .LASF4828
C:\Users\SOLDER~1\AppData\Local\Temp\ccdovRCu.s:26346  .debug_str:0000000000017810 .LASF4829
C:\Users\SOLDER~1\AppData\Local\Temp\ccdovRCu.s:21162  .debug_str:0000000000002720 .LASF4830
C:\Users\SOLDER~1\AppData\Local\Temp\ccdovRCu.s:25718  .debug_str:0000000000014fea .LASF4831
C:\Users\SOLDER~1\AppData\Local\Temp\ccdovRCu.s:30382  .debug_str:0000000000027e3f .LASF4832
C:\Users\SOLDER~1\AppData\Local\Temp\ccdovRCu.s:25902  .debug_str:0000000000015bda .LASF4833
C:\Users\SOLDER~1\AppData\Local\Temp\ccdovRCu.s:21394  .debug_str:00000000000035d9 .LASF4834
C:\Users\SOLDER~1\AppData\Local\Temp\ccdovRCu.s:28788  .debug_str:0000000000021642 .LASF4835
C:\Users\SOLDER~1\AppData\Local\Temp\ccdovRCu.s:25562  .debug_str:00000000000145b5 .LASF4836
C:\Users\SOLDER~1\AppData\Local\Temp\ccdovRCu.s:22658  .debug_str:000000000000873d .LASF4837
C:\Users\SOLDER~1\AppData\Local\Temp\ccdovRCu.s:24060  .debug_str:000000000000e400 .LASF4838
C:\Users\SOLDER~1\AppData\Local\Temp\ccdovRCu.s:28974  .debug_str:000000000002221f .LASF4839
C:\Users\SOLDER~1\AppData\Local\Temp\ccdovRCu.s:28710  .debug_str:000000000002113a .LASF4840
C:\Users\SOLDER~1\AppData\Local\Temp\ccdovRCu.s:27136  .debug_str:000000000001ab2b .LASF4841
C:\Users\SOLDER~1\AppData\Local\Temp\ccdovRCu.s:26162  .debug_str:0000000000016c3c .LASF4842
C:\Users\SOLDER~1\AppData\Local\Temp\ccdovRCu.s:21464  .debug_str:0000000000003a65 .LASF4843
C:\Users\SOLDER~1\AppData\Local\Temp\ccdovRCu.s:26192  .debug_str:0000000000016de9 .LASF4844
C:\Users\SOLDER~1\AppData\Local\Temp\ccdovRCu.s:30736  .debug_str:000000000002956d .LASF4845
C:\Users\SOLDER~1\AppData\Local\Temp\ccdovRCu.s:23932  .debug_str:000000000000db3a .LASF4846
C:\Users\SOLDER~1\AppData\Local\Temp\ccdovRCu.s:30524  .debug_str:00000000000287e1 .LASF4847
C:\Users\SOLDER~1\AppData\Local\Temp\ccdovRCu.s:30148  .debug_str:0000000000026f3e .LASF4848
C:\Users\SOLDER~1\AppData\Local\Temp\ccdovRCu.s:25370  .debug_str:0000000000013821 .LASF4849
C:\Users\SOLDER~1\AppData\Local\Temp\ccdovRCu.s:28546  .debug_str:00000000000206ee .LASF4850
C:\Users\SOLDER~1\AppData\Local\Temp\ccdovRCu.s:27112  .debug_str:000000000001a9b4 .LASF4852
C:\Users\SOLDER~1\AppData\Local\Temp\ccdovRCu.s:29028  .debug_str:0000000000022529 .LASF4853
C:\Users\SOLDER~1\AppData\Local\Temp\ccdovRCu.s:21290  .debug_str:0000000000002f64 .LASF4854
C:\Users\SOLDER~1\AppData\Local\Temp\ccdovRCu.s:25160  .debug_str:0000000000012a17 .LASF4855
C:\Users\SOLDER~1\AppData\Local\Temp\ccdovRCu.s:24068  .debug_str:000000000000e480 .LASF4856
C:\Users\SOLDER~1\AppData\Local\Temp\ccdovRCu.s:27324  .debug_str:000000000001b71f .LASF4857
C:\Users\SOLDER~1\AppData\Local\Temp\ccdovRCu.s:22586  .debug_str:00000000000082a1 .LASF4858
C:\Users\SOLDER~1\AppData\Local\Temp\ccdovRCu.s:23188  .debug_str:000000000000aa5e .LASF4859
C:\Users\SOLDER~1\AppData\Local\Temp\ccdovRCu.s:31096  .debug_str:000000000002ac80 .LASF4860
C:\Users\SOLDER~1\AppData\Local\Temp\ccdovRCu.s:21478  .debug_str:0000000000003b5a .LASF4861
C:\Users\SOLDER~1\AppData\Local\Temp\ccdovRCu.s:30112  .debug_str:0000000000026cfd .LASF4862
C:\Users\SOLDER~1\AppData\Local\Temp\ccdovRCu.s:28810  .debug_str:00000000000217d8 .LASF4863
C:\Users\SOLDER~1\AppData\Local\Temp\ccdovRCu.s:21612  .debug_str:000000000000439e .LASF4864
C:\Users\SOLDER~1\AppData\Local\Temp\ccdovRCu.s:25014  .debug_str:00000000000120e3 .LASF4865
C:\Users\SOLDER~1\AppData\Local\Temp\ccdovRCu.s:21444  .debug_str:0000000000003919 .LASF4866
C:\Users\SOLDER~1\AppData\Local\Temp\ccdovRCu.s:21632  .debug_str:00000000000044de .LASF4867
C:\Users\SOLDER~1\AppData\Local\Temp\ccdovRCu.s:24056  .debug_str:000000000000e3b3 .LASF4868
C:\Users\SOLDER~1\AppData\Local\Temp\ccdovRCu.s:30386  .debug_str:0000000000027e7f .LASF4869
C:\Users\SOLDER~1\AppData\Local\Temp\ccdovRCu.s:21656  .debug_str:0000000000004670 .LASF4870
C:\Users\SOLDER~1\AppData\Local\Temp\ccdovRCu.s:20706  .debug_str:00000000000009d0 .LASF4871
C:\Users\SOLDER~1\AppData\Local\Temp\ccdovRCu.s:28220  .debug_str:000000000001f1cb .LASF4872
C:\Users\SOLDER~1\AppData\Local\Temp\ccdovRCu.s:23412  .debug_str:000000000000b89f .LASF4873
C:\Users\SOLDER~1\AppData\Local\Temp\ccdovRCu.s:29790  .debug_str:00000000000256f5 .LASF4874
C:\Users\SOLDER~1\AppData\Local\Temp\ccdovRCu.s:31794  .debug_str:000000000002da1b .LASF4875
GAS LISTING C:\Users\SOLDER~1\AppData\Local\Temp\ccdovRCu.s 			page 138


C:\Users\SOLDER~1\AppData\Local\Temp\ccdovRCu.s:21152  .debug_str:0000000000002658 .LASF4876
C:\Users\SOLDER~1\AppData\Local\Temp\ccdovRCu.s:21652  .debug_str:0000000000004620 .LASF4877
C:\Users\SOLDER~1\AppData\Local\Temp\ccdovRCu.s:28672  .debug_str:0000000000020eb6 .LASF4878
C:\Users\SOLDER~1\AppData\Local\Temp\ccdovRCu.s:30856  .debug_str:0000000000029cd4 .LASF4879
C:\Users\SOLDER~1\AppData\Local\Temp\ccdovRCu.s:30370  .debug_str:0000000000027d6c .LASF4880
C:\Users\SOLDER~1\AppData\Local\Temp\ccdovRCu.s:30190  .debug_str:00000000000271eb .LASF4881
C:\Users\SOLDER~1\AppData\Local\Temp\ccdovRCu.s:30882  .debug_str:0000000000029e7c .LASF4882
C:\Users\SOLDER~1\AppData\Local\Temp\ccdovRCu.s:25556  .debug_str:000000000001454f .LASF4883
C:\Users\SOLDER~1\AppData\Local\Temp\ccdovRCu.s:30940  .debug_str:000000000002a270 .LASF4884
C:\Users\SOLDER~1\AppData\Local\Temp\ccdovRCu.s:28468  .debug_str:00000000000201c8 .LASF4885
C:\Users\SOLDER~1\AppData\Local\Temp\ccdovRCu.s:29556  .debug_str:00000000000247dc .LASF4886
C:\Users\SOLDER~1\AppData\Local\Temp\ccdovRCu.s:25190  .debug_str:0000000000012c3d .LASF4887
C:\Users\SOLDER~1\AppData\Local\Temp\ccdovRCu.s:21024  .debug_str:0000000000001e24 .LASF4888
C:\Users\SOLDER~1\AppData\Local\Temp\ccdovRCu.s:21852  .debug_str:000000000000529e .LASF4889
C:\Users\SOLDER~1\AppData\Local\Temp\ccdovRCu.s:28836  .debug_str:000000000002197b .LASF4890
C:\Users\SOLDER~1\AppData\Local\Temp\ccdovRCu.s:30074  .debug_str:0000000000026a67 .LASF4891
C:\Users\SOLDER~1\AppData\Local\Temp\ccdovRCu.s:24750  .debug_str:000000000001100d .LASF4892
C:\Users\SOLDER~1\AppData\Local\Temp\ccdovRCu.s:27966  .debug_str:000000000001e107 .LASF4893
C:\Users\SOLDER~1\AppData\Local\Temp\ccdovRCu.s:27274  .debug_str:000000000001b409 .LASF4894
C:\Users\SOLDER~1\AppData\Local\Temp\ccdovRCu.s:24624  .debug_str:00000000000107e1 .LASF4895
C:\Users\SOLDER~1\AppData\Local\Temp\ccdovRCu.s:31602  .debug_str:000000000002cd76 .LASF4896
C:\Users\SOLDER~1\AppData\Local\Temp\ccdovRCu.s:29898  .debug_str:0000000000025e3a .LASF4897
C:\Users\SOLDER~1\AppData\Local\Temp\ccdovRCu.s:23946  .debug_str:000000000000dc08 .LASF4898
C:\Users\SOLDER~1\AppData\Local\Temp\ccdovRCu.s:31856  .debug_str:000000000002de00 .LASF4899
C:\Users\SOLDER~1\AppData\Local\Temp\ccdovRCu.s:22338  .debug_str:00000000000072ce .LASF4900
C:\Users\SOLDER~1\AppData\Local\Temp\ccdovRCu.s:26714  .debug_str:0000000000018fe5 .LASF4901
C:\Users\SOLDER~1\AppData\Local\Temp\ccdovRCu.s:23680  .debug_str:000000000000cad8 .LASF4902
C:\Users\SOLDER~1\AppData\Local\Temp\ccdovRCu.s:29884  .debug_str:0000000000025d57 .LASF4903
C:\Users\SOLDER~1\AppData\Local\Temp\ccdovRCu.s:30276  .debug_str:0000000000027781 .LASF4904
C:\Users\SOLDER~1\AppData\Local\Temp\ccdovRCu.s:27884  .debug_str:000000000001db7e .LASF4905
C:\Users\SOLDER~1\AppData\Local\Temp\ccdovRCu.s:28342  .debug_str:000000000001f9ef .LASF4906
C:\Users\SOLDER~1\AppData\Local\Temp\ccdovRCu.s:28498  .debug_str:00000000000203ab .LASF4907
C:\Users\SOLDER~1\AppData\Local\Temp\ccdovRCu.s:29664  .debug_str:0000000000024f0e .LASF4908
C:\Users\SOLDER~1\AppData\Local\Temp\ccdovRCu.s:29032  .debug_str:000000000002256f .LASF4909
C:\Users\SOLDER~1\AppData\Local\Temp\ccdovRCu.s:22446  .debug_str:0000000000007967 .LASF4910
C:\Users\SOLDER~1\AppData\Local\Temp\ccdovRCu.s:23688  .debug_str:000000000000cb65 .LASF4911
C:\Users\SOLDER~1\AppData\Local\Temp\ccdovRCu.s:25938  .debug_str:0000000000015e1e .LASF4912
C:\Users\SOLDER~1\AppData\Local\Temp\ccdovRCu.s:29604  .debug_str:0000000000024b22 .LASF4913
C:\Users\SOLDER~1\AppData\Local\Temp\ccdovRCu.s:30492  .debug_str:00000000000285ac .LASF4914
C:\Users\SOLDER~1\AppData\Local\Temp\ccdovRCu.s:24826  .debug_str:000000000001150e .LASF4915
C:\Users\SOLDER~1\AppData\Local\Temp\ccdovRCu.s:20746  .debug_str:0000000000000ca0 .LASF4916
C:\Users\SOLDER~1\AppData\Local\Temp\ccdovRCu.s:27146  .debug_str:000000000001abb4 .LASF4917
C:\Users\SOLDER~1\AppData\Local\Temp\ccdovRCu.s:29422  .debug_str:0000000000023f00 .LASF4918
C:\Users\SOLDER~1\AppData\Local\Temp\ccdovRCu.s:29702  .debug_str:0000000000025187 .LASF4919
C:\Users\SOLDER~1\AppData\Local\Temp\ccdovRCu.s:25714  .debug_str:0000000000014fa2 .LASF4920
C:\Users\SOLDER~1\AppData\Local\Temp\ccdovRCu.s:29846  .debug_str:0000000000025acc .LASF4921
C:\Users\SOLDER~1\AppData\Local\Temp\ccdovRCu.s:30672  .debug_str:000000000002914d .LASF4922
C:\Users\SOLDER~1\AppData\Local\Temp\ccdovRCu.s:24136  .debug_str:000000000000e8c6 .LASF4923
C:\Users\SOLDER~1\AppData\Local\Temp\ccdovRCu.s:21574  .debug_str:0000000000004153 .LASF4924
C:\Users\SOLDER~1\AppData\Local\Temp\ccdovRCu.s:27290  .debug_str:000000000001b4f4 .LASF4925
C:\Users\SOLDER~1\AppData\Local\Temp\ccdovRCu.s:28466  .debug_str:00000000000201a5 .LASF4926
C:\Users\SOLDER~1\AppData\Local\Temp\ccdovRCu.s:24984  .debug_str:0000000000011f1a .LASF4927
C:\Users\SOLDER~1\AppData\Local\Temp\ccdovRCu.s:32014  .debug_str:000000000002e7b9 .LASF4928
C:\Users\SOLDER~1\AppData\Local\Temp\ccdovRCu.s:24106  .debug_str:000000000000e6c4 .LASF4929
C:\Users\SOLDER~1\AppData\Local\Temp\ccdovRCu.s:30884  .debug_str:0000000000029eab .LASF4930
C:\Users\SOLDER~1\AppData\Local\Temp\ccdovRCu.s:31694  .debug_str:000000000002d3c4 .LASF4931
C:\Users\SOLDER~1\AppData\Local\Temp\ccdovRCu.s:27718  .debug_str:000000000001d110 .LASF4932
GAS LISTING C:\Users\SOLDER~1\AppData\Local\Temp\ccdovRCu.s 			page 139


C:\Users\SOLDER~1\AppData\Local\Temp\ccdovRCu.s:31170  .debug_str:000000000002b139 .LASF4933
C:\Users\SOLDER~1\AppData\Local\Temp\ccdovRCu.s:27806  .debug_str:000000000001d6f0 .LASF4934
C:\Users\SOLDER~1\AppData\Local\Temp\ccdovRCu.s:28440  .debug_str:000000000002000a .LASF4935
C:\Users\SOLDER~1\AppData\Local\Temp\ccdovRCu.s:26726  .debug_str:00000000000190ae .LASF4936
C:\Users\SOLDER~1\AppData\Local\Temp\ccdovRCu.s:22454  .debug_str:00000000000079f4 .LASF4937
C:\Users\SOLDER~1\AppData\Local\Temp\ccdovRCu.s:25130  .debug_str:0000000000012856 .LASF4938
C:\Users\SOLDER~1\AppData\Local\Temp\ccdovRCu.s:25026  .debug_str:00000000000121a0 .LASF4939
C:\Users\SOLDER~1\AppData\Local\Temp\ccdovRCu.s:26070  .debug_str:0000000000016695 .LASF4940
C:\Users\SOLDER~1\AppData\Local\Temp\ccdovRCu.s:28074  .debug_str:000000000001e7e9 .LASF4941
C:\Users\SOLDER~1\AppData\Local\Temp\ccdovRCu.s:29724  .debug_str:00000000000252f5 .LASF4942
C:\Users\SOLDER~1\AppData\Local\Temp\ccdovRCu.s:29150  .debug_str:0000000000022d65 .LASF4943
C:\Users\SOLDER~1\AppData\Local\Temp\ccdovRCu.s:28574  .debug_str:00000000000208a8 .LASF4944
C:\Users\SOLDER~1\AppData\Local\Temp\ccdovRCu.s:28872  .debug_str:0000000000021bce .LASF4945
C:\Users\SOLDER~1\AppData\Local\Temp\ccdovRCu.s:24128  .debug_str:000000000000e83e .LASF4946
C:\Users\SOLDER~1\AppData\Local\Temp\ccdovRCu.s:25184  .debug_str:0000000000012bba .LASF4947
C:\Users\SOLDER~1\AppData\Local\Temp\ccdovRCu.s:25062  .debug_str:00000000000123db .LASF4948
C:\Users\SOLDER~1\AppData\Local\Temp\ccdovRCu.s:23804  .debug_str:000000000000d2fa .LASF4949
C:\Users\SOLDER~1\AppData\Local\Temp\ccdovRCu.s:30592  .debug_str:0000000000028c45 .LASF4950
C:\Users\SOLDER~1\AppData\Local\Temp\ccdovRCu.s:21112  .debug_str:00000000000023ed .LASF4951
C:\Users\SOLDER~1\AppData\Local\Temp\ccdovRCu.s:30460  .debug_str:00000000000283af .LASF4952
C:\Users\SOLDER~1\AppData\Local\Temp\ccdovRCu.s:25788  .debug_str:0000000000015453 .LASF4953
C:\Users\SOLDER~1\AppData\Local\Temp\ccdovRCu.s:23416  .debug_str:000000000000b8f1 .LASF4954
C:\Users\SOLDER~1\AppData\Local\Temp\ccdovRCu.s:24522  .debug_str:0000000000010174 .LASF4955
C:\Users\SOLDER~1\AppData\Local\Temp\ccdovRCu.s:31750  .debug_str:000000000002d764 .LASF4956
C:\Users\SOLDER~1\AppData\Local\Temp\ccdovRCu.s:25742  .debug_str:000000000001516c .LASF4957
C:\Users\SOLDER~1\AppData\Local\Temp\ccdovRCu.s:22112  .debug_str:00000000000063af .LASF4958
C:\Users\SOLDER~1\AppData\Local\Temp\ccdovRCu.s:27868  .debug_str:000000000001dab3 .LASF4959
C:\Users\SOLDER~1\AppData\Local\Temp\ccdovRCu.s:22986  .debug_str:0000000000009c98 .LASF4960
C:\Users\SOLDER~1\AppData\Local\Temp\ccdovRCu.s:27076  .debug_str:000000000001a724 .LASF4961
C:\Users\SOLDER~1\AppData\Local\Temp\ccdovRCu.s:24556  .debug_str:00000000000103af .LASF4962
C:\Users\SOLDER~1\AppData\Local\Temp\ccdovRCu.s:22976  .debug_str:0000000000009bf2 .LASF4963
C:\Users\SOLDER~1\AppData\Local\Temp\ccdovRCu.s:26044  .debug_str:00000000000164ff .LASF4964
C:\Users\SOLDER~1\AppData\Local\Temp\ccdovRCu.s:23316  .debug_str:000000000000b292 .LASF4965
C:\Users\SOLDER~1\AppData\Local\Temp\ccdovRCu.s:20916  .debug_str:000000000000176b .LASF4966
C:\Users\SOLDER~1\AppData\Local\Temp\ccdovRCu.s:23118  .debug_str:000000000000a585 .LASF4967
C:\Users\SOLDER~1\AppData\Local\Temp\ccdovRCu.s:23526  .debug_str:000000000000c010 .LASF4968
C:\Users\SOLDER~1\AppData\Local\Temp\ccdovRCu.s:26530  .debug_str:00000000000183d9 .LASF4969
C:\Users\SOLDER~1\AppData\Local\Temp\ccdovRCu.s:26672  .debug_str:0000000000018cef .LASF4970
C:\Users\SOLDER~1\AppData\Local\Temp\ccdovRCu.s:27124  .debug_str:000000000001aa77 .LASF4971
C:\Users\SOLDER~1\AppData\Local\Temp\ccdovRCu.s:21646  .debug_str:00000000000045c5 .LASF4972
C:\Users\SOLDER~1\AppData\Local\Temp\ccdovRCu.s:28304  .debug_str:000000000001f756 .LASF4973
C:\Users\SOLDER~1\AppData\Local\Temp\ccdovRCu.s:24936  .debug_str:0000000000011c18 .LASF4974
C:\Users\SOLDER~1\AppData\Local\Temp\ccdovRCu.s:20868  .debug_str:0000000000001442 .LASF4975
C:\Users\SOLDER~1\AppData\Local\Temp\ccdovRCu.s:21446  .debug_str:0000000000003941 .LASF4976
C:\Users\SOLDER~1\AppData\Local\Temp\ccdovRCu.s:24758  .debug_str:0000000000011097 .LASF4977
C:\Users\SOLDER~1\AppData\Local\Temp\ccdovRCu.s:21212  .debug_str:0000000000002a7a .LASF4978
C:\Users\SOLDER~1\AppData\Local\Temp\ccdovRCu.s:28278  .debug_str:000000000001f597 .LASF4979
C:\Users\SOLDER~1\AppData\Local\Temp\ccdovRCu.s:27596  .debug_str:000000000001c8ca .LASF4980
C:\Users\SOLDER~1\AppData\Local\Temp\ccdovRCu.s:32140  .debug_str:000000000002efa4 .LASF4981
C:\Users\SOLDER~1\AppData\Local\Temp\ccdovRCu.s:32092  .debug_str:000000000002ecc5 .LASF4982
C:\Users\SOLDER~1\AppData\Local\Temp\ccdovRCu.s:31026  .debug_str:000000000002a834 .LASF4983
C:\Users\SOLDER~1\AppData\Local\Temp\ccdovRCu.s:28320  .debug_str:000000000001f890 .LASF4984
C:\Users\SOLDER~1\AppData\Local\Temp\ccdovRCu.s:22860  .debug_str:00000000000094a2 .LASF4985
C:\Users\SOLDER~1\AppData\Local\Temp\ccdovRCu.s:28630  .debug_str:0000000000020c1a .LASF4986
C:\Users\SOLDER~1\AppData\Local\Temp\ccdovRCu.s:29142  .debug_str:0000000000022ccd .LASF4987
C:\Users\SOLDER~1\AppData\Local\Temp\ccdovRCu.s:30784  .debug_str:0000000000029895 .LASF4988
C:\Users\SOLDER~1\AppData\Local\Temp\ccdovRCu.s:25284  .debug_str:0000000000013267 .LASF4989
GAS LISTING C:\Users\SOLDER~1\AppData\Local\Temp\ccdovRCu.s 			page 140


C:\Users\SOLDER~1\AppData\Local\Temp\ccdovRCu.s:26404  .debug_str:0000000000017bb6 .LASF4990
C:\Users\SOLDER~1\AppData\Local\Temp\ccdovRCu.s:21310  .debug_str:0000000000003089 .LASF4991
C:\Users\SOLDER~1\AppData\Local\Temp\ccdovRCu.s:29168  .debug_str:0000000000022e94 .LASF4992
C:\Users\SOLDER~1\AppData\Local\Temp\ccdovRCu.s:31120  .debug_str:000000000002ae2a .LASF4993
C:\Users\SOLDER~1\AppData\Local\Temp\ccdovRCu.s:29464  .debug_str:00000000000241c3 .LASF4994
C:\Users\SOLDER~1\AppData\Local\Temp\ccdovRCu.s:24988  .debug_str:0000000000011f54 .LASF4995
C:\Users\SOLDER~1\AppData\Local\Temp\ccdovRCu.s:29528  .debug_str:00000000000245fd .LASF4996
C:\Users\SOLDER~1\AppData\Local\Temp\ccdovRCu.s:31288  .debug_str:000000000002b929 .LASF4997
C:\Users\SOLDER~1\AppData\Local\Temp\ccdovRCu.s:25450  .debug_str:0000000000013df9 .LASF4998
C:\Users\SOLDER~1\AppData\Local\Temp\ccdovRCu.s:23056  .debug_str:000000000000a173 .LASF4999
C:\Users\SOLDER~1\AppData\Local\Temp\ccdovRCu.s:30282  .debug_str:00000000000277d5 .LASF5000
C:\Users\SOLDER~1\AppData\Local\Temp\ccdovRCu.s:23236  .debug_str:000000000000ad63 .LASF5001
C:\Users\SOLDER~1\AppData\Local\Temp\ccdovRCu.s:29102  .debug_str:0000000000022a29 .LASF5002
C:\Users\SOLDER~1\AppData\Local\Temp\ccdovRCu.s:27522  .debug_str:000000000001c3cd .LASF5003
C:\Users\SOLDER~1\AppData\Local\Temp\ccdovRCu.s:24468  .debug_str:000000000000fe30 .LASF5004
C:\Users\SOLDER~1\AppData\Local\Temp\ccdovRCu.s:29288  .debug_str:0000000000023666 .LASF5005
C:\Users\SOLDER~1\AppData\Local\Temp\ccdovRCu.s:30388  .debug_str:0000000000027ea7 .LASF5006
C:\Users\SOLDER~1\AppData\Local\Temp\ccdovRCu.s:28104  .debug_str:000000000001ea0a .LASF5007
C:\Users\SOLDER~1\AppData\Local\Temp\ccdovRCu.s:26350  .debug_str:0000000000017857 .LASF5008
C:\Users\SOLDER~1\AppData\Local\Temp\ccdovRCu.s:25950  .debug_str:0000000000015ed1 .LASF5009
C:\Users\SOLDER~1\AppData\Local\Temp\ccdovRCu.s:29596  .debug_str:0000000000024a7d .LASF5010
C:\Users\SOLDER~1\AppData\Local\Temp\ccdovRCu.s:30466  .debug_str:0000000000028418 .LASF5011
C:\Users\SOLDER~1\AppData\Local\Temp\ccdovRCu.s:25516  .debug_str:0000000000014280 .LASF5012
C:\Users\SOLDER~1\AppData\Local\Temp\ccdovRCu.s:30504  .debug_str:0000000000028681 .LASF5013
C:\Users\SOLDER~1\AppData\Local\Temp\ccdovRCu.s:30844  .debug_str:0000000000029c1e .LASF5014
C:\Users\SOLDER~1\AppData\Local\Temp\ccdovRCu.s:25478  .debug_str:0000000000013fe1 .LASF5015
C:\Users\SOLDER~1\AppData\Local\Temp\ccdovRCu.s:29468  .debug_str:0000000000024216 .LASF5016
C:\Users\SOLDER~1\AppData\Local\Temp\ccdovRCu.s:25558  .debug_str:0000000000014582 .LASF5017
C:\Users\SOLDER~1\AppData\Local\Temp\ccdovRCu.s:26234  .debug_str:00000000000170a0 .LASF5018
C:\Users\SOLDER~1\AppData\Local\Temp\ccdovRCu.s:25826  .debug_str:00000000000156f0 .LASF5019
C:\Users\SOLDER~1\AppData\Local\Temp\ccdovRCu.s:26908  .debug_str:0000000000019c7d .LASF5020
C:\Users\SOLDER~1\AppData\Local\Temp\ccdovRCu.s:23660  .debug_str:000000000000c953 .LASF5021
C:\Users\SOLDER~1\AppData\Local\Temp\ccdovRCu.s:30216  .debug_str:0000000000027396 .LASF5022
C:\Users\SOLDER~1\AppData\Local\Temp\ccdovRCu.s:31246  .debug_str:000000000002b674 .LASF5023
C:\Users\SOLDER~1\AppData\Local\Temp\ccdovRCu.s:28518  .debug_str:00000000000204f4 .LASF5024
C:\Users\SOLDER~1\AppData\Local\Temp\ccdovRCu.s:25276  .debug_str:00000000000131ca .LASF5025
C:\Users\SOLDER~1\AppData\Local\Temp\ccdovRCu.s:24980  .debug_str:0000000000011ecb .LASF5026
C:\Users\SOLDER~1\AppData\Local\Temp\ccdovRCu.s:28510  .debug_str:000000000002046f .LASF5027
C:\Users\SOLDER~1\AppData\Local\Temp\ccdovRCu.s:25622  .debug_str:000000000001499c .LASF5028
C:\Users\SOLDER~1\AppData\Local\Temp\ccdovRCu.s:27198  .debug_str:000000000001af69 .LASF5029
C:\Users\SOLDER~1\AppData\Local\Temp\ccdovRCu.s:27782  .debug_str:000000000001d581 .LASF5030
C:\Users\SOLDER~1\AppData\Local\Temp\ccdovRCu.s:30106  .debug_str:0000000000026c88 .LASF5031
C:\Users\SOLDER~1\AppData\Local\Temp\ccdovRCu.s:28314  .debug_str:000000000001f82c .LASF5032
C:\Users\SOLDER~1\AppData\Local\Temp\ccdovRCu.s:21104  .debug_str:0000000000002353 .LASF5033
C:\Users\SOLDER~1\AppData\Local\Temp\ccdovRCu.s:20856  .debug_str:0000000000001373 .LASF5034
C:\Users\SOLDER~1\AppData\Local\Temp\ccdovRCu.s:30242  .debug_str:000000000002755b .LASF5035
C:\Users\SOLDER~1\AppData\Local\Temp\ccdovRCu.s:31306  .debug_str:000000000002ba58 .LASF5036
C:\Users\SOLDER~1\AppData\Local\Temp\ccdovRCu.s:21982  .debug_str:0000000000005b06 .LASF5037
C:\Users\SOLDER~1\AppData\Local\Temp\ccdovRCu.s:25936  .debug_str:0000000000015df8 .LASF5038
C:\Users\SOLDER~1\AppData\Local\Temp\ccdovRCu.s:27222  .debug_str:000000000001b0f7 .LASF5039
C:\Users\SOLDER~1\AppData\Local\Temp\ccdovRCu.s:26208  .debug_str:0000000000016ed7 .LASF5040
C:\Users\SOLDER~1\AppData\Local\Temp\ccdovRCu.s:26540  .debug_str:000000000001847f .LASF5041
C:\Users\SOLDER~1\AppData\Local\Temp\ccdovRCu.s:25196  .debug_str:0000000000012cb7 .LASF5042
C:\Users\SOLDER~1\AppData\Local\Temp\ccdovRCu.s:30828  .debug_str:0000000000029b44 .LASF5043
C:\Users\SOLDER~1\AppData\Local\Temp\ccdovRCu.s:28888  .debug_str:0000000000021cd9 .LASF5044
C:\Users\SOLDER~1\AppData\Local\Temp\ccdovRCu.s:28924  .debug_str:0000000000021eed .LASF5045
C:\Users\SOLDER~1\AppData\Local\Temp\ccdovRCu.s:30240  .debug_str:000000000002752a .LASF5046
GAS LISTING C:\Users\SOLDER~1\AppData\Local\Temp\ccdovRCu.s 			page 141


C:\Users\SOLDER~1\AppData\Local\Temp\ccdovRCu.s:32120  .debug_str:000000000002ee6e .LASF5047
C:\Users\SOLDER~1\AppData\Local\Temp\ccdovRCu.s:32052  .debug_str:000000000002ea22 .LASF5048
C:\Users\SOLDER~1\AppData\Local\Temp\ccdovRCu.s:26170  .debug_str:0000000000016cb9 .LASF5049
C:\Users\SOLDER~1\AppData\Local\Temp\ccdovRCu.s:25570  .debug_str:0000000000014640 .LASF5050
C:\Users\SOLDER~1\AppData\Local\Temp\ccdovRCu.s:25408  .debug_str:0000000000013b21 .LASF5051
C:\Users\SOLDER~1\AppData\Local\Temp\ccdovRCu.s:30290  .debug_str:0000000000027868 .LASF5052
C:\Users\SOLDER~1\AppData\Local\Temp\ccdovRCu.s:26480  .debug_str:0000000000018098 .LASF5053
C:\Users\SOLDER~1\AppData\Local\Temp\ccdovRCu.s:20878  .debug_str:00000000000014f9 .LASF5054
C:\Users\SOLDER~1\AppData\Local\Temp\ccdovRCu.s:28592  .debug_str:00000000000209db .LASF5055
C:\Users\SOLDER~1\AppData\Local\Temp\ccdovRCu.s:28374  .debug_str:000000000001fbfb .LASF5056
C:\Users\SOLDER~1\AppData\Local\Temp\ccdovRCu.s:23268  .debug_str:000000000000afaa .LASF5057
C:\Users\SOLDER~1\AppData\Local\Temp\ccdovRCu.s:30176  .debug_str:00000000000270f3 .LASF5058
C:\Users\SOLDER~1\AppData\Local\Temp\ccdovRCu.s:29064  .debug_str:000000000002279c .LASF5059
C:\Users\SOLDER~1\AppData\Local\Temp\ccdovRCu.s:25770  .debug_str:0000000000015332 .LASF5060
C:\Users\SOLDER~1\AppData\Local\Temp\ccdovRCu.s:29924  .debug_str:0000000000026009 .LASF5061
C:\Users\SOLDER~1\AppData\Local\Temp\ccdovRCu.s:24792  .debug_str:00000000000112ba .LASF5062
C:\Users\SOLDER~1\AppData\Local\Temp\ccdovRCu.s:31822  .debug_str:000000000002dbf0 .LASF5063
C:\Users\SOLDER~1\AppData\Local\Temp\ccdovRCu.s:32034  .debug_str:000000000002e8fe .LASF5064
C:\Users\SOLDER~1\AppData\Local\Temp\ccdovRCu.s:29194  .debug_str:000000000002303d .LASF5065
C:\Users\SOLDER~1\AppData\Local\Temp\ccdovRCu.s:30712  .debug_str:00000000000293cb .LASF5066
C:\Users\SOLDER~1\AppData\Local\Temp\ccdovRCu.s:26762  .debug_str:00000000000192f0 .LASF5067
C:\Users\SOLDER~1\AppData\Local\Temp\ccdovRCu.s:27514  .debug_str:000000000001c33e .LASF5068
C:\Users\SOLDER~1\AppData\Local\Temp\ccdovRCu.s:22750  .debug_str:0000000000008d03 .LASF5069
C:\Users\SOLDER~1\AppData\Local\Temp\ccdovRCu.s:28438  .debug_str:000000000001ffe7 .LASF5070
C:\Users\SOLDER~1\AppData\Local\Temp\ccdovRCu.s:30560  .debug_str:0000000000028a30 .LASF5071
C:\Users\SOLDER~1\AppData\Local\Temp\ccdovRCu.s:28734  .debug_str:00000000000212d9 .LASF5072
C:\Users\SOLDER~1\AppData\Local\Temp\ccdovRCu.s:20852  .debug_str:000000000000131a .LASF5073
C:\Users\SOLDER~1\AppData\Local\Temp\ccdovRCu.s:20570  .debug_str:0000000000000044 .LASF5074
C:\Users\SOLDER~1\AppData\Local\Temp\ccdovRCu.s:27364  .debug_str:000000000001b9ad .LASF5075
C:\Users\SOLDER~1\AppData\Local\Temp\ccdovRCu.s:31788  .debug_str:000000000002d9b2 .LASF5076
C:\Users\SOLDER~1\AppData\Local\Temp\ccdovRCu.s:20600  .debug_str:0000000000000216 .LASF5077
C:\Users\SOLDER~1\AppData\Local\Temp\ccdovRCu.s:22978  .debug_str:0000000000009c11 .LASF5078
C:\Users\SOLDER~1\AppData\Local\Temp\ccdovRCu.s:32160  .debug_str:000000000002f0d8 .LASF5079
C:\Users\SOLDER~1\AppData\Local\Temp\ccdovRCu.s:25006  .debug_str:000000000001205d .LASF5080
C:\Users\SOLDER~1\AppData\Local\Temp\ccdovRCu.s:26674  .debug_str:0000000000018d0e .LASF5081
C:\Users\SOLDER~1\AppData\Local\Temp\ccdovRCu.s:22500  .debug_str:0000000000007d02 .LASF5082
C:\Users\SOLDER~1\AppData\Local\Temp\ccdovRCu.s:22510  .debug_str:0000000000007da4 .LASF5083
C:\Users\SOLDER~1\AppData\Local\Temp\ccdovRCu.s:28158  .debug_str:000000000001edcb .LASF5084
C:\Users\SOLDER~1\AppData\Local\Temp\ccdovRCu.s:31782  .debug_str:000000000002d948 .LASF5085
C:\Users\SOLDER~1\AppData\Local\Temp\ccdovRCu.s:24698  .debug_str:0000000000010cb4 .LASF5086
C:\Users\SOLDER~1\AppData\Local\Temp\ccdovRCu.s:22816  .debug_str:00000000000091ab .LASF5087
C:\Users\SOLDER~1\AppData\Local\Temp\ccdovRCu.s:25454  .debug_str:0000000000013e51 .LASF5088
C:\Users\SOLDER~1\AppData\Local\Temp\ccdovRCu.s:28564  .debug_str:00000000000207ee .LASF5089
C:\Users\SOLDER~1\AppData\Local\Temp\ccdovRCu.s:26048  .debug_str:0000000000016537 .LASF5090
C:\Users\SOLDER~1\AppData\Local\Temp\ccdovRCu.s:24426  .debug_str:000000000000fb3c .LASF5091
C:\Users\SOLDER~1\AppData\Local\Temp\ccdovRCu.s:32100  .debug_str:000000000002ed37 .LASF5092
C:\Users\SOLDER~1\AppData\Local\Temp\ccdovRCu.s:28844  .debug_str:00000000000219e8 .LASF5093
C:\Users\SOLDER~1\AppData\Local\Temp\ccdovRCu.s:28184  .debug_str:000000000001ef73 .LASF5094
C:\Users\SOLDER~1\AppData\Local\Temp\ccdovRCu.s:21280  .debug_str:0000000000002ea7 .LASF5095
C:\Users\SOLDER~1\AppData\Local\Temp\ccdovRCu.s:24796  .debug_str:00000000000112ff .LASF5096
C:\Users\SOLDER~1\AppData\Local\Temp\ccdovRCu.s:27958  .debug_str:000000000001e073 .LASF5097
C:\Users\SOLDER~1\AppData\Local\Temp\ccdovRCu.s:25686  .debug_str:0000000000014df8 .LASF5098
C:\Users\SOLDER~1\AppData\Local\Temp\ccdovRCu.s:29804  .debug_str:00000000000257e0 .LASF5099
C:\Users\SOLDER~1\AppData\Local\Temp\ccdovRCu.s:27466  .debug_str:000000000001c004 .LASF5100
C:\Users\SOLDER~1\AppData\Local\Temp\ccdovRCu.s:23878  .debug_str:000000000000d7d9 .LASF5101
C:\Users\SOLDER~1\AppData\Local\Temp\ccdovRCu.s:22068  .debug_str:00000000000060a6 .LASF5102
C:\Users\SOLDER~1\AppData\Local\Temp\ccdovRCu.s:31324  .debug_str:000000000002bb82 .LASF5103
GAS LISTING C:\Users\SOLDER~1\AppData\Local\Temp\ccdovRCu.s 			page 142


C:\Users\SOLDER~1\AppData\Local\Temp\ccdovRCu.s:20854  .debug_str:000000000000133d .LASF5104
C:\Users\SOLDER~1\AppData\Local\Temp\ccdovRCu.s:23672  .debug_str:000000000000ca27 .LASF5105
C:\Users\SOLDER~1\AppData\Local\Temp\ccdovRCu.s:30230  .debug_str:000000000002746f .LASF5106
C:\Users\SOLDER~1\AppData\Local\Temp\ccdovRCu.s:27110  .debug_str:000000000001a974 .LASF5107
C:\Users\SOLDER~1\AppData\Local\Temp\ccdovRCu.s:23130  .debug_str:000000000000a664 .LASF5108
C:\Users\SOLDER~1\AppData\Local\Temp\ccdovRCu.s:21130  .debug_str:0000000000002518 .LASF5109
C:\Users\SOLDER~1\AppData\Local\Temp\ccdovRCu.s:27182  .debug_str:000000000001ae4b .LASF5110
C:\Users\SOLDER~1\AppData\Local\Temp\ccdovRCu.s:29900  .debug_str:0000000000025e5d .LASF5111
C:\Users\SOLDER~1\AppData\Local\Temp\ccdovRCu.s:22806  .debug_str:00000000000090e5 .LASF5112
C:\Users\SOLDER~1\AppData\Local\Temp\ccdovRCu.s:29988  .debug_str:0000000000026486 .LASF5113
C:\Users\SOLDER~1\AppData\Local\Temp\ccdovRCu.s:21834  .debug_str:000000000000516c .LASF5114
C:\Users\SOLDER~1\AppData\Local\Temp\ccdovRCu.s:20728  .debug_str:0000000000000b50 .LASF5115
C:\Users\SOLDER~1\AppData\Local\Temp\ccdovRCu.s:23676  .debug_str:000000000000ca81 .LASF5116
C:\Users\SOLDER~1\AppData\Local\Temp\ccdovRCu.s:24958  .debug_str:0000000000011d94 .LASF5117
C:\Users\SOLDER~1\AppData\Local\Temp\ccdovRCu.s:26112  .debug_str:00000000000168fe .LASF5118
C:\Users\SOLDER~1\AppData\Local\Temp\ccdovRCu.s:22120  .debug_str:0000000000006437 .LASF5119
C:\Users\SOLDER~1\AppData\Local\Temp\ccdovRCu.s:30456  .debug_str:0000000000028363 .LASF5120
C:\Users\SOLDER~1\AppData\Local\Temp\ccdovRCu.s:29124  .debug_str:0000000000022bb2 .LASF5121
C:\Users\SOLDER~1\AppData\Local\Temp\ccdovRCu.s:25374  .debug_str:000000000001385b .LASF5122
C:\Users\SOLDER~1\AppData\Local\Temp\ccdovRCu.s:28812  .debug_str:0000000000021800 .LASF5123
C:\Users\SOLDER~1\AppData\Local\Temp\ccdovRCu.s:29592  .debug_str:0000000000024a4a .LASF5124
C:\Users\SOLDER~1\AppData\Local\Temp\ccdovRCu.s:27636  .debug_str:000000000001cb7e .LASF5125
C:\Users\SOLDER~1\AppData\Local\Temp\ccdovRCu.s:26128  .debug_str:0000000000016a04 .LASF5126
C:\Users\SOLDER~1\AppData\Local\Temp\ccdovRCu.s:29442  .debug_str:0000000000024058 .LASF5127
C:\Users\SOLDER~1\AppData\Local\Temp\ccdovRCu.s:31746  .debug_str:000000000002d722 .LASF5128
C:\Users\SOLDER~1\AppData\Local\Temp\ccdovRCu.s:27006  .debug_str:000000000001a2b8 .LASF5129
C:\Users\SOLDER~1\AppData\Local\Temp\ccdovRCu.s:27336  .debug_str:000000000001b7f4 .LASF5130
C:\Users\SOLDER~1\AppData\Local\Temp\ccdovRCu.s:28594  .debug_str:00000000000209fc .LASF5131
C:\Users\SOLDER~1\AppData\Local\Temp\ccdovRCu.s:27402  .debug_str:000000000001bbe8 .LASF5132
C:\Users\SOLDER~1\AppData\Local\Temp\ccdovRCu.s:26222  .debug_str:0000000000016fcf .LASF5133
C:\Users\SOLDER~1\AppData\Local\Temp\ccdovRCu.s:29838  .debug_str:0000000000025a24 .LASF5134
C:\Users\SOLDER~1\AppData\Local\Temp\ccdovRCu.s:23428  .debug_str:000000000000b9c9 .LASF5135
C:\Users\SOLDER~1\AppData\Local\Temp\ccdovRCu.s:24884  .debug_str:00000000000118b8 .LASF5136
C:\Users\SOLDER~1\AppData\Local\Temp\ccdovRCu.s:25344  .debug_str:000000000001367f .LASF5137
C:\Users\SOLDER~1\AppData\Local\Temp\ccdovRCu.s:23200  .debug_str:000000000000ab40 .LASF5138
C:\Users\SOLDER~1\AppData\Local\Temp\ccdovRCu.s:23576  .debug_str:000000000000c36e .LASF5139
C:\Users\SOLDER~1\AppData\Local\Temp\ccdovRCu.s:22710  .debug_str:0000000000008a80 .LASF5140
C:\Users\SOLDER~1\AppData\Local\Temp\ccdovRCu.s:22588  .debug_str:00000000000082d2 .LASF5141
C:\Users\SOLDER~1\AppData\Local\Temp\ccdovRCu.s:21600  .debug_str:00000000000042df .LASF5142
C:\Users\SOLDER~1\AppData\Local\Temp\ccdovRCu.s:23834  .debug_str:000000000000d507 .LASF5143
C:\Users\SOLDER~1\AppData\Local\Temp\ccdovRCu.s:28634  .debug_str:0000000000020c5f .LASF5144
C:\Users\SOLDER~1\AppData\Local\Temp\ccdovRCu.s:24314  .debug_str:000000000000f3db .LASF5145
C:\Users\SOLDER~1\AppData\Local\Temp\ccdovRCu.s:21352  .debug_str:0000000000003343 .LASF5146
C:\Users\SOLDER~1\AppData\Local\Temp\ccdovRCu.s:31086  .debug_str:000000000002abce .LASF5147
C:\Users\SOLDER~1\AppData\Local\Temp\ccdovRCu.s:24620  .debug_str:0000000000010796 .LASF5148
C:\Users\SOLDER~1\AppData\Local\Temp\ccdovRCu.s:30900  .debug_str:0000000000029fca .LASF5149
C:\Users\SOLDER~1\AppData\Local\Temp\ccdovRCu.s:24392  .debug_str:000000000000f8d3 .LASF5150
C:\Users\SOLDER~1\AppData\Local\Temp\ccdovRCu.s:21124  .debug_str:00000000000024b5 .LASF5151
C:\Users\SOLDER~1\AppData\Local\Temp\ccdovRCu.s:27022  .debug_str:000000000001a3a3 .LASF5152
C:\Users\SOLDER~1\AppData\Local\Temp\ccdovRCu.s:21402  .debug_str:0000000000003657 .LASF5153
C:\Users\SOLDER~1\AppData\Local\Temp\ccdovRCu.s:21806  .debug_str:0000000000004fd4 .LASF5154
C:\Users\SOLDER~1\AppData\Local\Temp\ccdovRCu.s:30986  .debug_str:000000000002a5ab .LASF5155
C:\Users\SOLDER~1\AppData\Local\Temp\ccdovRCu.s:20616  .debug_str:000000000000033e .LASF5156
C:\Users\SOLDER~1\AppData\Local\Temp\ccdovRCu.s:22310  .debug_str:000000000000710d .LASF5157
C:\Users\SOLDER~1\AppData\Local\Temp\ccdovRCu.s:31222  .debug_str:000000000002b50e .LASF5158
C:\Users\SOLDER~1\AppData\Local\Temp\ccdovRCu.s:23196  .debug_str:000000000000aafe .LASF5159
C:\Users\SOLDER~1\AppData\Local\Temp\ccdovRCu.s:29992  .debug_str:00000000000264da .LASF5160
GAS LISTING C:\Users\SOLDER~1\AppData\Local\Temp\ccdovRCu.s 			page 143


C:\Users\SOLDER~1\AppData\Local\Temp\ccdovRCu.s:31354  .debug_str:000000000002bd7e .LASF5161
C:\Users\SOLDER~1\AppData\Local\Temp\ccdovRCu.s:24566  .debug_str:000000000001045e .LASF5162
C:\Users\SOLDER~1\AppData\Local\Temp\ccdovRCu.s:23580  .debug_str:000000000000c3c1 .LASF5163
C:\Users\SOLDER~1\AppData\Local\Temp\ccdovRCu.s:29650  .debug_str:0000000000024e25 .LASF5164
C:\Users\SOLDER~1\AppData\Local\Temp\ccdovRCu.s:26882  .debug_str:0000000000019aba .LASF5165
C:\Users\SOLDER~1\AppData\Local\Temp\ccdovRCu.s:24120  .debug_str:000000000000e7b3 .LASF5166
C:\Users\SOLDER~1\AppData\Local\Temp\ccdovRCu.s:24892  .debug_str:0000000000011942 .LASF5167
C:\Users\SOLDER~1\AppData\Local\Temp\ccdovRCu.s:24816  .debug_str:0000000000011438 .LASF5168
C:\Users\SOLDER~1\AppData\Local\Temp\ccdovRCu.s:27696  .debug_str:000000000001cfb3 .LASF5169
C:\Users\SOLDER~1\AppData\Local\Temp\ccdovRCu.s:26418  .debug_str:0000000000017c73 .LASF5170
C:\Users\SOLDER~1\AppData\Local\Temp\ccdovRCu.s:22486  .debug_str:0000000000007c0d .LASF5171
C:\Users\SOLDER~1\AppData\Local\Temp\ccdovRCu.s:31940  .debug_str:000000000002e345 .LASF5172
C:\Users\SOLDER~1\AppData\Local\Temp\ccdovRCu.s:22828  .debug_str:0000000000009260 .LASF5173
C:\Users\SOLDER~1\AppData\Local\Temp\ccdovRCu.s:20862  .debug_str:00000000000013d1 .LASF5174
C:\Users\SOLDER~1\AppData\Local\Temp\ccdovRCu.s:25914  .debug_str:0000000000015c90 .LASF5175
C:\Users\SOLDER~1\AppData\Local\Temp\ccdovRCu.s:30164  .debug_str:0000000000027025 .LASF5176
C:\Users\SOLDER~1\AppData\Local\Temp\ccdovRCu.s:21566  .debug_str:00000000000040bb .LASF5177
C:\Users\SOLDER~1\AppData\Local\Temp\ccdovRCu.s:30402  .debug_str:0000000000027fb9 .LASF5178
C:\Users\SOLDER~1\AppData\Local\Temp\ccdovRCu.s:20948  .debug_str:000000000000194c .LASF5179
C:\Users\SOLDER~1\AppData\Local\Temp\ccdovRCu.s:29050  .debug_str:00000000000226a8 .LASF5180
C:\Users\SOLDER~1\AppData\Local\Temp\ccdovRCu.s:27000  .debug_str:000000000001a252 .LASF5181
C:\Users\SOLDER~1\AppData\Local\Temp\ccdovRCu.s:27772  .debug_str:000000000001d4c3 .LASF5182
C:\Users\SOLDER~1\AppData\Local\Temp\ccdovRCu.s:23210  .debug_str:000000000000abc3 .LASF5183
C:\Users\SOLDER~1\AppData\Local\Temp\ccdovRCu.s:20704  .debug_str:00000000000009aa .LASF5184
C:\Users\SOLDER~1\AppData\Local\Temp\ccdovRCu.s:28146  .debug_str:000000000001ed0c .LASF5185
C:\Users\SOLDER~1\AppData\Local\Temp\ccdovRCu.s:30948  .debug_str:000000000002a2f7 .LASF5186
C:\Users\SOLDER~1\AppData\Local\Temp\ccdovRCu.s:26362  .debug_str:0000000000017915 .LASF5187
C:\Users\SOLDER~1\AppData\Local\Temp\ccdovRCu.s:24532  .debug_str:0000000000010225 .LASF5188
C:\Users\SOLDER~1\AppData\Local\Temp\ccdovRCu.s:21274  .debug_str:0000000000002e4a .LASF5189
C:\Users\SOLDER~1\AppData\Local\Temp\ccdovRCu.s:22420  .debug_str:00000000000077b9 .LASF5190
C:\Users\SOLDER~1\AppData\Local\Temp\ccdovRCu.s:27930  .debug_str:000000000001de87 .LASF5191
C:\Users\SOLDER~1\AppData\Local\Temp\ccdovRCu.s:22520  .debug_str:0000000000007e45 .LASF5192
C:\Users\SOLDER~1\AppData\Local\Temp\ccdovRCu.s:27588  .debug_str:000000000001c847 .LASF5193
C:\Users\SOLDER~1\AppData\Local\Temp\ccdovRCu.s:21344  .debug_str:00000000000032c3 .LASF5194
C:\Users\SOLDER~1\AppData\Local\Temp\ccdovRCu.s:21954  .debug_str:0000000000005927 .LASF5195
C:\Users\SOLDER~1\AppData\Local\Temp\ccdovRCu.s:31702  .debug_str:000000000002d450 .LASF5196
C:\Users\SOLDER~1\AppData\Local\Temp\ccdovRCu.s:21362  .debug_str:00000000000033fb .LASF5197
C:\Users\SOLDER~1\AppData\Local\Temp\ccdovRCu.s:31498  .debug_str:000000000002c728 .LASF5198
C:\Users\SOLDER~1\AppData\Local\Temp\ccdovRCu.s:24260  .debug_str:000000000000f09a .LASF5199
C:\Users\SOLDER~1\AppData\Local\Temp\ccdovRCu.s:30166  .debug_str:000000000002704d .LASF5200
C:\Users\SOLDER~1\AppData\Local\Temp\ccdovRCu.s:21550  .debug_str:0000000000003fb4 .LASF5201
C:\Users\SOLDER~1\AppData\Local\Temp\ccdovRCu.s:21926  .debug_str:000000000000571b .LASF5202
C:\Users\SOLDER~1\AppData\Local\Temp\ccdovRCu.s:20786  .debug_str:0000000000000f36 .LASF5203
C:\Users\SOLDER~1\AppData\Local\Temp\ccdovRCu.s:25452  .debug_str:0000000000013e27 .LASF5204
C:\Users\SOLDER~1\AppData\Local\Temp\ccdovRCu.s:29258  .debug_str:0000000000023457 .LASF5205
C:\Users\SOLDER~1\AppData\Local\Temp\ccdovRCu.s:26304  .debug_str:0000000000017546 .LASF5206
C:\Users\SOLDER~1\AppData\Local\Temp\ccdovRCu.s:26212  .debug_str:0000000000016f25 .LASF5207
C:\Users\SOLDER~1\AppData\Local\Temp\ccdovRCu.s:24194  .debug_str:000000000000ec48 .LASF5208
C:\Users\SOLDER~1\AppData\Local\Temp\ccdovRCu.s:22308  .debug_str:00000000000070e4 .LASF5209
C:\Users\SOLDER~1\AppData\Local\Temp\ccdovRCu.s:22564  .debug_str:0000000000008160 .LASF5210
C:\Users\SOLDER~1\AppData\Local\Temp\ccdovRCu.s:30732  .debug_str:0000000000029521 .LASF5211
C:\Users\SOLDER~1\AppData\Local\Temp\ccdovRCu.s:26108  .debug_str:00000000000168ad .LASF5212
C:\Users\SOLDER~1\AppData\Local\Temp\ccdovRCu.s:23666  .debug_str:000000000000c9c3 .LASF5213
C:\Users\SOLDER~1\AppData\Local\Temp\ccdovRCu.s:29402  .debug_str:0000000000023d9e .LASF5214
C:\Users\SOLDER~1\AppData\Local\Temp\ccdovRCu.s:27508  .debug_str:000000000001c2b6 .LASF5215
C:\Users\SOLDER~1\AppData\Local\Temp\ccdovRCu.s:27712  .debug_str:000000000001d0ad .LASF5216
C:\Users\SOLDER~1\AppData\Local\Temp\ccdovRCu.s:24780  .debug_str:0000000000011210 .LASF5217
GAS LISTING C:\Users\SOLDER~1\AppData\Local\Temp\ccdovRCu.s 			page 144


C:\Users\SOLDER~1\AppData\Local\Temp\ccdovRCu.s:23340  .debug_str:000000000000b427 .LASF5218
C:\Users\SOLDER~1\AppData\Local\Temp\ccdovRCu.s:28022  .debug_str:000000000001e492 .LASF5219
C:\Users\SOLDER~1\AppData\Local\Temp\ccdovRCu.s:28378  .debug_str:000000000001fc33 .LASF5220
C:\Users\SOLDER~1\AppData\Local\Temp\ccdovRCu.s:30496  .debug_str:00000000000285ef .LASF5221
C:\Users\SOLDER~1\AppData\Local\Temp\ccdovRCu.s:31198  .debug_str:000000000002b362 .LASF5222
C:\Users\SOLDER~1\AppData\Local\Temp\ccdovRCu.s:29984  .debug_str:0000000000026436 .LASF5223
C:\Users\SOLDER~1\AppData\Local\Temp\ccdovRCu.s:21042  .debug_str:0000000000001f46 .LASF5224
C:\Users\SOLDER~1\AppData\Local\Temp\ccdovRCu.s:25286  .debug_str:0000000000013294 .LASF5225
C:\Users\SOLDER~1\AppData\Local\Temp\ccdovRCu.s:21610  .debug_str:0000000000004372 .LASF5226
C:\Users\SOLDER~1\AppData\Local\Temp\ccdovRCu.s:25340  .debug_str:000000000001362e .LASF5227
C:\Users\SOLDER~1\AppData\Local\Temp\ccdovRCu.s:23084  .debug_str:000000000000a337 .LASF5228
C:\Users\SOLDER~1\AppData\Local\Temp\ccdovRCu.s:29056  .debug_str:000000000002271a .LASF5229
C:\Users\SOLDER~1\AppData\Local\Temp\ccdovRCu.s:25976  .debug_str:000000000001608a .LASF5230
C:\Users\SOLDER~1\AppData\Local\Temp\ccdovRCu.s:30860  .debug_str:0000000000029d24 .LASF5231
C:\Users\SOLDER~1\AppData\Local\Temp\ccdovRCu.s:26680  .debug_str:0000000000018d84 .LASF5232
C:\Users\SOLDER~1\AppData\Local\Temp\ccdovRCu.s:30306  .debug_str:0000000000027978 .LASF5233
C:\Users\SOLDER~1\AppData\Local\Temp\ccdovRCu.s:28124  .debug_str:000000000001eb79 .LASF5234
C:\Users\SOLDER~1\AppData\Local\Temp\ccdovRCu.s:25136  .debug_str:000000000001289d .LASF5235
C:\Users\SOLDER~1\AppData\Local\Temp\ccdovRCu.s:26298  .debug_str:00000000000174d9 .LASF5236
C:\Users\SOLDER~1\AppData\Local\Temp\ccdovRCu.s:27780  .debug_str:000000000001d556 .LASF5237
C:\Users\SOLDER~1\AppData\Local\Temp\ccdovRCu.s:20946  .debug_str:0000000000001921 .LASF5238
C:\Users\SOLDER~1\AppData\Local\Temp\ccdovRCu.s:29320  .debug_str:000000000002387b .LASF5239
C:\Users\SOLDER~1\AppData\Local\Temp\ccdovRCu.s:25844  .debug_str:0000000000015809 .LASF5240
C:\Users\SOLDER~1\AppData\Local\Temp\ccdovRCu.s:22290  .debug_str:0000000000006fb6 .LASF5241
C:\Users\SOLDER~1\AppData\Local\Temp\ccdovRCu.s:21838  .debug_str:00000000000051c0 .LASF5242
C:\Users\SOLDER~1\AppData\Local\Temp\ccdovRCu.s:24688  .debug_str:0000000000010c21 .LASF5243
C:\Users\SOLDER~1\AppData\Local\Temp\ccdovRCu.s:22812  .debug_str:000000000000916f .LASF5244
C:\Users\SOLDER~1\AppData\Local\Temp\ccdovRCu.s:29684  .debug_str:000000000002505e .LASF5245
C:\Users\SOLDER~1\AppData\Local\Temp\ccdovRCu.s:28536  .debug_str:0000000000020629 .LASF5246
C:\Users\SOLDER~1\AppData\Local\Temp\ccdovRCu.s:21958  .debug_str:000000000000596d .LASF5247
C:\Users\SOLDER~1\AppData\Local\Temp\ccdovRCu.s:25970  .debug_str:0000000000016028 .LASF5248
C:\Users\SOLDER~1\AppData\Local\Temp\ccdovRCu.s:23562  .debug_str:000000000000c283 .LASF5249
C:\Users\SOLDER~1\AppData\Local\Temp\ccdovRCu.s:22468  .debug_str:0000000000007ac6 .LASF5250
C:\Users\SOLDER~1\AppData\Local\Temp\ccdovRCu.s:22344  .debug_str:0000000000007333 .LASF5251
C:\Users\SOLDER~1\AppData\Local\Temp\ccdovRCu.s:28906  .debug_str:0000000000021df0 .LASF5252
C:\Users\SOLDER~1\AppData\Local\Temp\ccdovRCu.s:26920  .debug_str:0000000000019d47 .LASF5253
C:\Users\SOLDER~1\AppData\Local\Temp\ccdovRCu.s:30318  .debug_str:0000000000027a3a .LASF5254
C:\Users\SOLDER~1\AppData\Local\Temp\ccdovRCu.s:32138  .debug_str:000000000002ef80 .LASF5255
C:\Users\SOLDER~1\AppData\Local\Temp\ccdovRCu.s:29118  .debug_str:0000000000022b39 .LASF5256
C:\Users\SOLDER~1\AppData\Local\Temp\ccdovRCu.s:31622  .debug_str:000000000002ceb4 .LASF5257
C:\Users\SOLDER~1\AppData\Local\Temp\ccdovRCu.s:21426  .debug_str:00000000000037ee .LASF5258
C:\Users\SOLDER~1\AppData\Local\Temp\ccdovRCu.s:31262  .debug_str:000000000002b76c .LASF5259
C:\Users\SOLDER~1\AppData\Local\Temp\ccdovRCu.s:26682  .debug_str:0000000000018daf .LASF5260
C:\Users\SOLDER~1\AppData\Local\Temp\ccdovRCu.s:26442  .debug_str:0000000000017e19 .LASF5261
C:\Users\SOLDER~1\AppData\Local\Temp\ccdovRCu.s:24288  .debug_str:000000000000f243 .LASF5262
C:\Users\SOLDER~1\AppData\Local\Temp\ccdovRCu.s:23682  .debug_str:000000000000cafb .LASF5263
C:\Users\SOLDER~1\AppData\Local\Temp\ccdovRCu.s:31332  .debug_str:000000000002bc2e .LASF5264
C:\Users\SOLDER~1\AppData\Local\Temp\ccdovRCu.s:30710  .debug_str:00000000000293aa .LASF5265
C:\Users\SOLDER~1\AppData\Local\Temp\ccdovRCu.s:31652  .debug_str:000000000002d0b1 .LASF5266
C:\Users\SOLDER~1\AppData\Local\Temp\ccdovRCu.s:29040  .debug_str:00000000000225f1 .LASF5267
C:\Users\SOLDER~1\AppData\Local\Temp\ccdovRCu.s:24770  .debug_str:0000000000011162 .LASF5268
C:\Users\SOLDER~1\AppData\Local\Temp\ccdovRCu.s:21948  .debug_str:00000000000058c0 .LASF5269
C:\Users\SOLDER~1\AppData\Local\Temp\ccdovRCu.s:31290  .debug_str:000000000002b957 .LASF5270
C:\Users\SOLDER~1\AppData\Local\Temp\ccdovRCu.s:25876  .debug_str:0000000000015a31 .LASF5271
C:\Users\SOLDER~1\AppData\Local\Temp\ccdovRCu.s:25566  .debug_str:00000000000145fd .LASF5272
C:\Users\SOLDER~1\AppData\Local\Temp\ccdovRCu.s:30468  .debug_str:0000000000028446 .LASF5273
C:\Users\SOLDER~1\AppData\Local\Temp\ccdovRCu.s:21374  .debug_str:00000000000034cc .LASF5274
GAS LISTING C:\Users\SOLDER~1\AppData\Local\Temp\ccdovRCu.s 			page 145


C:\Users\SOLDER~1\AppData\Local\Temp\ccdovRCu.s:25490  .debug_str:00000000000140a3 .LASF5275
C:\Users\SOLDER~1\AppData\Local\Temp\ccdovRCu.s:27014  .debug_str:000000000001a320 .LASF5276
C:\Users\SOLDER~1\AppData\Local\Temp\ccdovRCu.s:21282  .debug_str:0000000000002ecd .LASF5277
C:\Users\SOLDER~1\AppData\Local\Temp\ccdovRCu.s:22530  .debug_str:0000000000007efa .LASF5278
C:\Users\SOLDER~1\AppData\Local\Temp\ccdovRCu.s:26994  .debug_str:000000000001a1eb .LASF5279
C:\Users\SOLDER~1\AppData\Local\Temp\ccdovRCu.s:26024  .debug_str:00000000000163ae .LASF5280
C:\Users\SOLDER~1\AppData\Local\Temp\ccdovRCu.s:29598  .debug_str:0000000000024aab .LASF5281
C:\Users\SOLDER~1\AppData\Local\Temp\ccdovRCu.s:25038  .debug_str:000000000001226f .LASF5282
C:\Users\SOLDER~1\AppData\Local\Temp\ccdovRCu.s:31400  .debug_str:000000000002c084 .LASF5283
C:\Users\SOLDER~1\AppData\Local\Temp\ccdovRCu.s:25578  .debug_str:00000000000146d7 .LASF5284
C:\Users\SOLDER~1\AppData\Local\Temp\ccdovRCu.s:23832  .debug_str:000000000000d4e7 .LASF5285
C:\Users\SOLDER~1\AppData\Local\Temp\ccdovRCu.s:31528  .debug_str:000000000002c902 .LASF5286
C:\Users\SOLDER~1\AppData\Local\Temp\ccdovRCu.s:29848  .debug_str:0000000000025aef .LASF5287
C:\Users\SOLDER~1\AppData\Local\Temp\ccdovRCu.s:27840  .debug_str:000000000001d903 .LASF5288
C:\Users\SOLDER~1\AppData\Local\Temp\ccdovRCu.s:21730  .debug_str:0000000000004b1d .LASF5289
C:\Users\SOLDER~1\AppData\Local\Temp\ccdovRCu.s:21916  .debug_str:000000000000565c .LASF5290
C:\Users\SOLDER~1\AppData\Local\Temp\ccdovRCu.s:26972  .debug_str:000000000001a06c .LASF5291
C:\Users\SOLDER~1\AppData\Local\Temp\ccdovRCu.s:29120  .debug_str:0000000000022b59 .LASF5292
C:\Users\SOLDER~1\AppData\Local\Temp\ccdovRCu.s:20842  .debug_str:0000000000001296 .LASF5293
C:\Users\SOLDER~1\AppData\Local\Temp\ccdovRCu.s:24404  .debug_str:000000000000f9ca .LASF5294
C:\Users\SOLDER~1\AppData\Local\Temp\ccdovRCu.s:29342  .debug_str:0000000000023a01 .LASF5295
C:\Users\SOLDER~1\AppData\Local\Temp\ccdovRCu.s:20632  .debug_str:0000000000000441 .LASF5296
C:\Users\SOLDER~1\AppData\Local\Temp\ccdovRCu.s:25846  .debug_str:0000000000015836 .LASF5297
C:\Users\SOLDER~1\AppData\Local\Temp\ccdovRCu.s:32162  .debug_str:000000000002f0fe .LASF5298
C:\Users\SOLDER~1\AppData\Local\Temp\ccdovRCu.s:26828  .debug_str:00000000000197a8 .LASF5299
C:\Users\SOLDER~1\AppData\Local\Temp\ccdovRCu.s:31460  .debug_str:000000000002c4b3 .LASF5300
C:\Users\SOLDER~1\AppData\Local\Temp\ccdovRCu.s:26810  .debug_str:000000000001963a .LASF5301
C:\Users\SOLDER~1\AppData\Local\Temp\ccdovRCu.s:23004  .debug_str:0000000000009dda .LASF5302
C:\Users\SOLDER~1\AppData\Local\Temp\ccdovRCu.s:25580  .debug_str:00000000000146f7 .LASF5303
C:\Users\SOLDER~1\AppData\Local\Temp\ccdovRCu.s:25244  .debug_str:0000000000012fc9 .LASF5304
C:\Users\SOLDER~1\AppData\Local\Temp\ccdovRCu.s:28450  .debug_str:00000000000200a9 .LASF5305
C:\Users\SOLDER~1\AppData\Local\Temp\ccdovRCu.s:24836  .debug_str:00000000000115c0 .LASF5306
C:\Users\SOLDER~1\AppData\Local\Temp\ccdovRCu.s:23440  .debug_str:000000000000ba8f .LASF5307
C:\Users\SOLDER~1\AppData\Local\Temp\ccdovRCu.s:27170  .debug_str:000000000001ad5b .LASF5308
C:\Users\SOLDER~1\AppData\Local\Temp\ccdovRCu.s:31664  .debug_str:000000000002d187 .LASF5309
C:\Users\SOLDER~1\AppData\Local\Temp\ccdovRCu.s:29562  .debug_str:0000000000024859 .LASF5310
C:\Users\SOLDER~1\AppData\Local\Temp\ccdovRCu.s:27094  .debug_str:000000000001a855 .LASF5311
C:\Users\SOLDER~1\AppData\Local\Temp\ccdovRCu.s:27792  .debug_str:000000000001d629 .LASF5312
C:\Users\SOLDER~1\AppData\Local\Temp\ccdovRCu.s:23394  .debug_str:000000000000b78d .LASF5313
C:\Users\SOLDER~1\AppData\Local\Temp\ccdovRCu.s:26580  .debug_str:0000000000018704 .LASF5314
C:\Users\SOLDER~1\AppData\Local\Temp\ccdovRCu.s:30336  .debug_str:0000000000027b57 .LASF5315
C:\Users\SOLDER~1\AppData\Local\Temp\ccdovRCu.s:24452  .debug_str:000000000000fd27 .LASF5316
C:\Users\SOLDER~1\AppData\Local\Temp\ccdovRCu.s:26662  .debug_str:0000000000018c5d .LASF5317
C:\Users\SOLDER~1\AppData\Local\Temp\ccdovRCu.s:25640  .debug_str:0000000000014aea .LASF5318
C:\Users\SOLDER~1\AppData\Local\Temp\ccdovRCu.s:31280  .debug_str:000000000002b8a5 .LASF5319
C:\Users\SOLDER~1\AppData\Local\Temp\ccdovRCu.s:31740  .debug_str:000000000002d6cb .LASF5320
C:\Users\SOLDER~1\AppData\Local\Temp\ccdovRCu.s:31588  .debug_str:000000000002cc99 .LASF5321
C:\Users\SOLDER~1\AppData\Local\Temp\ccdovRCu.s:22056  .debug_str:0000000000005fc5 .LASF5322
C:\Users\SOLDER~1\AppData\Local\Temp\ccdovRCu.s:29660  .debug_str:0000000000024ece .LASF5323
C:\Users\SOLDER~1\AppData\Local\Temp\ccdovRCu.s:20698  .debug_str:0000000000000943 .LASF5324
C:\Users\SOLDER~1\AppData\Local\Temp\ccdovRCu.s:23158  .debug_str:000000000000a858 .LASF5325
C:\Users\SOLDER~1\AppData\Local\Temp\ccdovRCu.s:26836  .debug_str:0000000000019839 .LASF5326
C:\Users\SOLDER~1\AppData\Local\Temp\ccdovRCu.s:30258  .debug_str:0000000000027659 .LASF5327
C:\Users\SOLDER~1\AppData\Local\Temp\ccdovRCu.s:23650  .debug_str:000000000000c8aa .LASF5328
C:\Users\SOLDER~1\AppData\Local\Temp\ccdovRCu.s:24766  .debug_str:0000000000011119 .LASF5329
C:\Users\SOLDER~1\AppData\Local\Temp\ccdovRCu.s:23184  .debug_str:000000000000aa14 .LASF5330
C:\Users\SOLDER~1\AppData\Local\Temp\ccdovRCu.s:31618  .debug_str:000000000002ce78 .LASF5331
GAS LISTING C:\Users\SOLDER~1\AppData\Local\Temp\ccdovRCu.s 			page 146


C:\Users\SOLDER~1\AppData\Local\Temp\ccdovRCu.s:28120  .debug_str:000000000001eb2c .LASF5332
C:\Users\SOLDER~1\AppData\Local\Temp\ccdovRCu.s:29164  .debug_str:0000000000022e4b .LASF5333
C:\Users\SOLDER~1\AppData\Local\Temp\ccdovRCu.s:27598  .debug_str:000000000001c8ea .LASF5334
C:\Users\SOLDER~1\AppData\Local\Temp\ccdovRCu.s:24018  .debug_str:000000000000e0d2 .LASF5335
C:\Users\SOLDER~1\AppData\Local\Temp\ccdovRCu.s:30494  .debug_str:00000000000285cf .LASF5336
C:\Users\SOLDER~1\AppData\Local\Temp\ccdovRCu.s:31872  .debug_str:000000000002df0d .LASF5337
C:\Users\SOLDER~1\AppData\Local\Temp\ccdovRCu.s:21920  .debug_str:00000000000056a9 .LASF5338
C:\Users\SOLDER~1\AppData\Local\Temp\ccdovRCu.s:25584  .debug_str:000000000001474a .LASF5339
C:\Users\SOLDER~1\AppData\Local\Temp\ccdovRCu.s:31292  .debug_str:000000000002b978 .LASF5340
C:\Users\SOLDER~1\AppData\Local\Temp\ccdovRCu.s:31684  .debug_str:000000000002d2f7 .LASF5341
C:\Users\SOLDER~1\AppData\Local\Temp\ccdovRCu.s:24540  .debug_str:0000000000010293 .LASF5342
C:\Users\SOLDER~1\AppData\Local\Temp\ccdovRCu.s:21708  .debug_str:00000000000049c8 .LASF5343
C:\Users\SOLDER~1\AppData\Local\Temp\ccdovRCu.s:21354  .debug_str:0000000000003366 .LASF5344
C:\Users\SOLDER~1\AppData\Local\Temp\ccdovRCu.s:27332  .debug_str:000000000001b7ac .LASF5345
C:\Users\SOLDER~1\AppData\Local\Temp\ccdovRCu.s:30630  .debug_str:0000000000028ebb .LASF5346
C:\Users\SOLDER~1\AppData\Local\Temp\ccdovRCu.s:23154  .debug_str:000000000000a820 .LASF5347
C:\Users\SOLDER~1\AppData\Local\Temp\ccdovRCu.s:24398  .debug_str:000000000000f968 .LASF5348
C:\Users\SOLDER~1\AppData\Local\Temp\ccdovRCu.s:27756  .debug_str:000000000001d3b1 .LASF5349
C:\Users\SOLDER~1\AppData\Local\Temp\ccdovRCu.s:28612  .debug_str:0000000000020b09 .LASF5350
C:\Users\SOLDER~1\AppData\Local\Temp\ccdovRCu.s:23020  .debug_str:0000000000009efa .LASF5351
C:\Users\SOLDER~1\AppData\Local\Temp\ccdovRCu.s:20970  .debug_str:0000000000001ad0 .LASF5352
C:\Users\SOLDER~1\AppData\Local\Temp\ccdovRCu.s:26896  .debug_str:0000000000019baf .LASF5353
C:\Users\SOLDER~1\AppData\Local\Temp\ccdovRCu.s:21738  .debug_str:0000000000004baa .LASF5354
C:\Users\SOLDER~1\AppData\Local\Temp\ccdovRCu.s:31458  .debug_str:000000000002c490 .LASF5355
C:\Users\SOLDER~1\AppData\Local\Temp\ccdovRCu.s:28496  .debug_str:000000000002038b .LASF5356
C:\Users\SOLDER~1\AppData\Local\Temp\ccdovRCu.s:28988  .debug_str:00000000000222f6 .LASF5357
C:\Users\SOLDER~1\AppData\Local\Temp\ccdovRCu.s:26074  .debug_str:00000000000166db .LASF5358
C:\Users\SOLDER~1\AppData\Local\Temp\ccdovRCu.s:24586  .debug_str:0000000000010591 .LASF5359
C:\Users\SOLDER~1\AppData\Local\Temp\ccdovRCu.s:25940  .debug_str:0000000000015e41 .LASF5360
C:\Users\SOLDER~1\AppData\Local\Temp\ccdovRCu.s:24916  .debug_str:0000000000011ac3 .LASF5361
C:\Users\SOLDER~1\AppData\Local\Temp\ccdovRCu.s:29930  .debug_str:000000000002606d .LASF5362
C:\Users\SOLDER~1\AppData\Local\Temp\ccdovRCu.s:24470  .debug_str:000000000000fe5e .LASF5363
C:\Users\SOLDER~1\AppData\Local\Temp\ccdovRCu.s:23348  .debug_str:000000000000b4b9 .LASF5364
C:\Users\SOLDER~1\AppData\Local\Temp\ccdovRCu.s:25242  .debug_str:0000000000012fa4 .LASF5365
C:\Users\SOLDER~1\AppData\Local\Temp\ccdovRCu.s:24304  .debug_str:000000000000f350 .LASF5366
C:\Users\SOLDER~1\AppData\Local\Temp\ccdovRCu.s:21454  .debug_str:00000000000039b1 .LASF5367
C:\Users\SOLDER~1\AppData\Local\Temp\ccdovRCu.s:23136  .debug_str:000000000000a6ee .LASF5368
C:\Users\SOLDER~1\AppData\Local\Temp\ccdovRCu.s:23874  .debug_str:000000000000d78e .LASF5369
C:\Users\SOLDER~1\AppData\Local\Temp\ccdovRCu.s:23072  .debug_str:000000000000a299 .LASF5370
C:\Users\SOLDER~1\AppData\Local\Temp\ccdovRCu.s:22984  .debug_str:0000000000009c77 .LASF5371
C:\Users\SOLDER~1\AppData\Local\Temp\ccdovRCu.s:31418  .debug_str:000000000002c1c7 .LASF5372
C:\Users\SOLDER~1\AppData\Local\Temp\ccdovRCu.s:26206  .debug_str:0000000000016eb6 .LASF5373
C:\Users\SOLDER~1\AppData\Local\Temp\ccdovRCu.s:27008  .debug_str:000000000001a2ca .LASF5374
C:\Users\SOLDER~1\AppData\Local\Temp\ccdovRCu.s:25820  .debug_str:0000000000015685 .LASF5375
C:\Users\SOLDER~1\AppData\Local\Temp\ccdovRCu.s:28858  .debug_str:0000000000021acf .LASF5376
C:\Users\SOLDER~1\AppData\Local\Temp\ccdovRCu.s:29982  .debug_str:0000000000026410 .LASF5377
C:\Users\SOLDER~1\AppData\Local\Temp\ccdovRCu.s:23426  .debug_str:000000000000b9a1 .LASF5378
C:\Users\SOLDER~1\AppData\Local\Temp\ccdovRCu.s:22282  .debug_str:0000000000006f02 .LASF5379
C:\Users\SOLDER~1\AppData\Local\Temp\ccdovRCu.s:22858  .debug_str:0000000000009470 .LASF5380
C:\Users\SOLDER~1\AppData\Local\Temp\ccdovRCu.s:23434  .debug_str:000000000000ba1d .LASF5381
C:\Users\SOLDER~1\AppData\Local\Temp\ccdovRCu.s:24360  .debug_str:000000000000f6af .LASF5382
C:\Users\SOLDER~1\AppData\Local\Temp\ccdovRCu.s:27130  .debug_str:000000000001aace .LASF5383
C:\Users\SOLDER~1\AppData\Local\Temp\ccdovRCu.s:27742  .debug_str:000000000001d287 .LASF5384
C:\Users\SOLDER~1\AppData\Local\Temp\ccdovRCu.s:31542  .debug_str:000000000002c9dd .LASF5385
C:\Users\SOLDER~1\AppData\Local\Temp\ccdovRCu.s:31082  .debug_str:000000000002ab91 .LASF5386
C:\Users\SOLDER~1\AppData\Local\Temp\ccdovRCu.s:27646  .debug_str:000000000001cc3c .LASF5387
C:\Users\SOLDER~1\AppData\Local\Temp\ccdovRCu.s:24396  .debug_str:000000000000f93c .LASF5388
GAS LISTING C:\Users\SOLDER~1\AppData\Local\Temp\ccdovRCu.s 			page 147


C:\Users\SOLDER~1\AppData\Local\Temp\ccdovRCu.s:26210  .debug_str:0000000000016efa .LASF5389
C:\Users\SOLDER~1\AppData\Local\Temp\ccdovRCu.s:23746  .debug_str:000000000000cf40 .LASF5390
C:\Users\SOLDER~1\AppData\Local\Temp\ccdovRCu.s:22982  .debug_str:0000000000009c54 .LASF5391
C:\Users\SOLDER~1\AppData\Local\Temp\ccdovRCu.s:29806  .debug_str:0000000000025803 .LASF5392
C:\Users\SOLDER~1\AppData\Local\Temp\ccdovRCu.s:24476  .debug_str:000000000000fec1 .LASF5393
C:\Users\SOLDER~1\AppData\Local\Temp\ccdovRCu.s:26488  .debug_str:0000000000018124 .LASF5394
C:\Users\SOLDER~1\AppData\Local\Temp\ccdovRCu.s:28116  .debug_str:000000000001eae1 .LASF5395
C:\Users\SOLDER~1\AppData\Local\Temp\ccdovRCu.s:20716  .debug_str:0000000000000a89 .LASF5396
C:\Users\SOLDER~1\AppData\Local\Temp\ccdovRCu.s:25420  .debug_str:0000000000013c05 .LASF5397
C:\Users\SOLDER~1\AppData\Local\Temp\ccdovRCu.s:23314  .debug_str:000000000000b264 .LASF5398
C:\Users\SOLDER~1\AppData\Local\Temp\ccdovRCu.s:27160  .debug_str:000000000001ac8c .LASF5399
C:\Users\SOLDER~1\AppData\Local\Temp\ccdovRCu.s:23408  .debug_str:000000000000b862 .LASF5400
C:\Users\SOLDER~1\AppData\Local\Temp\ccdovRCu.s:26242  .debug_str:0000000000017123 .LASF5401
C:\Users\SOLDER~1\AppData\Local\Temp\ccdovRCu.s:30984  .debug_str:000000000002a588 .LASF5402
C:\Users\SOLDER~1\AppData\Local\Temp\ccdovRCu.s:24132  .debug_str:000000000000e87e .LASF5403
C:\Users\SOLDER~1\AppData\Local\Temp\ccdovRCu.s:27380  .debug_str:000000000001ba87 .LASF5404
C:\Users\SOLDER~1\AppData\Local\Temp\ccdovRCu.s:23882  .debug_str:000000000000d835 .LASF5405
C:\Users\SOLDER~1\AppData\Local\Temp\ccdovRCu.s:30110  .debug_str:0000000000026cd5 .LASF5406
C:\Users\SOLDER~1\AppData\Local\Temp\ccdovRCu.s:29454  .debug_str:000000000002411a .LASF5407
C:\Users\SOLDER~1\AppData\Local\Temp\ccdovRCu.s:31390  .debug_str:000000000002bfd0 .LASF5408
C:\Users\SOLDER~1\AppData\Local\Temp\ccdovRCu.s:23770  .debug_str:000000000000d0c1 .LASF5409
C:\Users\SOLDER~1\AppData\Local\Temp\ccdovRCu.s:29398  .debug_str:0000000000023d5c .LASF5410
C:\Users\SOLDER~1\AppData\Local\Temp\ccdovRCu.s:26590  .debug_str:00000000000187ae .LASF5411
C:\Users\SOLDER~1\AppData\Local\Temp\ccdovRCu.s:32116  .debug_str:000000000002ee2b .LASF5412
C:\Users\SOLDER~1\AppData\Local\Temp\ccdovRCu.s:27186  .debug_str:000000000001aea7 .LASF5413
C:\Users\SOLDER~1\AppData\Local\Temp\ccdovRCu.s:24554  .debug_str:0000000000010384 .LASF5414
C:\Users\SOLDER~1\AppData\Local\Temp\ccdovRCu.s:21858  .debug_str:0000000000005303 .LASF5415
C:\Users\SOLDER~1\AppData\Local\Temp\ccdovRCu.s:23174  .debug_str:000000000000a964 .LASF5416
C:\Users\SOLDER~1\AppData\Local\Temp\ccdovRCu.s:25550  .debug_str:00000000000144d8 .LASF5417
C:\Users\SOLDER~1\AppData\Local\Temp\ccdovRCu.s:23808  .debug_str:000000000000d344 .LASF5418
C:\Users\SOLDER~1\AppData\Local\Temp\ccdovRCu.s:28766  .debug_str:00000000000214eb .LASF5419
C:\Users\SOLDER~1\AppData\Local\Temp\ccdovRCu.s:27900  .debug_str:000000000001dc93 .LASF5420
C:\Users\SOLDER~1\AppData\Local\Temp\ccdovRCu.s:25636  .debug_str:0000000000014aa2 .LASF5421
C:\Users\SOLDER~1\AppData\Local\Temp\ccdovRCu.s:24868  .debug_str:0000000000011798 .LASF5422
C:\Users\SOLDER~1\AppData\Local\Temp\ccdovRCu.s:28776  .debug_str:000000000002158e .LASF5423
C:\Users\SOLDER~1\AppData\Local\Temp\ccdovRCu.s:28696  .debug_str:0000000000021048 .LASF5424
C:\Users\SOLDER~1\AppData\Local\Temp\ccdovRCu.s:22294  .debug_str:0000000000006ff4 .LASF5425
C:\Users\SOLDER~1\AppData\Local\Temp\ccdovRCu.s:24544  .debug_str:00000000000102c5 .LASF5426
C:\Users\SOLDER~1\AppData\Local\Temp\ccdovRCu.s:30426  .debug_str:000000000002815d .LASF5427
C:\Users\SOLDER~1\AppData\Local\Temp\ccdovRCu.s:22498  .debug_str:0000000000007ce0 .LASF5428
C:\Users\SOLDER~1\AppData\Local\Temp\ccdovRCu.s:27460  .debug_str:000000000001bfb1 .LASF5429
C:\Users\SOLDER~1\AppData\Local\Temp\ccdovRCu.s:21276  .debug_str:0000000000002e68 .LASF5430
C:\Users\SOLDER~1\AppData\Local\Temp\ccdovRCu.s:31426  .debug_str:000000000002c254 .LASF5431
C:\Users\SOLDER~1\AppData\Local\Temp\ccdovRCu.s:29268  .debug_str:00000000000234fd .LASF5432
C:\Users\SOLDER~1\AppData\Local\Temp\ccdovRCu.s:20928  .debug_str:0000000000001815 .LASF5433
C:\Users\SOLDER~1\AppData\Local\Temp\ccdovRCu.s:25322  .debug_str:0000000000013506 .LASF5434
C:\Users\SOLDER~1\AppData\Local\Temp\ccdovRCu.s:25034  .debug_str:0000000000012226 .LASF5435
C:\Users\SOLDER~1\AppData\Local\Temp\ccdovRCu.s:24558  .debug_str:00000000000103ce .LASF5436
C:\Users\SOLDER~1\AppData\Local\Temp\ccdovRCu.s:21060  .debug_str:0000000000002059 .LASF5437
C:\Users\SOLDER~1\AppData\Local\Temp\ccdovRCu.s:20788  .debug_str:0000000000000f69 .LASF5438
C:\Users\SOLDER~1\AppData\Local\Temp\ccdovRCu.s:28406  .debug_str:000000000001fe01 .LASF5439
C:\Users\SOLDER~1\AppData\Local\Temp\ccdovRCu.s:31690  .debug_str:000000000002d37c .LASF5440
C:\Users\SOLDER~1\AppData\Local\Temp\ccdovRCu.s:28174  .debug_str:000000000001eec1 .LASF5441
C:\Users\SOLDER~1\AppData\Local\Temp\ccdovRCu.s:24840  .debug_str:000000000001160c .LASF5442
C:\Users\SOLDER~1\AppData\Local\Temp\ccdovRCu.s:23466  .debug_str:000000000000bc58 .LASF5443
C:\Users\SOLDER~1\AppData\Local\Temp\ccdovRCu.s:27512  .debug_str:000000000001c31a .LASF5444
C:\Users\SOLDER~1\AppData\Local\Temp\ccdovRCu.s:25186  .debug_str:0000000000012bdf .LASF5445
GAS LISTING C:\Users\SOLDER~1\AppData\Local\Temp\ccdovRCu.s 			page 148


C:\Users\SOLDER~1\AppData\Local\Temp\ccdovRCu.s:32088  .debug_str:000000000002ec7a .LASF5446
C:\Users\SOLDER~1\AppData\Local\Temp\ccdovRCu.s:23886  .debug_str:000000000000d87a .LASF5447
C:\Users\SOLDER~1\AppData\Local\Temp\ccdovRCu.s:29068  .debug_str:00000000000227ec .LASF5448
C:\Users\SOLDER~1\AppData\Local\Temp\ccdovRCu.s:23816  .debug_str:000000000000d3bc .LASF5449
C:\Users\SOLDER~1\AppData\Local\Temp\ccdovRCu.s:30064  .debug_str:000000000002699e .LASF5450
C:\Users\SOLDER~1\AppData\Local\Temp\ccdovRCu.s:23828  .debug_str:000000000000d49a .LASF5451
C:\Users\SOLDER~1\AppData\Local\Temp\ccdovRCu.s:30906  .debug_str:000000000002a045 .LASF5452
C:\Users\SOLDER~1\AppData\Local\Temp\ccdovRCu.s:31278  .debug_str:000000000002b874 .LASF5453
C:\Users\SOLDER~1\AppData\Local\Temp\ccdovRCu.s:29094  .debug_str:000000000002299a .LASF5454
C:\Users\SOLDER~1\AppData\Local\Temp\ccdovRCu.s:30328  .debug_str:0000000000027ae4 .LASF5455
C:\Users\SOLDER~1\AppData\Local\Temp\ccdovRCu.s:25740  .debug_str:000000000001513b .LASF5456
C:\Users\SOLDER~1\AppData\Local\Temp\ccdovRCu.s:31852  .debug_str:000000000002ddb1 .LASF5457
C:\Users\SOLDER~1\AppData\Local\Temp\ccdovRCu.s:26576  .debug_str:00000000000186a9 .LASF5458
C:\Users\SOLDER~1\AppData\Local\Temp\ccdovRCu.s:25616  .debug_str:0000000000014930 .LASF5459
C:\Users\SOLDER~1\AppData\Local\Temp\ccdovRCu.s:25414  .debug_str:0000000000013b85 .LASF5460
C:\Users\SOLDER~1\AppData\Local\Temp\ccdovRCu.s:23038  .debug_str:000000000000a02b .LASF5461
C:\Users\SOLDER~1\AppData\Local\Temp\ccdovRCu.s:27776  .debug_str:000000000001d50d .LASF5462
C:\Users\SOLDER~1\AppData\Local\Temp\ccdovRCu.s:23168  .debug_str:000000000000a8ef .LASF5463
C:\Users\SOLDER~1\AppData\Local\Temp\ccdovRCu.s:29936  .debug_str:00000000000260d1 .LASF5464
C:\Users\SOLDER~1\AppData\Local\Temp\ccdovRCu.s:21286  .debug_str:0000000000002f03 .LASF5465
C:\Users\SOLDER~1\AppData\Local\Temp\ccdovRCu.s:21724  .debug_str:0000000000004ab0 .LASF5466
C:\Users\SOLDER~1\AppData\Local\Temp\ccdovRCu.s:23280  .debug_str:000000000000b067 .LASF5467
C:\Users\SOLDER~1\AppData\Local\Temp\ccdovRCu.s:26784  .debug_str:000000000001946a .LASF5468
C:\Users\SOLDER~1\AppData\Local\Temp\ccdovRCu.s:23840  .debug_str:000000000000d573 .LASF5469
C:\Users\SOLDER~1\AppData\Local\Temp\ccdovRCu.s:29348  .debug_str:0000000000023a4f .LASF5470
C:\Users\SOLDER~1\AppData\Local\Temp\ccdovRCu.s:30500  .debug_str:0000000000028639 .LASF5471
C:\Users\SOLDER~1\AppData\Local\Temp\ccdovRCu.s:23312  .debug_str:000000000000b245 .LASF5472
C:\Users\SOLDER~1\AppData\Local\Temp\ccdovRCu.s:27896  .debug_str:000000000001dc51 .LASF5473
C:\Users\SOLDER~1\AppData\Local\Temp\ccdovRCu.s:30432  .debug_str:00000000000281b3 .LASF5474
C:\Users\SOLDER~1\AppData\Local\Temp\ccdovRCu.s:27624  .debug_str:000000000001caa7 .LASF5475
C:\Users\SOLDER~1\AppData\Local\Temp\ccdovRCu.s:32048  .debug_str:000000000002e9ed .LASF5476
C:\Users\SOLDER~1\AppData\Local\Temp\ccdovRCu.s:31128  .debug_str:000000000002aeb9 .LASF5477
C:\Users\SOLDER~1\AppData\Local\Temp\ccdovRCu.s:31402  .debug_str:000000000002c0a3 .LASF5478
C:\Users\SOLDER~1\AppData\Local\Temp\ccdovRCu.s:26834  .debug_str:000000000001981a .LASF5479
C:\Users\SOLDER~1\AppData\Local\Temp\ccdovRCu.s:22242  .debug_str:0000000000006c49 .LASF5480
C:\Users\SOLDER~1\AppData\Local\Temp\ccdovRCu.s:20806  .debug_str:0000000000001074 .LASF5481
C:\Users\SOLDER~1\AppData\Local\Temp\ccdovRCu.s:29148  .debug_str:0000000000022d43 .LASF5482
C:\Users\SOLDER~1\AppData\Local\Temp\ccdovRCu.s:20710  .debug_str:0000000000000a1c .LASF5483
C:\Users\SOLDER~1\AppData\Local\Temp\ccdovRCu.s:25444  .debug_str:0000000000013d86 .LASF5484
C:\Users\SOLDER~1\AppData\Local\Temp\ccdovRCu.s:24810  .debug_str:00000000000113db .LASF5485
C:\Users\SOLDER~1\AppData\Local\Temp\ccdovRCu.s:29600  .debug_str:0000000000024acd .LASF5486
C:\Users\SOLDER~1\AppData\Local\Temp\ccdovRCu.s:20826  .debug_str:0000000000001183 .LASF5487
C:\Users\SOLDER~1\AppData\Local\Temp\ccdovRCu.s:26272  .debug_str:000000000001732e .LASF5488
C:\Users\SOLDER~1\AppData\Local\Temp\ccdovRCu.s:27472  .debug_str:000000000001c07b .LASF5489
C:\Users\SOLDER~1\AppData\Local\Temp\ccdovRCu.s:22400  .debug_str:0000000000007693 .LASF5490
C:\Users\SOLDER~1\AppData\Local\Temp\ccdovRCu.s:22936  .debug_str:0000000000009992 .LASF5491
C:\Users\SOLDER~1\AppData\Local\Temp\ccdovRCu.s:25162  .debug_str:0000000000012a3d .LASF5492
C:\Users\SOLDER~1\AppData\Local\Temp\ccdovRCu.s:26974  .debug_str:000000000001a08f .LASF5493
C:\Users\SOLDER~1\AppData\Local\Temp\ccdovRCu.s:26830  .debug_str:00000000000197c8 .LASF5494
C:\Users\SOLDER~1\AppData\Local\Temp\ccdovRCu.s:27092  .debug_str:000000000001a82e .LASF5495
C:\Users\SOLDER~1\AppData\Local\Temp\ccdovRCu.s:28296  .debug_str:000000000001f6d6 .LASF5496
C:\Users\SOLDER~1\AppData\Local\Temp\ccdovRCu.s:25054  .debug_str:0000000000012357 .LASF5497
C:\Users\SOLDER~1\AppData\Local\Temp\ccdovRCu.s:31174  .debug_str:000000000002b181 .LASF5498
C:\Users\SOLDER~1\AppData\Local\Temp\ccdovRCu.s:22792  .debug_str:0000000000008feb .LASF5499
C:\Users\SOLDER~1\AppData\Local\Temp\ccdovRCu.s:28756  .debug_str:0000000000021449 .LASF5500
C:\Users\SOLDER~1\AppData\Local\Temp\ccdovRCu.s:24456  .debug_str:000000000000fd6d .LASF5501
C:\Users\SOLDER~1\AppData\Local\Temp\ccdovRCu.s:23170  .debug_str:000000000000a921 .LASF5502
GAS LISTING C:\Users\SOLDER~1\AppData\Local\Temp\ccdovRCu.s 			page 149


C:\Users\SOLDER~1\AppData\Local\Temp\ccdovRCu.s:26686  .debug_str:0000000000018df1 .LASF5503
C:\Users\SOLDER~1\AppData\Local\Temp\ccdovRCu.s:22020  .debug_str:0000000000005d74 .LASF5504
C:\Users\SOLDER~1\AppData\Local\Temp\ccdovRCu.s:22430  .debug_str:000000000000783e .LASF5505
C:\Users\SOLDER~1\AppData\Local\Temp\ccdovRCu.s:23086  .debug_str:000000000000a362 .LASF5506
C:\Users\SOLDER~1\AppData\Local\Temp\ccdovRCu.s:29220  .debug_str:00000000000231cd .LASF5507
C:\Users\SOLDER~1\AppData\Local\Temp\ccdovRCu.s:27886  .debug_str:000000000001dba1 .LASF5508
C:\Users\SOLDER~1\AppData\Local\Temp\ccdovRCu.s:26122  .debug_str:00000000000169a0 .LASF5509
C:\Users\SOLDER~1\AppData\Local\Temp\ccdovRCu.s:24676  .debug_str:0000000000010b6a .LASF5510
C:\Users\SOLDER~1\AppData\Local\Temp\ccdovRCu.s:31714  .debug_str:000000000002d515 .LASF5511
C:\Users\SOLDER~1\AppData\Local\Temp\ccdovRCu.s:21778  .debug_str:0000000000004e2e .LASF5512
C:\Users\SOLDER~1\AppData\Local\Temp\ccdovRCu.s:29432  .debug_str:0000000000023f9c .LASF5513
C:\Users\SOLDER~1\AppData\Local\Temp\ccdovRCu.s:30384  .debug_str:0000000000027e57 .LASF5514
C:\Users\SOLDER~1\AppData\Local\Temp\ccdovRCu.s:28946  .debug_str:0000000000022051 .LASF5515
C:\Users\SOLDER~1\AppData\Local\Temp\ccdovRCu.s:28896  .debug_str:0000000000021d3f .LASF5516
C:\Users\SOLDER~1\AppData\Local\Temp\ccdovRCu.s:28492  .debug_str:000000000002034d .LASF5517
C:\Users\SOLDER~1\AppData\Local\Temp\ccdovRCu.s:21008  .debug_str:0000000000001d30 .LASF5518
C:\Users\SOLDER~1\AppData\Local\Temp\ccdovRCu.s:30660  .debug_str:000000000002908d .LASF5519
C:\Users\SOLDER~1\AppData\Local\Temp\ccdovRCu.s:27750  .debug_str:000000000001d334 .LASF5520
C:\Users\SOLDER~1\AppData\Local\Temp\ccdovRCu.s:31660  .debug_str:000000000002d138 .LASF5521
C:\Users\SOLDER~1\AppData\Local\Temp\ccdovRCu.s:22248  .debug_str:0000000000006c96 .LASF5522
C:\Users\SOLDER~1\AppData\Local\Temp\ccdovRCu.s:23560  .debug_str:000000000000c25c .LASF5523
C:\Users\SOLDER~1\AppData\Local\Temp\ccdovRCu.s:30902  .debug_str:0000000000029ff8 .LASF5524
C:\Users\SOLDER~1\AppData\Local\Temp\ccdovRCu.s:26690  .debug_str:0000000000018e2c .LASF5525
C:\Users\SOLDER~1\AppData\Local\Temp\ccdovRCu.s:29544  .debug_str:0000000000024707 .LASF5526
C:\Users\SOLDER~1\AppData\Local\Temp\ccdovRCu.s:27940  .debug_str:000000000001df36 .LASF5527
C:\Users\SOLDER~1\AppData\Local\Temp\ccdovRCu.s:26216  .debug_str:0000000000016f64 .LASF5528
C:\Users\SOLDER~1\AppData\Local\Temp\ccdovRCu.s:21904  .debug_str:00000000000055ab .LASF5529
C:\Users\SOLDER~1\AppData\Local\Temp\ccdovRCu.s:26080  .debug_str:000000000001672f .LASF5530
C:\Users\SOLDER~1\AppData\Local\Temp\ccdovRCu.s:30058  .debug_str:0000000000026935 .LASF5531
C:\Users\SOLDER~1\AppData\Local\Temp\ccdovRCu.s:24838  .debug_str:00000000000115ec .LASF5532
C:\Users\SOLDER~1\AppData\Local\Temp\ccdovRCu.s:27234  .debug_str:000000000001b1b6 .LASF5533
C:\Users\SOLDER~1\AppData\Local\Temp\ccdovRCu.s:20668  .debug_str:0000000000000732 .LASF5534
C:\Users\SOLDER~1\AppData\Local\Temp\ccdovRCu.s:23206  .debug_str:000000000000ab90 .LASF5535
C:\Users\SOLDER~1\AppData\Local\Temp\ccdovRCu.s:22352  .debug_str:00000000000073b1 .LASF5536
C:\Users\SOLDER~1\AppData\Local\Temp\ccdovRCu.s:22110  .debug_str:000000000000638d .LASF5537
C:\Users\SOLDER~1\AppData\Local\Temp\ccdovRCu.s:25394  .debug_str:00000000000139f3 .LASF5538
C:\Users\SOLDER~1\AppData\Local\Temp\ccdovRCu.s:23594  .debug_str:000000000000c4ca .LASF5539
C:\Users\SOLDER~1\AppData\Local\Temp\ccdovRCu.s:28698  .debug_str:0000000000021066 .LASF5540
C:\Users\SOLDER~1\AppData\Local\Temp\ccdovRCu.s:26306  .debug_str:0000000000017570 .LASF5541
C:\Users\SOLDER~1\AppData\Local\Temp\ccdovRCu.s:30578  .debug_str:0000000000028b69 .LASF5542
C:\Users\SOLDER~1\AppData\Local\Temp\ccdovRCu.s:26314  .debug_str:0000000000017602 .LASF5543
C:\Users\SOLDER~1\AppData\Local\Temp\ccdovRCu.s:31882  .debug_str:000000000002dfba .LASF5544
C:\Users\SOLDER~1\AppData\Local\Temp\ccdovRCu.s:26086  .debug_str:0000000000016773 .LASF5545
C:\Users\SOLDER~1\AppData\Local\Temp\ccdovRCu.s:27690  .debug_str:000000000001cf35 .LASF5546
C:\Users\SOLDER~1\AppData\Local\Temp\ccdovRCu.s:29294  .debug_str:00000000000236de .LASF5547
C:\Users\SOLDER~1\AppData\Local\Temp\ccdovRCu.s:24712  .debug_str:0000000000010d99 .LASF5548
C:\Users\SOLDER~1\AppData\Local\Temp\ccdovRCu.s:26586  .debug_str:000000000001875c .LASF5549
C:\Users\SOLDER~1\AppData\Local\Temp\ccdovRCu.s:22652  .debug_str:00000000000086bd .LASF5550
C:\Users\SOLDER~1\AppData\Local\Temp\ccdovRCu.s:25376  .debug_str:000000000001387d .LASF5551
C:\Users\SOLDER~1\AppData\Local\Temp\ccdovRCu.s:28862  .debug_str:0000000000021b08 .LASF5552
C:\Users\SOLDER~1\AppData\Local\Temp\ccdovRCu.s:31192  .debug_str:000000000002b2de .LASF5553
C:\Users\SOLDER~1\AppData\Local\Temp\ccdovRCu.s:23124  .debug_str:000000000000a5e8 .LASF5554
C:\Users\SOLDER~1\AppData\Local\Temp\ccdovRCu.s:28724  .debug_str:0000000000021202 .LASF5555
C:\Users\SOLDER~1\AppData\Local\Temp\ccdovRCu.s:25206  .debug_str:0000000000012d54 .LASF5556
C:\Users\SOLDER~1\AppData\Local\Temp\ccdovRCu.s:29558  .debug_str:0000000000024803 .LASF5557
C:\Users\SOLDER~1\AppData\Local\Temp\ccdovRCu.s:25694  .debug_str:0000000000014e79 .LASF5558
C:\Users\SOLDER~1\AppData\Local\Temp\ccdovRCu.s:29110  .debug_str:0000000000022aae .LASF5559
GAS LISTING C:\Users\SOLDER~1\AppData\Local\Temp\ccdovRCu.s 			page 150


C:\Users\SOLDER~1\AppData\Local\Temp\ccdovRCu.s:32090  .debug_str:000000000002ec9e .LASF5560
C:\Users\SOLDER~1\AppData\Local\Temp\ccdovRCu.s:27074  .debug_str:000000000001a700 .LASF5561
C:\Users\SOLDER~1\AppData\Local\Temp\ccdovRCu.s:30754  .debug_str:000000000002967e .LASF5562
C:\Users\SOLDER~1\AppData\Local\Temp\ccdovRCu.s:22260  .debug_str:0000000000006d6f .LASF5563
C:\Users\SOLDER~1\AppData\Local\Temp\ccdovRCu.s:25692  .debug_str:0000000000014e53 .LASF5564
C:\Users\SOLDER~1\AppData\Local\Temp\ccdovRCu.s:22256  .debug_str:0000000000006d32 .LASF5565
C:\Users\SOLDER~1\AppData\Local\Temp\ccdovRCu.s:29242  .debug_str:0000000000023357 .LASF5566
C:\Users\SOLDER~1\AppData\Local\Temp\ccdovRCu.s:31272  .debug_str:000000000002b815 .LASF5567
C:\Users\SOLDER~1\AppData\Local\Temp\ccdovRCu.s:21370  .debug_str:0000000000003485 .LASF5568
C:\Users\SOLDER~1\AppData\Local\Temp\ccdovRCu.s:31256  .debug_str:000000000002b707 .LASF5569
C:\Users\SOLDER~1\AppData\Local\Temp\ccdovRCu.s:28062  .debug_str:000000000001e6fc .LASF5570
C:\Users\SOLDER~1\AppData\Local\Temp\ccdovRCu.s:24560  .debug_str:00000000000103f3 .LASF5571
C:\Users\SOLDER~1\AppData\Local\Temp\ccdovRCu.s:22220  .debug_str:0000000000006adb .LASF5572
C:\Users\SOLDER~1\AppData\Local\Temp\ccdovRCu.s:21924  .debug_str:00000000000056e6 .LASF5573
C:\Users\SOLDER~1\AppData\Local\Temp\ccdovRCu.s:21154  .debug_str:0000000000002689 .LASF5574
C:\Users\SOLDER~1\AppData\Local\Temp\ccdovRCu.s:21372  .debug_str:00000000000034a6 .LASF5575
C:\Users\SOLDER~1\AppData\Local\Temp\ccdovRCu.s:24704  .debug_str:0000000000010d18 .LASF5576
C:\Users\SOLDER~1\AppData\Local\Temp\ccdovRCu.s:22832  .debug_str:0000000000009293 .LASF5577
C:\Users\SOLDER~1\AppData\Local\Temp\ccdovRCu.s:21928  .debug_str:0000000000005747 .LASF5578
C:\Users\SOLDER~1\AppData\Local\Temp\ccdovRCu.s:29912  .debug_str:0000000000025f40 .LASF5579
C:\Users\SOLDER~1\AppData\Local\Temp\ccdovRCu.s:23730  .debug_str:000000000000ce14 .LASF5580
C:\Users\SOLDER~1\AppData\Local\Temp\ccdovRCu.s:22304  .debug_str:000000000000709f .LASF5581
C:\Users\SOLDER~1\AppData\Local\Temp\ccdovRCu.s:32170  .debug_str:000000000002f181 .LASF5582
C:\Users\SOLDER~1\AppData\Local\Temp\ccdovRCu.s:22636  .debug_str:00000000000085b9 .LASF5583
C:\Users\SOLDER~1\AppData\Local\Temp\ccdovRCu.s:22316  .debug_str:0000000000007169 .LASF5584
C:\Users\SOLDER~1\AppData\Local\Temp\ccdovRCu.s:25994  .debug_str:00000000000161d1 .LASF5585
C:\Users\SOLDER~1\AppData\Local\Temp\ccdovRCu.s:31988  .debug_str:000000000002e619 .LASF5586
C:\Users\SOLDER~1\AppData\Local\Temp\ccdovRCu.s:31610  .debug_str:000000000002cdec .LASF5587
C:\Users\SOLDER~1\AppData\Local\Temp\ccdovRCu.s:25816  .debug_str:000000000001563c .LASF5588
C:\Users\SOLDER~1\AppData\Local\Temp\ccdovRCu.s:31784  .debug_str:000000000002d96c .LASF5589
C:\Users\SOLDER~1\AppData\Local\Temp\ccdovRCu.s:28242  .debug_str:000000000001f34c .LASF5590
C:\Users\SOLDER~1\AppData\Local\Temp\ccdovRCu.s:24740  .debug_str:0000000000010f78 .LASF5591
C:\Users\SOLDER~1\AppData\Local\Temp\ccdovRCu.s:29416  .debug_str:0000000000023e8e .LASF5592
C:\Users\SOLDER~1\AppData\Local\Temp\ccdovRCu.s:28928  .debug_str:0000000000021f52 .LASF5593
C:\Users\SOLDER~1\AppData\Local\Temp\ccdovRCu.s:21388  .debug_str:0000000000003586 .LASF5594
C:\Users\SOLDER~1\AppData\Local\Temp\ccdovRCu.s:27272  .debug_str:000000000001b3e6 .LASF5595
C:\Users\SOLDER~1\AppData\Local\Temp\ccdovRCu.s:25744  .debug_str:0000000000015191 .LASF5596
C:\Users\SOLDER~1\AppData\Local\Temp\ccdovRCu.s:27730  .debug_str:000000000001d1b4 .LASF5597
C:\Users\SOLDER~1\AppData\Local\Temp\ccdovRCu.s:31414  .debug_str:000000000002c175 .LASF5598
C:\Users\SOLDER~1\AppData\Local\Temp\ccdovRCu.s:29764  .debug_str:000000000002556a .LASF5599
C:\Users\SOLDER~1\AppData\Local\Temp\ccdovRCu.s:27176  .debug_str:000000000001adbe .LASF5600
C:\Users\SOLDER~1\AppData\Local\Temp\ccdovRCu.s:27168  .debug_str:000000000001ad30 .LASF5601
C:\Users\SOLDER~1\AppData\Local\Temp\ccdovRCu.s:27518  .debug_str:000000000001c380 .LASF5602
C:\Users\SOLDER~1\AppData\Local\Temp\ccdovRCu.s:25676  .debug_str:0000000000014d53 .LASF5603
C:\Users\SOLDER~1\AppData\Local\Temp\ccdovRCu.s:25112  .debug_str:0000000000012754 .LASF5604
C:\Users\SOLDER~1\AppData\Local\Temp\ccdovRCu.s:27174  .debug_str:000000000001ad9c .LASF5605
C:\Users\SOLDER~1\AppData\Local\Temp\ccdovRCu.s:31990  .debug_str:000000000002e63c .LASF5606
C:\Users\SOLDER~1\AppData\Local\Temp\ccdovRCu.s:31904  .debug_str:000000000002e130 .LASF5607
C:\Users\SOLDER~1\AppData\Local\Temp\ccdovRCu.s:24530  .debug_str:0000000000010202 .LASF5608
C:\Users\SOLDER~1\AppData\Local\Temp\ccdovRCu.s:31260  .debug_str:000000000002b74a .LASF5609
C:\Users\SOLDER~1\AppData\Local\Temp\ccdovRCu.s:27942  .debug_str:000000000001df65 .LASF5610
C:\Users\SOLDER~1\AppData\Local\Temp\ccdovRCu.s:24930  .debug_str:0000000000011ba3 .LASF5611
C:\Users\SOLDER~1\AppData\Local\Temp\ccdovRCu.s:22478  .debug_str:0000000000007b85 .LASF5612
C:\Users\SOLDER~1\AppData\Local\Temp\ccdovRCu.s:20830  .debug_str:00000000000011d5 .LASF5613
C:\Users\SOLDER~1\AppData\Local\Temp\ccdovRCu.s:29458  .debug_str:0000000000024167 .LASF5614
C:\Users\SOLDER~1\AppData\Local\Temp\ccdovRCu.s:25084  .debug_str:0000000000012555 .LASF5615
C:\Users\SOLDER~1\AppData\Local\Temp\ccdovRCu.s:24596  .debug_str:000000000001062f .LASF5616
GAS LISTING C:\Users\SOLDER~1\AppData\Local\Temp\ccdovRCu.s 			page 151


C:\Users\SOLDER~1\AppData\Local\Temp\ccdovRCu.s:21962  .debug_str:00000000000059bc .LASF5617
C:\Users\SOLDER~1\AppData\Local\Temp\ccdovRCu.s:31486  .debug_str:000000000002c65e .LASF5618
C:\Users\SOLDER~1\AppData\Local\Temp\ccdovRCu.s:23522  .debug_str:000000000000bfc9 .LASF5619
C:\Users\SOLDER~1\AppData\Local\Temp\ccdovRCu.s:23720  .debug_str:000000000000cd73 .LASF5620
C:\Users\SOLDER~1\AppData\Local\Temp\ccdovRCu.s:27856  .debug_str:000000000001d9f0 .LASF5621
C:\Users\SOLDER~1\AppData\Local\Temp\ccdovRCu.s:27248  .debug_str:000000000001b258 .LASF5622
C:\Users\SOLDER~1\AppData\Local\Temp\ccdovRCu.s:26724  .debug_str:0000000000019088 .LASF5623
C:\Users\SOLDER~1\AppData\Local\Temp\ccdovRCu.s:24520  .debug_str:0000000000010156 .LASF5624
C:\Users\SOLDER~1\AppData\Local\Temp\ccdovRCu.s:25042  .debug_str:00000000000122af .LASF5625
C:\Users\SOLDER~1\AppData\Local\Temp\ccdovRCu.s:30616  .debug_str:0000000000028ddc .LASF5626
C:\Users\SOLDER~1\AppData\Local\Temp\ccdovRCu.s:27362  .debug_str:000000000001b98f .LASF5627
C:\Users\SOLDER~1\AppData\Local\Temp\ccdovRCu.s:25298  .debug_str:0000000000013379 .LASF5628
C:\Users\SOLDER~1\AppData\Local\Temp\ccdovRCu.s:26250  .debug_str:00000000000171bd .LASF5629
C:\Users\SOLDER~1\AppData\Local\Temp\ccdovRCu.s:26572  .debug_str:0000000000018666 .LASF5630
C:\Users\SOLDER~1\AppData\Local\Temp\ccdovRCu.s:28348  .debug_str:000000000001fa61 .LASF5631
C:\Users\SOLDER~1\AppData\Local\Temp\ccdovRCu.s:26622  .debug_str:00000000000189b2 .LASF5632
C:\Users\SOLDER~1\AppData\Local\Temp\ccdovRCu.s:24292  .debug_str:000000000000f284 .LASF5633
C:\Users\SOLDER~1\AppData\Local\Temp\ccdovRCu.s:22866  .debug_str:0000000000009504 .LASF5634
C:\Users\SOLDER~1\AppData\Local\Temp\ccdovRCu.s:29410  .debug_str:0000000000023e3a .LASF5635
C:\Users\SOLDER~1\AppData\Local\Temp\ccdovRCu.s:30566  .debug_str:0000000000028aa1 .LASF5636
C:\Users\SOLDER~1\AppData\Local\Temp\ccdovRCu.s:28754  .debug_str:000000000002142a .LASF5637
C:\Users\SOLDER~1\AppData\Local\Temp\ccdovRCu.s:28752  .debug_str:000000000002140b .LASF5638
C:\Users\SOLDER~1\AppData\Local\Temp\ccdovRCu.s:20760  .debug_str:0000000000000db1 .LASF5639
C:\Users\SOLDER~1\AppData\Local\Temp\ccdovRCu.s:32146  .debug_str:000000000002effd .LASF5640
C:\Users\SOLDER~1\AppData\Local\Temp\ccdovRCu.s:27702  .debug_str:000000000001d010 .LASF5641
C:\Users\SOLDER~1\AppData\Local\Temp\ccdovRCu.s:25926  .debug_str:0000000000015d46 .LASF5642
C:\Users\SOLDER~1\AppData\Local\Temp\ccdovRCu.s:25310  .debug_str:0000000000013427 .LASF5643
C:\Users\SOLDER~1\AppData\Local\Temp\ccdovRCu.s:31374  .debug_str:000000000002bed1 .LASF5644
C:\Users\SOLDER~1\AppData\Local\Temp\ccdovRCu.s:23048  .debug_str:000000000000a0dd .LASF5645
C:\Users\SOLDER~1\AppData\Local\Temp\ccdovRCu.s:24954  .debug_str:0000000000011d4d .LASF5646
C:\Users\SOLDER~1\AppData\Local\Temp\ccdovRCu.s:30914  .debug_str:000000000002a0d3 .LASF5647
C:\Users\SOLDER~1\AppData\Local\Temp\ccdovRCu.s:27056  .debug_str:000000000001a5e0 .LASF5648
C:\Users\SOLDER~1\AppData\Local\Temp\ccdovRCu.s:20942  .debug_str:00000000000018cf .LASF5649
C:\Users\SOLDER~1\AppData\Local\Temp\ccdovRCu.s:28794  .debug_str:000000000002169f .LASF5650
C:\Users\SOLDER~1\AppData\Local\Temp\ccdovRCu.s:30412  .debug_str:0000000000028070 .LASF5651
C:\Users\SOLDER~1\AppData\Local\Temp\ccdovRCu.s:23308  .debug_str:000000000000b1f9 .LASF5652
C:\Users\SOLDER~1\AppData\Local\Temp\ccdovRCu.s:23664  .debug_str:000000000000c998 .LASF5653
C:\Users\SOLDER~1\AppData\Local\Temp\ccdovRCu.s:21242  .debug_str:0000000000002c19 .LASF5654
C:\Users\SOLDER~1\AppData\Local\Temp\ccdovRCu.s:29606  .debug_str:0000000000024b45 .LASF5655
C:\Users\SOLDER~1\AppData\Local\Temp\ccdovRCu.s:25684  .debug_str:0000000000014dd0 .LASF5656
C:\Users\SOLDER~1\AppData\Local\Temp\ccdovRCu.s:23190  .debug_str:000000000000aa8f .LASF5657
C:\Users\SOLDER~1\AppData\Local\Temp\ccdovRCu.s:30300  .debug_str:0000000000027901 .LASF5658
C:\Users\SOLDER~1\AppData\Local\Temp\ccdovRCu.s:29686  .debug_str:0000000000025088 .LASF5659
C:\Users\SOLDER~1\AppData\Local\Temp\ccdovRCu.s:27438  .debug_str:000000000001be07 .LASF5660
C:\Users\SOLDER~1\AppData\Local\Temp\ccdovRCu.s:23404  .debug_str:000000000000b821 .LASF5661
C:\Users\SOLDER~1\AppData\Local\Temp\ccdovRCu.s:25378  .debug_str:00000000000138b7 .LASF5662
C:\Users\SOLDER~1\AppData\Local\Temp\ccdovRCu.s:22744  .debug_str:0000000000008c93 .LASF5663
C:\Users\SOLDER~1\AppData\Local\Temp\ccdovRCu.s:30454  .debug_str:000000000002833c .LASF5664
C:\Users\SOLDER~1\AppData\Local\Temp\ccdovRCu.s:24934  .debug_str:0000000000011be9 .LASF5665
C:\Users\SOLDER~1\AppData\Local\Temp\ccdovRCu.s:28800  .debug_str:0000000000021716 .LASF5666
C:\Users\SOLDER~1\AppData\Local\Temp\ccdovRCu.s:20990  .debug_str:0000000000001c1a .LASF5667
C:\Users\SOLDER~1\AppData\Local\Temp\ccdovRCu.s:29172  .debug_str:0000000000022ecf .LASF5668
C:\Users\SOLDER~1\AppData\Local\Temp\ccdovRCu.s:27444  .debug_str:000000000001be7d .LASF5669
C:\Users\SOLDER~1\AppData\Local\Temp\ccdovRCu.s:27306  .debug_str:000000000001b5fc .LASF5670
C:\Users\SOLDER~1\AppData\Local\Temp\ccdovRCu.s:22554  .debug_str:0000000000008086 .LASF5671
C:\Users\SOLDER~1\AppData\Local\Temp\ccdovRCu.s:27768  .debug_str:000000000001d474 .LASF5672
C:\Users\SOLDER~1\AppData\Local\Temp\ccdovRCu.s:30018  .debug_str:00000000000266a5 .LASF5673
GAS LISTING C:\Users\SOLDER~1\AppData\Local\Temp\ccdovRCu.s 			page 152


C:\Users\SOLDER~1\AppData\Local\Temp\ccdovRCu.s:32066  .debug_str:000000000002eb07 .LASF5674
C:\Users\SOLDER~1\AppData\Local\Temp\ccdovRCu.s:23360  .debug_str:000000000000b59e .LASF5675
C:\Users\SOLDER~1\AppData\Local\Temp\ccdovRCu.s:23006  .debug_str:0000000000009e05 .LASF5676
C:\Users\SOLDER~1\AppData\Local\Temp\ccdovRCu.s:22720  .debug_str:0000000000008b1b .LASF5677
C:\Users\SOLDER~1\AppData\Local\Temp\ccdovRCu.s:29392  .debug_str:0000000000023cfb .LASF5678
C:\Users\SOLDER~1\AppData\Local\Temp\ccdovRCu.s:23002  .debug_str:0000000000009dad .LASF5679
C:\Users\SOLDER~1\AppData\Local\Temp\ccdovRCu.s:28188  .debug_str:000000000001efc2 .LASF5680
C:\Users\SOLDER~1\AppData\Local\Temp\ccdovRCu.s:27664  .debug_str:000000000001cd7f .LASF5681
C:\Users\SOLDER~1\AppData\Local\Temp\ccdovRCu.s:22810  .debug_str:000000000000913f .LASF5682
C:\Users\SOLDER~1\AppData\Local\Temp\ccdovRCu.s:30434  .debug_str:00000000000281d8 .LASF5683
C:\Users\SOLDER~1\AppData\Local\Temp\ccdovRCu.s:25576  .debug_str:00000000000146a7 .LASF5684
C:\Users\SOLDER~1\AppData\Local\Temp\ccdovRCu.s:30582  .debug_str:0000000000028bbd .LASF5685
C:\Users\SOLDER~1\AppData\Local\Temp\ccdovRCu.s:27278  .debug_str:000000000001b44f .LASF5686
C:\Users\SOLDER~1\AppData\Local\Temp\ccdovRCu.s:22556  .debug_str:00000000000080b4 .LASF5687
C:\Users\SOLDER~1\AppData\Local\Temp\ccdovRCu.s:26866  .debug_str:00000000000199c3 .LASF5688
C:\Users\SOLDER~1\AppData\Local\Temp\ccdovRCu.s:20754  .debug_str:0000000000000d32 .LASF5689
C:\Users\SOLDER~1\AppData\Local\Temp\ccdovRCu.s:27378  .debug_str:000000000001ba62 .LASF5690
C:\Users\SOLDER~1\AppData\Local\Temp\ccdovRCu.s:29474  .debug_str:0000000000024266 .LASF5691
C:\Users\SOLDER~1\AppData\Local\Temp\ccdovRCu.s:20938  .debug_str:0000000000001884 .LASF5692
C:\Users\SOLDER~1\AppData\Local\Temp\ccdovRCu.s:28372  .debug_str:000000000001fbd6 .LASF5693
C:\Users\SOLDER~1\AppData\Local\Temp\ccdovRCu.s:21474  .debug_str:0000000000003b0f .LASF5694
C:\Users\SOLDER~1\AppData\Local\Temp\ccdovRCu.s:21398  .debug_str:0000000000003616 .LASF5695
C:\Users\SOLDER~1\AppData\Local\Temp\ccdovRCu.s:29858  .debug_str:0000000000025ba4 .LASF5696
C:\Users\SOLDER~1\AppData\Local\Temp\ccdovRCu.s:27632  .debug_str:000000000001cb38 .LASF5697
C:\Users\SOLDER~1\AppData\Local\Temp\ccdovRCu.s:25040  .debug_str:000000000001228f .LASF5698
C:\Users\SOLDER~1\AppData\Local\Temp\ccdovRCu.s:30650  .debug_str:0000000000028ffd .LASF5699
C:\Users\SOLDER~1\AppData\Local\Temp\ccdovRCu.s:24562  .debug_str:0000000000010424 .LASF5700
C:\Users\SOLDER~1\AppData\Local\Temp\ccdovRCu.s:22222  .debug_str:0000000000006b0c .LASF5701
C:\Users\SOLDER~1\AppData\Local\Temp\ccdovRCu.s:27192  .debug_str:000000000001af0a .LASF5702
C:\Users\SOLDER~1\AppData\Local\Temp\ccdovRCu.s:21450  .debug_str:000000000000397e .LASF5703
C:\Users\SOLDER~1\AppData\Local\Temp\ccdovRCu.s:27382  .debug_str:000000000001baaf .LASF5704
C:\Users\SOLDER~1\AppData\Local\Temp\ccdovRCu.s:23536  .debug_str:000000000000c0a5 .LASF5705
C:\Users\SOLDER~1\AppData\Local\Temp\ccdovRCu.s:23260  .debug_str:000000000000af2e .LASF5706
C:\Users\SOLDER~1\AppData\Local\Temp\ccdovRCu.s:25018  .debug_str:000000000001211e .LASF5707
C:\Users\SOLDER~1\AppData\Local\Temp\ccdovRCu.s:32136  .debug_str:000000000002ef5f .LASF5708
C:\Users\SOLDER~1\AppData\Local\Temp\ccdovRCu.s:23758  .debug_str:000000000000cff6 .LASF5709
C:\Users\SOLDER~1\AppData\Local\Temp\ccdovRCu.s:24436  .debug_str:000000000000fbec .LASF5710
C:\Users\SOLDER~1\AppData\Local\Temp\ccdovRCu.s:24890  .debug_str:0000000000011913 .LASF5711
                           .group:0000000000000000 wm4.0.cc27e0d2094b492664a2491ca1ae43b0
                           .group:0000000000000000 wm4.ch32v20x.h.13.a030255a3e90e7179ae3b08da8e2408d
                           .group:0000000000000000 wm4._newlib_version.h.4.529115dae5e4f67702b1de0b6e841f38
                           .group:0000000000000000 wm4.features.h.33.3e67abe6fb64142d4f6fa9496796153c
                           .group:0000000000000000 wm4._default_types.h.15.247e5cd201eca3442cbf5404108c4935
                           .group:0000000000000000 wm4._intsup.h.10.48bafbb683905c4daa4565a85aeeb264
                           .group:0000000000000000 wm4._stdint.h.10.c24fa3af3bc1706662bb5593a907e841
                           .group:0000000000000000 wm4.stdint.h.23.d53047a68f4a85177f80b422d52785ed
                           .group:0000000000000000 wm4.core_riscv.h.11.151d7acb41e203dcc664023294f59bdc
                           .group:0000000000000000 wm4.ch32v20x.h.153.1d8393f26361703471ea96fe9aa4b4f9
                           .group:0000000000000000 wm4.ch32v20x_adc.h.56.f131972e7ce35efbe3b5c47a075d6d1b
                           .group:0000000000000000 wm4.ch32v20x_bkp.h.14.0a7965eb5be5000a494c3059b6f0eca5
                           .group:0000000000000000 wm4.ch32v20x_can.h.14.aa1dae2c28cbaf083875b4b61810c3c7
                           .group:0000000000000000 wm4.ch32v20x_dbgmcu.h.14.26ef95879978d9caaa154b373f3a512b
                           .group:0000000000000000 wm4.ch32v20x_dma.h.14.425a907348dd0134bf6e82c73bbd3df8
                           .group:0000000000000000 wm4.ch32v20x_exti.h.14.f67190d3fb91aa9aecce0f4d5a543221
                           .group:0000000000000000 wm4.ch32v20x_flash.h.14.91c5ecdad44f358d5032244aabf7ef4e
                           .group:0000000000000000 wm4.ch32v20x_i2c.h.14.101eb625c9d2afac400f4e8ac2e9fb1d
                           .group:0000000000000000 wm4.ch32v20x_iwdg.h.14.26025d04ceeb3151185969ed5850fbb4
GAS LISTING C:\Users\SOLDER~1\AppData\Local\Temp\ccdovRCu.s 			page 153


                           .group:0000000000000000 wm4.ch32v20x_pwr.h.14.8eaa3508938f71b27f140895c21602e6
                           .group:0000000000000000 wm4.ch32v20x_rcc.h.13.18c6b8696a30372de01acaf3c246ecb8
                           .group:0000000000000000 wm4.ch32v20x_rtc.h.14.eb8734f5dd75abcf831b4f12ec49aebe
                           .group:0000000000000000 wm4.ch32v20x_spi.h.14.f12b1f237c615e7304ae62cc2e2c3c1a
                           .group:0000000000000000 wm4.ch32v20x_tim.h.14.35d11fab62898d9d661122ade86d8a6c
                           .group:0000000000000000 wm4.ch32v20x_usart.h.14.9d28c7ec28f2121810b69a55079cd38f
                           .group:0000000000000000 wm4.ch32v20x_wwdg.h.14.49bada437175894a4dce7e12e4216bc9
                           .group:0000000000000000 wm4.ch32v20x_misc.h.14.f3992cf724c30ec0bea268444ffdb6e0
                           .group:0000000000000000 wm4.ch32v20x_gpio.h.64.a7ed87bf907c4da600391d06f1ffdda4

UNDEFINED SYMBOLS
RCC_APB2PeriphResetCmd
