GAS LISTING C:\Users\SOLDER~1\AppData\Local\Temp\ccgE0nth.s 			page 1


   1              		.file	"ch32v20x_rtc.c"
   2              		.option nopic
   3              		.attribute arch, "rv32i2p0_m2p0_a2p0_c2p0_xw"
   4              		.attribute unaligned_access, 0
   5              		.attribute stack_align, 16
   6              		.text
   7              	.Ltext0:
   8              		.cfi_sections	.debug_frame
   9              		.file 0 "C:\\Users\\Solderingiron\\Documents\\GitHub\\VSC-make-example\\VSC_CH32V203C8T6" "Drivers
  10              		.section	.text.RTC_ITConfig,"ax",@progbits
  11              		.align	1
  12              		.globl	RTC_ITConfig
  14              	RTC_ITConfig:
  15              	.LFB16:
  16              		.file 1 "Drivers/src/ch32v20x_rtc.c"
   1:Drivers/src/ch32v20x_rtc.c **** /********************************** (C) COPYRIGHT *******************************
   2:Drivers/src/ch32v20x_rtc.c ****  * File Name          : ch32v20x_rtc.c
   3:Drivers/src/ch32v20x_rtc.c ****  * Author             : WCH
   4:Drivers/src/ch32v20x_rtc.c ****  * Version            : V1.0.0
   5:Drivers/src/ch32v20x_rtc.c ****  * Date               : 2021/06/06
   6:Drivers/src/ch32v20x_rtc.c ****  * Description        : This file provides all the RTC firmware functions.
   7:Drivers/src/ch32v20x_rtc.c **** *********************************************************************************
   8:Drivers/src/ch32v20x_rtc.c **** * Copyright (c) 2021 Nanjing Qinheng Microelectronics Co., Ltd.
   9:Drivers/src/ch32v20x_rtc.c **** * Attention: This software (modified or not) and binary are used for 
  10:Drivers/src/ch32v20x_rtc.c **** * microcontroller manufactured by Nanjing Qinheng Microelectronics.
  11:Drivers/src/ch32v20x_rtc.c **** *******************************************************************************/
  12:Drivers/src/ch32v20x_rtc.c **** #include "ch32v20x_rtc.h"
  13:Drivers/src/ch32v20x_rtc.c **** 
  14:Drivers/src/ch32v20x_rtc.c **** /* RTC_Private_Defines */
  15:Drivers/src/ch32v20x_rtc.c **** #define RTC_LSB_MASK     ((uint32_t)0x0000FFFF) /* RTC LSB Mask */
  16:Drivers/src/ch32v20x_rtc.c **** #define PRLH_MSB_MASK    ((uint32_t)0x000F0000) /* RTC Prescaler MSB Mask */
  17:Drivers/src/ch32v20x_rtc.c **** 
  18:Drivers/src/ch32v20x_rtc.c **** /*********************************************************************
  19:Drivers/src/ch32v20x_rtc.c ****  * @fn      RTC_ITConfig
  20:Drivers/src/ch32v20x_rtc.c ****  *
  21:Drivers/src/ch32v20x_rtc.c ****  * @brief   Enables or disables the specified RTC interrupts.
  22:Drivers/src/ch32v20x_rtc.c ****  *
  23:Drivers/src/ch32v20x_rtc.c ****  * @param   RTC_IT - specifies the RTC interrupts sources to be enabled or disabled.
  24:Drivers/src/ch32v20x_rtc.c ****  *            RTC_IT_OW - Overflow interrupt
  25:Drivers/src/ch32v20x_rtc.c ****  *            RTC_IT_ALR - Alarm interrupt
  26:Drivers/src/ch32v20x_rtc.c ****  *            RTC_IT_SEC - Second interrupt
  27:Drivers/src/ch32v20x_rtc.c ****  *
  28:Drivers/src/ch32v20x_rtc.c ****  * @return  NewState - new state of the specified RTC interrupts(ENABLE or DISABLE).
  29:Drivers/src/ch32v20x_rtc.c ****  */
  30:Drivers/src/ch32v20x_rtc.c **** void RTC_ITConfig(uint16_t RTC_IT, FunctionalState NewState)
  31:Drivers/src/ch32v20x_rtc.c **** {
  17              		.loc 1 31 1
  18              		.cfi_startproc
  19 0000 0111     		addi	sp,sp,-32
  20              		.cfi_def_cfa_offset 32
  21 0002 22CE     		sw	s0,28(sp)
  22              		.cfi_offset 8, -4
  23 0004 0010     		addi	s0,sp,32
  24              		.cfi_def_cfa 8, 0
  25 0006 AA87     		mv	a5,a0
  26 0008 2324B4FE 		sw	a1,-24(s0)
  27 000c 2317F4FE 		sh	a5,-18(s0)
GAS LISTING C:\Users\SOLDER~1\AppData\Local\Temp\ccgE0nth.s 			page 2


  32:Drivers/src/ch32v20x_rtc.c ****     if(NewState != DISABLE)
  28              		.loc 1 32 7
  29 0010 832784FE 		lw	a5,-24(s0)
  30 0014 85C7     		beq	a5,zero,.L2
  33:Drivers/src/ch32v20x_rtc.c ****     {
  34:Drivers/src/ch32v20x_rtc.c ****         RTC->CTLRH |= RTC_IT;
  31              		.loc 1 34 12
  32 0016 B7370040 		li	a5,1073754112
  33 001a 93870780 		addi	a5,a5,-2048
  34 001e 9E23     		lhu	a5,0(a5)
  35 0020 13970701 		slli	a4,a5,16
  36 0024 4183     		srli	a4,a4,16
  37 0026 B7370040 		li	a5,1073754112
  38 002a 93870780 		addi	a5,a5,-2048
  39              		.loc 1 34 20
  40 002e 8356E4FE 		lhu	a3,-18(s0)
  41 0032 558F     		or	a4,a4,a3
  42 0034 4207     		slli	a4,a4,16
  43 0036 4183     		srli	a4,a4,16
  44 0038 9AA3     		sh	a4,0(a5)
  35:Drivers/src/ch32v20x_rtc.c ****     }
  36:Drivers/src/ch32v20x_rtc.c ****     else
  37:Drivers/src/ch32v20x_rtc.c ****     {
  38:Drivers/src/ch32v20x_rtc.c ****         RTC->CTLRH &= (uint16_t)~RTC_IT;
  39:Drivers/src/ch32v20x_rtc.c ****     }
  40:Drivers/src/ch32v20x_rtc.c **** }
  45              		.loc 1 40 1
  46 003a 05A8     		j	.L4
  47              	.L2:
  38:Drivers/src/ch32v20x_rtc.c ****     }
  48              		.loc 1 38 12
  49 003c B7370040 		li	a5,1073754112
  50 0040 93870780 		addi	a5,a5,-2048
  51 0044 9E23     		lhu	a5,0(a5)
  52 0046 93960701 		slli	a3,a5,16
  53 004a C182     		srli	a3,a3,16
  38:Drivers/src/ch32v20x_rtc.c ****     }
  54              		.loc 1 38 23
  55 004c 8357E4FE 		lhu	a5,-18(s0)
  56 0050 93C7F7FF 		not	a5,a5
  57 0054 13970701 		slli	a4,a5,16
  58 0058 4183     		srli	a4,a4,16
  38:Drivers/src/ch32v20x_rtc.c ****     }
  59              		.loc 1 38 12
  60 005a B7370040 		li	a5,1073754112
  61 005e 93870780 		addi	a5,a5,-2048
  38:Drivers/src/ch32v20x_rtc.c ****     }
  62              		.loc 1 38 20
  63 0062 758F     		and	a4,a3,a4
  64 0064 4207     		slli	a4,a4,16
  65 0066 4183     		srli	a4,a4,16
  66 0068 9AA3     		sh	a4,0(a5)
  67              	.L4:
  68              		.loc 1 40 1
  69 006a 0100     		nop
  70 006c 7244     		lw	s0,28(sp)
  71              		.cfi_restore 8
GAS LISTING C:\Users\SOLDER~1\AppData\Local\Temp\ccgE0nth.s 			page 3


  72              		.cfi_def_cfa 2, 32
  73 006e 0561     		addi	sp,sp,32
  74              		.cfi_def_cfa_offset 0
  75 0070 8280     		jr	ra
  76              		.cfi_endproc
  77              	.LFE16:
  79              		.section	.text.RTC_EnterConfigMode,"ax",@progbits
  80              		.align	1
  81              		.globl	RTC_EnterConfigMode
  83              	RTC_EnterConfigMode:
  84              	.LFB17:
  41:Drivers/src/ch32v20x_rtc.c **** 
  42:Drivers/src/ch32v20x_rtc.c **** /*********************************************************************
  43:Drivers/src/ch32v20x_rtc.c ****  * @fn      RTC_EnterConfigMode
  44:Drivers/src/ch32v20x_rtc.c ****  *
  45:Drivers/src/ch32v20x_rtc.c ****  * @brief   Enters the RTC configuration mode.
  46:Drivers/src/ch32v20x_rtc.c ****  *
  47:Drivers/src/ch32v20x_rtc.c ****  * @return  none
  48:Drivers/src/ch32v20x_rtc.c ****  */
  49:Drivers/src/ch32v20x_rtc.c **** void RTC_EnterConfigMode(void)
  50:Drivers/src/ch32v20x_rtc.c **** {
  85              		.loc 1 50 1
  86              		.cfi_startproc
  87 0000 4111     		addi	sp,sp,-16
  88              		.cfi_def_cfa_offset 16
  89 0002 22C6     		sw	s0,12(sp)
  90              		.cfi_offset 8, -4
  91 0004 0008     		addi	s0,sp,16
  92              		.cfi_def_cfa 8, 0
  51:Drivers/src/ch32v20x_rtc.c ****     RTC->CTLRL |= RTC_CTLRL_CNF;
  93              		.loc 1 51 8
  94 0006 B7370040 		li	a5,1073754112
  95 000a 93870780 		addi	a5,a5,-2048
  96 000e DE23     		lhu	a5,4(a5)
  97 0010 13970701 		slli	a4,a5,16
  98 0014 4183     		srli	a4,a4,16
  99 0016 B7370040 		li	a5,1073754112
 100 001a 93870780 		addi	a5,a5,-2048
 101              		.loc 1 51 16
 102 001e 13670701 		ori	a4,a4,16
 103 0022 4207     		slli	a4,a4,16
 104 0024 4183     		srli	a4,a4,16
 105 0026 DAA3     		sh	a4,4(a5)
  52:Drivers/src/ch32v20x_rtc.c **** }
 106              		.loc 1 52 1
 107 0028 0100     		nop
 108 002a 3244     		lw	s0,12(sp)
 109              		.cfi_restore 8
 110              		.cfi_def_cfa 2, 16
 111 002c 4101     		addi	sp,sp,16
 112              		.cfi_def_cfa_offset 0
 113 002e 8280     		jr	ra
 114              		.cfi_endproc
 115              	.LFE17:
 117              		.section	.text.RTC_ExitConfigMode,"ax",@progbits
 118              		.align	1
 119              		.globl	RTC_ExitConfigMode
GAS LISTING C:\Users\SOLDER~1\AppData\Local\Temp\ccgE0nth.s 			page 4


 121              	RTC_ExitConfigMode:
 122              	.LFB18:
  53:Drivers/src/ch32v20x_rtc.c **** 
  54:Drivers/src/ch32v20x_rtc.c **** /*********************************************************************
  55:Drivers/src/ch32v20x_rtc.c ****  * @fn      RTC_ExitConfigMode
  56:Drivers/src/ch32v20x_rtc.c ****  *
  57:Drivers/src/ch32v20x_rtc.c ****  * @brief   Exits from the RTC configuration mode.
  58:Drivers/src/ch32v20x_rtc.c ****  *
  59:Drivers/src/ch32v20x_rtc.c ****  * @return  none
  60:Drivers/src/ch32v20x_rtc.c ****  */
  61:Drivers/src/ch32v20x_rtc.c **** void RTC_ExitConfigMode(void)
  62:Drivers/src/ch32v20x_rtc.c **** {
 123              		.loc 1 62 1
 124              		.cfi_startproc
 125 0000 4111     		addi	sp,sp,-16
 126              		.cfi_def_cfa_offset 16
 127 0002 22C6     		sw	s0,12(sp)
 128              		.cfi_offset 8, -4
 129 0004 0008     		addi	s0,sp,16
 130              		.cfi_def_cfa 8, 0
  63:Drivers/src/ch32v20x_rtc.c ****     RTC->CTLRL &= (uint16_t) ~((uint16_t)RTC_CTLRL_CNF);
 131              		.loc 1 63 8
 132 0006 B7370040 		li	a5,1073754112
 133 000a 93870780 		addi	a5,a5,-2048
 134 000e DE23     		lhu	a5,4(a5)
 135 0010 13970701 		slli	a4,a5,16
 136 0014 4183     		srli	a4,a4,16
 137 0016 B7370040 		li	a5,1073754112
 138 001a 93870780 		addi	a5,a5,-2048
 139              		.loc 1 63 16
 140 001e 3D9B     		andi	a4,a4,-17
 141 0020 4207     		slli	a4,a4,16
 142 0022 4183     		srli	a4,a4,16
 143 0024 DAA3     		sh	a4,4(a5)
  64:Drivers/src/ch32v20x_rtc.c **** }
 144              		.loc 1 64 1
 145 0026 0100     		nop
 146 0028 3244     		lw	s0,12(sp)
 147              		.cfi_restore 8
 148              		.cfi_def_cfa 2, 16
 149 002a 4101     		addi	sp,sp,16
 150              		.cfi_def_cfa_offset 0
 151 002c 8280     		jr	ra
 152              		.cfi_endproc
 153              	.LFE18:
 155              		.section	.text.RTC_GetCounter,"ax",@progbits
 156              		.align	1
 157              		.globl	RTC_GetCounter
 159              	RTC_GetCounter:
 160              	.LFB19:
  65:Drivers/src/ch32v20x_rtc.c **** 
  66:Drivers/src/ch32v20x_rtc.c **** /*********************************************************************
  67:Drivers/src/ch32v20x_rtc.c ****  * @fn      RTC_GetCounter
  68:Drivers/src/ch32v20x_rtc.c ****  *
  69:Drivers/src/ch32v20x_rtc.c ****  * @brief   Gets the RTC counter value
  70:Drivers/src/ch32v20x_rtc.c ****  *
  71:Drivers/src/ch32v20x_rtc.c ****  * @return  RTC counter value
GAS LISTING C:\Users\SOLDER~1\AppData\Local\Temp\ccgE0nth.s 			page 5


  72:Drivers/src/ch32v20x_rtc.c ****  */
  73:Drivers/src/ch32v20x_rtc.c **** uint32_t RTC_GetCounter(void)
  74:Drivers/src/ch32v20x_rtc.c **** {
 161              		.loc 1 74 1
 162              		.cfi_startproc
 163 0000 0111     		addi	sp,sp,-32
 164              		.cfi_def_cfa_offset 32
 165 0002 22CE     		sw	s0,28(sp)
 166              		.cfi_offset 8, -4
 167 0004 0010     		addi	s0,sp,32
 168              		.cfi_def_cfa 8, 0
  75:Drivers/src/ch32v20x_rtc.c ****     uint16_t high1 = 0, high2 = 0, low = 0;
 169              		.loc 1 75 14
 170 0006 231704FE 		sh	zero,-18(s0)
 171              		.loc 1 75 25
 172 000a 231604FE 		sh	zero,-20(s0)
 173              		.loc 1 75 36
 174 000e 231504FE 		sh	zero,-22(s0)
  76:Drivers/src/ch32v20x_rtc.c **** 
  77:Drivers/src/ch32v20x_rtc.c ****     high1 = RTC->CNTH;
 175              		.loc 1 77 16
 176 0012 B7370040 		li	a5,1073754112
 177 0016 93870780 		addi	a5,a5,-2048
 178              		.loc 1 77 11
 179 001a 9E2F     		lhu	a5,24(a5)
 180 001c 2317F4FE 		sh	a5,-18(s0)
  78:Drivers/src/ch32v20x_rtc.c ****     low = RTC->CNTL;
 181              		.loc 1 78 14
 182 0020 B7370040 		li	a5,1073754112
 183 0024 93870780 		addi	a5,a5,-2048
 184              		.loc 1 78 9
 185 0028 DE2F     		lhu	a5,28(a5)
 186 002a 2315F4FE 		sh	a5,-22(s0)
  79:Drivers/src/ch32v20x_rtc.c ****     high2 = RTC->CNTH;
 187              		.loc 1 79 16
 188 002e B7370040 		li	a5,1073754112
 189 0032 93870780 		addi	a5,a5,-2048
 190              		.loc 1 79 11
 191 0036 9E2F     		lhu	a5,24(a5)
 192 0038 2316F4FE 		sh	a5,-20(s0)
  80:Drivers/src/ch32v20x_rtc.c **** 
  81:Drivers/src/ch32v20x_rtc.c ****     if(high1 != high2)
 193              		.loc 1 81 7
 194 003c 0357E4FE 		lhu	a4,-18(s0)
 195 0040 8357C4FE 		lhu	a5,-20(s0)
 196 0044 630EF700 		beq	a4,a5,.L8
  82:Drivers/src/ch32v20x_rtc.c ****     {
  83:Drivers/src/ch32v20x_rtc.c ****         return (((uint32_t)high2 << 16) | RTC->CNTL);
 197              		.loc 1 83 18
 198 0048 8357C4FE 		lhu	a5,-20(s0)
 199              		.loc 1 83 34
 200 004c C207     		slli	a5,a5,16
 201              		.loc 1 83 46
 202 004e 37370040 		li	a4,1073754112
 203 0052 13070780 		addi	a4,a4,-2048
 204 0056 5A2F     		lhu	a4,28(a4)
 205 0058 4207     		slli	a4,a4,16
GAS LISTING C:\Users\SOLDER~1\AppData\Local\Temp\ccgE0nth.s 			page 6


 206 005a 4183     		srli	a4,a4,16
 207              		.loc 1 83 41
 208 005c D98F     		or	a5,a5,a4
 209 005e 01A8     		j	.L9
 210              	.L8:
  84:Drivers/src/ch32v20x_rtc.c ****     }
  85:Drivers/src/ch32v20x_rtc.c ****     else
  86:Drivers/src/ch32v20x_rtc.c ****     {
  87:Drivers/src/ch32v20x_rtc.c ****         return (((uint32_t)high1 << 16) | low);
 211              		.loc 1 87 18
 212 0060 8357E4FE 		lhu	a5,-18(s0)
 213              		.loc 1 87 34
 214 0064 13970701 		slli	a4,a5,16
 215              		.loc 1 87 41
 216 0068 8357A4FE 		lhu	a5,-22(s0)
 217 006c D98F     		or	a5,a4,a5
 218              	.L9:
  88:Drivers/src/ch32v20x_rtc.c ****     }
  89:Drivers/src/ch32v20x_rtc.c **** }
 219              		.loc 1 89 1
 220 006e 3E85     		mv	a0,a5
 221 0070 7244     		lw	s0,28(sp)
 222              		.cfi_restore 8
 223              		.cfi_def_cfa 2, 32
 224 0072 0561     		addi	sp,sp,32
 225              		.cfi_def_cfa_offset 0
 226 0074 8280     		jr	ra
 227              		.cfi_endproc
 228              	.LFE19:
 230              		.section	.text.RTC_SetCounter,"ax",@progbits
 231              		.align	1
 232              		.globl	RTC_SetCounter
 234              	RTC_SetCounter:
 235              	.LFB20:
  90:Drivers/src/ch32v20x_rtc.c **** 
  91:Drivers/src/ch32v20x_rtc.c **** /*********************************************************************
  92:Drivers/src/ch32v20x_rtc.c ****  * @fn      RTC_SetCounter
  93:Drivers/src/ch32v20x_rtc.c ****  *
  94:Drivers/src/ch32v20x_rtc.c ****  * @brief   Sets the RTC counter value.
  95:Drivers/src/ch32v20x_rtc.c ****  *
  96:Drivers/src/ch32v20x_rtc.c ****  * @param   CounterValue - RTC counter new value.
  97:Drivers/src/ch32v20x_rtc.c ****  *
  98:Drivers/src/ch32v20x_rtc.c ****  * @return  RTC counter value
  99:Drivers/src/ch32v20x_rtc.c ****  */
 100:Drivers/src/ch32v20x_rtc.c **** void RTC_SetCounter(uint32_t CounterValue)
 101:Drivers/src/ch32v20x_rtc.c **** {
 236              		.loc 1 101 1
 237              		.cfi_startproc
 238 0000 0111     		addi	sp,sp,-32
 239              		.cfi_def_cfa_offset 32
 240 0002 06CE     		sw	ra,28(sp)
 241 0004 22CC     		sw	s0,24(sp)
 242              		.cfi_offset 1, -4
 243              		.cfi_offset 8, -8
 244 0006 0010     		addi	s0,sp,32
 245              		.cfi_def_cfa 8, 0
 246 0008 2326A4FE 		sw	a0,-20(s0)
GAS LISTING C:\Users\SOLDER~1\AppData\Local\Temp\ccgE0nth.s 			page 7


 102:Drivers/src/ch32v20x_rtc.c ****     RTC_EnterConfigMode();
 247              		.loc 1 102 5
 248 000c 97000000 		call	RTC_EnterConfigMode
 248      E7800000 
 103:Drivers/src/ch32v20x_rtc.c ****     RTC->CNTH = CounterValue >> 16;
 249              		.loc 1 103 30
 250 0014 8327C4FE 		lw	a5,-20(s0)
 251 0018 13D70701 		srli	a4,a5,16
 252              		.loc 1 103 8
 253 001c B7370040 		li	a5,1073754112
 254 0020 93870780 		addi	a5,a5,-2048
 255              		.loc 1 103 15
 256 0024 4207     		slli	a4,a4,16
 257 0026 4183     		srli	a4,a4,16
 258 0028 9AAF     		sh	a4,24(a5)
 104:Drivers/src/ch32v20x_rtc.c ****     RTC->CNTL = (CounterValue & RTC_LSB_MASK);
 259              		.loc 1 104 8
 260 002a B7370040 		li	a5,1073754112
 261 002e 93870780 		addi	a5,a5,-2048
 262              		.loc 1 104 15
 263 0032 0327C4FE 		lw	a4,-20(s0)
 264 0036 4207     		slli	a4,a4,16
 265 0038 4183     		srli	a4,a4,16
 266 003a DAAF     		sh	a4,28(a5)
 105:Drivers/src/ch32v20x_rtc.c ****     RTC_ExitConfigMode();
 267              		.loc 1 105 5
 268 003c 97000000 		call	RTC_ExitConfigMode
 268      E7800000 
 106:Drivers/src/ch32v20x_rtc.c **** }
 269              		.loc 1 106 1
 270 0044 0100     		nop
 271 0046 F240     		lw	ra,28(sp)
 272              		.cfi_restore 1
 273 0048 6244     		lw	s0,24(sp)
 274              		.cfi_restore 8
 275              		.cfi_def_cfa 2, 32
 276 004a 0561     		addi	sp,sp,32
 277              		.cfi_def_cfa_offset 0
 278 004c 8280     		jr	ra
 279              		.cfi_endproc
 280              	.LFE20:
 282              		.section	.text.RTC_SetPrescaler,"ax",@progbits
 283              		.align	1
 284              		.globl	RTC_SetPrescaler
 286              	RTC_SetPrescaler:
 287              	.LFB21:
 107:Drivers/src/ch32v20x_rtc.c **** 
 108:Drivers/src/ch32v20x_rtc.c **** /*********************************************************************
 109:Drivers/src/ch32v20x_rtc.c ****  * @fn      RTC_SetPrescaler
 110:Drivers/src/ch32v20x_rtc.c ****  *
 111:Drivers/src/ch32v20x_rtc.c ****  * @brief   Sets the RTC prescaler value
 112:Drivers/src/ch32v20x_rtc.c ****  *
 113:Drivers/src/ch32v20x_rtc.c ****  * @param   PrescalerValue - RTC prescaler new value
 114:Drivers/src/ch32v20x_rtc.c ****  *
 115:Drivers/src/ch32v20x_rtc.c ****  * @return  none
 116:Drivers/src/ch32v20x_rtc.c ****  */
 117:Drivers/src/ch32v20x_rtc.c **** void RTC_SetPrescaler(uint32_t PrescalerValue)
GAS LISTING C:\Users\SOLDER~1\AppData\Local\Temp\ccgE0nth.s 			page 8


 118:Drivers/src/ch32v20x_rtc.c **** {
 288              		.loc 1 118 1
 289              		.cfi_startproc
 290 0000 0111     		addi	sp,sp,-32
 291              		.cfi_def_cfa_offset 32
 292 0002 06CE     		sw	ra,28(sp)
 293 0004 22CC     		sw	s0,24(sp)
 294              		.cfi_offset 1, -4
 295              		.cfi_offset 8, -8
 296 0006 0010     		addi	s0,sp,32
 297              		.cfi_def_cfa 8, 0
 298 0008 2326A4FE 		sw	a0,-20(s0)
 119:Drivers/src/ch32v20x_rtc.c ****     RTC_EnterConfigMode();
 299              		.loc 1 119 5
 300 000c 97000000 		call	RTC_EnterConfigMode
 300      E7800000 
 120:Drivers/src/ch32v20x_rtc.c ****     RTC->PSCRH = (PrescalerValue & PRLH_MSB_MASK) >> 16;
 301              		.loc 1 120 51
 302 0014 8327C4FE 		lw	a5,-20(s0)
 303 0018 C183     		srli	a5,a5,16
 304 001a 13970701 		slli	a4,a5,16
 305 001e 4183     		srli	a4,a4,16
 306              		.loc 1 120 8
 307 0020 B7370040 		li	a5,1073754112
 308 0024 93870780 		addi	a5,a5,-2048
 309              		.loc 1 120 51
 310 0028 3D8B     		andi	a4,a4,15
 311 002a 4207     		slli	a4,a4,16
 312 002c 4183     		srli	a4,a4,16
 313              		.loc 1 120 16
 314 002e 9AA7     		sh	a4,8(a5)
 121:Drivers/src/ch32v20x_rtc.c ****     RTC->PSCRL = (PrescalerValue & RTC_LSB_MASK);
 315              		.loc 1 121 8
 316 0030 B7370040 		li	a5,1073754112
 317 0034 93870780 		addi	a5,a5,-2048
 318              		.loc 1 121 16
 319 0038 0327C4FE 		lw	a4,-20(s0)
 320 003c 4207     		slli	a4,a4,16
 321 003e 4183     		srli	a4,a4,16
 322 0040 DAA7     		sh	a4,12(a5)
 122:Drivers/src/ch32v20x_rtc.c ****     RTC_ExitConfigMode();
 323              		.loc 1 122 5
 324 0042 97000000 		call	RTC_ExitConfigMode
 324      E7800000 
 123:Drivers/src/ch32v20x_rtc.c **** }
 325              		.loc 1 123 1
 326 004a 0100     		nop
 327 004c F240     		lw	ra,28(sp)
 328              		.cfi_restore 1
 329 004e 6244     		lw	s0,24(sp)
 330              		.cfi_restore 8
 331              		.cfi_def_cfa 2, 32
 332 0050 0561     		addi	sp,sp,32
 333              		.cfi_def_cfa_offset 0
 334 0052 8280     		jr	ra
 335              		.cfi_endproc
 336              	.LFE21:
GAS LISTING C:\Users\SOLDER~1\AppData\Local\Temp\ccgE0nth.s 			page 9


 338              		.section	.text.RTC_SetAlarm,"ax",@progbits
 339              		.align	1
 340              		.globl	RTC_SetAlarm
 342              	RTC_SetAlarm:
 343              	.LFB22:
 124:Drivers/src/ch32v20x_rtc.c **** 
 125:Drivers/src/ch32v20x_rtc.c **** /*********************************************************************
 126:Drivers/src/ch32v20x_rtc.c ****  * @fn      RTC_SetAlarm
 127:Drivers/src/ch32v20x_rtc.c ****  *
 128:Drivers/src/ch32v20x_rtc.c ****  * @brief   Sets the RTC alarm value
 129:Drivers/src/ch32v20x_rtc.c ****  *
 130:Drivers/src/ch32v20x_rtc.c ****  * @param   AlarmValue - RTC alarm new value
 131:Drivers/src/ch32v20x_rtc.c ****  *
 132:Drivers/src/ch32v20x_rtc.c ****  * @return  none
 133:Drivers/src/ch32v20x_rtc.c ****  */
 134:Drivers/src/ch32v20x_rtc.c **** void RTC_SetAlarm(uint32_t AlarmValue)
 135:Drivers/src/ch32v20x_rtc.c **** {
 344              		.loc 1 135 1
 345              		.cfi_startproc
 346 0000 0111     		addi	sp,sp,-32
 347              		.cfi_def_cfa_offset 32
 348 0002 06CE     		sw	ra,28(sp)
 349 0004 22CC     		sw	s0,24(sp)
 350              		.cfi_offset 1, -4
 351              		.cfi_offset 8, -8
 352 0006 0010     		addi	s0,sp,32
 353              		.cfi_def_cfa 8, 0
 354 0008 2326A4FE 		sw	a0,-20(s0)
 136:Drivers/src/ch32v20x_rtc.c ****     RTC_EnterConfigMode();
 355              		.loc 1 136 5
 356 000c 97000000 		call	RTC_EnterConfigMode
 356      E7800000 
 137:Drivers/src/ch32v20x_rtc.c ****     RTC->ALRMH = AlarmValue >> 16;
 357              		.loc 1 137 29
 358 0014 8327C4FE 		lw	a5,-20(s0)
 359 0018 13D70701 		srli	a4,a5,16
 360              		.loc 1 137 8
 361 001c B7370040 		li	a5,1073754112
 362 0020 93870780 		addi	a5,a5,-2048
 363              		.loc 1 137 16
 364 0024 4207     		slli	a4,a4,16
 365 0026 4183     		srli	a4,a4,16
 366 0028 9AB3     		sh	a4,32(a5)
 138:Drivers/src/ch32v20x_rtc.c ****     RTC->ALRML = (AlarmValue & RTC_LSB_MASK);
 367              		.loc 1 138 8
 368 002a B7370040 		li	a5,1073754112
 369 002e 93870780 		addi	a5,a5,-2048
 370              		.loc 1 138 16
 371 0032 0327C4FE 		lw	a4,-20(s0)
 372 0036 4207     		slli	a4,a4,16
 373 0038 4183     		srli	a4,a4,16
 374 003a DAB3     		sh	a4,36(a5)
 139:Drivers/src/ch32v20x_rtc.c ****     RTC_ExitConfigMode();
 375              		.loc 1 139 5
 376 003c 97000000 		call	RTC_ExitConfigMode
 376      E7800000 
 140:Drivers/src/ch32v20x_rtc.c **** }
GAS LISTING C:\Users\SOLDER~1\AppData\Local\Temp\ccgE0nth.s 			page 10


 377              		.loc 1 140 1
 378 0044 0100     		nop
 379 0046 F240     		lw	ra,28(sp)
 380              		.cfi_restore 1
 381 0048 6244     		lw	s0,24(sp)
 382              		.cfi_restore 8
 383              		.cfi_def_cfa 2, 32
 384 004a 0561     		addi	sp,sp,32
 385              		.cfi_def_cfa_offset 0
 386 004c 8280     		jr	ra
 387              		.cfi_endproc
 388              	.LFE22:
 390              		.section	.text.RTC_GetDivider,"ax",@progbits
 391              		.align	1
 392              		.globl	RTC_GetDivider
 394              	RTC_GetDivider:
 395              	.LFB23:
 141:Drivers/src/ch32v20x_rtc.c **** 
 142:Drivers/src/ch32v20x_rtc.c **** /*********************************************************************
 143:Drivers/src/ch32v20x_rtc.c ****  * @fn      RTC_GetDivider
 144:Drivers/src/ch32v20x_rtc.c ****  *
 145:Drivers/src/ch32v20x_rtc.c ****  * @brief   Gets the RTC divider value
 146:Drivers/src/ch32v20x_rtc.c ****  *
 147:Drivers/src/ch32v20x_rtc.c ****  * @return  RTC Divider value
 148:Drivers/src/ch32v20x_rtc.c ****  */
 149:Drivers/src/ch32v20x_rtc.c **** uint32_t RTC_GetDivider(void)
 150:Drivers/src/ch32v20x_rtc.c **** {
 396              		.loc 1 150 1
 397              		.cfi_startproc
 398 0000 0111     		addi	sp,sp,-32
 399              		.cfi_def_cfa_offset 32
 400 0002 22CE     		sw	s0,28(sp)
 401              		.cfi_offset 8, -4
 402 0004 0010     		addi	s0,sp,32
 403              		.cfi_def_cfa 8, 0
 151:Drivers/src/ch32v20x_rtc.c ****     uint32_t tmp = 0x00;
 404              		.loc 1 151 14
 405 0006 232604FE 		sw	zero,-20(s0)
 152:Drivers/src/ch32v20x_rtc.c ****     tmp = ((uint32_t)RTC->DIVH & (uint32_t)0x000F) << 16;
 406              		.loc 1 152 25
 407 000a B7370040 		li	a5,1073754112
 408 000e 93870780 		addi	a5,a5,-2048
 409 0012 9E2B     		lhu	a5,16(a5)
 410 0014 C207     		slli	a5,a5,16
 411 0016 C183     		srli	a5,a5,16
 412              		.loc 1 152 52
 413 0018 13970701 		slli	a4,a5,16
 414              		.loc 1 152 9
 415 001c B7070F00 		li	a5,983040
 416 0020 F98F     		and	a5,a4,a5
 417 0022 2326F4FE 		sw	a5,-20(s0)
 153:Drivers/src/ch32v20x_rtc.c ****     tmp |= RTC->DIVL;
 418              		.loc 1 153 15
 419 0026 B7370040 		li	a5,1073754112
 420 002a 93870780 		addi	a5,a5,-2048
 421 002e DE2B     		lhu	a5,20(a5)
 422 0030 C207     		slli	a5,a5,16
GAS LISTING C:\Users\SOLDER~1\AppData\Local\Temp\ccgE0nth.s 			page 11


 423 0032 C183     		srli	a5,a5,16
 424 0034 3E87     		mv	a4,a5
 425              		.loc 1 153 9
 426 0036 8327C4FE 		lw	a5,-20(s0)
 427 003a D98F     		or	a5,a5,a4
 428 003c 2326F4FE 		sw	a5,-20(s0)
 154:Drivers/src/ch32v20x_rtc.c ****     return tmp;
 429              		.loc 1 154 12
 430 0040 8327C4FE 		lw	a5,-20(s0)
 155:Drivers/src/ch32v20x_rtc.c **** }
 431              		.loc 1 155 1
 432 0044 3E85     		mv	a0,a5
 433 0046 7244     		lw	s0,28(sp)
 434              		.cfi_restore 8
 435              		.cfi_def_cfa 2, 32
 436 0048 0561     		addi	sp,sp,32
 437              		.cfi_def_cfa_offset 0
 438 004a 8280     		jr	ra
 439              		.cfi_endproc
 440              	.LFE23:
 442              		.section	.text.RTC_WaitForLastTask,"ax",@progbits
 443              		.align	1
 444              		.globl	RTC_WaitForLastTask
 446              	RTC_WaitForLastTask:
 447              	.LFB24:
 156:Drivers/src/ch32v20x_rtc.c **** 
 157:Drivers/src/ch32v20x_rtc.c **** /*********************************************************************
 158:Drivers/src/ch32v20x_rtc.c ****  * @fn      RTC_WaitForLastTask
 159:Drivers/src/ch32v20x_rtc.c ****  *
 160:Drivers/src/ch32v20x_rtc.c ****  * @brief   Waits until last write operation on RTC registers has finished
 161:Drivers/src/ch32v20x_rtc.c ****  *          Note-
 162:Drivers/src/ch32v20x_rtc.c ****  *          This function must be called before any write to RTC registers.
 163:Drivers/src/ch32v20x_rtc.c ****  * @return  none
 164:Drivers/src/ch32v20x_rtc.c ****  */
 165:Drivers/src/ch32v20x_rtc.c **** void RTC_WaitForLastTask(void)
 166:Drivers/src/ch32v20x_rtc.c **** {
 448              		.loc 1 166 1
 449              		.cfi_startproc
 450 0000 4111     		addi	sp,sp,-16
 451              		.cfi_def_cfa_offset 16
 452 0002 22C6     		sw	s0,12(sp)
 453              		.cfi_offset 8, -4
 454 0004 0008     		addi	s0,sp,16
 455              		.cfi_def_cfa 8, 0
 167:Drivers/src/ch32v20x_rtc.c ****     while((RTC->CTLRL & RTC_FLAG_RTOFF) == (uint16_t)RESET)
 456              		.loc 1 167 10
 457 0006 0100     		nop
 458              	.L16:
 459              		.loc 1 167 15 discriminator 1
 460 0008 B7370040 		li	a5,1073754112
 461 000c 93870780 		addi	a5,a5,-2048
 462 0010 DE23     		lhu	a5,4(a5)
 463 0012 C207     		slli	a5,a5,16
 464 0014 C183     		srli	a5,a5,16
 465              		.loc 1 167 23 discriminator 1
 466 0016 93F70702 		andi	a5,a5,32
 467              		.loc 1 167 41 discriminator 1
GAS LISTING C:\Users\SOLDER~1\AppData\Local\Temp\ccgE0nth.s 			page 12


 468 001a FDD7     		beq	a5,zero,.L16
 168:Drivers/src/ch32v20x_rtc.c ****     {
 169:Drivers/src/ch32v20x_rtc.c ****     }
 170:Drivers/src/ch32v20x_rtc.c **** }
 469              		.loc 1 170 1
 470 001c 0100     		nop
 471 001e 0100     		nop
 472 0020 3244     		lw	s0,12(sp)
 473              		.cfi_restore 8
 474              		.cfi_def_cfa 2, 16
 475 0022 4101     		addi	sp,sp,16
 476              		.cfi_def_cfa_offset 0
 477 0024 8280     		jr	ra
 478              		.cfi_endproc
 479              	.LFE24:
 481              		.section	.text.RTC_WaitForSynchro,"ax",@progbits
 482              		.align	1
 483              		.globl	RTC_WaitForSynchro
 485              	RTC_WaitForSynchro:
 486              	.LFB25:
 171:Drivers/src/ch32v20x_rtc.c **** 
 172:Drivers/src/ch32v20x_rtc.c **** /*********************************************************************
 173:Drivers/src/ch32v20x_rtc.c ****  * @fn      RTC_WaitForSynchro
 174:Drivers/src/ch32v20x_rtc.c ****  *
 175:Drivers/src/ch32v20x_rtc.c ****  * @brief   Waits until the RTC registers are synchronized with RTC APB clock
 176:Drivers/src/ch32v20x_rtc.c ****  *          Note-
 177:Drivers/src/ch32v20x_rtc.c ****  *          This function must be called before any read operation after an APB reset
 178:Drivers/src/ch32v20x_rtc.c ****  *          or an APB clock stop.
 179:Drivers/src/ch32v20x_rtc.c ****  *          
 180:Drivers/src/ch32v20x_rtc.c ****  * @return  none
 181:Drivers/src/ch32v20x_rtc.c ****  */
 182:Drivers/src/ch32v20x_rtc.c **** void RTC_WaitForSynchro(void)
 183:Drivers/src/ch32v20x_rtc.c **** {
 487              		.loc 1 183 1
 488              		.cfi_startproc
 489 0000 4111     		addi	sp,sp,-16
 490              		.cfi_def_cfa_offset 16
 491 0002 22C6     		sw	s0,12(sp)
 492              		.cfi_offset 8, -4
 493 0004 0008     		addi	s0,sp,16
 494              		.cfi_def_cfa 8, 0
 184:Drivers/src/ch32v20x_rtc.c ****     RTC->CTLRL &= (uint16_t)~RTC_FLAG_RSF;
 495              		.loc 1 184 8
 496 0006 B7370040 		li	a5,1073754112
 497 000a 93870780 		addi	a5,a5,-2048
 498 000e DE23     		lhu	a5,4(a5)
 499 0010 13970701 		slli	a4,a5,16
 500 0014 4183     		srli	a4,a4,16
 501 0016 B7370040 		li	a5,1073754112
 502 001a 93870780 		addi	a5,a5,-2048
 503              		.loc 1 184 16
 504 001e 5D9B     		andi	a4,a4,-9
 505 0020 4207     		slli	a4,a4,16
 506 0022 4183     		srli	a4,a4,16
 507 0024 DAA3     		sh	a4,4(a5)
 185:Drivers/src/ch32v20x_rtc.c ****     while((RTC->CTLRL & RTC_FLAG_RSF) == (uint16_t)RESET)
 508              		.loc 1 185 10
GAS LISTING C:\Users\SOLDER~1\AppData\Local\Temp\ccgE0nth.s 			page 13


 509 0026 0100     		nop
 510              	.L18:
 511              		.loc 1 185 15 discriminator 1
 512 0028 B7370040 		li	a5,1073754112
 513 002c 93870780 		addi	a5,a5,-2048
 514 0030 DE23     		lhu	a5,4(a5)
 515 0032 C207     		slli	a5,a5,16
 516 0034 C183     		srli	a5,a5,16
 517              		.loc 1 185 23 discriminator 1
 518 0036 A18B     		andi	a5,a5,8
 519              		.loc 1 185 39 discriminator 1
 520 0038 E5DB     		beq	a5,zero,.L18
 186:Drivers/src/ch32v20x_rtc.c ****     {
 187:Drivers/src/ch32v20x_rtc.c ****     }
 188:Drivers/src/ch32v20x_rtc.c **** }
 521              		.loc 1 188 1
 522 003a 0100     		nop
 523 003c 0100     		nop
 524 003e 3244     		lw	s0,12(sp)
 525              		.cfi_restore 8
 526              		.cfi_def_cfa 2, 16
 527 0040 4101     		addi	sp,sp,16
 528              		.cfi_def_cfa_offset 0
 529 0042 8280     		jr	ra
 530              		.cfi_endproc
 531              	.LFE25:
 533              		.section	.text.RTC_GetFlagStatus,"ax",@progbits
 534              		.align	1
 535              		.globl	RTC_GetFlagStatus
 537              	RTC_GetFlagStatus:
 538              	.LFB26:
 189:Drivers/src/ch32v20x_rtc.c **** 
 190:Drivers/src/ch32v20x_rtc.c **** /*********************************************************************
 191:Drivers/src/ch32v20x_rtc.c ****  * @fn      RTC_GetFlagStatus
 192:Drivers/src/ch32v20x_rtc.c ****  *
 193:Drivers/src/ch32v20x_rtc.c ****  * @brief   Checks whether the specified RTC flag is set or not
 194:Drivers/src/ch32v20x_rtc.c ****  *
 195:Drivers/src/ch32v20x_rtc.c ****  * @param   RTC_FLAG- specifies the flag to check
 196:Drivers/src/ch32v20x_rtc.c ****  *            RTC_FLAG_RTOFF - RTC Operation OFF flag
 197:Drivers/src/ch32v20x_rtc.c ****  *            RTC_FLAG_RSF - Registers Synchronized flag
 198:Drivers/src/ch32v20x_rtc.c ****  *            RTC_FLAG_OW - Overflow flag
 199:Drivers/src/ch32v20x_rtc.c ****  *            RTC_FLAG_ALR - Alarm flag
 200:Drivers/src/ch32v20x_rtc.c ****  *            RTC_FLAG_SEC - Second flag
 201:Drivers/src/ch32v20x_rtc.c ****  *
 202:Drivers/src/ch32v20x_rtc.c ****  * @return  The new state of RTC_FLAG (SET or RESET)
 203:Drivers/src/ch32v20x_rtc.c ****  */
 204:Drivers/src/ch32v20x_rtc.c **** FlagStatus RTC_GetFlagStatus(uint16_t RTC_FLAG)
 205:Drivers/src/ch32v20x_rtc.c **** {
 539              		.loc 1 205 1
 540              		.cfi_startproc
 541 0000 7971     		addi	sp,sp,-48
 542              		.cfi_def_cfa_offset 48
 543 0002 22D6     		sw	s0,44(sp)
 544              		.cfi_offset 8, -4
 545 0004 0018     		addi	s0,sp,48
 546              		.cfi_def_cfa 8, 0
 547 0006 AA87     		mv	a5,a0
GAS LISTING C:\Users\SOLDER~1\AppData\Local\Temp\ccgE0nth.s 			page 14


 548 0008 231FF4FC 		sh	a5,-34(s0)
 206:Drivers/src/ch32v20x_rtc.c ****     FlagStatus bitstatus = RESET;
 549              		.loc 1 206 16
 550 000c 232604FE 		sw	zero,-20(s0)
 207:Drivers/src/ch32v20x_rtc.c ****     if((RTC->CTLRL & RTC_FLAG) != (uint16_t)RESET)
 551              		.loc 1 207 12
 552 0010 B7370040 		li	a5,1073754112
 553 0014 93870780 		addi	a5,a5,-2048
 554 0018 DE23     		lhu	a5,4(a5)
 555 001a C207     		slli	a5,a5,16
 556 001c C183     		srli	a5,a5,16
 557              		.loc 1 207 32
 558 001e 0357E4FD 		lhu	a4,-34(s0)
 559 0022 F98F     		and	a5,a5,a4
 560 0024 C207     		slli	a5,a5,16
 561 0026 C183     		srli	a5,a5,16
 562              		.loc 1 207 7
 563 0028 89C7     		beq	a5,zero,.L20
 208:Drivers/src/ch32v20x_rtc.c ****     {
 209:Drivers/src/ch32v20x_rtc.c ****         bitstatus = SET;
 564              		.loc 1 209 19
 565 002a 8547     		li	a5,1
 566 002c 2326F4FE 		sw	a5,-20(s0)
 567 0030 19A0     		j	.L21
 568              	.L20:
 210:Drivers/src/ch32v20x_rtc.c ****     }
 211:Drivers/src/ch32v20x_rtc.c ****     else
 212:Drivers/src/ch32v20x_rtc.c ****     {
 213:Drivers/src/ch32v20x_rtc.c ****         bitstatus = RESET;
 569              		.loc 1 213 19
 570 0032 232604FE 		sw	zero,-20(s0)
 571              	.L21:
 214:Drivers/src/ch32v20x_rtc.c ****     }
 215:Drivers/src/ch32v20x_rtc.c ****     return bitstatus;
 572              		.loc 1 215 12
 573 0036 8327C4FE 		lw	a5,-20(s0)
 216:Drivers/src/ch32v20x_rtc.c **** }
 574              		.loc 1 216 1
 575 003a 3E85     		mv	a0,a5
 576 003c 3254     		lw	s0,44(sp)
 577              		.cfi_restore 8
 578              		.cfi_def_cfa 2, 48
 579 003e 4561     		addi	sp,sp,48
 580              		.cfi_def_cfa_offset 0
 581 0040 8280     		jr	ra
 582              		.cfi_endproc
 583              	.LFE26:
 585              		.section	.text.RTC_ClearFlag,"ax",@progbits
 586              		.align	1
 587              		.globl	RTC_ClearFlag
 589              	RTC_ClearFlag:
 590              	.LFB27:
 217:Drivers/src/ch32v20x_rtc.c **** 
 218:Drivers/src/ch32v20x_rtc.c **** /*********************************************************************
 219:Drivers/src/ch32v20x_rtc.c ****  * @fn      RTC_ClearFlag
 220:Drivers/src/ch32v20x_rtc.c ****  *
 221:Drivers/src/ch32v20x_rtc.c ****  * @brief   Clears the RTC's pending flags
GAS LISTING C:\Users\SOLDER~1\AppData\Local\Temp\ccgE0nth.s 			page 15


 222:Drivers/src/ch32v20x_rtc.c ****  *
 223:Drivers/src/ch32v20x_rtc.c ****  * @param   RTC_FLAG - specifies the flag to clear
 224:Drivers/src/ch32v20x_rtc.c ****  *            RTC_FLAG_RSF - Registers Synchronized flag
 225:Drivers/src/ch32v20x_rtc.c ****  *            RTC_FLAG_OW - Overflow flag
 226:Drivers/src/ch32v20x_rtc.c ****  *            RTC_FLAG_ALR - Alarm flag
 227:Drivers/src/ch32v20x_rtc.c ****  *            RTC_FLAG_SEC - Second flag
 228:Drivers/src/ch32v20x_rtc.c ****  *
 229:Drivers/src/ch32v20x_rtc.c ****  * @return  none
 230:Drivers/src/ch32v20x_rtc.c ****  */
 231:Drivers/src/ch32v20x_rtc.c **** void RTC_ClearFlag(uint16_t RTC_FLAG)
 232:Drivers/src/ch32v20x_rtc.c **** {
 591              		.loc 1 232 1
 592              		.cfi_startproc
 593 0000 0111     		addi	sp,sp,-32
 594              		.cfi_def_cfa_offset 32
 595 0002 22CE     		sw	s0,28(sp)
 596              		.cfi_offset 8, -4
 597 0004 0010     		addi	s0,sp,32
 598              		.cfi_def_cfa 8, 0
 599 0006 AA87     		mv	a5,a0
 600 0008 2317F4FE 		sh	a5,-18(s0)
 233:Drivers/src/ch32v20x_rtc.c ****     RTC->CTLRL &= (uint16_t)~RTC_FLAG;
 601              		.loc 1 233 8
 602 000c B7370040 		li	a5,1073754112
 603 0010 93870780 		addi	a5,a5,-2048
 604 0014 DE23     		lhu	a5,4(a5)
 605 0016 93960701 		slli	a3,a5,16
 606 001a C182     		srli	a3,a3,16
 607              		.loc 1 233 19
 608 001c 8357E4FE 		lhu	a5,-18(s0)
 609 0020 93C7F7FF 		not	a5,a5
 610 0024 13970701 		slli	a4,a5,16
 611 0028 4183     		srli	a4,a4,16
 612              		.loc 1 233 8
 613 002a B7370040 		li	a5,1073754112
 614 002e 93870780 		addi	a5,a5,-2048
 615              		.loc 1 233 16
 616 0032 758F     		and	a4,a3,a4
 617 0034 4207     		slli	a4,a4,16
 618 0036 4183     		srli	a4,a4,16
 619 0038 DAA3     		sh	a4,4(a5)
 234:Drivers/src/ch32v20x_rtc.c **** }
 620              		.loc 1 234 1
 621 003a 0100     		nop
 622 003c 7244     		lw	s0,28(sp)
 623              		.cfi_restore 8
 624              		.cfi_def_cfa 2, 32
 625 003e 0561     		addi	sp,sp,32
 626              		.cfi_def_cfa_offset 0
 627 0040 8280     		jr	ra
 628              		.cfi_endproc
 629              	.LFE27:
 631              		.section	.text.RTC_GetITStatus,"ax",@progbits
 632              		.align	1
 633              		.globl	RTC_GetITStatus
 635              	RTC_GetITStatus:
 636              	.LFB28:
GAS LISTING C:\Users\SOLDER~1\AppData\Local\Temp\ccgE0nth.s 			page 16


 235:Drivers/src/ch32v20x_rtc.c **** 
 236:Drivers/src/ch32v20x_rtc.c **** /*********************************************************************
 237:Drivers/src/ch32v20x_rtc.c ****  * @fn      RTC_GetITStatus
 238:Drivers/src/ch32v20x_rtc.c ****  *
 239:Drivers/src/ch32v20x_rtc.c ****  * @brief   Checks whether the specified RTC interrupt has occurred or not
 240:Drivers/src/ch32v20x_rtc.c ****  *
 241:Drivers/src/ch32v20x_rtc.c ****  * @param   RTC_IT - specifies the RTC interrupts sources to check
 242:Drivers/src/ch32v20x_rtc.c ****  *            RTC_FLAG_OW - Overflow interrupt
 243:Drivers/src/ch32v20x_rtc.c ****  *            RTC_FLAG_ALR - Alarm interrupt
 244:Drivers/src/ch32v20x_rtc.c ****  *            RTC_FLAG_SEC - Second interrupt
 245:Drivers/src/ch32v20x_rtc.c ****  *
 246:Drivers/src/ch32v20x_rtc.c ****  * @return  The new state of the RTC_IT (SET or RESET)
 247:Drivers/src/ch32v20x_rtc.c ****  */
 248:Drivers/src/ch32v20x_rtc.c **** ITStatus RTC_GetITStatus(uint16_t RTC_IT)
 249:Drivers/src/ch32v20x_rtc.c **** {
 637              		.loc 1 249 1
 638              		.cfi_startproc
 639 0000 7971     		addi	sp,sp,-48
 640              		.cfi_def_cfa_offset 48
 641 0002 22D6     		sw	s0,44(sp)
 642              		.cfi_offset 8, -4
 643 0004 0018     		addi	s0,sp,48
 644              		.cfi_def_cfa 8, 0
 645 0006 AA87     		mv	a5,a0
 646 0008 231FF4FC 		sh	a5,-34(s0)
 250:Drivers/src/ch32v20x_rtc.c ****     ITStatus bitstatus = RESET;
 647              		.loc 1 250 14
 648 000c 232604FE 		sw	zero,-20(s0)
 251:Drivers/src/ch32v20x_rtc.c **** 
 252:Drivers/src/ch32v20x_rtc.c ****     bitstatus = (ITStatus)(RTC->CTLRL & RTC_IT);
 649              		.loc 1 252 31
 650 0010 B7370040 		li	a5,1073754112
 651 0014 93870780 		addi	a5,a5,-2048
 652 0018 DE23     		lhu	a5,4(a5)
 653 001a C207     		slli	a5,a5,16
 654 001c C183     		srli	a5,a5,16
 655              		.loc 1 252 17
 656 001e 0357E4FD 		lhu	a4,-34(s0)
 657 0022 F98F     		and	a5,a5,a4
 658 0024 C207     		slli	a5,a5,16
 659 0026 C183     		srli	a5,a5,16
 660              		.loc 1 252 15
 661 0028 2326F4FE 		sw	a5,-20(s0)
 253:Drivers/src/ch32v20x_rtc.c ****     if(((RTC->CTLRH & RTC_IT) != (uint16_t)RESET) && (bitstatus != (uint16_t)RESET))
 662              		.loc 1 253 13
 663 002c B7370040 		li	a5,1073754112
 664 0030 93870780 		addi	a5,a5,-2048
 665 0034 9E23     		lhu	a5,0(a5)
 666 0036 C207     		slli	a5,a5,16
 667 0038 C183     		srli	a5,a5,16
 668              		.loc 1 253 31
 669 003a 0357E4FD 		lhu	a4,-34(s0)
 670 003e F98F     		and	a5,a5,a4
 671 0040 C207     		slli	a5,a5,16
 672 0042 C183     		srli	a5,a5,16
 673              		.loc 1 253 7
 674 0044 81CB     		beq	a5,zero,.L25
GAS LISTING C:\Users\SOLDER~1\AppData\Local\Temp\ccgE0nth.s 			page 17


 675              		.loc 1 253 51 discriminator 1
 676 0046 8327C4FE 		lw	a5,-20(s0)
 677 004a 89C7     		beq	a5,zero,.L25
 254:Drivers/src/ch32v20x_rtc.c ****     {
 255:Drivers/src/ch32v20x_rtc.c ****         bitstatus = SET;
 678              		.loc 1 255 19
 679 004c 8547     		li	a5,1
 680 004e 2326F4FE 		sw	a5,-20(s0)
 681 0052 19A0     		j	.L26
 682              	.L25:
 256:Drivers/src/ch32v20x_rtc.c ****     }
 257:Drivers/src/ch32v20x_rtc.c ****     else
 258:Drivers/src/ch32v20x_rtc.c ****     {
 259:Drivers/src/ch32v20x_rtc.c ****         bitstatus = RESET;
 683              		.loc 1 259 19
 684 0054 232604FE 		sw	zero,-20(s0)
 685              	.L26:
 260:Drivers/src/ch32v20x_rtc.c ****     }
 261:Drivers/src/ch32v20x_rtc.c ****     return bitstatus;
 686              		.loc 1 261 12
 687 0058 8327C4FE 		lw	a5,-20(s0)
 262:Drivers/src/ch32v20x_rtc.c **** }
 688              		.loc 1 262 1
 689 005c 3E85     		mv	a0,a5
 690 005e 3254     		lw	s0,44(sp)
 691              		.cfi_restore 8
 692              		.cfi_def_cfa 2, 48
 693 0060 4561     		addi	sp,sp,48
 694              		.cfi_def_cfa_offset 0
 695 0062 8280     		jr	ra
 696              		.cfi_endproc
 697              	.LFE28:
 699              		.section	.text.RTC_ClearITPendingBit,"ax",@progbits
 700              		.align	1
 701              		.globl	RTC_ClearITPendingBit
 703              	RTC_ClearITPendingBit:
 704              	.LFB29:
 263:Drivers/src/ch32v20x_rtc.c **** 
 264:Drivers/src/ch32v20x_rtc.c **** /*********************************************************************
 265:Drivers/src/ch32v20x_rtc.c ****  * @fn      RTC_ClearITPendingBit
 266:Drivers/src/ch32v20x_rtc.c ****  *
 267:Drivers/src/ch32v20x_rtc.c ****  * @brief   Clears the RTC's interrupt pending bits
 268:Drivers/src/ch32v20x_rtc.c ****  *
 269:Drivers/src/ch32v20x_rtc.c ****  * @param   RTC_IT - specifies the interrupt pending bit to clear
 270:Drivers/src/ch32v20x_rtc.c ****  *            RTC_FLAG_OW - Overflow interrupt
 271:Drivers/src/ch32v20x_rtc.c ****  *            RTC_FLAG_ALR - Alarm interrupt
 272:Drivers/src/ch32v20x_rtc.c ****  *            RTC_FLAG_SEC - Second interrupt
 273:Drivers/src/ch32v20x_rtc.c ****  *
 274:Drivers/src/ch32v20x_rtc.c ****  * @return  none
 275:Drivers/src/ch32v20x_rtc.c ****  */
 276:Drivers/src/ch32v20x_rtc.c **** void RTC_ClearITPendingBit(uint16_t RTC_IT)
 277:Drivers/src/ch32v20x_rtc.c **** {
 705              		.loc 1 277 1
 706              		.cfi_startproc
 707 0000 0111     		addi	sp,sp,-32
 708              		.cfi_def_cfa_offset 32
 709 0002 22CE     		sw	s0,28(sp)
GAS LISTING C:\Users\SOLDER~1\AppData\Local\Temp\ccgE0nth.s 			page 18


 710              		.cfi_offset 8, -4
 711 0004 0010     		addi	s0,sp,32
 712              		.cfi_def_cfa 8, 0
 713 0006 AA87     		mv	a5,a0
 714 0008 2317F4FE 		sh	a5,-18(s0)
 278:Drivers/src/ch32v20x_rtc.c ****     RTC->CTLRL &= (uint16_t)~RTC_IT;
 715              		.loc 1 278 8
 716 000c B7370040 		li	a5,1073754112
 717 0010 93870780 		addi	a5,a5,-2048
 718 0014 DE23     		lhu	a5,4(a5)
 719 0016 93960701 		slli	a3,a5,16
 720 001a C182     		srli	a3,a3,16
 721              		.loc 1 278 19
 722 001c 8357E4FE 		lhu	a5,-18(s0)
 723 0020 93C7F7FF 		not	a5,a5
 724 0024 13970701 		slli	a4,a5,16
 725 0028 4183     		srli	a4,a4,16
 726              		.loc 1 278 8
 727 002a B7370040 		li	a5,1073754112
 728 002e 93870780 		addi	a5,a5,-2048
 729              		.loc 1 278 16
 730 0032 758F     		and	a4,a3,a4
 731 0034 4207     		slli	a4,a4,16
 732 0036 4183     		srli	a4,a4,16
 733 0038 DAA3     		sh	a4,4(a5)
 279:Drivers/src/ch32v20x_rtc.c **** }
 734              		.loc 1 279 1
 735 003a 0100     		nop
 736 003c 7244     		lw	s0,28(sp)
 737              		.cfi_restore 8
 738              		.cfi_def_cfa 2, 32
 739 003e 0561     		addi	sp,sp,32
 740              		.cfi_def_cfa_offset 0
 741 0040 8280     		jr	ra
 742              		.cfi_endproc
 743              	.LFE29:
 745              		.text
 746              	.Letext0:
 747              		.file 2 "c:\\dev_tools\\ch32_tools\\risc-v_embedded_gcc12\\riscv-none-elf\\include\\machine\\_defa
 748              		.file 3 "c:\\dev_tools\\ch32_tools\\risc-v_embedded_gcc12\\riscv-none-elf\\include\\sys\\_stdint.h
 749              		.file 4 "Drivers/inc/core_riscv.h"
 750              		.file 5 "Drivers/inc/ch32v20x.h"
GAS LISTING C:\Users\SOLDER~1\AppData\Local\Temp\ccgE0nth.s 			page 19


DEFINED SYMBOLS
                            *ABS*:0000000000000000 ch32v20x_rtc.c
C:\Users\SOLDER~1\AppData\Local\Temp\ccgE0nth.s:14     .text.RTC_ITConfig:0000000000000000 RTC_ITConfig
C:\Users\SOLDER~1\AppData\Local\Temp\ccgE0nth.s:18     .text.RTC_ITConfig:0000000000000000 .L0 
C:\Users\SOLDER~1\AppData\Local\Temp\ccgE0nth.s:19     .text.RTC_ITConfig:0000000000000000 $x
C:\Users\SOLDER~1\AppData\Local\Temp\ccgE0nth.s:19     .text.RTC_ITConfig:0000000000000000 .L0 
C:\Users\SOLDER~1\AppData\Local\Temp\ccgE0nth.s:20     .text.RTC_ITConfig:0000000000000002 .L0 
C:\Users\SOLDER~1\AppData\Local\Temp\ccgE0nth.s:22     .text.RTC_ITConfig:0000000000000004 .L0 
C:\Users\SOLDER~1\AppData\Local\Temp\ccgE0nth.s:24     .text.RTC_ITConfig:0000000000000006 .L0 
C:\Users\SOLDER~1\AppData\Local\Temp\ccgE0nth.s:29     .text.RTC_ITConfig:0000000000000010 .L0 
C:\Users\SOLDER~1\AppData\Local\Temp\ccgE0nth.s:32     .text.RTC_ITConfig:0000000000000016 .L0 
C:\Users\SOLDER~1\AppData\Local\Temp\ccgE0nth.s:40     .text.RTC_ITConfig:000000000000002e .L0 
C:\Users\SOLDER~1\AppData\Local\Temp\ccgE0nth.s:46     .text.RTC_ITConfig:000000000000003a .L0 
C:\Users\SOLDER~1\AppData\Local\Temp\ccgE0nth.s:49     .text.RTC_ITConfig:000000000000003c .L0 
C:\Users\SOLDER~1\AppData\Local\Temp\ccgE0nth.s:55     .text.RTC_ITConfig:000000000000004c .L0 
C:\Users\SOLDER~1\AppData\Local\Temp\ccgE0nth.s:60     .text.RTC_ITConfig:000000000000005a .L0 
C:\Users\SOLDER~1\AppData\Local\Temp\ccgE0nth.s:63     .text.RTC_ITConfig:0000000000000062 .L0 
C:\Users\SOLDER~1\AppData\Local\Temp\ccgE0nth.s:69     .text.RTC_ITConfig:000000000000006a .L0 
C:\Users\SOLDER~1\AppData\Local\Temp\ccgE0nth.s:71     .text.RTC_ITConfig:000000000000006e .L0 
C:\Users\SOLDER~1\AppData\Local\Temp\ccgE0nth.s:72     .text.RTC_ITConfig:000000000000006e .L0 
C:\Users\SOLDER~1\AppData\Local\Temp\ccgE0nth.s:74     .text.RTC_ITConfig:0000000000000070 .L0 
C:\Users\SOLDER~1\AppData\Local\Temp\ccgE0nth.s:76     .text.RTC_ITConfig:0000000000000072 .L0 
C:\Users\SOLDER~1\AppData\Local\Temp\ccgE0nth.s:83     .text.RTC_EnterConfigMode:0000000000000000 RTC_EnterConfigMode
C:\Users\SOLDER~1\AppData\Local\Temp\ccgE0nth.s:86     .text.RTC_EnterConfigMode:0000000000000000 .L0 
C:\Users\SOLDER~1\AppData\Local\Temp\ccgE0nth.s:87     .text.RTC_EnterConfigMode:0000000000000000 $x
C:\Users\SOLDER~1\AppData\Local\Temp\ccgE0nth.s:87     .text.RTC_EnterConfigMode:0000000000000000 .L0 
C:\Users\SOLDER~1\AppData\Local\Temp\ccgE0nth.s:88     .text.RTC_EnterConfigMode:0000000000000002 .L0 
C:\Users\SOLDER~1\AppData\Local\Temp\ccgE0nth.s:90     .text.RTC_EnterConfigMode:0000000000000004 .L0 
C:\Users\SOLDER~1\AppData\Local\Temp\ccgE0nth.s:92     .text.RTC_EnterConfigMode:0000000000000006 .L0 
C:\Users\SOLDER~1\AppData\Local\Temp\ccgE0nth.s:94     .text.RTC_EnterConfigMode:0000000000000006 .L0 
C:\Users\SOLDER~1\AppData\Local\Temp\ccgE0nth.s:102    .text.RTC_EnterConfigMode:000000000000001e .L0 
C:\Users\SOLDER~1\AppData\Local\Temp\ccgE0nth.s:107    .text.RTC_EnterConfigMode:0000000000000028 .L0 
C:\Users\SOLDER~1\AppData\Local\Temp\ccgE0nth.s:109    .text.RTC_EnterConfigMode:000000000000002c .L0 
C:\Users\SOLDER~1\AppData\Local\Temp\ccgE0nth.s:110    .text.RTC_EnterConfigMode:000000000000002c .L0 
C:\Users\SOLDER~1\AppData\Local\Temp\ccgE0nth.s:112    .text.RTC_EnterConfigMode:000000000000002e .L0 
C:\Users\SOLDER~1\AppData\Local\Temp\ccgE0nth.s:114    .text.RTC_EnterConfigMode:0000000000000030 .L0 
C:\Users\SOLDER~1\AppData\Local\Temp\ccgE0nth.s:121    .text.RTC_ExitConfigMode:0000000000000000 RTC_ExitConfigMode
C:\Users\SOLDER~1\AppData\Local\Temp\ccgE0nth.s:124    .text.RTC_ExitConfigMode:0000000000000000 .L0 
C:\Users\SOLDER~1\AppData\Local\Temp\ccgE0nth.s:125    .text.RTC_ExitConfigMode:0000000000000000 $x
C:\Users\SOLDER~1\AppData\Local\Temp\ccgE0nth.s:125    .text.RTC_ExitConfigMode:0000000000000000 .L0 
C:\Users\SOLDER~1\AppData\Local\Temp\ccgE0nth.s:126    .text.RTC_ExitConfigMode:0000000000000002 .L0 
C:\Users\SOLDER~1\AppData\Local\Temp\ccgE0nth.s:128    .text.RTC_ExitConfigMode:0000000000000004 .L0 
C:\Users\SOLDER~1\AppData\Local\Temp\ccgE0nth.s:130    .text.RTC_ExitConfigMode:0000000000000006 .L0 
C:\Users\SOLDER~1\AppData\Local\Temp\ccgE0nth.s:132    .text.RTC_ExitConfigMode:0000000000000006 .L0 
C:\Users\SOLDER~1\AppData\Local\Temp\ccgE0nth.s:140    .text.RTC_ExitConfigMode:000000000000001e .L0 
C:\Users\SOLDER~1\AppData\Local\Temp\ccgE0nth.s:145    .text.RTC_ExitConfigMode:0000000000000026 .L0 
C:\Users\SOLDER~1\AppData\Local\Temp\ccgE0nth.s:147    .text.RTC_ExitConfigMode:000000000000002a .L0 
C:\Users\SOLDER~1\AppData\Local\Temp\ccgE0nth.s:148    .text.RTC_ExitConfigMode:000000000000002a .L0 
C:\Users\SOLDER~1\AppData\Local\Temp\ccgE0nth.s:150    .text.RTC_ExitConfigMode:000000000000002c .L0 
C:\Users\SOLDER~1\AppData\Local\Temp\ccgE0nth.s:152    .text.RTC_ExitConfigMode:000000000000002e .L0 
C:\Users\SOLDER~1\AppData\Local\Temp\ccgE0nth.s:159    .text.RTC_GetCounter:0000000000000000 RTC_GetCounter
C:\Users\SOLDER~1\AppData\Local\Temp\ccgE0nth.s:162    .text.RTC_GetCounter:0000000000000000 .L0 
C:\Users\SOLDER~1\AppData\Local\Temp\ccgE0nth.s:163    .text.RTC_GetCounter:0000000000000000 $x
C:\Users\SOLDER~1\AppData\Local\Temp\ccgE0nth.s:163    .text.RTC_GetCounter:0000000000000000 .L0 
C:\Users\SOLDER~1\AppData\Local\Temp\ccgE0nth.s:164    .text.RTC_GetCounter:0000000000000002 .L0 
C:\Users\SOLDER~1\AppData\Local\Temp\ccgE0nth.s:166    .text.RTC_GetCounter:0000000000000004 .L0 
C:\Users\SOLDER~1\AppData\Local\Temp\ccgE0nth.s:168    .text.RTC_GetCounter:0000000000000006 .L0 
GAS LISTING C:\Users\SOLDER~1\AppData\Local\Temp\ccgE0nth.s 			page 20


C:\Users\SOLDER~1\AppData\Local\Temp\ccgE0nth.s:170    .text.RTC_GetCounter:0000000000000006 .L0 
C:\Users\SOLDER~1\AppData\Local\Temp\ccgE0nth.s:172    .text.RTC_GetCounter:000000000000000a .L0 
C:\Users\SOLDER~1\AppData\Local\Temp\ccgE0nth.s:174    .text.RTC_GetCounter:000000000000000e .L0 
C:\Users\SOLDER~1\AppData\Local\Temp\ccgE0nth.s:176    .text.RTC_GetCounter:0000000000000012 .L0 
C:\Users\SOLDER~1\AppData\Local\Temp\ccgE0nth.s:179    .text.RTC_GetCounter:000000000000001a .L0 
C:\Users\SOLDER~1\AppData\Local\Temp\ccgE0nth.s:182    .text.RTC_GetCounter:0000000000000020 .L0 
C:\Users\SOLDER~1\AppData\Local\Temp\ccgE0nth.s:185    .text.RTC_GetCounter:0000000000000028 .L0 
C:\Users\SOLDER~1\AppData\Local\Temp\ccgE0nth.s:188    .text.RTC_GetCounter:000000000000002e .L0 
C:\Users\SOLDER~1\AppData\Local\Temp\ccgE0nth.s:191    .text.RTC_GetCounter:0000000000000036 .L0 
C:\Users\SOLDER~1\AppData\Local\Temp\ccgE0nth.s:194    .text.RTC_GetCounter:000000000000003c .L0 
C:\Users\SOLDER~1\AppData\Local\Temp\ccgE0nth.s:198    .text.RTC_GetCounter:0000000000000048 .L0 
C:\Users\SOLDER~1\AppData\Local\Temp\ccgE0nth.s:200    .text.RTC_GetCounter:000000000000004c .L0 
C:\Users\SOLDER~1\AppData\Local\Temp\ccgE0nth.s:202    .text.RTC_GetCounter:000000000000004e .L0 
C:\Users\SOLDER~1\AppData\Local\Temp\ccgE0nth.s:208    .text.RTC_GetCounter:000000000000005c .L0 
C:\Users\SOLDER~1\AppData\Local\Temp\ccgE0nth.s:212    .text.RTC_GetCounter:0000000000000060 .L0 
C:\Users\SOLDER~1\AppData\Local\Temp\ccgE0nth.s:214    .text.RTC_GetCounter:0000000000000064 .L0 
C:\Users\SOLDER~1\AppData\Local\Temp\ccgE0nth.s:216    .text.RTC_GetCounter:0000000000000068 .L0 
C:\Users\SOLDER~1\AppData\Local\Temp\ccgE0nth.s:220    .text.RTC_GetCounter:000000000000006e .L0 
C:\Users\SOLDER~1\AppData\Local\Temp\ccgE0nth.s:222    .text.RTC_GetCounter:0000000000000072 .L0 
C:\Users\SOLDER~1\AppData\Local\Temp\ccgE0nth.s:223    .text.RTC_GetCounter:0000000000000072 .L0 
C:\Users\SOLDER~1\AppData\Local\Temp\ccgE0nth.s:225    .text.RTC_GetCounter:0000000000000074 .L0 
C:\Users\SOLDER~1\AppData\Local\Temp\ccgE0nth.s:227    .text.RTC_GetCounter:0000000000000076 .L0 
C:\Users\SOLDER~1\AppData\Local\Temp\ccgE0nth.s:234    .text.RTC_SetCounter:0000000000000000 RTC_SetCounter
C:\Users\SOLDER~1\AppData\Local\Temp\ccgE0nth.s:237    .text.RTC_SetCounter:0000000000000000 .L0 
C:\Users\SOLDER~1\AppData\Local\Temp\ccgE0nth.s:238    .text.RTC_SetCounter:0000000000000000 $x
C:\Users\SOLDER~1\AppData\Local\Temp\ccgE0nth.s:238    .text.RTC_SetCounter:0000000000000000 .L0 
C:\Users\SOLDER~1\AppData\Local\Temp\ccgE0nth.s:239    .text.RTC_SetCounter:0000000000000002 .L0 
C:\Users\SOLDER~1\AppData\Local\Temp\ccgE0nth.s:242    .text.RTC_SetCounter:0000000000000006 .L0 
C:\Users\SOLDER~1\AppData\Local\Temp\ccgE0nth.s:243    .text.RTC_SetCounter:0000000000000006 .L0 
C:\Users\SOLDER~1\AppData\Local\Temp\ccgE0nth.s:245    .text.RTC_SetCounter:0000000000000008 .L0 
C:\Users\SOLDER~1\AppData\Local\Temp\ccgE0nth.s:248    .text.RTC_SetCounter:000000000000000c .L0 
C:\Users\SOLDER~1\AppData\Local\Temp\ccgE0nth.s:250    .text.RTC_SetCounter:0000000000000014 .L0 
C:\Users\SOLDER~1\AppData\Local\Temp\ccgE0nth.s:253    .text.RTC_SetCounter:000000000000001c .L0 
C:\Users\SOLDER~1\AppData\Local\Temp\ccgE0nth.s:256    .text.RTC_SetCounter:0000000000000024 .L0 
C:\Users\SOLDER~1\AppData\Local\Temp\ccgE0nth.s:260    .text.RTC_SetCounter:000000000000002a .L0 
C:\Users\SOLDER~1\AppData\Local\Temp\ccgE0nth.s:263    .text.RTC_SetCounter:0000000000000032 .L0 
C:\Users\SOLDER~1\AppData\Local\Temp\ccgE0nth.s:268    .text.RTC_SetCounter:000000000000003c .L0 
C:\Users\SOLDER~1\AppData\Local\Temp\ccgE0nth.s:270    .text.RTC_SetCounter:0000000000000044 .L0 
C:\Users\SOLDER~1\AppData\Local\Temp\ccgE0nth.s:272    .text.RTC_SetCounter:0000000000000048 .L0 
C:\Users\SOLDER~1\AppData\Local\Temp\ccgE0nth.s:274    .text.RTC_SetCounter:000000000000004a .L0 
C:\Users\SOLDER~1\AppData\Local\Temp\ccgE0nth.s:275    .text.RTC_SetCounter:000000000000004a .L0 
C:\Users\SOLDER~1\AppData\Local\Temp\ccgE0nth.s:277    .text.RTC_SetCounter:000000000000004c .L0 
C:\Users\SOLDER~1\AppData\Local\Temp\ccgE0nth.s:279    .text.RTC_SetCounter:000000000000004e .L0 
C:\Users\SOLDER~1\AppData\Local\Temp\ccgE0nth.s:286    .text.RTC_SetPrescaler:0000000000000000 RTC_SetPrescaler
C:\Users\SOLDER~1\AppData\Local\Temp\ccgE0nth.s:289    .text.RTC_SetPrescaler:0000000000000000 .L0 
C:\Users\SOLDER~1\AppData\Local\Temp\ccgE0nth.s:290    .text.RTC_SetPrescaler:0000000000000000 $x
C:\Users\SOLDER~1\AppData\Local\Temp\ccgE0nth.s:290    .text.RTC_SetPrescaler:0000000000000000 .L0 
C:\Users\SOLDER~1\AppData\Local\Temp\ccgE0nth.s:291    .text.RTC_SetPrescaler:0000000000000002 .L0 
C:\Users\SOLDER~1\AppData\Local\Temp\ccgE0nth.s:294    .text.RTC_SetPrescaler:0000000000000006 .L0 
C:\Users\SOLDER~1\AppData\Local\Temp\ccgE0nth.s:295    .text.RTC_SetPrescaler:0000000000000006 .L0 
C:\Users\SOLDER~1\AppData\Local\Temp\ccgE0nth.s:297    .text.RTC_SetPrescaler:0000000000000008 .L0 
C:\Users\SOLDER~1\AppData\Local\Temp\ccgE0nth.s:300    .text.RTC_SetPrescaler:000000000000000c .L0 
C:\Users\SOLDER~1\AppData\Local\Temp\ccgE0nth.s:302    .text.RTC_SetPrescaler:0000000000000014 .L0 
C:\Users\SOLDER~1\AppData\Local\Temp\ccgE0nth.s:307    .text.RTC_SetPrescaler:0000000000000020 .L0 
C:\Users\SOLDER~1\AppData\Local\Temp\ccgE0nth.s:310    .text.RTC_SetPrescaler:0000000000000028 .L0 
C:\Users\SOLDER~1\AppData\Local\Temp\ccgE0nth.s:314    .text.RTC_SetPrescaler:000000000000002e .L0 
C:\Users\SOLDER~1\AppData\Local\Temp\ccgE0nth.s:316    .text.RTC_SetPrescaler:0000000000000030 .L0 
GAS LISTING C:\Users\SOLDER~1\AppData\Local\Temp\ccgE0nth.s 			page 21


C:\Users\SOLDER~1\AppData\Local\Temp\ccgE0nth.s:319    .text.RTC_SetPrescaler:0000000000000038 .L0 
C:\Users\SOLDER~1\AppData\Local\Temp\ccgE0nth.s:324    .text.RTC_SetPrescaler:0000000000000042 .L0 
C:\Users\SOLDER~1\AppData\Local\Temp\ccgE0nth.s:326    .text.RTC_SetPrescaler:000000000000004a .L0 
C:\Users\SOLDER~1\AppData\Local\Temp\ccgE0nth.s:328    .text.RTC_SetPrescaler:000000000000004e .L0 
C:\Users\SOLDER~1\AppData\Local\Temp\ccgE0nth.s:330    .text.RTC_SetPrescaler:0000000000000050 .L0 
C:\Users\SOLDER~1\AppData\Local\Temp\ccgE0nth.s:331    .text.RTC_SetPrescaler:0000000000000050 .L0 
C:\Users\SOLDER~1\AppData\Local\Temp\ccgE0nth.s:333    .text.RTC_SetPrescaler:0000000000000052 .L0 
C:\Users\SOLDER~1\AppData\Local\Temp\ccgE0nth.s:335    .text.RTC_SetPrescaler:0000000000000054 .L0 
C:\Users\SOLDER~1\AppData\Local\Temp\ccgE0nth.s:342    .text.RTC_SetAlarm:0000000000000000 RTC_SetAlarm
C:\Users\SOLDER~1\AppData\Local\Temp\ccgE0nth.s:345    .text.RTC_SetAlarm:0000000000000000 .L0 
C:\Users\SOLDER~1\AppData\Local\Temp\ccgE0nth.s:346    .text.RTC_SetAlarm:0000000000000000 $x
C:\Users\SOLDER~1\AppData\Local\Temp\ccgE0nth.s:346    .text.RTC_SetAlarm:0000000000000000 .L0 
C:\Users\SOLDER~1\AppData\Local\Temp\ccgE0nth.s:347    .text.RTC_SetAlarm:0000000000000002 .L0 
C:\Users\SOLDER~1\AppData\Local\Temp\ccgE0nth.s:350    .text.RTC_SetAlarm:0000000000000006 .L0 
C:\Users\SOLDER~1\AppData\Local\Temp\ccgE0nth.s:351    .text.RTC_SetAlarm:0000000000000006 .L0 
C:\Users\SOLDER~1\AppData\Local\Temp\ccgE0nth.s:353    .text.RTC_SetAlarm:0000000000000008 .L0 
C:\Users\SOLDER~1\AppData\Local\Temp\ccgE0nth.s:356    .text.RTC_SetAlarm:000000000000000c .L0 
C:\Users\SOLDER~1\AppData\Local\Temp\ccgE0nth.s:358    .text.RTC_SetAlarm:0000000000000014 .L0 
C:\Users\SOLDER~1\AppData\Local\Temp\ccgE0nth.s:361    .text.RTC_SetAlarm:000000000000001c .L0 
C:\Users\SOLDER~1\AppData\Local\Temp\ccgE0nth.s:364    .text.RTC_SetAlarm:0000000000000024 .L0 
C:\Users\SOLDER~1\AppData\Local\Temp\ccgE0nth.s:368    .text.RTC_SetAlarm:000000000000002a .L0 
C:\Users\SOLDER~1\AppData\Local\Temp\ccgE0nth.s:371    .text.RTC_SetAlarm:0000000000000032 .L0 
C:\Users\SOLDER~1\AppData\Local\Temp\ccgE0nth.s:376    .text.RTC_SetAlarm:000000000000003c .L0 
C:\Users\SOLDER~1\AppData\Local\Temp\ccgE0nth.s:378    .text.RTC_SetAlarm:0000000000000044 .L0 
C:\Users\SOLDER~1\AppData\Local\Temp\ccgE0nth.s:380    .text.RTC_SetAlarm:0000000000000048 .L0 
C:\Users\SOLDER~1\AppData\Local\Temp\ccgE0nth.s:382    .text.RTC_SetAlarm:000000000000004a .L0 
C:\Users\SOLDER~1\AppData\Local\Temp\ccgE0nth.s:383    .text.RTC_SetAlarm:000000000000004a .L0 
C:\Users\SOLDER~1\AppData\Local\Temp\ccgE0nth.s:385    .text.RTC_SetAlarm:000000000000004c .L0 
C:\Users\SOLDER~1\AppData\Local\Temp\ccgE0nth.s:387    .text.RTC_SetAlarm:000000000000004e .L0 
C:\Users\SOLDER~1\AppData\Local\Temp\ccgE0nth.s:394    .text.RTC_GetDivider:0000000000000000 RTC_GetDivider
C:\Users\SOLDER~1\AppData\Local\Temp\ccgE0nth.s:397    .text.RTC_GetDivider:0000000000000000 .L0 
C:\Users\SOLDER~1\AppData\Local\Temp\ccgE0nth.s:398    .text.RTC_GetDivider:0000000000000000 $x
C:\Users\SOLDER~1\AppData\Local\Temp\ccgE0nth.s:398    .text.RTC_GetDivider:0000000000000000 .L0 
C:\Users\SOLDER~1\AppData\Local\Temp\ccgE0nth.s:399    .text.RTC_GetDivider:0000000000000002 .L0 
C:\Users\SOLDER~1\AppData\Local\Temp\ccgE0nth.s:401    .text.RTC_GetDivider:0000000000000004 .L0 
C:\Users\SOLDER~1\AppData\Local\Temp\ccgE0nth.s:403    .text.RTC_GetDivider:0000000000000006 .L0 
C:\Users\SOLDER~1\AppData\Local\Temp\ccgE0nth.s:405    .text.RTC_GetDivider:0000000000000006 .L0 
C:\Users\SOLDER~1\AppData\Local\Temp\ccgE0nth.s:407    .text.RTC_GetDivider:000000000000000a .L0 
C:\Users\SOLDER~1\AppData\Local\Temp\ccgE0nth.s:413    .text.RTC_GetDivider:0000000000000018 .L0 
C:\Users\SOLDER~1\AppData\Local\Temp\ccgE0nth.s:415    .text.RTC_GetDivider:000000000000001c .L0 
C:\Users\SOLDER~1\AppData\Local\Temp\ccgE0nth.s:419    .text.RTC_GetDivider:0000000000000026 .L0 
C:\Users\SOLDER~1\AppData\Local\Temp\ccgE0nth.s:426    .text.RTC_GetDivider:0000000000000036 .L0 
C:\Users\SOLDER~1\AppData\Local\Temp\ccgE0nth.s:430    .text.RTC_GetDivider:0000000000000040 .L0 
C:\Users\SOLDER~1\AppData\Local\Temp\ccgE0nth.s:432    .text.RTC_GetDivider:0000000000000044 .L0 
C:\Users\SOLDER~1\AppData\Local\Temp\ccgE0nth.s:434    .text.RTC_GetDivider:0000000000000048 .L0 
C:\Users\SOLDER~1\AppData\Local\Temp\ccgE0nth.s:435    .text.RTC_GetDivider:0000000000000048 .L0 
C:\Users\SOLDER~1\AppData\Local\Temp\ccgE0nth.s:437    .text.RTC_GetDivider:000000000000004a .L0 
C:\Users\SOLDER~1\AppData\Local\Temp\ccgE0nth.s:439    .text.RTC_GetDivider:000000000000004c .L0 
C:\Users\SOLDER~1\AppData\Local\Temp\ccgE0nth.s:446    .text.RTC_WaitForLastTask:0000000000000000 RTC_WaitForLastTask
C:\Users\SOLDER~1\AppData\Local\Temp\ccgE0nth.s:449    .text.RTC_WaitForLastTask:0000000000000000 .L0 
C:\Users\SOLDER~1\AppData\Local\Temp\ccgE0nth.s:450    .text.RTC_WaitForLastTask:0000000000000000 $x
C:\Users\SOLDER~1\AppData\Local\Temp\ccgE0nth.s:450    .text.RTC_WaitForLastTask:0000000000000000 .L0 
C:\Users\SOLDER~1\AppData\Local\Temp\ccgE0nth.s:451    .text.RTC_WaitForLastTask:0000000000000002 .L0 
C:\Users\SOLDER~1\AppData\Local\Temp\ccgE0nth.s:453    .text.RTC_WaitForLastTask:0000000000000004 .L0 
C:\Users\SOLDER~1\AppData\Local\Temp\ccgE0nth.s:455    .text.RTC_WaitForLastTask:0000000000000006 .L0 
C:\Users\SOLDER~1\AppData\Local\Temp\ccgE0nth.s:457    .text.RTC_WaitForLastTask:0000000000000006 .L0 
C:\Users\SOLDER~1\AppData\Local\Temp\ccgE0nth.s:460    .text.RTC_WaitForLastTask:0000000000000008 .L0 
GAS LISTING C:\Users\SOLDER~1\AppData\Local\Temp\ccgE0nth.s 			page 22


C:\Users\SOLDER~1\AppData\Local\Temp\ccgE0nth.s:466    .text.RTC_WaitForLastTask:0000000000000016 .L0 
C:\Users\SOLDER~1\AppData\Local\Temp\ccgE0nth.s:468    .text.RTC_WaitForLastTask:000000000000001a .L0 
C:\Users\SOLDER~1\AppData\Local\Temp\ccgE0nth.s:470    .text.RTC_WaitForLastTask:000000000000001c .L0 
C:\Users\SOLDER~1\AppData\Local\Temp\ccgE0nth.s:473    .text.RTC_WaitForLastTask:0000000000000022 .L0 
C:\Users\SOLDER~1\AppData\Local\Temp\ccgE0nth.s:474    .text.RTC_WaitForLastTask:0000000000000022 .L0 
C:\Users\SOLDER~1\AppData\Local\Temp\ccgE0nth.s:476    .text.RTC_WaitForLastTask:0000000000000024 .L0 
C:\Users\SOLDER~1\AppData\Local\Temp\ccgE0nth.s:478    .text.RTC_WaitForLastTask:0000000000000026 .L0 
C:\Users\SOLDER~1\AppData\Local\Temp\ccgE0nth.s:485    .text.RTC_WaitForSynchro:0000000000000000 RTC_WaitForSynchro
C:\Users\SOLDER~1\AppData\Local\Temp\ccgE0nth.s:488    .text.RTC_WaitForSynchro:0000000000000000 .L0 
C:\Users\SOLDER~1\AppData\Local\Temp\ccgE0nth.s:489    .text.RTC_WaitForSynchro:0000000000000000 $x
C:\Users\SOLDER~1\AppData\Local\Temp\ccgE0nth.s:489    .text.RTC_WaitForSynchro:0000000000000000 .L0 
C:\Users\SOLDER~1\AppData\Local\Temp\ccgE0nth.s:490    .text.RTC_WaitForSynchro:0000000000000002 .L0 
C:\Users\SOLDER~1\AppData\Local\Temp\ccgE0nth.s:492    .text.RTC_WaitForSynchro:0000000000000004 .L0 
C:\Users\SOLDER~1\AppData\Local\Temp\ccgE0nth.s:494    .text.RTC_WaitForSynchro:0000000000000006 .L0 
C:\Users\SOLDER~1\AppData\Local\Temp\ccgE0nth.s:496    .text.RTC_WaitForSynchro:0000000000000006 .L0 
C:\Users\SOLDER~1\AppData\Local\Temp\ccgE0nth.s:504    .text.RTC_WaitForSynchro:000000000000001e .L0 
C:\Users\SOLDER~1\AppData\Local\Temp\ccgE0nth.s:509    .text.RTC_WaitForSynchro:0000000000000026 .L0 
C:\Users\SOLDER~1\AppData\Local\Temp\ccgE0nth.s:512    .text.RTC_WaitForSynchro:0000000000000028 .L0 
C:\Users\SOLDER~1\AppData\Local\Temp\ccgE0nth.s:518    .text.RTC_WaitForSynchro:0000000000000036 .L0 
C:\Users\SOLDER~1\AppData\Local\Temp\ccgE0nth.s:520    .text.RTC_WaitForSynchro:0000000000000038 .L0 
C:\Users\SOLDER~1\AppData\Local\Temp\ccgE0nth.s:522    .text.RTC_WaitForSynchro:000000000000003a .L0 
C:\Users\SOLDER~1\AppData\Local\Temp\ccgE0nth.s:525    .text.RTC_WaitForSynchro:0000000000000040 .L0 
C:\Users\SOLDER~1\AppData\Local\Temp\ccgE0nth.s:526    .text.RTC_WaitForSynchro:0000000000000040 .L0 
C:\Users\SOLDER~1\AppData\Local\Temp\ccgE0nth.s:528    .text.RTC_WaitForSynchro:0000000000000042 .L0 
C:\Users\SOLDER~1\AppData\Local\Temp\ccgE0nth.s:530    .text.RTC_WaitForSynchro:0000000000000044 .L0 
C:\Users\SOLDER~1\AppData\Local\Temp\ccgE0nth.s:537    .text.RTC_GetFlagStatus:0000000000000000 RTC_GetFlagStatus
C:\Users\SOLDER~1\AppData\Local\Temp\ccgE0nth.s:540    .text.RTC_GetFlagStatus:0000000000000000 .L0 
C:\Users\SOLDER~1\AppData\Local\Temp\ccgE0nth.s:541    .text.RTC_GetFlagStatus:0000000000000000 $x
C:\Users\SOLDER~1\AppData\Local\Temp\ccgE0nth.s:541    .text.RTC_GetFlagStatus:0000000000000000 .L0 
C:\Users\SOLDER~1\AppData\Local\Temp\ccgE0nth.s:542    .text.RTC_GetFlagStatus:0000000000000002 .L0 
C:\Users\SOLDER~1\AppData\Local\Temp\ccgE0nth.s:544    .text.RTC_GetFlagStatus:0000000000000004 .L0 
C:\Users\SOLDER~1\AppData\Local\Temp\ccgE0nth.s:546    .text.RTC_GetFlagStatus:0000000000000006 .L0 
C:\Users\SOLDER~1\AppData\Local\Temp\ccgE0nth.s:550    .text.RTC_GetFlagStatus:000000000000000c .L0 
C:\Users\SOLDER~1\AppData\Local\Temp\ccgE0nth.s:552    .text.RTC_GetFlagStatus:0000000000000010 .L0 
C:\Users\SOLDER~1\AppData\Local\Temp\ccgE0nth.s:558    .text.RTC_GetFlagStatus:000000000000001e .L0 
C:\Users\SOLDER~1\AppData\Local\Temp\ccgE0nth.s:563    .text.RTC_GetFlagStatus:0000000000000028 .L0 
C:\Users\SOLDER~1\AppData\Local\Temp\ccgE0nth.s:565    .text.RTC_GetFlagStatus:000000000000002a .L0 
C:\Users\SOLDER~1\AppData\Local\Temp\ccgE0nth.s:570    .text.RTC_GetFlagStatus:0000000000000032 .L0 
C:\Users\SOLDER~1\AppData\Local\Temp\ccgE0nth.s:573    .text.RTC_GetFlagStatus:0000000000000036 .L0 
C:\Users\SOLDER~1\AppData\Local\Temp\ccgE0nth.s:575    .text.RTC_GetFlagStatus:000000000000003a .L0 
C:\Users\SOLDER~1\AppData\Local\Temp\ccgE0nth.s:577    .text.RTC_GetFlagStatus:000000000000003e .L0 
C:\Users\SOLDER~1\AppData\Local\Temp\ccgE0nth.s:578    .text.RTC_GetFlagStatus:000000000000003e .L0 
C:\Users\SOLDER~1\AppData\Local\Temp\ccgE0nth.s:580    .text.RTC_GetFlagStatus:0000000000000040 .L0 
C:\Users\SOLDER~1\AppData\Local\Temp\ccgE0nth.s:582    .text.RTC_GetFlagStatus:0000000000000042 .L0 
C:\Users\SOLDER~1\AppData\Local\Temp\ccgE0nth.s:589    .text.RTC_ClearFlag:0000000000000000 RTC_ClearFlag
C:\Users\SOLDER~1\AppData\Local\Temp\ccgE0nth.s:592    .text.RTC_ClearFlag:0000000000000000 .L0 
C:\Users\SOLDER~1\AppData\Local\Temp\ccgE0nth.s:593    .text.RTC_ClearFlag:0000000000000000 $x
C:\Users\SOLDER~1\AppData\Local\Temp\ccgE0nth.s:593    .text.RTC_ClearFlag:0000000000000000 .L0 
C:\Users\SOLDER~1\AppData\Local\Temp\ccgE0nth.s:594    .text.RTC_ClearFlag:0000000000000002 .L0 
C:\Users\SOLDER~1\AppData\Local\Temp\ccgE0nth.s:596    .text.RTC_ClearFlag:0000000000000004 .L0 
C:\Users\SOLDER~1\AppData\Local\Temp\ccgE0nth.s:598    .text.RTC_ClearFlag:0000000000000006 .L0 
C:\Users\SOLDER~1\AppData\Local\Temp\ccgE0nth.s:602    .text.RTC_ClearFlag:000000000000000c .L0 
C:\Users\SOLDER~1\AppData\Local\Temp\ccgE0nth.s:608    .text.RTC_ClearFlag:000000000000001c .L0 
C:\Users\SOLDER~1\AppData\Local\Temp\ccgE0nth.s:613    .text.RTC_ClearFlag:000000000000002a .L0 
C:\Users\SOLDER~1\AppData\Local\Temp\ccgE0nth.s:616    .text.RTC_ClearFlag:0000000000000032 .L0 
C:\Users\SOLDER~1\AppData\Local\Temp\ccgE0nth.s:621    .text.RTC_ClearFlag:000000000000003a .L0 
C:\Users\SOLDER~1\AppData\Local\Temp\ccgE0nth.s:623    .text.RTC_ClearFlag:000000000000003e .L0 
GAS LISTING C:\Users\SOLDER~1\AppData\Local\Temp\ccgE0nth.s 			page 23


C:\Users\SOLDER~1\AppData\Local\Temp\ccgE0nth.s:624    .text.RTC_ClearFlag:000000000000003e .L0 
C:\Users\SOLDER~1\AppData\Local\Temp\ccgE0nth.s:626    .text.RTC_ClearFlag:0000000000000040 .L0 
C:\Users\SOLDER~1\AppData\Local\Temp\ccgE0nth.s:628    .text.RTC_ClearFlag:0000000000000042 .L0 
C:\Users\SOLDER~1\AppData\Local\Temp\ccgE0nth.s:635    .text.RTC_GetITStatus:0000000000000000 RTC_GetITStatus
C:\Users\SOLDER~1\AppData\Local\Temp\ccgE0nth.s:638    .text.RTC_GetITStatus:0000000000000000 .L0 
C:\Users\SOLDER~1\AppData\Local\Temp\ccgE0nth.s:639    .text.RTC_GetITStatus:0000000000000000 $x
C:\Users\SOLDER~1\AppData\Local\Temp\ccgE0nth.s:639    .text.RTC_GetITStatus:0000000000000000 .L0 
C:\Users\SOLDER~1\AppData\Local\Temp\ccgE0nth.s:640    .text.RTC_GetITStatus:0000000000000002 .L0 
C:\Users\SOLDER~1\AppData\Local\Temp\ccgE0nth.s:642    .text.RTC_GetITStatus:0000000000000004 .L0 
C:\Users\SOLDER~1\AppData\Local\Temp\ccgE0nth.s:644    .text.RTC_GetITStatus:0000000000000006 .L0 
C:\Users\SOLDER~1\AppData\Local\Temp\ccgE0nth.s:648    .text.RTC_GetITStatus:000000000000000c .L0 
C:\Users\SOLDER~1\AppData\Local\Temp\ccgE0nth.s:650    .text.RTC_GetITStatus:0000000000000010 .L0 
C:\Users\SOLDER~1\AppData\Local\Temp\ccgE0nth.s:656    .text.RTC_GetITStatus:000000000000001e .L0 
C:\Users\SOLDER~1\AppData\Local\Temp\ccgE0nth.s:661    .text.RTC_GetITStatus:0000000000000028 .L0 
C:\Users\SOLDER~1\AppData\Local\Temp\ccgE0nth.s:663    .text.RTC_GetITStatus:000000000000002c .L0 
C:\Users\SOLDER~1\AppData\Local\Temp\ccgE0nth.s:669    .text.RTC_GetITStatus:000000000000003a .L0 
C:\Users\SOLDER~1\AppData\Local\Temp\ccgE0nth.s:674    .text.RTC_GetITStatus:0000000000000044 .L0 
C:\Users\SOLDER~1\AppData\Local\Temp\ccgE0nth.s:676    .text.RTC_GetITStatus:0000000000000046 .L0 
C:\Users\SOLDER~1\AppData\Local\Temp\ccgE0nth.s:679    .text.RTC_GetITStatus:000000000000004c .L0 
C:\Users\SOLDER~1\AppData\Local\Temp\ccgE0nth.s:684    .text.RTC_GetITStatus:0000000000000054 .L0 
C:\Users\SOLDER~1\AppData\Local\Temp\ccgE0nth.s:687    .text.RTC_GetITStatus:0000000000000058 .L0 
C:\Users\SOLDER~1\AppData\Local\Temp\ccgE0nth.s:689    .text.RTC_GetITStatus:000000000000005c .L0 
C:\Users\SOLDER~1\AppData\Local\Temp\ccgE0nth.s:691    .text.RTC_GetITStatus:0000000000000060 .L0 
C:\Users\SOLDER~1\AppData\Local\Temp\ccgE0nth.s:692    .text.RTC_GetITStatus:0000000000000060 .L0 
C:\Users\SOLDER~1\AppData\Local\Temp\ccgE0nth.s:694    .text.RTC_GetITStatus:0000000000000062 .L0 
C:\Users\SOLDER~1\AppData\Local\Temp\ccgE0nth.s:696    .text.RTC_GetITStatus:0000000000000064 .L0 
C:\Users\SOLDER~1\AppData\Local\Temp\ccgE0nth.s:703    .text.RTC_ClearITPendingBit:0000000000000000 RTC_ClearITPendingBit
C:\Users\SOLDER~1\AppData\Local\Temp\ccgE0nth.s:706    .text.RTC_ClearITPendingBit:0000000000000000 .L0 
C:\Users\SOLDER~1\AppData\Local\Temp\ccgE0nth.s:707    .text.RTC_ClearITPendingBit:0000000000000000 $x
C:\Users\SOLDER~1\AppData\Local\Temp\ccgE0nth.s:707    .text.RTC_ClearITPendingBit:0000000000000000 .L0 
C:\Users\SOLDER~1\AppData\Local\Temp\ccgE0nth.s:708    .text.RTC_ClearITPendingBit:0000000000000002 .L0 
C:\Users\SOLDER~1\AppData\Local\Temp\ccgE0nth.s:710    .text.RTC_ClearITPendingBit:0000000000000004 .L0 
C:\Users\SOLDER~1\AppData\Local\Temp\ccgE0nth.s:712    .text.RTC_ClearITPendingBit:0000000000000006 .L0 
C:\Users\SOLDER~1\AppData\Local\Temp\ccgE0nth.s:716    .text.RTC_ClearITPendingBit:000000000000000c .L0 
C:\Users\SOLDER~1\AppData\Local\Temp\ccgE0nth.s:722    .text.RTC_ClearITPendingBit:000000000000001c .L0 
C:\Users\SOLDER~1\AppData\Local\Temp\ccgE0nth.s:727    .text.RTC_ClearITPendingBit:000000000000002a .L0 
C:\Users\SOLDER~1\AppData\Local\Temp\ccgE0nth.s:730    .text.RTC_ClearITPendingBit:0000000000000032 .L0 
C:\Users\SOLDER~1\AppData\Local\Temp\ccgE0nth.s:735    .text.RTC_ClearITPendingBit:000000000000003a .L0 
C:\Users\SOLDER~1\AppData\Local\Temp\ccgE0nth.s:737    .text.RTC_ClearITPendingBit:000000000000003e .L0 
C:\Users\SOLDER~1\AppData\Local\Temp\ccgE0nth.s:738    .text.RTC_ClearITPendingBit:000000000000003e .L0 
C:\Users\SOLDER~1\AppData\Local\Temp\ccgE0nth.s:740    .text.RTC_ClearITPendingBit:0000000000000040 .L0 
C:\Users\SOLDER~1\AppData\Local\Temp\ccgE0nth.s:742    .text.RTC_ClearITPendingBit:0000000000000042 .L0 
C:\Users\SOLDER~1\AppData\Local\Temp\ccgE0nth.s:30818  .debug_line_str:0000000000000065 .L0 
C:\Users\SOLDER~1\AppData\Local\Temp\ccgE0nth.s:30818  .debug_line_str:00000000000000af .L0 
C:\Users\SOLDER~1\AppData\Local\Temp\ccgE0nth.s:30818  .debug_line_str:00000000000000bb .L0 
C:\Users\SOLDER~1\AppData\Local\Temp\ccgE0nth.s:30818  .debug_line_str:0000000000000108 .L0 
C:\Users\SOLDER~1\AppData\Local\Temp\ccgE0nth.s:30818  .debug_line_str:0000000000000151 .L0 
C:\Users\SOLDER~1\AppData\Local\Temp\ccgE0nth.s:30818  .debug_line_str:000000000000015d .L0 
C:\Users\SOLDER~1\AppData\Local\Temp\ccgE0nth.s:30818  .debug_line_str:00000000000001b1 .L0 
C:\Users\SOLDER~1\AppData\Local\Temp\ccgE0nth.s:30818  .debug_line_str:00000000000001f6 .L0 
C:\Users\SOLDER~1\AppData\Local\Temp\ccgE0nth.s:30818  .debug_line_str:0000000000000205 .L0 
C:\Users\SOLDER~1\AppData\Local\Temp\ccgE0nth.s:30818  .debug_line_str:0000000000000214 .L0 
C:\Users\SOLDER~1\AppData\Local\Temp\ccgE0nth.s:30818  .debug_line_str:0000000000000225 .L0 
C:\Users\SOLDER~1\AppData\Local\Temp\ccgE0nth.s:30818  .debug_line_str:000000000000022f .L0 
C:\Users\SOLDER~1\AppData\Local\Temp\ccgE0nth.s:30818  .debug_line_str:000000000000023c .L0 
C:\Users\SOLDER~1\AppData\Local\Temp\ccgE0nth.s:30818  .debug_line_str:0000000000000247 .L0 
C:\Users\SOLDER~1\AppData\Local\Temp\ccgE0nth.s:30818  .debug_line_str:0000000000000256 .L0 
GAS LISTING C:\Users\SOLDER~1\AppData\Local\Temp\ccgE0nth.s 			page 24


C:\Users\SOLDER~1\AppData\Local\Temp\ccgE0nth.s:30818  .debug_line_str:000000000000025f .L0 
C:\Users\SOLDER~1\AppData\Local\Temp\ccgE0nth.s:30818  .debug_line_str:0000000000000268 .L0 
C:\Users\SOLDER~1\AppData\Local\Temp\ccgE0nth.s:30818  .debug_line_str:0000000000000273 .L0 
C:\Users\SOLDER~1\AppData\Local\Temp\ccgE0nth.s:30818  .debug_line_str:0000000000000285 .L0 
C:\Users\SOLDER~1\AppData\Local\Temp\ccgE0nth.s:30818  .debug_line_str:000000000000028f .L0 
C:\Users\SOLDER~1\AppData\Local\Temp\ccgE0nth.s:30818  .debug_line_str:000000000000029f .L0 
C:\Users\SOLDER~1\AppData\Local\Temp\ccgE0nth.s:30818  .debug_line_str:00000000000002ae .L0 
C:\Users\SOLDER~1\AppData\Local\Temp\ccgE0nth.s:30818  .debug_line_str:00000000000002bd .L0 
C:\Users\SOLDER~1\AppData\Local\Temp\ccgE0nth.s:30818  .debug_line_str:00000000000002cc .L0 
C:\Users\SOLDER~1\AppData\Local\Temp\ccgE0nth.s:30818  .debug_line_str:00000000000002db .L0 
C:\Users\SOLDER~1\AppData\Local\Temp\ccgE0nth.s:30818  .debug_line_str:00000000000002ed .L0 
C:\Users\SOLDER~1\AppData\Local\Temp\ccgE0nth.s:30818  .debug_line_str:00000000000002fc .L0 
C:\Users\SOLDER~1\AppData\Local\Temp\ccgE0nth.s:30818  .debug_line_str:000000000000030c .L0 
C:\Users\SOLDER~1\AppData\Local\Temp\ccgE0nth.s:30818  .debug_line_str:000000000000031d .L0 
C:\Users\SOLDER~1\AppData\Local\Temp\ccgE0nth.s:30818  .debug_line_str:000000000000032d .L0 
C:\Users\SOLDER~1\AppData\Local\Temp\ccgE0nth.s:30818  .debug_line_str:000000000000033c .L0 
C:\Users\SOLDER~1\AppData\Local\Temp\ccgE0nth.s:30818  .debug_line_str:000000000000034c .L0 
C:\Users\SOLDER~1\AppData\Local\Temp\ccgE0nth.s:30818  .debug_line_str:000000000000035b .L0 
C:\Users\SOLDER~1\AppData\Local\Temp\ccgE0nth.s:30818  .debug_line_str:000000000000036a .L0 
C:\Users\SOLDER~1\AppData\Local\Temp\ccgE0nth.s:30818  .debug_line_str:0000000000000379 .L0 
C:\Users\SOLDER~1\AppData\Local\Temp\ccgE0nth.s:30818  .debug_line_str:0000000000000388 .L0 
C:\Users\SOLDER~1\AppData\Local\Temp\ccgE0nth.s:30818  .debug_line_str:0000000000000399 .L0 
C:\Users\SOLDER~1\AppData\Local\Temp\ccgE0nth.s:30818  .debug_line_str:00000000000003a9 .L0 
C:\Users\SOLDER~1\AppData\Local\Temp\ccgE0nth.s:79     .text.RTC_ITConfig:0000000000000072 .L0 
C:\Users\SOLDER~1\AppData\Local\Temp\ccgE0nth.s:117    .text.RTC_EnterConfigMode:0000000000000030 .L0 
C:\Users\SOLDER~1\AppData\Local\Temp\ccgE0nth.s:155    .text.RTC_ExitConfigMode:000000000000002e .L0 
C:\Users\SOLDER~1\AppData\Local\Temp\ccgE0nth.s:230    .text.RTC_GetCounter:0000000000000076 .L0 
C:\Users\SOLDER~1\AppData\Local\Temp\ccgE0nth.s:282    .text.RTC_SetCounter:000000000000004e .L0 
C:\Users\SOLDER~1\AppData\Local\Temp\ccgE0nth.s:338    .text.RTC_SetPrescaler:0000000000000054 .L0 
C:\Users\SOLDER~1\AppData\Local\Temp\ccgE0nth.s:390    .text.RTC_SetAlarm:000000000000004e .L0 
C:\Users\SOLDER~1\AppData\Local\Temp\ccgE0nth.s:442    .text.RTC_GetDivider:000000000000004c .L0 
C:\Users\SOLDER~1\AppData\Local\Temp\ccgE0nth.s:481    .text.RTC_WaitForLastTask:0000000000000026 .L0 
C:\Users\SOLDER~1\AppData\Local\Temp\ccgE0nth.s:533    .text.RTC_WaitForSynchro:0000000000000044 .L0 
C:\Users\SOLDER~1\AppData\Local\Temp\ccgE0nth.s:585    .text.RTC_GetFlagStatus:0000000000000042 .L0 
C:\Users\SOLDER~1\AppData\Local\Temp\ccgE0nth.s:631    .text.RTC_ClearFlag:0000000000000042 .L0 
C:\Users\SOLDER~1\AppData\Local\Temp\ccgE0nth.s:699    .text.RTC_GetITStatus:0000000000000064 .L0 
C:\Users\SOLDER~1\AppData\Local\Temp\ccgE0nth.s:745    .text.RTC_ClearITPendingBit:0000000000000042 .L0 
                     .debug_frame:0000000000000000 .L0 
C:\Users\SOLDER~1\AppData\Local\Temp\ccgE0nth.s:47     .text.RTC_ITConfig:000000000000003c .L2
C:\Users\SOLDER~1\AppData\Local\Temp\ccgE0nth.s:67     .text.RTC_ITConfig:000000000000006a .L4
C:\Users\SOLDER~1\AppData\Local\Temp\ccgE0nth.s:210    .text.RTC_GetCounter:0000000000000060 .L8
C:\Users\SOLDER~1\AppData\Local\Temp\ccgE0nth.s:218    .text.RTC_GetCounter:000000000000006e .L9
C:\Users\SOLDER~1\AppData\Local\Temp\ccgE0nth.s:458    .text.RTC_WaitForLastTask:0000000000000008 .L16
C:\Users\SOLDER~1\AppData\Local\Temp\ccgE0nth.s:510    .text.RTC_WaitForSynchro:0000000000000028 .L18
C:\Users\SOLDER~1\AppData\Local\Temp\ccgE0nth.s:568    .text.RTC_GetFlagStatus:0000000000000032 .L20
C:\Users\SOLDER~1\AppData\Local\Temp\ccgE0nth.s:571    .text.RTC_GetFlagStatus:0000000000000036 .L21
C:\Users\SOLDER~1\AppData\Local\Temp\ccgE0nth.s:682    .text.RTC_GetITStatus:0000000000000054 .L25
C:\Users\SOLDER~1\AppData\Local\Temp\ccgE0nth.s:685    .text.RTC_GetITStatus:0000000000000058 .L26
C:\Users\SOLDER~1\AppData\Local\Temp\ccgE0nth.s:1252   .debug_abbrev:0000000000000000 .Ldebug_abbrev0
C:\Users\SOLDER~1\AppData\Local\Temp\ccgE0nth.s:19355  .debug_str:0000000000000668 .LASF5778
C:\Users\SOLDER~1\AppData\Local\Temp\ccgE0nth.s:30814  .debug_line_str:0000000000000000 .LASF0
C:\Users\SOLDER~1\AppData\Local\Temp\ccgE0nth.s:30816  .debug_line_str:000000000000001b .LASF1
C:\Users\SOLDER~1\AppData\Local\Temp\ccgE0nth.s:1691   .debug_rnglists:000000000000000c .LLRL0
C:\Users\SOLDER~1\AppData\Local\Temp\ccgE0nth.s:19255  .debug_line:0000000000000000 .Ldebug_line0
C:\Users\SOLDER~1\AppData\Local\Temp\ccgE0nth.s:1737   .debug_macro:0000000000000000 .Ldebug_macro0
C:\Users\SOLDER~1\AppData\Local\Temp\ccgE0nth.s:30751  .debug_str:000000000002ebc5 .LASF5714
C:\Users\SOLDER~1\AppData\Local\Temp\ccgE0nth.s:25535  .debug_str:00000000000198e0 .LASF5715
GAS LISTING C:\Users\SOLDER~1\AppData\Local\Temp\ccgE0nth.s 			page 25


C:\Users\SOLDER~1\AppData\Local\Temp\ccgE0nth.s:21533  .debug_str:0000000000009462 .LASF5718
C:\Users\SOLDER~1\AppData\Local\Temp\ccgE0nth.s:25035  .debug_str:000000000001786a .LASF5716
C:\Users\SOLDER~1\AppData\Local\Temp\ccgE0nth.s:24331  .debug_str:0000000000014bb1 .LASF5717
C:\Users\SOLDER~1\AppData\Local\Temp\ccgE0nth.s:22885  .debug_str:000000000000ec9d .LASF5719
C:\Users\SOLDER~1\AppData\Local\Temp\ccgE0nth.s:24447  .debug_str:0000000000015328 .LASF5720
C:\Users\SOLDER~1\AppData\Local\Temp\ccgE0nth.s:28781  .debug_str:0000000000026c22 .LASF5721
C:\Users\SOLDER~1\AppData\Local\Temp\ccgE0nth.s:25731  .debug_str:000000000001a508 .LASF5722
C:\Users\SOLDER~1\AppData\Local\Temp\ccgE0nth.s:19367  .debug_str:00000000000007c4 .LASF5723
C:\Users\SOLDER~1\AppData\Local\Temp\ccgE0nth.s:19277  .debug_str:000000000000014f .LASF5724
C:\Users\SOLDER~1\AppData\Local\Temp\ccgE0nth.s:28869  .debug_str:00000000000271cb .LASF5725
C:\Users\SOLDER~1\AppData\Local\Temp\ccgE0nth.s:28445  .debug_str:0000000000025531 .LASF5726
C:\Users\SOLDER~1\AppData\Local\Temp\ccgE0nth.s:28797  .debug_str:0000000000026d0a .LASF5727
C:\Users\SOLDER~1\AppData\Local\Temp\ccgE0nth.s:20101  .debug_str:0000000000003776 .LASF5728
C:\Users\SOLDER~1\AppData\Local\Temp\ccgE0nth.s:21345  .debug_str:00000000000087d6 .LASF5729
C:\Users\SOLDER~1\AppData\Local\Temp\ccgE0nth.s:22867  .debug_str:000000000000eb9b .LASF5730
C:\Users\SOLDER~1\AppData\Local\Temp\ccgE0nth.s:24795  .debug_str:00000000000168c8 .LASF5731
C:\Users\SOLDER~1\AppData\Local\Temp\ccgE0nth.s:28535  .debug_str:0000000000025b58 .LASF5732
C:\Users\SOLDER~1\AppData\Local\Temp\ccgE0nth.s:21909  .debug_str:000000000000ad3c .LASF5733
C:\Users\SOLDER~1\AppData\Local\Temp\ccgE0nth.s:26265  .debug_str:000000000001c7ab .LASF5734
C:\Users\SOLDER~1\AppData\Local\Temp\ccgE0nth.s:25587  .debug_str:0000000000019c3f .LASF5735
C:\Users\SOLDER~1\AppData\Local\Temp\ccgE0nth.s:22085  .debug_str:000000000000b85f .LASF5736
C:\Users\SOLDER~1\AppData\Local\Temp\ccgE0nth.s:25593  .debug_str:0000000000019c7c .LASF5737
C:\Users\SOLDER~1\AppData\Local\Temp\ccgE0nth.s:24525  .debug_str:0000000000015836 .LASF5738
C:\Users\SOLDER~1\AppData\Local\Temp\ccgE0nth.s:29603  .debug_str:000000000002a198 .LASF5739
C:\Users\SOLDER~1\AppData\Local\Temp\ccgE0nth.s:24527  .debug_str:0000000000015840 .LASF5740
C:\Users\SOLDER~1\AppData\Local\Temp\ccgE0nth.s:29609  .debug_str:000000000002a1ef .LASF5741
C:\Users\SOLDER~1\AppData\Local\Temp\ccgE0nth.s:22095  .debug_str:000000000000b8df .LASF5742
C:\Users\SOLDER~1\AppData\Local\Temp\ccgE0nth.s:27193  .debug_str:000000000002043d .LASF5743
C:\Users\SOLDER~1\AppData\Local\Temp\ccgE0nth.s:22099  .debug_str:000000000000b916 .LASF5744
C:\Users\SOLDER~1\AppData\Local\Temp\ccgE0nth.s:25279  .debug_str:0000000000018838 .LASF5745
C:\Users\SOLDER~1\AppData\Local\Temp\ccgE0nth.s:22103  .debug_str:000000000000b945 .LASF5746
C:\Users\SOLDER~1\AppData\Local\Temp\ccgE0nth.s:25329  .debug_str:0000000000018b7c .LASF5747
C:\Users\SOLDER~1\AppData\Local\Temp\ccgE0nth.s:24535  .debug_str:00000000000158af .LASF5748
C:\Users\SOLDER~1\AppData\Local\Temp\ccgE0nth.s:27221  .debug_str:00000000000205e3 .LASF5749
C:\Users\SOLDER~1\AppData\Local\Temp\ccgE0nth.s:24537  .debug_str:00000000000158b9 .LASF5750
C:\Users\SOLDER~1\AppData\Local\Temp\ccgE0nth.s:27719  .debug_str:00000000000225b4 .LASF5751
C:\Users\SOLDER~1\AppData\Local\Temp\ccgE0nth.s:24539  .debug_str:00000000000158c3 .LASF5752
C:\Users\SOLDER~1\AppData\Local\Temp\ccgE0nth.s:27727  .debug_str:0000000000022616 .LASF5753
C:\Users\SOLDER~1\AppData\Local\Temp\ccgE0nth.s:22117  .debug_str:000000000000ba22 .LASF5754
C:\Users\SOLDER~1\AppData\Local\Temp\ccgE0nth.s:29209  .debug_str:0000000000028832 .LASF5755
C:\Users\SOLDER~1\AppData\Local\Temp\ccgE0nth.s:30055  .debug_str:000000000002bec3 .LASF5757
C:\Users\SOLDER~1\AppData\Local\Temp\ccgE0nth.s:704    .text.RTC_ClearITPendingBit:0000000000000000 .LFB29
C:\Users\SOLDER~1\AppData\Local\Temp\ccgE0nth.s:743    .text.RTC_ClearITPendingBit:0000000000000042 .LFE29
C:\Users\SOLDER~1\AppData\Local\Temp\ccgE0nth.s:26211  .debug_str:000000000001c430 .LASF5756
C:\Users\SOLDER~1\AppData\Local\Temp\ccgE0nth.s:29715  .debug_str:000000000002a875 .LASF5760
C:\Users\SOLDER~1\AppData\Local\Temp\ccgE0nth.s:636    .text.RTC_GetITStatus:0000000000000000 .LFB28
C:\Users\SOLDER~1\AppData\Local\Temp\ccgE0nth.s:697    .text.RTC_GetITStatus:0000000000000064 .LFE28
C:\Users\SOLDER~1\AppData\Local\Temp\ccgE0nth.s:23815  .debug_str:0000000000012876 .LASF5762
C:\Users\SOLDER~1\AppData\Local\Temp\ccgE0nth.s:30149  .debug_str:000000000002c4f4 .LASF5758
C:\Users\SOLDER~1\AppData\Local\Temp\ccgE0nth.s:590    .text.RTC_ClearFlag:0000000000000000 .LFB27
C:\Users\SOLDER~1\AppData\Local\Temp\ccgE0nth.s:629    .text.RTC_ClearFlag:0000000000000042 .LFE27
C:\Users\SOLDER~1\AppData\Local\Temp\ccgE0nth.s:22231  .debug_str:000000000000c191 .LASF5759
C:\Users\SOLDER~1\AppData\Local\Temp\ccgE0nth.s:22071  .debug_str:000000000000b793 .LASF5761
C:\Users\SOLDER~1\AppData\Local\Temp\ccgE0nth.s:538    .text.RTC_GetFlagStatus:0000000000000000 .LFB26
C:\Users\SOLDER~1\AppData\Local\Temp\ccgE0nth.s:583    .text.RTC_GetFlagStatus:0000000000000042 .LFE26
C:\Users\SOLDER~1\AppData\Local\Temp\ccgE0nth.s:28787  .debug_str:0000000000026c74 .LASF5763
C:\Users\SOLDER~1\AppData\Local\Temp\ccgE0nth.s:486    .text.RTC_WaitForSynchro:0000000000000000 .LFB25
GAS LISTING C:\Users\SOLDER~1\AppData\Local\Temp\ccgE0nth.s 			page 26


C:\Users\SOLDER~1\AppData\Local\Temp\ccgE0nth.s:531    .text.RTC_WaitForSynchro:0000000000000044 .LFE25
C:\Users\SOLDER~1\AppData\Local\Temp\ccgE0nth.s:25863  .debug_str:000000000001addc .LASF5764
C:\Users\SOLDER~1\AppData\Local\Temp\ccgE0nth.s:447    .text.RTC_WaitForLastTask:0000000000000000 .LFB24
C:\Users\SOLDER~1\AppData\Local\Temp\ccgE0nth.s:479    .text.RTC_WaitForLastTask:0000000000000026 .LFE24
C:\Users\SOLDER~1\AppData\Local\Temp\ccgE0nth.s:27427  .debug_str:000000000002134f .LASF5765
C:\Users\SOLDER~1\AppData\Local\Temp\ccgE0nth.s:395    .text.RTC_GetDivider:0000000000000000 .LFB23
C:\Users\SOLDER~1\AppData\Local\Temp\ccgE0nth.s:440    .text.RTC_GetDivider:000000000000004c .LFE23
C:\Users\SOLDER~1\AppData\Local\Temp\ccgE0nth.s:24343  .debug_str:0000000000014c73 .LASF5766
C:\Users\SOLDER~1\AppData\Local\Temp\ccgE0nth.s:343    .text.RTC_SetAlarm:0000000000000000 .LFB22
C:\Users\SOLDER~1\AppData\Local\Temp\ccgE0nth.s:388    .text.RTC_SetAlarm:000000000000004e .LFE22
C:\Users\SOLDER~1\AppData\Local\Temp\ccgE0nth.s:19741  .debug_str:0000000000002023 .LASF5767
C:\Users\SOLDER~1\AppData\Local\Temp\ccgE0nth.s:24263  .debug_str:000000000001472f .LASF5768
C:\Users\SOLDER~1\AppData\Local\Temp\ccgE0nth.s:287    .text.RTC_SetPrescaler:0000000000000000 .LFB21
C:\Users\SOLDER~1\AppData\Local\Temp\ccgE0nth.s:336    .text.RTC_SetPrescaler:0000000000000054 .LFE21
C:\Users\SOLDER~1\AppData\Local\Temp\ccgE0nth.s:26855  .debug_str:000000000001ee41 .LASF5769
C:\Users\SOLDER~1\AppData\Local\Temp\ccgE0nth.s:23103  .debug_str:000000000000facb .LASF5770
C:\Users\SOLDER~1\AppData\Local\Temp\ccgE0nth.s:235    .text.RTC_SetCounter:0000000000000000 .LFB20
C:\Users\SOLDER~1\AppData\Local\Temp\ccgE0nth.s:280    .text.RTC_SetCounter:000000000000004e .LFE20
C:\Users\SOLDER~1\AppData\Local\Temp\ccgE0nth.s:29299  .debug_str:0000000000028dbd .LASF5771
C:\Users\SOLDER~1\AppData\Local\Temp\ccgE0nth.s:29349  .debug_str:00000000000290e3 .LASF5772
C:\Users\SOLDER~1\AppData\Local\Temp\ccgE0nth.s:160    .text.RTC_GetCounter:0000000000000000 .LFB19
C:\Users\SOLDER~1\AppData\Local\Temp\ccgE0nth.s:228    .text.RTC_GetCounter:0000000000000076 .LFE19
C:\Users\SOLDER~1\AppData\Local\Temp\ccgE0nth.s:22825  .debug_str:000000000000e92a .LASF5773
C:\Users\SOLDER~1\AppData\Local\Temp\ccgE0nth.s:21595  .debug_str:000000000000986f .LASF5774
C:\Users\SOLDER~1\AppData\Local\Temp\ccgE0nth.s:24861  .debug_str:0000000000016ce7 .LASF5775
C:\Users\SOLDER~1\AppData\Local\Temp\ccgE0nth.s:122    .text.RTC_ExitConfigMode:0000000000000000 .LFB18
C:\Users\SOLDER~1\AppData\Local\Temp\ccgE0nth.s:153    .text.RTC_ExitConfigMode:000000000000002e .LFE18
C:\Users\SOLDER~1\AppData\Local\Temp\ccgE0nth.s:19423  .debug_str:0000000000000ba4 .LASF5776
C:\Users\SOLDER~1\AppData\Local\Temp\ccgE0nth.s:84     .text.RTC_EnterConfigMode:0000000000000000 .LFB17
C:\Users\SOLDER~1\AppData\Local\Temp\ccgE0nth.s:115    .text.RTC_EnterConfigMode:0000000000000030 .LFE17
C:\Users\SOLDER~1\AppData\Local\Temp\ccgE0nth.s:19593  .debug_str:00000000000016a1 .LASF5779
C:\Users\SOLDER~1\AppData\Local\Temp\ccgE0nth.s:15     .text.RTC_ITConfig:0000000000000000 .LFB16
C:\Users\SOLDER~1\AppData\Local\Temp\ccgE0nth.s:77     .text.RTC_ITConfig:0000000000000072 .LFE16
C:\Users\SOLDER~1\AppData\Local\Temp\ccgE0nth.s:26755  .debug_str:000000000001e7d0 .LASF5777
C:\Users\SOLDER~1\AppData\Local\Temp\ccgE0nth.s:752    .debug_info:0000000000000000 .Ldebug_info0
C:\Users\SOLDER~1\AppData\Local\Temp\ccgE0nth.s:1982   .debug_macro:0000000000000000 .Ldebug_macro2
C:\Users\SOLDER~1\AppData\Local\Temp\ccgE0nth.s:30131  .debug_str:000000000002c3f2 .LASF318
C:\Users\SOLDER~1\AppData\Local\Temp\ccgE0nth.s:2935   .debug_macro:0000000000000000 .Ldebug_macro3
C:\Users\SOLDER~1\AppData\Local\Temp\ccgE0nth.s:25631  .debug_str:0000000000019eae .LASF336
C:\Users\SOLDER~1\AppData\Local\Temp\ccgE0nth.s:20305  .debug_str:000000000000446d .LASF337
C:\Users\SOLDER~1\AppData\Local\Temp\ccgE0nth.s:27607  .debug_str:0000000000021ed7 .LASF338
C:\Users\SOLDER~1\AppData\Local\Temp\ccgE0nth.s:2991   .debug_macro:0000000000000000 .Ldebug_macro4
C:\Users\SOLDER~1\AppData\Local\Temp\ccgE0nth.s:3011   .debug_macro:0000000000000000 .Ldebug_macro5
C:\Users\SOLDER~1\AppData\Local\Temp\ccgE0nth.s:3076   .debug_macro:0000000000000000 .Ldebug_macro6
C:\Users\SOLDER~1\AppData\Local\Temp\ccgE0nth.s:3117   .debug_macro:0000000000000000 .Ldebug_macro7
C:\Users\SOLDER~1\AppData\Local\Temp\ccgE0nth.s:3242   .debug_macro:0000000000000000 .Ldebug_macro8
C:\Users\SOLDER~1\AppData\Local\Temp\ccgE0nth.s:3298   .debug_macro:0000000000000000 .Ldebug_macro9
C:\Users\SOLDER~1\AppData\Local\Temp\ccgE0nth.s:19631  .debug_str:00000000000018c1 .LASF493
C:\Users\SOLDER~1\AppData\Local\Temp\ccgE0nth.s:3510   .debug_macro:0000000000000000 .Ldebug_macro10
C:\Users\SOLDER~1\AppData\Local\Temp\ccgE0nth.s:3548   .debug_macro:0000000000000000 .Ldebug_macro11
C:\Users\SOLDER~1\AppData\Local\Temp\ccgE0nth.s:19897  .debug_str:0000000000002a75 .LASF4592
C:\Users\SOLDER~1\AppData\Local\Temp\ccgE0nth.s:28407  .debug_str:00000000000252cc .LASF4593
C:\Users\SOLDER~1\AppData\Local\Temp\ccgE0nth.s:15814  .debug_macro:0000000000000000 .Ldebug_macro12
C:\Users\SOLDER~1\AppData\Local\Temp\ccgE0nth.s:16095  .debug_macro:0000000000000000 .Ldebug_macro13
C:\Users\SOLDER~1\AppData\Local\Temp\ccgE0nth.s:16247  .debug_macro:0000000000000000 .Ldebug_macro14
C:\Users\SOLDER~1\AppData\Local\Temp\ccgE0nth.s:24787  .debug_str:000000000001683a .LASF4851
C:\Users\SOLDER~1\AppData\Local\Temp\ccgE0nth.s:16600  .debug_macro:0000000000000000 .Ldebug_macro15
GAS LISTING C:\Users\SOLDER~1\AppData\Local\Temp\ccgE0nth.s 			page 27


C:\Users\SOLDER~1\AppData\Local\Temp\ccgE0nth.s:16665  .debug_macro:0000000000000000 .Ldebug_macro16
C:\Users\SOLDER~1\AppData\Local\Temp\ccgE0nth.s:16934  .debug_macro:0000000000000000 .Ldebug_macro17
C:\Users\SOLDER~1\AppData\Local\Temp\ccgE0nth.s:17005  .debug_macro:0000000000000000 .Ldebug_macro18
C:\Users\SOLDER~1\AppData\Local\Temp\ccgE0nth.s:17169  .debug_macro:0000000000000000 .Ldebug_macro19
C:\Users\SOLDER~1\AppData\Local\Temp\ccgE0nth.s:17441  .debug_macro:0000000000000000 .Ldebug_macro20
C:\Users\SOLDER~1\AppData\Local\Temp\ccgE0nth.s:17692  .debug_macro:0000000000000000 .Ldebug_macro21
C:\Users\SOLDER~1\AppData\Local\Temp\ccgE0nth.s:17733  .debug_macro:0000000000000000 .Ldebug_macro22
C:\Users\SOLDER~1\AppData\Local\Temp\ccgE0nth.s:17786  .debug_macro:0000000000000000 .Ldebug_macro23
C:\Users\SOLDER~1\AppData\Local\Temp\ccgE0nth.s:18187  .debug_macro:0000000000000000 .Ldebug_macro24
C:\Users\SOLDER~1\AppData\Local\Temp\ccgE0nth.s:18417  .debug_macro:0000000000000000 .Ldebug_macro25
C:\Users\SOLDER~1\AppData\Local\Temp\ccgE0nth.s:19013  .debug_macro:0000000000000000 .Ldebug_macro26
C:\Users\SOLDER~1\AppData\Local\Temp\ccgE0nth.s:19183  .debug_macro:0000000000000000 .Ldebug_macro27
C:\Users\SOLDER~1\AppData\Local\Temp\ccgE0nth.s:19203  .debug_macro:0000000000000000 .Ldebug_macro28
C:\Users\SOLDER~1\AppData\Local\Temp\ccgE0nth.s:19226  .debug_macro:0000000000000000 .Ldebug_macro29
C:\Users\SOLDER~1\AppData\Local\Temp\ccgE0nth.s:22351  .debug_str:000000000000c9e0 .LASF5712
C:\Users\SOLDER~1\AppData\Local\Temp\ccgE0nth.s:20229  .debug_str:0000000000003f82 .LASF5713
C:\Users\SOLDER~1\AppData\Local\Temp\ccgE0nth.s:20683  .debug_str:0000000000005c7b .LASF2
C:\Users\SOLDER~1\AppData\Local\Temp\ccgE0nth.s:29559  .debug_str:0000000000029e8a .LASF3
C:\Users\SOLDER~1\AppData\Local\Temp\ccgE0nth.s:29937  .debug_str:000000000002b728 .LASF4
C:\Users\SOLDER~1\AppData\Local\Temp\ccgE0nth.s:23409  .debug_str:0000000000010e8e .LASF5
C:\Users\SOLDER~1\AppData\Local\Temp\ccgE0nth.s:24765  .debug_str:00000000000166f0 .LASF6
C:\Users\SOLDER~1\AppData\Local\Temp\ccgE0nth.s:30351  .debug_str:000000000002d22e .LASF7
C:\Users\SOLDER~1\AppData\Local\Temp\ccgE0nth.s:23469  .debug_str:000000000001126e .LASF8
C:\Users\SOLDER~1\AppData\Local\Temp\ccgE0nth.s:24215  .debug_str:00000000000143dd .LASF9
C:\Users\SOLDER~1\AppData\Local\Temp\ccgE0nth.s:21415  .debug_str:0000000000008c59 .LASF10
C:\Users\SOLDER~1\AppData\Local\Temp\ccgE0nth.s:29261  .debug_str:0000000000028b53 .LASF11
C:\Users\SOLDER~1\AppData\Local\Temp\ccgE0nth.s:25821  .debug_str:000000000001aad4 .LASF12
C:\Users\SOLDER~1\AppData\Local\Temp\ccgE0nth.s:25677  .debug_str:000000000001a19b .LASF13
C:\Users\SOLDER~1\AppData\Local\Temp\ccgE0nth.s:28215  .debug_str:0000000000024648 .LASF14
C:\Users\SOLDER~1\AppData\Local\Temp\ccgE0nth.s:25697  .debug_str:000000000001a2d7 .LASF15
C:\Users\SOLDER~1\AppData\Local\Temp\ccgE0nth.s:21911  .debug_str:000000000000ad47 .LASF16
C:\Users\SOLDER~1\AppData\Local\Temp\ccgE0nth.s:27101  .debug_str:000000000001fe5c .LASF17
C:\Users\SOLDER~1\AppData\Local\Temp\ccgE0nth.s:27829  .debug_str:0000000000022cf5 .LASF18
C:\Users\SOLDER~1\AppData\Local\Temp\ccgE0nth.s:21949  .debug_str:000000000000afd2 .LASF19
C:\Users\SOLDER~1\AppData\Local\Temp\ccgE0nth.s:20839  .debug_str:00000000000066ac .LASF20
C:\Users\SOLDER~1\AppData\Local\Temp\ccgE0nth.s:22947  .debug_str:000000000000f08d .LASF21
C:\Users\SOLDER~1\AppData\Local\Temp\ccgE0nth.s:28681  .debug_str:000000000002655d .LASF22
C:\Users\SOLDER~1\AppData\Local\Temp\ccgE0nth.s:25507  .debug_str:0000000000019774 .LASF23
C:\Users\SOLDER~1\AppData\Local\Temp\ccgE0nth.s:25505  .debug_str:000000000001975a .LASF24
C:\Users\SOLDER~1\AppData\Local\Temp\ccgE0nth.s:28139  .debug_str:000000000002412c .LASF25
C:\Users\SOLDER~1\AppData\Local\Temp\ccgE0nth.s:28795  .debug_str:0000000000026cfb .LASF26
C:\Users\SOLDER~1\AppData\Local\Temp\ccgE0nth.s:20195  .debug_str:0000000000003d88 .LASF27
C:\Users\SOLDER~1\AppData\Local\Temp\ccgE0nth.s:24909  .debug_str:0000000000016ff4 .LASF28
C:\Users\SOLDER~1\AppData\Local\Temp\ccgE0nth.s:28033  .debug_str:0000000000023a1d .LASF29
C:\Users\SOLDER~1\AppData\Local\Temp\ccgE0nth.s:27839  .debug_str:0000000000022d9d .LASF30
C:\Users\SOLDER~1\AppData\Local\Temp\ccgE0nth.s:20621  .debug_str:000000000000582d .LASF31
C:\Users\SOLDER~1\AppData\Local\Temp\ccgE0nth.s:26881  .debug_str:000000000001efe3 .LASF32
C:\Users\SOLDER~1\AppData\Local\Temp\ccgE0nth.s:19587  .debug_str:000000000000162e .LASF33
C:\Users\SOLDER~1\AppData\Local\Temp\ccgE0nth.s:23637  .debug_str:0000000000011d6b .LASF34
C:\Users\SOLDER~1\AppData\Local\Temp\ccgE0nth.s:24579  .debug_str:0000000000015b62 .LASF35
C:\Users\SOLDER~1\AppData\Local\Temp\ccgE0nth.s:22699  .debug_str:000000000000e0b2 .LASF36
C:\Users\SOLDER~1\AppData\Local\Temp\ccgE0nth.s:21785  .debug_str:000000000000a4e0 .LASF37
C:\Users\SOLDER~1\AppData\Local\Temp\ccgE0nth.s:21635  .debug_str:0000000000009af9 .LASF38
C:\Users\SOLDER~1\AppData\Local\Temp\ccgE0nth.s:22971  .debug_str:000000000000f200 .LASF39
C:\Users\SOLDER~1\AppData\Local\Temp\ccgE0nth.s:25927  .debug_str:000000000001b1ac .LASF40
C:\Users\SOLDER~1\AppData\Local\Temp\ccgE0nth.s:21161  .debug_str:0000000000007ba6 .LASF41
C:\Users\SOLDER~1\AppData\Local\Temp\ccgE0nth.s:23345  .debug_str:0000000000010a83 .LASF42
GAS LISTING C:\Users\SOLDER~1\AppData\Local\Temp\ccgE0nth.s 			page 28


C:\Users\SOLDER~1\AppData\Local\Temp\ccgE0nth.s:29095  .debug_str:00000000000280b5 .LASF43
C:\Users\SOLDER~1\AppData\Local\Temp\ccgE0nth.s:19953  .debug_str:0000000000002ddf .LASF44
C:\Users\SOLDER~1\AppData\Local\Temp\ccgE0nth.s:23037  .debug_str:000000000000f634 .LASF45
C:\Users\SOLDER~1\AppData\Local\Temp\ccgE0nth.s:23945  .debug_str:00000000000130fd .LASF46
C:\Users\SOLDER~1\AppData\Local\Temp\ccgE0nth.s:28413  .debug_str:0000000000025336 .LASF47
C:\Users\SOLDER~1\AppData\Local\Temp\ccgE0nth.s:25917  .debug_str:000000000001b101 .LASF48
C:\Users\SOLDER~1\AppData\Local\Temp\ccgE0nth.s:23797  .debug_str:000000000001277c .LASF49
C:\Users\SOLDER~1\AppData\Local\Temp\ccgE0nth.s:20453  .debug_str:0000000000004dc8 .LASF50
C:\Users\SOLDER~1\AppData\Local\Temp\ccgE0nth.s:23947  .debug_str:0000000000013116 .LASF51
C:\Users\SOLDER~1\AppData\Local\Temp\ccgE0nth.s:28591  .debug_str:0000000000025f37 .LASF52
C:\Users\SOLDER~1\AppData\Local\Temp\ccgE0nth.s:22697  .debug_str:000000000000e092 .LASF53
C:\Users\SOLDER~1\AppData\Local\Temp\ccgE0nth.s:19797  .debug_str:00000000000023cb .LASF54
C:\Users\SOLDER~1\AppData\Local\Temp\ccgE0nth.s:19285  .debug_str:00000000000001b4 .LASF55
C:\Users\SOLDER~1\AppData\Local\Temp\ccgE0nth.s:29977  .debug_str:000000000002b9b3 .LASF56
C:\Users\SOLDER~1\AppData\Local\Temp\ccgE0nth.s:28009  .debug_str:00000000000238c0 .LASF57
C:\Users\SOLDER~1\AppData\Local\Temp\ccgE0nth.s:19369  .debug_str:00000000000007d6 .LASF58
C:\Users\SOLDER~1\AppData\Local\Temp\ccgE0nth.s:23309  .debug_str:0000000000010818 .LASF59
C:\Users\SOLDER~1\AppData\Local\Temp\ccgE0nth.s:21245  .debug_str:0000000000008155 .LASF60
C:\Users\SOLDER~1\AppData\Local\Temp\ccgE0nth.s:27665  .debug_str:000000000002222d .LASF61
C:\Users\SOLDER~1\AppData\Local\Temp\ccgE0nth.s:19539  .debug_str:0000000000001304 .LASF62
C:\Users\SOLDER~1\AppData\Local\Temp\ccgE0nth.s:22587  .debug_str:000000000000d992 .LASF63
C:\Users\SOLDER~1\AppData\Local\Temp\ccgE0nth.s:24245  .debug_str:00000000000145eb .LASF64
C:\Users\SOLDER~1\AppData\Local\Temp\ccgE0nth.s:26281  .debug_str:000000000001c8a7 .LASF65
C:\Users\SOLDER~1\AppData\Local\Temp\ccgE0nth.s:20035  .debug_str:000000000000332c .LASF66
C:\Users\SOLDER~1\AppData\Local\Temp\ccgE0nth.s:22687  .debug_str:000000000000dfef .LASF67
C:\Users\SOLDER~1\AppData\Local\Temp\ccgE0nth.s:22421  .debug_str:000000000000ceb4 .LASF68
C:\Users\SOLDER~1\AppData\Local\Temp\ccgE0nth.s:25907  .debug_str:000000000001b079 .LASF69
C:\Users\SOLDER~1\AppData\Local\Temp\ccgE0nth.s:24575  .debug_str:0000000000015b1b .LASF70
C:\Users\SOLDER~1\AppData\Local\Temp\ccgE0nth.s:29737  .debug_str:000000000002a9dc .LASF71
C:\Users\SOLDER~1\AppData\Local\Temp\ccgE0nth.s:30203  .debug_str:000000000002c84e .LASF72
C:\Users\SOLDER~1\AppData\Local\Temp\ccgE0nth.s:23753  .debug_str:0000000000012484 .LASF73
C:\Users\SOLDER~1\AppData\Local\Temp\ccgE0nth.s:22859  .debug_str:000000000000eb36 .LASF74
C:\Users\SOLDER~1\AppData\Local\Temp\ccgE0nth.s:20471  .debug_str:0000000000004edf .LASF75
C:\Users\SOLDER~1\AppData\Local\Temp\ccgE0nth.s:23787  .debug_str:00000000000126e2 .LASF76
C:\Users\SOLDER~1\AppData\Local\Temp\ccgE0nth.s:22337  .debug_str:000000000000c8e1 .LASF77
C:\Users\SOLDER~1\AppData\Local\Temp\ccgE0nth.s:24037  .debug_str:000000000001372e .LASF78
C:\Users\SOLDER~1\AppData\Local\Temp\ccgE0nth.s:24581  .debug_str:0000000000015b90 .LASF79
C:\Users\SOLDER~1\AppData\Local\Temp\ccgE0nth.s:23975  .debug_str:0000000000013307 .LASF80
C:\Users\SOLDER~1\AppData\Local\Temp\ccgE0nth.s:28501  .debug_str:000000000002590c .LASF81
C:\Users\SOLDER~1\AppData\Local\Temp\ccgE0nth.s:26407  .debug_str:000000000001d140 .LASF82
C:\Users\SOLDER~1\AppData\Local\Temp\ccgE0nth.s:26843  .debug_str:000000000001ed9d .LASF83
C:\Users\SOLDER~1\AppData\Local\Temp\ccgE0nth.s:29721  .debug_str:000000000002a8d0 .LASF84
C:\Users\SOLDER~1\AppData\Local\Temp\ccgE0nth.s:21729  .debug_str:000000000000a114 .LASF85
C:\Users\SOLDER~1\AppData\Local\Temp\ccgE0nth.s:25591  .debug_str:0000000000019c6a .LASF86
C:\Users\SOLDER~1\AppData\Local\Temp\ccgE0nth.s:23789  .debug_str:0000000000012709 .LASF87
C:\Users\SOLDER~1\AppData\Local\Temp\ccgE0nth.s:25933  .debug_str:000000000001b20c .LASF88
C:\Users\SOLDER~1\AppData\Local\Temp\ccgE0nth.s:20979  .debug_str:000000000000703b .LASF89
C:\Users\SOLDER~1\AppData\Local\Temp\ccgE0nth.s:30197  .debug_str:000000000002c7ec .LASF90
C:\Users\SOLDER~1\AppData\Local\Temp\ccgE0nth.s:29893  .debug_str:000000000002b434 .LASF91
C:\Users\SOLDER~1\AppData\Local\Temp\ccgE0nth.s:27273  .debug_str:0000000000020940 .LASF92
C:\Users\SOLDER~1\AppData\Local\Temp\ccgE0nth.s:26003  .debug_str:000000000001b681 .LASF93
C:\Users\SOLDER~1\AppData\Local\Temp\ccgE0nth.s:27297  .debug_str:0000000000020adb .LASF94
C:\Users\SOLDER~1\AppData\Local\Temp\ccgE0nth.s:30109  .debug_str:000000000002c293 .LASF95
C:\Users\SOLDER~1\AppData\Local\Temp\ccgE0nth.s:28899  .debug_str:00000000000273db .LASF96
C:\Users\SOLDER~1\AppData\Local\Temp\ccgE0nth.s:21819  .debug_str:000000000000a727 .LASF97
C:\Users\SOLDER~1\AppData\Local\Temp\ccgE0nth.s:28133  .debug_str:00000000000240b1 .LASF98
C:\Users\SOLDER~1\AppData\Local\Temp\ccgE0nth.s:24277  .debug_str:0000000000014810 .LASF99
GAS LISTING C:\Users\SOLDER~1\AppData\Local\Temp\ccgE0nth.s 			page 29


C:\Users\SOLDER~1\AppData\Local\Temp\ccgE0nth.s:28295  .debug_str:0000000000024ba1 .LASF100
C:\Users\SOLDER~1\AppData\Local\Temp\ccgE0nth.s:30389  .debug_str:000000000002d48f .LASF101
C:\Users\SOLDER~1\AppData\Local\Temp\ccgE0nth.s:23881  .debug_str:0000000000012cd3 .LASF102
C:\Users\SOLDER~1\AppData\Local\Temp\ccgE0nth.s:27851  .debug_str:0000000000022e52 .LASF103
C:\Users\SOLDER~1\AppData\Local\Temp\ccgE0nth.s:26471  .debug_str:000000000001d58f .LASF104
C:\Users\SOLDER~1\AppData\Local\Temp\ccgE0nth.s:23363  .debug_str:0000000000010b96 .LASF105
C:\Users\SOLDER~1\AppData\Local\Temp\ccgE0nth.s:21075  .debug_str:000000000000763f .LASF106
C:\Users\SOLDER~1\AppData\Local\Temp\ccgE0nth.s:23631  .debug_str:0000000000011cf6 .LASF107
C:\Users\SOLDER~1\AppData\Local\Temp\ccgE0nth.s:22613  .debug_str:000000000000db1e .LASF108
C:\Users\SOLDER~1\AppData\Local\Temp\ccgE0nth.s:23805  .debug_str:000000000001280c .LASF109
C:\Users\SOLDER~1\AppData\Local\Temp\ccgE0nth.s:20503  .debug_str:00000000000050bd .LASF110
C:\Users\SOLDER~1\AppData\Local\Temp\ccgE0nth.s:23625  .debug_str:0000000000011ca0 .LASF111
C:\Users\SOLDER~1\AppData\Local\Temp\ccgE0nth.s:22609  .debug_str:000000000000dae9 .LASF112
C:\Users\SOLDER~1\AppData\Local\Temp\ccgE0nth.s:24095  .debug_str:0000000000013b7e .LASF113
C:\Users\SOLDER~1\AppData\Local\Temp\ccgE0nth.s:22997  .debug_str:000000000000f39d .LASF114
C:\Users\SOLDER~1\AppData\Local\Temp\ccgE0nth.s:25559  .debug_str:0000000000019a70 .LASF115
C:\Users\SOLDER~1\AppData\Local\Temp\ccgE0nth.s:22081  .debug_str:000000000000b821 .LASF116
C:\Users\SOLDER~1\AppData\Local\Temp\ccgE0nth.s:21813  .debug_str:000000000000a6a0 .LASF117
C:\Users\SOLDER~1\AppData\Local\Temp\ccgE0nth.s:23165  .debug_str:000000000000ff21 .LASF118
C:\Users\SOLDER~1\AppData\Local\Temp\ccgE0nth.s:29775  .debug_str:000000000002ac78 .LASF119
C:\Users\SOLDER~1\AppData\Local\Temp\ccgE0nth.s:25097  .debug_str:0000000000017c5e .LASF120
C:\Users\SOLDER~1\AppData\Local\Temp\ccgE0nth.s:21573  .debug_str:000000000000970c .LASF121
C:\Users\SOLDER~1\AppData\Local\Temp\ccgE0nth.s:26263  .debug_str:000000000001c78f .LASF122
C:\Users\SOLDER~1\AppData\Local\Temp\ccgE0nth.s:30521  .debug_str:000000000002dd14 .LASF123
C:\Users\SOLDER~1\AppData\Local\Temp\ccgE0nth.s:22913  .debug_str:000000000000ee65 .LASF124
C:\Users\SOLDER~1\AppData\Local\Temp\ccgE0nth.s:28487  .debug_str:00000000000257f6 .LASF125
C:\Users\SOLDER~1\AppData\Local\Temp\ccgE0nth.s:22391  .debug_str:000000000000cca5 .LASF126
C:\Users\SOLDER~1\AppData\Local\Temp\ccgE0nth.s:22489  .debug_str:000000000000d32b .LASF127
C:\Users\SOLDER~1\AppData\Local\Temp\ccgE0nth.s:20135  .debug_str:00000000000039ae .LASF128
C:\Users\SOLDER~1\AppData\Local\Temp\ccgE0nth.s:20423  .debug_str:0000000000004bf5 .LASF129
C:\Users\SOLDER~1\AppData\Local\Temp\ccgE0nth.s:29459  .debug_str:00000000000297ff .LASF130
C:\Users\SOLDER~1\AppData\Local\Temp\ccgE0nth.s:23809  .debug_str:0000000000012824 .LASF131
C:\Users\SOLDER~1\AppData\Local\Temp\ccgE0nth.s:26665  .debug_str:000000000001e1d6 .LASF132
C:\Users\SOLDER~1\AppData\Local\Temp\ccgE0nth.s:21645  .debug_str:0000000000009b94 .LASF133
C:\Users\SOLDER~1\AppData\Local\Temp\ccgE0nth.s:29003  .debug_str:0000000000027a55 .LASF134
C:\Users\SOLDER~1\AppData\Local\Temp\ccgE0nth.s:29325  .debug_str:0000000000028f33 .LASF135
C:\Users\SOLDER~1\AppData\Local\Temp\ccgE0nth.s:29125  .debug_str:0000000000028292 .LASF136
C:\Users\SOLDER~1\AppData\Local\Temp\ccgE0nth.s:22891  .debug_str:000000000000ecea .LASF137
C:\Users\SOLDER~1\AppData\Local\Temp\ccgE0nth.s:28401  .debug_str:000000000002526a .LASF138
C:\Users\SOLDER~1\AppData\Local\Temp\ccgE0nth.s:20409  .debug_str:0000000000004ae8 .LASF139
C:\Users\SOLDER~1\AppData\Local\Temp\ccgE0nth.s:21287  .debug_str:0000000000008424 .LASF140
C:\Users\SOLDER~1\AppData\Local\Temp\ccgE0nth.s:30195  .debug_str:000000000002c7d8 .LASF141
C:\Users\SOLDER~1\AppData\Local\Temp\ccgE0nth.s:26157  .debug_str:000000000001c05b .LASF142
C:\Users\SOLDER~1\AppData\Local\Temp\ccgE0nth.s:29667  .debug_str:000000000002a5a3 .LASF143
C:\Users\SOLDER~1\AppData\Local\Temp\ccgE0nth.s:28771  .debug_str:0000000000026b7d .LASF144
C:\Users\SOLDER~1\AppData\Local\Temp\ccgE0nth.s:26355  .debug_str:000000000001cddd .LASF145
C:\Users\SOLDER~1\AppData\Local\Temp\ccgE0nth.s:21771  .debug_str:000000000000a3e0 .LASF146
C:\Users\SOLDER~1\AppData\Local\Temp\ccgE0nth.s:24031  .debug_str:00000000000136d4 .LASF147
C:\Users\SOLDER~1\AppData\Local\Temp\ccgE0nth.s:25523  .debug_str:000000000001983c .LASF148
C:\Users\SOLDER~1\AppData\Local\Temp\ccgE0nth.s:24589  .debug_str:0000000000015be8 .LASF149
C:\Users\SOLDER~1\AppData\Local\Temp\ccgE0nth.s:22449  .debug_str:000000000000d073 .LASF150
C:\Users\SOLDER~1\AppData\Local\Temp\ccgE0nth.s:20469  .debug_str:0000000000004ec8 .LASF151
C:\Users\SOLDER~1\AppData\Local\Temp\ccgE0nth.s:23033  .debug_str:000000000000f5f6 .LASF152
C:\Users\SOLDER~1\AppData\Local\Temp\ccgE0nth.s:25511  .debug_str:00000000000197a4 .LASF153
C:\Users\SOLDER~1\AppData\Local\Temp\ccgE0nth.s:19359  .debug_str:0000000000000744 .LASF154
C:\Users\SOLDER~1\AppData\Local\Temp\ccgE0nth.s:27841  .debug_str:0000000000022db7 .LASF155
C:\Users\SOLDER~1\AppData\Local\Temp\ccgE0nth.s:24085  .debug_str:0000000000013a99 .LASF156
GAS LISTING C:\Users\SOLDER~1\AppData\Local\Temp\ccgE0nth.s 			page 30


C:\Users\SOLDER~1\AppData\Local\Temp\ccgE0nth.s:28773  .debug_str:0000000000026b95 .LASF157
C:\Users\SOLDER~1\AppData\Local\Temp\ccgE0nth.s:26559  .debug_str:000000000001dac7 .LASF158
C:\Users\SOLDER~1\AppData\Local\Temp\ccgE0nth.s:28711  .debug_str:000000000002674f .LASF159
C:\Users\SOLDER~1\AppData\Local\Temp\ccgE0nth.s:29381  .debug_str:00000000000292d6 .LASF160
C:\Users\SOLDER~1\AppData\Local\Temp\ccgE0nth.s:26699  .debug_str:000000000001e3ea .LASF161
C:\Users\SOLDER~1\AppData\Local\Temp\ccgE0nth.s:22317  .debug_str:000000000000c787 .LASF162
C:\Users\SOLDER~1\AppData\Local\Temp\ccgE0nth.s:21389  .debug_str:0000000000008a9e .LASF163
C:\Users\SOLDER~1\AppData\Local\Temp\ccgE0nth.s:24225  .debug_str:0000000000014485 .LASF164
C:\Users\SOLDER~1\AppData\Local\Temp\ccgE0nth.s:26201  .debug_str:000000000001c396 .LASF165
C:\Users\SOLDER~1\AppData\Local\Temp\ccgE0nth.s:27657  .debug_str:00000000000221d0 .LASF166
C:\Users\SOLDER~1\AppData\Local\Temp\ccgE0nth.s:29253  .debug_str:0000000000028ad4 .LASF167
C:\Users\SOLDER~1\AppData\Local\Temp\ccgE0nth.s:28391  .debug_str:00000000000251b0 .LASF168
C:\Users\SOLDER~1\AppData\Local\Temp\ccgE0nth.s:30093  .debug_str:000000000002c17f .LASF169
C:\Users\SOLDER~1\AppData\Local\Temp\ccgE0nth.s:21151  .debug_str:0000000000007af6 .LASF170
C:\Users\SOLDER~1\AppData\Local\Temp\ccgE0nth.s:29765  .debug_str:000000000002abd6 .LASF171
C:\Users\SOLDER~1\AppData\Local\Temp\ccgE0nth.s:21535  .debug_str:000000000000946c .LASF172
C:\Users\SOLDER~1\AppData\Local\Temp\ccgE0nth.s:26061  .debug_str:000000000001b9fb .LASF173
C:\Users\SOLDER~1\AppData\Local\Temp\ccgE0nth.s:25317  .debug_str:0000000000018a89 .LASF174
C:\Users\SOLDER~1\AppData\Local\Temp\ccgE0nth.s:29185  .debug_str:0000000000028660 .LASF175
C:\Users\SOLDER~1\AppData\Local\Temp\ccgE0nth.s:26197  .debug_str:000000000001c328 .LASF176
C:\Users\SOLDER~1\AppData\Local\Temp\ccgE0nth.s:26481  .debug_str:000000000001d623 .LASF177
C:\Users\SOLDER~1\AppData\Local\Temp\ccgE0nth.s:21763  .debug_str:000000000000a371 .LASF178
C:\Users\SOLDER~1\AppData\Local\Temp\ccgE0nth.s:23751  .debug_str:000000000001246c .LASF179
C:\Users\SOLDER~1\AppData\Local\Temp\ccgE0nth.s:25635  .debug_str:0000000000019edc .LASF180
C:\Users\SOLDER~1\AppData\Local\Temp\ccgE0nth.s:20809  .debug_str:00000000000064d2 .LASF181
C:\Users\SOLDER~1\AppData\Local\Temp\ccgE0nth.s:21619  .debug_str:0000000000009a06 .LASF182
C:\Users\SOLDER~1\AppData\Local\Temp\ccgE0nth.s:20273  .debug_str:0000000000004275 .LASF183
C:\Users\SOLDER~1\AppData\Local\Temp\ccgE0nth.s:25691  .debug_str:000000000001a278 .LASF184
C:\Users\SOLDER~1\AppData\Local\Temp\ccgE0nth.s:24227  .debug_str:000000000001449c .LASF185
C:\Users\SOLDER~1\AppData\Local\Temp\ccgE0nth.s:19791  .debug_str:000000000000235b .LASF186
C:\Users\SOLDER~1\AppData\Local\Temp\ccgE0nth.s:30387  .debug_str:000000000002d47c .LASF187
C:\Users\SOLDER~1\AppData\Local\Temp\ccgE0nth.s:19571  .debug_str:0000000000001539 .LASF188
C:\Users\SOLDER~1\AppData\Local\Temp\ccgE0nth.s:24207  .debug_str:0000000000014343 .LASF189
C:\Users\SOLDER~1\AppData\Local\Temp\ccgE0nth.s:24659  .debug_str:0000000000016044 .LASF190
C:\Users\SOLDER~1\AppData\Local\Temp\ccgE0nth.s:29591  .debug_str:000000000002a0b8 .LASF191
C:\Users\SOLDER~1\AppData\Local\Temp\ccgE0nth.s:22643  .debug_str:000000000000dd01 .LASF192
C:\Users\SOLDER~1\AppData\Local\Temp\ccgE0nth.s:30065  .debug_str:000000000002bf68 .LASF193
C:\Users\SOLDER~1\AppData\Local\Temp\ccgE0nth.s:24173  .debug_str:00000000000140d8 .LASF194
C:\Users\SOLDER~1\AppData\Local\Temp\ccgE0nth.s:22933  .debug_str:000000000000efbd .LASF195
C:\Users\SOLDER~1\AppData\Local\Temp\ccgE0nth.s:21963  .debug_str:000000000000b0cb .LASF196
C:\Users\SOLDER~1\AppData\Local\Temp\ccgE0nth.s:26757  .debug_str:000000000001e7d9 .LASF197
C:\Users\SOLDER~1\AppData\Local\Temp\ccgE0nth.s:29681  .debug_str:000000000002a696 .LASF198
C:\Users\SOLDER~1\AppData\Local\Temp\ccgE0nth.s:24455  .debug_str:00000000000153ac .LASF199
C:\Users\SOLDER~1\AppData\Local\Temp\ccgE0nth.s:26959  .debug_str:000000000001f539 .LASF200
C:\Users\SOLDER~1\AppData\Local\Temp\ccgE0nth.s:19581  .debug_str:00000000000015db .LASF201
C:\Users\SOLDER~1\AppData\Local\Temp\ccgE0nth.s:30621  .debug_str:000000000002e33e .LASF202
C:\Users\SOLDER~1\AppData\Local\Temp\ccgE0nth.s:24431  .debug_str:00000000000151ff .LASF203
C:\Users\SOLDER~1\AppData\Local\Temp\ccgE0nth.s:27145  .debug_str:000000000002012d .LASF204
C:\Users\SOLDER~1\AppData\Local\Temp\ccgE0nth.s:25711  .debug_str:000000000001a3ba .LASF205
C:\Users\SOLDER~1\AppData\Local\Temp\ccgE0nth.s:20857  .debug_str:00000000000067ea .LASF206
C:\Users\SOLDER~1\AppData\Local\Temp\ccgE0nth.s:24443  .debug_str:00000000000152c6 .LASF207
C:\Users\SOLDER~1\AppData\Local\Temp\ccgE0nth.s:26403  .debug_str:000000000001d0d9 .LASF208
C:\Users\SOLDER~1\AppData\Local\Temp\ccgE0nth.s:27385  .debug_str:0000000000021081 .LASF209
C:\Users\SOLDER~1\AppData\Local\Temp\ccgE0nth.s:23253  .debug_str:00000000000104b1 .LASF210
C:\Users\SOLDER~1\AppData\Local\Temp\ccgE0nth.s:28775  .debug_str:0000000000026bd1 .LASF211
C:\Users\SOLDER~1\AppData\Local\Temp\ccgE0nth.s:28577  .debug_str:0000000000025e21 .LASF212
C:\Users\SOLDER~1\AppData\Local\Temp\ccgE0nth.s:21097  .debug_str:00000000000077a2 .LASF213
GAS LISTING C:\Users\SOLDER~1\AppData\Local\Temp\ccgE0nth.s 			page 31


C:\Users\SOLDER~1\AppData\Local\Temp\ccgE0nth.s:28097  .debug_str:0000000000023e5f .LASF214
C:\Users\SOLDER~1\AppData\Local\Temp\ccgE0nth.s:24745  .debug_str:00000000000165e5 .LASF215
C:\Users\SOLDER~1\AppData\Local\Temp\ccgE0nth.s:20819  .debug_str:0000000000006563 .LASF216
C:\Users\SOLDER~1\AppData\Local\Temp\ccgE0nth.s:21477  .debug_str:0000000000009094 .LASF217
C:\Users\SOLDER~1\AppData\Local\Temp\ccgE0nth.s:28651  .debug_str:000000000002637f .LASF218
C:\Users\SOLDER~1\AppData\Local\Temp\ccgE0nth.s:27585  .debug_str:0000000000021d68 .LASF219
C:\Users\SOLDER~1\AppData\Local\Temp\ccgE0nth.s:19887  .debug_str:00000000000029d8 .LASF220
C:\Users\SOLDER~1\AppData\Local\Temp\ccgE0nth.s:21613  .debug_str:0000000000009963 .LASF221
C:\Users\SOLDER~1\AppData\Local\Temp\ccgE0nth.s:19299  .debug_str:00000000000002a4 .LASF222
C:\Users\SOLDER~1\AppData\Local\Temp\ccgE0nth.s:27179  .debug_str:000000000002034c .LASF223
C:\Users\SOLDER~1\AppData\Local\Temp\ccgE0nth.s:21523  .debug_str:00000000000093a5 .LASF224
C:\Users\SOLDER~1\AppData\Local\Temp\ccgE0nth.s:20865  .debug_str:000000000000689d .LASF225
C:\Users\SOLDER~1\AppData\Local\Temp\ccgE0nth.s:26663  .debug_str:000000000001e1bf .LASF226
C:\Users\SOLDER~1\AppData\Local\Temp\ccgE0nth.s:24845  .debug_str:0000000000016bff .LASF227
C:\Users\SOLDER~1\AppData\Local\Temp\ccgE0nth.s:23173  .debug_str:000000000000ff91 .LASF228
C:\Users\SOLDER~1\AppData\Local\Temp\ccgE0nth.s:27177  .debug_str:0000000000020333 .LASF229
C:\Users\SOLDER~1\AppData\Local\Temp\ccgE0nth.s:28223  .debug_str:00000000000246c9 .LASF230
C:\Users\SOLDER~1\AppData\Local\Temp\ccgE0nth.s:23197  .debug_str:0000000000010112 .LASF231
C:\Users\SOLDER~1\AppData\Local\Temp\ccgE0nth.s:28999  .debug_str:0000000000027a19 .LASF232
C:\Users\SOLDER~1\AppData\Local\Temp\ccgE0nth.s:28287  .debug_str:0000000000024b1c .LASF233
C:\Users\SOLDER~1\AppData\Local\Temp\ccgE0nth.s:30041  .debug_str:000000000002bdbe .LASF234
C:\Users\SOLDER~1\AppData\Local\Temp\ccgE0nth.s:21261  .debug_str:0000000000008279 .LASF235
C:\Users\SOLDER~1\AppData\Local\Temp\ccgE0nth.s:23247  .debug_str:0000000000010449 .LASF236
C:\Users\SOLDER~1\AppData\Local\Temp\ccgE0nth.s:22705  .debug_str:000000000000e122 .LASF237
C:\Users\SOLDER~1\AppData\Local\Temp\ccgE0nth.s:28453  .debug_str:000000000002559a .LASF238
C:\Users\SOLDER~1\AppData\Local\Temp\ccgE0nth.s:24069  .debug_str:000000000001395f .LASF239
C:\Users\SOLDER~1\AppData\Local\Temp\ccgE0nth.s:23521  .debug_str:00000000000115ee .LASF240
C:\Users\SOLDER~1\AppData\Local\Temp\ccgE0nth.s:25493  .debug_str:000000000001965d .LASF241
C:\Users\SOLDER~1\AppData\Local\Temp\ccgE0nth.s:25045  .debug_str:00000000000178e5 .LASF242
C:\Users\SOLDER~1\AppData\Local\Temp\ccgE0nth.s:26495  .debug_str:000000000001d6ee .LASF243
C:\Users\SOLDER~1\AppData\Local\Temp\ccgE0nth.s:25871  .debug_str:000000000001ae54 .LASF244
C:\Users\SOLDER~1\AppData\Local\Temp\ccgE0nth.s:30355  .debug_str:000000000002d263 .LASF245
C:\Users\SOLDER~1\AppData\Local\Temp\ccgE0nth.s:26431  .debug_str:000000000001d2fd .LASF246
C:\Users\SOLDER~1\AppData\Local\Temp\ccgE0nth.s:29483  .debug_str:0000000000029964 .LASF247
C:\Users\SOLDER~1\AppData\Local\Temp\ccgE0nth.s:22729  .debug_str:000000000000e305 .LASF248
C:\Users\SOLDER~1\AppData\Local\Temp\ccgE0nth.s:28863  .debug_str:000000000002715b .LASF249
C:\Users\SOLDER~1\AppData\Local\Temp\ccgE0nth.s:22585  .debug_str:000000000000d97a .LASF250
C:\Users\SOLDER~1\AppData\Local\Temp\ccgE0nth.s:25779  .debug_str:000000000001a843 .LASF251
C:\Users\SOLDER~1\AppData\Local\Temp\ccgE0nth.s:22831  .debug_str:000000000000e96e .LASF252
C:\Users\SOLDER~1\AppData\Local\Temp\ccgE0nth.s:19507  .debug_str:00000000000010eb .LASF253
C:\Users\SOLDER~1\AppData\Local\Temp\ccgE0nth.s:22037  .debug_str:000000000000b55e .LASF254
C:\Users\SOLDER~1\AppData\Local\Temp\ccgE0nth.s:19449  .debug_str:0000000000000d5b .LASF255
C:\Users\SOLDER~1\AppData\Local\Temp\ccgE0nth.s:22147  .debug_str:000000000000bbfc .LASF256
C:\Users\SOLDER~1\AppData\Local\Temp\ccgE0nth.s:21617  .debug_str:00000000000099c1 .LASF257
C:\Users\SOLDER~1\AppData\Local\Temp\ccgE0nth.s:30561  .debug_str:000000000002df81 .LASF258
C:\Users\SOLDER~1\AppData\Local\Temp\ccgE0nth.s:26379  .debug_str:000000000001cf4f .LASF259
C:\Users\SOLDER~1\AppData\Local\Temp\ccgE0nth.s:25197  .debug_str:0000000000018319 .LASF260
C:\Users\SOLDER~1\AppData\Local\Temp\ccgE0nth.s:25991  .debug_str:000000000001b5c5 .LASF261
C:\Users\SOLDER~1\AppData\Local\Temp\ccgE0nth.s:22757  .debug_str:000000000000e4df .LASF262
C:\Users\SOLDER~1\AppData\Local\Temp\ccgE0nth.s:22089  .debug_str:000000000000b890 .LASF263
C:\Users\SOLDER~1\AppData\Local\Temp\ccgE0nth.s:29857  .debug_str:000000000002b1fd .LASF264
C:\Users\SOLDER~1\AppData\Local\Temp\ccgE0nth.s:22405  .debug_str:000000000000cd9c .LASF265
C:\Users\SOLDER~1\AppData\Local\Temp\ccgE0nth.s:23379  .debug_str:0000000000010c8c .LASF266
C:\Users\SOLDER~1\AppData\Local\Temp\ccgE0nth.s:25229  .debug_str:0000000000018511 .LASF267
C:\Users\SOLDER~1\AppData\Local\Temp\ccgE0nth.s:29107  .debug_str:000000000002818d .LASF268
C:\Users\SOLDER~1\AppData\Local\Temp\ccgE0nth.s:22227  .debug_str:000000000000c130 .LASF269
C:\Users\SOLDER~1\AppData\Local\Temp\ccgE0nth.s:20953  .debug_str:0000000000006e21 .LASF270
GAS LISTING C:\Users\SOLDER~1\AppData\Local\Temp\ccgE0nth.s 			page 32


C:\Users\SOLDER~1\AppData\Local\Temp\ccgE0nth.s:21131  .debug_str:0000000000007997 .LASF271
C:\Users\SOLDER~1\AppData\Local\Temp\ccgE0nth.s:22461  .debug_str:000000000000d146 .LASF272
C:\Users\SOLDER~1\AppData\Local\Temp\ccgE0nth.s:22297  .debug_str:000000000000c617 .LASF273
C:\Users\SOLDER~1\AppData\Local\Temp\ccgE0nth.s:19595  .debug_str:00000000000016ae .LASF274
C:\Users\SOLDER~1\AppData\Local\Temp\ccgE0nth.s:20945  .debug_str:0000000000006dae .LASF275
C:\Users\SOLDER~1\AppData\Local\Temp\ccgE0nth.s:29793  .debug_str:000000000002ad94 .LASF276
C:\Users\SOLDER~1\AppData\Local\Temp\ccgE0nth.s:27741  .debug_str:00000000000226ee .LASF277
C:\Users\SOLDER~1\AppData\Local\Temp\ccgE0nth.s:28677  .debug_str:0000000000026537 .LASF278
C:\Users\SOLDER~1\AppData\Local\Temp\ccgE0nth.s:20905  .debug_str:0000000000006b1d .LASF279
C:\Users\SOLDER~1\AppData\Local\Temp\ccgE0nth.s:20685  .debug_str:0000000000005c86 .LASF280
C:\Users\SOLDER~1\AppData\Local\Temp\ccgE0nth.s:20565  .debug_str:000000000000549f .LASF281
C:\Users\SOLDER~1\AppData\Local\Temp\ccgE0nth.s:25259  .debug_str:0000000000018714 .LASF282
C:\Users\SOLDER~1\AppData\Local\Temp\ccgE0nth.s:28647  .debug_str:000000000002633a .LASF283
C:\Users\SOLDER~1\AppData\Local\Temp\ccgE0nth.s:28907  .debug_str:0000000000027452 .LASF284
C:\Users\SOLDER~1\AppData\Local\Temp\ccgE0nth.s:29771  .debug_str:000000000002ac38 .LASF285
C:\Users\SOLDER~1\AppData\Local\Temp\ccgE0nth.s:26441  .debug_str:000000000001d3a1 .LASF286
C:\Users\SOLDER~1\AppData\Local\Temp\ccgE0nth.s:30551  .debug_str:000000000002dee0 .LASF287
C:\Users\SOLDER~1\AppData\Local\Temp\ccgE0nth.s:20657  .debug_str:0000000000005aa8 .LASF288
C:\Users\SOLDER~1\AppData\Local\Temp\ccgE0nth.s:24459  .debug_str:00000000000153e1 .LASF289
C:\Users\SOLDER~1\AppData\Local\Temp\ccgE0nth.s:23333  .debug_str:00000000000109ce .LASF290
C:\Users\SOLDER~1\AppData\Local\Temp\ccgE0nth.s:30789  .debug_str:000000000002ee04 .LASF291
C:\Users\SOLDER~1\AppData\Local\Temp\ccgE0nth.s:29611  .debug_str:000000000002a1f5 .LASF292
C:\Users\SOLDER~1\AppData\Local\Temp\ccgE0nth.s:20491  .debug_str:0000000000005011 .LASF293
C:\Users\SOLDER~1\AppData\Local\Temp\ccgE0nth.s:19301  .debug_str:00000000000002e5 .LASF294
C:\Users\SOLDER~1\AppData\Local\Temp\ccgE0nth.s:24509  .debug_str:000000000001573c .LASF295
C:\Users\SOLDER~1\AppData\Local\Temp\ccgE0nth.s:25335  .debug_str:0000000000018bb8 .LASF296
C:\Users\SOLDER~1\AppData\Local\Temp\ccgE0nth.s:22749  .debug_str:000000000000e459 .LASF297
C:\Users\SOLDER~1\AppData\Local\Temp\ccgE0nth.s:23277  .debug_str:0000000000010639 .LASF298
C:\Users\SOLDER~1\AppData\Local\Temp\ccgE0nth.s:26031  .debug_str:000000000001b827 .LASF299
C:\Users\SOLDER~1\AppData\Local\Temp\ccgE0nth.s:24583  .debug_str:0000000000015ba9 .LASF300
C:\Users\SOLDER~1\AppData\Local\Temp\ccgE0nth.s:24011  .debug_str:000000000001356e .LASF301
C:\Users\SOLDER~1\AppData\Local\Temp\ccgE0nth.s:19827  .debug_str:00000000000025d1 .LASF302
C:\Users\SOLDER~1\AppData\Local\Temp\ccgE0nth.s:22411  .debug_str:000000000000ce05 .LASF303
C:\Users\SOLDER~1\AppData\Local\Temp\ccgE0nth.s:27821  .debug_str:0000000000022c72 .LASF304
C:\Users\SOLDER~1\AppData\Local\Temp\ccgE0nth.s:23297  .debug_str:000000000001074d .LASF305
C:\Users\SOLDER~1\AppData\Local\Temp\ccgE0nth.s:28667  .debug_str:00000000000264a6 .LASF306
C:\Users\SOLDER~1\AppData\Local\Temp\ccgE0nth.s:28259  .debug_str:000000000002492c .LASF307
C:\Users\SOLDER~1\AppData\Local\Temp\ccgE0nth.s:26453  .debug_str:000000000001d46c .LASF308
C:\Users\SOLDER~1\AppData\Local\Temp\ccgE0nth.s:20279  .debug_str:00000000000042d9 .LASF309
C:\Users\SOLDER~1\AppData\Local\Temp\ccgE0nth.s:26817  .debug_str:000000000001ebd4 .LASF310
C:\Users\SOLDER~1\AppData\Local\Temp\ccgE0nth.s:22533  .debug_str:000000000000d621 .LASF311
C:\Users\SOLDER~1\AppData\Local\Temp\ccgE0nth.s:23837  .debug_str:00000000000129ba .LASF312
C:\Users\SOLDER~1\AppData\Local\Temp\ccgE0nth.s:21687  .debug_str:0000000000009e41 .LASF313
C:\Users\SOLDER~1\AppData\Local\Temp\ccgE0nth.s:24271  .debug_str:00000000000147b8 .LASF314
C:\Users\SOLDER~1\AppData\Local\Temp\ccgE0nth.s:21127  .debug_str:0000000000007958 .LASF315
C:\Users\SOLDER~1\AppData\Local\Temp\ccgE0nth.s:26525  .debug_str:000000000001d8b5 .LASF316
C:\Users\SOLDER~1\AppData\Local\Temp\ccgE0nth.s:28995  .debug_str:00000000000279ea .LASF317
C:\Users\SOLDER~1\AppData\Local\Temp\ccgE0nth.s:28265  .debug_str:0000000000024999 .LASF319
C:\Users\SOLDER~1\AppData\Local\Temp\ccgE0nth.s:23137  .debug_str:000000000000fd32 .LASF320
C:\Users\SOLDER~1\AppData\Local\Temp\ccgE0nth.s:24429  .debug_str:00000000000151da .LASF321
C:\Users\SOLDER~1\AppData\Local\Temp\ccgE0nth.s:26863  .debug_str:000000000001eeb0 .LASF322
C:\Users\SOLDER~1\AppData\Local\Temp\ccgE0nth.s:25685  .debug_str:000000000001a218 .LASF323
C:\Users\SOLDER~1\AppData\Local\Temp\ccgE0nth.s:22427  .debug_str:000000000000cf10 .LASF324
C:\Users\SOLDER~1\AppData\Local\Temp\ccgE0nth.s:20653  .debug_str:0000000000005a6f .LASF325
C:\Users\SOLDER~1\AppData\Local\Temp\ccgE0nth.s:19385  .debug_str:00000000000008db .LASF326
C:\Users\SOLDER~1\AppData\Local\Temp\ccgE0nth.s:29615  .debug_str:000000000002a23a .LASF327
C:\Users\SOLDER~1\AppData\Local\Temp\ccgE0nth.s:22503  .debug_str:000000000000d414 .LASF328
GAS LISTING C:\Users\SOLDER~1\AppData\Local\Temp\ccgE0nth.s 			page 33


C:\Users\SOLDER~1\AppData\Local\Temp\ccgE0nth.s:30477  .debug_str:000000000002da1a .LASF329
C:\Users\SOLDER~1\AppData\Local\Temp\ccgE0nth.s:20779  .debug_str:00000000000062d5 .LASF330
C:\Users\SOLDER~1\AppData\Local\Temp\ccgE0nth.s:20325  .debug_str:0000000000004598 .LASF331
C:\Users\SOLDER~1\AppData\Local\Temp\ccgE0nth.s:19313  .debug_str:00000000000003a6 .LASF332
C:\Users\SOLDER~1\AppData\Local\Temp\ccgE0nth.s:24681  .debug_str:00000000000161b9 .LASF333
C:\Users\SOLDER~1\AppData\Local\Temp\ccgE0nth.s:27287  .debug_str:0000000000020a36 .LASF334
C:\Users\SOLDER~1\AppData\Local\Temp\ccgE0nth.s:25567  .debug_str:0000000000019af1 .LASF335
C:\Users\SOLDER~1\AppData\Local\Temp\ccgE0nth.s:25433  .debug_str:0000000000019238 .LASF339
C:\Users\SOLDER~1\AppData\Local\Temp\ccgE0nth.s:25967  .debug_str:000000000001b43e .LASF340
C:\Users\SOLDER~1\AppData\Local\Temp\ccgE0nth.s:21989  .debug_str:000000000000b24f .LASF341
C:\Users\SOLDER~1\AppData\Local\Temp\ccgE0nth.s:25203  .debug_str:000000000001837f .LASF342
C:\Users\SOLDER~1\AppData\Local\Temp\ccgE0nth.s:25419  .debug_str:000000000001915e .LASF343
C:\Users\SOLDER~1\AppData\Local\Temp\ccgE0nth.s:19871  .debug_str:000000000000288e .LASF344
C:\Users\SOLDER~1\AppData\Local\Temp\ccgE0nth.s:22031  .debug_str:000000000000b4ec .LASF345
C:\Users\SOLDER~1\AppData\Local\Temp\ccgE0nth.s:20191  .debug_str:0000000000003d45 .LASF346
C:\Users\SOLDER~1\AppData\Local\Temp\ccgE0nth.s:30139  .debug_str:000000000002c46a .LASF347
C:\Users\SOLDER~1\AppData\Local\Temp\ccgE0nth.s:24769  .debug_str:000000000001673a .LASF348
C:\Users\SOLDER~1\AppData\Local\Temp\ccgE0nth.s:27213  .debug_str:0000000000020561 .LASF349
C:\Users\SOLDER~1\AppData\Local\Temp\ccgE0nth.s:21513  .debug_str:0000000000009320 .LASF350
C:\Users\SOLDER~1\AppData\Local\Temp\ccgE0nth.s:25269  .debug_str:00000000000187ab .LASF351
C:\Users\SOLDER~1\AppData\Local\Temp\ccgE0nth.s:30467  .debug_str:000000000002d983 .LASF352
C:\Users\SOLDER~1\AppData\Local\Temp\ccgE0nth.s:21965  .debug_str:000000000000b0e4 .LASF353
C:\Users\SOLDER~1\AppData\Local\Temp\ccgE0nth.s:23049  .debug_str:000000000000f70a .LASF354
C:\Users\SOLDER~1\AppData\Local\Temp\ccgE0nth.s:26467  .debug_str:000000000001d558 .LASF355
C:\Users\SOLDER~1\AppData\Local\Temp\ccgE0nth.s:24679  .debug_str:00000000000161a9 .LASF356
C:\Users\SOLDER~1\AppData\Local\Temp\ccgE0nth.s:24821  .debug_str:0000000000016a80 .LASF357
C:\Users\SOLDER~1\AppData\Local\Temp\ccgE0nth.s:27865  .debug_str:0000000000022f2a .LASF358
C:\Users\SOLDER~1\AppData\Local\Temp\ccgE0nth.s:23893  .debug_str:0000000000012dad .LASF359
C:\Users\SOLDER~1\AppData\Local\Temp\ccgE0nth.s:24885  .debug_str:0000000000016e4f .LASF360
C:\Users\SOLDER~1\AppData\Local\Temp\ccgE0nth.s:27975  .debug_str:000000000002369d .LASF361
C:\Users\SOLDER~1\AppData\Local\Temp\ccgE0nth.s:21017  .debug_str:000000000000729e .LASF362
C:\Users\SOLDER~1\AppData\Local\Temp\ccgE0nth.s:29745  .debug_str:000000000002aa70 .LASF363
C:\Users\SOLDER~1\AppData\Local\Temp\ccgE0nth.s:20535  .debug_str:00000000000052c8 .LASF364
C:\Users\SOLDER~1\AppData\Local\Temp\ccgE0nth.s:25355  .debug_str:0000000000018d18 .LASF365
C:\Users\SOLDER~1\AppData\Local\Temp\ccgE0nth.s:21115  .debug_str:000000000000789d .LASF366
C:\Users\SOLDER~1\AppData\Local\Temp\ccgE0nth.s:22049  .debug_str:000000000000b64e .LASF367
C:\Users\SOLDER~1\AppData\Local\Temp\ccgE0nth.s:19273  .debug_str:000000000000011b .LASF368
C:\Users\SOLDER~1\AppData\Local\Temp\ccgE0nth.s:27163  .debug_str:000000000002024f .LASF369
C:\Users\SOLDER~1\AppData\Local\Temp\ccgE0nth.s:22737  .debug_str:000000000000e398 .LASF370
C:\Users\SOLDER~1\AppData\Local\Temp\ccgE0nth.s:28169  .debug_str:0000000000024327 .LASF371
C:\Users\SOLDER~1\AppData\Local\Temp\ccgE0nth.s:27097  .debug_str:000000000001fe1e .LASF372
C:\Users\SOLDER~1\AppData\Local\Temp\ccgE0nth.s:23493  .debug_str:00000000000113df .LASF373
C:\Users\SOLDER~1\AppData\Local\Temp\ccgE0nth.s:30613  .debug_str:000000000002e2c1 .LASF374
C:\Users\SOLDER~1\AppData\Local\Temp\ccgE0nth.s:30549  .debug_str:000000000002deda .LASF375
C:\Users\SOLDER~1\AppData\Local\Temp\ccgE0nth.s:21295  .debug_str:00000000000084a5 .LASF376
C:\Users\SOLDER~1\AppData\Local\Temp\ccgE0nth.s:29645  .debug_str:000000000002a426 .LASF377
C:\Users\SOLDER~1\AppData\Local\Temp\ccgE0nth.s:24665  .debug_str:00000000000160cc .LASF378
C:\Users\SOLDER~1\AppData\Local\Temp\ccgE0nth.s:28433  .debug_str:0000000000025460 .LASF379
C:\Users\SOLDER~1\AppData\Local\Temp\ccgE0nth.s:29443  .debug_str:000000000002970f .LASF380
C:\Users\SOLDER~1\AppData\Local\Temp\ccgE0nth.s:27901  .debug_str:0000000000023197 .LASF381
C:\Users\SOLDER~1\AppData\Local\Temp\ccgE0nth.s:23831  .debug_str:0000000000012966 .LASF382
C:\Users\SOLDER~1\AppData\Local\Temp\ccgE0nth.s:29469  .debug_str:0000000000029895 .LASF383
C:\Users\SOLDER~1\AppData\Local\Temp\ccgE0nth.s:26189  .debug_str:000000000001c2b5 .LASF384
C:\Users\SOLDER~1\AppData\Local\Temp\ccgE0nth.s:23595  .debug_str:0000000000011acc .LASF385
C:\Users\SOLDER~1\AppData\Local\Temp\ccgE0nth.s:28023  .debug_str:0000000000023996 .LASF386
C:\Users\SOLDER~1\AppData\Local\Temp\ccgE0nth.s:27013  .debug_str:000000000001f8f3 .LASF387
C:\Users\SOLDER~1\AppData\Local\Temp\ccgE0nth.s:19625  .debug_str:000000000000188a .LASF388
GAS LISTING C:\Users\SOLDER~1\AppData\Local\Temp\ccgE0nth.s 			page 34


C:\Users\SOLDER~1\AppData\Local\Temp\ccgE0nth.s:20295  .debug_str:00000000000043c1 .LASF389
C:\Users\SOLDER~1\AppData\Local\Temp\ccgE0nth.s:20711  .debug_str:0000000000005e2d .LASF390
C:\Users\SOLDER~1\AppData\Local\Temp\ccgE0nth.s:21893  .debug_str:000000000000ac4e .LASF391
C:\Users\SOLDER~1\AppData\Local\Temp\ccgE0nth.s:21363  .debug_str:00000000000088ef .LASF392
C:\Users\SOLDER~1\AppData\Local\Temp\ccgE0nth.s:26707  .debug_str:000000000001e468 .LASF393
C:\Users\SOLDER~1\AppData\Local\Temp\ccgE0nth.s:27355  .debug_str:0000000000020e8b .LASF394
C:\Users\SOLDER~1\AppData\Local\Temp\ccgE0nth.s:27491  .debug_str:0000000000021758 .LASF395
C:\Users\SOLDER~1\AppData\Local\Temp\ccgE0nth.s:21519  .debug_str:0000000000009376 .LASF396
C:\Users\SOLDER~1\AppData\Local\Temp\ccgE0nth.s:21105  .debug_str:000000000000780c .LASF397
C:\Users\SOLDER~1\AppData\Local\Temp\ccgE0nth.s:26521  .debug_str:000000000001d891 .LASF398
C:\Users\SOLDER~1\AppData\Local\Temp\ccgE0nth.s:29151  .debug_str:000000000002844d .LASF399
C:\Users\SOLDER~1\AppData\Local\Temp\ccgE0nth.s:23807  .debug_str:000000000001281a .LASF400
C:\Users\SOLDER~1\AppData\Local\Temp\ccgE0nth.s:24567  .debug_str:0000000000015a9e .LASF401
C:\Users\SOLDER~1\AppData\Local\Temp\ccgE0nth.s:22393  .debug_str:000000000000ccd0 .LASF402
C:\Users\SOLDER~1\AppData\Local\Temp\ccgE0nth.s:26219  .debug_str:000000000001c4a3 .LASF403
C:\Users\SOLDER~1\AppData\Local\Temp\ccgE0nth.s:24777  .debug_str:00000000000167a7 .LASF404
C:\Users\SOLDER~1\AppData\Local\Temp\ccgE0nth.s:25219  .debug_str:000000000001847e .LASF405
C:\Users\SOLDER~1\AppData\Local\Temp\ccgE0nth.s:21419  .debug_str:0000000000008c88 .LASF406
C:\Users\SOLDER~1\AppData\Local\Temp\ccgE0nth.s:30089  .debug_str:000000000002c14b .LASF407
C:\Users\SOLDER~1\AppData\Local\Temp\ccgE0nth.s:24117  .debug_str:0000000000013d19 .LASF408
C:\Users\SOLDER~1\AppData\Local\Temp\ccgE0nth.s:26551  .debug_str:000000000001da52 .LASF409
C:\Users\SOLDER~1\AppData\Local\Temp\ccgE0nth.s:22965  .debug_str:000000000000f19f .LASF410
C:\Users\SOLDER~1\AppData\Local\Temp\ccgE0nth.s:27253  .debug_str:0000000000020802 .LASF411
C:\Users\SOLDER~1\AppData\Local\Temp\ccgE0nth.s:29217  .debug_str:0000000000028885 .LASF412
C:\Users\SOLDER~1\AppData\Local\Temp\ccgE0nth.s:23663  .debug_str:0000000000011ee2 .LASF413
C:\Users\SOLDER~1\AppData\Local\Temp\ccgE0nth.s:23653  .debug_str:0000000000011e58 .LASF414
C:\Users\SOLDER~1\AppData\Local\Temp\ccgE0nth.s:25629  .debug_str:0000000000019e9a .LASF415
C:\Users\SOLDER~1\AppData\Local\Temp\ccgE0nth.s:30645  .debug_str:000000000002e4c8 .LASF416
C:\Users\SOLDER~1\AppData\Local\Temp\ccgE0nth.s:30781  .debug_str:000000000002ed8b .LASF417
C:\Users\SOLDER~1\AppData\Local\Temp\ccgE0nth.s:22745  .debug_str:000000000000e41b .LASF418
C:\Users\SOLDER~1\AppData\Local\Temp\ccgE0nth.s:22251  .debug_str:000000000000c2e3 .LASF419
C:\Users\SOLDER~1\AppData\Local\Temp\ccgE0nth.s:19809  .debug_str:000000000000249e .LASF420
C:\Users\SOLDER~1\AppData\Local\Temp\ccgE0nth.s:27307  .debug_str:0000000000020b89 .LASF421
C:\Users\SOLDER~1\AppData\Local\Temp\ccgE0nth.s:27999  .debug_str:000000000002381d .LASF422
C:\Users\SOLDER~1\AppData\Local\Temp\ccgE0nth.s:19743  .debug_str:000000000000202e .LASF423
C:\Users\SOLDER~1\AppData\Local\Temp\ccgE0nth.s:24051  .debug_str:0000000000013827 .LASF424
C:\Users\SOLDER~1\AppData\Local\Temp\ccgE0nth.s:27241  .debug_str:0000000000020731 .LASF425
C:\Users\SOLDER~1\AppData\Local\Temp\ccgE0nth.s:23643  .debug_str:0000000000011dd4 .LASF426
C:\Users\SOLDER~1\AppData\Local\Temp\ccgE0nth.s:30763  .debug_str:000000000002ec6b .LASF427
C:\Users\SOLDER~1\AppData\Local\Temp\ccgE0nth.s:26231  .debug_str:000000000001c558 .LASF428
C:\Users\SOLDER~1\AppData\Local\Temp\ccgE0nth.s:20549  .debug_str:00000000000053b7 .LASF429
C:\Users\SOLDER~1\AppData\Local\Temp\ccgE0nth.s:28375  .debug_str:00000000000250c6 .LASF430
C:\Users\SOLDER~1\AppData\Local\Temp\ccgE0nth.s:23985  .debug_str:00000000000133af .LASF431
C:\Users\SOLDER~1\AppData\Local\Temp\ccgE0nth.s:28289  .debug_str:0000000000024b3a .LASF432
C:\Users\SOLDER~1\AppData\Local\Temp\ccgE0nth.s:20459  .debug_str:0000000000004e30 .LASF433
C:\Users\SOLDER~1\AppData\Local\Temp\ccgE0nth.s:22939  .debug_str:000000000000f00b .LASF434
C:\Users\SOLDER~1\AppData\Local\Temp\ccgE0nth.s:27131  .debug_str:0000000000020057 .LASF435
C:\Users\SOLDER~1\AppData\Local\Temp\ccgE0nth.s:19433  .debug_str:0000000000000c4c .LASF436
C:\Users\SOLDER~1\AppData\Local\Temp\ccgE0nth.s:22437  .debug_str:000000000000cfbe .LASF437
C:\Users\SOLDER~1\AppData\Local\Temp\ccgE0nth.s:24401  .debug_str:000000000001501b .LASF438
C:\Users\SOLDER~1\AppData\Local\Temp\ccgE0nth.s:20537  .debug_str:00000000000052dd .LASF439
C:\Users\SOLDER~1\AppData\Local\Temp\ccgE0nth.s:23713  .debug_str:00000000000121ff .LASF440
C:\Users\SOLDER~1\AppData\Local\Temp\ccgE0nth.s:29409  .debug_str:00000000000294d8 .LASF441
C:\Users\SOLDER~1\AppData\Local\Temp\ccgE0nth.s:22077  .debug_str:000000000000b7e2 .LASF442
C:\Users\SOLDER~1\AppData\Local\Temp\ccgE0nth.s:26279  .debug_str:000000000001c88b .LASF443
C:\Users\SOLDER~1\AppData\Local\Temp\ccgE0nth.s:29963  .debug_str:000000000002b8b7 .LASF444
C:\Users\SOLDER~1\AppData\Local\Temp\ccgE0nth.s:23849  .debug_str:0000000000012a94 .LASF445
GAS LISTING C:\Users\SOLDER~1\AppData\Local\Temp\ccgE0nth.s 			page 35


C:\Users\SOLDER~1\AppData\Local\Temp\ccgE0nth.s:23263  .debug_str:000000000001055f .LASF446
C:\Users\SOLDER~1\AppData\Local\Temp\ccgE0nth.s:27033  .debug_str:000000000001fa28 .LASF447
C:\Users\SOLDER~1\AppData\Local\Temp\ccgE0nth.s:21417  .debug_str:0000000000008c6e .LASF448
C:\Users\SOLDER~1\AppData\Local\Temp\ccgE0nth.s:26625  .debug_str:000000000001df5c .LASF449
C:\Users\SOLDER~1\AppData\Local\Temp\ccgE0nth.s:22931  .debug_str:000000000000ef92 .LASF450
C:\Users\SOLDER~1\AppData\Local\Temp\ccgE0nth.s:29379  .debug_str:00000000000292b0 .LASF451
C:\Users\SOLDER~1\AppData\Local\Temp\ccgE0nth.s:23569  .debug_str:00000000000118fa .LASF452
C:\Users\SOLDER~1\AppData\Local\Temp\ccgE0nth.s:19989  .debug_str:000000000000303c .LASF453
C:\Users\SOLDER~1\AppData\Local\Temp\ccgE0nth.s:19577  .debug_str:0000000000001598 .LASF454
C:\Users\SOLDER~1\AppData\Local\Temp\ccgE0nth.s:27749  .debug_str:000000000002276f .LASF455
C:\Users\SOLDER~1\AppData\Local\Temp\ccgE0nth.s:28645  .debug_str:000000000002630f .LASF456
C:\Users\SOLDER~1\AppData\Local\Temp\ccgE0nth.s:22457  .debug_str:000000000000d0f7 .LASF457
C:\Users\SOLDER~1\AppData\Local\Temp\ccgE0nth.s:22777  .debug_str:000000000000e612 .LASF458
C:\Users\SOLDER~1\AppData\Local\Temp\ccgE0nth.s:29275  .debug_str:0000000000028c1e .LASF459
C:\Users\SOLDER~1\AppData\Local\Temp\ccgE0nth.s:30207  .debug_str:000000000002c886 .LASF460
C:\Users\SOLDER~1\AppData\Local\Temp\ccgE0nth.s:19563  .debug_str:00000000000014a3 .LASF461
C:\Users\SOLDER~1\AppData\Local\Temp\ccgE0nth.s:22059  .debug_str:000000000000b6d7 .LASF462
C:\Users\SOLDER~1\AppData\Local\Temp\ccgE0nth.s:28605  .debug_str:0000000000026025 .LASF463
C:\Users\SOLDER~1\AppData\Local\Temp\ccgE0nth.s:25965  .debug_str:000000000001b418 .LASF464
C:\Users\SOLDER~1\AppData\Local\Temp\ccgE0nth.s:29129  .debug_str:00000000000282d0 .LASF465
C:\Users\SOLDER~1\AppData\Local\Temp\ccgE0nth.s:25149  .debug_str:0000000000017ff0 .LASF466
C:\Users\SOLDER~1\AppData\Local\Temp\ccgE0nth.s:27541  .debug_str:0000000000021a91 .LASF467
C:\Users\SOLDER~1\AppData\Local\Temp\ccgE0nth.s:26181  .debug_str:000000000001c225 .LASF468
C:\Users\SOLDER~1\AppData\Local\Temp\ccgE0nth.s:19667  .debug_str:0000000000001b39 .LASF469
C:\Users\SOLDER~1\AppData\Local\Temp\ccgE0nth.s:24593  .debug_str:0000000000015c26 .LASF470
C:\Users\SOLDER~1\AppData\Local\Temp\ccgE0nth.s:27113  .debug_str:000000000001ff1e .LASF471
C:\Users\SOLDER~1\AppData\Local\Temp\ccgE0nth.s:30457  .debug_str:000000000002d8e2 .LASF472
C:\Users\SOLDER~1\AppData\Local\Temp\ccgE0nth.s:30699  .debug_str:000000000002e87e .LASF473
C:\Users\SOLDER~1\AppData\Local\Temp\ccgE0nth.s:30553  .debug_str:000000000002df02 .LASF474
C:\Users\SOLDER~1\AppData\Local\Temp\ccgE0nth.s:28637  .debug_str:0000000000026269 .LASF475
C:\Users\SOLDER~1\AppData\Local\Temp\ccgE0nth.s:21707  .debug_str:0000000000009f9a .LASF476
C:\Users\SOLDER~1\AppData\Local\Temp\ccgE0nth.s:25747  .debug_str:000000000001a60c .LASF477
C:\Users\SOLDER~1\AppData\Local\Temp\ccgE0nth.s:24837  .debug_str:0000000000016b8a .LASF478
C:\Users\SOLDER~1\AppData\Local\Temp\ccgE0nth.s:28741  .debug_str:000000000002695c .LASF479
C:\Users\SOLDER~1\AppData\Local\Temp\ccgE0nth.s:30793  .debug_str:000000000002ee3a .LASF480
C:\Users\SOLDER~1\AppData\Local\Temp\ccgE0nth.s:27553  .debug_str:0000000000021b61 .LASF481
C:\Users\SOLDER~1\AppData\Local\Temp\ccgE0nth.s:28835  .debug_str:0000000000026f9e .LASF482
C:\Users\SOLDER~1\AppData\Local\Temp\ccgE0nth.s:22715  .debug_str:000000000000e20a .LASF483
C:\Users\SOLDER~1\AppData\Local\Temp\ccgE0nth.s:25905  .debug_str:000000000001b061 .LASF484
C:\Users\SOLDER~1\AppData\Local\Temp\ccgE0nth.s:25817  .debug_str:000000000001aaa3 .LASF485
C:\Users\SOLDER~1\AppData\Local\Temp\ccgE0nth.s:28957  .debug_str:000000000002778c .LASF486
C:\Users\SOLDER~1\AppData\Local\Temp\ccgE0nth.s:26377  .debug_str:000000000001cf37 .LASF487
C:\Users\SOLDER~1\AppData\Local\Temp\ccgE0nth.s:23189  .debug_str:000000000001009b .LASF488
C:\Users\SOLDER~1\AppData\Local\Temp\ccgE0nth.s:25311  .debug_str:0000000000018a29 .LASF489
C:\Users\SOLDER~1\AppData\Local\Temp\ccgE0nth.s:20483  .debug_str:0000000000004f8a .LASF490
C:\Users\SOLDER~1\AppData\Local\Temp\ccgE0nth.s:23545  .debug_str:000000000001177c .LASF491
C:\Users\SOLDER~1\AppData\Local\Temp\ccgE0nth.s:22519  .debug_str:000000000000d530 .LASF492
C:\Users\SOLDER~1\AppData\Local\Temp\ccgE0nth.s:27861  .debug_str:0000000000022ef3 .LASF494
C:\Users\SOLDER~1\AppData\Local\Temp\ccgE0nth.s:21585  .debug_str:00000000000097c3 .LASF495
C:\Users\SOLDER~1\AppData\Local\Temp\ccgE0nth.s:20577  .debug_str:000000000000554e .LASF496
C:\Users\SOLDER~1\AppData\Local\Temp\ccgE0nth.s:26631  .debug_str:000000000001dfb5 .LASF497
C:\Users\SOLDER~1\AppData\Local\Temp\ccgE0nth.s:25969  .debug_str:000000000001b456 .LASF498
C:\Users\SOLDER~1\AppData\Local\Temp\ccgE0nth.s:26067  .debug_str:000000000001ba82 .LASF499
C:\Users\SOLDER~1\AppData\Local\Temp\ccgE0nth.s:22781  .debug_str:000000000000e653 .LASF500
C:\Users\SOLDER~1\AppData\Local\Temp\ccgE0nth.s:20381  .debug_str:000000000000495a .LASF501
C:\Users\SOLDER~1\AppData\Local\Temp\ccgE0nth.s:23697  .debug_str:0000000000012108 .LASF502
C:\Users\SOLDER~1\AppData\Local\Temp\ccgE0nth.s:28339  .debug_str:0000000000024e75 .LASF503
GAS LISTING C:\Users\SOLDER~1\AppData\Local\Temp\ccgE0nth.s 			page 36


C:\Users\SOLDER~1\AppData\Local\Temp\ccgE0nth.s:24551  .debug_str:0000000000015978 .LASF504
C:\Users\SOLDER~1\AppData\Local\Temp\ccgE0nth.s:19283  .debug_str:00000000000001a0 .LASF505
C:\Users\SOLDER~1\AppData\Local\Temp\ccgE0nth.s:22597  .debug_str:000000000000da3b .LASF506
C:\Users\SOLDER~1\AppData\Local\Temp\ccgE0nth.s:30517  .debug_str:000000000002dcb5 .LASF507
C:\Users\SOLDER~1\AppData\Local\Temp\ccgE0nth.s:29449  .debug_str:000000000002975b .LASF508
C:\Users\SOLDER~1\AppData\Local\Temp\ccgE0nth.s:24077  .debug_str:0000000000013a07 .LASF509
C:\Users\SOLDER~1\AppData\Local\Temp\ccgE0nth.s:25005  .debug_str:0000000000017664 .LASF510
C:\Users\SOLDER~1\AppData\Local\Temp\ccgE0nth.s:24387  .debug_str:0000000000014f47 .LASF511
C:\Users\SOLDER~1\AppData\Local\Temp\ccgE0nth.s:25447  .debug_str:0000000000019327 .LASF512
C:\Users\SOLDER~1\AppData\Local\Temp\ccgE0nth.s:27281  .debug_str:00000000000209cb .LASF513
C:\Users\SOLDER~1\AppData\Local\Temp\ccgE0nth.s:26299  .debug_str:000000000001c9ee .LASF514
C:\Users\SOLDER~1\AppData\Local\Temp\ccgE0nth.s:21975  .debug_str:000000000000b17c .LASF515
C:\Users\SOLDER~1\AppData\Local\Temp\ccgE0nth.s:30061  .debug_str:000000000002bf20 .LASF516
C:\Users\SOLDER~1\AppData\Local\Temp\ccgE0nth.s:26541  .debug_str:000000000001d9a8 .LASF517
C:\Users\SOLDER~1\AppData\Local\Temp\ccgE0nth.s:29933  .debug_str:000000000002b6e2 .LASF518
C:\Users\SOLDER~1\AppData\Local\Temp\ccgE0nth.s:28529  .debug_str:0000000000025aea .LASF519
C:\Users\SOLDER~1\AppData\Local\Temp\ccgE0nth.s:25715  .debug_str:000000000001a41b .LASF520
C:\Users\SOLDER~1\AppData\Local\Temp\ccgE0nth.s:20803  .debug_str:000000000000645b .LASF521
C:\Users\SOLDER~1\AppData\Local\Temp\ccgE0nth.s:27905  .debug_str:00000000000231c8 .LASF522
C:\Users\SOLDER~1\AppData\Local\Temp\ccgE0nth.s:21749  .debug_str:000000000000a270 .LASF523
C:\Users\SOLDER~1\AppData\Local\Temp\ccgE0nth.s:19773  .debug_str:000000000000222f .LASF524
C:\Users\SOLDER~1\AppData\Local\Temp\ccgE0nth.s:26593  .debug_str:000000000001dd2a .LASF525
C:\Users\SOLDER~1\AppData\Local\Temp\ccgE0nth.s:22651  .debug_str:000000000000dd91 .LASF526
C:\Users\SOLDER~1\AppData\Local\Temp\ccgE0nth.s:24405  .debug_str:0000000000015057 .LASF527
C:\Users\SOLDER~1\AppData\Local\Temp\ccgE0nth.s:22689  .debug_str:000000000000e011 .LASF528
C:\Users\SOLDER~1\AppData\Local\Temp\ccgE0nth.s:21473  .debug_str:000000000000904f .LASF529
C:\Users\SOLDER~1\AppData\Local\Temp\ccgE0nth.s:21119  .debug_str:00000000000078d6 .LASF530
C:\Users\SOLDER~1\AppData\Local\Temp\ccgE0nth.s:22287  .debug_str:000000000000c56b .LASF531
C:\Users\SOLDER~1\AppData\Local\Temp\ccgE0nth.s:28883  .debug_str:00000000000272b1 .LASF532
C:\Users\SOLDER~1\AppData\Local\Temp\ccgE0nth.s:30661  .debug_str:000000000002e5bf .LASF533
C:\Users\SOLDER~1\AppData\Local\Temp\ccgE0nth.s:23719  .debug_str:000000000001226f .LASF534
C:\Users\SOLDER~1\AppData\Local\Temp\ccgE0nth.s:30053  .debug_str:000000000002be9d .LASF535
C:\Users\SOLDER~1\AppData\Local\Temp\ccgE0nth.s:26183  .debug_str:000000000001c24e .LASF536
C:\Users\SOLDER~1\AppData\Local\Temp\ccgE0nth.s:22605  .debug_str:000000000000dab1 .LASF537
C:\Users\SOLDER~1\AppData\Local\Temp\ccgE0nth.s:25963  .debug_str:000000000001b3f2 .LASF538
C:\Users\SOLDER~1\AppData\Local\Temp\ccgE0nth.s:20369  .debug_str:0000000000004889 .LASF539
C:\Users\SOLDER~1\AppData\Local\Temp\ccgE0nth.s:27955  .debug_str:0000000000023545 .LASF540
C:\Users\SOLDER~1\AppData\Local\Temp\ccgE0nth.s:26009  .debug_str:000000000001b6d8 .LASF541
C:\Users\SOLDER~1\AppData\Local\Temp\ccgE0nth.s:30145  .debug_str:000000000002c4b3 .LASF542
C:\Users\SOLDER~1\AppData\Local\Temp\ccgE0nth.s:22105  .debug_str:000000000000b94f .LASF543
C:\Users\SOLDER~1\AppData\Local\Temp\ccgE0nth.s:28859  .debug_str:000000000002711a .LASF544
C:\Users\SOLDER~1\AppData\Local\Temp\ccgE0nth.s:28093  .debug_str:0000000000023e0f .LASF545
C:\Users\SOLDER~1\AppData\Local\Temp\ccgE0nth.s:26865  .debug_str:000000000001eed2 .LASF546
C:\Users\SOLDER~1\AppData\Local\Temp\ccgE0nth.s:29077  .debug_str:0000000000027f67 .LASF547
C:\Users\SOLDER~1\AppData\Local\Temp\ccgE0nth.s:27067  .debug_str:000000000001fc41 .LASF548
C:\Users\SOLDER~1\AppData\Local\Temp\ccgE0nth.s:25199  .debug_str:0000000000018334 .LASF549
C:\Users\SOLDER~1\AppData\Local\Temp\ccgE0nth.s:23907  .debug_str:0000000000012e84 .LASF550
C:\Users\SOLDER~1\AppData\Local\Temp\ccgE0nth.s:27497  .debug_str:00000000000217a2 .LASF551
C:\Users\SOLDER~1\AppData\Local\Temp\ccgE0nth.s:24143  .debug_str:0000000000013ed7 .LASF552
C:\Users\SOLDER~1\AppData\Local\Temp\ccgE0nth.s:26733  .debug_str:000000000001e646 .LASF553
C:\Users\SOLDER~1\AppData\Local\Temp\ccgE0nth.s:24691  .debug_str:0000000000016261 .LASF554
C:\Users\SOLDER~1\AppData\Local\Temp\ccgE0nth.s:19605  .debug_str:000000000000174b .LASF555
C:\Users\SOLDER~1\AppData\Local\Temp\ccgE0nth.s:23439  .debug_str:000000000001107c .LASF556
C:\Users\SOLDER~1\AppData\Local\Temp\ccgE0nth.s:20763  .debug_str:00000000000061be .LASF557
C:\Users\SOLDER~1\AppData\Local\Temp\ccgE0nth.s:23335  .debug_str:00000000000109eb .LASF558
C:\Users\SOLDER~1\AppData\Local\Temp\ccgE0nth.s:23201  .debug_str:0000000000010133 .LASF559
C:\Users\SOLDER~1\AppData\Local\Temp\ccgE0nth.s:19693  .debug_str:0000000000001d1d .LASF560
GAS LISTING C:\Users\SOLDER~1\AppData\Local\Temp\ccgE0nth.s 			page 37


C:\Users\SOLDER~1\AppData\Local\Temp\ccgE0nth.s:28405  .debug_str:00000000000252ac .LASF561
C:\Users\SOLDER~1\AppData\Local\Temp\ccgE0nth.s:30339  .debug_str:000000000002d169 .LASF562
C:\Users\SOLDER~1\AppData\Local\Temp\ccgE0nth.s:30575  .debug_str:000000000002e054 .LASF563
C:\Users\SOLDER~1\AppData\Local\Temp\ccgE0nth.s:22673  .debug_str:000000000000def8 .LASF564
C:\Users\SOLDER~1\AppData\Local\Temp\ccgE0nth.s:19511  .debug_str:0000000000001149 .LASF565
C:\Users\SOLDER~1\AppData\Local\Temp\ccgE0nth.s:28005  .debug_str:000000000002387d .LASF566
C:\Users\SOLDER~1\AppData\Local\Temp\ccgE0nth.s:25891  .debug_str:000000000001af9f .LASF567
C:\Users\SOLDER~1\AppData\Local\Temp\ccgE0nth.s:26121  .debug_str:000000000001be07 .LASF568
C:\Users\SOLDER~1\AppData\Local\Temp\ccgE0nth.s:19723  .debug_str:0000000000001ef7 .LASF569
C:\Users\SOLDER~1\AppData\Local\Temp\ccgE0nth.s:24491  .debug_str:0000000000015606 .LASF570
C:\Users\SOLDER~1\AppData\Local\Temp\ccgE0nth.s:28191  .debug_str:0000000000024488 .LASF571
C:\Users\SOLDER~1\AppData\Local\Temp\ccgE0nth.s:22991  .debug_str:000000000000f347 .LASF572
C:\Users\SOLDER~1\AppData\Local\Temp\ccgE0nth.s:24931  .debug_str:000000000001716d .LASF573
C:\Users\SOLDER~1\AppData\Local\Temp\ccgE0nth.s:22811  .debug_str:000000000000e82c .LASF574
C:\Users\SOLDER~1\AppData\Local\Temp\ccgE0nth.s:24825  .debug_str:0000000000016ab6 .LASF575
C:\Users\SOLDER~1\AppData\Local\Temp\ccgE0nth.s:23933  .debug_str:000000000001303c .LASF576
C:\Users\SOLDER~1\AppData\Local\Temp\ccgE0nth.s:23895  .debug_str:0000000000012dbe .LASF577
C:\Users\SOLDER~1\AppData\Local\Temp\ccgE0nth.s:30413  .debug_str:000000000002d5fc .LASF578
C:\Users\SOLDER~1\AppData\Local\Temp\ccgE0nth.s:25377  .debug_str:0000000000018ea5 .LASF579
C:\Users\SOLDER~1\AppData\Local\Temp\ccgE0nth.s:28607  .debug_str:0000000000026049 .LASF580
C:\Users\SOLDER~1\AppData\Local\Temp\ccgE0nth.s:20365  .debug_str:000000000000484b .LASF581
C:\Users\SOLDER~1\AppData\Local\Temp\ccgE0nth.s:23679  .debug_str:0000000000011fea .LASF582
C:\Users\SOLDER~1\AppData\Local\Temp\ccgE0nth.s:26885  .debug_str:000000000001f033 .LASF583
C:\Users\SOLDER~1\AppData\Local\Temp\ccgE0nth.s:30183  .debug_str:000000000002c712 .LASF584
C:\Users\SOLDER~1\AppData\Local\Temp\ccgE0nth.s:21925  .debug_str:000000000000ae1a .LASF585
C:\Users\SOLDER~1\AppData\Local\Temp\ccgE0nth.s:29717  .debug_str:000000000002a885 .LASF586
C:\Users\SOLDER~1\AppData\Local\Temp\ccgE0nth.s:28617  .debug_str:00000000000260fd .LASF587
C:\Users\SOLDER~1\AppData\Local\Temp\ccgE0nth.s:23829  .debug_str:0000000000012945 .LASF588
C:\Users\SOLDER~1\AppData\Local\Temp\ccgE0nth.s:25745  .debug_str:000000000001a5eb .LASF589
C:\Users\SOLDER~1\AppData\Local\Temp\ccgE0nth.s:27895  .debug_str:0000000000023131 .LASF590
C:\Users\SOLDER~1\AppData\Local\Temp\ccgE0nth.s:24857  .debug_str:0000000000016ca7 .LASF591
C:\Users\SOLDER~1\AppData\Local\Temp\ccgE0nth.s:29333  .debug_str:0000000000028fae .LASF592
C:\Users\SOLDER~1\AppData\Local\Temp\ccgE0nth.s:26439  .debug_str:000000000001d381 .LASF593
C:\Users\SOLDER~1\AppData\Local\Temp\ccgE0nth.s:25147  .debug_str:0000000000017fb6 .LASF594
C:\Users\SOLDER~1\AppData\Local\Temp\ccgE0nth.s:30507  .debug_str:000000000002dbf5 .LASF595
C:\Users\SOLDER~1\AppData\Local\Temp\ccgE0nth.s:21935  .debug_str:000000000000aed6 .LASF596
C:\Users\SOLDER~1\AppData\Local\Temp\ccgE0nth.s:29941  .debug_str:000000000002b74d .LASF597
C:\Users\SOLDER~1\AppData\Local\Temp\ccgE0nth.s:23871  .debug_str:0000000000012c02 .LASF598
C:\Users\SOLDER~1\AppData\Local\Temp\ccgE0nth.s:29347  .debug_str:00000000000290a9 .LASF599
C:\Users\SOLDER~1\AppData\Local\Temp\ccgE0nth.s:23313  .debug_str:000000000001085d .LASF600
C:\Users\SOLDER~1\AppData\Local\Temp\ccgE0nth.s:28663  .debug_str:0000000000026444 .LASF601
C:\Users\SOLDER~1\AppData\Local\Temp\ccgE0nth.s:28767  .debug_str:0000000000026b35 .LASF602
C:\Users\SOLDER~1\AppData\Local\Temp\ccgE0nth.s:22677  .debug_str:000000000000df3d .LASF603
C:\Users\SOLDER~1\AppData\Local\Temp\ccgE0nth.s:22471  .debug_str:000000000000d205 .LASF604
C:\Users\SOLDER~1\AppData\Local\Temp\ccgE0nth.s:26517  .debug_str:000000000001d854 .LASF605
C:\Users\SOLDER~1\AppData\Local\Temp\ccgE0nth.s:28439  .debug_str:00000000000254bb .LASF606
C:\Users\SOLDER~1\AppData\Local\Temp\ccgE0nth.s:24937  .debug_str:00000000000171db .LASF607
C:\Users\SOLDER~1\AppData\Local\Temp\ccgE0nth.s:27649  .debug_str:0000000000022152 .LASF608
C:\Users\SOLDER~1\AppData\Local\Temp\ccgE0nth.s:30025  .debug_str:000000000002bca3 .LASF609
C:\Users\SOLDER~1\AppData\Local\Temp\ccgE0nth.s:21559  .debug_str:0000000000009634 .LASF610
C:\Users\SOLDER~1\AppData\Local\Temp\ccgE0nth.s:23611  .debug_str:0000000000011bb0 .LASF611
C:\Users\SOLDER~1\AppData\Local\Temp\ccgE0nth.s:23883  .debug_str:0000000000012ced .LASF612
C:\Users\SOLDER~1\AppData\Local\Temp\ccgE0nth.s:26511  .debug_str:000000000001d7ff .LASF613
C:\Users\SOLDER~1\AppData\Local\Temp\ccgE0nth.s:21001  .debug_str:00000000000071ae .LASF614
C:\Users\SOLDER~1\AppData\Local\Temp\ccgE0nth.s:19737  .debug_str:0000000000001ffd .LASF615
C:\Users\SOLDER~1\AppData\Local\Temp\ccgE0nth.s:25009  .debug_str:00000000000176ad .LASF616
C:\Users\SOLDER~1\AppData\Local\Temp\ccgE0nth.s:20601  .debug_str:00000000000056b8 .LASF617
GAS LISTING C:\Users\SOLDER~1\AppData\Local\Temp\ccgE0nth.s 			page 38


C:\Users\SOLDER~1\AppData\Local\Temp\ccgE0nth.s:28361  .debug_str:0000000000024fe5 .LASF618
C:\Users\SOLDER~1\AppData\Local\Temp\ccgE0nth.s:20023  .debug_str:0000000000003273 .LASF619
C:\Users\SOLDER~1\AppData\Local\Temp\ccgE0nth.s:26639  .debug_str:000000000001e032 .LASF620
C:\Users\SOLDER~1\AppData\Local\Temp\ccgE0nth.s:20117  .debug_str:0000000000003881 .LASF621
C:\Users\SOLDER~1\AppData\Local\Temp\ccgE0nth.s:24557  .debug_str:00000000000159e9 .LASF622
C:\Users\SOLDER~1\AppData\Local\Temp\ccgE0nth.s:25617  .debug_str:0000000000019dc4 .LASF623
C:\Users\SOLDER~1\AppData\Local\Temp\ccgE0nth.s:23485  .debug_str:0000000000011361 .LASF624
C:\Users\SOLDER~1\AppData\Local\Temp\ccgE0nth.s:26193  .debug_str:000000000001c2de .LASF625
C:\Users\SOLDER~1\AppData\Local\Temp\ccgE0nth.s:20967  .debug_str:0000000000006f38 .LASF626
C:\Users\SOLDER~1\AppData\Local\Temp\ccgE0nth.s:20925  .debug_str:0000000000006c67 .LASF627
C:\Users\SOLDER~1\AppData\Local\Temp\ccgE0nth.s:25855  .debug_str:000000000001ad6a .LASF628
C:\Users\SOLDER~1\AppData\Local\Temp\ccgE0nth.s:22681  .debug_str:000000000000df87 .LASF629
C:\Users\SOLDER~1\AppData\Local\Temp\ccgE0nth.s:27135  .debug_str:0000000000020096 .LASF630
C:\Users\SOLDER~1\AppData\Local\Temp\ccgE0nth.s:26115  .debug_str:000000000001bdae .LASF631
C:\Users\SOLDER~1\AppData\Local\Temp\ccgE0nth.s:27123  .debug_str:000000000001ffd1 .LASF632
C:\Users\SOLDER~1\AppData\Local\Temp\ccgE0nth.s:25583  .debug_str:0000000000019bfc .LASF633
C:\Users\SOLDER~1\AppData\Local\Temp\ccgE0nth.s:29163  .debug_str:0000000000028503 .LASF634
C:\Users\SOLDER~1\AppData\Local\Temp\ccgE0nth.s:24351  .debug_str:0000000000014cfa .LASF635
C:\Users\SOLDER~1\AppData\Local\Temp\ccgE0nth.s:26081  .debug_str:000000000001bb68 .LASF636
C:\Users\SOLDER~1\AppData\Local\Temp\ccgE0nth.s:28239  .debug_str:00000000000247cd .LASF637
C:\Users\SOLDER~1\AppData\Local\Temp\ccgE0nth.s:19705  .debug_str:0000000000001dde .LASF638
C:\Users\SOLDER~1\AppData\Local\Temp\ccgE0nth.s:30033  .debug_str:000000000002bd38 .LASF639
C:\Users\SOLDER~1\AppData\Local\Temp\ccgE0nth.s:23935  .debug_str:000000000001305a .LASF640
C:\Users\SOLDER~1\AppData\Local\Temp\ccgE0nth.s:24959  .debug_str:000000000001735a .LASF641
C:\Users\SOLDER~1\AppData\Local\Temp\ccgE0nth.s:24869  .debug_str:0000000000016d5e .LASF642
C:\Users\SOLDER~1\AppData\Local\Temp\ccgE0nth.s:26213  .debug_str:000000000001c437 .LASF643
C:\Users\SOLDER~1\AppData\Local\Temp\ccgE0nth.s:20831  .debug_str:000000000000662d .LASF644
C:\Users\SOLDER~1\AppData\Local\Temp\ccgE0nth.s:28185  .debug_str:000000000002442a .LASF645
C:\Users\SOLDER~1\AppData\Local\Temp\ccgE0nth.s:24919  .debug_str:000000000001709a .LASF646
C:\Users\SOLDER~1\AppData\Local\Temp\ccgE0nth.s:22819  .debug_str:000000000000e8af .LASF647
C:\Users\SOLDER~1\AppData\Local\Temp\ccgE0nth.s:24345  .debug_str:0000000000014c80 .LASF648
C:\Users\SOLDER~1\AppData\Local\Temp\ccgE0nth.s:22901  .debug_str:000000000000edaa .LASF649
C:\Users\SOLDER~1\AppData\Local\Temp\ccgE0nth.s:29517  .debug_str:0000000000029bad .LASF650
C:\Users\SOLDER~1\AppData\Local\Temp\ccgE0nth.s:25753  .debug_str:000000000001a663 .LASF651
C:\Users\SOLDER~1\AppData\Local\Temp\ccgE0nth.s:21411  .debug_str:0000000000008c15 .LASF652
C:\Users\SOLDER~1\AppData\Local\Temp\ccgE0nth.s:25365  .debug_str:0000000000018dc6 .LASF653
C:\Users\SOLDER~1\AppData\Local\Temp\ccgE0nth.s:24669  .debug_str:00000000000160f5 .LASF654
C:\Users\SOLDER~1\AppData\Local\Temp\ccgE0nth.s:30527  .debug_str:000000000002dd59 .LASF655
C:\Users\SOLDER~1\AppData\Local\Temp\ccgE0nth.s:25411  .debug_str:00000000000190e1 .LASF656
C:\Users\SOLDER~1\AppData\Local\Temp\ccgE0nth.s:29799  .debug_str:000000000002adeb .LASF657
C:\Users\SOLDER~1\AppData\Local\Temp\ccgE0nth.s:29161  .debug_str:00000000000284e2 .LASF658
C:\Users\SOLDER~1\AppData\Local\Temp\ccgE0nth.s:27957  .debug_str:000000000002356a .LASF659
C:\Users\SOLDER~1\AppData\Local\Temp\ccgE0nth.s:27985  .debug_str:000000000002374d .LASF660
C:\Users\SOLDER~1\AppData\Local\Temp\ccgE0nth.s:30189  .debug_str:000000000002c789 .LASF661
C:\Users\SOLDER~1\AppData\Local\Temp\ccgE0nth.s:22691  .debug_str:000000000000e035 .LASF662
C:\Users\SOLDER~1\AppData\Local\Temp\ccgE0nth.s:22007  .debug_str:000000000000b364 .LASF663
C:\Users\SOLDER~1\AppData\Local\Temp\ccgE0nth.s:24369  .debug_str:0000000000014e26 .LASF664
C:\Users\SOLDER~1\AppData\Local\Temp\ccgE0nth.s:26661  .debug_str:000000000001e1ab .LASF665
C:\Users\SOLDER~1\AppData\Local\Temp\ccgE0nth.s:26939  .debug_str:000000000001f3e4 .LASF666
C:\Users\SOLDER~1\AppData\Local\Temp\ccgE0nth.s:26955  .debug_str:000000000001f508 .LASF667
C:\Users\SOLDER~1\AppData\Local\Temp\ccgE0nth.s:20887  .debug_str:0000000000006a1c .LASF668
C:\Users\SOLDER~1\AppData\Local\Temp\ccgE0nth.s:28021  .debug_str:0000000000023982 .LASF669
C:\Users\SOLDER~1\AppData\Local\Temp\ccgE0nth.s:29035  .debug_str:0000000000027ca9 .LASF670
C:\Users\SOLDER~1\AppData\Local\Temp\ccgE0nth.s:30495  .debug_str:000000000002db45 .LASF671
C:\Users\SOLDER~1\AppData\Local\Temp\ccgE0nth.s:29791  .debug_str:000000000002ad71 .LASF672
C:\Users\SOLDER~1\AppData\Local\Temp\ccgE0nth.s:26053  .debug_str:000000000001b97a .LASF673
C:\Users\SOLDER~1\AppData\Local\Temp\ccgE0nth.s:22203  .debug_str:000000000000bfab .LASF674
GAS LISTING C:\Users\SOLDER~1\AppData\Local\Temp\ccgE0nth.s 			page 39


C:\Users\SOLDER~1\AppData\Local\Temp\ccgE0nth.s:20151  .debug_str:0000000000003ab1 .LASF675
C:\Users\SOLDER~1\AppData\Local\Temp\ccgE0nth.s:23343  .debug_str:0000000000010a6c .LASF676
C:\Users\SOLDER~1\AppData\Local\Temp\ccgE0nth.s:25759  .debug_str:000000000001a6d3 .LASF677
C:\Users\SOLDER~1\AppData\Local\Temp\ccgE0nth.s:28839  .debug_str:0000000000026fd0 .LASF678
C:\Users\SOLDER~1\AppData\Local\Temp\ccgE0nth.s:30111  .debug_str:000000000002c2ab .LASF679
C:\Users\SOLDER~1\AppData\Local\Temp\ccgE0nth.s:25083  .debug_str:0000000000017b74 .LASF680
C:\Users\SOLDER~1\AppData\Local\Temp\ccgE0nth.s:26583  .debug_str:000000000001dc6c .LASF681
C:\Users\SOLDER~1\AppData\Local\Temp\ccgE0nth.s:23885  .debug_str:0000000000012d05 .LASF682
C:\Users\SOLDER~1\AppData\Local\Temp\ccgE0nth.s:24805  .debug_str:000000000001696e .LASF683
C:\Users\SOLDER~1\AppData\Local\Temp\ccgE0nth.s:21361  .debug_str:00000000000088cc .LASF684
C:\Users\SOLDER~1\AppData\Local\Temp\ccgE0nth.s:26361  .debug_str:000000000001ce32 .LASF685
C:\Users\SOLDER~1\AppData\Local\Temp\ccgE0nth.s:26901  .debug_str:000000000001f152 .LASF686
C:\Users\SOLDER~1\AppData\Local\Temp\ccgE0nth.s:19669  .debug_str:0000000000001b5d .LASF687
C:\Users\SOLDER~1\AppData\Local\Temp\ccgE0nth.s:26673  .debug_str:000000000001e25d .LASF688
C:\Users\SOLDER~1\AppData\Local\Temp\ccgE0nth.s:29999  .debug_str:000000000002baff .LASF689
C:\Users\SOLDER~1\AppData\Local\Temp\ccgE0nth.s:19287  .debug_str:00000000000001d2 .LASF690
C:\Users\SOLDER~1\AppData\Local\Temp\ccgE0nth.s:27157  .debug_str:00000000000201f1 .LASF691
C:\Users\SOLDER~1\AppData\Local\Temp\ccgE0nth.s:27109  .debug_str:000000000001fed8 .LASF692
C:\Users\SOLDER~1\AppData\Local\Temp\ccgE0nth.s:21459  .debug_str:0000000000008f5c .LASF693
C:\Users\SOLDER~1\AppData\Local\Temp\ccgE0nth.s:26867  .debug_str:000000000001eeff .LASF694
C:\Users\SOLDER~1\AppData\Local\Temp\ccgE0nth.s:21443  .debug_str:0000000000008e3b .LASF695
C:\Users\SOLDER~1\AppData\Local\Temp\ccgE0nth.s:26371  .debug_str:000000000001cee0 .LASF696
C:\Users\SOLDER~1\AppData\Local\Temp\ccgE0nth.s:29025  .debug_str:0000000000027be6 .LASF697
C:\Users\SOLDER~1\AppData\Local\Temp\ccgE0nth.s:29813  .debug_str:000000000002aeb4 .LASF698
C:\Users\SOLDER~1\AppData\Local\Temp\ccgE0nth.s:22835  .debug_str:000000000000e9ae .LASF699
C:\Users\SOLDER~1\AppData\Local\Temp\ccgE0nth.s:30497  .debug_str:000000000002db5b .LASF700
C:\Users\SOLDER~1\AppData\Local\Temp\ccgE0nth.s:25615  .debug_str:0000000000019db1 .LASF701
C:\Users\SOLDER~1\AppData\Local\Temp\ccgE0nth.s:20087  .debug_str:0000000000003683 .LASF702
C:\Users\SOLDER~1\AppData\Local\Temp\ccgE0nth.s:28095  .debug_str:0000000000023e3c .LASF703
C:\Users\SOLDER~1\AppData\Local\Temp\ccgE0nth.s:26085  .debug_str:000000000001bb93 .LASF704
C:\Users\SOLDER~1\AppData\Local\Temp\ccgE0nth.s:29075  .debug_str:0000000000027f44 .LASF705
C:\Users\SOLDER~1\AppData\Local\Temp\ccgE0nth.s:24841  .debug_str:0000000000016bce .LASF706
C:\Users\SOLDER~1\AppData\Local\Temp\ccgE0nth.s:22155  .debug_str:000000000000bcb9 .LASF707
C:\Users\SOLDER~1\AppData\Local\Temp\ccgE0nth.s:27695  .debug_str:0000000000022404 .LASF708
C:\Users\SOLDER~1\AppData\Local\Temp\ccgE0nth.s:27151  .debug_str:0000000000020188 .LASF709
C:\Users\SOLDER~1\AppData\Local\Temp\ccgE0nth.s:20103  .debug_str:000000000000377f .LASF710
C:\Users\SOLDER~1\AppData\Local\Temp\ccgE0nth.s:28571  .debug_str:0000000000025dc3 .LASF711
C:\Users\SOLDER~1\AppData\Local\Temp\ccgE0nth.s:27887  .debug_str:000000000002309d .LASF712
C:\Users\SOLDER~1\AppData\Local\Temp\ccgE0nth.s:21225  .debug_str:0000000000007ff9 .LASF713
C:\Users\SOLDER~1\AppData\Local\Temp\ccgE0nth.s:28917  .debug_str:00000000000274f0 .LASF714
C:\Users\SOLDER~1\AppData\Local\Temp\ccgE0nth.s:26883  .debug_str:000000000001f010 .LASF715
C:\Users\SOLDER~1\AppData\Local\Temp\ccgE0nth.s:28035  .debug_str:0000000000023a37 .LASF716
C:\Users\SOLDER~1\AppData\Local\Temp\ccgE0nth.s:23367  .debug_str:0000000000010bcd .LASF717
C:\Users\SOLDER~1\AppData\Local\Temp\ccgE0nth.s:30537  .debug_str:000000000002de06 .LASF718
C:\Users\SOLDER~1\AppData\Local\Temp\ccgE0nth.s:25789  .debug_str:000000000001a8f1 .LASF719
C:\Users\SOLDER~1\AppData\Local\Temp\ccgE0nth.s:23799  .debug_str:0000000000012799 .LASF720
C:\Users\SOLDER~1\AppData\Local\Temp\ccgE0nth.s:27435  .debug_str:00000000000213cc .LASF721
C:\Users\SOLDER~1\AppData\Local\Temp\ccgE0nth.s:25585  .debug_str:0000000000019c1e .LASF722
C:\Users\SOLDER~1\AppData\Local\Temp\ccgE0nth.s:27479  .debug_str:0000000000021691 .LASF723
C:\Users\SOLDER~1\AppData\Local\Temp\ccgE0nth.s:24733  .debug_str:0000000000016501 .LASF724
C:\Users\SOLDER~1\AppData\Local\Temp\ccgE0nth.s:23971  .debug_str:00000000000132bb .LASF725
C:\Users\SOLDER~1\AppData\Local\Temp\ccgE0nth.s:29687  .debug_str:000000000002a6f2 .LASF726
C:\Users\SOLDER~1\AppData\Local\Temp\ccgE0nth.s:24153  .debug_str:0000000000013f8c .LASF727
C:\Users\SOLDER~1\AppData\Local\Temp\ccgE0nth.s:19427  .debug_str:0000000000000bdd .LASF728
C:\Users\SOLDER~1\AppData\Local\Temp\ccgE0nth.s:22593  .debug_str:000000000000d9f3 .LASF729
C:\Users\SOLDER~1\AppData\Local\Temp\ccgE0nth.s:25443  .debug_str:00000000000192df .LASF730
C:\Users\SOLDER~1\AppData\Local\Temp\ccgE0nth.s:26035  .debug_str:000000000001b860 .LASF731
GAS LISTING C:\Users\SOLDER~1\AppData\Local\Temp\ccgE0nth.s 			page 40


C:\Users\SOLDER~1\AppData\Local\Temp\ccgE0nth.s:21053  .debug_str:00000000000074e1 .LASF732
C:\Users\SOLDER~1\AppData\Local\Temp\ccgE0nth.s:21669  .debug_str:0000000000009cfd .LASF733
C:\Users\SOLDER~1\AppData\Local\Temp\ccgE0nth.s:27679  .debug_str:00000000000222f2 .LASF734
C:\Users\SOLDER~1\AppData\Local\Temp\ccgE0nth.s:27609  .debug_str:0000000000021ee8 .LASF735
C:\Users\SOLDER~1\AppData\Local\Temp\ccgE0nth.s:25277  .debug_str:0000000000018826 .LASF736
C:\Users\SOLDER~1\AppData\Local\Temp\ccgE0nth.s:22151  .debug_str:000000000000bc6c .LASF737
C:\Users\SOLDER~1\AppData\Local\Temp\ccgE0nth.s:30665  .debug_str:000000000002e601 .LASF738
C:\Users\SOLDER~1\AppData\Local\Temp\ccgE0nth.s:22379  .debug_str:000000000000cbda .LASF739
C:\Users\SOLDER~1\AppData\Local\Temp\ccgE0nth.s:19775  .debug_str:0000000000002255 .LASF740
C:\Users\SOLDER~1\AppData\Local\Temp\ccgE0nth.s:24463  .debug_str:0000000000015425 .LASF741
C:\Users\SOLDER~1\AppData\Local\Temp\ccgE0nth.s:22139  .debug_str:000000000000bb90 .LASF742
C:\Users\SOLDER~1\AppData\Local\Temp\ccgE0nth.s:28951  .debug_str:000000000002772f .LASF743
C:\Users\SOLDER~1\AppData\Local\Temp\ccgE0nth.s:25603  .debug_str:0000000000019d08 .LASF744
C:\Users\SOLDER~1\AppData\Local\Temp\ccgE0nth.s:23739  .debug_str:00000000000123a5 .LASF745
C:\Users\SOLDER~1\AppData\Local\Temp\ccgE0nth.s:27029  .debug_str:000000000001f9eb .LASF746
C:\Users\SOLDER~1\AppData\Local\Temp\ccgE0nth.s:27603  .debug_str:0000000000021e82 .LASF747
C:\Users\SOLDER~1\AppData\Local\Temp\ccgE0nth.s:28537  .debug_str:0000000000025b5e .LASF748
C:\Users\SOLDER~1\AppData\Local\Temp\ccgE0nth.s:27973  .debug_str:000000000002367b .LASF749
C:\Users\SOLDER~1\AppData\Local\Temp\ccgE0nth.s:20951  .debug_str:0000000000006dff .LASF750
C:\Users\SOLDER~1\AppData\Local\Temp\ccgE0nth.s:20445  .debug_str:0000000000004d67 .LASF751
C:\Users\SOLDER~1\AppData\Local\Temp\ccgE0nth.s:21841  .debug_str:000000000000a8ca .LASF752
C:\Users\SOLDER~1\AppData\Local\Temp\ccgE0nth.s:22053  .debug_str:000000000000b679 .LASF753
C:\Users\SOLDER~1\AppData\Local\Temp\ccgE0nth.s:29777  .debug_str:000000000002ac91 .LASF754
C:\Users\SOLDER~1\AppData\Local\Temp\ccgE0nth.s:27691  .debug_str:00000000000223c9 .LASF755
C:\Users\SOLDER~1\AppData\Local\Temp\ccgE0nth.s:19923  .debug_str:0000000000002be6 .LASF756
C:\Users\SOLDER~1\AppData\Local\Temp\ccgE0nth.s:28981  .debug_str:0000000000027914 .LASF757
C:\Users\SOLDER~1\AppData\Local\Temp\ccgE0nth.s:19807  .debug_str:000000000000247c .LASF758
C:\Users\SOLDER~1\AppData\Local\Temp\ccgE0nth.s:25533  .debug_str:00000000000198be .LASF759
C:\Users\SOLDER~1\AppData\Local\Temp\ccgE0nth.s:24671  .debug_str:000000000001611a .LASF760
C:\Users\SOLDER~1\AppData\Local\Temp\ccgE0nth.s:19323  .debug_str:0000000000000450 .LASF761
C:\Users\SOLDER~1\AppData\Local\Temp\ccgE0nth.s:19509  .debug_str:0000000000001129 .LASF762
C:\Users\SOLDER~1\AppData\Local\Temp\ccgE0nth.s:28073  .debug_str:0000000000023cc7 .LASF763
C:\Users\SOLDER~1\AppData\Local\Temp\ccgE0nth.s:28379  .debug_str:0000000000025104 .LASF764
C:\Users\SOLDER~1\AppData\Local\Temp\ccgE0nth.s:20715  .debug_str:0000000000005e5d .LASF765
C:\Users\SOLDER~1\AppData\Local\Temp\ccgE0nth.s:21529  .debug_str:000000000000942a .LASF766
C:\Users\SOLDER~1\AppData\Local\Temp\ccgE0nth.s:29521  .debug_str:0000000000029bee .LASF767
C:\Users\SOLDER~1\AppData\Local\Temp\ccgE0nth.s:19455  .debug_str:0000000000000ddd .LASF768
C:\Users\SOLDER~1\AppData\Local\Temp\ccgE0nth.s:24253  .debug_str:0000000000014676 .LASF769
C:\Users\SOLDER~1\AppData\Local\Temp\ccgE0nth.s:26235  .debug_str:000000000001c595 .LASF770
C:\Users\SOLDER~1\AppData\Local\Temp\ccgE0nth.s:21007  .debug_str:0000000000007205 .LASF771
C:\Users\SOLDER~1\AppData\Local\Temp\ccgE0nth.s:20689  .debug_str:0000000000005cb5 .LASF772
C:\Users\SOLDER~1\AppData\Local\Temp\ccgE0nth.s:22259  .debug_str:000000000000c35e .LASF773
C:\Users\SOLDER~1\AppData\Local\Temp\ccgE0nth.s:19825  .debug_str:00000000000025af .LASF774
C:\Users\SOLDER~1\AppData\Local\Temp\ccgE0nth.s:20485  .debug_str:0000000000004fa4 .LASF775
C:\Users\SOLDER~1\AppData\Local\Temp\ccgE0nth.s:20467  .debug_str:0000000000004eb5 .LASF776
C:\Users\SOLDER~1\AppData\Local\Temp\ccgE0nth.s:20739  .debug_str:0000000000005fe3 .LASF777
C:\Users\SOLDER~1\AppData\Local\Temp\ccgE0nth.s:29677  .debug_str:000000000002a652 .LASF778
C:\Users\SOLDER~1\AppData\Local\Temp\ccgE0nth.s:26463  .debug_str:000000000001d511 .LASF779
C:\Users\SOLDER~1\AppData\Local\Temp\ccgE0nth.s:25595  .debug_str:0000000000019c82 .LASF780
C:\Users\SOLDER~1\AppData\Local\Temp\ccgE0nth.s:27445  .debug_str:000000000002145f .LASF781
C:\Users\SOLDER~1\AppData\Local\Temp\ccgE0nth.s:28075  .debug_str:0000000000023ce9 .LASF782
C:\Users\SOLDER~1\AppData\Local\Temp\ccgE0nth.s:30805  .debug_str:000000000002ef0f .LASF783
C:\Users\SOLDER~1\AppData\Local\Temp\ccgE0nth.s:19665  .debug_str:0000000000001b19 .LASF784
C:\Users\SOLDER~1\AppData\Local\Temp\ccgE0nth.s:22555  .debug_str:000000000000d76d .LASF785
C:\Users\SOLDER~1\AppData\Local\Temp\ccgE0nth.s:21003  .debug_str:00000000000071c6 .LASF786
C:\Users\SOLDER~1\AppData\Local\Temp\ccgE0nth.s:25893  .debug_str:000000000001afc0 .LASF787
C:\Users\SOLDER~1\AppData\Local\Temp\ccgE0nth.s:27883  .debug_str:000000000002305c .LASF788
GAS LISTING C:\Users\SOLDER~1\AppData\Local\Temp\ccgE0nth.s 			page 41


C:\Users\SOLDER~1\AppData\Local\Temp\ccgE0nth.s:25085  .debug_str:0000000000017b98 .LASF789
C:\Users\SOLDER~1\AppData\Local\Temp\ccgE0nth.s:30469  .debug_str:000000000002d992 .LASF790
C:\Users\SOLDER~1\AppData\Local\Temp\ccgE0nth.s:25417  .debug_str:000000000001914e .LASF791
C:\Users\SOLDER~1\AppData\Local\Temp\ccgE0nth.s:27645  .debug_str:0000000000022116 .LASF792
C:\Users\SOLDER~1\AppData\Local\Temp\ccgE0nth.s:23547  .debug_str:0000000000011796 .LASF793
C:\Users\SOLDER~1\AppData\Local\Temp\ccgE0nth.s:28611  .debug_str:000000000002608f .LASF794
C:\Users\SOLDER~1\AppData\Local\Temp\ccgE0nth.s:29039  .debug_str:0000000000027cf3 .LASF795
C:\Users\SOLDER~1\AppData\Local\Temp\ccgE0nth.s:22233  .debug_str:000000000000c19a .LASF796
C:\Users\SOLDER~1\AppData\Local\Temp\ccgE0nth.s:29069  .debug_str:0000000000027eeb .LASF797
C:\Users\SOLDER~1\AppData\Local\Temp\ccgE0nth.s:24451  .debug_str:0000000000015364 .LASF798
C:\Users\SOLDER~1\AppData\Local\Temp\ccgE0nth.s:24417  .debug_str:00000000000150f9 .LASF799
C:\Users\SOLDER~1\AppData\Local\Temp\ccgE0nth.s:23863  .debug_str:0000000000012b82 .LASF800
C:\Users\SOLDER~1\AppData\Local\Temp\ccgE0nth.s:22293  .debug_str:000000000000c5d1 .LASF801
C:\Users\SOLDER~1\AppData\Local\Temp\ccgE0nth.s:26935  .debug_str:000000000001f3a0 .LASF802
C:\Users\SOLDER~1\AppData\Local\Temp\ccgE0nth.s:30755  .debug_str:000000000002ebf7 .LASF803
C:\Users\SOLDER~1\AppData\Local\Temp\ccgE0nth.s:30503  .debug_str:000000000002dbb1 .LASF804
C:\Users\SOLDER~1\AppData\Local\Temp\ccgE0nth.s:28719  .debug_str:00000000000267ef .LASF805
C:\Users\SOLDER~1\AppData\Local\Temp\ccgE0nth.s:19875  .debug_str:0000000000002904 .LASF806
C:\Users\SOLDER~1\AppData\Local\Temp\ccgE0nth.s:28779  .debug_str:0000000000026c0f .LASF807
C:\Users\SOLDER~1\AppData\Local\Temp\ccgE0nth.s:29001  .debug_str:0000000000027a35 .LASF808
C:\Users\SOLDER~1\AppData\Local\Temp\ccgE0nth.s:20883  .debug_str:00000000000069da .LASF809
C:\Users\SOLDER~1\AppData\Local\Temp\ccgE0nth.s:25657  .debug_str:000000000001a051 .LASF810
C:\Users\SOLDER~1\AppData\Local\Temp\ccgE0nth.s:24721  .debug_str:0000000000016457 .LASF811
C:\Users\SOLDER~1\AppData\Local\Temp\ccgE0nth.s:20855  .debug_str:00000000000067c8 .LASF812
C:\Users\SOLDER~1\AppData\Local\Temp\ccgE0nth.s:30357  .debug_str:000000000002d27d .LASF813
C:\Users\SOLDER~1\AppData\Local\Temp\ccgE0nth.s:29383  .debug_str:0000000000029314 .LASF814
C:\Users\SOLDER~1\AppData\Local\Temp\ccgE0nth.s:20661  .debug_str:0000000000005af2 .LASF815
C:\Users\SOLDER~1\AppData\Local\Temp\ccgE0nth.s:30029  .debug_str:000000000002bcf1 .LASF816
C:\Users\SOLDER~1\AppData\Local\Temp\ccgE0nth.s:28901  .debug_str:00000000000273ef .LASF817
C:\Users\SOLDER~1\AppData\Local\Temp\ccgE0nth.s:26945  .debug_str:000000000001f453 .LASF818
C:\Users\SOLDER~1\AppData\Local\Temp\ccgE0nth.s:28653  .debug_str:0000000000026396 .LASF819
C:\Users\SOLDER~1\AppData\Local\Temp\ccgE0nth.s:25719  .debug_str:000000000001a461 .LASF820
C:\Users\SOLDER~1\AppData\Local\Temp\ccgE0nth.s:22423  .debug_str:000000000000cee0 .LASF821
C:\Users\SOLDER~1\AppData\Local\Temp\ccgE0nth.s:27757  .debug_str:0000000000022801 .LASF822
C:\Users\SOLDER~1\AppData\Local\Temp\ccgE0nth.s:21609  .debug_str:0000000000009932 .LASF823
C:\Users\SOLDER~1\AppData\Local\Temp\ccgE0nth.s:26545  .debug_str:000000000001d9f0 .LASF824
C:\Users\SOLDER~1\AppData\Local\Temp\ccgE0nth.s:22889  .debug_str:000000000000eccb .LASF825
C:\Users\SOLDER~1\AppData\Local\Temp\ccgE0nth.s:26313  .debug_str:000000000001caf2 .LASF826
C:\Users\SOLDER~1\AppData\Local\Temp\ccgE0nth.s:28947  .debug_str:00000000000276fb .LASF827
C:\Users\SOLDER~1\AppData\Local\Temp\ccgE0nth.s:25153  .debug_str:0000000000018037 .LASF828
C:\Users\SOLDER~1\AppData\Local\Temp\ccgE0nth.s:22455  .debug_str:000000000000d0d6 .LASF829
C:\Users\SOLDER~1\AppData\Local\Temp\ccgE0nth.s:28467  .debug_str:0000000000025685 .LASF830
C:\Users\SOLDER~1\AppData\Local\Temp\ccgE0nth.s:23069  .debug_str:000000000000f853 .LASF831
C:\Users\SOLDER~1\AppData\Local\Temp\ccgE0nth.s:29375  .debug_str:0000000000029276 .LASF832
C:\Users\SOLDER~1\AppData\Local\Temp\ccgE0nth.s:21525  .debug_str:00000000000093e4 .LASF833
C:\Users\SOLDER~1\AppData\Local\Temp\ccgE0nth.s:29265  .debug_str:0000000000028b81 .LASF834
C:\Users\SOLDER~1\AppData\Local\Temp\ccgE0nth.s:30237  .debug_str:000000000002ca6e .LASF835
C:\Users\SOLDER~1\AppData\Local\Temp\ccgE0nth.s:20219  .debug_str:0000000000003f03 .LASF836
C:\Users\SOLDER~1\AppData\Local\Temp\ccgE0nth.s:27261  .debug_str:0000000000020874 .LASF837
C:\Users\SOLDER~1\AppData\Local\Temp\ccgE0nth.s:19891  .debug_str:0000000000002a0b .LASF838
C:\Users\SOLDER~1\AppData\Local\Temp\ccgE0nth.s:22141  .debug_str:000000000000bbb0 .LASF839
C:\Users\SOLDER~1\AppData\Local\Temp\ccgE0nth.s:20587  .debug_str:00000000000055d3 .LASF840
C:\Users\SOLDER~1\AppData\Local\Temp\ccgE0nth.s:23489  .debug_str:00000000000113a6 .LASF841
C:\Users\SOLDER~1\AppData\Local\Temp\ccgE0nth.s:23473  .debug_str:0000000000011292 .LASF842
C:\Users\SOLDER~1\AppData\Local\Temp\ccgE0nth.s:26091  .debug_str:000000000001bbf4 .LASF843
C:\Users\SOLDER~1\AppData\Local\Temp\ccgE0nth.s:30597  .debug_str:000000000002e1c2 .LASF844
C:\Users\SOLDER~1\AppData\Local\Temp\ccgE0nth.s:29627  .debug_str:000000000002a306 .LASF845
GAS LISTING C:\Users\SOLDER~1\AppData\Local\Temp\ccgE0nth.s 			page 42


C:\Users\SOLDER~1\AppData\Local\Temp\ccgE0nth.s:25723  .debug_str:000000000001a491 .LASF846
C:\Users\SOLDER~1\AppData\Local\Temp\ccgE0nth.s:23659  .debug_str:0000000000011ea6 .LASF847
C:\Users\SOLDER~1\AppData\Local\Temp\ccgE0nth.s:19627  .debug_str:0000000000001893 .LASF848
C:\Users\SOLDER~1\AppData\Local\Temp\ccgE0nth.s:26727  .debug_str:000000000001e5d1 .LASF849
C:\Users\SOLDER~1\AppData\Local\Temp\ccgE0nth.s:29709  .debug_str:000000000002a826 .LASF850
C:\Users\SOLDER~1\AppData\Local\Temp\ccgE0nth.s:20559  .debug_str:0000000000005437 .LASF851
C:\Users\SOLDER~1\AppData\Local\Temp\ccgE0nth.s:22981  .debug_str:000000000000f28d .LASF852
C:\Users\SOLDER~1\AppData\Local\Temp\ccgE0nth.s:24667  .debug_str:00000000000160d3 .LASF853
C:\Users\SOLDER~1\AppData\Local\Temp\ccgE0nth.s:21825  .debug_str:000000000000a7ad .LASF854
C:\Users\SOLDER~1\AppData\Local\Temp\ccgE0nth.s:22869  .debug_str:000000000000eba2 .LASF855
C:\Users\SOLDER~1\AppData\Local\Temp\ccgE0nth.s:26835  .debug_str:000000000001ecfe .LASF856
C:\Users\SOLDER~1\AppData\Local\Temp\ccgE0nth.s:22903  .debug_str:000000000000edc0 .LASF857
C:\Users\SOLDER~1\AppData\Local\Temp\ccgE0nth.s:27735  .debug_str:000000000002269d .LASF858
C:\Users\SOLDER~1\AppData\Local\Temp\ccgE0nth.s:20185  .debug_str:0000000000003ce2 .LASF859
C:\Users\SOLDER~1\AppData\Local\Temp\ccgE0nth.s:22199  .debug_str:000000000000bf64 .LASF860
C:\Users\SOLDER~1\AppData\Local\Temp\ccgE0nth.s:27599  .debug_str:0000000000021e47 .LASF861
C:\Users\SOLDER~1\AppData\Local\Temp\ccgE0nth.s:23471  .debug_str:000000000001127f .LASF862
C:\Users\SOLDER~1\AppData\Local\Temp\ccgE0nth.s:25797  .debug_str:000000000001a965 .LASF863
C:\Users\SOLDER~1\AppData\Local\Temp\ccgE0nth.s:23953  .debug_str:000000000001315b .LASF864
C:\Users\SOLDER~1\AppData\Local\Temp\ccgE0nth.s:27647  .debug_str:0000000000022130 .LASF865
C:\Users\SOLDER~1\AppData\Local\Temp\ccgE0nth.s:23273  .debug_str:00000000000105f1 .LASF866
C:\Users\SOLDER~1\AppData\Local\Temp\ccgE0nth.s:20067  .debug_str:0000000000003556 .LASF867
C:\Users\SOLDER~1\AppData\Local\Temp\ccgE0nth.s:30633  .debug_str:000000000002e3f8 .LASF868
C:\Users\SOLDER~1\AppData\Local\Temp\ccgE0nth.s:20495  .debug_str:0000000000005059 .LASF869
C:\Users\SOLDER~1\AppData\Local\Temp\ccgE0nth.s:24149  .debug_str:0000000000013f40 .LASF870
C:\Users\SOLDER~1\AppData\Local\Temp\ccgE0nth.s:30141  .debug_str:000000000002c47c .LASF871
C:\Users\SOLDER~1\AppData\Local\Temp\ccgE0nth.s:24647  .debug_str:0000000000015f79 .LASF872
C:\Users\SOLDER~1\AppData\Local\Temp\ccgE0nth.s:30749  .debug_str:000000000002eba4 .LASF873
C:\Users\SOLDER~1\AppData\Local\Temp\ccgE0nth.s:26161  .debug_str:000000000001c0a0 .LASF874
C:\Users\SOLDER~1\AppData\Local\Temp\ccgE0nth.s:25423  .debug_str:0000000000019192 .LASF875
C:\Users\SOLDER~1\AppData\Local\Temp\ccgE0nth.s:20815  .debug_str:000000000000652e .LASF876
C:\Users\SOLDER~1\AppData\Local\Temp\ccgE0nth.s:29323  .debug_str:0000000000028f14 .LASF877
C:\Users\SOLDER~1\AppData\Local\Temp\ccgE0nth.s:27885  .debug_str:000000000002307c .LASF878
C:\Users\SOLDER~1\AppData\Local\Temp\ccgE0nth.s:23433  .debug_str:000000000001100b .LASF879
C:\Users\SOLDER~1\AppData\Local\Temp\ccgE0nth.s:19951  .debug_str:0000000000002dbe .LASF880
C:\Users\SOLDER~1\AppData\Local\Temp\ccgE0nth.s:29821  .debug_str:000000000002af41 .LASF881
C:\Users\SOLDER~1\AppData\Local\Temp\ccgE0nth.s:20955  .debug_str:0000000000006e65 .LASF882
C:\Users\SOLDER~1\AppData\Local\Temp\ccgE0nth.s:20529  .debug_str:0000000000005274 .LASF883
C:\Users\SOLDER~1\AppData\Local\Temp\ccgE0nth.s:20165  .debug_str:0000000000003baf .LASF884
C:\Users\SOLDER~1\AppData\Local\Temp\ccgE0nth.s:22209  .debug_str:000000000000c019 .LASF885
C:\Users\SOLDER~1\AppData\Local\Temp\ccgE0nth.s:26601  .debug_str:000000000001ddb9 .LASF886
C:\Users\SOLDER~1\AppData\Local\Temp\ccgE0nth.s:25693  .debug_str:000000000001a294 .LASF887
C:\Users\SOLDER~1\AppData\Local\Temp\ccgE0nth.s:21835  .debug_str:000000000000a866 .LASF888
C:\Users\SOLDER~1\AppData\Local\Temp\ccgE0nth.s:23365  .debug_str:0000000000010bac .LASF889
C:\Users\SOLDER~1\AppData\Local\Temp\ccgE0nth.s:29481  .debug_str:0000000000029952 .LASF890
C:\Users\SOLDER~1\AppData\Local\Temp\ccgE0nth.s:19333  .debug_str:00000000000004ee .LASF891
C:\Users\SOLDER~1\AppData\Local\Temp\ccgE0nth.s:29997  .debug_str:000000000002bade .LASF892
C:\Users\SOLDER~1\AppData\Local\Temp\ccgE0nth.s:29915  .debug_str:000000000002b592 .LASF893
C:\Users\SOLDER~1\AppData\Local\Temp\ccgE0nth.s:27899  .debug_str:0000000000023176 .LASF894
C:\Users\SOLDER~1\AppData\Local\Temp\ccgE0nth.s:29497  .debug_str:0000000000029a61 .LASF895
C:\Users\SOLDER~1\AppData\Local\Temp\ccgE0nth.s:30291  .debug_str:000000000002cdec .LASF896
C:\Users\SOLDER~1\AppData\Local\Temp\ccgE0nth.s:29071  .debug_str:0000000000027f0d .LASF897
C:\Users\SOLDER~1\AppData\Local\Temp\ccgE0nth.s:20879  .debug_str:0000000000006992 .LASF898
C:\Users\SOLDER~1\AppData\Local\Temp\ccgE0nth.s:19351  .debug_str:000000000000062b .LASF899
C:\Users\SOLDER~1\AppData\Local\Temp\ccgE0nth.s:20811  .debug_str:00000000000064e8 .LASF900
C:\Users\SOLDER~1\AppData\Local\Temp\ccgE0nth.s:25181  .debug_str:0000000000018224 .LASF901
C:\Users\SOLDER~1\AppData\Local\Temp\ccgE0nth.s:27051  .debug_str:000000000001fb51 .LASF902
GAS LISTING C:\Users\SOLDER~1\AppData\Local\Temp\ccgE0nth.s 			page 43


C:\Users\SOLDER~1\AppData\Local\Temp\ccgE0nth.s:21031  .debug_str:000000000000737f .LASF903
C:\Users\SOLDER~1\AppData\Local\Temp\ccgE0nth.s:20077  .debug_str:00000000000035ee .LASF904
C:\Users\SOLDER~1\AppData\Local\Temp\ccgE0nth.s:22165  .debug_str:000000000000bd57 .LASF905
C:\Users\SOLDER~1\AppData\Local\Temp\ccgE0nth.s:20309  .debug_str:00000000000044ad .LASF906
C:\Users\SOLDER~1\AppData\Local\Temp\ccgE0nth.s:21083  .debug_str:00000000000076b5 .LASF907
C:\Users\SOLDER~1\AppData\Local\Temp\ccgE0nth.s:21283  .debug_str:00000000000083cb .LASF908
C:\Users\SOLDER~1\AppData\Local\Temp\ccgE0nth.s:24965  .debug_str:00000000000173bc .LASF909
C:\Users\SOLDER~1\AppData\Local\Temp\ccgE0nth.s:24035  .debug_str:000000000001370d .LASF910
C:\Users\SOLDER~1\AppData\Local\Temp\ccgE0nth.s:26635  .debug_str:000000000001dffa .LASF911
C:\Users\SOLDER~1\AppData\Local\Temp\ccgE0nth.s:20571  .debug_str:00000000000054ec .LASF912
C:\Users\SOLDER~1\AppData\Local\Temp\ccgE0nth.s:29679  .debug_str:000000000002a674 .LASF913
C:\Users\SOLDER~1\AppData\Local\Temp\ccgE0nth.s:19865  .debug_str:000000000000282d .LASF914
C:\Users\SOLDER~1\AppData\Local\Temp\ccgE0nth.s:26709  .debug_str:000000000001e478 .LASF915
C:\Users\SOLDER~1\AppData\Local\Temp\ccgE0nth.s:25101  .debug_str:0000000000017c9c .LASF916
C:\Users\SOLDER~1\AppData\Local\Temp\ccgE0nth.s:20373  .debug_str:00000000000048d4 .LASF917
C:\Users\SOLDER~1\AppData\Local\Temp\ccgE0nth.s:26969  .debug_str:000000000001f61d .LASF918
C:\Users\SOLDER~1\AppData\Local\Temp\ccgE0nth.s:25807  .debug_str:000000000001a9ee .LASF919
C:\Users\SOLDER~1\AppData\Local\Temp\ccgE0nth.s:27521  .debug_str:000000000002193d .LASF920
C:\Users\SOLDER~1\AppData\Local\Temp\ccgE0nth.s:23045  .debug_str:000000000000f6c6 .LASF921
C:\Users\SOLDER~1\AppData\Local\Temp\ccgE0nth.s:19651  .debug_str:0000000000001a2b .LASF922
C:\Users\SOLDER~1\AppData\Local\Temp\ccgE0nth.s:29351  .debug_str:00000000000290f2 .LASF923
C:\Users\SOLDER~1\AppData\Local\Temp\ccgE0nth.s:29665  .debug_str:000000000002a581 .LASF924
C:\Users\SOLDER~1\AppData\Local\Temp\ccgE0nth.s:20449  .debug_str:0000000000004da0 .LASF925
C:\Users\SOLDER~1\AppData\Local\Temp\ccgE0nth.s:20877  .debug_str:0000000000006972 .LASF926
C:\Users\SOLDER~1\AppData\Local\Temp\ccgE0nth.s:21743  .debug_str:000000000000a208 .LASF927
C:\Users\SOLDER~1\AppData\Local\Temp\ccgE0nth.s:26239  .debug_str:000000000001c5f1 .LASF928
C:\Users\SOLDER~1\AppData\Local\Temp\ccgE0nth.s:25345  .debug_str:0000000000018c62 .LASF929
C:\Users\SOLDER~1\AppData\Local\Temp\ccgE0nth.s:26749  .debug_str:000000000001e769 .LASF930
C:\Users\SOLDER~1\AppData\Local\Temp\ccgE0nth.s:19589  .debug_str:0000000000001643 .LASF931
C:\Users\SOLDER~1\AppData\Local\Temp\ccgE0nth.s:20949  .debug_str:0000000000006dec .LASF932
C:\Users\SOLDER~1\AppData\Local\Temp\ccgE0nth.s:19505  .debug_str:00000000000010cb .LASF933
C:\Users\SOLDER~1\AppData\Local\Temp\ccgE0nth.s:22725  .debug_str:000000000000e2ba .LASF934
C:\Users\SOLDER~1\AppData\Local\Temp\ccgE0nth.s:29543  .debug_str:0000000000029d8e .LASF935
C:\Users\SOLDER~1\AppData\Local\Temp\ccgE0nth.s:27535  .debug_str:0000000000021a23 .LASF936
C:\Users\SOLDER~1\AppData\Local\Temp\ccgE0nth.s:29105  .debug_str:000000000002816b .LASF937
C:\Users\SOLDER~1\AppData\Local\Temp\ccgE0nth.s:26391  .debug_str:000000000001cffa .LASF938
C:\Users\SOLDER~1\AppData\Local\Temp\ccgE0nth.s:29385  .debug_str:0000000000029327 .LASF939
C:\Users\SOLDER~1\AppData\Local\Temp\ccgE0nth.s:21565  .debug_str:000000000000969c .LASF940
C:\Users\SOLDER~1\AppData\Local\Temp\ccgE0nth.s:29527  .debug_str:0000000000029c6b .LASF941
C:\Users\SOLDER~1\AppData\Local\Temp\ccgE0nth.s:22927  .debug_str:000000000000ef4d .LASF942
C:\Users\SOLDER~1\AppData\Local\Temp\ccgE0nth.s:28447  .debug_str:0000000000025539 .LASF943
C:\Users\SOLDER~1\AppData\Local\Temp\ccgE0nth.s:20091  .debug_str:00000000000036c8 .LASF944
C:\Users\SOLDER~1\AppData\Local\Temp\ccgE0nth.s:22773  .debug_str:000000000000e5d3 .LASF945
C:\Users\SOLDER~1\AppData\Local\Temp\ccgE0nth.s:29697  .debug_str:000000000002a773 .LASF946
C:\Users\SOLDER~1\AppData\Local\Temp\ccgE0nth.s:28521  .debug_str:0000000000025a71 .LASF947
C:\Users\SOLDER~1\AppData\Local\Temp\ccgE0nth.s:25989  .debug_str:000000000001b5a0 .LASF948
C:\Users\SOLDER~1\AppData\Local\Temp\ccgE0nth.s:21639  .debug_str:0000000000009b36 .LASF949
C:\Users\SOLDER~1\AppData\Local\Temp\ccgE0nth.s:22741  .debug_str:000000000000e3d5 .LASF950
C:\Users\SOLDER~1\AppData\Local\Temp\ccgE0nth.s:23091  .debug_str:000000000000f9eb .LASF951
C:\Users\SOLDER~1\AppData\Local\Temp\ccgE0nth.s:30371  .debug_str:000000000002d374 .LASF952
C:\Users\SOLDER~1\AppData\Local\Temp\ccgE0nth.s:22601  .debug_str:000000000000da73 .LASF953
C:\Users\SOLDER~1\AppData\Local\Temp\ccgE0nth.s:25001  .debug_str:0000000000017614 .LASF954
C:\Users\SOLDER~1\AppData\Local\Temp\ccgE0nth.s:25521  .debug_str:0000000000019826 .LASF955
C:\Users\SOLDER~1\AppData\Local\Temp\ccgE0nth.s:25373  .debug_str:0000000000018e5e .LASF956
C:\Users\SOLDER~1\AppData\Local\Temp\ccgE0nth.s:24855  .debug_str:0000000000016c91 .LASF957
C:\Users\SOLDER~1\AppData\Local\Temp\ccgE0nth.s:22953  .debug_str:000000000000f0dc .LASF958
C:\Users\SOLDER~1\AppData\Local\Temp\ccgE0nth.s:20413  .debug_str:0000000000004b44 .LASF959
GAS LISTING C:\Users\SOLDER~1\AppData\Local\Temp\ccgE0nth.s 			page 44


C:\Users\SOLDER~1\AppData\Local\Temp\ccgE0nth.s:20645  .debug_str:00000000000059d8 .LASF960
C:\Users\SOLDER~1\AppData\Local\Temp\ccgE0nth.s:27473  .debug_str:0000000000021642 .LASF961
C:\Users\SOLDER~1\AppData\Local\Temp\ccgE0nth.s:29825  .debug_str:000000000002af8b .LASF962
C:\Users\SOLDER~1\AppData\Local\Temp\ccgE0nth.s:23023  .debug_str:000000000000f554 .LASF963
C:\Users\SOLDER~1\AppData\Local\Temp\ccgE0nth.s:27413  .debug_str:0000000000021277 .LASF964
C:\Users\SOLDER~1\AppData\Local\Temp\ccgE0nth.s:30105  .debug_str:000000000002c262 .LASF965
C:\Users\SOLDER~1\AppData\Local\Temp\ccgE0nth.s:25103  .debug_str:0000000000017cbe .LASF966
C:\Users\SOLDER~1\AppData\Local\Temp\ccgE0nth.s:24895  .debug_str:0000000000016efe .LASF967
C:\Users\SOLDER~1\AppData\Local\Temp\ccgE0nth.s:22663  .debug_str:000000000000de59 .LASF968
C:\Users\SOLDER~1\AppData\Local\Temp\ccgE0nth.s:21235  .debug_str:00000000000080b4 .LASF969
C:\Users\SOLDER~1\AppData\Local\Temp\ccgE0nth.s:20265  .debug_str:00000000000041f9 .LASF970
C:\Users\SOLDER~1\AppData\Local\Temp\ccgE0nth.s:28271  .debug_str:00000000000249dd .LASF971
C:\Users\SOLDER~1\AppData\Local\Temp\ccgE0nth.s:29453  .debug_str:0000000000029799 .LASF972
C:\Users\SOLDER~1\AppData\Local\Temp\ccgE0nth.s:22445  .debug_str:000000000000d03b .LASF973
C:\Users\SOLDER~1\AppData\Local\Temp\ccgE0nth.s:23511  .debug_str:0000000000011531 .LASF974
C:\Users\SOLDER~1\AppData\Local\Temp\ccgE0nth.s:23055  .debug_str:000000000000f75e .LASF975
C:\Users\SOLDER~1\AppData\Local\Temp\ccgE0nth.s:23931  .debug_str:000000000001301b .LASF976
C:\Users\SOLDER~1\AppData\Local\Temp\ccgE0nth.s:30229  .debug_str:000000000002ca05 .LASF977
C:\Users\SOLDER~1\AppData\Local\Temp\ccgE0nth.s:30287  .debug_str:000000000002cdaa .LASF978
C:\Users\SOLDER~1\AppData\Local\Temp\ccgE0nth.s:25751  .debug_str:000000000001a64c .LASF979
C:\Users\SOLDER~1\AppData\Local\Temp\ccgE0nth.s:27867  .debug_str:0000000000022f40 .LASF980
C:\Users\SOLDER~1\AppData\Local\Temp\ccgE0nth.s:21265  .debug_str:00000000000082b9 .LASF981
C:\Users\SOLDER~1\AppData\Local\Temp\ccgE0nth.s:25529  .debug_str:0000000000019877 .LASF982
C:\Users\SOLDER~1\AppData\Local\Temp\ccgE0nth.s:28297  .debug_str:0000000000024bb3 .LASF983
C:\Users\SOLDER~1\AppData\Local\Temp\ccgE0nth.s:23235  .debug_str:0000000000010368 .LASF984
C:\Users\SOLDER~1\AppData\Local\Temp\ccgE0nth.s:23859  .debug_str:0000000000012b47 .LASF985
C:\Users\SOLDER~1\AppData\Local\Temp\ccgE0nth.s:20825  .debug_str:00000000000065c5 .LASF986
C:\Users\SOLDER~1\AppData\Local\Temp\ccgE0nth.s:24391  .debug_str:0000000000014f7d .LASF987
C:\Users\SOLDER~1\AppData\Local\Temp\ccgE0nth.s:30005  .debug_str:000000000002bb67 .LASF988
C:\Users\SOLDER~1\AppData\Local\Temp\ccgE0nth.s:26523  .debug_str:000000000001d89e .LASF989
C:\Users\SOLDER~1\AppData\Local\Temp\ccgE0nth.s:20703  .debug_str:0000000000005dab .LASF990
C:\Users\SOLDER~1\AppData\Local\Temp\ccgE0nth.s:22057  .debug_str:000000000000b6c0 .LASF991
C:\Users\SOLDER~1\AppData\Local\Temp\ccgE0nth.s:25271  .debug_str:00000000000187c3 .LASF992
C:\Users\SOLDER~1\AppData\Local\Temp\ccgE0nth.s:29113  .debug_str:00000000000281e6 .LASF993
C:\Users\SOLDER~1\AppData\Local\Temp\ccgE0nth.s:26335  .debug_str:000000000001cc64 .LASF994
C:\Users\SOLDER~1\AppData\Local\Temp\ccgE0nth.s:24685  .debug_str:000000000001620c .LASF995
C:\Users\SOLDER~1\AppData\Local\Temp\ccgE0nth.s:23319  .debug_str:00000000000108ce .LASF996
C:\Users\SOLDER~1\AppData\Local\Temp\ccgE0nth.s:20175  .debug_str:0000000000003c4b .LASF997
C:\Users\SOLDER~1\AppData\Local\Temp\ccgE0nth.s:21575  .debug_str:000000000000971b .LASF998
C:\Users\SOLDER~1\AppData\Local\Temp\ccgE0nth.s:27321  .debug_str:0000000000020c5a .LASF999
C:\Users\SOLDER~1\AppData\Local\Temp\ccgE0nth.s:30745  .debug_str:000000000002eb5c .LASF1000
C:\Users\SOLDER~1\AppData\Local\Temp\ccgE0nth.s:22861  .debug_str:000000000000eb4d .LASF1001
C:\Users\SOLDER~1\AppData\Local\Temp\ccgE0nth.s:28325  .debug_str:0000000000024d79 .LASF1002
C:\Users\SOLDER~1\AppData\Local\Temp\ccgE0nth.s:29955  .debug_str:000000000002b84a .LASF1003
C:\Users\SOLDER~1\AppData\Local\Temp\ccgE0nth.s:26069  .debug_str:000000000001baa3 .LASF1004
C:\Users\SOLDER~1\AppData\Local\Temp\ccgE0nth.s:25485  .debug_str:00000000000195cc .LASF1005
C:\Users\SOLDER~1\AppData\Local\Temp\ccgE0nth.s:23681  .debug_str:000000000001200d .LASF1006
C:\Users\SOLDER~1\AppData\Local\Temp\ccgE0nth.s:20985  .debug_str:0000000000007091 .LASF1007
C:\Users\SOLDER~1\AppData\Local\Temp\ccgE0nth.s:21289  .debug_str:000000000000843e .LASF1008
C:\Users\SOLDER~1\AppData\Local\Temp\ccgE0nth.s:28119  .debug_str:0000000000023fd1 .LASF1009
C:\Users\SOLDER~1\AppData\Local\Temp\ccgE0nth.s:30463  .debug_str:000000000002d93f .LASF1010
C:\Users\SOLDER~1\AppData\Local\Temp\ccgE0nth.s:23673  .debug_str:0000000000011f89 .LASF1011
C:\Users\SOLDER~1\AppData\Local\Temp\ccgE0nth.s:28697  .debug_str:000000000002665b .LASF1012
C:\Users\SOLDER~1\AppData\Local\Temp\ccgE0nth.s:30739  .debug_str:000000000002eb03 .LASF1013
C:\Users\SOLDER~1\AppData\Local\Temp\ccgE0nth.s:29171  .debug_str:0000000000028577 .LASF1014
C:\Users\SOLDER~1\AppData\Local\Temp\ccgE0nth.s:26251  .debug_str:000000000001c6d5 .LASF1015
C:\Users\SOLDER~1\AppData\Local\Temp\ccgE0nth.s:26795  .debug_str:000000000001ea76 .LASF1016
GAS LISTING C:\Users\SOLDER~1\AppData\Local\Temp\ccgE0nth.s 			page 45


C:\Users\SOLDER~1\AppData\Local\Temp\ccgE0nth.s:21769  .debug_str:000000000000a3c9 .LASF1017
C:\Users\SOLDER~1\AppData\Local\Temp\ccgE0nth.s:24435  .debug_str:000000000001523d .LASF1018
C:\Users\SOLDER~1\AppData\Local\Temp\ccgE0nth.s:28831  .debug_str:0000000000026f6a .LASF1019
C:\Users\SOLDER~1\AppData\Local\Temp\ccgE0nth.s:22029  .debug_str:000000000000b4cb .LASF1020
C:\Users\SOLDER~1\AppData\Local\Temp\ccgE0nth.s:23647  .debug_str:0000000000011e01 .LASF1021
C:\Users\SOLDER~1\AppData\Local\Temp\ccgE0nth.s:25717  .debug_str:000000000001a440 .LASF1022
C:\Users\SOLDER~1\AppData\Local\Temp\ccgE0nth.s:19985  .debug_str:0000000000003011 .LASF1023
C:\Users\SOLDER~1\AppData\Local\Temp\ccgE0nth.s:28881  .debug_str:0000000000027290 .LASF1024
C:\Users\SOLDER~1\AppData\Local\Temp\ccgE0nth.s:27855  .debug_str:0000000000022e9c .LASF1025
C:\Users\SOLDER~1\AppData\Local\Temp\ccgE0nth.s:26501  .debug_str:000000000001d74b .LASF1026
C:\Users\SOLDER~1\AppData\Local\Temp\ccgE0nth.s:22581  .debug_str:000000000000d942 .LASF1027
C:\Users\SOLDER~1\AppData\Local\Temp\ccgE0nth.s:24157  .debug_str:0000000000013fd2 .LASF1028
C:\Users\SOLDER~1\AppData\Local\Temp\ccgE0nth.s:29659  .debug_str:000000000002a508 .LASF1029
C:\Users\SOLDER~1\AppData\Local\Temp\ccgE0nth.s:21739  .debug_str:000000000000a1c4 .LASF1030
C:\Users\SOLDER~1\AppData\Local\Temp\ccgE0nth.s:21331  .debug_str:00000000000086d9 .LASF1031
C:\Users\SOLDER~1\AppData\Local\Temp\ccgE0nth.s:19381  .debug_str:0000000000000899 .LASF1032
C:\Users\SOLDER~1\AppData\Local\Temp\ccgE0nth.s:20691  .debug_str:0000000000005cd5 .LASF1033
C:\Users\SOLDER~1\AppData\Local\Temp\ccgE0nth.s:20475  .debug_str:0000000000004f21 .LASF1034
C:\Users\SOLDER~1\AppData\Local\Temp\ccgE0nth.s:27739  .debug_str:00000000000226d7 .LASF1035
C:\Users\SOLDER~1\AppData\Local\Temp\ccgE0nth.s:29643  .debug_str:000000000002a405 .LASF1036
C:\Users\SOLDER~1\AppData\Local\Temp\ccgE0nth.s:23403  .debug_str:0000000000010e2d .LASF1037
C:\Users\SOLDER~1\AppData\Local\Temp\ccgE0nth.s:27237  .debug_str:00000000000206e3 .LASF1038
C:\Users\SOLDER~1\AppData\Local\Temp\ccgE0nth.s:28243  .debug_str:0000000000024811 .LASF1039
C:\Users\SOLDER~1\AppData\Local\Temp\ccgE0nth.s:21633  .debug_str:0000000000009ade .LASF1040
C:\Users\SOLDER~1\AppData\Local\Temp\ccgE0nth.s:20397  .debug_str:0000000000004a43 .LASF1041
C:\Users\SOLDER~1\AppData\Local\Temp\ccgE0nth.s:23259  .debug_str:000000000001051f .LASF1042
C:\Users\SOLDER~1\AppData\Local\Temp\ccgE0nth.s:29301  .debug_str:0000000000028dca .LASF1043
C:\Users\SOLDER~1\AppData\Local\Temp\ccgE0nth.s:27039  .debug_str:000000000001fa82 .LASF1044
C:\Users\SOLDER~1\AppData\Local\Temp\ccgE0nth.s:24601  .debug_str:0000000000015cb3 .LASF1045
C:\Users\SOLDER~1\AppData\Local\Temp\ccgE0nth.s:20183  .debug_str:0000000000003cc6 .LASF1046
C:\Users\SOLDER~1\AppData\Local\Temp\ccgE0nth.s:28729  .debug_str:000000000002689b .LASF1047
C:\Users\SOLDER~1\AppData\Local\Temp\ccgE0nth.s:20783  .debug_str:0000000000006313 .LASF1048
C:\Users\SOLDER~1\AppData\Local\Temp\ccgE0nth.s:24969  .debug_str:0000000000017402 .LASF1049
C:\Users\SOLDER~1\AppData\Local\Temp\ccgE0nth.s:23657  .debug_str:0000000000011e8d .LASF1050
C:\Users\SOLDER~1\AppData\Local\Temp\ccgE0nth.s:26327  .debug_str:000000000001cbf1 .LASF1051
C:\Users\SOLDER~1\AppData\Local\Temp\ccgE0nth.s:28717  .debug_str:00000000000267d4 .LASF1052
C:\Users\SOLDER~1\AppData\Local\Temp\ccgE0nth.s:22847  .debug_str:000000000000ea7b .LASF1053
C:\Users\SOLDER~1\AppData\Local\Temp\ccgE0nth.s:26151  .debug_str:000000000001c003 .LASF1054
C:\Users\SOLDER~1\AppData\Local\Temp\ccgE0nth.s:20481  .debug_str:0000000000004f78 .LASF1055
C:\Users\SOLDER~1\AppData\Local\Temp\ccgE0nth.s:27425  .debug_str:0000000000021333 .LASF1056
C:\Users\SOLDER~1\AppData\Local\Temp\ccgE0nth.s:27517  .debug_str:00000000000218f5 .LASF1057
C:\Users\SOLDER~1\AppData\Local\Temp\ccgE0nth.s:26483  .debug_str:000000000001d638 .LASF1058
C:\Users\SOLDER~1\AppData\Local\Temp\ccgE0nth.s:29505  .debug_str:0000000000029ae6 .LASF1059
C:\Users\SOLDER~1\AppData\Local\Temp\ccgE0nth.s:27437  .debug_str:00000000000213e0 .LASF1060
C:\Users\SOLDER~1\AppData\Local\Temp\ccgE0nth.s:27195  .debug_str:0000000000020442 .LASF1061
C:\Users\SOLDER~1\AppData\Local\Temp\ccgE0nth.s:30409  .debug_str:000000000002d5bf .LASF1062
C:\Users\SOLDER~1\AppData\Local\Temp\ccgE0nth.s:20847  .debug_str:000000000000675b .LASF1063
C:\Users\SOLDER~1\AppData\Local\Temp\ccgE0nth.s:23167  .debug_str:000000000000ff36 .LASF1064
C:\Users\SOLDER~1\AppData\Local\Temp\ccgE0nth.s:27847  .debug_str:0000000000022e15 .LASF1065
C:\Users\SOLDER~1\AppData\Local\Temp\ccgE0nth.s:27869  .debug_str:0000000000022f61 .LASF1066
C:\Users\SOLDER~1\AppData\Local\Temp\ccgE0nth.s:22583  .debug_str:000000000000d959 .LASF1067
C:\Users\SOLDER~1\AppData\Local\Temp\ccgE0nth.s:20383  .debug_str:000000000000497b .LASF1068
C:\Users\SOLDER~1\AppData\Local\Temp\ccgE0nth.s:23397  .debug_str:0000000000010dc2 .LASF1069
C:\Users\SOLDER~1\AppData\Local\Temp\ccgE0nth.s:27721  .debug_str:00000000000225ba .LASF1070
C:\Users\SOLDER~1\AppData\Local\Temp\ccgE0nth.s:26399  .debug_str:000000000001d092 .LASF1071
C:\Users\SOLDER~1\AppData\Local\Temp\ccgE0nth.s:23377  .debug_str:0000000000010c6a .LASF1072
C:\Users\SOLDER~1\AppData\Local\Temp\ccgE0nth.s:27963  .debug_str:00000000000235c1 .LASF1073
GAS LISTING C:\Users\SOLDER~1\AppData\Local\Temp\ccgE0nth.s 			page 46


C:\Users\SOLDER~1\AppData\Local\Temp\ccgE0nth.s:19399  .debug_str:0000000000000a06 .LASF1074
C:\Users\SOLDER~1\AppData\Local\Temp\ccgE0nth.s:25671  .debug_str:000000000001a148 .LASF1075
C:\Users\SOLDER~1\AppData\Local\Temp\ccgE0nth.s:24179  .debug_str:000000000001412c .LASF1076
C:\Users\SOLDER~1\AppData\Local\Temp\ccgE0nth.s:22383  .debug_str:000000000000cc13 .LASF1077
C:\Users\SOLDER~1\AppData\Local\Temp\ccgE0nth.s:19851  .debug_str:000000000000274b .LASF1078
C:\Users\SOLDER~1\AppData\Local\Temp\ccgE0nth.s:28421  .debug_str:00000000000253ab .LASF1079
C:\Users\SOLDER~1\AppData\Local\Temp\ccgE0nth.s:21449  .debug_str:0000000000008eab .LASF1080
C:\Users\SOLDER~1\AppData\Local\Temp\ccgE0nth.s:23833  .debug_str:000000000001296e .LASF1081
C:\Users\SOLDER~1\AppData\Local\Temp\ccgE0nth.s:27277  .debug_str:000000000002097f .LASF1082
C:\Users\SOLDER~1\AppData\Local\Temp\ccgE0nth.s:26729  .debug_str:000000000001e5f1 .LASF1083
C:\Users\SOLDER~1\AppData\Local\Temp\ccgE0nth.s:24677  .debug_str:0000000000016181 .LASF1084
C:\Users\SOLDER~1\AppData\Local\Temp\ccgE0nth.s:20695  .debug_str:0000000000005d11 .LASF1085
C:\Users\SOLDER~1\AppData\Local\Temp\ccgE0nth.s:27831  .debug_str:0000000000022d06 .LASF1086
C:\Users\SOLDER~1\AppData\Local\Temp\ccgE0nth.s:29585  .debug_str:000000000002a04b .LASF1087
C:\Users\SOLDER~1\AppData\Local\Temp\ccgE0nth.s:27417  .debug_str:00000000000212ad .LASF1088
C:\Users\SOLDER~1\AppData\Local\Temp\ccgE0nth.s:20665  .debug_str:0000000000005b35 .LASF1089
C:\Users\SOLDER~1\AppData\Local\Temp\ccgE0nth.s:28739  .debug_str:0000000000026934 .LASF1090
C:\Users\SOLDER~1\AppData\Local\Temp\ccgE0nth.s:26571  .debug_str:000000000001db94 .LASF1091
C:\Users\SOLDER~1\AppData\Local\Temp\ccgE0nth.s:21025  .debug_str:0000000000007313 .LASF1092
C:\Users\SOLDER~1\AppData\Local\Temp\ccgE0nth.s:25119  .debug_str:0000000000017dc8 .LASF1093
C:\Users\SOLDER~1\AppData\Local\Temp\ccgE0nth.s:22551  .debug_str:000000000000d72e .LASF1094
C:\Users\SOLDER~1\AppData\Local\Temp\ccgE0nth.s:19607  .debug_str:000000000000176e .LASF1095
C:\Users\SOLDER~1\AppData\Local\Temp\ccgE0nth.s:20755  .debug_str:0000000000006109 .LASF1096
C:\Users\SOLDER~1\AppData\Local\Temp\ccgE0nth.s:27853  .debug_str:0000000000022e75 .LASF1097
C:\Users\SOLDER~1\AppData\Local\Temp\ccgE0nth.s:27139  .debug_str:00000000000200ce .LASF1098
C:\Users\SOLDER~1\AppData\Local\Temp\ccgE0nth.s:20987  .debug_str:00000000000070a8 .LASF1099
C:\Users\SOLDER~1\AppData\Local\Temp\ccgE0nth.s:24445  .debug_str:0000000000015301 .LASF1100
C:\Users\SOLDER~1\AppData\Local\Temp\ccgE0nth.s:28099  .debug_str:0000000000023e75 .LASF1101
C:\Users\SOLDER~1\AppData\Local\Temp\ccgE0nth.s:29785  .debug_str:000000000002ad11 .LASF1102
C:\Users\SOLDER~1\AppData\Local\Temp\ccgE0nth.s:19465  .debug_str:0000000000000e71 .LASF1103
C:\Users\SOLDER~1\AppData\Local\Temp\ccgE0nth.s:19573  .debug_str:0000000000001551 .LASF1104
C:\Users\SOLDER~1\AppData\Local\Temp\ccgE0nth.s:27071  .debug_str:000000000001fc85 .LASF1105
C:\Users\SOLDER~1\AppData\Local\Temp\ccgE0nth.s:20637  .debug_str:0000000000005959 .LASF1106
C:\Users\SOLDER~1\AppData\Local\Temp\ccgE0nth.s:22183  .debug_str:000000000000be64 .LASF1107
C:\Users\SOLDER~1\AppData\Local\Temp\ccgE0nth.s:19645  .debug_str:00000000000019c8 .LASF1108
C:\Users\SOLDER~1\AppData\Local\Temp\ccgE0nth.s:27153  .debug_str:00000000000201ab .LASF1109
C:\Users\SOLDER~1\AppData\Local\Temp\ccgE0nth.s:20729  .debug_str:0000000000005f3f .LASF1110
C:\Users\SOLDER~1\AppData\Local\Temp\ccgE0nth.s:21233  .debug_str:000000000000808c .LASF1111
C:\Users\SOLDER~1\AppData\Local\Temp\ccgE0nth.s:21719  .debug_str:000000000000a066 .LASF1112
C:\Users\SOLDER~1\AppData\Local\Temp\ccgE0nth.s:22123  .debug_str:000000000000ba75 .LASF1113
C:\Users\SOLDER~1\AppData\Local\Temp\ccgE0nth.s:29083  .debug_str:0000000000027fd2 .LASF1114
C:\Users\SOLDER~1\AppData\Local\Temp\ccgE0nth.s:21373  .debug_str:000000000000896c .LASF1115
C:\Users\SOLDER~1\AppData\Local\Temp\ccgE0nth.s:28801  .debug_str:0000000000026d2e .LASF1116
C:\Users\SOLDER~1\AppData\Local\Temp\ccgE0nth.s:30261  .debug_str:000000000002cbee .LASF1117
C:\Users\SOLDER~1\AppData\Local\Temp\ccgE0nth.s:29749  .debug_str:000000000002aaab .LASF1118
C:\Users\SOLDER~1\AppData\Local\Temp\ccgE0nth.s:24097  .debug_str:0000000000013b97 .LASF1119
C:\Users\SOLDER~1\AppData\Local\Temp\ccgE0nth.s:20399  .debug_str:0000000000004a54 .LASF1120
C:\Users\SOLDER~1\AppData\Local\Temp\ccgE0nth.s:26615  .debug_str:000000000001deb9 .LASF1121
C:\Users\SOLDER~1\AppData\Local\Temp\ccgE0nth.s:21491  .debug_str:0000000000009187 .LASF1122
C:\Users\SOLDER~1\AppData\Local\Temp\ccgE0nth.s:29921  .debug_str:000000000002b60c .LASF1123
C:\Users\SOLDER~1\AppData\Local\Temp\ccgE0nth.s:24339  .debug_str:0000000000014c29 .LASF1124
C:\Users\SOLDER~1\AppData\Local\Temp\ccgE0nth.s:22043  .debug_str:000000000000b5d8 .LASF1125
C:\Users\SOLDER~1\AppData\Local\Temp\ccgE0nth.s:30439  .debug_str:000000000002d7c4 .LASF1126
C:\Users\SOLDER~1\AppData\Local\Temp\ccgE0nth.s:28553  .debug_str:0000000000025c84 .LASF1127
C:\Users\SOLDER~1\AppData\Local\Temp\ccgE0nth.s:27611  .debug_str:0000000000021f0a .LASF1128
C:\Users\SOLDER~1\AppData\Local\Temp\ccgE0nth.s:25299  .debug_str:0000000000018971 .LASF1129
C:\Users\SOLDER~1\AppData\Local\Temp\ccgE0nth.s:25897  .debug_str:000000000001afed .LASF1130
GAS LISTING C:\Users\SOLDER~1\AppData\Local\Temp\ccgE0nth.s 			page 47


C:\Users\SOLDER~1\AppData\Local\Temp\ccgE0nth.s:21385  .debug_str:0000000000008a5f .LASF1131
C:\Users\SOLDER~1\AppData\Local\Temp\ccgE0nth.s:26919  .debug_str:000000000001f28a .LASF1132
C:\Users\SOLDER~1\AppData\Local\Temp\ccgE0nth.s:21961  .debug_str:000000000000b0a6 .LASF1133
C:\Users\SOLDER~1\AppData\Local\Temp\ccgE0nth.s:24957  .debug_str:0000000000017335 .LASF1134
C:\Users\SOLDER~1\AppData\Local\Temp\ccgE0nth.s:24337  .debug_str:0000000000014c04 .LASF1135
C:\Users\SOLDER~1\AppData\Local\Temp\ccgE0nth.s:24967  .debug_str:00000000000173dd .LASF1136
C:\Users\SOLDER~1\AppData\Local\Temp\ccgE0nth.s:28987  .debug_str:0000000000027967 .LASF1137
C:\Users\SOLDER~1\AppData\Local\Temp\ccgE0nth.s:26857  .debug_str:000000000001ee50 .LASF1138
C:\Users\SOLDER~1\AppData\Local\Temp\ccgE0nth.s:28159  .debug_str:000000000002427e .LASF1139
C:\Users\SOLDER~1\AppData\Local\Temp\ccgE0nth.s:19795  .debug_str:00000000000023a4 .LASF1140
C:\Users\SOLDER~1\AppData\Local\Temp\ccgE0nth.s:28599  .debug_str:0000000000025fc7 .LASF1141
C:\Users\SOLDER~1\AppData\Local\Temp\ccgE0nth.s:27733  .debug_str:0000000000022677 .LASF1142
C:\Users\SOLDER~1\AppData\Local\Temp\ccgE0nth.s:26257  .debug_str:000000000001c72e .LASF1143
C:\Users\SOLDER~1\AppData\Local\Temp\ccgE0nth.s:30013  .debug_str:000000000002bbf4 .LASF1144
C:\Users\SOLDER~1\AppData\Local\Temp\ccgE0nth.s:26747  .debug_str:000000000001e742 .LASF1145
C:\Users\SOLDER~1\AppData\Local\Temp\ccgE0nth.s:26507  .debug_str:000000000001d7b7 .LASF1146
C:\Users\SOLDER~1\AppData\Local\Temp\ccgE0nth.s:24847  .debug_str:0000000000016c18 .LASF1147
C:\Users\SOLDER~1\AppData\Local\Temp\ccgE0nth.s:30127  .debug_str:000000000002c3a4 .LASF1148
C:\Users\SOLDER~1\AppData\Local\Temp\ccgE0nth.s:27429  .debug_str:000000000002135e .LASF1149
C:\Users\SOLDER~1\AppData\Local\Temp\ccgE0nth.s:24577  .debug_str:0000000000015b39 .LASF1150
C:\Users\SOLDER~1\AppData\Local\Temp\ccgE0nth.s:26309  .debug_str:000000000001caa7 .LASF1151
C:\Users\SOLDER~1\AppData\Local\Temp\ccgE0nth.s:23391  .debug_str:0000000000010d52 .LASF1152
C:\Users\SOLDER~1\AppData\Local\Temp\ccgE0nth.s:28891  .debug_str:0000000000027342 .LASF1153
C:\Users\SOLDER~1\AppData\Local\Temp\ccgE0nth.s:25205  .debug_str:0000000000018392 .LASF1154
C:\Users\SOLDER~1\AppData\Local\Temp\ccgE0nth.s:19689  .debug_str:0000000000001ccf .LASF1155
C:\Users\SOLDER~1\AppData\Local\Temp\ccgE0nth.s:24107  .debug_str:0000000000013c69 .LASF1156
C:\Users\SOLDER~1\AppData\Local\Temp\ccgE0nth.s:27183  .debug_str:000000000002039f .LASF1157
C:\Users\SOLDER~1\AppData\Local\Temp\ccgE0nth.s:30547  .debug_str:000000000002deb4 .LASF1158
C:\Users\SOLDER~1\AppData\Local\Temp\ccgE0nth.s:30555  .debug_str:000000000002df1a .LASF1159
C:\Users\SOLDER~1\AppData\Local\Temp\ccgE0nth.s:29135  .debug_str:0000000000028331 .LASF1160
C:\Users\SOLDER~1\AppData\Local\Temp\ccgE0nth.s:25453  .debug_str:000000000001938a .LASF1161
C:\Users\SOLDER~1\AppData\Local\Temp\ccgE0nth.s:25231  .debug_str:000000000001852c .LASF1162
C:\Users\SOLDER~1\AppData\Local\Temp\ccgE0nth.s:28973  .debug_str:0000000000027891 .LASF1163
C:\Users\SOLDER~1\AppData\Local\Temp\ccgE0nth.s:23449  .debug_str:000000000001110f .LASF1164
C:\Users\SOLDER~1\AppData\Local\Temp\ccgE0nth.s:28909  .debug_str:0000000000027470 .LASF1165
C:\Users\SOLDER~1\AppData\Local\Temp\ccgE0nth.s:30609  .debug_str:000000000002e273 .LASF1166
C:\Users\SOLDER~1\AppData\Local\Temp\ccgE0nth.s:26979  .debug_str:000000000001f6b3 .LASF1167
C:\Users\SOLDER~1\AppData\Local\Temp\ccgE0nth.s:23973  .debug_str:00000000000132de .LASF1168
C:\Users\SOLDER~1\AppData\Local\Temp\ccgE0nth.s:29457  .debug_str:00000000000297d6 .LASF1169
C:\Users\SOLDER~1\AppData\Local\Temp\ccgE0nth.s:21427  .debug_str:0000000000008d07 .LASF1170
C:\Users\SOLDER~1\AppData\Local\Temp\ccgE0nth.s:27471  .debug_str:0000000000021619 .LASF1171
C:\Users\SOLDER~1\AppData\Local\Temp\ccgE0nth.s:28323  .debug_str:0000000000024d52 .LASF1172
C:\Users\SOLDER~1\AppData\Local\Temp\ccgE0nth.s:26801  .debug_str:000000000001ead6 .LASF1173
C:\Users\SOLDER~1\AppData\Local\Temp\ccgE0nth.s:25217  .debug_str:0000000000018458 .LASF1174
C:\Users\SOLDER~1\AppData\Local\Temp\ccgE0nth.s:23191  .debug_str:00000000000100b5 .LASF1175
C:\Users\SOLDER~1\AppData\Local\Temp\ccgE0nth.s:27007  .debug_str:000000000001f895 .LASF1176
C:\Users\SOLDER~1\AppData\Local\Temp\ccgE0nth.s:24111  .debug_str:0000000000013cb5 .LASF1177
C:\Users\SOLDER~1\AppData\Local\Temp\ccgE0nth.s:23853  .debug_str:0000000000012ad6 .LASF1178
C:\Users\SOLDER~1\AppData\Local\Temp\ccgE0nth.s:21711  .debug_str:0000000000009fdf .LASF1179
C:\Users\SOLDER~1\AppData\Local\Temp\ccgE0nth.s:23071  .debug_str:000000000000f874 .LASF1180
C:\Users\SOLDER~1\AppData\Local\Temp\ccgE0nth.s:25145  .debug_str:0000000000017f8d .LASF1181
C:\Users\SOLDER~1\AppData\Local\Temp\ccgE0nth.s:28593  .debug_str:0000000000025f5e .LASF1182
C:\Users\SOLDER~1\AppData\Local\Temp\ccgE0nth.s:23251  .debug_str:0000000000010488 .LASF1183
C:\Users\SOLDER~1\AppData\Local\Temp\ccgE0nth.s:28809  .debug_str:0000000000026dc3 .LASF1184
C:\Users\SOLDER~1\AppData\Local\Temp\ccgE0nth.s:25725  .debug_str:000000000001a4b2 .LASF1185
C:\Users\SOLDER~1\AppData\Local\Temp\ccgE0nth.s:29221  .debug_str:00000000000288be .LASF1186
C:\Users\SOLDER~1\AppData\Local\Temp\ccgE0nth.s:23761  .debug_str:00000000000124e6 .LASF1187
GAS LISTING C:\Users\SOLDER~1\AppData\Local\Temp\ccgE0nth.s 			page 48


C:\Users\SOLDER~1\AppData\Local\Temp\ccgE0nth.s:21803  .debug_str:000000000000a60d .LASF1188
C:\Users\SOLDER~1\AppData\Local\Temp\ccgE0nth.s:21135  .debug_str:00000000000079f9 .LASF1189
C:\Users\SOLDER~1\AppData\Local\Temp\ccgE0nth.s:19725  .debug_str:0000000000001f1d .LASF1190
C:\Users\SOLDER~1\AppData\Local\Temp\ccgE0nth.s:23491  .debug_str:00000000000113b8 .LASF1191
C:\Users\SOLDER~1\AppData\Local\Temp\ccgE0nth.s:20215  .debug_str:0000000000003ec5 .LASF1192
C:\Users\SOLDER~1\AppData\Local\Temp\ccgE0nth.s:30747  .debug_str:000000000002eb7d .LASF1193
C:\Users\SOLDER~1\AppData\Local\Temp\ccgE0nth.s:25761  .debug_str:000000000001a6f7 .LASF1194
C:\Users\SOLDER~1\AppData\Local\Temp\ccgE0nth.s:20975  .debug_str:0000000000006fe6 .LASF1195
C:\Users\SOLDER~1\AppData\Local\Temp\ccgE0nth.s:26451  .debug_str:000000000001d443 .LASF1196
C:\Users\SOLDER~1\AppData\Local\Temp\ccgE0nth.s:30003  .debug_str:000000000002bb3e .LASF1197
C:\Users\SOLDER~1\AppData\Local\Temp\ccgE0nth.s:24543  .debug_str:00000000000158f8 .LASF1198
C:\Users\SOLDER~1\AppData\Local\Temp\ccgE0nth.s:21593  .debug_str:0000000000009846 .LASF1199
C:\Users\SOLDER~1\AppData\Local\Temp\ccgE0nth.s:26999  .debug_str:000000000001f802 .LASF1200
C:\Users\SOLDER~1\AppData\Local\Temp\ccgE0nth.s:30539  .debug_str:000000000002de29 .LASF1201
C:\Users\SOLDER~1\AppData\Local\Temp\ccgE0nth.s:25175  .debug_str:00000000000181b2 .LASF1202
C:\Users\SOLDER~1\AppData\Local\Temp\ccgE0nth.s:20543  .debug_str:0000000000005340 .LASF1203
C:\Users\SOLDER~1\AppData\Local\Temp\ccgE0nth.s:19781  .debug_str:00000000000022af .LASF1204
C:\Users\SOLDER~1\AppData\Local\Temp\ccgE0nth.s:23929  .debug_str:0000000000012ff4 .LASF1205
C:\Users\SOLDER~1\AppData\Local\Temp\ccgE0nth.s:20083  .debug_str:000000000000363c .LASF1206
C:\Users\SOLDER~1\AppData\Local\Temp\ccgE0nth.s:30451  .debug_str:000000000002d887 .LASF1207
C:\Users\SOLDER~1\AppData\Local\Temp\ccgE0nth.s:29403  .debug_str:0000000000029469 .LASF1208
C:\Users\SOLDER~1\AppData\Local\Temp\ccgE0nth.s:29953  .debug_str:000000000002b822 .LASF1209
C:\Users\SOLDER~1\AppData\Local\Temp\ccgE0nth.s:28761  .debug_str:0000000000026acf .LASF1210
C:\Users\SOLDER~1\AppData\Local\Temp\ccgE0nth.s:22727  .debug_str:000000000000e2dc .LASF1211
C:\Users\SOLDER~1\AppData\Local\Temp\ccgE0nth.s:26159  .debug_str:000000000001c077 .LASF1212
C:\Users\SOLDER~1\AppData\Local\Temp\ccgE0nth.s:20777  .debug_str:00000000000062ac .LASF1213
C:\Users\SOLDER~1\AppData\Local\Temp\ccgE0nth.s:29823  .debug_str:000000000002af62 .LASF1214
C:\Users\SOLDER~1\AppData\Local\Temp\ccgE0nth.s:20631  .debug_str:00000000000058f4 .LASF1215
C:\Users\SOLDER~1\AppData\Local\Temp\ccgE0nth.s:26773  .debug_str:000000000001e8f5 .LASF1216
C:\Users\SOLDER~1\AppData\Local\Temp\ccgE0nth.s:21399  .debug_str:0000000000008b39 .LASF1217
C:\Users\SOLDER~1\AppData\Local\Temp\ccgE0nth.s:20001  .debug_str:00000000000030fe .LASF1218
C:\Users\SOLDER~1\AppData\Local\Temp\ccgE0nth.s:28007  .debug_str:000000000002389e .LASF1219
C:\Users\SOLDER~1\AppData\Local\Temp\ccgE0nth.s:27725  .debug_str:00000000000225f3 .LASF1220
C:\Users\SOLDER~1\AppData\Local\Temp\ccgE0nth.s:27173  .debug_str:00000000000202f4 .LASF1221
C:\Users\SOLDER~1\AppData\Local\Temp\ccgE0nth.s:23823  .debug_str:00000000000128f2 .LASF1222
C:\Users\SOLDER~1\AppData\Local\Temp\ccgE0nth.s:20629  .debug_str:00000000000058d1 .LASF1223
C:\Users\SOLDER~1\AppData\Local\Temp\ccgE0nth.s:22075  .debug_str:000000000000b7bf .LASF1224
C:\Users\SOLDER~1\AppData\Local\Temp\ccgE0nth.s:25463  .debug_str:0000000000019444 .LASF1225
C:\Users\SOLDER~1\AppData\Local\Temp\ccgE0nth.s:22985  .debug_str:000000000000f2e8 .LASF1226
C:\Users\SOLDER~1\AppData\Local\Temp\ccgE0nth.s:28145  .debug_str:0000000000024189 .LASF1227
C:\Users\SOLDER~1\AppData\Local\Temp\ccgE0nth.s:21947  .debug_str:000000000000afaf .LASF1228
C:\Users\SOLDER~1\AppData\Local\Temp\ccgE0nth.s:23027  .debug_str:000000000000f594 .LASF1229
C:\Users\SOLDER~1\AppData\Local\Temp\ccgE0nth.s:28975  .debug_str:00000000000278b9 .LASF1230
C:\Users\SOLDER~1\AppData\Local\Temp\ccgE0nth.s:24013  .debug_str:0000000000013583 .LASF1231
C:\Users\SOLDER~1\AppData\Local\Temp\ccgE0nth.s:25155  .debug_str:0000000000018056 .LASF1232
C:\Users\SOLDER~1\AppData\Local\Temp\ccgE0nth.s:23349  .debug_str:0000000000010ac7 .LASF1233
C:\Users\SOLDER~1\AppData\Local\Temp\ccgE0nth.s:20923  .debug_str:0000000000006c45 .LASF1234
C:\Users\SOLDER~1\AppData\Local\Temp\ccgE0nth.s:24065  .debug_str:0000000000013918 .LASF1235
C:\Users\SOLDER~1\AppData\Local\Temp\ccgE0nth.s:20561  .debug_str:0000000000005459 .LASF1236
C:\Users\SOLDER~1\AppData\Local\Temp\ccgE0nth.s:28733  .debug_str:00000000000268d1 .LASF1237
C:\Users\SOLDER~1\AppData\Local\Temp\ccgE0nth.s:25601  .debug_str:0000000000019ce5 .LASF1238
C:\Users\SOLDER~1\AppData\Local\Temp\ccgE0nth.s:22763  .debug_str:000000000000e535 .LASF1239
C:\Users\SOLDER~1\AppData\Local\Temp\ccgE0nth.s:30373  .debug_str:000000000002d39b .LASF1240
C:\Users\SOLDER~1\AppData\Local\Temp\ccgE0nth.s:27889  .debug_str:00000000000230be .LASF1241
C:\Users\SOLDER~1\AppData\Local\Temp\ccgE0nth.s:26563  .debug_str:000000000001db1f .LASF1242
C:\Users\SOLDER~1\AppData\Local\Temp\ccgE0nth.s:26789  .debug_str:000000000001ea16 .LASF1243
C:\Users\SOLDER~1\AppData\Local\Temp\ccgE0nth.s:19983  .debug_str:0000000000002fee .LASF1244
GAS LISTING C:\Users\SOLDER~1\AppData\Local\Temp\ccgE0nth.s 			page 49


C:\Users\SOLDER~1\AppData\Local\Temp\ccgE0nth.s:22713  .debug_str:000000000000e1e6 .LASF1245
C:\Users\SOLDER~1\AppData\Local\Temp\ccgE0nth.s:29245  .debug_str:0000000000028a4e .LASF1246
C:\Users\SOLDER~1\AppData\Local\Temp\ccgE0nth.s:28789  .debug_str:0000000000026c87 .LASF1247
C:\Users\SOLDER~1\AppData\Local\Temp\ccgE0nth.s:28569  .debug_str:0000000000025d9f .LASF1248
C:\Users\SOLDER~1\AppData\Local\Temp\ccgE0nth.s:28609  .debug_str:000000000002606c .LASF1249
C:\Users\SOLDER~1\AppData\Local\Temp\ccgE0nth.s:22301  .debug_str:000000000000c67a .LASF1250
C:\Users\SOLDER~1\AppData\Local\Temp\ccgE0nth.s:30395  .debug_str:000000000002d4d3 .LASF1251
C:\Users\SOLDER~1\AppData\Local\Temp\ccgE0nth.s:27017  .debug_str:000000000001f915 .LASF1252
C:\Users\SOLDER~1\AppData\Local\Temp\ccgE0nth.s:23841  .debug_str:00000000000129f2 .LASF1253
C:\Users\SOLDER~1\AppData\Local\Temp\ccgE0nth.s:25867  .debug_str:000000000001ae14 .LASF1254
C:\Users\SOLDER~1\AppData\Local\Temp\ccgE0nth.s:28603  .debug_str:0000000000026001 .LASF1255
C:\Users\SOLDER~1\AppData\Local\Temp\ccgE0nth.s:26175  .debug_str:000000000001c1b4 .LASF1256
C:\Users\SOLDER~1\AppData\Local\Temp\ccgE0nth.s:24881  .debug_str:0000000000016e05 .LASF1257
C:\Users\SOLDER~1\AppData\Local\Temp\ccgE0nth.s:25187  .debug_str:0000000000018283 .LASF1258
C:\Users\SOLDER~1\AppData\Local\Temp\ccgE0nth.s:29803  .debug_str:000000000002ae15 .LASF1259
C:\Users\SOLDER~1\AppData\Local\Temp\ccgE0nth.s:23261  .debug_str:000000000001053a .LASF1260
C:\Users\SOLDER~1\AppData\Local\Temp\ccgE0nth.s:28619  .debug_str:000000000002611d .LASF1261
C:\Users\SOLDER~1\AppData\Local\Temp\ccgE0nth.s:29755  .debug_str:000000000002ab1c .LASF1262
C:\Users\SOLDER~1\AppData\Local\Temp\ccgE0nth.s:27863  .debug_str:0000000000022f05 .LASF1263
C:\Users\SOLDER~1\AppData\Local\Temp\ccgE0nth.s:25669  .debug_str:000000000001a128 .LASF1264
C:\Users\SOLDER~1\AppData\Local\Temp\ccgE0nth.s:27827  .debug_str:0000000000022cd4 .LASF1265
C:\Users\SOLDER~1\AppData\Local\Temp\ccgE0nth.s:24411  .debug_str:00000000000150ac .LASF1266
C:\Users\SOLDER~1\AppData\Local\Temp\ccgE0nth.s:21029  .debug_str:000000000000735e .LASF1267
C:\Users\SOLDER~1\AppData\Local\Temp\ccgE0nth.s:29391  .debug_str:000000000002938f .LASF1268
C:\Users\SOLDER~1\AppData\Local\Temp\ccgE0nth.s:19853  .debug_str:000000000000276b .LASF1269
C:\Users\SOLDER~1\AppData\Local\Temp\ccgE0nth.s:22629  .debug_str:000000000000dc08 .LASF1270
C:\Users\SOLDER~1\AppData\Local\Temp\ccgE0nth.s:20177  .debug_str:0000000000003c62 .LASF1271
C:\Users\SOLDER~1\AppData\Local\Temp\ccgE0nth.s:28177  .debug_str:00000000000243ad .LASF1272
C:\Users\SOLDER~1\AppData\Local\Temp\ccgE0nth.s:30713  .debug_str:000000000002e957 .LASF1273
C:\Users\SOLDER~1\AppData\Local\Temp\ccgE0nth.s:23901  .debug_str:0000000000012e2c .LASF1274
C:\Users\SOLDER~1\AppData\Local\Temp\ccgE0nth.s:25741  .debug_str:000000000001a5a5 .LASF1275
C:\Users\SOLDER~1\AppData\Local\Temp\ccgE0nth.s:20797  .debug_str:00000000000063fc .LASF1276
C:\Users\SOLDER~1\AppData\Local\Temp\ccgE0nth.s:21915  .debug_str:000000000000ad7b .LASF1277
C:\Users\SOLDER~1\AppData\Local\Temp\ccgE0nth.s:20129  .debug_str:0000000000003944 .LASF1278
C:\Users\SOLDER~1\AppData\Local\Temp\ccgE0nth.s:19655  .debug_str:0000000000001a6b .LASF1279
C:\Users\SOLDER~1\AppData\Local\Temp\ccgE0nth.s:21057  .debug_str:0000000000007524 .LASF1280
C:\Users\SOLDER~1\AppData\Local\Temp\ccgE0nth.s:20249  .debug_str:00000000000040d0 .LASF1281
C:\Users\SOLDER~1\AppData\Local\Temp\ccgE0nth.s:23587  .debug_str:0000000000011a38 .LASF1282
C:\Users\SOLDER~1\AppData\Local\Temp\ccgE0nth.s:29653  .debug_str:000000000002a4a5 .LASF1283
C:\Users\SOLDER~1\AppData\Local\Temp\ccgE0nth.s:24827  .debug_str:0000000000016ad4 .LASF1284
C:\Users\SOLDER~1\AppData\Local\Temp\ccgE0nth.s:22661  .debug_str:000000000000de35 .LASF1285
C:\Users\SOLDER~1\AppData\Local\Temp\ccgE0nth.s:19291  .debug_str:0000000000000218 .LASF1286
C:\Users\SOLDER~1\AppData\Local\Temp\ccgE0nth.s:24067  .debug_str:000000000001393b .LASF1287
C:\Users\SOLDER~1\AppData\Local\Temp\ccgE0nth.s:24145  .debug_str:0000000000013f04 .LASF1288
C:\Users\SOLDER~1\AppData\Local\Temp\ccgE0nth.s:30031  .debug_str:000000000002bd13 .LASF1289
C:\Users\SOLDER~1\AppData\Local\Temp\ccgE0nth.s:22969  .debug_str:000000000000f1db .LASF1290
C:\Users\SOLDER~1\AppData\Local\Temp\ccgE0nth.s:22021  .debug_str:000000000000b438 .LASF1291
C:\Users\SOLDER~1\AppData\Local\Temp\ccgE0nth.s:29647  .debug_str:000000000002a442 .LASF1292
C:\Users\SOLDER~1\AppData\Local\Temp\ccgE0nth.s:27565  .debug_str:0000000000021c09 .LASF1293
C:\Users\SOLDER~1\AppData\Local\Temp\ccgE0nth.s:29073  .debug_str:0000000000027f1f .LASF1294
C:\Users\SOLDER~1\AppData\Local\Temp\ccgE0nth.s:24461  .debug_str:0000000000015400 .LASF1295
C:\Users\SOLDER~1\AppData\Local\Temp\ccgE0nth.s:22369  .debug_str:000000000000cb31 .LASF1296
C:\Users\SOLDER~1\AppData\Local\Temp\ccgE0nth.s:30513  .debug_str:000000000002dc75 .LASF1297
C:\Users\SOLDER~1\AppData\Local\Temp\ccgE0nth.s:21227  .debug_str:000000000000801c .LASF1298
C:\Users\SOLDER~1\AppData\Local\Temp\ccgE0nth.s:22637  .debug_str:000000000000dc8e .LASF1299
C:\Users\SOLDER~1\AppData\Local\Temp\ccgE0nth.s:29909  .debug_str:000000000002b52f .LASF1300
C:\Users\SOLDER~1\AppData\Local\Temp\ccgE0nth.s:24397  .debug_str:0000000000014fd4 .LASF1301
GAS LISTING C:\Users\SOLDER~1\AppData\Local\Temp\ccgE0nth.s 			page 50


C:\Users\SOLDER~1\AppData\Local\Temp\ccgE0nth.s:22477  .debug_str:000000000000d251 .LASF1302
C:\Users\SOLDER~1\AppData\Local\Temp\ccgE0nth.s:27873  .debug_str:0000000000022fae .LASF1303
C:\Users\SOLDER~1\AppData\Local\Temp\ccgE0nth.s:23405  .debug_str:0000000000010e44 .LASF1304
C:\Users\SOLDER~1\AppData\Local\Temp\ccgE0nth.s:26215  .debug_str:000000000001c45a .LASF1305
C:\Users\SOLDER~1\AppData\Local\Temp\ccgE0nth.s:21701  .debug_str:0000000000009f2a .LASF1306
C:\Users\SOLDER~1\AppData\Local\Temp\ccgE0nth.s:30075  .debug_str:000000000002c032 .LASF1307
C:\Users\SOLDER~1\AppData\Local\Temp\ccgE0nth.s:29147  .debug_str:0000000000028408 .LASF1308
C:\Users\SOLDER~1\AppData\Local\Temp\ccgE0nth.s:24131  .debug_str:0000000000013e01 .LASF1309
C:\Users\SOLDER~1\AppData\Local\Temp\ccgE0nth.s:25771  .debug_str:000000000001a7a9 .LASF1310
C:\Users\SOLDER~1\AppData\Local\Temp\ccgE0nth.s:23943  .debug_str:00000000000130d9 .LASF1311
C:\Users\SOLDER~1\AppData\Local\Temp\ccgE0nth.s:29973  .debug_str:000000000002b972 .LASF1312
C:\Users\SOLDER~1\AppData\Local\Temp\ccgE0nth.s:24571  .debug_str:0000000000015acd .LASF1313
C:\Users\SOLDER~1\AppData\Local\Temp\ccgE0nth.s:24829  .debug_str:0000000000016af8 .LASF1314
C:\Users\SOLDER~1\AppData\Local\Temp\ccgE0nth.s:30735  .debug_str:000000000002eaba .LASF1315
C:\Users\SOLDER~1\AppData\Local\Temp\ccgE0nth.s:19893  .debug_str:0000000000002a2c .LASF1316
C:\Users\SOLDER~1\AppData\Local\Temp\ccgE0nth.s:26947  .debug_str:000000000001f475 .LASF1317
C:\Users\SOLDER~1\AppData\Local\Temp\ccgE0nth.s:23557  .debug_str:0000000000011823 .LASF1318
C:\Users\SOLDER~1\AppData\Local\Temp\ccgE0nth.s:21793  .debug_str:000000000000a55d .LASF1319
C:\Users\SOLDER~1\AppData\Local\Temp\ccgE0nth.s:24507  .debug_str:0000000000015718 .LASF1320
C:\Users\SOLDER~1\AppData\Local\Temp\ccgE0nth.s:26275  .debug_str:000000000001c846 .LASF1321
C:\Users\SOLDER~1\AppData\Local\Temp\ccgE0nth.s:30797  .debug_str:000000000002ee79 .LASF1322
C:\Users\SOLDER~1\AppData\Local\Temp\ccgE0nth.s:29741  .debug_str:000000000002aa2a .LASF1323
C:\Users\SOLDER~1\AppData\Local\Temp\ccgE0nth.s:25919  .debug_str:000000000001b11e .LASF1324
C:\Users\SOLDER~1\AppData\Local\Temp\ccgE0nth.s:23857  .debug_str:0000000000012b22 .LASF1325
C:\Users\SOLDER~1\AppData\Local\Temp\ccgE0nth.s:25395  .debug_str:0000000000018fd3 .LASF1326
C:\Users\SOLDER~1\AppData\Local\Temp\ccgE0nth.s:20697  .debug_str:0000000000005d39 .LASF1327
C:\Users\SOLDER~1\AppData\Local\Temp\ccgE0nth.s:30191  .debug_str:000000000002c79b .LASF1328
C:\Users\SOLDER~1\AppData\Local\Temp\ccgE0nth.s:20189  .debug_str:0000000000003d20 .LASF1329
C:\Users\SOLDER~1\AppData\Local\Temp\ccgE0nth.s:29011  .debug_str:0000000000027aea .LASF1330
C:\Users\SOLDER~1\AppData\Local\Temp\ccgE0nth.s:19453  .debug_str:0000000000000db8 .LASF1331
C:\Users\SOLDER~1\AppData\Local\Temp\ccgE0nth.s:29835  .debug_str:000000000002b06e .LASF1332
C:\Users\SOLDER~1\AppData\Local\Temp\ccgE0nth.s:28335  .debug_str:0000000000024e2d .LASF1333
C:\Users\SOLDER~1\AppData\Local\Temp\ccgE0nth.s:30295  .debug_str:000000000002ce2c .LASF1334
C:\Users\SOLDER~1\AppData\Local\Temp\ccgE0nth.s:24183  .debug_str:000000000001416d .LASF1335
C:\Users\SOLDER~1\AppData\Local\Temp\ccgE0nth.s:21725  .debug_str:000000000000a0bd .LASF1336
C:\Users\SOLDER~1\AppData\Local\Temp\ccgE0nth.s:22487  .debug_str:000000000000d306 .LASF1337
C:\Users\SOLDER~1\AppData\Local\Temp\ccgE0nth.s:29525  .debug_str:0000000000029c46 .LASF1338
C:\Users\SOLDER~1\AppData\Local\Temp\ccgE0nth.s:26321  .debug_str:000000000001cb89 .LASF1339
C:\Users\SOLDER~1\AppData\Local\Temp\ccgE0nth.s:25457  .debug_str:00000000000193cb .LASF1340
C:\Users\SOLDER~1\AppData\Local\Temp\ccgE0nth.s:20353  .debug_str:0000000000004772 .LASF1341
C:\Users\SOLDER~1\AppData\Local\Temp\ccgE0nth.s:22017  .debug_str:000000000000b400 .LASF1342
C:\Users\SOLDER~1\AppData\Local\Temp\ccgE0nth.s:28173  .debug_str:000000000002435b .LASF1343
C:\Users\SOLDER~1\AppData\Local\Temp\ccgE0nth.s:22599  .debug_str:000000000000da4f .LASF1344
C:\Users\SOLDER~1\AppData\Local\Temp\ccgE0nth.s:28701  .debug_str:000000000002669c .LASF1345
C:\Users\SOLDER~1\AppData\Local\Temp\ccgE0nth.s:23507  .debug_str:00000000000114e2 .LASF1346
C:\Users\SOLDER~1\AppData\Local\Temp\ccgE0nth.s:27381  .debug_str:000000000002103d .LASF1347
C:\Users\SOLDER~1\AppData\Local\Temp\ccgE0nth.s:24199  .debug_str:00000000000142a7 .LASF1348
C:\Users\SOLDER~1\AppData\Local\Temp\ccgE0nth.s:19671  .debug_str:0000000000001b73 .LASF1349
C:\Users\SOLDER~1\AppData\Local\Temp\ccgE0nth.s:27797  .debug_str:0000000000022ad0 .LASF1350
C:\Users\SOLDER~1\AppData\Local\Temp\ccgE0nth.s:25995  .debug_str:000000000001b603 .LASF1351
C:\Users\SOLDER~1\AppData\Local\Temp\ccgE0nth.s:21871  .debug_str:000000000000aab4 .LASF1352
C:\Users\SOLDER~1\AppData\Local\Temp\ccgE0nth.s:22543  .debug_str:000000000000d6b9 .LASF1353
C:\Users\SOLDER~1\AppData\Local\Temp\ccgE0nth.s:26951  .debug_str:000000000001f4c0 .LASF1354
C:\Users\SOLDER~1\AppData\Local\Temp\ccgE0nth.s:26017  .debug_str:000000000001b753 .LASF1355
C:\Users\SOLDER~1\AppData\Local\Temp\ccgE0nth.s:22173  .debug_str:000000000000bdd7 .LASF1356
C:\Users\SOLDER~1\AppData\Local\Temp\ccgE0nth.s:20111  .debug_str:0000000000003816 .LASF1357
C:\Users\SOLDER~1\AppData\Local\Temp\ccgE0nth.s:21355  .debug_str:0000000000008869 .LASF1358
GAS LISTING C:\Users\SOLDER~1\AppData\Local\Temp\ccgE0nth.s 			page 51


C:\Users\SOLDER~1\AppData\Local\Temp\ccgE0nth.s:28397  .debug_str:0000000000025228 .LASF1359
C:\Users\SOLDER~1\AppData\Local\Temp\ccgE0nth.s:26427  .debug_str:000000000001d2a6 .LASF1360
C:\Users\SOLDER~1\AppData\Local\Temp\ccgE0nth.s:27971  .debug_str:0000000000023656 .LASF1361
C:\Users\SOLDER~1\AppData\Local\Temp\ccgE0nth.s:25333  .debug_str:0000000000018b93 .LASF1362
C:\Users\SOLDER~1\AppData\Local\Temp\ccgE0nth.s:27219  .debug_str:00000000000205be .LASF1363
C:\Users\SOLDER~1\AppData\Local\Temp\ccgE0nth.s:20639  .debug_str:000000000000597a .LASF1364
C:\Users\SOLDER~1\AppData\Local\Temp\ccgE0nth.s:24563  .debug_str:0000000000015a4f .LASF1365
C:\Users\SOLDER~1\AppData\Local\Temp\ccgE0nth.s:26529  .debug_str:000000000001d8d5 .LASF1366
C:\Users\SOLDER~1\AppData\Local\Temp\ccgE0nth.s:24773  .debug_str:0000000000016761 .LASF1367
C:\Users\SOLDER~1\AppData\Local\Temp\ccgE0nth.s:29547  .debug_str:0000000000029dde .LASF1368
C:\Users\SOLDER~1\AppData\Local\Temp\ccgE0nth.s:30305  .debug_str:000000000002cee1 .LASF1369
C:\Users\SOLDER~1\AppData\Local\Temp\ccgE0nth.s:30319  .debug_str:000000000002cfeb .LASF1370
C:\Users\SOLDER~1\AppData\Local\Temp\ccgE0nth.s:22589  .debug_str:000000000000d9aa .LASF1371
C:\Users\SOLDER~1\AppData\Local\Temp\ccgE0nth.s:21679  .debug_str:0000000000009d97 .LASF1372
C:\Users\SOLDER~1\AppData\Local\Temp\ccgE0nth.s:28151  .debug_str:00000000000241fd .LASF1373
C:\Users\SOLDER~1\AppData\Local\Temp\ccgE0nth.s:29837  .debug_str:000000000002b093 .LASF1374
C:\Users\SOLDER~1\AppData\Local\Temp\ccgE0nth.s:20843  .debug_str:00000000000066fd .LASF1375
C:\Users\SOLDER~1\AppData\Local\Temp\ccgE0nth.s:23905  .debug_str:0000000000012e60 .LASF1376
C:\Users\SOLDER~1\AppData\Local\Temp\ccgE0nth.s:21455  .debug_str:0000000000008f13 .LASF1377
C:\Users\SOLDER~1\AppData\Local\Temp\ccgE0nth.s:26417  .debug_str:000000000001d1ff .LASF1378
C:\Users\SOLDER~1\AppData\Local\Temp\ccgE0nth.s:27703  .debug_str:000000000002249b .LASF1379
C:\Users\SOLDER~1\AppData\Local\Temp\ccgE0nth.s:28423  .debug_str:00000000000253d3 .LASF1380
C:\Users\SOLDER~1\AppData\Local\Temp\ccgE0nth.s:23861  .debug_str:0000000000012b5e .LASF1381
C:\Users\SOLDER~1\AppData\Local\Temp\ccgE0nth.s:20455  .debug_str:0000000000004deb .LASF1382
C:\Users\SOLDER~1\AppData\Local\Temp\ccgE0nth.s:30279  .debug_str:000000000002cd17 .LASF1383
C:\Users\SOLDER~1\AppData\Local\Temp\ccgE0nth.s:21403  .debug_str:0000000000008b77 .LASF1384
C:\Users\SOLDER~1\AppData\Local\Temp\ccgE0nth.s:30365  .debug_str:000000000002d30a .LASF1385
C:\Users\SOLDER~1\AppData\Local\Temp\ccgE0nth.s:23229  .debug_str:00000000000102e8 .LASF1386
C:\Users\SOLDER~1\AppData\Local\Temp\ccgE0nth.s:29747  .debug_str:000000000002aa86 .LASF1387
C:\Users\SOLDER~1\AppData\Local\Temp\ccgE0nth.s:29987  .debug_str:000000000002ba3f .LASF1388
C:\Users\SOLDER~1\AppData\Local\Temp\ccgE0nth.s:27897  .debug_str:0000000000023151 .LASF1389
C:\Users\SOLDER~1\AppData\Local\Temp\ccgE0nth.s:29425  .debug_str:00000000000295e5 .LASF1390
C:\Users\SOLDER~1\AppData\Local\Temp\ccgE0nth.s:24713  .debug_str:00000000000163d2 .LASF1391
C:\Users\SOLDER~1\AppData\Local\Temp\ccgE0nth.s:25037  .debug_str:0000000000017878 .LASF1392
C:\Users\SOLDER~1\AppData\Local\Temp\ccgE0nth.s:24297  .debug_str:000000000001493a .LASF1393
C:\Users\SOLDER~1\AppData\Local\Temp\ccgE0nth.s:23327  .debug_str:0000000000010959 .LASF1394
C:\Users\SOLDER~1\AppData\Local\Temp\ccgE0nth.s:23519  .debug_str:00000000000115c9 .LASF1395
C:\Users\SOLDER~1\AppData\Local\Temp\ccgE0nth.s:28437  .debug_str:0000000000025496 .LASF1396
C:\Users\SOLDER~1\AppData\Local\Temp\ccgE0nth.s:20791  .debug_str:0000000000006386 .LASF1397
C:\Users\SOLDER~1\AppData\Local\Temp\ccgE0nth.s:22803  .debug_str:000000000000e79c .LASF1398
C:\Users\SOLDER~1\AppData\Local\Temp\ccgE0nth.s:28197  .debug_str:00000000000244fc .LASF1399
C:\Users\SOLDER~1\AppData\Local\Temp\ccgE0nth.s:25813  .debug_str:000000000001aa59 .LASF1400
C:\Users\SOLDER~1\AppData\Local\Temp\ccgE0nth.s:26447  .debug_str:000000000001d406 .LASF1401
C:\Users\SOLDER~1\AppData\Local\Temp\ccgE0nth.s:22039  .debug_str:000000000000b5a1 .LASF1402
C:\Users\SOLDER~1\AppData\Local\Temp\ccgE0nth.s:28317  .debug_str:0000000000024cf0 .LASF1403
C:\Users\SOLDER~1\AppData\Local\Temp\ccgE0nth.s:29501  .debug_str:0000000000029a9b .LASF1404
C:\Users\SOLDER~1\AppData\Local\Temp\ccgE0nth.s:24457  .debug_str:00000000000153bc .LASF1405
C:\Users\SOLDER~1\AppData\Local\Temp\ccgE0nth.s:26095  .debug_str:000000000001bc2a .LASF1406
C:\Users\SOLDER~1\AppData\Local\Temp\ccgE0nth.s:25169  .debug_str:0000000000018158 .LASF1407
C:\Users\SOLDER~1\AppData\Local\Temp\ccgE0nth.s:26833  .debug_str:000000000001ecda .LASF1408
C:\Users\SOLDER~1\AppData\Local\Temp\ccgE0nth.s:25743  .debug_str:000000000001a5c7 .LASF1409
C:\Users\SOLDER~1\AppData\Local\Temp\ccgE0nth.s:20487  .debug_str:0000000000004fc6 .LASF1410
C:\Users\SOLDER~1\AppData\Local\Temp\ccgE0nth.s:20355  .debug_str:0000000000004797 .LASF1411
C:\Users\SOLDER~1\AppData\Local\Temp\ccgE0nth.s:21093  .debug_str:0000000000007760 .LASF1412
C:\Users\SOLDER~1\AppData\Local\Temp\ccgE0nth.s:28103  .debug_str:0000000000023ec5 .LASF1413
C:\Users\SOLDER~1\AppData\Local\Temp\ccgE0nth.s:24781  .debug_str:00000000000167d0 .LASF1414
C:\Users\SOLDER~1\AppData\Local\Temp\ccgE0nth.s:22993  .debug_str:000000000000f367 .LASF1415
GAS LISTING C:\Users\SOLDER~1\AppData\Local\Temp\ccgE0nth.s 			page 52


C:\Users\SOLDER~1\AppData\Local\Temp\ccgE0nth.s:25705  .debug_str:000000000001a348 .LASF1416
C:\Users\SOLDER~1\AppData\Local\Temp\ccgE0nth.s:26505  .debug_str:000000000001d792 .LASF1417
C:\Users\SOLDER~1\AppData\Local\Temp\ccgE0nth.s:19489  .debug_str:0000000000000fde .LASF1418
C:\Users\SOLDER~1\AppData\Local\Temp\ccgE0nth.s:30079  .debug_str:000000000002c079 .LASF1419
C:\Users\SOLDER~1\AppData\Local\Temp\ccgE0nth.s:26233  .debug_str:000000000001c570 .LASF1420
C:\Users\SOLDER~1\AppData\Local\Temp\ccgE0nth.s:19439  .debug_str:0000000000000cab .LASF1421
C:\Users\SOLDER~1\AppData\Local\Temp\ccgE0nth.s:25709  .debug_str:000000000001a395 .LASF1422
C:\Users\SOLDER~1\AppData\Local\Temp\ccgE0nth.s:20939  .debug_str:0000000000006d43 .LASF1423
C:\Users\SOLDER~1\AppData\Local\Temp\ccgE0nth.s:30531  .debug_str:000000000002dd92 .LASF1424
C:\Users\SOLDER~1\AppData\Local\Temp\ccgE0nth.s:20517  .debug_str:0000000000005192 .LASF1425
C:\Users\SOLDER~1\AppData\Local\Temp\ccgE0nth.s:29355  .debug_str:0000000000029129 .LASF1426
C:\Users\SOLDER~1\AppData\Local\Temp\ccgE0nth.s:19757  .debug_str:000000000000210e .LASF1427
C:\Users\SOLDER~1\AppData\Local\Temp\ccgE0nth.s:24663  .debug_str:00000000000160a7 .LASF1428
C:\Users\SOLDER~1\AppData\Local\Temp\ccgE0nth.s:28575  .debug_str:0000000000025dfc .LASF1429
C:\Users\SOLDER~1\AppData\Local\Temp\ccgE0nth.s:30635  .debug_str:000000000002e41a .LASF1430
C:\Users\SOLDER~1\AppData\Local\Temp\ccgE0nth.s:20043  .debug_str:00000000000033b9 .LASF1431
C:\Users\SOLDER~1\AppData\Local\Temp\ccgE0nth.s:22055  .debug_str:000000000000b69b .LASF1432
C:\Users\SOLDER~1\AppData\Local\Temp\ccgE0nth.s:22723  .debug_str:000000000000e295 .LASF1433
C:\Users\SOLDER~1\AppData\Local\Temp\ccgE0nth.s:29855  .debug_str:000000000002b1d8 .LASF1434
C:\Users\SOLDER~1\AppData\Local\Temp\ccgE0nth.s:26653  .debug_str:000000000001e116 .LASF1435
C:\Users\SOLDER~1\AppData\Local\Temp\ccgE0nth.s:21347  .debug_str:00000000000087de .LASF1436
C:\Users\SOLDER~1\AppData\Local\Temp\ccgE0nth.s:20421  .debug_str:0000000000004bd0 .LASF1437
C:\Users\SOLDER~1\AppData\Local\Temp\ccgE0nth.s:22345  .debug_str:000000000000c965 .LASF1438
C:\Users\SOLDER~1\AppData\Local\Temp\ccgE0nth.s:29399  .debug_str:0000000000029420 .LASF1439
C:\Users\SOLDER~1\AppData\Local\Temp\ccgE0nth.s:23887  .debug_str:0000000000012d29 .LASF1440
C:\Users\SOLDER~1\AppData\Local\Temp\ccgE0nth.s:30015  .debug_str:000000000002bc1b .LASF1441
C:\Users\SOLDER~1\AppData\Local\Temp\ccgE0nth.s:24715  .debug_str:00000000000163f7 .LASF1442
C:\Users\SOLDER~1\AppData\Local\Temp\ccgE0nth.s:24673  .debug_str:000000000001613c .LASF1443
C:\Users\SOLDER~1\AppData\Local\Temp\ccgE0nth.s:27191  .debug_str:0000000000020419 .LASF1444
C:\Users\SOLDER~1\AppData\Local\Temp\ccgE0nth.s:20861  .debug_str:0000000000006853 .LASF1445
C:\Users\SOLDER~1\AppData\Local\Temp\ccgE0nth.s:22797  .debug_str:000000000000e736 .LASF1446
C:\Users\SOLDER~1\AppData\Local\Temp\ccgE0nth.s:27247  .debug_str:0000000000020795 .LASF1447
C:\Users\SOLDER~1\AppData\Local\Temp\ccgE0nth.s:29967  .debug_str:000000000002b908 .LASF1448
C:\Users\SOLDER~1\AppData\Local\Temp\ccgE0nth.s:21359  .debug_str:00000000000088a7 .LASF1449
C:\Users\SOLDER~1\AppData\Local\Temp\ccgE0nth.s:27257  .debug_str:0000000000020837 .LASF1450
C:\Users\SOLDER~1\AppData\Local\Temp\ccgE0nth.s:24197  .debug_str:0000000000014282 .LASF1451
C:\Users\SOLDER~1\AppData\Local\Temp\ccgE0nth.s:22501  .debug_str:000000000000d3ef .LASF1452
C:\Users\SOLDER~1\AppData\Local\Temp\ccgE0nth.s:20437  .debug_str:0000000000004cdd .LASF1453
C:\Users\SOLDER~1\AppData\Local\Temp\ccgE0nth.s:21945  .debug_str:000000000000af8a .LASF1454
C:\Users\SOLDER~1\AppData\Local\Temp\ccgE0nth.s:28731  .debug_str:00000000000268ac .LASF1455
C:\Users\SOLDER~1\AppData\Local\Temp\ccgE0nth.s:26763  .debug_str:000000000001e843 .LASF1456
C:\Users\SOLDER~1\AppData\Local\Temp\ccgE0nth.s:28307  .debug_str:0000000000024c4e .LASF1457
C:\Users\SOLDER~1\AppData\Local\Temp\ccgE0nth.s:25555  .debug_str:0000000000019a25 .LASF1458
C:\Users\SOLDER~1\AppData\Local\Temp\ccgE0nth.s:27549  .debug_str:0000000000021b16 .LASF1459
C:\Users\SOLDER~1\AppData\Local\Temp\ccgE0nth.s:20823  .debug_str:00000000000065a0 .LASF1460
C:\Users\SOLDER~1\AppData\Local\Temp\ccgE0nth.s:24907  .debug_str:0000000000016fcf .LASF1461
C:\Users\SOLDER~1\AppData\Local\Temp\ccgE0nth.s:24839  .debug_str:0000000000016ba9 .LASF1462
C:\Users\SOLDER~1\AppData\Local\Temp\ccgE0nth.s:20753  .debug_str:00000000000060e4 .LASF1463
C:\Users\SOLDER~1\AppData\Local\Temp\ccgE0nth.s:29879  .debug_str:000000000002b34b .LASF1464
C:\Users\SOLDER~1\AppData\Local\Temp\ccgE0nth.s:30557  .debug_str:000000000002df41 .LASF1465
C:\Users\SOLDER~1\AppData\Local\Temp\ccgE0nth.s:26111  .debug_str:000000000001bd5f .LASF1466
C:\Users\SOLDER~1\AppData\Local\Temp\ccgE0nth.s:20899  .debug_str:0000000000006ad2 .LASF1467
C:\Users\SOLDER~1\AppData\Local\Temp\ccgE0nth.s:21931  .debug_str:000000000000ae87 .LASF1468
C:\Users\SOLDER~1\AppData\Local\Temp\ccgE0nth.s:26489  .debug_str:000000000001d697 .LASF1469
C:\Users\SOLDER~1\AppData\Local\Temp\ccgE0nth.s:25113  .debug_str:0000000000017d63 .LASF1470
C:\Users\SOLDER~1\AppData\Local\Temp\ccgE0nth.s:22131  .debug_str:000000000000bb0d .LASF1471
C:\Users\SOLDER~1\AppData\Local\Temp\ccgE0nth.s:28031  .debug_str:00000000000239f9 .LASF1472
GAS LISTING C:\Users\SOLDER~1\AppData\Local\Temp\ccgE0nth.s 			page 53


C:\Users\SOLDER~1\AppData\Local\Temp\ccgE0nth.s:22639  .debug_str:000000000000dcb3 .LASF1473
C:\Users\SOLDER~1\AppData\Local\Temp\ccgE0nth.s:28937  .debug_str:0000000000027648 .LASF1474
C:\Users\SOLDER~1\AppData\Local\Temp\ccgE0nth.s:28903  .debug_str:0000000000027411 .LASF1475
C:\Users\SOLDER~1\AppData\Local\Temp\ccgE0nth.s:29635  .debug_str:000000000002a381 .LASF1476
C:\Users\SOLDER~1\AppData\Local\Temp\ccgE0nth.s:25179  .debug_str:0000000000018200 .LASF1477
C:\Users\SOLDER~1\AppData\Local\Temp\ccgE0nth.s:21733  .debug_str:000000000000a148 .LASF1478
C:\Users\SOLDER~1\AppData\Local\Temp\ccgE0nth.s:19903  .debug_str:0000000000002ac2 .LASF1479
C:\Users\SOLDER~1\AppData\Local\Temp\ccgE0nth.s:22591  .debug_str:000000000000d9cf .LASF1480
C:\Users\SOLDER~1\AppData\Local\Temp\ccgE0nth.s:30615  .debug_str:000000000002e2dc .LASF1481
C:\Users\SOLDER~1\AppData\Local\Temp\ccgE0nth.s:23549  .debug_str:00000000000117a8 .LASF1482
C:\Users\SOLDER~1\AppData\Local\Temp\ccgE0nth.s:22595  .debug_str:000000000000da16 .LASF1483
C:\Users\SOLDER~1\AppData\Local\Temp\ccgE0nth.s:30315  .debug_str:000000000002cf9d .LASF1484
C:\Users\SOLDER~1\AppData\Local\Temp\ccgE0nth.s:28225  .debug_str:00000000000246e1 .LASF1485
C:\Users\SOLDER~1\AppData\Local\Temp\ccgE0nth.s:29671  .debug_str:000000000002a5e2 .LASF1486
C:\Users\SOLDER~1\AppData\Local\Temp\ccgE0nth.s:25065  .debug_str:0000000000017a50 .LASF1487
C:\Users\SOLDER~1\AppData\Local\Temp\ccgE0nth.s:22389  .debug_str:000000000000cc80 .LASF1488
C:\Users\SOLDER~1\AppData\Local\Temp\ccgE0nth.s:24629  .debug_str:0000000000015e5d .LASF1489
C:\Users\SOLDER~1\AppData\Local\Temp\ccgE0nth.s:21781  .debug_str:000000000000a495 .LASF1490
C:\Users\SOLDER~1\AppData\Local\Temp\ccgE0nth.s:20765  .debug_str:00000000000061e1 .LASF1491
C:\Users\SOLDER~1\AppData\Local\Temp\ccgE0nth.s:28675  .debug_str:0000000000026512 .LASF1492
C:\Users\SOLDER~1\AppData\Local\Temp\ccgE0nth.s:25783  .debug_str:000000000001a882 .LASF1493
C:\Users\SOLDER~1\AppData\Local\Temp\ccgE0nth.s:23147  .debug_str:000000000000fddd .LASF1494
C:\Users\SOLDER~1\AppData\Local\Temp\ccgE0nth.s:28531  .debug_str:0000000000025b0f .LASF1495
C:\Users\SOLDER~1\AppData\Local\Temp\ccgE0nth.s:26131  .debug_str:000000000001becd .LASF1496
C:\Users\SOLDER~1\AppData\Local\Temp\ccgE0nth.s:26793  .debug_str:000000000001ea51 .LASF1497
C:\Users\SOLDER~1\AppData\Local\Temp\ccgE0nth.s:22371  .debug_str:000000000000cb56 .LASF1498
C:\Users\SOLDER~1\AppData\Local\Temp\ccgE0nth.s:30659  .debug_str:000000000002e59a .LASF1499
C:\Users\SOLDER~1\AppData\Local\Temp\ccgE0nth.s:29733  .debug_str:000000000002a98f .LASF1500
C:\Users\SOLDER~1\AppData\Local\Temp\ccgE0nth.s:24807  .debug_str:0000000000016984 .LASF1501
C:\Users\SOLDER~1\AppData\Local\Temp\ccgE0nth.s:19895  .debug_str:0000000000002a50 .LASF1502
C:\Users\SOLDER~1\AppData\Local\Temp\ccgE0nth.s:26307  .debug_str:000000000001ca83 .LASF1503
C:\Users\SOLDER~1\AppData\Local\Temp\ccgE0nth.s:20789  .debug_str:0000000000006362 .LASF1504
C:\Users\SOLDER~1\AppData\Local\Temp\ccgE0nth.s:26929  .debug_str:000000000001f336 .LASF1505
C:\Users\SOLDER~1\AppData\Local\Temp\ccgE0nth.s:21683  .debug_str:0000000000009dff .LASF1506
C:\Users\SOLDER~1\AppData\Local\Temp\ccgE0nth.s:21647  .debug_str:0000000000009bac .LASF1507
C:\Users\SOLDER~1\AppData\Local\Temp\ccgE0nth.s:22363  .debug_str:000000000000caca .LASF1508
C:\Users\SOLDER~1\AppData\Local\Temp\ccgE0nth.s:29307  .debug_str:0000000000028e1b .LASF1509
C:\Users\SOLDER~1\AppData\Local\Temp\ccgE0nth.s:26703  .debug_str:000000000001e41e .LASF1510
C:\Users\SOLDER~1\AppData\Local\Temp\ccgE0nth.s:24205  .debug_str:000000000001431f .LASF1511
C:\Users\SOLDER~1\AppData\Local\Temp\ccgE0nth.s:26873  .debug_str:000000000001ef61 .LASF1512
C:\Users\SOLDER~1\AppData\Local\Temp\ccgE0nth.s:26859  .debug_str:000000000001ee76 .LASF1513
C:\Users\SOLDER~1\AppData\Local\Temp\ccgE0nth.s:19763  .debug_str:0000000000002183 .LASF1514
C:\Users\SOLDER~1\AppData\Local\Temp\ccgE0nth.s:30417  .debug_str:000000000002d632 .LASF1515
C:\Users\SOLDER~1\AppData\Local\Temp\ccgE0nth.s:26555  .debug_str:000000000001da8a .LASF1516
C:\Users\SOLDER~1\AppData\Local\Temp\ccgE0nth.s:27453  .debug_str:00000000000214e0 .LASF1517
C:\Users\SOLDER~1\AppData\Local\Temp\ccgE0nth.s:25935  .debug_str:000000000001b21f .LASF1518
C:\Users\SOLDER~1\AppData\Local\Temp\ccgE0nth.s:21275  .debug_str:0000000000008357 .LASF1519
C:\Users\SOLDER~1\AppData\Local\Temp\ccgE0nth.s:30767  .debug_str:000000000002ec9d .LASF1520
C:\Users\SOLDER~1\AppData\Local\Temp\ccgE0nth.s:28273  .debug_str:00000000000249f3 .LASF1521
C:\Users\SOLDER~1\AppData\Local\Temp\ccgE0nth.s:29597  .debug_str:000000000002a134 .LASF1522
C:\Users\SOLDER~1\AppData\Local\Temp\ccgE0nth.s:20005  .debug_str:000000000000313f .LASF1523
C:\Users\SOLDER~1\AppData\Local\Temp\ccgE0nth.s:25015  .debug_str:000000000001770e .LASF1524
C:\Users\SOLDER~1\AppData\Local\Temp\ccgE0nth.s:28923  .debug_str:0000000000027561 .LASF1525
C:\Users\SOLDER~1\AppData\Local\Temp\ccgE0nth.s:19327  .debug_str:000000000000048d .LASF1526
C:\Users\SOLDER~1\AppData\Local\Temp\ccgE0nth.s:24863  .debug_str:0000000000016cfa .LASF1527
C:\Users\SOLDER~1\AppData\Local\Temp\ccgE0nth.s:22305  .debug_str:000000000000c6b6 .LASF1528
C:\Users\SOLDER~1\AppData\Local\Temp\ccgE0nth.s:23067  .debug_str:000000000000f82e .LASF1529
GAS LISTING C:\Users\SOLDER~1\AppData\Local\Temp\ccgE0nth.s 			page 54


C:\Users\SOLDER~1\AppData\Local\Temp\ccgE0nth.s:21249  .debug_str:00000000000081b7 .LASF1530
C:\Users\SOLDER~1\AppData\Local\Temp\ccgE0nth.s:27817  .debug_str:0000000000022c20 .LASF1531
C:\Users\SOLDER~1\AppData\Local\Temp\ccgE0nth.s:26005  .debug_str:000000000001b697 .LASF1532
C:\Users\SOLDER~1\AppData\Local\Temp\ccgE0nth.s:20719  .debug_str:0000000000005e9d .LASF1533
C:\Users\SOLDER~1\AppData\Local\Temp\ccgE0nth.s:22675  .debug_str:000000000000df18 .LASF1534
C:\Users\SOLDER~1\AppData\Local\Temp\ccgE0nth.s:30607  .debug_str:000000000002e24f .LASF1535
C:\Users\SOLDER~1\AppData\Local\Temp\ccgE0nth.s:25123  .debug_str:0000000000017e0a .LASF1536
C:\Users\SOLDER~1\AppData\Local\Temp\ccgE0nth.s:19649  .debug_str:0000000000001a07 .LASF1537
C:\Users\SOLDER~1\AppData\Local\Temp\ccgE0nth.s:25973  .debug_str:000000000001b4a4 .LASF1538
C:\Users\SOLDER~1\AppData\Local\Temp\ccgE0nth.s:25843  .debug_str:000000000001ac63 .LASF1539
C:\Users\SOLDER~1\AppData\Local\Temp\ccgE0nth.s:26535  .debug_str:000000000001d945 .LASF1540
C:\Users\SOLDER~1\AppData\Local\Temp\ccgE0nth.s:22047  .debug_str:000000000000b62a .LASF1541
C:\Users\SOLDER~1\AppData\Local\Temp\ccgE0nth.s:30221  .debug_str:000000000002c971 .LASF1542
C:\Users\SOLDER~1\AppData\Local\Temp\ccgE0nth.s:28357  .debug_str:0000000000024fa0 .LASF1543
C:\Users\SOLDER~1\AppData\Local\Temp\ccgE0nth.s:19603  .debug_str:0000000000001727 .LASF1544
C:\Users\SOLDER~1\AppData\Local\Temp\ccgE0nth.s:23127  .debug_str:000000000000fc81 .LASF1545
C:\Users\SOLDER~1\AppData\Local\Temp\ccgE0nth.s:27583  .debug_str:0000000000021d43 .LASF1546
C:\Users\SOLDER~1\AppData\Local\Temp\ccgE0nth.s:26657  .debug_str:000000000001e161 .LASF1547
C:\Users\SOLDER~1\AppData\Local\Temp\ccgE0nth.s:22827  .debug_str:000000000000e930 .LASF1548
C:\Users\SOLDER~1\AppData\Local\Temp\ccgE0nth.s:30473  .debug_str:000000000002d9cf .LASF1549
C:\Users\SOLDER~1\AppData\Local\Temp\ccgE0nth.s:21179  .debug_str:0000000000007ccd .LASF1550
C:\Users\SOLDER~1\AppData\Local\Temp\ccgE0nth.s:29063  .debug_str:0000000000027e74 .LASF1551
C:\Users\SOLDER~1\AppData\Local\Temp\ccgE0nth.s:27011  .debug_str:000000000001f8ce .LASF1552
C:\Users\SOLDER~1\AppData\Local\Temp\ccgE0nth.s:28639  .debug_str:0000000000026295 .LASF1553
C:\Users\SOLDER~1\AppData\Local\Temp\ccgE0nth.s:25873  .debug_str:000000000001ae6f .LASF1554
C:\Users\SOLDER~1\AppData\Local\Temp\ccgE0nth.s:27787  .debug_str:0000000000022a08 .LASF1555
C:\Users\SOLDER~1\AppData\Local\Temp\ccgE0nth.s:21231  .debug_str:0000000000008067 .LASF1556
C:\Users\SOLDER~1\AppData\Local\Temp\ccgE0nth.s:25241  .debug_str:00000000000185c0 .LASF1557
C:\Users\SOLDER~1\AppData\Local\Temp\ccgE0nth.s:27111  .debug_str:000000000001fef9 .LASF1558
C:\Users\SOLDER~1\AppData\Local\Temp\ccgE0nth.s:21089  .debug_str:0000000000007724 .LASF1559
C:\Users\SOLDER~1\AppData\Local\Temp\ccgE0nth.s:30125  .debug_str:000000000002c37f .LASF1560
C:\Users\SOLDER~1\AppData\Local\Temp\ccgE0nth.s:19335  .debug_str:000000000000050d .LASF1561
C:\Users\SOLDER~1\AppData\Local\Temp\ccgE0nth.s:26341  .debug_str:000000000001ccc5 .LASF1562
C:\Users\SOLDER~1\AppData\Local\Temp\ccgE0nth.s:23179  .debug_str:000000000000fff3 .LASF1563
C:\Users\SOLDER~1\AppData\Local\Temp\ccgE0nth.s:22257  .debug_str:000000000000c339 .LASF1564
C:\Users\SOLDER~1\AppData\Local\Temp\ccgE0nth.s:28815  .debug_str:0000000000026e3e .LASF1565
C:\Users\SOLDER~1\AppData\Local\Temp\ccgE0nth.s:25023  .debug_str:0000000000017795 .LASF1566
C:\Users\SOLDER~1\AppData\Local\Temp\ccgE0nth.s:23337  .debug_str:0000000000010a11 .LASF1567
C:\Users\SOLDER~1\AppData\Local\Temp\ccgE0nth.s:29337  .debug_str:0000000000028ffd .LASF1568
C:\Users\SOLDER~1\AppData\Local\Temp\ccgE0nth.s:23835  .debug_str:0000000000012996 .LASF1569
C:\Users\SOLDER~1\AppData\Local\Temp\ccgE0nth.s:30159  .debug_str:000000000002c58d .LASF1570
C:\Users\SOLDER~1\AppData\Local\Temp\ccgE0nth.s:30123  .debug_str:000000000002c35b .LASF1571
C:\Users\SOLDER~1\AppData\Local\Temp\ccgE0nth.s:19297  .debug_str:0000000000000280 .LASF1572
C:\Users\SOLDER~1\AppData\Local\Temp\ccgE0nth.s:26319  .debug_str:000000000001cb65 .LASF1573
C:\Users\SOLDER~1\AppData\Local\Temp\ccgE0nth.s:22935  .debug_str:000000000000efd5 .LASF1574
C:\Users\SOLDER~1\AppData\Local\Temp\ccgE0nth.s:21191  .debug_str:0000000000007dc3 .LASF1575
C:\Users\SOLDER~1\AppData\Local\Temp\ccgE0nth.s:23785  .debug_str:00000000000126be .LASF1576
C:\Users\SOLDER~1\AppData\Local\Temp\ccgE0nth.s:19391  .debug_str:0000000000000979 .LASF1577
C:\Users\SOLDER~1\AppData\Local\Temp\ccgE0nth.s:23877  .debug_str:0000000000012c91 .LASF1578
C:\Users\SOLDER~1\AppData\Local\Temp\ccgE0nth.s:22925  .debug_str:000000000000ef28 .LASF1579
C:\Users\SOLDER~1\AppData\Local\Temp\ccgE0nth.s:30569  .debug_str:000000000002dff5 .LASF1580
C:\Users\SOLDER~1\AppData\Local\Temp\ccgE0nth.s:28479  .debug_str:0000000000025756 .LASF1581
C:\Users\SOLDER~1\AppData\Local\Temp\ccgE0nth.s:30007  .debug_str:000000000002bb88 .LASF1582
C:\Users\SOLDER~1\AppData\Local\Temp\ccgE0nth.s:25385  .debug_str:0000000000018f24 .LASF1583
C:\Users\SOLDER~1\AppData\Local\Temp\ccgE0nth.s:23293  .debug_str:0000000000010708 .LASF1584
C:\Users\SOLDER~1\AppData\Local\Temp\ccgE0nth.s:24879  .debug_str:0000000000016de0 .LASF1585
C:\Users\SOLDER~1\AppData\Local\Temp\ccgE0nth.s:22129  .debug_str:000000000000bae8 .LASF1586
GAS LISTING C:\Users\SOLDER~1\AppData\Local\Temp\ccgE0nth.s 			page 55


C:\Users\SOLDER~1\AppData\Local\Temp\ccgE0nth.s:24109  .debug_str:0000000000013c90 .LASF1587
C:\Users\SOLDER~1\AppData\Local\Temp\ccgE0nth.s:29015  .debug_str:0000000000027b2b .LASF1588
C:\Users\SOLDER~1\AppData\Local\Temp\ccgE0nth.s:21457  .debug_str:0000000000008f37 .LASF1589
C:\Users\SOLDER~1\AppData\Local\Temp\ccgE0nth.s:23399  .debug_str:0000000000010de4 .LASF1590
C:\Users\SOLDER~1\AppData\Local\Temp\ccgE0nth.s:28777  .debug_str:0000000000026bea .LASF1591
C:\Users\SOLDER~1\AppData\Local\Temp\ccgE0nth.s:26365  .debug_str:000000000001ce6b .LASF1592
C:\Users\SOLDER~1\AppData\Local\Temp\ccgE0nth.s:29029  .debug_str:0000000000027c2c .LASF1593
C:\Users\SOLDER~1\AppData\Local\Temp\ccgE0nth.s:22615  .debug_str:000000000000db36 .LASF1594
C:\Users\SOLDER~1\AppData\Local\Temp\ccgE0nth.s:19443  .debug_str:0000000000000cf5 .LASF1595
C:\Users\SOLDER~1\AppData\Local\Temp\ccgE0nth.s:30073  .debug_str:000000000002c00d .LASF1596
C:\Users\SOLDER~1\AppData\Local\Temp\ccgE0nth.s:25061  .debug_str:0000000000017a07 .LASF1597
C:\Users\SOLDER~1\AppData\Local\Temp\ccgE0nth.s:27929  .debug_str:0000000000023385 .LASF1598
C:\Users\SOLDER~1\AppData\Local\Temp\ccgE0nth.s:30205  .debug_str:000000000002c861 .LASF1599
C:\Users\SOLDER~1\AppData\Local\Temp\ccgE0nth.s:24703  .debug_str:0000000000016318 .LASF1600
C:\Users\SOLDER~1\AppData\Local\Temp\ccgE0nth.s:19269  .debug_str:00000000000000e7 .LASF1601
C:\Users\SOLDER~1\AppData\Local\Temp\ccgE0nth.s:25499  .debug_str:00000000000196f0 .LASF1602
C:\Users\SOLDER~1\AppData\Local\Temp\ccgE0nth.s:25469  .debug_str:00000000000194b1 .LASF1603
C:\Users\SOLDER~1\AppData\Local\Temp\ccgE0nth.s:26153  .debug_str:000000000001c01e .LASF1604
C:\Users\SOLDER~1\AppData\Local\Temp\ccgE0nth.s:21653  .debug_str:0000000000009c0b .LASF1605
C:\Users\SOLDER~1\AppData\Local\Temp\ccgE0nth.s:29817  .debug_str:000000000002af01 .LASF1606
C:\Users\SOLDER~1\AppData\Local\Temp\ccgE0nth.s:28027  .debug_str:00000000000239bc .LASF1607
C:\Users\SOLDER~1\AppData\Local\Temp\ccgE0nth.s:30675  .debug_str:000000000002e6ba .LASF1608
C:\Users\SOLDER~1\AppData\Local\Temp\ccgE0nth.s:24187  .debug_str:00000000000141b3 .LASF1609
C:\Users\SOLDER~1\AppData\Local\Temp\ccgE0nth.s:22709  .debug_str:000000000000e186 .LASF1610
C:\Users\SOLDER~1\AppData\Local\Temp\ccgE0nth.s:26989  .debug_str:000000000001f74f .LASF1611
C:\Users\SOLDER~1\AppData\Local\Temp\ccgE0nth.s:19945  .debug_str:0000000000002d52 .LASF1612
C:\Users\SOLDER~1\AppData\Local\Temp\ccgE0nth.s:27329  .debug_str:0000000000020cd2 .LASF1613
C:\Users\SOLDER~1\AppData\Local\Temp\ccgE0nth.s:28823  .debug_str:0000000000026ec4 .LASF1614
C:\Users\SOLDER~1\AppData\Local\Temp\ccgE0nth.s:24217  .debug_str:00000000000143f3 .LASF1615
C:\Users\SOLDER~1\AppData\Local\Temp\ccgE0nth.s:21311  .debug_str:00000000000085a0 .LASF1616
C:\Users\SOLDER~1\AppData\Local\Temp\ccgE0nth.s:23693  .debug_str:00000000000120cb .LASF1617
C:\Users\SOLDER~1\AppData\Local\Temp\ccgE0nth.s:20971  .debug_str:0000000000006f8d .LASF1618
C:\Users\SOLDER~1\AppData\Local\Temp\ccgE0nth.s:22921  .debug_str:000000000000eedd .LASF1619
C:\Users\SOLDER~1\AppData\Local\Temp\ccgE0nth.s:27859  .debug_str:0000000000022ecd .LASF1620
C:\Users\SOLDER~1\AppData\Local\Temp\ccgE0nth.s:20289  .debug_str:000000000000435c .LASF1621
C:\Users\SOLDER~1\AppData\Local\Temp\ccgE0nth.s:22221  .debug_str:000000000000c0cf .LASF1622
C:\Users\SOLDER~1\AppData\Local\Temp\ccgE0nth.s:27617  .debug_str:0000000000021f67 .LASF1623
C:\Users\SOLDER~1\AppData\Local\Temp\ccgE0nth.s:25267  .debug_str:0000000000018785 .LASF1624
C:\Users\SOLDER~1\AppData\Local\Temp\ccgE0nth.s:25987  .debug_str:000000000001b57a .LASF1625
C:\Users\SOLDER~1\AppData\Local\Temp\ccgE0nth.s:21463  .debug_str:0000000000008f9c .LASF1626
C:\Users\SOLDER~1\AppData\Local\Temp\ccgE0nth.s:29827  .debug_str:000000000002afab .LASF1627
C:\Users\SOLDER~1\AppData\Local\Temp\ccgE0nth.s:28897  .debug_str:00000000000273b5 .LASF1628
C:\Users\SOLDER~1\AppData\Local\Temp\ccgE0nth.s:21425  .debug_str:0000000000008ce1 .LASF1629
C:\Users\SOLDER~1\AppData\Local\Temp\ccgE0nth.s:25531  .debug_str:0000000000019898 .LASF1630
C:\Users\SOLDER~1\AppData\Local\Temp\ccgE0nth.s:26713  .debug_str:000000000001e4cc .LASF1631
C:\Users\SOLDER~1\AppData\Local\Temp\ccgE0nth.s:28841  .debug_str:0000000000026fe5 .LASF1632
C:\Users\SOLDER~1\AppData\Local\Temp\ccgE0nth.s:23459  .debug_str:00000000000111c2 .LASF1633
C:\Users\SOLDER~1\AppData\Local\Temp\ccgE0nth.s:29751  .debug_str:000000000002aad3 .LASF1634
C:\Users\SOLDER~1\AppData\Local\Temp\ccgE0nth.s:28113  .debug_str:0000000000023f73 .LASF1635
C:\Users\SOLDER~1\AppData\Local\Temp\ccgE0nth.s:30443  .debug_str:000000000002d805 .LASF1636
C:\Users\SOLDER~1\AppData\Local\Temp\ccgE0nth.s:25941  .debug_str:000000000001b27d .LASF1637
C:\Users\SOLDER~1\AppData\Local\Temp\ccgE0nth.s:22535  .debug_str:000000000000d633 .LASF1638
C:\Users\SOLDER~1\AppData\Local\Temp\ccgE0nth.s:20693  .debug_str:0000000000005cec .LASF1639
C:\Users\SOLDER~1\AppData\Local\Temp\ccgE0nth.s:23407  .debug_str:0000000000010e69 .LASF1640
C:\Users\SOLDER~1\AppData\Local\Temp\ccgE0nth.s:26049  .debug_str:000000000001b939 .LASF1641
C:\Users\SOLDER~1\AppData\Local\Temp\ccgE0nth.s:30545  .debug_str:000000000002de8e .LASF1642
C:\Users\SOLDER~1\AppData\Local\Temp\ccgE0nth.s:29503  .debug_str:0000000000029ac0 .LASF1643
GAS LISTING C:\Users\SOLDER~1\AppData\Local\Temp\ccgE0nth.s 			page 56


C:\Users\SOLDER~1\AppData\Local\Temp\ccgE0nth.s:25683  .debug_str:000000000001a1f2 .LASF1644
C:\Users\SOLDER~1\AppData\Local\Temp\ccgE0nth.s:23605  .debug_str:0000000000011b3d .LASF1645
C:\Users\SOLDER~1\AppData\Local\Temp\ccgE0nth.s:29563  .debug_str:0000000000029ed2 .LASF1646
C:\Users\SOLDER~1\AppData\Local\Temp\ccgE0nth.s:20443  .debug_str:0000000000004d41 .LASF1647
C:\Users\SOLDER~1\AppData\Local\Temp\ccgE0nth.s:24319  .debug_str:0000000000014ad8 .LASF1648
C:\Users\SOLDER~1\AppData\Local\Temp\ccgE0nth.s:19941  .debug_str:0000000000002d11 .LASF1649
C:\Users\SOLDER~1\AppData\Local\Temp\ccgE0nth.s:28759  .debug_str:0000000000026aa9 .LASF1650
C:\Users\SOLDER~1\AppData\Local\Temp\ccgE0nth.s:30741  .debug_str:000000000002eb1a .LASF1651
C:\Users\SOLDER~1\AppData\Local\Temp\ccgE0nth.s:20053  .debug_str:0000000000003475 .LASF1652
C:\Users\SOLDER~1\AppData\Local\Temp\ccgE0nth.s:28083  .debug_str:0000000000023d6a .LASF1653
C:\Users\SOLDER~1\AppData\Local\Temp\ccgE0nth.s:30043  .debug_str:000000000002bdd7 .LASF1654
C:\Users\SOLDER~1\AppData\Local\Temp\ccgE0nth.s:23921  .debug_str:0000000000012f5b .LASF1655
C:\Users\SOLDER~1\AppData\Local\Temp\ccgE0nth.s:21487  .debug_str:000000000000913f .LASF1656
C:\Users\SOLDER~1\AppData\Local\Temp\ccgE0nth.s:24229  .debug_str:00000000000144b3 .LASF1657
C:\Users\SOLDER~1\AppData\Local\Temp\ccgE0nth.s:29251  .debug_str:0000000000028aae .LASF1658
C:\Users\SOLDER~1\AppData\Local\Temp\ccgE0nth.s:26089  .debug_str:000000000001bbce .LASF1659
C:\Users\SOLDER~1\AppData\Local\Temp\ccgE0nth.s:25213  .debug_str:0000000000018413 .LASF1660
C:\Users\SOLDER~1\AppData\Local\Temp\ccgE0nth.s:20115  .debug_str:000000000000385b .LASF1661
C:\Users\SOLDER~1\AppData\Local\Temp\ccgE0nth.s:21757  .debug_str:000000000000a301 .LASF1662
C:\Users\SOLDER~1\AppData\Local\Temp\ccgE0nth.s:27095  .debug_str:000000000001fdf9 .LASF1663
C:\Users\SOLDER~1\AppData\Local\Temp\ccgE0nth.s:21589  .debug_str:00000000000097fc .LASF1664
C:\Users\SOLDER~1\AppData\Local\Temp\ccgE0nth.s:27687  .debug_str:0000000000022371 .LASF1665
C:\Users\SOLDER~1\AppData\Local\Temp\ccgE0nth.s:22481  .debug_str:000000000000d29b .LASF1666
C:\Users\SOLDER~1\AppData\Local\Temp\ccgE0nth.s:22441  .debug_str:000000000000cffe .LASF1667
C:\Users\SOLDER~1\AppData\Local\Temp\ccgE0nth.s:23175  .debug_str:000000000000ffab .LASF1668
C:\Users\SOLDER~1\AppData\Local\Temp\ccgE0nth.s:30129  .debug_str:000000000002c3cd .LASF1669
C:\Users\SOLDER~1\AppData\Local\Temp\ccgE0nth.s:26715  .debug_str:000000000001e4f1 .LASF1670
C:\Users\SOLDER~1\AppData\Local\Temp\ccgE0nth.s:25031  .debug_str:0000000000017830 .LASF1671
C:\Users\SOLDER~1\AppData\Local\Temp\ccgE0nth.s:27631  .debug_str:0000000000022038 .LASF1672
C:\Users\SOLDER~1\AppData\Local\Temp\ccgE0nth.s:22295  .debug_str:000000000000c5f1 .LASF1673
C:\Users\SOLDER~1\AppData\Local\Temp\ccgE0nth.s:29947  .debug_str:000000000002b7b7 .LASF1674
C:\Users\SOLDER~1\AppData\Local\Temp\ccgE0nth.s:25767  .debug_str:000000000001a767 .LASF1675
C:\Users\SOLDER~1\AppData\Local\Temp\ccgE0nth.s:21927  .debug_str:000000000000ae3d .LASF1676
C:\Users\SOLDER~1\AppData\Local\Temp\ccgE0nth.s:19861  .debug_str:00000000000027eb .LASF1677
C:\Users\SOLDER~1\AppData\Local\Temp\ccgE0nth.s:21375  .debug_str:0000000000008995 .LASF1678
C:\Users\SOLDER~1\AppData\Local\Temp\ccgE0nth.s:28149  .debug_str:00000000000241d7 .LASF1679
C:\Users\SOLDER~1\AppData\Local\Temp\ccgE0nth.s:26185  .debug_str:000000000001c274 .LASF1680
C:\Users\SOLDER~1\AppData\Local\Temp\ccgE0nth.s:30235  .debug_str:000000000002ca48 .LASF1681
C:\Users\SOLDER~1\AppData\Local\Temp\ccgE0nth.s:25093  .debug_str:0000000000017c11 .LASF1682
C:\Users\SOLDER~1\AppData\Local\Temp\ccgE0nth.s:26997  .debug_str:000000000001f7dc .LASF1683
C:\Users\SOLDER~1\AppData\Local\Temp\ccgE0nth.s:20391  .debug_str:00000000000049df .LASF1684
C:\Users\SOLDER~1\AppData\Local\Temp\ccgE0nth.s:24311  .debug_str:0000000000014a52 .LASF1685
C:\Users\SOLDER~1\AppData\Local\Temp\ccgE0nth.s:26293  .debug_str:000000000001c979 .LASF1686
C:\Users\SOLDER~1\AppData\Local\Temp\ccgE0nth.s:20173  .debug_str:0000000000003c25 .LASF1687
C:\Users\SOLDER~1\AppData\Local\Temp\ccgE0nth.s:29273  .debug_str:0000000000028bf8 .LASF1688
C:\Users\SOLDER~1\AppData\Local\Temp\ccgE0nth.s:30057  .debug_str:000000000002bed9 .LASF1689
C:\Users\SOLDER~1\AppData\Local\Temp\ccgE0nth.s:25557  .debug_str:0000000000019a4a .LASF1690
C:\Users\SOLDER~1\AppData\Local\Temp\ccgE0nth.s:22339  .debug_str:000000000000c8fa .LASF1691
C:\Users\SOLDER~1\AppData\Local\Temp\ccgE0nth.s:21435  .debug_str:0000000000008da2 .LASF1692
C:\Users\SOLDER~1\AppData\Local\Temp\ccgE0nth.s:22833  .debug_str:000000000000e988 .LASF1693
C:\Users\SOLDER~1\AppData\Local\Temp\ccgE0nth.s:29581  .debug_str:000000000002a008 .LASF1694
C:\Users\SOLDER~1\AppData\Local\Temp\ccgE0nth.s:26141  .debug_str:000000000001bf55 .LASF1695
C:\Users\SOLDER~1\AppData\Local\Temp\ccgE0nth.s:25875  .debug_str:000000000001ae94 .LASF1696
C:\Users\SOLDER~1\AppData\Local\Temp\ccgE0nth.s:20433  .debug_str:0000000000004c9b .LASF1697
C:\Users\SOLDER~1\AppData\Local\Temp\ccgE0nth.s:26745  .debug_str:000000000001e71d .LASF1698
C:\Users\SOLDER~1\AppData\Local\Temp\ccgE0nth.s:26617  .debug_str:000000000001dee1 .LASF1699
C:\Users\SOLDER~1\AppData\Local\Temp\ccgE0nth.s:27331  .debug_str:0000000000020cf8 .LASF1700
GAS LISTING C:\Users\SOLDER~1\AppData\Local\Temp\ccgE0nth.s 			page 57


C:\Users\SOLDER~1\AppData\Local\Temp\ccgE0nth.s:22843  .debug_str:000000000000ea31 .LASF1701
C:\Users\SOLDER~1\AppData\Local\Temp\ccgE0nth.s:19471  .debug_str:0000000000000ec7 .LASF1702
C:\Users\SOLDER~1\AppData\Local\Temp\ccgE0nth.s:29231  .debug_str:000000000002896f .LASF1703
C:\Users\SOLDER~1\AppData\Local\Temp\ccgE0nth.s:20375  .debug_str:00000000000048f6 .LASF1704
C:\Users\SOLDER~1\AppData\Local\Temp\ccgE0nth.s:30117  .debug_str:000000000002c30b .LASF1705
C:\Users\SOLDER~1\AppData\Local\Temp\ccgE0nth.s:22963  .debug_str:000000000000f179 .LASF1706
C:\Users\SOLDER~1\AppData\Local\Temp\ccgE0nth.s:22013  .debug_str:000000000000b3bf .LASF1707
C:\Users\SOLDER~1\AppData\Local\Temp\ccgE0nth.s:29729  .debug_str:000000000002a949 .LASF1708
C:\Users\SOLDER~1\AppData\Local\Temp\ccgE0nth.s:27643  .debug_str:00000000000220f0 .LASF1709
C:\Users\SOLDER~1\AppData\Local\Temp\ccgE0nth.s:24003  .debug_str:00000000000134d6 .LASF1710
C:\Users\SOLDER~1\AppData\Local\Temp\ccgE0nth.s:24453  .debug_str:0000000000015386 .LASF1711
C:\Users\SOLDER~1\AppData\Local\Temp\ccgE0nth.s:30643  .debug_str:000000000002e4a2 .LASF1712
C:\Users\SOLDER~1\AppData\Local\Temp\ccgE0nth.s:24045  .debug_str:00000000000137bf .LASF1713
C:\Users\SOLDER~1\AppData\Local\Temp\ccgE0nth.s:21305  .debug_str:000000000000852c .LASF1714
C:\Users\SOLDER~1\AppData\Local\Temp\ccgE0nth.s:23275  .debug_str:0000000000010613 .LASF1715
C:\Users\SOLDER~1\AppData\Local\Temp\ccgE0nth.s:21063  .debug_str:000000000000758f .LASF1716
C:\Users\SOLDER~1\AppData\Local\Temp\ccgE0nth.s:19771  .debug_str:0000000000002209 .LASF1717
C:\Users\SOLDER~1\AppData\Local\Temp\ccgE0nth.s:22557  .debug_str:000000000000d783 .LASF1718
C:\Users\SOLDER~1\AppData\Local\Temp\ccgE0nth.s:27949  .debug_str:00000000000234df .LASF1719
C:\Users\SOLDER~1\AppData\Local\Temp\ccgE0nth.s:25577  .debug_str:0000000000019b97 .LASF1720
C:\Users\SOLDER~1\AppData\Local\Temp\ccgE0nth.s:26305  .debug_str:000000000001ca5d .LASF1721
C:\Users\SOLDER~1\AppData\Local\Temp\ccgE0nth.s:21783  .debug_str:000000000000a4ba .LASF1722
C:\Users\SOLDER~1\AppData\Local\Temp\ccgE0nth.s:30165  .debug_str:000000000002c5ea .LASF1723
C:\Users\SOLDER~1\AppData\Local\Temp\ccgE0nth.s:29229  .debug_str:0000000000028949 .LASF1724
C:\Users\SOLDER~1\AppData\Local\Temp\ccgE0nth.s:24211  .debug_str:0000000000014394 .LASF1725
C:\Users\SOLDER~1\AppData\Local\Temp\ccgE0nth.s:25853  .debug_str:000000000001ad44 .LASF1726
C:\Users\SOLDER~1\AppData\Local\Temp\ccgE0nth.s:22537  .debug_str:000000000000d658 .LASF1727
C:\Users\SOLDER~1\AppData\Local\Temp\ccgE0nth.s:28539  .debug_str:0000000000025b80 .LASF1728
C:\Users\SOLDER~1\AppData\Local\Temp\ccgE0nth.s:24519  .debug_str:00000000000157d4 .LASF1729
C:\Users\SOLDER~1\AppData\Local\Temp\ccgE0nth.s:29471  .debug_str:000000000002989f .LASF1730
C:\Users\SOLDER~1\AppData\Local\Temp\ccgE0nth.s:29427  .debug_str:000000000002960a .LASF1731
C:\Users\SOLDER~1\AppData\Local\Temp\ccgE0nth.s:30153  .debug_str:000000000002c51f .LASF1732
C:\Users\SOLDER~1\AppData\Local\Temp\ccgE0nth.s:25663  .debug_str:000000000001a0ba .LASF1733
C:\Users\SOLDER~1\AppData\Local\Temp\ccgE0nth.s:22161  .debug_str:000000000000bd11 .LASF1734
C:\Users\SOLDER~1\AppData\Local\Temp\ccgE0nth.s:20873  .debug_str:0000000000006936 .LASF1735
C:\Users\SOLDER~1\AppData\Local\Temp\ccgE0nth.s:23105  .debug_str:000000000000fada .LASF1736
C:\Users\SOLDER~1\AppData\Local\Temp\ccgE0nth.s:24699  .debug_str:00000000000162df .LASF1737
C:\Users\SOLDER~1\AppData\Local\Temp\ccgE0nth.s:20127  .debug_str:000000000000391f .LASF1738
C:\Users\SOLDER~1\AppData\Local\Temp\ccgE0nth.s:20679  .debug_str:0000000000005c37 .LASF1739
C:\Users\SOLDER~1\AppData\Local\Temp\ccgE0nth.s:28377  .debug_str:00000000000250df .LASF1740
C:\Users\SOLDER~1\AppData\Local\Temp\ccgE0nth.s:26249  .debug_str:000000000001c6b0 .LASF1741
C:\Users\SOLDER~1\AppData\Local\Temp\ccgE0nth.s:30101  .debug_str:000000000002c211 .LASF1742
C:\Users\SOLDER~1\AppData\Local\Temp\ccgE0nth.s:23111  .debug_str:000000000000fb3a .LASF1743
C:\Users\SOLDER~1\AppData\Local\Temp\ccgE0nth.s:21043  .debug_str:000000000000744c .LASF1744
C:\Users\SOLDER~1\AppData\Local\Temp\ccgE0nth.s:22683  .debug_str:000000000000dfa8 .LASF1745
C:\Users\SOLDER~1\AppData\Local\Temp\ccgE0nth.s:28017  .debug_str:0000000000023948 .LASF1746
C:\Users\SOLDER~1\AppData\Local\Temp\ccgE0nth.s:21833  .debug_str:000000000000a841 .LASF1747
C:\Users\SOLDER~1\AppData\Local\Temp\ccgE0nth.s:26785  .debug_str:000000000001e9cf .LASF1748
C:\Users\SOLDER~1\AppData\Local\Temp\ccgE0nth.s:30783  .debug_str:000000000002ed9e .LASF1749
C:\Users\SOLDER~1\AppData\Local\Temp\ccgE0nth.s:21149  .debug_str:0000000000007ad1 .LASF1750
C:\Users\SOLDER~1\AppData\Local\Temp\ccgE0nth.s:26643  .debug_str:000000000001e068 .LASF1751
C:\Users\SOLDER~1\AppData\Local\Temp\ccgE0nth.s:24155  .debug_str:0000000000013fad .LASF1752
C:\Users\SOLDER~1\AppData\Local\Temp\ccgE0nth.s:24929  .debug_str:0000000000017148 .LASF1753
C:\Users\SOLDER~1\AppData\Local\Temp\ccgE0nth.s:20361  .debug_str:0000000000004807 .LASF1754
C:\Users\SOLDER~1\AppData\Local\Temp\ccgE0nth.s:28707  .debug_str:0000000000026716 .LASF1755
C:\Users\SOLDER~1\AppData\Local\Temp\ccgE0nth.s:27795  .debug_str:0000000000022aab .LASF1756
C:\Users\SOLDER~1\AppData\Local\Temp\ccgE0nth.s:22857  .debug_str:000000000000eb11 .LASF1757
GAS LISTING C:\Users\SOLDER~1\AppData\Local\Temp\ccgE0nth.s 			page 58


C:\Users\SOLDER~1\AppData\Local\Temp\ccgE0nth.s:24533  .debug_str:000000000001588a .LASF1758
C:\Users\SOLDER~1\AppData\Local\Temp\ccgE0nth.s:26815  .debug_str:000000000001ebb0 .LASF1759
C:\Users\SOLDER~1\AppData\Local\Temp\ccgE0nth.s:21299  .debug_str:00000000000084d2 .LASF1760
C:\Users\SOLDER~1\AppData\Local\Temp\ccgE0nth.s:27403  .debug_str:00000000000211d1 .LASF1761
C:\Users\SOLDER~1\AppData\Local\Temp\ccgE0nth.s:22185  .debug_str:000000000000be84 .LASF1762
C:\Users\SOLDER~1\AppData\Local\Temp\ccgE0nth.s:19799  .debug_str:00000000000023ea .LASF1763
C:\Users\SOLDER~1\AppData\Local\Temp\ccgE0nth.s:22775  .debug_str:000000000000e5ee .LASF1764
C:\Users\SOLDER~1\AppData\Local\Temp\ccgE0nth.s:23639  .debug_str:0000000000011d91 .LASF1765
C:\Users\SOLDER~1\AppData\Local\Temp\ccgE0nth.s:26425  .debug_str:000000000001d282 .LASF1766
C:\Users\SOLDER~1\AppData\Local\Temp\ccgE0nth.s:24719  .debug_str:0000000000016433 .LASF1767
C:\Users\SOLDER~1\AppData\Local\Temp\ccgE0nth.s:27361  .debug_str:0000000000020ee5 .LASF1768
C:\Users\SOLDER~1\AppData\Local\Temp\ccgE0nth.s:24995  .debug_str:00000000000175be .LASF1769
C:\Users\SOLDER~1\AppData\Local\Temp\ccgE0nth.s:29445  .debug_str:0000000000029714 .LASF1770
C:\Users\SOLDER~1\AppData\Local\Temp\ccgE0nth.s:28477  .debug_str:0000000000025731 .LASF1771
C:\Users\SOLDER~1\AppData\Local\Temp\ccgE0nth.s:24695  .debug_str:000000000001629f .LASF1772
C:\Users\SOLDER~1\AppData\Local\Temp\ccgE0nth.s:22513  .debug_str:000000000000d4b8 .LASF1773
C:\Users\SOLDER~1\AppData\Local\Temp\ccgE0nth.s:24039  .debug_str:0000000000013751 .LASF1774
C:\Users\SOLDER~1\AppData\Local\Temp\ccgE0nth.s:19379  .debug_str:0000000000000874 .LASF1775
C:\Users\SOLDER~1\AppData\Local\Temp\ccgE0nth.s:28821  .debug_str:0000000000026e9f .LASF1776
C:\Users\SOLDER~1\AppData\Local\Temp\ccgE0nth.s:30511  .debug_str:000000000002dc50 .LASF1777
C:\Users\SOLDER~1\AppData\Local\Temp\ccgE0nth.s:27661  .debug_str:00000000000221f4 .LASF1778
C:\Users\SOLDER~1\AppData\Local\Temp\ccgE0nth.s:27081  .debug_str:000000000001fd1d .LASF1779
C:\Users\SOLDER~1\AppData\Local\Temp\ccgE0nth.s:23057  .debug_str:000000000000f775 .LASF1780
C:\Users\SOLDER~1\AppData\Local\Temp\ccgE0nth.s:27023  .debug_str:000000000001f97b .LASF1781
C:\Users\SOLDER~1\AppData\Local\Temp\ccgE0nth.s:28929  .debug_str:00000000000275c9 .LASF1782
C:\Users\SOLDER~1\AppData\Local\Temp\ccgE0nth.s:22911  .debug_str:000000000000ee40 .LASF1783
C:\Users\SOLDER~1\AppData\Local\Temp\ccgE0nth.s:20379  .debug_str:0000000000004935 .LASF1784
C:\Users\SOLDER~1\AppData\Local\Temp\ccgE0nth.s:21157  .debug_str:0000000000007b5f .LASF1785
C:\Users\SOLDER~1\AppData\Local\Temp\ccgE0nth.s:28155  .debug_str:000000000002423e .LASF1786
C:\Users\SOLDER~1\AppData\Local\Temp\ccgE0nth.s:25051  .debug_str:0000000000017945 .LASF1787
C:\Users\SOLDER~1\AppData\Local\Temp\ccgE0nth.s:24115  .debug_str:0000000000013cf4 .LASF1788
C:\Users\SOLDER~1\AppData\Local\Temp\ccgE0nth.s:30683  .debug_str:000000000002e73f .LASF1789
C:\Users\SOLDER~1\AppData\Local\Temp\ccgE0nth.s:20675  .debug_str:0000000000005bee .LASF1790
C:\Users\SOLDER~1\AppData\Local\Temp\ccgE0nth.s:19557  .debug_str:000000000000143a .LASF1791
C:\Users\SOLDER~1\AppData\Local\Temp\ccgE0nth.s:25599  .debug_str:0000000000019cc1 .LASF1792
C:\Users\SOLDER~1\AppData\Local\Temp\ccgE0nth.s:20153  .debug_str:0000000000003ad6 .LASF1793
C:\Users\SOLDER~1\AppData\Local\Temp\ccgE0nth.s:26369  .debug_str:000000000001cebc .LASF1794
C:\Users\SOLDER~1\AppData\Local\Temp\ccgE0nth.s:26333  .debug_str:000000000001cc40 .LASF1795
C:\Users\SOLDER~1\AppData\Local\Temp\ccgE0nth.s:27047  .debug_str:000000000001fb01 .LASF1796
C:\Users\SOLDER~1\AppData\Local\Temp\ccgE0nth.s:23385  .debug_str:0000000000010ce5 .LASF1797
C:\Users\SOLDER~1\AppData\Local\Temp\ccgE0nth.s:30723  .debug_str:000000000002e9fd .LASF1798
C:\Users\SOLDER~1\AppData\Local\Temp\ccgE0nth.s:28941  .debug_str:0000000000027698 .LASF1799
C:\Users\SOLDER~1\AppData\Local\Temp\ccgE0nth.s:20099  .debug_str:0000000000003752 .LASF1800
C:\Users\SOLDER~1\AppData\Local\Temp\ccgE0nth.s:21215  .debug_str:0000000000007f51 .LASF1801
C:\Users\SOLDER~1\AppData\Local\Temp\ccgE0nth.s:26921  .debug_str:000000000001f2af .LASF1802
C:\Users\SOLDER~1\AppData\Local\Temp\ccgE0nth.s:24797  .debug_str:00000000000168d8 .LASF1803
C:\Users\SOLDER~1\AppData\Local\Temp\ccgE0nth.s:20827  .debug_str:00000000000065e6 .LASF1804
C:\Users\SOLDER~1\AppData\Local\Temp\ccgE0nth.s:30333  .debug_str:000000000002d102 .LASF1805
C:\Users\SOLDER~1\AppData\Local\Temp\ccgE0nth.s:20259  .debug_str:0000000000004188 .LASF1806
C:\Users\SOLDER~1\AppData\Local\Temp\ccgE0nth.s:27159  .debug_str:0000000000020204 .LASF1807
C:\Users\SOLDER~1\AppData\Local\Temp\ccgE0nth.s:25003  .debug_str:000000000001763f .LASF1808
C:\Users\SOLDER~1\AppData\Local\Temp\ccgE0nth.s:26659  .debug_str:000000000001e186 .LASF1809
C:\Users\SOLDER~1\AppData\Local\Temp\ccgE0nth.s:23969  .debug_str:0000000000013296 .LASF1810
C:\Users\SOLDER~1\AppData\Local\Temp\ccgE0nth.s:25915  .debug_str:000000000001b0dc .LASF1811
C:\Users\SOLDER~1\AppData\Local\Temp\ccgE0nth.s:19329  .debug_str:00000000000004b2 .LASF1812
C:\Users\SOLDER~1\AppData\Local\Temp\ccgE0nth.s:23305  .debug_str:00000000000107d2 .LASF1813
C:\Users\SOLDER~1\AppData\Local\Temp\ccgE0nth.s:25251  .debug_str:0000000000018673 .LASF1814
GAS LISTING C:\Users\SOLDER~1\AppData\Local\Temp\ccgE0nth.s 			page 59


C:\Users\SOLDER~1\AppData\Local\Temp\ccgE0nth.s:30649  .debug_str:000000000002e504 .LASF1815
C:\Users\SOLDER~1\AppData\Local\Temp\ccgE0nth.s:26609  .debug_str:000000000001de4e .LASF1816
C:\Users\SOLDER~1\AppData\Local\Temp\ccgE0nth.s:29401  .debug_str:0000000000029444 .LASF1817
C:\Users\SOLDER~1\AppData\Local\Temp\ccgE0nth.s:24465  .debug_str:0000000000015437 .LASF1818
C:\Users\SOLDER~1\AppData\Local\Temp\ccgE0nth.s:21259  .debug_str:0000000000008254 .LASF1819
C:\Users\SOLDER~1\AppData\Local\Temp\ccgE0nth.s:20331  .debug_str:0000000000004600 .LASF1820
C:\Users\SOLDER~1\AppData\Local\Temp\ccgE0nth.s:26831  .debug_str:000000000001ecb5 .LASF1821
C:\Users\SOLDER~1\AppData\Local\Temp\ccgE0nth.s:28473  .debug_str:00000000000256ea .LASF1822
C:\Users\SOLDER~1\AppData\Local\Temp\ccgE0nth.s:23819  .debug_str:00000000000128ac .LASF1823
C:\Users\SOLDER~1\AppData\Local\Temp\ccgE0nth.s:29761  .debug_str:000000000002ab8c .LASF1824
C:\Users\SOLDER~1\AppData\Local\Temp\ccgE0nth.s:24365  .debug_str:0000000000014ddd .LASF1825
C:\Users\SOLDER~1\AppData\Local\Temp\ccgE0nth.s:30669  .debug_str:000000000002e63e .LASF1826
C:\Users\SOLDER~1\AppData\Local\Temp\ccgE0nth.s:29081  .debug_str:0000000000027fae .LASF1827
C:\Users\SOLDER~1\AppData\Local\Temp\ccgE0nth.s:19777  .debug_str:0000000000002277 .LASF1828
C:\Users\SOLDER~1\AppData\Local\Temp\ccgE0nth.s:26823  .debug_str:000000000001ec2d .LASF1829
C:\Users\SOLDER~1\AppData\Local\Temp\ccgE0nth.s:21651  .debug_str:0000000000009be7 .LASF1830
C:\Users\SOLDER~1\AppData\Local\Temp\ccgE0nth.s:21603  .debug_str:00000000000098cd .LASF1831
C:\Users\SOLDER~1\AppData\Local\Temp\ccgE0nth.s:24313  .debug_str:0000000000014a78 .LASF1832
C:\Users\SOLDER~1\AppData\Local\Temp\ccgE0nth.s:28997  .debug_str:00000000000279f4 .LASF1833
C:\Users\SOLDER~1\AppData\Local\Temp\ccgE0nth.s:21957  .debug_str:000000000000b05f .LASF1834
C:\Users\SOLDER~1\AppData\Local\Temp\ccgE0nth.s:20921  .debug_str:0000000000006c20 .LASF1835
C:\Users\SOLDER~1\AppData\Local\Temp\ccgE0nth.s:28615  .debug_str:00000000000260d8 .LASF1836
C:\Users\SOLDER~1\AppData\Local\Temp\ccgE0nth.s:26573  .debug_str:000000000001dbbc .LASF1837
C:\Users\SOLDER~1\AppData\Local\Temp\ccgE0nth.s:27475  .debug_str:0000000000021658 .LASF1838
C:\Users\SOLDER~1\AppData\Local\Temp\ccgE0nth.s:23453  .debug_str:000000000001115c .LASF1839
C:\Users\SOLDER~1\AppData\Local\Temp\ccgE0nth.s:22239  .debug_str:000000000000c1fc .LASF1840
C:\Users\SOLDER~1\AppData\Local\Temp\ccgE0nth.s:22929  .debug_str:000000000000ef6d .LASF1841
C:\Users\SOLDER~1\AppData\Local\Temp\ccgE0nth.s:20199  .debug_str:0000000000003dc4 .LASF1842
C:\Users\SOLDER~1\AppData\Local\Temp\ccgE0nth.s:22169  .debug_str:000000000000bd9a .LASF1843
C:\Users\SOLDER~1\AppData\Local\Temp\ccgE0nth.s:27115  .debug_str:000000000001ff3a .LASF1844
C:\Users\SOLDER~1\AppData\Local\Temp\ccgE0nth.s:19561  .debug_str:000000000000147e .LASF1845
C:\Users\SOLDER~1\AppData\Local\Temp\ccgE0nth.s:21471  .debug_str:000000000000902a .LASF1846
C:\Users\SOLDER~1\AppData\Local\Temp\ccgE0nth.s:26899  .debug_str:000000000001f12d .LASF1847
C:\Users\SOLDER~1\AppData\Local\Temp\ccgE0nth.s:24479  .debug_str:0000000000015537 .LASF1848
C:\Users\SOLDER~1\AppData\Local\Temp\ccgE0nth.s:25263  .debug_str:0000000000018740 .LASF1849
C:\Users\SOLDER~1\AppData\Local\Temp\ccgE0nth.s:20701  .debug_str:0000000000005d86 .LASF1850
C:\Users\SOLDER~1\AppData\Local\Temp\ccgE0nth.s:29041  .debug_str:0000000000027d15 .LASF1851
C:\Users\SOLDER~1\AppData\Local\Temp\ccgE0nth.s:28131  .debug_str:000000000002408c .LASF1852
C:\Users\SOLDER~1\AppData\Local\Temp\ccgE0nth.s:29331  .debug_str:0000000000028f89 .LASF1853
C:\Users\SOLDER~1\AppData\Local\Temp\ccgE0nth.s:24791  .debug_str:0000000000016878 .LASF1854
C:\Users\SOLDER~1\AppData\Local\Temp\ccgE0nth.s:27969  .debug_str:0000000000023632 .LASF1855
C:\Users\SOLDER~1\AppData\Local\Temp\ccgE0nth.s:25625  .debug_str:0000000000019e3e .LASF1856
C:\Users\SOLDER~1\AppData\Local\Temp\ccgE0nth.s:28589  .debug_str:0000000000025f13 .LASF1857
C:\Users\SOLDER~1\AppData\Local\Temp\ccgE0nth.s:23401  .debug_str:0000000000010e09 .LASF1858
C:\Users\SOLDER~1\AppData\Local\Temp\ccgE0nth.s:23369  .debug_str:0000000000010bee .LASF1859
C:\Users\SOLDER~1\AppData\Local\Temp\ccgE0nth.s:30247  .debug_str:000000000002cb03 .LASF1860
C:\Users\SOLDER~1\AppData\Local\Temp\ccgE0nth.s:21943  .debug_str:000000000000af66 .LASF1861
C:\Users\SOLDER~1\AppData\Local\Temp\ccgE0nth.s:27597  .debug_str:0000000000021e23 .LASF1862
C:\Users\SOLDER~1\AppData\Local\Temp\ccgE0nth.s:25889  .debug_str:000000000001af7b .LASF1863
C:\Users\SOLDER~1\AppData\Local\Temp\ccgE0nth.s:28533  .debug_str:0000000000025b34 .LASF1864
C:\Users\SOLDER~1\AppData\Local\Temp\ccgE0nth.s:25321  .debug_str:0000000000018af0 .LASF1865
C:\Users\SOLDER~1\AppData\Local\Temp\ccgE0nth.s:29769  .debug_str:000000000002ac13 .LASF1866
C:\Users\SOLDER~1\AppData\Local\Temp\ccgE0nth.s:28713  .debug_str:0000000000026789 .LASF1867
C:\Users\SOLDER~1\AppData\Local\Temp\ccgE0nth.s:24941  .debug_str:0000000000017218 .LASF1868
C:\Users\SOLDER~1\AppData\Local\Temp\ccgE0nth.s:22845  .debug_str:000000000000ea56 .LASF1869
C:\Users\SOLDER~1\AppData\Local\Temp\ccgE0nth.s:24371  .debug_str:0000000000014e45 .LASF1870
C:\Users\SOLDER~1\AppData\Local\Temp\ccgE0nth.s:19611  .debug_str:00000000000017b3 .LASF1871
GAS LISTING C:\Users\SOLDER~1\AppData\Local\Temp\ccgE0nth.s 			page 60


C:\Users\SOLDER~1\AppData\Local\Temp\ccgE0nth.s:29159  .debug_str:00000000000284bd .LASF1872
C:\Users\SOLDER~1\AppData\Local\Temp\ccgE0nth.s:28135  .debug_str:00000000000240de .LASF1873
C:\Users\SOLDER~1\AppData\Local\Temp\ccgE0nth.s:27983  .debug_str:0000000000023728 .LASF1874
C:\Users\SOLDER~1\AppData\Local\Temp\ccgE0nth.s:29985  .debug_str:000000000002ba1a .LASF1875
C:\Users\SOLDER~1\AppData\Local\Temp\ccgE0nth.s:27533  .debug_str:00000000000219fe .LASF1876
C:\Users\SOLDER~1\AppData\Local\Temp\ccgE0nth.s:26273  .debug_str:000000000001c821 .LASF1877
C:\Users\SOLDER~1\AppData\Local\Temp\ccgE0nth.s:29259  .debug_str:0000000000028b2e .LASF1878
C:\Users\SOLDER~1\AppData\Local\Temp\ccgE0nth.s:27939  .debug_str:0000000000023438 .LASF1879
C:\Users\SOLDER~1\AppData\Local\Temp\ccgE0nth.s:20721  .debug_str:0000000000005ec2 .LASF1880
C:\Users\SOLDER~1\AppData\Local\Temp\ccgE0nth.s:21483  .debug_str:00000000000090f8 .LASF1881
C:\Users\SOLDER~1\AppData\Local\Temp\ccgE0nth.s:28489  .debug_str:000000000002580c .LASF1882
C:\Users\SOLDER~1\AppData\Local\Temp\ccgE0nth.s:25363  .debug_str:0000000000018da1 .LASF1883
C:\Users\SOLDER~1\AppData\Local\Temp\ccgE0nth.s:19525  .debug_str:000000000000122a .LASF1884
C:\Users\SOLDER~1\AppData\Local\Temp\ccgE0nth.s:19373  .debug_str:0000000000000815 .LASF1885
C:\Users\SOLDER~1\AppData\Local\Temp\ccgE0nth.s:21019  .debug_str:00000000000072ae .LASF1886
C:\Users\SOLDER~1\AppData\Local\Temp\ccgE0nth.s:20733  .debug_str:0000000000005f86 .LASF1887
C:\Users\SOLDER~1\AppData\Local\Temp\ccgE0nth.s:26753  .debug_str:000000000001e7ac .LASF1888
C:\Users\SOLDER~1\AppData\Local\Temp\ccgE0nth.s:21351  .debug_str:0000000000008820 .LASF1889
C:\Users\SOLDER~1\AppData\Local\Temp\ccgE0nth.s:27625  .debug_str:0000000000021fd9 .LASF1890
C:\Users\SOLDER~1\AppData\Local\Temp\ccgE0nth.s:27591  .debug_str:0000000000021db2 .LASF1891
C:\Users\SOLDER~1\AppData\Local\Temp\ccgE0nth.s:28217  .debug_str:000000000002465b .LASF1892
C:\Users\SOLDER~1\AppData\Local\Temp\ccgE0nth.s:23747  .debug_str:0000000000012426 .LASF1893
C:\Users\SOLDER~1\AppData\Local\Temp\ccgE0nth.s:20341  .debug_str:00000000000046ac .LASF1894
C:\Users\SOLDER~1\AppData\Local\Temp\ccgE0nth.s:30163  .debug_str:000000000002c5c6 .LASF1895
C:\Users\SOLDER~1\AppData\Local\Temp\ccgE0nth.s:21291  .debug_str:000000000000845f .LASF1896
C:\Users\SOLDER~1\AppData\Local\Temp\ccgE0nth.s:21539  .debug_str:00000000000094d0 .LASF1897
C:\Users\SOLDER~1\AppData\Local\Temp\ccgE0nth.s:25951  .debug_str:000000000001b329 .LASF1898
C:\Users\SOLDER~1\AppData\Local\Temp\ccgE0nth.s:25053  .debug_str:000000000001796a .LASF1899
C:\Users\SOLDER~1\AppData\Local\Temp\ccgE0nth.s:21169  .debug_str:0000000000007c35 .LASF1900
C:\Users\SOLDER~1\AppData\Local\Temp\ccgE0nth.s:30671  .debug_str:000000000002e662 .LASF1901
C:\Users\SOLDER~1\AppData\Local\Temp\ccgE0nth.s:20599  .debug_str:0000000000005693 .LASF1902
C:\Users\SOLDER~1\AppData\Local\Temp\ccgE0nth.s:30269  .debug_str:000000000002cc70 .LASF1903
C:\Users\SOLDER~1\AppData\Local\Temp\ccgE0nth.s:25467  .debug_str:000000000001948c .LASF1904
C:\Users\SOLDER~1\AppData\Local\Temp\ccgE0nth.s:27003  .debug_str:000000000001f849 .LASF1905
C:\Users\SOLDER~1\AppData\Local\Temp\ccgE0nth.s:24307  .debug_str:00000000000149f6 .LASF1906
C:\Users\SOLDER~1\AppData\Local\Temp\ccgE0nth.s:26227  .debug_str:000000000001c50d .LASF1907
C:\Users\SOLDER~1\AppData\Local\Temp\ccgE0nth.s:19643  .debug_str:00000000000019a3 .LASF1908
C:\Users\SOLDER~1\AppData\Local\Temp\ccgE0nth.s:29249  .debug_str:0000000000028a89 .LASF1909
C:\Users\SOLDER~1\AppData\Local\Temp\ccgE0nth.s:25565  .debug_str:0000000000019acc .LASF1910
C:\Users\SOLDER~1\AppData\Local\Temp\ccgE0nth.s:19429  .debug_str:0000000000000c00 .LASF1911
C:\Users\SOLDER~1\AppData\Local\Temp\ccgE0nth.s:28507  .debug_str:0000000000025965 .LASF1912
C:\Users\SOLDER~1\AppData\Local\Temp\ccgE0nth.s:29271  .debug_str:0000000000028bd3 .LASF1913
C:\Users\SOLDER~1\AppData\Local\Temp\ccgE0nth.s:24815  .debug_str:0000000000016a12 .LASF1914
C:\Users\SOLDER~1\AppData\Local\Temp\ccgE0nth.s:30035  .debug_str:000000000002bd59 .LASF1915
C:\Users\SOLDER~1\AppData\Local\Temp\ccgE0nth.s:20669  .debug_str:0000000000005b81 .LASF1916
C:\Users\SOLDER~1\AppData\Local\Temp\ccgE0nth.s:27155  .debug_str:00000000000201cc .LASF1917
C:\Users\SOLDER~1\AppData\Local\Temp\ccgE0nth.s:25737  .debug_str:000000000001a561 .LASF1918
C:\Users\SOLDER~1\AppData\Local\Temp\ccgE0nth.s:25063  .debug_str:0000000000017a2c .LASF1919
C:\Users\SOLDER~1\AppData\Local\Temp\ccgE0nth.s:19513  .debug_str:0000000000001167 .LASF1920
C:\Users\SOLDER~1\AppData\Local\Temp\ccgE0nth.s:25645  .debug_str:0000000000019f81 .LASF1921
C:\Users\SOLDER~1\AppData\Local\Temp\ccgE0nth.s:20277  .debug_str:00000000000042b5 .LASF1922
C:\Users\SOLDER~1\AppData\Local\Temp\ccgE0nth.s:20243  .debug_str:0000000000004077 .LASF1923
C:\Users\SOLDER~1\AppData\Local\Temp\ccgE0nth.s:27951  .debug_str:0000000000023505 .LASF1924
C:\Users\SOLDER~1\AppData\Local\Temp\ccgE0nth.s:27981  .debug_str:0000000000023704 .LASF1925
C:\Users\SOLDER~1\AppData\Local\Temp\ccgE0nth.s:24661  .debug_str:0000000000016083 .LASF1926
C:\Users\SOLDER~1\AppData\Local\Temp\ccgE0nth.s:22881  .debug_str:000000000000ec57 .LASF1927
C:\Users\SOLDER~1\AppData\Local\Temp\ccgE0nth.s:29049  .debug_str:0000000000027d9b .LASF1928
GAS LISTING C:\Users\SOLDER~1\AppData\Local\Temp\ccgE0nth.s 			page 61


C:\Users\SOLDER~1\AppData\Local\Temp\ccgE0nth.s:29237  .debug_str:00000000000289d5 .LASF1929
C:\Users\SOLDER~1\AppData\Local\Temp\ccgE0nth.s:22195  .debug_str:000000000000bf11 .LASF1930
C:\Users\SOLDER~1\AppData\Local\Temp\ccgE0nth.s:21263  .debug_str:0000000000008294 .LASF1931
C:\Users\SOLDER~1\AppData\Local\Temp\ccgE0nth.s:29847  .debug_str:000000000002b145 .LASF1932
C:\Users\SOLDER~1\AppData\Local\Temp\ccgE0nth.s:22645  .debug_str:000000000000dd3d .LASF1933
C:\Users\SOLDER~1\AppData\Local\Temp\ccgE0nth.s:28393  .debug_str:00000000000251ca .LASF1934
C:\Users\SOLDER~1\AppData\Local\Temp\ccgE0nth.s:19259  .debug_str:0000000000000023 .LASF1935
C:\Users\SOLDER~1\AppData\Local\Temp\ccgE0nth.s:21689  .debug_str:0000000000009e53 .LASF1936
C:\Users\SOLDER~1\AppData\Local\Temp\ccgE0nth.s:23281  .debug_str:000000000001066b .LASF1937
C:\Users\SOLDER~1\AppData\Local\Temp\ccgE0nth.s:20527  .debug_str:000000000000524f .LASF1938
C:\Users\SOLDER~1\AppData\Local\Temp\ccgE0nth.s:22495  .debug_str:000000000000d384 .LASF1939
C:\Users\SOLDER~1\AppData\Local\Temp\ccgE0nth.s:27349  .debug_str:0000000000020e12 .LASF1940
C:\Users\SOLDER~1\AppData\Local\Temp\ccgE0nth.s:19783  .debug_str:00000000000022d5 .LASF1941
C:\Users\SOLDER~1\AppData\Local\Temp\ccgE0nth.s:25099  .debug_str:0000000000017c77 .LASF1942
C:\Users\SOLDER~1\AppData\Local\Temp\ccgE0nth.s:27201  .debug_str:00000000000204a2 .LASF1943
C:\Users\SOLDER~1\AppData\Local\Temp\ccgE0nth.s:29225  .debug_str:0000000000028908 .LASF1944
C:\Users\SOLDER~1\AppData\Local\Temp\ccgE0nth.s:25487  .debug_str:00000000000195e3 .LASF1945
C:\Users\SOLDER~1\AppData\Local\Temp\ccgE0nth.s:21045  .debug_str:0000000000007471 .LASF1946
C:\Users\SOLDER~1\AppData\Local\Temp\ccgE0nth.s:29395  .debug_str:00000000000293d5 .LASF1947
C:\Users\SOLDER~1\AppData\Local\Temp\ccgE0nth.s:28371  .debug_str:000000000002508e .LASF1948
C:\Users\SOLDER~1\AppData\Local\Temp\ccgE0nth.s:26739  .debug_str:000000000001e6b4 .LASF1949
C:\Users\SOLDER~1\AppData\Local\Temp\ccgE0nth.s:25133  .debug_str:0000000000017ec8 .LASF1950
C:\Users\SOLDER~1\AppData\Local\Temp\ccgE0nth.s:22679  .debug_str:000000000000df63 .LASF1951
C:\Users\SOLDER~1\AppData\Local\Temp\ccgE0nth.s:23685  .debug_str:0000000000012050 .LASF1952
C:\Users\SOLDER~1\AppData\Local\Temp\ccgE0nth.s:29809  .debug_str:000000000002ae6b .LASF1953
C:\Users\SOLDER~1\AppData\Local\Temp\ccgE0nth.s:24603  .debug_str:0000000000015cc5 .LASF1954
C:\Users\SOLDER~1\AppData\Local\Temp\ccgE0nth.s:24561  .debug_str:0000000000015a2b .LASF1955
C:\Users\SOLDER~1\AppData\Local\Temp\ccgE0nth.s:25295  .debug_str:0000000000018924 .LASF1956
C:\Users\SOLDER~1\AppData\Local\Temp\ccgE0nth.s:28141  .debug_str:0000000000024140 .LASF1957
C:\Users\SOLDER~1\AppData\Local\Temp\ccgE0nth.s:28885  .debug_str:00000000000272d7 .LASF1958
C:\Users\SOLDER~1\AppData\Local\Temp\ccgE0nth.s:27055  .debug_str:000000000001fb85 .LASF1959
C:\Users\SOLDER~1\AppData\Local\Temp\ccgE0nth.s:29753  .debug_str:000000000002aaf8 .LASF1960
C:\Users\SOLDER~1\AppData\Local\Temp\ccgE0nth.s:25541  .debug_str:0000000000019941 .LASF1961
C:\Users\SOLDER~1\AppData\Local\Temp\ccgE0nth.s:28551  .debug_str:0000000000025c5f .LASF1962
C:\Users\SOLDER~1\AppData\Local\Temp\ccgE0nth.s:29043  .debug_str:0000000000027d3a .LASF1963
C:\Users\SOLDER~1\AppData\Local\Temp\ccgE0nth.s:25281  .debug_str:000000000001883d .LASF1964
C:\Users\SOLDER~1\AppData\Local\Temp\ccgE0nth.s:25665  .debug_str:000000000001a0de .LASF1965
C:\Users\SOLDER~1\AppData\Local\Temp\ccgE0nth.s:24709  .debug_str:0000000000016392 .LASF1966
C:\Users\SOLDER~1\AppData\Local\Temp\ccgE0nth.s:19929  .debug_str:0000000000002c37 .LASF1967
C:\Users\SOLDER~1\AppData\Local\Temp\ccgE0nth.s:29511  .debug_str:0000000000029b34 .LASF1968
C:\Users\SOLDER~1\AppData\Local\Temp\ccgE0nth.s:20071  .debug_str:0000000000003598 .LASF1969
C:\Users\SOLDER~1\AppData\Local\Temp\ccgE0nth.s:28327  .debug_str:0000000000024d9a .LASF1970
C:\Users\SOLDER~1\AppData\Local\Temp\ccgE0nth.s:30311  .debug_str:000000000002cf4d .LASF1971
C:\Users\SOLDER~1\AppData\Local\Temp\ccgE0nth.s:23627  .debug_str:0000000000011cbb .LASF1972
C:\Users\SOLDER~1\AppData\Local\Temp\ccgE0nth.s:27571  .debug_str:0000000000021c62 .LASF1973
C:\Users\SOLDER~1\AppData\Local\Temp\ccgE0nth.s:29605  .debug_str:000000000002a19e .LASF1974
C:\Users\SOLDER~1\AppData\Local\Temp\ccgE0nth.s:23497  .debug_str:0000000000011419 .LASF1975
C:\Users\SOLDER~1\AppData\Local\Temp\ccgE0nth.s:21065  .debug_str:00000000000075b5 .LASF1976
C:\Users\SOLDER~1\AppData\Local\Temp\ccgE0nth.s:21713  .debug_str:000000000000a007 .LASF1977
C:\Users\SOLDER~1\AppData\Local\Temp\ccgE0nth.s:19425  .debug_str:0000000000000bb8 .LASF1978
C:\Users\SOLDER~1\AppData\Local\Temp\ccgE0nth.s:25589  .debug_str:0000000000019c45 .LASF1979
C:\Users\SOLDER~1\AppData\Local\Temp\ccgE0nth.s:24689  .debug_str:000000000001623c .LASF1980
C:\Users\SOLDER~1\AppData\Local\Temp\ccgE0nth.s:19691  .debug_str:0000000000001cf8 .LASF1981
C:\Users\SOLDER~1\AppData\Local\Temp\ccgE0nth.s:21353  .debug_str:0000000000008844 .LASF1982
C:\Users\SOLDER~1\AppData\Local\Temp\ccgE0nth.s:21929  .debug_str:000000000000ae63 .LASF1983
C:\Users\SOLDER~1\AppData\Local\Temp\ccgE0nth.s:27927  .debug_str:0000000000023361 .LASF1984
C:\Users\SOLDER~1\AppData\Local\Temp\ccgE0nth.s:23615  .debug_str:0000000000011be7 .LASF1985
GAS LISTING C:\Users\SOLDER~1\AppData\Local\Temp\ccgE0nth.s 			page 62


C:\Users\SOLDER~1\AppData\Local\Temp\ccgE0nth.s:28825  .debug_str:0000000000026eea .LASF1986
C:\Users\SOLDER~1\AppData\Local\Temp\ccgE0nth.s:28783  .debug_str:0000000000026c2b .LASF1987
C:\Users\SOLDER~1\AppData\Local\Temp\ccgE0nth.s:29535  .debug_str:0000000000029cfe .LASF1988
C:\Users\SOLDER~1\AppData\Local\Temp\ccgE0nth.s:20817  .debug_str:000000000000653f .LASF1989
C:\Users\SOLDER~1\AppData\Local\Temp\ccgE0nth.s:22249  .debug_str:000000000000c2bf .LASF1990
C:\Users\SOLDER~1\AppData\Local\Temp\ccgE0nth.s:19789  .debug_str:0000000000002337 .LASF1991
C:\Users\SOLDER~1\AppData\Local\Temp\ccgE0nth.s:22483  .debug_str:000000000000d2c0 .LASF1992
C:\Users\SOLDER~1\AppData\Local\Temp\ccgE0nth.s:27547  .debug_str:0000000000021af1 .LASF1993
C:\Users\SOLDER~1\AppData\Local\Temp\ccgE0nth.s:20021  .debug_str:000000000000324e .LASF1994
C:\Users\SOLDER~1\AppData\Local\Temp\ccgE0nth.s:25369  .debug_str:0000000000018e10 .LASF1995
C:\Users\SOLDER~1\AppData\Local\Temp\ccgE0nth.s:21497  .debug_str:0000000000009209 .LASF1996
C:\Users\SOLDER~1\AppData\Local\Temp\ccgE0nth.s:19457  .debug_str:0000000000000dff .LASF1997
C:\Users\SOLDER~1\AppData\Local\Temp\ccgE0nth.s:20849  .debug_str:000000000000677c .LASF1998
C:\Users\SOLDER~1\AppData\Local\Temp\ccgE0nth.s:27715  .debug_str:000000000002256c .LASF1999
C:\Users\SOLDER~1\AppData\Local\Temp\ccgE0nth.s:25781  .debug_str:000000000001a85d .LASF2000
C:\Users\SOLDER~1\AppData\Local\Temp\ccgE0nth.s:27311  .debug_str:0000000000020bb2 .LASF2001
C:\Users\SOLDER~1\AppData\Local\Temp\ccgE0nth.s:24553  .debug_str:000000000001599e .LASF2002
C:\Users\SOLDER~1\AppData\Local\Temp\ccgE0nth.s:26459  .debug_str:000000000001d4d4 .LASF2003
C:\Users\SOLDER~1\AppData\Local\Temp\ccgE0nth.s:19879  .debug_str:000000000000294c .LASF2004
C:\Users\SOLDER~1\AppData\Local\Temp\ccgE0nth.s:23865  .debug_str:0000000000012b94 .LASF2005
C:\Users\SOLDER~1\AppData\Local\Temp\ccgE0nth.s:19491  .debug_str:0000000000001003 .LASF2006
C:\Users\SOLDER~1\AppData\Local\Temp\ccgE0nth.s:19735  .debug_str:0000000000001fd8 .LASF2007
C:\Users\SOLDER~1\AppData\Local\Temp\ccgE0nth.s:28849  .debug_str:0000000000027070 .LASF2008
C:\Users\SOLDER~1\AppData\Local\Temp\ccgE0nth.s:29541  .debug_str:0000000000029d69 .LASF2009
C:\Users\SOLDER~1\AppData\Local\Temp\ccgE0nth.s:25157  .debug_str:000000000001807a .LASF2010
C:\Users\SOLDER~1\AppData\Local\Temp\ccgE0nth.s:21823  .debug_str:000000000000a788 .LASF2011
C:\Users\SOLDER~1\AppData\Local\Temp\ccgE0nth.s:20913  .debug_str:0000000000006ba6 .LASF2012
C:\Users\SOLDER~1\AppData\Local\Temp\ccgE0nth.s:21181  .debug_str:0000000000007cf2 .LASF2013
C:\Users\SOLDER~1\AppData\Local\Temp\ccgE0nth.s:29137  .debug_str:0000000000028358 .LASF2014
C:\Users\SOLDER~1\AppData\Local\Temp\ccgE0nth.s:26191  .debug_str:000000000001c2ba .LASF2015
C:\Users\SOLDER~1\AppData\Local\Temp\ccgE0nth.s:20677  .debug_str:0000000000005c13 .LASF2016
C:\Users\SOLDER~1\AppData\Local\Temp\ccgE0nth.s:26805  .debug_str:000000000001eb16 .LASF2017
C:\Users\SOLDER~1\AppData\Local\Temp\ccgE0nth.s:21577  .debug_str:000000000000973c .LASF2018
C:\Users\SOLDER~1\AppData\Local\Temp\ccgE0nth.s:21447  .debug_str:0000000000008e87 .LASF2019
C:\Users\SOLDER~1\AppData\Local\Temp\ccgE0nth.s:22167  .debug_str:000000000000bd76 .LASF2020
C:\Users\SOLDER~1\AppData\Local\Temp\ccgE0nth.s:29199  .debug_str:0000000000028774 .LASF2021
C:\Users\SOLDER~1\AppData\Local\Temp\ccgE0nth.s:25827  .debug_str:000000000001ab2e .LASF2022
C:\Users\SOLDER~1\AppData\Local\Temp\ccgE0nth.s:24101  .debug_str:0000000000013bf1 .LASF2023
C:\Users\SOLDER~1\AppData\Local\Temp\ccgE0nth.s:30179  .debug_str:000000000002c6c7 .LASF2024
C:\Users\SOLDER~1\AppData\Local\Temp\ccgE0nth.s:30581  .debug_str:000000000002e0b1 .LASF2025
C:\Users\SOLDER~1\AppData\Local\Temp\ccgE0nth.s:23005  .debug_str:000000000000f40e .LASF2026
C:\Users\SOLDER~1\AppData\Local\Temp\ccgE0nth.s:21591  .debug_str:0000000000009821 .LASF2027
C:\Users\SOLDER~1\AppData\Local\Temp\ccgE0nth.s:29287  .debug_str:0000000000028cd8 .LASF2028
C:\Users\SOLDER~1\AppData\Local\Temp\ccgE0nth.s:27225  .debug_str:000000000002060b .LASF2029
C:\Users\SOLDER~1\AppData\Local\Temp\ccgE0nth.s:28629  .debug_str:00000000000261cb .LASF2030
C:\Users\SOLDER~1\AppData\Local\Temp\ccgE0nth.s:24029  .debug_str:00000000000136af .LASF2031
C:\Users\SOLDER~1\AppData\Local\Temp\ccgE0nth.s:21937  .debug_str:000000000000af10 .LASF2032
C:\Users\SOLDER~1\AppData\Local\Temp\ccgE0nth.s:23601  .debug_str:0000000000011b06 .LASF2033
C:\Users\SOLDER~1\AppData\Local\Temp\ccgE0nth.s:20781  .debug_str:00000000000062ee .LASF2034
C:\Users\SOLDER~1\AppData\Local\Temp\ccgE0nth.s:22733  .debug_str:000000000000e34a .LASF2035
C:\Users\SOLDER~1\AppData\Local\Temp\ccgE0nth.s:30219  .debug_str:000000000002c94c .LASF2036
C:\Users\SOLDER~1\AppData\Local\Temp\ccgE0nth.s:29673  .debug_str:000000000002a607 .LASF2037
C:\Users\SOLDER~1\AppData\Local\Temp\ccgE0nth.s:21557  .debug_str:000000000000960f .LASF2038
C:\Users\SOLDER~1\AppData\Local\Temp\ccgE0nth.s:27531  .debug_str:00000000000219d9 .LASF2039
C:\Users\SOLDER~1\AppData\Local\Temp\ccgE0nth.s:25089  .debug_str:0000000000017bbd .LASF2040
C:\Users\SOLDER~1\AppData\Local\Temp\ccgE0nth.s:25805  .debug_str:000000000001a9c9 .LASF2041
C:\Users\SOLDER~1\AppData\Local\Temp\ccgE0nth.s:27653  .debug_str:000000000002218f .LASF2042
GAS LISTING C:\Users\SOLDER~1\AppData\Local\Temp\ccgE0nth.s 			page 63


C:\Users\SOLDER~1\AppData\Local\Temp\ccgE0nth.s:29631  .debug_str:000000000002a349 .LASF2043
C:\Users\SOLDER~1\AppData\Local\Temp\ccgE0nth.s:28703  .debug_str:00000000000266c0 .LASF2044
C:\Users\SOLDER~1\AppData\Local\Temp\ccgE0nth.s:23763  .debug_str:000000000001250f .LASF2045
C:\Users\SOLDER~1\AppData\Local\Temp\ccgE0nth.s:25445  .debug_str:0000000000019302 .LASF2046
C:\Users\SOLDER~1\AppData\Local\Temp\ccgE0nth.s:21527  .debug_str:0000000000009405 .LASF2047
C:\Users\SOLDER~1\AppData\Local\Temp\ccgE0nth.s:27537  .debug_str:0000000000021a45 .LASF2048
C:\Users\SOLDER~1\AppData\Local\Temp\ccgE0nth.s:22137  .debug_str:000000000000bb6b .LASF2049
C:\Users\SOLDER~1\AppData\Local\Temp\ccgE0nth.s:28427  .debug_str:000000000002540b .LASF2050
C:\Users\SOLDER~1\AppData\Local\Temp\ccgE0nth.s:28389  .debug_str:000000000002518b .LASF2051
C:\Users\SOLDER~1\AppData\Local\Temp\ccgE0nth.s:29027  .debug_str:0000000000027c07 .LASF2052
C:\Users\SOLDER~1\AppData\Local\Temp\ccgE0nth.s:24569  .debug_str:0000000000015aa8 .LASF2053
C:\Users\SOLDER~1\AppData\Local\Temp\ccgE0nth.s:30307  .debug_str:000000000002cf06 .LASF2054
C:\Users\SOLDER~1\AppData\Local\Temp\ccgE0nth.s:19409  .debug_str:0000000000000ab0 .LASF2055
C:\Users\SOLDER~1\AppData\Local\Temp\ccgE0nth.s:22083  .debug_str:000000000000b83a .LASF2056
C:\Users\SOLDER~1\AppData\Local\Temp\ccgE0nth.s:28411  .debug_str:0000000000025310 .LASF2057
C:\Users\SOLDER~1\AppData\Local\Temp\ccgE0nth.s:29473  .debug_str:00000000000298c3 .LASF2058
C:\Users\SOLDER~1\AppData\Local\Temp\ccgE0nth.s:20427  .debug_str:0000000000004c30 .LASF2059
C:\Users\SOLDER~1\AppData\Local\Temp\ccgE0nth.s:28129  .debug_str:0000000000024066 .LASF2060
C:\Users\SOLDER~1\AppData\Local\Temp\ccgE0nth.s:30423  .debug_str:000000000002d69b .LASF2061
C:\Users\SOLDER~1\AppData\Local\Temp\ccgE0nth.s:27483  .debug_str:00000000000216cf .LASF2062
C:\Users\SOLDER~1\AppData\Local\Temp\ccgE0nth.s:22855  .debug_str:000000000000eaeb .LASF2063
C:\Users\SOLDER~1\AppData\Local\Temp\ccgE0nth.s:30135  .debug_str:000000000002c420 .LASF2064
C:\Users\SOLDER~1\AppData\Local\Temp\ccgE0nth.s:22439  .debug_str:000000000000cfd8 .LASF2065
C:\Users\SOLDER~1\AppData\Local\Temp\ccgE0nth.s:19635  .debug_str:00000000000018fa .LASF2066
C:\Users\SOLDER~1\AppData\Local\Temp\ccgE0nth.s:21587  .debug_str:00000000000097d6 .LASF2067
C:\Users\SOLDER~1\AppData\Local\Temp\ccgE0nth.s:20897  .debug_str:0000000000006aac .LASF2068
C:\Users\SOLDER~1\AppData\Local\Temp\ccgE0nth.s:30535  .debug_str:000000000002dde0 .LASF2069
C:\Users\SOLDER~1\AppData\Local\Temp\ccgE0nth.s:20983  .debug_str:000000000000706b .LASF2070
C:\Users\SOLDER~1\AppData\Local\Temp\ccgE0nth.s:26387  .debug_str:000000000001cfc0 .LASF2071
C:\Users\SOLDER~1\AppData\Local\Temp\ccgE0nth.s:23891  .debug_str:0000000000012d87 .LASF2072
C:\Users\SOLDER~1\AppData\Local\Temp\ccgE0nth.s:28693  .debug_str:000000000002661a .LASF2073
C:\Users\SOLDER~1\AppData\Local\Temp\ccgE0nth.s:20123  .debug_str:00000000000038de .LASF2074
C:\Users\SOLDER~1\AppData\Local\Temp\ccgE0nth.s:28465  .debug_str:000000000002565f .LASF2075
C:\Users\SOLDER~1\AppData\Local\Temp\ccgE0nth.s:27551  .debug_str:0000000000021b3b .LASF2076
C:\Users\SOLDER~1\AppData\Local\Temp\ccgE0nth.s:22611  .debug_str:000000000000daf8 .LASF2077
C:\Users\SOLDER~1\AppData\Local\Temp\ccgE0nth.s:24293  .debug_str:00000000000148ed .LASF2078
C:\Users\SOLDER~1\AppData\Local\Temp\ccgE0nth.s:25815  .debug_str:000000000001aa7e .LASF2079
C:\Users\SOLDER~1\AppData\Local\Temp\ccgE0nth.s:20269  .debug_str:0000000000004235 .LASF2080
C:\Users\SOLDER~1\AppData\Local\Temp\ccgE0nth.s:26401  .debug_str:000000000001d0b4 .LASF2081
C:\Users\SOLDER~1\AppData\Local\Temp\ccgE0nth.s:25275  .debug_str:0000000000018801 .LASF2082
C:\Users\SOLDER~1\AppData\Local\Temp\ccgE0nth.s:21061  .debug_str:000000000000756a .LASF2083
C:\Users\SOLDER~1\AppData\Local\Temp\ccgE0nth.s:21753  .debug_str:000000000000a2ba .LASF2084
C:\Users\SOLDER~1\AppData\Local\Temp\ccgE0nth.s:24501  .debug_str:00000000000156ae .LASF2085
C:\Users\SOLDER~1\AppData\Local\Temp\ccgE0nth.s:23855  .debug_str:0000000000012afd .LASF2086
C:\Users\SOLDER~1\AppData\Local\Temp\ccgE0nth.s:26581  .debug_str:000000000001dc47 .LASF2087
C:\Users\SOLDER~1\AppData\Local\Temp\ccgE0nth.s:26347  .debug_str:000000000001cd4a .LASF2088
C:\Users\SOLDER~1\AppData\Local\Temp\ccgE0nth.s:24735  .debug_str:0000000000016524 .LASF2089
C:\Users\SOLDER~1\AppData\Local\Temp\ccgE0nth.s:29179  .debug_str:00000000000285eb .LASF2090
C:\Users\SOLDER~1\AppData\Local\Temp\ccgE0nth.s:26205  .debug_str:000000000001c3cc .LASF2091
C:\Users\SOLDER~1\AppData\Local\Temp\ccgE0nth.s:24433  .debug_str:0000000000015217 .LASF2092
C:\Users\SOLDER~1\AppData\Local\Temp\ccgE0nth.s:22267  .debug_str:000000000000c3f8 .LASF2093
C:\Users\SOLDER~1\AppData\Local\Temp\ccgE0nth.s:23769  .debug_str:0000000000012588 .LASF2094
C:\Users\SOLDER~1\AppData\Local\Temp\ccgE0nth.s:30681  .debug_str:000000000002e719 .LASF2095
C:\Users\SOLDER~1\AppData\Local\Temp\ccgE0nth.s:28565  .debug_str:0000000000025d4d .LASF2096
C:\Users\SOLDER~1\AppData\Local\Temp\ccgE0nth.s:25439  .debug_str:0000000000019296 .LASF2097
C:\Users\SOLDER~1\AppData\Local\Temp\ccgE0nth.s:27421  .debug_str:00000000000212f7 .LASF2098
C:\Users\SOLDER~1\AppData\Local\Temp\ccgE0nth.s:29397  .debug_str:00000000000293fa .LASF2099
GAS LISTING C:\Users\SOLDER~1\AppData\Local\Temp\ccgE0nth.s 			page 64


C:\Users\SOLDER~1\AppData\Local\Temp\ccgE0nth.s:23899  .debug_str:0000000000012e06 .LASF2100
C:\Users\SOLDER~1\AppData\Local\Temp\ccgE0nth.s:26769  .debug_str:000000000001e8ab .LASF2101
C:\Users\SOLDER~1\AppData\Local\Temp\ccgE0nth.s:28673  .debug_str:00000000000264ec .LASF2102
C:\Users\SOLDER~1\AppData\Local\Temp\ccgE0nth.s:22657  .debug_str:000000000000ddf0 .LASF2103
C:\Users\SOLDER~1\AppData\Local\Temp\ccgE0nth.s:20143  .debug_str:0000000000003a25 .LASF2104
C:\Users\SOLDER~1\AppData\Local\Temp\ccgE0nth.s:20895  .debug_str:0000000000006a86 .LASF2105
C:\Users\SOLDER~1\AppData\Local\Temp\ccgE0nth.s:27911  .debug_str:0000000000023236 .LASF2106
C:\Users\SOLDER~1\AppData\Local\Temp\ccgE0nth.s:24785  .debug_str:0000000000016814 .LASF2107
C:\Users\SOLDER~1\AppData\Local\Temp\ccgE0nth.s:23839  .debug_str:00000000000129cc .LASF2108
C:\Users\SOLDER~1\AppData\Local\Temp\ccgE0nth.s:30429  .debug_str:000000000002d704 .LASF2109
C:\Users\SOLDER~1\AppData\Local\Temp\ccgE0nth.s:29233  .debug_str:0000000000028994 .LASF2110
C:\Users\SOLDER~1\AppData\Local\Temp\ccgE0nth.s:30087  .debug_str:000000000002c126 .LASF2111
C:\Users\SOLDER~1\AppData\Local\Temp\ccgE0nth.s:24489  .debug_str:00000000000155e1 .LASF2112
C:\Users\SOLDER~1\AppData\Local\Temp\ccgE0nth.s:30619  .debug_str:000000000002e319 .LASF2113
C:\Users\SOLDER~1\AppData\Local\Temp\ccgE0nth.s:25409  .debug_str:00000000000190bc .LASF2114
C:\Users\SOLDER~1\AppData\Local\Temp\ccgE0nth.s:25367  .debug_str:0000000000018deb .LASF2115
C:\Users\SOLDER~1\AppData\Local\Temp\ccgE0nth.s:26057  .debug_str:000000000001b9b4 .LASF2116
C:\Users\SOLDER~1\AppData\Local\Temp\ccgE0nth.s:21543  .debug_str:0000000000009524 .LASF2117
C:\Users\SOLDER~1\AppData\Local\Temp\ccgE0nth.s:29707  .debug_str:000000000002a801 .LASF2118
C:\Users\SOLDER~1\AppData\Local\Temp\ccgE0nth.s:27835  .debug_str:0000000000022d51 .LASF2119
C:\Users\SOLDER~1\AppData\Local\Temp\ccgE0nth.s:30563  .debug_str:000000000002df99 .LASF2120
C:\Users\SOLDER~1\AppData\Local\Temp\ccgE0nth.s:20957  .debug_str:0000000000006e86 .LASF2121
C:\Users\SOLDER~1\AppData\Local\Temp\ccgE0nth.s:25479  .debug_str:0000000000019569 .LASF2122
C:\Users\SOLDER~1\AppData\Local\Temp\ccgE0nth.s:24529  .debug_str:000000000001584a .LASF2123
C:\Users\SOLDER~1\AppData\Local\Temp\ccgE0nth.s:23209  .debug_str:00000000000101be .LASF2124
C:\Users\SOLDER~1\AppData\Local\Temp\ccgE0nth.s:30083  .debug_str:000000000002c0c8 .LASF2125
C:\Users\SOLDER~1\AppData\Local\Temp\ccgE0nth.s:20029  .debug_str:00000000000032cc .LASF2126
C:\Users\SOLDER~1\AppData\Local\Temp\ccgE0nth.s:26933  .debug_str:000000000001f37a .LASF2127
C:\Users\SOLDER~1\AppData\Local\Temp\ccgE0nth.s:24899  .debug_str:0000000000016f37 .LASF2128
C:\Users\SOLDER~1\AppData\Local\Temp\ccgE0nth.s:27455  .debug_str:0000000000021505 .LASF2129
C:\Users\SOLDER~1\AppData\Local\Temp\ccgE0nth.s:23707  .debug_str:00000000000121a0 .LASF2130
C:\Users\SOLDER~1\AppData\Local\Temp\ccgE0nth.s:21987  .debug_str:000000000000b229 .LASF2131
C:\Users\SOLDER~1\AppData\Local\Temp\ccgE0nth.s:30631  .debug_str:000000000002e3d2 .LASF2132
C:\Users\SOLDER~1\AppData\Local\Temp\ccgE0nth.s:23043  .debug_str:000000000000f6a0 .LASF2133
C:\Users\SOLDER~1\AppData\Local\Temp\ccgE0nth.s:25013  .debug_str:00000000000176e8 .LASF2134
C:\Users\SOLDER~1\AppData\Local\Temp\ccgE0nth.s:30483  .debug_str:000000000002da6f .LASF2135
C:\Users\SOLDER~1\AppData\Local\Temp\ccgE0nth.s:24347  .debug_str:0000000000014ca5 .LASF2136
C:\Users\SOLDER~1\AppData\Local\Temp\ccgE0nth.s:28685  .debug_str:000000000002658c .LASF2137
C:\Users\SOLDER~1\AppData\Local\Temp\ccgE0nth.s:24219  .debug_str:0000000000014419 .LASF2138
C:\Users\SOLDER~1\AppData\Local\Temp\ccgE0nth.s:21013  .debug_str:0000000000007260 .LASF2139
C:\Users\SOLDER~1\AppData\Local\Temp\ccgE0nth.s:20093  .debug_str:00000000000036ed .LASF2140
C:\Users\SOLDER~1\AppData\Local\Temp\ccgE0nth.s:26877  .debug_str:000000000001ef97 .LASF2141
C:\Users\SOLDER~1\AppData\Local\Temp\ccgE0nth.s:28213  .debug_str:0000000000024622 .LASF2142
C:\Users\SOLDER~1\AppData\Local\Temp\ccgE0nth.s:22707  .debug_str:000000000000e161 .LASF2143
C:\Users\SOLDER~1\AppData\Local\Temp\ccgE0nth.s:28727  .debug_str:0000000000026876 .LASF2144
C:\Users\SOLDER~1\AppData\Local\Temp\ccgE0nth.s:23351  .debug_str:0000000000010aeb .LASF2145
C:\Users\SOLDER~1\AppData\Local\Temp\ccgE0nth.s:29639  .debug_str:000000000002a3cb .LASF2146
C:\Users\SOLDER~1\AppData\Local\Temp\ccgE0nth.s:29599  .debug_str:000000000002a159 .LASF2147
C:\Users\SOLDER~1\AppData\Local\Temp\ccgE0nth.s:30329  .debug_str:000000000002d0b8 .LASF2148
C:\Users\SOLDER~1\AppData\Local\Temp\ccgE0nth.s:26781  .debug_str:000000000001e986 .LASF2149
C:\Users\SOLDER~1\AppData\Local\Temp\ccgE0nth.s:22329  .debug_str:000000000000c855 .LASF2150
C:\Users\SOLDER~1\AppData\Local\Temp\ccgE0nth.s:20575  .debug_str:0000000000005529 .LASF2151
C:\Users\SOLDER~1\AppData\Local\Temp\ccgE0nth.s:24441  .debug_str:00000000000152a1 .LASF2152
C:\Users\SOLDER~1\AppData\Local\Temp\ccgE0nth.s:28745  .debug_str:00000000000269a9 .LASF2153
C:\Users\SOLDER~1\AppData\Local\Temp\ccgE0nth.s:21703  .debug_str:0000000000009f4f .LASF2154
C:\Users\SOLDER~1\AppData\Local\Temp\ccgE0nth.s:20767  .debug_str:0000000000006206 .LASF2155
C:\Users\SOLDER~1\AppData\Local\Temp\ccgE0nth.s:28367  .debug_str:0000000000025043 .LASF2156
GAS LISTING C:\Users\SOLDER~1\AppData\Local\Temp\ccgE0nth.s 			page 65


C:\Users\SOLDER~1\AppData\Local\Temp\ccgE0nth.s:26331  .debug_str:000000000001cc1a .LASF2157
C:\Users\SOLDER~1\AppData\Local\Temp\ccgE0nth.s:27813  .debug_str:0000000000022bd6 .LASF2158
C:\Users\SOLDER~1\AppData\Local\Temp\ccgE0nth.s:23207  .debug_str:0000000000010198 .LASF2159
C:\Users\SOLDER~1\AppData\Local\Temp\ccgE0nth.s:21129  .debug_str:0000000000007971 .LASF2160
C:\Users\SOLDER~1\AppData\Local\Temp\ccgE0nth.s:30475  .debug_str:000000000002d9f4 .LASF2161
C:\Users\SOLDER~1\AppData\Local\Temp\ccgE0nth.s:19957  .debug_str:0000000000002e1b .LASF2162
C:\Users\SOLDER~1\AppData\Local\Temp\ccgE0nth.s:21923  .debug_str:000000000000adf4 .LASF2163
C:\Users\SOLDER~1\AppData\Local\Temp\ccgE0nth.s:26879  .debug_str:000000000001efbd .LASF2164
C:\Users\SOLDER~1\AppData\Local\Temp\ccgE0nth.s:19315  .debug_str:00000000000003cd .LASF2165
C:\Users\SOLDER~1\AppData\Local\Temp\ccgE0nth.s:21229  .debug_str:0000000000008041 .LASF2166
C:\Users\SOLDER~1\AppData\Local\Temp\ccgE0nth.s:26637  .debug_str:000000000001e00c .LASF2167
C:\Users\SOLDER~1\AppData\Local\Temp\ccgE0nth.s:24239  .debug_str:0000000000014574 .LASF2168
C:\Users\SOLDER~1\AppData\Local\Temp\ccgE0nth.s:25027  .debug_str:00000000000177e8 .LASF2169
C:\Users\SOLDER~1\AppData\Local\Temp\ccgE0nth.s:20447  .debug_str:0000000000004d7a .LASF2170
C:\Users\SOLDER~1\AppData\Local\Temp\ccgE0nth.s:28791  .debug_str:0000000000026cab .LASF2171
C:\Users\SOLDER~1\AppData\Local\Temp\ccgE0nth.s:27879  .debug_str:0000000000023014 .LASF2172
C:\Users\SOLDER~1\AppData\Local\Temp\ccgE0nth.s:22849  .debug_str:000000000000ea8c .LASF2173
C:\Users\SOLDER~1\AppData\Local\Temp\ccgE0nth.s:24523  .debug_str:0000000000015810 .LASF2174
C:\Users\SOLDER~1\AppData\Local\Temp\ccgE0nth.s:25903  .debug_str:000000000001b04b .LASF2175
C:\Users\SOLDER~1\AppData\Local\Temp\ccgE0nth.s:25167  .debug_str:0000000000018134 .LASF2176
C:\Users\SOLDER~1\AppData\Local\Temp\ccgE0nth.s:24521  .debug_str:00000000000157f8 .LASF2177
C:\Users\SOLDER~1\AppData\Local\Temp\ccgE0nth.s:26179  .debug_str:000000000001c206 .LASF2178
C:\Users\SOLDER~1\AppData\Local\Temp\ccgE0nth.s:23193  .debug_str:00000000000100dc .LASF2179
C:\Users\SOLDER~1\AppData\Local\Temp\ccgE0nth.s:25287  .debug_str:0000000000018899 .LASF2180
C:\Users\SOLDER~1\AppData\Local\Temp\ccgE0nth.s:21611  .debug_str:0000000000009951 .LASF2181
C:\Users\SOLDER~1\AppData\Local\Temp\ccgE0nth.s:23445  .debug_str:00000000000110d6 .LASF2182
C:\Users\SOLDER~1\AppData\Local\Temp\ccgE0nth.s:19833  .debug_str:000000000000261d .LASF2183
C:\Users\SOLDER~1\AppData\Local\Temp\ccgE0nth.s:28661  .debug_str:0000000000026423 .LASF2184
C:\Users\SOLDER~1\AppData\Local\Temp\ccgE0nth.s:24139  .debug_str:0000000000013ea6 .LASF2185
C:\Users\SOLDER~1\AppData\Local\Temp\ccgE0nth.s:22255  .debug_str:000000000000c318 .LASF2186
C:\Users\SOLDER~1\AppData\Local\Temp\ccgE0nth.s:21555  .debug_str:00000000000095fc .LASF2187
C:\Users\SOLDER~1\AppData\Local\Temp\ccgE0nth.s:27371  .debug_str:0000000000020f84 .LASF2188
C:\Users\SOLDER~1\AppData\Local\Temp\ccgE0nth.s:27141  .debug_str:00000000000200f5 .LASF2189
C:\Users\SOLDER~1\AppData\Local\Temp\ccgE0nth.s:24075  .debug_str:00000000000139e7 .LASF2190
C:\Users\SOLDER~1\AppData\Local\Temp\ccgE0nth.s:22863  .debug_str:000000000000eb64 .LASF2191
C:\Users\SOLDER~1\AppData\Local\Temp\ccgE0nth.s:24021  .debug_str:000000000001361f .LASF2192
C:\Users\SOLDER~1\AppData\Local\Temp\ccgE0nth.s:28429  .debug_str:0000000000025430 .LASF2193
C:\Users\SOLDER~1\AppData\Local\Temp\ccgE0nth.s:29743  .debug_str:000000000002aa4f .LASF2194
C:\Users\SOLDER~1\AppData\Local\Temp\ccgE0nth.s:27079  .debug_str:000000000001fd0a .LASF2195
C:\Users\SOLDER~1\AppData\Local\Temp\ccgE0nth.s:25929  .debug_str:000000000001b1ca .LASF2196
C:\Users\SOLDER~1\AppData\Local\Temp\ccgE0nth.s:22787  .debug_str:000000000000e69c .LASF2197
C:\Users\SOLDER~1\AppData\Local\Temp\ccgE0nth.s:26277  .debug_str:000000000001c86b .LASF2198
C:\Users\SOLDER~1\AppData\Local\Temp\ccgE0nth.s:28381  .debug_str:0000000000025126 .LASF2199
C:\Users\SOLDER~1\AppData\Local\Temp\ccgE0nth.s:22325  .debug_str:000000000000c814 .LASF2200
C:\Users\SOLDER~1\AppData\Local\Temp\ccgE0nth.s:20073  .debug_str:00000000000035bd .LASF2201
C:\Users\SOLDER~1\AppData\Local\Temp\ccgE0nth.s:20461  .debug_str:0000000000004e4c .LASF2202
C:\Users\SOLDER~1\AppData\Local\Temp\ccgE0nth.s:29329  .debug_str:0000000000028f75 .LASF2203
C:\Users\SOLDER~1\AppData\Local\Temp\ccgE0nth.s:30427  .debug_str:000000000002d6e3 .LASF2204
C:\Users\SOLDER~1\AppData\Local\Temp\ccgE0nth.s:24627  .debug_str:0000000000015e4a .LASF2205
C:\Users\SOLDER~1\AppData\Local\Temp\ccgE0nth.s:19817  .debug_str:0000000000002519 .LASF2206
C:\Users\SOLDER~1\AppData\Local\Temp\ccgE0nth.s:19779  .debug_str:000000000000229b .LASF2207
C:\Users\SOLDER~1\AppData\Local\Temp\ccgE0nth.s:26761  .debug_str:000000000001e822 .LASF2208
C:\Users\SOLDER~1\AppData\Local\Temp\ccgE0nth.s:25883  .debug_str:000000000001af29 .LASF2209
C:\Users\SOLDER~1\AppData\Local\Temp\ccgE0nth.s:23347  .debug_str:0000000000010aa6 .LASF2210
C:\Users\SOLDER~1\AppData\Local\Temp\ccgE0nth.s:23599  .debug_str:0000000000011af2 .LASF2211
C:\Users\SOLDER~1\AppData\Local\Temp\ccgE0nth.s:24945  .debug_str:000000000001725b .LASF2212
C:\Users\SOLDER~1\AppData\Local\Temp\ccgE0nth.s:30067  .debug_str:000000000002bfa9 .LASF2213
GAS LISTING C:\Users\SOLDER~1\AppData\Local\Temp\ccgE0nth.s 			page 66


C:\Users\SOLDER~1\AppData\Local\Temp\ccgE0nth.s:27505  .debug_str:0000000000021829 .LASF2214
C:\Users\SOLDER~1\AppData\Local\Temp\ccgE0nth.s:25609  .debug_str:0000000000019d69 .LASF2215
C:\Users\SOLDER~1\AppData\Local\Temp\ccgE0nth.s:24823  .debug_str:0000000000016a95 .LASF2216
C:\Users\SOLDER~1\AppData\Local\Temp\ccgE0nth.s:20033  .debug_str:0000000000003318 .LASF2217
C:\Users\SOLDER~1\AppData\Local\Temp\ccgE0nth.s:24753  .debug_str:0000000000016649 .LASF2218
C:\Users\SOLDER~1\AppData\Local\Temp\ccgE0nth.s:29283  .debug_str:0000000000028cae .LASF2219
C:\Users\SOLDER~1\AppData\Local\Temp\ccgE0nth.s:21895  .debug_str:000000000000ac55 .LASF2220
C:\Users\SOLDER~1\AppData\Local\Temp\ccgE0nth.s:27053  .debug_str:000000000001fb72 .LASF2221
C:\Users\SOLDER~1\AppData\Local\Temp\ccgE0nth.s:28925  .debug_str:0000000000027586 .LASF2222
C:\Users\SOLDER~1\AppData\Local\Temp\ccgE0nth.s:20851  .debug_str:00000000000067a1 .LASF2223
C:\Users\SOLDER~1\AppData\Local\Temp\ccgE0nth.s:21581  .debug_str:0000000000009778 .LASF2224
C:\Users\SOLDER~1\AppData\Local\Temp\ccgE0nth.s:23755  .debug_str:0000000000012498 .LASF2225
C:\Users\SOLDER~1\AppData\Local\Temp\ccgE0nth.s:24185  .debug_str:0000000000014192 .LASF2226
C:\Users\SOLDER~1\AppData\Local\Temp\ccgE0nth.s:26301  .debug_str:000000000001ca13 .LASF2227
C:\Users\SOLDER~1\AppData\Local\Temp\ccgE0nth.s:30217  .debug_str:000000000002c92b .LASF2228
C:\Users\SOLDER~1\AppData\Local\Temp\ccgE0nth.s:21313  .debug_str:00000000000085c6 .LASF2229
C:\Users\SOLDER~1\AppData\Local\Temp\ccgE0nth.s:27383  .debug_str:0000000000021061 .LASF2230
C:\Users\SOLDER~1\AppData\Local\Temp\ccgE0nth.s:28267  .debug_str:00000000000249a7 .LASF2231
C:\Users\SOLDER~1\AppData\Local\Temp\ccgE0nth.s:24231  .debug_str:00000000000144d9 .LASF2232
C:\Users\SOLDER~1\AppData\Local\Temp\ccgE0nth.s:20917  .debug_str:0000000000006be3 .LASF2233
C:\Users\SOLDER~1\AppData\Local\Temp\ccgE0nth.s:23665  .debug_str:0000000000011ef6 .LASF2234
C:\Users\SOLDER~1\AppData\Local\Temp\ccgE0nth.s:20541  .debug_str:000000000000532c .LASF2235
C:\Users\SOLDER~1\AppData\Local\Temp\ccgE0nth.s:30273  .debug_str:000000000002ccbf .LASF2236
C:\Users\SOLDER~1\AppData\Local\Temp\ccgE0nth.s:27105  .debug_str:000000000001fe9f .LASF2237
C:\Users\SOLDER~1\AppData\Local\Temp\ccgE0nth.s:29691  .debug_str:000000000002a71a .LASF2238
C:\Users\SOLDER~1\AppData\Local\Temp\ccgE0nth.s:22549  .debug_str:000000000000d71a .LASF2239
C:\Users\SOLDER~1\AppData\Local\Temp\ccgE0nth.s:23987  .debug_str:00000000000133c8 .LASF2240
C:\Users\SOLDER~1\AppData\Local\Temp\ccgE0nth.s:19739  .debug_str:000000000000200f .LASF2241
C:\Users\SOLDER~1\AppData\Local\Temp\ccgE0nth.s:28765  .debug_str:0000000000026b14 .LASF2242
C:\Users\SOLDER~1\AppData\Local\Temp\ccgE0nth.s:28709  .debug_str:000000000002673b .LASF2243
C:\Users\SOLDER~1\AppData\Local\Temp\ccgE0nth.s:23131  .debug_str:000000000000fcca .LASF2244
C:\Users\SOLDER~1\AppData\Local\Temp\ccgE0nth.s:19341  .debug_str:000000000000057c .LASF2245
C:\Users\SOLDER~1\AppData\Local\Temp\ccgE0nth.s:19293  .debug_str:000000000000023c .LASF2246
C:\Users\SOLDER~1\AppData\Local\Temp\ccgE0nth.s:25071  .debug_str:0000000000017aae .LASF2247
C:\Users\SOLDER~1\AppData\Local\Temp\ccgE0nth.s:21201  .debug_str:0000000000007e5f .LASF2248
C:\Users\SOLDER~1\AppData\Local\Temp\ccgE0nth.s:24257  .debug_str:00000000000146bc .LASF2249
C:\Users\SOLDER~1\AppData\Local\Temp\ccgE0nth.s:22485  .debug_str:000000000000d2e4 .LASF2250
C:\Users\SOLDER~1\AppData\Local\Temp\ccgE0nth.s:21959  .debug_str:000000000000b084 .LASF2251
C:\Users\SOLDER~1\AppData\Local\Temp\ccgE0nth.s:30401  .debug_str:000000000002d536 .LASF2252
C:\Users\SOLDER~1\AppData\Local\Temp\ccgE0nth.s:23651  .debug_str:0000000000011e37 .LASF2253
C:\Users\SOLDER~1\AppData\Local\Temp\ccgE0nth.s:25413  .debug_str:0000000000019103 .LASF2254
C:\Users\SOLDER~1\AppData\Local\Temp\ccgE0nth.s:24949  .debug_str:000000000001729e .LASF2255
C:\Users\SOLDER~1\AppData\Local\Temp\ccgE0nth.s:27395  .debug_str:000000000002114a .LASF2256
C:\Users\SOLDER~1\AppData\Local\Temp\ccgE0nth.s:29463  .debug_str:0000000000029847 .LASF2257
C:\Users\SOLDER~1\AppData\Local\Temp\ccgE0nth.s:22387  .debug_str:000000000000cc5f .LASF2258
C:\Users\SOLDER~1\AppData\Local\Temp\ccgE0nth.s:19915  .debug_str:0000000000002b87 .LASF2259
C:\Users\SOLDER~1\AppData\Local\Temp\ccgE0nth.s:27965  .debug_str:00000000000235e3 .LASF2260
C:\Users\SOLDER~1\AppData\Local\Temp\ccgE0nth.s:25525  .debug_str:000000000001984c .LASF2261
C:\Users\SOLDER~1\AppData\Local\Temp\ccgE0nth.s:21277  .debug_str:000000000000837c .LASF2262
C:\Users\SOLDER~1\AppData\Local\Temp\ccgE0nth.s:20501  .debug_str:00000000000050a9 .LASF2263
C:\Users\SOLDER~1\AppData\Local\Temp\ccgE0nth.s:27057  .debug_str:000000000001fba9 .LASF2264
C:\Users\SOLDER~1\AppData\Local\Temp\ccgE0nth.s:23467  .debug_str:000000000001125b .LASF2265
C:\Users\SOLDER~1\AppData\Local\Temp\ccgE0nth.s:23007  .debug_str:000000000000f433 .LASF2266
C:\Users\SOLDER~1\AppData\Local\Temp\ccgE0nth.s:25483  .debug_str:00000000000195b8 .LASF2267
C:\Users\SOLDER~1\AppData\Local\Temp\ccgE0nth.s:22809  .debug_str:000000000000e80a .LASF2268
C:\Users\SOLDER~1\AppData\Local\Temp\ccgE0nth.s:19515  .debug_str:000000000000118b .LASF2269
C:\Users\SOLDER~1\AppData\Local\Temp\ccgE0nth.s:28945  .debug_str:00000000000276d9 .LASF2270
GAS LISTING C:\Users\SOLDER~1\AppData\Local\Temp\ccgE0nth.s 			page 67


C:\Users\SOLDER~1\AppData\Local\Temp\ccgE0nth.s:29689  .debug_str:000000000002a706 .LASF2271
C:\Users\SOLDER~1\AppData\Local\Temp\ccgE0nth.s:29885  .debug_str:000000000002b3ac .LASF2272
C:\Users\SOLDER~1\AppData\Local\Temp\ccgE0nth.s:28965  .debug_str:0000000000027826 .LASF2273
C:\Users\SOLDER~1\AppData\Local\Temp\ccgE0nth.s:19383  .debug_str:00000000000008ba .LASF2274
C:\Users\SOLDER~1\AppData\Local\Temp\ccgE0nth.s:19463  .debug_str:0000000000000e5d .LASF2275
C:\Users\SOLDER~1\AppData\Local\Temp\ccgE0nth.s:21641  .debug_str:0000000000009b51 .LASF2276
C:\Users\SOLDER~1\AppData\Local\Temp\ccgE0nth.s:26871  .debug_str:000000000001ef4c .LASF2277
C:\Users\SOLDER~1\AppData\Local\Temp\ccgE0nth.s:21171  .debug_str:0000000000007c5a .LASF2278
C:\Users\SOLDER~1\AppData\Local\Temp\ccgE0nth.s:30733  .debug_str:000000000002eaa5 .LASF2279
C:\Users\SOLDER~1\AppData\Local\Temp\ccgE0nth.s:23749  .debug_str:000000000001244a .LASF2280
C:\Users\SOLDER~1\AppData\Local\Temp\ccgE0nth.s:26941  .debug_str:000000000001f406 .LASF2281
C:\Users\SOLDER~1\AppData\Local\Temp\ccgE0nth.s:30341  .debug_str:000000000002d189 .LASF2282
C:\Users\SOLDER~1\AppData\Local\Temp\ccgE0nth.s:21177  .debug_str:0000000000007cb8 .LASF2283
C:\Users\SOLDER~1\AppData\Local\Temp\ccgE0nth.s:19873  .debug_str:00000000000028e2 .LASF2284
C:\Users\SOLDER~1\AppData\Local\Temp\ccgE0nth.s:27231  .debug_str:0000000000020678 .LASF2285
C:\Users\SOLDER~1\AppData\Local\Temp\ccgE0nth.s:21071  .debug_str:0000000000007608 .LASF2286
C:\Users\SOLDER~1\AppData\Local\Temp\ccgE0nth.s:25033  .debug_str:0000000000017855 .LASF2287
C:\Users\SOLDER~1\AppData\Local\Temp\ccgE0nth.s:23701  .debug_str:000000000001213c .LASF2288
C:\Users\SOLDER~1\AppData\Local\Temp\ccgE0nth.s:21195  .debug_str:0000000000007e0c .LASF2289
C:\Users\SOLDER~1\AppData\Local\Temp\ccgE0nth.s:26473  .debug_str:000000000001d5a2 .LASF2290
C:\Users\SOLDER~1\AppData\Local\Temp\ccgE0nth.s:26977  .debug_str:000000000001f69e .LASF2291
C:\Users\SOLDER~1\AppData\Local\Temp\ccgE0nth.s:24121  .debug_str:0000000000013d4b .LASF2292
C:\Users\SOLDER~1\AppData\Local\Temp\ccgE0nth.s:20281  .debug_str:00000000000042ed .LASF2293
C:\Users\SOLDER~1\AppData\Local\Temp\ccgE0nth.s:24377  .debug_str:0000000000014ea4 .LASF2294
C:\Users\SOLDER~1\AppData\Local\Temp\ccgE0nth.s:30701  .debug_str:000000000002e89c .LASF2295
C:\Users\SOLDER~1\AppData\Local\Temp\ccgE0nth.s:21125  .debug_str:0000000000007936 .LASF2296
C:\Users\SOLDER~1\AppData\Local\Temp\ccgE0nth.s:29651  .debug_str:000000000002a491 .LASF2297
C:\Users\SOLDER~1\AppData\Local\Temp\ccgE0nth.s:27875  .debug_str:0000000000022fd3 .LASF2298
C:\Users\SOLDER~1\AppData\Local\Temp\ccgE0nth.s:23991  .debug_str:0000000000013408 .LASF2299
C:\Users\SOLDER~1\AppData\Local\Temp\ccgE0nth.s:27171  .debug_str:00000000000202d2 .LASF2300
C:\Users\SOLDER~1\AppData\Local\Temp\ccgE0nth.s:29979  .debug_str:000000000002b9d6 .LASF2301
C:\Users\SOLDER~1\AppData\Local\Temp\ccgE0nth.s:23487  .debug_str:0000000000011384 .LASF2302
C:\Users\SOLDER~1\AppData\Local\Temp\ccgE0nth.s:27659  .debug_str:00000000000221df .LASF2303
C:\Users\SOLDER~1\AppData\Local\Temp\ccgE0nth.s:25011  .debug_str:00000000000176c6 .LASF2304
C:\Users\SOLDER~1\AppData\Local\Temp\ccgE0nth.s:23913  .debug_str:0000000000012eea .LASF2305
C:\Users\SOLDER~1\AppData\Local\Temp\ccgE0nth.s:26349  .debug_str:000000000001cd6f .LASF2306
C:\Users\SOLDER~1\AppData\Local\Temp\ccgE0nth.s:29693  .debug_str:000000000002a73a .LASF2307
C:\Users\SOLDER~1\AppData\Local\Temp\ccgE0nth.s:23531  .debug_str:00000000000116ad .LASF2308
C:\Users\SOLDER~1\AppData\Local\Temp\ccgE0nth.s:20213  .debug_str:0000000000003eb0 .LASF2309
C:\Users\SOLDER~1\AppData\Local\Temp\ccgE0nth.s:22883  .debug_str:000000000000ec7b .LASF2310
C:\Users\SOLDER~1\AppData\Local\Temp\ccgE0nth.s:21941  .debug_str:000000000000af51 .LASF2311
C:\Users\SOLDER~1\AppData\Local\Temp\ccgE0nth.s:29569  .debug_str:0000000000029f41 .LASF2312
C:\Users\SOLDER~1\AppData\Local\Temp\ccgE0nth.s:29711  .debug_str:000000000002a848 .LASF2313
C:\Users\SOLDER~1\AppData\Local\Temp\ccgE0nth.s:22273  .debug_str:000000000000c466 .LASF2314
C:\Users\SOLDER~1\AppData\Local\Temp\ccgE0nth.s:23949  .debug_str:0000000000013138 .LASF2315
C:\Users\SOLDER~1\AppData\Local\Temp\ccgE0nth.s:23655  .debug_str:0000000000011e6b .LASF2316
C:\Users\SOLDER~1\AppData\Local\Temp\ccgE0nth.s:21145  .debug_str:0000000000007aa2 .LASF2317
C:\Users\SOLDER~1\AppData\Local\Temp\ccgE0nth.s:23461  .debug_str:00000000000111e7 .LASF2318
C:\Users\SOLDER~1\AppData\Local\Temp\ccgE0nth.s:30415  .debug_str:000000000002d61d .LASF2319
C:\Users\SOLDER~1\AppData\Local\Temp\ccgE0nth.s:24599  .debug_str:0000000000015c91 .LASF2320
C:\Users\SOLDER~1\AppData\Local\Temp\ccgE0nth.s:27673  .debug_str:000000000002229c .LASF2321
C:\Users\SOLDER~1\AppData\Local\Temp\ccgE0nth.s:25049  .debug_str:0000000000017925 .LASF2322
C:\Users\SOLDER~1\AppData\Local\Temp\ccgE0nth.s:28051  .debug_str:0000000000023b4d .LASF2323
C:\Users\SOLDER~1\AppData\Local\Temp\ccgE0nth.s:27515  .debug_str:00000000000218d3 .LASF2324
C:\Users\SOLDER~1\AppData\Local\Temp\ccgE0nth.s:26449  .debug_str:000000000001d42b .LASF2325
C:\Users\SOLDER~1\AppData\Local\Temp\ccgE0nth.s:21081  .debug_str:0000000000007693 .LASF2326
C:\Users\SOLDER~1\AppData\Local\Temp\ccgE0nth.s:26155  .debug_str:000000000001c043 .LASF2327
GAS LISTING C:\Users\SOLDER~1\AppData\Local\Temp\ccgE0nth.s 			page 68


C:\Users\SOLDER~1\AppData\Local\Temp\ccgE0nth.s:21873  .debug_str:000000000000aad8 .LASF2328
C:\Users\SOLDER~1\AppData\Local\Temp\ccgE0nth.s:21773  .debug_str:000000000000a401 .LASF2329
C:\Users\SOLDER~1\AppData\Local\Temp\ccgE0nth.s:20581  .debug_str:0000000000005572 .LASF2330
C:\Users\SOLDER~1\AppData\Local\Temp\ccgE0nth.s:19617  .debug_str:0000000000001813 .LASF2331
C:\Users\SOLDER~1\AppData\Local\Temp\ccgE0nth.s:29905  .debug_str:000000000002b4e4 .LASF2332
C:\Users\SOLDER~1\AppData\Local\Temp\ccgE0nth.s:20531  .debug_str:0000000000005286 .LASF2333
C:\Users\SOLDER~1\AppData\Local\Temp\ccgE0nth.s:29197  .debug_str:0000000000028752 .LASF2334
C:\Users\SOLDER~1\AppData\Local\Temp\ccgE0nth.s:22159  .debug_str:000000000000bcf9 .LASF2335
C:\Users\SOLDER~1\AppData\Local\Temp\ccgE0nth.s:26937  .debug_str:000000000001f3c2 .LASF2336
C:\Users\SOLDER~1\AppData\Local\Temp\ccgE0nth.s:22621  .debug_str:000000000000db9d .LASF2337
C:\Users\SOLDER~1\AppData\Local\Temp\ccgE0nth.s:30399  .debug_str:000000000002d513 .LASF2338
C:\Users\SOLDER~1\AppData\Local\Temp\ccgE0nth.s:22397  .debug_str:000000000000cd17 .LASF2339
C:\Users\SOLDER~1\AppData\Local\Temp\ccgE0nth.s:27137  .debug_str:00000000000200a9 .LASF2340
C:\Users\SOLDER~1\AppData\Local\Temp\ccgE0nth.s:27015  .debug_str:000000000001f8fb .LASF2341
C:\Users\SOLDER~1\AppData\Local\Temp\ccgE0nth.s:29993  .debug_str:000000000002baa1 .LASF2342
C:\Users\SOLDER~1\AppData\Local\Temp\ccgE0nth.s:22263  .debug_str:000000000000c3ae .LASF2343
C:\Users\SOLDER~1\AppData\Local\Temp\ccgE0nth.s:28785  .debug_str:0000000000026c4f .LASF2344
C:\Users\SOLDER~1\AppData\Local\Temp\ccgE0nth.s:23383  .debug_str:0000000000010cce .LASF2345
C:\Users\SOLDER~1\AppData\Local\Temp\ccgE0nth.s:22769  .debug_str:000000000000e58c .LASF2346
C:\Users\SOLDER~1\AppData\Local\Temp\ccgE0nth.s:29093  .debug_str:0000000000028093 .LASF2347
C:\Users\SOLDER~1\AppData\Local\Temp\ccgE0nth.s:27315  .debug_str:0000000000020c01 .LASF2348
C:\Users\SOLDER~1\AppData\Local\Temp\ccgE0nth.s:21213  .debug_str:0000000000007f35 .LASF2349
C:\Users\SOLDER~1\AppData\Local\Temp\ccgE0nth.s:26127  .debug_str:000000000001be79 .LASF2350
C:\Users\SOLDER~1\AppData\Local\Temp\ccgE0nth.s:29285  .debug_str:0000000000028cc2 .LASF2351
C:\Users\SOLDER~1\AppData\Local\Temp\ccgE0nth.s:27809  .debug_str:0000000000022b94 .LASF2352
C:\Users\SOLDER~1\AppData\Local\Temp\ccgE0nth.s:21847  .debug_str:000000000000a921 .LASF2353
C:\Users\SOLDER~1\AppData\Local\Temp\ccgE0nth.s:30309  .debug_str:000000000002cf2b .LASF2354
C:\Users\SOLDER~1\AppData\Local\Temp\ccgE0nth.s:22627  .debug_str:000000000000dbf0 .LASF2355
C:\Users\SOLDER~1\AppData\Local\Temp\ccgE0nth.s:25351  .debug_str:0000000000018ccf .LASF2356
C:\Users\SOLDER~1\AppData\Local\Temp\ccgE0nth.s:22225  .debug_str:000000000000c118 .LASF2357
C:\Users\SOLDER~1\AppData\Local\Temp\ccgE0nth.s:26105  .debug_str:000000000001bce7 .LASF2358
C:\Users\SOLDER~1\AppData\Local\Temp\ccgE0nth.s:23087  .debug_str:000000000000f9b7 .LASF2359
C:\Users\SOLDER~1\AppData\Local\Temp\ccgE0nth.s:26509  .debug_str:000000000001d7de .LASF2360
C:\Users\SOLDER~1\AppData\Local\Temp\ccgE0nth.s:27205  .debug_str:00000000000204e5 .LASF2361
C:\Users\SOLDER~1\AppData\Local\Temp\ccgE0nth.s:22665  .debug_str:000000000000de79 .LASF2362
C:\Users\SOLDER~1\AppData\Local\Temp\ccgE0nth.s:23919  .debug_str:0000000000012f43 .LASF2363
C:\Users\SOLDER~1\AppData\Local\Temp\ccgE0nth.s:21983  .debug_str:000000000000b1f2 .LASF2364
C:\Users\SOLDER~1\AppData\Local\Temp\ccgE0nth.s:29869  .debug_str:000000000002b2c4 .LASF2365
C:\Users\SOLDER~1\AppData\Local\Temp\ccgE0nth.s:27127  .debug_str:000000000002000c .LASF2366
C:\Users\SOLDER~1\AppData\Local\Temp\ccgE0nth.s:25819  .debug_str:000000000001aabb .LASF2367
C:\Users\SOLDER~1\AppData\Local\Temp\ccgE0nth.s:27223  .debug_str:00000000000205e8 .LASF2368
C:\Users\SOLDER~1\AppData\Local\Temp\ccgE0nth.s:25325  .debug_str:0000000000018b34 .LASF2369
C:\Users\SOLDER~1\AppData\Local\Temp\ccgE0nth.s:19869  .debug_str:0000000000002869 .LASF2370
C:\Users\SOLDER~1\AppData\Local\Temp\ccgE0nth.s:20323  .debug_str:000000000000457e .LASF2371
C:\Users\SOLDER~1\AppData\Local\Temp\ccgE0nth.s:26737  .debug_str:000000000001e691 .LASF2372
C:\Users\SOLDER~1\AppData\Local\Temp\ccgE0nth.s:20307  .debug_str:0000000000004488 .LASF2373
C:\Users\SOLDER~1\AppData\Local\Temp\ccgE0nth.s:20145  .debug_str:0000000000003a4b .LASF2374
C:\Users\SOLDER~1\AppData\Local\Temp\ccgE0nth.s:20769  .debug_str:000000000000622c .LASF2375
C:\Users\SOLDER~1\AppData\Local\Temp\ccgE0nth.s:25647  .debug_str:0000000000019fa5 .LASF2376
C:\Users\SOLDER~1\AppData\Local\Temp\ccgE0nth.s:21791  .debug_str:000000000000a53b .LASF2377
C:\Users\SOLDER~1\AppData\Local\Temp\ccgE0nth.s:20019  .debug_str:000000000000322c .LASF2378
C:\Users\SOLDER~1\AppData\Local\Temp\ccgE0nth.s:29587  .debug_str:000000000002a073 .LASF2379
C:\Users\SOLDER~1\AppData\Local\Temp\ccgE0nth.s:28993  .debug_str:00000000000279c5 .LASF2380
C:\Users\SOLDER~1\AppData\Local\Temp\ccgE0nth.s:19371  .debug_str:00000000000007ff .LASF2381
C:\Users\SOLDER~1\AppData\Local\Temp\ccgE0nth.s:30693  .debug_str:000000000002e80b .LASF2382
C:\Users\SOLDER~1\AppData\Local\Temp\ccgE0nth.s:26143  .debug_str:000000000001bf7a .LASF2383
C:\Users\SOLDER~1\AppData\Local\Temp\ccgE0nth.s:22277  .debug_str:000000000000c4ba .LASF2384
GAS LISTING C:\Users\SOLDER~1\AppData\Local\Temp\ccgE0nth.s 			page 69


C:\Users\SOLDER~1\AppData\Local\Temp\ccgE0nth.s:30257  .debug_str:000000000002cbb6 .LASF2385
C:\Users\SOLDER~1\AppData\Local\Temp\ccgE0nth.s:29629  .debug_str:000000000002a327 .LASF2386
C:\Users\SOLDER~1\AppData\Local\Temp\ccgE0nth.s:29957  .debug_str:000000000002b861 .LASF2387
C:\Users\SOLDER~1\AppData\Local\Temp\ccgE0nth.s:30437  .debug_str:000000000002d7a2 .LASF2388
C:\Users\SOLDER~1\AppData\Local\Temp\ccgE0nth.s:24409  .debug_str:0000000000015095 .LASF2389
C:\Users\SOLDER~1\AppData\Local\Temp\ccgE0nth.s:20911  .debug_str:0000000000006b85 .LASF2390
C:\Users\SOLDER~1\AppData\Local\Temp\ccgE0nth.s:23411  .debug_str:0000000000010ea0 .LASF2391
C:\Users\SOLDER~1\AppData\Local\Temp\ccgE0nth.s:26913  .debug_str:000000000001f226 .LASF2392
C:\Users\SOLDER~1\AppData\Local\Temp\ccgE0nth.s:20875  .debug_str:000000000000695a .LASF2393
C:\Users\SOLDER~1\AppData\Local\Temp\ccgE0nth.s:26209  .debug_str:000000000001c40e .LASF2394
C:\Users\SOLDER~1\AppData\Local\Temp\ccgE0nth.s:25945  .debug_str:000000000001b2d3 .LASF2395
C:\Users\SOLDER~1\AppData\Local\Temp\ccgE0nth.s:19907  .debug_str:0000000000002b0a .LASF2396
C:\Users\SOLDER~1\AppData\Local\Temp\ccgE0nth.s:22695  .debug_str:000000000000e079 .LASF2397
C:\Users\SOLDER~1\AppData\Local\Temp\ccgE0nth.s:24033  .debug_str:00000000000136ea .LASF2398
C:\Users\SOLDER~1\AppData\Local\Temp\ccgE0nth.s:28143  .debug_str:0000000000024164 .LASF2399
C:\Users\SOLDER~1\AppData\Local\Temp\ccgE0nth.s:21367  .debug_str:0000000000008915 .LASF2400
C:\Users\SOLDER~1\AppData\Local\Temp\ccgE0nth.s:22909  .debug_str:000000000000ee26 .LASF2401
C:\Users\SOLDER~1\AppData\Local\Temp\ccgE0nth.s:23607  .debug_str:0000000000011b63 .LASF2402
C:\Users\SOLDER~1\AppData\Local\Temp\ccgE0nth.s:27997  .debug_str:00000000000237f8 .LASF2403
C:\Users\SOLDER~1\AppData\Local\Temp\ccgE0nth.s:23035  .debug_str:000000000000f60f .LASF2404
C:\Users\SOLDER~1\AppData\Local\Temp\ccgE0nth.s:22069  .debug_str:000000000000b77c .LASF2405
C:\Users\SOLDER~1\AppData\Local\Temp\ccgE0nth.s:28443  .debug_str:0000000000025511 .LASF2406
C:\Users\SOLDER~1\AppData\Local\Temp\ccgE0nth.s:26045  .debug_str:000000000001b8f7 .LASF2407
C:\Users\SOLDER~1\AppData\Local\Temp\ccgE0nth.s:24283  .debug_str:000000000001485d .LASF2408
C:\Users\SOLDER~1\AppData\Local\Temp\ccgE0nth.s:26419  .debug_str:000000000001d223 .LASF2409
C:\Users\SOLDER~1\AppData\Local\Temp\ccgE0nth.s:20429  .debug_str:0000000000004c56 .LASF2410
C:\Users\SOLDER~1\AppData\Local\Temp\ccgE0nth.s:20871  .debug_str:0000000000006920 .LASF2411
C:\Users\SOLDER~1\AppData\Local\Temp\ccgE0nth.s:21971  .debug_str:000000000000b137 .LASF2412
C:\Users\SOLDER~1\AppData\Local\Temp\ccgE0nth.s:22303  .debug_str:000000000000c69e .LASF2413
C:\Users\SOLDER~1\AppData\Local\Temp\ccgE0nth.s:27295  .debug_str:0000000000020ab9 .LASF2414
C:\Users\SOLDER~1\AppData\Local\Temp\ccgE0nth.s:21015  .debug_str:0000000000007286 .LASF2415
C:\Users\SOLDER~1\AppData\Local\Temp\ccgE0nth.s:20291  .debug_str:0000000000004382 .LASF2416
C:\Users\SOLDER~1\AppData\Local\Temp\ccgE0nth.s:26021  .debug_str:000000000001b79d .LASF2417
C:\Users\SOLDER~1\AppData\Local\Temp\ccgE0nth.s:23123  .debug_str:000000000000fc26 .LASF2418
C:\Users\SOLDER~1\AppData\Local\Temp\ccgE0nth.s:25795  .debug_str:000000000001a94e .LASF2419
C:\Users\SOLDER~1\AppData\Local\Temp\ccgE0nth.s:26751  .debug_str:000000000001e78b .LASF2420
C:\Users\SOLDER~1\AppData\Local\Temp\ccgE0nth.s:19481  .debug_str:0000000000000f75 .LASF2421
C:\Users\SOLDER~1\AppData\Local\Temp\ccgE0nth.s:19597  .debug_str:00000000000016c6 .LASF2422
C:\Users\SOLDER~1\AppData\Local\Temp\ccgE0nth.s:20477  .debug_str:0000000000004f42 .LASF2423
C:\Users\SOLDER~1\AppData\Local\Temp\ccgE0nth.s:30461  .debug_str:000000000002d91d .LASF2424
C:\Users\SOLDER~1\AppData\Local\Temp\ccgE0nth.s:22093  .debug_str:000000000000b8c7 .LASF2425
C:\Users\SOLDER~1\AppData\Local\Temp\ccgE0nth.s:24167  .debug_str:0000000000014085 .LASF2426
C:\Users\SOLDER~1\AppData\Local\Temp\ccgE0nth.s:24989  .debug_str:0000000000017557 .LASF2427
C:\Users\SOLDER~1\AppData\Local\Temp\ccgE0nth.s:20867  .debug_str:00000000000068e0 .LASF2428
C:\Users\SOLDER~1\AppData\Local\Temp\ccgE0nth.s:19599  .debug_str:00000000000016e8 .LASF2429
C:\Users\SOLDER~1\AppData\Local\Temp\ccgE0nth.s:24363  .debug_str:0000000000014db8 .LASF2430
C:\Users\SOLDER~1\AppData\Local\Temp\ccgE0nth.s:26435  .debug_str:000000000001d33f .LASF2431
C:\Users\SOLDER~1\AppData\Local\Temp\ccgE0nth.s:19295  .debug_str:000000000000025d .LASF2432
C:\Users\SOLDER~1\AppData\Local\Temp\ccgE0nth.s:19483  .debug_str:0000000000000f8d .LASF2433
C:\Users\SOLDER~1\AppData\Local\Temp\ccgE0nth.s:26019  .debug_str:000000000001b778 .LASF2434
C:\Users\SOLDER~1\AppData\Local\Temp\ccgE0nth.s:30069  .debug_str:000000000002bfbc .LASF2435
C:\Users\SOLDER~1\AppData\Local\Temp\ccgE0nth.s:19753  .debug_str:00000000000020c7 .LASF2436
C:\Users\SOLDER~1\AppData\Local\Temp\ccgE0nth.s:30369  .debug_str:000000000002d352 .LASF2437
C:\Users\SOLDER~1\AppData\Local\Temp\ccgE0nth.s:28547  .debug_str:0000000000025c21 .LASF2438
C:\Users\SOLDER~1\AppData\Local\Temp\ccgE0nth.s:23285  .debug_str:00000000000106ac .LASF2439
C:\Users\SOLDER~1\AppData\Local\Temp\ccgE0nth.s:25183  .debug_str:0000000000018245 .LASF2440
C:\Users\SOLDER~1\AppData\Local\Temp\ccgE0nth.s:22473  .debug_str:000000000000d223 .LASF2441
GAS LISTING C:\Users\SOLDER~1\AppData\Local\Temp\ccgE0nth.s 			page 70


C:\Users\SOLDER~1\AppData\Local\Temp\ccgE0nth.s:24859  .debug_str:0000000000016cc7 .LASF2442
C:\Users\SOLDER~1\AppData\Local\Temp\ccgE0nth.s:30021  .debug_str:000000000002bc75 .LASF2443
C:\Users\SOLDER~1\AppData\Local\Temp\ccgE0nth.s:19999  .debug_str:00000000000030dc .LASF2444
C:\Users\SOLDER~1\AppData\Local\Temp\ccgE0nth.s:22475  .debug_str:000000000000d239 .LASF2445
C:\Users\SOLDER~1\AppData\Local\Temp\ccgE0nth.s:26537  .debug_str:000000000001d969 .LASF2446
C:\Users\SOLDER~1\AppData\Local\Temp\ccgE0nth.s:22171  .debug_str:000000000000bdbf .LASF2447
C:\Users\SOLDER~1\AppData\Local\Temp\ccgE0nth.s:27333  .debug_str:0000000000020d1d .LASF2448
C:\Users\SOLDER~1\AppData\Local\Temp\ccgE0nth.s:27069  .debug_str:000000000001fc6e .LASF2449
C:\Users\SOLDER~1\AppData\Local\Temp\ccgE0nth.s:24357  .debug_str:0000000000014d63 .LASF2450
C:\Users\SOLDER~1\AppData\Local\Temp\ccgE0nth.s:24717  .debug_str:000000000001641b .LASF2451
C:\Users\SOLDER~1\AppData\Local\Temp\ccgE0nth.s:23923  .debug_str:0000000000012f81 .LASF2452
C:\Users\SOLDER~1\AppData\Local\Temp\ccgE0nth.s:28163  .debug_str:00000000000242b8 .LASF2453
C:\Users\SOLDER~1\AppData\Local\Temp\ccgE0nth.s:22559  .debug_str:000000000000d7a9 .LASF2454
C:\Users\SOLDER~1\AppData\Local\Temp\ccgE0nth.s:29805  .debug_str:000000000002ae39 .LASF2455
C:\Users\SOLDER~1\AppData\Local\Temp\ccgE0nth.s:28347  .debug_str:0000000000024eed .LASF2456
C:\Users\SOLDER~1\AppData\Local\Temp\ccgE0nth.s:22779  .debug_str:000000000000e63a .LASF2457
C:\Users\SOLDER~1\AppData\Local\Temp\ccgE0nth.s:29167  .debug_str:000000000002852f .LASF2458
C:\Users\SOLDER~1\AppData\Local\Temp\ccgE0nth.s:22479  .debug_str:000000000000d276 .LASF2459
C:\Users\SOLDER~1\AppData\Local\Temp\ccgE0nth.s:27199  .debug_str:000000000002047d .LASF2460
C:\Users\SOLDER~1\AppData\Local\Temp\ccgE0nth.s:19701  .debug_str:0000000000001da4 .LASF2461
C:\Users\SOLDER~1\AppData\Local\Temp\ccgE0nth.s:28657  .debug_str:00000000000263d1 .LASF2462
C:\Users\SOLDER~1\AppData\Local\Temp\ccgE0nth.s:22341  .debug_str:000000000000c920 .LASF2463
C:\Users\SOLDER~1\AppData\Local\Temp\ccgE0nth.s:28873  .debug_str:00000000000271fe .LASF2464
C:\Users\SOLDER~1\AppData\Local\Temp\ccgE0nth.s:21397  .debug_str:0000000000008b22 .LASF2465
C:\Users\SOLDER~1\AppData\Local\Temp\ccgE0nth.s:22603  .debug_str:000000000000da91 .LASF2466
C:\Users\SOLDER~1\AppData\Local\Temp\ccgE0nth.s:23047  .debug_str:000000000000f6e8 .LASF2467
C:\Users\SOLDER~1\AppData\Local\Temp\ccgE0nth.s:21269  .debug_str:00000000000082e2 .LASF2468
C:\Users\SOLDER~1\AppData\Local\Temp\ccgE0nth.s:20187  .debug_str:0000000000003d04 .LASF2469
C:\Users\SOLDER~1\AppData\Local\Temp\ccgE0nth.s:26199  .debug_str:000000000001c371 .LASF2470
C:\Users\SOLDER~1\AppData\Local\Temp\ccgE0nth.s:28597  .debug_str:0000000000025fb1 .LASF2471
C:\Users\SOLDER~1\AppData\Local\Temp\ccgE0nth.s:27629  .debug_str:0000000000022018 .LASF2472
C:\Users\SOLDER~1\AppData\Local\Temp\ccgE0nth.s:26087  .debug_str:000000000001bbb6 .LASF2473
C:\Users\SOLDER~1\AppData\Local\Temp\ccgE0nth.s:24259  .debug_str:00000000000146dd .LASF2474
C:\Users\SOLDER~1\AppData\Local\Temp\ccgE0nth.s:30193  .debug_str:000000000002c7c0 .LASF2475
C:\Users\SOLDER~1\AppData\Local\Temp\ccgE0nth.s:30807  .debug_str:000000000002ef25 .LASF2476
C:\Users\SOLDER~1\AppData\Local\Temp\ccgE0nth.s:29883  .debug_str:000000000002b394 .LASF2477
C:\Users\SOLDER~1\AppData\Local\Temp\ccgE0nth.s:20121  .debug_str:00000000000038bc .LASF2478
C:\Users\SOLDER~1\AppData\Local\Temp\ccgE0nth.s:30453  .debug_str:000000000002d8ae .LASF2479
C:\Users\SOLDER~1\AppData\Local\Temp\ccgE0nth.s:27077  .debug_str:000000000001fce9 .LASF2480
C:\Users\SOLDER~1\AppData\Local\Temp\ccgE0nth.s:22553  .debug_str:000000000000d755 .LASF2481
C:\Users\SOLDER~1\AppData\Local\Temp\ccgE0nth.s:28123  .debug_str:000000000002400d .LASF2482
C:\Users\SOLDER~1\AppData\Local\Temp\ccgE0nth.s:24291  .debug_str:00000000000148d5 .LASF2483
C:\Users\SOLDER~1\AppData\Local\Temp\ccgE0nth.s:27441  .debug_str:0000000000021419 .LASF2484
C:\Users\SOLDER~1\AppData\Local\Temp\ccgE0nth.s:25885  .debug_str:000000000001af3d .LASF2485
C:\Users\SOLDER~1\AppData\Local\Temp\ccgE0nth.s:21159  .debug_str:0000000000007b84 .LASF2486
C:\Users\SOLDER~1\AppData\Local\Temp\ccgE0nth.s:28623  .debug_str:0000000000026161 .LASF2487
C:\Users\SOLDER~1\AppData\Local\Temp\ccgE0nth.s:25959  .debug_str:000000000001b3ac .LASF2488
C:\Users\SOLDER~1\AppData\Local\Temp\ccgE0nth.s:25405  .debug_str:0000000000019080 .LASF2489
C:\Users\SOLDER~1\AppData\Local\Temp\ccgE0nth.s:30115  .debug_str:000000000002c2e6 .LASF2490
C:\Users\SOLDER~1\AppData\Local\Temp\ccgE0nth.s:21023  .debug_str:00000000000072f9 .LASF2491
C:\Users\SOLDER~1\AppData\Local\Temp\ccgE0nth.s:25569  .debug_str:0000000000019b06 .LASF2492
C:\Users\SOLDER~1\AppData\Local\Temp\ccgE0nth.s:30731  .debug_str:000000000002ea80 .LASF2493
C:\Users\SOLDER~1\AppData\Local\Temp\ccgE0nth.s:20211  .debug_str:0000000000003e8b .LASF2494
C:\Users\SOLDER~1\AppData\Local\Temp\ccgE0nth.s:26083  .debug_str:000000000001bb7c .LASF2495
C:\Users\SOLDER~1\AppData\Local\Temp\ccgE0nth.s:25473  .debug_str:00000000000194f9 .LASF2496
C:\Users\SOLDER~1\AppData\Local\Temp\ccgE0nth.s:27255  .debug_str:0000000000020815 .LASF2497
C:\Users\SOLDER~1\AppData\Local\Temp\ccgE0nth.s:25517  .debug_str:00000000000197e5 .LASF2498
GAS LISTING C:\Users\SOLDER~1\AppData\Local\Temp\ccgE0nth.s 			page 71


C:\Users\SOLDER~1\AppData\Local\Temp\ccgE0nth.s:28549  .debug_str:0000000000025c43 .LASF2499
C:\Users\SOLDER~1\AppData\Local\Temp\ccgE0nth.s:29169  .debug_str:0000000000028552 .LASF2500
C:\Users\SOLDER~1\AppData\Local\Temp\ccgE0nth.s:25613  .debug_str:0000000000019d9b .LASF2501
C:\Users\SOLDER~1\AppData\Local\Temp\ccgE0nth.s:29731  .debug_str:000000000002a96f .LASF2502
C:\Users\SOLDER~1\AppData\Local\Temp\ccgE0nth.s:22235  .debug_str:000000000000c1bc .LASF2503
C:\Users\SOLDER~1\AppData\Local\Temp\ccgE0nth.s:25161  .debug_str:00000000000180c4 .LASF2504
C:\Users\SOLDER~1\AppData\Local\Temp\ccgE0nth.s:26337  .debug_str:000000000001cc85 .LASF2505
C:\Users\SOLDER~1\AppData\Local\Temp\ccgE0nth.s:23573  .debug_str:000000000001194a .LASF2506
C:\Users\SOLDER~1\AppData\Local\Temp\ccgE0nth.s:25955  .debug_str:000000000001b371 .LASF2507
C:\Users\SOLDER~1\AppData\Local\Temp\ccgE0nth.s:24381  .debug_str:0000000000014ee2 .LASF2508
C:\Users\SOLDER~1\AppData\Local\Temp\ccgE0nth.s:21765  .debug_str:000000000000a388 .LASF2509
C:\Users\SOLDER~1\AppData\Local\Temp\ccgE0nth.s:21479  .debug_str:00000000000090b0 .LASF2510
C:\Users\SOLDER~1\AppData\Local\Temp\ccgE0nth.s:19407  .debug_str:0000000000000a98 .LASF2511
C:\Users\SOLDER~1\AppData\Local\Temp\ccgE0nth.s:20829  .debug_str:000000000000660b .LASF2512
C:\Users\SOLDER~1\AppData\Local\Temp\ccgE0nth.s:20407  .debug_str:0000000000004ad0 .LASF2513
C:\Users\SOLDER~1\AppData\Local\Temp\ccgE0nth.s:20147  .debug_str:0000000000003a70 .LASF2514
C:\Users\SOLDER~1\AppData\Local\Temp\ccgE0nth.s:22027  .debug_str:000000000000b4b3 .LASF2515
C:\Users\SOLDER~1\AppData\Local\Temp\ccgE0nth.s:25431  .debug_str:0000000000019216 .LASF2516
C:\Users\SOLDER~1\AppData\Local\Temp\ccgE0nth.s:20583  .debug_str:0000000000005593 .LASF2517
C:\Users\SOLDER~1\AppData\Local\Temp\ccgE0nth.s:22801  .debug_str:000000000000e779 .LASF2518
C:\Users\SOLDER~1\AppData\Local\Temp\ccgE0nth.s:28305  .debug_str:0000000000024c29 .LASF2519
C:\Users\SOLDER~1\AppData\Local\Temp\ccgE0nth.s:21531  .debug_str:000000000000943d .LASF2520
C:\Users\SOLDER~1\AppData\Local\Temp\ccgE0nth.s:29807  .debug_str:000000000002ae51 .LASF2521
C:\Users\SOLDER~1\AppData\Local\Temp\ccgE0nth.s:22309  .debug_str:000000000000c6f1 .LASF2522
C:\Users\SOLDER~1\AppData\Local\Temp\ccgE0nth.s:28081  .debug_str:0000000000023d45 .LASF2523
C:\Users\SOLDER~1\AppData\Local\Temp\ccgE0nth.s:23121  .debug_str:000000000000fc01 .LASF2524
C:\Users\SOLDER~1\AppData\Local\Temp\ccgE0nth.s:28725  .debug_str:000000000002685f .LASF2525
C:\Users\SOLDER~1\AppData\Local\Temp\ccgE0nth.s:20431  .debug_str:0000000000004c7b .LASF2526
C:\Users\SOLDER~1\AppData\Local\Temp\ccgE0nth.s:20051  .debug_str:0000000000003453 .LASF2527
C:\Users\SOLDER~1\AppData\Local\Temp\ccgE0nth.s:27485  .debug_str:00000000000216f5 .LASF2528
C:\Users\SOLDER~1\AppData\Local\Temp\ccgE0nth.s:25449  .debug_str:000000000001934f .LASF2529
C:\Users\SOLDER~1\AppData\Local\Temp\ccgE0nth.s:20507  .debug_str:00000000000050ef .LASF2530
C:\Users\SOLDER~1\AppData\Local\Temp\ccgE0nth.s:29247  .debug_str:0000000000028a72 .LASF2531
C:\Users\SOLDER~1\AppData\Local\Temp\ccgE0nth.s:20457  .debug_str:0000000000004e0f .LASF2532
C:\Users\SOLDER~1\AppData\Local\Temp\ccgE0nth.s:30593  .debug_str:000000000002e18a .LASF2533
C:\Users\SOLDER~1\AppData\Local\Temp\ccgE0nth.s:19657  .debug_str:0000000000001a8f .LASF2534
C:\Users\SOLDER~1\AppData\Local\Temp\ccgE0nth.s:20313  .debug_str:00000000000044e6 .LASF2535
C:\Users\SOLDER~1\AppData\Local\Temp\ccgE0nth.s:25619  .debug_str:0000000000019de7 .LASF2536
C:\Users\SOLDER~1\AppData\Local\Temp\ccgE0nth.s:27181  .debug_str:0000000000020388 .LASF2537
C:\Users\SOLDER~1\AppData\Local\Temp\ccgE0nth.s:19975  .debug_str:0000000000002f71 .LASF2538
C:\Users\SOLDER~1\AppData\Local\Temp\ccgE0nth.s:23021  .debug_str:000000000000f53d .LASF2539
C:\Users\SOLDER~1\AppData\Local\Temp\ccgE0nth.s:25931  .debug_str:000000000001b1eb .LASF2540
C:\Users\SOLDER~1\AppData\Local\Temp\ccgE0nth.s:29853  .debug_str:000000000002b1c1 .LASF2541
C:\Users\SOLDER~1\AppData\Local\Temp\ccgE0nth.s:20205  .debug_str:0000000000003e27 .LASF2542
C:\Users\SOLDER~1\AppData\Local\Temp\ccgE0nth.s:25655  .debug_str:000000000001a03a .LASF2543
C:\Users\SOLDER~1\AppData\Local\Temp\ccgE0nth.s:23757  .debug_str:00000000000124ac .LASF2544
C:\Users\SOLDER~1\AppData\Local\Temp\ccgE0nth.s:19487  .debug_str:0000000000000fc7 .LASF2545
C:\Users\SOLDER~1\AppData\Local\Temp\ccgE0nth.s:29971  .debug_str:000000000002b94d .LASF2546
C:\Users\SOLDER~1\AppData\Local\Temp\ccgE0nth.s:21077  .debug_str:000000000000765b .LASF2547
C:\Users\SOLDER~1\AppData\Local\Temp\ccgE0nth.s:29155  .debug_str:000000000002847b .LASF2548
C:\Users\SOLDER~1\AppData\Local\Temp\ccgE0nth.s:22669  .debug_str:000000000000debf .LASF2549
C:\Users\SOLDER~1\AppData\Local\Temp\ccgE0nth.s:28519  .debug_str:0000000000025a4c .LASF2550
C:\Users\SOLDER~1\AppData\Local\Temp\ccgE0nth.s:24209  .debug_str:000000000001437d .LASF2551
C:\Users\SOLDER~1\AppData\Local\Temp\ccgE0nth.s:21973  .debug_str:000000000000b157 .LASF2552
C:\Users\SOLDER~1\AppData\Local\Temp\ccgE0nth.s:25803  .debug_str:000000000001a9b2 .LASF2553
C:\Users\SOLDER~1\AppData\Local\Temp\ccgE0nth.s:21839  .debug_str:000000000000a8a5 .LASF2554
C:\Users\SOLDER~1\AppData\Local\Temp\ccgE0nth.s:27283  .debug_str:00000000000209f2 .LASF2555
GAS LISTING C:\Users\SOLDER~1\AppData\Local\Temp\ccgE0nth.s 			page 72


C:\Users\SOLDER~1\AppData\Local\Temp\ccgE0nth.s:20547  .debug_str:0000000000005392 .LASF2556
C:\Users\SOLDER~1\AppData\Local\Temp\ccgE0nth.s:25527  .debug_str:0000000000019860 .LASF2557
C:\Users\SOLDER~1\AppData\Local\Temp\ccgE0nth.s:25571  .debug_str:0000000000019b29 .LASF2558
C:\Users\SOLDER~1\AppData\Local\Temp\ccgE0nth.s:25901  .debug_str:000000000001b034 .LASF2559
C:\Users\SOLDER~1\AppData\Local\Temp\ccgE0nth.s:20047  .debug_str:0000000000003408 .LASF2560
C:\Users\SOLDER~1\AppData\Local\Temp\ccgE0nth.s:27379  .debug_str:0000000000021026 .LASF2561
C:\Users\SOLDER~1\AppData\Local\Temp\ccgE0nth.s:25165  .debug_str:000000000001810f .LASF2562
C:\Users\SOLDER~1\AppData\Local\Temp\ccgE0nth.s:28983  .debug_str:0000000000027934 .LASF2563
C:\Users\SOLDER~1\AppData\Local\Temp\ccgE0nth.s:30199  .debug_str:000000000002c801 .LASF2564
C:\Users\SOLDER~1\AppData\Local\Temp\ccgE0nth.s:30627  .debug_str:000000000002e398 .LASF2565
C:\Users\SOLDER~1\AppData\Local\Temp\ccgE0nth.s:23619  .debug_str:0000000000011c2c .LASF2566
C:\Users\SOLDER~1\AppData\Local\Temp\ccgE0nth.s:20553  .debug_str:00000000000053eb .LASF2567
C:\Users\SOLDER~1\AppData\Local\Temp\ccgE0nth.s:28415  .debug_str:000000000002534e .LASF2568
C:\Users\SOLDER~1\AppData\Local\Temp\ccgE0nth.s:22175  .debug_str:000000000000bdfc .LASF2569
C:\Users\SOLDER~1\AppData\Local\Temp\ccgE0nth.s:22201  .debug_str:000000000000bf86 .LASF2570
C:\Users\SOLDER~1\AppData\Local\Temp\ccgE0nth.s:23779  .debug_str:0000000000012661 .LASF2571
C:\Users\SOLDER~1\AppData\Local\Temp\ccgE0nth.s:27167  .debug_str:0000000000020289 .LASF2572
C:\Users\SOLDER~1\AppData\Local\Temp\ccgE0nth.s:26621  .debug_str:000000000001df28 .LASF2573
C:\Users\SOLDER~1\AppData\Local\Temp\ccgE0nth.s:19933  .debug_str:0000000000002c87 .LASF2574
C:\Users\SOLDER~1\AppData\Local\Temp\ccgE0nth.s:24771  .debug_str:0000000000016748 .LASF2575
C:\Users\SOLDER~1\AppData\Local\Temp\ccgE0nth.s:25981  .debug_str:000000000001b519 .LASF2576
C:\Users\SOLDER~1\AppData\Local\Temp\ccgE0nth.s:22829  .debug_str:000000000000e955 .LASF2577
C:\Users\SOLDER~1\AppData\Local\Temp\ccgE0nth.s:26627  .debug_str:000000000001df78 .LASF2578
C:\Users\SOLDER~1\AppData\Local\Temp\ccgE0nth.s:20931  .debug_str:0000000000006cc1 .LASF2579
C:\Users\SOLDER~1\AppData\Local\Temp\ccgE0nth.s:22313  .debug_str:000000000000c731 .LASF2580
C:\Users\SOLDER~1\AppData\Local\Temp\ccgE0nth.s:30603  .debug_str:000000000002e218 .LASF2581
C:\Users\SOLDER~1\AppData\Local\Temp\ccgE0nth.s:28363  .debug_str:0000000000024fff .LASF2582
C:\Users\SOLDER~1\AppData\Local\Temp\ccgE0nth.s:28655  .debug_str:00000000000263b8 .LASF2583
C:\Users\SOLDER~1\AppData\Local\Temp\ccgE0nth.s:27433  .debug_str:00000000000213a5 .LASF2584
C:\Users\SOLDER~1\AppData\Local\Temp\ccgE0nth.s:26779  .debug_str:000000000001e96d .LASF2585
C:\Users\SOLDER~1\AppData\Local\Temp\ccgE0nth.s:22955  .debug_str:000000000000f0fc .LASF2586
C:\Users\SOLDER~1\AppData\Local\Temp\ccgE0nth.s:24927  .debug_str:000000000001712f .LASF2587
C:\Users\SOLDER~1\AppData\Local\Temp\ccgE0nth.s:19567  .debug_str:00000000000014ee .LASF2588
C:\Users\SOLDER~1\AppData\Local\Temp\ccgE0nth.s:22989  .debug_str:000000000000f32e .LASF2589
C:\Users\SOLDER~1\AppData\Local\Temp\ccgE0nth.s:22771  .debug_str:000000000000e5ac .LASF2590
C:\Users\SOLDER~1\AppData\Local\Temp\ccgE0nth.s:25765  .debug_str:000000000001a74e .LASF2591
C:\Users\SOLDER~1\AppData\Local\Temp\ccgE0nth.s:20489  .debug_str:0000000000004fea .LASF2592
C:\Users\SOLDER~1\AppData\Local\Temp\ccgE0nth.s:27021  .debug_str:000000000001f960 .LASF2593
C:\Users\SOLDER~1\AppData\Local\Temp\ccgE0nth.s:26719  .debug_str:000000000001e531 .LASF2594
C:\Users\SOLDER~1\AppData\Local\Temp\ccgE0nth.s:25337  .debug_str:0000000000018bd4 .LASF2595
C:\Users\SOLDER~1\AppData\Local\Temp\ccgE0nth.s:19675  .debug_str:0000000000001bce .LASF2596
C:\Users\SOLDER~1\AppData\Local\Temp\ccgE0nth.s:23661  .debug_str:0000000000011ec7 .LASF2597
C:\Users\SOLDER~1\AppData\Local\Temp\ccgE0nth.s:30201  .debug_str:000000000002c826 .LASF2598
C:\Users\SOLDER~1\AppData\Local\Temp\ccgE0nth.s:22015  .debug_str:000000000000b3e5 .LASF2599
C:\Users\SOLDER~1\AppData\Local\Temp\ccgE0nth.s:26343  .debug_str:000000000001ccea .LASF2600
C:\Users\SOLDER~1\AppData\Local\Temp\ccgE0nth.s:20271  .debug_str:000000000000425a .LASF2601
C:\Users\SOLDER~1\AppData\Local\Temp\ccgE0nth.s:22511  .debug_str:000000000000d490 .LASF2602
C:\Users\SOLDER~1\AppData\Local\Temp\ccgE0nth.s:30215  .debug_str:000000000002c910 .LASF2603
C:\Users\SOLDER~1\AppData\Local\Temp\ccgE0nth.s:25811  .debug_str:000000000001aa31 .LASF2604
C:\Users\SOLDER~1\AppData\Local\Temp\ccgE0nth.s:25059  .debug_str:00000000000179ec .LASF2605
C:\Users\SOLDER~1\AppData\Local\Temp\ccgE0nth.s:21153  .debug_str:0000000000007b0d .LASF2606
C:\Users\SOLDER~1\AppData\Local\Temp\ccgE0nth.s:26825  .debug_str:000000000001ec51 .LASF2607
C:\Users\SOLDER~1\AppData\Local\Temp\ccgE0nth.s:30647  .debug_str:000000000002e4dc .LASF2608
C:\Users\SOLDER~1\AppData\Local\Temp\ccgE0nth.s:25237  .debug_str:0000000000018587 .LASF2609
C:\Users\SOLDER~1\AppData\Local\Temp\ccgE0nth.s:24267  .debug_str:000000000001476b .LASF2610
C:\Users\SOLDER~1\AppData\Local\Temp\ccgE0nth.s:23565  .debug_str:00000000000118b6 .LASF2611
C:\Users\SOLDER~1\AppData\Local\Temp\ccgE0nth.s:29485  .debug_str:0000000000029976 .LASF2612
GAS LISTING C:\Users\SOLDER~1\AppData\Local\Temp\ccgE0nth.s 			page 73


C:\Users\SOLDER~1\AppData\Local\Temp\ccgE0nth.s:23083  .debug_str:000000000000f97c .LASF2613
C:\Users\SOLDER~1\AppData\Local\Temp\ccgE0nth.s:20275  .debug_str:000000000000428f .LASF2614
C:\Users\SOLDER~1\AppData\Local\Temp\ccgE0nth.s:19345  .debug_str:00000000000005c5 .LASF2615
C:\Users\SOLDER~1\AppData\Local\Temp\ccgE0nth.s:26223  .debug_str:000000000001c4c7 .LASF2616
C:\Users\SOLDER~1\AppData\Local\Temp\ccgE0nth.s:28961  .debug_str:00000000000277dd .LASF2617
C:\Users\SOLDER~1\AppData\Local\Temp\ccgE0nth.s:20805  .debug_str:0000000000006480 .LASF2618
C:\Users\SOLDER~1\AppData\Local\Temp\ccgE0nth.s:27065  .debug_str:000000000001fc29 .LASF2619
C:\Users\SOLDER~1\AppData\Local\Temp\ccgE0nth.s:27121  .debug_str:000000000001ffab .LASF2620
C:\Users\SOLDER~1\AppData\Local\Temp\ccgE0nth.s:25261  .debug_str:0000000000018728 .LASF2621
C:\Users\SOLDER~1\AppData\Local\Temp\ccgE0nth.s:27075  .debug_str:000000000001fcc3 .LASF2622
C:\Users\SOLDER~1\AppData\Local\Temp\ccgE0nth.s:22443  .debug_str:000000000000d023 .LASF2623
C:\Users\SOLDER~1\AppData\Local\Temp\ccgE0nth.s:27781  .debug_str:00000000000229a8 .LASF2624
C:\Users\SOLDER~1\AppData\Local\Temp\ccgE0nth.s:21387  .debug_str:0000000000008a86 .LASF2625
C:\Users\SOLDER~1\AppData\Local\Temp\ccgE0nth.s:23325  .debug_str:0000000000010933 .LASF2626
C:\Users\SOLDER~1\AppData\Local\Temp\ccgE0nth.s:19503  .debug_str:00000000000010b3 .LASF2627
C:\Users\SOLDER~1\AppData\Local\Temp\ccgE0nth.s:19909  .debug_str:0000000000002b2c .LASF2628
C:\Users\SOLDER~1\AppData\Local\Temp\ccgE0nth.s:29115  .debug_str:00000000000281fd .LASF2629
C:\Users\SOLDER~1\AppData\Local\Temp\ccgE0nth.s:29613  .debug_str:000000000002a214 .LASF2630
C:\Users\SOLDER~1\AppData\Local\Temp\ccgE0nth.s:27305  .debug_str:0000000000020b71 .LASF2631
C:\Users\SOLDER~1\AppData\Local\Temp\ccgE0nth.s:20761  .debug_str:0000000000006198 .LASF2632
C:\Users\SOLDER~1\AppData\Local\Temp\ccgE0nth.s:30771  .debug_str:000000000002ecde .LASF2633
C:\Users\SOLDER~1\AppData\Local\Temp\ccgE0nth.s:23479  .debug_str:00000000000112f7 .LASF2634
C:\Users\SOLDER~1\AppData\Local\Temp\ccgE0nth.s:22871  .debug_str:000000000000ebb5 .LASF2635
C:\Users\SOLDER~1\AppData\Local\Temp\ccgE0nth.s:27925  .debug_str:000000000002333a .LASF2636
C:\Users\SOLDER~1\AppData\Local\Temp\ccgE0nth.s:29047  .debug_str:0000000000027d81 .LASF2637
C:\Users\SOLDER~1\AppData\Local\Temp\ccgE0nth.s:27005  .debug_str:000000000001f86e .LASF2638
C:\Users\SOLDER~1\AppData\Local\Temp\ccgE0nth.s:19601  .debug_str:000000000000170d .LASF2639
C:\Users\SOLDER~1\AppData\Local\Temp\ccgE0nth.s:25017  .debug_str:0000000000017733 .LASF2640
C:\Users\SOLDER~1\AppData\Local\Temp\ccgE0nth.s:29509  .debug_str:0000000000029b1a .LASF2641
C:\Users\SOLDER~1\AppData\Local\Temp\ccgE0nth.s:21035  .debug_str:00000000000073c0 .LASF2642
C:\Users\SOLDER~1\AppData\Local\Temp\ccgE0nth.s:27747  .debug_str:0000000000022755 .LASF2643
C:\Users\SOLDER~1\AppData\Local\Temp\ccgE0nth.s:22525  .debug_str:000000000000d58f .LASF2644
C:\Users\SOLDER~1\AppData\Local\Temp\ccgE0nth.s:26137  .debug_str:000000000001bf23 .LASF2645
C:\Users\SOLDER~1\AppData\Local\Temp\ccgE0nth.s:24481  .debug_str:000000000001555c .LASF2646
C:\Users\SOLDER~1\AppData\Local\Temp\ccgE0nth.s:24517  .debug_str:00000000000157ba .LASF2647
C:\Users\SOLDER~1\AppData\Local\Temp\ccgE0nth.s:27341  .debug_str:0000000000020d99 .LASF2648
C:\Users\SOLDER~1\AppData\Local\Temp\ccgE0nth.s:22761  .debug_str:000000000000e51b .LASF2649
C:\Users\SOLDER~1\AppData\Local\Temp\ccgE0nth.s:28991  .debug_str:000000000002799e .LASF2650
C:\Users\SOLDER~1\AppData\Local\Temp\ccgE0nth.s:21143  .debug_str:0000000000007a88 .LASF2651
C:\Users\SOLDER~1\AppData\Local\Temp\ccgE0nth.s:26195  .debug_str:000000000001c301 .LASF2652
C:\Users\SOLDER~1\AppData\Local\Temp\ccgE0nth.s:21747  .debug_str:000000000000a258 .LASF2653
C:\Users\SOLDER~1\AppData\Local\Temp\ccgE0nth.s:19877  .debug_str:0000000000002926 .LASF2654
C:\Users\SOLDER~1\AppData\Local\Temp\ccgE0nth.s:19857  .debug_str:00000000000027b5 .LASF2655
C:\Users\SOLDER~1\AppData\Local\Temp\ccgE0nth.s:25925  .debug_str:000000000001b186 .LASF2656
C:\Users\SOLDER~1\AppData\Local\Temp\ccgE0nth.s:22917  .debug_str:000000000000eea4 .LASF2657
C:\Users\SOLDER~1\AppData\Local\Temp\ccgE0nth.s:20597  .debug_str:000000000000566d .LASF2658
C:\Users\SOLDER~1\AppData\Local\Temp\ccgE0nth.s:27587  .debug_str:0000000000021d81 .LASF2659
C:\Users\SOLDER~1\AppData\Local\Temp\ccgE0nth.s:26705  .debug_str:000000000001e442 .LASF2660
C:\Users\SOLDER~1\AppData\Local\Temp\ccgE0nth.s:25729  .debug_str:000000000001a4f0 .LASF2661
C:\Users\SOLDER~1\AppData\Local\Temp\ccgE0nth.s:26671  .debug_str:000000000001e237 .LASF2662
C:\Users\SOLDER~1\AppData\Local\Temp\ccgE0nth.s:23813  .debug_str:000000000001285e .LASF2663
C:\Users\SOLDER~1\AppData\Local\Temp\ccgE0nth.s:27375  .debug_str:0000000000020fc6 .LASF2664
C:\Users\SOLDER~1\AppData\Local\Temp\ccgE0nth.s:21921  .debug_str:000000000000addc .LASF2665
C:\Users\SOLDER~1\AppData\Local\Temp\ccgE0nth.s:22897  .debug_str:000000000000ed5e .LASF2666
C:\Users\SOLDER~1\AppData\Local\Temp\ccgE0nth.s:20015  .debug_str:0000000000003201 .LASF2667
C:\Users\SOLDER~1\AppData\Local\Temp\ccgE0nth.s:19523  .debug_str:0000000000001204 .LASF2668
C:\Users\SOLDER~1\AppData\Local\Temp\ccgE0nth.s:20335  .debug_str:0000000000004645 .LASF2669
GAS LISTING C:\Users\SOLDER~1\AppData\Local\Temp\ccgE0nth.s 			page 74


C:\Users\SOLDER~1\AppData\Local\Temp\ccgE0nth.s:28263  .debug_str:0000000000024973 .LASF2670
C:\Users\SOLDER~1\AppData\Local\Temp\ccgE0nth.s:27737  .debug_str:00000000000226bf .LASF2671
C:\Users\SOLDER~1\AppData\Local\Temp\ccgE0nth.s:28345  .debug_str:0000000000024ec7 .LASF2672
C:\Users\SOLDER~1\AppData\Local\Temp\ccgE0nth.s:28419  .debug_str:0000000000025391 .LASF2673
C:\Users\SOLDER~1\AppData\Local\Temp\ccgE0nth.s:27459  .debug_str:000000000002154d .LASF2674
C:\Users\SOLDER~1\AppData\Local\Temp\ccgE0nth.s:26803  .debug_str:000000000001eafc .LASF2675
C:\Users\SOLDER~1\AppData\Local\Temp\ccgE0nth.s:25573  .debug_str:0000000000019b4e .LASF2676
C:\Users\SOLDER~1\AppData\Local\Temp\ccgE0nth.s:25211  .debug_str:00000000000183f9 .LASF2677
C:\Users\SOLDER~1\AppData\Local\Temp\ccgE0nth.s:24637  .debug_str:0000000000015ecd .LASF2678
C:\Users\SOLDER~1\AppData\Local\Temp\ccgE0nth.s:23543  .debug_str:0000000000011762 .LASF2679
C:\Users\SOLDER~1\AppData\Local\Temp\ccgE0nth.s:20771  .debug_str:0000000000006243 .LASF2680
C:\Users\SOLDER~1\AppData\Local\Temp\ccgE0nth.s:21795  .debug_str:000000000000a581 .LASF2681
C:\Users\SOLDER~1\AppData\Local\Temp\ccgE0nth.s:30281  .debug_str:000000000002cd3b .LASF2682
C:\Users\SOLDER~1\AppData\Local\Temp\ccgE0nth.s:20167  .debug_str:0000000000003bce .LASF2683
C:\Users\SOLDER~1\AppData\Local\Temp\ccgE0nth.s:20203  .debug_str:0000000000003e00 .LASF2684
C:\Users\SOLDER~1\AppData\Local\Temp\ccgE0nth.s:26743  .debug_str:000000000001e703 .LASF2685
C:\Users\SOLDER~1\AppData\Local\Temp\ccgE0nth.s:27019  .debug_str:000000000001f939 .LASF2686
C:\Users\SOLDER~1\AppData\Local\Temp\ccgE0nth.s:28315  .debug_str:0000000000024cd6 .LASF2687
C:\Users\SOLDER~1\AppData\Local\Temp\ccgE0nth.s:25095  .debug_str:0000000000017c37 .LASF2688
C:\Users\SOLDER~1\AppData\Local\Temp\ccgE0nth.s:26695  .debug_str:000000000001e3b9 .LASF2689
C:\Users\SOLDER~1\AppData\Local\Temp\ccgE0nth.s:26597  .debug_str:000000000001dd70 .LASF2690
C:\Users\SOLDER~1\AppData\Local\Temp\ccgE0nth.s:25121  .debug_str:0000000000017df0 .LASF2691
C:\Users\SOLDER~1\AppData\Local\Temp\ccgE0nth.s:27837  .debug_str:0000000000022d76 .LASF2692
C:\Users\SOLDER~1\AppData\Local\Temp\ccgE0nth.s:20567  .debug_str:00000000000054af .LASF2693
C:\Users\SOLDER~1\AppData\Local\Temp\ccgE0nth.s:19769  .debug_str:00000000000021e3 .LASF2694
C:\Users\SOLDER~1\AppData\Local\Temp\ccgE0nth.s:30243  .debug_str:000000000002cad0 .LASF2695
C:\Users\SOLDER~1\AppData\Local\Temp\ccgE0nth.s:24025  .debug_str:000000000001366b .LASF2696
C:\Users\SOLDER~1\AppData\Local\Temp\ccgE0nth.s:23941  .debug_str:00000000000130c1 .LASF2697
C:\Users\SOLDER~1\AppData\Local\Temp\ccgE0nth.s:20371  .debug_str:00000000000048ae .LASF2698
C:\Users\SOLDER~1\AppData\Local\Temp\ccgE0nth.s:26421  .debug_str:000000000001d23f .LASF2699
C:\Users\SOLDER~1\AppData\Local\Temp\ccgE0nth.s:26693  .debug_str:000000000001e393 .LASF2700
C:\Users\SOLDER~1\AppData\Local\Temp\ccgE0nth.s:30791  .debug_str:000000000002ee22 .LASF2701
C:\Users\SOLDER~1\AppData\Local\Temp\ccgE0nth.s:26655  .debug_str:000000000001e13b .LASF2702
C:\Users\SOLDER~1\AppData\Local\Temp\ccgE0nth.s:22633  .debug_str:000000000000dc4c .LASF2703
C:\Users\SOLDER~1\AppData\Local\Temp\ccgE0nth.s:27271  .debug_str:000000000002091a .LASF2704
C:\Users\SOLDER~1\AppData\Local\Temp\ccgE0nth.s:20735  .debug_str:0000000000005faa .LASF2705
C:\Users\SOLDER~1\AppData\Local\Temp\ccgE0nth.s:22783  .debug_str:000000000000e65d .LASF2706
C:\Users\SOLDER~1\AppData\Local\Temp\ccgE0nth.s:30393  .debug_str:000000000002d4bb .LASF2707
C:\Users\SOLDER~1\AppData\Local\Temp\ccgE0nth.s:24287  .debug_str:0000000000014891 .LASF2708
C:\Users\SOLDER~1\AppData\Local\Temp\ccgE0nth.s:28545  .debug_str:0000000000025c09 .LASF2709
C:\Users\SOLDER~1\AppData\Local\Temp\ccgE0nth.s:29181  .debug_str:0000000000028611 .LASF2710
C:\Users\SOLDER~1\AppData\Local\Temp\ccgE0nth.s:26667  .debug_str:000000000001e1f4 .LASF2711
C:\Users\SOLDER~1\AppData\Local\Temp\ccgE0nth.s:27063  .debug_str:000000000001fc03 .LASF2712
C:\Users\SOLDER~1\AppData\Local\Temp\ccgE0nth.s:25081  .debug_str:0000000000017b5a .LASF2713
C:\Users\SOLDER~1\AppData\Local\Temp\ccgE0nth.s:27397  .debug_str:000000000002116c .LASF2714
C:\Users\SOLDER~1\AppData\Local\Temp\ccgE0nth.s:21451  .debug_str:0000000000008ed3 .LASF2715
C:\Users\SOLDER~1\AppData\Local\Temp\ccgE0nth.s:20241  .debug_str:0000000000004050 .LASF2716
C:\Users\SOLDER~1\AppData\Local\Temp\ccgE0nth.s:21661  .debug_str:0000000000009c90 .LASF2717
C:\Users\SOLDER~1\AppData\Local\Temp\ccgE0nth.s:19431  .debug_str:0000000000000c25 .LASF2718
C:\Users\SOLDER~1\AppData\Local\Temp\ccgE0nth.s:19265  .debug_str:00000000000000a4 .LASF2719
C:\Users\SOLDER~1\AppData\Local\Temp\ccgE0nth.s:27125  .debug_str:000000000001ffe5 .LASF2720
C:\Users\SOLDER~1\AppData\Local\Temp\ccgE0nth.s:25191  .debug_str:00000000000182bb .LASF2721
C:\Users\SOLDER~1\AppData\Local\Temp\ccgE0nth.s:27931  .debug_str:00000000000233aa .LASF2722
C:\Users\SOLDER~1\AppData\Local\Temp\ccgE0nth.s:28171  .debug_str:0000000000024341 .LASF2723
C:\Users\SOLDER~1\AppData\Local\Temp\ccgE0nth.s:26469  .debug_str:000000000001d568 .LASF2724
C:\Users\SOLDER~1\AppData\Local\Temp\ccgE0nth.s:26549  .debug_str:000000000001da38 .LASF2725
C:\Users\SOLDER~1\AppData\Local\Temp\ccgE0nth.s:21829  .debug_str:000000000000a7f4 .LASF2726
GAS LISTING C:\Users\SOLDER~1\AppData\Local\Temp\ccgE0nth.s 			page 75


C:\Users\SOLDER~1\AppData\Local\Temp\ccgE0nth.s:24973  .debug_str:0000000000017427 .LASF2727
C:\Users\SOLDER~1\AppData\Local\Temp\ccgE0nth.s:19755  .debug_str:00000000000020e7 .LASF2728
C:\Users\SOLDER~1\AppData\Local\Temp\ccgE0nth.s:23219  .debug_str:0000000000010264 .LASF2729
C:\Users\SOLDER~1\AppData\Local\Temp\ccgE0nth.s:21423  .debug_str:0000000000008cba .LASF2730
C:\Users\SOLDER~1\AppData\Local\Temp\ccgE0nth.s:21567  .debug_str:00000000000096ba .LASF2731
C:\Users\SOLDER~1\AppData\Local\Temp\ccgE0nth.s:30171  .debug_str:000000000002c641 .LASF2732
C:\Users\SOLDER~1\AppData\Local\Temp\ccgE0nth.s:30303  .debug_str:000000000002cec4 .LASF2733
C:\Users\SOLDER~1\AppData\Local\Temp\ccgE0nth.s:28523  .debug_str:0000000000025a8c .LASF2734
C:\Users\SOLDER~1\AppData\Local\Temp\ccgE0nth.s:28365  .debug_str:0000000000025026 .LASF2735
C:\Users\SOLDER~1\AppData\Local\Temp\ccgE0nth.s:23039  .debug_str:000000000000f64e .LASF2736
C:\Users\SOLDER~1\AppData\Local\Temp\ccgE0nth.s:26479  .debug_str:000000000001d606 .LASF2737
C:\Users\SOLDER~1\AppData\Local\Temp\ccgE0nth.s:29145  .debug_str:00000000000283dd .LASF2738
C:\Users\SOLDER~1\AppData\Local\Temp\ccgE0nth.s:24623  .debug_str:0000000000015e16 .LASF2739
C:\Users\SOLDER~1\AppData\Local\Temp\ccgE0nth.s:23937  .debug_str:000000000001306f .LASF2740
C:\Users\SOLDER~1\AppData\Local\Temp\ccgE0nth.s:21319  .debug_str:0000000000008614 .LASF2741
C:\Users\SOLDER~1\AppData\Local\Temp\ccgE0nth.s:20161  .debug_str:0000000000003b5c .LASF2742
C:\Users\SOLDER~1\AppData\Local\Temp\ccgE0nth.s:25459  .debug_str:00000000000193f0 .LASF2743
C:\Users\SOLDER~1\AppData\Local\Temp\ccgE0nth.s:24541  .debug_str:00000000000158cd .LASF2744
C:\Users\SOLDER~1\AppData\Local\Temp\ccgE0nth.s:30455  .debug_str:000000000002d8c5 .LASF2745
C:\Users\SOLDER~1\AppData\Local\Temp\ccgE0nth.s:20013  .debug_str:00000000000031d6 .LASF2746
C:\Users\SOLDER~1\AppData\Local\Temp\ccgE0nth.s:28517  .debug_str:0000000000025a2f .LASF2747
C:\Users\SOLDER~1\AppData\Local\Temp\ccgE0nth.s:28147  .debug_str:00000000000241ac .LASF2748
C:\Users\SOLDER~1\AppData\Local\Temp\ccgE0nth.s:26641  .debug_str:000000000001e04b .LASF2749
C:\Users\SOLDER~1\AppData\Local\Temp\ccgE0nth.s:26413  .debug_str:000000000001d1b3 .LASF2750
C:\Users\SOLDER~1\AppData\Local\Temp\ccgE0nth.s:24875  .debug_str:0000000000016db1 .LASF2751
C:\Users\SOLDER~1\AppData\Local\Temp\ccgE0nth.s:29089  .debug_str:0000000000028043 .LASF2752
C:\Users\SOLDER~1\AppData\Local\Temp\ccgE0nth.s:20363  .debug_str:000000000000482c .LASF2753
C:\Users\SOLDER~1\AppData\Local\Temp\ccgE0nth.s:26107  .debug_str:000000000001bd09 .LASF2754
C:\Users\SOLDER~1\AppData\Local\Temp\ccgE0nth.s:30293  .debug_str:000000000002ce0d .LASF2755
C:\Users\SOLDER~1\AppData\Local\Temp\ccgE0nth.s:27393  .debug_str:000000000002111e .LASF2756
C:\Users\SOLDER~1\AppData\Local\Temp\ccgE0nth.s:28621  .debug_str:0000000000026142 .LASF2757
C:\Users\SOLDER~1\AppData\Local\Temp\ccgE0nth.s:29657  .debug_str:000000000002a4dc .LASF2758
C:\Users\SOLDER~1\AppData\Local\Temp\ccgE0nth.s:26927  .debug_str:000000000001f317 .LASF2759
C:\Users\SOLDER~1\AppData\Local\Temp\ccgE0nth.s:25831  .debug_str:000000000001ab77 .LASF2760
C:\Users\SOLDER~1\AppData\Local\Temp\ccgE0nth.s:25323  .debug_str:0000000000018b15 .LASF2761
C:\Users\SOLDER~1\AppData\Local\Temp\ccgE0nth.s:23767  .debug_str:000000000001255c .LASF2762
C:\Users\SOLDER~1\AppData\Local\Temp\ccgE0nth.s:23649  .debug_str:0000000000011e18 .LASF2763
C:\Users\SOLDER~1\AppData\Local\Temp\ccgE0nth.s:25309  .debug_str:00000000000189fd .LASF2764
C:\Users\SOLDER~1\AppData\Local\Temp\ccgE0nth.s:21917  .debug_str:000000000000ad9d .LASF2765
C:\Users\SOLDER~1\AppData\Local\Temp\ccgE0nth.s:20513  .debug_str:0000000000005149 .LASF2766
C:\Users\SOLDER~1\AppData\Local\Temp\ccgE0nth.s:22659  .debug_str:000000000000de16 .LASF2767
C:\Users\SOLDER~1\AppData\Local\Temp\ccgE0nth.s:30103  .debug_str:000000000002c236 .LASF2768
C:\Users\SOLDER~1\AppData\Local\Temp\ccgE0nth.s:26851  .debug_str:000000000001ee09 .LASF2769
C:\Users\SOLDER~1\AppData\Local\Temp\ccgE0nth.s:20105  .debug_str:00000000000037a2 .LASF2770
C:\Users\SOLDER~1\AppData\Local\Temp\ccgE0nth.s:20681  .debug_str:0000000000005c5c .LASF2771
C:\Users\SOLDER~1\AppData\Local\Temp\ccgE0nth.s:30283  .debug_str:000000000002cd62 .LASF2772
C:\Users\SOLDER~1\AppData\Local\Temp\ccgE0nth.s:27211  .debug_str:0000000000020548 .LASF2773
C:\Users\SOLDER~1\AppData\Local\Temp\ccgE0nth.s:24329  .debug_str:0000000000014b8a .LASF2774
C:\Users\SOLDER~1\AppData\Local\Temp\ccgE0nth.s:20509  .debug_str:0000000000005114 .LASF2775
C:\Users\SOLDER~1\AppData\Local\Temp\ccgE0nth.s:30263  .debug_str:000000000002cc17 .LASF2776
C:\Users\SOLDER~1\AppData\Local\Temp\ccgE0nth.s:23539  .debug_str:000000000001173a .LASF2777
C:\Users\SOLDER~1\AppData\Local\Temp\ccgE0nth.s:24867  .debug_str:0000000000016d37 .LASF2778
C:\Users\SOLDER~1\AppData\Local\Temp\ccgE0nth.s:21629  .debug_str:0000000000009a9f .LASF2779
C:\Users\SOLDER~1\AppData\Local\Temp\ccgE0nth.s:22061  .debug_str:000000000000b700 .LASF2780
C:\Users\SOLDER~1\AppData\Local\Temp\ccgE0nth.s:19721  .debug_str:0000000000001ede .LASF2781
C:\Users\SOLDER~1\AppData\Local\Temp\ccgE0nth.s:19565  .debug_str:00000000000014c7 .LASF2782
C:\Users\SOLDER~1\AppData\Local\Temp\ccgE0nth.s:29377  .debug_str:0000000000029297 .LASF2783
GAS LISTING C:\Users\SOLDER~1\AppData\Local\Temp\ccgE0nth.s 			page 76


C:\Users\SOLDER~1\AppData\Local\Temp\ccgE0nth.s:20257  .debug_str:0000000000004161 .LASF2784
C:\Users\SOLDER~1\AppData\Local\Temp\ccgE0nth.s:20285  .debug_str:0000000000004320 .LASF2785
C:\Users\SOLDER~1\AppData\Local\Temp\ccgE0nth.s:27303  .debug_str:0000000000020b4a .LASF2786
C:\Users\SOLDER~1\AppData\Local\Temp\ccgE0nth.s:25605  .debug_str:0000000000019d2a .LASF2787
C:\Users\SOLDER~1\AppData\Local\Temp\ccgE0nth.s:23939  .debug_str:000000000001309a .LASF2788
C:\Users\SOLDER~1\AppData\Local\Temp\ccgE0nth.s:23687  .debug_str:0000000000012074 .LASF2789
C:\Users\SOLDER~1\AppData\Local\Temp\ccgE0nth.s:22087  .debug_str:000000000000b869 .LASF2790
C:\Users\SOLDER~1\AppData\Local\Temp\ccgE0nth.s:24833  .debug_str:0000000000016b4f .LASF2791
C:\Users\SOLDER~1\AppData\Local\Temp\ccgE0nth.s:24819  .debug_str:0000000000016a59 .LASF2792
C:\Users\SOLDER~1\AppData\Local\Temp\ccgE0nth.s:21199  .debug_str:0000000000007e44 .LASF2793
C:\Users\SOLDER~1\AppData\Local\Temp\ccgE0nth.s:27399  .debug_str:0000000000021193 .LASF2794
C:\Users\SOLDER~1\AppData\Local\Temp\ccgE0nth.s:26675  .debug_str:000000000001e280 .LASF2795
C:\Users\SOLDER~1\AppData\Local\Temp\ccgE0nth.s:24083  .debug_str:0000000000013a71 .LASF2796
C:\Users\SOLDER~1\AppData\Local\Temp\ccgE0nth.s:20505  .debug_str:00000000000050d4 .LASF2797
C:\Users\SOLDER~1\AppData\Local\Temp\ccgE0nth.s:19349  .debug_str:0000000000000603 .LASF2798
C:\Users\SOLDER~1\AppData\Local\Temp\ccgE0nth.s:27707  .debug_str:00000000000224ea .LASF2799
C:\Users\SOLDER~1\AppData\Local\Temp\ccgE0nth.s:27041  .debug_str:000000000001fa9e .LASF2800
C:\Users\SOLDER~1\AppData\Local\Temp\ccgE0nth.s:26101  .debug_str:000000000001bcaa .LASF2801
C:\Users\SOLDER~1\AppData\Local\Temp\ccgE0nth.s:25047  .debug_str:00000000000178fd .LASF2802
C:\Users\SOLDER~1\AppData\Local\Temp\ccgE0nth.s:24473  .debug_str:00000000000154d2 .LASF2803
C:\Users\SOLDER~1\AppData\Local\Temp\ccgE0nth.s:26475  .debug_str:000000000001d5c3 .LASF2804
C:\Users\SOLDER~1\AppData\Local\Temp\ccgE0nth.s:22815  .debug_str:000000000000e871 .LASF2805
C:\Users\SOLDER~1\AppData\Local\Temp\ccgE0nth.s:21735  .debug_str:000000000000a16c .LASF2806
C:\Users\SOLDER~1\AppData\Local\Temp\ccgE0nth.s:21099  .debug_str:00000000000077bb .LASF2807
C:\Users\SOLDER~1\AppData\Local\Temp\ccgE0nth.s:19761  .debug_str:000000000000215b .LASF2808
C:\Users\SOLDER~1\AppData\Local\Temp\ccgE0nth.s:19473  .debug_str:0000000000000eec .LASF2809
C:\Users\SOLDER~1\AppData\Local\Temp\ccgE0nth.s:21339  .debug_str:000000000000876f .LASF2810
C:\Users\SOLDER~1\AppData\Local\Temp\ccgE0nth.s:29359  .debug_str:000000000002916b .LASF2811
C:\Users\SOLDER~1\AppData\Local\Temp\ccgE0nth.s:30175  .debug_str:000000000002c68d .LASF2812
C:\Users\SOLDER~1\AppData\Local\Temp\ccgE0nth.s:19727  .debug_str:0000000000001f44 .LASF2813
C:\Users\SOLDER~1\AppData\Local\Temp\ccgE0nth.s:26339  .debug_str:000000000001cc9d .LASF2814
C:\Users\SOLDER~1\AppData\Local\Temp\ccgE0nth.s:27235  .debug_str:00000000000206c6 .LASF2815
C:\Users\SOLDER~1\AppData\Local\Temp\ccgE0nth.s:19659  .debug_str:0000000000001ab0 .LASF2816
C:\Users\SOLDER~1\AppData\Local\Temp\ccgE0nth.s:26909  .debug_str:000000000001f1de .LASF2817
C:\Users\SOLDER~1\AppData\Local\Temp\ccgE0nth.s:24947  .debug_str:000000000001727c .LASF2818
C:\Users\SOLDER~1\AppData\Local\Temp\ccgE0nth.s:27165  .debug_str:0000000000020264 .LASF2819
C:\Users\SOLDER~1\AppData\Local\Temp\ccgE0nth.s:21009  .debug_str:0000000000007218 .LASF2820
C:\Users\SOLDER~1\AppData\Local\Temp\ccgE0nth.s:27563  .debug_str:0000000000021bf2 .LASF2821
C:\Users\SOLDER~1\AppData\Local\Temp\ccgE0nth.s:21211  .debug_str:0000000000007f10 .LASF2822
C:\Users\SOLDER~1\AppData\Local\Temp\ccgE0nth.s:20095  .debug_str:0000000000003713 .LASF2823
C:\Users\SOLDER~1\AppData\Local\Temp\ccgE0nth.s:25403  .debug_str:000000000001905a .LASF2824
C:\Users\SOLDER~1\AppData\Local\Temp\ccgE0nth.s:28183  .debug_str:0000000000024412 .LASF2825
C:\Users\SOLDER~1\AppData\Local\Temp\ccgE0nth.s:23613  .debug_str:0000000000011bc1 .LASF2826
C:\Users\SOLDER~1\AppData\Local\Temp\ccgE0nth.s:20387  .debug_str:00000000000049b5 .LASF2827
C:\Users\SOLDER~1\AppData\Local\Temp\ccgE0nth.s:27751  .debug_str:000000000002278b .LASF2828
C:\Users\SOLDER~1\AppData\Local\Temp\ccgE0nth.s:24531  .debug_str:0000000000015870 .LASF2829
C:\Users\SOLDER~1\AppData\Local\Temp\ccgE0nth.s:29277  .debug_str:0000000000028c45 .LASF2830
C:\Users\SOLDER~1\AppData\Local\Temp\ccgE0nth.s:26687  .debug_str:000000000001e32d .LASF2831
C:\Users\SOLDER~1\AppData\Local\Temp\ccgE0nth.s:30811  .debug_str:000000000002ef66 .LASF2832
C:\Users\SOLDER~1\AppData\Local\Temp\ccgE0nth.s:25581  .debug_str:0000000000019be3 .LASF2833
C:\Users\SOLDER~1\AppData\Local\Temp\ccgE0nth.s:23535  .debug_str:00000000000116f3 .LASF2834
C:\Users\SOLDER~1\AppData\Local\Temp\ccgE0nth.s:24811  .debug_str:00000000000169cc .LASF2835
C:\Users\SOLDER~1\AppData\Local\Temp\ccgE0nth.s:20757  .debug_str:0000000000006130 .LASF2836
C:\Users\SOLDER~1\AppData\Local\Temp\ccgE0nth.s:26267  .debug_str:000000000001c7b4 .LASF2837
C:\Users\SOLDER~1\AppData\Local\Temp\ccgE0nth.s:23475  .debug_str:00000000000112b1 .LASF2838
C:\Users\SOLDER~1\AppData\Local\Temp\ccgE0nth.s:20347  .debug_str:000000000000471a .LASF2839
C:\Users\SOLDER~1\AppData\Local\Temp\ccgE0nth.s:29495  .debug_str:0000000000029a39 .LASF2840
GAS LISTING C:\Users\SOLDER~1\AppData\Local\Temp\ccgE0nth.s 			page 77


C:\Users\SOLDER~1\AppData\Local\Temp\ccgE0nth.s:28955  .debug_str:000000000002776d .LASF2841
C:\Users\SOLDER~1\AppData\Local\Temp\ccgE0nth.s:26297  .debug_str:000000000001c9c2 .LASF2842
C:\Users\SOLDER~1\AppData\Local\Temp\ccgE0nth.s:27083  .debug_str:000000000001fd42 .LASF2843
C:\Users\SOLDER~1\AppData\Local\Temp\ccgE0nth.s:28875  .debug_str:0000000000027223 .LASF2844
C:\Users\SOLDER~1\AppData\Local\Temp\ccgE0nth.s:29203  .debug_str:00000000000287c1 .LASF2845
C:\Users\SOLDER~1\AppData\Local\Temp\ccgE0nth.s:22703  .debug_str:000000000000e0f8 .LASF2846
C:\Users\SOLDER~1\AppData\Local\Temp\ccgE0nth.s:26171  .debug_str:000000000001c16b .LASF2847
C:\Users\SOLDER~1\AppData\Local\Temp\ccgE0nth.s:30773  .debug_str:000000000002ecf8 .LASF2848
C:\Users\SOLDER~1\AppData\Local\Temp\ccgE0nth.s:26225  .debug_str:000000000001c4ed .LASF2849
C:\Users\SOLDER~1\AppData\Local\Temp\ccgE0nth.s:24129  .debug_str:0000000000013dd4 .LASF2850
C:\Users\SOLDER~1\AppData\Local\Temp\ccgE0nth.s:30337  .debug_str:000000000002d14c .LASF2851
C:\Users\SOLDER~1\AppData\Local\Temp\ccgE0nth.s:22531  .debug_str:000000000000d5f7 .LASF2852
C:\Users\SOLDER~1\AppData\Local\Temp\ccgE0nth.s:22143  .debug_str:000000000000bbd1 .LASF2853
C:\Users\SOLDER~1\AppData\Local\Temp\ccgE0nth.s:29637  .debug_str:000000000002a3a5 .LASF2854
C:\Users\SOLDER~1\AppData\Local\Temp\ccgE0nth.s:25865  .debug_str:000000000001adf0 .LASF2855
C:\Users\SOLDER~1\AppData\Local\Temp\ccgE0nth.s:30019  .debug_str:000000000002bc52 .LASF2856
C:\Users\SOLDER~1\AppData\Local\Temp\ccgE0nth.s:22355  .debug_str:000000000000ca1b .LASF2857
C:\Users\SOLDER~1\AppData\Local\Temp\ccgE0nth.s:26783  .debug_str:000000000001e9ab .LASF2858
C:\Users\SOLDER~1\AppData\Local\Temp\ccgE0nth.s:20585  .debug_str:00000000000055ac .LASF2859
C:\Users\SOLDER~1\AppData\Local\Temp\ccgE0nth.s:20119  .debug_str:0000000000003894 .LASF2860
C:\Users\SOLDER~1\AppData\Local\Temp\ccgE0nth.s:28857  .debug_str:00000000000270f8 .LASF2861
C:\Users\SOLDER~1\AppData\Local\Temp\ccgE0nth.s:21193  .debug_str:0000000000007de7 .LASF2862
C:\Users\SOLDER~1\AppData\Local\Temp\ccgE0nth.s:27391  .debug_str:00000000000210f7 .LASF2863
C:\Users\SOLDER~1\AppData\Local\Temp\ccgE0nth.s:26911  .debug_str:000000000001f1fe .LASF2864
C:\Users\SOLDER~1\AppData\Local\Temp\ccgE0nth.s:23715  .debug_str:0000000000012225 .LASF2865
C:\Users\SOLDER~1\AppData\Local\Temp\ccgE0nth.s:22237  .debug_str:000000000000c1d4 .LASF2866
C:\Users\SOLDER~1\AppData\Local\Temp\ccgE0nth.s:23415  .debug_str:0000000000010edf .LASF2867
C:\Users\SOLDER~1\AppData\Local\Temp\ccgE0nth.s:23995  .debug_str:0000000000013446 .LASF2868
C:\Users\SOLDER~1\AppData\Local\Temp\ccgE0nth.s:30679  .debug_str:000000000002e6f0 .LASF2869
C:\Users\SOLDER~1\AppData\Local\Temp\ccgE0nth.s:24007  .debug_str:000000000001351e .LASF2870
C:\Users\SOLDER~1\AppData\Local\Temp\ccgE0nth.s:30157  .debug_str:000000000002c564 .LASF2871
C:\Users\SOLDER~1\AppData\Local\Temp\ccgE0nth.s:30271  .debug_str:000000000002cc95 .LASF2872
C:\Users\SOLDER~1\AppData\Local\Temp\ccgE0nth.s:25877  .debug_str:000000000001aeb9 .LASF2873
C:\Users\SOLDER~1\AppData\Local\Temp\ccgE0nth.s:30187  .debug_str:000000000002c75f .LASF2874
C:\Users\SOLDER~1\AppData\Local\Temp\ccgE0nth.s:27369  .debug_str:0000000000020f5b .LASF2875
C:\Users\SOLDER~1\AppData\Local\Temp\ccgE0nth.s:23013  .debug_str:000000000000f49e .LASF2876
C:\Users\SOLDER~1\AppData\Local\Temp\ccgE0nth.s:23115  .debug_str:000000000000fb85 .LASF2877
C:\Users\SOLDER~1\AppData\Local\Temp\ccgE0nth.s:23025  .debug_str:000000000000f56a .LASF2878
C:\Users\SOLDER~1\AppData\Local\Temp\ccgE0nth.s:25041  .debug_str:00000000000178bb .LASF2879
C:\Users\SOLDER~1\AppData\Local\Temp\ccgE0nth.s:30639  .debug_str:000000000002e457 .LASF2880
C:\Users\SOLDER~1\AppData\Local\Temp\ccgE0nth.s:22545  .debug_str:000000000000d6de .LASF2881
C:\Users\SOLDER~1\AppData\Local\Temp\ccgE0nth.s:30719  .debug_str:000000000002e9ae .LASF2882
C:\Users\SOLDER~1\AppData\Local\Temp\ccgE0nth.s:29859  .debug_str:000000000002b219 .LASF2883
C:\Users\SOLDER~1\AppData\Local\Temp\ccgE0nth.s:29319  .debug_str:0000000000028ec8 .LASF2884
C:\Users\SOLDER~1\AppData\Local\Temp\ccgE0nth.s:28047  .debug_str:0000000000023b07 .LASF2885
C:\Users\SOLDER~1\AppData\Local\Temp\ccgE0nth.s:20699  .debug_str:0000000000005d5e .LASF2886
C:\Users\SOLDER~1\AppData\Local\Temp\ccgE0nth.s:21309  .debug_str:0000000000008576 .LASF2887
C:\Users\SOLDER~1\AppData\Local\Temp\ccgE0nth.s:22023  .debug_str:000000000000b45d .LASF2888
C:\Users\SOLDER~1\AppData\Local\Temp\ccgE0nth.s:22073  .debug_str:000000000000b7a5 .LASF2889
C:\Users\SOLDER~1\AppData\Local\Temp\ccgE0nth.s:21011  .debug_str:0000000000007238 .LASF2890
C:\Users\SOLDER~1\AppData\Local\Temp\ccgE0nth.s:20045  .debug_str:00000000000033de .LASF2891
C:\Users\SOLDER~1\AppData\Local\Temp\ccgE0nth.s:22731  .debug_str:000000000000e320 .LASF2892
C:\Users\SOLDER~1\AppData\Local\Temp\ccgE0nth.s:24779  .debug_str:00000000000167b5 .LASF2893
C:\Users\SOLDER~1\AppData\Local\Temp\ccgE0nth.s:30481  .debug_str:000000000002da47 .LASF2894
C:\Users\SOLDER~1\AppData\Local\Temp\ccgE0nth.s:21933  .debug_str:000000000000aeac .LASF2895
C:\Users\SOLDER~1\AppData\Local\Temp\ccgE0nth.s:29553  .debug_str:0000000000029e2e .LASF2896
C:\Users\SOLDER~1\AppData\Local\Temp\ccgE0nth.s:30559  .debug_str:000000000002df66 .LASF2897
GAS LISTING C:\Users\SOLDER~1\AppData\Local\Temp\ccgE0nth.s 			page 78


C:\Users\SOLDER~1\AppData\Local\Temp\ccgE0nth.s:30345  .debug_str:000000000002d1cb .LASF2898
C:\Users\SOLDER~1\AppData\Local\Temp\ccgE0nth.s:20533  .debug_str:000000000000529e .LASF2899
C:\Users\SOLDER~1\AppData\Local\Temp\ccgE0nth.s:21509  .debug_str:00000000000092e4 .LASF2900
C:\Users\SOLDER~1\AppData\Local\Temp\ccgE0nth.s:26477  .debug_str:000000000001d5eb .LASF2901
C:\Users\SOLDER~1\AppData\Local\Temp\ccgE0nth.s:22429  .debug_str:000000000000cf33 .LASF2902
C:\Users\SOLDER~1\AppData\Local\Temp\ccgE0nth.s:24275  .debug_str:00000000000147e6 .LASF2903
C:\Users\SOLDER~1\AppData\Local\Temp\ccgE0nth.s:29189  .debug_str:00000000000286c8 .LASF2904
C:\Users\SOLDER~1\AppData\Local\Temp\ccgE0nth.s:21697  .debug_str:0000000000009efc .LASF2905
C:\Users\SOLDER~1\AppData\Local\Temp\ccgE0nth.s:29295  .debug_str:0000000000028d72 .LASF2906
C:\Users\SOLDER~1\AppData\Local\Temp\ccgE0nth.s:25313  .debug_str:0000000000018a41 .LASF2907
C:\Users\SOLDER~1\AppData\Local\Temp\ccgE0nth.s:22747  .debug_str:000000000000e42f .LASF2908
C:\Users\SOLDER~1\AppData\Local\Temp\ccgE0nth.s:27481  .debug_str:00000000000216b4 .LASF2909
C:\Users\SOLDER~1\AppData\Local\Temp\ccgE0nth.s:28233  .debug_str:000000000002476b .LASF2910
C:\Users\SOLDER~1\AppData\Local\Temp\ccgE0nth.s:23563  .debug_str:000000000001188c .LASF2911
C:\Users\SOLDER~1\AppData\Local\Temp\ccgE0nth.s:22641  .debug_str:000000000000dcd7 .LASF2912
C:\Users\SOLDER~1\AppData\Local\Temp\ccgE0nth.s:22979  .debug_str:000000000000f275 .LASF2913
C:\Users\SOLDER~1\AppData\Local\Temp\ccgE0nth.s:19925  .debug_str:0000000000002bf9 .LASF2914
C:\Users\SOLDER~1\AppData\Local\Temp\ccgE0nth.s:25303  .debug_str:00000000000189b2 .LASF2915
C:\Users\SOLDER~1\AppData\Local\Temp\ccgE0nth.s:19339  .debug_str:0000000000000555 .LASF2916
C:\Users\SOLDER~1\AppData\Local\Temp\ccgE0nth.s:27961  .debug_str:0000000000023598 .LASF2917
C:\Users\SOLDER~1\AppData\Local\Temp\ccgE0nth.s:22755  .debug_str:000000000000e4b6 .LASF2918
C:\Users\SOLDER~1\AppData\Local\Temp\ccgE0nth.s:26905  .debug_str:000000000001f1a4 .LASF2919
C:\Users\SOLDER~1\AppData\Local\Temp\ccgE0nth.s:28201  .debug_str:0000000000024537 .LASF2920
C:\Users\SOLDER~1\AppData\Local\Temp\ccgE0nth.s:26591  .debug_str:000000000001dd01 .LASF2921
C:\Users\SOLDER~1\AppData\Local\Temp\ccgE0nth.s:23231  .debug_str:000000000001030d .LASF2922
C:\Users\SOLDER~1\AppData\Local\Temp\ccgE0nth.s:28257  .debug_str:0000000000024912 .LASF2923
C:\Users\SOLDER~1\AppData\Local\Temp\ccgE0nth.s:25375  .debug_str:0000000000018e7e .LASF2924
C:\Users\SOLDER~1\AppData\Local\Temp\ccgE0nth.s:24935  .debug_str:00000000000171b2 .LASF2925
C:\Users\SOLDER~1\AppData\Local\Temp\ccgE0nth.s:24221  .debug_str:000000000001443f .LASF2926
C:\Users\SOLDER~1\AppData\Local\Temp\ccgE0nth.s:22539  .debug_str:000000000000d67c .LASF2927
C:\Users\SOLDER~1\AppData\Local\Temp\ccgE0nth.s:29467  .debug_str:000000000002986e .LASF2928
C:\Users\SOLDER~1\AppData\Local\Temp\ccgE0nth.s:25163  .debug_str:00000000000180e6 .LASF2929
C:\Users\SOLDER~1\AppData\Local\Temp\ccgE0nth.s:26605  .debug_str:000000000001ddfe .LASF2930
C:\Users\SOLDER~1\AppData\Local\Temp\ccgE0nth.s:28311  .debug_str:0000000000024c99 .LASF2931
C:\Users\SOLDER~1\AppData\Local\Temp\ccgE0nth.s:28817  .debug_str:0000000000026e63 .LASF2932
C:\Users\SOLDER~1\AppData\Local\Temp\ccgE0nth.s:29201  .debug_str:0000000000028798 .LASF2933
C:\Users\SOLDER~1\AppData\Local\Temp\ccgE0nth.s:26485  .debug_str:000000000001d653 .LASF2934
C:\Users\SOLDER~1\AppData\Local\Temp\ccgE0nth.s:25301  .debug_str:0000000000018998 .LASF2935
C:\Users\SOLDER~1\AppData\Local\Temp\ccgE0nth.s:22407  .debug_str:000000000000cdba .LASF2936
C:\Users\SOLDER~1\AppData\Local\Temp\ccgE0nth.s:19267  .debug_str:00000000000000be .LASF2937
C:\Users\SOLDER~1\AppData\Local\Temp\ccgE0nth.s:28613  .debug_str:00000000000260af .LASF2938
C:\Users\SOLDER~1\AppData\Local\Temp\ccgE0nth.s:19529  .debug_str:000000000000126b .LASF2939
C:\Users\SOLDER~1\AppData\Local\Temp\ccgE0nth.s:20419  .debug_str:0000000000004ba9 .LASF2940
C:\Users\SOLDER~1\AppData\Local\Temp\ccgE0nth.s:21137  .debug_str:0000000000007a1f .LASF2941
C:\Users\SOLDER~1\AppData\Local\Temp\ccgE0nth.s:28137  .debug_str:0000000000024103 .LASF2942
C:\Users\SOLDER~1\AppData\Local\Temp\ccgE0nth.s:28025  .debug_str:00000000000239a2 .LASF2943
C:\Users\SOLDER~1\AppData\Local\Temp\ccgE0nth.s:21333  .debug_str:00000000000086f0 .LASF2944
C:\Users\SOLDER~1\AppData\Local\Temp\ccgE0nth.s:24091  .debug_str:0000000000013b32 .LASF2945
C:\Users\SOLDER~1\AppData\Local\Temp\ccgE0nth.s:25653  .debug_str:000000000001a011 .LASF2946
C:\Users\SOLDER~1\AppData\Local\Temp\ccgE0nth.s:24743  .debug_str:00000000000165cc .LASF2947
C:\Users\SOLDER~1\AppData\Local\Temp\ccgE0nth.s:25195  .debug_str:00000000000182f2 .LASF2948
C:\Users\SOLDER~1\AppData\Local\Temp\ccgE0nth.s:25455  .debug_str:00000000000193b1 .LASF2949
C:\Users\SOLDER~1\AppData\Local\Temp\ccgE0nth.s:23875  .debug_str:0000000000012c69 .LASF2950
C:\Users\SOLDER~1\AppData\Local\Temp\ccgE0nth.s:25553  .debug_str:00000000000199fb .LASF2951
C:\Users\SOLDER~1\AppData\Local\Temp\ccgE0nth.s:20011  .debug_str:00000000000031ac .LASF2952
C:\Users\SOLDER~1\AppData\Local\Temp\ccgE0nth.s:19469  .debug_str:0000000000000ead .LASF2953
C:\Users\SOLDER~1\AppData\Local\Temp\ccgE0nth.s:25361  .debug_str:0000000000018d79 .LASF2954
GAS LISTING C:\Users\SOLDER~1\AppData\Local\Temp\ccgE0nth.s 			page 79


C:\Users\SOLDER~1\AppData\Local\Temp\ccgE0nth.s:28595  .debug_str:0000000000025f87 .LASF2955
C:\Users\SOLDER~1\AppData\Local\Temp\ccgE0nth.s:29327  .debug_str:0000000000028f4b .LASF2956
C:\Users\SOLDER~1\AppData\Local\Temp\ccgE0nth.s:19829  .debug_str:00000000000025e2 .LASF2957
C:\Users\SOLDER~1\AppData\Local\Temp\ccgE0nth.s:22967  .debug_str:000000000000f1b2 .LASF2958
C:\Users\SOLDER~1\AppData\Local\Temp\ccgE0nth.s:30313  .debug_str:000000000002cf72 .LASF2959
C:\Users\SOLDER~1\AppData\Local\Temp\ccgE0nth.s:23509  .debug_str:0000000000011506 .LASF2960
C:\Users\SOLDER~1\AppData\Local\Temp\ccgE0nth.s:24981  .debug_str:00000000000174bc .LASF2961
C:\Users\SOLDER~1\AppData\Local\Temp\ccgE0nth.s:20881  .debug_str:00000000000069b1 .LASF2962
C:\Users\SOLDER~1\AppData\Local\Temp\ccgE0nth.s:20627  .debug_str:00000000000058a6 .LASF2963
C:\Users\SOLDER~1\AppData\Local\Temp\ccgE0nth.s:28329  .debug_str:0000000000024dbf .LASF2964
C:\Users\SOLDER~1\AppData\Local\Temp\ccgE0nth.s:30743  .debug_str:000000000002eb40 .LASF2965
C:\Users\SOLDER~1\AppData\Local\Temp\ccgE0nth.s:20749  .debug_str:000000000000609e .LASF2966
C:\Users\SOLDER~1\AppData\Local\Temp\ccgE0nth.s:19281  .debug_str:0000000000000175 .LASF2967
C:\Users\SOLDER~1\AppData\Local\Temp\ccgE0nth.s:28721  .debug_str:0000000000026811 .LASF2968
C:\Users\SOLDER~1\AppData\Local\Temp\ccgE0nth.s:27615  .debug_str:0000000000021f4b .LASF2969
C:\Users\SOLDER~1\AppData\Local\Temp\ccgE0nth.s:24497  .debug_str:0000000000015665 .LASF2970
C:\Users\SOLDER~1\AppData\Local\Temp\ccgE0nth.s:23059  .debug_str:000000000000f79a .LASF2971
C:\Users\SOLDER~1\AppData\Local\Temp\ccgE0nth.s:27891  .debug_str:00000000000230e1 .LASF2972
C:\Users\SOLDER~1\AppData\Local\Temp\ccgE0nth.s:21907  .debug_str:000000000000ad20 .LASF2973
C:\Users\SOLDER~1\AppData\Local\Temp\ccgE0nth.s:19717  .debug_str:0000000000001e98 .LASF2974
C:\Users\SOLDER~1\AppData\Local\Temp\ccgE0nth.s:24001  .debug_str:00000000000134ab .LASF2975
C:\Users\SOLDER~1\AppData\Local\Temp\ccgE0nth.s:21561  .debug_str:000000000000964f .LASF2976
C:\Users\SOLDER~1\AppData\Local\Temp\ccgE0nth.s:27675  .debug_str:00000000000222b2 .LASF2977
C:\Users\SOLDER~1\AppData\Local\Temp\ccgE0nth.s:30317  .debug_str:000000000002cfc2 .LASF2978
C:\Users\SOLDER~1\AppData\Local\Temp\ccgE0nth.s:22269  .debug_str:000000000000c41e .LASF2979
C:\Users\SOLDER~1\AppData\Local\Temp\ccgE0nth.s:27903  .debug_str:000000000002319d .LASF2980
C:\Users\SOLDER~1\AppData\Local\Temp\ccgE0nth.s:21857  .debug_str:000000000000a9bc .LASF2981
C:\Users\SOLDER~1\AppData\Local\Temp\ccgE0nth.s:30299  .debug_str:000000000002ce7a .LASF2982
C:\Users\SOLDER~1\AppData\Local\Temp\ccgE0nth.s:24687  .debug_str:0000000000016223 .LASF2983
C:\Users\SOLDER~1\AppData\Local\Temp\ccgE0nth.s:26607  .debug_str:000000000001de27 .LASF2984
C:\Users\SOLDER~1\AppData\Local\Temp\ccgE0nth.s:25481  .debug_str:000000000001958f .LASF2985
C:\Users\SOLDER~1\AppData\Local\Temp\ccgE0nth.s:20209  .debug_str:0000000000003e62 .LASF2986
C:\Users\SOLDER~1\AppData\Local\Temp\ccgE0nth.s:30211  .debug_str:000000000002c8cd .LASF2987
C:\Users\SOLDER~1\AppData\Local\Temp\ccgE0nth.s:23897  .debug_str:0000000000012ddf .LASF2988
C:\Users\SOLDER~1\AppData\Local\Temp\ccgE0nth.s:24089  .debug_str:0000000000013b09 .LASF2989
C:\Users\SOLDER~1\AppData\Local\Temp\ccgE0nth.s:20659  .debug_str:0000000000005ac9 .LASF2990
C:\Users\SOLDER~1\AppData\Local\Temp\ccgE0nth.s:30709  .debug_str:000000000002e922 .LASF2991
C:\Users\SOLDER~1\AppData\Local\Temp\ccgE0nth.s:19759  .debug_str:0000000000002133 .LASF2992
C:\Users\SOLDER~1\AppData\Local\Temp\ccgE0nth.s:28847  .debug_str:0000000000027046 .LASF2993
C:\Users\SOLDER~1\AppData\Local\Temp\ccgE0nth.s:21801  .debug_str:000000000000a5e3 .LASF2994
C:\Users\SOLDER~1\AppData\Local\Temp\ccgE0nth.s:19943  .debug_str:0000000000002d37 .LASF2995
C:\Users\SOLDER~1\AppData\Local\Temp\ccgE0nth.s:28665  .debug_str:000000000002647e .LASF2996
C:\Users\SOLDER~1\AppData\Local\Temp\ccgE0nth.s:22635  .debug_str:000000000000dc64 .LASF2997
C:\Users\SOLDER~1\AppData\Local\Temp\ccgE0nth.s:24163  .debug_str:000000000001403e .LASF2998
C:\Users\SOLDER~1\AppData\Local\Temp\ccgE0nth.s:30757  .debug_str:000000000002ec19 .LASF2999
C:\Users\SOLDER~1\AppData\Local\Temp\ccgE0nth.s:23161  .debug_str:000000000000fecc .LASF3000
C:\Users\SOLDER~1\AppData\Local\Temp\ccgE0nth.s:26821  .debug_str:000000000001ec03 .LASF3001
C:\Users\SOLDER~1\AppData\Local\Temp\ccgE0nth.s:24043  .debug_str:0000000000013795 .LASF3002
C:\Users\SOLDER~1\AppData\Local\Temp\ccgE0nth.s:27627  .debug_str:0000000000021ffd .LASF3003
C:\Users\SOLDER~1\AppData\Local\Temp\ccgE0nth.s:26499  .debug_str:000000000001d723 .LASF3004
C:\Users\SOLDER~1\AppData\Local\Temp\ccgE0nth.s:28285  .debug_str:0000000000024af2 .LASF3005
C:\Users\SOLDER~1\AppData\Local\Temp\ccgE0nth.s:21883  .debug_str:000000000000ab9c .LASF3006
C:\Users\SOLDER~1\AppData\Local\Temp\ccgE0nth.s:27683  .debug_str:0000000000022337 .LASF3007
C:\Users\SOLDER~1\AppData\Local\Temp\ccgE0nth.s:26735  .debug_str:000000000001e669 .LASF3008
C:\Users\SOLDER~1\AppData\Local\Temp\ccgE0nth.s:30213  .debug_str:000000000002c8e6 .LASF3009
C:\Users\SOLDER~1\AppData\Local\Temp\ccgE0nth.s:25785  .debug_str:000000000001a8a7 .LASF3010
C:\Users\SOLDER~1\AppData\Local\Temp\ccgE0nth.s:30441  .debug_str:000000000002d7ea .LASF3011
GAS LISTING C:\Users\SOLDER~1\AppData\Local\Temp\ccgE0nth.s 			page 80


C:\Users\SOLDER~1\AppData\Local\Temp\ccgE0nth.s:27089  .debug_str:000000000001fd89 .LASF3012
C:\Users\SOLDER~1\AppData\Local\Temp\ccgE0nth.s:21583  .debug_str:0000000000009799 .LASF3013
C:\Users\SOLDER~1\AppData\Local\Temp\ccgE0nth.s:23255  .debug_str:00000000000104c8 .LASF3014
C:\Users\SOLDER~1\AppData\Local\Temp\ccgE0nth.s:24147  .debug_str:0000000000013f28 .LASF3015
C:\Users\SOLDER~1\AppData\Local\Temp\ccgE0nth.s:25125  .debug_str:0000000000017e2e .LASF3016
C:\Users\SOLDER~1\AppData\Local\Temp\ccgE0nth.s:22215  .debug_str:000000000000c07d .LASF3017
C:\Users\SOLDER~1\AppData\Local\Temp\ccgE0nth.s:21615  .debug_str:000000000000999f .LASF3018
C:\Users\SOLDER~1\AppData\Local\Temp\ccgE0nth.s:20311  .debug_str:00000000000044ce .LASF3019
C:\Users\SOLDER~1\AppData\Local\Temp\ccgE0nth.s:30655  .debug_str:000000000002e567 .LASF3020
C:\Users\SOLDER~1\AppData\Local\Temp\ccgE0nth.s:29981  .debug_str:000000000002b9eb .LASF3021
C:\Users\SOLDER~1\AppData\Local\Temp\ccgE0nth.s:26599  .debug_str:000000000001dd97 .LASF3022
C:\Users\SOLDER~1\AppData\Local\Temp\ccgE0nth.s:28559  .debug_str:0000000000025cf3 .LASF3023
C:\Users\SOLDER~1\AppData\Local\Temp\ccgE0nth.s:25921  .debug_str:000000000001b143 .LASF3024
C:\Users\SOLDER~1\AppData\Local\Temp\ccgE0nth.s:26261  .debug_str:000000000001c777 .LASF3025
C:\Users\SOLDER~1\AppData\Local\Temp\ccgE0nth.s:19845  .debug_str:00000000000026de .LASF3026
C:\Users\SOLDER~1\AppData\Local\Temp\ccgE0nth.s:24389  .debug_str:0000000000014f65 .LASF3027
C:\Users\SOLDER~1\AppData\Local\Temp\ccgE0nth.s:28933  .debug_str:0000000000027601 .LASF3028
C:\Users\SOLDER~1\AppData\Local\Temp\ccgE0nth.s:22469  .debug_str:000000000000d1ed .LASF3029
C:\Users\SOLDER~1\AppData\Local\Temp\ccgE0nth.s:24341  .debug_str:0000000000014c51 .LASF3030
C:\Users\SOLDER~1\AppData\Local\Temp\ccgE0nth.s:30637  .debug_str:000000000002e43f .LASF3031
C:\Users\SOLDER~1\AppData\Local\Temp\ccgE0nth.s:21507  .debug_str:00000000000092c2 .LASF3032
C:\Users\SOLDER~1\AppData\Local\Temp\ccgE0nth.s:30233  .debug_str:000000000002ca30 .LASF3033
C:\Users\SOLDER~1\AppData\Local\Temp\ccgE0nth.s:23773  .debug_str:00000000000125d8 .LASF3034
C:\Users\SOLDER~1\AppData\Local\Temp\ccgE0nth.s:29601  .debug_str:000000000002a17e .LASF3035
C:\Users\SOLDER~1\AppData\Local\Temp\ccgE0nth.s:21751  .debug_str:000000000000a297 .LASF3036
C:\Users\SOLDER~1\AppData\Local\Temp\ccgE0nth.s:27857  .debug_str:0000000000022eb3 .LASF3037
C:\Users\SOLDER~1\AppData\Local\Temp\ccgE0nth.s:19661  .debug_str:0000000000001adb .LASF3038
C:\Users\SOLDER~1\AppData\Local\Temp\ccgE0nth.s:19713  .debug_str:0000000000001e55 .LASF3039
C:\Users\SOLDER~1\AppData\Local\Temp\ccgE0nth.s:19883  .debug_str:0000000000002992 .LASF3040
C:\Users\SOLDER~1\AppData\Local\Temp\ccgE0nth.s:24633  .debug_str:0000000000015e97 .LASF3041
C:\Users\SOLDER~1\AppData\Local\Temp\ccgE0nth.s:23331  .debug_str:00000000000109ab .LASF3042
C:\Users\SOLDER~1\AppData\Local\Temp\ccgE0nth.s:22875  .debug_str:000000000000ebf2 .LASF3043
C:\Users\SOLDER~1\AppData\Local\Temp\ccgE0nth.s:25441  .debug_str:00000000000192bc .LASF3044
C:\Users\SOLDER~1\AppData\Local\Temp\ccgE0nth.s:21239  .debug_str:00000000000080e8 .LASF3045
C:\Users\SOLDER~1\AppData\Local\Temp\ccgE0nth.s:22541  .debug_str:000000000000d696 .LASF3046
C:\Users\SOLDER~1\AppData\Local\Temp\ccgE0nth.s:25185  .debug_str:000000000001826a .LASF3047
C:\Users\SOLDER~1\AppData\Local\Temp\ccgE0nth.s:27833  .debug_str:0000000000022d2e .LASF3048
C:\Users\SOLDER~1\AppData\Local\Temp\ccgE0nth.s:23703  .debug_str:000000000001215e .LASF3049
C:\Users\SOLDER~1\AppData\Local\Temp\ccgE0nth.s:26993  .debug_str:000000000001f796 .LASF3050
C:\Users\SOLDER~1\AppData\Local\Temp\ccgE0nth.s:21357  .debug_str:000000000000888e .LASF3051
C:\Users\SOLDER~1\AppData\Local\Temp\ccgE0nth.s:22205  .debug_str:000000000000bfd0 .LASF3052
C:\Users\SOLDER~1\AppData\Local\Temp\ccgE0nth.s:19551  .debug_str:00000000000013d4 .LASF3053
C:\Users\SOLDER~1\AppData\Local\Temp\ccgE0nth.s:30599  .debug_str:000000000002e1e3 .LASF3054
C:\Users\SOLDER~1\AppData\Local\Temp\ccgE0nth.s:29173  .debug_str:0000000000028598 .LASF3055
C:\Users\SOLDER~1\AppData\Local\Temp\ccgE0nth.s:24515  .debug_str:0000000000015797 .LASF3056
C:\Users\SOLDER~1\AppData\Local\Temp\ccgE0nth.s:27267  .debug_str:00000000000208e5 .LASF3057
C:\Users\SOLDER~1\AppData\Local\Temp\ccgE0nth.s:22223  .debug_str:000000000000c0f5 .LASF3058
C:\Users\SOLDER~1\AppData\Local\Temp\ccgE0nth.s:24407  .debug_str:000000000001507c .LASF3059
C:\Users\SOLDER~1\AppData\Local\Temp\ccgE0nth.s:21377  .debug_str:00000000000089bb .LASF3060
C:\Users\SOLDER~1\AppData\Local\Temp\ccgE0nth.s:23501  .debug_str:0000000000011463 .LASF3061
C:\Users\SOLDER~1\AppData\Local\Temp\ccgE0nth.s:25623  .debug_str:0000000000019e1b .LASF3062
C:\Users\SOLDER~1\AppData\Local\Temp\ccgE0nth.s:19681  .debug_str:0000000000001c2f .LASF3063
C:\Users\SOLDER~1\AppData\Local\Temp\ccgE0nth.s:20197  .debug_str:0000000000003da1 .LASF3064
C:\Users\SOLDER~1\AppData\Local\Temp\ccgE0nth.s:28855  .debug_str:00000000000270df .LASF3065
C:\Users\SOLDER~1\AppData\Local\Temp\ccgE0nth.s:25129  .debug_str:0000000000017e7c .LASF3066
C:\Users\SOLDER~1\AppData\Local\Temp\ccgE0nth.s:26001  .debug_str:000000000001b666 .LASF3067
C:\Users\SOLDER~1\AppData\Local\Temp\ccgE0nth.s:23353  .debug_str:0000000000010b10 .LASF3068
GAS LISTING C:\Users\SOLDER~1\AppData\Local\Temp\ccgE0nth.s 			page 81


C:\Users\SOLDER~1\AppData\Local\Temp\ccgE0nth.s:25235  .debug_str:000000000001856c .LASF3069
C:\Users\SOLDER~1\AppData\Local\Temp\ccgE0nth.s:29881  .debug_str:000000000002b370 .LASF3070
C:\Users\SOLDER~1\AppData\Local\Temp\ccgE0nth.s:26015  .debug_str:000000000001b738 .LASF3071
C:\Users\SOLDER~1\AppData\Local\Temp\ccgE0nth.s:21607  .debug_str:000000000000990e .LASF3072
C:\Users\SOLDER~1\AppData\Local\Temp\ccgE0nth.s:29701  .debug_str:000000000002a7b5 .LASF3073
C:\Users\SOLDER~1\AppData\Local\Temp\ccgE0nth.s:29191  .debug_str:00000000000286f2 .LASF3074
C:\Users\SOLDER~1\AppData\Local\Temp\ccgE0nth.s:30223  .debug_str:000000000002c995 .LASF3075
C:\Users\SOLDER~1\AppData\Local\Temp\ccgE0nth.s:26679  .debug_str:000000000001e2b4 .LASF3076
C:\Users\SOLDER~1\AppData\Local\Temp\ccgE0nth.s:30107  .debug_str:000000000002c278 .LASF3077
C:\Users\SOLDER~1\AppData\Local\Temp\ccgE0nth.s:21219  .debug_str:0000000000007f93 .LASF3078
C:\Users\SOLDER~1\AppData\Local\Temp\ccgE0nth.s:26493  .debug_str:000000000001d6d7 .LASF3079
C:\Users\SOLDER~1\AppData\Local\Temp\ccgE0nth.s:29153  .debug_str:0000000000028456 .LASF3080
C:\Users\SOLDER~1\AppData\Local\Temp\ccgE0nth.s:22119  .debug_str:000000000000ba2c .LASF3081
C:\Users\SOLDER~1\AppData\Local\Temp\ccgE0nth.s:29441  .debug_str:00000000000296ea .LASF3082
C:\Users\SOLDER~1\AppData\Local\Temp\ccgE0nth.s:20201  .debug_str:0000000000003de9 .LASF3083
C:\Users\SOLDER~1\AppData\Local\Temp\ccgE0nth.s:20775  .debug_str:0000000000006287 .LASF3084
C:\Users\SOLDER~1\AppData\Local\Temp\ccgE0nth.s:29867  .debug_str:000000000002b2ad .LASF3085
C:\Users\SOLDER~1\AppData\Local\Temp\ccgE0nth.s:24471  .debug_str:00000000000154ad .LASF3086
C:\Users\SOLDER~1\AppData\Local\Temp\ccgE0nth.s:27935  .debug_str:00000000000233f3 .LASF3087
C:\Users\SOLDER~1\AppData\Local\Temp\ccgE0nth.s:24437  .debug_str:000000000001525e .LASF3088
C:\Users\SOLDER~1\AppData\Local\Temp\ccgE0nth.s:26079  .debug_str:000000000001bb51 .LASF3089
C:\Users\SOLDER~1\AppData\Local\Temp\ccgE0nth.s:25177  .debug_str:00000000000181db .LASF3090
C:\Users\SOLDER~1\AppData\Local\Temp\ccgE0nth.s:29363  .debug_str:00000000000291ad .LASF3091
C:\Users\SOLDER~1\AppData\Local\Temp\ccgE0nth.s:20619  .debug_str:0000000000005808 .LASF3092
C:\Users\SOLDER~1\AppData\Local\Temp\ccgE0nth.s:22353  .debug_str:000000000000ca04 .LASF3093
C:\Users\SOLDER~1\AppData\Local\Temp\ccgE0nth.s:24639  .debug_str:0000000000015ef4 .LASF3094
C:\Users\SOLDER~1\AppData\Local\Temp\ccgE0nth.s:24693  .debug_str:0000000000016288 .LASF3095
C:\Users\SOLDER~1\AppData\Local\Temp\ccgE0nth.s:27035  .debug_str:000000000001fa47 .LASF3096
C:\Users\SOLDER~1\AppData\Local\Temp\ccgE0nth.s:30119  .debug_str:000000000002c331 .LASF3097
C:\Users\SOLDER~1\AppData\Local\Temp\ccgE0nth.s:22941  .debug_str:000000000000f029 .LASF3098
C:\Users\SOLDER~1\AppData\Local\Temp\ccgE0nth.s:24727  .debug_str:00000000000164ad .LASF3099
C:\Users\SOLDER~1\AppData\Local\Temp\ccgE0nth.s:29965  .debug_str:000000000002b8e2 .LASF3100
C:\Users\SOLDER~1\AppData\Local\Temp\ccgE0nth.s:23581  .debug_str:00000000000119cf .LASF3101
C:\Users\SOLDER~1\AppData\Local\Temp\ccgE0nth.s:22899  .debug_str:000000000000ed84 .LASF3102
C:\Users\SOLDER~1\AppData\Local\Temp\ccgE0nth.s:24493  .debug_str:000000000001562c .LASF3103
C:\Users\SOLDER~1\AppData\Local\Temp\ccgE0nth.s:21951  .debug_str:000000000000afe4 .LASF3104
C:\Users\SOLDER~1\AppData\Local\Temp\ccgE0nth.s:22785  .debug_str:000000000000e683 .LASF3105
C:\Users\SOLDER~1\AppData\Local\Temp\ccgE0nth.s:29675  .debug_str:000000000002a62c .LASF3106
C:\Users\SOLDER~1\AppData\Local\Temp\ccgE0nth.s:21123  .debug_str:000000000000791d .LASF3107
C:\Users\SOLDER~1\AppData\Local\Temp\ccgE0nth.s:27499  .debug_str:00000000000217cf .LASF3108
C:\Users\SOLDER~1\AppData\Local\Temp\ccgE0nth.s:19493  .debug_str:0000000000001028 .LASF3109
C:\Users\SOLDER~1\AppData\Local\Temp\ccgE0nth.s:24555  .debug_str:00000000000159c3 .LASF3110
C:\Users\SOLDER~1\AppData\Local\Temp\ccgE0nth.s:20221  .debug_str:0000000000003f24 .LASF3111
C:\Users\SOLDER~1\AppData\Local\Temp\ccgE0nth.s:28355  .debug_str:0000000000024f7b .LASF3112
C:\Users\SOLDER~1\AppData\Local\Temp\ccgE0nth.s:28029  .debug_str:00000000000239e1 .LASF3113
C:\Users\SOLDER~1\AppData\Local\Temp\ccgE0nth.s:26393  .debug_str:000000000001d01c .LASF3114
C:\Users\SOLDER~1\AppData\Local\Temp\ccgE0nth.s:26329  .debug_str:000000000001cc02 .LASF3115
C:\Users\SOLDER~1\AppData\Local\Temp\ccgE0nth.s:27941  .debug_str:000000000002345d .LASF3116
C:\Users\SOLDER~1\AppData\Local\Temp\ccgE0nth.s:23183  .debug_str:000000000001003e .LASF3117
C:\Users\SOLDER~1\AppData\Local\Temp\ccgE0nth.s:26613  .debug_str:000000000001de94 .LASF3118
C:\Users\SOLDER~1\AppData\Local\Temp\ccgE0nth.s:25823  .debug_str:000000000001aae7 .LASF3119
C:\Users\SOLDER~1\AppData\Local\Temp\ccgE0nth.s:26553  .debug_str:000000000001da65 .LASF3120
C:\Users\SOLDER~1\AppData\Local\Temp\ccgE0nth.s:24113  .debug_str:0000000000013cdc .LASF3121
C:\Users\SOLDER~1\AppData\Local\Temp\ccgE0nth.s:29617  .debug_str:000000000002a261 .LASF3122
C:\Users\SOLDER~1\AppData\Local\Temp\ccgE0nth.s:20901  .debug_str:0000000000006af7 .LASF3123
C:\Users\SOLDER~1\AppData\Local\Temp\ccgE0nth.s:21705  .debug_str:0000000000009f75 .LASF3124
C:\Users\SOLDER~1\AppData\Local\Temp\ccgE0nth.s:20801  .debug_str:0000000000006443 .LASF3125
GAS LISTING C:\Users\SOLDER~1\AppData\Local\Temp\ccgE0nth.s 			page 82


C:\Users\SOLDER~1\AppData\Local\Temp\ccgE0nth.s:23729  .debug_str:0000000000012309 .LASF3126
C:\Users\SOLDER~1\AppData\Local\Temp\ccgE0nth.s:19991  .debug_str:000000000000305b .LASF3127
C:\Users\SOLDER~1\AppData\Local\Temp\ccgE0nth.s:29131  .debug_str:00000000000282f9 .LASF3128
C:\Users\SOLDER~1\AppData\Local\Temp\ccgE0nth.s:28967  .debug_str:0000000000027839 .LASF3129
C:\Users\SOLDER~1\AppData\Local\Temp\ccgE0nth.s:23119  .debug_str:000000000000fbdc .LASF3130
C:\Users\SOLDER~1\AppData\Local\Temp\ccgE0nth.s:29437  .debug_str:00000000000296a7 .LASF3131
C:\Users\SOLDER~1\AppData\Local\Temp\ccgE0nth.s:24203  .debug_str:00000000000142f9 .LASF3132
C:\Users\SOLDER~1\AppData\Local\Temp\ccgE0nth.s:21549  .debug_str:00000000000095a8 .LASF3133
C:\Users\SOLDER~1\AppData\Local\Temp\ccgE0nth.s:19745  .debug_str:0000000000002043 .LASF3134
C:\Users\SOLDER~1\AppData\Local\Temp\ccgE0nth.s:22959  .debug_str:000000000000f13f .LASF3135
C:\Users\SOLDER~1\AppData\Local\Temp\ccgE0nth.s:25007  .debug_str:0000000000017687 .LASF3136
C:\Users\SOLDER~1\AppData\Local\Temp\ccgE0nth.s:21317  .debug_str:00000000000085fb .LASF3137
C:\Users\SOLDER~1\AppData\Local\Temp\ccgE0nth.s:27107  .debug_str:000000000001feb2 .LASF3138
C:\Users\SOLDER~1\AppData\Local\Temp\ccgE0nth.s:27991  .debug_str:00000000000237ab .LASF3139
C:\Users\SOLDER~1\AppData\Local\Temp\ccgE0nth.s:19377  .debug_str:000000000000084e .LASF3140
C:\Users\SOLDER~1\AppData\Local\Temp\ccgE0nth.s:29713  .debug_str:000000000002a85c .LASF3141
C:\Users\SOLDER~1\AppData\Local\Temp\ccgE0nth.s:21021  .debug_str:00000000000072d3 .LASF3142
C:\Users\SOLDER~1\AppData\Local\Temp\ccgE0nth.s:20593  .debug_str:000000000000563a .LASF3143
C:\Users\SOLDER~1\AppData\Local\Temp\ccgE0nth.s:25109  .debug_str:0000000000017d1b .LASF3144
C:\Users\SOLDER~1\AppData\Local\Temp\ccgE0nth.s:29801  .debug_str:000000000002adff .LASF3145
C:\Users\SOLDER~1\AppData\Local\Temp\ccgE0nth.s:21597  .debug_str:0000000000009875 .LASF3146
C:\Users\SOLDER~1\AppData\Local\Temp\ccgE0nth.s:27423  .debug_str:000000000002131d .LASF3147
C:\Users\SOLDER~1\AppData\Local\Temp\ccgE0nth.s:20673  .debug_str:0000000000005bce .LASF3148
C:\Users\SOLDER~1\AppData\Local\Temp\ccgE0nth.s:25141  .debug_str:0000000000017f59 .LASF3149
C:\Users\SOLDER~1\AppData\Local\Temp\ccgE0nth.s:29241  .debug_str:0000000000028a10 .LASF3150
C:\Users\SOLDER~1\AppData\Local\Temp\ccgE0nth.s:27401  .debug_str:00000000000211bb .LASF3151
C:\Users\SOLDER~1\AppData\Local\Temp\ccgE0nth.s:28583  .debug_str:0000000000025e96 .LASF3152
C:\Users\SOLDER~1\AppData\Local\Temp\ccgE0nth.s:25547  .debug_str:000000000001999c .LASF3153
C:\Users\SOLDER~1\AppData\Local\Temp\ccgE0nth.s:19831  .debug_str:00000000000025fd .LASF3154
C:\Users\SOLDER~1\AppData\Local\Temp\ccgE0nth.s:23629  .debug_str:0000000000011ce0 .LASF3155
C:\Users\SOLDER~1\AppData\Local\Temp\ccgE0nth.s:28921  .debug_str:0000000000027541 .LASF3156
C:\Users\SOLDER~1\AppData\Local\Temp\ccgE0nth.s:21717  .debug_str:000000000000a050 .LASF3157
C:\Users\SOLDER~1\AppData\Local\Temp\ccgE0nth.s:27569  .debug_str:0000000000021c42 .LASF3158
C:\Users\SOLDER~1\AppData\Local\Temp\ccgE0nth.s:19917  .debug_str:0000000000002b9b .LASF3159
C:\Users\SOLDER~1\AppData\Local\Temp\ccgE0nth.s:27877  .debug_str:0000000000022ff4 .LASF3160
C:\Users\SOLDER~1\AppData\Local\Temp\ccgE0nth.s:29565  .debug_str:0000000000029ef8 .LASF3161
C:\Users\SOLDER~1\AppData\Local\Temp\ccgE0nth.s:30241  .debug_str:000000000002cab0 .LASF3162
C:\Users\SOLDER~1\AppData\Local\Temp\ccgE0nth.s:29871  .debug_str:000000000002b2dc .LASF3163
C:\Users\SOLDER~1\AppData\Local\Temp\ccgE0nth.s:27245  .debug_str:0000000000020774 .LASF3164
C:\Users\SOLDER~1\AppData\Local\Temp\ccgE0nth.s:22793  .debug_str:000000000000e6f7 .LASF3165
C:\Users\SOLDER~1\AppData\Local\Temp\ccgE0nth.s:27843  .debug_str:0000000000022dcd .LASF3166
C:\Users\SOLDER~1\AppData\Local\Temp\ccgE0nth.s:23635  .debug_str:0000000000011d53 .LASF3167
C:\Users\SOLDER~1\AppData\Local\Temp\ccgE0nth.s:30383  .debug_str:000000000002d436 .LASF3168
C:\Users\SOLDER~1\AppData\Local\Temp\ccgE0nth.s:21991  .debug_str:000000000000b25c .LASF3169
C:\Users\SOLDER~1\AppData\Local\Temp\ccgE0nth.s:28563  .debug_str:0000000000025d2c .LASF3170
C:\Users\SOLDER~1\AppData\Local\Temp\ccgE0nth.s:20247  .debug_str:00000000000040b8 .LASF3171
C:\Users\SOLDER~1\AppData\Local\Temp\ccgE0nth.s:28561  .debug_str:0000000000025d0b .LASF3172
C:\Users\SOLDER~1\AppData\Local\Temp\ccgE0nth.s:20321  .debug_str:0000000000004566 .LASF3173
C:\Users\SOLDER~1\AppData\Local\Temp\ccgE0nth.s:21079  .debug_str:0000000000007672 .LASF3174
C:\Users\SOLDER~1\AppData\Local\Temp\ccgE0nth.s:25621  .debug_str:0000000000019e08 .LASF3175
C:\Users\SOLDER~1\AppData\Local\Temp\ccgE0nth.s:26415  .debug_str:000000000001d1de .LASF3176
C:\Users\SOLDER~1\AppData\Local\Temp\ccgE0nth.s:23699  .debug_str:0000000000012129 .LASF3177
C:\Users\SOLDER~1\AppData\Local\Temp\ccgE0nth.s:25923  .debug_str:000000000001b165 .LASF3178
C:\Users\SOLDER~1\AppData\Local\Temp\ccgE0nth.s:21787  .debug_str:000000000000a4f5 .LASF3179
C:\Users\SOLDER~1\AppData\Local\Temp\ccgE0nth.s:28359  .debug_str:0000000000024fc4 .LASF3180
C:\Users\SOLDER~1\AppData\Local\Temp\ccgE0nth.s:22145  .debug_str:000000000000bbe9 .LASF3181
C:\Users\SOLDER~1\AppData\Local\Temp\ccgE0nth.s:26799  .debug_str:000000000001eab5 .LASF3182
GAS LISTING C:\Users\SOLDER~1\AppData\Local\Temp\ccgE0nth.s 			page 83


C:\Users\SOLDER~1\AppData\Local\Temp\ccgE0nth.s:29633  .debug_str:000000000002a36e .LASF3183
C:\Users\SOLDER~1\AppData\Local\Temp\ccgE0nth.s:29223  .debug_str:00000000000288e7 .LASF3184
C:\Users\SOLDER~1\AppData\Local\Temp\ccgE0nth.s:27709  .debug_str:0000000000022505 .LASF3185
C:\Users\SOLDER~1\AppData\Local\Temp\ccgE0nth.s:27373  .debug_str:0000000000020fa5 .LASF3186
C:\Users\SOLDER~1\AppData\Local\Temp\ccgE0nth.s:25849  .debug_str:000000000001ad07 .LASF3187
C:\Users\SOLDER~1\AppData\Local\Temp\ccgE0nth.s:22895  .debug_str:000000000000ed3d .LASF3188
C:\Users\SOLDER~1\AppData\Local\Temp\ccgE0nth.s:24303  .debug_str:00000000000149b8 .LASF3189
C:\Users\SOLDER~1\AppData\Local\Temp\ccgE0nth.s:19519  .debug_str:00000000000011d0 .LASF3190
C:\Users\SOLDER~1\AppData\Local\Temp\ccgE0nth.s:21797  .debug_str:000000000000a59b .LASF3191
C:\Users\SOLDER~1\AppData\Local\Temp\ccgE0nth.s:29281  .debug_str:0000000000028c8d .LASF3192
C:\Users\SOLDER~1\AppData\Local\Temp\ccgE0nth.s:20137  .debug_str:00000000000039cb .LASF3193
C:\Users\SOLDER~1\AppData\Local\Temp\ccgE0nth.s:24643  .debug_str:0000000000015f3c .LASF3194
C:\Users\SOLDER~1\AppData\Local\Temp\ccgE0nth.s:29703  .debug_str:000000000002a7d0 .LASF3195
C:\Users\SOLDER~1\AppData\Local\Temp\ccgE0nth.s:21755  .debug_str:000000000000a2df .LASF3196
C:\Users\SOLDER~1\AppData\Local\Temp\ccgE0nth.s:28019  .debug_str:000000000002396d .LASF3197
C:\Users\SOLDER~1\AppData\Local\Temp\ccgE0nth.s:26259  .debug_str:000000000001c755 .LASF3198
C:\Users\SOLDER~1\AppData\Local\Temp\ccgE0nth.s:19911  .debug_str:0000000000002b52 .LASF3199
C:\Users\SOLDER~1\AppData\Local\Temp\ccgE0nth.s:25359  .debug_str:0000000000018d57 .LASF3200
C:\Users\SOLDER~1\AppData\Local\Temp\ccgE0nth.s:24723  .debug_str:0000000000016479 .LASF3201
C:\Users\SOLDER~1\AppData\Local\Temp\ccgE0nth.s:21489  .debug_str:0000000000009165 .LASF3202
C:\Users\SOLDER~1\AppData\Local\Temp\ccgE0nth.s:28077  .debug_str:0000000000023d09 .LASF3203
C:\Users\SOLDER~1\AppData\Local\Temp\ccgE0nth.s:22163  .debug_str:000000000000bd35 .LASF3204
C:\Users\SOLDER~1\AppData\Local\Temp\ccgE0nth.s:21323  .debug_str:0000000000008651 .LASF3205
C:\Users\SOLDER~1\AppData\Local\Temp\ccgE0nth.s:20835  .debug_str:000000000000666d .LASF3206
C:\Users\SOLDER~1\AppData\Local\Temp\ccgE0nth.s:28601  .debug_str:0000000000025fed .LASF3207
C:\Users\SOLDER~1\AppData\Local\Temp\ccgE0nth.s:21677  .debug_str:0000000000009d76 .LASF3208
C:\Users\SOLDER~1\AppData\Local\Temp\ccgE0nth.s:23735  .debug_str:0000000000012367 .LASF3209
C:\Users\SOLDER~1\AppData\Local\Temp\ccgE0nth.s:23731  .debug_str:000000000001232e .LASF3210
C:\Users\SOLDER~1\AppData\Local\Temp\ccgE0nth.s:24801  .debug_str:0000000000016920 .LASF3211
C:\Users\SOLDER~1\AppData\Local\Temp\ccgE0nth.s:29103  .debug_str:000000000002814c .LASF3212
C:\Users\SOLDER~1\AppData\Local\Temp\ccgE0nth.s:28735  .debug_str:00000000000268f4 .LASF3213
C:\Users\SOLDER~1\AppData\Local\Temp\ccgE0nth.s:26445  .debug_str:000000000001d3e7 .LASF3214
C:\Users\SOLDER~1\AppData\Local\Temp\ccgE0nth.s:20705  .debug_str:0000000000005dcc .LASF3215
C:\Users\SOLDER~1\AppData\Local\Temp\ccgE0nth.s:28181  .debug_str:00000000000243f1 .LASF3216
C:\Users\SOLDER~1\AppData\Local\Temp\ccgE0nth.s:29433  .debug_str:000000000002966a .LASF3217
C:\Users\SOLDER~1\AppData\Local\Temp\ccgE0nth.s:22975  .debug_str:000000000000f23c .LASF3218
C:\Users\SOLDER~1\AppData\Local\Temp\ccgE0nth.s:26589  .debug_str:000000000001dce0 .LASF3219
C:\Users\SOLDER~1\AppData\Local\Temp\ccgE0nth.s:24775  .debug_str:0000000000016786 .LASF3220
C:\Users\SOLDER~1\AppData\Local\Temp\ccgE0nth.s:26595  .debug_str:000000000001dd4f .LASF3221
C:\Users\SOLDER~1\AppData\Local\Temp\ccgE0nth.s:21913  .debug_str:000000000000ad5a .LASF3222
C:\Users\SOLDER~1\AppData\Local\Temp\ccgE0nth.s:21369  .debug_str:000000000000893a .LASF3223
C:\Users\SOLDER~1\AppData\Local\Temp\ccgE0nth.s:30253  .debug_str:000000000002cb71 .LASF3224
C:\Users\SOLDER~1\AppData\Local\Temp\ccgE0nth.s:21059  .debug_str:0000000000007548 .LASF3225
C:\Users\SOLDER~1\AppData\Local\Temp\ccgE0nth.s:29321  .debug_str:0000000000028ef2 .LASF3226
C:\Users\SOLDER~1\AppData\Local\Temp\ccgE0nth.s:27337  .debug_str:0000000000020d5c .LASF3227
C:\Users\SOLDER~1\AppData\Local\Temp\ccgE0nth.s:24817  .debug_str:0000000000016a37 .LASF3228
C:\Users\SOLDER~1\AppData\Local\Temp\ccgE0nth.s:22111  .debug_str:000000000000b9b8 .LASF3229
C:\Users\SOLDER~1\AppData\Local\Temp\ccgE0nth.s:19459  .debug_str:0000000000000e24 .LASF3230
C:\Users\SOLDER~1\AppData\Local\Temp\ccgE0nth.s:28457  .debug_str:00000000000255f0 .LASF3231
C:\Users\SOLDER~1\AppData\Local\Temp\ccgE0nth.s:29595  .debug_str:000000000002a116 .LASF3232
C:\Users\SOLDER~1\AppData\Local\Temp\ccgE0nth.s:19709  .debug_str:0000000000001e1b .LASF3233
C:\Users\SOLDER~1\AppData\Local\Temp\ccgE0nth.s:23795  .debug_str:000000000001275c .LASF3234
C:\Users\SOLDER~1\AppData\Local\Temp\ccgE0nth.s:30501  .debug_str:000000000002db91 .LASF3235
C:\Users\SOLDER~1\AppData\Local\Temp\ccgE0nth.s:28293  .debug_str:0000000000024b80 .LASF3236
C:\Users\SOLDER~1\AppData\Local\Temp\ccgE0nth.s:22919  .debug_str:000000000000eebc .LASF3237
C:\Users\SOLDER~1\AppData\Local\Temp\ccgE0nth.s:26561  .debug_str:000000000001dafe .LASF3238
C:\Users\SOLDER~1\AppData\Local\Temp\ccgE0nth.s:30155  .debug_str:000000000002c543 .LASF3239
GAS LISTING C:\Users\SOLDER~1\AppData\Local\Temp\ccgE0nth.s 			page 84


C:\Users\SOLDER~1\AppData\Local\Temp\ccgE0nth.s:22253  .debug_str:000000000000c2f7 .LASF3240
C:\Users\SOLDER~1\AppData\Local\Temp\ccgE0nth.s:28341  .debug_str:0000000000024e96 .LASF3241
C:\Users\SOLDER~1\AppData\Local\Temp\ccgE0nth.s:30049  .debug_str:000000000002be53 .LASF3242
C:\Users\SOLDER~1\AppData\Local\Temp\ccgE0nth.s:23989  .debug_str:00000000000133e9 .LASF3243
C:\Users\SOLDER~1\AppData\Local\Temp\ccgE0nth.s:23163  .debug_str:000000000000fef4 .LASF3244
C:\Users\SOLDER~1\AppData\Local\Temp\ccgE0nth.s:29051  .debug_str:0000000000027dbf .LASF3245
C:\Users\SOLDER~1\AppData\Local\Temp\ccgE0nth.s:26731  .debug_str:000000000001e619 .LASF3246
C:\Users\SOLDER~1\AppData\Local\Temp\ccgE0nth.s:29211  .debug_str:000000000002883e .LASF3247
C:\Users\SOLDER~1\AppData\Local\Temp\ccgE0nth.s:23015  .debug_str:000000000000f4c8 .LASF3248
C:\Users\SOLDER~1\AppData\Local\Temp\ccgE0nth.s:29951  .debug_str:000000000002b801 .LASF3249
C:\Users\SOLDER~1\AppData\Local\Temp\ccgE0nth.s:24419  .debug_str:000000000001511b .LASF3250
C:\Users\SOLDER~1\AppData\Local\Temp\ccgE0nth.s:30595  .debug_str:000000000002e1a1 .LASF3251
C:\Users\SOLDER~1\AppData\Local\Temp\ccgE0nth.s:29669  .debug_str:000000000002a5b3 .LASF3252
C:\Users\SOLDER~1\AppData\Local\Temp\ccgE0nth.s:28641  .debug_str:00000000000262ba .LASF3253
C:\Users\SOLDER~1\AppData\Local\Temp\ccgE0nth.s:29389  .debug_str:000000000002935e .LASF3254
C:\Users\SOLDER~1\AppData\Local\Temp\ccgE0nth.s:26241  .debug_str:000000000001c613 .LASF3255
C:\Users\SOLDER~1\AppData\Local\Temp\ccgE0nth.s:23517  .debug_str:000000000001158d .LASF3256
C:\Users\SOLDER~1\AppData\Local\Temp\ccgE0nth.s:21183  .debug_str:0000000000007d17 .LASF3257
C:\Users\SOLDER~1\AppData\Local\Temp\ccgE0nth.s:22157  .debug_str:000000000000bcda .LASF3258
C:\Users\SOLDER~1\AppData\Local\Temp\ccgE0nth.s:26073  .debug_str:000000000001baec .LASF3259
C:\Users\SOLDER~1\AppData\Local\Temp\ccgE0nth.s:23323  .debug_str:0000000000010904 .LASF3260
C:\Users\SOLDER~1\AppData\Local\Temp\ccgE0nth.s:25971  .debug_str:000000000001b475 .LASF3261
C:\Users\SOLDER~1\AppData\Local\Temp\ccgE0nth.s:27605  .debug_str:0000000000021ea2 .LASF3262
C:\Users\SOLDER~1\AppData\Local\Temp\ccgE0nth.s:28167  .debug_str:00000000000242ed .LASF3263
C:\Users\SOLDER~1\AppData\Local\Temp\ccgE0nth.s:21327  .debug_str:0000000000008684 .LASF3264
C:\Users\SOLDER~1\AppData\Local\Temp\ccgE0nth.s:29109  .debug_str:00000000000281a7 .LASF3265
C:\Users\SOLDER~1\AppData\Local\Temp\ccgE0nth.s:25537  .debug_str:00000000000198ec .LASF3266
C:\Users\SOLDER~1\AppData\Local\Temp\ccgE0nth.s:22315  .debug_str:000000000000c758 .LASF3267
C:\Users\SOLDER~1\AppData\Local\Temp\ccgE0nth.s:21541  .debug_str:00000000000094f5 .LASF3268
C:\Users\SOLDER~1\AppData\Local\Temp\ccgE0nth.s:21247  .debug_str:0000000000008182 .LASF3269
C:\Users\SOLDER~1\AppData\Local\Temp\ccgE0nth.s:23075  .debug_str:000000000000f8cb .LASF3270
C:\Users\SOLDER~1\AppData\Local\Temp\ccgE0nth.s:25289  .debug_str:00000000000188b8 .LASF3271
C:\Users\SOLDER~1\AppData\Local\Temp\ccgE0nth.s:24309  .debug_str:0000000000014a1b .LASF3272
C:\Users\SOLDER~1\AppData\Local\Temp\ccgE0nth.s:26565  .debug_str:000000000001db42 .LASF3273
C:\Users\SOLDER~1\AppData\Local\Temp\ccgE0nth.s:19803  .debug_str:0000000000002433 .LASF3274
C:\Users\SOLDER~1\AppData\Local\Temp\ccgE0nth.s:19971  .debug_str:0000000000002f1f .LASF3275
C:\Users\SOLDER~1\AppData\Local\Temp\ccgE0nth.s:24487  .debug_str:00000000000155b2 .LASF3276
C:\Users\SOLDER~1\AppData\Local\Temp\ccgE0nth.s:26891  .debug_str:000000000001f0a1 .LASF3277
C:\Users\SOLDER~1\AppData\Local\Temp\ccgE0nth.s:27791  .debug_str:0000000000022a44 .LASF3278
C:\Users\SOLDER~1\AppData\Local\Temp\ccgE0nth.s:30697  .debug_str:000000000002e847 .LASF3279
C:\Users\SOLDER~1\AppData\Local\Temp\ccgE0nth.s:29575  .debug_str:0000000000029fa8 .LASF3280
C:\Users\SOLDER~1\AppData\Local\Temp\ccgE0nth.s:29849  .debug_str:000000000002b16a .LASF3281
C:\Users\SOLDER~1\AppData\Local\Temp\ccgE0nth.s:21413  .debug_str:0000000000008c3a .LASF3282
C:\Users\SOLDER~1\AppData\Local\Temp\ccgE0nth.s:25127  .debug_str:0000000000017e50 .LASF3283
C:\Users\SOLDER~1\AppData\Local\Temp\ccgE0nth.s:30359  .debug_str:000000000002d29f .LASF3284
C:\Users\SOLDER~1\AppData\Local\Temp\ccgE0nth.s:28261  .debug_str:0000000000024945 .LASF3285
C:\Users\SOLDER~1\AppData\Local\Temp\ccgE0nth.s:22823  .debug_str:000000000000e8f7 .LASF3286
C:\Users\SOLDER~1\AppData\Local\Temp\ccgE0nth.s:24353  .debug_str:0000000000014d1a .LASF3287
C:\Users\SOLDER~1\AppData\Local\Temp\ccgE0nth.s:22275  .debug_str:000000000000c487 .LASF3288
C:\Users\SOLDER~1\AppData\Local\Temp\ccgE0nth.s:23537  .debug_str:000000000001171a .LASF3289
C:\Users\SOLDER~1\AppData\Local\Temp\ccgE0nth.s:24151  .debug_str:0000000000013f5f .LASF3290
C:\Users\SOLDER~1\AppData\Local\Temp\ccgE0nth.s:23533  .debug_str:00000000000116cf .LASF3291
C:\Users\SOLDER~1\AppData\Local\Temp\ccgE0nth.s:26759  .debug_str:000000000001e7f1 .LASF3292
C:\Users\SOLDER~1\AppData\Local\Temp\ccgE0nth.s:23917  .debug_str:0000000000012f1b .LASF3293
C:\Users\SOLDER~1\AppData\Local\Temp\ccgE0nth.s:29033  .debug_str:0000000000027c74 .LASF3294
C:\Users\SOLDER~1\AppData\Local\Temp\ccgE0nth.s:26437  .debug_str:000000000001d359 .LASF3295
C:\Users\SOLDER~1\AppData\Local\Temp\ccgE0nth.s:27575  .debug_str:0000000000021cb7 .LASF3296
GAS LISTING C:\Users\SOLDER~1\AppData\Local\Temp\ccgE0nth.s 			page 85


C:\Users\SOLDER~1\AppData\Local\Temp\ccgE0nth.s:25111  .debug_str:0000000000017d3b .LASF3297
C:\Users\SOLDER~1\AppData\Local\Temp\ccgE0nth.s:20623  .debug_str:0000000000005854 .LASF3298
C:\Users\SOLDER~1\AppData\Local\Temp\ccgE0nth.s:23093  .debug_str:000000000000fa04 .LASF3299
C:\Users\SOLDER~1\AppData\Local\Temp\ccgE0nth.s:24683  .debug_str:00000000000161d7 .LASF3300
C:\Users\SOLDER~1\AppData\Local\Temp\ccgE0nth.s:26539  .debug_str:000000000001d98b .LASF3301
C:\Users\SOLDER~1\AppData\Local\Temp\ccgE0nth.s:26109  .debug_str:000000000001bd35 .LASF3302
C:\Users\SOLDER~1\AppData\Local\Temp\ccgE0nth.s:22453  .debug_str:000000000000d0aa .LASF3303
C:\Users\SOLDER~1\AppData\Local\Temp\ccgE0nth.s:20025  .debug_str:0000000000003285 .LASF3304
C:\Users\SOLDER~1\AppData\Local\Temp\ccgE0nth.s:26099  .debug_str:000000000001bc7e .LASF3305
C:\Users\SOLDER~1\AppData\Local\Temp\ccgE0nth.s:21439  .debug_str:0000000000008de9 .LASF3306
C:\Users\SOLDER~1\AppData\Local\Temp\ccgE0nth.s:22893  .debug_str:000000000000ed0a .LASF3307
C:\Users\SOLDER~1\AppData\Local\Temp\ccgE0nth.s:20329  .debug_str:00000000000045ca .LASF3308
C:\Users\SOLDER~1\AppData\Local\Temp\ccgE0nth.s:23233  .debug_str:0000000000010336 .LASF3309
C:\Users\SOLDER~1\AppData\Local\Temp\ccgE0nth.s:20511  .debug_str:000000000000512d .LASF3310
C:\Users\SOLDER~1\AppData\Local\Temp\ccgE0nth.s:19309  .debug_str:000000000000035e .LASF3311
C:\Users\SOLDER~1\AppData\Local\Temp\ccgE0nth.s:21721  .debug_str:000000000000a08f .LASF3312
C:\Users\SOLDER~1\AppData\Local\Temp\ccgE0nth.s:26829  .debug_str:000000000001ec8f .LASF3313
C:\Users\SOLDER~1\AppData\Local\Temp\ccgE0nth.s:30663  .debug_str:000000000002e5e5 .LASF3314
C:\Users\SOLDER~1\AppData\Local\Temp\ccgE0nth.s:19499  .debug_str:000000000000107b .LASF3315
C:\Users\SOLDER~1\AppData\Local\Temp\ccgE0nth.s:20179  .debug_str:0000000000003c83 .LASF3316
C:\Users\SOLDER~1\AppData\Local\Temp\ccgE0nth.s:24739  .debug_str:0000000000016585 .LASF3317
C:\Users\SOLDER~1\AppData\Local\Temp\ccgE0nth.s:25735  .debug_str:000000000001a538 .LASF3318
C:\Users\SOLDER~1\AppData\Local\Temp\ccgE0nth.s:25297  .debug_str:0000000000018948 .LASF3319
C:\Users\SOLDER~1\AppData\Local\Temp\ccgE0nth.s:30353  .debug_str:000000000002d23a .LASF3320
C:\Users\SOLDER~1\AppData\Local\Temp\ccgE0nth.s:26889  .debug_str:000000000001f078 .LASF3321
C:\Users\SOLDER~1\AppData\Local\Temp\ccgE0nth.s:23437  .debug_str:0000000000011053 .LASF3322
C:\Users\SOLDER~1\AppData\Local\Temp\ccgE0nth.s:19949  .debug_str:0000000000002d95 .LASF3323
C:\Users\SOLDER~1\AppData\Local\Temp\ccgE0nth.s:28003  .debug_str:0000000000023854 .LASF3324
C:\Users\SOLDER~1\AppData\Local\Temp\ccgE0nth.s:24125  .debug_str:0000000000013d8a .LASF3325
C:\Users\SOLDER~1\AppData\Local\Temp\ccgE0nth.s:23567  .debug_str:00000000000118d1 .LASF3326
C:\Users\SOLDER~1\AppData\Local\Temp\ccgE0nth.s:23017  .debug_str:000000000000f4f7 .LASF3327
C:\Users\SOLDER~1\AppData\Local\Temp\ccgE0nth.s:25371  .debug_str:0000000000018e35 .LASF3328
C:\Users\SOLDER~1\AppData\Local\Temp\ccgE0nth.s:28067  .debug_str:0000000000023c5a .LASF3329
C:\Users\SOLDER~1\AppData\Local\Temp\ccgE0nth.s:19343  .debug_str:000000000000059c .LASF3330
C:\Users\SOLDER~1\AppData\Local\Temp\ccgE0nth.s:20859  .debug_str:000000000000682a .LASF3331
C:\Users\SOLDER~1\AppData\Local\Temp\ccgE0nth.s:19855  .debug_str:000000000000278c .LASF3332
C:\Users\SOLDER~1\AppData\Local\Temp\ccgE0nth.s:26987  .debug_str:000000000001f726 .LASF3333
C:\Users\SOLDER~1\AppData\Local\Temp\ccgE0nth.s:29335  .debug_str:0000000000028fd4 .LASF3334
C:\Users\SOLDER~1\AppData\Local\Temp\ccgE0nth.s:22241  .debug_str:000000000000c221 .LASF3335
C:\Users\SOLDER~1\AppData\Local\Temp\ccgE0nth.s:27263  .debug_str:0000000000020895 .LASF3336
C:\Users\SOLDER~1\AppData\Local\Temp\ccgE0nth.s:20473  .debug_str:0000000000004ef8 .LASF3337
C:\Users\SOLDER~1\AppData\Local\Temp\ccgE0nth.s:21407  .debug_str:0000000000008bc8 .LASF3338
C:\Users\SOLDER~1\AppData\Local\Temp\ccgE0nth.s:23011  .debug_str:000000000000f475 .LASF3339
C:\Users\SOLDER~1\AppData\Local\Temp\ccgE0nth.s:20919  .debug_str:0000000000006bf7 .LASF3340
C:\Users\SOLDER~1\AppData\Local\Temp\ccgE0nth.s:30707  .debug_str:000000000002e8f9 .LASF3341
C:\Users\SOLDER~1\AppData\Local\Temp\ccgE0nth.s:26285  .debug_str:000000000001c8ee .LASF3342
C:\Users\SOLDER~1\AppData\Local\Temp\ccgE0nth.s:27129  .debug_str:000000000002002e .LASF3343
C:\Users\SOLDER~1\AppData\Local\Temp\ccgE0nth.s:25397  .debug_str:0000000000018ff8 .LASF3344
C:\Users\SOLDER~1\AppData\Local\Temp\ccgE0nth.s:23585  .debug_str:0000000000011a0f .LASF3345
C:\Users\SOLDER~1\AppData\Local\Temp\ccgE0nth.s:21085  .debug_str:00000000000076d6 .LASF3346
C:\Users\SOLDER~1\AppData\Local\Temp\ccgE0nth.s:29763  .debug_str:000000000002abb0 .LASF3347
C:\Users\SOLDER~1\AppData\Local\Temp\ccgE0nth.s:22109  .debug_str:000000000000b99c .LASF3348
C:\Users\SOLDER~1\AppData\Local\Temp\ccgE0nth.s:24475  .debug_str:00000000000154ed .LASF3349
C:\Users\SOLDER~1\AppData\Local\Temp\ccgE0nth.s:27613  .debug_str:0000000000021f2f .LASF3350
C:\Users\SOLDER~1\AppData\Local\Temp\ccgE0nth.s:26917  .debug_str:000000000001f264 .LASF3351
C:\Users\SOLDER~1\AppData\Local\Temp\ccgE0nth.s:24223  .debug_str:0000000000014468 .LASF3352
C:\Users\SOLDER~1\AppData\Local\Temp\ccgE0nth.s:24503  .debug_str:00000000000156d3 .LASF3353
GAS LISTING C:\Users\SOLDER~1\AppData\Local\Temp\ccgE0nth.s 			page 86


C:\Users\SOLDER~1\AppData\Local\Temp\ccgE0nth.s:24233  .debug_str:00000000000144fa .LASF3354
C:\Users\SOLDER~1\AppData\Local\Temp\ccgE0nth.s:20745  .debug_str:000000000000604f .LASF3355
C:\Users\SOLDER~1\AppData\Local\Temp\ccgE0nth.s:28807  .debug_str:0000000000026d9a .LASF3356
C:\Users\SOLDER~1\AppData\Local\Temp\ccgE0nth.s:25415  .debug_str:0000000000019125 .LASF3357
C:\Users\SOLDER~1\AppData\Local\Temp\ccgE0nth.s:25245  .debug_str:0000000000018617 .LASF3358
C:\Users\SOLDER~1\AppData\Local\Temp\ccgE0nth.s:30001  .debug_str:000000000002bb15 .LASF3359
C:\Users\SOLDER~1\AppData\Local\Temp\ccgE0nth.s:22281  .debug_str:000000000000c4fe .LASF3360
C:\Users\SOLDER~1\AppData\Local\Temp\ccgE0nth.s:27045  .debug_str:000000000001fad8 .LASF3361
C:\Users\SOLDER~1\AppData\Local\Temp\ccgE0nth.s:29831  .debug_str:000000000002b00b .LASF3362
C:\Users\SOLDER~1\AppData\Local\Temp\ccgE0nth.s:29339  .debug_str:0000000000029021 .LASF3363
C:\Users\SOLDER~1\AppData\Local\Temp\ccgE0nth.s:27217  .debug_str:0000000000020595 .LASF3364
C:\Users\SOLDER~1\AppData\Local\Temp\ccgE0nth.s:26579  .debug_str:000000000001dc1e .LASF3365
C:\Users\SOLDER~1\AppData\Local\Temp\ccgE0nth.s:27701  .debug_str:0000000000022472 .LASF3366
C:\Users\SOLDER~1\AppData\Local\Temp\ccgE0nth.s:28829  .debug_str:0000000000026f41 .LASF3367
C:\Users\SOLDER~1\AppData\Local\Temp\ccgE0nth.s:29907  .debug_str:000000000002b506 .LASF3368
C:\Users\SOLDER~1\AppData\Local\Temp\ccgE0nth.s:23095  .debug_str:000000000000fa2c .LASF3369
C:\Users\SOLDER~1\AppData\Local\Temp\ccgE0nth.s:27807  .debug_str:0000000000022b6b .LASF3370
C:\Users\SOLDER~1\AppData\Local\Temp\ccgE0nth.s:28749  .debug_str:00000000000269f3 .LASF3371
C:\Users\SOLDER~1\AppData\Local\Temp\ccgE0nth.s:20727  .debug_str:0000000000005f16 .LASF3372
C:\Users\SOLDER~1\AppData\Local\Temp\ccgE0nth.s:30533  .debug_str:000000000002ddb7 .LASF3373
C:\Users\SOLDER~1\AppData\Local\Temp\ccgE0nth.s:27711  .debug_str:0000000000022518 .LASF3374
C:\Users\SOLDER~1\AppData\Local\Temp\ccgE0nth.s:29175  .debug_str:00000000000285b1 .LASF3375
C:\Users\SOLDER~1\AppData\Local\Temp\ccgE0nth.s:22005  .debug_str:000000000000b33b .LASF3376
C:\Users\SOLDER~1\AppData\Local\Temp\ccgE0nth.s:23783  .debug_str:0000000000012695 .LASF3377
C:\Users\SOLDER~1\AppData\Local\Temp\ccgE0nth.s:26289  .debug_str:000000000001c930 .LASF3378
C:\Users\SOLDER~1\AppData\Local\Temp\ccgE0nth.s:25651  .debug_str:0000000000019fe8 .LASF3379
C:\Users\SOLDER~1\AppData\Local\Temp\ccgE0nth.s:23847  .debug_str:0000000000012a6b .LASF3380
C:\Users\SOLDER~1\AppData\Local\Temp\ccgE0nth.s:26961  .debug_str:000000000001f552 .LASF3381
C:\Users\SOLDER~1\AppData\Local\Temp\ccgE0nth.s:25069  .debug_str:0000000000017a92 .LASF3382
C:\Users\SOLDER~1\AppData\Local\Temp\ccgE0nth.s:30583  .debug_str:000000000002e0d6 .LASF3383
C:\Users\SOLDER~1\AppData\Local\Temp\ccgE0nth.s:26007  .debug_str:000000000001b6bc .LASF3384
C:\Users\SOLDER~1\AppData\Local\Temp\ccgE0nth.s:25607  .debug_str:0000000000019d43 .LASF3385
C:\Users\SOLDER~1\AppData\Local\Temp\ccgE0nth.s:29491  .debug_str:00000000000299f1 .LASF3386
C:\Users\SOLDER~1\AppData\Local\Temp\ccgE0nth.s:24295  .debug_str:0000000000014913 .LASF3387
C:\Users\SOLDER~1\AppData\Local\Temp\ccgE0nth.s:30267  .debug_str:000000000002cc52 .LASF3388
C:\Users\SOLDER~1\AppData\Local\Temp\ccgE0nth.s:24383  .debug_str:0000000000014f04 .LASF3389
C:\Users\SOLDER~1\AppData\Local\Temp\ccgE0nth.s:26723  .debug_str:000000000001e583 .LASF3390
C:\Users\SOLDER~1\AppData\Local\Temp\ccgE0nth.s:30803  .debug_str:000000000002eee6 .LASF3391
C:\Users\SOLDER~1\AppData\Local\Temp\ccgE0nth.s:22907  .debug_str:000000000000edfd .LASF3392
C:\Users\SOLDER~1\AppData\Local\Temp\ccgE0nth.s:21445  .debug_str:0000000000008e5e .LASF3393
C:\Users\SOLDER~1\AppData\Local\Temp\ccgE0nth.s:19579  .debug_str:00000000000015b2 .LASF3394
C:\Users\SOLDER~1\AppData\Local\Temp\ccgE0nth.s:28461  .debug_str:000000000002561b .LASF3395
C:\Users\SOLDER~1\AppData\Local\Temp\ccgE0nth.s:28581  .debug_str:0000000000025e6d .LASF3396
C:\Users\SOLDER~1\AppData\Local\Temp\ccgE0nth.s:25659  .debug_str:000000000001a073 .LASF3397
C:\Users\SOLDER~1\AppData\Local\Temp\ccgE0nth.s:22735  .debug_str:000000000000e36f .LASF3398
C:\Users\SOLDER~1\AppData\Local\Temp\ccgE0nth.s:21759  .debug_str:000000000000a327 .LASF3399
C:\Users\SOLDER~1\AppData\Local\Temp\ccgE0nth.s:24917  .debug_str:0000000000017071 .LASF3400
C:\Users\SOLDER~1\AppData\Local\Temp\ccgE0nth.s:25131  .debug_str:0000000000017e9f .LASF3401
C:\Users\SOLDER~1\AppData\Local\Temp\ccgE0nth.s:29589  .debug_str:000000000002a08f .LASF3402
C:\Users\SOLDER~1\AppData\Local\Temp\ccgE0nth.s:24911  .debug_str:0000000000017011 .LASF3403
C:\Users\SOLDER~1\AppData\Local\Temp\ccgE0nth.s:28793  .debug_str:0000000000026cd1 .LASF3404
C:\Users\SOLDER~1\AppData\Local\Temp\ccgE0nth.s:22009  .debug_str:000000000000b375 .LASF3405
C:\Users\SOLDER~1\AppData\Local\Temp\ccgE0nth.s:26741  .debug_str:000000000001e6d9 .LASF3406
C:\Users\SOLDER~1\AppData\Local\Temp\ccgE0nth.s:19939  .debug_str:0000000000002ce7 .LASF3407
C:\Users\SOLDER~1\AppData\Local\Temp\ccgE0nth.s:21637  .debug_str:0000000000009b0c .LASF3408
C:\Users\SOLDER~1\AppData\Local\Temp\ccgE0nth.s:29439  .debug_str:00000000000296c0 .LASF3409
C:\Users\SOLDER~1\AppData\Local\Temp\ccgE0nth.s:30185  .debug_str:000000000002c735 .LASF3410
GAS LISTING C:\Users\SOLDER~1\AppData\Local\Temp\ccgE0nth.s 			page 87


C:\Users\SOLDER~1\AppData\Local\Temp\ccgE0nth.s:20107  .debug_str:00000000000037ce .LASF3411
C:\Users\SOLDER~1\AppData\Local\Temp\ccgE0nth.s:29891  .debug_str:000000000002b40a .LASF3412
C:\Users\SOLDER~1\AppData\Local\Temp\ccgE0nth.s:28065  .debug_str:0000000000023c30 .LASF3413
C:\Users\SOLDER~1\AppData\Local\Temp\ccgE0nth.s:26315  .debug_str:000000000001cb11 .LASF3414
C:\Users\SOLDER~1\AppData\Local\Temp\ccgE0nth.s:24573  .debug_str:0000000000015af1 .LASF3415
C:\Users\SOLDER~1\AppData\Local\Temp\ccgE0nth.s:29649  .debug_str:000000000002a467 .LASF3416
C:\Users\SOLDER~1\AppData\Local\Temp\ccgE0nth.s:20989  .debug_str:00000000000070ce .LASF3417
C:\Users\SOLDER~1\AppData\Local\Temp\ccgE0nth.s:24393  .debug_str:0000000000014f94 .LASF3418
C:\Users\SOLDER~1\AppData\Local\Temp\ccgE0nth.s:23413  .debug_str:0000000000010eb8 .LASF3419
C:\Users\SOLDER~1\AppData\Local\Temp\ccgE0nth.s:22915  .debug_str:000000000000ee87 .LASF3420
C:\Users\SOLDER~1\AppData\Local\Temp\ccgE0nth.s:28219  .debug_str:000000000002467f .LASF3421
C:\Users\SOLDER~1\AppData\Local\Temp\ccgE0nth.s:28431  .debug_str:0000000000025443 .LASF3422
C:\Users\SOLDER~1\AppData\Local\Temp\ccgE0nth.s:23583  .debug_str:00000000000119e8 .LASF3423
C:\Users\SOLDER~1\AppData\Local\Temp\ccgE0nth.s:29293  .debug_str:0000000000028d54 .LASF3424
C:\Users\SOLDER~1\AppData\Local\Temp\ccgE0nth.s:26649  .debug_str:000000000001e0d5 .LASF3425
C:\Users\SOLDER~1\AppData\Local\Temp\ccgE0nth.s:27207  .debug_str:00000000000204fd .LASF3426
C:\Users\SOLDER~1\AppData\Local\Temp\ccgE0nth.s:23771  .debug_str:00000000000125ae .LASF3427
C:\Users\SOLDER~1\AppData\Local\Temp\ccgE0nth.s:25637  .debug_str:0000000000019ef3 .LASF3428
C:\Users\SOLDER~1\AppData\Local\Temp\ccgE0nth.s:20171  .debug_str:0000000000003bfb .LASF3429
C:\Users\SOLDER~1\AppData\Local\Temp\ccgE0nth.s:24975  .debug_str:0000000000017441 .LASF3430
C:\Users\SOLDER~1\AppData\Local\Temp\ccgE0nth.s:21469  .debug_str:0000000000009000 .LASF3431
C:\Users\SOLDER~1\AppData\Local\Temp\ccgE0nth.s:27313  .debug_str:0000000000020bd7 .LASF3432
C:\Users\SOLDER~1\AppData\Local\Temp\ccgE0nth.s:30081  .debug_str:000000000002c09e .LASF3433
C:\Users\SOLDER~1\AppData\Local\Temp\ccgE0nth.s:23419  .debug_str:0000000000010f25 .LASF3434
C:\Users\SOLDER~1\AppData\Local\Temp\ccgE0nth.s:24103  .debug_str:0000000000013c15 .LASF3435
C:\Users\SOLDER~1\AppData\Local\Temp\ccgE0nth.s:26839  .debug_str:000000000001ed43 .LASF3436
C:\Users\SOLDER~1\AppData\Local\Temp\ccgE0nth.s:21767  .debug_str:000000000000a39f .LASF3437
C:\Users\SOLDER~1\AppData\Local\Temp\ccgE0nth.s:20833  .debug_str:0000000000006643 .LASF3438
C:\Users\SOLDER~1\AppData\Local\Temp\ccgE0nth.s:23609  .debug_str:0000000000011b86 .LASF3439
C:\Users\SOLDER~1\AppData\Local\Temp\ccgE0nth.s:21379  .debug_str:00000000000089de .LASF3440
C:\Users\SOLDER~1\AppData\Local\Temp\ccgE0nth.s:26113  .debug_str:000000000001bd84 .LASF3441
C:\Users\SOLDER~1\AppData\Local\Temp\ccgE0nth.s:19325  .debug_str:0000000000000463 .LASF3442
C:\Users\SOLDER~1\AppData\Local\Temp\ccgE0nth.s:22285  .debug_str:000000000000c541 .LASF3443
C:\Users\SOLDER~1\AppData\Local\Temp\ccgE0nth.s:28769  .debug_str:0000000000026b53 .LASF3444
C:\Users\SOLDER~1\AppData\Local\Temp\ccgE0nth.s:20793  .debug_str:00000000000063ab .LASF3445
C:\Users\SOLDER~1\AppData\Local\Temp\ccgE0nth.s:26721  .debug_str:000000000001e559 .LASF3446
C:\Users\SOLDER~1\AppData\Local\Temp\ccgE0nth.s:24237  .debug_str:000000000001454a .LASF3447
C:\Users\SOLDER~1\AppData\Local\Temp\ccgE0nth.s:22433  .debug_str:000000000000cf72 .LASF3448
C:\Users\SOLDER~1\AppData\Local\Temp\ccgE0nth.s:28811  .debug_str:0000000000026dec .LASF3449
C:\Users\SOLDER~1\AppData\Local\Temp\ccgE0nth.s:30435  .debug_str:000000000002d778 .LASF3450
C:\Users\SOLDER~1\AppData\Local\Temp\ccgE0nth.s:24565  .debug_str:0000000000015a74 .LASF3451
C:\Users\SOLDER~1\AppData\Local\Temp\ccgE0nth.s:26869  .debug_str:000000000001ef22 .LASF3452
C:\Users\SOLDER~1\AppData\Local\Temp\ccgE0nth.s:25137  .debug_str:0000000000017f09 .LASF3453
C:\Users\SOLDER~1\AppData\Local\Temp\ccgE0nth.s:20351  .debug_str:0000000000004756 .LASF3454
C:\Users\SOLDER~1\AppData\Local\Temp\ccgE0nth.s:25401  .debug_str:0000000000019042 .LASF3455
C:\Users\SOLDER~1\AppData\Local\Temp\ccgE0nth.s:19901  .debug_str:0000000000002aa8 .LASF3456
C:\Users\SOLDER~1\AppData\Local\Temp\ccgE0nth.s:29877  .debug_str:000000000002b331 .LASF3457
C:\Users\SOLDER~1\AppData\Local\Temp\ccgE0nth.s:29079  .debug_str:0000000000027f94 .LASF3458
C:\Users\SOLDER~1\AppData\Local\Temp\ccgE0nth.s:30667  .debug_str:000000000002e623 .LASF3459
C:\Users\SOLDER~1\AppData\Local\Temp\ccgE0nth.s:23593  .debug_str:0000000000011ab3 .LASF3460
C:\Users\SOLDER~1\AppData\Local\Temp\ccgE0nth.s:28303  .debug_str:0000000000024c10 .LASF3461
C:\Users\SOLDER~1\AppData\Local\Temp\ccgE0nth.s:23689  .debug_str:000000000001208d .LASF3462
C:\Users\SOLDER~1\AppData\Local\Temp\ccgE0nth.s:29111  .debug_str:00000000000281c6 .LASF3463
C:\Users\SOLDER~1\AppData\Local\Temp\ccgE0nth.s:27619  .debug_str:0000000000021f8d .LASF3464
C:\Users\SOLDER~1\AppData\Local\Temp\ccgE0nth.s:20605  .debug_str:00000000000056f5 .LASF3465
C:\Users\SOLDER~1\AppData\Local\Temp\ccgE0nth.s:23051  .debug_str:000000000000f71d .LASF3466
C:\Users\SOLDER~1\AppData\Local\Temp\ccgE0nth.s:24933  .debug_str:000000000001718d .LASF3467
GAS LISTING C:\Users\SOLDER~1\AppData\Local\Temp\ccgE0nth.s 			page 88


C:\Users\SOLDER~1\AppData\Local\Temp\ccgE0nth.s:25107  .debug_str:0000000000017d02 .LASF3468
C:\Users\SOLDER~1\AppData\Local\Temp\ccgE0nth.s:19885  .debug_str:00000000000029b5 .LASF3469
C:\Users\SOLDER~1\AppData\Local\Temp\ccgE0nth.s:25233  .debug_str:0000000000018553 .LASF3470
C:\Users\SOLDER~1\AppData\Local\Temp\ccgE0nth.s:29961  .debug_str:000000000002b894 .LASF3471
C:\Users\SOLDER~1\AppData\Local\Temp\ccgE0nth.s:26791  .debug_str:000000000001ea39 .LASF3472
C:\Users\SOLDER~1\AppData\Local\Temp\ccgE0nth.s:20155  .debug_str:0000000000003afa .LASF3473
C:\Users\SOLDER~1\AppData\Local\Temp\ccgE0nth.s:20837  .debug_str:000000000000668f .LASF3474
C:\Users\SOLDER~1\AppData\Local\Temp\ccgE0nth.s:24081  .debug_str:0000000000013a4a .LASF3475
C:\Users\SOLDER~1\AppData\Local\Temp\ccgE0nth.s:22399  .debug_str:000000000000cd3c .LASF3476
C:\Users\SOLDER~1\AppData\Local\Temp\ccgE0nth.s:24189  .debug_str:00000000000141d9 .LASF3477
C:\Users\SOLDER~1\AppData\Local\Temp\ccgE0nth.s:21103  .debug_str:00000000000077f4 .LASF3478
C:\Users\SOLDER~1\AppData\Local\Temp\ccgE0nth.s:21441  .debug_str:0000000000008e19 .LASF3479
C:\Users\SOLDER~1\AppData\Local\Temp\ccgE0nth.s:21049  .debug_str:00000000000074ae .LASF3480
C:\Users\SOLDER~1\AppData\Local\Temp\ccgE0nth.s:26849  .debug_str:000000000001ede8 .LASF3481
C:\Users\SOLDER~1\AppData\Local\Temp\ccgE0nth.s:29873  .debug_str:000000000002b2f4 .LASF3482
C:\Users\SOLDER~1\AppData\Local\Temp\ccgE0nth.s:20003  .debug_str:000000000000311e .LASF3483
C:\Users\SOLDER~1\AppData\Local\Temp\ccgE0nth.s:27641  .debug_str:00000000000220d8 .LASF3484
C:\Users\SOLDER~1\AppData\Local\Temp\ccgE0nth.s:20609  .debug_str:000000000000573d .LASF3485
C:\Users\SOLDER~1\AppData\Local\Temp\ccgE0nth.s:21223  .debug_str:0000000000007fdf .LASF3486
C:\Users\SOLDER~1\AppData\Local\Temp\ccgE0nth.s:19981  .debug_str:0000000000002fcb .LASF3487
C:\Users\SOLDER~1\AppData\Local\Temp\ccgE0nth.s:29165  .debug_str:0000000000028515 .LASF3488
C:\Users\SOLDER~1\AppData\Local\Temp\ccgE0nth.s:25327  .debug_str:0000000000018b59 .LASF3489
C:\Users\SOLDER~1\AppData\Local\Temp\ccgE0nth.s:26683  .debug_str:000000000001e2fb .LASF3490
C:\Users\SOLDER~1\AppData\Local\Temp\ccgE0nth.s:23981  .debug_str:000000000001336e .LASF3491
C:\Users\SOLDER~1\AppData\Local\Temp\ccgE0nth.s:26217  .debug_str:000000000001c47f .LASF3492
C:\Users\SOLDER~1\AppData\Local\Temp\ccgE0nth.s:22759  .debug_str:000000000000e4f7 .LASF3493
C:\Users\SOLDER~1\AppData\Local\Temp\ccgE0nth.s:22213  .debug_str:000000000000c059 .LASF3494
C:\Users\SOLDER~1\AppData\Local\Temp\ccgE0nth.s:27279  .debug_str:00000000000209a7 .LASF3495
C:\Users\SOLDER~1\AppData\Local\Temp\ccgE0nth.s:29783  .debug_str:000000000002aced .LASF3496
C:\Users\SOLDER~1\AppData\Local\Temp\ccgE0nth.s:28851  .debug_str:0000000000027095 .LASF3497
C:\Users\SOLDER~1\AppData\Local\Temp\ccgE0nth.s:20963  .debug_str:0000000000006eec .LASF3498
C:\Users\SOLDER~1\AppData\Local\Temp\ccgE0nth.s:25319  .debug_str:0000000000018acb .LASF3499
C:\Users\SOLDER~1\AppData\Local\Temp\ccgE0nth.s:24697  .debug_str:00000000000162c4 .LASF3500
C:\Users\SOLDER~1\AppData\Local\Temp\ccgE0nth.s:20569  .debug_str:00000000000054c7 .LASF3501
C:\Users\SOLDER~1\AppData\Local\Temp\ccgE0nth.s:19921  .debug_str:0000000000002bca .LASF3502
C:\Users\SOLDER~1\AppData\Local\Temp\ccgE0nth.s:21111  .debug_str:000000000000785f .LASF3503
C:\Users\SOLDER~1\AppData\Local\Temp\ccgE0nth.s:28041  .debug_str:0000000000023aae .LASF3504
C:\Users\SOLDER~1\AppData\Local\Temp\ccgE0nth.s:30715  .debug_str:000000000002e978 .LASF3505
C:\Users\SOLDER~1\AppData\Local\Temp\ccgE0nth.s:28331  .debug_str:0000000000024dea .LASF3506
C:\Users\SOLDER~1\AppData\Local\Temp\ccgE0nth.s:29417  .debug_str:000000000002956a .LASF3507
C:\Users\SOLDER~1\AppData\Local\Temp\ccgE0nth.s:29143  .debug_str:00000000000283b8 .LASF3508
C:\Users\SOLDER~1\AppData\Local\Temp\ccgE0nth.s:20405  .debug_str:0000000000004aab .LASF3509
C:\Users\SOLDER~1\AppData\Local\Temp\ccgE0nth.s:26287  .debug_str:000000000001c917 .LASF3510
C:\Users\SOLDER~1\AppData\Local\Temp\ccgE0nth.s:28887  .debug_str:00000000000272fb .LASF3511
C:\Users\SOLDER~1\AppData\Local\Temp\ccgE0nth.s:30113  .debug_str:000000000002c2cd .LASF3512
C:\Users\SOLDER~1\AppData\Local\Temp\ccgE0nth.s:22887  .debug_str:000000000000eca8 .LASF3513
C:\Users\SOLDER~1\AppData\Local\Temp\ccgE0nth.s:30523  .debug_str:000000000002dd24 .LASF3514
C:\Users\SOLDER~1\AppData\Local\Temp\ccgE0nth.s:26777  .debug_str:000000000001e94a .LASF3515
C:\Users\SOLDER~1\AppData\Local\Temp\ccgE0nth.s:28671  .debug_str:00000000000264d3 .LASF3516
C:\Users\SOLDER~1\AppData\Local\Temp\ccgE0nth.s:20713  .debug_str:0000000000005e3a .LASF3517
C:\Users\SOLDER~1\AppData\Local\Temp\ccgE0nth.s:29317  .debug_str:0000000000028eaf .LASF3518
C:\Users\SOLDER~1\AppData\Local\Temp\ccgE0nth.s:25649  .debug_str:0000000000019fc5 .LASF3519
C:\Users\SOLDER~1\AppData\Local\Temp\ccgE0nth.s:24939  .debug_str:00000000000171ff .LASF3520
C:\Users\SOLDER~1\AppData\Local\Temp\ccgE0nth.s:29685  .debug_str:000000000002a6cf .LASF3521
C:\Users\SOLDER~1\AppData\Local\Temp\ccgE0nth.s:23001  .debug_str:000000000000f3d9 .LASF3522
C:\Users\SOLDER~1\AppData\Local\Temp\ccgE0nth.s:25957  .debug_str:000000000001b389 .LASF3523
C:\Users\SOLDER~1\AppData\Local\Temp\ccgE0nth.s:21113  .debug_str:0000000000007884 .LASF3524
GAS LISTING C:\Users\SOLDER~1\AppData\Local\Temp\ccgE0nth.s 			page 89


C:\Users\SOLDER~1\AppData\Local\Temp\ccgE0nth.s:24641  .debug_str:0000000000015f19 .LASF3525
C:\Users\SOLDER~1\AppData\Local\Temp\ccgE0nth.s:19919  .debug_str:0000000000002bb1 .LASF3526
C:\Users\SOLDER~1\AppData\Local\Temp\ccgE0nth.s:24953  .debug_str:00000000000172f3 .LASF3527
C:\Users\SOLDER~1\AppData\Local\Temp\ccgE0nth.s:29373  .debug_str:000000000002925d .LASF3528
C:\Users\SOLDER~1\AppData\Local\Temp\ccgE0nth.s:19619  .debug_str:000000000000182b .LASF3529
C:\Users\SOLDER~1\AppData\Local\Temp\ccgE0nth.s:30151  .debug_str:000000000002c502 .LASF3530
C:\Users\SOLDER~1\AppData\Local\Temp\ccgE0nth.s:24979  .debug_str:0000000000017496 .LASF3531
C:\Users\SOLDER~1\AppData\Local\Temp\ccgE0nth.s:26623  .debug_str:000000000001df41 .LASF3532
C:\Users\SOLDER~1\AppData\Local\Temp\ccgE0nth.s:22671  .debug_str:000000000000ded6 .LASF3533
C:\Users\SOLDER~1\AppData\Local\Temp\ccgE0nth.s:29903  .debug_str:000000000002b4cb .LASF3534
C:\Users\SOLDER~1\AppData\Local\Temp\ccgE0nth.s:23097  .debug_str:000000000000fa55 .LASF3535
C:\Users\SOLDER~1\AppData\Local\Temp\ccgE0nth.s:27415  .debug_str:0000000000021297 .LASF3536
C:\Users\SOLDER~1\AppData\Local\Temp\ccgE0nth.s:20315  .debug_str:00000000000044fd .LASF3537
C:\Users\SOLDER~1\AppData\Local\Temp\ccgE0nth.s:23361  .debug_str:0000000000010b80 .LASF3538
C:\Users\SOLDER~1\AppData\Local\Temp\ccgE0nth.s:19913  .debug_str:0000000000002b67 .LASF3539
C:\Users\SOLDER~1\AppData\Local\Temp\ccgE0nth.s:24605  .debug_str:0000000000015ce9 .LASF3540
C:\Users\SOLDER~1\AppData\Local\Temp\ccgE0nth.s:26203  .debug_str:000000000001c3aa .LASF3541
C:\Users\SOLDER~1\AppData\Local\Temp\ccgE0nth.s:19303  .debug_str:0000000000000306 .LASF3542
C:\Users\SOLDER~1\AppData\Local\Temp\ccgE0nth.s:22961  .debug_str:000000000000f158 .LASF3543
C:\Users\SOLDER~1\AppData\Local\Temp\ccgE0nth.s:27693  .debug_str:00000000000223eb .LASF3544
C:\Users\SOLDER~1\AppData\Local\Temp\ccgE0nth.s:30465  .debug_str:000000000002d960 .LASF3545
C:\Users\SOLDER~1\AppData\Local\Temp\ccgE0nth.s:27489  .debug_str:000000000002173f .LASF3546
C:\Users\SOLDER~1\AppData\Local\Temp\ccgE0nth.s:20821  .debug_str:000000000000657d .LASF3547
C:\Users\SOLDER~1\AppData\Local\Temp\ccgE0nth.s:20687  .debug_str:0000000000005c9d .LASF3548
C:\Users\SOLDER~1\AppData\Local\Temp\ccgE0nth.s:22375  .debug_str:000000000000cb9e .LASF3549
C:\Users\SOLDER~1\AppData\Local\Temp\ccgE0nth.s:19475  .debug_str:0000000000000f07 .LASF3550
C:\Users\SOLDER~1\AppData\Local\Temp\ccgE0nth.s:23187  .debug_str:000000000001007a .LASF3551
C:\Users\SOLDER~1\AppData\Local\Temp\ccgE0nth.s:20915  .debug_str:0000000000006bcb .LASF3552
C:\Users\SOLDER~1\AppData\Local\Temp\ccgE0nth.s:20497  .debug_str:000000000000506a .LASF3553
C:\Users\SOLDER~1\AppData\Local\Temp\ccgE0nth.s:19677  .debug_str:0000000000001bf6 .LASF3554
C:\Users\SOLDER~1\AppData\Local\Temp\ccgE0nth.s:28403  .debug_str:000000000002528a .LASF3555
C:\Users\SOLDER~1\AppData\Local\Temp\ccgE0nth.s:19461  .debug_str:0000000000000e46 .LASF3556
C:\Users\SOLDER~1\AppData\Local\Temp\ccgE0nth.s:25777  .debug_str:000000000001a823 .LASF3557
C:\Users\SOLDER~1\AppData\Local\Temp\ccgE0nth.s:22977  .debug_str:000000000000f25d .LASF3558
C:\Users\SOLDER~1\AppData\Local\Temp\ccgE0nth.s:19785  .debug_str:00000000000022fa .LASF3559
C:\Users\SOLDER~1\AppData\Local\Temp\ccgE0nth.s:20551  .debug_str:00000000000053d0 .LASF3560
C:\Users\SOLDER~1\AppData\Local\Temp\ccgE0nth.s:22865  .debug_str:000000000000eb77 .LASF3561
C:\Users\SOLDER~1\AppData\Local\Temp\ccgE0nth.s:23733  .debug_str:000000000001234b .LASF3562
C:\Users\SOLDER~1\AppData\Local\Temp\ccgE0nth.s:30249  .debug_str:000000000002cb27 .LASF3563
C:\Users\SOLDER~1\AppData\Local\Temp\ccgE0nth.s:24653  .debug_str:0000000000015fe1 .LASF3564
C:\Users\SOLDER~1\AppData\Local\Temp\ccgE0nth.s:26077  .debug_str:000000000001bb2b .LASF3565
C:\Users\SOLDER~1\AppData\Local\Temp\ccgE0nth.s:26813  .debug_str:000000000001eb99 .LASF3566
C:\Users\SOLDER~1\AppData\Local\Temp\ccgE0nth.s:19881  .debug_str:0000000000002971 .LASF3567
C:\Users\SOLDER~1\AppData\Local\Temp\ccgE0nth.s:24865  .debug_str:0000000000016d1f .LASF3568
C:\Users\SOLDER~1\AppData\Local\Temp\ccgE0nth.s:23683  .debug_str:000000000001202e .LASF3569
C:\Users\SOLDER~1\AppData\Local\Temp\ccgE0nth.s:29923  .debug_str:000000000002b634 .LASF3570
C:\Users\SOLDER~1\AppData\Local\Temp\ccgE0nth.s:27209  .debug_str:0000000000020527 .LASF3571
C:\Users\SOLDER~1\AppData\Local\Temp\ccgE0nth.s:19837  .debug_str:0000000000002646 .LASF3572
C:\Users\SOLDER~1\AppData\Local\Temp\ccgE0nth.s:25387  .debug_str:0000000000018f49 .LASF3573
C:\Users\SOLDER~1\AppData\Local\Temp\ccgE0nth.s:23279  .debug_str:000000000001064d .LASF3574
C:\Users\SOLDER~1\AppData\Local\Temp\ccgE0nth.s:22561  .debug_str:000000000000d7cb .LASF3575
C:\Users\SOLDER~1\AppData\Local\Temp\ccgE0nth.s:28695  .debug_str:0000000000026640 .LASF3576
C:\Users\SOLDER~1\AppData\Local\Temp\ccgE0nth.s:30173  .debug_str:000000000002c668 .LASF3577
C:\Users\SOLDER~1\AppData\Local\Temp\ccgE0nth.s:22949  .debug_str:000000000000f0a0 .LASF3578
C:\Users\SOLDER~1\AppData\Local\Temp\ccgE0nth.s:28001  .debug_str:0000000000023831 .LASF3579
C:\Users\SOLDER~1\AppData\Local\Temp\ccgE0nth.s:30571  .debug_str:000000000002e01a .LASF3580
C:\Users\SOLDER~1\AppData\Local\Temp\ccgE0nth.s:20349  .debug_str:0000000000004735 .LASF3581
GAS LISTING C:\Users\SOLDER~1\AppData\Local\Temp\ccgE0nth.s 			page 90


C:\Users\SOLDER~1\AppData\Local\Temp\ccgE0nth.s:24731  .debug_str:00000000000164e9 .LASF3582
C:\Users\SOLDER~1\AppData\Local\Temp\ccgE0nth.s:25077  .debug_str:0000000000017b0b .LASF3583
C:\Users\SOLDER~1\AppData\Local\Temp\ccgE0nth.s:19889  .debug_str:00000000000029f1 .LASF3584
C:\Users\SOLDER~1\AppData\Local\Temp\ccgE0nth.s:21205  .debug_str:0000000000007e9e .LASF3585
C:\Users\SOLDER~1\AppData\Local\Temp\ccgE0nth.s:19331  .debug_str:00000000000004d7 .LASF3586
C:\Users\SOLDER~1\AppData\Local\Temp\ccgE0nth.s:27671  .debug_str:000000000002227b .LASF3587
C:\Users\SOLDER~1\AppData\Local\Temp\ccgE0nth.s:23109  .debug_str:000000000000fb23 .LASF3588
C:\Users\SOLDER~1\AppData\Local\Temp\ccgE0nth.s:28497  .debug_str:00000000000258b5 .LASF3589
C:\Users\SOLDER~1\AppData\Local\Temp\ccgE0nth.s:28061  .debug_str:0000000000023bf0 .LASF3590
C:\Users\SOLDER~1\AppData\Local\Temp\ccgE0nth.s:30625  .debug_str:000000000002e377 .LASF3591
C:\Users\SOLDER~1\AppData\Local\Temp\ccgE0nth.s:21859  .debug_str:000000000000a9d4 .LASF3592
C:\Users\SOLDER~1\AppData\Local\Temp\ccgE0nth.s:22877  .debug_str:000000000000ec0c .LASF3593
C:\Users\SOLDER~1\AppData\Local\Temp\ccgE0nth.s:23559  .debug_str:0000000000011847 .LASF3594
C:\Users\SOLDER~1\AppData\Local\Temp\ccgE0nth.s:20069  .debug_str:0000000000003578 .LASF3595
C:\Users\SOLDER~1\AppData\Local\Temp\ccgE0nth.s:28475  .debug_str:000000000002570f .LASF3596
C:\Users\SOLDER~1\AppData\Local\Temp\ccgE0nth.s:26059  .debug_str:000000000001b9d9 .LASF3597
C:\Users\SOLDER~1\AppData\Local\Temp\ccgE0nth.s:29897  .debug_str:000000000002b467 .LASF3598
C:\Users\SOLDER~1\AppData\Local\Temp\ccgE0nth.s:22409  .debug_str:000000000000cde1 .LASF3599
C:\Users\SOLDER~1\AppData\Local\Temp\ccgE0nth.s:19363  .debug_str:0000000000000777 .LASF3600
C:\Users\SOLDER~1\AppData\Local\Temp\ccgE0nth.s:29593  .debug_str:000000000002a0f2 .LASF3601
C:\Users\SOLDER~1\AppData\Local\Temp\ccgE0nth.s:26013  .debug_str:000000000001b714 .LASF3602
C:\Users\SOLDER~1\AppData\Local\Temp\ccgE0nth.s:23561  .debug_str:0000000000011868 .LASF3603
C:\Users\SOLDER~1\AppData\Local\Temp\ccgE0nth.s:26973  .debug_str:000000000001f64d .LASF3604
C:\Users\SOLDER~1\AppData\Local\Temp\ccgE0nth.s:28281  .debug_str:0000000000024a93 .LASF3605
C:\Users\SOLDER~1\AppData\Local\Temp\ccgE0nth.s:25881  .debug_str:000000000001af05 .LASF3606
C:\Users\SOLDER~1\AppData\Local\Temp\ccgE0nth.s:22327  .debug_str:000000000000c835 .LASF3607
C:\Users\SOLDER~1\AppData\Local\Temp\ccgE0nth.s:26029  .debug_str:000000000001b808 .LASF3608
C:\Users\SOLDER~1\AppData\Local\Temp\ccgE0nth.s:30169  .debug_str:000000000002c622 .LASF3609
C:\Users\SOLDER~1\AppData\Local\Temp\ccgE0nth.s:23141  .debug_str:000000000000fd7b .LASF3610
C:\Users\SOLDER~1\AppData\Local\Temp\ccgE0nth.s:29487  .debug_str:000000000002999e .LASF3611
C:\Users\SOLDER~1\AppData\Local\Temp\ccgE0nth.s:19615  .debug_str:0000000000001800 .LASF3612
C:\Users\SOLDER~1\AppData\Local\Temp\ccgE0nth.s:21393  .debug_str:0000000000008adf .LASF3613
C:\Users\SOLDER~1\AppData\Local\Temp\ccgE0nth.s:28091  .debug_str:0000000000023dfb .LASF3614
C:\Users\SOLDER~1\AppData\Local\Temp\ccgE0nth.s:27469  .debug_str:00000000000215f7 .LASF3615
C:\Users\SOLDER~1\AppData\Local\Temp\ccgE0nth.s:27993  .debug_str:00000000000237c4 .LASF3616
C:\Users\SOLDER~1\AppData\Local\Temp\ccgE0nth.s:29255  .debug_str:0000000000028aec .LASF3617
C:\Users\SOLDER~1\AppData\Local\Temp\ccgE0nth.s:28321  .debug_str:0000000000024d3e .LASF3618
C:\Users\SOLDER~1\AppData\Local\Temp\ccgE0nth.s:22515  .debug_str:000000000000d4dd .LASF3619
C:\Users\SOLDER~1\AppData\Local\Temp\ccgE0nth.s:24921  .debug_str:00000000000170bf .LASF3620
C:\Users\SOLDER~1\AppData\Local\Temp\ccgE0nth.s:29367  .debug_str:00000000000291ef .LASF3621
C:\Users\SOLDER~1\AppData\Local\Temp\ccgE0nth.s:26055  .debug_str:000000000001b99f .LASF3622
C:\Users\SOLDER~1\AppData\Local\Temp\ccgE0nth.s:25949  .debug_str:000000000001b307 .LASF3623
C:\Users\SOLDER~1\AppData\Local\Temp\ccgE0nth.s:20227  .debug_str:0000000000003f6d .LASF3624
C:\Users\SOLDER~1\AppData\Local\Temp\ccgE0nth.s:28107  .debug_str:0000000000023f11 .LASF3625
C:\Users\SOLDER~1\AppData\Local\Temp\ccgE0nth.s:27477  .debug_str:000000000002167d .LASF3626
C:\Users\SOLDER~1\AppData\Local\Temp\ccgE0nth.s:29843  .debug_str:000000000002b100 .LASF3627
C:\Users\SOLDER~1\AppData\Local\Temp\ccgE0nth.s:25837  .debug_str:000000000001abfb .LASF3628
C:\Users\SOLDER~1\AppData\Local\Temp\ccgE0nth.s:29139  .debug_str:000000000002837d .LASF3629
C:\Users\SOLDER~1\AppData\Local\Temp\ccgE0nth.s:23827  .debug_str:0000000000012930 .LASF3630
C:\Users\SOLDER~1\AppData\Local\Temp\ccgE0nth.s:29447  .debug_str:0000000000029739 .LASF3631
C:\Users\SOLDER~1\AppData\Local\Temp\ccgE0nth.s:27527  .debug_str:00000000000219a7 .LASF3632
C:\Users\SOLDER~1\AppData\Local\Temp\ccgE0nth.s:24943  .debug_str:000000000001723d .LASF3633
C:\Users\SOLDER~1\AppData\Local\Temp\ccgE0nth.s:27759  .debug_str:000000000002281e .LASF3634
C:\Users\SOLDER~1\AppData\Local\Temp\ccgE0nth.s:25075  .debug_str:0000000000017aeb .LASF3635
C:\Users\SOLDER~1\AppData\Local\Temp\ccgE0nth.s:27811  .debug_str:0000000000022bb4 .LASF3636
C:\Users\SOLDER~1\AppData\Local\Temp\ccgE0nth.s:23063  .debug_str:000000000000f7d9 .LASF3637
C:\Users\SOLDER~1\AppData\Local\Temp\ccgE0nth.s:27133  .debug_str:0000000000020074 .LASF3638
GAS LISTING C:\Users\SOLDER~1\AppData\Local\Temp\ccgE0nth.s 			page 91


C:\Users\SOLDER~1\AppData\Local\Temp\ccgE0nth.s:23575  .debug_str:000000000001196c .LASF3639
C:\Users\SOLDER~1\AppData\Local\Temp\ccgE0nth.s:29475  .debug_str:00000000000298e9 .LASF3640
C:\Users\SOLDER~1\AppData\Local\Temp\ccgE0nth.s:27825  .debug_str:0000000000022cb3 .LASF3641
C:\Users\SOLDER~1\AppData\Local\Temp\ccgE0nth.s:22619  .debug_str:000000000000db7c .LASF3642
C:\Users\SOLDER~1\AppData\Local\Temp\ccgE0nth.s:29507  .debug_str:0000000000029af7 .LASF3643
C:\Users\SOLDER~1\AppData\Local\Temp\ccgE0nth.s:28337  .debug_str:0000000000024e52 .LASF3644
C:\Users\SOLDER~1\AppData\Local\Temp\ccgE0nth.s:29683  .debug_str:000000000002a6ac .LASF3645
C:\Users\SOLDER~1\AppData\Local\Temp\ccgE0nth.s:30177  .debug_str:000000000002c6b5 .LASF3646
C:\Users\SOLDER~1\AppData\Local\Temp\ccgE0nth.s:20885  .debug_str:00000000000069fc .LASF3647
C:\Users\SOLDER~1\AppData\Local\Temp\ccgE0nth.s:19311  .debug_str:0000000000000384 .LASF3648
C:\Users\SOLDER~1\AppData\Local\Temp\ccgE0nth.s:26887  .debug_str:000000000001f056 .LASF3649
C:\Users\SOLDER~1\AppData\Local\Temp\ccgE0nth.s:21563  .debug_str:000000000000967a .LASF3650
C:\Users\SOLDER~1\AppData\Local\Temp\ccgE0nth.s:24613  .debug_str:0000000000015d60 .LASF3651
C:\Users\SOLDER~1\AppData\Local\Temp\ccgE0nth.s:19441  .debug_str:0000000000000cd0 .LASF3652
C:\Users\SOLDER~1\AppData\Local\Temp\ccgE0nth.s:30335  .debug_str:000000000002d127 .LASF3653
C:\Users\SOLDER~1\AppData\Local\Temp\ccgE0nth.s:25465  .debug_str:0000000000019467 .LASF3654
C:\Users\SOLDER~1\AppData\Local\Temp\ccgE0nth.s:30445  .debug_str:000000000002d82a .LASF3655
C:\Users\SOLDER~1\AppData\Local\Temp\ccgE0nth.s:28893  .debug_str:000000000002736b .LASF3656
C:\Users\SOLDER~1\AppData\Local\Temp\ccgE0nth.s:21621  .debug_str:0000000000009a16 .LASF3657
C:\Users\SOLDER~1\AppData\Local\Temp\ccgE0nth.s:28085  .debug_str:0000000000023d90 .LASF3658
C:\Users\SOLDER~1\AppData\Local\Temp\ccgE0nth.s:30227  .debug_str:000000000002c9de .LASF3659
C:\Users\SOLDER~1\AppData\Local\Temp\ccgE0nth.s:20795  .debug_str:00000000000063d5 .LASF3660
C:\Users\SOLDER~1\AppData\Local\Temp\ccgE0nth.s:19419  .debug_str:0000000000000b6f .LASF3661
C:\Users\SOLDER~1\AppData\Local\Temp\ccgE0nth.s:20737  .debug_str:0000000000005fc2 .LASF3662
C:\Users\SOLDER~1\AppData\Local\Temp\ccgE0nth.s:29407  .debug_str:00000000000294b5 .LASF3663
C:\Users\SOLDER~1\AppData\Local\Temp\ccgE0nth.s:20439  .debug_str:0000000000004d02 .LASF3664
C:\Users\SOLDER~1\AppData\Local\Temp\ccgE0nth.s:19979  .debug_str:0000000000002fa8 .LASF3665
C:\Users\SOLDER~1\AppData\Local\Temp\ccgE0nth.s:28757  .debug_str:0000000000026a83 .LASF3666
C:\Users\SOLDER~1\AppData\Local\Temp\ccgE0nth.s:24009  .debug_str:0000000000013548 .LASF3667
C:\Users\SOLDER~1\AppData\Local\Temp\ccgE0nth.s:25221  .debug_str:000000000001848c .LASF3668
C:\Users\SOLDER~1\AppData\Local\Temp\ccgE0nth.s:22839  .debug_str:000000000000e9f3 .LASF3669
C:\Users\SOLDER~1\AppData\Local\Temp\ccgE0nth.s:23099  .debug_str:000000000000fa75 .LASF3670
C:\Users\SOLDER~1\AppData\Local\Temp\ccgE0nth.s:27663  .debug_str:0000000000022219 .LASF3671
C:\Users\SOLDER~1\AppData\Local\Temp\ccgE0nth.s:28737  .debug_str:0000000000026913 .LASF3672
C:\Users\SOLDER~1\AppData\Local\Temp\ccgE0nth.s:25679  .debug_str:000000000001a1ae .LASF3673
C:\Users\SOLDER~1\AppData\Local\Temp\ccgE0nth.s:25699  .debug_str:000000000001a2ea .LASF3674
C:\Users\SOLDER~1\AppData\Local\Temp\ccgE0nth.s:21741  .debug_str:000000000000a1e5 .LASF3675
C:\Users\SOLDER~1\AppData\Local\Temp\ccgE0nth.s:23463  .debug_str:0000000000011209 .LASF3676
C:\Users\SOLDER~1\AppData\Local\Temp\ccgE0nth.s:27783  .debug_str:00000000000229ce .LASF3677
C:\Users\SOLDER~1\AppData\Local\Temp\ccgE0nth.s:25713  .debug_str:000000000001a3f5 .LASF3678
C:\Users\SOLDER~1\AppData\Local\Temp\ccgE0nth.s:28011  .debug_str:00000000000238e3 .LASF3679
C:\Users\SOLDER~1\AppData\Local\Temp\ccgE0nth.s:29361  .debug_str:0000000000029186 .LASF3680
C:\Users\SOLDER~1\AppData\Local\Temp\ccgE0nth.s:30161  .debug_str:000000000002c5b1 .LASF3681
C:\Users\SOLDER~1\AppData\Local\Temp\ccgE0nth.s:24835  .debug_str:0000000000016b68 .LASF3682
C:\Users\SOLDER~1\AppData\Local\Temp\ccgE0nth.s:29845  .debug_str:000000000002b121 .LASF3683
C:\Users\SOLDER~1\AppData\Local\Temp\ccgE0nth.s:23589  .debug_str:0000000000011a5c .LASF3684
C:\Users\SOLDER~1\AppData\Local\Temp\ccgE0nth.s:27451  .debug_str:00000000000214b9 .LASF3685
C:\Users\SOLDER~1\AppData\Local\Temp\ccgE0nth.s:23389  .debug_str:0000000000010d2b .LASF3686
C:\Users\SOLDER~1\AppData\Local\Temp\ccgE0nth.s:30721  .debug_str:000000000002e9d6 .LASF3687
C:\Users\SOLDER~1\AppData\Local\Temp\ccgE0nth.s:27467  .debug_str:00000000000215d0 .LASF3688
C:\Users\SOLDER~1\AppData\Local\Temp\ccgE0nth.s:21401  .debug_str:0000000000008b62 .LASF3689
C:\Users\SOLDER~1\AppData\Local\Temp\ccgE0nth.s:27457  .debug_str:000000000002152b .LASF3690
C:\Users\SOLDER~1\AppData\Local\Temp\ccgE0nth.s:24427  .debug_str:00000000000151c3 .LASF3691
C:\Users\SOLDER~1\AppData\Local\Temp\ccgE0nth.s:20667  .debug_str:0000000000005b5d .LASF3692
C:\Users\SOLDER~1\AppData\Local\Temp\ccgE0nth.s:22307  .debug_str:000000000000c6db .LASF3693
C:\Users\SOLDER~1\AppData\Local\Temp\ccgE0nth.s:29297  .debug_str:0000000000028d9a .LASF3694
C:\Users\SOLDER~1\AppData\Local\Temp\ccgE0nth.s:24333  .debug_str:0000000000014bbb .LASF3695
GAS LISTING C:\Users\SOLDER~1\AppData\Local\Temp\ccgE0nth.s 			page 92


C:\Users\SOLDER~1\AppData\Local\Temp\ccgE0nth.s:21599  .debug_str:0000000000009895 .LASF3696
C:\Users\SOLDER~1\AppData\Local\Temp\ccgE0nth.s:22187  .debug_str:000000000000bea8 .LASF3697
C:\Users\SOLDER~1\AppData\Local\Temp\ccgE0nth.s:25733  .debug_str:000000000001a513 .LASF3698
C:\Users\SOLDER~1\AppData\Local\Temp\ccgE0nth.s:23081  .debug_str:000000000000f951 .LASF3699
C:\Users\SOLDER~1\AppData\Local\Temp\ccgE0nth.s:26645  .debug_str:000000000001e08d .LASF3700
C:\Users\SOLDER~1\AppData\Local\Temp\ccgE0nth.s:19729  .debug_str:0000000000001f5e .LASF3701
C:\Users\SOLDER~1\AppData\Local\Temp\ccgE0nth.s:23329  .debug_str:000000000001097e .LASF3702
C:\Users\SOLDER~1\AppData\Local\Temp\ccgE0nth.s:22789  .debug_str:000000000000e6ae .LASF3703
C:\Users\SOLDER~1\AppData\Local\Temp\ccgE0nth.s:20079  .debug_str:0000000000003600 .LASF3704
C:\Users\SOLDER~1\AppData\Local\Temp\ccgE0nth.s:28889  .debug_str:000000000002731e .LASF3705
C:\Users\SOLDER~1\AppData\Local\Temp\ccgE0nth.s:28227  .debug_str:0000000000024706 .LASF3706
C:\Users\SOLDER~1\AppData\Local\Temp\ccgE0nth.s:22467  .debug_str:000000000000d1c9 .LASF3707
C:\Users\SOLDER~1\AppData\Local\Temp\ccgE0nth.s:19811  .debug_str:00000000000024b2 .LASF3708
C:\Users\SOLDER~1\AppData\Local\Temp\ccgE0nth.s:28471  .debug_str:00000000000256c6 .LASF3709
C:\Users\SOLDER~1\AppData\Local\Temp\ccgE0nth.s:20007  .debug_str:0000000000003164 .LASF3710
C:\Users\SOLDER~1\AppData\Local\Temp\ccgE0nth.s:19747  .debug_str:0000000000002069 .LASF3711
C:\Users\SOLDER~1\AppData\Local\Temp\ccgE0nth.s:28557  .debug_str:0000000000025cce .LASF3712
C:\Users\SOLDER~1\AppData\Local\Temp\ccgE0nth.s:28935  .debug_str:0000000000027623 .LASF3713
C:\Users\SOLDER~1\AppData\Local\Temp\ccgE0nth.s:29405  .debug_str:0000000000029490 .LASF3714
C:\Users\SOLDER~1\AppData\Local\Temp\ccgE0nth.s:20415  .debug_str:0000000000004b5a .LASF3715
C:\Users\SOLDER~1\AppData\Local\Temp\ccgE0nth.s:29419  .debug_str:000000000002958c .LASF3716
C:\Users\SOLDER~1\AppData\Local\Temp\ccgE0nth.s:25477  .debug_str:0000000000019544 .LASF3717
C:\Users\SOLDER~1\AppData\Local\Temp\ccgE0nth.s:22219  .debug_str:000000000000c0aa .LASF3718
C:\Users\SOLDER~1\AppData\Local\Temp\ccgE0nth.s:28819  .debug_str:0000000000026e8a .LASF3719
C:\Users\SOLDER~1\AppData\Local\Temp\ccgE0nth.s:22527  .debug_str:000000000000d5b6 .LASF3720
C:\Users\SOLDER~1\AppData\Local\Temp\ccgE0nth.s:30617  .debug_str:000000000002e301 .LASF3721
C:\Users\SOLDER~1\AppData\Local\Temp\ccgE0nth.s:29875  .debug_str:000000000002b30c .LASF3722
C:\Users\SOLDER~1\AppData\Local\Temp\ccgE0nth.s:28301  .debug_str:0000000000024bef .LASF3723
C:\Users\SOLDER~1\AppData\Local\Temp\ccgE0nth.s:30343  .debug_str:000000000002d1aa .LASF3724
C:\Users\SOLDER~1\AppData\Local\Temp\ccgE0nth.s:27345  .debug_str:0000000000020dd5 .LASF3725
C:\Users\SOLDER~1\AppData\Local\Temp\ccgE0nth.s:24249  .debug_str:000000000001462e .LASF3726
C:\Users\SOLDER~1\AppData\Local\Temp\ccgE0nth.s:29607  .debug_str:000000000002a1c3 .LASF3727
C:\Users\SOLDER~1\AppData\Local\Temp\ccgE0nth.s:21903  .debug_str:000000000000acce .LASF3728
C:\Users\SOLDER~1\AppData\Local\Temp\ccgE0nth.s:24547  .debug_str:000000000001593d .LASF3729
C:\Users\SOLDER~1\AppData\Local\Temp\ccgE0nth.s:25343  .debug_str:0000000000018c39 .LASF3730
C:\Users\SOLDER~1\AppData\Local\Temp\ccgE0nth.s:21175  .debug_str:0000000000007ca3 .LASF3731
C:\Users\SOLDER~1\AppData\Local\Temp\ccgE0nth.s:25859  .debug_str:000000000001ad9d .LASF3732
C:\Users\SOLDER~1\AppData\Local\Temp\ccgE0nth.s:22189  .debug_str:000000000000becd .LASF3733
C:\Users\SOLDER~1\AppData\Local\Temp\ccgE0nth.s:25633  .debug_str:0000000000019eb9 .LASF3734
C:\Users\SOLDER~1\AppData\Local\Temp\ccgE0nth.s:24631  .debug_str:0000000000015e82 .LASF3735
C:\Users\SOLDER~1\AppData\Local\Temp\ccgE0nth.s:20655  .debug_str:0000000000005a85 .LASF3736
C:\Users\SOLDER~1\AppData\Local\Temp\ccgE0nth.s:23149  .debug_str:000000000000fe02 .LASF3737
C:\Users\SOLDER~1\AppData\Local\Temp\ccgE0nth.s:20959  .debug_str:0000000000006eac .LASF3738
C:\Users\SOLDER~1\AppData\Local\Temp\ccgE0nth.s:20063  .debug_str:000000000000351f .LASF3739
C:\Users\SOLDER~1\AppData\Local\Temp\ccgE0nth.s:26953  .debug_str:000000000001f4e5 .LASF3740
C:\Users\SOLDER~1\AppData\Local\Temp\ccgE0nth.s:27043  .debug_str:000000000001fac6 .LASF3741
C:\Users\SOLDER~1\AppData\Local\Temp\ccgE0nth.s:22623  .debug_str:000000000000dbb6 .LASF3742
C:\Users\SOLDER~1\AppData\Local\Temp\ccgE0nth.s:30567  .debug_str:000000000002dfdf .LASF3743
C:\Users\SOLDER~1\AppData\Local\Temp\ccgE0nth.s:20649  .debug_str:0000000000005a23 .LASF3744
C:\Users\SOLDER~1\AppData\Local\Temp\ccgE0nth.s:29539  .debug_str:0000000000029d53 .LASF3745
C:\Users\SOLDER~1\AppData\Local\Temp\ccgE0nth.s:22667  .debug_str:000000000000de9b .LASF3746
C:\Users\SOLDER~1\AppData\Local\Temp\ccgE0nth.s:27789  .debug_str:0000000000022a2d .LASF3747
C:\Users\SOLDER~1\AppData\Local\Temp\ccgE0nth.s:23955  .debug_str:000000000001317d .LASF3748
C:\Users\SOLDER~1\AppData\Local\Temp\ccgE0nth.s:22431  .debug_str:000000000000cf5b .LASF3749
C:\Users\SOLDER~1\AppData\Local\Temp\ccgE0nth.s:29695  .debug_str:000000000002a74f .LASF3750
C:\Users\SOLDER~1\AppData\Local\Temp\ccgE0nth.s:26037  .debug_str:000000000001b872 .LASF3751
C:\Users\SOLDER~1\AppData\Local\Temp\ccgE0nth.s:23169  .debug_str:000000000000ff57 .LASF3752
GAS LISTING C:\Users\SOLDER~1\AppData\Local\Temp\ccgE0nth.s 			page 93


C:\Users\SOLDER~1\AppData\Local\Temp\ccgE0nth.s:26629  .debug_str:000000000001df9f .LASF3753
C:\Users\SOLDER~1\AppData\Local\Temp\ccgE0nth.s:23133  .debug_str:000000000000fceb .LASF3754
C:\Users\SOLDER~1\AppData\Local\Temp\ccgE0nth.s:25643  .debug_str:0000000000019f6b .LASF3755
C:\Users\SOLDER~1\AppData\Local\Temp\ccgE0nth.s:25879  .debug_str:000000000001aee2 .LASF3756
C:\Users\SOLDER~1\AppData\Local\Temp\ccgE0nth.s:23727  .debug_str:00000000000122f3 .LASF3757
C:\Users\SOLDER~1\AppData\Local\Temp\ccgE0nth.s:25225  .debug_str:00000000000184da .LASF3758
C:\Users\SOLDER~1\AppData\Local\Temp\ccgE0nth.s:19835  .debug_str:0000000000002630 .LASF3759
C:\Users\SOLDER~1\AppData\Local\Temp\ccgE0nth.s:20557  .debug_str:0000000000005414 .LASF3760
C:\Users\SOLDER~1\AppData\Local\Temp\ccgE0nth.s:30143  .debug_str:000000000002c49d .LASF3761
C:\Users\SOLDER~1\AppData\Local\Temp\ccgE0nth.s:30367  .debug_str:000000000002d32f .LASF3762
C:\Users\SOLDER~1\AppData\Local\Temp\ccgE0nth.s:19535  .debug_str:00000000000012d6 .LASF3763
C:\Users\SOLDER~1\AppData\Local\Temp\ccgE0nth.s:25285  .debug_str:0000000000018879 .LASF3764
C:\Users\SOLDER~1\AppData\Local\Temp\ccgE0nth.s:23441  .debug_str:00000000000110a1 .LASF3765
C:\Users\SOLDER~1\AppData\Local\Temp\ccgE0nth.s:28229  .debug_str:000000000002472a .LASF3766
C:\Users\SOLDER~1\AppData\Local\Temp\ccgE0nth.s:21985  .debug_str:000000000000b214 .LASF3767
C:\Users\SOLDER~1\AppData\Local\Temp\ccgE0nth.s:27525  .debug_str:0000000000021984 .LASF3768
C:\Users\SOLDER~1\AppData\Local\Temp\ccgE0nth.s:19815  .debug_str:0000000000002504 .LASF3769
C:\Users\SOLDER~1\AppData\Local\Temp\ccgE0nth.s:29007  .debug_str:0000000000027ab4 .LASF3770
C:\Users\SOLDER~1\AppData\Local\Temp\ccgE0nth.s:19485  .debug_str:0000000000000fb2 .LASF3771
C:\Users\SOLDER~1\AppData\Local\Temp\ccgE0nth.s:28087  .debug_str:0000000000023db7 .LASF3772
C:\Users\SOLDER~1\AppData\Local\Temp\ccgE0nth.s:24073  .debug_str:00000000000139d2 .LASF3773
C:\Users\SOLDER~1\AppData\Local\Temp\ccgE0nth.s:29413  .debug_str:000000000002951a .LASF3774
C:\Users\SOLDER~1\AppData\Local\Temp\ccgE0nth.s:26861  .debug_str:000000000001ee9b .LASF3775
C:\Users\SOLDER~1\AppData\Local\Temp\ccgE0nth.s:22507  .debug_str:000000000000d451 .LASF3776
C:\Users\SOLDER~1\AppData\Local\Temp\ccgE0nth.s:21073  .debug_str:000000000000762a .LASF3777
C:\Users\SOLDER~1\AppData\Local\Temp\ccgE0nth.s:28723  .debug_str:000000000002683c .LASF3778
C:\Users\SOLDER~1\AppData\Local\Temp\ccgE0nth.s:27037  .debug_str:000000000001fa6c .LASF3779
C:\Users\SOLDER~1\AppData\Local\Temp\ccgE0nth.s:27299  .debug_str:0000000000020b01 .LASF3780
C:\Users\SOLDER~1\AppData\Local\Temp\ccgE0nth.s:28199  .debug_str:0000000000024521 .LASF3781
C:\Users\SOLDER~1\AppData\Local\Temp\ccgE0nth.s:20255  .debug_str:000000000000413e .LASF3782
C:\Users\SOLDER~1\AppData\Local\Temp\ccgE0nth.s:24355  .debug_str:0000000000014d4d .LASF3783
C:\Users\SOLDER~1\AppData\Local\Temp\ccgE0nth.s:22951  .debug_str:000000000000f0b9 .LASF3784
C:\Users\SOLDER~1\AppData\Local\Temp\ccgE0nth.s:20927  .debug_str:0000000000006c8a .LASF3785
C:\Users\SOLDER~1\AppData\Local\Temp\ccgE0nth.s:25159  .debug_str:000000000001809f .LASF3786
C:\Users\SOLDER~1\AppData\Local\Temp\ccgE0nth.s:30347  .debug_str:000000000002d1f3 .LASF3787
C:\Users\SOLDER~1\AppData\Local\Temp\ccgE0nth.s:28203  .debug_str:000000000002455e .LASF3788
C:\Users\SOLDER~1\AppData\Local\Temp\ccgE0nth.s:20707  .debug_str:0000000000005ded .LASF3789
C:\Users\SOLDER~1\AppData\Local\Temp\ccgE0nth.s:21853  .debug_str:000000000000a988 .LASF3790
C:\Users\SOLDER~1\AppData\Local\Temp\ccgE0nth.s:29239  .debug_str:00000000000289fa .LASF3791
C:\Users\SOLDER~1\AppData\Local\Temp\ccgE0nth.s:28843  .debug_str:000000000002700a .LASF3792
C:\Users\SOLDER~1\AppData\Local\Temp\ccgE0nth.s:26461  .debug_str:000000000001d4f9 .LASF3793
C:\Users\SOLDER~1\AppData\Local\Temp\ccgE0nth.s:30251  .debug_str:000000000002cb4c .LASF3794
C:\Users\SOLDER~1\AppData\Local\Temp\ccgE0nth.s:23267  .debug_str:000000000001059a .LASF3795
C:\Users\SOLDER~1\AppData\Local\Temp\ccgE0nth.s:21731  .debug_str:000000000000a125 .LASF3796
C:\Users\SOLDER~1\AppData\Local\Temp\ccgE0nth.s:23171  .debug_str:000000000000ff7b .LASF3797
C:\Users\SOLDER~1\AppData\Local\Temp\ccgE0nth.s:29031  .debug_str:0000000000027c51 .LASF3798
C:\Users\SOLDER~1\AppData\Local\Temp\ccgE0nth.s:29641  .debug_str:000000000002a3f0 .LASF3799
C:\Users\SOLDER~1\AppData\Local\Temp\ccgE0nth.s:26103  .debug_str:000000000001bcc5 .LASF3800
C:\Users\SOLDER~1\AppData\Local\Temp\ccgE0nth.s:27343  .debug_str:0000000000020dc0 .LASF3801
C:\Users\SOLDER~1\AppData\Local\Temp\ccgE0nth.s:25029  .debug_str:000000000001780e .LASF3802
C:\Users\SOLDER~1\AppData\Local\Temp\ccgE0nth.s:29353  .debug_str:0000000000029114 .LASF3803
C:\Users\SOLDER~1\AppData\Local\Temp\ccgE0nth.s:27099  .debug_str:000000000001fe39 .LASF3804
C:\Users\SOLDER~1\AppData\Local\Temp\ccgE0nth.s:26221  .debug_str:000000000001c4b1 .LASF3805
C:\Users\SOLDER~1\AppData\Local\Temp\ccgE0nth.s:19337  .debug_str:0000000000000532 .LASF3806
C:\Users\SOLDER~1\AppData\Local\Temp\ccgE0nth.s:29989  .debug_str:000000000002ba64 .LASF3807
C:\Users\SOLDER~1\AppData\Local\Temp\ccgE0nth.s:19403  .debug_str:0000000000000a4a .LASF3808
C:\Users\SOLDER~1\AppData\Local\Temp\ccgE0nth.s:24485  .debug_str:000000000001559c .LASF3809
GAS LISTING C:\Users\SOLDER~1\AppData\Local\Temp\ccgE0nth.s 			page 94


C:\Users\SOLDER~1\AppData\Local\Temp\ccgE0nth.s:24799  .debug_str:00000000000168fd .LASF3810
C:\Users\SOLDER~1\AppData\Local\Temp\ccgE0nth.s:27061  .debug_str:000000000001fbee .LASF3811
C:\Users\SOLDER~1\AppData\Local\Temp\ccgE0nth.s:24609  .debug_str:0000000000015d1f .LASF3812
C:\Users\SOLDER~1\AppData\Local\Temp\ccgE0nth.s:21329  .debug_str:00000000000086bb .LASF3813
C:\Users\SOLDER~1\AppData\Local\Temp\ccgE0nth.s:20283  .debug_str:0000000000004302 .LASF3814
C:\Users\SOLDER~1\AppData\Local\Temp\ccgE0nth.s:21515  .debug_str:0000000000009330 .LASF3815
C:\Users\SOLDER~1\AppData\Local\Temp\ccgE0nth.s:24587  .debug_str:0000000000015bcb .LASF3816
C:\Users\SOLDER~1\AppData\Local\Temp\ccgE0nth.s:21349  .debug_str:0000000000008803 .LASF3817
C:\Users\SOLDER~1\AppData\Local\Temp\ccgE0nth.s:22563  .debug_str:000000000000d7f3 .LASF3818
C:\Users\SOLDER~1\AppData\Local\Temp\ccgE0nth.s:20463  .debug_str:0000000000004e6d .LASF3819
C:\Users\SOLDER~1\AppData\Local\Temp\ccgE0nth.s:28269  .debug_str:00000000000249bb .LASF3820
C:\Users\SOLDER~1\AppData\Local\Temp\ccgE0nth.s:23811  .debug_str:000000000001283c .LASF3821
C:\Users\SOLDER~1\AppData\Local\Temp\ccgE0nth.s:23145  .debug_str:000000000000fdbb .LASF3822
C:\Users\SOLDER~1\AppData\Local\Temp\ccgE0nth.s:26363  .debug_str:000000000001ce49 .LASF3823
C:\Users\SOLDER~1\AppData\Local\Temp\ccgE0nth.s:29577  .debug_str:0000000000029fc8 .LASF3824
C:\Users\SOLDER~1\AppData\Local\Temp\ccgE0nth.s:21485  .debug_str:000000000000911d .LASF3825
C:\Users\SOLDER~1\AppData\Local\Temp\ccgE0nth.s:27529  .debug_str:00000000000219b7 .LASF3826
C:\Users\SOLDER~1\AppData\Local\Temp\ccgE0nth.s:21715  .debug_str:000000000000a02c .LASF3827
C:\Users\SOLDER~1\AppData\Local\Temp\ccgE0nth.s:21121  .debug_str:00000000000078fb .LASF3828
C:\Users\SOLDER~1\AppData\Local\Temp\ccgE0nth.s:22331  .debug_str:000000000000c87a .LASF3829
C:\Users\SOLDER~1\AppData\Local\Temp\ccgE0nth.s:22319  .debug_str:000000000000c79e .LASF3830
C:\Users\SOLDER~1\AppData\Local\Temp\ccgE0nth.s:19967  .debug_str:0000000000002ec9 .LASF3831
C:\Users\SOLDER~1\AppData\Local\Temp\ccgE0nth.s:21537  .debug_str:00000000000094ae .LASF3832
C:\Users\SOLDER~1\AppData\Local\Temp\ccgE0nth.s:28015  .debug_str:0000000000023927 .LASF3833
C:\Users\SOLDER~1\AppData\Local\Temp\ccgE0nth.s:26133  .debug_str:000000000001bef2 .LASF3834
C:\Users\SOLDER~1\AppData\Local\Temp\ccgE0nth.s:22653  .debug_str:000000000000ddb6 .LASF3835
C:\Users\SOLDER~1\AppData\Local\Temp\ccgE0nth.s:29861  .debug_str:000000000002b243 .LASF3836
C:\Users\SOLDER~1\AppData\Local\Temp\ccgE0nth.s:27933  .debug_str:00000000000233d1 .LASF3837
C:\Users\SOLDER~1\AppData\Local\Temp\ccgE0nth.s:20345  .debug_str:00000000000046f8 .LASF3838
C:\Users\SOLDER~1\AppData\Local\Temp\ccgE0nth.s:28195  .debug_str:00000000000244da .LASF3839
C:\Users\SOLDER~1\AppData\Local\Temp\ccgE0nth.s:27729  .debug_str:000000000002261c .LASF3840
C:\Users\SOLDER~1\AppData\Local\Temp\ccgE0nth.s:20301  .debug_str:0000000000004420 .LASF3841
C:\Users\SOLDER~1\AppData\Local\Temp\ccgE0nth.s:22385  .debug_str:000000000000cc35 .LASF3842
C:\Users\SOLDER~1\AppData\Local\Temp\ccgE0nth.s:29421  .debug_str:00000000000295b1 .LASF3843
C:\Users\SOLDER~1\AppData\Local\Temp\ccgE0nth.s:21831  .debug_str:000000000000a81b .LASF3844
C:\Users\SOLDER~1\AppData\Local\Temp\ccgE0nth.s:27765  .debug_str:0000000000022880 .LASF3845
C:\Users\SOLDER~1\AppData\Local\Temp\ccgE0nth.s:26353  .debug_str:000000000001cdbc .LASF3846
C:\Users\SOLDER~1\AppData\Local\Temp\ccgE0nth.s:28071  .debug_str:0000000000023ca6 .LASF3847
C:\Users\SOLDER~1\AppData\Local\Temp\ccgE0nth.s:23355  .debug_str:0000000000010b34 .LASF3848
C:\Users\SOLDER~1\AppData\Local\Temp\ccgE0nth.s:24741  .debug_str:00000000000165ab .LASF3849
C:\Users\SOLDER~1\AppData\Local\Temp\ccgE0nth.s:20725  .debug_str:0000000000005f02 .LASF3850
C:\Users\SOLDER~1\AppData\Local\Temp\ccgE0nth.s:22229  .debug_str:000000000000c16f .LASF3851
C:\Users\SOLDER~1\AppData\Local\Temp\ccgE0nth.s:21981  .debug_str:000000000000b1df .LASF3852
C:\Users\SOLDER~1\AppData\Local\Temp\ccgE0nth.s:22011  .debug_str:000000000000b39f .LASF3853
C:\Users\SOLDER~1\AppData\Local\Temp\ccgE0nth.s:19977  .debug_str:0000000000002f92 .LASF3854
C:\Users\SOLDER~1\AppData\Local\Temp\ccgE0nth.s:25471  .debug_str:00000000000194d6 .LASF3855
C:\Users\SOLDER~1\AppData\Local\Temp\ccgE0nth.s:22649  .debug_str:000000000000dd7b .LASF3856
C:\Users\SOLDER~1\AppData\Local\Temp\ccgE0nth.s:30323  .debug_str:000000000002d03d .LASF3857
C:\Users\SOLDER~1\AppData\Local\Temp\ccgE0nth.s:30023  .debug_str:000000000002bc8d .LASF3858
C:\Users\SOLDER~1\AppData\Local\Temp\ccgE0nth.s:28441  .debug_str:00000000000254ee .LASF3859
C:\Users\SOLDER~1\AppData\Local\Temp\ccgE0nth.s:26697  .debug_str:000000000001e3d3 .LASF3860
C:\Users\SOLDER~1\AppData\Local\Temp\ccgE0nth.s:19435  .debug_str:0000000000000c64 .LASF3861
C:\Users\SOLDER~1\AppData\Local\Temp\ccgE0nth.s:29479  .debug_str:000000000002993b .LASF3862
C:\Users\SOLDER~1\AppData\Local\Temp\ccgE0nth.s:20141  .debug_str:0000000000003a01 .LASF3863
C:\Users\SOLDER~1\AppData\Local\Temp\ccgE0nth.s:30391  .debug_str:000000000002d4a4 .LASF3864
C:\Users\SOLDER~1\AppData\Local\Temp\ccgE0nth.s:22807  .debug_str:000000000000e7e6 .LASF3865
C:\Users\SOLDER~1\AppData\Local\Temp\ccgE0nth.s:21979  .debug_str:000000000000b1bf .LASF3866
GAS LISTING C:\Users\SOLDER~1\AppData\Local\Temp\ccgE0nth.s 			page 95


C:\Users\SOLDER~1\AppData\Local\Temp\ccgE0nth.s:23143  .debug_str:000000000000fd9b .LASF3867
C:\Users\SOLDER~1\AppData\Local\Temp\ccgE0nth.s:25215  .debug_str:0000000000018439 .LASF3868
C:\Users\SOLDER~1\AppData\Local\Temp\ccgE0nth.s:26243  .debug_str:000000000001c64a .LASF3869
C:\Users\SOLDER~1\AppData\Local\Temp\ccgE0nth.s:22799  .debug_str:000000000000e75a .LASF3870
C:\Users\SOLDER~1\AppData\Local\Temp\ccgE0nth.s:21999  .debug_str:000000000000b2d4 .LASF3871
C:\Users\SOLDER~1\AppData\Local\Temp\ccgE0nth.s:30491  .debug_str:000000000002db04 .LASF3872
C:\Users\SOLDER~1\AppData\Local\Temp\ccgE0nth.s:25315  .debug_str:0000000000018a6b .LASF3873
C:\Users\SOLDER~1\AppData\Local\Temp\ccgE0nth.s:20235  .debug_str:0000000000003fe8 .LASF3874
C:\Users\SOLDER~1\AppData\Local\Temp\ccgE0nth.s:29309  .debug_str:0000000000028e3f .LASF3875
C:\Users\SOLDER~1\AppData\Local\Temp\ccgE0nth.s:21167  .debug_str:0000000000007c15 .LASF3876
C:\Users\SOLDER~1\AppData\Local\Temp\ccgE0nth.s:20233  .debug_str:0000000000003fc4 .LASF3877
C:\Users\SOLDER~1\AppData\Local\Temp\ccgE0nth.s:25437  .debug_str:0000000000019272 .LASF3878
C:\Users\SOLDER~1\AppData\Local\Temp\ccgE0nth.s:22243  .debug_str:000000000000c24a .LASF3879
C:\Users\SOLDER~1\AppData\Local\Temp\ccgE0nth.s:22321  .debug_str:000000000000c7c0 .LASF3880
C:\Users\SOLDER~1\AppData\Local\Temp\ccgE0nth.s:28277  .debug_str:0000000000024a35 .LASF3881
C:\Users\SOLDER~1\AppData\Local\Temp\ccgE0nth.s:23053  .debug_str:000000000000f738 .LASF3882
C:\Users\SOLDER~1\AppData\Local\Temp\ccgE0nth.s:19279  .debug_str:000000000000015d .LASF3883
C:\Users\SOLDER~1\AppData\Local\Temp\ccgE0nth.s:29935  .debug_str:000000000002b706 .LASF3884
C:\Users\SOLDER~1\AppData\Local\Temp\ccgE0nth.s:29341  .debug_str:000000000002904a .LASF3885
C:\Users\SOLDER~1\AppData\Local\Temp\ccgE0nth.s:22685  .debug_str:000000000000dfcd .LASF3886
C:\Users\SOLDER~1\AppData\Local\Temp\ccgE0nth.s:27259  .debug_str:000000000002085c .LASF3887
C:\Users\SOLDER~1\AppData\Local\Temp\ccgE0nth.s:19413  .debug_str:0000000000000af1 .LASF3888
C:\Users\SOLDER~1\AppData\Local\Temp\ccgE0nth.s:30577  .debug_str:000000000002e074 .LASF3889
C:\Users\SOLDER~1\AppData\Local\Temp\ccgE0nth.s:21969  .debug_str:000000000000b117 .LASF3890
C:\Users\SOLDER~1\AppData\Local\Temp\ccgE0nth.s:23217  .debug_str:0000000000010242 .LASF3891
C:\Users\SOLDER~1\AppData\Local\Temp\ccgE0nth.s:30077  .debug_str:000000000002c057 .LASF3892
C:\Users\SOLDER~1\AppData\Local\Temp\ccgE0nth.s:21293  .debug_str:0000000000008483 .LASF3893
C:\Users\SOLDER~1\AppData\Local\Temp\ccgE0nth.s:26381  .debug_str:000000000001cf69 .LASF3894
C:\Users\SOLDER~1\AppData\Local\Temp\ccgE0nth.s:25399  .debug_str:0000000000019021 .LASF3895
C:\Users\SOLDER~1\AppData\Local\Temp\ccgE0nth.s:27347  .debug_str:0000000000020df6 .LASF3896
C:\Users\SOLDER~1\AppData\Local\Temp\ccgE0nth.s:21631  .debug_str:0000000000009ab8 .LASF3897
C:\Users\SOLDER~1\AppData\Local\Temp\ccgE0nth.s:29055  .debug_str:0000000000027e08 .LASF3898
C:\Users\SOLDER~1\AppData\Local\Temp\ccgE0nth.s:19679  .debug_str:0000000000001c0e .LASF3899
C:\Users\SOLDER~1\AppData\Local\Temp\ccgE0nth.s:24999  .debug_str:00000000000175fd .LASF3900
C:\Users\SOLDER~1\AppData\Local\Temp\ccgE0nth.s:29779  .debug_str:000000000002acb3 .LASF3901
C:\Users\SOLDER~1\AppData\Local\Temp\ccgE0nth.s:30591  .debug_str:000000000002e16f .LASF3902
C:\Users\SOLDER~1\AppData\Local\Temp\ccgE0nth.s:22943  .debug_str:000000000000f04e .LASF3903
C:\Users\SOLDER~1\AppData\Local\Temp\ccgE0nth.s:24273  .debug_str:00000000000147ce .LASF3904
C:\Users\SOLDER~1\AppData\Local\Temp\ccgE0nth.s:30565  .debug_str:000000000002dfbe .LASF3905
C:\Users\SOLDER~1\AppData\Local\Temp\ccgE0nth.s:28209  .debug_str:00000000000245e2 .LASF3906
C:\Users\SOLDER~1\AppData\Local\Temp\ccgE0nth.s:29267  .debug_str:0000000000028b92 .LASF3907
C:\Users\SOLDER~1\AppData\Local\Temp\ccgE0nth.s:26651  .debug_str:000000000001e0fc .LASF3908
C:\Users\SOLDER~1\AppData\Local\Temp\ccgE0nth.s:30589  .debug_str:000000000002e14c .LASF3909
C:\Users\SOLDER~1\AppData\Local\Temp\ccgE0nth.s:24655  .debug_str:0000000000015ffe .LASF3910
C:\Users\SOLDER~1\AppData\Local\Temp\ccgE0nth.s:30449  .debug_str:000000000002d863 .LASF3911
C:\Users\SOLDER~1\AppData\Local\Temp\ccgE0nth.s:25193  .debug_str:00000000000182d5 .LASF3912
C:\Users\SOLDER~1\AppData\Local\Temp\ccgE0nth.s:29101  .debug_str:0000000000028126 .LASF3913
C:\Users\SOLDER~1\AppData\Local\Temp\ccgE0nth.s:20367  .debug_str:000000000000486e .LASF3914
C:\Users\SOLDER~1\AppData\Local\Temp\ccgE0nth.s:25695  .debug_str:000000000001a2b5 .LASF3915
C:\Users\SOLDER~1\AppData\Local\Temp\ccgE0nth.s:26893  .debug_str:000000000001f0d6 .LASF3916
C:\Users\SOLDER~1\AppData\Local\Temp\ccgE0nth.s:27359  .debug_str:0000000000020ec3 .LASF3917
C:\Users\SOLDER~1\AppData\Local\Temp\ccgE0nth.s:23315  .debug_str:0000000000010897 .LASF3918
C:\Users\SOLDER~1\AppData\Local\Temp\ccgE0nth.s:28633  .debug_str:0000000000026225 .LASF3919
C:\Users\SOLDER~1\AppData\Local\Temp\ccgE0nth.s:29551  .debug_str:0000000000029e15 .LASF3920
C:\Users\SOLDER~1\AppData\Local\Temp\ccgE0nth.s:28511  .debug_str:00000000000259a6 .LASF3921
C:\Users\SOLDER~1\AppData\Local\Temp\ccgE0nth.s:21039  .debug_str:0000000000007404 .LASF3922
C:\Users\SOLDER~1\AppData\Local\Temp\ccgE0nth.s:27449  .debug_str:0000000000021498 .LASF3923
GAS LISTING C:\Users\SOLDER~1\AppData\Local\Temp\ccgE0nth.s 			page 96


C:\Users\SOLDER~1\AppData\Local\Temp\ccgE0nth.s:23447  .debug_str:00000000000110f6 .LASF3924
C:\Users\SOLDER~1\AppData\Local\Temp\ccgE0nth.s:27291  .debug_str:0000000000020a73 .LASF3925
C:\Users\SOLDER~1\AppData\Local\Temp\ccgE0nth.s:20519  .debug_str:00000000000051b7 .LASF3926
C:\Users\SOLDER~1\AppData\Local\Temp\ccgE0nth.s:23997  .debug_str:0000000000013470 .LASF3927
C:\Users\SOLDER~1\AppData\Local\Temp\ccgE0nth.s:21649  .debug_str:0000000000009bd0 .LASF3928
C:\Users\SOLDER~1\AppData\Local\Temp\ccgE0nth.s:20109  .debug_str:00000000000037f8 .LASF3929
C:\Users\SOLDER~1\AppData\Local\Temp\ccgE0nth.s:21147  .debug_str:0000000000007ab7 .LASF3930
C:\Users\SOLDER~1\AppData\Local\Temp\ccgE0nth.s:26907  .debug_str:000000000001f1bd .LASF3931
C:\Users\SOLDER~1\AppData\Local\Temp\ccgE0nth.s:26383  .debug_str:000000000001cf80 .LASF3932
C:\Users\SOLDER~1\AppData\Local\Temp\ccgE0nth.s:29117  .debug_str:0000000000028215 .LASF3933
C:\Users\SOLDER~1\AppData\Local\Temp\ccgE0nth.s:28687  .debug_str:00000000000265b2 .LASF3934
C:\Users\SOLDER~1\AppData\Local\Temp\ccgE0nth.s:21643  .debug_str:0000000000009b73 .LASF3935
C:\Users\SOLDER~1\AppData\Local\Temp\ccgE0nth.s:22841  .debug_str:000000000000ea19 .LASF3936
C:\Users\SOLDER~1\AppData\Local\Temp\ccgE0nth.s:24611  .debug_str:0000000000015d41 .LASF3937
C:\Users\SOLDER~1\AppData\Local\Temp\ccgE0nth.s:20579  .debug_str:000000000000555b .LASF3938
C:\Users\SOLDER~1\AppData\Local\Temp\ccgE0nth.s:21325  .debug_str:0000000000008666 .LASF3939
C:\Users\SOLDER~1\AppData\Local\Temp\ccgE0nth.s:29625  .debug_str:000000000002a2ef .LASF3940
C:\Users\SOLDER~1\AppData\Local\Temp\ccgE0nth.s:25143  .debug_str:0000000000017f6f .LASF3941
C:\Users\SOLDER~1\AppData\Local\Temp\ccgE0nth.s:22767  .debug_str:000000000000e576 .LASF3942
C:\Users\SOLDER~1\AppData\Local\Temp\ccgE0nth.s:27363  .debug_str:0000000000020f09 .LASF3943
C:\Users\SOLDER~1\AppData\Local\Temp\ccgE0nth.s:19867  .debug_str:000000000000284f .LASF3944
C:\Users\SOLDER~1\AppData\Local\Temp\ccgE0nth.s:26145  .debug_str:000000000001bf92 .LASF3945
C:\Users\SOLDER~1\AppData\Local\Temp\ccgE0nth.s:21281  .debug_str:00000000000083b2 .LASF3946
C:\Users\SOLDER~1\AppData\Local\Temp\ccgE0nth.s:27229  .debug_str:0000000000020655 .LASF3947
C:\Users\SOLDER~1\AppData\Local\Temp\ccgE0nth.s:28385  .debug_str:0000000000025156 .LASF3948
C:\Users\SOLDER~1\AppData\Local\Temp\ccgE0nth.s:24511  .debug_str:0000000000015758 .LASF3949
C:\Users\SOLDER~1\AppData\Local\Temp\ccgE0nth.s:19537  .debug_str:00000000000012e9 .LASF3950
C:\Users\SOLDER~1\AppData\Local\Temp\ccgE0nth.s:27977  .debug_str:00000000000236ae .LASF3951
C:\Users\SOLDER~1\AppData\Local\Temp\ccgE0nth.s:20239  .debug_str:0000000000004034 .LASF3952
C:\Users\SOLDER~1\AppData\Local\Temp\ccgE0nth.s:23181  .debug_str:0000000000010018 .LASF3953
C:\Users\SOLDER~1\AppData\Local\Temp\ccgE0nth.s:24615  .debug_str:0000000000015d82 .LASF3954
C:\Users\SOLDER~1\AppData\Local\Temp\ccgE0nth.s:21221  .debug_str:0000000000007fb7 .LASF3955
C:\Users\SOLDER~1\AppData\Local\Temp\ccgE0nth.s:19583  .debug_str:00000000000015f6 .LASF3956
C:\Users\SOLDER~1\AppData\Local\Temp\ccgE0nth.s:30795  .debug_str:000000000002ee54 .LASF3957
C:\Users\SOLDER~1\AppData\Local\Temp\ccgE0nth.s:23743  .debug_str:00000000000123e5 .LASF3958
C:\Users\SOLDER~1\AppData\Local\Temp\ccgE0nth.s:24961  .debug_str:000000000001737c .LASF3959
C:\Users\SOLDER~1\AppData\Local\Temp\ccgE0nth.s:22719  .debug_str:000000000000e247 .LASF3960
C:\Users\SOLDER~1\AppData\Local\Temp\ccgE0nth.s:25223  .debug_str:00000000000184b2 .LASF3961
C:\Users\SOLDER~1\AppData\Local\Temp\ccgE0nth.s:28399  .debug_str:000000000002524d .LASF3962
C:\Users\SOLDER~1\AppData\Local\Temp\ccgE0nth.s:22717  .debug_str:000000000000e220 .LASF3963
C:\Users\SOLDER~1\AppData\Local\Temp\ccgE0nth.s:22853  .debug_str:000000000000eacf .LASF3964
C:\Users\SOLDER~1\AppData\Local\Temp\ccgE0nth.s:27293  .debug_str:0000000000020a93 .LASF3965
C:\Users\SOLDER~1\AppData\Local\Temp\ccgE0nth.s:27357  .debug_str:0000000000020e9b .LASF3966
C:\Users\SOLDER~1\AppData\Local\Temp\ccgE0nth.s:26325  .debug_str:000000000001cbc9 .LASF3967
C:\Users\SOLDER~1\AppData\Local\Temp\ccgE0nth.s:28117  .debug_str:0000000000023fb6 .LASF3968
C:\Users\SOLDER~1\AppData\Local\Temp\ccgE0nth.s:25105  .debug_str:0000000000017cde .LASF3969
C:\Users\SOLDER~1\AppData\Local\Temp\ccgE0nth.s:22311  .debug_str:000000000000c714 .LASF3970
C:\Users\SOLDER~1\AppData\Local\Temp\ccgE0nth.s:21877  .debug_str:000000000000ab1e .LASF3971
C:\Users\SOLDER~1\AppData\Local\Temp\ccgE0nth.s:20377  .debug_str:000000000000491b .LASF3972
C:\Users\SOLDER~1\AppData\Local\Temp\ccgE0nth.s:28643  .debug_str:00000000000262eb .LASF3973
C:\Users\SOLDER~1\AppData\Local\Temp\ccgE0nth.s:27635  .debug_str:000000000002207d .LASF3974
C:\Users\SOLDER~1\AppData\Local\Temp\ccgE0nth.s:23301  .debug_str:000000000001078b .LASF3975
C:\Users\SOLDER~1\AppData\Local\Temp\ccgE0nth.s:19393  .debug_str:000000000000099e .LASF3976
C:\Users\SOLDER~1\AppData\Local\Temp\ccgE0nth.s:20941  .debug_str:0000000000006d68 .LASF3977
C:\Users\SOLDER~1\AppData\Local\Temp\ccgE0nth.s:30677  .debug_str:000000000002e6df .LASF3978
C:\Users\SOLDER~1\AppData\Local\Temp\ccgE0nth.s:21811  .debug_str:000000000000a685 .LASF3979
C:\Users\SOLDER~1\AppData\Local\Temp\ccgE0nth.s:24877  .debug_str:0000000000016dce .LASF3980
GAS LISTING C:\Users\SOLDER~1\AppData\Local\Temp\ccgE0nth.s 			page 97


C:\Users\SOLDER~1\AppData\Local\Temp\ccgE0nth.s:28805  .debug_str:0000000000026d7e .LASF3981
C:\Users\SOLDER~1\AppData\Local\Temp\ccgE0nth.s:25911  .debug_str:000000000001b0a5 .LASF3982
C:\Users\SOLDER~1\AppData\Local\Temp\ccgE0nth.s:29235  .debug_str:00000000000289ba .LASF3983
C:\Users\SOLDER~1\AppData\Local\Temp\ccgE0nth.s:25043  .debug_str:00000000000178d4 .LASF3984
C:\Users\SOLDER~1\AppData\Local\Temp\ccgE0nth.s:28799  .debug_str:0000000000026d13 .LASF3985
C:\Users\SOLDER~1\AppData\Local\Temp\ccgE0nth.s:21371  .debug_str:000000000000895b .LASF3986
C:\Users\SOLDER~1\AppData\Local\Temp\ccgE0nth.s:20891  .debug_str:0000000000006a4f .LASF3987
C:\Users\SOLDER~1\AppData\Local\Temp\ccgE0nth.s:26519  .debug_str:000000000001d880 .LASF3988
C:\Users\SOLDER~1\AppData\Local\Temp\ccgE0nth.s:21067  .debug_str:00000000000075da .LASF3989
C:\Users\SOLDER~1\AppData\Local\Temp\ccgE0nth.s:28669  .debug_str:00000000000264b6 .LASF3990
C:\Users\SOLDER~1\AppData\Local\Temp\ccgE0nth.s:20231  .debug_str:0000000000003fa7 .LASF3991
C:\Users\SOLDER~1\AppData\Local\Temp\ccgE0nth.s:28109  .debug_str:0000000000023f33 .LASF3992
C:\Users\SOLDER~1\AppData\Local\Temp\ccgE0nth.s:21465  .debug_str:0000000000008fc2 .LASF3993
C:\Users\SOLDER~1\AppData\Local\Temp\ccgE0nth.s:22051  .debug_str:000000000000b662 .LASF3994
C:\Users\SOLDER~1\AppData\Local\Temp\ccgE0nth.s:22335  .debug_str:000000000000c8c0 .LASF3995
C:\Users\SOLDER~1\AppData\Local\Temp\ccgE0nth.s:28189  .debug_str:000000000002446b .LASF3996
C:\Users\SOLDER~1\AppData\Local\Temp\ccgE0nth.s:29789  .debug_str:000000000002ad54 .LASF3997
C:\Users\SOLDER~1\AppData\Local\Temp\ccgE0nth.s:21511  .debug_str:000000000000930e .LASF3998
C:\Users\SOLDER~1\AppData\Local\Temp\ccgE0nth.s:23801  .debug_str:00000000000127bc .LASF3999
C:\Users\SOLDER~1\AppData\Local\Temp\ccgE0nth.s:24285  .debug_str:000000000001487f .LASF4000
C:\Users\SOLDER~1\AppData\Local\Temp\ccgE0nth.s:29013  .debug_str:0000000000027b0f .LASF4001
C:\Users\SOLDER~1\AppData\Local\Temp\ccgE0nth.s:30601  .debug_str:000000000002e206 .LASF4002
C:\Users\SOLDER~1\AppData\Local\Temp\ccgE0nth.s:19805  .debug_str:0000000000002460 .LASF4003
C:\Users\SOLDER~1\AppData\Local\Temp\ccgE0nth.s:24747  .debug_str:00000000000165f6 .LASF4004
C:\Users\SOLDER~1\AppData\Local\Temp\ccgE0nth.s:28125  .debug_str:000000000002402f .LASF4005
C:\Users\SOLDER~1\AppData\Local\Temp\ccgE0nth.s:29357  .debug_str:000000000002914e .LASF4006
C:\Users\SOLDER~1\AppData\Local\Temp\ccgE0nth.s:20573  .debug_str:000000000000550c .LASF4007
C:\Users\SOLDER~1\AppData\Local\Temp\ccgE0nth.s:21257  .debug_str:0000000000008237 .LASF4008
C:\Users\SOLDER~1\AppData\Local\Temp\ccgE0nth.s:19501  .debug_str:00000000000010a1 .LASF4009
C:\Users\SOLDER~1\AppData\Local\Temp\ccgE0nth.s:29207  .debug_str:0000000000028816 .LASF4010
C:\Users\SOLDER~1\AppData\Local\Temp\ccgE0nth.s:19467  .debug_str:0000000000000e91 .LASF4011
C:\Users\SOLDER~1\AppData\Local\Temp\ccgE0nth.s:29699  .debug_str:000000000002a798 .LASF4012
C:\Users\SOLDER~1\AppData\Local\Temp\ccgE0nth.s:29227  .debug_str:000000000002892d .LASF4013
C:\Users\SOLDER~1\AppData\Local\Temp\ccgE0nth.s:25687  .debug_str:000000000001a237 .LASF4014
C:\Users\SOLDER~1\AppData\Local\Temp\ccgE0nth.s:21865  .debug_str:000000000000aa4e .LASF4015
C:\Users\SOLDER~1\AppData\Local\Temp\ccgE0nth.s:19719  .debug_str:0000000000001ec1 .LASF4016
C:\Users\SOLDER~1\AppData\Local\Temp\ccgE0nth.s:30285  .debug_str:000000000002cd8e .LASF4017
C:\Users\SOLDER~1\AppData\Local\Temp\ccgE0nth.s:27543  .debug_str:0000000000021ab7 .LASF4018
C:\Users\SOLDER~1\AppData\Local\Temp\ccgE0nth.s:19319  .debug_str:0000000000000414 .LASF4019
C:\Users\SOLDER~1\AppData\Local\Temp\ccgE0nth.s:22299  .debug_str:000000000000c65d .LASF4020
C:\Users\SOLDER~1\AppData\Local\Temp\ccgE0nth.s:22133  .debug_str:000000000000bb31 .LASF4021
C:\Users\SOLDER~1\AppData\Local\Temp\ccgE0nth.s:28165  .debug_str:00000000000242d0 .LASF4022
C:\Users\SOLDER~1\AppData\Local\Temp\ccgE0nth.s:28525  .debug_str:0000000000025ab7 .LASF4023
C:\Users\SOLDER~1\AppData\Local\Temp\ccgE0nth.s:29141  .debug_str:000000000002839e .LASF4024
C:\Users\SOLDER~1\AppData\Local\Temp\ccgE0nth.s:20267  .debug_str:0000000000004219 .LASF4025
C:\Users\SOLDER~1\AppData\Local\Temp\ccgE0nth.s:26807  .debug_str:000000000001eb3a .LASF4026
C:\Users\SOLDER~1\AppData\Local\Temp\ccgE0nth.s:24385  .debug_str:0000000000014f2b .LASF4027
C:\Users\SOLDER~1\AppData\Local\Temp\ccgE0nth.s:30657  .debug_str:000000000002e589 .LASF4028
C:\Users\SOLDER~1\AppData\Local\Temp\ccgE0nth.s:20125  .debug_str:0000000000003904 .LASF4029
C:\Users\SOLDER~1\AppData\Local\Temp\ccgE0nth.s:26027  .debug_str:000000000001b7f7 .LASF4030
C:\Users\SOLDER~1\AppData\Local\Temp\ccgE0nth.s:28691  .debug_str:00000000000265ff .LASF4031
C:\Users\SOLDER~1\AppData\Local\Temp\ccgE0nth.s:23211  .debug_str:00000000000101e4 .LASF4032
C:\Users\SOLDER~1\AppData\Local\Temp\ccgE0nth.s:27907  .debug_str:00000000000231ef .LASF4033
C:\Users\SOLDER~1\AppData\Local\Temp\ccgE0nth.s:22135  .debug_str:000000000000bb4e .LASF4034
C:\Users\SOLDER~1\AppData\Local\Temp\ccgE0nth.s:29555  .debug_str:0000000000029e58 .LASF4035
C:\Users\SOLDER~1\AppData\Local\Temp\ccgE0nth.s:21601  .debug_str:00000000000098ba .LASF4036
C:\Users\SOLDER~1\AppData\Local\Temp\ccgE0nth.s:20441  .debug_str:0000000000004d25 .LASF4037
GAS LISTING C:\Users\SOLDER~1\AppData\Local\Temp\ccgE0nth.s 			page 98


C:\Users\SOLDER~1\AppData\Local\Temp\ccgE0nth.s:25201  .debug_str:0000000000018361 .LASF4038
C:\Users\SOLDER~1\AppData\Local\Temp\ccgE0nth.s:21341  .debug_str:0000000000008797 .LASF4039
C:\Users\SOLDER~1\AppData\Local\Temp\ccgE0nth.s:27323  .debug_str:0000000000020c71 .LASF4040
C:\Users\SOLDER~1\AppData\Local\Temp\ccgE0nth.s:30411  .debug_str:000000000002d5e1 .LASF4041
C:\Users\SOLDER~1\AppData\Local\Temp\ccgE0nth.s:22937  .debug_str:000000000000eff9 .LASF4042
C:\Users\SOLDER~1\AppData\Local\Temp\ccgE0nth.s:30515  .debug_str:000000000002dc9a .LASF4043
C:\Users\SOLDER~1\AppData\Local\Temp\ccgE0nth.s:27085  .debug_str:000000000001fd5f .LASF4044
C:\Users\SOLDER~1\AppData\Local\Temp\ccgE0nth.s:20633  .debug_str:000000000000591d .LASF4045
C:\Users\SOLDER~1\AppData\Local\Temp\ccgE0nth.s:26527  .debug_str:000000000001d8c2 .LASF4046
C:\Users\SOLDER~1\AppData\Local\Temp\ccgE0nth.s:20625  .debug_str:0000000000005889 .LASF4047
C:\Users\SOLDER~1\AppData\Local\Temp\ccgE0nth.s:28373  .debug_str:00000000000250b3 .LASF4048
C:\Users\SOLDER~1\AppData\Local\Temp\ccgE0nth.s:23483  .debug_str:0000000000011344 .LASF4049
C:\Users\SOLDER~1\AppData\Local\Temp\ccgE0nth.s:24053  .debug_str:0000000000013840 .LASF4050
C:\Users\SOLDER~1\AppData\Local\Temp\ccgE0nth.s:19935  .debug_str:0000000000002cae .LASF4051
C:\Users\SOLDER~1\AppData\Local\Temp\ccgE0nth.s:24169  .debug_str:00000000000140a7 .LASF4052
C:\Users\SOLDER~1\AppData\Local\Temp\ccgE0nth.s:23269  .debug_str:00000000000105b0 .LASF4053
C:\Users\SOLDER~1\AppData\Local\Temp\ccgE0nth.s:23457  .debug_str:00000000000111af .LASF4054
C:\Users\SOLDER~1\AppData\Local\Temp\ccgE0nth.s:27777  .debug_str:0000000000022963 .LASF4055
C:\Users\SOLDER~1\AppData\Local\Temp\ccgE0nth.s:23375  .debug_str:0000000000010c59 .LASF4056
C:\Users\SOLDER~1\AppData\Local\Temp\ccgE0nth.s:20027  .debug_str:00000000000032b1 .LASF4057
C:\Users\SOLDER~1\AppData\Local\Temp\ccgE0nth.s:23911  .debug_str:0000000000012ed9 .LASF4058
C:\Users\SOLDER~1\AppData\Local\Temp\ccgE0nth.s:23825  .debug_str:0000000000012915 .LASF4059
C:\Users\SOLDER~1\AppData\Local\Temp\ccgE0nth.s:21503  .debug_str:0000000000009289 .LASF4060
C:\Users\SOLDER~1\AppData\Local\Temp\ccgE0nth.s:20723  .debug_str:0000000000005ee7 .LASF4061
C:\Users\SOLDER~1\AppData\Local\Temp\ccgE0nth.s:27319  .debug_str:0000000000020c47 .LASF4062
C:\Users\SOLDER~1\AppData\Local\Temp\ccgE0nth.s:24987  .debug_str:000000000001753a .LASF4063
C:\Users\SOLDER~1\AppData\Local\Temp\ccgE0nth.s:27189  .debug_str:0000000000020405 .LASF4064
C:\Users\SOLDER~1\AppData\Local\Temp\ccgE0nth.s:27579  .debug_str:0000000000021d0b .LASF4065
C:\Users\SOLDER~1\AppData\Local\Temp\ccgE0nth.s:27785  .debug_str:00000000000229f4 .LASF4066
C:\Users\SOLDER~1\AppData\Local\Temp\ccgE0nth.s:23781  .debug_str:0000000000012678 .LASF4067
C:\Users\SOLDER~1\AppData\Local\Temp\ccgE0nth.s:27917  .debug_str:000000000002329e .LASF4068
C:\Users\SOLDER~1\AppData\Local\Temp\ccgE0nth.s:20773  .debug_str:000000000000626a .LASF4069
C:\Users\SOLDER~1\AppData\Local\Temp\ccgE0nth.s:28059  .debug_str:0000000000023bdc .LASF4070
C:\Users\SOLDER~1\AppData\Local\Temp\ccgE0nth.s:25273  .debug_str:00000000000187e4 .LASF4071
C:\Users\SOLDER~1\AppData\Local\Temp\ccgE0nth.s:27559  .debug_str:0000000000021bc5 .LASF4072
C:\Users\SOLDER~1\AppData\Local\Temp\ccgE0nth.s:19765  .debug_str:00000000000021a8 .LASF4073
C:\Users\SOLDER~1\AppData\Local\Temp\ccgE0nth.s:28679  .debug_str:000000000002654c .LASF4074
C:\Users\SOLDER~1\AppData\Local\Temp\ccgE0nth.s:27667  .debug_str:0000000000022244 .LASF4075
C:\Users\SOLDER~1\AppData\Local\Temp\ccgE0nth.s:23903  .debug_str:0000000000012e4d .LASF4076
C:\Users\SOLDER~1\AppData\Local\Temp\ccgE0nth.s:28481  .debug_str:000000000002577b .LASF4077
C:\Users\SOLDER~1\AppData\Local\Temp\ccgE0nth.s:20169  .debug_str:0000000000003be8 .LASF4078
C:\Users\SOLDER~1\AppData\Local\Temp\ccgE0nth.s:23089  .debug_str:000000000000f9ce .LASF4079
C:\Users\SOLDER~1\AppData\Local\Temp\ccgE0nth.s:22019  .debug_str:000000000000b425 .LASF4080
C:\Users\SOLDER~1\AppData\Local\Temp\ccgE0nth.s:20435  .debug_str:0000000000004cc0 .LASF4081
C:\Users\SOLDER~1\AppData\Local\Temp\ccgE0nth.s:29009  .debug_str:0000000000027ad7 .LASF4082
C:\Users\SOLDER~1\AppData\Local\Temp\ccgE0nth.s:21605  .debug_str:00000000000098f1 .LASF4083
C:\Users\SOLDER~1\AppData\Local\Temp\ccgE0nth.s:30017  .debug_str:000000000002bc3f .LASF4084
C:\Users\SOLDER~1\AppData\Local\Temp\ccgE0nth.s:27915  .debug_str:0000000000023281 .LASF4085
C:\Users\SOLDER~1\AppData\Local\Temp\ccgE0nth.s:29177  .debug_str:00000000000285da .LASF4086
C:\Users\SOLDER~1\AppData\Local\Temp\ccgE0nth.s:26187  .debug_str:000000000001c29a .LASF4087
C:\Users\SOLDER~1\AppData\Local\Temp\ccgE0nth.s:24323  .debug_str:0000000000014b27 .LASF4088
C:\Users\SOLDER~1\AppData\Local\Temp\ccgE0nth.s:20251  .debug_str:00000000000040f4 .LASF4089
C:\Users\SOLDER~1\AppData\Local\Temp\ccgE0nth.s:25979  .debug_str:000000000001b506 .LASF4090
C:\Users\SOLDER~1\AppData\Local\Temp\ccgE0nth.s:29925  .debug_str:000000000002b64b .LASF4091
C:\Users\SOLDER~1\AppData\Local\Temp\ccgE0nth.s:30761  .debug_str:000000000002ec57 .LASF4092
C:\Users\SOLDER~1\AppData\Local\Temp\ccgE0nth.s:21037  .debug_str:00000000000073e7 .LASF4093
C:\Users\SOLDER~1\AppData\Local\Temp\ccgE0nth.s:30231  .debug_str:000000000002ca1c .LASF4094
GAS LISTING C:\Users\SOLDER~1\AppData\Local\Temp\ccgE0nth.s 			page 99


C:\Users\SOLDER~1\AppData\Local\Temp\ccgE0nth.s:30479  .debug_str:000000000002da2a .LASF4095
C:\Users\SOLDER~1\AppData\Local\Temp\ccgE0nth.s:25189  .debug_str:00000000000182a7 .LASF4096
C:\Users\SOLDER~1\AppData\Local\Temp\ccgE0nth.s:19585  .debug_str:0000000000001611 .LASF4097
C:\Users\SOLDER~1\AppData\Local\Temp\ccgE0nth.s:20389  .debug_str:00000000000049cf .LASF4098
C:\Users\SOLDER~1\AppData\Local\Temp\ccgE0nth.s:20217  .debug_str:0000000000003eec .LASF4099
C:\Users\SOLDER~1\AppData\Local\Temp\ccgE0nth.s:25983  .debug_str:000000000001b540 .LASF4100
C:\Users\SOLDER~1\AppData\Local\Temp\ccgE0nth.s:29781  .debug_str:000000000002acd4 .LASF4101
C:\Users\SOLDER~1\AppData\Local\Temp\ccgE0nth.s:24361  .debug_str:0000000000014da6 .LASF4102
C:\Users\SOLDER~1\AppData\Local\Temp\ccgE0nth.s:20385  .debug_str:000000000000499c .LASF4103
C:\Users\SOLDER~1\AppData\Local\Temp\ccgE0nth.s:22607  .debug_str:000000000000dad7 .LASF4104
C:\Users\SOLDER~1\AppData\Local\Temp\ccgE0nth.s:21805  .debug_str:000000000000a633 .LASF4105
C:\Users\SOLDER~1\AppData\Local\Temp\ccgE0nth.s:21723  .debug_str:000000000000a0ab .LASF4106
C:\Users\SOLDER~1\AppData\Local\Temp\ccgE0nth.s:30405  .debug_str:000000000002d56e .LASF4107
C:\Users\SOLDER~1\AppData\Local\Temp\ccgE0nth.s:25331  .debug_str:0000000000018b81 .LASF4108
C:\Users\SOLDER~1\AppData\Local\Temp\ccgE0nth.s:30651  .debug_str:000000000002e529 .LASF4109
C:\Users\SOLDER~1\AppData\Local\Temp\ccgE0nth.s:20225  .debug_str:0000000000003f5d .LASF4110
C:\Users\SOLDER~1\AppData\Local\Temp\ccgE0nth.s:27723  .debug_str:00000000000225dc .LASF4111
C:\Users\SOLDER~1\AppData\Local\Temp\ccgE0nth.s:23287  .debug_str:00000000000106c8 .LASF4112
C:\Users\SOLDER~1\AppData\Local\Temp\ccgE0nth.s:25283  .debug_str:0000000000018862 .LASF4113
C:\Users\SOLDER~1\AppData\Local\Temp\ccgE0nth.s:27465  .debug_str:00000000000215be .LASF4114
C:\Users\SOLDER~1\AppData\Local\Temp\ccgE0nth.s:25515  .debug_str:00000000000197c9 .LASF4115
C:\Users\SOLDER~1\AppData\Local\Temp\ccgE0nth.s:22765  .debug_str:000000000000e558 .LASF4116
C:\Users\SOLDER~1\AppData\Local\Temp\ccgE0nth.s:30433  .debug_str:000000000002d75a .LASF4117
C:\Users\SOLDER~1\AppData\Local\Temp\ccgE0nth.s:21663  .debug_str:0000000000009caa .LASF4118
C:\Users\SOLDER~1\AppData\Local\Temp\ccgE0nth.s:20961  .debug_str:0000000000006ecf .LASF4119
C:\Users\SOLDER~1\AppData\Local\Temp\ccgE0nth.s:28931  .debug_str:00000000000275ee .LASF4120
C:\Users\SOLDER~1\AppData\Local\Temp\ccgE0nth.s:23425  .debug_str:0000000000010f8c .LASF4121
C:\Users\SOLDER~1\AppData\Local\Temp\ccgE0nth.s:20555  .debug_str:0000000000005402 .LASF4122
C:\Users\SOLDER~1\AppData\Local\Temp\ccgE0nth.s:20893  .debug_str:0000000000006a6a .LASF4123
C:\Users\SOLDER~1\AppData\Local\Temp\ccgE0nth.s:24607  .debug_str:0000000000015d01 .LASF4124
C:\Users\SOLDER~1\AppData\Local\Temp\ccgE0nth.s:22035  .debug_str:000000000000b540 .LASF4125
C:\Users\SOLDER~1\AppData\Local\Temp\ccgE0nth.s:19695  .debug_str:0000000000001d3c .LASF4126
C:\Users\SOLDER~1\AppData\Local\Temp\ccgE0nth.s:24403  .debug_str:0000000000015044 .LASF4127
C:\Users\SOLDER~1\AppData\Local\Temp\ccgE0nth.s:22181  .debug_str:000000000000be47 .LASF4128
C:\Users\SOLDER~1\AppData\Local\Temp\ccgE0nth.s:29549  .debug_str:0000000000029e03 .LASF4129
C:\Users\SOLDER~1\AppData\Local\Temp\ccgE0nth.s:19863  .debug_str:0000000000002811 .LASF4130
C:\Users\SOLDER~1\AppData\Local\Temp\ccgE0nth.s:21837  .debug_str:000000000000a887 .LASF4131
C:\Users\SOLDER~1\AppData\Local\Temp\ccgE0nth.s:26567  .debug_str:000000000001db62 .LASF4132
C:\Users\SOLDER~1\AppData\Local\Temp\ccgE0nth.s:22463  .debug_str:000000000000d187 .LASF4133
C:\Users\SOLDER~1\AppData\Local\Temp\ccgE0nth.s:20595  .debug_str:0000000000005650 .LASF4134
C:\Users\SOLDER~1\AppData\Local\Temp\ccgE0nth.s:23221  .debug_str:000000000001027e .LASF4135
C:\Users\SOLDER~1\AppData\Local\Temp\ccgE0nth.s:28905  .debug_str:0000000000027435 .LASF4136
C:\Users\SOLDER~1\AppData\Local\Temp\ccgE0nth.s:27945  .debug_str:00000000000234ba .LASF4137
C:\Users\SOLDER~1\AppData\Local\Temp\ccgE0nth.s:30703  .debug_str:000000000002e8b1 .LASF4138
C:\Users\SOLDER~1\AppData\Local\Temp\ccgE0nth.s:24289  .debug_str:00000000000148b7 .LASF4139
C:\Users\SOLDER~1\AppData\Local\Temp\ccgE0nth.s:21095  .debug_str:0000000000007784 .LASF4140
C:\Users\SOLDER~1\AppData\Local\Temp\ccgE0nth.s:28013  .debug_str:0000000000023909 .LASF4141
C:\Users\SOLDER~1\AppData\Local\Temp\ccgE0nth.s:21253  .debug_str:0000000000008206 .LASF4142
C:\Users\SOLDER~1\AppData\Local\Temp\ccgE0nth.s:29583  .debug_str:000000000002a02e .LASF4143
C:\Users\SOLDER~1\AppData\Local\Temp\ccgE0nth.s:28161  .debug_str:00000000000242a4 .LASF4144
C:\Users\SOLDER~1\AppData\Local\Temp\ccgE0nth.s:24439  .debug_str:0000000000015283 .LASF4145
C:\Users\SOLDER~1\AppData\Local\Temp\ccgE0nth.s:22751  .debug_str:000000000000e46e .LASF4146
C:\Users\SOLDER~1\AppData\Local\Temp\ccgE0nth.s:27755  .debug_str:00000000000227e1 .LASF4147
C:\Users\SOLDER~1\AppData\Local\Temp\ccgE0nth.s:27947  .debug_str:00000000000234cd .LASF4148
C:\Users\SOLDER~1\AppData\Local\Temp\ccgE0nth.s:19963  .debug_str:0000000000002e87 .LASF4149
C:\Users\SOLDER~1\AppData\Local\Temp\ccgE0nth.s:27203  .debug_str:00000000000204c7 .LASF4150
C:\Users\SOLDER~1\AppData\Local\Temp\ccgE0nth.s:30009  .debug_str:000000000002bbad .LASF4151
GAS LISTING C:\Users\SOLDER~1\AppData\Local\Temp\ccgE0nth.s 			page 100


C:\Users\SOLDER~1\AppData\Local\Temp\ccgE0nth.s:27439  .debug_str:00000000000213fb .LASF4152
C:\Users\SOLDER~1\AppData\Local\Temp\ccgE0nth.s:26125  .debug_str:000000000001be5b .LASF4153
C:\Users\SOLDER~1\AppData\Local\Temp\ccgE0nth.s:20403  .debug_str:0000000000004a96 .LASF4154
C:\Users\SOLDER~1\AppData\Local\Temp\ccgE0nth.s:19823  .debug_str:0000000000002591 .LASF4155
C:\Users\SOLDER~1\AppData\Local\Temp\ccgE0nth.s:21919  .debug_str:000000000000adbc .LASF4156
C:\Users\SOLDER~1\AppData\Local\Temp\ccgE0nth.s:25265  .debug_str:0000000000018765 .LASF4157
C:\Users\SOLDER~1\AppData\Local\Temp\ccgE0nth.s:29655  .debug_str:000000000002a4c9 .LASF4158
C:\Users\SOLDER~1\AppData\Local\Temp\ccgE0nth.s:27669  .debug_str:000000000002225f .LASF4159
C:\Users\SOLDER~1\AppData\Local\Temp\ccgE0nth.s:25543  .debug_str:0000000000019966 .LASF4160
C:\Users\SOLDER~1\AppData\Local\Temp\ccgE0nth.s:19859  .debug_str:00000000000027cd .LASF4161
C:\Users\SOLDER~1\AppData\Local\Temp\ccgE0nth.s:23741  .debug_str:00000000000123c7 .LASF4162
C:\Users\SOLDER~1\AppData\Local\Temp\ccgE0nth.s:27185  .debug_str:00000000000203c5 .LASF4163
C:\Users\SOLDER~1\AppData\Local\Temp\ccgE0nth.s:24763  .debug_str:00000000000166de .LASF4164
C:\Users\SOLDER~1\AppData\Local\Temp\ccgE0nth.s:21869  .debug_str:000000000000aa98 .LASF4165
C:\Users\SOLDER~1\AppData\Local\Temp\ccgE0nth.s:27987  .debug_str:000000000002376d .LASF4166
C:\Users\SOLDER~1\AppData\Local\Temp\ccgE0nth.s:28505  .debug_str:0000000000025947 .LASF4167
C:\Users\SOLDER~1\AppData\Local\Temp\ccgE0nth.s:29061  .debug_str:0000000000027e61 .LASF4168
C:\Users\SOLDER~1\AppData\Local\Temp\ccgE0nth.s:26845  .debug_str:000000000001edaf .LASF4169
C:\Users\SOLDER~1\AppData\Local\Temp\ccgE0nth.s:29975  .debug_str:000000000002b996 .LASF4170
C:\Users\SOLDER~1\AppData\Local\Temp\ccgE0nth.s:26075  .debug_str:000000000001bb19 .LASF4171
C:\Users\SOLDER~1\AppData\Local\Temp\ccgE0nth.s:29269  .debug_str:0000000000028bb7 .LASF4172
C:\Users\SOLDER~1\AppData\Local\Temp\ccgE0nth.s:30363  .debug_str:000000000002d2ec .LASF4173
C:\Users\SOLDER~1\AppData\Local\Temp\ccgE0nth.s:20479  .debug_str:0000000000004f5a .LASF4174
C:\Users\SOLDER~1\AppData\Local\Temp\ccgE0nth.s:30605  .debug_str:000000000002e231 .LASF4175
C:\Users\SOLDER~1\AppData\Local\Temp\ccgE0nth.s:26983  .debug_str:000000000001f6f7 .LASF4176
C:\Users\SOLDER~1\AppData\Local\Temp\ccgE0nth.s:28943  .debug_str:00000000000276bc .LASF4177
C:\Users\SOLDER~1\AppData\Local\Temp\ccgE0nth.s:28455  .debug_str:00000000000255de .LASF4178
C:\Users\SOLDER~1\AppData\Local\Temp\ccgE0nth.s:23003  .debug_str:000000000000f3f2 .LASF4179
C:\Users\SOLDER~1\AppData\Local\Temp\ccgE0nth.s:25611  .debug_str:0000000000019d7d .LASF4180
C:\Users\SOLDER~1\AppData\Local\Temp\ccgE0nth.s:20717  .debug_str:0000000000005e7f .LASF4181
C:\Users\SOLDER~1\AppData\Local\Temp\ccgE0nth.s:20327  .debug_str:00000000000045b6 .LASF4182
C:\Users\SOLDER~1\AppData\Local\Temp\ccgE0nth.s:20993  .debug_str:0000000000007120 .LASF4183
C:\Users\SOLDER~1\AppData\Local\Temp\ccgE0nth.s:19375  .debug_str:000000000000083a .LASF4184
C:\Users\SOLDER~1\AppData\Local\Temp\ccgE0nth.s:24177  .debug_str:000000000001410f .LASF4185
C:\Users\SOLDER~1\AppData\Local\Temp\ccgE0nth.s:30499  .debug_str:000000000002db7e .LASF4186
C:\Users\SOLDER~1\AppData\Local\Temp\ccgE0nth.s:27849  .debug_str:0000000000022e36 .LASF4187
C:\Users\SOLDER~1\AppData\Local\Temp\ccgE0nth.s:21203  .debug_str:0000000000007e80 .LASF4188
C:\Users\SOLDER~1\AppData\Local\Temp\ccgE0nth.s:26765  .debug_str:000000000001e868 .LASF4189
C:\Users\SOLDER~1\AppData\Local\Temp\ccgE0nth.s:21101  .debug_str:00000000000077d6 .LASF4190
C:\Users\SOLDER~1\AppData\Local\Temp\ccgE0nth.s:20889  .debug_str:0000000000006a3b .LASF4191
C:\Users\SOLDER~1\AppData\Local\Temp\ccgE0nth.s:26819  .debug_str:000000000001ebe6 .LASF4192
C:\Users\SOLDER~1\AppData\Local\Temp\ccgE0nth.s:19749  .debug_str:000000000000208e .LASF4193
C:\Users\SOLDER~1\AppData\Local\Temp\ccgE0nth.s:28417  .debug_str:0000000000025373 .LASF4194
C:\Users\SOLDER~1\AppData\Local\Temp\ccgE0nth.s:22359  .debug_str:000000000000ca77 .LASF4195
C:\Users\SOLDER~1\AppData\Local\Temp\ccgE0nth.s:26047  .debug_str:000000000001b919 .LASF4196
C:\Users\SOLDER~1\AppData\Local\Temp\ccgE0nth.s:19387  .debug_str:0000000000000940 .LASF4197
C:\Users\SOLDER~1\AppData\Local\Temp\ccgE0nth.s:24159  .debug_str:0000000000013ff3 .LASF4198
C:\Users\SOLDER~1\AppData\Local\Temp\ccgE0nth.s:24141  .debug_str:0000000000013eb9 .LASF4199
C:\Users\SOLDER~1\AppData\Local\Temp\ccgE0nth.s:21885  .debug_str:000000000000abc6 .LASF4200
C:\Users\SOLDER~1\AppData\Local\Temp\ccgE0nth.s:21685  .debug_str:0000000000009e23 .LASF4201
C:\Users\SOLDER~1\AppData\Local\Temp\ccgE0nth.s:21977  .debug_str:000000000000b1a1 .LASF4202
C:\Users\SOLDER~1\AppData\Local\Temp\ccgE0nth.s:23321  .debug_str:00000000000108ef .LASF4203
C:\Users\SOLDER~1\AppData\Local\Temp\ccgE0nth.s:21889  .debug_str:000000000000ac08 .LASF4204
C:\Users\SOLDER~1\AppData\Local\Temp\ccgE0nth.s:24119  .debug_str:0000000000013d2b .LASF4205
C:\Users\SOLDER~1\AppData\Local\Temp\ccgE0nth.s:25427  .debug_str:00000000000191d1 .LASF4206
C:\Users\SOLDER~1\AppData\Local\Temp\ccgE0nth.s:20785  .debug_str:000000000000632b .LASF4207
C:\Users\SOLDER~1\AppData\Local\Temp\ccgE0nth.s:23999  .debug_str:000000000001348f .LASF4208
GAS LISTING C:\Users\SOLDER~1\AppData\Local\Temp\ccgE0nth.s 			page 101


C:\Users\SOLDER~1\AppData\Local\Temp\ccgE0nth.s:21335  .debug_str:0000000000008717 .LASF4209
C:\Users\SOLDER~1\AppData\Local\Temp\ccgE0nth.s:29431  .debug_str:000000000002964c .LASF4210
C:\Users\SOLDER~1\AppData\Local\Temp\ccgE0nth.s:29429  .debug_str:000000000002962e .LASF4211
C:\Users\SOLDER~1\AppData\Local\Temp\ccgE0nth.s:19647  .debug_str:00000000000019e9 .LASF4212
C:\Users\SOLDER~1\AppData\Local\Temp\ccgE0nth.s:27389  .debug_str:00000000000210e5 .LASF4213
C:\Users\SOLDER~1\AppData\Local\Temp\ccgE0nth.s:28979  .debug_str:00000000000278f8 .LASF4214
C:\Users\SOLDER~1\AppData\Local\Temp\ccgE0nth.s:21301  .debug_str:00000000000084f6 .LASF4215
C:\Users\SOLDER~1\AppData\Local\Temp\ccgE0nth.s:24545  .debug_str:0000000000015921 .LASF4216
C:\Users\SOLDER~1\AppData\Local\Temp\ccgE0nth.s:24971  .debug_str:0000000000017414 .LASF4217
C:\Users\SOLDER~1\AppData\Local\Temp\ccgE0nth.s:19307  .debug_str:0000000000000341 .LASF4218
C:\Users\SOLDER~1\AppData\Local\Temp\ccgE0nth.s:24279  .debug_str:0000000000014828 .LASF4219
C:\Users\SOLDER~1\AppData\Local\Temp\ccgE0nth.s:29195  .debug_str:0000000000028735 .LASF4220
C:\Users\SOLDER~1\AppData\Local\Temp\ccgE0nth.s:30277  .debug_str:000000000002cd05 .LASF4221
C:\Users\SOLDER~1\AppData\Local\Temp\ccgE0nth.s:29529  .debug_str:0000000000029c8b .LASF4222
C:\Users\SOLDER~1\AppData\Local\Temp\ccgE0nth.s:27009  .debug_str:000000000001f8bc .LASF4223
C:\Users\SOLDER~1\AppData\Local\Temp\ccgE0nth.s:29451  .debug_str:000000000002977d .LASF4224
C:\Users\SOLDER~1\AppData\Local\Temp\ccgE0nth.s:25293  .debug_str:0000000000018911 .LASF4225
C:\Users\SOLDER~1\AppData\Local\Temp\ccgE0nth.s:23311  .debug_str:0000000000010840 .LASF4226
C:\Users\SOLDER~1\AppData\Local\Temp\ccgE0nth.s:21993  .debug_str:000000000000b274 .LASF4227
C:\Users\SOLDER~1\AppData\Local\Temp\ccgE0nth.s:22065  .debug_str:000000000000b743 .LASF4228
C:\Users\SOLDER~1\AppData\Local\Temp\ccgE0nth.s:24413  .debug_str:00000000000150cd .LASF4229
C:\Users\SOLDER~1\AppData\Local\Temp\ccgE0nth.s:21939  .debug_str:000000000000af35 .LASF4230
C:\Users\SOLDER~1\AppData\Local\Temp\ccgE0nth.s:21267  .debug_str:00000000000082d0 .LASF4231
C:\Users\SOLDER~1\AppData\Local\Temp\ccgE0nth.s:25769  .debug_str:000000000001a78d .LASF4232
C:\Users\SOLDER~1\AppData\Local\Temp\ccgE0nth.s:23357  .debug_str:0000000000010b47 .LASF4233
C:\Users\SOLDER~1\AppData\Local\Temp\ccgE0nth.s:29841  .debug_str:000000000002b0e3 .LASF4234
C:\Users\SOLDER~1\AppData\Local\Temp\ccgE0nth.s:21279  .debug_str:000000000000839e .LASF4235
C:\Users\SOLDER~1\AppData\Local\Temp\ccgE0nth.s:23915  .debug_str:0000000000012efe .LASF4236
C:\Users\SOLDER~1\AppData\Local\Temp\ccgE0nth.s:20853  .debug_str:00000000000067b5 .LASF4237
C:\Users\SOLDER~1\AppData\Local\Temp\ccgE0nth.s:19353  .debug_str:000000000000064c .LASF4238
C:\Users\SOLDER~1\AppData\Local\Temp\ccgE0nth.s:20017  .debug_str:0000000000003219 .LASF4239
C:\Users\SOLDER~1\AppData\Local\Temp\ccgE0nth.s:28153  .debug_str:0000000000024222 .LASF4240
C:\Users\SOLDER~1\AppData\Local\Temp\ccgE0nth.s:19987  .debug_str:0000000000003028 .LASF4241
C:\Users\SOLDER~1\AppData\Local\Temp\ccgE0nth.s:27073  .debug_str:000000000001fca6 .LASF4242
C:\Users\SOLDER~1\AppData\Local\Temp\ccgE0nth.s:22905  .debug_str:000000000000ede2 .LASF4243
C:\Users\SOLDER~1\AppData\Local\Temp\ccgE0nth.s:21051  .debug_str:00000000000074c6 .LASF4244
C:\Users\SOLDER~1\AppData\Local\Temp\ccgE0nth.s:27339  .debug_str:0000000000020d7e .LASF4245
C:\Users\SOLDER~1\AppData\Local\Temp\ccgE0nth.s:19927  .debug_str:0000000000002c1f .LASF4246
C:\Users\SOLDER~1\AppData\Local\Temp\ccgE0nth.s:26915  .debug_str:000000000001f248 .LASF4247
C:\Users\SOLDER~1\AppData\Local\Temp\ccgE0nth.s:23373  .debug_str:0000000000010c3d .LASF4248
C:\Users\SOLDER~1\AppData\Local\Temp\ccgE0nth.s:19787  .debug_str:000000000000231b .LASF4249
C:\Users\SOLDER~1\AppData\Local\Temp\ccgE0nth.s:24513  .debug_str:000000000001577b .LASF4250
C:\Users\SOLDER~1\AppData\Local\Temp\ccgE0nth.s:27275  .debug_str:0000000000020964 .LASF4251
C:\Users\SOLDER~1\AppData\Local\Temp\ccgE0nth.s:29757  .debug_str:000000000002ab41 .LASF4252
C:\Users\SOLDER~1\AppData\Local\Temp\ccgE0nth.s:25067  .debug_str:0000000000017a75 .LASF4253
C:\Users\SOLDER~1\AppData\Local\Temp\ccgE0nth.s:24595  .debug_str:0000000000015c4c .LASF4254
C:\Users\SOLDER~1\AppData\Local\Temp\ccgE0nth.s:22851  .debug_str:000000000000eab2 .LASF4255
C:\Users\SOLDER~1\AppData\Local\Temp\ccgE0nth.s:29455  .debug_str:00000000000297b9 .LASF4256
C:\Users\SOLDER~1\AppData\Local\Temp\ccgE0nth.s:20245  .debug_str:000000000000409b .LASF4257
C:\Users\SOLDER~1\AppData\Local\Temp\ccgE0nth.s:27335  .debug_str:0000000000020d3f .LASF4258
C:\Users\SOLDER~1\AppData\Local\Temp\ccgE0nth.s:20751  .debug_str:00000000000060c7 .LASF4259
C:\Users\SOLDER~1\AppData\Local\Temp\ccgE0nth.s:23597  .debug_str:0000000000011ad6 .LASF4260
C:\Users\SOLDER~1\AppData\Local\Temp\ccgE0nth.s:25425  .debug_str:00000000000191b3 .LASF4261
C:\Users\SOLDER~1\AppData\Local\Temp\ccgE0nth.s:28237  .debug_str:00000000000247af .LASF4262
C:\Users\SOLDER~1\AppData\Local\Temp\ccgE0nth.s:27501  .debug_str:00000000000217f5 .LASF4263
C:\Users\SOLDER~1\AppData\Local\Temp\ccgE0nth.s:28683  .debug_str:0000000000026570 .LASF4264
C:\Users\SOLDER~1\AppData\Local\Temp\ccgE0nth.s:28977  .debug_str:00000000000278dd .LASF4265
GAS LISTING C:\Users\SOLDER~1\AppData\Local\Temp\ccgE0nth.s 			page 102


C:\Users\SOLDER~1\AppData\Local\Temp\ccgE0nth.s:29797  .debug_str:000000000002add0 .LASF4266
C:\Users\SOLDER~1\AppData\Local\Temp\ccgE0nth.s:29263  .debug_str:0000000000028b66 .LASF4267
C:\Users\SOLDER~1\AppData\Local\Temp\ccgE0nth.s:26491  .debug_str:000000000001d6bc .LASF4268
C:\Users\SOLDER~1\AppData\Local\Temp\ccgE0nth.s:19495  .debug_str:0000000000001041 .LASF4269
C:\Users\SOLDER~1\AppData\Local\Temp\ccgE0nth.s:27411  .debug_str:000000000002125a .LASF4270
C:\Users\SOLDER~1\AppData\Local\Temp\ccgE0nth.s:21255  .debug_str:000000000000821a .LASF4271
C:\Users\SOLDER~1\AppData\Local\Temp\ccgE0nth.s:20499  .debug_str:000000000000508c .LASF4272
C:\Users\SOLDER~1\AppData\Local\Temp\ccgE0nth.s:28861  .debug_str:000000000002713e .LASF4273
C:\Users\SOLDER~1\AppData\Local\Temp\ccgE0nth.s:19361  .debug_str:000000000000075a .LASF4274
C:\Users\SOLDER~1\AppData\Local\Temp\ccgE0nth.s:28463  .debug_str:0000000000025644 .LASF4275
C:\Users\SOLDER~1\AppData\Local\Temp\ccgE0nth.s:20293  .debug_str:00000000000043a4 .LASF4276
C:\Users\SOLDER~1\AppData\Local\Temp\ccgE0nth.s:22575  .debug_str:000000000000d8da .LASF4277
C:\Users\SOLDER~1\AppData\Local\Temp\ccgE0nth.s:21297  .debug_str:00000000000084b5 .LASF4278
C:\Users\SOLDER~1\AppData\Local\Temp\ccgE0nth.s:30047  .debug_str:000000000002be36 .LASF4279
C:\Users\SOLDER~1\AppData\Local\Temp\ccgE0nth.s:23417  .debug_str:0000000000010f08 .LASF4280
C:\Users\SOLDER~1\AppData\Local\Temp\ccgE0nth.s:19317  .debug_str:00000000000003f3 .LASF4281
C:\Users\SOLDER~1\AppData\Local\Temp\ccgE0nth.s:21579  .debug_str:0000000000009760 .LASF4282
C:\Users\SOLDER~1\AppData\Local\Temp\ccgE0nth.s:24281  .debug_str:000000000001483b .LASF4283
C:\Users\SOLDER~1\AppData\Local\Temp\ccgE0nth.s:21047  .debug_str:0000000000007496 .LASF4284
C:\Users\SOLDER~1\AppData\Local\Temp\ccgE0nth.s:22289  .debug_str:000000000000c590 .LASF4285
C:\Users\SOLDER~1\AppData\Local\Temp\ccgE0nth.s:25255  .debug_str:00000000000186d2 .LASF4286
C:\Users\SOLDER~1\AppData\Local\Temp\ccgE0nth.s:24191  .debug_str:00000000000141fc .LASF4287
C:\Users\SOLDER~1\AppData\Local\Temp\ccgE0nth.s:27601  .debug_str:0000000000021e69 .LASF4288
C:\Users\SOLDER~1\AppData\Local\Temp\ccgE0nth.s:26681  .debug_str:000000000001e2d8 .LASF4289
C:\Users\SOLDER~1\AppData\Local\Temp\ccgE0nth.s:23421  .debug_str:0000000000010f4f .LASF4290
C:\Users\SOLDER~1\AppData\Local\Temp\ccgE0nth.s:24477  .debug_str:0000000000015513 .LASF4291
C:\Users\SOLDER~1\AppData\Local\Temp\ccgE0nth.s:19549  .debug_str:00000000000013ba .LASF4292
C:\Users\SOLDER~1\AppData\Local\Temp\ccgE0nth.s:25551  .debug_str:00000000000199d7 .LASF4293
C:\Users\SOLDER~1\AppData\Local\Temp\ccgE0nth.s:26139  .debug_str:000000000001bf3d .LASF4294
C:\Users\SOLDER~1\AppData\Local\Temp\ccgE0nth.s:27325  .debug_str:0000000000020c83 .LASF4295
C:\Users\SOLDER~1\AppData\Local\Temp\ccgE0nth.s:28845  .debug_str:000000000002702d .LASF4296
C:\Users\SOLDER~1\AppData\Local\Temp\ccgE0nth.s:22873  .debug_str:000000000000ebcf .LASF4297
C:\Users\SOLDER~1\AppData\Local\Temp\ccgE0nth.s:24015  .debug_str:00000000000135a7 .LASF4298
C:\Users\SOLDER~1\AppData\Local\Temp\ccgE0nth.s:20563  .debug_str:000000000000547c .LASF4299
C:\Users\SOLDER~1\AppData\Local\Temp\ccgE0nth.s:22647  .debug_str:000000000000dd62 .LASF4300
C:\Users\SOLDER~1\AppData\Local\Temp\ccgE0nth.s:21383  .debug_str:0000000000008a3c .LASF4301
C:\Users\SOLDER~1\AppData\Local\Temp\ccgE0nth.s:25173  .debug_str:000000000001819a .LASF4302
C:\Users\SOLDER~1\AppData\Local\Temp\ccgE0nth.s:30505  .debug_str:000000000002dbd3 .LASF4303
C:\Users\SOLDER~1\AppData\Local\Temp\ccgE0nth.s:19767  .debug_str:00000000000021c3 .LASF4304
C:\Users\SOLDER~1\AppData\Local\Temp\ccgE0nth.s:24591  .debug_str:0000000000015bfc .LASF4305
C:\Users\SOLDER~1\AppData\Local\Temp\ccgE0nth.s:28649  .debug_str:000000000002635f .LASF4306
C:\Users\SOLDER~1\AppData\Local\Temp\ccgE0nth.s:28353  .debug_str:0000000000024f51 .LASF4307
C:\Users\SOLDER~1\AppData\Local\Temp\ccgE0nth.s:26853  .debug_str:000000000001ee28 .LASF4308
C:\Users\SOLDER~1\AppData\Local\Temp\ccgE0nth.s:30623  .debug_str:000000000002e354 .LASF4309
C:\Users\SOLDER~1\AppData\Local\Temp\ccgE0nth.s:22177  .debug_str:000000000000be13 .LASF4310
C:\Users\SOLDER~1\AppData\Local\Temp\ccgE0nth.s:23177  .debug_str:000000000000ffd0 .LASF4311
C:\Users\SOLDER~1\AppData\Local\Temp\ccgE0nth.s:25937  .debug_str:000000000001b244 .LASF4312
C:\Users\SOLDER~1\AppData\Local\Temp\ccgE0nth.s:26033  .debug_str:000000000001b83e .LASF4313
C:\Users\SOLDER~1\AppData\Local\Temp\ccgE0nth.s:19621  .debug_str:000000000000184e .LASF4314
C:\Users\SOLDER~1\AppData\Local\Temp\ccgE0nth.s:24757  .debug_str:000000000001668b .LASF4315
C:\Users\SOLDER~1\AppData\Local\Temp\ccgE0nth.s:24379  .debug_str:0000000000014ec6 .LASF4316
C:\Users\SOLDER~1\AppData\Local\Temp\ccgE0nth.s:21163  .debug_str:0000000000007bce .LASF4317
C:\Users\SOLDER~1\AppData\Local\Temp\ccgE0nth.s:24645  .debug_str:0000000000015f5d .LASF4318
C:\Users\SOLDER~1\AppData\Local\Temp\ccgE0nth.s:20741  .debug_str:0000000000006003 .LASF4319
C:\Users\SOLDER~1\AppData\Local\Temp\ccgE0nth.s:29995  .debug_str:000000000002bac4 .LASF4320
C:\Users\SOLDER~1\AppData\Local\Temp\ccgE0nth.s:29057  .debug_str:0000000000027e1f .LASF4321
C:\Users\SOLDER~1\AppData\Local\Temp\ccgE0nth.s:27561  .debug_str:0000000000021bd7 .LASF4322
GAS LISTING C:\Users\SOLDER~1\AppData\Local\Temp\ccgE0nth.s 			page 103


C:\Users\SOLDER~1\AppData\Local\Temp\ccgE0nth.s:30209  .debug_str:000000000002c8a8 .LASF4323
C:\Users\SOLDER~1\AppData\Local\Temp\ccgE0nth.s:19711  .debug_str:0000000000001e3b .LASF4324
C:\Users\SOLDER~1\AppData\Local\Temp\ccgE0nth.s:30587  .debug_str:000000000002e128 .LASF4325
C:\Users\SOLDER~1\AppData\Local\Temp\ccgE0nth.s:23515  .debug_str:0000000000011575 .LASF4326
C:\Users\SOLDER~1\AppData\Local\Temp\ccgE0nth.s:21209  .debug_str:0000000000007eee .LASF4327
C:\Users\SOLDER~1\AppData\Local\Temp\ccgE0nth.s:30485  .debug_str:000000000002da95 .LASF4328
C:\Users\SOLDER~1\AppData\Local\Temp\ccgE0nth.s:27767  .debug_str:00000000000228a6 .LASF4329
C:\Users\SOLDER~1\AppData\Local\Temp\ccgE0nth.s:26981  .debug_str:000000000001f6dc .LASF4330
C:\Users\SOLDER~1\AppData\Local\Temp\ccgE0nth.s:19905  .debug_str:0000000000002ae6 .LASF4331
C:\Users\SOLDER~1\AppData\Local\Temp\ccgE0nth.s:23961  .debug_str:00000000000131e7 .LASF4332
C:\Users\SOLDER~1\AppData\Local\Temp\ccgE0nth.s:26991  .debug_str:000000000001f775 .LASF4333
C:\Users\SOLDER~1\AppData\Local\Temp\ccgE0nth.s:23759  .debug_str:00000000000124cd .LASF4334
C:\Users\SOLDER~1\AppData\Local\Temp\ccgE0nth.s:26311  .debug_str:000000000001cad0 .LASF4335
C:\Users\SOLDER~1\AppData\Local\Temp\ccgE0nth.s:25869  .debug_str:000000000001ae38 .LASF4336
C:\Users\SOLDER~1\AppData\Local\Temp\ccgE0nth.s:20813  .debug_str:0000000000006509 .LASF4337
C:\Users\SOLDER~1\AppData\Local\Temp\ccgE0nth.s:26677  .debug_str:000000000001e29b .LASF4338
C:\Users\SOLDER~1\AppData\Local\Temp\ccgE0nth.s:25561  .debug_str:0000000000019a84 .LASF4339
C:\Users\SOLDER~1\AppData\Local\Temp\ccgE0nth.s:26247  .debug_str:000000000001c696 .LASF4340
C:\Users\SOLDER~1\AppData\Local\Temp\ccgE0nth.s:25057  .debug_str:00000000000179c8 .LASF4341
C:\Users\SOLDER~1\AppData\Local\Temp\ccgE0nth.s:26487  .debug_str:000000000001d67c .LASF4342
C:\Users\SOLDER~1\AppData\Local\Temp\ccgE0nth.s:24871  .debug_str:0000000000016d74 .LASF4343
C:\Users\SOLDER~1\AppData\Local\Temp\ccgE0nth.s:24963  .debug_str:00000000000173a2 .LASF4344
C:\Users\SOLDER~1\AppData\Local\Temp\ccgE0nth.s:28251  .debug_str:00000000000248a3 .LASF4345
C:\Users\SOLDER~1\AppData\Local\Temp\ccgE0nth.s:23791  .debug_str:0000000000012720 .LASF4346
C:\Users\SOLDER~1\AppData\Local\Temp\ccgE0nth.s:20009  .debug_str:0000000000003188 .LASF4347
C:\Users\SOLDER~1\AppData\Local\Temp\ccgE0nth.s:28157  .debug_str:0000000000024263 .LASF4348
C:\Users\SOLDER~1\AppData\Local\Temp\ccgE0nth.s:29949  .debug_str:000000000002b7dd .LASF4349
C:\Users\SOLDER~1\AppData\Local\Temp\ccgE0nth.s:27805  .debug_str:0000000000022b4f .LASF4350
C:\Users\SOLDER~1\AppData\Local\Temp\ccgE0nth.s:22923  .debug_str:000000000000ef03 .LASF4351
C:\Users\SOLDER~1\AppData\Local\Temp\ccgE0nth.s:24711  .debug_str:00000000000163b7 .LASF4352
C:\Users\SOLDER~1\AppData\Local\Temp\ccgE0nth.s:19955  .debug_str:0000000000002df7 .LASF4353
C:\Users\SOLDER~1\AppData\Local\Temp\ccgE0nth.s:25579  .debug_str:0000000000019bbd .LASF4354
C:\Users\SOLDER~1\AppData\Local\Temp\ccgE0nth.s:23959  .debug_str:00000000000131c1 .LASF4355
C:\Users\SOLDER~1\AppData\Local\Temp\ccgE0nth.s:25947  .debug_str:000000000001b2eb .LASF4356
C:\Users\SOLDER~1\AppData\Local\Temp\ccgE0nth.s:27913  .debug_str:000000000002325c .LASF4357
C:\Users\SOLDER~1\AppData\Local\Temp\ccgE0nth.s:22655  .debug_str:000000000000ddd7 .LASF4358
C:\Users\SOLDER~1\AppData\Local\Temp\ccgE0nth.s:23029  .debug_str:000000000000f5b7 .LASF4359
C:\Users\SOLDER~1\AppData\Local\Temp\ccgE0nth.s:29913  .debug_str:000000000002b578 .LASF4360
C:\Users\SOLDER~1\AppData\Local\Temp\ccgE0nth.s:20037  .debug_str:000000000000334e .LASF4361
C:\Users\SOLDER~1\AppData\Local\Temp\ccgE0nth.s:21569  .debug_str:00000000000096d4 .LASF4362
C:\Users\SOLDER~1\AppData\Local\Temp\ccgE0nth.s:20317  .debug_str:000000000000451a .LASF4363
C:\Users\SOLDER~1\AppData\Local\Temp\ccgE0nth.s:22179  .debug_str:000000000000be2c .LASF4364
C:\Users\SOLDER~1\AppData\Local\Temp\ccgE0nth.s:29865  .debug_str:000000000002b288 .LASF4365
C:\Users\SOLDER~1\AppData\Local\Temp\ccgE0nth.s:24997  .debug_str:00000000000175e3 .LASF4366
C:\Users\SOLDER~1\AppData\Local\Temp\ccgE0nth.s:30641  .debug_str:000000000002e47e .LASF4367
C:\Users\SOLDER~1\AppData\Local\Temp\ccgE0nth.s:22283  .debug_str:000000000000c527 .LASF4368
C:\Users\SOLDER~1\AppData\Local\Temp\ccgE0nth.s:27595  .debug_str:0000000000021dff .LASF4369
C:\Users\SOLDER~1\AppData\Local\Temp\ccgE0nth.s:28837  .debug_str:0000000000026fb6 .LASF4370
C:\Users\SOLDER~1\AppData\Local\Temp\ccgE0nth.s:21303  .debug_str:0000000000008508 .LASF4371
C:\Users\SOLDER~1\AppData\Local\Temp\ccgE0nth.s:30379  .debug_str:000000000002d3fb .LASF4372
C:\Users\SOLDER~1\AppData\Local\Temp\ccgE0nth.s:24335  .debug_str:0000000000014be0 .LASF4373
C:\Users\SOLDER~1\AppData\Local\Temp\ccgE0nth.s:22625  .debug_str:000000000000dbd6 .LASF4374
C:\Users\SOLDER~1\AppData\Local\Temp\ccgE0nth.s:25435  .debug_str:000000000001924e .LASF4375
C:\Users\SOLDER~1\AppData\Local\Temp\ccgE0nth.s:24315  .debug_str:0000000000014a9c .LASF4376
C:\Users\SOLDER~1\AppData\Local\Temp\ccgE0nth.s:25703  .debug_str:000000000001a324 .LASF4377
C:\Users\SOLDER~1\AppData\Local\Temp\ccgE0nth.s:22509  .debug_str:000000000000d474 .LASF4378
C:\Users\SOLDER~1\AppData\Local\Temp\ccgE0nth.s:26465  .debug_str:000000000001d533 .LASF4379
GAS LISTING C:\Users\SOLDER~1\AppData\Local\Temp\ccgE0nth.s 			page 104


C:\Users\SOLDER~1\AppData\Local\Temp\ccgE0nth.s:28275  .debug_str:0000000000024a18 .LASF4380
C:\Users\SOLDER~1\AppData\Local\Temp\ccgE0nth.s:21453  .debug_str:0000000000008eed .LASF4381
C:\Users\SOLDER~1\AppData\Local\Temp\ccgE0nth.s:21843  .debug_str:000000000000a8ea .LASF4382
C:\Users\SOLDER~1\AppData\Local\Temp\ccgE0nth.s:22401  .debug_str:000000000000cd55 .LASF4383
C:\Users\SOLDER~1\AppData\Local\Temp\ccgE0nth.s:29411  .debug_str:00000000000294f7 .LASF4384
C:\Users\SOLDER~1\AppData\Local\Temp\ccgE0nth.s:25961  .debug_str:000000000001b3cf .LASF4385
C:\Users\SOLDER~1\AppData\Local\Temp\ccgE0nth.s:22577  .debug_str:000000000000d8f7 .LASF4386
C:\Users\SOLDER~1\AppData\Local\Temp\ccgE0nth.s:19415  .debug_str:0000000000000b13 .LASF4387
C:\Users\SOLDER~1\AppData\Local\Temp\ccgE0nth.s:21421  .debug_str:0000000000008c97 .LASF4388
C:\Users\SOLDER~1\AppData\Local\Temp\ccgE0nth.s:24213  .debug_str:00000000000143ba .LASF4389
C:\Users\SOLDER~1\AppData\Local\Temp\ccgE0nth.s:20337  .debug_str:000000000000465d .LASF4390
C:\Users\SOLDER~1\AppData\Local\Temp\ccgE0nth.s:20393  .debug_str:0000000000004a05 .LASF4391
C:\Users\SOLDER~1\AppData\Local\Temp\ccgE0nth.s:30403  .debug_str:000000000002d558 .LASF4392
C:\Users\SOLDER~1\AppData\Local\Temp\ccgE0nth.s:25305  .debug_str:00000000000189cb .LASF4393
C:\Users\SOLDER~1\AppData\Local\Temp\ccgE0nth.s:30525  .debug_str:000000000002dd3d .LASF4394
C:\Users\SOLDER~1\AppData\Local\Temp\ccgE0nth.s:24749  .debug_str:0000000000016607 .LASF4395
C:\Users\SOLDER~1\AppData\Local\Temp\ccgE0nth.s:22491  .debug_str:000000000000d342 .LASF4396
C:\Users\SOLDER~1\AppData\Local\Temp\ccgE0nth.s:24165  .debug_str:0000000000014068 .LASF4397
C:\Users\SOLDER~1\AppData\Local\Temp\ccgE0nth.s:29157  .debug_str:00000000000284a0 .LASF4398
C:\Users\SOLDER~1\AppData\Local\Temp\ccgE0nth.s:20515  .debug_str:0000000000005175 .LASF4399
C:\Users\SOLDER~1\AppData\Local\Temp\ccgE0nth.s:24123  .debug_str:0000000000013d6d .LASF4400
C:\Users\SOLDER~1\AppData\Local\Temp\ccgE0nth.s:25597  .debug_str:0000000000019ca4 .LASF4401
C:\Users\SOLDER~1\AppData\Local\Temp\ccgE0nth.s:25519  .debug_str:0000000000019807 .LASF4402
C:\Users\SOLDER~1\AppData\Local\Temp\ccgE0nth.s:26375  .debug_str:000000000001cf18 .LASF4403
C:\Users\SOLDER~1\AppData\Local\Temp\ccgE0nth.s:24181  .debug_str:000000000001414d .LASF4404
C:\Users\SOLDER~1\AppData\Local\Temp\ccgE0nth.s:27633  .debug_str:000000000002205d .LASF4405
C:\Users\SOLDER~1\AppData\Local\Temp\ccgE0nth.s:28469  .debug_str:00000000000256a6 .LASF4406
C:\Users\SOLDER~1\AppData\Local\Temp\ccgE0nth.s:23295  .debug_str:000000000001072d .LASF4407
C:\Users\SOLDER~1\AppData\Local\Temp\ccgE0nth.s:24783  .debug_str:00000000000167f4 .LASF4408
C:\Users\SOLDER~1\AppData\Local\Temp\ccgE0nth.s:27493  .debug_str:0000000000021764 .LASF4409
C:\Users\SOLDER~1\AppData\Local\Temp\ccgE0nth.s:25117  .debug_str:0000000000017da8 .LASF4410
C:\Users\SOLDER~1\AppData\Local\Temp\ccgE0nth.s:28221  .debug_str:00000000000246a6 .LASF4411
C:\Users\SOLDER~1\AppData\Local\Temp\ccgE0nth.s:28055  .debug_str:0000000000023b99 .LASF4412
C:\Users\SOLDER~1\AppData\Local\Temp\ccgE0nth.s:28587  .debug_str:0000000000025eef .LASF4413
C:\Users\SOLDER~1\AppData\Local\Temp\ccgE0nth.s:23289  .debug_str:00000000000106d8 .LASF4414
C:\Users\SOLDER~1\AppData\Local\Temp\ccgE0nth.s:23339  .debug_str:0000000000010a35 .LASF4415
C:\Users\SOLDER~1\AppData\Local\Temp\ccgE0nth.s:19843  .debug_str:00000000000026b9 .LASF4416
C:\Users\SOLDER~1\AppData\Local\Temp\ccgE0nth.s:24905  .debug_str:0000000000016fa7 .LASF4417
C:\Users\SOLDER~1\AppData\Local\Temp\ccgE0nth.s:23775  .debug_str:00000000000125fa .LASF4418
C:\Users\SOLDER~1\AppData\Local\Temp\ccgE0nth.s:19847  .debug_str:0000000000002700 .LASF4419
C:\Users\SOLDER~1\AppData\Local\Temp\ccgE0nth.s:21779  .debug_str:000000000000a46e .LASF4420
C:\Users\SOLDER~1\AppData\Local\Temp\ccgE0nth.s:26395  .debug_str:000000000001d041 .LASF4421
C:\Users\SOLDER~1\AppData\Local\Temp\ccgE0nth.s:25539  .debug_str:0000000000019919 .LASF4422
C:\Users\SOLDER~1\AppData\Local\Temp\ccgE0nth.s:23669  .debug_str:0000000000011f3d .LASF4423
C:\Users\SOLDER~1\AppData\Local\Temp\ccgE0nth.s:26547  .debug_str:000000000001da0f .LASF4424
C:\Users\SOLDER~1\AppData\Local\Temp\ccgE0nth.s:20731  .debug_str:0000000000005f60 .LASF4425
C:\Users\SOLDER~1\AppData\Local\Temp\ccgE0nth.s:24301  .debug_str:0000000000014991 .LASF4426
C:\Users\SOLDER~1\AppData\Local\Temp\ccgE0nth.s:27265  .debug_str:00000000000208be .LASF4427
C:\Users\SOLDER~1\AppData\Local\Temp\ccgE0nth.s:30717  .debug_str:000000000002e99b .LASF4428
C:\Users\SOLDER~1\AppData\Local\Temp\ccgE0nth.s:25791  .debug_str:000000000001a914 .LASF4429
C:\Users\SOLDER~1\AppData\Local\Temp\ccgE0nth.s:30447  .debug_str:000000000002d84f .LASF4430
C:\Users\SOLDER~1\AppData\Local\Temp\ccgE0nth.s:29465  .debug_str:000000000002985a .LASF4431
C:\Users\SOLDER~1\AppData\Local\Temp\ccgE0nth.s:25545  .debug_str:0000000000019984 .LASF4432
C:\Users\SOLDER~1\AppData\Local\Temp\ccgE0nth.s:25801  .debug_str:000000000001a99f .LASF4433
C:\Users\SOLDER~1\AppData\Local\Temp\ccgE0nth.s:23529  .debug_str:0000000000011699 .LASF4434
C:\Users\SOLDER~1\AppData\Local\Temp\ccgE0nth.s:30265  .debug_str:000000000002cc3e .LASF4435
C:\Users\SOLDER~1\AppData\Local\Temp\ccgE0nth.s:25513  .debug_str:00000000000197b8 .LASF4436
GAS LISTING C:\Users\SOLDER~1\AppData\Local\Temp\ccgE0nth.s 			page 105


C:\Users\SOLDER~1\AppData\Local\Temp\ccgE0nth.s:29133  .debug_str:000000000002831e .LASF4437
C:\Users\SOLDER~1\AppData\Local\Temp\ccgE0nth.s:27803  .debug_str:0000000000022b3b .LASF4438
C:\Users\SOLDER~1\AppData\Local\Temp\ccgE0nth.s:23061  .debug_str:000000000000f7c5 .LASF4439
C:\Users\SOLDER~1\AppData\Local\Temp\ccgE0nth.s:28425  .debug_str:00000000000253f7 .LASF4440
C:\Users\SOLDER~1\AppData\Local\Temp\ccgE0nth.s:24853  .debug_str:0000000000016c82 .LASF4441
C:\Users\SOLDER~1\AppData\Local\Temp\ccgE0nth.s:29213  .debug_str:000000000002885f .LASF4442
C:\Users\SOLDER~1\AppData\Local\Temp\ccgE0nth.s:24759  .debug_str:00000000000166ad .LASF4443
C:\Users\SOLDER~1\AppData\Local\Temp\ccgE0nth.s:22191  .debug_str:000000000000bee2 .LASF4444
C:\Users\SOLDER~1\AppData\Local\Temp\ccgE0nth.s:24549  .debug_str:0000000000015966 .LASF4445
C:\Users\SOLDER~1\AppData\Local\Temp\ccgE0nth.s:25307  .debug_str:00000000000189eb .LASF4446
C:\Users\SOLDER~1\AppData\Local\Temp\ccgE0nth.s:22381  .debug_str:000000000000cbfc .LASF4447
C:\Users\SOLDER~1\AppData\Local\Temp\ccgE0nth.s:26119  .debug_str:000000000001bdef .LASF4448
C:\Users\SOLDER~1\AppData\Local\Temp\ccgE0nth.s:27623  .debug_str:0000000000021fc1 .LASF4449
C:\Users\SOLDER~1\AppData\Local\Temp\ccgE0nth.s:29313  .debug_str:0000000000028e7d .LASF4450
C:\Users\SOLDER~1\AppData\Local\Temp\ccgE0nth.s:27367  .debug_str:0000000000020f44 .LASF4451
C:\Users\SOLDER~1\AppData\Local\Temp\ccgE0nth.s:25895  .debug_str:000000000001afd6 .LASF4452
C:\Users\SOLDER~1\AppData\Local\Temp\ccgE0nth.s:24057  .debug_str:0000000000013875 .LASF4453
C:\Users\SOLDER~1\AppData\Local\Temp\ccgE0nth.s:26359  .debug_str:000000000001ce1a .LASF4454
C:\Users\SOLDER~1\AppData\Local\Temp\ccgE0nth.s:23695  .debug_str:00000000000120f1 .LASF4455
C:\Users\SOLDER~1\AppData\Local\Temp\ccgE0nth.s:28755  .debug_str:0000000000026a6c .LASF4456
C:\Users\SOLDER~1\AppData\Local\Temp\ccgE0nth.s:23157  .debug_str:000000000000fe93 .LASF4457
C:\Users\SOLDER~1\AppData\Local\Temp\ccgE0nth.s:29573  .debug_str:0000000000029f92 .LASF4458
C:\Users\SOLDER~1\AppData\Local\Temp\ccgE0nth.s:28459  .debug_str:0000000000025607 .LASF4459
C:\Users\SOLDER~1\AppData\Local\Temp\ccgE0nth.s:29499  .debug_str:0000000000029a82 .LASF4460
C:\Users\SOLDER~1\AppData\Local\Temp\ccgE0nth.s:23591  .debug_str:0000000000011a80 .LASF4461
C:\Users\SOLDER~1\AppData\Local\Temp\ccgE0nth.s:24913  .debug_str:000000000001703a .LASF4462
C:\Users\SOLDER~1\AppData\Local\Temp\ccgE0nth.s:25727  .debug_str:000000000001a4db .LASF4463
C:\Users\SOLDER~1\AppData\Local\Temp\ccgE0nth.s:28043  .debug_str:0000000000023ac8 .LASF4464
C:\Users\SOLDER~1\AppData\Local\Temp\ccgE0nth.s:26093  .debug_str:000000000001bc15 .LASF4465
C:\Users\SOLDER~1\AppData\Local\Temp\ccgE0nth.s:25701  .debug_str:000000000001a30d .LASF4466
C:\Users\SOLDER~1\AppData\Local\Temp\ccgE0nth.s:25407  .debug_str:00000000000190a5 .LASF4467
C:\Users\SOLDER~1\AppData\Local\Temp\ccgE0nth.s:26271  .debug_str:000000000001c80a .LASF4468
C:\Users\SOLDER~1\AppData\Local\Temp\ccgE0nth.s:24831  .debug_str:0000000000016b1c .LASF4469
C:\Users\SOLDER~1\AppData\Local\Temp\ccgE0nth.s:29215  .debug_str:0000000000028870 .LASF4470
C:\Users\SOLDER~1\AppData\Local\Temp\ccgE0nth.s:29983  .debug_str:000000000002ba03 .LASF4471
C:\Users\SOLDER~1\AppData\Local\Temp\ccgE0nth.s:20451  .debug_str:0000000000004db3 .LASF4472
C:\Users\SOLDER~1\AppData\Local\Temp\ccgE0nth.s:30377  .debug_str:000000000002d3e4 .LASF4473
C:\Users\SOLDER~1\AppData\Local\Temp\ccgE0nth.s:23225  .debug_str:00000000000102b3 .LASF4474
C:\Users\SOLDER~1\AppData\Local\Temp\ccgE0nth.s:29661  .debug_str:000000000002a51f .LASF4475
C:\Users\SOLDER~1\AppData\Local\Temp\ccgE0nth.s:24993  .debug_str:00000000000175a8 .LASF4476
C:\Users\SOLDER~1\AppData\Local\Temp\ccgE0nth.s:26557  .debug_str:000000000001daaf .LASF4477
C:\Users\SOLDER~1\AppData\Local\Temp\ccgE0nth.s:28865  .debug_str:0000000000027178 .LASF4478
C:\Users\SOLDER~1\AppData\Local\Temp\ccgE0nth.s:27581  .debug_str:0000000000021d28 .LASF4479
C:\Users\SOLDER~1\AppData\Local\Temp\ccgE0nth.s:27511  .debug_str:0000000000021880 .LASF4480
C:\Users\SOLDER~1\AppData\Local\Temp\ccgE0nth.s:23551  .debug_str:00000000000117cd .LASF4481
C:\Users\SOLDER~1\AppData\Local\Temp\ccgE0nth.s:30543  .debug_str:000000000002de75 .LASF4482
C:\Users\SOLDER~1\AppData\Local\Temp\ccgE0nth.s:21799  .debug_str:000000000000a5ae .LASF4483
C:\Users\SOLDER~1\AppData\Local\Temp\ccgE0nth.s:29557  .debug_str:0000000000029e75 .LASF4484
C:\Users\SOLDER~1\AppData\Local\Temp\ccgE0nth.s:20933  .debug_str:0000000000006cda .LASF4485
C:\Users\SOLDER~1\AppData\Local\Temp\ccgE0nth.s:26011  .debug_str:000000000001b6fd .LASF4486
C:\Users\SOLDER~1\AppData\Local\Temp\ccgE0nth.s:30325  .debug_str:000000000002d060 .LASF4487
C:\Users\SOLDER~1\AppData\Local\Temp\ccgE0nth.s:29889  .debug_str:000000000002b3f2 .LASF4488
C:\Users\SOLDER~1\AppData\Local\Temp\ccgE0nth.s:25909  .debug_str:000000000001b08d .LASF4489
C:\Users\SOLDER~1\AppData\Local\Temp\ccgE0nth.s:24047  .debug_str:00000000000137e5 .LASF4490
C:\Users\SOLDER~1\AppData\Local\Temp\ccgE0nth.s:24625  .debug_str:0000000000015e33 .LASF4491
C:\Users\SOLDER~1\AppData\Local\Temp\ccgE0nth.s:23803  .debug_str:00000000000127d8 .LASF4492
C:\Users\SOLDER~1\AppData\Local\Temp\ccgE0nth.s:29739  .debug_str:000000000002a9f3 .LASF4493
GAS LISTING C:\Users\SOLDER~1\AppData\Local\Temp\ccgE0nth.s 			page 106


C:\Users\SOLDER~1\AppData\Local\Temp\ccgE0nth.s:24925  .debug_str:00000000000170f6 .LASF4494
C:\Users\SOLDER~1\AppData\Local\Temp\ccgE0nth.s:28485  .debug_str:00000000000257c0 .LASF4495
C:\Users\SOLDER~1\AppData\Local\Temp\ccgE0nth.s:25055  .debug_str:000000000001798f .LASF4496
C:\Users\SOLDER~1\AppData\Local\Temp\ccgE0nth.s:27233  .debug_str:000000000002068d .LASF4497
C:\Users\SOLDER~1\AppData\Local\Temp\ccgE0nth.s:30407  .debug_str:000000000002d587 .LASF4498
C:\Users\SOLDER~1\AppData\Local\Temp\ccgE0nth.s:24325  .debug_str:0000000000014b38 .LASF4499
C:\Users\SOLDER~1\AppData\Local\Temp\ccgE0nth.s:25461  .debug_str:000000000001940d .LASF4500
C:\Users\SOLDER~1\AppData\Local\Temp\ccgE0nth.s:26633  .debug_str:000000000001dfc3 .LASF4501
C:\Users\SOLDER~1\AppData\Local\Temp\ccgE0nth.s:27731  .debug_str:0000000000022640 .LASF4502
C:\Users\SOLDER~1\AppData\Local\Temp\ccgE0nth.s:26165  .debug_str:000000000001c0ed .LASF4503
C:\Users\SOLDER~1\AppData\Local\Temp\ccgE0nth.s:28959  .debug_str:00000000000277a6 .LASF4504
C:\Users\SOLDER~1\AppData\Local\Temp\ccgE0nth.s:27773  .debug_str:000000000002290b .LASF4505
C:\Users\SOLDER~1\AppData\Local\Temp\ccgE0nth.s:19673  .debug_str:0000000000001b97 .LASF4506
C:\Users\SOLDER~1\AppData\Local\Temp\ccgE0nth.s:28515  .debug_str:00000000000259f8 .LASF4507
C:\Users\SOLDER~1\AppData\Local\Temp\ccgE0nth.s:20841  .debug_str:00000000000066c3 .LASF4508
C:\Users\SOLDER~1\AppData\Local\Temp\ccgE0nth.s:23505  .debug_str:00000000000114a8 .LASF4509
C:\Users\SOLDER~1\AppData\Local\Temp\ccgE0nth.s:25977  .debug_str:000000000001b4ed .LASF4510
C:\Users\SOLDER~1\AppData\Local\Temp\ccgE0nth.s:20207  .debug_str:0000000000003e48 .LASF4511
C:\Users\SOLDER~1\AppData\Local\Temp\ccgE0nth.s:27507  .debug_str:0000000000021849 .LASF4512
C:\Users\SOLDER~1\AppData\Local\Temp\ccgE0nth.s:27589  .debug_str:0000000000021d99 .LASF4513
C:\Users\SOLDER~1\AppData\Local\Temp\ccgE0nth.s:27087  .debug_str:000000000001fd70 .LASF4514
C:\Users\SOLDER~1\AppData\Local\Temp\ccgE0nth.s:21657  .debug_str:0000000000009c5b .LASF4515
C:\Users\SOLDER~1\AppData\Local\Temp\ccgE0nth.s:24483  .debug_str:0000000000015583 .LASF4516
C:\Users\SOLDER~1\AppData\Local\Temp\ccgE0nth.s:26943  .debug_str:000000000001f41a .LASF4517
C:\Users\SOLDER~1\AppData\Local\Temp\ccgE0nth.s:30765  .debug_str:000000000002ec85 .LASF4518
C:\Users\SOLDER~1\AppData\Local\Temp\ccgE0nth.s:26685  .debug_str:000000000001e313 .LASF4519
C:\Users\SOLDER~1\AppData\Local\Temp\ccgE0nth.s:19541  .debug_str:000000000000131c .LASF4520
C:\Users\SOLDER~1\AppData\Local\Temp\ccgE0nth.s:26051  .debug_str:000000000001b95f .LASF4521
C:\Users\SOLDER~1\AppData\Local\Temp\ccgE0nth.s:22377  .debug_str:000000000000cbc0 .LASF4522
C:\Users\SOLDER~1\AppData\Local\Temp\ccgE0nth.s:28395  .debug_str:00000000000251ef .LASF4523
C:\Users\SOLDER~1\AppData\Local\Temp\ccgE0nth.s:22567  .debug_str:000000000000d857 .LASF4524
C:\Users\SOLDER~1\AppData\Local\Temp\ccgE0nth.s:29959  .debug_str:000000000002b879 .LASF4525
C:\Users\SOLDER~1\AppData\Local\Temp\ccgE0nth.s:25389  .debug_str:0000000000018f6e .LASF4526
C:\Users\SOLDER~1\AppData\Local\Temp\ccgE0nth.s:24415  .debug_str:00000000000150df .LASF4527
C:\Users\SOLDER~1\AppData\Local\Temp\ccgE0nth.s:28343  .debug_str:0000000000024ead .LASF4528
C:\Users\SOLDER~1\AppData\Local\Temp\ccgE0nth.s:29829  .debug_str:000000000002afd1 .LASF4529
C:\Users\SOLDER~1\AppData\Local\Temp\ccgE0nth.s:22063  .debug_str:000000000000b727 .LASF4530
C:\Users\SOLDER~1\AppData\Local\Temp\ccgE0nth.s:28279  .debug_str:0000000000024a5b .LASF4531
C:\Users\SOLDER~1\AppData\Local\Temp\ccgE0nth.s:27921  .debug_str:00000000000232d6 .LASF4532
C:\Users\SOLDER~1\AppData\Local\Temp\ccgE0nth.s:26409  .debug_str:000000000001d159 .LASF4533
C:\Users\SOLDER~1\AppData\Local\Temp\ccgE0nth.s:28585  .debug_str:0000000000025eb6 .LASF4534
C:\Users\SOLDER~1\AppData\Local\Temp\ccgE0nth.s:30045  .debug_str:000000000002bdfd .LASF4535
C:\Users\SOLDER~1\AppData\Local\Temp\ccgE0nth.s:24737  .debug_str:000000000001654a .LASF4536
C:\Users\SOLDER~1\AppData\Local\Temp\ccgE0nth.s:20401  .debug_str:0000000000004a7c .LASF4537
C:\Users\SOLDER~1\AppData\Local\Temp\ccgE0nth.s:22983  .debug_str:000000000000f2af .LASF4538
C:\Users\SOLDER~1\AppData\Local\Temp\ccgE0nth.s:23977  .debug_str:0000000000013317 .LASF4539
C:\Users\SOLDER~1\AppData\Local\Temp\ccgE0nth.s:26269  .debug_str:000000000001c7cf .LASF4540
C:\Users\SOLDER~1\AppData\Local\Temp\ccgE0nth.s:26237  .debug_str:000000000001c5b7 .LASF4541
C:\Users\SOLDER~1\AppData\Local\Temp\ccgE0nth.s:24193  .debug_str:000000000001421e .LASF4542
C:\Users\SOLDER~1\AppData\Local\Temp\ccgE0nth.s:30099  .debug_str:000000000002c1d7 .LASF4543
C:\Users\SOLDER~1\AppData\Local\Temp\ccgE0nth.s:30071  .debug_str:000000000002bfd3 .LASF4544
C:\Users\SOLDER~1\AppData\Local\Temp\ccgE0nth.s:28283  .debug_str:0000000000024ab7 .LASF4545
C:\Users\SOLDER~1\AppData\Local\Temp\ccgE0nth.s:22711  .debug_str:000000000000e1ac .LASF4546
C:\Users\SOLDER~1\AppData\Local\Temp\ccgE0nth.s:20845  .debug_str:0000000000006721 .LASF4547
C:\Users\SOLDER~1\AppData\Local\Temp\ccgE0nth.s:20903  .debug_str:0000000000006b0f .LASF4548
C:\Users\SOLDER~1\AppData\Local\Temp\ccgE0nth.s:23951  .debug_str:000000000001314d .LASF4549
C:\Users\SOLDER~1\AppData\Local\Temp\ccgE0nth.s:25721  .debug_str:000000000001a483 .LASF4550
GAS LISTING C:\Users\SOLDER~1\AppData\Local\Temp\ccgE0nth.s 			page 107


C:\Users\SOLDER~1\AppData\Local\Temp\ccgE0nth.s:26135  .debug_str:000000000001bf13 .LASF4551
C:\Users\SOLDER~1\AppData\Local\Temp\ccgE0nth.s:25249  .debug_str:0000000000018665 .LASF4552
C:\Users\SOLDER~1\AppData\Local\Temp\ccgE0nth.s:29423  .debug_str:00000000000295d7 .LASF4553
C:\Users\SOLDER~1\AppData\Local\Temp\ccgE0nth.s:19271  .debug_str:000000000000010c .LASF4554
C:\Users\SOLDER~1\AppData\Local\Temp\ccgE0nth.s:27567  .debug_str:0000000000021c2e .LASF4555
C:\Users\SOLDER~1\AppData\Local\Temp\ccgE0nth.s:27309  .debug_str:0000000000020b9e .LASF4556
C:\Users\SOLDER~1\AppData\Local\Temp\ccgE0nth.s:25227  .debug_str:00000000000184fd .LASF4557
C:\Users\SOLDER~1\AppData\Local\Temp\ccgE0nth.s:29939  .debug_str:000000000002b73a .LASF4558
C:\Users\SOLDER~1\AppData\Local\Temp\ccgE0nth.s:23199  .debug_str:0000000000010124 .LASF4559
C:\Users\SOLDER~1\AppData\Local\Temp\ccgE0nth.s:23291  .debug_str:00000000000106f9 .LASF4560
C:\Users\SOLDER~1\AppData\Local\Temp\ccgE0nth.s:23393  .debug_str:0000000000010d7b .LASF4561
C:\Users\SOLDER~1\AppData\Local\Temp\ccgE0nth.s:23541  .debug_str:0000000000011753 .LASF4562
C:\Users\SOLDER~1\AppData\Local\Temp\ccgE0nth.s:23265  .debug_str:0000000000010587 .LASF4563
C:\Users\SOLDER~1\AppData\Local\Temp\ccgE0nth.s:21699  .debug_str:0000000000009f17 .LASF4564
C:\Users\SOLDER~1\AppData\Local\Temp\ccgE0nth.s:21069  .debug_str:00000000000075f5 .LASF4565
C:\Users\SOLDER~1\AppData\Local\Temp\ccgE0nth.s:20357  .debug_str:00000000000047bb .LASF4566
C:\Users\SOLDER~1\AppData\Local\Temp\ccgE0nth.s:23711  .debug_str:00000000000121eb .LASF4567
C:\Users\SOLDER~1\AppData\Local\Temp\ccgE0nth.s:28915  .debug_str:00000000000274dc .LASF4568
C:\Users\SOLDER~1\AppData\Local\Temp\ccgE0nth.s:24701  .debug_str:0000000000016304 .LASF4569
C:\Users\SOLDER~1\AppData\Local\Temp\ccgE0nth.s:26389  .debug_str:000000000001cfe6 .LASF4570
C:\Users\SOLDER~1\AppData\Local\Temp\ccgE0nth.s:26577  .debug_str:000000000001dc0e .LASF4571
C:\Users\SOLDER~1\AppData\Local\Temp\ccgE0nth.s:23431  .debug_str:0000000000010ffb .LASF4572
C:\Users\SOLDER~1\AppData\Local\Temp\ccgE0nth.s:25019  .debug_str:000000000001775a .LASF4573
C:\Users\SOLDER~1\AppData\Local\Temp\ccgE0nth.s:29943  .debug_str:000000000002b787 .LASF4574
C:\Users\SOLDER~1\AppData\Local\Temp\ccgE0nth.s:26569  .debug_str:000000000001db80 .LASF4575
C:\Users\SOLDER~1\AppData\Local\Temp\ccgE0nth.s:19821  .debug_str:000000000000257f .LASF4576
C:\Users\SOLDER~1\AppData\Local\Temp\ccgE0nth.s:21899  .debug_str:000000000000ac98 .LASF4577
C:\Users\SOLDER~1\AppData\Local\Temp\ccgE0nth.s:21855  .debug_str:000000000000a9ab .LASF4578
C:\Users\SOLDER~1\AppData\Local\Temp\ccgE0nth.s:26149  .debug_str:000000000001bfee .LASF4579
C:\Users\SOLDER~1\AppData\Local\Temp\ccgE0nth.s:23341  .debug_str:0000000000010a55 .LASF4580
C:\Users\SOLDER~1\AppData\Local\Temp\ccgE0nth.s:26065  .debug_str:000000000001ba6a .LASF4581
C:\Users\SOLDER~1\AppData\Local\Temp\ccgE0nth.s:28969  .debug_str:0000000000027851 .LASF4582
C:\Users\SOLDER~1\AppData\Local\Temp\ccgE0nth.s:22217  .debug_str:000000000000c095 .LASF4583
C:\Users\SOLDER~1\AppData\Local\Temp\ccgE0nth.s:21091  .debug_str:0000000000007749 .LASF4584
C:\Users\SOLDER~1\AppData\Local\Temp\ccgE0nth.s:25087  .debug_str:0000000000017ba8 .LASF4585
C:\Users\SOLDER~1\AppData\Local\Temp\ccgE0nth.s:25999  .debug_str:000000000001b64f .LASF4586
C:\Users\SOLDER~1\AppData\Local\Temp\ccgE0nth.s:20617  .debug_str:00000000000057e3 .LASF4587
C:\Users\SOLDER~1\AppData\Local\Temp\ccgE0nth.s:21189  .debug_str:0000000000007da6 .LASF4588
C:\Users\SOLDER~1\AppData\Local\Temp\ccgE0nth.s:21391  .debug_str:0000000000008ab6 .LASF4589
C:\Users\SOLDER~1\AppData\Local\Temp\ccgE0nth.s:26717  .debug_str:000000000001e516 .LASF4590
C:\Users\SOLDER~1\AppData\Local\Temp\ccgE0nth.s:30245  .debug_str:000000000002cae8 .LASF4591
C:\Users\SOLDER~1\AppData\Local\Temp\ccgE0nth.s:21109  .debug_str:0000000000007833 .LASF4594
C:\Users\SOLDER~1\AppData\Local\Temp\ccgE0nth.s:25763  .debug_str:000000000001a71f .LASF4595
C:\Users\SOLDER~1\AppData\Local\Temp\ccgE0nth.s:24071  .debug_str:000000000001399e .LASF4596
C:\Users\SOLDER~1\AppData\Local\Temp\ccgE0nth.s:25845  .debug_str:000000000001ac87 .LASF4597
C:\Users\SOLDER~1\AppData\Local\Temp\ccgE0nth.s:27519  .debug_str:0000000000021906 .LASF4598
C:\Users\SOLDER~1\AppData\Local\Temp\ccgE0nth.s:24469  .debug_str:0000000000015481 .LASF4599
C:\Users\SOLDER~1\AppData\Local\Temp\ccgE0nth.s:29851  .debug_str:000000000002b197 .LASF4600
C:\Users\SOLDER~1\AppData\Local\Temp\ccgE0nth.s:24813  .debug_str:00000000000169e7 .LASF4601
C:\Users\SOLDER~1\AppData\Local\Temp\ccgE0nth.s:22415  .debug_str:000000000000ce37 .LASF4602
C:\Users\SOLDER~1\AppData\Local\Temp\ccgE0nth.s:24195  .debug_str:0000000000014258 .LASF4603
C:\Users\SOLDER~1\AppData\Local\Temp\ccgE0nth.s:23065  .debug_str:000000000000f7fb .LASF4604
C:\Users\SOLDER~1\AppData\Local\Temp\ccgE0nth.s:29567  .debug_str:0000000000029f0e .LASF4605
C:\Users\SOLDER~1\AppData\Local\Temp\ccgE0nth.s:30673  .debug_str:000000000002e687 .LASF4606
C:\Users\SOLDER~1\AppData\Local\Temp\ccgE0nth.s:28053  .debug_str:0000000000023b65 .LASF4607
C:\Users\SOLDER~1\AppData\Local\Temp\ccgE0nth.s:21789  .debug_str:000000000000a508 .LASF4608
C:\Users\SOLDER~1\AppData\Local\Temp\ccgE0nth.s:23963  .debug_str:00000000000131ff .LASF4609
GAS LISTING C:\Users\SOLDER~1\AppData\Local\Temp\ccgE0nth.s 			page 108


C:\Users\SOLDER~1\AppData\Local\Temp\ccgE0nth.s:28037  .debug_str:0000000000023a4b .LASF4610
C:\Users\SOLDER~1\AppData\Local\Temp\ccgE0nth.s:20965  .debug_str:0000000000006f07 .LASF4611
C:\Users\SOLDER~1\AppData\Local\Temp\ccgE0nth.s:26965  .debug_str:000000000001f5bc .LASF4612
C:\Users\SOLDER~1\AppData\Local\Temp\ccgE0nth.s:20193  .debug_str:0000000000003d55 .LASF4613
C:\Users\SOLDER~1\AppData\Local\Temp\ccgE0nth.s:28689  .debug_str:00000000000265cc .LASF4614
C:\Users\SOLDER~1\AppData\Local\Temp\ccgE0nth.s:21381  .debug_str:0000000000008a08 .LASF4615
C:\Users\SOLDER~1\AppData\Local\Temp\ccgE0nth.s:28743  .debug_str:0000000000026976 .LASF4616
C:\Users\SOLDER~1\AppData\Local\Temp\ccgE0nth.s:20973  .debug_str:0000000000006fb3 .LASF4617
C:\Users\SOLDER~1\AppData\Local\Temp\ccgE0nth.s:19931  .debug_str:0000000000002c5c .LASF4618
C:\Users\SOLDER~1\AppData\Local\Temp\ccgE0nth.s:22003  .debug_str:000000000000b311 .LASF4619
C:\Users\SOLDER~1\AppData\Local\Temp\ccgE0nth.s:22125  .debug_str:000000000000ba9d .LASF4620
C:\Users\SOLDER~1\AppData\Local\Temp\ccgE0nth.s:28187  .debug_str:000000000002444d .LASF4621
C:\Users\SOLDER~1\AppData\Local\Temp\ccgE0nth.s:29311  .debug_str:0000000000028e5f .LASF4622
C:\Users\SOLDER~1\AppData\Local\Temp\ccgE0nth.s:25171  .debug_str:000000000001817c .LASF4623
C:\Users\SOLDER~1\AppData\Local\Temp\ccgE0nth.s:23195  .debug_str:00000000000100f4 .LASF4624
C:\Users\SOLDER~1\AppData\Local\Temp\ccgE0nth.s:29727  .debug_str:000000000002a92b .LASF4625
C:\Users\SOLDER~1\AppData\Local\Temp\ccgE0nth.s:24849  .debug_str:0000000000016c40 .LASF4626
C:\Users\SOLDER~1\AppData\Local\Temp\ccgE0nth.s:26811  .debug_str:000000000001eb7b .LASF4627
C:\Users\SOLDER~1\AppData\Local\Temp\ccgE0nth.s:24171  .debug_str:00000000000140ba .LASF4628
C:\Users\SOLDER~1\AppData\Local\Temp\ccgE0nth.s:21571  .debug_str:00000000000096ee .LASF4629
C:\Users\SOLDER~1\AppData\Local\Temp\ccgE0nth.s:26701  .debug_str:000000000001e3ff .LASF4630
C:\Users\SOLDER~1\AppData\Local\Temp\ccgE0nth.s:27685  .debug_str:0000000000022352 .LASF4631
C:\Users\SOLDER~1\AppData\Local\Temp\ccgE0nth.s:26513  .debug_str:000000000001d810 .LASF4632
C:\Users\SOLDER~1\AppData\Local\Temp\ccgE0nth.s:30361  .debug_str:000000000002d2cd .LASF4633
C:\Users\SOLDER~1\AppData\Local\Temp\ccgE0nth.s:27651  .debug_str:0000000000022170 .LASF4634
C:\Users\SOLDER~1\AppData\Local\Temp\ccgE0nth.s:19275  .debug_str:0000000000000130 .LASF4635
C:\Users\SOLDER~1\AppData\Local\Temp\ccgE0nth.s:24955  .debug_str:0000000000017316 .LASF4636
C:\Users\SOLDER~1\AppData\Local\Temp\ccgE0nth.s:24041  .debug_str:0000000000013776 .LASF4637
C:\Users\SOLDER~1\AppData\Local\Temp\ccgE0nth.s:24017  .debug_str:00000000000135c0 .LASF4638
C:\Users\SOLDER~1\AppData\Local\Temp\ccgE0nth.s:24019  .debug_str:00000000000135f1 .LASF4639
C:\Users\SOLDER~1\AppData\Local\Temp\ccgE0nth.s:29561  .debug_str:0000000000029ea3 .LASF4640
C:\Users\SOLDER~1\AppData\Local\Temp\ccgE0nth.s:22323  .debug_str:000000000000c7e4 .LASF4641
C:\Users\SOLDER~1\AppData\Local\Temp\ccgE0nth.s:30787  .debug_str:000000000002ede3 .LASF4642
C:\Users\SOLDER~1\AppData\Local\Temp\ccgE0nth.s:27639  .debug_str:00000000000220b7 .LASF4643
C:\Users\SOLDER~1\AppData\Local\Temp\ccgE0nth.s:22547  .debug_str:000000000000d6f8 .LASF4644
C:\Users\SOLDER~1\AppData\Local\Temp\ccgE0nth.s:26619  .debug_str:000000000001df06 .LASF4645
C:\Users\SOLDER~1\AppData\Local\Temp\ccgE0nth.s:22579  .debug_str:000000000000d91a .LASF4646
C:\Users\SOLDER~1\AppData\Local\Temp\ccgE0nth.s:26071  .debug_str:000000000001bac4 .LASF4647
C:\Users\SOLDER~1\AppData\Local\Temp\ccgE0nth.s:23155  .debug_str:000000000000fe6a .LASF4648
C:\Users\SOLDER~1\AppData\Local\Temp\ccgE0nth.s:22419  .debug_str:000000000000ce8b .LASF4649
C:\Users\SOLDER~1\AppData\Local\Temp\ccgE0nth.s:19707  .debug_str:0000000000001df2 .LASF4650
C:\Users\SOLDER~1\AppData\Local\Temp\ccgE0nth.s:22451  .debug_str:000000000000d081 .LASF4651
C:\Users\SOLDER~1\AppData\Local\Temp\ccgE0nth.s:25707  .debug_str:000000000001a36c .LASF4652
C:\Users\SOLDER~1\AppData\Local\Temp\ccgE0nth.s:27923  .debug_str:0000000000023310 .LASF4653
C:\Users\SOLDER~1\AppData\Local\Temp\ccgE0nth.s:24087  .debug_str:0000000000013ad0 .LASF4654
C:\Users\SOLDER~1\AppData\Local\Temp\ccgE0nth.s:21285  .debug_str:00000000000083ec .LASF4655
C:\Users\SOLDER~1\AppData\Local\Temp\ccgE0nth.s:26147  .debug_str:000000000001bfb6 .LASF4656
C:\Users\SOLDER~1\AppData\Local\Temp\ccgE0nth.s:23125  .debug_str:000000000000fc48 .LASF4657
C:\Users\SOLDER~1\AppData\Local\Temp\ccgE0nth.s:21681  .debug_str:0000000000009dbc .LASF4658
C:\Users\SOLDER~1\AppData\Local\Temp\ccgE0nth.s:22395  .debug_str:000000000000ccde .LASF4659
C:\Users\SOLDER~1\AppData\Local\Temp\ccgE0nth.s:29523  .debug_str:0000000000029c0e .LASF4660
C:\Users\SOLDER~1\AppData\Local\Temp\ccgE0nth.s:26303  .debug_str:000000000001ca27 .LASF4661
C:\Users\SOLDER~1\AppData\Local\Temp\ccgE0nth.s:25627  .debug_str:0000000000019e62 .LASF4662
C:\Users\SOLDER~1\AppData\Local\Temp\ccgE0nth.s:19263  .debug_str:000000000000006c .LASF4663
C:\Users\SOLDER~1\AppData\Local\Temp\ccgE0nth.s:23633  .debug_str:0000000000011d1b .LASF4664
C:\Users\SOLDER~1\AppData\Local\Temp\ccgE0nth.s:25491  .debug_str:0000000000019624 .LASF4665
C:\Users\SOLDER~1\AppData\Local\Temp\ccgE0nth.s:30085  .debug_str:000000000002c0ee .LASF4666
GAS LISTING C:\Users\SOLDER~1\AppData\Local\Temp\ccgE0nth.s 			page 109


C:\Users\SOLDER~1\AppData\Local\Temp\ccgE0nth.s:19555  .debug_str:0000000000001414 .LASF4667
C:\Users\SOLDER~1\AppData\Local\Temp\ccgE0nth.s:19347  .debug_str:00000000000005dd .LASF4668
C:\Users\SOLDER~1\AppData\Local\Temp\ccgE0nth.s:20863  .debug_str:0000000000006877 .LASF4669
C:\Users\SOLDER~1\AppData\Local\Temp\ccgE0nth.s:22721  .debug_str:000000000000e26f .LASF4670
C:\Users\SOLDER~1\AppData\Local\Temp\ccgE0nth.s:19687  .debug_str:0000000000001c95 .LASF4671
C:\Users\SOLDER~1\AppData\Local\Temp\ccgE0nth.s:19591  .debug_str:0000000000001665 .LASF4672
C:\Users\SOLDER~1\AppData\Local\Temp\ccgE0nth.s:26963  .debug_str:000000000001f57b .LASF4673
C:\Users\SOLDER~1\AppData\Local\Temp\ccgE0nth.s:24707  .debug_str:000000000001635b .LASF4674
C:\Users\SOLDER~1\AppData\Local\Temp\ccgE0nth.s:20359  .debug_str:00000000000047ce .LASF4675
C:\Users\SOLDER~1\AppData\Local\Temp\ccgE0nth.s:23777  .debug_str:0000000000012622 .LASF4676
C:\Users\SOLDER~1\AppData\Local\Temp\ccgE0nth.s:23101  .debug_str:000000000000fa9c .LASF4677
C:\Users\SOLDER~1\AppData\Local\Temp\ccgE0nth.s:21237  .debug_str:00000000000080ca .LASF4678
C:\Users\SOLDER~1\AppData\Local\Temp\ccgE0nth.s:28231  .debug_str:000000000002474d .LASF4679
C:\Users\SOLDER~1\AppData\Local\Temp\ccgE0nth.s:23983  .debug_str:0000000000013390 .LASF4680
C:\Users\SOLDER~1\AppData\Local\Temp\ccgE0nth.s:19947  .debug_str:0000000000002d78 .LASF4681
C:\Users\SOLDER~1\AppData\Local\Temp\ccgE0nth.s:20869  .debug_str:0000000000006903 .LASF4682
C:\Users\SOLDER~1\AppData\Local\Temp\ccgE0nth.s:19653  .debug_str:0000000000001a4d .LASF4683
C:\Users\SOLDER~1\AppData\Local\Temp\ccgE0nth.s:22291  .debug_str:000000000000c5b2 .LASF4684
C:\Users\SOLDER~1\AppData\Local\Temp\ccgE0nth.s:29519  .debug_str:0000000000029bd0 .LASF4685
C:\Users\SOLDER~1\AppData\Local\Temp\ccgE0nth.s:28989  .debug_str:000000000002798c .LASF4686
C:\Users\SOLDER~1\AppData\Local\Temp\ccgE0nth.s:26457  .debug_str:000000000001d4a9 .LASF4687
C:\Users\SOLDER~1\AppData\Local\Temp\ccgE0nth.s:29053  .debug_str:0000000000027dde .LASF4688
C:\Users\SOLDER~1\AppData\Local\Temp\ccgE0nth.s:27049  .debug_str:000000000001fb25 .LASF4689
C:\Users\SOLDER~1\AppData\Local\Temp\ccgE0nth.s:28513  .debug_str:00000000000259c6 .LASF4690
C:\Users\SOLDER~1\AppData\Local\Temp\ccgE0nth.s:19531  .debug_str:0000000000001285 .LASF4691
C:\Users\SOLDER~1\AppData\Local\Temp\ccgE0nth.s:26903  .debug_str:000000000001f176 .LASF4692
C:\Users\SOLDER~1\AppData\Local\Temp\ccgE0nth.s:27763  .debug_str:0000000000022865 .LASF4693
C:\Users\SOLDER~1\AppData\Local\Temp\ccgE0nth.s:29315  .debug_str:0000000000028e94 .LASF4694
C:\Users\SOLDER~1\AppData\Local\Temp\ccgE0nth.s:26497  .debug_str:000000000001d708 .LASF4695
C:\Users\SOLDER~1\AppData\Local\Temp\ccgE0nth.s:19629  .debug_str:00000000000018a6 .LASF4696
C:\Users\SOLDER~1\AppData\Local\Temp\ccgE0nth.s:24327  .debug_str:0000000000014b6f .LASF4697
C:\Users\SOLDER~1\AppData\Local\Temp\ccgE0nth.s:21139  .debug_str:0000000000007a48 .LASF4698
C:\Users\SOLDER~1\AppData\Local\Temp\ccgE0nth.s:29819  .debug_str:000000000002af26 .LASF4699
C:\Users\SOLDER~1\AppData\Local\Temp\ccgE0nth.s:26323  .debug_str:000000000001cbae .LASF4700
C:\Users\SOLDER~1\AppData\Local\Temp\ccgE0nth.s:21625  .debug_str:0000000000009a68 .LASF4701
C:\Users\SOLDER~1\AppData\Local\Temp\ccgE0nth.s:19937  .debug_str:0000000000002ccb .LASF4702
C:\Users\SOLDER~1\AppData\Local\Temp\ccgE0nth.s:25489  .debug_str:0000000000019608 .LASF4703
C:\Users\SOLDER~1\AppData\Local\Temp\ccgE0nth.s:28235  .debug_str:0000000000024793 .LASF4704
C:\Users\SOLDER~1\AppData\Local\Temp\ccgE0nth.s:25135  .debug_str:0000000000017eed .LASF4705
C:\Users\SOLDER~1\AppData\Local\Temp\ccgE0nth.s:24635  .debug_str:0000000000015eb1 .LASF4706
C:\Users\SOLDER~1\AppData\Local\Temp\ccgE0nth.s:23553  .debug_str:00000000000117e6 .LASF4707
C:\Users\SOLDER~1\AppData\Local\Temp\ccgE0nth.s:22067  .debug_str:000000000000b760 .LASF4708
C:\Users\SOLDER~1\AppData\Local\Temp\ccgE0nth.s:25209  .debug_str:00000000000183dd .LASF4709
C:\Users\SOLDER~1\AppData\Local\Temp\ccgE0nth.s:26207  .debug_str:000000000001c3f2 .LASF4710
C:\Users\SOLDER~1\AppData\Local\Temp\ccgE0nth.s:27175  .debug_str:0000000000020317 .LASF4711
C:\Users\SOLDER~1\AppData\Local\Temp\ccgE0nth.s:25073  .debug_str:0000000000017acf .LASF4712
C:\Users\SOLDER~1\AppData\Local\Temp\ccgE0nth.s:25861  .debug_str:000000000001adc0 .LASF4713
C:\Users\SOLDER~1\AppData\Local\Temp\ccgE0nth.s:23283  .debug_str:0000000000010690 .LASF4714
C:\Users\SOLDER~1\AppData\Local\Temp\ccgE0nth.s:30695  .debug_str:000000000002e82b .LASF4715
C:\Users\SOLDER~1\AppData\Local\Temp\ccgE0nth.s:29787  .debug_str:000000000002ad38 .LASF4716
C:\Users\SOLDER~1\AppData\Local\Temp\ccgE0nth.s:28871  .debug_str:00000000000271e2 .LASF4717
C:\Users\SOLDER~1\AppData\Local\Temp\ccgE0nth.s:29303  .debug_str:0000000000028ddc .LASF4718
C:\Users\SOLDER~1\AppData\Local\Temp\ccgE0nth.s:19995  .debug_str:00000000000030a0 .LASF4719
C:\Users\SOLDER~1\AppData\Local\Temp\ccgE0nth.s:23677  .debug_str:0000000000011fce .LASF4720
C:\Users\SOLDER~1\AppData\Local\Temp\ccgE0nth.s:25421  .debug_str:0000000000019176 .LASF4721
C:\Users\SOLDER~1\AppData\Local\Temp\ccgE0nth.s:19447  .debug_str:0000000000000d3f .LASF4722
C:\Users\SOLDER~1\AppData\Local\Temp\ccgE0nth.s:26847  .debug_str:000000000001edcc .LASF4723
GAS LISTING C:\Users\SOLDER~1\AppData\Local\Temp\ccgE0nth.s 			page 110


C:\Users\SOLDER~1\AppData\Local\Temp\ccgE0nth.s:21551  .debug_str:00000000000095c1 .LASF4724
C:\Users\SOLDER~1\AppData\Local\Temp\ccgE0nth.s:26895  .debug_str:000000000001f0f1 .LASF4725
C:\Users\SOLDER~1\AppData\Local\Temp\ccgE0nth.s:25509  .debug_str:0000000000019788 .LASF4726
C:\Users\SOLDER~1\AppData\Local\Temp\ccgE0nth.s:29119  .debug_str:0000000000028233 .LASF4727
C:\Users\SOLDER~1\AppData\Local\Temp\ccgE0nth.s:21627  .debug_str:0000000000009a83 .LASF4728
C:\Users\SOLDER~1\AppData\Local\Temp\ccgE0nth.s:28763  .debug_str:0000000000026af8 .LASF4729
C:\Users\SOLDER~1\AppData\Local\Temp\ccgE0nth.s:27743  .debug_str:0000000000022708 .LASF4730
C:\Users\SOLDER~1\AppData\Local\Temp\ccgE0nth.s:30147  .debug_str:000000000002c4d8 .LASF4731
C:\Users\SOLDER~1\AppData\Local\Temp\ccgE0nth.s:27959  .debug_str:000000000002357c .LASF4732
C:\Users\SOLDER~1\AppData\Local\Temp\ccgE0nth.s:28985  .debug_str:000000000002794b .LASF4733
C:\Users\SOLDER~1\AppData\Local\Temp\ccgE0nth.s:29435  .debug_str:000000000002968b .LASF4734
C:\Users\SOLDER~1\AppData\Local\Temp\ccgE0nth.s:22041  .debug_str:000000000000b5c6 .LASF4735
C:\Users\SOLDER~1\AppData\Local\Temp\ccgE0nth.s:20743  .debug_str:0000000000006029 .LASF4736
C:\Users\SOLDER~1\AppData\Local\Temp\ccgE0nth.s:20097  .debug_str:000000000000372b .LASF4737
C:\Users\SOLDER~1\AppData\Local\Temp\ccgE0nth.s:28911  .debug_str:0000000000027499 .LASF4738
C:\Users\SOLDER~1\AppData\Local\Temp\ccgE0nth.s:25749  .debug_str:000000000001a62a .LASF4739
C:\Users\SOLDER~1\AppData\Local\Temp\ccgE0nth.s:20157  .debug_str:0000000000003b1c .LASF4740
C:\Users\SOLDER~1\AppData\Local\Temp\ccgE0nth.s:20263  .debug_str:00000000000041d0 .LASF4741
C:\Users\SOLDER~1\AppData\Local\Temp\ccgE0nth.s:27979  .debug_str:00000000000236d3 .LASF4742
C:\Users\SOLDER~1\AppData\Local\Temp\ccgE0nth.s:28319  .debug_str:0000000000024d15 .LASF4743
C:\Users\SOLDER~1\AppData\Local\Temp\ccgE0nth.s:23909  .debug_str:0000000000012eb1 .LASF4744
C:\Users\SOLDER~1\AppData\Local\Temp\ccgE0nth.s:19685  .debug_str:0000000000001c6f .LASF4745
C:\Users\SOLDER~1\AppData\Local\Temp\ccgE0nth.s:28499  .debug_str:00000000000258d3 .LASF4746
C:\Users\SOLDER~1\AppData\Local\Temp\ccgE0nth.s:22571  .debug_str:000000000000d89a .LASF4747
C:\Users\SOLDER~1\AppData\Local\Temp\ccgE0nth.s:19527  .debug_str:000000000000124f .LASF4748
C:\Users\SOLDER~1\AppData\Local\Temp\ccgE0nth.s:27953  .debug_str:0000000000023529 .LASF4749
C:\Users\SOLDER~1\AppData\Local\Temp\ccgE0nth.s:29705  .debug_str:000000000002a7e5 .LASF4750
C:\Users\SOLDER~1\AppData\Local\Temp\ccgE0nth.s:22999  .debug_str:000000000000f3bd .LASF4751
C:\Users\SOLDER~1\AppData\Local\Temp\ccgE0nth.s:22193  .debug_str:000000000000bef5 .LASF4752
C:\Users\SOLDER~1\AppData\Local\Temp\ccgE0nth.s:28387  .debug_str:000000000002516f .LASF4753
C:\Users\SOLDER~1\AppData\Local\Temp\ccgE0nth.s:25383  .debug_str:0000000000018f08 .LASF4754
C:\Users\SOLDER~1\AppData\Local\Temp\ccgE0nth.s:19411  .debug_str:0000000000000ad5 .LASF4755
C:\Users\SOLDER~1\AppData\Local\Temp\ccgE0nth.s:30769  .debug_str:000000000002ecc2 .LASF4756
C:\Users\SOLDER~1\AppData\Local\Temp\ccgE0nth.s:27655  .debug_str:00000000000221b4 .LASF4757
C:\Users\SOLDER~1\AppData\Local\Temp\ccgE0nth.s:28127  .debug_str:000000000002404a .LASF4758
C:\Users\SOLDER~1\AppData\Local\Temp\ccgE0nth.s:20523  .debug_str:0000000000005207 .LASF4759
C:\Users\SOLDER~1\AppData\Local\Temp\ccgE0nth.s:23019  .debug_str:000000000000f520 .LASF4760
C:\Users\SOLDER~1\AppData\Local\Temp\ccgE0nth.s:28383  .debug_str:0000000000025139 .LASF4761
C:\Users\SOLDER~1\AppData\Local\Temp\ccgE0nth.s:25379  .debug_str:0000000000018ec8 .LASF4762
C:\Users\SOLDER~1\AppData\Local\Temp\ccgE0nth.s:22271  .debug_str:000000000000c449 .LASF4763
C:\Users\SOLDER~1\AppData\Local\Temp\ccgE0nth.s:23879  .debug_str:0000000000012cb6 .LASF4764
C:\Users\SOLDER~1\AppData\Local\Temp\ccgE0nth.s:21461  .debug_str:0000000000008f7f .LASF4765
C:\Users\SOLDER~1\AppData\Local\Temp\ccgE0nth.s:24649  .debug_str:0000000000015f9a .LASF4766
C:\Users\SOLDER~1\AppData\Local\Temp\ccgE0nth.s:26923  .debug_str:000000000001f2d4 .LASF4767
C:\Users\SOLDER~1\AppData\Local\Temp\ccgE0nth.s:23851  .debug_str:0000000000012aba .LASF4768
C:\Users\SOLDER~1\AppData\Local\Temp\ccgE0nth.s:30397  .debug_str:000000000002d4f7 .LASF4769
C:\Users\SOLDER~1\AppData\Local\Temp\ccgE0nth.s:26985  .debug_str:000000000001f70a .LASF4770
C:\Users\SOLDER~1\AppData\Local\Temp\ccgE0nth.s:23031  .debug_str:000000000000f5da .LASF4771
C:\Users\SOLDER~1\AppData\Local\Temp\ccgE0nth.s:22957  .debug_str:000000000000f123 .LASF4772
C:\Users\SOLDER~1\AppData\Local\Temp\ccgE0nth.s:20055  .debug_str:000000000000349b .LASF4773
C:\Users\SOLDER~1\AppData\Local\Temp\ccgE0nth.s:28509  .debug_str:000000000002598a .LASF4774
C:\Users\SOLDER~1\AppData\Local\Temp\ccgE0nth.s:19575  .debug_str:0000000000001572 .LASF4775
C:\Users\SOLDER~1\AppData\Local\Temp\ccgE0nth.s:20181  .debug_str:0000000000003ca0 .LASF4776
C:\Users\SOLDER~1\AppData\Local\Temp\ccgE0nth.s:26689  .debug_str:000000000001e346 .LASF4777
C:\Users\SOLDER~1\AppData\Local\Temp\ccgE0nth.s:20589  .debug_str:00000000000055f4 .LASF4778
C:\Users\SOLDER~1\AppData\Local\Temp\ccgE0nth.s:29795  .debug_str:000000000002adaf .LASF4779
C:\Users\SOLDER~1\AppData\Local\Temp\ccgE0nth.s:30059  .debug_str:000000000002beff .LASF4780
GAS LISTING C:\Users\SOLDER~1\AppData\Local\Temp\ccgE0nth.s 			page 111


C:\Users\SOLDER~1\AppData\Local\Temp\ccgE0nth.s:22795  .debug_str:000000000000e70f .LASF4781
C:\Users\SOLDER~1\AppData\Local\Temp\ccgE0nth.s:26925  .debug_str:000000000001f2f0 .LASF4782
C:\Users\SOLDER~1\AppData\Local\Temp\ccgE0nth.s:22693  .debug_str:000000000000e055 .LASF4783
C:\Users\SOLDER~1\AppData\Local\Temp\ccgE0nth.s:22107  .debug_str:000000000000b976 .LASF4784
C:\Users\SOLDER~1\AppData\Local\Temp\ccgE0nth.s:27317  .debug_str:0000000000020c23 .LASF4785
C:\Users\SOLDER~1\AppData\Local\Temp\ccgE0nth.s:19703  .debug_str:0000000000001dbe .LASF4786
C:\Users\SOLDER~1\AppData\Local\Temp\ccgE0nth.s:25829  .debug_str:000000000001ab52 .LASF4787
C:\Users\SOLDER~1\AppData\Local\Temp\ccgE0nth.s:30685  .debug_str:000000000002e764 .LASF4788
C:\Users\SOLDER~1\AppData\Local\Temp\ccgE0nth.s:21807  .debug_str:000000000000a64c .LASF4789
C:\Users\SOLDER~1\AppData\Local\Temp\ccgE0nth.s:30711  .debug_str:000000000002e93d .LASF4790
C:\Users\SOLDER~1\AppData\Local\Temp\ccgE0nth.s:20223  .debug_str:0000000000003f3c .LASF4791
C:\Users\SOLDER~1\AppData\Local\Temp\ccgE0nth.s:28833  .debug_str:0000000000026f81 .LASF4792
C:\Users\SOLDER~1\AppData\Local\Temp\ccgE0nth.s:29045  .debug_str:0000000000027d5f .LASF4793
C:\Users\SOLDER~1\AppData\Local\Temp\ccgE0nth.s:21365  .debug_str:00000000000088f7 .LASF4794
C:\Users\SOLDER~1\AppData\Local\Temp\ccgE0nth.s:21817  .debug_str:000000000000a703 .LASF4795
C:\Users\SOLDER~1\AppData\Local\Temp\ccgE0nth.s:29725  .debug_str:000000000002a904 .LASF4796
C:\Users\SOLDER~1\AppData\Local\Temp\ccgE0nth.s:24883  .debug_str:0000000000016e29 .LASF4797
C:\Users\SOLDER~1\AppData\Local\Temp\ccgE0nth.s:19733  .debug_str:0000000000001fb3 .LASF4798
C:\Users\SOLDER~1\AppData\Local\Temp\ccgE0nth.s:22197  .debug_str:000000000000bf36 .LASF4799
C:\Users\SOLDER~1\AppData\Local\Temp\ccgE0nth.s:23299  .debug_str:000000000001075e .LASF4800
C:\Users\SOLDER~1\AppData\Local\Temp\ccgE0nth.s:29393  .debug_str:00000000000293b0 .LASF4801
C:\Users\SOLDER~1\AppData\Local\Temp\ccgE0nth.s:20937  .debug_str:0000000000006d16 .LASF4802
C:\Users\SOLDER~1\AppData\Local\Temp\ccgE0nth.s:27697  .debug_str:0000000000022427 .LASF4803
C:\Users\SOLDER~1\AppData\Local\Temp\ccgE0nth.s:23113  .debug_str:000000000000fb5f .LASF4804
C:\Users\SOLDER~1\AppData\Local\Temp\ccgE0nth.s:27301  .debug_str:0000000000020b24 .LASF4805
C:\Users\SOLDER~1\AppData\Local\Temp\ccgE0nth.s:30275  .debug_str:000000000002cce0 .LASF4806
C:\Users\SOLDER~1\AppData\Local\Temp\ccgE0nth.s:20787  .debug_str:000000000000633e .LASF4807
C:\Users\SOLDER~1\AppData\Local\Temp\ccgE0nth.s:28291  .debug_str:0000000000024b5b .LASF4808
C:\Users\SOLDER~1\AppData\Local\Temp\ccgE0nth.s:21493  .debug_str:00000000000091af .LASF4809
C:\Users\SOLDER~1\AppData\Local\Temp\ccgE0nth.s:23129  .debug_str:000000000000fca6 .LASF4810
C:\Users\SOLDER~1\AppData\Local\Temp\ccgE0nth.s:25975  .debug_str:000000000001b4c8 .LASF4811
C:\Users\SOLDER~1\AppData\Local\Temp\ccgE0nth.s:30529  .debug_str:000000000002dd6e .LASF4812
C:\Users\SOLDER~1\AppData\Local\Temp\ccgE0nth.s:30753  .debug_str:000000000002ebd2 .LASF4813
C:\Users\SOLDER~1\AppData\Local\Temp\ccgE0nth.s:21307  .debug_str:0000000000008552 .LASF4814
C:\Users\SOLDER~1\AppData\Local\Temp\ccgE0nth.s:23427  .debug_str:0000000000010fa9 .LASF4815
C:\Users\SOLDER~1\AppData\Local\Temp\ccgE0nth.s:22499  .debug_str:000000000000d3cb .LASF4816
C:\Users\SOLDER~1\AppData\Local\Temp\ccgE0nth.s:21433  .debug_str:0000000000008d7e .LASF4817
C:\Users\SOLDER~1\AppData\Local\Temp\ccgE0nth.s:20065  .debug_str:0000000000003534 .LASF4818
C:\Users\SOLDER~1\AppData\Local\Temp\ccgE0nth.s:19257  .debug_str:0000000000000000 .LASF4819
C:\Users\SOLDER~1\AppData\Local\Temp\ccgE0nth.s:26787  .debug_str:000000000001e9f4 .LASF4820
C:\Users\SOLDER~1\AppData\Local\Temp\ccgE0nth.s:27447  .debug_str:0000000000021475 .LASF4821
C:\Users\SOLDER~1\AppData\Local\Temp\ccgE0nth.s:30471  .debug_str:000000000002d9ac .LASF4822
C:\Users\SOLDER~1\AppData\Local\Temp\ccgE0nth.s:21467  .debug_str:0000000000008fde .LASF4823
C:\Users\SOLDER~1\AppData\Local\Temp\ccgE0nth.s:20663  .debug_str:0000000000005b12 .LASF4824
C:\Users\SOLDER~1\AppData\Local\Temp\ccgE0nth.s:19421  .debug_str:0000000000000b82 .LASF4825
C:\Users\SOLDER~1\AppData\Local\Temp\ccgE0nth.s:27881  .debug_str:000000000002303a .LASF4826
C:\Users\SOLDER~1\AppData\Local\Temp\ccgE0nth.s:22837  .debug_str:000000000000e9d1 .LASF4827
C:\Users\SOLDER~1\AppData\Local\Temp\ccgE0nth.s:24901  .debug_str:0000000000016f5d .LASF4828
C:\Users\SOLDER~1\AppData\Local\Temp\ccgE0nth.s:21315  .debug_str:00000000000085d9 .LASF4829
C:\Users\SOLDER~1\AppData\Local\Temp\ccgE0nth.s:19849  .debug_str:0000000000002729 .LASF4830
C:\Users\SOLDER~1\AppData\Local\Temp\ccgE0nth.s:24399  .debug_str:0000000000014ff9 .LASF4831
C:\Users\SOLDER~1\AppData\Local\Temp\ccgE0nth.s:29017  .debug_str:0000000000027b50 .LASF4832
C:\Users\SOLDER~1\AppData\Local\Temp\ccgE0nth.s:24585  .debug_str:0000000000015bb3 .LASF4833
C:\Users\SOLDER~1\AppData\Local\Temp\ccgE0nth.s:20081  .debug_str:0000000000003624 .LASF4834
C:\Users\SOLDER~1\AppData\Local\Temp\ccgE0nth.s:27443  .debug_str:000000000002143b .LASF4835
C:\Users\SOLDER~1\AppData\Local\Temp\ccgE0nth.s:24247  .debug_str:000000000001460d .LASF4836
C:\Users\SOLDER~1\AppData\Local\Temp\ccgE0nth.s:21343  .debug_str:00000000000087b5 .LASF4837
GAS LISTING C:\Users\SOLDER~1\AppData\Local\Temp\ccgE0nth.s 			page 112


C:\Users\SOLDER~1\AppData\Local\Temp\ccgE0nth.s:22743  .debug_str:000000000000e3fa .LASF4838
C:\Users\SOLDER~1\AppData\Local\Temp\ccgE0nth.s:27621  .debug_str:0000000000021fa6 .LASF4839
C:\Users\SOLDER~1\AppData\Local\Temp\ccgE0nth.s:27365  .debug_str:0000000000020f29 .LASF4840
C:\Users\SOLDER~1\AppData\Local\Temp\ccgE0nth.s:25799  .debug_str:000000000001a985 .LASF4841
C:\Users\SOLDER~1\AppData\Local\Temp\ccgE0nth.s:24843  .debug_str:0000000000016be1 .LASF4842
C:\Users\SOLDER~1\AppData\Local\Temp\ccgE0nth.s:20149  .debug_str:0000000000003a92 .LASF4843
C:\Users\SOLDER~1\AppData\Local\Temp\ccgE0nth.s:24873  .debug_str:0000000000016d99 .LASF4844
C:\Users\SOLDER~1\AppData\Local\Temp\ccgE0nth.s:29369  .debug_str:0000000000029210 .LASF4845
C:\Users\SOLDER~1\AppData\Local\Temp\ccgE0nth.s:22617  .debug_str:000000000000db5b .LASF4846
C:\Users\SOLDER~1\AppData\Local\Temp\ccgE0nth.s:29149  .debug_str:000000000002842d .LASF4847
C:\Users\SOLDER~1\AppData\Local\Temp\ccgE0nth.s:27503  .debug_str:0000000000021811 .LASF4848
C:\Users\SOLDER~1\AppData\Local\Temp\ccgE0nth.s:24055  .debug_str:0000000000013853 .LASF4849
C:\Users\SOLDER~1\AppData\Local\Temp\ccgE0nth.s:27197  .debug_str:0000000000020463 .LASF4850
C:\Users\SOLDER~1\AppData\Local\Temp\ccgE0nth.s:25775  .debug_str:000000000001a80e .LASF4852
C:\Users\SOLDER~1\AppData\Local\Temp\ccgE0nth.s:27677  .debug_str:00000000000222ce .LASF4853
C:\Users\SOLDER~1\AppData\Local\Temp\ccgE0nth.s:19973  .debug_str:0000000000002f4e .LASF4854
C:\Users\SOLDER~1\AppData\Local\Temp\ccgE0nth.s:23843  .debug_str:0000000000012a16 .LASF4855
C:\Users\SOLDER~1\AppData\Local\Temp\ccgE0nth.s:22753  .debug_str:000000000000e48e .LASF4856
C:\Users\SOLDER~1\AppData\Local\Temp\ccgE0nth.s:25985  .debug_str:000000000001b552 .LASF4857
C:\Users\SOLDER~1\AppData\Local\Temp\ccgE0nth.s:21271  .debug_str:0000000000008304 .LASF4858
C:\Users\SOLDER~1\AppData\Local\Temp\ccgE0nth.s:21879  .debug_str:000000000000ab44 .LASF4859
C:\Users\SOLDER~1\AppData\Local\Temp\ccgE0nth.s:29735  .debug_str:000000000002a9b4 .LASF4860
C:\Users\SOLDER~1\AppData\Local\Temp\ccgE0nth.s:20163  .debug_str:0000000000003b87 .LASF4861
C:\Users\SOLDER~1\AppData\Local\Temp\ccgE0nth.s:28753  .debug_str:0000000000026a44 .LASF4862
C:\Users\SOLDER~1\AppData\Local\Temp\ccgE0nth.s:27461  .debug_str:0000000000021574 .LASF4863
C:\Users\SOLDER~1\AppData\Local\Temp\ccgE0nth.s:20299  .debug_str:00000000000043f8 .LASF4864
C:\Users\SOLDER~1\AppData\Local\Temp\ccgE0nth.s:27779  .debug_str:0000000000022980 .LASF4865
C:\Users\SOLDER~1\AppData\Local\Temp\ccgE0nth.s:20131  .debug_str:0000000000003966 .LASF4866
C:\Users\SOLDER~1\AppData\Local\Temp\ccgE0nth.s:20319  .debug_str:000000000000453e .LASF4867
C:\Users\SOLDER~1\AppData\Local\Temp\ccgE0nth.s:22739  .debug_str:000000000000e3ad .LASF4868
C:\Users\SOLDER~1\AppData\Local\Temp\ccgE0nth.s:29021  .debug_str:0000000000027b90 .LASF4869
C:\Users\SOLDER~1\AppData\Local\Temp\ccgE0nth.s:20343  .debug_str:00000000000046d0 .LASF4870
C:\Users\SOLDER~1\AppData\Local\Temp\ccgE0nth.s:19397  .debug_str:00000000000009dd .LASF4871
C:\Users\SOLDER~1\AppData\Local\Temp\ccgE0nth.s:26875  .debug_str:000000000001ef85 .LASF4872
C:\Users\SOLDER~1\AppData\Local\Temp\ccgE0nth.s:22097  .debug_str:000000000000b8e9 .LASF4873
C:\Users\SOLDER~1\AppData\Local\Temp\ccgE0nth.s:28435  .debug_str:0000000000025469 .LASF4874
C:\Users\SOLDER~1\AppData\Local\Temp\ccgE0nth.s:30431  .debug_str:000000000002d72a .LASF4875
C:\Users\SOLDER~1\AppData\Local\Temp\ccgE0nth.s:19839  .debug_str:0000000000002661 .LASF4876
C:\Users\SOLDER~1\AppData\Local\Temp\ccgE0nth.s:20339  .debug_str:0000000000004680 .LASF4877
C:\Users\SOLDER~1\AppData\Local\Temp\ccgE0nth.s:27327  .debug_str:0000000000020ca5 .LASF4878
C:\Users\SOLDER~1\AppData\Local\Temp\ccgE0nth.s:29489  .debug_str:00000000000299be .LASF4879
C:\Users\SOLDER~1\AppData\Local\Temp\ccgE0nth.s:29005  .debug_str:0000000000027a7d .LASF4880
C:\Users\SOLDER~1\AppData\Local\Temp\ccgE0nth.s:28827  .debug_str:0000000000026f0e .LASF4881
C:\Users\SOLDER~1\AppData\Local\Temp\ccgE0nth.s:29513  .debug_str:0000000000029b59 .LASF4882
C:\Users\SOLDER~1\AppData\Local\Temp\ccgE0nth.s:24241  .debug_str:000000000001459a .LASF4883
C:\Users\SOLDER~1\AppData\Local\Temp\ccgE0nth.s:29571  .debug_str:0000000000029f63 .LASF4884
C:\Users\SOLDER~1\AppData\Local\Temp\ccgE0nth.s:27119  .debug_str:000000000001ff82 .LASF4885
C:\Users\SOLDER~1\AppData\Local\Temp\ccgE0nth.s:28205  .debug_str:0000000000024581 .LASF4886
C:\Users\SOLDER~1\AppData\Local\Temp\ccgE0nth.s:23873  .debug_str:0000000000012c3c .LASF4887
C:\Users\SOLDER~1\AppData\Local\Temp\ccgE0nth.s:19715  .debug_str:0000000000001e6f .LASF4888
C:\Users\SOLDER~1\AppData\Local\Temp\ccgE0nth.s:20539  .debug_str:0000000000005301 .LASF4889
C:\Users\SOLDER~1\AppData\Local\Temp\ccgE0nth.s:27487  .debug_str:0000000000021717 .LASF4890
C:\Users\SOLDER~1\AppData\Local\Temp\ccgE0nth.s:28715  .debug_str:00000000000267ae .LASF4891
C:\Users\SOLDER~1\AppData\Local\Temp\ccgE0nth.s:23435  .debug_str:000000000001102c .LASF4892
C:\Users\SOLDER~1\AppData\Local\Temp\ccgE0nth.s:26611  .debug_str:000000000001de73 .LASF4893
C:\Users\SOLDER~1\AppData\Local\Temp\ccgE0nth.s:25939  .debug_str:000000000001b25c .LASF4894
C:\Users\SOLDER~1\AppData\Local\Temp\ccgE0nth.s:23307  .debug_str:00000000000107f7 .LASF4895
GAS LISTING C:\Users\SOLDER~1\AppData\Local\Temp\ccgE0nth.s 			page 113


C:\Users\SOLDER~1\AppData\Local\Temp\ccgE0nth.s:30239  .debug_str:000000000002ca8d .LASF4896
C:\Users\SOLDER~1\AppData\Local\Temp\ccgE0nth.s:28541  .debug_str:0000000000025ba4 .LASF4897
C:\Users\SOLDER~1\AppData\Local\Temp\ccgE0nth.s:22631  .debug_str:000000000000dc29 .LASF4898
C:\Users\SOLDER~1\AppData\Local\Temp\ccgE0nth.s:30493  .debug_str:000000000002db22 .LASF4899
C:\Users\SOLDER~1\AppData\Local\Temp\ccgE0nth.s:21027  .debug_str:000000000000733b .LASF4900
C:\Users\SOLDER~1\AppData\Local\Temp\ccgE0nth.s:25381  .debug_str:0000000000018ee5 .LASF4901
C:\Users\SOLDER~1\AppData\Local\Temp\ccgE0nth.s:22365  .debug_str:000000000000caee .LASF4902
C:\Users\SOLDER~1\AppData\Local\Temp\ccgE0nth.s:28527  .debug_str:0000000000025ac7 .LASF4903
C:\Users\SOLDER~1\AppData\Local\Temp\ccgE0nth.s:28913  .debug_str:00000000000274b9 .LASF4904
C:\Users\SOLDER~1\AppData\Local\Temp\ccgE0nth.s:26531  .debug_str:000000000001d8fa .LASF4905
C:\Users\SOLDER~1\AppData\Local\Temp\ccgE0nth.s:26995  .debug_str:000000000001f7b9 .LASF4906
C:\Users\SOLDER~1\AppData\Local\Temp\ccgE0nth.s:27149  .debug_str:0000000000020165 .LASF4907
C:\Users\SOLDER~1\AppData\Local\Temp\ccgE0nth.s:28313  .debug_str:0000000000024cb3 .LASF4908
C:\Users\SOLDER~1\AppData\Local\Temp\ccgE0nth.s:27681  .debug_str:0000000000022314 .LASF4909
C:\Users\SOLDER~1\AppData\Local\Temp\ccgE0nth.s:21133  .debug_str:00000000000079d6 .LASF4910
C:\Users\SOLDER~1\AppData\Local\Temp\ccgE0nth.s:22373  .debug_str:000000000000cb7b .LASF4911
C:\Users\SOLDER~1\AppData\Local\Temp\ccgE0nth.s:24619  .debug_str:0000000000015dcf .LASF4912
C:\Users\SOLDER~1\AppData\Local\Temp\ccgE0nth.s:28253  .debug_str:00000000000248c7 .LASF4913
C:\Users\SOLDER~1\AppData\Local\Temp\ccgE0nth.s:29121  .debug_str:000000000002824f .LASF4914
C:\Users\SOLDER~1\AppData\Local\Temp\ccgE0nth.s:23513  .debug_str:0000000000011552 .LASF4915
C:\Users\SOLDER~1\AppData\Local\Temp\ccgE0nth.s:19437  .debug_str:0000000000000c88 .LASF4916
C:\Users\SOLDER~1\AppData\Local\Temp\ccgE0nth.s:25809  .debug_str:000000000001aa0e .LASF4917
C:\Users\SOLDER~1\AppData\Local\Temp\ccgE0nth.s:28069  .debug_str:0000000000023c83 .LASF4918
C:\Users\SOLDER~1\AppData\Local\Temp\ccgE0nth.s:28349  .debug_str:0000000000024f0f .LASF4919
C:\Users\SOLDER~1\AppData\Local\Temp\ccgE0nth.s:24395  .debug_str:0000000000014fb1 .LASF4920
C:\Users\SOLDER~1\AppData\Local\Temp\ccgE0nth.s:28491  .debug_str:0000000000025831 .LASF4921
C:\Users\SOLDER~1\AppData\Local\Temp\ccgE0nth.s:29305  .debug_str:0000000000028df8 .LASF4922
C:\Users\SOLDER~1\AppData\Local\Temp\ccgE0nth.s:22821  .debug_str:000000000000e8d4 .LASF4923
C:\Users\SOLDER~1\AppData\Local\Temp\ccgE0nth.s:20261  .debug_str:00000000000041ad .LASF4924
C:\Users\SOLDER~1\AppData\Local\Temp\ccgE0nth.s:25953  .debug_str:000000000001b34e .LASF4925
C:\Users\SOLDER~1\AppData\Local\Temp\ccgE0nth.s:27117  .debug_str:000000000001ff5f .LASF4926
C:\Users\SOLDER~1\AppData\Local\Temp\ccgE0nth.s:23671  .debug_str:0000000000011f66 .LASF4927
C:\Users\SOLDER~1\AppData\Local\Temp\ccgE0nth.s:30653  .debug_str:000000000002e542 .LASF4928
C:\Users\SOLDER~1\AppData\Local\Temp\ccgE0nth.s:22791  .debug_str:000000000000e6d2 .LASF4929
C:\Users\SOLDER~1\AppData\Local\Temp\ccgE0nth.s:29515  .debug_str:0000000000029b88 .LASF4930
C:\Users\SOLDER~1\AppData\Local\Temp\ccgE0nth.s:30331  .debug_str:000000000002d0dd .LASF4931
C:\Users\SOLDER~1\AppData\Local\Temp\ccgE0nth.s:26373  .debug_str:000000000001cef3 .LASF4932
C:\Users\SOLDER~1\AppData\Local\Temp\ccgE0nth.s:29811  .debug_str:000000000002ae8f .LASF4933
C:\Users\SOLDER~1\AppData\Local\Temp\ccgE0nth.s:26455  .debug_str:000000000001d484 .LASF4934
C:\Users\SOLDER~1\AppData\Local\Temp\ccgE0nth.s:27093  .debug_str:000000000001fdd4 .LASF4935
C:\Users\SOLDER~1\AppData\Local\Temp\ccgE0nth.s:25393  .debug_str:0000000000018fae .LASF4936
C:\Users\SOLDER~1\AppData\Local\Temp\ccgE0nth.s:21141  .debug_str:0000000000007a63 .LASF4937
C:\Users\SOLDER~1\AppData\Local\Temp\ccgE0nth.s:23499  .debug_str:000000000001143e .LASF4938
C:\Users\SOLDER~1\AppData\Local\Temp\ccgE0nth.s:23709  .debug_str:00000000000121c6 .LASF4939
C:\Users\SOLDER~1\AppData\Local\Temp\ccgE0nth.s:24751  .debug_str:0000000000016624 .LASF4940
C:\Users\SOLDER~1\AppData\Local\Temp\ccgE0nth.s:26725  .debug_str:000000000001e5ac .LASF4941
C:\Users\SOLDER~1\AppData\Local\Temp\ccgE0nth.s:28369  .debug_str:0000000000025069 .LASF4942
C:\Users\SOLDER~1\AppData\Local\Temp\ccgE0nth.s:27801  .debug_str:0000000000022b16 .LASF4943
C:\Users\SOLDER~1\AppData\Local\Temp\ccgE0nth.s:27227  .debug_str:0000000000020630 .LASF4944
C:\Users\SOLDER~1\AppData\Local\Temp\ccgE0nth.s:27523  .debug_str:000000000002195f .LASF4945
C:\Users\SOLDER~1\AppData\Local\Temp\ccgE0nth.s:22813  .debug_str:000000000000e84c .LASF4946
C:\Users\SOLDER~1\AppData\Local\Temp\ccgE0nth.s:23867  .debug_str:0000000000012bb9 .LASF4947
C:\Users\SOLDER~1\AppData\Local\Temp\ccgE0nth.s:23745  .debug_str:0000000000012401 .LASF4948
C:\Users\SOLDER~1\AppData\Local\Temp\ccgE0nth.s:22493  .debug_str:000000000000d35f .LASF4949
C:\Users\SOLDER~1\AppData\Local\Temp\ccgE0nth.s:29219  .debug_str:0000000000028899 .LASF4950
C:\Users\SOLDER~1\AppData\Local\Temp\ccgE0nth.s:19801  .debug_str:000000000000240e .LASF4951
C:\Users\SOLDER~1\AppData\Local\Temp\ccgE0nth.s:29091  .debug_str:000000000002806e .LASF4952
GAS LISTING C:\Users\SOLDER~1\AppData\Local\Temp\ccgE0nth.s 			page 114


C:\Users\SOLDER~1\AppData\Local\Temp\ccgE0nth.s:24467  .debug_str:000000000001545c .LASF4953
C:\Users\SOLDER~1\AppData\Local\Temp\ccgE0nth.s:22101  .debug_str:000000000000b920 .LASF4954
C:\Users\SOLDER~1\AppData\Local\Temp\ccgE0nth.s:23205  .debug_str:0000000000010173 .LASF4955
C:\Users\SOLDER~1\AppData\Local\Temp\ccgE0nth.s:30385  .debug_str:000000000002d457 .LASF4956
C:\Users\SOLDER~1\AppData\Local\Temp\ccgE0nth.s:24423  .debug_str:000000000001517b .LASF4957
C:\Users\SOLDER~1\AppData\Local\Temp\ccgE0nth.s:20799  .debug_str:000000000000641e .LASF4958
C:\Users\SOLDER~1\AppData\Local\Temp\ccgE0nth.s:26515  .debug_str:000000000001d82f .LASF4959
C:\Users\SOLDER~1\AppData\Local\Temp\ccgE0nth.s:21675  .debug_str:0000000000009d63 .LASF4960
C:\Users\SOLDER~1\AppData\Local\Temp\ccgE0nth.s:25739  .debug_str:000000000001a586 .LASF4961
C:\Users\SOLDER~1\AppData\Local\Temp\ccgE0nth.s:23239  .debug_str:00000000000103b4 .LASF4962
C:\Users\SOLDER~1\AppData\Local\Temp\ccgE0nth.s:21665  .debug_str:0000000000009cbd .LASF4963
C:\Users\SOLDER~1\AppData\Local\Temp\ccgE0nth.s:24725  .debug_str:000000000001648e .LASF4964
C:\Users\SOLDER~1\AppData\Local\Temp\ccgE0nth.s:22001  .debug_str:000000000000b2f2 .LASF4965
C:\Users\SOLDER~1\AppData\Local\Temp\ccgE0nth.s:19609  .debug_str:0000000000001794 .LASF4966
C:\Users\SOLDER~1\AppData\Local\Temp\ccgE0nth.s:21809  .debug_str:000000000000a666 .LASF4967
C:\Users\SOLDER~1\AppData\Local\Temp\ccgE0nth.s:22211  .debug_str:000000000000c03a .LASF4968
C:\Users\SOLDER~1\AppData\Local\Temp\ccgE0nth.s:28351  .debug_str:0000000000024f32 .LASF4969
C:\Users\SOLDER~1\AppData\Local\Temp\ccgE0nth.s:25339  .debug_str:0000000000018bef .LASF4970
C:\Users\SOLDER~1\AppData\Local\Temp\ccgE0nth.s:25787  .debug_str:000000000001a8d1 .LASF4971
C:\Users\SOLDER~1\AppData\Local\Temp\ccgE0nth.s:20333  .debug_str:0000000000004625 .LASF4972
C:\Users\SOLDER~1\AppData\Local\Temp\ccgE0nth.s:26957  .debug_str:000000000001f519 .LASF4973
C:\Users\SOLDER~1\AppData\Local\Temp\ccgE0nth.s:23623  .debug_str:0000000000011c80 .LASF4974
C:\Users\SOLDER~1\AppData\Local\Temp\ccgE0nth.s:19559  .debug_str:000000000000145e .LASF4975
C:\Users\SOLDER~1\AppData\Local\Temp\ccgE0nth.s:20133  .debug_str:000000000000398e .LASF4976
C:\Users\SOLDER~1\AppData\Local\Temp\ccgE0nth.s:23443  .debug_str:00000000000110b6 .LASF4977
C:\Users\SOLDER~1\AppData\Local\Temp\ccgE0nth.s:19899  .debug_str:0000000000002a88 .LASF4978
C:\Users\SOLDER~1\AppData\Local\Temp\ccgE0nth.s:26931  .debug_str:000000000001f35a .LASF4979
C:\Users\SOLDER~1\AppData\Local\Temp\ccgE0nth.s:26253  .debug_str:000000000001c6ec .LASF4980
C:\Users\SOLDER~1\AppData\Local\Temp\ccgE0nth.s:30779  .debug_str:000000000002ed6a .LASF4981
C:\Users\SOLDER~1\AppData\Local\Temp\ccgE0nth.s:30729  .debug_str:000000000002ea6c .LASF4982
C:\Users\SOLDER~1\AppData\Local\Temp\ccgE0nth.s:29663  .debug_str:000000000002a554 .LASF4983
C:\Users\SOLDER~1\AppData\Local\Temp\ccgE0nth.s:26975  .debug_str:000000000001f671 .LASF4984
C:\Users\SOLDER~1\AppData\Local\Temp\ccgE0nth.s:21547  .debug_str:000000000000957b .LASF4985
C:\Users\SOLDER~1\AppData\Local\Temp\ccgE0nth.s:27285  .debug_str:0000000000020a09 .LASF4986
C:\Users\SOLDER~1\AppData\Local\Temp\ccgE0nth.s:27793  .debug_str:0000000000022a7e .LASF4987
C:\Users\SOLDER~1\AppData\Local\Temp\ccgE0nth.s:29415  .debug_str:000000000002953d .LASF4988
C:\Users\SOLDER~1\AppData\Local\Temp\ccgE0nth.s:23965  .debug_str:000000000001323e .LASF4989
C:\Users\SOLDER~1\AppData\Local\Temp\ccgE0nth.s:25079  .debug_str:0000000000017b2d .LASF4990
C:\Users\SOLDER~1\AppData\Local\Temp\ccgE0nth.s:19993  .debug_str:0000000000003073 .LASF4991
C:\Users\SOLDER~1\AppData\Local\Temp\ccgE0nth.s:27819  .debug_str:0000000000022c45 .LASF4992
C:\Users\SOLDER~1\AppData\Local\Temp\ccgE0nth.s:29759  .debug_str:000000000002ab5e .LASF4993
C:\Users\SOLDER~1\AppData\Local\Temp\ccgE0nth.s:28111  .debug_str:0000000000023f45 .LASF4994
C:\Users\SOLDER~1\AppData\Local\Temp\ccgE0nth.s:23675  .debug_str:0000000000011fa0 .LASF4995
C:\Users\SOLDER~1\AppData\Local\Temp\ccgE0nth.s:28175  .debug_str:000000000002437f .LASF4996
C:\Users\SOLDER~1\AppData\Local\Temp\ccgE0nth.s:29927  .debug_str:000000000002b668 .LASF4997
C:\Users\SOLDER~1\AppData\Local\Temp\ccgE0nth.s:24133  .debug_str:0000000000013e26 .LASF4998
C:\Users\SOLDER~1\AppData\Local\Temp\ccgE0nth.s:21745  .debug_str:000000000000a22a .LASF4999
C:\Users\SOLDER~1\AppData\Local\Temp\ccgE0nth.s:28919  .debug_str:0000000000027513 .LASF5000
C:\Users\SOLDER~1\AppData\Local\Temp\ccgE0nth.s:28495  .debug_str:0000000000025887 .LASF5001
C:\Users\SOLDER~1\AppData\Local\Temp\ccgE0nth.s:27753  .debug_str:00000000000227b3 .LASF5002
C:\Users\SOLDER~1\AppData\Local\Temp\ccgE0nth.s:26177  .debug_str:000000000001c1d8 .LASF5003
C:\Users\SOLDER~1\AppData\Local\Temp\ccgE0nth.s:23151  .debug_str:000000000000fe17 .LASF5004
C:\Users\SOLDER~1\AppData\Local\Temp\ccgE0nth.s:27937  .debug_str:000000000002340a .LASF5005
C:\Users\SOLDER~1\AppData\Local\Temp\ccgE0nth.s:29023  .debug_str:0000000000027bb8 .LASF5006
C:\Users\SOLDER~1\AppData\Local\Temp\ccgE0nth.s:21953  .debug_str:000000000000b00a .LASF5007
C:\Users\SOLDER~1\AppData\Local\Temp\ccgE0nth.s:25025  .debug_str:00000000000177ba .LASF5008
C:\Users\SOLDER~1\AppData\Local\Temp\ccgE0nth.s:23429  .debug_str:0000000000010fcd .LASF5009
GAS LISTING C:\Users\SOLDER~1\AppData\Local\Temp\ccgE0nth.s 			page 115


C:\Users\SOLDER~1\AppData\Local\Temp\ccgE0nth.s:28245  .debug_str:0000000000024822 .LASF5010
C:\Users\SOLDER~1\AppData\Local\Temp\ccgE0nth.s:29097  .debug_str:00000000000280d7 .LASF5011
C:\Users\SOLDER~1\AppData\Local\Temp\ccgE0nth.s:24201  .debug_str:00000000000142cb .LASF5012
C:\Users\SOLDER~1\AppData\Local\Temp\ccgE0nth.s:22465  .debug_str:000000000000d19b .LASF5013
C:\Users\SOLDER~1\AppData\Local\Temp\ccgE0nth.s:29477  .debug_str:0000000000029908 .LASF5014
C:\Users\SOLDER~1\AppData\Local\Temp\ccgE0nth.s:24161  .debug_str:000000000001400f .LASF5015
C:\Users\SOLDER~1\AppData\Local\Temp\ccgE0nth.s:28115  .debug_str:0000000000023f98 .LASF5016
C:\Users\SOLDER~1\AppData\Local\Temp\ccgE0nth.s:24243  .debug_str:00000000000145cd .LASF5017
C:\Users\SOLDER~1\AppData\Local\Temp\ccgE0nth.s:24915  .debug_str:0000000000017050 .LASF5018
C:\Users\SOLDER~1\AppData\Local\Temp\ccgE0nth.s:24505  .debug_str:00000000000156f9 .LASF5019
C:\Users\SOLDER~1\AppData\Local\Temp\ccgE0nth.s:25575  .debug_str:0000000000019b75 .LASF5020
C:\Users\SOLDER~1\AppData\Local\Temp\ccgE0nth.s:22343  .debug_str:000000000000c945 .LASF5021
C:\Users\SOLDER~1\AppData\Local\Temp\ccgE0nth.s:28853  .debug_str:00000000000270b9 .LASF5022
C:\Users\SOLDER~1\AppData\Local\Temp\ccgE0nth.s:29887  .debug_str:000000000002b3ce .LASF5023
C:\Users\SOLDER~1\AppData\Local\Temp\ccgE0nth.s:27169  .debug_str:00000000000202ae .LASF5024
C:\Users\SOLDER~1\AppData\Local\Temp\ccgE0nth.s:23957  .debug_str:00000000000131a1 .LASF5025
C:\Users\SOLDER~1\AppData\Local\Temp\ccgE0nth.s:23667  .debug_str:0000000000011f17 .LASF5026
C:\Users\SOLDER~1\AppData\Local\Temp\ccgE0nth.s:27161  .debug_str:0000000000020229 .LASF5027
C:\Users\SOLDER~1\AppData\Local\Temp\ccgE0nth.s:24305  .debug_str:00000000000149cb .LASF5028
C:\Users\SOLDER~1\AppData\Local\Temp\ccgE0nth.s:22417  .debug_str:000000000000ce62 .LASF5029
C:\Users\SOLDER~1\AppData\Local\Temp\ccgE0nth.s:23185  .debug_str:0000000000010056 .LASF5030
C:\Users\SOLDER~1\AppData\Local\Temp\ccgE0nth.s:28747  .debug_str:00000000000269cf .LASF5031
C:\Users\SOLDER~1\AppData\Local\Temp\ccgE0nth.s:26967  .debug_str:000000000001f5ef .LASF5032
C:\Users\SOLDER~1\AppData\Local\Temp\ccgE0nth.s:19793  .debug_str:0000000000002374 .LASF5033
C:\Users\SOLDER~1\AppData\Local\Temp\ccgE0nth.s:19547  .debug_str:000000000000138f .LASF5034
C:\Users\SOLDER~1\AppData\Local\Temp\ccgE0nth.s:20643  .debug_str:00000000000059c5 .LASF5035
C:\Users\SOLDER~1\AppData\Local\Temp\ccgE0nth.s:23203  .debug_str:0000000000010155 .LASF5036
C:\Users\SOLDER~1\AppData\Local\Temp\ccgE0nth.s:23725  .debug_str:00000000000122d5 .LASF5037
C:\Users\SOLDER~1\AppData\Local\Temp\ccgE0nth.s:29243  .debug_str:0000000000028a30 .LASF5038
C:\Users\SOLDER~1\AppData\Local\Temp\ccgE0nth.s:26023  .debug_str:000000000001b7b5 .LASF5039
C:\Users\SOLDER~1\AppData\Local\Temp\ccgE0nth.s:23979  .debug_str:0000000000013350 .LASF5040
C:\Users\SOLDER~1\AppData\Local\Temp\ccgE0nth.s:27495  .debug_str:0000000000021784 .LASF5041
C:\Users\SOLDER~1\AppData\Local\Temp\ccgE0nth.s:25239  .debug_str:00000000000185a2 .LASF5042
C:\Users\SOLDER~1\AppData\Local\Temp\ccgE0nth.s:27001  .debug_str:000000000001f82b .LASF5043
C:\Users\SOLDER~1\AppData\Local\Temp\ccgE0nth.s:25291  .debug_str:00000000000188f3 .LASF5044
C:\Users\SOLDER~1\AppData\Local\Temp\ccgE0nth.s:24027  .debug_str:0000000000013691 .LASF5045
C:\Users\SOLDER~1\AppData\Local\Temp\ccgE0nth.s:21553  .debug_str:00000000000095dd .LASF5046
C:\Users\SOLDER~1\AppData\Local\Temp\ccgE0nth.s:28057  .debug_str:0000000000023bbd .LASF5047
C:\Users\SOLDER~1\AppData\Local\Temp\ccgE0nth.s:29193  .debug_str:0000000000028716 .LASF5048
C:\Users\SOLDER~1\AppData\Local\Temp\ccgE0nth.s:27407  .debug_str:0000000000021214 .LASF5049
C:\Users\SOLDER~1\AppData\Local\Temp\ccgE0nth.s:27405  .debug_str:00000000000211f5 .LASF5050
C:\Users\SOLDER~1\AppData\Local\Temp\ccgE0nth.s:19451  .debug_str:0000000000000d99 .LASF5051
C:\Users\SOLDER~1\AppData\Local\Temp\ccgE0nth.s:30785  .debug_str:000000000002edc3 .LASF5052
C:\Users\SOLDER~1\AppData\Local\Temp\ccgE0nth.s:26357  .debug_str:000000000001cdf3 .LASF5053
C:\Users\SOLDER~1\AppData\Local\Temp\ccgE0nth.s:21693  .debug_str:0000000000009ea5 .LASF5054
C:\Users\SOLDER~1\AppData\Local\Temp\ccgE0nth.s:23993  .debug_str:000000000001341d .LASF5055
C:\Users\SOLDER~1\AppData\Local\Temp\ccgE0nth.s:30011  .debug_str:000000000002bbcb .LASF5056
C:\Users\SOLDER~1\AppData\Local\Temp\ccgE0nth.s:21737  .debug_str:000000000000a194 .LASF5057
C:\Users\SOLDER~1\AppData\Local\Temp\ccgE0nth.s:27557  .debug_str:0000000000021b98 .LASF5058
C:\Users\SOLDER~1\AppData\Local\Temp\ccgE0nth.s:29545  .debug_str:0000000000029db0 .LASF5059
C:\Users\SOLDER~1\AppData\Local\Temp\ccgE0nth.s:24135  .debug_str:0000000000013e54 .LASF5060
C:\Users\SOLDER~1\AppData\Local\Temp\ccgE0nth.s:19637  .debug_str:0000000000001920 .LASF5061
C:\Users\SOLDER~1\AppData\Local\Temp\ccgE0nth.s:24803  .debug_str:000000000001693f .LASF5062
C:\Users\SOLDER~1\AppData\Local\Temp\ccgE0nth.s:22701  .debug_str:000000000000e0cd .LASF5063
C:\Users\SOLDER~1\AppData\Local\Temp\ccgE0nth.s:21995  .debug_str:000000000000b287 .LASF5064
C:\Users\SOLDER~1\AppData\Local\Temp\ccgE0nth.s:22347  .debug_str:000000000000c98a .LASF5065
C:\Users\SOLDER~1\AppData\Local\Temp\ccgE0nth.s:19389  .debug_str:0000000000000952 .LASF5066
GAS LISTING C:\Users\SOLDER~1\AppData\Local\Temp\ccgE0nth.s 			page 116


C:\Users\SOLDER~1\AppData\Local\Temp\ccgE0nth.s:28255  .debug_str:00000000000248ea .LASF5067
C:\Users\SOLDER~1\AppData\Local\Temp\ccgE0nth.s:19961  .debug_str:0000000000002e5f .LASF5068
C:\Users\SOLDER~1\AppData\Local\Temp\ccgE0nth.s:21881  .debug_str:000000000000ab75 .LASF5069
C:\Users\SOLDER~1\AppData\Local\Temp\ccgE0nth.s:21185  .debug_str:0000000000007d50 .LASF5070
C:\Users\SOLDER~1\AppData\Local\Temp\ccgE0nth.s:23523  .debug_str:000000000001162f .LASF5071
C:\Users\SOLDER~1\AppData\Local\Temp\ccgE0nth.s:26097  .debug_str:000000000001bc4f .LASF5072
C:\Users\SOLDER~1\AppData\Local\Temp\ccgE0nth.s:22149  .debug_str:000000000000bc3d .LASF5073
C:\Users\SOLDER~1\AppData\Local\Temp\ccgE0nth.s:24063  .debug_str:00000000000138e9 .LASF5074
C:\Users\SOLDER~1\AppData\Local\Temp\ccgE0nth.s:21431  .debug_str:0000000000008d58 .LASF5075
C:\Users\SOLDER~1\AppData\Local\Temp\ccgE0nth.s:29085  .debug_str:0000000000027ffb .LASF5076
C:\Users\SOLDER~1\AppData\Local\Temp\ccgE0nth.s:23621  .debug_str:0000000000011c51 .LASF5077
C:\Users\SOLDER~1\AppData\Local\Temp\ccgE0nth.s:21041  .debug_str:000000000000741e .LASF5078
C:\Users\SOLDER~1\AppData\Local\Temp\ccgE0nth.s:19683  .debug_str:0000000000001c48 .LASF5079
C:\Users\SOLDER~1\AppData\Local\Temp\ccgE0nth.s:27823  .debug_str:0000000000022c80 .LASF5080
C:\Users\SOLDER~1\AppData\Local\Temp\ccgE0nth.s:23577  .debug_str:000000000001197d .LASF5081
C:\Users\SOLDER~1\AppData\Local\Temp\ccgE0nth.s:21517  .debug_str:000000000000934f .LASF5082
C:\Users\SOLDER~1\AppData\Local\Temp\ccgE0nth.s:21241  .debug_str:0000000000008102 .LASF5083
C:\Users\SOLDER~1\AppData\Local\Temp\ccgE0nth.s:26423  .debug_str:000000000001d257 .LASF5084
C:\Users\SOLDER~1\AppData\Local\Temp\ccgE0nth.s:28659  .debug_str:00000000000263f4 .LASF5085
C:\Users\SOLDER~1\AppData\Local\Temp\ccgE0nth.s:30705  .debug_str:000000000002e8cd .LASF5086
C:\Users\SOLDER~1\AppData\Local\Temp\ccgE0nth.s:22045  .debug_str:000000000000b5fe .LASF5087
C:\Users\SOLDER~1\AppData\Local\Temp\ccgE0nth.s:21695  .debug_str:0000000000009ecc .LASF5088
C:\Users\SOLDER~1\AppData\Local\Temp\ccgE0nth.s:21405  .debug_str:0000000000008b9b .LASF5089
C:\Users\SOLDER~1\AppData\Local\Temp\ccgE0nth.s:28039  .debug_str:0000000000023a7e .LASF5090
C:\Users\SOLDER~1\AppData\Local\Temp\ccgE0nth.s:21691  .debug_str:0000000000009e78 .LASF5091
C:\Users\SOLDER~1\AppData\Local\Temp\ccgE0nth.s:26841  .debug_str:000000000001ed6d .LASF5092
C:\Users\SOLDER~1\AppData\Local\Temp\ccgE0nth.s:22153  .debug_str:000000000000bc8c .LASF5093
C:\Users\SOLDER~1\AppData\Local\Temp\ccgE0nth.s:21499  .debug_str:000000000000922e .LASF5094
C:\Users\SOLDER~1\AppData\Local\Temp\ccgE0nth.s:29067  .debug_str:0000000000027ebe .LASF5095
C:\Users\SOLDER~1\AppData\Local\Temp\ccgE0nth.s:24261  .debug_str:00000000000146ff .LASF5096
C:\Users\SOLDER~1\AppData\Local\Temp\ccgE0nth.s:27239  .debug_str:0000000000020704 .LASF5097
C:\Users\SOLDER~1\AppData\Local\Temp\ccgE0nth.s:25943  .debug_str:000000000001b2a2 .LASF5098
C:\Users\SOLDER~1\AppData\Local\Temp\ccgE0nth.s:21243  .debug_str:0000000000008130 .LASF5099
C:\Users\SOLDER~1\AppData\Local\Temp\ccgE0nth.s:21849  .debug_str:000000000000a939 .LASF5100
C:\Users\SOLDER~1\AppData\Local\Temp\ccgE0nth.s:19445  .debug_str:0000000000000d1a .LASF5101
C:\Users\SOLDER~1\AppData\Local\Temp\ccgE0nth.s:26039  .debug_str:000000000001b889 .LASF5102
C:\Users\SOLDER~1\AppData\Local\Temp\ccgE0nth.s:28121  .debug_str:0000000000023fe8 .LASF5103
C:\Users\SOLDER~1\AppData\Local\Temp\ccgE0nth.s:19633  .debug_str:00000000000018d5 .LASF5104
C:\Users\SOLDER~1\AppData\Local\Temp\ccgE0nth.s:27025  .debug_str:000000000001f9a0 .LASF5105
C:\Users\SOLDER~1\AppData\Local\Temp\ccgE0nth.s:20159  .debug_str:0000000000003b3c .LASF5106
C:\Users\SOLDER~1\AppData\Local\Temp\ccgE0nth.s:20085  .debug_str:0000000000003663 .LASF5107
C:\Users\SOLDER~1\AppData\Local\Temp\ccgE0nth.s:28503  .debug_str:0000000000025927 .LASF5108
C:\Users\SOLDER~1\AppData\Local\Temp\ccgE0nth.s:26291  .debug_str:000000000001c959 .LASF5109
C:\Users\SOLDER~1\AppData\Local\Temp\ccgE0nth.s:23723  .debug_str:00000000000122b5 .LASF5110
C:\Users\SOLDER~1\AppData\Local\Temp\ccgE0nth.s:29279  .debug_str:0000000000028c6d .LASF5111
C:\Users\SOLDER~1\AppData\Local\Temp\ccgE0nth.s:23245  .debug_str:0000000000010429 .LASF5112
C:\Users\SOLDER~1\AppData\Local\Temp\ccgE0nth.s:20909  .debug_str:0000000000006b65 .LASF5113
C:\Users\SOLDER~1\AppData\Local\Temp\ccgE0nth.s:25857  .debug_str:000000000001ad7d .LASF5114
C:\Users\SOLDER~1\AppData\Local\Temp\ccgE0nth.s:22115  .debug_str:000000000000ba02 .LASF5115
C:\Users\SOLDER~1\AppData\Local\Temp\ccgE0nth.s:26043  .debug_str:000000000001b8d6 .LASF5116
C:\Users\SOLDER~1\AppData\Local\Temp\ccgE0nth.s:23009  .debug_str:000000000000f454 .LASF5117
C:\Users\SOLDER~1\AppData\Local\Temp\ccgE0nth.s:23223  .debug_str:0000000000010292 .LASF5118
C:\Users\SOLDER~1\AppData\Local\Temp\ccgE0nth.s:22973  .debug_str:000000000000f21b .LASF5119
C:\Users\SOLDER~1\AppData\Local\Temp\ccgE0nth.s:30775  .debug_str:000000000002ed25 .LASF5120
C:\Users\SOLDER~1\AppData\Local\Temp\ccgE0nth.s:22447  .debug_str:000000000000d052 .LASF5121
C:\Users\SOLDER~1\AppData\Local\Temp\ccgE0nth.s:23117  .debug_str:000000000000fbae .LASF5122
C:\Users\SOLDER~1\AppData\Local\Temp\ccgE0nth.s:20253  .debug_str:000000000000410f .LASF5123
GAS LISTING C:\Users\SOLDER~1\AppData\Local\Temp\ccgE0nth.s 			page 117


C:\Users\SOLDER~1\AppData\Local\Temp\ccgE0nth.s:28879  .debug_str:000000000002727e .LASF5124
C:\Users\SOLDER~1\AppData\Local\Temp\ccgE0nth.s:29945  .debug_str:000000000002b797 .LASF5125
C:\Users\SOLDER~1\AppData\Local\Temp\ccgE0nth.s:20671  .debug_str:0000000000005ba6 .LASF5126
C:\Users\SOLDER~1\AppData\Local\Temp\ccgE0nth.s:25139  .debug_str:0000000000017f33 .LASF5127
C:\Users\SOLDER~1\AppData\Local\Temp\ccgE0nth.s:25887  .debug_str:000000000001af55 .LASF5128
C:\Users\SOLDER~1\AppData\Local\Temp\ccgE0nth.s:24889  .debug_str:0000000000016e87 .LASF5129
C:\Users\SOLDER~1\AppData\Local\Temp\ccgE0nth.s:25207  .debug_str:00000000000183bb .LASF5130
C:\Users\SOLDER~1\AppData\Local\Temp\ccgE0nth.s:21055  .debug_str:0000000000007501 .LASF5131
C:\Users\SOLDER~1\AppData\Local\Temp\ccgE0nth.s:29461  .debug_str:000000000002981d .LASF5132
C:\Users\SOLDER~1\AppData\Local\Temp\ccgE0nth.s:27539  .debug_str:0000000000021a6a .LASF5133
C:\Users\SOLDER~1\AppData\Local\Temp\ccgE0nth.s:27573  .debug_str:0000000000021c87 .LASF5134
C:\Users\SOLDER~1\AppData\Local\Temp\ccgE0nth.s:28877  .debug_str:000000000002724d .LASF5135
C:\Users\SOLDER~1\AppData\Local\Temp\ccgE0nth.s:30759  .debug_str:000000000002ec34 .LASF5136
C:\Users\SOLDER~1\AppData\Local\Temp\ccgE0nth.s:30691  .debug_str:000000000002e7e8 .LASF5137
C:\Users\SOLDER~1\AppData\Local\Temp\ccgE0nth.s:24851  .debug_str:0000000000016c5e .LASF5138
C:\Users\SOLDER~1\AppData\Local\Temp\ccgE0nth.s:24255  .debug_str:0000000000014698 .LASF5139
C:\Users\SOLDER~1\AppData\Local\Temp\ccgE0nth.s:24093  .debug_str:0000000000013b5b .LASF5140
C:\Users\SOLDER~1\AppData\Local\Temp\ccgE0nth.s:28927  .debug_str:00000000000275a6 .LASF5141
C:\Users\SOLDER~1\AppData\Local\Temp\ccgE0nth.s:25151  .debug_str:0000000000018014 .LASF5142
C:\Users\SOLDER~1\AppData\Local\Temp\ccgE0nth.s:19569  .debug_str:0000000000001515 .LASF5143
C:\Users\SOLDER~1\AppData\Local\Temp\ccgE0nth.s:27249  .debug_str:00000000000207b9 .LASF5144
C:\Users\SOLDER~1\AppData\Local\Temp\ccgE0nth.s:27027  .debug_str:000000000001f9c5 .LASF5145
C:\Users\SOLDER~1\AppData\Local\Temp\ccgE0nth.s:21955  .debug_str:000000000000b038 .LASF5146
C:\Users\SOLDER~1\AppData\Local\Temp\ccgE0nth.s:28813  .debug_str:0000000000026e16 .LASF5147
C:\Users\SOLDER~1\AppData\Local\Temp\ccgE0nth.s:27713  .debug_str:0000000000022541 .LASF5148
C:\Users\SOLDER~1\AppData\Local\Temp\ccgE0nth.s:24449  .debug_str:000000000001533b .LASF5149
C:\Users\SOLDER~1\AppData\Local\Temp\ccgE0nth.s:28567  .debug_str:0000000000025d73 .LASF5150
C:\Users\SOLDER~1\AppData\Local\Temp\ccgE0nth.s:23477  .debug_str:00000000000112d9 .LASF5151
C:\Users\SOLDER~1\AppData\Local\Temp\ccgE0nth.s:30459  .debug_str:000000000002d8ff .LASF5152
C:\Users\SOLDER~1\AppData\Local\Temp\ccgE0nth.s:26971  .debug_str:000000000001f62f .LASF5153
C:\Users\SOLDER~1\AppData\Local\Temp\ccgE0nth.s:27845  .debug_str:0000000000022dee .LASF5154
C:\Users\SOLDER~1\AppData\Local\Temp\ccgE0nth.s:29345  .debug_str:0000000000029083 .LASF5155
C:\Users\SOLDER~1\AppData\Local\Temp\ccgE0nth.s:25429  .debug_str:00000000000191f1 .LASF5156
C:\Users\SOLDER~1\AppData\Local\Temp\ccgE0nth.s:26169  .debug_str:000000000001c149 .LASF5157
C:\Users\SOLDER~1\AppData\Local\Temp\ccgE0nth.s:21437  .debug_str:0000000000008dc8 .LASF5158
C:\Users\SOLDER~1\AppData\Local\Temp\ccgE0nth.s:27091  .debug_str:000000000001fdb1 .LASF5159
C:\Users\SOLDER~1\AppData\Local\Temp\ccgE0nth.s:29187  .debug_str:00000000000286a5 .LASF5160
C:\Users\SOLDER~1\AppData\Local\Temp\ccgE0nth.s:27387  .debug_str:00000000000210c3 .LASF5161
C:\Users\SOLDER~1\AppData\Local\Temp\ccgE0nth.s:19543  .debug_str:0000000000001336 .LASF5162
C:\Users\SOLDER~1\AppData\Local\Temp\ccgE0nth.s:19261  .debug_str:0000000000000048 .LASF5163
C:\Users\SOLDER~1\AppData\Local\Temp\ccgE0nth.s:26025  .debug_str:000000000001b7d3 .LASF5164
C:\Users\SOLDER~1\AppData\Local\Temp\ccgE0nth.s:30425  .debug_str:000000000002d6c1 .LASF5165
C:\Users\SOLDER~1\AppData\Local\Temp\ccgE0nth.s:19289  .debug_str:00000000000001f5 .LASF5166
C:\Users\SOLDER~1\AppData\Local\Temp\ccgE0nth.s:21667  .debug_str:0000000000009cdc .LASF5167
C:\Users\SOLDER~1\AppData\Local\Temp\ccgE0nth.s:30799  .debug_str:000000000002ee9e .LASF5168
C:\Users\SOLDER~1\AppData\Local\Temp\ccgE0nth.s:23691  .debug_str:00000000000120a3 .LASF5169
C:\Users\SOLDER~1\AppData\Local\Temp\ccgE0nth.s:25341  .debug_str:0000000000018c0e .LASF5170
C:\Users\SOLDER~1\AppData\Local\Temp\ccgE0nth.s:21187  .debug_str:0000000000007d7e .LASF5171
C:\Users\SOLDER~1\AppData\Local\Temp\ccgE0nth.s:21197  .debug_str:0000000000007e20 .LASF5172
C:\Users\SOLDER~1\AppData\Local\Temp\ccgE0nth.s:26809  .debug_str:000000000001eb56 .LASF5173
C:\Users\SOLDER~1\AppData\Local\Temp\ccgE0nth.s:30419  .debug_str:000000000002d657 .LASF5174
C:\Users\SOLDER~1\AppData\Local\Temp\ccgE0nth.s:23381  .debug_str:0000000000010ca5 .LASF5175
C:\Users\SOLDER~1\AppData\Local\Temp\ccgE0nth.s:21505  .debug_str:000000000000929a .LASF5176
C:\Users\SOLDER~1\AppData\Local\Temp\ccgE0nth.s:24137  .debug_str:0000000000013e7f .LASF5177
C:\Users\SOLDER~1\AppData\Local\Temp\ccgE0nth.s:27215  .debug_str:0000000000020571 .LASF5178
C:\Users\SOLDER~1\AppData\Local\Temp\ccgE0nth.s:24729  .debug_str:00000000000164c6 .LASF5179
C:\Users\SOLDER~1\AppData\Local\Temp\ccgE0nth.s:23107  .debug_str:000000000000fafe .LASF5180
GAS LISTING C:\Users\SOLDER~1\AppData\Local\Temp\ccgE0nth.s 			page 118


C:\Users\SOLDER~1\AppData\Local\Temp\ccgE0nth.s:30737  .debug_str:000000000002eade .LASF5181
C:\Users\SOLDER~1\AppData\Local\Temp\ccgE0nth.s:22413  .debug_str:000000000000ce13 .LASF5182
C:\Users\SOLDER~1\AppData\Local\Temp\ccgE0nth.s:26837  .debug_str:000000000001ed1e .LASF5183
C:\Users\SOLDER~1\AppData\Local\Temp\ccgE0nth.s:19965  .debug_str:0000000000002ea3 .LASF5184
C:\Users\SOLDER~1\AppData\Local\Temp\ccgE0nth.s:23481  .debug_str:000000000001131e .LASF5185
C:\Users\SOLDER~1\AppData\Local\Temp\ccgE0nth.s:26603  .debug_str:000000000001ddda .LASF5186
C:\Users\SOLDER~1\AppData\Local\Temp\ccgE0nth.s:24367  .debug_str:0000000000014e01 .LASF5187
C:\Users\SOLDER~1\AppData\Local\Temp\ccgE0nth.s:28449  .debug_str:0000000000025554 .LASF5188
C:\Users\SOLDER~1\AppData\Local\Temp\ccgE0nth.s:26123  .debug_str:000000000001be27 .LASF5189
C:\Users\SOLDER~1\AppData\Local\Temp\ccgE0nth.s:22565  .debug_str:000000000000d815 .LASF5190
C:\Users\SOLDER~1\AppData\Local\Temp\ccgE0nth.s:20759  .debug_str:0000000000006159 .LASF5191
C:\Users\SOLDER~1\AppData\Local\Temp\ccgE0nth.s:30689  .debug_str:000000000002e7b1 .LASF5192
C:\Users\SOLDER~1\AppData\Local\Temp\ccgE0nth.s:19545  .debug_str:0000000000001359 .LASF5193
C:\Users\SOLDER~1\AppData\Local\Temp\ccgE0nth.s:22357  .debug_str:000000000000ca3d .LASF5194
C:\Users\SOLDER~1\AppData\Local\Temp\ccgE0nth.s:28867  .debug_str:0000000000027192 .LASF5195
C:\Users\SOLDER~1\AppData\Local\Temp\ccgE0nth.s:25773  .debug_str:000000000001a7ce .LASF5196
C:\Users\SOLDER~1\AppData\Local\Temp\ccgE0nth.s:21821  .debug_str:000000000000a745 .LASF5197
C:\Users\SOLDER~1\AppData\Local\Temp\ccgE0nth.s:19819  .debug_str:0000000000002539 .LASF5198
C:\Users\SOLDER~1\AppData\Local\Temp\ccgE0nth.s:25847  .debug_str:000000000001acbe .LASF5199
C:\Users\SOLDER~1\AppData\Local\Temp\ccgE0nth.s:28543  .debug_str:0000000000025bc7 .LASF5200
C:\Users\SOLDER~1\AppData\Local\Temp\ccgE0nth.s:21495  .debug_str:00000000000091d4 .LASF5201
C:\Users\SOLDER~1\AppData\Local\Temp\ccgE0nth.s:28631  .debug_str:00000000000261f0 .LASF5202
C:\Users\SOLDER~1\AppData\Local\Temp\ccgE0nth.s:20521  .debug_str:00000000000051cf .LASF5203
C:\Users\SOLDER~1\AppData\Local\Temp\ccgE0nth.s:19417  .debug_str:0000000000000b36 .LASF5204
C:\Users\SOLDER~1\AppData\Local\Temp\ccgE0nth.s:22361  .debug_str:000000000000ca97 .LASF5205
C:\Users\SOLDER~1\AppData\Local\Temp\ccgE0nth.s:23645  .debug_str:0000000000011dee .LASF5206
C:\Users\SOLDER~1\AppData\Local\Temp\ccgE0nth.s:24793  .debug_str:000000000001689d .LASF5207
C:\Users\SOLDER~1\AppData\Local\Temp\ccgE0nth.s:20807  .debug_str:00000000000064a6 .LASF5208
C:\Users\SOLDER~1\AppData\Local\Temp\ccgE0nth.s:29087  .debug_str:0000000000028022 .LASF5209
C:\Users\SOLDER~1\AppData\Local\Temp\ccgE0nth.s:27775  .debug_str:0000000000022942 .LASF5210
C:\Users\SOLDER~1\AppData\Local\Temp\ccgE0nth.s:24059  .debug_str:000000000001388d .LASF5211
C:\Users\SOLDER~1\AppData\Local\Temp\ccgE0nth.s:27463  .debug_str:000000000002159c .LASF5212
C:\Users\SOLDER~1\AppData\Local\Temp\ccgE0nth.s:28241  .debug_str:00000000000247ef .LASF5213
C:\Users\SOLDER~1\AppData\Local\Temp\ccgE0nth.s:26295  .debug_str:000000000001c99f .LASF5214
C:\Users\SOLDER~1\AppData\Local\Temp\ccgE0nth.s:24809  .debug_str:00000000000169a9 .LASF5215
C:\Users\SOLDER~1\AppData\Local\Temp\ccgE0nth.s:28089  .debug_str:0000000000023dda .LASF5216
C:\Users\SOLDER~1\AppData\Local\Temp\ccgE0nth.s:30381  .debug_str:000000000002d415 .LASF5217
C:\Users\SOLDER~1\AppData\Local\Temp\ccgE0nth.s:25673  .debug_str:000000000001a169 .LASF5218
C:\Users\SOLDER~1\AppData\Local\Temp\ccgE0nth.s:25997  .debug_str:000000000001b627 .LASF5219
C:\Users\SOLDER~1\AppData\Local\Temp\ccgE0nth.s:27251  .debug_str:00000000000207da .LASF5220
C:\Users\SOLDER~1\AppData\Local\Temp\ccgE0nth.s:26063  .debug_str:000000000001ba42 .LASF5221
C:\Users\SOLDER~1\AppData\Local\Temp\ccgE0nth.s:24903  .debug_str:0000000000016f7f .LASF5222
C:\Users\SOLDER~1\AppData\Local\Temp\ccgE0nth.s:28483  .debug_str:0000000000025798 .LASF5223
C:\Users\SOLDER~1\AppData\Local\Temp\ccgE0nth.s:19613  .debug_str:00000000000017d8 .LASF5224
C:\Users\SOLDER~1\AppData\Local\Temp\ccgE0nth.s:23571  .debug_str:0000000000011922 .LASF5225
C:\Users\SOLDER~1\AppData\Local\Temp\ccgE0nth.s:23579  .debug_str:00000000000119a7 .LASF5226
C:\Users\SOLDER~1\AppData\Local\Temp\ccgE0nth.s:21891  .debug_str:000000000000ac26 .LASF5227
C:\Users\SOLDER~1\AppData\Local\Temp\ccgE0nth.s:22261  .debug_str:000000000000c380 .LASF5228
C:\Users\SOLDER~1\AppData\Local\Temp\ccgE0nth.s:21395  .debug_str:0000000000008b00 .LASF5229
C:\Users\SOLDER~1\AppData\Local\Temp\ccgE0nth.s:21273  .debug_str:0000000000008335 .LASF5230
C:\Users\SOLDER~1\AppData\Local\Temp\ccgE0nth.s:20287  .debug_str:0000000000004339 .LASF5231
C:\Users\SOLDER~1\AppData\Local\Temp\ccgE0nth.s:22523  .debug_str:000000000000d56c .LASF5232
C:\Users\SOLDER~1\AppData\Local\Temp\ccgE0nth.s:27289  .debug_str:0000000000020a4e .LASF5233
C:\Users\SOLDER~1\AppData\Local\Temp\ccgE0nth.s:22995  .debug_str:000000000000f38b .LASF5234
C:\Users\SOLDER~1\AppData\Local\Temp\ccgE0nth.s:20039  .debug_str:0000000000003372 .LASF5235
C:\Users\SOLDER~1\AppData\Local\Temp\ccgE0nth.s:29723  .debug_str:000000000002a8e2 .LASF5236
C:\Users\SOLDER~1\AppData\Local\Temp\ccgE0nth.s:23303  .debug_str:00000000000107ac .LASF5237
GAS LISTING C:\Users\SOLDER~1\AppData\Local\Temp\ccgE0nth.s 			page 119


C:\Users\SOLDER~1\AppData\Local\Temp\ccgE0nth.s:29531  .debug_str:0000000000029ca7 .LASF5238
C:\Users\SOLDER~1\AppData\Local\Temp\ccgE0nth.s:23073  .debug_str:000000000000f89d .LASF5239
C:\Users\SOLDER~1\AppData\Local\Temp\ccgE0nth.s:19813  .debug_str:00000000000024d6 .LASF5240
C:\Users\SOLDER~1\AppData\Local\Temp\ccgE0nth.s:25689  .debug_str:000000000001a254 .LASF5241
C:\Users\SOLDER~1\AppData\Local\Temp\ccgE0nth.s:20089  .debug_str:00000000000036a4 .LASF5242
C:\Users\SOLDER~1\AppData\Local\Temp\ccgE0nth.s:20493  .debug_str:0000000000005035 .LASF5243
C:\Users\SOLDER~1\AppData\Local\Temp\ccgE0nth.s:29623  .debug_str:000000000002a2cb .LASF5244
C:\Users\SOLDER~1\AppData\Local\Temp\ccgE0nth.s:19305  .debug_str:000000000000031d .LASF5245
C:\Users\SOLDER~1\AppData\Local\Temp\ccgE0nth.s:20999  .debug_str:000000000000718a .LASF5246
C:\Users\SOLDER~1\AppData\Local\Temp\ccgE0nth.s:29863  .debug_str:000000000002b264 .LASF5247
C:\Users\SOLDER~1\AppData\Local\Temp\ccgE0nth.s:21887  .debug_str:000000000000abe4 .LASF5248
C:\Users\SOLDER~1\AppData\Local\Temp\ccgE0nth.s:28635  .debug_str:0000000000026244 .LASF5249
C:\Users\SOLDER~1\AppData\Local\Temp\ccgE0nth.s:29991  .debug_str:000000000002ba7c .LASF5250
C:\Users\SOLDER~1\AppData\Local\Temp\ccgE0nth.s:23249  .debug_str:0000000000010463 .LASF5251
C:\Users\SOLDER~1\AppData\Local\Temp\ccgE0nth.s:22265  .debug_str:000000000000c3d3 .LASF5252
C:\Users\SOLDER~1\AppData\Local\Temp\ccgE0nth.s:28299  .debug_str:0000000000024bca .LASF5253
C:\Users\SOLDER~1\AppData\Local\Temp\ccgE0nth.s:25549  .debug_str:00000000000199b2 .LASF5254
C:\Users\SOLDER~1\AppData\Local\Temp\ccgE0nth.s:22805  .debug_str:000000000000e7c1 .LASF5255
C:\Users\SOLDER~1\AppData\Local\Temp\ccgE0nth.s:30611  .debug_str:000000000002e29c .LASF5256
C:\Users\SOLDER~1\AppData\Local\Temp\ccgE0nth.s:23503  .debug_str:000000000001147c .LASF5257
C:\Users\SOLDER~1\AppData\Local\Temp\ccgE0nth.s:26351  .debug_str:000000000001cd90 .LASF5258
C:\Users\SOLDER~1\AppData\Local\Temp\ccgE0nth.s:25091  .debug_str:0000000000017be2 .LASF5259
C:\Users\SOLDER~1\AppData\Local\Temp\ccgE0nth.s:21173  .debug_str:0000000000007c7c .LASF5260
C:\Users\SOLDER~1\AppData\Local\Temp\ccgE0nth.s:30579  .debug_str:000000000002e08a .LASF5261
C:\Users\SOLDER~1\AppData\Local\Temp\ccgE0nth.s:26691  .debug_str:000000000001e36c .LASF5262
C:\Users\SOLDER~1\AppData\Local\Temp\ccgE0nth.s:19553  .debug_str:00000000000013ed .LASF5263
C:\Users\SOLDER~1\AppData\Local\Temp\ccgE0nth.s:24597  .debug_str:0000000000015c69 .LASF5264
C:\Users\SOLDER~1\AppData\Local\Temp\ccgE0nth.s:28803  .debug_str:0000000000026d56 .LASF5265
C:\Users\SOLDER~1\AppData\Local\Temp\ccgE0nth.s:23705  .debug_str:0000000000012177 .LASF5266
C:\Users\SOLDER~1\AppData\Local\Temp\ccgE0nth.s:29037  .debug_str:0000000000027cca .LASF5267
C:\Users\SOLDER~1\AppData\Local\Temp\ccgE0nth.s:19641  .debug_str:000000000000197a .LASF5268
C:\Users\SOLDER~1\AppData\Local\Temp\ccgE0nth.s:27699  .debug_str:000000000002244d .LASF5269
C:\Users\SOLDER~1\AppData\Local\Temp\ccgE0nth.s:25667  .debug_str:000000000001a103 .LASF5270
C:\Users\SOLDER~1\AppData\Local\Temp\ccgE0nth.s:24617  .debug_str:0000000000015daa .LASF5271
C:\Users\SOLDER~1\AppData\Local\Temp\ccgE0nth.s:21901  .debug_str:000000000000aca9 .LASF5272
C:\Users\SOLDER~1\AppData\Local\Temp\ccgE0nth.s:19395  .debug_str:00000000000009b7 .LASF5273
C:\Users\SOLDER~1\AppData\Local\Temp\ccgE0nth.s:26797  .debug_str:000000000001ea97 .LASF5274
C:\Users\SOLDER~1\AppData\Local\Temp\ccgE0nth.s:29579  .debug_str:0000000000029fea .LASF5275
C:\Users\SOLDER~1\AppData\Local\Temp\ccgE0nth.s:25039  .debug_str:000000000001789d .LASF5276
C:\Users\SOLDER~1\AppData\Local\Temp\ccgE0nth.s:23215  .debug_str:0000000000010224 .LASF5277
C:\Users\SOLDER~1\AppData\Local\Temp\ccgE0nth.s:19959  .debug_str:0000000000002e41 .LASF5278
C:\Users\SOLDER~1\AppData\Local\Temp\ccgE0nth.s:21107  .debug_str:0000000000007818 .LASF5279
C:\Users\SOLDER~1\AppData\Local\Temp\ccgE0nth.s:26575  .debug_str:000000000001dbe1 .LASF5280
C:\Users\SOLDER~1\AppData\Local\Temp\ccgE0nth.s:21207  .debug_str:0000000000007ec1 .LASF5281
C:\Users\SOLDER~1\AppData\Local\Temp\ccgE0nth.s:26245  .debug_str:000000000001c669 .LASF5282
C:\Users\SOLDER~1\AppData\Local\Temp\ccgE0nth.s:20031  .debug_str:00000000000032f2 .LASF5283
C:\Users\SOLDER~1\AppData\Local\Temp\ccgE0nth.s:20641  .debug_str:000000000000599f .LASF5284
C:\Users\SOLDER~1\AppData\Local\Temp\ccgE0nth.s:26229  .debug_str:000000000001c532 .LASF5285
C:\Users\SOLDER~1\AppData\Local\Temp\ccgE0nth.s:20049  .debug_str:000000000000342d .LASF5286
C:\Users\SOLDER~1\AppData\Local\Temp\ccgE0nth.s:30133  .debug_str:000000000002c404 .LASF5287
C:\Users\SOLDER~1\AppData\Local\Temp\ccgE0nth.s:22945  .debug_str:000000000000f072 .LASF5288
C:\Users\SOLDER~1\AppData\Local\Temp\ccgE0nth.s:23317  .debug_str:00000000000108af .LASF5289
C:\Users\SOLDER~1\AppData\Local\Temp\ccgE0nth.s:20237  .debug_str:0000000000004008 .LASF5290
C:\Users\SOLDER~1\AppData\Local\Temp\ccgE0nth.s:20613  .debug_str:0000000000005793 .LASF5291
C:\Users\SOLDER~1\AppData\Local\Temp\ccgE0nth.s:19477  .debug_str:0000000000000f1e .LASF5292
C:\Users\SOLDER~1\AppData\Local\Temp\ccgE0nth.s:24049  .debug_str:00000000000137fd .LASF5293
C:\Users\SOLDER~1\AppData\Local\Temp\ccgE0nth.s:27909  .debug_str:000000000002320c .LASF5294
GAS LISTING C:\Users\SOLDER~1\AppData\Local\Temp\ccgE0nth.s 			page 120


C:\Users\SOLDER~1\AppData\Local\Temp\ccgE0nth.s:24983  .debug_str:00000000000174d8 .LASF5295
C:\Users\SOLDER~1\AppData\Local\Temp\ccgE0nth.s:24893  .debug_str:0000000000016ed5 .LASF5296
C:\Users\SOLDER~1\AppData\Local\Temp\ccgE0nth.s:22879  .debug_str:000000000000ec2d .LASF5297
C:\Users\SOLDER~1\AppData\Local\Temp\ccgE0nth.s:20995  .debug_str:000000000000713d .LASF5298
C:\Users\SOLDER~1\AppData\Local\Temp\ccgE0nth.s:21251  .debug_str:00000000000081dc .LASF5299
C:\Users\SOLDER~1\AppData\Local\Temp\ccgE0nth.s:29365  .debug_str:00000000000291c4 .LASF5300
C:\Users\SOLDER~1\AppData\Local\Temp\ccgE0nth.s:24789  .debug_str:000000000001684c .LASF5301
C:\Users\SOLDER~1\AppData\Local\Temp\ccgE0nth.s:22349  .debug_str:000000000000c9b5 .LASF5302
C:\Users\SOLDER~1\AppData\Local\Temp\ccgE0nth.s:28049  .debug_str:0000000000023b21 .LASF5303
C:\Users\SOLDER~1\AppData\Local\Temp\ccgE0nth.s:26163  .debug_str:000000000001c0c1 .LASF5304
C:\Users\SOLDER~1\AppData\Local\Temp\ccgE0nth.s:26367  .debug_str:000000000001ce90 .LASF5305
C:\Users\SOLDER~1\AppData\Local\Temp\ccgE0nth.s:23465  .debug_str:000000000001122f .LASF5306
C:\Users\SOLDER~1\AppData\Local\Temp\ccgE0nth.s:22025  .debug_str:000000000000b487 .LASF5307
C:\Users\SOLDER~1\AppData\Local\Temp\ccgE0nth.s:26669  .debug_str:000000000001e20c .LASF5308
C:\Users\SOLDER~1\AppData\Local\Temp\ccgE0nth.s:27031  .debug_str:000000000001f9fd .LASF5309
C:\Users\SOLDER~1\AppData\Local\Temp\ccgE0nth.s:21655  .debug_str:0000000000009c30 .LASF5310
C:\Users\SOLDER~1\AppData\Local\Temp\ccgE0nth.s:29839  .debug_str:000000000002b0b8 .LASF5311
C:\Users\SOLDER~1\AppData\Local\Temp\ccgE0nth.s:28627  .debug_str:00000000000261a0 .LASF5312
C:\Users\SOLDER~1\AppData\Local\Temp\ccgE0nth.s:19731  .debug_str:0000000000001f86 .LASF5313
C:\Users\SOLDER~1\AppData\Local\Temp\ccgE0nth.s:23967  .debug_str:000000000001326b .LASF5314
C:\Users\SOLDER~1\AppData\Local\Temp\ccgE0nth.s:20297  .debug_str:00000000000043cc .LASF5315
C:\Users\SOLDER~1\AppData\Local\Temp\ccgE0nth.s:24023  .debug_str:0000000000013640 .LASF5316
C:\Users\SOLDER~1\AppData\Local\Temp\ccgE0nth.s:21775  .debug_str:000000000000a418 .LASF5317
C:\Users\SOLDER~1\AppData\Local\Temp\ccgE0nth.s:27705  .debug_str:00000000000224bf .LASF5318
C:\Users\SOLDER~1\AppData\Local\Temp\ccgE0nth.s:24657  .debug_str:0000000000016019 .LASF5319
C:\Users\SOLDER~1\AppData\Local\Temp\ccgE0nth.s:29493  .debug_str:0000000000029a0e .LASF5320
C:\Users\SOLDER~1\AppData\Local\Temp\ccgE0nth.s:25347  .debug_str:0000000000018c84 .LASF5321
C:\Users\SOLDER~1\AppData\Local\Temp\ccgE0nth.s:28939  .debug_str:000000000002766c .LASF5322
C:\Users\SOLDER~1\AppData\Local\Temp\ccgE0nth.s:26775  .debug_str:000000000001e91e .LASF5323
C:\Users\SOLDER~1\AppData\Local\Temp\ccgE0nth.s:23817  .debug_str:0000000000012880 .LASF5324
C:\Users\SOLDER~1\AppData\Local\Temp\ccgE0nth.s:24977  .debug_str:000000000001746b .LASF5325
C:\Users\SOLDER~1\AppData\Local\Temp\ccgE0nth.s:26433  .debug_str:000000000001d314 .LASF5326
C:\Users\SOLDER~1\AppData\Local\Temp\ccgE0nth.s:19639  .debug_str:000000000000194f .LASF5327
C:\Users\SOLDER~1\AppData\Local\Temp\ccgE0nth.s:27967  .debug_str:0000000000023605 .LASF5328
C:\Users\SOLDER~1\AppData\Local\Temp\ccgE0nth.s:23257  .debug_str:00000000000104f2 .LASF5329
C:\Users\SOLDER~1\AppData\Local\Temp\ccgE0nth.s:20977  .debug_str:000000000000700f .LASF5330
C:\Users\SOLDER~1\AppData\Local\Temp\ccgE0nth.s:20525  .debug_str:0000000000005223 .LASF5331
C:\Users\SOLDER~1\AppData\Local\Temp\ccgE0nth.s:23371  .debug_str:0000000000010c12 .LASF5332
C:\Users\SOLDER~1\AppData\Local\Temp\ccgE0nth.s:21501  .debug_str:000000000000925e .LASF5333
C:\Users\SOLDER~1\AppData\Local\Temp\ccgE0nth.s:28333  .debug_str:0000000000024e03 .LASF5334
C:\Users\SOLDER~1\AppData\Local\Temp\ccgE0nth.s:29371  .debug_str:0000000000029232 .LASF5335
C:\Users\SOLDER~1\AppData\Local\Temp\ccgE0nth.s:20647  .debug_str:00000000000059f8 .LASF5336
C:\Users\SOLDER~1\AppData\Local\Temp\ccgE0nth.s:24651  .debug_str:0000000000015fb7 .LASF5337
C:\Users\SOLDER~1\AppData\Local\Temp\ccgE0nth.s:22247  .debug_str:000000000000c295 .LASF5338
C:\Users\SOLDER~1\AppData\Local\Temp\ccgE0nth.s:21155  .debug_str:0000000000007b35 .LASF5339
C:\Users\SOLDER~1\AppData\Local\Temp\ccgE0nth.s:21033  .debug_str:00000000000073a0 .LASF5340
C:\Users\SOLDER~1\AppData\Local\Temp\ccgE0nth.s:27555  .debug_str:0000000000021b79 .LASF5341
C:\Users\SOLDER~1\AppData\Local\Temp\ccgE0nth.s:21659  .debug_str:0000000000009c74 .LASF5342
C:\Users\SOLDER~1\AppData\Local\Temp\ccgE0nth.s:28953  .debug_str:0000000000027751 .LASF5343
C:\Users\SOLDER~1\AppData\Local\Temp\ccgE0nth.s:30777  .debug_str:000000000002ed46 .LASF5344
C:\Users\SOLDER~1\AppData\Local\Temp\ccgE0nth.s:27769  .debug_str:00000000000228c9 .LASF5345
C:\Users\SOLDER~1\AppData\Local\Temp\ccgE0nth.s:30259  .debug_str:000000000002cbce .LASF5346
C:\Users\SOLDER~1\AppData\Local\Temp\ccgE0nth.s:20113  .debug_str:000000000000383b .LASF5347
C:\Users\SOLDER~1\AppData\Local\Temp\ccgE0nth.s:29901  .debug_str:000000000002b4ab .LASF5348
C:\Users\SOLDER~1\AppData\Local\Temp\ccgE0nth.s:25349  .debug_str:0000000000018caf .LASF5349
C:\Users\SOLDER~1\AppData\Local\Temp\ccgE0nth.s:25115  .debug_str:0000000000017d88 .LASF5350
C:\Users\SOLDER~1\AppData\Local\Temp\ccgE0nth.s:19997  .debug_str:00000000000030bc .LASF5351
GAS LISTING C:\Users\SOLDER~1\AppData\Local\Temp\ccgE0nth.s 			page 121


C:\Users\SOLDER~1\AppData\Local\Temp\ccgE0nth.s:22367  .debug_str:000000000000cb11 .LASF5352
C:\Users\SOLDER~1\AppData\Local\Temp\ccgE0nth.s:29969  .debug_str:000000000002b92c .LASF5353
C:\Users\SOLDER~1\AppData\Local\Temp\ccgE0nth.s:29343  .debug_str:0000000000029062 .LASF5354
C:\Users\SOLDER~1\AppData\Local\Temp\ccgE0nth.s:30289  .debug_str:000000000002cdcb .LASF5355
C:\Users\SOLDER~1\AppData\Local\Temp\ccgE0nth.s:27689  .debug_str:0000000000022396 .LASF5356
C:\Users\SOLDER~1\AppData\Local\Temp\ccgE0nth.s:23455  .debug_str:0000000000011181 .LASF5357
C:\Users\SOLDER~1\AppData\Local\Temp\ccgE0nth.s:20635  .debug_str:0000000000005938 .LASF5358
C:\Users\SOLDER~1\AppData\Local\Temp\ccgE0nth.s:29929  .debug_str:000000000002b696 .LASF5359
C:\Users\SOLDER~1\AppData\Local\Temp\ccgE0nth.s:24559  .debug_str:0000000000015a0a .LASF5360
C:\Users\SOLDER~1\AppData\Local\Temp\ccgE0nth.s:24251  .debug_str:0000000000014655 .LASF5361
C:\Users\SOLDER~1\AppData\Local\Temp\ccgE0nth.s:29099  .debug_str:0000000000028105 .LASF5362
C:\Users\SOLDER~1\AppData\Local\Temp\ccgE0nth.s:20061  .debug_str:00000000000034fe .LASF5363
C:\Users\SOLDER~1\AppData\Local\Temp\ccgE0nth.s:24175  .debug_str:00000000000140ee .LASF5364
C:\Users\SOLDER~1\AppData\Local\Temp\ccgE0nth.s:25681  .debug_str:000000000001a1d1 .LASF5365
C:\Users\SOLDER~1\AppData\Local\Temp\ccgE0nth.s:30167  .debug_str:000000000002c610 .LASF5366
C:\Users\SOLDER~1\AppData\Local\Temp\ccgE0nth.s:28493  .debug_str:0000000000025854 .LASF5367
C:\Users\SOLDER~1\AppData\Local\Temp\ccgE0nth.s:24349  .debug_str:0000000000014ccb .LASF5368
C:\Users\SOLDER~1\AppData\Local\Temp\ccgE0nth.s:20417  .debug_str:0000000000004b7f .LASF5369
C:\Users\SOLDER~1\AppData\Local\Temp\ccgE0nth.s:20603  .debug_str:00000000000056cb .LASF5370
C:\Users\SOLDER~1\AppData\Local\Temp\ccgE0nth.s:25639  .debug_str:0000000000019f1d .LASF5371
C:\Users\SOLDER~1\AppData\Local\Temp\ccgE0nth.s:27771  .debug_str:00000000000228e9 .LASF5372
C:\Users\SOLDER~1\AppData\Local\Temp\ccgE0nth.s:19533  .debug_str:00000000000012b2 .LASF5373
C:\Users\SOLDER~1\AppData\Local\Temp\ccgE0nth.s:23085  .debug_str:000000000000f994 .LASF5374
C:\Users\SOLDER~1\AppData\Local\Temp\ccgE0nth.s:27989  .debug_str:000000000002378b .LASF5375
C:\Users\SOLDER~1\AppData\Local\Temp\ccgE0nth.s:19321  .debug_str:000000000000042f .LASF5376
C:\Users\SOLDER~1\AppData\Local\Temp\ccgE0nth.s:29773  .debug_str:000000000002ac56 .LASF5377
C:\Users\SOLDER~1\AppData\Local\Temp\ccgE0nth.s:30801  .debug_str:000000000002eec4 .LASF5378
C:\Users\SOLDER~1\AppData\Local\Temp\ccgE0nth.s:25495  .debug_str:00000000000196a3 .LASF5379
C:\Users\SOLDER~1\AppData\Local\Temp\ccgE0nth.s:30097  .debug_str:000000000002c1b7 .LASF5380
C:\Users\SOLDER~1\AppData\Local\Temp\ccgE0nth.s:25475  .debug_str:0000000000019519 .LASF5381
C:\Users\SOLDER~1\AppData\Local\Temp\ccgE0nth.s:25021  .debug_str:000000000001776a .LASF5382
C:\Users\SOLDER~1\AppData\Local\Temp\ccgE0nth.s:24265  .debug_str:0000000000014740 .LASF5383
C:\Users\SOLDER~1\AppData\Local\Temp\ccgE0nth.s:23927  .debug_str:0000000000012fc8 .LASF5384
C:\Users\SOLDER~1\AppData\Local\Temp\ccgE0nth.s:27103  .debug_str:000000000001fe73 .LASF5385
C:\Users\SOLDER~1\AppData\Local\Temp\ccgE0nth.s:30585  .debug_str:000000000002e0fc .LASF5386
C:\Users\SOLDER~1\AppData\Local\Temp\ccgE0nth.s:22127  .debug_str:000000000000babb .LASF5387
C:\Users\SOLDER~1\AppData\Local\Temp\ccgE0nth.s:25835  .debug_str:000000000001abce .LASF5388
C:\Users\SOLDER~1\AppData\Local\Temp\ccgE0nth.s:30301  .debug_str:000000000002cea0 .LASF5389
C:\Users\SOLDER~1\AppData\Local\Temp\ccgE0nth.s:28211  .debug_str:00000000000245fe .LASF5390
C:\Users\SOLDER~1\AppData\Local\Temp\ccgE0nth.s:25757  .debug_str:000000000001a6af .LASF5391
C:\Users\SOLDER~1\AppData\Local\Temp\ccgE0nth.s:26443  .debug_str:000000000001d3c3 .LASF5392
C:\Users\SOLDER~1\AppData\Local\Temp\ccgE0nth.s:22079  .debug_str:000000000000b7fc .LASF5393
C:\Users\SOLDER~1\AppData\Local\Temp\ccgE0nth.s:25247  .debug_str:0000000000018640 .LASF5394
C:\Users\SOLDER~1\AppData\Local\Temp\ccgE0nth.s:28971  .debug_str:0000000000027868 .LASF5395
C:\Users\SOLDER~1\AppData\Local\Temp\ccgE0nth.s:23135  .debug_str:000000000000fd0e .LASF5396
C:\Users\SOLDER~1\AppData\Local\Temp\ccgE0nth.s:30137  .debug_str:000000000002c446 .LASF5397
C:\Users\SOLDER~1\AppData\Local\Temp\ccgE0nth.s:24321  .debug_str:0000000000014afe .LASF5398
C:\Users\SOLDER~1\AppData\Local\Temp\ccgE0nth.s:29919  .debug_str:000000000002b5e4 .LASF5399
C:\Users\SOLDER~1\AppData\Local\Temp\ccgE0nth.s:30375  .debug_str:000000000002d3be .LASF5400
C:\Users\SOLDER~1\AppData\Local\Temp\ccgE0nth.s:30225  .debug_str:000000000002c9b0 .LASF5401
C:\Users\SOLDER~1\AppData\Local\Temp\ccgE0nth.s:20747  .debug_str:0000000000006078 .LASF5402
C:\Users\SOLDER~1\AppData\Local\Temp\ccgE0nth.s:28309  .debug_str:0000000000024c73 .LASF5403
C:\Users\SOLDER~1\AppData\Local\Temp\ccgE0nth.s:21905  .debug_str:000000000000acf7 .LASF5404
C:\Users\SOLDER~1\AppData\Local\Temp\ccgE0nth.s:21851  .debug_str:000000000000a95e .LASF5405
C:\Users\SOLDER~1\AppData\Local\Temp\ccgE0nth.s:25503  .debug_str:0000000000019734 .LASF5406
C:\Users\SOLDER~1\AppData\Local\Temp\ccgE0nth.s:28895  .debug_str:0000000000027391 .LASF5407
C:\Users\SOLDER~1\AppData\Local\Temp\ccgE0nth.s:22333  .debug_str:000000000000c89c .LASF5408
GAS LISTING C:\Users\SOLDER~1\AppData\Local\Temp\ccgE0nth.s 			page 122


C:\Users\SOLDER~1\AppData\Local\Temp\ccgE0nth.s:23451  .debug_str:0000000000011138 .LASF5409
C:\Users\SOLDER~1\AppData\Local\Temp\ccgE0nth.s:21875  .debug_str:000000000000aafa .LASF5410
C:\Users\SOLDER~1\AppData\Local\Temp\ccgE0nth.s:30255  .debug_str:000000000002cb92 .LASF5411
C:\Users\SOLDER~1\AppData\Local\Temp\ccgE0nth.s:26771  .debug_str:000000000001e8d1 .LASF5412
C:\Users\SOLDER~1\AppData\Local\Temp\ccgE0nth.s:27815  .debug_str:0000000000022bfc .LASF5413
C:\Users\SOLDER~1\AppData\Local\Temp\ccgE0nth.s:26255  .debug_str:000000000001c70c .LASF5414
C:\Users\SOLDER~1\AppData\Local\Temp\ccgE0nth.s:21409  .debug_str:0000000000008bf1 .LASF5415
C:\Users\SOLDER~1\AppData\Local\Temp\ccgE0nth.s:29123  .debug_str:0000000000028272 .LASF5416
C:\Users\SOLDER~1\AppData\Local\Temp\ccgE0nth.s:30509  .debug_str:000000000002dc2f .LASF5417
C:\Users\SOLDER~1\AppData\Local\Temp\ccgE0nth.s:20607  .debug_str:0000000000005718 .LASF5418
C:\Users\SOLDER~1\AppData\Local\Temp\ccgE0nth.s:24269  .debug_str:0000000000014793 .LASF5419
C:\Users\SOLDER~1\AppData\Local\Temp\ccgE0nth.s:29931  .debug_str:000000000002b6b7 .LASF5420
C:\Users\SOLDER~1\AppData\Local\Temp\ccgE0nth.s:30321  .debug_str:000000000002d010 .LASF5421
C:\Users\SOLDER~1\AppData\Local\Temp\ccgE0nth.s:23527  .debug_str:000000000001167e .LASF5422
C:\Users\SOLDER~1\AppData\Local\Temp\ccgE0nth.s:20395  .debug_str:0000000000004a28 .LASF5423
C:\Users\SOLDER~1\AppData\Local\Temp\ccgE0nth.s:20041  .debug_str:0000000000003395 .LASF5424
C:\Users\SOLDER~1\AppData\Local\Temp\ccgE0nth.s:25993  .debug_str:000000000001b5df .LASF5425
C:\Users\SOLDER~1\AppData\Local\Temp\ccgE0nth.s:29257  .debug_str:0000000000028b0f .LASF5426
C:\Users\SOLDER~1\AppData\Local\Temp\ccgE0nth.s:21845  .debug_str:000000000000a901 .LASF5427
C:\Users\SOLDER~1\AppData\Local\Temp\ccgE0nth.s:23079  .debug_str:000000000000f932 .LASF5428
C:\Users\SOLDER~1\AppData\Local\Temp\ccgE0nth.s:26411  .debug_str:000000000001d194 .LASF5429
C:\Users\SOLDER~1\AppData\Local\Temp\ccgE0nth.s:27269  .debug_str:00000000000208fe .LASF5430
C:\Users\SOLDER~1\AppData\Local\Temp\ccgE0nth.s:21709  .debug_str:0000000000009fc1 .LASF5431
C:\Users\SOLDER~1\AppData\Local\Temp\ccgE0nth.s:19663  .debug_str:0000000000001afe .LASF5432
C:\Users\SOLDER~1\AppData\Local\Temp\ccgE0nth.s:25563  .debug_str:0000000000019aa7 .LASF5433
C:\Users\SOLDER~1\AppData\Local\Temp\ccgE0nth.s:20425  .debug_str:0000000000004c0c .LASF5434
C:\Users\SOLDER~1\AppData\Local\Temp\ccgE0nth.s:30095  .debug_str:000000000002c194 .LASF5435
C:\Users\SOLDER~1\AppData\Local\Temp\ccgE0nth.s:27147  .debug_str:0000000000020145 .LASF5436
C:\Users\SOLDER~1\AppData\Local\Temp\ccgE0nth.s:27637  .debug_str:0000000000022094 .LASF5437
C:\Users\SOLDER~1\AppData\Local\Temp\ccgE0nth.s:24755  .debug_str:000000000001666a .LASF5438
C:\Users\SOLDER~1\AppData\Local\Temp\ccgE0nth.s:23271  .debug_str:00000000000105cd .LASF5439
C:\Users\SOLDER~1\AppData\Local\Temp\ccgE0nth.s:24621  .debug_str:0000000000015df2 .LASF5440
C:\Users\SOLDER~1\AppData\Local\Temp\ccgE0nth.s:23603  .debug_str:0000000000011b2b .LASF5441
C:\Users\SOLDER~1\AppData\Local\Temp\ccgE0nth.s:28573  .debug_str:0000000000025dd7 .LASF5442
C:\Users\SOLDER~1\AppData\Local\Temp\ccgE0nth.s:23153  .debug_str:000000000000fe45 .LASF5443
C:\Users\SOLDER~1\AppData\Local\Temp\ccgE0nth.s:22033  .debug_str:000000000000b519 .LASF5444
C:\Users\SOLDER~1\AppData\Local\Temp\ccgE0nth.s:23925  .debug_str:0000000000012fa3 .LASF5445
C:\Users\SOLDER~1\AppData\Local\Temp\ccgE0nth.s:22987  .debug_str:000000000000f30b .LASF5446
C:\Users\SOLDER~1\AppData\Local\Temp\ccgE0nth.s:20139  .debug_str:00000000000039de .LASF5447
C:\Users\SOLDER~1\AppData\Local\Temp\ccgE0nth.s:21827  .debug_str:000000000000a7cf .LASF5448
C:\Users\SOLDER~1\AppData\Local\Temp\ccgE0nth.s:20303  .debug_str:0000000000004444 .LASF5449
C:\Users\SOLDER~1\AppData\Local\Temp\ccgE0nth.s:21761  .debug_str:000000000000a350 .LASF5450
C:\Users\SOLDER~1\AppData\Local\Temp\ccgE0nth.s:21673  .debug_str:0000000000009d42 .LASF5451
C:\Users\SOLDER~1\AppData\Local\Temp\ccgE0nth.s:21475  .debug_str:0000000000009073 .LASF5452
C:\Users\SOLDER~1\AppData\Local\Temp\ccgE0nth.s:24887  .debug_str:0000000000016e66 .LASF5453
C:\Users\SOLDER~1\AppData\Local\Temp\ccgE0nth.s:25675  .debug_str:000000000001a17b .LASF5454
C:\Users\SOLDER~1\AppData\Local\Temp\ccgE0nth.s:24499  .debug_str:000000000001568e .LASF5455
C:\Users\SOLDER~1\AppData\Local\Temp\ccgE0nth.s:27509  .debug_str:0000000000021860 .LASF5456
C:\Users\SOLDER~1\AppData\Local\Temp\ccgE0nth.s:28625  .debug_str:000000000002617a .LASF5457
C:\Users\SOLDER~1\AppData\Local\Temp\ccgE0nth.s:22113  .debug_str:000000000000b9da .LASF5458
C:\Users\SOLDER~1\AppData\Local\Temp\ccgE0nth.s:20969  .debug_str:0000000000006f5b .LASF5459
C:\Users\SOLDER~1\AppData\Local\Temp\ccgE0nth.s:21545  .debug_str:0000000000009549 .LASF5460
C:\Users\SOLDER~1\AppData\Local\Temp\ccgE0nth.s:22121  .debug_str:000000000000ba43 .LASF5461
C:\Users\SOLDER~1\AppData\Local\Temp\ccgE0nth.s:23041  .debug_str:000000000000f679 .LASF5462
C:\Users\SOLDER~1\AppData\Local\Temp\ccgE0nth.s:25793  .debug_str:000000000001a928 .LASF5463
C:\Users\SOLDER~1\AppData\Local\Temp\ccgE0nth.s:26397  .debug_str:000000000001d06a .LASF5464
C:\Users\SOLDER~1\AppData\Local\Temp\ccgE0nth.s:30181  .debug_str:000000000002c6eb .LASF5465
GAS LISTING C:\Users\SOLDER~1\AppData\Local\Temp\ccgE0nth.s 			page 123


C:\Users\SOLDER~1\AppData\Local\Temp\ccgE0nth.s:29719  .debug_str:000000000002a8a5 .LASF5466
C:\Users\SOLDER~1\AppData\Local\Temp\ccgE0nth.s:26317  .debug_str:000000000001cb3b .LASF5467
C:\Users\SOLDER~1\AppData\Local\Temp\ccgE0nth.s:23077  .debug_str:000000000000f906 .LASF5468
C:\Users\SOLDER~1\AppData\Local\Temp\ccgE0nth.s:24891  .debug_str:0000000000016eaa .LASF5469
C:\Users\SOLDER~1\AppData\Local\Temp\ccgE0nth.s:22435  .debug_str:000000000000cf9c .LASF5470
C:\Users\SOLDER~1\AppData\Local\Temp\ccgE0nth.s:21671  .debug_str:0000000000009d1f .LASF5471
C:\Users\SOLDER~1\AppData\Local\Temp\ccgE0nth.s:28451  .debug_str:0000000000025577 .LASF5472
C:\Users\SOLDER~1\AppData\Local\Temp\ccgE0nth.s:23159  .debug_str:000000000000fea8 .LASF5473
C:\Users\SOLDER~1\AppData\Local\Temp\ccgE0nth.s:30487  .debug_str:000000000002daaf .LASF5474
C:\Users\SOLDER~1\AppData\Local\Temp\ccgE0nth.s:26767  .debug_str:000000000001e886 .LASF5475
C:\Users\SOLDER~1\AppData\Local\Temp\ccgE0nth.s:19405  .debug_str:0000000000000a6f .LASF5476
C:\Users\SOLDER~1\AppData\Local\Temp\ccgE0nth.s:24105  .debug_str:0000000000013c3f .LASF5477
C:\Users\SOLDER~1\AppData\Local\Temp\ccgE0nth.s:29291  .debug_str:0000000000028d26 .LASF5478
C:\Users\SOLDER~1\AppData\Local\Temp\ccgE0nth.s:25825  .debug_str:000000000001aaff .LASF5479
C:\Users\SOLDER~1\AppData\Local\Temp\ccgE0nth.s:22091  .debug_str:000000000000b8a2 .LASF5480
C:\Users\SOLDER~1\AppData\Local\Temp\ccgE0nth.s:24923  .debug_str:00000000000170d3 .LASF5481
C:\Users\SOLDER~1\AppData\Local\Temp\ccgE0nth.s:29621  .debug_str:000000000002a2a8 .LASF5482
C:\Users\SOLDER~1\AppData\Local\Temp\ccgE0nth.s:22817  .debug_str:000000000000e88c .LASF5483
C:\Users\SOLDER~1\AppData\Local\Temp\ccgE0nth.s:26041  .debug_str:000000000001b8ae .LASF5484
C:\Users\SOLDER~1\AppData\Local\Temp\ccgE0nth.s:22569  .debug_str:000000000000d871 .LASF5485
C:\Users\SOLDER~1\AppData\Local\Temp\ccgE0nth.s:28751  .debug_str:0000000000026a1c .LASF5486
C:\Users\SOLDER~1\AppData\Local\Temp\ccgE0nth.s:28101  .debug_str:0000000000023e9c .LASF5487
C:\Users\SOLDER~1\AppData\Local\Temp\ccgE0nth.s:30027  .debug_str:000000000002bcca .LASF5488
C:\Users\SOLDER~1\AppData\Local\Temp\ccgE0nth.s:22459  .debug_str:000000000000d11d .LASF5489
C:\Users\SOLDER~1\AppData\Local\Temp\ccgE0nth.s:28045  .debug_str:0000000000023adf .LASF5490
C:\Users\SOLDER~1\AppData\Local\Temp\ccgE0nth.s:25257  .debug_str:00000000000186ea .LASF5491
C:\Users\SOLDER~1\AppData\Local\Temp\ccgE0nth.s:29183  .debug_str:0000000000028637 .LASF5492
C:\Users\SOLDER~1\AppData\Local\Temp\ccgE0nth.s:25851  .debug_str:000000000001ad1a .LASF5493
C:\Users\SOLDER~1\AppData\Local\Temp\ccgE0nth.s:23237  .debug_str:0000000000010389 .LASF5494
C:\Users\SOLDER~1\AppData\Local\Temp\ccgE0nth.s:20545  .debug_str:0000000000005366 .LASF5495
C:\Users\SOLDER~1\AppData\Local\Temp\ccgE0nth.s:21867  .debug_str:000000000000aa6a .LASF5496
C:\Users\SOLDER~1\AppData\Local\Temp\ccgE0nth.s:24235  .debug_str:0000000000014523 .LASF5497
C:\Users\SOLDER~1\AppData\Local\Temp\ccgE0nth.s:22497  .debug_str:000000000000d3a9 .LASF5498
C:\Users\SOLDER~1\AppData\Local\Temp\ccgE0nth.s:27419  .debug_str:00000000000212d5 .LASF5499
C:\Users\SOLDER~1\AppData\Local\Temp\ccgE0nth.s:27187  .debug_str:00000000000203e3 .LASF5500
C:\Users\SOLDER~1\AppData\Local\Temp\ccgE0nth.s:24317  .debug_str:0000000000014ab6 .LASF5501
C:\Users\SOLDER~1\AppData\Local\Temp\ccgE0nth.s:23555  .debug_str:0000000000011802 .LASF5502
C:\Users\SOLDER~1\AppData\Local\Temp\ccgE0nth.s:27431  .debug_str:0000000000021387 .LASF5503
C:\Users\SOLDER~1\AppData\Local\Temp\ccgE0nth.s:27351  .debug_str:0000000000020e37 .LASF5504
C:\Users\SOLDER~1\AppData\Local\Temp\ccgE0nth.s:20981  .debug_str:000000000000704d .LASF5505
C:\Users\SOLDER~1\AppData\Local\Temp\ccgE0nth.s:23227  .debug_str:00000000000102ca .LASF5506
C:\Users\SOLDER~1\AppData\Local\Temp\ccgE0nth.s:29059  .debug_str:0000000000027e43 .LASF5507
C:\Users\SOLDER~1\AppData\Local\Temp\ccgE0nth.s:29619  .debug_str:000000000002a286 .LASF5508
C:\Users\SOLDER~1\AppData\Local\Temp\ccgE0nth.s:26117  .debug_str:000000000001bdcf .LASF5509
C:\Users\SOLDER~1\AppData\Local\Temp\ccgE0nth.s:30573  .debug_str:000000000002e031 .LASF5510
C:\Users\SOLDER~1\AppData\Local\Temp\ccgE0nth.s:30063  .debug_str:000000000002bf45 .LASF5511
C:\Users\SOLDER~1\AppData\Local\Temp\ccgE0nth.s:27919  .debug_str:00000000000232b2 .LASF5512
C:\Users\SOLDER~1\AppData\Local\Temp\ccgE0nth.s:19623  .debug_str:0000000000001866 .LASF5513
C:\Users\SOLDER~1\AppData\Local\Temp\ccgE0nth.s:24005  .debug_str:00000000000134fc .LASF5514
C:\Users\SOLDER~1\AppData\Local\Temp\ccgE0nth.s:23717  .debug_str:000000000001224c .LASF5515
C:\Users\SOLDER~1\AppData\Local\Temp\ccgE0nth.s:23241  .debug_str:00000000000103d3 .LASF5516
C:\Users\SOLDER~1\AppData\Local\Temp\ccgE0nth.s:19751  .debug_str:00000000000020a2 .LASF5517
C:\Users\SOLDER~1\AppData\Local\Temp\ccgE0nth.s:19479  .debug_str:0000000000000f51 .LASF5518
C:\Users\SOLDER~1\AppData\Local\Temp\ccgE0nth.s:27059  .debug_str:000000000001fbcb .LASF5519
C:\Users\SOLDER~1\AppData\Local\Temp\ccgE0nth.s:30327  .debug_str:000000000002d095 .LASF5520
C:\Users\SOLDER~1\AppData\Local\Temp\ccgE0nth.s:26827  .debug_str:000000000001ec6c .LASF5521
C:\Users\SOLDER~1\AppData\Local\Temp\ccgE0nth.s:28179  .debug_str:00000000000243ce .LASF5522
GAS LISTING C:\Users\SOLDER~1\AppData\Local\Temp\ccgE0nth.s 			page 124


C:\Users\SOLDER~1\AppData\Local\Temp\ccgE0nth.s:20997  .debug_str:0000000000007166 .LASF5523
C:\Users\SOLDER~1\AppData\Local\Temp\ccgE0nth.s:26167  .debug_str:000000000001c125 .LASF5524
C:\Users\SOLDER~1\AppData\Local\Temp\ccgE0nth.s:23869  .debug_str:0000000000012bde .LASF5525
C:\Users\SOLDER~1\AppData\Local\Temp\ccgE0nth.s:30725  .debug_str:000000000002ea21 .LASF5526
C:\Users\SOLDER~1\AppData\Local\Temp\ccgE0nth.s:22573  .debug_str:000000000000d8b6 .LASF5527
C:\Users\SOLDER~1\AppData\Local\Temp\ccgE0nth.s:27717  .debug_str:0000000000022591 .LASF5528
C:\Users\SOLDER~1\AppData\Local\Temp\ccgE0nth.s:22505  .debug_str:000000000000d421 .LASF5529
C:\Users\SOLDER~1\AppData\Local\Temp\ccgE0nth.s:28705  .debug_str:00000000000266e5 .LASF5530
C:\Users\SOLDER~1\AppData\Local\Temp\ccgE0nth.s:22517  .debug_str:000000000000d4ff .LASF5531
C:\Users\SOLDER~1\AppData\Local\Temp\ccgE0nth.s:29537  .debug_str:0000000000029d22 .LASF5532
C:\Users\SOLDER~1\AppData\Local\Temp\ccgE0nth.s:29917  .debug_str:000000000002b5b3 .LASF5533
C:\Users\SOLDER~1\AppData\Local\Temp\ccgE0nth.s:27745  .debug_str:0000000000022724 .LASF5534
C:\Users\SOLDER~1\AppData\Local\Temp\ccgE0nth.s:28963  .debug_str:00000000000277f5 .LASF5535
C:\Users\SOLDER~1\AppData\Local\Temp\ccgE0nth.s:24421  .debug_str:000000000001514a .LASF5536
C:\Users\SOLDER~1\AppData\Local\Temp\ccgE0nth.s:30489  .debug_str:000000000002dad3 .LASF5537
C:\Users\SOLDER~1\AppData\Local\Temp\ccgE0nth.s:25243  .debug_str:00000000000185e5 .LASF5538
C:\Users\SOLDER~1\AppData\Local\Temp\ccgE0nth.s:24299  .debug_str:000000000001495f .LASF5539
C:\Users\SOLDER~1\AppData\Local\Temp\ccgE0nth.s:24099  .debug_str:0000000000013bbf .LASF5540
C:\Users\SOLDER~1\AppData\Local\Temp\ccgE0nth.s:21727  .debug_str:000000000000a0e2 .LASF5541
C:\Users\SOLDER~1\AppData\Local\Temp\ccgE0nth.s:26429  .debug_str:000000000001d2cb .LASF5542
C:\Users\SOLDER~1\AppData\Local\Temp\ccgE0nth.s:21861  .debug_str:000000000000a9f5 .LASF5543
C:\Users\SOLDER~1\AppData\Local\Temp\ccgE0nth.s:28579  .debug_str:0000000000025e3b .LASF5544
C:\Users\SOLDER~1\AppData\Local\Temp\ccgE0nth.s:19969  .debug_str:0000000000002eed .LASF5545
C:\Users\SOLDER~1\AppData\Local\Temp\ccgE0nth.s:20411  .debug_str:0000000000004b12 .LASF5546
C:\Users\SOLDER~1\AppData\Local\Temp\ccgE0nth.s:21967  .debug_str:000000000000b0f5 .LASF5547
C:\Users\SOLDER~1\AppData\Local\Temp\ccgE0nth.s:25451  .debug_str:000000000001936b .LASF5548
C:\Users\SOLDER~1\AppData\Local\Temp\ccgE0nth.s:22529  .debug_str:000000000000d5d8 .LASF5549
C:\Users\SOLDER~1\AppData\Local\Temp\ccgE0nth.s:27995  .debug_str:00000000000237d9 .LASF5550
C:\Users\SOLDER~1\AppData\Local\Temp\ccgE0nth.s:29127  .debug_str:00000000000282b1 .LASF5551
C:\Users\SOLDER~1\AppData\Local\Temp\ccgE0nth.s:21997  .debug_str:000000000000b2b5 .LASF5552
C:\Users\SOLDER~1\AppData\Local\Temp\ccgE0nth.s:26543  .debug_str:000000000001d9cd .LASF5553
C:\Users\SOLDER~1\AppData\Local\Temp\ccgE0nth.s:29065  .debug_str:0000000000027e99 .LASF5554
C:\Users\SOLDER~1\AppData\Local\Temp\ccgE0nth.s:26283  .debug_str:000000000001c8c8 .LASF5555
C:\Users\SOLDER~1\AppData\Local\Temp\ccgE0nth.s:30687  .debug_str:000000000002e78b .LASF5556
C:\Users\SOLDER~1\AppData\Local\Temp\ccgE0nth.s:29767  .debug_str:000000000002abed .LASF5557
C:\Users\SOLDER~1\AppData\Local\Temp\ccgE0nth.s:30039  .debug_str:000000000002bd9f .LASF5558
C:\Users\SOLDER~1\AppData\Local\Temp\ccgE0nth.s:25501  .debug_str:0000000000019715 .LASF5559
C:\Users\SOLDER~1\AppData\Local\Temp\ccgE0nth.s:20929  .debug_str:0000000000006ca2 .LASF5560
C:\Users\SOLDER~1\AppData\Local\Temp\ccgE0nth.s:19497  .debug_str:000000000000105c .LASF5561
C:\Users\SOLDER~1\AppData\Local\Temp\ccgE0nth.s:27799  .debug_str:0000000000022af4 .LASF5562
C:\Users\SOLDER~1\AppData\Local\Temp\ccgE0nth.s:19401  .debug_str:0000000000000a29 .LASF5563
C:\Users\SOLDER~1\AppData\Local\Temp\ccgE0nth.s:24127  .debug_str:0000000000013db3 .LASF5564
C:\Users\SOLDER~1\AppData\Local\Temp\ccgE0nth.s:23495  .debug_str:00000000000113fa .LASF5565
C:\Users\SOLDER~1\AppData\Local\Temp\ccgE0nth.s:28249  .debug_str:0000000000024872 .LASF5566
C:\Users\SOLDER~1\AppData\Local\Temp\ccgE0nth.s:19517  .debug_str:000000000000119f .LASF5567
C:\Users\SOLDER~1\AppData\Local\Temp\ccgE0nth.s:24951  .debug_str:00000000000172c0 .LASF5568
C:\Users\SOLDER~1\AppData\Local\Temp\ccgE0nth.s:26129  .debug_str:000000000001be9e .LASF5569
C:\Users\SOLDER~1\AppData\Local\Temp\ccgE0nth.s:21087  .debug_str:00000000000076f2 .LASF5570
C:\Users\SOLDER~1\AppData\Local\Temp\ccgE0nth.s:21623  .debug_str:0000000000009a3c .LASF5571
C:\Users\SOLDER~1\AppData\Local\Temp\ccgE0nth.s:23845  .debug_str:0000000000012a3c .LASF5572
C:\Users\SOLDER~1\AppData\Local\Temp\ccgE0nth.s:25641  .debug_str:0000000000019f40 .LASF5573
C:\Users\SOLDER~1\AppData\Local\Temp\ccgE0nth.s:25497  .debug_str:00000000000196c3 .LASF5574
C:\Users\SOLDER~1\AppData\Local\Temp\ccgE0nth.s:25755  .debug_str:000000000001a688 .LASF5575
C:\Users\SOLDER~1\AppData\Local\Temp\ccgE0nth.s:26949  .debug_str:000000000001f499 .LASF5576
C:\Users\SOLDER~1\AppData\Local\Temp\ccgE0nth.s:23737  .debug_str:000000000001237d .LASF5577
C:\Users\SOLDER~1\AppData\Local\Temp\ccgE0nth.s:29815  .debug_str:000000000002aed7 .LASF5578
C:\Users\SOLDER~1\AppData\Local\Temp\ccgE0nth.s:21481  .debug_str:00000000000090d1 .LASF5579
GAS LISTING C:\Users\SOLDER~1\AppData\Local\Temp\ccgE0nth.s 			page 125


C:\Users\SOLDER~1\AppData\Local\Temp\ccgE0nth.s:27409  .debug_str:0000000000021233 .LASF5580
C:\Users\SOLDER~1\AppData\Local\Temp\ccgE0nth.s:23139  .debug_str:000000000000fd54 .LASF5581
C:\Users\SOLDER~1\AppData\Local\Temp\ccgE0nth.s:21863  .debug_str:000000000000aa27 .LASF5582
C:\Users\SOLDER~1\AppData\Local\Temp\ccgE0nth.s:25353  .debug_str:0000000000018cf1 .LASF5583
C:\Users\SOLDER~1\AppData\Local\Temp\ccgE0nth.s:20709  .debug_str:0000000000005e02 .LASF5584
C:\Users\SOLDER~1\AppData\Local\Temp\ccgE0nth.s:21117  .debug_str:00000000000078ad .LASF5585
C:\Users\SOLDER~1\AppData\Local\Temp\ccgE0nth.s:21777  .debug_str:000000000000a443 .LASF5586
C:\Users\SOLDER~1\AppData\Local\Temp\ccgE0nth.s:27871  .debug_str:0000000000022f82 .LASF5587
C:\Users\SOLDER~1\AppData\Local\Temp\ccgE0nth.s:26533  .debug_str:000000000001d91d .LASF5588
C:\Users\SOLDER~1\AppData\Local\Temp\ccgE0nth.s:19365  .debug_str:000000000000079b .LASF5589
C:\Users\SOLDER~1\AppData\Local\Temp\ccgE0nth.s:23359  .debug_str:0000000000010b5b .LASF5590
C:\Users\SOLDER~1\AppData\Local\Temp\ccgE0nth.s:30349  .debug_str:000000000002d208 .LASF5591
C:\Users\SOLDER~1\AppData\Local\Temp\ccgE0nth.s:20465  .debug_str:0000000000004e8f .LASF5592
C:\Users\SOLDER~1\AppData\Local\Temp\ccgE0nth.s:28079  .debug_str:0000000000023d1e .LASF5593
C:\Users\SOLDER~1\AppData\Local\Temp\ccgE0nth.s:29019  .debug_str:0000000000027b68 .LASF5594
C:\Users\SOLDER~1\AppData\Local\Temp\ccgE0nth.s:27593  .debug_str:0000000000021dd6 .LASF5595
C:\Users\SOLDER~1\AppData\Local\Temp\ccgE0nth.s:27545  .debug_str:0000000000021ac8 .LASF5596
C:\Users\SOLDER~1\AppData\Local\Temp\ccgE0nth.s:27143  .debug_str:0000000000020107 .LASF5597
C:\Users\SOLDER~1\AppData\Local\Temp\ccgE0nth.s:19699  .debug_str:0000000000001d7b .LASF5598
C:\Users\SOLDER~1\AppData\Local\Temp\ccgE0nth.s:29289  .debug_str:0000000000028cfd .LASF5599
C:\Users\SOLDER~1\AppData\Local\Temp\ccgE0nth.s:26405  .debug_str:000000000001d117 .LASF5600
C:\Users\SOLDER~1\AppData\Local\Temp\ccgE0nth.s:30297  .debug_str:000000000002ce51 .LASF5601
C:\Users\SOLDER~1\AppData\Local\Temp\ccgE0nth.s:20935  .debug_str:0000000000006cef .LASF5602
C:\Users\SOLDER~1\AppData\Local\Temp\ccgE0nth.s:22245  .debug_str:000000000000c26e .LASF5603
C:\Users\SOLDER~1\AppData\Local\Temp\ccgE0nth.s:29533  .debug_str:0000000000029cd5 .LASF5604
C:\Users\SOLDER~1\AppData\Local\Temp\ccgE0nth.s:25357  .debug_str:0000000000018d2c .LASF5605
C:\Users\SOLDER~1\AppData\Local\Temp\ccgE0nth.s:28193  .debug_str:00000000000244ac .LASF5606
C:\Users\SOLDER~1\AppData\Local\Temp\ccgE0nth.s:26585  .debug_str:000000000001dc90 .LASF5607
C:\Users\SOLDER~1\AppData\Local\Temp\ccgE0nth.s:24897  .debug_str:0000000000016f14 .LASF5608
C:\Users\SOLDER~1\AppData\Local\Temp\ccgE0nth.s:20591  .debug_str:000000000000561a .LASF5609
C:\Users\SOLDER~1\AppData\Local\Temp\ccgE0nth.s:24761  .debug_str:00000000000166be .LASF5610
C:\Users\SOLDER~1\AppData\Local\Temp\ccgE0nth.s:28699  .debug_str:000000000002667c .LASF5611
C:\Users\SOLDER~1\AppData\Local\Temp\ccgE0nth.s:23525  .debug_str:000000000001165e .LASF5612
C:\Users\SOLDER~1\AppData\Local\Temp\ccgE0nth.s:25899  .debug_str:000000000001b014 .LASF5613
C:\Users\SOLDER~1\AppData\Local\Temp\ccgE0nth.s:19357  .debug_str:0000000000000720 .LASF5614
C:\Users\SOLDER~1\AppData\Local\Temp\ccgE0nth.s:21897  .debug_str:000000000000ac76 .LASF5615
C:\Users\SOLDER~1\AppData\Local\Temp\ccgE0nth.s:26647  .debug_str:000000000001e0b3 .LASF5616
C:\Users\SOLDER~1\AppData\Local\Temp\ccgE0nth.s:23821  .debug_str:00000000000128d0 .LASF5617
C:\Users\SOLDER~1\AppData\Local\Temp\ccgE0nth.s:24079  .debug_str:0000000000013a28 .LASF5618
C:\Users\SOLDER~1\AppData\Local\Temp\ccgE0nth.s:22279  .debug_str:000000000000c4dc .LASF5619
C:\Users\SOLDER~1\AppData\Local\Temp\ccgE0nth.s:27353  .debug_str:0000000000020e55 .LASF5620
C:\Users\SOLDER~1\AppData\Local\Temp\ccgE0nth.s:24985  .debug_str:0000000000017502 .LASF5621
C:\Users\SOLDER~1\AppData\Local\Temp\ccgE0nth.s:29205  .debug_str:00000000000287de .LASF5622
C:\Users\SOLDER~1\AppData\Local\Temp\ccgE0nth.s:24991  .debug_str:0000000000017570 .LASF5623
C:\Users\SOLDER~1\AppData\Local\Temp\ccgE0nth.s:30519  .debug_str:000000000002dcdc .LASF5624
C:\Users\SOLDER~1\AppData\Local\Temp\ccgE0nth.s:24767  .debug_str:0000000000016702 .LASF5625
C:\Users\SOLDER~1\AppData\Local\Temp\ccgE0nth.s:26345  .debug_str:000000000001cd12 .LASF5626
C:\Users\SOLDER~1\AppData\Local\Temp\ccgE0nth.s:27943  .debug_str:0000000000023482 .LASF5627
C:\Users\SOLDER~1\AppData\Local\Temp\ccgE0nth.s:23395  .debug_str:0000000000010d8a .LASF5628
C:\Users\SOLDER~1\AppData\Local\Temp\ccgE0nth.s:25253  .debug_str:0000000000018698 .LASF5629
C:\Users\SOLDER~1\AppData\Local\Temp\ccgE0nth.s:21337  .debug_str:0000000000008735 .LASF5630
C:\Users\SOLDER~1\AppData\Local\Temp\ccgE0nth.s:24061  .debug_str:00000000000138af .LASF5631
C:\Users\SOLDER~1\AppData\Local\Temp\ccgE0nth.s:27513  .debug_str:0000000000021899 .LASF5632
C:\Users\SOLDER~1\AppData\Local\Temp\ccgE0nth.s:29833  .debug_str:000000000002b034 .LASF5633
C:\Users\SOLDER~1\AppData\Local\Temp\ccgE0nth.s:21815  .debug_str:000000000000a6c9 .LASF5634
C:\Users\SOLDER~1\AppData\Local\Temp\ccgE0nth.s:27377  .debug_str:0000000000020fec .LASF5635
C:\Users\SOLDER~1\AppData\Local\Temp\ccgE0nth.s:23889  .debug_str:0000000000012d4d .LASF5636
GAS LISTING C:\Users\SOLDER~1\AppData\Local\Temp\ccgE0nth.s 			page 126


C:\Users\SOLDER~1\AppData\Local\Temp\ccgE0nth.s:28207  .debug_str:00000000000245a8 .LASF5637
C:\Users\SOLDER~1\AppData\Local\Temp\ccgE0nth.s:24375  .debug_str:0000000000014e90 .LASF5638
C:\Users\SOLDER~1\AppData\Local\Temp\ccgE0nth.s:27761  .debug_str:000000000002283e .LASF5639
C:\Users\SOLDER~1\AppData\Local\Temp\ccgE0nth.s:30727  .debug_str:000000000002ea45 .LASF5640
C:\Users\SOLDER~1\AppData\Local\Temp\ccgE0nth.s:30091  .debug_str:000000000002c15b .LASF5641
C:\Users\SOLDER~1\AppData\Local\Temp\ccgE0nth.s:29387  .debug_str:0000000000029338 .LASF5642
C:\Users\SOLDER~1\AppData\Local\Temp\ccgE0nth.s:20947  .debug_str:0000000000006dc8 .LASF5643
C:\Users\SOLDER~1\AppData\Local\Temp\ccgE0nth.s:24373  .debug_str:0000000000014e6a .LASF5644
C:\Users\SOLDER~1\AppData\Local\Temp\ccgE0nth.s:20943  .debug_str:0000000000006d8b .LASF5645
C:\Users\SOLDER~1\AppData\Local\Temp\ccgE0nth.s:27893  .debug_str:000000000002310c .LASF5646
C:\Users\SOLDER~1\AppData\Local\Temp\ccgE0nth.s:29911  .debug_str:000000000002b554 .LASF5647
C:\Users\SOLDER~1\AppData\Local\Temp\ccgE0nth.s:20057  .debug_str:00000000000034b7 .LASF5648
C:\Users\SOLDER~1\AppData\Local\Temp\ccgE0nth.s:29895  .debug_str:000000000002b446 .LASF5649
C:\Users\SOLDER~1\AppData\Local\Temp\ccgE0nth.s:26711  .debug_str:000000000001e49a .LASF5650
C:\Users\SOLDER~1\AppData\Local\Temp\ccgE0nth.s:23243  .debug_str:00000000000103f8 .LASF5651
C:\Users\SOLDER~1\AppData\Local\Temp\ccgE0nth.s:20907  .debug_str:0000000000006b34 .LASF5652
C:\Users\SOLDER~1\AppData\Local\Temp\ccgE0nth.s:20611  .debug_str:000000000000575e .LASF5653
C:\Users\SOLDER~1\AppData\Local\Temp\ccgE0nth.s:19841  .debug_str:0000000000002692 .LASF5654
C:\Users\SOLDER~1\AppData\Local\Temp\ccgE0nth.s:20059  .debug_str:00000000000034d8 .LASF5655
C:\Users\SOLDER~1\AppData\Local\Temp\ccgE0nth.s:23387  .debug_str:0000000000010d09 .LASF5656
C:\Users\SOLDER~1\AppData\Local\Temp\ccgE0nth.s:21521  .debug_str:0000000000009382 .LASF5657
C:\Users\SOLDER~1\AppData\Local\Temp\ccgE0nth.s:20615  .debug_str:00000000000057bf .LASF5658
C:\Users\SOLDER~1\AppData\Local\Temp\ccgE0nth.s:28555  .debug_str:0000000000025caa .LASF5659
C:\Users\SOLDER~1\AppData\Local\Temp\ccgE0nth.s:27243  .debug_str:000000000002074b .LASF5660
C:\Users\SOLDER~1\AppData\Local\Temp\ccgE0nth.s:20991  .debug_str:00000000000070f8 .LASF5661
C:\Users\SOLDER~1\AppData\Local\Temp\ccgE0nth.s:30809  .debug_str:000000000002ef47 .LASF5662
C:\Users\SOLDER~1\AppData\Local\Temp\ccgE0nth.s:21321  .debug_str:0000000000008631 .LASF5663
C:\Users\SOLDER~1\AppData\Local\Temp\ccgE0nth.s:21005  .debug_str:00000000000071e6 .LASF5664
C:\Users\SOLDER~1\AppData\Local\Temp\ccgE0nth.s:24675  .debug_str:0000000000016160 .LASF5665
C:\Users\SOLDER~1\AppData\Local\Temp\ccgE0nth.s:30629  .debug_str:000000000002e3af .LASF5666
C:\Users\SOLDER~1\AppData\Local\Temp\ccgE0nth.s:19697  .debug_str:0000000000001d5a .LASF5667
C:\Users\SOLDER~1\AppData\Local\Temp\ccgE0nth.s:24495  .debug_str:0000000000015645 .LASF5668
C:\Users\SOLDER~1\AppData\Local\Temp\ccgE0nth.s:30421  .debug_str:000000000002d67b .LASF5669
C:\Users\SOLDER~1\AppData\Local\Temp\ccgE0nth.s:26897  .debug_str:000000000001f10d .LASF5670
C:\Users\SOLDER~1\AppData\Local\Temp\ccgE0nth.s:23423  .debug_str:0000000000010f69 .LASF5671
C:\Users\SOLDER~1\AppData\Local\Temp\ccgE0nth.s:28063  .debug_str:0000000000023c11 .LASF5672
C:\Users\SOLDER~1\AppData\Local\Temp\ccgE0nth.s:27577  .debug_str:0000000000021cec .LASF5673
C:\Users\SOLDER~1\AppData\Local\Temp\ccgE0nth.s:20075  .debug_str:00000000000035d1 .LASF5674
C:\Users\SOLDER~1\AppData\Local\Temp\ccgE0nth.s:28949  .debug_str:000000000002770c .LASF5675
C:\Users\SOLDER~1\AppData\Local\Temp\ccgE0nth.s:24425  .debug_str:00000000000151a0 .LASF5676
C:\Users\SOLDER~1\AppData\Local\Temp\ccgE0nth.s:26385  .debug_str:000000000001cf97 .LASF5677
C:\Users\SOLDER~1\AppData\Local\Temp\ccgE0nth.s:30051  .debug_str:000000000002be71 .LASF5678
C:\Users\SOLDER~1\AppData\Local\Temp\ccgE0nth.s:28409  .debug_str:00000000000252de .LASF5679
C:\Users\SOLDER~1\AppData\Local\Temp\ccgE0nth.s:25841  .debug_str:000000000001ac31 .LASF5680
C:\Users\SOLDER~1\AppData\Local\Temp\ccgE0nth.s:25833  .debug_str:000000000001aba3 .LASF5681
C:\Users\SOLDER~1\AppData\Local\Temp\ccgE0nth.s:26173  .debug_str:000000000001c18b .LASF5682
C:\Users\SOLDER~1\AppData\Local\Temp\ccgE0nth.s:24359  .debug_str:0000000000014d84 .LASF5683
C:\Users\SOLDER~1\AppData\Local\Temp\ccgE0nth.s:23793  .debug_str:000000000001273a .LASF5684
C:\Users\SOLDER~1\AppData\Local\Temp\ccgE0nth.s:25839  .debug_str:000000000001ac0f .LASF5685
C:\Users\SOLDER~1\AppData\Local\Temp\ccgE0nth.s:30037  .debug_str:000000000002bd7e .LASF5686
C:\Users\SOLDER~1\AppData\Local\Temp\ccgE0nth.s:30541  .debug_str:000000000002de52 .LASF5687
C:\Users\SOLDER~1\AppData\Local\Temp\ccgE0nth.s:23213  .debug_str:0000000000010201 .LASF5688
C:\Users\SOLDER~1\AppData\Local\Temp\ccgE0nth.s:29899  .debug_str:000000000002b489 .LASF5689
C:\Users\SOLDER~1\AppData\Local\Temp\ccgE0nth.s:26587  .debug_str:000000000001dcbf .LASF5690
C:\Users\SOLDER~1\AppData\Local\Temp\ccgE0nth.s:23617  .debug_str:0000000000011c0b .LASF5691
C:\Users\SOLDER~1\AppData\Local\Temp\ccgE0nth.s:21165  .debug_str:0000000000007bf4 .LASF5692
C:\Users\SOLDER~1\AppData\Local\Temp\ccgE0nth.s:19521  .debug_str:00000000000011f1 .LASF5693
GAS LISTING C:\Users\SOLDER~1\AppData\Local\Temp\ccgE0nth.s 			page 127


C:\Users\SOLDER~1\AppData\Local\Temp\ccgE0nth.s:28105  .debug_str:0000000000023ee9 .LASF5694
C:\Users\SOLDER~1\AppData\Local\Temp\ccgE0nth.s:23765  .debug_str:0000000000012534 .LASF5695
C:\Users\SOLDER~1\AppData\Local\Temp\ccgE0nth.s:21429  .debug_str:0000000000008d30 .LASF5696
C:\Users\SOLDER~1\AppData\Local\Temp\ccgE0nth.s:20651  .debug_str:0000000000005a47 .LASF5697
C:\Users\SOLDER~1\AppData\Local\Temp\ccgE0nth.s:30121  .debug_str:000000000002c348 .LASF5698
C:\Users\SOLDER~1\AppData\Local\Temp\ccgE0nth.s:22207  .debug_str:000000000000bff3 .LASF5699
C:\Users\SOLDER~1\AppData\Local\Temp\ccgE0nth.s:22403  .debug_str:000000000000cd76 .LASF5700
C:\Users\SOLDER~1\AppData\Local\Temp\ccgE0nth.s:26503  .debug_str:000000000001d76c .LASF5701
C:\Users\SOLDER~1\AppData\Local\Temp\ccgE0nth.s:25913  .debug_str:000000000001b0b6 .LASF5702
C:\Users\SOLDER~1\AppData\Local\Temp\ccgE0nth.s:25391  .debug_str:0000000000018f88 .LASF5703
C:\Users\SOLDER~1\AppData\Local\Temp\ccgE0nth.s:21217  .debug_str:0000000000007f76 .LASF5704
C:\Users\SOLDER~1\AppData\Local\Temp\ccgE0nth.s:25661  .debug_str:000000000001a09c .LASF5705
C:\Users\SOLDER~1\AppData\Local\Temp\ccgE0nth.s:24705  .debug_str:000000000001633d .LASF5706
C:\Users\SOLDER~1\AppData\Local\Temp\ccgE0nth.s:28247  .debug_str:0000000000024850 .LASF5707
C:\Users\SOLDER~1\AppData\Local\Temp\ccgE0nth.s:23721  .debug_str:0000000000012295 .LASF5708
C:\Users\SOLDER~1\AppData\Local\Temp\ccgE0nth.s:23641  .debug_str:0000000000011db5 .LASF5709
C:\Users\SOLDER~1\AppData\Local\Temp\ccgE0nth.s:22425  .debug_str:000000000000cef0 .LASF5710
C:\Users\SOLDER~1\AppData\Local\Temp\ccgE0nth.s:22521  .debug_str:000000000000d54c .LASF5711
                           .group:0000000000000000 wm4.0.cc27e0d2094b492664a2491ca1ae43b0
                           .group:0000000000000000 wm4.ch32v20x.h.13.a030255a3e90e7179ae3b08da8e2408d
                           .group:0000000000000000 wm4._newlib_version.h.4.529115dae5e4f67702b1de0b6e841f38
                           .group:0000000000000000 wm4.features.h.33.3e67abe6fb64142d4f6fa9496796153c
                           .group:0000000000000000 wm4._default_types.h.15.247e5cd201eca3442cbf5404108c4935
                           .group:0000000000000000 wm4._intsup.h.10.48bafbb683905c4daa4565a85aeeb264
                           .group:0000000000000000 wm4._stdint.h.10.c24fa3af3bc1706662bb5593a907e841
                           .group:0000000000000000 wm4.stdint.h.23.d53047a68f4a85177f80b422d52785ed
                           .group:0000000000000000 wm4.core_riscv.h.11.151d7acb41e203dcc664023294f59bdc
                           .group:0000000000000000 wm4.ch32v20x.h.153.1d8393f26361703471ea96fe9aa4b4f9
                           .group:0000000000000000 wm4.ch32v20x_adc.h.56.f131972e7ce35efbe3b5c47a075d6d1b
                           .group:0000000000000000 wm4.ch32v20x_bkp.h.14.0a7965eb5be5000a494c3059b6f0eca5
                           .group:0000000000000000 wm4.ch32v20x_can.h.14.aa1dae2c28cbaf083875b4b61810c3c7
                           .group:0000000000000000 wm4.ch32v20x_dbgmcu.h.14.26ef95879978d9caaa154b373f3a512b
                           .group:0000000000000000 wm4.ch32v20x_dma.h.14.425a907348dd0134bf6e82c73bbd3df8
                           .group:0000000000000000 wm4.ch32v20x_exti.h.14.f67190d3fb91aa9aecce0f4d5a543221
                           .group:0000000000000000 wm4.ch32v20x_flash.h.14.91c5ecdad44f358d5032244aabf7ef4e
                           .group:0000000000000000 wm4.ch32v20x_gpio.h.14.bdb7f79cce0dffbc24dc81ea80f90bd2
                           .group:0000000000000000 wm4.ch32v20x_i2c.h.14.101eb625c9d2afac400f4e8ac2e9fb1d
                           .group:0000000000000000 wm4.ch32v20x_iwdg.h.14.26025d04ceeb3151185969ed5850fbb4
                           .group:0000000000000000 wm4.ch32v20x_pwr.h.14.8eaa3508938f71b27f140895c21602e6
                           .group:0000000000000000 wm4.ch32v20x_rcc.h.13.18c6b8696a30372de01acaf3c246ecb8
                           .group:0000000000000000 wm4.ch32v20x_spi.h.14.f12b1f237c615e7304ae62cc2e2c3c1a
                           .group:0000000000000000 wm4.ch32v20x_tim.h.14.35d11fab62898d9d661122ade86d8a6c
                           .group:0000000000000000 wm4.ch32v20x_usart.h.14.9d28c7ec28f2121810b69a55079cd38f
                           .group:0000000000000000 wm4.ch32v20x_wwdg.h.14.49bada437175894a4dce7e12e4216bc9
                           .group:0000000000000000 wm4.ch32v20x_misc.h.14.f3992cf724c30ec0bea268444ffdb6e0
                           .group:0000000000000000 wm4.ch32v20x_rtc.h.31.1b2649683566169e43c10daa43098baf

NO UNDEFINED SYMBOLS
