GAS LISTING C:\Users\SOLDER~1\AppData\Local\Temp\ccheWc1y.s 			page 1


   1              		.file	"ch32v20x_usart.c"
   2              		.option nopic
   3              		.attribute arch, "rv32i2p0_m2p0_a2p0_c2p0_xw"
   4              		.attribute unaligned_access, 0
   5              		.attribute stack_align, 16
   6              		.text
   7              	.Ltext0:
   8              		.cfi_sections	.debug_frame
   9              		.file 0 "C:\\Users\\Solderingiron\\Documents\\GitHub\\VSC-make-example\\VSC_CH32V203C8T6" "Drivers
  10              		.section	.text.USART_DeInit,"ax",@progbits
  11              		.align	1
  12              		.globl	USART_DeInit
  14              	USART_DeInit:
  15              	.LFB16:
  16              		.file 1 "Drivers/src/ch32v20x_usart.c"
   1:Drivers/src/ch32v20x_usart.c **** /********************************** (C) COPYRIGHT *******************************
   2:Drivers/src/ch32v20x_usart.c ****  * File Name          : ch32v20x_usart.c
   3:Drivers/src/ch32v20x_usart.c ****  * Author             : WCH
   4:Drivers/src/ch32v20x_usart.c ****  * Version            : V1.0.0
   5:Drivers/src/ch32v20x_usart.c ****  * Date               : 2021/06/06
   6:Drivers/src/ch32v20x_usart.c ****  * Description        : This file provides all the USART firmware functions.
   7:Drivers/src/ch32v20x_usart.c **** *********************************************************************************
   8:Drivers/src/ch32v20x_usart.c **** * Copyright (c) 2021 Nanjing Qinheng Microelectronics Co., Ltd.
   9:Drivers/src/ch32v20x_usart.c **** * Attention: This software (modified or not) and binary are used for 
  10:Drivers/src/ch32v20x_usart.c **** * microcontroller manufactured by Nanjing Qinheng Microelectronics.
  11:Drivers/src/ch32v20x_usart.c **** *******************************************************************************/
  12:Drivers/src/ch32v20x_usart.c **** #include "ch32v20x_usart.h"
  13:Drivers/src/ch32v20x_usart.c **** #include "ch32v20x_rcc.h"
  14:Drivers/src/ch32v20x_usart.c **** 
  15:Drivers/src/ch32v20x_usart.c **** /* USART_Private_Defines */
  16:Drivers/src/ch32v20x_usart.c **** #define CTLR1_UE_Set              ((uint16_t)0x2000) /* USART Enable Mask */
  17:Drivers/src/ch32v20x_usart.c **** #define CTLR1_UE_Reset            ((uint16_t)0xDFFF) /* USART Disable Mask */
  18:Drivers/src/ch32v20x_usart.c **** 
  19:Drivers/src/ch32v20x_usart.c **** #define CTLR1_WAKE_Mask           ((uint16_t)0xF7FF) /* USART WakeUp Method Mask */
  20:Drivers/src/ch32v20x_usart.c **** 
  21:Drivers/src/ch32v20x_usart.c **** #define CTLR1_RWU_Set             ((uint16_t)0x0002) /* USART mute mode Enable Mask */
  22:Drivers/src/ch32v20x_usart.c **** #define CTLR1_RWU_Reset           ((uint16_t)0xFFFD) /* USART mute mode Enable Mask */
  23:Drivers/src/ch32v20x_usart.c **** #define CTLR1_SBK_Set             ((uint16_t)0x0001) /* USART Break Character send Mask */
  24:Drivers/src/ch32v20x_usart.c **** #define CTLR1_CLEAR_Mask          ((uint16_t)0xE9F3) /* USART CR1 Mask */
  25:Drivers/src/ch32v20x_usart.c **** #define CTLR2_Address_Mask        ((uint16_t)0xFFF0) /* USART address Mask */
  26:Drivers/src/ch32v20x_usart.c **** 
  27:Drivers/src/ch32v20x_usart.c **** #define CTLR2_LINEN_Set           ((uint16_t)0x4000) /* USART LIN Enable Mask */
  28:Drivers/src/ch32v20x_usart.c **** #define CTLR2_LINEN_Reset         ((uint16_t)0xBFFF) /* USART LIN Disable Mask */
  29:Drivers/src/ch32v20x_usart.c **** 
  30:Drivers/src/ch32v20x_usart.c **** #define CTLR2_LBDL_Mask           ((uint16_t)0xFFDF) /* USART LIN Break detection Mask */
  31:Drivers/src/ch32v20x_usart.c **** #define CTLR2_STOP_CLEAR_Mask     ((uint16_t)0xCFFF) /* USART CR2 STOP Bits Mask */
  32:Drivers/src/ch32v20x_usart.c **** #define CTLR2_CLOCK_CLEAR_Mask    ((uint16_t)0xF0FF) /* USART CR2 Clock Mask */
  33:Drivers/src/ch32v20x_usart.c **** 
  34:Drivers/src/ch32v20x_usart.c **** #define CTLR3_SCEN_Set            ((uint16_t)0x0020) /* USART SC Enable Mask */
  35:Drivers/src/ch32v20x_usart.c **** #define CTLR3_SCEN_Reset          ((uint16_t)0xFFDF) /* USART SC Disable Mask */
  36:Drivers/src/ch32v20x_usart.c **** 
  37:Drivers/src/ch32v20x_usart.c **** #define CTLR3_NACK_Set            ((uint16_t)0x0010) /* USART SC NACK Enable Mask */
  38:Drivers/src/ch32v20x_usart.c **** #define CTLR3_NACK_Reset          ((uint16_t)0xFFEF) /* USART SC NACK Disable Mask */
  39:Drivers/src/ch32v20x_usart.c **** 
  40:Drivers/src/ch32v20x_usart.c **** #define CTLR3_HDSEL_Set           ((uint16_t)0x0008) /* USART Half-Duplex Enable Mask */
  41:Drivers/src/ch32v20x_usart.c **** #define CTLR3_HDSEL_Reset         ((uint16_t)0xFFF7) /* USART Half-Duplex Disable Mask */
  42:Drivers/src/ch32v20x_usart.c **** 
GAS LISTING C:\Users\SOLDER~1\AppData\Local\Temp\ccheWc1y.s 			page 2


  43:Drivers/src/ch32v20x_usart.c **** #define CTLR3_IRLP_Mask           ((uint16_t)0xFFFB) /* USART IrDA LowPower mode Mask */
  44:Drivers/src/ch32v20x_usart.c **** #define CTLR3_CLEAR_Mask          ((uint16_t)0xFCFF) /* USART CR3 Mask */
  45:Drivers/src/ch32v20x_usart.c **** 
  46:Drivers/src/ch32v20x_usart.c **** #define CTLR3_IREN_Set            ((uint16_t)0x0002) /* USART IrDA Enable Mask */
  47:Drivers/src/ch32v20x_usart.c **** #define CTLR3_IREN_Reset          ((uint16_t)0xFFFD) /* USART IrDA Disable Mask */
  48:Drivers/src/ch32v20x_usart.c **** #define GPR_LSB_Mask              ((uint16_t)0x00FF) /* Guard Time Register LSB Mask */
  49:Drivers/src/ch32v20x_usart.c **** #define GPR_MSB_Mask              ((uint16_t)0xFF00) /* Guard Time Register MSB Mask */
  50:Drivers/src/ch32v20x_usart.c **** #define IT_Mask                   ((uint16_t)0x001F) /* USART Interrupt Mask */
  51:Drivers/src/ch32v20x_usart.c **** 
  52:Drivers/src/ch32v20x_usart.c **** /* USART OverSampling-8 Mask */
  53:Drivers/src/ch32v20x_usart.c **** #define CTLR1_OVER8_Set           ((uint16_t)0x8000) /* USART OVER8 mode Enable Mask */
  54:Drivers/src/ch32v20x_usart.c **** #define CTLR1_OVER8_Reset         ((uint16_t)0x7FFF) /* USART OVER8 mode Disable Mask */
  55:Drivers/src/ch32v20x_usart.c **** 
  56:Drivers/src/ch32v20x_usart.c **** /* USART One Bit Sampling Mask */
  57:Drivers/src/ch32v20x_usart.c **** #define CTLR3_ONEBITE_Set         ((uint16_t)0x0800) /* USART ONEBITE mode Enable Mask */
  58:Drivers/src/ch32v20x_usart.c **** #define CTLR3_ONEBITE_Reset       ((uint16_t)0xF7FF) /* USART ONEBITE mode Disable Mask */
  59:Drivers/src/ch32v20x_usart.c **** 
  60:Drivers/src/ch32v20x_usart.c **** /*********************************************************************
  61:Drivers/src/ch32v20x_usart.c ****  * @fn      USART_DeInit
  62:Drivers/src/ch32v20x_usart.c ****  *
  63:Drivers/src/ch32v20x_usart.c ****  * @brief   Deinitializes the USARTx peripheral registers to their default
  64:Drivers/src/ch32v20x_usart.c ****  *        reset values.
  65:Drivers/src/ch32v20x_usart.c ****  *
  66:Drivers/src/ch32v20x_usart.c ****  * @param   USARTx - where x can be 1, 2 or 3 to select the UART peripheral.
  67:Drivers/src/ch32v20x_usart.c ****  *
  68:Drivers/src/ch32v20x_usart.c ****  * @return  none
  69:Drivers/src/ch32v20x_usart.c ****  */
  70:Drivers/src/ch32v20x_usart.c **** void USART_DeInit(USART_TypeDef *USARTx)
  71:Drivers/src/ch32v20x_usart.c **** {
  17              		.loc 1 71 1
  18              		.cfi_startproc
  19 0000 0111     		addi	sp,sp,-32
  20              		.cfi_def_cfa_offset 32
  21 0002 06CE     		sw	ra,28(sp)
  22 0004 22CC     		sw	s0,24(sp)
  23              		.cfi_offset 1, -4
  24              		.cfi_offset 8, -8
  25 0006 0010     		addi	s0,sp,32
  26              		.cfi_def_cfa 8, 0
  27 0008 2326A4FE 		sw	a0,-20(s0)
  72:Drivers/src/ch32v20x_usart.c ****     if(USARTx == USART1)
  28              		.loc 1 72 7
  29 000c 0327C4FE 		lw	a4,-20(s0)
  30 0010 B7470140 		li	a5,1073823744
  31 0014 93870780 		addi	a5,a5,-2048
  32 0018 631FF700 		bne	a4,a5,.L2
  73:Drivers/src/ch32v20x_usart.c ****     {
  74:Drivers/src/ch32v20x_usart.c ****         RCC_APB2PeriphResetCmd(RCC_APB2Periph_USART1, ENABLE);
  33              		.loc 1 74 9
  34 001c 8545     		li	a1,1
  35 001e 1165     		li	a0,16384
  36 0020 97000000 		call	RCC_APB2PeriphResetCmd
  36      E7800000 
  75:Drivers/src/ch32v20x_usart.c ****         RCC_APB2PeriphResetCmd(RCC_APB2Periph_USART1, DISABLE);
  37              		.loc 1 75 9
  38 0028 8145     		li	a1,0
  39 002a 1165     		li	a0,16384
GAS LISTING C:\Users\SOLDER~1\AppData\Local\Temp\ccheWc1y.s 			page 3


  40 002c 97000000 		call	RCC_APB2PeriphResetCmd
  40      E7800000 
  76:Drivers/src/ch32v20x_usart.c ****     }
  77:Drivers/src/ch32v20x_usart.c ****     else if(USARTx == USART2)
  78:Drivers/src/ch32v20x_usart.c ****     {
  79:Drivers/src/ch32v20x_usart.c ****         RCC_APB1PeriphResetCmd(RCC_APB1Periph_USART2, ENABLE);
  80:Drivers/src/ch32v20x_usart.c ****         RCC_APB1PeriphResetCmd(RCC_APB1Periph_USART2, DISABLE);
  81:Drivers/src/ch32v20x_usart.c ****     }
  82:Drivers/src/ch32v20x_usart.c ****     else if(USARTx == USART3)
  83:Drivers/src/ch32v20x_usart.c ****     {
  84:Drivers/src/ch32v20x_usart.c ****         RCC_APB1PeriphResetCmd(RCC_APB1Periph_USART3, ENABLE);
  85:Drivers/src/ch32v20x_usart.c ****         RCC_APB1PeriphResetCmd(RCC_APB1Periph_USART3, DISABLE);
  86:Drivers/src/ch32v20x_usart.c ****     }
  87:Drivers/src/ch32v20x_usart.c ****     else if(USARTx == UART4)
  88:Drivers/src/ch32v20x_usart.c ****     {
  89:Drivers/src/ch32v20x_usart.c ****         RCC_APB1PeriphResetCmd(RCC_APB1Periph_UART4, ENABLE);
  90:Drivers/src/ch32v20x_usart.c ****         RCC_APB1PeriphResetCmd(RCC_APB1Periph_UART4, DISABLE);
  91:Drivers/src/ch32v20x_usart.c ****     }
  92:Drivers/src/ch32v20x_usart.c **** }
  41              		.loc 1 92 1
  42 0034 69A0     		j	.L6
  43              	.L2:
  77:Drivers/src/ch32v20x_usart.c ****     {
  44              		.loc 1 77 12
  45 0036 0327C4FE 		lw	a4,-20(s0)
  46 003a B7470040 		li	a5,1073758208
  47 003e 93870740 		addi	a5,a5,1024
  48 0042 6311F702 		bne	a4,a5,.L4
  79:Drivers/src/ch32v20x_usart.c ****         RCC_APB1PeriphResetCmd(RCC_APB1Periph_USART2, DISABLE);
  49              		.loc 1 79 9
  50 0046 8545     		li	a1,1
  51 0048 37050200 		li	a0,131072
  52 004c 97000000 		call	RCC_APB1PeriphResetCmd
  52      E7800000 
  80:Drivers/src/ch32v20x_usart.c ****     }
  53              		.loc 1 80 9
  54 0054 8145     		li	a1,0
  55 0056 37050200 		li	a0,131072
  56 005a 97000000 		call	RCC_APB1PeriphResetCmd
  56      E7800000 
  57              		.loc 1 92 1
  58 0062 B1A8     		j	.L6
  59              	.L4:
  82:Drivers/src/ch32v20x_usart.c ****     {
  60              		.loc 1 82 12
  61 0064 0327C4FE 		lw	a4,-20(s0)
  62 0068 B7570040 		li	a5,1073762304
  63 006c 93870780 		addi	a5,a5,-2048
  64 0070 6311F702 		bne	a4,a5,.L5
  84:Drivers/src/ch32v20x_usart.c ****         RCC_APB1PeriphResetCmd(RCC_APB1Periph_USART3, DISABLE);
  65              		.loc 1 84 9
  66 0074 8545     		li	a1,1
  67 0076 37050400 		li	a0,262144
  68 007a 97000000 		call	RCC_APB1PeriphResetCmd
  68      E7800000 
  85:Drivers/src/ch32v20x_usart.c ****     }
  69              		.loc 1 85 9
GAS LISTING C:\Users\SOLDER~1\AppData\Local\Temp\ccheWc1y.s 			page 4


  70 0082 8145     		li	a1,0
  71 0084 37050400 		li	a0,262144
  72 0088 97000000 		call	RCC_APB1PeriphResetCmd
  72      E7800000 
  73              		.loc 1 92 1
  74 0090 3DA0     		j	.L6
  75              	.L5:
  87:Drivers/src/ch32v20x_usart.c ****     {
  76              		.loc 1 87 12
  77 0092 0327C4FE 		lw	a4,-20(s0)
  78 0096 B7570040 		li	a5,1073762304
  79 009a 938707C0 		addi	a5,a5,-1024
  80 009e 6310F702 		bne	a4,a5,.L6
  89:Drivers/src/ch32v20x_usart.c ****         RCC_APB1PeriphResetCmd(RCC_APB1Periph_UART4, DISABLE);
  81              		.loc 1 89 9
  82 00a2 8545     		li	a1,1
  83 00a4 37050800 		li	a0,524288
  84 00a8 97000000 		call	RCC_APB1PeriphResetCmd
  84      E7800000 
  90:Drivers/src/ch32v20x_usart.c ****     }
  85              		.loc 1 90 9
  86 00b0 8145     		li	a1,0
  87 00b2 37050800 		li	a0,524288
  88 00b6 97000000 		call	RCC_APB1PeriphResetCmd
  88      E7800000 
  89              	.L6:
  90              		.loc 1 92 1
  91 00be 0100     		nop
  92 00c0 F240     		lw	ra,28(sp)
  93              		.cfi_restore 1
  94 00c2 6244     		lw	s0,24(sp)
  95              		.cfi_restore 8
  96              		.cfi_def_cfa 2, 32
  97 00c4 0561     		addi	sp,sp,32
  98              		.cfi_def_cfa_offset 0
  99 00c6 8280     		jr	ra
 100              		.cfi_endproc
 101              	.LFE16:
 103              		.section	.text.USART_Init,"ax",@progbits
 104              		.align	1
 105              		.globl	USART_Init
 107              	USART_Init:
 108              	.LFB17:
  93:Drivers/src/ch32v20x_usart.c **** 
  94:Drivers/src/ch32v20x_usart.c **** /*********************************************************************
  95:Drivers/src/ch32v20x_usart.c ****  * @fn      USART_Init
  96:Drivers/src/ch32v20x_usart.c ****  *
  97:Drivers/src/ch32v20x_usart.c ****  * @brief   Initializes the USARTx peripheral according to the specified
  98:Drivers/src/ch32v20x_usart.c ****  *        parameters in the USART_InitStruct.
  99:Drivers/src/ch32v20x_usart.c ****  *
 100:Drivers/src/ch32v20x_usart.c ****  * @param   USARTx - where x can be 1, 2 or 3 to select the UART peripheral.
 101:Drivers/src/ch32v20x_usart.c ****  *          USART_InitStruct - pointer to a USART_InitTypeDef structure
 102:Drivers/src/ch32v20x_usart.c ****  *        that contains the configuration information for the specified
 103:Drivers/src/ch32v20x_usart.c ****  *        USART peripheral.
 104:Drivers/src/ch32v20x_usart.c ****  *
 105:Drivers/src/ch32v20x_usart.c ****  * @return  none
 106:Drivers/src/ch32v20x_usart.c ****  */
GAS LISTING C:\Users\SOLDER~1\AppData\Local\Temp\ccheWc1y.s 			page 5


 107:Drivers/src/ch32v20x_usart.c **** void USART_Init(USART_TypeDef *USARTx, USART_InitTypeDef *USART_InitStruct)
 108:Drivers/src/ch32v20x_usart.c **** {
 109              		.loc 1 108 1
 110              		.cfi_startproc
 111 0000 5D71     		addi	sp,sp,-80
 112              		.cfi_def_cfa_offset 80
 113 0002 86C6     		sw	ra,76(sp)
 114 0004 A2C4     		sw	s0,72(sp)
 115              		.cfi_offset 1, -4
 116              		.cfi_offset 8, -8
 117 0006 8008     		addi	s0,sp,80
 118              		.cfi_def_cfa 8, 0
 119 0008 232EA4FA 		sw	a0,-68(s0)
 120 000c 232CB4FA 		sw	a1,-72(s0)
 109:Drivers/src/ch32v20x_usart.c ****     uint32_t          tmpreg = 0x00, apbclock = 0x00;
 121              		.loc 1 109 23
 122 0010 232604FE 		sw	zero,-20(s0)
 123              		.loc 1 109 38
 124 0014 232404FE 		sw	zero,-24(s0)
 110:Drivers/src/ch32v20x_usart.c ****     uint32_t          integerdivider = 0x00;
 125              		.loc 1 110 23
 126 0018 232204FE 		sw	zero,-28(s0)
 111:Drivers/src/ch32v20x_usart.c ****     uint32_t          fractionaldivider = 0x00;
 127              		.loc 1 111 23
 128 001c 232004FE 		sw	zero,-32(s0)
 112:Drivers/src/ch32v20x_usart.c ****     uint32_t          usartxbase = 0;
 129              		.loc 1 112 23
 130 0020 232E04FC 		sw	zero,-36(s0)
 113:Drivers/src/ch32v20x_usart.c ****     RCC_ClocksTypeDef RCC_ClocksStatus;
 114:Drivers/src/ch32v20x_usart.c **** 
 115:Drivers/src/ch32v20x_usart.c ****     if(USART_InitStruct->USART_HardwareFlowControl != USART_HardwareFlowControl_None)
 116:Drivers/src/ch32v20x_usart.c ****     {
 117:Drivers/src/ch32v20x_usart.c ****     }
 118:Drivers/src/ch32v20x_usart.c **** 
 119:Drivers/src/ch32v20x_usart.c ****     usartxbase = (uint32_t)USARTx;
 131              		.loc 1 119 16
 132 0024 8327C4FB 		lw	a5,-68(s0)
 133 0028 232EF4FC 		sw	a5,-36(s0)
 120:Drivers/src/ch32v20x_usart.c ****     tmpreg = USARTx->CTLR2;
 134              		.loc 1 120 20
 135 002c 8327C4FB 		lw	a5,-68(s0)
 136 0030 9E2B     		lhu	a5,16(a5)
 137 0032 C207     		slli	a5,a5,16
 138 0034 C183     		srli	a5,a5,16
 139              		.loc 1 120 12
 140 0036 2326F4FE 		sw	a5,-20(s0)
 121:Drivers/src/ch32v20x_usart.c ****     tmpreg &= CTLR2_STOP_CLEAR_Mask;
 141              		.loc 1 121 12
 142 003a 0327C4FE 		lw	a4,-20(s0)
 143 003e B567     		li	a5,53248
 144 0040 FD17     		addi	a5,a5,-1
 145 0042 F98F     		and	a5,a4,a5
 146 0044 2326F4FE 		sw	a5,-20(s0)
 122:Drivers/src/ch32v20x_usart.c ****     tmpreg |= (uint32_t)USART_InitStruct->USART_StopBits;
 147              		.loc 1 122 41
 148 0048 832784FB 		lw	a5,-72(s0)
 149 004c FE23     		lhu	a5,6(a5)
GAS LISTING C:\Users\SOLDER~1\AppData\Local\Temp\ccheWc1y.s 			page 6


 150              		.loc 1 122 15
 151 004e 3E87     		mv	a4,a5
 152              		.loc 1 122 12
 153 0050 8327C4FE 		lw	a5,-20(s0)
 154 0054 D98F     		or	a5,a5,a4
 155 0056 2326F4FE 		sw	a5,-20(s0)
 123:Drivers/src/ch32v20x_usart.c **** 
 124:Drivers/src/ch32v20x_usart.c ****     USARTx->CTLR2 = (uint16_t)tmpreg;
 156              		.loc 1 124 21
 157 005a 8327C4FE 		lw	a5,-20(s0)
 158 005e 13970701 		slli	a4,a5,16
 159 0062 4183     		srli	a4,a4,16
 160              		.loc 1 124 19
 161 0064 8327C4FB 		lw	a5,-68(s0)
 162 0068 9AAB     		sh	a4,16(a5)
 125:Drivers/src/ch32v20x_usart.c ****     tmpreg = USARTx->CTLR1;
 163              		.loc 1 125 20
 164 006a 8327C4FB 		lw	a5,-68(s0)
 165 006e DE27     		lhu	a5,12(a5)
 166 0070 C207     		slli	a5,a5,16
 167 0072 C183     		srli	a5,a5,16
 168              		.loc 1 125 12
 169 0074 2326F4FE 		sw	a5,-20(s0)
 126:Drivers/src/ch32v20x_usart.c ****     tmpreg &= CTLR1_CLEAR_Mask;
 170              		.loc 1 126 12
 171 0078 0327C4FE 		lw	a4,-20(s0)
 172 007c BD67     		li	a5,61440
 173 007e 9387379F 		addi	a5,a5,-1549
 174 0082 F98F     		and	a5,a4,a5
 175 0084 2326F4FE 		sw	a5,-20(s0)
 127:Drivers/src/ch32v20x_usart.c ****     tmpreg |= (uint32_t)USART_InitStruct->USART_WordLength | USART_InitStruct->USART_Parity |
 176              		.loc 1 127 41
 177 0088 832784FB 		lw	a5,-72(s0)
 178 008c DA23     		lhu	a4,4(a5)
 179              		.loc 1 127 78
 180 008e 832784FB 		lw	a5,-72(s0)
 181 0092 9E27     		lhu	a5,8(a5)
 182              		.loc 1 127 93
 183 0094 D98F     		or	a5,a4,a5
 184 0096 13970701 		slli	a4,a5,16
 185 009a 4183     		srli	a4,a4,16
 128:Drivers/src/ch32v20x_usart.c ****               USART_InitStruct->USART_Mode;
 186              		.loc 1 128 31
 187 009c 832784FB 		lw	a5,-72(s0)
 188 00a0 BE27     		lhu	a5,10(a5)
 127:Drivers/src/ch32v20x_usart.c ****     tmpreg |= (uint32_t)USART_InitStruct->USART_WordLength | USART_InitStruct->USART_Parity |
 189              		.loc 1 127 93
 190 00a2 D98F     		or	a5,a4,a5
 191 00a4 C207     		slli	a5,a5,16
 192 00a6 C183     		srli	a5,a5,16
 193 00a8 3E87     		mv	a4,a5
 127:Drivers/src/ch32v20x_usart.c ****     tmpreg |= (uint32_t)USART_InitStruct->USART_WordLength | USART_InitStruct->USART_Parity |
 194              		.loc 1 127 12
 195 00aa 8327C4FE 		lw	a5,-20(s0)
 196 00ae D98F     		or	a5,a5,a4
 197 00b0 2326F4FE 		sw	a5,-20(s0)
 129:Drivers/src/ch32v20x_usart.c ****     USARTx->CTLR1 = (uint16_t)tmpreg;
GAS LISTING C:\Users\SOLDER~1\AppData\Local\Temp\ccheWc1y.s 			page 7


 198              		.loc 1 129 21
 199 00b4 8327C4FE 		lw	a5,-20(s0)
 200 00b8 13970701 		slli	a4,a5,16
 201 00bc 4183     		srli	a4,a4,16
 202              		.loc 1 129 19
 203 00be 8327C4FB 		lw	a5,-68(s0)
 204 00c2 DAA7     		sh	a4,12(a5)
 130:Drivers/src/ch32v20x_usart.c **** 
 131:Drivers/src/ch32v20x_usart.c ****     tmpreg = USARTx->CTLR3;
 205              		.loc 1 131 20
 206 00c4 8327C4FB 		lw	a5,-68(s0)
 207 00c8 DE2B     		lhu	a5,20(a5)
 208 00ca C207     		slli	a5,a5,16
 209 00cc C183     		srli	a5,a5,16
 210              		.loc 1 131 12
 211 00ce 2326F4FE 		sw	a5,-20(s0)
 132:Drivers/src/ch32v20x_usart.c ****     tmpreg &= CTLR3_CLEAR_Mask;
 212              		.loc 1 132 12
 213 00d2 0327C4FE 		lw	a4,-20(s0)
 214 00d6 C167     		li	a5,65536
 215 00d8 9387F7CF 		addi	a5,a5,-769
 216 00dc F98F     		and	a5,a4,a5
 217 00de 2326F4FE 		sw	a5,-20(s0)
 133:Drivers/src/ch32v20x_usart.c ****     tmpreg |= USART_InitStruct->USART_HardwareFlowControl;
 218              		.loc 1 133 31
 219 00e2 832784FB 		lw	a5,-72(s0)
 220 00e6 DE27     		lhu	a5,12(a5)
 221 00e8 3E87     		mv	a4,a5
 222              		.loc 1 133 12
 223 00ea 8327C4FE 		lw	a5,-20(s0)
 224 00ee D98F     		or	a5,a5,a4
 225 00f0 2326F4FE 		sw	a5,-20(s0)
 134:Drivers/src/ch32v20x_usart.c ****     USARTx->CTLR3 = (uint16_t)tmpreg;
 226              		.loc 1 134 21
 227 00f4 8327C4FE 		lw	a5,-20(s0)
 228 00f8 13970701 		slli	a4,a5,16
 229 00fc 4183     		srli	a4,a4,16
 230              		.loc 1 134 19
 231 00fe 8327C4FB 		lw	a5,-68(s0)
 232 0102 DAAB     		sh	a4,20(a5)
 135:Drivers/src/ch32v20x_usart.c **** 
 136:Drivers/src/ch32v20x_usart.c ****     RCC_GetClocksFreq(&RCC_ClocksStatus);
 233              		.loc 1 136 5
 234 0104 930784FC 		addi	a5,s0,-56
 235 0108 3E85     		mv	a0,a5
 236 010a 97000000 		call	RCC_GetClocksFreq
 236      E7800000 
 137:Drivers/src/ch32v20x_usart.c **** 
 138:Drivers/src/ch32v20x_usart.c ****     if(usartxbase == USART1_BASE)
 237              		.loc 1 138 7
 238 0112 0327C4FD 		lw	a4,-36(s0)
 239 0116 B7470140 		li	a5,1073823744
 240 011a 93870780 		addi	a5,a5,-2048
 241 011e 6317F700 		bne	a4,a5,.L8
 139:Drivers/src/ch32v20x_usart.c ****     {
 140:Drivers/src/ch32v20x_usart.c ****         apbclock = RCC_ClocksStatus.PCLK2_Frequency;
 242              		.loc 1 140 18
GAS LISTING C:\Users\SOLDER~1\AppData\Local\Temp\ccheWc1y.s 			page 8


 243 0122 832744FD 		lw	a5,-44(s0)
 244 0126 2324F4FE 		sw	a5,-24(s0)
 245 012a 29A0     		j	.L9
 246              	.L8:
 141:Drivers/src/ch32v20x_usart.c ****     }
 142:Drivers/src/ch32v20x_usart.c ****     else
 143:Drivers/src/ch32v20x_usart.c ****     {
 144:Drivers/src/ch32v20x_usart.c ****         apbclock = RCC_ClocksStatus.PCLK1_Frequency;
 247              		.loc 1 144 18
 248 012c 832704FD 		lw	a5,-48(s0)
 249 0130 2324F4FE 		sw	a5,-24(s0)
 250              	.L9:
 145:Drivers/src/ch32v20x_usart.c ****     }
 146:Drivers/src/ch32v20x_usart.c **** 
 147:Drivers/src/ch32v20x_usart.c ****     if((USARTx->CTLR1 & CTLR1_OVER8_Set) != 0)
 251              		.loc 1 147 15
 252 0134 8327C4FB 		lw	a5,-68(s0)
 253 0138 DE27     		lhu	a5,12(a5)
 254 013a C207     		slli	a5,a5,16
 255 013c C183     		srli	a5,a5,16
 256              		.loc 1 147 42
 257 013e C207     		slli	a5,a5,16
 258 0140 C187     		srai	a5,a5,16
 259              		.loc 1 147 7
 260 0142 63D20702 		bge	a5,zero,.L10
 148:Drivers/src/ch32v20x_usart.c ****     {
 149:Drivers/src/ch32v20x_usart.c ****         integerdivider = ((25 * apbclock) / (2 * (USART_InitStruct->USART_BaudRate)));
 261              		.loc 1 149 31
 262 0146 032784FE 		lw	a4,-24(s0)
 263 014a BA87     		mv	a5,a4
 264 014c 8607     		slli	a5,a5,1
 265 014e BA97     		add	a5,a5,a4
 266 0150 8E07     		slli	a5,a5,3
 267 0152 3E97     		add	a4,a5,a4
 268              		.loc 1 149 67
 269 0154 832784FB 		lw	a5,-72(s0)
 270 0158 9C43     		lw	a5,0(a5)
 271              		.loc 1 149 48
 272 015a 8607     		slli	a5,a5,1
 273              		.loc 1 149 24
 274 015c B357F702 		divu	a5,a4,a5
 275 0160 2322F4FE 		sw	a5,-28(s0)
 276 0164 05A0     		j	.L11
 277              	.L10:
 150:Drivers/src/ch32v20x_usart.c ****     }
 151:Drivers/src/ch32v20x_usart.c ****     else
 152:Drivers/src/ch32v20x_usart.c ****     {
 153:Drivers/src/ch32v20x_usart.c ****         integerdivider = ((25 * apbclock) / (4 * (USART_InitStruct->USART_BaudRate)));
 278              		.loc 1 153 31
 279 0166 032784FE 		lw	a4,-24(s0)
 280 016a BA87     		mv	a5,a4
 281 016c 8607     		slli	a5,a5,1
 282 016e BA97     		add	a5,a5,a4
 283 0170 8E07     		slli	a5,a5,3
 284 0172 3E97     		add	a4,a5,a4
 285              		.loc 1 153 67
 286 0174 832784FB 		lw	a5,-72(s0)
GAS LISTING C:\Users\SOLDER~1\AppData\Local\Temp\ccheWc1y.s 			page 9


 287 0178 9C43     		lw	a5,0(a5)
 288              		.loc 1 153 48
 289 017a 8A07     		slli	a5,a5,2
 290              		.loc 1 153 24
 291 017c B357F702 		divu	a5,a4,a5
 292 0180 2322F4FE 		sw	a5,-28(s0)
 293              	.L11:
 154:Drivers/src/ch32v20x_usart.c ****     }
 155:Drivers/src/ch32v20x_usart.c ****     tmpreg = (integerdivider / 100) << 4;
 294              		.loc 1 155 30
 295 0184 032744FE 		lw	a4,-28(s0)
 296 0188 93074006 		li	a5,100
 297 018c B357F702 		divu	a5,a4,a5
 298              		.loc 1 155 12
 299 0190 9207     		slli	a5,a5,4
 300 0192 2326F4FE 		sw	a5,-20(s0)
 156:Drivers/src/ch32v20x_usart.c **** 
 157:Drivers/src/ch32v20x_usart.c ****     fractionaldivider = integerdivider - (100 * (tmpreg >> 4));
 301              		.loc 1 157 57
 302 0196 8327C4FE 		lw	a5,-20(s0)
 303 019a 13D74700 		srli	a4,a5,4
 304              		.loc 1 157 47
 305 019e 93074006 		li	a5,100
 306 01a2 B307F702 		mul	a5,a4,a5
 307              		.loc 1 157 23
 308 01a6 032744FE 		lw	a4,-28(s0)
 309 01aa B307F740 		sub	a5,a4,a5
 310 01ae 2320F4FE 		sw	a5,-32(s0)
 158:Drivers/src/ch32v20x_usart.c **** 
 159:Drivers/src/ch32v20x_usart.c ****     if((USARTx->CTLR1 & CTLR1_OVER8_Set) != 0)
 311              		.loc 1 159 15
 312 01b2 8327C4FB 		lw	a5,-68(s0)
 313 01b6 DE27     		lhu	a5,12(a5)
 314 01b8 C207     		slli	a5,a5,16
 315 01ba C183     		srli	a5,a5,16
 316              		.loc 1 159 42
 317 01bc C207     		slli	a5,a5,16
 318 01be C187     		srai	a5,a5,16
 319              		.loc 1 159 7
 320 01c0 63D20702 		bge	a5,zero,.L12
 160:Drivers/src/ch32v20x_usart.c ****     {
 161:Drivers/src/ch32v20x_usart.c ****         tmpreg |= ((((fractionaldivider * 8) + 50) / 100)) & ((uint8_t)0x07);
 321              		.loc 1 161 41
 322 01c4 832704FE 		lw	a5,-32(s0)
 323 01c8 8E07     		slli	a5,a5,3
 324              		.loc 1 161 46
 325 01ca 13872703 		addi	a4,a5,50
 326              		.loc 1 161 52
 327 01ce 93074006 		li	a5,100
 328 01d2 B357F702 		divu	a5,a4,a5
 329              		.loc 1 161 60
 330 01d6 9D8B     		andi	a5,a5,7
 331              		.loc 1 161 16
 332 01d8 0327C4FE 		lw	a4,-20(s0)
 333 01dc D98F     		or	a5,a4,a5
 334 01de 2326F4FE 		sw	a5,-20(s0)
 335 01e2 05A0     		j	.L13
GAS LISTING C:\Users\SOLDER~1\AppData\Local\Temp\ccheWc1y.s 			page 10


 336              	.L12:
 162:Drivers/src/ch32v20x_usart.c ****     }
 163:Drivers/src/ch32v20x_usart.c ****     else
 164:Drivers/src/ch32v20x_usart.c ****     {
 165:Drivers/src/ch32v20x_usart.c ****         tmpreg |= ((((fractionaldivider * 16) + 50) / 100)) & ((uint8_t)0x0F);
 337              		.loc 1 165 41
 338 01e4 832704FE 		lw	a5,-32(s0)
 339 01e8 9207     		slli	a5,a5,4
 340              		.loc 1 165 47
 341 01ea 13872703 		addi	a4,a5,50
 342              		.loc 1 165 53
 343 01ee 93074006 		li	a5,100
 344 01f2 B357F702 		divu	a5,a4,a5
 345              		.loc 1 165 61
 346 01f6 BD8B     		andi	a5,a5,15
 347              		.loc 1 165 16
 348 01f8 0327C4FE 		lw	a4,-20(s0)
 349 01fc D98F     		or	a5,a4,a5
 350 01fe 2326F4FE 		sw	a5,-20(s0)
 351              	.L13:
 166:Drivers/src/ch32v20x_usart.c ****     }
 167:Drivers/src/ch32v20x_usart.c **** 
 168:Drivers/src/ch32v20x_usart.c ****     USARTx->BRR = (uint16_t)tmpreg;
 352              		.loc 1 168 19
 353 0202 8327C4FE 		lw	a5,-20(s0)
 354 0206 13970701 		slli	a4,a5,16
 355 020a 4183     		srli	a4,a4,16
 356              		.loc 1 168 17
 357 020c 8327C4FB 		lw	a5,-68(s0)
 358 0210 9AA7     		sh	a4,8(a5)
 169:Drivers/src/ch32v20x_usart.c **** }
 359              		.loc 1 169 1
 360 0212 0100     		nop
 361 0214 B640     		lw	ra,76(sp)
 362              		.cfi_restore 1
 363 0216 2644     		lw	s0,72(sp)
 364              		.cfi_restore 8
 365              		.cfi_def_cfa 2, 80
 366 0218 6161     		addi	sp,sp,80
 367              		.cfi_def_cfa_offset 0
 368 021a 8280     		jr	ra
 369              		.cfi_endproc
 370              	.LFE17:
 372              		.section	.text.USART_StructInit,"ax",@progbits
 373              		.align	1
 374              		.globl	USART_StructInit
 376              	USART_StructInit:
 377              	.LFB18:
 170:Drivers/src/ch32v20x_usart.c **** 
 171:Drivers/src/ch32v20x_usart.c **** /*********************************************************************
 172:Drivers/src/ch32v20x_usart.c ****  * @fn      USART_StructInit
 173:Drivers/src/ch32v20x_usart.c ****  *
 174:Drivers/src/ch32v20x_usart.c ****  * @brief   Fills each USART_InitStruct member with its default value.
 175:Drivers/src/ch32v20x_usart.c ****  *
 176:Drivers/src/ch32v20x_usart.c ****  * @param   USART_InitStruct: pointer to a USART_InitTypeDef structure
 177:Drivers/src/ch32v20x_usart.c ****  *       which will be initialized.
 178:Drivers/src/ch32v20x_usart.c ****  *
GAS LISTING C:\Users\SOLDER~1\AppData\Local\Temp\ccheWc1y.s 			page 11


 179:Drivers/src/ch32v20x_usart.c ****  * @return  none
 180:Drivers/src/ch32v20x_usart.c ****  */
 181:Drivers/src/ch32v20x_usart.c **** void USART_StructInit(USART_InitTypeDef *USART_InitStruct)
 182:Drivers/src/ch32v20x_usart.c **** {
 378              		.loc 1 182 1
 379              		.cfi_startproc
 380 0000 0111     		addi	sp,sp,-32
 381              		.cfi_def_cfa_offset 32
 382 0002 22CE     		sw	s0,28(sp)
 383              		.cfi_offset 8, -4
 384 0004 0010     		addi	s0,sp,32
 385              		.cfi_def_cfa 8, 0
 386 0006 2326A4FE 		sw	a0,-20(s0)
 183:Drivers/src/ch32v20x_usart.c ****     USART_InitStruct->USART_BaudRate = 9600;
 387              		.loc 1 183 38
 388 000a 8327C4FE 		lw	a5,-20(s0)
 389 000e 0967     		li	a4,8192
 390 0010 13070758 		addi	a4,a4,1408
 391 0014 98C3     		sw	a4,0(a5)
 184:Drivers/src/ch32v20x_usart.c ****     USART_InitStruct->USART_WordLength = USART_WordLength_8b;
 392              		.loc 1 184 40
 393 0016 8327C4FE 		lw	a5,-20(s0)
 394 001a 23920700 		sh	zero,4(a5)
 185:Drivers/src/ch32v20x_usart.c ****     USART_InitStruct->USART_StopBits = USART_StopBits_1;
 395              		.loc 1 185 38
 396 001e 8327C4FE 		lw	a5,-20(s0)
 397 0022 23930700 		sh	zero,6(a5)
 186:Drivers/src/ch32v20x_usart.c ****     USART_InitStruct->USART_Parity = USART_Parity_No;
 398              		.loc 1 186 36
 399 0026 8327C4FE 		lw	a5,-20(s0)
 400 002a 23940700 		sh	zero,8(a5)
 187:Drivers/src/ch32v20x_usart.c ****     USART_InitStruct->USART_Mode = USART_Mode_Rx | USART_Mode_Tx;
 401              		.loc 1 187 34
 402 002e 8327C4FE 		lw	a5,-20(s0)
 403 0032 3147     		li	a4,12
 404 0034 BAA7     		sh	a4,10(a5)
 188:Drivers/src/ch32v20x_usart.c ****     USART_InitStruct->USART_HardwareFlowControl = USART_HardwareFlowControl_None;
 405              		.loc 1 188 49
 406 0036 8327C4FE 		lw	a5,-20(s0)
 407 003a 23960700 		sh	zero,12(a5)
 189:Drivers/src/ch32v20x_usart.c **** }
 408              		.loc 1 189 1
 409 003e 0100     		nop
 410 0040 7244     		lw	s0,28(sp)
 411              		.cfi_restore 8
 412              		.cfi_def_cfa 2, 32
 413 0042 0561     		addi	sp,sp,32
 414              		.cfi_def_cfa_offset 0
 415 0044 8280     		jr	ra
 416              		.cfi_endproc
 417              	.LFE18:
 419              		.section	.text.USART_ClockInit,"ax",@progbits
 420              		.align	1
 421              		.globl	USART_ClockInit
 423              	USART_ClockInit:
 424              	.LFB19:
 190:Drivers/src/ch32v20x_usart.c **** 
GAS LISTING C:\Users\SOLDER~1\AppData\Local\Temp\ccheWc1y.s 			page 12


 191:Drivers/src/ch32v20x_usart.c **** /*********************************************************************
 192:Drivers/src/ch32v20x_usart.c ****  * @fn      USART_ClockInit
 193:Drivers/src/ch32v20x_usart.c ****  *
 194:Drivers/src/ch32v20x_usart.c ****  * @brief   Initializes the USARTx peripheral Clock according to the
 195:Drivers/src/ch32v20x_usart.c ****  *        specified parameters in the USART_ClockInitStruct .
 196:Drivers/src/ch32v20x_usart.c ****  *
 197:Drivers/src/ch32v20x_usart.c ****  * @param   USARTx - where x can be 1, 2, 3 to select the USART peripheral.
 198:Drivers/src/ch32v20x_usart.c ****  *          USART_ClockInitStruct - pointer to a USART_ClockInitTypeDef
 199:Drivers/src/ch32v20x_usart.c ****  *        structure that contains the configuration information for the specified
 200:Drivers/src/ch32v20x_usart.c ****  *        USART peripheral.
 201:Drivers/src/ch32v20x_usart.c ****  *
 202:Drivers/src/ch32v20x_usart.c ****  * @return  none
 203:Drivers/src/ch32v20x_usart.c ****  */
 204:Drivers/src/ch32v20x_usart.c **** void USART_ClockInit(USART_TypeDef *USARTx, USART_ClockInitTypeDef *USART_ClockInitStruct)
 205:Drivers/src/ch32v20x_usart.c **** {
 425              		.loc 1 205 1
 426              		.cfi_startproc
 427 0000 7971     		addi	sp,sp,-48
 428              		.cfi_def_cfa_offset 48
 429 0002 22D6     		sw	s0,44(sp)
 430              		.cfi_offset 8, -4
 431 0004 0018     		addi	s0,sp,48
 432              		.cfi_def_cfa 8, 0
 433 0006 232EA4FC 		sw	a0,-36(s0)
 434 000a 232CB4FC 		sw	a1,-40(s0)
 206:Drivers/src/ch32v20x_usart.c ****     uint32_t tmpreg = 0x00;
 435              		.loc 1 206 14
 436 000e 232604FE 		sw	zero,-20(s0)
 207:Drivers/src/ch32v20x_usart.c **** 
 208:Drivers/src/ch32v20x_usart.c ****     tmpreg = USARTx->CTLR2;
 437              		.loc 1 208 20
 438 0012 8327C4FD 		lw	a5,-36(s0)
 439 0016 9E2B     		lhu	a5,16(a5)
 440 0018 C207     		slli	a5,a5,16
 441 001a C183     		srli	a5,a5,16
 442              		.loc 1 208 12
 443 001c 2326F4FE 		sw	a5,-20(s0)
 209:Drivers/src/ch32v20x_usart.c ****     tmpreg &= CTLR2_CLOCK_CLEAR_Mask;
 444              		.loc 1 209 12
 445 0020 0327C4FE 		lw	a4,-20(s0)
 446 0024 BD67     		li	a5,61440
 447 0026 9387F70F 		addi	a5,a5,255
 448 002a F98F     		and	a5,a4,a5
 449 002c 2326F4FE 		sw	a5,-20(s0)
 210:Drivers/src/ch32v20x_usart.c ****     tmpreg |= (uint32_t)USART_ClockInitStruct->USART_Clock | USART_ClockInitStruct->USART_CPOL |
 450              		.loc 1 210 46
 451 0030 832784FD 		lw	a5,-40(s0)
 452 0034 9A23     		lhu	a4,0(a5)
 453              		.loc 1 210 83
 454 0036 832784FD 		lw	a5,-40(s0)
 455 003a BE23     		lhu	a5,2(a5)
 211:Drivers/src/ch32v20x_usart.c ****               USART_ClockInitStruct->USART_CPHA | USART_ClockInitStruct->USART_LastBit;
 456              		.loc 1 211 49
 457 003c D98F     		or	a5,a4,a5
 458 003e 13970701 		slli	a4,a5,16
 459 0042 4183     		srli	a4,a4,16
 460              		.loc 1 211 36
GAS LISTING C:\Users\SOLDER~1\AppData\Local\Temp\ccheWc1y.s 			page 13


 461 0044 832784FD 		lw	a5,-40(s0)
 462 0048 DE23     		lhu	a5,4(a5)
 463              		.loc 1 211 49
 464 004a D98F     		or	a5,a4,a5
 465 004c 13970701 		slli	a4,a5,16
 466 0050 4183     		srli	a4,a4,16
 467              		.loc 1 211 72
 468 0052 832784FD 		lw	a5,-40(s0)
 469 0056 FE23     		lhu	a5,6(a5)
 470              		.loc 1 211 49
 471 0058 D98F     		or	a5,a4,a5
 472 005a C207     		slli	a5,a5,16
 473 005c C183     		srli	a5,a5,16
 474 005e 3E87     		mv	a4,a5
 210:Drivers/src/ch32v20x_usart.c ****     tmpreg |= (uint32_t)USART_ClockInitStruct->USART_Clock | USART_ClockInitStruct->USART_CPOL |
 475              		.loc 1 210 12
 476 0060 8327C4FE 		lw	a5,-20(s0)
 477 0064 D98F     		or	a5,a5,a4
 478 0066 2326F4FE 		sw	a5,-20(s0)
 212:Drivers/src/ch32v20x_usart.c ****     USARTx->CTLR2 = (uint16_t)tmpreg;
 479              		.loc 1 212 21
 480 006a 8327C4FE 		lw	a5,-20(s0)
 481 006e 13970701 		slli	a4,a5,16
 482 0072 4183     		srli	a4,a4,16
 483              		.loc 1 212 19
 484 0074 8327C4FD 		lw	a5,-36(s0)
 485 0078 9AAB     		sh	a4,16(a5)
 213:Drivers/src/ch32v20x_usart.c **** }
 486              		.loc 1 213 1
 487 007a 0100     		nop
 488 007c 3254     		lw	s0,44(sp)
 489              		.cfi_restore 8
 490              		.cfi_def_cfa 2, 48
 491 007e 4561     		addi	sp,sp,48
 492              		.cfi_def_cfa_offset 0
 493 0080 8280     		jr	ra
 494              		.cfi_endproc
 495              	.LFE19:
 497              		.section	.text.USART_ClockStructInit,"ax",@progbits
 498              		.align	1
 499              		.globl	USART_ClockStructInit
 501              	USART_ClockStructInit:
 502              	.LFB20:
 214:Drivers/src/ch32v20x_usart.c **** 
 215:Drivers/src/ch32v20x_usart.c **** /*********************************************************************
 216:Drivers/src/ch32v20x_usart.c ****  * @fn      USART_ClockStructInit
 217:Drivers/src/ch32v20x_usart.c ****  *
 218:Drivers/src/ch32v20x_usart.c ****  * @brief   Fills each USART_ClockStructInit member with its default value.
 219:Drivers/src/ch32v20x_usart.c ****  *
 220:Drivers/src/ch32v20x_usart.c ****  * @param   USART_ClockInitStruct - pointer to a USART_ClockInitTypeDef
 221:Drivers/src/ch32v20x_usart.c ****  *        structure which will be initialized.
 222:Drivers/src/ch32v20x_usart.c ****  *
 223:Drivers/src/ch32v20x_usart.c ****  * @return  none
 224:Drivers/src/ch32v20x_usart.c ****  */
 225:Drivers/src/ch32v20x_usart.c **** void USART_ClockStructInit(USART_ClockInitTypeDef *USART_ClockInitStruct)
 226:Drivers/src/ch32v20x_usart.c **** {
 503              		.loc 1 226 1
GAS LISTING C:\Users\SOLDER~1\AppData\Local\Temp\ccheWc1y.s 			page 14


 504              		.cfi_startproc
 505 0000 0111     		addi	sp,sp,-32
 506              		.cfi_def_cfa_offset 32
 507 0002 22CE     		sw	s0,28(sp)
 508              		.cfi_offset 8, -4
 509 0004 0010     		addi	s0,sp,32
 510              		.cfi_def_cfa 8, 0
 511 0006 2326A4FE 		sw	a0,-20(s0)
 227:Drivers/src/ch32v20x_usart.c ****     USART_ClockInitStruct->USART_Clock = USART_Clock_Disable;
 512              		.loc 1 227 40
 513 000a 8327C4FE 		lw	a5,-20(s0)
 514 000e 23900700 		sh	zero,0(a5)
 228:Drivers/src/ch32v20x_usart.c ****     USART_ClockInitStruct->USART_CPOL = USART_CPOL_Low;
 515              		.loc 1 228 39
 516 0012 8327C4FE 		lw	a5,-20(s0)
 517 0016 23910700 		sh	zero,2(a5)
 229:Drivers/src/ch32v20x_usart.c ****     USART_ClockInitStruct->USART_CPHA = USART_CPHA_1Edge;
 518              		.loc 1 229 39
 519 001a 8327C4FE 		lw	a5,-20(s0)
 520 001e 23920700 		sh	zero,4(a5)
 230:Drivers/src/ch32v20x_usart.c ****     USART_ClockInitStruct->USART_LastBit = USART_LastBit_Disable;
 521              		.loc 1 230 42
 522 0022 8327C4FE 		lw	a5,-20(s0)
 523 0026 23930700 		sh	zero,6(a5)
 231:Drivers/src/ch32v20x_usart.c **** }
 524              		.loc 1 231 1
 525 002a 0100     		nop
 526 002c 7244     		lw	s0,28(sp)
 527              		.cfi_restore 8
 528              		.cfi_def_cfa 2, 32
 529 002e 0561     		addi	sp,sp,32
 530              		.cfi_def_cfa_offset 0
 531 0030 8280     		jr	ra
 532              		.cfi_endproc
 533              	.LFE20:
 535              		.section	.text.USART_Cmd,"ax",@progbits
 536              		.align	1
 537              		.globl	USART_Cmd
 539              	USART_Cmd:
 540              	.LFB21:
 232:Drivers/src/ch32v20x_usart.c **** 
 233:Drivers/src/ch32v20x_usart.c **** /*********************************************************************
 234:Drivers/src/ch32v20x_usart.c ****  * @fn      USART_Cmd
 235:Drivers/src/ch32v20x_usart.c ****  *
 236:Drivers/src/ch32v20x_usart.c ****  * @brief   Enables or disables the specified USART peripheral.
 237:Drivers/src/ch32v20x_usart.c ****  *        reset values (Affects also the I2Ss).
 238:Drivers/src/ch32v20x_usart.c ****  *
 239:Drivers/src/ch32v20x_usart.c ****  * @param   USARTx - where x can be 1, 2, 3 to select the USART peripheral.
 240:Drivers/src/ch32v20x_usart.c ****  *          NewState: ENABLE or DISABLE.
 241:Drivers/src/ch32v20x_usart.c ****  *
 242:Drivers/src/ch32v20x_usart.c ****  * @return  none
 243:Drivers/src/ch32v20x_usart.c ****  */
 244:Drivers/src/ch32v20x_usart.c **** void USART_Cmd(USART_TypeDef *USARTx, FunctionalState NewState)
 245:Drivers/src/ch32v20x_usart.c **** {
 541              		.loc 1 245 1
 542              		.cfi_startproc
 543 0000 0111     		addi	sp,sp,-32
GAS LISTING C:\Users\SOLDER~1\AppData\Local\Temp\ccheWc1y.s 			page 15


 544              		.cfi_def_cfa_offset 32
 545 0002 22CE     		sw	s0,28(sp)
 546              		.cfi_offset 8, -4
 547 0004 0010     		addi	s0,sp,32
 548              		.cfi_def_cfa 8, 0
 549 0006 2326A4FE 		sw	a0,-20(s0)
 550 000a 2324B4FE 		sw	a1,-24(s0)
 246:Drivers/src/ch32v20x_usart.c ****     if(NewState != DISABLE)
 551              		.loc 1 246 7
 552 000e 832784FE 		lw	a5,-24(s0)
 553 0012 85C3     		beq	a5,zero,.L18
 247:Drivers/src/ch32v20x_usart.c ****     {
 248:Drivers/src/ch32v20x_usart.c ****         USARTx->CTLR1 |= CTLR1_UE_Set;
 554              		.loc 1 248 15
 555 0014 8327C4FE 		lw	a5,-20(s0)
 556 0018 DE27     		lhu	a5,12(a5)
 557 001a 13970701 		slli	a4,a5,16
 558 001e 4183     		srli	a4,a4,16
 559              		.loc 1 248 23
 560 0020 8967     		li	a5,8192
 561 0022 D98F     		or	a5,a4,a5
 562 0024 13970701 		slli	a4,a5,16
 563 0028 4183     		srli	a4,a4,16
 564 002a 8327C4FE 		lw	a5,-20(s0)
 565 002e DAA7     		sh	a4,12(a5)
 249:Drivers/src/ch32v20x_usart.c ****     }
 250:Drivers/src/ch32v20x_usart.c ****     else
 251:Drivers/src/ch32v20x_usart.c ****     {
 252:Drivers/src/ch32v20x_usart.c ****         USARTx->CTLR1 &= CTLR1_UE_Reset;
 253:Drivers/src/ch32v20x_usart.c ****     }
 254:Drivers/src/ch32v20x_usart.c **** }
 566              		.loc 1 254 1
 567 0030 05A0     		j	.L20
 568              	.L18:
 252:Drivers/src/ch32v20x_usart.c ****     }
 569              		.loc 1 252 15
 570 0032 8327C4FE 		lw	a5,-20(s0)
 571 0036 DE27     		lhu	a5,12(a5)
 572 0038 13970701 		slli	a4,a5,16
 573 003c 4183     		srli	a4,a4,16
 252:Drivers/src/ch32v20x_usart.c ****     }
 574              		.loc 1 252 23
 575 003e F977     		li	a5,-8192
 576 0040 FD17     		addi	a5,a5,-1
 577 0042 F98F     		and	a5,a4,a5
 578 0044 13970701 		slli	a4,a5,16
 579 0048 4183     		srli	a4,a4,16
 580 004a 8327C4FE 		lw	a5,-20(s0)
 581 004e DAA7     		sh	a4,12(a5)
 582              	.L20:
 583              		.loc 1 254 1
 584 0050 0100     		nop
 585 0052 7244     		lw	s0,28(sp)
 586              		.cfi_restore 8
 587              		.cfi_def_cfa 2, 32
 588 0054 0561     		addi	sp,sp,32
 589              		.cfi_def_cfa_offset 0
GAS LISTING C:\Users\SOLDER~1\AppData\Local\Temp\ccheWc1y.s 			page 16


 590 0056 8280     		jr	ra
 591              		.cfi_endproc
 592              	.LFE21:
 594              		.section	.text.USART_ITConfig,"ax",@progbits
 595              		.align	1
 596              		.globl	USART_ITConfig
 598              	USART_ITConfig:
 599              	.LFB22:
 255:Drivers/src/ch32v20x_usart.c **** 
 256:Drivers/src/ch32v20x_usart.c **** /*********************************************************************
 257:Drivers/src/ch32v20x_usart.c ****  * @fn      USART_ITConfig
 258:Drivers/src/ch32v20x_usart.c ****  *
 259:Drivers/src/ch32v20x_usart.c ****  * @brief   Enables or disables the specified USART interrupts.
 260:Drivers/src/ch32v20x_usart.c ****  *        reset values (Affects also the I2Ss).
 261:Drivers/src/ch32v20x_usart.c ****  *
 262:Drivers/src/ch32v20x_usart.c ****  * @param   USARTx - where x can be 1, 2, 3 to select the USART peripheral.
 263:Drivers/src/ch32v20x_usart.c ****  *          USART_IT - specifies the USART interrupt sources to be enabled or disabled.
 264:Drivers/src/ch32v20x_usart.c ****  *            USART_IT_LBD - LIN Break detection interrupt.
 265:Drivers/src/ch32v20x_usart.c ****  *            USART_IT_TXE - Transmit Data Register empty interrupt.
 266:Drivers/src/ch32v20x_usart.c ****  *            USART_IT_TC - Transmission complete interrupt.
 267:Drivers/src/ch32v20x_usart.c ****  *            USART_IT_RXNE - Receive Data register not empty interrupt.
 268:Drivers/src/ch32v20x_usart.c ****  *            USART_IT_IDLE - Idle line detection interrupt.
 269:Drivers/src/ch32v20x_usart.c ****  *            USART_IT_PE - Parity Error interrupt.
 270:Drivers/src/ch32v20x_usart.c ****  *            USART_IT_ERR - Error interrupt.
 271:Drivers/src/ch32v20x_usart.c ****  *          NewState - ENABLE or DISABLE.
 272:Drivers/src/ch32v20x_usart.c ****  *
 273:Drivers/src/ch32v20x_usart.c ****  * @return  none
 274:Drivers/src/ch32v20x_usart.c ****  */
 275:Drivers/src/ch32v20x_usart.c **** void USART_ITConfig(USART_TypeDef *USARTx, uint16_t USART_IT, FunctionalState NewState)
 276:Drivers/src/ch32v20x_usart.c **** {
 600              		.loc 1 276 1
 601              		.cfi_startproc
 602 0000 7971     		addi	sp,sp,-48
 603              		.cfi_def_cfa_offset 48
 604 0002 22D6     		sw	s0,44(sp)
 605              		.cfi_offset 8, -4
 606 0004 0018     		addi	s0,sp,48
 607              		.cfi_def_cfa 8, 0
 608 0006 232EA4FC 		sw	a0,-36(s0)
 609 000a AE87     		mv	a5,a1
 610 000c 232AC4FC 		sw	a2,-44(s0)
 611 0010 231DF4FC 		sh	a5,-38(s0)
 277:Drivers/src/ch32v20x_usart.c ****     uint32_t usartreg = 0x00, itpos = 0x00, itmask = 0x00;
 612              		.loc 1 277 14
 613 0014 232404FE 		sw	zero,-24(s0)
 614              		.loc 1 277 31
 615 0018 232204FE 		sw	zero,-28(s0)
 616              		.loc 1 277 45
 617 001c 232004FE 		sw	zero,-32(s0)
 278:Drivers/src/ch32v20x_usart.c ****     uint32_t usartxbase = 0x00;
 618              		.loc 1 278 14
 619 0020 232604FE 		sw	zero,-20(s0)
 279:Drivers/src/ch32v20x_usart.c **** 
 280:Drivers/src/ch32v20x_usart.c **** 
 281:Drivers/src/ch32v20x_usart.c ****     usartxbase = (uint32_t)USARTx;
 620              		.loc 1 281 16
 621 0024 8327C4FD 		lw	a5,-36(s0)
GAS LISTING C:\Users\SOLDER~1\AppData\Local\Temp\ccheWc1y.s 			page 17


 622 0028 2326F4FE 		sw	a5,-20(s0)
 282:Drivers/src/ch32v20x_usart.c ****     usartreg = (((uint8_t)USART_IT) >> 0x05);
 623              		.loc 1 282 18
 624 002c 8357A4FD 		lhu	a5,-38(s0)
 625 0030 93F7F70F 		andi	a5,a5,0xff
 626              		.loc 1 282 37
 627 0034 9583     		srli	a5,a5,5
 628 0036 93F7F70F 		andi	a5,a5,0xff
 629              		.loc 1 282 14
 630 003a 2324F4FE 		sw	a5,-24(s0)
 283:Drivers/src/ch32v20x_usart.c ****     itpos = USART_IT & IT_Mask;
 631              		.loc 1 283 22
 632 003e 8357A4FD 		lhu	a5,-38(s0)
 633              		.loc 1 283 11
 634 0042 FD8B     		andi	a5,a5,31
 635 0044 2322F4FE 		sw	a5,-28(s0)
 284:Drivers/src/ch32v20x_usart.c ****     itmask = (((uint32_t)0x01) << itpos);
 636              		.loc 1 284 12
 637 0048 832744FE 		lw	a5,-28(s0)
 638 004c 0547     		li	a4,1
 639 004e B317F700 		sll	a5,a4,a5
 640 0052 2320F4FE 		sw	a5,-32(s0)
 285:Drivers/src/ch32v20x_usart.c **** 
 286:Drivers/src/ch32v20x_usart.c ****     if(usartreg == 0x01)
 641              		.loc 1 286 7
 642 0056 032784FE 		lw	a4,-24(s0)
 643 005a 8547     		li	a5,1
 644 005c 6318F700 		bne	a4,a5,.L22
 287:Drivers/src/ch32v20x_usart.c ****     {
 288:Drivers/src/ch32v20x_usart.c ****         usartxbase += 0x0C;
 645              		.loc 1 288 20
 646 0060 8327C4FE 		lw	a5,-20(s0)
 647 0064 B107     		addi	a5,a5,12
 648 0066 2326F4FE 		sw	a5,-20(s0)
 649 006a 0DA0     		j	.L23
 650              	.L22:
 289:Drivers/src/ch32v20x_usart.c ****     }
 290:Drivers/src/ch32v20x_usart.c ****     else if(usartreg == 0x02)
 651              		.loc 1 290 12
 652 006c 032784FE 		lw	a4,-24(s0)
 653 0070 8947     		li	a5,2
 654 0072 6318F700 		bne	a4,a5,.L24
 291:Drivers/src/ch32v20x_usart.c ****     {
 292:Drivers/src/ch32v20x_usart.c ****         usartxbase += 0x10;
 655              		.loc 1 292 20
 656 0076 8327C4FE 		lw	a5,-20(s0)
 657 007a C107     		addi	a5,a5,16
 658 007c 2326F4FE 		sw	a5,-20(s0)
 659 0080 31A0     		j	.L23
 660              	.L24:
 293:Drivers/src/ch32v20x_usart.c ****     }
 294:Drivers/src/ch32v20x_usart.c ****     else
 295:Drivers/src/ch32v20x_usart.c ****     {
 296:Drivers/src/ch32v20x_usart.c ****         usartxbase += 0x14;
 661              		.loc 1 296 20
 662 0082 8327C4FE 		lw	a5,-20(s0)
 663 0086 D107     		addi	a5,a5,20
GAS LISTING C:\Users\SOLDER~1\AppData\Local\Temp\ccheWc1y.s 			page 18


 664 0088 2326F4FE 		sw	a5,-20(s0)
 665              	.L23:
 297:Drivers/src/ch32v20x_usart.c ****     }
 298:Drivers/src/ch32v20x_usart.c **** 
 299:Drivers/src/ch32v20x_usart.c ****     if(NewState != DISABLE)
 666              		.loc 1 299 7
 667 008c 832744FD 		lw	a5,-44(s0)
 668 0090 99CB     		beq	a5,zero,.L25
 300:Drivers/src/ch32v20x_usart.c ****     {
 301:Drivers/src/ch32v20x_usart.c ****         *(__IO uint32_t *)usartxbase |= itmask;
 669              		.loc 1 301 9
 670 0092 8327C4FE 		lw	a5,-20(s0)
 671 0096 9443     		lw	a3,0(a5)
 672 0098 8327C4FE 		lw	a5,-20(s0)
 673              		.loc 1 301 38
 674 009c 032704FE 		lw	a4,-32(s0)
 675 00a0 558F     		or	a4,a3,a4
 676 00a2 98C3     		sw	a4,0(a5)
 302:Drivers/src/ch32v20x_usart.c ****     }
 303:Drivers/src/ch32v20x_usart.c ****     else
 304:Drivers/src/ch32v20x_usart.c ****     {
 305:Drivers/src/ch32v20x_usart.c ****         *(__IO uint32_t *)usartxbase &= ~itmask;
 306:Drivers/src/ch32v20x_usart.c ****     }
 307:Drivers/src/ch32v20x_usart.c **** }
 677              		.loc 1 307 1
 678 00a4 21A8     		j	.L27
 679              	.L25:
 305:Drivers/src/ch32v20x_usart.c ****     }
 680              		.loc 1 305 9
 681 00a6 8327C4FE 		lw	a5,-20(s0)
 682 00aa 9443     		lw	a3,0(a5)
 305:Drivers/src/ch32v20x_usart.c ****     }
 683              		.loc 1 305 41
 684 00ac 832704FE 		lw	a5,-32(s0)
 685 00b0 13C7F7FF 		not	a4,a5
 305:Drivers/src/ch32v20x_usart.c ****     }
 686              		.loc 1 305 9
 687 00b4 8327C4FE 		lw	a5,-20(s0)
 305:Drivers/src/ch32v20x_usart.c ****     }
 688              		.loc 1 305 38
 689 00b8 758F     		and	a4,a3,a4
 690 00ba 98C3     		sw	a4,0(a5)
 691              	.L27:
 692              		.loc 1 307 1
 693 00bc 0100     		nop
 694 00be 3254     		lw	s0,44(sp)
 695              		.cfi_restore 8
 696              		.cfi_def_cfa 2, 48
 697 00c0 4561     		addi	sp,sp,48
 698              		.cfi_def_cfa_offset 0
 699 00c2 8280     		jr	ra
 700              		.cfi_endproc
 701              	.LFE22:
 703              		.section	.text.USART_DMACmd,"ax",@progbits
 704              		.align	1
 705              		.globl	USART_DMACmd
 707              	USART_DMACmd:
GAS LISTING C:\Users\SOLDER~1\AppData\Local\Temp\ccheWc1y.s 			page 19


 708              	.LFB23:
 308:Drivers/src/ch32v20x_usart.c **** 
 309:Drivers/src/ch32v20x_usart.c **** /*********************************************************************
 310:Drivers/src/ch32v20x_usart.c ****  * @fn      USART_DMACmd
 311:Drivers/src/ch32v20x_usart.c ****  *
 312:Drivers/src/ch32v20x_usart.c ****  * @brief   Enables or disables the USART DMA interface.
 313:Drivers/src/ch32v20x_usart.c ****  *
 314:Drivers/src/ch32v20x_usart.c ****  * @param   USARTx - where x can be 1, 2, 3 to select the USART peripheral.
 315:Drivers/src/ch32v20x_usart.c ****  *          USART_DMAReq - specifies the DMA request.
 316:Drivers/src/ch32v20x_usart.c ****  *            USART_DMAReq_Tx - USART DMA transmit request.
 317:Drivers/src/ch32v20x_usart.c ****  *            USART_DMAReq_Rx - USART DMA receive request.
 318:Drivers/src/ch32v20x_usart.c ****  *          NewState - ENABLE or DISABLE.
 319:Drivers/src/ch32v20x_usart.c ****  *
 320:Drivers/src/ch32v20x_usart.c ****  * @return  none
 321:Drivers/src/ch32v20x_usart.c ****  */
 322:Drivers/src/ch32v20x_usart.c **** void USART_DMACmd(USART_TypeDef *USARTx, uint16_t USART_DMAReq, FunctionalState NewState)
 323:Drivers/src/ch32v20x_usart.c **** {
 709              		.loc 1 323 1
 710              		.cfi_startproc
 711 0000 0111     		addi	sp,sp,-32
 712              		.cfi_def_cfa_offset 32
 713 0002 22CE     		sw	s0,28(sp)
 714              		.cfi_offset 8, -4
 715 0004 0010     		addi	s0,sp,32
 716              		.cfi_def_cfa 8, 0
 717 0006 2326A4FE 		sw	a0,-20(s0)
 718 000a AE87     		mv	a5,a1
 719 000c 2322C4FE 		sw	a2,-28(s0)
 720 0010 2315F4FE 		sh	a5,-22(s0)
 324:Drivers/src/ch32v20x_usart.c ****     if(NewState != DISABLE)
 721              		.loc 1 324 7
 722 0014 832744FE 		lw	a5,-28(s0)
 723 0018 85C3     		beq	a5,zero,.L29
 325:Drivers/src/ch32v20x_usart.c ****     {
 326:Drivers/src/ch32v20x_usart.c ****         USARTx->CTLR3 |= USART_DMAReq;
 724              		.loc 1 326 15
 725 001a 8327C4FE 		lw	a5,-20(s0)
 726 001e DE2B     		lhu	a5,20(a5)
 727 0020 C207     		slli	a5,a5,16
 728 0022 C183     		srli	a5,a5,16
 729              		.loc 1 326 23
 730 0024 0357A4FE 		lhu	a4,-22(s0)
 731 0028 D98F     		or	a5,a5,a4
 732 002a 13970701 		slli	a4,a5,16
 733 002e 4183     		srli	a4,a4,16
 734 0030 8327C4FE 		lw	a5,-20(s0)
 735 0034 DAAB     		sh	a4,20(a5)
 327:Drivers/src/ch32v20x_usart.c ****     }
 328:Drivers/src/ch32v20x_usart.c ****     else
 329:Drivers/src/ch32v20x_usart.c ****     {
 330:Drivers/src/ch32v20x_usart.c ****         USARTx->CTLR3 &= (uint16_t)~USART_DMAReq;
 331:Drivers/src/ch32v20x_usart.c ****     }
 332:Drivers/src/ch32v20x_usart.c **** }
 736              		.loc 1 332 1
 737 0036 25A0     		j	.L31
 738              	.L29:
 330:Drivers/src/ch32v20x_usart.c ****     }
GAS LISTING C:\Users\SOLDER~1\AppData\Local\Temp\ccheWc1y.s 			page 20


 739              		.loc 1 330 15
 740 0038 8327C4FE 		lw	a5,-20(s0)
 741 003c DE2B     		lhu	a5,20(a5)
 742 003e 13970701 		slli	a4,a5,16
 743 0042 4183     		srli	a4,a4,16
 330:Drivers/src/ch32v20x_usart.c ****     }
 744              		.loc 1 330 26
 745 0044 8357A4FE 		lhu	a5,-22(s0)
 746 0048 93C7F7FF 		not	a5,a5
 747 004c C207     		slli	a5,a5,16
 748 004e C183     		srli	a5,a5,16
 330:Drivers/src/ch32v20x_usart.c ****     }
 749              		.loc 1 330 23
 750 0050 F98F     		and	a5,a4,a5
 751 0052 13970701 		slli	a4,a5,16
 752 0056 4183     		srli	a4,a4,16
 753 0058 8327C4FE 		lw	a5,-20(s0)
 754 005c DAAB     		sh	a4,20(a5)
 755              	.L31:
 756              		.loc 1 332 1
 757 005e 0100     		nop
 758 0060 7244     		lw	s0,28(sp)
 759              		.cfi_restore 8
 760              		.cfi_def_cfa 2, 32
 761 0062 0561     		addi	sp,sp,32
 762              		.cfi_def_cfa_offset 0
 763 0064 8280     		jr	ra
 764              		.cfi_endproc
 765              	.LFE23:
 767              		.section	.text.USART_SetAddress,"ax",@progbits
 768              		.align	1
 769              		.globl	USART_SetAddress
 771              	USART_SetAddress:
 772              	.LFB24:
 333:Drivers/src/ch32v20x_usart.c **** 
 334:Drivers/src/ch32v20x_usart.c **** /*********************************************************************
 335:Drivers/src/ch32v20x_usart.c ****  * @fn      USART_SetAddress
 336:Drivers/src/ch32v20x_usart.c ****  *
 337:Drivers/src/ch32v20x_usart.c ****  * @brief   Sets the address of the USART node.
 338:Drivers/src/ch32v20x_usart.c ****  *
 339:Drivers/src/ch32v20x_usart.c ****  * @param   USARTx - where x can be 1, 2, 3 to select the USART peripheral.
 340:Drivers/src/ch32v20x_usart.c ****  *          USART_Address - Indicates the address of the USART node.
 341:Drivers/src/ch32v20x_usart.c ****  *
 342:Drivers/src/ch32v20x_usart.c ****  * @return  none
 343:Drivers/src/ch32v20x_usart.c ****  */
 344:Drivers/src/ch32v20x_usart.c **** void USART_SetAddress(USART_TypeDef *USARTx, uint8_t USART_Address)
 345:Drivers/src/ch32v20x_usart.c **** {
 773              		.loc 1 345 1
 774              		.cfi_startproc
 775 0000 0111     		addi	sp,sp,-32
 776              		.cfi_def_cfa_offset 32
 777 0002 22CE     		sw	s0,28(sp)
 778              		.cfi_offset 8, -4
 779 0004 0010     		addi	s0,sp,32
 780              		.cfi_def_cfa 8, 0
 781 0006 2326A4FE 		sw	a0,-20(s0)
 782 000a AE87     		mv	a5,a1
GAS LISTING C:\Users\SOLDER~1\AppData\Local\Temp\ccheWc1y.s 			page 21


 783 000c A305F4FE 		sb	a5,-21(s0)
 346:Drivers/src/ch32v20x_usart.c ****     USARTx->CTLR2 &= CTLR2_Address_Mask;
 784              		.loc 1 346 11
 785 0010 8327C4FE 		lw	a5,-20(s0)
 786 0014 9E2B     		lhu	a5,16(a5)
 787 0016 C207     		slli	a5,a5,16
 788 0018 C183     		srli	a5,a5,16
 789              		.loc 1 346 19
 790 001a C19B     		andi	a5,a5,-16
 791 001c 13970701 		slli	a4,a5,16
 792 0020 4183     		srli	a4,a4,16
 793 0022 8327C4FE 		lw	a5,-20(s0)
 794 0026 9AAB     		sh	a4,16(a5)
 347:Drivers/src/ch32v20x_usart.c ****     USARTx->CTLR2 |= USART_Address;
 795              		.loc 1 347 11
 796 0028 8327C4FE 		lw	a5,-20(s0)
 797 002c 9E2B     		lhu	a5,16(a5)
 798 002e 13970701 		slli	a4,a5,16
 799 0032 4183     		srli	a4,a4,16
 800              		.loc 1 347 19
 801 0034 8347B4FE 		lbu	a5,-21(s0)
 802 0038 C207     		slli	a5,a5,16
 803 003a C183     		srli	a5,a5,16
 804 003c D98F     		or	a5,a4,a5
 805 003e 13970701 		slli	a4,a5,16
 806 0042 4183     		srli	a4,a4,16
 807 0044 8327C4FE 		lw	a5,-20(s0)
 808 0048 9AAB     		sh	a4,16(a5)
 348:Drivers/src/ch32v20x_usart.c **** }
 809              		.loc 1 348 1
 810 004a 0100     		nop
 811 004c 7244     		lw	s0,28(sp)
 812              		.cfi_restore 8
 813              		.cfi_def_cfa 2, 32
 814 004e 0561     		addi	sp,sp,32
 815              		.cfi_def_cfa_offset 0
 816 0050 8280     		jr	ra
 817              		.cfi_endproc
 818              	.LFE24:
 820              		.section	.text.USART_WakeUpConfig,"ax",@progbits
 821              		.align	1
 822              		.globl	USART_WakeUpConfig
 824              	USART_WakeUpConfig:
 825              	.LFB25:
 349:Drivers/src/ch32v20x_usart.c **** 
 350:Drivers/src/ch32v20x_usart.c **** /*********************************************************************
 351:Drivers/src/ch32v20x_usart.c ****  * @fn      USART_WakeUpConfig
 352:Drivers/src/ch32v20x_usart.c ****  *
 353:Drivers/src/ch32v20x_usart.c ****  * @brief   Selects the USART WakeUp method.
 354:Drivers/src/ch32v20x_usart.c ****  *
 355:Drivers/src/ch32v20x_usart.c ****  * @param   USARTx - where x can be 1, 2, 3 to select the USART peripheral.
 356:Drivers/src/ch32v20x_usart.c ****  *          USART_WakeUp - specifies the USART wakeup method.
 357:Drivers/src/ch32v20x_usart.c ****  *            USART_WakeUp_IdleLine - WakeUp by an idle line detection.
 358:Drivers/src/ch32v20x_usart.c ****  *            USART_WakeUp_AddressMark - WakeUp by an address mark.
 359:Drivers/src/ch32v20x_usart.c ****  *
 360:Drivers/src/ch32v20x_usart.c ****  * @return  none
 361:Drivers/src/ch32v20x_usart.c ****  */
GAS LISTING C:\Users\SOLDER~1\AppData\Local\Temp\ccheWc1y.s 			page 22


 362:Drivers/src/ch32v20x_usart.c **** void USART_WakeUpConfig(USART_TypeDef *USARTx, uint16_t USART_WakeUp)
 363:Drivers/src/ch32v20x_usart.c **** {
 826              		.loc 1 363 1
 827              		.cfi_startproc
 828 0000 0111     		addi	sp,sp,-32
 829              		.cfi_def_cfa_offset 32
 830 0002 22CE     		sw	s0,28(sp)
 831              		.cfi_offset 8, -4
 832 0004 0010     		addi	s0,sp,32
 833              		.cfi_def_cfa 8, 0
 834 0006 2326A4FE 		sw	a0,-20(s0)
 835 000a AE87     		mv	a5,a1
 836 000c 2315F4FE 		sh	a5,-22(s0)
 364:Drivers/src/ch32v20x_usart.c ****     USARTx->CTLR1 &= CTLR1_WAKE_Mask;
 837              		.loc 1 364 11
 838 0010 8327C4FE 		lw	a5,-20(s0)
 839 0014 DE27     		lhu	a5,12(a5)
 840 0016 13970701 		slli	a4,a5,16
 841 001a 4183     		srli	a4,a4,16
 842              		.loc 1 364 19
 843 001c FD77     		li	a5,-4096
 844 001e 9387F77F 		addi	a5,a5,2047
 845 0022 F98F     		and	a5,a4,a5
 846 0024 13970701 		slli	a4,a5,16
 847 0028 4183     		srli	a4,a4,16
 848 002a 8327C4FE 		lw	a5,-20(s0)
 849 002e DAA7     		sh	a4,12(a5)
 365:Drivers/src/ch32v20x_usart.c ****     USARTx->CTLR1 |= USART_WakeUp;
 850              		.loc 1 365 11
 851 0030 8327C4FE 		lw	a5,-20(s0)
 852 0034 DE27     		lhu	a5,12(a5)
 853 0036 C207     		slli	a5,a5,16
 854 0038 C183     		srli	a5,a5,16
 855              		.loc 1 365 19
 856 003a 0357A4FE 		lhu	a4,-22(s0)
 857 003e D98F     		or	a5,a5,a4
 858 0040 13970701 		slli	a4,a5,16
 859 0044 4183     		srli	a4,a4,16
 860 0046 8327C4FE 		lw	a5,-20(s0)
 861 004a DAA7     		sh	a4,12(a5)
 366:Drivers/src/ch32v20x_usart.c **** }
 862              		.loc 1 366 1
 863 004c 0100     		nop
 864 004e 7244     		lw	s0,28(sp)
 865              		.cfi_restore 8
 866              		.cfi_def_cfa 2, 32
 867 0050 0561     		addi	sp,sp,32
 868              		.cfi_def_cfa_offset 0
 869 0052 8280     		jr	ra
 870              		.cfi_endproc
 871              	.LFE25:
 873              		.section	.text.USART_ReceiverWakeUpCmd,"ax",@progbits
 874              		.align	1
 875              		.globl	USART_ReceiverWakeUpCmd
 877              	USART_ReceiverWakeUpCmd:
 878              	.LFB26:
 367:Drivers/src/ch32v20x_usart.c **** 
GAS LISTING C:\Users\SOLDER~1\AppData\Local\Temp\ccheWc1y.s 			page 23


 368:Drivers/src/ch32v20x_usart.c **** /*********************************************************************
 369:Drivers/src/ch32v20x_usart.c ****  * @fn      USART_ReceiverWakeUpCmd
 370:Drivers/src/ch32v20x_usart.c ****  *
 371:Drivers/src/ch32v20x_usart.c ****  * @brief   Determines if the USART is in mute mode or not.
 372:Drivers/src/ch32v20x_usart.c ****  *
 373:Drivers/src/ch32v20x_usart.c ****  * @param   USARTx - where x can be 1, 2, 3 to select the USART peripheral.
 374:Drivers/src/ch32v20x_usart.c ****  *          NewState - ENABLE or DISABLE.
 375:Drivers/src/ch32v20x_usart.c ****  *
 376:Drivers/src/ch32v20x_usart.c ****  * @return  none
 377:Drivers/src/ch32v20x_usart.c ****  */
 378:Drivers/src/ch32v20x_usart.c **** void USART_ReceiverWakeUpCmd(USART_TypeDef *USARTx, FunctionalState NewState)
 379:Drivers/src/ch32v20x_usart.c **** {
 879              		.loc 1 379 1
 880              		.cfi_startproc
 881 0000 0111     		addi	sp,sp,-32
 882              		.cfi_def_cfa_offset 32
 883 0002 22CE     		sw	s0,28(sp)
 884              		.cfi_offset 8, -4
 885 0004 0010     		addi	s0,sp,32
 886              		.cfi_def_cfa 8, 0
 887 0006 2326A4FE 		sw	a0,-20(s0)
 888 000a 2324B4FE 		sw	a1,-24(s0)
 380:Drivers/src/ch32v20x_usart.c ****     if(NewState != DISABLE)
 889              		.loc 1 380 7
 890 000e 832784FE 		lw	a5,-24(s0)
 891 0012 99CF     		beq	a5,zero,.L35
 381:Drivers/src/ch32v20x_usart.c ****     {
 382:Drivers/src/ch32v20x_usart.c ****         USARTx->CTLR1 |= CTLR1_RWU_Set;
 892              		.loc 1 382 15
 893 0014 8327C4FE 		lw	a5,-20(s0)
 894 0018 DE27     		lhu	a5,12(a5)
 895 001a C207     		slli	a5,a5,16
 896 001c C183     		srli	a5,a5,16
 897              		.loc 1 382 23
 898 001e 93E72700 		ori	a5,a5,2
 899 0022 13970701 		slli	a4,a5,16
 900 0026 4183     		srli	a4,a4,16
 901 0028 8327C4FE 		lw	a5,-20(s0)
 902 002c DAA7     		sh	a4,12(a5)
 383:Drivers/src/ch32v20x_usart.c ****     }
 384:Drivers/src/ch32v20x_usart.c ****     else
 385:Drivers/src/ch32v20x_usart.c ****     {
 386:Drivers/src/ch32v20x_usart.c ****         USARTx->CTLR1 &= CTLR1_RWU_Reset;
 387:Drivers/src/ch32v20x_usart.c ****     }
 388:Drivers/src/ch32v20x_usart.c **** }
 903              		.loc 1 388 1
 904 002e 29A8     		j	.L37
 905              	.L35:
 386:Drivers/src/ch32v20x_usart.c ****     }
 906              		.loc 1 386 15
 907 0030 8327C4FE 		lw	a5,-20(s0)
 908 0034 DE27     		lhu	a5,12(a5)
 909 0036 C207     		slli	a5,a5,16
 910 0038 C183     		srli	a5,a5,16
 386:Drivers/src/ch32v20x_usart.c ****     }
 911              		.loc 1 386 23
 912 003a F59B     		andi	a5,a5,-3
GAS LISTING C:\Users\SOLDER~1\AppData\Local\Temp\ccheWc1y.s 			page 24


 913 003c 13970701 		slli	a4,a5,16
 914 0040 4183     		srli	a4,a4,16
 915 0042 8327C4FE 		lw	a5,-20(s0)
 916 0046 DAA7     		sh	a4,12(a5)
 917              	.L37:
 918              		.loc 1 388 1
 919 0048 0100     		nop
 920 004a 7244     		lw	s0,28(sp)
 921              		.cfi_restore 8
 922              		.cfi_def_cfa 2, 32
 923 004c 0561     		addi	sp,sp,32
 924              		.cfi_def_cfa_offset 0
 925 004e 8280     		jr	ra
 926              		.cfi_endproc
 927              	.LFE26:
 929              		.section	.text.USART_LINBreakDetectLengthConfig,"ax",@progbits
 930              		.align	1
 931              		.globl	USART_LINBreakDetectLengthConfig
 933              	USART_LINBreakDetectLengthConfig:
 934              	.LFB27:
 389:Drivers/src/ch32v20x_usart.c **** 
 390:Drivers/src/ch32v20x_usart.c **** /*********************************************************************
 391:Drivers/src/ch32v20x_usart.c ****  * @fn      USART_LINBreakDetectLengthConfig
 392:Drivers/src/ch32v20x_usart.c ****  *
 393:Drivers/src/ch32v20x_usart.c ****  * @brief   Sets the USART LIN Break detection length.
 394:Drivers/src/ch32v20x_usart.c ****  *
 395:Drivers/src/ch32v20x_usart.c ****  * @param   USARTx - where x can be 1, 2, 3 to select the USART peripheral.
 396:Drivers/src/ch32v20x_usart.c ****  *          USART_LINBreakDetectLength - specifies the LIN break detection length.
 397:Drivers/src/ch32v20x_usart.c ****  *            USART_LINBreakDetectLength_10b - 10-bit break detection.
 398:Drivers/src/ch32v20x_usart.c ****  *            USART_LINBreakDetectLength_11b - 11-bit break detection.
 399:Drivers/src/ch32v20x_usart.c ****  *
 400:Drivers/src/ch32v20x_usart.c ****  * @return  none
 401:Drivers/src/ch32v20x_usart.c ****  */
 402:Drivers/src/ch32v20x_usart.c **** void USART_LINBreakDetectLengthConfig(USART_TypeDef *USARTx, uint16_t USART_LINBreakDetectLength)
 403:Drivers/src/ch32v20x_usart.c **** {
 935              		.loc 1 403 1
 936              		.cfi_startproc
 937 0000 0111     		addi	sp,sp,-32
 938              		.cfi_def_cfa_offset 32
 939 0002 22CE     		sw	s0,28(sp)
 940              		.cfi_offset 8, -4
 941 0004 0010     		addi	s0,sp,32
 942              		.cfi_def_cfa 8, 0
 943 0006 2326A4FE 		sw	a0,-20(s0)
 944 000a AE87     		mv	a5,a1
 945 000c 2315F4FE 		sh	a5,-22(s0)
 404:Drivers/src/ch32v20x_usart.c ****     USARTx->CTLR2 &= CTLR2_LBDL_Mask;
 946              		.loc 1 404 11
 947 0010 8327C4FE 		lw	a5,-20(s0)
 948 0014 9E2B     		lhu	a5,16(a5)
 949 0016 C207     		slli	a5,a5,16
 950 0018 C183     		srli	a5,a5,16
 951              		.loc 1 404 19
 952 001a 93F7F7FD 		andi	a5,a5,-33
 953 001e 13970701 		slli	a4,a5,16
 954 0022 4183     		srli	a4,a4,16
 955 0024 8327C4FE 		lw	a5,-20(s0)
GAS LISTING C:\Users\SOLDER~1\AppData\Local\Temp\ccheWc1y.s 			page 25


 956 0028 9AAB     		sh	a4,16(a5)
 405:Drivers/src/ch32v20x_usart.c ****     USARTx->CTLR2 |= USART_LINBreakDetectLength;
 957              		.loc 1 405 11
 958 002a 8327C4FE 		lw	a5,-20(s0)
 959 002e 9E2B     		lhu	a5,16(a5)
 960 0030 C207     		slli	a5,a5,16
 961 0032 C183     		srli	a5,a5,16
 962              		.loc 1 405 19
 963 0034 0357A4FE 		lhu	a4,-22(s0)
 964 0038 D98F     		or	a5,a5,a4
 965 003a 13970701 		slli	a4,a5,16
 966 003e 4183     		srli	a4,a4,16
 967 0040 8327C4FE 		lw	a5,-20(s0)
 968 0044 9AAB     		sh	a4,16(a5)
 406:Drivers/src/ch32v20x_usart.c **** }
 969              		.loc 1 406 1
 970 0046 0100     		nop
 971 0048 7244     		lw	s0,28(sp)
 972              		.cfi_restore 8
 973              		.cfi_def_cfa 2, 32
 974 004a 0561     		addi	sp,sp,32
 975              		.cfi_def_cfa_offset 0
 976 004c 8280     		jr	ra
 977              		.cfi_endproc
 978              	.LFE27:
 980              		.section	.text.USART_LINCmd,"ax",@progbits
 981              		.align	1
 982              		.globl	USART_LINCmd
 984              	USART_LINCmd:
 985              	.LFB28:
 407:Drivers/src/ch32v20x_usart.c **** 
 408:Drivers/src/ch32v20x_usart.c **** /*********************************************************************
 409:Drivers/src/ch32v20x_usart.c ****  * @fn      USART_LINCmd
 410:Drivers/src/ch32v20x_usart.c ****  *
 411:Drivers/src/ch32v20x_usart.c ****  * @brief   Enables or disables the USART LIN mode.
 412:Drivers/src/ch32v20x_usart.c ****  *
 413:Drivers/src/ch32v20x_usart.c ****  * @param   USARTx - where x can be 1, 2, 3 to select the USART peripheral.
 414:Drivers/src/ch32v20x_usart.c ****  *          NewState - ENABLE or DISABLE.
 415:Drivers/src/ch32v20x_usart.c ****  *
 416:Drivers/src/ch32v20x_usart.c ****  * @return  none
 417:Drivers/src/ch32v20x_usart.c ****  */
 418:Drivers/src/ch32v20x_usart.c **** void USART_LINCmd(USART_TypeDef *USARTx, FunctionalState NewState)
 419:Drivers/src/ch32v20x_usart.c **** {
 986              		.loc 1 419 1
 987              		.cfi_startproc
 988 0000 0111     		addi	sp,sp,-32
 989              		.cfi_def_cfa_offset 32
 990 0002 22CE     		sw	s0,28(sp)
 991              		.cfi_offset 8, -4
 992 0004 0010     		addi	s0,sp,32
 993              		.cfi_def_cfa 8, 0
 994 0006 2326A4FE 		sw	a0,-20(s0)
 995 000a 2324B4FE 		sw	a1,-24(s0)
 420:Drivers/src/ch32v20x_usart.c ****     if(NewState != DISABLE)
 996              		.loc 1 420 7
 997 000e 832784FE 		lw	a5,-24(s0)
 998 0012 85C3     		beq	a5,zero,.L40
GAS LISTING C:\Users\SOLDER~1\AppData\Local\Temp\ccheWc1y.s 			page 26


 421:Drivers/src/ch32v20x_usart.c ****     {
 422:Drivers/src/ch32v20x_usart.c ****         USARTx->CTLR2 |= CTLR2_LINEN_Set;
 999              		.loc 1 422 15
 1000 0014 8327C4FE 		lw	a5,-20(s0)
 1001 0018 9E2B     		lhu	a5,16(a5)
 1002 001a 13970701 		slli	a4,a5,16
 1003 001e 4183     		srli	a4,a4,16
 1004              		.loc 1 422 23
 1005 0020 9167     		li	a5,16384
 1006 0022 D98F     		or	a5,a4,a5
 1007 0024 13970701 		slli	a4,a5,16
 1008 0028 4183     		srli	a4,a4,16
 1009 002a 8327C4FE 		lw	a5,-20(s0)
 1010 002e 9AAB     		sh	a4,16(a5)
 423:Drivers/src/ch32v20x_usart.c ****     }
 424:Drivers/src/ch32v20x_usart.c ****     else
 425:Drivers/src/ch32v20x_usart.c ****     {
 426:Drivers/src/ch32v20x_usart.c ****         USARTx->CTLR2 &= CTLR2_LINEN_Reset;
 427:Drivers/src/ch32v20x_usart.c ****     }
 428:Drivers/src/ch32v20x_usart.c **** }
 1011              		.loc 1 428 1
 1012 0030 05A0     		j	.L42
 1013              	.L40:
 426:Drivers/src/ch32v20x_usart.c ****     }
 1014              		.loc 1 426 15
 1015 0032 8327C4FE 		lw	a5,-20(s0)
 1016 0036 9E2B     		lhu	a5,16(a5)
 1017 0038 13970701 		slli	a4,a5,16
 1018 003c 4183     		srli	a4,a4,16
 426:Drivers/src/ch32v20x_usart.c ****     }
 1019              		.loc 1 426 23
 1020 003e F177     		li	a5,-16384
 1021 0040 FD17     		addi	a5,a5,-1
 1022 0042 F98F     		and	a5,a4,a5
 1023 0044 13970701 		slli	a4,a5,16
 1024 0048 4183     		srli	a4,a4,16
 1025 004a 8327C4FE 		lw	a5,-20(s0)
 1026 004e 9AAB     		sh	a4,16(a5)
 1027              	.L42:
 1028              		.loc 1 428 1
 1029 0050 0100     		nop
 1030 0052 7244     		lw	s0,28(sp)
 1031              		.cfi_restore 8
 1032              		.cfi_def_cfa 2, 32
 1033 0054 0561     		addi	sp,sp,32
 1034              		.cfi_def_cfa_offset 0
 1035 0056 8280     		jr	ra
 1036              		.cfi_endproc
 1037              	.LFE28:
 1039              		.section	.text.USART_SendData,"ax",@progbits
 1040              		.align	1
 1041              		.globl	USART_SendData
 1043              	USART_SendData:
 1044              	.LFB29:
 429:Drivers/src/ch32v20x_usart.c **** 
 430:Drivers/src/ch32v20x_usart.c **** /*********************************************************************
 431:Drivers/src/ch32v20x_usart.c ****  * @fn      USART_SendData
GAS LISTING C:\Users\SOLDER~1\AppData\Local\Temp\ccheWc1y.s 			page 27


 432:Drivers/src/ch32v20x_usart.c ****  *
 433:Drivers/src/ch32v20x_usart.c ****  * @brief   Transmits single data through the USARTx peripheral.
 434:Drivers/src/ch32v20x_usart.c ****  *
 435:Drivers/src/ch32v20x_usart.c ****  * @param   USARTx - where x can be 1, 2, 3 to select the USART peripheral.
 436:Drivers/src/ch32v20x_usart.c ****  *          Data - the data to transmit.
 437:Drivers/src/ch32v20x_usart.c ****  *
 438:Drivers/src/ch32v20x_usart.c ****  * @return  none
 439:Drivers/src/ch32v20x_usart.c ****  */
 440:Drivers/src/ch32v20x_usart.c **** void USART_SendData(USART_TypeDef *USARTx, uint16_t Data)
 441:Drivers/src/ch32v20x_usart.c **** {
 1045              		.loc 1 441 1
 1046              		.cfi_startproc
 1047 0000 0111     		addi	sp,sp,-32
 1048              		.cfi_def_cfa_offset 32
 1049 0002 22CE     		sw	s0,28(sp)
 1050              		.cfi_offset 8, -4
 1051 0004 0010     		addi	s0,sp,32
 1052              		.cfi_def_cfa 8, 0
 1053 0006 2326A4FE 		sw	a0,-20(s0)
 1054 000a AE87     		mv	a5,a1
 1055 000c 2315F4FE 		sh	a5,-22(s0)
 442:Drivers/src/ch32v20x_usart.c ****     USARTx->DATAR = (Data & (uint16_t)0x01FF);
 1056              		.loc 1 442 27
 1057 0010 8357A4FE 		lhu	a5,-22(s0)
 1058 0014 93F7F71F 		andi	a5,a5,511
 1059 0018 13970701 		slli	a4,a5,16
 1060 001c 4183     		srli	a4,a4,16
 1061              		.loc 1 442 19
 1062 001e 8327C4FE 		lw	a5,-20(s0)
 1063 0022 DAA3     		sh	a4,4(a5)
 443:Drivers/src/ch32v20x_usart.c **** }
 1064              		.loc 1 443 1
 1065 0024 0100     		nop
 1066 0026 7244     		lw	s0,28(sp)
 1067              		.cfi_restore 8
 1068              		.cfi_def_cfa 2, 32
 1069 0028 0561     		addi	sp,sp,32
 1070              		.cfi_def_cfa_offset 0
 1071 002a 8280     		jr	ra
 1072              		.cfi_endproc
 1073              	.LFE29:
 1075              		.section	.text.USART_ReceiveData,"ax",@progbits
 1076              		.align	1
 1077              		.globl	USART_ReceiveData
 1079              	USART_ReceiveData:
 1080              	.LFB30:
 444:Drivers/src/ch32v20x_usart.c **** 
 445:Drivers/src/ch32v20x_usart.c **** /*********************************************************************
 446:Drivers/src/ch32v20x_usart.c ****  * @fn      USART_ReceiveData
 447:Drivers/src/ch32v20x_usart.c ****  *
 448:Drivers/src/ch32v20x_usart.c ****  * @brief   Returns the most recent received data by the USARTx peripheral.
 449:Drivers/src/ch32v20x_usart.c ****  *
 450:Drivers/src/ch32v20x_usart.c ****  * @param   USARTx - where x can be 1, 2, 3 to select the USART peripheral.
 451:Drivers/src/ch32v20x_usart.c ****  *
 452:Drivers/src/ch32v20x_usart.c ****  * @return  The received data.
 453:Drivers/src/ch32v20x_usart.c ****  */
 454:Drivers/src/ch32v20x_usart.c **** uint16_t USART_ReceiveData(USART_TypeDef *USARTx)
GAS LISTING C:\Users\SOLDER~1\AppData\Local\Temp\ccheWc1y.s 			page 28


 455:Drivers/src/ch32v20x_usart.c **** {
 1081              		.loc 1 455 1
 1082              		.cfi_startproc
 1083 0000 0111     		addi	sp,sp,-32
 1084              		.cfi_def_cfa_offset 32
 1085 0002 22CE     		sw	s0,28(sp)
 1086              		.cfi_offset 8, -4
 1087 0004 0010     		addi	s0,sp,32
 1088              		.cfi_def_cfa 8, 0
 1089 0006 2326A4FE 		sw	a0,-20(s0)
 456:Drivers/src/ch32v20x_usart.c ****     return (uint16_t)(USARTx->DATAR & (uint16_t)0x01FF);
 1090              		.loc 1 456 29
 1091 000a 8327C4FE 		lw	a5,-20(s0)
 1092 000e DE23     		lhu	a5,4(a5)
 1093 0010 C207     		slli	a5,a5,16
 1094 0012 C183     		srli	a5,a5,16
 1095              		.loc 1 456 12
 1096 0014 93F7F71F 		andi	a5,a5,511
 1097 0018 C207     		slli	a5,a5,16
 1098 001a C183     		srli	a5,a5,16
 457:Drivers/src/ch32v20x_usart.c **** }
 1099              		.loc 1 457 1
 1100 001c 3E85     		mv	a0,a5
 1101 001e 7244     		lw	s0,28(sp)
 1102              		.cfi_restore 8
 1103              		.cfi_def_cfa 2, 32
 1104 0020 0561     		addi	sp,sp,32
 1105              		.cfi_def_cfa_offset 0
 1106 0022 8280     		jr	ra
 1107              		.cfi_endproc
 1108              	.LFE30:
 1110              		.section	.text.USART_SendBreak,"ax",@progbits
 1111              		.align	1
 1112              		.globl	USART_SendBreak
 1114              	USART_SendBreak:
 1115              	.LFB31:
 458:Drivers/src/ch32v20x_usart.c **** 
 459:Drivers/src/ch32v20x_usart.c **** /*********************************************************************
 460:Drivers/src/ch32v20x_usart.c ****  * @fn      USART_SendBreak
 461:Drivers/src/ch32v20x_usart.c ****  *
 462:Drivers/src/ch32v20x_usart.c ****  * @brief   Transmits break characters.
 463:Drivers/src/ch32v20x_usart.c ****  *
 464:Drivers/src/ch32v20x_usart.c ****  * @param   USARTx - where x can be 1, 2, 3 to select the USART peripheral.
 465:Drivers/src/ch32v20x_usart.c ****  *
 466:Drivers/src/ch32v20x_usart.c ****  * @return  none
 467:Drivers/src/ch32v20x_usart.c ****  */
 468:Drivers/src/ch32v20x_usart.c **** void USART_SendBreak(USART_TypeDef *USARTx)
 469:Drivers/src/ch32v20x_usart.c **** {
 1116              		.loc 1 469 1
 1117              		.cfi_startproc
 1118 0000 0111     		addi	sp,sp,-32
 1119              		.cfi_def_cfa_offset 32
 1120 0002 22CE     		sw	s0,28(sp)
 1121              		.cfi_offset 8, -4
 1122 0004 0010     		addi	s0,sp,32
 1123              		.cfi_def_cfa 8, 0
 1124 0006 2326A4FE 		sw	a0,-20(s0)
GAS LISTING C:\Users\SOLDER~1\AppData\Local\Temp\ccheWc1y.s 			page 29


 470:Drivers/src/ch32v20x_usart.c ****     USARTx->CTLR1 |= CTLR1_SBK_Set;
 1125              		.loc 1 470 11
 1126 000a 8327C4FE 		lw	a5,-20(s0)
 1127 000e DE27     		lhu	a5,12(a5)
 1128 0010 C207     		slli	a5,a5,16
 1129 0012 C183     		srli	a5,a5,16
 1130              		.loc 1 470 19
 1131 0014 93E71700 		ori	a5,a5,1
 1132 0018 13970701 		slli	a4,a5,16
 1133 001c 4183     		srli	a4,a4,16
 1134 001e 8327C4FE 		lw	a5,-20(s0)
 1135 0022 DAA7     		sh	a4,12(a5)
 471:Drivers/src/ch32v20x_usart.c **** }
 1136              		.loc 1 471 1
 1137 0024 0100     		nop
 1138 0026 7244     		lw	s0,28(sp)
 1139              		.cfi_restore 8
 1140              		.cfi_def_cfa 2, 32
 1141 0028 0561     		addi	sp,sp,32
 1142              		.cfi_def_cfa_offset 0
 1143 002a 8280     		jr	ra
 1144              		.cfi_endproc
 1145              	.LFE31:
 1147              		.section	.text.USART_SetGuardTime,"ax",@progbits
 1148              		.align	1
 1149              		.globl	USART_SetGuardTime
 1151              	USART_SetGuardTime:
 1152              	.LFB32:
 472:Drivers/src/ch32v20x_usart.c **** 
 473:Drivers/src/ch32v20x_usart.c **** /*********************************************************************
 474:Drivers/src/ch32v20x_usart.c ****  * @fn      USART_SetGuardTime
 475:Drivers/src/ch32v20x_usart.c ****  *
 476:Drivers/src/ch32v20x_usart.c ****  * @brief   Sets the specified USART guard time.
 477:Drivers/src/ch32v20x_usart.c ****  *
 478:Drivers/src/ch32v20x_usart.c ****  * @param   USARTx - where x can be 1, 2, 3 to select the USART peripheral.
 479:Drivers/src/ch32v20x_usart.c ****  *          USART_GuardTime - specifies the guard time.
 480:Drivers/src/ch32v20x_usart.c ****  *
 481:Drivers/src/ch32v20x_usart.c ****  * @return  none
 482:Drivers/src/ch32v20x_usart.c ****  */
 483:Drivers/src/ch32v20x_usart.c **** void USART_SetGuardTime(USART_TypeDef *USARTx, uint8_t USART_GuardTime)
 484:Drivers/src/ch32v20x_usart.c **** {
 1153              		.loc 1 484 1
 1154              		.cfi_startproc
 1155 0000 0111     		addi	sp,sp,-32
 1156              		.cfi_def_cfa_offset 32
 1157 0002 22CE     		sw	s0,28(sp)
 1158              		.cfi_offset 8, -4
 1159 0004 0010     		addi	s0,sp,32
 1160              		.cfi_def_cfa 8, 0
 1161 0006 2326A4FE 		sw	a0,-20(s0)
 1162 000a AE87     		mv	a5,a1
 1163 000c A305F4FE 		sb	a5,-21(s0)
 485:Drivers/src/ch32v20x_usart.c ****     USARTx->GPR &= GPR_LSB_Mask;
 1164              		.loc 1 485 11
 1165 0010 8327C4FE 		lw	a5,-20(s0)
 1166 0014 9E2F     		lhu	a5,24(a5)
 1167 0016 C207     		slli	a5,a5,16
GAS LISTING C:\Users\SOLDER~1\AppData\Local\Temp\ccheWc1y.s 			page 30


 1168 0018 C183     		srli	a5,a5,16
 1169              		.loc 1 485 17
 1170 001a 93F7F70F 		andi	a5,a5,255
 1171 001e 13970701 		slli	a4,a5,16
 1172 0022 4183     		srli	a4,a4,16
 1173 0024 8327C4FE 		lw	a5,-20(s0)
 1174 0028 9AAF     		sh	a4,24(a5)
 486:Drivers/src/ch32v20x_usart.c ****     USARTx->GPR |= (uint16_t)((uint16_t)USART_GuardTime << 0x08);
 1175              		.loc 1 486 11
 1176 002a 8327C4FE 		lw	a5,-20(s0)
 1177 002e 9E2F     		lhu	a5,24(a5)
 1178 0030 13970701 		slli	a4,a5,16
 1179 0034 4183     		srli	a4,a4,16
 1180              		.loc 1 486 20
 1181 0036 8347B4FE 		lbu	a5,-21(s0)
 1182 003a C207     		slli	a5,a5,16
 1183 003c C183     		srli	a5,a5,16
 1184 003e A207     		slli	a5,a5,8
 1185 0040 C207     		slli	a5,a5,16
 1186 0042 C183     		srli	a5,a5,16
 1187              		.loc 1 486 17
 1188 0044 D98F     		or	a5,a4,a5
 1189 0046 13970701 		slli	a4,a5,16
 1190 004a 4183     		srli	a4,a4,16
 1191 004c 8327C4FE 		lw	a5,-20(s0)
 1192 0050 9AAF     		sh	a4,24(a5)
 487:Drivers/src/ch32v20x_usart.c **** }
 1193              		.loc 1 487 1
 1194 0052 0100     		nop
 1195 0054 7244     		lw	s0,28(sp)
 1196              		.cfi_restore 8
 1197              		.cfi_def_cfa 2, 32
 1198 0056 0561     		addi	sp,sp,32
 1199              		.cfi_def_cfa_offset 0
 1200 0058 8280     		jr	ra
 1201              		.cfi_endproc
 1202              	.LFE32:
 1204              		.section	.text.USART_SetPrescaler,"ax",@progbits
 1205              		.align	1
 1206              		.globl	USART_SetPrescaler
 1208              	USART_SetPrescaler:
 1209              	.LFB33:
 488:Drivers/src/ch32v20x_usart.c **** 
 489:Drivers/src/ch32v20x_usart.c **** /*********************************************************************
 490:Drivers/src/ch32v20x_usart.c ****  * @fn      USART_SetPrescaler
 491:Drivers/src/ch32v20x_usart.c ****  *
 492:Drivers/src/ch32v20x_usart.c ****  * @brief   Sets the system clock prescaler.
 493:Drivers/src/ch32v20x_usart.c ****  *
 494:Drivers/src/ch32v20x_usart.c ****  * @param   USARTx - where x can be 1, 2, 3 to select the USART peripheral.
 495:Drivers/src/ch32v20x_usart.c ****  *          USART_Prescaler - specifies the prescaler clock.
 496:Drivers/src/ch32v20x_usart.c ****  *
 497:Drivers/src/ch32v20x_usart.c ****  * @return  none
 498:Drivers/src/ch32v20x_usart.c ****  */
 499:Drivers/src/ch32v20x_usart.c **** void USART_SetPrescaler(USART_TypeDef *USARTx, uint8_t USART_Prescaler)
 500:Drivers/src/ch32v20x_usart.c **** {
 1210              		.loc 1 500 1
 1211              		.cfi_startproc
GAS LISTING C:\Users\SOLDER~1\AppData\Local\Temp\ccheWc1y.s 			page 31


 1212 0000 0111     		addi	sp,sp,-32
 1213              		.cfi_def_cfa_offset 32
 1214 0002 22CE     		sw	s0,28(sp)
 1215              		.cfi_offset 8, -4
 1216 0004 0010     		addi	s0,sp,32
 1217              		.cfi_def_cfa 8, 0
 1218 0006 2326A4FE 		sw	a0,-20(s0)
 1219 000a AE87     		mv	a5,a1
 1220 000c A305F4FE 		sb	a5,-21(s0)
 501:Drivers/src/ch32v20x_usart.c ****     USARTx->GPR &= GPR_MSB_Mask;
 1221              		.loc 1 501 11
 1222 0010 8327C4FE 		lw	a5,-20(s0)
 1223 0014 9E2F     		lhu	a5,24(a5)
 1224 0016 C207     		slli	a5,a5,16
 1225 0018 C183     		srli	a5,a5,16
 1226              		.loc 1 501 17
 1227 001a 93F707F0 		andi	a5,a5,-256
 1228 001e 13970701 		slli	a4,a5,16
 1229 0022 4183     		srli	a4,a4,16
 1230 0024 8327C4FE 		lw	a5,-20(s0)
 1231 0028 9AAF     		sh	a4,24(a5)
 502:Drivers/src/ch32v20x_usart.c ****     USARTx->GPR |= USART_Prescaler;
 1232              		.loc 1 502 11
 1233 002a 8327C4FE 		lw	a5,-20(s0)
 1234 002e 9E2F     		lhu	a5,24(a5)
 1235 0030 13970701 		slli	a4,a5,16
 1236 0034 4183     		srli	a4,a4,16
 1237              		.loc 1 502 17
 1238 0036 8347B4FE 		lbu	a5,-21(s0)
 1239 003a C207     		slli	a5,a5,16
 1240 003c C183     		srli	a5,a5,16
 1241 003e D98F     		or	a5,a4,a5
 1242 0040 13970701 		slli	a4,a5,16
 1243 0044 4183     		srli	a4,a4,16
 1244 0046 8327C4FE 		lw	a5,-20(s0)
 1245 004a 9AAF     		sh	a4,24(a5)
 503:Drivers/src/ch32v20x_usart.c **** }
 1246              		.loc 1 503 1
 1247 004c 0100     		nop
 1248 004e 7244     		lw	s0,28(sp)
 1249              		.cfi_restore 8
 1250              		.cfi_def_cfa 2, 32
 1251 0050 0561     		addi	sp,sp,32
 1252              		.cfi_def_cfa_offset 0
 1253 0052 8280     		jr	ra
 1254              		.cfi_endproc
 1255              	.LFE33:
 1257              		.section	.text.USART_SmartCardCmd,"ax",@progbits
 1258              		.align	1
 1259              		.globl	USART_SmartCardCmd
 1261              	USART_SmartCardCmd:
 1262              	.LFB34:
 504:Drivers/src/ch32v20x_usart.c **** 
 505:Drivers/src/ch32v20x_usart.c **** /*********************************************************************
 506:Drivers/src/ch32v20x_usart.c ****  * @fn      USART_SmartCardCmd
 507:Drivers/src/ch32v20x_usart.c ****  *
 508:Drivers/src/ch32v20x_usart.c ****  * @brief   Enables or disables the USART Smart Card mode.
GAS LISTING C:\Users\SOLDER~1\AppData\Local\Temp\ccheWc1y.s 			page 32


 509:Drivers/src/ch32v20x_usart.c ****  *
 510:Drivers/src/ch32v20x_usart.c ****  * @param   USARTx - where x can be 1, 2, 3 to select the USART peripheral.
 511:Drivers/src/ch32v20x_usart.c ****  *          NewState - ENABLE or DISABLE.
 512:Drivers/src/ch32v20x_usart.c ****  *
 513:Drivers/src/ch32v20x_usart.c ****  * @return  none
 514:Drivers/src/ch32v20x_usart.c ****  */
 515:Drivers/src/ch32v20x_usart.c **** void USART_SmartCardCmd(USART_TypeDef *USARTx, FunctionalState NewState)
 516:Drivers/src/ch32v20x_usart.c **** {
 1263              		.loc 1 516 1
 1264              		.cfi_startproc
 1265 0000 0111     		addi	sp,sp,-32
 1266              		.cfi_def_cfa_offset 32
 1267 0002 22CE     		sw	s0,28(sp)
 1268              		.cfi_offset 8, -4
 1269 0004 0010     		addi	s0,sp,32
 1270              		.cfi_def_cfa 8, 0
 1271 0006 2326A4FE 		sw	a0,-20(s0)
 1272 000a 2324B4FE 		sw	a1,-24(s0)
 517:Drivers/src/ch32v20x_usart.c ****     if(NewState != DISABLE)
 1273              		.loc 1 517 7
 1274 000e 832784FE 		lw	a5,-24(s0)
 1275 0012 99CF     		beq	a5,zero,.L50
 518:Drivers/src/ch32v20x_usart.c ****     {
 519:Drivers/src/ch32v20x_usart.c ****         USARTx->CTLR3 |= CTLR3_SCEN_Set;
 1276              		.loc 1 519 15
 1277 0014 8327C4FE 		lw	a5,-20(s0)
 1278 0018 DE2B     		lhu	a5,20(a5)
 1279 001a C207     		slli	a5,a5,16
 1280 001c C183     		srli	a5,a5,16
 1281              		.loc 1 519 23
 1282 001e 93E70702 		ori	a5,a5,32
 1283 0022 13970701 		slli	a4,a5,16
 1284 0026 4183     		srli	a4,a4,16
 1285 0028 8327C4FE 		lw	a5,-20(s0)
 1286 002c DAAB     		sh	a4,20(a5)
 520:Drivers/src/ch32v20x_usart.c ****     }
 521:Drivers/src/ch32v20x_usart.c ****     else
 522:Drivers/src/ch32v20x_usart.c ****     {
 523:Drivers/src/ch32v20x_usart.c ****         USARTx->CTLR3 &= CTLR3_SCEN_Reset;
 524:Drivers/src/ch32v20x_usart.c ****     }
 525:Drivers/src/ch32v20x_usart.c **** }
 1287              		.loc 1 525 1
 1288 002e 31A8     		j	.L52
 1289              	.L50:
 523:Drivers/src/ch32v20x_usart.c ****     }
 1290              		.loc 1 523 15
 1291 0030 8327C4FE 		lw	a5,-20(s0)
 1292 0034 DE2B     		lhu	a5,20(a5)
 1293 0036 C207     		slli	a5,a5,16
 1294 0038 C183     		srli	a5,a5,16
 523:Drivers/src/ch32v20x_usart.c ****     }
 1295              		.loc 1 523 23
 1296 003a 93F7F7FD 		andi	a5,a5,-33
 1297 003e 13970701 		slli	a4,a5,16
 1298 0042 4183     		srli	a4,a4,16
 1299 0044 8327C4FE 		lw	a5,-20(s0)
 1300 0048 DAAB     		sh	a4,20(a5)
GAS LISTING C:\Users\SOLDER~1\AppData\Local\Temp\ccheWc1y.s 			page 33


 1301              	.L52:
 1302              		.loc 1 525 1
 1303 004a 0100     		nop
 1304 004c 7244     		lw	s0,28(sp)
 1305              		.cfi_restore 8
 1306              		.cfi_def_cfa 2, 32
 1307 004e 0561     		addi	sp,sp,32
 1308              		.cfi_def_cfa_offset 0
 1309 0050 8280     		jr	ra
 1310              		.cfi_endproc
 1311              	.LFE34:
 1313              		.section	.text.USART_SmartCardNACKCmd,"ax",@progbits
 1314              		.align	1
 1315              		.globl	USART_SmartCardNACKCmd
 1317              	USART_SmartCardNACKCmd:
 1318              	.LFB35:
 526:Drivers/src/ch32v20x_usart.c **** 
 527:Drivers/src/ch32v20x_usart.c **** /*********************************************************************
 528:Drivers/src/ch32v20x_usart.c ****  * @fn      USART_SmartCardNACKCmd
 529:Drivers/src/ch32v20x_usart.c ****  *
 530:Drivers/src/ch32v20x_usart.c ****  * @brief   Enables or disables NACK transmission.
 531:Drivers/src/ch32v20x_usart.c ****  *
 532:Drivers/src/ch32v20x_usart.c ****  * @param   USARTx - where x can be 1, 2, 3 to select the USART peripheral.
 533:Drivers/src/ch32v20x_usart.c ****  *          NewState - ENABLE or DISABLE.
 534:Drivers/src/ch32v20x_usart.c ****  *
 535:Drivers/src/ch32v20x_usart.c ****  * @return  none
 536:Drivers/src/ch32v20x_usart.c ****  */
 537:Drivers/src/ch32v20x_usart.c **** void USART_SmartCardNACKCmd(USART_TypeDef *USARTx, FunctionalState NewState)
 538:Drivers/src/ch32v20x_usart.c **** {
 1319              		.loc 1 538 1
 1320              		.cfi_startproc
 1321 0000 0111     		addi	sp,sp,-32
 1322              		.cfi_def_cfa_offset 32
 1323 0002 22CE     		sw	s0,28(sp)
 1324              		.cfi_offset 8, -4
 1325 0004 0010     		addi	s0,sp,32
 1326              		.cfi_def_cfa 8, 0
 1327 0006 2326A4FE 		sw	a0,-20(s0)
 1328 000a 2324B4FE 		sw	a1,-24(s0)
 539:Drivers/src/ch32v20x_usart.c ****     if(NewState != DISABLE)
 1329              		.loc 1 539 7
 1330 000e 832784FE 		lw	a5,-24(s0)
 1331 0012 99CF     		beq	a5,zero,.L54
 540:Drivers/src/ch32v20x_usart.c ****     {
 541:Drivers/src/ch32v20x_usart.c ****         USARTx->CTLR3 |= CTLR3_NACK_Set;
 1332              		.loc 1 541 15
 1333 0014 8327C4FE 		lw	a5,-20(s0)
 1334 0018 DE2B     		lhu	a5,20(a5)
 1335 001a C207     		slli	a5,a5,16
 1336 001c C183     		srli	a5,a5,16
 1337              		.loc 1 541 23
 1338 001e 93E70701 		ori	a5,a5,16
 1339 0022 13970701 		slli	a4,a5,16
 1340 0026 4183     		srli	a4,a4,16
 1341 0028 8327C4FE 		lw	a5,-20(s0)
 1342 002c DAAB     		sh	a4,20(a5)
 542:Drivers/src/ch32v20x_usart.c ****     }
GAS LISTING C:\Users\SOLDER~1\AppData\Local\Temp\ccheWc1y.s 			page 34


 543:Drivers/src/ch32v20x_usart.c ****     else
 544:Drivers/src/ch32v20x_usart.c ****     {
 545:Drivers/src/ch32v20x_usart.c ****         USARTx->CTLR3 &= CTLR3_NACK_Reset;
 546:Drivers/src/ch32v20x_usart.c ****     }
 547:Drivers/src/ch32v20x_usart.c **** }
 1343              		.loc 1 547 1
 1344 002e 29A8     		j	.L56
 1345              	.L54:
 545:Drivers/src/ch32v20x_usart.c ****     }
 1346              		.loc 1 545 15
 1347 0030 8327C4FE 		lw	a5,-20(s0)
 1348 0034 DE2B     		lhu	a5,20(a5)
 1349 0036 C207     		slli	a5,a5,16
 1350 0038 C183     		srli	a5,a5,16
 545:Drivers/src/ch32v20x_usart.c ****     }
 1351              		.loc 1 545 23
 1352 003a BD9B     		andi	a5,a5,-17
 1353 003c 13970701 		slli	a4,a5,16
 1354 0040 4183     		srli	a4,a4,16
 1355 0042 8327C4FE 		lw	a5,-20(s0)
 1356 0046 DAAB     		sh	a4,20(a5)
 1357              	.L56:
 1358              		.loc 1 547 1
 1359 0048 0100     		nop
 1360 004a 7244     		lw	s0,28(sp)
 1361              		.cfi_restore 8
 1362              		.cfi_def_cfa 2, 32
 1363 004c 0561     		addi	sp,sp,32
 1364              		.cfi_def_cfa_offset 0
 1365 004e 8280     		jr	ra
 1366              		.cfi_endproc
 1367              	.LFE35:
 1369              		.section	.text.USART_HalfDuplexCmd,"ax",@progbits
 1370              		.align	1
 1371              		.globl	USART_HalfDuplexCmd
 1373              	USART_HalfDuplexCmd:
 1374              	.LFB36:
 548:Drivers/src/ch32v20x_usart.c **** 
 549:Drivers/src/ch32v20x_usart.c **** /*********************************************************************
 550:Drivers/src/ch32v20x_usart.c ****  * @fn      USART_HalfDuplexCmd
 551:Drivers/src/ch32v20x_usart.c ****  *
 552:Drivers/src/ch32v20x_usart.c ****  * @brief   Enables or disables the USART Half Duplex communication.
 553:Drivers/src/ch32v20x_usart.c ****  *
 554:Drivers/src/ch32v20x_usart.c ****  * @param   USARTx - where x can be 1, 2, 3 to select the USART peripheral.
 555:Drivers/src/ch32v20x_usart.c ****  *                  NewState - ENABLE or DISABLE.
 556:Drivers/src/ch32v20x_usart.c ****  *
 557:Drivers/src/ch32v20x_usart.c ****  * @return  none
 558:Drivers/src/ch32v20x_usart.c ****  */
 559:Drivers/src/ch32v20x_usart.c **** void USART_HalfDuplexCmd(USART_TypeDef *USARTx, FunctionalState NewState)
 560:Drivers/src/ch32v20x_usart.c **** {
 1375              		.loc 1 560 1
 1376              		.cfi_startproc
 1377 0000 0111     		addi	sp,sp,-32
 1378              		.cfi_def_cfa_offset 32
 1379 0002 22CE     		sw	s0,28(sp)
 1380              		.cfi_offset 8, -4
 1381 0004 0010     		addi	s0,sp,32
GAS LISTING C:\Users\SOLDER~1\AppData\Local\Temp\ccheWc1y.s 			page 35


 1382              		.cfi_def_cfa 8, 0
 1383 0006 2326A4FE 		sw	a0,-20(s0)
 1384 000a 2324B4FE 		sw	a1,-24(s0)
 561:Drivers/src/ch32v20x_usart.c ****     if(NewState != DISABLE)
 1385              		.loc 1 561 7
 1386 000e 832784FE 		lw	a5,-24(s0)
 1387 0012 99CF     		beq	a5,zero,.L58
 562:Drivers/src/ch32v20x_usart.c ****     {
 563:Drivers/src/ch32v20x_usart.c ****         USARTx->CTLR3 |= CTLR3_HDSEL_Set;
 1388              		.loc 1 563 15
 1389 0014 8327C4FE 		lw	a5,-20(s0)
 1390 0018 DE2B     		lhu	a5,20(a5)
 1391 001a C207     		slli	a5,a5,16
 1392 001c C183     		srli	a5,a5,16
 1393              		.loc 1 563 23
 1394 001e 93E78700 		ori	a5,a5,8
 1395 0022 13970701 		slli	a4,a5,16
 1396 0026 4183     		srli	a4,a4,16
 1397 0028 8327C4FE 		lw	a5,-20(s0)
 1398 002c DAAB     		sh	a4,20(a5)
 564:Drivers/src/ch32v20x_usart.c ****     }
 565:Drivers/src/ch32v20x_usart.c ****     else
 566:Drivers/src/ch32v20x_usart.c ****     {
 567:Drivers/src/ch32v20x_usart.c ****         USARTx->CTLR3 &= CTLR3_HDSEL_Reset;
 568:Drivers/src/ch32v20x_usart.c ****     }
 569:Drivers/src/ch32v20x_usart.c **** }
 1399              		.loc 1 569 1
 1400 002e 29A8     		j	.L60
 1401              	.L58:
 567:Drivers/src/ch32v20x_usart.c ****     }
 1402              		.loc 1 567 15
 1403 0030 8327C4FE 		lw	a5,-20(s0)
 1404 0034 DE2B     		lhu	a5,20(a5)
 1405 0036 C207     		slli	a5,a5,16
 1406 0038 C183     		srli	a5,a5,16
 567:Drivers/src/ch32v20x_usart.c ****     }
 1407              		.loc 1 567 23
 1408 003a DD9B     		andi	a5,a5,-9
 1409 003c 13970701 		slli	a4,a5,16
 1410 0040 4183     		srli	a4,a4,16
 1411 0042 8327C4FE 		lw	a5,-20(s0)
 1412 0046 DAAB     		sh	a4,20(a5)
 1413              	.L60:
 1414              		.loc 1 569 1
 1415 0048 0100     		nop
 1416 004a 7244     		lw	s0,28(sp)
 1417              		.cfi_restore 8
 1418              		.cfi_def_cfa 2, 32
 1419 004c 0561     		addi	sp,sp,32
 1420              		.cfi_def_cfa_offset 0
 1421 004e 8280     		jr	ra
 1422              		.cfi_endproc
 1423              	.LFE36:
 1425              		.section	.text.USART_OverSampling8Cmd,"ax",@progbits
 1426              		.align	1
 1427              		.globl	USART_OverSampling8Cmd
 1429              	USART_OverSampling8Cmd:
GAS LISTING C:\Users\SOLDER~1\AppData\Local\Temp\ccheWc1y.s 			page 36


 1430              	.LFB37:
 570:Drivers/src/ch32v20x_usart.c **** 
 571:Drivers/src/ch32v20x_usart.c **** /*********************************************************************
 572:Drivers/src/ch32v20x_usart.c ****  * @fn      USART_OverSampling8Cmd
 573:Drivers/src/ch32v20x_usart.c ****  *
 574:Drivers/src/ch32v20x_usart.c ****  * @brief   Enables or disables the USART's 8x oversampling mode.
 575:Drivers/src/ch32v20x_usart.c ****  *
 576:Drivers/src/ch32v20x_usart.c ****  * @param   USARTx - where x can be 1, 2, 3 to select the USART peripheral.
 577:Drivers/src/ch32v20x_usart.c ****  *          NewState - ENABLE or DISABLE.
 578:Drivers/src/ch32v20x_usart.c ****  *          Note-
 579:Drivers/src/ch32v20x_usart.c ****  *          This function has to be called before calling USART_Init()
 580:Drivers/src/ch32v20x_usart.c ****  *          function in order to have correct baudrate Divider value. 
 581:Drivers/src/ch32v20x_usart.c ****  * @return  none
 582:Drivers/src/ch32v20x_usart.c ****  */
 583:Drivers/src/ch32v20x_usart.c **** void USART_OverSampling8Cmd(USART_TypeDef *USARTx, FunctionalState NewState)
 584:Drivers/src/ch32v20x_usart.c **** {
 1431              		.loc 1 584 1
 1432              		.cfi_startproc
 1433 0000 0111     		addi	sp,sp,-32
 1434              		.cfi_def_cfa_offset 32
 1435 0002 22CE     		sw	s0,28(sp)
 1436              		.cfi_offset 8, -4
 1437 0004 0010     		addi	s0,sp,32
 1438              		.cfi_def_cfa 8, 0
 1439 0006 2326A4FE 		sw	a0,-20(s0)
 1440 000a 2324B4FE 		sw	a1,-24(s0)
 585:Drivers/src/ch32v20x_usart.c ****     if(NewState != DISABLE)
 1441              		.loc 1 585 7
 1442 000e 832784FE 		lw	a5,-24(s0)
 1443 0012 85C3     		beq	a5,zero,.L62
 586:Drivers/src/ch32v20x_usart.c ****     {
 587:Drivers/src/ch32v20x_usart.c ****         USARTx->CTLR1 |= CTLR1_OVER8_Set;
 1444              		.loc 1 587 15
 1445 0014 8327C4FE 		lw	a5,-20(s0)
 1446 0018 DE27     		lhu	a5,12(a5)
 1447 001a 13970701 		slli	a4,a5,16
 1448 001e 4183     		srli	a4,a4,16
 1449              		.loc 1 587 23
 1450 0020 E177     		li	a5,-32768
 1451 0022 D98F     		or	a5,a4,a5
 1452 0024 13970701 		slli	a4,a5,16
 1453 0028 4183     		srli	a4,a4,16
 1454 002a 8327C4FE 		lw	a5,-20(s0)
 1455 002e DAA7     		sh	a4,12(a5)
 588:Drivers/src/ch32v20x_usart.c ****     }
 589:Drivers/src/ch32v20x_usart.c ****     else
 590:Drivers/src/ch32v20x_usart.c ****     {
 591:Drivers/src/ch32v20x_usart.c ****         USARTx->CTLR1 &= CTLR1_OVER8_Reset;
 592:Drivers/src/ch32v20x_usart.c ****     }
 593:Drivers/src/ch32v20x_usart.c **** }
 1456              		.loc 1 593 1
 1457 0030 05A0     		j	.L64
 1458              	.L62:
 591:Drivers/src/ch32v20x_usart.c ****     }
 1459              		.loc 1 591 15
 1460 0032 8327C4FE 		lw	a5,-20(s0)
 1461 0036 DE27     		lhu	a5,12(a5)
GAS LISTING C:\Users\SOLDER~1\AppData\Local\Temp\ccheWc1y.s 			page 37


 1462 0038 13970701 		slli	a4,a5,16
 1463 003c 4183     		srli	a4,a4,16
 591:Drivers/src/ch32v20x_usart.c ****     }
 1464              		.loc 1 591 23
 1465 003e A167     		li	a5,32768
 1466 0040 FD17     		addi	a5,a5,-1
 1467 0042 F98F     		and	a5,a4,a5
 1468 0044 13970701 		slli	a4,a5,16
 1469 0048 4183     		srli	a4,a4,16
 1470 004a 8327C4FE 		lw	a5,-20(s0)
 1471 004e DAA7     		sh	a4,12(a5)
 1472              	.L64:
 1473              		.loc 1 593 1
 1474 0050 0100     		nop
 1475 0052 7244     		lw	s0,28(sp)
 1476              		.cfi_restore 8
 1477              		.cfi_def_cfa 2, 32
 1478 0054 0561     		addi	sp,sp,32
 1479              		.cfi_def_cfa_offset 0
 1480 0056 8280     		jr	ra
 1481              		.cfi_endproc
 1482              	.LFE37:
 1484              		.section	.text.USART_OneBitMethodCmd,"ax",@progbits
 1485              		.align	1
 1486              		.globl	USART_OneBitMethodCmd
 1488              	USART_OneBitMethodCmd:
 1489              	.LFB38:
 594:Drivers/src/ch32v20x_usart.c **** 
 595:Drivers/src/ch32v20x_usart.c **** /*********************************************************************
 596:Drivers/src/ch32v20x_usart.c ****  * @fn      USART_OneBitMethodCmd
 597:Drivers/src/ch32v20x_usart.c ****  *
 598:Drivers/src/ch32v20x_usart.c ****  * @brief   Enables or disables the USART's one bit sampling method.
 599:Drivers/src/ch32v20x_usart.c ****  *
 600:Drivers/src/ch32v20x_usart.c ****  * @param   USARTx - where x can be 1, 2, 3 to select the USART peripheral.
 601:Drivers/src/ch32v20x_usart.c ****  *          NewState - ENABLE or DISABLE.
 602:Drivers/src/ch32v20x_usart.c ****  *
 603:Drivers/src/ch32v20x_usart.c ****  * @return  none
 604:Drivers/src/ch32v20x_usart.c ****  */
 605:Drivers/src/ch32v20x_usart.c **** void USART_OneBitMethodCmd(USART_TypeDef *USARTx, FunctionalState NewState)
 606:Drivers/src/ch32v20x_usart.c **** {
 1490              		.loc 1 606 1
 1491              		.cfi_startproc
 1492 0000 0111     		addi	sp,sp,-32
 1493              		.cfi_def_cfa_offset 32
 1494 0002 22CE     		sw	s0,28(sp)
 1495              		.cfi_offset 8, -4
 1496 0004 0010     		addi	s0,sp,32
 1497              		.cfi_def_cfa 8, 0
 1498 0006 2326A4FE 		sw	a0,-20(s0)
 1499 000a 2324B4FE 		sw	a1,-24(s0)
 607:Drivers/src/ch32v20x_usart.c ****     if(NewState != DISABLE)
 1500              		.loc 1 607 7
 1501 000e 832784FE 		lw	a5,-24(s0)
 1502 0012 95C3     		beq	a5,zero,.L66
 608:Drivers/src/ch32v20x_usart.c ****     {
 609:Drivers/src/ch32v20x_usart.c ****         USARTx->CTLR3 |= CTLR3_ONEBITE_Set;
 1503              		.loc 1 609 15
GAS LISTING C:\Users\SOLDER~1\AppData\Local\Temp\ccheWc1y.s 			page 38


 1504 0014 8327C4FE 		lw	a5,-20(s0)
 1505 0018 DE2B     		lhu	a5,20(a5)
 1506 001a 13970701 		slli	a4,a5,16
 1507 001e 4183     		srli	a4,a4,16
 1508              		.loc 1 609 23
 1509 0020 8567     		li	a5,4096
 1510 0022 93870780 		addi	a5,a5,-2048
 1511 0026 D98F     		or	a5,a4,a5
 1512 0028 13970701 		slli	a4,a5,16
 1513 002c 4183     		srli	a4,a4,16
 1514 002e 8327C4FE 		lw	a5,-20(s0)
 1515 0032 DAAB     		sh	a4,20(a5)
 610:Drivers/src/ch32v20x_usart.c ****     }
 611:Drivers/src/ch32v20x_usart.c ****     else
 612:Drivers/src/ch32v20x_usart.c ****     {
 613:Drivers/src/ch32v20x_usart.c ****         USARTx->CTLR3 &= CTLR3_ONEBITE_Reset;
 614:Drivers/src/ch32v20x_usart.c ****     }
 615:Drivers/src/ch32v20x_usart.c **** }
 1516              		.loc 1 615 1
 1517 0034 0DA0     		j	.L68
 1518              	.L66:
 613:Drivers/src/ch32v20x_usart.c ****     }
 1519              		.loc 1 613 15
 1520 0036 8327C4FE 		lw	a5,-20(s0)
 1521 003a DE2B     		lhu	a5,20(a5)
 1522 003c 13970701 		slli	a4,a5,16
 1523 0040 4183     		srli	a4,a4,16
 613:Drivers/src/ch32v20x_usart.c ****     }
 1524              		.loc 1 613 23
 1525 0042 FD77     		li	a5,-4096
 1526 0044 9387F77F 		addi	a5,a5,2047
 1527 0048 F98F     		and	a5,a4,a5
 1528 004a 13970701 		slli	a4,a5,16
 1529 004e 4183     		srli	a4,a4,16
 1530 0050 8327C4FE 		lw	a5,-20(s0)
 1531 0054 DAAB     		sh	a4,20(a5)
 1532              	.L68:
 1533              		.loc 1 615 1
 1534 0056 0100     		nop
 1535 0058 7244     		lw	s0,28(sp)
 1536              		.cfi_restore 8
 1537              		.cfi_def_cfa 2, 32
 1538 005a 0561     		addi	sp,sp,32
 1539              		.cfi_def_cfa_offset 0
 1540 005c 8280     		jr	ra
 1541              		.cfi_endproc
 1542              	.LFE38:
 1544              		.section	.text.USART_IrDAConfig,"ax",@progbits
 1545              		.align	1
 1546              		.globl	USART_IrDAConfig
 1548              	USART_IrDAConfig:
 1549              	.LFB39:
 616:Drivers/src/ch32v20x_usart.c **** 
 617:Drivers/src/ch32v20x_usart.c **** /*********************************************************************
 618:Drivers/src/ch32v20x_usart.c ****  * @fn      USART_IrDAConfig
 619:Drivers/src/ch32v20x_usart.c ****  *
 620:Drivers/src/ch32v20x_usart.c ****  * @brief   Configures the USART's IrDA interface.
GAS LISTING C:\Users\SOLDER~1\AppData\Local\Temp\ccheWc1y.s 			page 39


 621:Drivers/src/ch32v20x_usart.c ****  *
 622:Drivers/src/ch32v20x_usart.c ****  * @param   USARTx - where x can be 1, 2, 3 to select the USART peripheral.
 623:Drivers/src/ch32v20x_usart.c ****  *          USART_IrDAMode - specifies the IrDA mode.
 624:Drivers/src/ch32v20x_usart.c ****  *            USART_IrDAMode_LowPower.
 625:Drivers/src/ch32v20x_usart.c ****  *            USART_IrDAMode_Normal.
 626:Drivers/src/ch32v20x_usart.c ****  *
 627:Drivers/src/ch32v20x_usart.c ****  * @return  none
 628:Drivers/src/ch32v20x_usart.c ****  */
 629:Drivers/src/ch32v20x_usart.c **** void USART_IrDAConfig(USART_TypeDef *USARTx, uint16_t USART_IrDAMode)
 630:Drivers/src/ch32v20x_usart.c **** {
 1550              		.loc 1 630 1
 1551              		.cfi_startproc
 1552 0000 0111     		addi	sp,sp,-32
 1553              		.cfi_def_cfa_offset 32
 1554 0002 22CE     		sw	s0,28(sp)
 1555              		.cfi_offset 8, -4
 1556 0004 0010     		addi	s0,sp,32
 1557              		.cfi_def_cfa 8, 0
 1558 0006 2326A4FE 		sw	a0,-20(s0)
 1559 000a AE87     		mv	a5,a1
 1560 000c 2315F4FE 		sh	a5,-22(s0)
 631:Drivers/src/ch32v20x_usart.c ****     USARTx->CTLR3 &= CTLR3_IRLP_Mask;
 1561              		.loc 1 631 11
 1562 0010 8327C4FE 		lw	a5,-20(s0)
 1563 0014 DE2B     		lhu	a5,20(a5)
 1564 0016 C207     		slli	a5,a5,16
 1565 0018 C183     		srli	a5,a5,16
 1566              		.loc 1 631 19
 1567 001a ED9B     		andi	a5,a5,-5
 1568 001c 13970701 		slli	a4,a5,16
 1569 0020 4183     		srli	a4,a4,16
 1570 0022 8327C4FE 		lw	a5,-20(s0)
 1571 0026 DAAB     		sh	a4,20(a5)
 632:Drivers/src/ch32v20x_usart.c ****     USARTx->CTLR3 |= USART_IrDAMode;
 1572              		.loc 1 632 11
 1573 0028 8327C4FE 		lw	a5,-20(s0)
 1574 002c DE2B     		lhu	a5,20(a5)
 1575 002e C207     		slli	a5,a5,16
 1576 0030 C183     		srli	a5,a5,16
 1577              		.loc 1 632 19
 1578 0032 0357A4FE 		lhu	a4,-22(s0)
 1579 0036 D98F     		or	a5,a5,a4
 1580 0038 13970701 		slli	a4,a5,16
 1581 003c 4183     		srli	a4,a4,16
 1582 003e 8327C4FE 		lw	a5,-20(s0)
 1583 0042 DAAB     		sh	a4,20(a5)
 633:Drivers/src/ch32v20x_usart.c **** }
 1584              		.loc 1 633 1
 1585 0044 0100     		nop
 1586 0046 7244     		lw	s0,28(sp)
 1587              		.cfi_restore 8
 1588              		.cfi_def_cfa 2, 32
 1589 0048 0561     		addi	sp,sp,32
 1590              		.cfi_def_cfa_offset 0
 1591 004a 8280     		jr	ra
 1592              		.cfi_endproc
 1593              	.LFE39:
GAS LISTING C:\Users\SOLDER~1\AppData\Local\Temp\ccheWc1y.s 			page 40


 1595              		.section	.text.USART_IrDACmd,"ax",@progbits
 1596              		.align	1
 1597              		.globl	USART_IrDACmd
 1599              	USART_IrDACmd:
 1600              	.LFB40:
 634:Drivers/src/ch32v20x_usart.c **** 
 635:Drivers/src/ch32v20x_usart.c **** /*********************************************************************
 636:Drivers/src/ch32v20x_usart.c ****  * @fn      USART_IrDACmd
 637:Drivers/src/ch32v20x_usart.c ****  *
 638:Drivers/src/ch32v20x_usart.c ****  * @brief   Enables or disables the USART's IrDA interface.
 639:Drivers/src/ch32v20x_usart.c ****  *
 640:Drivers/src/ch32v20x_usart.c ****  * @param   USARTx - where x can be 1, 2, 3 to select the USART peripheral.
 641:Drivers/src/ch32v20x_usart.c ****  *          NewState - ENABLE or DISABLE.
 642:Drivers/src/ch32v20x_usart.c ****  *
 643:Drivers/src/ch32v20x_usart.c ****  * @return  none
 644:Drivers/src/ch32v20x_usart.c ****  */
 645:Drivers/src/ch32v20x_usart.c **** void USART_IrDACmd(USART_TypeDef *USARTx, FunctionalState NewState)
 646:Drivers/src/ch32v20x_usart.c **** {
 1601              		.loc 1 646 1
 1602              		.cfi_startproc
 1603 0000 0111     		addi	sp,sp,-32
 1604              		.cfi_def_cfa_offset 32
 1605 0002 22CE     		sw	s0,28(sp)
 1606              		.cfi_offset 8, -4
 1607 0004 0010     		addi	s0,sp,32
 1608              		.cfi_def_cfa 8, 0
 1609 0006 2326A4FE 		sw	a0,-20(s0)
 1610 000a 2324B4FE 		sw	a1,-24(s0)
 647:Drivers/src/ch32v20x_usart.c ****     if(NewState != DISABLE)
 1611              		.loc 1 647 7
 1612 000e 832784FE 		lw	a5,-24(s0)
 1613 0012 99CF     		beq	a5,zero,.L71
 648:Drivers/src/ch32v20x_usart.c ****     {
 649:Drivers/src/ch32v20x_usart.c ****         USARTx->CTLR3 |= CTLR3_IREN_Set;
 1614              		.loc 1 649 15
 1615 0014 8327C4FE 		lw	a5,-20(s0)
 1616 0018 DE2B     		lhu	a5,20(a5)
 1617 001a C207     		slli	a5,a5,16
 1618 001c C183     		srli	a5,a5,16
 1619              		.loc 1 649 23
 1620 001e 93E72700 		ori	a5,a5,2
 1621 0022 13970701 		slli	a4,a5,16
 1622 0026 4183     		srli	a4,a4,16
 1623 0028 8327C4FE 		lw	a5,-20(s0)
 1624 002c DAAB     		sh	a4,20(a5)
 650:Drivers/src/ch32v20x_usart.c ****     }
 651:Drivers/src/ch32v20x_usart.c ****     else
 652:Drivers/src/ch32v20x_usart.c ****     {
 653:Drivers/src/ch32v20x_usart.c ****         USARTx->CTLR3 &= CTLR3_IREN_Reset;
 654:Drivers/src/ch32v20x_usart.c ****     }
 655:Drivers/src/ch32v20x_usart.c **** }
 1625              		.loc 1 655 1
 1626 002e 29A8     		j	.L73
 1627              	.L71:
 653:Drivers/src/ch32v20x_usart.c ****     }
 1628              		.loc 1 653 15
 1629 0030 8327C4FE 		lw	a5,-20(s0)
GAS LISTING C:\Users\SOLDER~1\AppData\Local\Temp\ccheWc1y.s 			page 41


 1630 0034 DE2B     		lhu	a5,20(a5)
 1631 0036 C207     		slli	a5,a5,16
 1632 0038 C183     		srli	a5,a5,16
 653:Drivers/src/ch32v20x_usart.c ****     }
 1633              		.loc 1 653 23
 1634 003a F59B     		andi	a5,a5,-3
 1635 003c 13970701 		slli	a4,a5,16
 1636 0040 4183     		srli	a4,a4,16
 1637 0042 8327C4FE 		lw	a5,-20(s0)
 1638 0046 DAAB     		sh	a4,20(a5)
 1639              	.L73:
 1640              		.loc 1 655 1
 1641 0048 0100     		nop
 1642 004a 7244     		lw	s0,28(sp)
 1643              		.cfi_restore 8
 1644              		.cfi_def_cfa 2, 32
 1645 004c 0561     		addi	sp,sp,32
 1646              		.cfi_def_cfa_offset 0
 1647 004e 8280     		jr	ra
 1648              		.cfi_endproc
 1649              	.LFE40:
 1651              		.section	.text.USART_GetFlagStatus,"ax",@progbits
 1652              		.align	1
 1653              		.globl	USART_GetFlagStatus
 1655              	USART_GetFlagStatus:
 1656              	.LFB41:
 656:Drivers/src/ch32v20x_usart.c **** 
 657:Drivers/src/ch32v20x_usart.c **** /*********************************************************************
 658:Drivers/src/ch32v20x_usart.c ****  * @fn      USART_GetFlagStatus
 659:Drivers/src/ch32v20x_usart.c ****  *
 660:Drivers/src/ch32v20x_usart.c ****  * @brief   Checks whether the specified USART flag is set or not.
 661:Drivers/src/ch32v20x_usart.c ****  *
 662:Drivers/src/ch32v20x_usart.c ****  * @param   USARTx - where x can be 1, 2, 3 to select the USART peripheral.
 663:Drivers/src/ch32v20x_usart.c ****  *          USART_FLAG - specifies the flag to check.
 664:Drivers/src/ch32v20x_usart.c ****  *            USART_FLAG_LBD - LIN Break detection flag.
 665:Drivers/src/ch32v20x_usart.c ****  *            USART_FLAG_TXE - Transmit data register empty flag.
 666:Drivers/src/ch32v20x_usart.c ****  *            USART_FLAG_TC - Transmission Complete flag.
 667:Drivers/src/ch32v20x_usart.c ****  *            USART_FLAG_RXNE - Receive data register not empty flag.
 668:Drivers/src/ch32v20x_usart.c ****  *            USART_FLAG_IDLE - Idle Line detection flag.
 669:Drivers/src/ch32v20x_usart.c ****  *            USART_FLAG_ORE - OverRun Error flag.
 670:Drivers/src/ch32v20x_usart.c ****  *            USART_FLAG_NE - Noise Error flag.
 671:Drivers/src/ch32v20x_usart.c ****  *            USART_FLAG_FE - Framing Error flag.
 672:Drivers/src/ch32v20x_usart.c ****  *            USART_FLAG_PE - Parity Error flag.
 673:Drivers/src/ch32v20x_usart.c ****  *
 674:Drivers/src/ch32v20x_usart.c ****  * @return  bitstatus: SET or RESET
 675:Drivers/src/ch32v20x_usart.c ****  */
 676:Drivers/src/ch32v20x_usart.c **** FlagStatus USART_GetFlagStatus(USART_TypeDef *USARTx, uint16_t USART_FLAG)
 677:Drivers/src/ch32v20x_usart.c **** {
 1657              		.loc 1 677 1
 1658              		.cfi_startproc
 1659 0000 7971     		addi	sp,sp,-48
 1660              		.cfi_def_cfa_offset 48
 1661 0002 22D6     		sw	s0,44(sp)
 1662              		.cfi_offset 8, -4
 1663 0004 0018     		addi	s0,sp,48
 1664              		.cfi_def_cfa 8, 0
 1665 0006 232EA4FC 		sw	a0,-36(s0)
GAS LISTING C:\Users\SOLDER~1\AppData\Local\Temp\ccheWc1y.s 			page 42


 1666 000a AE87     		mv	a5,a1
 1667 000c 231DF4FC 		sh	a5,-38(s0)
 678:Drivers/src/ch32v20x_usart.c ****     FlagStatus bitstatus = RESET;
 1668              		.loc 1 678 16
 1669 0010 232604FE 		sw	zero,-20(s0)
 679:Drivers/src/ch32v20x_usart.c **** 
 680:Drivers/src/ch32v20x_usart.c **** 
 681:Drivers/src/ch32v20x_usart.c ****     if((USARTx->STATR & USART_FLAG) != (uint16_t)RESET)
 1670              		.loc 1 681 15
 1671 0014 8327C4FD 		lw	a5,-36(s0)
 1672 0018 9E23     		lhu	a5,0(a5)
 1673 001a C207     		slli	a5,a5,16
 1674 001c C183     		srli	a5,a5,16
 1675              		.loc 1 681 37
 1676 001e 0357A4FD 		lhu	a4,-38(s0)
 1677 0022 F98F     		and	a5,a5,a4
 1678 0024 C207     		slli	a5,a5,16
 1679 0026 C183     		srli	a5,a5,16
 1680              		.loc 1 681 7
 1681 0028 89C7     		beq	a5,zero,.L75
 682:Drivers/src/ch32v20x_usart.c ****     {
 683:Drivers/src/ch32v20x_usart.c ****         bitstatus = SET;
 1682              		.loc 1 683 19
 1683 002a 8547     		li	a5,1
 1684 002c 2326F4FE 		sw	a5,-20(s0)
 1685 0030 19A0     		j	.L76
 1686              	.L75:
 684:Drivers/src/ch32v20x_usart.c ****     }
 685:Drivers/src/ch32v20x_usart.c ****     else
 686:Drivers/src/ch32v20x_usart.c ****     {
 687:Drivers/src/ch32v20x_usart.c ****         bitstatus = RESET;
 1687              		.loc 1 687 19
 1688 0032 232604FE 		sw	zero,-20(s0)
 1689              	.L76:
 688:Drivers/src/ch32v20x_usart.c ****     }
 689:Drivers/src/ch32v20x_usart.c ****     return bitstatus;
 1690              		.loc 1 689 12
 1691 0036 8327C4FE 		lw	a5,-20(s0)
 690:Drivers/src/ch32v20x_usart.c **** }
 1692              		.loc 1 690 1
 1693 003a 3E85     		mv	a0,a5
 1694 003c 3254     		lw	s0,44(sp)
 1695              		.cfi_restore 8
 1696              		.cfi_def_cfa 2, 48
 1697 003e 4561     		addi	sp,sp,48
 1698              		.cfi_def_cfa_offset 0
 1699 0040 8280     		jr	ra
 1700              		.cfi_endproc
 1701              	.LFE41:
 1703              		.section	.text.USART_ClearFlag,"ax",@progbits
 1704              		.align	1
 1705              		.globl	USART_ClearFlag
 1707              	USART_ClearFlag:
 1708              	.LFB42:
 691:Drivers/src/ch32v20x_usart.c **** 
 692:Drivers/src/ch32v20x_usart.c **** /*********************************************************************
 693:Drivers/src/ch32v20x_usart.c ****  * @fn      USART_ClearFlag
GAS LISTING C:\Users\SOLDER~1\AppData\Local\Temp\ccheWc1y.s 			page 43


 694:Drivers/src/ch32v20x_usart.c ****  *
 695:Drivers/src/ch32v20x_usart.c ****  * @brief   Clears the USARTx's pending flags.
 696:Drivers/src/ch32v20x_usart.c ****  *
 697:Drivers/src/ch32v20x_usart.c ****  * @param   USARTx - where x can be 1, 2, 3 to select the USART peripheral.
 698:Drivers/src/ch32v20x_usart.c ****  *          USART_FLAG - specifies the flag to clear.
 699:Drivers/src/ch32v20x_usart.c ****  *            USART_FLAG_LBD - LIN Break detection flag.
 700:Drivers/src/ch32v20x_usart.c ****  *            USART_FLAG_TC - Transmission Complete flag.
 701:Drivers/src/ch32v20x_usart.c ****  *            USART_FLAG_RXNE - Receive data register not empty flag.
 702:Drivers/src/ch32v20x_usart.c ****  *          Note-
 703:Drivers/src/ch32v20x_usart.c ****  *            - PE (Parity error), FE (Framing error), NE (Noise error), ORE (OverRun 
 704:Drivers/src/ch32v20x_usart.c ****  *            error) and IDLE (Idle line detected) flags are cleared by software 
 705:Drivers/src/ch32v20x_usart.c ****  *            sequence: a read operation to USART_STATR register (USART_GetFlagStatus()) 
 706:Drivers/src/ch32v20x_usart.c ****  *            followed by a read operation to USART_DATAR register (USART_ReceiveData()).
 707:Drivers/src/ch32v20x_usart.c ****  *            - RXNE flag can be also cleared by a read to the USART_DATAR register 
 708:Drivers/src/ch32v20x_usart.c ****  *            (USART_ReceiveData()).
 709:Drivers/src/ch32v20x_usart.c ****  *            - TC flag can be also cleared by software sequence: a read operation to 
 710:Drivers/src/ch32v20x_usart.c ****  *            USART_STATR register (USART_GetFlagStatus()) followed by a write operation
 711:Drivers/src/ch32v20x_usart.c ****  *            to USART_DATAR register (USART_SendData()).
 712:Drivers/src/ch32v20x_usart.c ****  *            - TXE flag is cleared only by a write to the USART_DATAR register 
 713:Drivers/src/ch32v20x_usart.c ****  *            (USART_SendData()).
 714:Drivers/src/ch32v20x_usart.c ****  * @return  none
 715:Drivers/src/ch32v20x_usart.c ****  */
 716:Drivers/src/ch32v20x_usart.c **** void USART_ClearFlag(USART_TypeDef *USARTx, uint16_t USART_FLAG)
 717:Drivers/src/ch32v20x_usart.c **** {
 1709              		.loc 1 717 1
 1710              		.cfi_startproc
 1711 0000 0111     		addi	sp,sp,-32
 1712              		.cfi_def_cfa_offset 32
 1713 0002 22CE     		sw	s0,28(sp)
 1714              		.cfi_offset 8, -4
 1715 0004 0010     		addi	s0,sp,32
 1716              		.cfi_def_cfa 8, 0
 1717 0006 2326A4FE 		sw	a0,-20(s0)
 1718 000a AE87     		mv	a5,a1
 1719 000c 2315F4FE 		sh	a5,-22(s0)
 718:Drivers/src/ch32v20x_usart.c **** 
 719:Drivers/src/ch32v20x_usart.c ****     USARTx->STATR = (uint16_t)~USART_FLAG;
 1720              		.loc 1 719 21
 1721 0010 8357A4FE 		lhu	a5,-22(s0)
 1722 0014 93C7F7FF 		not	a5,a5
 1723 0018 13970701 		slli	a4,a5,16
 1724 001c 4183     		srli	a4,a4,16
 1725              		.loc 1 719 19
 1726 001e 8327C4FE 		lw	a5,-20(s0)
 1727 0022 9AA3     		sh	a4,0(a5)
 720:Drivers/src/ch32v20x_usart.c **** }
 1728              		.loc 1 720 1
 1729 0024 0100     		nop
 1730 0026 7244     		lw	s0,28(sp)
 1731              		.cfi_restore 8
 1732              		.cfi_def_cfa 2, 32
 1733 0028 0561     		addi	sp,sp,32
 1734              		.cfi_def_cfa_offset 0
 1735 002a 8280     		jr	ra
 1736              		.cfi_endproc
 1737              	.LFE42:
 1739              		.section	.text.USART_GetITStatus,"ax",@progbits
GAS LISTING C:\Users\SOLDER~1\AppData\Local\Temp\ccheWc1y.s 			page 44


 1740              		.align	1
 1741              		.globl	USART_GetITStatus
 1743              	USART_GetITStatus:
 1744              	.LFB43:
 721:Drivers/src/ch32v20x_usart.c **** 
 722:Drivers/src/ch32v20x_usart.c **** /*********************************************************************
 723:Drivers/src/ch32v20x_usart.c ****  * @fn      USART_GetITStatus
 724:Drivers/src/ch32v20x_usart.c ****  *
 725:Drivers/src/ch32v20x_usart.c ****  * @brief   Checks whether the specified USART interrupt has occurred or not.
 726:Drivers/src/ch32v20x_usart.c ****  *
 727:Drivers/src/ch32v20x_usart.c ****  * @param   USARTx - where x can be 1, 2, 3 to select the USART peripheral.
 728:Drivers/src/ch32v20x_usart.c ****  *          USART_IT - specifies the USART interrupt source to check.
 729:Drivers/src/ch32v20x_usart.c ****  *            USART_IT_LBD - LIN Break detection interrupt.
 730:Drivers/src/ch32v20x_usart.c ****  *            USART_IT_TXE - Tansmit Data Register empty interrupt.
 731:Drivers/src/ch32v20x_usart.c ****  *            USART_IT_TC - Transmission complete interrupt.
 732:Drivers/src/ch32v20x_usart.c ****  *            USART_IT_RXNE - Receive Data register not empty interrupt.
 733:Drivers/src/ch32v20x_usart.c ****  *            USART_IT_IDLE - Idle line detection interrupt.
 734:Drivers/src/ch32v20x_usart.c ****  *            USART_IT_ORE_RX - OverRun Error interrupt if the RXNEIE bit is set.
 735:Drivers/src/ch32v20x_usart.c ****  *            USART_IT_ORE_ER - OverRun Error interrupt if the EIE bit is set.
 736:Drivers/src/ch32v20x_usart.c ****  *            USART_IT_NE - Noise Error interrupt.
 737:Drivers/src/ch32v20x_usart.c ****  *            USART_IT_FE - Framing Error interrupt.
 738:Drivers/src/ch32v20x_usart.c ****  *            USART_IT_PE - Parity Error interrupt.
 739:Drivers/src/ch32v20x_usart.c ****  *
 740:Drivers/src/ch32v20x_usart.c ****  * @return  bitstatus: SET or RESET.
 741:Drivers/src/ch32v20x_usart.c ****  */
 742:Drivers/src/ch32v20x_usart.c **** ITStatus USART_GetITStatus(USART_TypeDef *USARTx, uint16_t USART_IT)
 743:Drivers/src/ch32v20x_usart.c **** {
 1745              		.loc 1 743 1
 1746              		.cfi_startproc
 1747 0000 7971     		addi	sp,sp,-48
 1748              		.cfi_def_cfa_offset 48
 1749 0002 22D6     		sw	s0,44(sp)
 1750              		.cfi_offset 8, -4
 1751 0004 0018     		addi	s0,sp,48
 1752              		.cfi_def_cfa 8, 0
 1753 0006 232EA4FC 		sw	a0,-36(s0)
 1754 000a AE87     		mv	a5,a1
 1755 000c 231DF4FC 		sh	a5,-38(s0)
 744:Drivers/src/ch32v20x_usart.c ****     uint32_t bitpos = 0x00, itmask = 0x00, usartreg = 0x00;
 1756              		.loc 1 744 14
 1757 0010 232204FE 		sw	zero,-28(s0)
 1758              		.loc 1 744 29
 1759 0014 232604FE 		sw	zero,-20(s0)
 1760              		.loc 1 744 44
 1761 0018 232004FE 		sw	zero,-32(s0)
 745:Drivers/src/ch32v20x_usart.c ****     ITStatus bitstatus = RESET;
 1762              		.loc 1 745 14
 1763 001c 232404FE 		sw	zero,-24(s0)
 746:Drivers/src/ch32v20x_usart.c **** 
 747:Drivers/src/ch32v20x_usart.c ****     usartreg = (((uint8_t)USART_IT) >> 0x05);
 1764              		.loc 1 747 18
 1765 0020 8357A4FD 		lhu	a5,-38(s0)
 1766 0024 93F7F70F 		andi	a5,a5,0xff
 1767              		.loc 1 747 37
 1768 0028 9583     		srli	a5,a5,5
 1769 002a 93F7F70F 		andi	a5,a5,0xff
 1770              		.loc 1 747 14
GAS LISTING C:\Users\SOLDER~1\AppData\Local\Temp\ccheWc1y.s 			page 45


 1771 002e 2320F4FE 		sw	a5,-32(s0)
 748:Drivers/src/ch32v20x_usart.c ****     itmask = USART_IT & IT_Mask;
 1772              		.loc 1 748 23
 1773 0032 8357A4FD 		lhu	a5,-38(s0)
 1774              		.loc 1 748 12
 1775 0036 FD8B     		andi	a5,a5,31
 1776 0038 2326F4FE 		sw	a5,-20(s0)
 749:Drivers/src/ch32v20x_usart.c ****     itmask = (uint32_t)0x01 << itmask;
 1777              		.loc 1 749 12
 1778 003c 8327C4FE 		lw	a5,-20(s0)
 1779 0040 0547     		li	a4,1
 1780 0042 B317F700 		sll	a5,a4,a5
 1781 0046 2326F4FE 		sw	a5,-20(s0)
 750:Drivers/src/ch32v20x_usart.c **** 
 751:Drivers/src/ch32v20x_usart.c ****     if(usartreg == 0x01)
 1782              		.loc 1 751 7
 1783 004a 032704FE 		lw	a4,-32(s0)
 1784 004e 8547     		li	a5,1
 1785 0050 631EF700 		bne	a4,a5,.L80
 752:Drivers/src/ch32v20x_usart.c ****     {
 753:Drivers/src/ch32v20x_usart.c ****         itmask &= USARTx->CTLR1;
 1786              		.loc 1 753 25
 1787 0054 8327C4FD 		lw	a5,-36(s0)
 1788 0058 DE27     		lhu	a5,12(a5)
 1789 005a C207     		slli	a5,a5,16
 1790 005c C183     		srli	a5,a5,16
 1791 005e 3E87     		mv	a4,a5
 1792              		.loc 1 753 16
 1793 0060 8327C4FE 		lw	a5,-20(s0)
 1794 0064 F98F     		and	a5,a5,a4
 1795 0066 2326F4FE 		sw	a5,-20(s0)
 1796 006a 2DA8     		j	.L81
 1797              	.L80:
 754:Drivers/src/ch32v20x_usart.c ****     }
 755:Drivers/src/ch32v20x_usart.c ****     else if(usartreg == 0x02)
 1798              		.loc 1 755 12
 1799 006c 032704FE 		lw	a4,-32(s0)
 1800 0070 8947     		li	a5,2
 1801 0072 631EF700 		bne	a4,a5,.L82
 756:Drivers/src/ch32v20x_usart.c ****     {
 757:Drivers/src/ch32v20x_usart.c ****         itmask &= USARTx->CTLR2;
 1802              		.loc 1 757 25
 1803 0076 8327C4FD 		lw	a5,-36(s0)
 1804 007a 9E2B     		lhu	a5,16(a5)
 1805 007c C207     		slli	a5,a5,16
 1806 007e C183     		srli	a5,a5,16
 1807 0080 3E87     		mv	a4,a5
 1808              		.loc 1 757 16
 1809 0082 8327C4FE 		lw	a5,-20(s0)
 1810 0086 F98F     		and	a5,a5,a4
 1811 0088 2326F4FE 		sw	a5,-20(s0)
 1812 008c 21A8     		j	.L81
 1813              	.L82:
 758:Drivers/src/ch32v20x_usart.c ****     }
 759:Drivers/src/ch32v20x_usart.c ****     else
 760:Drivers/src/ch32v20x_usart.c ****     {
 761:Drivers/src/ch32v20x_usart.c ****         itmask &= USARTx->CTLR3;
GAS LISTING C:\Users\SOLDER~1\AppData\Local\Temp\ccheWc1y.s 			page 46


 1814              		.loc 1 761 25
 1815 008e 8327C4FD 		lw	a5,-36(s0)
 1816 0092 DE2B     		lhu	a5,20(a5)
 1817 0094 C207     		slli	a5,a5,16
 1818 0096 C183     		srli	a5,a5,16
 1819 0098 3E87     		mv	a4,a5
 1820              		.loc 1 761 16
 1821 009a 8327C4FE 		lw	a5,-20(s0)
 1822 009e F98F     		and	a5,a5,a4
 1823 00a0 2326F4FE 		sw	a5,-20(s0)
 1824              	.L81:
 762:Drivers/src/ch32v20x_usart.c ****     }
 763:Drivers/src/ch32v20x_usart.c **** 
 764:Drivers/src/ch32v20x_usart.c ****     bitpos = USART_IT >> 0x08;
 1825              		.loc 1 764 23
 1826 00a4 8357A4FD 		lhu	a5,-38(s0)
 1827 00a8 A183     		srli	a5,a5,8
 1828 00aa C207     		slli	a5,a5,16
 1829 00ac C183     		srli	a5,a5,16
 1830              		.loc 1 764 12
 1831 00ae 2322F4FE 		sw	a5,-28(s0)
 765:Drivers/src/ch32v20x_usart.c ****     bitpos = (uint32_t)0x01 << bitpos;
 1832              		.loc 1 765 12
 1833 00b2 832744FE 		lw	a5,-28(s0)
 1834 00b6 0547     		li	a4,1
 1835 00b8 B317F700 		sll	a5,a4,a5
 1836 00bc 2322F4FE 		sw	a5,-28(s0)
 766:Drivers/src/ch32v20x_usart.c ****     bitpos &= USARTx->STATR;
 1837              		.loc 1 766 21
 1838 00c0 8327C4FD 		lw	a5,-36(s0)
 1839 00c4 9E23     		lhu	a5,0(a5)
 1840 00c6 C207     		slli	a5,a5,16
 1841 00c8 C183     		srli	a5,a5,16
 1842 00ca 3E87     		mv	a4,a5
 1843              		.loc 1 766 12
 1844 00cc 832744FE 		lw	a5,-28(s0)
 1845 00d0 F98F     		and	a5,a5,a4
 1846 00d2 2322F4FE 		sw	a5,-28(s0)
 767:Drivers/src/ch32v20x_usart.c **** 
 768:Drivers/src/ch32v20x_usart.c ****     if((itmask != (uint16_t)RESET) && (bitpos != (uint16_t)RESET))
 1847              		.loc 1 768 7
 1848 00d6 8327C4FE 		lw	a5,-20(s0)
 1849 00da 81CB     		beq	a5,zero,.L83
 1850              		.loc 1 768 36 discriminator 1
 1851 00dc 832744FE 		lw	a5,-28(s0)
 1852 00e0 89C7     		beq	a5,zero,.L83
 769:Drivers/src/ch32v20x_usart.c ****     {
 770:Drivers/src/ch32v20x_usart.c ****         bitstatus = SET;
 1853              		.loc 1 770 19
 1854 00e2 8547     		li	a5,1
 1855 00e4 2324F4FE 		sw	a5,-24(s0)
 1856 00e8 19A0     		j	.L84
 1857              	.L83:
 771:Drivers/src/ch32v20x_usart.c ****     }
 772:Drivers/src/ch32v20x_usart.c ****     else
 773:Drivers/src/ch32v20x_usart.c ****     {
 774:Drivers/src/ch32v20x_usart.c ****         bitstatus = RESET;
GAS LISTING C:\Users\SOLDER~1\AppData\Local\Temp\ccheWc1y.s 			page 47


 1858              		.loc 1 774 19
 1859 00ea 232404FE 		sw	zero,-24(s0)
 1860              	.L84:
 775:Drivers/src/ch32v20x_usart.c ****     }
 776:Drivers/src/ch32v20x_usart.c **** 
 777:Drivers/src/ch32v20x_usart.c ****     return bitstatus;
 1861              		.loc 1 777 12
 1862 00ee 832784FE 		lw	a5,-24(s0)
 778:Drivers/src/ch32v20x_usart.c **** }
 1863              		.loc 1 778 1
 1864 00f2 3E85     		mv	a0,a5
 1865 00f4 3254     		lw	s0,44(sp)
 1866              		.cfi_restore 8
 1867              		.cfi_def_cfa 2, 48
 1868 00f6 4561     		addi	sp,sp,48
 1869              		.cfi_def_cfa_offset 0
 1870 00f8 8280     		jr	ra
 1871              		.cfi_endproc
 1872              	.LFE43:
 1874              		.section	.text.USART_ClearITPendingBit,"ax",@progbits
 1875              		.align	1
 1876              		.globl	USART_ClearITPendingBit
 1878              	USART_ClearITPendingBit:
 1879              	.LFB44:
 779:Drivers/src/ch32v20x_usart.c **** 
 780:Drivers/src/ch32v20x_usart.c **** /*********************************************************************
 781:Drivers/src/ch32v20x_usart.c ****  * @fn      USART_ClearITPendingBit
 782:Drivers/src/ch32v20x_usart.c ****  *
 783:Drivers/src/ch32v20x_usart.c ****  * @brief   Clears the USARTx's interrupt pending bits.
 784:Drivers/src/ch32v20x_usart.c ****  *
 785:Drivers/src/ch32v20x_usart.c ****  * @param   USARTx - where x can be 1, 2, 3 to select the USART peripheral.
 786:Drivers/src/ch32v20x_usart.c ****  *          USART_IT - specifies the interrupt pending bit to clear.
 787:Drivers/src/ch32v20x_usart.c ****  *            USART_IT_LBD - LIN Break detection interrupt.
 788:Drivers/src/ch32v20x_usart.c ****  *            USART_IT_TC - Transmission complete interrupt.
 789:Drivers/src/ch32v20x_usart.c ****  *            USART_IT_RXNE - Receive Data register not empty interrupt.
 790:Drivers/src/ch32v20x_usart.c ****  *         Note-
 791:Drivers/src/ch32v20x_usart.c ****  *            - PE (Parity error), FE (Framing error), NE (Noise error), ORE (OverRun 
 792:Drivers/src/ch32v20x_usart.c ****  *            error) and IDLE (Idle line detected) pending bits are cleared by 
 793:Drivers/src/ch32v20x_usart.c ****  *            software sequence: a read operation to USART_STATR register 
 794:Drivers/src/ch32v20x_usart.c ****  *            (USART_GetITStatus()) followed by a read operation to USART_DATAR register 
 795:Drivers/src/ch32v20x_usart.c ****  *            (USART_ReceiveData()).
 796:Drivers/src/ch32v20x_usart.c ****  *            - RXNE pending bit can be also cleared by a read to the USART_DATAR register 
 797:Drivers/src/ch32v20x_usart.c ****  *            (USART_ReceiveData()).
 798:Drivers/src/ch32v20x_usart.c ****  *            - TC pending bit can be also cleared by software sequence: a read 
 799:Drivers/src/ch32v20x_usart.c ****  *            operation to USART_STATR register (USART_GetITStatus()) followed by a write 
 800:Drivers/src/ch32v20x_usart.c ****  *            operation to USART_DATAR register (USART_SendData()).
 801:Drivers/src/ch32v20x_usart.c ****  *            - TXE pending bit is cleared only by a write to the USART_DATAR register 
 802:Drivers/src/ch32v20x_usart.c ****  *            (USART_SendData()).
 803:Drivers/src/ch32v20x_usart.c ****  * @return  none
 804:Drivers/src/ch32v20x_usart.c ****  */
 805:Drivers/src/ch32v20x_usart.c **** void USART_ClearITPendingBit(USART_TypeDef *USARTx, uint16_t USART_IT)
 806:Drivers/src/ch32v20x_usart.c **** {
 1880              		.loc 1 806 1
 1881              		.cfi_startproc
 1882 0000 7971     		addi	sp,sp,-48
 1883              		.cfi_def_cfa_offset 48
 1884 0002 22D6     		sw	s0,44(sp)
GAS LISTING C:\Users\SOLDER~1\AppData\Local\Temp\ccheWc1y.s 			page 48


 1885              		.cfi_offset 8, -4
 1886 0004 0018     		addi	s0,sp,48
 1887              		.cfi_def_cfa 8, 0
 1888 0006 232EA4FC 		sw	a0,-36(s0)
 1889 000a AE87     		mv	a5,a1
 1890 000c 231DF4FC 		sh	a5,-38(s0)
 807:Drivers/src/ch32v20x_usart.c ****     uint16_t bitpos = 0x00, itmask = 0x00;
 1891              		.loc 1 807 14
 1892 0010 231704FE 		sh	zero,-18(s0)
 1893              		.loc 1 807 29
 1894 0014 231604FE 		sh	zero,-20(s0)
 808:Drivers/src/ch32v20x_usart.c **** 
 809:Drivers/src/ch32v20x_usart.c ****     bitpos = USART_IT >> 0x08;
 1895              		.loc 1 809 12
 1896 0018 8357A4FD 		lhu	a5,-38(s0)
 1897 001c A183     		srli	a5,a5,8
 1898 001e 2317F4FE 		sh	a5,-18(s0)
 810:Drivers/src/ch32v20x_usart.c ****     itmask = ((uint16_t)0x01 << (uint16_t)bitpos);
 1899              		.loc 1 810 33
 1900 0022 8357E4FE 		lhu	a5,-18(s0)
 1901              		.loc 1 810 30
 1902 0026 0547     		li	a4,1
 1903 0028 B317F700 		sll	a5,a4,a5
 1904              		.loc 1 810 12
 1905 002c 2316F4FE 		sh	a5,-20(s0)
 811:Drivers/src/ch32v20x_usart.c ****     USARTx->STATR = (uint16_t)~itmask;
 1906              		.loc 1 811 21
 1907 0030 8357C4FE 		lhu	a5,-20(s0)
 1908 0034 93C7F7FF 		not	a5,a5
 1909 0038 13970701 		slli	a4,a5,16
 1910 003c 4183     		srli	a4,a4,16
 1911              		.loc 1 811 19
 1912 003e 8327C4FD 		lw	a5,-36(s0)
 1913 0042 9AA3     		sh	a4,0(a5)
 812:Drivers/src/ch32v20x_usart.c **** }
 1914              		.loc 1 812 1
 1915 0044 0100     		nop
 1916 0046 3254     		lw	s0,44(sp)
 1917              		.cfi_restore 8
 1918              		.cfi_def_cfa 2, 48
 1919 0048 4561     		addi	sp,sp,48
 1920              		.cfi_def_cfa_offset 0
 1921 004a 8280     		jr	ra
 1922              		.cfi_endproc
 1923              	.LFE44:
 1925              		.text
 1926              	.Letext0:
 1927              		.file 2 "c:\\dev_tools\\ch32_tools\\risc-v_embedded_gcc12\\riscv-none-elf\\include\\machine\\_defa
 1928              		.file 3 "c:\\dev_tools\\ch32_tools\\risc-v_embedded_gcc12\\riscv-none-elf\\include\\sys\\_stdint.h
 1929              		.file 4 "Drivers/inc/core_riscv.h"
 1930              		.file 5 "Drivers/inc/ch32v20x.h"
 1931              		.file 6 "Drivers/inc/ch32v20x_rcc.h"
 1932              		.file 7 "Drivers/inc/ch32v20x_usart.h"
GAS LISTING C:\Users\SOLDER~1\AppData\Local\Temp\ccheWc1y.s 			page 49


DEFINED SYMBOLS
                            *ABS*:0000000000000000 ch32v20x_usart.c
C:\Users\SOLDER~1\AppData\Local\Temp\ccheWc1y.s:14     .text.USART_DeInit:0000000000000000 USART_DeInit
C:\Users\SOLDER~1\AppData\Local\Temp\ccheWc1y.s:18     .text.USART_DeInit:0000000000000000 .L0 
C:\Users\SOLDER~1\AppData\Local\Temp\ccheWc1y.s:19     .text.USART_DeInit:0000000000000000 $x
C:\Users\SOLDER~1\AppData\Local\Temp\ccheWc1y.s:19     .text.USART_DeInit:0000000000000000 .L0 
C:\Users\SOLDER~1\AppData\Local\Temp\ccheWc1y.s:20     .text.USART_DeInit:0000000000000002 .L0 
C:\Users\SOLDER~1\AppData\Local\Temp\ccheWc1y.s:23     .text.USART_DeInit:0000000000000006 .L0 
C:\Users\SOLDER~1\AppData\Local\Temp\ccheWc1y.s:24     .text.USART_DeInit:0000000000000006 .L0 
C:\Users\SOLDER~1\AppData\Local\Temp\ccheWc1y.s:26     .text.USART_DeInit:0000000000000008 .L0 
C:\Users\SOLDER~1\AppData\Local\Temp\ccheWc1y.s:29     .text.USART_DeInit:000000000000000c .L0 
C:\Users\SOLDER~1\AppData\Local\Temp\ccheWc1y.s:34     .text.USART_DeInit:000000000000001c .L0 
C:\Users\SOLDER~1\AppData\Local\Temp\ccheWc1y.s:38     .text.USART_DeInit:0000000000000028 .L0 
C:\Users\SOLDER~1\AppData\Local\Temp\ccheWc1y.s:42     .text.USART_DeInit:0000000000000034 .L0 
C:\Users\SOLDER~1\AppData\Local\Temp\ccheWc1y.s:45     .text.USART_DeInit:0000000000000036 .L0 
C:\Users\SOLDER~1\AppData\Local\Temp\ccheWc1y.s:50     .text.USART_DeInit:0000000000000046 .L0 
C:\Users\SOLDER~1\AppData\Local\Temp\ccheWc1y.s:54     .text.USART_DeInit:0000000000000054 .L0 
C:\Users\SOLDER~1\AppData\Local\Temp\ccheWc1y.s:58     .text.USART_DeInit:0000000000000062 .L0 
C:\Users\SOLDER~1\AppData\Local\Temp\ccheWc1y.s:61     .text.USART_DeInit:0000000000000064 .L0 
C:\Users\SOLDER~1\AppData\Local\Temp\ccheWc1y.s:66     .text.USART_DeInit:0000000000000074 .L0 
C:\Users\SOLDER~1\AppData\Local\Temp\ccheWc1y.s:70     .text.USART_DeInit:0000000000000082 .L0 
C:\Users\SOLDER~1\AppData\Local\Temp\ccheWc1y.s:74     .text.USART_DeInit:0000000000000090 .L0 
C:\Users\SOLDER~1\AppData\Local\Temp\ccheWc1y.s:77     .text.USART_DeInit:0000000000000092 .L0 
C:\Users\SOLDER~1\AppData\Local\Temp\ccheWc1y.s:82     .text.USART_DeInit:00000000000000a2 .L0 
C:\Users\SOLDER~1\AppData\Local\Temp\ccheWc1y.s:86     .text.USART_DeInit:00000000000000b0 .L0 
C:\Users\SOLDER~1\AppData\Local\Temp\ccheWc1y.s:91     .text.USART_DeInit:00000000000000be .L0 
C:\Users\SOLDER~1\AppData\Local\Temp\ccheWc1y.s:93     .text.USART_DeInit:00000000000000c2 .L0 
C:\Users\SOLDER~1\AppData\Local\Temp\ccheWc1y.s:95     .text.USART_DeInit:00000000000000c4 .L0 
C:\Users\SOLDER~1\AppData\Local\Temp\ccheWc1y.s:96     .text.USART_DeInit:00000000000000c4 .L0 
C:\Users\SOLDER~1\AppData\Local\Temp\ccheWc1y.s:98     .text.USART_DeInit:00000000000000c6 .L0 
C:\Users\SOLDER~1\AppData\Local\Temp\ccheWc1y.s:100    .text.USART_DeInit:00000000000000c8 .L0 
C:\Users\SOLDER~1\AppData\Local\Temp\ccheWc1y.s:107    .text.USART_Init:0000000000000000 USART_Init
C:\Users\SOLDER~1\AppData\Local\Temp\ccheWc1y.s:110    .text.USART_Init:0000000000000000 .L0 
C:\Users\SOLDER~1\AppData\Local\Temp\ccheWc1y.s:111    .text.USART_Init:0000000000000000 $x
C:\Users\SOLDER~1\AppData\Local\Temp\ccheWc1y.s:111    .text.USART_Init:0000000000000000 .L0 
C:\Users\SOLDER~1\AppData\Local\Temp\ccheWc1y.s:112    .text.USART_Init:0000000000000002 .L0 
C:\Users\SOLDER~1\AppData\Local\Temp\ccheWc1y.s:115    .text.USART_Init:0000000000000006 .L0 
C:\Users\SOLDER~1\AppData\Local\Temp\ccheWc1y.s:116    .text.USART_Init:0000000000000006 .L0 
C:\Users\SOLDER~1\AppData\Local\Temp\ccheWc1y.s:118    .text.USART_Init:0000000000000008 .L0 
C:\Users\SOLDER~1\AppData\Local\Temp\ccheWc1y.s:122    .text.USART_Init:0000000000000010 .L0 
C:\Users\SOLDER~1\AppData\Local\Temp\ccheWc1y.s:124    .text.USART_Init:0000000000000014 .L0 
C:\Users\SOLDER~1\AppData\Local\Temp\ccheWc1y.s:126    .text.USART_Init:0000000000000018 .L0 
C:\Users\SOLDER~1\AppData\Local\Temp\ccheWc1y.s:128    .text.USART_Init:000000000000001c .L0 
C:\Users\SOLDER~1\AppData\Local\Temp\ccheWc1y.s:130    .text.USART_Init:0000000000000020 .L0 
C:\Users\SOLDER~1\AppData\Local\Temp\ccheWc1y.s:132    .text.USART_Init:0000000000000024 .L0 
C:\Users\SOLDER~1\AppData\Local\Temp\ccheWc1y.s:135    .text.USART_Init:000000000000002c .L0 
C:\Users\SOLDER~1\AppData\Local\Temp\ccheWc1y.s:140    .text.USART_Init:0000000000000036 .L0 
C:\Users\SOLDER~1\AppData\Local\Temp\ccheWc1y.s:142    .text.USART_Init:000000000000003a .L0 
C:\Users\SOLDER~1\AppData\Local\Temp\ccheWc1y.s:148    .text.USART_Init:0000000000000048 .L0 
C:\Users\SOLDER~1\AppData\Local\Temp\ccheWc1y.s:151    .text.USART_Init:000000000000004e .L0 
C:\Users\SOLDER~1\AppData\Local\Temp\ccheWc1y.s:153    .text.USART_Init:0000000000000050 .L0 
C:\Users\SOLDER~1\AppData\Local\Temp\ccheWc1y.s:157    .text.USART_Init:000000000000005a .L0 
C:\Users\SOLDER~1\AppData\Local\Temp\ccheWc1y.s:161    .text.USART_Init:0000000000000064 .L0 
C:\Users\SOLDER~1\AppData\Local\Temp\ccheWc1y.s:164    .text.USART_Init:000000000000006a .L0 
C:\Users\SOLDER~1\AppData\Local\Temp\ccheWc1y.s:169    .text.USART_Init:0000000000000074 .L0 
C:\Users\SOLDER~1\AppData\Local\Temp\ccheWc1y.s:171    .text.USART_Init:0000000000000078 .L0 
C:\Users\SOLDER~1\AppData\Local\Temp\ccheWc1y.s:177    .text.USART_Init:0000000000000088 .L0 
GAS LISTING C:\Users\SOLDER~1\AppData\Local\Temp\ccheWc1y.s 			page 50


C:\Users\SOLDER~1\AppData\Local\Temp\ccheWc1y.s:180    .text.USART_Init:000000000000008e .L0 
C:\Users\SOLDER~1\AppData\Local\Temp\ccheWc1y.s:183    .text.USART_Init:0000000000000094 .L0 
C:\Users\SOLDER~1\AppData\Local\Temp\ccheWc1y.s:187    .text.USART_Init:000000000000009c .L0 
C:\Users\SOLDER~1\AppData\Local\Temp\ccheWc1y.s:190    .text.USART_Init:00000000000000a2 .L0 
C:\Users\SOLDER~1\AppData\Local\Temp\ccheWc1y.s:195    .text.USART_Init:00000000000000aa .L0 
C:\Users\SOLDER~1\AppData\Local\Temp\ccheWc1y.s:199    .text.USART_Init:00000000000000b4 .L0 
C:\Users\SOLDER~1\AppData\Local\Temp\ccheWc1y.s:203    .text.USART_Init:00000000000000be .L0 
C:\Users\SOLDER~1\AppData\Local\Temp\ccheWc1y.s:206    .text.USART_Init:00000000000000c4 .L0 
C:\Users\SOLDER~1\AppData\Local\Temp\ccheWc1y.s:211    .text.USART_Init:00000000000000ce .L0 
C:\Users\SOLDER~1\AppData\Local\Temp\ccheWc1y.s:213    .text.USART_Init:00000000000000d2 .L0 
C:\Users\SOLDER~1\AppData\Local\Temp\ccheWc1y.s:219    .text.USART_Init:00000000000000e2 .L0 
C:\Users\SOLDER~1\AppData\Local\Temp\ccheWc1y.s:223    .text.USART_Init:00000000000000ea .L0 
C:\Users\SOLDER~1\AppData\Local\Temp\ccheWc1y.s:227    .text.USART_Init:00000000000000f4 .L0 
C:\Users\SOLDER~1\AppData\Local\Temp\ccheWc1y.s:231    .text.USART_Init:00000000000000fe .L0 
C:\Users\SOLDER~1\AppData\Local\Temp\ccheWc1y.s:234    .text.USART_Init:0000000000000104 .L0 
C:\Users\SOLDER~1\AppData\Local\Temp\ccheWc1y.s:238    .text.USART_Init:0000000000000112 .L0 
C:\Users\SOLDER~1\AppData\Local\Temp\ccheWc1y.s:243    .text.USART_Init:0000000000000122 .L0 
C:\Users\SOLDER~1\AppData\Local\Temp\ccheWc1y.s:248    .text.USART_Init:000000000000012c .L0 
C:\Users\SOLDER~1\AppData\Local\Temp\ccheWc1y.s:252    .text.USART_Init:0000000000000134 .L0 
C:\Users\SOLDER~1\AppData\Local\Temp\ccheWc1y.s:257    .text.USART_Init:000000000000013e .L0 
C:\Users\SOLDER~1\AppData\Local\Temp\ccheWc1y.s:260    .text.USART_Init:0000000000000142 .L0 
C:\Users\SOLDER~1\AppData\Local\Temp\ccheWc1y.s:262    .text.USART_Init:0000000000000146 .L0 
C:\Users\SOLDER~1\AppData\Local\Temp\ccheWc1y.s:269    .text.USART_Init:0000000000000154 .L0 
C:\Users\SOLDER~1\AppData\Local\Temp\ccheWc1y.s:272    .text.USART_Init:000000000000015a .L0 
C:\Users\SOLDER~1\AppData\Local\Temp\ccheWc1y.s:274    .text.USART_Init:000000000000015c .L0 
C:\Users\SOLDER~1\AppData\Local\Temp\ccheWc1y.s:279    .text.USART_Init:0000000000000166 .L0 
C:\Users\SOLDER~1\AppData\Local\Temp\ccheWc1y.s:286    .text.USART_Init:0000000000000174 .L0 
C:\Users\SOLDER~1\AppData\Local\Temp\ccheWc1y.s:289    .text.USART_Init:000000000000017a .L0 
C:\Users\SOLDER~1\AppData\Local\Temp\ccheWc1y.s:291    .text.USART_Init:000000000000017c .L0 
C:\Users\SOLDER~1\AppData\Local\Temp\ccheWc1y.s:295    .text.USART_Init:0000000000000184 .L0 
C:\Users\SOLDER~1\AppData\Local\Temp\ccheWc1y.s:299    .text.USART_Init:0000000000000190 .L0 
C:\Users\SOLDER~1\AppData\Local\Temp\ccheWc1y.s:302    .text.USART_Init:0000000000000196 .L0 
C:\Users\SOLDER~1\AppData\Local\Temp\ccheWc1y.s:305    .text.USART_Init:000000000000019e .L0 
C:\Users\SOLDER~1\AppData\Local\Temp\ccheWc1y.s:308    .text.USART_Init:00000000000001a6 .L0 
C:\Users\SOLDER~1\AppData\Local\Temp\ccheWc1y.s:312    .text.USART_Init:00000000000001b2 .L0 
C:\Users\SOLDER~1\AppData\Local\Temp\ccheWc1y.s:317    .text.USART_Init:00000000000001bc .L0 
C:\Users\SOLDER~1\AppData\Local\Temp\ccheWc1y.s:320    .text.USART_Init:00000000000001c0 .L0 
C:\Users\SOLDER~1\AppData\Local\Temp\ccheWc1y.s:322    .text.USART_Init:00000000000001c4 .L0 
C:\Users\SOLDER~1\AppData\Local\Temp\ccheWc1y.s:325    .text.USART_Init:00000000000001ca .L0 
C:\Users\SOLDER~1\AppData\Local\Temp\ccheWc1y.s:327    .text.USART_Init:00000000000001ce .L0 
C:\Users\SOLDER~1\AppData\Local\Temp\ccheWc1y.s:330    .text.USART_Init:00000000000001d6 .L0 
C:\Users\SOLDER~1\AppData\Local\Temp\ccheWc1y.s:332    .text.USART_Init:00000000000001d8 .L0 
C:\Users\SOLDER~1\AppData\Local\Temp\ccheWc1y.s:338    .text.USART_Init:00000000000001e4 .L0 
C:\Users\SOLDER~1\AppData\Local\Temp\ccheWc1y.s:341    .text.USART_Init:00000000000001ea .L0 
C:\Users\SOLDER~1\AppData\Local\Temp\ccheWc1y.s:343    .text.USART_Init:00000000000001ee .L0 
C:\Users\SOLDER~1\AppData\Local\Temp\ccheWc1y.s:346    .text.USART_Init:00000000000001f6 .L0 
C:\Users\SOLDER~1\AppData\Local\Temp\ccheWc1y.s:348    .text.USART_Init:00000000000001f8 .L0 
C:\Users\SOLDER~1\AppData\Local\Temp\ccheWc1y.s:353    .text.USART_Init:0000000000000202 .L0 
C:\Users\SOLDER~1\AppData\Local\Temp\ccheWc1y.s:357    .text.USART_Init:000000000000020c .L0 
C:\Users\SOLDER~1\AppData\Local\Temp\ccheWc1y.s:360    .text.USART_Init:0000000000000212 .L0 
C:\Users\SOLDER~1\AppData\Local\Temp\ccheWc1y.s:362    .text.USART_Init:0000000000000216 .L0 
C:\Users\SOLDER~1\AppData\Local\Temp\ccheWc1y.s:364    .text.USART_Init:0000000000000218 .L0 
C:\Users\SOLDER~1\AppData\Local\Temp\ccheWc1y.s:365    .text.USART_Init:0000000000000218 .L0 
C:\Users\SOLDER~1\AppData\Local\Temp\ccheWc1y.s:367    .text.USART_Init:000000000000021a .L0 
C:\Users\SOLDER~1\AppData\Local\Temp\ccheWc1y.s:369    .text.USART_Init:000000000000021c .L0 
C:\Users\SOLDER~1\AppData\Local\Temp\ccheWc1y.s:376    .text.USART_StructInit:0000000000000000 USART_StructInit
C:\Users\SOLDER~1\AppData\Local\Temp\ccheWc1y.s:379    .text.USART_StructInit:0000000000000000 .L0 
GAS LISTING C:\Users\SOLDER~1\AppData\Local\Temp\ccheWc1y.s 			page 51


C:\Users\SOLDER~1\AppData\Local\Temp\ccheWc1y.s:380    .text.USART_StructInit:0000000000000000 $x
C:\Users\SOLDER~1\AppData\Local\Temp\ccheWc1y.s:380    .text.USART_StructInit:0000000000000000 .L0 
C:\Users\SOLDER~1\AppData\Local\Temp\ccheWc1y.s:381    .text.USART_StructInit:0000000000000002 .L0 
C:\Users\SOLDER~1\AppData\Local\Temp\ccheWc1y.s:383    .text.USART_StructInit:0000000000000004 .L0 
C:\Users\SOLDER~1\AppData\Local\Temp\ccheWc1y.s:385    .text.USART_StructInit:0000000000000006 .L0 
C:\Users\SOLDER~1\AppData\Local\Temp\ccheWc1y.s:388    .text.USART_StructInit:000000000000000a .L0 
C:\Users\SOLDER~1\AppData\Local\Temp\ccheWc1y.s:393    .text.USART_StructInit:0000000000000016 .L0 
C:\Users\SOLDER~1\AppData\Local\Temp\ccheWc1y.s:396    .text.USART_StructInit:000000000000001e .L0 
C:\Users\SOLDER~1\AppData\Local\Temp\ccheWc1y.s:399    .text.USART_StructInit:0000000000000026 .L0 
C:\Users\SOLDER~1\AppData\Local\Temp\ccheWc1y.s:402    .text.USART_StructInit:000000000000002e .L0 
C:\Users\SOLDER~1\AppData\Local\Temp\ccheWc1y.s:406    .text.USART_StructInit:0000000000000036 .L0 
C:\Users\SOLDER~1\AppData\Local\Temp\ccheWc1y.s:409    .text.USART_StructInit:000000000000003e .L0 
C:\Users\SOLDER~1\AppData\Local\Temp\ccheWc1y.s:411    .text.USART_StructInit:0000000000000042 .L0 
C:\Users\SOLDER~1\AppData\Local\Temp\ccheWc1y.s:412    .text.USART_StructInit:0000000000000042 .L0 
C:\Users\SOLDER~1\AppData\Local\Temp\ccheWc1y.s:414    .text.USART_StructInit:0000000000000044 .L0 
C:\Users\SOLDER~1\AppData\Local\Temp\ccheWc1y.s:416    .text.USART_StructInit:0000000000000046 .L0 
C:\Users\SOLDER~1\AppData\Local\Temp\ccheWc1y.s:423    .text.USART_ClockInit:0000000000000000 USART_ClockInit
C:\Users\SOLDER~1\AppData\Local\Temp\ccheWc1y.s:426    .text.USART_ClockInit:0000000000000000 .L0 
C:\Users\SOLDER~1\AppData\Local\Temp\ccheWc1y.s:427    .text.USART_ClockInit:0000000000000000 $x
C:\Users\SOLDER~1\AppData\Local\Temp\ccheWc1y.s:427    .text.USART_ClockInit:0000000000000000 .L0 
C:\Users\SOLDER~1\AppData\Local\Temp\ccheWc1y.s:428    .text.USART_ClockInit:0000000000000002 .L0 
C:\Users\SOLDER~1\AppData\Local\Temp\ccheWc1y.s:430    .text.USART_ClockInit:0000000000000004 .L0 
C:\Users\SOLDER~1\AppData\Local\Temp\ccheWc1y.s:432    .text.USART_ClockInit:0000000000000006 .L0 
C:\Users\SOLDER~1\AppData\Local\Temp\ccheWc1y.s:436    .text.USART_ClockInit:000000000000000e .L0 
C:\Users\SOLDER~1\AppData\Local\Temp\ccheWc1y.s:438    .text.USART_ClockInit:0000000000000012 .L0 
C:\Users\SOLDER~1\AppData\Local\Temp\ccheWc1y.s:443    .text.USART_ClockInit:000000000000001c .L0 
C:\Users\SOLDER~1\AppData\Local\Temp\ccheWc1y.s:445    .text.USART_ClockInit:0000000000000020 .L0 
C:\Users\SOLDER~1\AppData\Local\Temp\ccheWc1y.s:451    .text.USART_ClockInit:0000000000000030 .L0 
C:\Users\SOLDER~1\AppData\Local\Temp\ccheWc1y.s:454    .text.USART_ClockInit:0000000000000036 .L0 
C:\Users\SOLDER~1\AppData\Local\Temp\ccheWc1y.s:457    .text.USART_ClockInit:000000000000003c .L0 
C:\Users\SOLDER~1\AppData\Local\Temp\ccheWc1y.s:461    .text.USART_ClockInit:0000000000000044 .L0 
C:\Users\SOLDER~1\AppData\Local\Temp\ccheWc1y.s:464    .text.USART_ClockInit:000000000000004a .L0 
C:\Users\SOLDER~1\AppData\Local\Temp\ccheWc1y.s:468    .text.USART_ClockInit:0000000000000052 .L0 
C:\Users\SOLDER~1\AppData\Local\Temp\ccheWc1y.s:471    .text.USART_ClockInit:0000000000000058 .L0 
C:\Users\SOLDER~1\AppData\Local\Temp\ccheWc1y.s:476    .text.USART_ClockInit:0000000000000060 .L0 
C:\Users\SOLDER~1\AppData\Local\Temp\ccheWc1y.s:480    .text.USART_ClockInit:000000000000006a .L0 
C:\Users\SOLDER~1\AppData\Local\Temp\ccheWc1y.s:484    .text.USART_ClockInit:0000000000000074 .L0 
C:\Users\SOLDER~1\AppData\Local\Temp\ccheWc1y.s:487    .text.USART_ClockInit:000000000000007a .L0 
C:\Users\SOLDER~1\AppData\Local\Temp\ccheWc1y.s:489    .text.USART_ClockInit:000000000000007e .L0 
C:\Users\SOLDER~1\AppData\Local\Temp\ccheWc1y.s:490    .text.USART_ClockInit:000000000000007e .L0 
C:\Users\SOLDER~1\AppData\Local\Temp\ccheWc1y.s:492    .text.USART_ClockInit:0000000000000080 .L0 
C:\Users\SOLDER~1\AppData\Local\Temp\ccheWc1y.s:494    .text.USART_ClockInit:0000000000000082 .L0 
C:\Users\SOLDER~1\AppData\Local\Temp\ccheWc1y.s:501    .text.USART_ClockStructInit:0000000000000000 USART_ClockStructInit
C:\Users\SOLDER~1\AppData\Local\Temp\ccheWc1y.s:504    .text.USART_ClockStructInit:0000000000000000 .L0 
C:\Users\SOLDER~1\AppData\Local\Temp\ccheWc1y.s:505    .text.USART_ClockStructInit:0000000000000000 $x
C:\Users\SOLDER~1\AppData\Local\Temp\ccheWc1y.s:505    .text.USART_ClockStructInit:0000000000000000 .L0 
C:\Users\SOLDER~1\AppData\Local\Temp\ccheWc1y.s:506    .text.USART_ClockStructInit:0000000000000002 .L0 
C:\Users\SOLDER~1\AppData\Local\Temp\ccheWc1y.s:508    .text.USART_ClockStructInit:0000000000000004 .L0 
C:\Users\SOLDER~1\AppData\Local\Temp\ccheWc1y.s:510    .text.USART_ClockStructInit:0000000000000006 .L0 
C:\Users\SOLDER~1\AppData\Local\Temp\ccheWc1y.s:513    .text.USART_ClockStructInit:000000000000000a .L0 
C:\Users\SOLDER~1\AppData\Local\Temp\ccheWc1y.s:516    .text.USART_ClockStructInit:0000000000000012 .L0 
C:\Users\SOLDER~1\AppData\Local\Temp\ccheWc1y.s:519    .text.USART_ClockStructInit:000000000000001a .L0 
C:\Users\SOLDER~1\AppData\Local\Temp\ccheWc1y.s:522    .text.USART_ClockStructInit:0000000000000022 .L0 
C:\Users\SOLDER~1\AppData\Local\Temp\ccheWc1y.s:525    .text.USART_ClockStructInit:000000000000002a .L0 
C:\Users\SOLDER~1\AppData\Local\Temp\ccheWc1y.s:527    .text.USART_ClockStructInit:000000000000002e .L0 
C:\Users\SOLDER~1\AppData\Local\Temp\ccheWc1y.s:528    .text.USART_ClockStructInit:000000000000002e .L0 
C:\Users\SOLDER~1\AppData\Local\Temp\ccheWc1y.s:530    .text.USART_ClockStructInit:0000000000000030 .L0 
GAS LISTING C:\Users\SOLDER~1\AppData\Local\Temp\ccheWc1y.s 			page 52


C:\Users\SOLDER~1\AppData\Local\Temp\ccheWc1y.s:532    .text.USART_ClockStructInit:0000000000000032 .L0 
C:\Users\SOLDER~1\AppData\Local\Temp\ccheWc1y.s:539    .text.USART_Cmd:0000000000000000 USART_Cmd
C:\Users\SOLDER~1\AppData\Local\Temp\ccheWc1y.s:542    .text.USART_Cmd:0000000000000000 .L0 
C:\Users\SOLDER~1\AppData\Local\Temp\ccheWc1y.s:543    .text.USART_Cmd:0000000000000000 $x
C:\Users\SOLDER~1\AppData\Local\Temp\ccheWc1y.s:543    .text.USART_Cmd:0000000000000000 .L0 
C:\Users\SOLDER~1\AppData\Local\Temp\ccheWc1y.s:544    .text.USART_Cmd:0000000000000002 .L0 
C:\Users\SOLDER~1\AppData\Local\Temp\ccheWc1y.s:546    .text.USART_Cmd:0000000000000004 .L0 
C:\Users\SOLDER~1\AppData\Local\Temp\ccheWc1y.s:548    .text.USART_Cmd:0000000000000006 .L0 
C:\Users\SOLDER~1\AppData\Local\Temp\ccheWc1y.s:552    .text.USART_Cmd:000000000000000e .L0 
C:\Users\SOLDER~1\AppData\Local\Temp\ccheWc1y.s:555    .text.USART_Cmd:0000000000000014 .L0 
C:\Users\SOLDER~1\AppData\Local\Temp\ccheWc1y.s:560    .text.USART_Cmd:0000000000000020 .L0 
C:\Users\SOLDER~1\AppData\Local\Temp\ccheWc1y.s:567    .text.USART_Cmd:0000000000000030 .L0 
C:\Users\SOLDER~1\AppData\Local\Temp\ccheWc1y.s:570    .text.USART_Cmd:0000000000000032 .L0 
C:\Users\SOLDER~1\AppData\Local\Temp\ccheWc1y.s:575    .text.USART_Cmd:000000000000003e .L0 
C:\Users\SOLDER~1\AppData\Local\Temp\ccheWc1y.s:584    .text.USART_Cmd:0000000000000050 .L0 
C:\Users\SOLDER~1\AppData\Local\Temp\ccheWc1y.s:586    .text.USART_Cmd:0000000000000054 .L0 
C:\Users\SOLDER~1\AppData\Local\Temp\ccheWc1y.s:587    .text.USART_Cmd:0000000000000054 .L0 
C:\Users\SOLDER~1\AppData\Local\Temp\ccheWc1y.s:589    .text.USART_Cmd:0000000000000056 .L0 
C:\Users\SOLDER~1\AppData\Local\Temp\ccheWc1y.s:591    .text.USART_Cmd:0000000000000058 .L0 
C:\Users\SOLDER~1\AppData\Local\Temp\ccheWc1y.s:598    .text.USART_ITConfig:0000000000000000 USART_ITConfig
C:\Users\SOLDER~1\AppData\Local\Temp\ccheWc1y.s:601    .text.USART_ITConfig:0000000000000000 .L0 
C:\Users\SOLDER~1\AppData\Local\Temp\ccheWc1y.s:602    .text.USART_ITConfig:0000000000000000 $x
C:\Users\SOLDER~1\AppData\Local\Temp\ccheWc1y.s:602    .text.USART_ITConfig:0000000000000000 .L0 
C:\Users\SOLDER~1\AppData\Local\Temp\ccheWc1y.s:603    .text.USART_ITConfig:0000000000000002 .L0 
C:\Users\SOLDER~1\AppData\Local\Temp\ccheWc1y.s:605    .text.USART_ITConfig:0000000000000004 .L0 
C:\Users\SOLDER~1\AppData\Local\Temp\ccheWc1y.s:607    .text.USART_ITConfig:0000000000000006 .L0 
C:\Users\SOLDER~1\AppData\Local\Temp\ccheWc1y.s:613    .text.USART_ITConfig:0000000000000014 .L0 
C:\Users\SOLDER~1\AppData\Local\Temp\ccheWc1y.s:615    .text.USART_ITConfig:0000000000000018 .L0 
C:\Users\SOLDER~1\AppData\Local\Temp\ccheWc1y.s:617    .text.USART_ITConfig:000000000000001c .L0 
C:\Users\SOLDER~1\AppData\Local\Temp\ccheWc1y.s:619    .text.USART_ITConfig:0000000000000020 .L0 
C:\Users\SOLDER~1\AppData\Local\Temp\ccheWc1y.s:621    .text.USART_ITConfig:0000000000000024 .L0 
C:\Users\SOLDER~1\AppData\Local\Temp\ccheWc1y.s:624    .text.USART_ITConfig:000000000000002c .L0 
C:\Users\SOLDER~1\AppData\Local\Temp\ccheWc1y.s:627    .text.USART_ITConfig:0000000000000034 .L0 
C:\Users\SOLDER~1\AppData\Local\Temp\ccheWc1y.s:630    .text.USART_ITConfig:000000000000003a .L0 
C:\Users\SOLDER~1\AppData\Local\Temp\ccheWc1y.s:632    .text.USART_ITConfig:000000000000003e .L0 
C:\Users\SOLDER~1\AppData\Local\Temp\ccheWc1y.s:634    .text.USART_ITConfig:0000000000000042 .L0 
C:\Users\SOLDER~1\AppData\Local\Temp\ccheWc1y.s:637    .text.USART_ITConfig:0000000000000048 .L0 
C:\Users\SOLDER~1\AppData\Local\Temp\ccheWc1y.s:642    .text.USART_ITConfig:0000000000000056 .L0 
C:\Users\SOLDER~1\AppData\Local\Temp\ccheWc1y.s:646    .text.USART_ITConfig:0000000000000060 .L0 
C:\Users\SOLDER~1\AppData\Local\Temp\ccheWc1y.s:652    .text.USART_ITConfig:000000000000006c .L0 
C:\Users\SOLDER~1\AppData\Local\Temp\ccheWc1y.s:656    .text.USART_ITConfig:0000000000000076 .L0 
C:\Users\SOLDER~1\AppData\Local\Temp\ccheWc1y.s:662    .text.USART_ITConfig:0000000000000082 .L0 
C:\Users\SOLDER~1\AppData\Local\Temp\ccheWc1y.s:667    .text.USART_ITConfig:000000000000008c .L0 
C:\Users\SOLDER~1\AppData\Local\Temp\ccheWc1y.s:670    .text.USART_ITConfig:0000000000000092 .L0 
C:\Users\SOLDER~1\AppData\Local\Temp\ccheWc1y.s:674    .text.USART_ITConfig:000000000000009c .L0 
C:\Users\SOLDER~1\AppData\Local\Temp\ccheWc1y.s:678    .text.USART_ITConfig:00000000000000a4 .L0 
C:\Users\SOLDER~1\AppData\Local\Temp\ccheWc1y.s:681    .text.USART_ITConfig:00000000000000a6 .L0 
C:\Users\SOLDER~1\AppData\Local\Temp\ccheWc1y.s:684    .text.USART_ITConfig:00000000000000ac .L0 
C:\Users\SOLDER~1\AppData\Local\Temp\ccheWc1y.s:687    .text.USART_ITConfig:00000000000000b4 .L0 
C:\Users\SOLDER~1\AppData\Local\Temp\ccheWc1y.s:689    .text.USART_ITConfig:00000000000000b8 .L0 
C:\Users\SOLDER~1\AppData\Local\Temp\ccheWc1y.s:693    .text.USART_ITConfig:00000000000000bc .L0 
C:\Users\SOLDER~1\AppData\Local\Temp\ccheWc1y.s:695    .text.USART_ITConfig:00000000000000c0 .L0 
C:\Users\SOLDER~1\AppData\Local\Temp\ccheWc1y.s:696    .text.USART_ITConfig:00000000000000c0 .L0 
C:\Users\SOLDER~1\AppData\Local\Temp\ccheWc1y.s:698    .text.USART_ITConfig:00000000000000c2 .L0 
C:\Users\SOLDER~1\AppData\Local\Temp\ccheWc1y.s:700    .text.USART_ITConfig:00000000000000c4 .L0 
C:\Users\SOLDER~1\AppData\Local\Temp\ccheWc1y.s:707    .text.USART_DMACmd:0000000000000000 USART_DMACmd
C:\Users\SOLDER~1\AppData\Local\Temp\ccheWc1y.s:710    .text.USART_DMACmd:0000000000000000 .L0 
GAS LISTING C:\Users\SOLDER~1\AppData\Local\Temp\ccheWc1y.s 			page 53


C:\Users\SOLDER~1\AppData\Local\Temp\ccheWc1y.s:711    .text.USART_DMACmd:0000000000000000 $x
C:\Users\SOLDER~1\AppData\Local\Temp\ccheWc1y.s:711    .text.USART_DMACmd:0000000000000000 .L0 
C:\Users\SOLDER~1\AppData\Local\Temp\ccheWc1y.s:712    .text.USART_DMACmd:0000000000000002 .L0 
C:\Users\SOLDER~1\AppData\Local\Temp\ccheWc1y.s:714    .text.USART_DMACmd:0000000000000004 .L0 
C:\Users\SOLDER~1\AppData\Local\Temp\ccheWc1y.s:716    .text.USART_DMACmd:0000000000000006 .L0 
C:\Users\SOLDER~1\AppData\Local\Temp\ccheWc1y.s:722    .text.USART_DMACmd:0000000000000014 .L0 
C:\Users\SOLDER~1\AppData\Local\Temp\ccheWc1y.s:725    .text.USART_DMACmd:000000000000001a .L0 
C:\Users\SOLDER~1\AppData\Local\Temp\ccheWc1y.s:730    .text.USART_DMACmd:0000000000000024 .L0 
C:\Users\SOLDER~1\AppData\Local\Temp\ccheWc1y.s:737    .text.USART_DMACmd:0000000000000036 .L0 
C:\Users\SOLDER~1\AppData\Local\Temp\ccheWc1y.s:740    .text.USART_DMACmd:0000000000000038 .L0 
C:\Users\SOLDER~1\AppData\Local\Temp\ccheWc1y.s:745    .text.USART_DMACmd:0000000000000044 .L0 
C:\Users\SOLDER~1\AppData\Local\Temp\ccheWc1y.s:750    .text.USART_DMACmd:0000000000000050 .L0 
C:\Users\SOLDER~1\AppData\Local\Temp\ccheWc1y.s:757    .text.USART_DMACmd:000000000000005e .L0 
C:\Users\SOLDER~1\AppData\Local\Temp\ccheWc1y.s:759    .text.USART_DMACmd:0000000000000062 .L0 
C:\Users\SOLDER~1\AppData\Local\Temp\ccheWc1y.s:760    .text.USART_DMACmd:0000000000000062 .L0 
C:\Users\SOLDER~1\AppData\Local\Temp\ccheWc1y.s:762    .text.USART_DMACmd:0000000000000064 .L0 
C:\Users\SOLDER~1\AppData\Local\Temp\ccheWc1y.s:764    .text.USART_DMACmd:0000000000000066 .L0 
C:\Users\SOLDER~1\AppData\Local\Temp\ccheWc1y.s:771    .text.USART_SetAddress:0000000000000000 USART_SetAddress
C:\Users\SOLDER~1\AppData\Local\Temp\ccheWc1y.s:774    .text.USART_SetAddress:0000000000000000 .L0 
C:\Users\SOLDER~1\AppData\Local\Temp\ccheWc1y.s:775    .text.USART_SetAddress:0000000000000000 $x
C:\Users\SOLDER~1\AppData\Local\Temp\ccheWc1y.s:775    .text.USART_SetAddress:0000000000000000 .L0 
C:\Users\SOLDER~1\AppData\Local\Temp\ccheWc1y.s:776    .text.USART_SetAddress:0000000000000002 .L0 
C:\Users\SOLDER~1\AppData\Local\Temp\ccheWc1y.s:778    .text.USART_SetAddress:0000000000000004 .L0 
C:\Users\SOLDER~1\AppData\Local\Temp\ccheWc1y.s:780    .text.USART_SetAddress:0000000000000006 .L0 
C:\Users\SOLDER~1\AppData\Local\Temp\ccheWc1y.s:785    .text.USART_SetAddress:0000000000000010 .L0 
C:\Users\SOLDER~1\AppData\Local\Temp\ccheWc1y.s:790    .text.USART_SetAddress:000000000000001a .L0 
C:\Users\SOLDER~1\AppData\Local\Temp\ccheWc1y.s:796    .text.USART_SetAddress:0000000000000028 .L0 
C:\Users\SOLDER~1\AppData\Local\Temp\ccheWc1y.s:801    .text.USART_SetAddress:0000000000000034 .L0 
C:\Users\SOLDER~1\AppData\Local\Temp\ccheWc1y.s:810    .text.USART_SetAddress:000000000000004a .L0 
C:\Users\SOLDER~1\AppData\Local\Temp\ccheWc1y.s:812    .text.USART_SetAddress:000000000000004e .L0 
C:\Users\SOLDER~1\AppData\Local\Temp\ccheWc1y.s:813    .text.USART_SetAddress:000000000000004e .L0 
C:\Users\SOLDER~1\AppData\Local\Temp\ccheWc1y.s:815    .text.USART_SetAddress:0000000000000050 .L0 
C:\Users\SOLDER~1\AppData\Local\Temp\ccheWc1y.s:817    .text.USART_SetAddress:0000000000000052 .L0 
C:\Users\SOLDER~1\AppData\Local\Temp\ccheWc1y.s:824    .text.USART_WakeUpConfig:0000000000000000 USART_WakeUpConfig
C:\Users\SOLDER~1\AppData\Local\Temp\ccheWc1y.s:827    .text.USART_WakeUpConfig:0000000000000000 .L0 
C:\Users\SOLDER~1\AppData\Local\Temp\ccheWc1y.s:828    .text.USART_WakeUpConfig:0000000000000000 $x
C:\Users\SOLDER~1\AppData\Local\Temp\ccheWc1y.s:828    .text.USART_WakeUpConfig:0000000000000000 .L0 
C:\Users\SOLDER~1\AppData\Local\Temp\ccheWc1y.s:829    .text.USART_WakeUpConfig:0000000000000002 .L0 
C:\Users\SOLDER~1\AppData\Local\Temp\ccheWc1y.s:831    .text.USART_WakeUpConfig:0000000000000004 .L0 
C:\Users\SOLDER~1\AppData\Local\Temp\ccheWc1y.s:833    .text.USART_WakeUpConfig:0000000000000006 .L0 
C:\Users\SOLDER~1\AppData\Local\Temp\ccheWc1y.s:838    .text.USART_WakeUpConfig:0000000000000010 .L0 
C:\Users\SOLDER~1\AppData\Local\Temp\ccheWc1y.s:843    .text.USART_WakeUpConfig:000000000000001c .L0 
C:\Users\SOLDER~1\AppData\Local\Temp\ccheWc1y.s:851    .text.USART_WakeUpConfig:0000000000000030 .L0 
C:\Users\SOLDER~1\AppData\Local\Temp\ccheWc1y.s:856    .text.USART_WakeUpConfig:000000000000003a .L0 
C:\Users\SOLDER~1\AppData\Local\Temp\ccheWc1y.s:863    .text.USART_WakeUpConfig:000000000000004c .L0 
C:\Users\SOLDER~1\AppData\Local\Temp\ccheWc1y.s:865    .text.USART_WakeUpConfig:0000000000000050 .L0 
C:\Users\SOLDER~1\AppData\Local\Temp\ccheWc1y.s:866    .text.USART_WakeUpConfig:0000000000000050 .L0 
C:\Users\SOLDER~1\AppData\Local\Temp\ccheWc1y.s:868    .text.USART_WakeUpConfig:0000000000000052 .L0 
C:\Users\SOLDER~1\AppData\Local\Temp\ccheWc1y.s:870    .text.USART_WakeUpConfig:0000000000000054 .L0 
C:\Users\SOLDER~1\AppData\Local\Temp\ccheWc1y.s:877    .text.USART_ReceiverWakeUpCmd:0000000000000000 USART_ReceiverWakeUpCmd
C:\Users\SOLDER~1\AppData\Local\Temp\ccheWc1y.s:880    .text.USART_ReceiverWakeUpCmd:0000000000000000 .L0 
C:\Users\SOLDER~1\AppData\Local\Temp\ccheWc1y.s:881    .text.USART_ReceiverWakeUpCmd:0000000000000000 $x
C:\Users\SOLDER~1\AppData\Local\Temp\ccheWc1y.s:881    .text.USART_ReceiverWakeUpCmd:0000000000000000 .L0 
C:\Users\SOLDER~1\AppData\Local\Temp\ccheWc1y.s:882    .text.USART_ReceiverWakeUpCmd:0000000000000002 .L0 
C:\Users\SOLDER~1\AppData\Local\Temp\ccheWc1y.s:884    .text.USART_ReceiverWakeUpCmd:0000000000000004 .L0 
C:\Users\SOLDER~1\AppData\Local\Temp\ccheWc1y.s:886    .text.USART_ReceiverWakeUpCmd:0000000000000006 .L0 
C:\Users\SOLDER~1\AppData\Local\Temp\ccheWc1y.s:890    .text.USART_ReceiverWakeUpCmd:000000000000000e .L0 
GAS LISTING C:\Users\SOLDER~1\AppData\Local\Temp\ccheWc1y.s 			page 54


C:\Users\SOLDER~1\AppData\Local\Temp\ccheWc1y.s:893    .text.USART_ReceiverWakeUpCmd:0000000000000014 .L0 
C:\Users\SOLDER~1\AppData\Local\Temp\ccheWc1y.s:898    .text.USART_ReceiverWakeUpCmd:000000000000001e .L0 
C:\Users\SOLDER~1\AppData\Local\Temp\ccheWc1y.s:904    .text.USART_ReceiverWakeUpCmd:000000000000002e .L0 
C:\Users\SOLDER~1\AppData\Local\Temp\ccheWc1y.s:907    .text.USART_ReceiverWakeUpCmd:0000000000000030 .L0 
C:\Users\SOLDER~1\AppData\Local\Temp\ccheWc1y.s:912    .text.USART_ReceiverWakeUpCmd:000000000000003a .L0 
C:\Users\SOLDER~1\AppData\Local\Temp\ccheWc1y.s:919    .text.USART_ReceiverWakeUpCmd:0000000000000048 .L0 
C:\Users\SOLDER~1\AppData\Local\Temp\ccheWc1y.s:921    .text.USART_ReceiverWakeUpCmd:000000000000004c .L0 
C:\Users\SOLDER~1\AppData\Local\Temp\ccheWc1y.s:922    .text.USART_ReceiverWakeUpCmd:000000000000004c .L0 
C:\Users\SOLDER~1\AppData\Local\Temp\ccheWc1y.s:924    .text.USART_ReceiverWakeUpCmd:000000000000004e .L0 
C:\Users\SOLDER~1\AppData\Local\Temp\ccheWc1y.s:926    .text.USART_ReceiverWakeUpCmd:0000000000000050 .L0 
C:\Users\SOLDER~1\AppData\Local\Temp\ccheWc1y.s:933    .text.USART_LINBreakDetectLengthConfig:0000000000000000 USART_LINBreakDetectLengthConfig
C:\Users\SOLDER~1\AppData\Local\Temp\ccheWc1y.s:936    .text.USART_LINBreakDetectLengthConfig:0000000000000000 .L0 
C:\Users\SOLDER~1\AppData\Local\Temp\ccheWc1y.s:937    .text.USART_LINBreakDetectLengthConfig:0000000000000000 $x
C:\Users\SOLDER~1\AppData\Local\Temp\ccheWc1y.s:937    .text.USART_LINBreakDetectLengthConfig:0000000000000000 .L0 
C:\Users\SOLDER~1\AppData\Local\Temp\ccheWc1y.s:938    .text.USART_LINBreakDetectLengthConfig:0000000000000002 .L0 
C:\Users\SOLDER~1\AppData\Local\Temp\ccheWc1y.s:940    .text.USART_LINBreakDetectLengthConfig:0000000000000004 .L0 
C:\Users\SOLDER~1\AppData\Local\Temp\ccheWc1y.s:942    .text.USART_LINBreakDetectLengthConfig:0000000000000006 .L0 
C:\Users\SOLDER~1\AppData\Local\Temp\ccheWc1y.s:947    .text.USART_LINBreakDetectLengthConfig:0000000000000010 .L0 
C:\Users\SOLDER~1\AppData\Local\Temp\ccheWc1y.s:952    .text.USART_LINBreakDetectLengthConfig:000000000000001a .L0 
C:\Users\SOLDER~1\AppData\Local\Temp\ccheWc1y.s:958    .text.USART_LINBreakDetectLengthConfig:000000000000002a .L0 
C:\Users\SOLDER~1\AppData\Local\Temp\ccheWc1y.s:963    .text.USART_LINBreakDetectLengthConfig:0000000000000034 .L0 
C:\Users\SOLDER~1\AppData\Local\Temp\ccheWc1y.s:970    .text.USART_LINBreakDetectLengthConfig:0000000000000046 .L0 
C:\Users\SOLDER~1\AppData\Local\Temp\ccheWc1y.s:972    .text.USART_LINBreakDetectLengthConfig:000000000000004a .L0 
C:\Users\SOLDER~1\AppData\Local\Temp\ccheWc1y.s:973    .text.USART_LINBreakDetectLengthConfig:000000000000004a .L0 
C:\Users\SOLDER~1\AppData\Local\Temp\ccheWc1y.s:975    .text.USART_LINBreakDetectLengthConfig:000000000000004c .L0 
C:\Users\SOLDER~1\AppData\Local\Temp\ccheWc1y.s:977    .text.USART_LINBreakDetectLengthConfig:000000000000004e .L0 
C:\Users\SOLDER~1\AppData\Local\Temp\ccheWc1y.s:984    .text.USART_LINCmd:0000000000000000 USART_LINCmd
C:\Users\SOLDER~1\AppData\Local\Temp\ccheWc1y.s:987    .text.USART_LINCmd:0000000000000000 .L0 
C:\Users\SOLDER~1\AppData\Local\Temp\ccheWc1y.s:988    .text.USART_LINCmd:0000000000000000 $x
C:\Users\SOLDER~1\AppData\Local\Temp\ccheWc1y.s:988    .text.USART_LINCmd:0000000000000000 .L0 
C:\Users\SOLDER~1\AppData\Local\Temp\ccheWc1y.s:989    .text.USART_LINCmd:0000000000000002 .L0 
C:\Users\SOLDER~1\AppData\Local\Temp\ccheWc1y.s:991    .text.USART_LINCmd:0000000000000004 .L0 
C:\Users\SOLDER~1\AppData\Local\Temp\ccheWc1y.s:993    .text.USART_LINCmd:0000000000000006 .L0 
C:\Users\SOLDER~1\AppData\Local\Temp\ccheWc1y.s:997    .text.USART_LINCmd:000000000000000e .L0 
C:\Users\SOLDER~1\AppData\Local\Temp\ccheWc1y.s:1000   .text.USART_LINCmd:0000000000000014 .L0 
C:\Users\SOLDER~1\AppData\Local\Temp\ccheWc1y.s:1005   .text.USART_LINCmd:0000000000000020 .L0 
C:\Users\SOLDER~1\AppData\Local\Temp\ccheWc1y.s:1012   .text.USART_LINCmd:0000000000000030 .L0 
C:\Users\SOLDER~1\AppData\Local\Temp\ccheWc1y.s:1015   .text.USART_LINCmd:0000000000000032 .L0 
C:\Users\SOLDER~1\AppData\Local\Temp\ccheWc1y.s:1020   .text.USART_LINCmd:000000000000003e .L0 
C:\Users\SOLDER~1\AppData\Local\Temp\ccheWc1y.s:1029   .text.USART_LINCmd:0000000000000050 .L0 
C:\Users\SOLDER~1\AppData\Local\Temp\ccheWc1y.s:1031   .text.USART_LINCmd:0000000000000054 .L0 
C:\Users\SOLDER~1\AppData\Local\Temp\ccheWc1y.s:1032   .text.USART_LINCmd:0000000000000054 .L0 
C:\Users\SOLDER~1\AppData\Local\Temp\ccheWc1y.s:1034   .text.USART_LINCmd:0000000000000056 .L0 
C:\Users\SOLDER~1\AppData\Local\Temp\ccheWc1y.s:1036   .text.USART_LINCmd:0000000000000058 .L0 
C:\Users\SOLDER~1\AppData\Local\Temp\ccheWc1y.s:1043   .text.USART_SendData:0000000000000000 USART_SendData
C:\Users\SOLDER~1\AppData\Local\Temp\ccheWc1y.s:1046   .text.USART_SendData:0000000000000000 .L0 
C:\Users\SOLDER~1\AppData\Local\Temp\ccheWc1y.s:1047   .text.USART_SendData:0000000000000000 $x
C:\Users\SOLDER~1\AppData\Local\Temp\ccheWc1y.s:1047   .text.USART_SendData:0000000000000000 .L0 
C:\Users\SOLDER~1\AppData\Local\Temp\ccheWc1y.s:1048   .text.USART_SendData:0000000000000002 .L0 
C:\Users\SOLDER~1\AppData\Local\Temp\ccheWc1y.s:1050   .text.USART_SendData:0000000000000004 .L0 
C:\Users\SOLDER~1\AppData\Local\Temp\ccheWc1y.s:1052   .text.USART_SendData:0000000000000006 .L0 
C:\Users\SOLDER~1\AppData\Local\Temp\ccheWc1y.s:1057   .text.USART_SendData:0000000000000010 .L0 
C:\Users\SOLDER~1\AppData\Local\Temp\ccheWc1y.s:1062   .text.USART_SendData:000000000000001e .L0 
C:\Users\SOLDER~1\AppData\Local\Temp\ccheWc1y.s:1065   .text.USART_SendData:0000000000000024 .L0 
C:\Users\SOLDER~1\AppData\Local\Temp\ccheWc1y.s:1067   .text.USART_SendData:0000000000000028 .L0 
C:\Users\SOLDER~1\AppData\Local\Temp\ccheWc1y.s:1068   .text.USART_SendData:0000000000000028 .L0 
C:\Users\SOLDER~1\AppData\Local\Temp\ccheWc1y.s:1070   .text.USART_SendData:000000000000002a .L0 
GAS LISTING C:\Users\SOLDER~1\AppData\Local\Temp\ccheWc1y.s 			page 55


C:\Users\SOLDER~1\AppData\Local\Temp\ccheWc1y.s:1072   .text.USART_SendData:000000000000002c .L0 
C:\Users\SOLDER~1\AppData\Local\Temp\ccheWc1y.s:1079   .text.USART_ReceiveData:0000000000000000 USART_ReceiveData
C:\Users\SOLDER~1\AppData\Local\Temp\ccheWc1y.s:1082   .text.USART_ReceiveData:0000000000000000 .L0 
C:\Users\SOLDER~1\AppData\Local\Temp\ccheWc1y.s:1083   .text.USART_ReceiveData:0000000000000000 $x
C:\Users\SOLDER~1\AppData\Local\Temp\ccheWc1y.s:1083   .text.USART_ReceiveData:0000000000000000 .L0 
C:\Users\SOLDER~1\AppData\Local\Temp\ccheWc1y.s:1084   .text.USART_ReceiveData:0000000000000002 .L0 
C:\Users\SOLDER~1\AppData\Local\Temp\ccheWc1y.s:1086   .text.USART_ReceiveData:0000000000000004 .L0 
C:\Users\SOLDER~1\AppData\Local\Temp\ccheWc1y.s:1088   .text.USART_ReceiveData:0000000000000006 .L0 
C:\Users\SOLDER~1\AppData\Local\Temp\ccheWc1y.s:1091   .text.USART_ReceiveData:000000000000000a .L0 
C:\Users\SOLDER~1\AppData\Local\Temp\ccheWc1y.s:1096   .text.USART_ReceiveData:0000000000000014 .L0 
C:\Users\SOLDER~1\AppData\Local\Temp\ccheWc1y.s:1100   .text.USART_ReceiveData:000000000000001c .L0 
C:\Users\SOLDER~1\AppData\Local\Temp\ccheWc1y.s:1102   .text.USART_ReceiveData:0000000000000020 .L0 
C:\Users\SOLDER~1\AppData\Local\Temp\ccheWc1y.s:1103   .text.USART_ReceiveData:0000000000000020 .L0 
C:\Users\SOLDER~1\AppData\Local\Temp\ccheWc1y.s:1105   .text.USART_ReceiveData:0000000000000022 .L0 
C:\Users\SOLDER~1\AppData\Local\Temp\ccheWc1y.s:1107   .text.USART_ReceiveData:0000000000000024 .L0 
C:\Users\SOLDER~1\AppData\Local\Temp\ccheWc1y.s:1114   .text.USART_SendBreak:0000000000000000 USART_SendBreak
C:\Users\SOLDER~1\AppData\Local\Temp\ccheWc1y.s:1117   .text.USART_SendBreak:0000000000000000 .L0 
C:\Users\SOLDER~1\AppData\Local\Temp\ccheWc1y.s:1118   .text.USART_SendBreak:0000000000000000 $x
C:\Users\SOLDER~1\AppData\Local\Temp\ccheWc1y.s:1118   .text.USART_SendBreak:0000000000000000 .L0 
C:\Users\SOLDER~1\AppData\Local\Temp\ccheWc1y.s:1119   .text.USART_SendBreak:0000000000000002 .L0 
C:\Users\SOLDER~1\AppData\Local\Temp\ccheWc1y.s:1121   .text.USART_SendBreak:0000000000000004 .L0 
C:\Users\SOLDER~1\AppData\Local\Temp\ccheWc1y.s:1123   .text.USART_SendBreak:0000000000000006 .L0 
C:\Users\SOLDER~1\AppData\Local\Temp\ccheWc1y.s:1126   .text.USART_SendBreak:000000000000000a .L0 
C:\Users\SOLDER~1\AppData\Local\Temp\ccheWc1y.s:1131   .text.USART_SendBreak:0000000000000014 .L0 
C:\Users\SOLDER~1\AppData\Local\Temp\ccheWc1y.s:1137   .text.USART_SendBreak:0000000000000024 .L0 
C:\Users\SOLDER~1\AppData\Local\Temp\ccheWc1y.s:1139   .text.USART_SendBreak:0000000000000028 .L0 
C:\Users\SOLDER~1\AppData\Local\Temp\ccheWc1y.s:1140   .text.USART_SendBreak:0000000000000028 .L0 
C:\Users\SOLDER~1\AppData\Local\Temp\ccheWc1y.s:1142   .text.USART_SendBreak:000000000000002a .L0 
C:\Users\SOLDER~1\AppData\Local\Temp\ccheWc1y.s:1144   .text.USART_SendBreak:000000000000002c .L0 
C:\Users\SOLDER~1\AppData\Local\Temp\ccheWc1y.s:1151   .text.USART_SetGuardTime:0000000000000000 USART_SetGuardTime
C:\Users\SOLDER~1\AppData\Local\Temp\ccheWc1y.s:1154   .text.USART_SetGuardTime:0000000000000000 .L0 
C:\Users\SOLDER~1\AppData\Local\Temp\ccheWc1y.s:1155   .text.USART_SetGuardTime:0000000000000000 $x
C:\Users\SOLDER~1\AppData\Local\Temp\ccheWc1y.s:1155   .text.USART_SetGuardTime:0000000000000000 .L0 
C:\Users\SOLDER~1\AppData\Local\Temp\ccheWc1y.s:1156   .text.USART_SetGuardTime:0000000000000002 .L0 
C:\Users\SOLDER~1\AppData\Local\Temp\ccheWc1y.s:1158   .text.USART_SetGuardTime:0000000000000004 .L0 
C:\Users\SOLDER~1\AppData\Local\Temp\ccheWc1y.s:1160   .text.USART_SetGuardTime:0000000000000006 .L0 
C:\Users\SOLDER~1\AppData\Local\Temp\ccheWc1y.s:1165   .text.USART_SetGuardTime:0000000000000010 .L0 
C:\Users\SOLDER~1\AppData\Local\Temp\ccheWc1y.s:1170   .text.USART_SetGuardTime:000000000000001a .L0 
C:\Users\SOLDER~1\AppData\Local\Temp\ccheWc1y.s:1176   .text.USART_SetGuardTime:000000000000002a .L0 
C:\Users\SOLDER~1\AppData\Local\Temp\ccheWc1y.s:1181   .text.USART_SetGuardTime:0000000000000036 .L0 
C:\Users\SOLDER~1\AppData\Local\Temp\ccheWc1y.s:1188   .text.USART_SetGuardTime:0000000000000044 .L0 
C:\Users\SOLDER~1\AppData\Local\Temp\ccheWc1y.s:1194   .text.USART_SetGuardTime:0000000000000052 .L0 
C:\Users\SOLDER~1\AppData\Local\Temp\ccheWc1y.s:1196   .text.USART_SetGuardTime:0000000000000056 .L0 
C:\Users\SOLDER~1\AppData\Local\Temp\ccheWc1y.s:1197   .text.USART_SetGuardTime:0000000000000056 .L0 
C:\Users\SOLDER~1\AppData\Local\Temp\ccheWc1y.s:1199   .text.USART_SetGuardTime:0000000000000058 .L0 
C:\Users\SOLDER~1\AppData\Local\Temp\ccheWc1y.s:1201   .text.USART_SetGuardTime:000000000000005a .L0 
C:\Users\SOLDER~1\AppData\Local\Temp\ccheWc1y.s:1208   .text.USART_SetPrescaler:0000000000000000 USART_SetPrescaler
C:\Users\SOLDER~1\AppData\Local\Temp\ccheWc1y.s:1211   .text.USART_SetPrescaler:0000000000000000 .L0 
C:\Users\SOLDER~1\AppData\Local\Temp\ccheWc1y.s:1212   .text.USART_SetPrescaler:0000000000000000 $x
C:\Users\SOLDER~1\AppData\Local\Temp\ccheWc1y.s:1212   .text.USART_SetPrescaler:0000000000000000 .L0 
C:\Users\SOLDER~1\AppData\Local\Temp\ccheWc1y.s:1213   .text.USART_SetPrescaler:0000000000000002 .L0 
C:\Users\SOLDER~1\AppData\Local\Temp\ccheWc1y.s:1215   .text.USART_SetPrescaler:0000000000000004 .L0 
C:\Users\SOLDER~1\AppData\Local\Temp\ccheWc1y.s:1217   .text.USART_SetPrescaler:0000000000000006 .L0 
C:\Users\SOLDER~1\AppData\Local\Temp\ccheWc1y.s:1222   .text.USART_SetPrescaler:0000000000000010 .L0 
C:\Users\SOLDER~1\AppData\Local\Temp\ccheWc1y.s:1227   .text.USART_SetPrescaler:000000000000001a .L0 
C:\Users\SOLDER~1\AppData\Local\Temp\ccheWc1y.s:1233   .text.USART_SetPrescaler:000000000000002a .L0 
C:\Users\SOLDER~1\AppData\Local\Temp\ccheWc1y.s:1238   .text.USART_SetPrescaler:0000000000000036 .L0 
GAS LISTING C:\Users\SOLDER~1\AppData\Local\Temp\ccheWc1y.s 			page 56


C:\Users\SOLDER~1\AppData\Local\Temp\ccheWc1y.s:1247   .text.USART_SetPrescaler:000000000000004c .L0 
C:\Users\SOLDER~1\AppData\Local\Temp\ccheWc1y.s:1249   .text.USART_SetPrescaler:0000000000000050 .L0 
C:\Users\SOLDER~1\AppData\Local\Temp\ccheWc1y.s:1250   .text.USART_SetPrescaler:0000000000000050 .L0 
C:\Users\SOLDER~1\AppData\Local\Temp\ccheWc1y.s:1252   .text.USART_SetPrescaler:0000000000000052 .L0 
C:\Users\SOLDER~1\AppData\Local\Temp\ccheWc1y.s:1254   .text.USART_SetPrescaler:0000000000000054 .L0 
C:\Users\SOLDER~1\AppData\Local\Temp\ccheWc1y.s:1261   .text.USART_SmartCardCmd:0000000000000000 USART_SmartCardCmd
C:\Users\SOLDER~1\AppData\Local\Temp\ccheWc1y.s:1264   .text.USART_SmartCardCmd:0000000000000000 .L0 
C:\Users\SOLDER~1\AppData\Local\Temp\ccheWc1y.s:1265   .text.USART_SmartCardCmd:0000000000000000 $x
C:\Users\SOLDER~1\AppData\Local\Temp\ccheWc1y.s:1265   .text.USART_SmartCardCmd:0000000000000000 .L0 
C:\Users\SOLDER~1\AppData\Local\Temp\ccheWc1y.s:1266   .text.USART_SmartCardCmd:0000000000000002 .L0 
C:\Users\SOLDER~1\AppData\Local\Temp\ccheWc1y.s:1268   .text.USART_SmartCardCmd:0000000000000004 .L0 
C:\Users\SOLDER~1\AppData\Local\Temp\ccheWc1y.s:1270   .text.USART_SmartCardCmd:0000000000000006 .L0 
C:\Users\SOLDER~1\AppData\Local\Temp\ccheWc1y.s:1274   .text.USART_SmartCardCmd:000000000000000e .L0 
C:\Users\SOLDER~1\AppData\Local\Temp\ccheWc1y.s:1277   .text.USART_SmartCardCmd:0000000000000014 .L0 
C:\Users\SOLDER~1\AppData\Local\Temp\ccheWc1y.s:1282   .text.USART_SmartCardCmd:000000000000001e .L0 
C:\Users\SOLDER~1\AppData\Local\Temp\ccheWc1y.s:1288   .text.USART_SmartCardCmd:000000000000002e .L0 
C:\Users\SOLDER~1\AppData\Local\Temp\ccheWc1y.s:1291   .text.USART_SmartCardCmd:0000000000000030 .L0 
C:\Users\SOLDER~1\AppData\Local\Temp\ccheWc1y.s:1296   .text.USART_SmartCardCmd:000000000000003a .L0 
C:\Users\SOLDER~1\AppData\Local\Temp\ccheWc1y.s:1303   .text.USART_SmartCardCmd:000000000000004a .L0 
C:\Users\SOLDER~1\AppData\Local\Temp\ccheWc1y.s:1305   .text.USART_SmartCardCmd:000000000000004e .L0 
C:\Users\SOLDER~1\AppData\Local\Temp\ccheWc1y.s:1306   .text.USART_SmartCardCmd:000000000000004e .L0 
C:\Users\SOLDER~1\AppData\Local\Temp\ccheWc1y.s:1308   .text.USART_SmartCardCmd:0000000000000050 .L0 
C:\Users\SOLDER~1\AppData\Local\Temp\ccheWc1y.s:1310   .text.USART_SmartCardCmd:0000000000000052 .L0 
C:\Users\SOLDER~1\AppData\Local\Temp\ccheWc1y.s:1317   .text.USART_SmartCardNACKCmd:0000000000000000 USART_SmartCardNACKCmd
C:\Users\SOLDER~1\AppData\Local\Temp\ccheWc1y.s:1320   .text.USART_SmartCardNACKCmd:0000000000000000 .L0 
C:\Users\SOLDER~1\AppData\Local\Temp\ccheWc1y.s:1321   .text.USART_SmartCardNACKCmd:0000000000000000 $x
C:\Users\SOLDER~1\AppData\Local\Temp\ccheWc1y.s:1321   .text.USART_SmartCardNACKCmd:0000000000000000 .L0 
C:\Users\SOLDER~1\AppData\Local\Temp\ccheWc1y.s:1322   .text.USART_SmartCardNACKCmd:0000000000000002 .L0 
C:\Users\SOLDER~1\AppData\Local\Temp\ccheWc1y.s:1324   .text.USART_SmartCardNACKCmd:0000000000000004 .L0 
C:\Users\SOLDER~1\AppData\Local\Temp\ccheWc1y.s:1326   .text.USART_SmartCardNACKCmd:0000000000000006 .L0 
C:\Users\SOLDER~1\AppData\Local\Temp\ccheWc1y.s:1330   .text.USART_SmartCardNACKCmd:000000000000000e .L0 
C:\Users\SOLDER~1\AppData\Local\Temp\ccheWc1y.s:1333   .text.USART_SmartCardNACKCmd:0000000000000014 .L0 
C:\Users\SOLDER~1\AppData\Local\Temp\ccheWc1y.s:1338   .text.USART_SmartCardNACKCmd:000000000000001e .L0 
C:\Users\SOLDER~1\AppData\Local\Temp\ccheWc1y.s:1344   .text.USART_SmartCardNACKCmd:000000000000002e .L0 
C:\Users\SOLDER~1\AppData\Local\Temp\ccheWc1y.s:1347   .text.USART_SmartCardNACKCmd:0000000000000030 .L0 
C:\Users\SOLDER~1\AppData\Local\Temp\ccheWc1y.s:1352   .text.USART_SmartCardNACKCmd:000000000000003a .L0 
C:\Users\SOLDER~1\AppData\Local\Temp\ccheWc1y.s:1359   .text.USART_SmartCardNACKCmd:0000000000000048 .L0 
C:\Users\SOLDER~1\AppData\Local\Temp\ccheWc1y.s:1361   .text.USART_SmartCardNACKCmd:000000000000004c .L0 
C:\Users\SOLDER~1\AppData\Local\Temp\ccheWc1y.s:1362   .text.USART_SmartCardNACKCmd:000000000000004c .L0 
C:\Users\SOLDER~1\AppData\Local\Temp\ccheWc1y.s:1364   .text.USART_SmartCardNACKCmd:000000000000004e .L0 
C:\Users\SOLDER~1\AppData\Local\Temp\ccheWc1y.s:1366   .text.USART_SmartCardNACKCmd:0000000000000050 .L0 
C:\Users\SOLDER~1\AppData\Local\Temp\ccheWc1y.s:1373   .text.USART_HalfDuplexCmd:0000000000000000 USART_HalfDuplexCmd
C:\Users\SOLDER~1\AppData\Local\Temp\ccheWc1y.s:1376   .text.USART_HalfDuplexCmd:0000000000000000 .L0 
C:\Users\SOLDER~1\AppData\Local\Temp\ccheWc1y.s:1377   .text.USART_HalfDuplexCmd:0000000000000000 $x
C:\Users\SOLDER~1\AppData\Local\Temp\ccheWc1y.s:1377   .text.USART_HalfDuplexCmd:0000000000000000 .L0 
C:\Users\SOLDER~1\AppData\Local\Temp\ccheWc1y.s:1378   .text.USART_HalfDuplexCmd:0000000000000002 .L0 
C:\Users\SOLDER~1\AppData\Local\Temp\ccheWc1y.s:1380   .text.USART_HalfDuplexCmd:0000000000000004 .L0 
C:\Users\SOLDER~1\AppData\Local\Temp\ccheWc1y.s:1382   .text.USART_HalfDuplexCmd:0000000000000006 .L0 
C:\Users\SOLDER~1\AppData\Local\Temp\ccheWc1y.s:1386   .text.USART_HalfDuplexCmd:000000000000000e .L0 
C:\Users\SOLDER~1\AppData\Local\Temp\ccheWc1y.s:1389   .text.USART_HalfDuplexCmd:0000000000000014 .L0 
C:\Users\SOLDER~1\AppData\Local\Temp\ccheWc1y.s:1394   .text.USART_HalfDuplexCmd:000000000000001e .L0 
C:\Users\SOLDER~1\AppData\Local\Temp\ccheWc1y.s:1400   .text.USART_HalfDuplexCmd:000000000000002e .L0 
C:\Users\SOLDER~1\AppData\Local\Temp\ccheWc1y.s:1403   .text.USART_HalfDuplexCmd:0000000000000030 .L0 
C:\Users\SOLDER~1\AppData\Local\Temp\ccheWc1y.s:1408   .text.USART_HalfDuplexCmd:000000000000003a .L0 
C:\Users\SOLDER~1\AppData\Local\Temp\ccheWc1y.s:1415   .text.USART_HalfDuplexCmd:0000000000000048 .L0 
C:\Users\SOLDER~1\AppData\Local\Temp\ccheWc1y.s:1417   .text.USART_HalfDuplexCmd:000000000000004c .L0 
C:\Users\SOLDER~1\AppData\Local\Temp\ccheWc1y.s:1418   .text.USART_HalfDuplexCmd:000000000000004c .L0 
GAS LISTING C:\Users\SOLDER~1\AppData\Local\Temp\ccheWc1y.s 			page 57


C:\Users\SOLDER~1\AppData\Local\Temp\ccheWc1y.s:1420   .text.USART_HalfDuplexCmd:000000000000004e .L0 
C:\Users\SOLDER~1\AppData\Local\Temp\ccheWc1y.s:1422   .text.USART_HalfDuplexCmd:0000000000000050 .L0 
C:\Users\SOLDER~1\AppData\Local\Temp\ccheWc1y.s:1429   .text.USART_OverSampling8Cmd:0000000000000000 USART_OverSampling8Cmd
C:\Users\SOLDER~1\AppData\Local\Temp\ccheWc1y.s:1432   .text.USART_OverSampling8Cmd:0000000000000000 .L0 
C:\Users\SOLDER~1\AppData\Local\Temp\ccheWc1y.s:1433   .text.USART_OverSampling8Cmd:0000000000000000 $x
C:\Users\SOLDER~1\AppData\Local\Temp\ccheWc1y.s:1433   .text.USART_OverSampling8Cmd:0000000000000000 .L0 
C:\Users\SOLDER~1\AppData\Local\Temp\ccheWc1y.s:1434   .text.USART_OverSampling8Cmd:0000000000000002 .L0 
C:\Users\SOLDER~1\AppData\Local\Temp\ccheWc1y.s:1436   .text.USART_OverSampling8Cmd:0000000000000004 .L0 
C:\Users\SOLDER~1\AppData\Local\Temp\ccheWc1y.s:1438   .text.USART_OverSampling8Cmd:0000000000000006 .L0 
C:\Users\SOLDER~1\AppData\Local\Temp\ccheWc1y.s:1442   .text.USART_OverSampling8Cmd:000000000000000e .L0 
C:\Users\SOLDER~1\AppData\Local\Temp\ccheWc1y.s:1445   .text.USART_OverSampling8Cmd:0000000000000014 .L0 
C:\Users\SOLDER~1\AppData\Local\Temp\ccheWc1y.s:1450   .text.USART_OverSampling8Cmd:0000000000000020 .L0 
C:\Users\SOLDER~1\AppData\Local\Temp\ccheWc1y.s:1457   .text.USART_OverSampling8Cmd:0000000000000030 .L0 
C:\Users\SOLDER~1\AppData\Local\Temp\ccheWc1y.s:1460   .text.USART_OverSampling8Cmd:0000000000000032 .L0 
C:\Users\SOLDER~1\AppData\Local\Temp\ccheWc1y.s:1465   .text.USART_OverSampling8Cmd:000000000000003e .L0 
C:\Users\SOLDER~1\AppData\Local\Temp\ccheWc1y.s:1474   .text.USART_OverSampling8Cmd:0000000000000050 .L0 
C:\Users\SOLDER~1\AppData\Local\Temp\ccheWc1y.s:1476   .text.USART_OverSampling8Cmd:0000000000000054 .L0 
C:\Users\SOLDER~1\AppData\Local\Temp\ccheWc1y.s:1477   .text.USART_OverSampling8Cmd:0000000000000054 .L0 
C:\Users\SOLDER~1\AppData\Local\Temp\ccheWc1y.s:1479   .text.USART_OverSampling8Cmd:0000000000000056 .L0 
C:\Users\SOLDER~1\AppData\Local\Temp\ccheWc1y.s:1481   .text.USART_OverSampling8Cmd:0000000000000058 .L0 
C:\Users\SOLDER~1\AppData\Local\Temp\ccheWc1y.s:1488   .text.USART_OneBitMethodCmd:0000000000000000 USART_OneBitMethodCmd
C:\Users\SOLDER~1\AppData\Local\Temp\ccheWc1y.s:1491   .text.USART_OneBitMethodCmd:0000000000000000 .L0 
C:\Users\SOLDER~1\AppData\Local\Temp\ccheWc1y.s:1492   .text.USART_OneBitMethodCmd:0000000000000000 $x
C:\Users\SOLDER~1\AppData\Local\Temp\ccheWc1y.s:1492   .text.USART_OneBitMethodCmd:0000000000000000 .L0 
C:\Users\SOLDER~1\AppData\Local\Temp\ccheWc1y.s:1493   .text.USART_OneBitMethodCmd:0000000000000002 .L0 
C:\Users\SOLDER~1\AppData\Local\Temp\ccheWc1y.s:1495   .text.USART_OneBitMethodCmd:0000000000000004 .L0 
C:\Users\SOLDER~1\AppData\Local\Temp\ccheWc1y.s:1497   .text.USART_OneBitMethodCmd:0000000000000006 .L0 
C:\Users\SOLDER~1\AppData\Local\Temp\ccheWc1y.s:1501   .text.USART_OneBitMethodCmd:000000000000000e .L0 
C:\Users\SOLDER~1\AppData\Local\Temp\ccheWc1y.s:1504   .text.USART_OneBitMethodCmd:0000000000000014 .L0 
C:\Users\SOLDER~1\AppData\Local\Temp\ccheWc1y.s:1509   .text.USART_OneBitMethodCmd:0000000000000020 .L0 
C:\Users\SOLDER~1\AppData\Local\Temp\ccheWc1y.s:1517   .text.USART_OneBitMethodCmd:0000000000000034 .L0 
C:\Users\SOLDER~1\AppData\Local\Temp\ccheWc1y.s:1520   .text.USART_OneBitMethodCmd:0000000000000036 .L0 
C:\Users\SOLDER~1\AppData\Local\Temp\ccheWc1y.s:1525   .text.USART_OneBitMethodCmd:0000000000000042 .L0 
C:\Users\SOLDER~1\AppData\Local\Temp\ccheWc1y.s:1534   .text.USART_OneBitMethodCmd:0000000000000056 .L0 
C:\Users\SOLDER~1\AppData\Local\Temp\ccheWc1y.s:1536   .text.USART_OneBitMethodCmd:000000000000005a .L0 
C:\Users\SOLDER~1\AppData\Local\Temp\ccheWc1y.s:1537   .text.USART_OneBitMethodCmd:000000000000005a .L0 
C:\Users\SOLDER~1\AppData\Local\Temp\ccheWc1y.s:1539   .text.USART_OneBitMethodCmd:000000000000005c .L0 
C:\Users\SOLDER~1\AppData\Local\Temp\ccheWc1y.s:1541   .text.USART_OneBitMethodCmd:000000000000005e .L0 
C:\Users\SOLDER~1\AppData\Local\Temp\ccheWc1y.s:1548   .text.USART_IrDAConfig:0000000000000000 USART_IrDAConfig
C:\Users\SOLDER~1\AppData\Local\Temp\ccheWc1y.s:1551   .text.USART_IrDAConfig:0000000000000000 .L0 
C:\Users\SOLDER~1\AppData\Local\Temp\ccheWc1y.s:1552   .text.USART_IrDAConfig:0000000000000000 $x
C:\Users\SOLDER~1\AppData\Local\Temp\ccheWc1y.s:1552   .text.USART_IrDAConfig:0000000000000000 .L0 
C:\Users\SOLDER~1\AppData\Local\Temp\ccheWc1y.s:1553   .text.USART_IrDAConfig:0000000000000002 .L0 
C:\Users\SOLDER~1\AppData\Local\Temp\ccheWc1y.s:1555   .text.USART_IrDAConfig:0000000000000004 .L0 
C:\Users\SOLDER~1\AppData\Local\Temp\ccheWc1y.s:1557   .text.USART_IrDAConfig:0000000000000006 .L0 
C:\Users\SOLDER~1\AppData\Local\Temp\ccheWc1y.s:1562   .text.USART_IrDAConfig:0000000000000010 .L0 
C:\Users\SOLDER~1\AppData\Local\Temp\ccheWc1y.s:1567   .text.USART_IrDAConfig:000000000000001a .L0 
C:\Users\SOLDER~1\AppData\Local\Temp\ccheWc1y.s:1573   .text.USART_IrDAConfig:0000000000000028 .L0 
C:\Users\SOLDER~1\AppData\Local\Temp\ccheWc1y.s:1578   .text.USART_IrDAConfig:0000000000000032 .L0 
C:\Users\SOLDER~1\AppData\Local\Temp\ccheWc1y.s:1585   .text.USART_IrDAConfig:0000000000000044 .L0 
C:\Users\SOLDER~1\AppData\Local\Temp\ccheWc1y.s:1587   .text.USART_IrDAConfig:0000000000000048 .L0 
C:\Users\SOLDER~1\AppData\Local\Temp\ccheWc1y.s:1588   .text.USART_IrDAConfig:0000000000000048 .L0 
C:\Users\SOLDER~1\AppData\Local\Temp\ccheWc1y.s:1590   .text.USART_IrDAConfig:000000000000004a .L0 
C:\Users\SOLDER~1\AppData\Local\Temp\ccheWc1y.s:1592   .text.USART_IrDAConfig:000000000000004c .L0 
C:\Users\SOLDER~1\AppData\Local\Temp\ccheWc1y.s:1599   .text.USART_IrDACmd:0000000000000000 USART_IrDACmd
C:\Users\SOLDER~1\AppData\Local\Temp\ccheWc1y.s:1602   .text.USART_IrDACmd:0000000000000000 .L0 
C:\Users\SOLDER~1\AppData\Local\Temp\ccheWc1y.s:1603   .text.USART_IrDACmd:0000000000000000 $x
GAS LISTING C:\Users\SOLDER~1\AppData\Local\Temp\ccheWc1y.s 			page 58


C:\Users\SOLDER~1\AppData\Local\Temp\ccheWc1y.s:1603   .text.USART_IrDACmd:0000000000000000 .L0 
C:\Users\SOLDER~1\AppData\Local\Temp\ccheWc1y.s:1604   .text.USART_IrDACmd:0000000000000002 .L0 
C:\Users\SOLDER~1\AppData\Local\Temp\ccheWc1y.s:1606   .text.USART_IrDACmd:0000000000000004 .L0 
C:\Users\SOLDER~1\AppData\Local\Temp\ccheWc1y.s:1608   .text.USART_IrDACmd:0000000000000006 .L0 
C:\Users\SOLDER~1\AppData\Local\Temp\ccheWc1y.s:1612   .text.USART_IrDACmd:000000000000000e .L0 
C:\Users\SOLDER~1\AppData\Local\Temp\ccheWc1y.s:1615   .text.USART_IrDACmd:0000000000000014 .L0 
C:\Users\SOLDER~1\AppData\Local\Temp\ccheWc1y.s:1620   .text.USART_IrDACmd:000000000000001e .L0 
C:\Users\SOLDER~1\AppData\Local\Temp\ccheWc1y.s:1626   .text.USART_IrDACmd:000000000000002e .L0 
C:\Users\SOLDER~1\AppData\Local\Temp\ccheWc1y.s:1629   .text.USART_IrDACmd:0000000000000030 .L0 
C:\Users\SOLDER~1\AppData\Local\Temp\ccheWc1y.s:1634   .text.USART_IrDACmd:000000000000003a .L0 
C:\Users\SOLDER~1\AppData\Local\Temp\ccheWc1y.s:1641   .text.USART_IrDACmd:0000000000000048 .L0 
C:\Users\SOLDER~1\AppData\Local\Temp\ccheWc1y.s:1643   .text.USART_IrDACmd:000000000000004c .L0 
C:\Users\SOLDER~1\AppData\Local\Temp\ccheWc1y.s:1644   .text.USART_IrDACmd:000000000000004c .L0 
C:\Users\SOLDER~1\AppData\Local\Temp\ccheWc1y.s:1646   .text.USART_IrDACmd:000000000000004e .L0 
C:\Users\SOLDER~1\AppData\Local\Temp\ccheWc1y.s:1648   .text.USART_IrDACmd:0000000000000050 .L0 
C:\Users\SOLDER~1\AppData\Local\Temp\ccheWc1y.s:1655   .text.USART_GetFlagStatus:0000000000000000 USART_GetFlagStatus
C:\Users\SOLDER~1\AppData\Local\Temp\ccheWc1y.s:1658   .text.USART_GetFlagStatus:0000000000000000 .L0 
C:\Users\SOLDER~1\AppData\Local\Temp\ccheWc1y.s:1659   .text.USART_GetFlagStatus:0000000000000000 $x
C:\Users\SOLDER~1\AppData\Local\Temp\ccheWc1y.s:1659   .text.USART_GetFlagStatus:0000000000000000 .L0 
C:\Users\SOLDER~1\AppData\Local\Temp\ccheWc1y.s:1660   .text.USART_GetFlagStatus:0000000000000002 .L0 
C:\Users\SOLDER~1\AppData\Local\Temp\ccheWc1y.s:1662   .text.USART_GetFlagStatus:0000000000000004 .L0 
C:\Users\SOLDER~1\AppData\Local\Temp\ccheWc1y.s:1664   .text.USART_GetFlagStatus:0000000000000006 .L0 
C:\Users\SOLDER~1\AppData\Local\Temp\ccheWc1y.s:1669   .text.USART_GetFlagStatus:0000000000000010 .L0 
C:\Users\SOLDER~1\AppData\Local\Temp\ccheWc1y.s:1671   .text.USART_GetFlagStatus:0000000000000014 .L0 
C:\Users\SOLDER~1\AppData\Local\Temp\ccheWc1y.s:1676   .text.USART_GetFlagStatus:000000000000001e .L0 
C:\Users\SOLDER~1\AppData\Local\Temp\ccheWc1y.s:1681   .text.USART_GetFlagStatus:0000000000000028 .L0 
C:\Users\SOLDER~1\AppData\Local\Temp\ccheWc1y.s:1683   .text.USART_GetFlagStatus:000000000000002a .L0 
C:\Users\SOLDER~1\AppData\Local\Temp\ccheWc1y.s:1688   .text.USART_GetFlagStatus:0000000000000032 .L0 
C:\Users\SOLDER~1\AppData\Local\Temp\ccheWc1y.s:1691   .text.USART_GetFlagStatus:0000000000000036 .L0 
C:\Users\SOLDER~1\AppData\Local\Temp\ccheWc1y.s:1693   .text.USART_GetFlagStatus:000000000000003a .L0 
C:\Users\SOLDER~1\AppData\Local\Temp\ccheWc1y.s:1695   .text.USART_GetFlagStatus:000000000000003e .L0 
C:\Users\SOLDER~1\AppData\Local\Temp\ccheWc1y.s:1696   .text.USART_GetFlagStatus:000000000000003e .L0 
C:\Users\SOLDER~1\AppData\Local\Temp\ccheWc1y.s:1698   .text.USART_GetFlagStatus:0000000000000040 .L0 
C:\Users\SOLDER~1\AppData\Local\Temp\ccheWc1y.s:1700   .text.USART_GetFlagStatus:0000000000000042 .L0 
C:\Users\SOLDER~1\AppData\Local\Temp\ccheWc1y.s:1707   .text.USART_ClearFlag:0000000000000000 USART_ClearFlag
C:\Users\SOLDER~1\AppData\Local\Temp\ccheWc1y.s:1710   .text.USART_ClearFlag:0000000000000000 .L0 
C:\Users\SOLDER~1\AppData\Local\Temp\ccheWc1y.s:1711   .text.USART_ClearFlag:0000000000000000 $x
C:\Users\SOLDER~1\AppData\Local\Temp\ccheWc1y.s:1711   .text.USART_ClearFlag:0000000000000000 .L0 
C:\Users\SOLDER~1\AppData\Local\Temp\ccheWc1y.s:1712   .text.USART_ClearFlag:0000000000000002 .L0 
C:\Users\SOLDER~1\AppData\Local\Temp\ccheWc1y.s:1714   .text.USART_ClearFlag:0000000000000004 .L0 
C:\Users\SOLDER~1\AppData\Local\Temp\ccheWc1y.s:1716   .text.USART_ClearFlag:0000000000000006 .L0 
C:\Users\SOLDER~1\AppData\Local\Temp\ccheWc1y.s:1721   .text.USART_ClearFlag:0000000000000010 .L0 
C:\Users\SOLDER~1\AppData\Local\Temp\ccheWc1y.s:1726   .text.USART_ClearFlag:000000000000001e .L0 
C:\Users\SOLDER~1\AppData\Local\Temp\ccheWc1y.s:1729   .text.USART_ClearFlag:0000000000000024 .L0 
C:\Users\SOLDER~1\AppData\Local\Temp\ccheWc1y.s:1731   .text.USART_ClearFlag:0000000000000028 .L0 
C:\Users\SOLDER~1\AppData\Local\Temp\ccheWc1y.s:1732   .text.USART_ClearFlag:0000000000000028 .L0 
C:\Users\SOLDER~1\AppData\Local\Temp\ccheWc1y.s:1734   .text.USART_ClearFlag:000000000000002a .L0 
C:\Users\SOLDER~1\AppData\Local\Temp\ccheWc1y.s:1736   .text.USART_ClearFlag:000000000000002c .L0 
C:\Users\SOLDER~1\AppData\Local\Temp\ccheWc1y.s:1743   .text.USART_GetITStatus:0000000000000000 USART_GetITStatus
C:\Users\SOLDER~1\AppData\Local\Temp\ccheWc1y.s:1746   .text.USART_GetITStatus:0000000000000000 .L0 
C:\Users\SOLDER~1\AppData\Local\Temp\ccheWc1y.s:1747   .text.USART_GetITStatus:0000000000000000 $x
C:\Users\SOLDER~1\AppData\Local\Temp\ccheWc1y.s:1747   .text.USART_GetITStatus:0000000000000000 .L0 
C:\Users\SOLDER~1\AppData\Local\Temp\ccheWc1y.s:1748   .text.USART_GetITStatus:0000000000000002 .L0 
C:\Users\SOLDER~1\AppData\Local\Temp\ccheWc1y.s:1750   .text.USART_GetITStatus:0000000000000004 .L0 
C:\Users\SOLDER~1\AppData\Local\Temp\ccheWc1y.s:1752   .text.USART_GetITStatus:0000000000000006 .L0 
C:\Users\SOLDER~1\AppData\Local\Temp\ccheWc1y.s:1757   .text.USART_GetITStatus:0000000000000010 .L0 
C:\Users\SOLDER~1\AppData\Local\Temp\ccheWc1y.s:1759   .text.USART_GetITStatus:0000000000000014 .L0 
GAS LISTING C:\Users\SOLDER~1\AppData\Local\Temp\ccheWc1y.s 			page 59


C:\Users\SOLDER~1\AppData\Local\Temp\ccheWc1y.s:1761   .text.USART_GetITStatus:0000000000000018 .L0 
C:\Users\SOLDER~1\AppData\Local\Temp\ccheWc1y.s:1763   .text.USART_GetITStatus:000000000000001c .L0 
C:\Users\SOLDER~1\AppData\Local\Temp\ccheWc1y.s:1765   .text.USART_GetITStatus:0000000000000020 .L0 
C:\Users\SOLDER~1\AppData\Local\Temp\ccheWc1y.s:1768   .text.USART_GetITStatus:0000000000000028 .L0 
C:\Users\SOLDER~1\AppData\Local\Temp\ccheWc1y.s:1771   .text.USART_GetITStatus:000000000000002e .L0 
C:\Users\SOLDER~1\AppData\Local\Temp\ccheWc1y.s:1773   .text.USART_GetITStatus:0000000000000032 .L0 
C:\Users\SOLDER~1\AppData\Local\Temp\ccheWc1y.s:1775   .text.USART_GetITStatus:0000000000000036 .L0 
C:\Users\SOLDER~1\AppData\Local\Temp\ccheWc1y.s:1778   .text.USART_GetITStatus:000000000000003c .L0 
C:\Users\SOLDER~1\AppData\Local\Temp\ccheWc1y.s:1783   .text.USART_GetITStatus:000000000000004a .L0 
C:\Users\SOLDER~1\AppData\Local\Temp\ccheWc1y.s:1787   .text.USART_GetITStatus:0000000000000054 .L0 
C:\Users\SOLDER~1\AppData\Local\Temp\ccheWc1y.s:1793   .text.USART_GetITStatus:0000000000000060 .L0 
C:\Users\SOLDER~1\AppData\Local\Temp\ccheWc1y.s:1799   .text.USART_GetITStatus:000000000000006c .L0 
C:\Users\SOLDER~1\AppData\Local\Temp\ccheWc1y.s:1803   .text.USART_GetITStatus:0000000000000076 .L0 
C:\Users\SOLDER~1\AppData\Local\Temp\ccheWc1y.s:1809   .text.USART_GetITStatus:0000000000000082 .L0 
C:\Users\SOLDER~1\AppData\Local\Temp\ccheWc1y.s:1815   .text.USART_GetITStatus:000000000000008e .L0 
C:\Users\SOLDER~1\AppData\Local\Temp\ccheWc1y.s:1821   .text.USART_GetITStatus:000000000000009a .L0 
C:\Users\SOLDER~1\AppData\Local\Temp\ccheWc1y.s:1826   .text.USART_GetITStatus:00000000000000a4 .L0 
C:\Users\SOLDER~1\AppData\Local\Temp\ccheWc1y.s:1831   .text.USART_GetITStatus:00000000000000ae .L0 
C:\Users\SOLDER~1\AppData\Local\Temp\ccheWc1y.s:1833   .text.USART_GetITStatus:00000000000000b2 .L0 
C:\Users\SOLDER~1\AppData\Local\Temp\ccheWc1y.s:1838   .text.USART_GetITStatus:00000000000000c0 .L0 
C:\Users\SOLDER~1\AppData\Local\Temp\ccheWc1y.s:1844   .text.USART_GetITStatus:00000000000000cc .L0 
C:\Users\SOLDER~1\AppData\Local\Temp\ccheWc1y.s:1848   .text.USART_GetITStatus:00000000000000d6 .L0 
C:\Users\SOLDER~1\AppData\Local\Temp\ccheWc1y.s:1851   .text.USART_GetITStatus:00000000000000dc .L0 
C:\Users\SOLDER~1\AppData\Local\Temp\ccheWc1y.s:1854   .text.USART_GetITStatus:00000000000000e2 .L0 
C:\Users\SOLDER~1\AppData\Local\Temp\ccheWc1y.s:1859   .text.USART_GetITStatus:00000000000000ea .L0 
C:\Users\SOLDER~1\AppData\Local\Temp\ccheWc1y.s:1862   .text.USART_GetITStatus:00000000000000ee .L0 
C:\Users\SOLDER~1\AppData\Local\Temp\ccheWc1y.s:1864   .text.USART_GetITStatus:00000000000000f2 .L0 
C:\Users\SOLDER~1\AppData\Local\Temp\ccheWc1y.s:1866   .text.USART_GetITStatus:00000000000000f6 .L0 
C:\Users\SOLDER~1\AppData\Local\Temp\ccheWc1y.s:1867   .text.USART_GetITStatus:00000000000000f6 .L0 
C:\Users\SOLDER~1\AppData\Local\Temp\ccheWc1y.s:1869   .text.USART_GetITStatus:00000000000000f8 .L0 
C:\Users\SOLDER~1\AppData\Local\Temp\ccheWc1y.s:1871   .text.USART_GetITStatus:00000000000000fa .L0 
C:\Users\SOLDER~1\AppData\Local\Temp\ccheWc1y.s:1878   .text.USART_ClearITPendingBit:0000000000000000 USART_ClearITPendingBit
C:\Users\SOLDER~1\AppData\Local\Temp\ccheWc1y.s:1881   .text.USART_ClearITPendingBit:0000000000000000 .L0 
C:\Users\SOLDER~1\AppData\Local\Temp\ccheWc1y.s:1882   .text.USART_ClearITPendingBit:0000000000000000 $x
C:\Users\SOLDER~1\AppData\Local\Temp\ccheWc1y.s:1882   .text.USART_ClearITPendingBit:0000000000000000 .L0 
C:\Users\SOLDER~1\AppData\Local\Temp\ccheWc1y.s:1883   .text.USART_ClearITPendingBit:0000000000000002 .L0 
C:\Users\SOLDER~1\AppData\Local\Temp\ccheWc1y.s:1885   .text.USART_ClearITPendingBit:0000000000000004 .L0 
C:\Users\SOLDER~1\AppData\Local\Temp\ccheWc1y.s:1887   .text.USART_ClearITPendingBit:0000000000000006 .L0 
C:\Users\SOLDER~1\AppData\Local\Temp\ccheWc1y.s:1892   .text.USART_ClearITPendingBit:0000000000000010 .L0 
C:\Users\SOLDER~1\AppData\Local\Temp\ccheWc1y.s:1894   .text.USART_ClearITPendingBit:0000000000000014 .L0 
C:\Users\SOLDER~1\AppData\Local\Temp\ccheWc1y.s:1896   .text.USART_ClearITPendingBit:0000000000000018 .L0 
C:\Users\SOLDER~1\AppData\Local\Temp\ccheWc1y.s:1900   .text.USART_ClearITPendingBit:0000000000000022 .L0 
C:\Users\SOLDER~1\AppData\Local\Temp\ccheWc1y.s:1902   .text.USART_ClearITPendingBit:0000000000000026 .L0 
C:\Users\SOLDER~1\AppData\Local\Temp\ccheWc1y.s:1905   .text.USART_ClearITPendingBit:000000000000002c .L0 
C:\Users\SOLDER~1\AppData\Local\Temp\ccheWc1y.s:1907   .text.USART_ClearITPendingBit:0000000000000030 .L0 
C:\Users\SOLDER~1\AppData\Local\Temp\ccheWc1y.s:1912   .text.USART_ClearITPendingBit:000000000000003e .L0 
C:\Users\SOLDER~1\AppData\Local\Temp\ccheWc1y.s:1915   .text.USART_ClearITPendingBit:0000000000000044 .L0 
C:\Users\SOLDER~1\AppData\Local\Temp\ccheWc1y.s:1917   .text.USART_ClearITPendingBit:0000000000000048 .L0 
C:\Users\SOLDER~1\AppData\Local\Temp\ccheWc1y.s:1918   .text.USART_ClearITPendingBit:0000000000000048 .L0 
C:\Users\SOLDER~1\AppData\Local\Temp\ccheWc1y.s:1920   .text.USART_ClearITPendingBit:000000000000004a .L0 
C:\Users\SOLDER~1\AppData\Local\Temp\ccheWc1y.s:1922   .text.USART_ClearITPendingBit:000000000000004c .L0 
C:\Users\SOLDER~1\AppData\Local\Temp\ccheWc1y.s:33105  .debug_line_str:0000000000000067 .L0 
C:\Users\SOLDER~1\AppData\Local\Temp\ccheWc1y.s:33105  .debug_line_str:00000000000000b1 .L0 
C:\Users\SOLDER~1\AppData\Local\Temp\ccheWc1y.s:33105  .debug_line_str:00000000000000bd .L0 
C:\Users\SOLDER~1\AppData\Local\Temp\ccheWc1y.s:33105  .debug_line_str:000000000000010a .L0 
C:\Users\SOLDER~1\AppData\Local\Temp\ccheWc1y.s:33105  .debug_line_str:0000000000000153 .L0 
C:\Users\SOLDER~1\AppData\Local\Temp\ccheWc1y.s:33105  .debug_line_str:000000000000015f .L0 
GAS LISTING C:\Users\SOLDER~1\AppData\Local\Temp\ccheWc1y.s 			page 60


C:\Users\SOLDER~1\AppData\Local\Temp\ccheWc1y.s:33105  .debug_line_str:00000000000001b3 .L0 
C:\Users\SOLDER~1\AppData\Local\Temp\ccheWc1y.s:33105  .debug_line_str:00000000000001f8 .L0 
C:\Users\SOLDER~1\AppData\Local\Temp\ccheWc1y.s:33105  .debug_line_str:0000000000000209 .L0 
C:\Users\SOLDER~1\AppData\Local\Temp\ccheWc1y.s:33105  .debug_line_str:000000000000021a .L0 
C:\Users\SOLDER~1\AppData\Local\Temp\ccheWc1y.s:33105  .debug_line_str:000000000000022b .L0 
C:\Users\SOLDER~1\AppData\Local\Temp\ccheWc1y.s:33105  .debug_line_str:0000000000000235 .L0 
C:\Users\SOLDER~1\AppData\Local\Temp\ccheWc1y.s:33105  .debug_line_str:0000000000000242 .L0 
C:\Users\SOLDER~1\AppData\Local\Temp\ccheWc1y.s:33105  .debug_line_str:000000000000024d .L0 
C:\Users\SOLDER~1\AppData\Local\Temp\ccheWc1y.s:33105  .debug_line_str:000000000000025c .L0 
C:\Users\SOLDER~1\AppData\Local\Temp\ccheWc1y.s:33105  .debug_line_str:000000000000026d .L0 
C:\Users\SOLDER~1\AppData\Local\Temp\ccheWc1y.s:33105  .debug_line_str:0000000000000276 .L0 
C:\Users\SOLDER~1\AppData\Local\Temp\ccheWc1y.s:33105  .debug_line_str:000000000000027f .L0 
C:\Users\SOLDER~1\AppData\Local\Temp\ccheWc1y.s:33105  .debug_line_str:000000000000028a .L0 
C:\Users\SOLDER~1\AppData\Local\Temp\ccheWc1y.s:33105  .debug_line_str:000000000000029c .L0 
C:\Users\SOLDER~1\AppData\Local\Temp\ccheWc1y.s:33105  .debug_line_str:00000000000002a6 .L0 
C:\Users\SOLDER~1\AppData\Local\Temp\ccheWc1y.s:33105  .debug_line_str:00000000000002b6 .L0 
C:\Users\SOLDER~1\AppData\Local\Temp\ccheWc1y.s:33105  .debug_line_str:00000000000002c5 .L0 
C:\Users\SOLDER~1\AppData\Local\Temp\ccheWc1y.s:33105  .debug_line_str:00000000000002d4 .L0 
C:\Users\SOLDER~1\AppData\Local\Temp\ccheWc1y.s:33105  .debug_line_str:00000000000002e3 .L0 
C:\Users\SOLDER~1\AppData\Local\Temp\ccheWc1y.s:33105  .debug_line_str:00000000000002f2 .L0 
C:\Users\SOLDER~1\AppData\Local\Temp\ccheWc1y.s:33105  .debug_line_str:0000000000000304 .L0 
C:\Users\SOLDER~1\AppData\Local\Temp\ccheWc1y.s:33105  .debug_line_str:0000000000000313 .L0 
C:\Users\SOLDER~1\AppData\Local\Temp\ccheWc1y.s:33105  .debug_line_str:0000000000000323 .L0 
C:\Users\SOLDER~1\AppData\Local\Temp\ccheWc1y.s:33105  .debug_line_str:0000000000000334 .L0 
C:\Users\SOLDER~1\AppData\Local\Temp\ccheWc1y.s:33105  .debug_line_str:0000000000000344 .L0 
C:\Users\SOLDER~1\AppData\Local\Temp\ccheWc1y.s:33105  .debug_line_str:0000000000000353 .L0 
C:\Users\SOLDER~1\AppData\Local\Temp\ccheWc1y.s:33105  .debug_line_str:0000000000000363 .L0 
C:\Users\SOLDER~1\AppData\Local\Temp\ccheWc1y.s:33105  .debug_line_str:0000000000000372 .L0 
C:\Users\SOLDER~1\AppData\Local\Temp\ccheWc1y.s:33105  .debug_line_str:0000000000000381 .L0 
C:\Users\SOLDER~1\AppData\Local\Temp\ccheWc1y.s:33105  .debug_line_str:0000000000000390 .L0 
C:\Users\SOLDER~1\AppData\Local\Temp\ccheWc1y.s:33105  .debug_line_str:000000000000039f .L0 
C:\Users\SOLDER~1\AppData\Local\Temp\ccheWc1y.s:33105  .debug_line_str:00000000000003af .L0 
C:\Users\SOLDER~1\AppData\Local\Temp\ccheWc1y.s:103    .text.USART_DeInit:00000000000000c8 .L0 
C:\Users\SOLDER~1\AppData\Local\Temp\ccheWc1y.s:372    .text.USART_Init:000000000000021c .L0 
C:\Users\SOLDER~1\AppData\Local\Temp\ccheWc1y.s:419    .text.USART_StructInit:0000000000000046 .L0 
C:\Users\SOLDER~1\AppData\Local\Temp\ccheWc1y.s:497    .text.USART_ClockInit:0000000000000082 .L0 
C:\Users\SOLDER~1\AppData\Local\Temp\ccheWc1y.s:535    .text.USART_ClockStructInit:0000000000000032 .L0 
C:\Users\SOLDER~1\AppData\Local\Temp\ccheWc1y.s:594    .text.USART_Cmd:0000000000000058 .L0 
C:\Users\SOLDER~1\AppData\Local\Temp\ccheWc1y.s:703    .text.USART_ITConfig:00000000000000c4 .L0 
C:\Users\SOLDER~1\AppData\Local\Temp\ccheWc1y.s:767    .text.USART_DMACmd:0000000000000066 .L0 
C:\Users\SOLDER~1\AppData\Local\Temp\ccheWc1y.s:820    .text.USART_SetAddress:0000000000000052 .L0 
C:\Users\SOLDER~1\AppData\Local\Temp\ccheWc1y.s:873    .text.USART_WakeUpConfig:0000000000000054 .L0 
C:\Users\SOLDER~1\AppData\Local\Temp\ccheWc1y.s:929    .text.USART_ReceiverWakeUpCmd:0000000000000050 .L0 
C:\Users\SOLDER~1\AppData\Local\Temp\ccheWc1y.s:980    .text.USART_LINBreakDetectLengthConfig:000000000000004e .L0 
C:\Users\SOLDER~1\AppData\Local\Temp\ccheWc1y.s:1039   .text.USART_LINCmd:0000000000000058 .L0 
C:\Users\SOLDER~1\AppData\Local\Temp\ccheWc1y.s:1075   .text.USART_SendData:000000000000002c .L0 
C:\Users\SOLDER~1\AppData\Local\Temp\ccheWc1y.s:1110   .text.USART_ReceiveData:0000000000000024 .L0 
C:\Users\SOLDER~1\AppData\Local\Temp\ccheWc1y.s:1147   .text.USART_SendBreak:000000000000002c .L0 
C:\Users\SOLDER~1\AppData\Local\Temp\ccheWc1y.s:1204   .text.USART_SetGuardTime:000000000000005a .L0 
C:\Users\SOLDER~1\AppData\Local\Temp\ccheWc1y.s:1257   .text.USART_SetPrescaler:0000000000000054 .L0 
C:\Users\SOLDER~1\AppData\Local\Temp\ccheWc1y.s:1313   .text.USART_SmartCardCmd:0000000000000052 .L0 
C:\Users\SOLDER~1\AppData\Local\Temp\ccheWc1y.s:1369   .text.USART_SmartCardNACKCmd:0000000000000050 .L0 
C:\Users\SOLDER~1\AppData\Local\Temp\ccheWc1y.s:1425   .text.USART_HalfDuplexCmd:0000000000000050 .L0 
C:\Users\SOLDER~1\AppData\Local\Temp\ccheWc1y.s:1484   .text.USART_OverSampling8Cmd:0000000000000058 .L0 
C:\Users\SOLDER~1\AppData\Local\Temp\ccheWc1y.s:1544   .text.USART_OneBitMethodCmd:000000000000005e .L0 
C:\Users\SOLDER~1\AppData\Local\Temp\ccheWc1y.s:1595   .text.USART_IrDAConfig:000000000000004c .L0 
C:\Users\SOLDER~1\AppData\Local\Temp\ccheWc1y.s:1651   .text.USART_IrDACmd:0000000000000050 .L0 
GAS LISTING C:\Users\SOLDER~1\AppData\Local\Temp\ccheWc1y.s 			page 61


C:\Users\SOLDER~1\AppData\Local\Temp\ccheWc1y.s:1703   .text.USART_GetFlagStatus:0000000000000042 .L0 
C:\Users\SOLDER~1\AppData\Local\Temp\ccheWc1y.s:1739   .text.USART_ClearFlag:000000000000002c .L0 
C:\Users\SOLDER~1\AppData\Local\Temp\ccheWc1y.s:1874   .text.USART_GetITStatus:00000000000000fa .L0 
C:\Users\SOLDER~1\AppData\Local\Temp\ccheWc1y.s:1925   .text.USART_ClearITPendingBit:000000000000004c .L0 
                     .debug_frame:0000000000000000 .L0 
C:\Users\SOLDER~1\AppData\Local\Temp\ccheWc1y.s:43     .text.USART_DeInit:0000000000000036 .L2
C:\Users\SOLDER~1\AppData\Local\Temp\ccheWc1y.s:89     .text.USART_DeInit:00000000000000be .L6
C:\Users\SOLDER~1\AppData\Local\Temp\ccheWc1y.s:59     .text.USART_DeInit:0000000000000064 .L4
C:\Users\SOLDER~1\AppData\Local\Temp\ccheWc1y.s:75     .text.USART_DeInit:0000000000000092 .L5
C:\Users\SOLDER~1\AppData\Local\Temp\ccheWc1y.s:246    .text.USART_Init:000000000000012c .L8
C:\Users\SOLDER~1\AppData\Local\Temp\ccheWc1y.s:250    .text.USART_Init:0000000000000134 .L9
C:\Users\SOLDER~1\AppData\Local\Temp\ccheWc1y.s:277    .text.USART_Init:0000000000000166 .L10
C:\Users\SOLDER~1\AppData\Local\Temp\ccheWc1y.s:293    .text.USART_Init:0000000000000184 .L11
C:\Users\SOLDER~1\AppData\Local\Temp\ccheWc1y.s:336    .text.USART_Init:00000000000001e4 .L12
C:\Users\SOLDER~1\AppData\Local\Temp\ccheWc1y.s:351    .text.USART_Init:0000000000000202 .L13
C:\Users\SOLDER~1\AppData\Local\Temp\ccheWc1y.s:568    .text.USART_Cmd:0000000000000032 .L18
C:\Users\SOLDER~1\AppData\Local\Temp\ccheWc1y.s:582    .text.USART_Cmd:0000000000000050 .L20
C:\Users\SOLDER~1\AppData\Local\Temp\ccheWc1y.s:650    .text.USART_ITConfig:000000000000006c .L22
C:\Users\SOLDER~1\AppData\Local\Temp\ccheWc1y.s:665    .text.USART_ITConfig:000000000000008c .L23
C:\Users\SOLDER~1\AppData\Local\Temp\ccheWc1y.s:660    .text.USART_ITConfig:0000000000000082 .L24
C:\Users\SOLDER~1\AppData\Local\Temp\ccheWc1y.s:679    .text.USART_ITConfig:00000000000000a6 .L25
C:\Users\SOLDER~1\AppData\Local\Temp\ccheWc1y.s:691    .text.USART_ITConfig:00000000000000bc .L27
C:\Users\SOLDER~1\AppData\Local\Temp\ccheWc1y.s:738    .text.USART_DMACmd:0000000000000038 .L29
C:\Users\SOLDER~1\AppData\Local\Temp\ccheWc1y.s:755    .text.USART_DMACmd:000000000000005e .L31
C:\Users\SOLDER~1\AppData\Local\Temp\ccheWc1y.s:905    .text.USART_ReceiverWakeUpCmd:0000000000000030 .L35
C:\Users\SOLDER~1\AppData\Local\Temp\ccheWc1y.s:917    .text.USART_ReceiverWakeUpCmd:0000000000000048 .L37
C:\Users\SOLDER~1\AppData\Local\Temp\ccheWc1y.s:1013   .text.USART_LINCmd:0000000000000032 .L40
C:\Users\SOLDER~1\AppData\Local\Temp\ccheWc1y.s:1027   .text.USART_LINCmd:0000000000000050 .L42
C:\Users\SOLDER~1\AppData\Local\Temp\ccheWc1y.s:1289   .text.USART_SmartCardCmd:0000000000000030 .L50
C:\Users\SOLDER~1\AppData\Local\Temp\ccheWc1y.s:1301   .text.USART_SmartCardCmd:000000000000004a .L52
C:\Users\SOLDER~1\AppData\Local\Temp\ccheWc1y.s:1345   .text.USART_SmartCardNACKCmd:0000000000000030 .L54
C:\Users\SOLDER~1\AppData\Local\Temp\ccheWc1y.s:1357   .text.USART_SmartCardNACKCmd:0000000000000048 .L56
C:\Users\SOLDER~1\AppData\Local\Temp\ccheWc1y.s:1401   .text.USART_HalfDuplexCmd:0000000000000030 .L58
C:\Users\SOLDER~1\AppData\Local\Temp\ccheWc1y.s:1413   .text.USART_HalfDuplexCmd:0000000000000048 .L60
C:\Users\SOLDER~1\AppData\Local\Temp\ccheWc1y.s:1458   .text.USART_OverSampling8Cmd:0000000000000032 .L62
C:\Users\SOLDER~1\AppData\Local\Temp\ccheWc1y.s:1472   .text.USART_OverSampling8Cmd:0000000000000050 .L64
C:\Users\SOLDER~1\AppData\Local\Temp\ccheWc1y.s:1518   .text.USART_OneBitMethodCmd:0000000000000036 .L66
C:\Users\SOLDER~1\AppData\Local\Temp\ccheWc1y.s:1532   .text.USART_OneBitMethodCmd:0000000000000056 .L68
C:\Users\SOLDER~1\AppData\Local\Temp\ccheWc1y.s:1627   .text.USART_IrDACmd:0000000000000030 .L71
C:\Users\SOLDER~1\AppData\Local\Temp\ccheWc1y.s:1639   .text.USART_IrDACmd:0000000000000048 .L73
C:\Users\SOLDER~1\AppData\Local\Temp\ccheWc1y.s:1686   .text.USART_GetFlagStatus:0000000000000032 .L75
C:\Users\SOLDER~1\AppData\Local\Temp\ccheWc1y.s:1689   .text.USART_GetFlagStatus:0000000000000036 .L76
C:\Users\SOLDER~1\AppData\Local\Temp\ccheWc1y.s:1797   .text.USART_GetITStatus:000000000000006c .L80
C:\Users\SOLDER~1\AppData\Local\Temp\ccheWc1y.s:1824   .text.USART_GetITStatus:00000000000000a4 .L81
C:\Users\SOLDER~1\AppData\Local\Temp\ccheWc1y.s:1813   .text.USART_GetITStatus:000000000000008e .L82
C:\Users\SOLDER~1\AppData\Local\Temp\ccheWc1y.s:1857   .text.USART_GetITStatus:00000000000000ea .L83
C:\Users\SOLDER~1\AppData\Local\Temp\ccheWc1y.s:1860   .text.USART_GetITStatus:00000000000000ee .L84
C:\Users\SOLDER~1\AppData\Local\Temp\ccheWc1y.s:3165   .debug_abbrev:0000000000000000 .Ldebug_abbrev0
C:\Users\SOLDER~1\AppData\Local\Temp\ccheWc1y.s:21502  .debug_str:0000000000000661 .LASF5850
C:\Users\SOLDER~1\AppData\Local\Temp\ccheWc1y.s:33101  .debug_line_str:0000000000000000 .LASF0
C:\Users\SOLDER~1\AppData\Local\Temp\ccheWc1y.s:33103  .debug_line_str:000000000000001d .LASF1
C:\Users\SOLDER~1\AppData\Local\Temp\ccheWc1y.s:3703   .debug_rnglists:000000000000000c .LLRL0
C:\Users\SOLDER~1\AppData\Local\Temp\ccheWc1y.s:21398  .debug_line:0000000000000000 .Ldebug_line0
C:\Users\SOLDER~1\AppData\Local\Temp\ccheWc1y.s:3794   .debug_macro:0000000000000000 .Ldebug_macro0
C:\Users\SOLDER~1\AppData\Local\Temp\ccheWc1y.s:33038  .debug_str:000000000002f2e1 .LASF5742
C:\Users\SOLDER~1\AppData\Local\Temp\ccheWc1y.s:27764  .debug_str:0000000000019e30 .LASF5743
C:\Users\SOLDER~1\AppData\Local\Temp\ccheWc1y.s:23696  .debug_str:0000000000009551 .LASF5746
GAS LISTING C:\Users\SOLDER~1\AppData\Local\Temp\ccheWc1y.s 			page 62


C:\Users\SOLDER~1\AppData\Local\Temp\ccheWc1y.s:27254  .debug_str:0000000000017d09 .LASF5744
C:\Users\SOLDER~1\AppData\Local\Temp\ccheWc1y.s:26544  .debug_str:0000000000014fa0 .LASF5745
C:\Users\SOLDER~1\AppData\Local\Temp\ccheWc1y.s:25084  .debug_str:000000000000f059 .LASF5747
C:\Users\SOLDER~1\AppData\Local\Temp\ccheWc1y.s:26658  .debug_str:0000000000015713 .LASF5748
C:\Users\SOLDER~1\AppData\Local\Temp\ccheWc1y.s:29564  .debug_str:00000000000211bf .LASF5749
C:\Users\SOLDER~1\AppData\Local\Temp\ccheWc1y.s:27962  .debug_str:000000000001aa5c .LASF5750
C:\Users\SOLDER~1\AppData\Local\Temp\ccheWc1y.s:21514  .debug_str:00000000000007bd .LASF5751
C:\Users\SOLDER~1\AppData\Local\Temp\ccheWc1y.s:21420  .debug_str:0000000000000135 .LASF5752
C:\Users\SOLDER~1\AppData\Local\Temp\ccheWc1y.s:31138  .debug_str:0000000000027821 .LASF5753
C:\Users\SOLDER~1\AppData\Local\Temp\ccheWc1y.s:30710  .debug_str:0000000000025b85 .LASF5754
C:\Users\SOLDER~1\AppData\Local\Temp\ccheWc1y.s:31066  .debug_str:0000000000027360 .LASF5755
C:\Users\SOLDER~1\AppData\Local\Temp\ccheWc1y.s:22248  .debug_str:000000000000377b .LASF5756
C:\Users\SOLDER~1\AppData\Local\Temp\ccheWc1y.s:23512  .debug_str:0000000000008911 .LASF5757
C:\Users\SOLDER~1\AppData\Local\Temp\ccheWc1y.s:25066  .debug_str:000000000000ef57 .LASF5758
C:\Users\SOLDER~1\AppData\Local\Temp\ccheWc1y.s:27008  .debug_str:0000000000016cff .LASF5759
C:\Users\SOLDER~1\AppData\Local\Temp\ccheWc1y.s:30802  .debug_str:00000000000261ae .LASF5760
C:\Users\SOLDER~1\AppData\Local\Temp\ccheWc1y.s:24076  .debug_str:000000000000ae8e .LASF5761
C:\Users\SOLDER~1\AppData\Local\Temp\ccheWc1y.s:26712  .debug_str:0000000000015a9a .LASF5762
C:\Users\SOLDER~1\AppData\Local\Temp\ccheWc1y.s:33094  .debug_str:000000000002f643 .LASF5763
C:\Users\SOLDER~1\AppData\Local\Temp\ccheWc1y.s:24264  .debug_str:000000000000baab .LASF5764
C:\Users\SOLDER~1\AppData\Local\Temp\ccheWc1y.s:24814  .debug_str:000000000000dec9 .LASF5765
C:\Users\SOLDER~1\AppData\Local\Temp\ccheWc1y.s:26736  .debug_str:0000000000015c02 .LASF5766
C:\Users\SOLDER~1\AppData\Local\Temp\ccheWc1y.s:26738  .debug_str:0000000000015c0c .LASF5767
C:\Users\SOLDER~1\AppData\Local\Temp\ccheWc1y.s:27784  .debug_str:0000000000019f75 .LASF5768
C:\Users\SOLDER~1\AppData\Local\Temp\ccheWc1y.s:24274  .debug_str:000000000000bb2b .LASF5769
C:\Users\SOLDER~1\AppData\Local\Temp\ccheWc1y.s:27786  .debug_str:0000000000019f7b .LASF5770
C:\Users\SOLDER~1\AppData\Local\Temp\ccheWc1y.s:24278  .debug_str:000000000000bb62 .LASF5771
C:\Users\SOLDER~1\AppData\Local\Temp\ccheWc1y.s:27788  .debug_str:0000000000019f81 .LASF5772
C:\Users\SOLDER~1\AppData\Local\Temp\ccheWc1y.s:24282  .debug_str:000000000000bb91 .LASF5773
C:\Users\SOLDER~1\AppData\Local\Temp\ccheWc1y.s:26746  .debug_str:0000000000015c7b .LASF5774
C:\Users\SOLDER~1\AppData\Local\Temp\ccheWc1y.s:30174  .debug_str:00000000000238ab .LASF5775
C:\Users\SOLDER~1\AppData\Local\Temp\ccheWc1y.s:29382  .debug_str:0000000000020621 .LASF5776
C:\Users\SOLDER~1\AppData\Local\Temp\ccheWc1y.s:29770  .debug_str:0000000000021ec4 .LASF5777
C:\Users\SOLDER~1\AppData\Local\Temp\ccheWc1y.s:28412  .debug_str:000000000001c736 .LASF5778
C:\Users\SOLDER~1\AppData\Local\Temp\ccheWc1y.s:32024  .debug_str:000000000002b186 .LASF5779
C:\Users\SOLDER~1\AppData\Local\Temp\ccheWc1y.s:31050  .debug_str:000000000002726b .LASF5780
C:\Users\SOLDER~1\AppData\Local\Temp\ccheWc1y.s:22508  .debug_str:0000000000004802 .LASF5781
C:\Users\SOLDER~1\AppData\Local\Temp\ccheWc1y.s:29546  .debug_str:000000000002109c .LASF5782
C:\Users\SOLDER~1\AppData\Local\Temp\ccheWc1y.s:32938  .debug_str:000000000002ec4f .LASF5783
C:\Users\SOLDER~1\AppData\Local\Temp\ccheWc1y.s:28504  .debug_str:000000000001cd29 .LASF5784
C:\Users\SOLDER~1\AppData\Local\Temp\ccheWc1y.s:24800  .debug_str:000000000000de19 .LASF5785
C:\Users\SOLDER~1\AppData\Local\Temp\ccheWc1y.s:26296  .debug_str:0000000000013ea9 .LASF5786
C:\Users\SOLDER~1\AppData\Local\Temp\ccheWc1y.s:25134  .debug_str:000000000000f387 .LASF5787
C:\Users\SOLDER~1\AppData\Local\Temp\ccheWc1y.s:31982  .debug_str:000000000002aecd .LASF5788
C:\Users\SOLDER~1\AppData\Local\Temp\ccheWc1y.s:29012  .debug_str:000000000001ee27 .LASF5789
C:\Users\SOLDER~1\AppData\Local\Temp\ccheWc1y.s:32234  .debug_str:000000000002beef .LASF5790
C:\Users\SOLDER~1\AppData\Local\Temp\ccheWc1y.s:31526  .debug_str:0000000000029173 .LASF5791
C:\Users\SOLDER~1\AppData\Local\Temp\ccheWc1y.s:22844  .debug_str:0000000000005cf8 .LASF5792
C:\Users\SOLDER~1\AppData\Local\Temp\ccheWc1y.s:23878  .debug_str:000000000000a147 .LASF5793
C:\Users\SOLDER~1\AppData\Local\Temp\ccheWc1y.s:29688  .debug_str:00000000000219b8 .LASF5794
C:\Users\SOLDER~1\AppData\Local\Temp\ccheWc1y.s:21446  .debug_str:00000000000002c7 .LASF5795
C:\Users\SOLDER~1\AppData\Local\Temp\ccheWc1y.s:23446  .debug_str:00000000000084d4 .LASF5796
C:\Users\SOLDER~1\AppData\Local\Temp\ccheWc1y.s:25876  .debug_str:0000000000012326 .LASF5803
C:\Users\SOLDER~1\AppData\Local\Temp\ccheWc1y.s:1879   .text.USART_ClearITPendingBit:0000000000000000 .LFB44
C:\Users\SOLDER~1\AppData\Local\Temp\ccheWc1y.s:1923   .text.USART_ClearITPendingBit:000000000000004c .LFE44
C:\Users\SOLDER~1\AppData\Local\Temp\ccheWc1y.s:32128  .debug_str:000000000002b878 .LASF5797
C:\Users\SOLDER~1\AppData\Local\Temp\ccheWc1y.s:22338  .debug_str:0000000000003d4d .LASF5798
GAS LISTING C:\Users\SOLDER~1\AppData\Local\Temp\ccheWc1y.s 			page 63


C:\Users\SOLDER~1\AppData\Local\Temp\ccheWc1y.s:29348  .debug_str:0000000000020412 .LASF5799
C:\Users\SOLDER~1\AppData\Local\Temp\ccheWc1y.s:25402  .debug_str:0000000000010541 .LASF5800
C:\Users\SOLDER~1\AppData\Local\Temp\ccheWc1y.s:29362  .debug_str:00000000000204dd .LASF5806
C:\Users\SOLDER~1\AppData\Local\Temp\ccheWc1y.s:1744   .text.USART_GetITStatus:0000000000000000 .LFB43
C:\Users\SOLDER~1\AppData\Local\Temp\ccheWc1y.s:1872   .text.USART_GetITStatus:00000000000000fa .LFE43
C:\Users\SOLDER~1\AppData\Local\Temp\ccheWc1y.s:29528  .debug_str:0000000000020f77 .LASF5801
C:\Users\SOLDER~1\AppData\Local\Temp\ccheWc1y.s:26032  .debug_str:0000000000012ce6 .LASF5802
C:\Users\SOLDER~1\AppData\Local\Temp\ccheWc1y.s:28374  .debug_str:000000000001c4be .LASF5804
C:\Users\SOLDER~1\AppData\Local\Temp\ccheWc1y.s:1708   .text.USART_ClearFlag:0000000000000000 .LFB42
C:\Users\SOLDER~1\AppData\Local\Temp\ccheWc1y.s:1737   .text.USART_ClearFlag:000000000000002c .LFE42
C:\Users\SOLDER~1\AppData\Local\Temp\ccheWc1y.s:30432  .debug_str:0000000000024997 .LASF5805
C:\Users\SOLDER~1\AppData\Local\Temp\ccheWc1y.s:28792  .debug_str:000000000001dfc5 .LASF5807
C:\Users\SOLDER~1\AppData\Local\Temp\ccheWc1y.s:1656   .text.USART_GetFlagStatus:0000000000000000 .LFB41
C:\Users\SOLDER~1\AppData\Local\Temp\ccheWc1y.s:1701   .text.USART_GetFlagStatus:0000000000000042 .LFE41
C:\Users\SOLDER~1\AppData\Local\Temp\ccheWc1y.s:25790  .debug_str:0000000000011dd2 .LASF5808
C:\Users\SOLDER~1\AppData\Local\Temp\ccheWc1y.s:1600   .text.USART_IrDACmd:0000000000000000 .LFB40
C:\Users\SOLDER~1\AppData\Local\Temp\ccheWc1y.s:1649   .text.USART_IrDACmd:0000000000000050 .LFE40
C:\Users\SOLDER~1\AppData\Local\Temp\ccheWc1y.s:29002  .debug_str:000000000001ed93 .LASF5809
C:\Users\SOLDER~1\AppData\Local\Temp\ccheWc1y.s:27022  .debug_str:0000000000016de0 .LASF5810
C:\Users\SOLDER~1\AppData\Local\Temp\ccheWc1y.s:1549   .text.USART_IrDAConfig:0000000000000000 .LFB39
C:\Users\SOLDER~1\AppData\Local\Temp\ccheWc1y.s:1593   .text.USART_IrDAConfig:000000000000004c .LFE39
C:\Users\SOLDER~1\AppData\Local\Temp\ccheWc1y.s:26520  .debug_str:0000000000014dfb .LASF5811
C:\Users\SOLDER~1\AppData\Local\Temp\ccheWc1y.s:24514  .debug_str:000000000000cb25 .LASF5812
C:\Users\SOLDER~1\AppData\Local\Temp\ccheWc1y.s:1489   .text.USART_OneBitMethodCmd:0000000000000000 .LFB38
C:\Users\SOLDER~1\AppData\Local\Temp\ccheWc1y.s:1542   .text.USART_OneBitMethodCmd:000000000000005e .LFE38
C:\Users\SOLDER~1\AppData\Local\Temp\ccheWc1y.s:29222  .debug_str:000000000001fc33 .LASF5813
C:\Users\SOLDER~1\AppData\Local\Temp\ccheWc1y.s:1430   .text.USART_OverSampling8Cmd:0000000000000000 .LFB37
C:\Users\SOLDER~1\AppData\Local\Temp\ccheWc1y.s:1482   .text.USART_OverSampling8Cmd:0000000000000058 .LFE37
C:\Users\SOLDER~1\AppData\Local\Temp\ccheWc1y.s:32168  .debug_str:000000000002baad .LASF5814
C:\Users\SOLDER~1\AppData\Local\Temp\ccheWc1y.s:1374   .text.USART_HalfDuplexCmd:0000000000000000 .LFB36
C:\Users\SOLDER~1\AppData\Local\Temp\ccheWc1y.s:1423   .text.USART_HalfDuplexCmd:0000000000000050 .LFE36
C:\Users\SOLDER~1\AppData\Local\Temp\ccheWc1y.s:30874  .debug_str:000000000002669c .LASF5815
C:\Users\SOLDER~1\AppData\Local\Temp\ccheWc1y.s:1318   .text.USART_SmartCardNACKCmd:0000000000000000 .LFB35
C:\Users\SOLDER~1\AppData\Local\Temp\ccheWc1y.s:1367   .text.USART_SmartCardNACKCmd:0000000000000050 .LFE35
C:\Users\SOLDER~1\AppData\Local\Temp\ccheWc1y.s:22718  .debug_str:00000000000054e2 .LASF5816
C:\Users\SOLDER~1\AppData\Local\Temp\ccheWc1y.s:1262   .text.USART_SmartCardCmd:0000000000000000 .LFB34
C:\Users\SOLDER~1\AppData\Local\Temp\ccheWc1y.s:1311   .text.USART_SmartCardCmd:0000000000000052 .LFE34
C:\Users\SOLDER~1\AppData\Local\Temp\ccheWc1y.s:25962  .debug_str:000000000001289e .LASF5817
C:\Users\SOLDER~1\AppData\Local\Temp\ccheWc1y.s:1209   .text.USART_SetPrescaler:0000000000000000 .LFB33
C:\Users\SOLDER~1\AppData\Local\Temp\ccheWc1y.s:1255   .text.USART_SetPrescaler:0000000000000054 .LFE33
C:\Users\SOLDER~1\AppData\Local\Temp\ccheWc1y.s:24808  .debug_str:000000000000de73 .LASF5818
C:\Users\SOLDER~1\AppData\Local\Temp\ccheWc1y.s:30798  .debug_str:0000000000026177 .LASF5819
C:\Users\SOLDER~1\AppData\Local\Temp\ccheWc1y.s:1152   .text.USART_SetGuardTime:0000000000000000 .LFB32
C:\Users\SOLDER~1\AppData\Local\Temp\ccheWc1y.s:1202   .text.USART_SetGuardTime:000000000000005a .LFE32
C:\Users\SOLDER~1\AppData\Local\Temp\ccheWc1y.s:29674  .debug_str:00000000000218f2 .LASF5820
C:\Users\SOLDER~1\AppData\Local\Temp\ccheWc1y.s:30252  .debug_str:0000000000023e00 .LASF5821
C:\Users\SOLDER~1\AppData\Local\Temp\ccheWc1y.s:1115   .text.USART_SendBreak:0000000000000000 .LFB31
C:\Users\SOLDER~1\AppData\Local\Temp\ccheWc1y.s:1145   .text.USART_SendBreak:000000000000002c .LFE31
C:\Users\SOLDER~1\AppData\Local\Temp\ccheWc1y.s:25976  .debug_str:0000000000012958 .LASF5822
C:\Users\SOLDER~1\AppData\Local\Temp\ccheWc1y.s:1080   .text.USART_ReceiveData:0000000000000000 .LFB30
C:\Users\SOLDER~1\AppData\Local\Temp\ccheWc1y.s:1108   .text.USART_ReceiveData:0000000000000024 .LFE30
C:\Users\SOLDER~1\AppData\Local\Temp\ccheWc1y.s:30484  .debug_str:0000000000024cfa .LASF5823
C:\Users\SOLDER~1\AppData\Local\Temp\ccheWc1y.s:1044   .text.USART_SendData:0000000000000000 .LFB29
C:\Users\SOLDER~1\AppData\Local\Temp\ccheWc1y.s:1073   .text.USART_SendData:000000000000002c .LFE29
C:\Users\SOLDER~1\AppData\Local\Temp\ccheWc1y.s:32136  .debug_str:000000000002b8ee .LASF5824
C:\Users\SOLDER~1\AppData\Local\Temp\ccheWc1y.s:28266  .debug_str:000000000001bdb6 .LASF5825
C:\Users\SOLDER~1\AppData\Local\Temp\ccheWc1y.s:985    .text.USART_LINCmd:0000000000000000 .LFB28
GAS LISTING C:\Users\SOLDER~1\AppData\Local\Temp\ccheWc1y.s 			page 64


C:\Users\SOLDER~1\AppData\Local\Temp\ccheWc1y.s:1037   .text.USART_LINCmd:0000000000000058 .LFE28
C:\Users\SOLDER~1\AppData\Local\Temp\ccheWc1y.s:24712  .debug_str:000000000000d867 .LASF5826
C:\Users\SOLDER~1\AppData\Local\Temp\ccheWc1y.s:934    .text.USART_LINBreakDetectLengthConfig:0000000000000000 .LFB27
C:\Users\SOLDER~1\AppData\Local\Temp\ccheWc1y.s:978    .text.USART_LINBreakDetectLengthConfig:000000000000004e .LFE27
C:\Users\SOLDER~1\AppData\Local\Temp\ccheWc1y.s:21418  .debug_str:000000000000011a .LASF5827
C:\Users\SOLDER~1\AppData\Local\Temp\ccheWc1y.s:32534  .debug_str:000000000002d263 .LASF5828
C:\Users\SOLDER~1\AppData\Local\Temp\ccheWc1y.s:878    .text.USART_ReceiverWakeUpCmd:0000000000000000 .LFB26
C:\Users\SOLDER~1\AppData\Local\Temp\ccheWc1y.s:927    .text.USART_ReceiverWakeUpCmd:0000000000000050 .LFE26
C:\Users\SOLDER~1\AppData\Local\Temp\ccheWc1y.s:24316  .debug_str:000000000000bdbc .LASF5829
C:\Users\SOLDER~1\AppData\Local\Temp\ccheWc1y.s:825    .text.USART_WakeUpConfig:0000000000000000 .LFB25
C:\Users\SOLDER~1\AppData\Local\Temp\ccheWc1y.s:871    .text.USART_WakeUpConfig:0000000000000054 .LFE25
C:\Users\SOLDER~1\AppData\Local\Temp\ccheWc1y.s:21400  .debug_str:0000000000000000 .LASF5830
C:\Users\SOLDER~1\AppData\Local\Temp\ccheWc1y.s:26220  .debug_str:0000000000013969 .LASF5831
C:\Users\SOLDER~1\AppData\Local\Temp\ccheWc1y.s:772    .text.USART_SetAddress:0000000000000000 .LFB24
C:\Users\SOLDER~1\AppData\Local\Temp\ccheWc1y.s:818    .text.USART_SetAddress:0000000000000052 .LFE24
C:\Users\SOLDER~1\AppData\Local\Temp\ccheWc1y.s:27526  .debug_str:0000000000018eb1 .LASF5832
C:\Users\SOLDER~1\AppData\Local\Temp\ccheWc1y.s:25698  .debug_str:0000000000011807 .LASF5833
C:\Users\SOLDER~1\AppData\Local\Temp\ccheWc1y.s:708    .text.USART_DMACmd:0000000000000000 .LFB23
C:\Users\SOLDER~1\AppData\Local\Temp\ccheWc1y.s:765    .text.USART_DMACmd:0000000000000066 .LFE23
C:\Users\SOLDER~1\AppData\Local\Temp\ccheWc1y.s:27542  .debug_str:0000000000018fbf .LASF5834
C:\Users\SOLDER~1\AppData\Local\Temp\ccheWc1y.s:28348  .debug_str:000000000001c2fb .LASF5835
C:\Users\SOLDER~1\AppData\Local\Temp\ccheWc1y.s:599    .text.USART_ITConfig:0000000000000000 .LFB22
C:\Users\SOLDER~1\AppData\Local\Temp\ccheWc1y.s:701    .text.USART_ITConfig:00000000000000c4 .LFE22
C:\Users\SOLDER~1\AppData\Local\Temp\ccheWc1y.s:25724  .debug_str:00000000000119c1 .LASF5836
C:\Users\SOLDER~1\AppData\Local\Temp\ccheWc1y.s:32756  .debug_str:000000000002e0ed .LASF5837
C:\Users\SOLDER~1\AppData\Local\Temp\ccheWc1y.s:30074  .debug_str:000000000002325f .LASF5838
C:\Users\SOLDER~1\AppData\Local\Temp\ccheWc1y.s:540    .text.USART_Cmd:0000000000000000 .LFB21
C:\Users\SOLDER~1\AppData\Local\Temp\ccheWc1y.s:592    .text.USART_Cmd:0000000000000058 .LFE21
C:\Users\SOLDER~1\AppData\Local\Temp\ccheWc1y.s:27312  .debug_str:00000000000180ae .LASF5839
C:\Users\SOLDER~1\AppData\Local\Temp\ccheWc1y.s:502    .text.USART_ClockStructInit:0000000000000000 .LFB20
C:\Users\SOLDER~1\AppData\Local\Temp\ccheWc1y.s:533    .text.USART_ClockStructInit:0000000000000032 .LFE20
C:\Users\SOLDER~1\AppData\Local\Temp\ccheWc1y.s:21926  .debug_str:00000000000022f1 .LASF5840
C:\Users\SOLDER~1\AppData\Local\Temp\ccheWc1y.s:28526  .debug_str:000000000001ce91 .LASF5841
C:\Users\SOLDER~1\AppData\Local\Temp\ccheWc1y.s:424    .text.USART_ClockInit:0000000000000000 .LFB19
C:\Users\SOLDER~1\AppData\Local\Temp\ccheWc1y.s:495    .text.USART_ClockInit:0000000000000082 .LFE19
C:\Users\SOLDER~1\AppData\Local\Temp\ccheWc1y.s:22060  .debug_str:0000000000002bae .LASF5842
C:\Users\SOLDER~1\AppData\Local\Temp\ccheWc1y.s:22068  .debug_str:0000000000002bff .LASF5843
C:\Users\SOLDER~1\AppData\Local\Temp\ccheWc1y.s:377    .text.USART_StructInit:0000000000000000 .LFB18
C:\Users\SOLDER~1\AppData\Local\Temp\ccheWc1y.s:417    .text.USART_StructInit:0000000000000046 .LFE18
C:\Users\SOLDER~1\AppData\Local\Temp\ccheWc1y.s:28444  .debug_str:000000000001c940 .LASF5844
C:\Users\SOLDER~1\AppData\Local\Temp\ccheWc1y.s:31874  .debug_str:000000000002a823 .LASF5845
C:\Users\SOLDER~1\AppData\Local\Temp\ccheWc1y.s:108    .text.USART_Init:0000000000000000 .LFB17
C:\Users\SOLDER~1\AppData\Local\Temp\ccheWc1y.s:370    .text.USART_Init:000000000000021c .LFE17
C:\Users\SOLDER~1\AppData\Local\Temp\ccheWc1y.s:21956  .debug_str:00000000000024f6 .LASF5846
C:\Users\SOLDER~1\AppData\Local\Temp\ccheWc1y.s:30136  .debug_str:0000000000023638 .LASF5847
C:\Users\SOLDER~1\AppData\Local\Temp\ccheWc1y.s:32872  .debug_str:000000000002e84c .LASF5848
C:\Users\SOLDER~1\AppData\Local\Temp\ccheWc1y.s:27464  .debug_str:0000000000018a9f .LASF5849
C:\Users\SOLDER~1\AppData\Local\Temp\ccheWc1y.s:25462  .debug_str:0000000000010912 .LASF5851
C:\Users\SOLDER~1\AppData\Local\Temp\ccheWc1y.s:15     .text.USART_DeInit:0000000000000000 .LFB16
C:\Users\SOLDER~1\AppData\Local\Temp\ccheWc1y.s:101    .text.USART_DeInit:00000000000000c8 .LFE16
C:\Users\SOLDER~1\AppData\Local\Temp\ccheWc1y.s:1934   .debug_info:0000000000000000 .Ldebug_info0
C:\Users\SOLDER~1\AppData\Local\Temp\ccheWc1y.s:4125   .debug_macro:0000000000000000 .Ldebug_macro2
C:\Users\SOLDER~1\AppData\Local\Temp\ccheWc1y.s:32880  .debug_str:000000000002e8b3 .LASF318
C:\Users\SOLDER~1\AppData\Local\Temp\ccheWc1y.s:5078   .debug_macro:0000000000000000 .Ldebug_macro3
C:\Users\SOLDER~1\AppData\Local\Temp\ccheWc1y.s:27862  .debug_str:000000000001a409 .LASF336
C:\Users\SOLDER~1\AppData\Local\Temp\ccheWc1y.s:22458  .debug_str:00000000000044d6 .LASF337
C:\Users\SOLDER~1\AppData\Local\Temp\ccheWc1y.s:29868  .debug_str:000000000002250e .LASF338
GAS LISTING C:\Users\SOLDER~1\AppData\Local\Temp\ccheWc1y.s 			page 65


C:\Users\SOLDER~1\AppData\Local\Temp\ccheWc1y.s:5134   .debug_macro:0000000000000000 .Ldebug_macro4
C:\Users\SOLDER~1\AppData\Local\Temp\ccheWc1y.s:5154   .debug_macro:0000000000000000 .Ldebug_macro5
C:\Users\SOLDER~1\AppData\Local\Temp\ccheWc1y.s:5219   .debug_macro:0000000000000000 .Ldebug_macro6
C:\Users\SOLDER~1\AppData\Local\Temp\ccheWc1y.s:5260   .debug_macro:0000000000000000 .Ldebug_macro7
C:\Users\SOLDER~1\AppData\Local\Temp\ccheWc1y.s:5385   .debug_macro:0000000000000000 .Ldebug_macro8
C:\Users\SOLDER~1\AppData\Local\Temp\ccheWc1y.s:5441   .debug_macro:0000000000000000 .Ldebug_macro9
C:\Users\SOLDER~1\AppData\Local\Temp\ccheWc1y.s:21778  .debug_str:00000000000018f8 .LASF493
C:\Users\SOLDER~1\AppData\Local\Temp\ccheWc1y.s:5653   .debug_macro:0000000000000000 .Ldebug_macro10
C:\Users\SOLDER~1\AppData\Local\Temp\ccheWc1y.s:5691   .debug_macro:0000000000000000 .Ldebug_macro11
C:\Users\SOLDER~1\AppData\Local\Temp\ccheWc1y.s:22046  .debug_str:0000000000002ad3 .LASF4592
C:\Users\SOLDER~1\AppData\Local\Temp\ccheWc1y.s:30672  .debug_str:000000000002591e .LASF4593
C:\Users\SOLDER~1\AppData\Local\Temp\ccheWc1y.s:17957  .debug_macro:0000000000000000 .Ldebug_macro12
C:\Users\SOLDER~1\AppData\Local\Temp\ccheWc1y.s:18238  .debug_macro:0000000000000000 .Ldebug_macro13
C:\Users\SOLDER~1\AppData\Local\Temp\ccheWc1y.s:18390  .debug_macro:0000000000000000 .Ldebug_macro14
C:\Users\SOLDER~1\AppData\Local\Temp\ccheWc1y.s:27000  .debug_str:0000000000016c71 .LASF4851
C:\Users\SOLDER~1\AppData\Local\Temp\ccheWc1y.s:18743  .debug_macro:0000000000000000 .Ldebug_macro15
C:\Users\SOLDER~1\AppData\Local\Temp\ccheWc1y.s:18808  .debug_macro:0000000000000000 .Ldebug_macro16
C:\Users\SOLDER~1\AppData\Local\Temp\ccheWc1y.s:19077  .debug_macro:0000000000000000 .Ldebug_macro17
C:\Users\SOLDER~1\AppData\Local\Temp\ccheWc1y.s:19148  .debug_macro:0000000000000000 .Ldebug_macro18
C:\Users\SOLDER~1\AppData\Local\Temp\ccheWc1y.s:19312  .debug_macro:0000000000000000 .Ldebug_macro19
C:\Users\SOLDER~1\AppData\Local\Temp\ccheWc1y.s:19584  .debug_macro:0000000000000000 .Ldebug_macro20
C:\Users\SOLDER~1\AppData\Local\Temp\ccheWc1y.s:19835  .debug_macro:0000000000000000 .Ldebug_macro21
C:\Users\SOLDER~1\AppData\Local\Temp\ccheWc1y.s:19876  .debug_macro:0000000000000000 .Ldebug_macro22
C:\Users\SOLDER~1\AppData\Local\Temp\ccheWc1y.s:19929  .debug_macro:0000000000000000 .Ldebug_macro23
C:\Users\SOLDER~1\AppData\Local\Temp\ccheWc1y.s:20330  .debug_macro:0000000000000000 .Ldebug_macro24
C:\Users\SOLDER~1\AppData\Local\Temp\ccheWc1y.s:20362  .debug_macro:0000000000000000 .Ldebug_macro25
C:\Users\SOLDER~1\AppData\Local\Temp\ccheWc1y.s:20592  .debug_macro:0000000000000000 .Ldebug_macro26
C:\Users\SOLDER~1\AppData\Local\Temp\ccheWc1y.s:21188  .debug_macro:0000000000000000 .Ldebug_macro27
C:\Users\SOLDER~1\AppData\Local\Temp\ccheWc1y.s:21208  .debug_macro:0000000000000000 .Ldebug_macro28
C:\Users\SOLDER~1\AppData\Local\Temp\ccheWc1y.s:21231  .debug_macro:0000000000000000 .Ldebug_macro29
C:\Users\SOLDER~1\AppData\Local\Temp\ccheWc1y.s:22678  .debug_str:0000000000005281 .LASF5712
C:\Users\SOLDER~1\AppData\Local\Temp\ccheWc1y.s:24120  .debug_str:000000000000b166 .LASF5713
C:\Users\SOLDER~1\AppData\Local\Temp\ccheWc1y.s:28316  .debug_str:000000000001c0ed .LASF5714
C:\Users\SOLDER~1\AppData\Local\Temp\ccheWc1y.s:23706  .debug_str:000000000000960e .LASF5715
C:\Users\SOLDER~1\AppData\Local\Temp\ccheWc1y.s:22160  .debug_str:00000000000031d0 .LASF5716
C:\Users\SOLDER~1\AppData\Local\Temp\ccheWc1y.s:21760  .debug_str:0000000000001816 .LASF5717
C:\Users\SOLDER~1\AppData\Local\Temp\ccheWc1y.s:27138  .debug_str:0000000000017514 .LASF5718
C:\Users\SOLDER~1\AppData\Local\Temp\ccheWc1y.s:32090  .debug_str:000000000002b596 .LASF5719
C:\Users\SOLDER~1\AppData\Local\Temp\ccheWc1y.s:22940  .debug_str:000000000000637f .LASF5720
C:\Users\SOLDER~1\AppData\Local\Temp\ccheWc1y.s:23770  .debug_str:0000000000009a1b .LASF5721
C:\Users\SOLDER~1\AppData\Local\Temp\ccheWc1y.s:23282  .debug_str:00000000000079c4 .LASF5722
C:\Users\SOLDER~1\AppData\Local\Temp\ccheWc1y.s:32514  .debug_str:000000000002d11f .LASF5723
C:\Users\SOLDER~1\AppData\Local\Temp\ccheWc1y.s:30032  .debug_str:0000000000022f78 .LASF5724
C:\Users\SOLDER~1\AppData\Local\Temp\ccheWc1y.s:27754  .debug_str:0000000000019d9c .LASF5725
C:\Users\SOLDER~1\AppData\Local\Temp\ccheWc1y.s:22476  .debug_str:00000000000045ee .LASF5726
C:\Users\SOLDER~1\AppData\Local\Temp\ccheWc1y.s:26820  .debug_str:0000000000016116 .LASF5727
C:\Users\SOLDER~1\AppData\Local\Temp\ccheWc1y.s:29300  .debug_str:0000000000020115 .LASF5728
C:\Users\SOLDER~1\AppData\Local\Temp\ccheWc1y.s:22250  .debug_str:0000000000003784 .LASF5729
C:\Users\SOLDER~1\AppData\Local\Temp\ccheWc1y.s:32762  .debug_str:000000000002e12e .LASF5730
C:\Users\SOLDER~1\AppData\Local\Temp\ccheWc1y.s:32776  .debug_str:000000000002e22d .LASF5731
C:\Users\SOLDER~1\AppData\Local\Temp\ccheWc1y.s:29404  .debug_str:0000000000020768 .LASF5732
C:\Users\SOLDER~1\AppData\Local\Temp\ccheWc1y.s:22396  .debug_str:00000000000040e2 .LASF5733
C:\Users\SOLDER~1\AppData\Local\Temp\ccheWc1y.s:27436  .debug_str:00000000000188ec .LASF5734
C:\Users\SOLDER~1\AppData\Local\Temp\ccheWc1y.s:24528  .debug_str:000000000000cc06 .LASF5735
C:\Users\SOLDER~1\AppData\Local\Temp\ccheWc1y.s:29230  .debug_str:000000000001fcb5 .LASF5736
C:\Users\SOLDER~1\AppData\Local\Temp\ccheWc1y.s:31356  .debug_str:0000000000028667 .LASF5737
C:\Users\SOLDER~1\AppData\Local\Temp\ccheWc1y.s:27804  .debug_str:000000000001a078 .LASF5738
GAS LISTING C:\Users\SOLDER~1\AppData\Local\Temp\ccheWc1y.s 			page 66


C:\Users\SOLDER~1\AppData\Local\Temp\ccheWc1y.s:32650  .debug_str:000000000002da49 .LASF5739
C:\Users\SOLDER~1\AppData\Local\Temp\ccheWc1y.s:28970  .debug_str:000000000001eb4f .LASF5740
C:\Users\SOLDER~1\AppData\Local\Temp\ccheWc1y.s:26794  .debug_str:0000000000015f83 .LASF5741
C:\Users\SOLDER~1\AppData\Local\Temp\ccheWc1y.s:22836  .debug_str:0000000000005c9e .LASF2
C:\Users\SOLDER~1\AppData\Local\Temp\ccheWc1y.s:31828  .debug_str:000000000002a4ea .LASF3
C:\Users\SOLDER~1\AppData\Local\Temp\ccheWc1y.s:32208  .debug_str:000000000002bd60 .LASF4
C:\Users\SOLDER~1\AppData\Local\Temp\ccheWc1y.s:25622  .debug_str:0000000000011334 .LASF5
C:\Users\SOLDER~1\AppData\Local\Temp\ccheWc1y.s:26978  .debug_str:0000000000016b27 .LASF6
C:\Users\SOLDER~1\AppData\Local\Temp\ccheWc1y.s:32628  .debug_str:000000000002d8dc .LASF7
C:\Users\SOLDER~1\AppData\Local\Temp\ccheWc1y.s:25680  .debug_str:00000000000116dc .LASF8
C:\Users\SOLDER~1\AppData\Local\Temp\ccheWc1y.s:26428  .debug_str:00000000000147fd .LASF9
C:\Users\SOLDER~1\AppData\Local\Temp\ccheWc1y.s:23578  .debug_str:0000000000008d55 .LASF10
C:\Users\SOLDER~1\AppData\Local\Temp\ccheWc1y.s:28718  .debug_str:000000000001db65 .LASF11
C:\Users\SOLDER~1\AppData\Local\Temp\ccheWc1y.s:28050  .debug_str:000000000001b017 .LASF12
C:\Users\SOLDER~1\AppData\Local\Temp\ccheWc1y.s:27908  .debug_str:000000000001a6f6 .LASF13
C:\Users\SOLDER~1\AppData\Local\Temp\ccheWc1y.s:30480  .debug_str:0000000000024cc3 .LASF14
C:\Users\SOLDER~1\AppData\Local\Temp\ccheWc1y.s:27928  .debug_str:000000000001a82b .LASF15
C:\Users\SOLDER~1\AppData\Local\Temp\ccheWc1y.s:24080  .debug_str:000000000000aebe .LASF16
C:\Users\SOLDER~1\AppData\Local\Temp\ccheWc1y.s:29360  .debug_str:00000000000204c6 .LASF17
C:\Users\SOLDER~1\AppData\Local\Temp\ccheWc1y.s:30086  .debug_str:0000000000023319 .LASF18
C:\Users\SOLDER~1\AppData\Local\Temp\ccheWc1y.s:24126  .debug_str:000000000000b1d1 .LASF19
C:\Users\SOLDER~1\AppData\Local\Temp\ccheWc1y.s:22998  .debug_str:0000000000006754 .LASF20
C:\Users\SOLDER~1\AppData\Local\Temp\ccheWc1y.s:25148  .debug_str:000000000000f459 .LASF21
C:\Users\SOLDER~1\AppData\Local\Temp\ccheWc1y.s:30952  .debug_str:0000000000026bd7 .LASF22
C:\Users\SOLDER~1\AppData\Local\Temp\ccheWc1y.s:27734  .debug_str:0000000000019cb0 .LASF23
C:\Users\SOLDER~1\AppData\Local\Temp\ccheWc1y.s:27732  .debug_str:0000000000019c96 .LASF24
C:\Users\SOLDER~1\AppData\Local\Temp\ccheWc1y.s:30400  .debug_str:000000000002477b .LASF25
C:\Users\SOLDER~1\AppData\Local\Temp\ccheWc1y.s:31064  .debug_str:0000000000027351 .LASF26
C:\Users\SOLDER~1\AppData\Local\Temp\ccheWc1y.s:22348  .debug_str:0000000000003de1 .LASF27
C:\Users\SOLDER~1\AppData\Local\Temp\ccheWc1y.s:27126  .debug_str:0000000000017449 .LASF28
C:\Users\SOLDER~1\AppData\Local\Temp\ccheWc1y.s:30294  .debug_str:000000000002406b .LASF29
C:\Users\SOLDER~1\AppData\Local\Temp\ccheWc1y.s:30096  .debug_str:00000000000233c1 .LASF30
C:\Users\SOLDER~1\AppData\Local\Temp\ccheWc1y.s:22778  .debug_str:000000000000588a .LASF31
C:\Users\SOLDER~1\AppData\Local\Temp\ccheWc1y.s:29126  .debug_str:000000000001f57e .LASF32
C:\Users\SOLDER~1\AppData\Local\Temp\ccheWc1y.s:21734  .debug_str:0000000000001651 .LASF33
C:\Users\SOLDER~1\AppData\Local\Temp\ccheWc1y.s:25852  .debug_str:00000000000121ce .LASF34
C:\Users\SOLDER~1\AppData\Local\Temp\ccheWc1y.s:26788  .debug_str:0000000000015f32 .LASF35
C:\Users\SOLDER~1\AppData\Local\Temp\ccheWc1y.s:24898  .debug_str:000000000000e429 .LASF36
C:\Users\SOLDER~1\AppData\Local\Temp\ccheWc1y.s:23950  .debug_str:000000000000a612 .LASF37
C:\Users\SOLDER~1\AppData\Local\Temp\ccheWc1y.s:23800  .debug_str:0000000000009c2b .LASF38
C:\Users\SOLDER~1\AppData\Local\Temp\ccheWc1y.s:25172  .debug_str:000000000000f5cc .LASF39
C:\Users\SOLDER~1\AppData\Local\Temp\ccheWc1y.s:28156  .debug_str:000000000001b6f6 .LASF40
C:\Users\SOLDER~1\AppData\Local\Temp\ccheWc1y.s:23326  .debug_str:0000000000007cb4 .LASF41
C:\Users\SOLDER~1\AppData\Local\Temp\ccheWc1y.s:25558  .debug_str:0000000000010f29 .LASF42
C:\Users\SOLDER~1\AppData\Local\Temp\ccheWc1y.s:31366  .debug_str:0000000000028715 .LASF43
C:\Users\SOLDER~1\AppData\Local\Temp\ccheWc1y.s:22102  .debug_str:0000000000002e2b .LASF44
C:\Users\SOLDER~1\AppData\Local\Temp\ccheWc1y.s:25242  .debug_str:000000000000fa55 .LASF45
C:\Users\SOLDER~1\AppData\Local\Temp\ccheWc1y.s:26160  .debug_str:0000000000013565 .LASF46
C:\Users\SOLDER~1\AppData\Local\Temp\ccheWc1y.s:30678  .debug_str:0000000000025988 .LASF47
C:\Users\SOLDER~1\AppData\Local\Temp\ccheWc1y.s:28146  .debug_str:000000000001b64b .LASF48
C:\Users\SOLDER~1\AppData\Local\Temp\ccheWc1y.s:26012  .debug_str:0000000000012bd8 .LASF49
C:\Users\SOLDER~1\AppData\Local\Temp\ccheWc1y.s:22606  .debug_str:0000000000004e24 .LASF50
C:\Users\SOLDER~1\AppData\Local\Temp\ccheWc1y.s:26162  .debug_str:000000000001357e .LASF51
C:\Users\SOLDER~1\AppData\Local\Temp\ccheWc1y.s:30858  .debug_str:000000000002658d .LASF52
C:\Users\SOLDER~1\AppData\Local\Temp\ccheWc1y.s:24896  .debug_str:000000000000e409 .LASF53
C:\Users\SOLDER~1\AppData\Local\Temp\ccheWc1y.s:21944  .debug_str:0000000000002423 .LASF54
C:\Users\SOLDER~1\AppData\Local\Temp\ccheWc1y.s:21428  .debug_str:000000000000019a .LASF55
GAS LISTING C:\Users\SOLDER~1\AppData\Local\Temp\ccheWc1y.s 			page 67


C:\Users\SOLDER~1\AppData\Local\Temp\ccheWc1y.s:32250  .debug_str:000000000002bff6 .LASF56
C:\Users\SOLDER~1\AppData\Local\Temp\ccheWc1y.s:30270  .debug_str:0000000000023f0e .LASF57
C:\Users\SOLDER~1\AppData\Local\Temp\ccheWc1y.s:21516  .debug_str:00000000000007cf .LASF58
C:\Users\SOLDER~1\AppData\Local\Temp\ccheWc1y.s:25522  .debug_str:0000000000010cad .LASF59
C:\Users\SOLDER~1\AppData\Local\Temp\ccheWc1y.s:23410  .debug_str:0000000000008266 .LASF60
C:\Users\SOLDER~1\AppData\Local\Temp\ccheWc1y.s:29924  .debug_str:0000000000022843 .LASF61
C:\Users\SOLDER~1\AppData\Local\Temp\ccheWc1y.s:21686  .debug_str:0000000000001330 .LASF62
C:\Users\SOLDER~1\AppData\Local\Temp\ccheWc1y.s:24780  .debug_str:000000000000dcd4 .LASF63
C:\Users\SOLDER~1\AppData\Local\Temp\ccheWc1y.s:27700  .debug_str:0000000000019a2f .LASF64
C:\Users\SOLDER~1\AppData\Local\Temp\ccheWc1y.s:28524  .debug_str:000000000001ce70 .LASF65
C:\Users\SOLDER~1\AppData\Local\Temp\ccheWc1y.s:22184  .debug_str:000000000000334e .LASF66
C:\Users\SOLDER~1\AppData\Local\Temp\ccheWc1y.s:24886  .debug_str:000000000000e366 .LASF67
C:\Users\SOLDER~1\AppData\Local\Temp\ccheWc1y.s:24612  .debug_str:000000000000d1da .LASF68
C:\Users\SOLDER~1\AppData\Local\Temp\ccheWc1y.s:28136  .debug_str:000000000001b5c3 .LASF69
C:\Users\SOLDER~1\AppData\Local\Temp\ccheWc1y.s:26784  .debug_str:0000000000015eeb .LASF70
C:\Users\SOLDER~1\AppData\Local\Temp\ccheWc1y.s:32006  .debug_str:000000000002b046 .LASF71
C:\Users\SOLDER~1\AppData\Local\Temp\ccheWc1y.s:32474  .debug_str:000000000002ce9e .LASF72
C:\Users\SOLDER~1\AppData\Local\Temp\ccheWc1y.s:25970  .debug_str:000000000001290f .LASF73
C:\Users\SOLDER~1\AppData\Local\Temp\ccheWc1y.s:25058  .debug_str:000000000000eef2 .LASF74
C:\Users\SOLDER~1\AppData\Local\Temp\ccheWc1y.s:22624  .debug_str:0000000000004f39 .LASF75
C:\Users\SOLDER~1\AppData\Local\Temp\ccheWc1y.s:26002  .debug_str:0000000000012b3e .LASF76
C:\Users\SOLDER~1\AppData\Local\Temp\ccheWc1y.s:24522  .debug_str:000000000000cba2 .LASF77
C:\Users\SOLDER~1\AppData\Local\Temp\ccheWc1y.s:26252  .debug_str:0000000000013b8a .LASF78
C:\Users\SOLDER~1\AppData\Local\Temp\ccheWc1y.s:26790  .debug_str:0000000000015f60 .LASF79
C:\Users\SOLDER~1\AppData\Local\Temp\ccheWc1y.s:26192  .debug_str:0000000000013792 .LASF80
C:\Users\SOLDER~1\AppData\Local\Temp\ccheWc1y.s:30766  .debug_str:0000000000025f60 .LASF81
C:\Users\SOLDER~1\AppData\Local\Temp\ccheWc1y.s:28650  .debug_str:000000000001d6eb .LASF82
C:\Users\SOLDER~1\AppData\Local\Temp\ccheWc1y.s:29088  .debug_str:000000000001f32a .LASF83
C:\Users\SOLDER~1\AppData\Local\Temp\ccheWc1y.s:31990  .debug_str:000000000002af35 .LASF84
C:\Users\SOLDER~1\AppData\Local\Temp\ccheWc1y.s:23898  .debug_str:000000000000a290 .LASF85
C:\Users\SOLDER~1\AppData\Local\Temp\ccheWc1y.s:27822  .debug_str:000000000001a1a6 .LASF86
C:\Users\SOLDER~1\AppData\Local\Temp\ccheWc1y.s:26004  .debug_str:0000000000012b65 .LASF87
C:\Users\SOLDER~1\AppData\Local\Temp\ccheWc1y.s:28162  .debug_str:000000000001b756 .LASF88
C:\Users\SOLDER~1\AppData\Local\Temp\ccheWc1y.s:23140  .debug_str:0000000000007105 .LASF89
C:\Users\SOLDER~1\AppData\Local\Temp\ccheWc1y.s:28328  .debug_str:000000000001c19c .LASF90
C:\Users\SOLDER~1\AppData\Local\Temp\ccheWc1y.s:32164  .debug_str:000000000002ba7a .LASF91
C:\Users\SOLDER~1\AppData\Local\Temp\ccheWc1y.s:29532  .debug_str:0000000000020fa6 .LASF92
C:\Users\SOLDER~1\AppData\Local\Temp\ccheWc1y.s:28236  .debug_str:000000000001bbf9 .LASF93
C:\Users\SOLDER~1\AppData\Local\Temp\ccheWc1y.s:29558  .debug_str:0000000000021150 .LASF94
C:\Users\SOLDER~1\AppData\Local\Temp\ccheWc1y.s:32384  .debug_str:000000000002c8f9 .LASF95
C:\Users\SOLDER~1\AppData\Local\Temp\ccheWc1y.s:31168  .debug_str:0000000000027a31 .LASF96
C:\Users\SOLDER~1\AppData\Local\Temp\ccheWc1y.s:23986  .debug_str:000000000000a87f .LASF97
C:\Users\SOLDER~1\AppData\Local\Temp\ccheWc1y.s:30394  .debug_str:0000000000024700 .LASF98
C:\Users\SOLDER~1\AppData\Local\Temp\ccheWc1y.s:26492  .debug_str:0000000000014c47 .LASF99
C:\Users\SOLDER~1\AppData\Local\Temp\ccheWc1y.s:26474  .debug_str:0000000000014b15 .LASF100
C:\Users\SOLDER~1\AppData\Local\Temp\ccheWc1y.s:32668  .debug_str:000000000002db6a .LASF101
C:\Users\SOLDER~1\AppData\Local\Temp\ccheWc1y.s:26096  .debug_str:0000000000013141 .LASF102
C:\Users\SOLDER~1\AppData\Local\Temp\ccheWc1y.s:30108  .debug_str:0000000000023476 .LASF103
C:\Users\SOLDER~1\AppData\Local\Temp\ccheWc1y.s:28714  .debug_str:000000000001db31 .LASF104
C:\Users\SOLDER~1\AppData\Local\Temp\ccheWc1y.s:25576  .debug_str:000000000001103c .LASF105
C:\Users\SOLDER~1\AppData\Local\Temp\ccheWc1y.s:23236  .debug_str:0000000000007710 .LASF106
C:\Users\SOLDER~1\AppData\Local\Temp\ccheWc1y.s:25846  .debug_str:0000000000012159 .LASF107
C:\Users\SOLDER~1\AppData\Local\Temp\ccheWc1y.s:24806  .debug_str:000000000000de5b .LASF108
C:\Users\SOLDER~1\AppData\Local\Temp\ccheWc1y.s:26022  .debug_str:0000000000012c7c .LASF109
C:\Users\SOLDER~1\AppData\Local\Temp\ccheWc1y.s:22656  .debug_str:0000000000005117 .LASF110
C:\Users\SOLDER~1\AppData\Local\Temp\ccheWc1y.s:25840  .debug_str:0000000000012103 .LASF111
C:\Users\SOLDER~1\AppData\Local\Temp\ccheWc1y.s:24802  .debug_str:000000000000de26 .LASF112
GAS LISTING C:\Users\SOLDER~1\AppData\Local\Temp\ccheWc1y.s 			page 68


C:\Users\SOLDER~1\AppData\Local\Temp\ccheWc1y.s:26310  .debug_str:0000000000013fbc .LASF113
C:\Users\SOLDER~1\AppData\Local\Temp\ccheWc1y.s:25200  .debug_str:000000000000f79e .LASF114
C:\Users\SOLDER~1\AppData\Local\Temp\ccheWc1y.s:27762  .debug_str:0000000000019e1c .LASF115
C:\Users\SOLDER~1\AppData\Local\Temp\ccheWc1y.s:24260  .debug_str:000000000000ba6d .LASF116
C:\Users\SOLDER~1\AppData\Local\Temp\ccheWc1y.s:23980  .debug_str:000000000000a7f8 .LASF117
C:\Users\SOLDER~1\AppData\Local\Temp\ccheWc1y.s:25374  .debug_str:0000000000010386 .LASF118
C:\Users\SOLDER~1\AppData\Local\Temp\ccheWc1y.s:32044  .debug_str:000000000002b2cd .LASF119
C:\Users\SOLDER~1\AppData\Local\Temp\ccheWc1y.s:27318  .debug_str:0000000000018111 .LASF120
C:\Users\SOLDER~1\AppData\Local\Temp\ccheWc1y.s:23738  .debug_str:0000000000009817 .LASF121
C:\Users\SOLDER~1\AppData\Local\Temp\ccheWc1y.s:28502  .debug_str:000000000001cd0d .LASF122
C:\Users\SOLDER~1\AppData\Local\Temp\ccheWc1y.s:32808  .debug_str:000000000002e460 .LASF123
C:\Users\SOLDER~1\AppData\Local\Temp\ccheWc1y.s:25114  .debug_str:000000000000f22f .LASF124
C:\Users\SOLDER~1\AppData\Local\Temp\ccheWc1y.s:30752  .debug_str:0000000000025e4a .LASF125
C:\Users\SOLDER~1\AppData\Local\Temp\ccheWc1y.s:24578  .debug_str:000000000000cf9c .LASF126
C:\Users\SOLDER~1\AppData\Local\Temp\ccheWc1y.s:24680  .debug_str:000000000000d645 .LASF127
C:\Users\SOLDER~1\AppData\Local\Temp\ccheWc1y.s:22284  .debug_str:00000000000039d6 .LASF128
C:\Users\SOLDER~1\AppData\Local\Temp\ccheWc1y.s:22576  .debug_str:0000000000004c50 .LASF129
C:\Users\SOLDER~1\AppData\Local\Temp\ccheWc1y.s:31728  .debug_str:0000000000029e64 .LASF130
C:\Users\SOLDER~1\AppData\Local\Temp\ccheWc1y.s:26026  .debug_str:0000000000012c94 .LASF131
C:\Users\SOLDER~1\AppData\Local\Temp\ccheWc1y.s:28910  .debug_str:000000000001e76c .LASF132
C:\Users\SOLDER~1\AppData\Local\Temp\ccheWc1y.s:23810  .debug_str:0000000000009cc6 .LASF133
C:\Users\SOLDER~1\AppData\Local\Temp\ccheWc1y.s:31270  .debug_str:000000000002808e .LASF134
C:\Users\SOLDER~1\AppData\Local\Temp\ccheWc1y.s:31596  .debug_str:00000000000295a7 .LASF135
C:\Users\SOLDER~1\AppData\Local\Temp\ccheWc1y.s:31398  .debug_str:0000000000028916 .LASF136
C:\Users\SOLDER~1\AppData\Local\Temp\ccheWc1y.s:25090  .debug_str:000000000000f0a6 .LASF137
C:\Users\SOLDER~1\AppData\Local\Temp\ccheWc1y.s:30666  .debug_str:00000000000258bc .LASF138
C:\Users\SOLDER~1\AppData\Local\Temp\ccheWc1y.s:22562  .debug_str:0000000000004b43 .LASF139
C:\Users\SOLDER~1\AppData\Local\Temp\ccheWc1y.s:23454  .debug_str:0000000000008561 .LASF140
C:\Users\SOLDER~1\AppData\Local\Temp\ccheWc1y.s:32466  .debug_str:000000000002ce1a .LASF141
C:\Users\SOLDER~1\AppData\Local\Temp\ccheWc1y.s:28396  .debug_str:000000000001c606 .LASF142
C:\Users\SOLDER~1\AppData\Local\Temp\ccheWc1y.s:31934  .debug_str:000000000002ac06 .LASF143
C:\Users\SOLDER~1\AppData\Local\Temp\ccheWc1y.s:31040  .debug_str:00000000000271c6 .LASF144
C:\Users\SOLDER~1\AppData\Local\Temp\ccheWc1y.s:28598  .debug_str:000000000001d388 .LASF145
C:\Users\SOLDER~1\AppData\Local\Temp\ccheWc1y.s:23936  .debug_str:000000000000a512 .LASF146
C:\Users\SOLDER~1\AppData\Local\Temp\ccheWc1y.s:26246  .debug_str:0000000000013b30 .LASF147
C:\Users\SOLDER~1\AppData\Local\Temp\ccheWc1y.s:27750  .debug_str:0000000000019d78 .LASF148
C:\Users\SOLDER~1\AppData\Local\Temp\ccheWc1y.s:26800  .debug_str:0000000000015fdf .LASF149
C:\Users\SOLDER~1\AppData\Local\Temp\ccheWc1y.s:24640  .debug_str:000000000000d396 .LASF150
C:\Users\SOLDER~1\AppData\Local\Temp\ccheWc1y.s:22622  .debug_str:0000000000004f22 .LASF151
C:\Users\SOLDER~1\AppData\Local\Temp\ccheWc1y.s:25238  .debug_str:000000000000fa17 .LASF152
C:\Users\SOLDER~1\AppData\Local\Temp\ccheWc1y.s:27738  .debug_str:0000000000019ce0 .LASF153
C:\Users\SOLDER~1\AppData\Local\Temp\ccheWc1y.s:21506  .debug_str:000000000000073d .LASF154
C:\Users\SOLDER~1\AppData\Local\Temp\ccheWc1y.s:30098  .debug_str:00000000000233db .LASF155
C:\Users\SOLDER~1\AppData\Local\Temp\ccheWc1y.s:26300  .debug_str:0000000000013edc .LASF156
C:\Users\SOLDER~1\AppData\Local\Temp\ccheWc1y.s:31042  .debug_str:00000000000271de .LASF157
C:\Users\SOLDER~1\AppData\Local\Temp\ccheWc1y.s:28802  .debug_str:000000000001e043 .LASF158
C:\Users\SOLDER~1\AppData\Local\Temp\ccheWc1y.s:25690  .debug_str:0000000000011765 .LASF159
C:\Users\SOLDER~1\AppData\Local\Temp\ccheWc1y.s:31650  .debug_str:000000000002993b .LASF160
C:\Users\SOLDER~1\AppData\Local\Temp\ccheWc1y.s:28942  .debug_str:000000000001e965 .LASF161
C:\Users\SOLDER~1\AppData\Local\Temp\ccheWc1y.s:24502  .debug_str:000000000000ca57 .LASF162
C:\Users\SOLDER~1\AppData\Local\Temp\ccheWc1y.s:23556  .debug_str:0000000000008be1 .LASF163
C:\Users\SOLDER~1\AppData\Local\Temp\ccheWc1y.s:26440  .debug_str:00000000000148ca .LASF164
C:\Users\SOLDER~1\AppData\Local\Temp\ccheWc1y.s:28442  .debug_str:000000000001c92c .LASF165
C:\Users\SOLDER~1\AppData\Local\Temp\ccheWc1y.s:29916  .debug_str:00000000000227e6 .LASF166
C:\Users\SOLDER~1\AppData\Local\Temp\ccheWc1y.s:31530  .debug_str:00000000000291a4 .LASF167
C:\Users\SOLDER~1\AppData\Local\Temp\ccheWc1y.s:30656  .debug_str:0000000000025802 .LASF168
C:\Users\SOLDER~1\AppData\Local\Temp\ccheWc1y.s:32366  .debug_str:000000000002c7cb .LASF169
GAS LISTING C:\Users\SOLDER~1\AppData\Local\Temp\ccheWc1y.s 			page 69


C:\Users\SOLDER~1\AppData\Local\Temp\ccheWc1y.s:23316  .debug_str:0000000000007c04 .LASF170
C:\Users\SOLDER~1\AppData\Local\Temp\ccheWc1y.s:32034  .debug_str:000000000002b22b .LASF171
C:\Users\SOLDER~1\AppData\Local\Temp\ccheWc1y.s:23698  .debug_str:000000000000955b .LASF172
C:\Users\SOLDER~1\AppData\Local\Temp\ccheWc1y.s:28296  .debug_str:000000000001bf80 .LASF173
C:\Users\SOLDER~1\AppData\Local\Temp\ccheWc1y.s:27540  .debug_str:0000000000018f7d .LASF174
C:\Users\SOLDER~1\AppData\Local\Temp\ccheWc1y.s:31460  .debug_str:0000000000028d07 .LASF175
C:\Users\SOLDER~1\AppData\Local\Temp\ccheWc1y.s:27166  .debug_str:00000000000176f5 .LASF176
C:\Users\SOLDER~1\AppData\Local\Temp\ccheWc1y.s:28724  .debug_str:000000000001dbb0 .LASF177
C:\Users\SOLDER~1\AppData\Local\Temp\ccheWc1y.s:23932  .debug_str:000000000000a4e4 .LASF178
C:\Users\SOLDER~1\AppData\Local\Temp\ccheWc1y.s:25968  .debug_str:00000000000128f7 .LASF179
C:\Users\SOLDER~1\AppData\Local\Temp\ccheWc1y.s:27866  .debug_str:000000000001a437 .LASF180
C:\Users\SOLDER~1\AppData\Local\Temp\ccheWc1y.s:22968  .debug_str:000000000000656e .LASF181
C:\Users\SOLDER~1\AppData\Local\Temp\ccheWc1y.s:23784  .debug_str:0000000000009b38 .LASF182
C:\Users\SOLDER~1\AppData\Local\Temp\ccheWc1y.s:22426  .debug_str:00000000000042de .LASF183
C:\Users\SOLDER~1\AppData\Local\Temp\ccheWc1y.s:27922  .debug_str:000000000001a7cc .LASF184
C:\Users\SOLDER~1\AppData\Local\Temp\ccheWc1y.s:26442  .debug_str:00000000000148e1 .LASF185
C:\Users\SOLDER~1\AppData\Local\Temp\ccheWc1y.s:21938  .debug_str:00000000000023b3 .LASF186
C:\Users\SOLDER~1\AppData\Local\Temp\ccheWc1y.s:32666  .debug_str:000000000002db57 .LASF187
C:\Users\SOLDER~1\AppData\Local\Temp\ccheWc1y.s:21718  .debug_str:000000000000155c .LASF188
C:\Users\SOLDER~1\AppData\Local\Temp\ccheWc1y.s:26420  .debug_str:0000000000014763 .LASF189
C:\Users\SOLDER~1\AppData\Local\Temp\ccheWc1y.s:26872  .debug_str:000000000001647b .LASF190
C:\Users\SOLDER~1\AppData\Local\Temp\ccheWc1y.s:31858  .debug_str:000000000002a6f2 .LASF191
C:\Users\SOLDER~1\AppData\Local\Temp\ccheWc1y.s:24840  .debug_str:000000000000e04d .LASF192
C:\Users\SOLDER~1\AppData\Local\Temp\ccheWc1y.s:32338  .debug_str:000000000002c5b4 .LASF193
C:\Users\SOLDER~1\AppData\Local\Temp\ccheWc1y.s:26386  .debug_str:00000000000144f9 .LASF194
C:\Users\SOLDER~1\AppData\Local\Temp\ccheWc1y.s:29138  .debug_str:000000000001f671 .LASF195
C:\Users\SOLDER~1\AppData\Local\Temp\ccheWc1y.s:24140  .debug_str:000000000000b2ca .LASF196
C:\Users\SOLDER~1\AppData\Local\Temp\ccheWc1y.s:29004  .debug_str:000000000001ed9c .LASF197
C:\Users\SOLDER~1\AppData\Local\Temp\ccheWc1y.s:31948  .debug_str:000000000002acf9 .LASF198
C:\Users\SOLDER~1\AppData\Local\Temp\ccheWc1y.s:26666  .debug_str:0000000000015797 .LASF199
C:\Users\SOLDER~1\AppData\Local\Temp\ccheWc1y.s:29208  .debug_str:000000000001fb1f .LASF200
C:\Users\SOLDER~1\AppData\Local\Temp\ccheWc1y.s:21728  .debug_str:00000000000015fe .LASF201
C:\Users\SOLDER~1\AppData\Local\Temp\ccheWc1y.s:32906  .debug_str:000000000002ea43 .LASF202
C:\Users\SOLDER~1\AppData\Local\Temp\ccheWc1y.s:26642  .debug_str:00000000000155ea .LASF203
C:\Users\SOLDER~1\AppData\Local\Temp\ccheWc1y.s:29408  .debug_str:00000000000207b2 .LASF204
C:\Users\SOLDER~1\AppData\Local\Temp\ccheWc1y.s:27942  .debug_str:000000000001a90e .LASF205
C:\Users\SOLDER~1\AppData\Local\Temp\ccheWc1y.s:23016  .debug_str:0000000000006892 .LASF206
C:\Users\SOLDER~1\AppData\Local\Temp\ccheWc1y.s:26654  .debug_str:00000000000156b1 .LASF207
C:\Users\SOLDER~1\AppData\Local\Temp\ccheWc1y.s:28646  .debug_str:000000000001d684 .LASF208
C:\Users\SOLDER~1\AppData\Local\Temp\ccheWc1y.s:29648  .debug_str:0000000000021719 .LASF209
C:\Users\SOLDER~1\AppData\Local\Temp\ccheWc1y.s:25466  .debug_str:0000000000010948 .LASF210
C:\Users\SOLDER~1\AppData\Local\Temp\ccheWc1y.s:31044  .debug_str:000000000002721a .LASF211
C:\Users\SOLDER~1\AppData\Local\Temp\ccheWc1y.s:30844  .debug_str:0000000000026477 .LASF212
C:\Users\SOLDER~1\AppData\Local\Temp\ccheWc1y.s:23258  .debug_str:000000000000787b .LASF213
C:\Users\SOLDER~1\AppData\Local\Temp\ccheWc1y.s:30358  .debug_str:00000000000244ae .LASF214
C:\Users\SOLDER~1\AppData\Local\Temp\ccheWc1y.s:26958  .debug_str:0000000000016a1c .LASF215
C:\Users\SOLDER~1\AppData\Local\Temp\ccheWc1y.s:23224  .debug_str:000000000000766c .LASF216
C:\Users\SOLDER~1\AppData\Local\Temp\ccheWc1y.s:23638  .debug_str:0000000000009169 .LASF217
C:\Users\SOLDER~1\AppData\Local\Temp\ccheWc1y.s:30920  .debug_str:00000000000269d3 .LASF218
C:\Users\SOLDER~1\AppData\Local\Temp\ccheWc1y.s:23674  .debug_str:00000000000093f6 .LASF219
C:\Users\SOLDER~1\AppData\Local\Temp\ccheWc1y.s:22036  .debug_str:0000000000002a3b .LASF220
C:\Users\SOLDER~1\AppData\Local\Temp\ccheWc1y.s:23778  .debug_str:0000000000009a95 .LASF221
C:\Users\SOLDER~1\AppData\Local\Temp\ccheWc1y.s:29598  .debug_str:00000000000213b3 .LASF222
C:\Users\SOLDER~1\AppData\Local\Temp\ccheWc1y.s:29442  .debug_str:00000000000209d1 .LASF223
C:\Users\SOLDER~1\AppData\Local\Temp\ccheWc1y.s:23686  .debug_str:0000000000009494 .LASF224
C:\Users\SOLDER~1\AppData\Local\Temp\ccheWc1y.s:23024  .debug_str:0000000000006945 .LASF225
C:\Users\SOLDER~1\AppData\Local\Temp\ccheWc1y.s:28908  .debug_str:000000000001e755 .LASF226
GAS LISTING C:\Users\SOLDER~1\AppData\Local\Temp\ccheWc1y.s 			page 70


C:\Users\SOLDER~1\AppData\Local\Temp\ccheWc1y.s:27058  .debug_str:0000000000017023 .LASF227
C:\Users\SOLDER~1\AppData\Local\Temp\ccheWc1y.s:25382  .debug_str:00000000000103f6 .LASF228
C:\Users\SOLDER~1\AppData\Local\Temp\ccheWc1y.s:29440  .debug_str:00000000000209b8 .LASF229
C:\Users\SOLDER~1\AppData\Local\Temp\ccheWc1y.s:30490  .debug_str:0000000000024d53 .LASF230
C:\Users\SOLDER~1\AppData\Local\Temp\ccheWc1y.s:25406  .debug_str:0000000000010566 .LASF231
C:\Users\SOLDER~1\AppData\Local\Temp\ccheWc1y.s:31266  .debug_str:0000000000028052 .LASF232
C:\Users\SOLDER~1\AppData\Local\Temp\ccheWc1y.s:30554  .debug_str:000000000002519f .LASF233
C:\Users\SOLDER~1\AppData\Local\Temp\ccheWc1y.s:32314  .debug_str:000000000002c3ff .LASF234
C:\Users\SOLDER~1\AppData\Local\Temp\ccheWc1y.s:23426  .debug_str:000000000000838a .LASF235
C:\Users\SOLDER~1\AppData\Local\Temp\ccheWc1y.s:25460  .debug_str:00000000000108f8 .LASF236
C:\Users\SOLDER~1\AppData\Local\Temp\ccheWc1y.s:24904  .debug_str:000000000000e490 .LASF237
C:\Users\SOLDER~1\AppData\Local\Temp\ccheWc1y.s:30718  .debug_str:0000000000025bee .LASF238
C:\Users\SOLDER~1\AppData\Local\Temp\ccheWc1y.s:26284  .debug_str:0000000000013db8 .LASF239
C:\Users\SOLDER~1\AppData\Local\Temp\ccheWc1y.s:29456  .debug_str:0000000000020ac2 .LASF240
C:\Users\SOLDER~1\AppData\Local\Temp\ccheWc1y.s:27720  .debug_str:0000000000019b99 .LASF241
C:\Users\SOLDER~1\AppData\Local\Temp\ccheWc1y.s:27264  .debug_str:0000000000017d84 .LASF242
C:\Users\SOLDER~1\AppData\Local\Temp\ccheWc1y.s:28738  .debug_str:000000000001dc7b .LASF243
C:\Users\SOLDER~1\AppData\Local\Temp\ccheWc1y.s:28100  .debug_str:000000000001b39e .LASF244
C:\Users\SOLDER~1\AppData\Local\Temp\ccheWc1y.s:32632  .debug_str:000000000002d911 .LASF245
C:\Users\SOLDER~1\AppData\Local\Temp\ccheWc1y.s:28674  .debug_str:000000000001d89f .LASF246
C:\Users\SOLDER~1\AppData\Local\Temp\ccheWc1y.s:31752  .debug_str:0000000000029fc4 .LASF247
C:\Users\SOLDER~1\AppData\Local\Temp\ccheWc1y.s:24928  .debug_str:000000000000e67b .LASF248
C:\Users\SOLDER~1\AppData\Local\Temp\ccheWc1y.s:31132  .debug_str:00000000000277b1 .LASF249
C:\Users\SOLDER~1\AppData\Local\Temp\ccheWc1y.s:24778  .debug_str:000000000000dcbc .LASF250
C:\Users\SOLDER~1\AppData\Local\Temp\ccheWc1y.s:28010  .debug_str:000000000001ad9f .LASF251
C:\Users\SOLDER~1\AppData\Local\Temp\ccheWc1y.s:25498  .debug_str:0000000000010b43 .LASF252
C:\Users\SOLDER~1\AppData\Local\Temp\ccheWc1y.s:21654  .debug_str:0000000000001117 .LASF253
C:\Users\SOLDER~1\AppData\Local\Temp\ccheWc1y.s:24214  .debug_str:000000000000b781 .LASF254
C:\Users\SOLDER~1\AppData\Local\Temp\ccheWc1y.s:21596  .debug_str:0000000000000d87 .LASF255
C:\Users\SOLDER~1\AppData\Local\Temp\ccheWc1y.s:24328  .debug_str:000000000000be60 .LASF256
C:\Users\SOLDER~1\AppData\Local\Temp\ccheWc1y.s:23782  .debug_str:0000000000009af3 .LASF257
C:\Users\SOLDER~1\AppData\Local\Temp\ccheWc1y.s:32848  .debug_str:000000000002e6cd .LASF258
C:\Users\SOLDER~1\AppData\Local\Temp\ccheWc1y.s:28622  .debug_str:000000000001d4fa .LASF259
C:\Users\SOLDER~1\AppData\Local\Temp\ccheWc1y.s:27420  .debug_str:00000000000187f2 .LASF260
C:\Users\SOLDER~1\AppData\Local\Temp\ccheWc1y.s:28222  .debug_str:000000000001bb2d .LASF261
C:\Users\SOLDER~1\AppData\Local\Temp\ccheWc1y.s:24954  .debug_str:000000000000e841 .LASF262
C:\Users\SOLDER~1\AppData\Local\Temp\ccheWc1y.s:24268  .debug_str:000000000000badc .LASF263
C:\Users\SOLDER~1\AppData\Local\Temp\ccheWc1y.s:23824  .debug_str:0000000000009da6 .LASF264
C:\Users\SOLDER~1\AppData\Local\Temp\ccheWc1y.s:24594  .debug_str:000000000000d0a1 .LASF265
C:\Users\SOLDER~1\AppData\Local\Temp\ccheWc1y.s:25592  .debug_str:0000000000011132 .LASF266
C:\Users\SOLDER~1\AppData\Local\Temp\ccheWc1y.s:27454  .debug_str:0000000000018a0e .LASF267
C:\Users\SOLDER~1\AppData\Local\Temp\ccheWc1y.s:31378  .debug_str:00000000000287ed .LASF268
C:\Users\SOLDER~1\AppData\Local\Temp\ccheWc1y.s:24410  .debug_str:000000000000c3b5 .LASF269
C:\Users\SOLDER~1\AppData\Local\Temp\ccheWc1y.s:23114  .debug_str:0000000000006eeb .LASF270
C:\Users\SOLDER~1\AppData\Local\Temp\ccheWc1y.s:23294  .debug_str:0000000000007a83 .LASF271
C:\Users\SOLDER~1\AppData\Local\Temp\ccheWc1y.s:24652  .debug_str:000000000000d469 .LASF272
C:\Users\SOLDER~1\AppData\Local\Temp\ccheWc1y.s:24482  .debug_str:000000000000c8e7 .LASF273
C:\Users\SOLDER~1\AppData\Local\Temp\ccheWc1y.s:21740  .debug_str:00000000000016c4 .LASF274
C:\Users\SOLDER~1\AppData\Local\Temp\ccheWc1y.s:23106  .debug_str:0000000000006e78 .LASF275
C:\Users\SOLDER~1\AppData\Local\Temp\ccheWc1y.s:32062  .debug_str:000000000002b3e9 .LASF276
C:\Users\SOLDER~1\AppData\Local\Temp\ccheWc1y.s:29996  .debug_str:0000000000022d04 .LASF277
C:\Users\SOLDER~1\AppData\Local\Temp\ccheWc1y.s:30946  .debug_str:0000000000026b8b .LASF278
C:\Users\SOLDER~1\AppData\Local\Temp\ccheWc1y.s:23066  .debug_str:0000000000006bff .LASF279
C:\Users\SOLDER~1\AppData\Local\Temp\ccheWc1y.s:22838  .debug_str:0000000000005ca9 .LASF280
C:\Users\SOLDER~1\AppData\Local\Temp\ccheWc1y.s:22722  .debug_str:0000000000005518 .LASF281
C:\Users\SOLDER~1\AppData\Local\Temp\ccheWc1y.s:27482  .debug_str:0000000000018bf6 .LASF282
C:\Users\SOLDER~1\AppData\Local\Temp\ccheWc1y.s:30916  .debug_str:000000000002698e .LASF283
GAS LISTING C:\Users\SOLDER~1\AppData\Local\Temp\ccheWc1y.s 			page 71


C:\Users\SOLDER~1\AppData\Local\Temp\ccheWc1y.s:31176  .debug_str:0000000000027aa8 .LASF284
C:\Users\SOLDER~1\AppData\Local\Temp\ccheWc1y.s:32040  .debug_str:000000000002b28d .LASF285
C:\Users\SOLDER~1\AppData\Local\Temp\ccheWc1y.s:28684  .debug_str:000000000001d943 .LASF286
C:\Users\SOLDER~1\AppData\Local\Temp\ccheWc1y.s:32838  .debug_str:000000000002e62c .LASF287
C:\Users\SOLDER~1\AppData\Local\Temp\ccheWc1y.s:22812  .debug_str:0000000000005aeb .LASF288
C:\Users\SOLDER~1\AppData\Local\Temp\ccheWc1y.s:26670  .debug_str:00000000000157cc .LASF289
C:\Users\SOLDER~1\AppData\Local\Temp\ccheWc1y.s:25546  .debug_str:0000000000010e74 .LASF290
C:\Users\SOLDER~1\AppData\Local\Temp\ccheWc1y.s:33076  .debug_str:000000000002f522 .LASF291
C:\Users\SOLDER~1\AppData\Local\Temp\ccheWc1y.s:31878  .debug_str:000000000002a858 .LASF292
C:\Users\SOLDER~1\AppData\Local\Temp\ccheWc1y.s:22644  .debug_str:000000000000506b .LASF293
C:\Users\SOLDER~1\AppData\Local\Temp\ccheWc1y.s:21448  .debug_str:00000000000002de .LASF294
C:\Users\SOLDER~1\AppData\Local\Temp\ccheWc1y.s:26722  .debug_str:0000000000015b2c .LASF295
C:\Users\SOLDER~1\AppData\Local\Temp\ccheWc1y.s:27558  .debug_str:00000000000190b3 .LASF296
C:\Users\SOLDER~1\AppData\Local\Temp\ccheWc1y.s:24946  .debug_str:000000000000e7bb .LASF297
C:\Users\SOLDER~1\AppData\Local\Temp\ccheWc1y.s:25490  .debug_str:0000000000010ad0 .LASF298
C:\Users\SOLDER~1\AppData\Local\Temp\ccheWc1y.s:28264  .debug_str:000000000001bd9f .LASF299
C:\Users\SOLDER~1\AppData\Local\Temp\ccheWc1y.s:26792  .debug_str:0000000000015f79 .LASF300
C:\Users\SOLDER~1\AppData\Local\Temp\ccheWc1y.s:26226  .debug_str:00000000000139ca .LASF301
C:\Users\SOLDER~1\AppData\Local\Temp\ccheWc1y.s:21976  .debug_str:0000000000002632 .LASF302
C:\Users\SOLDER~1\AppData\Local\Temp\ccheWc1y.s:24600  .debug_str:000000000000d10a .LASF303
C:\Users\SOLDER~1\AppData\Local\Temp\ccheWc1y.s:30078  .debug_str:0000000000023296 .LASF304
C:\Users\SOLDER~1\AppData\Local\Temp\ccheWc1y.s:25510  .debug_str:0000000000010be2 .LASF305
C:\Users\SOLDER~1\AppData\Local\Temp\ccheWc1y.s:30936  .debug_str:0000000000026afa .LASF306
C:\Users\SOLDER~1\AppData\Local\Temp\ccheWc1y.s:30526  .debug_str:0000000000024faf .LASF307
C:\Users\SOLDER~1\AppData\Local\Temp\ccheWc1y.s:28696  .debug_str:000000000001da0e .LASF308
C:\Users\SOLDER~1\AppData\Local\Temp\ccheWc1y.s:22432  .debug_str:0000000000004342 .LASF309
C:\Users\SOLDER~1\AppData\Local\Temp\ccheWc1y.s:29064  .debug_str:000000000001f181 .LASF310
C:\Users\SOLDER~1\AppData\Local\Temp\ccheWc1y.s:24724  .debug_str:000000000000d93d .LASF311
C:\Users\SOLDER~1\AppData\Local\Temp\ccheWc1y.s:26052  .debug_str:0000000000012e22 .LASF312
C:\Users\SOLDER~1\AppData\Local\Temp\ccheWc1y.s:23852  .debug_str:0000000000009f84 .LASF313
C:\Users\SOLDER~1\AppData\Local\Temp\ccheWc1y.s:26486  .debug_str:0000000000014bef .LASF314
C:\Users\SOLDER~1\AppData\Local\Temp\ccheWc1y.s:23290  .debug_str:0000000000007a44 .LASF315
C:\Users\SOLDER~1\AppData\Local\Temp\ccheWc1y.s:28768  .debug_str:000000000001de42 .LASF316
C:\Users\SOLDER~1\AppData\Local\Temp\ccheWc1y.s:31262  .debug_str:0000000000028023 .LASF317
C:\Users\SOLDER~1\AppData\Local\Temp\ccheWc1y.s:30532  .debug_str:000000000002501c .LASF319
C:\Users\SOLDER~1\AppData\Local\Temp\ccheWc1y.s:25344  .debug_str:0000000000010188 .LASF320
C:\Users\SOLDER~1\AppData\Local\Temp\ccheWc1y.s:26640  .debug_str:00000000000155c5 .LASF321
C:\Users\SOLDER~1\AppData\Local\Temp\ccheWc1y.s:29108  .debug_str:000000000001f452 .LASF322
C:\Users\SOLDER~1\AppData\Local\Temp\ccheWc1y.s:32508  .debug_str:000000000002d0be .LASF323
C:\Users\SOLDER~1\AppData\Local\Temp\ccheWc1y.s:24618  .debug_str:000000000000d233 .LASF324
C:\Users\SOLDER~1\AppData\Local\Temp\ccheWc1y.s:22808  .debug_str:0000000000005ab2 .LASF325
C:\Users\SOLDER~1\AppData\Local\Temp\ccheWc1y.s:21532  .debug_str:00000000000008e4 .LASF326
C:\Users\SOLDER~1\AppData\Local\Temp\ccheWc1y.s:31882  .debug_str:000000000002a89d .LASF327
C:\Users\SOLDER~1\AppData\Local\Temp\ccheWc1y.s:24694  .debug_str:000000000000d72e .LASF328
C:\Users\SOLDER~1\AppData\Local\Temp\ccheWc1y.s:32760  .debug_str:000000000002e11e .LASF329
C:\Users\SOLDER~1\AppData\Local\Temp\ccheWc1y.s:22938  .debug_str:0000000000006366 .LASF330
C:\Users\SOLDER~1\AppData\Local\Temp\ccheWc1y.s:22482  .debug_str:0000000000004644 .LASF331
C:\Users\SOLDER~1\AppData\Local\Temp\ccheWc1y.s:21460  .debug_str:000000000000039f .LASF332
C:\Users\SOLDER~1\AppData\Local\Temp\ccheWc1y.s:26894  .debug_str:00000000000165f0 .LASF333
C:\Users\SOLDER~1\AppData\Local\Temp\ccheWc1y.s:29548  .debug_str:00000000000210ab .LASF334
C:\Users\SOLDER~1\AppData\Local\Temp\ccheWc1y.s:27796  .debug_str:0000000000019ff4 .LASF335
C:\Users\SOLDER~1\AppData\Local\Temp\ccheWc1y.s:27658  .debug_str:000000000001975c .LASF339
C:\Users\SOLDER~1\AppData\Local\Temp\ccheWc1y.s:28198  .debug_str:000000000001b9a6 .LASF340
C:\Users\SOLDER~1\AppData\Local\Temp\ccheWc1y.s:24166  .debug_str:000000000000b462 .LASF341
C:\Users\SOLDER~1\AppData\Local\Temp\ccheWc1y.s:27426  .debug_str:0000000000018858 .LASF342
C:\Users\SOLDER~1\AppData\Local\Temp\ccheWc1y.s:27644  .debug_str:0000000000019682 .LASF343
C:\Users\SOLDER~1\AppData\Local\Temp\ccheWc1y.s:22020  .debug_str:00000000000028ef .LASF344
GAS LISTING C:\Users\SOLDER~1\AppData\Local\Temp\ccheWc1y.s 			page 72


C:\Users\SOLDER~1\AppData\Local\Temp\ccheWc1y.s:24208  .debug_str:000000000000b70f .LASF345
C:\Users\SOLDER~1\AppData\Local\Temp\ccheWc1y.s:22344  .debug_str:0000000000003d9e .LASF346
C:\Users\SOLDER~1\AppData\Local\Temp\ccheWc1y.s:32412  .debug_str:000000000002caba .LASF347
C:\Users\SOLDER~1\AppData\Local\Temp\ccheWc1y.s:26982  .debug_str:0000000000016b71 .LASF348
C:\Users\SOLDER~1\AppData\Local\Temp\ccheWc1y.s:29476  .debug_str:0000000000020c1e .LASF349
C:\Users\SOLDER~1\AppData\Local\Temp\ccheWc1y.s:23676  .debug_str:000000000000940f .LASF350
C:\Users\SOLDER~1\AppData\Local\Temp\ccheWc1y.s:27492  .debug_str:0000000000018c8d .LASF351
C:\Users\SOLDER~1\AppData\Local\Temp\ccheWc1y.s:32750  .debug_str:000000000002e0a1 .LASF352
C:\Users\SOLDER~1\AppData\Local\Temp\ccheWc1y.s:24142  .debug_str:000000000000b2e3 .LASF353
C:\Users\SOLDER~1\AppData\Local\Temp\ccheWc1y.s:25254  .debug_str:000000000000fb2b .LASF354
C:\Users\SOLDER~1\AppData\Local\Temp\ccheWc1y.s:28710  .debug_str:000000000001dafa .LASF355
C:\Users\SOLDER~1\AppData\Local\Temp\ccheWc1y.s:26892  .debug_str:00000000000165e0 .LASF356
C:\Users\SOLDER~1\AppData\Local\Temp\ccheWc1y.s:27034  .debug_str:0000000000016ea5 .LASF357
C:\Users\SOLDER~1\AppData\Local\Temp\ccheWc1y.s:30122  .debug_str:000000000002354e .LASF358
C:\Users\SOLDER~1\AppData\Local\Temp\ccheWc1y.s:26108  .debug_str:000000000001321b .LASF359
C:\Users\SOLDER~1\AppData\Local\Temp\ccheWc1y.s:27098  .debug_str:0000000000017268 .LASF360
C:\Users\SOLDER~1\AppData\Local\Temp\ccheWc1y.s:30236  .debug_str:0000000000023cf4 .LASF361
C:\Users\SOLDER~1\AppData\Local\Temp\ccheWc1y.s:23178  .debug_str:0000000000007368 .LASF362
C:\Users\SOLDER~1\AppData\Local\Temp\ccheWc1y.s:32014  .debug_str:000000000002b0da .LASF363
C:\Users\SOLDER~1\AppData\Local\Temp\ccheWc1y.s:22692  .debug_str:0000000000005351 .LASF364
C:\Users\SOLDER~1\AppData\Local\Temp\ccheWc1y.s:27578  .debug_str:0000000000019214 .LASF365
C:\Users\SOLDER~1\AppData\Local\Temp\ccheWc1y.s:23276  .debug_str:0000000000007966 .LASF366
C:\Users\SOLDER~1\AppData\Local\Temp\ccheWc1y.s:24226  .debug_str:000000000000b871 .LASF367
C:\Users\SOLDER~1\AppData\Local\Temp\ccheWc1y.s:21416  .debug_str:0000000000000105 .LASF368
C:\Users\SOLDER~1\AppData\Local\Temp\ccheWc1y.s:29426  .debug_str:00000000000208d4 .LASF369
C:\Users\SOLDER~1\AppData\Local\Temp\ccheWc1y.s:24936  .debug_str:000000000000e70e .LASF370
C:\Users\SOLDER~1\AppData\Local\Temp\ccheWc1y.s:30434  .debug_str:00000000000249a2 .LASF371
C:\Users\SOLDER~1\AppData\Local\Temp\ccheWc1y.s:29356  .debug_str:0000000000020488 .LASF372
C:\Users\SOLDER~1\AppData\Local\Temp\ccheWc1y.s:25706  .debug_str:000000000001186f .LASF373
C:\Users\SOLDER~1\AppData\Local\Temp\ccheWc1y.s:32898  .debug_str:000000000002e9c6 .LASF374
C:\Users\SOLDER~1\AppData\Local\Temp\ccheWc1y.s:32836  .debug_str:000000000002e626 .LASF375
C:\Users\SOLDER~1\AppData\Local\Temp\ccheWc1y.s:23462  .debug_str:00000000000085e2 .LASF376
C:\Users\SOLDER~1\AppData\Local\Temp\ccheWc1y.s:31912  .debug_str:000000000002aa89 .LASF377
C:\Users\SOLDER~1\AppData\Local\Temp\ccheWc1y.s:26878  .debug_str:0000000000016503 .LASF378
C:\Users\SOLDER~1\AppData\Local\Temp\ccheWc1y.s:30698  .debug_str:0000000000025ab4 .LASF379
C:\Users\SOLDER~1\AppData\Local\Temp\ccheWc1y.s:31712  .debug_str:0000000000029d74 .LASF380
C:\Users\SOLDER~1\AppData\Local\Temp\ccheWc1y.s:30158  .debug_str:00000000000237a4 .LASF381
C:\Users\SOLDER~1\AppData\Local\Temp\ccheWc1y.s:27074  .debug_str:000000000001710b .LASF382
C:\Users\SOLDER~1\AppData\Local\Temp\ccheWc1y.s:31736  .debug_str:0000000000029ed3 .LASF383
C:\Users\SOLDER~1\AppData\Local\Temp\ccheWc1y.s:28430  .debug_str:000000000001c870 .LASF384
C:\Users\SOLDER~1\AppData\Local\Temp\ccheWc1y.s:25810  .debug_str:0000000000011f2f .LASF385
C:\Users\SOLDER~1\AppData\Local\Temp\ccheWc1y.s:30284  .debug_str:0000000000023fe4 .LASF386
C:\Users\SOLDER~1\AppData\Local\Temp\ccheWc1y.s:29266  .debug_str:000000000001ff0d .LASF387
C:\Users\SOLDER~1\AppData\Local\Temp\ccheWc1y.s:21772  .debug_str:00000000000018c1 .LASF388
C:\Users\SOLDER~1\AppData\Local\Temp\ccheWc1y.s:22448  .debug_str:000000000000442a .LASF389
C:\Users\SOLDER~1\AppData\Local\Temp\ccheWc1y.s:22868  .debug_str:0000000000005e9f .LASF390
C:\Users\SOLDER~1\AppData\Local\Temp\ccheWc1y.s:24060  .debug_str:000000000000ada0 .LASF391
C:\Users\SOLDER~1\AppData\Local\Temp\ccheWc1y.s:23530  .debug_str:0000000000008a1e .LASF392
C:\Users\SOLDER~1\AppData\Local\Temp\ccheWc1y.s:28950  .debug_str:000000000001e9e3 .LASF393
C:\Users\SOLDER~1\AppData\Local\Temp\ccheWc1y.s:29618  .debug_str:0000000000021523 .LASF394
C:\Users\SOLDER~1\AppData\Local\Temp\ccheWc1y.s:29750  .debug_str:0000000000021d9b .LASF395
C:\Users\SOLDER~1\AppData\Local\Temp\ccheWc1y.s:23682  .debug_str:0000000000009465 .LASF396
C:\Users\SOLDER~1\AppData\Local\Temp\ccheWc1y.s:23266  .debug_str:00000000000078e5 .LASF397
C:\Users\SOLDER~1\AppData\Local\Temp\ccheWc1y.s:28764  .debug_str:000000000001de1e .LASF398
C:\Users\SOLDER~1\AppData\Local\Temp\ccheWc1y.s:31428  .debug_str:0000000000028b18 .LASF399
C:\Users\SOLDER~1\AppData\Local\Temp\ccheWc1y.s:26024  .debug_str:0000000000012c8a .LASF400
C:\Users\SOLDER~1\AppData\Local\Temp\ccheWc1y.s:26776  .debug_str:0000000000015e6e .LASF401
GAS LISTING C:\Users\SOLDER~1\AppData\Local\Temp\ccheWc1y.s 			page 73


C:\Users\SOLDER~1\AppData\Local\Temp\ccheWc1y.s:24580  .debug_str:000000000000cfc7 .LASF402
C:\Users\SOLDER~1\AppData\Local\Temp\ccheWc1y.s:28458  .debug_str:000000000001ca21 .LASF403
C:\Users\SOLDER~1\AppData\Local\Temp\ccheWc1y.s:26990  .debug_str:0000000000016bde .LASF404
C:\Users\SOLDER~1\AppData\Local\Temp\ccheWc1y.s:27444  .debug_str:000000000001897b .LASF405
C:\Users\SOLDER~1\AppData\Local\Temp\ccheWc1y.s:23582  .debug_str:0000000000008d84 .LASF406
C:\Users\SOLDER~1\AppData\Local\Temp\ccheWc1y.s:32362  .debug_str:000000000002c797 .LASF407
C:\Users\SOLDER~1\AppData\Local\Temp\ccheWc1y.s:26332  .debug_str:0000000000014157 .LASF408
C:\Users\SOLDER~1\AppData\Local\Temp\ccheWc1y.s:28796  .debug_str:000000000001dff3 .LASF409
C:\Users\SOLDER~1\AppData\Local\Temp\ccheWc1y.s:25166  .debug_str:000000000000f56b .LASF410
C:\Users\SOLDER~1\AppData\Local\Temp\ccheWc1y.s:29510  .debug_str:0000000000020e64 .LASF411
C:\Users\SOLDER~1\AppData\Local\Temp\ccheWc1y.s:31492  .debug_str:0000000000028f4a .LASF412
C:\Users\SOLDER~1\AppData\Local\Temp\ccheWc1y.s:25094  .debug_str:000000000000f0f9 .LASF413
C:\Users\SOLDER~1\AppData\Local\Temp\ccheWc1y.s:25866  .debug_str:000000000001229c .LASF414
C:\Users\SOLDER~1\AppData\Local\Temp\ccheWc1y.s:27860  .debug_str:000000000001a3f5 .LASF415
C:\Users\SOLDER~1\AppData\Local\Temp\ccheWc1y.s:32932  .debug_str:000000000002ebee .LASF416
C:\Users\SOLDER~1\AppData\Local\Temp\ccheWc1y.s:33068  .debug_str:000000000002f4aa .LASF417
C:\Users\SOLDER~1\AppData\Local\Temp\ccheWc1y.s:23342  .debug_str:0000000000007dc6 .LASF418
C:\Users\SOLDER~1\AppData\Local\Temp\ccheWc1y.s:24434  .debug_str:000000000000c588 .LASF419
C:\Users\SOLDER~1\AppData\Local\Temp\ccheWc1y.s:21958  .debug_str:00000000000024ff .LASF420
C:\Users\SOLDER~1\AppData\Local\Temp\ccheWc1y.s:29568  .debug_str:00000000000211e0 .LASF421
C:\Users\SOLDER~1\AppData\Local\Temp\ccheWc1y.s:30260  .debug_str:0000000000023e6b .LASF422
C:\Users\SOLDER~1\AppData\Local\Temp\ccheWc1y.s:21888  .debug_str:000000000000205c .LASF423
C:\Users\SOLDER~1\AppData\Local\Temp\ccheWc1y.s:26266  .debug_str:0000000000013c83 .LASF424
C:\Users\SOLDER~1\AppData\Local\Temp\ccheWc1y.s:29500  .debug_str:0000000000020dbc .LASF425
C:\Users\SOLDER~1\AppData\Local\Temp\ccheWc1y.s:25856  .debug_str:0000000000012218 .LASF426
C:\Users\SOLDER~1\AppData\Local\Temp\ccheWc1y.s:33050  .debug_str:000000000002f38a .LASF427
C:\Users\SOLDER~1\AppData\Local\Temp\ccheWc1y.s:28470  .debug_str:000000000001cad6 .LASF428
C:\Users\SOLDER~1\AppData\Local\Temp\ccheWc1y.s:22706  .debug_str:0000000000005440 .LASF429
C:\Users\SOLDER~1\AppData\Local\Temp\ccheWc1y.s:30640  .debug_str:0000000000025717 .LASF430
C:\Users\SOLDER~1\AppData\Local\Temp\ccheWc1y.s:26200  .debug_str:000000000001381b .LASF431
C:\Users\SOLDER~1\AppData\Local\Temp\ccheWc1y.s:30556  .debug_str:00000000000251bd .LASF432
C:\Users\SOLDER~1\AppData\Local\Temp\ccheWc1y.s:22612  .debug_str:0000000000004e8c .LASF433
C:\Users\SOLDER~1\AppData\Local\Temp\ccheWc1y.s:25140  .debug_str:000000000000f3d7 .LASF434
C:\Users\SOLDER~1\AppData\Local\Temp\ccheWc1y.s:29392  .debug_str:00000000000206b8 .LASF435
C:\Users\SOLDER~1\AppData\Local\Temp\ccheWc1y.s:21580  .debug_str:0000000000000c78 .LASF436
C:\Users\SOLDER~1\AppData\Local\Temp\ccheWc1y.s:24628  .debug_str:000000000000d2e1 .LASF437
C:\Users\SOLDER~1\AppData\Local\Temp\ccheWc1y.s:26612  .debug_str:0000000000015411 .LASF438
C:\Users\SOLDER~1\AppData\Local\Temp\ccheWc1y.s:22694  .debug_str:0000000000005366 .LASF439
C:\Users\SOLDER~1\AppData\Local\Temp\ccheWc1y.s:25928  .debug_str:0000000000012675 .LASF440
C:\Users\SOLDER~1\AppData\Local\Temp\ccheWc1y.s:31678  .debug_str:0000000000029b3d .LASF441
C:\Users\SOLDER~1\AppData\Local\Temp\ccheWc1y.s:24256  .debug_str:000000000000ba2e .LASF442
C:\Users\SOLDER~1\AppData\Local\Temp\ccheWc1y.s:28522  .debug_str:000000000001ce54 .LASF443
C:\Users\SOLDER~1\AppData\Local\Temp\ccheWc1y.s:32236  .debug_str:000000000002befa .LASF444
C:\Users\SOLDER~1\AppData\Local\Temp\ccheWc1y.s:26064  .debug_str:0000000000012efc .LASF445
C:\Users\SOLDER~1\AppData\Local\Temp\ccheWc1y.s:25476  .debug_str:00000000000109f6 .LASF446
C:\Users\SOLDER~1\AppData\Local\Temp\ccheWc1y.s:29288  .debug_str:0000000000020065 .LASF447
C:\Users\SOLDER~1\AppData\Local\Temp\ccheWc1y.s:23580  .debug_str:0000000000008d6a .LASF448
C:\Users\SOLDER~1\AppData\Local\Temp\ccheWc1y.s:28870  .debug_str:000000000001e4f2 .LASF449
C:\Users\SOLDER~1\AppData\Local\Temp\ccheWc1y.s:25132  .debug_str:000000000000f35c .LASF450
C:\Users\SOLDER~1\AppData\Local\Temp\ccheWc1y.s:31648  .debug_str:0000000000029915 .LASF451
C:\Users\SOLDER~1\AppData\Local\Temp\ccheWc1y.s:25782  .debug_str:0000000000011d4f .LASF452
C:\Users\SOLDER~1\AppData\Local\Temp\ccheWc1y.s:22140  .debug_str:0000000000003086 .LASF453
C:\Users\SOLDER~1\AppData\Local\Temp\ccheWc1y.s:21724  .debug_str:00000000000015bb .LASF454
C:\Users\SOLDER~1\AppData\Local\Temp\ccheWc1y.s:30004  .debug_str:0000000000022d85 .LASF455
C:\Users\SOLDER~1\AppData\Local\Temp\ccheWc1y.s:30914  .debug_str:0000000000026963 .LASF456
C:\Users\SOLDER~1\AppData\Local\Temp\ccheWc1y.s:24648  .debug_str:000000000000d41a .LASF457
C:\Users\SOLDER~1\AppData\Local\Temp\ccheWc1y.s:24974  .debug_str:000000000000e974 .LASF458
GAS LISTING C:\Users\SOLDER~1\AppData\Local\Temp\ccheWc1y.s 			page 74


C:\Users\SOLDER~1\AppData\Local\Temp\ccheWc1y.s:31552  .debug_str:00000000000292fd .LASF459
C:\Users\SOLDER~1\AppData\Local\Temp\ccheWc1y.s:32478  .debug_str:000000000002ced6 .LASF460
C:\Users\SOLDER~1\AppData\Local\Temp\ccheWc1y.s:28922  .debug_str:000000000001e82f .LASF461
C:\Users\SOLDER~1\AppData\Local\Temp\ccheWc1y.s:24238  .debug_str:000000000000b918 .LASF462
C:\Users\SOLDER~1\AppData\Local\Temp\ccheWc1y.s:30870  .debug_str:0000000000026655 .LASF463
C:\Users\SOLDER~1\AppData\Local\Temp\ccheWc1y.s:28196  .debug_str:000000000001b980 .LASF464
C:\Users\SOLDER~1\AppData\Local\Temp\ccheWc1y.s:31402  .debug_str:0000000000028954 .LASF465
C:\Users\SOLDER~1\AppData\Local\Temp\ccheWc1y.s:27370  .debug_str:00000000000184a3 .LASF466
C:\Users\SOLDER~1\AppData\Local\Temp\ccheWc1y.s:29800  .debug_str:00000000000220ad .LASF467
C:\Users\SOLDER~1\AppData\Local\Temp\ccheWc1y.s:28422  .debug_str:000000000001c7e0 .LASF468
C:\Users\SOLDER~1\AppData\Local\Temp\ccheWc1y.s:21814  .debug_str:0000000000001b70 .LASF469
C:\Users\SOLDER~1\AppData\Local\Temp\ccheWc1y.s:26804  .debug_str:000000000001601d .LASF470
C:\Users\SOLDER~1\AppData\Local\Temp\ccheWc1y.s:29372  .debug_str:000000000002056e .LASF471
C:\Users\SOLDER~1\AppData\Local\Temp\ccheWc1y.s:32740  .debug_str:000000000002e000 .LASF472
C:\Users\SOLDER~1\AppData\Local\Temp\ccheWc1y.s:32986  .debug_str:000000000002ef9c .LASF473
C:\Users\SOLDER~1\AppData\Local\Temp\ccheWc1y.s:32840  .debug_str:000000000002e64e .LASF474
C:\Users\SOLDER~1\AppData\Local\Temp\ccheWc1y.s:30906  .debug_str:00000000000268bd .LASF475
C:\Users\SOLDER~1\AppData\Local\Temp\ccheWc1y.s:23874  .debug_str:000000000000a102 .LASF476
C:\Users\SOLDER~1\AppData\Local\Temp\ccheWc1y.s:27978  .debug_str:000000000001ab60 .LASF477
C:\Users\SOLDER~1\AppData\Local\Temp\ccheWc1y.s:27050  .debug_str:0000000000016fae .LASF478
C:\Users\SOLDER~1\AppData\Local\Temp\ccheWc1y.s:31010  .debug_str:0000000000026fa5 .LASF479
C:\Users\SOLDER~1\AppData\Local\Temp\ccheWc1y.s:33080  .debug_str:000000000002f558 .LASF480
C:\Users\SOLDER~1\AppData\Local\Temp\ccheWc1y.s:29812  .debug_str:000000000002217d .LASF481
C:\Users\SOLDER~1\AppData\Local\Temp\ccheWc1y.s:31104  .debug_str:00000000000275f4 .LASF482
C:\Users\SOLDER~1\AppData\Local\Temp\ccheWc1y.s:24386  .debug_str:000000000000c236 .LASF483
C:\Users\SOLDER~1\AppData\Local\Temp\ccheWc1y.s:28134  .debug_str:000000000001b5ab .LASF484
C:\Users\SOLDER~1\AppData\Local\Temp\ccheWc1y.s:28048  .debug_str:000000000001afff .LASF485
C:\Users\SOLDER~1\AppData\Local\Temp\ccheWc1y.s:31224  .debug_str:0000000000027dc5 .LASF486
C:\Users\SOLDER~1\AppData\Local\Temp\ccheWc1y.s:28620  .debug_str:000000000001d4e2 .LASF487
C:\Users\SOLDER~1\AppData\Local\Temp\ccheWc1y.s:25398  .debug_str:0000000000010500 .LASF488
C:\Users\SOLDER~1\AppData\Local\Temp\ccheWc1y.s:27534  .debug_str:0000000000018f1d .LASF489
C:\Users\SOLDER~1\AppData\Local\Temp\ccheWc1y.s:22636  .debug_str:0000000000004fe4 .LASF490
C:\Users\SOLDER~1\AppData\Local\Temp\ccheWc1y.s:25758  .debug_str:0000000000011bd1 .LASF491
C:\Users\SOLDER~1\AppData\Local\Temp\ccheWc1y.s:24710  .debug_str:000000000000d84b .LASF492
C:\Users\SOLDER~1\AppData\Local\Temp\ccheWc1y.s:30118  .debug_str:0000000000023517 .LASF494
C:\Users\SOLDER~1\AppData\Local\Temp\ccheWc1y.s:23750  .debug_str:00000000000098ce .LASF495
C:\Users\SOLDER~1\AppData\Local\Temp\ccheWc1y.s:22734  .debug_str:00000000000055c7 .LASF496
C:\Users\SOLDER~1\AppData\Local\Temp\ccheWc1y.s:28876  .debug_str:000000000001e54b .LASF497
C:\Users\SOLDER~1\AppData\Local\Temp\ccheWc1y.s:28200  .debug_str:000000000001b9be .LASF498
C:\Users\SOLDER~1\AppData\Local\Temp\ccheWc1y.s:28302  .debug_str:000000000001c007 .LASF499
C:\Users\SOLDER~1\AppData\Local\Temp\ccheWc1y.s:24978  .debug_str:000000000000e9c1 .LASF500
C:\Users\SOLDER~1\AppData\Local\Temp\ccheWc1y.s:22536  .debug_str:00000000000049da .LASF501
C:\Users\SOLDER~1\AppData\Local\Temp\ccheWc1y.s:25912  .debug_str:000000000001257e .LASF502
C:\Users\SOLDER~1\AppData\Local\Temp\ccheWc1y.s:30604  .debug_str:00000000000254e6 .LASF503
C:\Users\SOLDER~1\AppData\Local\Temp\ccheWc1y.s:26760  .debug_str:0000000000015d48 .LASF504
C:\Users\SOLDER~1\AppData\Local\Temp\ccheWc1y.s:21426  .debug_str:0000000000000186 .LASF505
C:\Users\SOLDER~1\AppData\Local\Temp\ccheWc1y.s:24790  .debug_str:000000000000dd7d .LASF506
C:\Users\SOLDER~1\AppData\Local\Temp\ccheWc1y.s:32804  .debug_str:000000000002e401 .LASF507
C:\Users\SOLDER~1\AppData\Local\Temp\ccheWc1y.s:31718  .debug_str:0000000000029dc0 .LASF508
C:\Users\SOLDER~1\AppData\Local\Temp\ccheWc1y.s:26292  .debug_str:0000000000013e60 .LASF509
C:\Users\SOLDER~1\AppData\Local\Temp\ccheWc1y.s:27224  .debug_str:0000000000017b0c .LASF510
C:\Users\SOLDER~1\AppData\Local\Temp\ccheWc1y.s:26598  .debug_str:000000000001533d .LASF511
C:\Users\SOLDER~1\AppData\Local\Temp\ccheWc1y.s:27674  .debug_str:000000000001985d .LASF512
C:\Users\SOLDER~1\AppData\Local\Temp\ccheWc1y.s:29540  .debug_str:0000000000021031 .LASF513
C:\Users\SOLDER~1\AppData\Local\Temp\ccheWc1y.s:28542  .debug_str:000000000001cf99 .LASF514
C:\Users\SOLDER~1\AppData\Local\Temp\ccheWc1y.s:30218  .debug_str:0000000000023bae .LASF515
C:\Users\SOLDER~1\AppData\Local\Temp\ccheWc1y.s:32334  .debug_str:000000000002c56c .LASF516
GAS LISTING C:\Users\SOLDER~1\AppData\Local\Temp\ccheWc1y.s 			page 75


C:\Users\SOLDER~1\AppData\Local\Temp\ccheWc1y.s:28784  .debug_str:000000000001df35 .LASF517
C:\Users\SOLDER~1\AppData\Local\Temp\ccheWc1y.s:32204  .debug_str:000000000002bd1a .LASF518
C:\Users\SOLDER~1\AppData\Local\Temp\ccheWc1y.s:30796  .debug_str:0000000000026152 .LASF519
C:\Users\SOLDER~1\AppData\Local\Temp\ccheWc1y.s:27946  .debug_str:000000000001a96f .LASF520
C:\Users\SOLDER~1\AppData\Local\Temp\ccheWc1y.s:22962  .debug_str:00000000000064f7 .LASF521
C:\Users\SOLDER~1\AppData\Local\Temp\ccheWc1y.s:30162  .debug_str:00000000000237d5 .LASF522
C:\Users\SOLDER~1\AppData\Local\Temp\ccheWc1y.s:26218  .debug_str:0000000000013942 .LASF523
C:\Users\SOLDER~1\AppData\Local\Temp\ccheWc1y.s:21920  .debug_str:0000000000002285 .LASF524
C:\Users\SOLDER~1\AppData\Local\Temp\ccheWc1y.s:28838  .debug_str:000000000001e2c8 .LASF525
C:\Users\SOLDER~1\AppData\Local\Temp\ccheWc1y.s:24850  .debug_str:000000000000e108 .LASF526
C:\Users\SOLDER~1\AppData\Local\Temp\ccheWc1y.s:26616  .debug_str:000000000001544d .LASF527
C:\Users\SOLDER~1\AppData\Local\Temp\ccheWc1y.s:24888  .debug_str:000000000000e388 .LASF528
C:\Users\SOLDER~1\AppData\Local\Temp\ccheWc1y.s:23636  .debug_str:0000000000009145 .LASF529
C:\Users\SOLDER~1\AppData\Local\Temp\ccheWc1y.s:23280  .debug_str:000000000000799f .LASF530
C:\Users\SOLDER~1\AppData\Local\Temp\ccheWc1y.s:24472  .debug_str:000000000000c83b .LASF531
C:\Users\SOLDER~1\AppData\Local\Temp\ccheWc1y.s:31152  .debug_str:0000000000027907 .LASF532
C:\Users\SOLDER~1\AppData\Local\Temp\ccheWc1y.s:32948  .debug_str:000000000002ecdd .LASF533
C:\Users\SOLDER~1\AppData\Local\Temp\ccheWc1y.s:25936  .debug_str:000000000001270c .LASF534
C:\Users\SOLDER~1\AppData\Local\Temp\ccheWc1y.s:32326  .debug_str:000000000002c4de .LASF535
C:\Users\SOLDER~1\AppData\Local\Temp\ccheWc1y.s:28424  .debug_str:000000000001c809 .LASF536
C:\Users\SOLDER~1\AppData\Local\Temp\ccheWc1y.s:24798  .debug_str:000000000000ddf3 .LASF537
C:\Users\SOLDER~1\AppData\Local\Temp\ccheWc1y.s:28194  .debug_str:000000000001b95a .LASF538
C:\Users\SOLDER~1\AppData\Local\Temp\ccheWc1y.s:22526  .debug_str:000000000000492b .LASF539
C:\Users\SOLDER~1\AppData\Local\Temp\ccheWc1y.s:30216  .debug_str:0000000000023b89 .LASF540
C:\Users\SOLDER~1\AppData\Local\Temp\ccheWc1y.s:28242  .debug_str:000000000001bc50 .LASF541
C:\Users\SOLDER~1\AppData\Local\Temp\ccheWc1y.s:32418  .debug_str:000000000002cb03 .LASF542
C:\Users\SOLDER~1\AppData\Local\Temp\ccheWc1y.s:24284  .debug_str:000000000000bb9b .LASF543
C:\Users\SOLDER~1\AppData\Local\Temp\ccheWc1y.s:31128  .debug_str:0000000000027770 .LASF544
C:\Users\SOLDER~1\AppData\Local\Temp\ccheWc1y.s:30354  .debug_str:000000000002445e .LASF545
C:\Users\SOLDER~1\AppData\Local\Temp\ccheWc1y.s:29110  .debug_str:000000000001f474 .LASF546
C:\Users\SOLDER~1\AppData\Local\Temp\ccheWc1y.s:31344  .debug_str:0000000000028585 .LASF547
C:\Users\SOLDER~1\AppData\Local\Temp\ccheWc1y.s:29324  .debug_str:00000000000202a2 .LASF548
C:\Users\SOLDER~1\AppData\Local\Temp\ccheWc1y.s:27422  .debug_str:000000000001880d .LASF549
C:\Users\SOLDER~1\AppData\Local\Temp\ccheWc1y.s:26122  .debug_str:00000000000132ec .LASF550
C:\Users\SOLDER~1\AppData\Local\Temp\ccheWc1y.s:29756  .debug_str:0000000000021de5 .LASF551
C:\Users\SOLDER~1\AppData\Local\Temp\ccheWc1y.s:26358  .debug_str:0000000000014315 .LASF552
C:\Users\SOLDER~1\AppData\Local\Temp\ccheWc1y.s:28978  .debug_str:000000000001ebe9 .LASF553
C:\Users\SOLDER~1\AppData\Local\Temp\ccheWc1y.s:26904  .debug_str:0000000000016698 .LASF554
C:\Users\SOLDER~1\AppData\Local\Temp\ccheWc1y.s:21750  .debug_str:0000000000001761 .LASF555
C:\Users\SOLDER~1\AppData\Local\Temp\ccheWc1y.s:25650  .debug_str:00000000000114ea .LASF556
C:\Users\SOLDER~1\AppData\Local\Temp\ccheWc1y.s:22920  .debug_str:0000000000006229 .LASF557
C:\Users\SOLDER~1\AppData\Local\Temp\ccheWc1y.s:25548  .debug_str:0000000000010e91 .LASF558
C:\Users\SOLDER~1\AppData\Local\Temp\ccheWc1y.s:25410  .debug_str:0000000000010587 .LASF559
C:\Users\SOLDER~1\AppData\Local\Temp\ccheWc1y.s:21840  .debug_str:0000000000001d54 .LASF560
C:\Users\SOLDER~1\AppData\Local\Temp\ccheWc1y.s:30670  .debug_str:00000000000258fe .LASF561
C:\Users\SOLDER~1\AppData\Local\Temp\ccheWc1y.s:32616  .debug_str:000000000002d817 .LASF562
C:\Users\SOLDER~1\AppData\Local\Temp\ccheWc1y.s:32860  .debug_str:000000000002e778 .LASF563
C:\Users\SOLDER~1\AppData\Local\Temp\ccheWc1y.s:24872  .debug_str:000000000000e26f .LASF564
C:\Users\SOLDER~1\AppData\Local\Temp\ccheWc1y.s:21658  .debug_str:0000000000001175 .LASF565
C:\Users\SOLDER~1\AppData\Local\Temp\ccheWc1y.s:30266  .debug_str:0000000000023ecb .LASF566
C:\Users\SOLDER~1\AppData\Local\Temp\ccheWc1y.s:28120  .debug_str:000000000001b4e9 .LASF567
C:\Users\SOLDER~1\AppData\Local\Temp\ccheWc1y.s:28360  .debug_str:000000000001c3b2 .LASF568
C:\Users\SOLDER~1\AppData\Local\Temp\ccheWc1y.s:21868  .debug_str:0000000000001f0d .LASF569
C:\Users\SOLDER~1\AppData\Local\Temp\ccheWc1y.s:26702  .debug_str:00000000000159f1 .LASF570
C:\Users\SOLDER~1\AppData\Local\Temp\ccheWc1y.s:30456  .debug_str:0000000000024b03 .LASF571
C:\Users\SOLDER~1\AppData\Local\Temp\ccheWc1y.s:25194  .debug_str:000000000000f748 .LASF572
C:\Users\SOLDER~1\AppData\Local\Temp\ccheWc1y.s:27150  .debug_str:00000000000175e6 .LASF573
GAS LISTING C:\Users\SOLDER~1\AppData\Local\Temp\ccheWc1y.s 			page 76


C:\Users\SOLDER~1\AppData\Local\Temp\ccheWc1y.s:25010  .debug_str:000000000000ebbf .LASF574
C:\Users\SOLDER~1\AppData\Local\Temp\ccheWc1y.s:27038  .debug_str:0000000000016edb .LASF575
C:\Users\SOLDER~1\AppData\Local\Temp\ccheWc1y.s:26148  .debug_str:00000000000134a4 .LASF576
C:\Users\SOLDER~1\AppData\Local\Temp\ccheWc1y.s:26110  .debug_str:000000000001322c .LASF577
C:\Users\SOLDER~1\AppData\Local\Temp\ccheWc1y.s:32692  .debug_str:000000000002dcd7 .LASF578
C:\Users\SOLDER~1\AppData\Local\Temp\ccheWc1y.s:27602  .debug_str:00000000000193d2 .LASF579
C:\Users\SOLDER~1\AppData\Local\Temp\ccheWc1y.s:30872  .debug_str:0000000000026679 .LASF580
C:\Users\SOLDER~1\AppData\Local\Temp\ccheWc1y.s:22522  .debug_str:00000000000048ed .LASF581
C:\Users\SOLDER~1\AppData\Local\Temp\ccheWc1y.s:25892  .debug_str:0000000000012432 .LASF582
C:\Users\SOLDER~1\AppData\Local\Temp\ccheWc1y.s:29130  .debug_str:000000000001f5ce .LASF583
C:\Users\SOLDER~1\AppData\Local\Temp\ccheWc1y.s:32454  .debug_str:000000000002cd54 .LASF584
C:\Users\SOLDER~1\AppData\Local\Temp\ccheWc1y.s:24094  .debug_str:000000000000af91 .LASF585
C:\Users\SOLDER~1\AppData\Local\Temp\ccheWc1y.s:31986  .debug_str:000000000002aef8 .LASF586
C:\Users\SOLDER~1\AppData\Local\Temp\ccheWc1y.s:30882  .debug_str:0000000000026713 .LASF587
C:\Users\SOLDER~1\AppData\Local\Temp\ccheWc1y.s:26046  .debug_str:0000000000012db5 .LASF588
C:\Users\SOLDER~1\AppData\Local\Temp\ccheWc1y.s:27976  .debug_str:000000000001ab3f .LASF589
C:\Users\SOLDER~1\AppData\Local\Temp\ccheWc1y.s:30152  .debug_str:000000000002373e .LASF590
C:\Users\SOLDER~1\AppData\Local\Temp\ccheWc1y.s:27070  .debug_str:00000000000170cb .LASF591
C:\Users\SOLDER~1\AppData\Local\Temp\ccheWc1y.s:31604  .debug_str:0000000000029622 .LASF592
C:\Users\SOLDER~1\AppData\Local\Temp\ccheWc1y.s:28682  .debug_str:000000000001d923 .LASF593
C:\Users\SOLDER~1\AppData\Local\Temp\ccheWc1y.s:27368  .debug_str:0000000000018469 .LASF594
C:\Users\SOLDER~1\AppData\Local\Temp\ccheWc1y.s:32794  .debug_str:000000000002e341 .LASF595
C:\Users\SOLDER~1\AppData\Local\Temp\ccheWc1y.s:24106  .debug_str:000000000000b069 .LASF596
C:\Users\SOLDER~1\AppData\Local\Temp\ccheWc1y.s:32212  .debug_str:000000000002bd85 .LASF597
C:\Users\SOLDER~1\AppData\Local\Temp\ccheWc1y.s:26086  .debug_str:000000000001306a .LASF598
C:\Users\SOLDER~1\AppData\Local\Temp\ccheWc1y.s:31618  .debug_str:000000000002971d .LASF599
C:\Users\SOLDER~1\AppData\Local\Temp\ccheWc1y.s:25526  .debug_str:0000000000010cf2 .LASF600
C:\Users\SOLDER~1\AppData\Local\Temp\ccheWc1y.s:30932  .debug_str:0000000000026a98 .LASF601
C:\Users\SOLDER~1\AppData\Local\Temp\ccheWc1y.s:31036  .debug_str:000000000002717e .LASF602
C:\Users\SOLDER~1\AppData\Local\Temp\ccheWc1y.s:24876  .debug_str:000000000000e2b4 .LASF603
C:\Users\SOLDER~1\AppData\Local\Temp\ccheWc1y.s:24662  .debug_str:000000000000d51f .LASF604
C:\Users\SOLDER~1\AppData\Local\Temp\ccheWc1y.s:28760  .debug_str:000000000001dde1 .LASF605
C:\Users\SOLDER~1\AppData\Local\Temp\ccheWc1y.s:30704  .debug_str:0000000000025b0f .LASF606
C:\Users\SOLDER~1\AppData\Local\Temp\ccheWc1y.s:27156  .debug_str:0000000000017654 .LASF607
C:\Users\SOLDER~1\AppData\Local\Temp\ccheWc1y.s:29910  .debug_str:000000000002278d .LASF608
C:\Users\SOLDER~1\AppData\Local\Temp\ccheWc1y.s:32298  .debug_str:000000000002c2e6 .LASF609
C:\Users\SOLDER~1\AppData\Local\Temp\ccheWc1y.s:23724  .debug_str:000000000000973f .LASF610
C:\Users\SOLDER~1\AppData\Local\Temp\ccheWc1y.s:25826  .debug_str:0000000000012013 .LASF611
C:\Users\SOLDER~1\AppData\Local\Temp\ccheWc1y.s:26098  .debug_str:000000000001315b .LASF612
C:\Users\SOLDER~1\AppData\Local\Temp\ccheWc1y.s:28754  .debug_str:000000000001dd8c .LASF613
C:\Users\SOLDER~1\AppData\Local\Temp\ccheWc1y.s:23162  .debug_str:0000000000007278 .LASF614
C:\Users\SOLDER~1\AppData\Local\Temp\ccheWc1y.s:21884  .debug_str:0000000000002036 .LASF615
C:\Users\SOLDER~1\AppData\Local\Temp\ccheWc1y.s:27228  .debug_str:0000000000017b55 .LASF616
C:\Users\SOLDER~1\AppData\Local\Temp\ccheWc1y.s:22758  .debug_str:0000000000005731 .LASF617
C:\Users\SOLDER~1\AppData\Local\Temp\ccheWc1y.s:30626  .debug_str:0000000000025644 .LASF618
C:\Users\SOLDER~1\AppData\Local\Temp\ccheWc1y.s:22172  .debug_str:0000000000003295 .LASF619
C:\Users\SOLDER~1\AppData\Local\Temp\ccheWc1y.s:28884  .debug_str:000000000001e5c8 .LASF620
C:\Users\SOLDER~1\AppData\Local\Temp\ccheWc1y.s:22266  .debug_str:00000000000038a9 .LASF621
C:\Users\SOLDER~1\AppData\Local\Temp\ccheWc1y.s:26766  .debug_str:0000000000015db9 .LASF622
C:\Users\SOLDER~1\AppData\Local\Temp\ccheWc1y.s:27848  .debug_str:000000000001a31f .LASF623
C:\Users\SOLDER~1\AppData\Local\Temp\ccheWc1y.s:29100  .debug_str:000000000001f3cf .LASF624
C:\Users\SOLDER~1\AppData\Local\Temp\ccheWc1y.s:28434  .debug_str:000000000001c899 .LASF625
C:\Users\SOLDER~1\AppData\Local\Temp\ccheWc1y.s:23128  .debug_str:0000000000007002 .LASF626
C:\Users\SOLDER~1\AppData\Local\Temp\ccheWc1y.s:23086  .debug_str:0000000000006d31 .LASF627
C:\Users\SOLDER~1\AppData\Local\Temp\ccheWc1y.s:28084  .debug_str:000000000001b29f .LASF628
C:\Users\SOLDER~1\AppData\Local\Temp\ccheWc1y.s:24880  .debug_str:000000000000e2fe .LASF629
C:\Users\SOLDER~1\AppData\Local\Temp\ccheWc1y.s:29396  .debug_str:00000000000206f7 .LASF630
GAS LISTING C:\Users\SOLDER~1\AppData\Local\Temp\ccheWc1y.s 			page 77


C:\Users\SOLDER~1\AppData\Local\Temp\ccheWc1y.s:28354  .debug_str:000000000001c359 .LASF631
C:\Users\SOLDER~1\AppData\Local\Temp\ccheWc1y.s:29384  .debug_str:0000000000020632 .LASF632
C:\Users\SOLDER~1\AppData\Local\Temp\ccheWc1y.s:27814  .debug_str:000000000001a122 .LASF633
C:\Users\SOLDER~1\AppData\Local\Temp\ccheWc1y.s:31440  .debug_str:0000000000028bd3 .LASF634
C:\Users\SOLDER~1\AppData\Local\Temp\ccheWc1y.s:26564  .debug_str:00000000000150fb .LASF635
C:\Users\SOLDER~1\AppData\Local\Temp\ccheWc1y.s:28318  .debug_str:000000000001c110 .LASF636
C:\Users\SOLDER~1\AppData\Local\Temp\ccheWc1y.s:30506  .debug_str:0000000000024e57 .LASF637
C:\Users\SOLDER~1\AppData\Local\Temp\ccheWc1y.s:21850  .debug_str:0000000000001df4 .LASF638
C:\Users\SOLDER~1\AppData\Local\Temp\ccheWc1y.s:32306  .debug_str:000000000002c37b .LASF639
C:\Users\SOLDER~1\AppData\Local\Temp\ccheWc1y.s:26150  .debug_str:00000000000134c2 .LASF640
C:\Users\SOLDER~1\AppData\Local\Temp\ccheWc1y.s:27178  .debug_str:00000000000177fa .LASF641
C:\Users\SOLDER~1\AppData\Local\Temp\ccheWc1y.s:27082  .debug_str:0000000000017177 .LASF642
C:\Users\SOLDER~1\AppData\Local\Temp\ccheWc1y.s:28452  .debug_str:000000000001c9b5 .LASF643
C:\Users\SOLDER~1\AppData\Local\Temp\ccheWc1y.s:22990  .debug_str:00000000000066d5 .LASF644
C:\Users\SOLDER~1\AppData\Local\Temp\ccheWc1y.s:30450  .debug_str:0000000000024aa5 .LASF645
C:\Users\SOLDER~1\AppData\Local\Temp\ccheWc1y.s:27136  .debug_str:00000000000174ef .LASF646
C:\Users\SOLDER~1\AppData\Local\Temp\ccheWc1y.s:25018  .debug_str:000000000000ec42 .LASF647
C:\Users\SOLDER~1\AppData\Local\Temp\ccheWc1y.s:26558  .debug_str:0000000000015081 .LASF648
C:\Users\SOLDER~1\AppData\Local\Temp\ccheWc1y.s:25100  .debug_str:000000000000f159 .LASF649
C:\Users\SOLDER~1\AppData\Local\Temp\ccheWc1y.s:31786  .debug_str:000000000002a20d .LASF650
C:\Users\SOLDER~1\AppData\Local\Temp\ccheWc1y.s:27984  .debug_str:000000000001abbf .LASF651
C:\Users\SOLDER~1\AppData\Local\Temp\ccheWc1y.s:25980  .debug_str:0000000000012993 .LASF652
C:\Users\SOLDER~1\AppData\Local\Temp\ccheWc1y.s:27590  .debug_str:00000000000192f3 .LASF653
C:\Users\SOLDER~1\AppData\Local\Temp\ccheWc1y.s:26882  .debug_str:000000000001652c .LASF654
C:\Users\SOLDER~1\AppData\Local\Temp\ccheWc1y.s:32814  .debug_str:000000000002e4a5 .LASF655
C:\Users\SOLDER~1\AppData\Local\Temp\ccheWc1y.s:27636  .debug_str:0000000000019606 .LASF656
C:\Users\SOLDER~1\AppData\Local\Temp\ccheWc1y.s:32068  .debug_str:000000000002b440 .LASF657
C:\Users\SOLDER~1\AppData\Local\Temp\ccheWc1y.s:29248  .debug_str:000000000001fdd5 .LASF658
C:\Users\SOLDER~1\AppData\Local\Temp\ccheWc1y.s:31330  .debug_str:00000000000284ad .LASF659
C:\Users\SOLDER~1\AppData\Local\Temp\ccheWc1y.s:30246  .debug_str:0000000000023da4 .LASF660
C:\Users\SOLDER~1\AppData\Local\Temp\ccheWc1y.s:32460  .debug_str:000000000002cdcb .LASF661
C:\Users\SOLDER~1\AppData\Local\Temp\ccheWc1y.s:24890  .debug_str:000000000000e3ac .LASF662
C:\Users\SOLDER~1\AppData\Local\Temp\ccheWc1y.s:24184  .debug_str:000000000000b587 .LASF663
C:\Users\SOLDER~1\AppData\Local\Temp\ccheWc1y.s:22614  .debug_str:0000000000004ea8 .LASF664
C:\Users\SOLDER~1\AppData\Local\Temp\ccheWc1y.s:28906  .debug_str:000000000001e741 .LASF665
C:\Users\SOLDER~1\AppData\Local\Temp\ccheWc1y.s:29188  .debug_str:000000000001f9ca .LASF666
C:\Users\SOLDER~1\AppData\Local\Temp\ccheWc1y.s:29204  .debug_str:000000000001faee .LASF667
C:\Users\SOLDER~1\AppData\Local\Temp\ccheWc1y.s:23048  .debug_str:0000000000006afe .LASF668
C:\Users\SOLDER~1\AppData\Local\Temp\ccheWc1y.s:30282  .debug_str:0000000000023fd0 .LASF669
C:\Users\SOLDER~1\AppData\Local\Temp\ccheWc1y.s:31302  .debug_str:00000000000282e2 .LASF670
C:\Users\SOLDER~1\AppData\Local\Temp\ccheWc1y.s:32782  .debug_str:000000000002e291 .LASF671
C:\Users\SOLDER~1\AppData\Local\Temp\ccheWc1y.s:32060  .debug_str:000000000002b3c6 .LASF672
C:\Users\SOLDER~1\AppData\Local\Temp\ccheWc1y.s:28288  .debug_str:000000000001beff .LASF673
C:\Users\SOLDER~1\AppData\Local\Temp\ccheWc1y.s:26848  .debug_str:00000000000162e3 .LASF674
C:\Users\SOLDER~1\AppData\Local\Temp\ccheWc1y.s:22300  .debug_str:0000000000003ad9 .LASF675
C:\Users\SOLDER~1\AppData\Local\Temp\ccheWc1y.s:25556  .debug_str:0000000000010f12 .LASF676
C:\Users\SOLDER~1\AppData\Local\Temp\ccheWc1y.s:27990  .debug_str:000000000001ac2f .LASF677
C:\Users\SOLDER~1\AppData\Local\Temp\ccheWc1y.s:31108  .debug_str:0000000000027626 .LASF678
C:\Users\SOLDER~1\AppData\Local\Temp\ccheWc1y.s:32386  .debug_str:000000000002c911 .LASF679
C:\Users\SOLDER~1\AppData\Local\Temp\ccheWc1y.s:27302  .debug_str:0000000000018011 .LASF680
C:\Users\SOLDER~1\AppData\Local\Temp\ccheWc1y.s:28826  .debug_str:000000000001e1e8 .LASF681
C:\Users\SOLDER~1\AppData\Local\Temp\ccheWc1y.s:26100  .debug_str:0000000000013173 .LASF682
C:\Users\SOLDER~1\AppData\Local\Temp\ccheWc1y.s:27018  .debug_str:0000000000016da5 .LASF683
C:\Users\SOLDER~1\AppData\Local\Temp\ccheWc1y.s:23528  .debug_str:00000000000089fb .LASF684
C:\Users\SOLDER~1\AppData\Local\Temp\ccheWc1y.s:28604  .debug_str:000000000001d3dd .LASF685
C:\Users\SOLDER~1\AppData\Local\Temp\ccheWc1y.s:29146  .debug_str:000000000001f6ea .LASF686
C:\Users\SOLDER~1\AppData\Local\Temp\ccheWc1y.s:21816  .debug_str:0000000000001b94 .LASF687
GAS LISTING C:\Users\SOLDER~1\AppData\Local\Temp\ccheWc1y.s 			page 78


C:\Users\SOLDER~1\AppData\Local\Temp\ccheWc1y.s:28918  .debug_str:000000000001e7f3 .LASF688
C:\Users\SOLDER~1\AppData\Local\Temp\ccheWc1y.s:32272  .debug_str:000000000002c142 .LASF689
C:\Users\SOLDER~1\AppData\Local\Temp\ccheWc1y.s:21430  .debug_str:00000000000001b8 .LASF690
C:\Users\SOLDER~1\AppData\Local\Temp\ccheWc1y.s:29420  .debug_str:0000000000020876 .LASF691
C:\Users\SOLDER~1\AppData\Local\Temp\ccheWc1y.s:29368  .debug_str:0000000000020528 .LASF692
C:\Users\SOLDER~1\AppData\Local\Temp\ccheWc1y.s:23622  .debug_str:0000000000009052 .LASF693
C:\Users\SOLDER~1\AppData\Local\Temp\ccheWc1y.s:29112  .debug_str:000000000001f4a1 .LASF694
C:\Users\SOLDER~1\AppData\Local\Temp\ccheWc1y.s:23606  .debug_str:0000000000008f31 .LASF695
C:\Users\SOLDER~1\AppData\Local\Temp\ccheWc1y.s:28614  .debug_str:000000000001d48b .LASF696
C:\Users\SOLDER~1\AppData\Local\Temp\ccheWc1y.s:31292  .debug_str:000000000002821f .LASF697
C:\Users\SOLDER~1\AppData\Local\Temp\ccheWc1y.s:32082  .debug_str:000000000002b509 .LASF698
C:\Users\SOLDER~1\AppData\Local\Temp\ccheWc1y.s:25034  .debug_str:000000000000ed6a .LASF699
C:\Users\SOLDER~1\AppData\Local\Temp\ccheWc1y.s:32784  .debug_str:000000000002e2a7 .LASF700
C:\Users\SOLDER~1\AppData\Local\Temp\ccheWc1y.s:27846  .debug_str:000000000001a30c .LASF701
C:\Users\SOLDER~1\AppData\Local\Temp\ccheWc1y.s:22234  .debug_str:0000000000003688 .LASF702
C:\Users\SOLDER~1\AppData\Local\Temp\ccheWc1y.s:30356  .debug_str:000000000002448b .LASF703
C:\Users\SOLDER~1\AppData\Local\Temp\ccheWc1y.s:28322  .debug_str:000000000001c13b .LASF704
C:\Users\SOLDER~1\AppData\Local\Temp\ccheWc1y.s:31342  .debug_str:0000000000028562 .LASF705
C:\Users\SOLDER~1\AppData\Local\Temp\ccheWc1y.s:27054  .debug_str:0000000000016ff2 .LASF706
C:\Users\SOLDER~1\AppData\Local\Temp\ccheWc1y.s:24338  .debug_str:000000000000bf45 .LASF707
C:\Users\SOLDER~1\AppData\Local\Temp\ccheWc1y.s:29952  .debug_str:00000000000229ff .LASF708
C:\Users\SOLDER~1\AppData\Local\Temp\ccheWc1y.s:29414  .debug_str:000000000002080d .LASF709
C:\Users\SOLDER~1\AppData\Local\Temp\ccheWc1y.s:22252  .debug_str:00000000000037a7 .LASF710
C:\Users\SOLDER~1\AppData\Local\Temp\ccheWc1y.s:30838  .debug_str:0000000000026419 .LASF711
C:\Users\SOLDER~1\AppData\Local\Temp\ccheWc1y.s:30144  .debug_str:00000000000236aa .LASF712
C:\Users\SOLDER~1\AppData\Local\Temp\ccheWc1y.s:23390  .debug_str:000000000000810a .LASF713
C:\Users\SOLDER~1\AppData\Local\Temp\ccheWc1y.s:31186  .debug_str:0000000000027b46 .LASF714
C:\Users\SOLDER~1\AppData\Local\Temp\ccheWc1y.s:29128  .debug_str:000000000001f5ab .LASF715
C:\Users\SOLDER~1\AppData\Local\Temp\ccheWc1y.s:30296  .debug_str:0000000000024085 .LASF716
C:\Users\SOLDER~1\AppData\Local\Temp\ccheWc1y.s:25580  .debug_str:0000000000011073 .LASF717
C:\Users\SOLDER~1\AppData\Local\Temp\ccheWc1y.s:32824  .debug_str:000000000002e552 .LASF718
C:\Users\SOLDER~1\AppData\Local\Temp\ccheWc1y.s:28020  .debug_str:000000000001ae4d .LASF719
C:\Users\SOLDER~1\AppData\Local\Temp\ccheWc1y.s:26014  .debug_str:0000000000012bf5 .LASF720
C:\Users\SOLDER~1\AppData\Local\Temp\ccheWc1y.s:29694  .debug_str:0000000000021a0f .LASF721
C:\Users\SOLDER~1\AppData\Local\Temp\ccheWc1y.s:27816  .debug_str:000000000001a144 .LASF722
C:\Users\SOLDER~1\AppData\Local\Temp\ccheWc1y.s:29738  .debug_str:0000000000021cd4 .LASF723
C:\Users\SOLDER~1\AppData\Local\Temp\ccheWc1y.s:26946  .debug_str:0000000000016938 .LASF724
C:\Users\SOLDER~1\AppData\Local\Temp\ccheWc1y.s:26188  .debug_str:0000000000013746 .LASF725
C:\Users\SOLDER~1\AppData\Local\Temp\ccheWc1y.s:31954  .debug_str:000000000002ad55 .LASF726
C:\Users\SOLDER~1\AppData\Local\Temp\ccheWc1y.s:26368  .debug_str:00000000000143ca .LASF727
C:\Users\SOLDER~1\AppData\Local\Temp\ccheWc1y.s:21574  .debug_str:0000000000000c09 .LASF728
C:\Users\SOLDER~1\AppData\Local\Temp\ccheWc1y.s:24786  .debug_str:000000000000dd35 .LASF729
C:\Users\SOLDER~1\AppData\Local\Temp\ccheWc1y.s:27668  .debug_str:0000000000019803 .LASF730
C:\Users\SOLDER~1\AppData\Local\Temp\ccheWc1y.s:28270  .debug_str:000000000001bde5 .LASF731
C:\Users\SOLDER~1\AppData\Local\Temp\ccheWc1y.s:23214  .debug_str:00000000000075bb .LASF732
C:\Users\SOLDER~1\AppData\Local\Temp\ccheWc1y.s:23834  .debug_str:0000000000009e39 .LASF733
C:\Users\SOLDER~1\AppData\Local\Temp\ccheWc1y.s:29936  .debug_str:00000000000228ed .LASF734
C:\Users\SOLDER~1\AppData\Local\Temp\ccheWc1y.s:29870  .debug_str:000000000002251f .LASF735
C:\Users\SOLDER~1\AppData\Local\Temp\ccheWc1y.s:27500  .debug_str:0000000000018d08 .LASF736
C:\Users\SOLDER~1\AppData\Local\Temp\ccheWc1y.s:24332  .debug_str:000000000000bed0 .LASF737
C:\Users\SOLDER~1\AppData\Local\Temp\ccheWc1y.s:32952  .debug_str:000000000002ed1f .LASF738
C:\Users\SOLDER~1\AppData\Local\Temp\ccheWc1y.s:24566  .debug_str:000000000000ced1 .LASF739
C:\Users\SOLDER~1\AppData\Local\Temp\ccheWc1y.s:21922  .debug_str:00000000000022ab .LASF740
C:\Users\SOLDER~1\AppData\Local\Temp\ccheWc1y.s:26674  .debug_str:0000000000015810 .LASF741
C:\Users\SOLDER~1\AppData\Local\Temp\ccheWc1y.s:24320  .debug_str:000000000000bdf4 .LASF742
C:\Users\SOLDER~1\AppData\Local\Temp\ccheWc1y.s:31218  .debug_str:0000000000027d62 .LASF743
C:\Users\SOLDER~1\AppData\Local\Temp\ccheWc1y.s:27834  .debug_str:000000000001a263 .LASF744
GAS LISTING C:\Users\SOLDER~1\AppData\Local\Temp\ccheWc1y.s 			page 79


C:\Users\SOLDER~1\AppData\Local\Temp\ccheWc1y.s:25956  .debug_str:0000000000012842 .LASF745
C:\Users\SOLDER~1\AppData\Local\Temp\ccheWc1y.s:29284  .debug_str:0000000000020028 .LASF746
C:\Users\SOLDER~1\AppData\Local\Temp\ccheWc1y.s:29864  .debug_str:00000000000224b9 .LASF747
C:\Users\SOLDER~1\AppData\Local\Temp\ccheWc1y.s:30804  .debug_str:00000000000261b4 .LASF748
C:\Users\SOLDER~1\AppData\Local\Temp\ccheWc1y.s:30234  .debug_str:0000000000023cd2 .LASF749
C:\Users\SOLDER~1\AppData\Local\Temp\ccheWc1y.s:23112  .debug_str:0000000000006ec9 .LASF750
C:\Users\SOLDER~1\AppData\Local\Temp\ccheWc1y.s:22598  .debug_str:0000000000004dc3 .LASF751
C:\Users\SOLDER~1\AppData\Local\Temp\ccheWc1y.s:24008  .debug_str:000000000000aa1c .LASF752
C:\Users\SOLDER~1\AppData\Local\Temp\ccheWc1y.s:24232  .debug_str:000000000000b8ba .LASF753
C:\Users\SOLDER~1\AppData\Local\Temp\ccheWc1y.s:32046  .debug_str:000000000002b2e6 .LASF754
C:\Users\SOLDER~1\AppData\Local\Temp\ccheWc1y.s:29948  .debug_str:00000000000229c4 .LASF755
C:\Users\SOLDER~1\AppData\Local\Temp\ccheWc1y.s:22072  .debug_str:0000000000002c2c .LASF756
C:\Users\SOLDER~1\AppData\Local\Temp\ccheWc1y.s:31248  .debug_str:0000000000027f4d .LASF757
C:\Users\SOLDER~1\AppData\Local\Temp\ccheWc1y.s:21954  .debug_str:00000000000024d4 .LASF758
C:\Users\SOLDER~1\AppData\Local\Temp\ccheWc1y.s:28854  .debug_str:000000000001e3e3 .LASF759
C:\Users\SOLDER~1\AppData\Local\Temp\ccheWc1y.s:26884  .debug_str:0000000000016551 .LASF760
C:\Users\SOLDER~1\AppData\Local\Temp\ccheWc1y.s:21470  .debug_str:0000000000000449 .LASF761
C:\Users\SOLDER~1\AppData\Local\Temp\ccheWc1y.s:21656  .debug_str:0000000000001155 .LASF762
C:\Users\SOLDER~1\AppData\Local\Temp\ccheWc1y.s:30334  .debug_str:0000000000024315 .LASF763
C:\Users\SOLDER~1\AppData\Local\Temp\ccheWc1y.s:30644  .debug_str:0000000000025755 .LASF764
C:\Users\SOLDER~1\AppData\Local\Temp\ccheWc1y.s:22872  .debug_str:0000000000005ecf .LASF765
C:\Users\SOLDER~1\AppData\Local\Temp\ccheWc1y.s:23692  .debug_str:0000000000009519 .LASF766
C:\Users\SOLDER~1\AppData\Local\Temp\ccheWc1y.s:31790  .debug_str:000000000002a24e .LASF767
C:\Users\SOLDER~1\AppData\Local\Temp\ccheWc1y.s:21602  .debug_str:0000000000000e09 .LASF768
C:\Users\SOLDER~1\AppData\Local\Temp\ccheWc1y.s:26468  .debug_str:0000000000014aae .LASF769
C:\Users\SOLDER~1\AppData\Local\Temp\ccheWc1y.s:28474  .debug_str:000000000001cb13 .LASF770
C:\Users\SOLDER~1\AppData\Local\Temp\ccheWc1y.s:23168  .debug_str:00000000000072cf .LASF771
C:\Users\SOLDER~1\AppData\Local\Temp\ccheWc1y.s:22842  .debug_str:0000000000005cd8 .LASF772
C:\Users\SOLDER~1\AppData\Local\Temp\ccheWc1y.s:24442  .debug_str:000000000000c603 .LASF773
C:\Users\SOLDER~1\AppData\Local\Temp\ccheWc1y.s:21974  .debug_str:0000000000002610 .LASF774
C:\Users\SOLDER~1\AppData\Local\Temp\ccheWc1y.s:22638  .debug_str:0000000000004ffe .LASF775
C:\Users\SOLDER~1\AppData\Local\Temp\ccheWc1y.s:22620  .debug_str:0000000000004f0f .LASF776
C:\Users\SOLDER~1\AppData\Local\Temp\ccheWc1y.s:22894  .debug_str:0000000000006030 .LASF777
C:\Users\SOLDER~1\AppData\Local\Temp\ccheWc1y.s:31944  .debug_str:000000000002acb5 .LASF778
C:\Users\SOLDER~1\AppData\Local\Temp\ccheWc1y.s:28706  .debug_str:000000000001dab3 .LASF779
C:\Users\SOLDER~1\AppData\Local\Temp\ccheWc1y.s:27826  .debug_str:000000000001a1dd .LASF780
C:\Users\SOLDER~1\AppData\Local\Temp\ccheWc1y.s:29704  .debug_str:0000000000021aa2 .LASF781
C:\Users\SOLDER~1\AppData\Local\Temp\ccheWc1y.s:23482  .debug_str:0000000000008716 .LASF782
C:\Users\SOLDER~1\AppData\Local\Temp\ccheWc1y.s:33092  .debug_str:000000000002f62d .LASF783
C:\Users\SOLDER~1\AppData\Local\Temp\ccheWc1y.s:21812  .debug_str:0000000000001b50 .LASF784
C:\Users\SOLDER~1\AppData\Local\Temp\ccheWc1y.s:24748  .debug_str:000000000000daac .LASF785
C:\Users\SOLDER~1\AppData\Local\Temp\ccheWc1y.s:23164  .debug_str:0000000000007290 .LASF786
C:\Users\SOLDER~1\AppData\Local\Temp\ccheWc1y.s:28122  .debug_str:000000000001b50a .LASF787
C:\Users\SOLDER~1\AppData\Local\Temp\ccheWc1y.s:30140  .debug_str:0000000000023669 .LASF788
C:\Users\SOLDER~1\AppData\Local\Temp\ccheWc1y.s:27304  .debug_str:0000000000018035 .LASF789
C:\Users\SOLDER~1\AppData\Local\Temp\ccheWc1y.s:32752  .debug_str:000000000002e0b0 .LASF790
C:\Users\SOLDER~1\AppData\Local\Temp\ccheWc1y.s:27642  .debug_str:0000000000019672 .LASF791
C:\Users\SOLDER~1\AppData\Local\Temp\ccheWc1y.s:33044  .debug_str:000000000002f339 .LASF792
C:\Users\SOLDER~1\AppData\Local\Temp\ccheWc1y.s:25760  .debug_str:0000000000011beb .LASF793
C:\Users\SOLDER~1\AppData\Local\Temp\ccheWc1y.s:30876  .debug_str:00000000000266b3 .LASF794
C:\Users\SOLDER~1\AppData\Local\Temp\ccheWc1y.s:31306  .debug_str:000000000002832c .LASF795
C:\Users\SOLDER~1\AppData\Local\Temp\ccheWc1y.s:24416  .debug_str:000000000000c43f .LASF796
C:\Users\SOLDER~1\AppData\Local\Temp\ccheWc1y.s:31336  .debug_str:0000000000028509 .LASF797
C:\Users\SOLDER~1\AppData\Local\Temp\ccheWc1y.s:26662  .debug_str:000000000001574f .LASF798
C:\Users\SOLDER~1\AppData\Local\Temp\ccheWc1y.s:26628  .debug_str:00000000000154ef .LASF799
C:\Users\SOLDER~1\AppData\Local\Temp\ccheWc1y.s:26078  .debug_str:0000000000012fea .LASF800
C:\Users\SOLDER~1\AppData\Local\Temp\ccheWc1y.s:24478  .debug_str:000000000000c8a1 .LASF801
GAS LISTING C:\Users\SOLDER~1\AppData\Local\Temp\ccheWc1y.s 			page 80


C:\Users\SOLDER~1\AppData\Local\Temp\ccheWc1y.s:29184  .debug_str:000000000001f986 .LASF802
C:\Users\SOLDER~1\AppData\Local\Temp\ccheWc1y.s:33042  .debug_str:000000000002f317 .LASF803
C:\Users\SOLDER~1\AppData\Local\Temp\ccheWc1y.s:32790  .debug_str:000000000002e2fd .LASF804
C:\Users\SOLDER~1\AppData\Local\Temp\ccheWc1y.s:30988  .debug_str:0000000000026e38 .LASF805
C:\Users\SOLDER~1\AppData\Local\Temp\ccheWc1y.s:22024  .debug_str:0000000000002965 .LASF806
C:\Users\SOLDER~1\AppData\Local\Temp\ccheWc1y.s:31048  .debug_str:0000000000027258 .LASF807
C:\Users\SOLDER~1\AppData\Local\Temp\ccheWc1y.s:31268  .debug_str:000000000002806e .LASF808
C:\Users\SOLDER~1\AppData\Local\Temp\ccheWc1y.s:23044  .debug_str:0000000000006abc .LASF809
C:\Users\SOLDER~1\AppData\Local\Temp\ccheWc1y.s:27888  .debug_str:000000000001a5ac .LASF810
C:\Users\SOLDER~1\AppData\Local\Temp\ccheWc1y.s:26934  .debug_str:000000000001688e .LASF811
C:\Users\SOLDER~1\AppData\Local\Temp\ccheWc1y.s:23014  .debug_str:0000000000006870 .LASF812
C:\Users\SOLDER~1\AppData\Local\Temp\ccheWc1y.s:32634  .debug_str:000000000002d92b .LASF813
C:\Users\SOLDER~1\AppData\Local\Temp\ccheWc1y.s:31652  .debug_str:0000000000029979 .LASF814
C:\Users\SOLDER~1\AppData\Local\Temp\ccheWc1y.s:29860  .debug_str:0000000000022480 .LASF815
C:\Users\SOLDER~1\AppData\Local\Temp\ccheWc1y.s:32302  .debug_str:000000000002c334 .LASF816
C:\Users\SOLDER~1\AppData\Local\Temp\ccheWc1y.s:31170  .debug_str:0000000000027a45 .LASF817
C:\Users\SOLDER~1\AppData\Local\Temp\ccheWc1y.s:29194  .debug_str:000000000001fa39 .LASF818
C:\Users\SOLDER~1\AppData\Local\Temp\ccheWc1y.s:30922  .debug_str:00000000000269ea .LASF819
C:\Users\SOLDER~1\AppData\Local\Temp\ccheWc1y.s:27950  .debug_str:000000000001a9b5 .LASF820
C:\Users\SOLDER~1\AppData\Local\Temp\ccheWc1y.s:24614  .debug_str:000000000000d206 .LASF821
C:\Users\SOLDER~1\AppData\Local\Temp\ccheWc1y.s:27634  .debug_str:00000000000195e9 .LASF822
C:\Users\SOLDER~1\AppData\Local\Temp\ccheWc1y.s:23774  .debug_str:0000000000009a64 .LASF823
C:\Users\SOLDER~1\AppData\Local\Temp\ccheWc1y.s:28788  .debug_str:000000000001df7d .LASF824
C:\Users\SOLDER~1\AppData\Local\Temp\ccheWc1y.s:25088  .debug_str:000000000000f087 .LASF825
C:\Users\SOLDER~1\AppData\Local\Temp\ccheWc1y.s:28556  .debug_str:000000000001d09d .LASF826
C:\Users\SOLDER~1\AppData\Local\Temp\ccheWc1y.s:31216  .debug_str:0000000000027d51 .LASF827
C:\Users\SOLDER~1\AppData\Local\Temp\ccheWc1y.s:27374  .debug_str:00000000000184ea .LASF828
C:\Users\SOLDER~1\AppData\Local\Temp\ccheWc1y.s:24646  .debug_str:000000000000d3f9 .LASF829
C:\Users\SOLDER~1\AppData\Local\Temp\ccheWc1y.s:30732  .debug_str:0000000000025cd9 .LASF830
C:\Users\SOLDER~1\AppData\Local\Temp\ccheWc1y.s:25274  .debug_str:000000000000fc74 .LASF831
C:\Users\SOLDER~1\AppData\Local\Temp\ccheWc1y.s:31644  .debug_str:00000000000298db .LASF832
C:\Users\SOLDER~1\AppData\Local\Temp\ccheWc1y.s:23688  .debug_str:00000000000094d3 .LASF833
C:\Users\SOLDER~1\AppData\Local\Temp\ccheWc1y.s:31542  .debug_str:0000000000029260 .LASF834
C:\Users\SOLDER~1\AppData\Local\Temp\ccheWc1y.s:32510  .debug_str:000000000002d0dd .LASF835
C:\Users\SOLDER~1\AppData\Local\Temp\ccheWc1y.s:22372  .debug_str:0000000000003f6f .LASF836
C:\Users\SOLDER~1\AppData\Local\Temp\ccheWc1y.s:29518  .debug_str:0000000000020ed6 .LASF837
C:\Users\SOLDER~1\AppData\Local\Temp\ccheWc1y.s:26112  .debug_str:000000000001324d .LASF838
C:\Users\SOLDER~1\AppData\Local\Temp\ccheWc1y.s:24322  .debug_str:000000000000be14 .LASF839
C:\Users\SOLDER~1\AppData\Local\Temp\ccheWc1y.s:22744  .debug_str:000000000000564c .LASF840
C:\Users\SOLDER~1\AppData\Local\Temp\ccheWc1y.s:25702  .debug_str:0000000000011836 .LASF841
C:\Users\SOLDER~1\AppData\Local\Temp\ccheWc1y.s:25684  .debug_str:0000000000011700 .LASF842
C:\Users\SOLDER~1\AppData\Local\Temp\ccheWc1y.s:25336  .debug_str:00000000000100ff .LASF843
C:\Users\SOLDER~1\AppData\Local\Temp\ccheWc1y.s:32882  .debug_str:000000000002e8c7 .LASF844
C:\Users\SOLDER~1\AppData\Local\Temp\ccheWc1y.s:31894  .debug_str:000000000002a969 .LASF845
C:\Users\SOLDER~1\AppData\Local\Temp\ccheWc1y.s:27954  .debug_str:000000000001a9e5 .LASF846
C:\Users\SOLDER~1\AppData\Local\Temp\ccheWc1y.s:25872  .debug_str:00000000000122ea .LASF847
C:\Users\SOLDER~1\AppData\Local\Temp\ccheWc1y.s:21774  .debug_str:00000000000018ca .LASF848
C:\Users\SOLDER~1\AppData\Local\Temp\ccheWc1y.s:28972  .debug_str:000000000001eb74 .LASF849
C:\Users\SOLDER~1\AppData\Local\Temp\ccheWc1y.s:31978  .debug_str:000000000002ae97 .LASF850
C:\Users\SOLDER~1\AppData\Local\Temp\ccheWc1y.s:22716  .debug_str:00000000000054c0 .LASF851
C:\Users\SOLDER~1\AppData\Local\Temp\ccheWc1y.s:25182  .debug_str:000000000000f659 .LASF852
C:\Users\SOLDER~1\AppData\Local\Temp\ccheWc1y.s:26880  .debug_str:000000000001650a .LASF853
C:\Users\SOLDER~1\AppData\Local\Temp\ccheWc1y.s:23992  .debug_str:000000000000a905 .LASF854
C:\Users\SOLDER~1\AppData\Local\Temp\ccheWc1y.s:25068  .debug_str:000000000000ef5e .LASF855
C:\Users\SOLDER~1\AppData\Local\Temp\ccheWc1y.s:29080  .debug_str:000000000001f28b .LASF856
C:\Users\SOLDER~1\AppData\Local\Temp\ccheWc1y.s:25104  .debug_str:000000000000f18a .LASF857
C:\Users\SOLDER~1\AppData\Local\Temp\ccheWc1y.s:29990  .debug_str:0000000000022cb3 .LASF858
GAS LISTING C:\Users\SOLDER~1\AppData\Local\Temp\ccheWc1y.s 			page 81


C:\Users\SOLDER~1\AppData\Local\Temp\ccheWc1y.s:22334  .debug_str:0000000000003d0f .LASF859
C:\Users\SOLDER~1\AppData\Local\Temp\ccheWc1y.s:24382  .debug_str:000000000000c1ef .LASF860
C:\Users\SOLDER~1\AppData\Local\Temp\ccheWc1y.s:22054  .debug_str:0000000000002b44 .LASF861
C:\Users\SOLDER~1\AppData\Local\Temp\ccheWc1y.s:25682  .debug_str:00000000000116ed .LASF862
C:\Users\SOLDER~1\AppData\Local\Temp\ccheWc1y.s:28028  .debug_str:000000000001aec1 .LASF863
C:\Users\SOLDER~1\AppData\Local\Temp\ccheWc1y.s:26168  .debug_str:00000000000135c3 .LASF864
C:\Users\SOLDER~1\AppData\Local\Temp\ccheWc1y.s:29908  .debug_str:000000000002276b .LASF865
C:\Users\SOLDER~1\AppData\Local\Temp\ccheWc1y.s:25486  .debug_str:0000000000010a88 .LASF866
C:\Users\SOLDER~1\AppData\Local\Temp\ccheWc1y.s:22216  .debug_str:0000000000003578 .LASF867
C:\Users\SOLDER~1\AppData\Local\Temp\ccheWc1y.s:32920  .debug_str:000000000002eb1e .LASF868
C:\Users\SOLDER~1\AppData\Local\Temp\ccheWc1y.s:22648  .debug_str:00000000000050b3 .LASF869
C:\Users\SOLDER~1\AppData\Local\Temp\ccheWc1y.s:26364  .debug_str:000000000001437e .LASF870
C:\Users\SOLDER~1\AppData\Local\Temp\ccheWc1y.s:32414  .debug_str:000000000002cacc .LASF871
C:\Users\SOLDER~1\AppData\Local\Temp\ccheWc1y.s:26860  .debug_str:00000000000163b0 .LASF872
C:\Users\SOLDER~1\AppData\Local\Temp\ccheWc1y.s:33036  .debug_str:000000000002f2c0 .LASF873
C:\Users\SOLDER~1\AppData\Local\Temp\ccheWc1y.s:28400  .debug_str:000000000001c64b .LASF874
C:\Users\SOLDER~1\AppData\Local\Temp\ccheWc1y.s:27648  .debug_str:00000000000196b6 .LASF875
C:\Users\SOLDER~1\AppData\Local\Temp\ccheWc1y.s:22974  .debug_str:00000000000065ca .LASF876
C:\Users\SOLDER~1\AppData\Local\Temp\ccheWc1y.s:31594  .debug_str:0000000000029588 .LASF877
C:\Users\SOLDER~1\AppData\Local\Temp\ccheWc1y.s:30142  .debug_str:0000000000023689 .LASF878
C:\Users\SOLDER~1\AppData\Local\Temp\ccheWc1y.s:25642  .debug_str:0000000000011460 .LASF879
C:\Users\SOLDER~1\AppData\Local\Temp\ccheWc1y.s:22100  .debug_str:0000000000002e0a .LASF880
C:\Users\SOLDER~1\AppData\Local\Temp\ccheWc1y.s:32092  .debug_str:000000000002b5bc .LASF881
C:\Users\SOLDER~1\AppData\Local\Temp\ccheWc1y.s:23116  .debug_str:0000000000006f2f .LASF882
C:\Users\SOLDER~1\AppData\Local\Temp\ccheWc1y.s:22686  .debug_str:000000000000530e .LASF883
C:\Users\SOLDER~1\AppData\Local\Temp\ccheWc1y.s:22314  .debug_str:0000000000003bdc .LASF884
C:\Users\SOLDER~1\AppData\Local\Temp\ccheWc1y.s:25420  .debug_str:0000000000010638 .LASF885
C:\Users\SOLDER~1\AppData\Local\Temp\ccheWc1y.s:28848  .debug_str:000000000001e375 .LASF886
C:\Users\SOLDER~1\AppData\Local\Temp\ccheWc1y.s:27924  .debug_str:000000000001a7e8 .LASF887
C:\Users\SOLDER~1\AppData\Local\Temp\ccheWc1y.s:24002  .debug_str:000000000000a9b8 .LASF888
C:\Users\SOLDER~1\AppData\Local\Temp\ccheWc1y.s:25578  .debug_str:0000000000011052 .LASF889
C:\Users\SOLDER~1\AppData\Local\Temp\ccheWc1y.s:31750  .debug_str:0000000000029fb2 .LASF890
C:\Users\SOLDER~1\AppData\Local\Temp\ccheWc1y.s:21480  .debug_str:00000000000004e7 .LASF891
C:\Users\SOLDER~1\AppData\Local\Temp\ccheWc1y.s:32270  .debug_str:000000000002c121 .LASF892
C:\Users\SOLDER~1\AppData\Local\Temp\ccheWc1y.s:32186  .debug_str:000000000002bbca .LASF893
C:\Users\SOLDER~1\AppData\Local\Temp\ccheWc1y.s:30156  .debug_str:0000000000023783 .LASF894
C:\Users\SOLDER~1\AppData\Local\Temp\ccheWc1y.s:31766  .debug_str:000000000002a0c1 .LASF895
C:\Users\SOLDER~1\AppData\Local\Temp\ccheWc1y.s:29010  .debug_str:000000000001ee06 .LASF896
C:\Users\SOLDER~1\AppData\Local\Temp\ccheWc1y.s:31338  .debug_str:000000000002852b .LASF897
C:\Users\SOLDER~1\AppData\Local\Temp\ccheWc1y.s:23040  .debug_str:0000000000006a74 .LASF898
C:\Users\SOLDER~1\AppData\Local\Temp\ccheWc1y.s:21498  .debug_str:0000000000000624 .LASF899
C:\Users\SOLDER~1\AppData\Local\Temp\ccheWc1y.s:22970  .debug_str:0000000000006584 .LASF900
C:\Users\SOLDER~1\AppData\Local\Temp\ccheWc1y.s:27404  .debug_str:00000000000186fd .LASF901
C:\Users\SOLDER~1\AppData\Local\Temp\ccheWc1y.s:29308  .debug_str:00000000000201b2 .LASF902
C:\Users\SOLDER~1\AppData\Local\Temp\ccheWc1y.s:23192  .debug_str:0000000000007459 .LASF903
C:\Users\SOLDER~1\AppData\Local\Temp\ccheWc1y.s:22224  .debug_str:00000000000035f5 .LASF904
C:\Users\SOLDER~1\AppData\Local\Temp\ccheWc1y.s:24346  .debug_str:000000000000bfc1 .LASF905
C:\Users\SOLDER~1\AppData\Local\Temp\ccheWc1y.s:22462  .debug_str:0000000000004516 .LASF906
C:\Users\SOLDER~1\AppData\Local\Temp\ccheWc1y.s:23244  .debug_str:000000000000778e .LASF907
C:\Users\SOLDER~1\AppData\Local\Temp\ccheWc1y.s:30336  .debug_str:0000000000024337 .LASF908
C:\Users\SOLDER~1\AppData\Local\Temp\ccheWc1y.s:27184  .debug_str:000000000001785c .LASF909
C:\Users\SOLDER~1\AppData\Local\Temp\ccheWc1y.s:26250  .debug_str:0000000000013b69 .LASF910
C:\Users\SOLDER~1\AppData\Local\Temp\ccheWc1y.s:28880  .debug_str:000000000001e590 .LASF911
C:\Users\SOLDER~1\AppData\Local\Temp\ccheWc1y.s:22728  .debug_str:0000000000005565 .LASF912
C:\Users\SOLDER~1\AppData\Local\Temp\ccheWc1y.s:31946  .debug_str:000000000002acd7 .LASF913
C:\Users\SOLDER~1\AppData\Local\Temp\ccheWc1y.s:22014  .debug_str:000000000000288e .LASF914
C:\Users\SOLDER~1\AppData\Local\Temp\ccheWc1y.s:32566  .debug_str:000000000002d479 .LASF915
GAS LISTING C:\Users\SOLDER~1\AppData\Local\Temp\ccheWc1y.s 			page 82


C:\Users\SOLDER~1\AppData\Local\Temp\ccheWc1y.s:27322  .debug_str:000000000001814f .LASF916
C:\Users\SOLDER~1\AppData\Local\Temp\ccheWc1y.s:27282  .debug_str:0000000000017ecb .LASF917
C:\Users\SOLDER~1\AppData\Local\Temp\ccheWc1y.s:29218  .debug_str:000000000001fc03 .LASF918
C:\Users\SOLDER~1\AppData\Local\Temp\ccheWc1y.s:28038  .debug_str:000000000001af4a .LASF919
C:\Users\SOLDER~1\AppData\Local\Temp\ccheWc1y.s:29778  .debug_str:0000000000021f3d .LASF920
C:\Users\SOLDER~1\AppData\Local\Temp\ccheWc1y.s:25250  .debug_str:000000000000fae7 .LASF921
C:\Users\SOLDER~1\AppData\Local\Temp\ccheWc1y.s:21798  .debug_str:0000000000001a62 .LASF922
C:\Users\SOLDER~1\AppData\Local\Temp\ccheWc1y.s:31620  .debug_str:0000000000029757 .LASF923
C:\Users\SOLDER~1\AppData\Local\Temp\ccheWc1y.s:31932  .debug_str:000000000002abe4 .LASF924
C:\Users\SOLDER~1\AppData\Local\Temp\ccheWc1y.s:22602  .debug_str:0000000000004dfc .LASF925
C:\Users\SOLDER~1\AppData\Local\Temp\ccheWc1y.s:23038  .debug_str:0000000000006a54 .LASF926
C:\Users\SOLDER~1\AppData\Local\Temp\ccheWc1y.s:23912  .debug_str:000000000000a384 .LASF927
C:\Users\SOLDER~1\AppData\Local\Temp\ccheWc1y.s:28478  .debug_str:000000000001cb6f .LASF928
C:\Users\SOLDER~1\AppData\Local\Temp\ccheWc1y.s:27568  .debug_str:000000000001915d .LASF929
C:\Users\SOLDER~1\AppData\Local\Temp\ccheWc1y.s:28994  .debug_str:000000000001ed09 .LASF930
C:\Users\SOLDER~1\AppData\Local\Temp\ccheWc1y.s:21736  .debug_str:0000000000001666 .LASF931
C:\Users\SOLDER~1\AppData\Local\Temp\ccheWc1y.s:23110  .debug_str:0000000000006eb6 .LASF932
C:\Users\SOLDER~1\AppData\Local\Temp\ccheWc1y.s:21652  .debug_str:00000000000010f7 .LASF933
C:\Users\SOLDER~1\AppData\Local\Temp\ccheWc1y.s:24924  .debug_str:000000000000e630 .LASF934
C:\Users\SOLDER~1\AppData\Local\Temp\ccheWc1y.s:31812  .debug_str:000000000002a3ee .LASF935
C:\Users\SOLDER~1\AppData\Local\Temp\ccheWc1y.s:29794  .debug_str:000000000002203f .LASF936
C:\Users\SOLDER~1\AppData\Local\Temp\ccheWc1y.s:31376  .debug_str:00000000000287cb .LASF937
C:\Users\SOLDER~1\AppData\Local\Temp\ccheWc1y.s:28634  .debug_str:000000000001d5a5 .LASF938
C:\Users\SOLDER~1\AppData\Local\Temp\ccheWc1y.s:31654  .debug_str:000000000002998c .LASF939
C:\Users\SOLDER~1\AppData\Local\Temp\ccheWc1y.s:23730  .debug_str:00000000000097a7 .LASF940
C:\Users\SOLDER~1\AppData\Local\Temp\ccheWc1y.s:31796  .debug_str:000000000002a2cb .LASF941
C:\Users\SOLDER~1\AppData\Local\Temp\ccheWc1y.s:25128  .debug_str:000000000000f317 .LASF942
C:\Users\SOLDER~1\AppData\Local\Temp\ccheWc1y.s:30712  .debug_str:0000000000025b8d .LASF943
C:\Users\SOLDER~1\AppData\Local\Temp\ccheWc1y.s:22238  .debug_str:00000000000036cd .LASF944
C:\Users\SOLDER~1\AppData\Local\Temp\ccheWc1y.s:24970  .debug_str:000000000000e935 .LASF945
C:\Users\SOLDER~1\AppData\Local\Temp\ccheWc1y.s:26436  .debug_str:0000000000014888 .LASF946
C:\Users\SOLDER~1\AppData\Local\Temp\ccheWc1y.s:30788  .debug_str:00000000000260d9 .LASF947
C:\Users\SOLDER~1\AppData\Local\Temp\ccheWc1y.s:28220  .debug_str:000000000001bb08 .LASF948
C:\Users\SOLDER~1\AppData\Local\Temp\ccheWc1y.s:23804  .debug_str:0000000000009c68 .LASF949
C:\Users\SOLDER~1\AppData\Local\Temp\ccheWc1y.s:24940  .debug_str:000000000000e74b .LASF950
C:\Users\SOLDER~1\AppData\Local\Temp\ccheWc1y.s:25298  .debug_str:000000000000fe3d .LASF951
C:\Users\SOLDER~1\AppData\Local\Temp\ccheWc1y.s:32648  .debug_str:000000000002da22 .LASF952
C:\Users\SOLDER~1\AppData\Local\Temp\ccheWc1y.s:24794  .debug_str:000000000000ddb5 .LASF953
C:\Users\SOLDER~1\AppData\Local\Temp\ccheWc1y.s:27220  .debug_str:0000000000017abc .LASF954
C:\Users\SOLDER~1\AppData\Local\Temp\ccheWc1y.s:27748  .debug_str:0000000000019d62 .LASF955
C:\Users\SOLDER~1\AppData\Local\Temp\ccheWc1y.s:27598  .debug_str:000000000001938b .LASF956
C:\Users\SOLDER~1\AppData\Local\Temp\ccheWc1y.s:27068  .debug_str:00000000000170b5 .LASF957
C:\Users\SOLDER~1\AppData\Local\Temp\ccheWc1y.s:25154  .debug_str:000000000000f4a8 .LASF958
C:\Users\SOLDER~1\AppData\Local\Temp\ccheWc1y.s:22566  .debug_str:0000000000004b9f .LASF959
C:\Users\SOLDER~1\AppData\Local\Temp\ccheWc1y.s:22800  .debug_str:0000000000005a1b .LASF960
C:\Users\SOLDER~1\AppData\Local\Temp\ccheWc1y.s:29732  .debug_str:0000000000021c85 .LASF961
C:\Users\SOLDER~1\AppData\Local\Temp\ccheWc1y.s:32096  .debug_str:000000000002b606 .LASF962
C:\Users\SOLDER~1\AppData\Local\Temp\ccheWc1y.s:25228  .debug_str:000000000000f975 .LASF963
C:\Users\SOLDER~1\AppData\Local\Temp\ccheWc1y.s:29676  .debug_str:0000000000021902 .LASF964
C:\Users\SOLDER~1\AppData\Local\Temp\ccheWc1y.s:32378  .debug_str:000000000002c8ae .LASF965
C:\Users\SOLDER~1\AppData\Local\Temp\ccheWc1y.s:27324  .debug_str:0000000000018171 .LASF966
C:\Users\SOLDER~1\AppData\Local\Temp\ccheWc1y.s:27110  .debug_str:0000000000017333 .LASF967
C:\Users\SOLDER~1\AppData\Local\Temp\ccheWc1y.s:24862  .debug_str:000000000000e1d0 .LASF968
C:\Users\SOLDER~1\AppData\Local\Temp\ccheWc1y.s:23400  .debug_str:00000000000081c5 .LASF969
C:\Users\SOLDER~1\AppData\Local\Temp\ccheWc1y.s:22418  .debug_str:0000000000004262 .LASF970
C:\Users\SOLDER~1\AppData\Local\Temp\ccheWc1y.s:30538  .debug_str:0000000000025060 .LASF971
C:\Users\SOLDER~1\AppData\Local\Temp\ccheWc1y.s:31722  .debug_str:0000000000029dfe .LASF972
GAS LISTING C:\Users\SOLDER~1\AppData\Local\Temp\ccheWc1y.s 			page 83


C:\Users\SOLDER~1\AppData\Local\Temp\ccheWc1y.s:24636  .debug_str:000000000000d35e .LASF973
C:\Users\SOLDER~1\AppData\Local\Temp\ccheWc1y.s:25726  .debug_str:00000000000119c7 .LASF974
C:\Users\SOLDER~1\AppData\Local\Temp\ccheWc1y.s:25260  .debug_str:000000000000fb7f .LASF975
C:\Users\SOLDER~1\AppData\Local\Temp\ccheWc1y.s:26146  .debug_str:0000000000013483 .LASF976
C:\Users\SOLDER~1\AppData\Local\Temp\ccheWc1y.s:32500  .debug_str:000000000002d055 .LASF977
C:\Users\SOLDER~1\AppData\Local\Temp\ccheWc1y.s:32562  .debug_str:000000000002d437 .LASF978
C:\Users\SOLDER~1\AppData\Local\Temp\ccheWc1y.s:27982  .debug_str:000000000001aba8 .LASF979
C:\Users\SOLDER~1\AppData\Local\Temp\ccheWc1y.s:30124  .debug_str:0000000000023564 .LASF980
C:\Users\SOLDER~1\AppData\Local\Temp\ccheWc1y.s:23430  .debug_str:00000000000083ca .LASF981
C:\Users\SOLDER~1\AppData\Local\Temp\ccheWc1y.s:27758  .debug_str:0000000000019dd5 .LASF982
C:\Users\SOLDER~1\AppData\Local\Temp\ccheWc1y.s:30562  .debug_str:0000000000025224 .LASF983
C:\Users\SOLDER~1\AppData\Local\Temp\ccheWc1y.s:25448  .debug_str:0000000000010810 .LASF984
C:\Users\SOLDER~1\AppData\Local\Temp\ccheWc1y.s:26074  .debug_str:0000000000012faf .LASF985
C:\Users\SOLDER~1\AppData\Local\Temp\ccheWc1y.s:22984  .debug_str:000000000000666d .LASF986
C:\Users\SOLDER~1\AppData\Local\Temp\ccheWc1y.s:26602  .debug_str:0000000000015373 .LASF987
C:\Users\SOLDER~1\AppData\Local\Temp\ccheWc1y.s:32278  .debug_str:000000000002c1aa .LASF988
C:\Users\SOLDER~1\AppData\Local\Temp\ccheWc1y.s:28766  .debug_str:000000000001de2b .LASF989
C:\Users\SOLDER~1\AppData\Local\Temp\ccheWc1y.s:29846  .debug_str:000000000002239d .LASF990
C:\Users\SOLDER~1\AppData\Local\Temp\ccheWc1y.s:24236  .debug_str:000000000000b901 .LASF991
C:\Users\SOLDER~1\AppData\Local\Temp\ccheWc1y.s:27494  .debug_str:0000000000018ca5 .LASF992
C:\Users\SOLDER~1\AppData\Local\Temp\ccheWc1y.s:31384  .debug_str:0000000000028846 .LASF993
C:\Users\SOLDER~1\AppData\Local\Temp\ccheWc1y.s:28578  .debug_str:000000000001d20f .LASF994
C:\Users\SOLDER~1\AppData\Local\Temp\ccheWc1y.s:26898  .debug_str:0000000000016643 .LASF995
C:\Users\SOLDER~1\AppData\Local\Temp\ccheWc1y.s:25530  .debug_str:0000000000010d4b .LASF996
C:\Users\SOLDER~1\AppData\Local\Temp\ccheWc1y.s:22324  .debug_str:0000000000003c78 .LASF997
C:\Users\SOLDER~1\AppData\Local\Temp\ccheWc1y.s:23740  .debug_str:0000000000009826 .LASF998
C:\Users\SOLDER~1\AppData\Local\Temp\ccheWc1y.s:29582  .debug_str:00000000000212b1 .LASF999
C:\Users\SOLDER~1\AppData\Local\Temp\ccheWc1y.s:33032  .debug_str:000000000002f278 .LASF1000
C:\Users\SOLDER~1\AppData\Local\Temp\ccheWc1y.s:25060  .debug_str:000000000000ef09 .LASF1001
C:\Users\SOLDER~1\AppData\Local\Temp\ccheWc1y.s:30590  .debug_str:00000000000253ea .LASF1002
C:\Users\SOLDER~1\AppData\Local\Temp\ccheWc1y.s:32226  .debug_str:000000000002be82 .LASF1003
C:\Users\SOLDER~1\AppData\Local\Temp\ccheWc1y.s:28304  .debug_str:000000000001c028 .LASF1004
C:\Users\SOLDER~1\AppData\Local\Temp\ccheWc1y.s:27714  .debug_str:0000000000019b24 .LASF1005
C:\Users\SOLDER~1\AppData\Local\Temp\ccheWc1y.s:25894  .debug_str:0000000000012455 .LASF1006
C:\Users\SOLDER~1\AppData\Local\Temp\ccheWc1y.s:23146  .debug_str:000000000000715b .LASF1007
C:\Users\SOLDER~1\AppData\Local\Temp\ccheWc1y.s:23456  .debug_str:000000000000857b .LASF1008
C:\Users\SOLDER~1\AppData\Local\Temp\ccheWc1y.s:30380  .debug_str:0000000000024620 .LASF1009
C:\Users\SOLDER~1\AppData\Local\Temp\ccheWc1y.s:32746  .debug_str:000000000002e05d .LASF1010
C:\Users\SOLDER~1\AppData\Local\Temp\ccheWc1y.s:25886  .debug_str:00000000000123d1 .LASF1011
C:\Users\SOLDER~1\AppData\Local\Temp\ccheWc1y.s:30968  .debug_str:0000000000026cde .LASF1012
C:\Users\SOLDER~1\AppData\Local\Temp\ccheWc1y.s:33026  .debug_str:000000000002f21f .LASF1013
C:\Users\SOLDER~1\AppData\Local\Temp\ccheWc1y.s:31448  .debug_str:0000000000028c47 .LASF1014
C:\Users\SOLDER~1\AppData\Local\Temp\ccheWc1y.s:28490  .debug_str:000000000001cc53 .LASF1015
C:\Users\SOLDER~1\AppData\Local\Temp\ccheWc1y.s:29042  .debug_str:000000000001f023 .LASF1016
C:\Users\SOLDER~1\AppData\Local\Temp\ccheWc1y.s:23934  .debug_str:000000000000a4fb .LASF1017
C:\Users\SOLDER~1\AppData\Local\Temp\ccheWc1y.s:26646  .debug_str:0000000000015628 .LASF1018
C:\Users\SOLDER~1\AppData\Local\Temp\ccheWc1y.s:31100  .debug_str:00000000000275c0 .LASF1019
C:\Users\SOLDER~1\AppData\Local\Temp\ccheWc1y.s:24206  .debug_str:000000000000b6ee .LASF1020
C:\Users\SOLDER~1\AppData\Local\Temp\ccheWc1y.s:25860  .debug_str:0000000000012245 .LASF1021
C:\Users\SOLDER~1\AppData\Local\Temp\ccheWc1y.s:27948  .debug_str:000000000001a994 .LASF1022
C:\Users\SOLDER~1\AppData\Local\Temp\ccheWc1y.s:22136  .debug_str:000000000000305b .LASF1023
C:\Users\SOLDER~1\AppData\Local\Temp\ccheWc1y.s:31150  .debug_str:00000000000278e6 .LASF1024
C:\Users\SOLDER~1\AppData\Local\Temp\ccheWc1y.s:30112  .debug_str:00000000000234c0 .LASF1025
C:\Users\SOLDER~1\AppData\Local\Temp\ccheWc1y.s:28744  .debug_str:000000000001dcd8 .LASF1026
C:\Users\SOLDER~1\AppData\Local\Temp\ccheWc1y.s:24774  .debug_str:000000000000dc84 .LASF1027
C:\Users\SOLDER~1\AppData\Local\Temp\ccheWc1y.s:26372  .debug_str:0000000000014410 .LASF1028
C:\Users\SOLDER~1\AppData\Local\Temp\ccheWc1y.s:31926  .debug_str:000000000002ab6b .LASF1029
GAS LISTING C:\Users\SOLDER~1\AppData\Local\Temp\ccheWc1y.s 			page 84


C:\Users\SOLDER~1\AppData\Local\Temp\ccheWc1y.s:23908  .debug_str:000000000000a340 .LASF1030
C:\Users\SOLDER~1\AppData\Local\Temp\ccheWc1y.s:23498  .debug_str:0000000000008814 .LASF1031
C:\Users\SOLDER~1\AppData\Local\Temp\ccheWc1y.s:21526  .debug_str:000000000000087e .LASF1032
C:\Users\SOLDER~1\AppData\Local\Temp\ccheWc1y.s:22846  .debug_str:0000000000005d06 .LASF1033
C:\Users\SOLDER~1\AppData\Local\Temp\ccheWc1y.s:22628  .debug_str:0000000000004f7b .LASF1034
C:\Users\SOLDER~1\AppData\Local\Temp\ccheWc1y.s:29994  .debug_str:0000000000022ced .LASF1035
C:\Users\SOLDER~1\AppData\Local\Temp\ccheWc1y.s:31910  .debug_str:000000000002aa68 .LASF1036
C:\Users\SOLDER~1\AppData\Local\Temp\ccheWc1y.s:25616  .debug_str:00000000000112d3 .LASF1037
C:\Users\SOLDER~1\AppData\Local\Temp\ccheWc1y.s:29498  .debug_str:0000000000020d9b .LASF1038
C:\Users\SOLDER~1\AppData\Local\Temp\ccheWc1y.s:30510  .debug_str:0000000000024e9b .LASF1039
C:\Users\SOLDER~1\AppData\Local\Temp\ccheWc1y.s:23798  .debug_str:0000000000009c10 .LASF1040
C:\Users\SOLDER~1\AppData\Local\Temp\ccheWc1y.s:22552  .debug_str:0000000000004ac3 .LASF1041
C:\Users\SOLDER~1\AppData\Local\Temp\ccheWc1y.s:25472  .debug_str:00000000000109b6 .LASF1042
C:\Users\SOLDER~1\AppData\Local\Temp\ccheWc1y.s:31574  .debug_str:000000000002946e .LASF1043
C:\Users\SOLDER~1\AppData\Local\Temp\ccheWc1y.s:29294  .debug_str:00000000000200bf .LASF1044
C:\Users\SOLDER~1\AppData\Local\Temp\ccheWc1y.s:26812  .debug_str:00000000000160aa .LASF1045
C:\Users\SOLDER~1\AppData\Local\Temp\ccheWc1y.s:22332  .debug_str:0000000000003cf3 .LASF1046
C:\Users\SOLDER~1\AppData\Local\Temp\ccheWc1y.s:30998  .debug_str:0000000000026ee4 .LASF1047
C:\Users\SOLDER~1\AppData\Local\Temp\ccheWc1y.s:27916  .debug_str:000000000001a773 .LASF1048
C:\Users\SOLDER~1\AppData\Local\Temp\ccheWc1y.s:27188  .debug_str:00000000000178a2 .LASF1049
C:\Users\SOLDER~1\AppData\Local\Temp\ccheWc1y.s:25870  .debug_str:00000000000122d1 .LASF1050
C:\Users\SOLDER~1\AppData\Local\Temp\ccheWc1y.s:28570  .debug_str:000000000001d19c .LASF1051
C:\Users\SOLDER~1\AppData\Local\Temp\ccheWc1y.s:30986  .debug_str:0000000000026e1d .LASF1052
C:\Users\SOLDER~1\AppData\Local\Temp\ccheWc1y.s:25046  .debug_str:000000000000ee37 .LASF1053
C:\Users\SOLDER~1\AppData\Local\Temp\ccheWc1y.s:28390  .debug_str:000000000001c5ae .LASF1054
C:\Users\SOLDER~1\AppData\Local\Temp\ccheWc1y.s:22634  .debug_str:0000000000004fd2 .LASF1055
C:\Users\SOLDER~1\AppData\Local\Temp\ccheWc1y.s:29686  .debug_str:000000000002199c .LASF1056
C:\Users\SOLDER~1\AppData\Local\Temp\ccheWc1y.s:29774  .debug_str:0000000000021ef5 .LASF1057
C:\Users\SOLDER~1\AppData\Local\Temp\ccheWc1y.s:28726  .debug_str:000000000001dbc5 .LASF1058
C:\Users\SOLDER~1\AppData\Local\Temp\ccheWc1y.s:31774  .debug_str:000000000002a146 .LASF1059
C:\Users\SOLDER~1\AppData\Local\Temp\ccheWc1y.s:29696  .debug_str:0000000000021a23 .LASF1060
C:\Users\SOLDER~1\AppData\Local\Temp\ccheWc1y.s:23996  .debug_str:000000000000a94c .LASF1061
C:\Users\SOLDER~1\AppData\Local\Temp\ccheWc1y.s:32688  .debug_str:000000000002dc9a .LASF1062
C:\Users\SOLDER~1\AppData\Local\Temp\ccheWc1y.s:23006  .debug_str:0000000000006803 .LASF1063
C:\Users\SOLDER~1\AppData\Local\Temp\ccheWc1y.s:25376  .debug_str:000000000001039b .LASF1064
C:\Users\SOLDER~1\AppData\Local\Temp\ccheWc1y.s:30104  .debug_str:0000000000023439 .LASF1065
C:\Users\SOLDER~1\AppData\Local\Temp\ccheWc1y.s:30126  .debug_str:0000000000023585 .LASF1066
C:\Users\SOLDER~1\AppData\Local\Temp\ccheWc1y.s:24776  .debug_str:000000000000dc9b .LASF1067
C:\Users\SOLDER~1\AppData\Local\Temp\ccheWc1y.s:22538  .debug_str:00000000000049fb .LASF1068
C:\Users\SOLDER~1\AppData\Local\Temp\ccheWc1y.s:25610  .debug_str:0000000000011268 .LASF1069
C:\Users\SOLDER~1\AppData\Local\Temp\ccheWc1y.s:29978  .debug_str:0000000000022bd6 .LASF1070
C:\Users\SOLDER~1\AppData\Local\Temp\ccheWc1y.s:28642  .debug_str:000000000001d63d .LASF1071
C:\Users\SOLDER~1\AppData\Local\Temp\ccheWc1y.s:25590  .debug_str:0000000000011110 .LASF1072
C:\Users\SOLDER~1\AppData\Local\Temp\ccheWc1y.s:30224  .debug_str:0000000000023c18 .LASF1073
C:\Users\SOLDER~1\AppData\Local\Temp\ccheWc1y.s:21546  .debug_str:0000000000000a0f .LASF1074
C:\Users\SOLDER~1\AppData\Local\Temp\ccheWc1y.s:27902  .debug_str:000000000001a6a3 .LASF1075
C:\Users\SOLDER~1\AppData\Local\Temp\ccheWc1y.s:26392  .debug_str:000000000001454d .LASF1076
C:\Users\SOLDER~1\AppData\Local\Temp\ccheWc1y.s:24570  .debug_str:000000000000cf0a .LASF1077
C:\Users\SOLDER~1\AppData\Local\Temp\ccheWc1y.s:22000  .debug_str:00000000000027ac .LASF1078
C:\Users\SOLDER~1\AppData\Local\Temp\ccheWc1y.s:30686  .debug_str:00000000000259fd .LASF1079
C:\Users\SOLDER~1\AppData\Local\Temp\ccheWc1y.s:23612  .debug_str:0000000000008fa1 .LASF1080
C:\Users\SOLDER~1\AppData\Local\Temp\ccheWc1y.s:26048  .debug_str:0000000000012dd6 .LASF1081
C:\Users\SOLDER~1\AppData\Local\Temp\ccheWc1y.s:29536  .debug_str:0000000000020fe5 .LASF1082
C:\Users\SOLDER~1\AppData\Local\Temp\ccheWc1y.s:28974  .debug_str:000000000001eb94 .LASF1083
C:\Users\SOLDER~1\AppData\Local\Temp\ccheWc1y.s:26890  .debug_str:00000000000165b8 .LASF1084
C:\Users\SOLDER~1\AppData\Local\Temp\ccheWc1y.s:22850  .debug_str:0000000000005d42 .LASF1085
C:\Users\SOLDER~1\AppData\Local\Temp\ccheWc1y.s:30088  .debug_str:000000000002332a .LASF1086
GAS LISTING C:\Users\SOLDER~1\AppData\Local\Temp\ccheWc1y.s 			page 85


C:\Users\SOLDER~1\AppData\Local\Temp\ccheWc1y.s:31852  .debug_str:000000000002a685 .LASF1087
C:\Users\SOLDER~1\AppData\Local\Temp\ccheWc1y.s:29680  .debug_str:0000000000021938 .LASF1088
C:\Users\SOLDER~1\AppData\Local\Temp\ccheWc1y.s:22818  .debug_str:0000000000005b58 .LASF1089
C:\Users\SOLDER~1\AppData\Local\Temp\ccheWc1y.s:31008  .debug_str:0000000000026f7d .LASF1090
C:\Users\SOLDER~1\AppData\Local\Temp\ccheWc1y.s:28814  .debug_str:000000000001e110 .LASF1091
C:\Users\SOLDER~1\AppData\Local\Temp\ccheWc1y.s:23186  .debug_str:00000000000073ed .LASF1092
C:\Users\SOLDER~1\AppData\Local\Temp\ccheWc1y.s:27340  .debug_str:000000000001827b .LASF1093
C:\Users\SOLDER~1\AppData\Local\Temp\ccheWc1y.s:24744  .debug_str:000000000000da6d .LASF1094
C:\Users\SOLDER~1\AppData\Local\Temp\ccheWc1y.s:21752  .debug_str:0000000000001784 .LASF1095
C:\Users\SOLDER~1\AppData\Local\Temp\ccheWc1y.s:22910  .debug_str:0000000000006151 .LASF1096
C:\Users\SOLDER~1\AppData\Local\Temp\ccheWc1y.s:30110  .debug_str:0000000000023499 .LASF1097
C:\Users\SOLDER~1\AppData\Local\Temp\ccheWc1y.s:29400  .debug_str:000000000002072f .LASF1098
C:\Users\SOLDER~1\AppData\Local\Temp\ccheWc1y.s:23148  .debug_str:0000000000007172 .LASF1099
C:\Users\SOLDER~1\AppData\Local\Temp\ccheWc1y.s:26656  .debug_str:00000000000156ec .LASF1100
C:\Users\SOLDER~1\AppData\Local\Temp\ccheWc1y.s:30360  .debug_str:00000000000244c4 .LASF1101
C:\Users\SOLDER~1\AppData\Local\Temp\ccheWc1y.s:32054  .debug_str:000000000002b366 .LASF1102
C:\Users\SOLDER~1\AppData\Local\Temp\ccheWc1y.s:21612  .debug_str:0000000000000e9d .LASF1103
C:\Users\SOLDER~1\AppData\Local\Temp\ccheWc1y.s:21720  .debug_str:0000000000001574 .LASF1104
C:\Users\SOLDER~1\AppData\Local\Temp\ccheWc1y.s:29328  .debug_str:00000000000202e6 .LASF1105
C:\Users\SOLDER~1\AppData\Local\Temp\ccheWc1y.s:22794  .debug_str:00000000000059af .LASF1106
C:\Users\SOLDER~1\AppData\Local\Temp\ccheWc1y.s:24366  .debug_str:000000000000c0ef .LASF1107
C:\Users\SOLDER~1\AppData\Local\Temp\ccheWc1y.s:21792  .debug_str:00000000000019ff .LASF1108
C:\Users\SOLDER~1\AppData\Local\Temp\ccheWc1y.s:29416  .debug_str:0000000000020830 .LASF1109
C:\Users\SOLDER~1\AppData\Local\Temp\ccheWc1y.s:22884  .debug_str:0000000000005f8c .LASF1110
C:\Users\SOLDER~1\AppData\Local\Temp\ccheWc1y.s:23398  .debug_str:000000000000819d .LASF1111
C:\Users\SOLDER~1\AppData\Local\Temp\ccheWc1y.s:23888  .debug_str:000000000000a1e2 .LASF1112
C:\Users\SOLDER~1\AppData\Local\Temp\ccheWc1y.s:24336  .debug_str:000000000000bf1d .LASF1113
C:\Users\SOLDER~1\AppData\Local\Temp\ccheWc1y.s:31350  .debug_str:00000000000285f0 .LASF1114
C:\Users\SOLDER~1\AppData\Local\Temp\ccheWc1y.s:23540  .debug_str:0000000000008aaf .LASF1115
C:\Users\SOLDER~1\AppData\Local\Temp\ccheWc1y.s:31070  .debug_str:0000000000027384 .LASF1116
C:\Users\SOLDER~1\AppData\Local\Temp\ccheWc1y.s:32536  .debug_str:000000000002d27b .LASF1117
C:\Users\SOLDER~1\AppData\Local\Temp\ccheWc1y.s:32018  .debug_str:000000000002b115 .LASF1118
C:\Users\SOLDER~1\AppData\Local\Temp\ccheWc1y.s:26312  .debug_str:0000000000013fd5 .LASF1119
C:\Users\SOLDER~1\AppData\Local\Temp\ccheWc1y.s:22554  .debug_str:0000000000004ad4 .LASF1120
C:\Users\SOLDER~1\AppData\Local\Temp\ccheWc1y.s:28860  .debug_str:000000000001e44f .LASF1121
C:\Users\SOLDER~1\AppData\Local\Temp\ccheWc1y.s:23652  .debug_str:000000000000925d .LASF1122
C:\Users\SOLDER~1\AppData\Local\Temp\ccheWc1y.s:32192  .debug_str:000000000002bc44 .LASF1123
C:\Users\SOLDER~1\AppData\Local\Temp\ccheWc1y.s:26552  .debug_str:0000000000015018 .LASF1124
C:\Users\SOLDER~1\AppData\Local\Temp\ccheWc1y.s:24220  .debug_str:000000000000b7fb .LASF1125
C:\Users\SOLDER~1\AppData\Local\Temp\ccheWc1y.s:32722  .debug_str:000000000002dee2 .LASF1126
C:\Users\SOLDER~1\AppData\Local\Temp\ccheWc1y.s:30820  .debug_str:00000000000262da .LASF1127
C:\Users\SOLDER~1\AppData\Local\Temp\ccheWc1y.s:29872  .debug_str:0000000000022541 .LASF1128
C:\Users\SOLDER~1\AppData\Local\Temp\ccheWc1y.s:27522  .debug_str:0000000000018e70 .LASF1129
C:\Users\SOLDER~1\AppData\Local\Temp\ccheWc1y.s:28126  .debug_str:000000000001b537 .LASF1130
C:\Users\SOLDER~1\AppData\Local\Temp\ccheWc1y.s:23552  .debug_str:0000000000008ba2 .LASF1131
C:\Users\SOLDER~1\AppData\Local\Temp\ccheWc1y.s:29164  .debug_str:000000000001f825 .LASF1132
C:\Users\SOLDER~1\AppData\Local\Temp\ccheWc1y.s:24138  .debug_str:000000000000b2a5 .LASF1133
C:\Users\SOLDER~1\AppData\Local\Temp\ccheWc1y.s:27176  .debug_str:00000000000177d5 .LASF1134
C:\Users\SOLDER~1\AppData\Local\Temp\ccheWc1y.s:26550  .debug_str:0000000000014ff3 .LASF1135
C:\Users\SOLDER~1\AppData\Local\Temp\ccheWc1y.s:27186  .debug_str:000000000001787d .LASF1136
C:\Users\SOLDER~1\AppData\Local\Temp\ccheWc1y.s:31254  .debug_str:0000000000027fa0 .LASF1137
C:\Users\SOLDER~1\AppData\Local\Temp\ccheWc1y.s:29102  .debug_str:000000000001f3f2 .LASF1138
C:\Users\SOLDER~1\AppData\Local\Temp\ccheWc1y.s:30422  .debug_str:00000000000248ee .LASF1139
C:\Users\SOLDER~1\AppData\Local\Temp\ccheWc1y.s:21942  .debug_str:00000000000023fc .LASF1140
C:\Users\SOLDER~1\AppData\Local\Temp\ccheWc1y.s:30688  .debug_str:0000000000025a25 .LASF1141
C:\Users\SOLDER~1\AppData\Local\Temp\ccheWc1y.s:29988  .debug_str:0000000000022c8d .LASF1142
C:\Users\SOLDER~1\AppData\Local\Temp\ccheWc1y.s:28496  .debug_str:000000000001ccac .LASF1143
GAS LISTING C:\Users\SOLDER~1\AppData\Local\Temp\ccheWc1y.s 			page 86


C:\Users\SOLDER~1\AppData\Local\Temp\ccheWc1y.s:32286  .debug_str:000000000002c237 .LASF1144
C:\Users\SOLDER~1\AppData\Local\Temp\ccheWc1y.s:28992  .debug_str:000000000001ece2 .LASF1145
C:\Users\SOLDER~1\AppData\Local\Temp\ccheWc1y.s:28750  .debug_str:000000000001dd44 .LASF1146
C:\Users\SOLDER~1\AppData\Local\Temp\ccheWc1y.s:27060  .debug_str:000000000001703c .LASF1147
C:\Users\SOLDER~1\AppData\Local\Temp\ccheWc1y.s:32402  .debug_str:000000000002ca0a .LASF1148
C:\Users\SOLDER~1\AppData\Local\Temp\ccheWc1y.s:24414  .debug_str:000000000000c416 .LASF1149
C:\Users\SOLDER~1\AppData\Local\Temp\ccheWc1y.s:26786  .debug_str:0000000000015f09 .LASF1150
C:\Users\SOLDER~1\AppData\Local\Temp\ccheWc1y.s:28552  .debug_str:000000000001d052 .LASF1151
C:\Users\SOLDER~1\AppData\Local\Temp\ccheWc1y.s:25604  .debug_str:00000000000111f8 .LASF1152
C:\Users\SOLDER~1\AppData\Local\Temp\ccheWc1y.s:31160  .debug_str:0000000000027998 .LASF1153
C:\Users\SOLDER~1\AppData\Local\Temp\ccheWc1y.s:27428  .debug_str:000000000001886b .LASF1154
C:\Users\SOLDER~1\AppData\Local\Temp\ccheWc1y.s:21836  .debug_str:0000000000001d06 .LASF1155
C:\Users\SOLDER~1\AppData\Local\Temp\ccheWc1y.s:26322  .debug_str:00000000000140a7 .LASF1156
C:\Users\SOLDER~1\AppData\Local\Temp\ccheWc1y.s:29446  .debug_str:0000000000020a24 .LASF1157
C:\Users\SOLDER~1\AppData\Local\Temp\ccheWc1y.s:32834  .debug_str:000000000002e600 .LASF1158
C:\Users\SOLDER~1\AppData\Local\Temp\ccheWc1y.s:32842  .debug_str:000000000002e666 .LASF1159
C:\Users\SOLDER~1\AppData\Local\Temp\ccheWc1y.s:31410  .debug_str:00000000000289e3 .LASF1160
C:\Users\SOLDER~1\AppData\Local\Temp\ccheWc1y.s:27680  .debug_str:00000000000198c0 .LASF1161
C:\Users\SOLDER~1\AppData\Local\Temp\ccheWc1y.s:27456  .debug_str:0000000000018a29 .LASF1162
C:\Users\SOLDER~1\AppData\Local\Temp\ccheWc1y.s:31240  .debug_str:0000000000027eca .LASF1163
C:\Users\SOLDER~1\AppData\Local\Temp\ccheWc1y.s:25660  .debug_str:000000000001157d .LASF1164
C:\Users\SOLDER~1\AppData\Local\Temp\ccheWc1y.s:31178  .debug_str:0000000000027ac6 .LASF1165
C:\Users\SOLDER~1\AppData\Local\Temp\ccheWc1y.s:32894  .debug_str:000000000002e978 .LASF1166
C:\Users\SOLDER~1\AppData\Local\Temp\ccheWc1y.s:29228  .debug_str:000000000001fc8c .LASF1167
C:\Users\SOLDER~1\AppData\Local\Temp\ccheWc1y.s:26190  .debug_str:0000000000013769 .LASF1168
C:\Users\SOLDER~1\AppData\Local\Temp\ccheWc1y.s:31726  .debug_str:0000000000029e3b .LASF1169
C:\Users\SOLDER~1\AppData\Local\Temp\ccheWc1y.s:23590  .debug_str:0000000000008dfd .LASF1170
C:\Users\SOLDER~1\AppData\Local\Temp\ccheWc1y.s:29730  .debug_str:0000000000021c5c .LASF1171
C:\Users\SOLDER~1\AppData\Local\Temp\ccheWc1y.s:30588  .debug_str:00000000000253c3 .LASF1172
C:\Users\SOLDER~1\AppData\Local\Temp\ccheWc1y.s:29048  .debug_str:000000000001f083 .LASF1173
C:\Users\SOLDER~1\AppData\Local\Temp\ccheWc1y.s:27442  .debug_str:0000000000018955 .LASF1174
C:\Users\SOLDER~1\AppData\Local\Temp\ccheWc1y.s:25400  .debug_str:000000000001051a .LASF1175
C:\Users\SOLDER~1\AppData\Local\Temp\ccheWc1y.s:29260  .debug_str:000000000001feaf .LASF1176
C:\Users\SOLDER~1\AppData\Local\Temp\ccheWc1y.s:26326  .debug_str:00000000000140f3 .LASF1177
C:\Users\SOLDER~1\AppData\Local\Temp\ccheWc1y.s:26068  .debug_str:0000000000012f3e .LASF1178
C:\Users\SOLDER~1\AppData\Local\Temp\ccheWc1y.s:27124  .debug_str:0000000000017421 .LASF1179
C:\Users\SOLDER~1\AppData\Local\Temp\ccheWc1y.s:25276  .debug_str:000000000000fc95 .LASF1180
C:\Users\SOLDER~1\AppData\Local\Temp\ccheWc1y.s:27366  .debug_str:0000000000018440 .LASF1181
C:\Users\SOLDER~1\AppData\Local\Temp\ccheWc1y.s:30860  .debug_str:00000000000265b4 .LASF1182
C:\Users\SOLDER~1\AppData\Local\Temp\ccheWc1y.s:25464  .debug_str:000000000001091f .LASF1183
C:\Users\SOLDER~1\AppData\Local\Temp\ccheWc1y.s:31078  .debug_str:0000000000027419 .LASF1184
C:\Users\SOLDER~1\AppData\Local\Temp\ccheWc1y.s:27956  .debug_str:000000000001aa06 .LASF1185
C:\Users\SOLDER~1\AppData\Local\Temp\ccheWc1y.s:31496  .debug_str:0000000000028f83 .LASF1186
C:\Users\SOLDER~1\AppData\Local\Temp\ccheWc1y.s:25978  .debug_str:000000000001296a .LASF1187
C:\Users\SOLDER~1\AppData\Local\Temp\ccheWc1y.s:23968  .debug_str:000000000000a73f .LASF1188
C:\Users\SOLDER~1\AppData\Local\Temp\ccheWc1y.s:23298  .debug_str:0000000000007ae5 .LASF1189
C:\Users\SOLDER~1\AppData\Local\Temp\ccheWc1y.s:21870  .debug_str:0000000000001f33 .LASF1190
C:\Users\SOLDER~1\AppData\Local\Temp\ccheWc1y.s:25704  .debug_str:0000000000011848 .LASF1191
C:\Users\SOLDER~1\AppData\Local\Temp\ccheWc1y.s:22368  .debug_str:0000000000003f31 .LASF1192
C:\Users\SOLDER~1\AppData\Local\Temp\ccheWc1y.s:33034  .debug_str:000000000002f299 .LASF1193
C:\Users\SOLDER~1\AppData\Local\Temp\ccheWc1y.s:27992  .debug_str:000000000001ac53 .LASF1194
C:\Users\SOLDER~1\AppData\Local\Temp\ccheWc1y.s:23136  .debug_str:00000000000070b0 .LASF1195
C:\Users\SOLDER~1\AppData\Local\Temp\ccheWc1y.s:28694  .debug_str:000000000001d9e5 .LASF1196
C:\Users\SOLDER~1\AppData\Local\Temp\ccheWc1y.s:32276  .debug_str:000000000002c181 .LASF1197
C:\Users\SOLDER~1\AppData\Local\Temp\ccheWc1y.s:26752  .debug_str:0000000000015cc8 .LASF1198
C:\Users\SOLDER~1\AppData\Local\Temp\ccheWc1y.s:23758  .debug_str:0000000000009951 .LASF1199
C:\Users\SOLDER~1\AppData\Local\Temp\ccheWc1y.s:29252  .debug_str:000000000001fe1c .LASF1200
GAS LISTING C:\Users\SOLDER~1\AppData\Local\Temp\ccheWc1y.s 			page 87


C:\Users\SOLDER~1\AppData\Local\Temp\ccheWc1y.s:32826  .debug_str:000000000002e575 .LASF1201
C:\Users\SOLDER~1\AppData\Local\Temp\ccheWc1y.s:27398  .debug_str:000000000001868b .LASF1202
C:\Users\SOLDER~1\AppData\Local\Temp\ccheWc1y.s:22700  .debug_str:00000000000053c9 .LASF1203
C:\Users\SOLDER~1\AppData\Local\Temp\ccheWc1y.s:21928  .debug_str:0000000000002307 .LASF1204
C:\Users\SOLDER~1\AppData\Local\Temp\ccheWc1y.s:26144  .debug_str:000000000001345c .LASF1205
C:\Users\SOLDER~1\AppData\Local\Temp\ccheWc1y.s:29976  .debug_str:0000000000022baf .LASF1206
C:\Users\SOLDER~1\AppData\Local\Temp\ccheWc1y.s:32734  .debug_str:000000000002dfa5 .LASF1207
C:\Users\SOLDER~1\AppData\Local\Temp\ccheWc1y.s:31672  .debug_str:0000000000029ace .LASF1208
C:\Users\SOLDER~1\AppData\Local\Temp\ccheWc1y.s:32224  .debug_str:000000000002be5a .LASF1209
C:\Users\SOLDER~1\AppData\Local\Temp\ccheWc1y.s:31030  .debug_str:0000000000027118 .LASF1210
C:\Users\SOLDER~1\AppData\Local\Temp\ccheWc1y.s:24926  .debug_str:000000000000e652 .LASF1211
C:\Users\SOLDER~1\AppData\Local\Temp\ccheWc1y.s:28398  .debug_str:000000000001c622 .LASF1212
C:\Users\SOLDER~1\AppData\Local\Temp\ccheWc1y.s:22936  .debug_str:000000000000633d .LASF1213
C:\Users\SOLDER~1\AppData\Local\Temp\ccheWc1y.s:32094  .debug_str:000000000002b5dd .LASF1214
C:\Users\SOLDER~1\AppData\Local\Temp\ccheWc1y.s:22788  .debug_str:000000000000594a .LASF1215
C:\Users\SOLDER~1\AppData\Local\Temp\ccheWc1y.s:29020  .debug_str:000000000001eea2 .LASF1216
C:\Users\SOLDER~1\AppData\Local\Temp\ccheWc1y.s:23564  .debug_str:0000000000008c5a .LASF1217
C:\Users\SOLDER~1\AppData\Local\Temp\ccheWc1y.s:22150  .debug_str:0000000000003122 .LASF1218
C:\Users\SOLDER~1\AppData\Local\Temp\ccheWc1y.s:30268  .debug_str:0000000000023eec .LASF1219
C:\Users\SOLDER~1\AppData\Local\Temp\ccheWc1y.s:29982  .debug_str:0000000000022c0f .LASF1220
C:\Users\SOLDER~1\AppData\Local\Temp\ccheWc1y.s:29436  .debug_str:0000000000020979 .LASF1221
C:\Users\SOLDER~1\AppData\Local\Temp\ccheWc1y.s:26040  .debug_str:0000000000012d62 .LASF1222
C:\Users\SOLDER~1\AppData\Local\Temp\ccheWc1y.s:22786  .debug_str:0000000000005927 .LASF1223
C:\Users\SOLDER~1\AppData\Local\Temp\ccheWc1y.s:24254  .debug_str:000000000000ba0b .LASF1224
C:\Users\SOLDER~1\AppData\Local\Temp\ccheWc1y.s:27690  .debug_str:000000000001997a .LASF1225
C:\Users\SOLDER~1\AppData\Local\Temp\ccheWc1y.s:25188  .debug_str:000000000000f6e9 .LASF1226
C:\Users\SOLDER~1\AppData\Local\Temp\ccheWc1y.s:30406  .debug_str:00000000000247d5 .LASF1227
C:\Users\SOLDER~1\AppData\Local\Temp\ccheWc1y.s:24124  .debug_str:000000000000b1ae .LASF1228
C:\Users\SOLDER~1\AppData\Local\Temp\ccheWc1y.s:25232  .debug_str:000000000000f9b5 .LASF1229
C:\Users\SOLDER~1\AppData\Local\Temp\ccheWc1y.s:31242  .debug_str:0000000000027ef2 .LASF1230
C:\Users\SOLDER~1\AppData\Local\Temp\ccheWc1y.s:26228  .debug_str:00000000000139df .LASF1231
C:\Users\SOLDER~1\AppData\Local\Temp\ccheWc1y.s:27376  .debug_str:0000000000018509 .LASF1232
C:\Users\SOLDER~1\AppData\Local\Temp\ccheWc1y.s:25562  .debug_str:0000000000010f6d .LASF1233
C:\Users\SOLDER~1\AppData\Local\Temp\ccheWc1y.s:23084  .debug_str:0000000000006d0f .LASF1234
C:\Users\SOLDER~1\AppData\Local\Temp\ccheWc1y.s:26280  .debug_str:0000000000013d74 .LASF1235
C:\Users\SOLDER~1\AppData\Local\Temp\ccheWc1y.s:29246  .debug_str:000000000001fdb2 .LASF1236
C:\Users\SOLDER~1\AppData\Local\Temp\ccheWc1y.s:31002  .debug_str:0000000000026f1a .LASF1237
C:\Users\SOLDER~1\AppData\Local\Temp\ccheWc1y.s:27832  .debug_str:000000000001a240 .LASF1238
C:\Users\SOLDER~1\AppData\Local\Temp\ccheWc1y.s:24960  .debug_str:000000000000e897 .LASF1239
C:\Users\SOLDER~1\AppData\Local\Temp\ccheWc1y.s:32652  .debug_str:000000000002da6e .LASF1240
C:\Users\SOLDER~1\AppData\Local\Temp\ccheWc1y.s:30146  .debug_str:00000000000236cb .LASF1241
C:\Users\SOLDER~1\AppData\Local\Temp\ccheWc1y.s:28806  .debug_str:000000000001e09b .LASF1242
C:\Users\SOLDER~1\AppData\Local\Temp\ccheWc1y.s:29036  .debug_str:000000000001efc3 .LASF1243
C:\Users\SOLDER~1\AppData\Local\Temp\ccheWc1y.s:22134  .debug_str:0000000000003038 .LASF1244
C:\Users\SOLDER~1\AppData\Local\Temp\ccheWc1y.s:24912  .debug_str:000000000000e554 .LASF1245
C:\Users\SOLDER~1\AppData\Local\Temp\ccheWc1y.s:31522  .debug_str:0000000000029138 .LASF1246
C:\Users\SOLDER~1\AppData\Local\Temp\ccheWc1y.s:31058  .debug_str:00000000000272dd .LASF1247
C:\Users\SOLDER~1\AppData\Local\Temp\ccheWc1y.s:30836  .debug_str:00000000000263f5 .LASF1248
C:\Users\SOLDER~1\AppData\Local\Temp\ccheWc1y.s:27116  .debug_str:0000000000017392 .LASF1249
C:\Users\SOLDER~1\AppData\Local\Temp\ccheWc1y.s:24486  .debug_str:000000000000c94a .LASF1250
C:\Users\SOLDER~1\AppData\Local\Temp\ccheWc1y.s:32674  .debug_str:000000000002dbae .LASF1251
C:\Users\SOLDER~1\AppData\Local\Temp\ccheWc1y.s:29270  .debug_str:000000000001ff2f .LASF1252
C:\Users\SOLDER~1\AppData\Local\Temp\ccheWc1y.s:26056  .debug_str:0000000000012e5a .LASF1253
C:\Users\SOLDER~1\AppData\Local\Temp\ccheWc1y.s:28096  .debug_str:000000000001b35e .LASF1254
C:\Users\SOLDER~1\AppData\Local\Temp\ccheWc1y.s:30868  .debug_str:0000000000026631 .LASF1255
C:\Users\SOLDER~1\AppData\Local\Temp\ccheWc1y.s:28416  .debug_str:000000000001c76f .LASF1256
C:\Users\SOLDER~1\AppData\Local\Temp\ccheWc1y.s:27094  .debug_str:000000000001721e .LASF1257
GAS LISTING C:\Users\SOLDER~1\AppData\Local\Temp\ccheWc1y.s 			page 88


C:\Users\SOLDER~1\AppData\Local\Temp\ccheWc1y.s:27410  .debug_str:000000000001875c .LASF1258
C:\Users\SOLDER~1\AppData\Local\Temp\ccheWc1y.s:32072  .debug_str:000000000002b46a .LASF1259
C:\Users\SOLDER~1\AppData\Local\Temp\ccheWc1y.s:25474  .debug_str:00000000000109d1 .LASF1260
C:\Users\SOLDER~1\AppData\Local\Temp\ccheWc1y.s:30884  .debug_str:0000000000026733 .LASF1261
C:\Users\SOLDER~1\AppData\Local\Temp\ccheWc1y.s:23538  .debug_str:0000000000008a8a .LASF1262
C:\Users\SOLDER~1\AppData\Local\Temp\ccheWc1y.s:30120  .debug_str:0000000000023529 .LASF1263
C:\Users\SOLDER~1\AppData\Local\Temp\ccheWc1y.s:27900  .debug_str:000000000001a683 .LASF1264
C:\Users\SOLDER~1\AppData\Local\Temp\ccheWc1y.s:30084  .debug_str:00000000000232f8 .LASF1265
C:\Users\SOLDER~1\AppData\Local\Temp\ccheWc1y.s:26622  .debug_str:00000000000154a2 .LASF1266
C:\Users\SOLDER~1\AppData\Local\Temp\ccheWc1y.s:23190  .debug_str:0000000000007438 .LASF1267
C:\Users\SOLDER~1\AppData\Local\Temp\ccheWc1y.s:31660  .debug_str:00000000000299f4 .LASF1268
C:\Users\SOLDER~1\AppData\Local\Temp\ccheWc1y.s:22002  .debug_str:00000000000027cc .LASF1269
C:\Users\SOLDER~1\AppData\Local\Temp\ccheWc1y.s:24826  .debug_str:000000000000df54 .LASF1270
C:\Users\SOLDER~1\AppData\Local\Temp\ccheWc1y.s:22326  .debug_str:0000000000003c8f .LASF1271
C:\Users\SOLDER~1\AppData\Local\Temp\ccheWc1y.s:30442  .debug_str:0000000000024a28 .LASF1272
C:\Users\SOLDER~1\AppData\Local\Temp\ccheWc1y.s:33000  .debug_str:000000000002f075 .LASF1273
C:\Users\SOLDER~1\AppData\Local\Temp\ccheWc1y.s:26116  .debug_str:0000000000013294 .LASF1274
C:\Users\SOLDER~1\AppData\Local\Temp\ccheWc1y.s:27972  .debug_str:000000000001aaf9 .LASF1275
C:\Users\SOLDER~1\AppData\Local\Temp\ccheWc1y.s:22956  .debug_str:0000000000006498 .LASF1276
C:\Users\SOLDER~1\AppData\Local\Temp\ccheWc1y.s:24084  .debug_str:000000000000aef2 .LASF1277
C:\Users\SOLDER~1\AppData\Local\Temp\ccheWc1y.s:22278  .debug_str:000000000000396c .LASF1278
C:\Users\SOLDER~1\AppData\Local\Temp\ccheWc1y.s:21802  .debug_str:0000000000001aa2 .LASF1279
C:\Users\SOLDER~1\AppData\Local\Temp\ccheWc1y.s:23216  .debug_str:00000000000075db .LASF1280
C:\Users\SOLDER~1\AppData\Local\Temp\ccheWc1y.s:22402  .debug_str:0000000000004139 .LASF1281
C:\Users\SOLDER~1\AppData\Local\Temp\ccheWc1y.s:25802  .debug_str:0000000000011e9b .LASF1282
C:\Users\SOLDER~1\AppData\Local\Temp\ccheWc1y.s:31920  .debug_str:000000000002ab08 .LASF1283
C:\Users\SOLDER~1\AppData\Local\Temp\ccheWc1y.s:27040  .debug_str:0000000000016ef9 .LASF1284
C:\Users\SOLDER~1\AppData\Local\Temp\ccheWc1y.s:24860  .debug_str:000000000000e1ac .LASF1285
C:\Users\SOLDER~1\AppData\Local\Temp\ccheWc1y.s:21434  .debug_str:00000000000001fe .LASF1286
C:\Users\SOLDER~1\AppData\Local\Temp\ccheWc1y.s:31316  .debug_str:00000000000283d4 .LASF1287
C:\Users\SOLDER~1\AppData\Local\Temp\ccheWc1y.s:26360  .debug_str:0000000000014342 .LASF1288
C:\Users\SOLDER~1\AppData\Local\Temp\ccheWc1y.s:32304  .debug_str:000000000002c356 .LASF1289
C:\Users\SOLDER~1\AppData\Local\Temp\ccheWc1y.s:25170  .debug_str:000000000000f5a7 .LASF1290
C:\Users\SOLDER~1\AppData\Local\Temp\ccheWc1y.s:24198  .debug_str:000000000000b65b .LASF1291
C:\Users\SOLDER~1\AppData\Local\Temp\ccheWc1y.s:31914  .debug_str:000000000002aaa5 .LASF1292
C:\Users\SOLDER~1\AppData\Local\Temp\ccheWc1y.s:29824  .debug_str:0000000000022225 .LASF1293
C:\Users\SOLDER~1\AppData\Local\Temp\ccheWc1y.s:31340  .debug_str:000000000002853d .LASF1294
C:\Users\SOLDER~1\AppData\Local\Temp\ccheWc1y.s:26672  .debug_str:00000000000157eb .LASF1295
C:\Users\SOLDER~1\AppData\Local\Temp\ccheWc1y.s:24554  .debug_str:000000000000cdee .LASF1296
C:\Users\SOLDER~1\AppData\Local\Temp\ccheWc1y.s:32800  .debug_str:000000000002e3c1 .LASF1297
C:\Users\SOLDER~1\AppData\Local\Temp\ccheWc1y.s:23392  .debug_str:000000000000812d .LASF1298
C:\Users\SOLDER~1\AppData\Local\Temp\ccheWc1y.s:24834  .debug_str:000000000000dfda .LASF1299
C:\Users\SOLDER~1\AppData\Local\Temp\ccheWc1y.s:32180  .debug_str:000000000002bb67 .LASF1300
C:\Users\SOLDER~1\AppData\Local\Temp\ccheWc1y.s:26608  .debug_str:00000000000153ca .LASF1301
C:\Users\SOLDER~1\AppData\Local\Temp\ccheWc1y.s:24668  .debug_str:000000000000d56b .LASF1302
C:\Users\SOLDER~1\AppData\Local\Temp\ccheWc1y.s:30130  .debug_str:00000000000235d2 .LASF1303
C:\Users\SOLDER~1\AppData\Local\Temp\ccheWc1y.s:25618  .debug_str:00000000000112ea .LASF1304
C:\Users\SOLDER~1\AppData\Local\Temp\ccheWc1y.s:28454  .debug_str:000000000001c9d8 .LASF1305
C:\Users\SOLDER~1\AppData\Local\Temp\ccheWc1y.s:23868  .debug_str:000000000000a092 .LASF1306
C:\Users\SOLDER~1\AppData\Local\Temp\ccheWc1y.s:32348  .debug_str:000000000002c67e .LASF1307
C:\Users\SOLDER~1\AppData\Local\Temp\ccheWc1y.s:31424  .debug_str:0000000000028ad3 .LASF1308
C:\Users\SOLDER~1\AppData\Local\Temp\ccheWc1y.s:26346  .debug_str:000000000001423f .LASF1309
C:\Users\SOLDER~1\AppData\Local\Temp\ccheWc1y.s:28002  .debug_str:000000000001ad05 .LASF1310
C:\Users\SOLDER~1\AppData\Local\Temp\ccheWc1y.s:26158  .debug_str:0000000000013541 .LASF1311
C:\Users\SOLDER~1\AppData\Local\Temp\ccheWc1y.s:32246  .debug_str:000000000002bfb5 .LASF1312
C:\Users\SOLDER~1\AppData\Local\Temp\ccheWc1y.s:26780  .debug_str:0000000000015e9d .LASF1313
C:\Users\SOLDER~1\AppData\Local\Temp\ccheWc1y.s:33070  .debug_str:000000000002f4bd .LASF1314
GAS LISTING C:\Users\SOLDER~1\AppData\Local\Temp\ccheWc1y.s 			page 89


C:\Users\SOLDER~1\AppData\Local\Temp\ccheWc1y.s:33020  .debug_str:000000000002f1c5 .LASF1315
C:\Users\SOLDER~1\AppData\Local\Temp\ccheWc1y.s:22042  .debug_str:0000000000002a8a .LASF1316
C:\Users\SOLDER~1\AppData\Local\Temp\ccheWc1y.s:29196  .debug_str:000000000001fa5b .LASF1317
C:\Users\SOLDER~1\AppData\Local\Temp\ccheWc1y.s:25770  .debug_str:0000000000011c78 .LASF1318
C:\Users\SOLDER~1\AppData\Local\Temp\ccheWc1y.s:23958  .debug_str:000000000000a68f .LASF1319
C:\Users\SOLDER~1\AppData\Local\Temp\ccheWc1y.s:26720  .debug_str:0000000000015b08 .LASF1320
C:\Users\SOLDER~1\AppData\Local\Temp\ccheWc1y.s:28518  .debug_str:000000000001ce0f .LASF1321
C:\Users\SOLDER~1\AppData\Local\Temp\ccheWc1y.s:33084  .debug_str:000000000002f597 .LASF1322
C:\Users\SOLDER~1\AppData\Local\Temp\ccheWc1y.s:32010  .debug_str:000000000002b094 .LASF1323
C:\Users\SOLDER~1\AppData\Local\Temp\ccheWc1y.s:28148  .debug_str:000000000001b668 .LASF1324
C:\Users\SOLDER~1\AppData\Local\Temp\ccheWc1y.s:26072  .debug_str:0000000000012f8a .LASF1325
C:\Users\SOLDER~1\AppData\Local\Temp\ccheWc1y.s:27620  .debug_str:0000000000019500 .LASF1326
C:\Users\SOLDER~1\AppData\Local\Temp\ccheWc1y.s:22852  .debug_str:0000000000005d6a .LASF1327
C:\Users\SOLDER~1\AppData\Local\Temp\ccheWc1y.s:32462  .debug_str:000000000002cddd .LASF1328
C:\Users\SOLDER~1\AppData\Local\Temp\ccheWc1y.s:22340  .debug_str:0000000000003d56 .LASF1329
C:\Users\SOLDER~1\AppData\Local\Temp\ccheWc1y.s:31278  .debug_str:0000000000028123 .LASF1330
C:\Users\SOLDER~1\AppData\Local\Temp\ccheWc1y.s:21600  .debug_str:0000000000000de4 .LASF1331
C:\Users\SOLDER~1\AppData\Local\Temp\ccheWc1y.s:32106  .debug_str:000000000002b6e9 .LASF1332
C:\Users\SOLDER~1\AppData\Local\Temp\ccheWc1y.s:30600  .debug_str:000000000002549e .LASF1333
C:\Users\SOLDER~1\AppData\Local\Temp\ccheWc1y.s:32570  .debug_str:000000000002d4ba .LASF1334
C:\Users\SOLDER~1\AppData\Local\Temp\ccheWc1y.s:26396  .debug_str:000000000001458e .LASF1335
C:\Users\SOLDER~1\AppData\Local\Temp\ccheWc1y.s:23894  .debug_str:000000000000a239 .LASF1336
C:\Users\SOLDER~1\AppData\Local\Temp\ccheWc1y.s:24678  .debug_str:000000000000d620 .LASF1337
C:\Users\SOLDER~1\AppData\Local\Temp\ccheWc1y.s:31794  .debug_str:000000000002a2a6 .LASF1338
C:\Users\SOLDER~1\AppData\Local\Temp\ccheWc1y.s:28564  .debug_str:000000000001d134 .LASF1339
C:\Users\SOLDER~1\AppData\Local\Temp\ccheWc1y.s:27684  .debug_str:0000000000019901 .LASF1340
C:\Users\SOLDER~1\AppData\Local\Temp\ccheWc1y.s:22510  .debug_str:0000000000004814 .LASF1341
C:\Users\SOLDER~1\AppData\Local\Temp\ccheWc1y.s:24194  .debug_str:000000000000b623 .LASF1342
C:\Users\SOLDER~1\AppData\Local\Temp\ccheWc1y.s:30438  .debug_str:00000000000249d6 .LASF1343
C:\Users\SOLDER~1\AppData\Local\Temp\ccheWc1y.s:24792  .debug_str:000000000000dd91 .LASF1344
C:\Users\SOLDER~1\AppData\Local\Temp\ccheWc1y.s:30972  .debug_str:0000000000026d1f .LASF1345
C:\Users\SOLDER~1\AppData\Local\Temp\ccheWc1y.s:25720  .debug_str:0000000000011972 .LASF1346
C:\Users\SOLDER~1\AppData\Local\Temp\ccheWc1y.s:29644  .debug_str:00000000000216d5 .LASF1347
C:\Users\SOLDER~1\AppData\Local\Temp\ccheWc1y.s:26412  .debug_str:00000000000146c7 .LASF1348
C:\Users\SOLDER~1\AppData\Local\Temp\ccheWc1y.s:21818  .debug_str:0000000000001baa .LASF1349
C:\Users\SOLDER~1\AppData\Local\Temp\ccheWc1y.s:30054  .debug_str:000000000002310f .LASF1350
C:\Users\SOLDER~1\AppData\Local\Temp\ccheWc1y.s:28226  .debug_str:000000000001bb6b .LASF1351
C:\Users\SOLDER~1\AppData\Local\Temp\ccheWc1y.s:24038  .debug_str:000000000000ac06 .LASF1352
C:\Users\SOLDER~1\AppData\Local\Temp\ccheWc1y.s:24736  .debug_str:000000000000d9f8 .LASF1353
C:\Users\SOLDER~1\AppData\Local\Temp\ccheWc1y.s:29200  .debug_str:000000000001faa6 .LASF1354
C:\Users\SOLDER~1\AppData\Local\Temp\ccheWc1y.s:28250  .debug_str:000000000001bccb .LASF1355
C:\Users\SOLDER~1\AppData\Local\Temp\ccheWc1y.s:24354  .debug_str:000000000000c041 .LASF1356
C:\Users\SOLDER~1\AppData\Local\Temp\ccheWc1y.s:22260  .debug_str:000000000000383e .LASF1357
C:\Users\SOLDER~1\AppData\Local\Temp\ccheWc1y.s:23522  .debug_str:00000000000089a4 .LASF1358
C:\Users\SOLDER~1\AppData\Local\Temp\ccheWc1y.s:30662  .debug_str:000000000002587a .LASF1359
C:\Users\SOLDER~1\AppData\Local\Temp\ccheWc1y.s:28670  .debug_str:000000000001d848 .LASF1360
C:\Users\SOLDER~1\AppData\Local\Temp\ccheWc1y.s:30232  .debug_str:0000000000023cad .LASF1361
C:\Users\SOLDER~1\AppData\Local\Temp\ccheWc1y.s:27556  .debug_str:000000000001908e .LASF1362
C:\Users\SOLDER~1\AppData\Local\Temp\ccheWc1y.s:29482  .debug_str:0000000000020c7b .LASF1363
C:\Users\SOLDER~1\AppData\Local\Temp\ccheWc1y.s:22796  .debug_str:00000000000059d0 .LASF1364
C:\Users\SOLDER~1\AppData\Local\Temp\ccheWc1y.s:26772  .debug_str:0000000000015e1f .LASF1365
C:\Users\SOLDER~1\AppData\Local\Temp\ccheWc1y.s:28772  .debug_str:000000000001de62 .LASF1366
C:\Users\SOLDER~1\AppData\Local\Temp\ccheWc1y.s:26986  .debug_str:0000000000016b98 .LASF1367
C:\Users\SOLDER~1\AppData\Local\Temp\ccheWc1y.s:31816  .debug_str:000000000002a43e .LASF1368
C:\Users\SOLDER~1\AppData\Local\Temp\ccheWc1y.s:32580  .debug_str:000000000002d56f .LASF1369
C:\Users\SOLDER~1\AppData\Local\Temp\ccheWc1y.s:32594  .debug_str:000000000002d679 .LASF1370
C:\Users\SOLDER~1\AppData\Local\Temp\ccheWc1y.s:24782  .debug_str:000000000000dcec .LASF1371
GAS LISTING C:\Users\SOLDER~1\AppData\Local\Temp\ccheWc1y.s 			page 90


C:\Users\SOLDER~1\AppData\Local\Temp\ccheWc1y.s:23844  .debug_str:0000000000009ed3 .LASF1372
C:\Users\SOLDER~1\AppData\Local\Temp\ccheWc1y.s:30414  .debug_str:000000000002486d .LASF1373
C:\Users\SOLDER~1\AppData\Local\Temp\ccheWc1y.s:32108  .debug_str:000000000002b70e .LASF1374
C:\Users\SOLDER~1\AppData\Local\Temp\ccheWc1y.s:23002  .debug_str:00000000000067a5 .LASF1375
C:\Users\SOLDER~1\AppData\Local\Temp\ccheWc1y.s:26120  .debug_str:00000000000132c8 .LASF1376
C:\Users\SOLDER~1\AppData\Local\Temp\ccheWc1y.s:23618  .debug_str:0000000000009009 .LASF1377
C:\Users\SOLDER~1\AppData\Local\Temp\ccheWc1y.s:28660  .debug_str:000000000001d7a1 .LASF1378
C:\Users\SOLDER~1\AppData\Local\Temp\ccheWc1y.s:29960  .debug_str:0000000000022a96 .LASF1379
C:\Users\SOLDER~1\AppData\Local\Temp\ccheWc1y.s:30776  .debug_str:0000000000025fea .LASF1380
C:\Users\SOLDER~1\AppData\Local\Temp\ccheWc1y.s:26076  .debug_str:0000000000012fc6 .LASF1381
C:\Users\SOLDER~1\AppData\Local\Temp\ccheWc1y.s:22608  .debug_str:0000000000004e47 .LASF1382
C:\Users\SOLDER~1\AppData\Local\Temp\ccheWc1y.s:32554  .debug_str:000000000002d3a4 .LASF1383
C:\Users\SOLDER~1\AppData\Local\Temp\ccheWc1y.s:23568  .debug_str:0000000000008c98 .LASF1384
C:\Users\SOLDER~1\AppData\Local\Temp\ccheWc1y.s:32642  .debug_str:000000000002d9b8 .LASF1385
C:\Users\SOLDER~1\AppData\Local\Temp\ccheWc1y.s:25438  .debug_str:0000000000010740 .LASF1386
C:\Users\SOLDER~1\AppData\Local\Temp\ccheWc1y.s:32016  .debug_str:000000000002b0f0 .LASF1387
C:\Users\SOLDER~1\AppData\Local\Temp\ccheWc1y.s:32260  .debug_str:000000000002c082 .LASF1388
C:\Users\SOLDER~1\AppData\Local\Temp\ccheWc1y.s:30154  .debug_str:000000000002375e .LASF1389
C:\Users\SOLDER~1\AppData\Local\Temp\ccheWc1y.s:31694  .debug_str:0000000000029c4a .LASF1390
C:\Users\SOLDER~1\AppData\Local\Temp\ccheWc1y.s:26926  .debug_str:0000000000016809 .LASF1391
C:\Users\SOLDER~1\AppData\Local\Temp\ccheWc1y.s:27256  .debug_str:0000000000017d17 .LASF1392
C:\Users\SOLDER~1\AppData\Local\Temp\ccheWc1y.s:26512  .debug_str:0000000000014d71 .LASF1393
C:\Users\SOLDER~1\AppData\Local\Temp\ccheWc1y.s:25540  .debug_str:0000000000010dff .LASF1394
C:\Users\SOLDER~1\AppData\Local\Temp\ccheWc1y.s:25734  .debug_str:0000000000011a5f .LASF1395
C:\Users\SOLDER~1\AppData\Local\Temp\ccheWc1y.s:30702  .debug_str:0000000000025aea .LASF1396
C:\Users\SOLDER~1\AppData\Local\Temp\ccheWc1y.s:22950  .debug_str:0000000000006422 .LASF1397
C:\Users\SOLDER~1\AppData\Local\Temp\ccheWc1y.s:25000  .debug_str:000000000000eb0a .LASF1398
C:\Users\SOLDER~1\AppData\Local\Temp\ccheWc1y.s:30462  .debug_str:0000000000024b77 .LASF1399
C:\Users\SOLDER~1\AppData\Local\Temp\ccheWc1y.s:28044  .debug_str:000000000001afb5 .LASF1400
C:\Users\SOLDER~1\AppData\Local\Temp\ccheWc1y.s:28690  .debug_str:000000000001d9a8 .LASF1401
C:\Users\SOLDER~1\AppData\Local\Temp\ccheWc1y.s:24216  .debug_str:000000000000b7c4 .LASF1402
C:\Users\SOLDER~1\AppData\Local\Temp\ccheWc1y.s:30582  .debug_str:0000000000025361 .LASF1403
C:\Users\SOLDER~1\AppData\Local\Temp\ccheWc1y.s:31770  .debug_str:000000000002a0fb .LASF1404
C:\Users\SOLDER~1\AppData\Local\Temp\ccheWc1y.s:26668  .debug_str:00000000000157a7 .LASF1405
C:\Users\SOLDER~1\AppData\Local\Temp\ccheWc1y.s:28332  .debug_str:000000000001c1c6 .LASF1406
C:\Users\SOLDER~1\AppData\Local\Temp\ccheWc1y.s:27390  .debug_str:000000000001860c .LASF1407
C:\Users\SOLDER~1\AppData\Local\Temp\ccheWc1y.s:29078  .debug_str:000000000001f267 .LASF1408
C:\Users\SOLDER~1\AppData\Local\Temp\ccheWc1y.s:27974  .debug_str:000000000001ab1b .LASF1409
C:\Users\SOLDER~1\AppData\Local\Temp\ccheWc1y.s:22640  .debug_str:0000000000005020 .LASF1410
C:\Users\SOLDER~1\AppData\Local\Temp\ccheWc1y.s:22512  .debug_str:0000000000004839 .LASF1411
C:\Users\SOLDER~1\AppData\Local\Temp\ccheWc1y.s:23254  .debug_str:0000000000007839 .LASF1412
C:\Users\SOLDER~1\AppData\Local\Temp\ccheWc1y.s:30364  .debug_str:0000000000024514 .LASF1413
C:\Users\SOLDER~1\AppData\Local\Temp\ccheWc1y.s:26994  .debug_str:0000000000016c07 .LASF1414
C:\Users\SOLDER~1\AppData\Local\Temp\ccheWc1y.s:25196  .debug_str:000000000000f768 .LASF1415
C:\Users\SOLDER~1\AppData\Local\Temp\ccheWc1y.s:27936  .debug_str:000000000001a89c .LASF1416
C:\Users\SOLDER~1\AppData\Local\Temp\ccheWc1y.s:28748  .debug_str:000000000001dd1f .LASF1417
C:\Users\SOLDER~1\AppData\Local\Temp\ccheWc1y.s:21636  .debug_str:000000000000100a .LASF1418
C:\Users\SOLDER~1\AppData\Local\Temp\ccheWc1y.s:32352  .debug_str:000000000002c6c5 .LASF1419
C:\Users\SOLDER~1\AppData\Local\Temp\ccheWc1y.s:28472  .debug_str:000000000001caee .LASF1420
C:\Users\SOLDER~1\AppData\Local\Temp\ccheWc1y.s:21586  .debug_str:0000000000000cd7 .LASF1421
C:\Users\SOLDER~1\AppData\Local\Temp\ccheWc1y.s:27940  .debug_str:000000000001a8e9 .LASF1422
C:\Users\SOLDER~1\AppData\Local\Temp\ccheWc1y.s:23100  .debug_str:0000000000006e0d .LASF1423
C:\Users\SOLDER~1\AppData\Local\Temp\ccheWc1y.s:32818  .debug_str:000000000002e4de .LASF1424
C:\Users\SOLDER~1\AppData\Local\Temp\ccheWc1y.s:22672  .debug_str:000000000000520c .LASF1425
C:\Users\SOLDER~1\AppData\Local\Temp\ccheWc1y.s:31624  .debug_str:000000000002978e .LASF1426
C:\Users\SOLDER~1\AppData\Local\Temp\ccheWc1y.s:21904  .debug_str:0000000000002164 .LASF1427
C:\Users\SOLDER~1\AppData\Local\Temp\ccheWc1y.s:26876  .debug_str:00000000000164de .LASF1428
GAS LISTING C:\Users\SOLDER~1\AppData\Local\Temp\ccheWc1y.s 			page 91


C:\Users\SOLDER~1\AppData\Local\Temp\ccheWc1y.s:30842  .debug_str:0000000000026452 .LASF1429
C:\Users\SOLDER~1\AppData\Local\Temp\ccheWc1y.s:32922  .debug_str:000000000002eb40 .LASF1430
C:\Users\SOLDER~1\AppData\Local\Temp\ccheWc1y.s:22192  .debug_str:00000000000033db .LASF1431
C:\Users\SOLDER~1\AppData\Local\Temp\ccheWc1y.s:24234  .debug_str:000000000000b8dc .LASF1432
C:\Users\SOLDER~1\AppData\Local\Temp\ccheWc1y.s:24922  .debug_str:000000000000e60b .LASF1433
C:\Users\SOLDER~1\AppData\Local\Temp\ccheWc1y.s:32126  .debug_str:000000000002b853 .LASF1434
C:\Users\SOLDER~1\AppData\Local\Temp\ccheWc1y.s:28898  .debug_str:000000000001e6ac .LASF1435
C:\Users\SOLDER~1\AppData\Local\Temp\ccheWc1y.s:23514  .debug_str:0000000000008919 .LASF1436
C:\Users\SOLDER~1\AppData\Local\Temp\ccheWc1y.s:22574  .debug_str:0000000000004c2b .LASF1437
C:\Users\SOLDER~1\AppData\Local\Temp\ccheWc1y.s:24532  .debug_str:000000000000cc46 .LASF1438
C:\Users\SOLDER~1\AppData\Local\Temp\ccheWc1y.s:31668  .debug_str:0000000000029a85 .LASF1439
C:\Users\SOLDER~1\AppData\Local\Temp\ccheWc1y.s:26102  .debug_str:0000000000013197 .LASF1440
C:\Users\SOLDER~1\AppData\Local\Temp\ccheWc1y.s:32288  .debug_str:000000000002c25e .LASF1441
C:\Users\SOLDER~1\AppData\Local\Temp\ccheWc1y.s:26928  .debug_str:000000000001682e .LASF1442
C:\Users\SOLDER~1\AppData\Local\Temp\ccheWc1y.s:26886  .debug_str:0000000000016573 .LASF1443
C:\Users\SOLDER~1\AppData\Local\Temp\ccheWc1y.s:29454  .debug_str:0000000000020a9e .LASF1444
C:\Users\SOLDER~1\AppData\Local\Temp\ccheWc1y.s:23020  .debug_str:00000000000068fb .LASF1445
C:\Users\SOLDER~1\AppData\Local\Temp\ccheWc1y.s:24994  .debug_str:000000000000eaa4 .LASF1446
C:\Users\SOLDER~1\AppData\Local\Temp\ccheWc1y.s:29504  .debug_str:0000000000020df7 .LASF1447
C:\Users\SOLDER~1\AppData\Local\Temp\ccheWc1y.s:32240  .debug_str:000000000002bf4b .LASF1448
C:\Users\SOLDER~1\AppData\Local\Temp\ccheWc1y.s:24976  .debug_str:000000000000e99c .LASF1449
C:\Users\SOLDER~1\AppData\Local\Temp\ccheWc1y.s:29514  .debug_str:0000000000020e99 .LASF1450
C:\Users\SOLDER~1\AppData\Local\Temp\ccheWc1y.s:26410  .debug_str:00000000000146a2 .LASF1451
C:\Users\SOLDER~1\AppData\Local\Temp\ccheWc1y.s:24692  .debug_str:000000000000d709 .LASF1452
C:\Users\SOLDER~1\AppData\Local\Temp\ccheWc1y.s:22590  .debug_str:0000000000004d39 .LASF1453
C:\Users\SOLDER~1\AppData\Local\Temp\ccheWc1y.s:24118  .debug_str:000000000000b141 .LASF1454
C:\Users\SOLDER~1\AppData\Local\Temp\ccheWc1y.s:31000  .debug_str:0000000000026ef5 .LASF1455
C:\Users\SOLDER~1\AppData\Local\Temp\ccheWc1y.s:21568  .debug_str:0000000000000b9d .LASF1456
C:\Users\SOLDER~1\AppData\Local\Temp\ccheWc1y.s:30572  .debug_str:00000000000252bf .LASF1457
C:\Users\SOLDER~1\AppData\Local\Temp\ccheWc1y.s:23884  .debug_str:000000000000a1a7 .LASF1458
C:\Users\SOLDER~1\AppData\Local\Temp\ccheWc1y.s:29808  .debug_str:0000000000022132 .LASF1459
C:\Users\SOLDER~1\AppData\Local\Temp\ccheWc1y.s:22982  .debug_str:0000000000006648 .LASF1460
C:\Users\SOLDER~1\AppData\Local\Temp\ccheWc1y.s:27122  .debug_str:00000000000173fc .LASF1461
C:\Users\SOLDER~1\AppData\Local\Temp\ccheWc1y.s:27052  .debug_str:0000000000016fcd .LASF1462
C:\Users\SOLDER~1\AppData\Local\Temp\ccheWc1y.s:22908  .debug_str:000000000000612c .LASF1463
C:\Users\SOLDER~1\AppData\Local\Temp\ccheWc1y.s:32150  .debug_str:000000000002b991 .LASF1464
C:\Users\SOLDER~1\AppData\Local\Temp\ccheWc1y.s:32844  .debug_str:000000000002e68d .LASF1465
C:\Users\SOLDER~1\AppData\Local\Temp\ccheWc1y.s:28350  .debug_str:000000000001c30a .LASF1466
C:\Users\SOLDER~1\AppData\Local\Temp\ccheWc1y.s:23060  .debug_str:0000000000006bb4 .LASF1467
C:\Users\SOLDER~1\AppData\Local\Temp\ccheWc1y.s:24100  .debug_str:000000000000affe .LASF1468
C:\Users\SOLDER~1\AppData\Local\Temp\ccheWc1y.s:28732  .debug_str:000000000001dc24 .LASF1469
C:\Users\SOLDER~1\AppData\Local\Temp\ccheWc1y.s:27334  .debug_str:0000000000018216 .LASF1470
C:\Users\SOLDER~1\AppData\Local\Temp\ccheWc1y.s:24310  .debug_str:000000000000bd5e .LASF1471
C:\Users\SOLDER~1\AppData\Local\Temp\ccheWc1y.s:30292  .debug_str:0000000000024047 .LASF1472
C:\Users\SOLDER~1\AppData\Local\Temp\ccheWc1y.s:24836  .debug_str:000000000000dfff .LASF1473
C:\Users\SOLDER~1\AppData\Local\Temp\ccheWc1y.s:31206  .debug_str:0000000000027c9e .LASF1474
C:\Users\SOLDER~1\AppData\Local\Temp\ccheWc1y.s:31172  .debug_str:0000000000027a67 .LASF1475
C:\Users\SOLDER~1\AppData\Local\Temp\ccheWc1y.s:31902  .debug_str:000000000002a9e4 .LASF1476
C:\Users\SOLDER~1\AppData\Local\Temp\ccheWc1y.s:27402  .debug_str:00000000000186d9 .LASF1477
C:\Users\SOLDER~1\AppData\Local\Temp\ccheWc1y.s:23902  .debug_str:000000000000a2c4 .LASF1478
C:\Users\SOLDER~1\AppData\Local\Temp\ccheWc1y.s:22052  .debug_str:0000000000002b20 .LASF1479
C:\Users\SOLDER~1\AppData\Local\Temp\ccheWc1y.s:24784  .debug_str:000000000000dd11 .LASF1480
C:\Users\SOLDER~1\AppData\Local\Temp\ccheWc1y.s:32900  .debug_str:000000000002e9e1 .LASF1481
C:\Users\SOLDER~1\AppData\Local\Temp\ccheWc1y.s:25762  .debug_str:0000000000011bfd .LASF1482
C:\Users\SOLDER~1\AppData\Local\Temp\ccheWc1y.s:24788  .debug_str:000000000000dd58 .LASF1483
C:\Users\SOLDER~1\AppData\Local\Temp\ccheWc1y.s:32590  .debug_str:000000000002d62b .LASF1484
C:\Users\SOLDER~1\AppData\Local\Temp\ccheWc1y.s:30492  .debug_str:0000000000024d6b .LASF1485
GAS LISTING C:\Users\SOLDER~1\AppData\Local\Temp\ccheWc1y.s 			page 92


C:\Users\SOLDER~1\AppData\Local\Temp\ccheWc1y.s:31938  .debug_str:000000000002ac45 .LASF1486
C:\Users\SOLDER~1\AppData\Local\Temp\ccheWc1y.s:27284  .debug_str:0000000000017eed .LASF1487
C:\Users\SOLDER~1\AppData\Local\Temp\ccheWc1y.s:24576  .debug_str:000000000000cf77 .LASF1488
C:\Users\SOLDER~1\AppData\Local\Temp\ccheWc1y.s:26842  .debug_str:0000000000016276 .LASF1489
C:\Users\SOLDER~1\AppData\Local\Temp\ccheWc1y.s:23946  .debug_str:000000000000a5c7 .LASF1490
C:\Users\SOLDER~1\AppData\Local\Temp\ccheWc1y.s:22922  .debug_str:000000000000624c .LASF1491
C:\Users\SOLDER~1\AppData\Local\Temp\ccheWc1y.s:30944  .debug_str:0000000000026b66 .LASF1492
C:\Users\SOLDER~1\AppData\Local\Temp\ccheWc1y.s:28014  .debug_str:000000000001adde .LASF1493
C:\Users\SOLDER~1\AppData\Local\Temp\ccheWc1y.s:25356  .debug_str:0000000000010246 .LASF1494
C:\Users\SOLDER~1\AppData\Local\Temp\ccheWc1y.s:27396  .debug_str:0000000000018666 .LASF1495
C:\Users\SOLDER~1\AppData\Local\Temp\ccheWc1y.s:28370  .debug_str:000000000001c478 .LASF1496
C:\Users\SOLDER~1\AppData\Local\Temp\ccheWc1y.s:29040  .debug_str:000000000001effe .LASF1497
C:\Users\SOLDER~1\AppData\Local\Temp\ccheWc1y.s:24556  .debug_str:000000000000ce13 .LASF1498
C:\Users\SOLDER~1\AppData\Local\Temp\ccheWc1y.s:32946  .debug_str:000000000002ecb8 .LASF1499
C:\Users\SOLDER~1\AppData\Local\Temp\ccheWc1y.s:32002  .debug_str:000000000002aff9 .LASF1500
C:\Users\SOLDER~1\AppData\Local\Temp\ccheWc1y.s:27020  .debug_str:0000000000016dbb .LASF1501
C:\Users\SOLDER~1\AppData\Local\Temp\ccheWc1y.s:22044  .debug_str:0000000000002aae .LASF1502
C:\Users\SOLDER~1\AppData\Local\Temp\ccheWc1y.s:28550  .debug_str:000000000001d02e .LASF1503
C:\Users\SOLDER~1\AppData\Local\Temp\ccheWc1y.s:22948  .debug_str:00000000000063fe .LASF1504
C:\Users\SOLDER~1\AppData\Local\Temp\ccheWc1y.s:29176  .debug_str:000000000001f8f6 .LASF1505
C:\Users\SOLDER~1\AppData\Local\Temp\ccheWc1y.s:23848  .debug_str:0000000000009f3b .LASF1506
C:\Users\SOLDER~1\AppData\Local\Temp\ccheWc1y.s:23812  .debug_str:0000000000009cde .LASF1507
C:\Users\SOLDER~1\AppData\Local\Temp\ccheWc1y.s:24548  .debug_str:000000000000cd87 .LASF1508
C:\Users\SOLDER~1\AppData\Local\Temp\ccheWc1y.s:31578  .debug_str:000000000002949c .LASF1509
C:\Users\SOLDER~1\AppData\Local\Temp\ccheWc1y.s:28946  .debug_str:000000000001e999 .LASF1510
C:\Users\SOLDER~1\AppData\Local\Temp\ccheWc1y.s:26418  .debug_str:000000000001473f .LASF1511
C:\Users\SOLDER~1\AppData\Local\Temp\ccheWc1y.s:29118  .debug_str:000000000001f503 .LASF1512
C:\Users\SOLDER~1\AppData\Local\Temp\ccheWc1y.s:29104  .debug_str:000000000001f418 .LASF1513
C:\Users\SOLDER~1\AppData\Local\Temp\ccheWc1y.s:21910  .debug_str:00000000000021d9 .LASF1514
C:\Users\SOLDER~1\AppData\Local\Temp\ccheWc1y.s:32696  .debug_str:000000000002dd0d .LASF1515
C:\Users\SOLDER~1\AppData\Local\Temp\ccheWc1y.s:28798  .debug_str:000000000001e006 .LASF1516
C:\Users\SOLDER~1\AppData\Local\Temp\ccheWc1y.s:29712  .debug_str:0000000000021b23 .LASF1517
C:\Users\SOLDER~1\AppData\Local\Temp\ccheWc1y.s:28164  .debug_str:000000000001b769 .LASF1518
C:\Users\SOLDER~1\AppData\Local\Temp\ccheWc1y.s:23442  .debug_str:000000000000848d .LASF1519
C:\Users\SOLDER~1\AppData\Local\Temp\ccheWc1y.s:33054  .debug_str:000000000002f3bc .LASF1520
C:\Users\SOLDER~1\AppData\Local\Temp\ccheWc1y.s:30540  .debug_str:0000000000025076 .LASF1521
C:\Users\SOLDER~1\AppData\Local\Temp\ccheWc1y.s:31864  .debug_str:000000000002a76e .LASF1522
C:\Users\SOLDER~1\AppData\Local\Temp\ccheWc1y.s:22154  .debug_str:0000000000003163 .LASF1523
C:\Users\SOLDER~1\AppData\Local\Temp\ccheWc1y.s:27234  .debug_str:0000000000017bb6 .LASF1524
C:\Users\SOLDER~1\AppData\Local\Temp\ccheWc1y.s:31192  .debug_str:0000000000027bb7 .LASF1525
C:\Users\SOLDER~1\AppData\Local\Temp\ccheWc1y.s:21474  .debug_str:0000000000000486 .LASF1526
C:\Users\SOLDER~1\AppData\Local\Temp\ccheWc1y.s:27076  .debug_str:0000000000017113 .LASF1527
C:\Users\SOLDER~1\AppData\Local\Temp\ccheWc1y.s:24490  .debug_str:000000000000c986 .LASF1528
C:\Users\SOLDER~1\AppData\Local\Temp\ccheWc1y.s:25272  .debug_str:000000000000fc4f .LASF1529
C:\Users\SOLDER~1\AppData\Local\Temp\ccheWc1y.s:23414  .debug_str:00000000000082c8 .LASF1530
C:\Users\SOLDER~1\AppData\Local\Temp\ccheWc1y.s:31994  .debug_str:000000000002af69 .LASF1531
C:\Users\SOLDER~1\AppData\Local\Temp\ccheWc1y.s:28238  .debug_str:000000000001bc0f .LASF1532
C:\Users\SOLDER~1\AppData\Local\Temp\ccheWc1y.s:22978  .debug_str:0000000000006600 .LASF1533
C:\Users\SOLDER~1\AppData\Local\Temp\ccheWc1y.s:24874  .debug_str:000000000000e28f .LASF1534
C:\Users\SOLDER~1\AppData\Local\Temp\ccheWc1y.s:32892  .debug_str:000000000002e954 .LASF1535
C:\Users\SOLDER~1\AppData\Local\Temp\ccheWc1y.s:27344  .debug_str:00000000000182bd .LASF1536
C:\Users\SOLDER~1\AppData\Local\Temp\ccheWc1y.s:21796  .debug_str:0000000000001a3e .LASF1537
C:\Users\SOLDER~1\AppData\Local\Temp\ccheWc1y.s:28204  .debug_str:000000000001ba0c .LASF1538
C:\Users\SOLDER~1\AppData\Local\Temp\ccheWc1y.s:28072  .debug_str:000000000001b1a6 .LASF1539
C:\Users\SOLDER~1\AppData\Local\Temp\ccheWc1y.s:28778  .debug_str:000000000001ded2 .LASF1540
C:\Users\SOLDER~1\AppData\Local\Temp\ccheWc1y.s:24224  .debug_str:000000000000b84d .LASF1541
C:\Users\SOLDER~1\AppData\Local\Temp\ccheWc1y.s:32492  .debug_str:000000000002cfc1 .LASF1542
GAS LISTING C:\Users\SOLDER~1\AppData\Local\Temp\ccheWc1y.s 			page 93


C:\Users\SOLDER~1\AppData\Local\Temp\ccheWc1y.s:30622  .debug_str:00000000000255ff .LASF1543
C:\Users\SOLDER~1\AppData\Local\Temp\ccheWc1y.s:21748  .debug_str:000000000000173d .LASF1544
C:\Users\SOLDER~1\AppData\Local\Temp\ccheWc1y.s:25332  .debug_str:00000000000100b6 .LASF1545
C:\Users\SOLDER~1\AppData\Local\Temp\ccheWc1y.s:29844  .debug_str:0000000000022378 .LASF1546
C:\Users\SOLDER~1\AppData\Local\Temp\ccheWc1y.s:28902  .debug_str:000000000001e6f7 .LASF1547
C:\Users\SOLDER~1\AppData\Local\Temp\ccheWc1y.s:25026  .debug_str:000000000000ecdf .LASF1548
C:\Users\SOLDER~1\AppData\Local\Temp\ccheWc1y.s:29174  .debug_str:000000000001f8d1 .LASF1549
C:\Users\SOLDER~1\AppData\Local\Temp\ccheWc1y.s:22308  .debug_str:0000000000003b64 .LASF1550
C:\Users\SOLDER~1\AppData\Local\Temp\ccheWc1y.s:25440  .debug_str:0000000000010765 .LASF1551
C:\Users\SOLDER~1\AppData\Local\Temp\ccheWc1y.s:29264  .debug_str:000000000001fee8 .LASF1552
C:\Users\SOLDER~1\AppData\Local\Temp\ccheWc1y.s:30908  .debug_str:00000000000268e9 .LASF1553
C:\Users\SOLDER~1\AppData\Local\Temp\ccheWc1y.s:28102  .debug_str:000000000001b3b9 .LASF1554
C:\Users\SOLDER~1\AppData\Local\Temp\ccheWc1y.s:30044  .debug_str:0000000000023047 .LASF1555
C:\Users\SOLDER~1\AppData\Local\Temp\ccheWc1y.s:23396  .debug_str:0000000000008178 .LASF1556
C:\Users\SOLDER~1\AppData\Local\Temp\ccheWc1y.s:27466  .debug_str:0000000000018ab0 .LASF1557
C:\Users\SOLDER~1\AppData\Local\Temp\ccheWc1y.s:29370  .debug_str:0000000000020549 .LASF1558
C:\Users\SOLDER~1\AppData\Local\Temp\ccheWc1y.s:23250  .debug_str:00000000000077fd .LASF1559
C:\Users\SOLDER~1\AppData\Local\Temp\ccheWc1y.s:32400  .debug_str:000000000002c9e5 .LASF1560
C:\Users\SOLDER~1\AppData\Local\Temp\ccheWc1y.s:21482  .debug_str:0000000000000506 .LASF1561
C:\Users\SOLDER~1\AppData\Local\Temp\ccheWc1y.s:28584  .debug_str:000000000001d270 .LASF1562
C:\Users\SOLDER~1\AppData\Local\Temp\ccheWc1y.s:25388  .debug_str:0000000000010458 .LASF1563
C:\Users\SOLDER~1\AppData\Local\Temp\ccheWc1y.s:24440  .debug_str:000000000000c5de .LASF1564
C:\Users\SOLDER~1\AppData\Local\Temp\ccheWc1y.s:31084  .debug_str:0000000000027494 .LASF1565
C:\Users\SOLDER~1\AppData\Local\Temp\ccheWc1y.s:27242  .debug_str:0000000000017c34 .LASF1566
C:\Users\SOLDER~1\AppData\Local\Temp\ccheWc1y.s:25550  .debug_str:0000000000010eb7 .LASF1567
C:\Users\SOLDER~1\AppData\Local\Temp\ccheWc1y.s:31608  .debug_str:0000000000029671 .LASF1568
C:\Users\SOLDER~1\AppData\Local\Temp\ccheWc1y.s:26050  .debug_str:0000000000012dfe .LASF1569
C:\Users\SOLDER~1\AppData\Local\Temp\ccheWc1y.s:32430  .debug_str:000000000002cbcf .LASF1570
C:\Users\SOLDER~1\AppData\Local\Temp\ccheWc1y.s:32398  .debug_str:000000000002c9c1 .LASF1571
C:\Users\SOLDER~1\AppData\Local\Temp\ccheWc1y.s:21442  .debug_str:000000000000028a .LASF1572
C:\Users\SOLDER~1\AppData\Local\Temp\ccheWc1y.s:28562  .debug_str:000000000001d110 .LASF1573
C:\Users\SOLDER~1\AppData\Local\Temp\ccheWc1y.s:25136  .debug_str:000000000000f3a1 .LASF1574
C:\Users\SOLDER~1\AppData\Local\Temp\ccheWc1y.s:23356  .debug_str:0000000000007ed4 .LASF1575
C:\Users\SOLDER~1\AppData\Local\Temp\ccheWc1y.s:26000  .debug_str:0000000000012b1a .LASF1576
C:\Users\SOLDER~1\AppData\Local\Temp\ccheWc1y.s:21538  .debug_str:0000000000000982 .LASF1577
C:\Users\SOLDER~1\AppData\Local\Temp\ccheWc1y.s:26092  .debug_str:00000000000130f9 .LASF1578
C:\Users\SOLDER~1\AppData\Local\Temp\ccheWc1y.s:25126  .debug_str:000000000000f2f2 .LASF1579
C:\Users\SOLDER~1\AppData\Local\Temp\ccheWc1y.s:32854  .debug_str:000000000002e720 .LASF1580
C:\Users\SOLDER~1\AppData\Local\Temp\ccheWc1y.s:30744  .debug_str:0000000000025daa .LASF1581
C:\Users\SOLDER~1\AppData\Local\Temp\ccheWc1y.s:32280  .debug_str:000000000002c1cb .LASF1582
C:\Users\SOLDER~1\AppData\Local\Temp\ccheWc1y.s:27610  .debug_str:0000000000019451 .LASF1583
C:\Users\SOLDER~1\AppData\Local\Temp\ccheWc1y.s:23850  .debug_str:0000000000009f5f .LASF1584
C:\Users\SOLDER~1\AppData\Local\Temp\ccheWc1y.s:27092  .debug_str:00000000000171f9 .LASF1585
C:\Users\SOLDER~1\AppData\Local\Temp\ccheWc1y.s:24308  .debug_str:000000000000bd39 .LASF1586
C:\Users\SOLDER~1\AppData\Local\Temp\ccheWc1y.s:26324  .debug_str:00000000000140ce .LASF1587
C:\Users\SOLDER~1\AppData\Local\Temp\ccheWc1y.s:31282  .debug_str:0000000000028164 .LASF1588
C:\Users\SOLDER~1\AppData\Local\Temp\ccheWc1y.s:23620  .debug_str:000000000000902d .LASF1589
C:\Users\SOLDER~1\AppData\Local\Temp\ccheWc1y.s:25612  .debug_str:000000000001128a .LASF1590
C:\Users\SOLDER~1\AppData\Local\Temp\ccheWc1y.s:31046  .debug_str:0000000000027233 .LASF1591
C:\Users\SOLDER~1\AppData\Local\Temp\ccheWc1y.s:28608  .debug_str:000000000001d416 .LASF1592
C:\Users\SOLDER~1\AppData\Local\Temp\ccheWc1y.s:31296  .debug_str:0000000000028265 .LASF1593
C:\Users\SOLDER~1\AppData\Local\Temp\ccheWc1y.s:24810  .debug_str:000000000000de83 .LASF1594
C:\Users\SOLDER~1\AppData\Local\Temp\ccheWc1y.s:21590  .debug_str:0000000000000d21 .LASF1595
C:\Users\SOLDER~1\AppData\Local\Temp\ccheWc1y.s:32346  .debug_str:000000000002c659 .LASF1596
C:\Users\SOLDER~1\AppData\Local\Temp\ccheWc1y.s:27280  .debug_str:0000000000017ea6 .LASF1597
C:\Users\SOLDER~1\AppData\Local\Temp\ccheWc1y.s:30188  .debug_str:00000000000239a0 .LASF1598
C:\Users\SOLDER~1\AppData\Local\Temp\ccheWc1y.s:32476  .debug_str:000000000002ceb1 .LASF1599
GAS LISTING C:\Users\SOLDER~1\AppData\Local\Temp\ccheWc1y.s 			page 94


C:\Users\SOLDER~1\AppData\Local\Temp\ccheWc1y.s:26916  .debug_str:000000000001674f .LASF1600
C:\Users\SOLDER~1\AppData\Local\Temp\ccheWc1y.s:21412  .debug_str:00000000000000d1 .LASF1601
C:\Users\SOLDER~1\AppData\Local\Temp\ccheWc1y.s:27726  .debug_str:0000000000019c2c .LASF1602
C:\Users\SOLDER~1\AppData\Local\Temp\ccheWc1y.s:27696  .debug_str:00000000000199e7 .LASF1603
C:\Users\SOLDER~1\AppData\Local\Temp\ccheWc1y.s:28392  .debug_str:000000000001c5c9 .LASF1604
C:\Users\SOLDER~1\AppData\Local\Temp\ccheWc1y.s:23818  .debug_str:0000000000009d3d .LASF1605
C:\Users\SOLDER~1\AppData\Local\Temp\ccheWc1y.s:32086  .debug_str:000000000002b556 .LASF1606
C:\Users\SOLDER~1\AppData\Local\Temp\ccheWc1y.s:30288  .debug_str:000000000002400a .LASF1607
C:\Users\SOLDER~1\AppData\Local\Temp\ccheWc1y.s:32962  .debug_str:000000000002edd8 .LASF1608
C:\Users\SOLDER~1\AppData\Local\Temp\ccheWc1y.s:32718  .debug_str:000000000002de9a .LASF1609
C:\Users\SOLDER~1\AppData\Local\Temp\ccheWc1y.s:24908  .debug_str:000000000000e4f4 .LASF1610
C:\Users\SOLDER~1\AppData\Local\Temp\ccheWc1y.s:29240  .debug_str:000000000001fd48 .LASF1611
C:\Users\SOLDER~1\AppData\Local\Temp\ccheWc1y.s:22094  .debug_str:0000000000002d98 .LASF1612
C:\Users\SOLDER~1\AppData\Local\Temp\ccheWc1y.s:29590  .debug_str:0000000000021329 .LASF1613
C:\Users\SOLDER~1\AppData\Local\Temp\ccheWc1y.s:31092  .debug_str:000000000002751a .LASF1614
C:\Users\SOLDER~1\AppData\Local\Temp\ccheWc1y.s:26430  .debug_str:0000000000014813 .LASF1615
C:\Users\SOLDER~1\AppData\Local\Temp\ccheWc1y.s:23478  .debug_str:00000000000086dd .LASF1616
C:\Users\SOLDER~1\AppData\Local\Temp\ccheWc1y.s:25908  .debug_str:0000000000012541 .LASF1617
C:\Users\SOLDER~1\AppData\Local\Temp\ccheWc1y.s:23132  .debug_str:0000000000007057 .LASF1618
C:\Users\SOLDER~1\AppData\Local\Temp\ccheWc1y.s:25122  .debug_str:000000000000f2a7 .LASF1619
C:\Users\SOLDER~1\AppData\Local\Temp\ccheWc1y.s:30116  .debug_str:00000000000234f1 .LASF1620
C:\Users\SOLDER~1\AppData\Local\Temp\ccheWc1y.s:22442  .debug_str:00000000000043c5 .LASF1621
C:\Users\SOLDER~1\AppData\Local\Temp\ccheWc1y.s:24404  .debug_str:000000000000c354 .LASF1622
C:\Users\SOLDER~1\AppData\Local\Temp\ccheWc1y.s:29878  .debug_str:000000000002259e .LASF1623
C:\Users\SOLDER~1\AppData\Local\Temp\ccheWc1y.s:27490  .debug_str:0000000000018c67 .LASF1624
C:\Users\SOLDER~1\AppData\Local\Temp\ccheWc1y.s:28218  .debug_str:000000000001bae2 .LASF1625
C:\Users\SOLDER~1\AppData\Local\Temp\ccheWc1y.s:23626  .debug_str:0000000000009092 .LASF1626
C:\Users\SOLDER~1\AppData\Local\Temp\ccheWc1y.s:32098  .debug_str:000000000002b626 .LASF1627
C:\Users\SOLDER~1\AppData\Local\Temp\ccheWc1y.s:31166  .debug_str:0000000000027a0b .LASF1628
C:\Users\SOLDER~1\AppData\Local\Temp\ccheWc1y.s:30654  .debug_str:00000000000257dc .LASF1629
C:\Users\SOLDER~1\AppData\Local\Temp\ccheWc1y.s:27760  .debug_str:0000000000019df6 .LASF1630
C:\Users\SOLDER~1\AppData\Local\Temp\ccheWc1y.s:28956  .debug_str:000000000001ea4a .LASF1631
C:\Users\SOLDER~1\AppData\Local\Temp\ccheWc1y.s:31110  .debug_str:000000000002763b .LASF1632
C:\Users\SOLDER~1\AppData\Local\Temp\ccheWc1y.s:25670  .debug_str:0000000000011630 .LASF1633
C:\Users\SOLDER~1\AppData\Local\Temp\ccheWc1y.s:32020  .debug_str:000000000002b13d .LASF1634
C:\Users\SOLDER~1\AppData\Local\Temp\ccheWc1y.s:30374  .debug_str:00000000000245c2 .LASF1635
C:\Users\SOLDER~1\AppData\Local\Temp\ccheWc1y.s:32726  .debug_str:000000000002df23 .LASF1636
C:\Users\SOLDER~1\AppData\Local\Temp\ccheWc1y.s:28170  .debug_str:000000000001b7d2 .LASF1637
C:\Users\SOLDER~1\AppData\Local\Temp\ccheWc1y.s:24728  .debug_str:000000000000d972 .LASF1638
C:\Users\SOLDER~1\AppData\Local\Temp\ccheWc1y.s:22848  .debug_str:0000000000005d1d .LASF1639
C:\Users\SOLDER~1\AppData\Local\Temp\ccheWc1y.s:25620  .debug_str:000000000001130f .LASF1640
C:\Users\SOLDER~1\AppData\Local\Temp\ccheWc1y.s:28284  .debug_str:000000000001bebe .LASF1641
C:\Users\SOLDER~1\AppData\Local\Temp\ccheWc1y.s:32832  .debug_str:000000000002e5da .LASF1642
C:\Users\SOLDER~1\AppData\Local\Temp\ccheWc1y.s:31772  .debug_str:000000000002a120 .LASF1643
C:\Users\SOLDER~1\AppData\Local\Temp\ccheWc1y.s:27914  .debug_str:000000000001a74d .LASF1644
C:\Users\SOLDER~1\AppData\Local\Temp\ccheWc1y.s:25820  .debug_str:0000000000011fa0 .LASF1645
C:\Users\SOLDER~1\AppData\Local\Temp\ccheWc1y.s:27378  .debug_str:000000000001852d .LASF1646
C:\Users\SOLDER~1\AppData\Local\Temp\ccheWc1y.s:22596  .debug_str:0000000000004d9d .LASF1647
C:\Users\SOLDER~1\AppData\Local\Temp\ccheWc1y.s:26532  .debug_str:0000000000014ec7 .LASF1648
C:\Users\SOLDER~1\AppData\Local\Temp\ccheWc1y.s:22090  .debug_str:0000000000002d57 .LASF1649
C:\Users\SOLDER~1\AppData\Local\Temp\ccheWc1y.s:31028  .debug_str:00000000000270f2 .LASF1650
C:\Users\SOLDER~1\AppData\Local\Temp\ccheWc1y.s:33028  .debug_str:000000000002f236 .LASF1651
C:\Users\SOLDER~1\AppData\Local\Temp\ccheWc1y.s:22202  .debug_str:0000000000003497 .LASF1652
C:\Users\SOLDER~1\AppData\Local\Temp\ccheWc1y.s:30344  .debug_str:00000000000243b9 .LASF1653
C:\Users\SOLDER~1\AppData\Local\Temp\ccheWc1y.s:32316  .debug_str:000000000002c418 .LASF1654
C:\Users\SOLDER~1\AppData\Local\Temp\ccheWc1y.s:26136  .debug_str:00000000000133c3 .LASF1655
C:\Users\SOLDER~1\AppData\Local\Temp\ccheWc1y.s:23648  .debug_str:0000000000009215 .LASF1656
GAS LISTING C:\Users\SOLDER~1\AppData\Local\Temp\ccheWc1y.s 			page 95


C:\Users\SOLDER~1\AppData\Local\Temp\ccheWc1y.s:26444  .debug_str:00000000000148f8 .LASF1657
C:\Users\SOLDER~1\AppData\Local\Temp\ccheWc1y.s:31528  .debug_str:000000000002917e .LASF1658
C:\Users\SOLDER~1\AppData\Local\Temp\ccheWc1y.s:28326  .debug_str:000000000001c176 .LASF1659
C:\Users\SOLDER~1\AppData\Local\Temp\ccheWc1y.s:27438  .debug_str:0000000000018910 .LASF1660
C:\Users\SOLDER~1\AppData\Local\Temp\ccheWc1y.s:22264  .debug_str:0000000000003883 .LASF1661
C:\Users\SOLDER~1\AppData\Local\Temp\ccheWc1y.s:23926  .debug_str:000000000000a474 .LASF1662
C:\Users\SOLDER~1\AppData\Local\Temp\ccheWc1y.s:29354  .debug_str:0000000000020463 .LASF1663
C:\Users\SOLDER~1\AppData\Local\Temp\ccheWc1y.s:23754  .debug_str:0000000000009907 .LASF1664
C:\Users\SOLDER~1\AppData\Local\Temp\ccheWc1y.s:29944  .debug_str:000000000002296c .LASF1665
C:\Users\SOLDER~1\AppData\Local\Temp\ccheWc1y.s:24672  .debug_str:000000000000d5b5 .LASF1666
C:\Users\SOLDER~1\AppData\Local\Temp\ccheWc1y.s:24632  .debug_str:000000000000d321 .LASF1667
C:\Users\SOLDER~1\AppData\Local\Temp\ccheWc1y.s:25384  .debug_str:0000000000010410 .LASF1668
C:\Users\SOLDER~1\AppData\Local\Temp\ccheWc1y.s:32404  .debug_str:000000000002ca33 .LASF1669
C:\Users\SOLDER~1\AppData\Local\Temp\ccheWc1y.s:28958  .debug_str:000000000001ea6f .LASF1670
C:\Users\SOLDER~1\AppData\Local\Temp\ccheWc1y.s:27250  .debug_str:0000000000017ccf .LASF1671
C:\Users\SOLDER~1\AppData\Local\Temp\ccheWc1y.s:29892  .debug_str:000000000002266f .LASF1672
C:\Users\SOLDER~1\AppData\Local\Temp\ccheWc1y.s:24480  .debug_str:000000000000c8c1 .LASF1673
C:\Users\SOLDER~1\AppData\Local\Temp\ccheWc1y.s:32218  .debug_str:000000000002bdef .LASF1674
C:\Users\SOLDER~1\AppData\Local\Temp\ccheWc1y.s:27998  .debug_str:000000000001acc3 .LASF1675
C:\Users\SOLDER~1\AppData\Local\Temp\ccheWc1y.s:24096  .debug_str:000000000000afb4 .LASF1676
C:\Users\SOLDER~1\AppData\Local\Temp\ccheWc1y.s:22010  .debug_str:000000000000284c .LASF1677
C:\Users\SOLDER~1\AppData\Local\Temp\ccheWc1y.s:23542  .debug_str:0000000000008ad8 .LASF1678
C:\Users\SOLDER~1\AppData\Local\Temp\ccheWc1y.s:30412  .debug_str:0000000000024847 .LASF1679
C:\Users\SOLDER~1\AppData\Local\Temp\ccheWc1y.s:28426  .debug_str:000000000001c82f .LASF1680
C:\Users\SOLDER~1\AppData\Local\Temp\ccheWc1y.s:32506  .debug_str:000000000002d098 .LASF1681
C:\Users\SOLDER~1\AppData\Local\Temp\ccheWc1y.s:27314  .debug_str:00000000000180c4 .LASF1682
C:\Users\SOLDER~1\AppData\Local\Temp\ccheWc1y.s:29250  .debug_str:000000000001fdf6 .LASF1683
C:\Users\SOLDER~1\AppData\Local\Temp\ccheWc1y.s:22546  .debug_str:0000000000004a5f .LASF1684
C:\Users\SOLDER~1\AppData\Local\Temp\ccheWc1y.s:26524  .debug_str:0000000000014e41 .LASF1685
C:\Users\SOLDER~1\AppData\Local\Temp\ccheWc1y.s:28536  .debug_str:000000000001cf24 .LASF1686
C:\Users\SOLDER~1\AppData\Local\Temp\ccheWc1y.s:22322  .debug_str:0000000000003c52 .LASF1687
C:\Users\SOLDER~1\AppData\Local\Temp\ccheWc1y.s:31550  .debug_str:00000000000292d7 .LASF1688
C:\Users\SOLDER~1\AppData\Local\Temp\ccheWc1y.s:32330  .debug_str:000000000002c525 .LASF1689
C:\Users\SOLDER~1\AppData\Local\Temp\ccheWc1y.s:24770  .debug_str:000000000000dc36 .LASF1690
C:\Users\SOLDER~1\AppData\Local\Temp\ccheWc1y.s:24524  .debug_str:000000000000cbbb .LASF1691
C:\Users\SOLDER~1\AppData\Local\Temp\ccheWc1y.s:23598  .debug_str:0000000000008e98 .LASF1692
C:\Users\SOLDER~1\AppData\Local\Temp\ccheWc1y.s:25032  .debug_str:000000000000ed44 .LASF1693
C:\Users\SOLDER~1\AppData\Local\Temp\ccheWc1y.s:31848  .debug_str:000000000002a642 .LASF1694
C:\Users\SOLDER~1\AppData\Local\Temp\ccheWc1y.s:28380  .debug_str:000000000001c500 .LASF1695
C:\Users\SOLDER~1\AppData\Local\Temp\ccheWc1y.s:28104  .debug_str:000000000001b3de .LASF1696
C:\Users\SOLDER~1\AppData\Local\Temp\ccheWc1y.s:22196  .debug_str:000000000000342a .LASF1697
C:\Users\SOLDER~1\AppData\Local\Temp\ccheWc1y.s:28990  .debug_str:000000000001ecbd .LASF1698
C:\Users\SOLDER~1\AppData\Local\Temp\ccheWc1y.s:28862  .debug_str:000000000001e477 .LASF1699
C:\Users\SOLDER~1\AppData\Local\Temp\ccheWc1y.s:29592  .debug_str:000000000002134f .LASF1700
C:\Users\SOLDER~1\AppData\Local\Temp\ccheWc1y.s:25042  .debug_str:000000000000eded .LASF1701
C:\Users\SOLDER~1\AppData\Local\Temp\ccheWc1y.s:21618  .debug_str:0000000000000ef3 .LASF1702
C:\Users\SOLDER~1\AppData\Local\Temp\ccheWc1y.s:31506  .debug_str:0000000000029034 .LASF1703
C:\Users\SOLDER~1\AppData\Local\Temp\ccheWc1y.s:22530  .debug_str:0000000000004976 .LASF1704
C:\Users\SOLDER~1\AppData\Local\Temp\ccheWc1y.s:32392  .debug_str:000000000002c971 .LASF1705
C:\Users\SOLDER~1\AppData\Local\Temp\ccheWc1y.s:25164  .debug_str:000000000000f545 .LASF1706
C:\Users\SOLDER~1\AppData\Local\Temp\ccheWc1y.s:24190  .debug_str:000000000000b5e2 .LASF1707
C:\Users\SOLDER~1\AppData\Local\Temp\ccheWc1y.s:32000  .debug_str:000000000002afd3 .LASF1708
C:\Users\SOLDER~1\AppData\Local\Temp\ccheWc1y.s:29904  .debug_str:0000000000022732 .LASF1709
C:\Users\SOLDER~1\AppData\Local\Temp\ccheWc1y.s:31438  .debug_str:0000000000028bad .LASF1710
C:\Users\SOLDER~1\AppData\Local\Temp\ccheWc1y.s:26664  .debug_str:0000000000015771 .LASF1711
C:\Users\SOLDER~1\AppData\Local\Temp\ccheWc1y.s:32930  .debug_str:000000000002ebc8 .LASF1712
C:\Users\SOLDER~1\AppData\Local\Temp\ccheWc1y.s:26260  .debug_str:0000000000013c1b .LASF1713
GAS LISTING C:\Users\SOLDER~1\AppData\Local\Temp\ccheWc1y.s 			page 96


C:\Users\SOLDER~1\AppData\Local\Temp\ccheWc1y.s:24122  .debug_str:000000000000b188 .LASF1714
C:\Users\SOLDER~1\AppData\Local\Temp\ccheWc1y.s:25488  .debug_str:0000000000010aaa .LASF1715
C:\Users\SOLDER~1\AppData\Local\Temp\ccheWc1y.s:23222  .debug_str:0000000000007646 .LASF1716
C:\Users\SOLDER~1\AppData\Local\Temp\ccheWc1y.s:21918  .debug_str:000000000000225f .LASF1717
C:\Users\SOLDER~1\AppData\Local\Temp\ccheWc1y.s:24750  .debug_str:000000000000dac2 .LASF1718
C:\Users\SOLDER~1\AppData\Local\Temp\ccheWc1y.s:30210  .debug_str:0000000000023b23 .LASF1719
C:\Users\SOLDER~1\AppData\Local\Temp\ccheWc1y.s:27808  .debug_str:000000000001a0bd .LASF1720
C:\Users\SOLDER~1\AppData\Local\Temp\ccheWc1y.s:28548  .debug_str:000000000001d008 .LASF1721
C:\Users\SOLDER~1\AppData\Local\Temp\ccheWc1y.s:23948  .debug_str:000000000000a5ec .LASF1722
C:\Users\SOLDER~1\AppData\Local\Temp\ccheWc1y.s:32436  .debug_str:000000000002cc2c .LASF1723
C:\Users\SOLDER~1\AppData\Local\Temp\ccheWc1y.s:31504  .debug_str:000000000002900e .LASF1724
C:\Users\SOLDER~1\AppData\Local\Temp\ccheWc1y.s:26424  .debug_str:00000000000147b4 .LASF1725
C:\Users\SOLDER~1\AppData\Local\Temp\ccheWc1y.s:28082  .debug_str:000000000001b279 .LASF1726
C:\Users\SOLDER~1\AppData\Local\Temp\ccheWc1y.s:24730  .debug_str:000000000000d997 .LASF1727
C:\Users\SOLDER~1\AppData\Local\Temp\ccheWc1y.s:30806  .debug_str:00000000000261d6 .LASF1728
C:\Users\SOLDER~1\AppData\Local\Temp\ccheWc1y.s:25370  .debug_str:0000000000010335 .LASF1729
C:\Users\SOLDER~1\AppData\Local\Temp\ccheWc1y.s:31738  .debug_str:0000000000029edd .LASF1730
C:\Users\SOLDER~1\AppData\Local\Temp\ccheWc1y.s:31696  .debug_str:0000000000029c6f .LASF1731
C:\Users\SOLDER~1\AppData\Local\Temp\ccheWc1y.s:32424  .debug_str:000000000002cb61 .LASF1732
C:\Users\SOLDER~1\AppData\Local\Temp\ccheWc1y.s:27894  .debug_str:000000000001a615 .LASF1733
C:\Users\SOLDER~1\AppData\Local\Temp\ccheWc1y.s:24344  .debug_str:000000000000bf9d .LASF1734
C:\Users\SOLDER~1\AppData\Local\Temp\ccheWc1y.s:22784  .debug_str:0000000000005903 .LASF1735
C:\Users\SOLDER~1\AppData\Local\Temp\ccheWc1y.s:25312  .debug_str:000000000000ff34 .LASF1736
C:\Users\SOLDER~1\AppData\Local\Temp\ccheWc1y.s:26912  .debug_str:0000000000016716 .LASF1737
C:\Users\SOLDER~1\AppData\Local\Temp\ccheWc1y.s:22276  .debug_str:0000000000003947 .LASF1738
C:\Users\SOLDER~1\AppData\Local\Temp\ccheWc1y.s:22832  .debug_str:0000000000005c5a .LASF1739
C:\Users\SOLDER~1\AppData\Local\Temp\ccheWc1y.s:30642  .debug_str:0000000000025730 .LASF1740
C:\Users\SOLDER~1\AppData\Local\Temp\ccheWc1y.s:28488  .debug_str:000000000001cc2e .LASF1741
C:\Users\SOLDER~1\AppData\Local\Temp\ccheWc1y.s:32374  .debug_str:000000000002c85d .LASF1742
C:\Users\SOLDER~1\AppData\Local\Temp\ccheWc1y.s:25318  .debug_str:000000000000ff94 .LASF1743
C:\Users\SOLDER~1\AppData\Local\Temp\ccheWc1y.s:23204  .debug_str:0000000000007526 .LASF1744
C:\Users\SOLDER~1\AppData\Local\Temp\ccheWc1y.s:24882  .debug_str:000000000000e31f .LASF1745
C:\Users\SOLDER~1\AppData\Local\Temp\ccheWc1y.s:30278  .debug_str:0000000000023f96 .LASF1746
C:\Users\SOLDER~1\AppData\Local\Temp\ccheWc1y.s:24000  .debug_str:000000000000a993 .LASF1747
C:\Users\SOLDER~1\AppData\Local\Temp\ccheWc1y.s:29032  .debug_str:000000000001ef7c .LASF1748
C:\Users\SOLDER~1\AppData\Local\Temp\ccheWc1y.s:25008  .debug_str:000000000000eb9a .LASF1749
C:\Users\SOLDER~1\AppData\Local\Temp\ccheWc1y.s:23312  .debug_str:0000000000007bbd .LASF1750
C:\Users\SOLDER~1\AppData\Local\Temp\ccheWc1y.s:28888  .debug_str:000000000001e5fe .LASF1751
C:\Users\SOLDER~1\AppData\Local\Temp\ccheWc1y.s:26370  .debug_str:00000000000143eb .LASF1752
C:\Users\SOLDER~1\AppData\Local\Temp\ccheWc1y.s:27148  .debug_str:00000000000175c1 .LASF1753
C:\Users\SOLDER~1\AppData\Local\Temp\ccheWc1y.s:22518  .debug_str:00000000000048a9 .LASF1754
C:\Users\SOLDER~1\AppData\Local\Temp\ccheWc1y.s:30978  .debug_str:0000000000026d99 .LASF1755
C:\Users\SOLDER~1\AppData\Local\Temp\ccheWc1y.s:30052  .debug_str:00000000000230ea .LASF1756
C:\Users\SOLDER~1\AppData\Local\Temp\ccheWc1y.s:25056  .debug_str:000000000000eecd .LASF1757
C:\Users\SOLDER~1\AppData\Local\Temp\ccheWc1y.s:26744  .debug_str:0000000000015c56 .LASF1758
C:\Users\SOLDER~1\AppData\Local\Temp\ccheWc1y.s:29062  .debug_str:000000000001f15d .LASF1759
C:\Users\SOLDER~1\AppData\Local\Temp\ccheWc1y.s:23466  .debug_str:000000000000860f .LASF1760
C:\Users\SOLDER~1\AppData\Local\Temp\ccheWc1y.s:29666  .debug_str:0000000000021869 .LASF1761
C:\Users\SOLDER~1\AppData\Local\Temp\ccheWc1y.s:24368  .debug_str:000000000000c10f .LASF1762
C:\Users\SOLDER~1\AppData\Local\Temp\ccheWc1y.s:21946  .debug_str:0000000000002442 .LASF1763
C:\Users\SOLDER~1\AppData\Local\Temp\ccheWc1y.s:24972  .debug_str:000000000000e950 .LASF1764
C:\Users\SOLDER~1\AppData\Local\Temp\ccheWc1y.s:25854  .debug_str:00000000000121f4 .LASF1765
C:\Users\SOLDER~1\AppData\Local\Temp\ccheWc1y.s:28668  .debug_str:000000000001d824 .LASF1766
C:\Users\SOLDER~1\AppData\Local\Temp\ccheWc1y.s:26932  .debug_str:000000000001686a .LASF1767
C:\Users\SOLDER~1\AppData\Local\Temp\ccheWc1y.s:29624  .debug_str:000000000002157d .LASF1768
C:\Users\SOLDER~1\AppData\Local\Temp\ccheWc1y.s:27214  .debug_str:0000000000017a66 .LASF1769
C:\Users\SOLDER~1\AppData\Local\Temp\ccheWc1y.s:31714  .debug_str:0000000000029d79 .LASF1770
GAS LISTING C:\Users\SOLDER~1\AppData\Local\Temp\ccheWc1y.s 			page 97


C:\Users\SOLDER~1\AppData\Local\Temp\ccheWc1y.s:30742  .debug_str:0000000000025d85 .LASF1771
C:\Users\SOLDER~1\AppData\Local\Temp\ccheWc1y.s:26908  .debug_str:00000000000166d6 .LASF1772
C:\Users\SOLDER~1\AppData\Local\Temp\ccheWc1y.s:24704  .debug_str:000000000000d7d2 .LASF1773
C:\Users\SOLDER~1\AppData\Local\Temp\ccheWc1y.s:26254  .debug_str:0000000000013bad .LASF1774
C:\Users\SOLDER~1\AppData\Local\Temp\ccheWc1y.s:21524  .debug_str:0000000000000859 .LASF1775
C:\Users\SOLDER~1\AppData\Local\Temp\ccheWc1y.s:31090  .debug_str:00000000000274f5 .LASF1776
C:\Users\SOLDER~1\AppData\Local\Temp\ccheWc1y.s:32798  .debug_str:000000000002e39c .LASF1777
C:\Users\SOLDER~1\AppData\Local\Temp\ccheWc1y.s:29920  .debug_str:000000000002280a .LASF1778
C:\Users\SOLDER~1\AppData\Local\Temp\ccheWc1y.s:29338  .debug_str:000000000002037e .LASF1779
C:\Users\SOLDER~1\AppData\Local\Temp\ccheWc1y.s:25262  .debug_str:000000000000fb96 .LASF1780
C:\Users\SOLDER~1\AppData\Local\Temp\ccheWc1y.s:29278  .debug_str:000000000001ffb8 .LASF1781
C:\Users\SOLDER~1\AppData\Local\Temp\ccheWc1y.s:31198  .debug_str:0000000000027c1f .LASF1782
C:\Users\SOLDER~1\AppData\Local\Temp\ccheWc1y.s:25112  .debug_str:000000000000f20a .LASF1783
C:\Users\SOLDER~1\AppData\Local\Temp\ccheWc1y.s:22534  .debug_str:00000000000049b5 .LASF1784
C:\Users\SOLDER~1\AppData\Local\Temp\ccheWc1y.s:23322  .debug_str:0000000000007c6d .LASF1785
C:\Users\SOLDER~1\AppData\Local\Temp\ccheWc1y.s:30418  .debug_str:00000000000248ae .LASF1786
C:\Users\SOLDER~1\AppData\Local\Temp\ccheWc1y.s:27270  .debug_str:0000000000017de4 .LASF1787
C:\Users\SOLDER~1\AppData\Local\Temp\ccheWc1y.s:26330  .debug_str:0000000000014132 .LASF1788
C:\Users\SOLDER~1\AppData\Local\Temp\ccheWc1y.s:32970  .debug_str:000000000002ee5d .LASF1789
C:\Users\SOLDER~1\AppData\Local\Temp\ccheWc1y.s:22828  .debug_str:0000000000005c11 .LASF1790
C:\Users\SOLDER~1\AppData\Local\Temp\ccheWc1y.s:21704  .debug_str:0000000000001466 .LASF1791
C:\Users\SOLDER~1\AppData\Local\Temp\ccheWc1y.s:27830  .debug_str:000000000001a21c .LASF1792
C:\Users\SOLDER~1\AppData\Local\Temp\ccheWc1y.s:22302  .debug_str:0000000000003afe .LASF1793
C:\Users\SOLDER~1\AppData\Local\Temp\ccheWc1y.s:28612  .debug_str:000000000001d467 .LASF1794
C:\Users\SOLDER~1\AppData\Local\Temp\ccheWc1y.s:28576  .debug_str:000000000001d1eb .LASF1795
C:\Users\SOLDER~1\AppData\Local\Temp\ccheWc1y.s:29304  .debug_str:0000000000020162 .LASF1796
C:\Users\SOLDER~1\AppData\Local\Temp\ccheWc1y.s:25598  .debug_str:000000000001118b .LASF1797
C:\Users\SOLDER~1\AppData\Local\Temp\ccheWc1y.s:33008  .debug_str:000000000002f108 .LASF1798
C:\Users\SOLDER~1\AppData\Local\Temp\ccheWc1y.s:31210  .debug_str:0000000000027cee .LASF1799
C:\Users\SOLDER~1\AppData\Local\Temp\ccheWc1y.s:22246  .debug_str:0000000000003757 .LASF1800
C:\Users\SOLDER~1\AppData\Local\Temp\ccheWc1y.s:23380  .debug_str:0000000000008062 .LASF1801
C:\Users\SOLDER~1\AppData\Local\Temp\ccheWc1y.s:29166  .debug_str:000000000001f84a .LASF1802
C:\Users\SOLDER~1\AppData\Local\Temp\ccheWc1y.s:27010  .debug_str:0000000000016d0f .LASF1803
C:\Users\SOLDER~1\AppData\Local\Temp\ccheWc1y.s:22986  .debug_str:000000000000668e .LASF1804
C:\Users\SOLDER~1\AppData\Local\Temp\ccheWc1y.s:32608  .debug_str:000000000002d790 .LASF1805
C:\Users\SOLDER~1\AppData\Local\Temp\ccheWc1y.s:22412  .debug_str:00000000000041f1 .LASF1806
C:\Users\SOLDER~1\AppData\Local\Temp\ccheWc1y.s:29422  .debug_str:0000000000020889 .LASF1807
C:\Users\SOLDER~1\AppData\Local\Temp\ccheWc1y.s:27222  .debug_str:0000000000017ae7 .LASF1808
C:\Users\SOLDER~1\AppData\Local\Temp\ccheWc1y.s:28904  .debug_str:000000000001e71c .LASF1809
C:\Users\SOLDER~1\AppData\Local\Temp\ccheWc1y.s:26186  .debug_str:0000000000013721 .LASF1810
C:\Users\SOLDER~1\AppData\Local\Temp\ccheWc1y.s:28144  .debug_str:000000000001b626 .LASF1811
C:\Users\SOLDER~1\AppData\Local\Temp\ccheWc1y.s:21476  .debug_str:00000000000004ab .LASF1812
C:\Users\SOLDER~1\AppData\Local\Temp\ccheWc1y.s:25518  .debug_str:0000000000010c67 .LASF1813
C:\Users\SOLDER~1\AppData\Local\Temp\ccheWc1y.s:27474  .debug_str:0000000000018b55 .LASF1814
C:\Users\SOLDER~1\AppData\Local\Temp\ccheWc1y.s:32936  .debug_str:000000000002ec2a .LASF1815
C:\Users\SOLDER~1\AppData\Local\Temp\ccheWc1y.s:28856  .debug_str:000000000001e405 .LASF1816
C:\Users\SOLDER~1\AppData\Local\Temp\ccheWc1y.s:31670  .debug_str:0000000000029aa9 .LASF1817
C:\Users\SOLDER~1\AppData\Local\Temp\ccheWc1y.s:26676  .debug_str:0000000000015822 .LASF1818
C:\Users\SOLDER~1\AppData\Local\Temp\ccheWc1y.s:23424  .debug_str:0000000000008365 .LASF1819
C:\Users\SOLDER~1\AppData\Local\Temp\ccheWc1y.s:22488  .debug_str:00000000000046ac .LASF1820
C:\Users\SOLDER~1\AppData\Local\Temp\ccheWc1y.s:29076  .debug_str:000000000001f242 .LASF1821
C:\Users\SOLDER~1\AppData\Local\Temp\ccheWc1y.s:30738  .debug_str:0000000000025d3e .LASF1822
C:\Users\SOLDER~1\AppData\Local\Temp\ccheWc1y.s:26036  .debug_str:0000000000012d1c .LASF1823
C:\Users\SOLDER~1\AppData\Local\Temp\ccheWc1y.s:32030  .debug_str:000000000002b1e1 .LASF1824
C:\Users\SOLDER~1\AppData\Local\Temp\ccheWc1y.s:26578  .debug_str:00000000000151de .LASF1825
C:\Users\SOLDER~1\AppData\Local\Temp\ccheWc1y.s:32956  .debug_str:000000000002ed5c .LASF1826
C:\Users\SOLDER~1\AppData\Local\Temp\ccheWc1y.s:31348  .debug_str:00000000000285cc .LASF1827
GAS LISTING C:\Users\SOLDER~1\AppData\Local\Temp\ccheWc1y.s 			page 98


C:\Users\SOLDER~1\AppData\Local\Temp\ccheWc1y.s:21924  .debug_str:00000000000022cd .LASF1828
C:\Users\SOLDER~1\AppData\Local\Temp\ccheWc1y.s:29068  .debug_str:000000000001f1ba .LASF1829
C:\Users\SOLDER~1\AppData\Local\Temp\ccheWc1y.s:23816  .debug_str:0000000000009d19 .LASF1830
C:\Users\SOLDER~1\AppData\Local\Temp\ccheWc1y.s:23766  .debug_str:00000000000099d2 .LASF1831
C:\Users\SOLDER~1\AppData\Local\Temp\ccheWc1y.s:26526  .debug_str:0000000000014e67 .LASF1832
C:\Users\SOLDER~1\AppData\Local\Temp\ccheWc1y.s:31264  .debug_str:000000000002802d .LASF1833
C:\Users\SOLDER~1\AppData\Local\Temp\ccheWc1y.s:24134  .debug_str:000000000000b25e .LASF1834
C:\Users\SOLDER~1\AppData\Local\Temp\ccheWc1y.s:23082  .debug_str:0000000000006cea .LASF1835
C:\Users\SOLDER~1\AppData\Local\Temp\ccheWc1y.s:30880  .debug_str:00000000000266ee .LASF1836
C:\Users\SOLDER~1\AppData\Local\Temp\ccheWc1y.s:28816  .debug_str:000000000001e138 .LASF1837
C:\Users\SOLDER~1\AppData\Local\Temp\ccheWc1y.s:29734  .debug_str:0000000000021c9b .LASF1838
C:\Users\SOLDER~1\AppData\Local\Temp\ccheWc1y.s:25664  .debug_str:00000000000115ca .LASF1839
C:\Users\SOLDER~1\AppData\Local\Temp\ccheWc1y.s:24422  .debug_str:000000000000c4a1 .LASF1840
C:\Users\SOLDER~1\AppData\Local\Temp\ccheWc1y.s:25130  .debug_str:000000000000f337 .LASF1841
C:\Users\SOLDER~1\AppData\Local\Temp\ccheWc1y.s:22352  .debug_str:0000000000003e1d .LASF1842
C:\Users\SOLDER~1\AppData\Local\Temp\ccheWc1y.s:24350  .debug_str:000000000000c004 .LASF1843
C:\Users\SOLDER~1\AppData\Local\Temp\ccheWc1y.s:29374  .debug_str:000000000002058a .LASF1844
C:\Users\SOLDER~1\AppData\Local\Temp\ccheWc1y.s:21708  .debug_str:00000000000014aa .LASF1845
C:\Users\SOLDER~1\AppData\Local\Temp\ccheWc1y.s:23634  .debug_str:0000000000009120 .LASF1846
C:\Users\SOLDER~1\AppData\Local\Temp\ccheWc1y.s:29144  .debug_str:000000000001f6c5 .LASF1847
C:\Users\SOLDER~1\AppData\Local\Temp\ccheWc1y.s:26690  .debug_str:0000000000015922 .LASF1848
C:\Users\SOLDER~1\AppData\Local\Temp\ccheWc1y.s:27486  .debug_str:0000000000018c22 .LASF1849
C:\Users\SOLDER~1\AppData\Local\Temp\ccheWc1y.s:22856  .debug_str:0000000000005db7 .LASF1850
C:\Users\SOLDER~1\AppData\Local\Temp\ccheWc1y.s:31308  .debug_str:000000000002834e .LASF1851
C:\Users\SOLDER~1\AppData\Local\Temp\ccheWc1y.s:30392  .debug_str:00000000000246db .LASF1852
C:\Users\SOLDER~1\AppData\Local\Temp\ccheWc1y.s:31602  .debug_str:00000000000295fd .LASF1853
C:\Users\SOLDER~1\AppData\Local\Temp\ccheWc1y.s:27004  .debug_str:0000000000016caf .LASF1854
C:\Users\SOLDER~1\AppData\Local\Temp\ccheWc1y.s:30230  .debug_str:0000000000023c89 .LASF1855
C:\Users\SOLDER~1\AppData\Local\Temp\ccheWc1y.s:27856  .debug_str:000000000001a399 .LASF1856
C:\Users\SOLDER~1\AppData\Local\Temp\ccheWc1y.s:30856  .debug_str:0000000000026569 .LASF1857
C:\Users\SOLDER~1\AppData\Local\Temp\ccheWc1y.s:25614  .debug_str:00000000000112af .LASF1858
C:\Users\SOLDER~1\AppData\Local\Temp\ccheWc1y.s:25582  .debug_str:0000000000011094 .LASF1859
C:\Users\SOLDER~1\AppData\Local\Temp\ccheWc1y.s:26304  .debug_str:0000000000013f4c .LASF1860
C:\Users\SOLDER~1\AppData\Local\Temp\ccheWc1y.s:24116  .debug_str:000000000000b11d .LASF1861
C:\Users\SOLDER~1\AppData\Local\Temp\ccheWc1y.s:29858  .debug_str:000000000002245c .LASF1862
C:\Users\SOLDER~1\AppData\Local\Temp\ccheWc1y.s:28118  .debug_str:000000000001b4c5 .LASF1863
C:\Users\SOLDER~1\AppData\Local\Temp\ccheWc1y.s:30800  .debug_str:000000000002618a .LASF1864
C:\Users\SOLDER~1\AppData\Local\Temp\ccheWc1y.s:27544  .debug_str:0000000000018fcc .LASF1865
C:\Users\SOLDER~1\AppData\Local\Temp\ccheWc1y.s:32038  .debug_str:000000000002b268 .LASF1866
C:\Users\SOLDER~1\AppData\Local\Temp\ccheWc1y.s:30982  .debug_str:0000000000026dd2 .LASF1867
C:\Users\SOLDER~1\AppData\Local\Temp\ccheWc1y.s:27160  .debug_str:0000000000017691 .LASF1868
C:\Users\SOLDER~1\AppData\Local\Temp\ccheWc1y.s:25044  .debug_str:000000000000ee12 .LASF1869
C:\Users\SOLDER~1\AppData\Local\Temp\ccheWc1y.s:26584  .debug_str:000000000001524f .LASF1870
C:\Users\SOLDER~1\AppData\Local\Temp\ccheWc1y.s:21756  .debug_str:00000000000017c9 .LASF1871
C:\Users\SOLDER~1\AppData\Local\Temp\ccheWc1y.s:31436  .debug_str:0000000000028b88 .LASF1872
C:\Users\SOLDER~1\AppData\Local\Temp\ccheWc1y.s:30396  .debug_str:000000000002472d .LASF1873
C:\Users\SOLDER~1\AppData\Local\Temp\ccheWc1y.s:30244  .debug_str:0000000000023d7f .LASF1874
C:\Users\SOLDER~1\AppData\Local\Temp\ccheWc1y.s:32258  .debug_str:000000000002c05d .LASF1875
C:\Users\SOLDER~1\AppData\Local\Temp\ccheWc1y.s:29792  .debug_str:000000000002201a .LASF1876
C:\Users\SOLDER~1\AppData\Local\Temp\ccheWc1y.s:28516  .debug_str:000000000001cdea .LASF1877
C:\Users\SOLDER~1\AppData\Local\Temp\ccheWc1y.s:31536  .debug_str:00000000000291fe .LASF1878
C:\Users\SOLDER~1\AppData\Local\Temp\ccheWc1y.s:30200  .debug_str:0000000000023a7c .LASF1879
C:\Users\SOLDER~1\AppData\Local\Temp\ccheWc1y.s:22876  .debug_str:0000000000005f0f .LASF1880
C:\Users\SOLDER~1\AppData\Local\Temp\ccheWc1y.s:23644  .debug_str:00000000000091ce .LASF1881
C:\Users\SOLDER~1\AppData\Local\Temp\ccheWc1y.s:30754  .debug_str:0000000000025e60 .LASF1882
C:\Users\SOLDER~1\AppData\Local\Temp\ccheWc1y.s:27588  .debug_str:00000000000192ce .LASF1883
C:\Users\SOLDER~1\AppData\Local\Temp\ccheWc1y.s:21672  .debug_str:0000000000001256 .LASF1884
GAS LISTING C:\Users\SOLDER~1\AppData\Local\Temp\ccheWc1y.s 			page 99


C:\Users\SOLDER~1\AppData\Local\Temp\ccheWc1y.s:21520  .debug_str:000000000000080e .LASF1885
C:\Users\SOLDER~1\AppData\Local\Temp\ccheWc1y.s:23180  .debug_str:0000000000007378 .LASF1886
C:\Users\SOLDER~1\AppData\Local\Temp\ccheWc1y.s:22888  .debug_str:0000000000005fd3 .LASF1887
C:\Users\SOLDER~1\AppData\Local\Temp\ccheWc1y.s:29000  .debug_str:000000000001ed6f .LASF1888
C:\Users\SOLDER~1\AppData\Local\Temp\ccheWc1y.s:23518  .debug_str:000000000000895b .LASF1889
C:\Users\SOLDER~1\AppData\Local\Temp\ccheWc1y.s:29886  .debug_str:0000000000022610 .LASF1890
C:\Users\SOLDER~1\AppData\Local\Temp\ccheWc1y.s:29852  .debug_str:00000000000223eb .LASF1891
C:\Users\SOLDER~1\AppData\Local\Temp\ccheWc1y.s:30482  .debug_str:0000000000024cd6 .LASF1892
C:\Users\SOLDER~1\AppData\Local\Temp\ccheWc1y.s:25964  .debug_str:00000000000128b1 .LASF1893
C:\Users\SOLDER~1\AppData\Local\Temp\ccheWc1y.s:22498  .debug_str:0000000000004758 .LASF1894
C:\Users\SOLDER~1\AppData\Local\Temp\ccheWc1y.s:32434  .debug_str:000000000002cc08 .LASF1895
C:\Users\SOLDER~1\AppData\Local\Temp\ccheWc1y.s:23458  .debug_str:000000000000859c .LASF1896
C:\Users\SOLDER~1\AppData\Local\Temp\ccheWc1y.s:23702  .debug_str:00000000000095ba .LASF1897
C:\Users\SOLDER~1\AppData\Local\Temp\ccheWc1y.s:28180  .debug_str:000000000001b87e .LASF1898
C:\Users\SOLDER~1\AppData\Local\Temp\ccheWc1y.s:27272  .debug_str:0000000000017e09 .LASF1899
C:\Users\SOLDER~1\AppData\Local\Temp\ccheWc1y.s:23334  .debug_str:0000000000007d43 .LASF1900
C:\Users\SOLDER~1\AppData\Local\Temp\ccheWc1y.s:32958  .debug_str:000000000002ed80 .LASF1901
C:\Users\SOLDER~1\AppData\Local\Temp\ccheWc1y.s:22756  .debug_str:000000000000570c .LASF1902
C:\Users\SOLDER~1\AppData\Local\Temp\ccheWc1y.s:32544  .debug_str:000000000002d2fd .LASF1903
C:\Users\SOLDER~1\AppData\Local\Temp\ccheWc1y.s:27694  .debug_str:00000000000199c2 .LASF1904
C:\Users\SOLDER~1\AppData\Local\Temp\ccheWc1y.s:29256  .debug_str:000000000001fe63 .LASF1905
C:\Users\SOLDER~1\AppData\Local\Temp\ccheWc1y.s:22034  .debug_str:0000000000002a16 .LASF1906
C:\Users\SOLDER~1\AppData\Local\Temp\ccheWc1y.s:28466  .debug_str:000000000001ca8b .LASF1907
C:\Users\SOLDER~1\AppData\Local\Temp\ccheWc1y.s:21790  .debug_str:00000000000019da .LASF1908
C:\Users\SOLDER~1\AppData\Local\Temp\ccheWc1y.s:25696  .debug_str:00000000000117e2 .LASF1909
C:\Users\SOLDER~1\AppData\Local\Temp\ccheWc1y.s:27794  .debug_str:0000000000019fcf .LASF1910
C:\Users\SOLDER~1\AppData\Local\Temp\ccheWc1y.s:21576  .debug_str:0000000000000c2c .LASF1911
C:\Users\SOLDER~1\AppData\Local\Temp\ccheWc1y.s:30772  .debug_str:0000000000025fa9 .LASF1912
C:\Users\SOLDER~1\AppData\Local\Temp\ccheWc1y.s:31548  .debug_str:00000000000292b2 .LASF1913
C:\Users\SOLDER~1\AppData\Local\Temp\ccheWc1y.s:27028  .debug_str:0000000000016e37 .LASF1914
C:\Users\SOLDER~1\AppData\Local\Temp\ccheWc1y.s:32308  .debug_str:000000000002c39c .LASF1915
C:\Users\SOLDER~1\AppData\Local\Temp\ccheWc1y.s:22822  .debug_str:0000000000005ba4 .LASF1916
C:\Users\SOLDER~1\AppData\Local\Temp\ccheWc1y.s:29418  .debug_str:0000000000020851 .LASF1917
C:\Users\SOLDER~1\AppData\Local\Temp\ccheWc1y.s:27968  .debug_str:000000000001aab5 .LASF1918
C:\Users\SOLDER~1\AppData\Local\Temp\ccheWc1y.s:31392  .debug_str:00000000000288af .LASF1919
C:\Users\SOLDER~1\AppData\Local\Temp\ccheWc1y.s:21660  .debug_str:0000000000001193 .LASF1920
C:\Users\SOLDER~1\AppData\Local\Temp\ccheWc1y.s:27876  .debug_str:000000000001a4dc .LASF1921
C:\Users\SOLDER~1\AppData\Local\Temp\ccheWc1y.s:22430  .debug_str:000000000000431e .LASF1922
C:\Users\SOLDER~1\AppData\Local\Temp\ccheWc1y.s:22394  .debug_str:00000000000040be .LASF1923
C:\Users\SOLDER~1\AppData\Local\Temp\ccheWc1y.s:30212  .debug_str:0000000000023b49 .LASF1924
C:\Users\SOLDER~1\AppData\Local\Temp\ccheWc1y.s:30242  .debug_str:0000000000023d5b .LASF1925
C:\Users\SOLDER~1\AppData\Local\Temp\ccheWc1y.s:26874  .debug_str:00000000000164ba .LASF1926
C:\Users\SOLDER~1\AppData\Local\Temp\ccheWc1y.s:25080  .debug_str:000000000000f013 .LASF1927
C:\Users\SOLDER~1\AppData\Local\Temp\ccheWc1y.s:21438  .debug_str:0000000000000243 .LASF1928
C:\Users\SOLDER~1\AppData\Local\Temp\ccheWc1y.s:31514  .debug_str:00000000000290bf .LASF1929
C:\Users\SOLDER~1\AppData\Local\Temp\ccheWc1y.s:24378  .debug_str:000000000000c19c .LASF1930
C:\Users\SOLDER~1\AppData\Local\Temp\ccheWc1y.s:23428  .debug_str:00000000000083a5 .LASF1931
C:\Users\SOLDER~1\AppData\Local\Temp\ccheWc1y.s:31222  .debug_str:0000000000027da0 .LASF1932
C:\Users\SOLDER~1\AppData\Local\Temp\ccheWc1y.s:24844  .debug_str:000000000000e0b4 .LASF1933
C:\Users\SOLDER~1\AppData\Local\Temp\ccheWc1y.s:30658  .debug_str:000000000002581c .LASF1934
C:\Users\SOLDER~1\AppData\Local\Temp\ccheWc1y.s:21402  .debug_str:000000000000000d .LASF1935
C:\Users\SOLDER~1\AppData\Local\Temp\ccheWc1y.s:23854  .debug_str:0000000000009f96 .LASF1936
C:\Users\SOLDER~1\AppData\Local\Temp\ccheWc1y.s:25494  .debug_str:0000000000010b02 .LASF1937
C:\Users\SOLDER~1\AppData\Local\Temp\ccheWc1y.s:22684  .debug_str:00000000000052e9 .LASF1938
C:\Users\SOLDER~1\AppData\Local\Temp\ccheWc1y.s:24686  .debug_str:000000000000d69e .LASF1939
C:\Users\SOLDER~1\AppData\Local\Temp\ccheWc1y.s:29612  .debug_str:00000000000214aa .LASF1940
C:\Users\SOLDER~1\AppData\Local\Temp\ccheWc1y.s:21930  .debug_str:000000000000232d .LASF1941
GAS LISTING C:\Users\SOLDER~1\AppData\Local\Temp\ccheWc1y.s 			page 100


C:\Users\SOLDER~1\AppData\Local\Temp\ccheWc1y.s:27320  .debug_str:000000000001812a .LASF1942
C:\Users\SOLDER~1\AppData\Local\Temp\ccheWc1y.s:29464  .debug_str:0000000000020b5f .LASF1943
C:\Users\SOLDER~1\AppData\Local\Temp\ccheWc1y.s:31500  .debug_str:0000000000028fcd .LASF1944
C:\Users\SOLDER~1\AppData\Local\Temp\ccheWc1y.s:27716  .debug_str:0000000000019b3b .LASF1945
C:\Users\SOLDER~1\AppData\Local\Temp\ccheWc1y.s:23206  .debug_str:000000000000754b .LASF1946
C:\Users\SOLDER~1\AppData\Local\Temp\ccheWc1y.s:31664  .debug_str:0000000000029a3a .LASF1947
C:\Users\SOLDER~1\AppData\Local\Temp\ccheWc1y.s:30636  .debug_str:00000000000256df .LASF1948
C:\Users\SOLDER~1\AppData\Local\Temp\ccheWc1y.s:28984  .debug_str:000000000001ec54 .LASF1949
C:\Users\SOLDER~1\AppData\Local\Temp\ccheWc1y.s:27354  .debug_str:000000000001837b .LASF1950
C:\Users\SOLDER~1\AppData\Local\Temp\ccheWc1y.s:24878  .debug_str:000000000000e2da .LASF1951
C:\Users\SOLDER~1\AppData\Local\Temp\ccheWc1y.s:25898  .debug_str:0000000000012498 .LASF1952
C:\Users\SOLDER~1\AppData\Local\Temp\ccheWc1y.s:32078  .debug_str:000000000002b4c0 .LASF1953
C:\Users\SOLDER~1\AppData\Local\Temp\ccheWc1y.s:26814  .debug_str:00000000000160bc .LASF1954
C:\Users\SOLDER~1\AppData\Local\Temp\ccheWc1y.s:26770  .debug_str:0000000000015dfb .LASF1955
C:\Users\SOLDER~1\AppData\Local\Temp\ccheWc1y.s:27518  .debug_str:0000000000018e23 .LASF1956
C:\Users\SOLDER~1\AppData\Local\Temp\ccheWc1y.s:22904  .debug_str:00000000000060eb .LASF1957
C:\Users\SOLDER~1\AppData\Local\Temp\ccheWc1y.s:31154  .debug_str:000000000002792d .LASF1958
C:\Users\SOLDER~1\AppData\Local\Temp\ccheWc1y.s:29312  .debug_str:00000000000201e6 .LASF1959
C:\Users\SOLDER~1\AppData\Local\Temp\ccheWc1y.s:32022  .debug_str:000000000002b162 .LASF1960
C:\Users\SOLDER~1\AppData\Local\Temp\ccheWc1y.s:27770  .debug_str:0000000000019e91 .LASF1961
C:\Users\SOLDER~1\AppData\Local\Temp\ccheWc1y.s:30818  .debug_str:00000000000262b5 .LASF1962
C:\Users\SOLDER~1\AppData\Local\Temp\ccheWc1y.s:31310  .debug_str:0000000000028373 .LASF1963
C:\Users\SOLDER~1\AppData\Local\Temp\ccheWc1y.s:27502  .debug_str:0000000000018d1a .LASF1964
C:\Users\SOLDER~1\AppData\Local\Temp\ccheWc1y.s:27896  .debug_str:000000000001a639 .LASF1965
C:\Users\SOLDER~1\AppData\Local\Temp\ccheWc1y.s:26922  .debug_str:00000000000167c9 .LASF1966
C:\Users\SOLDER~1\AppData\Local\Temp\ccheWc1y.s:22078  .debug_str:0000000000002c7d .LASF1967
C:\Users\SOLDER~1\AppData\Local\Temp\ccheWc1y.s:31780  .debug_str:000000000002a194 .LASF1968
C:\Users\SOLDER~1\AppData\Local\Temp\ccheWc1y.s:27824  .debug_str:000000000001a1b8 .LASF1969
C:\Users\SOLDER~1\AppData\Local\Temp\ccheWc1y.s:30592  .debug_str:000000000002540b .LASF1970
C:\Users\SOLDER~1\AppData\Local\Temp\ccheWc1y.s:32586  .debug_str:000000000002d5db .LASF1971
C:\Users\SOLDER~1\AppData\Local\Temp\ccheWc1y.s:25842  .debug_str:000000000001211e .LASF1972
C:\Users\SOLDER~1\AppData\Local\Temp\ccheWc1y.s:29830  .debug_str:000000000002227e .LASF1973
C:\Users\SOLDER~1\AppData\Local\Temp\ccheWc1y.s:31870  .debug_str:000000000002a7d2 .LASF1974
C:\Users\SOLDER~1\AppData\Local\Temp\ccheWc1y.s:25710  .debug_str:00000000000118a9 .LASF1975
C:\Users\SOLDER~1\AppData\Local\Temp\ccheWc1y.s:23226  .debug_str:0000000000007686 .LASF1976
C:\Users\SOLDER~1\AppData\Local\Temp\ccheWc1y.s:23880  .debug_str:000000000000a15e .LASF1977
C:\Users\SOLDER~1\AppData\Local\Temp\ccheWc1y.s:21572  .debug_str:0000000000000be4 .LASF1978
C:\Users\SOLDER~1\AppData\Local\Temp\ccheWc1y.s:27820  .debug_str:000000000001a181 .LASF1979
C:\Users\SOLDER~1\AppData\Local\Temp\ccheWc1y.s:26902  .debug_str:0000000000016673 .LASF1980
C:\Users\SOLDER~1\AppData\Local\Temp\ccheWc1y.s:21838  .debug_str:0000000000001d2f .LASF1981
C:\Users\SOLDER~1\AppData\Local\Temp\ccheWc1y.s:23520  .debug_str:000000000000897f .LASF1982
C:\Users\SOLDER~1\AppData\Local\Temp\ccheWc1y.s:24098  .debug_str:000000000000afda .LASF1983
C:\Users\SOLDER~1\AppData\Local\Temp\ccheWc1y.s:30186  .debug_str:000000000002397c .LASF1984
C:\Users\SOLDER~1\AppData\Local\Temp\ccheWc1y.s:25830  .debug_str:000000000001204a .LASF1985
C:\Users\SOLDER~1\AppData\Local\Temp\ccheWc1y.s:31094  .debug_str:0000000000027540 .LASF1986
C:\Users\SOLDER~1\AppData\Local\Temp\ccheWc1y.s:31052  .debug_str:000000000002727c .LASF1987
C:\Users\SOLDER~1\AppData\Local\Temp\ccheWc1y.s:31804  .debug_str:000000000002a35e .LASF1988
C:\Users\SOLDER~1\AppData\Local\Temp\ccheWc1y.s:27200  .debug_str:000000000001795c .LASF1989
C:\Users\SOLDER~1\AppData\Local\Temp\ccheWc1y.s:24432  .debug_str:000000000000c564 .LASF1990
C:\Users\SOLDER~1\AppData\Local\Temp\ccheWc1y.s:21936  .debug_str:000000000000238f .LASF1991
C:\Users\SOLDER~1\AppData\Local\Temp\ccheWc1y.s:24674  .debug_str:000000000000d5da .LASF1992
C:\Users\SOLDER~1\AppData\Local\Temp\ccheWc1y.s:29806  .debug_str:000000000002210d .LASF1993
C:\Users\SOLDER~1\AppData\Local\Temp\ccheWc1y.s:28506  .debug_str:000000000001cd38 .LASF1994
C:\Users\SOLDER~1\AppData\Local\Temp\ccheWc1y.s:27594  .debug_str:000000000001933d .LASF1995
C:\Users\SOLDER~1\AppData\Local\Temp\ccheWc1y.s:23658  .debug_str:00000000000092df .LASF1996
C:\Users\SOLDER~1\AppData\Local\Temp\ccheWc1y.s:21604  .debug_str:0000000000000e2b .LASF1997
C:\Users\SOLDER~1\AppData\Local\Temp\ccheWc1y.s:23008  .debug_str:0000000000006824 .LASF1998
GAS LISTING C:\Users\SOLDER~1\AppData\Local\Temp\ccheWc1y.s 			page 101


C:\Users\SOLDER~1\AppData\Local\Temp\ccheWc1y.s:29972  .debug_str:0000000000022b67 .LASF1999
C:\Users\SOLDER~1\AppData\Local\Temp\ccheWc1y.s:28012  .debug_str:000000000001adb9 .LASF2000
C:\Users\SOLDER~1\AppData\Local\Temp\ccheWc1y.s:29572  .debug_str:0000000000021209 .LASF2001
C:\Users\SOLDER~1\AppData\Local\Temp\ccheWc1y.s:26762  .debug_str:0000000000015d6e .LASF2002
C:\Users\SOLDER~1\AppData\Local\Temp\ccheWc1y.s:28702  .debug_str:000000000001da76 .LASF2003
C:\Users\SOLDER~1\AppData\Local\Temp\ccheWc1y.s:22028  .debug_str:00000000000029ad .LASF2004
C:\Users\SOLDER~1\AppData\Local\Temp\ccheWc1y.s:26080  .debug_str:0000000000012ffc .LASF2005
C:\Users\SOLDER~1\AppData\Local\Temp\ccheWc1y.s:21638  .debug_str:000000000000102f .LASF2006
C:\Users\SOLDER~1\AppData\Local\Temp\ccheWc1y.s:21880  .debug_str:0000000000001ff0 .LASF2007
C:\Users\SOLDER~1\AppData\Local\Temp\ccheWc1y.s:31118  .debug_str:00000000000276c6 .LASF2008
C:\Users\SOLDER~1\AppData\Local\Temp\ccheWc1y.s:31810  .debug_str:000000000002a3c9 .LASF2009
C:\Users\SOLDER~1\AppData\Local\Temp\ccheWc1y.s:24584  .debug_str:000000000000cff7 .LASF2010
C:\Users\SOLDER~1\AppData\Local\Temp\ccheWc1y.s:23990  .debug_str:000000000000a8e0 .LASF2011
C:\Users\SOLDER~1\AppData\Local\Temp\ccheWc1y.s:23074  .debug_str:0000000000006c70 .LASF2012
C:\Users\SOLDER~1\AppData\Local\Temp\ccheWc1y.s:23346  .debug_str:0000000000007e03 .LASF2013
C:\Users\SOLDER~1\AppData\Local\Temp\ccheWc1y.s:31412  .debug_str:0000000000028a0a .LASF2014
C:\Users\SOLDER~1\AppData\Local\Temp\ccheWc1y.s:28432  .debug_str:000000000001c875 .LASF2015
C:\Users\SOLDER~1\AppData\Local\Temp\ccheWc1y.s:22830  .debug_str:0000000000005c36 .LASF2016
C:\Users\SOLDER~1\AppData\Local\Temp\ccheWc1y.s:29052  .debug_str:000000000001f0c3 .LASF2017
C:\Users\SOLDER~1\AppData\Local\Temp\ccheWc1y.s:23742  .debug_str:0000000000009847 .LASF2018
C:\Users\SOLDER~1\AppData\Local\Temp\ccheWc1y.s:23610  .debug_str:0000000000008f7d .LASF2019
C:\Users\SOLDER~1\AppData\Local\Temp\ccheWc1y.s:24348  .debug_str:000000000000bfe0 .LASF2020
C:\Users\SOLDER~1\AppData\Local\Temp\ccheWc1y.s:31474  .debug_str:0000000000028e18 .LASF2021
C:\Users\SOLDER~1\AppData\Local\Temp\ccheWc1y.s:28056  .debug_str:000000000001b071 .LASF2022
C:\Users\SOLDER~1\AppData\Local\Temp\ccheWc1y.s:26316  .debug_str:000000000001402f .LASF2023
C:\Users\SOLDER~1\AppData\Local\Temp\ccheWc1y.s:32450  .debug_str:000000000002cd09 .LASF2024
C:\Users\SOLDER~1\AppData\Local\Temp\ccheWc1y.s:32866  .debug_str:000000000002e7d5 .LASF2025
C:\Users\SOLDER~1\AppData\Local\Temp\ccheWc1y.s:25210  .debug_str:000000000000f82f .LASF2026
C:\Users\SOLDER~1\AppData\Local\Temp\ccheWc1y.s:23756  .debug_str:000000000000992c .LASF2027
C:\Users\SOLDER~1\AppData\Local\Temp\ccheWc1y.s:31564  .debug_str:00000000000293b7 .LASF2028
C:\Users\SOLDER~1\AppData\Local\Temp\ccheWc1y.s:29486  .debug_str:0000000000020cc3 .LASF2029
C:\Users\SOLDER~1\AppData\Local\Temp\ccheWc1y.s:30894  .debug_str:00000000000267e1 .LASF2030
C:\Users\SOLDER~1\AppData\Local\Temp\ccheWc1y.s:26244  .debug_str:0000000000013b0b .LASF2031
C:\Users\SOLDER~1\AppData\Local\Temp\ccheWc1y.s:24108  .debug_str:000000000000b0a3 .LASF2032
C:\Users\SOLDER~1\AppData\Local\Temp\ccheWc1y.s:25816  .debug_str:0000000000011f69 .LASF2033
C:\Users\SOLDER~1\AppData\Local\Temp\ccheWc1y.s:22942  .debug_str:00000000000063a2 .LASF2034
C:\Users\SOLDER~1\AppData\Local\Temp\ccheWc1y.s:24932  .debug_str:000000000000e6c0 .LASF2035
C:\Users\SOLDER~1\AppData\Local\Temp\ccheWc1y.s:32490  .debug_str:000000000002cf9c .LASF2036
C:\Users\SOLDER~1\AppData\Local\Temp\ccheWc1y.s:31940  .debug_str:000000000002ac6a .LASF2037
C:\Users\SOLDER~1\AppData\Local\Temp\ccheWc1y.s:23722  .debug_str:000000000000971a .LASF2038
C:\Users\SOLDER~1\AppData\Local\Temp\ccheWc1y.s:29790  .debug_str:0000000000021ff5 .LASF2039
C:\Users\SOLDER~1\AppData\Local\Temp\ccheWc1y.s:27308  .debug_str:000000000001805a .LASF2040
C:\Users\SOLDER~1\AppData\Local\Temp\ccheWc1y.s:28036  .debug_str:000000000001af25 .LASF2041
C:\Users\SOLDER~1\AppData\Local\Temp\ccheWc1y.s:26710  .debug_str:0000000000015a75 .LASF2042
C:\Users\SOLDER~1\AppData\Local\Temp\ccheWc1y.s:31898  .debug_str:000000000002a9ac .LASF2043
C:\Users\SOLDER~1\AppData\Local\Temp\ccheWc1y.s:30974  .debug_str:0000000000026d43 .LASF2044
C:\Users\SOLDER~1\AppData\Local\Temp\ccheWc1y.s:26400  .debug_str:00000000000145d4 .LASF2045
C:\Users\SOLDER~1\AppData\Local\Temp\ccheWc1y.s:27672  .debug_str:0000000000019838 .LASF2046
C:\Users\SOLDER~1\AppData\Local\Temp\ccheWc1y.s:23690  .debug_str:00000000000094f4 .LASF2047
C:\Users\SOLDER~1\AppData\Local\Temp\ccheWc1y.s:29796  .debug_str:0000000000022061 .LASF2048
C:\Users\SOLDER~1\AppData\Local\Temp\ccheWc1y.s:24318  .debug_str:000000000000bdcf .LASF2049
C:\Users\SOLDER~1\AppData\Local\Temp\ccheWc1y.s:30692  .debug_str:0000000000025a5f .LASF2050
C:\Users\SOLDER~1\AppData\Local\Temp\ccheWc1y.s:29352  .debug_str:000000000002043e .LASF2051
C:\Users\SOLDER~1\AppData\Local\Temp\ccheWc1y.s:31294  .debug_str:0000000000028240 .LASF2052
C:\Users\SOLDER~1\AppData\Local\Temp\ccheWc1y.s:26778  .debug_str:0000000000015e78 .LASF2053
C:\Users\SOLDER~1\AppData\Local\Temp\ccheWc1y.s:32582  .debug_str:000000000002d594 .LASF2054
C:\Users\SOLDER~1\AppData\Local\Temp\ccheWc1y.s:21558  .debug_str:0000000000000ade .LASF2055
GAS LISTING C:\Users\SOLDER~1\AppData\Local\Temp\ccheWc1y.s 			page 102


C:\Users\SOLDER~1\AppData\Local\Temp\ccheWc1y.s:24262  .debug_str:000000000000ba86 .LASF2056
C:\Users\SOLDER~1\AppData\Local\Temp\ccheWc1y.s:30676  .debug_str:0000000000025962 .LASF2057
C:\Users\SOLDER~1\AppData\Local\Temp\ccheWc1y.s:31740  .debug_str:0000000000029f01 .LASF2058
C:\Users\SOLDER~1\AppData\Local\Temp\ccheWc1y.s:22580  .debug_str:0000000000004c8b .LASF2059
C:\Users\SOLDER~1\AppData\Local\Temp\ccheWc1y.s:30390  .debug_str:00000000000246b5 .LASF2060
C:\Users\SOLDER~1\AppData\Local\Temp\ccheWc1y.s:32704  .debug_str:000000000002dd93 .LASF2061
C:\Users\SOLDER~1\AppData\Local\Temp\ccheWc1y.s:29742  .debug_str:0000000000021d12 .LASF2062
C:\Users\SOLDER~1\AppData\Local\Temp\ccheWc1y.s:25054  .debug_str:000000000000eea7 .LASF2063
C:\Users\SOLDER~1\AppData\Local\Temp\ccheWc1y.s:32410  .debug_str:000000000002ca94 .LASF2064
C:\Users\SOLDER~1\AppData\Local\Temp\ccheWc1y.s:24630  .debug_str:000000000000d2fb .LASF2065
C:\Users\SOLDER~1\AppData\Local\Temp\ccheWc1y.s:21782  .debug_str:0000000000001931 .LASF2066
C:\Users\SOLDER~1\AppData\Local\Temp\ccheWc1y.s:23752  .debug_str:00000000000098e1 .LASF2067
C:\Users\SOLDER~1\AppData\Local\Temp\ccheWc1y.s:23058  .debug_str:0000000000006b8e .LASF2068
C:\Users\SOLDER~1\AppData\Local\Temp\ccheWc1y.s:32822  .debug_str:000000000002e52c .LASF2069
C:\Users\SOLDER~1\AppData\Local\Temp\ccheWc1y.s:23144  .debug_str:0000000000007135 .LASF2070
C:\Users\SOLDER~1\AppData\Local\Temp\ccheWc1y.s:28630  .debug_str:000000000001d56b .LASF2071
C:\Users\SOLDER~1\AppData\Local\Temp\ccheWc1y.s:26106  .debug_str:00000000000131f5 .LASF2072
C:\Users\SOLDER~1\AppData\Local\Temp\ccheWc1y.s:30964  .debug_str:0000000000026c9d .LASF2073
C:\Users\SOLDER~1\AppData\Local\Temp\ccheWc1y.s:22272  .debug_str:0000000000003906 .LASF2074
C:\Users\SOLDER~1\AppData\Local\Temp\ccheWc1y.s:30730  .debug_str:0000000000025cb3 .LASF2075
C:\Users\SOLDER~1\AppData\Local\Temp\ccheWc1y.s:29810  .debug_str:0000000000022157 .LASF2076
C:\Users\SOLDER~1\AppData\Local\Temp\ccheWc1y.s:24804  .debug_str:000000000000de35 .LASF2077
C:\Users\SOLDER~1\AppData\Local\Temp\ccheWc1y.s:26508  .debug_str:0000000000014d24 .LASF2078
C:\Users\SOLDER~1\AppData\Local\Temp\ccheWc1y.s:28046  .debug_str:000000000001afda .LASF2079
C:\Users\SOLDER~1\AppData\Local\Temp\ccheWc1y.s:22422  .debug_str:000000000000429e .LASF2080
C:\Users\SOLDER~1\AppData\Local\Temp\ccheWc1y.s:28644  .debug_str:000000000001d65f .LASF2081
C:\Users\SOLDER~1\AppData\Local\Temp\ccheWc1y.s:27498  .debug_str:0000000000018ce3 .LASF2082
C:\Users\SOLDER~1\AppData\Local\Temp\ccheWc1y.s:23220  .debug_str:0000000000007621 .LASF2083
C:\Users\SOLDER~1\AppData\Local\Temp\ccheWc1y.s:23922  .debug_str:000000000000a42d .LASF2084
C:\Users\SOLDER~1\AppData\Local\Temp\ccheWc1y.s:26714  .debug_str:0000000000015aa3 .LASF2085
C:\Users\SOLDER~1\AppData\Local\Temp\ccheWc1y.s:26070  .debug_str:0000000000012f65 .LASF2086
C:\Users\SOLDER~1\AppData\Local\Temp\ccheWc1y.s:28824  .debug_str:000000000001e1c3 .LASF2087
C:\Users\SOLDER~1\AppData\Local\Temp\ccheWc1y.s:28590  .debug_str:000000000001d2f5 .LASF2088
C:\Users\SOLDER~1\AppData\Local\Temp\ccheWc1y.s:26948  .debug_str:000000000001695b .LASF2089
C:\Users\SOLDER~1\AppData\Local\Temp\ccheWc1y.s:31456  .debug_str:0000000000028cbb .LASF2090
C:\Users\SOLDER~1\AppData\Local\Temp\ccheWc1y.s:28446  .debug_str:000000000001c951 .LASF2091
C:\Users\SOLDER~1\AppData\Local\Temp\ccheWc1y.s:26644  .debug_str:0000000000015602 .LASF2092
C:\Users\SOLDER~1\AppData\Local\Temp\ccheWc1y.s:24452  .debug_str:000000000000c6c8 .LASF2093
C:\Users\SOLDER~1\AppData\Local\Temp\ccheWc1y.s:25986  .debug_str:0000000000012a0c .LASF2094
C:\Users\SOLDER~1\AppData\Local\Temp\ccheWc1y.s:32968  .debug_str:000000000002ee37 .LASF2095
C:\Users\SOLDER~1\AppData\Local\Temp\ccheWc1y.s:30832  .debug_str:00000000000263a3 .LASF2096
C:\Users\SOLDER~1\AppData\Local\Temp\ccheWc1y.s:27664  .debug_str:00000000000197ba .LASF2097
C:\Users\SOLDER~1\AppData\Local\Temp\ccheWc1y.s:29682  .debug_str:0000000000021960 .LASF2098
C:\Users\SOLDER~1\AppData\Local\Temp\ccheWc1y.s:31666  .debug_str:0000000000029a5f .LASF2099
C:\Users\SOLDER~1\AppData\Local\Temp\ccheWc1y.s:26114  .debug_str:000000000001326e .LASF2100
C:\Users\SOLDER~1\AppData\Local\Temp\ccheWc1y.s:29016  .debug_str:000000000001ee58 .LASF2101
C:\Users\SOLDER~1\AppData\Local\Temp\ccheWc1y.s:30942  .debug_str:0000000000026b40 .LASF2102
C:\Users\SOLDER~1\AppData\Local\Temp\ccheWc1y.s:24856  .debug_str:000000000000e167 .LASF2103
C:\Users\SOLDER~1\AppData\Local\Temp\ccheWc1y.s:22292  .debug_str:0000000000003a4d .LASF2104
C:\Users\SOLDER~1\AppData\Local\Temp\ccheWc1y.s:23056  .debug_str:0000000000006b68 .LASF2105
C:\Users\SOLDER~1\AppData\Local\Temp\ccheWc1y.s:30168  .debug_str:0000000000023843 .LASF2106
C:\Users\SOLDER~1\AppData\Local\Temp\ccheWc1y.s:26998  .debug_str:0000000000016c4b .LASF2107
C:\Users\SOLDER~1\AppData\Local\Temp\ccheWc1y.s:26054  .debug_str:0000000000012e34 .LASF2108
C:\Users\SOLDER~1\AppData\Local\Temp\ccheWc1y.s:32710  .debug_str:000000000002ddfc .LASF2109
C:\Users\SOLDER~1\AppData\Local\Temp\ccheWc1y.s:31508  .debug_str:0000000000029059 .LASF2110
C:\Users\SOLDER~1\AppData\Local\Temp\ccheWc1y.s:32360  .debug_str:000000000002c772 .LASF2111
C:\Users\SOLDER~1\AppData\Local\Temp\ccheWc1y.s:26700  .debug_str:00000000000159cc .LASF2112
GAS LISTING C:\Users\SOLDER~1\AppData\Local\Temp\ccheWc1y.s 			page 103


C:\Users\SOLDER~1\AppData\Local\Temp\ccheWc1y.s:32904  .debug_str:000000000002ea1e .LASF2113
C:\Users\SOLDER~1\AppData\Local\Temp\ccheWc1y.s:30954  .debug_str:0000000000026bea .LASF2114
C:\Users\SOLDER~1\AppData\Local\Temp\ccheWc1y.s:27592  .debug_str:0000000000019318 .LASF2115
C:\Users\SOLDER~1\AppData\Local\Temp\ccheWc1y.s:28292  .debug_str:000000000001bf39 .LASF2116
C:\Users\SOLDER~1\AppData\Local\Temp\ccheWc1y.s:23708  .debug_str:000000000000962f .LASF2117
C:\Users\SOLDER~1\AppData\Local\Temp\ccheWc1y.s:31976  .debug_str:000000000002ae72 .LASF2118
C:\Users\SOLDER~1\AppData\Local\Temp\ccheWc1y.s:30092  .debug_str:0000000000023375 .LASF2119
C:\Users\SOLDER~1\AppData\Local\Temp\ccheWc1y.s:32850  .debug_str:000000000002e6e5 .LASF2120
C:\Users\SOLDER~1\AppData\Local\Temp\ccheWc1y.s:23118  .debug_str:0000000000006f50 .LASF2121
C:\Users\SOLDER~1\AppData\Local\Temp\ccheWc1y.s:27708  .debug_str:0000000000019ac1 .LASF2122
C:\Users\SOLDER~1\AppData\Local\Temp\ccheWc1y.s:26740  .debug_str:0000000000015c16 .LASF2123
C:\Users\SOLDER~1\AppData\Local\Temp\ccheWc1y.s:25418  .debug_str:0000000000010612 .LASF2124
C:\Users\SOLDER~1\AppData\Local\Temp\ccheWc1y.s:32356  .debug_str:000000000002c714 .LASF2125
C:\Users\SOLDER~1\AppData\Local\Temp\ccheWc1y.s:22178  .debug_str:00000000000032ee .LASF2126
C:\Users\SOLDER~1\AppData\Local\Temp\ccheWc1y.s:29180  .debug_str:000000000001f93a .LASF2127
C:\Users\SOLDER~1\AppData\Local\Temp\ccheWc1y.s:27114  .debug_str:000000000001736c .LASF2128
C:\Users\SOLDER~1\AppData\Local\Temp\ccheWc1y.s:29714  .debug_str:0000000000021b48 .LASF2129
C:\Users\SOLDER~1\AppData\Local\Temp\ccheWc1y.s:25922  .debug_str:0000000000012616 .LASF2130
C:\Users\SOLDER~1\AppData\Local\Temp\ccheWc1y.s:24164  .debug_str:000000000000b43c .LASF2131
C:\Users\SOLDER~1\AppData\Local\Temp\ccheWc1y.s:32918  .debug_str:000000000002eaf8 .LASF2132
C:\Users\SOLDER~1\AppData\Local\Temp\ccheWc1y.s:25248  .debug_str:000000000000fac1 .LASF2133
C:\Users\SOLDER~1\AppData\Local\Temp\ccheWc1y.s:27232  .debug_str:0000000000017b90 .LASF2134
C:\Users\SOLDER~1\AppData\Local\Temp\ccheWc1y.s:32768  .debug_str:000000000002e198 .LASF2135
C:\Users\SOLDER~1\AppData\Local\Temp\ccheWc1y.s:26560  .debug_str:00000000000150a6 .LASF2136
C:\Users\SOLDER~1\AppData\Local\Temp\ccheWc1y.s:30956  .debug_str:0000000000026c0f .LASF2137
C:\Users\SOLDER~1\AppData\Local\Temp\ccheWc1y.s:26432  .debug_str:0000000000014839 .LASF2138
C:\Users\SOLDER~1\AppData\Local\Temp\ccheWc1y.s:23174  .debug_str:000000000000732a .LASF2139
C:\Users\SOLDER~1\AppData\Local\Temp\ccheWc1y.s:22240  .debug_str:00000000000036f2 .LASF2140
C:\Users\SOLDER~1\AppData\Local\Temp\ccheWc1y.s:29122  .debug_str:000000000001f539 .LASF2141
C:\Users\SOLDER~1\AppData\Local\Temp\ccheWc1y.s:30478  .debug_str:0000000000024c9d .LASF2142
C:\Users\SOLDER~1\AppData\Local\Temp\ccheWc1y.s:24906  .debug_str:000000000000e4cf .LASF2143
C:\Users\SOLDER~1\AppData\Local\Temp\ccheWc1y.s:30996  .debug_str:0000000000026ebf .LASF2144
C:\Users\SOLDER~1\AppData\Local\Temp\ccheWc1y.s:25564  .debug_str:0000000000010f91 .LASF2145
C:\Users\SOLDER~1\AppData\Local\Temp\ccheWc1y.s:31906  .debug_str:000000000002aa2e .LASF2146
C:\Users\SOLDER~1\AppData\Local\Temp\ccheWc1y.s:31866  .debug_str:000000000002a793 .LASF2147
C:\Users\SOLDER~1\AppData\Local\Temp\ccheWc1y.s:32604  .debug_str:000000000002d746 .LASF2148
C:\Users\SOLDER~1\AppData\Local\Temp\ccheWc1y.s:29028  .debug_str:000000000001ef33 .LASF2149
C:\Users\SOLDER~1\AppData\Local\Temp\ccheWc1y.s:23768  .debug_str:00000000000099f6 .LASF2150
C:\Users\SOLDER~1\AppData\Local\Temp\ccheWc1y.s:22732  .debug_str:00000000000055a2 .LASF2151
C:\Users\SOLDER~1\AppData\Local\Temp\ccheWc1y.s:25506  .debug_str:0000000000010b9d .LASF2152
C:\Users\SOLDER~1\AppData\Local\Temp\ccheWc1y.s:31014  .debug_str:0000000000026ff2 .LASF2153
C:\Users\SOLDER~1\AppData\Local\Temp\ccheWc1y.s:23870  .debug_str:000000000000a0b7 .LASF2154
C:\Users\SOLDER~1\AppData\Local\Temp\ccheWc1y.s:22924  .debug_str:0000000000006271 .LASF2155
C:\Users\SOLDER~1\AppData\Local\Temp\ccheWc1y.s:30632  .debug_str:0000000000025694 .LASF2156
C:\Users\SOLDER~1\AppData\Local\Temp\ccheWc1y.s:28574  .debug_str:000000000001d1c5 .LASF2157
C:\Users\SOLDER~1\AppData\Local\Temp\ccheWc1y.s:30070  .debug_str:0000000000023215 .LASF2158
C:\Users\SOLDER~1\AppData\Local\Temp\ccheWc1y.s:25416  .debug_str:00000000000105ec .LASF2159
C:\Users\SOLDER~1\AppData\Local\Temp\ccheWc1y.s:23292  .debug_str:0000000000007a5d .LASF2160
C:\Users\SOLDER~1\AppData\Local\Temp\ccheWc1y.s:32758  .debug_str:000000000002e0f8 .LASF2161
C:\Users\SOLDER~1\AppData\Local\Temp\ccheWc1y.s:22106  .debug_str:0000000000002e67 .LASF2162
C:\Users\SOLDER~1\AppData\Local\Temp\ccheWc1y.s:24092  .debug_str:000000000000af6b .LASF2163
C:\Users\SOLDER~1\AppData\Local\Temp\ccheWc1y.s:23472  .debug_str:0000000000008669 .LASF2164
C:\Users\SOLDER~1\AppData\Local\Temp\ccheWc1y.s:21462  .debug_str:00000000000003c6 .LASF2165
C:\Users\SOLDER~1\AppData\Local\Temp\ccheWc1y.s:23394  .debug_str:0000000000008152 .LASF2166
C:\Users\SOLDER~1\AppData\Local\Temp\ccheWc1y.s:28882  .debug_str:000000000001e5a2 .LASF2167
C:\Users\SOLDER~1\AppData\Local\Temp\ccheWc1y.s:26454  .debug_str:00000000000149b9 .LASF2168
C:\Users\SOLDER~1\AppData\Local\Temp\ccheWc1y.s:27246  .debug_str:0000000000017c87 .LASF2169
GAS LISTING C:\Users\SOLDER~1\AppData\Local\Temp\ccheWc1y.s 			page 104


C:\Users\SOLDER~1\AppData\Local\Temp\ccheWc1y.s:22600  .debug_str:0000000000004dd6 .LASF2170
C:\Users\SOLDER~1\AppData\Local\Temp\ccheWc1y.s:31060  .debug_str:0000000000027301 .LASF2171
C:\Users\SOLDER~1\AppData\Local\Temp\ccheWc1y.s:23970  .debug_str:000000000000a765 .LASF2172
C:\Users\SOLDER~1\AppData\Local\Temp\ccheWc1y.s:25048  .debug_str:000000000000ee48 .LASF2173
C:\Users\SOLDER~1\AppData\Local\Temp\ccheWc1y.s:26734  .debug_str:0000000000015bdc .LASF2174
C:\Users\SOLDER~1\AppData\Local\Temp\ccheWc1y.s:28132  .debug_str:000000000001b595 .LASF2175
C:\Users\SOLDER~1\AppData\Local\Temp\ccheWc1y.s:27388  .debug_str:00000000000185e8 .LASF2176
C:\Users\SOLDER~1\AppData\Local\Temp\ccheWc1y.s:26732  .debug_str:0000000000015bc4 .LASF2177
C:\Users\SOLDER~1\AppData\Local\Temp\ccheWc1y.s:28420  .debug_str:000000000001c7c1 .LASF2178
C:\Users\SOLDER~1\AppData\Local\Temp\ccheWc1y.s:22148  .debug_str:000000000000310a .LASF2179
C:\Users\SOLDER~1\AppData\Local\Temp\ccheWc1y.s:27508  .debug_str:0000000000018d76 .LASF2180
C:\Users\SOLDER~1\AppData\Local\Temp\ccheWc1y.s:23776  .debug_str:0000000000009a83 .LASF2181
C:\Users\SOLDER~1\AppData\Local\Temp\ccheWc1y.s:25656  .debug_str:0000000000011544 .LASF2182
C:\Users\SOLDER~1\AppData\Local\Temp\ccheWc1y.s:21982  .debug_str:000000000000267e .LASF2183
C:\Users\SOLDER~1\AppData\Local\Temp\ccheWc1y.s:30930  .debug_str:0000000000026a77 .LASF2184
C:\Users\SOLDER~1\AppData\Local\Temp\ccheWc1y.s:26354  .debug_str:00000000000142e4 .LASF2185
C:\Users\SOLDER~1\AppData\Local\Temp\ccheWc1y.s:24438  .debug_str:000000000000c5bd .LASF2186
C:\Users\SOLDER~1\AppData\Local\Temp\ccheWc1y.s:23720  .debug_str:0000000000009707 .LASF2187
C:\Users\SOLDER~1\AppData\Local\Temp\ccheWc1y.s:29634  .debug_str:000000000002161c .LASF2188
C:\Users\SOLDER~1\AppData\Local\Temp\ccheWc1y.s:29402  .debug_str:0000000000020756 .LASF2189
C:\Users\SOLDER~1\AppData\Local\Temp\ccheWc1y.s:26290  .debug_str:0000000000013e40 .LASF2190
C:\Users\SOLDER~1\AppData\Local\Temp\ccheWc1y.s:25062  .debug_str:000000000000ef20 .LASF2191
C:\Users\SOLDER~1\AppData\Local\Temp\ccheWc1y.s:26236  .debug_str:0000000000013a7b .LASF2192
C:\Users\SOLDER~1\AppData\Local\Temp\ccheWc1y.s:30694  .debug_str:0000000000025a84 .LASF2193
C:\Users\SOLDER~1\AppData\Local\Temp\ccheWc1y.s:32012  .debug_str:000000000002b0b9 .LASF2194
C:\Users\SOLDER~1\AppData\Local\Temp\ccheWc1y.s:29336  .debug_str:000000000002036b .LASF2195
C:\Users\SOLDER~1\AppData\Local\Temp\ccheWc1y.s:28158  .debug_str:000000000001b714 .LASF2196
C:\Users\SOLDER~1\AppData\Local\Temp\ccheWc1y.s:24984  .debug_str:000000000000ea0a .LASF2197
C:\Users\SOLDER~1\AppData\Local\Temp\ccheWc1y.s:28520  .debug_str:000000000001ce34 .LASF2198
C:\Users\SOLDER~1\AppData\Local\Temp\ccheWc1y.s:30646  .debug_str:0000000000025777 .LASF2199
C:\Users\SOLDER~1\AppData\Local\Temp\ccheWc1y.s:24510  .debug_str:000000000000cae4 .LASF2200
C:\Users\SOLDER~1\AppData\Local\Temp\ccheWc1y.s:22220  .debug_str:00000000000035ba .LASF2201
C:\Users\SOLDER~1\AppData\Local\Temp\ccheWc1y.s:21882  .debug_str:0000000000002015 .LASF2202
C:\Users\SOLDER~1\AppData\Local\Temp\ccheWc1y.s:31600  .debug_str:00000000000295e9 .LASF2203
C:\Users\SOLDER~1\AppData\Local\Temp\ccheWc1y.s:32708  .debug_str:000000000002dddb .LASF2204
C:\Users\SOLDER~1\AppData\Local\Temp\ccheWc1y.s:26840  .debug_str:0000000000016263 .LASF2205
C:\Users\SOLDER~1\AppData\Local\Temp\ccheWc1y.s:21966  .debug_str:000000000000257a .LASF2206
C:\Users\SOLDER~1\AppData\Local\Temp\ccheWc1y.s:26018  .debug_str:0000000000012c34 .LASF2207
C:\Users\SOLDER~1\AppData\Local\Temp\ccheWc1y.s:29008  .debug_str:000000000001ede5 .LASF2208
C:\Users\SOLDER~1\AppData\Local\Temp\ccheWc1y.s:28112  .debug_str:000000000001b473 .LASF2209
C:\Users\SOLDER~1\AppData\Local\Temp\ccheWc1y.s:25560  .debug_str:0000000000010f4c .LASF2210
C:\Users\SOLDER~1\AppData\Local\Temp\ccheWc1y.s:25814  .debug_str:0000000000011f55 .LASF2211
C:\Users\SOLDER~1\AppData\Local\Temp\ccheWc1y.s:27164  .debug_str:00000000000176d4 .LASF2212
C:\Users\SOLDER~1\AppData\Local\Temp\ccheWc1y.s:32340  .debug_str:000000000002c5f5 .LASF2213
C:\Users\SOLDER~1\AppData\Local\Temp\ccheWc1y.s:29762  .debug_str:0000000000021e54 .LASF2214
C:\Users\SOLDER~1\AppData\Local\Temp\ccheWc1y.s:27840  .debug_str:000000000001a2c4 .LASF2215
C:\Users\SOLDER~1\AppData\Local\Temp\ccheWc1y.s:27036  .debug_str:0000000000016eba .LASF2216
C:\Users\SOLDER~1\AppData\Local\Temp\ccheWc1y.s:22182  .debug_str:000000000000333a .LASF2217
C:\Users\SOLDER~1\AppData\Local\Temp\ccheWc1y.s:26966  .debug_str:0000000000016a80 .LASF2218
C:\Users\SOLDER~1\AppData\Local\Temp\ccheWc1y.s:31560  .debug_str:000000000002938d .LASF2219
C:\Users\SOLDER~1\AppData\Local\Temp\ccheWc1y.s:24062  .debug_str:000000000000ada7 .LASF2220
C:\Users\SOLDER~1\AppData\Local\Temp\ccheWc1y.s:29310  .debug_str:00000000000201d3 .LASF2221
C:\Users\SOLDER~1\AppData\Local\Temp\ccheWc1y.s:31194  .debug_str:0000000000027bdc .LASF2222
C:\Users\SOLDER~1\AppData\Local\Temp\ccheWc1y.s:23010  .debug_str:0000000000006849 .LASF2223
C:\Users\SOLDER~1\AppData\Local\Temp\ccheWc1y.s:23746  .debug_str:0000000000009883 .LASF2224
C:\Users\SOLDER~1\AppData\Local\Temp\ccheWc1y.s:25972  .debug_str:0000000000012923 .LASF2225
C:\Users\SOLDER~1\AppData\Local\Temp\ccheWc1y.s:26398  .debug_str:00000000000145b3 .LASF2226
GAS LISTING C:\Users\SOLDER~1\AppData\Local\Temp\ccheWc1y.s 			page 105


C:\Users\SOLDER~1\AppData\Local\Temp\ccheWc1y.s:28544  .debug_str:000000000001cfbe .LASF2227
C:\Users\SOLDER~1\AppData\Local\Temp\ccheWc1y.s:32488  .debug_str:000000000002cf7b .LASF2228
C:\Users\SOLDER~1\AppData\Local\Temp\ccheWc1y.s:23480  .debug_str:0000000000008703 .LASF2229
C:\Users\SOLDER~1\AppData\Local\Temp\ccheWc1y.s:29646  .debug_str:00000000000216f9 .LASF2230
C:\Users\SOLDER~1\AppData\Local\Temp\ccheWc1y.s:30534  .debug_str:000000000002502a .LASF2231
C:\Users\SOLDER~1\AppData\Local\Temp\ccheWc1y.s:26446  .debug_str:000000000001491e .LASF2232
C:\Users\SOLDER~1\AppData\Local\Temp\ccheWc1y.s:23078  .debug_str:0000000000006cad .LASF2233
C:\Users\SOLDER~1\AppData\Local\Temp\ccheWc1y.s:25878  .debug_str:000000000001233e .LASF2234
C:\Users\SOLDER~1\AppData\Local\Temp\ccheWc1y.s:22698  .debug_str:00000000000053b5 .LASF2235
C:\Users\SOLDER~1\AppData\Local\Temp\ccheWc1y.s:32548  .debug_str:000000000002d34c .LASF2236
C:\Users\SOLDER~1\AppData\Local\Temp\ccheWc1y.s:29364  .debug_str:00000000000204ef .LASF2237
C:\Users\SOLDER~1\AppData\Local\Temp\ccheWc1y.s:31958  .debug_str:000000000002ad7d .LASF2238
C:\Users\SOLDER~1\AppData\Local\Temp\ccheWc1y.s:24742  .debug_str:000000000000da59 .LASF2239
C:\Users\SOLDER~1\AppData\Local\Temp\ccheWc1y.s:26202  .debug_str:0000000000013834 .LASF2240
C:\Users\SOLDER~1\AppData\Local\Temp\ccheWc1y.s:21886  .debug_str:0000000000002048 .LASF2241
C:\Users\SOLDER~1\AppData\Local\Temp\ccheWc1y.s:31034  .debug_str:000000000002715d .LASF2242
C:\Users\SOLDER~1\AppData\Local\Temp\ccheWc1y.s:30980  .debug_str:0000000000026dbe .LASF2243
C:\Users\SOLDER~1\AppData\Local\Temp\ccheWc1y.s:25338  .debug_str:0000000000010120 .LASF2244
C:\Users\SOLDER~1\AppData\Local\Temp\ccheWc1y.s:21488  .debug_str:0000000000000575 .LASF2245
C:\Users\SOLDER~1\AppData\Local\Temp\ccheWc1y.s:21436  .debug_str:0000000000000222 .LASF2246
C:\Users\SOLDER~1\AppData\Local\Temp\ccheWc1y.s:27290  .debug_str:0000000000017f4b .LASF2247
C:\Users\SOLDER~1\AppData\Local\Temp\ccheWc1y.s:23366  .debug_str:0000000000007f70 .LASF2248
C:\Users\SOLDER~1\AppData\Local\Temp\ccheWc1y.s:26472  .debug_str:0000000000014af4 .LASF2249
C:\Users\SOLDER~1\AppData\Local\Temp\ccheWc1y.s:24676  .debug_str:000000000000d5fe .LASF2250
C:\Users\SOLDER~1\AppData\Local\Temp\ccheWc1y.s:24136  .debug_str:000000000000b283 .LASF2251
C:\Users\SOLDER~1\AppData\Local\Temp\ccheWc1y.s:32680  .debug_str:000000000002dc11 .LASF2252
C:\Users\SOLDER~1\AppData\Local\Temp\ccheWc1y.s:25864  .debug_str:000000000001227b .LASF2253
C:\Users\SOLDER~1\AppData\Local\Temp\ccheWc1y.s:27638  .debug_str:0000000000019628 .LASF2254
C:\Users\SOLDER~1\AppData\Local\Temp\ccheWc1y.s:27168  .debug_str:000000000001773e .LASF2255
C:\Users\SOLDER~1\AppData\Local\Temp\ccheWc1y.s:29658  .debug_str:00000000000217e2 .LASF2256
C:\Users\SOLDER~1\AppData\Local\Temp\ccheWc1y.s:31732  .debug_str:0000000000029eac .LASF2257
C:\Users\SOLDER~1\AppData\Local\Temp\ccheWc1y.s:24574  .debug_str:000000000000cf56 .LASF2258
C:\Users\SOLDER~1\AppData\Local\Temp\ccheWc1y.s:22064  .debug_str:0000000000002bd5 .LASF2259
C:\Users\SOLDER~1\AppData\Local\Temp\ccheWc1y.s:30226  .debug_str:0000000000023c3a .LASF2260
C:\Users\SOLDER~1\AppData\Local\Temp\ccheWc1y.s:27752  .debug_str:0000000000019d88 .LASF2261
C:\Users\SOLDER~1\AppData\Local\Temp\ccheWc1y.s:23444  .debug_str:00000000000084b2 .LASF2262
C:\Users\SOLDER~1\AppData\Local\Temp\ccheWc1y.s:22654  .debug_str:0000000000005103 .LASF2263
C:\Users\SOLDER~1\AppData\Local\Temp\ccheWc1y.s:29314  .debug_str:000000000002020a .LASF2264
C:\Users\SOLDER~1\AppData\Local\Temp\ccheWc1y.s:25678  .debug_str:00000000000116c9 .LASF2265
C:\Users\SOLDER~1\AppData\Local\Temp\ccheWc1y.s:25212  .debug_str:000000000000f854 .LASF2266
C:\Users\SOLDER~1\AppData\Local\Temp\ccheWc1y.s:27712  .debug_str:0000000000019b10 .LASF2267
C:\Users\SOLDER~1\AppData\Local\Temp\ccheWc1y.s:25006  .debug_str:000000000000eb78 .LASF2268
C:\Users\SOLDER~1\AppData\Local\Temp\ccheWc1y.s:21662  .debug_str:00000000000011b7 .LASF2269
C:\Users\SOLDER~1\AppData\Local\Temp\ccheWc1y.s:31214  .debug_str:0000000000027d2f .LASF2270
C:\Users\SOLDER~1\AppData\Local\Temp\ccheWc1y.s:31956  .debug_str:000000000002ad69 .LASF2271
C:\Users\SOLDER~1\AppData\Local\Temp\ccheWc1y.s:32156  .debug_str:000000000002b9f2 .LASF2272
C:\Users\SOLDER~1\AppData\Local\Temp\ccheWc1y.s:31232  .debug_str:0000000000027e5f .LASF2273
C:\Users\SOLDER~1\AppData\Local\Temp\ccheWc1y.s:21530  .debug_str:00000000000008c3 .LASF2274
C:\Users\SOLDER~1\AppData\Local\Temp\ccheWc1y.s:21610  .debug_str:0000000000000e89 .LASF2275
C:\Users\SOLDER~1\AppData\Local\Temp\ccheWc1y.s:23806  .debug_str:0000000000009c83 .LASF2276
C:\Users\SOLDER~1\AppData\Local\Temp\ccheWc1y.s:29116  .debug_str:000000000001f4ee .LASF2277
C:\Users\SOLDER~1\AppData\Local\Temp\ccheWc1y.s:23336  .debug_str:0000000000007d68 .LASF2278
C:\Users\SOLDER~1\AppData\Local\Temp\ccheWc1y.s:33018  .debug_str:000000000002f1b0 .LASF2279
C:\Users\SOLDER~1\AppData\Local\Temp\ccheWc1y.s:25966  .debug_str:00000000000128d5 .LASF2280
C:\Users\SOLDER~1\AppData\Local\Temp\ccheWc1y.s:29190  .debug_str:000000000001f9ec .LASF2281
C:\Users\SOLDER~1\AppData\Local\Temp\ccheWc1y.s:32618  .debug_str:000000000002d837 .LASF2282
C:\Users\SOLDER~1\AppData\Local\Temp\ccheWc1y.s:23272  .debug_str:0000000000007938 .LASF2283
GAS LISTING C:\Users\SOLDER~1\AppData\Local\Temp\ccheWc1y.s 			page 106


C:\Users\SOLDER~1\AppData\Local\Temp\ccheWc1y.s:22022  .debug_str:0000000000002943 .LASF2284
C:\Users\SOLDER~1\AppData\Local\Temp\ccheWc1y.s:29492  .debug_str:0000000000020d30 .LASF2285
C:\Users\SOLDER~1\AppData\Local\Temp\ccheWc1y.s:23232  .debug_str:00000000000076d9 .LASF2286
C:\Users\SOLDER~1\AppData\Local\Temp\ccheWc1y.s:27252  .debug_str:0000000000017cf4 .LASF2287
C:\Users\SOLDER~1\AppData\Local\Temp\ccheWc1y.s:25916  .debug_str:00000000000125b2 .LASF2288
C:\Users\SOLDER~1\AppData\Local\Temp\ccheWc1y.s:23360  .debug_str:0000000000007f1d .LASF2289
C:\Users\SOLDER~1\AppData\Local\Temp\ccheWc1y.s:28716  .debug_str:000000000001db44 .LASF2290
C:\Users\SOLDER~1\AppData\Local\Temp\ccheWc1y.s:29226  .debug_str:000000000001fc77 .LASF2291
C:\Users\SOLDER~1\AppData\Local\Temp\ccheWc1y.s:26336  .debug_str:0000000000014189 .LASF2292
C:\Users\SOLDER~1\AppData\Local\Temp\ccheWc1y.s:22434  .debug_str:0000000000004356 .LASF2293
C:\Users\SOLDER~1\AppData\Local\Temp\ccheWc1y.s:26588  .debug_str:000000000001529a .LASF2294
C:\Users\SOLDER~1\AppData\Local\Temp\ccheWc1y.s:32988  .debug_str:000000000002efba .LASF2295
C:\Users\SOLDER~1\AppData\Local\Temp\ccheWc1y.s:23288  .debug_str:0000000000007a22 .LASF2296
C:\Users\SOLDER~1\AppData\Local\Temp\ccheWc1y.s:31918  .debug_str:000000000002aaf4 .LASF2297
C:\Users\SOLDER~1\AppData\Local\Temp\ccheWc1y.s:30132  .debug_str:00000000000235f7 .LASF2298
C:\Users\SOLDER~1\AppData\Local\Temp\ccheWc1y.s:26206  .debug_str:0000000000013874 .LASF2299
C:\Users\SOLDER~1\AppData\Local\Temp\ccheWc1y.s:29434  .debug_str:0000000000020957 .LASF2300
C:\Users\SOLDER~1\AppData\Local\Temp\ccheWc1y.s:32252  .debug_str:000000000002c019 .LASF2301
C:\Users\SOLDER~1\AppData\Local\Temp\ccheWc1y.s:25700  .debug_str:0000000000011814 .LASF2302
C:\Users\SOLDER~1\AppData\Local\Temp\ccheWc1y.s:29918  .debug_str:00000000000227f5 .LASF2303
C:\Users\SOLDER~1\AppData\Local\Temp\ccheWc1y.s:27230  .debug_str:0000000000017b6e .LASF2304
C:\Users\SOLDER~1\AppData\Local\Temp\ccheWc1y.s:26128  .debug_str:0000000000013352 .LASF2305
C:\Users\SOLDER~1\AppData\Local\Temp\ccheWc1y.s:28592  .debug_str:000000000001d31a .LASF2306
C:\Users\SOLDER~1\AppData\Local\Temp\ccheWc1y.s:31960  .debug_str:000000000002ad9d .LASF2307
C:\Users\SOLDER~1\AppData\Local\Temp\ccheWc1y.s:25744  .debug_str:0000000000011b02 .LASF2308
C:\Users\SOLDER~1\AppData\Local\Temp\ccheWc1y.s:26460  .debug_str:0000000000014a30 .LASF2309
C:\Users\SOLDER~1\AppData\Local\Temp\ccheWc1y.s:25082  .debug_str:000000000000f037 .LASF2310
C:\Users\SOLDER~1\AppData\Local\Temp\ccheWc1y.s:24114  .debug_str:000000000000b108 .LASF2311
C:\Users\SOLDER~1\AppData\Local\Temp\ccheWc1y.s:31836  .debug_str:000000000002a57b .LASF2312
C:\Users\SOLDER~1\AppData\Local\Temp\ccheWc1y.s:31980  .debug_str:000000000002aeb9 .LASF2313
C:\Users\SOLDER~1\AppData\Local\Temp\ccheWc1y.s:24458  .debug_str:000000000000c736 .LASF2314
C:\Users\SOLDER~1\AppData\Local\Temp\ccheWc1y.s:26164  .debug_str:00000000000135a0 .LASF2315
C:\Users\SOLDER~1\AppData\Local\Temp\ccheWc1y.s:25868  .debug_str:00000000000122af .LASF2316
C:\Users\SOLDER~1\AppData\Local\Temp\ccheWc1y.s:23308  .debug_str:0000000000007b8e .LASF2317
C:\Users\SOLDER~1\AppData\Local\Temp\ccheWc1y.s:25672  .debug_str:0000000000011655 .LASF2318
C:\Users\SOLDER~1\AppData\Local\Temp\ccheWc1y.s:32694  .debug_str:000000000002dcf8 .LASF2319
C:\Users\SOLDER~1\AppData\Local\Temp\ccheWc1y.s:26810  .debug_str:0000000000016088 .LASF2320
C:\Users\SOLDER~1\AppData\Local\Temp\ccheWc1y.s:29930  .debug_str:0000000000022897 .LASF2321
C:\Users\SOLDER~1\AppData\Local\Temp\ccheWc1y.s:27268  .debug_str:0000000000017dc4 .LASF2322
C:\Users\SOLDER~1\AppData\Local\Temp\ccheWc1y.s:30312  .debug_str:000000000002419b .LASF2323
C:\Users\SOLDER~1\AppData\Local\Temp\ccheWc1y.s:29772  .debug_str:0000000000021ed3 .LASF2324
C:\Users\SOLDER~1\AppData\Local\Temp\ccheWc1y.s:28692  .debug_str:000000000001d9cd .LASF2325
C:\Users\SOLDER~1\AppData\Local\Temp\ccheWc1y.s:23242  .debug_str:000000000000776c .LASF2326
C:\Users\SOLDER~1\AppData\Local\Temp\ccheWc1y.s:28394  .debug_str:000000000001c5ee .LASF2327
C:\Users\SOLDER~1\AppData\Local\Temp\ccheWc1y.s:24040  .debug_str:000000000000ac2a .LASF2328
C:\Users\SOLDER~1\AppData\Local\Temp\ccheWc1y.s:23938  .debug_str:000000000000a533 .LASF2329
C:\Users\SOLDER~1\AppData\Local\Temp\ccheWc1y.s:22738  .debug_str:00000000000055eb .LASF2330
C:\Users\SOLDER~1\AppData\Local\Temp\ccheWc1y.s:21764  .debug_str:000000000000184a .LASF2331
C:\Users\SOLDER~1\AppData\Local\Temp\ccheWc1y.s:32176  .debug_str:000000000002bb1c .LASF2332
C:\Users\SOLDER~1\AppData\Local\Temp\ccheWc1y.s:22688  .debug_str:0000000000005320 .LASF2333
C:\Users\SOLDER~1\AppData\Local\Temp\ccheWc1y.s:31472  .debug_str:0000000000028df6 .LASF2334
C:\Users\SOLDER~1\AppData\Local\Temp\ccheWc1y.s:24342  .debug_str:000000000000bf85 .LASF2335
C:\Users\SOLDER~1\AppData\Local\Temp\ccheWc1y.s:29186  .debug_str:000000000001f9a8 .LASF2336
C:\Users\SOLDER~1\AppData\Local\Temp\ccheWc1y.s:24816  .debug_str:000000000000decf .LASF2337
C:\Users\SOLDER~1\AppData\Local\Temp\ccheWc1y.s:32678  .debug_str:000000000002dbee .LASF2338
C:\Users\SOLDER~1\AppData\Local\Temp\ccheWc1y.s:24586  .debug_str:000000000000d01c .LASF2339
C:\Users\SOLDER~1\AppData\Local\Temp\ccheWc1y.s:29398  .debug_str:000000000002070a .LASF2340
GAS LISTING C:\Users\SOLDER~1\AppData\Local\Temp\ccheWc1y.s 			page 107


C:\Users\SOLDER~1\AppData\Local\Temp\ccheWc1y.s:29268  .debug_str:000000000001ff15 .LASF2341
C:\Users\SOLDER~1\AppData\Local\Temp\ccheWc1y.s:32266  .debug_str:000000000002c0e4 .LASF2342
C:\Users\SOLDER~1\AppData\Local\Temp\ccheWc1y.s:24448  .debug_str:000000000000c67e .LASF2343
C:\Users\SOLDER~1\AppData\Local\Temp\ccheWc1y.s:31054  .debug_str:00000000000272a0 .LASF2344
C:\Users\SOLDER~1\AppData\Local\Temp\ccheWc1y.s:25596  .debug_str:0000000000011174 .LASF2345
C:\Users\SOLDER~1\AppData\Local\Temp\ccheWc1y.s:24966  .debug_str:000000000000e8ee .LASF2346
C:\Users\SOLDER~1\AppData\Local\Temp\ccheWc1y.s:31364  .debug_str:00000000000286f3 .LASF2347
C:\Users\SOLDER~1\AppData\Local\Temp\ccheWc1y.s:29576  .debug_str:0000000000021258 .LASF2348
C:\Users\SOLDER~1\AppData\Local\Temp\ccheWc1y.s:23378  .debug_str:0000000000008046 .LASF2349
C:\Users\SOLDER~1\AppData\Local\Temp\ccheWc1y.s:28366  .debug_str:000000000001c424 .LASF2350
C:\Users\SOLDER~1\AppData\Local\Temp\ccheWc1y.s:31562  .debug_str:00000000000293a1 .LASF2351
C:\Users\SOLDER~1\AppData\Local\Temp\ccheWc1y.s:30066  .debug_str:00000000000231d3 .LASF2352
C:\Users\SOLDER~1\AppData\Local\Temp\ccheWc1y.s:24014  .debug_str:000000000000aa73 .LASF2353
C:\Users\SOLDER~1\AppData\Local\Temp\ccheWc1y.s:32584  .debug_str:000000000002d5b9 .LASF2354
C:\Users\SOLDER~1\AppData\Local\Temp\ccheWc1y.s:24824  .debug_str:000000000000df3c .LASF2355
C:\Users\SOLDER~1\AppData\Local\Temp\ccheWc1y.s:27574  .debug_str:00000000000191cb .LASF2356
C:\Users\SOLDER~1\AppData\Local\Temp\ccheWc1y.s:24408  .debug_str:000000000000c39d .LASF2357
C:\Users\SOLDER~1\AppData\Local\Temp\ccheWc1y.s:28342  .debug_str:000000000001c283 .LASF2358
C:\Users\SOLDER~1\AppData\Local\Temp\ccheWc1y.s:25294  .debug_str:000000000000fe09 .LASF2359
C:\Users\SOLDER~1\AppData\Local\Temp\ccheWc1y.s:28752  .debug_str:000000000001dd6b .LASF2360
C:\Users\SOLDER~1\AppData\Local\Temp\ccheWc1y.s:29468  .debug_str:0000000000020ba2 .LASF2361
C:\Users\SOLDER~1\AppData\Local\Temp\ccheWc1y.s:24864  .debug_str:000000000000e1f0 .LASF2362
C:\Users\SOLDER~1\AppData\Local\Temp\ccheWc1y.s:26134  .debug_str:00000000000133ab .LASF2363
C:\Users\SOLDER~1\AppData\Local\Temp\ccheWc1y.s:24160  .debug_str:000000000000b405 .LASF2364
C:\Users\SOLDER~1\AppData\Local\Temp\ccheWc1y.s:32140  .debug_str:000000000002b90a .LASF2365
C:\Users\SOLDER~1\AppData\Local\Temp\ccheWc1y.s:29388  .debug_str:000000000002066d .LASF2366
C:\Users\SOLDER~1\AppData\Local\Temp\ccheWc1y.s:30628  .debug_str:000000000002565e .LASF2367
C:\Users\SOLDER~1\AppData\Local\Temp\ccheWc1y.s:29484  .debug_str:0000000000020ca0 .LASF2368
C:\Users\SOLDER~1\AppData\Local\Temp\ccheWc1y.s:27548  .debug_str:0000000000019010 .LASF2369
C:\Users\SOLDER~1\AppData\Local\Temp\ccheWc1y.s:22018  .debug_str:00000000000028ca .LASF2370
C:\Users\SOLDER~1\AppData\Local\Temp\ccheWc1y.s:22480  .debug_str:000000000000462a .LASF2371
C:\Users\SOLDER~1\AppData\Local\Temp\ccheWc1y.s:28982  .debug_str:000000000001ec31 .LASF2372
C:\Users\SOLDER~1\AppData\Local\Temp\ccheWc1y.s:22460  .debug_str:00000000000044f1 .LASF2373
C:\Users\SOLDER~1\AppData\Local\Temp\ccheWc1y.s:22294  .debug_str:0000000000003a73 .LASF2374
C:\Users\SOLDER~1\AppData\Local\Temp\ccheWc1y.s:22926  .debug_str:0000000000006297 .LASF2375
C:\Users\SOLDER~1\AppData\Local\Temp\ccheWc1y.s:27878  .debug_str:000000000001a500 .LASF2376
C:\Users\SOLDER~1\AppData\Local\Temp\ccheWc1y.s:23956  .debug_str:000000000000a66d .LASF2377
C:\Users\SOLDER~1\AppData\Local\Temp\ccheWc1y.s:22170  .debug_str:0000000000003273 .LASF2378
C:\Users\SOLDER~1\AppData\Local\Temp\ccheWc1y.s:31854  .debug_str:000000000002a6ad .LASF2379
C:\Users\SOLDER~1\AppData\Local\Temp\ccheWc1y.s:31260  .debug_str:0000000000027ffe .LASF2380
C:\Users\SOLDER~1\AppData\Local\Temp\ccheWc1y.s:21518  .debug_str:00000000000007f8 .LASF2381
C:\Users\SOLDER~1\AppData\Local\Temp\ccheWc1y.s:32980  .debug_str:000000000002ef29 .LASF2382
C:\Users\SOLDER~1\AppData\Local\Temp\ccheWc1y.s:28382  .debug_str:000000000001c525 .LASF2383
C:\Users\SOLDER~1\AppData\Local\Temp\ccheWc1y.s:24462  .debug_str:000000000000c78a .LASF2384
C:\Users\SOLDER~1\AppData\Local\Temp\ccheWc1y.s:32532  .debug_str:000000000002d24b .LASF2385
C:\Users\SOLDER~1\AppData\Local\Temp\ccheWc1y.s:31896  .debug_str:000000000002a98a .LASF2386
C:\Users\SOLDER~1\AppData\Local\Temp\ccheWc1y.s:32228  .debug_str:000000000002be99 .LASF2387
C:\Users\SOLDER~1\AppData\Local\Temp\ccheWc1y.s:32720  .debug_str:000000000002dec0 .LASF2388
C:\Users\SOLDER~1\AppData\Local\Temp\ccheWc1y.s:26620  .debug_str:000000000001548b .LASF2389
C:\Users\SOLDER~1\AppData\Local\Temp\ccheWc1y.s:23072  .debug_str:0000000000006c4f .LASF2390
C:\Users\SOLDER~1\AppData\Local\Temp\ccheWc1y.s:25624  .debug_str:0000000000011346 .LASF2391
C:\Users\SOLDER~1\AppData\Local\Temp\ccheWc1y.s:29158  .debug_str:000000000001f7be .LASF2392
C:\Users\SOLDER~1\AppData\Local\Temp\ccheWc1y.s:23036  .debug_str:0000000000006a3c .LASF2393
C:\Users\SOLDER~1\AppData\Local\Temp\ccheWc1y.s:28450  .debug_str:000000000001c993 .LASF2394
C:\Users\SOLDER~1\AppData\Local\Temp\ccheWc1y.s:28174  .debug_str:000000000001b828 .LASF2395
C:\Users\SOLDER~1\AppData\Local\Temp\ccheWc1y.s:22056  .debug_str:0000000000002b66 .LASF2396
C:\Users\SOLDER~1\AppData\Local\Temp\ccheWc1y.s:24894  .debug_str:000000000000e3f0 .LASF2397
GAS LISTING C:\Users\SOLDER~1\AppData\Local\Temp\ccheWc1y.s 			page 108


C:\Users\SOLDER~1\AppData\Local\Temp\ccheWc1y.s:26248  .debug_str:0000000000013b46 .LASF2398
C:\Users\SOLDER~1\AppData\Local\Temp\ccheWc1y.s:30404  .debug_str:00000000000247b0 .LASF2399
C:\Users\SOLDER~1\AppData\Local\Temp\ccheWc1y.s:23534  .debug_str:0000000000008a44 .LASF2400
C:\Users\SOLDER~1\AppData\Local\Temp\ccheWc1y.s:25110  .debug_str:000000000000f1f0 .LASF2401
C:\Users\SOLDER~1\AppData\Local\Temp\ccheWc1y.s:25822  .debug_str:0000000000011fc6 .LASF2402
C:\Users\SOLDER~1\AppData\Local\Temp\ccheWc1y.s:30258  .debug_str:0000000000023e46 .LASF2403
C:\Users\SOLDER~1\AppData\Local\Temp\ccheWc1y.s:25240  .debug_str:000000000000fa30 .LASF2404
C:\Users\SOLDER~1\AppData\Local\Temp\ccheWc1y.s:24248  .debug_str:000000000000b9bd .LASF2405
C:\Users\SOLDER~1\AppData\Local\Temp\ccheWc1y.s:30708  .debug_str:0000000000025b65 .LASF2406
C:\Users\SOLDER~1\AppData\Local\Temp\ccheWc1y.s:28280  .debug_str:000000000001be7c .LASF2407
C:\Users\SOLDER~1\AppData\Local\Temp\ccheWc1y.s:26498  .debug_str:0000000000014c94 .LASF2408
C:\Users\SOLDER~1\AppData\Local\Temp\ccheWc1y.s:28662  .debug_str:000000000001d7c5 .LASF2409
C:\Users\SOLDER~1\AppData\Local\Temp\ccheWc1y.s:22582  .debug_str:0000000000004cb1 .LASF2410
C:\Users\SOLDER~1\AppData\Local\Temp\ccheWc1y.s:23030  .debug_str:00000000000069c8 .LASF2411
C:\Users\SOLDER~1\AppData\Local\Temp\ccheWc1y.s:24148  .debug_str:000000000000b336 .LASF2412
C:\Users\SOLDER~1\AppData\Local\Temp\ccheWc1y.s:24488  .debug_str:000000000000c96e .LASF2413
C:\Users\SOLDER~1\AppData\Local\Temp\ccheWc1y.s:29556  .debug_str:000000000002112e .LASF2414
C:\Users\SOLDER~1\AppData\Local\Temp\ccheWc1y.s:23176  .debug_str:0000000000007350 .LASF2415
C:\Users\SOLDER~1\AppData\Local\Temp\ccheWc1y.s:22444  .debug_str:00000000000043eb .LASF2416
C:\Users\SOLDER~1\AppData\Local\Temp\ccheWc1y.s:28254  .debug_str:000000000001bd15 .LASF2417
C:\Users\SOLDER~1\AppData\Local\Temp\ccheWc1y.s:25328  .debug_str:000000000001005b .LASF2418
C:\Users\SOLDER~1\AppData\Local\Temp\ccheWc1y.s:28026  .debug_str:000000000001aeaa .LASF2419
C:\Users\SOLDER~1\AppData\Local\Temp\ccheWc1y.s:28998  .debug_str:000000000001ed4e .LASF2420
C:\Users\SOLDER~1\AppData\Local\Temp\ccheWc1y.s:21628  .debug_str:0000000000000fa1 .LASF2421
C:\Users\SOLDER~1\AppData\Local\Temp\ccheWc1y.s:21742  .debug_str:00000000000016dc .LASF2422
C:\Users\SOLDER~1\AppData\Local\Temp\ccheWc1y.s:22630  .debug_str:0000000000004f9c .LASF2423
C:\Users\SOLDER~1\AppData\Local\Temp\ccheWc1y.s:32744  .debug_str:000000000002e03b .LASF2424
C:\Users\SOLDER~1\AppData\Local\Temp\ccheWc1y.s:24272  .debug_str:000000000000bb13 .LASF2425
C:\Users\SOLDER~1\AppData\Local\Temp\ccheWc1y.s:26380  .debug_str:00000000000144a6 .LASF2426
C:\Users\SOLDER~1\AppData\Local\Temp\ccheWc1y.s:27208  .debug_str:00000000000179ff .LASF2427
C:\Users\SOLDER~1\AppData\Local\Temp\ccheWc1y.s:23026  .debug_str:0000000000006988 .LASF2428
C:\Users\SOLDER~1\AppData\Local\Temp\ccheWc1y.s:21744  .debug_str:00000000000016fe .LASF2429
C:\Users\SOLDER~1\AppData\Local\Temp\ccheWc1y.s:26576  .debug_str:00000000000151b9 .LASF2430
C:\Users\SOLDER~1\AppData\Local\Temp\ccheWc1y.s:28678  .debug_str:000000000001d8e1 .LASF2431
C:\Users\SOLDER~1\AppData\Local\Temp\ccheWc1y.s:21440  .debug_str:0000000000000267 .LASF2432
C:\Users\SOLDER~1\AppData\Local\Temp\ccheWc1y.s:21630  .debug_str:0000000000000fb9 .LASF2433
C:\Users\SOLDER~1\AppData\Local\Temp\ccheWc1y.s:28252  .debug_str:000000000001bcf0 .LASF2434
C:\Users\SOLDER~1\AppData\Local\Temp\ccheWc1y.s:32342  .debug_str:000000000002c608 .LASF2435
C:\Users\SOLDER~1\AppData\Local\Temp\ccheWc1y.s:21898  .debug_str:00000000000020f5 .LASF2436
C:\Users\SOLDER~1\AppData\Local\Temp\ccheWc1y.s:32646  .debug_str:000000000002da00 .LASF2437
C:\Users\SOLDER~1\AppData\Local\Temp\ccheWc1y.s:30814  .debug_str:0000000000026277 .LASF2438
C:\Users\SOLDER~1\AppData\Local\Temp\ccheWc1y.s:31964  .debug_str:000000000002add6 .LASF2439
C:\Users\SOLDER~1\AppData\Local\Temp\ccheWc1y.s:27406  .debug_str:000000000001871e .LASF2440
C:\Users\SOLDER~1\AppData\Local\Temp\ccheWc1y.s:24664  .debug_str:000000000000d53d .LASF2441
C:\Users\SOLDER~1\AppData\Local\Temp\ccheWc1y.s:27072  .debug_str:00000000000170eb .LASF2442
C:\Users\SOLDER~1\AppData\Local\Temp\ccheWc1y.s:32294  .debug_str:000000000002c2b8 .LASF2443
C:\Users\SOLDER~1\AppData\Local\Temp\ccheWc1y.s:31742  .debug_str:0000000000029f27 .LASF2444
C:\Users\SOLDER~1\AppData\Local\Temp\ccheWc1y.s:24666  .debug_str:000000000000d553 .LASF2445
C:\Users\SOLDER~1\AppData\Local\Temp\ccheWc1y.s:28780  .debug_str:000000000001def6 .LASF2446
C:\Users\SOLDER~1\AppData\Local\Temp\ccheWc1y.s:24352  .debug_str:000000000000c029 .LASF2447
C:\Users\SOLDER~1\AppData\Local\Temp\ccheWc1y.s:29594  .debug_str:0000000000021374 .LASF2448
C:\Users\SOLDER~1\AppData\Local\Temp\ccheWc1y.s:29326  .debug_str:00000000000202cf .LASF2449
C:\Users\SOLDER~1\AppData\Local\Temp\ccheWc1y.s:26570  .debug_str:0000000000015164 .LASF2450
C:\Users\SOLDER~1\AppData\Local\Temp\ccheWc1y.s:26930  .debug_str:0000000000016852 .LASF2451
C:\Users\SOLDER~1\AppData\Local\Temp\ccheWc1y.s:26138  .debug_str:00000000000133e9 .LASF2452
C:\Users\SOLDER~1\AppData\Local\Temp\ccheWc1y.s:30426  .debug_str:0000000000024928 .LASF2453
C:\Users\SOLDER~1\AppData\Local\Temp\ccheWc1y.s:24752  .debug_str:000000000000dae8 .LASF2454
GAS LISTING C:\Users\SOLDER~1\AppData\Local\Temp\ccheWc1y.s 			page 109


C:\Users\SOLDER~1\AppData\Local\Temp\ccheWc1y.s:32074  .debug_str:000000000002b48e .LASF2455
C:\Users\SOLDER~1\AppData\Local\Temp\ccheWc1y.s:30612  .debug_str:000000000002554c .LASF2456
C:\Users\SOLDER~1\AppData\Local\Temp\ccheWc1y.s:22690  .debug_str:0000000000005338 .LASF2457
C:\Users\SOLDER~1\AppData\Local\Temp\ccheWc1y.s:31444  .debug_str:0000000000028bff .LASF2458
C:\Users\SOLDER~1\AppData\Local\Temp\ccheWc1y.s:24670  .debug_str:000000000000d590 .LASF2459
C:\Users\SOLDER~1\AppData\Local\Temp\ccheWc1y.s:29462  .debug_str:0000000000020b3a .LASF2460
C:\Users\SOLDER~1\AppData\Local\Temp\ccheWc1y.s:21846  .debug_str:0000000000001dba .LASF2461
C:\Users\SOLDER~1\AppData\Local\Temp\ccheWc1y.s:30926  .debug_str:0000000000026a25 .LASF2462
C:\Users\SOLDER~1\AppData\Local\Temp\ccheWc1y.s:24526  .debug_str:000000000000cbe1 .LASF2463
C:\Users\SOLDER~1\AppData\Local\Temp\ccheWc1y.s:31142  .debug_str:0000000000027854 .LASF2464
C:\Users\SOLDER~1\AppData\Local\Temp\ccheWc1y.s:23562  .debug_str:0000000000008c43 .LASF2465
C:\Users\SOLDER~1\AppData\Local\Temp\ccheWc1y.s:24796  .debug_str:000000000000ddd3 .LASF2466
C:\Users\SOLDER~1\AppData\Local\Temp\ccheWc1y.s:25252  .debug_str:000000000000fb09 .LASF2467
C:\Users\SOLDER~1\AppData\Local\Temp\ccheWc1y.s:23434  .debug_str:00000000000083f3 .LASF2468
C:\Users\SOLDER~1\AppData\Local\Temp\ccheWc1y.s:22336  .debug_str:0000000000003d31 .LASF2469
C:\Users\SOLDER~1\AppData\Local\Temp\ccheWc1y.s:28440  .debug_str:000000000001c907 .LASF2470
C:\Users\SOLDER~1\AppData\Local\Temp\ccheWc1y.s:30864  .debug_str:0000000000026607 .LASF2471
C:\Users\SOLDER~1\AppData\Local\Temp\ccheWc1y.s:29890  .debug_str:000000000002264f .LASF2472
C:\Users\SOLDER~1\AppData\Local\Temp\ccheWc1y.s:28324  .debug_str:000000000001c15e .LASF2473
C:\Users\SOLDER~1\AppData\Local\Temp\ccheWc1y.s:31716  .debug_str:0000000000029d9e .LASF2474
C:\Users\SOLDER~1\AppData\Local\Temp\ccheWc1y.s:32464  .debug_str:000000000002ce02 .LASF2475
C:\Users\SOLDER~1\AppData\Local\Temp\ccheWc1y.s:28830  .debug_str:000000000001e23b .LASF2476
C:\Users\SOLDER~1\AppData\Local\Temp\ccheWc1y.s:32154  .debug_str:000000000002b9da .LASF2477
C:\Users\SOLDER~1\AppData\Local\Temp\ccheWc1y.s:22270  .debug_str:00000000000038e4 .LASF2478
C:\Users\SOLDER~1\AppData\Local\Temp\ccheWc1y.s:32736  .debug_str:000000000002dfcc .LASF2479
C:\Users\SOLDER~1\AppData\Local\Temp\ccheWc1y.s:29334  .debug_str:000000000002034a .LASF2480
C:\Users\SOLDER~1\AppData\Local\Temp\ccheWc1y.s:24746  .debug_str:000000000000da94 .LASF2481
C:\Users\SOLDER~1\AppData\Local\Temp\ccheWc1y.s:30384  .debug_str:000000000002465c .LASF2482
C:\Users\SOLDER~1\AppData\Local\Temp\ccheWc1y.s:26506  .debug_str:0000000000014d0c .LASF2483
C:\Users\SOLDER~1\AppData\Local\Temp\ccheWc1y.s:29700  .debug_str:0000000000021a5c .LASF2484
C:\Users\SOLDER~1\AppData\Local\Temp\ccheWc1y.s:28114  .debug_str:000000000001b487 .LASF2485
C:\Users\SOLDER~1\AppData\Local\Temp\ccheWc1y.s:23324  .debug_str:0000000000007c92 .LASF2486
C:\Users\SOLDER~1\AppData\Local\Temp\ccheWc1y.s:30888  .debug_str:0000000000026777 .LASF2487
C:\Users\SOLDER~1\AppData\Local\Temp\ccheWc1y.s:28190  .debug_str:000000000001b914 .LASF2488
C:\Users\SOLDER~1\AppData\Local\Temp\ccheWc1y.s:27630  .debug_str:00000000000195ad .LASF2489
C:\Users\SOLDER~1\AppData\Local\Temp\ccheWc1y.s:32390  .debug_str:000000000002c94c .LASF2490
C:\Users\SOLDER~1\AppData\Local\Temp\ccheWc1y.s:32382  .debug_str:000000000002c8df .LASF2491
C:\Users\SOLDER~1\AppData\Local\Temp\ccheWc1y.s:27798  .debug_str:000000000001a009 .LASF2492
C:\Users\SOLDER~1\AppData\Local\Temp\ccheWc1y.s:33016  .debug_str:000000000002f18b .LASF2493
C:\Users\SOLDER~1\AppData\Local\Temp\ccheWc1y.s:22364  .debug_str:0000000000003ee4 .LASF2494
C:\Users\SOLDER~1\AppData\Local\Temp\ccheWc1y.s:28320  .debug_str:000000000001c124 .LASF2495
C:\Users\SOLDER~1\AppData\Local\Temp\ccheWc1y.s:27702  .debug_str:0000000000019a51 .LASF2496
C:\Users\SOLDER~1\AppData\Local\Temp\ccheWc1y.s:29512  .debug_str:0000000000020e77 .LASF2497
C:\Users\SOLDER~1\AppData\Local\Temp\ccheWc1y.s:27744  .debug_str:0000000000019d21 .LASF2498
C:\Users\SOLDER~1\AppData\Local\Temp\ccheWc1y.s:30816  .debug_str:0000000000026299 .LASF2499
C:\Users\SOLDER~1\AppData\Local\Temp\ccheWc1y.s:31446  .debug_str:0000000000028c22 .LASF2500
C:\Users\SOLDER~1\AppData\Local\Temp\ccheWc1y.s:27844  .debug_str:000000000001a2f6 .LASF2501
C:\Users\SOLDER~1\AppData\Local\Temp\ccheWc1y.s:32406  .debug_str:000000000002ca58 .LASF2502
C:\Users\SOLDER~1\AppData\Local\Temp\ccheWc1y.s:24418  .debug_str:000000000000c461 .LASF2503
C:\Users\SOLDER~1\AppData\Local\Temp\ccheWc1y.s:27382  .debug_str:0000000000018578 .LASF2504
C:\Users\SOLDER~1\AppData\Local\Temp\ccheWc1y.s:28580  .debug_str:000000000001d230 .LASF2505
C:\Users\SOLDER~1\AppData\Local\Temp\ccheWc1y.s:25786  .debug_str:0000000000011d9f .LASF2506
C:\Users\SOLDER~1\AppData\Local\Temp\ccheWc1y.s:28186  .debug_str:000000000001b8d9 .LASF2507
C:\Users\SOLDER~1\AppData\Local\Temp\ccheWc1y.s:26592  .debug_str:00000000000152d8 .LASF2508
C:\Users\SOLDER~1\AppData\Local\Temp\ccheWc1y.s:31966  .debug_str:000000000002adf2 .LASF2509
C:\Users\SOLDER~1\AppData\Local\Temp\ccheWc1y.s:23640  .debug_str:0000000000009185 .LASF2510
C:\Users\SOLDER~1\AppData\Local\Temp\ccheWc1y.s:21556  .debug_str:0000000000000ac6 .LASF2511
GAS LISTING C:\Users\SOLDER~1\AppData\Local\Temp\ccheWc1y.s 			page 110


C:\Users\SOLDER~1\AppData\Local\Temp\ccheWc1y.s:22988  .debug_str:00000000000066b3 .LASF2512
C:\Users\SOLDER~1\AppData\Local\Temp\ccheWc1y.s:22560  .debug_str:0000000000004b2b .LASF2513
C:\Users\SOLDER~1\AppData\Local\Temp\ccheWc1y.s:22296  .debug_str:0000000000003a98 .LASF2514
C:\Users\SOLDER~1\AppData\Local\Temp\ccheWc1y.s:24204  .debug_str:000000000000b6d6 .LASF2515
C:\Users\SOLDER~1\AppData\Local\Temp\ccheWc1y.s:27656  .debug_str:000000000001973a .LASF2516
C:\Users\SOLDER~1\AppData\Local\Temp\ccheWc1y.s:22740  .debug_str:000000000000560c .LASF2517
C:\Users\SOLDER~1\AppData\Local\Temp\ccheWc1y.s:24998  .debug_str:000000000000eae7 .LASF2518
C:\Users\SOLDER~1\AppData\Local\Temp\ccheWc1y.s:30570  .debug_str:000000000002529a .LASF2519
C:\Users\SOLDER~1\AppData\Local\Temp\ccheWc1y.s:23694  .debug_str:000000000000952c .LASF2520
C:\Users\SOLDER~1\AppData\Local\Temp\ccheWc1y.s:32076  .debug_str:000000000002b4a6 .LASF2521
C:\Users\SOLDER~1\AppData\Local\Temp\ccheWc1y.s:24494  .debug_str:000000000000c9c1 .LASF2522
C:\Users\SOLDER~1\AppData\Local\Temp\ccheWc1y.s:30342  .debug_str:0000000000024394 .LASF2523
C:\Users\SOLDER~1\AppData\Local\Temp\ccheWc1y.s:25326  .debug_str:0000000000010036 .LASF2524
C:\Users\SOLDER~1\AppData\Local\Temp\ccheWc1y.s:30994  .debug_str:0000000000026ea8 .LASF2525
C:\Users\SOLDER~1\AppData\Local\Temp\ccheWc1y.s:22584  .debug_str:0000000000004cd6 .LASF2526
C:\Users\SOLDER~1\AppData\Local\Temp\ccheWc1y.s:22200  .debug_str:0000000000003475 .LASF2527
C:\Users\SOLDER~1\AppData\Local\Temp\ccheWc1y.s:29744  .debug_str:0000000000021d38 .LASF2528
C:\Users\SOLDER~1\AppData\Local\Temp\ccheWc1y.s:27676  .debug_str:0000000000019885 .LASF2529
C:\Users\SOLDER~1\AppData\Local\Temp\ccheWc1y.s:22660  .debug_str:0000000000005149 .LASF2530
C:\Users\SOLDER~1\AppData\Local\Temp\ccheWc1y.s:31524  .debug_str:000000000002915c .LASF2531
C:\Users\SOLDER~1\AppData\Local\Temp\ccheWc1y.s:22610  .debug_str:0000000000004e6b .LASF2532
C:\Users\SOLDER~1\AppData\Local\Temp\ccheWc1y.s:32878  .debug_str:000000000002e89c .LASF2533
C:\Users\SOLDER~1\AppData\Local\Temp\ccheWc1y.s:21804  .debug_str:0000000000001ac6 .LASF2534
C:\Users\SOLDER~1\AppData\Local\Temp\ccheWc1y.s:22468  .debug_str:000000000000456e .LASF2535
C:\Users\SOLDER~1\AppData\Local\Temp\ccheWc1y.s:27850  .debug_str:000000000001a342 .LASF2536
C:\Users\SOLDER~1\AppData\Local\Temp\ccheWc1y.s:29444  .debug_str:0000000000020a0d .LASF2537
C:\Users\SOLDER~1\AppData\Local\Temp\ccheWc1y.s:22126  .debug_str:0000000000002fbb .LASF2538
C:\Users\SOLDER~1\AppData\Local\Temp\ccheWc1y.s:25226  .debug_str:000000000000f95e .LASF2539
C:\Users\SOLDER~1\AppData\Local\Temp\ccheWc1y.s:28160  .debug_str:000000000001b735 .LASF2540
C:\Users\SOLDER~1\AppData\Local\Temp\ccheWc1y.s:32124  .debug_str:000000000002b83c .LASF2541
C:\Users\SOLDER~1\AppData\Local\Temp\ccheWc1y.s:22358  .debug_str:0000000000003e80 .LASF2542
C:\Users\SOLDER~1\AppData\Local\Temp\ccheWc1y.s:27886  .debug_str:000000000001a595 .LASF2543
C:\Users\SOLDER~1\AppData\Local\Temp\ccheWc1y.s:25974  .debug_str:0000000000012937 .LASF2544
C:\Users\SOLDER~1\AppData\Local\Temp\ccheWc1y.s:21634  .debug_str:0000000000000ff3 .LASF2545
C:\Users\SOLDER~1\AppData\Local\Temp\ccheWc1y.s:32244  .debug_str:000000000002bf90 .LASF2546
C:\Users\SOLDER~1\AppData\Local\Temp\ccheWc1y.s:23238  .debug_str:000000000000772c .LASF2547
C:\Users\SOLDER~1\AppData\Local\Temp\ccheWc1y.s:31432  .debug_str:0000000000028b46 .LASF2548
C:\Users\SOLDER~1\AppData\Local\Temp\ccheWc1y.s:24868  .debug_str:000000000000e236 .LASF2549
C:\Users\SOLDER~1\AppData\Local\Temp\ccheWc1y.s:30786  .debug_str:00000000000260b4 .LASF2550
C:\Users\SOLDER~1\AppData\Local\Temp\ccheWc1y.s:26422  .debug_str:000000000001479d .LASF2551
C:\Users\SOLDER~1\AppData\Local\Temp\ccheWc1y.s:24150  .debug_str:000000000000b356 .LASF2552
C:\Users\SOLDER~1\AppData\Local\Temp\ccheWc1y.s:28034  .debug_str:000000000001af0e .LASF2553
C:\Users\SOLDER~1\AppData\Local\Temp\ccheWc1y.s:24006  .debug_str:000000000000a9f7 .LASF2554
C:\Users\SOLDER~1\AppData\Local\Temp\ccheWc1y.s:29542  .debug_str:0000000000021058 .LASF2555
C:\Users\SOLDER~1\AppData\Local\Temp\ccheWc1y.s:22704  .debug_str:000000000000541b .LASF2556
C:\Users\SOLDER~1\AppData\Local\Temp\ccheWc1y.s:27756  .debug_str:0000000000019dbe .LASF2557
C:\Users\SOLDER~1\AppData\Local\Temp\ccheWc1y.s:27800  .debug_str:000000000001a02c .LASF2558
C:\Users\SOLDER~1\AppData\Local\Temp\ccheWc1y.s:28130  .debug_str:000000000001b57e .LASF2559
C:\Users\SOLDER~1\AppData\Local\Temp\ccheWc1y.s:28980  .debug_str:000000000001ec0c .LASF2560
C:\Users\SOLDER~1\AppData\Local\Temp\ccheWc1y.s:29642  .debug_str:00000000000216be .LASF2561
C:\Users\SOLDER~1\AppData\Local\Temp\ccheWc1y.s:27386  .debug_str:00000000000185c3 .LASF2562
C:\Users\SOLDER~1\AppData\Local\Temp\ccheWc1y.s:31250  .debug_str:0000000000027f6d .LASF2563
C:\Users\SOLDER~1\AppData\Local\Temp\ccheWc1y.s:32470  .debug_str:000000000002ce51 .LASF2564
C:\Users\SOLDER~1\AppData\Local\Temp\ccheWc1y.s:32912  .debug_str:000000000002ea9d .LASF2565
C:\Users\SOLDER~1\AppData\Local\Temp\ccheWc1y.s:25834  .debug_str:000000000001208f .LASF2566
C:\Users\SOLDER~1\AppData\Local\Temp\ccheWc1y.s:22710  .debug_str:0000000000005474 .LASF2567
C:\Users\SOLDER~1\AppData\Local\Temp\ccheWc1y.s:30680  .debug_str:00000000000259a0 .LASF2568
GAS LISTING C:\Users\SOLDER~1\AppData\Local\Temp\ccheWc1y.s 			page 111


C:\Users\SOLDER~1\AppData\Local\Temp\ccheWc1y.s:24356  .debug_str:000000000000c066 .LASF2569
C:\Users\SOLDER~1\AppData\Local\Temp\ccheWc1y.s:24384  .debug_str:000000000000c211 .LASF2570
C:\Users\SOLDER~1\AppData\Local\Temp\ccheWc1y.s:25994  .debug_str:0000000000012abd .LASF2571
C:\Users\SOLDER~1\AppData\Local\Temp\ccheWc1y.s:29430  .debug_str:000000000002090e .LASF2572
C:\Users\SOLDER~1\AppData\Local\Temp\ccheWc1y.s:28866  .debug_str:000000000001e4be .LASF2573
C:\Users\SOLDER~1\AppData\Local\Temp\ccheWc1y.s:22082  .debug_str:0000000000002ccd .LASF2574
C:\Users\SOLDER~1\AppData\Local\Temp\ccheWc1y.s:26984  .debug_str:0000000000016b7f .LASF2575
C:\Users\SOLDER~1\AppData\Local\Temp\ccheWc1y.s:28212  .debug_str:000000000001ba81 .LASF2576
C:\Users\SOLDER~1\AppData\Local\Temp\ccheWc1y.s:25028  .debug_str:000000000000ed04 .LASF2577
C:\Users\SOLDER~1\AppData\Local\Temp\ccheWc1y.s:28872  .debug_str:000000000001e50e .LASF2578
C:\Users\SOLDER~1\AppData\Local\Temp\ccheWc1y.s:23092  .debug_str:0000000000006d8b .LASF2579
C:\Users\SOLDER~1\AppData\Local\Temp\ccheWc1y.s:24498  .debug_str:000000000000ca01 .LASF2580
C:\Users\SOLDER~1\AppData\Local\Temp\ccheWc1y.s:32888  .debug_str:000000000002e91d .LASF2581
C:\Users\SOLDER~1\AppData\Local\Temp\ccheWc1y.s:29066  .debug_str:000000000001f193 .LASF2582
C:\Users\SOLDER~1\AppData\Local\Temp\ccheWc1y.s:30924  .debug_str:0000000000026a0c .LASF2583
C:\Users\SOLDER~1\AppData\Local\Temp\ccheWc1y.s:29692  .debug_str:00000000000219e8 .LASF2584
C:\Users\SOLDER~1\AppData\Local\Temp\ccheWc1y.s:29026  .debug_str:000000000001ef1a .LASF2585
C:\Users\SOLDER~1\AppData\Local\Temp\ccheWc1y.s:25156  .debug_str:000000000000f4c8 .LASF2586
C:\Users\SOLDER~1\AppData\Local\Temp\ccheWc1y.s:27146  .debug_str:00000000000175a8 .LASF2587
C:\Users\SOLDER~1\AppData\Local\Temp\ccheWc1y.s:21714  .debug_str:0000000000001511 .LASF2588
C:\Users\SOLDER~1\AppData\Local\Temp\ccheWc1y.s:25192  .debug_str:000000000000f72f .LASF2589
C:\Users\SOLDER~1\AppData\Local\Temp\ccheWc1y.s:24968  .debug_str:000000000000e90e .LASF2590
C:\Users\SOLDER~1\AppData\Local\Temp\ccheWc1y.s:27996  .debug_str:000000000001acaa .LASF2591
C:\Users\SOLDER~1\AppData\Local\Temp\ccheWc1y.s:22642  .debug_str:0000000000005044 .LASF2592
C:\Users\SOLDER~1\AppData\Local\Temp\ccheWc1y.s:29274  .debug_str:000000000001ff7a .LASF2593
C:\Users\SOLDER~1\AppData\Local\Temp\ccheWc1y.s:28962  .debug_str:000000000001eaaf .LASF2594
C:\Users\SOLDER~1\AppData\Local\Temp\ccheWc1y.s:27560  .debug_str:00000000000190cf .LASF2595
C:\Users\SOLDER~1\AppData\Local\Temp\ccheWc1y.s:21822  .debug_str:0000000000001c05 .LASF2596
C:\Users\SOLDER~1\AppData\Local\Temp\ccheWc1y.s:25874  .debug_str:000000000001230b .LASF2597
C:\Users\SOLDER~1\AppData\Local\Temp\ccheWc1y.s:32472  .debug_str:000000000002ce76 .LASF2598
C:\Users\SOLDER~1\AppData\Local\Temp\ccheWc1y.s:24192  .debug_str:000000000000b608 .LASF2599
C:\Users\SOLDER~1\AppData\Local\Temp\ccheWc1y.s:28586  .debug_str:000000000001d295 .LASF2600
C:\Users\SOLDER~1\AppData\Local\Temp\ccheWc1y.s:22424  .debug_str:00000000000042c3 .LASF2601
C:\Users\SOLDER~1\AppData\Local\Temp\ccheWc1y.s:24702  .debug_str:000000000000d7aa .LASF2602
C:\Users\SOLDER~1\AppData\Local\Temp\ccheWc1y.s:32486  .debug_str:000000000002cf60 .LASF2603
C:\Users\SOLDER~1\AppData\Local\Temp\ccheWc1y.s:28042  .debug_str:000000000001af8d .LASF2604
C:\Users\SOLDER~1\AppData\Local\Temp\ccheWc1y.s:27278  .debug_str:0000000000017e8b .LASF2605
C:\Users\SOLDER~1\AppData\Local\Temp\ccheWc1y.s:23318  .debug_str:0000000000007c1b .LASF2606
C:\Users\SOLDER~1\AppData\Local\Temp\ccheWc1y.s:29070  .debug_str:000000000001f1de .LASF2607
C:\Users\SOLDER~1\AppData\Local\Temp\ccheWc1y.s:32934  .debug_str:000000000002ec02 .LASF2608
C:\Users\SOLDER~1\AppData\Local\Temp\ccheWc1y.s:27462  .debug_str:0000000000018a84 .LASF2609
C:\Users\SOLDER~1\AppData\Local\Temp\ccheWc1y.s:26482  .debug_str:0000000000014ba2 .LASF2610
C:\Users\SOLDER~1\AppData\Local\Temp\ccheWc1y.s:25778  .debug_str:0000000000011d0b .LASF2611
C:\Users\SOLDER~1\AppData\Local\Temp\ccheWc1y.s:31754  .debug_str:0000000000029fd6 .LASF2612
C:\Users\SOLDER~1\AppData\Local\Temp\ccheWc1y.s:25290  .debug_str:000000000000fdce .LASF2613
C:\Users\SOLDER~1\AppData\Local\Temp\ccheWc1y.s:22428  .debug_str:00000000000042f8 .LASF2614
C:\Users\SOLDER~1\AppData\Local\Temp\ccheWc1y.s:21492  .debug_str:00000000000005be .LASF2615
C:\Users\SOLDER~1\AppData\Local\Temp\ccheWc1y.s:28462  .debug_str:000000000001ca45 .LASF2616
C:\Users\SOLDER~1\AppData\Local\Temp\ccheWc1y.s:31228  .debug_str:0000000000027e16 .LASF2617
C:\Users\SOLDER~1\AppData\Local\Temp\ccheWc1y.s:22964  .debug_str:000000000000651c .LASF2618
C:\Users\SOLDER~1\AppData\Local\Temp\ccheWc1y.s:29322  .debug_str:000000000002028a .LASF2619
C:\Users\SOLDER~1\AppData\Local\Temp\ccheWc1y.s:29380  .debug_str:00000000000205fb .LASF2620
C:\Users\SOLDER~1\AppData\Local\Temp\ccheWc1y.s:27484  .debug_str:0000000000018c0a .LASF2621
C:\Users\SOLDER~1\AppData\Local\Temp\ccheWc1y.s:29332  .debug_str:0000000000020324 .LASF2622
C:\Users\SOLDER~1\AppData\Local\Temp\ccheWc1y.s:24634  .debug_str:000000000000d346 .LASF2623
C:\Users\SOLDER~1\AppData\Local\Temp\ccheWc1y.s:30038  .debug_str:0000000000022fe7 .LASF2624
C:\Users\SOLDER~1\AppData\Local\Temp\ccheWc1y.s:23554  .debug_str:0000000000008bc9 .LASF2625
GAS LISTING C:\Users\SOLDER~1\AppData\Local\Temp\ccheWc1y.s 			page 112


C:\Users\SOLDER~1\AppData\Local\Temp\ccheWc1y.s:25536  .debug_str:0000000000010db0 .LASF2626
C:\Users\SOLDER~1\AppData\Local\Temp\ccheWc1y.s:21650  .debug_str:00000000000010df .LASF2627
C:\Users\SOLDER~1\AppData\Local\Temp\ccheWc1y.s:22058  .debug_str:0000000000002b88 .LASF2628
C:\Users\SOLDER~1\AppData\Local\Temp\ccheWc1y.s:31386  .debug_str:000000000002885d .LASF2629
C:\Users\SOLDER~1\AppData\Local\Temp\ccheWc1y.s:31880  .debug_str:000000000002a877 .LASF2630
C:\Users\SOLDER~1\AppData\Local\Temp\ccheWc1y.s:29566  .debug_str:00000000000211c8 .LASF2631
C:\Users\SOLDER~1\AppData\Local\Temp\ccheWc1y.s:22918  .debug_str:0000000000006203 .LASF2632
C:\Users\SOLDER~1\AppData\Local\Temp\ccheWc1y.s:33058  .debug_str:000000000002f3fd .LASF2633
C:\Users\SOLDER~1\AppData\Local\Temp\ccheWc1y.s:30512  .debug_str:0000000000024eac .LASF2634
C:\Users\SOLDER~1\AppData\Local\Temp\ccheWc1y.s:25070  .debug_str:000000000000ef71 .LASF2635
C:\Users\SOLDER~1\AppData\Local\Temp\ccheWc1y.s:30184  .debug_str:0000000000023955 .LASF2636
C:\Users\SOLDER~1\AppData\Local\Temp\ccheWc1y.s:31314  .debug_str:00000000000283ba .LASF2637
C:\Users\SOLDER~1\AppData\Local\Temp\ccheWc1y.s:29258  .debug_str:000000000001fe88 .LASF2638
C:\Users\SOLDER~1\AppData\Local\Temp\ccheWc1y.s:21746  .debug_str:0000000000001723 .LASF2639
C:\Users\SOLDER~1\AppData\Local\Temp\ccheWc1y.s:27236  .debug_str:0000000000017bdb .LASF2640
C:\Users\SOLDER~1\AppData\Local\Temp\ccheWc1y.s:31778  .debug_str:000000000002a17a .LASF2641
C:\Users\SOLDER~1\AppData\Local\Temp\ccheWc1y.s:23196  .debug_str:000000000000749a .LASF2642
C:\Users\SOLDER~1\AppData\Local\Temp\ccheWc1y.s:30002  .debug_str:0000000000022d6b .LASF2643
C:\Users\SOLDER~1\AppData\Local\Temp\ccheWc1y.s:24716  .debug_str:000000000000d8ab .LASF2644
C:\Users\SOLDER~1\AppData\Local\Temp\ccheWc1y.s:28376  .debug_str:000000000001c4ce .LASF2645
C:\Users\SOLDER~1\AppData\Local\Temp\ccheWc1y.s:26692  .debug_str:0000000000015947 .LASF2646
C:\Users\SOLDER~1\AppData\Local\Temp\ccheWc1y.s:26730  .debug_str:0000000000015baa .LASF2647
C:\Users\SOLDER~1\AppData\Local\Temp\ccheWc1y.s:29604  .debug_str:0000000000021431 .LASF2648
C:\Users\SOLDER~1\AppData\Local\Temp\ccheWc1y.s:24958  .debug_str:000000000000e87d .LASF2649
C:\Users\SOLDER~1\AppData\Local\Temp\ccheWc1y.s:31258  .debug_str:0000000000027fd7 .LASF2650
C:\Users\SOLDER~1\AppData\Local\Temp\ccheWc1y.s:23306  .debug_str:0000000000007b74 .LASF2651
C:\Users\SOLDER~1\AppData\Local\Temp\ccheWc1y.s:28436  .debug_str:000000000001c8bc .LASF2652
C:\Users\SOLDER~1\AppData\Local\Temp\ccheWc1y.s:23916  .debug_str:000000000000a3d4 .LASF2653
C:\Users\SOLDER~1\AppData\Local\Temp\ccheWc1y.s:22026  .debug_str:0000000000002987 .LASF2654
C:\Users\SOLDER~1\AppData\Local\Temp\ccheWc1y.s:22006  .debug_str:0000000000002816 .LASF2655
C:\Users\SOLDER~1\AppData\Local\Temp\ccheWc1y.s:28154  .debug_str:000000000001b6d0 .LASF2656
C:\Users\SOLDER~1\AppData\Local\Temp\ccheWc1y.s:25118  .debug_str:000000000000f26e .LASF2657
C:\Users\SOLDER~1\AppData\Local\Temp\ccheWc1y.s:22754  .debug_str:00000000000056e6 .LASF2658
C:\Users\SOLDER~1\AppData\Local\Temp\ccheWc1y.s:29848  .debug_str:00000000000223be .LASF2659
C:\Users\SOLDER~1\AppData\Local\Temp\ccheWc1y.s:28948  .debug_str:000000000001e9bd .LASF2660
C:\Users\SOLDER~1\AppData\Local\Temp\ccheWc1y.s:27960  .debug_str:000000000001aa44 .LASF2661
C:\Users\SOLDER~1\AppData\Local\Temp\ccheWc1y.s:28916  .debug_str:000000000001e7cd .LASF2662
C:\Users\SOLDER~1\AppData\Local\Temp\ccheWc1y.s:26030  .debug_str:0000000000012cce .LASF2663
C:\Users\SOLDER~1\AppData\Local\Temp\ccheWc1y.s:29638  .debug_str:000000000002165e .LASF2664
C:\Users\SOLDER~1\AppData\Local\Temp\ccheWc1y.s:24090  .debug_str:000000000000af53 .LASF2665
C:\Users\SOLDER~1\AppData\Local\Temp\ccheWc1y.s:25096  .debug_str:000000000000f10d .LASF2666
C:\Users\SOLDER~1\AppData\Local\Temp\ccheWc1y.s:22166  .debug_str:0000000000003248 .LASF2667
C:\Users\SOLDER~1\AppData\Local\Temp\ccheWc1y.s:21670  .debug_str:0000000000001230 .LASF2668
C:\Users\SOLDER~1\AppData\Local\Temp\ccheWc1y.s:22492  .debug_str:00000000000046f1 .LASF2669
C:\Users\SOLDER~1\AppData\Local\Temp\ccheWc1y.s:30530  .debug_str:0000000000024ff6 .LASF2670
C:\Users\SOLDER~1\AppData\Local\Temp\ccheWc1y.s:29992  .debug_str:0000000000022cd5 .LASF2671
C:\Users\SOLDER~1\AppData\Local\Temp\ccheWc1y.s:22586  .debug_str:0000000000004cf6 .LASF2672
C:\Users\SOLDER~1\AppData\Local\Temp\ccheWc1y.s:30684  .debug_str:00000000000259e3 .LASF2673
C:\Users\SOLDER~1\AppData\Local\Temp\ccheWc1y.s:29718  .debug_str:0000000000021b90 .LASF2674
C:\Users\SOLDER~1\AppData\Local\Temp\ccheWc1y.s:29050  .debug_str:000000000001f0a9 .LASF2675
C:\Users\SOLDER~1\AppData\Local\Temp\ccheWc1y.s:27802  .debug_str:000000000001a051 .LASF2676
C:\Users\SOLDER~1\AppData\Local\Temp\ccheWc1y.s:27434  .debug_str:00000000000188d2 .LASF2677
C:\Users\SOLDER~1\AppData\Local\Temp\ccheWc1y.s:26850  .debug_str:0000000000016308 .LASF2678
C:\Users\SOLDER~1\AppData\Local\Temp\ccheWc1y.s:25756  .debug_str:0000000000011bb7 .LASF2679
C:\Users\SOLDER~1\AppData\Local\Temp\ccheWc1y.s:22928  .debug_str:00000000000062ae .LASF2680
C:\Users\SOLDER~1\AppData\Local\Temp\ccheWc1y.s:23960  .debug_str:000000000000a6b3 .LASF2681
C:\Users\SOLDER~1\AppData\Local\Temp\ccheWc1y.s:32556  .debug_str:000000000002d3c8 .LASF2682
GAS LISTING C:\Users\SOLDER~1\AppData\Local\Temp\ccheWc1y.s 			page 113


C:\Users\SOLDER~1\AppData\Local\Temp\ccheWc1y.s:22316  .debug_str:0000000000003bfb .LASF2683
C:\Users\SOLDER~1\AppData\Local\Temp\ccheWc1y.s:22356  .debug_str:0000000000003e59 .LASF2684
C:\Users\SOLDER~1\AppData\Local\Temp\ccheWc1y.s:28988  .debug_str:000000000001eca3 .LASF2685
C:\Users\SOLDER~1\AppData\Local\Temp\ccheWc1y.s:29272  .debug_str:000000000001ff53 .LASF2686
C:\Users\SOLDER~1\AppData\Local\Temp\ccheWc1y.s:30580  .debug_str:0000000000025347 .LASF2687
C:\Users\SOLDER~1\AppData\Local\Temp\ccheWc1y.s:27316  .debug_str:00000000000180ea .LASF2688
C:\Users\SOLDER~1\AppData\Local\Temp\ccheWc1y.s:28938  .debug_str:000000000001e934 .LASF2689
C:\Users\SOLDER~1\AppData\Local\Temp\ccheWc1y.s:28844  .debug_str:000000000001e32c .LASF2690
C:\Users\SOLDER~1\AppData\Local\Temp\ccheWc1y.s:27342  .debug_str:00000000000182a3 .LASF2691
C:\Users\SOLDER~1\AppData\Local\Temp\ccheWc1y.s:30094  .debug_str:000000000002339a .LASF2692
C:\Users\SOLDER~1\AppData\Local\Temp\ccheWc1y.s:22724  .debug_str:0000000000005528 .LASF2693
C:\Users\SOLDER~1\AppData\Local\Temp\ccheWc1y.s:21916  .debug_str:0000000000002239 .LASF2694
C:\Users\SOLDER~1\AppData\Local\Temp\ccheWc1y.s:32518  .debug_str:000000000002d168 .LASF2695
C:\Users\SOLDER~1\AppData\Local\Temp\ccheWc1y.s:26240  .debug_str:0000000000013ac7 .LASF2696
C:\Users\SOLDER~1\AppData\Local\Temp\ccheWc1y.s:26156  .debug_str:0000000000013529 .LASF2697
C:\Users\SOLDER~1\AppData\Local\Temp\ccheWc1y.s:22528  .debug_str:0000000000004950 .LASF2698
C:\Users\SOLDER~1\AppData\Local\Temp\ccheWc1y.s:28664  .debug_str:000000000001d7e1 .LASF2699
C:\Users\SOLDER~1\AppData\Local\Temp\ccheWc1y.s:28936  .debug_str:000000000001e90e .LASF2700
C:\Users\SOLDER~1\AppData\Local\Temp\ccheWc1y.s:33078  .debug_str:000000000002f540 .LASF2701
C:\Users\SOLDER~1\AppData\Local\Temp\ccheWc1y.s:28900  .debug_str:000000000001e6d1 .LASF2702
C:\Users\SOLDER~1\AppData\Local\Temp\ccheWc1y.s:24830  .debug_str:000000000000df98 .LASF2703
C:\Users\SOLDER~1\AppData\Local\Temp\ccheWc1y.s:29530  .debug_str:0000000000020f80 .LASF2704
C:\Users\SOLDER~1\AppData\Local\Temp\ccheWc1y.s:22890  .debug_str:0000000000005ff7 .LASF2705
C:\Users\SOLDER~1\AppData\Local\Temp\ccheWc1y.s:24980  .debug_str:000000000000e9cb .LASF2706
C:\Users\SOLDER~1\AppData\Local\Temp\ccheWc1y.s:32672  .debug_str:000000000002db96 .LASF2707
C:\Users\SOLDER~1\AppData\Local\Temp\ccheWc1y.s:26502  .debug_str:0000000000014cc8 .LASF2708
C:\Users\SOLDER~1\AppData\Local\Temp\ccheWc1y.s:30812  .debug_str:000000000002625f .LASF2709
C:\Users\SOLDER~1\AppData\Local\Temp\ccheWc1y.s:31458  .debug_str:0000000000028ce1 .LASF2710
C:\Users\SOLDER~1\AppData\Local\Temp\ccheWc1y.s:28912  .debug_str:000000000001e78a .LASF2711
C:\Users\SOLDER~1\AppData\Local\Temp\ccheWc1y.s:29320  .debug_str:0000000000020264 .LASF2712
C:\Users\SOLDER~1\AppData\Local\Temp\ccheWc1y.s:27300  .debug_str:0000000000017ff7 .LASF2713
C:\Users\SOLDER~1\AppData\Local\Temp\ccheWc1y.s:29660  .debug_str:0000000000021804 .LASF2714
C:\Users\SOLDER~1\AppData\Local\Temp\ccheWc1y.s:23614  .debug_str:0000000000008fc9 .LASF2715
C:\Users\SOLDER~1\AppData\Local\Temp\ccheWc1y.s:22392  .debug_str:0000000000004097 .LASF2716
C:\Users\SOLDER~1\AppData\Local\Temp\ccheWc1y.s:23826  .debug_str:0000000000009dc2 .LASF2717
C:\Users\SOLDER~1\AppData\Local\Temp\ccheWc1y.s:21578  .debug_str:0000000000000c51 .LASF2718
C:\Users\SOLDER~1\AppData\Local\Temp\ccheWc1y.s:21408  .debug_str:000000000000008e .LASF2719
C:\Users\SOLDER~1\AppData\Local\Temp\ccheWc1y.s:29386  .debug_str:0000000000020646 .LASF2720
C:\Users\SOLDER~1\AppData\Local\Temp\ccheWc1y.s:27414  .debug_str:0000000000018794 .LASF2721
C:\Users\SOLDER~1\AppData\Local\Temp\ccheWc1y.s:30192  .debug_str:00000000000239ee .LASF2722
C:\Users\SOLDER~1\AppData\Local\Temp\ccheWc1y.s:30436  .debug_str:00000000000249bc .LASF2723
C:\Users\SOLDER~1\AppData\Local\Temp\ccheWc1y.s:28712  .debug_str:000000000001db0a .LASF2724
C:\Users\SOLDER~1\AppData\Local\Temp\ccheWc1y.s:28794  .debug_str:000000000001dfd9 .LASF2725
C:\Users\SOLDER~1\AppData\Local\Temp\ccheWc1y.s:22858  .debug_str:0000000000005ddc .LASF2726
C:\Users\SOLDER~1\AppData\Local\Temp\ccheWc1y.s:27192  .debug_str:00000000000178c7 .LASF2727
C:\Users\SOLDER~1\AppData\Local\Temp\ccheWc1y.s:21902  .debug_str:000000000000213d .LASF2728
C:\Users\SOLDER~1\AppData\Local\Temp\ccheWc1y.s:25428  .debug_str:00000000000106bc .LASF2729
C:\Users\SOLDER~1\AppData\Local\Temp\ccheWc1y.s:23586  .debug_str:0000000000008db6 .LASF2730
C:\Users\SOLDER~1\AppData\Local\Temp\ccheWc1y.s:23732  .debug_str:00000000000097c5 .LASF2731
C:\Users\SOLDER~1\AppData\Local\Temp\ccheWc1y.s:32442  .debug_str:000000000002cc83 .LASF2732
C:\Users\SOLDER~1\AppData\Local\Temp\ccheWc1y.s:32578  .debug_str:000000000002d552 .LASF2733
C:\Users\SOLDER~1\AppData\Local\Temp\ccheWc1y.s:30790  .debug_str:00000000000260f4 .LASF2734
C:\Users\SOLDER~1\AppData\Local\Temp\ccheWc1y.s:30630  .debug_str:0000000000025677 .LASF2735
C:\Users\SOLDER~1\AppData\Local\Temp\ccheWc1y.s:25244  .debug_str:000000000000fa6f .LASF2736
C:\Users\SOLDER~1\AppData\Local\Temp\ccheWc1y.s:28722  .debug_str:000000000001db93 .LASF2737
C:\Users\SOLDER~1\AppData\Local\Temp\ccheWc1y.s:31422  .debug_str:0000000000028aa8 .LASF2738
C:\Users\SOLDER~1\AppData\Local\Temp\ccheWc1y.s:26836  .debug_str:000000000001622f .LASF2739
GAS LISTING C:\Users\SOLDER~1\AppData\Local\Temp\ccheWc1y.s 			page 114


C:\Users\SOLDER~1\AppData\Local\Temp\ccheWc1y.s:26152  .debug_str:00000000000134d7 .LASF2740
C:\Users\SOLDER~1\AppData\Local\Temp\ccheWc1y.s:23486  .debug_str:000000000000874f .LASF2741
C:\Users\SOLDER~1\AppData\Local\Temp\ccheWc1y.s:22310  .debug_str:0000000000003b89 .LASF2742
C:\Users\SOLDER~1\AppData\Local\Temp\ccheWc1y.s:27686  .debug_str:0000000000019926 .LASF2743
C:\Users\SOLDER~1\AppData\Local\Temp\ccheWc1y.s:26750  .debug_str:0000000000015c9d .LASF2744
C:\Users\SOLDER~1\AppData\Local\Temp\ccheWc1y.s:32738  .debug_str:000000000002dfe3 .LASF2745
C:\Users\SOLDER~1\AppData\Local\Temp\ccheWc1y.s:22164  .debug_str:000000000000321d .LASF2746
C:\Users\SOLDER~1\AppData\Local\Temp\ccheWc1y.s:30784  .debug_str:0000000000026097 .LASF2747
C:\Users\SOLDER~1\AppData\Local\Temp\ccheWc1y.s:30410  .debug_str:000000000002481c .LASF2748
C:\Users\SOLDER~1\AppData\Local\Temp\ccheWc1y.s:28886  .debug_str:000000000001e5e1 .LASF2749
C:\Users\SOLDER~1\AppData\Local\Temp\ccheWc1y.s:28656  .debug_str:000000000001d755 .LASF2750
C:\Users\SOLDER~1\AppData\Local\Temp\ccheWc1y.s:27088  .debug_str:00000000000171ca .LASF2751
C:\Users\SOLDER~1\AppData\Local\Temp\ccheWc1y.s:31360  .debug_str:00000000000286a3 .LASF2752
C:\Users\SOLDER~1\AppData\Local\Temp\ccheWc1y.s:22520  .debug_str:00000000000048ce .LASF2753
C:\Users\SOLDER~1\AppData\Local\Temp\ccheWc1y.s:28344  .debug_str:000000000001c2a5 .LASF2754
C:\Users\SOLDER~1\AppData\Local\Temp\ccheWc1y.s:32568  .debug_str:000000000002d49b .LASF2755
C:\Users\SOLDER~1\AppData\Local\Temp\ccheWc1y.s:29656  .debug_str:00000000000217b6 .LASF2756
C:\Users\SOLDER~1\AppData\Local\Temp\ccheWc1y.s:30886  .debug_str:0000000000026758 .LASF2757
C:\Users\SOLDER~1\AppData\Local\Temp\ccheWc1y.s:31924  .debug_str:000000000002ab3f .LASF2758
C:\Users\SOLDER~1\AppData\Local\Temp\ccheWc1y.s:29172  .debug_str:000000000001f8b2 .LASF2759
C:\Users\SOLDER~1\AppData\Local\Temp\ccheWc1y.s:28060  .debug_str:000000000001b0ba .LASF2760
C:\Users\SOLDER~1\AppData\Local\Temp\ccheWc1y.s:27546  .debug_str:0000000000018ff1 .LASF2761
C:\Users\SOLDER~1\AppData\Local\Temp\ccheWc1y.s:25984  .debug_str:00000000000129e0 .LASF2762
C:\Users\SOLDER~1\AppData\Local\Temp\ccheWc1y.s:25862  .debug_str:000000000001225c .LASF2763
C:\Users\SOLDER~1\AppData\Local\Temp\ccheWc1y.s:27532  .debug_str:0000000000018ef1 .LASF2764
C:\Users\SOLDER~1\AppData\Local\Temp\ccheWc1y.s:24086  .debug_str:000000000000af14 .LASF2765
C:\Users\SOLDER~1\AppData\Local\Temp\ccheWc1y.s:22666  .debug_str:00000000000051a3 .LASF2766
C:\Users\SOLDER~1\AppData\Local\Temp\ccheWc1y.s:24858  .debug_str:000000000000e18d .LASF2767
C:\Users\SOLDER~1\AppData\Local\Temp\ccheWc1y.s:32376  .debug_str:000000000002c882 .LASF2768
C:\Users\SOLDER~1\AppData\Local\Temp\ccheWc1y.s:29096  .debug_str:000000000001f397 .LASF2769
C:\Users\SOLDER~1\AppData\Local\Temp\ccheWc1y.s:22254  .debug_str:00000000000037ca .LASF2770
C:\Users\SOLDER~1\AppData\Local\Temp\ccheWc1y.s:22834  .debug_str:0000000000005c7f .LASF2771
C:\Users\SOLDER~1\AppData\Local\Temp\ccheWc1y.s:32558  .debug_str:000000000002d3ef .LASF2772
C:\Users\SOLDER~1\AppData\Local\Temp\ccheWc1y.s:29474  .debug_str:0000000000020c05 .LASF2773
C:\Users\SOLDER~1\AppData\Local\Temp\ccheWc1y.s:26542  .debug_str:0000000000014f79 .LASF2774
C:\Users\SOLDER~1\AppData\Local\Temp\ccheWc1y.s:22662  .debug_str:000000000000516e .LASF2775
C:\Users\SOLDER~1\AppData\Local\Temp\ccheWc1y.s:32538  .debug_str:000000000002d2a4 .LASF2776
C:\Users\SOLDER~1\AppData\Local\Temp\ccheWc1y.s:25752  .debug_str:0000000000011b8f .LASF2777
C:\Users\SOLDER~1\AppData\Local\Temp\ccheWc1y.s:27080  .debug_str:0000000000017150 .LASF2778
C:\Users\SOLDER~1\AppData\Local\Temp\ccheWc1y.s:23794  .debug_str:0000000000009bd1 .LASF2779
C:\Users\SOLDER~1\AppData\Local\Temp\ccheWc1y.s:24240  .debug_str:000000000000b941 .LASF2780
C:\Users\SOLDER~1\AppData\Local\Temp\ccheWc1y.s:21866  .debug_str:0000000000001ef4 .LASF2781
C:\Users\SOLDER~1\AppData\Local\Temp\ccheWc1y.s:21712  .debug_str:00000000000014ea .LASF2782
C:\Users\SOLDER~1\AppData\Local\Temp\ccheWc1y.s:31646  .debug_str:00000000000298fc .LASF2783
C:\Users\SOLDER~1\AppData\Local\Temp\ccheWc1y.s:22410  .debug_str:00000000000041ca .LASF2784
C:\Users\SOLDER~1\AppData\Local\Temp\ccheWc1y.s:22438  .debug_str:0000000000004389 .LASF2785
C:\Users\SOLDER~1\AppData\Local\Temp\ccheWc1y.s:26632  .debug_str:0000000000015540 .LASF2786
C:\Users\SOLDER~1\AppData\Local\Temp\ccheWc1y.s:27836  .debug_str:000000000001a285 .LASF2787
C:\Users\SOLDER~1\AppData\Local\Temp\ccheWc1y.s:26154  .debug_str:0000000000013502 .LASF2788
C:\Users\SOLDER~1\AppData\Local\Temp\ccheWc1y.s:25902  .debug_str:00000000000124ea .LASF2789
C:\Users\SOLDER~1\AppData\Local\Temp\ccheWc1y.s:24266  .debug_str:000000000000bab5 .LASF2790
C:\Users\SOLDER~1\AppData\Local\Temp\ccheWc1y.s:27046  .debug_str:0000000000016f73 .LASF2791
C:\Users\SOLDER~1\AppData\Local\Temp\ccheWc1y.s:27032  .debug_str:0000000000016e7e .LASF2792
C:\Users\SOLDER~1\AppData\Local\Temp\ccheWc1y.s:23364  .debug_str:0000000000007f55 .LASF2793
C:\Users\SOLDER~1\AppData\Local\Temp\ccheWc1y.s:29662  .debug_str:000000000002182b .LASF2794
C:\Users\SOLDER~1\AppData\Local\Temp\ccheWc1y.s:21710  .debug_str:00000000000014cf .LASF2795
C:\Users\SOLDER~1\AppData\Local\Temp\ccheWc1y.s:26298  .debug_str:0000000000013eb4 .LASF2796
GAS LISTING C:\Users\SOLDER~1\AppData\Local\Temp\ccheWc1y.s 			page 115


C:\Users\SOLDER~1\AppData\Local\Temp\ccheWc1y.s:22658  .debug_str:000000000000512e .LASF2797
C:\Users\SOLDER~1\AppData\Local\Temp\ccheWc1y.s:21496  .debug_str:00000000000005fc .LASF2798
C:\Users\SOLDER~1\AppData\Local\Temp\ccheWc1y.s:29964  .debug_str:0000000000022ae5 .LASF2799
C:\Users\SOLDER~1\AppData\Local\Temp\ccheWc1y.s:29296  .debug_str:00000000000200db .LASF2800
C:\Users\SOLDER~1\AppData\Local\Temp\ccheWc1y.s:28338  .debug_str:000000000001c246 .LASF2801
C:\Users\SOLDER~1\AppData\Local\Temp\ccheWc1y.s:27266  .debug_str:0000000000017d9c .LASF2802
C:\Users\SOLDER~1\AppData\Local\Temp\ccheWc1y.s:26684  .debug_str:00000000000158bd .LASF2803
C:\Users\SOLDER~1\AppData\Local\Temp\ccheWc1y.s:23642  .debug_str:00000000000091a6 .LASF2804
C:\Users\SOLDER~1\AppData\Local\Temp\ccheWc1y.s:25014  .debug_str:000000000000ec04 .LASF2805
C:\Users\SOLDER~1\AppData\Local\Temp\ccheWc1y.s:23904  .debug_str:000000000000a2e8 .LASF2806
C:\Users\SOLDER~1\AppData\Local\Temp\ccheWc1y.s:23260  .debug_str:0000000000007894 .LASF2807
C:\Users\SOLDER~1\AppData\Local\Temp\ccheWc1y.s:21908  .debug_str:00000000000021b1 .LASF2808
C:\Users\SOLDER~1\AppData\Local\Temp\ccheWc1y.s:21620  .debug_str:0000000000000f18 .LASF2809
C:\Users\SOLDER~1\AppData\Local\Temp\ccheWc1y.s:23506  .debug_str:00000000000088aa .LASF2810
C:\Users\SOLDER~1\AppData\Local\Temp\ccheWc1y.s:31628  .debug_str:00000000000297d0 .LASF2811
C:\Users\SOLDER~1\AppData\Local\Temp\ccheWc1y.s:32446  .debug_str:000000000002cccf .LASF2812
C:\Users\SOLDER~1\AppData\Local\Temp\ccheWc1y.s:21872  .debug_str:0000000000001f5a .LASF2813
C:\Users\SOLDER~1\AppData\Local\Temp\ccheWc1y.s:28582  .debug_str:000000000001d248 .LASF2814
C:\Users\SOLDER~1\AppData\Local\Temp\ccheWc1y.s:29496  .debug_str:0000000000020d7e .LASF2815
C:\Users\SOLDER~1\AppData\Local\Temp\ccheWc1y.s:21806  .debug_str:0000000000001ae7 .LASF2816
C:\Users\SOLDER~1\AppData\Local\Temp\ccheWc1y.s:29154  .debug_str:000000000001f776 .LASF2817
C:\Users\SOLDER~1\AppData\Local\Temp\ccheWc1y.s:29094  .debug_str:000000000001f375 .LASF2818
C:\Users\SOLDER~1\AppData\Local\Temp\ccheWc1y.s:29428  .debug_str:00000000000208e9 .LASF2819
C:\Users\SOLDER~1\AppData\Local\Temp\ccheWc1y.s:23170  .debug_str:00000000000072e2 .LASF2820
C:\Users\SOLDER~1\AppData\Local\Temp\ccheWc1y.s:29822  .debug_str:000000000002220e .LASF2821
C:\Users\SOLDER~1\AppData\Local\Temp\ccheWc1y.s:23376  .debug_str:0000000000008021 .LASF2822
C:\Users\SOLDER~1\AppData\Local\Temp\ccheWc1y.s:22242  .debug_str:0000000000003718 .LASF2823
C:\Users\SOLDER~1\AppData\Local\Temp\ccheWc1y.s:27628  .debug_str:0000000000019587 .LASF2824
C:\Users\SOLDER~1\AppData\Local\Temp\ccheWc1y.s:30448  .debug_str:0000000000024a8d .LASF2825
C:\Users\SOLDER~1\AppData\Local\Temp\ccheWc1y.s:25828  .debug_str:0000000000012024 .LASF2826
C:\Users\SOLDER~1\AppData\Local\Temp\ccheWc1y.s:22542  .debug_str:0000000000004a35 .LASF2827
C:\Users\SOLDER~1\AppData\Local\Temp\ccheWc1y.s:30006  .debug_str:0000000000022da1 .LASF2828
C:\Users\SOLDER~1\AppData\Local\Temp\ccheWc1y.s:26742  .debug_str:0000000000015c3c .LASF2829
C:\Users\SOLDER~1\AppData\Local\Temp\ccheWc1y.s:31554  .debug_str:0000000000029324 .LASF2830
C:\Users\SOLDER~1\AppData\Local\Temp\ccheWc1y.s:28930  .debug_str:000000000001e8a8 .LASF2831
C:\Users\SOLDER~1\AppData\Local\Temp\ccheWc1y.s:33098  .debug_str:000000000002f668 .LASF2832
C:\Users\SOLDER~1\AppData\Local\Temp\ccheWc1y.s:27812  .debug_str:000000000001a109 .LASF2833
C:\Users\SOLDER~1\AppData\Local\Temp\ccheWc1y.s:25748  .debug_str:0000000000011b48 .LASF2834
C:\Users\SOLDER~1\AppData\Local\Temp\ccheWc1y.s:27024  .debug_str:0000000000016df1 .LASF2835
C:\Users\SOLDER~1\AppData\Local\Temp\ccheWc1y.s:22912  .debug_str:0000000000006178 .LASF2836
C:\Users\SOLDER~1\AppData\Local\Temp\ccheWc1y.s:28508  .debug_str:000000000001cd5d .LASF2837
C:\Users\SOLDER~1\AppData\Local\Temp\ccheWc1y.s:25686  .debug_str:000000000001171f .LASF2838
C:\Users\SOLDER~1\AppData\Local\Temp\ccheWc1y.s:22504  .debug_str:00000000000047c6 .LASF2839
C:\Users\SOLDER~1\AppData\Local\Temp\ccheWc1y.s:31764  .debug_str:000000000002a099 .LASF2840
C:\Users\SOLDER~1\AppData\Local\Temp\ccheWc1y.s:29124  .debug_str:000000000001f55f .LASF2841
C:\Users\SOLDER~1\AppData\Local\Temp\ccheWc1y.s:28540  .debug_str:000000000001cf6d .LASF2842
C:\Users\SOLDER~1\AppData\Local\Temp\ccheWc1y.s:29340  .debug_str:00000000000203a3 .LASF2843
C:\Users\SOLDER~1\AppData\Local\Temp\ccheWc1y.s:31144  .debug_str:0000000000027879 .LASF2844
C:\Users\SOLDER~1\AppData\Local\Temp\ccheWc1y.s:31478  .debug_str:0000000000028e65 .LASF2845
C:\Users\SOLDER~1\AppData\Local\Temp\ccheWc1y.s:24902  .debug_str:000000000000e466 .LASF2846
C:\Users\SOLDER~1\AppData\Local\Temp\ccheWc1y.s:28410  .debug_str:000000000001c716 .LASF2847
C:\Users\SOLDER~1\AppData\Local\Temp\ccheWc1y.s:33060  .debug_str:000000000002f417 .LASF2848
C:\Users\SOLDER~1\AppData\Local\Temp\ccheWc1y.s:28464  .debug_str:000000000001ca6b .LASF2849
C:\Users\SOLDER~1\AppData\Local\Temp\ccheWc1y.s:26344  .debug_str:0000000000014212 .LASF2850
C:\Users\SOLDER~1\AppData\Local\Temp\ccheWc1y.s:32614  .debug_str:000000000002d7fa .LASF2851
C:\Users\SOLDER~1\AppData\Local\Temp\ccheWc1y.s:24722  .debug_str:000000000000d913 .LASF2852
C:\Users\SOLDER~1\AppData\Local\Temp\ccheWc1y.s:24324  .debug_str:000000000000be35 .LASF2853
GAS LISTING C:\Users\SOLDER~1\AppData\Local\Temp\ccheWc1y.s 			page 116


C:\Users\SOLDER~1\AppData\Local\Temp\ccheWc1y.s:31904  .debug_str:000000000002aa08 .LASF2854
C:\Users\SOLDER~1\AppData\Local\Temp\ccheWc1y.s:28094  .debug_str:000000000001b33a .LASF2855
C:\Users\SOLDER~1\AppData\Local\Temp\ccheWc1y.s:32292  .debug_str:000000000002c295 .LASF2856
C:\Users\SOLDER~1\AppData\Local\Temp\ccheWc1y.s:24540  .debug_str:000000000000ccd8 .LASF2857
C:\Users\SOLDER~1\AppData\Local\Temp\ccheWc1y.s:29030  .debug_str:000000000001ef58 .LASF2858
C:\Users\SOLDER~1\AppData\Local\Temp\ccheWc1y.s:22742  .debug_str:0000000000005625 .LASF2859
C:\Users\SOLDER~1\AppData\Local\Temp\ccheWc1y.s:22268  .debug_str:00000000000038bc .LASF2860
C:\Users\SOLDER~1\AppData\Local\Temp\ccheWc1y.s:31126  .debug_str:000000000002774e .LASF2861
C:\Users\SOLDER~1\AppData\Local\Temp\ccheWc1y.s:23358  .debug_str:0000000000007ef8 .LASF2862
C:\Users\SOLDER~1\AppData\Local\Temp\ccheWc1y.s:29654  .debug_str:000000000002178f .LASF2863
C:\Users\SOLDER~1\AppData\Local\Temp\ccheWc1y.s:29156  .debug_str:000000000001f796 .LASF2864
C:\Users\SOLDER~1\AppData\Local\Temp\ccheWc1y.s:25932  .debug_str:00000000000126c2 .LASF2865
C:\Users\SOLDER~1\AppData\Local\Temp\ccheWc1y.s:24420  .debug_str:000000000000c479 .LASF2866
C:\Users\SOLDER~1\AppData\Local\Temp\ccheWc1y.s:25628  .debug_str:0000000000011385 .LASF2867
C:\Users\SOLDER~1\AppData\Local\Temp\ccheWc1y.s:26210  .debug_str:00000000000138b2 .LASF2868
C:\Users\SOLDER~1\AppData\Local\Temp\ccheWc1y.s:32966  .debug_str:000000000002ee0e .LASF2869
C:\Users\SOLDER~1\AppData\Local\Temp\ccheWc1y.s:26222  .debug_str:000000000001397a .LASF2870
C:\Users\SOLDER~1\AppData\Local\Temp\ccheWc1y.s:32428  .debug_str:000000000002cba6 .LASF2871
C:\Users\SOLDER~1\AppData\Local\Temp\ccheWc1y.s:32546  .debug_str:000000000002d322 .LASF2872
C:\Users\SOLDER~1\AppData\Local\Temp\ccheWc1y.s:28106  .debug_str:000000000001b403 .LASF2873
C:\Users\SOLDER~1\AppData\Local\Temp\ccheWc1y.s:32458  .debug_str:000000000002cda1 .LASF2874
C:\Users\SOLDER~1\AppData\Local\Temp\ccheWc1y.s:29632  .debug_str:00000000000215f3 .LASF2875
C:\Users\SOLDER~1\AppData\Local\Temp\ccheWc1y.s:25218  .debug_str:000000000000f8bf .LASF2876
C:\Users\SOLDER~1\AppData\Local\Temp\ccheWc1y.s:25322  .debug_str:000000000000ffdf .LASF2877
C:\Users\SOLDER~1\AppData\Local\Temp\ccheWc1y.s:25230  .debug_str:000000000000f98b .LASF2878
C:\Users\SOLDER~1\AppData\Local\Temp\ccheWc1y.s:27260  .debug_str:0000000000017d5a .LASF2879
C:\Users\SOLDER~1\AppData\Local\Temp\ccheWc1y.s:32926  .debug_str:000000000002eb7d .LASF2880
C:\Users\SOLDER~1\AppData\Local\Temp\ccheWc1y.s:24738  .debug_str:000000000000da1d .LASF2881
C:\Users\SOLDER~1\AppData\Local\Temp\ccheWc1y.s:33004  .debug_str:000000000002f0b9 .LASF2882
C:\Users\SOLDER~1\AppData\Local\Temp\ccheWc1y.s:32130  .debug_str:000000000002b87f .LASF2883
C:\Users\SOLDER~1\AppData\Local\Temp\ccheWc1y.s:23184  .debug_str:00000000000073c3 .LASF2884
C:\Users\SOLDER~1\AppData\Local\Temp\ccheWc1y.s:30308  .debug_str:0000000000024155 .LASF2885
C:\Users\SOLDER~1\AppData\Local\Temp\ccheWc1y.s:22854  .debug_str:0000000000005d8f .LASF2886
C:\Users\SOLDER~1\AppData\Local\Temp\ccheWc1y.s:23476  .debug_str:00000000000086b3 .LASF2887
C:\Users\SOLDER~1\AppData\Local\Temp\ccheWc1y.s:24200  .debug_str:000000000000b680 .LASF2888
C:\Users\SOLDER~1\AppData\Local\Temp\ccheWc1y.s:24252  .debug_str:000000000000b9f1 .LASF2889
C:\Users\SOLDER~1\AppData\Local\Temp\ccheWc1y.s:23172  .debug_str:0000000000007302 .LASF2890
C:\Users\SOLDER~1\AppData\Local\Temp\ccheWc1y.s:22194  .debug_str:0000000000003400 .LASF2891
C:\Users\SOLDER~1\AppData\Local\Temp\ccheWc1y.s:24930  .debug_str:000000000000e696 .LASF2892
C:\Users\SOLDER~1\AppData\Local\Temp\ccheWc1y.s:26992  .debug_str:0000000000016bec .LASF2893
C:\Users\SOLDER~1\AppData\Local\Temp\ccheWc1y.s:32766  .debug_str:000000000002e170 .LASF2894
C:\Users\SOLDER~1\AppData\Local\Temp\ccheWc1y.s:24102  .debug_str:000000000000b023 .LASF2895
C:\Users\SOLDER~1\AppData\Local\Temp\ccheWc1y.s:31822  .debug_str:000000000002a48e .LASF2896
C:\Users\SOLDER~1\AppData\Local\Temp\ccheWc1y.s:32846  .debug_str:000000000002e6b2 .LASF2897
C:\Users\SOLDER~1\AppData\Local\Temp\ccheWc1y.s:32622  .debug_str:000000000002d879 .LASF2898
C:\Users\SOLDER~1\AppData\Local\Temp\ccheWc1y.s:24392  .debug_str:000000000000c295 .LASF2899
C:\Users\SOLDER~1\AppData\Local\Temp\ccheWc1y.s:23670  .debug_str:00000000000093ba .LASF2900
C:\Users\SOLDER~1\AppData\Local\Temp\ccheWc1y.s:28720  .debug_str:000000000001db78 .LASF2901
C:\Users\SOLDER~1\AppData\Local\Temp\ccheWc1y.s:24620  .debug_str:000000000000d256 .LASF2902
C:\Users\SOLDER~1\AppData\Local\Temp\ccheWc1y.s:26490  .debug_str:0000000000014c1d .LASF2903
C:\Users\SOLDER~1\AppData\Local\Temp\ccheWc1y.s:31464  .debug_str:0000000000028d6c .LASF2904
C:\Users\SOLDER~1\AppData\Local\Temp\ccheWc1y.s:23862  .debug_str:000000000000a03f .LASF2905
C:\Users\SOLDER~1\AppData\Local\Temp\ccheWc1y.s:31570  .debug_str:0000000000029423 .LASF2906
C:\Users\SOLDER~1\AppData\Local\Temp\ccheWc1y.s:27536  .debug_str:0000000000018f35 .LASF2907
C:\Users\SOLDER~1\AppData\Local\Temp\ccheWc1y.s:24944  .debug_str:000000000000e791 .LASF2908
C:\Users\SOLDER~1\AppData\Local\Temp\ccheWc1y.s:29740  .debug_str:0000000000021cf7 .LASF2909
C:\Users\SOLDER~1\AppData\Local\Temp\ccheWc1y.s:30500  .debug_str:0000000000024df5 .LASF2910
GAS LISTING C:\Users\SOLDER~1\AppData\Local\Temp\ccheWc1y.s 			page 117


C:\Users\SOLDER~1\AppData\Local\Temp\ccheWc1y.s:25776  .debug_str:0000000000011ce1 .LASF2911
C:\Users\SOLDER~1\AppData\Local\Temp\ccheWc1y.s:24838  .debug_str:000000000000e023 .LASF2912
C:\Users\SOLDER~1\AppData\Local\Temp\ccheWc1y.s:25180  .debug_str:000000000000f641 .LASF2913
C:\Users\SOLDER~1\AppData\Local\Temp\ccheWc1y.s:22074  .debug_str:0000000000002c3f .LASF2914
C:\Users\SOLDER~1\AppData\Local\Temp\ccheWc1y.s:31416  .debug_str:0000000000028a50 .LASF2915
C:\Users\SOLDER~1\AppData\Local\Temp\ccheWc1y.s:21486  .debug_str:000000000000054e .LASF2916
C:\Users\SOLDER~1\AppData\Local\Temp\ccheWc1y.s:30222  .debug_str:0000000000023bef .LASF2917
C:\Users\SOLDER~1\AppData\Local\Temp\ccheWc1y.s:24952  .debug_str:000000000000e818 .LASF2918
C:\Users\SOLDER~1\AppData\Local\Temp\ccheWc1y.s:29150  .debug_str:000000000001f73c .LASF2919
C:\Users\SOLDER~1\AppData\Local\Temp\ccheWc1y.s:30466  .debug_str:0000000000024bb2 .LASF2920
C:\Users\SOLDER~1\AppData\Local\Temp\ccheWc1y.s:28836  .debug_str:000000000001e29f .LASF2921
C:\Users\SOLDER~1\AppData\Local\Temp\ccheWc1y.s:25442  .debug_str:000000000001078a .LASF2922
C:\Users\SOLDER~1\AppData\Local\Temp\ccheWc1y.s:30524  .debug_str:0000000000024f95 .LASF2923
C:\Users\SOLDER~1\AppData\Local\Temp\ccheWc1y.s:27600  .debug_str:00000000000193ab .LASF2924
C:\Users\SOLDER~1\AppData\Local\Temp\ccheWc1y.s:27154  .debug_str:000000000001762b .LASF2925
C:\Users\SOLDER~1\AppData\Local\Temp\ccheWc1y.s:26434  .debug_str:000000000001485f .LASF2926
C:\Users\SOLDER~1\AppData\Local\Temp\ccheWc1y.s:24732  .debug_str:000000000000d9bb .LASF2927
C:\Users\SOLDER~1\AppData\Local\Temp\ccheWc1y.s:25030  .debug_str:000000000000ed1d .LASF2928
C:\Users\SOLDER~1\AppData\Local\Temp\ccheWc1y.s:27384  .debug_str:000000000001859a .LASF2929
C:\Users\SOLDER~1\AppData\Local\Temp\ccheWc1y.s:28852  .debug_str:000000000001e3ba .LASF2930
C:\Users\SOLDER~1\AppData\Local\Temp\ccheWc1y.s:30576  .debug_str:000000000002530a .LASF2931
C:\Users\SOLDER~1\AppData\Local\Temp\ccheWc1y.s:31086  .debug_str:00000000000274b9 .LASF2932
C:\Users\SOLDER~1\AppData\Local\Temp\ccheWc1y.s:31476  .debug_str:0000000000028e3c .LASF2933
C:\Users\SOLDER~1\AppData\Local\Temp\ccheWc1y.s:28728  .debug_str:000000000001dbe0 .LASF2934
C:\Users\SOLDER~1\AppData\Local\Temp\ccheWc1y.s:27524  .debug_str:0000000000018e97 .LASF2935
C:\Users\SOLDER~1\AppData\Local\Temp\ccheWc1y.s:24596  .debug_str:000000000000d0bf .LASF2936
C:\Users\SOLDER~1\AppData\Local\Temp\ccheWc1y.s:21410  .debug_str:00000000000000a8 .LASF2937
C:\Users\SOLDER~1\AppData\Local\Temp\ccheWc1y.s:23344  .debug_str:0000000000007dda .LASF2938
C:\Users\SOLDER~1\AppData\Local\Temp\ccheWc1y.s:21676  .debug_str:0000000000001297 .LASF2939
C:\Users\SOLDER~1\AppData\Local\Temp\ccheWc1y.s:22572  .debug_str:0000000000004c04 .LASF2940
C:\Users\SOLDER~1\AppData\Local\Temp\ccheWc1y.s:23300  .debug_str:0000000000007b0b .LASF2941
C:\Users\SOLDER~1\AppData\Local\Temp\ccheWc1y.s:30398  .debug_str:0000000000024752 .LASF2942
C:\Users\SOLDER~1\AppData\Local\Temp\ccheWc1y.s:30286  .debug_str:0000000000023ff0 .LASF2943
C:\Users\SOLDER~1\AppData\Local\Temp\ccheWc1y.s:23500  .debug_str:000000000000882b .LASF2944
C:\Users\SOLDER~1\AppData\Local\Temp\ccheWc1y.s:26306  .debug_str:0000000000013f70 .LASF2945
C:\Users\SOLDER~1\AppData\Local\Temp\ccheWc1y.s:27884  .debug_str:000000000001a56c .LASF2946
C:\Users\SOLDER~1\AppData\Local\Temp\ccheWc1y.s:26956  .debug_str:0000000000016a03 .LASF2947
C:\Users\SOLDER~1\AppData\Local\Temp\ccheWc1y.s:27418  .debug_str:00000000000187cb .LASF2948
C:\Users\SOLDER~1\AppData\Local\Temp\ccheWc1y.s:27682  .debug_str:00000000000198e7 .LASF2949
C:\Users\SOLDER~1\AppData\Local\Temp\ccheWc1y.s:26090  .debug_str:00000000000130d1 .LASF2950
C:\Users\SOLDER~1\AppData\Local\Temp\ccheWc1y.s:27782  .debug_str:0000000000019f4b .LASF2951
C:\Users\SOLDER~1\AppData\Local\Temp\ccheWc1y.s:22162  .debug_str:00000000000031f3 .LASF2952
C:\Users\SOLDER~1\AppData\Local\Temp\ccheWc1y.s:21616  .debug_str:0000000000000ed9 .LASF2953
C:\Users\SOLDER~1\AppData\Local\Temp\ccheWc1y.s:27586  .debug_str:00000000000192a6 .LASF2954
C:\Users\SOLDER~1\AppData\Local\Temp\ccheWc1y.s:30862  .debug_str:00000000000265dd .LASF2955
C:\Users\SOLDER~1\AppData\Local\Temp\ccheWc1y.s:31598  .debug_str:00000000000295bf .LASF2956
C:\Users\SOLDER~1\AppData\Local\Temp\ccheWc1y.s:21978  .debug_str:0000000000002643 .LASF2957
C:\Users\SOLDER~1\AppData\Local\Temp\ccheWc1y.s:25168  .debug_str:000000000000f57e .LASF2958
C:\Users\SOLDER~1\AppData\Local\Temp\ccheWc1y.s:32588  .debug_str:000000000002d600 .LASF2959
C:\Users\SOLDER~1\AppData\Local\Temp\ccheWc1y.s:25722  .debug_str:0000000000011996 .LASF2960
C:\Users\SOLDER~1\AppData\Local\Temp\ccheWc1y.s:27104  .debug_str:00000000000172c3 .LASF2961
C:\Users\SOLDER~1\AppData\Local\Temp\ccheWc1y.s:23042  .debug_str:0000000000006a93 .LASF2962
C:\Users\SOLDER~1\AppData\Local\Temp\ccheWc1y.s:24842  .debug_str:000000000000e089 .LASF2963
C:\Users\SOLDER~1\AppData\Local\Temp\ccheWc1y.s:30594  .debug_str:0000000000025430 .LASF2964
C:\Users\SOLDER~1\AppData\Local\Temp\ccheWc1y.s:33030  .debug_str:000000000002f25c .LASF2965
C:\Users\SOLDER~1\AppData\Local\Temp\ccheWc1y.s:28074  .debug_str:000000000001b1ca .LASF2966
C:\Users\SOLDER~1\AppData\Local\Temp\ccheWc1y.s:21424  .debug_str:000000000000015b .LASF2967
GAS LISTING C:\Users\SOLDER~1\AppData\Local\Temp\ccheWc1y.s 			page 118


C:\Users\SOLDER~1\AppData\Local\Temp\ccheWc1y.s:30990  .debug_str:0000000000026e5a .LASF2968
C:\Users\SOLDER~1\AppData\Local\Temp\ccheWc1y.s:29876  .debug_str:0000000000022582 .LASF2969
C:\Users\SOLDER~1\AppData\Local\Temp\ccheWc1y.s:29162  .debug_str:000000000001f7fc .LASF2970
C:\Users\SOLDER~1\AppData\Local\Temp\ccheWc1y.s:25264  .debug_str:000000000000fbbb .LASF2971
C:\Users\SOLDER~1\AppData\Local\Temp\ccheWc1y.s:30148  .debug_str:00000000000236ee .LASF2972
C:\Users\SOLDER~1\AppData\Local\Temp\ccheWc1y.s:24074  .debug_str:000000000000ae72 .LASF2973
C:\Users\SOLDER~1\AppData\Local\Temp\ccheWc1y.s:21862  .debug_str:0000000000001eae .LASF2974
C:\Users\SOLDER~1\AppData\Local\Temp\ccheWc1y.s:26216  .debug_str:0000000000013917 .LASF2975
C:\Users\SOLDER~1\AppData\Local\Temp\ccheWc1y.s:23726  .debug_str:000000000000975a .LASF2976
C:\Users\SOLDER~1\AppData\Local\Temp\ccheWc1y.s:29932  .debug_str:00000000000228ad .LASF2977
C:\Users\SOLDER~1\AppData\Local\Temp\ccheWc1y.s:32592  .debug_str:000000000002d650 .LASF2978
C:\Users\SOLDER~1\AppData\Local\Temp\ccheWc1y.s:24454  .debug_str:000000000000c6ee .LASF2979
C:\Users\SOLDER~1\AppData\Local\Temp\ccheWc1y.s:30160  .debug_str:00000000000237aa .LASF2980
C:\Users\SOLDER~1\AppData\Local\Temp\ccheWc1y.s:24024  .debug_str:000000000000ab0e .LASF2981
C:\Users\SOLDER~1\AppData\Local\Temp\ccheWc1y.s:32574  .debug_str:000000000002d508 .LASF2982
C:\Users\SOLDER~1\AppData\Local\Temp\ccheWc1y.s:26900  .debug_str:000000000001665a .LASF2983
C:\Users\SOLDER~1\AppData\Local\Temp\ccheWc1y.s:31352  .debug_str:0000000000028619 .LASF2984
C:\Users\SOLDER~1\AppData\Local\Temp\ccheWc1y.s:27710  .debug_str:0000000000019ae7 .LASF2985
C:\Users\SOLDER~1\AppData\Local\Temp\ccheWc1y.s:22362  .debug_str:0000000000003ebb .LASF2986
C:\Users\SOLDER~1\AppData\Local\Temp\ccheWc1y.s:32482  .debug_str:000000000002cf1d .LASF2987
C:\Users\SOLDER~1\AppData\Local\Temp\ccheWc1y.s:21878  .debug_str:0000000000001fc9 .LASF2988
C:\Users\SOLDER~1\AppData\Local\Temp\ccheWc1y.s:25538  .debug_str:0000000000010dd6 .LASF2989
C:\Users\SOLDER~1\AppData\Local\Temp\ccheWc1y.s:22814  .debug_str:0000000000005b0c .LASF2990
C:\Users\SOLDER~1\AppData\Local\Temp\ccheWc1y.s:32996  .debug_str:000000000002f040 .LASF2991
C:\Users\SOLDER~1\AppData\Local\Temp\ccheWc1y.s:21906  .debug_str:0000000000002189 .LASF2992
C:\Users\SOLDER~1\AppData\Local\Temp\ccheWc1y.s:31116  .debug_str:000000000002769c .LASF2993
C:\Users\SOLDER~1\AppData\Local\Temp\ccheWc1y.s:23966  .debug_str:000000000000a715 .LASF2994
C:\Users\SOLDER~1\AppData\Local\Temp\ccheWc1y.s:22092  .debug_str:0000000000002d7d .LASF2995
C:\Users\SOLDER~1\AppData\Local\Temp\ccheWc1y.s:30934  .debug_str:0000000000026ad2 .LASF2996
C:\Users\SOLDER~1\AppData\Local\Temp\ccheWc1y.s:24832  .debug_str:000000000000dfb0 .LASF2997
C:\Users\SOLDER~1\AppData\Local\Temp\ccheWc1y.s:26378  .debug_str:000000000001447c .LASF2998
C:\Users\SOLDER~1\AppData\Local\Temp\ccheWc1y.s:30904  .debug_str:00000000000268a2 .LASF2999
C:\Users\SOLDER~1\AppData\Local\Temp\ccheWc1y.s:21900  .debug_str:0000000000002115 .LASF3000
C:\Users\SOLDER~1\AppData\Local\Temp\ccheWc1y.s:27980  .debug_str:000000000001ab7e .LASF3001
C:\Users\SOLDER~1\AppData\Local\Temp\ccheWc1y.s:26258  .debug_str:0000000000013bf1 .LASF3002
C:\Users\SOLDER~1\AppData\Local\Temp\ccheWc1y.s:29888  .debug_str:0000000000022634 .LASF3003
C:\Users\SOLDER~1\AppData\Local\Temp\ccheWc1y.s:28742  .debug_str:000000000001dcb0 .LASF3004
C:\Users\SOLDER~1\AppData\Local\Temp\ccheWc1y.s:30552  .debug_str:0000000000025175 .LASF3005
C:\Users\SOLDER~1\AppData\Local\Temp\ccheWc1y.s:24050  .debug_str:000000000000acee .LASF3006
C:\Users\SOLDER~1\AppData\Local\Temp\ccheWc1y.s:29940  .debug_str:0000000000022932 .LASF3007
C:\Users\SOLDER~1\AppData\Local\Temp\ccheWc1y.s:27640  .debug_str:000000000001964a .LASF3008
C:\Users\SOLDER~1\AppData\Local\Temp\ccheWc1y.s:32484  .debug_str:000000000002cf36 .LASF3009
C:\Users\SOLDER~1\AppData\Local\Temp\ccheWc1y.s:28016  .debug_str:000000000001ae03 .LASF3010
C:\Users\SOLDER~1\AppData\Local\Temp\ccheWc1y.s:32724  .debug_str:000000000002df08 .LASF3011
C:\Users\SOLDER~1\AppData\Local\Temp\ccheWc1y.s:29346  .debug_str:00000000000203ea .LASF3012
C:\Users\SOLDER~1\AppData\Local\Temp\ccheWc1y.s:23748  .debug_str:00000000000098a4 .LASF3013
C:\Users\SOLDER~1\AppData\Local\Temp\ccheWc1y.s:25468  .debug_str:000000000001095f .LASF3014
C:\Users\SOLDER~1\AppData\Local\Temp\ccheWc1y.s:26362  .debug_str:0000000000014366 .LASF3015
C:\Users\SOLDER~1\AppData\Local\Temp\ccheWc1y.s:27346  .debug_str:00000000000182e1 .LASF3016
C:\Users\SOLDER~1\AppData\Local\Temp\ccheWc1y.s:24398  .debug_str:000000000000c302 .LASF3017
C:\Users\SOLDER~1\AppData\Local\Temp\ccheWc1y.s:23780  .debug_str:0000000000009ad1 .LASF3018
C:\Users\SOLDER~1\AppData\Local\Temp\ccheWc1y.s:22464  .debug_str:0000000000004537 .LASF3019
C:\Users\SOLDER~1\AppData\Local\Temp\ccheWc1y.s:32942  .debug_str:000000000002ec85 .LASF3020
C:\Users\SOLDER~1\AppData\Local\Temp\ccheWc1y.s:32254  .debug_str:000000000002c02e .LASF3021
C:\Users\SOLDER~1\AppData\Local\Temp\ccheWc1y.s:28846  .debug_str:000000000001e353 .LASF3022
C:\Users\SOLDER~1\AppData\Local\Temp\ccheWc1y.s:30826  .debug_str:0000000000026349 .LASF3023
C:\Users\SOLDER~1\AppData\Local\Temp\ccheWc1y.s:28150  .debug_str:000000000001b68d .LASF3024
GAS LISTING C:\Users\SOLDER~1\AppData\Local\Temp\ccheWc1y.s 			page 119


C:\Users\SOLDER~1\AppData\Local\Temp\ccheWc1y.s:28500  .debug_str:000000000001ccf5 .LASF3025
C:\Users\SOLDER~1\AppData\Local\Temp\ccheWc1y.s:21994  .debug_str:000000000000273f .LASF3026
C:\Users\SOLDER~1\AppData\Local\Temp\ccheWc1y.s:26600  .debug_str:000000000001535b .LASF3027
C:\Users\SOLDER~1\AppData\Local\Temp\ccheWc1y.s:31202  .debug_str:0000000000027c57 .LASF3028
C:\Users\SOLDER~1\AppData\Local\Temp\ccheWc1y.s:24660  .debug_str:000000000000d507 .LASF3029
C:\Users\SOLDER~1\AppData\Local\Temp\ccheWc1y.s:26554  .debug_str:0000000000015040 .LASF3030
C:\Users\SOLDER~1\AppData\Local\Temp\ccheWc1y.s:32924  .debug_str:000000000002eb65 .LASF3031
C:\Users\SOLDER~1\AppData\Local\Temp\ccheWc1y.s:23668  .debug_str:0000000000009398 .LASF3032
C:\Users\SOLDER~1\AppData\Local\Temp\ccheWc1y.s:32504  .debug_str:000000000002d080 .LASF3033
C:\Users\SOLDER~1\AppData\Local\Temp\ccheWc1y.s:25990  .debug_str:0000000000012a5c .LASF3034
C:\Users\SOLDER~1\AppData\Local\Temp\ccheWc1y.s:31868  .debug_str:000000000002a7b8 .LASF3035
C:\Users\SOLDER~1\AppData\Local\Temp\ccheWc1y.s:23920  .debug_str:000000000000a40a .LASF3036
C:\Users\SOLDER~1\AppData\Local\Temp\ccheWc1y.s:30114  .debug_str:00000000000234d7 .LASF3037
C:\Users\SOLDER~1\AppData\Local\Temp\ccheWc1y.s:21808  .debug_str:0000000000001b12 .LASF3038
C:\Users\SOLDER~1\AppData\Local\Temp\ccheWc1y.s:21858  .debug_str:0000000000001e6b .LASF3039
C:\Users\SOLDER~1\AppData\Local\Temp\ccheWc1y.s:22032  .debug_str:00000000000029f3 .LASF3040
C:\Users\SOLDER~1\AppData\Local\Temp\ccheWc1y.s:26846  .debug_str:00000000000162c9 .LASF3041
C:\Users\SOLDER~1\AppData\Local\Temp\ccheWc1y.s:25544  .debug_str:0000000000010e51 .LASF3042
C:\Users\SOLDER~1\AppData\Local\Temp\ccheWc1y.s:25074  .debug_str:000000000000efae .LASF3043
C:\Users\SOLDER~1\AppData\Local\Temp\ccheWc1y.s:27666  .debug_str:00000000000197e0 .LASF3044
C:\Users\SOLDER~1\AppData\Local\Temp\ccheWc1y.s:23404  .debug_str:00000000000081f9 .LASF3045
C:\Users\SOLDER~1\AppData\Local\Temp\ccheWc1y.s:24734  .debug_str:000000000000d9d5 .LASF3046
C:\Users\SOLDER~1\AppData\Local\Temp\ccheWc1y.s:27408  .debug_str:0000000000018743 .LASF3047
C:\Users\SOLDER~1\AppData\Local\Temp\ccheWc1y.s:30090  .debug_str:0000000000023352 .LASF3048
C:\Users\SOLDER~1\AppData\Local\Temp\ccheWc1y.s:25918  .debug_str:00000000000125d4 .LASF3049
C:\Users\SOLDER~1\AppData\Local\Temp\ccheWc1y.s:29244  .debug_str:000000000001fd8f .LASF3050
C:\Users\SOLDER~1\AppData\Local\Temp\ccheWc1y.s:23524  .debug_str:00000000000089c9 .LASF3051
C:\Users\SOLDER~1\AppData\Local\Temp\ccheWc1y.s:24388  .debug_str:000000000000c24c .LASF3052
C:\Users\SOLDER~1\AppData\Local\Temp\ccheWc1y.s:21698  .debug_str:0000000000001400 .LASF3053
C:\Users\SOLDER~1\AppData\Local\Temp\ccheWc1y.s:32884  .debug_str:000000000002e8e8 .LASF3054
C:\Users\SOLDER~1\AppData\Local\Temp\ccheWc1y.s:31450  .debug_str:0000000000028c68 .LASF3055
C:\Users\SOLDER~1\AppData\Local\Temp\ccheWc1y.s:26728  .debug_str:0000000000015b87 .LASF3056
C:\Users\SOLDER~1\AppData\Local\Temp\ccheWc1y.s:29524  .debug_str:0000000000020f42 .LASF3057
C:\Users\SOLDER~1\AppData\Local\Temp\ccheWc1y.s:24406  .debug_str:000000000000c37a .LASF3058
C:\Users\SOLDER~1\AppData\Local\Temp\ccheWc1y.s:26618  .debug_str:0000000000015472 .LASF3059
C:\Users\SOLDER~1\AppData\Local\Temp\ccheWc1y.s:23544  .debug_str:0000000000008afe .LASF3060
C:\Users\SOLDER~1\AppData\Local\Temp\ccheWc1y.s:25714  .debug_str:00000000000118f3 .LASF3061
C:\Users\SOLDER~1\AppData\Local\Temp\ccheWc1y.s:27854  .debug_str:000000000001a376 .LASF3062
C:\Users\SOLDER~1\AppData\Local\Temp\ccheWc1y.s:21828  .debug_str:0000000000001c66 .LASF3063
C:\Users\SOLDER~1\AppData\Local\Temp\ccheWc1y.s:22350  .debug_str:0000000000003dfa .LASF3064
C:\Users\SOLDER~1\AppData\Local\Temp\ccheWc1y.s:31124  .debug_str:0000000000027735 .LASF3065
C:\Users\SOLDER~1\AppData\Local\Temp\ccheWc1y.s:27350  .debug_str:000000000001832f .LASF3066
C:\Users\SOLDER~1\AppData\Local\Temp\ccheWc1y.s:28234  .debug_str:000000000001bbde .LASF3067
C:\Users\SOLDER~1\AppData\Local\Temp\ccheWc1y.s:25566  .debug_str:0000000000010fb6 .LASF3068
C:\Users\SOLDER~1\AppData\Local\Temp\ccheWc1y.s:27460  .debug_str:0000000000018a69 .LASF3069
C:\Users\SOLDER~1\AppData\Local\Temp\ccheWc1y.s:32152  .debug_str:000000000002b9b6 .LASF3070
C:\Users\SOLDER~1\AppData\Local\Temp\ccheWc1y.s:28248  .debug_str:000000000001bcb0 .LASF3071
C:\Users\SOLDER~1\AppData\Local\Temp\ccheWc1y.s:23772  .debug_str:0000000000009a40 .LASF3072
C:\Users\SOLDER~1\AppData\Local\Temp\ccheWc1y.s:31970  .debug_str:000000000002ae26 .LASF3073
C:\Users\SOLDER~1\AppData\Local\Temp\ccheWc1y.s:31466  .debug_str:0000000000028d96 .LASF3074
C:\Users\SOLDER~1\AppData\Local\Temp\ccheWc1y.s:32494  .debug_str:000000000002cfe5 .LASF3075
C:\Users\SOLDER~1\AppData\Local\Temp\ccheWc1y.s:30408  .debug_str:00000000000247f8 .LASF3076
C:\Users\SOLDER~1\AppData\Local\Temp\ccheWc1y.s:32380  .debug_str:000000000002c8c4 .LASF3077
C:\Users\SOLDER~1\AppData\Local\Temp\ccheWc1y.s:23384  .debug_str:00000000000080a4 .LASF3078
C:\Users\SOLDER~1\AppData\Local\Temp\ccheWc1y.s:28736  .debug_str:000000000001dc64 .LASF3079
C:\Users\SOLDER~1\AppData\Local\Temp\ccheWc1y.s:31430  .debug_str:0000000000028b21 .LASF3080
C:\Users\SOLDER~1\AppData\Local\Temp\ccheWc1y.s:24298  .debug_str:000000000000bc83 .LASF3081
GAS LISTING C:\Users\SOLDER~1\AppData\Local\Temp\ccheWc1y.s 			page 120


C:\Users\SOLDER~1\AppData\Local\Temp\ccheWc1y.s:31710  .debug_str:0000000000029d4f .LASF3082
C:\Users\SOLDER~1\AppData\Local\Temp\ccheWc1y.s:22354  .debug_str:0000000000003e42 .LASF3083
C:\Users\SOLDER~1\AppData\Local\Temp\ccheWc1y.s:22934  .debug_str:0000000000006318 .LASF3084
C:\Users\SOLDER~1\AppData\Local\Temp\ccheWc1y.s:32138  .debug_str:000000000002b8f3 .LASF3085
C:\Users\SOLDER~1\AppData\Local\Temp\ccheWc1y.s:26682  .debug_str:0000000000015898 .LASF3086
C:\Users\SOLDER~1\AppData\Local\Temp\ccheWc1y.s:30196  .debug_str:0000000000023a37 .LASF3087
C:\Users\SOLDER~1\AppData\Local\Temp\ccheWc1y.s:26648  .debug_str:0000000000015649 .LASF3088
C:\Users\SOLDER~1\AppData\Local\Temp\ccheWc1y.s:28314  .debug_str:000000000001c0d6 .LASF3089
C:\Users\SOLDER~1\AppData\Local\Temp\ccheWc1y.s:27400  .debug_str:00000000000186b4 .LASF3090
C:\Users\SOLDER~1\AppData\Local\Temp\ccheWc1y.s:31632  .debug_str:0000000000029812 .LASF3091
C:\Users\SOLDER~1\AppData\Local\Temp\ccheWc1y.s:22776  .debug_str:0000000000005865 .LASF3092
C:\Users\SOLDER~1\AppData\Local\Temp\ccheWc1y.s:24538  .debug_str:000000000000ccc1 .LASF3093
C:\Users\SOLDER~1\AppData\Local\Temp\ccheWc1y.s:22976  .debug_str:00000000000065db .LASF3094
C:\Users\SOLDER~1\AppData\Local\Temp\ccheWc1y.s:26906  .debug_str:00000000000166bf .LASF3095
C:\Users\SOLDER~1\AppData\Local\Temp\ccheWc1y.s:29290  .debug_str:0000000000020084 .LASF3096
C:\Users\SOLDER~1\AppData\Local\Temp\ccheWc1y.s:32394  .debug_str:000000000002c997 .LASF3097
C:\Users\SOLDER~1\AppData\Local\Temp\ccheWc1y.s:25142  .debug_str:000000000000f3f5 .LASF3098
C:\Users\SOLDER~1\AppData\Local\Temp\ccheWc1y.s:26940  .debug_str:00000000000168e4 .LASF3099
C:\Users\SOLDER~1\AppData\Local\Temp\ccheWc1y.s:32238  .debug_str:000000000002bf25 .LASF3100
C:\Users\SOLDER~1\AppData\Local\Temp\ccheWc1y.s:25796  .debug_str:0000000000011e32 .LASF3101
C:\Users\SOLDER~1\AppData\Local\Temp\ccheWc1y.s:25098  .debug_str:000000000000f133 .LASF3102
C:\Users\SOLDER~1\AppData\Local\Temp\ccheWc1y.s:26706  .debug_str:0000000000015a3c .LASF3103
C:\Users\SOLDER~1\AppData\Local\Temp\ccheWc1y.s:24128  .debug_str:000000000000b1e3 .LASF3104
C:\Users\SOLDER~1\AppData\Local\Temp\ccheWc1y.s:24982  .debug_str:000000000000e9f1 .LASF3105
C:\Users\SOLDER~1\AppData\Local\Temp\ccheWc1y.s:31942  .debug_str:000000000002ac8f .LASF3106
C:\Users\SOLDER~1\AppData\Local\Temp\ccheWc1y.s:23286  .debug_str:0000000000007a09 .LASF3107
C:\Users\SOLDER~1\AppData\Local\Temp\ccheWc1y.s:29758  .debug_str:0000000000021e12 .LASF3108
C:\Users\SOLDER~1\AppData\Local\Temp\ccheWc1y.s:21640  .debug_str:0000000000001054 .LASF3109
C:\Users\SOLDER~1\AppData\Local\Temp\ccheWc1y.s:26764  .debug_str:0000000000015d93 .LASF3110
C:\Users\SOLDER~1\AppData\Local\Temp\ccheWc1y.s:22374  .debug_str:0000000000003f90 .LASF3111
C:\Users\SOLDER~1\AppData\Local\Temp\ccheWc1y.s:30620  .debug_str:00000000000255da .LASF3112
C:\Users\SOLDER~1\AppData\Local\Temp\ccheWc1y.s:30290  .debug_str:000000000002402f .LASF3113
C:\Users\SOLDER~1\AppData\Local\Temp\ccheWc1y.s:28636  .debug_str:000000000001d5c7 .LASF3114
C:\Users\SOLDER~1\AppData\Local\Temp\ccheWc1y.s:28572  .debug_str:000000000001d1ad .LASF3115
C:\Users\SOLDER~1\AppData\Local\Temp\ccheWc1y.s:30202  .debug_str:0000000000023aa1 .LASF3116
C:\Users\SOLDER~1\AppData\Local\Temp\ccheWc1y.s:25392  .debug_str:00000000000104a3 .LASF3117
C:\Users\SOLDER~1\AppData\Local\Temp\ccheWc1y.s:28858  .debug_str:000000000001e42a .LASF3118
C:\Users\SOLDER~1\AppData\Local\Temp\ccheWc1y.s:28052  .debug_str:000000000001b02a .LASF3119
C:\Users\SOLDER~1\AppData\Local\Temp\ccheWc1y.s:26652  .debug_str:000000000001568c .LASF3120
C:\Users\SOLDER~1\AppData\Local\Temp\ccheWc1y.s:26328  .debug_str:000000000001411a .LASF3121
C:\Users\SOLDER~1\AppData\Local\Temp\ccheWc1y.s:31884  .debug_str:000000000002a8c4 .LASF3122
C:\Users\SOLDER~1\AppData\Local\Temp\ccheWc1y.s:23062  .debug_str:0000000000006bd9 .LASF3123
C:\Users\SOLDER~1\AppData\Local\Temp\ccheWc1y.s:23872  .debug_str:000000000000a0dd .LASF3124
C:\Users\SOLDER~1\AppData\Local\Temp\ccheWc1y.s:22960  .debug_str:00000000000064df .LASF3125
C:\Users\SOLDER~1\AppData\Local\Temp\ccheWc1y.s:25946  .debug_str:00000000000127a6 .LASF3126
C:\Users\SOLDER~1\AppData\Local\Temp\ccheWc1y.s:22142  .debug_str:00000000000030a5 .LASF3127
C:\Users\SOLDER~1\AppData\Local\Temp\ccheWc1y.s:31406  .debug_str:00000000000289ab .LASF3128
C:\Users\SOLDER~1\AppData\Local\Temp\ccheWc1y.s:31234  .debug_str:0000000000027e72 .LASF3129
C:\Users\SOLDER~1\AppData\Local\Temp\ccheWc1y.s:28952  .debug_str:000000000001e9f3 .LASF3130
C:\Users\SOLDER~1\AppData\Local\Temp\ccheWc1y.s:31706  .debug_str:0000000000029d0c .LASF3131
C:\Users\SOLDER~1\AppData\Local\Temp\ccheWc1y.s:26416  .debug_str:0000000000014719 .LASF3132
C:\Users\SOLDER~1\AppData\Local\Temp\ccheWc1y.s:23714  .debug_str:00000000000096b3 .LASF3133
C:\Users\SOLDER~1\AppData\Local\Temp\ccheWc1y.s:21890  .debug_str:0000000000002071 .LASF3134
C:\Users\SOLDER~1\AppData\Local\Temp\ccheWc1y.s:25160  .debug_str:000000000000f50b .LASF3135
C:\Users\SOLDER~1\AppData\Local\Temp\ccheWc1y.s:27226  .debug_str:0000000000017b2f .LASF3136
C:\Users\SOLDER~1\AppData\Local\Temp\ccheWc1y.s:23484  .debug_str:0000000000008736 .LASF3137
C:\Users\SOLDER~1\AppData\Local\Temp\ccheWc1y.s:29366  .debug_str:0000000000020502 .LASF3138
GAS LISTING C:\Users\SOLDER~1\AppData\Local\Temp\ccheWc1y.s 			page 121


C:\Users\SOLDER~1\AppData\Local\Temp\ccheWc1y.s:21444  .debug_str:00000000000002ae .LASF3139
C:\Users\SOLDER~1\AppData\Local\Temp\ccheWc1y.s:21522  .debug_str:0000000000000833 .LASF3140
C:\Users\SOLDER~1\AppData\Local\Temp\ccheWc1y.s:31984  .debug_str:000000000002aedf .LASF3141
C:\Users\SOLDER~1\AppData\Local\Temp\ccheWc1y.s:23182  .debug_str:000000000000739d .LASF3142
C:\Users\SOLDER~1\AppData\Local\Temp\ccheWc1y.s:22750  .debug_str:00000000000056b3 .LASF3143
C:\Users\SOLDER~1\AppData\Local\Temp\ccheWc1y.s:27330  .debug_str:00000000000181ce .LASF3144
C:\Users\SOLDER~1\AppData\Local\Temp\ccheWc1y.s:32070  .debug_str:000000000002b454 .LASF3145
C:\Users\SOLDER~1\AppData\Local\Temp\ccheWc1y.s:23760  .debug_str:000000000000997a .LASF3146
C:\Users\SOLDER~1\AppData\Local\Temp\ccheWc1y.s:29684  .debug_str:0000000000021986 .LASF3147
C:\Users\SOLDER~1\AppData\Local\Temp\ccheWc1y.s:22826  .debug_str:0000000000005bf1 .LASF3148
C:\Users\SOLDER~1\AppData\Local\Temp\ccheWc1y.s:27362  .debug_str:000000000001840c .LASF3149
C:\Users\SOLDER~1\AppData\Local\Temp\ccheWc1y.s:31518  .debug_str:00000000000290fa .LASF3150
C:\Users\SOLDER~1\AppData\Local\Temp\ccheWc1y.s:29664  .debug_str:0000000000021853 .LASF3151
C:\Users\SOLDER~1\AppData\Local\Temp\ccheWc1y.s:30850  .debug_str:00000000000264ec .LASF3152
C:\Users\SOLDER~1\AppData\Local\Temp\ccheWc1y.s:27776  .debug_str:0000000000019eec .LASF3153
C:\Users\SOLDER~1\AppData\Local\Temp\ccheWc1y.s:21980  .debug_str:000000000000265e .LASF3154
C:\Users\SOLDER~1\AppData\Local\Temp\ccheWc1y.s:25844  .debug_str:0000000000012143 .LASF3155
C:\Users\SOLDER~1\AppData\Local\Temp\ccheWc1y.s:31190  .debug_str:0000000000027b97 .LASF3156
C:\Users\SOLDER~1\AppData\Local\Temp\ccheWc1y.s:23886  .debug_str:000000000000a1cc .LASF3157
C:\Users\SOLDER~1\AppData\Local\Temp\ccheWc1y.s:29828  .debug_str:000000000002225e .LASF3158
C:\Users\SOLDER~1\AppData\Local\Temp\ccheWc1y.s:22066  .debug_str:0000000000002be9 .LASF3159
C:\Users\SOLDER~1\AppData\Local\Temp\ccheWc1y.s:30134  .debug_str:0000000000023618 .LASF3160
C:\Users\SOLDER~1\AppData\Local\Temp\ccheWc1y.s:31832  .debug_str:000000000002a532 .LASF3161
C:\Users\SOLDER~1\AppData\Local\Temp\ccheWc1y.s:32516  .debug_str:000000000002d148 .LASF3162
C:\Users\SOLDER~1\AppData\Local\Temp\ccheWc1y.s:32142  .debug_str:000000000002b922 .LASF3163
C:\Users\SOLDER~1\AppData\Local\Temp\ccheWc1y.s:29502  .debug_str:0000000000020dd6 .LASF3164
C:\Users\SOLDER~1\AppData\Local\Temp\ccheWc1y.s:24990  .debug_str:000000000000ea65 .LASF3165
C:\Users\SOLDER~1\AppData\Local\Temp\ccheWc1y.s:30100  .debug_str:00000000000233f1 .LASF3166
C:\Users\SOLDER~1\AppData\Local\Temp\ccheWc1y.s:25850  .debug_str:00000000000121b6 .LASF3167
C:\Users\SOLDER~1\AppData\Local\Temp\ccheWc1y.s:32662  .debug_str:000000000002db11 .LASF3168
C:\Users\SOLDER~1\AppData\Local\Temp\ccheWc1y.s:24168  .debug_str:000000000000b46f .LASF3169
C:\Users\SOLDER~1\AppData\Local\Temp\ccheWc1y.s:30830  .debug_str:0000000000026382 .LASF3170
C:\Users\SOLDER~1\AppData\Local\Temp\ccheWc1y.s:22400  .debug_str:0000000000004121 .LASF3171
C:\Users\SOLDER~1\AppData\Local\Temp\ccheWc1y.s:30828  .debug_str:0000000000026361 .LASF3172
C:\Users\SOLDER~1\AppData\Local\Temp\ccheWc1y.s:22478  .debug_str:0000000000004612 .LASF3173
C:\Users\SOLDER~1\AppData\Local\Temp\ccheWc1y.s:26852  .debug_str:000000000001632f .LASF3174
C:\Users\SOLDER~1\AppData\Local\Temp\ccheWc1y.s:27852  .debug_str:000000000001a363 .LASF3175
C:\Users\SOLDER~1\AppData\Local\Temp\ccheWc1y.s:28658  .debug_str:000000000001d780 .LASF3176
C:\Users\SOLDER~1\AppData\Local\Temp\ccheWc1y.s:25914  .debug_str:000000000001259f .LASF3177
C:\Users\SOLDER~1\AppData\Local\Temp\ccheWc1y.s:28152  .debug_str:000000000001b6af .LASF3178
C:\Users\SOLDER~1\AppData\Local\Temp\ccheWc1y.s:23952  .debug_str:000000000000a627 .LASF3179
C:\Users\SOLDER~1\AppData\Local\Temp\ccheWc1y.s:30624  .debug_str:0000000000025623 .LASF3180
C:\Users\SOLDER~1\AppData\Local\Temp\ccheWc1y.s:24326  .debug_str:000000000000be4d .LASF3181
C:\Users\SOLDER~1\AppData\Local\Temp\ccheWc1y.s:29046  .debug_str:000000000001f062 .LASF3182
C:\Users\SOLDER~1\AppData\Local\Temp\ccheWc1y.s:31900  .debug_str:000000000002a9d1 .LASF3183
C:\Users\SOLDER~1\AppData\Local\Temp\ccheWc1y.s:31498  .debug_str:0000000000028fac .LASF3184
C:\Users\SOLDER~1\AppData\Local\Temp\ccheWc1y.s:29966  .debug_str:0000000000022b00 .LASF3185
C:\Users\SOLDER~1\AppData\Local\Temp\ccheWc1y.s:29636  .debug_str:000000000002163d .LASF3186
C:\Users\SOLDER~1\AppData\Local\Temp\ccheWc1y.s:28078  .debug_str:000000000001b23c .LASF3187
C:\Users\SOLDER~1\AppData\Local\Temp\ccheWc1y.s:24606  .debug_str:000000000000d167 .LASF3188
C:\Users\SOLDER~1\AppData\Local\Temp\ccheWc1y.s:26516  .debug_str:0000000000014dbd .LASF3189
C:\Users\SOLDER~1\AppData\Local\Temp\ccheWc1y.s:21666  .debug_str:00000000000011fc .LASF3190
C:\Users\SOLDER~1\AppData\Local\Temp\ccheWc1y.s:23962  .debug_str:000000000000a6cd .LASF3191
C:\Users\SOLDER~1\AppData\Local\Temp\ccheWc1y.s:31558  .debug_str:000000000002936c .LASF3192
C:\Users\SOLDER~1\AppData\Local\Temp\ccheWc1y.s:22286  .debug_str:00000000000039f3 .LASF3193
C:\Users\SOLDER~1\AppData\Local\Temp\ccheWc1y.s:26856  .debug_str:0000000000016373 .LASF3194
C:\Users\SOLDER~1\AppData\Local\Temp\ccheWc1y.s:31972  .debug_str:000000000002ae41 .LASF3195
GAS LISTING C:\Users\SOLDER~1\AppData\Local\Temp\ccheWc1y.s 			page 122


C:\Users\SOLDER~1\AppData\Local\Temp\ccheWc1y.s:23924  .debug_str:000000000000a452 .LASF3196
C:\Users\SOLDER~1\AppData\Local\Temp\ccheWc1y.s:30280  .debug_str:0000000000023fbb .LASF3197
C:\Users\SOLDER~1\AppData\Local\Temp\ccheWc1y.s:28498  .debug_str:000000000001ccd3 .LASF3198
C:\Users\SOLDER~1\AppData\Local\Temp\ccheWc1y.s:29850  .debug_str:00000000000223d6 .LASF3199
C:\Users\SOLDER~1\AppData\Local\Temp\ccheWc1y.s:27582  .debug_str:0000000000019253 .LASF3200
C:\Users\SOLDER~1\AppData\Local\Temp\ccheWc1y.s:26936  .debug_str:00000000000168b0 .LASF3201
C:\Users\SOLDER~1\AppData\Local\Temp\ccheWc1y.s:23650  .debug_str:000000000000923b .LASF3202
C:\Users\SOLDER~1\AppData\Local\Temp\ccheWc1y.s:30338  .debug_str:0000000000024358 .LASF3203
C:\Users\SOLDER~1\AppData\Local\Temp\ccheWc1y.s:25024  .debug_str:000000000000ecbd .LASF3204
C:\Users\SOLDER~1\AppData\Local\Temp\ccheWc1y.s:23490  .debug_str:000000000000878c .LASF3205
C:\Users\SOLDER~1\AppData\Local\Temp\ccheWc1y.s:22994  .debug_str:0000000000006715 .LASF3206
C:\Users\SOLDER~1\AppData\Local\Temp\ccheWc1y.s:30866  .debug_str:000000000002661d .LASF3207
C:\Users\SOLDER~1\AppData\Local\Temp\ccheWc1y.s:23842  .debug_str:0000000000009eb2 .LASF3208
C:\Users\SOLDER~1\AppData\Local\Temp\ccheWc1y.s:25952  .debug_str:0000000000012804 .LASF3209
C:\Users\SOLDER~1\AppData\Local\Temp\ccheWc1y.s:25948  .debug_str:00000000000127cb .LASF3210
C:\Users\SOLDER~1\AppData\Local\Temp\ccheWc1y.s:27014  .debug_str:0000000000016d57 .LASF3211
C:\Users\SOLDER~1\AppData\Local\Temp\ccheWc1y.s:31374  .debug_str:00000000000287ac .LASF3212
C:\Users\SOLDER~1\AppData\Local\Temp\ccheWc1y.s:31004  .debug_str:0000000000026f3d .LASF3213
C:\Users\SOLDER~1\AppData\Local\Temp\ccheWc1y.s:28688  .debug_str:000000000001d989 .LASF3214
C:\Users\SOLDER~1\AppData\Local\Temp\ccheWc1y.s:22862  .debug_str:0000000000005e3e .LASF3215
C:\Users\SOLDER~1\AppData\Local\Temp\ccheWc1y.s:30446  .debug_str:0000000000024a6c .LASF3216
C:\Users\SOLDER~1\AppData\Local\Temp\ccheWc1y.s:31702  .debug_str:0000000000029ccf .LASF3217
C:\Users\SOLDER~1\AppData\Local\Temp\ccheWc1y.s:25176  .debug_str:000000000000f608 .LASF3218
C:\Users\SOLDER~1\AppData\Local\Temp\ccheWc1y.s:28834  .debug_str:000000000001e27e .LASF3219
C:\Users\SOLDER~1\AppData\Local\Temp\ccheWc1y.s:26988  .debug_str:0000000000016bbd .LASF3220
C:\Users\SOLDER~1\AppData\Local\Temp\ccheWc1y.s:28842  .debug_str:000000000001e30b .LASF3221
C:\Users\SOLDER~1\AppData\Local\Temp\ccheWc1y.s:24082  .debug_str:000000000000aed1 .LASF3222
C:\Users\SOLDER~1\AppData\Local\Temp\ccheWc1y.s:23536  .debug_str:0000000000008a69 .LASF3223
C:\Users\SOLDER~1\AppData\Local\Temp\ccheWc1y.s:32528  .debug_str:000000000002d206 .LASF3224
C:\Users\SOLDER~1\AppData\Local\Temp\ccheWc1y.s:23218  .debug_str:00000000000075ff .LASF3225
C:\Users\SOLDER~1\AppData\Local\Temp\ccheWc1y.s:31592  .debug_str:0000000000029566 .LASF3226
C:\Users\SOLDER~1\AppData\Local\Temp\ccheWc1y.s:29600  .debug_str:00000000000213f4 .LASF3227
C:\Users\SOLDER~1\AppData\Local\Temp\ccheWc1y.s:27030  .debug_str:0000000000016e5c .LASF3228
C:\Users\SOLDER~1\AppData\Local\Temp\ccheWc1y.s:24290  .debug_str:000000000000bc04 .LASF3229
C:\Users\SOLDER~1\AppData\Local\Temp\ccheWc1y.s:21606  .debug_str:0000000000000e50 .LASF3230
C:\Users\SOLDER~1\AppData\Local\Temp\ccheWc1y.s:30722  .debug_str:0000000000025c44 .LASF3231
C:\Users\SOLDER~1\AppData\Local\Temp\ccheWc1y.s:31862  .debug_str:000000000002a750 .LASF3232
C:\Users\SOLDER~1\AppData\Local\Temp\ccheWc1y.s:21854  .debug_str:0000000000001e31 .LASF3233
C:\Users\SOLDER~1\AppData\Local\Temp\ccheWc1y.s:26010  .debug_str:0000000000012bb8 .LASF3234
C:\Users\SOLDER~1\AppData\Local\Temp\ccheWc1y.s:32788  .debug_str:000000000002e2dd .LASF3235
C:\Users\SOLDER~1\AppData\Local\Temp\ccheWc1y.s:30560  .debug_str:0000000000025203 .LASF3236
C:\Users\SOLDER~1\AppData\Local\Temp\ccheWc1y.s:25120  .debug_str:000000000000f286 .LASF3237
C:\Users\SOLDER~1\AppData\Local\Temp\ccheWc1y.s:28804  .debug_str:000000000001e07a .LASF3238
C:\Users\SOLDER~1\AppData\Local\Temp\ccheWc1y.s:32426  .debug_str:000000000002cb85 .LASF3239
C:\Users\SOLDER~1\AppData\Local\Temp\ccheWc1y.s:24436  .debug_str:000000000000c59c .LASF3240
C:\Users\SOLDER~1\AppData\Local\Temp\ccheWc1y.s:30606  .debug_str:0000000000025507 .LASF3241
C:\Users\SOLDER~1\AppData\Local\Temp\ccheWc1y.s:32322  .debug_str:000000000002c494 .LASF3242
C:\Users\SOLDER~1\AppData\Local\Temp\ccheWc1y.s:26204  .debug_str:0000000000013855 .LASF3243
C:\Users\SOLDER~1\AppData\Local\Temp\ccheWc1y.s:25372  .debug_str:0000000000010359 .LASF3244
C:\Users\SOLDER~1\AppData\Local\Temp\ccheWc1y.s:31318  .debug_str:00000000000283f8 .LASF3245
C:\Users\SOLDER~1\AppData\Local\Temp\ccheWc1y.s:28976  .debug_str:000000000001ebbc .LASF3246
C:\Users\SOLDER~1\AppData\Local\Temp\ccheWc1y.s:31486  .debug_str:0000000000028f03 .LASF3247
C:\Users\SOLDER~1\AppData\Local\Temp\ccheWc1y.s:25220  .debug_str:000000000000f8e9 .LASF3248
C:\Users\SOLDER~1\AppData\Local\Temp\ccheWc1y.s:32222  .debug_str:000000000002be39 .LASF3249
C:\Users\SOLDER~1\AppData\Local\Temp\ccheWc1y.s:26630  .debug_str:0000000000015511 .LASF3250
C:\Users\SOLDER~1\AppData\Local\Temp\ccheWc1y.s:26716  .debug_str:0000000000015ac8 .LASF3251
C:\Users\SOLDER~1\AppData\Local\Temp\ccheWc1y.s:31936  .debug_str:000000000002ac16 .LASF3252
GAS LISTING C:\Users\SOLDER~1\AppData\Local\Temp\ccheWc1y.s 			page 123


C:\Users\SOLDER~1\AppData\Local\Temp\ccheWc1y.s:30910  .debug_str:000000000002690e .LASF3253
C:\Users\SOLDER~1\AppData\Local\Temp\ccheWc1y.s:31658  .debug_str:00000000000299c3 .LASF3254
C:\Users\SOLDER~1\AppData\Local\Temp\ccheWc1y.s:28480  .debug_str:000000000001cb91 .LASF3255
C:\Users\SOLDER~1\AppData\Local\Temp\ccheWc1y.s:25732  .debug_str:0000000000011a23 .LASF3256
C:\Users\SOLDER~1\AppData\Local\Temp\ccheWc1y.s:23348  .debug_str:0000000000007e28 .LASF3257
C:\Users\SOLDER~1\AppData\Local\Temp\ccheWc1y.s:24340  .debug_str:000000000000bf66 .LASF3258
C:\Users\SOLDER~1\AppData\Local\Temp\ccheWc1y.s:28308  .debug_str:000000000001c071 .LASF3259
C:\Users\SOLDER~1\AppData\Local\Temp\ccheWc1y.s:25534  .debug_str:0000000000010d81 .LASF3260
C:\Users\SOLDER~1\AppData\Local\Temp\ccheWc1y.s:28202  .debug_str:000000000001b9dd .LASF3261
C:\Users\SOLDER~1\AppData\Local\Temp\ccheWc1y.s:29866  .debug_str:00000000000224d9 .LASF3262
C:\Users\SOLDER~1\AppData\Local\Temp\ccheWc1y.s:30430  .debug_str:000000000002495d .LASF3263
C:\Users\SOLDER~1\AppData\Local\Temp\ccheWc1y.s:23494  .debug_str:00000000000087bf .LASF3264
C:\Users\SOLDER~1\AppData\Local\Temp\ccheWc1y.s:31380  .debug_str:0000000000028807 .LASF3265
C:\Users\SOLDER~1\AppData\Local\Temp\ccheWc1y.s:27766  .debug_str:0000000000019e3c .LASF3266
C:\Users\SOLDER~1\AppData\Local\Temp\ccheWc1y.s:24500  .debug_str:000000000000ca28 .LASF3267
C:\Users\SOLDER~1\AppData\Local\Temp\ccheWc1y.s:23704  .debug_str:00000000000095df .LASF3268
C:\Users\SOLDER~1\AppData\Local\Temp\ccheWc1y.s:23412  .debug_str:0000000000008293 .LASF3269
C:\Users\SOLDER~1\AppData\Local\Temp\ccheWc1y.s:25282  .debug_str:000000000000fd1d .LASF3270
C:\Users\SOLDER~1\AppData\Local\Temp\ccheWc1y.s:27510  .debug_str:0000000000018d95 .LASF3271
C:\Users\SOLDER~1\AppData\Local\Temp\ccheWc1y.s:26522  .debug_str:0000000000014e0a .LASF3272
C:\Users\SOLDER~1\AppData\Local\Temp\ccheWc1y.s:28808  .debug_str:000000000001e0be .LASF3273
C:\Users\SOLDER~1\AppData\Local\Temp\ccheWc1y.s:21950  .debug_str:000000000000248b .LASF3274
C:\Users\SOLDER~1\AppData\Local\Temp\ccheWc1y.s:22122  .debug_str:0000000000002f69 .LASF3275
C:\Users\SOLDER~1\AppData\Local\Temp\ccheWc1y.s:26698  .debug_str:000000000001599d .LASF3276
C:\Users\SOLDER~1\AppData\Local\Temp\ccheWc1y.s:29136  .debug_str:000000000001f63c .LASF3277
C:\Users\SOLDER~1\AppData\Local\Temp\ccheWc1y.s:30048  .debug_str:0000000000023083 .LASF3278
C:\Users\SOLDER~1\AppData\Local\Temp\ccheWc1y.s:32984  .debug_str:000000000002ef65 .LASF3279
C:\Users\SOLDER~1\AppData\Local\Temp\ccheWc1y.s:31842  .debug_str:000000000002a5e2 .LASF3280
C:\Users\SOLDER~1\AppData\Local\Temp\ccheWc1y.s:32120  .debug_str:000000000002b7e5 .LASF3281
C:\Users\SOLDER~1\AppData\Local\Temp\ccheWc1y.s:23576  .debug_str:0000000000008d36 .LASF3282
C:\Users\SOLDER~1\AppData\Local\Temp\ccheWc1y.s:27348  .debug_str:0000000000018303 .LASF3283
C:\Users\SOLDER~1\AppData\Local\Temp\ccheWc1y.s:32636  .debug_str:000000000002d94d .LASF3284
C:\Users\SOLDER~1\AppData\Local\Temp\ccheWc1y.s:30528  .debug_str:0000000000024fc8 .LASF3285
C:\Users\SOLDER~1\AppData\Local\Temp\ccheWc1y.s:25022  .debug_str:000000000000ec8a .LASF3286
C:\Users\SOLDER~1\AppData\Local\Temp\ccheWc1y.s:26566  .debug_str:000000000001511b .LASF3287
C:\Users\SOLDER~1\AppData\Local\Temp\ccheWc1y.s:24460  .debug_str:000000000000c757 .LASF3288
C:\Users\SOLDER~1\AppData\Local\Temp\ccheWc1y.s:25750  .debug_str:0000000000011b6f .LASF3289
C:\Users\SOLDER~1\AppData\Local\Temp\ccheWc1y.s:26366  .debug_str:000000000001439d .LASF3290
C:\Users\SOLDER~1\AppData\Local\Temp\ccheWc1y.s:25746  .debug_str:0000000000011b24 .LASF3291
C:\Users\SOLDER~1\AppData\Local\Temp\ccheWc1y.s:29006  .debug_str:000000000001edb4 .LASF3292
C:\Users\SOLDER~1\AppData\Local\Temp\ccheWc1y.s:26132  .debug_str:0000000000013383 .LASF3293
C:\Users\SOLDER~1\AppData\Local\Temp\ccheWc1y.s:31300  .debug_str:00000000000282ad .LASF3294
C:\Users\SOLDER~1\AppData\Local\Temp\ccheWc1y.s:28680  .debug_str:000000000001d8fb .LASF3295
C:\Users\SOLDER~1\AppData\Local\Temp\ccheWc1y.s:29834  .debug_str:00000000000222d3 .LASF3296
C:\Users\SOLDER~1\AppData\Local\Temp\ccheWc1y.s:27332  .debug_str:00000000000181ee .LASF3297
C:\Users\SOLDER~1\AppData\Local\Temp\ccheWc1y.s:22780  .debug_str:00000000000058b1 .LASF3298
C:\Users\SOLDER~1\AppData\Local\Temp\ccheWc1y.s:25300  .debug_str:000000000000fe56 .LASF3299
C:\Users\SOLDER~1\AppData\Local\Temp\ccheWc1y.s:26896  .debug_str:000000000001660e .LASF3300
C:\Users\SOLDER~1\AppData\Local\Temp\ccheWc1y.s:28782  .debug_str:000000000001df18 .LASF3301
C:\Users\SOLDER~1\AppData\Local\Temp\ccheWc1y.s:28346  .debug_str:000000000001c2d1 .LASF3302
C:\Users\SOLDER~1\AppData\Local\Temp\ccheWc1y.s:24644  .debug_str:000000000000d3cd .LASF3303
C:\Users\SOLDER~1\AppData\Local\Temp\ccheWc1y.s:22174  .debug_str:00000000000032a7 .LASF3304
C:\Users\SOLDER~1\AppData\Local\Temp\ccheWc1y.s:28336  .debug_str:000000000001c21a .LASF3305
C:\Users\SOLDER~1\AppData\Local\Temp\ccheWc1y.s:23602  .debug_str:0000000000008edf .LASF3306
C:\Users\SOLDER~1\AppData\Local\Temp\ccheWc1y.s:25092  .debug_str:000000000000f0c6 .LASF3307
C:\Users\SOLDER~1\AppData\Local\Temp\ccheWc1y.s:22486  .debug_str:0000000000004676 .LASF3308
C:\Users\SOLDER~1\AppData\Local\Temp\ccheWc1y.s:25444  .debug_str:00000000000107b3 .LASF3309
GAS LISTING C:\Users\SOLDER~1\AppData\Local\Temp\ccheWc1y.s 			page 124


C:\Users\SOLDER~1\AppData\Local\Temp\ccheWc1y.s:22664  .debug_str:0000000000005187 .LASF3310
C:\Users\SOLDER~1\AppData\Local\Temp\ccheWc1y.s:21456  .debug_str:0000000000000357 .LASF3311
C:\Users\SOLDER~1\AppData\Local\Temp\ccheWc1y.s:23890  .debug_str:000000000000a20b .LASF3312
C:\Users\SOLDER~1\AppData\Local\Temp\ccheWc1y.s:29074  .debug_str:000000000001f21c .LASF3313
C:\Users\SOLDER~1\AppData\Local\Temp\ccheWc1y.s:32950  .debug_str:000000000002ed03 .LASF3314
C:\Users\SOLDER~1\AppData\Local\Temp\ccheWc1y.s:21646  .debug_str:00000000000010a7 .LASF3315
C:\Users\SOLDER~1\AppData\Local\Temp\ccheWc1y.s:22328  .debug_str:0000000000003cb0 .LASF3316
C:\Users\SOLDER~1\AppData\Local\Temp\ccheWc1y.s:26952  .debug_str:00000000000169bc .LASF3317
C:\Users\SOLDER~1\AppData\Local\Temp\ccheWc1y.s:27966  .debug_str:000000000001aa8c .LASF3318
C:\Users\SOLDER~1\AppData\Local\Temp\ccheWc1y.s:27520  .debug_str:0000000000018e47 .LASF3319
C:\Users\SOLDER~1\AppData\Local\Temp\ccheWc1y.s:32630  .debug_str:000000000002d8e8 .LASF3320
C:\Users\SOLDER~1\AppData\Local\Temp\ccheWc1y.s:29134  .debug_str:000000000001f613 .LASF3321
C:\Users\SOLDER~1\AppData\Local\Temp\ccheWc1y.s:25648  .debug_str:00000000000114c1 .LASF3322
C:\Users\SOLDER~1\AppData\Local\Temp\ccheWc1y.s:22096  .debug_str:0000000000002dbe .LASF3323
C:\Users\SOLDER~1\AppData\Local\Temp\ccheWc1y.s:30264  .debug_str:0000000000023ea2 .LASF3324
C:\Users\SOLDER~1\AppData\Local\Temp\ccheWc1y.s:26340  .debug_str:00000000000141c8 .LASF3325
C:\Users\SOLDER~1\AppData\Local\Temp\ccheWc1y.s:25780  .debug_str:0000000000011d26 .LASF3326
C:\Users\SOLDER~1\AppData\Local\Temp\ccheWc1y.s:25222  .debug_str:000000000000f918 .LASF3327
C:\Users\SOLDER~1\AppData\Local\Temp\ccheWc1y.s:27596  .debug_str:0000000000019362 .LASF3328
C:\Users\SOLDER~1\AppData\Local\Temp\ccheWc1y.s:30328  .debug_str:00000000000242a8 .LASF3329
C:\Users\SOLDER~1\AppData\Local\Temp\ccheWc1y.s:21490  .debug_str:0000000000000595 .LASF3330
C:\Users\SOLDER~1\AppData\Local\Temp\ccheWc1y.s:23018  .debug_str:00000000000068d2 .LASF3331
C:\Users\SOLDER~1\AppData\Local\Temp\ccheWc1y.s:22004  .debug_str:00000000000027ed .LASF3332
C:\Users\SOLDER~1\AppData\Local\Temp\ccheWc1y.s:29238  .debug_str:000000000001fd1f .LASF3333
C:\Users\SOLDER~1\AppData\Local\Temp\ccheWc1y.s:31606  .debug_str:0000000000029648 .LASF3334
C:\Users\SOLDER~1\AppData\Local\Temp\ccheWc1y.s:24424  .debug_str:000000000000c4c6 .LASF3335
C:\Users\SOLDER~1\AppData\Local\Temp\ccheWc1y.s:29520  .debug_str:0000000000020ef7 .LASF3336
C:\Users\SOLDER~1\AppData\Local\Temp\ccheWc1y.s:22626  .debug_str:0000000000004f52 .LASF3337
C:\Users\SOLDER~1\AppData\Local\Temp\ccheWc1y.s:23572  .debug_str:0000000000008ce9 .LASF3338
C:\Users\SOLDER~1\AppData\Local\Temp\ccheWc1y.s:25216  .debug_str:000000000000f896 .LASF3339
C:\Users\SOLDER~1\AppData\Local\Temp\ccheWc1y.s:23080  .debug_str:0000000000006cc1 .LASF3340
C:\Users\SOLDER~1\AppData\Local\Temp\ccheWc1y.s:32994  .debug_str:000000000002f017 .LASF3341
C:\Users\SOLDER~1\AppData\Local\Temp\ccheWc1y.s:28528  .debug_str:000000000001cea1 .LASF3342
C:\Users\SOLDER~1\AppData\Local\Temp\ccheWc1y.s:29390  .debug_str:000000000002068f .LASF3343
C:\Users\SOLDER~1\AppData\Local\Temp\ccheWc1y.s:27622  .debug_str:0000000000019525 .LASF3344
C:\Users\SOLDER~1\AppData\Local\Temp\ccheWc1y.s:25800  .debug_str:0000000000011e72 .LASF3345
C:\Users\SOLDER~1\AppData\Local\Temp\ccheWc1y.s:23246  .debug_str:00000000000077af .LASF3346
C:\Users\SOLDER~1\AppData\Local\Temp\ccheWc1y.s:32032  .debug_str:000000000002b205 .LASF3347
C:\Users\SOLDER~1\AppData\Local\Temp\ccheWc1y.s:24288  .debug_str:000000000000bbe8 .LASF3348
C:\Users\SOLDER~1\AppData\Local\Temp\ccheWc1y.s:26686  .debug_str:00000000000158d8 .LASF3349
C:\Users\SOLDER~1\AppData\Local\Temp\ccheWc1y.s:29874  .debug_str:0000000000022566 .LASF3350
C:\Users\SOLDER~1\AppData\Local\Temp\ccheWc1y.s:30950  .debug_str:0000000000026bb1 .LASF3351
C:\Users\SOLDER~1\AppData\Local\Temp\ccheWc1y.s:26438  .debug_str:00000000000148ad .LASF3352
C:\Users\SOLDER~1\AppData\Local\Temp\ccheWc1y.s:22932  .debug_str:00000000000062f2 .LASF3353
C:\Users\SOLDER~1\AppData\Local\Temp\ccheWc1y.s:26448  .debug_str:000000000001493f .LASF3354
C:\Users\SOLDER~1\AppData\Local\Temp\ccheWc1y.s:22900  .debug_str:000000000000609c .LASF3355
C:\Users\SOLDER~1\AppData\Local\Temp\ccheWc1y.s:31076  .debug_str:00000000000273f0 .LASF3356
C:\Users\SOLDER~1\AppData\Local\Temp\ccheWc1y.s:30190  .debug_str:00000000000239c5 .LASF3357
C:\Users\SOLDER~1\AppData\Local\Temp\ccheWc1y.s:27470  .debug_str:0000000000018b07 .LASF3358
C:\Users\SOLDER~1\AppData\Local\Temp\ccheWc1y.s:32274  .debug_str:000000000002c158 .LASF3359
C:\Users\SOLDER~1\AppData\Local\Temp\ccheWc1y.s:24466  .debug_str:000000000000c7ce .LASF3360
C:\Users\SOLDER~1\AppData\Local\Temp\ccheWc1y.s:29302  .debug_str:0000000000020139 .LASF3361
C:\Users\SOLDER~1\AppData\Local\Temp\ccheWc1y.s:32102  .debug_str:000000000002b686 .LASF3362
C:\Users\SOLDER~1\AppData\Local\Temp\ccheWc1y.s:31610  .debug_str:0000000000029695 .LASF3363
C:\Users\SOLDER~1\AppData\Local\Temp\ccheWc1y.s:29480  .debug_str:0000000000020c52 .LASF3364
C:\Users\SOLDER~1\AppData\Local\Temp\ccheWc1y.s:28822  .debug_str:000000000001e19a .LASF3365
C:\Users\SOLDER~1\AppData\Local\Temp\ccheWc1y.s:29958  .debug_str:0000000000022a6d .LASF3366
GAS LISTING C:\Users\SOLDER~1\AppData\Local\Temp\ccheWc1y.s 			page 125


C:\Users\SOLDER~1\AppData\Local\Temp\ccheWc1y.s:31098  .debug_str:0000000000027597 .LASF3367
C:\Users\SOLDER~1\AppData\Local\Temp\ccheWc1y.s:32178  .debug_str:000000000002bb3e .LASF3368
C:\Users\SOLDER~1\AppData\Local\Temp\ccheWc1y.s:25302  .debug_str:000000000000fe7e .LASF3369
C:\Users\SOLDER~1\AppData\Local\Temp\ccheWc1y.s:30064  .debug_str:00000000000231aa .LASF3370
C:\Users\SOLDER~1\AppData\Local\Temp\ccheWc1y.s:31018  .debug_str:000000000002703c .LASF3371
C:\Users\SOLDER~1\AppData\Local\Temp\ccheWc1y.s:22882  .debug_str:0000000000005f63 .LASF3372
C:\Users\SOLDER~1\AppData\Local\Temp\ccheWc1y.s:32820  .debug_str:000000000002e503 .LASF3373
C:\Users\SOLDER~1\AppData\Local\Temp\ccheWc1y.s:29968  .debug_str:0000000000022b13 .LASF3374
C:\Users\SOLDER~1\AppData\Local\Temp\ccheWc1y.s:31452  .debug_str:0000000000028c81 .LASF3375
C:\Users\SOLDER~1\AppData\Local\Temp\ccheWc1y.s:24182  .debug_str:000000000000b55e .LASF3376
C:\Users\SOLDER~1\AppData\Local\Temp\ccheWc1y.s:25998  .debug_str:0000000000012af1 .LASF3377
C:\Users\SOLDER~1\AppData\Local\Temp\ccheWc1y.s:23240  .debug_str:0000000000007743 .LASF3378
C:\Users\SOLDER~1\AppData\Local\Temp\ccheWc1y.s:27882  .debug_str:000000000001a543 .LASF3379
C:\Users\SOLDER~1\AppData\Local\Temp\ccheWc1y.s:26062  .debug_str:0000000000012ed3 .LASF3380
C:\Users\SOLDER~1\AppData\Local\Temp\ccheWc1y.s:29210  .debug_str:000000000001fb38 .LASF3381
C:\Users\SOLDER~1\AppData\Local\Temp\ccheWc1y.s:27288  .debug_str:0000000000017f2f .LASF3382
C:\Users\SOLDER~1\AppData\Local\Temp\ccheWc1y.s:32868  .debug_str:000000000002e7fa .LASF3383
C:\Users\SOLDER~1\AppData\Local\Temp\ccheWc1y.s:28240  .debug_str:000000000001bc34 .LASF3384
C:\Users\SOLDER~1\AppData\Local\Temp\ccheWc1y.s:27838  .debug_str:000000000001a29e .LASF3385
C:\Users\SOLDER~1\AppData\Local\Temp\ccheWc1y.s:31760  .debug_str:000000000002a051 .LASF3386
C:\Users\SOLDER~1\AppData\Local\Temp\ccheWc1y.s:26510  .debug_str:0000000000014d4a .LASF3387
C:\Users\SOLDER~1\AppData\Local\Temp\ccheWc1y.s:32542  .debug_str:000000000002d2df .LASF3388
C:\Users\SOLDER~1\AppData\Local\Temp\ccheWc1y.s:26594  .debug_str:00000000000152fa .LASF3389
C:\Users\SOLDER~1\AppData\Local\Temp\ccheWc1y.s:28966  .debug_str:000000000001eb01 .LASF3390
C:\Users\SOLDER~1\AppData\Local\Temp\ccheWc1y.s:33090  .debug_str:000000000002f604 .LASF3391
C:\Users\SOLDER~1\AppData\Local\Temp\ccheWc1y.s:25108  .debug_str:000000000000f1c7 .LASF3392
C:\Users\SOLDER~1\AppData\Local\Temp\ccheWc1y.s:23608  .debug_str:0000000000008f54 .LASF3393
C:\Users\SOLDER~1\AppData\Local\Temp\ccheWc1y.s:21726  .debug_str:00000000000015d5 .LASF3394
C:\Users\SOLDER~1\AppData\Local\Temp\ccheWc1y.s:30726  .debug_str:0000000000025c6f .LASF3395
C:\Users\SOLDER~1\AppData\Local\Temp\ccheWc1y.s:30848  .debug_str:00000000000264c3 .LASF3396
C:\Users\SOLDER~1\AppData\Local\Temp\ccheWc1y.s:27890  .debug_str:000000000001a5ce .LASF3397
C:\Users\SOLDER~1\AppData\Local\Temp\ccheWc1y.s:24934  .debug_str:000000000000e6e5 .LASF3398
C:\Users\SOLDER~1\AppData\Local\Temp\ccheWc1y.s:23928  .debug_str:000000000000a49a .LASF3399
C:\Users\SOLDER~1\AppData\Local\Temp\ccheWc1y.s:27134  .debug_str:00000000000174c6 .LASF3400
C:\Users\SOLDER~1\AppData\Local\Temp\ccheWc1y.s:27352  .debug_str:0000000000018352 .LASF3401
C:\Users\SOLDER~1\AppData\Local\Temp\ccheWc1y.s:31856  .debug_str:000000000002a6c9 .LASF3402
C:\Users\SOLDER~1\AppData\Local\Temp\ccheWc1y.s:27128  .debug_str:0000000000017466 .LASF3403
C:\Users\SOLDER~1\AppData\Local\Temp\ccheWc1y.s:31062  .debug_str:0000000000027327 .LASF3404
C:\Users\SOLDER~1\AppData\Local\Temp\ccheWc1y.s:24186  .debug_str:000000000000b598 .LASF3405
C:\Users\SOLDER~1\AppData\Local\Temp\ccheWc1y.s:28986  .debug_str:000000000001ec79 .LASF3406
C:\Users\SOLDER~1\AppData\Local\Temp\ccheWc1y.s:22088  .debug_str:0000000000002d2d .LASF3407
C:\Users\SOLDER~1\AppData\Local\Temp\ccheWc1y.s:23802  .debug_str:0000000000009c3e .LASF3408
C:\Users\SOLDER~1\AppData\Local\Temp\ccheWc1y.s:31708  .debug_str:0000000000029d25 .LASF3409
C:\Users\SOLDER~1\AppData\Local\Temp\ccheWc1y.s:32456  .debug_str:000000000002cd77 .LASF3410
C:\Users\SOLDER~1\AppData\Local\Temp\ccheWc1y.s:22256  .debug_str:00000000000037f6 .LASF3411
C:\Users\SOLDER~1\AppData\Local\Temp\ccheWc1y.s:32162  .debug_str:000000000002ba50 .LASF3412
C:\Users\SOLDER~1\AppData\Local\Temp\ccheWc1y.s:30326  .debug_str:000000000002427e .LASF3413
C:\Users\SOLDER~1\AppData\Local\Temp\ccheWc1y.s:28558  .debug_str:000000000001d0bc .LASF3414
C:\Users\SOLDER~1\AppData\Local\Temp\ccheWc1y.s:26782  .debug_str:0000000000015ec1 .LASF3415
C:\Users\SOLDER~1\AppData\Local\Temp\ccheWc1y.s:31916  .debug_str:000000000002aaca .LASF3416
C:\Users\SOLDER~1\AppData\Local\Temp\ccheWc1y.s:23150  .debug_str:0000000000007198 .LASF3417
C:\Users\SOLDER~1\AppData\Local\Temp\ccheWc1y.s:26604  .debug_str:000000000001538a .LASF3418
C:\Users\SOLDER~1\AppData\Local\Temp\ccheWc1y.s:25626  .debug_str:000000000001135e .LASF3419
C:\Users\SOLDER~1\AppData\Local\Temp\ccheWc1y.s:25116  .debug_str:000000000000f251 .LASF3420
C:\Users\SOLDER~1\AppData\Local\Temp\ccheWc1y.s:30486  .debug_str:0000000000024d09 .LASF3421
C:\Users\SOLDER~1\AppData\Local\Temp\ccheWc1y.s:30696  .debug_str:0000000000025a97 .LASF3422
C:\Users\SOLDER~1\AppData\Local\Temp\ccheWc1y.s:25798  .debug_str:0000000000011e4b .LASF3423
GAS LISTING C:\Users\SOLDER~1\AppData\Local\Temp\ccheWc1y.s 			page 126


C:\Users\SOLDER~1\AppData\Local\Temp\ccheWc1y.s:31568  .debug_str:0000000000029405 .LASF3424
C:\Users\SOLDER~1\AppData\Local\Temp\ccheWc1y.s:28894  .debug_str:000000000001e66b .LASF3425
C:\Users\SOLDER~1\AppData\Local\Temp\ccheWc1y.s:29470  .debug_str:0000000000020bba .LASF3426
C:\Users\SOLDER~1\AppData\Local\Temp\ccheWc1y.s:25988  .debug_str:0000000000012a32 .LASF3427
C:\Users\SOLDER~1\AppData\Local\Temp\ccheWc1y.s:27868  .debug_str:000000000001a44e .LASF3428
C:\Users\SOLDER~1\AppData\Local\Temp\ccheWc1y.s:22320  .debug_str:0000000000003c28 .LASF3429
C:\Users\SOLDER~1\AppData\Local\Temp\ccheWc1y.s:27194  .debug_str:00000000000178e1 .LASF3430
C:\Users\SOLDER~1\AppData\Local\Temp\ccheWc1y.s:23632  .debug_str:00000000000090f6 .LASF3431
C:\Users\SOLDER~1\AppData\Local\Temp\ccheWc1y.s:29574  .debug_str:000000000002122e .LASF3432
C:\Users\SOLDER~1\AppData\Local\Temp\ccheWc1y.s:32354  .debug_str:000000000002c6ea .LASF3433
C:\Users\SOLDER~1\AppData\Local\Temp\ccheWc1y.s:25632  .debug_str:00000000000113cb .LASF3434
C:\Users\SOLDER~1\AppData\Local\Temp\ccheWc1y.s:26318  .debug_str:0000000000014053 .LASF3435
C:\Users\SOLDER~1\AppData\Local\Temp\ccheWc1y.s:29084  .debug_str:000000000001f2d0 .LASF3436
C:\Users\SOLDER~1\AppData\Local\Temp\ccheWc1y.s:31876  .debug_str:000000000002a82e .LASF3437
C:\Users\SOLDER~1\AppData\Local\Temp\ccheWc1y.s:22992  .debug_str:00000000000066eb .LASF3438
C:\Users\SOLDER~1\AppData\Local\Temp\ccheWc1y.s:25824  .debug_str:0000000000011fe9 .LASF3439
C:\Users\SOLDER~1\AppData\Local\Temp\ccheWc1y.s:23546  .debug_str:0000000000008b21 .LASF3440
C:\Users\SOLDER~1\AppData\Local\Temp\ccheWc1y.s:28352  .debug_str:000000000001c32f .LASF3441
C:\Users\SOLDER~1\AppData\Local\Temp\ccheWc1y.s:21472  .debug_str:000000000000045c .LASF3442
C:\Users\SOLDER~1\AppData\Local\Temp\ccheWc1y.s:24470  .debug_str:000000000000c811 .LASF3443
C:\Users\SOLDER~1\AppData\Local\Temp\ccheWc1y.s:31038  .debug_str:000000000002719c .LASF3444
C:\Users\SOLDER~1\AppData\Local\Temp\ccheWc1y.s:22952  .debug_str:0000000000006447 .LASF3445
C:\Users\SOLDER~1\AppData\Local\Temp\ccheWc1y.s:28964  .debug_str:000000000001ead7 .LASF3446
C:\Users\SOLDER~1\AppData\Local\Temp\ccheWc1y.s:26452  .debug_str:000000000001498f .LASF3447
C:\Users\SOLDER~1\AppData\Local\Temp\ccheWc1y.s:24624  .debug_str:000000000000d295 .LASF3448
C:\Users\SOLDER~1\AppData\Local\Temp\ccheWc1y.s:31080  .debug_str:0000000000027442 .LASF3449
C:\Users\SOLDER~1\AppData\Local\Temp\ccheWc1y.s:32716  .debug_str:000000000002de70 .LASF3450
C:\Users\SOLDER~1\AppData\Local\Temp\ccheWc1y.s:26774  .debug_str:0000000000015e44 .LASF3451
C:\Users\SOLDER~1\AppData\Local\Temp\ccheWc1y.s:29114  .debug_str:000000000001f4c4 .LASF3452
C:\Users\SOLDER~1\AppData\Local\Temp\ccheWc1y.s:27358  .debug_str:00000000000183bc .LASF3453
C:\Users\SOLDER~1\AppData\Local\Temp\ccheWc1y.s:29784  .debug_str:0000000000021fa7 .LASF3454
C:\Users\SOLDER~1\AppData\Local\Temp\ccheWc1y.s:27626  .debug_str:000000000001956f .LASF3455
C:\Users\SOLDER~1\AppData\Local\Temp\ccheWc1y.s:22050  .debug_str:0000000000002b06 .LASF3456
C:\Users\SOLDER~1\AppData\Local\Temp\ccheWc1y.s:32148  .debug_str:000000000002b977 .LASF3457
C:\Users\SOLDER~1\AppData\Local\Temp\ccheWc1y.s:31346  .debug_str:00000000000285b2 .LASF3458
C:\Users\SOLDER~1\AppData\Local\Temp\ccheWc1y.s:32954  .debug_str:000000000002ed41 .LASF3459
C:\Users\SOLDER~1\AppData\Local\Temp\ccheWc1y.s:25808  .debug_str:0000000000011f16 .LASF3460
C:\Users\SOLDER~1\AppData\Local\Temp\ccheWc1y.s:30568  .debug_str:0000000000025281 .LASF3461
C:\Users\SOLDER~1\AppData\Local\Temp\ccheWc1y.s:25904  .debug_str:0000000000012503 .LASF3462
C:\Users\SOLDER~1\AppData\Local\Temp\ccheWc1y.s:31382  .debug_str:0000000000028826 .LASF3463
C:\Users\SOLDER~1\AppData\Local\Temp\ccheWc1y.s:29880  .debug_str:00000000000225c4 .LASF3464
C:\Users\SOLDER~1\AppData\Local\Temp\ccheWc1y.s:22762  .debug_str:000000000000576e .LASF3465
C:\Users\SOLDER~1\AppData\Local\Temp\ccheWc1y.s:25256  .debug_str:000000000000fb3e .LASF3466
C:\Users\SOLDER~1\AppData\Local\Temp\ccheWc1y.s:27152  .debug_str:0000000000017606 .LASF3467
C:\Users\SOLDER~1\AppData\Local\Temp\ccheWc1y.s:27328  .debug_str:00000000000181b5 .LASF3468
C:\Users\SOLDER~1\AppData\Local\Temp\ccheWc1y.s:24706  .debug_str:000000000000d7f7 .LASF3469
C:\Users\SOLDER~1\AppData\Local\Temp\ccheWc1y.s:27458  .debug_str:0000000000018a50 .LASF3470
C:\Users\SOLDER~1\AppData\Local\Temp\ccheWc1y.s:32232  .debug_str:000000000002becc .LASF3471
C:\Users\SOLDER~1\AppData\Local\Temp\ccheWc1y.s:29038  .debug_str:000000000001efe6 .LASF3472
C:\Users\SOLDER~1\AppData\Local\Temp\ccheWc1y.s:22304  .debug_str:0000000000003b22 .LASF3473
C:\Users\SOLDER~1\AppData\Local\Temp\ccheWc1y.s:22996  .debug_str:0000000000006737 .LASF3474
C:\Users\SOLDER~1\AppData\Local\Temp\ccheWc1y.s:22222  .debug_str:00000000000035ce .LASF3475
C:\Users\SOLDER~1\AppData\Local\Temp\ccheWc1y.s:24588  .debug_str:000000000000d041 .LASF3476
C:\Users\SOLDER~1\AppData\Local\Temp\ccheWc1y.s:26402  .debug_str:00000000000145f9 .LASF3477
C:\Users\SOLDER~1\AppData\Local\Temp\ccheWc1y.s:23264  .debug_str:00000000000078cd .LASF3478
C:\Users\SOLDER~1\AppData\Local\Temp\ccheWc1y.s:23604  .debug_str:0000000000008f0f .LASF3479
C:\Users\SOLDER~1\AppData\Local\Temp\ccheWc1y.s:23210  .debug_str:0000000000007588 .LASF3480
GAS LISTING C:\Users\SOLDER~1\AppData\Local\Temp\ccheWc1y.s 			page 127


C:\Users\SOLDER~1\AppData\Local\Temp\ccheWc1y.s:27572  .debug_str:00000000000191aa .LASF3481
C:\Users\SOLDER~1\AppData\Local\Temp\ccheWc1y.s:32144  .debug_str:000000000002b93a .LASF3482
C:\Users\SOLDER~1\AppData\Local\Temp\ccheWc1y.s:22152  .debug_str:0000000000003142 .LASF3483
C:\Users\SOLDER~1\AppData\Local\Temp\ccheWc1y.s:29902  .debug_str:000000000002271a .LASF3484
C:\Users\SOLDER~1\AppData\Local\Temp\ccheWc1y.s:26282  .debug_str:0000000000013d97 .LASF3485
C:\Users\SOLDER~1\AppData\Local\Temp\ccheWc1y.s:23388  .debug_str:00000000000080f0 .LASF3486
C:\Users\SOLDER~1\AppData\Local\Temp\ccheWc1y.s:22132  .debug_str:0000000000003015 .LASF3487
C:\Users\SOLDER~1\AppData\Local\Temp\ccheWc1y.s:31442  .debug_str:0000000000028be5 .LASF3488
C:\Users\SOLDER~1\AppData\Local\Temp\ccheWc1y.s:27550  .debug_str:0000000000019035 .LASF3489
C:\Users\SOLDER~1\AppData\Local\Temp\ccheWc1y.s:28926  .debug_str:000000000001e876 .LASF3490
C:\Users\SOLDER~1\AppData\Local\Temp\ccheWc1y.s:26198  .debug_str:00000000000137f9 .LASF3491
C:\Users\SOLDER~1\AppData\Local\Temp\ccheWc1y.s:28456  .debug_str:000000000001c9fd .LASF3492
C:\Users\SOLDER~1\AppData\Local\Temp\ccheWc1y.s:24956  .debug_str:000000000000e859 .LASF3493
C:\Users\SOLDER~1\AppData\Local\Temp\ccheWc1y.s:24396  .debug_str:000000000000c2de .LASF3494
C:\Users\SOLDER~1\AppData\Local\Temp\ccheWc1y.s:29538  .debug_str:000000000002100d .LASF3495
C:\Users\SOLDER~1\AppData\Local\Temp\ccheWc1y.s:32052  .debug_str:000000000002b342 .LASF3496
C:\Users\SOLDER~1\AppData\Local\Temp\ccheWc1y.s:31120  .debug_str:00000000000276eb .LASF3497
C:\Users\SOLDER~1\AppData\Local\Temp\ccheWc1y.s:23124  .debug_str:0000000000006fb6 .LASF3498
C:\Users\SOLDER~1\AppData\Local\Temp\ccheWc1y.s:29550  .debug_str:00000000000210c3 .LASF3499
C:\Users\SOLDER~1\AppData\Local\Temp\ccheWc1y.s:26910  .debug_str:00000000000166fb .LASF3500
C:\Users\SOLDER~1\AppData\Local\Temp\ccheWc1y.s:22726  .debug_str:0000000000005540 .LASF3501
C:\Users\SOLDER~1\AppData\Local\Temp\ccheWc1y.s:22070  .debug_str:0000000000002c10 .LASF3502
C:\Users\SOLDER~1\AppData\Local\Temp\ccheWc1y.s:24078  .debug_str:000000000000ae99 .LASF3503
C:\Users\SOLDER~1\AppData\Local\Temp\ccheWc1y.s:30302  .debug_str:00000000000240fc .LASF3504
C:\Users\SOLDER~1\AppData\Local\Temp\ccheWc1y.s:33002  .debug_str:000000000002f096 .LASF3505
C:\Users\SOLDER~1\AppData\Local\Temp\ccheWc1y.s:30596  .debug_str:000000000002545b .LASF3506
C:\Users\SOLDER~1\AppData\Local\Temp\ccheWc1y.s:31686  .debug_str:0000000000029bcf .LASF3507
C:\Users\SOLDER~1\AppData\Local\Temp\ccheWc1y.s:31420  .debug_str:0000000000028a83 .LASF3508
C:\Users\SOLDER~1\AppData\Local\Temp\ccheWc1y.s:23450  .debug_str:0000000000008504 .LASF3509
C:\Users\SOLDER~1\AppData\Local\Temp\ccheWc1y.s:28530  .debug_str:000000000001ceca .LASF3510
C:\Users\SOLDER~1\AppData\Local\Temp\ccheWc1y.s:31156  .debug_str:0000000000027951 .LASF3511
C:\Users\SOLDER~1\AppData\Local\Temp\ccheWc1y.s:32388  .debug_str:000000000002c933 .LASF3512
C:\Users\SOLDER~1\AppData\Local\Temp\ccheWc1y.s:25086  .debug_str:000000000000f064 .LASF3513
C:\Users\SOLDER~1\AppData\Local\Temp\ccheWc1y.s:32810  .debug_str:000000000002e470 .LASF3514
C:\Users\SOLDER~1\AppData\Local\Temp\ccheWc1y.s:29024  .debug_str:000000000001eef7 .LASF3515
C:\Users\SOLDER~1\AppData\Local\Temp\ccheWc1y.s:30940  .debug_str:0000000000026b27 .LASF3516
C:\Users\SOLDER~1\AppData\Local\Temp\ccheWc1y.s:22870  .debug_str:0000000000005eac .LASF3517
C:\Users\SOLDER~1\AppData\Local\Temp\ccheWc1y.s:31588  .debug_str:0000000000029530 .LASF3518
C:\Users\SOLDER~1\AppData\Local\Temp\ccheWc1y.s:27880  .debug_str:000000000001a520 .LASF3519
C:\Users\SOLDER~1\AppData\Local\Temp\ccheWc1y.s:27158  .debug_str:0000000000017678 .LASF3520
C:\Users\SOLDER~1\AppData\Local\Temp\ccheWc1y.s:31952  .debug_str:000000000002ad32 .LASF3521
C:\Users\SOLDER~1\AppData\Local\Temp\ccheWc1y.s:25204  .debug_str:000000000000f7da .LASF3522
C:\Users\SOLDER~1\AppData\Local\Temp\ccheWc1y.s:28188  .debug_str:000000000001b8f1 .LASF3523
C:\Users\SOLDER~1\AppData\Local\Temp\ccheWc1y.s:23274  .debug_str:000000000000794d .LASF3524
C:\Users\SOLDER~1\AppData\Local\Temp\ccheWc1y.s:26854  .debug_str:0000000000016350 .LASF3525
C:\Users\SOLDER~1\AppData\Local\Temp\ccheWc1y.s:23526  .debug_str:00000000000089e2 .LASF3526
C:\Users\SOLDER~1\AppData\Local\Temp\ccheWc1y.s:27172  .debug_str:0000000000017793 .LASF3527
C:\Users\SOLDER~1\AppData\Local\Temp\ccheWc1y.s:31642  .debug_str:00000000000298c2 .LASF3528
C:\Users\SOLDER~1\AppData\Local\Temp\ccheWc1y.s:21766  .debug_str:0000000000001862 .LASF3529
C:\Users\SOLDER~1\AppData\Local\Temp\ccheWc1y.s:32422  .debug_str:000000000002cb44 .LASF3530
C:\Users\SOLDER~1\AppData\Local\Temp\ccheWc1y.s:27198  .debug_str:0000000000017936 .LASF3531
C:\Users\SOLDER~1\AppData\Local\Temp\ccheWc1y.s:28868  .debug_str:000000000001e4d7 .LASF3532
C:\Users\SOLDER~1\AppData\Local\Temp\ccheWc1y.s:24870  .debug_str:000000000000e24d .LASF3533
C:\Users\SOLDER~1\AppData\Local\Temp\ccheWc1y.s:32174  .debug_str:000000000002bb03 .LASF3534
C:\Users\SOLDER~1\AppData\Local\Temp\ccheWc1y.s:25304  .debug_str:000000000000fea7 .LASF3535
C:\Users\SOLDER~1\AppData\Local\Temp\ccheWc1y.s:29678  .debug_str:0000000000021922 .LASF3536
C:\Users\SOLDER~1\AppData\Local\Temp\ccheWc1y.s:22470  .debug_str:0000000000004585 .LASF3537
GAS LISTING C:\Users\SOLDER~1\AppData\Local\Temp\ccheWc1y.s 			page 128


C:\Users\SOLDER~1\AppData\Local\Temp\ccheWc1y.s:25574  .debug_str:0000000000011026 .LASF3538
C:\Users\SOLDER~1\AppData\Local\Temp\ccheWc1y.s:22062  .debug_str:0000000000002bb5 .LASF3539
C:\Users\SOLDER~1\AppData\Local\Temp\ccheWc1y.s:26816  .debug_str:00000000000160e0 .LASF3540
C:\Users\SOLDER~1\AppData\Local\Temp\ccheWc1y.s:24900  .debug_str:000000000000e444 .LASF3541
C:\Users\SOLDER~1\AppData\Local\Temp\ccheWc1y.s:21450  .debug_str:00000000000002ff .LASF3542
C:\Users\SOLDER~1\AppData\Local\Temp\ccheWc1y.s:25162  .debug_str:000000000000f524 .LASF3543
C:\Users\SOLDER~1\AppData\Local\Temp\ccheWc1y.s:29950  .debug_str:00000000000229e6 .LASF3544
C:\Users\SOLDER~1\AppData\Local\Temp\ccheWc1y.s:32748  .debug_str:000000000002e07e .LASF3545
C:\Users\SOLDER~1\AppData\Local\Temp\ccheWc1y.s:29748  .debug_str:0000000000021d82 .LASF3546
C:\Users\SOLDER~1\AppData\Local\Temp\ccheWc1y.s:22980  .debug_str:0000000000006625 .LASF3547
C:\Users\SOLDER~1\AppData\Local\Temp\ccheWc1y.s:22840  .debug_str:0000000000005cc0 .LASF3548
C:\Users\SOLDER~1\AppData\Local\Temp\ccheWc1y.s:24562  .debug_str:000000000000ce95 .LASF3549
C:\Users\SOLDER~1\AppData\Local\Temp\ccheWc1y.s:21622  .debug_str:0000000000000f33 .LASF3550
C:\Users\SOLDER~1\AppData\Local\Temp\ccheWc1y.s:25396  .debug_str:00000000000104df .LASF3551
C:\Users\SOLDER~1\AppData\Local\Temp\ccheWc1y.s:23076  .debug_str:0000000000006c95 .LASF3552
C:\Users\SOLDER~1\AppData\Local\Temp\ccheWc1y.s:22650  .debug_str:00000000000050c4 .LASF3553
C:\Users\SOLDER~1\AppData\Local\Temp\ccheWc1y.s:21824  .debug_str:0000000000001c2d .LASF3554
C:\Users\SOLDER~1\AppData\Local\Temp\ccheWc1y.s:30668  .debug_str:00000000000258dc .LASF3555
C:\Users\SOLDER~1\AppData\Local\Temp\ccheWc1y.s:21608  .debug_str:0000000000000e72 .LASF3556
C:\Users\SOLDER~1\AppData\Local\Temp\ccheWc1y.s:28008  .debug_str:000000000001ad7f .LASF3557
C:\Users\SOLDER~1\AppData\Local\Temp\ccheWc1y.s:25178  .debug_str:000000000000f629 .LASF3558
C:\Users\SOLDER~1\AppData\Local\Temp\ccheWc1y.s:21932  .debug_str:0000000000002352 .LASF3559
C:\Users\SOLDER~1\AppData\Local\Temp\ccheWc1y.s:22708  .debug_str:0000000000005459 .LASF3560
C:\Users\SOLDER~1\AppData\Local\Temp\ccheWc1y.s:25064  .debug_str:000000000000ef33 .LASF3561
C:\Users\SOLDER~1\AppData\Local\Temp\ccheWc1y.s:25950  .debug_str:00000000000127e8 .LASF3562
C:\Users\SOLDER~1\AppData\Local\Temp\ccheWc1y.s:32524  .debug_str:000000000002d1bc .LASF3563
C:\Users\SOLDER~1\AppData\Local\Temp\ccheWc1y.s:26866  .debug_str:0000000000016418 .LASF3564
C:\Users\SOLDER~1\AppData\Local\Temp\ccheWc1y.s:28312  .debug_str:000000000001c0b0 .LASF3565
C:\Users\SOLDER~1\AppData\Local\Temp\ccheWc1y.s:29060  .debug_str:000000000001f146 .LASF3566
C:\Users\SOLDER~1\AppData\Local\Temp\ccheWc1y.s:22030  .debug_str:00000000000029d2 .LASF3567
C:\Users\SOLDER~1\AppData\Local\Temp\ccheWc1y.s:27078  .debug_str:0000000000017138 .LASF3568
C:\Users\SOLDER~1\AppData\Local\Temp\ccheWc1y.s:25896  .debug_str:0000000000012476 .LASF3569
C:\Users\SOLDER~1\AppData\Local\Temp\ccheWc1y.s:32194  .debug_str:000000000002bc6c .LASF3570
C:\Users\SOLDER~1\AppData\Local\Temp\ccheWc1y.s:29472  .debug_str:0000000000020be4 .LASF3571
C:\Users\SOLDER~1\AppData\Local\Temp\ccheWc1y.s:21986  .debug_str:00000000000026a7 .LASF3572
C:\Users\SOLDER~1\AppData\Local\Temp\ccheWc1y.s:27612  .debug_str:0000000000019476 .LASF3573
C:\Users\SOLDER~1\AppData\Local\Temp\ccheWc1y.s:25492  .debug_str:0000000000010ae4 .LASF3574
C:\Users\SOLDER~1\AppData\Local\Temp\ccheWc1y.s:24754  .debug_str:000000000000db0a .LASF3575
C:\Users\SOLDER~1\AppData\Local\Temp\ccheWc1y.s:30966  .debug_str:0000000000026cc3 .LASF3576
C:\Users\SOLDER~1\AppData\Local\Temp\ccheWc1y.s:32444  .debug_str:000000000002ccaa .LASF3577
C:\Users\SOLDER~1\AppData\Local\Temp\ccheWc1y.s:25150  .debug_str:000000000000f46c .LASF3578
C:\Users\SOLDER~1\AppData\Local\Temp\ccheWc1y.s:30262  .debug_str:0000000000023e7f .LASF3579
C:\Users\SOLDER~1\AppData\Local\Temp\ccheWc1y.s:32856  .debug_str:000000000002e745 .LASF3580
C:\Users\SOLDER~1\AppData\Local\Temp\ccheWc1y.s:22506  .debug_str:00000000000047e1 .LASF3581
C:\Users\SOLDER~1\AppData\Local\Temp\ccheWc1y.s:26944  .debug_str:0000000000016920 .LASF3582
C:\Users\SOLDER~1\AppData\Local\Temp\ccheWc1y.s:27296  .debug_str:0000000000017fa8 .LASF3583
C:\Users\SOLDER~1\AppData\Local\Temp\ccheWc1y.s:22038  .debug_str:0000000000002a54 .LASF3584
C:\Users\SOLDER~1\AppData\Local\Temp\ccheWc1y.s:23370  .debug_str:0000000000007faf .LASF3585
C:\Users\SOLDER~1\AppData\Local\Temp\ccheWc1y.s:21478  .debug_str:00000000000004d0 .LASF3586
C:\Users\SOLDER~1\AppData\Local\Temp\ccheWc1y.s:29928  .debug_str:0000000000022876 .LASF3587
C:\Users\SOLDER~1\AppData\Local\Temp\ccheWc1y.s:25316  .debug_str:000000000000ff7d .LASF3588
C:\Users\SOLDER~1\AppData\Local\Temp\ccheWc1y.s:30762  .debug_str:0000000000025f09 .LASF3589
C:\Users\SOLDER~1\AppData\Local\Temp\ccheWc1y.s:30322  .debug_str:000000000002423e .LASF3590
C:\Users\SOLDER~1\AppData\Local\Temp\ccheWc1y.s:32910  .debug_str:000000000002ea7c .LASF3591
C:\Users\SOLDER~1\AppData\Local\Temp\ccheWc1y.s:24026  .debug_str:000000000000ab26 .LASF3592
C:\Users\SOLDER~1\AppData\Local\Temp\ccheWc1y.s:25076  .debug_str:000000000000efc8 .LASF3593
C:\Users\SOLDER~1\AppData\Local\Temp\ccheWc1y.s:25772  .debug_str:0000000000011c9c .LASF3594
GAS LISTING C:\Users\SOLDER~1\AppData\Local\Temp\ccheWc1y.s 			page 129


C:\Users\SOLDER~1\AppData\Local\Temp\ccheWc1y.s:22218  .debug_str:000000000000359a .LASF3595
C:\Users\SOLDER~1\AppData\Local\Temp\ccheWc1y.s:30740  .debug_str:0000000000025d63 .LASF3596
C:\Users\SOLDER~1\AppData\Local\Temp\ccheWc1y.s:28294  .debug_str:000000000001bf5e .LASF3597
C:\Users\SOLDER~1\AppData\Local\Temp\ccheWc1y.s:23314  .debug_str:0000000000007be2 .LASF3598
C:\Users\SOLDER~1\AppData\Local\Temp\ccheWc1y.s:24598  .debug_str:000000000000d0e6 .LASF3599
C:\Users\SOLDER~1\AppData\Local\Temp\ccheWc1y.s:21510  .debug_str:0000000000000770 .LASF3600
C:\Users\SOLDER~1\AppData\Local\Temp\ccheWc1y.s:31860  .debug_str:000000000002a72c .LASF3601
C:\Users\SOLDER~1\AppData\Local\Temp\ccheWc1y.s:28246  .debug_str:000000000001bc8c .LASF3602
C:\Users\SOLDER~1\AppData\Local\Temp\ccheWc1y.s:25774  .debug_str:0000000000011cbd .LASF3603
C:\Users\SOLDER~1\AppData\Local\Temp\ccheWc1y.s:21528  .debug_str:000000000000089f .LASF3604
C:\Users\SOLDER~1\AppData\Local\Temp\ccheWc1y.s:30548  .debug_str:0000000000025116 .LASF3605
C:\Users\SOLDER~1\AppData\Local\Temp\ccheWc1y.s:28110  .debug_str:000000000001b44f .LASF3606
C:\Users\SOLDER~1\AppData\Local\Temp\ccheWc1y.s:24512  .debug_str:000000000000cb05 .LASF3607
C:\Users\SOLDER~1\AppData\Local\Temp\ccheWc1y.s:28262  .debug_str:000000000001bd80 .LASF3608
C:\Users\SOLDER~1\AppData\Local\Temp\ccheWc1y.s:32440  .debug_str:000000000002cc64 .LASF3609
C:\Users\SOLDER~1\AppData\Local\Temp\ccheWc1y.s:25350  .debug_str:00000000000101e4 .LASF3610
C:\Users\SOLDER~1\AppData\Local\Temp\ccheWc1y.s:31756  .debug_str:0000000000029ffe .LASF3611
C:\Users\SOLDER~1\AppData\Local\Temp\ccheWc1y.s:21762  .debug_str:0000000000001837 .LASF3612
C:\Users\SOLDER~1\AppData\Local\Temp\ccheWc1y.s:23560  .debug_str:0000000000008c22 .LASF3613
C:\Users\SOLDER~1\AppData\Local\Temp\ccheWc1y.s:30352  .debug_str:000000000002444a .LASF3614
C:\Users\SOLDER~1\AppData\Local\Temp\ccheWc1y.s:29728  .debug_str:0000000000021c3a .LASF3615
C:\Users\SOLDER~1\AppData\Local\Temp\ccheWc1y.s:30254  .debug_str:0000000000023e10 .LASF3616
C:\Users\SOLDER~1\AppData\Local\Temp\ccheWc1y.s:31532  .debug_str:00000000000291bc .LASF3617
C:\Users\SOLDER~1\AppData\Local\Temp\ccheWc1y.s:30586  .debug_str:00000000000253af .LASF3618
C:\Users\SOLDER~1\AppData\Local\Temp\ccheWc1y.s:32658  .debug_str:000000000002dace .LASF3619
C:\Users\SOLDER~1\AppData\Local\Temp\ccheWc1y.s:27140  .debug_str:0000000000017538 .LASF3620
C:\Users\SOLDER~1\AppData\Local\Temp\ccheWc1y.s:31636  .debug_str:0000000000029854 .LASF3621
C:\Users\SOLDER~1\AppData\Local\Temp\ccheWc1y.s:28290  .debug_str:000000000001bf24 .LASF3622
C:\Users\SOLDER~1\AppData\Local\Temp\ccheWc1y.s:28178  .debug_str:000000000001b85c .LASF3623
C:\Users\SOLDER~1\AppData\Local\Temp\ccheWc1y.s:22380  .debug_str:0000000000003fd9 .LASF3624
C:\Users\SOLDER~1\AppData\Local\Temp\ccheWc1y.s:30368  .debug_str:0000000000024560 .LASF3625
C:\Users\SOLDER~1\AppData\Local\Temp\ccheWc1y.s:29736  .debug_str:0000000000021cc0 .LASF3626
C:\Users\SOLDER~1\AppData\Local\Temp\ccheWc1y.s:32114  .debug_str:000000000002b77b .LASF3627
C:\Users\SOLDER~1\AppData\Local\Temp\ccheWc1y.s:28066  .debug_str:000000000001b13e .LASF3628
C:\Users\SOLDER~1\AppData\Local\Temp\ccheWc1y.s:31414  .debug_str:0000000000028a2f .LASF3629
C:\Users\SOLDER~1\AppData\Local\Temp\ccheWc1y.s:26044  .debug_str:0000000000012da0 .LASF3630
C:\Users\SOLDER~1\AppData\Local\Temp\ccheWc1y.s:27516  .debug_str:0000000000018e01 .LASF3631
C:\Users\SOLDER~1\AppData\Local\Temp\ccheWc1y.s:29786  .debug_str:0000000000021fc3 .LASF3632
C:\Users\SOLDER~1\AppData\Local\Temp\ccheWc1y.s:27162  .debug_str:00000000000176b6 .LASF3633
C:\Users\SOLDER~1\AppData\Local\Temp\ccheWc1y.s:30014  .debug_str:0000000000022e33 .LASF3634
C:\Users\SOLDER~1\AppData\Local\Temp\ccheWc1y.s:27294  .debug_str:0000000000017f88 .LASF3635
C:\Users\SOLDER~1\AppData\Local\Temp\ccheWc1y.s:30068  .debug_str:00000000000231f3 .LASF3636
C:\Users\SOLDER~1\AppData\Local\Temp\ccheWc1y.s:25268  .debug_str:000000000000fbfa .LASF3637
C:\Users\SOLDER~1\AppData\Local\Temp\ccheWc1y.s:29394  .debug_str:00000000000206d5 .LASF3638
C:\Users\SOLDER~1\AppData\Local\Temp\ccheWc1y.s:25788  .debug_str:0000000000011dc1 .LASF3639
C:\Users\SOLDER~1\AppData\Local\Temp\ccheWc1y.s:31744  .debug_str:0000000000029f49 .LASF3640
C:\Users\SOLDER~1\AppData\Local\Temp\ccheWc1y.s:30082  .debug_str:00000000000232d7 .LASF3641
C:\Users\SOLDER~1\AppData\Local\Temp\ccheWc1y.s:30256  .debug_str:0000000000023e25 .LASF3642
C:\Users\SOLDER~1\AppData\Local\Temp\ccheWc1y.s:31776  .debug_str:000000000002a157 .LASF3643
C:\Users\SOLDER~1\AppData\Local\Temp\ccheWc1y.s:30602  .debug_str:00000000000254c3 .LASF3644
C:\Users\SOLDER~1\AppData\Local\Temp\ccheWc1y.s:31950  .debug_str:000000000002ad0f .LASF3645
C:\Users\SOLDER~1\AppData\Local\Temp\ccheWc1y.s:32448  .debug_str:000000000002ccf7 .LASF3646
C:\Users\SOLDER~1\AppData\Local\Temp\ccheWc1y.s:23046  .debug_str:0000000000006ade .LASF3647
C:\Users\SOLDER~1\AppData\Local\Temp\ccheWc1y.s:21458  .debug_str:000000000000037d .LASF3648
C:\Users\SOLDER~1\AppData\Local\Temp\ccheWc1y.s:29132  .debug_str:000000000001f5f1 .LASF3649
C:\Users\SOLDER~1\AppData\Local\Temp\ccheWc1y.s:23728  .debug_str:0000000000009785 .LASF3650
C:\Users\SOLDER~1\AppData\Local\Temp\ccheWc1y.s:26826  .debug_str:0000000000016179 .LASF3651
GAS LISTING C:\Users\SOLDER~1\AppData\Local\Temp\ccheWc1y.s 			page 130


C:\Users\SOLDER~1\AppData\Local\Temp\ccheWc1y.s:21588  .debug_str:0000000000000cfc .LASF3652
C:\Users\SOLDER~1\AppData\Local\Temp\ccheWc1y.s:32612  .debug_str:000000000002d7d5 .LASF3653
C:\Users\SOLDER~1\AppData\Local\Temp\ccheWc1y.s:27692  .debug_str:000000000001999d .LASF3654
C:\Users\SOLDER~1\AppData\Local\Temp\ccheWc1y.s:32728  .debug_str:000000000002df48 .LASF3655
C:\Users\SOLDER~1\AppData\Local\Temp\ccheWc1y.s:31162  .debug_str:00000000000279c1 .LASF3656
C:\Users\SOLDER~1\AppData\Local\Temp\ccheWc1y.s:23786  .debug_str:0000000000009b48 .LASF3657
C:\Users\SOLDER~1\AppData\Local\Temp\ccheWc1y.s:30346  .debug_str:00000000000243df .LASF3658
C:\Users\SOLDER~1\AppData\Local\Temp\ccheWc1y.s:32498  .debug_str:000000000002d02e .LASF3659
C:\Users\SOLDER~1\AppData\Local\Temp\ccheWc1y.s:22954  .debug_str:0000000000006471 .LASF3660
C:\Users\SOLDER~1\AppData\Local\Temp\ccheWc1y.s:28182  .debug_str:000000000001b8a3 .LASF3661
C:\Users\SOLDER~1\AppData\Local\Temp\ccheWc1y.s:22892  .debug_str:000000000000600f .LASF3662
C:\Users\SOLDER~1\AppData\Local\Temp\ccheWc1y.s:31676  .debug_str:0000000000029b1a .LASF3663
C:\Users\SOLDER~1\AppData\Local\Temp\ccheWc1y.s:22592  .debug_str:0000000000004d5e .LASF3664
C:\Users\SOLDER~1\AppData\Local\Temp\ccheWc1y.s:22130  .debug_str:0000000000002ff2 .LASF3665
C:\Users\SOLDER~1\AppData\Local\Temp\ccheWc1y.s:31026  .debug_str:00000000000270cc .LASF3666
C:\Users\SOLDER~1\AppData\Local\Temp\ccheWc1y.s:26224  .debug_str:00000000000139a4 .LASF3667
C:\Users\SOLDER~1\AppData\Local\Temp\ccheWc1y.s:27446  .debug_str:0000000000018989 .LASF3668
C:\Users\SOLDER~1\AppData\Local\Temp\ccheWc1y.s:25038  .debug_str:000000000000edaf .LASF3669
C:\Users\SOLDER~1\AppData\Local\Temp\ccheWc1y.s:25306  .debug_str:000000000000fec7 .LASF3670
C:\Users\SOLDER~1\AppData\Local\Temp\ccheWc1y.s:29922  .debug_str:000000000002282f .LASF3671
C:\Users\SOLDER~1\AppData\Local\Temp\ccheWc1y.s:31006  .debug_str:0000000000026f5c .LASF3672
C:\Users\SOLDER~1\AppData\Local\Temp\ccheWc1y.s:27910  .debug_str:000000000001a709 .LASF3673
C:\Users\SOLDER~1\AppData\Local\Temp\ccheWc1y.s:27930  .debug_str:000000000001a83e .LASF3674
C:\Users\SOLDER~1\AppData\Local\Temp\ccheWc1y.s:23910  .debug_str:000000000000a361 .LASF3675
C:\Users\SOLDER~1\AppData\Local\Temp\ccheWc1y.s:25674  .debug_str:0000000000011677 .LASF3676
C:\Users\SOLDER~1\AppData\Local\Temp\ccheWc1y.s:30040  .debug_str:000000000002300d .LASF3677
C:\Users\SOLDER~1\AppData\Local\Temp\ccheWc1y.s:27944  .debug_str:000000000001a949 .LASF3678
C:\Users\SOLDER~1\AppData\Local\Temp\ccheWc1y.s:30272  .debug_str:0000000000023f31 .LASF3679
C:\Users\SOLDER~1\AppData\Local\Temp\ccheWc1y.s:31630  .debug_str:00000000000297eb .LASF3680
C:\Users\SOLDER~1\AppData\Local\Temp\ccheWc1y.s:32432  .debug_str:000000000002cbf3 .LASF3681
C:\Users\SOLDER~1\AppData\Local\Temp\ccheWc1y.s:27048  .debug_str:0000000000016f8c .LASF3682
C:\Users\SOLDER~1\AppData\Local\Temp\ccheWc1y.s:32116  .debug_str:000000000002b79c .LASF3683
C:\Users\SOLDER~1\AppData\Local\Temp\ccheWc1y.s:25804  .debug_str:0000000000011ebf .LASF3684
C:\Users\SOLDER~1\AppData\Local\Temp\ccheWc1y.s:29710  .debug_str:0000000000021afc .LASF3685
C:\Users\SOLDER~1\AppData\Local\Temp\ccheWc1y.s:25602  .debug_str:00000000000111d1 .LASF3686
C:\Users\SOLDER~1\AppData\Local\Temp\ccheWc1y.s:33006  .debug_str:000000000002f0e1 .LASF3687
C:\Users\SOLDER~1\AppData\Local\Temp\ccheWc1y.s:29726  .debug_str:0000000000021c13 .LASF3688
C:\Users\SOLDER~1\AppData\Local\Temp\ccheWc1y.s:23566  .debug_str:0000000000008c83 .LASF3689
C:\Users\SOLDER~1\AppData\Local\Temp\ccheWc1y.s:29716  .debug_str:0000000000021b6e .LASF3690
C:\Users\SOLDER~1\AppData\Local\Temp\ccheWc1y.s:26638  .debug_str:00000000000155ae .LASF3691
C:\Users\SOLDER~1\AppData\Local\Temp\ccheWc1y.s:22820  .debug_str:0000000000005b80 .LASF3692
C:\Users\SOLDER~1\AppData\Local\Temp\ccheWc1y.s:24492  .debug_str:000000000000c9ab .LASF3693
C:\Users\SOLDER~1\AppData\Local\Temp\ccheWc1y.s:31572  .debug_str:000000000002944b .LASF3694
C:\Users\SOLDER~1\AppData\Local\Temp\ccheWc1y.s:26546  .debug_str:0000000000014faa .LASF3695
C:\Users\SOLDER~1\AppData\Local\Temp\ccheWc1y.s:23762  .debug_str:000000000000999a .LASF3696
C:\Users\SOLDER~1\AppData\Local\Temp\ccheWc1y.s:24370  .debug_str:000000000000c133 .LASF3697
C:\Users\SOLDER~1\AppData\Local\Temp\ccheWc1y.s:27964  .debug_str:000000000001aa67 .LASF3698
C:\Users\SOLDER~1\AppData\Local\Temp\ccheWc1y.s:25288  .debug_str:000000000000fda3 .LASF3699
C:\Users\SOLDER~1\AppData\Local\Temp\ccheWc1y.s:28890  .debug_str:000000000001e623 .LASF3700
C:\Users\SOLDER~1\AppData\Local\Temp\ccheWc1y.s:21874  .debug_str:0000000000001f74 .LASF3701
C:\Users\SOLDER~1\AppData\Local\Temp\ccheWc1y.s:25542  .debug_str:0000000000010e24 .LASF3702
C:\Users\SOLDER~1\AppData\Local\Temp\ccheWc1y.s:24986  .debug_str:000000000000ea1c .LASF3703
C:\Users\SOLDER~1\AppData\Local\Temp\ccheWc1y.s:22226  .debug_str:0000000000003607 .LASF3704
C:\Users\SOLDER~1\AppData\Local\Temp\ccheWc1y.s:31158  .debug_str:0000000000027974 .LASF3705
C:\Users\SOLDER~1\AppData\Local\Temp\ccheWc1y.s:30494  .debug_str:0000000000024d90 .LASF3706
C:\Users\SOLDER~1\AppData\Local\Temp\ccheWc1y.s:24658  .debug_str:000000000000d4e3 .LASF3707
C:\Users\SOLDER~1\AppData\Local\Temp\ccheWc1y.s:21960  .debug_str:0000000000002513 .LASF3708
GAS LISTING C:\Users\SOLDER~1\AppData\Local\Temp\ccheWc1y.s 			page 131


C:\Users\SOLDER~1\AppData\Local\Temp\ccheWc1y.s:30736  .debug_str:0000000000025d1a .LASF3709
C:\Users\SOLDER~1\AppData\Local\Temp\ccheWc1y.s:22156  .debug_str:0000000000003188 .LASF3710
C:\Users\SOLDER~1\AppData\Local\Temp\ccheWc1y.s:21892  .debug_str:0000000000002097 .LASF3711
C:\Users\SOLDER~1\AppData\Local\Temp\ccheWc1y.s:30824  .debug_str:0000000000026324 .LASF3712
C:\Users\SOLDER~1\AppData\Local\Temp\ccheWc1y.s:31204  .debug_str:0000000000027c79 .LASF3713
C:\Users\SOLDER~1\AppData\Local\Temp\ccheWc1y.s:31674  .debug_str:0000000000029af5 .LASF3714
C:\Users\SOLDER~1\AppData\Local\Temp\ccheWc1y.s:22568  .debug_str:0000000000004bb5 .LASF3715
C:\Users\SOLDER~1\AppData\Local\Temp\ccheWc1y.s:31688  .debug_str:0000000000029bf1 .LASF3716
C:\Users\SOLDER~1\AppData\Local\Temp\ccheWc1y.s:27706  .debug_str:0000000000019a9c .LASF3717
C:\Users\SOLDER~1\AppData\Local\Temp\ccheWc1y.s:24402  .debug_str:000000000000c32f .LASF3718
C:\Users\SOLDER~1\AppData\Local\Temp\ccheWc1y.s:31088  .debug_str:00000000000274e0 .LASF3719
C:\Users\SOLDER~1\AppData\Local\Temp\ccheWc1y.s:24718  .debug_str:000000000000d8d2 .LASF3720
C:\Users\SOLDER~1\AppData\Local\Temp\ccheWc1y.s:32902  .debug_str:000000000002ea06 .LASF3721
C:\Users\SOLDER~1\AppData\Local\Temp\ccheWc1y.s:32146  .debug_str:000000000002b952 .LASF3722
C:\Users\SOLDER~1\AppData\Local\Temp\ccheWc1y.s:30566  .debug_str:0000000000025260 .LASF3723
C:\Users\SOLDER~1\AppData\Local\Temp\ccheWc1y.s:32620  .debug_str:000000000002d858 .LASF3724
C:\Users\SOLDER~1\AppData\Local\Temp\ccheWc1y.s:29608  .debug_str:000000000002146d .LASF3725
C:\Users\SOLDER~1\AppData\Local\Temp\ccheWc1y.s:26464  .debug_str:0000000000014a66 .LASF3726
C:\Users\SOLDER~1\AppData\Local\Temp\ccheWc1y.s:31872  .debug_str:000000000002a7f7 .LASF3727
C:\Users\SOLDER~1\AppData\Local\Temp\ccheWc1y.s:24070  .debug_str:000000000000ae20 .LASF3728
C:\Users\SOLDER~1\AppData\Local\Temp\ccheWc1y.s:26756  .debug_str:0000000000015d0d .LASF3729
C:\Users\SOLDER~1\AppData\Local\Temp\ccheWc1y.s:27566  .debug_str:0000000000019134 .LASF3730
C:\Users\SOLDER~1\AppData\Local\Temp\ccheWc1y.s:23340  .debug_str:0000000000007db1 .LASF3731
C:\Users\SOLDER~1\AppData\Local\Temp\ccheWc1y.s:28088  .debug_str:000000000001b2d2 .LASF3732
C:\Users\SOLDER~1\AppData\Local\Temp\ccheWc1y.s:24372  .debug_str:000000000000c158 .LASF3733
C:\Users\SOLDER~1\AppData\Local\Temp\ccheWc1y.s:27864  .debug_str:000000000001a414 .LASF3734
C:\Users\SOLDER~1\AppData\Local\Temp\ccheWc1y.s:24296  .debug_str:000000000000bc6e .LASF3735
C:\Users\SOLDER~1\AppData\Local\Temp\ccheWc1y.s:22810  .debug_str:0000000000005ac8 .LASF3736
C:\Users\SOLDER~1\AppData\Local\Temp\ccheWc1y.s:25358  .debug_str:000000000001026b .LASF3737
C:\Users\SOLDER~1\AppData\Local\Temp\ccheWc1y.s:23120  .debug_str:0000000000006f76 .LASF3738
C:\Users\SOLDER~1\AppData\Local\Temp\ccheWc1y.s:22212  .debug_str:0000000000003541 .LASF3739
C:\Users\SOLDER~1\AppData\Local\Temp\ccheWc1y.s:29202  .debug_str:000000000001facb .LASF3740
C:\Users\SOLDER~1\AppData\Local\Temp\ccheWc1y.s:29298  .debug_str:0000000000020103 .LASF3741
C:\Users\SOLDER~1\AppData\Local\Temp\ccheWc1y.s:24820  .debug_str:000000000000df02 .LASF3742
C:\Users\SOLDER~1\AppData\Local\Temp\ccheWc1y.s:32852  .debug_str:000000000002e70a .LASF3743
C:\Users\SOLDER~1\AppData\Local\Temp\ccheWc1y.s:22804  .debug_str:0000000000005a66 .LASF3744
C:\Users\SOLDER~1\AppData\Local\Temp\ccheWc1y.s:31808  .debug_str:000000000002a3b3 .LASF3745
C:\Users\SOLDER~1\AppData\Local\Temp\ccheWc1y.s:24866  .debug_str:000000000000e212 .LASF3746
C:\Users\SOLDER~1\AppData\Local\Temp\ccheWc1y.s:30046  .debug_str:000000000002306c .LASF3747
C:\Users\SOLDER~1\AppData\Local\Temp\ccheWc1y.s:26170  .debug_str:00000000000135e5 .LASF3748
C:\Users\SOLDER~1\AppData\Local\Temp\ccheWc1y.s:24622  .debug_str:000000000000d27e .LASF3749
C:\Users\SOLDER~1\AppData\Local\Temp\ccheWc1y.s:31962  .debug_str:000000000002adb2 .LASF3750
C:\Users\SOLDER~1\AppData\Local\Temp\ccheWc1y.s:28272  .debug_str:000000000001bdf7 .LASF3751
C:\Users\SOLDER~1\AppData\Local\Temp\ccheWc1y.s:25378  .debug_str:00000000000103bc .LASF3752
C:\Users\SOLDER~1\AppData\Local\Temp\ccheWc1y.s:28874  .debug_str:000000000001e535 .LASF3753
C:\Users\SOLDER~1\AppData\Local\Temp\ccheWc1y.s:25340  .debug_str:0000000000010141 .LASF3754
C:\Users\SOLDER~1\AppData\Local\Temp\ccheWc1y.s:27874  .debug_str:000000000001a4c6 .LASF3755
C:\Users\SOLDER~1\AppData\Local\Temp\ccheWc1y.s:28108  .debug_str:000000000001b42c .LASF3756
C:\Users\SOLDER~1\AppData\Local\Temp\ccheWc1y.s:25944  .debug_str:0000000000012790 .LASF3757
C:\Users\SOLDER~1\AppData\Local\Temp\ccheWc1y.s:27450  .debug_str:00000000000189d7 .LASF3758
C:\Users\SOLDER~1\AppData\Local\Temp\ccheWc1y.s:21984  .debug_str:0000000000002691 .LASF3759
C:\Users\SOLDER~1\AppData\Local\Temp\ccheWc1y.s:22714  .debug_str:000000000000549d .LASF3760
C:\Users\SOLDER~1\AppData\Local\Temp\ccheWc1y.s:32416  .debug_str:000000000002caed .LASF3761
C:\Users\SOLDER~1\AppData\Local\Temp\ccheWc1y.s:32644  .debug_str:000000000002d9dd .LASF3762
C:\Users\SOLDER~1\AppData\Local\Temp\ccheWc1y.s:21682  .debug_str:0000000000001302 .LASF3763
C:\Users\SOLDER~1\AppData\Local\Temp\ccheWc1y.s:27506  .debug_str:0000000000018d56 .LASF3764
C:\Users\SOLDER~1\AppData\Local\Temp\ccheWc1y.s:25652  .debug_str:000000000001150f .LASF3765
GAS LISTING C:\Users\SOLDER~1\AppData\Local\Temp\ccheWc1y.s 			page 132


C:\Users\SOLDER~1\AppData\Local\Temp\ccheWc1y.s:30496  .debug_str:0000000000024db4 .LASF3766
C:\Users\SOLDER~1\AppData\Local\Temp\ccheWc1y.s:24162  .debug_str:000000000000b427 .LASF3767
C:\Users\SOLDER~1\AppData\Local\Temp\ccheWc1y.s:29782  .debug_str:0000000000021f84 .LASF3768
C:\Users\SOLDER~1\AppData\Local\Temp\ccheWc1y.s:21964  .debug_str:0000000000002565 .LASF3769
C:\Users\SOLDER~1\AppData\Local\Temp\ccheWc1y.s:31274  .debug_str:00000000000280ed .LASF3770
C:\Users\SOLDER~1\AppData\Local\Temp\ccheWc1y.s:21632  .debug_str:0000000000000fde .LASF3771
C:\Users\SOLDER~1\AppData\Local\Temp\ccheWc1y.s:30348  .debug_str:0000000000024406 .LASF3772
C:\Users\SOLDER~1\AppData\Local\Temp\ccheWc1y.s:26288  .debug_str:0000000000013e2b .LASF3773
C:\Users\SOLDER~1\AppData\Local\Temp\ccheWc1y.s:31682  .debug_str:0000000000029b7f .LASF3774
C:\Users\SOLDER~1\AppData\Local\Temp\ccheWc1y.s:29106  .debug_str:000000000001f43d .LASF3775
C:\Users\SOLDER~1\AppData\Local\Temp\ccheWc1y.s:24698  .debug_str:000000000000d76b .LASF3776
C:\Users\SOLDER~1\AppData\Local\Temp\ccheWc1y.s:23234  .debug_str:00000000000076fb .LASF3777
C:\Users\SOLDER~1\AppData\Local\Temp\ccheWc1y.s:30992  .debug_str:0000000000026e85 .LASF3778
C:\Users\SOLDER~1\AppData\Local\Temp\ccheWc1y.s:29292  .debug_str:00000000000200a9 .LASF3779
C:\Users\SOLDER~1\AppData\Local\Temp\ccheWc1y.s:29560  .debug_str:0000000000021176 .LASF3780
C:\Users\SOLDER~1\AppData\Local\Temp\ccheWc1y.s:30464  .debug_str:0000000000024b9c .LASF3781
C:\Users\SOLDER~1\AppData\Local\Temp\ccheWc1y.s:22408  .debug_str:00000000000041a7 .LASF3782
C:\Users\SOLDER~1\AppData\Local\Temp\ccheWc1y.s:26568  .debug_str:000000000001514e .LASF3783
C:\Users\SOLDER~1\AppData\Local\Temp\ccheWc1y.s:25152  .debug_str:000000000000f485 .LASF3784
C:\Users\SOLDER~1\AppData\Local\Temp\ccheWc1y.s:23088  .debug_str:0000000000006d54 .LASF3785
C:\Users\SOLDER~1\AppData\Local\Temp\ccheWc1y.s:27380  .debug_str:0000000000018553 .LASF3786
C:\Users\SOLDER~1\AppData\Local\Temp\ccheWc1y.s:32624  .debug_str:000000000002d8a1 .LASF3787
C:\Users\SOLDER~1\AppData\Local\Temp\ccheWc1y.s:30468  .debug_str:0000000000024bd9 .LASF3788
C:\Users\SOLDER~1\AppData\Local\Temp\ccheWc1y.s:22864  .debug_str:0000000000005e5f .LASF3789
C:\Users\SOLDER~1\AppData\Local\Temp\ccheWc1y.s:24020  .debug_str:000000000000aada .LASF3790
C:\Users\SOLDER~1\AppData\Local\Temp\ccheWc1y.s:31516  .debug_str:00000000000290e4 .LASF3791
C:\Users\SOLDER~1\AppData\Local\Temp\ccheWc1y.s:31112  .debug_str:0000000000027660 .LASF3792
C:\Users\SOLDER~1\AppData\Local\Temp\ccheWc1y.s:28704  .debug_str:000000000001da9b .LASF3793
C:\Users\SOLDER~1\AppData\Local\Temp\ccheWc1y.s:32526  .debug_str:000000000002d1e1 .LASF3794
C:\Users\SOLDER~1\AppData\Local\Temp\ccheWc1y.s:25480  .debug_str:0000000000010a31 .LASF3795
C:\Users\SOLDER~1\AppData\Local\Temp\ccheWc1y.s:23900  .debug_str:000000000000a2a1 .LASF3796
C:\Users\SOLDER~1\AppData\Local\Temp\ccheWc1y.s:25380  .debug_str:00000000000103e0 .LASF3797
C:\Users\SOLDER~1\AppData\Local\Temp\ccheWc1y.s:31298  .debug_str:000000000002828a .LASF3798
C:\Users\SOLDER~1\AppData\Local\Temp\ccheWc1y.s:31908  .debug_str:000000000002aa53 .LASF3799
C:\Users\SOLDER~1\AppData\Local\Temp\ccheWc1y.s:28340  .debug_str:000000000001c261 .LASF3800
C:\Users\SOLDER~1\AppData\Local\Temp\ccheWc1y.s:29606  .debug_str:0000000000021458 .LASF3801
C:\Users\SOLDER~1\AppData\Local\Temp\ccheWc1y.s:27248  .debug_str:0000000000017cad .LASF3802
C:\Users\SOLDER~1\AppData\Local\Temp\ccheWc1y.s:31622  .debug_str:0000000000029779 .LASF3803
C:\Users\SOLDER~1\AppData\Local\Temp\ccheWc1y.s:29358  .debug_str:00000000000204a3 .LASF3804
C:\Users\SOLDER~1\AppData\Local\Temp\ccheWc1y.s:28460  .debug_str:000000000001ca2f .LASF3805
C:\Users\SOLDER~1\AppData\Local\Temp\ccheWc1y.s:21484  .debug_str:000000000000052b .LASF3806
C:\Users\SOLDER~1\AppData\Local\Temp\ccheWc1y.s:32262  .debug_str:000000000002c0a7 .LASF3807
C:\Users\SOLDER~1\AppData\Local\Temp\ccheWc1y.s:21550  .debug_str:0000000000000a53 .LASF3808
C:\Users\SOLDER~1\AppData\Local\Temp\ccheWc1y.s:26696  .debug_str:0000000000015987 .LASF3809
C:\Users\SOLDER~1\AppData\Local\Temp\ccheWc1y.s:27012  .debug_str:0000000000016d34 .LASF3810
C:\Users\SOLDER~1\AppData\Local\Temp\ccheWc1y.s:29318  .debug_str:000000000002024f .LASF3811
C:\Users\SOLDER~1\AppData\Local\Temp\ccheWc1y.s:26822  .debug_str:0000000000016138 .LASF3812
C:\Users\SOLDER~1\AppData\Local\Temp\ccheWc1y.s:23496  .debug_str:00000000000087f6 .LASF3813
C:\Users\SOLDER~1\AppData\Local\Temp\ccheWc1y.s:22436  .debug_str:000000000000436b .LASF3814
C:\Users\SOLDER~1\AppData\Local\Temp\ccheWc1y.s:23678  .debug_str:000000000000941f .LASF3815
C:\Users\SOLDER~1\AppData\Local\Temp\ccheWc1y.s:26798  .debug_str:0000000000015fc2 .LASF3816
C:\Users\SOLDER~1\AppData\Local\Temp\ccheWc1y.s:23516  .debug_str:000000000000893e .LASF3817
C:\Users\SOLDER~1\AppData\Local\Temp\ccheWc1y.s:24756  .debug_str:000000000000db32 .LASF3818
C:\Users\SOLDER~1\AppData\Local\Temp\ccheWc1y.s:22616  .debug_str:0000000000004ec7 .LASF3819
C:\Users\SOLDER~1\AppData\Local\Temp\ccheWc1y.s:30536  .debug_str:000000000002503e .LASF3820
C:\Users\SOLDER~1\AppData\Local\Temp\ccheWc1y.s:26028  .debug_str:0000000000012cac .LASF3821
C:\Users\SOLDER~1\AppData\Local\Temp\ccheWc1y.s:25354  .debug_str:0000000000010224 .LASF3822
GAS LISTING C:\Users\SOLDER~1\AppData\Local\Temp\ccheWc1y.s 			page 133


C:\Users\SOLDER~1\AppData\Local\Temp\ccheWc1y.s:28606  .debug_str:000000000001d3f4 .LASF3823
C:\Users\SOLDER~1\AppData\Local\Temp\ccheWc1y.s:31844  .debug_str:000000000002a602 .LASF3824
C:\Users\SOLDER~1\AppData\Local\Temp\ccheWc1y.s:23646  .debug_str:00000000000091f3 .LASF3825
C:\Users\SOLDER~1\AppData\Local\Temp\ccheWc1y.s:29788  .debug_str:0000000000021fd3 .LASF3826
C:\Users\SOLDER~1\AppData\Local\Temp\ccheWc1y.s:23882  .debug_str:000000000000a183 .LASF3827
C:\Users\SOLDER~1\AppData\Local\Temp\ccheWc1y.s:23284  .debug_str:00000000000079e7 .LASF3828
C:\Users\SOLDER~1\AppData\Local\Temp\ccheWc1y.s:24516  .debug_str:000000000000cb3b .LASF3829
C:\Users\SOLDER~1\AppData\Local\Temp\ccheWc1y.s:24504  .debug_str:000000000000ca6e .LASF3830
C:\Users\SOLDER~1\AppData\Local\Temp\ccheWc1y.s:22118  .debug_str:0000000000002f13 .LASF3831
C:\Users\SOLDER~1\AppData\Local\Temp\ccheWc1y.s:24302  .debug_str:000000000000bccc .LASF3832
C:\Users\SOLDER~1\AppData\Local\Temp\ccheWc1y.s:30276  .debug_str:0000000000023f75 .LASF3833
C:\Users\SOLDER~1\AppData\Local\Temp\ccheWc1y.s:28372  .debug_str:000000000001c49d .LASF3834
C:\Users\SOLDER~1\AppData\Local\Temp\ccheWc1y.s:24852  .debug_str:000000000000e12d .LASF3835
C:\Users\SOLDER~1\AppData\Local\Temp\ccheWc1y.s:32132  .debug_str:000000000002b8a9 .LASF3836
C:\Users\SOLDER~1\AppData\Local\Temp\ccheWc1y.s:30194  .debug_str:0000000000023a15 .LASF3837
C:\Users\SOLDER~1\AppData\Local\Temp\ccheWc1y.s:22502  .debug_str:00000000000047a4 .LASF3838
C:\Users\SOLDER~1\AppData\Local\Temp\ccheWc1y.s:30460  .debug_str:0000000000024b55 .LASF3839
C:\Users\SOLDER~1\AppData\Local\Temp\ccheWc1y.s:29984  .debug_str:0000000000022c32 .LASF3840
C:\Users\SOLDER~1\AppData\Local\Temp\ccheWc1y.s:22454  .debug_str:0000000000004489 .LASF3841
C:\Users\SOLDER~1\AppData\Local\Temp\ccheWc1y.s:24572  .debug_str:000000000000cf2c .LASF3842
C:\Users\SOLDER~1\AppData\Local\Temp\ccheWc1y.s:31690  .debug_str:0000000000029c16 .LASF3843
C:\Users\SOLDER~1\AppData\Local\Temp\ccheWc1y.s:23998  .debug_str:000000000000a96d .LASF3844
C:\Users\SOLDER~1\AppData\Local\Temp\ccheWc1y.s:30020  .debug_str:0000000000022e95 .LASF3845
C:\Users\SOLDER~1\AppData\Local\Temp\ccheWc1y.s:28596  .debug_str:000000000001d367 .LASF3846
C:\Users\SOLDER~1\AppData\Local\Temp\ccheWc1y.s:30332  .debug_str:00000000000242f4 .LASF3847
C:\Users\SOLDER~1\AppData\Local\Temp\ccheWc1y.s:25568  .debug_str:0000000000010fda .LASF3848
C:\Users\SOLDER~1\AppData\Local\Temp\ccheWc1y.s:26954  .debug_str:00000000000169e2 .LASF3849
C:\Users\SOLDER~1\AppData\Local\Temp\ccheWc1y.s:22880  .debug_str:0000000000005f4f .LASF3850
C:\Users\SOLDER~1\AppData\Local\Temp\ccheWc1y.s:24412  .debug_str:000000000000c3f4 .LASF3851
C:\Users\SOLDER~1\AppData\Local\Temp\ccheWc1y.s:24158  .debug_str:000000000000b3f2 .LASF3852
C:\Users\SOLDER~1\AppData\Local\Temp\ccheWc1y.s:24188  .debug_str:000000000000b5c2 .LASF3853
C:\Users\SOLDER~1\AppData\Local\Temp\ccheWc1y.s:22128  .debug_str:0000000000002fdc .LASF3854
C:\Users\SOLDER~1\AppData\Local\Temp\ccheWc1y.s:27698  .debug_str:0000000000019a0c .LASF3855
C:\Users\SOLDER~1\AppData\Local\Temp\ccheWc1y.s:24848  .debug_str:000000000000e0f2 .LASF3856
C:\Users\SOLDER~1\AppData\Local\Temp\ccheWc1y.s:32598  .debug_str:000000000002d6cb .LASF3857
C:\Users\SOLDER~1\AppData\Local\Temp\ccheWc1y.s:32296  .debug_str:000000000002c2d0 .LASF3858
C:\Users\SOLDER~1\AppData\Local\Temp\ccheWc1y.s:30706  .debug_str:0000000000025b42 .LASF3859
C:\Users\SOLDER~1\AppData\Local\Temp\ccheWc1y.s:28940  .debug_str:000000000001e94e .LASF3860
C:\Users\SOLDER~1\AppData\Local\Temp\ccheWc1y.s:21582  .debug_str:0000000000000c90 .LASF3861
C:\Users\SOLDER~1\AppData\Local\Temp\ccheWc1y.s:31748  .debug_str:0000000000029f9b .LASF3862
C:\Users\SOLDER~1\AppData\Local\Temp\ccheWc1y.s:22290  .debug_str:0000000000003a29 .LASF3863
C:\Users\SOLDER~1\AppData\Local\Temp\ccheWc1y.s:32670  .debug_str:000000000002db7f .LASF3864
C:\Users\SOLDER~1\AppData\Local\Temp\ccheWc1y.s:25004  .debug_str:000000000000eb54 .LASF3865
C:\Users\SOLDER~1\AppData\Local\Temp\ccheWc1y.s:24156  .debug_str:000000000000b3d2 .LASF3866
C:\Users\SOLDER~1\AppData\Local\Temp\ccheWc1y.s:25352  .debug_str:0000000000010204 .LASF3867
C:\Users\SOLDER~1\AppData\Local\Temp\ccheWc1y.s:27440  .debug_str:0000000000018936 .LASF3868
C:\Users\SOLDER~1\AppData\Local\Temp\ccheWc1y.s:28482  .debug_str:000000000001cbc8 .LASF3869
C:\Users\SOLDER~1\AppData\Local\Temp\ccheWc1y.s:24996  .debug_str:000000000000eac8 .LASF3870
C:\Users\SOLDER~1\AppData\Local\Temp\ccheWc1y.s:24914  .debug_str:000000000000e578 .LASF3871
C:\Users\SOLDER~1\AppData\Local\Temp\ccheWc1y.s:32778  .debug_str:000000000002e250 .LASF3872
C:\Users\SOLDER~1\AppData\Local\Temp\ccheWc1y.s:27538  .debug_str:0000000000018f5f .LASF3873
C:\Users\SOLDER~1\AppData\Local\Temp\ccheWc1y.s:22386  .debug_str:000000000000402f .LASF3874
C:\Users\SOLDER~1\AppData\Local\Temp\ccheWc1y.s:31580  .debug_str:00000000000294c0 .LASF3875
C:\Users\SOLDER~1\AppData\Local\Temp\ccheWc1y.s:23332  .debug_str:0000000000007d23 .LASF3876
C:\Users\SOLDER~1\AppData\Local\Temp\ccheWc1y.s:22384  .debug_str:000000000000400b .LASF3877
C:\Users\SOLDER~1\AppData\Local\Temp\ccheWc1y.s:27662  .debug_str:0000000000019796 .LASF3878
C:\Users\SOLDER~1\AppData\Local\Temp\ccheWc1y.s:24426  .debug_str:000000000000c4ef .LASF3879
GAS LISTING C:\Users\SOLDER~1\AppData\Local\Temp\ccheWc1y.s 			page 134


C:\Users\SOLDER~1\AppData\Local\Temp\ccheWc1y.s:24506  .debug_str:000000000000ca90 .LASF3880
C:\Users\SOLDER~1\AppData\Local\Temp\ccheWc1y.s:30544  .debug_str:00000000000250b8 .LASF3881
C:\Users\SOLDER~1\AppData\Local\Temp\ccheWc1y.s:25258  .debug_str:000000000000fb59 .LASF3882
C:\Users\SOLDER~1\AppData\Local\Temp\ccheWc1y.s:21422  .debug_str:0000000000000143 .LASF3883
C:\Users\SOLDER~1\AppData\Local\Temp\ccheWc1y.s:32206  .debug_str:000000000002bd3e .LASF3884
C:\Users\SOLDER~1\AppData\Local\Temp\ccheWc1y.s:31612  .debug_str:00000000000296be .LASF3885
C:\Users\SOLDER~1\AppData\Local\Temp\ccheWc1y.s:24884  .debug_str:000000000000e344 .LASF3886
C:\Users\SOLDER~1\AppData\Local\Temp\ccheWc1y.s:29516  .debug_str:0000000000020ebe .LASF3887
C:\Users\SOLDER~1\AppData\Local\Temp\ccheWc1y.s:21562  .debug_str:0000000000000b1f .LASF3888
C:\Users\SOLDER~1\AppData\Local\Temp\ccheWc1y.s:32862  .debug_str:000000000002e798 .LASF3889
C:\Users\SOLDER~1\AppData\Local\Temp\ccheWc1y.s:24146  .debug_str:000000000000b316 .LASF3890
C:\Users\SOLDER~1\AppData\Local\Temp\ccheWc1y.s:25426  .debug_str:000000000001069a .LASF3891
C:\Users\SOLDER~1\AppData\Local\Temp\ccheWc1y.s:32350  .debug_str:000000000002c6a3 .LASF3892
C:\Users\SOLDER~1\AppData\Local\Temp\ccheWc1y.s:23460  .debug_str:00000000000085c0 .LASF3893
C:\Users\SOLDER~1\AppData\Local\Temp\ccheWc1y.s:28624  .debug_str:000000000001d514 .LASF3894
C:\Users\SOLDER~1\AppData\Local\Temp\ccheWc1y.s:27624  .debug_str:000000000001954e .LASF3895
C:\Users\SOLDER~1\AppData\Local\Temp\ccheWc1y.s:29610  .debug_str:000000000002148e .LASF3896
C:\Users\SOLDER~1\AppData\Local\Temp\ccheWc1y.s:23796  .debug_str:0000000000009bea .LASF3897
C:\Users\SOLDER~1\AppData\Local\Temp\ccheWc1y.s:31322  .debug_str:0000000000028441 .LASF3898
C:\Users\SOLDER~1\AppData\Local\Temp\ccheWc1y.s:21826  .debug_str:0000000000001c45 .LASF3899
C:\Users\SOLDER~1\AppData\Local\Temp\ccheWc1y.s:27218  .debug_str:0000000000017aa5 .LASF3900
C:\Users\SOLDER~1\AppData\Local\Temp\ccheWc1y.s:32048  .debug_str:000000000002b308 .LASF3901
C:\Users\SOLDER~1\AppData\Local\Temp\ccheWc1y.s:32876  .debug_str:000000000002e881 .LASF3902
C:\Users\SOLDER~1\AppData\Local\Temp\ccheWc1y.s:25144  .debug_str:000000000000f41a .LASF3903
C:\Users\SOLDER~1\AppData\Local\Temp\ccheWc1y.s:26488  .debug_str:0000000000014c05 .LASF3904
C:\Users\SOLDER~1\AppData\Local\Temp\ccheWc1y.s:28532  .debug_str:000000000001cee3 .LASF3905
C:\Users\SOLDER~1\AppData\Local\Temp\ccheWc1y.s:30474  .debug_str:0000000000024c5d .LASF3906
C:\Users\SOLDER~1\AppData\Local\Temp\ccheWc1y.s:31544  .debug_str:0000000000029271 .LASF3907
C:\Users\SOLDER~1\AppData\Local\Temp\ccheWc1y.s:28896  .debug_str:000000000001e692 .LASF3908
C:\Users\SOLDER~1\AppData\Local\Temp\ccheWc1y.s:32874  .debug_str:000000000002e85e .LASF3909
C:\Users\SOLDER~1\AppData\Local\Temp\ccheWc1y.s:26868  .debug_str:0000000000016435 .LASF3910
C:\Users\SOLDER~1\AppData\Local\Temp\ccheWc1y.s:32732  .debug_str:000000000002df81 .LASF3911
C:\Users\SOLDER~1\AppData\Local\Temp\ccheWc1y.s:27416  .debug_str:00000000000187ae .LASF3912
C:\Users\SOLDER~1\AppData\Local\Temp\ccheWc1y.s:31372  .debug_str:0000000000028786 .LASF3913
C:\Users\SOLDER~1\AppData\Local\Temp\ccheWc1y.s:22524  .debug_str:0000000000004910 .LASF3914
C:\Users\SOLDER~1\AppData\Local\Temp\ccheWc1y.s:27926  .debug_str:000000000001a809 .LASF3915
C:\Users\SOLDER~1\AppData\Local\Temp\ccheWc1y.s:25102  .debug_str:000000000000f16f .LASF3916
C:\Users\SOLDER~1\AppData\Local\Temp\ccheWc1y.s:29622  .debug_str:000000000002155b .LASF3917
C:\Users\SOLDER~1\AppData\Local\Temp\ccheWc1y.s:26748  .debug_str:0000000000015c85 .LASF3918
C:\Users\SOLDER~1\AppData\Local\Temp\ccheWc1y.s:30898  .debug_str:000000000002683b .LASF3919
C:\Users\SOLDER~1\AppData\Local\Temp\ccheWc1y.s:31820  .debug_str:000000000002a475 .LASF3920
C:\Users\SOLDER~1\AppData\Local\Temp\ccheWc1y.s:30778  .debug_str:000000000002600e .LASF3921
C:\Users\SOLDER~1\AppData\Local\Temp\ccheWc1y.s:23200  .debug_str:00000000000074de .LASF3922
C:\Users\SOLDER~1\AppData\Local\Temp\ccheWc1y.s:29708  .debug_str:0000000000021adb .LASF3923
C:\Users\SOLDER~1\AppData\Local\Temp\ccheWc1y.s:25658  .debug_str:0000000000011564 .LASF3924
C:\Users\SOLDER~1\AppData\Local\Temp\ccheWc1y.s:29552  .debug_str:00000000000210e8 .LASF3925
C:\Users\SOLDER~1\AppData\Local\Temp\ccheWc1y.s:22674  .debug_str:0000000000005231 .LASF3926
C:\Users\SOLDER~1\AppData\Local\Temp\ccheWc1y.s:26212  .debug_str:00000000000138dc .LASF3927
C:\Users\SOLDER~1\AppData\Local\Temp\ccheWc1y.s:23814  .debug_str:0000000000009d02 .LASF3928
C:\Users\SOLDER~1\AppData\Local\Temp\ccheWc1y.s:22258  .debug_str:0000000000003820 .LASF3929
C:\Users\SOLDER~1\AppData\Local\Temp\ccheWc1y.s:23310  .debug_str:0000000000007ba3 .LASF3930
C:\Users\SOLDER~1\AppData\Local\Temp\ccheWc1y.s:29152  .debug_str:000000000001f755 .LASF3931
C:\Users\SOLDER~1\AppData\Local\Temp\ccheWc1y.s:28626  .debug_str:000000000001d52b .LASF3932
C:\Users\SOLDER~1\AppData\Local\Temp\ccheWc1y.s:31390  .debug_str:0000000000028891 .LASF3933
C:\Users\SOLDER~1\AppData\Local\Temp\ccheWc1y.s:30958  .debug_str:0000000000026c35 .LASF3934
C:\Users\SOLDER~1\AppData\Local\Temp\ccheWc1y.s:23808  .debug_str:0000000000009ca5 .LASF3935
C:\Users\SOLDER~1\AppData\Local\Temp\ccheWc1y.s:25040  .debug_str:000000000000edd5 .LASF3936
GAS LISTING C:\Users\SOLDER~1\AppData\Local\Temp\ccheWc1y.s 			page 135


C:\Users\SOLDER~1\AppData\Local\Temp\ccheWc1y.s:26824  .debug_str:000000000001615a .LASF3937
C:\Users\SOLDER~1\AppData\Local\Temp\ccheWc1y.s:22736  .debug_str:00000000000055d4 .LASF3938
C:\Users\SOLDER~1\AppData\Local\Temp\ccheWc1y.s:23492  .debug_str:00000000000087a1 .LASF3939
C:\Users\SOLDER~1\AppData\Local\Temp\ccheWc1y.s:31892  .debug_str:000000000002a952 .LASF3940
C:\Users\SOLDER~1\AppData\Local\Temp\ccheWc1y.s:27364  .debug_str:0000000000018422 .LASF3941
C:\Users\SOLDER~1\AppData\Local\Temp\ccheWc1y.s:24964  .debug_str:000000000000e8d8 .LASF3942
C:\Users\SOLDER~1\AppData\Local\Temp\ccheWc1y.s:29626  .debug_str:00000000000215a1 .LASF3943
C:\Users\SOLDER~1\AppData\Local\Temp\ccheWc1y.s:22016  .debug_str:00000000000028b0 .LASF3944
C:\Users\SOLDER~1\AppData\Local\Temp\ccheWc1y.s:28384  .debug_str:000000000001c53d .LASF3945
C:\Users\SOLDER~1\AppData\Local\Temp\ccheWc1y.s:23448  .debug_str:00000000000084eb .LASF3946
C:\Users\SOLDER~1\AppData\Local\Temp\ccheWc1y.s:29490  .debug_str:0000000000020d0d .LASF3947
C:\Users\SOLDER~1\AppData\Local\Temp\ccheWc1y.s:30650  .debug_str:00000000000257a7 .LASF3948
C:\Users\SOLDER~1\AppData\Local\Temp\ccheWc1y.s:26724  .debug_str:0000000000015b48 .LASF3949
C:\Users\SOLDER~1\AppData\Local\Temp\ccheWc1y.s:21684  .debug_str:0000000000001315 .LASF3950
C:\Users\SOLDER~1\AppData\Local\Temp\ccheWc1y.s:30238  .debug_str:0000000000023d05 .LASF3951
C:\Users\SOLDER~1\AppData\Local\Temp\ccheWc1y.s:22390  .debug_str:000000000000407b .LASF3952
C:\Users\SOLDER~1\AppData\Local\Temp\ccheWc1y.s:25390  .debug_str:000000000001047d .LASF3953
C:\Users\SOLDER~1\AppData\Local\Temp\ccheWc1y.s:26828  .debug_str:000000000001619b .LASF3954
C:\Users\SOLDER~1\AppData\Local\Temp\ccheWc1y.s:23386  .debug_str:00000000000080c8 .LASF3955
C:\Users\SOLDER~1\AppData\Local\Temp\ccheWc1y.s:21730  .debug_str:0000000000001619 .LASF3956
C:\Users\SOLDER~1\AppData\Local\Temp\ccheWc1y.s:33082  .debug_str:000000000002f572 .LASF3957
C:\Users\SOLDER~1\AppData\Local\Temp\ccheWc1y.s:25960  .debug_str:0000000000012882 .LASF3958
C:\Users\SOLDER~1\AppData\Local\Temp\ccheWc1y.s:27180  .debug_str:000000000001781c .LASF3959
C:\Users\SOLDER~1\AppData\Local\Temp\ccheWc1y.s:24918  .debug_str:000000000000e5bd .LASF3960
C:\Users\SOLDER~1\AppData\Local\Temp\ccheWc1y.s:27448  .debug_str:00000000000189af .LASF3961
C:\Users\SOLDER~1\AppData\Local\Temp\ccheWc1y.s:30664  .debug_str:000000000002589f .LASF3962
C:\Users\SOLDER~1\AppData\Local\Temp\ccheWc1y.s:24916  .debug_str:000000000000e596 .LASF3963
C:\Users\SOLDER~1\AppData\Local\Temp\ccheWc1y.s:25052  .debug_str:000000000000ee8b .LASF3964
C:\Users\SOLDER~1\AppData\Local\Temp\ccheWc1y.s:29554  .debug_str:0000000000021108 .LASF3965
C:\Users\SOLDER~1\AppData\Local\Temp\ccheWc1y.s:29620  .debug_str:0000000000021533 .LASF3966
C:\Users\SOLDER~1\AppData\Local\Temp\ccheWc1y.s:28568  .debug_str:000000000001d174 .LASF3967
C:\Users\SOLDER~1\AppData\Local\Temp\ccheWc1y.s:30378  .debug_str:0000000000024605 .LASF3968
C:\Users\SOLDER~1\AppData\Local\Temp\ccheWc1y.s:27326  .debug_str:0000000000018191 .LASF3969
C:\Users\SOLDER~1\AppData\Local\Temp\ccheWc1y.s:24496  .debug_str:000000000000c9e4 .LASF3970
C:\Users\SOLDER~1\AppData\Local\Temp\ccheWc1y.s:24044  .debug_str:000000000000ac70 .LASF3971
C:\Users\SOLDER~1\AppData\Local\Temp\ccheWc1y.s:22532  .debug_str:000000000000499b .LASF3972
C:\Users\SOLDER~1\AppData\Local\Temp\ccheWc1y.s:30912  .debug_str:000000000002693f .LASF3973
C:\Users\SOLDER~1\AppData\Local\Temp\ccheWc1y.s:25310  .debug_str:000000000000ff1d .LASF3974
C:\Users\SOLDER~1\AppData\Local\Temp\ccheWc1y.s:25514  .debug_str:0000000000010c20 .LASF3975
C:\Users\SOLDER~1\AppData\Local\Temp\ccheWc1y.s:21540  .debug_str:00000000000009a7 .LASF3976
C:\Users\SOLDER~1\AppData\Local\Temp\ccheWc1y.s:23102  .debug_str:0000000000006e32 .LASF3977
C:\Users\SOLDER~1\AppData\Local\Temp\ccheWc1y.s:32964  .debug_str:000000000002edfd .LASF3978
C:\Users\SOLDER~1\AppData\Local\Temp\ccheWc1y.s:23978  .debug_str:000000000000a7dd .LASF3979
C:\Users\SOLDER~1\AppData\Local\Temp\ccheWc1y.s:27090  .debug_str:00000000000171e7 .LASF3980
C:\Users\SOLDER~1\AppData\Local\Temp\ccheWc1y.s:31074  .debug_str:00000000000273d4 .LASF3981
C:\Users\SOLDER~1\AppData\Local\Temp\ccheWc1y.s:28140  .debug_str:000000000001b5ef .LASF3982
C:\Users\SOLDER~1\AppData\Local\Temp\ccheWc1y.s:31510  .debug_str:000000000002907f .LASF3983
C:\Users\SOLDER~1\AppData\Local\Temp\ccheWc1y.s:27262  .debug_str:0000000000017d73 .LASF3984
C:\Users\SOLDER~1\AppData\Local\Temp\ccheWc1y.s:31068  .debug_str:0000000000027369 .LASF3985
C:\Users\SOLDER~1\AppData\Local\Temp\ccheWc1y.s:33024  .debug_str:000000000002f20e .LASF3986
C:\Users\SOLDER~1\AppData\Local\Temp\ccheWc1y.s:23052  .debug_str:0000000000006b31 .LASF3987
C:\Users\SOLDER~1\AppData\Local\Temp\ccheWc1y.s:28762  .debug_str:000000000001de0d .LASF3988
C:\Users\SOLDER~1\AppData\Local\Temp\ccheWc1y.s:23228  .debug_str:00000000000076ab .LASF3989
C:\Users\SOLDER~1\AppData\Local\Temp\ccheWc1y.s:30938  .debug_str:0000000000026b0a .LASF3990
C:\Users\SOLDER~1\AppData\Local\Temp\ccheWc1y.s:22382  .debug_str:0000000000003fee .LASF3991
C:\Users\SOLDER~1\AppData\Local\Temp\ccheWc1y.s:30370  .debug_str:0000000000024582 .LASF3992
C:\Users\SOLDER~1\AppData\Local\Temp\ccheWc1y.s:23628  .debug_str:00000000000090b8 .LASF3993
GAS LISTING C:\Users\SOLDER~1\AppData\Local\Temp\ccheWc1y.s 			page 136


C:\Users\SOLDER~1\AppData\Local\Temp\ccheWc1y.s:24230  .debug_str:000000000000b8a3 .LASF3994
C:\Users\SOLDER~1\AppData\Local\Temp\ccheWc1y.s:24520  .debug_str:000000000000cb81 .LASF3995
C:\Users\SOLDER~1\AppData\Local\Temp\ccheWc1y.s:30454  .debug_str:0000000000024ae6 .LASF3996
C:\Users\SOLDER~1\AppData\Local\Temp\ccheWc1y.s:32058  .debug_str:000000000002b3a9 .LASF3997
C:\Users\SOLDER~1\AppData\Local\Temp\ccheWc1y.s:23672  .debug_str:00000000000093e4 .LASF3998
C:\Users\SOLDER~1\AppData\Local\Temp\ccheWc1y.s:26016  .debug_str:0000000000012c18 .LASF3999
C:\Users\SOLDER~1\AppData\Local\Temp\ccheWc1y.s:26500  .debug_str:0000000000014cb6 .LASF4000
C:\Users\SOLDER~1\AppData\Local\Temp\ccheWc1y.s:31280  .debug_str:0000000000028148 .LASF4001
C:\Users\SOLDER~1\AppData\Local\Temp\ccheWc1y.s:32886  .debug_str:000000000002e90b .LASF4002
C:\Users\SOLDER~1\AppData\Local\Temp\ccheWc1y.s:21952  .debug_str:00000000000024b8 .LASF4003
C:\Users\SOLDER~1\AppData\Local\Temp\ccheWc1y.s:26960  .debug_str:0000000000016a2d .LASF4004
C:\Users\SOLDER~1\AppData\Local\Temp\ccheWc1y.s:30386  .debug_str:000000000002467e .LASF4005
C:\Users\SOLDER~1\AppData\Local\Temp\ccheWc1y.s:31626  .debug_str:00000000000297b3 .LASF4006
C:\Users\SOLDER~1\AppData\Local\Temp\ccheWc1y.s:22730  .debug_str:0000000000005585 .LASF4007
C:\Users\SOLDER~1\AppData\Local\Temp\ccheWc1y.s:23422  .debug_str:0000000000008348 .LASF4008
C:\Users\SOLDER~1\AppData\Local\Temp\ccheWc1y.s:21648  .debug_str:00000000000010cd .LASF4009
C:\Users\SOLDER~1\AppData\Local\Temp\ccheWc1y.s:31482  .debug_str:0000000000028eba .LASF4010
C:\Users\SOLDER~1\AppData\Local\Temp\ccheWc1y.s:21614  .debug_str:0000000000000ebd .LASF4011
C:\Users\SOLDER~1\AppData\Local\Temp\ccheWc1y.s:31968  .debug_str:000000000002ae09 .LASF4012
C:\Users\SOLDER~1\AppData\Local\Temp\ccheWc1y.s:31502  .debug_str:0000000000028ff2 .LASF4013
C:\Users\SOLDER~1\AppData\Local\Temp\ccheWc1y.s:27918  .debug_str:000000000001a78b .LASF4014
C:\Users\SOLDER~1\AppData\Local\Temp\ccheWc1y.s:24032  .debug_str:000000000000aba0 .LASF4015
C:\Users\SOLDER~1\AppData\Local\Temp\ccheWc1y.s:21864  .debug_str:0000000000001ed7 .LASF4016
C:\Users\SOLDER~1\AppData\Local\Temp\ccheWc1y.s:32560  .debug_str:000000000002d41b .LASF4017
C:\Users\SOLDER~1\AppData\Local\Temp\ccheWc1y.s:29802  .debug_str:00000000000220d3 .LASF4018
C:\Users\SOLDER~1\AppData\Local\Temp\ccheWc1y.s:21466  .debug_str:000000000000040d .LASF4019
C:\Users\SOLDER~1\AppData\Local\Temp\ccheWc1y.s:24484  .debug_str:000000000000c92d .LASF4020
C:\Users\SOLDER~1\AppData\Local\Temp\ccheWc1y.s:24312  .debug_str:000000000000bd82 .LASF4021
C:\Users\SOLDER~1\AppData\Local\Temp\ccheWc1y.s:30428  .debug_str:0000000000024940 .LASF4022
C:\Users\SOLDER~1\AppData\Local\Temp\ccheWc1y.s:30792  .debug_str:000000000002611f .LASF4023
C:\Users\SOLDER~1\AppData\Local\Temp\ccheWc1y.s:31418  .debug_str:0000000000028a69 .LASF4024
C:\Users\SOLDER~1\AppData\Local\Temp\ccheWc1y.s:22420  .debug_str:0000000000004282 .LASF4025
C:\Users\SOLDER~1\AppData\Local\Temp\ccheWc1y.s:29054  .debug_str:000000000001f0e7 .LASF4026
C:\Users\SOLDER~1\AppData\Local\Temp\ccheWc1y.s:26596  .debug_str:0000000000015321 .LASF4027
C:\Users\SOLDER~1\AppData\Local\Temp\ccheWc1y.s:32944  .debug_str:000000000002eca7 .LASF4028
C:\Users\SOLDER~1\AppData\Local\Temp\ccheWc1y.s:22274  .debug_str:000000000000392c .LASF4029
C:\Users\SOLDER~1\AppData\Local\Temp\ccheWc1y.s:28260  .debug_str:000000000001bd6f .LASF4030
C:\Users\SOLDER~1\AppData\Local\Temp\ccheWc1y.s:30962  .debug_str:0000000000026c82 .LASF4031
C:\Users\SOLDER~1\AppData\Local\Temp\ccheWc1y.s:31988  .debug_str:000000000002af18 .LASF4032
C:\Users\SOLDER~1\AppData\Local\Temp\ccheWc1y.s:30164  .debug_str:00000000000237fc .LASF4033
C:\Users\SOLDER~1\AppData\Local\Temp\ccheWc1y.s:24314  .debug_str:000000000000bd9f .LASF4034
C:\Users\SOLDER~1\AppData\Local\Temp\ccheWc1y.s:31824  .debug_str:000000000002a4b8 .LASF4035
C:\Users\SOLDER~1\AppData\Local\Temp\ccheWc1y.s:23764  .debug_str:00000000000099bf .LASF4036
C:\Users\SOLDER~1\AppData\Local\Temp\ccheWc1y.s:22594  .debug_str:0000000000004d81 .LASF4037
C:\Users\SOLDER~1\AppData\Local\Temp\ccheWc1y.s:27424  .debug_str:000000000001883a .LASF4038
C:\Users\SOLDER~1\AppData\Local\Temp\ccheWc1y.s:23508  .debug_str:00000000000088d2 .LASF4039
C:\Users\SOLDER~1\AppData\Local\Temp\ccheWc1y.s:29584  .debug_str:00000000000212c8 .LASF4040
C:\Users\SOLDER~1\AppData\Local\Temp\ccheWc1y.s:32690  .debug_str:000000000002dcbc .LASF4041
C:\Users\SOLDER~1\AppData\Local\Temp\ccheWc1y.s:25138  .debug_str:000000000000f3c5 .LASF4042
C:\Users\SOLDER~1\AppData\Local\Temp\ccheWc1y.s:32802  .debug_str:000000000002e3e6 .LASF4043
C:\Users\SOLDER~1\AppData\Local\Temp\ccheWc1y.s:29342  .debug_str:00000000000203c0 .LASF4044
C:\Users\SOLDER~1\AppData\Local\Temp\ccheWc1y.s:22790  .debug_str:0000000000005973 .LASF4045
C:\Users\SOLDER~1\AppData\Local\Temp\ccheWc1y.s:28770  .debug_str:000000000001de4f .LASF4046
C:\Users\SOLDER~1\AppData\Local\Temp\ccheWc1y.s:22782  .debug_str:00000000000058e6 .LASF4047
C:\Users\SOLDER~1\AppData\Local\Temp\ccheWc1y.s:30638  .debug_str:0000000000025704 .LASF4048
C:\Users\SOLDER~1\AppData\Local\Temp\ccheWc1y.s:25694  .debug_str:00000000000117c5 .LASF4049
C:\Users\SOLDER~1\AppData\Local\Temp\ccheWc1y.s:26268  .debug_str:0000000000013c9c .LASF4050
GAS LISTING C:\Users\SOLDER~1\AppData\Local\Temp\ccheWc1y.s 			page 137


C:\Users\SOLDER~1\AppData\Local\Temp\ccheWc1y.s:22084  .debug_str:0000000000002cf4 .LASF4051
C:\Users\SOLDER~1\AppData\Local\Temp\ccheWc1y.s:26382  .debug_str:00000000000144c8 .LASF4052
C:\Users\SOLDER~1\AppData\Local\Temp\ccheWc1y.s:25482  .debug_str:0000000000010a47 .LASF4053
C:\Users\SOLDER~1\AppData\Local\Temp\ccheWc1y.s:25668  .debug_str:000000000001161d .LASF4054
C:\Users\SOLDER~1\AppData\Local\Temp\ccheWc1y.s:30034  .debug_str:0000000000022fa2 .LASF4055
C:\Users\SOLDER~1\AppData\Local\Temp\ccheWc1y.s:25588  .debug_str:00000000000110ff .LASF4056
C:\Users\SOLDER~1\AppData\Local\Temp\ccheWc1y.s:22176  .debug_str:00000000000032d3 .LASF4057
C:\Users\SOLDER~1\AppData\Local\Temp\ccheWc1y.s:26126  .debug_str:0000000000013341 .LASF4058
C:\Users\SOLDER~1\AppData\Local\Temp\ccheWc1y.s:26042  .debug_str:0000000000012d85 .LASF4059
C:\Users\SOLDER~1\AppData\Local\Temp\ccheWc1y.s:23664  .debug_str:000000000000935f .LASF4060
C:\Users\SOLDER~1\AppData\Local\Temp\ccheWc1y.s:22878  .debug_str:0000000000005f34 .LASF4061
C:\Users\SOLDER~1\AppData\Local\Temp\ccheWc1y.s:29580  .debug_str:000000000002129e .LASF4062
C:\Users\SOLDER~1\AppData\Local\Temp\ccheWc1y.s:27206  .debug_str:00000000000179e2 .LASF4063
C:\Users\SOLDER~1\AppData\Local\Temp\ccheWc1y.s:29452  .debug_str:0000000000020a8a .LASF4064
C:\Users\SOLDER~1\AppData\Local\Temp\ccheWc1y.s:29840  .debug_str:0000000000022340 .LASF4065
C:\Users\SOLDER~1\AppData\Local\Temp\ccheWc1y.s:30042  .debug_str:0000000000023033 .LASF4066
C:\Users\SOLDER~1\AppData\Local\Temp\ccheWc1y.s:25996  .debug_str:0000000000012ad4 .LASF4067
C:\Users\SOLDER~1\AppData\Local\Temp\ccheWc1y.s:30176  .debug_str:00000000000238b9 .LASF4068
C:\Users\SOLDER~1\AppData\Local\Temp\ccheWc1y.s:22930  .debug_str:00000000000062d5 .LASF4069
C:\Users\SOLDER~1\AppData\Local\Temp\ccheWc1y.s:30320  .debug_str:000000000002422a .LASF4070
C:\Users\SOLDER~1\AppData\Local\Temp\ccheWc1y.s:27496  .debug_str:0000000000018cc6 .LASF4071
C:\Users\SOLDER~1\AppData\Local\Temp\ccheWc1y.s:29818  .debug_str:00000000000221e1 .LASF4072
C:\Users\SOLDER~1\AppData\Local\Temp\ccheWc1y.s:21912  .debug_str:00000000000021fe .LASF4073
C:\Users\SOLDER~1\AppData\Local\Temp\ccheWc1y.s:30948  .debug_str:0000000000026ba0 .LASF4074
C:\Users\SOLDER~1\AppData\Local\Temp\ccheWc1y.s:30878  .debug_str:00000000000266d3 .LASF4075
C:\Users\SOLDER~1\AppData\Local\Temp\ccheWc1y.s:26118  .debug_str:00000000000132b5 .LASF4076
C:\Users\SOLDER~1\AppData\Local\Temp\ccheWc1y.s:30746  .debug_str:0000000000025dcf .LASF4077
C:\Users\SOLDER~1\AppData\Local\Temp\ccheWc1y.s:22318  .debug_str:0000000000003c15 .LASF4078
C:\Users\SOLDER~1\AppData\Local\Temp\ccheWc1y.s:25296  .debug_str:000000000000fe20 .LASF4079
C:\Users\SOLDER~1\AppData\Local\Temp\ccheWc1y.s:24196  .debug_str:000000000000b648 .LASF4080
C:\Users\SOLDER~1\AppData\Local\Temp\ccheWc1y.s:22588  .debug_str:0000000000004d1c .LASF4081
C:\Users\SOLDER~1\AppData\Local\Temp\ccheWc1y.s:31276  .debug_str:0000000000028110 .LASF4082
C:\Users\SOLDER~1\AppData\Local\Temp\ccheWc1y.s:31332  .debug_str:00000000000284bf .LASF4083
C:\Users\SOLDER~1\AppData\Local\Temp\ccheWc1y.s:32290  .debug_str:000000000002c282 .LASF4084
C:\Users\SOLDER~1\AppData\Local\Temp\ccheWc1y.s:30172  .debug_str:000000000002388e .LASF4085
C:\Users\SOLDER~1\AppData\Local\Temp\ccheWc1y.s:31454  .debug_str:0000000000028caa .LASF4086
C:\Users\SOLDER~1\AppData\Local\Temp\ccheWc1y.s:28428  .debug_str:000000000001c855 .LASF4087
C:\Users\SOLDER~1\AppData\Local\Temp\ccheWc1y.s:26536  .debug_str:0000000000014f16 .LASF4088
C:\Users\SOLDER~1\AppData\Local\Temp\ccheWc1y.s:22404  .debug_str:000000000000415d .LASF4089
C:\Users\SOLDER~1\AppData\Local\Temp\ccheWc1y.s:28210  .debug_str:000000000001ba6e .LASF4090
C:\Users\SOLDER~1\AppData\Local\Temp\ccheWc1y.s:32196  .debug_str:000000000002bc83 .LASF4091
C:\Users\SOLDER~1\AppData\Local\Temp\ccheWc1y.s:33048  .debug_str:000000000002f376 .LASF4092
C:\Users\SOLDER~1\AppData\Local\Temp\ccheWc1y.s:23198  .debug_str:00000000000074c1 .LASF4093
C:\Users\SOLDER~1\AppData\Local\Temp\ccheWc1y.s:32502  .debug_str:000000000002d06c .LASF4094
C:\Users\SOLDER~1\AppData\Local\Temp\ccheWc1y.s:32764  .debug_str:000000000002e153 .LASF4095
C:\Users\SOLDER~1\AppData\Local\Temp\ccheWc1y.s:27412  .debug_str:0000000000018780 .LASF4096
C:\Users\SOLDER~1\AppData\Local\Temp\ccheWc1y.s:21732  .debug_str:0000000000001634 .LASF4097
C:\Users\SOLDER~1\AppData\Local\Temp\ccheWc1y.s:22544  .debug_str:0000000000004a4f .LASF4098
C:\Users\SOLDER~1\AppData\Local\Temp\ccheWc1y.s:22370  .debug_str:0000000000003f58 .LASF4099
C:\Users\SOLDER~1\AppData\Local\Temp\ccheWc1y.s:28214  .debug_str:000000000001baa8 .LASF4100
C:\Users\SOLDER~1\AppData\Local\Temp\ccheWc1y.s:32050  .debug_str:000000000002b329 .LASF4101
C:\Users\SOLDER~1\AppData\Local\Temp\ccheWc1y.s:26574  .debug_str:00000000000151a7 .LASF4102
C:\Users\SOLDER~1\AppData\Local\Temp\ccheWc1y.s:22540  .debug_str:0000000000004a1c .LASF4103
C:\Users\SOLDER~1\AppData\Local\Temp\ccheWc1y.s:27670  .debug_str:0000000000019826 .LASF4104
C:\Users\SOLDER~1\AppData\Local\Temp\ccheWc1y.s:23972  .debug_str:000000000000a78b .LASF4105
C:\Users\SOLDER~1\AppData\Local\Temp\ccheWc1y.s:23892  .debug_str:000000000000a227 .LASF4106
C:\Users\SOLDER~1\AppData\Local\Temp\ccheWc1y.s:32684  .debug_str:000000000002dc49 .LASF4107
GAS LISTING C:\Users\SOLDER~1\AppData\Local\Temp\ccheWc1y.s 			page 138


C:\Users\SOLDER~1\AppData\Local\Temp\ccheWc1y.s:27554  .debug_str:000000000001907c .LASF4108
C:\Users\SOLDER~1\AppData\Local\Temp\ccheWc1y.s:25646  .debug_str:00000000000114a8 .LASF4109
C:\Users\SOLDER~1\AppData\Local\Temp\ccheWc1y.s:22378  .debug_str:0000000000003fc9 .LASF4110
C:\Users\SOLDER~1\AppData\Local\Temp\ccheWc1y.s:29980  .debug_str:0000000000022bf8 .LASF4111
C:\Users\SOLDER~1\AppData\Local\Temp\ccheWc1y.s:25500  .debug_str:0000000000010b5d .LASF4112
C:\Users\SOLDER~1\AppData\Local\Temp\ccheWc1y.s:27504  .debug_str:0000000000018d3f .LASF4113
C:\Users\SOLDER~1\AppData\Local\Temp\ccheWc1y.s:29724  .debug_str:0000000000021c01 .LASF4114
C:\Users\SOLDER~1\AppData\Local\Temp\ccheWc1y.s:27742  .debug_str:0000000000019d05 .LASF4115
C:\Users\SOLDER~1\AppData\Local\Temp\ccheWc1y.s:24962  .debug_str:000000000000e8ba .LASF4116
C:\Users\SOLDER~1\AppData\Local\Temp\ccheWc1y.s:32714  .debug_str:000000000002de52 .LASF4117
C:\Users\SOLDER~1\AppData\Local\Temp\ccheWc1y.s:23828  .debug_str:0000000000009ddc .LASF4118
C:\Users\SOLDER~1\AppData\Local\Temp\ccheWc1y.s:23122  .debug_str:0000000000006f99 .LASF4119
C:\Users\SOLDER~1\AppData\Local\Temp\ccheWc1y.s:31200  .debug_str:0000000000027c44 .LASF4120
C:\Users\SOLDER~1\AppData\Local\Temp\ccheWc1y.s:25636  .debug_str:000000000001140f .LASF4121
C:\Users\SOLDER~1\AppData\Local\Temp\ccheWc1y.s:22712  .debug_str:000000000000548b .LASF4122
C:\Users\SOLDER~1\AppData\Local\Temp\ccheWc1y.s:23054  .debug_str:0000000000006b4c .LASF4123
C:\Users\SOLDER~1\AppData\Local\Temp\ccheWc1y.s:26818  .debug_str:00000000000160f8 .LASF4124
C:\Users\SOLDER~1\AppData\Local\Temp\ccheWc1y.s:24212  .debug_str:000000000000b763 .LASF4125
C:\Users\SOLDER~1\AppData\Local\Temp\ccheWc1y.s:21842  .debug_str:0000000000001d73 .LASF4126
C:\Users\SOLDER~1\AppData\Local\Temp\ccheWc1y.s:26614  .debug_str:000000000001543a .LASF4127
C:\Users\SOLDER~1\AppData\Local\Temp\ccheWc1y.s:24364  .debug_str:000000000000c0d2 .LASF4128
C:\Users\SOLDER~1\AppData\Local\Temp\ccheWc1y.s:31818  .debug_str:000000000002a463 .LASF4129
C:\Users\SOLDER~1\AppData\Local\Temp\ccheWc1y.s:22012  .debug_str:0000000000002872 .LASF4130
C:\Users\SOLDER~1\AppData\Local\Temp\ccheWc1y.s:24004  .debug_str:000000000000a9d9 .LASF4131
C:\Users\SOLDER~1\AppData\Local\Temp\ccheWc1y.s:28810  .debug_str:000000000001e0de .LASF4132
C:\Users\SOLDER~1\AppData\Local\Temp\ccheWc1y.s:24654  .debug_str:000000000000d4aa .LASF4133
C:\Users\SOLDER~1\AppData\Local\Temp\ccheWc1y.s:22752  .debug_str:00000000000056c9 .LASF4134
C:\Users\SOLDER~1\AppData\Local\Temp\ccheWc1y.s:25430  .debug_str:00000000000106d6 .LASF4135
C:\Users\SOLDER~1\AppData\Local\Temp\ccheWc1y.s:31174  .debug_str:0000000000027a8b .LASF4136
C:\Users\SOLDER~1\AppData\Local\Temp\ccheWc1y.s:30206  .debug_str:0000000000023afe .LASF4137
C:\Users\SOLDER~1\AppData\Local\Temp\ccheWc1y.s:32990  .debug_str:000000000002efcf .LASF4138
C:\Users\SOLDER~1\AppData\Local\Temp\ccheWc1y.s:26504  .debug_str:0000000000014cee .LASF4139
C:\Users\SOLDER~1\AppData\Local\Temp\ccheWc1y.s:23256  .debug_str:000000000000785d .LASF4140
C:\Users\SOLDER~1\AppData\Local\Temp\ccheWc1y.s:30274  .debug_str:0000000000023f57 .LASF4141
C:\Users\SOLDER~1\AppData\Local\Temp\ccheWc1y.s:23418  .debug_str:0000000000008317 .LASF4142
C:\Users\SOLDER~1\AppData\Local\Temp\ccheWc1y.s:31850  .debug_str:000000000002a668 .LASF4143
C:\Users\SOLDER~1\AppData\Local\Temp\ccheWc1y.s:30424  .debug_str:0000000000024914 .LASF4144
C:\Users\SOLDER~1\AppData\Local\Temp\ccheWc1y.s:26650  .debug_str:000000000001566e .LASF4145
C:\Users\SOLDER~1\AppData\Local\Temp\ccheWc1y.s:24948  .debug_str:000000000000e7d0 .LASF4146
C:\Users\SOLDER~1\AppData\Local\Temp\ccheWc1y.s:30010  .debug_str:0000000000022df7 .LASF4147
C:\Users\SOLDER~1\AppData\Local\Temp\ccheWc1y.s:30208  .debug_str:0000000000023b11 .LASF4148
C:\Users\SOLDER~1\AppData\Local\Temp\ccheWc1y.s:22112  .debug_str:0000000000002ebf .LASF4149
C:\Users\SOLDER~1\AppData\Local\Temp\ccheWc1y.s:29466  .debug_str:0000000000020b84 .LASF4150
C:\Users\SOLDER~1\AppData\Local\Temp\ccheWc1y.s:32282  .debug_str:000000000002c1f0 .LASF4151
C:\Users\SOLDER~1\AppData\Local\Temp\ccheWc1y.s:29698  .debug_str:0000000000021a3e .LASF4152
C:\Users\SOLDER~1\AppData\Local\Temp\ccheWc1y.s:28364  .debug_str:000000000001c406 .LASF4153
C:\Users\SOLDER~1\AppData\Local\Temp\ccheWc1y.s:22558  .debug_str:0000000000004b16 .LASF4154
C:\Users\SOLDER~1\AppData\Local\Temp\ccheWc1y.s:21972  .debug_str:00000000000025f2 .LASF4155
C:\Users\SOLDER~1\AppData\Local\Temp\ccheWc1y.s:24088  .debug_str:000000000000af33 .LASF4156
C:\Users\SOLDER~1\AppData\Local\Temp\ccheWc1y.s:27488  .debug_str:0000000000018c47 .LASF4157
C:\Users\SOLDER~1\AppData\Local\Temp\ccheWc1y.s:31922  .debug_str:000000000002ab2c .LASF4158
C:\Users\SOLDER~1\AppData\Local\Temp\ccheWc1y.s:29926  .debug_str:000000000002285a .LASF4159
C:\Users\SOLDER~1\AppData\Local\Temp\ccheWc1y.s:27772  .debug_str:0000000000019eb6 .LASF4160
C:\Users\SOLDER~1\AppData\Local\Temp\ccheWc1y.s:22008  .debug_str:000000000000282e .LASF4161
C:\Users\SOLDER~1\AppData\Local\Temp\ccheWc1y.s:25958  .debug_str:0000000000012864 .LASF4162
C:\Users\SOLDER~1\AppData\Local\Temp\ccheWc1y.s:29448  .debug_str:0000000000020a4a .LASF4163
C:\Users\SOLDER~1\AppData\Local\Temp\ccheWc1y.s:26976  .debug_str:0000000000016b15 .LASF4164
GAS LISTING C:\Users\SOLDER~1\AppData\Local\Temp\ccheWc1y.s 			page 139


C:\Users\SOLDER~1\AppData\Local\Temp\ccheWc1y.s:24036  .debug_str:000000000000abea .LASF4165
C:\Users\SOLDER~1\AppData\Local\Temp\ccheWc1y.s:30248  .debug_str:0000000000023dc4 .LASF4166
C:\Users\SOLDER~1\AppData\Local\Temp\ccheWc1y.s:23918  .debug_str:000000000000a3ec .LASF4167
C:\Users\SOLDER~1\AppData\Local\Temp\ccheWc1y.s:31328  .debug_str:000000000002849a .LASF4168
C:\Users\SOLDER~1\AppData\Local\Temp\ccheWc1y.s:29090  .debug_str:000000000001f33c .LASF4169
C:\Users\SOLDER~1\AppData\Local\Temp\ccheWc1y.s:32248  .debug_str:000000000002bfd9 .LASF4170
C:\Users\SOLDER~1\AppData\Local\Temp\ccheWc1y.s:28310  .debug_str:000000000001c09e .LASF4171
C:\Users\SOLDER~1\AppData\Local\Temp\ccheWc1y.s:31546  .debug_str:0000000000029296 .LASF4172
C:\Users\SOLDER~1\AppData\Local\Temp\ccheWc1y.s:32640  .debug_str:000000000002d99a .LASF4173
C:\Users\SOLDER~1\AppData\Local\Temp\ccheWc1y.s:22632  .debug_str:0000000000004fb4 .LASF4174
C:\Users\SOLDER~1\AppData\Local\Temp\ccheWc1y.s:32890  .debug_str:000000000002e936 .LASF4175
C:\Users\SOLDER~1\AppData\Local\Temp\ccheWc1y.s:29234  .debug_str:000000000001fcf0 .LASF4176
C:\Users\SOLDER~1\AppData\Local\Temp\ccheWc1y.s:31212  .debug_str:0000000000027d12 .LASF4177
C:\Users\SOLDER~1\AppData\Local\Temp\ccheWc1y.s:30720  .debug_str:0000000000025c32 .LASF4178
C:\Users\SOLDER~1\AppData\Local\Temp\ccheWc1y.s:25206  .debug_str:000000000000f7f3 .LASF4179
C:\Users\SOLDER~1\AppData\Local\Temp\ccheWc1y.s:27842  .debug_str:000000000001a2d8 .LASF4180
C:\Users\SOLDER~1\AppData\Local\Temp\ccheWc1y.s:22874  .debug_str:0000000000005ef1 .LASF4181
C:\Users\SOLDER~1\AppData\Local\Temp\ccheWc1y.s:22484  .debug_str:0000000000004662 .LASF4182
C:\Users\SOLDER~1\AppData\Local\Temp\ccheWc1y.s:23154  .debug_str:00000000000071ea .LASF4183
C:\Users\SOLDER~1\AppData\Local\Temp\ccheWc1y.s:30610  .debug_str:0000000000025538 .LASF4184
C:\Users\SOLDER~1\AppData\Local\Temp\ccheWc1y.s:26390  .debug_str:0000000000014530 .LASF4185
C:\Users\SOLDER~1\AppData\Local\Temp\ccheWc1y.s:32786  .debug_str:000000000002e2ca .LASF4186
C:\Users\SOLDER~1\AppData\Local\Temp\ccheWc1y.s:30106  .debug_str:000000000002345a .LASF4187
C:\Users\SOLDER~1\AppData\Local\Temp\ccheWc1y.s:23368  .debug_str:0000000000007f91 .LASF4188
C:\Users\SOLDER~1\AppData\Local\Temp\ccheWc1y.s:30250  .debug_str:0000000000023de2 .LASF4189
C:\Users\SOLDER~1\AppData\Local\Temp\ccheWc1y.s:23262  .debug_str:00000000000078af .LASF4190
C:\Users\SOLDER~1\AppData\Local\Temp\ccheWc1y.s:23050  .debug_str:0000000000006b1d .LASF4191
C:\Users\SOLDER~1\AppData\Local\Temp\ccheWc1y.s:31590  .debug_str:0000000000029549 .LASF4192
C:\Users\SOLDER~1\AppData\Local\Temp\ccheWc1y.s:21894  .debug_str:00000000000020bc .LASF4193
C:\Users\SOLDER~1\AppData\Local\Temp\ccheWc1y.s:30682  .debug_str:00000000000259c5 .LASF4194
C:\Users\SOLDER~1\AppData\Local\Temp\ccheWc1y.s:24544  .debug_str:000000000000cd34 .LASF4195
C:\Users\SOLDER~1\AppData\Local\Temp\ccheWc1y.s:28282  .debug_str:000000000001be9e .LASF4196
C:\Users\SOLDER~1\AppData\Local\Temp\ccheWc1y.s:21534  .debug_str:0000000000000949 .LASF4197
C:\Users\SOLDER~1\AppData\Local\Temp\ccheWc1y.s:26374  .debug_str:0000000000014431 .LASF4198
C:\Users\SOLDER~1\AppData\Local\Temp\ccheWc1y.s:26356  .debug_str:00000000000142f7 .LASF4199
C:\Users\SOLDER~1\AppData\Local\Temp\ccheWc1y.s:24052  .debug_str:000000000000ad18 .LASF4200
C:\Users\SOLDER~1\AppData\Local\Temp\ccheWc1y.s:28840  .debug_str:000000000001e2ed .LASF4201
C:\Users\SOLDER~1\AppData\Local\Temp\ccheWc1y.s:24154  .debug_str:000000000000b3b4 .LASF4202
C:\Users\SOLDER~1\AppData\Local\Temp\ccheWc1y.s:25532  .debug_str:0000000000010d6c .LASF4203
C:\Users\SOLDER~1\AppData\Local\Temp\ccheWc1y.s:24056  .debug_str:000000000000ad5a .LASF4204
C:\Users\SOLDER~1\AppData\Local\Temp\ccheWc1y.s:26334  .debug_str:0000000000014169 .LASF4205
C:\Users\SOLDER~1\AppData\Local\Temp\ccheWc1y.s:27652  .debug_str:00000000000196f5 .LASF4206
C:\Users\SOLDER~1\AppData\Local\Temp\ccheWc1y.s:22944  .debug_str:00000000000063c7 .LASF4207
C:\Users\SOLDER~1\AppData\Local\Temp\ccheWc1y.s:26214  .debug_str:00000000000138fb .LASF4208
C:\Users\SOLDER~1\AppData\Local\Temp\ccheWc1y.s:23502  .debug_str:0000000000008852 .LASF4209
C:\Users\SOLDER~1\AppData\Local\Temp\ccheWc1y.s:31700  .debug_str:0000000000029cb1 .LASF4210
C:\Users\SOLDER~1\AppData\Local\Temp\ccheWc1y.s:31698  .debug_str:0000000000029c93 .LASF4211
C:\Users\SOLDER~1\AppData\Local\Temp\ccheWc1y.s:21794  .debug_str:0000000000001a20 .LASF4212
C:\Users\SOLDER~1\AppData\Local\Temp\ccheWc1y.s:29652  .debug_str:000000000002177d .LASF4213
C:\Users\SOLDER~1\AppData\Local\Temp\ccheWc1y.s:31246  .debug_str:0000000000027f31 .LASF4214
C:\Users\SOLDER~1\AppData\Local\Temp\ccheWc1y.s:23468  .debug_str:0000000000008633 .LASF4215
C:\Users\SOLDER~1\AppData\Local\Temp\ccheWc1y.s:26754  .debug_str:0000000000015cf1 .LASF4216
C:\Users\SOLDER~1\AppData\Local\Temp\ccheWc1y.s:27190  .debug_str:00000000000178b4 .LASF4217
C:\Users\SOLDER~1\AppData\Local\Temp\ccheWc1y.s:21454  .debug_str:000000000000033a .LASF4218
C:\Users\SOLDER~1\AppData\Local\Temp\ccheWc1y.s:26494  .debug_str:0000000000014c5f .LASF4219
C:\Users\SOLDER~1\AppData\Local\Temp\ccheWc1y.s:31470  .debug_str:0000000000028dd9 .LASF4220
C:\Users\SOLDER~1\AppData\Local\Temp\ccheWc1y.s:32552  .debug_str:000000000002d392 .LASF4221
GAS LISTING C:\Users\SOLDER~1\AppData\Local\Temp\ccheWc1y.s 			page 140


C:\Users\SOLDER~1\AppData\Local\Temp\ccheWc1y.s:31798  .debug_str:000000000002a2eb .LASF4222
C:\Users\SOLDER~1\AppData\Local\Temp\ccheWc1y.s:29262  .debug_str:000000000001fed6 .LASF4223
C:\Users\SOLDER~1\AppData\Local\Temp\ccheWc1y.s:31720  .debug_str:0000000000029de2 .LASF4224
C:\Users\SOLDER~1\AppData\Local\Temp\ccheWc1y.s:27514  .debug_str:0000000000018dee .LASF4225
C:\Users\SOLDER~1\AppData\Local\Temp\ccheWc1y.s:25524  .debug_str:0000000000010cd5 .LASF4226
C:\Users\SOLDER~1\AppData\Local\Temp\ccheWc1y.s:24170  .debug_str:000000000000b487 .LASF4227
C:\Users\SOLDER~1\AppData\Local\Temp\ccheWc1y.s:24244  .debug_str:000000000000b984 .LASF4228
C:\Users\SOLDER~1\AppData\Local\Temp\ccheWc1y.s:26624  .debug_str:00000000000154c3 .LASF4229
C:\Users\SOLDER~1\AppData\Local\Temp\ccheWc1y.s:24112  .debug_str:000000000000b0ec .LASF4230
C:\Users\SOLDER~1\AppData\Local\Temp\ccheWc1y.s:23432  .debug_str:00000000000083e1 .LASF4231
C:\Users\SOLDER~1\AppData\Local\Temp\ccheWc1y.s:28000  .debug_str:000000000001ace9 .LASF4232
C:\Users\SOLDER~1\AppData\Local\Temp\ccheWc1y.s:25570  .debug_str:0000000000010fed .LASF4233
C:\Users\SOLDER~1\AppData\Local\Temp\ccheWc1y.s:32112  .debug_str:000000000002b75e .LASF4234
C:\Users\SOLDER~1\AppData\Local\Temp\ccheWc1y.s:22110  .debug_str:0000000000002eab .LASF4235
C:\Users\SOLDER~1\AppData\Local\Temp\ccheWc1y.s:26130  .debug_str:0000000000013366 .LASF4236
C:\Users\SOLDER~1\AppData\Local\Temp\ccheWc1y.s:23012  .debug_str:000000000000685d .LASF4237
C:\Users\SOLDER~1\AppData\Local\Temp\ccheWc1y.s:21500  .debug_str:0000000000000645 .LASF4238
C:\Users\SOLDER~1\AppData\Local\Temp\ccheWc1y.s:22168  .debug_str:0000000000003260 .LASF4239
C:\Users\SOLDER~1\AppData\Local\Temp\ccheWc1y.s:30416  .debug_str:0000000000024892 .LASF4240
C:\Users\SOLDER~1\AppData\Local\Temp\ccheWc1y.s:22138  .debug_str:0000000000003072 .LASF4241
C:\Users\SOLDER~1\AppData\Local\Temp\ccheWc1y.s:29330  .debug_str:0000000000020307 .LASF4242
C:\Users\SOLDER~1\AppData\Local\Temp\ccheWc1y.s:25106  .debug_str:000000000000f1ac .LASF4243
C:\Users\SOLDER~1\AppData\Local\Temp\ccheWc1y.s:23212  .debug_str:00000000000075a0 .LASF4244
C:\Users\SOLDER~1\AppData\Local\Temp\ccheWc1y.s:29602  .debug_str:0000000000021416 .LASF4245
C:\Users\SOLDER~1\AppData\Local\Temp\ccheWc1y.s:22076  .debug_str:0000000000002c65 .LASF4246
C:\Users\SOLDER~1\AppData\Local\Temp\ccheWc1y.s:29160  .debug_str:000000000001f7e0 .LASF4247
C:\Users\SOLDER~1\AppData\Local\Temp\ccheWc1y.s:25586  .debug_str:00000000000110e3 .LASF4248
C:\Users\SOLDER~1\AppData\Local\Temp\ccheWc1y.s:21934  .debug_str:0000000000002373 .LASF4249
C:\Users\SOLDER~1\AppData\Local\Temp\ccheWc1y.s:26726  .debug_str:0000000000015b6b .LASF4250
C:\Users\SOLDER~1\AppData\Local\Temp\ccheWc1y.s:29534  .debug_str:0000000000020fca .LASF4251
C:\Users\SOLDER~1\AppData\Local\Temp\ccheWc1y.s:32026  .debug_str:000000000002b196 .LASF4252
C:\Users\SOLDER~1\AppData\Local\Temp\ccheWc1y.s:27286  .debug_str:0000000000017f12 .LASF4253
C:\Users\SOLDER~1\AppData\Local\Temp\ccheWc1y.s:26806  .debug_str:0000000000016043 .LASF4254
C:\Users\SOLDER~1\AppData\Local\Temp\ccheWc1y.s:25050  .debug_str:000000000000ee6e .LASF4255
C:\Users\SOLDER~1\AppData\Local\Temp\ccheWc1y.s:31724  .debug_str:0000000000029e1e .LASF4256
C:\Users\SOLDER~1\AppData\Local\Temp\ccheWc1y.s:22398  .debug_str:0000000000004104 .LASF4257
C:\Users\SOLDER~1\AppData\Local\Temp\ccheWc1y.s:29596  .debug_str:0000000000021396 .LASF4258
C:\Users\SOLDER~1\AppData\Local\Temp\ccheWc1y.s:22906  .debug_str:000000000000610f .LASF4259
C:\Users\SOLDER~1\AppData\Local\Temp\ccheWc1y.s:25812  .debug_str:0000000000011f39 .LASF4260
C:\Users\SOLDER~1\AppData\Local\Temp\ccheWc1y.s:27650  .debug_str:00000000000196d7 .LASF4261
C:\Users\SOLDER~1\AppData\Local\Temp\ccheWc1y.s:30504  .debug_str:0000000000024e39 .LASF4262
C:\Users\SOLDER~1\AppData\Local\Temp\ccheWc1y.s:29760  .debug_str:0000000000021e38 .LASF4263
C:\Users\SOLDER~1\AppData\Local\Temp\ccheWc1y.s:32858  .debug_str:000000000002e75c .LASF4264
C:\Users\SOLDER~1\AppData\Local\Temp\ccheWc1y.s:31244  .debug_str:0000000000027f16 .LASF4265
C:\Users\SOLDER~1\AppData\Local\Temp\ccheWc1y.s:32066  .debug_str:000000000002b425 .LASF4266
C:\Users\SOLDER~1\AppData\Local\Temp\ccheWc1y.s:31540  .debug_str:0000000000029245 .LASF4267
C:\Users\SOLDER~1\AppData\Local\Temp\ccheWc1y.s:28734  .debug_str:000000000001dc49 .LASF4268
C:\Users\SOLDER~1\AppData\Local\Temp\ccheWc1y.s:21642  .debug_str:000000000000106d .LASF4269
C:\Users\SOLDER~1\AppData\Local\Temp\ccheWc1y.s:24616  .debug_str:000000000000d216 .LASF4270
C:\Users\SOLDER~1\AppData\Local\Temp\ccheWc1y.s:23420  .debug_str:000000000000832b .LASF4271
C:\Users\SOLDER~1\AppData\Local\Temp\ccheWc1y.s:22652  .debug_str:00000000000050e6 .LASF4272
C:\Users\SOLDER~1\AppData\Local\Temp\ccheWc1y.s:31130  .debug_str:0000000000027794 .LASF4273
C:\Users\SOLDER~1\AppData\Local\Temp\ccheWc1y.s:21508  .debug_str:0000000000000753 .LASF4274
C:\Users\SOLDER~1\AppData\Local\Temp\ccheWc1y.s:30728  .debug_str:0000000000025c98 .LASF4275
C:\Users\SOLDER~1\AppData\Local\Temp\ccheWc1y.s:22446  .debug_str:000000000000440d .LASF4276
C:\Users\SOLDER~1\AppData\Local\Temp\ccheWc1y.s:24768  .debug_str:000000000000dc19 .LASF4277
C:\Users\SOLDER~1\AppData\Local\Temp\ccheWc1y.s:23464  .debug_str:00000000000085f2 .LASF4278
GAS LISTING C:\Users\SOLDER~1\AppData\Local\Temp\ccheWc1y.s 			page 141


C:\Users\SOLDER~1\AppData\Local\Temp\ccheWc1y.s:32320  .debug_str:000000000002c477 .LASF4279
C:\Users\SOLDER~1\AppData\Local\Temp\ccheWc1y.s:25630  .debug_str:00000000000113ae .LASF4280
C:\Users\SOLDER~1\AppData\Local\Temp\ccheWc1y.s:21464  .debug_str:00000000000003ec .LASF4281
C:\Users\SOLDER~1\AppData\Local\Temp\ccheWc1y.s:23744  .debug_str:000000000000986b .LASF4282
C:\Users\SOLDER~1\AppData\Local\Temp\ccheWc1y.s:26496  .debug_str:0000000000014c72 .LASF4283
C:\Users\SOLDER~1\AppData\Local\Temp\ccheWc1y.s:23208  .debug_str:0000000000007570 .LASF4284
C:\Users\SOLDER~1\AppData\Local\Temp\ccheWc1y.s:24474  .debug_str:000000000000c860 .LASF4285
C:\Users\SOLDER~1\AppData\Local\Temp\ccheWc1y.s:27478  .debug_str:0000000000018bb4 .LASF4286
C:\Users\SOLDER~1\AppData\Local\Temp\ccheWc1y.s:26404  .debug_str:000000000001461c .LASF4287
C:\Users\SOLDER~1\AppData\Local\Temp\ccheWc1y.s:29862  .debug_str:00000000000224a0 .LASF4288
C:\Users\SOLDER~1\AppData\Local\Temp\ccheWc1y.s:28924  .debug_str:000000000001e853 .LASF4289
C:\Users\SOLDER~1\AppData\Local\Temp\ccheWc1y.s:25634  .debug_str:00000000000113f5 .LASF4290
C:\Users\SOLDER~1\AppData\Local\Temp\ccheWc1y.s:26688  .debug_str:00000000000158fe .LASF4291
C:\Users\SOLDER~1\AppData\Local\Temp\ccheWc1y.s:21696  .debug_str:00000000000013e6 .LASF4292
C:\Users\SOLDER~1\AppData\Local\Temp\ccheWc1y.s:27780  .debug_str:0000000000019f27 .LASF4293
C:\Users\SOLDER~1\AppData\Local\Temp\ccheWc1y.s:28378  .debug_str:000000000001c4e8 .LASF4294
C:\Users\SOLDER~1\AppData\Local\Temp\ccheWc1y.s:29586  .debug_str:00000000000212da .LASF4295
C:\Users\SOLDER~1\AppData\Local\Temp\ccheWc1y.s:31114  .debug_str:0000000000027683 .LASF4296
C:\Users\SOLDER~1\AppData\Local\Temp\ccheWc1y.s:25072  .debug_str:000000000000ef8b .LASF4297
C:\Users\SOLDER~1\AppData\Local\Temp\ccheWc1y.s:26230  .debug_str:0000000000013a03 .LASF4298
C:\Users\SOLDER~1\AppData\Local\Temp\ccheWc1y.s:22720  .debug_str:00000000000054f5 .LASF4299
C:\Users\SOLDER~1\AppData\Local\Temp\ccheWc1y.s:24846  .debug_str:000000000000e0d9 .LASF4300
C:\Users\SOLDER~1\AppData\Local\Temp\ccheWc1y.s:23550  .debug_str:0000000000008b7f .LASF4301
C:\Users\SOLDER~1\AppData\Local\Temp\ccheWc1y.s:27394  .debug_str:000000000001864e .LASF4302
C:\Users\SOLDER~1\AppData\Local\Temp\ccheWc1y.s:32792  .debug_str:000000000002e31f .LASF4303
C:\Users\SOLDER~1\AppData\Local\Temp\ccheWc1y.s:21914  .debug_str:0000000000002219 .LASF4304
C:\Users\SOLDER~1\AppData\Local\Temp\ccheWc1y.s:26802  .debug_str:0000000000015ff3 .LASF4305
C:\Users\SOLDER~1\AppData\Local\Temp\ccheWc1y.s:30918  .debug_str:00000000000269b3 .LASF4306
C:\Users\SOLDER~1\AppData\Local\Temp\ccheWc1y.s:30618  .debug_str:00000000000255b0 .LASF4307
C:\Users\SOLDER~1\AppData\Local\Temp\ccheWc1y.s:29098  .debug_str:000000000001f3b6 .LASF4308
C:\Users\SOLDER~1\AppData\Local\Temp\ccheWc1y.s:32908  .debug_str:000000000002ea59 .LASF4309
C:\Users\SOLDER~1\AppData\Local\Temp\ccheWc1y.s:24360  .debug_str:000000000000c09e .LASF4310
C:\Users\SOLDER~1\AppData\Local\Temp\ccheWc1y.s:25386  .debug_str:0000000000010435 .LASF4311
C:\Users\SOLDER~1\AppData\Local\Temp\ccheWc1y.s:22766  .debug_str:00000000000057b6 .LASF4312
C:\Users\SOLDER~1\AppData\Local\Temp\ccheWc1y.s:28268  .debug_str:000000000001bdc3 .LASF4313
C:\Users\SOLDER~1\AppData\Local\Temp\ccheWc1y.s:21768  .debug_str:0000000000001885 .LASF4314
C:\Users\SOLDER~1\AppData\Local\Temp\ccheWc1y.s:26970  .debug_str:0000000000016ac2 .LASF4315
C:\Users\SOLDER~1\AppData\Local\Temp\ccheWc1y.s:26590  .debug_str:00000000000152bc .LASF4316
C:\Users\SOLDER~1\AppData\Local\Temp\ccheWc1y.s:23328  .debug_str:0000000000007cdc .LASF4317
C:\Users\SOLDER~1\AppData\Local\Temp\ccheWc1y.s:26858  .debug_str:0000000000016394 .LASF4318
C:\Users\SOLDER~1\AppData\Local\Temp\ccheWc1y.s:22896  .debug_str:0000000000006050 .LASF4319
C:\Users\SOLDER~1\AppData\Local\Temp\ccheWc1y.s:32268  .debug_str:000000000002c107 .LASF4320
C:\Users\SOLDER~1\AppData\Local\Temp\ccheWc1y.s:31324  .debug_str:0000000000028458 .LASF4321
C:\Users\SOLDER~1\AppData\Local\Temp\ccheWc1y.s:29820  .debug_str:00000000000221f3 .LASF4322
C:\Users\SOLDER~1\AppData\Local\Temp\ccheWc1y.s:32480  .debug_str:000000000002cef8 .LASF4323
C:\Users\SOLDER~1\AppData\Local\Temp\ccheWc1y.s:21856  .debug_str:0000000000001e51 .LASF4324
C:\Users\SOLDER~1\AppData\Local\Temp\ccheWc1y.s:24110  .debug_str:000000000000b0c8 .LASF4325
C:\Users\SOLDER~1\AppData\Local\Temp\ccheWc1y.s:25730  .debug_str:0000000000011a0b .LASF4326
C:\Users\SOLDER~1\AppData\Local\Temp\ccheWc1y.s:23374  .debug_str:0000000000007fff .LASF4327
C:\Users\SOLDER~1\AppData\Local\Temp\ccheWc1y.s:32770  .debug_str:000000000002e1be .LASF4328
C:\Users\SOLDER~1\AppData\Local\Temp\ccheWc1y.s:30022  .debug_str:0000000000022ebb .LASF4329
C:\Users\SOLDER~1\AppData\Local\Temp\ccheWc1y.s:29232  .debug_str:000000000001fcd5 .LASF4330
C:\Users\SOLDER~1\AppData\Local\Temp\ccheWc1y.s:28438  .debug_str:000000000001c8e3 .LASF4331
C:\Users\SOLDER~1\AppData\Local\Temp\ccheWc1y.s:26176  .debug_str:000000000001364f .LASF4332
C:\Users\SOLDER~1\AppData\Local\Temp\ccheWc1y.s:29242  .debug_str:000000000001fd6e .LASF4333
C:\Users\SOLDER~1\AppData\Local\Temp\ccheWc1y.s:23068  .debug_str:0000000000006c16 .LASF4334
C:\Users\SOLDER~1\AppData\Local\Temp\ccheWc1y.s:28554  .debug_str:000000000001d07b .LASF4335
GAS LISTING C:\Users\SOLDER~1\AppData\Local\Temp\ccheWc1y.s 			page 142


C:\Users\SOLDER~1\AppData\Local\Temp\ccheWc1y.s:28098  .debug_str:000000000001b382 .LASF4336
C:\Users\SOLDER~1\AppData\Local\Temp\ccheWc1y.s:22972  .debug_str:00000000000065a5 .LASF4337
C:\Users\SOLDER~1\AppData\Local\Temp\ccheWc1y.s:28920  .debug_str:000000000001e816 .LASF4338
C:\Users\SOLDER~1\AppData\Local\Temp\ccheWc1y.s:27790  .debug_str:0000000000019f87 .LASF4339
C:\Users\SOLDER~1\AppData\Local\Temp\ccheWc1y.s:28486  .debug_str:000000000001cc14 .LASF4340
C:\Users\SOLDER~1\AppData\Local\Temp\ccheWc1y.s:27276  .debug_str:0000000000017e67 .LASF4341
C:\Users\SOLDER~1\AppData\Local\Temp\ccheWc1y.s:28730  .debug_str:000000000001dc09 .LASF4342
C:\Users\SOLDER~1\AppData\Local\Temp\ccheWc1y.s:27084  .debug_str:000000000001718d .LASF4343
C:\Users\SOLDER~1\AppData\Local\Temp\ccheWc1y.s:27182  .debug_str:0000000000017842 .LASF4344
C:\Users\SOLDER~1\AppData\Local\Temp\ccheWc1y.s:30518  .debug_str:0000000000024f26 .LASF4345
C:\Users\SOLDER~1\AppData\Local\Temp\ccheWc1y.s:26006  .debug_str:0000000000012b7c .LASF4346
C:\Users\SOLDER~1\AppData\Local\Temp\ccheWc1y.s:22158  .debug_str:00000000000031ac .LASF4347
C:\Users\SOLDER~1\AppData\Local\Temp\ccheWc1y.s:30420  .debug_str:00000000000248d3 .LASF4348
C:\Users\SOLDER~1\AppData\Local\Temp\ccheWc1y.s:32220  .debug_str:000000000002be15 .LASF4349
C:\Users\SOLDER~1\AppData\Local\Temp\ccheWc1y.s:30062  .debug_str:000000000002318e .LASF4350
C:\Users\SOLDER~1\AppData\Local\Temp\ccheWc1y.s:25124  .debug_str:000000000000f2cd .LASF4351
C:\Users\SOLDER~1\AppData\Local\Temp\ccheWc1y.s:26924  .debug_str:00000000000167ee .LASF4352
C:\Users\SOLDER~1\AppData\Local\Temp\ccheWc1y.s:22104  .debug_str:0000000000002e43 .LASF4353
C:\Users\SOLDER~1\AppData\Local\Temp\ccheWc1y.s:27810  .debug_str:000000000001a0e3 .LASF4354
C:\Users\SOLDER~1\AppData\Local\Temp\ccheWc1y.s:26174  .debug_str:0000000000013629 .LASF4355
C:\Users\SOLDER~1\AppData\Local\Temp\ccheWc1y.s:28176  .debug_str:000000000001b840 .LASF4356
C:\Users\SOLDER~1\AppData\Local\Temp\ccheWc1y.s:30170  .debug_str:0000000000023869 .LASF4357
C:\Users\SOLDER~1\AppData\Local\Temp\ccheWc1y.s:24854  .debug_str:000000000000e14e .LASF4358
C:\Users\SOLDER~1\AppData\Local\Temp\ccheWc1y.s:25234  .debug_str:000000000000f9d8 .LASF4359
C:\Users\SOLDER~1\AppData\Local\Temp\ccheWc1y.s:32184  .debug_str:000000000002bbb0 .LASF4360
C:\Users\SOLDER~1\AppData\Local\Temp\ccheWc1y.s:22186  .debug_str:0000000000003370 .LASF4361
C:\Users\SOLDER~1\AppData\Local\Temp\ccheWc1y.s:23734  .debug_str:00000000000097df .LASF4362
C:\Users\SOLDER~1\AppData\Local\Temp\ccheWc1y.s:22472  .debug_str:00000000000045a2 .LASF4363
C:\Users\SOLDER~1\AppData\Local\Temp\ccheWc1y.s:24362  .debug_str:000000000000c0b7 .LASF4364
C:\Users\SOLDER~1\AppData\Local\Temp\ccheWc1y.s:24656  .debug_str:000000000000d4be .LASF4365
C:\Users\SOLDER~1\AppData\Local\Temp\ccheWc1y.s:27216  .debug_str:0000000000017a8b .LASF4366
C:\Users\SOLDER~1\AppData\Local\Temp\ccheWc1y.s:32928  .debug_str:000000000002eba4 .LASF4367
C:\Users\SOLDER~1\AppData\Local\Temp\ccheWc1y.s:24468  .debug_str:000000000000c7f7 .LASF4368
C:\Users\SOLDER~1\AppData\Local\Temp\ccheWc1y.s:29856  .debug_str:0000000000022438 .LASF4369
C:\Users\SOLDER~1\AppData\Local\Temp\ccheWc1y.s:31106  .debug_str:000000000002760c .LASF4370
C:\Users\SOLDER~1\AppData\Local\Temp\ccheWc1y.s:23470  .debug_str:0000000000008645 .LASF4371
C:\Users\SOLDER~1\AppData\Local\Temp\ccheWc1y.s:24818  .debug_str:000000000000dee8 .LASF4372
C:\Users\SOLDER~1\AppData\Local\Temp\ccheWc1y.s:26548  .debug_str:0000000000014fcf .LASF4373
C:\Users\SOLDER~1\AppData\Local\Temp\ccheWc1y.s:24822  .debug_str:000000000000df22 .LASF4374
C:\Users\SOLDER~1\AppData\Local\Temp\ccheWc1y.s:27660  .debug_str:0000000000019772 .LASF4375
C:\Users\SOLDER~1\AppData\Local\Temp\ccheWc1y.s:26528  .debug_str:0000000000014e8b .LASF4376
C:\Users\SOLDER~1\AppData\Local\Temp\ccheWc1y.s:27934  .debug_str:000000000001a878 .LASF4377
C:\Users\SOLDER~1\AppData\Local\Temp\ccheWc1y.s:24700  .debug_str:000000000000d78e .LASF4378
C:\Users\SOLDER~1\AppData\Local\Temp\ccheWc1y.s:28708  .debug_str:000000000001dad5 .LASF4379
C:\Users\SOLDER~1\AppData\Local\Temp\ccheWc1y.s:30542  .debug_str:000000000002509b .LASF4380
C:\Users\SOLDER~1\AppData\Local\Temp\ccheWc1y.s:23616  .debug_str:0000000000008fe3 .LASF4381
C:\Users\SOLDER~1\AppData\Local\Temp\ccheWc1y.s:24010  .debug_str:000000000000aa3c .LASF4382
C:\Users\SOLDER~1\AppData\Local\Temp\ccheWc1y.s:24590  .debug_str:000000000000d05a .LASF4383
C:\Users\SOLDER~1\AppData\Local\Temp\ccheWc1y.s:31680  .debug_str:0000000000029b5c .LASF4384
C:\Users\SOLDER~1\AppData\Local\Temp\ccheWc1y.s:28192  .debug_str:000000000001b937 .LASF4385
C:\Users\SOLDER~1\AppData\Local\Temp\ccheWc1y.s:26184  .debug_str:00000000000136fe .LASF4386
C:\Users\SOLDER~1\AppData\Local\Temp\ccheWc1y.s:21564  .debug_str:0000000000000b41 .LASF4387
C:\Users\SOLDER~1\AppData\Local\Temp\ccheWc1y.s:23584  .debug_str:0000000000008d93 .LASF4388
C:\Users\SOLDER~1\AppData\Local\Temp\ccheWc1y.s:26426  .debug_str:00000000000147da .LASF4389
C:\Users\SOLDER~1\AppData\Local\Temp\ccheWc1y.s:22494  .debug_str:0000000000004709 .LASF4390
C:\Users\SOLDER~1\AppData\Local\Temp\ccheWc1y.s:22548  .debug_str:0000000000004a85 .LASF4391
C:\Users\SOLDER~1\AppData\Local\Temp\ccheWc1y.s:32682  .debug_str:000000000002dc33 .LASF4392
GAS LISTING C:\Users\SOLDER~1\AppData\Local\Temp\ccheWc1y.s 			page 143


C:\Users\SOLDER~1\AppData\Local\Temp\ccheWc1y.s:27528  .debug_str:0000000000018ebf .LASF4393
C:\Users\SOLDER~1\AppData\Local\Temp\ccheWc1y.s:32812  .debug_str:000000000002e489 .LASF4394
C:\Users\SOLDER~1\AppData\Local\Temp\ccheWc1y.s:26962  .debug_str:0000000000016a3e .LASF4395
C:\Users\SOLDER~1\AppData\Local\Temp\ccheWc1y.s:24682  .debug_str:000000000000d65c .LASF4396
C:\Users\SOLDER~1\AppData\Local\Temp\ccheWc1y.s:24250  .debug_str:000000000000b9d4 .LASF4397
C:\Users\SOLDER~1\AppData\Local\Temp\ccheWc1y.s:31434  .debug_str:0000000000028b6b .LASF4398
C:\Users\SOLDER~1\AppData\Local\Temp\ccheWc1y.s:22668  .debug_str:00000000000051cf .LASF4399
C:\Users\SOLDER~1\AppData\Local\Temp\ccheWc1y.s:26338  .debug_str:00000000000141ab .LASF4400
C:\Users\SOLDER~1\AppData\Local\Temp\ccheWc1y.s:27828  .debug_str:000000000001a1ff .LASF4401
C:\Users\SOLDER~1\AppData\Local\Temp\ccheWc1y.s:27746  .debug_str:0000000000019d43 .LASF4402
C:\Users\SOLDER~1\AppData\Local\Temp\ccheWc1y.s:28618  .debug_str:000000000001d4c3 .LASF4403
C:\Users\SOLDER~1\AppData\Local\Temp\ccheWc1y.s:26394  .debug_str:000000000001456e .LASF4404
C:\Users\SOLDER~1\AppData\Local\Temp\ccheWc1y.s:29894  .debug_str:0000000000022694 .LASF4405
C:\Users\SOLDER~1\AppData\Local\Temp\ccheWc1y.s:23588  .debug_str:0000000000008ddd .LASF4406
C:\Users\SOLDER~1\AppData\Local\Temp\ccheWc1y.s:25508  .debug_str:0000000000010bc2 .LASF4407
C:\Users\SOLDER~1\AppData\Local\Temp\ccheWc1y.s:26996  .debug_str:0000000000016c2b .LASF4408
C:\Users\SOLDER~1\AppData\Local\Temp\ccheWc1y.s:29752  .debug_str:0000000000021da7 .LASF4409
C:\Users\SOLDER~1\AppData\Local\Temp\ccheWc1y.s:27338  .debug_str:000000000001825b .LASF4410
C:\Users\SOLDER~1\AppData\Local\Temp\ccheWc1y.s:30488  .debug_str:0000000000024d30 .LASF4411
C:\Users\SOLDER~1\AppData\Local\Temp\ccheWc1y.s:30316  .debug_str:00000000000241e7 .LASF4412
C:\Users\SOLDER~1\AppData\Local\Temp\ccheWc1y.s:30854  .debug_str:0000000000026545 .LASF4413
C:\Users\SOLDER~1\AppData\Local\Temp\ccheWc1y.s:25502  .debug_str:0000000000010b6d .LASF4414
C:\Users\SOLDER~1\AppData\Local\Temp\ccheWc1y.s:25552  .debug_str:0000000000010edb .LASF4415
C:\Users\SOLDER~1\AppData\Local\Temp\ccheWc1y.s:21992  .debug_str:000000000000271a .LASF4416
C:\Users\SOLDER~1\AppData\Local\Temp\ccheWc1y.s:27120  .debug_str:00000000000173d4 .LASF4417
C:\Users\SOLDER~1\AppData\Local\Temp\ccheWc1y.s:22366  .debug_str:0000000000003f09 .LASF4418
C:\Users\SOLDER~1\AppData\Local\Temp\ccheWc1y.s:21996  .debug_str:0000000000002761 .LASF4419
C:\Users\SOLDER~1\AppData\Local\Temp\ccheWc1y.s:23944  .debug_str:000000000000a5a0 .LASF4420
C:\Users\SOLDER~1\AppData\Local\Temp\ccheWc1y.s:28638  .debug_str:000000000001d5ec .LASF4421
C:\Users\SOLDER~1\AppData\Local\Temp\ccheWc1y.s:27768  .debug_str:0000000000019e69 .LASF4422
C:\Users\SOLDER~1\AppData\Local\Temp\ccheWc1y.s:25882  .debug_str:0000000000012385 .LASF4423
C:\Users\SOLDER~1\AppData\Local\Temp\ccheWc1y.s:28790  .debug_str:000000000001df9c .LASF4424
C:\Users\SOLDER~1\AppData\Local\Temp\ccheWc1y.s:22886  .debug_str:0000000000005fad .LASF4425
C:\Users\SOLDER~1\AppData\Local\Temp\ccheWc1y.s:26514  .debug_str:0000000000014d96 .LASF4426
C:\Users\SOLDER~1\AppData\Local\Temp\ccheWc1y.s:23034  .debug_str:0000000000006a15 .LASF4427
C:\Users\SOLDER~1\AppData\Local\Temp\ccheWc1y.s:25348  .debug_str:00000000000101d1 .LASF4428
C:\Users\SOLDER~1\AppData\Local\Temp\ccheWc1y.s:28022  .debug_str:000000000001ae70 .LASF4429
C:\Users\SOLDER~1\AppData\Local\Temp\ccheWc1y.s:32730  .debug_str:000000000002df6d .LASF4430
C:\Users\SOLDER~1\AppData\Local\Temp\ccheWc1y.s:31734  .debug_str:0000000000029ebf .LASF4431
C:\Users\SOLDER~1\AppData\Local\Temp\ccheWc1y.s:27774  .debug_str:0000000000019ed4 .LASF4432
C:\Users\SOLDER~1\AppData\Local\Temp\ccheWc1y.s:28032  .debug_str:000000000001aefb .LASF4433
C:\Users\SOLDER~1\AppData\Local\Temp\ccheWc1y.s:25742  .debug_str:0000000000011aee .LASF4434
C:\Users\SOLDER~1\AppData\Local\Temp\ccheWc1y.s:32540  .debug_str:000000000002d2cb .LASF4435
C:\Users\SOLDER~1\AppData\Local\Temp\ccheWc1y.s:27740  .debug_str:0000000000019cf4 .LASF4436
C:\Users\SOLDER~1\AppData\Local\Temp\ccheWc1y.s:31408  .debug_str:00000000000289d0 .LASF4437
C:\Users\SOLDER~1\AppData\Local\Temp\ccheWc1y.s:30060  .debug_str:000000000002317a .LASF4438
C:\Users\SOLDER~1\AppData\Local\Temp\ccheWc1y.s:25266  .debug_str:000000000000fbe6 .LASF4439
C:\Users\SOLDER~1\AppData\Local\Temp\ccheWc1y.s:30690  .debug_str:0000000000025a4b .LASF4440
C:\Users\SOLDER~1\AppData\Local\Temp\ccheWc1y.s:27066  .debug_str:00000000000170a6 .LASF4441
C:\Users\SOLDER~1\AppData\Local\Temp\ccheWc1y.s:31488  .debug_str:0000000000028f24 .LASF4442
C:\Users\SOLDER~1\AppData\Local\Temp\ccheWc1y.s:26972  .debug_str:0000000000016ae4 .LASF4443
C:\Users\SOLDER~1\AppData\Local\Temp\ccheWc1y.s:24374  .debug_str:000000000000c16d .LASF4444
C:\Users\SOLDER~1\AppData\Local\Temp\ccheWc1y.s:26758  .debug_str:0000000000015d36 .LASF4445
C:\Users\SOLDER~1\AppData\Local\Temp\ccheWc1y.s:27530  .debug_str:0000000000018edf .LASF4446
C:\Users\SOLDER~1\AppData\Local\Temp\ccheWc1y.s:24568  .debug_str:000000000000cef3 .LASF4447
C:\Users\SOLDER~1\AppData\Local\Temp\ccheWc1y.s:28358  .debug_str:000000000001c39a .LASF4448
C:\Users\SOLDER~1\AppData\Local\Temp\ccheWc1y.s:29884  .debug_str:00000000000225f8 .LASF4449
GAS LISTING C:\Users\SOLDER~1\AppData\Local\Temp\ccheWc1y.s 			page 144


C:\Users\SOLDER~1\AppData\Local\Temp\ccheWc1y.s:31584  .debug_str:00000000000294fe .LASF4450
C:\Users\SOLDER~1\AppData\Local\Temp\ccheWc1y.s:29630  .debug_str:00000000000215dc .LASF4451
C:\Users\SOLDER~1\AppData\Local\Temp\ccheWc1y.s:28124  .debug_str:000000000001b520 .LASF4452
C:\Users\SOLDER~1\AppData\Local\Temp\ccheWc1y.s:26272  .debug_str:0000000000013cd1 .LASF4453
C:\Users\SOLDER~1\AppData\Local\Temp\ccheWc1y.s:28602  .debug_str:000000000001d3c5 .LASF4454
C:\Users\SOLDER~1\AppData\Local\Temp\ccheWc1y.s:25910  .debug_str:0000000000012567 .LASF4455
C:\Users\SOLDER~1\AppData\Local\Temp\ccheWc1y.s:31024  .debug_str:00000000000270b5 .LASF4456
C:\Users\SOLDER~1\AppData\Local\Temp\ccheWc1y.s:25366  .debug_str:00000000000102fc .LASF4457
C:\Users\SOLDER~1\AppData\Local\Temp\ccheWc1y.s:31840  .debug_str:000000000002a5cc .LASF4458
C:\Users\SOLDER~1\AppData\Local\Temp\ccheWc1y.s:30724  .debug_str:0000000000025c5b .LASF4459
C:\Users\SOLDER~1\AppData\Local\Temp\ccheWc1y.s:31768  .debug_str:000000000002a0e2 .LASF4460
C:\Users\SOLDER~1\AppData\Local\Temp\ccheWc1y.s:25806  .debug_str:0000000000011ee3 .LASF4461
C:\Users\SOLDER~1\AppData\Local\Temp\ccheWc1y.s:27130  .debug_str:000000000001748f .LASF4462
C:\Users\SOLDER~1\AppData\Local\Temp\ccheWc1y.s:27958  .debug_str:000000000001aa2f .LASF4463
C:\Users\SOLDER~1\AppData\Local\Temp\ccheWc1y.s:30304  .debug_str:0000000000024116 .LASF4464
C:\Users\SOLDER~1\AppData\Local\Temp\ccheWc1y.s:28330  .debug_str:000000000001c1b1 .LASF4465
C:\Users\SOLDER~1\AppData\Local\Temp\ccheWc1y.s:27932  .debug_str:000000000001a861 .LASF4466
C:\Users\SOLDER~1\AppData\Local\Temp\ccheWc1y.s:27632  .debug_str:00000000000195d2 .LASF4467
C:\Users\SOLDER~1\AppData\Local\Temp\ccheWc1y.s:28512  .debug_str:000000000001cdb3 .LASF4468
C:\Users\SOLDER~1\AppData\Local\Temp\ccheWc1y.s:27044  .debug_str:0000000000016f40 .LASF4469
C:\Users\SOLDER~1\AppData\Local\Temp\ccheWc1y.s:31490  .debug_str:0000000000028f35 .LASF4470
C:\Users\SOLDER~1\AppData\Local\Temp\ccheWc1y.s:32256  .debug_str:000000000002c046 .LASF4471
C:\Users\SOLDER~1\AppData\Local\Temp\ccheWc1y.s:22604  .debug_str:0000000000004e0f .LASF4472
C:\Users\SOLDER~1\AppData\Local\Temp\ccheWc1y.s:32656  .debug_str:000000000002dab7 .LASF4473
C:\Users\SOLDER~1\AppData\Local\Temp\ccheWc1y.s:25434  .debug_str:000000000001070b .LASF4474
C:\Users\SOLDER~1\AppData\Local\Temp\ccheWc1y.s:31928  .debug_str:000000000002ab82 .LASF4475
C:\Users\SOLDER~1\AppData\Local\Temp\ccheWc1y.s:27212  .debug_str:0000000000017a50 .LASF4476
C:\Users\SOLDER~1\AppData\Local\Temp\ccheWc1y.s:28800  .debug_str:000000000001e02b .LASF4477
C:\Users\SOLDER~1\AppData\Local\Temp\ccheWc1y.s:31134  .debug_str:00000000000277ce .LASF4478
C:\Users\SOLDER~1\AppData\Local\Temp\ccheWc1y.s:29842  .debug_str:000000000002235d .LASF4479
C:\Users\SOLDER~1\AppData\Local\Temp\ccheWc1y.s:29768  .debug_str:0000000000021eab .LASF4480
C:\Users\SOLDER~1\AppData\Local\Temp\ccheWc1y.s:25764  .debug_str:0000000000011c22 .LASF4481
C:\Users\SOLDER~1\AppData\Local\Temp\ccheWc1y.s:32830  .debug_str:000000000002e5c1 .LASF4482
C:\Users\SOLDER~1\AppData\Local\Temp\ccheWc1y.s:23964  .debug_str:000000000000a6e0 .LASF4483
C:\Users\SOLDER~1\AppData\Local\Temp\ccheWc1y.s:31826  .debug_str:000000000002a4d5 .LASF4484
C:\Users\SOLDER~1\AppData\Local\Temp\ccheWc1y.s:23094  .debug_str:0000000000006da4 .LASF4485
C:\Users\SOLDER~1\AppData\Local\Temp\ccheWc1y.s:28244  .debug_str:000000000001bc75 .LASF4486
C:\Users\SOLDER~1\AppData\Local\Temp\ccheWc1y.s:32600  .debug_str:000000000002d6ee .LASF4487
C:\Users\SOLDER~1\AppData\Local\Temp\ccheWc1y.s:32160  .debug_str:000000000002ba38 .LASF4488
C:\Users\SOLDER~1\AppData\Local\Temp\ccheWc1y.s:28138  .debug_str:000000000001b5d7 .LASF4489
C:\Users\SOLDER~1\AppData\Local\Temp\ccheWc1y.s:26262  .debug_str:0000000000013c41 .LASF4490
C:\Users\SOLDER~1\AppData\Local\Temp\ccheWc1y.s:26838  .debug_str:000000000001624c .LASF4491
C:\Users\SOLDER~1\AppData\Local\Temp\ccheWc1y.s:26020  .debug_str:0000000000012c48 .LASF4492
C:\Users\SOLDER~1\AppData\Local\Temp\ccheWc1y.s:32008  .debug_str:000000000002b05d .LASF4493
C:\Users\SOLDER~1\AppData\Local\Temp\ccheWc1y.s:27144  .debug_str:000000000001756f .LASF4494
C:\Users\SOLDER~1\AppData\Local\Temp\ccheWc1y.s:30750  .debug_str:0000000000025e14 .LASF4495
C:\Users\SOLDER~1\AppData\Local\Temp\ccheWc1y.s:27274  .debug_str:0000000000017e2e .LASF4496
C:\Users\SOLDER~1\AppData\Local\Temp\ccheWc1y.s:29494  .debug_str:0000000000020d45 .LASF4497
C:\Users\SOLDER~1\AppData\Local\Temp\ccheWc1y.s:32686  .debug_str:000000000002dc62 .LASF4498
C:\Users\SOLDER~1\AppData\Local\Temp\ccheWc1y.s:26538  .debug_str:0000000000014f27 .LASF4499
C:\Users\SOLDER~1\AppData\Local\Temp\ccheWc1y.s:27688  .debug_str:0000000000019943 .LASF4500
C:\Users\SOLDER~1\AppData\Local\Temp\ccheWc1y.s:28878  .debug_str:000000000001e559 .LASF4501
C:\Users\SOLDER~1\AppData\Local\Temp\ccheWc1y.s:29986  .debug_str:0000000000022c56 .LASF4502
C:\Users\SOLDER~1\AppData\Local\Temp\ccheWc1y.s:28404  .debug_str:000000000001c698 .LASF4503
C:\Users\SOLDER~1\AppData\Local\Temp\ccheWc1y.s:31226  .debug_str:0000000000027ddf .LASF4504
C:\Users\SOLDER~1\AppData\Local\Temp\ccheWc1y.s:30028  .debug_str:0000000000022f20 .LASF4505
C:\Users\SOLDER~1\AppData\Local\Temp\ccheWc1y.s:21820  .debug_str:0000000000001bce .LASF4506
GAS LISTING C:\Users\SOLDER~1\AppData\Local\Temp\ccheWc1y.s 			page 145


C:\Users\SOLDER~1\AppData\Local\Temp\ccheWc1y.s:30782  .debug_str:0000000000026060 .LASF4507
C:\Users\SOLDER~1\AppData\Local\Temp\ccheWc1y.s:23000  .debug_str:000000000000676b .LASF4508
C:\Users\SOLDER~1\AppData\Local\Temp\ccheWc1y.s:25718  .debug_str:0000000000011938 .LASF4509
C:\Users\SOLDER~1\AppData\Local\Temp\ccheWc1y.s:28208  .debug_str:000000000001ba55 .LASF4510
C:\Users\SOLDER~1\AppData\Local\Temp\ccheWc1y.s:22360  .debug_str:0000000000003ea1 .LASF4511
C:\Users\SOLDER~1\AppData\Local\Temp\ccheWc1y.s:29764  .debug_str:0000000000021e74 .LASF4512
C:\Users\SOLDER~1\AppData\Local\Temp\ccheWc1y.s:29838  .debug_str:0000000000022327 .LASF4513
C:\Users\SOLDER~1\AppData\Local\Temp\ccheWc1y.s:29344  .debug_str:00000000000203d1 .LASF4514
C:\Users\SOLDER~1\AppData\Local\Temp\ccheWc1y.s:23822  .debug_str:0000000000009d8d .LASF4515
C:\Users\SOLDER~1\AppData\Local\Temp\ccheWc1y.s:26694  .debug_str:000000000001596e .LASF4516
C:\Users\SOLDER~1\AppData\Local\Temp\ccheWc1y.s:29192  .debug_str:000000000001fa00 .LASF4517
C:\Users\SOLDER~1\AppData\Local\Temp\ccheWc1y.s:33052  .debug_str:000000000002f3a4 .LASF4518
C:\Users\SOLDER~1\AppData\Local\Temp\ccheWc1y.s:28928  .debug_str:000000000001e88e .LASF4519
C:\Users\SOLDER~1\AppData\Local\Temp\ccheWc1y.s:21688  .debug_str:0000000000001348 .LASF4520
C:\Users\SOLDER~1\AppData\Local\Temp\ccheWc1y.s:28286  .debug_str:000000000001bee4 .LASF4521
C:\Users\SOLDER~1\AppData\Local\Temp\ccheWc1y.s:24564  .debug_str:000000000000ceb7 .LASF4522
C:\Users\SOLDER~1\AppData\Local\Temp\ccheWc1y.s:30660  .debug_str:0000000000025841 .LASF4523
C:\Users\SOLDER~1\AppData\Local\Temp\ccheWc1y.s:24760  .debug_str:000000000000db96 .LASF4524
C:\Users\SOLDER~1\AppData\Local\Temp\ccheWc1y.s:32230  .debug_str:000000000002beb1 .LASF4525
C:\Users\SOLDER~1\AppData\Local\Temp\ccheWc1y.s:27614  .debug_str:000000000001949b .LASF4526
C:\Users\SOLDER~1\AppData\Local\Temp\ccheWc1y.s:26626  .debug_str:00000000000154d5 .LASF4527
C:\Users\SOLDER~1\AppData\Local\Temp\ccheWc1y.s:30608  .debug_str:000000000002551e .LASF4528
C:\Users\SOLDER~1\AppData\Local\Temp\ccheWc1y.s:32100  .debug_str:000000000002b64c .LASF4529
C:\Users\SOLDER~1\AppData\Local\Temp\ccheWc1y.s:24242  .debug_str:000000000000b968 .LASF4530
C:\Users\SOLDER~1\AppData\Local\Temp\ccheWc1y.s:30546  .debug_str:00000000000250de .LASF4531
C:\Users\SOLDER~1\AppData\Local\Temp\ccheWc1y.s:30180  .debug_str:00000000000238f1 .LASF4532
C:\Users\SOLDER~1\AppData\Local\Temp\ccheWc1y.s:22860  .debug_str:0000000000005e03 .LASF4533
C:\Users\SOLDER~1\AppData\Local\Temp\ccheWc1y.s:30852  .debug_str:000000000002650c .LASF4534
C:\Users\SOLDER~1\AppData\Local\Temp\ccheWc1y.s:32318  .debug_str:000000000002c43e .LASF4535
C:\Users\SOLDER~1\AppData\Local\Temp\ccheWc1y.s:26950  .debug_str:0000000000016981 .LASF4536
C:\Users\SOLDER~1\AppData\Local\Temp\ccheWc1y.s:22556  .debug_str:0000000000004afc .LASF4537
C:\Users\SOLDER~1\AppData\Local\Temp\ccheWc1y.s:25186  .debug_str:000000000000f6b0 .LASF4538
C:\Users\SOLDER~1\AppData\Local\Temp\ccheWc1y.s:26194  .debug_str:00000000000137a2 .LASF4539
C:\Users\SOLDER~1\AppData\Local\Temp\ccheWc1y.s:28510  .debug_str:000000000001cd78 .LASF4540
C:\Users\SOLDER~1\AppData\Local\Temp\ccheWc1y.s:28476  .debug_str:000000000001cb35 .LASF4541
C:\Users\SOLDER~1\AppData\Local\Temp\ccheWc1y.s:26406  .debug_str:000000000001463e .LASF4542
C:\Users\SOLDER~1\AppData\Local\Temp\ccheWc1y.s:32372  .debug_str:000000000002c823 .LASF4543
C:\Users\SOLDER~1\AppData\Local\Temp\ccheWc1y.s:32344  .debug_str:000000000002c61f .LASF4544
C:\Users\SOLDER~1\AppData\Local\Temp\ccheWc1y.s:30550  .debug_str:000000000002513a .LASF4545
C:\Users\SOLDER~1\AppData\Local\Temp\ccheWc1y.s:24910  .debug_str:000000000000e51a .LASF4546
C:\Users\SOLDER~1\AppData\Local\Temp\ccheWc1y.s:23004  .debug_str:00000000000067c9 .LASF4547
C:\Users\SOLDER~1\AppData\Local\Temp\ccheWc1y.s:23064  .debug_str:0000000000006bf1 .LASF4548
C:\Users\SOLDER~1\AppData\Local\Temp\ccheWc1y.s:26166  .debug_str:00000000000135b5 .LASF4549
C:\Users\SOLDER~1\AppData\Local\Temp\ccheWc1y.s:27952  .debug_str:000000000001a9d7 .LASF4550
C:\Users\SOLDER~1\AppData\Local\Temp\ccheWc1y.s:28228  .debug_str:000000000001bb8f .LASF4551
C:\Users\SOLDER~1\AppData\Local\Temp\ccheWc1y.s:30770  .debug_str:0000000000025f9b .LASF4552
C:\Users\SOLDER~1\AppData\Local\Temp\ccheWc1y.s:31692  .debug_str:0000000000029c3c .LASF4553
C:\Users\SOLDER~1\AppData\Local\Temp\ccheWc1y.s:21414  .debug_str:00000000000000f6 .LASF4554
C:\Users\SOLDER~1\AppData\Local\Temp\ccheWc1y.s:29826  .debug_str:000000000002224a .LASF4555
C:\Users\SOLDER~1\AppData\Local\Temp\ccheWc1y.s:29570  .debug_str:00000000000211f5 .LASF4556
C:\Users\SOLDER~1\AppData\Local\Temp\ccheWc1y.s:27452  .debug_str:00000000000189fa .LASF4557
C:\Users\SOLDER~1\AppData\Local\Temp\ccheWc1y.s:32210  .debug_str:000000000002bd72 .LASF4558
C:\Users\SOLDER~1\AppData\Local\Temp\ccheWc1y.s:25408  .debug_str:0000000000010578 .LASF4559
C:\Users\SOLDER~1\AppData\Local\Temp\ccheWc1y.s:25504  .debug_str:0000000000010b8e .LASF4560
C:\Users\SOLDER~1\AppData\Local\Temp\ccheWc1y.s:25606  .debug_str:0000000000011221 .LASF4561
C:\Users\SOLDER~1\AppData\Local\Temp\ccheWc1y.s:25754  .debug_str:0000000000011ba8 .LASF4562
C:\Users\SOLDER~1\AppData\Local\Temp\ccheWc1y.s:25478  .debug_str:0000000000010a1e .LASF4563
GAS LISTING C:\Users\SOLDER~1\AppData\Local\Temp\ccheWc1y.s 			page 146


C:\Users\SOLDER~1\AppData\Local\Temp\ccheWc1y.s:23864  .debug_str:000000000000a05a .LASF4564
C:\Users\SOLDER~1\AppData\Local\Temp\ccheWc1y.s:23230  .debug_str:00000000000076c6 .LASF4565
C:\Users\SOLDER~1\AppData\Local\Temp\ccheWc1y.s:22514  .debug_str:000000000000485d .LASF4566
C:\Users\SOLDER~1\AppData\Local\Temp\ccheWc1y.s:25926  .debug_str:0000000000012661 .LASF4567
C:\Users\SOLDER~1\AppData\Local\Temp\ccheWc1y.s:31184  .debug_str:0000000000027b32 .LASF4568
C:\Users\SOLDER~1\AppData\Local\Temp\ccheWc1y.s:26914  .debug_str:000000000001673b .LASF4569
C:\Users\SOLDER~1\AppData\Local\Temp\ccheWc1y.s:28632  .debug_str:000000000001d591 .LASF4570
C:\Users\SOLDER~1\AppData\Local\Temp\ccheWc1y.s:28820  .debug_str:000000000001e18a .LASF4571
C:\Users\SOLDER~1\AppData\Local\Temp\ccheWc1y.s:25640  .debug_str:0000000000011450 .LASF4572
C:\Users\SOLDER~1\AppData\Local\Temp\ccheWc1y.s:27238  .debug_str:0000000000017c02 .LASF4573
C:\Users\SOLDER~1\AppData\Local\Temp\ccheWc1y.s:32214  .debug_str:000000000002bdbf .LASF4574
C:\Users\SOLDER~1\AppData\Local\Temp\ccheWc1y.s:28812  .debug_str:000000000001e0fc .LASF4575
C:\Users\SOLDER~1\AppData\Local\Temp\ccheWc1y.s:21970  .debug_str:00000000000025e0 .LASF4576
C:\Users\SOLDER~1\AppData\Local\Temp\ccheWc1y.s:24066  .debug_str:000000000000adea .LASF4577
C:\Users\SOLDER~1\AppData\Local\Temp\ccheWc1y.s:24022  .debug_str:000000000000aafd .LASF4578
C:\Users\SOLDER~1\AppData\Local\Temp\ccheWc1y.s:28388  .debug_str:000000000001c599 .LASF4579
C:\Users\SOLDER~1\AppData\Local\Temp\ccheWc1y.s:25554  .debug_str:0000000000010efb .LASF4580
C:\Users\SOLDER~1\AppData\Local\Temp\ccheWc1y.s:28300  .debug_str:000000000001bfef .LASF4581
C:\Users\SOLDER~1\AppData\Local\Temp\ccheWc1y.s:31236  .debug_str:0000000000027e8a .LASF4582
C:\Users\SOLDER~1\AppData\Local\Temp\ccheWc1y.s:24400  .debug_str:000000000000c31a .LASF4583
C:\Users\SOLDER~1\AppData\Local\Temp\ccheWc1y.s:23252  .debug_str:0000000000007822 .LASF4584
C:\Users\SOLDER~1\AppData\Local\Temp\ccheWc1y.s:27306  .debug_str:0000000000018045 .LASF4585
C:\Users\SOLDER~1\AppData\Local\Temp\ccheWc1y.s:28232  .debug_str:000000000001bbc7 .LASF4586
C:\Users\SOLDER~1\AppData\Local\Temp\ccheWc1y.s:22774  .debug_str:0000000000005840 .LASF4587
C:\Users\SOLDER~1\AppData\Local\Temp\ccheWc1y.s:23354  .debug_str:0000000000007eb7 .LASF4588
C:\Users\SOLDER~1\AppData\Local\Temp\ccheWc1y.s:23558  .debug_str:0000000000008bf9 .LASF4589
C:\Users\SOLDER~1\AppData\Local\Temp\ccheWc1y.s:28960  .debug_str:000000000001ea94 .LASF4590
C:\Users\SOLDER~1\AppData\Local\Temp\ccheWc1y.s:32520  .debug_str:000000000002d180 .LASF4591
C:\Users\SOLDER~1\AppData\Local\Temp\ccheWc1y.s:23270  .debug_str:000000000000790c .LASF4594
C:\Users\SOLDER~1\AppData\Local\Temp\ccheWc1y.s:27994  .debug_str:000000000001ac7b .LASF4595
C:\Users\SOLDER~1\AppData\Local\Temp\ccheWc1y.s:26286  .debug_str:0000000000013df7 .LASF4596
C:\Users\SOLDER~1\AppData\Local\Temp\ccheWc1y.s:23032  .debug_str:00000000000069de .LASF4597
C:\Users\SOLDER~1\AppData\Local\Temp\ccheWc1y.s:29776  .debug_str:0000000000021f06 .LASF4598
C:\Users\SOLDER~1\AppData\Local\Temp\ccheWc1y.s:26680  .debug_str:000000000001586c .LASF4599
C:\Users\SOLDER~1\AppData\Local\Temp\ccheWc1y.s:32122  .debug_str:000000000002b812 .LASF4600
C:\Users\SOLDER~1\AppData\Local\Temp\ccheWc1y.s:27026  .debug_str:0000000000016e0c .LASF4601
C:\Users\SOLDER~1\AppData\Local\Temp\ccheWc1y.s:24604  .debug_str:000000000000d13c .LASF4602
C:\Users\SOLDER~1\AppData\Local\Temp\ccheWc1y.s:26408  .debug_str:0000000000014678 .LASF4603
C:\Users\SOLDER~1\AppData\Local\Temp\ccheWc1y.s:25270  .debug_str:000000000000fc1c .LASF4604
C:\Users\SOLDER~1\AppData\Local\Temp\ccheWc1y.s:31834  .debug_str:000000000002a548 .LASF4605
C:\Users\SOLDER~1\AppData\Local\Temp\ccheWc1y.s:32960  .debug_str:000000000002eda5 .LASF4606
C:\Users\SOLDER~1\AppData\Local\Temp\ccheWc1y.s:30314  .debug_str:00000000000241b3 .LASF4607
C:\Users\SOLDER~1\AppData\Local\Temp\ccheWc1y.s:23954  .debug_str:000000000000a63a .LASF4608
C:\Users\SOLDER~1\AppData\Local\Temp\ccheWc1y.s:26178  .debug_str:0000000000013667 .LASF4609
C:\Users\SOLDER~1\AppData\Local\Temp\ccheWc1y.s:30298  .debug_str:0000000000024099 .LASF4610
C:\Users\SOLDER~1\AppData\Local\Temp\ccheWc1y.s:23126  .debug_str:0000000000006fd1 .LASF4611
C:\Users\SOLDER~1\AppData\Local\Temp\ccheWc1y.s:29214  .debug_str:000000000001fba2 .LASF4612
C:\Users\SOLDER~1\AppData\Local\Temp\ccheWc1y.s:22346  .debug_str:0000000000003dae .LASF4613
C:\Users\SOLDER~1\AppData\Local\Temp\ccheWc1y.s:30960  .debug_str:0000000000026c4f .LASF4614
C:\Users\SOLDER~1\AppData\Local\Temp\ccheWc1y.s:23548  .debug_str:0000000000008b4b .LASF4615
C:\Users\SOLDER~1\AppData\Local\Temp\ccheWc1y.s:31012  .debug_str:0000000000026fbf .LASF4616
C:\Users\SOLDER~1\AppData\Local\Temp\ccheWc1y.s:23134  .debug_str:000000000000707d .LASF4617
C:\Users\SOLDER~1\AppData\Local\Temp\ccheWc1y.s:22080  .debug_str:0000000000002ca2 .LASF4618
C:\Users\SOLDER~1\AppData\Local\Temp\ccheWc1y.s:24180  .debug_str:000000000000b534 .LASF4619
C:\Users\SOLDER~1\AppData\Local\Temp\ccheWc1y.s:24304  .debug_str:000000000000bcee .LASF4620
C:\Users\SOLDER~1\AppData\Local\Temp\ccheWc1y.s:30452  .debug_str:0000000000024ac8 .LASF4621
C:\Users\SOLDER~1\AppData\Local\Temp\ccheWc1y.s:31582  .debug_str:00000000000294e0 .LASF4622
GAS LISTING C:\Users\SOLDER~1\AppData\Local\Temp\ccheWc1y.s 			page 147


C:\Users\SOLDER~1\AppData\Local\Temp\ccheWc1y.s:27392  .debug_str:0000000000018630 .LASF4623
C:\Users\SOLDER~1\AppData\Local\Temp\ccheWc1y.s:25404  .debug_str:0000000000010548 .LASF4624
C:\Users\SOLDER~1\AppData\Local\Temp\ccheWc1y.s:31998  .debug_str:000000000002afb5 .LASF4625
C:\Users\SOLDER~1\AppData\Local\Temp\ccheWc1y.s:27062  .debug_str:0000000000017064 .LASF4626
C:\Users\SOLDER~1\AppData\Local\Temp\ccheWc1y.s:29058  .debug_str:000000000001f128 .LASF4627
C:\Users\SOLDER~1\AppData\Local\Temp\ccheWc1y.s:26384  .debug_str:00000000000144db .LASF4628
C:\Users\SOLDER~1\AppData\Local\Temp\ccheWc1y.s:23736  .debug_str:00000000000097f9 .LASF4629
C:\Users\SOLDER~1\AppData\Local\Temp\ccheWc1y.s:28944  .debug_str:000000000001e97a .LASF4630
C:\Users\SOLDER~1\AppData\Local\Temp\ccheWc1y.s:29942  .debug_str:000000000002294d .LASF4631
C:\Users\SOLDER~1\AppData\Local\Temp\ccheWc1y.s:28756  .debug_str:000000000001dd9d .LASF4632
C:\Users\SOLDER~1\AppData\Local\Temp\ccheWc1y.s:32638  .debug_str:000000000002d97b .LASF4633
C:\Users\SOLDER~1\AppData\Local\Temp\ccheWc1y.s:29912  .debug_str:00000000000227ab .LASF4634
C:\Users\SOLDER~1\AppData\Local\Temp\ccheWc1y.s:27118  .debug_str:00000000000173b5 .LASF4635
C:\Users\SOLDER~1\AppData\Local\Temp\ccheWc1y.s:27174  .debug_str:00000000000177b6 .LASF4636
C:\Users\SOLDER~1\AppData\Local\Temp\ccheWc1y.s:26256  .debug_str:0000000000013bd2 .LASF4637
C:\Users\SOLDER~1\AppData\Local\Temp\ccheWc1y.s:26232  .debug_str:0000000000013a1c .LASF4638
C:\Users\SOLDER~1\AppData\Local\Temp\ccheWc1y.s:26234  .debug_str:0000000000013a4d .LASF4639
C:\Users\SOLDER~1\AppData\Local\Temp\ccheWc1y.s:31830  .debug_str:000000000002a503 .LASF4640
C:\Users\SOLDER~1\AppData\Local\Temp\ccheWc1y.s:24508  .debug_str:000000000000cab4 .LASF4641
C:\Users\SOLDER~1\AppData\Local\Temp\ccheWc1y.s:33074  .debug_str:000000000002f501 .LASF4642
C:\Users\SOLDER~1\AppData\Local\Temp\ccheWc1y.s:29900  .debug_str:00000000000226f9 .LASF4643
C:\Users\SOLDER~1\AppData\Local\Temp\ccheWc1y.s:24740  .debug_str:000000000000da37 .LASF4644
C:\Users\SOLDER~1\AppData\Local\Temp\ccheWc1y.s:28864  .debug_str:000000000001e49c .LASF4645
C:\Users\SOLDER~1\AppData\Local\Temp\ccheWc1y.s:24772  .debug_str:000000000000dc5c .LASF4646
C:\Users\SOLDER~1\AppData\Local\Temp\ccheWc1y.s:28306  .debug_str:000000000001c049 .LASF4647
C:\Users\SOLDER~1\AppData\Local\Temp\ccheWc1y.s:25364  .debug_str:00000000000102d3 .LASF4648
C:\Users\SOLDER~1\AppData\Local\Temp\ccheWc1y.s:24610  .debug_str:000000000000d1b1 .LASF4649
C:\Users\SOLDER~1\AppData\Local\Temp\ccheWc1y.s:21852  .debug_str:0000000000001e08 .LASF4650
C:\Users\SOLDER~1\AppData\Local\Temp\ccheWc1y.s:24642  .debug_str:000000000000d3a4 .LASF4651
C:\Users\SOLDER~1\AppData\Local\Temp\ccheWc1y.s:27938  .debug_str:000000000001a8c0 .LASF4652
C:\Users\SOLDER~1\AppData\Local\Temp\ccheWc1y.s:30182  .debug_str:000000000002392b .LASF4653
C:\Users\SOLDER~1\AppData\Local\Temp\ccheWc1y.s:26302  .debug_str:0000000000013f13 .LASF4654
C:\Users\SOLDER~1\AppData\Local\Temp\ccheWc1y.s:23452  .debug_str:0000000000008529 .LASF4655
C:\Users\SOLDER~1\AppData\Local\Temp\ccheWc1y.s:28386  .debug_str:000000000001c561 .LASF4656
C:\Users\SOLDER~1\AppData\Local\Temp\ccheWc1y.s:25330  .debug_str:000000000001007d .LASF4657
C:\Users\SOLDER~1\AppData\Local\Temp\ccheWc1y.s:23846  .debug_str:0000000000009ef8 .LASF4658
C:\Users\SOLDER~1\AppData\Local\Temp\ccheWc1y.s:24152  .debug_str:000000000000b37b .LASF4659
C:\Users\SOLDER~1\AppData\Local\Temp\ccheWc1y.s:31792  .debug_str:000000000002a26e .LASF4660
C:\Users\SOLDER~1\AppData\Local\Temp\ccheWc1y.s:28546  .debug_str:000000000001cfd2 .LASF4661
C:\Users\SOLDER~1\AppData\Local\Temp\ccheWc1y.s:27858  .debug_str:000000000001a3bd .LASF4662
C:\Users\SOLDER~1\AppData\Local\Temp\ccheWc1y.s:21406  .debug_str:0000000000000056 .LASF4663
C:\Users\SOLDER~1\AppData\Local\Temp\ccheWc1y.s:25848  .debug_str:000000000001217e .LASF4664
C:\Users\SOLDER~1\AppData\Local\Temp\ccheWc1y.s:27718  .debug_str:0000000000019b60 .LASF4665
C:\Users\SOLDER~1\AppData\Local\Temp\ccheWc1y.s:32358  .debug_str:000000000002c73a .LASF4666
C:\Users\SOLDER~1\AppData\Local\Temp\ccheWc1y.s:21702  .debug_str:0000000000001440 .LASF4667
C:\Users\SOLDER~1\AppData\Local\Temp\ccheWc1y.s:21494  .debug_str:00000000000005d6 .LASF4668
C:\Users\SOLDER~1\AppData\Local\Temp\ccheWc1y.s:23022  .debug_str:000000000000691f .LASF4669
C:\Users\SOLDER~1\AppData\Local\Temp\ccheWc1y.s:24920  .debug_str:000000000000e5e5 .LASF4670
C:\Users\SOLDER~1\AppData\Local\Temp\ccheWc1y.s:21834  .debug_str:0000000000001ccc .LASF4671
C:\Users\SOLDER~1\AppData\Local\Temp\ccheWc1y.s:21738  .debug_str:0000000000001688 .LASF4672
C:\Users\SOLDER~1\AppData\Local\Temp\ccheWc1y.s:29212  .debug_str:000000000001fb61 .LASF4673
C:\Users\SOLDER~1\AppData\Local\Temp\ccheWc1y.s:26920  .debug_str:0000000000016792 .LASF4674
C:\Users\SOLDER~1\AppData\Local\Temp\ccheWc1y.s:22516  .debug_str:0000000000004870 .LASF4675
C:\Users\SOLDER~1\AppData\Local\Temp\ccheWc1y.s:25992  .debug_str:0000000000012a7e .LASF4676
C:\Users\SOLDER~1\AppData\Local\Temp\ccheWc1y.s:25308  .debug_str:000000000000feee .LASF4677
C:\Users\SOLDER~1\AppData\Local\Temp\ccheWc1y.s:23402  .debug_str:00000000000081db .LASF4678
C:\Users\SOLDER~1\AppData\Local\Temp\ccheWc1y.s:30498  .debug_str:0000000000024dd7 .LASF4679
GAS LISTING C:\Users\SOLDER~1\AppData\Local\Temp\ccheWc1y.s 			page 148


C:\Users\SOLDER~1\AppData\Local\Temp\ccheWc1y.s:26556  .debug_str:0000000000015062 .LASF4680
C:\Users\SOLDER~1\AppData\Local\Temp\ccheWc1y.s:29458  .debug_str:0000000000020b03 .LASF4681
C:\Users\SOLDER~1\AppData\Local\Temp\ccheWc1y.s:23028  .debug_str:00000000000069ab .LASF4682
C:\Users\SOLDER~1\AppData\Local\Temp\ccheWc1y.s:21800  .debug_str:0000000000001a84 .LASF4683
C:\Users\SOLDER~1\AppData\Local\Temp\ccheWc1y.s:24476  .debug_str:000000000000c882 .LASF4684
C:\Users\SOLDER~1\AppData\Local\Temp\ccheWc1y.s:31788  .debug_str:000000000002a230 .LASF4685
C:\Users\SOLDER~1\AppData\Local\Temp\ccheWc1y.s:31256  .debug_str:0000000000027fc5 .LASF4686
C:\Users\SOLDER~1\AppData\Local\Temp\ccheWc1y.s:28700  .debug_str:000000000001da4b .LASF4687
C:\Users\SOLDER~1\AppData\Local\Temp\ccheWc1y.s:31320  .debug_str:0000000000028417 .LASF4688
C:\Users\SOLDER~1\AppData\Local\Temp\ccheWc1y.s:29306  .debug_str:0000000000020186 .LASF4689
C:\Users\SOLDER~1\AppData\Local\Temp\ccheWc1y.s:30780  .debug_str:000000000002602e .LASF4690
C:\Users\SOLDER~1\AppData\Local\Temp\ccheWc1y.s:21678  .debug_str:00000000000012b1 .LASF4691
C:\Users\SOLDER~1\AppData\Local\Temp\ccheWc1y.s:29148  .debug_str:000000000001f70e .LASF4692
C:\Users\SOLDER~1\AppData\Local\Temp\ccheWc1y.s:30018  .debug_str:0000000000022e7a .LASF4693
C:\Users\SOLDER~1\AppData\Local\Temp\ccheWc1y.s:31586  .debug_str:0000000000029515 .LASF4694
C:\Users\SOLDER~1\AppData\Local\Temp\ccheWc1y.s:28740  .debug_str:000000000001dc95 .LASF4695
C:\Users\SOLDER~1\AppData\Local\Temp\ccheWc1y.s:21776  .debug_str:00000000000018dd .LASF4696
C:\Users\SOLDER~1\AppData\Local\Temp\ccheWc1y.s:26540  .debug_str:0000000000014f5e .LASF4697
C:\Users\SOLDER~1\AppData\Local\Temp\ccheWc1y.s:23302  .debug_str:0000000000007b34 .LASF4698
C:\Users\SOLDER~1\AppData\Local\Temp\ccheWc1y.s:32088  .debug_str:000000000002b57b .LASF4699
C:\Users\SOLDER~1\AppData\Local\Temp\ccheWc1y.s:28566  .debug_str:000000000001d159 .LASF4700
C:\Users\SOLDER~1\AppData\Local\Temp\ccheWc1y.s:23790  .debug_str:0000000000009b9a .LASF4701
C:\Users\SOLDER~1\AppData\Local\Temp\ccheWc1y.s:22086  .debug_str:0000000000002d11 .LASF4702
C:\Users\SOLDER~1\AppData\Local\Temp\ccheWc1y.s:22040  .debug_str:0000000000002a6e .LASF4703
C:\Users\SOLDER~1\AppData\Local\Temp\ccheWc1y.s:30502  .debug_str:0000000000024e1d .LASF4704
C:\Users\SOLDER~1\AppData\Local\Temp\ccheWc1y.s:27356  .debug_str:00000000000183a0 .LASF4705
C:\Users\SOLDER~1\AppData\Local\Temp\ccheWc1y.s:31388  .debug_str:0000000000028875 .LASF4706
C:\Users\SOLDER~1\AppData\Local\Temp\ccheWc1y.s:25766  .debug_str:0000000000011c3b .LASF4707
C:\Users\SOLDER~1\AppData\Local\Temp\ccheWc1y.s:24246  .debug_str:000000000000b9a1 .LASF4708
C:\Users\SOLDER~1\AppData\Local\Temp\ccheWc1y.s:27432  .debug_str:00000000000188b6 .LASF4709
C:\Users\SOLDER~1\AppData\Local\Temp\ccheWc1y.s:28448  .debug_str:000000000001c977 .LASF4710
C:\Users\SOLDER~1\AppData\Local\Temp\ccheWc1y.s:29438  .debug_str:000000000002099c .LASF4711
C:\Users\SOLDER~1\AppData\Local\Temp\ccheWc1y.s:27292  .debug_str:0000000000017f6c .LASF4712
C:\Users\SOLDER~1\AppData\Local\Temp\ccheWc1y.s:28090  .debug_str:000000000001b2f5 .LASF4713
C:\Users\SOLDER~1\AppData\Local\Temp\ccheWc1y.s:25496  .debug_str:0000000000010b27 .LASF4714
C:\Users\SOLDER~1\AppData\Local\Temp\ccheWc1y.s:32982  .debug_str:000000000002ef49 .LASF4715
C:\Users\SOLDER~1\AppData\Local\Temp\ccheWc1y.s:32056  .debug_str:000000000002b38d .LASF4716
C:\Users\SOLDER~1\AppData\Local\Temp\ccheWc1y.s:31140  .debug_str:0000000000027838 .LASF4717
C:\Users\SOLDER~1\AppData\Local\Temp\ccheWc1y.s:31576  .debug_str:0000000000029480 .LASF4718
C:\Users\SOLDER~1\AppData\Local\Temp\ccheWc1y.s:30012  .debug_str:0000000000022e17 .LASF4719
C:\Users\SOLDER~1\AppData\Local\Temp\ccheWc1y.s:25890  .debug_str:0000000000012416 .LASF4720
C:\Users\SOLDER~1\AppData\Local\Temp\ccheWc1y.s:27646  .debug_str:000000000001969a .LASF4721
C:\Users\SOLDER~1\AppData\Local\Temp\ccheWc1y.s:21594  .debug_str:0000000000000d6b .LASF4722
C:\Users\SOLDER~1\AppData\Local\Temp\ccheWc1y.s:29092  .debug_str:000000000001f359 .LASF4723
C:\Users\SOLDER~1\AppData\Local\Temp\ccheWc1y.s:23716  .debug_str:00000000000096cc .LASF4724
C:\Users\SOLDER~1\AppData\Local\Temp\ccheWc1y.s:29140  .debug_str:000000000001f689 .LASF4725
C:\Users\SOLDER~1\AppData\Local\Temp\ccheWc1y.s:27736  .debug_str:0000000000019cc4 .LASF4726
C:\Users\SOLDER~1\AppData\Local\Temp\ccheWc1y.s:24104  .debug_str:000000000000b04d .LASF4727
C:\Users\SOLDER~1\AppData\Local\Temp\ccheWc1y.s:23792  .debug_str:0000000000009bb5 .LASF4728
C:\Users\SOLDER~1\AppData\Local\Temp\ccheWc1y.s:31032  .debug_str:0000000000027141 .LASF4729
C:\Users\SOLDER~1\AppData\Local\Temp\ccheWc1y.s:29998  .debug_str:0000000000022d1e .LASF4730
C:\Users\SOLDER~1\AppData\Local\Temp\ccheWc1y.s:32420  .debug_str:000000000002cb28 .LASF4731
C:\Users\SOLDER~1\AppData\Local\Temp\ccheWc1y.s:30220  .debug_str:0000000000023bd3 .LASF4732
C:\Users\SOLDER~1\AppData\Local\Temp\ccheWc1y.s:31252  .debug_str:0000000000027f84 .LASF4733
C:\Users\SOLDER~1\AppData\Local\Temp\ccheWc1y.s:31704  .debug_str:0000000000029cf0 .LASF4734
C:\Users\SOLDER~1\AppData\Local\Temp\ccheWc1y.s:24218  .debug_str:000000000000b7e9 .LASF4735
C:\Users\SOLDER~1\AppData\Local\Temp\ccheWc1y.s:22898  .debug_str:0000000000006076 .LASF4736
GAS LISTING C:\Users\SOLDER~1\AppData\Local\Temp\ccheWc1y.s 			page 149


C:\Users\SOLDER~1\AppData\Local\Temp\ccheWc1y.s:22244  .debug_str:0000000000003730 .LASF4737
C:\Users\SOLDER~1\AppData\Local\Temp\ccheWc1y.s:31180  .debug_str:0000000000027aef .LASF4738
C:\Users\SOLDER~1\AppData\Local\Temp\ccheWc1y.s:29522  .debug_str:0000000000020f20 .LASF4739
C:\Users\SOLDER~1\AppData\Local\Temp\ccheWc1y.s:22306  .debug_str:0000000000003b44 .LASF4740
C:\Users\SOLDER~1\AppData\Local\Temp\ccheWc1y.s:22416  .debug_str:0000000000004239 .LASF4741
C:\Users\SOLDER~1\AppData\Local\Temp\ccheWc1y.s:30240  .debug_str:0000000000023d2a .LASF4742
C:\Users\SOLDER~1\AppData\Local\Temp\ccheWc1y.s:30584  .debug_str:0000000000025386 .LASF4743
C:\Users\SOLDER~1\AppData\Local\Temp\ccheWc1y.s:26124  .debug_str:0000000000013319 .LASF4744
C:\Users\SOLDER~1\AppData\Local\Temp\ccheWc1y.s:21832  .debug_str:0000000000001ca6 .LASF4745
C:\Users\SOLDER~1\AppData\Local\Temp\ccheWc1y.s:30764  .debug_str:0000000000025f27 .LASF4746
C:\Users\SOLDER~1\AppData\Local\Temp\ccheWc1y.s:24764  .debug_str:000000000000dbd9 .LASF4747
C:\Users\SOLDER~1\AppData\Local\Temp\ccheWc1y.s:21674  .debug_str:000000000000127b .LASF4748
C:\Users\SOLDER~1\AppData\Local\Temp\ccheWc1y.s:30214  .debug_str:0000000000023b6d .LASF4749
C:\Users\SOLDER~1\AppData\Local\Temp\ccheWc1y.s:31974  .debug_str:000000000002ae56 .LASF4750
C:\Users\SOLDER~1\AppData\Local\Temp\ccheWc1y.s:25202  .debug_str:000000000000f7be .LASF4751
C:\Users\SOLDER~1\AppData\Local\Temp\ccheWc1y.s:24376  .debug_str:000000000000c180 .LASF4752
C:\Users\SOLDER~1\AppData\Local\Temp\ccheWc1y.s:30652  .debug_str:00000000000257c0 .LASF4753
C:\Users\SOLDER~1\AppData\Local\Temp\ccheWc1y.s:27608  .debug_str:0000000000019435 .LASF4754
C:\Users\SOLDER~1\AppData\Local\Temp\ccheWc1y.s:21560  .debug_str:0000000000000b03 .LASF4755
C:\Users\SOLDER~1\AppData\Local\Temp\ccheWc1y.s:33056  .debug_str:000000000002f3e1 .LASF4756
C:\Users\SOLDER~1\AppData\Local\Temp\ccheWc1y.s:29914  .debug_str:00000000000227ca .LASF4757
C:\Users\SOLDER~1\AppData\Local\Temp\ccheWc1y.s:30388  .debug_str:0000000000024699 .LASF4758
C:\Users\SOLDER~1\AppData\Local\Temp\ccheWc1y.s:22680  .debug_str:00000000000052a1 .LASF4759
C:\Users\SOLDER~1\AppData\Local\Temp\ccheWc1y.s:25224  .debug_str:000000000000f941 .LASF4760
C:\Users\SOLDER~1\AppData\Local\Temp\ccheWc1y.s:30648  .debug_str:000000000002578a .LASF4761
C:\Users\SOLDER~1\AppData\Local\Temp\ccheWc1y.s:27604  .debug_str:00000000000193f5 .LASF4762
C:\Users\SOLDER~1\AppData\Local\Temp\ccheWc1y.s:24456  .debug_str:000000000000c719 .LASF4763
C:\Users\SOLDER~1\AppData\Local\Temp\ccheWc1y.s:23700  .debug_str:000000000000959d .LASF4764
C:\Users\SOLDER~1\AppData\Local\Temp\ccheWc1y.s:23624  .debug_str:0000000000009075 .LASF4765
C:\Users\SOLDER~1\AppData\Local\Temp\ccheWc1y.s:26862  .debug_str:00000000000163d1 .LASF4766
C:\Users\SOLDER~1\AppData\Local\Temp\ccheWc1y.s:29168  .debug_str:000000000001f86f .LASF4767
C:\Users\SOLDER~1\AppData\Local\Temp\ccheWc1y.s:26066  .debug_str:0000000000012f22 .LASF4768
C:\Users\SOLDER~1\AppData\Local\Temp\ccheWc1y.s:32676  .debug_str:000000000002dbd2 .LASF4769
C:\Users\SOLDER~1\AppData\Local\Temp\ccheWc1y.s:29236  .debug_str:000000000001fd03 .LASF4770
C:\Users\SOLDER~1\AppData\Local\Temp\ccheWc1y.s:25236  .debug_str:000000000000f9fb .LASF4771
C:\Users\SOLDER~1\AppData\Local\Temp\ccheWc1y.s:25158  .debug_str:000000000000f4ef .LASF4772
C:\Users\SOLDER~1\AppData\Local\Temp\ccheWc1y.s:22204  .debug_str:00000000000034bd .LASF4773
C:\Users\SOLDER~1\AppData\Local\Temp\ccheWc1y.s:30774  .debug_str:0000000000025fce .LASF4774
C:\Users\SOLDER~1\AppData\Local\Temp\ccheWc1y.s:21722  .debug_str:0000000000001595 .LASF4775
C:\Users\SOLDER~1\AppData\Local\Temp\ccheWc1y.s:22330  .debug_str:0000000000003ccd .LASF4776
C:\Users\SOLDER~1\AppData\Local\Temp\ccheWc1y.s:28932  .debug_str:000000000001e8c1 .LASF4777
C:\Users\SOLDER~1\AppData\Local\Temp\ccheWc1y.s:22746  .debug_str:000000000000566d .LASF4778
C:\Users\SOLDER~1\AppData\Local\Temp\ccheWc1y.s:32064  .debug_str:000000000002b404 .LASF4779
C:\Users\SOLDER~1\AppData\Local\Temp\ccheWc1y.s:32332  .debug_str:000000000002c54b .LASF4780
C:\Users\SOLDER~1\AppData\Local\Temp\ccheWc1y.s:24992  .debug_str:000000000000ea7d .LASF4781
C:\Users\SOLDER~1\AppData\Local\Temp\ccheWc1y.s:29170  .debug_str:000000000001f88b .LASF4782
C:\Users\SOLDER~1\AppData\Local\Temp\ccheWc1y.s:24892  .debug_str:000000000000e3cc .LASF4783
C:\Users\SOLDER~1\AppData\Local\Temp\ccheWc1y.s:24286  .debug_str:000000000000bbc2 .LASF4784
C:\Users\SOLDER~1\AppData\Local\Temp\ccheWc1y.s:29578  .debug_str:000000000002127a .LASF4785
C:\Users\SOLDER~1\AppData\Local\Temp\ccheWc1y.s:21848  .debug_str:0000000000001dd4 .LASF4786
C:\Users\SOLDER~1\AppData\Local\Temp\ccheWc1y.s:28058  .debug_str:000000000001b095 .LASF4787
C:\Users\SOLDER~1\AppData\Local\Temp\ccheWc1y.s:32972  .debug_str:000000000002ee82 .LASF4788
C:\Users\SOLDER~1\AppData\Local\Temp\ccheWc1y.s:23974  .debug_str:000000000000a7a4 .LASF4789
C:\Users\SOLDER~1\AppData\Local\Temp\ccheWc1y.s:32998  .debug_str:000000000002f05b .LASF4790
C:\Users\SOLDER~1\AppData\Local\Temp\ccheWc1y.s:22376  .debug_str:0000000000003fa8 .LASF4791
C:\Users\SOLDER~1\AppData\Local\Temp\ccheWc1y.s:31102  .debug_str:00000000000275d7 .LASF4792
C:\Users\SOLDER~1\AppData\Local\Temp\ccheWc1y.s:31312  .debug_str:0000000000028398 .LASF4793
GAS LISTING C:\Users\SOLDER~1\AppData\Local\Temp\ccheWc1y.s 			page 150


C:\Users\SOLDER~1\AppData\Local\Temp\ccheWc1y.s:23532  .debug_str:0000000000008a26 .LASF4794
C:\Users\SOLDER~1\AppData\Local\Temp\ccheWc1y.s:23984  .debug_str:000000000000a85b .LASF4795
C:\Users\SOLDER~1\AppData\Local\Temp\ccheWc1y.s:31996  .debug_str:000000000002af8e .LASF4796
C:\Users\SOLDER~1\AppData\Local\Temp\ccheWc1y.s:27096  .debug_str:0000000000017242 .LASF4797
C:\Users\SOLDER~1\AppData\Local\Temp\ccheWc1y.s:22230  .debug_str:0000000000003643 .LASF4798
C:\Users\SOLDER~1\AppData\Local\Temp\ccheWc1y.s:24380  .debug_str:000000000000c1c1 .LASF4799
C:\Users\SOLDER~1\AppData\Local\Temp\ccheWc1y.s:25512  .debug_str:0000000000010bf3 .LASF4800
C:\Users\SOLDER~1\AppData\Local\Temp\ccheWc1y.s:31662  .debug_str:0000000000029a15 .LASF4801
C:\Users\SOLDER~1\AppData\Local\Temp\ccheWc1y.s:23098  .debug_str:0000000000006de0 .LASF4802
C:\Users\SOLDER~1\AppData\Local\Temp\ccheWc1y.s:29954  .debug_str:0000000000022a22 .LASF4803
C:\Users\SOLDER~1\AppData\Local\Temp\ccheWc1y.s:25320  .debug_str:000000000000ffb9 .LASF4804
C:\Users\SOLDER~1\AppData\Local\Temp\ccheWc1y.s:29562  .debug_str:0000000000021199 .LASF4805
C:\Users\SOLDER~1\AppData\Local\Temp\ccheWc1y.s:32550  .debug_str:000000000002d36d .LASF4806
C:\Users\SOLDER~1\AppData\Local\Temp\ccheWc1y.s:22946  .debug_str:00000000000063da .LASF4807
C:\Users\SOLDER~1\AppData\Local\Temp\ccheWc1y.s:30558  .debug_str:00000000000251de .LASF4808
C:\Users\SOLDER~1\AppData\Local\Temp\ccheWc1y.s:23654  .debug_str:0000000000009285 .LASF4809
C:\Users\SOLDER~1\AppData\Local\Temp\ccheWc1y.s:25334  .debug_str:00000000000100db .LASF4810
C:\Users\SOLDER~1\AppData\Local\Temp\ccheWc1y.s:28206  .debug_str:000000000001ba30 .LASF4811
C:\Users\SOLDER~1\AppData\Local\Temp\ccheWc1y.s:32816  .debug_str:000000000002e4ba .LASF4812
C:\Users\SOLDER~1\AppData\Local\Temp\ccheWc1y.s:32118  .debug_str:000000000002b7c0 .LASF4813
C:\Users\SOLDER~1\AppData\Local\Temp\ccheWc1y.s:23474  .debug_str:000000000000868f .LASF4814
C:\Users\SOLDER~1\AppData\Local\Temp\ccheWc1y.s:25638  .debug_str:000000000001142c .LASF4815
C:\Users\SOLDER~1\AppData\Local\Temp\ccheWc1y.s:24690  .debug_str:000000000000d6e5 .LASF4816
C:\Users\SOLDER~1\AppData\Local\Temp\ccheWc1y.s:23596  .debug_str:0000000000008e74 .LASF4817
C:\Users\SOLDER~1\AppData\Local\Temp\ccheWc1y.s:22214  .debug_str:0000000000003556 .LASF4818
C:\Users\SOLDER~1\AppData\Local\Temp\ccheWc1y.s:28996  .debug_str:000000000001ed2b .LASF4819
C:\Users\SOLDER~1\AppData\Local\Temp\ccheWc1y.s:29034  .debug_str:000000000001efa1 .LASF4820
C:\Users\SOLDER~1\AppData\Local\Temp\ccheWc1y.s:29706  .debug_str:0000000000021ab8 .LASF4821
C:\Users\SOLDER~1\AppData\Local\Temp\ccheWc1y.s:32754  .debug_str:000000000002e0ca .LASF4822
C:\Users\SOLDER~1\AppData\Local\Temp\ccheWc1y.s:23630  .debug_str:00000000000090d4 .LASF4823
C:\Users\SOLDER~1\AppData\Local\Temp\ccheWc1y.s:22816  .debug_str:0000000000005b35 .LASF4824
C:\Users\SOLDER~1\AppData\Local\Temp\ccheWc1y.s:21570  .debug_str:0000000000000bc2 .LASF4825
C:\Users\SOLDER~1\AppData\Local\Temp\ccheWc1y.s:30138  .debug_str:0000000000023647 .LASF4826
C:\Users\SOLDER~1\AppData\Local\Temp\ccheWc1y.s:25036  .debug_str:000000000000ed8d .LASF4827
C:\Users\SOLDER~1\AppData\Local\Temp\ccheWc1y.s:26636  .debug_str:000000000001558c .LASF4828
C:\Users\SOLDER~1\AppData\Local\Temp\ccheWc1y.s:27240  .debug_str:0000000000017c12 .LASF4829
C:\Users\SOLDER~1\AppData\Local\Temp\ccheWc1y.s:21998  .debug_str:000000000000278a .LASF4830
C:\Users\SOLDER~1\AppData\Local\Temp\ccheWc1y.s:26610  .debug_str:00000000000153ef .LASF4831
C:\Users\SOLDER~1\AppData\Local\Temp\ccheWc1y.s:31284  .debug_str:0000000000028189 .LASF4832
C:\Users\SOLDER~1\AppData\Local\Temp\ccheWc1y.s:26796  .debug_str:0000000000015faa .LASF4833
C:\Users\SOLDER~1\AppData\Local\Temp\ccheWc1y.s:22228  .debug_str:000000000000362b .LASF4834
C:\Users\SOLDER~1\AppData\Local\Temp\ccheWc1y.s:29702  .debug_str:0000000000021a7e .LASF4835
C:\Users\SOLDER~1\AppData\Local\Temp\ccheWc1y.s:26462  .debug_str:0000000000014a45 .LASF4836
C:\Users\SOLDER~1\AppData\Local\Temp\ccheWc1y.s:23510  .debug_str:00000000000088f0 .LASF4837
C:\Users\SOLDER~1\AppData\Local\Temp\ccheWc1y.s:24942  .debug_str:000000000000e770 .LASF4838
C:\Users\SOLDER~1\AppData\Local\Temp\ccheWc1y.s:29882  .debug_str:00000000000225dd .LASF4839
C:\Users\SOLDER~1\AppData\Local\Temp\ccheWc1y.s:29628  .debug_str:00000000000215c1 .LASF4840
C:\Users\SOLDER~1\AppData\Local\Temp\ccheWc1y.s:28030  .debug_str:000000000001aee1 .LASF4841
C:\Users\SOLDER~1\AppData\Local\Temp\ccheWc1y.s:27056  .debug_str:0000000000017005 .LASF4842
C:\Users\SOLDER~1\AppData\Local\Temp\ccheWc1y.s:22298  .debug_str:0000000000003aba .LASF4843
C:\Users\SOLDER~1\AppData\Local\Temp\ccheWc1y.s:27086  .debug_str:00000000000171b2 .LASF4844
C:\Users\SOLDER~1\AppData\Local\Temp\ccheWc1y.s:31638  .debug_str:0000000000029875 .LASF4845
C:\Users\SOLDER~1\AppData\Local\Temp\ccheWc1y.s:24812  .debug_str:000000000000dea8 .LASF4846
C:\Users\SOLDER~1\AppData\Local\Temp\ccheWc1y.s:31426  .debug_str:0000000000028af8 .LASF4847
C:\Users\SOLDER~1\AppData\Local\Temp\ccheWc1y.s:31056  .debug_str:00000000000272c5 .LASF4848
C:\Users\SOLDER~1\AppData\Local\Temp\ccheWc1y.s:26270  .debug_str:0000000000013caf .LASF4849
C:\Users\SOLDER~1\AppData\Local\Temp\ccheWc1y.s:29460  .debug_str:0000000000020b20 .LASF4850
GAS LISTING C:\Users\SOLDER~1\AppData\Local\Temp\ccheWc1y.s 			page 151


C:\Users\SOLDER~1\AppData\Local\Temp\ccheWc1y.s:28006  .debug_str:000000000001ad6a .LASF4852
C:\Users\SOLDER~1\AppData\Local\Temp\ccheWc1y.s:29934  .debug_str:00000000000228c9 .LASF4853
C:\Users\SOLDER~1\AppData\Local\Temp\ccheWc1y.s:22124  .debug_str:0000000000002f98 .LASF4854
C:\Users\SOLDER~1\AppData\Local\Temp\ccheWc1y.s:26058  .debug_str:0000000000012e7e .LASF4855
C:\Users\SOLDER~1\AppData\Local\Temp\ccheWc1y.s:24950  .debug_str:000000000000e7f0 .LASF4856
C:\Users\SOLDER~1\AppData\Local\Temp\ccheWc1y.s:28216  .debug_str:000000000001baba .LASF4857
C:\Users\SOLDER~1\AppData\Local\Temp\ccheWc1y.s:23436  .debug_str:0000000000008415 .LASF4858
C:\Users\SOLDER~1\AppData\Local\Temp\ccheWc1y.s:24046  .debug_str:000000000000ac96 .LASF4859
C:\Users\SOLDER~1\AppData\Local\Temp\ccheWc1y.s:32004  .debug_str:000000000002b01e .LASF4860
C:\Users\SOLDER~1\AppData\Local\Temp\ccheWc1y.s:22312  .debug_str:0000000000003bb4 .LASF4861
C:\Users\SOLDER~1\AppData\Local\Temp\ccheWc1y.s:31022  .debug_str:000000000002708d .LASF4862
C:\Users\SOLDER~1\AppData\Local\Temp\ccheWc1y.s:29720  .debug_str:0000000000021bb7 .LASF4863
C:\Users\SOLDER~1\AppData\Local\Temp\ccheWc1y.s:22452  .debug_str:0000000000004461 .LASF4864
C:\Users\SOLDER~1\AppData\Local\Temp\ccheWc1y.s:30036  .debug_str:0000000000022fbf .LASF4865
C:\Users\SOLDER~1\AppData\Local\Temp\ccheWc1y.s:22280  .debug_str:000000000000398e .LASF4866
C:\Users\SOLDER~1\AppData\Local\Temp\ccheWc1y.s:22474  .debug_str:00000000000045c6 .LASF4867
C:\Users\SOLDER~1\AppData\Local\Temp\ccheWc1y.s:24938  .debug_str:000000000000e723 .LASF4868
C:\Users\SOLDER~1\AppData\Local\Temp\ccheWc1y.s:31288  .debug_str:00000000000281c9 .LASF4869
C:\Users\SOLDER~1\AppData\Local\Temp\ccheWc1y.s:22500  .debug_str:000000000000477c .LASF4870
C:\Users\SOLDER~1\AppData\Local\Temp\ccheWc1y.s:21544  .debug_str:00000000000009e6 .LASF4871
C:\Users\SOLDER~1\AppData\Local\Temp\ccheWc1y.s:29120  .debug_str:000000000001f527 .LASF4872
C:\Users\SOLDER~1\AppData\Local\Temp\ccheWc1y.s:24276  .debug_str:000000000000bb35 .LASF4873
C:\Users\SOLDER~1\AppData\Local\Temp\ccheWc1y.s:30700  .debug_str:0000000000025abd .LASF4874
C:\Users\SOLDER~1\AppData\Local\Temp\ccheWc1y.s:32712  .debug_str:000000000002de22 .LASF4875
C:\Users\SOLDER~1\AppData\Local\Temp\ccheWc1y.s:21988  .debug_str:00000000000026c2 .LASF4876
C:\Users\SOLDER~1\AppData\Local\Temp\ccheWc1y.s:22496  .debug_str:000000000000472c .LASF4877
C:\Users\SOLDER~1\AppData\Local\Temp\ccheWc1y.s:29588  .debug_str:00000000000212fc .LASF4878
C:\Users\SOLDER~1\AppData\Local\Temp\ccheWc1y.s:31758  .debug_str:000000000002a01e .LASF4879
C:\Users\SOLDER~1\AppData\Local\Temp\ccheWc1y.s:31272  .debug_str:00000000000280b6 .LASF4880
C:\Users\SOLDER~1\AppData\Local\Temp\ccheWc1y.s:31096  .debug_str:0000000000027564 .LASF4881
C:\Users\SOLDER~1\AppData\Local\Temp\ccheWc1y.s:31782  .debug_str:000000000002a1b9 .LASF4882
C:\Users\SOLDER~1\AppData\Local\Temp\ccheWc1y.s:26456  .debug_str:00000000000149df .LASF4883
C:\Users\SOLDER~1\AppData\Local\Temp\ccheWc1y.s:31838  .debug_str:000000000002a59d .LASF4884
C:\Users\SOLDER~1\AppData\Local\Temp\ccheWc1y.s:29378  .debug_str:00000000000205d2 .LASF4885
C:\Users\SOLDER~1\AppData\Local\Temp\ccheWc1y.s:30470  .debug_str:0000000000024bfc .LASF4886
C:\Users\SOLDER~1\AppData\Local\Temp\ccheWc1y.s:26088  .debug_str:00000000000130a4 .LASF4887
C:\Users\SOLDER~1\AppData\Local\Temp\ccheWc1y.s:21860  .debug_str:0000000000001e85 .LASF4888
C:\Users\SOLDER~1\AppData\Local\Temp\ccheWc1y.s:22696  .debug_str:000000000000538a .LASF4889
C:\Users\SOLDER~1\AppData\Local\Temp\ccheWc1y.s:29746  .debug_str:0000000000021d5a .LASF4890
C:\Users\SOLDER~1\AppData\Local\Temp\ccheWc1y.s:30984  .debug_str:0000000000026df7 .LASF4891
C:\Users\SOLDER~1\AppData\Local\Temp\ccheWc1y.s:25644  .debug_str:0000000000011481 .LASF4892
C:\Users\SOLDER~1\AppData\Local\Temp\ccheWc1y.s:30402  .debug_str:000000000002478f .LASF4893
C:\Users\SOLDER~1\AppData\Local\Temp\ccheWc1y.s:28168  .debug_str:000000000001b7b1 .LASF4894
C:\Users\SOLDER~1\AppData\Local\Temp\ccheWc1y.s:25520  .debug_str:0000000000010c8c .LASF4895
C:\Users\SOLDER~1\AppData\Local\Temp\ccheWc1y.s:32512  .debug_str:000000000002d0fc .LASF4896
C:\Users\SOLDER~1\AppData\Local\Temp\ccheWc1y.s:30808  .debug_str:00000000000261fa .LASF4897
C:\Users\SOLDER~1\AppData\Local\Temp\ccheWc1y.s:24828  .debug_str:000000000000df75 .LASF4898
C:\Users\SOLDER~1\AppData\Local\Temp\ccheWc1y.s:32780  .debug_str:000000000002e26e .LASF4899
C:\Users\SOLDER~1\AppData\Local\Temp\ccheWc1y.s:23188  .debug_str:0000000000007415 .LASF4900
C:\Users\SOLDER~1\AppData\Local\Temp\ccheWc1y.s:27606  .debug_str:0000000000019412 .LASF4901
C:\Users\SOLDER~1\AppData\Local\Temp\ccheWc1y.s:24550  .debug_str:000000000000cdab .LASF4902
C:\Users\SOLDER~1\AppData\Local\Temp\ccheWc1y.s:30794  .debug_str:000000000002612f .LASF4903
C:\Users\SOLDER~1\AppData\Local\Temp\ccheWc1y.s:31182  .debug_str:0000000000027b0f .LASF4904
C:\Users\SOLDER~1\AppData\Local\Temp\ccheWc1y.s:28774  .debug_str:000000000001de87 .LASF4905
C:\Users\SOLDER~1\AppData\Local\Temp\ccheWc1y.s:22098  .debug_str:0000000000002de7 .LASF4906
C:\Users\SOLDER~1\AppData\Local\Temp\ccheWc1y.s:29412  .debug_str:00000000000207ea .LASF4907
C:\Users\SOLDER~1\AppData\Local\Temp\ccheWc1y.s:30578  .debug_str:0000000000025324 .LASF4908
GAS LISTING C:\Users\SOLDER~1\AppData\Local\Temp\ccheWc1y.s 			page 152


C:\Users\SOLDER~1\AppData\Local\Temp\ccheWc1y.s:29938  .debug_str:000000000002290f .LASF4909
C:\Users\SOLDER~1\AppData\Local\Temp\ccheWc1y.s:23296  .debug_str:0000000000007ac2 .LASF4910
C:\Users\SOLDER~1\AppData\Local\Temp\ccheWc1y.s:24558  .debug_str:000000000000ce38 .LASF4911
C:\Users\SOLDER~1\AppData\Local\Temp\ccheWc1y.s:26832  .debug_str:00000000000161e8 .LASF4912
C:\Users\SOLDER~1\AppData\Local\Temp\ccheWc1y.s:30520  .debug_str:0000000000024f4a .LASF4913
C:\Users\SOLDER~1\AppData\Local\Temp\ccheWc1y.s:31394  .debug_str:00000000000288d3 .LASF4914
C:\Users\SOLDER~1\AppData\Local\Temp\ccheWc1y.s:25728  .debug_str:00000000000119e8 .LASF4915
C:\Users\SOLDER~1\AppData\Local\Temp\ccheWc1y.s:21584  .debug_str:0000000000000cb4 .LASF4916
C:\Users\SOLDER~1\AppData\Local\Temp\ccheWc1y.s:28040  .debug_str:000000000001af6a .LASF4917
C:\Users\SOLDER~1\AppData\Local\Temp\ccheWc1y.s:30330  .debug_str:00000000000242d1 .LASF4918
C:\Users\SOLDER~1\AppData\Local\Temp\ccheWc1y.s:30614  .debug_str:000000000002556e .LASF4919
C:\Users\SOLDER~1\AppData\Local\Temp\ccheWc1y.s:26606  .debug_str:00000000000153a7 .LASF4920
C:\Users\SOLDER~1\AppData\Local\Temp\ccheWc1y.s:30756  .debug_str:0000000000025e85 .LASF4921
C:\Users\SOLDER~1\AppData\Local\Temp\ccheWc1y.s:32468  .debug_str:000000000002ce2e .LASF4922
C:\Users\SOLDER~1\AppData\Local\Temp\ccheWc1y.s:25020  .debug_str:000000000000ec67 .LASF4923
C:\Users\SOLDER~1\AppData\Local\Temp\ccheWc1y.s:22414  .debug_str:0000000000004216 .LASF4924
C:\Users\SOLDER~1\AppData\Local\Temp\ccheWc1y.s:28184  .debug_str:000000000001b8b6 .LASF4925
C:\Users\SOLDER~1\AppData\Local\Temp\ccheWc1y.s:29376  .debug_str:00000000000205af .LASF4926
C:\Users\SOLDER~1\AppData\Local\Temp\ccheWc1y.s:25884  .debug_str:00000000000123ae .LASF4927
C:\Users\SOLDER~1\AppData\Local\Temp\ccheWc1y.s:32940  .debug_str:000000000002ec60 .LASF4928
C:\Users\SOLDER~1\AppData\Local\Temp\ccheWc1y.s:24988  .debug_str:000000000000ea40 .LASF4929
C:\Users\SOLDER~1\AppData\Local\Temp\ccheWc1y.s:31784  .debug_str:000000000002a1e8 .LASF4930
C:\Users\SOLDER~1\AppData\Local\Temp\ccheWc1y.s:32606  .debug_str:000000000002d76b .LASF4931
C:\Users\SOLDER~1\AppData\Local\Temp\ccheWc1y.s:28616  .debug_str:000000000001d49e .LASF4932
C:\Users\SOLDER~1\AppData\Local\Temp\ccheWc1y.s:32080  .debug_str:000000000002b4e4 .LASF4933
C:\Users\SOLDER~1\AppData\Local\Temp\ccheWc1y.s:28698  .debug_str:000000000001da26 .LASF4934
C:\Users\SOLDER~1\AppData\Local\Temp\ccheWc1y.s:29350  .debug_str:0000000000020419 .LASF4935
C:\Users\SOLDER~1\AppData\Local\Temp\ccheWc1y.s:27618  .debug_str:00000000000194db .LASF4936
C:\Users\SOLDER~1\AppData\Local\Temp\ccheWc1y.s:23304  .debug_str:0000000000007b4f .LASF4937
C:\Users\SOLDER~1\AppData\Local\Temp\ccheWc1y.s:25712  .debug_str:00000000000118ce .LASF4938
C:\Users\SOLDER~1\AppData\Local\Temp\ccheWc1y.s:25924  .debug_str:000000000001263c .LASF4939
C:\Users\SOLDER~1\AppData\Local\Temp\ccheWc1y.s:26964  .debug_str:0000000000016a5b .LASF4940
C:\Users\SOLDER~1\AppData\Local\Temp\ccheWc1y.s:28968  .debug_str:000000000001eb2a .LASF4941
C:\Users\SOLDER~1\AppData\Local\Temp\ccheWc1y.s:30634  .debug_str:00000000000256ba .LASF4942
C:\Users\SOLDER~1\AppData\Local\Temp\ccheWc1y.s:30058  .debug_str:0000000000023155 .LASF4943
C:\Users\SOLDER~1\AppData\Local\Temp\ccheWc1y.s:29488  .debug_str:0000000000020ce8 .LASF4944
C:\Users\SOLDER~1\AppData\Local\Temp\ccheWc1y.s:29780  .debug_str:0000000000021f5f .LASF4945
C:\Users\SOLDER~1\AppData\Local\Temp\ccheWc1y.s:25012  .debug_str:000000000000ebdf .LASF4946
C:\Users\SOLDER~1\AppData\Local\Temp\ccheWc1y.s:26082  .debug_str:0000000000013021 .LASF4947
C:\Users\SOLDER~1\AppData\Local\Temp\ccheWc1y.s:21552  .debug_str:0000000000000a78 .LASF4948
C:\Users\SOLDER~1\AppData\Local\Temp\ccheWc1y.s:24684  .debug_str:000000000000d679 .LASF4949
C:\Users\SOLDER~1\AppData\Local\Temp\ccheWc1y.s:31494  .debug_str:0000000000028f5e .LASF4950
C:\Users\SOLDER~1\AppData\Local\Temp\ccheWc1y.s:21948  .debug_str:0000000000002466 .LASF4951
C:\Users\SOLDER~1\AppData\Local\Temp\ccheWc1y.s:31362  .debug_str:00000000000286ce .LASF4952
C:\Users\SOLDER~1\AppData\Local\Temp\ccheWc1y.s:26678  .debug_str:0000000000015847 .LASF4953
C:\Users\SOLDER~1\AppData\Local\Temp\ccheWc1y.s:24280  .debug_str:000000000000bb6c .LASF4954
C:\Users\SOLDER~1\AppData\Local\Temp\ccheWc1y.s:25414  .debug_str:00000000000105c7 .LASF4955
C:\Users\SOLDER~1\AppData\Local\Temp\ccheWc1y.s:32664  .debug_str:000000000002db32 .LASF4956
C:\Users\SOLDER~1\AppData\Local\Temp\ccheWc1y.s:26634  .debug_str:0000000000015567 .LASF4957
C:\Users\SOLDER~1\AppData\Local\Temp\ccheWc1y.s:22958  .debug_str:00000000000064ba .LASF4958
C:\Users\SOLDER~1\AppData\Local\Temp\ccheWc1y.s:28758  .debug_str:000000000001ddbc .LASF4959
C:\Users\SOLDER~1\AppData\Local\Temp\ccheWc1y.s:23840  .debug_str:0000000000009e9f .LASF4960
C:\Users\SOLDER~1\AppData\Local\Temp\ccheWc1y.s:27970  .debug_str:000000000001aada .LASF4961
C:\Users\SOLDER~1\AppData\Local\Temp\ccheWc1y.s:25452  .debug_str:000000000001085c .LASF4962
C:\Users\SOLDER~1\AppData\Local\Temp\ccheWc1y.s:23830  .debug_str:0000000000009def .LASF4963
C:\Users\SOLDER~1\AppData\Local\Temp\ccheWc1y.s:26938  .debug_str:00000000000168c5 .LASF4964
C:\Users\SOLDER~1\AppData\Local\Temp\ccheWc1y.s:24178  .debug_str:000000000000b515 .LASF4965
GAS LISTING C:\Users\SOLDER~1\AppData\Local\Temp\ccheWc1y.s 			page 153


C:\Users\SOLDER~1\AppData\Local\Temp\ccheWc1y.s:21754  .debug_str:00000000000017aa .LASF4966
C:\Users\SOLDER~1\AppData\Local\Temp\ccheWc1y.s:23976  .debug_str:000000000000a7be .LASF4967
C:\Users\SOLDER~1\AppData\Local\Temp\ccheWc1y.s:24394  .debug_str:000000000000c2bf .LASF4968
C:\Users\SOLDER~1\AppData\Local\Temp\ccheWc1y.s:30616  .debug_str:0000000000025591 .LASF4969
C:\Users\SOLDER~1\AppData\Local\Temp\ccheWc1y.s:27562  .debug_str:00000000000190ea .LASF4970
C:\Users\SOLDER~1\AppData\Local\Temp\ccheWc1y.s:28018  .debug_str:000000000001ae2d .LASF4971
C:\Users\SOLDER~1\AppData\Local\Temp\ccheWc1y.s:22490  .debug_str:00000000000046d1 .LASF4972
C:\Users\SOLDER~1\AppData\Local\Temp\ccheWc1y.s:29206  .debug_str:000000000001faff .LASF4973
C:\Users\SOLDER~1\AppData\Local\Temp\ccheWc1y.s:25838  .debug_str:00000000000120e3 .LASF4974
C:\Users\SOLDER~1\AppData\Local\Temp\ccheWc1y.s:21706  .debug_str:000000000000148a .LASF4975
C:\Users\SOLDER~1\AppData\Local\Temp\ccheWc1y.s:22282  .debug_str:00000000000039b6 .LASF4976
C:\Users\SOLDER~1\AppData\Local\Temp\ccheWc1y.s:25654  .debug_str:0000000000011524 .LASF4977
C:\Users\SOLDER~1\AppData\Local\Temp\ccheWc1y.s:22048  .debug_str:0000000000002ae6 .LASF4978
C:\Users\SOLDER~1\AppData\Local\Temp\ccheWc1y.s:29178  .debug_str:000000000001f91a .LASF4979
C:\Users\SOLDER~1\AppData\Local\Temp\ccheWc1y.s:28492  .debug_str:000000000001cc6a .LASF4980
C:\Users\SOLDER~1\AppData\Local\Temp\ccheWc1y.s:33066  .debug_str:000000000002f489 .LASF4981
C:\Users\SOLDER~1\AppData\Local\Temp\ccheWc1y.s:33014  .debug_str:000000000002f177 .LASF4982
C:\Users\SOLDER~1\AppData\Local\Temp\ccheWc1y.s:31930  .debug_str:000000000002abb7 .LASF4983
C:\Users\SOLDER~1\AppData\Local\Temp\ccheWc1y.s:29224  .debug_str:000000000001fc4a .LASF4984
C:\Users\SOLDER~1\AppData\Local\Temp\ccheWc1y.s:23712  .debug_str:0000000000009686 .LASF4985
C:\Users\SOLDER~1\AppData\Local\Temp\ccheWc1y.s:29544  .debug_str:000000000002106f .LASF4986
C:\Users\SOLDER~1\AppData\Local\Temp\ccheWc1y.s:30050  .debug_str:00000000000230bd .LASF4987
C:\Users\SOLDER~1\AppData\Local\Temp\ccheWc1y.s:31684  .debug_str:0000000000029ba2 .LASF4988
C:\Users\SOLDER~1\AppData\Local\Temp\ccheWc1y.s:26180  .debug_str:00000000000136a6 .LASF4989
C:\Users\SOLDER~1\AppData\Local\Temp\ccheWc1y.s:27298  .debug_str:0000000000017fca .LASF4990
C:\Users\SOLDER~1\AppData\Local\Temp\ccheWc1y.s:22144  .debug_str:00000000000030bd .LASF4991
C:\Users\SOLDER~1\AppData\Local\Temp\ccheWc1y.s:30076  .debug_str:0000000000023269 .LASF4992
C:\Users\SOLDER~1\AppData\Local\Temp\ccheWc1y.s:32028  .debug_str:000000000002b1b3 .LASF4993
C:\Users\SOLDER~1\AppData\Local\Temp\ccheWc1y.s:30372  .debug_str:0000000000024594 .LASF4994
C:\Users\SOLDER~1\AppData\Local\Temp\ccheWc1y.s:25888  .debug_str:00000000000123e8 .LASF4995
C:\Users\SOLDER~1\AppData\Local\Temp\ccheWc1y.s:30440  .debug_str:00000000000249fa .LASF4996
C:\Users\SOLDER~1\AppData\Local\Temp\ccheWc1y.s:32198  .debug_str:000000000002bca0 .LASF4997
C:\Users\SOLDER~1\AppData\Local\Temp\ccheWc1y.s:26348  .debug_str:0000000000014264 .LASF4998
C:\Users\SOLDER~1\AppData\Local\Temp\ccheWc1y.s:23914  .debug_str:000000000000a3a6 .LASF4999
C:\Users\SOLDER~1\AppData\Local\Temp\ccheWc1y.s:31188  .debug_str:0000000000027b69 .LASF5000
C:\Users\SOLDER~1\AppData\Local\Temp\ccheWc1y.s:30760  .debug_str:0000000000025edb .LASF5001
C:\Users\SOLDER~1\AppData\Local\Temp\ccheWc1y.s:30008  .debug_str:0000000000022dc9 .LASF5002
C:\Users\SOLDER~1\AppData\Local\Temp\ccheWc1y.s:28418  .debug_str:000000000001c793 .LASF5003
C:\Users\SOLDER~1\AppData\Local\Temp\ccheWc1y.s:25360  .debug_str:0000000000010280 .LASF5004
C:\Users\SOLDER~1\AppData\Local\Temp\ccheWc1y.s:30198  .debug_str:0000000000023a4e .LASF5005
C:\Users\SOLDER~1\AppData\Local\Temp\ccheWc1y.s:31290  .debug_str:00000000000281f1 .LASF5006
C:\Users\SOLDER~1\AppData\Local\Temp\ccheWc1y.s:24130  .debug_str:000000000000b209 .LASF5007
C:\Users\SOLDER~1\AppData\Local\Temp\ccheWc1y.s:27244  .debug_str:0000000000017c59 .LASF5008
C:\Users\SOLDER~1\AppData\Local\Temp\ccheWc1y.s:26844  .debug_str:000000000001629b .LASF5009
C:\Users\SOLDER~1\AppData\Local\Temp\ccheWc1y.s:25900  .debug_str:00000000000124bc .LASF5010
C:\Users\SOLDER~1\AppData\Local\Temp\ccheWc1y.s:31368  .debug_str:0000000000028737 .LASF5011
C:\Users\SOLDER~1\AppData\Local\Temp\ccheWc1y.s:26414  .debug_str:00000000000146eb .LASF5012
C:\Users\SOLDER~1\AppData\Local\Temp\ccheWc1y.s:31404  .debug_str:000000000002897d .LASF5013
C:\Users\SOLDER~1\AppData\Local\Temp\ccheWc1y.s:31746  .debug_str:0000000000029f68 .LASF5014
C:\Users\SOLDER~1\AppData\Local\Temp\ccheWc1y.s:26376  .debug_str:000000000001444d .LASF5015
C:\Users\SOLDER~1\AppData\Local\Temp\ccheWc1y.s:30376  .debug_str:00000000000245e7 .LASF5016
C:\Users\SOLDER~1\AppData\Local\Temp\ccheWc1y.s:26458  .debug_str:0000000000014a12 .LASF5017
C:\Users\SOLDER~1\AppData\Local\Temp\ccheWc1y.s:27132  .debug_str:00000000000174a5 .LASF5018
C:\Users\SOLDER~1\AppData\Local\Temp\ccheWc1y.s:26718  .debug_str:0000000000015ae9 .LASF5019
C:\Users\SOLDER~1\AppData\Local\Temp\ccheWc1y.s:27806  .debug_str:000000000001a09b .LASF5020
C:\Users\SOLDER~1\AppData\Local\Temp\ccheWc1y.s:24530  .debug_str:000000000000cc26 .LASF5021
C:\Users\SOLDER~1\AppData\Local\Temp\ccheWc1y.s:31122  .debug_str:000000000002770f .LASF5022
GAS LISTING C:\Users\SOLDER~1\AppData\Local\Temp\ccheWc1y.s 			page 154


C:\Users\SOLDER~1\AppData\Local\Temp\ccheWc1y.s:32158  .debug_str:000000000002ba14 .LASF5023
C:\Users\SOLDER~1\AppData\Local\Temp\ccheWc1y.s:29432  .debug_str:0000000000020933 .LASF5024
C:\Users\SOLDER~1\AppData\Local\Temp\ccheWc1y.s:26172  .debug_str:0000000000013609 .LASF5025
C:\Users\SOLDER~1\AppData\Local\Temp\ccheWc1y.s:25880  .debug_str:000000000001235f .LASF5026
C:\Users\SOLDER~1\AppData\Local\Temp\ccheWc1y.s:29424  .debug_str:00000000000208ae .LASF5027
C:\Users\SOLDER~1\AppData\Local\Temp\ccheWc1y.s:26518  .debug_str:0000000000014dd0 .LASF5028
C:\Users\SOLDER~1\AppData\Local\Temp\ccheWc1y.s:28092  .debug_str:000000000001b311 .LASF5029
C:\Users\SOLDER~1\AppData\Local\Temp\ccheWc1y.s:25394  .debug_str:00000000000104bb .LASF5030
C:\Users\SOLDER~1\AppData\Local\Temp\ccheWc1y.s:31016  .debug_str:0000000000027018 .LASF5031
C:\Users\SOLDER~1\AppData\Local\Temp\ccheWc1y.s:29216  .debug_str:000000000001fbd5 .LASF5032
C:\Users\SOLDER~1\AppData\Local\Temp\ccheWc1y.s:21940  .debug_str:00000000000023cc .LASF5033
C:\Users\SOLDER~1\AppData\Local\Temp\ccheWc1y.s:21694  .debug_str:00000000000013bb .LASF5034
C:\Users\SOLDER~1\AppData\Local\Temp\ccheWc1y.s:29906  .debug_str:0000000000022758 .LASF5035
C:\Users\SOLDER~1\AppData\Local\Temp\ccheWc1y.s:25412  .debug_str:00000000000105a9 .LASF5036
C:\Users\SOLDER~1\AppData\Local\Temp\ccheWc1y.s:25942  .debug_str:0000000000012772 .LASF5037
C:\Users\SOLDER~1\AppData\Local\Temp\ccheWc1y.s:31520  .debug_str:000000000002911a .LASF5038
C:\Users\SOLDER~1\AppData\Local\Temp\ccheWc1y.s:28256  .debug_str:000000000001bd2d .LASF5039
C:\Users\SOLDER~1\AppData\Local\Temp\ccheWc1y.s:26196  .debug_str:00000000000137db .LASF5040
C:\Users\SOLDER~1\AppData\Local\Temp\ccheWc1y.s:29754  .debug_str:0000000000021dc7 .LASF5041
C:\Users\SOLDER~1\AppData\Local\Temp\ccheWc1y.s:24228  .debug_str:000000000000b885 .LASF5042
C:\Users\SOLDER~1\AppData\Local\Temp\ccheWc1y.s:29254  .debug_str:000000000001fe45 .LASF5043
C:\Users\SOLDER~1\AppData\Local\Temp\ccheWc1y.s:27512  .debug_str:0000000000018dd0 .LASF5044
C:\Users\SOLDER~1\AppData\Local\Temp\ccheWc1y.s:26242  .debug_str:0000000000013aed .LASF5045
C:\Users\SOLDER~1\AppData\Local\Temp\ccheWc1y.s:23718  .debug_str:00000000000096e8 .LASF5046
C:\Users\SOLDER~1\AppData\Local\Temp\ccheWc1y.s:30318  .debug_str:000000000002420b .LASF5047
C:\Users\SOLDER~1\AppData\Local\Temp\ccheWc1y.s:31468  .debug_str:0000000000028dba .LASF5048
C:\Users\SOLDER~1\AppData\Local\Temp\ccheWc1y.s:29670  .debug_str:00000000000218ac .LASF5049
C:\Users\SOLDER~1\AppData\Local\Temp\ccheWc1y.s:29668  .debug_str:000000000002188d .LASF5050
C:\Users\SOLDER~1\AppData\Local\Temp\ccheWc1y.s:21598  .debug_str:0000000000000dc5 .LASF5051
C:\Users\SOLDER~1\AppData\Local\Temp\ccheWc1y.s:33072  .debug_str:000000000002f4e1 .LASF5052
C:\Users\SOLDER~1\AppData\Local\Temp\ccheWc1y.s:28600  .debug_str:000000000001d39e .LASF5053
C:\Users\SOLDER~1\AppData\Local\Temp\ccheWc1y.s:23858  .debug_str:0000000000009fe8 .LASF5054
C:\Users\SOLDER~1\AppData\Local\Temp\ccheWc1y.s:26208  .debug_str:0000000000013889 .LASF5055
C:\Users\SOLDER~1\AppData\Local\Temp\ccheWc1y.s:32284  .debug_str:000000000002c20e .LASF5056
C:\Users\SOLDER~1\AppData\Local\Temp\ccheWc1y.s:23906  .debug_str:000000000000a310 .LASF5057
C:\Users\SOLDER~1\AppData\Local\Temp\ccheWc1y.s:29816  .debug_str:00000000000221b4 .LASF5058
C:\Users\SOLDER~1\AppData\Local\Temp\ccheWc1y.s:31814  .debug_str:000000000002a410 .LASF5059
C:\Users\SOLDER~1\AppData\Local\Temp\ccheWc1y.s:26350  .debug_str:0000000000014292 .LASF5060
C:\Users\SOLDER~1\AppData\Local\Temp\ccheWc1y.s:21784  .debug_str:0000000000001957 .LASF5061
C:\Users\SOLDER~1\AppData\Local\Temp\ccheWc1y.s:27016  .debug_str:0000000000016d76 .LASF5062
C:\Users\SOLDER~1\AppData\Local\Temp\ccheWc1y.s:23832  .debug_str:0000000000009e0e .LASF5063
C:\Users\SOLDER~1\AppData\Local\Temp\ccheWc1y.s:24172  .debug_str:000000000000b49a .LASF5064
C:\Users\SOLDER~1\AppData\Local\Temp\ccheWc1y.s:24534  .debug_str:000000000000cc6b .LASF5065
C:\Users\SOLDER~1\AppData\Local\Temp\ccheWc1y.s:21536  .debug_str:000000000000095b .LASF5066
C:\Users\SOLDER~1\AppData\Local\Temp\ccheWc1y.s:30522  .debug_str:0000000000024f6d .LASF5067
C:\Users\SOLDER~1\AppData\Local\Temp\ccheWc1y.s:26580  .debug_str:0000000000015202 .LASF5068
C:\Users\SOLDER~1\AppData\Local\Temp\ccheWc1y.s:24048  .debug_str:000000000000acc7 .LASF5069
C:\Users\SOLDER~1\AppData\Local\Temp\ccheWc1y.s:23350  .debug_str:0000000000007e61 .LASF5070
C:\Users\SOLDER~1\AppData\Local\Temp\ccheWc1y.s:25736  .debug_str:0000000000011a84 .LASF5071
C:\Users\SOLDER~1\AppData\Local\Temp\ccheWc1y.s:28334  .debug_str:000000000001c1eb .LASF5072
C:\Users\SOLDER~1\AppData\Local\Temp\ccheWc1y.s:24330  .debug_str:000000000000bea1 .LASF5073
C:\Users\SOLDER~1\AppData\Local\Temp\ccheWc1y.s:26278  .debug_str:0000000000013d45 .LASF5074
C:\Users\SOLDER~1\AppData\Local\Temp\ccheWc1y.s:23594  .debug_str:0000000000008e4e .LASF5075
C:\Users\SOLDER~1\AppData\Local\Temp\ccheWc1y.s:31354  .debug_str:0000000000028640 .LASF5076
C:\Users\SOLDER~1\AppData\Local\Temp\ccheWc1y.s:25836  .debug_str:00000000000120b4 .LASF5077
C:\Users\SOLDER~1\AppData\Local\Temp\ccheWc1y.s:23202  .debug_str:00000000000074f8 .LASF5078
C:\Users\SOLDER~1\AppData\Local\Temp\ccheWc1y.s:21830  .debug_str:0000000000001c7f .LASF5079
GAS LISTING C:\Users\SOLDER~1\AppData\Local\Temp\ccheWc1y.s 			page 155


C:\Users\SOLDER~1\AppData\Local\Temp\ccheWc1y.s:30080  .debug_str:00000000000232a4 .LASF5080
C:\Users\SOLDER~1\AppData\Local\Temp\ccheWc1y.s:25792  .debug_str:0000000000011de0 .LASF5081
C:\Users\SOLDER~1\AppData\Local\Temp\ccheWc1y.s:23680  .debug_str:000000000000943e .LASF5082
C:\Users\SOLDER~1\AppData\Local\Temp\ccheWc1y.s:23406  .debug_str:0000000000008213 .LASF5083
C:\Users\SOLDER~1\AppData\Local\Temp\ccheWc1y.s:28666  .debug_str:000000000001d7f9 .LASF5084
C:\Users\SOLDER~1\AppData\Local\Temp\ccheWc1y.s:30928  .debug_str:0000000000026a48 .LASF5085
C:\Users\SOLDER~1\AppData\Local\Temp\ccheWc1y.s:32992  .debug_str:000000000002efeb .LASF5086
C:\Users\SOLDER~1\AppData\Local\Temp\ccheWc1y.s:24222  .debug_str:000000000000b821 .LASF5087
C:\Users\SOLDER~1\AppData\Local\Temp\ccheWc1y.s:23860  .debug_str:000000000000a00f .LASF5088
C:\Users\SOLDER~1\AppData\Local\Temp\ccheWc1y.s:23570  .debug_str:0000000000008cbc .LASF5089
C:\Users\SOLDER~1\AppData\Local\Temp\ccheWc1y.s:30300  .debug_str:00000000000240cc .LASF5090
C:\Users\SOLDER~1\AppData\Local\Temp\ccheWc1y.s:23856  .debug_str:0000000000009fbb .LASF5091
C:\Users\SOLDER~1\AppData\Local\Temp\ccheWc1y.s:29086  .debug_str:000000000001f2fa .LASF5092
C:\Users\SOLDER~1\AppData\Local\Temp\ccheWc1y.s:24334  .debug_str:000000000000bef0 .LASF5093
C:\Users\SOLDER~1\AppData\Local\Temp\ccheWc1y.s:23660  .debug_str:0000000000009304 .LASF5094
C:\Users\SOLDER~1\AppData\Local\Temp\ccheWc1y.s:31334  .debug_str:00000000000284dc .LASF5095
C:\Users\SOLDER~1\AppData\Local\Temp\ccheWc1y.s:26476  .debug_str:0000000000014b27 .LASF5096
C:\Users\SOLDER~1\AppData\Local\Temp\ccheWc1y.s:31484  .debug_str:0000000000028ed6 .LASF5097
C:\Users\SOLDER~1\AppData\Local\Temp\ccheWc1y.s:28172  .debug_str:000000000001b7f7 .LASF5098
C:\Users\SOLDER~1\AppData\Local\Temp\ccheWc1y.s:23408  .debug_str:0000000000008241 .LASF5099
C:\Users\SOLDER~1\AppData\Local\Temp\ccheWc1y.s:24016  .debug_str:000000000000aa8b .LASF5100
C:\Users\SOLDER~1\AppData\Local\Temp\ccheWc1y.s:21592  .debug_str:0000000000000d46 .LASF5101
C:\Users\SOLDER~1\AppData\Local\Temp\ccheWc1y.s:28274  .debug_str:000000000001be0e .LASF5102
C:\Users\SOLDER~1\AppData\Local\Temp\ccheWc1y.s:30382  .debug_str:0000000000024637 .LASF5103
C:\Users\SOLDER~1\AppData\Local\Temp\ccheWc1y.s:21780  .debug_str:000000000000190c .LASF5104
C:\Users\SOLDER~1\AppData\Local\Temp\ccheWc1y.s:29280  .debug_str:000000000001ffdd .LASF5105
C:\Users\SOLDER~1\AppData\Local\Temp\ccheWc1y.s:31462  .debug_str:0000000000028d4c .LASF5106
C:\Users\SOLDER~1\AppData\Local\Temp\ccheWc1y.s:22232  .debug_str:0000000000003668 .LASF5107
C:\Users\SOLDER~1\AppData\Local\Temp\ccheWc1y.s:30768  .debug_str:0000000000025f7b .LASF5108
C:\Users\SOLDER~1\AppData\Local\Temp\ccheWc1y.s:28534  .debug_str:000000000001cf04 .LASF5109
C:\Users\SOLDER~1\AppData\Local\Temp\ccheWc1y.s:25940  .debug_str:0000000000012752 .LASF5110
C:\Users\SOLDER~1\AppData\Local\Temp\ccheWc1y.s:31556  .debug_str:000000000002934c .LASF5111
C:\Users\SOLDER~1\AppData\Local\Temp\ccheWc1y.s:25458  .debug_str:00000000000108d8 .LASF5112
C:\Users\SOLDER~1\AppData\Local\Temp\ccheWc1y.s:23070  .debug_str:0000000000006c2f .LASF5113
C:\Users\SOLDER~1\AppData\Local\Temp\ccheWc1y.s:28086  .debug_str:000000000001b2b2 .LASF5114
C:\Users\SOLDER~1\AppData\Local\Temp\ccheWc1y.s:24294  .debug_str:000000000000bc4e .LASF5115
C:\Users\SOLDER~1\AppData\Local\Temp\ccheWc1y.s:28278  .debug_str:000000000001be5b .LASF5116
C:\Users\SOLDER~1\AppData\Local\Temp\ccheWc1y.s:25214  .debug_str:000000000000f875 .LASF5117
C:\Users\SOLDER~1\AppData\Local\Temp\ccheWc1y.s:25432  .debug_str:00000000000106ea .LASF5118
C:\Users\SOLDER~1\AppData\Local\Temp\ccheWc1y.s:25174  .debug_str:000000000000f5e7 .LASF5119
C:\Users\SOLDER~1\AppData\Local\Temp\ccheWc1y.s:33062  .debug_str:000000000002f444 .LASF5120
C:\Users\SOLDER~1\AppData\Local\Temp\ccheWc1y.s:24638  .debug_str:000000000000d375 .LASF5121
C:\Users\SOLDER~1\AppData\Local\Temp\ccheWc1y.s:25324  .debug_str:0000000000010008 .LASF5122
C:\Users\SOLDER~1\AppData\Local\Temp\ccheWc1y.s:22406  .debug_str:0000000000004178 .LASF5123
C:\Users\SOLDER~1\AppData\Local\Temp\ccheWc1y.s:31148  .debug_str:00000000000278d4 .LASF5124
C:\Users\SOLDER~1\AppData\Local\Temp\ccheWc1y.s:32216  .debug_str:000000000002bdcf .LASF5125
C:\Users\SOLDER~1\AppData\Local\Temp\ccheWc1y.s:22824  .debug_str:0000000000005bc9 .LASF5126
C:\Users\SOLDER~1\AppData\Local\Temp\ccheWc1y.s:27360  .debug_str:00000000000183e6 .LASF5127
C:\Users\SOLDER~1\AppData\Local\Temp\ccheWc1y.s:28116  .debug_str:000000000001b49f .LASF5128
C:\Users\SOLDER~1\AppData\Local\Temp\ccheWc1y.s:27102  .debug_str:00000000000172a0 .LASF5129
C:\Users\SOLDER~1\AppData\Local\Temp\ccheWc1y.s:27430  .debug_str:0000000000018894 .LASF5130
C:\Users\SOLDER~1\AppData\Local\Temp\ccheWc1y.s:26094  .debug_str:000000000001311e .LASF5131
C:\Users\SOLDER~1\AppData\Local\Temp\ccheWc1y.s:31730  .debug_str:0000000000029e82 .LASF5132
C:\Users\SOLDER~1\AppData\Local\Temp\ccheWc1y.s:29798  .debug_str:0000000000022086 .LASF5133
C:\Users\SOLDER~1\AppData\Local\Temp\ccheWc1y.s:29832  .debug_str:00000000000222a3 .LASF5134
C:\Users\SOLDER~1\AppData\Local\Temp\ccheWc1y.s:31146  .debug_str:00000000000278a3 .LASF5135
C:\Users\SOLDER~1\AppData\Local\Temp\ccheWc1y.s:33046  .debug_str:000000000002f353 .LASF5136
GAS LISTING C:\Users\SOLDER~1\AppData\Local\Temp\ccheWc1y.s 			page 156


C:\Users\SOLDER~1\AppData\Local\Temp\ccheWc1y.s:32978  .debug_str:000000000002ef06 .LASF5137
C:\Users\SOLDER~1\AppData\Local\Temp\ccheWc1y.s:27064  .debug_str:0000000000017082 .LASF5138
C:\Users\SOLDER~1\AppData\Local\Temp\ccheWc1y.s:26470  .debug_str:0000000000014ad0 .LASF5139
C:\Users\SOLDER~1\AppData\Local\Temp\ccheWc1y.s:26308  .debug_str:0000000000013f99 .LASF5140
C:\Users\SOLDER~1\AppData\Local\Temp\ccheWc1y.s:31196  .debug_str:0000000000027bfc .LASF5141
C:\Users\SOLDER~1\AppData\Local\Temp\ccheWc1y.s:27372  .debug_str:00000000000184c7 .LASF5142
C:\Users\SOLDER~1\AppData\Local\Temp\ccheWc1y.s:21716  .debug_str:0000000000001538 .LASF5143
C:\Users\SOLDER~1\AppData\Local\Temp\ccheWc1y.s:29506  .debug_str:0000000000020e1b .LASF5144
C:\Users\SOLDER~1\AppData\Local\Temp\ccheWc1y.s:29282  .debug_str:0000000000020002 .LASF5145
C:\Users\SOLDER~1\AppData\Local\Temp\ccheWc1y.s:24132  .debug_str:000000000000b237 .LASF5146
C:\Users\SOLDER~1\AppData\Local\Temp\ccheWc1y.s:31082  .debug_str:000000000002746c .LASF5147
C:\Users\SOLDER~1\AppData\Local\Temp\ccheWc1y.s:29970  .debug_str:0000000000022b3c .LASF5148
C:\Users\SOLDER~1\AppData\Local\Temp\ccheWc1y.s:26660  .debug_str:0000000000015726 .LASF5149
C:\Users\SOLDER~1\AppData\Local\Temp\ccheWc1y.s:30834  .debug_str:00000000000263c9 .LASF5150
C:\Users\SOLDER~1\AppData\Local\Temp\ccheWc1y.s:25688  .debug_str:0000000000011747 .LASF5151
C:\Users\SOLDER~1\AppData\Local\Temp\ccheWc1y.s:32742  .debug_str:000000000002e01d .LASF5152
C:\Users\SOLDER~1\AppData\Local\Temp\ccheWc1y.s:29220  .debug_str:000000000001fc15 .LASF5153
C:\Users\SOLDER~1\AppData\Local\Temp\ccheWc1y.s:30102  .debug_str:0000000000023412 .LASF5154
C:\Users\SOLDER~1\AppData\Local\Temp\ccheWc1y.s:31616  .debug_str:00000000000296f7 .LASF5155
C:\Users\SOLDER~1\AppData\Local\Temp\ccheWc1y.s:27654  .debug_str:0000000000019715 .LASF5156
C:\Users\SOLDER~1\AppData\Local\Temp\ccheWc1y.s:28408  .debug_str:000000000001c6f4 .LASF5157
C:\Users\SOLDER~1\AppData\Local\Temp\ccheWc1y.s:23600  .debug_str:0000000000008ebe .LASF5158
C:\Users\SOLDER~1\AppData\Local\Temp\ccheWc1y.s:29276  .debug_str:000000000001ff95 .LASF5159
C:\Users\SOLDER~1\AppData\Local\Temp\ccheWc1y.s:22342  .debug_str:0000000000003d7b .LASF5160
C:\Users\SOLDER~1\AppData\Local\Temp\ccheWc1y.s:29650  .debug_str:000000000002175b .LASF5161
C:\Users\SOLDER~1\AppData\Local\Temp\ccheWc1y.s:21690  .debug_str:0000000000001362 .LASF5162
C:\Users\SOLDER~1\AppData\Local\Temp\ccheWc1y.s:21404  .debug_str:0000000000000032 .LASF5163
C:\Users\SOLDER~1\AppData\Local\Temp\ccheWc1y.s:28258  .debug_str:000000000001bd4b .LASF5164
C:\Users\SOLDER~1\AppData\Local\Temp\ccheWc1y.s:32706  .debug_str:000000000002ddb9 .LASF5165
C:\Users\SOLDER~1\AppData\Local\Temp\ccheWc1y.s:21432  .debug_str:00000000000001db .LASF5166
C:\Users\SOLDER~1\AppData\Local\Temp\ccheWc1y.s:24358  .debug_str:000000000000c07d .LASF5167
C:\Users\SOLDER~1\AppData\Local\Temp\ccheWc1y.s:33086  .debug_str:000000000002f5bc .LASF5168
C:\Users\SOLDER~1\AppData\Local\Temp\ccheWc1y.s:25906  .debug_str:0000000000012519 .LASF5169
C:\Users\SOLDER~1\AppData\Local\Temp\ccheWc1y.s:27564  .debug_str:0000000000019109 .LASF5170
C:\Users\SOLDER~1\AppData\Local\Temp\ccheWc1y.s:23352  .debug_str:0000000000007e8f .LASF5171
C:\Users\SOLDER~1\AppData\Local\Temp\ccheWc1y.s:23362  .debug_str:0000000000007f31 .LASF5172
C:\Users\SOLDER~1\AppData\Local\Temp\ccheWc1y.s:29056  .debug_str:000000000001f103 .LASF5173
C:\Users\SOLDER~1\AppData\Local\Temp\ccheWc1y.s:32698  .debug_str:000000000002dd32 .LASF5174
C:\Users\SOLDER~1\AppData\Local\Temp\ccheWc1y.s:25594  .debug_str:000000000001114b .LASF5175
C:\Users\SOLDER~1\AppData\Local\Temp\ccheWc1y.s:23666  .debug_str:0000000000009370 .LASF5176
C:\Users\SOLDER~1\AppData\Local\Temp\ccheWc1y.s:26352  .debug_str:00000000000142bd .LASF5177
C:\Users\SOLDER~1\AppData\Local\Temp\ccheWc1y.s:29478  .debug_str:0000000000020c2e .LASF5178
C:\Users\SOLDER~1\AppData\Local\Temp\ccheWc1y.s:26942  .debug_str:00000000000168fd .LASF5179
C:\Users\SOLDER~1\AppData\Local\Temp\ccheWc1y.s:25314  .debug_str:000000000000ff58 .LASF5180
C:\Users\SOLDER~1\AppData\Local\Temp\ccheWc1y.s:33022  .debug_str:000000000002f1e9 .LASF5181
C:\Users\SOLDER~1\AppData\Local\Temp\ccheWc1y.s:24602  .debug_str:000000000000d118 .LASF5182
C:\Users\SOLDER~1\AppData\Local\Temp\ccheWc1y.s:29082  .debug_str:000000000001f2ab .LASF5183
C:\Users\SOLDER~1\AppData\Local\Temp\ccheWc1y.s:22114  .debug_str:0000000000002edb .LASF5184
C:\Users\SOLDER~1\AppData\Local\Temp\ccheWc1y.s:25692  .debug_str:000000000001179f .LASF5185
C:\Users\SOLDER~1\AppData\Local\Temp\ccheWc1y.s:28850  .debug_str:000000000001e396 .LASF5186
C:\Users\SOLDER~1\AppData\Local\Temp\ccheWc1y.s:26582  .debug_str:000000000001522a .LASF5187
C:\Users\SOLDER~1\AppData\Local\Temp\ccheWc1y.s:30714  .debug_str:0000000000025ba8 .LASF5188
C:\Users\SOLDER~1\AppData\Local\Temp\ccheWc1y.s:28362  .debug_str:000000000001c3d2 .LASF5189
C:\Users\SOLDER~1\AppData\Local\Temp\ccheWc1y.s:24758  .debug_str:000000000000db54 .LASF5190
C:\Users\SOLDER~1\AppData\Local\Temp\ccheWc1y.s:22916  .debug_str:00000000000061c4 .LASF5191
C:\Users\SOLDER~1\AppData\Local\Temp\ccheWc1y.s:32976  .debug_str:000000000002eecf .LASF5192
C:\Users\SOLDER~1\AppData\Local\Temp\ccheWc1y.s:21692  .debug_str:0000000000001385 .LASF5193
GAS LISTING C:\Users\SOLDER~1\AppData\Local\Temp\ccheWc1y.s 			page 157


C:\Users\SOLDER~1\AppData\Local\Temp\ccheWc1y.s:24542  .debug_str:000000000000ccfa .LASF5194
C:\Users\SOLDER~1\AppData\Local\Temp\ccheWc1y.s:31136  .debug_str:00000000000277e8 .LASF5195
C:\Users\SOLDER~1\AppData\Local\Temp\ccheWc1y.s:28004  .debug_str:000000000001ad2a .LASF5196
C:\Users\SOLDER~1\AppData\Local\Temp\ccheWc1y.s:23988  .debug_str:000000000000a89d .LASF5197
C:\Users\SOLDER~1\AppData\Local\Temp\ccheWc1y.s:21968  .debug_str:000000000000259a .LASF5198
C:\Users\SOLDER~1\AppData\Local\Temp\ccheWc1y.s:28076  .debug_str:000000000001b1f3 .LASF5199
C:\Users\SOLDER~1\AppData\Local\Temp\ccheWc1y.s:30810  .debug_str:000000000002621d .LASF5200
C:\Users\SOLDER~1\AppData\Local\Temp\ccheWc1y.s:23656  .debug_str:00000000000092aa .LASF5201
C:\Users\SOLDER~1\AppData\Local\Temp\ccheWc1y.s:30896  .debug_str:0000000000026806 .LASF5202
C:\Users\SOLDER~1\AppData\Local\Temp\ccheWc1y.s:22676  .debug_str:0000000000005249 .LASF5203
C:\Users\SOLDER~1\AppData\Local\Temp\ccheWc1y.s:21566  .debug_str:0000000000000b64 .LASF5204
C:\Users\SOLDER~1\AppData\Local\Temp\ccheWc1y.s:24546  .debug_str:000000000000cd54 .LASF5205
C:\Users\SOLDER~1\AppData\Local\Temp\ccheWc1y.s:25858  .debug_str:0000000000012232 .LASF5206
C:\Users\SOLDER~1\AppData\Local\Temp\ccheWc1y.s:27006  .debug_str:0000000000016cd4 .LASF5207
C:\Users\SOLDER~1\AppData\Local\Temp\ccheWc1y.s:22966  .debug_str:0000000000006542 .LASF5208
C:\Users\SOLDER~1\AppData\Local\Temp\ccheWc1y.s:31358  .debug_str:0000000000028682 .LASF5209
C:\Users\SOLDER~1\AppData\Local\Temp\ccheWc1y.s:30030  .debug_str:0000000000022f57 .LASF5210
C:\Users\SOLDER~1\AppData\Local\Temp\ccheWc1y.s:26274  .debug_str:0000000000013ce9 .LASF5211
C:\Users\SOLDER~1\AppData\Local\Temp\ccheWc1y.s:29722  .debug_str:0000000000021bdf .LASF5212
C:\Users\SOLDER~1\AppData\Local\Temp\ccheWc1y.s:30508  .debug_str:0000000000024e79 .LASF5213
C:\Users\SOLDER~1\AppData\Local\Temp\ccheWc1y.s:28538  .debug_str:000000000001cf4a .LASF5214
C:\Users\SOLDER~1\AppData\Local\Temp\ccheWc1y.s:22914  .debug_str:00000000000061a1 .LASF5215
C:\Users\SOLDER~1\AppData\Local\Temp\ccheWc1y.s:30350  .debug_str:0000000000024429 .LASF5216
C:\Users\SOLDER~1\AppData\Local\Temp\ccheWc1y.s:32660  .debug_str:000000000002daf0 .LASF5217
C:\Users\SOLDER~1\AppData\Local\Temp\ccheWc1y.s:27904  .debug_str:000000000001a6c4 .LASF5218
C:\Users\SOLDER~1\AppData\Local\Temp\ccheWc1y.s:28230  .debug_str:000000000001bb9f .LASF5219
C:\Users\SOLDER~1\AppData\Local\Temp\ccheWc1y.s:29508  .debug_str:0000000000020e3c .LASF5220
C:\Users\SOLDER~1\AppData\Local\Temp\ccheWc1y.s:28298  .debug_str:000000000001bfc7 .LASF5221
C:\Users\SOLDER~1\AppData\Local\Temp\ccheWc1y.s:26294  .debug_str:0000000000013e81 .LASF5222
C:\Users\SOLDER~1\AppData\Local\Temp\ccheWc1y.s:30748  .debug_str:0000000000025dec .LASF5223
C:\Users\SOLDER~1\AppData\Local\Temp\ccheWc1y.s:21758  .debug_str:00000000000017ee .LASF5224
C:\Users\SOLDER~1\AppData\Local\Temp\ccheWc1y.s:25784  .debug_str:0000000000011d77 .LASF5225
C:\Users\SOLDER~1\AppData\Local\Temp\ccheWc1y.s:25794  .debug_str:0000000000011e0a .LASF5226
C:\Users\SOLDER~1\AppData\Local\Temp\ccheWc1y.s:24058  .debug_str:000000000000ad78 .LASF5227
C:\Users\SOLDER~1\AppData\Local\Temp\ccheWc1y.s:24446  .debug_str:000000000000c650 .LASF5228
C:\Users\SOLDER~1\AppData\Local\Temp\ccheWc1y.s:31538  .debug_str:0000000000029223 .LASF5229
C:\Users\SOLDER~1\AppData\Local\Temp\ccheWc1y.s:23438  .debug_str:0000000000008446 .LASF5230
C:\Users\SOLDER~1\AppData\Local\Temp\ccheWc1y.s:22440  .debug_str:00000000000043a2 .LASF5231
C:\Users\SOLDER~1\AppData\Local\Temp\ccheWc1y.s:24714  .debug_str:000000000000d888 .LASF5232
C:\Users\SOLDER~1\AppData\Local\Temp\ccheWc1y.s:23866  .debug_str:000000000000a06d .LASF5233
C:\Users\SOLDER~1\AppData\Local\Temp\ccheWc1y.s:25198  .debug_str:000000000000f78c .LASF5234
C:\Users\SOLDER~1\AppData\Local\Temp\ccheWc1y.s:22188  .debug_str:0000000000003394 .LASF5235
C:\Users\SOLDER~1\AppData\Local\Temp\ccheWc1y.s:31992  .debug_str:000000000002af47 .LASF5236
C:\Users\SOLDER~1\AppData\Local\Temp\ccheWc1y.s:25516  .debug_str:0000000000010c41 .LASF5237
C:\Users\SOLDER~1\AppData\Local\Temp\ccheWc1y.s:31800  .debug_str:000000000002a307 .LASF5238
C:\Users\SOLDER~1\AppData\Local\Temp\ccheWc1y.s:25278  .debug_str:000000000000fcbe .LASF5239
C:\Users\SOLDER~1\AppData\Local\Temp\ccheWc1y.s:21962  .debug_str:0000000000002537 .LASF5240
C:\Users\SOLDER~1\AppData\Local\Temp\ccheWc1y.s:27920  .debug_str:000000000001a7a8 .LASF5241
C:\Users\SOLDER~1\AppData\Local\Temp\ccheWc1y.s:22236  .debug_str:00000000000036a9 .LASF5242
C:\Users\SOLDER~1\AppData\Local\Temp\ccheWc1y.s:22646  .debug_str:000000000000508f .LASF5243
C:\Users\SOLDER~1\AppData\Local\Temp\ccheWc1y.s:31890  .debug_str:000000000002a92e .LASF5244
C:\Users\SOLDER~1\AppData\Local\Temp\ccheWc1y.s:21452  .debug_str:0000000000000316 .LASF5245
C:\Users\SOLDER~1\AppData\Local\Temp\ccheWc1y.s:23160  .debug_str:0000000000007254 .LASF5246
C:\Users\SOLDER~1\AppData\Local\Temp\ccheWc1y.s:32134  .debug_str:000000000002b8ca .LASF5247
C:\Users\SOLDER~1\AppData\Local\Temp\ccheWc1y.s:24054  .debug_str:000000000000ad36 .LASF5248
C:\Users\SOLDER~1\AppData\Local\Temp\ccheWc1y.s:30900  .debug_str:000000000002685a .LASF5249
C:\Users\SOLDER~1\AppData\Local\Temp\ccheWc1y.s:32264  .debug_str:000000000002c0bf .LASF5250
GAS LISTING C:\Users\SOLDER~1\AppData\Local\Temp\ccheWc1y.s 			page 158


C:\Users\SOLDER~1\AppData\Local\Temp\ccheWc1y.s:23440  .debug_str:0000000000008468 .LASF5251
C:\Users\SOLDER~1\AppData\Local\Temp\ccheWc1y.s:24450  .debug_str:000000000000c6a3 .LASF5252
C:\Users\SOLDER~1\AppData\Local\Temp\ccheWc1y.s:30564  .debug_str:000000000002523b .LASF5253
C:\Users\SOLDER~1\AppData\Local\Temp\ccheWc1y.s:27778  .debug_str:0000000000019f02 .LASF5254
C:\Users\SOLDER~1\AppData\Local\Temp\ccheWc1y.s:25002  .debug_str:000000000000eb2f .LASF5255
C:\Users\SOLDER~1\AppData\Local\Temp\ccheWc1y.s:32896  .debug_str:000000000002e9a1 .LASF5256
C:\Users\SOLDER~1\AppData\Local\Temp\ccheWc1y.s:25716  .debug_str:000000000001190c .LASF5257
C:\Users\SOLDER~1\AppData\Local\Temp\ccheWc1y.s:28594  .debug_str:000000000001d33b .LASF5258
C:\Users\SOLDER~1\AppData\Local\Temp\ccheWc1y.s:27310  .debug_str:000000000001807f .LASF5259
C:\Users\SOLDER~1\AppData\Local\Temp\ccheWc1y.s:23338  .debug_str:0000000000007d8a .LASF5260
C:\Users\SOLDER~1\AppData\Local\Temp\ccheWc1y.s:32864  .debug_str:000000000002e7ae .LASF5261
C:\Users\SOLDER~1\AppData\Local\Temp\ccheWc1y.s:28934  .debug_str:000000000001e8e7 .LASF5262
C:\Users\SOLDER~1\AppData\Local\Temp\ccheWc1y.s:21700  .debug_str:0000000000001419 .LASF5263
C:\Users\SOLDER~1\AppData\Local\Temp\ccheWc1y.s:26808  .debug_str:0000000000016060 .LASF5264
C:\Users\SOLDER~1\AppData\Local\Temp\ccheWc1y.s:31072  .debug_str:00000000000273ac .LASF5265
C:\Users\SOLDER~1\AppData\Local\Temp\ccheWc1y.s:25920  .debug_str:00000000000125ed .LASF5266
C:\Users\SOLDER~1\AppData\Local\Temp\ccheWc1y.s:31304  .debug_str:0000000000028303 .LASF5267
C:\Users\SOLDER~1\AppData\Local\Temp\ccheWc1y.s:21788  .debug_str:00000000000019b1 .LASF5268
C:\Users\SOLDER~1\AppData\Local\Temp\ccheWc1y.s:29956  .debug_str:0000000000022a48 .LASF5269
C:\Users\SOLDER~1\AppData\Local\Temp\ccheWc1y.s:27898  .debug_str:000000000001a65e .LASF5270
C:\Users\SOLDER~1\AppData\Local\Temp\ccheWc1y.s:26830  .debug_str:00000000000161c3 .LASF5271
C:\Users\SOLDER~1\AppData\Local\Temp\ccheWc1y.s:24068  .debug_str:000000000000adfb .LASF5272
C:\Users\SOLDER~1\AppData\Local\Temp\ccheWc1y.s:21542  .debug_str:00000000000009c0 .LASF5273
C:\Users\SOLDER~1\AppData\Local\Temp\ccheWc1y.s:29044  .debug_str:000000000001f044 .LASF5274
C:\Users\SOLDER~1\AppData\Local\Temp\ccheWc1y.s:31846  .debug_str:000000000002a624 .LASF5275
C:\Users\SOLDER~1\AppData\Local\Temp\ccheWc1y.s:27258  .debug_str:0000000000017d3c .LASF5276
C:\Users\SOLDER~1\AppData\Local\Temp\ccheWc1y.s:25424  .debug_str:000000000001067c .LASF5277
C:\Users\SOLDER~1\AppData\Local\Temp\ccheWc1y.s:22108  .debug_str:0000000000002e8d .LASF5278
C:\Users\SOLDER~1\AppData\Local\Temp\ccheWc1y.s:23268  .debug_str:00000000000078f1 .LASF5279
C:\Users\SOLDER~1\AppData\Local\Temp\ccheWc1y.s:28818  .debug_str:000000000001e15d .LASF5280
C:\Users\SOLDER~1\AppData\Local\Temp\ccheWc1y.s:23372  .debug_str:0000000000007fd2 .LASF5281
C:\Users\SOLDER~1\AppData\Local\Temp\ccheWc1y.s:28484  .debug_str:000000000001cbe7 .LASF5282
C:\Users\SOLDER~1\AppData\Local\Temp\ccheWc1y.s:22180  .debug_str:0000000000003314 .LASF5283
C:\Users\SOLDER~1\AppData\Local\Temp\ccheWc1y.s:22798  .debug_str:00000000000059f5 .LASF5284
C:\Users\SOLDER~1\AppData\Local\Temp\ccheWc1y.s:28468  .debug_str:000000000001cab0 .LASF5285
C:\Users\SOLDER~1\AppData\Local\Temp\ccheWc1y.s:22198  .debug_str:000000000000344f .LASF5286
C:\Users\SOLDER~1\AppData\Local\Temp\ccheWc1y.s:32408  .debug_str:000000000002ca78 .LASF5287
C:\Users\SOLDER~1\AppData\Local\Temp\ccheWc1y.s:25146  .debug_str:000000000000f43e .LASF5288
C:\Users\SOLDER~1\AppData\Local\Temp\ccheWc1y.s:25528  .debug_str:0000000000010d2c .LASF5289
C:\Users\SOLDER~1\AppData\Local\Temp\ccheWc1y.s:22388  .debug_str:000000000000404f .LASF5290
C:\Users\SOLDER~1\AppData\Local\Temp\ccheWc1y.s:22770  .debug_str:00000000000057f0 .LASF5291
C:\Users\SOLDER~1\AppData\Local\Temp\ccheWc1y.s:21624  .debug_str:0000000000000f4a .LASF5292
C:\Users\SOLDER~1\AppData\Local\Temp\ccheWc1y.s:26264  .debug_str:0000000000013c59 .LASF5293
C:\Users\SOLDER~1\AppData\Local\Temp\ccheWc1y.s:30166  .debug_str:0000000000023819 .LASF5294
C:\Users\SOLDER~1\AppData\Local\Temp\ccheWc1y.s:27202  .debug_str:0000000000017980 .LASF5295
C:\Users\SOLDER~1\AppData\Local\Temp\ccheWc1y.s:27108  .debug_str:000000000001730a .LASF5296
C:\Users\SOLDER~1\AppData\Local\Temp\ccheWc1y.s:25078  .debug_str:000000000000efe9 .LASF5297
C:\Users\SOLDER~1\AppData\Local\Temp\ccheWc1y.s:23156  .debug_str:0000000000007207 .LASF5298
C:\Users\SOLDER~1\AppData\Local\Temp\ccheWc1y.s:23416  .debug_str:00000000000082ed .LASF5299
C:\Users\SOLDER~1\AppData\Local\Temp\ccheWc1y.s:31634  .debug_str:0000000000029829 .LASF5300
C:\Users\SOLDER~1\AppData\Local\Temp\ccheWc1y.s:27002  .debug_str:0000000000016c83 .LASF5301
C:\Users\SOLDER~1\AppData\Local\Temp\ccheWc1y.s:24536  .debug_str:000000000000cc96 .LASF5302
C:\Users\SOLDER~1\AppData\Local\Temp\ccheWc1y.s:30310  .debug_str:000000000002416f .LASF5303
C:\Users\SOLDER~1\AppData\Local\Temp\ccheWc1y.s:28402  .debug_str:000000000001c66c .LASF5304
C:\Users\SOLDER~1\AppData\Local\Temp\ccheWc1y.s:28610  .debug_str:000000000001d43b .LASF5305
C:\Users\SOLDER~1\AppData\Local\Temp\ccheWc1y.s:25676  .debug_str:000000000001169d .LASF5306
C:\Users\SOLDER~1\AppData\Local\Temp\ccheWc1y.s:24202  .debug_str:000000000000b6aa .LASF5307
GAS LISTING C:\Users\SOLDER~1\AppData\Local\Temp\ccheWc1y.s 			page 159


C:\Users\SOLDER~1\AppData\Local\Temp\ccheWc1y.s:28914  .debug_str:000000000001e7a2 .LASF5308
C:\Users\SOLDER~1\AppData\Local\Temp\ccheWc1y.s:29286  .debug_str:000000000002003a .LASF5309
C:\Users\SOLDER~1\AppData\Local\Temp\ccheWc1y.s:23820  .debug_str:0000000000009d62 .LASF5310
C:\Users\SOLDER~1\AppData\Local\Temp\ccheWc1y.s:32110  .debug_str:000000000002b733 .LASF5311
C:\Users\SOLDER~1\AppData\Local\Temp\ccheWc1y.s:30892  .debug_str:00000000000267b6 .LASF5312
C:\Users\SOLDER~1\AppData\Local\Temp\ccheWc1y.s:21876  .debug_str:0000000000001f9c .LASF5313
C:\Users\SOLDER~1\AppData\Local\Temp\ccheWc1y.s:26182  .debug_str:00000000000136d3 .LASF5314
C:\Users\SOLDER~1\AppData\Local\Temp\ccheWc1y.s:22450  .debug_str:0000000000004435 .LASF5315
C:\Users\SOLDER~1\AppData\Local\Temp\ccheWc1y.s:26238  .debug_str:0000000000013a9c .LASF5316
C:\Users\SOLDER~1\AppData\Local\Temp\ccheWc1y.s:23940  .debug_str:000000000000a54a .LASF5317
C:\Users\SOLDER~1\AppData\Local\Temp\ccheWc1y.s:29962  .debug_str:0000000000022aba .LASF5318
C:\Users\SOLDER~1\AppData\Local\Temp\ccheWc1y.s:26870  .debug_str:0000000000016450 .LASF5319
C:\Users\SOLDER~1\AppData\Local\Temp\ccheWc1y.s:31762  .debug_str:000000000002a06e .LASF5320
C:\Users\SOLDER~1\AppData\Local\Temp\ccheWc1y.s:27570  .debug_str:000000000001917f .LASF5321
C:\Users\SOLDER~1\AppData\Local\Temp\ccheWc1y.s:31208  .debug_str:0000000000027cc2 .LASF5322
C:\Users\SOLDER~1\AppData\Local\Temp\ccheWc1y.s:29022  .debug_str:000000000001eecb .LASF5323
C:\Users\SOLDER~1\AppData\Local\Temp\ccheWc1y.s:26034  .debug_str:0000000000012cf0 .LASF5324
C:\Users\SOLDER~1\AppData\Local\Temp\ccheWc1y.s:27196  .debug_str:000000000001790b .LASF5325
C:\Users\SOLDER~1\AppData\Local\Temp\ccheWc1y.s:28676  .debug_str:000000000001d8b6 .LASF5326
C:\Users\SOLDER~1\AppData\Local\Temp\ccheWc1y.s:21786  .debug_str:0000000000001986 .LASF5327
C:\Users\SOLDER~1\AppData\Local\Temp\ccheWc1y.s:30228  .debug_str:0000000000023c5c .LASF5328
C:\Users\SOLDER~1\AppData\Local\Temp\ccheWc1y.s:25470  .debug_str:0000000000010989 .LASF5329
C:\Users\SOLDER~1\AppData\Local\Temp\ccheWc1y.s:23138  .debug_str:00000000000070d9 .LASF5330
C:\Users\SOLDER~1\AppData\Local\Temp\ccheWc1y.s:22682  .debug_str:00000000000052bd .LASF5331
C:\Users\SOLDER~1\AppData\Local\Temp\ccheWc1y.s:25584  .debug_str:00000000000110b8 .LASF5332
C:\Users\SOLDER~1\AppData\Local\Temp\ccheWc1y.s:23662  .debug_str:0000000000009334 .LASF5333
C:\Users\SOLDER~1\AppData\Local\Temp\ccheWc1y.s:30598  .debug_str:0000000000025474 .LASF5334
C:\Users\SOLDER~1\AppData\Local\Temp\ccheWc1y.s:31640  .debug_str:0000000000029897 .LASF5335
C:\Users\SOLDER~1\AppData\Local\Temp\ccheWc1y.s:22802  .debug_str:0000000000005a3b .LASF5336
C:\Users\SOLDER~1\AppData\Local\Temp\ccheWc1y.s:26864  .debug_str:00000000000163ee .LASF5337
C:\Users\SOLDER~1\AppData\Local\Temp\ccheWc1y.s:24430  .debug_str:000000000000c53a .LASF5338
C:\Users\SOLDER~1\AppData\Local\Temp\ccheWc1y.s:23320  .debug_str:0000000000007c43 .LASF5339
C:\Users\SOLDER~1\AppData\Local\Temp\ccheWc1y.s:23194  .debug_str:000000000000747a .LASF5340
C:\Users\SOLDER~1\AppData\Local\Temp\ccheWc1y.s:29814  .debug_str:0000000000022195 .LASF5341
C:\Users\SOLDER~1\AppData\Local\Temp\ccheWc1y.s:27818  .debug_str:000000000001a165 .LASF5342
C:\Users\SOLDER~1\AppData\Local\Temp\ccheWc1y.s:31220  .debug_str:0000000000027d84 .LASF5343
C:\Users\SOLDER~1\AppData\Local\Temp\ccheWc1y.s:33064  .debug_str:000000000002f465 .LASF5344
C:\Users\SOLDER~1\AppData\Local\Temp\ccheWc1y.s:30024  .debug_str:0000000000022ede .LASF5345
C:\Users\SOLDER~1\AppData\Local\Temp\ccheWc1y.s:28514  .debug_str:000000000001cdca .LASF5346
C:\Users\SOLDER~1\AppData\Local\Temp\ccheWc1y.s:22262  .debug_str:0000000000003863 .LASF5347
C:\Users\SOLDER~1\AppData\Local\Temp\ccheWc1y.s:32172  .debug_str:000000000002bae3 .LASF5348
C:\Users\SOLDER~1\AppData\Local\Temp\ccheWc1y.s:32610  .debug_str:000000000002d7b5 .LASF5349
C:\Users\SOLDER~1\AppData\Local\Temp\ccheWc1y.s:27336  .debug_str:000000000001823b .LASF5350
C:\Users\SOLDER~1\AppData\Local\Temp\ccheWc1y.s:22146  .debug_str:00000000000030ea .LASF5351
C:\Users\SOLDER~1\AppData\Local\Temp\ccheWc1y.s:24552  .debug_str:000000000000cdce .LASF5352
C:\Users\SOLDER~1\AppData\Local\Temp\ccheWc1y.s:32242  .debug_str:000000000002bf6f .LASF5353
C:\Users\SOLDER~1\AppData\Local\Temp\ccheWc1y.s:31614  .debug_str:00000000000296d6 .LASF5354
C:\Users\SOLDER~1\AppData\Local\Temp\ccheWc1y.s:32564  .debug_str:000000000002d458 .LASF5355
C:\Users\SOLDER~1\AppData\Local\Temp\ccheWc1y.s:29946  .debug_str:0000000000022991 .LASF5356
C:\Users\SOLDER~1\AppData\Local\Temp\ccheWc1y.s:25666  .debug_str:00000000000115ef .LASF5357
C:\Users\SOLDER~1\AppData\Local\Temp\ccheWc1y.s:22792  .debug_str:000000000000598e .LASF5358
C:\Users\SOLDER~1\AppData\Local\Temp\ccheWc1y.s:32200  .debug_str:000000000002bcce .LASF5359
C:\Users\SOLDER~1\AppData\Local\Temp\ccheWc1y.s:26768  .debug_str:0000000000015dda .LASF5360
C:\Users\SOLDER~1\AppData\Local\Temp\ccheWc1y.s:26466  .debug_str:0000000000014a8d .LASF5361
C:\Users\SOLDER~1\AppData\Local\Temp\ccheWc1y.s:31370  .debug_str:0000000000028765 .LASF5362
C:\Users\SOLDER~1\AppData\Local\Temp\ccheWc1y.s:22210  .debug_str:0000000000003520 .LASF5363
C:\Users\SOLDER~1\AppData\Local\Temp\ccheWc1y.s:26388  .debug_str:000000000001450f .LASF5364
GAS LISTING C:\Users\SOLDER~1\AppData\Local\Temp\ccheWc1y.s 			page 160


C:\Users\SOLDER~1\AppData\Local\Temp\ccheWc1y.s:27912  .debug_str:000000000001a72c .LASF5365
C:\Users\SOLDER~1\AppData\Local\Temp\ccheWc1y.s:22116  .debug_str:0000000000002f01 .LASF5366
C:\Users\SOLDER~1\AppData\Local\Temp\ccheWc1y.s:23382  .debug_str:0000000000008087 .LASF5367
C:\Users\SOLDER~1\AppData\Local\Temp\ccheWc1y.s:27892  .debug_str:000000000001a5f7 .LASF5368
C:\Users\SOLDER~1\AppData\Local\Temp\ccheWc1y.s:26918  .debug_str:0000000000016774 .LASF5369
C:\Users\SOLDER~1\AppData\Local\Temp\ccheWc1y.s:30514  .debug_str:0000000000024ed3 .LASF5370
C:\Users\SOLDER~1\AppData\Local\Temp\ccheWc1y.s:25938  .debug_str:0000000000012732 .LASF5371
C:\Users\SOLDER~1\AppData\Local\Temp\ccheWc1y.s:32310  .debug_str:000000000002c3c1 .LASF5372
C:\Users\SOLDER~1\AppData\Local\Temp\ccheWc1y.s:26478  .debug_str:0000000000014b57 .LASF5373
C:\Users\SOLDER~1\AppData\Local\Temp\ccheWc1y.s:22670  .debug_str:00000000000051ec .LASF5374
C:\Users\SOLDER~1\AppData\Local\Temp\ccheWc1y.s:32438  .debug_str:000000000002cc52 .LASF5375
C:\Users\SOLDER~1\AppData\Local\Temp\ccheWc1y.s:30758  .debug_str:0000000000025ea8 .LASF5376
C:\Users\SOLDER~1\AppData\Local\Temp\ccheWc1y.s:26562  .debug_str:00000000000150cc .LASF5377
C:\Users\SOLDER~1\AppData\Local\Temp\ccheWc1y.s:22570  .debug_str:0000000000004bda .LASF5378
C:\Users\SOLDER~1\AppData\Local\Temp\ccheWc1y.s:22760  .debug_str:0000000000005744 .LASF5379
C:\Users\SOLDER~1\AppData\Local\Temp\ccheWc1y.s:27870  .debug_str:000000000001a478 .LASF5380
C:\Users\SOLDER~1\AppData\Local\Temp\ccheWc1y.s:30026  .debug_str:0000000000022efe .LASF5381
C:\Users\SOLDER~1\AppData\Local\Temp\ccheWc1y.s:21680  .debug_str:00000000000012de .LASF5382
C:\Users\SOLDER~1\AppData\Local\Temp\ccheWc1y.s:25292  .debug_str:000000000000fde6 .LASF5383
C:\Users\SOLDER~1\AppData\Local\Temp\ccheWc1y.s:30734  .debug_str:0000000000025cfa .LASF5384
C:\Users\SOLDER~1\AppData\Local\Temp\ccheWc1y.s:21468  .debug_str:0000000000000428 .LASF5385
C:\Users\SOLDER~1\AppData\Local\Temp\ccheWc1y.s:32042  .debug_str:000000000002b2ab .LASF5386
C:\Users\SOLDER~1\AppData\Local\Temp\ccheWc1y.s:33088  .debug_str:000000000002f5e2 .LASF5387
C:\Users\SOLDER~1\AppData\Local\Temp\ccheWc1y.s:27722  .debug_str:0000000000019bdf .LASF5388
C:\Users\SOLDER~1\AppData\Local\Temp\ccheWc1y.s:32370  .debug_str:000000000002c803 .LASF5389
C:\Users\SOLDER~1\AppData\Local\Temp\ccheWc1y.s:27704  .debug_str:0000000000019a71 .LASF5390
C:\Users\SOLDER~1\AppData\Local\Temp\ccheWc1y.s:25446  .debug_str:00000000000107e5 .LASF5391
C:\Users\SOLDER~1\AppData\Local\Temp\ccheWc1y.s:26480  .debug_str:0000000000014b77 .LASF5392
C:\Users\SOLDER~1\AppData\Local\Temp\ccheWc1y.s:26142  .debug_str:0000000000013430 .LASF5393
C:\Users\SOLDER~1\AppData\Local\Temp\ccheWc1y.s:25454  .debug_str:000000000001087b .LASF5394
C:\Users\SOLDER~1\AppData\Local\Temp\ccheWc1y.s:32870  .debug_str:000000000002e820 .LASF5395
C:\Users\SOLDER~1\AppData\Local\Temp\ccheWc1y.s:24306  .debug_str:000000000000bd0c .LASF5396
C:\Users\SOLDER~1\AppData\Local\Temp\ccheWc1y.s:28064  .debug_str:000000000001b111 .LASF5397
C:\Users\SOLDER~1\AppData\Local\Temp\ccheWc1y.s:32576  .debug_str:000000000002d52e .LASF5398
C:\Users\SOLDER~1\AppData\Local\Temp\ccheWc1y.s:30476  .debug_str:0000000000024c79 .LASF5399
C:\Users\SOLDER~1\AppData\Local\Temp\ccheWc1y.s:27988  .debug_str:000000000001ac0b .LASF5400
C:\Users\SOLDER~1\AppData\Local\Temp\ccheWc1y.s:28686  .debug_str:000000000001d965 .LASF5401
C:\Users\SOLDER~1\AppData\Local\Temp\ccheWc1y.s:24258  .debug_str:000000000000ba48 .LASF5402
C:\Users\SOLDER~1\AppData\Local\Temp\ccheWc1y.s:27472  .debug_str:0000000000018b30 .LASF5403
C:\Users\SOLDER~1\AppData\Local\Temp\ccheWc1y.s:31238  .debug_str:0000000000027ea1 .LASF5404
C:\Users\SOLDER~1\AppData\Local\Temp\ccheWc1y.s:25342  .debug_str:0000000000010164 .LASF5405
C:\Users\SOLDER~1\AppData\Local\Temp\ccheWc1y.s:27552  .debug_str:0000000000019058 .LASF5406
C:\Users\SOLDER~1\AppData\Local\Temp\ccheWc1y.s:26534  .debug_str:0000000000014eed .LASF5407
C:\Users\SOLDER~1\AppData\Local\Temp\ccheWc1y.s:32190  .debug_str:000000000002bc1c .LASF5408
C:\Users\SOLDER~1\AppData\Local\Temp\ccheWc1y.s:32654  .debug_str:000000000002da91 .LASF5409
C:\Users\SOLDER~1\AppData\Local\Temp\ccheWc1y.s:32496  .debug_str:000000000002d000 .LASF5410
C:\Users\SOLDER~1\AppData\Local\Temp\ccheWc1y.s:22902  .debug_str:00000000000060c5 .LASF5411
C:\Users\SOLDER~1\AppData\Local\Temp\ccheWc1y.s:30574  .debug_str:00000000000252e4 .LASF5412
C:\Users\SOLDER~1\AppData\Local\Temp\ccheWc1y.s:24072  .debug_str:000000000000ae49 .LASF5413
C:\Users\SOLDER~1\AppData\Local\Temp\ccheWc1y.s:24018  .debug_str:000000000000aab0 .LASF5414
C:\Users\SOLDER~1\AppData\Local\Temp\ccheWc1y.s:27730  .debug_str:0000000000019c70 .LASF5415
C:\Users\SOLDER~1\AppData\Local\Temp\ccheWc1y.s:31164  .debug_str:00000000000279e7 .LASF5416
C:\Users\SOLDER~1\AppData\Local\Temp\ccheWc1y.s:24518  .debug_str:000000000000cb5d .LASF5417
C:\Users\SOLDER~1\AppData\Local\Temp\ccheWc1y.s:25662  .debug_str:00000000000115a6 .LASF5418
C:\Users\SOLDER~1\AppData\Local\Temp\ccheWc1y.s:24042  .debug_str:000000000000ac4c .LASF5419
C:\Users\SOLDER~1\AppData\Local\Temp\ccheWc1y.s:32530  .debug_str:000000000002d227 .LASF5420
C:\Users\SOLDER~1\AppData\Local\Temp\ccheWc1y.s:29018  .debug_str:000000000001ee7e .LASF5421
GAS LISTING C:\Users\SOLDER~1\AppData\Local\Temp\ccheWc1y.s 			page 161


C:\Users\SOLDER~1\AppData\Local\Temp\ccheWc1y.s:30072  .debug_str:000000000002323b .LASF5422
C:\Users\SOLDER~1\AppData\Local\Temp\ccheWc1y.s:28494  .debug_str:000000000001cc8a .LASF5423
C:\Users\SOLDER~1\AppData\Local\Temp\ccheWc1y.s:23574  .debug_str:0000000000008d12 .LASF5424
C:\Users\SOLDER~1\AppData\Local\Temp\ccheWc1y.s:31396  .debug_str:00000000000288f6 .LASF5425
C:\Users\SOLDER~1\AppData\Local\Temp\ccheWc1y.s:32796  .debug_str:000000000002e37b .LASF5426
C:\Users\SOLDER~1\AppData\Local\Temp\ccheWc1y.s:22764  .debug_str:0000000000005791 .LASF5427
C:\Users\SOLDER~1\AppData\Local\Temp\ccheWc1y.s:26484  .debug_str:0000000000014bca .LASF5428
C:\Users\SOLDER~1\AppData\Local\Temp\ccheWc1y.s:32202  .debug_str:000000000002bcef .LASF5429
C:\Users\SOLDER~1\AppData\Local\Temp\ccheWc1y.s:32596  .debug_str:000000000002d69e .LASF5430
C:\Users\SOLDER~1\AppData\Local\Temp\ccheWc1y.s:25740  .debug_str:0000000000011ad3 .LASF5431
C:\Users\SOLDER~1\AppData\Local\Temp\ccheWc1y.s:22550  .debug_str:0000000000004aa8 .LASF5432
C:\Users\SOLDER~1\AppData\Local\Temp\ccheWc1y.s:22190  .debug_str:00000000000033b7 .LASF5433
C:\Users\SOLDER~1\AppData\Local\Temp\ccheWc1y.s:28224  .debug_str:000000000001bb47 .LASF5434
C:\Users\SOLDER~1\AppData\Local\Temp\ccheWc1y.s:31534  .debug_str:00000000000291df .LASF5435
C:\Users\SOLDER~1\AppData\Local\Temp\ccheWc1y.s:24012  .debug_str:000000000000aa53 .LASF5436
C:\Users\SOLDER~1\AppData\Local\Temp\ccheWc1y.s:25286  .debug_str:000000000000fd84 .LASF5437
C:\Users\SOLDER~1\AppData\Local\Temp\ccheWc1y.s:28654  .debug_str:000000000001d736 .LASF5438
C:\Users\SOLDER~1\AppData\Local\Temp\ccheWc1y.s:29526  .debug_str:0000000000020f5b .LASF5439
C:\Users\SOLDER~1\AppData\Local\Temp\ccheWc1y.s:23876  .debug_str:000000000000a129 .LASF5440
C:\Users\SOLDER~1\AppData\Local\Temp\ccheWc1y.s:21810  .debug_str:0000000000001b35 .LASF5441
C:\Users\SOLDER~1\AppData\Local\Temp\ccheWc1y.s:27792  .debug_str:0000000000019faa .LASF5442
C:\Users\SOLDER~1\AppData\Local\Temp\ccheWc1y.s:22578  .debug_str:0000000000004c67 .LASF5443
C:\Users\SOLDER~1\AppData\Local\Temp\ccheWc1y.s:32368  .debug_str:000000000002c7e0 .LASF5444
C:\Users\SOLDER~1\AppData\Local\Temp\ccheWc1y.s:29410  .debug_str:00000000000207ca .LASF5445
C:\Users\SOLDER~1\AppData\Local\Temp\ccheWc1y.s:29898  .debug_str:00000000000226d6 .LASF5446
C:\Users\SOLDER~1\AppData\Local\Temp\ccheWc1y.s:26968  .debug_str:0000000000016aa1 .LASF5447
C:\Users\SOLDER~1\AppData\Local\Temp\ccheWc1y.s:25484  .debug_str:0000000000010a64 .LASF5448
C:\Users\SOLDER~1\AppData\Local\Temp\ccheWc1y.s:26834  .debug_str:000000000001620b .LASF5449
C:\Users\SOLDER~1\AppData\Local\Temp\ccheWc1y.s:25818  .debug_str:0000000000011f8e .LASF5450
C:\Users\SOLDER~1\AppData\Local\Temp\ccheWc1y.s:30840  .debug_str:000000000002642d .LASF5451
C:\Users\SOLDER~1\AppData\Local\Temp\ccheWc1y.s:25362  .debug_str:00000000000102ae .LASF5452
C:\Users\SOLDER~1\AppData\Local\Temp\ccheWc1y.s:24210  .debug_str:000000000000b73c .LASF5453
C:\Users\SOLDER~1\AppData\Local\Temp\ccheWc1y.s:26140  .debug_str:000000000001340b .LASF5454
C:\Users\SOLDER~1\AppData\Local\Temp\ccheWc1y.s:25190  .debug_str:000000000000f70c .LASF5455
C:\Users\SOLDER~1\AppData\Local\Temp\ccheWc1y.s:22288  .debug_str:0000000000003a06 .LASF5456
C:\Users\SOLDER~1\AppData\Local\Temp\ccheWc1y.s:23994  .debug_str:000000000000a927 .LASF5457
C:\Users\SOLDER~1\AppData\Local\Temp\ccheWc1y.s:22456  .debug_str:00000000000044ad .LASF5458
C:\Users\SOLDER~1\AppData\Local\Temp\ccheWc1y.s:23930  .debug_str:000000000000a4c3 .LASF5459
C:\Users\SOLDER~1\AppData\Local\Temp\ccheWc1y.s:23838  .debug_str:0000000000009e7e .LASF5460
C:\Users\SOLDER~1\AppData\Local\Temp\ccheWc1y.s:32328  .debug_str:000000000002c504 .LASF5461
C:\Users\SOLDER~1\AppData\Local\Temp\ccheWc1y.s:27100  .debug_str:000000000001727f .LASF5462
C:\Users\SOLDER~1\AppData\Local\Temp\ccheWc1y.s:27906  .debug_str:000000000001a6d6 .LASF5463
C:\Users\SOLDER~1\AppData\Local\Temp\ccheWc1y.s:25208  .debug_str:000000000000f80f .LASF5464
C:\Users\SOLDER~1\AppData\Local\Temp\ccheWc1y.s:29766  .debug_str:0000000000021e8b .LASF5465
C:\Users\SOLDER~1\AppData\Local\Temp\ccheWc1y.s:30890  .debug_str:0000000000026790 .LASF5466
C:\Users\SOLDER~1\AppData\Local\Temp\ccheWc1y.s:24292  .debug_str:000000000000bc26 .LASF5467
C:\Users\SOLDER~1\AppData\Local\Temp\ccheWc1y.s:23130  .debug_str:0000000000007025 .LASF5468
C:\Users\SOLDER~1\AppData\Local\Temp\ccheWc1y.s:23710  .debug_str:0000000000009654 .LASF5469
C:\Users\SOLDER~1\AppData\Local\Temp\ccheWc1y.s:24300  .debug_str:000000000000bc9a .LASF5470
C:\Users\SOLDER~1\AppData\Local\Temp\ccheWc1y.s:25246  .debug_str:000000000000fa9a .LASF5471
C:\Users\SOLDER~1\AppData\Local\Temp\ccheWc1y.s:28024  .debug_str:000000000001ae84 .LASF5472
C:\Users\SOLDER~1\AppData\Local\Temp\ccheWc1y.s:28640  .debug_str:000000000001d615 .LASF5473
C:\Users\SOLDER~1\AppData\Local\Temp\ccheWc1y.s:32452  .debug_str:000000000002cd2d .LASF5474
C:\Users\SOLDER~1\AppData\Local\Temp\ccheWc1y.s:24444  .debug_str:000000000000c625 .LASF5475
C:\Users\SOLDER~1\AppData\Local\Temp\ccheWc1y.s:28560  .debug_str:000000000001d0e6 .LASF5476
C:\Users\SOLDER~1\AppData\Local\Temp\ccheWc1y.s:25284  .debug_str:000000000000fd58 .LASF5477
C:\Users\SOLDER~1\AppData\Local\Temp\ccheWc1y.s:27106  .debug_str:00000000000172df .LASF5478
GAS LISTING C:\Users\SOLDER~1\AppData\Local\Temp\ccheWc1y.s 			page 162


C:\Users\SOLDER~1\AppData\Local\Temp\ccheWc1y.s:24626  .debug_str:000000000000d2bf .LASF5479
C:\Users\SOLDER~1\AppData\Local\Temp\ccheWc1y.s:23836  .debug_str:0000000000009e5b .LASF5480
C:\Users\SOLDER~1\AppData\Local\Temp\ccheWc1y.s:30716  .debug_str:0000000000025bcb .LASF5481
C:\Users\SOLDER~1\AppData\Local\Temp\ccheWc1y.s:25368  .debug_str:0000000000010311 .LASF5482
C:\Users\SOLDER~1\AppData\Local\Temp\ccheWc1y.s:32772  .debug_str:000000000002e1d8 .LASF5483
C:\Users\SOLDER~1\AppData\Local\Temp\ccheWc1y.s:29014  .debug_str:000000000001ee33 .LASF5484
C:\Users\SOLDER~1\AppData\Local\Temp\ccheWc1y.s:21554  .debug_str:0000000000000a9d .LASF5485
C:\Users\SOLDER~1\AppData\Local\Temp\ccheWc1y.s:26320  .debug_str:000000000001407d .LASF5486
C:\Users\SOLDER~1\AppData\Local\Temp\ccheWc1y.s:24176  .debug_str:000000000000b4e7 .LASF5487
C:\Users\SOLDER~1\AppData\Local\Temp\ccheWc1y.s:28054  .debug_str:000000000001b042 .LASF5488
C:\Users\SOLDER~1\AppData\Local\Temp\ccheWc1y.s:24270  .debug_str:000000000000baee .LASF5489
C:\Users\SOLDER~1\AppData\Local\Temp\ccheWc1y.s:27142  .debug_str:000000000001754c .LASF5490
C:\Users\SOLDER~1\AppData\Local\Temp\ccheWc1y.s:31888  .debug_str:000000000002a90b .LASF5491
C:\Users\SOLDER~1\AppData\Local\Temp\ccheWc1y.s:25016  .debug_str:000000000000ec1f .LASF5492
C:\Users\SOLDER~1\AppData\Local\Temp\ccheWc1y.s:28276  .debug_str:000000000001be33 .LASF5493
C:\Users\SOLDER~1\AppData\Local\Temp\ccheWc1y.s:24762  .debug_str:000000000000dbb0 .LASF5494
C:\Users\SOLDER~1\AppData\Local\Temp\ccheWc1y.s:31020  .debug_str:0000000000027065 .LASF5495
C:\Users\SOLDER~1\AppData\Local\Temp\ccheWc1y.s:30362  .debug_str:00000000000244eb .LASF5496
C:\Users\SOLDER~1\AppData\Local\Temp\ccheWc1y.s:32300  .debug_str:000000000002c30d .LASF5497
C:\Users\SOLDER~1\AppData\Local\Temp\ccheWc1y.s:24650  .debug_str:000000000000d440 .LASF5498
C:\Users\SOLDER~1\AppData\Local\Temp\ccheWc1y.s:30306  .debug_str:000000000002412d .LASF5499
C:\Users\SOLDER~1\AppData\Local\Temp\ccheWc1y.s:27480  .debug_str:0000000000018bcc .LASF5500
C:\Users\SOLDER~1\AppData\Local\Temp\ccheWc1y.s:33040  .debug_str:000000000002f2ee .LASF5501
C:\Users\SOLDER~1\AppData\Local\Temp\ccheWc1y.s:28080  .debug_str:000000000001b24f .LASF5502
C:\Users\SOLDER~1\AppData\Local\Temp\ccheWc1y.s:25450  .debug_str:0000000000010831 .LASF5503
C:\Users\SOLDER~1\AppData\Local\Temp\ccheWc1y.s:22702  .debug_str:00000000000053ef .LASF5504
C:\Users\SOLDER~1\AppData\Local\Temp\ccheWc1y.s:24034  .debug_str:000000000000abbc .LASF5505
C:\Users\SOLDER~1\AppData\Local\Temp\ccheWc1y.s:26450  .debug_str:0000000000014968 .LASF5506
C:\Users\SOLDER~1\AppData\Local\Temp\ccheWc1y.s:24688  .debug_str:000000000000d6c3 .LASF5507
C:\Users\SOLDER~1\AppData\Local\Temp\ccheWc1y.s:24582  .debug_str:000000000000cfd5 .LASF5508
C:\Users\SOLDER~1\AppData\Local\Temp\ccheWc1y.s:29450  .debug_str:0000000000020a68 .LASF5509
C:\Users\SOLDER~1\AppData\Local\Temp\ccheWc1y.s:26530  .debug_str:0000000000014ea5 .LASF5510
C:\Users\SOLDER~1\AppData\Local\Temp\ccheWc1y.s:25768  .debug_str:0000000000011c57 .LASF5511
C:\Users\SOLDER~1\AppData\Local\Temp\ccheWc1y.s:29690  .debug_str:00000000000219ca .LASF5512
C:\Users\SOLDER~1\AppData\Local\Temp\ccheWc1y.s:29614  .debug_str:00000000000214cf .LASF5513
C:\Users\SOLDER~1\AppData\Local\Temp\ccheWc1y.s:23142  .debug_str:0000000000007117 .LASF5514
C:\Users\SOLDER~1\AppData\Local\Temp\ccheWc1y.s:25436  .debug_str:0000000000010722 .LASF5515
C:\Users\SOLDER~1\AppData\Local\Temp\ccheWc1y.s:31326  .debug_str:000000000002847c .LASF5516
C:\Users\SOLDER~1\AppData\Local\Temp\ccheWc1y.s:31886  .debug_str:000000000002a8e9 .LASF5517
C:\Users\SOLDER~1\AppData\Local\Temp\ccheWc1y.s:28356  .debug_str:000000000001c37a .LASF5518
C:\Users\SOLDER~1\AppData\Local\Temp\ccheWc1y.s:24726  .debug_str:000000000000d94f .LASF5519
C:\Users\SOLDER~1\AppData\Local\Temp\ccheWc1y.s:32336  .debug_str:000000000002c591 .LASF5520
C:\Users\SOLDER~1\AppData\Local\Temp\ccheWc1y.s:30178  .debug_str:00000000000238cd .LASF5521
C:\Users\SOLDER~1\AppData\Local\Temp\ccheWc1y.s:21770  .debug_str:000000000000189d .LASF5522
C:\Users\SOLDER~1\AppData\Local\Temp\ccheWc1y.s:29896  .debug_str:00000000000226b4 .LASF5523
C:\Users\SOLDER~1\AppData\Local\Temp\ccheWc1y.s:25934  .debug_str:00000000000126e9 .LASF5524
C:\Users\SOLDER~1\AppData\Local\Temp\ccheWc1y.s:31512  .debug_str:000000000002909a .LASF5525
C:\Users\SOLDER~1\AppData\Local\Temp\ccheWc1y.s:21896  .debug_str:00000000000020d0 .LASF5526
C:\Users\SOLDER~1\AppData\Local\Temp\ccheWc1y.s:21626  .debug_str:0000000000000f7d .LASF5527
C:\Users\SOLDER~1\AppData\Local\Temp\ccheWc1y.s:29316  .debug_str:000000000002022c .LASF5528
C:\Users\SOLDER~1\AppData\Local\Temp\ccheWc1y.s:32602  .debug_str:000000000002d723 .LASF5529
C:\Users\SOLDER~1\AppData\Local\Temp\ccheWc1y.s:29072  .debug_str:000000000001f1f9 .LASF5530
C:\Users\SOLDER~1\AppData\Local\Temp\ccheWc1y.s:30444  .debug_str:0000000000024a49 .LASF5531
C:\Users\SOLDER~1\AppData\Local\Temp\ccheWc1y.s:23158  .debug_str:0000000000007230 .LASF5532
C:\Users\SOLDER~1\AppData\Local\Temp\ccheWc1y.s:28406  .debug_str:000000000001c6d0 .LASF5533
C:\Users\SOLDER~1\AppData\Local\Temp\ccheWc1y.s:26084  .debug_str:0000000000013046 .LASF5534
C:\Users\SOLDER~1\AppData\Local\Temp\ccheWc1y.s:33010  .debug_str:000000000002f12c .LASF5535
GAS LISTING C:\Users\SOLDER~1\AppData\Local\Temp\ccheWc1y.s 			page 163


C:\Users\SOLDER~1\AppData\Local\Temp\ccheWc1y.s:24766  .debug_str:000000000000dbf5 .LASF5536
C:\Users\SOLDER~1\AppData\Local\Temp\ccheWc1y.s:29974  .debug_str:0000000000022b8c .LASF5537
C:\Users\SOLDER~1\AppData\Local\Temp\ccheWc1y.s:24696  .debug_str:000000000000d73b .LASF5538
C:\Users\SOLDER~1\AppData\Local\Temp\ccheWc1y.s:30976  .debug_str:0000000000026d68 .LASF5539
C:\Users\SOLDER~1\AppData\Local\Temp\ccheWc1y.s:24708  .debug_str:000000000000d81a .LASF5540
C:\Users\SOLDER~1\AppData\Local\Temp\ccheWc1y.s:31806  .debug_str:000000000002a382 .LASF5541
C:\Users\SOLDER~1\AppData\Local\Temp\ccheWc1y.s:32188  .debug_str:000000000002bbeb .LASF5542
C:\Users\SOLDER~1\AppData\Local\Temp\ccheWc1y.s:30000  .debug_str:0000000000022d3a .LASF5543
C:\Users\SOLDER~1\AppData\Local\Temp\ccheWc1y.s:31230  .debug_str:0000000000027e2e .LASF5544
C:\Users\SOLDER~1\AppData\Local\Temp\ccheWc1y.s:25280  .debug_str:000000000000fcec .LASF5545
C:\Users\SOLDER~1\AppData\Local\Temp\ccheWc1y.s:32774  .debug_str:000000000002e1fc .LASF5546
C:\Users\SOLDER~1\AppData\Local\Temp\ccheWc1y.s:27468  .debug_str:0000000000018ad5 .LASF5547
C:\Users\SOLDER~1\AppData\Local\Temp\ccheWc1y.s:28652  .debug_str:000000000001d704 .LASF5548
C:\Users\SOLDER~1\AppData\Local\Temp\ccheWc1y.s:26314  .debug_str:0000000000013ffd .LASF5549
C:\Users\SOLDER~1\AppData\Local\Temp\ccheWc1y.s:23896  .debug_str:000000000000a25e .LASF5550
C:\Users\SOLDER~1\AppData\Local\Temp\ccheWc1y.s:28672  .debug_str:000000000001d86d .LASF5551
C:\Users\SOLDER~1\AppData\Local\Temp\ccheWc1y.s:24028  .debug_str:000000000000ab47 .LASF5552
C:\Users\SOLDER~1\AppData\Local\Temp\ccheWc1y.s:30846  .debug_str:0000000000026491 .LASF5553
C:\Users\SOLDER~1\AppData\Local\Temp\ccheWc1y.s:22120  .debug_str:0000000000002f37 .LASF5554
C:\Users\SOLDER~1\AppData\Local\Temp\ccheWc1y.s:22564  .debug_str:0000000000004b6d .LASF5555
C:\Users\SOLDER~1\AppData\Local\Temp\ccheWc1y.s:24144  .debug_str:000000000000b2f4 .LASF5556
C:\Users\SOLDER~1\AppData\Local\Temp\ccheWc1y.s:27678  .debug_str:00000000000198a1 .LASF5557
C:\Users\SOLDER~1\AppData\Local\Temp\ccheWc1y.s:24720  .debug_str:000000000000d8f4 .LASF5558
C:\Users\SOLDER~1\AppData\Local\Temp\ccheWc1y.s:22466  .debug_str:000000000000454f .LASF5559
C:\Users\SOLDER~1\AppData\Local\Temp\ccheWc1y.s:31400  .debug_str:0000000000028935 .LASF5560
C:\Users\SOLDER~1\AppData\Local\Temp\ccheWc1y.s:24174  .debug_str:000000000000b4c8 .LASF5561
C:\Users\SOLDER~1\AppData\Local\Temp\ccheWc1y.s:28786  .debug_str:000000000001df5a .LASF5562
C:\Users\SOLDER~1\AppData\Local\Temp\ccheWc1y.s:26704  .debug_str:0000000000015a17 .LASF5563
C:\Users\SOLDER~1\AppData\Local\Temp\ccheWc1y.s:29182  .debug_str:000000000001f960 .LASF5564
C:\Users\SOLDER~1\AppData\Local\Temp\ccheWc1y.s:32974  .debug_str:000000000002eea9 .LASF5565
C:\Users\SOLDER~1\AppData\Local\Temp\ccheWc1y.s:32036  .debug_str:000000000002b242 .LASF5566
C:\Users\SOLDER~1\AppData\Local\Temp\ccheWc1y.s:32312  .debug_str:000000000002c3e0 .LASF5567
C:\Users\SOLDER~1\AppData\Local\Temp\ccheWc1y.s:27728  .debug_str:0000000000019c51 .LASF5568
C:\Users\SOLDER~1\AppData\Local\Temp\ccheWc1y.s:23090  .debug_str:0000000000006d6c .LASF5569
C:\Users\SOLDER~1\AppData\Local\Temp\ccheWc1y.s:21644  .debug_str:0000000000001088 .LASF5570
C:\Users\SOLDER~1\AppData\Local\Temp\ccheWc1y.s:30056  .debug_str:0000000000023133 .LASF5571
C:\Users\SOLDER~1\AppData\Local\Temp\ccheWc1y.s:21548  .debug_str:0000000000000a32 .LASF5572
C:\Users\SOLDER~1\AppData\Local\Temp\ccheWc1y.s:26342  .debug_str:00000000000141f1 .LASF5573
C:\Users\SOLDER~1\AppData\Local\Temp\ccheWc1y.s:25708  .debug_str:000000000001188a .LASF5574
C:\Users\SOLDER~1\AppData\Local\Temp\ccheWc1y.s:30516  .debug_str:0000000000024ef5 .LASF5575
C:\Users\SOLDER~1\AppData\Local\Temp\ccheWc1y.s:21664  .debug_str:00000000000011cb .LASF5576
C:\Users\SOLDER~1\AppData\Local\Temp\ccheWc1y.s:27170  .debug_str:0000000000017760 .LASF5577
C:\Users\SOLDER~1\AppData\Local\Temp\ccheWc1y.s:28368  .debug_str:000000000001c449 .LASF5578
C:\Users\SOLDER~1\AppData\Local\Temp\ccheWc1y.s:23248  .debug_str:00000000000077cb .LASF5579
C:\Users\SOLDER~1\AppData\Local\Temp\ccheWc1y.s:23788  .debug_str:0000000000009b6e .LASF5580
C:\Users\SOLDER~1\AppData\Local\Temp\ccheWc1y.s:26060  .debug_str:0000000000012ea4 .LASF5581
C:\Users\SOLDER~1\AppData\Local\Temp\ccheWc1y.s:27872  .debug_str:000000000001a49b .LASF5582
C:\Users\SOLDER~1\AppData\Local\Temp\ccheWc1y.s:27724  .debug_str:0000000000019bff .LASF5583
C:\Users\SOLDER~1\AppData\Local\Temp\ccheWc1y.s:27986  .debug_str:000000000001abe4 .LASF5584
C:\Users\SOLDER~1\AppData\Local\Temp\ccheWc1y.s:29198  .debug_str:000000000001fa7f .LASF5585
C:\Users\SOLDER~1\AppData\Local\Temp\ccheWc1y.s:25954  .debug_str:000000000001281a .LASF5586
C:\Users\SOLDER~1\AppData\Local\Temp\ccheWc1y.s:32084  .debug_str:000000000002b52c .LASF5587
C:\Users\SOLDER~1\AppData\Local\Temp\ccheWc1y.s:25930  .debug_str:000000000001269b .LASF5588
C:\Users\SOLDER~1\AppData\Local\Temp\ccheWc1y.s:29672  .debug_str:00000000000218cb .LASF5589
C:\Users\SOLDER~1\AppData\Local\Temp\ccheWc1y.s:25346  .debug_str:00000000000101aa .LASF5590
C:\Users\SOLDER~1\AppData\Local\Temp\ccheWc1y.s:24030  .debug_str:000000000000ab79 .LASF5591
C:\Users\SOLDER~1\AppData\Local\Temp\ccheWc1y.s:27576  .debug_str:00000000000191ed .LASF5592
GAS LISTING C:\Users\SOLDER~1\AppData\Local\Temp\ccheWc1y.s 			page 164


C:\Users\SOLDER~1\AppData\Local\Temp\ccheWc1y.s:22866  .debug_str:0000000000005e74 .LASF5593
C:\Users\SOLDER~1\AppData\Local\Temp\ccheWc1y.s:23278  .debug_str:0000000000007976 .LASF5594
C:\Users\SOLDER~1\AppData\Local\Temp\ccheWc1y.s:23942  .debug_str:000000000000a575 .LASF5595
C:\Users\SOLDER~1\AppData\Local\Temp\ccheWc1y.s:30128  .debug_str:00000000000235a6 .LASF5596
C:\Users\SOLDER~1\AppData\Local\Temp\ccheWc1y.s:28776  .debug_str:000000000001deaa .LASF5597
C:\Users\SOLDER~1\AppData\Local\Temp\ccheWc1y.s:21512  .debug_str:0000000000000794 .LASF5598
C:\Users\SOLDER~1\AppData\Local\Temp\ccheWc1y.s:25572  .debug_str:0000000000011001 .LASF5599
C:\Users\SOLDER~1\AppData\Local\Temp\ccheWc1y.s:32626  .debug_str:000000000002d8b6 .LASF5600
C:\Users\SOLDER~1\AppData\Local\Temp\ccheWc1y.s:22618  .debug_str:0000000000004ee9 .LASF5601
C:\Users\SOLDER~1\AppData\Local\Temp\ccheWc1y.s:30340  .debug_str:000000000002436d .LASF5602
C:\Users\SOLDER~1\AppData\Local\Temp\ccheWc1y.s:31286  .debug_str:00000000000281a1 .LASF5603
C:\Users\SOLDER~1\AppData\Local\Temp\ccheWc1y.s:29854  .debug_str:000000000002240f .LASF5604
C:\Users\SOLDER~1\AppData\Local\Temp\ccheWc1y.s:29804  .debug_str:00000000000220e4 .LASF5605
C:\Users\SOLDER~1\AppData\Local\Temp\ccheWc1y.s:29406  .debug_str:000000000002078c .LASF5606
C:\Users\SOLDER~1\AppData\Local\Temp\ccheWc1y.s:21844  .debug_str:0000000000001d91 .LASF5607
C:\Users\SOLDER~1\AppData\Local\Temp\ccheWc1y.s:31566  .debug_str:00000000000293dc .LASF5608
C:\Users\SOLDER~1\AppData\Local\Temp\ccheWc1y.s:28648  .debug_str:000000000001d6c2 .LASF5609
C:\Users\SOLDER~1\AppData\Local\Temp\ccheWc1y.s:32572  .debug_str:000000000002d4df .LASF5610
C:\Users\SOLDER~1\AppData\Local\Temp\ccheWc1y.s:23096  .debug_str:0000000000006db9 .LASF5611
C:\Users\SOLDER~1\AppData\Local\Temp\ccheWc1y.s:24428  .debug_str:000000000000c513 .LASF5612
C:\Users\SOLDER~1\AppData\Local\Temp\ccheWc1y.s:31802  .debug_str:000000000002a335 .LASF5613
C:\Users\SOLDER~1\AppData\Local\Temp\ccheWc1y.s:27580  .debug_str:0000000000019228 .LASF5614
C:\Users\SOLDER~1\AppData\Local\Temp\ccheWc1y.s:30458  .debug_str:0000000000024b27 .LASF5615
C:\Users\SOLDER~1\AppData\Local\Temp\ccheWc1y.s:28828  .debug_str:000000000001e20c .LASF5616
C:\Users\SOLDER~1\AppData\Local\Temp\ccheWc1y.s:27112  .debug_str:0000000000017349 .LASF5617
C:\Users\SOLDER~1\AppData\Local\Temp\ccheWc1y.s:22748  .debug_str:0000000000005693 .LASF5618
C:\Users\SOLDER~1\AppData\Local\Temp\ccheWc1y.s:26974  .debug_str:0000000000016af5 .LASF5619
C:\Users\SOLDER~1\AppData\Local\Temp\ccheWc1y.s:30970  .debug_str:0000000000026cff .LASF5620
C:\Users\SOLDER~1\AppData\Local\Temp\ccheWc1y.s:25738  .debug_str:0000000000011ab3 .LASF5621
C:\Users\SOLDER~1\AppData\Local\Temp\ccheWc1y.s:28128  .debug_str:000000000001b55e .LASF5622
C:\Users\SOLDER~1\AppData\Local\Temp\ccheWc1y.s:21504  .debug_str:0000000000000719 .LASF5623
C:\Users\SOLDER~1\AppData\Local\Temp\ccheWc1y.s:24064  .debug_str:000000000000adc8 .LASF5624
C:\Users\SOLDER~1\AppData\Local\Temp\ccheWc1y.s:28892  .debug_str:000000000001e649 .LASF5625
C:\Users\SOLDER~1\AppData\Local\Temp\ccheWc1y.s:26038  .debug_str:0000000000012d40 .LASF5626
C:\Users\SOLDER~1\AppData\Local\Temp\ccheWc1y.s:22768  .debug_str:00000000000057ce .LASF5627
C:\Users\SOLDER~1\AppData\Local\Temp\ccheWc1y.s:24464  .debug_str:000000000000c7ac .LASF5628
C:\Users\SOLDER~1\AppData\Local\Temp\ccheWc1y.s:29616  .debug_str:00000000000214ed .LASF5629
C:\Users\SOLDER~1\AppData\Local\Temp\ccheWc1y.s:27204  .debug_str:00000000000179aa .LASF5630
C:\Users\SOLDER~1\AppData\Local\Temp\ccheWc1y.s:31480  .debug_str:0000000000028e82 .LASF5631
C:\Users\SOLDER~1\AppData\Local\Temp\ccheWc1y.s:27210  .debug_str:0000000000017a18 .LASF5632
C:\Users\SOLDER~1\AppData\Local\Temp\ccheWc1y.s:32806  .debug_str:000000000002e428 .LASF5633
C:\Users\SOLDER~1\AppData\Local\Temp\ccheWc1y.s:26980  .debug_str:0000000000016b39 .LASF5634
C:\Users\SOLDER~1\AppData\Local\Temp\ccheWc1y.s:28588  .debug_str:000000000001d2bd .LASF5635
C:\Users\SOLDER~1\AppData\Local\Temp\ccheWc1y.s:30204  .debug_str:0000000000023ac6 .LASF5636
C:\Users\SOLDER~1\AppData\Local\Temp\ccheWc1y.s:25608  .debug_str:0000000000011230 .LASF5637
C:\Users\SOLDER~1\AppData\Local\Temp\ccheWc1y.s:27476  .debug_str:0000000000018b7a .LASF5638
C:\Users\SOLDER~1\AppData\Local\Temp\ccheWc1y.s:23504  .debug_str:0000000000008870 .LASF5639
C:\Users\SOLDER~1\AppData\Local\Temp\ccheWc1y.s:26276  .debug_str:0000000000013d0b .LASF5640
C:\Users\SOLDER~1\AppData\Local\Temp\ccheWc1y.s:24560  .debug_str:000000000000ce5b .LASF5641
C:\Users\SOLDER~1\AppData\Local\Temp\ccheWc1y.s:32104  .debug_str:000000000002b6af .LASF5642
C:\Users\SOLDER~1\AppData\Local\Temp\ccheWc1y.s:23982  .debug_str:000000000000a821 .LASF5643
C:\Users\SOLDER~1\AppData\Local\Temp\ccheWc1y.s:29640  .debug_str:0000000000021684 .LASF5644
C:\Users\SOLDER~1\AppData\Local\Temp\ccheWc1y.s:26104  .debug_str:00000000000131bb .LASF5645
C:\Users\SOLDER~1\AppData\Local\Temp\ccheWc1y.s:30472  .debug_str:0000000000024c23 .LASF5646
C:\Users\SOLDER~1\AppData\Local\Temp\ccheWc1y.s:21668  .debug_str:000000000000121d .LASF5647
C:\Users\SOLDER~1\AppData\Local\Temp\ccheWc1y.s:30366  .debug_str:0000000000024538 .LASF5648
C:\Users\SOLDER~1\AppData\Local\Temp\ccheWc1y.s:25982  .debug_str:00000000000129b8 .LASF5649
GAS LISTING C:\Users\SOLDER~1\AppData\Local\Temp\ccheWc1y.s 			page 165


C:\Users\SOLDER~1\AppData\Local\Temp\ccheWc1y.s:23592  .debug_str:0000000000008e26 .LASF5650
C:\Users\SOLDER~1\AppData\Local\Temp\ccheWc1y.s:22806  .debug_str:0000000000005a8a .LASF5651
C:\Users\SOLDER~1\AppData\Local\Temp\ccheWc1y.s:32396  .debug_str:000000000002c9ae .LASF5652
C:\Users\SOLDER~1\AppData\Local\Temp\ccheWc1y.s:24390  .debug_str:000000000000c26f .LASF5653
C:\Users\SOLDER~1\AppData\Local\Temp\ccheWc1y.s:24592  .debug_str:000000000000d07b .LASF5654
C:\Users\SOLDER~1\AppData\Local\Temp\ccheWc1y.s:28746  .debug_str:000000000001dcf9 .LASF5655
C:\Users\SOLDER~1\AppData\Local\Temp\ccheWc1y.s:28142  .debug_str:000000000001b600 .LASF5656
C:\Users\SOLDER~1\AppData\Local\Temp\ccheWc1y.s:27616  .debug_str:00000000000194b5 .LASF5657
C:\Users\SOLDER~1\AppData\Local\Temp\ccheWc1y.s:30016  .debug_str:0000000000022e53 .LASF5658
C:\Users\SOLDER~1\AppData\Local\Temp\ccheWc1y.s:33012  .debug_str:000000000002f150 .LASF5659
C:\Users\SOLDER~1\AppData\Local\Temp\ccheWc1y.s:32364  .debug_str:000000000002c7a7 .LASF5660
C:\Users\SOLDER~1\AppData\Local\Temp\ccheWc1y.s:31656  .debug_str:000000000002999d .LASF5661
C:\Users\SOLDER~1\AppData\Local\Temp\ccheWc1y.s:23108  .debug_str:0000000000006e92 .LASF5662
C:\Users\SOLDER~1\AppData\Local\Temp\ccheWc1y.s:26586  .debug_str:0000000000015274 .LASF5663
C:\Users\SOLDER~1\AppData\Local\Temp\ccheWc1y.s:23104  .debug_str:0000000000006e55 .LASF5664
C:\Users\SOLDER~1\AppData\Local\Temp\ccheWc1y.s:30150  .debug_str:0000000000023719 .LASF5665
C:\Users\SOLDER~1\AppData\Local\Temp\ccheWc1y.s:32182  .debug_str:000000000002bb8c .LASF5666
C:\Users\SOLDER~1\AppData\Local\Temp\ccheWc1y.s:22206  .debug_str:00000000000034d9 .LASF5667
C:\Users\SOLDER~1\AppData\Local\Temp\ccheWc1y.s:32166  .debug_str:000000000002ba8c .LASF5668
C:\Users\SOLDER~1\AppData\Local\Temp\ccheWc1y.s:28954  .debug_str:000000000001ea18 .LASF5669
C:\Users\SOLDER~1\AppData\Local\Temp\ccheWc1y.s:25456  .debug_str:00000000000108a7 .LASF5670
C:\Users\SOLDER~1\AppData\Local\Temp\ccheWc1y.s:27584  .debug_str:0000000000019275 .LASF5671
C:\Users\SOLDER~1\AppData\Local\Temp\ccheWc1y.s:25184  .debug_str:000000000000f67b .LASF5672
C:\Users\SOLDER~1\AppData\Local\Temp\ccheWc1y.s:21990  .debug_str:00000000000026f3 .LASF5673
C:\Users\SOLDER~1\AppData\Local\Temp\ccheWc1y.s:22208  .debug_str:00000000000034fa .LASF5674
C:\Users\SOLDER~1\AppData\Local\Temp\ccheWc1y.s:25600  .debug_str:00000000000111af .LASF5675
C:\Users\SOLDER~1\AppData\Local\Temp\ccheWc1y.s:23684  .debug_str:0000000000009471 .LASF5676
C:\Users\SOLDER~1\AppData\Local\Temp\ccheWc1y.s:22772  .debug_str:000000000000581c .LASF5677
C:\Users\SOLDER~1\AppData\Local\Temp\ccheWc1y.s:30822  .debug_str:0000000000026300 .LASF5678
C:\Users\SOLDER~1\AppData\Local\Temp\ccheWc1y.s:24608  .debug_str:000000000000d188 .LASF5679
C:\Users\SOLDER~1\AppData\Local\Temp\ccheWc1y.s:23152  .debug_str:00000000000071c2 .LASF5680
C:\Users\SOLDER~1\AppData\Local\Temp\ccheWc1y.s:33096  .debug_str:000000000002f649 .LASF5681
C:\Users\SOLDER~1\AppData\Local\Temp\ccheWc1y.s:23488  .debug_str:000000000000876c .LASF5682
C:\Users\SOLDER~1\AppData\Local\Temp\ccheWc1y.s:23166  .debug_str:00000000000072b0 .LASF5683
C:\Users\SOLDER~1\AppData\Local\Temp\ccheWc1y.s:26888  .debug_str:0000000000016597 .LASF5684
C:\Users\SOLDER~1\AppData\Local\Temp\ccheWc1y.s:32914  .debug_str:000000000002eab4 .LASF5685
C:\Users\SOLDER~1\AppData\Local\Temp\ccheWc1y.s:32522  .debug_str:000000000002d19b .LASF5686
C:\Users\SOLDER~1\AppData\Local\Temp\ccheWc1y.s:26708  .debug_str:0000000000015a55 .LASF5687
C:\Users\SOLDER~1\AppData\Local\Temp\ccheWc1y.s:32700  .debug_str:000000000002dd56 .LASF5688
C:\Users\SOLDER~1\AppData\Local\Temp\ccheWc1y.s:29142  .debug_str:000000000001f6a5 .LASF5689
C:\Users\SOLDER~1\AppData\Local\Temp\ccheWc1y.s:27042  .debug_str:0000000000016f1d .LASF5690
C:\Users\SOLDER~1\AppData\Local\Temp\ccheWc1y.s:30324  .debug_str:000000000002425f .LASF5691
C:\Users\SOLDER~1\AppData\Local\Temp\ccheWc1y.s:29836  .debug_str:0000000000022308 .LASF5692
C:\Users\SOLDER~1\AppData\Local\Temp\ccheWc1y.s:32702  .debug_str:000000000002dd76 .LASF5693
C:\Users\SOLDER~1\AppData\Local\Temp\ccheWc1y.s:28166  .debug_str:000000000001b78e .LASF5694
C:\Users\SOLDER~1\AppData\Local\Temp\ccheWc1y.s:30902  .debug_str:000000000002687f .LASF5695
C:\Users\SOLDER~1\AppData\Local\Temp\ccheWc1y.s:28628  .debug_str:000000000001d542 .LASF5696
C:\Users\SOLDER~1\AppData\Local\Temp\ccheWc1y.s:32324  .debug_str:000000000002c4b2 .LASF5697
C:\Users\SOLDER~1\AppData\Local\Temp\ccheWc1y.s:30674  .debug_str:0000000000025930 .LASF5698
C:\Users\SOLDER~1\AppData\Local\Temp\ccheWc1y.s:28070  .debug_str:000000000001b174 .LASF5699
C:\Users\SOLDER~1\AppData\Local\Temp\ccheWc1y.s:28062  .debug_str:000000000001b0e6 .LASF5700
C:\Users\SOLDER~1\AppData\Local\Temp\ccheWc1y.s:28414  .debug_str:000000000001c746 .LASF5701
C:\Users\SOLDER~1\AppData\Local\Temp\ccheWc1y.s:26572  .debug_str:0000000000015185 .LASF5702
C:\Users\SOLDER~1\AppData\Local\Temp\ccheWc1y.s:26008  .debug_str:0000000000012b96 .LASF5703
C:\Users\SOLDER~1\AppData\Local\Temp\ccheWc1y.s:28068  .debug_str:000000000001b152 .LASF5704
C:\Users\SOLDER~1\AppData\Local\Temp\ccheWc1y.s:32916  .debug_str:000000000002ead7 .LASF5705
C:\Users\SOLDER~1\AppData\Local\Temp\ccheWc1y.s:32828  .debug_str:000000000002e59e .LASF5706
GAS LISTING C:\Users\SOLDER~1\AppData\Local\Temp\ccheWc1y.s 			page 166


C:\Users\SOLDER~1\AppData\Local\Temp\ccheWc1y.s:25422  .debug_str:0000000000010659 .LASF5707
C:\Users\SOLDER~1\AppData\Local\Temp\ccheWc1y.s:32170  .debug_str:000000000002bac1 .LASF5708
C:\Users\SOLDER~1\AppData\Local\Temp\ccheWc1y.s:28832  .debug_str:000000000001e25d .LASF5709
C:\Users\SOLDER~1\AppData\Local\Temp\ccheWc1y.s:25832  .debug_str:000000000001206e .LASF5710
C:\Users\SOLDER~1\AppData\Local\Temp\ccheWc1y.s:23330  .debug_str:0000000000007d02 .LASF5711
                           .group:0000000000000000 wm4.0.cc27e0d2094b492664a2491ca1ae43b0
                           .group:0000000000000000 wm4.ch32v20x.h.13.a030255a3e90e7179ae3b08da8e2408d
                           .group:0000000000000000 wm4._newlib_version.h.4.529115dae5e4f67702b1de0b6e841f38
                           .group:0000000000000000 wm4.features.h.33.3e67abe6fb64142d4f6fa9496796153c
                           .group:0000000000000000 wm4._default_types.h.15.247e5cd201eca3442cbf5404108c4935
                           .group:0000000000000000 wm4._intsup.h.10.48bafbb683905c4daa4565a85aeeb264
                           .group:0000000000000000 wm4._stdint.h.10.c24fa3af3bc1706662bb5593a907e841
                           .group:0000000000000000 wm4.stdint.h.23.d53047a68f4a85177f80b422d52785ed
                           .group:0000000000000000 wm4.core_riscv.h.11.151d7acb41e203dcc664023294f59bdc
                           .group:0000000000000000 wm4.ch32v20x.h.153.1d8393f26361703471ea96fe9aa4b4f9
                           .group:0000000000000000 wm4.ch32v20x_adc.h.56.f131972e7ce35efbe3b5c47a075d6d1b
                           .group:0000000000000000 wm4.ch32v20x_bkp.h.14.0a7965eb5be5000a494c3059b6f0eca5
                           .group:0000000000000000 wm4.ch32v20x_can.h.14.aa1dae2c28cbaf083875b4b61810c3c7
                           .group:0000000000000000 wm4.ch32v20x_dbgmcu.h.14.26ef95879978d9caaa154b373f3a512b
                           .group:0000000000000000 wm4.ch32v20x_dma.h.14.425a907348dd0134bf6e82c73bbd3df8
                           .group:0000000000000000 wm4.ch32v20x_exti.h.14.f67190d3fb91aa9aecce0f4d5a543221
                           .group:0000000000000000 wm4.ch32v20x_flash.h.14.91c5ecdad44f358d5032244aabf7ef4e
                           .group:0000000000000000 wm4.ch32v20x_gpio.h.14.bdb7f79cce0dffbc24dc81ea80f90bd2
                           .group:0000000000000000 wm4.ch32v20x_i2c.h.14.101eb625c9d2afac400f4e8ac2e9fb1d
                           .group:0000000000000000 wm4.ch32v20x_iwdg.h.14.26025d04ceeb3151185969ed5850fbb4
                           .group:0000000000000000 wm4.ch32v20x_pwr.h.14.8eaa3508938f71b27f140895c21602e6
                           .group:0000000000000000 wm4.ch32v20x_rcc.h.13.18c6b8696a30372de01acaf3c246ecb8
                           .group:0000000000000000 wm4.ch32v20x_rtc.h.14.eb8734f5dd75abcf831b4f12ec49aebe
                           .group:0000000000000000 wm4.ch32v20x_spi.h.14.f12b1f237c615e7304ae62cc2e2c3c1a
                           .group:0000000000000000 wm4.ch32v20x_tim.h.14.35d11fab62898d9d661122ade86d8a6c
                           .group:0000000000000000 wm4.ch32v20x_wwdg.h.14.49bada437175894a4dce7e12e4216bc9
                           .group:0000000000000000 wm4.ch32v20x_misc.h.14.f3992cf724c30ec0bea268444ffdb6e0
                           .group:0000000000000000 wm4.ch32v20x_usart.h.69.087c2f46b20e1ae7de9d5670f83b7bae

UNDEFINED SYMBOLS
RCC_APB2PeriphResetCmd
RCC_APB1PeriphResetCmd
RCC_GetClocksFreq
