GAS LISTING C:\Users\SOLDER~1\AppData\Local\Temp\ccI3TRm9.s 			page 1


   1              		.file	"ch32v20x_adc.c"
   2              		.option nopic
   3              		.attribute arch, "rv32i2p0_m2p0_a2p0_c2p0_xw"
   4              		.attribute unaligned_access, 0
   5              		.attribute stack_align, 16
   6              		.text
   7              	.Ltext0:
   8              		.cfi_sections	.debug_frame
   9              		.file 0 "C:\\Users\\Solderingiron\\Documents\\GitHub\\VSC-make-example\\VSC_CH32V203C8T6" "Drivers
  10              		.section	.text.ADC_DeInit,"ax",@progbits
  11              		.align	1
  12              		.globl	ADC_DeInit
  14              	ADC_DeInit:
  15              	.LFB16:
  16              		.file 1 "Drivers/src/ch32v20x_adc.c"
   1:Drivers/src/ch32v20x_adc.c **** /********************************** (C) COPYRIGHT  *******************************
   2:Drivers/src/ch32v20x_adc.c ****  * File Name          : ch32v20x_adc.c
   3:Drivers/src/ch32v20x_adc.c ****  * Author             : WCH
   4:Drivers/src/ch32v20x_adc.c ****  * Version            : V1.0.0
   5:Drivers/src/ch32v20x_adc.c ****  * Date               : 2021/06/06
   6:Drivers/src/ch32v20x_adc.c ****  * Description        : This file provides all the ADC firmware functions.
   7:Drivers/src/ch32v20x_adc.c **** *********************************************************************************
   8:Drivers/src/ch32v20x_adc.c **** * Copyright (c) 2021 Nanjing Qinheng Microelectronics Co., Ltd.
   9:Drivers/src/ch32v20x_adc.c **** * Attention: This software (modified or not) and binary are used for 
  10:Drivers/src/ch32v20x_adc.c **** * microcontroller manufactured by Nanjing Qinheng Microelectronics.
  11:Drivers/src/ch32v20x_adc.c **** *******************************************************************************/
  12:Drivers/src/ch32v20x_adc.c **** #include "ch32v20x_adc.h"
  13:Drivers/src/ch32v20x_adc.c **** #include "ch32v20x_rcc.h"
  14:Drivers/src/ch32v20x_adc.c **** 
  15:Drivers/src/ch32v20x_adc.c **** /* ADC DISCNUM mask */
  16:Drivers/src/ch32v20x_adc.c **** #define CTLR1_DISCNUM_Reset              ((uint32_t)0xFFFF1FFF)
  17:Drivers/src/ch32v20x_adc.c **** 
  18:Drivers/src/ch32v20x_adc.c **** /* ADC DISCEN mask */
  19:Drivers/src/ch32v20x_adc.c **** #define CTLR1_DISCEN_Set                 ((uint32_t)0x00000800)
  20:Drivers/src/ch32v20x_adc.c **** #define CTLR1_DISCEN_Reset               ((uint32_t)0xFFFFF7FF)
  21:Drivers/src/ch32v20x_adc.c **** 
  22:Drivers/src/ch32v20x_adc.c **** /* ADC JAUTO mask */
  23:Drivers/src/ch32v20x_adc.c **** #define CTLR1_JAUTO_Set                  ((uint32_t)0x00000400)
  24:Drivers/src/ch32v20x_adc.c **** #define CTLR1_JAUTO_Reset                ((uint32_t)0xFFFFFBFF)
  25:Drivers/src/ch32v20x_adc.c **** 
  26:Drivers/src/ch32v20x_adc.c **** /* ADC JDISCEN mask */
  27:Drivers/src/ch32v20x_adc.c **** #define CTLR1_JDISCEN_Set                ((uint32_t)0x00001000)
  28:Drivers/src/ch32v20x_adc.c **** #define CTLR1_JDISCEN_Reset              ((uint32_t)0xFFFFEFFF)
  29:Drivers/src/ch32v20x_adc.c **** 
  30:Drivers/src/ch32v20x_adc.c **** /* ADC AWDCH mask */
  31:Drivers/src/ch32v20x_adc.c **** #define CTLR1_AWDCH_Reset                ((uint32_t)0xFFFFFFE0)
  32:Drivers/src/ch32v20x_adc.c **** 
  33:Drivers/src/ch32v20x_adc.c **** /* ADC Analog watchdog enable mode mask */
  34:Drivers/src/ch32v20x_adc.c **** #define CTLR1_AWDMode_Reset              ((uint32_t)0xFF3FFDFF)
  35:Drivers/src/ch32v20x_adc.c **** 
  36:Drivers/src/ch32v20x_adc.c **** /* CTLR1 register Mask */
  37:Drivers/src/ch32v20x_adc.c **** #define CTLR1_CLEAR_Mask                 ((uint32_t)0xE0F0FEFF)
  38:Drivers/src/ch32v20x_adc.c **** 
  39:Drivers/src/ch32v20x_adc.c **** /* ADC ADON mask */
  40:Drivers/src/ch32v20x_adc.c **** #define CTLR2_ADON_Set                   ((uint32_t)0x00000001)
  41:Drivers/src/ch32v20x_adc.c **** #define CTLR2_ADON_Reset                 ((uint32_t)0xFFFFFFFE)
  42:Drivers/src/ch32v20x_adc.c **** 
GAS LISTING C:\Users\SOLDER~1\AppData\Local\Temp\ccI3TRm9.s 			page 2


  43:Drivers/src/ch32v20x_adc.c **** /* ADC DMA mask */
  44:Drivers/src/ch32v20x_adc.c **** #define CTLR2_DMA_Set                    ((uint32_t)0x00000100)
  45:Drivers/src/ch32v20x_adc.c **** #define CTLR2_DMA_Reset                  ((uint32_t)0xFFFFFEFF)
  46:Drivers/src/ch32v20x_adc.c **** 
  47:Drivers/src/ch32v20x_adc.c **** /* ADC RSTCAL mask */
  48:Drivers/src/ch32v20x_adc.c **** #define CTLR2_RSTCAL_Set                 ((uint32_t)0x00000008)
  49:Drivers/src/ch32v20x_adc.c **** 
  50:Drivers/src/ch32v20x_adc.c **** /* ADC CAL mask */
  51:Drivers/src/ch32v20x_adc.c **** #define CTLR2_CAL_Set                    ((uint32_t)0x00000004)
  52:Drivers/src/ch32v20x_adc.c **** 
  53:Drivers/src/ch32v20x_adc.c **** /* ADC SWSTART mask */
  54:Drivers/src/ch32v20x_adc.c **** #define CTLR2_SWSTART_Set                ((uint32_t)0x00400000)
  55:Drivers/src/ch32v20x_adc.c **** 
  56:Drivers/src/ch32v20x_adc.c **** /* ADC EXTTRIG mask */
  57:Drivers/src/ch32v20x_adc.c **** #define CTLR2_EXTTRIG_Set                ((uint32_t)0x00100000)
  58:Drivers/src/ch32v20x_adc.c **** #define CTLR2_EXTTRIG_Reset              ((uint32_t)0xFFEFFFFF)
  59:Drivers/src/ch32v20x_adc.c **** 
  60:Drivers/src/ch32v20x_adc.c **** /* ADC Software start mask */
  61:Drivers/src/ch32v20x_adc.c **** #define CTLR2_EXTTRIG_SWSTART_Set        ((uint32_t)0x00500000)
  62:Drivers/src/ch32v20x_adc.c **** #define CTLR2_EXTTRIG_SWSTART_Reset      ((uint32_t)0xFFAFFFFF)
  63:Drivers/src/ch32v20x_adc.c **** 
  64:Drivers/src/ch32v20x_adc.c **** /* ADC JEXTSEL mask */
  65:Drivers/src/ch32v20x_adc.c **** #define CTLR2_JEXTSEL_Reset              ((uint32_t)0xFFFF8FFF)
  66:Drivers/src/ch32v20x_adc.c **** 
  67:Drivers/src/ch32v20x_adc.c **** /* ADC JEXTTRIG mask */
  68:Drivers/src/ch32v20x_adc.c **** #define CTLR2_JEXTTRIG_Set               ((uint32_t)0x00008000)
  69:Drivers/src/ch32v20x_adc.c **** #define CTLR2_JEXTTRIG_Reset             ((uint32_t)0xFFFF7FFF)
  70:Drivers/src/ch32v20x_adc.c **** 
  71:Drivers/src/ch32v20x_adc.c **** /* ADC JSWSTART mask */
  72:Drivers/src/ch32v20x_adc.c **** #define CTLR2_JSWSTART_Set               ((uint32_t)0x00200000)
  73:Drivers/src/ch32v20x_adc.c **** 
  74:Drivers/src/ch32v20x_adc.c **** /* ADC injected software start mask */
  75:Drivers/src/ch32v20x_adc.c **** #define CTLR2_JEXTTRIG_JSWSTART_Set      ((uint32_t)0x00208000)
  76:Drivers/src/ch32v20x_adc.c **** #define CTLR2_JEXTTRIG_JSWSTART_Reset    ((uint32_t)0xFFDF7FFF)
  77:Drivers/src/ch32v20x_adc.c **** 
  78:Drivers/src/ch32v20x_adc.c **** /* ADC TSPD mask */
  79:Drivers/src/ch32v20x_adc.c **** #define CTLR2_TSVREFE_Set                ((uint32_t)0x00800000)
  80:Drivers/src/ch32v20x_adc.c **** #define CTLR2_TSVREFE_Reset              ((uint32_t)0xFF7FFFFF)
  81:Drivers/src/ch32v20x_adc.c **** 
  82:Drivers/src/ch32v20x_adc.c **** /* CTLR2 register Mask */
  83:Drivers/src/ch32v20x_adc.c **** #define CTLR2_CLEAR_Mask                 ((uint32_t)0xFFF1F7FD)
  84:Drivers/src/ch32v20x_adc.c **** 
  85:Drivers/src/ch32v20x_adc.c **** /* ADC SQx mask */
  86:Drivers/src/ch32v20x_adc.c **** #define RSQR3_SQ_Set                     ((uint32_t)0x0000001F)
  87:Drivers/src/ch32v20x_adc.c **** #define RSQR2_SQ_Set                     ((uint32_t)0x0000001F)
  88:Drivers/src/ch32v20x_adc.c **** #define RSQR1_SQ_Set                     ((uint32_t)0x0000001F)
  89:Drivers/src/ch32v20x_adc.c **** 
  90:Drivers/src/ch32v20x_adc.c **** /* RSQR1 register Mask */
  91:Drivers/src/ch32v20x_adc.c **** #define RSQR1_CLEAR_Mask                 ((uint32_t)0xFF0FFFFF)
  92:Drivers/src/ch32v20x_adc.c **** 
  93:Drivers/src/ch32v20x_adc.c **** /* ADC JSQx mask */
  94:Drivers/src/ch32v20x_adc.c **** #define ISQR_JSQ_Set                     ((uint32_t)0x0000001F)
  95:Drivers/src/ch32v20x_adc.c **** 
  96:Drivers/src/ch32v20x_adc.c **** /* ADC JL mask */
  97:Drivers/src/ch32v20x_adc.c **** #define ISQR_JL_Set                      ((uint32_t)0x00300000)
  98:Drivers/src/ch32v20x_adc.c **** #define ISQR_JL_Reset                    ((uint32_t)0xFFCFFFFF)
  99:Drivers/src/ch32v20x_adc.c **** 
GAS LISTING C:\Users\SOLDER~1\AppData\Local\Temp\ccI3TRm9.s 			page 3


 100:Drivers/src/ch32v20x_adc.c **** /* ADC SMPx mask */
 101:Drivers/src/ch32v20x_adc.c **** #define SAMPTR1_SMP_Set                  ((uint32_t)0x00000007)
 102:Drivers/src/ch32v20x_adc.c **** #define SAMPTR2_SMP_Set                  ((uint32_t)0x00000007)
 103:Drivers/src/ch32v20x_adc.c **** 
 104:Drivers/src/ch32v20x_adc.c **** /* ADC IDATARx registers offset */
 105:Drivers/src/ch32v20x_adc.c **** #define IDATAR_Offset                    ((uint8_t)0x28)
 106:Drivers/src/ch32v20x_adc.c **** 
 107:Drivers/src/ch32v20x_adc.c **** /* ADC1 RDATAR register base address */
 108:Drivers/src/ch32v20x_adc.c **** #define RDATAR_ADDRESS                   ((uint32_t)0x4001244C)
 109:Drivers/src/ch32v20x_adc.c **** 
 110:Drivers/src/ch32v20x_adc.c **** /*********************************************************************
 111:Drivers/src/ch32v20x_adc.c ****  * @fn      ADC_DeInit
 112:Drivers/src/ch32v20x_adc.c ****  *
 113:Drivers/src/ch32v20x_adc.c ****  * @brief   Deinitializes the ADCx peripheral registers to their default
 114:Drivers/src/ch32v20x_adc.c ****  *        reset values.
 115:Drivers/src/ch32v20x_adc.c ****  *
 116:Drivers/src/ch32v20x_adc.c ****  * @param   ADCx - where x can be 1 or 2 to select the ADC peripheral.
 117:Drivers/src/ch32v20x_adc.c ****  *
 118:Drivers/src/ch32v20x_adc.c ****  * @return  none
 119:Drivers/src/ch32v20x_adc.c ****  */
 120:Drivers/src/ch32v20x_adc.c **** void ADC_DeInit(ADC_TypeDef *ADCx)
 121:Drivers/src/ch32v20x_adc.c **** {
  17              		.loc 1 121 1
  18              		.cfi_startproc
  19 0000 0111     		addi	sp,sp,-32
  20              		.cfi_def_cfa_offset 32
  21 0002 06CE     		sw	ra,28(sp)
  22 0004 22CC     		sw	s0,24(sp)
  23              		.cfi_offset 1, -4
  24              		.cfi_offset 8, -8
  25 0006 0010     		addi	s0,sp,32
  26              		.cfi_def_cfa 8, 0
  27 0008 2326A4FE 		sw	a0,-20(s0)
 122:Drivers/src/ch32v20x_adc.c ****     if(ADCx == ADC1)
  28              		.loc 1 122 7
  29 000c 0327C4FE 		lw	a4,-20(s0)
  30 0010 B7270140 		li	a5,1073815552
  31 0014 93870740 		addi	a5,a5,1024
  32 0018 6311F702 		bne	a4,a5,.L2
 123:Drivers/src/ch32v20x_adc.c ****     {
 124:Drivers/src/ch32v20x_adc.c ****         RCC_APB2PeriphResetCmd(RCC_APB2Periph_ADC1, ENABLE);
  33              		.loc 1 124 9
  34 001c 8545     		li	a1,1
  35 001e 13050020 		li	a0,512
  36 0022 97000000 		call	RCC_APB2PeriphResetCmd
  36      E7800000 
 125:Drivers/src/ch32v20x_adc.c ****         RCC_APB2PeriphResetCmd(RCC_APB2Periph_ADC1, DISABLE);
  37              		.loc 1 125 9
  38 002a 8145     		li	a1,0
  39 002c 13050020 		li	a0,512
  40 0030 97000000 		call	RCC_APB2PeriphResetCmd
  40      E7800000 
 126:Drivers/src/ch32v20x_adc.c ****     }
 127:Drivers/src/ch32v20x_adc.c ****     else if(ADCx == ADC2)
 128:Drivers/src/ch32v20x_adc.c ****     {
 129:Drivers/src/ch32v20x_adc.c ****         RCC_APB2PeriphResetCmd(RCC_APB2Periph_ADC2, ENABLE);
 130:Drivers/src/ch32v20x_adc.c ****         RCC_APB2PeriphResetCmd(RCC_APB2Periph_ADC2, DISABLE);
GAS LISTING C:\Users\SOLDER~1\AppData\Local\Temp\ccI3TRm9.s 			page 4


 131:Drivers/src/ch32v20x_adc.c ****     }
 132:Drivers/src/ch32v20x_adc.c **** }
  41              		.loc 1 132 1
  42 0038 3DA0     		j	.L4
  43              	.L2:
 127:Drivers/src/ch32v20x_adc.c ****     {
  44              		.loc 1 127 12
  45 003a 0327C4FE 		lw	a4,-20(s0)
  46 003e B7370140 		li	a5,1073819648
  47 0042 93870780 		addi	a5,a5,-2048
  48 0046 6310F702 		bne	a4,a5,.L4
 129:Drivers/src/ch32v20x_adc.c ****         RCC_APB2PeriphResetCmd(RCC_APB2Periph_ADC2, DISABLE);
  49              		.loc 1 129 9
  50 004a 8545     		li	a1,1
  51 004c 13050040 		li	a0,1024
  52 0050 97000000 		call	RCC_APB2PeriphResetCmd
  52      E7800000 
 130:Drivers/src/ch32v20x_adc.c ****     }
  53              		.loc 1 130 9
  54 0058 8145     		li	a1,0
  55 005a 13050040 		li	a0,1024
  56 005e 97000000 		call	RCC_APB2PeriphResetCmd
  56      E7800000 
  57              	.L4:
  58              		.loc 1 132 1
  59 0066 0100     		nop
  60 0068 F240     		lw	ra,28(sp)
  61              		.cfi_restore 1
  62 006a 6244     		lw	s0,24(sp)
  63              		.cfi_restore 8
  64              		.cfi_def_cfa 2, 32
  65 006c 0561     		addi	sp,sp,32
  66              		.cfi_def_cfa_offset 0
  67 006e 8280     		jr	ra
  68              		.cfi_endproc
  69              	.LFE16:
  71              		.section	.text.ADC_Init,"ax",@progbits
  72              		.align	1
  73              		.globl	ADC_Init
  75              	ADC_Init:
  76              	.LFB17:
 133:Drivers/src/ch32v20x_adc.c **** 
 134:Drivers/src/ch32v20x_adc.c **** /*********************************************************************
 135:Drivers/src/ch32v20x_adc.c ****  * @fn      ADC_Init
 136:Drivers/src/ch32v20x_adc.c ****  *
 137:Drivers/src/ch32v20x_adc.c ****  * @brief   Initializes the ADCx peripheral according to the specified
 138:Drivers/src/ch32v20x_adc.c ****  *        parameters in the ADC_InitStruct.
 139:Drivers/src/ch32v20x_adc.c ****  *
 140:Drivers/src/ch32v20x_adc.c ****  * @param   ADCx - where x can be 1 or 2 to select the ADC peripheral.
 141:Drivers/src/ch32v20x_adc.c ****  *          ADC_InitStruct - pointer to an ADC_InitTypeDef structure that
 142:Drivers/src/ch32v20x_adc.c ****  *        contains the configuration information for the specified ADC
 143:Drivers/src/ch32v20x_adc.c ****  *        peripheral.
 144:Drivers/src/ch32v20x_adc.c ****  *
 145:Drivers/src/ch32v20x_adc.c ****  * @return  none
 146:Drivers/src/ch32v20x_adc.c ****  */
 147:Drivers/src/ch32v20x_adc.c **** void ADC_Init(ADC_TypeDef *ADCx, ADC_InitTypeDef *ADC_InitStruct)
 148:Drivers/src/ch32v20x_adc.c **** {
GAS LISTING C:\Users\SOLDER~1\AppData\Local\Temp\ccI3TRm9.s 			page 5


  77              		.loc 1 148 1
  78              		.cfi_startproc
  79 0000 7971     		addi	sp,sp,-48
  80              		.cfi_def_cfa_offset 48
  81 0002 22D6     		sw	s0,44(sp)
  82              		.cfi_offset 8, -4
  83 0004 0018     		addi	s0,sp,48
  84              		.cfi_def_cfa 8, 0
  85 0006 232EA4FC 		sw	a0,-36(s0)
  86 000a 232CB4FC 		sw	a1,-40(s0)
 149:Drivers/src/ch32v20x_adc.c ****     uint32_t tmpreg1 = 0;
  87              		.loc 1 149 14
  88 000e 232604FE 		sw	zero,-20(s0)
 150:Drivers/src/ch32v20x_adc.c ****     uint8_t  tmpreg2 = 0;
  89              		.loc 1 150 14
  90 0012 A30504FE 		sb	zero,-21(s0)
 151:Drivers/src/ch32v20x_adc.c **** 
 152:Drivers/src/ch32v20x_adc.c ****     tmpreg1 = ADCx->CTLR1;
  91              		.loc 1 152 13
  92 0016 8327C4FD 		lw	a5,-36(s0)
  93 001a DC43     		lw	a5,4(a5)
  94 001c 2326F4FE 		sw	a5,-20(s0)
 153:Drivers/src/ch32v20x_adc.c ****     tmpreg1 &= CTLR1_CLEAR_Mask;
  95              		.loc 1 153 13
  96 0020 0327C4FE 		lw	a4,-20(s0)
  97 0024 B707F1E0 		li	a5,-521076736
  98 0028 9387F7EF 		addi	a5,a5,-257
  99 002c F98F     		and	a5,a4,a5
 100 002e 2326F4FE 		sw	a5,-20(s0)
 154:Drivers/src/ch32v20x_adc.c ****     tmpreg1 |= (uint32_t)(ADC_InitStruct->ADC_Mode | (uint32_t)ADC_InitStruct->ADC_OutputBuffer |
 101              		.loc 1 154 41
 102 0032 832784FD 		lw	a5,-40(s0)
 103 0036 9843     		lw	a4,0(a5)
 104              		.loc 1 154 78
 105 0038 832784FD 		lw	a5,-40(s0)
 106 003c 9C4F     		lw	a5,24(a5)
 107              		.loc 1 154 52
 108 003e 5D8F     		or	a4,a4,a5
 155:Drivers/src/ch32v20x_adc.c ****                           (uint32_t)ADC_InitStruct->ADC_Pga | ((uint32_t)ADC_InitStruct->ADC_ScanCo
 109              		.loc 1 155 51
 110 0040 832784FD 		lw	a5,-40(s0)
 111 0044 DC4F     		lw	a5,28(a5)
 154:Drivers/src/ch32v20x_adc.c ****     tmpreg1 |= (uint32_t)(ADC_InitStruct->ADC_Mode | (uint32_t)ADC_InitStruct->ADC_OutputBuffer |
 112              		.loc 1 154 97
 113 0046 5D8F     		or	a4,a4,a5
 114              		.loc 1 155 88
 115 0048 832784FD 		lw	a5,-40(s0)
 116 004c DC43     		lw	a5,4(a5)
 117              		.loc 1 155 107
 118 004e A207     		slli	a5,a5,8
 154:Drivers/src/ch32v20x_adc.c ****     tmpreg1 |= (uint32_t)(ADC_InitStruct->ADC_Mode | (uint32_t)ADC_InitStruct->ADC_OutputBuffer |
 119              		.loc 1 154 16
 120 0050 D98F     		or	a5,a4,a5
 154:Drivers/src/ch32v20x_adc.c ****     tmpreg1 |= (uint32_t)(ADC_InitStruct->ADC_Mode | (uint32_t)ADC_InitStruct->ADC_OutputBuffer |
 121              		.loc 1 154 13
 122 0052 0327C4FE 		lw	a4,-20(s0)
 123 0056 D98F     		or	a5,a4,a5
GAS LISTING C:\Users\SOLDER~1\AppData\Local\Temp\ccI3TRm9.s 			page 6


 124 0058 2326F4FE 		sw	a5,-20(s0)
 156:Drivers/src/ch32v20x_adc.c ****     ADCx->CTLR1 = tmpreg1;
 125              		.loc 1 156 17
 126 005c 8327C4FD 		lw	a5,-36(s0)
 127 0060 0327C4FE 		lw	a4,-20(s0)
 128 0064 D8C3     		sw	a4,4(a5)
 157:Drivers/src/ch32v20x_adc.c **** 
 158:Drivers/src/ch32v20x_adc.c ****     tmpreg1 = ADCx->CTLR2;
 129              		.loc 1 158 13
 130 0066 8327C4FD 		lw	a5,-36(s0)
 131 006a 9C47     		lw	a5,8(a5)
 132 006c 2326F4FE 		sw	a5,-20(s0)
 159:Drivers/src/ch32v20x_adc.c ****     tmpreg1 &= CTLR2_CLEAR_Mask;
 133              		.loc 1 159 13
 134 0070 0327C4FE 		lw	a4,-20(s0)
 135 0074 B7F7F1FF 		li	a5,-921600
 136 0078 9387D77F 		addi	a5,a5,2045
 137 007c F98F     		and	a5,a4,a5
 138 007e 2326F4FE 		sw	a5,-20(s0)
 160:Drivers/src/ch32v20x_adc.c ****     tmpreg1 |= (uint32_t)(ADC_InitStruct->ADC_DataAlign | ADC_InitStruct->ADC_ExternalTrigConv |
 139              		.loc 1 160 41
 140 0082 832784FD 		lw	a5,-40(s0)
 141 0086 984B     		lw	a4,16(a5)
 142              		.loc 1 160 73
 143 0088 832784FD 		lw	a5,-40(s0)
 144 008c DC47     		lw	a5,12(a5)
 145              		.loc 1 160 57
 146 008e 5D8F     		or	a4,a4,a5
 161:Drivers/src/ch32v20x_adc.c ****                           ((uint32_t)ADC_InitStruct->ADC_ContinuousConvMode << 1));
 147              		.loc 1 161 52
 148 0090 832784FD 		lw	a5,-40(s0)
 149 0094 9C47     		lw	a5,8(a5)
 150              		.loc 1 161 77
 151 0096 8607     		slli	a5,a5,1
 160:Drivers/src/ch32v20x_adc.c ****     tmpreg1 |= (uint32_t)(ADC_InitStruct->ADC_DataAlign | ADC_InitStruct->ADC_ExternalTrigConv |
 152              		.loc 1 160 16
 153 0098 D98F     		or	a5,a4,a5
 160:Drivers/src/ch32v20x_adc.c ****     tmpreg1 |= (uint32_t)(ADC_InitStruct->ADC_DataAlign | ADC_InitStruct->ADC_ExternalTrigConv |
 154              		.loc 1 160 13
 155 009a 0327C4FE 		lw	a4,-20(s0)
 156 009e D98F     		or	a5,a4,a5
 157 00a0 2326F4FE 		sw	a5,-20(s0)
 162:Drivers/src/ch32v20x_adc.c ****     ADCx->CTLR2 = tmpreg1;
 158              		.loc 1 162 17
 159 00a4 8327C4FD 		lw	a5,-36(s0)
 160 00a8 0327C4FE 		lw	a4,-20(s0)
 161 00ac 98C7     		sw	a4,8(a5)
 163:Drivers/src/ch32v20x_adc.c **** 
 164:Drivers/src/ch32v20x_adc.c ****     tmpreg1 = ADCx->RSQR1;
 162              		.loc 1 164 13
 163 00ae 8327C4FD 		lw	a5,-36(s0)
 164 00b2 DC57     		lw	a5,44(a5)
 165 00b4 2326F4FE 		sw	a5,-20(s0)
 165:Drivers/src/ch32v20x_adc.c ****     tmpreg1 &= RSQR1_CLEAR_Mask;
 166              		.loc 1 165 13
 167 00b8 0327C4FE 		lw	a4,-20(s0)
 168 00bc B70710FF 		li	a5,-15728640
GAS LISTING C:\Users\SOLDER~1\AppData\Local\Temp\ccI3TRm9.s 			page 7


 169 00c0 FD17     		addi	a5,a5,-1
 170 00c2 F98F     		and	a5,a4,a5
 171 00c4 2326F4FE 		sw	a5,-20(s0)
 166:Drivers/src/ch32v20x_adc.c ****     tmpreg2 |= (uint8_t)(ADC_InitStruct->ADC_NbrOfChannel - (uint8_t)1);
 172              		.loc 1 166 40
 173 00c8 832784FD 		lw	a5,-40(s0)
 174 00cc DC2B     		lbu	a5,20(a5)
 175              		.loc 1 166 16
 176 00ce FD17     		addi	a5,a5,-1
 177 00d0 93F7F70F 		andi	a5,a5,0xff
 178              		.loc 1 166 13
 179 00d4 0347B4FE 		lbu	a4,-21(s0)
 180 00d8 D98F     		or	a5,a5,a4
 181 00da A305F4FE 		sb	a5,-21(s0)
 167:Drivers/src/ch32v20x_adc.c ****     tmpreg1 |= (uint32_t)tmpreg2 << 20;
 182              		.loc 1 167 16
 183 00de 8347B4FE 		lbu	a5,-21(s0)
 184              		.loc 1 167 34
 185 00e2 D207     		slli	a5,a5,20
 186              		.loc 1 167 13
 187 00e4 0327C4FE 		lw	a4,-20(s0)
 188 00e8 D98F     		or	a5,a4,a5
 189 00ea 2326F4FE 		sw	a5,-20(s0)
 168:Drivers/src/ch32v20x_adc.c ****     ADCx->RSQR1 = tmpreg1;
 190              		.loc 1 168 17
 191 00ee 8327C4FD 		lw	a5,-36(s0)
 192 00f2 0327C4FE 		lw	a4,-20(s0)
 193 00f6 D8D7     		sw	a4,44(a5)
 169:Drivers/src/ch32v20x_adc.c **** }
 194              		.loc 1 169 1
 195 00f8 0100     		nop
 196 00fa 3254     		lw	s0,44(sp)
 197              		.cfi_restore 8
 198              		.cfi_def_cfa 2, 48
 199 00fc 4561     		addi	sp,sp,48
 200              		.cfi_def_cfa_offset 0
 201 00fe 8280     		jr	ra
 202              		.cfi_endproc
 203              	.LFE17:
 205              		.section	.text.ADC_StructInit,"ax",@progbits
 206              		.align	1
 207              		.globl	ADC_StructInit
 209              	ADC_StructInit:
 210              	.LFB18:
 170:Drivers/src/ch32v20x_adc.c **** 
 171:Drivers/src/ch32v20x_adc.c **** /*********************************************************************
 172:Drivers/src/ch32v20x_adc.c ****  * @fn      ADC_StructInit
 173:Drivers/src/ch32v20x_adc.c ****  *
 174:Drivers/src/ch32v20x_adc.c ****  * @brief   Fills each ADC_InitStruct member with its default value.
 175:Drivers/src/ch32v20x_adc.c ****  *
 176:Drivers/src/ch32v20x_adc.c ****  * @param   ADC_InitStruct - pointer to an ADC_InitTypeDef structure that
 177:Drivers/src/ch32v20x_adc.c ****  *        contains the configuration information for the specified ADC
 178:Drivers/src/ch32v20x_adc.c ****  *        peripheral.
 179:Drivers/src/ch32v20x_adc.c ****  *
 180:Drivers/src/ch32v20x_adc.c ****  * @return  none
 181:Drivers/src/ch32v20x_adc.c ****  */
 182:Drivers/src/ch32v20x_adc.c **** void ADC_StructInit(ADC_InitTypeDef *ADC_InitStruct)
GAS LISTING C:\Users\SOLDER~1\AppData\Local\Temp\ccI3TRm9.s 			page 8


 183:Drivers/src/ch32v20x_adc.c **** {
 211              		.loc 1 183 1
 212              		.cfi_startproc
 213 0000 0111     		addi	sp,sp,-32
 214              		.cfi_def_cfa_offset 32
 215 0002 22CE     		sw	s0,28(sp)
 216              		.cfi_offset 8, -4
 217 0004 0010     		addi	s0,sp,32
 218              		.cfi_def_cfa 8, 0
 219 0006 2326A4FE 		sw	a0,-20(s0)
 184:Drivers/src/ch32v20x_adc.c ****     ADC_InitStruct->ADC_Mode = ADC_Mode_Independent;
 220              		.loc 1 184 30
 221 000a 8327C4FE 		lw	a5,-20(s0)
 222 000e 23A00700 		sw	zero,0(a5)
 185:Drivers/src/ch32v20x_adc.c ****     ADC_InitStruct->ADC_ScanConvMode = DISABLE;
 223              		.loc 1 185 38
 224 0012 8327C4FE 		lw	a5,-20(s0)
 225 0016 23A20700 		sw	zero,4(a5)
 186:Drivers/src/ch32v20x_adc.c ****     ADC_InitStruct->ADC_ContinuousConvMode = DISABLE;
 226              		.loc 1 186 44
 227 001a 8327C4FE 		lw	a5,-20(s0)
 228 001e 23A40700 		sw	zero,8(a5)
 187:Drivers/src/ch32v20x_adc.c ****     ADC_InitStruct->ADC_ExternalTrigConv = ADC_ExternalTrigConv_T1_CC1;
 229              		.loc 1 187 42
 230 0022 8327C4FE 		lw	a5,-20(s0)
 231 0026 23A60700 		sw	zero,12(a5)
 188:Drivers/src/ch32v20x_adc.c ****     ADC_InitStruct->ADC_DataAlign = ADC_DataAlign_Right;
 232              		.loc 1 188 35
 233 002a 8327C4FE 		lw	a5,-20(s0)
 234 002e 23A80700 		sw	zero,16(a5)
 189:Drivers/src/ch32v20x_adc.c ****     ADC_InitStruct->ADC_NbrOfChannel = 1;
 235              		.loc 1 189 38
 236 0032 8327C4FE 		lw	a5,-20(s0)
 237 0036 0547     		li	a4,1
 238 0038 D8AB     		sb	a4,20(a5)
 190:Drivers/src/ch32v20x_adc.c **** }
 239              		.loc 1 190 1
 240 003a 0100     		nop
 241 003c 7244     		lw	s0,28(sp)
 242              		.cfi_restore 8
 243              		.cfi_def_cfa 2, 32
 244 003e 0561     		addi	sp,sp,32
 245              		.cfi_def_cfa_offset 0
 246 0040 8280     		jr	ra
 247              		.cfi_endproc
 248              	.LFE18:
 250              		.section	.text.ADC_Cmd,"ax",@progbits
 251              		.align	1
 252              		.globl	ADC_Cmd
 254              	ADC_Cmd:
 255              	.LFB19:
 191:Drivers/src/ch32v20x_adc.c **** 
 192:Drivers/src/ch32v20x_adc.c **** /*********************************************************************
 193:Drivers/src/ch32v20x_adc.c ****  * @fn      ADC_Cmd
 194:Drivers/src/ch32v20x_adc.c ****  *
 195:Drivers/src/ch32v20x_adc.c ****  * @brief   Enables or disables the specified ADC peripheral.
 196:Drivers/src/ch32v20x_adc.c ****  *
GAS LISTING C:\Users\SOLDER~1\AppData\Local\Temp\ccI3TRm9.s 			page 9


 197:Drivers/src/ch32v20x_adc.c ****  * @param   ADCx - where x can be 1 or 2 to select the ADC peripheral.
 198:Drivers/src/ch32v20x_adc.c ****  *          NewState - ENABLE or DISABLE.
 199:Drivers/src/ch32v20x_adc.c ****  *
 200:Drivers/src/ch32v20x_adc.c ****  * @return  none
 201:Drivers/src/ch32v20x_adc.c ****  */
 202:Drivers/src/ch32v20x_adc.c **** void ADC_Cmd(ADC_TypeDef *ADCx, FunctionalState NewState)
 203:Drivers/src/ch32v20x_adc.c **** {
 256              		.loc 1 203 1
 257              		.cfi_startproc
 258 0000 0111     		addi	sp,sp,-32
 259              		.cfi_def_cfa_offset 32
 260 0002 22CE     		sw	s0,28(sp)
 261              		.cfi_offset 8, -4
 262 0004 0010     		addi	s0,sp,32
 263              		.cfi_def_cfa 8, 0
 264 0006 2326A4FE 		sw	a0,-20(s0)
 265 000a 2324B4FE 		sw	a1,-24(s0)
 204:Drivers/src/ch32v20x_adc.c ****     if(NewState != DISABLE)
 266              		.loc 1 204 7
 267 000e 832784FE 		lw	a5,-24(s0)
 268 0012 91CB     		beq	a5,zero,.L8
 205:Drivers/src/ch32v20x_adc.c ****     {
 206:Drivers/src/ch32v20x_adc.c ****         ADCx->CTLR2 |= CTLR2_ADON_Set;
 269              		.loc 1 206 13
 270 0014 8327C4FE 		lw	a5,-20(s0)
 271 0018 9C47     		lw	a5,8(a5)
 272              		.loc 1 206 21
 273 001a 13E71700 		ori	a4,a5,1
 274 001e 8327C4FE 		lw	a5,-20(s0)
 275 0022 98C7     		sw	a4,8(a5)
 207:Drivers/src/ch32v20x_adc.c ****     }
 208:Drivers/src/ch32v20x_adc.c ****     else
 209:Drivers/src/ch32v20x_adc.c ****     {
 210:Drivers/src/ch32v20x_adc.c ****         ADCx->CTLR2 &= CTLR2_ADON_Reset;
 211:Drivers/src/ch32v20x_adc.c ****     }
 212:Drivers/src/ch32v20x_adc.c **** }
 276              		.loc 1 212 1
 277 0024 09A8     		j	.L10
 278              	.L8:
 210:Drivers/src/ch32v20x_adc.c ****     }
 279              		.loc 1 210 13
 280 0026 8327C4FE 		lw	a5,-20(s0)
 281 002a 9C47     		lw	a5,8(a5)
 210:Drivers/src/ch32v20x_adc.c ****     }
 282              		.loc 1 210 21
 283 002c 13F7E7FF 		andi	a4,a5,-2
 284 0030 8327C4FE 		lw	a5,-20(s0)
 285 0034 98C7     		sw	a4,8(a5)
 286              	.L10:
 287              		.loc 1 212 1
 288 0036 0100     		nop
 289 0038 7244     		lw	s0,28(sp)
 290              		.cfi_restore 8
 291              		.cfi_def_cfa 2, 32
 292 003a 0561     		addi	sp,sp,32
 293              		.cfi_def_cfa_offset 0
 294 003c 8280     		jr	ra
GAS LISTING C:\Users\SOLDER~1\AppData\Local\Temp\ccI3TRm9.s 			page 10


 295              		.cfi_endproc
 296              	.LFE19:
 298              		.section	.text.ADC_DMACmd,"ax",@progbits
 299              		.align	1
 300              		.globl	ADC_DMACmd
 302              	ADC_DMACmd:
 303              	.LFB20:
 213:Drivers/src/ch32v20x_adc.c **** 
 214:Drivers/src/ch32v20x_adc.c **** /*********************************************************************
 215:Drivers/src/ch32v20x_adc.c ****  * @fn      ADC_DMACmd
 216:Drivers/src/ch32v20x_adc.c ****  *
 217:Drivers/src/ch32v20x_adc.c ****  * @brief   Enables or disables the specified ADC DMA request.
 218:Drivers/src/ch32v20x_adc.c ****  *
 219:Drivers/src/ch32v20x_adc.c ****  * @param   ADCx - where x can be 1 or 2 to select the ADC peripheral.
 220:Drivers/src/ch32v20x_adc.c ****  *          NewState - ENABLE or DISABLE.
 221:Drivers/src/ch32v20x_adc.c ****  *
 222:Drivers/src/ch32v20x_adc.c ****  * @return  none
 223:Drivers/src/ch32v20x_adc.c ****  */
 224:Drivers/src/ch32v20x_adc.c **** void ADC_DMACmd(ADC_TypeDef *ADCx, FunctionalState NewState)
 225:Drivers/src/ch32v20x_adc.c **** {
 304              		.loc 1 225 1
 305              		.cfi_startproc
 306 0000 0111     		addi	sp,sp,-32
 307              		.cfi_def_cfa_offset 32
 308 0002 22CE     		sw	s0,28(sp)
 309              		.cfi_offset 8, -4
 310 0004 0010     		addi	s0,sp,32
 311              		.cfi_def_cfa 8, 0
 312 0006 2326A4FE 		sw	a0,-20(s0)
 313 000a 2324B4FE 		sw	a1,-24(s0)
 226:Drivers/src/ch32v20x_adc.c ****     if(NewState != DISABLE)
 314              		.loc 1 226 7
 315 000e 832784FE 		lw	a5,-24(s0)
 316 0012 91CB     		beq	a5,zero,.L12
 227:Drivers/src/ch32v20x_adc.c ****     {
 228:Drivers/src/ch32v20x_adc.c ****         ADCx->CTLR2 |= CTLR2_DMA_Set;
 317              		.loc 1 228 13
 318 0014 8327C4FE 		lw	a5,-20(s0)
 319 0018 9C47     		lw	a5,8(a5)
 320              		.loc 1 228 21
 321 001a 13E70710 		ori	a4,a5,256
 322 001e 8327C4FE 		lw	a5,-20(s0)
 323 0022 98C7     		sw	a4,8(a5)
 229:Drivers/src/ch32v20x_adc.c ****     }
 230:Drivers/src/ch32v20x_adc.c ****     else
 231:Drivers/src/ch32v20x_adc.c ****     {
 232:Drivers/src/ch32v20x_adc.c ****         ADCx->CTLR2 &= CTLR2_DMA_Reset;
 233:Drivers/src/ch32v20x_adc.c ****     }
 234:Drivers/src/ch32v20x_adc.c **** }
 324              		.loc 1 234 1
 325 0024 09A8     		j	.L14
 326              	.L12:
 232:Drivers/src/ch32v20x_adc.c ****     }
 327              		.loc 1 232 13
 328 0026 8327C4FE 		lw	a5,-20(s0)
 329 002a 9C47     		lw	a5,8(a5)
 232:Drivers/src/ch32v20x_adc.c ****     }
GAS LISTING C:\Users\SOLDER~1\AppData\Local\Temp\ccI3TRm9.s 			page 11


 330              		.loc 1 232 21
 331 002c 13F7F7EF 		andi	a4,a5,-257
 332 0030 8327C4FE 		lw	a5,-20(s0)
 333 0034 98C7     		sw	a4,8(a5)
 334              	.L14:
 335              		.loc 1 234 1
 336 0036 0100     		nop
 337 0038 7244     		lw	s0,28(sp)
 338              		.cfi_restore 8
 339              		.cfi_def_cfa 2, 32
 340 003a 0561     		addi	sp,sp,32
 341              		.cfi_def_cfa_offset 0
 342 003c 8280     		jr	ra
 343              		.cfi_endproc
 344              	.LFE20:
 346              		.section	.text.ADC_ITConfig,"ax",@progbits
 347              		.align	1
 348              		.globl	ADC_ITConfig
 350              	ADC_ITConfig:
 351              	.LFB21:
 235:Drivers/src/ch32v20x_adc.c **** 
 236:Drivers/src/ch32v20x_adc.c **** /*********************************************************************
 237:Drivers/src/ch32v20x_adc.c ****  * @fn      ADC_ITConfig
 238:Drivers/src/ch32v20x_adc.c ****  *
 239:Drivers/src/ch32v20x_adc.c ****  * @brief   Enables or disables the specified ADC interrupts.
 240:Drivers/src/ch32v20x_adc.c ****  *
 241:Drivers/src/ch32v20x_adc.c ****  * @param   ADCx - where x can be 1 or 2 to select the ADC peripheral.
 242:Drivers/src/ch32v20x_adc.c ****  *          ADC_IT - specifies the ADC interrupt sources to be enabled or disabled.
 243:Drivers/src/ch32v20x_adc.c ****  *            ADC_IT_EOC - End of conversion interrupt mask.
 244:Drivers/src/ch32v20x_adc.c ****  *            ADC_IT_AWD - Analog watchdog interrupt mask.
 245:Drivers/src/ch32v20x_adc.c ****  *            ADC_IT_JEOC - End of injected conversion interrupt mask.
 246:Drivers/src/ch32v20x_adc.c ****  *          NewState - ENABLE or DISABLE.
 247:Drivers/src/ch32v20x_adc.c ****  *
 248:Drivers/src/ch32v20x_adc.c ****  * @return  none
 249:Drivers/src/ch32v20x_adc.c ****  */
 250:Drivers/src/ch32v20x_adc.c **** void ADC_ITConfig(ADC_TypeDef *ADCx, uint16_t ADC_IT, FunctionalState NewState)
 251:Drivers/src/ch32v20x_adc.c **** {
 352              		.loc 1 251 1
 353              		.cfi_startproc
 354 0000 7971     		addi	sp,sp,-48
 355              		.cfi_def_cfa_offset 48
 356 0002 22D6     		sw	s0,44(sp)
 357              		.cfi_offset 8, -4
 358 0004 0018     		addi	s0,sp,48
 359              		.cfi_def_cfa 8, 0
 360 0006 232EA4FC 		sw	a0,-36(s0)
 361 000a AE87     		mv	a5,a1
 362 000c 232AC4FC 		sw	a2,-44(s0)
 363 0010 231DF4FC 		sh	a5,-38(s0)
 252:Drivers/src/ch32v20x_adc.c ****     uint8_t itmask = 0;
 364              		.loc 1 252 13
 365 0014 A30704FE 		sb	zero,-17(s0)
 253:Drivers/src/ch32v20x_adc.c **** 
 254:Drivers/src/ch32v20x_adc.c ****     itmask = (uint8_t)ADC_IT;
 366              		.loc 1 254 12
 367 0018 8357A4FD 		lhu	a5,-38(s0)
 368 001c A307F4FE 		sb	a5,-17(s0)
GAS LISTING C:\Users\SOLDER~1\AppData\Local\Temp\ccI3TRm9.s 			page 12


 255:Drivers/src/ch32v20x_adc.c **** 
 256:Drivers/src/ch32v20x_adc.c ****     if(NewState != DISABLE)
 369              		.loc 1 256 7
 370 0020 832744FD 		lw	a5,-44(s0)
 371 0024 99CB     		beq	a5,zero,.L16
 257:Drivers/src/ch32v20x_adc.c ****     {
 258:Drivers/src/ch32v20x_adc.c ****         ADCx->CTLR1 |= itmask;
 372              		.loc 1 258 13
 373 0026 8327C4FD 		lw	a5,-36(s0)
 374 002a D843     		lw	a4,4(a5)
 375              		.loc 1 258 21
 376 002c 8347F4FE 		lbu	a5,-17(s0)
 377 0030 5D8F     		or	a4,a4,a5
 378 0032 8327C4FD 		lw	a5,-36(s0)
 379 0036 D8C3     		sw	a4,4(a5)
 259:Drivers/src/ch32v20x_adc.c ****     }
 260:Drivers/src/ch32v20x_adc.c ****     else
 261:Drivers/src/ch32v20x_adc.c ****     {
 262:Drivers/src/ch32v20x_adc.c ****         ADCx->CTLR1 &= (~(uint32_t)itmask);
 263:Drivers/src/ch32v20x_adc.c ****     }
 264:Drivers/src/ch32v20x_adc.c **** }
 380              		.loc 1 264 1
 381 0038 21A8     		j	.L18
 382              	.L16:
 262:Drivers/src/ch32v20x_adc.c ****     }
 383              		.loc 1 262 13
 384 003a 8327C4FD 		lw	a5,-36(s0)
 385 003e D843     		lw	a4,4(a5)
 262:Drivers/src/ch32v20x_adc.c ****     }
 386              		.loc 1 262 26
 387 0040 8347F4FE 		lbu	a5,-17(s0)
 262:Drivers/src/ch32v20x_adc.c ****     }
 388              		.loc 1 262 25
 389 0044 93C7F7FF 		not	a5,a5
 262:Drivers/src/ch32v20x_adc.c ****     }
 390              		.loc 1 262 21
 391 0048 7D8F     		and	a4,a4,a5
 392 004a 8327C4FD 		lw	a5,-36(s0)
 393 004e D8C3     		sw	a4,4(a5)
 394              	.L18:
 395              		.loc 1 264 1
 396 0050 0100     		nop
 397 0052 3254     		lw	s0,44(sp)
 398              		.cfi_restore 8
 399              		.cfi_def_cfa 2, 48
 400 0054 4561     		addi	sp,sp,48
 401              		.cfi_def_cfa_offset 0
 402 0056 8280     		jr	ra
 403              		.cfi_endproc
 404              	.LFE21:
 406              		.section	.text.ADC_ResetCalibration,"ax",@progbits
 407              		.align	1
 408              		.globl	ADC_ResetCalibration
 410              	ADC_ResetCalibration:
 411              	.LFB22:
 265:Drivers/src/ch32v20x_adc.c **** 
 266:Drivers/src/ch32v20x_adc.c **** /*********************************************************************
GAS LISTING C:\Users\SOLDER~1\AppData\Local\Temp\ccI3TRm9.s 			page 13


 267:Drivers/src/ch32v20x_adc.c ****  * @fn      ADC_ResetCalibration
 268:Drivers/src/ch32v20x_adc.c ****  *
 269:Drivers/src/ch32v20x_adc.c ****  * @brief   Resets the selected ADC calibration registers.
 270:Drivers/src/ch32v20x_adc.c ****  *
 271:Drivers/src/ch32v20x_adc.c ****  * @param   ADCx - where x can be 1 or 2 to select the ADC peripheral.
 272:Drivers/src/ch32v20x_adc.c ****  *
 273:Drivers/src/ch32v20x_adc.c ****  * @return  none
 274:Drivers/src/ch32v20x_adc.c ****  */
 275:Drivers/src/ch32v20x_adc.c **** void ADC_ResetCalibration(ADC_TypeDef *ADCx)
 276:Drivers/src/ch32v20x_adc.c **** {
 412              		.loc 1 276 1
 413              		.cfi_startproc
 414 0000 0111     		addi	sp,sp,-32
 415              		.cfi_def_cfa_offset 32
 416 0002 22CE     		sw	s0,28(sp)
 417              		.cfi_offset 8, -4
 418 0004 0010     		addi	s0,sp,32
 419              		.cfi_def_cfa 8, 0
 420 0006 2326A4FE 		sw	a0,-20(s0)
 277:Drivers/src/ch32v20x_adc.c ****     ADCx->CTLR2 |= CTLR2_RSTCAL_Set;
 421              		.loc 1 277 9
 422 000a 8327C4FE 		lw	a5,-20(s0)
 423 000e 9C47     		lw	a5,8(a5)
 424              		.loc 1 277 17
 425 0010 13E78700 		ori	a4,a5,8
 426 0014 8327C4FE 		lw	a5,-20(s0)
 427 0018 98C7     		sw	a4,8(a5)
 278:Drivers/src/ch32v20x_adc.c **** }
 428              		.loc 1 278 1
 429 001a 0100     		nop
 430 001c 7244     		lw	s0,28(sp)
 431              		.cfi_restore 8
 432              		.cfi_def_cfa 2, 32
 433 001e 0561     		addi	sp,sp,32
 434              		.cfi_def_cfa_offset 0
 435 0020 8280     		jr	ra
 436              		.cfi_endproc
 437              	.LFE22:
 439              		.section	.text.ADC_GetResetCalibrationStatus,"ax",@progbits
 440              		.align	1
 441              		.globl	ADC_GetResetCalibrationStatus
 443              	ADC_GetResetCalibrationStatus:
 444              	.LFB23:
 279:Drivers/src/ch32v20x_adc.c **** 
 280:Drivers/src/ch32v20x_adc.c **** /*********************************************************************
 281:Drivers/src/ch32v20x_adc.c ****  * @fn      ADC_GetResetCalibrationStatus
 282:Drivers/src/ch32v20x_adc.c ****  *
 283:Drivers/src/ch32v20x_adc.c ****  * @brief   Gets the selected ADC reset calibration registers status.
 284:Drivers/src/ch32v20x_adc.c ****  *
 285:Drivers/src/ch32v20x_adc.c ****  * @param   ADCx - where x can be 1 or 2 to select the ADC peripheral.
 286:Drivers/src/ch32v20x_adc.c ****  *
 287:Drivers/src/ch32v20x_adc.c ****  * @return  FlagStatus: SET or RESET.
 288:Drivers/src/ch32v20x_adc.c ****  */
 289:Drivers/src/ch32v20x_adc.c **** FlagStatus ADC_GetResetCalibrationStatus(ADC_TypeDef *ADCx)
 290:Drivers/src/ch32v20x_adc.c **** {
 445              		.loc 1 290 1
 446              		.cfi_startproc
GAS LISTING C:\Users\SOLDER~1\AppData\Local\Temp\ccI3TRm9.s 			page 14


 447 0000 7971     		addi	sp,sp,-48
 448              		.cfi_def_cfa_offset 48
 449 0002 22D6     		sw	s0,44(sp)
 450              		.cfi_offset 8, -4
 451 0004 0018     		addi	s0,sp,48
 452              		.cfi_def_cfa 8, 0
 453 0006 232EA4FC 		sw	a0,-36(s0)
 291:Drivers/src/ch32v20x_adc.c ****     FlagStatus bitstatus = RESET;
 454              		.loc 1 291 16
 455 000a 232604FE 		sw	zero,-20(s0)
 292:Drivers/src/ch32v20x_adc.c **** 
 293:Drivers/src/ch32v20x_adc.c ****     if((ADCx->CTLR2 & CTLR2_RSTCAL_Set) != (uint32_t)RESET)
 456              		.loc 1 293 13
 457 000e 8327C4FD 		lw	a5,-36(s0)
 458 0012 9C47     		lw	a5,8(a5)
 459              		.loc 1 293 21
 460 0014 A18B     		andi	a5,a5,8
 461              		.loc 1 293 7
 462 0016 89C7     		beq	a5,zero,.L21
 294:Drivers/src/ch32v20x_adc.c ****     {
 295:Drivers/src/ch32v20x_adc.c ****         bitstatus = SET;
 463              		.loc 1 295 19
 464 0018 8547     		li	a5,1
 465 001a 2326F4FE 		sw	a5,-20(s0)
 466 001e 19A0     		j	.L22
 467              	.L21:
 296:Drivers/src/ch32v20x_adc.c ****     }
 297:Drivers/src/ch32v20x_adc.c ****     else
 298:Drivers/src/ch32v20x_adc.c ****     {
 299:Drivers/src/ch32v20x_adc.c ****         bitstatus = RESET;
 468              		.loc 1 299 19
 469 0020 232604FE 		sw	zero,-20(s0)
 470              	.L22:
 300:Drivers/src/ch32v20x_adc.c ****     }
 301:Drivers/src/ch32v20x_adc.c **** 
 302:Drivers/src/ch32v20x_adc.c ****     return bitstatus;
 471              		.loc 1 302 12
 472 0024 8327C4FE 		lw	a5,-20(s0)
 303:Drivers/src/ch32v20x_adc.c **** }
 473              		.loc 1 303 1
 474 0028 3E85     		mv	a0,a5
 475 002a 3254     		lw	s0,44(sp)
 476              		.cfi_restore 8
 477              		.cfi_def_cfa 2, 48
 478 002c 4561     		addi	sp,sp,48
 479              		.cfi_def_cfa_offset 0
 480 002e 8280     		jr	ra
 481              		.cfi_endproc
 482              	.LFE23:
 484              		.section	.text.ADC_StartCalibration,"ax",@progbits
 485              		.align	1
 486              		.globl	ADC_StartCalibration
 488              	ADC_StartCalibration:
 489              	.LFB24:
 304:Drivers/src/ch32v20x_adc.c **** 
 305:Drivers/src/ch32v20x_adc.c **** /*********************************************************************
 306:Drivers/src/ch32v20x_adc.c ****  * @fn      ADC_StartCalibration
GAS LISTING C:\Users\SOLDER~1\AppData\Local\Temp\ccI3TRm9.s 			page 15


 307:Drivers/src/ch32v20x_adc.c ****  *
 308:Drivers/src/ch32v20x_adc.c ****  * @brief   Starts the selected ADC calibration process.
 309:Drivers/src/ch32v20x_adc.c ****  *
 310:Drivers/src/ch32v20x_adc.c ****  * @param   ADCx - where x can be 1 or 2 to select the ADC peripheral.
 311:Drivers/src/ch32v20x_adc.c ****  *
 312:Drivers/src/ch32v20x_adc.c ****  * @return  None
 313:Drivers/src/ch32v20x_adc.c ****  */
 314:Drivers/src/ch32v20x_adc.c **** void ADC_StartCalibration(ADC_TypeDef *ADCx)
 315:Drivers/src/ch32v20x_adc.c **** {
 490              		.loc 1 315 1
 491              		.cfi_startproc
 492 0000 0111     		addi	sp,sp,-32
 493              		.cfi_def_cfa_offset 32
 494 0002 22CE     		sw	s0,28(sp)
 495              		.cfi_offset 8, -4
 496 0004 0010     		addi	s0,sp,32
 497              		.cfi_def_cfa 8, 0
 498 0006 2326A4FE 		sw	a0,-20(s0)
 316:Drivers/src/ch32v20x_adc.c ****     ADCx->CTLR2 |= CTLR2_CAL_Set;
 499              		.loc 1 316 9
 500 000a 8327C4FE 		lw	a5,-20(s0)
 501 000e 9C47     		lw	a5,8(a5)
 502              		.loc 1 316 17
 503 0010 13E74700 		ori	a4,a5,4
 504 0014 8327C4FE 		lw	a5,-20(s0)
 505 0018 98C7     		sw	a4,8(a5)
 317:Drivers/src/ch32v20x_adc.c **** }
 506              		.loc 1 317 1
 507 001a 0100     		nop
 508 001c 7244     		lw	s0,28(sp)
 509              		.cfi_restore 8
 510              		.cfi_def_cfa 2, 32
 511 001e 0561     		addi	sp,sp,32
 512              		.cfi_def_cfa_offset 0
 513 0020 8280     		jr	ra
 514              		.cfi_endproc
 515              	.LFE24:
 517              		.section	.text.ADC_GetCalibrationStatus,"ax",@progbits
 518              		.align	1
 519              		.globl	ADC_GetCalibrationStatus
 521              	ADC_GetCalibrationStatus:
 522              	.LFB25:
 318:Drivers/src/ch32v20x_adc.c **** 
 319:Drivers/src/ch32v20x_adc.c **** /*********************************************************************
 320:Drivers/src/ch32v20x_adc.c ****  * @fn      ADC_GetCalibrationStatus
 321:Drivers/src/ch32v20x_adc.c ****  *
 322:Drivers/src/ch32v20x_adc.c ****  * @brief   Gets the selected ADC calibration status.
 323:Drivers/src/ch32v20x_adc.c ****  *
 324:Drivers/src/ch32v20x_adc.c ****  * @param   ADCx - where x can be 1 or 2 to select the ADC peripheral.
 325:Drivers/src/ch32v20x_adc.c ****  *
 326:Drivers/src/ch32v20x_adc.c ****  * @return  FlagStatus: SET or RESET.
 327:Drivers/src/ch32v20x_adc.c ****  */
 328:Drivers/src/ch32v20x_adc.c **** FlagStatus ADC_GetCalibrationStatus(ADC_TypeDef *ADCx)
 329:Drivers/src/ch32v20x_adc.c **** {
 523              		.loc 1 329 1
 524              		.cfi_startproc
 525 0000 7971     		addi	sp,sp,-48
GAS LISTING C:\Users\SOLDER~1\AppData\Local\Temp\ccI3TRm9.s 			page 16


 526              		.cfi_def_cfa_offset 48
 527 0002 22D6     		sw	s0,44(sp)
 528              		.cfi_offset 8, -4
 529 0004 0018     		addi	s0,sp,48
 530              		.cfi_def_cfa 8, 0
 531 0006 232EA4FC 		sw	a0,-36(s0)
 330:Drivers/src/ch32v20x_adc.c ****     FlagStatus bitstatus = RESET;
 532              		.loc 1 330 16
 533 000a 232604FE 		sw	zero,-20(s0)
 331:Drivers/src/ch32v20x_adc.c **** 
 332:Drivers/src/ch32v20x_adc.c ****     if((ADCx->CTLR2 & CTLR2_CAL_Set) != (uint32_t)RESET)
 534              		.loc 1 332 13
 535 000e 8327C4FD 		lw	a5,-36(s0)
 536 0012 9C47     		lw	a5,8(a5)
 537              		.loc 1 332 21
 538 0014 918B     		andi	a5,a5,4
 539              		.loc 1 332 7
 540 0016 89C7     		beq	a5,zero,.L26
 333:Drivers/src/ch32v20x_adc.c ****     {
 334:Drivers/src/ch32v20x_adc.c ****         bitstatus = SET;
 541              		.loc 1 334 19
 542 0018 8547     		li	a5,1
 543 001a 2326F4FE 		sw	a5,-20(s0)
 544 001e 19A0     		j	.L27
 545              	.L26:
 335:Drivers/src/ch32v20x_adc.c ****     }
 336:Drivers/src/ch32v20x_adc.c ****     else
 337:Drivers/src/ch32v20x_adc.c ****     {
 338:Drivers/src/ch32v20x_adc.c ****         bitstatus = RESET;
 546              		.loc 1 338 19
 547 0020 232604FE 		sw	zero,-20(s0)
 548              	.L27:
 339:Drivers/src/ch32v20x_adc.c ****     }
 340:Drivers/src/ch32v20x_adc.c **** 
 341:Drivers/src/ch32v20x_adc.c ****     return bitstatus;
 549              		.loc 1 341 12
 550 0024 8327C4FE 		lw	a5,-20(s0)
 342:Drivers/src/ch32v20x_adc.c **** }
 551              		.loc 1 342 1
 552 0028 3E85     		mv	a0,a5
 553 002a 3254     		lw	s0,44(sp)
 554              		.cfi_restore 8
 555              		.cfi_def_cfa 2, 48
 556 002c 4561     		addi	sp,sp,48
 557              		.cfi_def_cfa_offset 0
 558 002e 8280     		jr	ra
 559              		.cfi_endproc
 560              	.LFE25:
 562              		.section	.text.ADC_SoftwareStartConvCmd,"ax",@progbits
 563              		.align	1
 564              		.globl	ADC_SoftwareStartConvCmd
 566              	ADC_SoftwareStartConvCmd:
 567              	.LFB26:
 343:Drivers/src/ch32v20x_adc.c **** 
 344:Drivers/src/ch32v20x_adc.c **** /*********************************************************************
 345:Drivers/src/ch32v20x_adc.c ****  * @fn      ADC_SoftwareStartConvCmd
 346:Drivers/src/ch32v20x_adc.c ****  *
GAS LISTING C:\Users\SOLDER~1\AppData\Local\Temp\ccI3TRm9.s 			page 17


 347:Drivers/src/ch32v20x_adc.c ****  * @brief   Enables or disables the selected ADC software start conversion.
 348:Drivers/src/ch32v20x_adc.c ****  *
 349:Drivers/src/ch32v20x_adc.c ****  * @param   ADCx - where x can be 1 or 2 to select the ADC peripheral.
 350:Drivers/src/ch32v20x_adc.c ****  *          NewState - ENABLE or DISABLE.
 351:Drivers/src/ch32v20x_adc.c ****  *
 352:Drivers/src/ch32v20x_adc.c ****  * @return  None
 353:Drivers/src/ch32v20x_adc.c ****  */
 354:Drivers/src/ch32v20x_adc.c **** void ADC_SoftwareStartConvCmd(ADC_TypeDef *ADCx, FunctionalState NewState)
 355:Drivers/src/ch32v20x_adc.c **** {
 568              		.loc 1 355 1
 569              		.cfi_startproc
 570 0000 0111     		addi	sp,sp,-32
 571              		.cfi_def_cfa_offset 32
 572 0002 22CE     		sw	s0,28(sp)
 573              		.cfi_offset 8, -4
 574 0004 0010     		addi	s0,sp,32
 575              		.cfi_def_cfa 8, 0
 576 0006 2326A4FE 		sw	a0,-20(s0)
 577 000a 2324B4FE 		sw	a1,-24(s0)
 356:Drivers/src/ch32v20x_adc.c ****     if(NewState != DISABLE)
 578              		.loc 1 356 7
 579 000e 832784FE 		lw	a5,-24(s0)
 580 0012 99CB     		beq	a5,zero,.L30
 357:Drivers/src/ch32v20x_adc.c ****     {
 358:Drivers/src/ch32v20x_adc.c ****         ADCx->CTLR2 |= CTLR2_EXTTRIG_SWSTART_Set;
 581              		.loc 1 358 13
 582 0014 8327C4FE 		lw	a5,-20(s0)
 583 0018 9847     		lw	a4,8(a5)
 584              		.loc 1 358 21
 585 001a B7075000 		li	a5,5242880
 586 001e 5D8F     		or	a4,a4,a5
 587 0020 8327C4FE 		lw	a5,-20(s0)
 588 0024 98C7     		sw	a4,8(a5)
 359:Drivers/src/ch32v20x_adc.c ****     }
 360:Drivers/src/ch32v20x_adc.c ****     else
 361:Drivers/src/ch32v20x_adc.c ****     {
 362:Drivers/src/ch32v20x_adc.c ****         ADCx->CTLR2 &= CTLR2_EXTTRIG_SWSTART_Reset;
 363:Drivers/src/ch32v20x_adc.c ****     }
 364:Drivers/src/ch32v20x_adc.c **** }
 589              		.loc 1 364 1
 590 0026 19A8     		j	.L32
 591              	.L30:
 362:Drivers/src/ch32v20x_adc.c ****     }
 592              		.loc 1 362 13
 593 0028 8327C4FE 		lw	a5,-20(s0)
 594 002c 9847     		lw	a4,8(a5)
 362:Drivers/src/ch32v20x_adc.c ****     }
 595              		.loc 1 362 21
 596 002e B707B0FF 		li	a5,-5242880
 597 0032 FD17     		addi	a5,a5,-1
 598 0034 7D8F     		and	a4,a4,a5
 599 0036 8327C4FE 		lw	a5,-20(s0)
 600 003a 98C7     		sw	a4,8(a5)
 601              	.L32:
 602              		.loc 1 364 1
 603 003c 0100     		nop
 604 003e 7244     		lw	s0,28(sp)
GAS LISTING C:\Users\SOLDER~1\AppData\Local\Temp\ccI3TRm9.s 			page 18


 605              		.cfi_restore 8
 606              		.cfi_def_cfa 2, 32
 607 0040 0561     		addi	sp,sp,32
 608              		.cfi_def_cfa_offset 0
 609 0042 8280     		jr	ra
 610              		.cfi_endproc
 611              	.LFE26:
 613              		.section	.text.ADC_GetSoftwareStartConvStatus,"ax",@progbits
 614              		.align	1
 615              		.globl	ADC_GetSoftwareStartConvStatus
 617              	ADC_GetSoftwareStartConvStatus:
 618              	.LFB27:
 365:Drivers/src/ch32v20x_adc.c **** 
 366:Drivers/src/ch32v20x_adc.c **** /*********************************************************************
 367:Drivers/src/ch32v20x_adc.c ****  * @fn      ADC_GetSoftwareStartConvStatus
 368:Drivers/src/ch32v20x_adc.c ****  *
 369:Drivers/src/ch32v20x_adc.c ****  * @brief   Gets the selected ADC Software start conversion Status.
 370:Drivers/src/ch32v20x_adc.c ****  *
 371:Drivers/src/ch32v20x_adc.c ****  * @param   ADCx - where x can be 1 or 2 to select the ADC peripheral.
 372:Drivers/src/ch32v20x_adc.c ****  *
 373:Drivers/src/ch32v20x_adc.c ****  * @return  FlagStatus - SET or RESET.
 374:Drivers/src/ch32v20x_adc.c ****  */
 375:Drivers/src/ch32v20x_adc.c **** 
 376:Drivers/src/ch32v20x_adc.c **** FlagStatus ADC_GetSoftwareStartConvStatus(ADC_TypeDef *ADCx)
 377:Drivers/src/ch32v20x_adc.c **** {
 619              		.loc 1 377 1
 620              		.cfi_startproc
 621 0000 7971     		addi	sp,sp,-48
 622              		.cfi_def_cfa_offset 48
 623 0002 22D6     		sw	s0,44(sp)
 624              		.cfi_offset 8, -4
 625 0004 0018     		addi	s0,sp,48
 626              		.cfi_def_cfa 8, 0
 627 0006 232EA4FC 		sw	a0,-36(s0)
 378:Drivers/src/ch32v20x_adc.c ****     FlagStatus bitstatus = RESET;
 628              		.loc 1 378 16
 629 000a 232604FE 		sw	zero,-20(s0)
 379:Drivers/src/ch32v20x_adc.c **** 
 380:Drivers/src/ch32v20x_adc.c ****     if((ADCx->CTLR2 & CTLR2_SWSTART_Set) != (uint32_t)RESET)
 630              		.loc 1 380 13
 631 000e 8327C4FD 		lw	a5,-36(s0)
 632 0012 9847     		lw	a4,8(a5)
 633              		.loc 1 380 21
 634 0014 B7074000 		li	a5,4194304
 635 0018 F98F     		and	a5,a4,a5
 636              		.loc 1 380 7
 637 001a 89C7     		beq	a5,zero,.L34
 381:Drivers/src/ch32v20x_adc.c ****     {
 382:Drivers/src/ch32v20x_adc.c ****         bitstatus = SET;
 638              		.loc 1 382 19
 639 001c 8547     		li	a5,1
 640 001e 2326F4FE 		sw	a5,-20(s0)
 641 0022 19A0     		j	.L35
 642              	.L34:
 383:Drivers/src/ch32v20x_adc.c ****     }
 384:Drivers/src/ch32v20x_adc.c ****     else
 385:Drivers/src/ch32v20x_adc.c ****     {
GAS LISTING C:\Users\SOLDER~1\AppData\Local\Temp\ccI3TRm9.s 			page 19


 386:Drivers/src/ch32v20x_adc.c ****         bitstatus = RESET;
 643              		.loc 1 386 19
 644 0024 232604FE 		sw	zero,-20(s0)
 645              	.L35:
 387:Drivers/src/ch32v20x_adc.c ****     }
 388:Drivers/src/ch32v20x_adc.c **** 
 389:Drivers/src/ch32v20x_adc.c ****     return bitstatus;
 646              		.loc 1 389 12
 647 0028 8327C4FE 		lw	a5,-20(s0)
 390:Drivers/src/ch32v20x_adc.c **** }
 648              		.loc 1 390 1
 649 002c 3E85     		mv	a0,a5
 650 002e 3254     		lw	s0,44(sp)
 651              		.cfi_restore 8
 652              		.cfi_def_cfa 2, 48
 653 0030 4561     		addi	sp,sp,48
 654              		.cfi_def_cfa_offset 0
 655 0032 8280     		jr	ra
 656              		.cfi_endproc
 657              	.LFE27:
 659              		.section	.text.ADC_DiscModeChannelCountConfig,"ax",@progbits
 660              		.align	1
 661              		.globl	ADC_DiscModeChannelCountConfig
 663              	ADC_DiscModeChannelCountConfig:
 664              	.LFB28:
 391:Drivers/src/ch32v20x_adc.c **** 
 392:Drivers/src/ch32v20x_adc.c **** /*********************************************************************
 393:Drivers/src/ch32v20x_adc.c ****  * @fn      ADC_DiscModeChannelCountConfig
 394:Drivers/src/ch32v20x_adc.c ****  *
 395:Drivers/src/ch32v20x_adc.c ****  * @brief   Configures the discontinuous mode for the selected ADC regular
 396:Drivers/src/ch32v20x_adc.c ****  *        group channel.
 397:Drivers/src/ch32v20x_adc.c ****  *
 398:Drivers/src/ch32v20x_adc.c ****  * @param   ADCx - where x can be 1 or 2 to select the ADC peripheral.
 399:Drivers/src/ch32v20x_adc.c ****  *          Number - specifies the discontinuous mode regular channel
 400:Drivers/src/ch32v20x_adc.c ****  *            count value(1-8).
 401:Drivers/src/ch32v20x_adc.c ****  *
 402:Drivers/src/ch32v20x_adc.c ****  * @return  None
 403:Drivers/src/ch32v20x_adc.c ****  */
 404:Drivers/src/ch32v20x_adc.c **** void ADC_DiscModeChannelCountConfig(ADC_TypeDef *ADCx, uint8_t Number)
 405:Drivers/src/ch32v20x_adc.c **** {
 665              		.loc 1 405 1
 666              		.cfi_startproc
 667 0000 7971     		addi	sp,sp,-48
 668              		.cfi_def_cfa_offset 48
 669 0002 22D6     		sw	s0,44(sp)
 670              		.cfi_offset 8, -4
 671 0004 0018     		addi	s0,sp,48
 672              		.cfi_def_cfa 8, 0
 673 0006 232EA4FC 		sw	a0,-36(s0)
 674 000a AE87     		mv	a5,a1
 675 000c A30DF4FC 		sb	a5,-37(s0)
 406:Drivers/src/ch32v20x_adc.c ****     uint32_t tmpreg1 = 0;
 676              		.loc 1 406 14
 677 0010 232604FE 		sw	zero,-20(s0)
 407:Drivers/src/ch32v20x_adc.c ****     uint32_t tmpreg2 = 0;
 678              		.loc 1 407 14
 679 0014 232404FE 		sw	zero,-24(s0)
GAS LISTING C:\Users\SOLDER~1\AppData\Local\Temp\ccI3TRm9.s 			page 20


 408:Drivers/src/ch32v20x_adc.c **** 
 409:Drivers/src/ch32v20x_adc.c ****     tmpreg1 = ADCx->CTLR1;
 680              		.loc 1 409 13
 681 0018 8327C4FD 		lw	a5,-36(s0)
 682 001c DC43     		lw	a5,4(a5)
 683 001e 2326F4FE 		sw	a5,-20(s0)
 410:Drivers/src/ch32v20x_adc.c ****     tmpreg1 &= CTLR1_DISCNUM_Reset;
 684              		.loc 1 410 13
 685 0022 0327C4FE 		lw	a4,-20(s0)
 686 0026 C977     		li	a5,-57344
 687 0028 FD17     		addi	a5,a5,-1
 688 002a F98F     		and	a5,a4,a5
 689 002c 2326F4FE 		sw	a5,-20(s0)
 411:Drivers/src/ch32v20x_adc.c ****     tmpreg2 = Number - 1;
 690              		.loc 1 411 22
 691 0030 8347B4FD 		lbu	a5,-37(s0)
 692 0034 FD17     		addi	a5,a5,-1
 693              		.loc 1 411 13
 694 0036 2324F4FE 		sw	a5,-24(s0)
 412:Drivers/src/ch32v20x_adc.c ****     tmpreg1 |= tmpreg2 << 13;
 695              		.loc 1 412 24
 696 003a 832784FE 		lw	a5,-24(s0)
 697 003e B607     		slli	a5,a5,13
 698              		.loc 1 412 13
 699 0040 0327C4FE 		lw	a4,-20(s0)
 700 0044 D98F     		or	a5,a4,a5
 701 0046 2326F4FE 		sw	a5,-20(s0)
 413:Drivers/src/ch32v20x_adc.c ****     ADCx->CTLR1 = tmpreg1;
 702              		.loc 1 413 17
 703 004a 8327C4FD 		lw	a5,-36(s0)
 704 004e 0327C4FE 		lw	a4,-20(s0)
 705 0052 D8C3     		sw	a4,4(a5)
 414:Drivers/src/ch32v20x_adc.c **** }
 706              		.loc 1 414 1
 707 0054 0100     		nop
 708 0056 3254     		lw	s0,44(sp)
 709              		.cfi_restore 8
 710              		.cfi_def_cfa 2, 48
 711 0058 4561     		addi	sp,sp,48
 712              		.cfi_def_cfa_offset 0
 713 005a 8280     		jr	ra
 714              		.cfi_endproc
 715              	.LFE28:
 717              		.section	.text.ADC_DiscModeCmd,"ax",@progbits
 718              		.align	1
 719              		.globl	ADC_DiscModeCmd
 721              	ADC_DiscModeCmd:
 722              	.LFB29:
 415:Drivers/src/ch32v20x_adc.c **** 
 416:Drivers/src/ch32v20x_adc.c **** /*********************************************************************
 417:Drivers/src/ch32v20x_adc.c ****  * @fn      ADC_DiscModeCmd
 418:Drivers/src/ch32v20x_adc.c ****  *
 419:Drivers/src/ch32v20x_adc.c ****  * @brief   Enables or disables the discontinuous mode on regular group
 420:Drivers/src/ch32v20x_adc.c ****  *        channel for the specified ADC.
 421:Drivers/src/ch32v20x_adc.c ****  *
 422:Drivers/src/ch32v20x_adc.c ****  * @param   ADCx - where x can be 1 or 2 to select the ADC peripheral.
 423:Drivers/src/ch32v20x_adc.c ****  *          NewState - ENABLE or DISABLE.
GAS LISTING C:\Users\SOLDER~1\AppData\Local\Temp\ccI3TRm9.s 			page 21


 424:Drivers/src/ch32v20x_adc.c ****  *
 425:Drivers/src/ch32v20x_adc.c ****  * @return  None
 426:Drivers/src/ch32v20x_adc.c ****  */
 427:Drivers/src/ch32v20x_adc.c **** void ADC_DiscModeCmd(ADC_TypeDef *ADCx, FunctionalState NewState)
 428:Drivers/src/ch32v20x_adc.c **** {
 723              		.loc 1 428 1
 724              		.cfi_startproc
 725 0000 0111     		addi	sp,sp,-32
 726              		.cfi_def_cfa_offset 32
 727 0002 22CE     		sw	s0,28(sp)
 728              		.cfi_offset 8, -4
 729 0004 0010     		addi	s0,sp,32
 730              		.cfi_def_cfa 8, 0
 731 0006 2326A4FE 		sw	a0,-20(s0)
 732 000a 2324B4FE 		sw	a1,-24(s0)
 429:Drivers/src/ch32v20x_adc.c ****     if(NewState != DISABLE)
 733              		.loc 1 429 7
 734 000e 832784FE 		lw	a5,-24(s0)
 735 0012 81CF     		beq	a5,zero,.L39
 430:Drivers/src/ch32v20x_adc.c ****     {
 431:Drivers/src/ch32v20x_adc.c ****         ADCx->CTLR1 |= CTLR1_DISCEN_Set;
 736              		.loc 1 431 13
 737 0014 8327C4FE 		lw	a5,-20(s0)
 738 0018 D843     		lw	a4,4(a5)
 739              		.loc 1 431 21
 740 001a 8567     		li	a5,4096
 741 001c 93870780 		addi	a5,a5,-2048
 742 0020 5D8F     		or	a4,a4,a5
 743 0022 8327C4FE 		lw	a5,-20(s0)
 744 0026 D8C3     		sw	a4,4(a5)
 432:Drivers/src/ch32v20x_adc.c ****     }
 433:Drivers/src/ch32v20x_adc.c ****     else
 434:Drivers/src/ch32v20x_adc.c ****     {
 435:Drivers/src/ch32v20x_adc.c ****         ADCx->CTLR1 &= CTLR1_DISCEN_Reset;
 436:Drivers/src/ch32v20x_adc.c ****     }
 437:Drivers/src/ch32v20x_adc.c **** }
 745              		.loc 1 437 1
 746 0028 19A8     		j	.L41
 747              	.L39:
 435:Drivers/src/ch32v20x_adc.c ****     }
 748              		.loc 1 435 13
 749 002a 8327C4FE 		lw	a5,-20(s0)
 750 002e D843     		lw	a4,4(a5)
 435:Drivers/src/ch32v20x_adc.c ****     }
 751              		.loc 1 435 21
 752 0030 FD77     		li	a5,-4096
 753 0032 9387F77F 		addi	a5,a5,2047
 754 0036 7D8F     		and	a4,a4,a5
 755 0038 8327C4FE 		lw	a5,-20(s0)
 756 003c D8C3     		sw	a4,4(a5)
 757              	.L41:
 758              		.loc 1 437 1
 759 003e 0100     		nop
 760 0040 7244     		lw	s0,28(sp)
 761              		.cfi_restore 8
 762              		.cfi_def_cfa 2, 32
 763 0042 0561     		addi	sp,sp,32
GAS LISTING C:\Users\SOLDER~1\AppData\Local\Temp\ccI3TRm9.s 			page 22


 764              		.cfi_def_cfa_offset 0
 765 0044 8280     		jr	ra
 766              		.cfi_endproc
 767              	.LFE29:
 769              		.section	.text.ADC_RegularChannelConfig,"ax",@progbits
 770              		.align	1
 771              		.globl	ADC_RegularChannelConfig
 773              	ADC_RegularChannelConfig:
 774              	.LFB30:
 438:Drivers/src/ch32v20x_adc.c **** 
 439:Drivers/src/ch32v20x_adc.c **** /*********************************************************************
 440:Drivers/src/ch32v20x_adc.c ****  * @fn      ADC_RegularChannelConfig
 441:Drivers/src/ch32v20x_adc.c ****  *
 442:Drivers/src/ch32v20x_adc.c ****  * @brief   Configures for the selected ADC regular channel its corresponding
 443:Drivers/src/ch32v20x_adc.c ****  *        rank in the sequencer and its sample time.
 444:Drivers/src/ch32v20x_adc.c ****  *
 445:Drivers/src/ch32v20x_adc.c ****  * @param   ADCx - where x can be 1 or 2 to select the ADC peripheral.
 446:Drivers/src/ch32v20x_adc.c ****  *          ADC_Channel - the ADC channel to configure.
 447:Drivers/src/ch32v20x_adc.c ****  *            ADC_Channel_0 - ADC Channel0 selected.
 448:Drivers/src/ch32v20x_adc.c ****  *            ADC_Channel_1 - ADC Channel1 selected.
 449:Drivers/src/ch32v20x_adc.c ****  *            ADC_Channel_2 - ADC Channel2 selected.
 450:Drivers/src/ch32v20x_adc.c ****  *            ADC_Channel_3 - ADC Channel3 selected.
 451:Drivers/src/ch32v20x_adc.c ****  *            ADC_Channel_4 - ADC Channel4 selected.
 452:Drivers/src/ch32v20x_adc.c ****  *            ADC_Channel_5 - ADC Channel5 selected.
 453:Drivers/src/ch32v20x_adc.c ****  *            ADC_Channel_6 - ADC Channel6 selected.
 454:Drivers/src/ch32v20x_adc.c ****  *            ADC_Channel_7 - ADC Channel7 selected.
 455:Drivers/src/ch32v20x_adc.c ****  *            ADC_Channel_8 - ADC Channel8 selected.
 456:Drivers/src/ch32v20x_adc.c ****  *            ADC_Channel_9 - ADC Channel9 selected.
 457:Drivers/src/ch32v20x_adc.c ****  *            ADC_Channel_10 - ADC Channel10 selected.
 458:Drivers/src/ch32v20x_adc.c ****  *            ADC_Channel_11 - ADC Channel11 selected.
 459:Drivers/src/ch32v20x_adc.c ****  *            ADC_Channel_12 - ADC Channel12 selected.
 460:Drivers/src/ch32v20x_adc.c ****  *            ADC_Channel_13 - ADC Channel13 selected.
 461:Drivers/src/ch32v20x_adc.c ****  *            ADC_Channel_14 - ADC Channel14 selected.
 462:Drivers/src/ch32v20x_adc.c ****  *            ADC_Channel_15 - ADC Channel15 selected.
 463:Drivers/src/ch32v20x_adc.c ****  *            ADC_Channel_16 - ADC Channel16 selected.
 464:Drivers/src/ch32v20x_adc.c ****  *            ADC_Channel_17 - ADC Channel17 selected.
 465:Drivers/src/ch32v20x_adc.c ****  *          Rank - The rank in the regular group sequencer.
 466:Drivers/src/ch32v20x_adc.c ****  *            This parameter must be between 1 to 16.
 467:Drivers/src/ch32v20x_adc.c ****  *          ADC_SampleTime - The sample time value to be set for the selected channel.
 468:Drivers/src/ch32v20x_adc.c ****  *            ADC_SampleTime_1Cycles5 - Sample time equal to 1.5 cycles.
 469:Drivers/src/ch32v20x_adc.c ****  *            ADC_SampleTime_7Cycles5 - Sample time equal to 7.5 cycles.
 470:Drivers/src/ch32v20x_adc.c ****  *            ADC_SampleTime_13Cycles5 - Sample time equal to 13.5 cycles.
 471:Drivers/src/ch32v20x_adc.c ****  *            ADC_SampleTime_28Cycles5 - Sample time equal to 28.5 cycles.
 472:Drivers/src/ch32v20x_adc.c ****  *            ADC_SampleTime_41Cycles5 - Sample time equal to 41.5 cycles.
 473:Drivers/src/ch32v20x_adc.c ****  *            ADC_SampleTime_55Cycles5 - Sample time equal to 55.5 cycles.
 474:Drivers/src/ch32v20x_adc.c ****  *            ADC_SampleTime_71Cycles5 - Sample time equal to 71.5 cycles.
 475:Drivers/src/ch32v20x_adc.c ****  *            ADC_SampleTime_239Cycles5 - Sample time equal to 239.5 cycles.
 476:Drivers/src/ch32v20x_adc.c ****  *
 477:Drivers/src/ch32v20x_adc.c ****  * @return  None
 478:Drivers/src/ch32v20x_adc.c ****  */
 479:Drivers/src/ch32v20x_adc.c **** void ADC_RegularChannelConfig(ADC_TypeDef *ADCx, uint8_t ADC_Channel, uint8_t Rank, uint8_t ADC_Sam
 480:Drivers/src/ch32v20x_adc.c **** {
 775              		.loc 1 480 1
 776              		.cfi_startproc
 777 0000 7971     		addi	sp,sp,-48
 778              		.cfi_def_cfa_offset 48
 779 0002 22D6     		sw	s0,44(sp)
GAS LISTING C:\Users\SOLDER~1\AppData\Local\Temp\ccI3TRm9.s 			page 23


 780              		.cfi_offset 8, -4
 781 0004 0018     		addi	s0,sp,48
 782              		.cfi_def_cfa 8, 0
 783 0006 232EA4FC 		sw	a0,-36(s0)
 784 000a AE87     		mv	a5,a1
 785 000c 3687     		mv	a4,a3
 786 000e A30DF4FC 		sb	a5,-37(s0)
 787 0012 B287     		mv	a5,a2
 788 0014 230DF4FC 		sb	a5,-38(s0)
 789 0018 BA87     		mv	a5,a4
 790 001a A30CF4FC 		sb	a5,-39(s0)
 481:Drivers/src/ch32v20x_adc.c ****     uint32_t tmpreg1 = 0, tmpreg2 = 0;
 791              		.loc 1 481 14
 792 001e 232604FE 		sw	zero,-20(s0)
 793              		.loc 1 481 27
 794 0022 232404FE 		sw	zero,-24(s0)
 482:Drivers/src/ch32v20x_adc.c **** 
 483:Drivers/src/ch32v20x_adc.c ****     if(ADC_Channel > ADC_Channel_9)
 795              		.loc 1 483 7
 796 0026 0347B4FD 		lbu	a4,-37(s0)
 797 002a A547     		li	a5,9
 798 002c 63F6E706 		bleu	a4,a5,.L43
 484:Drivers/src/ch32v20x_adc.c ****     {
 485:Drivers/src/ch32v20x_adc.c ****         tmpreg1 = ADCx->SAMPTR1;
 799              		.loc 1 485 17
 800 0030 8327C4FD 		lw	a5,-36(s0)
 801 0034 DC47     		lw	a5,12(a5)
 802 0036 2326F4FE 		sw	a5,-20(s0)
 486:Drivers/src/ch32v20x_adc.c ****         tmpreg2 = SAMPTR1_SMP_Set << (3 * (ADC_Channel - 10));
 803              		.loc 1 486 56
 804 003a 8347B4FD 		lbu	a5,-37(s0)
 805 003e 138767FF 		addi	a4,a5,-10
 806              		.loc 1 486 41
 807 0042 BA87     		mv	a5,a4
 808 0044 8607     		slli	a5,a5,1
 809 0046 BA97     		add	a5,a5,a4
 810              		.loc 1 486 17
 811 0048 1D47     		li	a4,7
 812 004a B317F700 		sll	a5,a4,a5
 813 004e 2324F4FE 		sw	a5,-24(s0)
 487:Drivers/src/ch32v20x_adc.c ****         tmpreg1 &= ~tmpreg2;
 814              		.loc 1 487 20
 815 0052 832784FE 		lw	a5,-24(s0)
 816 0056 93C7F7FF 		not	a5,a5
 817              		.loc 1 487 17
 818 005a 0327C4FE 		lw	a4,-20(s0)
 819 005e F98F     		and	a5,a4,a5
 820 0060 2326F4FE 		sw	a5,-20(s0)
 488:Drivers/src/ch32v20x_adc.c ****         tmpreg2 = (uint32_t)ADC_SampleTime << (3 * (ADC_Channel - 10));
 821              		.loc 1 488 19
 822 0064 834694FD 		lbu	a3,-39(s0)
 823              		.loc 1 488 65
 824 0068 8347B4FD 		lbu	a5,-37(s0)
 825 006c 138767FF 		addi	a4,a5,-10
 826              		.loc 1 488 50
 827 0070 BA87     		mv	a5,a4
 828 0072 8607     		slli	a5,a5,1
GAS LISTING C:\Users\SOLDER~1\AppData\Local\Temp\ccI3TRm9.s 			page 24


 829 0074 BA97     		add	a5,a5,a4
 830              		.loc 1 488 17
 831 0076 B397F600 		sll	a5,a3,a5
 832 007a 2324F4FE 		sw	a5,-24(s0)
 489:Drivers/src/ch32v20x_adc.c ****         tmpreg1 |= tmpreg2;
 833              		.loc 1 489 17
 834 007e 0327C4FE 		lw	a4,-20(s0)
 835 0082 832784FE 		lw	a5,-24(s0)
 836 0086 D98F     		or	a5,a4,a5
 837 0088 2326F4FE 		sw	a5,-20(s0)
 490:Drivers/src/ch32v20x_adc.c ****         ADCx->SAMPTR1 = tmpreg1;
 838              		.loc 1 490 23
 839 008c 8327C4FD 		lw	a5,-36(s0)
 840 0090 0327C4FE 		lw	a4,-20(s0)
 841 0094 D8C7     		sw	a4,12(a5)
 842 0096 85A0     		j	.L44
 843              	.L43:
 491:Drivers/src/ch32v20x_adc.c ****     }
 492:Drivers/src/ch32v20x_adc.c ****     else
 493:Drivers/src/ch32v20x_adc.c ****     {
 494:Drivers/src/ch32v20x_adc.c ****         tmpreg1 = ADCx->SAMPTR2;
 844              		.loc 1 494 17
 845 0098 8327C4FD 		lw	a5,-36(s0)
 846 009c 9C4B     		lw	a5,16(a5)
 847 009e 2326F4FE 		sw	a5,-20(s0)
 495:Drivers/src/ch32v20x_adc.c ****         tmpreg2 = SAMPTR2_SMP_Set << (3 * ADC_Channel);
 848              		.loc 1 495 41
 849 00a2 0347B4FD 		lbu	a4,-37(s0)
 850 00a6 BA87     		mv	a5,a4
 851 00a8 8607     		slli	a5,a5,1
 852 00aa BA97     		add	a5,a5,a4
 853              		.loc 1 495 17
 854 00ac 1D47     		li	a4,7
 855 00ae B317F700 		sll	a5,a4,a5
 856 00b2 2324F4FE 		sw	a5,-24(s0)
 496:Drivers/src/ch32v20x_adc.c ****         tmpreg1 &= ~tmpreg2;
 857              		.loc 1 496 20
 858 00b6 832784FE 		lw	a5,-24(s0)
 859 00ba 93C7F7FF 		not	a5,a5
 860              		.loc 1 496 17
 861 00be 0327C4FE 		lw	a4,-20(s0)
 862 00c2 F98F     		and	a5,a4,a5
 863 00c4 2326F4FE 		sw	a5,-20(s0)
 497:Drivers/src/ch32v20x_adc.c ****         tmpreg2 = (uint32_t)ADC_SampleTime << (3 * ADC_Channel);
 864              		.loc 1 497 19
 865 00c8 834694FD 		lbu	a3,-39(s0)
 866              		.loc 1 497 50
 867 00cc 0347B4FD 		lbu	a4,-37(s0)
 868 00d0 BA87     		mv	a5,a4
 869 00d2 8607     		slli	a5,a5,1
 870 00d4 BA97     		add	a5,a5,a4
 871              		.loc 1 497 17
 872 00d6 B397F600 		sll	a5,a3,a5
 873 00da 2324F4FE 		sw	a5,-24(s0)
 498:Drivers/src/ch32v20x_adc.c ****         tmpreg1 |= tmpreg2;
 874              		.loc 1 498 17
 875 00de 0327C4FE 		lw	a4,-20(s0)
GAS LISTING C:\Users\SOLDER~1\AppData\Local\Temp\ccI3TRm9.s 			page 25


 876 00e2 832784FE 		lw	a5,-24(s0)
 877 00e6 D98F     		or	a5,a4,a5
 878 00e8 2326F4FE 		sw	a5,-20(s0)
 499:Drivers/src/ch32v20x_adc.c ****         ADCx->SAMPTR2 = tmpreg1;
 879              		.loc 1 499 23
 880 00ec 8327C4FD 		lw	a5,-36(s0)
 881 00f0 0327C4FE 		lw	a4,-20(s0)
 882 00f4 98CB     		sw	a4,16(a5)
 883              	.L44:
 500:Drivers/src/ch32v20x_adc.c ****     }
 501:Drivers/src/ch32v20x_adc.c **** 
 502:Drivers/src/ch32v20x_adc.c ****     if(Rank < 7)
 884              		.loc 1 502 7
 885 00f6 0347A4FD 		lbu	a4,-38(s0)
 886 00fa 9947     		li	a5,6
 887 00fc 63E6E706 		bgtu	a4,a5,.L45
 503:Drivers/src/ch32v20x_adc.c ****     {
 504:Drivers/src/ch32v20x_adc.c ****         tmpreg1 = ADCx->RSQR3;
 888              		.loc 1 504 17
 889 0100 8327C4FD 		lw	a5,-36(s0)
 890 0104 DC5B     		lw	a5,52(a5)
 891 0106 2326F4FE 		sw	a5,-20(s0)
 505:Drivers/src/ch32v20x_adc.c ****         tmpreg2 = RSQR3_SQ_Set << (5 * (Rank - 1));
 892              		.loc 1 505 46
 893 010a 8347A4FD 		lbu	a5,-38(s0)
 894 010e 1387F7FF 		addi	a4,a5,-1
 895              		.loc 1 505 38
 896 0112 BA87     		mv	a5,a4
 897 0114 8A07     		slli	a5,a5,2
 898 0116 BA97     		add	a5,a5,a4
 899              		.loc 1 505 17
 900 0118 7D47     		li	a4,31
 901 011a B317F700 		sll	a5,a4,a5
 902 011e 2324F4FE 		sw	a5,-24(s0)
 506:Drivers/src/ch32v20x_adc.c ****         tmpreg1 &= ~tmpreg2;
 903              		.loc 1 506 20
 904 0122 832784FE 		lw	a5,-24(s0)
 905 0126 93C7F7FF 		not	a5,a5
 906              		.loc 1 506 17
 907 012a 0327C4FE 		lw	a4,-20(s0)
 908 012e F98F     		and	a5,a4,a5
 909 0130 2326F4FE 		sw	a5,-20(s0)
 507:Drivers/src/ch32v20x_adc.c ****         tmpreg2 = (uint32_t)ADC_Channel << (5 * (Rank - 1));
 910              		.loc 1 507 19
 911 0134 8346B4FD 		lbu	a3,-37(s0)
 912              		.loc 1 507 55
 913 0138 8347A4FD 		lbu	a5,-38(s0)
 914 013c 1387F7FF 		addi	a4,a5,-1
 915              		.loc 1 507 47
 916 0140 BA87     		mv	a5,a4
 917 0142 8A07     		slli	a5,a5,2
 918 0144 BA97     		add	a5,a5,a4
 919              		.loc 1 507 17
 920 0146 B397F600 		sll	a5,a3,a5
 921 014a 2324F4FE 		sw	a5,-24(s0)
 508:Drivers/src/ch32v20x_adc.c ****         tmpreg1 |= tmpreg2;
 922              		.loc 1 508 17
GAS LISTING C:\Users\SOLDER~1\AppData\Local\Temp\ccI3TRm9.s 			page 26


 923 014e 0327C4FE 		lw	a4,-20(s0)
 924 0152 832784FE 		lw	a5,-24(s0)
 925 0156 D98F     		or	a5,a4,a5
 926 0158 2326F4FE 		sw	a5,-20(s0)
 509:Drivers/src/ch32v20x_adc.c ****         ADCx->RSQR3 = tmpreg1;
 927              		.loc 1 509 21
 928 015c 8327C4FD 		lw	a5,-36(s0)
 929 0160 0327C4FE 		lw	a4,-20(s0)
 930 0164 D8DB     		sw	a4,52(a5)
 510:Drivers/src/ch32v20x_adc.c ****     }
 511:Drivers/src/ch32v20x_adc.c ****     else if(Rank < 13)
 512:Drivers/src/ch32v20x_adc.c ****     {
 513:Drivers/src/ch32v20x_adc.c ****         tmpreg1 = ADCx->RSQR2;
 514:Drivers/src/ch32v20x_adc.c ****         tmpreg2 = RSQR2_SQ_Set << (5 * (Rank - 7));
 515:Drivers/src/ch32v20x_adc.c ****         tmpreg1 &= ~tmpreg2;
 516:Drivers/src/ch32v20x_adc.c ****         tmpreg2 = (uint32_t)ADC_Channel << (5 * (Rank - 7));
 517:Drivers/src/ch32v20x_adc.c ****         tmpreg1 |= tmpreg2;
 518:Drivers/src/ch32v20x_adc.c ****         ADCx->RSQR2 = tmpreg1;
 519:Drivers/src/ch32v20x_adc.c ****     }
 520:Drivers/src/ch32v20x_adc.c ****     else
 521:Drivers/src/ch32v20x_adc.c ****     {
 522:Drivers/src/ch32v20x_adc.c ****         tmpreg1 = ADCx->RSQR1;
 523:Drivers/src/ch32v20x_adc.c ****         tmpreg2 = RSQR1_SQ_Set << (5 * (Rank - 13));
 524:Drivers/src/ch32v20x_adc.c ****         tmpreg1 &= ~tmpreg2;
 525:Drivers/src/ch32v20x_adc.c ****         tmpreg2 = (uint32_t)ADC_Channel << (5 * (Rank - 13));
 526:Drivers/src/ch32v20x_adc.c ****         tmpreg1 |= tmpreg2;
 527:Drivers/src/ch32v20x_adc.c ****         ADCx->RSQR1 = tmpreg1;
 528:Drivers/src/ch32v20x_adc.c ****     }
 529:Drivers/src/ch32v20x_adc.c **** }
 931              		.loc 1 529 1
 932 0166 E9A8     		j	.L48
 933              	.L45:
 511:Drivers/src/ch32v20x_adc.c ****     {
 934              		.loc 1 511 12
 935 0168 0347A4FD 		lbu	a4,-38(s0)
 936 016c B147     		li	a5,12
 937 016e 63E6E706 		bgtu	a4,a5,.L47
 513:Drivers/src/ch32v20x_adc.c ****         tmpreg2 = RSQR2_SQ_Set << (5 * (Rank - 7));
 938              		.loc 1 513 17
 939 0172 8327C4FD 		lw	a5,-36(s0)
 940 0176 9C5B     		lw	a5,48(a5)
 941 0178 2326F4FE 		sw	a5,-20(s0)
 514:Drivers/src/ch32v20x_adc.c ****         tmpreg1 &= ~tmpreg2;
 942              		.loc 1 514 46
 943 017c 8347A4FD 		lbu	a5,-38(s0)
 944 0180 138797FF 		addi	a4,a5,-7
 514:Drivers/src/ch32v20x_adc.c ****         tmpreg1 &= ~tmpreg2;
 945              		.loc 1 514 38
 946 0184 BA87     		mv	a5,a4
 947 0186 8A07     		slli	a5,a5,2
 948 0188 BA97     		add	a5,a5,a4
 514:Drivers/src/ch32v20x_adc.c ****         tmpreg1 &= ~tmpreg2;
 949              		.loc 1 514 17
 950 018a 7D47     		li	a4,31
 951 018c B317F700 		sll	a5,a4,a5
 952 0190 2324F4FE 		sw	a5,-24(s0)
 515:Drivers/src/ch32v20x_adc.c ****         tmpreg2 = (uint32_t)ADC_Channel << (5 * (Rank - 7));
GAS LISTING C:\Users\SOLDER~1\AppData\Local\Temp\ccI3TRm9.s 			page 27


 953              		.loc 1 515 20
 954 0194 832784FE 		lw	a5,-24(s0)
 955 0198 93C7F7FF 		not	a5,a5
 515:Drivers/src/ch32v20x_adc.c ****         tmpreg2 = (uint32_t)ADC_Channel << (5 * (Rank - 7));
 956              		.loc 1 515 17
 957 019c 0327C4FE 		lw	a4,-20(s0)
 958 01a0 F98F     		and	a5,a4,a5
 959 01a2 2326F4FE 		sw	a5,-20(s0)
 516:Drivers/src/ch32v20x_adc.c ****         tmpreg1 |= tmpreg2;
 960              		.loc 1 516 19
 961 01a6 8346B4FD 		lbu	a3,-37(s0)
 516:Drivers/src/ch32v20x_adc.c ****         tmpreg1 |= tmpreg2;
 962              		.loc 1 516 55
 963 01aa 8347A4FD 		lbu	a5,-38(s0)
 964 01ae 138797FF 		addi	a4,a5,-7
 516:Drivers/src/ch32v20x_adc.c ****         tmpreg1 |= tmpreg2;
 965              		.loc 1 516 47
 966 01b2 BA87     		mv	a5,a4
 967 01b4 8A07     		slli	a5,a5,2
 968 01b6 BA97     		add	a5,a5,a4
 516:Drivers/src/ch32v20x_adc.c ****         tmpreg1 |= tmpreg2;
 969              		.loc 1 516 17
 970 01b8 B397F600 		sll	a5,a3,a5
 971 01bc 2324F4FE 		sw	a5,-24(s0)
 517:Drivers/src/ch32v20x_adc.c ****         ADCx->RSQR2 = tmpreg1;
 972              		.loc 1 517 17
 973 01c0 0327C4FE 		lw	a4,-20(s0)
 974 01c4 832784FE 		lw	a5,-24(s0)
 975 01c8 D98F     		or	a5,a4,a5
 976 01ca 2326F4FE 		sw	a5,-20(s0)
 518:Drivers/src/ch32v20x_adc.c ****     }
 977              		.loc 1 518 21
 978 01ce 8327C4FD 		lw	a5,-36(s0)
 979 01d2 0327C4FE 		lw	a4,-20(s0)
 980 01d6 98DB     		sw	a4,48(a5)
 981              		.loc 1 529 1
 982 01d8 A5A0     		j	.L48
 983              	.L47:
 522:Drivers/src/ch32v20x_adc.c ****         tmpreg2 = RSQR1_SQ_Set << (5 * (Rank - 13));
 984              		.loc 1 522 17
 985 01da 8327C4FD 		lw	a5,-36(s0)
 986 01de DC57     		lw	a5,44(a5)
 987 01e0 2326F4FE 		sw	a5,-20(s0)
 523:Drivers/src/ch32v20x_adc.c ****         tmpreg1 &= ~tmpreg2;
 988              		.loc 1 523 46
 989 01e4 8347A4FD 		lbu	a5,-38(s0)
 990 01e8 138737FF 		addi	a4,a5,-13
 523:Drivers/src/ch32v20x_adc.c ****         tmpreg1 &= ~tmpreg2;
 991              		.loc 1 523 38
 992 01ec BA87     		mv	a5,a4
 993 01ee 8A07     		slli	a5,a5,2
 994 01f0 BA97     		add	a5,a5,a4
 523:Drivers/src/ch32v20x_adc.c ****         tmpreg1 &= ~tmpreg2;
 995              		.loc 1 523 17
 996 01f2 7D47     		li	a4,31
 997 01f4 B317F700 		sll	a5,a4,a5
 998 01f8 2324F4FE 		sw	a5,-24(s0)
GAS LISTING C:\Users\SOLDER~1\AppData\Local\Temp\ccI3TRm9.s 			page 28


 524:Drivers/src/ch32v20x_adc.c ****         tmpreg2 = (uint32_t)ADC_Channel << (5 * (Rank - 13));
 999              		.loc 1 524 20
 1000 01fc 832784FE 		lw	a5,-24(s0)
 1001 0200 93C7F7FF 		not	a5,a5
 524:Drivers/src/ch32v20x_adc.c ****         tmpreg2 = (uint32_t)ADC_Channel << (5 * (Rank - 13));
 1002              		.loc 1 524 17
 1003 0204 0327C4FE 		lw	a4,-20(s0)
 1004 0208 F98F     		and	a5,a4,a5
 1005 020a 2326F4FE 		sw	a5,-20(s0)
 525:Drivers/src/ch32v20x_adc.c ****         tmpreg1 |= tmpreg2;
 1006              		.loc 1 525 19
 1007 020e 8346B4FD 		lbu	a3,-37(s0)
 525:Drivers/src/ch32v20x_adc.c ****         tmpreg1 |= tmpreg2;
 1008              		.loc 1 525 55
 1009 0212 8347A4FD 		lbu	a5,-38(s0)
 1010 0216 138737FF 		addi	a4,a5,-13
 525:Drivers/src/ch32v20x_adc.c ****         tmpreg1 |= tmpreg2;
 1011              		.loc 1 525 47
 1012 021a BA87     		mv	a5,a4
 1013 021c 8A07     		slli	a5,a5,2
 1014 021e BA97     		add	a5,a5,a4
 525:Drivers/src/ch32v20x_adc.c ****         tmpreg1 |= tmpreg2;
 1015              		.loc 1 525 17
 1016 0220 B397F600 		sll	a5,a3,a5
 1017 0224 2324F4FE 		sw	a5,-24(s0)
 526:Drivers/src/ch32v20x_adc.c ****         ADCx->RSQR1 = tmpreg1;
 1018              		.loc 1 526 17
 1019 0228 0327C4FE 		lw	a4,-20(s0)
 1020 022c 832784FE 		lw	a5,-24(s0)
 1021 0230 D98F     		or	a5,a4,a5
 1022 0232 2326F4FE 		sw	a5,-20(s0)
 527:Drivers/src/ch32v20x_adc.c ****     }
 1023              		.loc 1 527 21
 1024 0236 8327C4FD 		lw	a5,-36(s0)
 1025 023a 0327C4FE 		lw	a4,-20(s0)
 1026 023e D8D7     		sw	a4,44(a5)
 1027              	.L48:
 1028              		.loc 1 529 1
 1029 0240 0100     		nop
 1030 0242 3254     		lw	s0,44(sp)
 1031              		.cfi_restore 8
 1032              		.cfi_def_cfa 2, 48
 1033 0244 4561     		addi	sp,sp,48
 1034              		.cfi_def_cfa_offset 0
 1035 0246 8280     		jr	ra
 1036              		.cfi_endproc
 1037              	.LFE30:
 1039              		.section	.text.ADC_ExternalTrigConvCmd,"ax",@progbits
 1040              		.align	1
 1041              		.globl	ADC_ExternalTrigConvCmd
 1043              	ADC_ExternalTrigConvCmd:
 1044              	.LFB31:
 530:Drivers/src/ch32v20x_adc.c **** 
 531:Drivers/src/ch32v20x_adc.c **** /*********************************************************************
 532:Drivers/src/ch32v20x_adc.c ****  * @fn      ADC_ExternalTrigConvCmd
 533:Drivers/src/ch32v20x_adc.c ****  *
 534:Drivers/src/ch32v20x_adc.c ****  * @brief   Enables or disables the ADCx conversion through external trigger.
GAS LISTING C:\Users\SOLDER~1\AppData\Local\Temp\ccI3TRm9.s 			page 29


 535:Drivers/src/ch32v20x_adc.c ****  *
 536:Drivers/src/ch32v20x_adc.c ****  * @param   ADCx - where x can be 1 or 2 to select the ADC peripheral.
 537:Drivers/src/ch32v20x_adc.c ****  *          NewState - ENABLE or DISABLE.
 538:Drivers/src/ch32v20x_adc.c ****  *
 539:Drivers/src/ch32v20x_adc.c ****  * @return  None
 540:Drivers/src/ch32v20x_adc.c ****  */
 541:Drivers/src/ch32v20x_adc.c **** void ADC_ExternalTrigConvCmd(ADC_TypeDef *ADCx, FunctionalState NewState)
 542:Drivers/src/ch32v20x_adc.c **** {
 1045              		.loc 1 542 1
 1046              		.cfi_startproc
 1047 0000 0111     		addi	sp,sp,-32
 1048              		.cfi_def_cfa_offset 32
 1049 0002 22CE     		sw	s0,28(sp)
 1050              		.cfi_offset 8, -4
 1051 0004 0010     		addi	s0,sp,32
 1052              		.cfi_def_cfa 8, 0
 1053 0006 2326A4FE 		sw	a0,-20(s0)
 1054 000a 2324B4FE 		sw	a1,-24(s0)
 543:Drivers/src/ch32v20x_adc.c ****     if(NewState != DISABLE)
 1055              		.loc 1 543 7
 1056 000e 832784FE 		lw	a5,-24(s0)
 1057 0012 99CB     		beq	a5,zero,.L50
 544:Drivers/src/ch32v20x_adc.c ****     {
 545:Drivers/src/ch32v20x_adc.c ****         ADCx->CTLR2 |= CTLR2_EXTTRIG_Set;
 1058              		.loc 1 545 13
 1059 0014 8327C4FE 		lw	a5,-20(s0)
 1060 0018 9847     		lw	a4,8(a5)
 1061              		.loc 1 545 21
 1062 001a B7071000 		li	a5,1048576
 1063 001e 5D8F     		or	a4,a4,a5
 1064 0020 8327C4FE 		lw	a5,-20(s0)
 1065 0024 98C7     		sw	a4,8(a5)
 546:Drivers/src/ch32v20x_adc.c ****     }
 547:Drivers/src/ch32v20x_adc.c ****     else
 548:Drivers/src/ch32v20x_adc.c ****     {
 549:Drivers/src/ch32v20x_adc.c ****         ADCx->CTLR2 &= CTLR2_EXTTRIG_Reset;
 550:Drivers/src/ch32v20x_adc.c ****     }
 551:Drivers/src/ch32v20x_adc.c **** }
 1066              		.loc 1 551 1
 1067 0026 19A8     		j	.L52
 1068              	.L50:
 549:Drivers/src/ch32v20x_adc.c ****     }
 1069              		.loc 1 549 13
 1070 0028 8327C4FE 		lw	a5,-20(s0)
 1071 002c 9847     		lw	a4,8(a5)
 549:Drivers/src/ch32v20x_adc.c ****     }
 1072              		.loc 1 549 21
 1073 002e B707F0FF 		li	a5,-1048576
 1074 0032 FD17     		addi	a5,a5,-1
 1075 0034 7D8F     		and	a4,a4,a5
 1076 0036 8327C4FE 		lw	a5,-20(s0)
 1077 003a 98C7     		sw	a4,8(a5)
 1078              	.L52:
 1079              		.loc 1 551 1
 1080 003c 0100     		nop
 1081 003e 7244     		lw	s0,28(sp)
 1082              		.cfi_restore 8
GAS LISTING C:\Users\SOLDER~1\AppData\Local\Temp\ccI3TRm9.s 			page 30


 1083              		.cfi_def_cfa 2, 32
 1084 0040 0561     		addi	sp,sp,32
 1085              		.cfi_def_cfa_offset 0
 1086 0042 8280     		jr	ra
 1087              		.cfi_endproc
 1088              	.LFE31:
 1090              		.section	.text.ADC_GetConversionValue,"ax",@progbits
 1091              		.align	1
 1092              		.globl	ADC_GetConversionValue
 1094              	ADC_GetConversionValue:
 1095              	.LFB32:
 552:Drivers/src/ch32v20x_adc.c **** 
 553:Drivers/src/ch32v20x_adc.c **** /*********************************************************************
 554:Drivers/src/ch32v20x_adc.c ****  * @fn      ADC_GetConversionValue
 555:Drivers/src/ch32v20x_adc.c ****  *
 556:Drivers/src/ch32v20x_adc.c ****  * @brief   Returns the last ADCx conversion result data for regular channel.
 557:Drivers/src/ch32v20x_adc.c ****  *
 558:Drivers/src/ch32v20x_adc.c ****  * @param   ADCx - where x can be 1 or 2 to select the ADC peripheral.
 559:Drivers/src/ch32v20x_adc.c ****  *
 560:Drivers/src/ch32v20x_adc.c ****  * @return  ADCx->RDATAR - The Data conversion value.
 561:Drivers/src/ch32v20x_adc.c ****  */
 562:Drivers/src/ch32v20x_adc.c **** uint16_t ADC_GetConversionValue(ADC_TypeDef *ADCx)
 563:Drivers/src/ch32v20x_adc.c **** {
 1096              		.loc 1 563 1
 1097              		.cfi_startproc
 1098 0000 0111     		addi	sp,sp,-32
 1099              		.cfi_def_cfa_offset 32
 1100 0002 22CE     		sw	s0,28(sp)
 1101              		.cfi_offset 8, -4
 1102 0004 0010     		addi	s0,sp,32
 1103              		.cfi_def_cfa 8, 0
 1104 0006 2326A4FE 		sw	a0,-20(s0)
 564:Drivers/src/ch32v20x_adc.c ****     return (uint16_t)ADCx->RDATAR;
 1105              		.loc 1 564 26
 1106 000a 8327C4FE 		lw	a5,-20(s0)
 1107 000e FC47     		lw	a5,76(a5)
 1108              		.loc 1 564 12
 1109 0010 C207     		slli	a5,a5,16
 1110 0012 C183     		srli	a5,a5,16
 565:Drivers/src/ch32v20x_adc.c **** }
 1111              		.loc 1 565 1
 1112 0014 3E85     		mv	a0,a5
 1113 0016 7244     		lw	s0,28(sp)
 1114              		.cfi_restore 8
 1115              		.cfi_def_cfa 2, 32
 1116 0018 0561     		addi	sp,sp,32
 1117              		.cfi_def_cfa_offset 0
 1118 001a 8280     		jr	ra
 1119              		.cfi_endproc
 1120              	.LFE32:
 1122              		.section	.text.ADC_GetDualModeConversionValue,"ax",@progbits
 1123              		.align	1
 1124              		.globl	ADC_GetDualModeConversionValue
 1126              	ADC_GetDualModeConversionValue:
 1127              	.LFB33:
 566:Drivers/src/ch32v20x_adc.c **** 
 567:Drivers/src/ch32v20x_adc.c **** /*********************************************************************
GAS LISTING C:\Users\SOLDER~1\AppData\Local\Temp\ccI3TRm9.s 			page 31


 568:Drivers/src/ch32v20x_adc.c ****  * @fn      ADC_GetDualModeConversionValue
 569:Drivers/src/ch32v20x_adc.c ****  *
 570:Drivers/src/ch32v20x_adc.c ****  * @brief   Returns the last ADC1 and ADC2 conversion result data in dual mode.
 571:Drivers/src/ch32v20x_adc.c ****  *
 572:Drivers/src/ch32v20x_adc.c ****  * @return  RDATAR_ADDRESS - The Data conversion value.
 573:Drivers/src/ch32v20x_adc.c ****  */
 574:Drivers/src/ch32v20x_adc.c **** uint32_t ADC_GetDualModeConversionValue(void)
 575:Drivers/src/ch32v20x_adc.c **** {
 1128              		.loc 1 575 1
 1129              		.cfi_startproc
 1130 0000 4111     		addi	sp,sp,-16
 1131              		.cfi_def_cfa_offset 16
 1132 0002 22C6     		sw	s0,12(sp)
 1133              		.cfi_offset 8, -4
 1134 0004 0008     		addi	s0,sp,16
 1135              		.cfi_def_cfa 8, 0
 576:Drivers/src/ch32v20x_adc.c ****     return (*(__IO uint32_t *)RDATAR_ADDRESS);
 1136              		.loc 1 576 13
 1137 0006 B7270140 		li	a5,1073815552
 1138 000a 9387C744 		addi	a5,a5,1100
 1139 000e 9C43     		lw	a5,0(a5)
 577:Drivers/src/ch32v20x_adc.c **** }
 1140              		.loc 1 577 1
 1141 0010 3E85     		mv	a0,a5
 1142 0012 3244     		lw	s0,12(sp)
 1143              		.cfi_restore 8
 1144              		.cfi_def_cfa 2, 16
 1145 0014 4101     		addi	sp,sp,16
 1146              		.cfi_def_cfa_offset 0
 1147 0016 8280     		jr	ra
 1148              		.cfi_endproc
 1149              	.LFE33:
 1151              		.section	.text.ADC_AutoInjectedConvCmd,"ax",@progbits
 1152              		.align	1
 1153              		.globl	ADC_AutoInjectedConvCmd
 1155              	ADC_AutoInjectedConvCmd:
 1156              	.LFB34:
 578:Drivers/src/ch32v20x_adc.c **** 
 579:Drivers/src/ch32v20x_adc.c **** /*********************************************************************
 580:Drivers/src/ch32v20x_adc.c ****  * @fn      ADC_AutoInjectedConvCmd
 581:Drivers/src/ch32v20x_adc.c ****  *
 582:Drivers/src/ch32v20x_adc.c ****  * @brief   Enables or disables the selected ADC automatic injected group
 583:Drivers/src/ch32v20x_adc.c ****  *        conversion after regular one.
 584:Drivers/src/ch32v20x_adc.c ****  *
 585:Drivers/src/ch32v20x_adc.c ****  * @param   ADCx - where x can be 1 or 2 to select the ADC peripheral.
 586:Drivers/src/ch32v20x_adc.c ****  *          NewState - ENABLE or DISABLE.
 587:Drivers/src/ch32v20x_adc.c ****  *
 588:Drivers/src/ch32v20x_adc.c ****  * @return  None
 589:Drivers/src/ch32v20x_adc.c ****  */
 590:Drivers/src/ch32v20x_adc.c **** void ADC_AutoInjectedConvCmd(ADC_TypeDef *ADCx, FunctionalState NewState)
 591:Drivers/src/ch32v20x_adc.c **** {
 1157              		.loc 1 591 1
 1158              		.cfi_startproc
 1159 0000 0111     		addi	sp,sp,-32
 1160              		.cfi_def_cfa_offset 32
 1161 0002 22CE     		sw	s0,28(sp)
 1162              		.cfi_offset 8, -4
GAS LISTING C:\Users\SOLDER~1\AppData\Local\Temp\ccI3TRm9.s 			page 32


 1163 0004 0010     		addi	s0,sp,32
 1164              		.cfi_def_cfa 8, 0
 1165 0006 2326A4FE 		sw	a0,-20(s0)
 1166 000a 2324B4FE 		sw	a1,-24(s0)
 592:Drivers/src/ch32v20x_adc.c ****     if(NewState != DISABLE)
 1167              		.loc 1 592 7
 1168 000e 832784FE 		lw	a5,-24(s0)
 1169 0012 91CB     		beq	a5,zero,.L58
 593:Drivers/src/ch32v20x_adc.c ****     {
 594:Drivers/src/ch32v20x_adc.c ****         ADCx->CTLR1 |= CTLR1_JAUTO_Set;
 1170              		.loc 1 594 13
 1171 0014 8327C4FE 		lw	a5,-20(s0)
 1172 0018 DC43     		lw	a5,4(a5)
 1173              		.loc 1 594 21
 1174 001a 13E70740 		ori	a4,a5,1024
 1175 001e 8327C4FE 		lw	a5,-20(s0)
 1176 0022 D8C3     		sw	a4,4(a5)
 595:Drivers/src/ch32v20x_adc.c ****     }
 596:Drivers/src/ch32v20x_adc.c ****     else
 597:Drivers/src/ch32v20x_adc.c ****     {
 598:Drivers/src/ch32v20x_adc.c ****         ADCx->CTLR1 &= CTLR1_JAUTO_Reset;
 599:Drivers/src/ch32v20x_adc.c ****     }
 600:Drivers/src/ch32v20x_adc.c **** }
 1177              		.loc 1 600 1
 1178 0024 09A8     		j	.L60
 1179              	.L58:
 598:Drivers/src/ch32v20x_adc.c ****     }
 1180              		.loc 1 598 13
 1181 0026 8327C4FE 		lw	a5,-20(s0)
 1182 002a DC43     		lw	a5,4(a5)
 598:Drivers/src/ch32v20x_adc.c ****     }
 1183              		.loc 1 598 21
 1184 002c 13F7F7BF 		andi	a4,a5,-1025
 1185 0030 8327C4FE 		lw	a5,-20(s0)
 1186 0034 D8C3     		sw	a4,4(a5)
 1187              	.L60:
 1188              		.loc 1 600 1
 1189 0036 0100     		nop
 1190 0038 7244     		lw	s0,28(sp)
 1191              		.cfi_restore 8
 1192              		.cfi_def_cfa 2, 32
 1193 003a 0561     		addi	sp,sp,32
 1194              		.cfi_def_cfa_offset 0
 1195 003c 8280     		jr	ra
 1196              		.cfi_endproc
 1197              	.LFE34:
 1199              		.section	.text.ADC_InjectedDiscModeCmd,"ax",@progbits
 1200              		.align	1
 1201              		.globl	ADC_InjectedDiscModeCmd
 1203              	ADC_InjectedDiscModeCmd:
 1204              	.LFB35:
 601:Drivers/src/ch32v20x_adc.c **** 
 602:Drivers/src/ch32v20x_adc.c **** /*********************************************************************
 603:Drivers/src/ch32v20x_adc.c ****  * @fn      ADC_InjectedDiscModeCmd
 604:Drivers/src/ch32v20x_adc.c ****  *
 605:Drivers/src/ch32v20x_adc.c ****  * @brief   Enables or disables the discontinuous mode for injected group
 606:Drivers/src/ch32v20x_adc.c ****  *        channel for the specified ADC.
GAS LISTING C:\Users\SOLDER~1\AppData\Local\Temp\ccI3TRm9.s 			page 33


 607:Drivers/src/ch32v20x_adc.c ****  *
 608:Drivers/src/ch32v20x_adc.c ****  * @param   ADCx - where x can be 1 or 2 to select the ADC peripheral.
 609:Drivers/src/ch32v20x_adc.c ****  *          NewState - ENABLE or DISABLE.
 610:Drivers/src/ch32v20x_adc.c ****  *
 611:Drivers/src/ch32v20x_adc.c ****  * @return  None
 612:Drivers/src/ch32v20x_adc.c ****  */
 613:Drivers/src/ch32v20x_adc.c **** void ADC_InjectedDiscModeCmd(ADC_TypeDef *ADCx, FunctionalState NewState)
 614:Drivers/src/ch32v20x_adc.c **** {
 1205              		.loc 1 614 1
 1206              		.cfi_startproc
 1207 0000 0111     		addi	sp,sp,-32
 1208              		.cfi_def_cfa_offset 32
 1209 0002 22CE     		sw	s0,28(sp)
 1210              		.cfi_offset 8, -4
 1211 0004 0010     		addi	s0,sp,32
 1212              		.cfi_def_cfa 8, 0
 1213 0006 2326A4FE 		sw	a0,-20(s0)
 1214 000a 2324B4FE 		sw	a1,-24(s0)
 615:Drivers/src/ch32v20x_adc.c ****     if(NewState != DISABLE)
 1215              		.loc 1 615 7
 1216 000e 832784FE 		lw	a5,-24(s0)
 1217 0012 91CB     		beq	a5,zero,.L62
 616:Drivers/src/ch32v20x_adc.c ****     {
 617:Drivers/src/ch32v20x_adc.c ****         ADCx->CTLR1 |= CTLR1_JDISCEN_Set;
 1218              		.loc 1 617 13
 1219 0014 8327C4FE 		lw	a5,-20(s0)
 1220 0018 D843     		lw	a4,4(a5)
 1221              		.loc 1 617 21
 1222 001a 8567     		li	a5,4096
 1223 001c 5D8F     		or	a4,a4,a5
 1224 001e 8327C4FE 		lw	a5,-20(s0)
 1225 0022 D8C3     		sw	a4,4(a5)
 618:Drivers/src/ch32v20x_adc.c ****     }
 619:Drivers/src/ch32v20x_adc.c ****     else
 620:Drivers/src/ch32v20x_adc.c ****     {
 621:Drivers/src/ch32v20x_adc.c ****         ADCx->CTLR1 &= CTLR1_JDISCEN_Reset;
 622:Drivers/src/ch32v20x_adc.c ****     }
 623:Drivers/src/ch32v20x_adc.c **** }
 1226              		.loc 1 623 1
 1227 0024 11A8     		j	.L64
 1228              	.L62:
 621:Drivers/src/ch32v20x_adc.c ****     }
 1229              		.loc 1 621 13
 1230 0026 8327C4FE 		lw	a5,-20(s0)
 1231 002a D843     		lw	a4,4(a5)
 621:Drivers/src/ch32v20x_adc.c ****     }
 1232              		.loc 1 621 21
 1233 002c FD77     		li	a5,-4096
 1234 002e FD17     		addi	a5,a5,-1
 1235 0030 7D8F     		and	a4,a4,a5
 1236 0032 8327C4FE 		lw	a5,-20(s0)
 1237 0036 D8C3     		sw	a4,4(a5)
 1238              	.L64:
 1239              		.loc 1 623 1
 1240 0038 0100     		nop
 1241 003a 7244     		lw	s0,28(sp)
 1242              		.cfi_restore 8
GAS LISTING C:\Users\SOLDER~1\AppData\Local\Temp\ccI3TRm9.s 			page 34


 1243              		.cfi_def_cfa 2, 32
 1244 003c 0561     		addi	sp,sp,32
 1245              		.cfi_def_cfa_offset 0
 1246 003e 8280     		jr	ra
 1247              		.cfi_endproc
 1248              	.LFE35:
 1250              		.section	.text.ADC_ExternalTrigInjectedConvConfig,"ax",@progbits
 1251              		.align	1
 1252              		.globl	ADC_ExternalTrigInjectedConvConfig
 1254              	ADC_ExternalTrigInjectedConvConfig:
 1255              	.LFB36:
 624:Drivers/src/ch32v20x_adc.c **** 
 625:Drivers/src/ch32v20x_adc.c **** /*********************************************************************
 626:Drivers/src/ch32v20x_adc.c ****  * @fn      ADC_ExternalTrigInjectedConvConfig
 627:Drivers/src/ch32v20x_adc.c ****  *
 628:Drivers/src/ch32v20x_adc.c ****  * @brief   Configures the ADCx external trigger for injected channels conversion.
 629:Drivers/src/ch32v20x_adc.c ****  *
 630:Drivers/src/ch32v20x_adc.c ****  * @param   ADCx - where x can be 1 or 2 to select the ADC peripheral.
 631:Drivers/src/ch32v20x_adc.c ****  *          ADC_ExternalTrigInjecConv - specifies the ADC trigger to start
 632:Drivers/src/ch32v20x_adc.c ****  *        injected conversion.
 633:Drivers/src/ch32v20x_adc.c ****  *            ADC_ExternalTrigInjecConv_T1_TRGO - Timer1 TRGO event selected.
 634:Drivers/src/ch32v20x_adc.c ****  *            ADC_ExternalTrigInjecConv_T1_CC4 - Timer1 capture compare4 selected.
 635:Drivers/src/ch32v20x_adc.c ****  *            ADC_ExternalTrigInjecConv_T2_TRGO - Timer2 TRGO event selected.
 636:Drivers/src/ch32v20x_adc.c ****  *            ADC_ExternalTrigInjecConv_T2_CC1 - Timer2 capture compare1 selected.
 637:Drivers/src/ch32v20x_adc.c ****  *            ADC_ExternalTrigInjecConv_T3_CC4 - Timer3 capture compare4 selected.
 638:Drivers/src/ch32v20x_adc.c ****  *            ADC_ExternalTrigInjecConv_T4_TRGO - Timer4 TRGO event selected.
 639:Drivers/src/ch32v20x_adc.c ****  *            ADC_ExternalTrigInjecConv_Ext_IT15_TIM8_CC4 - External interrupt
 640:Drivers/src/ch32v20x_adc.c ****  *        line 15 event selected.
 641:Drivers/src/ch32v20x_adc.c ****  *            ADC_ExternalTrigInjecConv_None: Injected conversion started
 642:Drivers/src/ch32v20x_adc.c ****  *        by software and not by external trigger.
 643:Drivers/src/ch32v20x_adc.c ****  *
 644:Drivers/src/ch32v20x_adc.c ****  * @return  None
 645:Drivers/src/ch32v20x_adc.c ****  */
 646:Drivers/src/ch32v20x_adc.c **** void ADC_ExternalTrigInjectedConvConfig(ADC_TypeDef *ADCx, uint32_t ADC_ExternalTrigInjecConv)
 647:Drivers/src/ch32v20x_adc.c **** {
 1256              		.loc 1 647 1
 1257              		.cfi_startproc
 1258 0000 7971     		addi	sp,sp,-48
 1259              		.cfi_def_cfa_offset 48
 1260 0002 22D6     		sw	s0,44(sp)
 1261              		.cfi_offset 8, -4
 1262 0004 0018     		addi	s0,sp,48
 1263              		.cfi_def_cfa 8, 0
 1264 0006 232EA4FC 		sw	a0,-36(s0)
 1265 000a 232CB4FC 		sw	a1,-40(s0)
 648:Drivers/src/ch32v20x_adc.c ****     uint32_t tmpreg = 0;
 1266              		.loc 1 648 14
 1267 000e 232604FE 		sw	zero,-20(s0)
 649:Drivers/src/ch32v20x_adc.c **** 
 650:Drivers/src/ch32v20x_adc.c ****     tmpreg = ADCx->CTLR2;
 1268              		.loc 1 650 12
 1269 0012 8327C4FD 		lw	a5,-36(s0)
 1270 0016 9C47     		lw	a5,8(a5)
 1271 0018 2326F4FE 		sw	a5,-20(s0)
 651:Drivers/src/ch32v20x_adc.c ****     tmpreg &= CTLR2_JEXTSEL_Reset;
 1272              		.loc 1 651 12
 1273 001c 0327C4FE 		lw	a4,-20(s0)
GAS LISTING C:\Users\SOLDER~1\AppData\Local\Temp\ccI3TRm9.s 			page 35


 1274 0020 E577     		li	a5,-28672
 1275 0022 FD17     		addi	a5,a5,-1
 1276 0024 F98F     		and	a5,a4,a5
 1277 0026 2326F4FE 		sw	a5,-20(s0)
 652:Drivers/src/ch32v20x_adc.c ****     tmpreg |= ADC_ExternalTrigInjecConv;
 1278              		.loc 1 652 12
 1279 002a 0327C4FE 		lw	a4,-20(s0)
 1280 002e 832784FD 		lw	a5,-40(s0)
 1281 0032 D98F     		or	a5,a4,a5
 1282 0034 2326F4FE 		sw	a5,-20(s0)
 653:Drivers/src/ch32v20x_adc.c ****     ADCx->CTLR2 = tmpreg;
 1283              		.loc 1 653 17
 1284 0038 8327C4FD 		lw	a5,-36(s0)
 1285 003c 0327C4FE 		lw	a4,-20(s0)
 1286 0040 98C7     		sw	a4,8(a5)
 654:Drivers/src/ch32v20x_adc.c **** }
 1287              		.loc 1 654 1
 1288 0042 0100     		nop
 1289 0044 3254     		lw	s0,44(sp)
 1290              		.cfi_restore 8
 1291              		.cfi_def_cfa 2, 48
 1292 0046 4561     		addi	sp,sp,48
 1293              		.cfi_def_cfa_offset 0
 1294 0048 8280     		jr	ra
 1295              		.cfi_endproc
 1296              	.LFE36:
 1298              		.section	.text.ADC_ExternalTrigInjectedConvCmd,"ax",@progbits
 1299              		.align	1
 1300              		.globl	ADC_ExternalTrigInjectedConvCmd
 1302              	ADC_ExternalTrigInjectedConvCmd:
 1303              	.LFB37:
 655:Drivers/src/ch32v20x_adc.c **** 
 656:Drivers/src/ch32v20x_adc.c **** /*********************************************************************
 657:Drivers/src/ch32v20x_adc.c ****  * @fn      ADC_ExternalTrigInjectedConvCmd
 658:Drivers/src/ch32v20x_adc.c ****  *
 659:Drivers/src/ch32v20x_adc.c ****  * @brief   Enables or disables the ADCx injected channels conversion through
 660:Drivers/src/ch32v20x_adc.c ****  *        external trigger.
 661:Drivers/src/ch32v20x_adc.c ****  *
 662:Drivers/src/ch32v20x_adc.c ****  * @param   ADCx - where x can be 1 or 2 to select the ADC peripheral.
 663:Drivers/src/ch32v20x_adc.c ****  *          NewState - ENABLE or DISABLE.
 664:Drivers/src/ch32v20x_adc.c ****  *
 665:Drivers/src/ch32v20x_adc.c ****  * @return  None
 666:Drivers/src/ch32v20x_adc.c ****  */
 667:Drivers/src/ch32v20x_adc.c **** void ADC_ExternalTrigInjectedConvCmd(ADC_TypeDef *ADCx, FunctionalState NewState)
 668:Drivers/src/ch32v20x_adc.c **** {
 1304              		.loc 1 668 1
 1305              		.cfi_startproc
 1306 0000 0111     		addi	sp,sp,-32
 1307              		.cfi_def_cfa_offset 32
 1308 0002 22CE     		sw	s0,28(sp)
 1309              		.cfi_offset 8, -4
 1310 0004 0010     		addi	s0,sp,32
 1311              		.cfi_def_cfa 8, 0
 1312 0006 2326A4FE 		sw	a0,-20(s0)
 1313 000a 2324B4FE 		sw	a1,-24(s0)
 669:Drivers/src/ch32v20x_adc.c ****     if(NewState != DISABLE)
 1314              		.loc 1 669 7
GAS LISTING C:\Users\SOLDER~1\AppData\Local\Temp\ccI3TRm9.s 			page 36


 1315 000e 832784FE 		lw	a5,-24(s0)
 1316 0012 91CB     		beq	a5,zero,.L67
 670:Drivers/src/ch32v20x_adc.c ****     {
 671:Drivers/src/ch32v20x_adc.c ****         ADCx->CTLR2 |= CTLR2_JEXTTRIG_Set;
 1317              		.loc 1 671 13
 1318 0014 8327C4FE 		lw	a5,-20(s0)
 1319 0018 9847     		lw	a4,8(a5)
 1320              		.loc 1 671 21
 1321 001a A167     		li	a5,32768
 1322 001c 5D8F     		or	a4,a4,a5
 1323 001e 8327C4FE 		lw	a5,-20(s0)
 1324 0022 98C7     		sw	a4,8(a5)
 672:Drivers/src/ch32v20x_adc.c ****     }
 673:Drivers/src/ch32v20x_adc.c ****     else
 674:Drivers/src/ch32v20x_adc.c ****     {
 675:Drivers/src/ch32v20x_adc.c ****         ADCx->CTLR2 &= CTLR2_JEXTTRIG_Reset;
 676:Drivers/src/ch32v20x_adc.c ****     }
 677:Drivers/src/ch32v20x_adc.c **** }
 1325              		.loc 1 677 1
 1326 0024 11A8     		j	.L69
 1327              	.L67:
 675:Drivers/src/ch32v20x_adc.c ****     }
 1328              		.loc 1 675 13
 1329 0026 8327C4FE 		lw	a5,-20(s0)
 1330 002a 9847     		lw	a4,8(a5)
 675:Drivers/src/ch32v20x_adc.c ****     }
 1331              		.loc 1 675 21
 1332 002c E177     		li	a5,-32768
 1333 002e FD17     		addi	a5,a5,-1
 1334 0030 7D8F     		and	a4,a4,a5
 1335 0032 8327C4FE 		lw	a5,-20(s0)
 1336 0036 98C7     		sw	a4,8(a5)
 1337              	.L69:
 1338              		.loc 1 677 1
 1339 0038 0100     		nop
 1340 003a 7244     		lw	s0,28(sp)
 1341              		.cfi_restore 8
 1342              		.cfi_def_cfa 2, 32
 1343 003c 0561     		addi	sp,sp,32
 1344              		.cfi_def_cfa_offset 0
 1345 003e 8280     		jr	ra
 1346              		.cfi_endproc
 1347              	.LFE37:
 1349              		.section	.text.ADC_SoftwareStartInjectedConvCmd,"ax",@progbits
 1350              		.align	1
 1351              		.globl	ADC_SoftwareStartInjectedConvCmd
 1353              	ADC_SoftwareStartInjectedConvCmd:
 1354              	.LFB38:
 678:Drivers/src/ch32v20x_adc.c **** 
 679:Drivers/src/ch32v20x_adc.c **** /*********************************************************************
 680:Drivers/src/ch32v20x_adc.c ****  * @fn      ADC_SoftwareStartInjectedConvCmd
 681:Drivers/src/ch32v20x_adc.c ****  *
 682:Drivers/src/ch32v20x_adc.c ****  * @brief   Enables or disables the selected ADC start of the injected
 683:Drivers/src/ch32v20x_adc.c ****  *        channels conversion.
 684:Drivers/src/ch32v20x_adc.c ****  *
 685:Drivers/src/ch32v20x_adc.c ****  * @param   ADCx - where x can be 1 or 2 to select the ADC peripheral.
 686:Drivers/src/ch32v20x_adc.c ****  *          NewState - ENABLE or DISABLE.
GAS LISTING C:\Users\SOLDER~1\AppData\Local\Temp\ccI3TRm9.s 			page 37


 687:Drivers/src/ch32v20x_adc.c ****  *
 688:Drivers/src/ch32v20x_adc.c ****  * @return  None
 689:Drivers/src/ch32v20x_adc.c ****  */
 690:Drivers/src/ch32v20x_adc.c **** void ADC_SoftwareStartInjectedConvCmd(ADC_TypeDef *ADCx, FunctionalState NewState)
 691:Drivers/src/ch32v20x_adc.c **** {
 1355              		.loc 1 691 1
 1356              		.cfi_startproc
 1357 0000 0111     		addi	sp,sp,-32
 1358              		.cfi_def_cfa_offset 32
 1359 0002 22CE     		sw	s0,28(sp)
 1360              		.cfi_offset 8, -4
 1361 0004 0010     		addi	s0,sp,32
 1362              		.cfi_def_cfa 8, 0
 1363 0006 2326A4FE 		sw	a0,-20(s0)
 1364 000a 2324B4FE 		sw	a1,-24(s0)
 692:Drivers/src/ch32v20x_adc.c ****     if(NewState != DISABLE)
 1365              		.loc 1 692 7
 1366 000e 832784FE 		lw	a5,-24(s0)
 1367 0012 99CB     		beq	a5,zero,.L71
 693:Drivers/src/ch32v20x_adc.c ****     {
 694:Drivers/src/ch32v20x_adc.c ****         ADCx->CTLR2 |= CTLR2_JEXTTRIG_JSWSTART_Set;
 1368              		.loc 1 694 13
 1369 0014 8327C4FE 		lw	a5,-20(s0)
 1370 0018 9847     		lw	a4,8(a5)
 1371              		.loc 1 694 21
 1372 001a B7872000 		li	a5,2129920
 1373 001e 5D8F     		or	a4,a4,a5
 1374 0020 8327C4FE 		lw	a5,-20(s0)
 1375 0024 98C7     		sw	a4,8(a5)
 695:Drivers/src/ch32v20x_adc.c ****     }
 696:Drivers/src/ch32v20x_adc.c ****     else
 697:Drivers/src/ch32v20x_adc.c ****     {
 698:Drivers/src/ch32v20x_adc.c ****         ADCx->CTLR2 &= CTLR2_JEXTTRIG_JSWSTART_Reset;
 699:Drivers/src/ch32v20x_adc.c ****     }
 700:Drivers/src/ch32v20x_adc.c **** }
 1376              		.loc 1 700 1
 1377 0026 19A8     		j	.L73
 1378              	.L71:
 698:Drivers/src/ch32v20x_adc.c ****     }
 1379              		.loc 1 698 13
 1380 0028 8327C4FE 		lw	a5,-20(s0)
 1381 002c 9847     		lw	a4,8(a5)
 698:Drivers/src/ch32v20x_adc.c ****     }
 1382              		.loc 1 698 21
 1383 002e B787DFFF 		li	a5,-2129920
 1384 0032 FD17     		addi	a5,a5,-1
 1385 0034 7D8F     		and	a4,a4,a5
 1386 0036 8327C4FE 		lw	a5,-20(s0)
 1387 003a 98C7     		sw	a4,8(a5)
 1388              	.L73:
 1389              		.loc 1 700 1
 1390 003c 0100     		nop
 1391 003e 7244     		lw	s0,28(sp)
 1392              		.cfi_restore 8
 1393              		.cfi_def_cfa 2, 32
 1394 0040 0561     		addi	sp,sp,32
 1395              		.cfi_def_cfa_offset 0
GAS LISTING C:\Users\SOLDER~1\AppData\Local\Temp\ccI3TRm9.s 			page 38


 1396 0042 8280     		jr	ra
 1397              		.cfi_endproc
 1398              	.LFE38:
 1400              		.section	.text.ADC_GetSoftwareStartInjectedConvCmdStatus,"ax",@progbits
 1401              		.align	1
 1402              		.globl	ADC_GetSoftwareStartInjectedConvCmdStatus
 1404              	ADC_GetSoftwareStartInjectedConvCmdStatus:
 1405              	.LFB39:
 701:Drivers/src/ch32v20x_adc.c **** 
 702:Drivers/src/ch32v20x_adc.c **** /*********************************************************************
 703:Drivers/src/ch32v20x_adc.c ****  * @fn      ADC_GetSoftwareStartInjectedConvCmdStatus
 704:Drivers/src/ch32v20x_adc.c ****  *
 705:Drivers/src/ch32v20x_adc.c ****  * @brief   Gets the selected ADC Software start injected conversion Status.
 706:Drivers/src/ch32v20x_adc.c ****  *
 707:Drivers/src/ch32v20x_adc.c ****  * @param   ADCx - where x can be 1 or 2 to select the ADC peripheral.
 708:Drivers/src/ch32v20x_adc.c ****  *
 709:Drivers/src/ch32v20x_adc.c ****  * @return  FlagStatus: SET or RESET.
 710:Drivers/src/ch32v20x_adc.c ****  */
 711:Drivers/src/ch32v20x_adc.c **** FlagStatus ADC_GetSoftwareStartInjectedConvCmdStatus(ADC_TypeDef *ADCx)
 712:Drivers/src/ch32v20x_adc.c **** {
 1406              		.loc 1 712 1
 1407              		.cfi_startproc
 1408 0000 7971     		addi	sp,sp,-48
 1409              		.cfi_def_cfa_offset 48
 1410 0002 22D6     		sw	s0,44(sp)
 1411              		.cfi_offset 8, -4
 1412 0004 0018     		addi	s0,sp,48
 1413              		.cfi_def_cfa 8, 0
 1414 0006 232EA4FC 		sw	a0,-36(s0)
 713:Drivers/src/ch32v20x_adc.c ****     FlagStatus bitstatus = RESET;
 1415              		.loc 1 713 16
 1416 000a 232604FE 		sw	zero,-20(s0)
 714:Drivers/src/ch32v20x_adc.c **** 
 715:Drivers/src/ch32v20x_adc.c ****     if((ADCx->CTLR2 & CTLR2_JSWSTART_Set) != (uint32_t)RESET)
 1417              		.loc 1 715 13
 1418 000e 8327C4FD 		lw	a5,-36(s0)
 1419 0012 9847     		lw	a4,8(a5)
 1420              		.loc 1 715 21
 1421 0014 B7072000 		li	a5,2097152
 1422 0018 F98F     		and	a5,a4,a5
 1423              		.loc 1 715 7
 1424 001a 89C7     		beq	a5,zero,.L75
 716:Drivers/src/ch32v20x_adc.c ****     {
 717:Drivers/src/ch32v20x_adc.c ****         bitstatus = SET;
 1425              		.loc 1 717 19
 1426 001c 8547     		li	a5,1
 1427 001e 2326F4FE 		sw	a5,-20(s0)
 1428 0022 19A0     		j	.L76
 1429              	.L75:
 718:Drivers/src/ch32v20x_adc.c ****     }
 719:Drivers/src/ch32v20x_adc.c ****     else
 720:Drivers/src/ch32v20x_adc.c ****     {
 721:Drivers/src/ch32v20x_adc.c ****         bitstatus = RESET;
 1430              		.loc 1 721 19
 1431 0024 232604FE 		sw	zero,-20(s0)
 1432              	.L76:
 722:Drivers/src/ch32v20x_adc.c ****     }
GAS LISTING C:\Users\SOLDER~1\AppData\Local\Temp\ccI3TRm9.s 			page 39


 723:Drivers/src/ch32v20x_adc.c **** 
 724:Drivers/src/ch32v20x_adc.c ****     return bitstatus;
 1433              		.loc 1 724 12
 1434 0028 8327C4FE 		lw	a5,-20(s0)
 725:Drivers/src/ch32v20x_adc.c **** }
 1435              		.loc 1 725 1
 1436 002c 3E85     		mv	a0,a5
 1437 002e 3254     		lw	s0,44(sp)
 1438              		.cfi_restore 8
 1439              		.cfi_def_cfa 2, 48
 1440 0030 4561     		addi	sp,sp,48
 1441              		.cfi_def_cfa_offset 0
 1442 0032 8280     		jr	ra
 1443              		.cfi_endproc
 1444              	.LFE39:
 1446              		.section	.text.ADC_InjectedChannelConfig,"ax",@progbits
 1447              		.align	1
 1448              		.globl	ADC_InjectedChannelConfig
 1450              	ADC_InjectedChannelConfig:
 1451              	.LFB40:
 726:Drivers/src/ch32v20x_adc.c **** 
 727:Drivers/src/ch32v20x_adc.c **** /*********************************************************************
 728:Drivers/src/ch32v20x_adc.c ****  * @fn      ADC_InjectedChannelConfig
 729:Drivers/src/ch32v20x_adc.c ****  *
 730:Drivers/src/ch32v20x_adc.c ****  * @brief   Configures for the selected ADC injected channel its corresponding
 731:Drivers/src/ch32v20x_adc.c ****  *        rank in the sequencer and its sample time.
 732:Drivers/src/ch32v20x_adc.c ****  *
 733:Drivers/src/ch32v20x_adc.c ****  * @param   ADCx - where x can be 1 or 2 to select the ADC peripheral.
 734:Drivers/src/ch32v20x_adc.c ****  *          ADC_Channel - the ADC channel to configure.
 735:Drivers/src/ch32v20x_adc.c ****  *            ADC_Channel_0 - ADC Channel0 selected.
 736:Drivers/src/ch32v20x_adc.c ****  *            ADC_Channel_1 - ADC Channel1 selected.
 737:Drivers/src/ch32v20x_adc.c ****  *            ADC_Channel_2 - ADC Channel2 selected.
 738:Drivers/src/ch32v20x_adc.c ****  *            ADC_Channel_3 - ADC Channel3 selected.
 739:Drivers/src/ch32v20x_adc.c ****  *            ADC_Channel_4 - ADC Channel4 selected.
 740:Drivers/src/ch32v20x_adc.c ****  *            ADC_Channel_5 - ADC Channel5 selected.
 741:Drivers/src/ch32v20x_adc.c ****  *            ADC_Channel_6 - ADC Channel6 selected.
 742:Drivers/src/ch32v20x_adc.c ****  *            ADC_Channel_7 - ADC Channel7 selected.
 743:Drivers/src/ch32v20x_adc.c ****  *            ADC_Channel_8 - ADC Channel8 selected.
 744:Drivers/src/ch32v20x_adc.c ****  *            ADC_Channel_9 - ADC Channel9 selected.
 745:Drivers/src/ch32v20x_adc.c ****  *            ADC_Channel_10 - ADC Channel10 selected.
 746:Drivers/src/ch32v20x_adc.c ****  *            ADC_Channel_11 - ADC Channel11 selected.
 747:Drivers/src/ch32v20x_adc.c ****  *            ADC_Channel_12 - ADC Channel12 selected.
 748:Drivers/src/ch32v20x_adc.c ****  *            ADC_Channel_13 - ADC Channel13 selected.
 749:Drivers/src/ch32v20x_adc.c ****  *            ADC_Channel_14 - ADC Channel14 selected.
 750:Drivers/src/ch32v20x_adc.c ****  *            ADC_Channel_15 - ADC Channel15 selected.
 751:Drivers/src/ch32v20x_adc.c ****  *            ADC_Channel_16 - ADC Channel16 selected.
 752:Drivers/src/ch32v20x_adc.c ****  *            ADC_Channel_17 - ADC Channel17 selected.
 753:Drivers/src/ch32v20x_adc.c ****  *          Rank - The rank in the regular group sequencer.
 754:Drivers/src/ch32v20x_adc.c ****  *            This parameter must be between 1 to 4.
 755:Drivers/src/ch32v20x_adc.c ****  *          ADC_SampleTime - The sample time value to be set for the selected channel.
 756:Drivers/src/ch32v20x_adc.c ****  *            ADC_SampleTime_1Cycles5 - Sample time equal to 1.5 cycles.
 757:Drivers/src/ch32v20x_adc.c ****  *            ADC_SampleTime_7Cycles5 - Sample time equal to 7.5 cycles.
 758:Drivers/src/ch32v20x_adc.c ****  *            ADC_SampleTime_13Cycles5 - Sample time equal to 13.5 cycles.
 759:Drivers/src/ch32v20x_adc.c ****  *            ADC_SampleTime_28Cycles5 - Sample time equal to 28.5 cycles.
 760:Drivers/src/ch32v20x_adc.c ****  *            ADC_SampleTime_41Cycles5 - Sample time equal to 41.5 cycles.
 761:Drivers/src/ch32v20x_adc.c ****  *            ADC_SampleTime_55Cycles5 - Sample time equal to 55.5 cycles.
 762:Drivers/src/ch32v20x_adc.c ****  *            ADC_SampleTime_71Cycles5 - Sample time equal to 71.5 cycles.
GAS LISTING C:\Users\SOLDER~1\AppData\Local\Temp\ccI3TRm9.s 			page 40


 763:Drivers/src/ch32v20x_adc.c ****  *            ADC_SampleTime_239Cycles5 - Sample time equal to 239.5 cycles.
 764:Drivers/src/ch32v20x_adc.c ****  *
 765:Drivers/src/ch32v20x_adc.c ****  * @return  None
 766:Drivers/src/ch32v20x_adc.c ****  */
 767:Drivers/src/ch32v20x_adc.c **** void ADC_InjectedChannelConfig(ADC_TypeDef *ADCx, uint8_t ADC_Channel, uint8_t Rank, uint8_t ADC_Sa
 768:Drivers/src/ch32v20x_adc.c **** {
 1452              		.loc 1 768 1
 1453              		.cfi_startproc
 1454 0000 7971     		addi	sp,sp,-48
 1455              		.cfi_def_cfa_offset 48
 1456 0002 22D6     		sw	s0,44(sp)
 1457              		.cfi_offset 8, -4
 1458 0004 0018     		addi	s0,sp,48
 1459              		.cfi_def_cfa 8, 0
 1460 0006 232EA4FC 		sw	a0,-36(s0)
 1461 000a AE87     		mv	a5,a1
 1462 000c 3687     		mv	a4,a3
 1463 000e A30DF4FC 		sb	a5,-37(s0)
 1464 0012 B287     		mv	a5,a2
 1465 0014 230DF4FC 		sb	a5,-38(s0)
 1466 0018 BA87     		mv	a5,a4
 1467 001a A30CF4FC 		sb	a5,-39(s0)
 769:Drivers/src/ch32v20x_adc.c ****     uint32_t tmpreg1 = 0, tmpreg2 = 0, tmpreg3 = 0;
 1468              		.loc 1 769 14
 1469 001e 232604FE 		sw	zero,-20(s0)
 1470              		.loc 1 769 27
 1471 0022 232404FE 		sw	zero,-24(s0)
 1472              		.loc 1 769 40
 1473 0026 232204FE 		sw	zero,-28(s0)
 770:Drivers/src/ch32v20x_adc.c **** 
 771:Drivers/src/ch32v20x_adc.c ****     if(ADC_Channel > ADC_Channel_9)
 1474              		.loc 1 771 7
 1475 002a 0347B4FD 		lbu	a4,-37(s0)
 1476 002e A547     		li	a5,9
 1477 0030 63F6E706 		bleu	a4,a5,.L79
 772:Drivers/src/ch32v20x_adc.c ****     {
 773:Drivers/src/ch32v20x_adc.c ****         tmpreg1 = ADCx->SAMPTR1;
 1478              		.loc 1 773 17
 1479 0034 8327C4FD 		lw	a5,-36(s0)
 1480 0038 DC47     		lw	a5,12(a5)
 1481 003a 2326F4FE 		sw	a5,-20(s0)
 774:Drivers/src/ch32v20x_adc.c ****         tmpreg2 = SAMPTR1_SMP_Set << (3 * (ADC_Channel - 10));
 1482              		.loc 1 774 56
 1483 003e 8347B4FD 		lbu	a5,-37(s0)
 1484 0042 138767FF 		addi	a4,a5,-10
 1485              		.loc 1 774 41
 1486 0046 BA87     		mv	a5,a4
 1487 0048 8607     		slli	a5,a5,1
 1488 004a BA97     		add	a5,a5,a4
 1489              		.loc 1 774 17
 1490 004c 1D47     		li	a4,7
 1491 004e B317F700 		sll	a5,a4,a5
 1492 0052 2324F4FE 		sw	a5,-24(s0)
 775:Drivers/src/ch32v20x_adc.c ****         tmpreg1 &= ~tmpreg2;
 1493              		.loc 1 775 20
 1494 0056 832784FE 		lw	a5,-24(s0)
 1495 005a 93C7F7FF 		not	a5,a5
GAS LISTING C:\Users\SOLDER~1\AppData\Local\Temp\ccI3TRm9.s 			page 41


 1496              		.loc 1 775 17
 1497 005e 0327C4FE 		lw	a4,-20(s0)
 1498 0062 F98F     		and	a5,a4,a5
 1499 0064 2326F4FE 		sw	a5,-20(s0)
 776:Drivers/src/ch32v20x_adc.c ****         tmpreg2 = (uint32_t)ADC_SampleTime << (3 * (ADC_Channel - 10));
 1500              		.loc 1 776 19
 1501 0068 834694FD 		lbu	a3,-39(s0)
 1502              		.loc 1 776 65
 1503 006c 8347B4FD 		lbu	a5,-37(s0)
 1504 0070 138767FF 		addi	a4,a5,-10
 1505              		.loc 1 776 50
 1506 0074 BA87     		mv	a5,a4
 1507 0076 8607     		slli	a5,a5,1
 1508 0078 BA97     		add	a5,a5,a4
 1509              		.loc 1 776 17
 1510 007a B397F600 		sll	a5,a3,a5
 1511 007e 2324F4FE 		sw	a5,-24(s0)
 777:Drivers/src/ch32v20x_adc.c ****         tmpreg1 |= tmpreg2;
 1512              		.loc 1 777 17
 1513 0082 0327C4FE 		lw	a4,-20(s0)
 1514 0086 832784FE 		lw	a5,-24(s0)
 1515 008a D98F     		or	a5,a4,a5
 1516 008c 2326F4FE 		sw	a5,-20(s0)
 778:Drivers/src/ch32v20x_adc.c ****         ADCx->SAMPTR1 = tmpreg1;
 1517              		.loc 1 778 23
 1518 0090 8327C4FD 		lw	a5,-36(s0)
 1519 0094 0327C4FE 		lw	a4,-20(s0)
 1520 0098 D8C7     		sw	a4,12(a5)
 1521 009a 85A0     		j	.L80
 1522              	.L79:
 779:Drivers/src/ch32v20x_adc.c ****     }
 780:Drivers/src/ch32v20x_adc.c ****     else
 781:Drivers/src/ch32v20x_adc.c ****     {
 782:Drivers/src/ch32v20x_adc.c ****         tmpreg1 = ADCx->SAMPTR2;
 1523              		.loc 1 782 17
 1524 009c 8327C4FD 		lw	a5,-36(s0)
 1525 00a0 9C4B     		lw	a5,16(a5)
 1526 00a2 2326F4FE 		sw	a5,-20(s0)
 783:Drivers/src/ch32v20x_adc.c ****         tmpreg2 = SAMPTR2_SMP_Set << (3 * ADC_Channel);
 1527              		.loc 1 783 41
 1528 00a6 0347B4FD 		lbu	a4,-37(s0)
 1529 00aa BA87     		mv	a5,a4
 1530 00ac 8607     		slli	a5,a5,1
 1531 00ae BA97     		add	a5,a5,a4
 1532              		.loc 1 783 17
 1533 00b0 1D47     		li	a4,7
 1534 00b2 B317F700 		sll	a5,a4,a5
 1535 00b6 2324F4FE 		sw	a5,-24(s0)
 784:Drivers/src/ch32v20x_adc.c ****         tmpreg1 &= ~tmpreg2;
 1536              		.loc 1 784 20
 1537 00ba 832784FE 		lw	a5,-24(s0)
 1538 00be 93C7F7FF 		not	a5,a5
 1539              		.loc 1 784 17
 1540 00c2 0327C4FE 		lw	a4,-20(s0)
 1541 00c6 F98F     		and	a5,a4,a5
 1542 00c8 2326F4FE 		sw	a5,-20(s0)
 785:Drivers/src/ch32v20x_adc.c ****         tmpreg2 = (uint32_t)ADC_SampleTime << (3 * ADC_Channel);
GAS LISTING C:\Users\SOLDER~1\AppData\Local\Temp\ccI3TRm9.s 			page 42


 1543              		.loc 1 785 19
 1544 00cc 834694FD 		lbu	a3,-39(s0)
 1545              		.loc 1 785 50
 1546 00d0 0347B4FD 		lbu	a4,-37(s0)
 1547 00d4 BA87     		mv	a5,a4
 1548 00d6 8607     		slli	a5,a5,1
 1549 00d8 BA97     		add	a5,a5,a4
 1550              		.loc 1 785 17
 1551 00da B397F600 		sll	a5,a3,a5
 1552 00de 2324F4FE 		sw	a5,-24(s0)
 786:Drivers/src/ch32v20x_adc.c ****         tmpreg1 |= tmpreg2;
 1553              		.loc 1 786 17
 1554 00e2 0327C4FE 		lw	a4,-20(s0)
 1555 00e6 832784FE 		lw	a5,-24(s0)
 1556 00ea D98F     		or	a5,a4,a5
 1557 00ec 2326F4FE 		sw	a5,-20(s0)
 787:Drivers/src/ch32v20x_adc.c ****         ADCx->SAMPTR2 = tmpreg1;
 1558              		.loc 1 787 23
 1559 00f0 8327C4FD 		lw	a5,-36(s0)
 1560 00f4 0327C4FE 		lw	a4,-20(s0)
 1561 00f8 98CB     		sw	a4,16(a5)
 1562              	.L80:
 788:Drivers/src/ch32v20x_adc.c ****     }
 789:Drivers/src/ch32v20x_adc.c **** 
 790:Drivers/src/ch32v20x_adc.c ****     tmpreg1 = ADCx->ISQR;
 1563              		.loc 1 790 13
 1564 00fa 8327C4FD 		lw	a5,-36(s0)
 1565 00fe 9C5F     		lw	a5,56(a5)
 1566 0100 2326F4FE 		sw	a5,-20(s0)
 791:Drivers/src/ch32v20x_adc.c ****     tmpreg3 = (tmpreg1 & ISQR_JL_Set) >> 20;
 1567              		.loc 1 791 39
 1568 0104 8327C4FE 		lw	a5,-20(s0)
 1569 0108 D183     		srli	a5,a5,20
 1570              		.loc 1 791 13
 1571 010a 8D8B     		andi	a5,a5,3
 1572 010c 2322F4FE 		sw	a5,-28(s0)
 792:Drivers/src/ch32v20x_adc.c ****     tmpreg2 = ISQR_JSQ_Set << (5 * (uint8_t)((Rank + 3) - (tmpreg3 + 1)));
 1573              		.loc 1 792 57
 1574 0110 832744FE 		lw	a5,-28(s0)
 1575 0114 93F7F70F 		andi	a5,a5,0xff
 1576 0118 0347A4FD 		lbu	a4,-38(s0)
 1577 011c B307F740 		sub	a5,a4,a5
 1578 0120 93F7F70F 		andi	a5,a5,0xff
 1579              		.loc 1 792 36
 1580 0124 8907     		addi	a5,a5,2
 1581 0126 93F7F70F 		andi	a5,a5,0xff
 1582 012a 3E87     		mv	a4,a5
 1583              		.loc 1 792 34
 1584 012c BA87     		mv	a5,a4
 1585 012e 8A07     		slli	a5,a5,2
 1586 0130 BA97     		add	a5,a5,a4
 1587              		.loc 1 792 13
 1588 0132 7D47     		li	a4,31
 1589 0134 B317F700 		sll	a5,a4,a5
 1590 0138 2324F4FE 		sw	a5,-24(s0)
 793:Drivers/src/ch32v20x_adc.c ****     tmpreg1 &= ~tmpreg2;
 1591              		.loc 1 793 16
GAS LISTING C:\Users\SOLDER~1\AppData\Local\Temp\ccI3TRm9.s 			page 43


 1592 013c 832784FE 		lw	a5,-24(s0)
 1593 0140 93C7F7FF 		not	a5,a5
 1594              		.loc 1 793 13
 1595 0144 0327C4FE 		lw	a4,-20(s0)
 1596 0148 F98F     		and	a5,a4,a5
 1597 014a 2326F4FE 		sw	a5,-20(s0)
 794:Drivers/src/ch32v20x_adc.c ****     tmpreg2 = (uint32_t)ADC_Channel << (5 * (uint8_t)((Rank + 3) - (tmpreg3 + 1)));
 1598              		.loc 1 794 15
 1599 014e 0347B4FD 		lbu	a4,-37(s0)
 1600              		.loc 1 794 66
 1601 0152 832744FE 		lw	a5,-28(s0)
 1602 0156 93F7F70F 		andi	a5,a5,0xff
 1603 015a 8346A4FD 		lbu	a3,-38(s0)
 1604 015e B387F640 		sub	a5,a3,a5
 1605 0162 93F7F70F 		andi	a5,a5,0xff
 1606              		.loc 1 794 45
 1607 0166 8907     		addi	a5,a5,2
 1608 0168 93F7F70F 		andi	a5,a5,0xff
 1609 016c BE86     		mv	a3,a5
 1610              		.loc 1 794 43
 1611 016e B687     		mv	a5,a3
 1612 0170 8A07     		slli	a5,a5,2
 1613 0172 B697     		add	a5,a5,a3
 1614              		.loc 1 794 13
 1615 0174 B317F700 		sll	a5,a4,a5
 1616 0178 2324F4FE 		sw	a5,-24(s0)
 795:Drivers/src/ch32v20x_adc.c ****     tmpreg1 |= tmpreg2;
 1617              		.loc 1 795 13
 1618 017c 0327C4FE 		lw	a4,-20(s0)
 1619 0180 832784FE 		lw	a5,-24(s0)
 1620 0184 D98F     		or	a5,a4,a5
 1621 0186 2326F4FE 		sw	a5,-20(s0)
 796:Drivers/src/ch32v20x_adc.c ****     ADCx->ISQR = tmpreg1;
 1622              		.loc 1 796 16
 1623 018a 8327C4FD 		lw	a5,-36(s0)
 1624 018e 0327C4FE 		lw	a4,-20(s0)
 1625 0192 98DF     		sw	a4,56(a5)
 797:Drivers/src/ch32v20x_adc.c **** }
 1626              		.loc 1 797 1
 1627 0194 0100     		nop
 1628 0196 3254     		lw	s0,44(sp)
 1629              		.cfi_restore 8
 1630              		.cfi_def_cfa 2, 48
 1631 0198 4561     		addi	sp,sp,48
 1632              		.cfi_def_cfa_offset 0
 1633 019a 8280     		jr	ra
 1634              		.cfi_endproc
 1635              	.LFE40:
 1637              		.section	.text.ADC_InjectedSequencerLengthConfig,"ax",@progbits
 1638              		.align	1
 1639              		.globl	ADC_InjectedSequencerLengthConfig
 1641              	ADC_InjectedSequencerLengthConfig:
 1642              	.LFB41:
 798:Drivers/src/ch32v20x_adc.c **** 
 799:Drivers/src/ch32v20x_adc.c **** /*********************************************************************
 800:Drivers/src/ch32v20x_adc.c ****  * @fn      ADC_InjectedSequencerLengthConfig
 801:Drivers/src/ch32v20x_adc.c ****  *
GAS LISTING C:\Users\SOLDER~1\AppData\Local\Temp\ccI3TRm9.s 			page 44


 802:Drivers/src/ch32v20x_adc.c ****  * @brief   Configures the sequencer length for injected channels.
 803:Drivers/src/ch32v20x_adc.c ****  *
 804:Drivers/src/ch32v20x_adc.c ****  * @param   ADCx - where x can be 1 or 2 to select the ADC peripheral.
 805:Drivers/src/ch32v20x_adc.c ****  *          Length - The sequencer length.
 806:Drivers/src/ch32v20x_adc.c ****  *            This parameter must be a number between 1 to 4.
 807:Drivers/src/ch32v20x_adc.c ****  *
 808:Drivers/src/ch32v20x_adc.c ****  * @return  None
 809:Drivers/src/ch32v20x_adc.c ****  */
 810:Drivers/src/ch32v20x_adc.c **** void ADC_InjectedSequencerLengthConfig(ADC_TypeDef *ADCx, uint8_t Length)
 811:Drivers/src/ch32v20x_adc.c **** {
 1643              		.loc 1 811 1
 1644              		.cfi_startproc
 1645 0000 7971     		addi	sp,sp,-48
 1646              		.cfi_def_cfa_offset 48
 1647 0002 22D6     		sw	s0,44(sp)
 1648              		.cfi_offset 8, -4
 1649 0004 0018     		addi	s0,sp,48
 1650              		.cfi_def_cfa 8, 0
 1651 0006 232EA4FC 		sw	a0,-36(s0)
 1652 000a AE87     		mv	a5,a1
 1653 000c A30DF4FC 		sb	a5,-37(s0)
 812:Drivers/src/ch32v20x_adc.c ****     uint32_t tmpreg1 = 0;
 1654              		.loc 1 812 14
 1655 0010 232604FE 		sw	zero,-20(s0)
 813:Drivers/src/ch32v20x_adc.c ****     uint32_t tmpreg2 = 0;
 1656              		.loc 1 813 14
 1657 0014 232404FE 		sw	zero,-24(s0)
 814:Drivers/src/ch32v20x_adc.c **** 
 815:Drivers/src/ch32v20x_adc.c ****     tmpreg1 = ADCx->ISQR;
 1658              		.loc 1 815 13
 1659 0018 8327C4FD 		lw	a5,-36(s0)
 1660 001c 9C5F     		lw	a5,56(a5)
 1661 001e 2326F4FE 		sw	a5,-20(s0)
 816:Drivers/src/ch32v20x_adc.c ****     tmpreg1 &= ISQR_JL_Reset;
 1662              		.loc 1 816 13
 1663 0022 0327C4FE 		lw	a4,-20(s0)
 1664 0026 B707D0FF 		li	a5,-3145728
 1665 002a FD17     		addi	a5,a5,-1
 1666 002c F98F     		and	a5,a4,a5
 1667 002e 2326F4FE 		sw	a5,-20(s0)
 817:Drivers/src/ch32v20x_adc.c ****     tmpreg2 = Length - 1;
 1668              		.loc 1 817 22
 1669 0032 8347B4FD 		lbu	a5,-37(s0)
 1670 0036 FD17     		addi	a5,a5,-1
 1671              		.loc 1 817 13
 1672 0038 2324F4FE 		sw	a5,-24(s0)
 818:Drivers/src/ch32v20x_adc.c ****     tmpreg1 |= tmpreg2 << 20;
 1673              		.loc 1 818 24
 1674 003c 832784FE 		lw	a5,-24(s0)
 1675 0040 D207     		slli	a5,a5,20
 1676              		.loc 1 818 13
 1677 0042 0327C4FE 		lw	a4,-20(s0)
 1678 0046 D98F     		or	a5,a4,a5
 1679 0048 2326F4FE 		sw	a5,-20(s0)
 819:Drivers/src/ch32v20x_adc.c ****     ADCx->ISQR = tmpreg1;
 1680              		.loc 1 819 16
 1681 004c 8327C4FD 		lw	a5,-36(s0)
GAS LISTING C:\Users\SOLDER~1\AppData\Local\Temp\ccI3TRm9.s 			page 45


 1682 0050 0327C4FE 		lw	a4,-20(s0)
 1683 0054 98DF     		sw	a4,56(a5)
 820:Drivers/src/ch32v20x_adc.c **** }
 1684              		.loc 1 820 1
 1685 0056 0100     		nop
 1686 0058 3254     		lw	s0,44(sp)
 1687              		.cfi_restore 8
 1688              		.cfi_def_cfa 2, 48
 1689 005a 4561     		addi	sp,sp,48
 1690              		.cfi_def_cfa_offset 0
 1691 005c 8280     		jr	ra
 1692              		.cfi_endproc
 1693              	.LFE41:
 1695              		.section	.text.ADC_SetInjectedOffset,"ax",@progbits
 1696              		.align	1
 1697              		.globl	ADC_SetInjectedOffset
 1699              	ADC_SetInjectedOffset:
 1700              	.LFB42:
 821:Drivers/src/ch32v20x_adc.c **** 
 822:Drivers/src/ch32v20x_adc.c **** /*********************************************************************
 823:Drivers/src/ch32v20x_adc.c ****  * @fn      ADC_SetInjectedOffset
 824:Drivers/src/ch32v20x_adc.c ****  *
 825:Drivers/src/ch32v20x_adc.c ****  * @brief   Set the injected channels conversion value offset.
 826:Drivers/src/ch32v20x_adc.c ****  *
 827:Drivers/src/ch32v20x_adc.c ****  * @param   ADCx - where x can be 1 or 2 to select the ADC peripheral.
 828:Drivers/src/ch32v20x_adc.c ****  *          ADC_InjectedChannel: the ADC injected channel to set its offset.
 829:Drivers/src/ch32v20x_adc.c ****  *            ADC_InjectedChannel_1 - Injected Channel1 selected.
 830:Drivers/src/ch32v20x_adc.c ****  *            ADC_InjectedChannel_2 - Injected Channel2 selected.
 831:Drivers/src/ch32v20x_adc.c ****  *            ADC_InjectedChannel_3 - Injected Channel3 selected.
 832:Drivers/src/ch32v20x_adc.c ****  *            ADC_InjectedChannel_4 - Injected Channel4 selected.
 833:Drivers/src/ch32v20x_adc.c ****  *          Offset - the offset value for the selected ADC injected channel.
 834:Drivers/src/ch32v20x_adc.c ****  *            This parameter must be a 12bit value.
 835:Drivers/src/ch32v20x_adc.c ****  *
 836:Drivers/src/ch32v20x_adc.c ****  * @return  None
 837:Drivers/src/ch32v20x_adc.c ****  */
 838:Drivers/src/ch32v20x_adc.c **** void ADC_SetInjectedOffset(ADC_TypeDef *ADCx, uint8_t ADC_InjectedChannel, uint16_t Offset)
 839:Drivers/src/ch32v20x_adc.c **** {
 1701              		.loc 1 839 1
 1702              		.cfi_startproc
 1703 0000 7971     		addi	sp,sp,-48
 1704              		.cfi_def_cfa_offset 48
 1705 0002 22D6     		sw	s0,44(sp)
 1706              		.cfi_offset 8, -4
 1707 0004 0018     		addi	s0,sp,48
 1708              		.cfi_def_cfa 8, 0
 1709 0006 232EA4FC 		sw	a0,-36(s0)
 1710 000a AE87     		mv	a5,a1
 1711 000c 3287     		mv	a4,a2
 1712 000e A30DF4FC 		sb	a5,-37(s0)
 1713 0012 BA87     		mv	a5,a4
 1714 0014 231CF4FC 		sh	a5,-40(s0)
 840:Drivers/src/ch32v20x_adc.c ****     __IO uint32_t tmp = 0;
 1715              		.loc 1 840 19
 1716 0018 232604FE 		sw	zero,-20(s0)
 841:Drivers/src/ch32v20x_adc.c **** 
 842:Drivers/src/ch32v20x_adc.c ****     tmp = (uint32_t)ADCx;
 1717              		.loc 1 842 11
GAS LISTING C:\Users\SOLDER~1\AppData\Local\Temp\ccI3TRm9.s 			page 46


 1718 001c 8327C4FD 		lw	a5,-36(s0)
 1719              		.loc 1 842 9
 1720 0020 2326F4FE 		sw	a5,-20(s0)
 843:Drivers/src/ch32v20x_adc.c ****     tmp += ADC_InjectedChannel;
 1721              		.loc 1 843 9
 1722 0024 0347B4FD 		lbu	a4,-37(s0)
 1723 0028 8327C4FE 		lw	a5,-20(s0)
 1724 002c BA97     		add	a5,a4,a5
 1725 002e 2326F4FE 		sw	a5,-20(s0)
 844:Drivers/src/ch32v20x_adc.c **** 
 845:Drivers/src/ch32v20x_adc.c ****     *(__IO uint32_t *)tmp = (uint32_t)Offset;
 1726              		.loc 1 845 6
 1727 0032 8327C4FE 		lw	a5,-20(s0)
 1728 0036 3E87     		mv	a4,a5
 1729              		.loc 1 845 29
 1730 0038 835784FD 		lhu	a5,-40(s0)
 1731              		.loc 1 845 27
 1732 003c 1CC3     		sw	a5,0(a4)
 846:Drivers/src/ch32v20x_adc.c **** }
 1733              		.loc 1 846 1
 1734 003e 0100     		nop
 1735 0040 3254     		lw	s0,44(sp)
 1736              		.cfi_restore 8
 1737              		.cfi_def_cfa 2, 48
 1738 0042 4561     		addi	sp,sp,48
 1739              		.cfi_def_cfa_offset 0
 1740 0044 8280     		jr	ra
 1741              		.cfi_endproc
 1742              	.LFE42:
 1744              		.section	.text.ADC_GetInjectedConversionValue,"ax",@progbits
 1745              		.align	1
 1746              		.globl	ADC_GetInjectedConversionValue
 1748              	ADC_GetInjectedConversionValue:
 1749              	.LFB43:
 847:Drivers/src/ch32v20x_adc.c **** 
 848:Drivers/src/ch32v20x_adc.c **** /*********************************************************************
 849:Drivers/src/ch32v20x_adc.c ****  * @fn      ADC_GetInjectedConversionValue
 850:Drivers/src/ch32v20x_adc.c ****  *
 851:Drivers/src/ch32v20x_adc.c ****  * @brief   Returns the ADC injected channel conversion result.
 852:Drivers/src/ch32v20x_adc.c ****  *
 853:Drivers/src/ch32v20x_adc.c ****  * @param   ADCx - where x can be 1 or 2 to select the ADC peripheral.
 854:Drivers/src/ch32v20x_adc.c ****  *          ADC_InjectedChannel - the ADC injected channel to set its offset.
 855:Drivers/src/ch32v20x_adc.c ****  *            ADC_InjectedChannel_1 - Injected Channel1 selected.
 856:Drivers/src/ch32v20x_adc.c ****  *            ADC_InjectedChannel_2 - Injected Channel2 selected.
 857:Drivers/src/ch32v20x_adc.c ****  *            ADC_InjectedChannel_3 - Injected Channel3 selected.
 858:Drivers/src/ch32v20x_adc.c ****  *            ADC_InjectedChannel_4 - Injected Channel4 selected.
 859:Drivers/src/ch32v20x_adc.c ****  *
 860:Drivers/src/ch32v20x_adc.c ****  * @return  tmp - The Data conversion value.
 861:Drivers/src/ch32v20x_adc.c ****  */
 862:Drivers/src/ch32v20x_adc.c **** uint16_t ADC_GetInjectedConversionValue(ADC_TypeDef *ADCx, uint8_t ADC_InjectedChannel)
 863:Drivers/src/ch32v20x_adc.c **** {
 1750              		.loc 1 863 1
 1751              		.cfi_startproc
 1752 0000 7971     		addi	sp,sp,-48
 1753              		.cfi_def_cfa_offset 48
 1754 0002 22D6     		sw	s0,44(sp)
 1755              		.cfi_offset 8, -4
GAS LISTING C:\Users\SOLDER~1\AppData\Local\Temp\ccI3TRm9.s 			page 47


 1756 0004 0018     		addi	s0,sp,48
 1757              		.cfi_def_cfa 8, 0
 1758 0006 232EA4FC 		sw	a0,-36(s0)
 1759 000a AE87     		mv	a5,a1
 1760 000c A30DF4FC 		sb	a5,-37(s0)
 864:Drivers/src/ch32v20x_adc.c ****     __IO uint32_t tmp = 0;
 1761              		.loc 1 864 19
 1762 0010 232604FE 		sw	zero,-20(s0)
 865:Drivers/src/ch32v20x_adc.c **** 
 866:Drivers/src/ch32v20x_adc.c ****     tmp = (uint32_t)ADCx;
 1763              		.loc 1 866 11
 1764 0014 8327C4FD 		lw	a5,-36(s0)
 1765              		.loc 1 866 9
 1766 0018 2326F4FE 		sw	a5,-20(s0)
 867:Drivers/src/ch32v20x_adc.c ****     tmp += ADC_InjectedChannel + IDATAR_Offset;
 1767              		.loc 1 867 9
 1768 001c 0347B4FD 		lbu	a4,-37(s0)
 1769 0020 8327C4FE 		lw	a5,-20(s0)
 1770 0024 BA97     		add	a5,a4,a5
 1771 0026 93878702 		addi	a5,a5,40
 1772 002a 2326F4FE 		sw	a5,-20(s0)
 868:Drivers/src/ch32v20x_adc.c **** 
 869:Drivers/src/ch32v20x_adc.c ****     return (uint16_t)(*(__IO uint32_t *)tmp);
 1773              		.loc 1 869 24
 1774 002e 8327C4FE 		lw	a5,-20(s0)
 1775              		.loc 1 869 23
 1776 0032 9C43     		lw	a5,0(a5)
 1777              		.loc 1 869 12
 1778 0034 C207     		slli	a5,a5,16
 1779 0036 C183     		srli	a5,a5,16
 870:Drivers/src/ch32v20x_adc.c **** }
 1780              		.loc 1 870 1
 1781 0038 3E85     		mv	a0,a5
 1782 003a 3254     		lw	s0,44(sp)
 1783              		.cfi_restore 8
 1784              		.cfi_def_cfa 2, 48
 1785 003c 4561     		addi	sp,sp,48
 1786              		.cfi_def_cfa_offset 0
 1787 003e 8280     		jr	ra
 1788              		.cfi_endproc
 1789              	.LFE43:
 1791              		.section	.text.ADC_AnalogWatchdogCmd,"ax",@progbits
 1792              		.align	1
 1793              		.globl	ADC_AnalogWatchdogCmd
 1795              	ADC_AnalogWatchdogCmd:
 1796              	.LFB44:
 871:Drivers/src/ch32v20x_adc.c **** 
 872:Drivers/src/ch32v20x_adc.c **** /*********************************************************************
 873:Drivers/src/ch32v20x_adc.c ****  * @fn      ADC_AnalogWatchdogCmd
 874:Drivers/src/ch32v20x_adc.c ****  *
 875:Drivers/src/ch32v20x_adc.c ****  * @brief   Enables or disables the analog watchdog on single/all regular
 876:Drivers/src/ch32v20x_adc.c ****  *        or injected channels.
 877:Drivers/src/ch32v20x_adc.c ****  *
 878:Drivers/src/ch32v20x_adc.c ****  * @param   ADCx - where x can be 1 or 2 to select the ADC peripheral.
 879:Drivers/src/ch32v20x_adc.c ****  *          ADC_AnalogWatchdog - the ADC analog watchdog configuration.
 880:Drivers/src/ch32v20x_adc.c ****  *            ADC_AnalogWatchdog_SingleRegEnable - Analog watchdog on a
 881:Drivers/src/ch32v20x_adc.c ****  *        single regular channel.
GAS LISTING C:\Users\SOLDER~1\AppData\Local\Temp\ccI3TRm9.s 			page 48


 882:Drivers/src/ch32v20x_adc.c ****  *            ADC_AnalogWatchdog_SingleInjecEnable - Analog watchdog on a
 883:Drivers/src/ch32v20x_adc.c ****  *        single injected channel.
 884:Drivers/src/ch32v20x_adc.c ****  *            ADC_AnalogWatchdog_SingleRegOrInjecEnable - Analog watchdog
 885:Drivers/src/ch32v20x_adc.c ****  *        on a single regular or injected channel.
 886:Drivers/src/ch32v20x_adc.c ****  *            ADC_AnalogWatchdog_AllRegEnable - Analog watchdog on  all
 887:Drivers/src/ch32v20x_adc.c ****  *        regular channel.
 888:Drivers/src/ch32v20x_adc.c ****  *            ADC_AnalogWatchdog_AllInjecEnable - Analog watchdog on  all
 889:Drivers/src/ch32v20x_adc.c ****  *        injected channel.
 890:Drivers/src/ch32v20x_adc.c ****  *            ADC_AnalogWatchdog_AllRegAllInjecEnable - Analog watchdog on
 891:Drivers/src/ch32v20x_adc.c ****  *        all regular and injected channels.
 892:Drivers/src/ch32v20x_adc.c ****  *            ADC_AnalogWatchdog_None - No channel guarded by the analog
 893:Drivers/src/ch32v20x_adc.c ****  *        watchdog.
 894:Drivers/src/ch32v20x_adc.c ****  *
 895:Drivers/src/ch32v20x_adc.c ****  * @return  none
 896:Drivers/src/ch32v20x_adc.c ****  */
 897:Drivers/src/ch32v20x_adc.c **** void ADC_AnalogWatchdogCmd(ADC_TypeDef *ADCx, uint32_t ADC_AnalogWatchdog)
 898:Drivers/src/ch32v20x_adc.c **** {
 1797              		.loc 1 898 1
 1798              		.cfi_startproc
 1799 0000 7971     		addi	sp,sp,-48
 1800              		.cfi_def_cfa_offset 48
 1801 0002 22D6     		sw	s0,44(sp)
 1802              		.cfi_offset 8, -4
 1803 0004 0018     		addi	s0,sp,48
 1804              		.cfi_def_cfa 8, 0
 1805 0006 232EA4FC 		sw	a0,-36(s0)
 1806 000a 232CB4FC 		sw	a1,-40(s0)
 899:Drivers/src/ch32v20x_adc.c ****     uint32_t tmpreg = 0;
 1807              		.loc 1 899 14
 1808 000e 232604FE 		sw	zero,-20(s0)
 900:Drivers/src/ch32v20x_adc.c **** 
 901:Drivers/src/ch32v20x_adc.c ****     tmpreg = ADCx->CTLR1;
 1809              		.loc 1 901 12
 1810 0012 8327C4FD 		lw	a5,-36(s0)
 1811 0016 DC43     		lw	a5,4(a5)
 1812 0018 2326F4FE 		sw	a5,-20(s0)
 902:Drivers/src/ch32v20x_adc.c ****     tmpreg &= CTLR1_AWDMode_Reset;
 1813              		.loc 1 902 12
 1814 001c 0327C4FE 		lw	a4,-20(s0)
 1815 0020 B70740FF 		li	a5,-12582912
 1816 0024 9387F7DF 		addi	a5,a5,-513
 1817 0028 F98F     		and	a5,a4,a5
 1818 002a 2326F4FE 		sw	a5,-20(s0)
 903:Drivers/src/ch32v20x_adc.c ****     tmpreg |= ADC_AnalogWatchdog;
 1819              		.loc 1 903 12
 1820 002e 0327C4FE 		lw	a4,-20(s0)
 1821 0032 832784FD 		lw	a5,-40(s0)
 1822 0036 D98F     		or	a5,a4,a5
 1823 0038 2326F4FE 		sw	a5,-20(s0)
 904:Drivers/src/ch32v20x_adc.c ****     ADCx->CTLR1 = tmpreg;
 1824              		.loc 1 904 17
 1825 003c 8327C4FD 		lw	a5,-36(s0)
 1826 0040 0327C4FE 		lw	a4,-20(s0)
 1827 0044 D8C3     		sw	a4,4(a5)
 905:Drivers/src/ch32v20x_adc.c **** }
 1828              		.loc 1 905 1
 1829 0046 0100     		nop
GAS LISTING C:\Users\SOLDER~1\AppData\Local\Temp\ccI3TRm9.s 			page 49


 1830 0048 3254     		lw	s0,44(sp)
 1831              		.cfi_restore 8
 1832              		.cfi_def_cfa 2, 48
 1833 004a 4561     		addi	sp,sp,48
 1834              		.cfi_def_cfa_offset 0
 1835 004c 8280     		jr	ra
 1836              		.cfi_endproc
 1837              	.LFE44:
 1839              		.section	.text.ADC_AnalogWatchdogThresholdsConfig,"ax",@progbits
 1840              		.align	1
 1841              		.globl	ADC_AnalogWatchdogThresholdsConfig
 1843              	ADC_AnalogWatchdogThresholdsConfig:
 1844              	.LFB45:
 906:Drivers/src/ch32v20x_adc.c **** 
 907:Drivers/src/ch32v20x_adc.c **** /*********************************************************************
 908:Drivers/src/ch32v20x_adc.c ****  * @fn      ADC_AnalogWatchdogThresholdsConfig
 909:Drivers/src/ch32v20x_adc.c ****  *
 910:Drivers/src/ch32v20x_adc.c ****  * @brief   Configures the high and low thresholds of the analog watchdog.
 911:Drivers/src/ch32v20x_adc.c ****  *
 912:Drivers/src/ch32v20x_adc.c ****  * @param   ADCx - where x can be 1 or 2 to select the ADC peripheral.
 913:Drivers/src/ch32v20x_adc.c ****  *          HighThreshold - the ADC analog watchdog High threshold value.
 914:Drivers/src/ch32v20x_adc.c ****  *            This parameter must be a 12bit value.
 915:Drivers/src/ch32v20x_adc.c ****  *          LowThreshold - the ADC analog watchdog Low threshold value.
 916:Drivers/src/ch32v20x_adc.c ****  *            This parameter must be a 12bit value.
 917:Drivers/src/ch32v20x_adc.c ****  *
 918:Drivers/src/ch32v20x_adc.c ****  * @return  none
 919:Drivers/src/ch32v20x_adc.c ****  */
 920:Drivers/src/ch32v20x_adc.c **** void ADC_AnalogWatchdogThresholdsConfig(ADC_TypeDef *ADCx, uint16_t HighThreshold,
 921:Drivers/src/ch32v20x_adc.c ****                                         uint16_t LowThreshold)
 922:Drivers/src/ch32v20x_adc.c **** {
 1845              		.loc 1 922 1
 1846              		.cfi_startproc
 1847 0000 0111     		addi	sp,sp,-32
 1848              		.cfi_def_cfa_offset 32
 1849 0002 22CE     		sw	s0,28(sp)
 1850              		.cfi_offset 8, -4
 1851 0004 0010     		addi	s0,sp,32
 1852              		.cfi_def_cfa 8, 0
 1853 0006 2326A4FE 		sw	a0,-20(s0)
 1854 000a AE87     		mv	a5,a1
 1855 000c 3287     		mv	a4,a2
 1856 000e 2315F4FE 		sh	a5,-22(s0)
 1857 0012 BA87     		mv	a5,a4
 1858 0014 2314F4FE 		sh	a5,-24(s0)
 923:Drivers/src/ch32v20x_adc.c ****     ADCx->WDHTR = HighThreshold;
 1859              		.loc 1 923 17
 1860 0018 0357A4FE 		lhu	a4,-22(s0)
 1861 001c 8327C4FE 		lw	a5,-20(s0)
 1862 0020 D8D3     		sw	a4,36(a5)
 924:Drivers/src/ch32v20x_adc.c ****     ADCx->WDLTR = LowThreshold;
 1863              		.loc 1 924 17
 1864 0022 035784FE 		lhu	a4,-24(s0)
 1865 0026 8327C4FE 		lw	a5,-20(s0)
 1866 002a 98D7     		sw	a4,40(a5)
 925:Drivers/src/ch32v20x_adc.c **** }
 1867              		.loc 1 925 1
 1868 002c 0100     		nop
GAS LISTING C:\Users\SOLDER~1\AppData\Local\Temp\ccI3TRm9.s 			page 50


 1869 002e 7244     		lw	s0,28(sp)
 1870              		.cfi_restore 8
 1871              		.cfi_def_cfa 2, 32
 1872 0030 0561     		addi	sp,sp,32
 1873              		.cfi_def_cfa_offset 0
 1874 0032 8280     		jr	ra
 1875              		.cfi_endproc
 1876              	.LFE45:
 1878              		.section	.text.ADC_AnalogWatchdogSingleChannelConfig,"ax",@progbits
 1879              		.align	1
 1880              		.globl	ADC_AnalogWatchdogSingleChannelConfig
 1882              	ADC_AnalogWatchdogSingleChannelConfig:
 1883              	.LFB46:
 926:Drivers/src/ch32v20x_adc.c **** 
 927:Drivers/src/ch32v20x_adc.c **** /*********************************************************************
 928:Drivers/src/ch32v20x_adc.c ****  * @fn      ADC_AnalogWatchdogSingleChannelConfig
 929:Drivers/src/ch32v20x_adc.c ****  *
 930:Drivers/src/ch32v20x_adc.c ****  * @brief   Configures the analog watchdog guarded single channel.
 931:Drivers/src/ch32v20x_adc.c ****  *
 932:Drivers/src/ch32v20x_adc.c ****  * @param   ADCx - where x can be 1 or 2 to select the ADC peripheral.
 933:Drivers/src/ch32v20x_adc.c ****  *          ADC_Channel - the ADC channel to configure.
 934:Drivers/src/ch32v20x_adc.c ****  *            ADC_Channel_0 - ADC Channel0 selected.
 935:Drivers/src/ch32v20x_adc.c ****  *            ADC_Channel_1 - ADC Channel1 selected.
 936:Drivers/src/ch32v20x_adc.c ****  *            ADC_Channel_2 - ADC Channel2 selected.
 937:Drivers/src/ch32v20x_adc.c ****  *            ADC_Channel_3 - ADC Channel3 selected.
 938:Drivers/src/ch32v20x_adc.c ****  *            ADC_Channel_4 - ADC Channel4 selected.
 939:Drivers/src/ch32v20x_adc.c ****  *            ADC_Channel_5 - ADC Channel5 selected.
 940:Drivers/src/ch32v20x_adc.c ****  *            ADC_Channel_6 - ADC Channel6 selected.
 941:Drivers/src/ch32v20x_adc.c ****  *            ADC_Channel_7 - ADC Channel7 selected.
 942:Drivers/src/ch32v20x_adc.c ****  *            ADC_Channel_8 - ADC Channel8 selected.
 943:Drivers/src/ch32v20x_adc.c ****  *            ADC_Channel_9 - ADC Channel9 selected.
 944:Drivers/src/ch32v20x_adc.c ****  *            ADC_Channel_10 - ADC Channel10 selected.
 945:Drivers/src/ch32v20x_adc.c ****  *            ADC_Channel_11 - ADC Channel11 selected.
 946:Drivers/src/ch32v20x_adc.c ****  *            ADC_Channel_12 - ADC Channel12 selected.
 947:Drivers/src/ch32v20x_adc.c ****  *            ADC_Channel_13 - ADC Channel13 selected.
 948:Drivers/src/ch32v20x_adc.c ****  *            ADC_Channel_14 - ADC Channel14 selected.
 949:Drivers/src/ch32v20x_adc.c ****  *            ADC_Channel_15 - ADC Channel15 selected.
 950:Drivers/src/ch32v20x_adc.c ****  *            ADC_Channel_16 - ADC Channel16 selected.
 951:Drivers/src/ch32v20x_adc.c ****  *            ADC_Channel_17 - ADC Channel17 selected.
 952:Drivers/src/ch32v20x_adc.c ****  *
 953:Drivers/src/ch32v20x_adc.c ****  * @return  None
 954:Drivers/src/ch32v20x_adc.c ****  */
 955:Drivers/src/ch32v20x_adc.c **** void ADC_AnalogWatchdogSingleChannelConfig(ADC_TypeDef *ADCx, uint8_t ADC_Channel)
 956:Drivers/src/ch32v20x_adc.c **** {
 1884              		.loc 1 956 1
 1885              		.cfi_startproc
 1886 0000 7971     		addi	sp,sp,-48
 1887              		.cfi_def_cfa_offset 48
 1888 0002 22D6     		sw	s0,44(sp)
 1889              		.cfi_offset 8, -4
 1890 0004 0018     		addi	s0,sp,48
 1891              		.cfi_def_cfa 8, 0
 1892 0006 232EA4FC 		sw	a0,-36(s0)
 1893 000a AE87     		mv	a5,a1
 1894 000c A30DF4FC 		sb	a5,-37(s0)
 957:Drivers/src/ch32v20x_adc.c ****     uint32_t tmpreg = 0;
 1895              		.loc 1 957 14
GAS LISTING C:\Users\SOLDER~1\AppData\Local\Temp\ccI3TRm9.s 			page 51


 1896 0010 232604FE 		sw	zero,-20(s0)
 958:Drivers/src/ch32v20x_adc.c **** 
 959:Drivers/src/ch32v20x_adc.c ****     tmpreg = ADCx->CTLR1;
 1897              		.loc 1 959 12
 1898 0014 8327C4FD 		lw	a5,-36(s0)
 1899 0018 DC43     		lw	a5,4(a5)
 1900 001a 2326F4FE 		sw	a5,-20(s0)
 960:Drivers/src/ch32v20x_adc.c ****     tmpreg &= CTLR1_AWDCH_Reset;
 1901              		.loc 1 960 12
 1902 001e 8327C4FE 		lw	a5,-20(s0)
 1903 0022 819B     		andi	a5,a5,-32
 1904 0024 2326F4FE 		sw	a5,-20(s0)
 961:Drivers/src/ch32v20x_adc.c ****     tmpreg |= ADC_Channel;
 1905              		.loc 1 961 12
 1906 0028 8347B4FD 		lbu	a5,-37(s0)
 1907 002c 0327C4FE 		lw	a4,-20(s0)
 1908 0030 D98F     		or	a5,a4,a5
 1909 0032 2326F4FE 		sw	a5,-20(s0)
 962:Drivers/src/ch32v20x_adc.c ****     ADCx->CTLR1 = tmpreg;
 1910              		.loc 1 962 17
 1911 0036 8327C4FD 		lw	a5,-36(s0)
 1912 003a 0327C4FE 		lw	a4,-20(s0)
 1913 003e D8C3     		sw	a4,4(a5)
 963:Drivers/src/ch32v20x_adc.c **** }
 1914              		.loc 1 963 1
 1915 0040 0100     		nop
 1916 0042 3254     		lw	s0,44(sp)
 1917              		.cfi_restore 8
 1918              		.cfi_def_cfa 2, 48
 1919 0044 4561     		addi	sp,sp,48
 1920              		.cfi_def_cfa_offset 0
 1921 0046 8280     		jr	ra
 1922              		.cfi_endproc
 1923              	.LFE46:
 1925              		.section	.text.ADC_TempSensorVrefintCmd,"ax",@progbits
 1926              		.align	1
 1927              		.globl	ADC_TempSensorVrefintCmd
 1929              	ADC_TempSensorVrefintCmd:
 1930              	.LFB47:
 964:Drivers/src/ch32v20x_adc.c **** 
 965:Drivers/src/ch32v20x_adc.c **** /*********************************************************************
 966:Drivers/src/ch32v20x_adc.c ****  * @fn      ADC_TempSensorVrefintCmd
 967:Drivers/src/ch32v20x_adc.c ****  *
 968:Drivers/src/ch32v20x_adc.c ****  * @brief   Enables or disables the temperature sensor and Vrefint channel.
 969:Drivers/src/ch32v20x_adc.c ****  *
 970:Drivers/src/ch32v20x_adc.c ****  * @param   NewState - ENABLE or DISABLE.
 971:Drivers/src/ch32v20x_adc.c ****  *
 972:Drivers/src/ch32v20x_adc.c ****  * @return  none
 973:Drivers/src/ch32v20x_adc.c ****  */
 974:Drivers/src/ch32v20x_adc.c **** void ADC_TempSensorVrefintCmd(FunctionalState NewState)
 975:Drivers/src/ch32v20x_adc.c **** {
 1931              		.loc 1 975 1
 1932              		.cfi_startproc
 1933 0000 0111     		addi	sp,sp,-32
 1934              		.cfi_def_cfa_offset 32
 1935 0002 22CE     		sw	s0,28(sp)
 1936              		.cfi_offset 8, -4
GAS LISTING C:\Users\SOLDER~1\AppData\Local\Temp\ccI3TRm9.s 			page 52


 1937 0004 0010     		addi	s0,sp,32
 1938              		.cfi_def_cfa 8, 0
 1939 0006 2326A4FE 		sw	a0,-20(s0)
 976:Drivers/src/ch32v20x_adc.c ****     if(NewState != DISABLE)
 1940              		.loc 1 976 7
 1941 000a 8327C4FE 		lw	a5,-20(s0)
 1942 000e 99CF     		beq	a5,zero,.L89
 977:Drivers/src/ch32v20x_adc.c ****     {
 978:Drivers/src/ch32v20x_adc.c ****         ADC1->CTLR2 |= CTLR2_TSVREFE_Set;
 1943              		.loc 1 978 13
 1944 0010 B7270140 		li	a5,1073815552
 1945 0014 93870740 		addi	a5,a5,1024
 1946 0018 9447     		lw	a3,8(a5)
 1947 001a B7270140 		li	a5,1073815552
 1948 001e 93870740 		addi	a5,a5,1024
 1949              		.loc 1 978 21
 1950 0022 37078000 		li	a4,8388608
 1951 0026 558F     		or	a4,a3,a4
 1952 0028 98C7     		sw	a4,8(a5)
 979:Drivers/src/ch32v20x_adc.c ****     }
 980:Drivers/src/ch32v20x_adc.c ****     else
 981:Drivers/src/ch32v20x_adc.c ****     {
 982:Drivers/src/ch32v20x_adc.c ****         ADC1->CTLR2 &= CTLR2_TSVREFE_Reset;
 983:Drivers/src/ch32v20x_adc.c ****     }
 984:Drivers/src/ch32v20x_adc.c **** }
 1953              		.loc 1 984 1
 1954 002a 39A8     		j	.L91
 1955              	.L89:
 982:Drivers/src/ch32v20x_adc.c ****     }
 1956              		.loc 1 982 13
 1957 002c B7270140 		li	a5,1073815552
 1958 0030 93870740 		addi	a5,a5,1024
 1959 0034 9447     		lw	a3,8(a5)
 1960 0036 B7270140 		li	a5,1073815552
 1961 003a 93870740 		addi	a5,a5,1024
 982:Drivers/src/ch32v20x_adc.c ****     }
 1962              		.loc 1 982 21
 1963 003e 370780FF 		li	a4,-8388608
 1964 0042 7D17     		addi	a4,a4,-1
 1965 0044 758F     		and	a4,a3,a4
 1966 0046 98C7     		sw	a4,8(a5)
 1967              	.L91:
 1968              		.loc 1 984 1
 1969 0048 0100     		nop
 1970 004a 7244     		lw	s0,28(sp)
 1971              		.cfi_restore 8
 1972              		.cfi_def_cfa 2, 32
 1973 004c 0561     		addi	sp,sp,32
 1974              		.cfi_def_cfa_offset 0
 1975 004e 8280     		jr	ra
 1976              		.cfi_endproc
 1977              	.LFE47:
 1979              		.section	.text.ADC_GetFlagStatus,"ax",@progbits
 1980              		.align	1
 1981              		.globl	ADC_GetFlagStatus
 1983              	ADC_GetFlagStatus:
 1984              	.LFB48:
GAS LISTING C:\Users\SOLDER~1\AppData\Local\Temp\ccI3TRm9.s 			page 53


 985:Drivers/src/ch32v20x_adc.c **** 
 986:Drivers/src/ch32v20x_adc.c **** /*********************************************************************
 987:Drivers/src/ch32v20x_adc.c ****  * @fn      ADC_GetFlagStatus
 988:Drivers/src/ch32v20x_adc.c ****  *
 989:Drivers/src/ch32v20x_adc.c ****  * @brief   Checks whether the specified ADC flag is set or not.
 990:Drivers/src/ch32v20x_adc.c ****  *
 991:Drivers/src/ch32v20x_adc.c ****  * @param   ADCx - where x can be 1 or 2 to select the ADC peripheral.
 992:Drivers/src/ch32v20x_adc.c ****  *          ADC_FLAG - specifies the flag to check.
 993:Drivers/src/ch32v20x_adc.c ****  *            ADC_FLAG_AWD - Analog watchdog flag.
 994:Drivers/src/ch32v20x_adc.c ****  *            ADC_FLAG_EOC - End of conversion flag.
 995:Drivers/src/ch32v20x_adc.c ****  *            ADC_FLAG_JEOC - End of injected group conversion flag.
 996:Drivers/src/ch32v20x_adc.c ****  *            ADC_FLAG_JSTRT - Start of injected group conversion flag.
 997:Drivers/src/ch32v20x_adc.c ****  *            ADC_FLAG_STRT - Start of regular group conversion flag.
 998:Drivers/src/ch32v20x_adc.c ****  *
 999:Drivers/src/ch32v20x_adc.c ****  * @return  FlagStatus: SET or RESET.
1000:Drivers/src/ch32v20x_adc.c ****  */
1001:Drivers/src/ch32v20x_adc.c **** FlagStatus ADC_GetFlagStatus(ADC_TypeDef *ADCx, uint8_t ADC_FLAG)
1002:Drivers/src/ch32v20x_adc.c **** {
 1985              		.loc 1 1002 1
 1986              		.cfi_startproc
 1987 0000 7971     		addi	sp,sp,-48
 1988              		.cfi_def_cfa_offset 48
 1989 0002 22D6     		sw	s0,44(sp)
 1990              		.cfi_offset 8, -4
 1991 0004 0018     		addi	s0,sp,48
 1992              		.cfi_def_cfa 8, 0
 1993 0006 232EA4FC 		sw	a0,-36(s0)
 1994 000a AE87     		mv	a5,a1
 1995 000c A30DF4FC 		sb	a5,-37(s0)
1003:Drivers/src/ch32v20x_adc.c ****     FlagStatus bitstatus = RESET;
 1996              		.loc 1 1003 16
 1997 0010 232604FE 		sw	zero,-20(s0)
1004:Drivers/src/ch32v20x_adc.c **** 
1005:Drivers/src/ch32v20x_adc.c ****     if((ADCx->STATR & ADC_FLAG) != (uint8_t)RESET)
 1998              		.loc 1 1005 13
 1999 0014 8327C4FD 		lw	a5,-36(s0)
 2000 0018 9843     		lw	a4,0(a5)
 2001              		.loc 1 1005 21
 2002 001a 8347B4FD 		lbu	a5,-37(s0)
 2003 001e F98F     		and	a5,a4,a5
 2004              		.loc 1 1005 7
 2005 0020 89C7     		beq	a5,zero,.L93
1006:Drivers/src/ch32v20x_adc.c ****     {
1007:Drivers/src/ch32v20x_adc.c ****         bitstatus = SET;
 2006              		.loc 1 1007 19
 2007 0022 8547     		li	a5,1
 2008 0024 2326F4FE 		sw	a5,-20(s0)
 2009 0028 19A0     		j	.L94
 2010              	.L93:
1008:Drivers/src/ch32v20x_adc.c ****     }
1009:Drivers/src/ch32v20x_adc.c ****     else
1010:Drivers/src/ch32v20x_adc.c ****     {
1011:Drivers/src/ch32v20x_adc.c ****         bitstatus = RESET;
 2011              		.loc 1 1011 19
 2012 002a 232604FE 		sw	zero,-20(s0)
 2013              	.L94:
1012:Drivers/src/ch32v20x_adc.c ****     }
GAS LISTING C:\Users\SOLDER~1\AppData\Local\Temp\ccI3TRm9.s 			page 54


1013:Drivers/src/ch32v20x_adc.c **** 
1014:Drivers/src/ch32v20x_adc.c ****     return bitstatus;
 2014              		.loc 1 1014 12
 2015 002e 8327C4FE 		lw	a5,-20(s0)
1015:Drivers/src/ch32v20x_adc.c **** }
 2016              		.loc 1 1015 1
 2017 0032 3E85     		mv	a0,a5
 2018 0034 3254     		lw	s0,44(sp)
 2019              		.cfi_restore 8
 2020              		.cfi_def_cfa 2, 48
 2021 0036 4561     		addi	sp,sp,48
 2022              		.cfi_def_cfa_offset 0
 2023 0038 8280     		jr	ra
 2024              		.cfi_endproc
 2025              	.LFE48:
 2027              		.section	.text.ADC_ClearFlag,"ax",@progbits
 2028              		.align	1
 2029              		.globl	ADC_ClearFlag
 2031              	ADC_ClearFlag:
 2032              	.LFB49:
1016:Drivers/src/ch32v20x_adc.c **** 
1017:Drivers/src/ch32v20x_adc.c **** /*********************************************************************
1018:Drivers/src/ch32v20x_adc.c ****  * @fn      ADC_ClearFlag
1019:Drivers/src/ch32v20x_adc.c ****  *
1020:Drivers/src/ch32v20x_adc.c ****  * @brief   Clears the ADCx's pending flags.
1021:Drivers/src/ch32v20x_adc.c ****  *
1022:Drivers/src/ch32v20x_adc.c ****  * @param   ADCx - where x can be 1 or 2 to select the ADC peripheral.
1023:Drivers/src/ch32v20x_adc.c ****  *          ADC_FLAG - specifies the flag to clear.
1024:Drivers/src/ch32v20x_adc.c ****  *            ADC_FLAG_AWD - Analog watchdog flag.
1025:Drivers/src/ch32v20x_adc.c ****  *            ADC_FLAG_EOC - End of conversion flag.
1026:Drivers/src/ch32v20x_adc.c ****  *            ADC_FLAG_JEOC - End of injected group conversion flag.
1027:Drivers/src/ch32v20x_adc.c ****  *            ADC_FLAG_JSTRT - Start of injected group conversion flag.
1028:Drivers/src/ch32v20x_adc.c ****  *            ADC_FLAG_STRT - Start of regular group conversion flag.
1029:Drivers/src/ch32v20x_adc.c ****  *
1030:Drivers/src/ch32v20x_adc.c ****  * @return  none
1031:Drivers/src/ch32v20x_adc.c ****  */
1032:Drivers/src/ch32v20x_adc.c **** void ADC_ClearFlag(ADC_TypeDef *ADCx, uint8_t ADC_FLAG)
1033:Drivers/src/ch32v20x_adc.c **** {
 2033              		.loc 1 1033 1
 2034              		.cfi_startproc
 2035 0000 0111     		addi	sp,sp,-32
 2036              		.cfi_def_cfa_offset 32
 2037 0002 22CE     		sw	s0,28(sp)
 2038              		.cfi_offset 8, -4
 2039 0004 0010     		addi	s0,sp,32
 2040              		.cfi_def_cfa 8, 0
 2041 0006 2326A4FE 		sw	a0,-20(s0)
 2042 000a AE87     		mv	a5,a1
 2043 000c A305F4FE 		sb	a5,-21(s0)
1034:Drivers/src/ch32v20x_adc.c ****     ADCx->STATR = ~(uint32_t)ADC_FLAG;
 2044              		.loc 1 1034 20
 2045 0010 8347B4FE 		lbu	a5,-21(s0)
 2046              		.loc 1 1034 19
 2047 0014 13C7F7FF 		not	a4,a5
 2048              		.loc 1 1034 17
 2049 0018 8327C4FE 		lw	a5,-20(s0)
 2050 001c 98C3     		sw	a4,0(a5)
GAS LISTING C:\Users\SOLDER~1\AppData\Local\Temp\ccI3TRm9.s 			page 55


1035:Drivers/src/ch32v20x_adc.c **** }
 2051              		.loc 1 1035 1
 2052 001e 0100     		nop
 2053 0020 7244     		lw	s0,28(sp)
 2054              		.cfi_restore 8
 2055              		.cfi_def_cfa 2, 32
 2056 0022 0561     		addi	sp,sp,32
 2057              		.cfi_def_cfa_offset 0
 2058 0024 8280     		jr	ra
 2059              		.cfi_endproc
 2060              	.LFE49:
 2062              		.section	.text.ADC_GetITStatus,"ax",@progbits
 2063              		.align	1
 2064              		.globl	ADC_GetITStatus
 2066              	ADC_GetITStatus:
 2067              	.LFB50:
1036:Drivers/src/ch32v20x_adc.c **** 
1037:Drivers/src/ch32v20x_adc.c **** /*********************************************************************
1038:Drivers/src/ch32v20x_adc.c ****  * @fn      ADC_GetITStatus
1039:Drivers/src/ch32v20x_adc.c ****  *
1040:Drivers/src/ch32v20x_adc.c ****  * @brief   Checks whether the specified ADC interrupt has occurred or not.
1041:Drivers/src/ch32v20x_adc.c ****  *
1042:Drivers/src/ch32v20x_adc.c ****  * @param   ADCx - where x can be 1 or 2 to select the ADC peripheral.
1043:Drivers/src/ch32v20x_adc.c ****  *          ADC_IT - specifies the ADC interrupt source to check.
1044:Drivers/src/ch32v20x_adc.c ****  *            ADC_IT_EOC - End of conversion interrupt mask.
1045:Drivers/src/ch32v20x_adc.c ****  *            ADC_IT_AWD - Analog watchdog interrupt mask.
1046:Drivers/src/ch32v20x_adc.c ****  *            ADC_IT_JEOC - End of injected conversion interrupt mask.
1047:Drivers/src/ch32v20x_adc.c ****  *
1048:Drivers/src/ch32v20x_adc.c ****  * @return  FlagStatus: SET or RESET.
1049:Drivers/src/ch32v20x_adc.c ****  */
1050:Drivers/src/ch32v20x_adc.c **** ITStatus ADC_GetITStatus(ADC_TypeDef *ADCx, uint16_t ADC_IT)
1051:Drivers/src/ch32v20x_adc.c **** {
 2068              		.loc 1 1051 1
 2069              		.cfi_startproc
 2070 0000 7971     		addi	sp,sp,-48
 2071              		.cfi_def_cfa_offset 48
 2072 0002 22D6     		sw	s0,44(sp)
 2073              		.cfi_offset 8, -4
 2074 0004 0018     		addi	s0,sp,48
 2075              		.cfi_def_cfa 8, 0
 2076 0006 232EA4FC 		sw	a0,-36(s0)
 2077 000a AE87     		mv	a5,a1
 2078 000c 231DF4FC 		sh	a5,-38(s0)
1052:Drivers/src/ch32v20x_adc.c ****     ITStatus bitstatus = RESET;
 2079              		.loc 1 1052 14
 2080 0010 232604FE 		sw	zero,-20(s0)
1053:Drivers/src/ch32v20x_adc.c ****     uint32_t itmask = 0, enablestatus = 0;
 2081              		.loc 1 1053 14
 2082 0014 232404FE 		sw	zero,-24(s0)
 2083              		.loc 1 1053 26
 2084 0018 232204FE 		sw	zero,-28(s0)
1054:Drivers/src/ch32v20x_adc.c **** 
1055:Drivers/src/ch32v20x_adc.c ****     itmask = ADC_IT >> 8;
 2085              		.loc 1 1055 21
 2086 001c 8357A4FD 		lhu	a5,-38(s0)
 2087 0020 A183     		srli	a5,a5,8
 2088 0022 C207     		slli	a5,a5,16
GAS LISTING C:\Users\SOLDER~1\AppData\Local\Temp\ccI3TRm9.s 			page 56


 2089 0024 C183     		srli	a5,a5,16
 2090              		.loc 1 1055 12
 2091 0026 2324F4FE 		sw	a5,-24(s0)
1056:Drivers/src/ch32v20x_adc.c ****     enablestatus = (ADCx->CTLR1 & (uint8_t)ADC_IT);
 2092              		.loc 1 1056 25
 2093 002a 8327C4FD 		lw	a5,-36(s0)
 2094 002e DC43     		lw	a5,4(a5)
 2095              		.loc 1 1056 35
 2096 0030 0357A4FD 		lhu	a4,-38(s0)
 2097 0034 1377F70F 		andi	a4,a4,0xff
 2098              		.loc 1 1056 18
 2099 0038 F98F     		and	a5,a5,a4
 2100 003a 2322F4FE 		sw	a5,-28(s0)
1057:Drivers/src/ch32v20x_adc.c **** 
1058:Drivers/src/ch32v20x_adc.c ****     if(((ADCx->STATR & itmask) != (uint32_t)RESET) && enablestatus)
 2101              		.loc 1 1058 14
 2102 003e 8327C4FD 		lw	a5,-36(s0)
 2103 0042 9843     		lw	a4,0(a5)
 2104              		.loc 1 1058 22
 2105 0044 832784FE 		lw	a5,-24(s0)
 2106 0048 F98F     		and	a5,a4,a5
 2107              		.loc 1 1058 7
 2108 004a 81CB     		beq	a5,zero,.L98
 2109              		.loc 1 1058 52 discriminator 1
 2110 004c 832744FE 		lw	a5,-28(s0)
 2111 0050 89C7     		beq	a5,zero,.L98
1059:Drivers/src/ch32v20x_adc.c ****     {
1060:Drivers/src/ch32v20x_adc.c ****         bitstatus = SET;
 2112              		.loc 1 1060 19
 2113 0052 8547     		li	a5,1
 2114 0054 2326F4FE 		sw	a5,-20(s0)
 2115 0058 19A0     		j	.L99
 2116              	.L98:
1061:Drivers/src/ch32v20x_adc.c ****     }
1062:Drivers/src/ch32v20x_adc.c ****     else
1063:Drivers/src/ch32v20x_adc.c ****     {
1064:Drivers/src/ch32v20x_adc.c ****         bitstatus = RESET;
 2117              		.loc 1 1064 19
 2118 005a 232604FE 		sw	zero,-20(s0)
 2119              	.L99:
1065:Drivers/src/ch32v20x_adc.c ****     }
1066:Drivers/src/ch32v20x_adc.c **** 
1067:Drivers/src/ch32v20x_adc.c ****     return bitstatus;
 2120              		.loc 1 1067 12
 2121 005e 8327C4FE 		lw	a5,-20(s0)
1068:Drivers/src/ch32v20x_adc.c **** }
 2122              		.loc 1 1068 1
 2123 0062 3E85     		mv	a0,a5
 2124 0064 3254     		lw	s0,44(sp)
 2125              		.cfi_restore 8
 2126              		.cfi_def_cfa 2, 48
 2127 0066 4561     		addi	sp,sp,48
 2128              		.cfi_def_cfa_offset 0
 2129 0068 8280     		jr	ra
 2130              		.cfi_endproc
 2131              	.LFE50:
 2133              		.section	.text.ADC_ClearITPendingBit,"ax",@progbits
GAS LISTING C:\Users\SOLDER~1\AppData\Local\Temp\ccI3TRm9.s 			page 57


 2134              		.align	1
 2135              		.globl	ADC_ClearITPendingBit
 2137              	ADC_ClearITPendingBit:
 2138              	.LFB51:
1069:Drivers/src/ch32v20x_adc.c **** 
1070:Drivers/src/ch32v20x_adc.c **** /*********************************************************************
1071:Drivers/src/ch32v20x_adc.c ****  * @fn      ADC_ClearITPendingBit
1072:Drivers/src/ch32v20x_adc.c ****  *
1073:Drivers/src/ch32v20x_adc.c ****  * @brief   Clears the ADCx's interrupt pending bits.
1074:Drivers/src/ch32v20x_adc.c ****  *
1075:Drivers/src/ch32v20x_adc.c ****  * @param   ADCx - where x can be 1 or 2 to select the ADC peripheral.
1076:Drivers/src/ch32v20x_adc.c ****  *          ADC_IT - specifies the ADC interrupt pending bit to clear.
1077:Drivers/src/ch32v20x_adc.c ****  *            ADC_IT_EOC - End of conversion interrupt mask.
1078:Drivers/src/ch32v20x_adc.c ****  *            ADC_IT_AWD - Analog watchdog interrupt mask.
1079:Drivers/src/ch32v20x_adc.c ****  *            ADC_IT_JEOC - End of injected conversion interrupt mask.
1080:Drivers/src/ch32v20x_adc.c ****  *
1081:Drivers/src/ch32v20x_adc.c ****  * @return  none
1082:Drivers/src/ch32v20x_adc.c ****  */
1083:Drivers/src/ch32v20x_adc.c **** void ADC_ClearITPendingBit(ADC_TypeDef *ADCx, uint16_t ADC_IT)
1084:Drivers/src/ch32v20x_adc.c **** {
 2139              		.loc 1 1084 1
 2140              		.cfi_startproc
 2141 0000 7971     		addi	sp,sp,-48
 2142              		.cfi_def_cfa_offset 48
 2143 0002 22D6     		sw	s0,44(sp)
 2144              		.cfi_offset 8, -4
 2145 0004 0018     		addi	s0,sp,48
 2146              		.cfi_def_cfa 8, 0
 2147 0006 232EA4FC 		sw	a0,-36(s0)
 2148 000a AE87     		mv	a5,a1
 2149 000c 231DF4FC 		sh	a5,-38(s0)
1085:Drivers/src/ch32v20x_adc.c ****     uint8_t itmask = 0;
 2150              		.loc 1 1085 13
 2151 0010 A30704FE 		sb	zero,-17(s0)
1086:Drivers/src/ch32v20x_adc.c **** 
1087:Drivers/src/ch32v20x_adc.c ****     itmask = (uint8_t)(ADC_IT >> 8);
 2152              		.loc 1 1087 14
 2153 0014 8357A4FD 		lhu	a5,-38(s0)
 2154 0018 A183     		srli	a5,a5,8
 2155 001a C207     		slli	a5,a5,16
 2156 001c C183     		srli	a5,a5,16
 2157              		.loc 1 1087 12
 2158 001e A307F4FE 		sb	a5,-17(s0)
1088:Drivers/src/ch32v20x_adc.c ****     ADCx->STATR = ~(uint32_t)itmask;
 2159              		.loc 1 1088 20
 2160 0022 8347F4FE 		lbu	a5,-17(s0)
 2161              		.loc 1 1088 19
 2162 0026 13C7F7FF 		not	a4,a5
 2163              		.loc 1 1088 17
 2164 002a 8327C4FD 		lw	a5,-36(s0)
 2165 002e 98C3     		sw	a4,0(a5)
1089:Drivers/src/ch32v20x_adc.c **** }
 2166              		.loc 1 1089 1
 2167 0030 0100     		nop
 2168 0032 3254     		lw	s0,44(sp)
 2169              		.cfi_restore 8
 2170              		.cfi_def_cfa 2, 48
GAS LISTING C:\Users\SOLDER~1\AppData\Local\Temp\ccI3TRm9.s 			page 58


 2171 0034 4561     		addi	sp,sp,48
 2172              		.cfi_def_cfa_offset 0
 2173 0036 8280     		jr	ra
 2174              		.cfi_endproc
 2175              	.LFE51:
 2177              		.section	.text.TempSensor_Volt_To_Temper,"ax",@progbits
 2178              		.align	1
 2179              		.globl	TempSensor_Volt_To_Temper
 2181              	TempSensor_Volt_To_Temper:
 2182              	.LFB52:
1090:Drivers/src/ch32v20x_adc.c **** 
1091:Drivers/src/ch32v20x_adc.c **** /*********************************************************************
1092:Drivers/src/ch32v20x_adc.c ****  * @fn      TempSensor_Volt_To_Temper
1093:Drivers/src/ch32v20x_adc.c ****  *
1094:Drivers/src/ch32v20x_adc.c ****  * @brief   Internal Temperature Sensor Voltage to temperature.
1095:Drivers/src/ch32v20x_adc.c ****  *
1096:Drivers/src/ch32v20x_adc.c ****  * @param   Value - Voltage Value(mv).
1097:Drivers/src/ch32v20x_adc.c ****  *
1098:Drivers/src/ch32v20x_adc.c ****  * @return  Temper - Temperature Value.
1099:Drivers/src/ch32v20x_adc.c ****  */
1100:Drivers/src/ch32v20x_adc.c **** s32 TempSensor_Volt_To_Temper(s32 Value)
1101:Drivers/src/ch32v20x_adc.c **** {
 2183              		.loc 1 1101 1
 2184              		.cfi_startproc
 2185 0000 7971     		addi	sp,sp,-48
 2186              		.cfi_def_cfa_offset 48
 2187 0002 22D6     		sw	s0,44(sp)
 2188              		.cfi_offset 8, -4
 2189 0004 0018     		addi	s0,sp,48
 2190              		.cfi_def_cfa 8, 0
 2191 0006 232EA4FC 		sw	a0,-36(s0)
1102:Drivers/src/ch32v20x_adc.c ****     s32 Temper, Refer_Volt, Refer_Temper;
1103:Drivers/src/ch32v20x_adc.c ****     s32 k = 43;
 2192              		.loc 1 1103 9
 2193 000a 9307B002 		li	a5,43
 2194 000e 2326F4FE 		sw	a5,-20(s0)
1104:Drivers/src/ch32v20x_adc.c **** 
1105:Drivers/src/ch32v20x_adc.c ****     Refer_Volt = (s32)((*(u32 *)0x1FFFF720) & 0x0000FFFF);
 2195              		.loc 1 1105 25
 2196 0012 B7F7FF1F 		li	a5,536866816
 2197 0016 93870772 		addi	a5,a5,1824
 2198 001a 9C43     		lw	a5,0(a5)
 2199              		.loc 1 1105 45
 2200 001c 3E87     		mv	a4,a5
 2201              		.loc 1 1105 16
 2202 001e C167     		li	a5,65536
 2203 0020 FD17     		addi	a5,a5,-1
 2204 0022 F98F     		and	a5,a4,a5
 2205 0024 2324F4FE 		sw	a5,-24(s0)
1106:Drivers/src/ch32v20x_adc.c ****     Refer_Temper = (s32)(((*(u32 *)0x1FFFF720) >> 16) & 0x0000FFFF);
 2206              		.loc 1 1106 28
 2207 0028 B7F7FF1F 		li	a5,536866816
 2208 002c 93870772 		addi	a5,a5,1824
 2209 0030 9C43     		lw	a5,0(a5)
 2210              		.loc 1 1106 48
 2211 0032 C183     		srli	a5,a5,16
 2212              		.loc 1 1106 18
GAS LISTING C:\Users\SOLDER~1\AppData\Local\Temp\ccI3TRm9.s 			page 59


 2213 0034 2322F4FE 		sw	a5,-28(s0)
1107:Drivers/src/ch32v20x_adc.c **** 
1108:Drivers/src/ch32v20x_adc.c ****     Temper = Refer_Temper - ((Value - Refer_Volt) * 10 + (k >> 1)) / k;
 2214              		.loc 1 1108 37
 2215 0038 0327C4FD 		lw	a4,-36(s0)
 2216 003c 832784FE 		lw	a5,-24(s0)
 2217 0040 1D8F     		sub	a4,a4,a5
 2218              		.loc 1 1108 51
 2219 0042 BA87     		mv	a5,a4
 2220 0044 8A07     		slli	a5,a5,2
 2221 0046 BA97     		add	a5,a5,a4
 2222 0048 8607     		slli	a5,a5,1
 2223 004a 3E87     		mv	a4,a5
 2224              		.loc 1 1108 61
 2225 004c 8327C4FE 		lw	a5,-20(s0)
 2226 0050 8587     		srai	a5,a5,1
 2227              		.loc 1 1108 56
 2228 0052 3E97     		add	a4,a4,a5
 2229              		.loc 1 1108 68
 2230 0054 8327C4FE 		lw	a5,-20(s0)
 2231 0058 B347F702 		div	a5,a4,a5
 2232              		.loc 1 1108 12
 2233 005c 032744FE 		lw	a4,-28(s0)
 2234 0060 B307F740 		sub	a5,a4,a5
 2235 0064 2320F4FE 		sw	a5,-32(s0)
1109:Drivers/src/ch32v20x_adc.c **** 
1110:Drivers/src/ch32v20x_adc.c ****     return Temper;
 2236              		.loc 1 1110 12
 2237 0068 832704FE 		lw	a5,-32(s0)
1111:Drivers/src/ch32v20x_adc.c **** }
 2238              		.loc 1 1111 1
 2239 006c 3E85     		mv	a0,a5
 2240 006e 3254     		lw	s0,44(sp)
 2241              		.cfi_restore 8
 2242              		.cfi_def_cfa 2, 48
 2243 0070 4561     		addi	sp,sp,48
 2244              		.cfi_def_cfa_offset 0
 2245 0072 8280     		jr	ra
 2246              		.cfi_endproc
 2247              	.LFE52:
 2249              		.section	.text.ADC_BufferCmd,"ax",@progbits
 2250              		.align	1
 2251              		.globl	ADC_BufferCmd
 2253              	ADC_BufferCmd:
 2254              	.LFB53:
1112:Drivers/src/ch32v20x_adc.c **** 
1113:Drivers/src/ch32v20x_adc.c **** /*********************************************************************
1114:Drivers/src/ch32v20x_adc.c ****  * @fn      ADC_BufferCmd
1115:Drivers/src/ch32v20x_adc.c ****  *
1116:Drivers/src/ch32v20x_adc.c ****  * @brief   Enables or disables the ADCx buffer.
1117:Drivers/src/ch32v20x_adc.c ****  *
1118:Drivers/src/ch32v20x_adc.c ****  * @param   ADCx - where x can be 1 or 2 to select the ADC peripheral.
1119:Drivers/src/ch32v20x_adc.c ****  *          NewState - ENABLE or DISABLE.
1120:Drivers/src/ch32v20x_adc.c ****  *
1121:Drivers/src/ch32v20x_adc.c ****  * @return  none
1122:Drivers/src/ch32v20x_adc.c ****  */
1123:Drivers/src/ch32v20x_adc.c **** void ADC_BufferCmd(ADC_TypeDef *ADCx, FunctionalState NewState)
GAS LISTING C:\Users\SOLDER~1\AppData\Local\Temp\ccI3TRm9.s 			page 60


1124:Drivers/src/ch32v20x_adc.c **** {
 2255              		.loc 1 1124 1
 2256              		.cfi_startproc
 2257 0000 0111     		addi	sp,sp,-32
 2258              		.cfi_def_cfa_offset 32
 2259 0002 22CE     		sw	s0,28(sp)
 2260              		.cfi_offset 8, -4
 2261 0004 0010     		addi	s0,sp,32
 2262              		.cfi_def_cfa 8, 0
 2263 0006 2326A4FE 		sw	a0,-20(s0)
 2264 000a 2324B4FE 		sw	a1,-24(s0)
1125:Drivers/src/ch32v20x_adc.c ****     if(NewState != DISABLE)
 2265              		.loc 1 1125 7
 2266 000e 832784FE 		lw	a5,-24(s0)
 2267 0012 99CB     		beq	a5,zero,.L105
1126:Drivers/src/ch32v20x_adc.c ****     {
1127:Drivers/src/ch32v20x_adc.c ****         ADCx->CTLR1 |= (1 << 26);
 2268              		.loc 1 1127 13
 2269 0014 8327C4FE 		lw	a5,-20(s0)
 2270 0018 D843     		lw	a4,4(a5)
 2271              		.loc 1 1127 21
 2272 001a B7070004 		li	a5,67108864
 2273 001e 5D8F     		or	a4,a4,a5
 2274 0020 8327C4FE 		lw	a5,-20(s0)
 2275 0024 D8C3     		sw	a4,4(a5)
1128:Drivers/src/ch32v20x_adc.c ****     }
1129:Drivers/src/ch32v20x_adc.c ****     else
1130:Drivers/src/ch32v20x_adc.c ****     {
1131:Drivers/src/ch32v20x_adc.c ****         ADCx->CTLR1 &= ~(1 << 26);
1132:Drivers/src/ch32v20x_adc.c ****     }
1133:Drivers/src/ch32v20x_adc.c **** }
 2276              		.loc 1 1133 1
 2277 0026 19A8     		j	.L107
 2278              	.L105:
1131:Drivers/src/ch32v20x_adc.c ****     }
 2279              		.loc 1 1131 13
 2280 0028 8327C4FE 		lw	a5,-20(s0)
 2281 002c D843     		lw	a4,4(a5)
1131:Drivers/src/ch32v20x_adc.c ****     }
 2282              		.loc 1 1131 21
 2283 002e B70700FC 		li	a5,-67108864
 2284 0032 FD17     		addi	a5,a5,-1
 2285 0034 7D8F     		and	a4,a4,a5
 2286 0036 8327C4FE 		lw	a5,-20(s0)
 2287 003a D8C3     		sw	a4,4(a5)
 2288              	.L107:
 2289              		.loc 1 1133 1
 2290 003c 0100     		nop
 2291 003e 7244     		lw	s0,28(sp)
 2292              		.cfi_restore 8
 2293              		.cfi_def_cfa 2, 32
 2294 0040 0561     		addi	sp,sp,32
 2295              		.cfi_def_cfa_offset 0
 2296 0042 8280     		jr	ra
 2297              		.cfi_endproc
 2298              	.LFE53:
 2300              		.section	.text.Get_CalibrationValue,"ax",@progbits
GAS LISTING C:\Users\SOLDER~1\AppData\Local\Temp\ccI3TRm9.s 			page 61


 2301              		.align	1
 2302              		.globl	Get_CalibrationValue
 2304              	Get_CalibrationValue:
 2305              	.LFB54:
1134:Drivers/src/ch32v20x_adc.c **** 
1135:Drivers/src/ch32v20x_adc.c **** /*********************************************************************
1136:Drivers/src/ch32v20x_adc.c ****  * @fn      Get_CalibrationValue
1137:Drivers/src/ch32v20x_adc.c ****  *
1138:Drivers/src/ch32v20x_adc.c ****  * @brief   Get ADCx Calibration Value.
1139:Drivers/src/ch32v20x_adc.c ****  *
1140:Drivers/src/ch32v20x_adc.c ****  * @param   ADCx - where x can be 1 or 2 to select the ADC peripheral.
1141:Drivers/src/ch32v20x_adc.c ****  *
1142:Drivers/src/ch32v20x_adc.c ****  * @return  CalibrationValue
1143:Drivers/src/ch32v20x_adc.c ****  */
1144:Drivers/src/ch32v20x_adc.c **** int16_t Get_CalibrationValue(ADC_TypeDef *ADCx)
1145:Drivers/src/ch32v20x_adc.c **** {
 2306              		.loc 1 1145 1
 2307              		.cfi_startproc
 2308 0000 3971     		addi	sp,sp,-64
 2309              		.cfi_def_cfa_offset 64
 2310 0002 06DE     		sw	ra,60(sp)
 2311 0004 22DC     		sw	s0,56(sp)
 2312              		.cfi_offset 1, -4
 2313              		.cfi_offset 8, -8
 2314 0006 8000     		addi	s0,sp,64
 2315              		.cfi_def_cfa 8, 0
 2316 0008 2326A4FC 		sw	a0,-52(s0)
1146:Drivers/src/ch32v20x_adc.c ****     __IO uint8_t  i, j;
1147:Drivers/src/ch32v20x_adc.c ****     uint16_t      buf[10];
1148:Drivers/src/ch32v20x_adc.c ****     __IO uint16_t t;
1149:Drivers/src/ch32v20x_adc.c **** #if defined (CH32V20x_D6)
1150:Drivers/src/ch32v20x_adc.c ****     __IO uint16_t p;
1151:Drivers/src/ch32v20x_adc.c **** #endif
1152:Drivers/src/ch32v20x_adc.c **** 
1153:Drivers/src/ch32v20x_adc.c ****     for(i = 0; i < 10; i++){
 2317              		.loc 1 1153 11
 2318 000c A30704FE 		sb	zero,-17(s0)
 2319              		.loc 1 1153 5
 2320 0010 B5A0     		j	.L109
 2321              	.L112:
1154:Drivers/src/ch32v20x_adc.c ****         ADC_ResetCalibration(ADCx);
 2322              		.loc 1 1154 9
 2323 0012 0325C4FC 		lw	a0,-52(s0)
 2324 0016 97000000 		call	ADC_ResetCalibration
 2324      E7800000 
1155:Drivers/src/ch32v20x_adc.c ****         while(ADC_GetResetCalibrationStatus(ADCx));
 2325              		.loc 1 1155 14
 2326 001e 0100     		nop
 2327              	.L110:
 2328              		.loc 1 1155 15 discriminator 1
 2329 0020 0325C4FC 		lw	a0,-52(s0)
 2330 0024 97000000 		call	ADC_GetResetCalibrationStatus
 2330      E7800000 
 2331 002c AA87     		mv	a5,a0
 2332 002e EDFB     		bne	a5,zero,.L110
1156:Drivers/src/ch32v20x_adc.c ****         ADC_StartCalibration(ADCx);
 2333              		.loc 1 1156 9
GAS LISTING C:\Users\SOLDER~1\AppData\Local\Temp\ccI3TRm9.s 			page 62


 2334 0030 0325C4FC 		lw	a0,-52(s0)
 2335 0034 97000000 		call	ADC_StartCalibration
 2335      E7800000 
1157:Drivers/src/ch32v20x_adc.c ****         while(ADC_GetCalibrationStatus(ADCx));
 2336              		.loc 1 1157 14
 2337 003c 0100     		nop
 2338              	.L111:
 2339              		.loc 1 1157 15 discriminator 1
 2340 003e 0325C4FC 		lw	a0,-52(s0)
 2341 0042 97000000 		call	ADC_GetCalibrationStatus
 2341      E7800000 
 2342 004a AA87     		mv	a5,a0
 2343 004c EDFB     		bne	a5,zero,.L111
1158:Drivers/src/ch32v20x_adc.c ****         buf[i] = ADCx->RDATAR;
 2344              		.loc 1 1158 22 discriminator 2
 2345 004e 8327C4FC 		lw	a5,-52(s0)
 2346 0052 F847     		lw	a4,76(a5)
 2347              		.loc 1 1158 12 discriminator 2
 2348 0054 8347F4FE 		lbu	a5,-17(s0)
 2349 0058 93F7F70F 		andi	a5,a5,0xff
 2350              		.loc 1 1158 16 discriminator 2
 2351 005c 4207     		slli	a4,a4,16
 2352 005e 4183     		srli	a4,a4,16
 2353 0060 8607     		slli	a5,a5,1
 2354 0062 C117     		addi	a5,a5,-16
 2355 0064 A297     		add	a5,a5,s0
 2356 0066 2394E7FE 		sh	a4,-24(a5)
1153:Drivers/src/ch32v20x_adc.c ****         ADC_ResetCalibration(ADCx);
 2357              		.loc 1 1153 25 discriminator 2
 2358 006a 8347F4FE 		lbu	a5,-17(s0)
 2359 006e 93F7F70F 		andi	a5,a5,0xff
 2360 0072 8507     		addi	a5,a5,1
 2361 0074 93F7F70F 		andi	a5,a5,0xff
 2362 0078 A307F4FE 		sb	a5,-17(s0)
 2363              	.L109:
1153:Drivers/src/ch32v20x_adc.c ****         ADC_ResetCalibration(ADCx);
 2364              		.loc 1 1153 18 discriminator 1
 2365 007c 8347F4FE 		lbu	a5,-17(s0)
 2366 0080 13F7F70F 		andi	a4,a5,0xff
 2367 0084 A547     		li	a5,9
 2368 0086 E3F6E7F8 		bleu	a4,a5,.L112
1159:Drivers/src/ch32v20x_adc.c ****     }
1160:Drivers/src/ch32v20x_adc.c **** 
1161:Drivers/src/ch32v20x_adc.c ****     for(i = 0; i < 10; i++){
 2369              		.loc 1 1161 11
 2370 008a A30704FE 		sb	zero,-17(s0)
 2371              		.loc 1 1161 5
 2372 008e C1A0     		j	.L113
 2373              	.L117:
1162:Drivers/src/ch32v20x_adc.c ****         for(j = 0; j < 9; j++){
 2374              		.loc 1 1162 15
 2375 0090 230704FE 		sb	zero,-18(s0)
 2376              		.loc 1 1162 9
 2377 0094 69A8     		j	.L114
 2378              	.L116:
1163:Drivers/src/ch32v20x_adc.c ****             if(buf[j] > buf[j + 1])
 2379              		.loc 1 1163 19
GAS LISTING C:\Users\SOLDER~1\AppData\Local\Temp\ccI3TRm9.s 			page 63


 2380 0096 8347E4FE 		lbu	a5,-18(s0)
 2381 009a 93F7F70F 		andi	a5,a5,0xff
 2382 009e 8607     		slli	a5,a5,1
 2383 00a0 C117     		addi	a5,a5,-16
 2384 00a2 A297     		add	a5,a5,s0
 2385 00a4 03D787FE 		lhu	a4,-24(a5)
 2386              		.loc 1 1163 31
 2387 00a8 8347E4FE 		lbu	a5,-18(s0)
 2388 00ac 93F7F70F 		andi	a5,a5,0xff
 2389 00b0 8507     		addi	a5,a5,1
 2390              		.loc 1 1163 28
 2391 00b2 8607     		slli	a5,a5,1
 2392 00b4 C117     		addi	a5,a5,-16
 2393 00b6 A297     		add	a5,a5,s0
 2394 00b8 83D787FE 		lhu	a5,-24(a5)
 2395              		.loc 1 1163 15
 2396 00bc 63F0E706 		bleu	a4,a5,.L115
1164:Drivers/src/ch32v20x_adc.c ****             {
1165:Drivers/src/ch32v20x_adc.c ****                 t = buf[j];
 2397              		.loc 1 1165 24
 2398 00c0 8347E4FE 		lbu	a5,-18(s0)
 2399 00c4 93F7F70F 		andi	a5,a5,0xff
 2400 00c8 8607     		slli	a5,a5,1
 2401 00ca C117     		addi	a5,a5,-16
 2402 00cc A297     		add	a5,a5,s0
 2403 00ce 83D787FE 		lhu	a5,-24(a5)
 2404              		.loc 1 1165 19
 2405 00d2 231BF4FC 		sh	a5,-42(s0)
1166:Drivers/src/ch32v20x_adc.c ****                 buf[j] = buf[j + 1];
 2406              		.loc 1 1166 32
 2407 00d6 8347E4FE 		lbu	a5,-18(s0)
 2408 00da 93F7F70F 		andi	a5,a5,0xff
 2409 00de 8507     		addi	a5,a5,1
 2410              		.loc 1 1166 20
 2411 00e0 0347E4FE 		lbu	a4,-18(s0)
 2412 00e4 1377F70F 		andi	a4,a4,0xff
 2413 00e8 BA86     		mv	a3,a4
 2414              		.loc 1 1166 29
 2415 00ea 8607     		slli	a5,a5,1
 2416 00ec C117     		addi	a5,a5,-16
 2417 00ee A297     		add	a5,a5,s0
 2418 00f0 03D787FE 		lhu	a4,-24(a5)
 2419              		.loc 1 1166 24
 2420 00f4 93971600 		slli	a5,a3,1
 2421 00f8 C117     		addi	a5,a5,-16
 2422 00fa A297     		add	a5,a5,s0
 2423 00fc 2394E7FE 		sh	a4,-24(a5)
1167:Drivers/src/ch32v20x_adc.c ****                 buf[j + 1] = t;
 2424              		.loc 1 1167 23
 2425 0100 8347E4FE 		lbu	a5,-18(s0)
 2426 0104 93F7F70F 		andi	a5,a5,0xff
 2427 0108 8507     		addi	a5,a5,1
 2428              		.loc 1 1167 28
 2429 010a 035764FD 		lhu	a4,-42(s0)
 2430 010e 4207     		slli	a4,a4,16
 2431 0110 4183     		srli	a4,a4,16
 2432 0112 8607     		slli	a5,a5,1
GAS LISTING C:\Users\SOLDER~1\AppData\Local\Temp\ccI3TRm9.s 			page 64


 2433 0114 C117     		addi	a5,a5,-16
 2434 0116 A297     		add	a5,a5,s0
 2435 0118 2394E7FE 		sh	a4,-24(a5)
 2436              	.L115:
1162:Drivers/src/ch32v20x_adc.c ****             if(buf[j] > buf[j + 1])
 2437              		.loc 1 1162 28 discriminator 2
 2438 011c 8347E4FE 		lbu	a5,-18(s0)
 2439 0120 93F7F70F 		andi	a5,a5,0xff
 2440 0124 8507     		addi	a5,a5,1
 2441 0126 93F7F70F 		andi	a5,a5,0xff
 2442 012a 2307F4FE 		sb	a5,-18(s0)
 2443              	.L114:
1162:Drivers/src/ch32v20x_adc.c ****             if(buf[j] > buf[j + 1])
 2444              		.loc 1 1162 22 discriminator 1
 2445 012e 8347E4FE 		lbu	a5,-18(s0)
 2446 0132 13F7F70F 		andi	a4,a5,0xff
 2447 0136 A147     		li	a5,8
 2448 0138 E3FFE7F4 		bleu	a4,a5,.L116
1161:Drivers/src/ch32v20x_adc.c ****         for(j = 0; j < 9; j++){
 2449              		.loc 1 1161 25 discriminator 2
 2450 013c 8347F4FE 		lbu	a5,-17(s0)
 2451 0140 93F7F70F 		andi	a5,a5,0xff
 2452 0144 8507     		addi	a5,a5,1
 2453 0146 93F7F70F 		andi	a5,a5,0xff
 2454 014a A307F4FE 		sb	a5,-17(s0)
 2455              	.L113:
1161:Drivers/src/ch32v20x_adc.c ****         for(j = 0; j < 9; j++){
 2456              		.loc 1 1161 18 discriminator 1
 2457 014e 8347F4FE 		lbu	a5,-17(s0)
 2458 0152 13F7F70F 		andi	a4,a5,0xff
 2459 0156 A547     		li	a5,9
 2460 0158 E3FCE7F2 		bleu	a4,a5,.L117
1168:Drivers/src/ch32v20x_adc.c ****             }
1169:Drivers/src/ch32v20x_adc.c ****         }
1170:Drivers/src/ch32v20x_adc.c ****     }
1171:Drivers/src/ch32v20x_adc.c **** 
1172:Drivers/src/ch32v20x_adc.c **** #if defined (CH32V20x_D8) || defined (CH32V20x_D8W)
1173:Drivers/src/ch32v20x_adc.c ****     t = 0;
1174:Drivers/src/ch32v20x_adc.c ****     for( i = 0; i < 6; i++ ) {
1175:Drivers/src/ch32v20x_adc.c ****         t += buf[i + 2];
1176:Drivers/src/ch32v20x_adc.c ****     }
1177:Drivers/src/ch32v20x_adc.c **** 
1178:Drivers/src/ch32v20x_adc.c ****     t = ( t / 6 ) + ( ( t % 6 ) / 3 );
1179:Drivers/src/ch32v20x_adc.c **** 
1180:Drivers/src/ch32v20x_adc.c ****     return ( int16_t )( 2048 - ( int16_t )t );
1181:Drivers/src/ch32v20x_adc.c **** #else
1182:Drivers/src/ch32v20x_adc.c ****     t = 0;
 2461              		.loc 1 1182 7
 2462 015c 231B04FC 		sh	zero,-42(s0)
1183:Drivers/src/ch32v20x_adc.c ****     p = 0;
 2463              		.loc 1 1183 7
 2464 0160 231A04FC 		sh	zero,-44(s0)
1184:Drivers/src/ch32v20x_adc.c ****     /* 1024 */
1185:Drivers/src/ch32v20x_adc.c ****     for(i = 0; i < 6; i++ ){
 2465              		.loc 1 1185 11
 2466 0164 A30704FE 		sb	zero,-17(s0)
 2467              		.loc 1 1185 5
GAS LISTING C:\Users\SOLDER~1\AppData\Local\Temp\ccI3TRm9.s 			page 65


 2468 0168 99A8     		j	.L118
 2469              	.L121:
1186:Drivers/src/ch32v20x_adc.c ****             if(buf[i+2] > 1536) break;
 2470              		.loc 1 1186 21
 2471 016a 8347F4FE 		lbu	a5,-17(s0)
 2472 016e 93F7F70F 		andi	a5,a5,0xff
 2473 0172 8907     		addi	a5,a5,2
 2474              		.loc 1 1186 19
 2475 0174 8607     		slli	a5,a5,1
 2476 0176 C117     		addi	a5,a5,-16
 2477 0178 A297     		add	a5,a5,s0
 2478 017a 03D787FE 		lhu	a4,-24(a5)
 2479              		.loc 1 1186 15
 2480 017e 93070060 		li	a5,1536
 2481 0182 63E6E704 		bgtu	a4,a5,.L129
1187:Drivers/src/ch32v20x_adc.c ****             t += buf[i+2];
 2482              		.loc 1 1187 23 discriminator 2
 2483 0186 8347F4FE 		lbu	a5,-17(s0)
 2484 018a 93F7F70F 		andi	a5,a5,0xff
 2485 018e 8907     		addi	a5,a5,2
 2486              		.loc 1 1187 21 discriminator 2
 2487 0190 8607     		slli	a5,a5,1
 2488 0192 C117     		addi	a5,a5,-16
 2489 0194 A297     		add	a5,a5,s0
 2490 0196 03D787FE 		lhu	a4,-24(a5)
 2491              		.loc 1 1187 15 discriminator 2
 2492 019a 835764FD 		lhu	a5,-42(s0)
 2493 019e C207     		slli	a5,a5,16
 2494 01a0 C183     		srli	a5,a5,16
 2495 01a2 BA97     		add	a5,a4,a5
 2496 01a4 C207     		slli	a5,a5,16
 2497 01a6 C183     		srli	a5,a5,16
 2498 01a8 231BF4FC 		sh	a5,-42(s0)
1185:Drivers/src/ch32v20x_adc.c ****             if(buf[i+2] > 1536) break;
 2499              		.loc 1 1185 24 discriminator 2
 2500 01ac 8347F4FE 		lbu	a5,-17(s0)
 2501 01b0 93F7F70F 		andi	a5,a5,0xff
 2502 01b4 8507     		addi	a5,a5,1
 2503 01b6 93F7F70F 		andi	a5,a5,0xff
 2504 01ba A307F4FE 		sb	a5,-17(s0)
 2505              	.L118:
1185:Drivers/src/ch32v20x_adc.c ****             if(buf[i+2] > 1536) break;
 2506              		.loc 1 1185 18 discriminator 1
 2507 01be 8347F4FE 		lbu	a5,-17(s0)
 2508 01c2 13F7F70F 		andi	a4,a5,0xff
 2509 01c6 9547     		li	a5,5
 2510 01c8 E3F1E7FA 		bleu	a4,a5,.L121
 2511 01cc 11A0     		j	.L120
 2512              	.L129:
1186:Drivers/src/ch32v20x_adc.c ****             if(buf[i+2] > 1536) break;
 2513              		.loc 1 1186 33
 2514 01ce 0100     		nop
 2515              	.L120:
1188:Drivers/src/ch32v20x_adc.c ****     }
1189:Drivers/src/ch32v20x_adc.c **** 
1190:Drivers/src/ch32v20x_adc.c ****     if(i > 0){
 2516              		.loc 1 1190 10
GAS LISTING C:\Users\SOLDER~1\AppData\Local\Temp\ccI3TRm9.s 			page 66


 2517 01d0 8347F4FE 		lbu	a5,-17(s0)
 2518 01d4 93F7F70F 		andi	a5,a5,0xff
 2519              		.loc 1 1190 7
 2520 01d8 A9CB     		beq	a5,zero,.L122
1191:Drivers/src/ch32v20x_adc.c ****             t = ( t / i ) + ( (( t % i )*2) / i );
 2521              		.loc 1 1191 21
 2522 01da 835764FD 		lhu	a5,-42(s0)
 2523 01de C207     		slli	a5,a5,16
 2524 01e0 C183     		srli	a5,a5,16
 2525 01e2 3E87     		mv	a4,a5
 2526 01e4 8347F4FE 		lbu	a5,-17(s0)
 2527 01e8 93F7F70F 		andi	a5,a5,0xff
 2528 01ec B347F702 		div	a5,a4,a5
 2529              		.loc 1 1191 27
 2530 01f0 13970701 		slli	a4,a5,16
 2531 01f4 4183     		srli	a4,a4,16
 2532              		.loc 1 1191 36
 2533 01f6 835764FD 		lhu	a5,-42(s0)
 2534 01fa C207     		slli	a5,a5,16
 2535 01fc C183     		srli	a5,a5,16
 2536 01fe BE86     		mv	a3,a5
 2537 0200 8347F4FE 		lbu	a5,-17(s0)
 2538 0204 93F7F70F 		andi	a5,a5,0xff
 2539 0208 B3E7F602 		rem	a5,a3,a5
 2540              		.loc 1 1191 41
 2541 020c 8607     		slli	a5,a5,1
 2542              		.loc 1 1191 45
 2543 020e 8346F4FE 		lbu	a3,-17(s0)
 2544 0212 93F6F60F 		andi	a3,a3,0xff
 2545 0216 B3C7D702 		div	a5,a5,a3
 2546              		.loc 1 1191 27
 2547 021a C207     		slli	a5,a5,16
 2548 021c C183     		srli	a5,a5,16
 2549 021e BA97     		add	a5,a4,a5
 2550 0220 C207     		slli	a5,a5,16
 2551 0222 C183     		srli	a5,a5,16
 2552              		.loc 1 1191 15
 2553 0224 231BF4FC 		sh	a5,-42(s0)
 2554 0228 29A0     		j	.L123
 2555              	.L122:
1192:Drivers/src/ch32v20x_adc.c ****     }
1193:Drivers/src/ch32v20x_adc.c ****     else t = 1024;
 2556              		.loc 1 1193 12
 2557 022a 93070040 		li	a5,1024
 2558 022e 231BF4FC 		sh	a5,-42(s0)
 2559              	.L123:
1194:Drivers/src/ch32v20x_adc.c **** 
1195:Drivers/src/ch32v20x_adc.c ****     /* 2048 */
1196:Drivers/src/ch32v20x_adc.c ****     j = 6-i;
 2560              		.loc 1 1196 10
 2561 0232 8347F4FE 		lbu	a5,-17(s0)
 2562 0236 93F7F70F 		andi	a5,a5,0xff
 2563 023a 1947     		li	a4,6
 2564 023c B307F740 		sub	a5,a4,a5
 2565 0240 93F7F70F 		andi	a5,a5,0xff
 2566              		.loc 1 1196 7
 2567 0244 2307F4FE 		sb	a5,-18(s0)
GAS LISTING C:\Users\SOLDER~1\AppData\Local\Temp\ccI3TRm9.s 			page 67


1197:Drivers/src/ch32v20x_adc.c ****     if(j > 0){
 2568              		.loc 1 1197 10
 2569 0248 8347E4FE 		lbu	a5,-18(s0)
 2570 024c 93F7F70F 		andi	a5,a5,0xff
 2571              		.loc 1 1197 7
 2572 0250 C9CF     		beq	a5,zero,.L124
1198:Drivers/src/ch32v20x_adc.c ****         for(; i < 6; i++ ){
 2573              		.loc 1 1198 9
 2574 0252 2DA8     		j	.L125
 2575              	.L126:
1199:Drivers/src/ch32v20x_adc.c ****                 p += buf[i+2];
 2576              		.loc 1 1199 27 discriminator 2
 2577 0254 8347F4FE 		lbu	a5,-17(s0)
 2578 0258 93F7F70F 		andi	a5,a5,0xff
 2579 025c 8907     		addi	a5,a5,2
 2580              		.loc 1 1199 25 discriminator 2
 2581 025e 8607     		slli	a5,a5,1
 2582 0260 C117     		addi	a5,a5,-16
 2583 0262 A297     		add	a5,a5,s0
 2584 0264 03D787FE 		lhu	a4,-24(a5)
 2585              		.loc 1 1199 19 discriminator 2
 2586 0268 835744FD 		lhu	a5,-44(s0)
 2587 026c C207     		slli	a5,a5,16
 2588 026e C183     		srli	a5,a5,16
 2589 0270 BA97     		add	a5,a4,a5
 2590 0272 C207     		slli	a5,a5,16
 2591 0274 C183     		srli	a5,a5,16
 2592 0276 231AF4FC 		sh	a5,-44(s0)
1198:Drivers/src/ch32v20x_adc.c ****         for(; i < 6; i++ ){
 2593              		.loc 1 1198 23 discriminator 2
 2594 027a 8347F4FE 		lbu	a5,-17(s0)
 2595 027e 93F7F70F 		andi	a5,a5,0xff
 2596 0282 8507     		addi	a5,a5,1
 2597 0284 93F7F70F 		andi	a5,a5,0xff
 2598 0288 A307F4FE 		sb	a5,-17(s0)
 2599              	.L125:
1198:Drivers/src/ch32v20x_adc.c ****         for(; i < 6; i++ ){
 2600              		.loc 1 1198 17 discriminator 1
 2601 028c 8347F4FE 		lbu	a5,-17(s0)
 2602 0290 13F7F70F 		andi	a4,a5,0xff
 2603 0294 9547     		li	a5,5
 2604 0296 E3FFE7FA 		bleu	a4,a5,.L126
1200:Drivers/src/ch32v20x_adc.c ****         }
1201:Drivers/src/ch32v20x_adc.c **** 
1202:Drivers/src/ch32v20x_adc.c ****         p = ( p / j ) + ( (( p % j )*2) / j );
 2605              		.loc 1 1202 17
 2606 029a 835744FD 		lhu	a5,-44(s0)
 2607 029e C207     		slli	a5,a5,16
 2608 02a0 C183     		srli	a5,a5,16
 2609 02a2 3E87     		mv	a4,a5
 2610 02a4 8347E4FE 		lbu	a5,-18(s0)
 2611 02a8 93F7F70F 		andi	a5,a5,0xff
 2612 02ac B347F702 		div	a5,a4,a5
 2613              		.loc 1 1202 23
 2614 02b0 13970701 		slli	a4,a5,16
 2615 02b4 4183     		srli	a4,a4,16
 2616              		.loc 1 1202 32
GAS LISTING C:\Users\SOLDER~1\AppData\Local\Temp\ccI3TRm9.s 			page 68


 2617 02b6 835744FD 		lhu	a5,-44(s0)
 2618 02ba C207     		slli	a5,a5,16
 2619 02bc C183     		srli	a5,a5,16
 2620 02be BE86     		mv	a3,a5
 2621 02c0 8347E4FE 		lbu	a5,-18(s0)
 2622 02c4 93F7F70F 		andi	a5,a5,0xff
 2623 02c8 B3E7F602 		rem	a5,a3,a5
 2624              		.loc 1 1202 37
 2625 02cc 8607     		slli	a5,a5,1
 2626              		.loc 1 1202 41
 2627 02ce 8346E4FE 		lbu	a3,-18(s0)
 2628 02d2 93F6F60F 		andi	a3,a3,0xff
 2629 02d6 B3C7D702 		div	a5,a5,a3
 2630              		.loc 1 1202 23
 2631 02da C207     		slli	a5,a5,16
 2632 02dc C183     		srli	a5,a5,16
 2633 02de BA97     		add	a5,a4,a5
 2634 02e0 C207     		slli	a5,a5,16
 2635 02e2 C183     		srli	a5,a5,16
 2636              		.loc 1 1202 11
 2637 02e4 231AF4FC 		sh	a5,-44(s0)
 2638 02e8 31A0     		j	.L127
 2639              	.L124:
1203:Drivers/src/ch32v20x_adc.c ****     }
1204:Drivers/src/ch32v20x_adc.c ****     else p = 2048;
 2640              		.loc 1 1204 12
 2641 02ea 8567     		li	a5,4096
 2642 02ec 93870780 		addi	a5,a5,-2048
 2643 02f0 231AF4FC 		sh	a5,-44(s0)
 2644              	.L127:
1205:Drivers/src/ch32v20x_adc.c **** 
1206:Drivers/src/ch32v20x_adc.c ****     return ( int16_t )(((( int16_t )( 1024 - ( int16_t )t ) + ( int16_t )( 2048 - ( int16_t )p ))/2
 2645              		.loc 1 1206 46
 2646 02f4 835764FD 		lhu	a5,-42(s0)
 2647 02f8 C207     		slli	a5,a5,16
 2648 02fa C183     		srli	a5,a5,16
 2649              		.loc 1 1206 44
 2650 02fc 13070040 		li	a4,1024
 2651 0300 B307F740 		sub	a5,a4,a5
 2652 0304 C207     		slli	a5,a5,16
 2653 0306 C183     		srli	a5,a5,16
 2654              		.loc 1 1206 26
 2655 0308 C207     		slli	a5,a5,16
 2656 030a C187     		srai	a5,a5,16
 2657 030c BE86     		mv	a3,a5
 2658              		.loc 1 1206 83
 2659 030e 835744FD 		lhu	a5,-44(s0)
 2660 0312 C207     		slli	a5,a5,16
 2661 0314 C183     		srli	a5,a5,16
 2662              		.loc 1 1206 81
 2663 0316 0567     		li	a4,4096
 2664 0318 13070780 		addi	a4,a4,-2048
 2665 031c B307F740 		sub	a5,a4,a5
 2666 0320 C207     		slli	a5,a5,16
 2667 0322 C183     		srli	a5,a5,16
 2668              		.loc 1 1206 63
 2669 0324 C207     		slli	a5,a5,16
GAS LISTING C:\Users\SOLDER~1\AppData\Local\Temp\ccI3TRm9.s 			page 69


 2670 0326 C187     		srai	a5,a5,16
 2671              		.loc 1 1206 61
 2672 0328 B697     		add	a5,a3,a5
 2673              		.loc 1 1206 98
 2674 032a 13D7F701 		srli	a4,a5,31
 2675 032e BA97     		add	a5,a4,a5
 2676 0330 8587     		srai	a5,a5,1
 2677              		.loc 1 1206 102
 2678 0332 93960701 		slli	a3,a5,16
 2679 0336 C182     		srli	a3,a3,16
 2680              		.loc 1 1206 126
 2681 0338 835764FD 		lhu	a5,-42(s0)
 2682 033c C207     		slli	a5,a5,16
 2683 033e C183     		srli	a5,a5,16
 2684              		.loc 1 1206 124
 2685 0340 13070040 		li	a4,1024
 2686 0344 B307F740 		sub	a5,a4,a5
 2687 0348 C207     		slli	a5,a5,16
 2688 034a C183     		srli	a5,a5,16
 2689              		.loc 1 1206 106
 2690 034c C207     		slli	a5,a5,16
 2691 034e C187     		srai	a5,a5,16
 2692 0350 3E86     		mv	a2,a5
 2693              		.loc 1 1206 163
 2694 0352 835744FD 		lhu	a5,-44(s0)
 2695 0356 C207     		slli	a5,a5,16
 2696 0358 C183     		srli	a5,a5,16
 2697              		.loc 1 1206 161
 2698 035a 0567     		li	a4,4096
 2699 035c 13070780 		addi	a4,a4,-2048
 2700 0360 B307F740 		sub	a5,a4,a5
 2701 0364 C207     		slli	a5,a5,16
 2702 0366 C183     		srli	a5,a5,16
 2703              		.loc 1 1206 143
 2704 0368 C207     		slli	a5,a5,16
 2705 036a C187     		srai	a5,a5,16
 2706              		.loc 1 1206 141
 2707 036c 3307F600 		add	a4,a2,a5
 2708              		.loc 1 1206 178
 2709 0370 9357F741 		srai	a5,a4,31
 2710 0374 FD83     		srli	a5,a5,31
 2711 0376 3E97     		add	a4,a4,a5
 2712 0378 058B     		andi	a4,a4,1
 2713 037a B307F740 		sub	a5,a4,a5
 2714              		.loc 1 1206 102
 2715 037e C207     		slli	a5,a5,16
 2716 0380 C183     		srli	a5,a5,16
 2717 0382 B697     		add	a5,a3,a5
 2718 0384 C207     		slli	a5,a5,16
 2719 0386 C183     		srli	a5,a5,16
 2720              		.loc 1 1206 12
 2721 0388 C207     		slli	a5,a5,16
 2722 038a C187     		srai	a5,a5,16
1207:Drivers/src/ch32v20x_adc.c **** 
1208:Drivers/src/ch32v20x_adc.c **** 
1209:Drivers/src/ch32v20x_adc.c **** #endif
1210:Drivers/src/ch32v20x_adc.c **** }
GAS LISTING C:\Users\SOLDER~1\AppData\Local\Temp\ccI3TRm9.s 			page 70


 2723              		.loc 1 1210 1
 2724 038c 3E85     		mv	a0,a5
 2725 038e F250     		lw	ra,60(sp)
 2726              		.cfi_restore 1
 2727 0390 6254     		lw	s0,56(sp)
 2728              		.cfi_restore 8
 2729              		.cfi_def_cfa 2, 64
 2730 0392 2161     		addi	sp,sp,64
 2731              		.cfi_def_cfa_offset 0
 2732 0394 8280     		jr	ra
 2733              		.cfi_endproc
 2734              	.LFE54:
 2736              		.text
 2737              	.Letext0:
 2738              		.file 2 "c:\\dev_tools\\ch32_tools\\risc-v_embedded_gcc12\\riscv-none-elf\\include\\machine\\_defa
 2739              		.file 3 "c:\\dev_tools\\ch32_tools\\risc-v_embedded_gcc12\\riscv-none-elf\\include\\sys\\_stdint.h
 2740              		.file 4 "Drivers/inc/core_riscv.h"
 2741              		.file 5 "Drivers/inc/ch32v20x.h"
 2742              		.file 6 "Drivers/inc/ch32v20x_adc.h"
 2743              		.file 7 "Drivers/inc/ch32v20x_rcc.h"
GAS LISTING C:\Users\SOLDER~1\AppData\Local\Temp\ccI3TRm9.s 			page 71


DEFINED SYMBOLS
                            *ABS*:0000000000000000 ch32v20x_adc.c
C:\Users\SOLDER~1\AppData\Local\Temp\ccI3TRm9.s:14     .text.ADC_DeInit:0000000000000000 ADC_DeInit
C:\Users\SOLDER~1\AppData\Local\Temp\ccI3TRm9.s:18     .text.ADC_DeInit:0000000000000000 .L0 
C:\Users\SOLDER~1\AppData\Local\Temp\ccI3TRm9.s:19     .text.ADC_DeInit:0000000000000000 $x
C:\Users\SOLDER~1\AppData\Local\Temp\ccI3TRm9.s:19     .text.ADC_DeInit:0000000000000000 .L0 
C:\Users\SOLDER~1\AppData\Local\Temp\ccI3TRm9.s:20     .text.ADC_DeInit:0000000000000002 .L0 
C:\Users\SOLDER~1\AppData\Local\Temp\ccI3TRm9.s:23     .text.ADC_DeInit:0000000000000006 .L0 
C:\Users\SOLDER~1\AppData\Local\Temp\ccI3TRm9.s:24     .text.ADC_DeInit:0000000000000006 .L0 
C:\Users\SOLDER~1\AppData\Local\Temp\ccI3TRm9.s:26     .text.ADC_DeInit:0000000000000008 .L0 
C:\Users\SOLDER~1\AppData\Local\Temp\ccI3TRm9.s:29     .text.ADC_DeInit:000000000000000c .L0 
C:\Users\SOLDER~1\AppData\Local\Temp\ccI3TRm9.s:34     .text.ADC_DeInit:000000000000001c .L0 
C:\Users\SOLDER~1\AppData\Local\Temp\ccI3TRm9.s:38     .text.ADC_DeInit:000000000000002a .L0 
C:\Users\SOLDER~1\AppData\Local\Temp\ccI3TRm9.s:42     .text.ADC_DeInit:0000000000000038 .L0 
C:\Users\SOLDER~1\AppData\Local\Temp\ccI3TRm9.s:45     .text.ADC_DeInit:000000000000003a .L0 
C:\Users\SOLDER~1\AppData\Local\Temp\ccI3TRm9.s:50     .text.ADC_DeInit:000000000000004a .L0 
C:\Users\SOLDER~1\AppData\Local\Temp\ccI3TRm9.s:54     .text.ADC_DeInit:0000000000000058 .L0 
C:\Users\SOLDER~1\AppData\Local\Temp\ccI3TRm9.s:59     .text.ADC_DeInit:0000000000000066 .L0 
C:\Users\SOLDER~1\AppData\Local\Temp\ccI3TRm9.s:61     .text.ADC_DeInit:000000000000006a .L0 
C:\Users\SOLDER~1\AppData\Local\Temp\ccI3TRm9.s:63     .text.ADC_DeInit:000000000000006c .L0 
C:\Users\SOLDER~1\AppData\Local\Temp\ccI3TRm9.s:64     .text.ADC_DeInit:000000000000006c .L0 
C:\Users\SOLDER~1\AppData\Local\Temp\ccI3TRm9.s:66     .text.ADC_DeInit:000000000000006e .L0 
C:\Users\SOLDER~1\AppData\Local\Temp\ccI3TRm9.s:68     .text.ADC_DeInit:0000000000000070 .L0 
C:\Users\SOLDER~1\AppData\Local\Temp\ccI3TRm9.s:75     .text.ADC_Init:0000000000000000 ADC_Init
C:\Users\SOLDER~1\AppData\Local\Temp\ccI3TRm9.s:78     .text.ADC_Init:0000000000000000 .L0 
C:\Users\SOLDER~1\AppData\Local\Temp\ccI3TRm9.s:79     .text.ADC_Init:0000000000000000 $x
C:\Users\SOLDER~1\AppData\Local\Temp\ccI3TRm9.s:79     .text.ADC_Init:0000000000000000 .L0 
C:\Users\SOLDER~1\AppData\Local\Temp\ccI3TRm9.s:80     .text.ADC_Init:0000000000000002 .L0 
C:\Users\SOLDER~1\AppData\Local\Temp\ccI3TRm9.s:82     .text.ADC_Init:0000000000000004 .L0 
C:\Users\SOLDER~1\AppData\Local\Temp\ccI3TRm9.s:84     .text.ADC_Init:0000000000000006 .L0 
C:\Users\SOLDER~1\AppData\Local\Temp\ccI3TRm9.s:88     .text.ADC_Init:000000000000000e .L0 
C:\Users\SOLDER~1\AppData\Local\Temp\ccI3TRm9.s:90     .text.ADC_Init:0000000000000012 .L0 
C:\Users\SOLDER~1\AppData\Local\Temp\ccI3TRm9.s:92     .text.ADC_Init:0000000000000016 .L0 
C:\Users\SOLDER~1\AppData\Local\Temp\ccI3TRm9.s:96     .text.ADC_Init:0000000000000020 .L0 
C:\Users\SOLDER~1\AppData\Local\Temp\ccI3TRm9.s:102    .text.ADC_Init:0000000000000032 .L0 
C:\Users\SOLDER~1\AppData\Local\Temp\ccI3TRm9.s:105    .text.ADC_Init:0000000000000038 .L0 
C:\Users\SOLDER~1\AppData\Local\Temp\ccI3TRm9.s:108    .text.ADC_Init:000000000000003e .L0 
C:\Users\SOLDER~1\AppData\Local\Temp\ccI3TRm9.s:110    .text.ADC_Init:0000000000000040 .L0 
C:\Users\SOLDER~1\AppData\Local\Temp\ccI3TRm9.s:113    .text.ADC_Init:0000000000000046 .L0 
C:\Users\SOLDER~1\AppData\Local\Temp\ccI3TRm9.s:115    .text.ADC_Init:0000000000000048 .L0 
C:\Users\SOLDER~1\AppData\Local\Temp\ccI3TRm9.s:118    .text.ADC_Init:000000000000004e .L0 
C:\Users\SOLDER~1\AppData\Local\Temp\ccI3TRm9.s:120    .text.ADC_Init:0000000000000050 .L0 
C:\Users\SOLDER~1\AppData\Local\Temp\ccI3TRm9.s:122    .text.ADC_Init:0000000000000052 .L0 
C:\Users\SOLDER~1\AppData\Local\Temp\ccI3TRm9.s:126    .text.ADC_Init:000000000000005c .L0 
C:\Users\SOLDER~1\AppData\Local\Temp\ccI3TRm9.s:130    .text.ADC_Init:0000000000000066 .L0 
C:\Users\SOLDER~1\AppData\Local\Temp\ccI3TRm9.s:134    .text.ADC_Init:0000000000000070 .L0 
C:\Users\SOLDER~1\AppData\Local\Temp\ccI3TRm9.s:140    .text.ADC_Init:0000000000000082 .L0 
C:\Users\SOLDER~1\AppData\Local\Temp\ccI3TRm9.s:143    .text.ADC_Init:0000000000000088 .L0 
C:\Users\SOLDER~1\AppData\Local\Temp\ccI3TRm9.s:146    .text.ADC_Init:000000000000008e .L0 
C:\Users\SOLDER~1\AppData\Local\Temp\ccI3TRm9.s:148    .text.ADC_Init:0000000000000090 .L0 
C:\Users\SOLDER~1\AppData\Local\Temp\ccI3TRm9.s:151    .text.ADC_Init:0000000000000096 .L0 
C:\Users\SOLDER~1\AppData\Local\Temp\ccI3TRm9.s:153    .text.ADC_Init:0000000000000098 .L0 
C:\Users\SOLDER~1\AppData\Local\Temp\ccI3TRm9.s:155    .text.ADC_Init:000000000000009a .L0 
C:\Users\SOLDER~1\AppData\Local\Temp\ccI3TRm9.s:159    .text.ADC_Init:00000000000000a4 .L0 
C:\Users\SOLDER~1\AppData\Local\Temp\ccI3TRm9.s:163    .text.ADC_Init:00000000000000ae .L0 
C:\Users\SOLDER~1\AppData\Local\Temp\ccI3TRm9.s:167    .text.ADC_Init:00000000000000b8 .L0 
C:\Users\SOLDER~1\AppData\Local\Temp\ccI3TRm9.s:173    .text.ADC_Init:00000000000000c8 .L0 
GAS LISTING C:\Users\SOLDER~1\AppData\Local\Temp\ccI3TRm9.s 			page 72


C:\Users\SOLDER~1\AppData\Local\Temp\ccI3TRm9.s:176    .text.ADC_Init:00000000000000ce .L0 
C:\Users\SOLDER~1\AppData\Local\Temp\ccI3TRm9.s:179    .text.ADC_Init:00000000000000d4 .L0 
C:\Users\SOLDER~1\AppData\Local\Temp\ccI3TRm9.s:183    .text.ADC_Init:00000000000000de .L0 
C:\Users\SOLDER~1\AppData\Local\Temp\ccI3TRm9.s:185    .text.ADC_Init:00000000000000e2 .L0 
C:\Users\SOLDER~1\AppData\Local\Temp\ccI3TRm9.s:187    .text.ADC_Init:00000000000000e4 .L0 
C:\Users\SOLDER~1\AppData\Local\Temp\ccI3TRm9.s:191    .text.ADC_Init:00000000000000ee .L0 
C:\Users\SOLDER~1\AppData\Local\Temp\ccI3TRm9.s:195    .text.ADC_Init:00000000000000f8 .L0 
C:\Users\SOLDER~1\AppData\Local\Temp\ccI3TRm9.s:197    .text.ADC_Init:00000000000000fc .L0 
C:\Users\SOLDER~1\AppData\Local\Temp\ccI3TRm9.s:198    .text.ADC_Init:00000000000000fc .L0 
C:\Users\SOLDER~1\AppData\Local\Temp\ccI3TRm9.s:200    .text.ADC_Init:00000000000000fe .L0 
C:\Users\SOLDER~1\AppData\Local\Temp\ccI3TRm9.s:202    .text.ADC_Init:0000000000000100 .L0 
C:\Users\SOLDER~1\AppData\Local\Temp\ccI3TRm9.s:209    .text.ADC_StructInit:0000000000000000 ADC_StructInit
C:\Users\SOLDER~1\AppData\Local\Temp\ccI3TRm9.s:212    .text.ADC_StructInit:0000000000000000 .L0 
C:\Users\SOLDER~1\AppData\Local\Temp\ccI3TRm9.s:213    .text.ADC_StructInit:0000000000000000 $x
C:\Users\SOLDER~1\AppData\Local\Temp\ccI3TRm9.s:213    .text.ADC_StructInit:0000000000000000 .L0 
C:\Users\SOLDER~1\AppData\Local\Temp\ccI3TRm9.s:214    .text.ADC_StructInit:0000000000000002 .L0 
C:\Users\SOLDER~1\AppData\Local\Temp\ccI3TRm9.s:216    .text.ADC_StructInit:0000000000000004 .L0 
C:\Users\SOLDER~1\AppData\Local\Temp\ccI3TRm9.s:218    .text.ADC_StructInit:0000000000000006 .L0 
C:\Users\SOLDER~1\AppData\Local\Temp\ccI3TRm9.s:221    .text.ADC_StructInit:000000000000000a .L0 
C:\Users\SOLDER~1\AppData\Local\Temp\ccI3TRm9.s:224    .text.ADC_StructInit:0000000000000012 .L0 
C:\Users\SOLDER~1\AppData\Local\Temp\ccI3TRm9.s:227    .text.ADC_StructInit:000000000000001a .L0 
C:\Users\SOLDER~1\AppData\Local\Temp\ccI3TRm9.s:230    .text.ADC_StructInit:0000000000000022 .L0 
C:\Users\SOLDER~1\AppData\Local\Temp\ccI3TRm9.s:233    .text.ADC_StructInit:000000000000002a .L0 
C:\Users\SOLDER~1\AppData\Local\Temp\ccI3TRm9.s:236    .text.ADC_StructInit:0000000000000032 .L0 
C:\Users\SOLDER~1\AppData\Local\Temp\ccI3TRm9.s:240    .text.ADC_StructInit:000000000000003a .L0 
C:\Users\SOLDER~1\AppData\Local\Temp\ccI3TRm9.s:242    .text.ADC_StructInit:000000000000003e .L0 
C:\Users\SOLDER~1\AppData\Local\Temp\ccI3TRm9.s:243    .text.ADC_StructInit:000000000000003e .L0 
C:\Users\SOLDER~1\AppData\Local\Temp\ccI3TRm9.s:245    .text.ADC_StructInit:0000000000000040 .L0 
C:\Users\SOLDER~1\AppData\Local\Temp\ccI3TRm9.s:247    .text.ADC_StructInit:0000000000000042 .L0 
C:\Users\SOLDER~1\AppData\Local\Temp\ccI3TRm9.s:254    .text.ADC_Cmd:0000000000000000 ADC_Cmd
C:\Users\SOLDER~1\AppData\Local\Temp\ccI3TRm9.s:257    .text.ADC_Cmd:0000000000000000 .L0 
C:\Users\SOLDER~1\AppData\Local\Temp\ccI3TRm9.s:258    .text.ADC_Cmd:0000000000000000 $x
C:\Users\SOLDER~1\AppData\Local\Temp\ccI3TRm9.s:258    .text.ADC_Cmd:0000000000000000 .L0 
C:\Users\SOLDER~1\AppData\Local\Temp\ccI3TRm9.s:259    .text.ADC_Cmd:0000000000000002 .L0 
C:\Users\SOLDER~1\AppData\Local\Temp\ccI3TRm9.s:261    .text.ADC_Cmd:0000000000000004 .L0 
C:\Users\SOLDER~1\AppData\Local\Temp\ccI3TRm9.s:263    .text.ADC_Cmd:0000000000000006 .L0 
C:\Users\SOLDER~1\AppData\Local\Temp\ccI3TRm9.s:267    .text.ADC_Cmd:000000000000000e .L0 
C:\Users\SOLDER~1\AppData\Local\Temp\ccI3TRm9.s:270    .text.ADC_Cmd:0000000000000014 .L0 
C:\Users\SOLDER~1\AppData\Local\Temp\ccI3TRm9.s:273    .text.ADC_Cmd:000000000000001a .L0 
C:\Users\SOLDER~1\AppData\Local\Temp\ccI3TRm9.s:277    .text.ADC_Cmd:0000000000000024 .L0 
C:\Users\SOLDER~1\AppData\Local\Temp\ccI3TRm9.s:280    .text.ADC_Cmd:0000000000000026 .L0 
C:\Users\SOLDER~1\AppData\Local\Temp\ccI3TRm9.s:283    .text.ADC_Cmd:000000000000002c .L0 
C:\Users\SOLDER~1\AppData\Local\Temp\ccI3TRm9.s:288    .text.ADC_Cmd:0000000000000036 .L0 
C:\Users\SOLDER~1\AppData\Local\Temp\ccI3TRm9.s:290    .text.ADC_Cmd:000000000000003a .L0 
C:\Users\SOLDER~1\AppData\Local\Temp\ccI3TRm9.s:291    .text.ADC_Cmd:000000000000003a .L0 
C:\Users\SOLDER~1\AppData\Local\Temp\ccI3TRm9.s:293    .text.ADC_Cmd:000000000000003c .L0 
C:\Users\SOLDER~1\AppData\Local\Temp\ccI3TRm9.s:295    .text.ADC_Cmd:000000000000003e .L0 
C:\Users\SOLDER~1\AppData\Local\Temp\ccI3TRm9.s:302    .text.ADC_DMACmd:0000000000000000 ADC_DMACmd
C:\Users\SOLDER~1\AppData\Local\Temp\ccI3TRm9.s:305    .text.ADC_DMACmd:0000000000000000 .L0 
C:\Users\SOLDER~1\AppData\Local\Temp\ccI3TRm9.s:306    .text.ADC_DMACmd:0000000000000000 $x
C:\Users\SOLDER~1\AppData\Local\Temp\ccI3TRm9.s:306    .text.ADC_DMACmd:0000000000000000 .L0 
C:\Users\SOLDER~1\AppData\Local\Temp\ccI3TRm9.s:307    .text.ADC_DMACmd:0000000000000002 .L0 
C:\Users\SOLDER~1\AppData\Local\Temp\ccI3TRm9.s:309    .text.ADC_DMACmd:0000000000000004 .L0 
C:\Users\SOLDER~1\AppData\Local\Temp\ccI3TRm9.s:311    .text.ADC_DMACmd:0000000000000006 .L0 
C:\Users\SOLDER~1\AppData\Local\Temp\ccI3TRm9.s:315    .text.ADC_DMACmd:000000000000000e .L0 
C:\Users\SOLDER~1\AppData\Local\Temp\ccI3TRm9.s:318    .text.ADC_DMACmd:0000000000000014 .L0 
C:\Users\SOLDER~1\AppData\Local\Temp\ccI3TRm9.s:321    .text.ADC_DMACmd:000000000000001a .L0 
GAS LISTING C:\Users\SOLDER~1\AppData\Local\Temp\ccI3TRm9.s 			page 73


C:\Users\SOLDER~1\AppData\Local\Temp\ccI3TRm9.s:325    .text.ADC_DMACmd:0000000000000024 .L0 
C:\Users\SOLDER~1\AppData\Local\Temp\ccI3TRm9.s:328    .text.ADC_DMACmd:0000000000000026 .L0 
C:\Users\SOLDER~1\AppData\Local\Temp\ccI3TRm9.s:331    .text.ADC_DMACmd:000000000000002c .L0 
C:\Users\SOLDER~1\AppData\Local\Temp\ccI3TRm9.s:336    .text.ADC_DMACmd:0000000000000036 .L0 
C:\Users\SOLDER~1\AppData\Local\Temp\ccI3TRm9.s:338    .text.ADC_DMACmd:000000000000003a .L0 
C:\Users\SOLDER~1\AppData\Local\Temp\ccI3TRm9.s:339    .text.ADC_DMACmd:000000000000003a .L0 
C:\Users\SOLDER~1\AppData\Local\Temp\ccI3TRm9.s:341    .text.ADC_DMACmd:000000000000003c .L0 
C:\Users\SOLDER~1\AppData\Local\Temp\ccI3TRm9.s:343    .text.ADC_DMACmd:000000000000003e .L0 
C:\Users\SOLDER~1\AppData\Local\Temp\ccI3TRm9.s:350    .text.ADC_ITConfig:0000000000000000 ADC_ITConfig
C:\Users\SOLDER~1\AppData\Local\Temp\ccI3TRm9.s:353    .text.ADC_ITConfig:0000000000000000 .L0 
C:\Users\SOLDER~1\AppData\Local\Temp\ccI3TRm9.s:354    .text.ADC_ITConfig:0000000000000000 $x
C:\Users\SOLDER~1\AppData\Local\Temp\ccI3TRm9.s:354    .text.ADC_ITConfig:0000000000000000 .L0 
C:\Users\SOLDER~1\AppData\Local\Temp\ccI3TRm9.s:355    .text.ADC_ITConfig:0000000000000002 .L0 
C:\Users\SOLDER~1\AppData\Local\Temp\ccI3TRm9.s:357    .text.ADC_ITConfig:0000000000000004 .L0 
C:\Users\SOLDER~1\AppData\Local\Temp\ccI3TRm9.s:359    .text.ADC_ITConfig:0000000000000006 .L0 
C:\Users\SOLDER~1\AppData\Local\Temp\ccI3TRm9.s:365    .text.ADC_ITConfig:0000000000000014 .L0 
C:\Users\SOLDER~1\AppData\Local\Temp\ccI3TRm9.s:367    .text.ADC_ITConfig:0000000000000018 .L0 
C:\Users\SOLDER~1\AppData\Local\Temp\ccI3TRm9.s:370    .text.ADC_ITConfig:0000000000000020 .L0 
C:\Users\SOLDER~1\AppData\Local\Temp\ccI3TRm9.s:373    .text.ADC_ITConfig:0000000000000026 .L0 
C:\Users\SOLDER~1\AppData\Local\Temp\ccI3TRm9.s:376    .text.ADC_ITConfig:000000000000002c .L0 
C:\Users\SOLDER~1\AppData\Local\Temp\ccI3TRm9.s:381    .text.ADC_ITConfig:0000000000000038 .L0 
C:\Users\SOLDER~1\AppData\Local\Temp\ccI3TRm9.s:384    .text.ADC_ITConfig:000000000000003a .L0 
C:\Users\SOLDER~1\AppData\Local\Temp\ccI3TRm9.s:387    .text.ADC_ITConfig:0000000000000040 .L0 
C:\Users\SOLDER~1\AppData\Local\Temp\ccI3TRm9.s:389    .text.ADC_ITConfig:0000000000000044 .L0 
C:\Users\SOLDER~1\AppData\Local\Temp\ccI3TRm9.s:391    .text.ADC_ITConfig:0000000000000048 .L0 
C:\Users\SOLDER~1\AppData\Local\Temp\ccI3TRm9.s:396    .text.ADC_ITConfig:0000000000000050 .L0 
C:\Users\SOLDER~1\AppData\Local\Temp\ccI3TRm9.s:398    .text.ADC_ITConfig:0000000000000054 .L0 
C:\Users\SOLDER~1\AppData\Local\Temp\ccI3TRm9.s:399    .text.ADC_ITConfig:0000000000000054 .L0 
C:\Users\SOLDER~1\AppData\Local\Temp\ccI3TRm9.s:401    .text.ADC_ITConfig:0000000000000056 .L0 
C:\Users\SOLDER~1\AppData\Local\Temp\ccI3TRm9.s:403    .text.ADC_ITConfig:0000000000000058 .L0 
C:\Users\SOLDER~1\AppData\Local\Temp\ccI3TRm9.s:410    .text.ADC_ResetCalibration:0000000000000000 ADC_ResetCalibration
C:\Users\SOLDER~1\AppData\Local\Temp\ccI3TRm9.s:413    .text.ADC_ResetCalibration:0000000000000000 .L0 
C:\Users\SOLDER~1\AppData\Local\Temp\ccI3TRm9.s:414    .text.ADC_ResetCalibration:0000000000000000 $x
C:\Users\SOLDER~1\AppData\Local\Temp\ccI3TRm9.s:414    .text.ADC_ResetCalibration:0000000000000000 .L0 
C:\Users\SOLDER~1\AppData\Local\Temp\ccI3TRm9.s:415    .text.ADC_ResetCalibration:0000000000000002 .L0 
C:\Users\SOLDER~1\AppData\Local\Temp\ccI3TRm9.s:417    .text.ADC_ResetCalibration:0000000000000004 .L0 
C:\Users\SOLDER~1\AppData\Local\Temp\ccI3TRm9.s:419    .text.ADC_ResetCalibration:0000000000000006 .L0 
C:\Users\SOLDER~1\AppData\Local\Temp\ccI3TRm9.s:422    .text.ADC_ResetCalibration:000000000000000a .L0 
C:\Users\SOLDER~1\AppData\Local\Temp\ccI3TRm9.s:425    .text.ADC_ResetCalibration:0000000000000010 .L0 
C:\Users\SOLDER~1\AppData\Local\Temp\ccI3TRm9.s:429    .text.ADC_ResetCalibration:000000000000001a .L0 
C:\Users\SOLDER~1\AppData\Local\Temp\ccI3TRm9.s:431    .text.ADC_ResetCalibration:000000000000001e .L0 
C:\Users\SOLDER~1\AppData\Local\Temp\ccI3TRm9.s:432    .text.ADC_ResetCalibration:000000000000001e .L0 
C:\Users\SOLDER~1\AppData\Local\Temp\ccI3TRm9.s:434    .text.ADC_ResetCalibration:0000000000000020 .L0 
C:\Users\SOLDER~1\AppData\Local\Temp\ccI3TRm9.s:436    .text.ADC_ResetCalibration:0000000000000022 .L0 
C:\Users\SOLDER~1\AppData\Local\Temp\ccI3TRm9.s:443    .text.ADC_GetResetCalibrationStatus:0000000000000000 ADC_GetResetCalibrationStatus
C:\Users\SOLDER~1\AppData\Local\Temp\ccI3TRm9.s:446    .text.ADC_GetResetCalibrationStatus:0000000000000000 .L0 
C:\Users\SOLDER~1\AppData\Local\Temp\ccI3TRm9.s:447    .text.ADC_GetResetCalibrationStatus:0000000000000000 $x
C:\Users\SOLDER~1\AppData\Local\Temp\ccI3TRm9.s:447    .text.ADC_GetResetCalibrationStatus:0000000000000000 .L0 
C:\Users\SOLDER~1\AppData\Local\Temp\ccI3TRm9.s:448    .text.ADC_GetResetCalibrationStatus:0000000000000002 .L0 
C:\Users\SOLDER~1\AppData\Local\Temp\ccI3TRm9.s:450    .text.ADC_GetResetCalibrationStatus:0000000000000004 .L0 
C:\Users\SOLDER~1\AppData\Local\Temp\ccI3TRm9.s:452    .text.ADC_GetResetCalibrationStatus:0000000000000006 .L0 
C:\Users\SOLDER~1\AppData\Local\Temp\ccI3TRm9.s:455    .text.ADC_GetResetCalibrationStatus:000000000000000a .L0 
C:\Users\SOLDER~1\AppData\Local\Temp\ccI3TRm9.s:457    .text.ADC_GetResetCalibrationStatus:000000000000000e .L0 
C:\Users\SOLDER~1\AppData\Local\Temp\ccI3TRm9.s:460    .text.ADC_GetResetCalibrationStatus:0000000000000014 .L0 
C:\Users\SOLDER~1\AppData\Local\Temp\ccI3TRm9.s:462    .text.ADC_GetResetCalibrationStatus:0000000000000016 .L0 
C:\Users\SOLDER~1\AppData\Local\Temp\ccI3TRm9.s:464    .text.ADC_GetResetCalibrationStatus:0000000000000018 .L0 
C:\Users\SOLDER~1\AppData\Local\Temp\ccI3TRm9.s:469    .text.ADC_GetResetCalibrationStatus:0000000000000020 .L0 
GAS LISTING C:\Users\SOLDER~1\AppData\Local\Temp\ccI3TRm9.s 			page 74


C:\Users\SOLDER~1\AppData\Local\Temp\ccI3TRm9.s:472    .text.ADC_GetResetCalibrationStatus:0000000000000024 .L0 
C:\Users\SOLDER~1\AppData\Local\Temp\ccI3TRm9.s:474    .text.ADC_GetResetCalibrationStatus:0000000000000028 .L0 
C:\Users\SOLDER~1\AppData\Local\Temp\ccI3TRm9.s:476    .text.ADC_GetResetCalibrationStatus:000000000000002c .L0 
C:\Users\SOLDER~1\AppData\Local\Temp\ccI3TRm9.s:477    .text.ADC_GetResetCalibrationStatus:000000000000002c .L0 
C:\Users\SOLDER~1\AppData\Local\Temp\ccI3TRm9.s:479    .text.ADC_GetResetCalibrationStatus:000000000000002e .L0 
C:\Users\SOLDER~1\AppData\Local\Temp\ccI3TRm9.s:481    .text.ADC_GetResetCalibrationStatus:0000000000000030 .L0 
C:\Users\SOLDER~1\AppData\Local\Temp\ccI3TRm9.s:488    .text.ADC_StartCalibration:0000000000000000 ADC_StartCalibration
C:\Users\SOLDER~1\AppData\Local\Temp\ccI3TRm9.s:491    .text.ADC_StartCalibration:0000000000000000 .L0 
C:\Users\SOLDER~1\AppData\Local\Temp\ccI3TRm9.s:492    .text.ADC_StartCalibration:0000000000000000 $x
C:\Users\SOLDER~1\AppData\Local\Temp\ccI3TRm9.s:492    .text.ADC_StartCalibration:0000000000000000 .L0 
C:\Users\SOLDER~1\AppData\Local\Temp\ccI3TRm9.s:493    .text.ADC_StartCalibration:0000000000000002 .L0 
C:\Users\SOLDER~1\AppData\Local\Temp\ccI3TRm9.s:495    .text.ADC_StartCalibration:0000000000000004 .L0 
C:\Users\SOLDER~1\AppData\Local\Temp\ccI3TRm9.s:497    .text.ADC_StartCalibration:0000000000000006 .L0 
C:\Users\SOLDER~1\AppData\Local\Temp\ccI3TRm9.s:500    .text.ADC_StartCalibration:000000000000000a .L0 
C:\Users\SOLDER~1\AppData\Local\Temp\ccI3TRm9.s:503    .text.ADC_StartCalibration:0000000000000010 .L0 
C:\Users\SOLDER~1\AppData\Local\Temp\ccI3TRm9.s:507    .text.ADC_StartCalibration:000000000000001a .L0 
C:\Users\SOLDER~1\AppData\Local\Temp\ccI3TRm9.s:509    .text.ADC_StartCalibration:000000000000001e .L0 
C:\Users\SOLDER~1\AppData\Local\Temp\ccI3TRm9.s:510    .text.ADC_StartCalibration:000000000000001e .L0 
C:\Users\SOLDER~1\AppData\Local\Temp\ccI3TRm9.s:512    .text.ADC_StartCalibration:0000000000000020 .L0 
C:\Users\SOLDER~1\AppData\Local\Temp\ccI3TRm9.s:514    .text.ADC_StartCalibration:0000000000000022 .L0 
C:\Users\SOLDER~1\AppData\Local\Temp\ccI3TRm9.s:521    .text.ADC_GetCalibrationStatus:0000000000000000 ADC_GetCalibrationStatus
C:\Users\SOLDER~1\AppData\Local\Temp\ccI3TRm9.s:524    .text.ADC_GetCalibrationStatus:0000000000000000 .L0 
C:\Users\SOLDER~1\AppData\Local\Temp\ccI3TRm9.s:525    .text.ADC_GetCalibrationStatus:0000000000000000 $x
C:\Users\SOLDER~1\AppData\Local\Temp\ccI3TRm9.s:525    .text.ADC_GetCalibrationStatus:0000000000000000 .L0 
C:\Users\SOLDER~1\AppData\Local\Temp\ccI3TRm9.s:526    .text.ADC_GetCalibrationStatus:0000000000000002 .L0 
C:\Users\SOLDER~1\AppData\Local\Temp\ccI3TRm9.s:528    .text.ADC_GetCalibrationStatus:0000000000000004 .L0 
C:\Users\SOLDER~1\AppData\Local\Temp\ccI3TRm9.s:530    .text.ADC_GetCalibrationStatus:0000000000000006 .L0 
C:\Users\SOLDER~1\AppData\Local\Temp\ccI3TRm9.s:533    .text.ADC_GetCalibrationStatus:000000000000000a .L0 
C:\Users\SOLDER~1\AppData\Local\Temp\ccI3TRm9.s:535    .text.ADC_GetCalibrationStatus:000000000000000e .L0 
C:\Users\SOLDER~1\AppData\Local\Temp\ccI3TRm9.s:538    .text.ADC_GetCalibrationStatus:0000000000000014 .L0 
C:\Users\SOLDER~1\AppData\Local\Temp\ccI3TRm9.s:540    .text.ADC_GetCalibrationStatus:0000000000000016 .L0 
C:\Users\SOLDER~1\AppData\Local\Temp\ccI3TRm9.s:542    .text.ADC_GetCalibrationStatus:0000000000000018 .L0 
C:\Users\SOLDER~1\AppData\Local\Temp\ccI3TRm9.s:547    .text.ADC_GetCalibrationStatus:0000000000000020 .L0 
C:\Users\SOLDER~1\AppData\Local\Temp\ccI3TRm9.s:550    .text.ADC_GetCalibrationStatus:0000000000000024 .L0 
C:\Users\SOLDER~1\AppData\Local\Temp\ccI3TRm9.s:552    .text.ADC_GetCalibrationStatus:0000000000000028 .L0 
C:\Users\SOLDER~1\AppData\Local\Temp\ccI3TRm9.s:554    .text.ADC_GetCalibrationStatus:000000000000002c .L0 
C:\Users\SOLDER~1\AppData\Local\Temp\ccI3TRm9.s:555    .text.ADC_GetCalibrationStatus:000000000000002c .L0 
C:\Users\SOLDER~1\AppData\Local\Temp\ccI3TRm9.s:557    .text.ADC_GetCalibrationStatus:000000000000002e .L0 
C:\Users\SOLDER~1\AppData\Local\Temp\ccI3TRm9.s:559    .text.ADC_GetCalibrationStatus:0000000000000030 .L0 
C:\Users\SOLDER~1\AppData\Local\Temp\ccI3TRm9.s:566    .text.ADC_SoftwareStartConvCmd:0000000000000000 ADC_SoftwareStartConvCmd
C:\Users\SOLDER~1\AppData\Local\Temp\ccI3TRm9.s:569    .text.ADC_SoftwareStartConvCmd:0000000000000000 .L0 
C:\Users\SOLDER~1\AppData\Local\Temp\ccI3TRm9.s:570    .text.ADC_SoftwareStartConvCmd:0000000000000000 $x
C:\Users\SOLDER~1\AppData\Local\Temp\ccI3TRm9.s:570    .text.ADC_SoftwareStartConvCmd:0000000000000000 .L0 
C:\Users\SOLDER~1\AppData\Local\Temp\ccI3TRm9.s:571    .text.ADC_SoftwareStartConvCmd:0000000000000002 .L0 
C:\Users\SOLDER~1\AppData\Local\Temp\ccI3TRm9.s:573    .text.ADC_SoftwareStartConvCmd:0000000000000004 .L0 
C:\Users\SOLDER~1\AppData\Local\Temp\ccI3TRm9.s:575    .text.ADC_SoftwareStartConvCmd:0000000000000006 .L0 
C:\Users\SOLDER~1\AppData\Local\Temp\ccI3TRm9.s:579    .text.ADC_SoftwareStartConvCmd:000000000000000e .L0 
C:\Users\SOLDER~1\AppData\Local\Temp\ccI3TRm9.s:582    .text.ADC_SoftwareStartConvCmd:0000000000000014 .L0 
C:\Users\SOLDER~1\AppData\Local\Temp\ccI3TRm9.s:585    .text.ADC_SoftwareStartConvCmd:000000000000001a .L0 
C:\Users\SOLDER~1\AppData\Local\Temp\ccI3TRm9.s:590    .text.ADC_SoftwareStartConvCmd:0000000000000026 .L0 
C:\Users\SOLDER~1\AppData\Local\Temp\ccI3TRm9.s:593    .text.ADC_SoftwareStartConvCmd:0000000000000028 .L0 
C:\Users\SOLDER~1\AppData\Local\Temp\ccI3TRm9.s:596    .text.ADC_SoftwareStartConvCmd:000000000000002e .L0 
C:\Users\SOLDER~1\AppData\Local\Temp\ccI3TRm9.s:603    .text.ADC_SoftwareStartConvCmd:000000000000003c .L0 
C:\Users\SOLDER~1\AppData\Local\Temp\ccI3TRm9.s:605    .text.ADC_SoftwareStartConvCmd:0000000000000040 .L0 
C:\Users\SOLDER~1\AppData\Local\Temp\ccI3TRm9.s:606    .text.ADC_SoftwareStartConvCmd:0000000000000040 .L0 
C:\Users\SOLDER~1\AppData\Local\Temp\ccI3TRm9.s:608    .text.ADC_SoftwareStartConvCmd:0000000000000042 .L0 
C:\Users\SOLDER~1\AppData\Local\Temp\ccI3TRm9.s:610    .text.ADC_SoftwareStartConvCmd:0000000000000044 .L0 
GAS LISTING C:\Users\SOLDER~1\AppData\Local\Temp\ccI3TRm9.s 			page 75


C:\Users\SOLDER~1\AppData\Local\Temp\ccI3TRm9.s:617    .text.ADC_GetSoftwareStartConvStatus:0000000000000000 ADC_GetSoftwareStartConvStatus
C:\Users\SOLDER~1\AppData\Local\Temp\ccI3TRm9.s:620    .text.ADC_GetSoftwareStartConvStatus:0000000000000000 .L0 
C:\Users\SOLDER~1\AppData\Local\Temp\ccI3TRm9.s:621    .text.ADC_GetSoftwareStartConvStatus:0000000000000000 $x
C:\Users\SOLDER~1\AppData\Local\Temp\ccI3TRm9.s:621    .text.ADC_GetSoftwareStartConvStatus:0000000000000000 .L0 
C:\Users\SOLDER~1\AppData\Local\Temp\ccI3TRm9.s:622    .text.ADC_GetSoftwareStartConvStatus:0000000000000002 .L0 
C:\Users\SOLDER~1\AppData\Local\Temp\ccI3TRm9.s:624    .text.ADC_GetSoftwareStartConvStatus:0000000000000004 .L0 
C:\Users\SOLDER~1\AppData\Local\Temp\ccI3TRm9.s:626    .text.ADC_GetSoftwareStartConvStatus:0000000000000006 .L0 
C:\Users\SOLDER~1\AppData\Local\Temp\ccI3TRm9.s:629    .text.ADC_GetSoftwareStartConvStatus:000000000000000a .L0 
C:\Users\SOLDER~1\AppData\Local\Temp\ccI3TRm9.s:631    .text.ADC_GetSoftwareStartConvStatus:000000000000000e .L0 
C:\Users\SOLDER~1\AppData\Local\Temp\ccI3TRm9.s:634    .text.ADC_GetSoftwareStartConvStatus:0000000000000014 .L0 
C:\Users\SOLDER~1\AppData\Local\Temp\ccI3TRm9.s:637    .text.ADC_GetSoftwareStartConvStatus:000000000000001a .L0 
C:\Users\SOLDER~1\AppData\Local\Temp\ccI3TRm9.s:639    .text.ADC_GetSoftwareStartConvStatus:000000000000001c .L0 
C:\Users\SOLDER~1\AppData\Local\Temp\ccI3TRm9.s:644    .text.ADC_GetSoftwareStartConvStatus:0000000000000024 .L0 
C:\Users\SOLDER~1\AppData\Local\Temp\ccI3TRm9.s:647    .text.ADC_GetSoftwareStartConvStatus:0000000000000028 .L0 
C:\Users\SOLDER~1\AppData\Local\Temp\ccI3TRm9.s:649    .text.ADC_GetSoftwareStartConvStatus:000000000000002c .L0 
C:\Users\SOLDER~1\AppData\Local\Temp\ccI3TRm9.s:651    .text.ADC_GetSoftwareStartConvStatus:0000000000000030 .L0 
C:\Users\SOLDER~1\AppData\Local\Temp\ccI3TRm9.s:652    .text.ADC_GetSoftwareStartConvStatus:0000000000000030 .L0 
C:\Users\SOLDER~1\AppData\Local\Temp\ccI3TRm9.s:654    .text.ADC_GetSoftwareStartConvStatus:0000000000000032 .L0 
C:\Users\SOLDER~1\AppData\Local\Temp\ccI3TRm9.s:656    .text.ADC_GetSoftwareStartConvStatus:0000000000000034 .L0 
C:\Users\SOLDER~1\AppData\Local\Temp\ccI3TRm9.s:663    .text.ADC_DiscModeChannelCountConfig:0000000000000000 ADC_DiscModeChannelCountConfig
C:\Users\SOLDER~1\AppData\Local\Temp\ccI3TRm9.s:666    .text.ADC_DiscModeChannelCountConfig:0000000000000000 .L0 
C:\Users\SOLDER~1\AppData\Local\Temp\ccI3TRm9.s:667    .text.ADC_DiscModeChannelCountConfig:0000000000000000 $x
C:\Users\SOLDER~1\AppData\Local\Temp\ccI3TRm9.s:667    .text.ADC_DiscModeChannelCountConfig:0000000000000000 .L0 
C:\Users\SOLDER~1\AppData\Local\Temp\ccI3TRm9.s:668    .text.ADC_DiscModeChannelCountConfig:0000000000000002 .L0 
C:\Users\SOLDER~1\AppData\Local\Temp\ccI3TRm9.s:670    .text.ADC_DiscModeChannelCountConfig:0000000000000004 .L0 
C:\Users\SOLDER~1\AppData\Local\Temp\ccI3TRm9.s:672    .text.ADC_DiscModeChannelCountConfig:0000000000000006 .L0 
C:\Users\SOLDER~1\AppData\Local\Temp\ccI3TRm9.s:677    .text.ADC_DiscModeChannelCountConfig:0000000000000010 .L0 
C:\Users\SOLDER~1\AppData\Local\Temp\ccI3TRm9.s:679    .text.ADC_DiscModeChannelCountConfig:0000000000000014 .L0 
C:\Users\SOLDER~1\AppData\Local\Temp\ccI3TRm9.s:681    .text.ADC_DiscModeChannelCountConfig:0000000000000018 .L0 
C:\Users\SOLDER~1\AppData\Local\Temp\ccI3TRm9.s:685    .text.ADC_DiscModeChannelCountConfig:0000000000000022 .L0 
C:\Users\SOLDER~1\AppData\Local\Temp\ccI3TRm9.s:691    .text.ADC_DiscModeChannelCountConfig:0000000000000030 .L0 
C:\Users\SOLDER~1\AppData\Local\Temp\ccI3TRm9.s:694    .text.ADC_DiscModeChannelCountConfig:0000000000000036 .L0 
C:\Users\SOLDER~1\AppData\Local\Temp\ccI3TRm9.s:696    .text.ADC_DiscModeChannelCountConfig:000000000000003a .L0 
C:\Users\SOLDER~1\AppData\Local\Temp\ccI3TRm9.s:699    .text.ADC_DiscModeChannelCountConfig:0000000000000040 .L0 
C:\Users\SOLDER~1\AppData\Local\Temp\ccI3TRm9.s:703    .text.ADC_DiscModeChannelCountConfig:000000000000004a .L0 
C:\Users\SOLDER~1\AppData\Local\Temp\ccI3TRm9.s:707    .text.ADC_DiscModeChannelCountConfig:0000000000000054 .L0 
C:\Users\SOLDER~1\AppData\Local\Temp\ccI3TRm9.s:709    .text.ADC_DiscModeChannelCountConfig:0000000000000058 .L0 
C:\Users\SOLDER~1\AppData\Local\Temp\ccI3TRm9.s:710    .text.ADC_DiscModeChannelCountConfig:0000000000000058 .L0 
C:\Users\SOLDER~1\AppData\Local\Temp\ccI3TRm9.s:712    .text.ADC_DiscModeChannelCountConfig:000000000000005a .L0 
C:\Users\SOLDER~1\AppData\Local\Temp\ccI3TRm9.s:714    .text.ADC_DiscModeChannelCountConfig:000000000000005c .L0 
C:\Users\SOLDER~1\AppData\Local\Temp\ccI3TRm9.s:721    .text.ADC_DiscModeCmd:0000000000000000 ADC_DiscModeCmd
C:\Users\SOLDER~1\AppData\Local\Temp\ccI3TRm9.s:724    .text.ADC_DiscModeCmd:0000000000000000 .L0 
C:\Users\SOLDER~1\AppData\Local\Temp\ccI3TRm9.s:725    .text.ADC_DiscModeCmd:0000000000000000 $x
C:\Users\SOLDER~1\AppData\Local\Temp\ccI3TRm9.s:725    .text.ADC_DiscModeCmd:0000000000000000 .L0 
C:\Users\SOLDER~1\AppData\Local\Temp\ccI3TRm9.s:726    .text.ADC_DiscModeCmd:0000000000000002 .L0 
C:\Users\SOLDER~1\AppData\Local\Temp\ccI3TRm9.s:728    .text.ADC_DiscModeCmd:0000000000000004 .L0 
C:\Users\SOLDER~1\AppData\Local\Temp\ccI3TRm9.s:730    .text.ADC_DiscModeCmd:0000000000000006 .L0 
C:\Users\SOLDER~1\AppData\Local\Temp\ccI3TRm9.s:734    .text.ADC_DiscModeCmd:000000000000000e .L0 
C:\Users\SOLDER~1\AppData\Local\Temp\ccI3TRm9.s:737    .text.ADC_DiscModeCmd:0000000000000014 .L0 
C:\Users\SOLDER~1\AppData\Local\Temp\ccI3TRm9.s:740    .text.ADC_DiscModeCmd:000000000000001a .L0 
C:\Users\SOLDER~1\AppData\Local\Temp\ccI3TRm9.s:746    .text.ADC_DiscModeCmd:0000000000000028 .L0 
C:\Users\SOLDER~1\AppData\Local\Temp\ccI3TRm9.s:749    .text.ADC_DiscModeCmd:000000000000002a .L0 
C:\Users\SOLDER~1\AppData\Local\Temp\ccI3TRm9.s:752    .text.ADC_DiscModeCmd:0000000000000030 .L0 
C:\Users\SOLDER~1\AppData\Local\Temp\ccI3TRm9.s:759    .text.ADC_DiscModeCmd:000000000000003e .L0 
C:\Users\SOLDER~1\AppData\Local\Temp\ccI3TRm9.s:761    .text.ADC_DiscModeCmd:0000000000000042 .L0 
C:\Users\SOLDER~1\AppData\Local\Temp\ccI3TRm9.s:762    .text.ADC_DiscModeCmd:0000000000000042 .L0 
C:\Users\SOLDER~1\AppData\Local\Temp\ccI3TRm9.s:764    .text.ADC_DiscModeCmd:0000000000000044 .L0 
GAS LISTING C:\Users\SOLDER~1\AppData\Local\Temp\ccI3TRm9.s 			page 76


C:\Users\SOLDER~1\AppData\Local\Temp\ccI3TRm9.s:766    .text.ADC_DiscModeCmd:0000000000000046 .L0 
C:\Users\SOLDER~1\AppData\Local\Temp\ccI3TRm9.s:773    .text.ADC_RegularChannelConfig:0000000000000000 ADC_RegularChannelConfig
C:\Users\SOLDER~1\AppData\Local\Temp\ccI3TRm9.s:776    .text.ADC_RegularChannelConfig:0000000000000000 .L0 
C:\Users\SOLDER~1\AppData\Local\Temp\ccI3TRm9.s:777    .text.ADC_RegularChannelConfig:0000000000000000 $x
C:\Users\SOLDER~1\AppData\Local\Temp\ccI3TRm9.s:777    .text.ADC_RegularChannelConfig:0000000000000000 .L0 
C:\Users\SOLDER~1\AppData\Local\Temp\ccI3TRm9.s:778    .text.ADC_RegularChannelConfig:0000000000000002 .L0 
C:\Users\SOLDER~1\AppData\Local\Temp\ccI3TRm9.s:780    .text.ADC_RegularChannelConfig:0000000000000004 .L0 
C:\Users\SOLDER~1\AppData\Local\Temp\ccI3TRm9.s:782    .text.ADC_RegularChannelConfig:0000000000000006 .L0 
C:\Users\SOLDER~1\AppData\Local\Temp\ccI3TRm9.s:792    .text.ADC_RegularChannelConfig:000000000000001e .L0 
C:\Users\SOLDER~1\AppData\Local\Temp\ccI3TRm9.s:794    .text.ADC_RegularChannelConfig:0000000000000022 .L0 
C:\Users\SOLDER~1\AppData\Local\Temp\ccI3TRm9.s:796    .text.ADC_RegularChannelConfig:0000000000000026 .L0 
C:\Users\SOLDER~1\AppData\Local\Temp\ccI3TRm9.s:800    .text.ADC_RegularChannelConfig:0000000000000030 .L0 
C:\Users\SOLDER~1\AppData\Local\Temp\ccI3TRm9.s:804    .text.ADC_RegularChannelConfig:000000000000003a .L0 
C:\Users\SOLDER~1\AppData\Local\Temp\ccI3TRm9.s:807    .text.ADC_RegularChannelConfig:0000000000000042 .L0 
C:\Users\SOLDER~1\AppData\Local\Temp\ccI3TRm9.s:811    .text.ADC_RegularChannelConfig:0000000000000048 .L0 
C:\Users\SOLDER~1\AppData\Local\Temp\ccI3TRm9.s:815    .text.ADC_RegularChannelConfig:0000000000000052 .L0 
C:\Users\SOLDER~1\AppData\Local\Temp\ccI3TRm9.s:818    .text.ADC_RegularChannelConfig:000000000000005a .L0 
C:\Users\SOLDER~1\AppData\Local\Temp\ccI3TRm9.s:822    .text.ADC_RegularChannelConfig:0000000000000064 .L0 
C:\Users\SOLDER~1\AppData\Local\Temp\ccI3TRm9.s:824    .text.ADC_RegularChannelConfig:0000000000000068 .L0 
C:\Users\SOLDER~1\AppData\Local\Temp\ccI3TRm9.s:827    .text.ADC_RegularChannelConfig:0000000000000070 .L0 
C:\Users\SOLDER~1\AppData\Local\Temp\ccI3TRm9.s:831    .text.ADC_RegularChannelConfig:0000000000000076 .L0 
C:\Users\SOLDER~1\AppData\Local\Temp\ccI3TRm9.s:834    .text.ADC_RegularChannelConfig:000000000000007e .L0 
C:\Users\SOLDER~1\AppData\Local\Temp\ccI3TRm9.s:839    .text.ADC_RegularChannelConfig:000000000000008c .L0 
C:\Users\SOLDER~1\AppData\Local\Temp\ccI3TRm9.s:845    .text.ADC_RegularChannelConfig:0000000000000098 .L0 
C:\Users\SOLDER~1\AppData\Local\Temp\ccI3TRm9.s:849    .text.ADC_RegularChannelConfig:00000000000000a2 .L0 
C:\Users\SOLDER~1\AppData\Local\Temp\ccI3TRm9.s:854    .text.ADC_RegularChannelConfig:00000000000000ac .L0 
C:\Users\SOLDER~1\AppData\Local\Temp\ccI3TRm9.s:858    .text.ADC_RegularChannelConfig:00000000000000b6 .L0 
C:\Users\SOLDER~1\AppData\Local\Temp\ccI3TRm9.s:861    .text.ADC_RegularChannelConfig:00000000000000be .L0 
C:\Users\SOLDER~1\AppData\Local\Temp\ccI3TRm9.s:865    .text.ADC_RegularChannelConfig:00000000000000c8 .L0 
C:\Users\SOLDER~1\AppData\Local\Temp\ccI3TRm9.s:867    .text.ADC_RegularChannelConfig:00000000000000cc .L0 
C:\Users\SOLDER~1\AppData\Local\Temp\ccI3TRm9.s:872    .text.ADC_RegularChannelConfig:00000000000000d6 .L0 
C:\Users\SOLDER~1\AppData\Local\Temp\ccI3TRm9.s:875    .text.ADC_RegularChannelConfig:00000000000000de .L0 
C:\Users\SOLDER~1\AppData\Local\Temp\ccI3TRm9.s:880    .text.ADC_RegularChannelConfig:00000000000000ec .L0 
C:\Users\SOLDER~1\AppData\Local\Temp\ccI3TRm9.s:885    .text.ADC_RegularChannelConfig:00000000000000f6 .L0 
C:\Users\SOLDER~1\AppData\Local\Temp\ccI3TRm9.s:889    .text.ADC_RegularChannelConfig:0000000000000100 .L0 
C:\Users\SOLDER~1\AppData\Local\Temp\ccI3TRm9.s:893    .text.ADC_RegularChannelConfig:000000000000010a .L0 
C:\Users\SOLDER~1\AppData\Local\Temp\ccI3TRm9.s:896    .text.ADC_RegularChannelConfig:0000000000000112 .L0 
C:\Users\SOLDER~1\AppData\Local\Temp\ccI3TRm9.s:900    .text.ADC_RegularChannelConfig:0000000000000118 .L0 
C:\Users\SOLDER~1\AppData\Local\Temp\ccI3TRm9.s:904    .text.ADC_RegularChannelConfig:0000000000000122 .L0 
C:\Users\SOLDER~1\AppData\Local\Temp\ccI3TRm9.s:907    .text.ADC_RegularChannelConfig:000000000000012a .L0 
C:\Users\SOLDER~1\AppData\Local\Temp\ccI3TRm9.s:911    .text.ADC_RegularChannelConfig:0000000000000134 .L0 
C:\Users\SOLDER~1\AppData\Local\Temp\ccI3TRm9.s:913    .text.ADC_RegularChannelConfig:0000000000000138 .L0 
C:\Users\SOLDER~1\AppData\Local\Temp\ccI3TRm9.s:916    .text.ADC_RegularChannelConfig:0000000000000140 .L0 
C:\Users\SOLDER~1\AppData\Local\Temp\ccI3TRm9.s:920    .text.ADC_RegularChannelConfig:0000000000000146 .L0 
C:\Users\SOLDER~1\AppData\Local\Temp\ccI3TRm9.s:923    .text.ADC_RegularChannelConfig:000000000000014e .L0 
C:\Users\SOLDER~1\AppData\Local\Temp\ccI3TRm9.s:928    .text.ADC_RegularChannelConfig:000000000000015c .L0 
C:\Users\SOLDER~1\AppData\Local\Temp\ccI3TRm9.s:932    .text.ADC_RegularChannelConfig:0000000000000166 .L0 
C:\Users\SOLDER~1\AppData\Local\Temp\ccI3TRm9.s:935    .text.ADC_RegularChannelConfig:0000000000000168 .L0 
C:\Users\SOLDER~1\AppData\Local\Temp\ccI3TRm9.s:939    .text.ADC_RegularChannelConfig:0000000000000172 .L0 
C:\Users\SOLDER~1\AppData\Local\Temp\ccI3TRm9.s:943    .text.ADC_RegularChannelConfig:000000000000017c .L0 
C:\Users\SOLDER~1\AppData\Local\Temp\ccI3TRm9.s:946    .text.ADC_RegularChannelConfig:0000000000000184 .L0 
C:\Users\SOLDER~1\AppData\Local\Temp\ccI3TRm9.s:950    .text.ADC_RegularChannelConfig:000000000000018a .L0 
C:\Users\SOLDER~1\AppData\Local\Temp\ccI3TRm9.s:954    .text.ADC_RegularChannelConfig:0000000000000194 .L0 
C:\Users\SOLDER~1\AppData\Local\Temp\ccI3TRm9.s:957    .text.ADC_RegularChannelConfig:000000000000019c .L0 
C:\Users\SOLDER~1\AppData\Local\Temp\ccI3TRm9.s:961    .text.ADC_RegularChannelConfig:00000000000001a6 .L0 
C:\Users\SOLDER~1\AppData\Local\Temp\ccI3TRm9.s:963    .text.ADC_RegularChannelConfig:00000000000001aa .L0 
C:\Users\SOLDER~1\AppData\Local\Temp\ccI3TRm9.s:966    .text.ADC_RegularChannelConfig:00000000000001b2 .L0 
GAS LISTING C:\Users\SOLDER~1\AppData\Local\Temp\ccI3TRm9.s 			page 77


C:\Users\SOLDER~1\AppData\Local\Temp\ccI3TRm9.s:970    .text.ADC_RegularChannelConfig:00000000000001b8 .L0 
C:\Users\SOLDER~1\AppData\Local\Temp\ccI3TRm9.s:973    .text.ADC_RegularChannelConfig:00000000000001c0 .L0 
C:\Users\SOLDER~1\AppData\Local\Temp\ccI3TRm9.s:978    .text.ADC_RegularChannelConfig:00000000000001ce .L0 
C:\Users\SOLDER~1\AppData\Local\Temp\ccI3TRm9.s:982    .text.ADC_RegularChannelConfig:00000000000001d8 .L0 
C:\Users\SOLDER~1\AppData\Local\Temp\ccI3TRm9.s:985    .text.ADC_RegularChannelConfig:00000000000001da .L0 
C:\Users\SOLDER~1\AppData\Local\Temp\ccI3TRm9.s:989    .text.ADC_RegularChannelConfig:00000000000001e4 .L0 
C:\Users\SOLDER~1\AppData\Local\Temp\ccI3TRm9.s:992    .text.ADC_RegularChannelConfig:00000000000001ec .L0 
C:\Users\SOLDER~1\AppData\Local\Temp\ccI3TRm9.s:996    .text.ADC_RegularChannelConfig:00000000000001f2 .L0 
C:\Users\SOLDER~1\AppData\Local\Temp\ccI3TRm9.s:1000   .text.ADC_RegularChannelConfig:00000000000001fc .L0 
C:\Users\SOLDER~1\AppData\Local\Temp\ccI3TRm9.s:1003   .text.ADC_RegularChannelConfig:0000000000000204 .L0 
C:\Users\SOLDER~1\AppData\Local\Temp\ccI3TRm9.s:1007   .text.ADC_RegularChannelConfig:000000000000020e .L0 
C:\Users\SOLDER~1\AppData\Local\Temp\ccI3TRm9.s:1009   .text.ADC_RegularChannelConfig:0000000000000212 .L0 
C:\Users\SOLDER~1\AppData\Local\Temp\ccI3TRm9.s:1012   .text.ADC_RegularChannelConfig:000000000000021a .L0 
C:\Users\SOLDER~1\AppData\Local\Temp\ccI3TRm9.s:1016   .text.ADC_RegularChannelConfig:0000000000000220 .L0 
C:\Users\SOLDER~1\AppData\Local\Temp\ccI3TRm9.s:1019   .text.ADC_RegularChannelConfig:0000000000000228 .L0 
C:\Users\SOLDER~1\AppData\Local\Temp\ccI3TRm9.s:1024   .text.ADC_RegularChannelConfig:0000000000000236 .L0 
C:\Users\SOLDER~1\AppData\Local\Temp\ccI3TRm9.s:1029   .text.ADC_RegularChannelConfig:0000000000000240 .L0 
C:\Users\SOLDER~1\AppData\Local\Temp\ccI3TRm9.s:1031   .text.ADC_RegularChannelConfig:0000000000000244 .L0 
C:\Users\SOLDER~1\AppData\Local\Temp\ccI3TRm9.s:1032   .text.ADC_RegularChannelConfig:0000000000000244 .L0 
C:\Users\SOLDER~1\AppData\Local\Temp\ccI3TRm9.s:1034   .text.ADC_RegularChannelConfig:0000000000000246 .L0 
C:\Users\SOLDER~1\AppData\Local\Temp\ccI3TRm9.s:1036   .text.ADC_RegularChannelConfig:0000000000000248 .L0 
C:\Users\SOLDER~1\AppData\Local\Temp\ccI3TRm9.s:1043   .text.ADC_ExternalTrigConvCmd:0000000000000000 ADC_ExternalTrigConvCmd
C:\Users\SOLDER~1\AppData\Local\Temp\ccI3TRm9.s:1046   .text.ADC_ExternalTrigConvCmd:0000000000000000 .L0 
C:\Users\SOLDER~1\AppData\Local\Temp\ccI3TRm9.s:1047   .text.ADC_ExternalTrigConvCmd:0000000000000000 $x
C:\Users\SOLDER~1\AppData\Local\Temp\ccI3TRm9.s:1047   .text.ADC_ExternalTrigConvCmd:0000000000000000 .L0 
C:\Users\SOLDER~1\AppData\Local\Temp\ccI3TRm9.s:1048   .text.ADC_ExternalTrigConvCmd:0000000000000002 .L0 
C:\Users\SOLDER~1\AppData\Local\Temp\ccI3TRm9.s:1050   .text.ADC_ExternalTrigConvCmd:0000000000000004 .L0 
C:\Users\SOLDER~1\AppData\Local\Temp\ccI3TRm9.s:1052   .text.ADC_ExternalTrigConvCmd:0000000000000006 .L0 
C:\Users\SOLDER~1\AppData\Local\Temp\ccI3TRm9.s:1056   .text.ADC_ExternalTrigConvCmd:000000000000000e .L0 
C:\Users\SOLDER~1\AppData\Local\Temp\ccI3TRm9.s:1059   .text.ADC_ExternalTrigConvCmd:0000000000000014 .L0 
C:\Users\SOLDER~1\AppData\Local\Temp\ccI3TRm9.s:1062   .text.ADC_ExternalTrigConvCmd:000000000000001a .L0 
C:\Users\SOLDER~1\AppData\Local\Temp\ccI3TRm9.s:1067   .text.ADC_ExternalTrigConvCmd:0000000000000026 .L0 
C:\Users\SOLDER~1\AppData\Local\Temp\ccI3TRm9.s:1070   .text.ADC_ExternalTrigConvCmd:0000000000000028 .L0 
C:\Users\SOLDER~1\AppData\Local\Temp\ccI3TRm9.s:1073   .text.ADC_ExternalTrigConvCmd:000000000000002e .L0 
C:\Users\SOLDER~1\AppData\Local\Temp\ccI3TRm9.s:1080   .text.ADC_ExternalTrigConvCmd:000000000000003c .L0 
C:\Users\SOLDER~1\AppData\Local\Temp\ccI3TRm9.s:1082   .text.ADC_ExternalTrigConvCmd:0000000000000040 .L0 
C:\Users\SOLDER~1\AppData\Local\Temp\ccI3TRm9.s:1083   .text.ADC_ExternalTrigConvCmd:0000000000000040 .L0 
C:\Users\SOLDER~1\AppData\Local\Temp\ccI3TRm9.s:1085   .text.ADC_ExternalTrigConvCmd:0000000000000042 .L0 
C:\Users\SOLDER~1\AppData\Local\Temp\ccI3TRm9.s:1087   .text.ADC_ExternalTrigConvCmd:0000000000000044 .L0 
C:\Users\SOLDER~1\AppData\Local\Temp\ccI3TRm9.s:1094   .text.ADC_GetConversionValue:0000000000000000 ADC_GetConversionValue
C:\Users\SOLDER~1\AppData\Local\Temp\ccI3TRm9.s:1097   .text.ADC_GetConversionValue:0000000000000000 .L0 
C:\Users\SOLDER~1\AppData\Local\Temp\ccI3TRm9.s:1098   .text.ADC_GetConversionValue:0000000000000000 $x
C:\Users\SOLDER~1\AppData\Local\Temp\ccI3TRm9.s:1098   .text.ADC_GetConversionValue:0000000000000000 .L0 
C:\Users\SOLDER~1\AppData\Local\Temp\ccI3TRm9.s:1099   .text.ADC_GetConversionValue:0000000000000002 .L0 
C:\Users\SOLDER~1\AppData\Local\Temp\ccI3TRm9.s:1101   .text.ADC_GetConversionValue:0000000000000004 .L0 
C:\Users\SOLDER~1\AppData\Local\Temp\ccI3TRm9.s:1103   .text.ADC_GetConversionValue:0000000000000006 .L0 
C:\Users\SOLDER~1\AppData\Local\Temp\ccI3TRm9.s:1106   .text.ADC_GetConversionValue:000000000000000a .L0 
C:\Users\SOLDER~1\AppData\Local\Temp\ccI3TRm9.s:1109   .text.ADC_GetConversionValue:0000000000000010 .L0 
C:\Users\SOLDER~1\AppData\Local\Temp\ccI3TRm9.s:1112   .text.ADC_GetConversionValue:0000000000000014 .L0 
C:\Users\SOLDER~1\AppData\Local\Temp\ccI3TRm9.s:1114   .text.ADC_GetConversionValue:0000000000000018 .L0 
C:\Users\SOLDER~1\AppData\Local\Temp\ccI3TRm9.s:1115   .text.ADC_GetConversionValue:0000000000000018 .L0 
C:\Users\SOLDER~1\AppData\Local\Temp\ccI3TRm9.s:1117   .text.ADC_GetConversionValue:000000000000001a .L0 
C:\Users\SOLDER~1\AppData\Local\Temp\ccI3TRm9.s:1119   .text.ADC_GetConversionValue:000000000000001c .L0 
C:\Users\SOLDER~1\AppData\Local\Temp\ccI3TRm9.s:1126   .text.ADC_GetDualModeConversionValue:0000000000000000 ADC_GetDualModeConversionValue
C:\Users\SOLDER~1\AppData\Local\Temp\ccI3TRm9.s:1129   .text.ADC_GetDualModeConversionValue:0000000000000000 .L0 
C:\Users\SOLDER~1\AppData\Local\Temp\ccI3TRm9.s:1130   .text.ADC_GetDualModeConversionValue:0000000000000000 $x
C:\Users\SOLDER~1\AppData\Local\Temp\ccI3TRm9.s:1130   .text.ADC_GetDualModeConversionValue:0000000000000000 .L0 
GAS LISTING C:\Users\SOLDER~1\AppData\Local\Temp\ccI3TRm9.s 			page 78


C:\Users\SOLDER~1\AppData\Local\Temp\ccI3TRm9.s:1131   .text.ADC_GetDualModeConversionValue:0000000000000002 .L0 
C:\Users\SOLDER~1\AppData\Local\Temp\ccI3TRm9.s:1133   .text.ADC_GetDualModeConversionValue:0000000000000004 .L0 
C:\Users\SOLDER~1\AppData\Local\Temp\ccI3TRm9.s:1135   .text.ADC_GetDualModeConversionValue:0000000000000006 .L0 
C:\Users\SOLDER~1\AppData\Local\Temp\ccI3TRm9.s:1137   .text.ADC_GetDualModeConversionValue:0000000000000006 .L0 
C:\Users\SOLDER~1\AppData\Local\Temp\ccI3TRm9.s:1141   .text.ADC_GetDualModeConversionValue:0000000000000010 .L0 
C:\Users\SOLDER~1\AppData\Local\Temp\ccI3TRm9.s:1143   .text.ADC_GetDualModeConversionValue:0000000000000014 .L0 
C:\Users\SOLDER~1\AppData\Local\Temp\ccI3TRm9.s:1144   .text.ADC_GetDualModeConversionValue:0000000000000014 .L0 
C:\Users\SOLDER~1\AppData\Local\Temp\ccI3TRm9.s:1146   .text.ADC_GetDualModeConversionValue:0000000000000016 .L0 
C:\Users\SOLDER~1\AppData\Local\Temp\ccI3TRm9.s:1148   .text.ADC_GetDualModeConversionValue:0000000000000018 .L0 
C:\Users\SOLDER~1\AppData\Local\Temp\ccI3TRm9.s:1155   .text.ADC_AutoInjectedConvCmd:0000000000000000 ADC_AutoInjectedConvCmd
C:\Users\SOLDER~1\AppData\Local\Temp\ccI3TRm9.s:1158   .text.ADC_AutoInjectedConvCmd:0000000000000000 .L0 
C:\Users\SOLDER~1\AppData\Local\Temp\ccI3TRm9.s:1159   .text.ADC_AutoInjectedConvCmd:0000000000000000 $x
C:\Users\SOLDER~1\AppData\Local\Temp\ccI3TRm9.s:1159   .text.ADC_AutoInjectedConvCmd:0000000000000000 .L0 
C:\Users\SOLDER~1\AppData\Local\Temp\ccI3TRm9.s:1160   .text.ADC_AutoInjectedConvCmd:0000000000000002 .L0 
C:\Users\SOLDER~1\AppData\Local\Temp\ccI3TRm9.s:1162   .text.ADC_AutoInjectedConvCmd:0000000000000004 .L0 
C:\Users\SOLDER~1\AppData\Local\Temp\ccI3TRm9.s:1164   .text.ADC_AutoInjectedConvCmd:0000000000000006 .L0 
C:\Users\SOLDER~1\AppData\Local\Temp\ccI3TRm9.s:1168   .text.ADC_AutoInjectedConvCmd:000000000000000e .L0 
C:\Users\SOLDER~1\AppData\Local\Temp\ccI3TRm9.s:1171   .text.ADC_AutoInjectedConvCmd:0000000000000014 .L0 
C:\Users\SOLDER~1\AppData\Local\Temp\ccI3TRm9.s:1174   .text.ADC_AutoInjectedConvCmd:000000000000001a .L0 
C:\Users\SOLDER~1\AppData\Local\Temp\ccI3TRm9.s:1178   .text.ADC_AutoInjectedConvCmd:0000000000000024 .L0 
C:\Users\SOLDER~1\AppData\Local\Temp\ccI3TRm9.s:1181   .text.ADC_AutoInjectedConvCmd:0000000000000026 .L0 
C:\Users\SOLDER~1\AppData\Local\Temp\ccI3TRm9.s:1184   .text.ADC_AutoInjectedConvCmd:000000000000002c .L0 
C:\Users\SOLDER~1\AppData\Local\Temp\ccI3TRm9.s:1189   .text.ADC_AutoInjectedConvCmd:0000000000000036 .L0 
C:\Users\SOLDER~1\AppData\Local\Temp\ccI3TRm9.s:1191   .text.ADC_AutoInjectedConvCmd:000000000000003a .L0 
C:\Users\SOLDER~1\AppData\Local\Temp\ccI3TRm9.s:1192   .text.ADC_AutoInjectedConvCmd:000000000000003a .L0 
C:\Users\SOLDER~1\AppData\Local\Temp\ccI3TRm9.s:1194   .text.ADC_AutoInjectedConvCmd:000000000000003c .L0 
C:\Users\SOLDER~1\AppData\Local\Temp\ccI3TRm9.s:1196   .text.ADC_AutoInjectedConvCmd:000000000000003e .L0 
C:\Users\SOLDER~1\AppData\Local\Temp\ccI3TRm9.s:1203   .text.ADC_InjectedDiscModeCmd:0000000000000000 ADC_InjectedDiscModeCmd
C:\Users\SOLDER~1\AppData\Local\Temp\ccI3TRm9.s:1206   .text.ADC_InjectedDiscModeCmd:0000000000000000 .L0 
C:\Users\SOLDER~1\AppData\Local\Temp\ccI3TRm9.s:1207   .text.ADC_InjectedDiscModeCmd:0000000000000000 $x
C:\Users\SOLDER~1\AppData\Local\Temp\ccI3TRm9.s:1207   .text.ADC_InjectedDiscModeCmd:0000000000000000 .L0 
C:\Users\SOLDER~1\AppData\Local\Temp\ccI3TRm9.s:1208   .text.ADC_InjectedDiscModeCmd:0000000000000002 .L0 
C:\Users\SOLDER~1\AppData\Local\Temp\ccI3TRm9.s:1210   .text.ADC_InjectedDiscModeCmd:0000000000000004 .L0 
C:\Users\SOLDER~1\AppData\Local\Temp\ccI3TRm9.s:1212   .text.ADC_InjectedDiscModeCmd:0000000000000006 .L0 
C:\Users\SOLDER~1\AppData\Local\Temp\ccI3TRm9.s:1216   .text.ADC_InjectedDiscModeCmd:000000000000000e .L0 
C:\Users\SOLDER~1\AppData\Local\Temp\ccI3TRm9.s:1219   .text.ADC_InjectedDiscModeCmd:0000000000000014 .L0 
C:\Users\SOLDER~1\AppData\Local\Temp\ccI3TRm9.s:1222   .text.ADC_InjectedDiscModeCmd:000000000000001a .L0 
C:\Users\SOLDER~1\AppData\Local\Temp\ccI3TRm9.s:1227   .text.ADC_InjectedDiscModeCmd:0000000000000024 .L0 
C:\Users\SOLDER~1\AppData\Local\Temp\ccI3TRm9.s:1230   .text.ADC_InjectedDiscModeCmd:0000000000000026 .L0 
C:\Users\SOLDER~1\AppData\Local\Temp\ccI3TRm9.s:1233   .text.ADC_InjectedDiscModeCmd:000000000000002c .L0 
C:\Users\SOLDER~1\AppData\Local\Temp\ccI3TRm9.s:1240   .text.ADC_InjectedDiscModeCmd:0000000000000038 .L0 
C:\Users\SOLDER~1\AppData\Local\Temp\ccI3TRm9.s:1242   .text.ADC_InjectedDiscModeCmd:000000000000003c .L0 
C:\Users\SOLDER~1\AppData\Local\Temp\ccI3TRm9.s:1243   .text.ADC_InjectedDiscModeCmd:000000000000003c .L0 
C:\Users\SOLDER~1\AppData\Local\Temp\ccI3TRm9.s:1245   .text.ADC_InjectedDiscModeCmd:000000000000003e .L0 
C:\Users\SOLDER~1\AppData\Local\Temp\ccI3TRm9.s:1247   .text.ADC_InjectedDiscModeCmd:0000000000000040 .L0 
C:\Users\SOLDER~1\AppData\Local\Temp\ccI3TRm9.s:1254   .text.ADC_ExternalTrigInjectedConvConfig:0000000000000000 ADC_ExternalTrigInjectedConvConfig
C:\Users\SOLDER~1\AppData\Local\Temp\ccI3TRm9.s:1257   .text.ADC_ExternalTrigInjectedConvConfig:0000000000000000 .L0 
C:\Users\SOLDER~1\AppData\Local\Temp\ccI3TRm9.s:1258   .text.ADC_ExternalTrigInjectedConvConfig:0000000000000000 $x
C:\Users\SOLDER~1\AppData\Local\Temp\ccI3TRm9.s:1258   .text.ADC_ExternalTrigInjectedConvConfig:0000000000000000 .L0 
C:\Users\SOLDER~1\AppData\Local\Temp\ccI3TRm9.s:1259   .text.ADC_ExternalTrigInjectedConvConfig:0000000000000002 .L0 
C:\Users\SOLDER~1\AppData\Local\Temp\ccI3TRm9.s:1261   .text.ADC_ExternalTrigInjectedConvConfig:0000000000000004 .L0 
C:\Users\SOLDER~1\AppData\Local\Temp\ccI3TRm9.s:1263   .text.ADC_ExternalTrigInjectedConvConfig:0000000000000006 .L0 
C:\Users\SOLDER~1\AppData\Local\Temp\ccI3TRm9.s:1267   .text.ADC_ExternalTrigInjectedConvConfig:000000000000000e .L0 
C:\Users\SOLDER~1\AppData\Local\Temp\ccI3TRm9.s:1269   .text.ADC_ExternalTrigInjectedConvConfig:0000000000000012 .L0 
C:\Users\SOLDER~1\AppData\Local\Temp\ccI3TRm9.s:1273   .text.ADC_ExternalTrigInjectedConvConfig:000000000000001c .L0 
C:\Users\SOLDER~1\AppData\Local\Temp\ccI3TRm9.s:1279   .text.ADC_ExternalTrigInjectedConvConfig:000000000000002a .L0 
C:\Users\SOLDER~1\AppData\Local\Temp\ccI3TRm9.s:1284   .text.ADC_ExternalTrigInjectedConvConfig:0000000000000038 .L0 
GAS LISTING C:\Users\SOLDER~1\AppData\Local\Temp\ccI3TRm9.s 			page 79


C:\Users\SOLDER~1\AppData\Local\Temp\ccI3TRm9.s:1288   .text.ADC_ExternalTrigInjectedConvConfig:0000000000000042 .L0 
C:\Users\SOLDER~1\AppData\Local\Temp\ccI3TRm9.s:1290   .text.ADC_ExternalTrigInjectedConvConfig:0000000000000046 .L0 
C:\Users\SOLDER~1\AppData\Local\Temp\ccI3TRm9.s:1291   .text.ADC_ExternalTrigInjectedConvConfig:0000000000000046 .L0 
C:\Users\SOLDER~1\AppData\Local\Temp\ccI3TRm9.s:1293   .text.ADC_ExternalTrigInjectedConvConfig:0000000000000048 .L0 
C:\Users\SOLDER~1\AppData\Local\Temp\ccI3TRm9.s:1295   .text.ADC_ExternalTrigInjectedConvConfig:000000000000004a .L0 
C:\Users\SOLDER~1\AppData\Local\Temp\ccI3TRm9.s:1302   .text.ADC_ExternalTrigInjectedConvCmd:0000000000000000 ADC_ExternalTrigInjectedConvCmd
C:\Users\SOLDER~1\AppData\Local\Temp\ccI3TRm9.s:1305   .text.ADC_ExternalTrigInjectedConvCmd:0000000000000000 .L0 
C:\Users\SOLDER~1\AppData\Local\Temp\ccI3TRm9.s:1306   .text.ADC_ExternalTrigInjectedConvCmd:0000000000000000 $x
C:\Users\SOLDER~1\AppData\Local\Temp\ccI3TRm9.s:1306   .text.ADC_ExternalTrigInjectedConvCmd:0000000000000000 .L0 
C:\Users\SOLDER~1\AppData\Local\Temp\ccI3TRm9.s:1307   .text.ADC_ExternalTrigInjectedConvCmd:0000000000000002 .L0 
C:\Users\SOLDER~1\AppData\Local\Temp\ccI3TRm9.s:1309   .text.ADC_ExternalTrigInjectedConvCmd:0000000000000004 .L0 
C:\Users\SOLDER~1\AppData\Local\Temp\ccI3TRm9.s:1311   .text.ADC_ExternalTrigInjectedConvCmd:0000000000000006 .L0 
C:\Users\SOLDER~1\AppData\Local\Temp\ccI3TRm9.s:1315   .text.ADC_ExternalTrigInjectedConvCmd:000000000000000e .L0 
C:\Users\SOLDER~1\AppData\Local\Temp\ccI3TRm9.s:1318   .text.ADC_ExternalTrigInjectedConvCmd:0000000000000014 .L0 
C:\Users\SOLDER~1\AppData\Local\Temp\ccI3TRm9.s:1321   .text.ADC_ExternalTrigInjectedConvCmd:000000000000001a .L0 
C:\Users\SOLDER~1\AppData\Local\Temp\ccI3TRm9.s:1326   .text.ADC_ExternalTrigInjectedConvCmd:0000000000000024 .L0 
C:\Users\SOLDER~1\AppData\Local\Temp\ccI3TRm9.s:1329   .text.ADC_ExternalTrigInjectedConvCmd:0000000000000026 .L0 
C:\Users\SOLDER~1\AppData\Local\Temp\ccI3TRm9.s:1332   .text.ADC_ExternalTrigInjectedConvCmd:000000000000002c .L0 
C:\Users\SOLDER~1\AppData\Local\Temp\ccI3TRm9.s:1339   .text.ADC_ExternalTrigInjectedConvCmd:0000000000000038 .L0 
C:\Users\SOLDER~1\AppData\Local\Temp\ccI3TRm9.s:1341   .text.ADC_ExternalTrigInjectedConvCmd:000000000000003c .L0 
C:\Users\SOLDER~1\AppData\Local\Temp\ccI3TRm9.s:1342   .text.ADC_ExternalTrigInjectedConvCmd:000000000000003c .L0 
C:\Users\SOLDER~1\AppData\Local\Temp\ccI3TRm9.s:1344   .text.ADC_ExternalTrigInjectedConvCmd:000000000000003e .L0 
C:\Users\SOLDER~1\AppData\Local\Temp\ccI3TRm9.s:1346   .text.ADC_ExternalTrigInjectedConvCmd:0000000000000040 .L0 
C:\Users\SOLDER~1\AppData\Local\Temp\ccI3TRm9.s:1353   .text.ADC_SoftwareStartInjectedConvCmd:0000000000000000 ADC_SoftwareStartInjectedConvCmd
C:\Users\SOLDER~1\AppData\Local\Temp\ccI3TRm9.s:1356   .text.ADC_SoftwareStartInjectedConvCmd:0000000000000000 .L0 
C:\Users\SOLDER~1\AppData\Local\Temp\ccI3TRm9.s:1357   .text.ADC_SoftwareStartInjectedConvCmd:0000000000000000 $x
C:\Users\SOLDER~1\AppData\Local\Temp\ccI3TRm9.s:1357   .text.ADC_SoftwareStartInjectedConvCmd:0000000000000000 .L0 
C:\Users\SOLDER~1\AppData\Local\Temp\ccI3TRm9.s:1358   .text.ADC_SoftwareStartInjectedConvCmd:0000000000000002 .L0 
C:\Users\SOLDER~1\AppData\Local\Temp\ccI3TRm9.s:1360   .text.ADC_SoftwareStartInjectedConvCmd:0000000000000004 .L0 
C:\Users\SOLDER~1\AppData\Local\Temp\ccI3TRm9.s:1362   .text.ADC_SoftwareStartInjectedConvCmd:0000000000000006 .L0 
C:\Users\SOLDER~1\AppData\Local\Temp\ccI3TRm9.s:1366   .text.ADC_SoftwareStartInjectedConvCmd:000000000000000e .L0 
C:\Users\SOLDER~1\AppData\Local\Temp\ccI3TRm9.s:1369   .text.ADC_SoftwareStartInjectedConvCmd:0000000000000014 .L0 
C:\Users\SOLDER~1\AppData\Local\Temp\ccI3TRm9.s:1372   .text.ADC_SoftwareStartInjectedConvCmd:000000000000001a .L0 
C:\Users\SOLDER~1\AppData\Local\Temp\ccI3TRm9.s:1377   .text.ADC_SoftwareStartInjectedConvCmd:0000000000000026 .L0 
C:\Users\SOLDER~1\AppData\Local\Temp\ccI3TRm9.s:1380   .text.ADC_SoftwareStartInjectedConvCmd:0000000000000028 .L0 
C:\Users\SOLDER~1\AppData\Local\Temp\ccI3TRm9.s:1383   .text.ADC_SoftwareStartInjectedConvCmd:000000000000002e .L0 
C:\Users\SOLDER~1\AppData\Local\Temp\ccI3TRm9.s:1390   .text.ADC_SoftwareStartInjectedConvCmd:000000000000003c .L0 
C:\Users\SOLDER~1\AppData\Local\Temp\ccI3TRm9.s:1392   .text.ADC_SoftwareStartInjectedConvCmd:0000000000000040 .L0 
C:\Users\SOLDER~1\AppData\Local\Temp\ccI3TRm9.s:1393   .text.ADC_SoftwareStartInjectedConvCmd:0000000000000040 .L0 
C:\Users\SOLDER~1\AppData\Local\Temp\ccI3TRm9.s:1395   .text.ADC_SoftwareStartInjectedConvCmd:0000000000000042 .L0 
C:\Users\SOLDER~1\AppData\Local\Temp\ccI3TRm9.s:1397   .text.ADC_SoftwareStartInjectedConvCmd:0000000000000044 .L0 
C:\Users\SOLDER~1\AppData\Local\Temp\ccI3TRm9.s:1404   .text.ADC_GetSoftwareStartInjectedConvCmdStatus:0000000000000000 ADC_GetSoftwareStartInjectedConvCmdStatus
C:\Users\SOLDER~1\AppData\Local\Temp\ccI3TRm9.s:1407   .text.ADC_GetSoftwareStartInjectedConvCmdStatus:0000000000000000 .L0 
C:\Users\SOLDER~1\AppData\Local\Temp\ccI3TRm9.s:1408   .text.ADC_GetSoftwareStartInjectedConvCmdStatus:0000000000000000 $x
C:\Users\SOLDER~1\AppData\Local\Temp\ccI3TRm9.s:1408   .text.ADC_GetSoftwareStartInjectedConvCmdStatus:0000000000000000 .L0 
C:\Users\SOLDER~1\AppData\Local\Temp\ccI3TRm9.s:1409   .text.ADC_GetSoftwareStartInjectedConvCmdStatus:0000000000000002 .L0 
C:\Users\SOLDER~1\AppData\Local\Temp\ccI3TRm9.s:1411   .text.ADC_GetSoftwareStartInjectedConvCmdStatus:0000000000000004 .L0 
C:\Users\SOLDER~1\AppData\Local\Temp\ccI3TRm9.s:1413   .text.ADC_GetSoftwareStartInjectedConvCmdStatus:0000000000000006 .L0 
C:\Users\SOLDER~1\AppData\Local\Temp\ccI3TRm9.s:1416   .text.ADC_GetSoftwareStartInjectedConvCmdStatus:000000000000000a .L0 
C:\Users\SOLDER~1\AppData\Local\Temp\ccI3TRm9.s:1418   .text.ADC_GetSoftwareStartInjectedConvCmdStatus:000000000000000e .L0 
C:\Users\SOLDER~1\AppData\Local\Temp\ccI3TRm9.s:1421   .text.ADC_GetSoftwareStartInjectedConvCmdStatus:0000000000000014 .L0 
C:\Users\SOLDER~1\AppData\Local\Temp\ccI3TRm9.s:1424   .text.ADC_GetSoftwareStartInjectedConvCmdStatus:000000000000001a .L0 
C:\Users\SOLDER~1\AppData\Local\Temp\ccI3TRm9.s:1426   .text.ADC_GetSoftwareStartInjectedConvCmdStatus:000000000000001c .L0 
C:\Users\SOLDER~1\AppData\Local\Temp\ccI3TRm9.s:1431   .text.ADC_GetSoftwareStartInjectedConvCmdStatus:0000000000000024 .L0 
C:\Users\SOLDER~1\AppData\Local\Temp\ccI3TRm9.s:1434   .text.ADC_GetSoftwareStartInjectedConvCmdStatus:0000000000000028 .L0 
C:\Users\SOLDER~1\AppData\Local\Temp\ccI3TRm9.s:1436   .text.ADC_GetSoftwareStartInjectedConvCmdStatus:000000000000002c .L0 
C:\Users\SOLDER~1\AppData\Local\Temp\ccI3TRm9.s:1438   .text.ADC_GetSoftwareStartInjectedConvCmdStatus:0000000000000030 .L0 
GAS LISTING C:\Users\SOLDER~1\AppData\Local\Temp\ccI3TRm9.s 			page 80


C:\Users\SOLDER~1\AppData\Local\Temp\ccI3TRm9.s:1439   .text.ADC_GetSoftwareStartInjectedConvCmdStatus:0000000000000030 .L0 
C:\Users\SOLDER~1\AppData\Local\Temp\ccI3TRm9.s:1441   .text.ADC_GetSoftwareStartInjectedConvCmdStatus:0000000000000032 .L0 
C:\Users\SOLDER~1\AppData\Local\Temp\ccI3TRm9.s:1443   .text.ADC_GetSoftwareStartInjectedConvCmdStatus:0000000000000034 .L0 
C:\Users\SOLDER~1\AppData\Local\Temp\ccI3TRm9.s:1450   .text.ADC_InjectedChannelConfig:0000000000000000 ADC_InjectedChannelConfig
C:\Users\SOLDER~1\AppData\Local\Temp\ccI3TRm9.s:1453   .text.ADC_InjectedChannelConfig:0000000000000000 .L0 
C:\Users\SOLDER~1\AppData\Local\Temp\ccI3TRm9.s:1454   .text.ADC_InjectedChannelConfig:0000000000000000 $x
C:\Users\SOLDER~1\AppData\Local\Temp\ccI3TRm9.s:1454   .text.ADC_InjectedChannelConfig:0000000000000000 .L0 
C:\Users\SOLDER~1\AppData\Local\Temp\ccI3TRm9.s:1455   .text.ADC_InjectedChannelConfig:0000000000000002 .L0 
C:\Users\SOLDER~1\AppData\Local\Temp\ccI3TRm9.s:1457   .text.ADC_InjectedChannelConfig:0000000000000004 .L0 
C:\Users\SOLDER~1\AppData\Local\Temp\ccI3TRm9.s:1459   .text.ADC_InjectedChannelConfig:0000000000000006 .L0 
C:\Users\SOLDER~1\AppData\Local\Temp\ccI3TRm9.s:1469   .text.ADC_InjectedChannelConfig:000000000000001e .L0 
C:\Users\SOLDER~1\AppData\Local\Temp\ccI3TRm9.s:1471   .text.ADC_InjectedChannelConfig:0000000000000022 .L0 
C:\Users\SOLDER~1\AppData\Local\Temp\ccI3TRm9.s:1473   .text.ADC_InjectedChannelConfig:0000000000000026 .L0 
C:\Users\SOLDER~1\AppData\Local\Temp\ccI3TRm9.s:1475   .text.ADC_InjectedChannelConfig:000000000000002a .L0 
C:\Users\SOLDER~1\AppData\Local\Temp\ccI3TRm9.s:1479   .text.ADC_InjectedChannelConfig:0000000000000034 .L0 
C:\Users\SOLDER~1\AppData\Local\Temp\ccI3TRm9.s:1483   .text.ADC_InjectedChannelConfig:000000000000003e .L0 
C:\Users\SOLDER~1\AppData\Local\Temp\ccI3TRm9.s:1486   .text.ADC_InjectedChannelConfig:0000000000000046 .L0 
C:\Users\SOLDER~1\AppData\Local\Temp\ccI3TRm9.s:1490   .text.ADC_InjectedChannelConfig:000000000000004c .L0 
C:\Users\SOLDER~1\AppData\Local\Temp\ccI3TRm9.s:1494   .text.ADC_InjectedChannelConfig:0000000000000056 .L0 
C:\Users\SOLDER~1\AppData\Local\Temp\ccI3TRm9.s:1497   .text.ADC_InjectedChannelConfig:000000000000005e .L0 
C:\Users\SOLDER~1\AppData\Local\Temp\ccI3TRm9.s:1501   .text.ADC_InjectedChannelConfig:0000000000000068 .L0 
C:\Users\SOLDER~1\AppData\Local\Temp\ccI3TRm9.s:1503   .text.ADC_InjectedChannelConfig:000000000000006c .L0 
C:\Users\SOLDER~1\AppData\Local\Temp\ccI3TRm9.s:1506   .text.ADC_InjectedChannelConfig:0000000000000074 .L0 
C:\Users\SOLDER~1\AppData\Local\Temp\ccI3TRm9.s:1510   .text.ADC_InjectedChannelConfig:000000000000007a .L0 
C:\Users\SOLDER~1\AppData\Local\Temp\ccI3TRm9.s:1513   .text.ADC_InjectedChannelConfig:0000000000000082 .L0 
C:\Users\SOLDER~1\AppData\Local\Temp\ccI3TRm9.s:1518   .text.ADC_InjectedChannelConfig:0000000000000090 .L0 
C:\Users\SOLDER~1\AppData\Local\Temp\ccI3TRm9.s:1524   .text.ADC_InjectedChannelConfig:000000000000009c .L0 
C:\Users\SOLDER~1\AppData\Local\Temp\ccI3TRm9.s:1528   .text.ADC_InjectedChannelConfig:00000000000000a6 .L0 
C:\Users\SOLDER~1\AppData\Local\Temp\ccI3TRm9.s:1533   .text.ADC_InjectedChannelConfig:00000000000000b0 .L0 
C:\Users\SOLDER~1\AppData\Local\Temp\ccI3TRm9.s:1537   .text.ADC_InjectedChannelConfig:00000000000000ba .L0 
C:\Users\SOLDER~1\AppData\Local\Temp\ccI3TRm9.s:1540   .text.ADC_InjectedChannelConfig:00000000000000c2 .L0 
C:\Users\SOLDER~1\AppData\Local\Temp\ccI3TRm9.s:1544   .text.ADC_InjectedChannelConfig:00000000000000cc .L0 
C:\Users\SOLDER~1\AppData\Local\Temp\ccI3TRm9.s:1546   .text.ADC_InjectedChannelConfig:00000000000000d0 .L0 
C:\Users\SOLDER~1\AppData\Local\Temp\ccI3TRm9.s:1551   .text.ADC_InjectedChannelConfig:00000000000000da .L0 
C:\Users\SOLDER~1\AppData\Local\Temp\ccI3TRm9.s:1554   .text.ADC_InjectedChannelConfig:00000000000000e2 .L0 
C:\Users\SOLDER~1\AppData\Local\Temp\ccI3TRm9.s:1559   .text.ADC_InjectedChannelConfig:00000000000000f0 .L0 
C:\Users\SOLDER~1\AppData\Local\Temp\ccI3TRm9.s:1564   .text.ADC_InjectedChannelConfig:00000000000000fa .L0 
C:\Users\SOLDER~1\AppData\Local\Temp\ccI3TRm9.s:1568   .text.ADC_InjectedChannelConfig:0000000000000104 .L0 
C:\Users\SOLDER~1\AppData\Local\Temp\ccI3TRm9.s:1571   .text.ADC_InjectedChannelConfig:000000000000010a .L0 
C:\Users\SOLDER~1\AppData\Local\Temp\ccI3TRm9.s:1574   .text.ADC_InjectedChannelConfig:0000000000000110 .L0 
C:\Users\SOLDER~1\AppData\Local\Temp\ccI3TRm9.s:1580   .text.ADC_InjectedChannelConfig:0000000000000124 .L0 
C:\Users\SOLDER~1\AppData\Local\Temp\ccI3TRm9.s:1584   .text.ADC_InjectedChannelConfig:000000000000012c .L0 
C:\Users\SOLDER~1\AppData\Local\Temp\ccI3TRm9.s:1588   .text.ADC_InjectedChannelConfig:0000000000000132 .L0 
C:\Users\SOLDER~1\AppData\Local\Temp\ccI3TRm9.s:1592   .text.ADC_InjectedChannelConfig:000000000000013c .L0 
C:\Users\SOLDER~1\AppData\Local\Temp\ccI3TRm9.s:1595   .text.ADC_InjectedChannelConfig:0000000000000144 .L0 
C:\Users\SOLDER~1\AppData\Local\Temp\ccI3TRm9.s:1599   .text.ADC_InjectedChannelConfig:000000000000014e .L0 
C:\Users\SOLDER~1\AppData\Local\Temp\ccI3TRm9.s:1601   .text.ADC_InjectedChannelConfig:0000000000000152 .L0 
C:\Users\SOLDER~1\AppData\Local\Temp\ccI3TRm9.s:1607   .text.ADC_InjectedChannelConfig:0000000000000166 .L0 
C:\Users\SOLDER~1\AppData\Local\Temp\ccI3TRm9.s:1611   .text.ADC_InjectedChannelConfig:000000000000016e .L0 
C:\Users\SOLDER~1\AppData\Local\Temp\ccI3TRm9.s:1615   .text.ADC_InjectedChannelConfig:0000000000000174 .L0 
C:\Users\SOLDER~1\AppData\Local\Temp\ccI3TRm9.s:1618   .text.ADC_InjectedChannelConfig:000000000000017c .L0 
C:\Users\SOLDER~1\AppData\Local\Temp\ccI3TRm9.s:1623   .text.ADC_InjectedChannelConfig:000000000000018a .L0 
C:\Users\SOLDER~1\AppData\Local\Temp\ccI3TRm9.s:1627   .text.ADC_InjectedChannelConfig:0000000000000194 .L0 
C:\Users\SOLDER~1\AppData\Local\Temp\ccI3TRm9.s:1629   .text.ADC_InjectedChannelConfig:0000000000000198 .L0 
C:\Users\SOLDER~1\AppData\Local\Temp\ccI3TRm9.s:1630   .text.ADC_InjectedChannelConfig:0000000000000198 .L0 
C:\Users\SOLDER~1\AppData\Local\Temp\ccI3TRm9.s:1632   .text.ADC_InjectedChannelConfig:000000000000019a .L0 
C:\Users\SOLDER~1\AppData\Local\Temp\ccI3TRm9.s:1634   .text.ADC_InjectedChannelConfig:000000000000019c .L0 
GAS LISTING C:\Users\SOLDER~1\AppData\Local\Temp\ccI3TRm9.s 			page 81


C:\Users\SOLDER~1\AppData\Local\Temp\ccI3TRm9.s:1641   .text.ADC_InjectedSequencerLengthConfig:0000000000000000 ADC_InjectedSequencerLengthConfig
C:\Users\SOLDER~1\AppData\Local\Temp\ccI3TRm9.s:1644   .text.ADC_InjectedSequencerLengthConfig:0000000000000000 .L0 
C:\Users\SOLDER~1\AppData\Local\Temp\ccI3TRm9.s:1645   .text.ADC_InjectedSequencerLengthConfig:0000000000000000 $x
C:\Users\SOLDER~1\AppData\Local\Temp\ccI3TRm9.s:1645   .text.ADC_InjectedSequencerLengthConfig:0000000000000000 .L0 
C:\Users\SOLDER~1\AppData\Local\Temp\ccI3TRm9.s:1646   .text.ADC_InjectedSequencerLengthConfig:0000000000000002 .L0 
C:\Users\SOLDER~1\AppData\Local\Temp\ccI3TRm9.s:1648   .text.ADC_InjectedSequencerLengthConfig:0000000000000004 .L0 
C:\Users\SOLDER~1\AppData\Local\Temp\ccI3TRm9.s:1650   .text.ADC_InjectedSequencerLengthConfig:0000000000000006 .L0 
C:\Users\SOLDER~1\AppData\Local\Temp\ccI3TRm9.s:1655   .text.ADC_InjectedSequencerLengthConfig:0000000000000010 .L0 
C:\Users\SOLDER~1\AppData\Local\Temp\ccI3TRm9.s:1657   .text.ADC_InjectedSequencerLengthConfig:0000000000000014 .L0 
C:\Users\SOLDER~1\AppData\Local\Temp\ccI3TRm9.s:1659   .text.ADC_InjectedSequencerLengthConfig:0000000000000018 .L0 
C:\Users\SOLDER~1\AppData\Local\Temp\ccI3TRm9.s:1663   .text.ADC_InjectedSequencerLengthConfig:0000000000000022 .L0 
C:\Users\SOLDER~1\AppData\Local\Temp\ccI3TRm9.s:1669   .text.ADC_InjectedSequencerLengthConfig:0000000000000032 .L0 
C:\Users\SOLDER~1\AppData\Local\Temp\ccI3TRm9.s:1672   .text.ADC_InjectedSequencerLengthConfig:0000000000000038 .L0 
C:\Users\SOLDER~1\AppData\Local\Temp\ccI3TRm9.s:1674   .text.ADC_InjectedSequencerLengthConfig:000000000000003c .L0 
C:\Users\SOLDER~1\AppData\Local\Temp\ccI3TRm9.s:1677   .text.ADC_InjectedSequencerLengthConfig:0000000000000042 .L0 
C:\Users\SOLDER~1\AppData\Local\Temp\ccI3TRm9.s:1681   .text.ADC_InjectedSequencerLengthConfig:000000000000004c .L0 
C:\Users\SOLDER~1\AppData\Local\Temp\ccI3TRm9.s:1685   .text.ADC_InjectedSequencerLengthConfig:0000000000000056 .L0 
C:\Users\SOLDER~1\AppData\Local\Temp\ccI3TRm9.s:1687   .text.ADC_InjectedSequencerLengthConfig:000000000000005a .L0 
C:\Users\SOLDER~1\AppData\Local\Temp\ccI3TRm9.s:1688   .text.ADC_InjectedSequencerLengthConfig:000000000000005a .L0 
C:\Users\SOLDER~1\AppData\Local\Temp\ccI3TRm9.s:1690   .text.ADC_InjectedSequencerLengthConfig:000000000000005c .L0 
C:\Users\SOLDER~1\AppData\Local\Temp\ccI3TRm9.s:1692   .text.ADC_InjectedSequencerLengthConfig:000000000000005e .L0 
C:\Users\SOLDER~1\AppData\Local\Temp\ccI3TRm9.s:1699   .text.ADC_SetInjectedOffset:0000000000000000 ADC_SetInjectedOffset
C:\Users\SOLDER~1\AppData\Local\Temp\ccI3TRm9.s:1702   .text.ADC_SetInjectedOffset:0000000000000000 .L0 
C:\Users\SOLDER~1\AppData\Local\Temp\ccI3TRm9.s:1703   .text.ADC_SetInjectedOffset:0000000000000000 $x
C:\Users\SOLDER~1\AppData\Local\Temp\ccI3TRm9.s:1703   .text.ADC_SetInjectedOffset:0000000000000000 .L0 
C:\Users\SOLDER~1\AppData\Local\Temp\ccI3TRm9.s:1704   .text.ADC_SetInjectedOffset:0000000000000002 .L0 
C:\Users\SOLDER~1\AppData\Local\Temp\ccI3TRm9.s:1706   .text.ADC_SetInjectedOffset:0000000000000004 .L0 
C:\Users\SOLDER~1\AppData\Local\Temp\ccI3TRm9.s:1708   .text.ADC_SetInjectedOffset:0000000000000006 .L0 
C:\Users\SOLDER~1\AppData\Local\Temp\ccI3TRm9.s:1716   .text.ADC_SetInjectedOffset:0000000000000018 .L0 
C:\Users\SOLDER~1\AppData\Local\Temp\ccI3TRm9.s:1718   .text.ADC_SetInjectedOffset:000000000000001c .L0 
C:\Users\SOLDER~1\AppData\Local\Temp\ccI3TRm9.s:1720   .text.ADC_SetInjectedOffset:0000000000000020 .L0 
C:\Users\SOLDER~1\AppData\Local\Temp\ccI3TRm9.s:1722   .text.ADC_SetInjectedOffset:0000000000000024 .L0 
C:\Users\SOLDER~1\AppData\Local\Temp\ccI3TRm9.s:1727   .text.ADC_SetInjectedOffset:0000000000000032 .L0 
C:\Users\SOLDER~1\AppData\Local\Temp\ccI3TRm9.s:1730   .text.ADC_SetInjectedOffset:0000000000000038 .L0 
C:\Users\SOLDER~1\AppData\Local\Temp\ccI3TRm9.s:1732   .text.ADC_SetInjectedOffset:000000000000003c .L0 
C:\Users\SOLDER~1\AppData\Local\Temp\ccI3TRm9.s:1734   .text.ADC_SetInjectedOffset:000000000000003e .L0 
C:\Users\SOLDER~1\AppData\Local\Temp\ccI3TRm9.s:1736   .text.ADC_SetInjectedOffset:0000000000000042 .L0 
C:\Users\SOLDER~1\AppData\Local\Temp\ccI3TRm9.s:1737   .text.ADC_SetInjectedOffset:0000000000000042 .L0 
C:\Users\SOLDER~1\AppData\Local\Temp\ccI3TRm9.s:1739   .text.ADC_SetInjectedOffset:0000000000000044 .L0 
C:\Users\SOLDER~1\AppData\Local\Temp\ccI3TRm9.s:1741   .text.ADC_SetInjectedOffset:0000000000000046 .L0 
C:\Users\SOLDER~1\AppData\Local\Temp\ccI3TRm9.s:1748   .text.ADC_GetInjectedConversionValue:0000000000000000 ADC_GetInjectedConversionValue
C:\Users\SOLDER~1\AppData\Local\Temp\ccI3TRm9.s:1751   .text.ADC_GetInjectedConversionValue:0000000000000000 .L0 
C:\Users\SOLDER~1\AppData\Local\Temp\ccI3TRm9.s:1752   .text.ADC_GetInjectedConversionValue:0000000000000000 $x
C:\Users\SOLDER~1\AppData\Local\Temp\ccI3TRm9.s:1752   .text.ADC_GetInjectedConversionValue:0000000000000000 .L0 
C:\Users\SOLDER~1\AppData\Local\Temp\ccI3TRm9.s:1753   .text.ADC_GetInjectedConversionValue:0000000000000002 .L0 
C:\Users\SOLDER~1\AppData\Local\Temp\ccI3TRm9.s:1755   .text.ADC_GetInjectedConversionValue:0000000000000004 .L0 
C:\Users\SOLDER~1\AppData\Local\Temp\ccI3TRm9.s:1757   .text.ADC_GetInjectedConversionValue:0000000000000006 .L0 
C:\Users\SOLDER~1\AppData\Local\Temp\ccI3TRm9.s:1762   .text.ADC_GetInjectedConversionValue:0000000000000010 .L0 
C:\Users\SOLDER~1\AppData\Local\Temp\ccI3TRm9.s:1764   .text.ADC_GetInjectedConversionValue:0000000000000014 .L0 
C:\Users\SOLDER~1\AppData\Local\Temp\ccI3TRm9.s:1766   .text.ADC_GetInjectedConversionValue:0000000000000018 .L0 
C:\Users\SOLDER~1\AppData\Local\Temp\ccI3TRm9.s:1768   .text.ADC_GetInjectedConversionValue:000000000000001c .L0 
C:\Users\SOLDER~1\AppData\Local\Temp\ccI3TRm9.s:1774   .text.ADC_GetInjectedConversionValue:000000000000002e .L0 
C:\Users\SOLDER~1\AppData\Local\Temp\ccI3TRm9.s:1776   .text.ADC_GetInjectedConversionValue:0000000000000032 .L0 
C:\Users\SOLDER~1\AppData\Local\Temp\ccI3TRm9.s:1778   .text.ADC_GetInjectedConversionValue:0000000000000034 .L0 
C:\Users\SOLDER~1\AppData\Local\Temp\ccI3TRm9.s:1781   .text.ADC_GetInjectedConversionValue:0000000000000038 .L0 
C:\Users\SOLDER~1\AppData\Local\Temp\ccI3TRm9.s:1783   .text.ADC_GetInjectedConversionValue:000000000000003c .L0 
C:\Users\SOLDER~1\AppData\Local\Temp\ccI3TRm9.s:1784   .text.ADC_GetInjectedConversionValue:000000000000003c .L0 
GAS LISTING C:\Users\SOLDER~1\AppData\Local\Temp\ccI3TRm9.s 			page 82


C:\Users\SOLDER~1\AppData\Local\Temp\ccI3TRm9.s:1786   .text.ADC_GetInjectedConversionValue:000000000000003e .L0 
C:\Users\SOLDER~1\AppData\Local\Temp\ccI3TRm9.s:1788   .text.ADC_GetInjectedConversionValue:0000000000000040 .L0 
C:\Users\SOLDER~1\AppData\Local\Temp\ccI3TRm9.s:1795   .text.ADC_AnalogWatchdogCmd:0000000000000000 ADC_AnalogWatchdogCmd
C:\Users\SOLDER~1\AppData\Local\Temp\ccI3TRm9.s:1798   .text.ADC_AnalogWatchdogCmd:0000000000000000 .L0 
C:\Users\SOLDER~1\AppData\Local\Temp\ccI3TRm9.s:1799   .text.ADC_AnalogWatchdogCmd:0000000000000000 $x
C:\Users\SOLDER~1\AppData\Local\Temp\ccI3TRm9.s:1799   .text.ADC_AnalogWatchdogCmd:0000000000000000 .L0 
C:\Users\SOLDER~1\AppData\Local\Temp\ccI3TRm9.s:1800   .text.ADC_AnalogWatchdogCmd:0000000000000002 .L0 
C:\Users\SOLDER~1\AppData\Local\Temp\ccI3TRm9.s:1802   .text.ADC_AnalogWatchdogCmd:0000000000000004 .L0 
C:\Users\SOLDER~1\AppData\Local\Temp\ccI3TRm9.s:1804   .text.ADC_AnalogWatchdogCmd:0000000000000006 .L0 
C:\Users\SOLDER~1\AppData\Local\Temp\ccI3TRm9.s:1808   .text.ADC_AnalogWatchdogCmd:000000000000000e .L0 
C:\Users\SOLDER~1\AppData\Local\Temp\ccI3TRm9.s:1810   .text.ADC_AnalogWatchdogCmd:0000000000000012 .L0 
C:\Users\SOLDER~1\AppData\Local\Temp\ccI3TRm9.s:1814   .text.ADC_AnalogWatchdogCmd:000000000000001c .L0 
C:\Users\SOLDER~1\AppData\Local\Temp\ccI3TRm9.s:1820   .text.ADC_AnalogWatchdogCmd:000000000000002e .L0 
C:\Users\SOLDER~1\AppData\Local\Temp\ccI3TRm9.s:1825   .text.ADC_AnalogWatchdogCmd:000000000000003c .L0 
C:\Users\SOLDER~1\AppData\Local\Temp\ccI3TRm9.s:1829   .text.ADC_AnalogWatchdogCmd:0000000000000046 .L0 
C:\Users\SOLDER~1\AppData\Local\Temp\ccI3TRm9.s:1831   .text.ADC_AnalogWatchdogCmd:000000000000004a .L0 
C:\Users\SOLDER~1\AppData\Local\Temp\ccI3TRm9.s:1832   .text.ADC_AnalogWatchdogCmd:000000000000004a .L0 
C:\Users\SOLDER~1\AppData\Local\Temp\ccI3TRm9.s:1834   .text.ADC_AnalogWatchdogCmd:000000000000004c .L0 
C:\Users\SOLDER~1\AppData\Local\Temp\ccI3TRm9.s:1836   .text.ADC_AnalogWatchdogCmd:000000000000004e .L0 
C:\Users\SOLDER~1\AppData\Local\Temp\ccI3TRm9.s:1843   .text.ADC_AnalogWatchdogThresholdsConfig:0000000000000000 ADC_AnalogWatchdogThresholdsConfig
C:\Users\SOLDER~1\AppData\Local\Temp\ccI3TRm9.s:1846   .text.ADC_AnalogWatchdogThresholdsConfig:0000000000000000 .L0 
C:\Users\SOLDER~1\AppData\Local\Temp\ccI3TRm9.s:1847   .text.ADC_AnalogWatchdogThresholdsConfig:0000000000000000 $x
C:\Users\SOLDER~1\AppData\Local\Temp\ccI3TRm9.s:1847   .text.ADC_AnalogWatchdogThresholdsConfig:0000000000000000 .L0 
C:\Users\SOLDER~1\AppData\Local\Temp\ccI3TRm9.s:1848   .text.ADC_AnalogWatchdogThresholdsConfig:0000000000000002 .L0 
C:\Users\SOLDER~1\AppData\Local\Temp\ccI3TRm9.s:1850   .text.ADC_AnalogWatchdogThresholdsConfig:0000000000000004 .L0 
C:\Users\SOLDER~1\AppData\Local\Temp\ccI3TRm9.s:1852   .text.ADC_AnalogWatchdogThresholdsConfig:0000000000000006 .L0 
C:\Users\SOLDER~1\AppData\Local\Temp\ccI3TRm9.s:1860   .text.ADC_AnalogWatchdogThresholdsConfig:0000000000000018 .L0 
C:\Users\SOLDER~1\AppData\Local\Temp\ccI3TRm9.s:1864   .text.ADC_AnalogWatchdogThresholdsConfig:0000000000000022 .L0 
C:\Users\SOLDER~1\AppData\Local\Temp\ccI3TRm9.s:1868   .text.ADC_AnalogWatchdogThresholdsConfig:000000000000002c .L0 
C:\Users\SOLDER~1\AppData\Local\Temp\ccI3TRm9.s:1870   .text.ADC_AnalogWatchdogThresholdsConfig:0000000000000030 .L0 
C:\Users\SOLDER~1\AppData\Local\Temp\ccI3TRm9.s:1871   .text.ADC_AnalogWatchdogThresholdsConfig:0000000000000030 .L0 
C:\Users\SOLDER~1\AppData\Local\Temp\ccI3TRm9.s:1873   .text.ADC_AnalogWatchdogThresholdsConfig:0000000000000032 .L0 
C:\Users\SOLDER~1\AppData\Local\Temp\ccI3TRm9.s:1875   .text.ADC_AnalogWatchdogThresholdsConfig:0000000000000034 .L0 
C:\Users\SOLDER~1\AppData\Local\Temp\ccI3TRm9.s:1882   .text.ADC_AnalogWatchdogSingleChannelConfig:0000000000000000 ADC_AnalogWatchdogSingleChannelConfig
C:\Users\SOLDER~1\AppData\Local\Temp\ccI3TRm9.s:1885   .text.ADC_AnalogWatchdogSingleChannelConfig:0000000000000000 .L0 
C:\Users\SOLDER~1\AppData\Local\Temp\ccI3TRm9.s:1886   .text.ADC_AnalogWatchdogSingleChannelConfig:0000000000000000 $x
C:\Users\SOLDER~1\AppData\Local\Temp\ccI3TRm9.s:1886   .text.ADC_AnalogWatchdogSingleChannelConfig:0000000000000000 .L0 
C:\Users\SOLDER~1\AppData\Local\Temp\ccI3TRm9.s:1887   .text.ADC_AnalogWatchdogSingleChannelConfig:0000000000000002 .L0 
C:\Users\SOLDER~1\AppData\Local\Temp\ccI3TRm9.s:1889   .text.ADC_AnalogWatchdogSingleChannelConfig:0000000000000004 .L0 
C:\Users\SOLDER~1\AppData\Local\Temp\ccI3TRm9.s:1891   .text.ADC_AnalogWatchdogSingleChannelConfig:0000000000000006 .L0 
C:\Users\SOLDER~1\AppData\Local\Temp\ccI3TRm9.s:1896   .text.ADC_AnalogWatchdogSingleChannelConfig:0000000000000010 .L0 
C:\Users\SOLDER~1\AppData\Local\Temp\ccI3TRm9.s:1898   .text.ADC_AnalogWatchdogSingleChannelConfig:0000000000000014 .L0 
C:\Users\SOLDER~1\AppData\Local\Temp\ccI3TRm9.s:1902   .text.ADC_AnalogWatchdogSingleChannelConfig:000000000000001e .L0 
C:\Users\SOLDER~1\AppData\Local\Temp\ccI3TRm9.s:1906   .text.ADC_AnalogWatchdogSingleChannelConfig:0000000000000028 .L0 
C:\Users\SOLDER~1\AppData\Local\Temp\ccI3TRm9.s:1911   .text.ADC_AnalogWatchdogSingleChannelConfig:0000000000000036 .L0 
C:\Users\SOLDER~1\AppData\Local\Temp\ccI3TRm9.s:1915   .text.ADC_AnalogWatchdogSingleChannelConfig:0000000000000040 .L0 
C:\Users\SOLDER~1\AppData\Local\Temp\ccI3TRm9.s:1917   .text.ADC_AnalogWatchdogSingleChannelConfig:0000000000000044 .L0 
C:\Users\SOLDER~1\AppData\Local\Temp\ccI3TRm9.s:1918   .text.ADC_AnalogWatchdogSingleChannelConfig:0000000000000044 .L0 
C:\Users\SOLDER~1\AppData\Local\Temp\ccI3TRm9.s:1920   .text.ADC_AnalogWatchdogSingleChannelConfig:0000000000000046 .L0 
C:\Users\SOLDER~1\AppData\Local\Temp\ccI3TRm9.s:1922   .text.ADC_AnalogWatchdogSingleChannelConfig:0000000000000048 .L0 
C:\Users\SOLDER~1\AppData\Local\Temp\ccI3TRm9.s:1929   .text.ADC_TempSensorVrefintCmd:0000000000000000 ADC_TempSensorVrefintCmd
C:\Users\SOLDER~1\AppData\Local\Temp\ccI3TRm9.s:1932   .text.ADC_TempSensorVrefintCmd:0000000000000000 .L0 
C:\Users\SOLDER~1\AppData\Local\Temp\ccI3TRm9.s:1933   .text.ADC_TempSensorVrefintCmd:0000000000000000 $x
C:\Users\SOLDER~1\AppData\Local\Temp\ccI3TRm9.s:1933   .text.ADC_TempSensorVrefintCmd:0000000000000000 .L0 
C:\Users\SOLDER~1\AppData\Local\Temp\ccI3TRm9.s:1934   .text.ADC_TempSensorVrefintCmd:0000000000000002 .L0 
C:\Users\SOLDER~1\AppData\Local\Temp\ccI3TRm9.s:1936   .text.ADC_TempSensorVrefintCmd:0000000000000004 .L0 
C:\Users\SOLDER~1\AppData\Local\Temp\ccI3TRm9.s:1938   .text.ADC_TempSensorVrefintCmd:0000000000000006 .L0 
GAS LISTING C:\Users\SOLDER~1\AppData\Local\Temp\ccI3TRm9.s 			page 83


C:\Users\SOLDER~1\AppData\Local\Temp\ccI3TRm9.s:1941   .text.ADC_TempSensorVrefintCmd:000000000000000a .L0 
C:\Users\SOLDER~1\AppData\Local\Temp\ccI3TRm9.s:1944   .text.ADC_TempSensorVrefintCmd:0000000000000010 .L0 
C:\Users\SOLDER~1\AppData\Local\Temp\ccI3TRm9.s:1950   .text.ADC_TempSensorVrefintCmd:0000000000000022 .L0 
C:\Users\SOLDER~1\AppData\Local\Temp\ccI3TRm9.s:1954   .text.ADC_TempSensorVrefintCmd:000000000000002a .L0 
C:\Users\SOLDER~1\AppData\Local\Temp\ccI3TRm9.s:1957   .text.ADC_TempSensorVrefintCmd:000000000000002c .L0 
C:\Users\SOLDER~1\AppData\Local\Temp\ccI3TRm9.s:1963   .text.ADC_TempSensorVrefintCmd:000000000000003e .L0 
C:\Users\SOLDER~1\AppData\Local\Temp\ccI3TRm9.s:1969   .text.ADC_TempSensorVrefintCmd:0000000000000048 .L0 
C:\Users\SOLDER~1\AppData\Local\Temp\ccI3TRm9.s:1971   .text.ADC_TempSensorVrefintCmd:000000000000004c .L0 
C:\Users\SOLDER~1\AppData\Local\Temp\ccI3TRm9.s:1972   .text.ADC_TempSensorVrefintCmd:000000000000004c .L0 
C:\Users\SOLDER~1\AppData\Local\Temp\ccI3TRm9.s:1974   .text.ADC_TempSensorVrefintCmd:000000000000004e .L0 
C:\Users\SOLDER~1\AppData\Local\Temp\ccI3TRm9.s:1976   .text.ADC_TempSensorVrefintCmd:0000000000000050 .L0 
C:\Users\SOLDER~1\AppData\Local\Temp\ccI3TRm9.s:1983   .text.ADC_GetFlagStatus:0000000000000000 ADC_GetFlagStatus
C:\Users\SOLDER~1\AppData\Local\Temp\ccI3TRm9.s:1986   .text.ADC_GetFlagStatus:0000000000000000 .L0 
C:\Users\SOLDER~1\AppData\Local\Temp\ccI3TRm9.s:1987   .text.ADC_GetFlagStatus:0000000000000000 $x
C:\Users\SOLDER~1\AppData\Local\Temp\ccI3TRm9.s:1987   .text.ADC_GetFlagStatus:0000000000000000 .L0 
C:\Users\SOLDER~1\AppData\Local\Temp\ccI3TRm9.s:1988   .text.ADC_GetFlagStatus:0000000000000002 .L0 
C:\Users\SOLDER~1\AppData\Local\Temp\ccI3TRm9.s:1990   .text.ADC_GetFlagStatus:0000000000000004 .L0 
C:\Users\SOLDER~1\AppData\Local\Temp\ccI3TRm9.s:1992   .text.ADC_GetFlagStatus:0000000000000006 .L0 
C:\Users\SOLDER~1\AppData\Local\Temp\ccI3TRm9.s:1997   .text.ADC_GetFlagStatus:0000000000000010 .L0 
C:\Users\SOLDER~1\AppData\Local\Temp\ccI3TRm9.s:1999   .text.ADC_GetFlagStatus:0000000000000014 .L0 
C:\Users\SOLDER~1\AppData\Local\Temp\ccI3TRm9.s:2002   .text.ADC_GetFlagStatus:000000000000001a .L0 
C:\Users\SOLDER~1\AppData\Local\Temp\ccI3TRm9.s:2005   .text.ADC_GetFlagStatus:0000000000000020 .L0 
C:\Users\SOLDER~1\AppData\Local\Temp\ccI3TRm9.s:2007   .text.ADC_GetFlagStatus:0000000000000022 .L0 
C:\Users\SOLDER~1\AppData\Local\Temp\ccI3TRm9.s:2012   .text.ADC_GetFlagStatus:000000000000002a .L0 
C:\Users\SOLDER~1\AppData\Local\Temp\ccI3TRm9.s:2015   .text.ADC_GetFlagStatus:000000000000002e .L0 
C:\Users\SOLDER~1\AppData\Local\Temp\ccI3TRm9.s:2017   .text.ADC_GetFlagStatus:0000000000000032 .L0 
C:\Users\SOLDER~1\AppData\Local\Temp\ccI3TRm9.s:2019   .text.ADC_GetFlagStatus:0000000000000036 .L0 
C:\Users\SOLDER~1\AppData\Local\Temp\ccI3TRm9.s:2020   .text.ADC_GetFlagStatus:0000000000000036 .L0 
C:\Users\SOLDER~1\AppData\Local\Temp\ccI3TRm9.s:2022   .text.ADC_GetFlagStatus:0000000000000038 .L0 
C:\Users\SOLDER~1\AppData\Local\Temp\ccI3TRm9.s:2024   .text.ADC_GetFlagStatus:000000000000003a .L0 
C:\Users\SOLDER~1\AppData\Local\Temp\ccI3TRm9.s:2031   .text.ADC_ClearFlag:0000000000000000 ADC_ClearFlag
C:\Users\SOLDER~1\AppData\Local\Temp\ccI3TRm9.s:2034   .text.ADC_ClearFlag:0000000000000000 .L0 
C:\Users\SOLDER~1\AppData\Local\Temp\ccI3TRm9.s:2035   .text.ADC_ClearFlag:0000000000000000 $x
C:\Users\SOLDER~1\AppData\Local\Temp\ccI3TRm9.s:2035   .text.ADC_ClearFlag:0000000000000000 .L0 
C:\Users\SOLDER~1\AppData\Local\Temp\ccI3TRm9.s:2036   .text.ADC_ClearFlag:0000000000000002 .L0 
C:\Users\SOLDER~1\AppData\Local\Temp\ccI3TRm9.s:2038   .text.ADC_ClearFlag:0000000000000004 .L0 
C:\Users\SOLDER~1\AppData\Local\Temp\ccI3TRm9.s:2040   .text.ADC_ClearFlag:0000000000000006 .L0 
C:\Users\SOLDER~1\AppData\Local\Temp\ccI3TRm9.s:2045   .text.ADC_ClearFlag:0000000000000010 .L0 
C:\Users\SOLDER~1\AppData\Local\Temp\ccI3TRm9.s:2047   .text.ADC_ClearFlag:0000000000000014 .L0 
C:\Users\SOLDER~1\AppData\Local\Temp\ccI3TRm9.s:2049   .text.ADC_ClearFlag:0000000000000018 .L0 
C:\Users\SOLDER~1\AppData\Local\Temp\ccI3TRm9.s:2052   .text.ADC_ClearFlag:000000000000001e .L0 
C:\Users\SOLDER~1\AppData\Local\Temp\ccI3TRm9.s:2054   .text.ADC_ClearFlag:0000000000000022 .L0 
C:\Users\SOLDER~1\AppData\Local\Temp\ccI3TRm9.s:2055   .text.ADC_ClearFlag:0000000000000022 .L0 
C:\Users\SOLDER~1\AppData\Local\Temp\ccI3TRm9.s:2057   .text.ADC_ClearFlag:0000000000000024 .L0 
C:\Users\SOLDER~1\AppData\Local\Temp\ccI3TRm9.s:2059   .text.ADC_ClearFlag:0000000000000026 .L0 
C:\Users\SOLDER~1\AppData\Local\Temp\ccI3TRm9.s:2066   .text.ADC_GetITStatus:0000000000000000 ADC_GetITStatus
C:\Users\SOLDER~1\AppData\Local\Temp\ccI3TRm9.s:2069   .text.ADC_GetITStatus:0000000000000000 .L0 
C:\Users\SOLDER~1\AppData\Local\Temp\ccI3TRm9.s:2070   .text.ADC_GetITStatus:0000000000000000 $x
C:\Users\SOLDER~1\AppData\Local\Temp\ccI3TRm9.s:2070   .text.ADC_GetITStatus:0000000000000000 .L0 
C:\Users\SOLDER~1\AppData\Local\Temp\ccI3TRm9.s:2071   .text.ADC_GetITStatus:0000000000000002 .L0 
C:\Users\SOLDER~1\AppData\Local\Temp\ccI3TRm9.s:2073   .text.ADC_GetITStatus:0000000000000004 .L0 
C:\Users\SOLDER~1\AppData\Local\Temp\ccI3TRm9.s:2075   .text.ADC_GetITStatus:0000000000000006 .L0 
C:\Users\SOLDER~1\AppData\Local\Temp\ccI3TRm9.s:2080   .text.ADC_GetITStatus:0000000000000010 .L0 
C:\Users\SOLDER~1\AppData\Local\Temp\ccI3TRm9.s:2082   .text.ADC_GetITStatus:0000000000000014 .L0 
C:\Users\SOLDER~1\AppData\Local\Temp\ccI3TRm9.s:2084   .text.ADC_GetITStatus:0000000000000018 .L0 
C:\Users\SOLDER~1\AppData\Local\Temp\ccI3TRm9.s:2086   .text.ADC_GetITStatus:000000000000001c .L0 
C:\Users\SOLDER~1\AppData\Local\Temp\ccI3TRm9.s:2091   .text.ADC_GetITStatus:0000000000000026 .L0 
GAS LISTING C:\Users\SOLDER~1\AppData\Local\Temp\ccI3TRm9.s 			page 84


C:\Users\SOLDER~1\AppData\Local\Temp\ccI3TRm9.s:2093   .text.ADC_GetITStatus:000000000000002a .L0 
C:\Users\SOLDER~1\AppData\Local\Temp\ccI3TRm9.s:2096   .text.ADC_GetITStatus:0000000000000030 .L0 
C:\Users\SOLDER~1\AppData\Local\Temp\ccI3TRm9.s:2099   .text.ADC_GetITStatus:0000000000000038 .L0 
C:\Users\SOLDER~1\AppData\Local\Temp\ccI3TRm9.s:2102   .text.ADC_GetITStatus:000000000000003e .L0 
C:\Users\SOLDER~1\AppData\Local\Temp\ccI3TRm9.s:2105   .text.ADC_GetITStatus:0000000000000044 .L0 
C:\Users\SOLDER~1\AppData\Local\Temp\ccI3TRm9.s:2108   .text.ADC_GetITStatus:000000000000004a .L0 
C:\Users\SOLDER~1\AppData\Local\Temp\ccI3TRm9.s:2110   .text.ADC_GetITStatus:000000000000004c .L0 
C:\Users\SOLDER~1\AppData\Local\Temp\ccI3TRm9.s:2113   .text.ADC_GetITStatus:0000000000000052 .L0 
C:\Users\SOLDER~1\AppData\Local\Temp\ccI3TRm9.s:2118   .text.ADC_GetITStatus:000000000000005a .L0 
C:\Users\SOLDER~1\AppData\Local\Temp\ccI3TRm9.s:2121   .text.ADC_GetITStatus:000000000000005e .L0 
C:\Users\SOLDER~1\AppData\Local\Temp\ccI3TRm9.s:2123   .text.ADC_GetITStatus:0000000000000062 .L0 
C:\Users\SOLDER~1\AppData\Local\Temp\ccI3TRm9.s:2125   .text.ADC_GetITStatus:0000000000000066 .L0 
C:\Users\SOLDER~1\AppData\Local\Temp\ccI3TRm9.s:2126   .text.ADC_GetITStatus:0000000000000066 .L0 
C:\Users\SOLDER~1\AppData\Local\Temp\ccI3TRm9.s:2128   .text.ADC_GetITStatus:0000000000000068 .L0 
C:\Users\SOLDER~1\AppData\Local\Temp\ccI3TRm9.s:2130   .text.ADC_GetITStatus:000000000000006a .L0 
C:\Users\SOLDER~1\AppData\Local\Temp\ccI3TRm9.s:2137   .text.ADC_ClearITPendingBit:0000000000000000 ADC_ClearITPendingBit
C:\Users\SOLDER~1\AppData\Local\Temp\ccI3TRm9.s:2140   .text.ADC_ClearITPendingBit:0000000000000000 .L0 
C:\Users\SOLDER~1\AppData\Local\Temp\ccI3TRm9.s:2141   .text.ADC_ClearITPendingBit:0000000000000000 $x
C:\Users\SOLDER~1\AppData\Local\Temp\ccI3TRm9.s:2141   .text.ADC_ClearITPendingBit:0000000000000000 .L0 
C:\Users\SOLDER~1\AppData\Local\Temp\ccI3TRm9.s:2142   .text.ADC_ClearITPendingBit:0000000000000002 .L0 
C:\Users\SOLDER~1\AppData\Local\Temp\ccI3TRm9.s:2144   .text.ADC_ClearITPendingBit:0000000000000004 .L0 
C:\Users\SOLDER~1\AppData\Local\Temp\ccI3TRm9.s:2146   .text.ADC_ClearITPendingBit:0000000000000006 .L0 
C:\Users\SOLDER~1\AppData\Local\Temp\ccI3TRm9.s:2151   .text.ADC_ClearITPendingBit:0000000000000010 .L0 
C:\Users\SOLDER~1\AppData\Local\Temp\ccI3TRm9.s:2153   .text.ADC_ClearITPendingBit:0000000000000014 .L0 
C:\Users\SOLDER~1\AppData\Local\Temp\ccI3TRm9.s:2158   .text.ADC_ClearITPendingBit:000000000000001e .L0 
C:\Users\SOLDER~1\AppData\Local\Temp\ccI3TRm9.s:2160   .text.ADC_ClearITPendingBit:0000000000000022 .L0 
C:\Users\SOLDER~1\AppData\Local\Temp\ccI3TRm9.s:2162   .text.ADC_ClearITPendingBit:0000000000000026 .L0 
C:\Users\SOLDER~1\AppData\Local\Temp\ccI3TRm9.s:2164   .text.ADC_ClearITPendingBit:000000000000002a .L0 
C:\Users\SOLDER~1\AppData\Local\Temp\ccI3TRm9.s:2167   .text.ADC_ClearITPendingBit:0000000000000030 .L0 
C:\Users\SOLDER~1\AppData\Local\Temp\ccI3TRm9.s:2169   .text.ADC_ClearITPendingBit:0000000000000034 .L0 
C:\Users\SOLDER~1\AppData\Local\Temp\ccI3TRm9.s:2170   .text.ADC_ClearITPendingBit:0000000000000034 .L0 
C:\Users\SOLDER~1\AppData\Local\Temp\ccI3TRm9.s:2172   .text.ADC_ClearITPendingBit:0000000000000036 .L0 
C:\Users\SOLDER~1\AppData\Local\Temp\ccI3TRm9.s:2174   .text.ADC_ClearITPendingBit:0000000000000038 .L0 
C:\Users\SOLDER~1\AppData\Local\Temp\ccI3TRm9.s:2181   .text.TempSensor_Volt_To_Temper:0000000000000000 TempSensor_Volt_To_Temper
C:\Users\SOLDER~1\AppData\Local\Temp\ccI3TRm9.s:2184   .text.TempSensor_Volt_To_Temper:0000000000000000 .L0 
C:\Users\SOLDER~1\AppData\Local\Temp\ccI3TRm9.s:2185   .text.TempSensor_Volt_To_Temper:0000000000000000 $x
C:\Users\SOLDER~1\AppData\Local\Temp\ccI3TRm9.s:2185   .text.TempSensor_Volt_To_Temper:0000000000000000 .L0 
C:\Users\SOLDER~1\AppData\Local\Temp\ccI3TRm9.s:2186   .text.TempSensor_Volt_To_Temper:0000000000000002 .L0 
C:\Users\SOLDER~1\AppData\Local\Temp\ccI3TRm9.s:2188   .text.TempSensor_Volt_To_Temper:0000000000000004 .L0 
C:\Users\SOLDER~1\AppData\Local\Temp\ccI3TRm9.s:2190   .text.TempSensor_Volt_To_Temper:0000000000000006 .L0 
C:\Users\SOLDER~1\AppData\Local\Temp\ccI3TRm9.s:2193   .text.TempSensor_Volt_To_Temper:000000000000000a .L0 
C:\Users\SOLDER~1\AppData\Local\Temp\ccI3TRm9.s:2196   .text.TempSensor_Volt_To_Temper:0000000000000012 .L0 
C:\Users\SOLDER~1\AppData\Local\Temp\ccI3TRm9.s:2200   .text.TempSensor_Volt_To_Temper:000000000000001c .L0 
C:\Users\SOLDER~1\AppData\Local\Temp\ccI3TRm9.s:2202   .text.TempSensor_Volt_To_Temper:000000000000001e .L0 
C:\Users\SOLDER~1\AppData\Local\Temp\ccI3TRm9.s:2207   .text.TempSensor_Volt_To_Temper:0000000000000028 .L0 
C:\Users\SOLDER~1\AppData\Local\Temp\ccI3TRm9.s:2211   .text.TempSensor_Volt_To_Temper:0000000000000032 .L0 
C:\Users\SOLDER~1\AppData\Local\Temp\ccI3TRm9.s:2213   .text.TempSensor_Volt_To_Temper:0000000000000034 .L0 
C:\Users\SOLDER~1\AppData\Local\Temp\ccI3TRm9.s:2215   .text.TempSensor_Volt_To_Temper:0000000000000038 .L0 
C:\Users\SOLDER~1\AppData\Local\Temp\ccI3TRm9.s:2219   .text.TempSensor_Volt_To_Temper:0000000000000042 .L0 
C:\Users\SOLDER~1\AppData\Local\Temp\ccI3TRm9.s:2225   .text.TempSensor_Volt_To_Temper:000000000000004c .L0 
C:\Users\SOLDER~1\AppData\Local\Temp\ccI3TRm9.s:2228   .text.TempSensor_Volt_To_Temper:0000000000000052 .L0 
C:\Users\SOLDER~1\AppData\Local\Temp\ccI3TRm9.s:2230   .text.TempSensor_Volt_To_Temper:0000000000000054 .L0 
C:\Users\SOLDER~1\AppData\Local\Temp\ccI3TRm9.s:2233   .text.TempSensor_Volt_To_Temper:000000000000005c .L0 
C:\Users\SOLDER~1\AppData\Local\Temp\ccI3TRm9.s:2237   .text.TempSensor_Volt_To_Temper:0000000000000068 .L0 
C:\Users\SOLDER~1\AppData\Local\Temp\ccI3TRm9.s:2239   .text.TempSensor_Volt_To_Temper:000000000000006c .L0 
C:\Users\SOLDER~1\AppData\Local\Temp\ccI3TRm9.s:2241   .text.TempSensor_Volt_To_Temper:0000000000000070 .L0 
C:\Users\SOLDER~1\AppData\Local\Temp\ccI3TRm9.s:2242   .text.TempSensor_Volt_To_Temper:0000000000000070 .L0 
GAS LISTING C:\Users\SOLDER~1\AppData\Local\Temp\ccI3TRm9.s 			page 85


C:\Users\SOLDER~1\AppData\Local\Temp\ccI3TRm9.s:2244   .text.TempSensor_Volt_To_Temper:0000000000000072 .L0 
C:\Users\SOLDER~1\AppData\Local\Temp\ccI3TRm9.s:2246   .text.TempSensor_Volt_To_Temper:0000000000000074 .L0 
C:\Users\SOLDER~1\AppData\Local\Temp\ccI3TRm9.s:2253   .text.ADC_BufferCmd:0000000000000000 ADC_BufferCmd
C:\Users\SOLDER~1\AppData\Local\Temp\ccI3TRm9.s:2256   .text.ADC_BufferCmd:0000000000000000 .L0 
C:\Users\SOLDER~1\AppData\Local\Temp\ccI3TRm9.s:2257   .text.ADC_BufferCmd:0000000000000000 $x
C:\Users\SOLDER~1\AppData\Local\Temp\ccI3TRm9.s:2257   .text.ADC_BufferCmd:0000000000000000 .L0 
C:\Users\SOLDER~1\AppData\Local\Temp\ccI3TRm9.s:2258   .text.ADC_BufferCmd:0000000000000002 .L0 
C:\Users\SOLDER~1\AppData\Local\Temp\ccI3TRm9.s:2260   .text.ADC_BufferCmd:0000000000000004 .L0 
C:\Users\SOLDER~1\AppData\Local\Temp\ccI3TRm9.s:2262   .text.ADC_BufferCmd:0000000000000006 .L0 
C:\Users\SOLDER~1\AppData\Local\Temp\ccI3TRm9.s:2266   .text.ADC_BufferCmd:000000000000000e .L0 
C:\Users\SOLDER~1\AppData\Local\Temp\ccI3TRm9.s:2269   .text.ADC_BufferCmd:0000000000000014 .L0 
C:\Users\SOLDER~1\AppData\Local\Temp\ccI3TRm9.s:2272   .text.ADC_BufferCmd:000000000000001a .L0 
C:\Users\SOLDER~1\AppData\Local\Temp\ccI3TRm9.s:2277   .text.ADC_BufferCmd:0000000000000026 .L0 
C:\Users\SOLDER~1\AppData\Local\Temp\ccI3TRm9.s:2280   .text.ADC_BufferCmd:0000000000000028 .L0 
C:\Users\SOLDER~1\AppData\Local\Temp\ccI3TRm9.s:2283   .text.ADC_BufferCmd:000000000000002e .L0 
C:\Users\SOLDER~1\AppData\Local\Temp\ccI3TRm9.s:2290   .text.ADC_BufferCmd:000000000000003c .L0 
C:\Users\SOLDER~1\AppData\Local\Temp\ccI3TRm9.s:2292   .text.ADC_BufferCmd:0000000000000040 .L0 
C:\Users\SOLDER~1\AppData\Local\Temp\ccI3TRm9.s:2293   .text.ADC_BufferCmd:0000000000000040 .L0 
C:\Users\SOLDER~1\AppData\Local\Temp\ccI3TRm9.s:2295   .text.ADC_BufferCmd:0000000000000042 .L0 
C:\Users\SOLDER~1\AppData\Local\Temp\ccI3TRm9.s:2297   .text.ADC_BufferCmd:0000000000000044 .L0 
C:\Users\SOLDER~1\AppData\Local\Temp\ccI3TRm9.s:2304   .text.Get_CalibrationValue:0000000000000000 Get_CalibrationValue
C:\Users\SOLDER~1\AppData\Local\Temp\ccI3TRm9.s:2307   .text.Get_CalibrationValue:0000000000000000 .L0 
C:\Users\SOLDER~1\AppData\Local\Temp\ccI3TRm9.s:2308   .text.Get_CalibrationValue:0000000000000000 $x
C:\Users\SOLDER~1\AppData\Local\Temp\ccI3TRm9.s:2308   .text.Get_CalibrationValue:0000000000000000 .L0 
C:\Users\SOLDER~1\AppData\Local\Temp\ccI3TRm9.s:2309   .text.Get_CalibrationValue:0000000000000002 .L0 
C:\Users\SOLDER~1\AppData\Local\Temp\ccI3TRm9.s:2312   .text.Get_CalibrationValue:0000000000000006 .L0 
C:\Users\SOLDER~1\AppData\Local\Temp\ccI3TRm9.s:2313   .text.Get_CalibrationValue:0000000000000006 .L0 
C:\Users\SOLDER~1\AppData\Local\Temp\ccI3TRm9.s:2315   .text.Get_CalibrationValue:0000000000000008 .L0 
C:\Users\SOLDER~1\AppData\Local\Temp\ccI3TRm9.s:2318   .text.Get_CalibrationValue:000000000000000c .L0 
C:\Users\SOLDER~1\AppData\Local\Temp\ccI3TRm9.s:2320   .text.Get_CalibrationValue:0000000000000010 .L0 
C:\Users\SOLDER~1\AppData\Local\Temp\ccI3TRm9.s:2323   .text.Get_CalibrationValue:0000000000000012 .L0 
C:\Users\SOLDER~1\AppData\Local\Temp\ccI3TRm9.s:2326   .text.Get_CalibrationValue:000000000000001e .L0 
C:\Users\SOLDER~1\AppData\Local\Temp\ccI3TRm9.s:2329   .text.Get_CalibrationValue:0000000000000020 .L0 
C:\Users\SOLDER~1\AppData\Local\Temp\ccI3TRm9.s:2334   .text.Get_CalibrationValue:0000000000000030 .L0 
C:\Users\SOLDER~1\AppData\Local\Temp\ccI3TRm9.s:2337   .text.Get_CalibrationValue:000000000000003c .L0 
C:\Users\SOLDER~1\AppData\Local\Temp\ccI3TRm9.s:2340   .text.Get_CalibrationValue:000000000000003e .L0 
C:\Users\SOLDER~1\AppData\Local\Temp\ccI3TRm9.s:2345   .text.Get_CalibrationValue:000000000000004e .L0 
C:\Users\SOLDER~1\AppData\Local\Temp\ccI3TRm9.s:2348   .text.Get_CalibrationValue:0000000000000054 .L0 
C:\Users\SOLDER~1\AppData\Local\Temp\ccI3TRm9.s:2351   .text.Get_CalibrationValue:000000000000005c .L0 
C:\Users\SOLDER~1\AppData\Local\Temp\ccI3TRm9.s:2358   .text.Get_CalibrationValue:000000000000006a .L0 
C:\Users\SOLDER~1\AppData\Local\Temp\ccI3TRm9.s:2365   .text.Get_CalibrationValue:000000000000007c .L0 
C:\Users\SOLDER~1\AppData\Local\Temp\ccI3TRm9.s:2370   .text.Get_CalibrationValue:000000000000008a .L0 
C:\Users\SOLDER~1\AppData\Local\Temp\ccI3TRm9.s:2372   .text.Get_CalibrationValue:000000000000008e .L0 
C:\Users\SOLDER~1\AppData\Local\Temp\ccI3TRm9.s:2375   .text.Get_CalibrationValue:0000000000000090 .L0 
C:\Users\SOLDER~1\AppData\Local\Temp\ccI3TRm9.s:2377   .text.Get_CalibrationValue:0000000000000094 .L0 
C:\Users\SOLDER~1\AppData\Local\Temp\ccI3TRm9.s:2380   .text.Get_CalibrationValue:0000000000000096 .L0 
C:\Users\SOLDER~1\AppData\Local\Temp\ccI3TRm9.s:2387   .text.Get_CalibrationValue:00000000000000a8 .L0 
C:\Users\SOLDER~1\AppData\Local\Temp\ccI3TRm9.s:2391   .text.Get_CalibrationValue:00000000000000b2 .L0 
C:\Users\SOLDER~1\AppData\Local\Temp\ccI3TRm9.s:2396   .text.Get_CalibrationValue:00000000000000bc .L0 
C:\Users\SOLDER~1\AppData\Local\Temp\ccI3TRm9.s:2398   .text.Get_CalibrationValue:00000000000000c0 .L0 
C:\Users\SOLDER~1\AppData\Local\Temp\ccI3TRm9.s:2405   .text.Get_CalibrationValue:00000000000000d2 .L0 
C:\Users\SOLDER~1\AppData\Local\Temp\ccI3TRm9.s:2407   .text.Get_CalibrationValue:00000000000000d6 .L0 
C:\Users\SOLDER~1\AppData\Local\Temp\ccI3TRm9.s:2411   .text.Get_CalibrationValue:00000000000000e0 .L0 
C:\Users\SOLDER~1\AppData\Local\Temp\ccI3TRm9.s:2415   .text.Get_CalibrationValue:00000000000000ea .L0 
C:\Users\SOLDER~1\AppData\Local\Temp\ccI3TRm9.s:2420   .text.Get_CalibrationValue:00000000000000f4 .L0 
C:\Users\SOLDER~1\AppData\Local\Temp\ccI3TRm9.s:2425   .text.Get_CalibrationValue:0000000000000100 .L0 
C:\Users\SOLDER~1\AppData\Local\Temp\ccI3TRm9.s:2429   .text.Get_CalibrationValue:000000000000010a .L0 
GAS LISTING C:\Users\SOLDER~1\AppData\Local\Temp\ccI3TRm9.s 			page 86


C:\Users\SOLDER~1\AppData\Local\Temp\ccI3TRm9.s:2438   .text.Get_CalibrationValue:000000000000011c .L0 
C:\Users\SOLDER~1\AppData\Local\Temp\ccI3TRm9.s:2445   .text.Get_CalibrationValue:000000000000012e .L0 
C:\Users\SOLDER~1\AppData\Local\Temp\ccI3TRm9.s:2450   .text.Get_CalibrationValue:000000000000013c .L0 
C:\Users\SOLDER~1\AppData\Local\Temp\ccI3TRm9.s:2457   .text.Get_CalibrationValue:000000000000014e .L0 
C:\Users\SOLDER~1\AppData\Local\Temp\ccI3TRm9.s:2462   .text.Get_CalibrationValue:000000000000015c .L0 
C:\Users\SOLDER~1\AppData\Local\Temp\ccI3TRm9.s:2464   .text.Get_CalibrationValue:0000000000000160 .L0 
C:\Users\SOLDER~1\AppData\Local\Temp\ccI3TRm9.s:2466   .text.Get_CalibrationValue:0000000000000164 .L0 
C:\Users\SOLDER~1\AppData\Local\Temp\ccI3TRm9.s:2468   .text.Get_CalibrationValue:0000000000000168 .L0 
C:\Users\SOLDER~1\AppData\Local\Temp\ccI3TRm9.s:2471   .text.Get_CalibrationValue:000000000000016a .L0 
C:\Users\SOLDER~1\AppData\Local\Temp\ccI3TRm9.s:2475   .text.Get_CalibrationValue:0000000000000174 .L0 
C:\Users\SOLDER~1\AppData\Local\Temp\ccI3TRm9.s:2480   .text.Get_CalibrationValue:000000000000017e .L0 
C:\Users\SOLDER~1\AppData\Local\Temp\ccI3TRm9.s:2483   .text.Get_CalibrationValue:0000000000000186 .L0 
C:\Users\SOLDER~1\AppData\Local\Temp\ccI3TRm9.s:2487   .text.Get_CalibrationValue:0000000000000190 .L0 
C:\Users\SOLDER~1\AppData\Local\Temp\ccI3TRm9.s:2492   .text.Get_CalibrationValue:000000000000019a .L0 
C:\Users\SOLDER~1\AppData\Local\Temp\ccI3TRm9.s:2500   .text.Get_CalibrationValue:00000000000001ac .L0 
C:\Users\SOLDER~1\AppData\Local\Temp\ccI3TRm9.s:2507   .text.Get_CalibrationValue:00000000000001be .L0 
C:\Users\SOLDER~1\AppData\Local\Temp\ccI3TRm9.s:2514   .text.Get_CalibrationValue:00000000000001ce .L0 
C:\Users\SOLDER~1\AppData\Local\Temp\ccI3TRm9.s:2517   .text.Get_CalibrationValue:00000000000001d0 .L0 
C:\Users\SOLDER~1\AppData\Local\Temp\ccI3TRm9.s:2520   .text.Get_CalibrationValue:00000000000001d8 .L0 
C:\Users\SOLDER~1\AppData\Local\Temp\ccI3TRm9.s:2522   .text.Get_CalibrationValue:00000000000001da .L0 
C:\Users\SOLDER~1\AppData\Local\Temp\ccI3TRm9.s:2530   .text.Get_CalibrationValue:00000000000001f0 .L0 
C:\Users\SOLDER~1\AppData\Local\Temp\ccI3TRm9.s:2533   .text.Get_CalibrationValue:00000000000001f6 .L0 
C:\Users\SOLDER~1\AppData\Local\Temp\ccI3TRm9.s:2541   .text.Get_CalibrationValue:000000000000020c .L0 
C:\Users\SOLDER~1\AppData\Local\Temp\ccI3TRm9.s:2543   .text.Get_CalibrationValue:000000000000020e .L0 
C:\Users\SOLDER~1\AppData\Local\Temp\ccI3TRm9.s:2547   .text.Get_CalibrationValue:000000000000021a .L0 
C:\Users\SOLDER~1\AppData\Local\Temp\ccI3TRm9.s:2553   .text.Get_CalibrationValue:0000000000000224 .L0 
C:\Users\SOLDER~1\AppData\Local\Temp\ccI3TRm9.s:2557   .text.Get_CalibrationValue:000000000000022a .L0 
C:\Users\SOLDER~1\AppData\Local\Temp\ccI3TRm9.s:2561   .text.Get_CalibrationValue:0000000000000232 .L0 
C:\Users\SOLDER~1\AppData\Local\Temp\ccI3TRm9.s:2567   .text.Get_CalibrationValue:0000000000000244 .L0 
C:\Users\SOLDER~1\AppData\Local\Temp\ccI3TRm9.s:2569   .text.Get_CalibrationValue:0000000000000248 .L0 
C:\Users\SOLDER~1\AppData\Local\Temp\ccI3TRm9.s:2572   .text.Get_CalibrationValue:0000000000000250 .L0 
C:\Users\SOLDER~1\AppData\Local\Temp\ccI3TRm9.s:2574   .text.Get_CalibrationValue:0000000000000252 .L0 
C:\Users\SOLDER~1\AppData\Local\Temp\ccI3TRm9.s:2577   .text.Get_CalibrationValue:0000000000000254 .L0 
C:\Users\SOLDER~1\AppData\Local\Temp\ccI3TRm9.s:2581   .text.Get_CalibrationValue:000000000000025e .L0 
C:\Users\SOLDER~1\AppData\Local\Temp\ccI3TRm9.s:2586   .text.Get_CalibrationValue:0000000000000268 .L0 
C:\Users\SOLDER~1\AppData\Local\Temp\ccI3TRm9.s:2594   .text.Get_CalibrationValue:000000000000027a .L0 
C:\Users\SOLDER~1\AppData\Local\Temp\ccI3TRm9.s:2601   .text.Get_CalibrationValue:000000000000028c .L0 
C:\Users\SOLDER~1\AppData\Local\Temp\ccI3TRm9.s:2606   .text.Get_CalibrationValue:000000000000029a .L0 
C:\Users\SOLDER~1\AppData\Local\Temp\ccI3TRm9.s:2614   .text.Get_CalibrationValue:00000000000002b0 .L0 
C:\Users\SOLDER~1\AppData\Local\Temp\ccI3TRm9.s:2617   .text.Get_CalibrationValue:00000000000002b6 .L0 
C:\Users\SOLDER~1\AppData\Local\Temp\ccI3TRm9.s:2625   .text.Get_CalibrationValue:00000000000002cc .L0 
C:\Users\SOLDER~1\AppData\Local\Temp\ccI3TRm9.s:2627   .text.Get_CalibrationValue:00000000000002ce .L0 
C:\Users\SOLDER~1\AppData\Local\Temp\ccI3TRm9.s:2631   .text.Get_CalibrationValue:00000000000002da .L0 
C:\Users\SOLDER~1\AppData\Local\Temp\ccI3TRm9.s:2637   .text.Get_CalibrationValue:00000000000002e4 .L0 
C:\Users\SOLDER~1\AppData\Local\Temp\ccI3TRm9.s:2641   .text.Get_CalibrationValue:00000000000002ea .L0 
C:\Users\SOLDER~1\AppData\Local\Temp\ccI3TRm9.s:2646   .text.Get_CalibrationValue:00000000000002f4 .L0 
C:\Users\SOLDER~1\AppData\Local\Temp\ccI3TRm9.s:2650   .text.Get_CalibrationValue:00000000000002fc .L0 
C:\Users\SOLDER~1\AppData\Local\Temp\ccI3TRm9.s:2655   .text.Get_CalibrationValue:0000000000000308 .L0 
C:\Users\SOLDER~1\AppData\Local\Temp\ccI3TRm9.s:2659   .text.Get_CalibrationValue:000000000000030e .L0 
C:\Users\SOLDER~1\AppData\Local\Temp\ccI3TRm9.s:2663   .text.Get_CalibrationValue:0000000000000316 .L0 
C:\Users\SOLDER~1\AppData\Local\Temp\ccI3TRm9.s:2669   .text.Get_CalibrationValue:0000000000000324 .L0 
C:\Users\SOLDER~1\AppData\Local\Temp\ccI3TRm9.s:2672   .text.Get_CalibrationValue:0000000000000328 .L0 
C:\Users\SOLDER~1\AppData\Local\Temp\ccI3TRm9.s:2674   .text.Get_CalibrationValue:000000000000032a .L0 
C:\Users\SOLDER~1\AppData\Local\Temp\ccI3TRm9.s:2678   .text.Get_CalibrationValue:0000000000000332 .L0 
C:\Users\SOLDER~1\AppData\Local\Temp\ccI3TRm9.s:2681   .text.Get_CalibrationValue:0000000000000338 .L0 
C:\Users\SOLDER~1\AppData\Local\Temp\ccI3TRm9.s:2685   .text.Get_CalibrationValue:0000000000000340 .L0 
C:\Users\SOLDER~1\AppData\Local\Temp\ccI3TRm9.s:2690   .text.Get_CalibrationValue:000000000000034c .L0 
GAS LISTING C:\Users\SOLDER~1\AppData\Local\Temp\ccI3TRm9.s 			page 87


C:\Users\SOLDER~1\AppData\Local\Temp\ccI3TRm9.s:2694   .text.Get_CalibrationValue:0000000000000352 .L0 
C:\Users\SOLDER~1\AppData\Local\Temp\ccI3TRm9.s:2698   .text.Get_CalibrationValue:000000000000035a .L0 
C:\Users\SOLDER~1\AppData\Local\Temp\ccI3TRm9.s:2704   .text.Get_CalibrationValue:0000000000000368 .L0 
C:\Users\SOLDER~1\AppData\Local\Temp\ccI3TRm9.s:2707   .text.Get_CalibrationValue:000000000000036c .L0 
C:\Users\SOLDER~1\AppData\Local\Temp\ccI3TRm9.s:2709   .text.Get_CalibrationValue:0000000000000370 .L0 
C:\Users\SOLDER~1\AppData\Local\Temp\ccI3TRm9.s:2715   .text.Get_CalibrationValue:000000000000037e .L0 
C:\Users\SOLDER~1\AppData\Local\Temp\ccI3TRm9.s:2721   .text.Get_CalibrationValue:0000000000000388 .L0 
C:\Users\SOLDER~1\AppData\Local\Temp\ccI3TRm9.s:2724   .text.Get_CalibrationValue:000000000000038c .L0 
C:\Users\SOLDER~1\AppData\Local\Temp\ccI3TRm9.s:2726   .text.Get_CalibrationValue:0000000000000390 .L0 
C:\Users\SOLDER~1\AppData\Local\Temp\ccI3TRm9.s:2728   .text.Get_CalibrationValue:0000000000000392 .L0 
C:\Users\SOLDER~1\AppData\Local\Temp\ccI3TRm9.s:2729   .text.Get_CalibrationValue:0000000000000392 .L0 
C:\Users\SOLDER~1\AppData\Local\Temp\ccI3TRm9.s:2731   .text.Get_CalibrationValue:0000000000000394 .L0 
C:\Users\SOLDER~1\AppData\Local\Temp\ccI3TRm9.s:2733   .text.Get_CalibrationValue:0000000000000396 .L0 
C:\Users\SOLDER~1\AppData\Local\Temp\ccI3TRm9.s:34463  .debug_line_str:0000000000000065 .L0 
C:\Users\SOLDER~1\AppData\Local\Temp\ccI3TRm9.s:34463  .debug_line_str:00000000000000af .L0 
C:\Users\SOLDER~1\AppData\Local\Temp\ccI3TRm9.s:34463  .debug_line_str:00000000000000bb .L0 
C:\Users\SOLDER~1\AppData\Local\Temp\ccI3TRm9.s:34463  .debug_line_str:0000000000000108 .L0 
C:\Users\SOLDER~1\AppData\Local\Temp\ccI3TRm9.s:34463  .debug_line_str:0000000000000151 .L0 
C:\Users\SOLDER~1\AppData\Local\Temp\ccI3TRm9.s:34463  .debug_line_str:000000000000015d .L0 
C:\Users\SOLDER~1\AppData\Local\Temp\ccI3TRm9.s:34463  .debug_line_str:00000000000001b1 .L0 
C:\Users\SOLDER~1\AppData\Local\Temp\ccI3TRm9.s:34463  .debug_line_str:00000000000001f6 .L0 
C:\Users\SOLDER~1\AppData\Local\Temp\ccI3TRm9.s:34463  .debug_line_str:0000000000000205 .L0 
C:\Users\SOLDER~1\AppData\Local\Temp\ccI3TRm9.s:34463  .debug_line_str:0000000000000214 .L0 
C:\Users\SOLDER~1\AppData\Local\Temp\ccI3TRm9.s:34463  .debug_line_str:0000000000000225 .L0 
C:\Users\SOLDER~1\AppData\Local\Temp\ccI3TRm9.s:34463  .debug_line_str:000000000000022f .L0 
C:\Users\SOLDER~1\AppData\Local\Temp\ccI3TRm9.s:34463  .debug_line_str:000000000000023c .L0 
C:\Users\SOLDER~1\AppData\Local\Temp\ccI3TRm9.s:34463  .debug_line_str:0000000000000247 .L0 
C:\Users\SOLDER~1\AppData\Local\Temp\ccI3TRm9.s:34463  .debug_line_str:0000000000000256 .L0 
C:\Users\SOLDER~1\AppData\Local\Temp\ccI3TRm9.s:34463  .debug_line_str:0000000000000265 .L0 
C:\Users\SOLDER~1\AppData\Local\Temp\ccI3TRm9.s:34463  .debug_line_str:000000000000026e .L0 
C:\Users\SOLDER~1\AppData\Local\Temp\ccI3TRm9.s:34463  .debug_line_str:0000000000000277 .L0 
C:\Users\SOLDER~1\AppData\Local\Temp\ccI3TRm9.s:34463  .debug_line_str:0000000000000282 .L0 
C:\Users\SOLDER~1\AppData\Local\Temp\ccI3TRm9.s:34463  .debug_line_str:0000000000000294 .L0 
C:\Users\SOLDER~1\AppData\Local\Temp\ccI3TRm9.s:34463  .debug_line_str:000000000000029e .L0 
C:\Users\SOLDER~1\AppData\Local\Temp\ccI3TRm9.s:34463  .debug_line_str:00000000000002ae .L0 
C:\Users\SOLDER~1\AppData\Local\Temp\ccI3TRm9.s:34463  .debug_line_str:00000000000002bd .L0 
C:\Users\SOLDER~1\AppData\Local\Temp\ccI3TRm9.s:34463  .debug_line_str:00000000000002cc .L0 
C:\Users\SOLDER~1\AppData\Local\Temp\ccI3TRm9.s:34463  .debug_line_str:00000000000002db .L0 
C:\Users\SOLDER~1\AppData\Local\Temp\ccI3TRm9.s:34463  .debug_line_str:00000000000002ed .L0 
C:\Users\SOLDER~1\AppData\Local\Temp\ccI3TRm9.s:34463  .debug_line_str:00000000000002fc .L0 
C:\Users\SOLDER~1\AppData\Local\Temp\ccI3TRm9.s:34463  .debug_line_str:000000000000030c .L0 
C:\Users\SOLDER~1\AppData\Local\Temp\ccI3TRm9.s:34463  .debug_line_str:000000000000031d .L0 
C:\Users\SOLDER~1\AppData\Local\Temp\ccI3TRm9.s:34463  .debug_line_str:000000000000032d .L0 
C:\Users\SOLDER~1\AppData\Local\Temp\ccI3TRm9.s:34463  .debug_line_str:000000000000033c .L0 
C:\Users\SOLDER~1\AppData\Local\Temp\ccI3TRm9.s:34463  .debug_line_str:000000000000034c .L0 
C:\Users\SOLDER~1\AppData\Local\Temp\ccI3TRm9.s:34463  .debug_line_str:000000000000035b .L0 
C:\Users\SOLDER~1\AppData\Local\Temp\ccI3TRm9.s:34463  .debug_line_str:000000000000036a .L0 
C:\Users\SOLDER~1\AppData\Local\Temp\ccI3TRm9.s:34463  .debug_line_str:0000000000000379 .L0 
C:\Users\SOLDER~1\AppData\Local\Temp\ccI3TRm9.s:34463  .debug_line_str:0000000000000388 .L0 
C:\Users\SOLDER~1\AppData\Local\Temp\ccI3TRm9.s:34463  .debug_line_str:0000000000000399 .L0 
C:\Users\SOLDER~1\AppData\Local\Temp\ccI3TRm9.s:34463  .debug_line_str:00000000000003a9 .L0 
C:\Users\SOLDER~1\AppData\Local\Temp\ccI3TRm9.s:71     .text.ADC_DeInit:0000000000000070 .L0 
C:\Users\SOLDER~1\AppData\Local\Temp\ccI3TRm9.s:205    .text.ADC_Init:0000000000000100 .L0 
C:\Users\SOLDER~1\AppData\Local\Temp\ccI3TRm9.s:250    .text.ADC_StructInit:0000000000000042 .L0 
C:\Users\SOLDER~1\AppData\Local\Temp\ccI3TRm9.s:298    .text.ADC_Cmd:000000000000003e .L0 
C:\Users\SOLDER~1\AppData\Local\Temp\ccI3TRm9.s:346    .text.ADC_DMACmd:000000000000003e .L0 
C:\Users\SOLDER~1\AppData\Local\Temp\ccI3TRm9.s:406    .text.ADC_ITConfig:0000000000000058 .L0 
GAS LISTING C:\Users\SOLDER~1\AppData\Local\Temp\ccI3TRm9.s 			page 88


C:\Users\SOLDER~1\AppData\Local\Temp\ccI3TRm9.s:439    .text.ADC_ResetCalibration:0000000000000022 .L0 
C:\Users\SOLDER~1\AppData\Local\Temp\ccI3TRm9.s:484    .text.ADC_GetResetCalibrationStatus:0000000000000030 .L0 
C:\Users\SOLDER~1\AppData\Local\Temp\ccI3TRm9.s:517    .text.ADC_StartCalibration:0000000000000022 .L0 
C:\Users\SOLDER~1\AppData\Local\Temp\ccI3TRm9.s:562    .text.ADC_GetCalibrationStatus:0000000000000030 .L0 
C:\Users\SOLDER~1\AppData\Local\Temp\ccI3TRm9.s:613    .text.ADC_SoftwareStartConvCmd:0000000000000044 .L0 
C:\Users\SOLDER~1\AppData\Local\Temp\ccI3TRm9.s:659    .text.ADC_GetSoftwareStartConvStatus:0000000000000034 .L0 
C:\Users\SOLDER~1\AppData\Local\Temp\ccI3TRm9.s:717    .text.ADC_DiscModeChannelCountConfig:000000000000005c .L0 
C:\Users\SOLDER~1\AppData\Local\Temp\ccI3TRm9.s:769    .text.ADC_DiscModeCmd:0000000000000046 .L0 
C:\Users\SOLDER~1\AppData\Local\Temp\ccI3TRm9.s:1039   .text.ADC_RegularChannelConfig:0000000000000248 .L0 
C:\Users\SOLDER~1\AppData\Local\Temp\ccI3TRm9.s:1090   .text.ADC_ExternalTrigConvCmd:0000000000000044 .L0 
C:\Users\SOLDER~1\AppData\Local\Temp\ccI3TRm9.s:1122   .text.ADC_GetConversionValue:000000000000001c .L0 
C:\Users\SOLDER~1\AppData\Local\Temp\ccI3TRm9.s:1151   .text.ADC_GetDualModeConversionValue:0000000000000018 .L0 
C:\Users\SOLDER~1\AppData\Local\Temp\ccI3TRm9.s:1199   .text.ADC_AutoInjectedConvCmd:000000000000003e .L0 
C:\Users\SOLDER~1\AppData\Local\Temp\ccI3TRm9.s:1250   .text.ADC_InjectedDiscModeCmd:0000000000000040 .L0 
C:\Users\SOLDER~1\AppData\Local\Temp\ccI3TRm9.s:1298   .text.ADC_ExternalTrigInjectedConvConfig:000000000000004a .L0 
C:\Users\SOLDER~1\AppData\Local\Temp\ccI3TRm9.s:1349   .text.ADC_ExternalTrigInjectedConvCmd:0000000000000040 .L0 
C:\Users\SOLDER~1\AppData\Local\Temp\ccI3TRm9.s:1400   .text.ADC_SoftwareStartInjectedConvCmd:0000000000000044 .L0 
C:\Users\SOLDER~1\AppData\Local\Temp\ccI3TRm9.s:1446   .text.ADC_GetSoftwareStartInjectedConvCmdStatus:0000000000000034 .L0 
C:\Users\SOLDER~1\AppData\Local\Temp\ccI3TRm9.s:1637   .text.ADC_InjectedChannelConfig:000000000000019c .L0 
C:\Users\SOLDER~1\AppData\Local\Temp\ccI3TRm9.s:1695   .text.ADC_InjectedSequencerLengthConfig:000000000000005e .L0 
C:\Users\SOLDER~1\AppData\Local\Temp\ccI3TRm9.s:1744   .text.ADC_SetInjectedOffset:0000000000000046 .L0 
C:\Users\SOLDER~1\AppData\Local\Temp\ccI3TRm9.s:1791   .text.ADC_GetInjectedConversionValue:0000000000000040 .L0 
C:\Users\SOLDER~1\AppData\Local\Temp\ccI3TRm9.s:1839   .text.ADC_AnalogWatchdogCmd:000000000000004e .L0 
C:\Users\SOLDER~1\AppData\Local\Temp\ccI3TRm9.s:1878   .text.ADC_AnalogWatchdogThresholdsConfig:0000000000000034 .L0 
C:\Users\SOLDER~1\AppData\Local\Temp\ccI3TRm9.s:1925   .text.ADC_AnalogWatchdogSingleChannelConfig:0000000000000048 .L0 
C:\Users\SOLDER~1\AppData\Local\Temp\ccI3TRm9.s:1979   .text.ADC_TempSensorVrefintCmd:0000000000000050 .L0 
C:\Users\SOLDER~1\AppData\Local\Temp\ccI3TRm9.s:2027   .text.ADC_GetFlagStatus:000000000000003a .L0 
C:\Users\SOLDER~1\AppData\Local\Temp\ccI3TRm9.s:2062   .text.ADC_ClearFlag:0000000000000026 .L0 
C:\Users\SOLDER~1\AppData\Local\Temp\ccI3TRm9.s:2133   .text.ADC_GetITStatus:000000000000006a .L0 
C:\Users\SOLDER~1\AppData\Local\Temp\ccI3TRm9.s:2177   .text.ADC_ClearITPendingBit:0000000000000038 .L0 
C:\Users\SOLDER~1\AppData\Local\Temp\ccI3TRm9.s:2249   .text.TempSensor_Volt_To_Temper:0000000000000074 .L0 
C:\Users\SOLDER~1\AppData\Local\Temp\ccI3TRm9.s:2300   .text.ADC_BufferCmd:0000000000000044 .L0 
C:\Users\SOLDER~1\AppData\Local\Temp\ccI3TRm9.s:2736   .text.Get_CalibrationValue:0000000000000396 .L0 
                     .debug_frame:0000000000000000 .L0 
C:\Users\SOLDER~1\AppData\Local\Temp\ccI3TRm9.s:43     .text.ADC_DeInit:000000000000003a .L2
C:\Users\SOLDER~1\AppData\Local\Temp\ccI3TRm9.s:57     .text.ADC_DeInit:0000000000000066 .L4
C:\Users\SOLDER~1\AppData\Local\Temp\ccI3TRm9.s:278    .text.ADC_Cmd:0000000000000026 .L8
C:\Users\SOLDER~1\AppData\Local\Temp\ccI3TRm9.s:286    .text.ADC_Cmd:0000000000000036 .L10
C:\Users\SOLDER~1\AppData\Local\Temp\ccI3TRm9.s:326    .text.ADC_DMACmd:0000000000000026 .L12
C:\Users\SOLDER~1\AppData\Local\Temp\ccI3TRm9.s:334    .text.ADC_DMACmd:0000000000000036 .L14
C:\Users\SOLDER~1\AppData\Local\Temp\ccI3TRm9.s:382    .text.ADC_ITConfig:000000000000003a .L16
C:\Users\SOLDER~1\AppData\Local\Temp\ccI3TRm9.s:394    .text.ADC_ITConfig:0000000000000050 .L18
C:\Users\SOLDER~1\AppData\Local\Temp\ccI3TRm9.s:467    .text.ADC_GetResetCalibrationStatus:0000000000000020 .L21
C:\Users\SOLDER~1\AppData\Local\Temp\ccI3TRm9.s:470    .text.ADC_GetResetCalibrationStatus:0000000000000024 .L22
C:\Users\SOLDER~1\AppData\Local\Temp\ccI3TRm9.s:545    .text.ADC_GetCalibrationStatus:0000000000000020 .L26
C:\Users\SOLDER~1\AppData\Local\Temp\ccI3TRm9.s:548    .text.ADC_GetCalibrationStatus:0000000000000024 .L27
C:\Users\SOLDER~1\AppData\Local\Temp\ccI3TRm9.s:591    .text.ADC_SoftwareStartConvCmd:0000000000000028 .L30
C:\Users\SOLDER~1\AppData\Local\Temp\ccI3TRm9.s:601    .text.ADC_SoftwareStartConvCmd:000000000000003c .L32
C:\Users\SOLDER~1\AppData\Local\Temp\ccI3TRm9.s:642    .text.ADC_GetSoftwareStartConvStatus:0000000000000024 .L34
C:\Users\SOLDER~1\AppData\Local\Temp\ccI3TRm9.s:645    .text.ADC_GetSoftwareStartConvStatus:0000000000000028 .L35
C:\Users\SOLDER~1\AppData\Local\Temp\ccI3TRm9.s:747    .text.ADC_DiscModeCmd:000000000000002a .L39
C:\Users\SOLDER~1\AppData\Local\Temp\ccI3TRm9.s:757    .text.ADC_DiscModeCmd:000000000000003e .L41
C:\Users\SOLDER~1\AppData\Local\Temp\ccI3TRm9.s:843    .text.ADC_RegularChannelConfig:0000000000000098 .L43
C:\Users\SOLDER~1\AppData\Local\Temp\ccI3TRm9.s:883    .text.ADC_RegularChannelConfig:00000000000000f6 .L44
C:\Users\SOLDER~1\AppData\Local\Temp\ccI3TRm9.s:933    .text.ADC_RegularChannelConfig:0000000000000168 .L45
C:\Users\SOLDER~1\AppData\Local\Temp\ccI3TRm9.s:1027   .text.ADC_RegularChannelConfig:0000000000000240 .L48
C:\Users\SOLDER~1\AppData\Local\Temp\ccI3TRm9.s:983    .text.ADC_RegularChannelConfig:00000000000001da .L47
GAS LISTING C:\Users\SOLDER~1\AppData\Local\Temp\ccI3TRm9.s 			page 89


C:\Users\SOLDER~1\AppData\Local\Temp\ccI3TRm9.s:1068   .text.ADC_ExternalTrigConvCmd:0000000000000028 .L50
C:\Users\SOLDER~1\AppData\Local\Temp\ccI3TRm9.s:1078   .text.ADC_ExternalTrigConvCmd:000000000000003c .L52
C:\Users\SOLDER~1\AppData\Local\Temp\ccI3TRm9.s:1179   .text.ADC_AutoInjectedConvCmd:0000000000000026 .L58
C:\Users\SOLDER~1\AppData\Local\Temp\ccI3TRm9.s:1187   .text.ADC_AutoInjectedConvCmd:0000000000000036 .L60
C:\Users\SOLDER~1\AppData\Local\Temp\ccI3TRm9.s:1228   .text.ADC_InjectedDiscModeCmd:0000000000000026 .L62
C:\Users\SOLDER~1\AppData\Local\Temp\ccI3TRm9.s:1238   .text.ADC_InjectedDiscModeCmd:0000000000000038 .L64
C:\Users\SOLDER~1\AppData\Local\Temp\ccI3TRm9.s:1327   .text.ADC_ExternalTrigInjectedConvCmd:0000000000000026 .L67
C:\Users\SOLDER~1\AppData\Local\Temp\ccI3TRm9.s:1337   .text.ADC_ExternalTrigInjectedConvCmd:0000000000000038 .L69
C:\Users\SOLDER~1\AppData\Local\Temp\ccI3TRm9.s:1378   .text.ADC_SoftwareStartInjectedConvCmd:0000000000000028 .L71
C:\Users\SOLDER~1\AppData\Local\Temp\ccI3TRm9.s:1388   .text.ADC_SoftwareStartInjectedConvCmd:000000000000003c .L73
C:\Users\SOLDER~1\AppData\Local\Temp\ccI3TRm9.s:1429   .text.ADC_GetSoftwareStartInjectedConvCmdStatus:0000000000000024 .L75
C:\Users\SOLDER~1\AppData\Local\Temp\ccI3TRm9.s:1432   .text.ADC_GetSoftwareStartInjectedConvCmdStatus:0000000000000028 .L76
C:\Users\SOLDER~1\AppData\Local\Temp\ccI3TRm9.s:1522   .text.ADC_InjectedChannelConfig:000000000000009c .L79
C:\Users\SOLDER~1\AppData\Local\Temp\ccI3TRm9.s:1562   .text.ADC_InjectedChannelConfig:00000000000000fa .L80
C:\Users\SOLDER~1\AppData\Local\Temp\ccI3TRm9.s:1955   .text.ADC_TempSensorVrefintCmd:000000000000002c .L89
C:\Users\SOLDER~1\AppData\Local\Temp\ccI3TRm9.s:1967   .text.ADC_TempSensorVrefintCmd:0000000000000048 .L91
C:\Users\SOLDER~1\AppData\Local\Temp\ccI3TRm9.s:2010   .text.ADC_GetFlagStatus:000000000000002a .L93
C:\Users\SOLDER~1\AppData\Local\Temp\ccI3TRm9.s:2013   .text.ADC_GetFlagStatus:000000000000002e .L94
C:\Users\SOLDER~1\AppData\Local\Temp\ccI3TRm9.s:2116   .text.ADC_GetITStatus:000000000000005a .L98
C:\Users\SOLDER~1\AppData\Local\Temp\ccI3TRm9.s:2119   .text.ADC_GetITStatus:000000000000005e .L99
C:\Users\SOLDER~1\AppData\Local\Temp\ccI3TRm9.s:2278   .text.ADC_BufferCmd:0000000000000028 .L105
C:\Users\SOLDER~1\AppData\Local\Temp\ccI3TRm9.s:2288   .text.ADC_BufferCmd:000000000000003c .L107
C:\Users\SOLDER~1\AppData\Local\Temp\ccI3TRm9.s:2363   .text.Get_CalibrationValue:000000000000007c .L109
C:\Users\SOLDER~1\AppData\Local\Temp\ccI3TRm9.s:2327   .text.Get_CalibrationValue:0000000000000020 .L110
C:\Users\SOLDER~1\AppData\Local\Temp\ccI3TRm9.s:2338   .text.Get_CalibrationValue:000000000000003e .L111
C:\Users\SOLDER~1\AppData\Local\Temp\ccI3TRm9.s:2321   .text.Get_CalibrationValue:0000000000000012 .L112
C:\Users\SOLDER~1\AppData\Local\Temp\ccI3TRm9.s:2455   .text.Get_CalibrationValue:000000000000014e .L113
C:\Users\SOLDER~1\AppData\Local\Temp\ccI3TRm9.s:2443   .text.Get_CalibrationValue:000000000000012e .L114
C:\Users\SOLDER~1\AppData\Local\Temp\ccI3TRm9.s:2436   .text.Get_CalibrationValue:000000000000011c .L115
C:\Users\SOLDER~1\AppData\Local\Temp\ccI3TRm9.s:2378   .text.Get_CalibrationValue:0000000000000096 .L116
C:\Users\SOLDER~1\AppData\Local\Temp\ccI3TRm9.s:2373   .text.Get_CalibrationValue:0000000000000090 .L117
C:\Users\SOLDER~1\AppData\Local\Temp\ccI3TRm9.s:2505   .text.Get_CalibrationValue:00000000000001be .L118
C:\Users\SOLDER~1\AppData\Local\Temp\ccI3TRm9.s:2512   .text.Get_CalibrationValue:00000000000001ce .L129
C:\Users\SOLDER~1\AppData\Local\Temp\ccI3TRm9.s:2469   .text.Get_CalibrationValue:000000000000016a .L121
C:\Users\SOLDER~1\AppData\Local\Temp\ccI3TRm9.s:2515   .text.Get_CalibrationValue:00000000000001d0 .L120
C:\Users\SOLDER~1\AppData\Local\Temp\ccI3TRm9.s:2555   .text.Get_CalibrationValue:000000000000022a .L122
C:\Users\SOLDER~1\AppData\Local\Temp\ccI3TRm9.s:2559   .text.Get_CalibrationValue:0000000000000232 .L123
C:\Users\SOLDER~1\AppData\Local\Temp\ccI3TRm9.s:2639   .text.Get_CalibrationValue:00000000000002ea .L124
C:\Users\SOLDER~1\AppData\Local\Temp\ccI3TRm9.s:2599   .text.Get_CalibrationValue:000000000000028c .L125
C:\Users\SOLDER~1\AppData\Local\Temp\ccI3TRm9.s:2575   .text.Get_CalibrationValue:0000000000000254 .L126
C:\Users\SOLDER~1\AppData\Local\Temp\ccI3TRm9.s:2644   .text.Get_CalibrationValue:00000000000002f4 .L127
C:\Users\SOLDER~1\AppData\Local\Temp\ccI3TRm9.s:4382   .debug_abbrev:0000000000000000 .Ldebug_abbrev0
C:\Users\SOLDER~1\AppData\Local\Temp\ccI3TRm9.s:22798  .debug_str:00000000000005b2 .LASF5872
C:\Users\SOLDER~1\AppData\Local\Temp\ccI3TRm9.s:34461  .debug_line_str:000000000000004a .LASF0
C:\Users\SOLDER~1\AppData\Local\Temp\ccI3TRm9.s:34459  .debug_line_str:0000000000000000 .LASF1
C:\Users\SOLDER~1\AppData\Local\Temp\ccI3TRm9.s:4950   .debug_rnglists:000000000000000c .LLRL0
C:\Users\SOLDER~1\AppData\Local\Temp\ccI3TRm9.s:22708  .debug_line:0000000000000000 .Ldebug_line0
C:\Users\SOLDER~1\AppData\Local\Temp\ccI3TRm9.s:5071   .debug_macro:0000000000000000 .Ldebug_macro0
C:\Users\SOLDER~1\AppData\Local\Temp\ccI3TRm9.s:34398  .debug_str:000000000002f662 .LASF5753
C:\Users\SOLDER~1\AppData\Local\Temp\ccI3TRm9.s:31978  .debug_str:0000000000025958 .LASF5754
C:\Users\SOLDER~1\AppData\Local\Temp\ccI3TRm9.s:25010  .debug_str:0000000000009540 .LASF5756
C:\Users\SOLDER~1\AppData\Local\Temp\ccI3TRm9.s:28550  .debug_str:0000000000017bd0 .LASF5755
C:\Users\SOLDER~1\AppData\Local\Temp\ccI3TRm9.s:28064  .debug_str:0000000000015cf0 .LASF5757
C:\Users\SOLDER~1\AppData\Local\Temp\ccI3TRm9.s:27846  .debug_str:0000000000014ed7 .LASF5758
C:\Users\SOLDER~1\AppData\Local\Temp\ccI3TRm9.s:26378  .debug_str:000000000000eece .LASF5759
C:\Users\SOLDER~1\AppData\Local\Temp\ccI3TRm9.s:27968  .debug_str:00000000000156b7 .LASF5760
C:\Users\SOLDER~1\AppData\Local\Temp\ccI3TRm9.s:30900  .debug_str:0000000000021378 .LASF5761
GAS LISTING C:\Users\SOLDER~1\AppData\Local\Temp\ccI3TRm9.s 			page 90


C:\Users\SOLDER~1\AppData\Local\Temp\ccI3TRm9.s:32382  .debug_str:000000000002747a .LASF5762
C:\Users\SOLDER~1\AppData\Local\Temp\ccI3TRm9.s:29266  .debug_str:000000000001aa03 .LASF5763
C:\Users\SOLDER~1\AppData\Local\Temp\ccI3TRm9.s:22810  .debug_str:000000000000070e .LASF5764
C:\Users\SOLDER~1\AppData\Local\Temp\ccI3TRm9.s:22728  .debug_str:0000000000000124 .LASF5765
C:\Users\SOLDER~1\AppData\Local\Temp\ccI3TRm9.s:32470  .debug_str:0000000000027a26 .LASF5766
C:\Users\SOLDER~1\AppData\Local\Temp\ccI3TRm9.s:32032  .debug_str:0000000000025cd3 .LASF5767
C:\Users\SOLDER~1\AppData\Local\Temp\ccI3TRm9.s:31256  .debug_str:0000000000022a24 .LASF5768
C:\Users\SOLDER~1\AppData\Local\Temp\ccI3TRm9.s:32398  .debug_str:0000000000027565 .LASF5769
C:\Users\SOLDER~1\AppData\Local\Temp\ccI3TRm9.s:34210  .debug_str:000000000002eaa5 .LASF5770
C:\Users\SOLDER~1\AppData\Local\Temp\ccI3TRm9.s:23546  .debug_str:00000000000036c6 .LASF5771
C:\Users\SOLDER~1\AppData\Local\Temp\ccI3TRm9.s:24820  .debug_str:0000000000008899 .LASF5772
C:\Users\SOLDER~1\AppData\Local\Temp\ccI3TRm9.s:26360  .debug_str:000000000000edcc .LASF5773
C:\Users\SOLDER~1\AppData\Local\Temp\ccI3TRm9.s:28314  .debug_str:0000000000016c8a .LASF5774
C:\Users\SOLDER~1\AppData\Local\Temp\ccI3TRm9.s:32126  .debug_str:000000000002631b .LASF5775
C:\Users\SOLDER~1\AppData\Local\Temp\ccI3TRm9.s:25382  .debug_str:000000000000adaa .LASF5776
C:\Users\SOLDER~1\AppData\Local\Temp\ccI3TRm9.s:28022  .debug_str:0000000000015a50 .LASF5777
C:\Users\SOLDER~1\AppData\Local\Temp\ccI3TRm9.s:34452  .debug_str:000000000002f9a9 .LASF5778
C:\Users\SOLDER~1\AppData\Local\Temp\ccI3TRm9.s:29088  .debug_str:0000000000019f04 .LASF5779
C:\Users\SOLDER~1\AppData\Local\Temp\ccI3TRm9.s:29090  .debug_str:0000000000019f0a .LASF5780
C:\Users\SOLDER~1\AppData\Local\Temp\ccI3TRm9.s:24732  .debug_str:000000000000832c .LASF5781
C:\Users\SOLDER~1\AppData\Local\Temp\ccI3TRm9.s:22924  .debug_str:0000000000000ee5 .LASF5782
C:\Users\SOLDER~1\AppData\Local\Temp\ccI3TRm9.s:29568  .debug_str:000000000001bcd1 .LASF5783
C:\Users\SOLDER~1\AppData\Local\Temp\ccI3TRm9.s:33160  .debug_str:000000000002a6b5 .LASF5784
C:\Users\SOLDER~1\AppData\Local\Temp\ccI3TRm9.s:29572  .debug_str:000000000001bcee .LASF5785
C:\Users\SOLDER~1\AppData\Local\Temp\ccI3TRm9.s:29574  .debug_str:000000000001bcf4 .LASF5786
C:\Users\SOLDER~1\AppData\Local\Temp\ccI3TRm9.s:33874  .debug_str:000000000002d4e5 .LASF5787
C:\Users\SOLDER~1\AppData\Local\Temp\ccI3TRm9.s:24378  .debug_str:0000000000006c19 .LASF5788
C:\Users\SOLDER~1\AppData\Local\Temp\ccI3TRm9.s:32954  .debug_str:0000000000029989 .LASF5789
C:\Users\SOLDER~1\AppData\Local\Temp\ccI3TRm9.s:32956  .debug_str:000000000002998f .LASF5790
C:\Users\SOLDER~1\AppData\Local\Temp\ccI3TRm9.s:32958  .debug_str:0000000000029995 .LASF5791
C:\Users\SOLDER~1\AppData\Local\Temp\ccI3TRm9.s:29184  .debug_str:000000000001a4cf .LASF5792
C:\Users\SOLDER~1\AppData\Local\Temp\ccI3TRm9.s:29860  .debug_str:000000000001cfa6 .LASF5793
C:\Users\SOLDER~1\AppData\Local\Temp\ccI3TRm9.s:29424  .debug_str:000000000001b467 .LASF5794
C:\Users\SOLDER~1\AppData\Local\Temp\ccI3TRm9.s:29426  .debug_str:000000000001b46f .LASF5795
C:\Users\SOLDER~1\AppData\Local\Temp\ccI3TRm9.s:29428  .debug_str:000000000001b477 .LASF5796
C:\Users\SOLDER~1\AppData\Local\Temp\ccI3TRm9.s:29816  .debug_str:000000000001ccc9 .LASF5797
C:\Users\SOLDER~1\AppData\Local\Temp\ccI3TRm9.s:22976  .debug_str:0000000000001211 .LASF5798
C:\Users\SOLDER~1\AppData\Local\Temp\ccI3TRm9.s:26282  .debug_str:000000000000e8c7 .LASF5799
C:\Users\SOLDER~1\AppData\Local\Temp\ccI3TRm9.s:33732  .debug_str:000000000002cbfa .LASF5800
C:\Users\SOLDER~1\AppData\Local\Temp\ccI3TRm9.s:30380  .debug_str:000000000001f1b5 .LASF5801
C:\Users\SOLDER~1\AppData\Local\Temp\ccI3TRm9.s:25746  .debug_str:000000000000c54c .LASF5802
C:\Users\SOLDER~1\AppData\Local\Temp\ccI3TRm9.s:32206  .debug_str:000000000002688e .LASF5803
C:\Users\SOLDER~1\AppData\Local\Temp\ccI3TRm9.s:26092  .debug_str:000000000000dc7c .LASF5804
C:\Users\SOLDER~1\AppData\Local\Temp\ccI3TRm9.s:31798  .debug_str:0000000000024dd3 .LASF5805
C:\Users\SOLDER~1\AppData\Local\Temp\ccI3TRm9.s:32936  .debug_str:000000000002986a .LASF5806
C:\Users\SOLDER~1\AppData\Local\Temp\ccI3TRm9.s:28538  .debug_str:0000000000017b19 .LASF5807
C:\Users\SOLDER~1\AppData\Local\Temp\ccI3TRm9.s:30560  .debug_str:000000000001fdce .LASF5873
C:\Users\SOLDER~1\AppData\Local\Temp\ccI3TRm9.s:24796  .debug_str:00000000000086ff .LASF5810
C:\Users\SOLDER~1\AppData\Local\Temp\ccI3TRm9.s:2305   .text.Get_CalibrationValue:0000000000000000 .LFB54
C:\Users\SOLDER~1\AppData\Local\Temp\ccI3TRm9.s:2734   .text.Get_CalibrationValue:0000000000000396 .LFE54
C:\Users\SOLDER~1\AppData\Local\Temp\ccI3TRm9.s:29370  .debug_str:000000000001b0d7 .LASF5808
C:\Users\SOLDER~1\AppData\Local\Temp\ccI3TRm9.s:29682  .debug_str:000000000001c3eb .LASF5816
C:\Users\SOLDER~1\AppData\Local\Temp\ccI3TRm9.s:2254   .text.ADC_BufferCmd:0000000000000000 .LFB53
C:\Users\SOLDER~1\AppData\Local\Temp\ccI3TRm9.s:2298   .text.ADC_BufferCmd:0000000000000044 .LFE53
C:\Users\SOLDER~1\AppData\Local\Temp\ccI3TRm9.s:30322  .debug_str:000000000001edf3 .LASF5809
C:\Users\SOLDER~1\AppData\Local\Temp\ccI3TRm9.s:29288  .debug_str:000000000001ab6c .LASF5811
C:\Users\SOLDER~1\AppData\Local\Temp\ccI3TRm9.s:2182   .text.TempSensor_Volt_To_Temper:0000000000000000 .LFB52
GAS LISTING C:\Users\SOLDER~1\AppData\Local\Temp\ccI3TRm9.s 			page 91


C:\Users\SOLDER~1\AppData\Local\Temp\ccI3TRm9.s:2247   .text.TempSensor_Volt_To_Temper:0000000000000074 .LFE52
C:\Users\SOLDER~1\AppData\Local\Temp\ccI3TRm9.s:34232  .debug_str:000000000002ebfb .LASF5812
C:\Users\SOLDER~1\AppData\Local\Temp\ccI3TRm9.s:29562  .debug_str:000000000001bc8e .LASF5813
C:\Users\SOLDER~1\AppData\Local\Temp\ccI3TRm9.s:24904  .debug_str:0000000000008dec .LASF5814
C:\Users\SOLDER~1\AppData\Local\Temp\ccI3TRm9.s:29858  .debug_str:000000000001cf99 .LASF5815
C:\Users\SOLDER~1\AppData\Local\Temp\ccI3TRm9.s:23724  .debug_str:00000000000041f5 .LASF5817
C:\Users\SOLDER~1\AppData\Local\Temp\ccI3TRm9.s:2138   .text.ADC_ClearITPendingBit:0000000000000000 .LFB51
C:\Users\SOLDER~1\AppData\Local\Temp\ccI3TRm9.s:2175   .text.ADC_ClearITPendingBit:0000000000000038 .LFE51
C:\Users\SOLDER~1\AppData\Local\Temp\ccI3TRm9.s:32526  .debug_str:0000000000027de1 .LASF5818
C:\Users\SOLDER~1\AppData\Local\Temp\ccI3TRm9.s:26690  .debug_str:0000000000010367 .LASF5819
C:\Users\SOLDER~1\AppData\Local\Temp\ccI3TRm9.s:26916  .debug_str:000000000001118f .LASF5820
C:\Users\SOLDER~1\AppData\Local\Temp\ccI3TRm9.s:2067   .text.ADC_GetITStatus:0000000000000000 .LFB50
C:\Users\SOLDER~1\AppData\Local\Temp\ccI3TRm9.s:2131   .text.ADC_GetITStatus:000000000000006a .LFE50
C:\Users\SOLDER~1\AppData\Local\Temp\ccI3TRm9.s:27320  .debug_str:0000000000012b2e .LASF5821
C:\Users\SOLDER~1\AppData\Local\Temp\ccI3TRm9.s:33334  .debug_str:000000000002b1b8 .LASF5822
C:\Users\SOLDER~1\AppData\Local\Temp\ccI3TRm9.s:32062  .debug_str:0000000000025ea4 .LASF5823
C:\Users\SOLDER~1\AppData\Local\Temp\ccI3TRm9.s:2032   .text.ADC_ClearFlag:0000000000000000 .LFB49
C:\Users\SOLDER~1\AppData\Local\Temp\ccI3TRm9.s:2060   .text.ADC_ClearFlag:0000000000000026 .LFE49
C:\Users\SOLDER~1\AppData\Local\Temp\ccI3TRm9.s:28760  .debug_str:000000000001897f .LASF5824
C:\Users\SOLDER~1\AppData\Local\Temp\ccI3TRm9.s:25014  .debug_str:000000000000958c .LASF5825
C:\Users\SOLDER~1\AppData\Local\Temp\ccI3TRm9.s:1984   .text.ADC_GetFlagStatus:0000000000000000 .LFB48
C:\Users\SOLDER~1\AppData\Local\Temp\ccI3TRm9.s:2025   .text.ADC_GetFlagStatus:000000000000003a .LFE48
C:\Users\SOLDER~1\AppData\Local\Temp\ccI3TRm9.s:28702  .debug_str:00000000000185f8 .LASF5826
C:\Users\SOLDER~1\AppData\Local\Temp\ccI3TRm9.s:1930   .text.ADC_TempSensorVrefintCmd:0000000000000000 .LFB47
C:\Users\SOLDER~1\AppData\Local\Temp\ccI3TRm9.s:1977   .text.ADC_TempSensorVrefintCmd:0000000000000050 .LFE47
C:\Users\SOLDER~1\AppData\Local\Temp\ccI3TRm9.s:24784  .debug_str:000000000000864a .LASF5827
C:\Users\SOLDER~1\AppData\Local\Temp\ccI3TRm9.s:1883   .text.ADC_AnalogWatchdogSingleChannelConfig:0000000000000000 .LFB46
C:\Users\SOLDER~1\AppData\Local\Temp\ccI3TRm9.s:1923   .text.ADC_AnalogWatchdogSingleChannelConfig:0000000000000048 .LFE46
C:\Users\SOLDER~1\AppData\Local\Temp\ccI3TRm9.s:26738  .debug_str:000000000001065d .LASF5828
C:\Users\SOLDER~1\AppData\Local\Temp\ccI3TRm9.s:23358  .debug_str:0000000000002aff .LASF5829
C:\Users\SOLDER~1\AppData\Local\Temp\ccI3TRm9.s:26808  .debug_str:0000000000010aa1 .LASF5830
C:\Users\SOLDER~1\AppData\Local\Temp\ccI3TRm9.s:1844   .text.ADC_AnalogWatchdogThresholdsConfig:0000000000000000 .LFB45
C:\Users\SOLDER~1\AppData\Local\Temp\ccI3TRm9.s:1876   .text.ADC_AnalogWatchdogThresholdsConfig:0000000000000034 .LFE45
C:\Users\SOLDER~1\AppData\Local\Temp\ccI3TRm9.s:27794  .debug_str:0000000000014b4e .LASF5831
C:\Users\SOLDER~1\AppData\Local\Temp\ccI3TRm9.s:34306  .debug_str:000000000002f09d .LASF5832
C:\Users\SOLDER~1\AppData\Local\Temp\ccI3TRm9.s:33468  .debug_str:000000000002bac5 .LASF5833
C:\Users\SOLDER~1\AppData\Local\Temp\ccI3TRm9.s:1796   .text.ADC_AnalogWatchdogCmd:0000000000000000 .LFB44
C:\Users\SOLDER~1\AppData\Local\Temp\ccI3TRm9.s:1837   .text.ADC_AnalogWatchdogCmd:000000000000004e .LFE44
C:\Users\SOLDER~1\AppData\Local\Temp\ccI3TRm9.s:29436  .debug_str:000000000001b4cc .LASF5834
C:\Users\SOLDER~1\AppData\Local\Temp\ccI3TRm9.s:27642  .debug_str:00000000000140dc .LASF5835
C:\Users\SOLDER~1\AppData\Local\Temp\ccI3TRm9.s:1749   .text.ADC_GetInjectedConversionValue:0000000000000000 .LFB43
C:\Users\SOLDER~1\AppData\Local\Temp\ccI3TRm9.s:1789   .text.ADC_GetInjectedConversionValue:0000000000000040 .LFE43
C:\Users\SOLDER~1\AppData\Local\Temp\ccI3TRm9.s:24878  .debug_str:0000000000008c48 .LASF5836
C:\Users\SOLDER~1\AppData\Local\Temp\ccI3TRm9.s:32234  .debug_str:0000000000026a7b .LASF5837
C:\Users\SOLDER~1\AppData\Local\Temp\ccI3TRm9.s:1700   .text.ADC_SetInjectedOffset:0000000000000000 .LFB42
C:\Users\SOLDER~1\AppData\Local\Temp\ccI3TRm9.s:1742   .text.ADC_SetInjectedOffset:0000000000000046 .LFE42
C:\Users\SOLDER~1\AppData\Local\Temp\ccI3TRm9.s:31898  .debug_str:0000000000025453 .LASF5838
C:\Users\SOLDER~1\AppData\Local\Temp\ccI3TRm9.s:32046  .debug_str:0000000000025d8e .LASF5839
C:\Users\SOLDER~1\AppData\Local\Temp\ccI3TRm9.s:1642   .text.ADC_InjectedSequencerLengthConfig:0000000000000000 .LFB41
C:\Users\SOLDER~1\AppData\Local\Temp\ccI3TRm9.s:1693   .text.ADC_InjectedSequencerLengthConfig:000000000000005e .LFE41
C:\Users\SOLDER~1\AppData\Local\Temp\ccI3TRm9.s:34362  .debug_str:000000000002f445 .LASF5840
C:\Users\SOLDER~1\AppData\Local\Temp\ccI3TRm9.s:27386  .debug_str:0000000000012fc6 .LASF5841
C:\Users\SOLDER~1\AppData\Local\Temp\ccI3TRm9.s:28056  .debug_str:0000000000015c78 .LASF5842
C:\Users\SOLDER~1\AppData\Local\Temp\ccI3TRm9.s:28302  .debug_str:0000000000016bae .LASF5843
C:\Users\SOLDER~1\AppData\Local\Temp\ccI3TRm9.s:1451   .text.ADC_InjectedChannelConfig:0000000000000000 .LFB40
C:\Users\SOLDER~1\AppData\Local\Temp\ccI3TRm9.s:1635   .text.ADC_InjectedChannelConfig:000000000000019c .LFE40
C:\Users\SOLDER~1\AppData\Local\Temp\ccI3TRm9.s:33656  .debug_str:000000000002c6d3 .LASF5844
GAS LISTING C:\Users\SOLDER~1\AppData\Local\Temp\ccI3TRm9.s 			page 92


C:\Users\SOLDER~1\AppData\Local\Temp\ccI3TRm9.s:31678  .debug_str:00000000000245e9 .LASF5845
C:\Users\SOLDER~1\AppData\Local\Temp\ccI3TRm9.s:27390  .debug_str:0000000000012fe8 .LASF5846
C:\Users\SOLDER~1\AppData\Local\Temp\ccI3TRm9.s:33090  .debug_str:000000000002a1e4 .LASF5847
C:\Users\SOLDER~1\AppData\Local\Temp\ccI3TRm9.s:1405   .text.ADC_GetSoftwareStartInjectedConvCmdStatus:0000000000000000 .LFB39
C:\Users\SOLDER~1\AppData\Local\Temp\ccI3TRm9.s:1444   .text.ADC_GetSoftwareStartInjectedConvCmdStatus:0000000000000034 .LFE39
C:\Users\SOLDER~1\AppData\Local\Temp\ccI3TRm9.s:25334  .debug_str:000000000000aa8f .LASF5848
C:\Users\SOLDER~1\AppData\Local\Temp\ccI3TRm9.s:1354   .text.ADC_SoftwareStartInjectedConvCmd:0000000000000000 .LFB38
C:\Users\SOLDER~1\AppData\Local\Temp\ccI3TRm9.s:1398   .text.ADC_SoftwareStartInjectedConvCmd:0000000000000044 .LFE38
C:\Users\SOLDER~1\AppData\Local\Temp\ccI3TRm9.s:31742  .debug_str:0000000000024a0b .LASF5849
C:\Users\SOLDER~1\AppData\Local\Temp\ccI3TRm9.s:1303   .text.ADC_ExternalTrigInjectedConvCmd:0000000000000000 .LFB37
C:\Users\SOLDER~1\AppData\Local\Temp\ccI3TRm9.s:1347   .text.ADC_ExternalTrigInjectedConvCmd:0000000000000040 .LFE37
C:\Users\SOLDER~1\AppData\Local\Temp\ccI3TRm9.s:24338  .debug_str:00000000000069ae .LASF5850
C:\Users\SOLDER~1\AppData\Local\Temp\ccI3TRm9.s:1255   .text.ADC_ExternalTrigInjectedConvConfig:0000000000000000 .LFB36
C:\Users\SOLDER~1\AppData\Local\Temp\ccI3TRm9.s:1296   .text.ADC_ExternalTrigInjectedConvConfig:000000000000004a .LFE36
C:\Users\SOLDER~1\AppData\Local\Temp\ccI3TRm9.s:26192  .debug_str:000000000000e2c7 .LASF5851
C:\Users\SOLDER~1\AppData\Local\Temp\ccI3TRm9.s:24466  .debug_str:0000000000007200 .LASF5852
C:\Users\SOLDER~1\AppData\Local\Temp\ccI3TRm9.s:1204   .text.ADC_InjectedDiscModeCmd:0000000000000000 .LFB35
C:\Users\SOLDER~1\AppData\Local\Temp\ccI3TRm9.s:1248   .text.ADC_InjectedDiscModeCmd:0000000000000040 .LFE35
C:\Users\SOLDER~1\AppData\Local\Temp\ccI3TRm9.s:28258  .debug_str:0000000000016942 .LASF5853
C:\Users\SOLDER~1\AppData\Local\Temp\ccI3TRm9.s:1156   .text.ADC_AutoInjectedConvCmd:0000000000000000 .LFB34
C:\Users\SOLDER~1\AppData\Local\Temp\ccI3TRm9.s:1197   .text.ADC_AutoInjectedConvCmd:000000000000003e .LFE34
C:\Users\SOLDER~1\AppData\Local\Temp\ccI3TRm9.s:27426  .debug_str:000000000001322a .LASF5874
C:\Users\SOLDER~1\AppData\Local\Temp\ccI3TRm9.s:1127   .text.ADC_GetDualModeConversionValue:0000000000000000 .LFB33
C:\Users\SOLDER~1\AppData\Local\Temp\ccI3TRm9.s:1149   .text.ADC_GetDualModeConversionValue:0000000000000018 .LFE33
C:\Users\SOLDER~1\AppData\Local\Temp\ccI3TRm9.s:29754  .debug_str:000000000001c8a9 .LASF5854
C:\Users\SOLDER~1\AppData\Local\Temp\ccI3TRm9.s:1095   .text.ADC_GetConversionValue:0000000000000000 .LFB32
C:\Users\SOLDER~1\AppData\Local\Temp\ccI3TRm9.s:1120   .text.ADC_GetConversionValue:000000000000001c .LFE32
C:\Users\SOLDER~1\AppData\Local\Temp\ccI3TRm9.s:33946  .debug_str:000000000002d9cd .LASF5855
C:\Users\SOLDER~1\AppData\Local\Temp\ccI3TRm9.s:1044   .text.ADC_ExternalTrigConvCmd:0000000000000000 .LFB31
C:\Users\SOLDER~1\AppData\Local\Temp\ccI3TRm9.s:1088   .text.ADC_ExternalTrigConvCmd:0000000000000044 .LFE31
C:\Users\SOLDER~1\AppData\Local\Temp\ccI3TRm9.s:24260  .debug_str:0000000000006436 .LASF5856
C:\Users\SOLDER~1\AppData\Local\Temp\ccI3TRm9.s:774    .text.ADC_RegularChannelConfig:0000000000000000 .LFB30
C:\Users\SOLDER~1\AppData\Local\Temp\ccI3TRm9.s:1037   .text.ADC_RegularChannelConfig:0000000000000248 .LFE30
C:\Users\SOLDER~1\AppData\Local\Temp\ccI3TRm9.s:23460  .debug_str:0000000000003180 .LASF5857
C:\Users\SOLDER~1\AppData\Local\Temp\ccI3TRm9.s:722    .text.ADC_DiscModeCmd:0000000000000000 .LFB29
C:\Users\SOLDER~1\AppData\Local\Temp\ccI3TRm9.s:767    .text.ADC_DiscModeCmd:0000000000000046 .LFE29
C:\Users\SOLDER~1\AppData\Local\Temp\ccI3TRm9.s:34026  .debug_str:000000000002def5 .LASF5858
C:\Users\SOLDER~1\AppData\Local\Temp\ccI3TRm9.s:664    .text.ADC_DiscModeChannelCountConfig:0000000000000000 .LFB28
C:\Users\SOLDER~1\AppData\Local\Temp\ccI3TRm9.s:715    .text.ADC_DiscModeChannelCountConfig:000000000000005c .LFE28
C:\Users\SOLDER~1\AppData\Local\Temp\ccI3TRm9.s:23480  .debug_str:00000000000032a0 .LASF5859
C:\Users\SOLDER~1\AppData\Local\Temp\ccI3TRm9.s:23904  .debug_str:0000000000004d6a .LASF5860
C:\Users\SOLDER~1\AppData\Local\Temp\ccI3TRm9.s:618    .text.ADC_GetSoftwareStartConvStatus:0000000000000000 .LFB27
C:\Users\SOLDER~1\AppData\Local\Temp\ccI3TRm9.s:657    .text.ADC_GetSoftwareStartConvStatus:0000000000000034 .LFE27
C:\Users\SOLDER~1\AppData\Local\Temp\ccI3TRm9.s:34090  .debug_str:000000000002e321 .LASF5861
C:\Users\SOLDER~1\AppData\Local\Temp\ccI3TRm9.s:567    .text.ADC_SoftwareStartConvCmd:0000000000000000 .LFB26
C:\Users\SOLDER~1\AppData\Local\Temp\ccI3TRm9.s:611    .text.ADC_SoftwareStartConvCmd:0000000000000044 .LFE26
C:\Users\SOLDER~1\AppData\Local\Temp\ccI3TRm9.s:24664  .debug_str:0000000000007ea1 .LASF5862
C:\Users\SOLDER~1\AppData\Local\Temp\ccI3TRm9.s:522    .text.ADC_GetCalibrationStatus:0000000000000000 .LFB25
C:\Users\SOLDER~1\AppData\Local\Temp\ccI3TRm9.s:560    .text.ADC_GetCalibrationStatus:0000000000000030 .LFE25
C:\Users\SOLDER~1\AppData\Local\Temp\ccI3TRm9.s:25136  .debug_str:0000000000009d5b .LASF5863
C:\Users\SOLDER~1\AppData\Local\Temp\ccI3TRm9.s:489    .text.ADC_StartCalibration:0000000000000000 .LFB24
C:\Users\SOLDER~1\AppData\Local\Temp\ccI3TRm9.s:515    .text.ADC_StartCalibration:0000000000000022 .LFE24
C:\Users\SOLDER~1\AppData\Local\Temp\ccI3TRm9.s:32110  .debug_str:0000000000026216 .LASF5864
C:\Users\SOLDER~1\AppData\Local\Temp\ccI3TRm9.s:444    .text.ADC_GetResetCalibrationStatus:0000000000000000 .LFB23
C:\Users\SOLDER~1\AppData\Local\Temp\ccI3TRm9.s:482    .text.ADC_GetResetCalibrationStatus:0000000000000030 .LFE23
C:\Users\SOLDER~1\AppData\Local\Temp\ccI3TRm9.s:27856  .debug_str:0000000000014f77 .LASF5865
C:\Users\SOLDER~1\AppData\Local\Temp\ccI3TRm9.s:411    .text.ADC_ResetCalibration:0000000000000000 .LFB22
GAS LISTING C:\Users\SOLDER~1\AppData\Local\Temp\ccI3TRm9.s 			page 93


C:\Users\SOLDER~1\AppData\Local\Temp\ccI3TRm9.s:437    .text.ADC_ResetCalibration:0000000000000022 .LFE22
C:\Users\SOLDER~1\AppData\Local\Temp\ccI3TRm9.s:30578  .debug_str:000000000001fefa .LASF5866
C:\Users\SOLDER~1\AppData\Local\Temp\ccI3TRm9.s:351    .text.ADC_ITConfig:0000000000000000 .LFB21
C:\Users\SOLDER~1\AppData\Local\Temp\ccI3TRm9.s:404    .text.ADC_ITConfig:0000000000000058 .LFE21
C:\Users\SOLDER~1\AppData\Local\Temp\ccI3TRm9.s:29442  .debug_str:000000000001b50b .LASF5867
C:\Users\SOLDER~1\AppData\Local\Temp\ccI3TRm9.s:303    .text.ADC_DMACmd:0000000000000000 .LFB20
C:\Users\SOLDER~1\AppData\Local\Temp\ccI3TRm9.s:344    .text.ADC_DMACmd:000000000000003e .LFE20
C:\Users\SOLDER~1\AppData\Local\Temp\ccI3TRm9.s:32036  .debug_str:0000000000025cf6 .LASF5868
C:\Users\SOLDER~1\AppData\Local\Temp\ccI3TRm9.s:255    .text.ADC_Cmd:0000000000000000 .LFB19
C:\Users\SOLDER~1\AppData\Local\Temp\ccI3TRm9.s:296    .text.ADC_Cmd:000000000000003e .LFE19
C:\Users\SOLDER~1\AppData\Local\Temp\ccI3TRm9.s:31450  .debug_str:000000000002370c .LASF5869
C:\Users\SOLDER~1\AppData\Local\Temp\ccI3TRm9.s:210    .text.ADC_StructInit:0000000000000000 .LFB18
C:\Users\SOLDER~1\AppData\Local\Temp\ccI3TRm9.s:248    .text.ADC_StructInit:0000000000000042 .LFE18
C:\Users\SOLDER~1\AppData\Local\Temp\ccI3TRm9.s:26240  .debug_str:000000000000e652 .LASF5870
C:\Users\SOLDER~1\AppData\Local\Temp\ccI3TRm9.s:23588  .debug_str:0000000000003973 .LASF5871
C:\Users\SOLDER~1\AppData\Local\Temp\ccI3TRm9.s:76     .text.ADC_Init:0000000000000000 .LFB17
C:\Users\SOLDER~1\AppData\Local\Temp\ccI3TRm9.s:203    .text.ADC_Init:0000000000000100 .LFE17
C:\Users\SOLDER~1\AppData\Local\Temp\ccI3TRm9.s:27264  .debug_str:00000000000127a2 .LASF5875
C:\Users\SOLDER~1\AppData\Local\Temp\ccI3TRm9.s:15     .text.ADC_DeInit:0000000000000000 .LFB16
C:\Users\SOLDER~1\AppData\Local\Temp\ccI3TRm9.s:69     .text.ADC_DeInit:0000000000000070 .LFE16
C:\Users\SOLDER~1\AppData\Local\Temp\ccI3TRm9.s:2745   .debug_info:0000000000000000 .Ldebug_info0
C:\Users\SOLDER~1\AppData\Local\Temp\ccI3TRm9.s:5435   .debug_macro:0000000000000000 .Ldebug_macro2
C:\Users\SOLDER~1\AppData\Local\Temp\ccI3TRm9.s:24678  .debug_str:0000000000007f71 .LASF318
C:\Users\SOLDER~1\AppData\Local\Temp\ccI3TRm9.s:6388   .debug_macro:0000000000000000 .Ldebug_macro3
C:\Users\SOLDER~1\AppData\Local\Temp\ccI3TRm9.s:29164  .debug_str:000000000001a395 .LASF336
C:\Users\SOLDER~1\AppData\Local\Temp\ccI3TRm9.s:23762  .debug_str:0000000000004435 .LASF337
C:\Users\SOLDER~1\AppData\Local\Temp\ccI3TRm9.s:31170  .debug_str:00000000000224f2 .LASF338
C:\Users\SOLDER~1\AppData\Local\Temp\ccI3TRm9.s:6444   .debug_macro:0000000000000000 .Ldebug_macro4
C:\Users\SOLDER~1\AppData\Local\Temp\ccI3TRm9.s:6464   .debug_macro:0000000000000000 .Ldebug_macro5
C:\Users\SOLDER~1\AppData\Local\Temp\ccI3TRm9.s:6529   .debug_macro:0000000000000000 .Ldebug_macro6
C:\Users\SOLDER~1\AppData\Local\Temp\ccI3TRm9.s:6570   .debug_macro:0000000000000000 .Ldebug_macro7
C:\Users\SOLDER~1\AppData\Local\Temp\ccI3TRm9.s:6695   .debug_macro:0000000000000000 .Ldebug_macro8
C:\Users\SOLDER~1\AppData\Local\Temp\ccI3TRm9.s:6751   .debug_macro:0000000000000000 .Ldebug_macro9
C:\Users\SOLDER~1\AppData\Local\Temp\ccI3TRm9.s:23074  .debug_str:0000000000001800 .LASF493
C:\Users\SOLDER~1\AppData\Local\Temp\ccI3TRm9.s:6963   .debug_macro:0000000000000000 .Ldebug_macro10
C:\Users\SOLDER~1\AppData\Local\Temp\ccI3TRm9.s:7001   .debug_macro:0000000000000000 .Ldebug_macro11
C:\Users\SOLDER~1\AppData\Local\Temp\ccI3TRm9.s:23344  .debug_str:0000000000002a24 .LASF4592
C:\Users\SOLDER~1\AppData\Local\Temp\ccI3TRm9.s:32594  .debug_str:0000000000028217 .LASF4593
C:\Users\SOLDER~1\AppData\Local\Temp\ccI3TRm9.s:19267  .debug_macro:0000000000000000 .Ldebug_macro12
C:\Users\SOLDER~1\AppData\Local\Temp\ccI3TRm9.s:19416  .debug_macro:0000000000000000 .Ldebug_macro13
C:\Users\SOLDER~1\AppData\Local\Temp\ccI3TRm9.s:28308  .debug_str:0000000000016c27 .LASF4758
C:\Users\SOLDER~1\AppData\Local\Temp\ccI3TRm9.s:19769  .debug_macro:0000000000000000 .Ldebug_macro14
C:\Users\SOLDER~1\AppData\Local\Temp\ccI3TRm9.s:19834  .debug_macro:0000000000000000 .Ldebug_macro15
C:\Users\SOLDER~1\AppData\Local\Temp\ccI3TRm9.s:20103  .debug_macro:0000000000000000 .Ldebug_macro16
C:\Users\SOLDER~1\AppData\Local\Temp\ccI3TRm9.s:20174  .debug_macro:0000000000000000 .Ldebug_macro17
C:\Users\SOLDER~1\AppData\Local\Temp\ccI3TRm9.s:20338  .debug_macro:0000000000000000 .Ldebug_macro18
C:\Users\SOLDER~1\AppData\Local\Temp\ccI3TRm9.s:20610  .debug_macro:0000000000000000 .Ldebug_macro19
C:\Users\SOLDER~1\AppData\Local\Temp\ccI3TRm9.s:20861  .debug_macro:0000000000000000 .Ldebug_macro20
C:\Users\SOLDER~1\AppData\Local\Temp\ccI3TRm9.s:20902  .debug_macro:0000000000000000 .Ldebug_macro21
C:\Users\SOLDER~1\AppData\Local\Temp\ccI3TRm9.s:20955  .debug_macro:0000000000000000 .Ldebug_macro22
C:\Users\SOLDER~1\AppData\Local\Temp\ccI3TRm9.s:21356  .debug_macro:0000000000000000 .Ldebug_macro23
C:\Users\SOLDER~1\AppData\Local\Temp\ccI3TRm9.s:21388  .debug_macro:0000000000000000 .Ldebug_macro24
C:\Users\SOLDER~1\AppData\Local\Temp\ccI3TRm9.s:21618  .debug_macro:0000000000000000 .Ldebug_macro25
C:\Users\SOLDER~1\AppData\Local\Temp\ccI3TRm9.s:22214  .debug_macro:0000000000000000 .Ldebug_macro26
C:\Users\SOLDER~1\AppData\Local\Temp\ccI3TRm9.s:22384  .debug_macro:0000000000000000 .Ldebug_macro27
C:\Users\SOLDER~1\AppData\Local\Temp\ccI3TRm9.s:22404  .debug_macro:0000000000000000 .Ldebug_macro28
C:\Users\SOLDER~1\AppData\Local\Temp\ccI3TRm9.s:22427  .debug_macro:0000000000000000 .Ldebug_macro29
GAS LISTING C:\Users\SOLDER~1\AppData\Local\Temp\ccI3TRm9.s 			page 94


C:\Users\SOLDER~1\AppData\Local\Temp\ccI3TRm9.s:29864  .debug_str:000000000001cfd8 .LASF5712
C:\Users\SOLDER~1\AppData\Local\Temp\ccI3TRm9.s:32208  .debug_str:000000000002689c .LASF5713
C:\Users\SOLDER~1\AppData\Local\Temp\ccI3TRm9.s:33510  .debug_str:000000000002bd4a .LASF5714
C:\Users\SOLDER~1\AppData\Local\Temp\ccI3TRm9.s:31864  .debug_str:0000000000025235 .LASF5715
C:\Users\SOLDER~1\AppData\Local\Temp\ccI3TRm9.s:26572  .debug_str:000000000000fb5f .LASF5716
C:\Users\SOLDER~1\AppData\Local\Temp\ccI3TRm9.s:23622  .debug_str:0000000000003ba0 .LASF5717
C:\Users\SOLDER~1\AppData\Local\Temp\ccI3TRm9.s:29466  .debug_str:000000000001b67d .LASF5718
C:\Users\SOLDER~1\AppData\Local\Temp\ccI3TRm9.s:28782  .debug_str:0000000000018aec .LASF5719
C:\Users\SOLDER~1\AppData\Local\Temp\ccI3TRm9.s:30766  .debug_str:0000000000020ad0 .LASF5720
C:\Users\SOLDER~1\AppData\Local\Temp\ccI3TRm9.s:31842  .debug_str:00000000000250b4 .LASF5721
C:\Users\SOLDER~1\AppData\Local\Temp\ccI3TRm9.s:29810  .debug_str:000000000001cc51 .LASF5722
C:\Users\SOLDER~1\AppData\Local\Temp\ccI3TRm9.s:31278  .debug_str:0000000000022b88 .LASF5723
C:\Users\SOLDER~1\AppData\Local\Temp\ccI3TRm9.s:31976  .debug_str:0000000000025933 .LASF5724
C:\Users\SOLDER~1\AppData\Local\Temp\ccI3TRm9.s:33908  .debug_str:000000000002d701 .LASF5725
C:\Users\SOLDER~1\AppData\Local\Temp\ccI3TRm9.s:24934  .debug_str:0000000000009003 .LASF5726
C:\Users\SOLDER~1\AppData\Local\Temp\ccI3TRm9.s:28974  .debug_str:0000000000019783 .LASF5727
C:\Users\SOLDER~1\AppData\Local\Temp\ccI3TRm9.s:26728  .debug_str:000000000001058d .LASF5728
C:\Users\SOLDER~1\AppData\Local\Temp\ccI3TRm9.s:32144  .debug_str:0000000000026447 .LASF5729
C:\Users\SOLDER~1\AppData\Local\Temp\ccI3TRm9.s:29564  .debug_str:000000000001bc95 .LASF5730
C:\Users\SOLDER~1\AppData\Local\Temp\ccI3TRm9.s:31190  .debug_str:0000000000022618 .LASF5731
C:\Users\SOLDER~1\AppData\Local\Temp\ccI3TRm9.s:30052  .debug_str:000000000001dc30 .LASF5732
C:\Users\SOLDER~1\AppData\Local\Temp\ccI3TRm9.s:27658  .debug_str:00000000000141e7 .LASF5733
C:\Users\SOLDER~1\AppData\Local\Temp\ccI3TRm9.s:34238  .debug_str:000000000002ec45 .LASF5734
C:\Users\SOLDER~1\AppData\Local\Temp\ccI3TRm9.s:23770  .debug_str:00000000000044ae .LASF5735
C:\Users\SOLDER~1\AppData\Local\Temp\ccI3TRm9.s:29050  .debug_str:0000000000019ca2 .LASF5736
C:\Users\SOLDER~1\AppData\Local\Temp\ccI3TRm9.s:31640  .debug_str:000000000002434f .LASF5737
C:\Users\SOLDER~1\AppData\Local\Temp\ccI3TRm9.s:31532  .debug_str:0000000000023c7f .LASF5738
C:\Users\SOLDER~1\AppData\Local\Temp\ccI3TRm9.s:25280  .debug_str:000000000000a6f6 .LASF5739
C:\Users\SOLDER~1\AppData\Local\Temp\ccI3TRm9.s:27204  .debug_str:00000000000123e8 .LASF5740
C:\Users\SOLDER~1\AppData\Local\Temp\ccI3TRm9.s:28524  .debug_str:0000000000017a34 .LASF5741
C:\Users\SOLDER~1\AppData\Local\Temp\ccI3TRm9.s:28832  .debug_str:0000000000018e09 .LASF5742
C:\Users\SOLDER~1\AppData\Local\Temp\ccI3TRm9.s:30814  .debug_str:0000000000020df9 .LASF5743
C:\Users\SOLDER~1\AppData\Local\Temp\ccI3TRm9.s:34056  .debug_str:000000000002e0e1 .LASF5744
C:\Users\SOLDER~1\AppData\Local\Temp\ccI3TRm9.s:23986  .debug_str:0000000000005231 .LASF5745
C:\Users\SOLDER~1\AppData\Local\Temp\ccI3TRm9.s:24708  .debug_str:0000000000008176 .LASF5746
C:\Users\SOLDER~1\AppData\Local\Temp\ccI3TRm9.s:33466  .debug_str:000000000002baa2 .LASF5747
C:\Users\SOLDER~1\AppData\Local\Temp\ccI3TRm9.s:32568  .debug_str:000000000002808c .LASF5748
C:\Users\SOLDER~1\AppData\Local\Temp\ccI3TRm9.s:30078  .debug_str:000000000001de15 .LASF5749
C:\Users\SOLDER~1\AppData\Local\Temp\ccI3TRm9.s:25544  .debug_str:000000000000b834 .LASF5750
C:\Users\SOLDER~1\AppData\Local\Temp\ccI3TRm9.s:33080  .debug_str:000000000002a15b .LASF5751
C:\Users\SOLDER~1\AppData\Local\Temp\ccI3TRm9.s:25748  .debug_str:000000000000c561 .LASF5752
C:\Users\SOLDER~1\AppData\Local\Temp\ccI3TRm9.s:24146  .debug_str:0000000000005cb8 .LASF2
C:\Users\SOLDER~1\AppData\Local\Temp\ccI3TRm9.s:33180  .debug_str:000000000002a7d6 .LASF3
C:\Users\SOLDER~1\AppData\Local\Temp\ccI3TRm9.s:33556  .debug_str:000000000002c06f .LASF4
C:\Users\SOLDER~1\AppData\Local\Temp\ccI3TRm9.s:26912  .debug_str:0000000000011165 .LASF5
C:\Users\SOLDER~1\AppData\Local\Temp\ccI3TRm9.s:28282  .debug_str:0000000000016a84 .LASF6
C:\Users\SOLDER~1\AppData\Local\Temp\ccI3TRm9.s:33982  .debug_str:000000000002dc48 .LASF7
C:\Users\SOLDER~1\AppData\Local\Temp\ccI3TRm9.s:26974  .debug_str:0000000000011539 .LASF8
C:\Users\SOLDER~1\AppData\Local\Temp\ccI3TRm9.s:27726  .debug_str:00000000000146c8 .LASF9
C:\Users\SOLDER~1\AppData\Local\Temp\ccI3TRm9.s:24892  .debug_str:0000000000008d3e .LASF10
C:\Users\SOLDER~1\AppData\Local\Temp\ccI3TRm9.s:32874  .debug_str:00000000000294b0 .LASF11
C:\Users\SOLDER~1\AppData\Local\Temp\ccI3TRm9.s:29350  .debug_str:000000000001af6c .LASF12
C:\Users\SOLDER~1\AppData\Local\Temp\ccI3TRm9.s:29212  .debug_str:000000000001a696 .LASF13
C:\Users\SOLDER~1\AppData\Local\Temp\ccI3TRm9.s:31792  .debug_str:0000000000024d75 .LASF14
C:\Users\SOLDER~1\AppData\Local\Temp\ccI3TRm9.s:29232  .debug_str:000000000001a7d2 .LASF15
C:\Users\SOLDER~1\AppData\Local\Temp\ccI3TRm9.s:25386  .debug_str:000000000000adda .LASF16
C:\Users\SOLDER~1\AppData\Local\Temp\ccI3TRm9.s:30664  .debug_str:0000000000020429 .LASF17
GAS LISTING C:\Users\SOLDER~1\AppData\Local\Temp\ccI3TRm9.s 			page 95


C:\Users\SOLDER~1\AppData\Local\Temp\ccI3TRm9.s:31394  .debug_str:0000000000023389 .LASF18
C:\Users\SOLDER~1\AppData\Local\Temp\ccI3TRm9.s:25432  .debug_str:000000000000b0e9 .LASF19
C:\Users\SOLDER~1\AppData\Local\Temp\ccI3TRm9.s:24302  .debug_str:00000000000066e9 .LASF20
C:\Users\SOLDER~1\AppData\Local\Temp\ccI3TRm9.s:26440  .debug_str:000000000000f2d7 .LASF21
C:\Users\SOLDER~1\AppData\Local\Temp\ccI3TRm9.s:32280  .debug_str:0000000000026d8e .LASF22
C:\Users\SOLDER~1\AppData\Local\Temp\ccI3TRm9.s:29040  .debug_str:0000000000019c31 .LASF23
C:\Users\SOLDER~1\AppData\Local\Temp\ccI3TRm9.s:29038  .debug_str:0000000000019c17 .LASF24
C:\Users\SOLDER~1\AppData\Local\Temp\ccI3TRm9.s:31712  .debug_str:0000000000024813 .LASF25
C:\Users\SOLDER~1\AppData\Local\Temp\ccI3TRm9.s:32396  .debug_str:0000000000027556 .LASF26
C:\Users\SOLDER~1\AppData\Local\Temp\ccI3TRm9.s:23648  .debug_str:0000000000003d25 .LASF27
C:\Users\SOLDER~1\AppData\Local\Temp\ccI3TRm9.s:28426  .debug_str:0000000000017372 .LASF28
C:\Users\SOLDER~1\AppData\Local\Temp\ccI3TRm9.s:31604  .debug_str:0000000000024110 .LASF29
C:\Users\SOLDER~1\AppData\Local\Temp\ccI3TRm9.s:31404  .debug_str:0000000000023431 .LASF30
C:\Users\SOLDER~1\AppData\Local\Temp\ccI3TRm9.s:24088  .debug_str:00000000000058a4 .LASF31
C:\Users\SOLDER~1\AppData\Local\Temp\ccI3TRm9.s:30448  .debug_str:000000000001f619 .LASF32
C:\Users\SOLDER~1\AppData\Local\Temp\ccI3TRm9.s:23030  .debug_str:0000000000001575 .LASF33
C:\Users\SOLDER~1\AppData\Local\Temp\ccI3TRm9.s:27140  .debug_str:0000000000011ffa .LASF34
C:\Users\SOLDER~1\AppData\Local\Temp\ccI3TRm9.s:28096  .debug_str:0000000000015eea .LASF35
C:\Users\SOLDER~1\AppData\Local\Temp\ccI3TRm9.s:26196  .debug_str:000000000000e301 .LASF36
C:\Users\SOLDER~1\AppData\Local\Temp\ccI3TRm9.s:25258  .debug_str:000000000000a58a .LASF37
C:\Users\SOLDER~1\AppData\Local\Temp\ccI3TRm9.s:25110  .debug_str:0000000000009bbf .LASF38
C:\Users\SOLDER~1\AppData\Local\Temp\ccI3TRm9.s:26464  .debug_str:000000000000f44a .LASF39
C:\Users\SOLDER~1\AppData\Local\Temp\ccI3TRm9.s:29460  .debug_str:000000000001b61d .LASF40
C:\Users\SOLDER~1\AppData\Local\Temp\ccI3TRm9.s:24632  .debug_str:0000000000007c61 .LASF41
C:\Users\SOLDER~1\AppData\Local\Temp\ccI3TRm9.s:26846  .debug_str:0000000000010d35 .LASF42
C:\Users\SOLDER~1\AppData\Local\Temp\ccI3TRm9.s:23614  .debug_str:0000000000003b1b .LASF43
C:\Users\SOLDER~1\AppData\Local\Temp\ccI3TRm9.s:23398  .debug_str:0000000000002d62 .LASF44
C:\Users\SOLDER~1\AppData\Local\Temp\ccI3TRm9.s:26532  .debug_str:000000000000f89e .LASF45
C:\Users\SOLDER~1\AppData\Local\Temp\ccI3TRm9.s:27454  .debug_str:0000000000013403 .LASF46
C:\Users\SOLDER~1\AppData\Local\Temp\ccI3TRm9.s:32000  .debug_str:0000000000025ad8 .LASF47
C:\Users\SOLDER~1\AppData\Local\Temp\ccI3TRm9.s:29450  .debug_str:000000000001b572 .LASF48
C:\Users\SOLDER~1\AppData\Local\Temp\ccI3TRm9.s:27302  .debug_str:0000000000012a34 .LASF49
C:\Users\SOLDER~1\AppData\Local\Temp\ccI3TRm9.s:23918  .debug_str:0000000000004e2c .LASF50
C:\Users\SOLDER~1\AppData\Local\Temp\ccI3TRm9.s:27456  .debug_str:000000000001341c .LASF51
C:\Users\SOLDER~1\AppData\Local\Temp\ccI3TRm9.s:32184  .debug_str:0000000000026716 .LASF52
C:\Users\SOLDER~1\AppData\Local\Temp\ccI3TRm9.s:26194  .debug_str:000000000000e2e1 .LASF53
C:\Users\SOLDER~1\AppData\Local\Temp\ccI3TRm9.s:23242  .debug_str:000000000000234e .LASF54
C:\Users\SOLDER~1\AppData\Local\Temp\ccI3TRm9.s:22736  .debug_str:0000000000000189 .LASF55
C:\Users\SOLDER~1\AppData\Local\Temp\ccI3TRm9.s:33598  .debug_str:000000000002c32e .LASF56
C:\Users\SOLDER~1\AppData\Local\Temp\ccI3TRm9.s:31580  .debug_str:0000000000023fb3 .LASF57
C:\Users\SOLDER~1\AppData\Local\Temp\ccI3TRm9.s:22812  .debug_str:0000000000000720 .LASF58
C:\Users\SOLDER~1\AppData\Local\Temp\ccI3TRm9.s:26806  .debug_str:0000000000010a79 .LASF59
C:\Users\SOLDER~1\AppData\Local\Temp\ccI3TRm9.s:24720  .debug_str:000000000000824a .LASF60
C:\Users\SOLDER~1\AppData\Local\Temp\ccI3TRm9.s:31226  .debug_str:0000000000022841 .LASF61
C:\Users\SOLDER~1\AppData\Local\Temp\ccI3TRm9.s:22982  .debug_str:000000000000124b .LASF62
C:\Users\SOLDER~1\AppData\Local\Temp\ccI3TRm9.s:26074  .debug_str:000000000000db5d .LASF63
C:\Users\SOLDER~1\AppData\Local\Temp\ccI3TRm9.s:29006  .debug_str:00000000000199d1 .LASF64
C:\Users\SOLDER~1\AppData\Local\Temp\ccI3TRm9.s:29826  .debug_str:000000000001cd56 .LASF65
C:\Users\SOLDER~1\AppData\Local\Temp\ccI3TRm9.s:23478  .debug_str:000000000000327e .LASF66
C:\Users\SOLDER~1\AppData\Local\Temp\ccI3TRm9.s:26180  .debug_str:000000000000e20c .LASF67
C:\Users\SOLDER~1\AppData\Local\Temp\ccI3TRm9.s:25908  .debug_str:000000000000d07b .LASF68
C:\Users\SOLDER~1\AppData\Local\Temp\ccI3TRm9.s:29440  .debug_str:000000000001b4f7 .LASF69
C:\Users\SOLDER~1\AppData\Local\Temp\ccI3TRm9.s:28092  .debug_str:0000000000015ea3 .LASF70
C:\Users\SOLDER~1\AppData\Local\Temp\ccI3TRm9.s:33354  .debug_str:000000000002b2fc .LASF71
C:\Users\SOLDER~1\AppData\Local\Temp\ccI3TRm9.s:33824  .debug_str:000000000002d1c6 .LASF72
C:\Users\SOLDER~1\AppData\Local\Temp\ccI3TRm9.s:27258  .debug_str:0000000000012759 .LASF73
C:\Users\SOLDER~1\AppData\Local\Temp\ccI3TRm9.s:26352  .debug_str:000000000000ed67 .LASF74
GAS LISTING C:\Users\SOLDER~1\AppData\Local\Temp\ccI3TRm9.s 			page 96


C:\Users\SOLDER~1\AppData\Local\Temp\ccI3TRm9.s:23936  .debug_str:0000000000004f46 .LASF75
C:\Users\SOLDER~1\AppData\Local\Temp\ccI3TRm9.s:27292  .debug_str:000000000001299a .LASF76
C:\Users\SOLDER~1\AppData\Local\Temp\ccI3TRm9.s:25828  .debug_str:000000000000cb0b .LASF77
C:\Users\SOLDER~1\AppData\Local\Temp\ccI3TRm9.s:27546  .debug_str:0000000000013a1e .LASF78
C:\Users\SOLDER~1\AppData\Local\Temp\ccI3TRm9.s:28098  .debug_str:0000000000015f18 .LASF79
C:\Users\SOLDER~1\AppData\Local\Temp\ccI3TRm9.s:27486  .debug_str:0000000000013630 .LASF80
C:\Users\SOLDER~1\AppData\Local\Temp\ccI3TRm9.s:32088  .debug_str:000000000002608d .LASF81
C:\Users\SOLDER~1\AppData\Local\Temp\ccI3TRm9.s:29956  .debug_str:000000000001d608 .LASF82
C:\Users\SOLDER~1\AppData\Local\Temp\ccI3TRm9.s:30412  .debug_str:000000000001f3e8 .LASF83
C:\Users\SOLDER~1\AppData\Local\Temp\ccI3TRm9.s:33340  .debug_str:000000000002b210 .LASF84
C:\Users\SOLDER~1\AppData\Local\Temp\ccI3TRm9.s:25206  .debug_str:000000000000a1ff .LASF85
C:\Users\SOLDER~1\AppData\Local\Temp\ccI3TRm9.s:33484  .debug_str:000000000002bbc8 .LASF86
C:\Users\SOLDER~1\AppData\Local\Temp\ccI3TRm9.s:27294  .debug_str:00000000000129c1 .LASF87
C:\Users\SOLDER~1\AppData\Local\Temp\ccI3TRm9.s:29468  .debug_str:000000000001b6a8 .LASF88
C:\Users\SOLDER~1\AppData\Local\Temp\ccI3TRm9.s:24448  .debug_str:00000000000070d5 .LASF89
C:\Users\SOLDER~1\AppData\Local\Temp\ccI3TRm9.s:33818  .debug_str:000000000002d164 .LASF90
C:\Users\SOLDER~1\AppData\Local\Temp\ccI3TRm9.s:33512  .debug_str:000000000002bd74 .LASF91
C:\Users\SOLDER~1\AppData\Local\Temp\ccI3TRm9.s:30836  .debug_str:0000000000020f5b .LASF92
C:\Users\SOLDER~1\AppData\Local\Temp\ccI3TRm9.s:29540  .debug_str:000000000001bb3c .LASF93
C:\Users\SOLDER~1\AppData\Local\Temp\ccI3TRm9.s:30860  .debug_str:00000000000210f6 .LASF94
C:\Users\SOLDER~1\AppData\Local\Temp\ccI3TRm9.s:31896  .debug_str:000000000002543b .LASF95
C:\Users\SOLDER~1\AppData\Local\Temp\ccI3TRm9.s:32500  .debug_str:0000000000027c36 .LASF96
C:\Users\SOLDER~1\AppData\Local\Temp\ccI3TRm9.s:25292  .debug_str:000000000000a7c0 .LASF97
C:\Users\SOLDER~1\AppData\Local\Temp\ccI3TRm9.s:31706  .debug_str:0000000000024798 .LASF98
C:\Users\SOLDER~1\AppData\Local\Temp\ccI3TRm9.s:27790  .debug_str:0000000000014b23 .LASF99
C:\Users\SOLDER~1\AppData\Local\Temp\ccI3TRm9.s:31878  .debug_str:0000000000025329 .LASF100
C:\Users\SOLDER~1\AppData\Local\Temp\ccI3TRm9.s:34020  .debug_str:000000000002deb1 .LASF101
C:\Users\SOLDER~1\AppData\Local\Temp\ccI3TRm9.s:27388  .debug_str:0000000000012fce .LASF102
C:\Users\SOLDER~1\AppData\Local\Temp\ccI3TRm9.s:31416  .debug_str:00000000000234e2 .LASF103
C:\Users\SOLDER~1\AppData\Local\Temp\ccI3TRm9.s:30022  .debug_str:000000000001da77 .LASF104
C:\Users\SOLDER~1\AppData\Local\Temp\ccI3TRm9.s:26864  .debug_str:0000000000010e48 .LASF105
C:\Users\SOLDER~1\AppData\Local\Temp\ccI3TRm9.s:24544  .debug_str:00000000000076d3 .LASF106
C:\Users\SOLDER~1\AppData\Local\Temp\ccI3TRm9.s:27134  .debug_str:0000000000011f85 .LASF107
C:\Users\SOLDER~1\AppData\Local\Temp\ccI3TRm9.s:26100  .debug_str:000000000000dcd4 .LASF108
C:\Users\SOLDER~1\AppData\Local\Temp\ccI3TRm9.s:27310  .debug_str:0000000000012ac4 .LASF109
C:\Users\SOLDER~1\AppData\Local\Temp\ccI3TRm9.s:23968  .debug_str:000000000000511f .LASF110
C:\Users\SOLDER~1\AppData\Local\Temp\ccI3TRm9.s:27128  .debug_str:0000000000011f2f .LASF111
C:\Users\SOLDER~1\AppData\Local\Temp\ccI3TRm9.s:26096  .debug_str:000000000000dc9f .LASF112
C:\Users\SOLDER~1\AppData\Local\Temp\ccI3TRm9.s:27606  .debug_str:0000000000013e61 .LASF113
C:\Users\SOLDER~1\AppData\Local\Temp\ccI3TRm9.s:26490  .debug_str:000000000000f5e7 .LASF114
C:\Users\SOLDER~1\AppData\Local\Temp\ccI3TRm9.s:29092  .debug_str:0000000000019f10 .LASF115
C:\Users\SOLDER~1\AppData\Local\Temp\ccI3TRm9.s:25572  .debug_str:000000000000b9ec .LASF116
C:\Users\SOLDER~1\AppData\Local\Temp\ccI3TRm9.s:25288  .debug_str:000000000000a773 .LASF117
C:\Users\SOLDER~1\AppData\Local\Temp\ccI3TRm9.s:26662  .debug_str:00000000000101ac .LASF118
C:\Users\SOLDER~1\AppData\Local\Temp\ccI3TRm9.s:33392  .debug_str:000000000002b5a8 .LASF119
C:\Users\SOLDER~1\AppData\Local\Temp\ccI3TRm9.s:28616  .debug_str:0000000000018005 .LASF120
C:\Users\SOLDER~1\AppData\Local\Temp\ccI3TRm9.s:25050  .debug_str:00000000000097d8 .LASF121
C:\Users\SOLDER~1\AppData\Local\Temp\ccI3TRm9.s:29804  .debug_str:000000000001cbf5 .LASF122
C:\Users\SOLDER~1\AppData\Local\Temp\ccI3TRm9.s:34154  .debug_str:000000000002e74f .LASF123
C:\Users\SOLDER~1\AppData\Local\Temp\ccI3TRm9.s:26406  .debug_str:000000000000f0a2 .LASF124
C:\Users\SOLDER~1\AppData\Local\Temp\ccI3TRm9.s:32074  .debug_str:0000000000025f77 .LASF125
C:\Users\SOLDER~1\AppData\Local\Temp\ccI3TRm9.s:25878  .debug_str:000000000000ce8b .LASF126
C:\Users\SOLDER~1\AppData\Local\Temp\ccI3TRm9.s:25976  .debug_str:000000000000d4f2 .LASF127
C:\Users\SOLDER~1\AppData\Local\Temp\ccI3TRm9.s:23582  .debug_str:0000000000003920 .LASF128
C:\Users\SOLDER~1\AppData\Local\Temp\ccI3TRm9.s:23886  .debug_str:0000000000004c39 .LASF129
C:\Users\SOLDER~1\AppData\Local\Temp\ccI3TRm9.s:33070  .debug_str:000000000002a0cd .LASF130
C:\Users\SOLDER~1\AppData\Local\Temp\ccI3TRm9.s:27314  .debug_str:0000000000012adc .LASF131
GAS LISTING C:\Users\SOLDER~1\AppData\Local\Temp\ccI3TRm9.s 			page 97


C:\Users\SOLDER~1\AppData\Local\Temp\ccI3TRm9.s:30228  .debug_str:000000000001e7a4 .LASF132
C:\Users\SOLDER~1\AppData\Local\Temp\ccI3TRm9.s:25120  .debug_str:0000000000009c61 .LASF133
C:\Users\SOLDER~1\AppData\Local\Temp\ccI3TRm9.s:32608  .debug_str:00000000000282e0 .LASF134
C:\Users\SOLDER~1\AppData\Local\Temp\ccI3TRm9.s:27738  .debug_str:0000000000014795 .LASF135
C:\Users\SOLDER~1\AppData\Local\Temp\ccI3TRm9.s:32738  .debug_str:0000000000028bcb .LASF136
C:\Users\SOLDER~1\AppData\Local\Temp\ccI3TRm9.s:26384  .debug_str:000000000000ef1b .LASF137
C:\Users\SOLDER~1\AppData\Local\Temp\ccI3TRm9.s:31990  .debug_str:0000000000025a1e .LASF138
C:\Users\SOLDER~1\AppData\Local\Temp\ccI3TRm9.s:23872  .debug_str:0000000000004b2c .LASF139
C:\Users\SOLDER~1\AppData\Local\Temp\ccI3TRm9.s:24762  .debug_str:00000000000084f8 .LASF140
C:\Users\SOLDER~1\AppData\Local\Temp\ccI3TRm9.s:33816  .debug_str:000000000002d150 .LASF141
C:\Users\SOLDER~1\AppData\Local\Temp\ccI3TRm9.s:29696  .debug_str:000000000001c4b5 .LASF142
C:\Users\SOLDER~1\AppData\Local\Temp\ccI3TRm9.s:33286  .debug_str:000000000002aef1 .LASF143
C:\Users\SOLDER~1\AppData\Local\Temp\ccI3TRm9.s:32372  .debug_str:00000000000273d5 .LASF144
C:\Users\SOLDER~1\AppData\Local\Temp\ccI3TRm9.s:29904  .debug_str:000000000001d2a5 .LASF145
C:\Users\SOLDER~1\AppData\Local\Temp\ccI3TRm9.s:25244  .debug_str:000000000000a48a .LASF146
C:\Users\SOLDER~1\AppData\Local\Temp\ccI3TRm9.s:27540  .debug_str:00000000000139c4 .LASF147
C:\Users\SOLDER~1\AppData\Local\Temp\ccI3TRm9.s:23682  .debug_str:0000000000003f32 .LASF148
C:\Users\SOLDER~1\AppData\Local\Temp\ccI3TRm9.s:28106  .debug_str:0000000000015f70 .LASF149
C:\Users\SOLDER~1\AppData\Local\Temp\ccI3TRm9.s:25934  .debug_str:000000000000d222 .LASF150
C:\Users\SOLDER~1\AppData\Local\Temp\ccI3TRm9.s:23934  .debug_str:0000000000004f2f .LASF151
C:\Users\SOLDER~1\AppData\Local\Temp\ccI3TRm9.s:26528  .debug_str:000000000000f860 .LASF152
C:\Users\SOLDER~1\AppData\Local\Temp\ccI3TRm9.s:29044  .debug_str:0000000000019c61 .LASF153
C:\Users\SOLDER~1\AppData\Local\Temp\ccI3TRm9.s:22802  .debug_str:000000000000068e .LASF154
C:\Users\SOLDER~1\AppData\Local\Temp\ccI3TRm9.s:31406  .debug_str:000000000002344b .LASF155
C:\Users\SOLDER~1\AppData\Local\Temp\ccI3TRm9.s:27596  .debug_str:0000000000013d96 .LASF156
C:\Users\SOLDER~1\AppData\Local\Temp\ccI3TRm9.s:32374  .debug_str:00000000000273ed .LASF157
C:\Users\SOLDER~1\AppData\Local\Temp\ccI3TRm9.s:30120  .debug_str:000000000001e083 .LASF158
C:\Users\SOLDER~1\AppData\Local\Temp\ccI3TRm9.s:32310  .debug_str:0000000000026f80 .LASF159
C:\Users\SOLDER~1\AppData\Local\Temp\ccI3TRm9.s:32992  .debug_str:0000000000029bb0 .LASF160
C:\Users\SOLDER~1\AppData\Local\Temp\ccI3TRm9.s:30266  .debug_str:000000000001ea07 .LASF161
C:\Users\SOLDER~1\AppData\Local\Temp\ccI3TRm9.s:25808  .debug_str:000000000000c9a9 .LASF162
C:\Users\SOLDER~1\AppData\Local\Temp\ccI3TRm9.s:24864  .debug_str:0000000000008b6f .LASF163
C:\Users\SOLDER~1\AppData\Local\Temp\ccI3TRm9.s:23736  .debug_str:000000000000429e .LASF164
C:\Users\SOLDER~1\AppData\Local\Temp\ccI3TRm9.s:29742  .debug_str:000000000001c7ec .LASF165
C:\Users\SOLDER~1\AppData\Local\Temp\ccI3TRm9.s:31218  .debug_str:00000000000227e4 .LASF166
C:\Users\SOLDER~1\AppData\Local\Temp\ccI3TRm9.s:32866  .debug_str:0000000000029431 .LASF167
C:\Users\SOLDER~1\AppData\Local\Temp\ccI3TRm9.s:31980  .debug_str:0000000000025964 .LASF168
C:\Users\SOLDER~1\AppData\Local\Temp\ccI3TRm9.s:33716  .debug_str:000000000002caec .LASF169
C:\Users\SOLDER~1\AppData\Local\Temp\ccI3TRm9.s:24622  .debug_str:0000000000007bb1 .LASF170
C:\Users\SOLDER~1\AppData\Local\Temp\ccI3TRm9.s:33384  .debug_str:000000000002b528 .LASF171
C:\Users\SOLDER~1\AppData\Local\Temp\ccI3TRm9.s:25012  .debug_str:000000000000954a .LASF172
C:\Users\SOLDER~1\AppData\Local\Temp\ccI3TRm9.s:29600  .debug_str:000000000001be7a .LASF173
C:\Users\SOLDER~1\AppData\Local\Temp\ccI3TRm9.s:28846  .debug_str:0000000000018eeb .LASF174
C:\Users\SOLDER~1\AppData\Local\Temp\ccI3TRm9.s:32798  .debug_str:0000000000028f9c .LASF175
C:\Users\SOLDER~1\AppData\Local\Temp\ccI3TRm9.s:28464  .debug_str:00000000000175fa .LASF176
C:\Users\SOLDER~1\AppData\Local\Temp\ccI3TRm9.s:30032  .debug_str:000000000001db0b .LASF177
C:\Users\SOLDER~1\AppData\Local\Temp\ccI3TRm9.s:25240  .debug_str:000000000000a45c .LASF178
C:\Users\SOLDER~1\AppData\Local\Temp\ccI3TRm9.s:27256  .debug_str:0000000000012741 .LASF179
C:\Users\SOLDER~1\AppData\Local\Temp\ccI3TRm9.s:29168  .debug_str:000000000001a3c3 .LASF180
C:\Users\SOLDER~1\AppData\Local\Temp\ccI3TRm9.s:24272  .debug_str:0000000000006503 .LASF181
C:\Users\SOLDER~1\AppData\Local\Temp\ccI3TRm9.s:25094  .debug_str:0000000000009acc .LASF182
C:\Users\SOLDER~1\AppData\Local\Temp\ccI3TRm9.s:23728  .debug_str:0000000000004226 .LASF183
C:\Users\SOLDER~1\AppData\Local\Temp\ccI3TRm9.s:29226  .debug_str:000000000001a773 .LASF184
C:\Users\SOLDER~1\AppData\Local\Temp\ccI3TRm9.s:27740  .debug_str:00000000000147ad .LASF185
C:\Users\SOLDER~1\AppData\Local\Temp\ccI3TRm9.s:23236  .debug_str:00000000000022de .LASF186
C:\Users\SOLDER~1\AppData\Local\Temp\ccI3TRm9.s:34018  .debug_str:000000000002de9e .LASF187
C:\Users\SOLDER~1\AppData\Local\Temp\ccI3TRm9.s:23014  .debug_str:0000000000001480 .LASF188
GAS LISTING C:\Users\SOLDER~1\AppData\Local\Temp\ccI3TRm9.s 			page 98


C:\Users\SOLDER~1\AppData\Local\Temp\ccI3TRm9.s:27718  .debug_str:000000000001462e .LASF189
C:\Users\SOLDER~1\AppData\Local\Temp\ccI3TRm9.s:28174  .debug_str:00000000000163c9 .LASF190
C:\Users\SOLDER~1\AppData\Local\Temp\ccI3TRm9.s:33212  .debug_str:000000000002a9e8 .LASF191
C:\Users\SOLDER~1\AppData\Local\Temp\ccI3TRm9.s:26132  .debug_str:000000000000ded9 .LASF192
C:\Users\SOLDER~1\AppData\Local\Temp\ccI3TRm9.s:33686  .debug_str:000000000002c8c5 .LASF193
C:\Users\SOLDER~1\AppData\Local\Temp\ccI3TRm9.s:27684  .debug_str:00000000000143c3 .LASF194
C:\Users\SOLDER~1\AppData\Local\Temp\ccI3TRm9.s:26426  .debug_str:000000000000f207 .LASF195
C:\Users\SOLDER~1\AppData\Local\Temp\ccI3TRm9.s:25446  .debug_str:000000000000b1e2 .LASF196
C:\Users\SOLDER~1\AppData\Local\Temp\ccI3TRm9.s:30324  .debug_str:000000000001edfc .LASF197
C:\Users\SOLDER~1\AppData\Local\Temp\ccI3TRm9.s:33300  .debug_str:000000000002afe4 .LASF198
C:\Users\SOLDER~1\AppData\Local\Temp\ccI3TRm9.s:27976  .debug_str:000000000001573b .LASF199
C:\Users\SOLDER~1\AppData\Local\Temp\ccI3TRm9.s:30526  .debug_str:000000000001fb73 .LASF200
C:\Users\SOLDER~1\AppData\Local\Temp\ccI3TRm9.s:23024  .debug_str:0000000000001522 .LASF201
C:\Users\SOLDER~1\AppData\Local\Temp\ccI3TRm9.s:34260  .debug_str:000000000002eda7 .LASF202
C:\Users\SOLDER~1\AppData\Local\Temp\ccI3TRm9.s:27952  .debug_str:000000000001558e .LASF203
C:\Users\SOLDER~1\AppData\Local\Temp\ccI3TRm9.s:30708  .debug_str:00000000000206fa .LASF204
C:\Users\SOLDER~1\AppData\Local\Temp\ccI3TRm9.s:29246  .debug_str:000000000001a8b5 .LASF205
C:\Users\SOLDER~1\AppData\Local\Temp\ccI3TRm9.s:24320  .debug_str:0000000000006827 .LASF206
C:\Users\SOLDER~1\AppData\Local\Temp\ccI3TRm9.s:27964  .debug_str:0000000000015655 .LASF207
C:\Users\SOLDER~1\AppData\Local\Temp\ccI3TRm9.s:29952  .debug_str:000000000001d5a1 .LASF208
C:\Users\SOLDER~1\AppData\Local\Temp\ccI3TRm9.s:30948  .debug_str:0000000000021685 .LASF209
C:\Users\SOLDER~1\AppData\Local\Temp\ccI3TRm9.s:26754  .debug_str:0000000000010766 .LASF210
C:\Users\SOLDER~1\AppData\Local\Temp\ccI3TRm9.s:32376  .debug_str:0000000000027429 .LASF211
C:\Users\SOLDER~1\AppData\Local\Temp\ccI3TRm9.s:32172  .debug_str:0000000000026632 .LASF212
C:\Users\SOLDER~1\AppData\Local\Temp\ccI3TRm9.s:24566  .debug_str:000000000000783e .LASF213
C:\Users\SOLDER~1\AppData\Local\Temp\ccI3TRm9.s:31670  .debug_str:000000000002455f .LASF214
C:\Users\SOLDER~1\AppData\Local\Temp\ccI3TRm9.s:28262  .debug_str:0000000000016973 .LASF215
C:\Users\SOLDER~1\AppData\Local\Temp\ccI3TRm9.s:24532  .debug_str:000000000000762f .LASF216
C:\Users\SOLDER~1\AppData\Local\Temp\ccI3TRm9.s:24956  .debug_str:0000000000009199 .LASF217
C:\Users\SOLDER~1\AppData\Local\Temp\ccI3TRm9.s:32250  .debug_str:0000000000026ba7 .LASF218
C:\Users\SOLDER~1\AppData\Local\Temp\ccI3TRm9.s:31148  .debug_str:0000000000022389 .LASF219
C:\Users\SOLDER~1\AppData\Local\Temp\ccI3TRm9.s:23334  .debug_str:000000000000298c .LASF220
C:\Users\SOLDER~1\AppData\Local\Temp\ccI3TRm9.s:25088  .debug_str:0000000000009a29 .LASF221
C:\Users\SOLDER~1\AppData\Local\Temp\ccI3TRm9.s:22750  .debug_str:0000000000000279 .LASF222
C:\Users\SOLDER~1\AppData\Local\Temp\ccI3TRm9.s:30742  .debug_str:0000000000020919 .LASF223
C:\Users\SOLDER~1\AppData\Local\Temp\ccI3TRm9.s:25000  .debug_str:0000000000009483 .LASF224
C:\Users\SOLDER~1\AppData\Local\Temp\ccI3TRm9.s:24328  .debug_str:00000000000068da .LASF225
C:\Users\SOLDER~1\AppData\Local\Temp\ccI3TRm9.s:30226  .debug_str:000000000001e78d .LASF226
C:\Users\SOLDER~1\AppData\Local\Temp\ccI3TRm9.s:28364  .debug_str:0000000000016fbd .LASF227
C:\Users\SOLDER~1\AppData\Local\Temp\ccI3TRm9.s:26670  .debug_str:000000000001021c .LASF228
C:\Users\SOLDER~1\AppData\Local\Temp\ccI3TRm9.s:30740  .debug_str:0000000000020900 .LASF229
C:\Users\SOLDER~1\AppData\Local\Temp\ccI3TRm9.s:31800  .debug_str:0000000000024de4 .LASF230
C:\Users\SOLDER~1\AppData\Local\Temp\ccI3TRm9.s:26694  .debug_str:0000000000010392 .LASF231
C:\Users\SOLDER~1\AppData\Local\Temp\ccI3TRm9.s:32604  .debug_str:00000000000282a4 .LASF232
C:\Users\SOLDER~1\AppData\Local\Temp\ccI3TRm9.s:31868  .debug_str:0000000000025286 .LASF233
C:\Users\SOLDER~1\AppData\Local\Temp\ccI3TRm9.s:33664  .debug_str:000000000002c73b .LASF234
C:\Users\SOLDER~1\AppData\Local\Temp\ccI3TRm9.s:24736  .debug_str:0000000000008359 .LASF235
C:\Users\SOLDER~1\AppData\Local\Temp\ccI3TRm9.s:26748  .debug_str:00000000000106fe .LASF236
C:\Users\SOLDER~1\AppData\Local\Temp\ccI3TRm9.s:26202  .debug_str:000000000000e368 .LASF237
C:\Users\SOLDER~1\AppData\Local\Temp\ccI3TRm9.s:32040  .debug_str:0000000000025d21 .LASF238
C:\Users\SOLDER~1\AppData\Local\Temp\ccI3TRm9.s:27580  .debug_str:0000000000013c6a .LASF239
C:\Users\SOLDER~1\AppData\Local\Temp\ccI3TRm9.s:30756  .debug_str:0000000000020a0a .LASF240
C:\Users\SOLDER~1\AppData\Local\Temp\ccI3TRm9.s:23418  .debug_str:0000000000002eb4 .LASF241
C:\Users\SOLDER~1\AppData\Local\Temp\ccI3TRm9.s:28560  .debug_str:0000000000017c4b .LASF242
C:\Users\SOLDER~1\AppData\Local\Temp\ccI3TRm9.s:30048  .debug_str:000000000001dbfb .LASF243
C:\Users\SOLDER~1\AppData\Local\Temp\ccI3TRm9.s:29402  .debug_str:000000000001b2fb .LASF244
C:\Users\SOLDER~1\AppData\Local\Temp\ccI3TRm9.s:33986  .debug_str:000000000002dc7d .LASF245
GAS LISTING C:\Users\SOLDER~1\AppData\Local\Temp\ccI3TRm9.s 			page 99


C:\Users\SOLDER~1\AppData\Local\Temp\ccI3TRm9.s:29980  .debug_str:000000000001d7c5 .LASF246
C:\Users\SOLDER~1\AppData\Local\Temp\ccI3TRm9.s:33098  .debug_str:000000000002a26a .LASF247
C:\Users\SOLDER~1\AppData\Local\Temp\ccI3TRm9.s:26226  .debug_str:000000000000e55d .LASF248
C:\Users\SOLDER~1\AppData\Local\Temp\ccI3TRm9.s:32464  .debug_str:00000000000279b6 .LASF249
C:\Users\SOLDER~1\AppData\Local\Temp\ccI3TRm9.s:26072  .debug_str:000000000000db45 .LASF250
C:\Users\SOLDER~1\AppData\Local\Temp\ccI3TRm9.s:29310  .debug_str:000000000001acf6 .LASF251
C:\Users\SOLDER~1\AppData\Local\Temp\ccI3TRm9.s:26782  .debug_str:000000000001090f .LASF252
C:\Users\SOLDER~1\AppData\Local\Temp\ccI3TRm9.s:22948  .debug_str:0000000000001026 .LASF253
C:\Users\SOLDER~1\AppData\Local\Temp\ccI3TRm9.s:25522  .debug_str:000000000000b6a0 .LASF254
C:\Users\SOLDER~1\AppData\Local\Temp\ccI3TRm9.s:22888  .debug_str:0000000000000c8f .LASF255
C:\Users\SOLDER~1\AppData\Local\Temp\ccI3TRm9.s:25632  .debug_str:000000000000bdba .LASF256
C:\Users\SOLDER~1\AppData\Local\Temp\ccI3TRm9.s:25092  .debug_str:0000000000009a87 .LASF257
C:\Users\SOLDER~1\AppData\Local\Temp\ccI3TRm9.s:34198  .debug_str:000000000002e9f3 .LASF258
C:\Users\SOLDER~1\AppData\Local\Temp\ccI3TRm9.s:29928  .debug_str:000000000001d417 .LASF259
C:\Users\SOLDER~1\AppData\Local\Temp\ccI3TRm9.s:28722  .debug_str:000000000001872c .LASF260
C:\Users\SOLDER~1\AppData\Local\Temp\ccI3TRm9.s:29528  .debug_str:000000000001ba7f .LASF261
C:\Users\SOLDER~1\AppData\Local\Temp\ccI3TRm9.s:26252  .debug_str:000000000000e711 .LASF262
C:\Users\SOLDER~1\AppData\Local\Temp\ccI3TRm9.s:25580  .debug_str:000000000000ba6a .LASF263
C:\Users\SOLDER~1\AppData\Local\Temp\ccI3TRm9.s:33474  .debug_str:000000000002bb17 .LASF264
C:\Users\SOLDER~1\AppData\Local\Temp\ccI3TRm9.s:25894  .debug_str:000000000000cf90 .LASF265
C:\Users\SOLDER~1\AppData\Local\Temp\ccI3TRm9.s:26882  .debug_str:0000000000010f6a .LASF266
C:\Users\SOLDER~1\AppData\Local\Temp\ccI3TRm9.s:28754  .debug_str:0000000000018924 .LASF267
C:\Users\SOLDER~1\AppData\Local\Temp\ccI3TRm9.s:32718  .debug_str:0000000000028aa2 .LASF268
C:\Users\SOLDER~1\AppData\Local\Temp\ccI3TRm9.s:25714  .debug_str:000000000000c305 .LASF269
C:\Users\SOLDER~1\AppData\Local\Temp\ccI3TRm9.s:24422  .debug_str:0000000000006ebb .LASF270
C:\Users\SOLDER~1\AppData\Local\Temp\ccI3TRm9.s:24600  .debug_str:0000000000007a23 .LASF271
C:\Users\SOLDER~1\AppData\Local\Temp\ccI3TRm9.s:25946  .debug_str:000000000000d2f5 .LASF272
C:\Users\SOLDER~1\AppData\Local\Temp\ccI3TRm9.s:25786  .debug_str:000000000000c821 .LASF273
C:\Users\SOLDER~1\AppData\Local\Temp\ccI3TRm9.s:23036  .debug_str:00000000000015d0 .LASF274
C:\Users\SOLDER~1\AppData\Local\Temp\ccI3TRm9.s:24414  .debug_str:0000000000006e48 .LASF275
C:\Users\SOLDER~1\AppData\Local\Temp\ccI3TRm9.s:33410  .debug_str:000000000002b6c4 .LASF276
C:\Users\SOLDER~1\AppData\Local\Temp\ccI3TRm9.s:28344  .debug_str:0000000000016e78 .LASF277
C:\Users\SOLDER~1\AppData\Local\Temp\ccI3TRm9.s:32274  .debug_str:0000000000026d42 .LASF278
C:\Users\SOLDER~1\AppData\Local\Temp\ccI3TRm9.s:24374  .debug_str:0000000000006bd1 .LASF279
C:\Users\SOLDER~1\AppData\Local\Temp\ccI3TRm9.s:24148  .debug_str:0000000000005cc3 .LASF280
C:\Users\SOLDER~1\AppData\Local\Temp\ccI3TRm9.s:24030  .debug_str:00000000000054f1 .LASF281
C:\Users\SOLDER~1\AppData\Local\Temp\ccI3TRm9.s:28788  .debug_str:0000000000018b57 .LASF282
C:\Users\SOLDER~1\AppData\Local\Temp\ccI3TRm9.s:32246  .debug_str:0000000000026b62 .LASF283
C:\Users\SOLDER~1\AppData\Local\Temp\ccI3TRm9.s:32508  .debug_str:0000000000027cad .LASF284
C:\Users\SOLDER~1\AppData\Local\Temp\ccI3TRm9.s:33390  .debug_str:000000000002b58a .LASF285
C:\Users\SOLDER~1\AppData\Local\Temp\ccI3TRm9.s:29990  .debug_str:000000000001d869 .LASF286
C:\Users\SOLDER~1\AppData\Local\Temp\ccI3TRm9.s:34188  .debug_str:000000000002e95f .LASF287
C:\Users\SOLDER~1\AppData\Local\Temp\ccI3TRm9.s:24122  .debug_str:0000000000005b05 .LASF288
C:\Users\SOLDER~1\AppData\Local\Temp\ccI3TRm9.s:27980  .debug_str:0000000000015770 .LASF289
C:\Users\SOLDER~1\AppData\Local\Temp\ccI3TRm9.s:26834  .debug_str:0000000000010c80 .LASF290
C:\Users\SOLDER~1\AppData\Local\Temp\ccI3TRm9.s:34436  .debug_str:000000000002f8a4 .LASF291
C:\Users\SOLDER~1\AppData\Local\Temp\ccI3TRm9.s:33230  .debug_str:000000000002ab43 .LASF292
C:\Users\SOLDER~1\AppData\Local\Temp\ccI3TRm9.s:23956  .debug_str:0000000000005078 .LASF293
C:\Users\SOLDER~1\AppData\Local\Temp\ccI3TRm9.s:22752  .debug_str:00000000000002ba .LASF294
C:\Users\SOLDER~1\AppData\Local\Temp\ccI3TRm9.s:28032  .debug_str:0000000000015ae7 .LASF295
C:\Users\SOLDER~1\AppData\Local\Temp\ccI3TRm9.s:28864  .debug_str:0000000000019039 .LASF296
C:\Users\SOLDER~1\AppData\Local\Temp\ccI3TRm9.s:26244  .debug_str:000000000000e68b .LASF297
C:\Users\SOLDER~1\AppData\Local\Temp\ccI3TRm9.s:26774  .debug_str:000000000001089c .LASF298
C:\Users\SOLDER~1\AppData\Local\Temp\ccI3TRm9.s:29570  .debug_str:000000000001bcd7 .LASF299
C:\Users\SOLDER~1\AppData\Local\Temp\ccI3TRm9.s:28100  .debug_str:0000000000015f31 .LASF300
C:\Users\SOLDER~1\AppData\Local\Temp\ccI3TRm9.s:27520  .debug_str:0000000000013878 .LASF301
C:\Users\SOLDER~1\AppData\Local\Temp\ccI3TRm9.s:23272  .debug_str:0000000000002555 .LASF302
GAS LISTING C:\Users\SOLDER~1\AppData\Local\Temp\ccI3TRm9.s 			page 100


C:\Users\SOLDER~1\AppData\Local\Temp\ccI3TRm9.s:25898  .debug_str:000000000000cfd2 .LASF303
C:\Users\SOLDER~1\AppData\Local\Temp\ccI3TRm9.s:31386  .debug_str:0000000000023306 .LASF304
C:\Users\SOLDER~1\AppData\Local\Temp\ccI3TRm9.s:26794  .debug_str:00000000000109ae .LASF305
C:\Users\SOLDER~1\AppData\Local\Temp\ccI3TRm9.s:32266  .debug_str:0000000000026cce .LASF306
C:\Users\SOLDER~1\AppData\Local\Temp\ccI3TRm9.s:31836  .debug_str:0000000000025047 .LASF307
C:\Users\SOLDER~1\AppData\Local\Temp\ccI3TRm9.s:30004  .debug_str:000000000001d954 .LASF308
C:\Users\SOLDER~1\AppData\Local\Temp\ccI3TRm9.s:23734  .debug_str:000000000000428a .LASF309
C:\Users\SOLDER~1\AppData\Local\Temp\ccI3TRm9.s:30386  .debug_str:000000000001f207 .LASF310
C:\Users\SOLDER~1\AppData\Local\Temp\ccI3TRm9.s:26020  .debug_str:000000000000d7e9 .LASF311
C:\Users\SOLDER~1\AppData\Local\Temp\ccI3TRm9.s:27342  .debug_str:0000000000012c99 .LASF312
C:\Users\SOLDER~1\AppData\Local\Temp\ccI3TRm9.s:25162  .debug_str:0000000000009f07 .LASF313
C:\Users\SOLDER~1\AppData\Local\Temp\ccI3TRm9.s:27784  .debug_str:0000000000014acb .LASF314
C:\Users\SOLDER~1\AppData\Local\Temp\ccI3TRm9.s:24596  .debug_str:00000000000079e4 .LASF315
C:\Users\SOLDER~1\AppData\Local\Temp\ccI3TRm9.s:30086  .debug_str:000000000001de71 .LASF316
C:\Users\SOLDER~1\AppData\Local\Temp\ccI3TRm9.s:32600  .debug_str:0000000000028275 .LASF317
C:\Users\SOLDER~1\AppData\Local\Temp\ccI3TRm9.s:31844  .debug_str:00000000000250dc .LASF319
C:\Users\SOLDER~1\AppData\Local\Temp\ccI3TRm9.s:26632  .debug_str:000000000000ffae .LASF320
C:\Users\SOLDER~1\AppData\Local\Temp\ccI3TRm9.s:27950  .debug_str:0000000000015569 .LASF321
C:\Users\SOLDER~1\AppData\Local\Temp\ccI3TRm9.s:30430  .debug_str:000000000001f4ed .LASF322
C:\Users\SOLDER~1\AppData\Local\Temp\ccI3TRm9.s:29220  .debug_str:000000000001a713 .LASF323
C:\Users\SOLDER~1\AppData\Local\Temp\ccI3TRm9.s:25912  .debug_str:000000000000d0b7 .LASF324
C:\Users\SOLDER~1\AppData\Local\Temp\ccI3TRm9.s:24118  .debug_str:0000000000005acc .LASF325
C:\Users\SOLDER~1\AppData\Local\Temp\ccI3TRm9.s:22826  .debug_str:0000000000000811 .LASF326
C:\Users\SOLDER~1\AppData\Local\Temp\ccI3TRm9.s:33234  .debug_str:000000000002ab88 .LASF327
C:\Users\SOLDER~1\AppData\Local\Temp\ccI3TRm9.s:25990  .debug_str:000000000000d5db .LASF328
C:\Users\SOLDER~1\AppData\Local\Temp\ccI3TRm9.s:34110  .debug_str:000000000002e455 .LASF329
C:\Users\SOLDER~1\AppData\Local\Temp\ccI3TRm9.s:24242  .debug_str:0000000000006305 .LASF330
C:\Users\SOLDER~1\AppData\Local\Temp\ccI3TRm9.s:23784  .debug_str:000000000000459c .LASF331
C:\Users\SOLDER~1\AppData\Local\Temp\ccI3TRm9.s:22764  .debug_str:000000000000037b .LASF332
C:\Users\SOLDER~1\AppData\Local\Temp\ccI3TRm9.s:28196  .debug_str:000000000001653e .LASF333
C:\Users\SOLDER~1\AppData\Local\Temp\ccI3TRm9.s:30850  .debug_str:0000000000021051 .LASF334
C:\Users\SOLDER~1\AppData\Local\Temp\ccI3TRm9.s:29100  .debug_str:0000000000019f91 .LASF335
C:\Users\SOLDER~1\AppData\Local\Temp\ccI3TRm9.s:28962  .debug_str:00000000000196b9 .LASF339
C:\Users\SOLDER~1\AppData\Local\Temp\ccI3TRm9.s:29504  .debug_str:000000000001b8f8 .LASF340
C:\Users\SOLDER~1\AppData\Local\Temp\ccI3TRm9.s:25472  .debug_str:000000000000b366 .LASF341
C:\Users\SOLDER~1\AppData\Local\Temp\ccI3TRm9.s:28728  .debug_str:0000000000018792 .LASF342
C:\Users\SOLDER~1\AppData\Local\Temp\ccI3TRm9.s:28948  .debug_str:00000000000195df .LASF343
C:\Users\SOLDER~1\AppData\Local\Temp\ccI3TRm9.s:23318  .debug_str:0000000000002841 .LASF344
C:\Users\SOLDER~1\AppData\Local\Temp\ccI3TRm9.s:25516  .debug_str:000000000000b633 .LASF345
C:\Users\SOLDER~1\AppData\Local\Temp\ccI3TRm9.s:23644  .debug_str:0000000000003cf5 .LASF346
C:\Users\SOLDER~1\AppData\Local\Temp\ccI3TRm9.s:33760  .debug_str:000000000002cdb4 .LASF347
C:\Users\SOLDER~1\AppData\Local\Temp\ccI3TRm9.s:28288  .debug_str:0000000000016af4 .LASF348
C:\Users\SOLDER~1\AppData\Local\Temp\ccI3TRm9.s:30778  .debug_str:0000000000020b95 .LASF349
C:\Users\SOLDER~1\AppData\Local\Temp\ccI3TRm9.s:24990  .debug_str:00000000000093fe .LASF350
C:\Users\SOLDER~1\AppData\Local\Temp\ccI3TRm9.s:28798  .debug_str:0000000000018bee .LASF351
C:\Users\SOLDER~1\AppData\Local\Temp\ccI3TRm9.s:34100  .debug_str:000000000002e3be .LASF352
C:\Users\SOLDER~1\AppData\Local\Temp\ccI3TRm9.s:25448  .debug_str:000000000000b1fb .LASF353
C:\Users\SOLDER~1\AppData\Local\Temp\ccI3TRm9.s:26544  .debug_str:000000000000f974 .LASF354
C:\Users\SOLDER~1\AppData\Local\Temp\ccI3TRm9.s:30018  .debug_str:000000000001da40 .LASF355
C:\Users\SOLDER~1\AppData\Local\Temp\ccI3TRm9.s:28194  .debug_str:000000000001652e .LASF356
C:\Users\SOLDER~1\AppData\Local\Temp\ccI3TRm9.s:28340  .debug_str:0000000000016e42 .LASF357
C:\Users\SOLDER~1\AppData\Local\Temp\ccI3TRm9.s:31430  .debug_str:00000000000235ba .LASF358
C:\Users\SOLDER~1\AppData\Local\Temp\ccI3TRm9.s:27400  .debug_str:0000000000013098 .LASF359
C:\Users\SOLDER~1\AppData\Local\Temp\ccI3TRm9.s:28402  .debug_str:00000000000171dc .LASF360
C:\Users\SOLDER~1\AppData\Local\Temp\ccI3TRm9.s:31546  .debug_str:0000000000023d90 .LASF361
C:\Users\SOLDER~1\AppData\Local\Temp\ccI3TRm9.s:24484  .debug_str:0000000000007308 .LASF362
C:\Users\SOLDER~1\AppData\Local\Temp\ccI3TRm9.s:33362  .debug_str:000000000002b390 .LASF363
GAS LISTING C:\Users\SOLDER~1\AppData\Local\Temp\ccI3TRm9.s 			page 101


C:\Users\SOLDER~1\AppData\Local\Temp\ccI3TRm9.s:24000  .debug_str:000000000000531a .LASF364
C:\Users\SOLDER~1\AppData\Local\Temp\ccI3TRm9.s:28884  .debug_str:000000000001919a .LASF365
C:\Users\SOLDER~1\AppData\Local\Temp\ccI3TRm9.s:24584  .debug_str:0000000000007929 .LASF366
C:\Users\SOLDER~1\AppData\Local\Temp\ccI3TRm9.s:25536  .debug_str:000000000000b7c9 .LASF367
C:\Users\SOLDER~1\AppData\Local\Temp\ccI3TRm9.s:22724  .debug_str:00000000000000f0 .LASF368
C:\Users\SOLDER~1\AppData\Local\Temp\ccI3TRm9.s:30726  .debug_str:000000000002081c .LASF369
C:\Users\SOLDER~1\AppData\Local\Temp\ccI3TRm9.s:26234  .debug_str:000000000000e5f0 .LASF370
C:\Users\SOLDER~1\AppData\Local\Temp\ccI3TRm9.s:31746  .debug_str:0000000000024a54 .LASF371
C:\Users\SOLDER~1\AppData\Local\Temp\ccI3TRm9.s:30660  .debug_str:00000000000203eb .LASF372
C:\Users\SOLDER~1\AppData\Local\Temp\ccI3TRm9.s:26998  .debug_str:00000000000116aa .LASF373
C:\Users\SOLDER~1\AppData\Local\Temp\ccI3TRm9.s:34252  .debug_str:000000000002ed2a .LASF374
C:\Users\SOLDER~1\AppData\Local\Temp\ccI3TRm9.s:34186  .debug_str:000000000002e959 .LASF375
C:\Users\SOLDER~1\AppData\Local\Temp\ccI3TRm9.s:24770  .debug_str:0000000000008579 .LASF376
C:\Users\SOLDER~1\AppData\Local\Temp\ccI3TRm9.s:33264  .debug_str:000000000002ad74 .LASF377
C:\Users\SOLDER~1\AppData\Local\Temp\ccI3TRm9.s:28180  .debug_str:0000000000016451 .LASF378
C:\Users\SOLDER~1\AppData\Local\Temp\ccI3TRm9.s:32020  .debug_str:0000000000025c02 .LASF379
C:\Users\SOLDER~1\AppData\Local\Temp\ccI3TRm9.s:33054  .debug_str:0000000000029fdd .LASF380
C:\Users\SOLDER~1\AppData\Local\Temp\ccI3TRm9.s:31466  .debug_str:0000000000023815 .LASF381
C:\Users\SOLDER~1\AppData\Local\Temp\ccI3TRm9.s:28380  .debug_str:00000000000170a5 .LASF382
C:\Users\SOLDER~1\AppData\Local\Temp\ccI3TRm9.s:33082  .debug_str:000000000002a179 .LASF383
C:\Users\SOLDER~1\AppData\Local\Temp\ccI3TRm9.s:29730  .debug_str:000000000001c730 .LASF384
C:\Users\SOLDER~1\AppData\Local\Temp\ccI3TRm9.s:27098  .debug_str:0000000000011d5b .LASF385
C:\Users\SOLDER~1\AppData\Local\Temp\ccI3TRm9.s:31594  .debug_str:0000000000024089 .LASF386
C:\Users\SOLDER~1\AppData\Local\Temp\ccI3TRm9.s:30580  .debug_str:000000000001ff07 .LASF387
C:\Users\SOLDER~1\AppData\Local\Temp\ccI3TRm9.s:23068  .debug_str:00000000000017c9 .LASF388
C:\Users\SOLDER~1\AppData\Local\Temp\ccI3TRm9.s:23752  .debug_str:0000000000004389 .LASF389
C:\Users\SOLDER~1\AppData\Local\Temp\ccI3TRm9.s:24174  .debug_str:0000000000005e6a .LASF390
C:\Users\SOLDER~1\AppData\Local\Temp\ccI3TRm9.s:25366  .debug_str:000000000000acc0 .LASF391
C:\Users\SOLDER~1\AppData\Local\Temp\ccI3TRm9.s:24838  .debug_str:00000000000089b2 .LASF392
C:\Users\SOLDER~1\AppData\Local\Temp\ccI3TRm9.s:30274  .debug_str:000000000001ea8c .LASF393
C:\Users\SOLDER~1\AppData\Local\Temp\ccI3TRm9.s:30918  .debug_str:000000000002148f .LASF394
C:\Users\SOLDER~1\AppData\Local\Temp\ccI3TRm9.s:31054  .debug_str:0000000000021d78 .LASF395
C:\Users\SOLDER~1\AppData\Local\Temp\ccI3TRm9.s:24996  .debug_str:0000000000009454 .LASF396
C:\Users\SOLDER~1\AppData\Local\Temp\ccI3TRm9.s:24574  .debug_str:00000000000078a8 .LASF397
C:\Users\SOLDER~1\AppData\Local\Temp\ccI3TRm9.s:30082  .debug_str:000000000001de4d .LASF398
C:\Users\SOLDER~1\AppData\Local\Temp\ccI3TRm9.s:32766  .debug_str:0000000000028db4 .LASF399
C:\Users\SOLDER~1\AppData\Local\Temp\ccI3TRm9.s:27312  .debug_str:0000000000012ad2 .LASF400
C:\Users\SOLDER~1\AppData\Local\Temp\ccI3TRm9.s:28084  .debug_str:0000000000015e26 .LASF401
C:\Users\SOLDER~1\AppData\Local\Temp\ccI3TRm9.s:25880  .debug_str:000000000000ceb6 .LASF402
C:\Users\SOLDER~1\AppData\Local\Temp\ccI3TRm9.s:29760  .debug_str:000000000001c909 .LASF403
C:\Users\SOLDER~1\AppData\Local\Temp\ccI3TRm9.s:28296  .debug_str:0000000000016b61 .LASF404
C:\Users\SOLDER~1\AppData\Local\Temp\ccI3TRm9.s:28744  .debug_str:0000000000018891 .LASF405
C:\Users\SOLDER~1\AppData\Local\Temp\ccI3TRm9.s:24896  .debug_str:0000000000008d6d .LASF406
C:\Users\SOLDER~1\AppData\Local\Temp\ccI3TRm9.s:33712  .debug_str:000000000002cab8 .LASF407
C:\Users\SOLDER~1\AppData\Local\Temp\ccI3TRm9.s:27628  .debug_str:0000000000013ffc .LASF408
C:\Users\SOLDER~1\AppData\Local\Temp\ccI3TRm9.s:30112  .debug_str:000000000001e00e .LASF409
C:\Users\SOLDER~1\AppData\Local\Temp\ccI3TRm9.s:26458  .debug_str:000000000000f3e9 .LASF410
C:\Users\SOLDER~1\AppData\Local\Temp\ccI3TRm9.s:30816  .debug_str:0000000000020e1d .LASF411
C:\Users\SOLDER~1\AppData\Local\Temp\ccI3TRm9.s:32830  .debug_str:00000000000291e2 .LASF412
C:\Users\SOLDER~1\AppData\Local\Temp\ccI3TRm9.s:27166  .debug_str:000000000001217f .LASF413
C:\Users\SOLDER~1\AppData\Local\Temp\ccI3TRm9.s:27156  .debug_str:00000000000120f5 .LASF414
C:\Users\SOLDER~1\AppData\Local\Temp\ccI3TRm9.s:29162  .debug_str:000000000001a381 .LASF415
C:\Users\SOLDER~1\AppData\Local\Temp\ccI3TRm9.s:34288  .debug_str:000000000002ef80 .LASF416
C:\Users\SOLDER~1\AppData\Local\Temp\ccI3TRm9.s:34428  .debug_str:000000000002f82b .LASF417
C:\Users\SOLDER~1\AppData\Local\Temp\ccI3TRm9.s:24648  .debug_str:0000000000007d73 .LASF418
C:\Users\SOLDER~1\AppData\Local\Temp\ccI3TRm9.s:25736  .debug_str:000000000000c4af .LASF419
C:\Users\SOLDER~1\AppData\Local\Temp\ccI3TRm9.s:27602  .debug_str:0000000000013e2a .LASF420
GAS LISTING C:\Users\SOLDER~1\AppData\Local\Temp\ccI3TRm9.s 			page 102


C:\Users\SOLDER~1\AppData\Local\Temp\ccI3TRm9.s:30870  .debug_str:00000000000211a5 .LASF421
C:\Users\SOLDER~1\AppData\Local\Temp\ccI3TRm9.s:31570  .debug_str:0000000000023f10 .LASF422
C:\Users\SOLDER~1\AppData\Local\Temp\ccI3TRm9.s:23184  .debug_str:0000000000001f57 .LASF423
C:\Users\SOLDER~1\AppData\Local\Temp\ccI3TRm9.s:27560  .debug_str:0000000000013b17 .LASF424
C:\Users\SOLDER~1\AppData\Local\Temp\ccI3TRm9.s:30802  .debug_str:0000000000020d33 .LASF425
C:\Users\SOLDER~1\AppData\Local\Temp\ccI3TRm9.s:27146  .debug_str:0000000000012071 .LASF426
C:\Users\SOLDER~1\AppData\Local\Temp\ccI3TRm9.s:34410  .debug_str:000000000002f70b .LASF427
C:\Users\SOLDER~1\AppData\Local\Temp\ccI3TRm9.s:29772  .debug_str:000000000001c9be .LASF428
C:\Users\SOLDER~1\AppData\Local\Temp\ccI3TRm9.s:24014  .debug_str:0000000000005409 .LASF429
C:\Users\SOLDER~1\AppData\Local\Temp\ccI3TRm9.s:31962  .debug_str:000000000002586e .LASF430
C:\Users\SOLDER~1\AppData\Local\Temp\ccI3TRm9.s:27494  .debug_str:00000000000136b9 .LASF431
C:\Users\SOLDER~1\AppData\Local\Temp\ccI3TRm9.s:31872  .debug_str:00000000000252c2 .LASF432
C:\Users\SOLDER~1\AppData\Local\Temp\ccI3TRm9.s:23924  .debug_str:0000000000004e94 .LASF433
C:\Users\SOLDER~1\AppData\Local\Temp\ccI3TRm9.s:26432  .debug_str:000000000000f255 .LASF434
C:\Users\SOLDER~1\AppData\Local\Temp\ccI3TRm9.s:30694  .debug_str:0000000000020624 .LASF435
C:\Users\SOLDER~1\AppData\Local\Temp\ccI3TRm9.s:22872  .debug_str:0000000000000b80 .LASF436
C:\Users\SOLDER~1\AppData\Local\Temp\ccI3TRm9.s:25922  .debug_str:000000000000d165 .LASF437
C:\Users\SOLDER~1\AppData\Local\Temp\ccI3TRm9.s:27918  .debug_str:0000000000015366 .LASF438
C:\Users\SOLDER~1\AppData\Local\Temp\ccI3TRm9.s:24002  .debug_str:000000000000532f .LASF439
C:\Users\SOLDER~1\AppData\Local\Temp\ccI3TRm9.s:27218  .debug_str:00000000000124d6 .LASF440
C:\Users\SOLDER~1\AppData\Local\Temp\ccI3TRm9.s:33020  .debug_str:0000000000029da6 .LASF441
C:\Users\SOLDER~1\AppData\Local\Temp\ccI3TRm9.s:25568  .debug_str:000000000000b9ad .LASF442
C:\Users\SOLDER~1\AppData\Local\Temp\ccI3TRm9.s:29824  .debug_str:000000000001cd3a .LASF443
C:\Users\SOLDER~1\AppData\Local\Temp\ccI3TRm9.s:33584  .debug_str:000000000002c232 .LASF444
C:\Users\SOLDER~1\AppData\Local\Temp\ccI3TRm9.s:27356  .debug_str:0000000000012dab .LASF445
C:\Users\SOLDER~1\AppData\Local\Temp\ccI3TRm9.s:26760  .debug_str:00000000000107c2 .LASF446
C:\Users\SOLDER~1\AppData\Local\Temp\ccI3TRm9.s:30598  .debug_str:0000000000020014 .LASF447
C:\Users\SOLDER~1\AppData\Local\Temp\ccI3TRm9.s:24894  .debug_str:0000000000008d53 .LASF448
C:\Users\SOLDER~1\AppData\Local\Temp\ccI3TRm9.s:30188  .debug_str:000000000001e52a .LASF449
C:\Users\SOLDER~1\AppData\Local\Temp\ccI3TRm9.s:26424  .debug_str:000000000000f1dc .LASF450
C:\Users\SOLDER~1\AppData\Local\Temp\ccI3TRm9.s:32990  .debug_str:0000000000029b8a .LASF451
C:\Users\SOLDER~1\AppData\Local\Temp\ccI3TRm9.s:27072  .debug_str:0000000000011b89 .LASF452
C:\Users\SOLDER~1\AppData\Local\Temp\ccI3TRm9.s:23434  .debug_str:0000000000002fc5 .LASF453
C:\Users\SOLDER~1\AppData\Local\Temp\ccI3TRm9.s:23020  .debug_str:00000000000014df .LASF454
C:\Users\SOLDER~1\AppData\Local\Temp\ccI3TRm9.s:31312  .debug_str:0000000000022dd9 .LASF455
C:\Users\SOLDER~1\AppData\Local\Temp\ccI3TRm9.s:32244  .debug_str:0000000000026b37 .LASF456
C:\Users\SOLDER~1\AppData\Local\Temp\ccI3TRm9.s:25942  .debug_str:000000000000d2a6 .LASF457
C:\Users\SOLDER~1\AppData\Local\Temp\ccI3TRm9.s:26268  .debug_str:000000000000e807 .LASF458
C:\Users\SOLDER~1\AppData\Local\Temp\ccI3TRm9.s:32888  .debug_str:000000000002957b .LASF459
C:\Users\SOLDER~1\AppData\Local\Temp\ccI3TRm9.s:33828  .debug_str:000000000002d1fe .LASF460
C:\Users\SOLDER~1\AppData\Local\Temp\ccI3TRm9.s:23006  .debug_str:00000000000013ea .LASF461
C:\Users\SOLDER~1\AppData\Local\Temp\ccI3TRm9.s:25550  .debug_str:000000000000b897 .LASF462
C:\Users\SOLDER~1\AppData\Local\Temp\ccI3TRm9.s:32198  .debug_str:0000000000026804 .LASF463
C:\Users\SOLDER~1\AppData\Local\Temp\ccI3TRm9.s:29502  .debug_str:000000000001b8d2 .LASF464
C:\Users\SOLDER~1\AppData\Local\Temp\ccI3TRm9.s:32742  .debug_str:0000000000028c09 .LASF465
C:\Users\SOLDER~1\AppData\Local\Temp\ccI3TRm9.s:28670  .debug_str:00000000000183c1 .LASF466
C:\Users\SOLDER~1\AppData\Local\Temp\ccI3TRm9.s:31102  .debug_str:0000000000022081 .LASF467
C:\Users\SOLDER~1\AppData\Local\Temp\ccI3TRm9.s:29720  .debug_str:000000000001c677 .LASF468
C:\Users\SOLDER~1\AppData\Local\Temp\ccI3TRm9.s:23110  .debug_str:0000000000001a7a .LASF469
C:\Users\SOLDER~1\AppData\Local\Temp\ccI3TRm9.s:28110  .debug_str:0000000000015fae .LASF470
C:\Users\SOLDER~1\AppData\Local\Temp\ccI3TRm9.s:30676  .debug_str:00000000000204eb .LASF471
C:\Users\SOLDER~1\AppData\Local\Temp\ccI3TRm9.s:34088  .debug_str:000000000002e304 .LASF472
C:\Users\SOLDER~1\AppData\Local\Temp\ccI3TRm9.s:34344  .debug_str:000000000002f328 .LASF473
C:\Users\SOLDER~1\AppData\Local\Temp\ccI3TRm9.s:34190  .debug_str:000000000002e981 .LASF474
C:\Users\SOLDER~1\AppData\Local\Temp\ccI3TRm9.s:32236  .debug_str:0000000000026a91 .LASF475
C:\Users\SOLDER~1\AppData\Local\Temp\ccI3TRm9.s:25182  .debug_str:000000000000a060 .LASF476
C:\Users\SOLDER~1\AppData\Local\Temp\ccI3TRm9.s:29280  .debug_str:000000000001aae8 .LASF477
GAS LISTING C:\Users\SOLDER~1\AppData\Local\Temp\ccI3TRm9.s 			page 103


C:\Users\SOLDER~1\AppData\Local\Temp\ccI3TRm9.s:28356  .debug_str:0000000000016f48 .LASF478
C:\Users\SOLDER~1\AppData\Local\Temp\ccI3TRm9.s:32344  .debug_str:00000000000271d0 .LASF479
C:\Users\SOLDER~1\AppData\Local\Temp\ccI3TRm9.s:22912  .debug_str:0000000000000e29 .LASF480
C:\Users\SOLDER~1\AppData\Local\Temp\ccI3TRm9.s:31116  .debug_str:0000000000022185 .LASF481
C:\Users\SOLDER~1\AppData\Local\Temp\ccI3TRm9.s:32436  .debug_str:00000000000277f9 .LASF482
C:\Users\SOLDER~1\AppData\Local\Temp\ccI3TRm9.s:25690  .debug_str:000000000000c18f .LASF483
C:\Users\SOLDER~1\AppData\Local\Temp\ccI3TRm9.s:29438  .debug_str:000000000001b4df .LASF484
C:\Users\SOLDER~1\AppData\Local\Temp\ccI3TRm9.s:29348  .debug_str:000000000001af54 .LASF485
C:\Users\SOLDER~1\AppData\Local\Temp\ccI3TRm9.s:32558  .debug_str:0000000000027fd1 .LASF486
C:\Users\SOLDER~1\AppData\Local\Temp\ccI3TRm9.s:29926  .debug_str:000000000001d3ff .LASF487
C:\Users\SOLDER~1\AppData\Local\Temp\ccI3TRm9.s:26686  .debug_str:0000000000010326 .LASF488
C:\Users\SOLDER~1\AppData\Local\Temp\ccI3TRm9.s:28840  .debug_str:0000000000018e8b .LASF489
C:\Users\SOLDER~1\AppData\Local\Temp\ccI3TRm9.s:23948  .debug_str:0000000000004ff1 .LASF490
C:\Users\SOLDER~1\AppData\Local\Temp\ccI3TRm9.s:27048  .debug_str:0000000000011a0b .LASF491
C:\Users\SOLDER~1\AppData\Local\Temp\ccI3TRm9.s:26006  .debug_str:000000000000d6f8 .LASF492
C:\Users\SOLDER~1\AppData\Local\Temp\ccI3TRm9.s:31426  .debug_str:0000000000023583 .LASF494
C:\Users\SOLDER~1\AppData\Local\Temp\ccI3TRm9.s:25062  .debug_str:000000000000988f .LASF495
C:\Users\SOLDER~1\AppData\Local\Temp\ccI3TRm9.s:24042  .debug_str:00000000000055a0 .LASF496
C:\Users\SOLDER~1\AppData\Local\Temp\ccI3TRm9.s:30194  .debug_str:000000000001e583 .LASF497
C:\Users\SOLDER~1\AppData\Local\Temp\ccI3TRm9.s:29506  .debug_str:000000000001b910 .LASF498
C:\Users\SOLDER~1\AppData\Local\Temp\ccI3TRm9.s:29606  .debug_str:000000000001bf01 .LASF499
C:\Users\SOLDER~1\AppData\Local\Temp\ccI3TRm9.s:26272  .debug_str:000000000000e848 .LASF500
C:\Users\SOLDER~1\AppData\Local\Temp\ccI3TRm9.s:23844  .debug_str:00000000000049a0 .LASF501
C:\Users\SOLDER~1\AppData\Local\Temp\ccI3TRm9.s:27200  .debug_str:00000000000123b4 .LASF502
C:\Users\SOLDER~1\AppData\Local\Temp\ccI3TRm9.s:31924  .debug_str:00000000000255f9 .LASF503
C:\Users\SOLDER~1\AppData\Local\Temp\ccI3TRm9.s:28068  .debug_str:0000000000015d0c .LASF504
C:\Users\SOLDER~1\AppData\Local\Temp\ccI3TRm9.s:22734  .debug_str:0000000000000175 .LASF505
C:\Users\SOLDER~1\AppData\Local\Temp\ccI3TRm9.s:26084  .debug_str:000000000000dc06 .LASF506
C:\Users\SOLDER~1\AppData\Local\Temp\ccI3TRm9.s:34150  .debug_str:000000000002e6f0 .LASF507
C:\Users\SOLDER~1\AppData\Local\Temp\ccI3TRm9.s:33060  .debug_str:000000000002a029 .LASF508
C:\Users\SOLDER~1\AppData\Local\Temp\ccI3TRm9.s:27588  .debug_str:0000000000013d04 .LASF509
C:\Users\SOLDER~1\AppData\Local\Temp\ccI3TRm9.s:28522  .debug_str:0000000000017a11 .LASF510
C:\Users\SOLDER~1\AppData\Local\Temp\ccI3TRm9.s:27902  .debug_str:0000000000015275 .LASF511
C:\Users\SOLDER~1\AppData\Local\Temp\ccI3TRm9.s:28978  .debug_str:00000000000197cd .LASF512
C:\Users\SOLDER~1\AppData\Local\Temp\ccI3TRm9.s:30844  .debug_str:0000000000020fe6 .LASF513
C:\Users\SOLDER~1\AppData\Local\Temp\ccI3TRm9.s:29844  .debug_str:000000000001ce95 .LASF514
C:\Users\SOLDER~1\AppData\Local\Temp\ccI3TRm9.s:25458  .debug_str:000000000000b293 .LASF515
C:\Users\SOLDER~1\AppData\Local\Temp\ccI3TRm9.s:33682  .debug_str:000000000002c87d .LASF516
C:\Users\SOLDER~1\AppData\Local\Temp\ccI3TRm9.s:30102  .debug_str:000000000001df64 .LASF517
C:\Users\SOLDER~1\AppData\Local\Temp\ccI3TRm9.s:33552  .debug_str:000000000002c022 .LASF518
C:\Users\SOLDER~1\AppData\Local\Temp\ccI3TRm9.s:32120  .debug_str:00000000000262ad .LASF519
C:\Users\SOLDER~1\AppData\Local\Temp\ccI3TRm9.s:29250  .debug_str:000000000001a916 .LASF520
C:\Users\SOLDER~1\AppData\Local\Temp\ccI3TRm9.s:24266  .debug_str:000000000000648c .LASF521
C:\Users\SOLDER~1\AppData\Local\Temp\ccI3TRm9.s:31470  .debug_str:0000000000023846 .LASF522
C:\Users\SOLDER~1\AppData\Local\Temp\ccI3TRm9.s:25226  .debug_str:000000000000a35b .LASF523
C:\Users\SOLDER~1\AppData\Local\Temp\ccI3TRm9.s:23216  .debug_str:0000000000002189 .LASF524
C:\Users\SOLDER~1\AppData\Local\Temp\ccI3TRm9.s:30158  .debug_str:000000000001e323 .LASF525
C:\Users\SOLDER~1\AppData\Local\Temp\ccI3TRm9.s:26142  .debug_str:000000000000df94 .LASF526
C:\Users\SOLDER~1\AppData\Local\Temp\ccI3TRm9.s:27922  .debug_str:00000000000153a2 .LASF527
C:\Users\SOLDER~1\AppData\Local\Temp\ccI3TRm9.s:26182  .debug_str:000000000000e22e .LASF528
C:\Users\SOLDER~1\AppData\Local\Temp\ccI3TRm9.s:24954  .debug_str:0000000000009175 .LASF529
C:\Users\SOLDER~1\AppData\Local\Temp\ccI3TRm9.s:24588  .debug_str:0000000000007962 .LASF530
C:\Users\SOLDER~1\AppData\Local\Temp\ccI3TRm9.s:25776  .debug_str:000000000000c772 .LASF531
C:\Users\SOLDER~1\AppData\Local\Temp\ccI3TRm9.s:32484  .debug_str:0000000000027b0c .LASF532
C:\Users\SOLDER~1\AppData\Local\Temp\ccI3TRm9.s:34304  .debug_str:000000000002f077 .LASF533
C:\Users\SOLDER~1\AppData\Local\Temp\ccI3TRm9.s:27224  .debug_str:0000000000012546 .LASF534
C:\Users\SOLDER~1\AppData\Local\Temp\ccI3TRm9.s:33674  .debug_str:000000000002c7ef .LASF535
GAS LISTING C:\Users\SOLDER~1\AppData\Local\Temp\ccI3TRm9.s 			page 104


C:\Users\SOLDER~1\AppData\Local\Temp\ccI3TRm9.s:29724  .debug_str:000000000001c6c9 .LASF536
C:\Users\SOLDER~1\AppData\Local\Temp\ccI3TRm9.s:32224  .debug_str:00000000000269b7 .LASF537
C:\Users\SOLDER~1\AppData\Local\Temp\ccI3TRm9.s:29500  .debug_str:000000000001b8ac .LASF538
C:\Users\SOLDER~1\AppData\Local\Temp\ccI3TRm9.s:23832  .debug_str:00000000000048ce .LASF539
C:\Users\SOLDER~1\AppData\Local\Temp\ccI3TRm9.s:31524  .debug_str:0000000000023c03 .LASF540
C:\Users\SOLDER~1\AppData\Local\Temp\ccI3TRm9.s:29546  .debug_str:000000000001bb93 .LASF541
C:\Users\SOLDER~1\AppData\Local\Temp\ccI3TRm9.s:33766  .debug_str:000000000002cdfd .LASF542
C:\Users\SOLDER~1\AppData\Local\Temp\ccI3TRm9.s:25592  .debug_str:000000000000bb30 .LASF543
C:\Users\SOLDER~1\AppData\Local\Temp\ccI3TRm9.s:32460  .debug_str:0000000000027975 .LASF544
C:\Users\SOLDER~1\AppData\Local\Temp\ccI3TRm9.s:31666  .debug_str:000000000002450f .LASF545
C:\Users\SOLDER~1\AppData\Local\Temp\ccI3TRm9.s:30432  .debug_str:000000000001f50f .LASF546
C:\Users\SOLDER~1\AppData\Local\Temp\ccI3TRm9.s:32686  .debug_str:0000000000028851 .LASF547
C:\Users\SOLDER~1\AppData\Local\Temp\ccI3TRm9.s:30628  .debug_str:00000000000201ee .LASF548
C:\Users\SOLDER~1\AppData\Local\Temp\ccI3TRm9.s:28724  .debug_str:0000000000018747 .LASF549
C:\Users\SOLDER~1\AppData\Local\Temp\ccI3TRm9.s:27414  .debug_str:000000000001316b .LASF550
C:\Users\SOLDER~1\AppData\Local\Temp\ccI3TRm9.s:31060  .debug_str:0000000000021dc2 .LASF551
C:\Users\SOLDER~1\AppData\Local\Temp\ccI3TRm9.s:27652  .debug_str:000000000001417e .LASF552
C:\Users\SOLDER~1\AppData\Local\Temp\ccI3TRm9.s:30300  .debug_str:000000000001ec6c .LASF553
C:\Users\SOLDER~1\AppData\Local\Temp\ccI3TRm9.s:28206  .debug_str:00000000000165e6 .LASF554
C:\Users\SOLDER~1\AppData\Local\Temp\ccI3TRm9.s:23046  .debug_str:000000000000166d .LASF555
C:\Users\SOLDER~1\AppData\Local\Temp\ccI3TRm9.s:26942  .debug_str:0000000000011326 .LASF556
C:\Users\SOLDER~1\AppData\Local\Temp\ccI3TRm9.s:24224  .debug_str:00000000000061d1 .LASF557
C:\Users\SOLDER~1\AppData\Local\Temp\ccI3TRm9.s:26836  .debug_str:0000000000010c9d .LASF558
C:\Users\SOLDER~1\AppData\Local\Temp\ccI3TRm9.s:26698  .debug_str:00000000000103b3 .LASF559
C:\Users\SOLDER~1\AppData\Local\Temp\ccI3TRm9.s:23136  .debug_str:0000000000001c48 .LASF560
C:\Users\SOLDER~1\AppData\Local\Temp\ccI3TRm9.s:31994  .debug_str:0000000000025a60 .LASF561
C:\Users\SOLDER~1\AppData\Local\Temp\ccI3TRm9.s:33970  .debug_str:000000000002db83 .LASF562
C:\Users\SOLDER~1\AppData\Local\Temp\ccI3TRm9.s:25650  .debug_str:000000000000bf1b .LASF563
C:\Users\SOLDER~1\AppData\Local\Temp\ccI3TRm9.s:26166  .debug_str:000000000000e115 .LASF564
C:\Users\SOLDER~1\AppData\Local\Temp\ccI3TRm9.s:22952  .debug_str:0000000000001084 .LASF565
C:\Users\SOLDER~1\AppData\Local\Temp\ccI3TRm9.s:31576  .debug_str:0000000000023f70 .LASF566
C:\Users\SOLDER~1\AppData\Local\Temp\ccI3TRm9.s:29422  .debug_str:000000000001b446 .LASF567
C:\Users\SOLDER~1\AppData\Local\Temp\ccI3TRm9.s:29662  .debug_str:000000000001c29d .LASF568
C:\Users\SOLDER~1\AppData\Local\Temp\ccI3TRm9.s:23166  .debug_str:0000000000001e29 .LASF569
C:\Users\SOLDER~1\AppData\Local\Temp\ccI3TRm9.s:28014  .debug_str:00000000000159cc .LASF570
C:\Users\SOLDER~1\AppData\Local\Temp\ccI3TRm9.s:31768  .debug_str:0000000000024bb5 .LASF571
C:\Users\SOLDER~1\AppData\Local\Temp\ccI3TRm9.s:26484  .debug_str:000000000000f591 .LASF572
C:\Users\SOLDER~1\AppData\Local\Temp\ccI3TRm9.s:28448  .debug_str:00000000000174eb .LASF573
C:\Users\SOLDER~1\AppData\Local\Temp\ccI3TRm9.s:26302  .debug_str:000000000000ea05 .LASF574
C:\Users\SOLDER~1\AppData\Local\Temp\ccI3TRm9.s:31870  .debug_str:00000000000252a4 .LASF575
C:\Users\SOLDER~1\AppData\Local\Temp\ccI3TRm9.s:27442  .debug_str:0000000000013342 .LASF576
C:\Users\SOLDER~1\AppData\Local\Temp\ccI3TRm9.s:27402  .debug_str:00000000000130a9 .LASF577
C:\Users\SOLDER~1\AppData\Local\Temp\ccI3TRm9.s:34044  .debug_str:000000000002e019 .LASF578
C:\Users\SOLDER~1\AppData\Local\Temp\ccI3TRm9.s:28906  .debug_str:0000000000019327 .LASF579
C:\Users\SOLDER~1\AppData\Local\Temp\ccI3TRm9.s:32200  .debug_str:0000000000026828 .LASF580
C:\Users\SOLDER~1\AppData\Local\Temp\ccI3TRm9.s:23828  .debug_str:0000000000004890 .LASF581
C:\Users\SOLDER~1\AppData\Local\Temp\ccI3TRm9.s:25332  .debug_str:000000000000aa6c .LASF582
C:\Users\SOLDER~1\AppData\Local\Temp\ccI3TRm9.s:30452  .debug_str:000000000001f66a .LASF583
C:\Users\SOLDER~1\AppData\Local\Temp\ccI3TRm9.s:33804  .debug_str:000000000002d08a .LASF584
C:\Users\SOLDER~1\AppData\Local\Temp\ccI3TRm9.s:25400  .debug_str:000000000000aead .LASF585
C:\Users\SOLDER~1\AppData\Local\Temp\ccI3TRm9.s:33336  .debug_str:000000000002b1c5 .LASF586
C:\Users\SOLDER~1\AppData\Local\Temp\ccI3TRm9.s:32212  .debug_str:00000000000268e9 .LASF587
C:\Users\SOLDER~1\AppData\Local\Temp\ccI3TRm9.s:27334  .debug_str:0000000000012bfd .LASF588
C:\Users\SOLDER~1\AppData\Local\Temp\ccI3TRm9.s:29278  .debug_str:000000000001aac7 .LASF589
C:\Users\SOLDER~1\AppData\Local\Temp\ccI3TRm9.s:31460  .debug_str:00000000000237af .LASF590
C:\Users\SOLDER~1\AppData\Local\Temp\ccI3TRm9.s:28376  .debug_str:0000000000017065 .LASF591
C:\Users\SOLDER~1\AppData\Local\Temp\ccI3TRm9.s:32944  .debug_str:00000000000298d5 .LASF592
GAS LISTING C:\Users\SOLDER~1\AppData\Local\Temp\ccI3TRm9.s 			page 105


C:\Users\SOLDER~1\AppData\Local\Temp\ccI3TRm9.s:29988  .debug_str:000000000001d849 .LASF593
C:\Users\SOLDER~1\AppData\Local\Temp\ccI3TRm9.s:28668  .debug_str:0000000000018387 .LASF594
C:\Users\SOLDER~1\AppData\Local\Temp\ccI3TRm9.s:34140  .debug_str:000000000002e630 .LASF595
C:\Users\SOLDER~1\AppData\Local\Temp\ccI3TRm9.s:25414  .debug_str:000000000000afaa .LASF596
C:\Users\SOLDER~1\AppData\Local\Temp\ccI3TRm9.s:33560  .debug_str:000000000002c094 .LASF597
C:\Users\SOLDER~1\AppData\Local\Temp\ccI3TRm9.s:27378  .debug_str:0000000000012f22 .LASF598
C:\Users\SOLDER~1\AppData\Local\Temp\ccI3TRm9.s:33668  .debug_str:000000000002c77a .LASF599
C:\Users\SOLDER~1\AppData\Local\Temp\ccI3TRm9.s:26810  .debug_str:0000000000010ac4 .LASF600
C:\Users\SOLDER~1\AppData\Local\Temp\ccI3TRm9.s:32262  .debug_str:0000000000026c6c .LASF601
C:\Users\SOLDER~1\AppData\Local\Temp\ccI3TRm9.s:32368  .debug_str:000000000002738d .LASF602
C:\Users\SOLDER~1\AppData\Local\Temp\ccI3TRm9.s:26170  .debug_str:000000000000e15a .LASF603
C:\Users\SOLDER~1\AppData\Local\Temp\ccI3TRm9.s:25958  .debug_str:000000000000d3cc .LASF604
C:\Users\SOLDER~1\AppData\Local\Temp\ccI3TRm9.s:30076  .debug_str:000000000001dde9 .LASF605
C:\Users\SOLDER~1\AppData\Local\Temp\ccI3TRm9.s:32026  .debug_str:0000000000025c5d .LASF606
C:\Users\SOLDER~1\AppData\Local\Temp\ccI3TRm9.s:28454  .debug_str:0000000000017559 .LASF607
C:\Users\SOLDER~1\AppData\Local\Temp\ccI3TRm9.s:31212  .debug_str:000000000002278d .LASF608
C:\Users\SOLDER~1\AppData\Local\Temp\ccI3TRm9.s:33646  .debug_str:000000000002c61d .LASF609
C:\Users\SOLDER~1\AppData\Local\Temp\ccI3TRm9.s:25036  .debug_str:0000000000009702 .LASF610
C:\Users\SOLDER~1\AppData\Local\Temp\ccI3TRm9.s:27114  .debug_str:0000000000011e3f .LASF611
C:\Users\SOLDER~1\AppData\Local\Temp\ccI3TRm9.s:34366  .debug_str:000000000002f474 .LASF612
C:\Users\SOLDER~1\AppData\Local\Temp\ccI3TRm9.s:30070  .debug_str:000000000001dd88 .LASF613
C:\Users\SOLDER~1\AppData\Local\Temp\ccI3TRm9.s:24468  .debug_str:0000000000007218 .LASF614
C:\Users\SOLDER~1\AppData\Local\Temp\ccI3TRm9.s:23180  .debug_str:0000000000001f31 .LASF615
C:\Users\SOLDER~1\AppData\Local\Temp\ccI3TRm9.s:28526  .debug_str:0000000000017a5c .LASF616
C:\Users\SOLDER~1\AppData\Local\Temp\ccI3TRm9.s:24066  .debug_str:000000000000570a .LASF617
C:\Users\SOLDER~1\AppData\Local\Temp\ccI3TRm9.s:31318  .debug_str:0000000000022e4b .LASF618
C:\Users\SOLDER~1\AppData\Local\Temp\ccI3TRm9.s:23466  .debug_str:00000000000031c5 .LASF619
C:\Users\SOLDER~1\AppData\Local\Temp\ccI3TRm9.s:30202  .debug_str:000000000001e600 .LASF620
C:\Users\SOLDER~1\AppData\Local\Temp\ccI3TRm9.s:23564  .debug_str:00000000000037f3 .LASF621
C:\Users\SOLDER~1\AppData\Local\Temp\ccI3TRm9.s:28074  .debug_str:0000000000015d7d .LASF622
C:\Users\SOLDER~1\AppData\Local\Temp\ccI3TRm9.s:29150  .debug_str:000000000001a2ab .LASF623
C:\Users\SOLDER~1\AppData\Local\Temp\ccI3TRm9.s:26990  .debug_str:000000000001162c .LASF624
C:\Users\SOLDER~1\AppData\Local\Temp\ccI3TRm9.s:29734  .debug_str:000000000001c759 .LASF625
C:\Users\SOLDER~1\AppData\Local\Temp\ccI3TRm9.s:24436  .debug_str:0000000000006fd2 .LASF626
C:\Users\SOLDER~1\AppData\Local\Temp\ccI3TRm9.s:24394  .debug_str:0000000000006d01 .LASF627
C:\Users\SOLDER~1\AppData\Local\Temp\ccI3TRm9.s:29384  .debug_str:000000000001b1d5 .LASF628
C:\Users\SOLDER~1\AppData\Local\Temp\ccI3TRm9.s:26174  .debug_str:000000000000e1a4 .LASF629
C:\Users\SOLDER~1\AppData\Local\Temp\ccI3TRm9.s:30698  .debug_str:0000000000020663 .LASF630
C:\Users\SOLDER~1\AppData\Local\Temp\ccI3TRm9.s:29656  .debug_str:000000000001c244 .LASF631
C:\Users\SOLDER~1\AppData\Local\Temp\ccI3TRm9.s:30686  .debug_str:000000000002059e .LASF632
C:\Users\SOLDER~1\AppData\Local\Temp\ccI3TRm9.s:29116  .debug_str:000000000001a09c .LASF633
C:\Users\SOLDER~1\AppData\Local\Temp\ccI3TRm9.s:32778  .debug_str:0000000000028e68 .LASF634
C:\Users\SOLDER~1\AppData\Local\Temp\ccI3TRm9.s:27868  .debug_str:0000000000015047 .LASF635
C:\Users\SOLDER~1\AppData\Local\Temp\ccI3TRm9.s:29622  .debug_str:000000000001bffe .LASF636
C:\Users\SOLDER~1\AppData\Local\Temp\ccI3TRm9.s:31816  .debug_str:0000000000024ee8 .LASF637
C:\Users\SOLDER~1\AppData\Local\Temp\ccI3TRm9.s:23146  .debug_str:0000000000001ce8 .LASF638
C:\Users\SOLDER~1\AppData\Local\Temp\ccI3TRm9.s:33654  .debug_str:000000000002c6b2 .LASF639
C:\Users\SOLDER~1\AppData\Local\Temp\ccI3TRm9.s:27444  .debug_str:0000000000013360 .LASF640
C:\Users\SOLDER~1\AppData\Local\Temp\ccI3TRm9.s:28476  .debug_str:00000000000176ff .LASF641
C:\Users\SOLDER~1\AppData\Local\Temp\ccI3TRm9.s:28388  .debug_str:0000000000017111 .LASF642
C:\Users\SOLDER~1\AppData\Local\Temp\ccI3TRm9.s:29752  .debug_str:000000000001c886 .LASF643
C:\Users\SOLDER~1\AppData\Local\Temp\ccI3TRm9.s:24294  .debug_str:000000000000666a .LASF644
C:\Users\SOLDER~1\AppData\Local\Temp\ccI3TRm9.s:31762  .debug_str:0000000000024b57 .LASF645
C:\Users\SOLDER~1\AppData\Local\Temp\ccI3TRm9.s:28436  .debug_str:0000000000017418 .LASF646
C:\Users\SOLDER~1\AppData\Local\Temp\ccI3TRm9.s:26310  .debug_str:000000000000ea88 .LASF647
C:\Users\SOLDER~1\AppData\Local\Temp\ccI3TRm9.s:27862  .debug_str:0000000000014fcd .LASF648
C:\Users\SOLDER~1\AppData\Local\Temp\ccI3TRm9.s:26394  .debug_str:000000000000efdb .LASF649
GAS LISTING C:\Users\SOLDER~1\AppData\Local\Temp\ccI3TRm9.s 			page 106


C:\Users\SOLDER~1\AppData\Local\Temp\ccI3TRm9.s:33134  .debug_str:000000000002a4d4 .LASF650
C:\Users\SOLDER~1\AppData\Local\Temp\ccI3TRm9.s:29286  .debug_str:000000000001ab47 .LASF651
C:\Users\SOLDER~1\AppData\Local\Temp\ccI3TRm9.s:24888  .debug_str:0000000000008cfa .LASF652
C:\Users\SOLDER~1\AppData\Local\Temp\ccI3TRm9.s:28894  .debug_str:0000000000019248 .LASF653
C:\Users\SOLDER~1\AppData\Local\Temp\ccI3TRm9.s:28184  .debug_str:000000000001647a .LASF654
C:\Users\SOLDER~1\AppData\Local\Temp\ccI3TRm9.s:34160  .debug_str:000000000002e794 .LASF655
C:\Users\SOLDER~1\AppData\Local\Temp\ccI3TRm9.s:28940  .debug_str:0000000000019563 .LASF656
C:\Users\SOLDER~1\AppData\Local\Temp\ccI3TRm9.s:33416  .debug_str:000000000002b71b .LASF657
C:\Users\SOLDER~1\AppData\Local\Temp\ccI3TRm9.s:32776  .debug_str:0000000000028e47 .LASF658
C:\Users\SOLDER~1\AppData\Local\Temp\ccI3TRm9.s:31526  .debug_str:0000000000023c28 .LASF659
C:\Users\SOLDER~1\AppData\Local\Temp\ccI3TRm9.s:31556  .debug_str:0000000000023e40 .LASF660
C:\Users\SOLDER~1\AppData\Local\Temp\ccI3TRm9.s:33810  .debug_str:000000000002d101 .LASF661
C:\Users\SOLDER~1\AppData\Local\Temp\ccI3TRm9.s:26184  .debug_str:000000000000e252 .LASF662
C:\Users\SOLDER~1\AppData\Local\Temp\ccI3TRm9.s:25492  .debug_str:000000000000b4ab .LASF663
C:\Users\SOLDER~1\AppData\Local\Temp\ccI3TRm9.s:33078  .debug_str:000000000002a13c .LASF664
C:\Users\SOLDER~1\AppData\Local\Temp\ccI3TRm9.s:30224  .debug_str:000000000001e779 .LASF665
C:\Users\SOLDER~1\AppData\Local\Temp\ccI3TRm9.s:30506  .debug_str:000000000001fa1e .LASF666
C:\Users\SOLDER~1\AppData\Local\Temp\ccI3TRm9.s:30522  .debug_str:000000000001fb42 .LASF667
C:\Users\SOLDER~1\AppData\Local\Temp\ccI3TRm9.s:24354  .debug_str:0000000000006aaf .LASF668
C:\Users\SOLDER~1\AppData\Local\Temp\ccI3TRm9.s:31592  .debug_str:0000000000024075 .LASF669
C:\Users\SOLDER~1\AppData\Local\Temp\ccI3TRm9.s:32640  .debug_str:0000000000028534 .LASF670
C:\Users\SOLDER~1\AppData\Local\Temp\ccI3TRm9.s:34128  .debug_str:000000000002e580 .LASF671
C:\Users\SOLDER~1\AppData\Local\Temp\ccI3TRm9.s:33408  .debug_str:000000000002b6a1 .LASF672
C:\Users\SOLDER~1\AppData\Local\Temp\ccI3TRm9.s:29592  .debug_str:000000000001bdf9 .LASF673
C:\Users\SOLDER~1\AppData\Local\Temp\ccI3TRm9.s:28152  .debug_str:0000000000016252 .LASF674
C:\Users\SOLDER~1\AppData\Local\Temp\ccI3TRm9.s:23598  .debug_str:0000000000003a08 .LASF675
C:\Users\SOLDER~1\AppData\Local\Temp\ccI3TRm9.s:26844  .debug_str:0000000000010d1e .LASF676
C:\Users\SOLDER~1\AppData\Local\Temp\ccI3TRm9.s:29290  .debug_str:000000000001ab86 .LASF677
C:\Users\SOLDER~1\AppData\Local\Temp\ccI3TRm9.s:32440  .debug_str:000000000002782b .LASF678
C:\Users\SOLDER~1\AppData\Local\Temp\ccI3TRm9.s:33734  .debug_str:000000000002cc0b .LASF679
C:\Users\SOLDER~1\AppData\Local\Temp\ccI3TRm9.s:28600  .debug_str:0000000000017efd .LASF680
C:\Users\SOLDER~1\AppData\Local\Temp\ccI3TRm9.s:30146  .debug_str:000000000001e243 .LASF681
C:\Users\SOLDER~1\AppData\Local\Temp\ccI3TRm9.s:27392  .debug_str:0000000000012ff0 .LASF682
C:\Users\SOLDER~1\AppData\Local\Temp\ccI3TRm9.s:28324  .debug_str:0000000000016d30 .LASF683
C:\Users\SOLDER~1\AppData\Local\Temp\ccI3TRm9.s:24836  .debug_str:000000000000898f .LASF684
C:\Users\SOLDER~1\AppData\Local\Temp\ccI3TRm9.s:29910  .debug_str:000000000001d2fa .LASF685
C:\Users\SOLDER~1\AppData\Local\Temp\ccI3TRm9.s:30468  .debug_str:000000000001f789 .LASF686
C:\Users\SOLDER~1\AppData\Local\Temp\ccI3TRm9.s:23112  .debug_str:0000000000001a9e .LASF687
C:\Users\SOLDER~1\AppData\Local\Temp\ccI3TRm9.s:30236  .debug_str:000000000001e82b .LASF688
C:\Users\SOLDER~1\AppData\Local\Temp\ccI3TRm9.s:33622  .debug_str:000000000002c4a2 .LASF689
C:\Users\SOLDER~1\AppData\Local\Temp\ccI3TRm9.s:22738  .debug_str:00000000000001a7 .LASF690
C:\Users\SOLDER~1\AppData\Local\Temp\ccI3TRm9.s:30720  .debug_str:00000000000207be .LASF691
C:\Users\SOLDER~1\AppData\Local\Temp\ccI3TRm9.s:30672  .debug_str:00000000000204a5 .LASF692
C:\Users\SOLDER~1\AppData\Local\Temp\ccI3TRm9.s:24940  .debug_str:0000000000009074 .LASF693
C:\Users\SOLDER~1\AppData\Local\Temp\ccI3TRm9.s:30434  .debug_str:000000000001f53c .LASF694
C:\Users\SOLDER~1\AppData\Local\Temp\ccI3TRm9.s:24922  .debug_str:0000000000008f2b .LASF695
C:\Users\SOLDER~1\AppData\Local\Temp\ccI3TRm9.s:29920  .debug_str:000000000001d3a8 .LASF696
C:\Users\SOLDER~1\AppData\Local\Temp\ccI3TRm9.s:32630  .debug_str:0000000000028471 .LASF697
C:\Users\SOLDER~1\AppData\Local\Temp\ccI3TRm9.s:33428  .debug_str:000000000002b7bf .LASF698
C:\Users\SOLDER~1\AppData\Local\Temp\ccI3TRm9.s:26328  .debug_str:000000000000ebdf .LASF699
C:\Users\SOLDER~1\AppData\Local\Temp\ccI3TRm9.s:34130  .debug_str:000000000002e596 .LASF700
C:\Users\SOLDER~1\AppData\Local\Temp\ccI3TRm9.s:29148  .debug_str:000000000001a298 .LASF701
C:\Users\SOLDER~1\AppData\Local\Temp\ccI3TRm9.s:23532  .debug_str:00000000000035d3 .LASF702
C:\Users\SOLDER~1\AppData\Local\Temp\ccI3TRm9.s:31668  .debug_str:000000000002453c .LASF703
C:\Users\SOLDER~1\AppData\Local\Temp\ccI3TRm9.s:29626  .debug_str:000000000001c029 .LASF704
C:\Users\SOLDER~1\AppData\Local\Temp\ccI3TRm9.s:32386  .debug_str:00000000000274a7 .LASF705
C:\Users\SOLDER~1\AppData\Local\Temp\ccI3TRm9.s:28360  .debug_str:0000000000016f8c .LASF706
GAS LISTING C:\Users\SOLDER~1\AppData\Local\Temp\ccI3TRm9.s 			page 107


C:\Users\SOLDER~1\AppData\Local\Temp\ccI3TRm9.s:25642  .debug_str:000000000000be9f .LASF707
C:\Users\SOLDER~1\AppData\Local\Temp\ccI3TRm9.s:31258  .debug_str:0000000000022a2c .LASF708
C:\Users\SOLDER~1\AppData\Local\Temp\ccI3TRm9.s:30714  .debug_str:0000000000020755 .LASF709
C:\Users\SOLDER~1\AppData\Local\Temp\ccI3TRm9.s:23550  .debug_str:00000000000036f1 .LASF710
C:\Users\SOLDER~1\AppData\Local\Temp\ccI3TRm9.s:32166  .debug_str:00000000000265d4 .LASF711
C:\Users\SOLDER~1\AppData\Local\Temp\ccI3TRm9.s:31452  .debug_str:000000000002371b .LASF712
C:\Users\SOLDER~1\AppData\Local\Temp\ccI3TRm9.s:24698  .debug_str:00000000000080bb .LASF713
C:\Users\SOLDER~1\AppData\Local\Temp\ccI3TRm9.s:32518  .debug_str:0000000000027d4b .LASF714
C:\Users\SOLDER~1\AppData\Local\Temp\ccI3TRm9.s:30964  .debug_str:00000000000217ba .LASF715
C:\Users\SOLDER~1\AppData\Local\Temp\ccI3TRm9.s:31606  .debug_str:000000000002412a .LASF716
C:\Users\SOLDER~1\AppData\Local\Temp\ccI3TRm9.s:26870  .debug_str:0000000000010eab .LASF717
C:\Users\SOLDER~1\AppData\Local\Temp\ccI3TRm9.s:34170  .debug_str:000000000002e841 .LASF718
C:\Users\SOLDER~1\AppData\Local\Temp\ccI3TRm9.s:29320  .debug_str:000000000001ada2 .LASF719
C:\Users\SOLDER~1\AppData\Local\Temp\ccI3TRm9.s:27304  .debug_str:0000000000012a51 .LASF720
C:\Users\SOLDER~1\AppData\Local\Temp\ccI3TRm9.s:30998  .debug_str:00000000000219e5 .LASF721
C:\Users\SOLDER~1\AppData\Local\Temp\ccI3TRm9.s:29118  .debug_str:000000000001a0be .LASF722
C:\Users\SOLDER~1\AppData\Local\Temp\ccI3TRm9.s:31042  .debug_str:0000000000021cb1 .LASF723
C:\Users\SOLDER~1\AppData\Local\Temp\ccI3TRm9.s:28248  .debug_str:0000000000016877 .LASF724
C:\Users\SOLDER~1\AppData\Local\Temp\ccI3TRm9.s:27482  .debug_str:00000000000135e4 .LASF725
C:\Users\SOLDER~1\AppData\Local\Temp\ccI3TRm9.s:33306  .debug_str:000000000002b040 .LASF726
C:\Users\SOLDER~1\AppData\Local\Temp\ccI3TRm9.s:27666  .debug_str:0000000000014296 .LASF727
C:\Users\SOLDER~1\AppData\Local\Temp\ccI3TRm9.s:22866  .debug_str:0000000000000b11 .LASF728
C:\Users\SOLDER~1\AppData\Local\Temp\ccI3TRm9.s:26080  .debug_str:000000000000dbbe .LASF729
C:\Users\SOLDER~1\AppData\Local\Temp\ccI3TRm9.s:28972  .debug_str:0000000000019760 .LASF730
C:\Users\SOLDER~1\AppData\Local\Temp\ccI3TRm9.s:29576  .debug_str:000000000001bcfa .LASF731
C:\Users\SOLDER~1\AppData\Local\Temp\ccI3TRm9.s:24520  .debug_str:000000000000755b .LASF732
C:\Users\SOLDER~1\AppData\Local\Temp\ccI3TRm9.s:25144  .debug_str:0000000000009dc3 .LASF733
C:\Users\SOLDER~1\AppData\Local\Temp\ccI3TRm9.s:31240  .debug_str:0000000000022906 .LASF734
C:\Users\SOLDER~1\AppData\Local\Temp\ccI3TRm9.s:31172  .debug_str:0000000000022503 .LASF735
C:\Users\SOLDER~1\AppData\Local\Temp\ccI3TRm9.s:28806  .debug_str:0000000000018c69 .LASF736
C:\Users\SOLDER~1\AppData\Local\Temp\ccI3TRm9.s:25636  .debug_str:000000000000be2a .LASF737
C:\Users\SOLDER~1\AppData\Local\Temp\ccI3TRm9.s:34308  .debug_str:000000000002f0aa .LASF738
C:\Users\SOLDER~1\AppData\Local\Temp\ccI3TRm9.s:25866  .debug_str:000000000000cdc0 .LASF739
C:\Users\SOLDER~1\AppData\Local\Temp\ccI3TRm9.s:23218  .debug_str:00000000000021af .LASF740
C:\Users\SOLDER~1\AppData\Local\Temp\ccI3TRm9.s:27984  .debug_str:00000000000157b4 .LASF741
C:\Users\SOLDER~1\AppData\Local\Temp\ccI3TRm9.s:25624  .debug_str:000000000000bd4e .LASF742
C:\Users\SOLDER~1\AppData\Local\Temp\ccI3TRm9.s:32552  .debug_str:0000000000027f6e .LASF743
C:\Users\SOLDER~1\AppData\Local\Temp\ccI3TRm9.s:29136  .debug_str:000000000001a1ef .LASF744
C:\Users\SOLDER~1\AppData\Local\Temp\ccI3TRm9.s:27244  .debug_str:000000000001267a .LASF745
C:\Users\SOLDER~1\AppData\Local\Temp\ccI3TRm9.s:30594  .debug_str:000000000001ffd7 .LASF746
C:\Users\SOLDER~1\AppData\Local\Temp\ccI3TRm9.s:31166  .debug_str:000000000002249d .LASF747
C:\Users\SOLDER~1\AppData\Local\Temp\ccI3TRm9.s:32128  .debug_str:0000000000026321 .LASF748
C:\Users\SOLDER~1\AppData\Local\Temp\ccI3TRm9.s:31544  .debug_str:0000000000023d6e .LASF749
C:\Users\SOLDER~1\AppData\Local\Temp\ccI3TRm9.s:24420  .debug_str:0000000000006e99 .LASF750
C:\Users\SOLDER~1\AppData\Local\Temp\ccI3TRm9.s:23910  .debug_str:0000000000004dcb .LASF751
C:\Users\SOLDER~1\AppData\Local\Temp\ccI3TRm9.s:25314  .debug_str:000000000000a963 .LASF752
C:\Users\SOLDER~1\AppData\Local\Temp\ccI3TRm9.s:25542  .debug_str:000000000000b812 .LASF753
C:\Users\SOLDER~1\AppData\Local\Temp\ccI3TRm9.s:33394  .debug_str:000000000002b5c1 .LASF754
C:\Users\SOLDER~1\AppData\Local\Temp\ccI3TRm9.s:31252  .debug_str:00000000000229e9 .LASF755
C:\Users\SOLDER~1\AppData\Local\Temp\ccI3TRm9.s:23370  .debug_str:0000000000002b85 .LASF756
C:\Users\SOLDER~1\AppData\Local\Temp\ccI3TRm9.s:32586  .debug_str:000000000002819f .LASF757
C:\Users\SOLDER~1\AppData\Local\Temp\ccI3TRm9.s:23252  .debug_str:00000000000023ff .LASF758
C:\Users\SOLDER~1\AppData\Local\Temp\ccI3TRm9.s:30172  .debug_str:000000000001e420 .LASF759
C:\Users\SOLDER~1\AppData\Local\Temp\ccI3TRm9.s:28186  .debug_str:000000000001649f .LASF760
C:\Users\SOLDER~1\AppData\Local\Temp\ccI3TRm9.s:22774  .debug_str:0000000000000425 .LASF761
C:\Users\SOLDER~1\AppData\Local\Temp\ccI3TRm9.s:22950  .debug_str:0000000000001064 .LASF762
C:\Users\SOLDER~1\AppData\Local\Temp\ccI3TRm9.s:31646  .debug_str:00000000000243c6 .LASF763
GAS LISTING C:\Users\SOLDER~1\AppData\Local\Temp\ccI3TRm9.s 			page 108


C:\Users\SOLDER~1\AppData\Local\Temp\ccI3TRm9.s:31966  .debug_str:00000000000258ac .LASF764
C:\Users\SOLDER~1\AppData\Local\Temp\ccI3TRm9.s:24178  .debug_str:0000000000005e9a .LASF765
C:\Users\SOLDER~1\AppData\Local\Temp\ccI3TRm9.s:25006  .debug_str:0000000000009508 .LASF766
C:\Users\SOLDER~1\AppData\Local\Temp\ccI3TRm9.s:33138  .debug_str:000000000002a515 .LASF767
C:\Users\SOLDER~1\AppData\Local\Temp\ccI3TRm9.s:22894  .debug_str:0000000000000d11 .LASF768
C:\Users\SOLDER~1\AppData\Local\Temp\ccI3TRm9.s:27766  .debug_str:000000000001497a .LASF769
C:\Users\SOLDER~1\AppData\Local\Temp\ccI3TRm9.s:29776  .debug_str:000000000001c9fb .LASF770
C:\Users\SOLDER~1\AppData\Local\Temp\ccI3TRm9.s:24474  .debug_str:000000000000726f .LASF771
C:\Users\SOLDER~1\AppData\Local\Temp\ccI3TRm9.s:24152  .debug_str:0000000000005cf2 .LASF772
C:\Users\SOLDER~1\AppData\Local\Temp\ccI3TRm9.s:25744  .debug_str:000000000000c52a .LASF773
C:\Users\SOLDER~1\AppData\Local\Temp\ccI3TRm9.s:23270  .debug_str:0000000000002533 .LASF774
C:\Users\SOLDER~1\AppData\Local\Temp\ccI3TRm9.s:23950  .debug_str:000000000000500b .LASF775
C:\Users\SOLDER~1\AppData\Local\Temp\ccI3TRm9.s:23932  .debug_str:0000000000004f1c .LASF776
C:\Users\SOLDER~1\AppData\Local\Temp\ccI3TRm9.s:24200  .debug_str:0000000000005ffb .LASF777
C:\Users\SOLDER~1\AppData\Local\Temp\ccI3TRm9.s:33296  .debug_str:000000000002afa0 .LASF778
C:\Users\SOLDER~1\AppData\Local\Temp\ccI3TRm9.s:30014  .debug_str:000000000001d9f9 .LASF779
C:\Users\SOLDER~1\AppData\Local\Temp\ccI3TRm9.s:29128  .debug_str:000000000001a169 .LASF780
C:\Users\SOLDER~1\AppData\Local\Temp\ccI3TRm9.s:31008  .debug_str:0000000000021a7f .LASF781
C:\Users\SOLDER~1\AppData\Local\Temp\ccI3TRm9.s:24790  .debug_str:00000000000086a9 .LASF782
C:\Users\SOLDER~1\AppData\Local\Temp\ccI3TRm9.s:34450  .debug_str:000000000002f993 .LASF783
C:\Users\SOLDER~1\AppData\Local\Temp\ccI3TRm9.s:23108  .debug_str:0000000000001a5a .LASF784
C:\Users\SOLDER~1\AppData\Local\Temp\ccI3TRm9.s:26042  .debug_str:000000000000d935 .LASF785
C:\Users\SOLDER~1\AppData\Local\Temp\ccI3TRm9.s:24470  .debug_str:0000000000007230 .LASF786
C:\Users\SOLDER~1\AppData\Local\Temp\ccI3TRm9.s:34334  .debug_str:000000000002f27c .LASF787
C:\Users\SOLDER~1\AppData\Local\Temp\ccI3TRm9.s:31448  .debug_str:00000000000236ec .LASF788
C:\Users\SOLDER~1\AppData\Local\Temp\ccI3TRm9.s:28602  .debug_str:0000000000017f21 .LASF789
C:\Users\SOLDER~1\AppData\Local\Temp\ccI3TRm9.s:34102  .debug_str:000000000002e3cd .LASF790
C:\Users\SOLDER~1\AppData\Local\Temp\ccI3TRm9.s:28946  .debug_str:00000000000195cf .LASF791
C:\Users\SOLDER~1\AppData\Local\Temp\ccI3TRm9.s:34404  .debug_str:000000000002f6ba .LASF792
C:\Users\SOLDER~1\AppData\Local\Temp\ccI3TRm9.s:27050  .debug_str:0000000000011a25 .LASF793
C:\Users\SOLDER~1\AppData\Local\Temp\ccI3TRm9.s:32204  .debug_str:000000000002686e .LASF794
C:\Users\SOLDER~1\AppData\Local\Temp\ccI3TRm9.s:32644  .debug_str:000000000002857e .LASF795
C:\Users\SOLDER~1\AppData\Local\Temp\ccI3TRm9.s:25718  .debug_str:000000000000c366 .LASF796
C:\Users\SOLDER~1\AppData\Local\Temp\ccI3TRm9.s:32680  .debug_str:00000000000287f8 .LASF797
C:\Users\SOLDER~1\AppData\Local\Temp\ccI3TRm9.s:27972  .debug_str:00000000000156f3 .LASF798
C:\Users\SOLDER~1\AppData\Local\Temp\ccI3TRm9.s:27934  .debug_str:0000000000015444 .LASF799
C:\Users\SOLDER~1\AppData\Local\Temp\ccI3TRm9.s:27370  .debug_str:0000000000012ea2 .LASF800
C:\Users\SOLDER~1\AppData\Local\Temp\ccI3TRm9.s:25782  .debug_str:000000000000c7db .LASF801
C:\Users\SOLDER~1\AppData\Local\Temp\ccI3TRm9.s:30502  .debug_str:000000000001f9da .LASF802
C:\Users\SOLDER~1\AppData\Local\Temp\ccI3TRm9.s:34402  .debug_str:000000000002f698 .LASF803
C:\Users\SOLDER~1\AppData\Local\Temp\ccI3TRm9.s:34136  .debug_str:000000000002e5ec .LASF804
C:\Users\SOLDER~1\AppData\Local\Temp\ccI3TRm9.s:32318  .debug_str:0000000000027020 .LASF805
C:\Users\SOLDER~1\AppData\Local\Temp\ccI3TRm9.s:23322  .debug_str:00000000000028b7 .LASF806
C:\Users\SOLDER~1\AppData\Local\Temp\ccI3TRm9.s:32380  .debug_str:0000000000027467 .LASF807
C:\Users\SOLDER~1\AppData\Local\Temp\ccI3TRm9.s:32606  .debug_str:00000000000282c0 .LASF808
C:\Users\SOLDER~1\AppData\Local\Temp\ccI3TRm9.s:24350  .debug_str:0000000000006a6d .LASF809
C:\Users\SOLDER~1\AppData\Local\Temp\ccI3TRm9.s:29190  .debug_str:000000000001a514 .LASF810
C:\Users\SOLDER~1\AppData\Local\Temp\ccI3TRm9.s:28236  .debug_str:00000000000167cd .LASF811
C:\Users\SOLDER~1\AppData\Local\Temp\ccI3TRm9.s:24318  .debug_str:0000000000006805 .LASF812
C:\Users\SOLDER~1\AppData\Local\Temp\ccI3TRm9.s:33988  .debug_str:000000000002dc97 .LASF813
C:\Users\SOLDER~1\AppData\Local\Temp\ccI3TRm9.s:32994  .debug_str:0000000000029bee .LASF814
C:\Users\SOLDER~1\AppData\Local\Temp\ccI3TRm9.s:31162  .debug_str:0000000000022464 .LASF815
C:\Users\SOLDER~1\AppData\Local\Temp\ccI3TRm9.s:33650  .debug_str:000000000002c66b .LASF816
C:\Users\SOLDER~1\AppData\Local\Temp\ccI3TRm9.s:32502  .debug_str:0000000000027c4a .LASF817
C:\Users\SOLDER~1\AppData\Local\Temp\ccI3TRm9.s:30512  .debug_str:000000000001fa8d .LASF818
C:\Users\SOLDER~1\AppData\Local\Temp\ccI3TRm9.s:32252  .debug_str:0000000000026bbe .LASF819
C:\Users\SOLDER~1\AppData\Local\Temp\ccI3TRm9.s:29254  .debug_str:000000000001a95c .LASF820
GAS LISTING C:\Users\SOLDER~1\AppData\Local\Temp\ccI3TRm9.s 			page 109


C:\Users\SOLDER~1\AppData\Local\Temp\ccI3TRm9.s:25910  .debug_str:000000000000d0a7 .LASF821
C:\Users\SOLDER~1\AppData\Local\Temp\ccI3TRm9.s:31320  .debug_str:0000000000022e65 .LASF822
C:\Users\SOLDER~1\AppData\Local\Temp\ccI3TRm9.s:25084  .debug_str:00000000000099f8 .LASF823
C:\Users\SOLDER~1\AppData\Local\Temp\ccI3TRm9.s:30106  .debug_str:000000000001dfac .LASF824
C:\Users\SOLDER~1\AppData\Local\Temp\ccI3TRm9.s:26382  .debug_str:000000000000eefc .LASF825
C:\Users\SOLDER~1\AppData\Local\Temp\ccI3TRm9.s:23630  .debug_str:0000000000003c1e .LASF826
C:\Users\SOLDER~1\AppData\Local\Temp\ccI3TRm9.s:32550  .debug_str:0000000000027f5d .LASF827
C:\Users\SOLDER~1\AppData\Local\Temp\ccI3TRm9.s:28674  .debug_str:0000000000018408 .LASF828
C:\Users\SOLDER~1\AppData\Local\Temp\ccI3TRm9.s:25940  .debug_str:000000000000d285 .LASF829
C:\Users\SOLDER~1\AppData\Local\Temp\ccI3TRm9.s:32054  .debug_str:0000000000025e1a .LASF830
C:\Users\SOLDER~1\AppData\Local\Temp\ccI3TRm9.s:26564  .debug_str:000000000000fabd .LASF831
C:\Users\SOLDER~1\AppData\Local\Temp\ccI3TRm9.s:32986  .debug_str:0000000000029b50 .LASF832
C:\Users\SOLDER~1\AppData\Local\Temp\ccI3TRm9.s:25002  .debug_str:00000000000094c2 .LASF833
C:\Users\SOLDER~1\AppData\Local\Temp\ccI3TRm9.s:32878  .debug_str:00000000000294de .LASF834
C:\Users\SOLDER~1\AppData\Local\Temp\ccI3TRm9.s:33860  .debug_str:000000000002d40a .LASF835
C:\Users\SOLDER~1\AppData\Local\Temp\ccI3TRm9.s:23672  .debug_str:0000000000003eb3 .LASF836
C:\Users\SOLDER~1\AppData\Local\Temp\ccI3TRm9.s:30824  .debug_str:0000000000020e8f .LASF837
C:\Users\SOLDER~1\AppData\Local\Temp\ccI3TRm9.s:27404  .debug_str:00000000000130ca .LASF838
C:\Users\SOLDER~1\AppData\Local\Temp\ccI3TRm9.s:25626  .debug_str:000000000000bd6e .LASF839
C:\Users\SOLDER~1\AppData\Local\Temp\ccI3TRm9.s:26200  .debug_str:000000000000e347 .LASF840
C:\Users\SOLDER~1\AppData\Local\Temp\ccI3TRm9.s:26994  .debug_str:0000000000011671 .LASF841
C:\Users\SOLDER~1\AppData\Local\Temp\ccI3TRm9.s:26978  .debug_str:000000000001155d .LASF842
C:\Users\SOLDER~1\AppData\Local\Temp\ccI3TRm9.s:29632  .debug_str:000000000001c08a .LASF843
C:\Users\SOLDER~1\AppData\Local\Temp\ccI3TRm9.s:34234  .debug_str:000000000002ec01 .LASF844
C:\Users\SOLDER~1\AppData\Local\Temp\ccI3TRm9.s:33246  .debug_str:000000000002ac54 .LASF845
C:\Users\SOLDER~1\AppData\Local\Temp\ccI3TRm9.s:29258  .debug_str:000000000001a98c .LASF846
C:\Users\SOLDER~1\AppData\Local\Temp\ccI3TRm9.s:27162  .debug_str:0000000000012143 .LASF847
C:\Users\SOLDER~1\AppData\Local\Temp\ccI3TRm9.s:23070  .debug_str:00000000000017d2 .LASF848
C:\Users\SOLDER~1\AppData\Local\Temp\ccI3TRm9.s:30294  .debug_str:000000000001ebf7 .LASF849
C:\Users\SOLDER~1\AppData\Local\Temp\ccI3TRm9.s:33330  .debug_str:000000000002b182 .LASF850
C:\Users\SOLDER~1\AppData\Local\Temp\ccI3TRm9.s:24024  .debug_str:0000000000005489 .LASF851
C:\Users\SOLDER~1\AppData\Local\Temp\ccI3TRm9.s:26474  .debug_str:000000000000f4d7 .LASF852
C:\Users\SOLDER~1\AppData\Local\Temp\ccI3TRm9.s:28182  .debug_str:0000000000016458 .LASF853
C:\Users\SOLDER~1\AppData\Local\Temp\ccI3TRm9.s:25298  .debug_str:000000000000a846 .LASF854
C:\Users\SOLDER~1\AppData\Local\Temp\ccI3TRm9.s:26362  .debug_str:000000000000edd3 .LASF855
C:\Users\SOLDER~1\AppData\Local\Temp\ccI3TRm9.s:30406  .debug_str:000000000001f36e .LASF856
C:\Users\SOLDER~1\AppData\Local\Temp\ccI3TRm9.s:26396  .debug_str:000000000000eff1 .LASF857
C:\Users\SOLDER~1\AppData\Local\Temp\ccI3TRm9.s:31298  .debug_str:0000000000022cfc .LASF858
C:\Users\SOLDER~1\AppData\Local\Temp\ccI3TRm9.s:23638  .debug_str:0000000000003c9f .LASF859
C:\Users\SOLDER~1\AppData\Local\Temp\ccI3TRm9.s:25686  .debug_str:000000000000c148 .LASF860
C:\Users\SOLDER~1\AppData\Local\Temp\ccI3TRm9.s:23352  .debug_str:0000000000002a95 .LASF861
C:\Users\SOLDER~1\AppData\Local\Temp\ccI3TRm9.s:26976  .debug_str:000000000001154a .LASF862
C:\Users\SOLDER~1\AppData\Local\Temp\ccI3TRm9.s:29328  .debug_str:000000000001ae16 .LASF863
C:\Users\SOLDER~1\AppData\Local\Temp\ccI3TRm9.s:27462  .debug_str:0000000000013461 .LASF864
C:\Users\SOLDER~1\AppData\Local\Temp\ccI3TRm9.s:31210  .debug_str:000000000002276b .LASF865
C:\Users\SOLDER~1\AppData\Local\Temp\ccI3TRm9.s:26770  .debug_str:0000000000010854 .LASF866
C:\Users\SOLDER~1\AppData\Local\Temp\ccI3TRm9.s:23512  .debug_str:00000000000034a7 .LASF867
C:\Users\SOLDER~1\AppData\Local\Temp\ccI3TRm9.s:34276  .debug_str:000000000002ee9d .LASF868
C:\Users\SOLDER~1\AppData\Local\Temp\ccI3TRm9.s:23960  .debug_str:00000000000050c0 .LASF869
C:\Users\SOLDER~1\AppData\Local\Temp\ccI3TRm9.s:27660  .debug_str:0000000000014212 .LASF870
C:\Users\SOLDER~1\AppData\Local\Temp\ccI3TRm9.s:33762  .debug_str:000000000002cdc6 .LASF871
C:\Users\SOLDER~1\AppData\Local\Temp\ccI3TRm9.s:28162  .debug_str:00000000000162fe .LASF872
C:\Users\SOLDER~1\AppData\Local\Temp\ccI3TRm9.s:34396  .debug_str:000000000002f641 .LASF873
C:\Users\SOLDER~1\AppData\Local\Temp\ccI3TRm9.s:29700  .debug_str:000000000001c4fa .LASF874
C:\Users\SOLDER~1\AppData\Local\Temp\ccI3TRm9.s:28952  .debug_str:0000000000019613 .LASF875
C:\Users\SOLDER~1\AppData\Local\Temp\ccI3TRm9.s:24278  .debug_str:000000000000655f .LASF876
C:\Users\SOLDER~1\AppData\Local\Temp\ccI3TRm9.s:32934  .debug_str:000000000002984b .LASF877
GAS LISTING C:\Users\SOLDER~1\AppData\Local\Temp\ccI3TRm9.s 			page 110


C:\Users\SOLDER~1\AppData\Local\Temp\ccI3TRm9.s:26970  .debug_str:0000000000011505 .LASF878
C:\Users\SOLDER~1\AppData\Local\Temp\ccI3TRm9.s:26936  .debug_str:00000000000112b5 .LASF879
C:\Users\SOLDER~1\AppData\Local\Temp\ccI3TRm9.s:23396  .debug_str:0000000000002d41 .LASF880
C:\Users\SOLDER~1\AppData\Local\Temp\ccI3TRm9.s:33436  .debug_str:000000000002b84c .LASF881
C:\Users\SOLDER~1\AppData\Local\Temp\ccI3TRm9.s:24424  .debug_str:0000000000006eff .LASF882
C:\Users\SOLDER~1\AppData\Local\Temp\ccI3TRm9.s:23994  .debug_str:00000000000052c6 .LASF883
C:\Users\SOLDER~1\AppData\Local\Temp\ccI3TRm9.s:28054  .debug_str:0000000000015c59 .LASF884
C:\Users\SOLDER~1\AppData\Local\Temp\ccI3TRm9.s:25696  .debug_str:000000000000c1ee .LASF885
C:\Users\SOLDER~1\AppData\Local\Temp\ccI3TRm9.s:30166  .debug_str:000000000001e3b2 .LASF886
C:\Users\SOLDER~1\AppData\Local\Temp\ccI3TRm9.s:29228  .debug_str:000000000001a78f .LASF887
C:\Users\SOLDER~1\AppData\Local\Temp\ccI3TRm9.s:25308  .debug_str:000000000000a8ff .LASF888
C:\Users\SOLDER~1\AppData\Local\Temp\ccI3TRm9.s:26868  .debug_str:0000000000010e8a .LASF889
C:\Users\SOLDER~1\AppData\Local\Temp\ccI3TRm9.s:33096  .debug_str:000000000002a258 .LASF890
C:\Users\SOLDER~1\AppData\Local\Temp\ccI3TRm9.s:22784  .debug_str:00000000000004c3 .LASF891
C:\Users\SOLDER~1\AppData\Local\Temp\ccI3TRm9.s:33620  .debug_str:000000000002c481 .LASF892
C:\Users\SOLDER~1\AppData\Local\Temp\ccI3TRm9.s:33534  .debug_str:000000000002bed2 .LASF893
C:\Users\SOLDER~1\AppData\Local\Temp\ccI3TRm9.s:31464  .debug_str:00000000000237f4 .LASF894
C:\Users\SOLDER~1\AppData\Local\Temp\ccI3TRm9.s:33112  .debug_str:000000000002a367 .LASF895
C:\Users\SOLDER~1\AppData\Local\Temp\ccI3TRm9.s:30330  .debug_str:000000000001ee66 .LASF896
C:\Users\SOLDER~1\AppData\Local\Temp\ccI3TRm9.s:32682  .debug_str:000000000002881a .LASF897
C:\Users\SOLDER~1\AppData\Local\Temp\ccI3TRm9.s:24344  .debug_str:0000000000006a09 .LASF898
C:\Users\SOLDER~1\AppData\Local\Temp\ccI3TRm9.s:24356  .debug_str:0000000000006ace .LASF899
C:\Users\SOLDER~1\AppData\Local\Temp\ccI3TRm9.s:24274  .debug_str:0000000000006519 .LASF900
C:\Users\SOLDER~1\AppData\Local\Temp\ccI3TRm9.s:28704  .debug_str:0000000000018611 .LASF901
C:\Users\SOLDER~1\AppData\Local\Temp\ccI3TRm9.s:30616  .debug_str:000000000002013d .LASF902
C:\Users\SOLDER~1\AppData\Local\Temp\ccI3TRm9.s:24498  .debug_str:00000000000073f9 .LASF903
C:\Users\SOLDER~1\AppData\Local\Temp\ccI3TRm9.s:23522  .debug_str:0000000000003540 .LASF904
C:\Users\SOLDER~1\AppData\Local\Temp\ccI3TRm9.s:25652  .debug_str:000000000000bf3b .LASF905
C:\Users\SOLDER~1\AppData\Local\Temp\ccI3TRm9.s:23766  .debug_str:0000000000004475 .LASF906
C:\Users\SOLDER~1\AppData\Local\Temp\ccI3TRm9.s:24552  .debug_str:0000000000007751 .LASF907
C:\Users\SOLDER~1\AppData\Local\Temp\ccI3TRm9.s:31648  .debug_str:00000000000243e8 .LASF908
C:\Users\SOLDER~1\AppData\Local\Temp\ccI3TRm9.s:28482  .debug_str:0000000000017761 .LASF909
C:\Users\SOLDER~1\AppData\Local\Temp\ccI3TRm9.s:27544  .debug_str:00000000000139fd .LASF910
C:\Users\SOLDER~1\AppData\Local\Temp\ccI3TRm9.s:30198  .debug_str:000000000001e5c8 .LASF911
C:\Users\SOLDER~1\AppData\Local\Temp\ccI3TRm9.s:24036  .debug_str:000000000000553e .LASF912
C:\Users\SOLDER~1\AppData\Local\Temp\ccI3TRm9.s:33298  .debug_str:000000000002afc2 .LASF913
C:\Users\SOLDER~1\AppData\Local\Temp\ccI3TRm9.s:23312  .debug_str:00000000000027e0 .LASF914
C:\Users\SOLDER~1\AppData\Local\Temp\ccI3TRm9.s:33920  .debug_str:000000000002d7f3 .LASF915
C:\Users\SOLDER~1\AppData\Local\Temp\ccI3TRm9.s:28620  .debug_str:0000000000018043 .LASF916
C:\Users\SOLDER~1\AppData\Local\Temp\ccI3TRm9.s:28580  .debug_str:0000000000017db7 .LASF917
C:\Users\SOLDER~1\AppData\Local\Temp\ccI3TRm9.s:30536  .debug_str:000000000001fc50 .LASF918
C:\Users\SOLDER~1\AppData\Local\Temp\ccI3TRm9.s:29338  .debug_str:000000000001ae9f .LASF919
C:\Users\SOLDER~1\AppData\Local\Temp\ccI3TRm9.s:31084  .debug_str:0000000000021f54 .LASF920
C:\Users\SOLDER~1\AppData\Local\Temp\ccI3TRm9.s:26540  .debug_str:000000000000f930 .LASF921
C:\Users\SOLDER~1\AppData\Local\Temp\ccI3TRm9.s:23094  .debug_str:000000000000196a .LASF922
C:\Users\SOLDER~1\AppData\Local\Temp\ccI3TRm9.s:33204  .debug_str:000000000002a959 .LASF923
C:\Users\SOLDER~1\AppData\Local\Temp\ccI3TRm9.s:33284  .debug_str:000000000002aecf .LASF924
C:\Users\SOLDER~1\AppData\Local\Temp\ccI3TRm9.s:23914  .debug_str:0000000000004e04 .LASF925
C:\Users\SOLDER~1\AppData\Local\Temp\ccI3TRm9.s:24342  .debug_str:00000000000069e9 .LASF926
C:\Users\SOLDER~1\AppData\Local\Temp\ccI3TRm9.s:25220  .debug_str:000000000000a2f3 .LASF927
C:\Users\SOLDER~1\AppData\Local\Temp\ccI3TRm9.s:29780  .debug_str:000000000001ca57 .LASF928
C:\Users\SOLDER~1\AppData\Local\Temp\ccI3TRm9.s:28874  .debug_str:00000000000190e3 .LASF929
C:\Users\SOLDER~1\AppData\Local\Temp\ccI3TRm9.s:30316  .debug_str:000000000001ed8c .LASF930
C:\Users\SOLDER~1\AppData\Local\Temp\ccI3TRm9.s:23032  .debug_str:000000000000158a .LASF931
C:\Users\SOLDER~1\AppData\Local\Temp\ccI3TRm9.s:24418  .debug_str:0000000000006e86 .LASF932
C:\Users\SOLDER~1\AppData\Local\Temp\ccI3TRm9.s:22946  .debug_str:0000000000001006 .LASF933
C:\Users\SOLDER~1\AppData\Local\Temp\ccI3TRm9.s:26222  .debug_str:000000000000e512 .LASF934
GAS LISTING C:\Users\SOLDER~1\AppData\Local\Temp\ccI3TRm9.s 			page 111


C:\Users\SOLDER~1\AppData\Local\Temp\ccI3TRm9.s:33162  .debug_str:000000000002a6bb .LASF935
C:\Users\SOLDER~1\AppData\Local\Temp\ccI3TRm9.s:31098  .debug_str:000000000002203a .LASF936
C:\Users\SOLDER~1\AppData\Local\Temp\ccI3TRm9.s:32716  .debug_str:0000000000028a80 .LASF937
C:\Users\SOLDER~1\AppData\Local\Temp\ccI3TRm9.s:29940  .debug_str:000000000001d4c2 .LASF938
C:\Users\SOLDER~1\AppData\Local\Temp\ccI3TRm9.s:32996  .debug_str:0000000000029c01 .LASF939
C:\Users\SOLDER~1\AppData\Local\Temp\ccI3TRm9.s:25042  .debug_str:000000000000976a .LASF940
C:\Users\SOLDER~1\AppData\Local\Temp\ccI3TRm9.s:33144  .debug_str:000000000002a592 .LASF941
C:\Users\SOLDER~1\AppData\Local\Temp\ccI3TRm9.s:26420  .debug_str:000000000000f197 .LASF942
C:\Users\SOLDER~1\AppData\Local\Temp\ccI3TRm9.s:32034  .debug_str:0000000000025cdb .LASF943
C:\Users\SOLDER~1\AppData\Local\Temp\ccI3TRm9.s:23536  .debug_str:0000000000003618 .LASF944
C:\Users\SOLDER~1\AppData\Local\Temp\ccI3TRm9.s:26264  .debug_str:000000000000e7c8 .LASF945
C:\Users\SOLDER~1\AppData\Local\Temp\ccI3TRm9.s:27734  .debug_str:0000000000014753 .LASF946
C:\Users\SOLDER~1\AppData\Local\Temp\ccI3TRm9.s:32112  .debug_str:0000000000026234 .LASF947
C:\Users\SOLDER~1\AppData\Local\Temp\ccI3TRm9.s:29526  .debug_str:000000000001ba5a .LASF948
C:\Users\SOLDER~1\AppData\Local\Temp\ccI3TRm9.s:25114  .debug_str:0000000000009bfc .LASF949
C:\Users\SOLDER~1\AppData\Local\Temp\ccI3TRm9.s:26238  .debug_str:000000000000e62d .LASF950
C:\Users\SOLDER~1\AppData\Local\Temp\ccI3TRm9.s:26590  .debug_str:000000000000fca8 .LASF951
C:\Users\SOLDER~1\AppData\Local\Temp\ccI3TRm9.s:34002  .debug_str:000000000002dd8e .LASF952
C:\Users\SOLDER~1\AppData\Local\Temp\ccI3TRm9.s:26088  .debug_str:000000000000dc3e .LASF953
C:\Users\SOLDER~1\AppData\Local\Temp\ccI3TRm9.s:28518  .debug_str:00000000000179c1 .LASF954
C:\Users\SOLDER~1\AppData\Local\Temp\ccI3TRm9.s:29056  .debug_str:0000000000019d0d .LASF955
C:\Users\SOLDER~1\AppData\Local\Temp\ccI3TRm9.s:28902  .debug_str:00000000000192e0 .LASF956
C:\Users\SOLDER~1\AppData\Local\Temp\ccI3TRm9.s:28374  .debug_str:000000000001704f .LASF957
C:\Users\SOLDER~1\AppData\Local\Temp\ccI3TRm9.s:26446  .debug_str:000000000000f326 .LASF958
C:\Users\SOLDER~1\AppData\Local\Temp\ccI3TRm9.s:23876  .debug_str:0000000000004b88 .LASF959
C:\Users\SOLDER~1\AppData\Local\Temp\ccI3TRm9.s:24110  .debug_str:0000000000005a35 .LASF960
C:\Users\SOLDER~1\AppData\Local\Temp\ccI3TRm9.s:31036  .debug_str:0000000000021c62 .LASF961
C:\Users\SOLDER~1\AppData\Local\Temp\ccI3TRm9.s:33440  .debug_str:000000000002b896 .LASF962
C:\Users\SOLDER~1\AppData\Local\Temp\ccI3TRm9.s:26518  .debug_str:000000000000f7be .LASF963
C:\Users\SOLDER~1\AppData\Local\Temp\ccI3TRm9.s:30980  .debug_str:00000000000218c1 .LASF964
C:\Users\SOLDER~1\AppData\Local\Temp\ccI3TRm9.s:33726  .debug_str:000000000002cbaf .LASF965
C:\Users\SOLDER~1\AppData\Local\Temp\ccI3TRm9.s:28622  .debug_str:0000000000018065 .LASF966
C:\Users\SOLDER~1\AppData\Local\Temp\ccI3TRm9.s:28412  .debug_str:000000000001727c .LASF967
C:\Users\SOLDER~1\AppData\Local\Temp\ccI3TRm9.s:26154  .debug_str:000000000000e05c .LASF968
C:\Users\SOLDER~1\AppData\Local\Temp\ccI3TRm9.s:24710  .debug_str:000000000000819a .LASF969
C:\Users\SOLDER~1\AppData\Local\Temp\ccI3TRm9.s:23718  .debug_str:0000000000004194 .LASF970
C:\Users\SOLDER~1\AppData\Local\Temp\ccI3TRm9.s:31850  .debug_str:0000000000025120 .LASF971
C:\Users\SOLDER~1\AppData\Local\Temp\ccI3TRm9.s:33064  .debug_str:000000000002a067 .LASF972
C:\Users\SOLDER~1\AppData\Local\Temp\ccI3TRm9.s:25930  .debug_str:000000000000d1e2 .LASF973
C:\Users\SOLDER~1\AppData\Local\Temp\ccI3TRm9.s:27014  .debug_str:00000000000117d7 .LASF974
C:\Users\SOLDER~1\AppData\Local\Temp\ccI3TRm9.s:26550  .debug_str:000000000000f9c8 .LASF975
C:\Users\SOLDER~1\AppData\Local\Temp\ccI3TRm9.s:27440  .debug_str:0000000000013321 .LASF976
C:\Users\SOLDER~1\AppData\Local\Temp\ccI3TRm9.s:33850  .debug_str:000000000002d37d .LASF977
C:\Users\SOLDER~1\AppData\Local\Temp\ccI3TRm9.s:33916  .debug_str:000000000002d7b1 .LASF978
C:\Users\SOLDER~1\AppData\Local\Temp\ccI3TRm9.s:29284  .debug_str:000000000001ab30 .LASF979
C:\Users\SOLDER~1\AppData\Local\Temp\ccI3TRm9.s:31432  .debug_str:00000000000235d0 .LASF980
C:\Users\SOLDER~1\AppData\Local\Temp\ccI3TRm9.s:24740  .debug_str:0000000000008399 .LASF981
C:\Users\SOLDER~1\AppData\Local\Temp\ccI3TRm9.s:29064  .debug_str:0000000000019d72 .LASF982
C:\Users\SOLDER~1\AppData\Local\Temp\ccI3TRm9.s:31880  .debug_str:000000000002533b .LASF983
C:\Users\SOLDER~1\AppData\Local\Temp\ccI3TRm9.s:26736  .debug_str:000000000001063c .LASF984
C:\Users\SOLDER~1\AppData\Local\Temp\ccI3TRm9.s:27366  .debug_str:0000000000012e67 .LASF985
C:\Users\SOLDER~1\AppData\Local\Temp\ccI3TRm9.s:24288  .debug_str:0000000000006602 .LASF986
C:\Users\SOLDER~1\AppData\Local\Temp\ccI3TRm9.s:27908  .debug_str:00000000000152c8 .LASF987
C:\Users\SOLDER~1\AppData\Local\Temp\ccI3TRm9.s:33628  .debug_str:000000000002c50a .LASF988
C:\Users\SOLDER~1\AppData\Local\Temp\ccI3TRm9.s:30084  .debug_str:000000000001de5a .LASF989
C:\Users\SOLDER~1\AppData\Local\Temp\ccI3TRm9.s:24166  .debug_str:0000000000005de8 .LASF990
C:\Users\SOLDER~1\AppData\Local\Temp\ccI3TRm9.s:25548  .debug_str:000000000000b880 .LASF991
GAS LISTING C:\Users\SOLDER~1\AppData\Local\Temp\ccI3TRm9.s 			page 112


C:\Users\SOLDER~1\AppData\Local\Temp\ccI3TRm9.s:28800  .debug_str:0000000000018c06 .LASF992
C:\Users\SOLDER~1\AppData\Local\Temp\ccI3TRm9.s:32724  .debug_str:0000000000028afb .LASF993
C:\Users\SOLDER~1\AppData\Local\Temp\ccI3TRm9.s:29882  .debug_str:000000000001d10e .LASF994
C:\Users\SOLDER~1\AppData\Local\Temp\ccI3TRm9.s:28200  .debug_str:0000000000016591 .LASF995
C:\Users\SOLDER~1\AppData\Local\Temp\ccI3TRm9.s:26818  .debug_str:0000000000010b57 .LASF996
C:\Users\SOLDER~1\AppData\Local\Temp\ccI3TRm9.s:23624  .debug_str:0000000000003bc9 .LASF997
C:\Users\SOLDER~1\AppData\Local\Temp\ccI3TRm9.s:25052  .debug_str:00000000000097e7 .LASF998
C:\Users\SOLDER~1\AppData\Local\Temp\ccI3TRm9.s:30884  .debug_str:0000000000021276 .LASF999
C:\Users\SOLDER~1\AppData\Local\Temp\ccI3TRm9.s:34392  .debug_str:000000000002f5f9 .LASF1000
C:\Users\SOLDER~1\AppData\Local\Temp\ccI3TRm9.s:26354  .debug_str:000000000000ed7e .LASF1001
C:\Users\SOLDER~1\AppData\Local\Temp\ccI3TRm9.s:31910  .debug_str:00000000000254fd .LASF1002
C:\Users\SOLDER~1\AppData\Local\Temp\ccI3TRm9.s:33574  .debug_str:000000000002c191 .LASF1003
C:\Users\SOLDER~1\AppData\Local\Temp\ccI3TRm9.s:29608  .debug_str:000000000001bf22 .LASF1004
C:\Users\SOLDER~1\AppData\Local\Temp\ccI3TRm9.s:29020  .debug_str:0000000000019ac6 .LASF1005
C:\Users\SOLDER~1\AppData\Local\Temp\ccI3TRm9.s:27182  .debug_str:0000000000012286 .LASF1006
C:\Users\SOLDER~1\AppData\Local\Temp\ccI3TRm9.s:24454  .debug_str:000000000000712b .LASF1007
C:\Users\SOLDER~1\AppData\Local\Temp\ccI3TRm9.s:24764  .debug_str:0000000000008512 .LASF1008
C:\Users\SOLDER~1\AppData\Local\Temp\ccI3TRm9.s:31692  .debug_str:00000000000246b8 .LASF1009
C:\Users\SOLDER~1\AppData\Local\Temp\ccI3TRm9.s:34096  .debug_str:000000000002e37a .LASF1010
C:\Users\SOLDER~1\AppData\Local\Temp\ccI3TRm9.s:27176  .debug_str:0000000000012226 .LASF1011
C:\Users\SOLDER~1\AppData\Local\Temp\ccI3TRm9.s:32296  .debug_str:0000000000026e8c .LASF1012
C:\Users\SOLDER~1\AppData\Local\Temp\ccI3TRm9.s:34386  .debug_str:000000000002f5a0 .LASF1013
C:\Users\SOLDER~1\AppData\Local\Temp\ccI3TRm9.s:32786  .debug_str:0000000000028edc .LASF1014
C:\Users\SOLDER~1\AppData\Local\Temp\ccI3TRm9.s:29792  .debug_str:000000000001cb3b .LASF1015
C:\Users\SOLDER~1\AppData\Local\Temp\ccI3TRm9.s:30364  .debug_str:000000000001f0aa .LASF1016
C:\Users\SOLDER~1\AppData\Local\Temp\ccI3TRm9.s:25242  .debug_str:000000000000a473 .LASF1017
C:\Users\SOLDER~1\AppData\Local\Temp\ccI3TRm9.s:27956  .debug_str:00000000000155cc .LASF1018
C:\Users\SOLDER~1\AppData\Local\Temp\ccI3TRm9.s:32432  .debug_str:00000000000277c5 .LASF1019
C:\Users\SOLDER~1\AppData\Local\Temp\ccI3TRm9.s:25514  .debug_str:000000000000b612 .LASF1020
C:\Users\SOLDER~1\AppData\Local\Temp\ccI3TRm9.s:27150  .debug_str:000000000001209e .LASF1021
C:\Users\SOLDER~1\AppData\Local\Temp\ccI3TRm9.s:29252  .debug_str:000000000001a93b .LASF1022
C:\Users\SOLDER~1\AppData\Local\Temp\ccI3TRm9.s:23430  .debug_str:0000000000002f9a .LASF1023
C:\Users\SOLDER~1\AppData\Local\Temp\ccI3TRm9.s:32482  .debug_str:0000000000027aeb .LASF1024
C:\Users\SOLDER~1\AppData\Local\Temp\ccI3TRm9.s:31420  .debug_str:000000000002352c .LASF1025
C:\Users\SOLDER~1\AppData\Local\Temp\ccI3TRm9.s:30058  .debug_str:000000000001dcb2 .LASF1026
C:\Users\SOLDER~1\AppData\Local\Temp\ccI3TRm9.s:26068  .debug_str:000000000000db0d .LASF1027
C:\Users\SOLDER~1\AppData\Local\Temp\ccI3TRm9.s:27670  .debug_str:00000000000142dc .LASF1028
C:\Users\SOLDER~1\AppData\Local\Temp\ccI3TRm9.s:33278  .debug_str:000000000002ae56 .LASF1029
C:\Users\SOLDER~1\AppData\Local\Temp\ccI3TRm9.s:25216  .debug_str:000000000000a2af .LASF1030
C:\Users\SOLDER~1\AppData\Local\Temp\ccI3TRm9.s:24806  .debug_str:000000000000879c .LASF1031
C:\Users\SOLDER~1\AppData\Local\Temp\ccI3TRm9.s:22822  .debug_str:00000000000007cf .LASF1032
C:\Users\SOLDER~1\AppData\Local\Temp\ccI3TRm9.s:24154  .debug_str:0000000000005d12 .LASF1033
C:\Users\SOLDER~1\AppData\Local\Temp\ccI3TRm9.s:23940  .debug_str:0000000000004f88 .LASF1034
C:\Users\SOLDER~1\AppData\Local\Temp\ccI3TRm9.s:31302  .debug_str:0000000000022d36 .LASF1035
C:\Users\SOLDER~1\AppData\Local\Temp\ccI3TRm9.s:33262  .debug_str:000000000002ad53 .LASF1036
C:\Users\SOLDER~1\AppData\Local\Temp\ccI3TRm9.s:26908  .debug_str:0000000000011129 .LASF1037
C:\Users\SOLDER~1\AppData\Local\Temp\ccI3TRm9.s:30800  .debug_str:0000000000020d12 .LASF1038
C:\Users\SOLDER~1\AppData\Local\Temp\ccI3TRm9.s:31820  .debug_str:0000000000024f2c .LASF1039
C:\Users\SOLDER~1\AppData\Local\Temp\ccI3TRm9.s:25108  .debug_str:0000000000009ba4 .LASF1040
C:\Users\SOLDER~1\AppData\Local\Temp\ccI3TRm9.s:23860  .debug_str:0000000000004a89 .LASF1041
C:\Users\SOLDER~1\AppData\Local\Temp\ccI3TRm9.s:26758  .debug_str:00000000000107a7 .LASF1042
C:\Users\SOLDER~1\AppData\Local\Temp\ccI3TRm9.s:32912  .debug_str:000000000002970e .LASF1043
C:\Users\SOLDER~1\AppData\Local\Temp\ccI3TRm9.s:30604  .debug_str:000000000002006e .LASF1044
C:\Users\SOLDER~1\AppData\Local\Temp\ccI3TRm9.s:28118  .debug_str:000000000001603b .LASF1045
C:\Users\SOLDER~1\AppData\Local\Temp\ccI3TRm9.s:23634  .debug_str:0000000000003c63 .LASF1046
C:\Users\SOLDER~1\AppData\Local\Temp\ccI3TRm9.s:32328  .debug_str:00000000000270cc .LASF1047
C:\Users\SOLDER~1\AppData\Local\Temp\ccI3TRm9.s:34194  .debug_str:000000000002e9c0 .LASF1048
GAS LISTING C:\Users\SOLDER~1\AppData\Local\Temp\ccI3TRm9.s 			page 113


C:\Users\SOLDER~1\AppData\Local\Temp\ccI3TRm9.s:28486  .debug_str:00000000000177a7 .LASF1049
C:\Users\SOLDER~1\AppData\Local\Temp\ccI3TRm9.s:27160  .debug_str:000000000001212a .LASF1050
C:\Users\SOLDER~1\AppData\Local\Temp\ccI3TRm9.s:29874  .debug_str:000000000001d08f .LASF1051
C:\Users\SOLDER~1\AppData\Local\Temp\ccI3TRm9.s:32316  .debug_str:0000000000027005 .LASF1052
C:\Users\SOLDER~1\AppData\Local\Temp\ccI3TRm9.s:26340  .debug_str:000000000000ecac .LASF1053
C:\Users\SOLDER~1\AppData\Local\Temp\ccI3TRm9.s:29690  .debug_str:000000000001c45d .LASF1054
C:\Users\SOLDER~1\AppData\Local\Temp\ccI3TRm9.s:23946  .debug_str:0000000000004fdf .LASF1055
C:\Users\SOLDER~1\AppData\Local\Temp\ccI3TRm9.s:30990  .debug_str:000000000002195b .LASF1056
C:\Users\SOLDER~1\AppData\Local\Temp\ccI3TRm9.s:31080  .debug_str:0000000000021f1a .LASF1057
C:\Users\SOLDER~1\AppData\Local\Temp\ccI3TRm9.s:30034  .debug_str:000000000001db20 .LASF1058
C:\Users\SOLDER~1\AppData\Local\Temp\ccI3TRm9.s:33122  .debug_str:000000000002a40d .LASF1059
C:\Users\SOLDER~1\AppData\Local\Temp\ccI3TRm9.s:31000  .debug_str:00000000000219f9 .LASF1060
C:\Users\SOLDER~1\AppData\Local\Temp\ccI3TRm9.s:30758  .debug_str:0000000000020a4b .LASF1061
C:\Users\SOLDER~1\AppData\Local\Temp\ccI3TRm9.s:34040  .debug_str:000000000002dfdc .LASF1062
C:\Users\SOLDER~1\AppData\Local\Temp\ccI3TRm9.s:24310  .debug_str:0000000000006798 .LASF1063
C:\Users\SOLDER~1\AppData\Local\Temp\ccI3TRm9.s:26664  .debug_str:00000000000101c1 .LASF1064
C:\Users\SOLDER~1\AppData\Local\Temp\ccI3TRm9.s:31412  .debug_str:00000000000234a9 .LASF1065
C:\Users\SOLDER~1\AppData\Local\Temp\ccI3TRm9.s:31434  .debug_str:00000000000235f1 .LASF1066
C:\Users\SOLDER~1\AppData\Local\Temp\ccI3TRm9.s:26070  .debug_str:000000000000db24 .LASF1067
C:\Users\SOLDER~1\AppData\Local\Temp\ccI3TRm9.s:23846  .debug_str:00000000000049c1 .LASF1068
C:\Users\SOLDER~1\AppData\Local\Temp\ccI3TRm9.s:26900  .debug_str:00000000000110a0 .LASF1069
C:\Users\SOLDER~1\AppData\Local\Temp\ccI3TRm9.s:31286  .debug_str:0000000000022c1f .LASF1070
C:\Users\SOLDER~1\AppData\Local\Temp\ccI3TRm9.s:29948  .debug_str:000000000001d55a .LASF1071
C:\Users\SOLDER~1\AppData\Local\Temp\ccI3TRm9.s:26880  .debug_str:0000000000010f48 .LASF1072
C:\Users\SOLDER~1\AppData\Local\Temp\ccI3TRm9.s:31534  .debug_str:0000000000023cb4 .LASF1073
C:\Users\SOLDER~1\AppData\Local\Temp\ccI3TRm9.s:22840  .debug_str:000000000000093c .LASF1074
C:\Users\SOLDER~1\AppData\Local\Temp\ccI3TRm9.s:29206  .debug_str:000000000001a643 .LASF1075
C:\Users\SOLDER~1\AppData\Local\Temp\ccI3TRm9.s:27690  .debug_str:0000000000014417 .LASF1076
C:\Users\SOLDER~1\AppData\Local\Temp\ccI3TRm9.s:25870  .debug_str:000000000000cdf9 .LASF1077
C:\Users\SOLDER~1\AppData\Local\Temp\ccI3TRm9.s:23298  .debug_str:00000000000026fe .LASF1078
C:\Users\SOLDER~1\AppData\Local\Temp\ccI3TRm9.s:32008  .debug_str:0000000000025b4d .LASF1079
C:\Users\SOLDER~1\AppData\Local\Temp\ccI3TRm9.s:24928  .debug_str:0000000000008f9b .LASF1080
C:\Users\SOLDER~1\AppData\Local\Temp\ccI3TRm9.s:27338  .debug_str:0000000000012c4d .LASF1081
C:\Users\SOLDER~1\AppData\Local\Temp\ccI3TRm9.s:30840  .debug_str:0000000000020f9a .LASF1082
C:\Users\SOLDER~1\AppData\Local\Temp\ccI3TRm9.s:30296  .debug_str:000000000001ec17 .LASF1083
C:\Users\SOLDER~1\AppData\Local\Temp\ccI3TRm9.s:28192  .debug_str:0000000000016506 .LASF1084
C:\Users\SOLDER~1\AppData\Local\Temp\ccI3TRm9.s:24158  .debug_str:0000000000005d4e .LASF1085
C:\Users\SOLDER~1\AppData\Local\Temp\ccI3TRm9.s:31396  .debug_str:000000000002339a .LASF1086
C:\Users\SOLDER~1\AppData\Local\Temp\ccI3TRm9.s:33206  .debug_str:000000000002a97b .LASF1087
C:\Users\SOLDER~1\AppData\Local\Temp\ccI3TRm9.s:30984  .debug_str:00000000000218f7 .LASF1088
C:\Users\SOLDER~1\AppData\Local\Temp\ccI3TRm9.s:24128  .debug_str:0000000000005b72 .LASF1089
C:\Users\SOLDER~1\AppData\Local\Temp\ccI3TRm9.s:32342  .debug_str:00000000000271a8 .LASF1090
C:\Users\SOLDER~1\AppData\Local\Temp\ccI3TRm9.s:30132  .debug_str:000000000001e150 .LASF1091
C:\Users\SOLDER~1\AppData\Local\Temp\ccI3TRm9.s:24492  .debug_str:000000000000738d .LASF1092
C:\Users\SOLDER~1\AppData\Local\Temp\ccI3TRm9.s:28640  .debug_str:0000000000018199 .LASF1093
C:\Users\SOLDER~1\AppData\Local\Temp\ccI3TRm9.s:26038  .debug_str:000000000000d8f6 .LASF1094
C:\Users\SOLDER~1\AppData\Local\Temp\ccI3TRm9.s:23048  .debug_str:0000000000001690 .LASF1095
C:\Users\SOLDER~1\AppData\Local\Temp\ccI3TRm9.s:24216  .debug_str:000000000000611c .LASF1096
C:\Users\SOLDER~1\AppData\Local\Temp\ccI3TRm9.s:31418  .debug_str:0000000000023505 .LASF1097
C:\Users\SOLDER~1\AppData\Local\Temp\ccI3TRm9.s:30702  .debug_str:000000000002069b .LASF1098
C:\Users\SOLDER~1\AppData\Local\Temp\ccI3TRm9.s:24456  .debug_str:0000000000007142 .LASF1099
C:\Users\SOLDER~1\AppData\Local\Temp\ccI3TRm9.s:27966  .debug_str:0000000000015690 .LASF1100
C:\Users\SOLDER~1\AppData\Local\Temp\ccI3TRm9.s:31672  .debug_str:0000000000024575 .LASF1101
C:\Users\SOLDER~1\AppData\Local\Temp\ccI3TRm9.s:33402  .debug_str:000000000002b641 .LASF1102
C:\Users\SOLDER~1\AppData\Local\Temp\ccI3TRm9.s:22906  .debug_str:0000000000000dd3 .LASF1103
C:\Users\SOLDER~1\AppData\Local\Temp\ccI3TRm9.s:23016  .debug_str:0000000000001498 .LASF1104
C:\Users\SOLDER~1\AppData\Local\Temp\ccI3TRm9.s:30632  .debug_str:0000000000020232 .LASF1105
GAS LISTING C:\Users\SOLDER~1\AppData\Local\Temp\ccI3TRm9.s 			page 114


C:\Users\SOLDER~1\AppData\Local\Temp\ccI3TRm9.s:24104  .debug_str:00000000000059c9 .LASF1106
C:\Users\SOLDER~1\AppData\Local\Temp\ccI3TRm9.s:25670  .debug_str:000000000000c048 .LASF1107
C:\Users\SOLDER~1\AppData\Local\Temp\ccI3TRm9.s:23088  .debug_str:0000000000001907 .LASF1108
C:\Users\SOLDER~1\AppData\Local\Temp\ccI3TRm9.s:30716  .debug_str:0000000000020778 .LASF1109
C:\Users\SOLDER~1\AppData\Local\Temp\ccI3TRm9.s:24190  .debug_str:0000000000005f57 .LASF1110
C:\Users\SOLDER~1\AppData\Local\Temp\ccI3TRm9.s:24706  .debug_str:000000000000814e .LASF1111
C:\Users\SOLDER~1\AppData\Local\Temp\ccI3TRm9.s:25196  .debug_str:000000000000a151 .LASF1112
C:\Users\SOLDER~1\AppData\Local\Temp\ccI3TRm9.s:25640  .debug_str:000000000000be77 .LASF1113
C:\Users\SOLDER~1\AppData\Local\Temp\ccI3TRm9.s:32692  .debug_str:00000000000288bc .LASF1114
C:\Users\SOLDER~1\AppData\Local\Temp\ccI3TRm9.s:24848  .debug_str:0000000000008a2f .LASF1115
C:\Users\SOLDER~1\AppData\Local\Temp\ccI3TRm9.s:32402  .debug_str:0000000000027589 .LASF1116
C:\Users\SOLDER~1\AppData\Local\Temp\ccI3TRm9.s:33886  .debug_str:000000000002d58d .LASF1117
C:\Users\SOLDER~1\AppData\Local\Temp\ccI3TRm9.s:33366  .debug_str:000000000002b3cb .LASF1118
C:\Users\SOLDER~1\AppData\Local\Temp\ccI3TRm9.s:27608  .debug_str:0000000000013e7a .LASF1119
C:\Users\SOLDER~1\AppData\Local\Temp\ccI3TRm9.s:23862  .debug_str:0000000000004a9a .LASF1120
C:\Users\SOLDER~1\AppData\Local\Temp\ccI3TRm9.s:33924  .debug_str:000000000002d834 .LASF1121
C:\Users\SOLDER~1\AppData\Local\Temp\ccI3TRm9.s:24968  .debug_str:0000000000009265 .LASF1122
C:\Users\SOLDER~1\AppData\Local\Temp\ccI3TRm9.s:33540  .debug_str:000000000002bf4c .LASF1123
C:\Users\SOLDER~1\AppData\Local\Temp\ccI3TRm9.s:27854  .debug_str:0000000000014f4f .LASF1124
C:\Users\SOLDER~1\AppData\Local\Temp\ccI3TRm9.s:25528  .debug_str:000000000000b71a .LASF1125
C:\Users\SOLDER~1\AppData\Local\Temp\ccI3TRm9.s:34070  .debug_str:000000000002e1e6 .LASF1126
C:\Users\SOLDER~1\AppData\Local\Temp\ccI3TRm9.s:32148  .debug_str:0000000000026495 .LASF1127
C:\Users\SOLDER~1\AppData\Local\Temp\ccI3TRm9.s:31174  .debug_str:0000000000022525 .LASF1128
C:\Users\SOLDER~1\AppData\Local\Temp\ccI3TRm9.s:28826  .debug_str:0000000000018daf .LASF1129
C:\Users\SOLDER~1\AppData\Local\Temp\ccI3TRm9.s:29398  .debug_str:000000000001b2b8 .LASF1130
C:\Users\SOLDER~1\AppData\Local\Temp\ccI3TRm9.s:24860  .debug_str:0000000000008b22 .LASF1131
C:\Users\SOLDER~1\AppData\Local\Temp\ccI3TRm9.s:30486  .debug_str:000000000001f8c4 .LASF1132
C:\Users\SOLDER~1\AppData\Local\Temp\ccI3TRm9.s:25444  .debug_str:000000000000b1bd .LASF1133
C:\Users\SOLDER~1\AppData\Local\Temp\ccI3TRm9.s:28474  .debug_str:00000000000176da .LASF1134
C:\Users\SOLDER~1\AppData\Local\Temp\ccI3TRm9.s:27852  .debug_str:0000000000014f2a .LASF1135
C:\Users\SOLDER~1\AppData\Local\Temp\ccI3TRm9.s:28484  .debug_str:0000000000017782 .LASF1136
C:\Users\SOLDER~1\AppData\Local\Temp\ccI3TRm9.s:32592  .debug_str:00000000000281f2 .LASF1137
C:\Users\SOLDER~1\AppData\Local\Temp\ccI3TRm9.s:30424  .debug_str:000000000001f48d .LASF1138
C:\Users\SOLDER~1\AppData\Local\Temp\ccI3TRm9.s:31732  .debug_str:0000000000024962 .LASF1139
C:\Users\SOLDER~1\AppData\Local\Temp\ccI3TRm9.s:23240  .debug_str:0000000000002327 .LASF1140
C:\Users\SOLDER~1\AppData\Local\Temp\ccI3TRm9.s:32192  .debug_str:00000000000267a6 .LASF1141
C:\Users\SOLDER~1\AppData\Local\Temp\ccI3TRm9.s:31296  .debug_str:0000000000022cd6 .LASF1142
C:\Users\SOLDER~1\AppData\Local\Temp\ccI3TRm9.s:29798  .debug_str:000000000001cb94 .LASF1143
C:\Users\SOLDER~1\AppData\Local\Temp\ccI3TRm9.s:33634  .debug_str:000000000002c56e .LASF1144
C:\Users\SOLDER~1\AppData\Local\Temp\ccI3TRm9.s:30314  .debug_str:000000000001ed65 .LASF1145
C:\Users\SOLDER~1\AppData\Local\Temp\ccI3TRm9.s:30066  .debug_str:000000000001dd40 .LASF1146
C:\Users\SOLDER~1\AppData\Local\Temp\ccI3TRm9.s:28366  .debug_str:0000000000016fd6 .LASF1147
C:\Users\SOLDER~1\AppData\Local\Temp\ccI3TRm9.s:33750  .debug_str:000000000002cd04 .LASF1148
C:\Users\SOLDER~1\AppData\Local\Temp\ccI3TRm9.s:30992  .debug_str:0000000000021977 .LASF1149
C:\Users\SOLDER~1\AppData\Local\Temp\ccI3TRm9.s:28094  .debug_str:0000000000015ec1 .LASF1150
C:\Users\SOLDER~1\AppData\Local\Temp\ccI3TRm9.s:29854  .debug_str:000000000001cf4e .LASF1151
C:\Users\SOLDER~1\AppData\Local\Temp\ccI3TRm9.s:26894  .debug_str:0000000000011030 .LASF1152
C:\Users\SOLDER~1\AppData\Local\Temp\ccI3TRm9.s:25116  .debug_str:0000000000009c17 .LASF1153
C:\Users\SOLDER~1\AppData\Local\Temp\ccI3TRm9.s:28730  .debug_str:00000000000187a5 .LASF1154
C:\Users\SOLDER~1\AppData\Local\Temp\ccI3TRm9.s:23132  .debug_str:0000000000001bfa .LASF1155
C:\Users\SOLDER~1\AppData\Local\Temp\ccI3TRm9.s:27618  .debug_str:0000000000013f4c .LASF1156
C:\Users\SOLDER~1\AppData\Local\Temp\ccI3TRm9.s:30746  .debug_str:000000000002096c .LASF1157
C:\Users\SOLDER~1\AppData\Local\Temp\ccI3TRm9.s:34184  .debug_str:000000000002e933 .LASF1158
C:\Users\SOLDER~1\AppData\Local\Temp\ccI3TRm9.s:34192  .debug_str:000000000002e999 .LASF1159
C:\Users\SOLDER~1\AppData\Local\Temp\ccI3TRm9.s:32750  .debug_str:0000000000028c98 .LASF1160
C:\Users\SOLDER~1\AppData\Local\Temp\ccI3TRm9.s:28984  .debug_str:0000000000019830 .LASF1161
C:\Users\SOLDER~1\AppData\Local\Temp\ccI3TRm9.s:28756  .debug_str:000000000001893f .LASF1162
GAS LISTING C:\Users\SOLDER~1\AppData\Local\Temp\ccI3TRm9.s 			page 115


C:\Users\SOLDER~1\AppData\Local\Temp\ccI3TRm9.s:32578  .debug_str:000000000002811c .LASF1163
C:\Users\SOLDER~1\AppData\Local\Temp\ccI3TRm9.s:26952  .debug_str:00000000000113b9 .LASF1164
C:\Users\SOLDER~1\AppData\Local\Temp\ccI3TRm9.s:32510  .debug_str:0000000000027ccb .LASF1165
C:\Users\SOLDER~1\AppData\Local\Temp\ccI3TRm9.s:34248  .debug_str:000000000002ecdc .LASF1166
C:\Users\SOLDER~1\AppData\Local\Temp\ccI3TRm9.s:30544  .debug_str:000000000001fcc8 .LASF1167
C:\Users\SOLDER~1\AppData\Local\Temp\ccI3TRm9.s:27484  .debug_str:0000000000013607 .LASF1168
C:\Users\SOLDER~1\AppData\Local\Temp\ccI3TRm9.s:33068  .debug_str:000000000002a0a4 .LASF1169
C:\Users\SOLDER~1\AppData\Local\Temp\ccI3TRm9.s:24906  .debug_str:0000000000008df7 .LASF1170
C:\Users\SOLDER~1\AppData\Local\Temp\ccI3TRm9.s:31034  .debug_str:0000000000021c39 .LASF1171
C:\Users\SOLDER~1\AppData\Local\Temp\ccI3TRm9.s:31908  .debug_str:00000000000254d6 .LASF1172
C:\Users\SOLDER~1\AppData\Local\Temp\ccI3TRm9.s:30370  .debug_str:000000000001f110 .LASF1173
C:\Users\SOLDER~1\AppData\Local\Temp\ccI3TRm9.s:28742  .debug_str:000000000001886b .LASF1174
C:\Users\SOLDER~1\AppData\Local\Temp\ccI3TRm9.s:26688  .debug_str:0000000000010340 .LASF1175
C:\Users\SOLDER~1\AppData\Local\Temp\ccI3TRm9.s:30574  .debug_str:000000000001fec1 .LASF1176
C:\Users\SOLDER~1\AppData\Local\Temp\ccI3TRm9.s:27622  .debug_str:0000000000013f98 .LASF1177
C:\Users\SOLDER~1\AppData\Local\Temp\ccI3TRm9.s:27360  .debug_str:0000000000012df6 .LASF1178
C:\Users\SOLDER~1\AppData\Local\Temp\ccI3TRm9.s:25186  .debug_str:000000000000a0a5 .LASF1179
C:\Users\SOLDER~1\AppData\Local\Temp\ccI3TRm9.s:26566  .debug_str:000000000000fade .LASF1180
C:\Users\SOLDER~1\AppData\Local\Temp\ccI3TRm9.s:28666  .debug_str:000000000001835e .LASF1181
C:\Users\SOLDER~1\AppData\Local\Temp\ccI3TRm9.s:32186  .debug_str:000000000002673d .LASF1182
C:\Users\SOLDER~1\AppData\Local\Temp\ccI3TRm9.s:26752  .debug_str:000000000001073d .LASF1183
C:\Users\SOLDER~1\AppData\Local\Temp\ccI3TRm9.s:32410  .debug_str:000000000002761e .LASF1184
C:\Users\SOLDER~1\AppData\Local\Temp\ccI3TRm9.s:29260  .debug_str:000000000001a9ad .LASF1185
C:\Users\SOLDER~1\AppData\Local\Temp\ccI3TRm9.s:32834  .debug_str:000000000002921b .LASF1186
C:\Users\SOLDER~1\AppData\Local\Temp\ccI3TRm9.s:27268  .debug_str:00000000000127c6 .LASF1187
C:\Users\SOLDER~1\AppData\Local\Temp\ccI3TRm9.s:25276  .debug_str:000000000000a6b7 .LASF1188
C:\Users\SOLDER~1\AppData\Local\Temp\ccI3TRm9.s:24604  .debug_str:0000000000007a85 .LASF1189
C:\Users\SOLDER~1\AppData\Local\Temp\ccI3TRm9.s:23168  .debug_str:0000000000001e4f .LASF1190
C:\Users\SOLDER~1\AppData\Local\Temp\ccI3TRm9.s:26996  .debug_str:0000000000011683 .LASF1191
C:\Users\SOLDER~1\AppData\Local\Temp\ccI3TRm9.s:23668  .debug_str:0000000000003e75 .LASF1192
C:\Users\SOLDER~1\AppData\Local\Temp\ccI3TRm9.s:34394  .debug_str:000000000002f61a .LASF1193
C:\Users\SOLDER~1\AppData\Local\Temp\ccI3TRm9.s:29292  .debug_str:000000000001abaa .LASF1194
C:\Users\SOLDER~1\AppData\Local\Temp\ccI3TRm9.s:24444  .debug_str:0000000000007080 .LASF1195
C:\Users\SOLDER~1\AppData\Local\Temp\ccI3TRm9.s:30002  .debug_str:000000000001d92b .LASF1196
C:\Users\SOLDER~1\AppData\Local\Temp\ccI3TRm9.s:33626  .debug_str:000000000002c4e1 .LASF1197
C:\Users\SOLDER~1\AppData\Local\Temp\ccI3TRm9.s:28060  .debug_str:0000000000015cab .LASF1198
C:\Users\SOLDER~1\AppData\Local\Temp\ccI3TRm9.s:25070  .debug_str:0000000000009912 .LASF1199
C:\Users\SOLDER~1\AppData\Local\Temp\ccI3TRm9.s:30566  .debug_str:000000000001fe2e .LASF1200
C:\Users\SOLDER~1\AppData\Local\Temp\ccI3TRm9.s:34172  .debug_str:000000000002e864 .LASF1201
C:\Users\SOLDER~1\AppData\Local\Temp\ccI3TRm9.s:28698  .debug_str:00000000000185aa .LASF1202
C:\Users\SOLDER~1\AppData\Local\Temp\ccI3TRm9.s:24008  .debug_str:0000000000005392 .LASF1203
C:\Users\SOLDER~1\AppData\Local\Temp\ccI3TRm9.s:23226  .debug_str:0000000000002232 .LASF1204
C:\Users\SOLDER~1\AppData\Local\Temp\ccI3TRm9.s:27438  .debug_str:00000000000132fa .LASF1205
C:\Users\SOLDER~1\AppData\Local\Temp\ccI3TRm9.s:31284  .debug_str:0000000000022bf8 .LASF1206
C:\Users\SOLDER~1\AppData\Local\Temp\ccI3TRm9.s:34082  .debug_str:000000000002e2a9 .LASF1207
C:\Users\SOLDER~1\AppData\Local\Temp\ccI3TRm9.s:33014  .debug_str:0000000000029d43 .LASF1208
C:\Users\SOLDER~1\AppData\Local\Temp\ccI3TRm9.s:33572  .debug_str:000000000002c169 .LASF1209
C:\Users\SOLDER~1\AppData\Local\Temp\ccI3TRm9.s:32364  .debug_str:0000000000027343 .LASF1210
C:\Users\SOLDER~1\AppData\Local\Temp\ccI3TRm9.s:26224  .debug_str:000000000000e534 .LASF1211
C:\Users\SOLDER~1\AppData\Local\Temp\ccI3TRm9.s:29698  .debug_str:000000000001c4d1 .LASF1212
C:\Users\SOLDER~1\AppData\Local\Temp\ccI3TRm9.s:24240  .debug_str:00000000000062dc .LASF1213
C:\Users\SOLDER~1\AppData\Local\Temp\ccI3TRm9.s:33438  .debug_str:000000000002b86d .LASF1214
C:\Users\SOLDER~1\AppData\Local\Temp\ccI3TRm9.s:24098  .debug_str:0000000000005964 .LASF1215
C:\Users\SOLDER~1\AppData\Local\Temp\ccI3TRm9.s:30340  .debug_str:000000000001ef14 .LASF1216
C:\Users\SOLDER~1\AppData\Local\Temp\ccI3TRm9.s:24874  .debug_str:0000000000008c0a .LASF1217
C:\Users\SOLDER~1\AppData\Local\Temp\ccI3TRm9.s:23446  .debug_str:000000000000307d .LASF1218
C:\Users\SOLDER~1\AppData\Local\Temp\ccI3TRm9.s:31578  .debug_str:0000000000023f91 .LASF1219
GAS LISTING C:\Users\SOLDER~1\AppData\Local\Temp\ccI3TRm9.s 			page 116


C:\Users\SOLDER~1\AppData\Local\Temp\ccI3TRm9.s:31290  .debug_str:0000000000022c58 .LASF1220
C:\Users\SOLDER~1\AppData\Local\Temp\ccI3TRm9.s:30736  .debug_str:00000000000208c1 .LASF1221
C:\Users\SOLDER~1\AppData\Local\Temp\ccI3TRm9.s:27328  .debug_str:0000000000012baa .LASF1222
C:\Users\SOLDER~1\AppData\Local\Temp\ccI3TRm9.s:24096  .debug_str:0000000000005941 .LASF1223
C:\Users\SOLDER~1\AppData\Local\Temp\ccI3TRm9.s:25566  .debug_str:000000000000b98a .LASF1224
C:\Users\SOLDER~1\AppData\Local\Temp\ccI3TRm9.s:28994  .debug_str:00000000000198ea .LASF1225
C:\Users\SOLDER~1\AppData\Local\Temp\ccI3TRm9.s:26478  .debug_str:000000000000f532 .LASF1226
C:\Users\SOLDER~1\AppData\Local\Temp\ccI3TRm9.s:31718  .debug_str:000000000002486d .LASF1227
C:\Users\SOLDER~1\AppData\Local\Temp\ccI3TRm9.s:25430  .debug_str:000000000000b0c6 .LASF1228
C:\Users\SOLDER~1\AppData\Local\Temp\ccI3TRm9.s:26522  .debug_str:000000000000f7fe .LASF1229
C:\Users\SOLDER~1\AppData\Local\Temp\ccI3TRm9.s:29876  .debug_str:000000000001d0a0 .LASF1230
C:\Users\SOLDER~1\AppData\Local\Temp\ccI3TRm9.s:27522  .debug_str:000000000001388d .LASF1231
C:\Users\SOLDER~1\AppData\Local\Temp\ccI3TRm9.s:28676  .debug_str:0000000000018427 .LASF1232
C:\Users\SOLDER~1\AppData\Local\Temp\ccI3TRm9.s:26850  .debug_str:0000000000010d79 .LASF1233
C:\Users\SOLDER~1\AppData\Local\Temp\ccI3TRm9.s:24392  .debug_str:0000000000006cdf .LASF1234
C:\Users\SOLDER~1\AppData\Local\Temp\ccI3TRm9.s:27574  .debug_str:0000000000013c08 .LASF1235
C:\Users\SOLDER~1\AppData\Local\Temp\ccI3TRm9.s:24026  .debug_str:00000000000054ab .LASF1236
C:\Users\SOLDER~1\AppData\Local\Temp\ccI3TRm9.s:32336  .debug_str:0000000000027145 .LASF1237
C:\Users\SOLDER~1\AppData\Local\Temp\ccI3TRm9.s:29134  .debug_str:000000000001a1cc .LASF1238
C:\Users\SOLDER~1\AppData\Local\Temp\ccI3TRm9.s:26258  .debug_str:000000000000e767 .LASF1239
C:\Users\SOLDER~1\AppData\Local\Temp\ccI3TRm9.s:34004  .debug_str:000000000002ddb5 .LASF1240
C:\Users\SOLDER~1\AppData\Local\Temp\ccI3TRm9.s:31454  .debug_str:000000000002373c .LASF1241
C:\Users\SOLDER~1\AppData\Local\Temp\ccI3TRm9.s:30124  .debug_str:000000000001e0db .LASF1242
C:\Users\SOLDER~1\AppData\Local\Temp\ccI3TRm9.s:30356  .debug_str:000000000001f02d .LASF1243
C:\Users\SOLDER~1\AppData\Local\Temp\ccI3TRm9.s:23428  .debug_str:0000000000002f77 .LASF1244
C:\Users\SOLDER~1\AppData\Local\Temp\ccI3TRm9.s:26210  .debug_str:000000000000e42c .LASF1245
C:\Users\SOLDER~1\AppData\Local\Temp\ccI3TRm9.s:32858  .debug_str:00000000000293ab .LASF1246
C:\Users\SOLDER~1\AppData\Local\Temp\ccI3TRm9.s:32390  .debug_str:00000000000274e2 .LASF1247
C:\Users\SOLDER~1\AppData\Local\Temp\ccI3TRm9.s:32164  .debug_str:00000000000265b0 .LASF1248
C:\Users\SOLDER~1\AppData\Local\Temp\ccI3TRm9.s:32202  .debug_str:000000000002684b .LASF1249
C:\Users\SOLDER~1\AppData\Local\Temp\ccI3TRm9.s:25790  .debug_str:000000000000c884 .LASF1250
C:\Users\SOLDER~1\AppData\Local\Temp\ccI3TRm9.s:23208  .debug_str:00000000000020f9 .LASF1251
C:\Users\SOLDER~1\AppData\Local\Temp\ccI3TRm9.s:30584  .debug_str:000000000001ff29 .LASF1252
C:\Users\SOLDER~1\AppData\Local\Temp\ccI3TRm9.s:27348  .debug_str:0000000000012d09 .LASF1253
C:\Users\SOLDER~1\AppData\Local\Temp\ccI3TRm9.s:29396  .debug_str:000000000001b294 .LASF1254
C:\Users\SOLDER~1\AppData\Local\Temp\ccI3TRm9.s:32196  .debug_str:00000000000267e0 .LASF1255
C:\Users\SOLDER~1\AppData\Local\Temp\ccI3TRm9.s:29714  .debug_str:000000000001c606 .LASF1256
C:\Users\SOLDER~1\AppData\Local\Temp\ccI3TRm9.s:28400  .debug_str:00000000000171b8 .LASF1257
C:\Users\SOLDER~1\AppData\Local\Temp\ccI3TRm9.s:28710  .debug_str:0000000000018670 .LASF1258
C:\Users\SOLDER~1\AppData\Local\Temp\ccI3TRm9.s:33420  .debug_str:000000000002b745 .LASF1259
C:\Users\SOLDER~1\AppData\Local\Temp\ccI3TRm9.s:25588  .debug_str:000000000000bae6 .LASF1260
C:\Users\SOLDER~1\AppData\Local\Temp\ccI3TRm9.s:32214  .debug_str:0000000000026909 .LASF1261
C:\Users\SOLDER~1\AppData\Local\Temp\ccI3TRm9.s:33374  .debug_str:000000000002b46e .LASF1262
C:\Users\SOLDER~1\AppData\Local\Temp\ccI3TRm9.s:31428  .debug_str:0000000000023595 .LASF1263
C:\Users\SOLDER~1\AppData\Local\Temp\ccI3TRm9.s:29204  .debug_str:000000000001a623 .LASF1264
C:\Users\SOLDER~1\AppData\Local\Temp\ccI3TRm9.s:31392  .debug_str:0000000000023368 .LASF1265
C:\Users\SOLDER~1\AppData\Local\Temp\ccI3TRm9.s:27928  .debug_str:00000000000153f7 .LASF1266
C:\Users\SOLDER~1\AppData\Local\Temp\ccI3TRm9.s:24496  .debug_str:00000000000073d8 .LASF1267
C:\Users\SOLDER~1\AppData\Local\Temp\ccI3TRm9.s:33002  .debug_str:0000000000029c69 .LASF1268
C:\Users\SOLDER~1\AppData\Local\Temp\ccI3TRm9.s:23300  .debug_str:000000000000271e .LASF1269
C:\Users\SOLDER~1\AppData\Local\Temp\ccI3TRm9.s:26116  .debug_str:000000000000ddbe .LASF1270
C:\Users\SOLDER~1\AppData\Local\Temp\ccI3TRm9.s:23626  .debug_str:0000000000003be0 .LASF1271
C:\Users\SOLDER~1\AppData\Local\Temp\ccI3TRm9.s:31754  .debug_str:0000000000024ada .LASF1272
C:\Users\SOLDER~1\AppData\Local\Temp\ccI3TRm9.s:34358  .debug_str:000000000002f401 .LASF1273
C:\Users\SOLDER~1\AppData\Local\Temp\ccI3TRm9.s:27408  .debug_str:0000000000013111 .LASF1274
C:\Users\SOLDER~1\AppData\Local\Temp\ccI3TRm9.s:29274  .debug_str:000000000001aa81 .LASF1275
C:\Users\SOLDER~1\AppData\Local\Temp\ccI3TRm9.s:24258  .debug_str:0000000000006414 .LASF1276
GAS LISTING C:\Users\SOLDER~1\AppData\Local\Temp\ccI3TRm9.s 			page 117


C:\Users\SOLDER~1\AppData\Local\Temp\ccI3TRm9.s:25390  .debug_str:000000000000ae0e .LASF1277
C:\Users\SOLDER~1\AppData\Local\Temp\ccI3TRm9.s:23576  .debug_str:00000000000038b6 .LASF1278
C:\Users\SOLDER~1\AppData\Local\Temp\ccI3TRm9.s:23098  .debug_str:00000000000019ac .LASF1279
C:\Users\SOLDER~1\AppData\Local\Temp\ccI3TRm9.s:24524  .debug_str:000000000000759e .LASF1280
C:\Users\SOLDER~1\AppData\Local\Temp\ccI3TRm9.s:23702  .debug_str:000000000000406b .LASF1281
C:\Users\SOLDER~1\AppData\Local\Temp\ccI3TRm9.s:27090  .debug_str:0000000000011cc7 .LASF1282
C:\Users\SOLDER~1\AppData\Local\Temp\ccI3TRm9.s:33272  .debug_str:000000000002adf3 .LASF1283
C:\Users\SOLDER~1\AppData\Local\Temp\ccI3TRm9.s:28346  .debug_str:0000000000016e92 .LASF1284
C:\Users\SOLDER~1\AppData\Local\Temp\ccI3TRm9.s:26152  .debug_str:000000000000e038 .LASF1285
C:\Users\SOLDER~1\AppData\Local\Temp\ccI3TRm9.s:22742  .debug_str:00000000000001ed .LASF1286
C:\Users\SOLDER~1\AppData\Local\Temp\ccI3TRm9.s:32660  .debug_str:00000000000286a8 .LASF1287
C:\Users\SOLDER~1\AppData\Local\Temp\ccI3TRm9.s:27654  .debug_str:00000000000141ab .LASF1288
C:\Users\SOLDER~1\AppData\Local\Temp\ccI3TRm9.s:33652  .debug_str:000000000002c68d .LASF1289
C:\Users\SOLDER~1\AppData\Local\Temp\ccI3TRm9.s:26462  .debug_str:000000000000f425 .LASF1290
C:\Users\SOLDER~1\AppData\Local\Temp\ccI3TRm9.s:25506  .debug_str:000000000000b57f .LASF1291
C:\Users\SOLDER~1\AppData\Local\Temp\ccI3TRm9.s:33266  .debug_str:000000000002ad90 .LASF1292
C:\Users\SOLDER~1\AppData\Local\Temp\ccI3TRm9.s:31128  .debug_str:000000000002222c .LASF1293
C:\Users\SOLDER~1\AppData\Local\Temp\ccI3TRm9.s:32684  .debug_str:000000000002882c .LASF1294
C:\Users\SOLDER~1\AppData\Local\Temp\ccI3TRm9.s:27982  .debug_str:000000000001578f .LASF1295
C:\Users\SOLDER~1\AppData\Local\Temp\ccI3TRm9.s:25856  .debug_str:000000000000cd17 .LASF1296
C:\Users\SOLDER~1\AppData\Local\Temp\ccI3TRm9.s:34146  .debug_str:000000000002e6b0 .LASF1297
C:\Users\SOLDER~1\AppData\Local\Temp\ccI3TRm9.s:24700  .debug_str:00000000000080de .LASF1298
C:\Users\SOLDER~1\AppData\Local\Temp\ccI3TRm9.s:26126  .debug_str:000000000000de66 .LASF1299
C:\Users\SOLDER~1\AppData\Local\Temp\ccI3TRm9.s:33528  .debug_str:000000000002be6f .LASF1300
C:\Users\SOLDER~1\AppData\Local\Temp\ccI3TRm9.s:27914  .debug_str:000000000001531f .LASF1301
C:\Users\SOLDER~1\AppData\Local\Temp\ccI3TRm9.s:25964  .debug_str:000000000000d418 .LASF1302
C:\Users\SOLDER~1\AppData\Local\Temp\ccI3TRm9.s:31438  .debug_str:000000000002363e .LASF1303
C:\Users\SOLDER~1\AppData\Local\Temp\ccI3TRm9.s:29026  .debug_str:0000000000019b3b .LASF1304
C:\Users\SOLDER~1\AppData\Local\Temp\ccI3TRm9.s:29756  .debug_str:000000000001c8c0 .LASF1305
C:\Users\SOLDER~1\AppData\Local\Temp\ccI3TRm9.s:25176  .debug_str:0000000000009ff0 .LASF1306
C:\Users\SOLDER~1\AppData\Local\Temp\ccI3TRm9.s:33698  .debug_str:000000000002c9ac .LASF1307
C:\Users\SOLDER~1\AppData\Local\Temp\ccI3TRm9.s:32762  .debug_str:0000000000028d6f .LASF1308
C:\Users\SOLDER~1\AppData\Local\Temp\ccI3TRm9.s:27640  .debug_str:00000000000140b7 .LASF1309
C:\Users\SOLDER~1\AppData\Local\Temp\ccI3TRm9.s:29302  .debug_str:000000000001ac5c .LASF1310
C:\Users\SOLDER~1\AppData\Local\Temp\ccI3TRm9.s:27452  .debug_str:00000000000133df .LASF1311
C:\Users\SOLDER~1\AppData\Local\Temp\ccI3TRm9.s:33594  .debug_str:000000000002c2ed .LASF1312
C:\Users\SOLDER~1\AppData\Local\Temp\ccI3TRm9.s:28088  .debug_str:0000000000015e55 .LASF1313
C:\Users\SOLDER~1\AppData\Local\Temp\ccI3TRm9.s:28348  .debug_str:0000000000016eb6 .LASF1314
C:\Users\SOLDER~1\AppData\Local\Temp\ccI3TRm9.s:34382  .debug_str:000000000002f557 .LASF1315
C:\Users\SOLDER~1\AppData\Local\Temp\ccI3TRm9.s:23340  .debug_str:00000000000029db .LASF1316
C:\Users\SOLDER~1\AppData\Local\Temp\ccI3TRm9.s:30514  .debug_str:000000000001faaf .LASF1317
C:\Users\SOLDER~1\AppData\Local\Temp\ccI3TRm9.s:27060  .debug_str:0000000000011ab2 .LASF1318
C:\Users\SOLDER~1\AppData\Local\Temp\ccI3TRm9.s:25266  .debug_str:000000000000a607 .LASF1319
C:\Users\SOLDER~1\AppData\Local\Temp\ccI3TRm9.s:28030  .debug_str:0000000000015ac3 .LASF1320
C:\Users\SOLDER~1\AppData\Local\Temp\ccI3TRm9.s:29820  .debug_str:000000000001ccf5 .LASF1321
C:\Users\SOLDER~1\AppData\Local\Temp\ccI3TRm9.s:34442  .debug_str:000000000002f8fd .LASF1322
C:\Users\SOLDER~1\AppData\Local\Temp\ccI3TRm9.s:33358  .debug_str:000000000002b34a .LASF1323
C:\Users\SOLDER~1\AppData\Local\Temp\ccI3TRm9.s:29452  .debug_str:000000000001b58f .LASF1324
C:\Users\SOLDER~1\AppData\Local\Temp\ccI3TRm9.s:27364  .debug_str:0000000000012e42 .LASF1325
C:\Users\SOLDER~1\AppData\Local\Temp\ccI3TRm9.s:28924  .debug_str:0000000000019455 .LASF1326
C:\Users\SOLDER~1\AppData\Local\Temp\ccI3TRm9.s:24160  .debug_str:0000000000005d76 .LASF1327
C:\Users\SOLDER~1\AppData\Local\Temp\ccI3TRm9.s:33812  .debug_str:000000000002d113 .LASF1328
C:\Users\SOLDER~1\AppData\Local\Temp\ccI3TRm9.s:25418  .debug_str:000000000000b009 .LASF1329
C:\Users\SOLDER~1\AppData\Local\Temp\ccI3TRm9.s:32616  .debug_str:0000000000028375 .LASF1330
C:\Users\SOLDER~1\AppData\Local\Temp\ccI3TRm9.s:22892  .debug_str:0000000000000cec .LASF1331
C:\Users\SOLDER~1\AppData\Local\Temp\ccI3TRm9.s:33450  .debug_str:000000000002b979 .LASF1332
C:\Users\SOLDER~1\AppData\Local\Temp\ccI3TRm9.s:31920  .debug_str:00000000000255b1 .LASF1333
GAS LISTING C:\Users\SOLDER~1\AppData\Local\Temp\ccI3TRm9.s 			page 118


C:\Users\SOLDER~1\AppData\Local\Temp\ccI3TRm9.s:27942  .debug_str:00000000000154eb .LASF1334
C:\Users\SOLDER~1\AppData\Local\Temp\ccI3TRm9.s:27694  .debug_str:0000000000014458 .LASF1335
C:\Users\SOLDER~1\AppData\Local\Temp\ccI3TRm9.s:25202  .debug_str:000000000000a1a8 .LASF1336
C:\Users\SOLDER~1\AppData\Local\Temp\ccI3TRm9.s:25974  .debug_str:000000000000d4cd .LASF1337
C:\Users\SOLDER~1\AppData\Local\Temp\ccI3TRm9.s:33142  .debug_str:000000000002a56d .LASF1338
C:\Users\SOLDER~1\AppData\Local\Temp\ccI3TRm9.s:29868  .debug_str:000000000001d027 .LASF1339
C:\Users\SOLDER~1\AppData\Local\Temp\ccI3TRm9.s:28988  .debug_str:0000000000019871 .LASF1340
C:\Users\SOLDER~1\AppData\Local\Temp\ccI3TRm9.s:23814  .debug_str:0000000000004799 .LASF1341
C:\Users\SOLDER~1\AppData\Local\Temp\ccI3TRm9.s:25502  .debug_str:000000000000b547 .LASF1342
C:\Users\SOLDER~1\AppData\Local\Temp\ccI3TRm9.s:31750  .debug_str:0000000000024a88 .LASF1343
C:\Users\SOLDER~1\AppData\Local\Temp\ccI3TRm9.s:26086  .debug_str:000000000000dc1a .LASF1344
C:\Users\SOLDER~1\AppData\Local\Temp\ccI3TRm9.s:32300  .debug_str:0000000000026ecd .LASF1345
C:\Users\SOLDER~1\AppData\Local\Temp\ccI3TRm9.s:27010  .debug_str:0000000000011788 .LASF1346
C:\Users\SOLDER~1\AppData\Local\Temp\ccI3TRm9.s:30944  .debug_str:0000000000021641 .LASF1347
C:\Users\SOLDER~1\AppData\Local\Temp\ccI3TRm9.s:27710  .debug_str:0000000000014592 .LASF1348
C:\Users\SOLDER~1\AppData\Local\Temp\ccI3TRm9.s:23114  .debug_str:0000000000001ab4 .LASF1349
C:\Users\SOLDER~1\AppData\Local\Temp\ccI3TRm9.s:31360  .debug_str:0000000000023145 .LASF1350
C:\Users\SOLDER~1\AppData\Local\Temp\ccI3TRm9.s:29532  .debug_str:000000000001babd .LASF1351
C:\Users\SOLDER~1\AppData\Local\Temp\ccI3TRm9.s:25344  .debug_str:000000000000ab36 .LASF1352
C:\Users\SOLDER~1\AppData\Local\Temp\ccI3TRm9.s:26030  .debug_str:000000000000d881 .LASF1353
C:\Users\SOLDER~1\AppData\Local\Temp\ccI3TRm9.s:30518  .debug_str:000000000001fafa .LASF1354
C:\Users\SOLDER~1\AppData\Local\Temp\ccI3TRm9.s:29554  .debug_str:000000000001bc0e .LASF1355
C:\Users\SOLDER~1\AppData\Local\Temp\ccI3TRm9.s:25660  .debug_str:000000000000bfbb .LASF1356
C:\Users\SOLDER~1\AppData\Local\Temp\ccI3TRm9.s:23558  .debug_str:0000000000003788 .LASF1357
C:\Users\SOLDER~1\AppData\Local\Temp\ccI3TRm9.s:24830  .debug_str:000000000000892c .LASF1358
C:\Users\SOLDER~1\AppData\Local\Temp\ccI3TRm9.s:31986  .debug_str:00000000000259dc .LASF1359
C:\Users\SOLDER~1\AppData\Local\Temp\ccI3TRm9.s:29976  .debug_str:000000000001d76e .LASF1360
C:\Users\SOLDER~1\AppData\Local\Temp\ccI3TRm9.s:31542  .debug_str:0000000000023d49 .LASF1361
C:\Users\SOLDER~1\AppData\Local\Temp\ccI3TRm9.s:28862  .debug_str:0000000000019014 .LASF1362
C:\Users\SOLDER~1\AppData\Local\Temp\ccI3TRm9.s:30784  .debug_str:0000000000020bf2 .LASF1363
C:\Users\SOLDER~1\AppData\Local\Temp\ccI3TRm9.s:24106  .debug_str:00000000000059ea .LASF1364
C:\Users\SOLDER~1\AppData\Local\Temp\ccI3TRm9.s:28080  .debug_str:0000000000015dd7 .LASF1365
C:\Users\SOLDER~1\AppData\Local\Temp\ccI3TRm9.s:30090  .debug_str:000000000001de91 .LASF1366
C:\Users\SOLDER~1\AppData\Local\Temp\ccI3TRm9.s:28292  .debug_str:0000000000016b1b .LASF1367
C:\Users\SOLDER~1\AppData\Local\Temp\ccI3TRm9.s:33166  .debug_str:000000000002a70b .LASF1368
C:\Users\SOLDER~1\AppData\Local\Temp\ccI3TRm9.s:33934  .debug_str:000000000002d8ec .LASF1369
C:\Users\SOLDER~1\AppData\Local\Temp\ccI3TRm9.s:33948  .debug_str:000000000002d9e5 .LASF1370
C:\Users\SOLDER~1\AppData\Local\Temp\ccI3TRm9.s:26076  .debug_str:000000000000db75 .LASF1371
C:\Users\SOLDER~1\AppData\Local\Temp\ccI3TRm9.s:25154  .debug_str:0000000000009e5d .LASF1372
C:\Users\SOLDER~1\AppData\Local\Temp\ccI3TRm9.s:31724  .debug_str:00000000000248e1 .LASF1373
C:\Users\SOLDER~1\AppData\Local\Temp\ccI3TRm9.s:33452  .debug_str:000000000002b99e .LASF1374
C:\Users\SOLDER~1\AppData\Local\Temp\ccI3TRm9.s:24306  .debug_str:000000000000673a .LASF1375
C:\Users\SOLDER~1\AppData\Local\Temp\ccI3TRm9.s:30450  .debug_str:000000000001f646 .LASF1376
C:\Users\SOLDER~1\AppData\Local\Temp\ccI3TRm9.s:24936  .debug_str:000000000000902b .LASF1377
C:\Users\SOLDER~1\AppData\Local\Temp\ccI3TRm9.s:29966  .debug_str:000000000001d6c7 .LASF1378
C:\Users\SOLDER~1\AppData\Local\Temp\ccI3TRm9.s:31266  .debug_str:0000000000022ac3 .LASF1379
C:\Users\SOLDER~1\AppData\Local\Temp\ccI3TRm9.s:32010  .debug_str:0000000000025b75 .LASF1380
C:\Users\SOLDER~1\AppData\Local\Temp\ccI3TRm9.s:27368  .debug_str:0000000000012e7e .LASF1381
C:\Users\SOLDER~1\AppData\Local\Temp\ccI3TRm9.s:23920  .debug_str:0000000000004e4f .LASF1382
C:\Users\SOLDER~1\AppData\Local\Temp\ccI3TRm9.s:33904  .debug_str:000000000002d6b6 .LASF1383
C:\Users\SOLDER~1\AppData\Local\Temp\ccI3TRm9.s:24880  .debug_str:0000000000008c5c .LASF1384
C:\Users\SOLDER~1\AppData\Local\Temp\ccI3TRm9.s:33996  .debug_str:000000000002dd24 .LASF1385
C:\Users\SOLDER~1\AppData\Local\Temp\ccI3TRm9.s:26726  .debug_str:0000000000010568 .LASF1386
C:\Users\SOLDER~1\AppData\Local\Temp\ccI3TRm9.s:33364  .debug_str:000000000002b3a6 .LASF1387
C:\Users\SOLDER~1\AppData\Local\Temp\ccI3TRm9.s:33610  .debug_str:000000000002c3e2 .LASF1388
C:\Users\SOLDER~1\AppData\Local\Temp\ccI3TRm9.s:31462  .debug_str:00000000000237cf .LASF1389
C:\Users\SOLDER~1\AppData\Local\Temp\ccI3TRm9.s:33036  .debug_str:0000000000029eb3 .LASF1390
GAS LISTING C:\Users\SOLDER~1\AppData\Local\Temp\ccI3TRm9.s 			page 119


C:\Users\SOLDER~1\AppData\Local\Temp\ccI3TRm9.s:28228  .debug_str:0000000000016748 .LASF1391
C:\Users\SOLDER~1\AppData\Local\Temp\ccI3TRm9.s:28552  .debug_str:0000000000017bde .LASF1392
C:\Users\SOLDER~1\AppData\Local\Temp\ccI3TRm9.s:27810  .debug_str:0000000000014c39 .LASF1393
C:\Users\SOLDER~1\AppData\Local\Temp\ccI3TRm9.s:26828  .debug_str:0000000000010c0b .LASF1394
C:\Users\SOLDER~1\AppData\Local\Temp\ccI3TRm9.s:27022  .debug_str:000000000001186f .LASF1395
C:\Users\SOLDER~1\AppData\Local\Temp\ccI3TRm9.s:32024  .debug_str:0000000000025c38 .LASF1396
C:\Users\SOLDER~1\AppData\Local\Temp\ccI3TRm9.s:24252  .debug_str:000000000000639e .LASF1397
C:\Users\SOLDER~1\AppData\Local\Temp\ccI3TRm9.s:26294  .debug_str:000000000000e975 .LASF1398
C:\Users\SOLDER~1\AppData\Local\Temp\ccI3TRm9.s:31774  .debug_str:0000000000024c29 .LASF1399
C:\Users\SOLDER~1\AppData\Local\Temp\ccI3TRm9.s:29344  .debug_str:000000000001af0a .LASF1400
C:\Users\SOLDER~1\AppData\Local\Temp\ccI3TRm9.s:29998  .debug_str:000000000001d8ee .LASF1401
C:\Users\SOLDER~1\AppData\Local\Temp\ccI3TRm9.s:25524  .debug_str:000000000000b6e3 .LASF1402
C:\Users\SOLDER~1\AppData\Local\Temp\ccI3TRm9.s:31902  .debug_str:0000000000025474 .LASF1403
C:\Users\SOLDER~1\AppData\Local\Temp\ccI3TRm9.s:33116  .debug_str:000000000002a3a1 .LASF1404
C:\Users\SOLDER~1\AppData\Local\Temp\ccI3TRm9.s:27978  .debug_str:000000000001574b .LASF1405
C:\Users\SOLDER~1\AppData\Local\Temp\ccI3TRm9.s:29636  .debug_str:000000000001c0c0 .LASF1406
C:\Users\SOLDER~1\AppData\Local\Temp\ccI3TRm9.s:28692  .debug_str:0000000000018549 .LASF1407
C:\Users\SOLDER~1\AppData\Local\Temp\ccI3TRm9.s:32580  .debug_str:0000000000028144 .LASF1408
C:\Users\SOLDER~1\AppData\Local\Temp\ccI3TRm9.s:29276  .debug_str:000000000001aaa3 .LASF1409
C:\Users\SOLDER~1\AppData\Local\Temp\ccI3TRm9.s:23952  .debug_str:000000000000502d .LASF1410
C:\Users\SOLDER~1\AppData\Local\Temp\ccI3TRm9.s:23816  .debug_str:00000000000047be .LASF1411
C:\Users\SOLDER~1\AppData\Local\Temp\ccI3TRm9.s:24562  .debug_str:00000000000077fc .LASF1412
C:\Users\SOLDER~1\AppData\Local\Temp\ccI3TRm9.s:31676  .debug_str:00000000000245c5 .LASF1413
C:\Users\SOLDER~1\AppData\Local\Temp\ccI3TRm9.s:28300  .debug_str:0000000000016b8a .LASF1414
C:\Users\SOLDER~1\AppData\Local\Temp\ccI3TRm9.s:26486  .debug_str:000000000000f5b1 .LASF1415
C:\Users\SOLDER~1\AppData\Local\Temp\ccI3TRm9.s:29240  .debug_str:000000000001a843 .LASF1416
C:\Users\SOLDER~1\AppData\Local\Temp\ccI3TRm9.s:30064  .debug_str:000000000001dd1b .LASF1417
C:\Users\SOLDER~1\AppData\Local\Temp\ccI3TRm9.s:22930  .debug_str:0000000000000f19 .LASF1418
C:\Users\SOLDER~1\AppData\Local\Temp\ccI3TRm9.s:27358  .debug_str:0000000000012dd1 .LASF1419
C:\Users\SOLDER~1\AppData\Local\Temp\ccI3TRm9.s:29774  .debug_str:000000000001c9d6 .LASF1420
C:\Users\SOLDER~1\AppData\Local\Temp\ccI3TRm9.s:22878  .debug_str:0000000000000bdf .LASF1421
C:\Users\SOLDER~1\AppData\Local\Temp\ccI3TRm9.s:29244  .debug_str:000000000001a890 .LASF1422
C:\Users\SOLDER~1\AppData\Local\Temp\ccI3TRm9.s:24408  .debug_str:0000000000006ddd .LASF1423
C:\Users\SOLDER~1\AppData\Local\Temp\ccI3TRm9.s:34164  .debug_str:000000000002e7cd .LASF1424
C:\Users\SOLDER~1\AppData\Local\Temp\ccI3TRm9.s:23982  .debug_str:00000000000051f4 .LASF1425
C:\Users\SOLDER~1\AppData\Local\Temp\ccI3TRm9.s:32966  .debug_str:00000000000299ff .LASF1426
C:\Users\SOLDER~1\AppData\Local\Temp\ccI3TRm9.s:23200  .debug_str:000000000000205f .LASF1427
C:\Users\SOLDER~1\AppData\Local\Temp\ccI3TRm9.s:28178  .debug_str:000000000001642c .LASF1428
C:\Users\SOLDER~1\AppData\Local\Temp\ccI3TRm9.s:32170  .debug_str:000000000002660d .LASF1429
C:\Users\SOLDER~1\AppData\Local\Temp\ccI3TRm9.s:34278  .debug_str:000000000002eebf .LASF1430
C:\Users\SOLDER~1\AppData\Local\Temp\ccI3TRm9.s:23486  .debug_str:00000000000032ee .LASF1431
C:\Users\SOLDER~1\AppData\Local\Temp\ccI3TRm9.s:25546  .debug_str:000000000000b85b .LASF1432
C:\Users\SOLDER~1\AppData\Local\Temp\ccI3TRm9.s:26220  .debug_str:000000000000e4ed .LASF1433
C:\Users\SOLDER~1\AppData\Local\Temp\ccI3TRm9.s:33472  .debug_str:000000000002baf2 .LASF1434
C:\Users\SOLDER~1\AppData\Local\Temp\ccI3TRm9.s:30216  .debug_str:000000000001e6e4 .LASF1435
C:\Users\SOLDER~1\AppData\Local\Temp\ccI3TRm9.s:24822  .debug_str:00000000000088a1 .LASF1436
C:\Users\SOLDER~1\AppData\Local\Temp\ccI3TRm9.s:23884  .debug_str:0000000000004c14 .LASF1437
C:\Users\SOLDER~1\AppData\Local\Temp\ccI3TRm9.s:25836  .debug_str:000000000000cb8f .LASF1438
C:\Users\SOLDER~1\AppData\Local\Temp\ccI3TRm9.s:33010  .debug_str:0000000000029cfa .LASF1439
C:\Users\SOLDER~1\AppData\Local\Temp\ccI3TRm9.s:27394  .debug_str:0000000000013014 .LASF1440
C:\Users\SOLDER~1\AppData\Local\Temp\ccI3TRm9.s:33636  .debug_str:000000000002c595 .LASF1441
C:\Users\SOLDER~1\AppData\Local\Temp\ccI3TRm9.s:28230  .debug_str:000000000001676d .LASF1442
C:\Users\SOLDER~1\AppData\Local\Temp\ccI3TRm9.s:28188  .debug_str:00000000000164c1 .LASF1443
C:\Users\SOLDER~1\AppData\Local\Temp\ccI3TRm9.s:30754  .debug_str:00000000000209e6 .LASF1444
C:\Users\SOLDER~1\AppData\Local\Temp\ccI3TRm9.s:24324  .debug_str:0000000000006890 .LASF1445
C:\Users\SOLDER~1\AppData\Local\Temp\ccI3TRm9.s:26288  .debug_str:000000000000e90f .LASF1446
C:\Users\SOLDER~1\AppData\Local\Temp\ccI3TRm9.s:30808  .debug_str:0000000000020d8c .LASF1447
GAS LISTING C:\Users\SOLDER~1\AppData\Local\Temp\ccI3TRm9.s 			page 120


C:\Users\SOLDER~1\AppData\Local\Temp\ccI3TRm9.s:33588  .debug_str:000000000002c283 .LASF1448
C:\Users\SOLDER~1\AppData\Local\Temp\ccI3TRm9.s:24834  .debug_str:000000000000896a .LASF1449
C:\Users\SOLDER~1\AppData\Local\Temp\ccI3TRm9.s:30820  .debug_str:0000000000020e52 .LASF1450
C:\Users\SOLDER~1\AppData\Local\Temp\ccI3TRm9.s:27708  .debug_str:000000000001456d .LASF1451
C:\Users\SOLDER~1\AppData\Local\Temp\ccI3TRm9.s:25988  .debug_str:000000000000d5b6 .LASF1452
C:\Users\SOLDER~1\AppData\Local\Temp\ccI3TRm9.s:23900  .debug_str:0000000000004d22 .LASF1453
C:\Users\SOLDER~1\AppData\Local\Temp\ccI3TRm9.s:25426  .debug_str:000000000000b083 .LASF1454
C:\Users\SOLDER~1\AppData\Local\Temp\ccI3TRm9.s:32330  .debug_str:00000000000270dd .LASF1455
C:\Users\SOLDER~1\AppData\Local\Temp\ccI3TRm9.s:22860  .debug_str:0000000000000aa5 .LASF1456
C:\Users\SOLDER~1\AppData\Local\Temp\ccI3TRm9.s:31890  .debug_str:00000000000253d6 .LASF1457
C:\Users\SOLDER~1\AppData\Local\Temp\ccI3TRm9.s:25192  .debug_str:000000000000a116 .LASF1458
C:\Users\SOLDER~1\AppData\Local\Temp\ccI3TRm9.s:31112  .debug_str:000000000002213a .LASF1459
C:\Users\SOLDER~1\AppData\Local\Temp\ccI3TRm9.s:24286  .debug_str:00000000000065dd .LASF1460
C:\Users\SOLDER~1\AppData\Local\Temp\ccI3TRm9.s:28424  .debug_str:000000000001734d .LASF1461
C:\Users\SOLDER~1\AppData\Local\Temp\ccI3TRm9.s:28358  .debug_str:0000000000016f67 .LASF1462
C:\Users\SOLDER~1\AppData\Local\Temp\ccI3TRm9.s:24214  .debug_str:00000000000060f7 .LASF1463
C:\Users\SOLDER~1\AppData\Local\Temp\ccI3TRm9.s:33496  .debug_str:000000000002bc61 .LASF1464
C:\Users\SOLDER~1\AppData\Local\Temp\ccI3TRm9.s:30302  .debug_str:000000000001ec8f .LASF1465
C:\Users\SOLDER~1\AppData\Local\Temp\ccI3TRm9.s:29652  .debug_str:000000000001c1f5 .LASF1466
C:\Users\SOLDER~1\AppData\Local\Temp\ccI3TRm9.s:24368  .debug_str:0000000000006b86 .LASF1467
C:\Users\SOLDER~1\AppData\Local\Temp\ccI3TRm9.s:25406  .debug_str:000000000000af1a .LASF1468
C:\Users\SOLDER~1\AppData\Local\Temp\ccI3TRm9.s:30042  .debug_str:000000000001dba4 .LASF1469
C:\Users\SOLDER~1\AppData\Local\Temp\ccI3TRm9.s:28632  .debug_str:000000000001810a .LASF1470
C:\Users\SOLDER~1\AppData\Local\Temp\ccI3TRm9.s:25616  .debug_str:000000000000bccb .LASF1471
C:\Users\SOLDER~1\AppData\Local\Temp\ccI3TRm9.s:31602  .debug_str:00000000000240ec .LASF1472
C:\Users\SOLDER~1\AppData\Local\Temp\ccI3TRm9.s:26128  .debug_str:000000000000de8b .LASF1473
C:\Users\SOLDER~1\AppData\Local\Temp\ccI3TRm9.s:32540  .debug_str:0000000000027eaa .LASF1474
C:\Users\SOLDER~1\AppData\Local\Temp\ccI3TRm9.s:32504  .debug_str:0000000000027c6c .LASF1475
C:\Users\SOLDER~1\AppData\Local\Temp\ccI3TRm9.s:33254  .debug_str:000000000002accf .LASF1476
C:\Users\SOLDER~1\AppData\Local\Temp\ccI3TRm9.s:32094  .debug_str:00000000000260e6 .LASF1477
C:\Users\SOLDER~1\AppData\Local\Temp\ccI3TRm9.s:25210  .debug_str:000000000000a233 .LASF1478
C:\Users\SOLDER~1\AppData\Local\Temp\ccI3TRm9.s:23350  .debug_str:0000000000002a71 .LASF1479
C:\Users\SOLDER~1\AppData\Local\Temp\ccI3TRm9.s:26078  .debug_str:000000000000db9a .LASF1480
C:\Users\SOLDER~1\AppData\Local\Temp\ccI3TRm9.s:34254  .debug_str:000000000002ed45 .LASF1481
C:\Users\SOLDER~1\AppData\Local\Temp\ccI3TRm9.s:27052  .debug_str:0000000000011a37 .LASF1482
C:\Users\SOLDER~1\AppData\Local\Temp\ccI3TRm9.s:26082  .debug_str:000000000000dbe1 .LASF1483
C:\Users\SOLDER~1\AppData\Local\Temp\ccI3TRm9.s:33944  .debug_str:000000000002d9a8 .LASF1484
C:\Users\SOLDER~1\AppData\Local\Temp\ccI3TRm9.s:31802  .debug_str:0000000000024dfc .LASF1485
C:\Users\SOLDER~1\AppData\Local\Temp\ccI3TRm9.s:33290  .debug_str:000000000002af30 .LASF1486
C:\Users\SOLDER~1\AppData\Local\Temp\ccI3TRm9.s:28582  .debug_str:0000000000017dd9 .LASF1487
C:\Users\SOLDER~1\AppData\Local\Temp\ccI3TRm9.s:25876  .debug_str:000000000000ce66 .LASF1488
C:\Users\SOLDER~1\AppData\Local\Temp\ccI3TRm9.s:28146  .debug_str:00000000000161e5 .LASF1489
C:\Users\SOLDER~1\AppData\Local\Temp\ccI3TRm9.s:25254  .debug_str:000000000000a53f .LASF1490
C:\Users\SOLDER~1\AppData\Local\Temp\ccI3TRm9.s:24226  .debug_str:00000000000061f4 .LASF1491
C:\Users\SOLDER~1\AppData\Local\Temp\ccI3TRm9.s:32272  .debug_str:0000000000026d1d .LASF1492
C:\Users\SOLDER~1\AppData\Local\Temp\ccI3TRm9.s:24606  .debug_str:0000000000007aab .LASF1493
C:\Users\SOLDER~1\AppData\Local\Temp\ccI3TRm9.s:26644  .debug_str:000000000001006c .LASF1494
C:\Users\SOLDER~1\AppData\Local\Temp\ccI3TRm9.s:32122  .debug_str:00000000000262d2 .LASF1495
C:\Users\SOLDER~1\AppData\Local\Temp\ccI3TRm9.s:29672  .debug_str:000000000001c363 .LASF1496
C:\Users\SOLDER~1\AppData\Local\Temp\ccI3TRm9.s:30362  .debug_str:000000000001f085 .LASF1497
C:\Users\SOLDER~1\AppData\Local\Temp\ccI3TRm9.s:25858  .debug_str:000000000000cd3c .LASF1498
C:\Users\SOLDER~1\AppData\Local\Temp\ccI3TRm9.s:34302  .debug_str:000000000002f052 .LASF1499
C:\Users\SOLDER~1\AppData\Local\Temp\ccI3TRm9.s:33350  .debug_str:000000000002b2af .LASF1500
C:\Users\SOLDER~1\AppData\Local\Temp\ccI3TRm9.s:28326  .debug_str:0000000000016d46 .LASF1501
C:\Users\SOLDER~1\AppData\Local\Temp\ccI3TRm9.s:23342  .debug_str:00000000000029ff .LASF1502
C:\Users\SOLDER~1\AppData\Local\Temp\ccI3TRm9.s:29852  .debug_str:000000000001cf2a .LASF1503
C:\Users\SOLDER~1\AppData\Local\Temp\ccI3TRm9.s:24250  .debug_str:000000000000637a .LASF1504
GAS LISTING C:\Users\SOLDER~1\AppData\Local\Temp\ccI3TRm9.s 			page 121


C:\Users\SOLDER~1\AppData\Local\Temp\ccI3TRm9.s:30496  .debug_str:000000000001f970 .LASF1505
C:\Users\SOLDER~1\AppData\Local\Temp\ccI3TRm9.s:25158  .debug_str:0000000000009ec5 .LASF1506
C:\Users\SOLDER~1\AppData\Local\Temp\ccI3TRm9.s:25122  .debug_str:0000000000009c79 .LASF1507
C:\Users\SOLDER~1\AppData\Local\Temp\ccI3TRm9.s:25852  .debug_str:000000000000ccd0 .LASF1508
C:\Users\SOLDER~1\AppData\Local\Temp\ccI3TRm9.s:32918  .debug_str:000000000002975f .LASF1509
C:\Users\SOLDER~1\AppData\Local\Temp\ccI3TRm9.s:30270  .debug_str:000000000001ea42 .LASF1510
C:\Users\SOLDER~1\AppData\Local\Temp\ccI3TRm9.s:27716  .debug_str:000000000001460a .LASF1511
C:\Users\SOLDER~1\AppData\Local\Temp\ccI3TRm9.s:30440  .debug_str:000000000001f59e .LASF1512
C:\Users\SOLDER~1\AppData\Local\Temp\ccI3TRm9.s:30426  .debug_str:000000000001f4b3 .LASF1513
C:\Users\SOLDER~1\AppData\Local\Temp\ccI3TRm9.s:23206  .debug_str:00000000000020d4 .LASF1514
C:\Users\SOLDER~1\AppData\Local\Temp\ccI3TRm9.s:34048  .debug_str:000000000002e04f .LASF1515
C:\Users\SOLDER~1\AppData\Local\Temp\ccI3TRm9.s:30116  .debug_str:000000000001e046 .LASF1516
C:\Users\SOLDER~1\AppData\Local\Temp\ccI3TRm9.s:31016  .debug_str:0000000000021b00 .LASF1517
C:\Users\SOLDER~1\AppData\Local\Temp\ccI3TRm9.s:29470  .debug_str:000000000001b6bb .LASF1518
C:\Users\SOLDER~1\AppData\Local\Temp\ccI3TRm9.s:24750  .debug_str:0000000000008437 .LASF1519
C:\Users\SOLDER~1\AppData\Local\Temp\ccI3TRm9.s:34414  .debug_str:000000000002f73d .LASF1520
C:\Users\SOLDER~1\AppData\Local\Temp\ccI3TRm9.s:31852  .debug_str:0000000000025136 .LASF1521
C:\Users\SOLDER~1\AppData\Local\Temp\ccI3TRm9.s:33218  .debug_str:000000000002aa64 .LASF1522
C:\Users\SOLDER~1\AppData\Local\Temp\ccI3TRm9.s:23450  .debug_str:00000000000030be .LASF1523
C:\Users\SOLDER~1\AppData\Local\Temp\ccI3TRm9.s:28532  .debug_str:0000000000017abd .LASF1524
C:\Users\SOLDER~1\AppData\Local\Temp\ccI3TRm9.s:32524  .debug_str:0000000000027dbc .LASF1525
C:\Users\SOLDER~1\AppData\Local\Temp\ccI3TRm9.s:22778  .debug_str:0000000000000462 .LASF1526
C:\Users\SOLDER~1\AppData\Local\Temp\ccI3TRm9.s:28382  .debug_str:00000000000170ad .LASF1527
C:\Users\SOLDER~1\AppData\Local\Temp\ccI3TRm9.s:25794  .debug_str:000000000000c8c0 .LASF1528
C:\Users\SOLDER~1\AppData\Local\Temp\ccI3TRm9.s:26562  .debug_str:000000000000fa98 .LASF1529
C:\Users\SOLDER~1\AppData\Local\Temp\ccI3TRm9.s:24724  .debug_str:00000000000082ac .LASF1530
C:\Users\SOLDER~1\AppData\Local\Temp\ccI3TRm9.s:31382  .debug_str:00000000000232b4 .LASF1531
C:\Users\SOLDER~1\AppData\Local\Temp\ccI3TRm9.s:29542  .debug_str:000000000001bb52 .LASF1532
C:\Users\SOLDER~1\AppData\Local\Temp\ccI3TRm9.s:24282  .debug_str:0000000000006595 .LASF1533
C:\Users\SOLDER~1\AppData\Local\Temp\ccI3TRm9.s:26168  .debug_str:000000000000e135 .LASF1534
C:\Users\SOLDER~1\AppData\Local\Temp\ccI3TRm9.s:34246  .debug_str:000000000002ecb8 .LASF1535
C:\Users\SOLDER~1\AppData\Local\Temp\ccI3TRm9.s:28644  .debug_str:00000000000181db .LASF1536
C:\Users\SOLDER~1\AppData\Local\Temp\ccI3TRm9.s:23092  .debug_str:0000000000001946 .LASF1537
C:\Users\SOLDER~1\AppData\Local\Temp\ccI3TRm9.s:29510  .debug_str:000000000001b95e .LASF1538
C:\Users\SOLDER~1\AppData\Local\Temp\ccI3TRm9.s:29372  .debug_str:000000000001b0dc .LASF1539
C:\Users\SOLDER~1\AppData\Local\Temp\ccI3TRm9.s:30096  .debug_str:000000000001df01 .LASF1540
C:\Users\SOLDER~1\AppData\Local\Temp\ccI3TRm9.s:25532  .debug_str:000000000000b76c .LASF1541
C:\Users\SOLDER~1\AppData\Local\Temp\ccI3TRm9.s:33842  .debug_str:000000000002d2e9 .LASF1542
C:\Users\SOLDER~1\AppData\Local\Temp\ccI3TRm9.s:31944  .debug_str:0000000000025749 .LASF1543
C:\Users\SOLDER~1\AppData\Local\Temp\ccI3TRm9.s:23044  .debug_str:0000000000001649 .LASF1544
C:\Users\SOLDER~1\AppData\Local\Temp\ccI3TRm9.s:26624  .debug_str:000000000000ff21 .LASF1545
C:\Users\SOLDER~1\AppData\Local\Temp\ccI3TRm9.s:31146  .debug_str:0000000000022364 .LASF1546
C:\Users\SOLDER~1\AppData\Local\Temp\ccI3TRm9.s:30220  .debug_str:000000000001e72f .LASF1547
C:\Users\SOLDER~1\AppData\Local\Temp\ccI3TRm9.s:26320  .debug_str:000000000000eb54 .LASF1548
C:\Users\SOLDER~1\AppData\Local\Temp\ccI3TRm9.s:34106  .debug_str:000000000002e40a .LASF1549
C:\Users\SOLDER~1\AppData\Local\Temp\ccI3TRm9.s:24650  .debug_str:0000000000007d87 .LASF1550
C:\Users\SOLDER~1\AppData\Local\Temp\ccI3TRm9.s:32674  .debug_str:0000000000028781 .LASF1551
C:\Users\SOLDER~1\AppData\Local\Temp\ccI3TRm9.s:31002  .debug_str:0000000000021a14 .LASF1552
C:\Users\SOLDER~1\AppData\Local\Temp\ccI3TRm9.s:32238  .debug_str:0000000000026abd .LASF1553
C:\Users\SOLDER~1\AppData\Local\Temp\ccI3TRm9.s:29404  .debug_str:000000000001b316 .LASF1554
C:\Users\SOLDER~1\AppData\Local\Temp\ccI3TRm9.s:31350  .debug_str:000000000002307d .LASF1555
C:\Users\SOLDER~1\AppData\Local\Temp\ccI3TRm9.s:24704  .debug_str:0000000000008129 .LASF1556
C:\Users\SOLDER~1\AppData\Local\Temp\ccI3TRm9.s:28766  .debug_str:00000000000189bd .LASF1557
C:\Users\SOLDER~1\AppData\Local\Temp\ccI3TRm9.s:30674  .debug_str:00000000000204c6 .LASF1558
C:\Users\SOLDER~1\AppData\Local\Temp\ccI3TRm9.s:24558  .debug_str:00000000000077c0 .LASF1559
C:\Users\SOLDER~1\AppData\Local\Temp\ccI3TRm9.s:33748  .debug_str:000000000002ccdf .LASF1560
C:\Users\SOLDER~1\AppData\Local\Temp\ccI3TRm9.s:22786  .debug_str:00000000000004e2 .LASF1561
GAS LISTING C:\Users\SOLDER~1\AppData\Local\Temp\ccI3TRm9.s 			page 122


C:\Users\SOLDER~1\AppData\Local\Temp\ccI3TRm9.s:29888  .debug_str:000000000001d16f .LASF1562
C:\Users\SOLDER~1\AppData\Local\Temp\ccI3TRm9.s:26676  .debug_str:000000000001027e .LASF1563
C:\Users\SOLDER~1\AppData\Local\Temp\ccI3TRm9.s:25742  .debug_str:000000000000c505 .LASF1564
C:\Users\SOLDER~1\AppData\Local\Temp\ccI3TRm9.s:32416  .debug_str:0000000000027699 .LASF1565
C:\Users\SOLDER~1\AppData\Local\Temp\ccI3TRm9.s:28540  .debug_str:0000000000017b29 .LASF1566
C:\Users\SOLDER~1\AppData\Local\Temp\ccI3TRm9.s:26838  .debug_str:0000000000010cc3 .LASF1567
C:\Users\SOLDER~1\AppData\Local\Temp\ccI3TRm9.s:32948  .debug_str:0000000000029924 .LASF1568
C:\Users\SOLDER~1\AppData\Local\Temp\ccI3TRm9.s:27340  .debug_str:0000000000012c75 .LASF1569
C:\Users\SOLDER~1\AppData\Local\Temp\ccI3TRm9.s:33780  .debug_str:000000000002cf05 .LASF1570
C:\Users\SOLDER~1\AppData\Local\Temp\ccI3TRm9.s:33746  .debug_str:000000000002ccbb .LASF1571
C:\Users\SOLDER~1\AppData\Local\Temp\ccI3TRm9.s:22748  .debug_str:0000000000000255 .LASF1572
C:\Users\SOLDER~1\AppData\Local\Temp\ccI3TRm9.s:29866  .debug_str:000000000001d003 .LASF1573
C:\Users\SOLDER~1\AppData\Local\Temp\ccI3TRm9.s:26428  .debug_str:000000000000f21f .LASF1574
C:\Users\SOLDER~1\AppData\Local\Temp\ccI3TRm9.s:24662  .debug_str:0000000000007e7d .LASF1575
C:\Users\SOLDER~1\AppData\Local\Temp\ccI3TRm9.s:27290  .debug_str:0000000000012976 .LASF1576
C:\Users\SOLDER~1\AppData\Local\Temp\ccI3TRm9.s:22832  .debug_str:00000000000008af .LASF1577
C:\Users\SOLDER~1\AppData\Local\Temp\ccI3TRm9.s:27382  .debug_str:0000000000012f84 .LASF1578
C:\Users\SOLDER~1\AppData\Local\Temp\ccI3TRm9.s:26418  .debug_str:000000000000f172 .LASF1579
C:\Users\SOLDER~1\AppData\Local\Temp\ccI3TRm9.s:34204  .debug_str:000000000002ea46 .LASF1580
C:\Users\SOLDER~1\AppData\Local\Temp\ccI3TRm9.s:32066  .debug_str:0000000000025ed7 .LASF1581
C:\Users\SOLDER~1\AppData\Local\Temp\ccI3TRm9.s:33630  .debug_str:000000000002c52b .LASF1582
C:\Users\SOLDER~1\AppData\Local\Temp\ccI3TRm9.s:28914  .debug_str:00000000000193a6 .LASF1583
C:\Users\SOLDER~1\AppData\Local\Temp\ccI3TRm9.s:26790  .debug_str:0000000000010969 .LASF1584
C:\Users\SOLDER~1\AppData\Local\Temp\ccI3TRm9.s:28398  .debug_str:0000000000017193 .LASF1585
C:\Users\SOLDER~1\AppData\Local\Temp\ccI3TRm9.s:25614  .debug_str:000000000000bca6 .LASF1586
C:\Users\SOLDER~1\AppData\Local\Temp\ccI3TRm9.s:27620  .debug_str:0000000000013f73 .LASF1587
C:\Users\SOLDER~1\AppData\Local\Temp\ccI3TRm9.s:32620  .debug_str:00000000000283b6 .LASF1588
C:\Users\SOLDER~1\AppData\Local\Temp\ccI3TRm9.s:24938  .debug_str:000000000000904f .LASF1589
C:\Users\SOLDER~1\AppData\Local\Temp\ccI3TRm9.s:26904  .debug_str:00000000000110e0 .LASF1590
C:\Users\SOLDER~1\AppData\Local\Temp\ccI3TRm9.s:32378  .debug_str:0000000000027442 .LASF1591
C:\Users\SOLDER~1\AppData\Local\Temp\ccI3TRm9.s:29914  .debug_str:000000000001d333 .LASF1592
C:\Users\SOLDER~1\AppData\Local\Temp\ccI3TRm9.s:32634  .debug_str:00000000000284b7 .LASF1593
C:\Users\SOLDER~1\AppData\Local\Temp\ccI3TRm9.s:26102  .debug_str:000000000000dcec .LASF1594
C:\Users\SOLDER~1\AppData\Local\Temp\ccI3TRm9.s:22882  .debug_str:0000000000000c29 .LASF1595
C:\Users\SOLDER~1\AppData\Local\Temp\ccI3TRm9.s:33696  .debug_str:000000000002c987 .LASF1596
C:\Users\SOLDER~1\AppData\Local\Temp\ccI3TRm9.s:28578  .debug_str:0000000000017d92 .LASF1597
C:\Users\SOLDER~1\AppData\Local\Temp\ccI3TRm9.s:31494  .debug_str:0000000000023a03 .LASF1598
C:\Users\SOLDER~1\AppData\Local\Temp\ccI3TRm9.s:33826  .debug_str:000000000002d1d9 .LASF1599
C:\Users\SOLDER~1\AppData\Local\Temp\ccI3TRm9.s:28218  .debug_str:000000000001669d .LASF1600
C:\Users\SOLDER~1\AppData\Local\Temp\ccI3TRm9.s:22720  .debug_str:00000000000000bc .LASF1601
C:\Users\SOLDER~1\AppData\Local\Temp\ccI3TRm9.s:29032  .debug_str:0000000000019bad .LASF1602
C:\Users\SOLDER~1\AppData\Local\Temp\ccI3TRm9.s:29000  .debug_str:0000000000019957 .LASF1603
C:\Users\SOLDER~1\AppData\Local\Temp\ccI3TRm9.s:29692  .debug_str:000000000001c478 .LASF1604
C:\Users\SOLDER~1\AppData\Local\Temp\ccI3TRm9.s:25128  .debug_str:0000000000009cd8 .LASF1605
C:\Users\SOLDER~1\AppData\Local\Temp\ccI3TRm9.s:33432  .debug_str:000000000002b80c .LASF1606
C:\Users\SOLDER~1\AppData\Local\Temp\ccI3TRm9.s:31598  .debug_str:00000000000240af .LASF1607
C:\Users\SOLDER~1\AppData\Local\Temp\ccI3TRm9.s:34318  .debug_str:000000000002f14e .LASF1608
C:\Users\SOLDER~1\AppData\Local\Temp\ccI3TRm9.s:27698  .debug_str:000000000001449e .LASF1609
C:\Users\SOLDER~1\AppData\Local\Temp\ccI3TRm9.s:26206  .debug_str:000000000000e3cc .LASF1610
C:\Users\SOLDER~1\AppData\Local\Temp\ccI3TRm9.s:30554  .debug_str:000000000001fd64 .LASF1611
C:\Users\SOLDER~1\AppData\Local\Temp\ccI3TRm9.s:23390  .debug_str:0000000000002cd5 .LASF1612
C:\Users\SOLDER~1\AppData\Local\Temp\ccI3TRm9.s:30892  .debug_str:00000000000212ee .LASF1613
C:\Users\SOLDER~1\AppData\Local\Temp\ccI3TRm9.s:32424  .debug_str:000000000002771f .LASF1614
C:\Users\SOLDER~1\AppData\Local\Temp\ccI3TRm9.s:27728  .debug_str:00000000000146de .LASF1615
C:\Users\SOLDER~1\AppData\Local\Temp\ccI3TRm9.s:24786  .debug_str:0000000000008670 .LASF1616
C:\Users\SOLDER~1\AppData\Local\Temp\ccI3TRm9.s:27196  .debug_str:0000000000012377 .LASF1617
C:\Users\SOLDER~1\AppData\Local\Temp\ccI3TRm9.s:24440  .debug_str:0000000000007027 .LASF1618
GAS LISTING C:\Users\SOLDER~1\AppData\Local\Temp\ccI3TRm9.s 			page 123


C:\Users\SOLDER~1\AppData\Local\Temp\ccI3TRm9.s:26414  .debug_str:000000000000f127 .LASF1619
C:\Users\SOLDER~1\AppData\Local\Temp\ccI3TRm9.s:31424  .debug_str:000000000002355d .LASF1620
C:\Users\SOLDER~1\AppData\Local\Temp\ccI3TRm9.s:23746  .debug_str:0000000000004324 .LASF1621
C:\Users\SOLDER~1\AppData\Local\Temp\ccI3TRm9.s:25708  .debug_str:000000000000c2a4 .LASF1622
C:\Users\SOLDER~1\AppData\Local\Temp\ccI3TRm9.s:31180  .debug_str:0000000000022582 .LASF1623
C:\Users\SOLDER~1\AppData\Local\Temp\ccI3TRm9.s:28796  .debug_str:0000000000018bc8 .LASF1624
C:\Users\SOLDER~1\AppData\Local\Temp\ccI3TRm9.s:29524  .debug_str:000000000001ba34 .LASF1625
C:\Users\SOLDER~1\AppData\Local\Temp\ccI3TRm9.s:24944  .debug_str:00000000000090c2 .LASF1626
C:\Users\SOLDER~1\AppData\Local\Temp\ccI3TRm9.s:33442  .debug_str:000000000002b8b6 .LASF1627
C:\Users\SOLDER~1\AppData\Local\Temp\ccI3TRm9.s:32498  .debug_str:0000000000027c10 .LASF1628
C:\Users\SOLDER~1\AppData\Local\Temp\ccI3TRm9.s:24902  .debug_str:0000000000008dc6 .LASF1629
C:\Users\SOLDER~1\AppData\Local\Temp\ccI3TRm9.s:29066  .debug_str:0000000000019d93 .LASF1630
C:\Users\SOLDER~1\AppData\Local\Temp\ccI3TRm9.s:26410  .debug_str:000000000000f0e1 .LASF1631
C:\Users\SOLDER~1\AppData\Local\Temp\ccI3TRm9.s:32442  .debug_str:0000000000027840 .LASF1632
C:\Users\SOLDER~1\AppData\Local\Temp\ccI3TRm9.s:26962  .debug_str:000000000001146c .LASF1633
C:\Users\SOLDER~1\AppData\Local\Temp\ccI3TRm9.s:33370  .debug_str:000000000002b425 .LASF1634
C:\Users\SOLDER~1\AppData\Local\Temp\ccI3TRm9.s:31686  .debug_str:000000000002465a .LASF1635
C:\Users\SOLDER~1\AppData\Local\Temp\ccI3TRm9.s:34074  .debug_str:000000000002e227 .LASF1636
C:\Users\SOLDER~1\AppData\Local\Temp\ccI3TRm9.s:29476  .debug_str:000000000001b724 .LASF1637
C:\Users\SOLDER~1\AppData\Local\Temp\ccI3TRm9.s:26022  .debug_str:000000000000d7fb .LASF1638
C:\Users\SOLDER~1\AppData\Local\Temp\ccI3TRm9.s:24156  .debug_str:0000000000005d29 .LASF1639
C:\Users\SOLDER~1\AppData\Local\Temp\ccI3TRm9.s:26910  .debug_str:0000000000011140 .LASF1640
C:\Users\SOLDER~1\AppData\Local\Temp\ccI3TRm9.s:29590  .debug_str:000000000001bdd3 .LASF1641
C:\Users\SOLDER~1\AppData\Local\Temp\ccI3TRm9.s:34180  .debug_str:000000000002e8ea .LASF1642
C:\Users\SOLDER~1\AppData\Local\Temp\ccI3TRm9.s:33118  .debug_str:000000000002a3c6 .LASF1643
C:\Users\SOLDER~1\AppData\Local\Temp\ccI3TRm9.s:29218  .debug_str:000000000001a6ed .LASF1644
C:\Users\SOLDER~1\AppData\Local\Temp\ccI3TRm9.s:27108  .debug_str:0000000000011dcc .LASF1645
C:\Users\SOLDER~1\AppData\Local\Temp\ccI3TRm9.s:28678  .debug_str:000000000001844b .LASF1646
C:\Users\SOLDER~1\AppData\Local\Temp\ccI3TRm9.s:23908  .debug_str:0000000000004da5 .LASF1647
C:\Users\SOLDER~1\AppData\Local\Temp\ccI3TRm9.s:27832  .debug_str:0000000000014dd7 .LASF1648
C:\Users\SOLDER~1\AppData\Local\Temp\ccI3TRm9.s:23386  .debug_str:0000000000002c94 .LASF1649
C:\Users\SOLDER~1\AppData\Local\Temp\ccI3TRm9.s:32362  .debug_str:000000000002731d .LASF1650
C:\Users\SOLDER~1\AppData\Local\Temp\ccI3TRm9.s:34388  .debug_str:000000000002f5b7 .LASF1651
C:\Users\SOLDER~1\AppData\Local\Temp\ccI3TRm9.s:32706  .debug_str:00000000000289c6 .LASF1652
C:\Users\SOLDER~1\AppData\Local\Temp\ccI3TRm9.s:31656  .debug_str:000000000002446a .LASF1653
C:\Users\SOLDER~1\AppData\Local\Temp\ccI3TRm9.s:33666  .debug_str:000000000002c754 .LASF1654
C:\Users\SOLDER~1\AppData\Local\Temp\ccI3TRm9.s:27430  .debug_str:0000000000013261 .LASF1655
C:\Users\SOLDER~1\AppData\Local\Temp\ccI3TRm9.s:24964  .debug_str:000000000000921d .LASF1656
C:\Users\SOLDER~1\AppData\Local\Temp\ccI3TRm9.s:27742  .debug_str:00000000000147c4 .LASF1657
C:\Users\SOLDER~1\AppData\Local\Temp\ccI3TRm9.s:32864  .debug_str:000000000002940b .LASF1658
C:\Users\SOLDER~1\AppData\Local\Temp\ccI3TRm9.s:29630  .debug_str:000000000001c064 .LASF1659
C:\Users\SOLDER~1\AppData\Local\Temp\ccI3TRm9.s:28738  .debug_str:0000000000018826 .LASF1660
C:\Users\SOLDER~1\AppData\Local\Temp\ccI3TRm9.s:23562  .debug_str:00000000000037cd .LASF1661
C:\Users\SOLDER~1\AppData\Local\Temp\ccI3TRm9.s:25234  .debug_str:000000000000a3ec .LASF1662
C:\Users\SOLDER~1\AppData\Local\Temp\ccI3TRm9.s:30658  .debug_str:00000000000203c6 .LASF1663
C:\Users\SOLDER~1\AppData\Local\Temp\ccI3TRm9.s:25066  .debug_str:00000000000098c8 .LASF1664
C:\Users\SOLDER~1\AppData\Local\Temp\ccI3TRm9.s:30038  .debug_str:000000000001db64 .LASF1665
C:\Users\SOLDER~1\AppData\Local\Temp\ccI3TRm9.s:25968  .debug_str:000000000000d462 .LASF1666
C:\Users\SOLDER~1\AppData\Local\Temp\ccI3TRm9.s:25926  .debug_str:000000000000d1a5 .LASF1667
C:\Users\SOLDER~1\AppData\Local\Temp\ccI3TRm9.s:26672  .debug_str:0000000000010236 .LASF1668
C:\Users\SOLDER~1\AppData\Local\Temp\ccI3TRm9.s:33752  .debug_str:000000000002cd2d .LASF1669
C:\Users\SOLDER~1\AppData\Local\Temp\ccI3TRm9.s:30280  .debug_str:000000000001eaf3 .LASF1670
C:\Users\SOLDER~1\AppData\Local\Temp\ccI3TRm9.s:28546  .debug_str:0000000000017b96 .LASF1671
C:\Users\SOLDER~1\AppData\Local\Temp\ccI3TRm9.s:31196  .debug_str:0000000000022684 .LASF1672
C:\Users\SOLDER~1\AppData\Local\Temp\ccI3TRm9.s:25784  .debug_str:000000000000c7fb .LASF1673
C:\Users\SOLDER~1\AppData\Local\Temp\ccI3TRm9.s:33566  .debug_str:000000000002c0fe .LASF1674
C:\Users\SOLDER~1\AppData\Local\Temp\ccI3TRm9.s:29298  .debug_str:000000000001ac1a .LASF1675
GAS LISTING C:\Users\SOLDER~1\AppData\Local\Temp\ccI3TRm9.s 			page 124


C:\Users\SOLDER~1\AppData\Local\Temp\ccI3TRm9.s:25402  .debug_str:000000000000aed0 .LASF1676
C:\Users\SOLDER~1\AppData\Local\Temp\ccI3TRm9.s:23308  .debug_str:000000000000279e .LASF1677
C:\Users\SOLDER~1\AppData\Local\Temp\ccI3TRm9.s:24850  .debug_str:0000000000008a58 .LASF1678
C:\Users\SOLDER~1\AppData\Local\Temp\ccI3TRm9.s:31722  .debug_str:00000000000248bb .LASF1679
C:\Users\SOLDER~1\AppData\Local\Temp\ccI3TRm9.s:29726  .debug_str:000000000001c6ef .LASF1680
C:\Users\SOLDER~1\AppData\Local\Temp\ccI3TRm9.s:33856  .debug_str:000000000002d3c0 .LASF1681
C:\Users\SOLDER~1\AppData\Local\Temp\ccI3TRm9.s:28612  .debug_str:0000000000017fb8 .LASF1682
C:\Users\SOLDER~1\AppData\Local\Temp\ccI3TRm9.s:30564  .debug_str:000000000001fe08 .LASF1683
C:\Users\SOLDER~1\AppData\Local\Temp\ccI3TRm9.s:23854  .debug_str:0000000000004a25 .LASF1684
C:\Users\SOLDER~1\AppData\Local\Temp\ccI3TRm9.s:27824  .debug_str:0000000000014d51 .LASF1685
C:\Users\SOLDER~1\AppData\Local\Temp\ccI3TRm9.s:29838  .debug_str:000000000001ce20 .LASF1686
C:\Users\SOLDER~1\AppData\Local\Temp\ccI3TRm9.s:23620  .debug_str:0000000000003b7a .LASF1687
C:\Users\SOLDER~1\AppData\Local\Temp\ccI3TRm9.s:32886  .debug_str:0000000000029555 .LASF1688
C:\Users\SOLDER~1\AppData\Local\Temp\ccI3TRm9.s:33678  .debug_str:000000000002c836 .LASF1689
C:\Users\SOLDER~1\AppData\Local\Temp\ccI3TRm9.s:26064  .debug_str:000000000000dabf .LASF1690
C:\Users\SOLDER~1\AppData\Local\Temp\ccI3TRm9.s:25830  .debug_str:000000000000cb24 .LASF1691
C:\Users\SOLDER~1\AppData\Local\Temp\ccI3TRm9.s:24914  .debug_str:0000000000008e92 .LASF1692
C:\Users\SOLDER~1\AppData\Local\Temp\ccI3TRm9.s:26326  .debug_str:000000000000ebb9 .LASF1693
C:\Users\SOLDER~1\AppData\Local\Temp\ccI3TRm9.s:33202  .debug_str:000000000002a933 .LASF1694
C:\Users\SOLDER~1\AppData\Local\Temp\ccI3TRm9.s:23274  .debug_str:0000000000002566 .LASF1695
C:\Users\SOLDER~1\AppData\Local\Temp\ccI3TRm9.s:29406  .debug_str:000000000001b33b .LASF1696
C:\Users\SOLDER~1\AppData\Local\Temp\ccI3TRm9.s:23492  .debug_str:000000000000335b .LASF1697
C:\Users\SOLDER~1\AppData\Local\Temp\ccI3TRm9.s:30312  .debug_str:000000000001ed40 .LASF1698
C:\Users\SOLDER~1\AppData\Local\Temp\ccI3TRm9.s:30180  .debug_str:000000000001e4af .LASF1699
C:\Users\SOLDER~1\AppData\Local\Temp\ccI3TRm9.s:30894  .debug_str:0000000000021314 .LASF1700
C:\Users\SOLDER~1\AppData\Local\Temp\ccI3TRm9.s:26336  .debug_str:000000000000ec62 .LASF1701
C:\Users\SOLDER~1\AppData\Local\Temp\ccI3TRm9.s:28570  .debug_str:0000000000017cf5 .LASF1702
C:\Users\SOLDER~1\AppData\Local\Temp\ccI3TRm9.s:32844  .debug_str:00000000000292cc .LASF1703
C:\Users\SOLDER~1\AppData\Local\Temp\ccI3TRm9.s:23838  .debug_str:000000000000493c .LASF1704
C:\Users\SOLDER~1\AppData\Local\Temp\ccI3TRm9.s:33740  .debug_str:000000000002cc6b .LASF1705
C:\Users\SOLDER~1\AppData\Local\Temp\ccI3TRm9.s:26456  .debug_str:000000000000f3c3 .LASF1706
C:\Users\SOLDER~1\AppData\Local\Temp\ccI3TRm9.s:25498  .debug_str:000000000000b506 .LASF1707
C:\Users\SOLDER~1\AppData\Local\Temp\ccI3TRm9.s:33348  .debug_str:000000000002b289 .LASF1708
C:\Users\SOLDER~1\AppData\Local\Temp\ccI3TRm9.s:31206  .debug_str:0000000000022732 .LASF1709
C:\Users\SOLDER~1\AppData\Local\Temp\ccI3TRm9.s:27512  .debug_str:00000000000137e0 .LASF1710
C:\Users\SOLDER~1\AppData\Local\Temp\ccI3TRm9.s:27974  .debug_str:0000000000015715 .LASF1711
C:\Users\SOLDER~1\AppData\Local\Temp\ccI3TRm9.s:34286  .debug_str:000000000002ef5a .LASF1712
C:\Users\SOLDER~1\AppData\Local\Temp\ccI3TRm9.s:27554  .debug_str:0000000000013aaf .LASF1713
C:\Users\SOLDER~1\AppData\Local\Temp\ccI3TRm9.s:24780  .debug_str:0000000000008600 .LASF1714
C:\Users\SOLDER~1\AppData\Local\Temp\ccI3TRm9.s:26772  .debug_str:0000000000010876 .LASF1715
C:\Users\SOLDER~1\AppData\Local\Temp\ccI3TRm9.s:24530  .debug_str:0000000000007609 .LASF1716
C:\Users\SOLDER~1\AppData\Local\Temp\ccI3TRm9.s:23214  .debug_str:0000000000002163 .LASF1717
C:\Users\SOLDER~1\AppData\Local\Temp\ccI3TRm9.s:26044  .debug_str:000000000000d94b .LASF1718
C:\Users\SOLDER~1\AppData\Local\Temp\ccI3TRm9.s:31516  .debug_str:0000000000023b86 .LASF1719
C:\Users\SOLDER~1\AppData\Local\Temp\ccI3TRm9.s:29110  .debug_str:000000000001a037 .LASF1720
C:\Users\SOLDER~1\AppData\Local\Temp\ccI3TRm9.s:29850  .debug_str:000000000001cf04 .LASF1721
C:\Users\SOLDER~1\AppData\Local\Temp\ccI3TRm9.s:25256  .debug_str:000000000000a564 .LASF1722
C:\Users\SOLDER~1\AppData\Local\Temp\ccI3TRm9.s:33786  .debug_str:000000000002cf62 .LASF1723
C:\Users\SOLDER~1\AppData\Local\Temp\ccI3TRm9.s:32842  .debug_str:00000000000292a6 .LASF1724
C:\Users\SOLDER~1\AppData\Local\Temp\ccI3TRm9.s:27722  .debug_str:000000000001467f .LASF1725
C:\Users\SOLDER~1\AppData\Local\Temp\ccI3TRm9.s:29382  .debug_str:000000000001b1af .LASF1726
C:\Users\SOLDER~1\AppData\Local\Temp\ccI3TRm9.s:26024  .debug_str:000000000000d820 .LASF1727
C:\Users\SOLDER~1\AppData\Local\Temp\ccI3TRm9.s:32130  .debug_str:0000000000026343 .LASF1728
C:\Users\SOLDER~1\AppData\Local\Temp\ccI3TRm9.s:26658  .debug_str:000000000001015b .LASF1729
C:\Users\SOLDER~1\AppData\Local\Temp\ccI3TRm9.s:33084  .debug_str:000000000002a183 .LASF1730
C:\Users\SOLDER~1\AppData\Local\Temp\ccI3TRm9.s:33038  .debug_str:0000000000029ed8 .LASF1731
C:\Users\SOLDER~1\AppData\Local\Temp\ccI3TRm9.s:33774  .debug_str:000000000002ce97 .LASF1732
GAS LISTING C:\Users\SOLDER~1\AppData\Local\Temp\ccI3TRm9.s 			page 125


C:\Users\SOLDER~1\AppData\Local\Temp\ccI3TRm9.s:29198  .debug_str:000000000001a5b5 .LASF1733
C:\Users\SOLDER~1\AppData\Local\Temp\ccI3TRm9.s:25648  .debug_str:000000000000bef7 .LASF1734
C:\Users\SOLDER~1\AppData\Local\Temp\ccI3TRm9.s:24094  .debug_str:000000000000591d .LASF1735
C:\Users\SOLDER~1\AppData\Local\Temp\ccI3TRm9.s:26604  .debug_str:000000000000fd9f .LASF1736
C:\Users\SOLDER~1\AppData\Local\Temp\ccI3TRm9.s:28214  .debug_str:0000000000016664 .LASF1737
C:\Users\SOLDER~1\AppData\Local\Temp\ccI3TRm9.s:23574  .debug_str:0000000000003891 .LASF1738
C:\Users\SOLDER~1\AppData\Local\Temp\ccI3TRm9.s:24142  .debug_str:0000000000005c74 .LASF1739
C:\Users\SOLDER~1\AppData\Local\Temp\ccI3TRm9.s:31964  .debug_str:0000000000025887 .LASF1740
C:\Users\SOLDER~1\AppData\Local\Temp\ccI3TRm9.s:29790  .debug_str:000000000001cb16 .LASF1741
C:\Users\SOLDER~1\AppData\Local\Temp\ccI3TRm9.s:33722  .debug_str:000000000002cb5e .LASF1742
C:\Users\SOLDER~1\AppData\Local\Temp\ccI3TRm9.s:26610  .debug_str:000000000000fdff .LASF1743
C:\Users\SOLDER~1\AppData\Local\Temp\ccI3TRm9.s:24510  .debug_str:00000000000074c6 .LASF1744
C:\Users\SOLDER~1\AppData\Local\Temp\ccI3TRm9.s:26176  .debug_str:000000000000e1c5 .LASF1745
C:\Users\SOLDER~1\AppData\Local\Temp\ccI3TRm9.s:31588  .debug_str:000000000002403b .LASF1746
C:\Users\SOLDER~1\AppData\Local\Temp\ccI3TRm9.s:25306  .debug_str:000000000000a8da .LASF1747
C:\Users\SOLDER~1\AppData\Local\Temp\ccI3TRm9.s:30352  .debug_str:000000000001efe6 .LASF1748
C:\Users\SOLDER~1\AppData\Local\Temp\ccI3TRm9.s:34430  .debug_str:000000000002f83e .LASF1749
C:\Users\SOLDER~1\AppData\Local\Temp\ccI3TRm9.s:24618  .debug_str:0000000000007b59 .LASF1750
C:\Users\SOLDER~1\AppData\Local\Temp\ccI3TRm9.s:30206  .debug_str:000000000001e636 .LASF1751
C:\Users\SOLDER~1\AppData\Local\Temp\ccI3TRm9.s:27668  .debug_str:00000000000142b7 .LASF1752
C:\Users\SOLDER~1\AppData\Local\Temp\ccI3TRm9.s:28446  .debug_str:00000000000174c6 .LASF1753
C:\Users\SOLDER~1\AppData\Local\Temp\ccI3TRm9.s:23822  .debug_str:000000000000482e .LASF1754
C:\Users\SOLDER~1\AppData\Local\Temp\ccI3TRm9.s:32306  .debug_str:0000000000026f47 .LASF1755
C:\Users\SOLDER~1\AppData\Local\Temp\ccI3TRm9.s:31358  .debug_str:0000000000023120 .LASF1756
C:\Users\SOLDER~1\AppData\Local\Temp\ccI3TRm9.s:26350  .debug_str:000000000000ed42 .LASF1757
C:\Users\SOLDER~1\AppData\Local\Temp\ccI3TRm9.s:28052  .debug_str:0000000000015c34 .LASF1758
C:\Users\SOLDER~1\AppData\Local\Temp\ccI3TRm9.s:30384  .debug_str:000000000001f1e3 .LASF1759
C:\Users\SOLDER~1\AppData\Local\Temp\ccI3TRm9.s:24774  .debug_str:00000000000085a6 .LASF1760
C:\Users\SOLDER~1\AppData\Local\Temp\ccI3TRm9.s:30970  .debug_str:000000000002181b .LASF1761
C:\Users\SOLDER~1\AppData\Local\Temp\ccI3TRm9.s:25672  .debug_str:000000000000c068 .LASF1762
C:\Users\SOLDER~1\AppData\Local\Temp\ccI3TRm9.s:23244  .debug_str:000000000000236d .LASF1763
C:\Users\SOLDER~1\AppData\Local\Temp\ccI3TRm9.s:26266  .debug_str:000000000000e7e3 .LASF1764
C:\Users\SOLDER~1\AppData\Local\Temp\ccI3TRm9.s:27142  .debug_str:0000000000012020 .LASF1765
C:\Users\SOLDER~1\AppData\Local\Temp\ccI3TRm9.s:29974  .debug_str:000000000001d74a .LASF1766
C:\Users\SOLDER~1\AppData\Local\Temp\ccI3TRm9.s:28234  .debug_str:00000000000167a9 .LASF1767
C:\Users\SOLDER~1\AppData\Local\Temp\ccI3TRm9.s:30924  .debug_str:00000000000214e9 .LASF1768
C:\Users\SOLDER~1\AppData\Local\Temp\ccI3TRm9.s:28512  .debug_str:000000000001796b .LASF1769
C:\Users\SOLDER~1\AppData\Local\Temp\ccI3TRm9.s:33056  .debug_str:0000000000029fe2 .LASF1770
C:\Users\SOLDER~1\AppData\Local\Temp\ccI3TRm9.s:32064  .debug_str:0000000000025eb2 .LASF1771
C:\Users\SOLDER~1\AppData\Local\Temp\ccI3TRm9.s:28210  .debug_str:0000000000016624 .LASF1772
C:\Users\SOLDER~1\AppData\Local\Temp\ccI3TRm9.s:26000  .debug_str:000000000000d67f .LASF1773
C:\Users\SOLDER~1\AppData\Local\Temp\ccI3TRm9.s:27548  .debug_str:0000000000013a41 .LASF1774
C:\Users\SOLDER~1\AppData\Local\Temp\ccI3TRm9.s:22820  .debug_str:00000000000007aa .LASF1775
C:\Users\SOLDER~1\AppData\Local\Temp\ccI3TRm9.s:32422  .debug_str:00000000000276fa .LASF1776
C:\Users\SOLDER~1\AppData\Local\Temp\ccI3TRm9.s:34144  .debug_str:000000000002e68b .LASF1777
C:\Users\SOLDER~1\AppData\Local\Temp\ccI3TRm9.s:31222  .debug_str:0000000000022808 .LASF1778
C:\Users\SOLDER~1\AppData\Local\Temp\ccI3TRm9.s:30642  .debug_str:00000000000202ca .LASF1779
C:\Users\SOLDER~1\AppData\Local\Temp\ccI3TRm9.s:26552  .debug_str:000000000000f9df .LASF1780
C:\Users\SOLDER~1\AppData\Local\Temp\ccI3TRm9.s:30592  .debug_str:000000000001ffb2 .LASF1781
C:\Users\SOLDER~1\AppData\Local\Temp\ccI3TRm9.s:32532  .debug_str:0000000000027e2b .LASF1782
C:\Users\SOLDER~1\AppData\Local\Temp\ccI3TRm9.s:26404  .debug_str:000000000000f07d .LASF1783
C:\Users\SOLDER~1\AppData\Local\Temp\ccI3TRm9.s:23842  .debug_str:000000000000497b .LASF1784
C:\Users\SOLDER~1\AppData\Local\Temp\ccI3TRm9.s:24628  .debug_str:0000000000007c1a .LASF1785
C:\Users\SOLDER~1\AppData\Local\Temp\ccI3TRm9.s:31728  .debug_str:0000000000024922 .LASF1786
C:\Users\SOLDER~1\AppData\Local\Temp\ccI3TRm9.s:28566  .debug_str:0000000000017cab .LASF1787
C:\Users\SOLDER~1\AppData\Local\Temp\ccI3TRm9.s:27626  .debug_str:0000000000013fd7 .LASF1788
C:\Users\SOLDER~1\AppData\Local\Temp\ccI3TRm9.s:34326  .debug_str:000000000002f1d3 .LASF1789
GAS LISTING C:\Users\SOLDER~1\AppData\Local\Temp\ccI3TRm9.s 			page 126


C:\Users\SOLDER~1\AppData\Local\Temp\ccI3TRm9.s:24138  .debug_str:0000000000005c2b .LASF1790
C:\Users\SOLDER~1\AppData\Local\Temp\ccI3TRm9.s:23000  .debug_str:0000000000001381 .LASF1791
C:\Users\SOLDER~1\AppData\Local\Temp\ccI3TRm9.s:29132  .debug_str:000000000001a1a8 .LASF1792
C:\Users\SOLDER~1\AppData\Local\Temp\ccI3TRm9.s:23600  .debug_str:0000000000003a2d .LASF1793
C:\Users\SOLDER~1\AppData\Local\Temp\ccI3TRm9.s:29918  .debug_str:000000000001d384 .LASF1794
C:\Users\SOLDER~1\AppData\Local\Temp\ccI3TRm9.s:29880  .debug_str:000000000001d0ea .LASF1795
C:\Users\SOLDER~1\AppData\Local\Temp\ccI3TRm9.s:30612  .debug_str:00000000000200ed .LASF1796
C:\Users\SOLDER~1\AppData\Local\Temp\ccI3TRm9.s:26888  .debug_str:0000000000010fc3 .LASF1797
C:\Users\SOLDER~1\AppData\Local\Temp\ccI3TRm9.s:34368  .debug_str:000000000002f48c .LASF1798
C:\Users\SOLDER~1\AppData\Local\Temp\ccI3TRm9.s:32544  .debug_str:0000000000027efa .LASF1799
C:\Users\SOLDER~1\AppData\Local\Temp\ccI3TRm9.s:23544  .debug_str:00000000000036a2 .LASF1800
C:\Users\SOLDER~1\AppData\Local\Temp\ccI3TRm9.s:24688  .debug_str:0000000000008013 .LASF1801
C:\Users\SOLDER~1\AppData\Local\Temp\ccI3TRm9.s:30488  .debug_str:000000000001f8e9 .LASF1802
C:\Users\SOLDER~1\AppData\Local\Temp\ccI3TRm9.s:28316  .debug_str:0000000000016c9a .LASF1803
C:\Users\SOLDER~1\AppData\Local\Temp\ccI3TRm9.s:24290  .debug_str:0000000000006623 .LASF1804
C:\Users\SOLDER~1\AppData\Local\Temp\ccI3TRm9.s:33962  .debug_str:000000000002dafc .LASF1805
C:\Users\SOLDER~1\AppData\Local\Temp\ccI3TRm9.s:23712  .debug_str:0000000000004123 .LASF1806
C:\Users\SOLDER~1\AppData\Local\Temp\ccI3TRm9.s:30722  .debug_str:00000000000207d1 .LASF1807
C:\Users\SOLDER~1\AppData\Local\Temp\ccI3TRm9.s:28520  .debug_str:00000000000179ec .LASF1808
C:\Users\SOLDER~1\AppData\Local\Temp\ccI3TRm9.s:30222  .debug_str:000000000001e754 .LASF1809
C:\Users\SOLDER~1\AppData\Local\Temp\ccI3TRm9.s:27480  .debug_str:00000000000135bf .LASF1810
C:\Users\SOLDER~1\AppData\Local\Temp\ccI3TRm9.s:29448  .debug_str:000000000001b54d .LASF1811
C:\Users\SOLDER~1\AppData\Local\Temp\ccI3TRm9.s:22780  .debug_str:0000000000000487 .LASF1812
C:\Users\SOLDER~1\AppData\Local\Temp\ccI3TRm9.s:26802  .debug_str:0000000000010a33 .LASF1813
C:\Users\SOLDER~1\AppData\Local\Temp\ccI3TRm9.s:28778  .debug_str:0000000000018a8d .LASF1814
C:\Users\SOLDER~1\AppData\Local\Temp\ccI3TRm9.s:34292  .debug_str:000000000002efbc .LASF1815
C:\Users\SOLDER~1\AppData\Local\Temp\ccI3TRm9.s:30174  .debug_str:000000000001e442 .LASF1816
C:\Users\SOLDER~1\AppData\Local\Temp\ccI3TRm9.s:33012  .debug_str:0000000000029d1e .LASF1817
C:\Users\SOLDER~1\AppData\Local\Temp\ccI3TRm9.s:27986  .debug_str:00000000000157c6 .LASF1818
C:\Users\SOLDER~1\AppData\Local\Temp\ccI3TRm9.s:24734  .debug_str:0000000000008334 .LASF1819
C:\Users\SOLDER~1\AppData\Local\Temp\ccI3TRm9.s:23790  .debug_str:0000000000004604 .LASF1820
C:\Users\SOLDER~1\AppData\Local\Temp\ccI3TRm9.s:30402  .debug_str:000000000001f321 .LASF1821
C:\Users\SOLDER~1\AppData\Local\Temp\ccI3TRm9.s:32060  .debug_str:0000000000025e7f .LASF1822
C:\Users\SOLDER~1\AppData\Local\Temp\ccI3TRm9.s:27324  .debug_str:0000000000012b64 .LASF1823
C:\Users\SOLDER~1\AppData\Local\Temp\ccI3TRm9.s:33380  .debug_str:000000000002b4de .LASF1824
C:\Users\SOLDER~1\AppData\Local\Temp\ccI3TRm9.s:27882  .debug_str:000000000001512a .LASF1825
C:\Users\SOLDER~1\AppData\Local\Temp\ccI3TRm9.s:34312  .debug_str:000000000002f0e7 .LASF1826
C:\Users\SOLDER~1\AppData\Local\Temp\ccI3TRm9.s:32690  .debug_str:0000000000028898 .LASF1827
C:\Users\SOLDER~1\AppData\Local\Temp\ccI3TRm9.s:23222  .debug_str:00000000000021fa .LASF1828
C:\Users\SOLDER~1\AppData\Local\Temp\ccI3TRm9.s:30394  .debug_str:000000000001f299 .LASF1829
C:\Users\SOLDER~1\AppData\Local\Temp\ccI3TRm9.s:25126  .debug_str:0000000000009cb4 .LASF1830
C:\Users\SOLDER~1\AppData\Local\Temp\ccI3TRm9.s:25078  .debug_str:0000000000009993 .LASF1831
C:\Users\SOLDER~1\AppData\Local\Temp\ccI3TRm9.s:27826  .debug_str:0000000000014d77 .LASF1832
C:\Users\SOLDER~1\AppData\Local\Temp\ccI3TRm9.s:32602  .debug_str:000000000002827f .LASF1833
C:\Users\SOLDER~1\AppData\Local\Temp\ccI3TRm9.s:25440  .debug_str:000000000000b176 .LASF1834
C:\Users\SOLDER~1\AppData\Local\Temp\ccI3TRm9.s:24390  .debug_str:0000000000006cba .LASF1835
C:\Users\SOLDER~1\AppData\Local\Temp\ccI3TRm9.s:32210  .debug_str:00000000000268c4 .LASF1836
C:\Users\SOLDER~1\AppData\Local\Temp\ccI3TRm9.s:30134  .debug_str:000000000001e178 .LASF1837
C:\Users\SOLDER~1\AppData\Local\Temp\ccI3TRm9.s:31038  .debug_str:0000000000021c78 .LASF1838
C:\Users\SOLDER~1\AppData\Local\Temp\ccI3TRm9.s:26956  .debug_str:0000000000011406 .LASF1839
C:\Users\SOLDER~1\AppData\Local\Temp\ccI3TRm9.s:25724  .debug_str:000000000000c3c8 .LASF1840
C:\Users\SOLDER~1\AppData\Local\Temp\ccI3TRm9.s:26422  .debug_str:000000000000f1b7 .LASF1841
C:\Users\SOLDER~1\AppData\Local\Temp\ccI3TRm9.s:23652  .debug_str:0000000000003d61 .LASF1842
C:\Users\SOLDER~1\AppData\Local\Temp\ccI3TRm9.s:25656  .debug_str:000000000000bf7e .LASF1843
C:\Users\SOLDER~1\AppData\Local\Temp\ccI3TRm9.s:30678  .debug_str:0000000000020507 .LASF1844
C:\Users\SOLDER~1\AppData\Local\Temp\ccI3TRm9.s:23004  .debug_str:00000000000013c5 .LASF1845
C:\Users\SOLDER~1\AppData\Local\Temp\ccI3TRm9.s:24952  .debug_str:0000000000009150 .LASF1846
GAS LISTING C:\Users\SOLDER~1\AppData\Local\Temp\ccI3TRm9.s 			page 127


C:\Users\SOLDER~1\AppData\Local\Temp\ccI3TRm9.s:30466  .debug_str:000000000001f764 .LASF1847
C:\Users\SOLDER~1\AppData\Local\Temp\ccI3TRm9.s:28002  .debug_str:00000000000158fd .LASF1848
C:\Users\SOLDER~1\AppData\Local\Temp\ccI3TRm9.s:28792  .debug_str:0000000000018b83 .LASF1849
C:\Users\SOLDER~1\AppData\Local\Temp\ccI3TRm9.s:24164  .debug_str:0000000000005dc3 .LASF1850
C:\Users\SOLDER~1\AppData\Local\Temp\ccI3TRm9.s:32650  .debug_str:00000000000285f2 .LASF1851
C:\Users\SOLDER~1\AppData\Local\Temp\ccI3TRm9.s:31704  .debug_str:0000000000024773 .LASF1852
C:\Users\SOLDER~1\AppData\Local\Temp\ccI3TRm9.s:32942  .debug_str:00000000000298b0 .LASF1853
C:\Users\SOLDER~1\AppData\Local\Temp\ccI3TRm9.s:28312  .debug_str:0000000000016c65 .LASF1854
C:\Users\SOLDER~1\AppData\Local\Temp\ccI3TRm9.s:31540  .debug_str:0000000000023d25 .LASF1855
C:\Users\SOLDER~1\AppData\Local\Temp\ccI3TRm9.s:29158  .debug_str:000000000001a325 .LASF1856
C:\Users\SOLDER~1\AppData\Local\Temp\ccI3TRm9.s:32182  .debug_str:00000000000266f2 .LASF1857
C:\Users\SOLDER~1\AppData\Local\Temp\ccI3TRm9.s:26906  .debug_str:0000000000011105 .LASF1858
C:\Users\SOLDER~1\AppData\Local\Temp\ccI3TRm9.s:26872  .debug_str:0000000000010ecc .LASF1859
C:\Users\SOLDER~1\AppData\Local\Temp\ccI3TRm9.s:27600  .debug_str:0000000000013e06 .LASF1860
C:\Users\SOLDER~1\AppData\Local\Temp\ccI3TRm9.s:25424  .debug_str:000000000000b05f .LASF1861
C:\Users\SOLDER~1\AppData\Local\Temp\ccI3TRm9.s:31160  .debug_str:0000000000022440 .LASF1862
C:\Users\SOLDER~1\AppData\Local\Temp\ccI3TRm9.s:29420  .debug_str:000000000001b422 .LASF1863
C:\Users\SOLDER~1\AppData\Local\Temp\ccI3TRm9.s:32124  .debug_str:00000000000262f7 .LASF1864
C:\Users\SOLDER~1\AppData\Local\Temp\ccI3TRm9.s:28850  .debug_str:0000000000018f52 .LASF1865
C:\Users\SOLDER~1\AppData\Local\Temp\ccI3TRm9.s:33388  .debug_str:000000000002b565 .LASF1866
C:\Users\SOLDER~1\AppData\Local\Temp\ccI3TRm9.s:32312  .debug_str:0000000000026fba .LASF1867
C:\Users\SOLDER~1\AppData\Local\Temp\ccI3TRm9.s:28458  .debug_str:0000000000017596 .LASF1868
C:\Users\SOLDER~1\AppData\Local\Temp\ccI3TRm9.s:26338  .debug_str:000000000000ec87 .LASF1869
C:\Users\SOLDER~1\AppData\Local\Temp\ccI3TRm9.s:27886  .debug_str:0000000000015173 .LASF1870
C:\Users\SOLDER~1\AppData\Local\Temp\ccI3TRm9.s:23052  .debug_str:00000000000016d5 .LASF1871
C:\Users\SOLDER~1\AppData\Local\Temp\ccI3TRm9.s:32774  .debug_str:0000000000028e22 .LASF1872
C:\Users\SOLDER~1\AppData\Local\Temp\ccI3TRm9.s:31708  .debug_str:00000000000247c5 .LASF1873
C:\Users\SOLDER~1\AppData\Local\Temp\ccI3TRm9.s:31554  .debug_str:0000000000023e1b .LASF1874
C:\Users\SOLDER~1\AppData\Local\Temp\ccI3TRm9.s:33606  .debug_str:000000000002c395 .LASF1875
C:\Users\SOLDER~1\AppData\Local\Temp\ccI3TRm9.s:31096  .debug_str:0000000000022015 .LASF1876
C:\Users\SOLDER~1\AppData\Local\Temp\ccI3TRm9.s:29818  .debug_str:000000000001ccd0 .LASF1877
C:\Users\SOLDER~1\AppData\Local\Temp\ccI3TRm9.s:32872  .debug_str:000000000002948b .LASF1878
C:\Users\SOLDER~1\AppData\Local\Temp\ccI3TRm9.s:31506  .debug_str:0000000000023adf .LASF1879
C:\Users\SOLDER~1\AppData\Local\Temp\ccI3TRm9.s:24182  .debug_str:0000000000005eda .LASF1880
C:\Users\SOLDER~1\AppData\Local\Temp\ccI3TRm9.s:24960  .debug_str:00000000000091d6 .LASF1881
C:\Users\SOLDER~1\AppData\Local\Temp\ccI3TRm9.s:32076  .debug_str:0000000000025f8d .LASF1882
C:\Users\SOLDER~1\AppData\Local\Temp\ccI3TRm9.s:28892  .debug_str:0000000000019223 .LASF1883
C:\Users\SOLDER~1\AppData\Local\Temp\ccI3TRm9.s:22966  .debug_str:0000000000001165 .LASF1884
C:\Users\SOLDER~1\AppData\Local\Temp\ccI3TRm9.s:22816  .debug_str:000000000000075f .LASF1885
C:\Users\SOLDER~1\AppData\Local\Temp\ccI3TRm9.s:24486  .debug_str:0000000000007318 .LASF1886
C:\Users\SOLDER~1\AppData\Local\Temp\ccI3TRm9.s:24194  .debug_str:0000000000005f9e .LASF1887
C:\Users\SOLDER~1\AppData\Local\Temp\ccI3TRm9.s:30320  .debug_str:000000000001edcf .LASF1888
C:\Users\SOLDER~1\AppData\Local\Temp\ccI3TRm9.s:24826  .debug_str:00000000000088e3 .LASF1889
C:\Users\SOLDER~1\AppData\Local\Temp\ccI3TRm9.s:31188  .debug_str:00000000000225f4 .LASF1890
C:\Users\SOLDER~1\AppData\Local\Temp\ccI3TRm9.s:31154  .debug_str:00000000000223cf .LASF1891
C:\Users\SOLDER~1\AppData\Local\Temp\ccI3TRm9.s:31794  .debug_str:0000000000024d88 .LASF1892
C:\Users\SOLDER~1\AppData\Local\Temp\ccI3TRm9.s:27252  .debug_str:00000000000126fb .LASF1893
C:\Users\SOLDER~1\AppData\Local\Temp\ccI3TRm9.s:23800  .debug_str:00000000000046b0 .LASF1894
C:\Users\SOLDER~1\AppData\Local\Temp\ccI3TRm9.s:33784  .debug_str:000000000002cf3e .LASF1895
C:\Users\SOLDER~1\AppData\Local\Temp\ccI3TRm9.s:24766  .debug_str:0000000000008533 .LASF1896
C:\Users\SOLDER~1\AppData\Local\Temp\ccI3TRm9.s:25016  .debug_str:000000000000959e .LASF1897
C:\Users\SOLDER~1\AppData\Local\Temp\ccI3TRm9.s:29486  .debug_str:000000000001b7d0 .LASF1898
C:\Users\SOLDER~1\AppData\Local\Temp\ccI3TRm9.s:28568  .debug_str:0000000000017cd0 .LASF1899
C:\Users\SOLDER~1\AppData\Local\Temp\ccI3TRm9.s:24640  .debug_str:0000000000007cf0 .LASF1900
C:\Users\SOLDER~1\AppData\Local\Temp\ccI3TRm9.s:34314  .debug_str:000000000002f10b .LASF1901
C:\Users\SOLDER~1\AppData\Local\Temp\ccI3TRm9.s:24064  .debug_str:00000000000056e5 .LASF1902
C:\Users\SOLDER~1\AppData\Local\Temp\ccI3TRm9.s:33894  .debug_str:000000000002d60f .LASF1903
GAS LISTING C:\Users\SOLDER~1\AppData\Local\Temp\ccI3TRm9.s 			page 128


C:\Users\SOLDER~1\AppData\Local\Temp\ccI3TRm9.s:28998  .debug_str:0000000000019932 .LASF1904
C:\Users\SOLDER~1\AppData\Local\Temp\ccI3TRm9.s:30570  .debug_str:000000000001fe75 .LASF1905
C:\Users\SOLDER~1\AppData\Local\Temp\ccI3TRm9.s:27820  .debug_str:0000000000014cf5 .LASF1906
C:\Users\SOLDER~1\AppData\Local\Temp\ccI3TRm9.s:29768  .debug_str:000000000001c973 .LASF1907
C:\Users\SOLDER~1\AppData\Local\Temp\ccI3TRm9.s:23086  .debug_str:00000000000018e2 .LASF1908
C:\Users\SOLDER~1\AppData\Local\Temp\ccI3TRm9.s:32862  .debug_str:00000000000293e6 .LASF1909
C:\Users\SOLDER~1\AppData\Local\Temp\ccI3TRm9.s:29098  .debug_str:0000000000019f6c .LASF1910
C:\Users\SOLDER~1\AppData\Local\Temp\ccI3TRm9.s:22868  .debug_str:0000000000000b34 .LASF1911
C:\Users\SOLDER~1\AppData\Local\Temp\ccI3TRm9.s:32096  .debug_str:000000000002610a .LASF1912
C:\Users\SOLDER~1\AppData\Local\Temp\ccI3TRm9.s:32884  .debug_str:0000000000029530 .LASF1913
C:\Users\SOLDER~1\AppData\Local\Temp\ccI3TRm9.s:28334  .debug_str:0000000000016dd4 .LASF1914
C:\Users\SOLDER~1\AppData\Local\Temp\ccI3TRm9.s:33658  .debug_str:000000000002c6d8 .LASF1915
C:\Users\SOLDER~1\AppData\Local\Temp\ccI3TRm9.s:24132  .debug_str:0000000000005bbe .LASF1916
C:\Users\SOLDER~1\AppData\Local\Temp\ccI3TRm9.s:30718  .debug_str:0000000000020799 .LASF1917
C:\Users\SOLDER~1\AppData\Local\Temp\ccI3TRm9.s:29272  .debug_str:000000000001aa5c .LASF1918
C:\Users\SOLDER~1\AppData\Local\Temp\ccI3TRm9.s:32732  .debug_str:0000000000028b64 .LASF1919
C:\Users\SOLDER~1\AppData\Local\Temp\ccI3TRm9.s:22954  .debug_str:00000000000010a2 .LASF1920
C:\Users\SOLDER~1\AppData\Local\Temp\ccI3TRm9.s:29178  .debug_str:000000000001a468 .LASF1921
C:\Users\SOLDER~1\AppData\Local\Temp\ccI3TRm9.s:23732  .debug_str:0000000000004266 .LASF1922
C:\Users\SOLDER~1\AppData\Local\Temp\ccI3TRm9.s:23696  .debug_str:0000000000004012 .LASF1923
C:\Users\SOLDER~1\AppData\Local\Temp\ccI3TRm9.s:31520  .debug_str:0000000000023bc3 .LASF1924
C:\Users\SOLDER~1\AppData\Local\Temp\ccI3TRm9.s:31552  .debug_str:0000000000023df7 .LASF1925
C:\Users\SOLDER~1\AppData\Local\Temp\ccI3TRm9.s:28176  .debug_str:0000000000016408 .LASF1926
C:\Users\SOLDER~1\AppData\Local\Temp\ccI3TRm9.s:26374  .debug_str:000000000000ee88 .LASF1927
C:\Users\SOLDER~1\AppData\Local\Temp\ccI3TRm9.s:29124  .debug_str:000000000001a120 .LASF1928
C:\Users\SOLDER~1\AppData\Local\Temp\ccI3TRm9.s:32850  .debug_str:0000000000029332 .LASF1929
C:\Users\SOLDER~1\AppData\Local\Temp\ccI3TRm9.s:25682  .debug_str:000000000000c0f5 .LASF1930
C:\Users\SOLDER~1\AppData\Local\Temp\ccI3TRm9.s:24738  .debug_str:0000000000008374 .LASF1931
C:\Users\SOLDER~1\AppData\Local\Temp\ccI3TRm9.s:32556  .debug_str:0000000000027fac .LASF1932
C:\Users\SOLDER~1\AppData\Local\Temp\ccI3TRm9.s:26136  .debug_str:000000000000df40 .LASF1933
C:\Users\SOLDER~1\AppData\Local\Temp\ccI3TRm9.s:31982  .debug_str:000000000002597e .LASF1934
C:\Users\SOLDER~1\AppData\Local\Temp\ccI3TRm9.s:22712  .debug_str:0000000000000023 .LASF1935
C:\Users\SOLDER~1\AppData\Local\Temp\ccI3TRm9.s:25164  .debug_str:0000000000009f19 .LASF1936
C:\Users\SOLDER~1\AppData\Local\Temp\ccI3TRm9.s:26778  .debug_str:00000000000108ce .LASF1937
C:\Users\SOLDER~1\AppData\Local\Temp\ccI3TRm9.s:23992  .debug_str:00000000000052a1 .LASF1938
C:\Users\SOLDER~1\AppData\Local\Temp\ccI3TRm9.s:25982  .debug_str:000000000000d54b .LASF1939
C:\Users\SOLDER~1\AppData\Local\Temp\ccI3TRm9.s:30912  .debug_str:0000000000021416 .LASF1940
C:\Users\SOLDER~1\AppData\Local\Temp\ccI3TRm9.s:23228  .debug_str:0000000000002258 .LASF1941
C:\Users\SOLDER~1\AppData\Local\Temp\ccI3TRm9.s:28618  .debug_str:000000000001801e .LASF1942
C:\Users\SOLDER~1\AppData\Local\Temp\ccI3TRm9.s:30764  .debug_str:0000000000020aab .LASF1943
C:\Users\SOLDER~1\AppData\Local\Temp\ccI3TRm9.s:32838  .debug_str:0000000000029265 .LASF1944
C:\Users\SOLDER~1\AppData\Local\Temp\ccI3TRm9.s:29022  .debug_str:0000000000019add .LASF1945
C:\Users\SOLDER~1\AppData\Local\Temp\ccI3TRm9.s:24512  .debug_str:00000000000074eb .LASF1946
C:\Users\SOLDER~1\AppData\Local\Temp\ccI3TRm9.s:33006  .debug_str:0000000000029caf .LASF1947
C:\Users\SOLDER~1\AppData\Local\Temp\ccI3TRm9.s:31958  .debug_str:0000000000025836 .LASF1948
C:\Users\SOLDER~1\AppData\Local\Temp\ccI3TRm9.s:30306  .debug_str:000000000001ecd7 .LASF1949
C:\Users\SOLDER~1\AppData\Local\Temp\ccI3TRm9.s:28654  .debug_str:0000000000018299 .LASF1950
C:\Users\SOLDER~1\AppData\Local\Temp\ccI3TRm9.s:26172  .debug_str:000000000000e180 .LASF1951
C:\Users\SOLDER~1\AppData\Local\Temp\ccI3TRm9.s:27186  .debug_str:00000000000122c9 .LASF1952
C:\Users\SOLDER~1\AppData\Local\Temp\ccI3TRm9.s:33426  .debug_str:000000000002b79b .LASF1953
C:\Users\SOLDER~1\AppData\Local\Temp\ccI3TRm9.s:28120  .debug_str:000000000001604d .LASF1954
C:\Users\SOLDER~1\AppData\Local\Temp\ccI3TRm9.s:29058  .debug_str:0000000000019d23 .LASF1955
C:\Users\SOLDER~1\AppData\Local\Temp\ccI3TRm9.s:28822  .debug_str:0000000000018d62 .LASF1956
C:\Users\SOLDER~1\AppData\Local\Temp\ccI3TRm9.s:24210  .debug_str:00000000000060b6 .LASF1957
C:\Users\SOLDER~1\AppData\Local\Temp\ccI3TRm9.s:32486  .debug_str:0000000000027b32 .LASF1958
C:\Users\SOLDER~1\AppData\Local\Temp\ccI3TRm9.s:23332  .debug_str:0000000000002968 .LASF1959
C:\Users\SOLDER~1\AppData\Local\Temp\ccI3TRm9.s:33372  .debug_str:000000000002b44a .LASF1960
GAS LISTING C:\Users\SOLDER~1\AppData\Local\Temp\ccI3TRm9.s 			page 129


C:\Users\SOLDER~1\AppData\Local\Temp\ccI3TRm9.s:29074  .debug_str:0000000000019e33 .LASF1961
C:\Users\SOLDER~1\AppData\Local\Temp\ccI3TRm9.s:32146  .debug_str:0000000000026470 .LASF1962
C:\Users\SOLDER~1\AppData\Local\Temp\ccI3TRm9.s:32654  .debug_str:0000000000028647 .LASF1963
C:\Users\SOLDER~1\AppData\Local\Temp\ccI3TRm9.s:28808  .debug_str:0000000000018c7b .LASF1964
C:\Users\SOLDER~1\AppData\Local\Temp\ccI3TRm9.s:29200  .debug_str:000000000001a5d9 .LASF1965
C:\Users\SOLDER~1\AppData\Local\Temp\ccI3TRm9.s:28224  .debug_str:0000000000016708 .LASF1966
C:\Users\SOLDER~1\AppData\Local\Temp\ccI3TRm9.s:23376  .debug_str:0000000000002bd6 .LASF1967
C:\Users\SOLDER~1\AppData\Local\Temp\ccI3TRm9.s:33128  .debug_str:000000000002a45b .LASF1968
C:\Users\SOLDER~1\AppData\Local\Temp\ccI3TRm9.s:29126  .debug_str:000000000001a144 .LASF1969
C:\Users\SOLDER~1\AppData\Local\Temp\ccI3TRm9.s:31912  .debug_str:000000000002551e .LASF1970
C:\Users\SOLDER~1\AppData\Local\Temp\ccI3TRm9.s:33940  .debug_str:000000000002d958 .LASF1971
C:\Users\SOLDER~1\AppData\Local\Temp\ccI3TRm9.s:27130  .debug_str:0000000000011f4a .LASF1972
C:\Users\SOLDER~1\AppData\Local\Temp\ccI3TRm9.s:31134  .debug_str:0000000000022285 .LASF1973
C:\Users\SOLDER~1\AppData\Local\Temp\ccI3TRm9.s:33224  .debug_str:000000000002aac8 .LASF1974
C:\Users\SOLDER~1\AppData\Local\Temp\ccI3TRm9.s:27002  .debug_str:00000000000116e4 .LASF1975
C:\Users\SOLDER~1\AppData\Local\Temp\ccI3TRm9.s:24534  .debug_str:0000000000007649 .LASF1976
C:\Users\SOLDER~1\AppData\Local\Temp\ccI3TRm9.s:25188  .debug_str:000000000000a0cd .LASF1977
C:\Users\SOLDER~1\AppData\Local\Temp\ccI3TRm9.s:22864  .debug_str:0000000000000aec .LASF1978
C:\Users\SOLDER~1\AppData\Local\Temp\ccI3TRm9.s:29122  .debug_str:000000000001a0fb .LASF1979
C:\Users\SOLDER~1\AppData\Local\Temp\ccI3TRm9.s:28204  .debug_str:00000000000165c1 .LASF1980
C:\Users\SOLDER~1\AppData\Local\Temp\ccI3TRm9.s:23134  .debug_str:0000000000001c23 .LASF1981
C:\Users\SOLDER~1\AppData\Local\Temp\ccI3TRm9.s:24828  .debug_str:0000000000008907 .LASF1982
C:\Users\SOLDER~1\AppData\Local\Temp\ccI3TRm9.s:25404  .debug_str:000000000000aef6 .LASF1983
C:\Users\SOLDER~1\AppData\Local\Temp\ccI3TRm9.s:31492  .debug_str:00000000000239df .LASF1984
C:\Users\SOLDER~1\AppData\Local\Temp\ccI3TRm9.s:27118  .debug_str:0000000000011e76 .LASF1985
C:\Users\SOLDER~1\AppData\Local\Temp\ccI3TRm9.s:32426  .debug_str:0000000000027745 .LASF1986
C:\Users\SOLDER~1\AppData\Local\Temp\ccI3TRm9.s:32384  .debug_str:0000000000027483 .LASF1987
C:\Users\SOLDER~1\AppData\Local\Temp\ccI3TRm9.s:33152  .debug_str:000000000002a625 .LASF1988
C:\Users\SOLDER~1\AppData\Local\Temp\ccI3TRm9.s:28498  .debug_str:0000000000017861 .LASF1989
C:\Users\SOLDER~1\AppData\Local\Temp\ccI3TRm9.s:25734  .debug_str:000000000000c48b .LASF1990
C:\Users\SOLDER~1\AppData\Local\Temp\ccI3TRm9.s:23234  .debug_str:00000000000022ba .LASF1991
C:\Users\SOLDER~1\AppData\Local\Temp\ccI3TRm9.s:25970  .debug_str:000000000000d487 .LASF1992
C:\Users\SOLDER~1\AppData\Local\Temp\ccI3TRm9.s:31110  .debug_str:0000000000022115 .LASF1993
C:\Users\SOLDER~1\AppData\Local\Temp\ccI3TRm9.s:29806  .debug_str:000000000001cc11 .LASF1994
C:\Users\SOLDER~1\AppData\Local\Temp\ccI3TRm9.s:28898  .debug_str:0000000000019292 .LASF1995
C:\Users\SOLDER~1\AppData\Local\Temp\ccI3TRm9.s:24974  .debug_str:00000000000092e7 .LASF1996
C:\Users\SOLDER~1\AppData\Local\Temp\ccI3TRm9.s:22896  .debug_str:0000000000000d33 .LASF1997
C:\Users\SOLDER~1\AppData\Local\Temp\ccI3TRm9.s:24312  .debug_str:00000000000067b9 .LASF1998
C:\Users\SOLDER~1\AppData\Local\Temp\ccI3TRm9.s:31280  .debug_str:0000000000022bb0 .LASF1999
C:\Users\SOLDER~1\AppData\Local\Temp\ccI3TRm9.s:29312  .debug_str:000000000001ad10 .LASF2000
C:\Users\SOLDER~1\AppData\Local\Temp\ccI3TRm9.s:30874  .debug_str:00000000000211ce .LASF2001
C:\Users\SOLDER~1\AppData\Local\Temp\ccI3TRm9.s:28070  .debug_str:0000000000015d32 .LASF2002
C:\Users\SOLDER~1\AppData\Local\Temp\ccI3TRm9.s:30010  .debug_str:000000000001d9bc .LASF2003
C:\Users\SOLDER~1\AppData\Local\Temp\ccI3TRm9.s:23326  .debug_str:00000000000028ff .LASF2004
C:\Users\SOLDER~1\AppData\Local\Temp\ccI3TRm9.s:27372  .debug_str:0000000000012eb4 .LASF2005
C:\Users\SOLDER~1\AppData\Local\Temp\ccI3TRm9.s:22932  .debug_str:0000000000000f3e .LASF2006
C:\Users\SOLDER~1\AppData\Local\Temp\ccI3TRm9.s:23178  .debug_str:0000000000001f0c .LASF2007
C:\Users\SOLDER~1\AppData\Local\Temp\ccI3TRm9.s:32450  .debug_str:00000000000278cb .LASF2008
C:\Users\SOLDER~1\AppData\Local\Temp\ccI3TRm9.s:33158  .debug_str:000000000002a690 .LASF2009
C:\Users\SOLDER~1\AppData\Local\Temp\ccI3TRm9.s:25884  .debug_str:000000000000cee6 .LASF2010
C:\Users\SOLDER~1\AppData\Local\Temp\ccI3TRm9.s:25296  .debug_str:000000000000a821 .LASF2011
C:\Users\SOLDER~1\AppData\Local\Temp\ccI3TRm9.s:24382  .debug_str:0000000000006c40 .LASF2012
C:\Users\SOLDER~1\AppData\Local\Temp\ccI3TRm9.s:24652  .debug_str:0000000000007dac .LASF2013
C:\Users\SOLDER~1\AppData\Local\Temp\ccI3TRm9.s:32752  .debug_str:0000000000028cbf .LASF2014
C:\Users\SOLDER~1\AppData\Local\Temp\ccI3TRm9.s:29732  .debug_str:000000000001c735 .LASF2015
C:\Users\SOLDER~1\AppData\Local\Temp\ccI3TRm9.s:24140  .debug_str:0000000000005c50 .LASF2016
C:\Users\SOLDER~1\AppData\Local\Temp\ccI3TRm9.s:30374  .debug_str:000000000001f150 .LASF2017
GAS LISTING C:\Users\SOLDER~1\AppData\Local\Temp\ccI3TRm9.s 			page 130


C:\Users\SOLDER~1\AppData\Local\Temp\ccI3TRm9.s:25054  .debug_str:0000000000009808 .LASF2018
C:\Users\SOLDER~1\AppData\Local\Temp\ccI3TRm9.s:24926  .debug_str:0000000000008f77 .LASF2019
C:\Users\SOLDER~1\AppData\Local\Temp\ccI3TRm9.s:25654  .debug_str:000000000000bf5a .LASF2020
C:\Users\SOLDER~1\AppData\Local\Temp\ccI3TRm9.s:32812  .debug_str:00000000000290b0 .LASF2021
C:\Users\SOLDER~1\AppData\Local\Temp\ccI3TRm9.s:29356  .debug_str:000000000001afc6 .LASF2022
C:\Users\SOLDER~1\AppData\Local\Temp\ccI3TRm9.s:27612  .debug_str:0000000000013ed4 .LASF2023
C:\Users\SOLDER~1\AppData\Local\Temp\ccI3TRm9.s:33800  .debug_str:000000000002d03f .LASF2024
C:\Users\SOLDER~1\AppData\Local\Temp\ccI3TRm9.s:34216  .debug_str:000000000002eaea .LASF2025
C:\Users\SOLDER~1\AppData\Local\Temp\ccI3TRm9.s:26500  .debug_str:000000000000f678 .LASF2026
C:\Users\SOLDER~1\AppData\Local\Temp\ccI3TRm9.s:25068  .debug_str:00000000000098ed .LASF2027
C:\Users\SOLDER~1\AppData\Local\Temp\ccI3TRm9.s:32900  .debug_str:0000000000029635 .LASF2028
C:\Users\SOLDER~1\AppData\Local\Temp\ccI3TRm9.s:30788  .debug_str:0000000000020c3a .LASF2029
C:\Users\SOLDER~1\AppData\Local\Temp\ccI3TRm9.s:32226  .debug_str:00000000000269dd .LASF2030
C:\Users\SOLDER~1\AppData\Local\Temp\ccI3TRm9.s:27538  .debug_str:000000000001399f .LASF2031
C:\Users\SOLDER~1\AppData\Local\Temp\ccI3TRm9.s:25416  .debug_str:000000000000afe4 .LASF2032
C:\Users\SOLDER~1\AppData\Local\Temp\ccI3TRm9.s:27104  .debug_str:0000000000011d95 .LASF2033
C:\Users\SOLDER~1\AppData\Local\Temp\ccI3TRm9.s:24244  .debug_str:000000000000631e .LASF2034
C:\Users\SOLDER~1\AppData\Local\Temp\ccI3TRm9.s:26230  .debug_str:000000000000e5a2 .LASF2035
C:\Users\SOLDER~1\AppData\Local\Temp\ccI3TRm9.s:33840  .debug_str:000000000002d2c4 .LASF2036
C:\Users\SOLDER~1\AppData\Local\Temp\ccI3TRm9.s:33292  .debug_str:000000000002af55 .LASF2037
C:\Users\SOLDER~1\AppData\Local\Temp\ccI3TRm9.s:25034  .debug_str:00000000000096dd .LASF2038
C:\Users\SOLDER~1\AppData\Local\Temp\ccI3TRm9.s:31094  .debug_str:0000000000021ff0 .LASF2039
C:\Users\SOLDER~1\AppData\Local\Temp\ccI3TRm9.s:28606  .debug_str:0000000000017f46 .LASF2040
C:\Users\SOLDER~1\AppData\Local\Temp\ccI3TRm9.s:29336  .debug_str:000000000001ae7a .LASF2041
C:\Users\SOLDER~1\AppData\Local\Temp\ccI3TRm9.s:28020  .debug_str:0000000000015a2b .LASF2042
C:\Users\SOLDER~1\AppData\Local\Temp\ccI3TRm9.s:33250  .debug_str:000000000002ac97 .LASF2043
C:\Users\SOLDER~1\AppData\Local\Temp\ccI3TRm9.s:32302  .debug_str:0000000000026ef1 .LASF2044
C:\Users\SOLDER~1\AppData\Local\Temp\ccI3TRm9.s:27270  .debug_str:00000000000127ef .LASF2045
C:\Users\SOLDER~1\AppData\Local\Temp\ccI3TRm9.s:28976  .debug_str:00000000000197a8 .LASF2046
C:\Users\SOLDER~1\AppData\Local\Temp\ccI3TRm9.s:25004  .debug_str:00000000000094e3 .LASF2047
C:\Users\SOLDER~1\AppData\Local\Temp\ccI3TRm9.s:31100  .debug_str:000000000002205c .LASF2048
C:\Users\SOLDER~1\AppData\Local\Temp\ccI3TRm9.s:25622  .debug_str:000000000000bd29 .LASF2049
C:\Users\SOLDER~1\AppData\Local\Temp\ccI3TRm9.s:32014  .debug_str:0000000000025bad .LASF2050
C:\Users\SOLDER~1\AppData\Local\Temp\ccI3TRm9.s:30656  .debug_str:00000000000203a1 .LASF2051
C:\Users\SOLDER~1\AppData\Local\Temp\ccI3TRm9.s:32632  .debug_str:0000000000028492 .LASF2052
C:\Users\SOLDER~1\AppData\Local\Temp\ccI3TRm9.s:28086  .debug_str:0000000000015e30 .LASF2053
C:\Users\SOLDER~1\AppData\Local\Temp\ccI3TRm9.s:33936  .debug_str:000000000002d911 .LASF2054
C:\Users\SOLDER~1\AppData\Local\Temp\ccI3TRm9.s:22850  .debug_str:00000000000009e6 .LASF2055
C:\Users\SOLDER~1\AppData\Local\Temp\ccI3TRm9.s:25574  .debug_str:000000000000ba05 .LASF2056
C:\Users\SOLDER~1\AppData\Local\Temp\ccI3TRm9.s:31998  .debug_str:0000000000025ab2 .LASF2057
C:\Users\SOLDER~1\AppData\Local\Temp\ccI3TRm9.s:24862  .debug_str:0000000000008b49 .LASF2058
C:\Users\SOLDER~1\AppData\Local\Temp\ccI3TRm9.s:23890  .debug_str:0000000000004c74 .LASF2059
C:\Users\SOLDER~1\AppData\Local\Temp\ccI3TRm9.s:31702  .debug_str:000000000002474d .LASF2060
C:\Users\SOLDER~1\AppData\Local\Temp\ccI3TRm9.s:34054  .debug_str:000000000002e0bb .LASF2061
C:\Users\SOLDER~1\AppData\Local\Temp\ccI3TRm9.s:31046  .debug_str:0000000000021cef .LASF2062
C:\Users\SOLDER~1\AppData\Local\Temp\ccI3TRm9.s:26348  .debug_str:000000000000ed1c .LASF2063
C:\Users\SOLDER~1\AppData\Local\Temp\ccI3TRm9.s:33758  .debug_str:000000000002cd8e .LASF2064
C:\Users\SOLDER~1\AppData\Local\Temp\ccI3TRm9.s:25924  .debug_str:000000000000d17f .LASF2065
C:\Users\SOLDER~1\AppData\Local\Temp\ccI3TRm9.s:23078  .debug_str:0000000000001839 .LASF2066
C:\Users\SOLDER~1\AppData\Local\Temp\ccI3TRm9.s:25064  .debug_str:00000000000098a2 .LASF2067
C:\Users\SOLDER~1\AppData\Local\Temp\ccI3TRm9.s:24366  .debug_str:0000000000006b60 .LASF2068
C:\Users\SOLDER~1\AppData\Local\Temp\ccI3TRm9.s:34168  .debug_str:000000000002e81b .LASF2069
C:\Users\SOLDER~1\AppData\Local\Temp\ccI3TRm9.s:24452  .debug_str:0000000000007105 .LASF2070
C:\Users\SOLDER~1\AppData\Local\Temp\ccI3TRm9.s:29936  .debug_str:000000000001d488 .LASF2071
C:\Users\SOLDER~1\AppData\Local\Temp\ccI3TRm9.s:27398  .debug_str:0000000000013072 .LASF2072
C:\Users\SOLDER~1\AppData\Local\Temp\ccI3TRm9.s:32292  .debug_str:0000000000026e4b .LASF2073
C:\Users\SOLDER~1\AppData\Local\Temp\ccI3TRm9.s:23570  .debug_str:0000000000003850 .LASF2074
GAS LISTING C:\Users\SOLDER~1\AppData\Local\Temp\ccI3TRm9.s 			page 131


C:\Users\SOLDER~1\AppData\Local\Temp\ccI3TRm9.s:32052  .debug_str:0000000000025df4 .LASF2075
C:\Users\SOLDER~1\AppData\Local\Temp\ccI3TRm9.s:31114  .debug_str:000000000002215f .LASF2076
C:\Users\SOLDER~1\AppData\Local\Temp\ccI3TRm9.s:26098  .debug_str:000000000000dcae .LASF2077
C:\Users\SOLDER~1\AppData\Local\Temp\ccI3TRm9.s:27806  .debug_str:0000000000014bec .LASF2078
C:\Users\SOLDER~1\AppData\Local\Temp\ccI3TRm9.s:29346  .debug_str:000000000001af2f .LASF2079
C:\Users\SOLDER~1\AppData\Local\Temp\ccI3TRm9.s:23722  .debug_str:00000000000041d0 .LASF2080
C:\Users\SOLDER~1\AppData\Local\Temp\ccI3TRm9.s:29950  .debug_str:000000000001d57c .LASF2081
C:\Users\SOLDER~1\AppData\Local\Temp\ccI3TRm9.s:32978  .debug_str:0000000000029ac5 .LASF2082
C:\Users\SOLDER~1\AppData\Local\Temp\ccI3TRm9.s:24528  .debug_str:00000000000075e4 .LASF2083
C:\Users\SOLDER~1\AppData\Local\Temp\ccI3TRm9.s:25230  .debug_str:000000000000a3a5 .LASF2084
C:\Users\SOLDER~1\AppData\Local\Temp\ccI3TRm9.s:28024  .debug_str:0000000000015a59 .LASF2085
C:\Users\SOLDER~1\AppData\Local\Temp\ccI3TRm9.s:27362  .debug_str:0000000000012e1d .LASF2086
C:\Users\SOLDER~1\AppData\Local\Temp\ccI3TRm9.s:30144  .debug_str:000000000001e21e .LASF2087
C:\Users\SOLDER~1\AppData\Local\Temp\ccI3TRm9.s:29896  .debug_str:000000000001d212 .LASF2088
C:\Users\SOLDER~1\AppData\Local\Temp\ccI3TRm9.s:28250  .debug_str:000000000001689a .LASF2089
C:\Users\SOLDER~1\AppData\Local\Temp\ccI3TRm9.s:32794  .debug_str:0000000000028f50 .LASF2090
C:\Users\SOLDER~1\AppData\Local\Temp\ccI3TRm9.s:29746  .debug_str:000000000001c822 .LASF2091
C:\Users\SOLDER~1\AppData\Local\Temp\ccI3TRm9.s:27954  .debug_str:00000000000155a6 .LASF2092
C:\Users\SOLDER~1\AppData\Local\Temp\ccI3TRm9.s:25756  .debug_str:000000000000c5ff .LASF2093
C:\Users\SOLDER~1\AppData\Local\Temp\ccI3TRm9.s:27276  .debug_str:0000000000012868 .LASF2094
C:\Users\SOLDER~1\AppData\Local\Temp\ccI3TRm9.s:34324  .debug_str:000000000002f1ad .LASF2095
C:\Users\SOLDER~1\AppData\Local\Temp\ccI3TRm9.s:32160  .debug_str:000000000002655e .LASF2096
C:\Users\SOLDER~1\AppData\Local\Temp\ccI3TRm9.s:28968  .debug_str:0000000000019717 .LASF2097
C:\Users\SOLDER~1\AppData\Local\Temp\ccI3TRm9.s:30986  .debug_str:000000000002191f .LASF2098
C:\Users\SOLDER~1\AppData\Local\Temp\ccI3TRm9.s:33008  .debug_str:0000000000029cd4 .LASF2099
C:\Users\SOLDER~1\AppData\Local\Temp\ccI3TRm9.s:27406  .debug_str:00000000000130eb .LASF2100
C:\Users\SOLDER~1\AppData\Local\Temp\ccI3TRm9.s:30336  .debug_str:000000000001eeca .LASF2101
C:\Users\SOLDER~1\AppData\Local\Temp\ccI3TRm9.s:32270  .debug_str:0000000000026cf7 .LASF2102
C:\Users\SOLDER~1\AppData\Local\Temp\ccI3TRm9.s:26148  .debug_str:000000000000dff3 .LASF2103
C:\Users\SOLDER~1\AppData\Local\Temp\ccI3TRm9.s:23590  .debug_str:000000000000397c .LASF2104
C:\Users\SOLDER~1\AppData\Local\Temp\ccI3TRm9.s:24364  .debug_str:0000000000006b3a .LASF2105
C:\Users\SOLDER~1\AppData\Local\Temp\ccI3TRm9.s:31476  .debug_str:00000000000238b4 .LASF2106
C:\Users\SOLDER~1\AppData\Local\Temp\ccI3TRm9.s:28306  .debug_str:0000000000016c01 .LASF2107
C:\Users\SOLDER~1\AppData\Local\Temp\ccI3TRm9.s:27344  .debug_str:0000000000012cab .LASF2108
C:\Users\SOLDER~1\AppData\Local\Temp\ccI3TRm9.s:34060  .debug_str:000000000002e126 .LASF2109
C:\Users\SOLDER~1\AppData\Local\Temp\ccI3TRm9.s:32846  .debug_str:00000000000292f1 .LASF2110
C:\Users\SOLDER~1\AppData\Local\Temp\ccI3TRm9.s:33710  .debug_str:000000000002ca93 .LASF2111
C:\Users\SOLDER~1\AppData\Local\Temp\ccI3TRm9.s:28012  .debug_str:00000000000159a7 .LASF2112
C:\Users\SOLDER~1\AppData\Local\Temp\ccI3TRm9.s:34258  .debug_str:000000000002ed82 .LASF2113
C:\Users\SOLDER~1\AppData\Local\Temp\ccI3TRm9.s:28938  .debug_str:000000000001953e .LASF2114
C:\Users\SOLDER~1\AppData\Local\Temp\ccI3TRm9.s:28896  .debug_str:000000000001926d .LASF2115
C:\Users\SOLDER~1\AppData\Local\Temp\ccI3TRm9.s:29596  .debug_str:000000000001be33 .LASF2116
C:\Users\SOLDER~1\AppData\Local\Temp\ccI3TRm9.s:25020  .debug_str:00000000000095f2 .LASF2117
C:\Users\SOLDER~1\AppData\Local\Temp\ccI3TRm9.s:33328  .debug_str:000000000002b15d .LASF2118
C:\Users\SOLDER~1\AppData\Local\Temp\ccI3TRm9.s:31400  .debug_str:00000000000233e5 .LASF2119
C:\Users\SOLDER~1\AppData\Local\Temp\ccI3TRm9.s:34200  .debug_str:000000000002ea0b .LASF2120
C:\Users\SOLDER~1\AppData\Local\Temp\ccI3TRm9.s:24426  .debug_str:0000000000006f20 .LASF2121
C:\Users\SOLDER~1\AppData\Local\Temp\ccI3TRm9.s:29014  .debug_str:0000000000019a63 .LASF2122
C:\Users\SOLDER~1\AppData\Local\Temp\ccI3TRm9.s:28048  .debug_str:0000000000015bf4 .LASF2123
C:\Users\SOLDER~1\AppData\Local\Temp\ccI3TRm9.s:26706  .debug_str:000000000001043e .LASF2124
C:\Users\SOLDER~1\AppData\Local\Temp\ccI3TRm9.s:33706  .debug_str:000000000002ca35 .LASF2125
C:\Users\SOLDER~1\AppData\Local\Temp\ccI3TRm9.s:23472  .debug_str:000000000000321e .LASF2126
C:\Users\SOLDER~1\AppData\Local\Temp\ccI3TRm9.s:30500  .debug_str:000000000001f9b4 .LASF2127
C:\Users\SOLDER~1\AppData\Local\Temp\ccI3TRm9.s:28416  .debug_str:00000000000172b5 .LASF2128
C:\Users\SOLDER~1\AppData\Local\Temp\ccI3TRm9.s:31018  .debug_str:0000000000021b25 .LASF2129
C:\Users\SOLDER~1\AppData\Local\Temp\ccI3TRm9.s:27212  .debug_str:0000000000012477 .LASF2130
C:\Users\SOLDER~1\AppData\Local\Temp\ccI3TRm9.s:25470  .debug_str:000000000000b340 .LASF2131
GAS LISTING C:\Users\SOLDER~1\AppData\Local\Temp\ccI3TRm9.s 			page 132


C:\Users\SOLDER~1\AppData\Local\Temp\ccI3TRm9.s:34274  .debug_str:000000000002ee77 .LASF2132
C:\Users\SOLDER~1\AppData\Local\Temp\ccI3TRm9.s:26538  .debug_str:000000000000f90a .LASF2133
C:\Users\SOLDER~1\AppData\Local\Temp\ccI3TRm9.s:28530  .debug_str:0000000000017a97 .LASF2134
C:\Users\SOLDER~1\AppData\Local\Temp\ccI3TRm9.s:34116  .debug_str:000000000002e4aa .LASF2135
C:\Users\SOLDER~1\AppData\Local\Temp\ccI3TRm9.s:27864  .debug_str:0000000000014ff2 .LASF2136
C:\Users\SOLDER~1\AppData\Local\Temp\ccI3TRm9.s:32284  .debug_str:0000000000026dbd .LASF2137
C:\Users\SOLDER~1\AppData\Local\Temp\ccI3TRm9.s:27730  .debug_str:0000000000014704 .LASF2138
C:\Users\SOLDER~1\AppData\Local\Temp\ccI3TRm9.s:24480  .debug_str:00000000000072ca .LASF2139
C:\Users\SOLDER~1\AppData\Local\Temp\ccI3TRm9.s:23538  .debug_str:000000000000363d .LASF2140
C:\Users\SOLDER~1\AppData\Local\Temp\ccI3TRm9.s:30444  .debug_str:000000000001f5d4 .LASF2141
C:\Users\SOLDER~1\AppData\Local\Temp\ccI3TRm9.s:31790  .debug_str:0000000000024d4f .LASF2142
C:\Users\SOLDER~1\AppData\Local\Temp\ccI3TRm9.s:26204  .debug_str:000000000000e3a7 .LASF2143
C:\Users\SOLDER~1\AppData\Local\Temp\ccI3TRm9.s:32326  .debug_str:00000000000270a7 .LASF2144
C:\Users\SOLDER~1\AppData\Local\Temp\ccI3TRm9.s:26852  .debug_str:0000000000010d9d .LASF2145
C:\Users\SOLDER~1\AppData\Local\Temp\ccI3TRm9.s:33258  .debug_str:000000000002ad19 .LASF2146
C:\Users\SOLDER~1\AppData\Local\Temp\ccI3TRm9.s:33220  .debug_str:000000000002aa89 .LASF2147
C:\Users\SOLDER~1\AppData\Local\Temp\ccI3TRm9.s:33958  .debug_str:000000000002dab2 .LASF2148
C:\Users\SOLDER~1\AppData\Local\Temp\ccI3TRm9.s:30348  .debug_str:000000000001ef9d .LASF2149
C:\Users\SOLDER~1\AppData\Local\Temp\ccI3TRm9.s:25820  .debug_str:000000000000ca7f .LASF2150
C:\Users\SOLDER~1\AppData\Local\Temp\ccI3TRm9.s:24040  .debug_str:000000000000557b .LASF2151
C:\Users\SOLDER~1\AppData\Local\Temp\ccI3TRm9.s:27962  .debug_str:0000000000015630 .LASF2152
C:\Users\SOLDER~1\AppData\Local\Temp\ccI3TRm9.s:32348  .debug_str:000000000002721d .LASF2153
C:\Users\SOLDER~1\AppData\Local\Temp\ccI3TRm9.s:25178  .debug_str:000000000000a015 .LASF2154
C:\Users\SOLDER~1\AppData\Local\Temp\ccI3TRm9.s:24228  .debug_str:0000000000006219 .LASF2155
C:\Users\SOLDER~1\AppData\Local\Temp\ccI3TRm9.s:31954  .debug_str:00000000000257eb .LASF2156
C:\Users\SOLDER~1\AppData\Local\Temp\ccI3TRm9.s:29878  .debug_str:000000000001d0c4 .LASF2157
C:\Users\SOLDER~1\AppData\Local\Temp\ccI3TRm9.s:31376  .debug_str:000000000002324b .LASF2158
C:\Users\SOLDER~1\AppData\Local\Temp\ccI3TRm9.s:26704  .debug_str:0000000000010418 .LASF2159
C:\Users\SOLDER~1\AppData\Local\Temp\ccI3TRm9.s:24598  .debug_str:00000000000079fd .LASF2160
C:\Users\SOLDER~1\AppData\Local\Temp\ccI3TRm9.s:34108  .debug_str:000000000002e42f .LASF2161
C:\Users\SOLDER~1\AppData\Local\Temp\ccI3TRm9.s:23402  .debug_str:0000000000002d9e .LASF2162
C:\Users\SOLDER~1\AppData\Local\Temp\ccI3TRm9.s:25398  .debug_str:000000000000ae87 .LASF2163
C:\Users\SOLDER~1\AppData\Local\Temp\ccI3TRm9.s:33482  .debug_str:000000000002bba2 .LASF2164
C:\Users\SOLDER~1\AppData\Local\Temp\ccI3TRm9.s:22766  .debug_str:00000000000003a2 .LASF2165
C:\Users\SOLDER~1\AppData\Local\Temp\ccI3TRm9.s:24702  .debug_str:0000000000008103 .LASF2166
C:\Users\SOLDER~1\AppData\Local\Temp\ccI3TRm9.s:30200  .debug_str:000000000001e5da .LASF2167
C:\Users\SOLDER~1\AppData\Local\Temp\ccI3TRm9.s:27752  .debug_str:0000000000014885 .LASF2168
C:\Users\SOLDER~1\AppData\Local\Temp\ccI3TRm9.s:28542  .debug_str:0000000000017b4e .LASF2169
C:\Users\SOLDER~1\AppData\Local\Temp\ccI3TRm9.s:23912  .debug_str:0000000000004dde .LASF2170
C:\Users\SOLDER~1\AppData\Local\Temp\ccI3TRm9.s:32392  .debug_str:0000000000027506 .LASF2171
C:\Users\SOLDER~1\AppData\Local\Temp\ccI3TRm9.s:31444  .debug_str:00000000000236a4 .LASF2172
C:\Users\SOLDER~1\AppData\Local\Temp\ccI3TRm9.s:26342  .debug_str:000000000000ecbd .LASF2173
C:\Users\SOLDER~1\AppData\Local\Temp\ccI3TRm9.s:28042  .debug_str:0000000000015b7f .LASF2174
C:\Users\SOLDER~1\AppData\Local\Temp\ccI3TRm9.s:29434  .debug_str:000000000001b4b6 .LASF2175
C:\Users\SOLDER~1\AppData\Local\Temp\ccI3TRm9.s:28690  .debug_str:0000000000018525 .LASF2176
C:\Users\SOLDER~1\AppData\Local\Temp\ccI3TRm9.s:23642  .debug_str:0000000000003cdd .LASF2177
C:\Users\SOLDER~1\AppData\Local\Temp\ccI3TRm9.s:29718  .debug_str:000000000001c658 .LASF2178
C:\Users\SOLDER~1\AppData\Local\Temp\ccI3TRm9.s:23444  .debug_str:0000000000003065 .LASF2179
C:\Users\SOLDER~1\AppData\Local\Temp\ccI3TRm9.s:28814  .debug_str:0000000000018cd7 .LASF2180
C:\Users\SOLDER~1\AppData\Local\Temp\ccI3TRm9.s:25086  .debug_str:0000000000009a17 .LASF2181
C:\Users\SOLDER~1\AppData\Local\Temp\ccI3TRm9.s:26948  .debug_str:0000000000011380 .LASF2182
C:\Users\SOLDER~1\AppData\Local\Temp\ccI3TRm9.s:23280  .debug_str:00000000000025d0 .LASF2183
C:\Users\SOLDER~1\AppData\Local\Temp\ccI3TRm9.s:32260  .debug_str:0000000000026c4b .LASF2184
C:\Users\SOLDER~1\AppData\Local\Temp\ccI3TRm9.s:27648  .debug_str:000000000001414d .LASF2185
C:\Users\SOLDER~1\AppData\Local\Temp\ccI3TRm9.s:25740  .debug_str:000000000000c4e4 .LASF2186
C:\Users\SOLDER~1\AppData\Local\Temp\ccI3TRm9.s:25032  .debug_str:00000000000096ca .LASF2187
C:\Users\SOLDER~1\AppData\Local\Temp\ccI3TRm9.s:30934  .debug_str:0000000000021588 .LASF2188
GAS LISTING C:\Users\SOLDER~1\AppData\Local\Temp\ccI3TRm9.s 			page 133


C:\Users\SOLDER~1\AppData\Local\Temp\ccI3TRm9.s:30704  .debug_str:00000000000206c2 .LASF2189
C:\Users\SOLDER~1\AppData\Local\Temp\ccI3TRm9.s:27586  .debug_str:0000000000013ce4 .LASF2190
C:\Users\SOLDER~1\AppData\Local\Temp\ccI3TRm9.s:26356  .debug_str:000000000000ed95 .LASF2191
C:\Users\SOLDER~1\AppData\Local\Temp\ccI3TRm9.s:27530  .debug_str:000000000001390f .LASF2192
C:\Users\SOLDER~1\AppData\Local\Temp\ccI3TRm9.s:32016  .debug_str:0000000000025bd2 .LASF2193
C:\Users\SOLDER~1\AppData\Local\Temp\ccI3TRm9.s:33360  .debug_str:000000000002b36f .LASF2194
C:\Users\SOLDER~1\AppData\Local\Temp\ccI3TRm9.s:30640  .debug_str:00000000000202b7 .LASF2195
C:\Users\SOLDER~1\AppData\Local\Temp\ccI3TRm9.s:29462  .debug_str:000000000001b63b .LASF2196
C:\Users\SOLDER~1\AppData\Local\Temp\ccI3TRm9.s:26278  .debug_str:000000000000e891 .LASF2197
C:\Users\SOLDER~1\AppData\Local\Temp\ccI3TRm9.s:29822  .debug_str:000000000001cd1a .LASF2198
C:\Users\SOLDER~1\AppData\Local\Temp\ccI3TRm9.s:31968  .debug_str:00000000000258ce .LASF2199
C:\Users\SOLDER~1\AppData\Local\Temp\ccI3TRm9.s:25816  .debug_str:000000000000ca3e .LASF2200
C:\Users\SOLDER~1\AppData\Local\Temp\ccI3TRm9.s:23518  .debug_str:000000000000350f .LASF2201
C:\Users\SOLDER~1\AppData\Local\Temp\ccI3TRm9.s:23926  .debug_str:0000000000004eb0 .LASF2202
C:\Users\SOLDER~1\AppData\Local\Temp\ccI3TRm9.s:32940  .debug_str:000000000002989c .LASF2203
C:\Users\SOLDER~1\AppData\Local\Temp\ccI3TRm9.s:34058  .debug_str:000000000002e105 .LASF2204
C:\Users\SOLDER~1\AppData\Local\Temp\ccI3TRm9.s:28144  .debug_str:00000000000161d2 .LASF2205
C:\Users\SOLDER~1\AppData\Local\Temp\ccI3TRm9.s:23262  .debug_str:00000000000024a0 .LASF2206
C:\Users\SOLDER~1\AppData\Local\Temp\ccI3TRm9.s:23224  .debug_str:000000000000221e .LASF2207
C:\Users\SOLDER~1\AppData\Local\Temp\ccI3TRm9.s:30328  .debug_str:000000000001ee45 .LASF2208
C:\Users\SOLDER~1\AppData\Local\Temp\ccI3TRm9.s:29414  .debug_str:000000000001b3d0 .LASF2209
C:\Users\SOLDER~1\AppData\Local\Temp\ccI3TRm9.s:26848  .debug_str:0000000000010d58 .LASF2210
C:\Users\SOLDER~1\AppData\Local\Temp\ccI3TRm9.s:27102  .debug_str:0000000000011d81 .LASF2211
C:\Users\SOLDER~1\AppData\Local\Temp\ccI3TRm9.s:28462  .debug_str:00000000000175d9 .LASF2212
C:\Users\SOLDER~1\AppData\Local\Temp\ccI3TRm9.s:33688  .debug_str:000000000002c906 .LASF2213
C:\Users\SOLDER~1\AppData\Local\Temp\ccI3TRm9.s:31066  .debug_str:0000000000021e31 .LASF2214
C:\Users\SOLDER~1\AppData\Local\Temp\ccI3TRm9.s:29142  .debug_str:000000000001a250 .LASF2215
C:\Users\SOLDER~1\AppData\Local\Temp\ccI3TRm9.s:28342  .debug_str:0000000000016e57 .LASF2216
C:\Users\SOLDER~1\AppData\Local\Temp\ccI3TRm9.s:23476  .debug_str:000000000000326a .LASF2217
C:\Users\SOLDER~1\AppData\Local\Temp\ccI3TRm9.s:28272  .debug_str:00000000000169fe .LASF2218
C:\Users\SOLDER~1\AppData\Local\Temp\ccI3TRm9.s:32896  .debug_str:000000000002960b .LASF2219
C:\Users\SOLDER~1\AppData\Local\Temp\ccI3TRm9.s:25368  .debug_str:000000000000acc7 .LASF2220
C:\Users\SOLDER~1\AppData\Local\Temp\ccI3TRm9.s:30618  .debug_str:000000000002015e .LASF2221
C:\Users\SOLDER~1\AppData\Local\Temp\ccI3TRm9.s:32528  .debug_str:0000000000027de8 .LASF2222
C:\Users\SOLDER~1\AppData\Local\Temp\ccI3TRm9.s:24314  .debug_str:00000000000067de .LASF2223
C:\Users\SOLDER~1\AppData\Local\Temp\ccI3TRm9.s:25058  .debug_str:0000000000009844 .LASF2224
C:\Users\SOLDER~1\AppData\Local\Temp\ccI3TRm9.s:27260  .debug_str:000000000001276d .LASF2225
C:\Users\SOLDER~1\AppData\Local\Temp\ccI3TRm9.s:27696  .debug_str:000000000001447d .LASF2226
C:\Users\SOLDER~1\AppData\Local\Temp\ccI3TRm9.s:29846  .debug_str:000000000001ceba .LASF2227
C:\Users\SOLDER~1\AppData\Local\Temp\ccI3TRm9.s:33838  .debug_str:000000000002d2a3 .LASF2228
C:\Users\SOLDER~1\AppData\Local\Temp\ccI3TRm9.s:24788  .debug_str:0000000000008696 .LASF2229
C:\Users\SOLDER~1\AppData\Local\Temp\ccI3TRm9.s:30946  .debug_str:0000000000021665 .LASF2230
C:\Users\SOLDER~1\AppData\Local\Temp\ccI3TRm9.s:31846  .debug_str:00000000000250ea .LASF2231
C:\Users\SOLDER~1\AppData\Local\Temp\ccI3TRm9.s:27744  .debug_str:00000000000147ea .LASF2232
C:\Users\SOLDER~1\AppData\Local\Temp\ccI3TRm9.s:24386  .debug_str:0000000000006c7d .LASF2233
C:\Users\SOLDER~1\AppData\Local\Temp\ccI3TRm9.s:27168  .debug_str:0000000000012193 .LASF2234
C:\Users\SOLDER~1\AppData\Local\Temp\ccI3TRm9.s:24006  .debug_str:000000000000537e .LASF2235
C:\Users\SOLDER~1\AppData\Local\Temp\ccI3TRm9.s:33898  .debug_str:000000000002d65e .LASF2236
C:\Users\SOLDER~1\AppData\Local\Temp\ccI3TRm9.s:30668  .debug_str:000000000002046c .LASF2237
C:\Users\SOLDER~1\AppData\Local\Temp\ccI3TRm9.s:33310  .debug_str:000000000002b068 .LASF2238
C:\Users\SOLDER~1\AppData\Local\Temp\ccI3TRm9.s:26036  .debug_str:000000000000d8e2 .LASF2239
C:\Users\SOLDER~1\AppData\Local\Temp\ccI3TRm9.s:27496  .debug_str:00000000000136d2 .LASF2240
C:\Users\SOLDER~1\AppData\Local\Temp\ccI3TRm9.s:23182  .debug_str:0000000000001f43 .LASF2241
C:\Users\SOLDER~1\AppData\Local\Temp\ccI3TRm9.s:32366  .debug_str:000000000002736c .LASF2242
C:\Users\SOLDER~1\AppData\Local\Temp\ccI3TRm9.s:32308  .debug_str:0000000000026f6c .LASF2243
C:\Users\SOLDER~1\AppData\Local\Temp\ccI3TRm9.s:26628  .debug_str:000000000000ff6a .LASF2244
C:\Users\SOLDER~1\AppData\Local\Temp\ccI3TRm9.s:23636  .debug_str:0000000000003c7f .LASF2245
GAS LISTING C:\Users\SOLDER~1\AppData\Local\Temp\ccI3TRm9.s 			page 134


C:\Users\SOLDER~1\AppData\Local\Temp\ccI3TRm9.s:22744  .debug_str:0000000000000211 .LASF2246
C:\Users\SOLDER~1\AppData\Local\Temp\ccI3TRm9.s:28588  .debug_str:0000000000017e37 .LASF2247
C:\Users\SOLDER~1\AppData\Local\Temp\ccI3TRm9.s:24674  .debug_str:0000000000007f32 .LASF2248
C:\Users\SOLDER~1\AppData\Local\Temp\ccI3TRm9.s:27770  .debug_str:00000000000149c0 .LASF2249
C:\Users\SOLDER~1\AppData\Local\Temp\ccI3TRm9.s:25972  .debug_str:000000000000d4ab .LASF2250
C:\Users\SOLDER~1\AppData\Local\Temp\ccI3TRm9.s:25442  .debug_str:000000000000b19b .LASF2251
C:\Users\SOLDER~1\AppData\Local\Temp\ccI3TRm9.s:34032  .debug_str:000000000002df53 .LASF2252
C:\Users\SOLDER~1\AppData\Local\Temp\ccI3TRm9.s:27154  .debug_str:00000000000120d4 .LASF2253
C:\Users\SOLDER~1\AppData\Local\Temp\ccI3TRm9.s:28942  .debug_str:0000000000019585 .LASF2254
C:\Users\SOLDER~1\AppData\Local\Temp\ccI3TRm9.s:28466  .debug_str:0000000000017643 .LASF2255
C:\Users\SOLDER~1\AppData\Local\Temp\ccI3TRm9.s:30960  .debug_str:0000000000021771 .LASF2256
C:\Users\SOLDER~1\AppData\Local\Temp\ccI3TRm9.s:33074  .debug_str:000000000002a115 .LASF2257
C:\Users\SOLDER~1\AppData\Local\Temp\ccI3TRm9.s:25874  .debug_str:000000000000ce45 .LASF2258
C:\Users\SOLDER~1\AppData\Local\Temp\ccI3TRm9.s:23362  .debug_str:0000000000002b26 .LASF2259
C:\Users\SOLDER~1\AppData\Local\Temp\ccI3TRm9.s:31536  .debug_str:0000000000023cd6 .LASF2260
C:\Users\SOLDER~1\AppData\Local\Temp\ccI3TRm9.s:29060  .debug_str:0000000000019d47 .LASF2261
C:\Users\SOLDER~1\AppData\Local\Temp\ccI3TRm9.s:24752  .debug_str:000000000000845c .LASF2262
C:\Users\SOLDER~1\AppData\Local\Temp\ccI3TRm9.s:23966  .debug_str:000000000000510b .LASF2263
C:\Users\SOLDER~1\AppData\Local\Temp\ccI3TRm9.s:30620  .debug_str:0000000000020171 .LASF2264
C:\Users\SOLDER~1\AppData\Local\Temp\ccI3TRm9.s:26972  .debug_str:0000000000011526 .LASF2265
C:\Users\SOLDER~1\AppData\Local\Temp\ccI3TRm9.s:26502  .debug_str:000000000000f69d .LASF2266
C:\Users\SOLDER~1\AppData\Local\Temp\ccI3TRm9.s:29018  .debug_str:0000000000019ab2 .LASF2267
C:\Users\SOLDER~1\AppData\Local\Temp\ccI3TRm9.s:26300  .debug_str:000000000000e9e3 .LASF2268
C:\Users\SOLDER~1\AppData\Local\Temp\ccI3TRm9.s:22956  .debug_str:00000000000010c6 .LASF2269
C:\Users\SOLDER~1\AppData\Local\Temp\ccI3TRm9.s:32548  .debug_str:0000000000027f3b .LASF2270
C:\Users\SOLDER~1\AppData\Local\Temp\ccI3TRm9.s:33308  .debug_str:000000000002b054 .LASF2271
C:\Users\SOLDER~1\AppData\Local\Temp\ccI3TRm9.s:33502  .debug_str:000000000002bcc2 .LASF2272
C:\Users\SOLDER~1\AppData\Local\Temp\ccI3TRm9.s:32570  .debug_str:00000000000280b1 .LASF2273
C:\Users\SOLDER~1\AppData\Local\Temp\ccI3TRm9.s:22824  .debug_str:00000000000007f0 .LASF2274
C:\Users\SOLDER~1\AppData\Local\Temp\ccI3TRm9.s:22904  .debug_str:0000000000000dbf .LASF2275
C:\Users\SOLDER~1\AppData\Local\Temp\ccI3TRm9.s:29366  .debug_str:000000000001b093 .LASF2276
C:\Users\SOLDER~1\AppData\Local\Temp\ccI3TRm9.s:30438  .debug_str:000000000001f589 .LASF2277
C:\Users\SOLDER~1\AppData\Local\Temp\ccI3TRm9.s:24642  .debug_str:0000000000007d15 .LASF2278
C:\Users\SOLDER~1\AppData\Local\Temp\ccI3TRm9.s:34380  .debug_str:000000000002f542 .LASF2279
C:\Users\SOLDER~1\AppData\Local\Temp\ccI3TRm9.s:27254  .debug_str:000000000001271f .LASF2280
C:\Users\SOLDER~1\AppData\Local\Temp\ccI3TRm9.s:30508  .debug_str:000000000001fa40 .LASF2281
C:\Users\SOLDER~1\AppData\Local\Temp\ccI3TRm9.s:33972  .debug_str:000000000002dba3 .LASF2282
C:\Users\SOLDER~1\AppData\Local\Temp\ccI3TRm9.s:24580  .debug_str:00000000000078fb .LASF2283
C:\Users\SOLDER~1\AppData\Local\Temp\ccI3TRm9.s:23320  .debug_str:0000000000002895 .LASF2284
C:\Users\SOLDER~1\AppData\Local\Temp\ccI3TRm9.s:30794  .debug_str:0000000000020ca7 .LASF2285
C:\Users\SOLDER~1\AppData\Local\Temp\ccI3TRm9.s:24540  .debug_str:000000000000769c .LASF2286
C:\Users\SOLDER~1\AppData\Local\Temp\ccI3TRm9.s:28548  .debug_str:0000000000017bbb .LASF2287
C:\Users\SOLDER~1\AppData\Local\Temp\ccI3TRm9.s:27206  .debug_str:0000000000012413 .LASF2288
C:\Users\SOLDER~1\AppData\Local\Temp\ccI3TRm9.s:24668  .debug_str:0000000000007edf .LASF2289
C:\Users\SOLDER~1\AppData\Local\Temp\ccI3TRm9.s:30024  .debug_str:000000000001da8a .LASF2290
C:\Users\SOLDER~1\AppData\Local\Temp\ccI3TRm9.s:30542  .debug_str:000000000001fcb3 .LASF2291
C:\Users\SOLDER~1\AppData\Local\Temp\ccI3TRm9.s:27632  .debug_str:000000000001402e .LASF2292
C:\Users\SOLDER~1\AppData\Local\Temp\ccI3TRm9.s:23738  .debug_str:00000000000042b5 .LASF2293
C:\Users\SOLDER~1\AppData\Local\Temp\ccI3TRm9.s:27892  .debug_str:00000000000151d2 .LASF2294
C:\Users\SOLDER~1\AppData\Local\Temp\ccI3TRm9.s:34346  .debug_str:000000000002f346 .LASF2295
C:\Users\SOLDER~1\AppData\Local\Temp\ccI3TRm9.s:24594  .debug_str:00000000000079c2 .LASF2296
C:\Users\SOLDER~1\AppData\Local\Temp\ccI3TRm9.s:33270  .debug_str:000000000002addf .LASF2297
C:\Users\SOLDER~1\AppData\Local\Temp\ccI3TRm9.s:31440  .debug_str:0000000000023663 .LASF2298
C:\Users\SOLDER~1\AppData\Local\Temp\ccI3TRm9.s:27500  .debug_str:0000000000013712 .LASF2299
C:\Users\SOLDER~1\AppData\Local\Temp\ccI3TRm9.s:30734  .debug_str:000000000002089f .LASF2300
C:\Users\SOLDER~1\AppData\Local\Temp\ccI3TRm9.s:33600  .debug_str:000000000002c351 .LASF2301
C:\Users\SOLDER~1\AppData\Local\Temp\ccI3TRm9.s:26992  .debug_str:000000000001164f .LASF2302
GAS LISTING C:\Users\SOLDER~1\AppData\Local\Temp\ccI3TRm9.s 			page 135


C:\Users\SOLDER~1\AppData\Local\Temp\ccI3TRm9.s:31220  .debug_str:00000000000227f3 .LASF2303
C:\Users\SOLDER~1\AppData\Local\Temp\ccI3TRm9.s:28528  .debug_str:0000000000017a75 .LASF2304
C:\Users\SOLDER~1\AppData\Local\Temp\ccI3TRm9.s:27420  .debug_str:00000000000131d1 .LASF2305
C:\Users\SOLDER~1\AppData\Local\Temp\ccI3TRm9.s:29898  .debug_str:000000000001d237 .LASF2306
C:\Users\SOLDER~1\AppData\Local\Temp\ccI3TRm9.s:33312  .debug_str:000000000002b088 .LASF2307
C:\Users\SOLDER~1\AppData\Local\Temp\ccI3TRm9.s:27034  .debug_str:000000000001193c .LASF2308
C:\Users\SOLDER~1\AppData\Local\Temp\ccI3TRm9.s:27758  .debug_str:00000000000148fc .LASF2309
C:\Users\SOLDER~1\AppData\Local\Temp\ccI3TRm9.s:26376  .debug_str:000000000000eeac .LASF2310
C:\Users\SOLDER~1\AppData\Local\Temp\ccI3TRm9.s:25422  .debug_str:000000000000b04a .LASF2311
C:\Users\SOLDER~1\AppData\Local\Temp\ccI3TRm9.s:33188  .debug_str:000000000002a858 .LASF2312
C:\Users\SOLDER~1\AppData\Local\Temp\ccI3TRm9.s:33332  .debug_str:000000000002b1a4 .LASF2313
C:\Users\SOLDER~1\AppData\Local\Temp\ccI3TRm9.s:25762  .debug_str:000000000000c66d .LASF2314
C:\Users\SOLDER~1\AppData\Local\Temp\ccI3TRm9.s:27458  .debug_str:000000000001343e .LASF2315
C:\Users\SOLDER~1\AppData\Local\Temp\ccI3TRm9.s:27158  .debug_str:0000000000012108 .LASF2316
C:\Users\SOLDER~1\AppData\Local\Temp\ccI3TRm9.s:24614  .debug_str:0000000000007b2a .LASF2317
C:\Users\SOLDER~1\AppData\Local\Temp\ccI3TRm9.s:26964  .debug_str:0000000000011491 .LASF2318
C:\Users\SOLDER~1\AppData\Local\Temp\ccI3TRm9.s:34046  .debug_str:000000000002e03a .LASF2319
C:\Users\SOLDER~1\AppData\Local\Temp\ccI3TRm9.s:28116  .debug_str:0000000000016019 .LASF2320
C:\Users\SOLDER~1\AppData\Local\Temp\ccI3TRm9.s:31234  .debug_str:00000000000228b0 .LASF2321
C:\Users\SOLDER~1\AppData\Local\Temp\ccI3TRm9.s:28564  .debug_str:0000000000017c8b .LASF2322
C:\Users\SOLDER~1\AppData\Local\Temp\ccI3TRm9.s:31622  .debug_str:000000000002422c .LASF2323
C:\Users\SOLDER~1\AppData\Local\Temp\ccI3TRm9.s:31078  .debug_str:0000000000021ef8 .LASF2324
C:\Users\SOLDER~1\AppData\Local\Temp\ccI3TRm9.s:30000  .debug_str:000000000001d913 .LASF2325
C:\Users\SOLDER~1\AppData\Local\Temp\ccI3TRm9.s:24550  .debug_str:000000000000772f .LASF2326
C:\Users\SOLDER~1\AppData\Local\Temp\ccI3TRm9.s:29694  .debug_str:000000000001c49d .LASF2327
C:\Users\SOLDER~1\AppData\Local\Temp\ccI3TRm9.s:25346  .debug_str:000000000000ab5a .LASF2328
C:\Users\SOLDER~1\AppData\Local\Temp\ccI3TRm9.s:25246  .debug_str:000000000000a4ab .LASF2329
C:\Users\SOLDER~1\AppData\Local\Temp\ccI3TRm9.s:24046  .debug_str:00000000000055c4 .LASF2330
C:\Users\SOLDER~1\AppData\Local\Temp\ccI3TRm9.s:23058  .debug_str:0000000000001735 .LASF2331
C:\Users\SOLDER~1\AppData\Local\Temp\ccI3TRm9.s:33524  .debug_str:000000000002be24 .LASF2332
C:\Users\SOLDER~1\AppData\Local\Temp\ccI3TRm9.s:23996  .debug_str:00000000000052d8 .LASF2333
C:\Users\SOLDER~1\AppData\Local\Temp\ccI3TRm9.s:32810  .debug_str:000000000002908e .LASF2334
C:\Users\SOLDER~1\AppData\Local\Temp\ccI3TRm9.s:25646  .debug_str:000000000000bedf .LASF2335
C:\Users\SOLDER~1\AppData\Local\Temp\ccI3TRm9.s:30504  .debug_str:000000000001f9fc .LASF2336
C:\Users\SOLDER~1\AppData\Local\Temp\ccI3TRm9.s:26108  .debug_str:000000000000dd53 .LASF2337
C:\Users\SOLDER~1\AppData\Local\Temp\ccI3TRm9.s:34030  .debug_str:000000000002df30 .LASF2338
C:\Users\SOLDER~1\AppData\Local\Temp\ccI3TRm9.s:25886  .debug_str:000000000000cf0b .LASF2339
C:\Users\SOLDER~1\AppData\Local\Temp\ccI3TRm9.s:30700  .debug_str:0000000000020676 .LASF2340
C:\Users\SOLDER~1\AppData\Local\Temp\ccI3TRm9.s:30582  .debug_str:000000000001ff0f .LASF2341
C:\Users\SOLDER~1\AppData\Local\Temp\ccI3TRm9.s:33616  .debug_str:000000000002c444 .LASF2342
C:\Users\SOLDER~1\AppData\Local\Temp\ccI3TRm9.s:25752  .debug_str:000000000000c5b5 .LASF2343
C:\Users\SOLDER~1\AppData\Local\Temp\ccI3TRm9.s:25408  .debug_str:000000000000af3f .LASF2344
C:\Users\SOLDER~1\AppData\Local\Temp\ccI3TRm9.s:26886  .debug_str:0000000000010fac .LASF2345
C:\Users\SOLDER~1\AppData\Local\Temp\ccI3TRm9.s:26262  .debug_str:000000000000e7a8 .LASF2346
C:\Users\SOLDER~1\AppData\Local\Temp\ccI3TRm9.s:32704  .debug_str:00000000000289a4 .LASF2347
C:\Users\SOLDER~1\AppData\Local\Temp\ccI3TRm9.s:30878  .debug_str:000000000002121d .LASF2348
C:\Users\SOLDER~1\AppData\Local\Temp\ccI3TRm9.s:24686  .debug_str:0000000000007ff7 .LASF2349
C:\Users\SOLDER~1\AppData\Local\Temp\ccI3TRm9.s:29668  .debug_str:000000000001c30f .LASF2350
C:\Users\SOLDER~1\AppData\Local\Temp\ccI3TRm9.s:32898  .debug_str:000000000002961f .LASF2351
C:\Users\SOLDER~1\AppData\Local\Temp\ccI3TRm9.s:31372  .debug_str:0000000000023209 .LASF2352
C:\Users\SOLDER~1\AppData\Local\Temp\ccI3TRm9.s:33702  .debug_str:000000000002c9f3 .LASF2353
C:\Users\SOLDER~1\AppData\Local\Temp\ccI3TRm9.s:33938  .debug_str:000000000002d936 .LASF2354
C:\Users\SOLDER~1\AppData\Local\Temp\ccI3TRm9.s:26114  .debug_str:000000000000dda6 .LASF2355
C:\Users\SOLDER~1\AppData\Local\Temp\ccI3TRm9.s:28880  .debug_str:0000000000019151 .LASF2356
C:\Users\SOLDER~1\AppData\Local\Temp\ccI3TRm9.s:25712  .debug_str:000000000000c2ed .LASF2357
C:\Users\SOLDER~1\AppData\Local\Temp\ccI3TRm9.s:29646  .debug_str:000000000001c17d .LASF2358
C:\Users\SOLDER~1\AppData\Local\Temp\ccI3TRm9.s:26586  .debug_str:000000000000fc74 .LASF2359
GAS LISTING C:\Users\SOLDER~1\AppData\Local\Temp\ccI3TRm9.s 			page 136


C:\Users\SOLDER~1\AppData\Local\Temp\ccI3TRm9.s:30068  .debug_str:000000000001dd67 .LASF2360
C:\Users\SOLDER~1\AppData\Local\Temp\ccI3TRm9.s:30770  .debug_str:0000000000020b19 .LASF2361
C:\Users\SOLDER~1\AppData\Local\Temp\ccI3TRm9.s:26158  .debug_str:000000000000e096 .LASF2362
C:\Users\SOLDER~1\AppData\Local\Temp\ccI3TRm9.s:27428  .debug_str:0000000000013249 .LASF2363
C:\Users\SOLDER~1\AppData\Local\Temp\ccI3TRm9.s:25466  .debug_str:000000000000b309 .LASF2364
C:\Users\SOLDER~1\AppData\Local\Temp\ccI3TRm9.s:33486  .debug_str:000000000002bbda .LASF2365
C:\Users\SOLDER~1\AppData\Local\Temp\ccI3TRm9.s:30690  .debug_str:00000000000205d9 .LASF2366
C:\Users\SOLDER~1\AppData\Local\Temp\ccI3TRm9.s:31950  .debug_str:00000000000257b5 .LASF2367
C:\Users\SOLDER~1\AppData\Local\Temp\ccI3TRm9.s:30786  .debug_str:0000000000020c17 .LASF2368
C:\Users\SOLDER~1\AppData\Local\Temp\ccI3TRm9.s:28854  .debug_str:0000000000018f96 .LASF2369
C:\Users\SOLDER~1\AppData\Local\Temp\ccI3TRm9.s:23316  .debug_str:000000000000281c .LASF2370
C:\Users\SOLDER~1\AppData\Local\Temp\ccI3TRm9.s:26156  .debug_str:000000000000e07c .LASF2371
C:\Users\SOLDER~1\AppData\Local\Temp\ccI3TRm9.s:30304  .debug_str:000000000001ecb4 .LASF2372
C:\Users\SOLDER~1\AppData\Local\Temp\ccI3TRm9.s:23764  .debug_str:0000000000004450 .LASF2373
C:\Users\SOLDER~1\AppData\Local\Temp\ccI3TRm9.s:23592  .debug_str:00000000000039a2 .LASF2374
C:\Users\SOLDER~1\AppData\Local\Temp\ccI3TRm9.s:24230  .debug_str:000000000000623f .LASF2375
C:\Users\SOLDER~1\AppData\Local\Temp\ccI3TRm9.s:29180  .debug_str:000000000001a48c .LASF2376
C:\Users\SOLDER~1\AppData\Local\Temp\ccI3TRm9.s:25264  .debug_str:000000000000a5e5 .LASF2377
C:\Users\SOLDER~1\AppData\Local\Temp\ccI3TRm9.s:23464  .debug_str:00000000000031a3 .LASF2378
C:\Users\SOLDER~1\AppData\Local\Temp\ccI3TRm9.s:33208  .debug_str:000000000002a9a3 .LASF2379
C:\Users\SOLDER~1\AppData\Local\Temp\ccI3TRm9.s:32598  .debug_str:0000000000028250 .LASF2380
C:\Users\SOLDER~1\AppData\Local\Temp\ccI3TRm9.s:22814  .debug_str:0000000000000749 .LASF2381
C:\Users\SOLDER~1\AppData\Local\Temp\ccI3TRm9.s:34338  .debug_str:000000000002f2b5 .LASF2382
C:\Users\SOLDER~1\AppData\Local\Temp\ccI3TRm9.s:23150  .debug_str:0000000000001d25 .LASF2383
C:\Users\SOLDER~1\AppData\Local\Temp\ccI3TRm9.s:25766  .debug_str:000000000000c6c1 .LASF2384
C:\Users\SOLDER~1\AppData\Local\Temp\ccI3TRm9.s:33882  .debug_str:000000000002d555 .LASF2385
C:\Users\SOLDER~1\AppData\Local\Temp\ccI3TRm9.s:33248  .debug_str:000000000002ac75 .LASF2386
C:\Users\SOLDER~1\AppData\Local\Temp\ccI3TRm9.s:33576  .debug_str:000000000002c1a8 .LASF2387
C:\Users\SOLDER~1\AppData\Local\Temp\ccI3TRm9.s:34068  .debug_str:000000000002e1c4 .LASF2388
C:\Users\SOLDER~1\AppData\Local\Temp\ccI3TRm9.s:27926  .debug_str:00000000000153e0 .LASF2389
C:\Users\SOLDER~1\AppData\Local\Temp\ccI3TRm9.s:24380  .debug_str:0000000000006c1f .LASF2390
C:\Users\SOLDER~1\AppData\Local\Temp\ccI3TRm9.s:26914  .debug_str:0000000000011177 .LASF2391
C:\Users\SOLDER~1\AppData\Local\Temp\ccI3TRm9.s:30480  .debug_str:000000000001f85d .LASF2392
C:\Users\SOLDER~1\AppData\Local\Temp\ccI3TRm9.s:24340  .debug_str:00000000000069d1 .LASF2393
C:\Users\SOLDER~1\AppData\Local\Temp\ccI3TRm9.s:29750  .debug_str:000000000001c864 .LASF2394
C:\Users\SOLDER~1\AppData\Local\Temp\ccI3TRm9.s:29480  .debug_str:000000000001b77a .LASF2395
C:\Users\SOLDER~1\AppData\Local\Temp\ccI3TRm9.s:23354  .debug_str:0000000000002ab7 .LASF2396
C:\Users\SOLDER~1\AppData\Local\Temp\ccI3TRm9.s:26190  .debug_str:000000000000e2ae .LASF2397
C:\Users\SOLDER~1\AppData\Local\Temp\ccI3TRm9.s:27542  .debug_str:00000000000139da .LASF2398
C:\Users\SOLDER~1\AppData\Local\Temp\ccI3TRm9.s:31716  .debug_str:0000000000024848 .LASF2399
C:\Users\SOLDER~1\AppData\Local\Temp\ccI3TRm9.s:24842  .debug_str:00000000000089d8 .LASF2400
C:\Users\SOLDER~1\AppData\Local\Temp\ccI3TRm9.s:26402  .debug_str:000000000000f063 .LASF2401
C:\Users\SOLDER~1\AppData\Local\Temp\ccI3TRm9.s:27110  .debug_str:0000000000011df2 .LASF2402
C:\Users\SOLDER~1\AppData\Local\Temp\ccI3TRm9.s:31568  .debug_str:0000000000023eeb .LASF2403
C:\Users\SOLDER~1\AppData\Local\Temp\ccI3TRm9.s:26530  .debug_str:000000000000f879 .LASF2404
C:\Users\SOLDER~1\AppData\Local\Temp\ccI3TRm9.s:25560  .debug_str:000000000000b93c .LASF2405
C:\Users\SOLDER~1\AppData\Local\Temp\ccI3TRm9.s:32030  .debug_str:0000000000025cb3 .LASF2406
C:\Users\SOLDER~1\AppData\Local\Temp\ccI3TRm9.s:29586  .debug_str:000000000001bd91 .LASF2407
C:\Users\SOLDER~1\AppData\Local\Temp\ccI3TRm9.s:27796  .debug_str:0000000000014b5c .LASF2408
C:\Users\SOLDER~1\AppData\Local\Temp\ccI3TRm9.s:29968  .debug_str:000000000001d6eb .LASF2409
C:\Users\SOLDER~1\AppData\Local\Temp\ccI3TRm9.s:23892  .debug_str:0000000000004c9a .LASF2410
C:\Users\SOLDER~1\AppData\Local\Temp\ccI3TRm9.s:24334  .debug_str:0000000000006961 .LASF2411
C:\Users\SOLDER~1\AppData\Local\Temp\ccI3TRm9.s:25454  .debug_str:000000000000b24e .LASF2412
C:\Users\SOLDER~1\AppData\Local\Temp\ccI3TRm9.s:25792  .debug_str:000000000000c8a8 .LASF2413
C:\Users\SOLDER~1\AppData\Local\Temp\ccI3TRm9.s:30858  .debug_str:00000000000210d4 .LASF2414
C:\Users\SOLDER~1\AppData\Local\Temp\ccI3TRm9.s:24482  .debug_str:00000000000072f0 .LASF2415
C:\Users\SOLDER~1\AppData\Local\Temp\ccI3TRm9.s:23748  .debug_str:000000000000434a .LASF2416
GAS LISTING C:\Users\SOLDER~1\AppData\Local\Temp\ccI3TRm9.s 			page 137


C:\Users\SOLDER~1\AppData\Local\Temp\ccI3TRm9.s:29558  .debug_str:000000000001bc58 .LASF2417
C:\Users\SOLDER~1\AppData\Local\Temp\ccI3TRm9.s:26620  .debug_str:000000000000fec6 .LASF2418
C:\Users\SOLDER~1\AppData\Local\Temp\ccI3TRm9.s:29326  .debug_str:000000000001adff .LASF2419
C:\Users\SOLDER~1\AppData\Local\Temp\ccI3TRm9.s:30318  .debug_str:000000000001edae .LASF2420
C:\Users\SOLDER~1\AppData\Local\Temp\ccI3TRm9.s:22920  .debug_str:0000000000000ea8 .LASF2421
C:\Users\SOLDER~1\AppData\Local\Temp\ccI3TRm9.s:23038  .debug_str:00000000000015e8 .LASF2422
C:\Users\SOLDER~1\AppData\Local\Temp\ccI3TRm9.s:23942  .debug_str:0000000000004fa9 .LASF2423
C:\Users\SOLDER~1\AppData\Local\Temp\ccI3TRm9.s:34094  .debug_str:000000000002e358 .LASF2424
C:\Users\SOLDER~1\AppData\Local\Temp\ccI3TRm9.s:25584  .debug_str:000000000000baa1 .LASF2425
C:\Users\SOLDER~1\AppData\Local\Temp\ccI3TRm9.s:27678  .debug_str:0000000000014372 .LASF2426
C:\Users\SOLDER~1\AppData\Local\Temp\ccI3TRm9.s:28506  .debug_str:0000000000017904 .LASF2427
C:\Users\SOLDER~1\AppData\Local\Temp\ccI3TRm9.s:24330  .debug_str:000000000000691d .LASF2428
C:\Users\SOLDER~1\AppData\Local\Temp\ccI3TRm9.s:23040  .debug_str:000000000000160a .LASF2429
C:\Users\SOLDER~1\AppData\Local\Temp\ccI3TRm9.s:27880  .debug_str:0000000000015105 .LASF2430
C:\Users\SOLDER~1\AppData\Local\Temp\ccI3TRm9.s:29984  .debug_str:000000000001d807 .LASF2431
C:\Users\SOLDER~1\AppData\Local\Temp\ccI3TRm9.s:22746  .debug_str:0000000000000232 .LASF2432
C:\Users\SOLDER~1\AppData\Local\Temp\ccI3TRm9.s:22922  .debug_str:0000000000000ec0 .LASF2433
C:\Users\SOLDER~1\AppData\Local\Temp\ccI3TRm9.s:29556  .debug_str:000000000001bc33 .LASF2434
C:\Users\SOLDER~1\AppData\Local\Temp\ccI3TRm9.s:33690  .debug_str:000000000002c919 .LASF2435
C:\Users\SOLDER~1\AppData\Local\Temp\ccI3TRm9.s:23194  .debug_str:0000000000001ff0 .LASF2436
C:\Users\SOLDER~1\AppData\Local\Temp\ccI3TRm9.s:34000  .debug_str:000000000002dd6c .LASF2437
C:\Users\SOLDER~1\AppData\Local\Temp\ccI3TRm9.s:32140  .debug_str:0000000000026409 .LASF2438
C:\Users\SOLDER~1\AppData\Local\Temp\ccI3TRm9.s:33316  .debug_str:000000000002b0c1 .LASF2439
C:\Users\SOLDER~1\AppData\Local\Temp\ccI3TRm9.s:28706  .debug_str:0000000000018632 .LASF2440
C:\Users\SOLDER~1\AppData\Local\Temp\ccI3TRm9.s:25960  .debug_str:000000000000d3ea .LASF2441
C:\Users\SOLDER~1\AppData\Local\Temp\ccI3TRm9.s:28378  .debug_str:0000000000017085 .LASF2442
C:\Users\SOLDER~1\AppData\Local\Temp\ccI3TRm9.s:33642  .debug_str:000000000002c5ef .LASF2443
C:\Users\SOLDER~1\AppData\Local\Temp\ccI3TRm9.s:33088  .debug_str:000000000002a1c2 .LASF2444
C:\Users\SOLDER~1\AppData\Local\Temp\ccI3TRm9.s:25962  .debug_str:000000000000d400 .LASF2445
C:\Users\SOLDER~1\AppData\Local\Temp\ccI3TRm9.s:30098  .debug_str:000000000001df25 .LASF2446
C:\Users\SOLDER~1\AppData\Local\Temp\ccI3TRm9.s:25658  .debug_str:000000000000bfa3 .LASF2447
C:\Users\SOLDER~1\AppData\Local\Temp\ccI3TRm9.s:30896  .debug_str:0000000000021339 .LASF2448
C:\Users\SOLDER~1\AppData\Local\Temp\ccI3TRm9.s:30630  .debug_str:000000000002021b .LASF2449
C:\Users\SOLDER~1\AppData\Local\Temp\ccI3TRm9.s:27874  .debug_str:00000000000150b0 .LASF2450
C:\Users\SOLDER~1\AppData\Local\Temp\ccI3TRm9.s:28232  .debug_str:0000000000016791 .LASF2451
C:\Users\SOLDER~1\AppData\Local\Temp\ccI3TRm9.s:27432  .debug_str:0000000000013287 .LASF2452
C:\Users\SOLDER~1\AppData\Local\Temp\ccI3TRm9.s:31736  .debug_str:000000000002499c .LASF2453
C:\Users\SOLDER~1\AppData\Local\Temp\ccI3TRm9.s:26046  .debug_str:000000000000d971 .LASF2454
C:\Users\SOLDER~1\AppData\Local\Temp\ccI3TRm9.s:33422  .debug_str:000000000002b769 .LASF2455
C:\Users\SOLDER~1\AppData\Local\Temp\ccI3TRm9.s:31932  .debug_str:000000000002565f .LASF2456
C:\Users\SOLDER~1\AppData\Local\Temp\ccI3TRm9.s:26270  .debug_str:000000000000e82f .LASF2457
C:\Users\SOLDER~1\AppData\Local\Temp\ccI3TRm9.s:32782  .debug_str:0000000000028e94 .LASF2458
C:\Users\SOLDER~1\AppData\Local\Temp\ccI3TRm9.s:25966  .debug_str:000000000000d43d .LASF2459
C:\Users\SOLDER~1\AppData\Local\Temp\ccI3TRm9.s:30762  .debug_str:0000000000020a86 .LASF2460
C:\Users\SOLDER~1\AppData\Local\Temp\ccI3TRm9.s:23142  .debug_str:0000000000001cae .LASF2461
C:\Users\SOLDER~1\AppData\Local\Temp\ccI3TRm9.s:32256  .debug_str:0000000000026bf9 .LASF2462
C:\Users\SOLDER~1\AppData\Local\Temp\ccI3TRm9.s:25832  .debug_str:000000000000cb4a .LASF2463
C:\Users\SOLDER~1\AppData\Local\Temp\ccI3TRm9.s:32474  .debug_str:0000000000027a59 .LASF2464
C:\Users\SOLDER~1\AppData\Local\Temp\ccI3TRm9.s:24872  .debug_str:0000000000008bf3 .LASF2465
C:\Users\SOLDER~1\AppData\Local\Temp\ccI3TRm9.s:26090  .debug_str:000000000000dc5c .LASF2466
C:\Users\SOLDER~1\AppData\Local\Temp\ccI3TRm9.s:26542  .debug_str:000000000000f952 .LASF2467
C:\Users\SOLDER~1\AppData\Local\Temp\ccI3TRm9.s:24744  .debug_str:00000000000083c2 .LASF2468
C:\Users\SOLDER~1\AppData\Local\Temp\ccI3TRm9.s:23640  .debug_str:0000000000003cc1 .LASF2469
C:\Users\SOLDER~1\AppData\Local\Temp\ccI3TRm9.s:29740  .debug_str:000000000001c7c7 .LASF2470
C:\Users\SOLDER~1\AppData\Local\Temp\ccI3TRm9.s:32190  .debug_str:0000000000026790 .LASF2471
C:\Users\SOLDER~1\AppData\Local\Temp\ccI3TRm9.s:31194  .debug_str:0000000000022664 .LASF2472
C:\Users\SOLDER~1\AppData\Local\Temp\ccI3TRm9.s:29628  .debug_str:000000000001c04c .LASF2473
GAS LISTING C:\Users\SOLDER~1\AppData\Local\Temp\ccI3TRm9.s 			page 138


C:\Users\SOLDER~1\AppData\Local\Temp\ccI3TRm9.s:27772  .debug_str:00000000000149e1 .LASF2474
C:\Users\SOLDER~1\AppData\Local\Temp\ccI3TRm9.s:33814  .debug_str:000000000002d138 .LASF2475
C:\Users\SOLDER~1\AppData\Local\Temp\ccI3TRm9.s:30150  .debug_str:000000000001e296 .LASF2476
C:\Users\SOLDER~1\AppData\Local\Temp\ccI3TRm9.s:33500  .debug_str:000000000002bcaa .LASF2477
C:\Users\SOLDER~1\AppData\Local\Temp\ccI3TRm9.s:23568  .debug_str:000000000000382e .LASF2478
C:\Users\SOLDER~1\AppData\Local\Temp\ccI3TRm9.s:34084  .debug_str:000000000002e2d0 .LASF2479
C:\Users\SOLDER~1\AppData\Local\Temp\ccI3TRm9.s:30638  .debug_str:0000000000020296 .LASF2480
C:\Users\SOLDER~1\AppData\Local\Temp\ccI3TRm9.s:26040  .debug_str:000000000000d91d .LASF2481
C:\Users\SOLDER~1\AppData\Local\Temp\ccI3TRm9.s:31696  .debug_str:00000000000246f4 .LASF2482
C:\Users\SOLDER~1\AppData\Local\Temp\ccI3TRm9.s:27804  .debug_str:0000000000014bd4 .LASF2483
C:\Users\SOLDER~1\AppData\Local\Temp\ccI3TRm9.s:31004  .debug_str:0000000000021a39 .LASF2484
C:\Users\SOLDER~1\AppData\Local\Temp\ccI3TRm9.s:29416  .debug_str:000000000001b3e4 .LASF2485
C:\Users\SOLDER~1\AppData\Local\Temp\ccI3TRm9.s:24630  .debug_str:0000000000007c3f .LASF2486
C:\Users\SOLDER~1\AppData\Local\Temp\ccI3TRm9.s:32218  .debug_str:000000000002694d .LASF2487
C:\Users\SOLDER~1\AppData\Local\Temp\ccI3TRm9.s:29496  .debug_str:000000000001b866 .LASF2488
C:\Users\SOLDER~1\AppData\Local\Temp\ccI3TRm9.s:28934  .debug_str:0000000000019502 .LASF2489
C:\Users\SOLDER~1\AppData\Local\Temp\ccI3TRm9.s:33738  .debug_str:000000000002cc46 .LASF2490
C:\Users\SOLDER~1\AppData\Local\Temp\ccI3TRm9.s:33730  .debug_str:000000000002cbe0 .LASF2491
C:\Users\SOLDER~1\AppData\Local\Temp\ccI3TRm9.s:29102  .debug_str:0000000000019fa6 .LASF2492
C:\Users\SOLDER~1\AppData\Local\Temp\ccI3TRm9.s:28804  .debug_str:0000000000018c44 .LASF2493
C:\Users\SOLDER~1\AppData\Local\Temp\ccI3TRm9.s:23664  .debug_str:0000000000003e28 .LASF2494
C:\Users\SOLDER~1\AppData\Local\Temp\ccI3TRm9.s:29624  .debug_str:000000000001c012 .LASF2495
C:\Users\SOLDER~1\AppData\Local\Temp\ccI3TRm9.s:29008  .debug_str:00000000000199f3 .LASF2496
C:\Users\SOLDER~1\AppData\Local\Temp\ccI3TRm9.s:30818  .debug_str:0000000000020e30 .LASF2497
C:\Users\SOLDER~1\AppData\Local\Temp\ccI3TRm9.s:29052  .debug_str:0000000000019ccc .LASF2498
C:\Users\SOLDER~1\AppData\Local\Temp\ccI3TRm9.s:32142  .debug_str:000000000002642b .LASF2499
C:\Users\SOLDER~1\AppData\Local\Temp\ccI3TRm9.s:32784  .debug_str:0000000000028eb7 .LASF2500
C:\Users\SOLDER~1\AppData\Local\Temp\ccI3TRm9.s:29146  .debug_str:000000000001a282 .LASF2501
C:\Users\SOLDER~1\AppData\Local\Temp\ccI3TRm9.s:33754  .debug_str:000000000002cd52 .LASF2502
C:\Users\SOLDER~1\AppData\Local\Temp\ccI3TRm9.s:25720  .debug_str:000000000000c388 .LASF2503
C:\Users\SOLDER~1\AppData\Local\Temp\ccI3TRm9.s:28682  .debug_str:0000000000018496 .LASF2504
C:\Users\SOLDER~1\AppData\Local\Temp\ccI3TRm9.s:29884  .debug_str:000000000001d12f .LASF2505
C:\Users\SOLDER~1\AppData\Local\Temp\ccI3TRm9.s:27076  .debug_str:0000000000011bd9 .LASF2506
C:\Users\SOLDER~1\AppData\Local\Temp\ccI3TRm9.s:29492  .debug_str:000000000001b82b .LASF2507
C:\Users\SOLDER~1\AppData\Local\Temp\ccI3TRm9.s:27896  .debug_str:0000000000015210 .LASF2508
C:\Users\SOLDER~1\AppData\Local\Temp\ccI3TRm9.s:33318  .debug_str:000000000002b0dd .LASF2509
C:\Users\SOLDER~1\AppData\Local\Temp\ccI3TRm9.s:24958  .debug_str:00000000000091b5 .LASF2510
C:\Users\SOLDER~1\AppData\Local\Temp\ccI3TRm9.s:22848  .debug_str:00000000000009ce .LASF2511
C:\Users\SOLDER~1\AppData\Local\Temp\ccI3TRm9.s:24292  .debug_str:0000000000006648 .LASF2512
C:\Users\SOLDER~1\AppData\Local\Temp\ccI3TRm9.s:23870  .debug_str:0000000000004b14 .LASF2513
C:\Users\SOLDER~1\AppData\Local\Temp\ccI3TRm9.s:23594  .debug_str:00000000000039c7 .LASF2514
C:\Users\SOLDER~1\AppData\Local\Temp\ccI3TRm9.s:25512  .debug_str:000000000000b5fa .LASF2515
C:\Users\SOLDER~1\AppData\Local\Temp\ccI3TRm9.s:28960  .debug_str:0000000000019697 .LASF2516
C:\Users\SOLDER~1\AppData\Local\Temp\ccI3TRm9.s:24048  .debug_str:00000000000055e5 .LASF2517
C:\Users\SOLDER~1\AppData\Local\Temp\ccI3TRm9.s:26292  .debug_str:000000000000e952 .LASF2518
C:\Users\SOLDER~1\AppData\Local\Temp\ccI3TRm9.s:31888  .debug_str:00000000000253b1 .LASF2519
C:\Users\SOLDER~1\AppData\Local\Temp\ccI3TRm9.s:25008  .debug_str:000000000000951b .LASF2520
C:\Users\SOLDER~1\AppData\Local\Temp\ccI3TRm9.s:33424  .debug_str:000000000002b781 .LASF2521
C:\Users\SOLDER~1\AppData\Local\Temp\ccI3TRm9.s:25798  .debug_str:000000000000c8fb .LASF2522
C:\Users\SOLDER~1\AppData\Local\Temp\ccI3TRm9.s:31654  .debug_str:0000000000024445 .LASF2523
C:\Users\SOLDER~1\AppData\Local\Temp\ccI3TRm9.s:26618  .debug_str:000000000000fea1 .LASF2524
C:\Users\SOLDER~1\AppData\Local\Temp\ccI3TRm9.s:32324  .debug_str:0000000000027090 .LASF2525
C:\Users\SOLDER~1\AppData\Local\Temp\ccI3TRm9.s:23894  .debug_str:0000000000004cbf .LASF2526
C:\Users\SOLDER~1\AppData\Local\Temp\ccI3TRm9.s:23496  .debug_str:00000000000033a6 .LASF2527
C:\Users\SOLDER~1\AppData\Local\Temp\ccI3TRm9.s:31048  .debug_str:0000000000021d15 .LASF2528
C:\Users\SOLDER~1\AppData\Local\Temp\ccI3TRm9.s:28980  .debug_str:00000000000197f5 .LASF2529
C:\Users\SOLDER~1\AppData\Local\Temp\ccI3TRm9.s:23972  .debug_str:0000000000005151 .LASF2530
GAS LISTING C:\Users\SOLDER~1\AppData\Local\Temp\ccI3TRm9.s 			page 139


C:\Users\SOLDER~1\AppData\Local\Temp\ccI3TRm9.s:32860  .debug_str:00000000000293cf .LASF2531
C:\Users\SOLDER~1\AppData\Local\Temp\ccI3TRm9.s:23922  .debug_str:0000000000004e73 .LASF2532
C:\Users\SOLDER~1\AppData\Local\Temp\ccI3TRm9.s:34228  .debug_str:000000000002ebc3 .LASF2533
C:\Users\SOLDER~1\AppData\Local\Temp\ccI3TRm9.s:23100  .debug_str:00000000000019d0 .LASF2534
C:\Users\SOLDER~1\AppData\Local\Temp\ccI3TRm9.s:23772  .debug_str:00000000000044da .LASF2535
C:\Users\SOLDER~1\AppData\Local\Temp\ccI3TRm9.s:29152  .debug_str:000000000001a2ce .LASF2536
C:\Users\SOLDER~1\AppData\Local\Temp\ccI3TRm9.s:30744  .debug_str:0000000000020955 .LASF2537
C:\Users\SOLDER~1\AppData\Local\Temp\ccI3TRm9.s:23420  .debug_str:0000000000002efa .LASF2538
C:\Users\SOLDER~1\AppData\Local\Temp\ccI3TRm9.s:26516  .debug_str:000000000000f7a7 .LASF2539
C:\Users\SOLDER~1\AppData\Local\Temp\ccI3TRm9.s:29464  .debug_str:000000000001b65c .LASF2540
C:\Users\SOLDER~1\AppData\Local\Temp\ccI3TRm9.s:33470  .debug_str:000000000002badb .LASF2541
C:\Users\SOLDER~1\AppData\Local\Temp\ccI3TRm9.s:23658  .debug_str:0000000000003dc4 .LASF2542
C:\Users\SOLDER~1\AppData\Local\Temp\ccI3TRm9.s:29188  .debug_str:000000000001a4fd .LASF2543
C:\Users\SOLDER~1\AppData\Local\Temp\ccI3TRm9.s:27262  .debug_str:0000000000012781 .LASF2544
C:\Users\SOLDER~1\AppData\Local\Temp\ccI3TRm9.s:22928  .debug_str:0000000000000f02 .LASF2545
C:\Users\SOLDER~1\AppData\Local\Temp\ccI3TRm9.s:33592  .debug_str:000000000002c2c8 .LASF2546
C:\Users\SOLDER~1\AppData\Local\Temp\ccI3TRm9.s:24546  .debug_str:00000000000076ef .LASF2547
C:\Users\SOLDER~1\AppData\Local\Temp\ccI3TRm9.s:32770  .debug_str:0000000000028de2 .LASF2548
C:\Users\SOLDER~1\AppData\Local\Temp\ccI3TRm9.s:26162  .debug_str:000000000000e0dc .LASF2549
C:\Users\SOLDER~1\AppData\Local\Temp\ccI3TRm9.s:32108  .debug_str:00000000000261f1 .LASF2550
C:\Users\SOLDER~1\AppData\Local\Temp\ccI3TRm9.s:27720  .debug_str:0000000000014668 .LASF2551
C:\Users\SOLDER~1\AppData\Local\Temp\ccI3TRm9.s:25456  .debug_str:000000000000b26e .LASF2552
C:\Users\SOLDER~1\AppData\Local\Temp\ccI3TRm9.s:29334  .debug_str:000000000001ae63 .LASF2553
C:\Users\SOLDER~1\AppData\Local\Temp\ccI3TRm9.s:25312  .debug_str:000000000000a93e .LASF2554
C:\Users\SOLDER~1\AppData\Local\Temp\ccI3TRm9.s:30846  .debug_str:000000000002100d .LASF2555
C:\Users\SOLDER~1\AppData\Local\Temp\ccI3TRm9.s:24012  .debug_str:00000000000053e4 .LASF2556
C:\Users\SOLDER~1\AppData\Local\Temp\ccI3TRm9.s:29062  .debug_str:0000000000019d5b .LASF2557
C:\Users\SOLDER~1\AppData\Local\Temp\ccI3TRm9.s:29104  .debug_str:0000000000019fc9 .LASF2558
C:\Users\SOLDER~1\AppData\Local\Temp\ccI3TRm9.s:29432  .debug_str:000000000001b49f .LASF2559
C:\Users\SOLDER~1\AppData\Local\Temp\ccI3TRm9.s:25376  .debug_str:000000000000ad40 .LASF2560
C:\Users\SOLDER~1\AppData\Local\Temp\ccI3TRm9.s:30942  .debug_str:000000000002162a .LASF2561
C:\Users\SOLDER~1\AppData\Local\Temp\ccI3TRm9.s:28688  .debug_str:0000000000018500 .LASF2562
C:\Users\SOLDER~1\AppData\Local\Temp\ccI3TRm9.s:32588  .debug_str:00000000000281bf .LASF2563
C:\Users\SOLDER~1\AppData\Local\Temp\ccI3TRm9.s:33820  .debug_str:000000000002d179 .LASF2564
C:\Users\SOLDER~1\AppData\Local\Temp\ccI3TRm9.s:34268  .debug_str:000000000002ee1c .LASF2565
C:\Users\SOLDER~1\AppData\Local\Temp\ccI3TRm9.s:27122  .debug_str:0000000000011ebb .LASF2566
C:\Users\SOLDER~1\AppData\Local\Temp\ccI3TRm9.s:24018  .debug_str:000000000000543d .LASF2567
C:\Users\SOLDER~1\AppData\Local\Temp\ccI3TRm9.s:32002  .debug_str:0000000000025af0 .LASF2568
C:\Users\SOLDER~1\AppData\Local\Temp\ccI3TRm9.s:25662  .debug_str:000000000000bfe0 .LASF2569
C:\Users\SOLDER~1\AppData\Local\Temp\ccI3TRm9.s:25688  .debug_str:000000000000c16a .LASF2570
C:\Users\SOLDER~1\AppData\Local\Temp\ccI3TRm9.s:27284  .debug_str:0000000000012919 .LASF2571
C:\Users\SOLDER~1\AppData\Local\Temp\ccI3TRm9.s:30730  .debug_str:0000000000020856 .LASF2572
C:\Users\SOLDER~1\AppData\Local\Temp\ccI3TRm9.s:30184  .debug_str:000000000001e4f6 .LASF2573
C:\Users\SOLDER~1\AppData\Local\Temp\ccI3TRm9.s:23380  .debug_str:0000000000002c26 .LASF2574
C:\Users\SOLDER~1\AppData\Local\Temp\ccI3TRm9.s:28290  .debug_str:0000000000016b02 .LASF2575
C:\Users\SOLDER~1\AppData\Local\Temp\ccI3TRm9.s:29518  .debug_str:000000000001b9d3 .LASF2576
C:\Users\SOLDER~1\AppData\Local\Temp\ccI3TRm9.s:26322  .debug_str:000000000000eb79 .LASF2577
C:\Users\SOLDER~1\AppData\Local\Temp\ccI3TRm9.s:30190  .debug_str:000000000001e546 .LASF2578
C:\Users\SOLDER~1\AppData\Local\Temp\ccI3TRm9.s:24400  .debug_str:0000000000006d5b .LASF2579
C:\Users\SOLDER~1\AppData\Local\Temp\ccI3TRm9.s:25804  .debug_str:000000000000c953 .LASF2580
C:\Users\SOLDER~1\AppData\Local\Temp\ccI3TRm9.s:34242  .debug_str:000000000002ec81 .LASF2581
C:\Users\SOLDER~1\AppData\Local\Temp\ccI3TRm9.s:30390  .debug_str:000000000001f253 .LASF2582
C:\Users\SOLDER~1\AppData\Local\Temp\ccI3TRm9.s:32254  .debug_str:0000000000026be0 .LASF2583
C:\Users\SOLDER~1\AppData\Local\Temp\ccI3TRm9.s:30996  .debug_str:00000000000219be .LASF2584
C:\Users\SOLDER~1\AppData\Local\Temp\ccI3TRm9.s:30346  .debug_str:000000000001ef84 .LASF2585
C:\Users\SOLDER~1\AppData\Local\Temp\ccI3TRm9.s:26448  .debug_str:000000000000f346 .LASF2586
C:\Users\SOLDER~1\AppData\Local\Temp\ccI3TRm9.s:28444  .debug_str:00000000000174ad .LASF2587
GAS LISTING C:\Users\SOLDER~1\AppData\Local\Temp\ccI3TRm9.s 			page 140


C:\Users\SOLDER~1\AppData\Local\Temp\ccI3TRm9.s:23010  .debug_str:0000000000001435 .LASF2588
C:\Users\SOLDER~1\AppData\Local\Temp\ccI3TRm9.s:26482  .debug_str:000000000000f578 .LASF2589
C:\Users\SOLDER~1\AppData\Local\Temp\ccI3TRm9.s:32962  .debug_str:00000000000299c3 .LASF2590
C:\Users\SOLDER~1\AppData\Local\Temp\ccI3TRm9.s:29296  .debug_str:000000000001ac01 .LASF2591
C:\Users\SOLDER~1\AppData\Local\Temp\ccI3TRm9.s:23954  .debug_str:0000000000005051 .LASF2592
C:\Users\SOLDER~1\AppData\Local\Temp\ccI3TRm9.s:30588  .debug_str:000000000001ff74 .LASF2593
C:\Users\SOLDER~1\AppData\Local\Temp\ccI3TRm9.s:30286  .debug_str:000000000001eb57 .LASF2594
C:\Users\SOLDER~1\AppData\Local\Temp\ccI3TRm9.s:28866  .debug_str:0000000000019055 .LASF2595
C:\Users\SOLDER~1\AppData\Local\Temp\ccI3TRm9.s:23118  .debug_str:0000000000001b0f .LASF2596
C:\Users\SOLDER~1\AppData\Local\Temp\ccI3TRm9.s:27164  .debug_str:0000000000012164 .LASF2597
C:\Users\SOLDER~1\AppData\Local\Temp\ccI3TRm9.s:33822  .debug_str:000000000002d19e .LASF2598
C:\Users\SOLDER~1\AppData\Local\Temp\ccI3TRm9.s:25500  .debug_str:000000000000b52c .LASF2599
C:\Users\SOLDER~1\AppData\Local\Temp\ccI3TRm9.s:29890  .debug_str:000000000001d194 .LASF2600
C:\Users\SOLDER~1\AppData\Local\Temp\ccI3TRm9.s:23726  .debug_str:000000000000420b .LASF2601
C:\Users\SOLDER~1\AppData\Local\Temp\ccI3TRm9.s:25998  .debug_str:000000000000d657 .LASF2602
C:\Users\SOLDER~1\AppData\Local\Temp\ccI3TRm9.s:33836  .debug_str:000000000002d288 .LASF2603
C:\Users\SOLDER~1\AppData\Local\Temp\ccI3TRm9.s:29342  .debug_str:000000000001aee2 .LASF2604
C:\Users\SOLDER~1\AppData\Local\Temp\ccI3TRm9.s:28576  .debug_str:0000000000017d77 .LASF2605
C:\Users\SOLDER~1\AppData\Local\Temp\ccI3TRm9.s:24624  .debug_str:0000000000007bc8 .LASF2606
C:\Users\SOLDER~1\AppData\Local\Temp\ccI3TRm9.s:30396  .debug_str:000000000001f2bd .LASF2607
C:\Users\SOLDER~1\AppData\Local\Temp\ccI3TRm9.s:34290  .debug_str:000000000002ef94 .LASF2608
C:\Users\SOLDER~1\AppData\Local\Temp\ccI3TRm9.s:28762  .debug_str:0000000000018988 .LASF2609
C:\Users\SOLDER~1\AppData\Local\Temp\ccI3TRm9.s:27780  .debug_str:0000000000014a7e .LASF2610
C:\Users\SOLDER~1\AppData\Local\Temp\ccI3TRm9.s:27068  .debug_str:0000000000011b45 .LASF2611
C:\Users\SOLDER~1\AppData\Local\Temp\ccI3TRm9.s:33100  .debug_str:000000000002a27c .LASF2612
C:\Users\SOLDER~1\AppData\Local\Temp\ccI3TRm9.s:26582  .debug_str:000000000000fc39 .LASF2613
C:\Users\SOLDER~1\AppData\Local\Temp\ccI3TRm9.s:23730  .debug_str:0000000000004240 .LASF2614
C:\Users\SOLDER~1\AppData\Local\Temp\ccI3TRm9.s:22790  .debug_str:0000000000000530 .LASF2615
C:\Users\SOLDER~1\AppData\Local\Temp\ccI3TRm9.s:29764  .debug_str:000000000001c92d .LASF2616
C:\Users\SOLDER~1\AppData\Local\Temp\ccI3TRm9.s:32562  .debug_str:0000000000028022 .LASF2617
C:\Users\SOLDER~1\AppData\Local\Temp\ccI3TRm9.s:24268  .debug_str:00000000000064b1 .LASF2618
C:\Users\SOLDER~1\AppData\Local\Temp\ccI3TRm9.s:30626  .debug_str:00000000000201d6 .LASF2619
C:\Users\SOLDER~1\AppData\Local\Temp\ccI3TRm9.s:30684  .debug_str:0000000000020578 .LASF2620
C:\Users\SOLDER~1\AppData\Local\Temp\ccI3TRm9.s:28790  .debug_str:0000000000018b6b .LASF2621
C:\Users\SOLDER~1\AppData\Local\Temp\ccI3TRm9.s:30636  .debug_str:0000000000020270 .LASF2622
C:\Users\SOLDER~1\AppData\Local\Temp\ccI3TRm9.s:25928  .debug_str:000000000000d1ca .LASF2623
C:\Users\SOLDER~1\AppData\Local\Temp\ccI3TRm9.s:31344  .debug_str:000000000002301d .LASF2624
C:\Users\SOLDER~1\AppData\Local\Temp\ccI3TRm9.s:23964  .debug_str:00000000000050f3 .LASF2625
C:\Users\SOLDER~1\AppData\Local\Temp\ccI3TRm9.s:26824  .debug_str:0000000000010bbc .LASF2626
C:\Users\SOLDER~1\AppData\Local\Temp\ccI3TRm9.s:22944  .debug_str:0000000000000fee .LASF2627
C:\Users\SOLDER~1\AppData\Local\Temp\ccI3TRm9.s:23356  .debug_str:0000000000002ad9 .LASF2628
C:\Users\SOLDER~1\AppData\Local\Temp\ccI3TRm9.s:32726  .debug_str:0000000000028b12 .LASF2629
C:\Users\SOLDER~1\AppData\Local\Temp\ccI3TRm9.s:33232  .debug_str:000000000002ab62 .LASF2630
C:\Users\SOLDER~1\AppData\Local\Temp\ccI3TRm9.s:30868  .debug_str:000000000002118d .LASF2631
C:\Users\SOLDER~1\AppData\Local\Temp\ccI3TRm9.s:24222  .debug_str:00000000000061ab .LASF2632
C:\Users\SOLDER~1\AppData\Local\Temp\ccI3TRm9.s:34418  .debug_str:000000000002f77e .LASF2633
C:\Users\SOLDER~1\AppData\Local\Temp\ccI3TRm9.s:26984  .debug_str:00000000000115c2 .LASF2634
C:\Users\SOLDER~1\AppData\Local\Temp\ccI3TRm9.s:26364  .debug_str:000000000000ede6 .LASF2635
C:\Users\SOLDER~1\AppData\Local\Temp\ccI3TRm9.s:31490  .debug_str:00000000000239b8 .LASF2636
C:\Users\SOLDER~1\AppData\Local\Temp\ccI3TRm9.s:32658  .debug_str:000000000002868e .LASF2637
C:\Users\SOLDER~1\AppData\Local\Temp\ccI3TRm9.s:30572  .debug_str:000000000001fe9a .LASF2638
C:\Users\SOLDER~1\AppData\Local\Temp\ccI3TRm9.s:23042  .debug_str:000000000000162f .LASF2639
C:\Users\SOLDER~1\AppData\Local\Temp\ccI3TRm9.s:28534  .debug_str:0000000000017ae2 .LASF2640
C:\Users\SOLDER~1\AppData\Local\Temp\ccI3TRm9.s:33126  .debug_str:000000000002a441 .LASF2641
C:\Users\SOLDER~1\AppData\Local\Temp\ccI3TRm9.s:24502  .debug_str:000000000000743a .LASF2642
C:\Users\SOLDER~1\AppData\Local\Temp\ccI3TRm9.s:31310  .debug_str:0000000000022dbf .LASF2643
C:\Users\SOLDER~1\AppData\Local\Temp\ccI3TRm9.s:26012  .debug_str:000000000000d757 .LASF2644
GAS LISTING C:\Users\SOLDER~1\AppData\Local\Temp\ccI3TRm9.s 			page 141


C:\Users\SOLDER~1\AppData\Local\Temp\ccI3TRm9.s:29678  .debug_str:000000000001c3b9 .LASF2645
C:\Users\SOLDER~1\AppData\Local\Temp\ccI3TRm9.s:28004  .debug_str:0000000000015922 .LASF2646
C:\Users\SOLDER~1\AppData\Local\Temp\ccI3TRm9.s:28040  .debug_str:0000000000015b65 .LASF2647
C:\Users\SOLDER~1\AppData\Local\Temp\ccI3TRm9.s:30904  .debug_str:000000000002139d .LASF2648
C:\Users\SOLDER~1\AppData\Local\Temp\ccI3TRm9.s:26256  .debug_str:000000000000e74d .LASF2649
C:\Users\SOLDER~1\AppData\Local\Temp\ccI3TRm9.s:32596  .debug_str:0000000000028229 .LASF2650
C:\Users\SOLDER~1\AppData\Local\Temp\ccI3TRm9.s:24612  .debug_str:0000000000007b10 .LASF2651
C:\Users\SOLDER~1\AppData\Local\Temp\ccI3TRm9.s:29736  .debug_str:000000000001c77c .LASF2652
C:\Users\SOLDER~1\AppData\Local\Temp\ccI3TRm9.s:25224  .debug_str:000000000000a343 .LASF2653
C:\Users\SOLDER~1\AppData\Local\Temp\ccI3TRm9.s:23324  .debug_str:00000000000028d9 .LASF2654
C:\Users\SOLDER~1\AppData\Local\Temp\ccI3TRm9.s:23304  .debug_str:0000000000002768 .LASF2655
C:\Users\SOLDER~1\AppData\Local\Temp\ccI3TRm9.s:29458  .debug_str:000000000001b5f7 .LASF2656
C:\Users\SOLDER~1\AppData\Local\Temp\ccI3TRm9.s:31414  .debug_str:00000000000234ca .LASF2657
C:\Users\SOLDER~1\AppData\Local\Temp\ccI3TRm9.s:24062  .debug_str:00000000000056bf .LASF2658
C:\Users\SOLDER~1\AppData\Local\Temp\ccI3TRm9.s:31150  .debug_str:00000000000223a2 .LASF2659
C:\Users\SOLDER~1\AppData\Local\Temp\ccI3TRm9.s:30272  .debug_str:000000000001ea66 .LASF2660
C:\Users\SOLDER~1\AppData\Local\Temp\ccI3TRm9.s:29264  .debug_str:000000000001a9eb .LASF2661
C:\Users\SOLDER~1\AppData\Local\Temp\ccI3TRm9.s:30234  .debug_str:000000000001e805 .LASF2662
C:\Users\SOLDER~1\AppData\Local\Temp\ccI3TRm9.s:27318  .debug_str:0000000000012b16 .LASF2663
C:\Users\SOLDER~1\AppData\Local\Temp\ccI3TRm9.s:30938  .debug_str:00000000000215ca .LASF2664
C:\Users\SOLDER~1\AppData\Local\Temp\ccI3TRm9.s:25396  .debug_str:000000000000ae6f .LASF2665
C:\Users\SOLDER~1\AppData\Local\Temp\ccI3TRm9.s:26390  .debug_str:000000000000ef8f .LASF2666
C:\Users\SOLDER~1\AppData\Local\Temp\ccI3TRm9.s:26188  .debug_str:000000000000e296 .LASF2667
C:\Users\SOLDER~1\AppData\Local\Temp\ccI3TRm9.s:22964  .debug_str:000000000000113f .LASF2668
C:\Users\SOLDER~1\AppData\Local\Temp\ccI3TRm9.s:23794  .debug_str:0000000000004649 .LASF2669
C:\Users\SOLDER~1\AppData\Local\Temp\ccI3TRm9.s:31840  .debug_str:000000000002508e .LASF2670
C:\Users\SOLDER~1\AppData\Local\Temp\ccI3TRm9.s:31300  .debug_str:0000000000022d1e .LASF2671
C:\Users\SOLDER~1\AppData\Local\Temp\ccI3TRm9.s:23896  .debug_str:0000000000004cdf .LASF2672
C:\Users\SOLDER~1\AppData\Local\Temp\ccI3TRm9.s:32006  .debug_str:0000000000025b33 .LASF2673
C:\Users\SOLDER~1\AppData\Local\Temp\ccI3TRm9.s:31022  .debug_str:0000000000021b6d .LASF2674
C:\Users\SOLDER~1\AppData\Local\Temp\ccI3TRm9.s:30372  .debug_str:000000000001f136 .LASF2675
C:\Users\SOLDER~1\AppData\Local\Temp\ccI3TRm9.s:29106  .debug_str:0000000000019fee .LASF2676
C:\Users\SOLDER~1\AppData\Local\Temp\ccI3TRm9.s:28736  .debug_str:000000000001880c .LASF2677
C:\Users\SOLDER~1\AppData\Local\Temp\ccI3TRm9.s:28154  .debug_str:0000000000016277 .LASF2678
C:\Users\SOLDER~1\AppData\Local\Temp\ccI3TRm9.s:27046  .debug_str:00000000000119f1 .LASF2679
C:\Users\SOLDER~1\AppData\Local\Temp\ccI3TRm9.s:24232  .debug_str:0000000000006256 .LASF2680
C:\Users\SOLDER~1\AppData\Local\Temp\ccI3TRm9.s:25268  .debug_str:000000000000a62b .LASF2681
C:\Users\SOLDER~1\AppData\Local\Temp\ccI3TRm9.s:33906  .debug_str:000000000002d6da .LASF2682
C:\Users\SOLDER~1\AppData\Local\Temp\ccI3TRm9.s:23612  .debug_str:0000000000003b01 .LASF2683
C:\Users\SOLDER~1\AppData\Local\Temp\ccI3TRm9.s:23656  .debug_str:0000000000003d9d .LASF2684
C:\Users\SOLDER~1\AppData\Local\Temp\ccI3TRm9.s:30310  .debug_str:000000000001ed26 .LASF2685
C:\Users\SOLDER~1\AppData\Local\Temp\ccI3TRm9.s:30586  .debug_str:000000000001ff4d .LASF2686
C:\Users\SOLDER~1\AppData\Local\Temp\ccI3TRm9.s:31900  .debug_str:000000000002545a .LASF2687
C:\Users\SOLDER~1\AppData\Local\Temp\ccI3TRm9.s:28614  .debug_str:0000000000017fde .LASF2688
C:\Users\SOLDER~1\AppData\Local\Temp\ccI3TRm9.s:30262  .debug_str:000000000001e9d6 .LASF2689
C:\Users\SOLDER~1\AppData\Local\Temp\ccI3TRm9.s:30162  .debug_str:000000000001e369 .LASF2690
C:\Users\SOLDER~1\AppData\Local\Temp\ccI3TRm9.s:28642  .debug_str:00000000000181c1 .LASF2691
C:\Users\SOLDER~1\AppData\Local\Temp\ccI3TRm9.s:31402  .debug_str:000000000002340a .LASF2692
C:\Users\SOLDER~1\AppData\Local\Temp\ccI3TRm9.s:24032  .debug_str:0000000000005501 .LASF2693
C:\Users\SOLDER~1\AppData\Local\Temp\ccI3TRm9.s:23212  .debug_str:000000000000213d .LASF2694
C:\Users\SOLDER~1\AppData\Local\Temp\ccI3TRm9.s:33866  .debug_str:000000000002d46c .LASF2695
C:\Users\SOLDER~1\AppData\Local\Temp\ccI3TRm9.s:27534  .debug_str:000000000001395b .LASF2696
C:\Users\SOLDER~1\AppData\Local\Temp\ccI3TRm9.s:27450  .debug_str:00000000000133c7 .LASF2697
C:\Users\SOLDER~1\AppData\Local\Temp\ccI3TRm9.s:23834  .debug_str:00000000000048f3 .LASF2698
C:\Users\SOLDER~1\AppData\Local\Temp\ccI3TRm9.s:29970  .debug_str:000000000001d707 .LASF2699
C:\Users\SOLDER~1\AppData\Local\Temp\ccI3TRm9.s:30260  .debug_str:000000000001e9b0 .LASF2700
C:\Users\SOLDER~1\AppData\Local\Temp\ccI3TRm9.s:28078  .debug_str:0000000000015dbf .LASF2701
GAS LISTING C:\Users\SOLDER~1\AppData\Local\Temp\ccI3TRm9.s 			page 142


C:\Users\SOLDER~1\AppData\Local\Temp\ccI3TRm9.s:30218  .debug_str:000000000001e709 .LASF2702
C:\Users\SOLDER~1\AppData\Local\Temp\ccI3TRm9.s:26120  .debug_str:000000000000de02 .LASF2703
C:\Users\SOLDER~1\AppData\Local\Temp\ccI3TRm9.s:30834  .debug_str:0000000000020f35 .LASF2704
C:\Users\SOLDER~1\AppData\Local\Temp\ccI3TRm9.s:24196  .debug_str:0000000000005fc2 .LASF2705
C:\Users\SOLDER~1\AppData\Local\Temp\ccI3TRm9.s:26274  .debug_str:000000000000e852 .LASF2706
C:\Users\SOLDER~1\AppData\Local\Temp\ccI3TRm9.s:34024  .debug_str:000000000002dedd .LASF2707
C:\Users\SOLDER~1\AppData\Local\Temp\ccI3TRm9.s:27800  .debug_str:0000000000014b90 .LASF2708
C:\Users\SOLDER~1\AppData\Local\Temp\ccI3TRm9.s:32136  .debug_str:00000000000263cc .LASF2709
C:\Users\SOLDER~1\AppData\Local\Temp\ccI3TRm9.s:32796  .debug_str:0000000000028f76 .LASF2710
C:\Users\SOLDER~1\AppData\Local\Temp\ccI3TRm9.s:30230  .debug_str:000000000001e7c2 .LASF2711
C:\Users\SOLDER~1\AppData\Local\Temp\ccI3TRm9.s:23782  .debug_str:0000000000004576 .LASF2712
C:\Users\SOLDER~1\AppData\Local\Temp\ccI3TRm9.s:28598  .debug_str:0000000000017ee3 .LASF2713
C:\Users\SOLDER~1\AppData\Local\Temp\ccI3TRm9.s:30962  .debug_str:0000000000021793 .LASF2714
C:\Users\SOLDER~1\AppData\Local\Temp\ccI3TRm9.s:24930  .debug_str:0000000000008fc3 .LASF2715
C:\Users\SOLDER~1\AppData\Local\Temp\ccI3TRm9.s:23694  .debug_str:0000000000003feb .LASF2716
C:\Users\SOLDER~1\AppData\Local\Temp\ccI3TRm9.s:25134  .debug_str:0000000000009d41 .LASF2717
C:\Users\SOLDER~1\AppData\Local\Temp\ccI3TRm9.s:22870  .debug_str:0000000000000b59 .LASF2718
C:\Users\SOLDER~1\AppData\Local\Temp\ccI3TRm9.s:22970  .debug_str:00000000000011a6 .LASF2719
C:\Users\SOLDER~1\AppData\Local\Temp\ccI3TRm9.s:30688  .debug_str:00000000000205b2 .LASF2720
C:\Users\SOLDER~1\AppData\Local\Temp\ccI3TRm9.s:28714  .debug_str:00000000000186a8 .LASF2721
C:\Users\SOLDER~1\AppData\Local\Temp\ccI3TRm9.s:31498  .debug_str:0000000000023a51 .LASF2722
C:\Users\SOLDER~1\AppData\Local\Temp\ccI3TRm9.s:31748  .debug_str:0000000000024a6e .LASF2723
C:\Users\SOLDER~1\AppData\Local\Temp\ccI3TRm9.s:30020  .debug_str:000000000001da50 .LASF2724
C:\Users\SOLDER~1\AppData\Local\Temp\ccI3TRm9.s:30110  .debug_str:000000000001dff4 .LASF2725
C:\Users\SOLDER~1\AppData\Local\Temp\ccI3TRm9.s:25302  .debug_str:000000000000a88d .LASF2726
C:\Users\SOLDER~1\AppData\Local\Temp\ccI3TRm9.s:28490  .debug_str:00000000000177cc .LASF2727
C:\Users\SOLDER~1\AppData\Local\Temp\ccI3TRm9.s:23198  .debug_str:0000000000002038 .LASF2728
C:\Users\SOLDER~1\AppData\Local\Temp\ccI3TRm9.s:26716  .debug_str:00000000000104e4 .LASF2729
C:\Users\SOLDER~1\AppData\Local\Temp\ccI3TRm9.s:24900  .debug_str:0000000000008d9f .LASF2730
C:\Users\SOLDER~1\AppData\Local\Temp\ccI3TRm9.s:25044  .debug_str:0000000000009788 .LASF2731
C:\Users\SOLDER~1\AppData\Local\Temp\ccI3TRm9.s:33792  .debug_str:000000000002cfb9 .LASF2732
C:\Users\SOLDER~1\AppData\Local\Temp\ccI3TRm9.s:33932  .debug_str:000000000002d8cf .LASF2733
C:\Users\SOLDER~1\AppData\Local\Temp\ccI3TRm9.s:32114  .debug_str:000000000002624f .LASF2734
C:\Users\SOLDER~1\AppData\Local\Temp\ccI3TRm9.s:31952  .debug_str:00000000000257ce .LASF2735
C:\Users\SOLDER~1\AppData\Local\Temp\ccI3TRm9.s:26534  .debug_str:000000000000f8b8 .LASF2736
C:\Users\SOLDER~1\AppData\Local\Temp\ccI3TRm9.s:30030  .debug_str:000000000001daee .LASF2737
C:\Users\SOLDER~1\AppData\Local\Temp\ccI3TRm9.s:32760  .debug_str:0000000000028d44 .LASF2738
C:\Users\SOLDER~1\AppData\Local\Temp\ccI3TRm9.s:28140  .debug_str:000000000001619e .LASF2739
C:\Users\SOLDER~1\AppData\Local\Temp\ccI3TRm9.s:27446  .debug_str:0000000000013375 .LASF2740
C:\Users\SOLDER~1\AppData\Local\Temp\ccI3TRm9.s:24794  .debug_str:00000000000086e2 .LASF2741
C:\Users\SOLDER~1\AppData\Local\Temp\ccI3TRm9.s:23608  .debug_str:0000000000003ab3 .LASF2742
C:\Users\SOLDER~1\AppData\Local\Temp\ccI3TRm9.s:28990  .debug_str:0000000000019896 .LASF2743
C:\Users\SOLDER~1\AppData\Local\Temp\ccI3TRm9.s:28058  .debug_str:0000000000015c80 .LASF2744
C:\Users\SOLDER~1\AppData\Local\Temp\ccI3TRm9.s:34086  .debug_str:000000000002e2e7 .LASF2745
C:\Users\SOLDER~1\AppData\Local\Temp\ccI3TRm9.s:23458  .debug_str:0000000000003155 .LASF2746
C:\Users\SOLDER~1\AppData\Local\Temp\ccI3TRm9.s:32106  .debug_str:00000000000261d4 .LASF2747
C:\Users\SOLDER~1\AppData\Local\Temp\ccI3TRm9.s:31720  .debug_str:0000000000024890 .LASF2748
C:\Users\SOLDER~1\AppData\Local\Temp\ccI3TRm9.s:30204  .debug_str:000000000001e619 .LASF2749
C:\Users\SOLDER~1\AppData\Local\Temp\ccI3TRm9.s:29962  .debug_str:000000000001d67b .LASF2750
C:\Users\SOLDER~1\AppData\Local\Temp\ccI3TRm9.s:28394  .debug_str:0000000000017164 .LASF2751
C:\Users\SOLDER~1\AppData\Local\Temp\ccI3TRm9.s:32700  .debug_str:0000000000028954 .LASF2752
C:\Users\SOLDER~1\AppData\Local\Temp\ccI3TRm9.s:23824  .debug_str:0000000000004853 .LASF2753
C:\Users\SOLDER~1\AppData\Local\Temp\ccI3TRm9.s:29648  .debug_str:000000000001c19f .LASF2754
C:\Users\SOLDER~1\AppData\Local\Temp\ccI3TRm9.s:33922  .debug_str:000000000002d815 .LASF2755
C:\Users\SOLDER~1\AppData\Local\Temp\ccI3TRm9.s:30958  .debug_str:0000000000021745 .LASF2756
C:\Users\SOLDER~1\AppData\Local\Temp\ccI3TRm9.s:32216  .debug_str:000000000002692e .LASF2757
C:\Users\SOLDER~1\AppData\Local\Temp\ccI3TRm9.s:33276  .debug_str:000000000002ae2a .LASF2758
GAS LISTING C:\Users\SOLDER~1\AppData\Local\Temp\ccI3TRm9.s 			page 143


C:\Users\SOLDER~1\AppData\Local\Temp\ccI3TRm9.s:30494  .debug_str:000000000001f951 .LASF2759
C:\Users\SOLDER~1\AppData\Local\Temp\ccI3TRm9.s:29360  .debug_str:000000000001b00f .LASF2760
C:\Users\SOLDER~1\AppData\Local\Temp\ccI3TRm9.s:28852  .debug_str:0000000000018f77 .LASF2761
C:\Users\SOLDER~1\AppData\Local\Temp\ccI3TRm9.s:27274  .debug_str:000000000001283c .LASF2762
C:\Users\SOLDER~1\AppData\Local\Temp\ccI3TRm9.s:27152  .debug_str:00000000000120b5 .LASF2763
C:\Users\SOLDER~1\AppData\Local\Temp\ccI3TRm9.s:28838  .debug_str:0000000000018e5f .LASF2764
C:\Users\SOLDER~1\AppData\Local\Temp\ccI3TRm9.s:25392  .debug_str:000000000000ae30 .LASF2765
C:\Users\SOLDER~1\AppData\Local\Temp\ccI3TRm9.s:23978  .debug_str:00000000000051ab .LASF2766
C:\Users\SOLDER~1\AppData\Local\Temp\ccI3TRm9.s:26150  .debug_str:000000000000e019 .LASF2767
C:\Users\SOLDER~1\AppData\Local\Temp\ccI3TRm9.s:33724  .debug_str:000000000002cb83 .LASF2768
C:\Users\SOLDER~1\AppData\Local\Temp\ccI3TRm9.s:30420  .debug_str:000000000001f455 .LASF2769
C:\Users\SOLDER~1\AppData\Local\Temp\ccI3TRm9.s:23552  .debug_str:0000000000003714 .LASF2770
C:\Users\SOLDER~1\AppData\Local\Temp\ccI3TRm9.s:24144  .debug_str:0000000000005c99 .LASF2771
C:\Users\SOLDER~1\AppData\Local\Temp\ccI3TRm9.s:33910  .debug_str:000000000002d728 .LASF2772
C:\Users\SOLDER~1\AppData\Local\Temp\ccI3TRm9.s:30776  .debug_str:0000000000020b7c .LASF2773
C:\Users\SOLDER~1\AppData\Local\Temp\ccI3TRm9.s:27844  .debug_str:0000000000014eb0 .LASF2774
C:\Users\SOLDER~1\AppData\Local\Temp\ccI3TRm9.s:23974  .debug_str:0000000000005176 .LASF2775
C:\Users\SOLDER~1\AppData\Local\Temp\ccI3TRm9.s:33888  .debug_str:000000000002d5b6 .LASF2776
C:\Users\SOLDER~1\AppData\Local\Temp\ccI3TRm9.s:27042  .debug_str:00000000000119c9 .LASF2777
C:\Users\SOLDER~1\AppData\Local\Temp\ccI3TRm9.s:28386  .debug_str:00000000000170ea .LASF2778
C:\Users\SOLDER~1\AppData\Local\Temp\ccI3TRm9.s:25104  .debug_str:0000000000009b65 .LASF2779
C:\Users\SOLDER~1\AppData\Local\Temp\ccI3TRm9.s:25552  .debug_str:000000000000b8c0 .LASF2780
C:\Users\SOLDER~1\AppData\Local\Temp\ccI3TRm9.s:23164  .debug_str:0000000000001e10 .LASF2781
C:\Users\SOLDER~1\AppData\Local\Temp\ccI3TRm9.s:23008  .debug_str:000000000000140e .LASF2782
C:\Users\SOLDER~1\AppData\Local\Temp\ccI3TRm9.s:32988  .debug_str:0000000000029b71 .LASF2783
C:\Users\SOLDER~1\AppData\Local\Temp\ccI3TRm9.s:23710  .debug_str:00000000000040fc .LASF2784
C:\Users\SOLDER~1\AppData\Local\Temp\ccI3TRm9.s:23742  .debug_str:00000000000042e8 .LASF2785
C:\Users\SOLDER~1\AppData\Local\Temp\ccI3TRm9.s:30866  .debug_str:0000000000021166 .LASF2786
C:\Users\SOLDER~1\AppData\Local\Temp\ccI3TRm9.s:29138  .debug_str:000000000001a211 .LASF2787
C:\Users\SOLDER~1\AppData\Local\Temp\ccI3TRm9.s:27448  .debug_str:00000000000133a0 .LASF2788
C:\Users\SOLDER~1\AppData\Local\Temp\ccI3TRm9.s:27188  .debug_str:00000000000122ed .LASF2789
C:\Users\SOLDER~1\AppData\Local\Temp\ccI3TRm9.s:25578  .debug_str:000000000000ba43 .LASF2790
C:\Users\SOLDER~1\AppData\Local\Temp\ccI3TRm9.s:28352  .debug_str:0000000000016f0d .LASF2791
C:\Users\SOLDER~1\AppData\Local\Temp\ccI3TRm9.s:28338  .debug_str:0000000000016e1b .LASF2792
C:\Users\SOLDER~1\AppData\Local\Temp\ccI3TRm9.s:24672  .debug_str:0000000000007f17 .LASF2793
C:\Users\SOLDER~1\AppData\Local\Temp\ccI3TRm9.s:30966  .debug_str:00000000000217dd .LASF2794
C:\Users\SOLDER~1\AppData\Local\Temp\ccI3TRm9.s:30238  .debug_str:000000000001e84e .LASF2795
C:\Users\SOLDER~1\AppData\Local\Temp\ccI3TRm9.s:27594  .debug_str:0000000000013d6e .LASF2796
C:\Users\SOLDER~1\AppData\Local\Temp\ccI3TRm9.s:23970  .debug_str:0000000000005136 .LASF2797
C:\Users\SOLDER~1\AppData\Local\Temp\ccI3TRm9.s:22794  .debug_str:000000000000056e .LASF2798
C:\Users\SOLDER~1\AppData\Local\Temp\ccI3TRm9.s:31270  .debug_str:0000000000022b12 .LASF2799
C:\Users\SOLDER~1\AppData\Local\Temp\ccI3TRm9.s:30606  .debug_str:000000000002008a .LASF2800
C:\Users\SOLDER~1\AppData\Local\Temp\ccI3TRm9.s:29642  .debug_str:000000000001c140 .LASF2801
C:\Users\SOLDER~1\AppData\Local\Temp\ccI3TRm9.s:28562  .debug_str:0000000000017c63 .LASF2802
C:\Users\SOLDER~1\AppData\Local\Temp\ccI3TRm9.s:27996  .debug_str:0000000000015898 .LASF2803
C:\Users\SOLDER~1\AppData\Local\Temp\ccI3TRm9.s:30026  .debug_str:000000000001daab .LASF2804
C:\Users\SOLDER~1\AppData\Local\Temp\ccI3TRm9.s:26306  .debug_str:000000000000ea4a .LASF2805
C:\Users\SOLDER~1\AppData\Local\Temp\ccI3TRm9.s:25212  .debug_str:000000000000a257 .LASF2806
C:\Users\SOLDER~1\AppData\Local\Temp\ccI3TRm9.s:24568  .debug_str:0000000000007857 .LASF2807
C:\Users\SOLDER~1\AppData\Local\Temp\ccI3TRm9.s:23204  .debug_str:00000000000020ac .LASF2808
C:\Users\SOLDER~1\AppData\Local\Temp\ccI3TRm9.s:22914  .debug_str:0000000000000e43 .LASF2809
C:\Users\SOLDER~1\AppData\Local\Temp\ccI3TRm9.s:24814  .debug_str:0000000000008832 .LASF2810
C:\Users\SOLDER~1\AppData\Local\Temp\ccI3TRm9.s:32970  .debug_str:0000000000029a41 .LASF2811
C:\Users\SOLDER~1\AppData\Local\Temp\ccI3TRm9.s:33796  .debug_str:000000000002d005 .LASF2812
C:\Users\SOLDER~1\AppData\Local\Temp\ccI3TRm9.s:23170  .debug_str:0000000000001e76 .LASF2813
C:\Users\SOLDER~1\AppData\Local\Temp\ccI3TRm9.s:29886  .debug_str:000000000001d147 .LASF2814
C:\Users\SOLDER~1\AppData\Local\Temp\ccI3TRm9.s:30798  .debug_str:0000000000020cf5 .LASF2815
GAS LISTING C:\Users\SOLDER~1\AppData\Local\Temp\ccI3TRm9.s 			page 144


C:\Users\SOLDER~1\AppData\Local\Temp\ccI3TRm9.s:23102  .debug_str:00000000000019f1 .LASF2816
C:\Users\SOLDER~1\AppData\Local\Temp\ccI3TRm9.s:30476  .debug_str:000000000001f815 .LASF2817
C:\Users\SOLDER~1\AppData\Local\Temp\ccI3TRm9.s:30418  .debug_str:000000000001f433 .LASF2818
C:\Users\SOLDER~1\AppData\Local\Temp\ccI3TRm9.s:30728  .debug_str:0000000000020831 .LASF2819
C:\Users\SOLDER~1\AppData\Local\Temp\ccI3TRm9.s:24476  .debug_str:0000000000007282 .LASF2820
C:\Users\SOLDER~1\AppData\Local\Temp\ccI3TRm9.s:31126  .debug_str:0000000000022215 .LASF2821
C:\Users\SOLDER~1\AppData\Local\Temp\ccI3TRm9.s:24684  .debug_str:0000000000007fd2 .LASF2822
C:\Users\SOLDER~1\AppData\Local\Temp\ccI3TRm9.s:23540  .debug_str:0000000000003663 .LASF2823
C:\Users\SOLDER~1\AppData\Local\Temp\ccI3TRm9.s:28932  .debug_str:00000000000194dc .LASF2824
C:\Users\SOLDER~1\AppData\Local\Temp\ccI3TRm9.s:31760  .debug_str:0000000000024b3f .LASF2825
C:\Users\SOLDER~1\AppData\Local\Temp\ccI3TRm9.s:27116  .debug_str:0000000000011e50 .LASF2826
C:\Users\SOLDER~1\AppData\Local\Temp\ccI3TRm9.s:23850  .debug_str:00000000000049fb .LASF2827
C:\Users\SOLDER~1\AppData\Local\Temp\ccI3TRm9.s:31314  .debug_str:0000000000022df5 .LASF2828
C:\Users\SOLDER~1\AppData\Local\Temp\ccI3TRm9.s:28050  .debug_str:0000000000015c1a .LASF2829
C:\Users\SOLDER~1\AppData\Local\Temp\ccI3TRm9.s:32890  .debug_str:00000000000295a2 .LASF2830
C:\Users\SOLDER~1\AppData\Local\Temp\ccI3TRm9.s:30252  .debug_str:000000000001e923 .LASF2831
C:\Users\SOLDER~1\AppData\Local\Temp\ccI3TRm9.s:34456  .debug_str:000000000002f9ce .LASF2832
C:\Users\SOLDER~1\AppData\Local\Temp\ccI3TRm9.s:29114  .debug_str:000000000001a083 .LASF2833
C:\Users\SOLDER~1\AppData\Local\Temp\ccI3TRm9.s:27038  .debug_str:0000000000011982 .LASF2834
C:\Users\SOLDER~1\AppData\Local\Temp\ccI3TRm9.s:28330  .debug_str:0000000000016d8e .LASF2835
C:\Users\SOLDER~1\AppData\Local\Temp\ccI3TRm9.s:24218  .debug_str:0000000000006143 .LASF2836
C:\Users\SOLDER~1\AppData\Local\Temp\ccI3TRm9.s:29808  .debug_str:000000000001cc36 .LASF2837
C:\Users\SOLDER~1\AppData\Local\Temp\ccI3TRm9.s:26980  .debug_str:000000000001157c .LASF2838
C:\Users\SOLDER~1\AppData\Local\Temp\ccI3TRm9.s:23808  .debug_str:0000000000004741 .LASF2839
C:\Users\SOLDER~1\AppData\Local\Temp\ccI3TRm9.s:33110  .debug_str:000000000002a33f .LASF2840
C:\Users\SOLDER~1\AppData\Local\Temp\ccI3TRm9.s:30446  .debug_str:000000000001f5fa .LASF2841
C:\Users\SOLDER~1\AppData\Local\Temp\ccI3TRm9.s:29842  .debug_str:000000000001ce69 .LASF2842
C:\Users\SOLDER~1\AppData\Local\Temp\ccI3TRm9.s:30644  .debug_str:00000000000202ef .LASF2843
C:\Users\SOLDER~1\AppData\Local\Temp\ccI3TRm9.s:32476  .debug_str:0000000000027a7e .LASF2844
C:\Users\SOLDER~1\AppData\Local\Temp\ccI3TRm9.s:32816  .debug_str:00000000000290fd .LASF2845
C:\Users\SOLDER~1\AppData\Local\Temp\ccI3TRm9.s:31248  .debug_str:000000000002298c .LASF2846
C:\Users\SOLDER~1\AppData\Local\Temp\ccI3TRm9.s:29710  .debug_str:000000000001c5bd .LASF2847
C:\Users\SOLDER~1\AppData\Local\Temp\ccI3TRm9.s:34420  .debug_str:000000000002f798 .LASF2848
C:\Users\SOLDER~1\AppData\Local\Temp\ccI3TRm9.s:29766  .debug_str:000000000001c953 .LASF2849
C:\Users\SOLDER~1\AppData\Local\Temp\ccI3TRm9.s:27180  .debug_str:0000000000012259 .LASF2850
C:\Users\SOLDER~1\AppData\Local\Temp\ccI3TRm9.s:33968  .debug_str:000000000002db66 .LASF2851
C:\Users\SOLDER~1\AppData\Local\Temp\ccI3TRm9.s:26018  .debug_str:000000000000d7bf .LASF2852
C:\Users\SOLDER~1\AppData\Local\Temp\ccI3TRm9.s:25628  .debug_str:000000000000bd8f .LASF2853
C:\Users\SOLDER~1\AppData\Local\Temp\ccI3TRm9.s:33256  .debug_str:000000000002acf3 .LASF2854
C:\Users\SOLDER~1\AppData\Local\Temp\ccI3TRm9.s:29394  .debug_str:000000000001b270 .LASF2855
C:\Users\SOLDER~1\AppData\Local\Temp\ccI3TRm9.s:33640  .debug_str:000000000002c5cc .LASF2856
C:\Users\SOLDER~1\AppData\Local\Temp\ccI3TRm9.s:25844  .debug_str:000000000000cc21 .LASF2857
C:\Users\SOLDER~1\AppData\Local\Temp\ccI3TRm9.s:30350  .debug_str:000000000001efc2 .LASF2858
C:\Users\SOLDER~1\AppData\Local\Temp\ccI3TRm9.s:24050  .debug_str:00000000000055fe .LASF2859
C:\Users\SOLDER~1\AppData\Local\Temp\ccI3TRm9.s:23566  .debug_str:0000000000003806 .LASF2860
C:\Users\SOLDER~1\AppData\Local\Temp\ccI3TRm9.s:32458  .debug_str:0000000000027953 .LASF2861
C:\Users\SOLDER~1\AppData\Local\Temp\ccI3TRm9.s:24666  .debug_str:0000000000007eba .LASF2862
C:\Users\SOLDER~1\AppData\Local\Temp\ccI3TRm9.s:30956  .debug_str:000000000002171e .LASF2863
C:\Users\SOLDER~1\AppData\Local\Temp\ccI3TRm9.s:30478  .debug_str:000000000001f835 .LASF2864
C:\Users\SOLDER~1\AppData\Local\Temp\ccI3TRm9.s:27220  .debug_str:00000000000124fc .LASF2865
C:\Users\SOLDER~1\AppData\Local\Temp\ccI3TRm9.s:25722  .debug_str:000000000000c3a0 .LASF2866
C:\Users\SOLDER~1\AppData\Local\Temp\ccI3TRm9.s:26920  .debug_str:00000000000111c6 .LASF2867
C:\Users\SOLDER~1\AppData\Local\Temp\ccI3TRm9.s:27504  .debug_str:0000000000013750 .LASF2868
C:\Users\SOLDER~1\AppData\Local\Temp\ccI3TRm9.s:34322  .debug_str:000000000002f184 .LASF2869
C:\Users\SOLDER~1\AppData\Local\Temp\ccI3TRm9.s:27516  .debug_str:0000000000013828 .LASF2870
C:\Users\SOLDER~1\AppData\Local\Temp\ccI3TRm9.s:33778  .debug_str:000000000002cedc .LASF2871
C:\Users\SOLDER~1\AppData\Local\Temp\ccI3TRm9.s:33896  .debug_str:000000000002d634 .LASF2872
GAS LISTING C:\Users\SOLDER~1\AppData\Local\Temp\ccI3TRm9.s 			page 145


C:\Users\SOLDER~1\AppData\Local\Temp\ccI3TRm9.s:29408  .debug_str:000000000001b360 .LASF2873
C:\Users\SOLDER~1\AppData\Local\Temp\ccI3TRm9.s:33808  .debug_str:000000000002d0d7 .LASF2874
C:\Users\SOLDER~1\AppData\Local\Temp\ccI3TRm9.s:30932  .debug_str:000000000002155f .LASF2875
C:\Users\SOLDER~1\AppData\Local\Temp\ccI3TRm9.s:26508  .debug_str:000000000000f708 .LASF2876
C:\Users\SOLDER~1\AppData\Local\Temp\ccI3TRm9.s:26614  .debug_str:000000000000fe4a .LASF2877
C:\Users\SOLDER~1\AppData\Local\Temp\ccI3TRm9.s:26520  .debug_str:000000000000f7d4 .LASF2878
C:\Users\SOLDER~1\AppData\Local\Temp\ccI3TRm9.s:28556  .debug_str:0000000000017c21 .LASF2879
C:\Users\SOLDER~1\AppData\Local\Temp\ccI3TRm9.s:34282  .debug_str:000000000002ef0f .LASF2880
C:\Users\SOLDER~1\AppData\Local\Temp\ccI3TRm9.s:26032  .debug_str:000000000000d8a6 .LASF2881
C:\Users\SOLDER~1\AppData\Local\Temp\ccI3TRm9.s:34364  .debug_str:000000000002f44c .LASF2882
C:\Users\SOLDER~1\AppData\Local\Temp\ccI3TRm9.s:33476  .debug_str:000000000002bb33 .LASF2883
C:\Users\SOLDER~1\AppData\Local\Temp\ccI3TRm9.s:24490  .debug_str:0000000000007363 .LASF2884
C:\Users\SOLDER~1\AppData\Local\Temp\ccI3TRm9.s:31618  .debug_str:00000000000241e6 .LASF2885
C:\Users\SOLDER~1\AppData\Local\Temp\ccI3TRm9.s:24162  .debug_str:0000000000005d9b .LASF2886
C:\Users\SOLDER~1\AppData\Local\Temp\ccI3TRm9.s:23154  .debug_str:0000000000001d5d .LASF2887
C:\Users\SOLDER~1\AppData\Local\Temp\ccI3TRm9.s:25508  .debug_str:000000000000b5a4 .LASF2888
C:\Users\SOLDER~1\AppData\Local\Temp\ccI3TRm9.s:25564  .debug_str:000000000000b970 .LASF2889
C:\Users\SOLDER~1\AppData\Local\Temp\ccI3TRm9.s:24478  .debug_str:00000000000072a2 .LASF2890
C:\Users\SOLDER~1\AppData\Local\Temp\ccI3TRm9.s:23488  .debug_str:0000000000003313 .LASF2891
C:\Users\SOLDER~1\AppData\Local\Temp\ccI3TRm9.s:26228  .debug_str:000000000000e578 .LASF2892
C:\Users\SOLDER~1\AppData\Local\Temp\ccI3TRm9.s:28298  .debug_str:0000000000016b6f .LASF2893
C:\Users\SOLDER~1\AppData\Local\Temp\ccI3TRm9.s:34114  .debug_str:000000000002e482 .LASF2894
C:\Users\SOLDER~1\AppData\Local\Temp\ccI3TRm9.s:25410  .debug_str:000000000000af64 .LASF2895
C:\Users\SOLDER~1\AppData\Local\Temp\ccI3TRm9.s:33174  .debug_str:000000000002a77a .LASF2896
C:\Users\SOLDER~1\AppData\Local\Temp\ccI3TRm9.s:34196  .debug_str:000000000002e9d8 .LASF2897
C:\Users\SOLDER~1\AppData\Local\Temp\ccI3TRm9.s:33976  .debug_str:000000000002dbe5 .LASF2898
C:\Users\SOLDER~1\AppData\Local\Temp\ccI3TRm9.s:23998  .debug_str:00000000000052f0 .LASF2899
C:\Users\SOLDER~1\AppData\Local\Temp\ccI3TRm9.s:24986  .debug_str:00000000000093c2 .LASF2900
C:\Users\SOLDER~1\AppData\Local\Temp\ccI3TRm9.s:30028  .debug_str:000000000001dad3 .LASF2901
C:\Users\SOLDER~1\AppData\Local\Temp\ccI3TRm9.s:25914  .debug_str:000000000000d0da .LASF2902
C:\Users\SOLDER~1\AppData\Local\Temp\ccI3TRm9.s:27788  .debug_str:0000000000014af9 .LASF2903
C:\Users\SOLDER~1\AppData\Local\Temp\ccI3TRm9.s:32802  .debug_str:0000000000029004 .LASF2904
C:\Users\SOLDER~1\AppData\Local\Temp\ccI3TRm9.s:25172  .debug_str:0000000000009fc2 .LASF2905
C:\Users\SOLDER~1\AppData\Local\Temp\ccI3TRm9.s:32908  .debug_str:00000000000296c3 .LASF2906
C:\Users\SOLDER~1\AppData\Local\Temp\ccI3TRm9.s:28842  .debug_str:0000000000018ea3 .LASF2907
C:\Users\SOLDER~1\AppData\Local\Temp\ccI3TRm9.s:26242  .debug_str:000000000000e661 .LASF2908
C:\Users\SOLDER~1\AppData\Local\Temp\ccI3TRm9.s:31044  .debug_str:0000000000021cd4 .LASF2909
C:\Users\SOLDER~1\AppData\Local\Temp\ccI3TRm9.s:31810  .debug_str:0000000000024e86 .LASF2910
C:\Users\SOLDER~1\AppData\Local\Temp\ccI3TRm9.s:27066  .debug_str:0000000000011b1b .LASF2911
C:\Users\SOLDER~1\AppData\Local\Temp\ccI3TRm9.s:26130  .debug_str:000000000000deaf .LASF2912
C:\Users\SOLDER~1\AppData\Local\Temp\ccI3TRm9.s:26472  .debug_str:000000000000f4bf .LASF2913
C:\Users\SOLDER~1\AppData\Local\Temp\ccI3TRm9.s:23372  .debug_str:0000000000002b98 .LASF2914
C:\Users\SOLDER~1\AppData\Local\Temp\ccI3TRm9.s:28830  .debug_str:0000000000018df0 .LASF2915
C:\Users\SOLDER~1\AppData\Local\Temp\ccI3TRm9.s:30254  .debug_str:000000000001e93c .LASF2916
C:\Users\SOLDER~1\AppData\Local\Temp\ccI3TRm9.s:31530  .debug_str:0000000000023c56 .LASF2917
C:\Users\SOLDER~1\AppData\Local\Temp\ccI3TRm9.s:26250  .debug_str:000000000000e6e8 .LASF2918
C:\Users\SOLDER~1\AppData\Local\Temp\ccI3TRm9.s:30472  .debug_str:000000000001f7db .LASF2919
C:\Users\SOLDER~1\AppData\Local\Temp\ccI3TRm9.s:31778  .debug_str:0000000000024c64 .LASF2920
C:\Users\SOLDER~1\AppData\Local\Temp\ccI3TRm9.s:30156  .debug_str:000000000001e2fa .LASF2921
C:\Users\SOLDER~1\AppData\Local\Temp\ccI3TRm9.s:26730  .debug_str:00000000000105b6 .LASF2922
C:\Users\SOLDER~1\AppData\Local\Temp\ccI3TRm9.s:31834  .debug_str:000000000002502d .LASF2923
C:\Users\SOLDER~1\AppData\Local\Temp\ccI3TRm9.s:28904  .debug_str:0000000000019300 .LASF2924
C:\Users\SOLDER~1\AppData\Local\Temp\ccI3TRm9.s:28452  .debug_str:0000000000017530 .LASF2925
C:\Users\SOLDER~1\AppData\Local\Temp\ccI3TRm9.s:27732  .debug_str:000000000001472a .LASF2926
C:\Users\SOLDER~1\AppData\Local\Temp\ccI3TRm9.s:26026  .debug_str:000000000000d844 .LASF2927
C:\Users\SOLDER~1\AppData\Local\Temp\ccI3TRm9.s:26324  .debug_str:000000000000eb92 .LASF2928
C:\Users\SOLDER~1\AppData\Local\Temp\ccI3TRm9.s:28686  .debug_str:00000000000184d7 .LASF2929
GAS LISTING C:\Users\SOLDER~1\AppData\Local\Temp\ccI3TRm9.s 			page 146


C:\Users\SOLDER~1\AppData\Local\Temp\ccI3TRm9.s:30170  .debug_str:000000000001e3f7 .LASF2930
C:\Users\SOLDER~1\AppData\Local\Temp\ccI3TRm9.s:31894  .debug_str:0000000000025421 .LASF2931
C:\Users\SOLDER~1\AppData\Local\Temp\ccI3TRm9.s:32418  .debug_str:00000000000276be .LASF2932
C:\Users\SOLDER~1\AppData\Local\Temp\ccI3TRm9.s:32814  .debug_str:00000000000290d4 .LASF2933
C:\Users\SOLDER~1\AppData\Local\Temp\ccI3TRm9.s:30036  .debug_str:000000000001db3b .LASF2934
C:\Users\SOLDER~1\AppData\Local\Temp\ccI3TRm9.s:28828  .debug_str:0000000000018dd6 .LASF2935
C:\Users\SOLDER~1\AppData\Local\Temp\ccI3TRm9.s:31948  .debug_str:000000000002578e .LASF2936
C:\Users\SOLDER~1\AppData\Local\Temp\ccI3TRm9.s:22718  .debug_str:0000000000000093 .LASF2937
C:\Users\SOLDER~1\AppData\Local\Temp\ccI3TRm9.s:23930  .debug_str:0000000000004ef3 .LASF2938
C:\Users\SOLDER~1\AppData\Local\Temp\ccI3TRm9.s:29620  .debug_str:000000000001bfe4 .LASF2939
C:\Users\SOLDER~1\AppData\Local\Temp\ccI3TRm9.s:23882  .debug_str:0000000000004bed .LASF2940
C:\Users\SOLDER~1\AppData\Local\Temp\ccI3TRm9.s:31744  .debug_str:0000000000024a2b .LASF2941
C:\Users\SOLDER~1\AppData\Local\Temp\ccI3TRm9.s:31710  .debug_str:00000000000247ea .LASF2942
C:\Users\SOLDER~1\AppData\Local\Temp\ccI3TRm9.s:31596  .debug_str:0000000000024095 .LASF2943
C:\Users\SOLDER~1\AppData\Local\Temp\ccI3TRm9.s:24808  .debug_str:00000000000087b3 .LASF2944
C:\Users\SOLDER~1\AppData\Local\Temp\ccI3TRm9.s:29534  .debug_str:000000000001bae1 .LASF2945
C:\Users\SOLDER~1\AppData\Local\Temp\ccI3TRm9.s:29186  .debug_str:000000000001a4d4 .LASF2946
C:\Users\SOLDER~1\AppData\Local\Temp\ccI3TRm9.s:28260  .debug_str:000000000001695a .LASF2947
C:\Users\SOLDER~1\AppData\Local\Temp\ccI3TRm9.s:28720  .debug_str:0000000000018705 .LASF2948
C:\Users\SOLDER~1\AppData\Local\Temp\ccI3TRm9.s:28986  .debug_str:0000000000019857 .LASF2949
C:\Users\SOLDER~1\AppData\Local\Temp\ccI3TRm9.s:27380  .debug_str:0000000000012f5c .LASF2950
C:\Users\SOLDER~1\AppData\Local\Temp\ccI3TRm9.s:29086  .debug_str:0000000000019eda .LASF2951
C:\Users\SOLDER~1\AppData\Local\Temp\ccI3TRm9.s:23456  .debug_str:000000000000312b .LASF2952
C:\Users\SOLDER~1\AppData\Local\Temp\ccI3TRm9.s:22910  .debug_str:0000000000000e0f .LASF2953
C:\Users\SOLDER~1\AppData\Local\Temp\ccI3TRm9.s:28890  .debug_str:00000000000191fb .LASF2954
C:\Users\SOLDER~1\AppData\Local\Temp\ccI3TRm9.s:32188  .debug_str:0000000000026766 .LASF2955
C:\Users\SOLDER~1\AppData\Local\Temp\ccI3TRm9.s:32938  .debug_str:0000000000029872 .LASF2956
C:\Users\SOLDER~1\AppData\Local\Temp\ccI3TRm9.s:34262  .debug_str:000000000002edbd .LASF2957
C:\Users\SOLDER~1\AppData\Local\Temp\ccI3TRm9.s:26460  .debug_str:000000000000f3fc .LASF2958
C:\Users\SOLDER~1\AppData\Local\Temp\ccI3TRm9.s:33942  .debug_str:000000000002d97d .LASF2959
C:\Users\SOLDER~1\AppData\Local\Temp\ccI3TRm9.s:27012  .debug_str:00000000000117ac .LASF2960
C:\Users\SOLDER~1\AppData\Local\Temp\ccI3TRm9.s:28408  .debug_str:0000000000017237 .LASF2961
C:\Users\SOLDER~1\AppData\Local\Temp\ccI3TRm9.s:24346  .debug_str:0000000000006a28 .LASF2962
C:\Users\SOLDER~1\AppData\Local\Temp\ccI3TRm9.s:26134  .debug_str:000000000000df15 .LASF2963
C:\Users\SOLDER~1\AppData\Local\Temp\ccI3TRm9.s:31914  .debug_str:0000000000025543 .LASF2964
C:\Users\SOLDER~1\AppData\Local\Temp\ccI3TRm9.s:34390  .debug_str:000000000002f5dd .LASF2965
C:\Users\SOLDER~1\AppData\Local\Temp\ccI3TRm9.s:29374  .debug_str:000000000001b100 .LASF2966
C:\Users\SOLDER~1\AppData\Local\Temp\ccI3TRm9.s:22732  .debug_str:000000000000014a .LASF2967
C:\Users\SOLDER~1\AppData\Local\Temp\ccI3TRm9.s:32320  .debug_str:0000000000027042 .LASF2968
C:\Users\SOLDER~1\AppData\Local\Temp\ccI3TRm9.s:31178  .debug_str:0000000000022566 .LASF2969
C:\Users\SOLDER~1\AppData\Local\Temp\ccI3TRm9.s:30484  .debug_str:000000000001f89b .LASF2970
C:\Users\SOLDER~1\AppData\Local\Temp\ccI3TRm9.s:26554  .debug_str:000000000000fa04 .LASF2971
C:\Users\SOLDER~1\AppData\Local\Temp\ccI3TRm9.s:31456  .debug_str:000000000002375f .LASF2972
C:\Users\SOLDER~1\AppData\Local\Temp\ccI3TRm9.s:25380  .debug_str:000000000000ad8e .LASF2973
C:\Users\SOLDER~1\AppData\Local\Temp\ccI3TRm9.s:23160  .debug_str:0000000000001dca .LASF2974
C:\Users\SOLDER~1\AppData\Local\Temp\ccI3TRm9.s:27510  .debug_str:00000000000137b5 .LASF2975
C:\Users\SOLDER~1\AppData\Local\Temp\ccI3TRm9.s:25038  .debug_str:000000000000971d .LASF2976
C:\Users\SOLDER~1\AppData\Local\Temp\ccI3TRm9.s:31236  .debug_str:00000000000228c6 .LASF2977
C:\Users\SOLDER~1\AppData\Local\Temp\ccI3TRm9.s:26214  .debug_str:000000000000e46e .LASF2978
C:\Users\SOLDER~1\AppData\Local\Temp\ccI3TRm9.s:25758  .debug_str:000000000000c625 .LASF2979
C:\Users\SOLDER~1\AppData\Local\Temp\ccI3TRm9.s:31468  .debug_str:000000000002381b .LASF2980
C:\Users\SOLDER~1\AppData\Local\Temp\ccI3TRm9.s:25328  .debug_str:000000000000aa33 .LASF2981
C:\Users\SOLDER~1\AppData\Local\Temp\ccI3TRm9.s:33928  .debug_str:000000000002d885 .LASF2982
C:\Users\SOLDER~1\AppData\Local\Temp\ccI3TRm9.s:28202  .debug_str:00000000000165a8 .LASF2983
C:\Users\SOLDER~1\AppData\Local\Temp\ccI3TRm9.s:32694  .debug_str:00000000000288e5 .LASF2984
C:\Users\SOLDER~1\AppData\Local\Temp\ccI3TRm9.s:29016  .debug_str:0000000000019a89 .LASF2985
C:\Users\SOLDER~1\AppData\Local\Temp\ccI3TRm9.s:23662  .debug_str:0000000000003dff .LASF2986
GAS LISTING C:\Users\SOLDER~1\AppData\Local\Temp\ccI3TRm9.s 			page 147


C:\Users\SOLDER~1\AppData\Local\Temp\ccI3TRm9.s:33832  .debug_str:000000000002d245 .LASF2987
C:\Users\SOLDER~1\AppData\Local\Temp\ccI3TRm9.s:23176  .debug_str:0000000000001ee5 .LASF2988
C:\Users\SOLDER~1\AppData\Local\Temp\ccI3TRm9.s:26826  .debug_str:0000000000010be2 .LASF2989
C:\Users\SOLDER~1\AppData\Local\Temp\ccI3TRm9.s:24124  .debug_str:0000000000005b26 .LASF2990
C:\Users\SOLDER~1\AppData\Local\Temp\ccI3TRm9.s:34354  .debug_str:000000000002f3cc .LASF2991
C:\Users\SOLDER~1\AppData\Local\Temp\ccI3TRm9.s:23202  .debug_str:0000000000002084 .LASF2992
C:\Users\SOLDER~1\AppData\Local\Temp\ccI3TRm9.s:32448  .debug_str:00000000000278a1 .LASF2993
C:\Users\SOLDER~1\AppData\Local\Temp\ccI3TRm9.s:25274  .debug_str:000000000000a68d .LASF2994
C:\Users\SOLDER~1\AppData\Local\Temp\ccI3TRm9.s:23388  .debug_str:0000000000002cba .LASF2995
C:\Users\SOLDER~1\AppData\Local\Temp\ccI3TRm9.s:32264  .debug_str:0000000000026ca6 .LASF2996
C:\Users\SOLDER~1\AppData\Local\Temp\ccI3TRm9.s:26124  .debug_str:000000000000de3c .LASF2997
C:\Users\SOLDER~1\AppData\Local\Temp\ccI3TRm9.s:27676  .debug_str:0000000000014348 .LASF2998
C:\Users\SOLDER~1\AppData\Local\Temp\ccI3TRm9.s:30136  .debug_str:000000000001e19d .LASF2999
C:\Users\SOLDER~1\AppData\Local\Temp\ccI3TRm9.s:23196  .debug_str:0000000000002010 .LASF3000
C:\Users\SOLDER~1\AppData\Local\Temp\ccI3TRm9.s:29282  .debug_str:000000000001ab06 .LASF3001
C:\Users\SOLDER~1\AppData\Local\Temp\ccI3TRm9.s:27552  .debug_str:0000000000013a85 .LASF3002
C:\Users\SOLDER~1\AppData\Local\Temp\ccI3TRm9.s:31192  .debug_str:0000000000022649 .LASF3003
C:\Users\SOLDER~1\AppData\Local\Temp\ccI3TRm9.s:30056  .debug_str:000000000001dc8a .LASF3004
C:\Users\SOLDER~1\AppData\Local\Temp\ccI3TRm9.s:31866  .debug_str:000000000002525c .LASF3005
C:\Users\SOLDER~1\AppData\Local\Temp\ccI3TRm9.s:25356  .debug_str:000000000000ac1e .LASF3006
C:\Users\SOLDER~1\AppData\Local\Temp\ccI3TRm9.s:31244  .debug_str:000000000002294b .LASF3007
C:\Users\SOLDER~1\AppData\Local\Temp\ccI3TRm9.s:28944  .debug_str:00000000000195a7 .LASF3008
C:\Users\SOLDER~1\AppData\Local\Temp\ccI3TRm9.s:33834  .debug_str:000000000002d25e .LASF3009
C:\Users\SOLDER~1\AppData\Local\Temp\ccI3TRm9.s:29316  .debug_str:000000000001ad58 .LASF3010
C:\Users\SOLDER~1\AppData\Local\Temp\ccI3TRm9.s:34072  .debug_str:000000000002e20c .LASF3011
C:\Users\SOLDER~1\AppData\Local\Temp\ccI3TRm9.s:30650  .debug_str:0000000000020336 .LASF3012
C:\Users\SOLDER~1\AppData\Local\Temp\ccI3TRm9.s:25060  .debug_str:0000000000009865 .LASF3013
C:\Users\SOLDER~1\AppData\Local\Temp\ccI3TRm9.s:26756  .debug_str:000000000001077d .LASF3014
C:\Users\SOLDER~1\AppData\Local\Temp\ccI3TRm9.s:27656  .debug_str:00000000000141cf .LASF3015
C:\Users\SOLDER~1\AppData\Local\Temp\ccI3TRm9.s:28646  .debug_str:00000000000181ff .LASF3016
C:\Users\SOLDER~1\AppData\Local\Temp\ccI3TRm9.s:25702  .debug_str:000000000000c252 .LASF3017
C:\Users\SOLDER~1\AppData\Local\Temp\ccI3TRm9.s:25090  .debug_str:0000000000009a65 .LASF3018
C:\Users\SOLDER~1\AppData\Local\Temp\ccI3TRm9.s:23768  .debug_str:0000000000004496 .LASF3019
C:\Users\SOLDER~1\AppData\Local\Temp\ccI3TRm9.s:34298  .debug_str:000000000002f01f .LASF3020
C:\Users\SOLDER~1\AppData\Local\Temp\ccI3TRm9.s:33602  .debug_str:000000000002c366 .LASF3021
C:\Users\SOLDER~1\AppData\Local\Temp\ccI3TRm9.s:30164  .debug_str:000000000001e390 .LASF3022
C:\Users\SOLDER~1\AppData\Local\Temp\ccI3TRm9.s:32154  .debug_str:0000000000026504 .LASF3023
C:\Users\SOLDER~1\AppData\Local\Temp\ccI3TRm9.s:29454  .debug_str:000000000001b5b4 .LASF3024
C:\Users\SOLDER~1\AppData\Local\Temp\ccI3TRm9.s:29802  .debug_str:000000000001cbdd .LASF3025
C:\Users\SOLDER~1\AppData\Local\Temp\ccI3TRm9.s:23292  .debug_str:0000000000002691 .LASF3026
C:\Users\SOLDER~1\AppData\Local\Temp\ccI3TRm9.s:27904  .debug_str:0000000000015293 .LASF3027
C:\Users\SOLDER~1\AppData\Local\Temp\ccI3TRm9.s:32536  .debug_str:0000000000027e63 .LASF3028
C:\Users\SOLDER~1\AppData\Local\Temp\ccI3TRm9.s:25956  .debug_str:000000000000d3b4 .LASF3029
C:\Users\SOLDER~1\AppData\Local\Temp\ccI3TRm9.s:27858  .debug_str:0000000000014f8c .LASF3030
C:\Users\SOLDER~1\AppData\Local\Temp\ccI3TRm9.s:23254  .debug_str:0000000000002421 .LASF3031
C:\Users\SOLDER~1\AppData\Local\Temp\ccI3TRm9.s:24984  .debug_str:00000000000093a0 .LASF3032
C:\Users\SOLDER~1\AppData\Local\Temp\ccI3TRm9.s:33854  .debug_str:000000000002d3a8 .LASF3033
C:\Users\SOLDER~1\AppData\Local\Temp\ccI3TRm9.s:27280  .debug_str:00000000000128b8 .LASF3034
C:\Users\SOLDER~1\AppData\Local\Temp\ccI3TRm9.s:33222  .debug_str:000000000002aaae .LASF3035
C:\Users\SOLDER~1\AppData\Local\Temp\ccI3TRm9.s:25228  .debug_str:000000000000a382 .LASF3036
C:\Users\SOLDER~1\AppData\Local\Temp\ccI3TRm9.s:31422  .debug_str:0000000000023543 .LASF3037
C:\Users\SOLDER~1\AppData\Local\Temp\ccI3TRm9.s:23104  .debug_str:0000000000001a1c .LASF3038
C:\Users\SOLDER~1\AppData\Local\Temp\ccI3TRm9.s:23156  .debug_str:0000000000001d87 .LASF3039
C:\Users\SOLDER~1\AppData\Local\Temp\ccI3TRm9.s:23330  .debug_str:0000000000002945 .LASF3040
C:\Users\SOLDER~1\AppData\Local\Temp\ccI3TRm9.s:28150  .debug_str:0000000000016238 .LASF3041
C:\Users\SOLDER~1\AppData\Local\Temp\ccI3TRm9.s:26832  .debug_str:0000000000010c5d .LASF3042
C:\Users\SOLDER~1\AppData\Local\Temp\ccI3TRm9.s:26368  .debug_str:000000000000ee23 .LASF3043
GAS LISTING C:\Users\SOLDER~1\AppData\Local\Temp\ccI3TRm9.s 			page 148


C:\Users\SOLDER~1\AppData\Local\Temp\ccI3TRm9.s:28970  .debug_str:000000000001973d .LASF3044
C:\Users\SOLDER~1\AppData\Local\Temp\ccI3TRm9.s:24714  .debug_str:00000000000081dd .LASF3045
C:\Users\SOLDER~1\AppData\Local\Temp\ccI3TRm9.s:26028  .debug_str:000000000000d85e .LASF3046
C:\Users\SOLDER~1\AppData\Local\Temp\ccI3TRm9.s:28708  .debug_str:0000000000018657 .LASF3047
C:\Users\SOLDER~1\AppData\Local\Temp\ccI3TRm9.s:31398  .debug_str:00000000000233c2 .LASF3048
C:\Users\SOLDER~1\AppData\Local\Temp\ccI3TRm9.s:27208  .debug_str:0000000000012435 .LASF3049
C:\Users\SOLDER~1\AppData\Local\Temp\ccI3TRm9.s:30558  .debug_str:000000000001fdab .LASF3050
C:\Users\SOLDER~1\AppData\Local\Temp\ccI3TRm9.s:24832  .debug_str:0000000000008951 .LASF3051
C:\Users\SOLDER~1\AppData\Local\Temp\ccI3TRm9.s:25692  .debug_str:000000000000c1a5 .LASF3052
C:\Users\SOLDER~1\AppData\Local\Temp\ccI3TRm9.s:22994  .debug_str:000000000000131b .LASF3053
C:\Users\SOLDER~1\AppData\Local\Temp\ccI3TRm9.s:34236  .debug_str:000000000002ec22 .LASF3054
C:\Users\SOLDER~1\AppData\Local\Temp\ccI3TRm9.s:32788  .debug_str:0000000000028efd .LASF3055
C:\Users\SOLDER~1\AppData\Local\Temp\ccI3TRm9.s:28038  .debug_str:0000000000015b42 .LASF3056
C:\Users\SOLDER~1\AppData\Local\Temp\ccI3TRm9.s:30830  .debug_str:0000000000020f00 .LASF3057
C:\Users\SOLDER~1\AppData\Local\Temp\ccI3TRm9.s:25710  .debug_str:000000000000c2ca .LASF3058
C:\Users\SOLDER~1\AppData\Local\Temp\ccI3TRm9.s:27924  .debug_str:00000000000153c7 .LASF3059
C:\Users\SOLDER~1\AppData\Local\Temp\ccI3TRm9.s:24852  .debug_str:0000000000008a7e .LASF3060
C:\Users\SOLDER~1\AppData\Local\Temp\ccI3TRm9.s:27004  .debug_str:0000000000011709 .LASF3061
C:\Users\SOLDER~1\AppData\Local\Temp\ccI3TRm9.s:29156  .debug_str:000000000001a302 .LASF3062
C:\Users\SOLDER~1\AppData\Local\Temp\ccI3TRm9.s:23124  .debug_str:0000000000001b70 .LASF3063
C:\Users\SOLDER~1\AppData\Local\Temp\ccI3TRm9.s:23650  .debug_str:0000000000003d3e .LASF3064
C:\Users\SOLDER~1\AppData\Local\Temp\ccI3TRm9.s:32456  .debug_str:000000000002793a .LASF3065
C:\Users\SOLDER~1\AppData\Local\Temp\ccI3TRm9.s:28650  .debug_str:000000000001824d .LASF3066
C:\Users\SOLDER~1\AppData\Local\Temp\ccI3TRm9.s:29538  .debug_str:000000000001bb21 .LASF3067
C:\Users\SOLDER~1\AppData\Local\Temp\ccI3TRm9.s:26854  .debug_str:0000000000010dc2 .LASF3068
C:\Users\SOLDER~1\AppData\Local\Temp\ccI3TRm9.s:23268  .debug_str:0000000000002518 .LASF3069
C:\Users\SOLDER~1\AppData\Local\Temp\ccI3TRm9.s:33498  .debug_str:000000000002bc86 .LASF3070
C:\Users\SOLDER~1\AppData\Local\Temp\ccI3TRm9.s:29552  .debug_str:000000000001bbf3 .LASF3071
C:\Users\SOLDER~1\AppData\Local\Temp\ccI3TRm9.s:25082  .debug_str:00000000000099d4 .LASF3072
C:\Users\SOLDER~1\AppData\Local\Temp\ccI3TRm9.s:33322  .debug_str:000000000002b111 .LASF3073
C:\Users\SOLDER~1\AppData\Local\Temp\ccI3TRm9.s:32804  .debug_str:000000000002902e .LASF3074
C:\Users\SOLDER~1\AppData\Local\Temp\ccI3TRm9.s:33844  .debug_str:000000000002d30d .LASF3075
C:\Users\SOLDER~1\AppData\Local\Temp\ccI3TRm9.s:30244  .debug_str:000000000001e8aa .LASF3076
C:\Users\SOLDER~1\AppData\Local\Temp\ccI3TRm9.s:33728  .debug_str:000000000002cbc5 .LASF3077
C:\Users\SOLDER~1\AppData\Local\Temp\ccI3TRm9.s:24692  .debug_str:0000000000008055 .LASF3078
C:\Users\SOLDER~1\AppData\Local\Temp\ccI3TRm9.s:30046  .debug_str:000000000001dbe4 .LASF3079
C:\Users\SOLDER~1\AppData\Local\Temp\ccI3TRm9.s:32768  .debug_str:0000000000028dbd .LASF3080
C:\Users\SOLDER~1\AppData\Local\Temp\ccI3TRm9.s:25604  .debug_str:000000000000bbf0 .LASF3081
C:\Users\SOLDER~1\AppData\Local\Temp\ccI3TRm9.s:33052  .debug_str:0000000000029fb8 .LASF3082
C:\Users\SOLDER~1\AppData\Local\Temp\ccI3TRm9.s:23654  .debug_str:0000000000003d86 .LASF3083
C:\Users\SOLDER~1\AppData\Local\Temp\ccI3TRm9.s:24238  .debug_str:00000000000062b7 .LASF3084
C:\Users\SOLDER~1\AppData\Local\Temp\ccI3TRm9.s:33018  .debug_str:0000000000029d8f .LASF3085
C:\Users\SOLDER~1\AppData\Local\Temp\ccI3TRm9.s:27994  .debug_str:0000000000015873 .LASF3086
C:\Users\SOLDER~1\AppData\Local\Temp\ccI3TRm9.s:31502  .debug_str:0000000000023a9a .LASF3087
C:\Users\SOLDER~1\AppData\Local\Temp\ccI3TRm9.s:27958  .debug_str:00000000000155ed .LASF3088
C:\Users\SOLDER~1\AppData\Local\Temp\ccI3TRm9.s:29618  .debug_str:000000000001bfcd .LASF3089
C:\Users\SOLDER~1\AppData\Local\Temp\ccI3TRm9.s:28700  .debug_str:00000000000185d3 .LASF3090
C:\Users\SOLDER~1\AppData\Local\Temp\ccI3TRm9.s:32974  .debug_str:0000000000029a83 .LASF3091
C:\Users\SOLDER~1\AppData\Local\Temp\ccI3TRm9.s:24086  .debug_str:000000000000587f .LASF3092
C:\Users\SOLDER~1\AppData\Local\Temp\ccI3TRm9.s:25842  .debug_str:000000000000cc0a .LASF3093
C:\Users\SOLDER~1\AppData\Local\Temp\ccI3TRm9.s:24280  .debug_str:0000000000006570 .LASF3094
C:\Users\SOLDER~1\AppData\Local\Temp\ccI3TRm9.s:28208  .debug_str:000000000001660d .LASF3095
C:\Users\SOLDER~1\AppData\Local\Temp\ccI3TRm9.s:30600  .debug_str:0000000000020033 .LASF3096
C:\Users\SOLDER~1\AppData\Local\Temp\ccI3TRm9.s:33742  .debug_str:000000000002cc91 .LASF3097
C:\Users\SOLDER~1\AppData\Local\Temp\ccI3TRm9.s:26434  .debug_str:000000000000f273 .LASF3098
C:\Users\SOLDER~1\AppData\Local\Temp\ccI3TRm9.s:28242  .debug_str:0000000000016823 .LASF3099
C:\Users\SOLDER~1\AppData\Local\Temp\ccI3TRm9.s:33586  .debug_str:000000000002c25d .LASF3100
GAS LISTING C:\Users\SOLDER~1\AppData\Local\Temp\ccI3TRm9.s 			page 149


C:\Users\SOLDER~1\AppData\Local\Temp\ccI3TRm9.s:27084  .debug_str:0000000000011c5e .LASF3101
C:\Users\SOLDER~1\AppData\Local\Temp\ccI3TRm9.s:26392  .debug_str:000000000000efb5 .LASF3102
C:\Users\SOLDER~1\AppData\Local\Temp\ccI3TRm9.s:28016  .debug_str:00000000000159f2 .LASF3103
C:\Users\SOLDER~1\AppData\Local\Temp\ccI3TRm9.s:25434  .debug_str:000000000000b0fb .LASF3104
C:\Users\SOLDER~1\AppData\Local\Temp\ccI3TRm9.s:26276  .debug_str:000000000000e878 .LASF3105
C:\Users\SOLDER~1\AppData\Local\Temp\ccI3TRm9.s:33294  .debug_str:000000000002af7a .LASF3106
C:\Users\SOLDER~1\AppData\Local\Temp\ccI3TRm9.s:24592  .debug_str:00000000000079a9 .LASF3107
C:\Users\SOLDER~1\AppData\Local\Temp\ccI3TRm9.s:31062  .debug_str:0000000000021def .LASF3108
C:\Users\SOLDER~1\AppData\Local\Temp\ccI3TRm9.s:22934  .debug_str:0000000000000f63 .LASF3109
C:\Users\SOLDER~1\AppData\Local\Temp\ccI3TRm9.s:28072  .debug_str:0000000000015d57 .LASF3110
C:\Users\SOLDER~1\AppData\Local\Temp\ccI3TRm9.s:23674  .debug_str:0000000000003ed4 .LASF3111
C:\Users\SOLDER~1\AppData\Local\Temp\ccI3TRm9.s:31942  .debug_str:0000000000025724 .LASF3112
C:\Users\SOLDER~1\AppData\Local\Temp\ccI3TRm9.s:31600  .debug_str:00000000000240d4 .LASF3113
C:\Users\SOLDER~1\AppData\Local\Temp\ccI3TRm9.s:29942  .debug_str:000000000001d4e4 .LASF3114
C:\Users\SOLDER~1\AppData\Local\Temp\ccI3TRm9.s:25802  .debug_str:000000000000c93b .LASF3115
C:\Users\SOLDER~1\AppData\Local\Temp\ccI3TRm9.s:31508  .debug_str:0000000000023b04 .LASF3116
C:\Users\SOLDER~1\AppData\Local\Temp\ccI3TRm9.s:26680  .debug_str:00000000000102c9 .LASF3117
C:\Users\SOLDER~1\AppData\Local\Temp\ccI3TRm9.s:30176  .debug_str:000000000001e467 .LASF3118
C:\Users\SOLDER~1\AppData\Local\Temp\ccI3TRm9.s:29352  .debug_str:000000000001af7f .LASF3119
C:\Users\SOLDER~1\AppData\Local\Temp\ccI3TRm9.s:30114  .debug_str:000000000001e021 .LASF3120
C:\Users\SOLDER~1\AppData\Local\Temp\ccI3TRm9.s:27624  .debug_str:0000000000013fbf .LASF3121
C:\Users\SOLDER~1\AppData\Local\Temp\ccI3TRm9.s:33236  .debug_str:000000000002abaf .LASF3122
C:\Users\SOLDER~1\AppData\Local\Temp\ccI3TRm9.s:24370  .debug_str:0000000000006bab .LASF3123
C:\Users\SOLDER~1\AppData\Local\Temp\ccI3TRm9.s:25180  .debug_str:000000000000a03b .LASF3124
C:\Users\SOLDER~1\AppData\Local\Temp\ccI3TRm9.s:24264  .debug_str:0000000000006474 .LASF3125
C:\Users\SOLDER~1\AppData\Local\Temp\ccI3TRm9.s:27234  .debug_str:00000000000125de .LASF3126
C:\Users\SOLDER~1\AppData\Local\Temp\ccI3TRm9.s:23436  .debug_str:0000000000002fe4 .LASF3127
C:\Users\SOLDER~1\AppData\Local\Temp\ccI3TRm9.s:32746  .debug_str:0000000000028c60 .LASF3128
C:\Users\SOLDER~1\AppData\Local\Temp\ccI3TRm9.s:32572  .debug_str:00000000000280c4 .LASF3129
C:\Users\SOLDER~1\AppData\Local\Temp\ccI3TRm9.s:30276  .debug_str:000000000001ea9c .LASF3130
C:\Users\SOLDER~1\AppData\Local\Temp\ccI3TRm9.s:33048  .debug_str:0000000000029f75 .LASF3131
C:\Users\SOLDER~1\AppData\Local\Temp\ccI3TRm9.s:27714  .debug_str:00000000000145e4 .LASF3132
C:\Users\SOLDER~1\AppData\Local\Temp\ccI3TRm9.s:25026  .debug_str:0000000000009676 .LASF3133
C:\Users\SOLDER~1\AppData\Local\Temp\ccI3TRm9.s:23186  .debug_str:0000000000001f6c .LASF3134
C:\Users\SOLDER~1\AppData\Local\Temp\ccI3TRm9.s:26452  .debug_str:000000000000f389 .LASF3135
C:\Users\SOLDER~1\AppData\Local\Temp\ccI3TRm9.s:27412  .debug_str:0000000000013145 .LASF3136
C:\Users\SOLDER~1\AppData\Local\Temp\ccI3TRm9.s:24792  .debug_str:00000000000086c9 .LASF3137
C:\Users\SOLDER~1\AppData\Local\Temp\ccI3TRm9.s:30670  .debug_str:000000000002047f .LASF3138
C:\Users\SOLDER~1\AppData\Local\Temp\ccI3TRm9.s:31562  .debug_str:0000000000023e9e .LASF3139
C:\Users\SOLDER~1\AppData\Local\Temp\ccI3TRm9.s:22818  .debug_str:0000000000000784 .LASF3140
C:\Users\SOLDER~1\AppData\Local\Temp\ccI3TRm9.s:25576  .debug_str:000000000000ba2a .LASF3141
C:\Users\SOLDER~1\AppData\Local\Temp\ccI3TRm9.s:24488  .debug_str:000000000000733d .LASF3142
C:\Users\SOLDER~1\AppData\Local\Temp\ccI3TRm9.s:24058  .debug_str:000000000000568c .LASF3143
C:\Users\SOLDER~1\AppData\Local\Temp\ccI3TRm9.s:28628  .debug_str:00000000000180c2 .LASF3144
C:\Users\SOLDER~1\AppData\Local\Temp\ccI3TRm9.s:33418  .debug_str:000000000002b72f .LASF3145
C:\Users\SOLDER~1\AppData\Local\Temp\ccI3TRm9.s:25072  .debug_str:000000000000993b .LASF3146
C:\Users\SOLDER~1\AppData\Local\Temp\ccI3TRm9.s:30988  .debug_str:0000000000021945 .LASF3147
C:\Users\SOLDER~1\AppData\Local\Temp\ccI3TRm9.s:24136  .debug_str:0000000000005c0b .LASF3148
C:\Users\SOLDER~1\AppData\Local\Temp\ccI3TRm9.s:28662  .debug_str:000000000001832a .LASF3149
C:\Users\SOLDER~1\AppData\Local\Temp\ccI3TRm9.s:32854  .debug_str:000000000002936d .LASF3150
C:\Users\SOLDER~1\AppData\Local\Temp\ccI3TRm9.s:30968  .debug_str:0000000000021805 .LASF3151
C:\Users\SOLDER~1\AppData\Local\Temp\ccI3TRm9.s:32176  .debug_str:0000000000026675 .LASF3152
C:\Users\SOLDER~1\AppData\Local\Temp\ccI3TRm9.s:29080  .debug_str:0000000000019e8e .LASF3153
C:\Users\SOLDER~1\AppData\Local\Temp\ccI3TRm9.s:23276  .debug_str:000000000000258b .LASF3154
C:\Users\SOLDER~1\AppData\Local\Temp\ccI3TRm9.s:27132  .debug_str:0000000000011f6f .LASF3155
C:\Users\SOLDER~1\AppData\Local\Temp\ccI3TRm9.s:32522  .debug_str:0000000000027d9c .LASF3156
C:\Users\SOLDER~1\AppData\Local\Temp\ccI3TRm9.s:25194  .debug_str:000000000000a13b .LASF3157
GAS LISTING C:\Users\SOLDER~1\AppData\Local\Temp\ccI3TRm9.s 			page 150


C:\Users\SOLDER~1\AppData\Local\Temp\ccI3TRm9.s:31132  .debug_str:0000000000022265 .LASF3158
C:\Users\SOLDER~1\AppData\Local\Temp\ccI3TRm9.s:23364  .debug_str:0000000000002b3a .LASF3159
C:\Users\SOLDER~1\AppData\Local\Temp\ccI3TRm9.s:31442  .debug_str:0000000000023684 .LASF3160
C:\Users\SOLDER~1\AppData\Local\Temp\ccI3TRm9.s:33184  .debug_str:000000000002a80f .LASF3161
C:\Users\SOLDER~1\AppData\Local\Temp\ccI3TRm9.s:33864  .debug_str:000000000002d44c .LASF3162
C:\Users\SOLDER~1\AppData\Local\Temp\ccI3TRm9.s:33488  .debug_str:000000000002bbf2 .LASF3163
C:\Users\SOLDER~1\AppData\Local\Temp\ccI3TRm9.s:30806  .debug_str:0000000000020d6b .LASF3164
C:\Users\SOLDER~1\AppData\Local\Temp\ccI3TRm9.s:26284  .debug_str:000000000000e8d0 .LASF3165
C:\Users\SOLDER~1\AppData\Local\Temp\ccI3TRm9.s:31408  .debug_str:0000000000023461 .LASF3166
C:\Users\SOLDER~1\AppData\Local\Temp\ccI3TRm9.s:27138  .debug_str:0000000000011fe2 .LASF3167
C:\Users\SOLDER~1\AppData\Local\Temp\ccI3TRm9.s:34014  .debug_str:000000000002de58 .LASF3168
C:\Users\SOLDER~1\AppData\Local\Temp\ccI3TRm9.s:25474  .debug_str:000000000000b373 .LASF3169
C:\Users\SOLDER~1\AppData\Local\Temp\ccI3TRm9.s:32158  .debug_str:000000000002653d .LASF3170
C:\Users\SOLDER~1\AppData\Local\Temp\ccI3TRm9.s:23700  .debug_str:0000000000004053 .LASF3171
C:\Users\SOLDER~1\AppData\Local\Temp\ccI3TRm9.s:32156  .debug_str:000000000002651c .LASF3172
C:\Users\SOLDER~1\AppData\Local\Temp\ccI3TRm9.s:23780  .debug_str:000000000000455e .LASF3173
C:\Users\SOLDER~1\AppData\Local\Temp\ccI3TRm9.s:24052  .debug_str:0000000000005625 .LASF3174
C:\Users\SOLDER~1\AppData\Local\Temp\ccI3TRm9.s:29154  .debug_str:000000000001a2ef .LASF3175
C:\Users\SOLDER~1\AppData\Local\Temp\ccI3TRm9.s:29964  .debug_str:000000000001d6a6 .LASF3176
C:\Users\SOLDER~1\AppData\Local\Temp\ccI3TRm9.s:27202  .debug_str:00000000000123d5 .LASF3177
C:\Users\SOLDER~1\AppData\Local\Temp\ccI3TRm9.s:29456  .debug_str:000000000001b5d6 .LASF3178
C:\Users\SOLDER~1\AppData\Local\Temp\ccI3TRm9.s:25260  .debug_str:000000000000a59f .LASF3179
C:\Users\SOLDER~1\AppData\Local\Temp\ccI3TRm9.s:31946  .debug_str:000000000002576d .LASF3180
C:\Users\SOLDER~1\AppData\Local\Temp\ccI3TRm9.s:25630  .debug_str:000000000000bda7 .LASF3181
C:\Users\SOLDER~1\AppData\Local\Temp\ccI3TRm9.s:30368  .debug_str:000000000001f0ef .LASF3182
C:\Users\SOLDER~1\AppData\Local\Temp\ccI3TRm9.s:33252  .debug_str:000000000002acbc .LASF3183
C:\Users\SOLDER~1\AppData\Local\Temp\ccI3TRm9.s:32836  .debug_str:0000000000029244 .LASF3184
C:\Users\SOLDER~1\AppData\Local\Temp\ccI3TRm9.s:31274  .debug_str:0000000000022b4c .LASF3185
C:\Users\SOLDER~1\AppData\Local\Temp\ccI3TRm9.s:30936  .debug_str:00000000000215a9 .LASF3186
C:\Users\SOLDER~1\AppData\Local\Temp\ccI3TRm9.s:29378  .debug_str:000000000001b172 .LASF3187
C:\Users\SOLDER~1\AppData\Local\Temp\ccI3TRm9.s:26388  .debug_str:000000000000ef6e .LASF3188
C:\Users\SOLDER~1\AppData\Local\Temp\ccI3TRm9.s:27816  .debug_str:0000000000014cb7 .LASF3189
C:\Users\SOLDER~1\AppData\Local\Temp\ccI3TRm9.s:22960  .debug_str:000000000000110b .LASF3190
C:\Users\SOLDER~1\AppData\Local\Temp\ccI3TRm9.s:25270  .debug_str:000000000000a645 .LASF3191
C:\Users\SOLDER~1\AppData\Local\Temp\ccI3TRm9.s:32894  .debug_str:00000000000295ea .LASF3192
C:\Users\SOLDER~1\AppData\Local\Temp\ccI3TRm9.s:23584  .debug_str:000000000000393d .LASF3193
C:\Users\SOLDER~1\AppData\Local\Temp\ccI3TRm9.s:28158  .debug_str:00000000000162c1 .LASF3194
C:\Users\SOLDER~1\AppData\Local\Temp\ccI3TRm9.s:33324  .debug_str:000000000002b12c .LASF3195
C:\Users\SOLDER~1\AppData\Local\Temp\ccI3TRm9.s:25232  .debug_str:000000000000a3ca .LASF3196
C:\Users\SOLDER~1\AppData\Local\Temp\ccI3TRm9.s:31590  .debug_str:0000000000024060 .LASF3197
C:\Users\SOLDER~1\AppData\Local\Temp\ccI3TRm9.s:29800  .debug_str:000000000001cbbb .LASF3198
C:\Users\SOLDER~1\AppData\Local\Temp\ccI3TRm9.s:31152  .debug_str:00000000000223ba .LASF3199
C:\Users\SOLDER~1\AppData\Local\Temp\ccI3TRm9.s:28888  .debug_str:00000000000191d9 .LASF3200
C:\Users\SOLDER~1\AppData\Local\Temp\ccI3TRm9.s:28238  .debug_str:00000000000167ef .LASF3201
C:\Users\SOLDER~1\AppData\Local\Temp\ccI3TRm9.s:24966  .debug_str:0000000000009243 .LASF3202
C:\Users\SOLDER~1\AppData\Local\Temp\ccI3TRm9.s:31650  .debug_str:0000000000024409 .LASF3203
C:\Users\SOLDER~1\AppData\Local\Temp\ccI3TRm9.s:26318  .debug_str:000000000000eb32 .LASF3204
C:\Users\SOLDER~1\AppData\Local\Temp\ccI3TRm9.s:24798  .debug_str:0000000000008714 .LASF3205
C:\Users\SOLDER~1\AppData\Local\Temp\ccI3TRm9.s:24298  .debug_str:00000000000066aa .LASF3206
C:\Users\SOLDER~1\AppData\Local\Temp\ccI3TRm9.s:32194  .debug_str:00000000000267cc .LASF3207
C:\Users\SOLDER~1\AppData\Local\Temp\ccI3TRm9.s:25152  .debug_str:0000000000009e3c .LASF3208
C:\Users\SOLDER~1\AppData\Local\Temp\ccI3TRm9.s:27240  .debug_str:000000000001263c .LASF3209
C:\Users\SOLDER~1\AppData\Local\Temp\ccI3TRm9.s:27236  .debug_str:0000000000012603 .LASF3210
C:\Users\SOLDER~1\AppData\Local\Temp\ccI3TRm9.s:28320  .debug_str:0000000000016ce2 .LASF3211
C:\Users\SOLDER~1\AppData\Local\Temp\ccI3TRm9.s:32714  .debug_str:0000000000028a61 .LASF3212
C:\Users\SOLDER~1\AppData\Local\Temp\ccI3TRm9.s:32338  .debug_str:0000000000027168 .LASF3213
C:\Users\SOLDER~1\AppData\Local\Temp\ccI3TRm9.s:29996  .debug_str:000000000001d8cf .LASF3214
GAS LISTING C:\Users\SOLDER~1\AppData\Local\Temp\ccI3TRm9.s 			page 151


C:\Users\SOLDER~1\AppData\Local\Temp\ccI3TRm9.s:24168  .debug_str:0000000000005e09 .LASF3215
C:\Users\SOLDER~1\AppData\Local\Temp\ccI3TRm9.s:31758  .debug_str:0000000000024b1e .LASF3216
C:\Users\SOLDER~1\AppData\Local\Temp\ccI3TRm9.s:33044  .debug_str:0000000000029f38 .LASF3217
C:\Users\SOLDER~1\AppData\Local\Temp\ccI3TRm9.s:26468  .debug_str:000000000000f486 .LASF3218
C:\Users\SOLDER~1\AppData\Local\Temp\ccI3TRm9.s:30154  .debug_str:000000000001e2d9 .LASF3219
C:\Users\SOLDER~1\AppData\Local\Temp\ccI3TRm9.s:28294  .debug_str:0000000000016b40 .LASF3220
C:\Users\SOLDER~1\AppData\Local\Temp\ccI3TRm9.s:30160  .debug_str:000000000001e348 .LASF3221
C:\Users\SOLDER~1\AppData\Local\Temp\ccI3TRm9.s:25388  .debug_str:000000000000aded .LASF3222
C:\Users\SOLDER~1\AppData\Local\Temp\ccI3TRm9.s:24844  .debug_str:00000000000089fd .LASF3223
C:\Users\SOLDER~1\AppData\Local\Temp\ccI3TRm9.s:33878  .debug_str:000000000002d510 .LASF3224
C:\Users\SOLDER~1\AppData\Local\Temp\ccI3TRm9.s:24526  .debug_str:00000000000075c2 .LASF3225
C:\Users\SOLDER~1\AppData\Local\Temp\ccI3TRm9.s:32932  .debug_str:0000000000029829 .LASF3226
C:\Users\SOLDER~1\AppData\Local\Temp\ccI3TRm9.s:25518  .debug_str:000000000000b660 .LASF3227
C:\Users\SOLDER~1\AppData\Local\Temp\ccI3TRm9.s:28336  .debug_str:0000000000016df9 .LASF3228
C:\Users\SOLDER~1\AppData\Local\Temp\ccI3TRm9.s:25598  .debug_str:000000000000bb99 .LASF3229
C:\Users\SOLDER~1\AppData\Local\Temp\ccI3TRm9.s:22898  .debug_str:0000000000000d58 .LASF3230
C:\Users\SOLDER~1\AppData\Local\Temp\ccI3TRm9.s:32044  .debug_str:0000000000025d77 .LASF3231
C:\Users\SOLDER~1\AppData\Local\Temp\ccI3TRm9.s:33216  .debug_str:000000000002aa46 .LASF3232
C:\Users\SOLDER~1\AppData\Local\Temp\ccI3TRm9.s:23152  .debug_str:0000000000001d3d .LASF3233
C:\Users\SOLDER~1\AppData\Local\Temp\ccI3TRm9.s:27300  .debug_str:0000000000012a14 .LASF3234
C:\Users\SOLDER~1\AppData\Local\Temp\ccI3TRm9.s:34134  .debug_str:000000000002e5cc .LASF3235
C:\Users\SOLDER~1\AppData\Local\Temp\ccI3TRm9.s:31876  .debug_str:0000000000025308 .LASF3236
C:\Users\SOLDER~1\AppData\Local\Temp\ccI3TRm9.s:26412  .debug_str:000000000000f106 .LASF3237
C:\Users\SOLDER~1\AppData\Local\Temp\ccI3TRm9.s:30122  .debug_str:000000000001e0ba .LASF3238
C:\Users\SOLDER~1\AppData\Local\Temp\ccI3TRm9.s:33776  .debug_str:000000000002cebb .LASF3239
C:\Users\SOLDER~1\AppData\Local\Temp\ccI3TRm9.s:25738  .debug_str:000000000000c4c3 .LASF3240
C:\Users\SOLDER~1\AppData\Local\Temp\ccI3TRm9.s:31926  .debug_str:000000000002561a .LASF3241
C:\Users\SOLDER~1\AppData\Local\Temp\ccI3TRm9.s:33672  .debug_str:000000000002c7d1 .LASF3242
C:\Users\SOLDER~1\AppData\Local\Temp\ccI3TRm9.s:27498  .debug_str:00000000000136f3 .LASF3243
C:\Users\SOLDER~1\AppData\Local\Temp\ccI3TRm9.s:26660  .debug_str:000000000001017f .LASF3244
C:\Users\SOLDER~1\AppData\Local\Temp\ccI3TRm9.s:32662  .debug_str:00000000000286cc .LASF3245
C:\Users\SOLDER~1\AppData\Local\Temp\ccI3TRm9.s:30298  .debug_str:000000000001ec3f .LASF3246
C:\Users\SOLDER~1\AppData\Local\Temp\ccI3TRm9.s:32824  .debug_str:000000000002919b .LASF3247
C:\Users\SOLDER~1\AppData\Local\Temp\ccI3TRm9.s:26510  .debug_str:000000000000f732 .LASF3248
C:\Users\SOLDER~1\AppData\Local\Temp\ccI3TRm9.s:33570  .debug_str:000000000002c148 .LASF3249
C:\Users\SOLDER~1\AppData\Local\Temp\ccI3TRm9.s:27936  .debug_str:0000000000015466 .LASF3250
C:\Users\SOLDER~1\AppData\Local\Temp\ccI3TRm9.s:34230  .debug_str:000000000002ebda .LASF3251
C:\Users\SOLDER~1\AppData\Local\Temp\ccI3TRm9.s:33288  .debug_str:000000000002af01 .LASF3252
C:\Users\SOLDER~1\AppData\Local\Temp\ccI3TRm9.s:32240  .debug_str:0000000000026ae2 .LASF3253
C:\Users\SOLDER~1\AppData\Local\Temp\ccI3TRm9.s:33000  .debug_str:0000000000029c38 .LASF3254
C:\Users\SOLDER~1\AppData\Local\Temp\ccI3TRm9.s:29782  .debug_str:000000000001ca79 .LASF3255
C:\Users\SOLDER~1\AppData\Local\Temp\ccI3TRm9.s:27020  .debug_str:0000000000011833 .LASF3256
C:\Users\SOLDER~1\AppData\Local\Temp\ccI3TRm9.s:24654  .debug_str:0000000000007dd1 .LASF3257
C:\Users\SOLDER~1\AppData\Local\Temp\ccI3TRm9.s:25644  .debug_str:000000000000bec0 .LASF3258
C:\Users\SOLDER~1\AppData\Local\Temp\ccI3TRm9.s:29612  .debug_str:000000000001bf68 .LASF3259
C:\Users\SOLDER~1\AppData\Local\Temp\ccI3TRm9.s:26822  .debug_str:0000000000010b8d .LASF3260
C:\Users\SOLDER~1\AppData\Local\Temp\ccI3TRm9.s:29508  .debug_str:000000000001b92f .LASF3261
C:\Users\SOLDER~1\AppData\Local\Temp\ccI3TRm9.s:31168  .debug_str:00000000000224bd .LASF3262
C:\Users\SOLDER~1\AppData\Local\Temp\ccI3TRm9.s:31740  .debug_str:00000000000249d1 .LASF3263
C:\Users\SOLDER~1\AppData\Local\Temp\ccI3TRm9.s:24802  .debug_str:0000000000008747 .LASF3264
C:\Users\SOLDER~1\AppData\Local\Temp\ccI3TRm9.s:32720  .debug_str:0000000000028abc .LASF3265
C:\Users\SOLDER~1\AppData\Local\Temp\ccI3TRm9.s:29070  .debug_str:0000000000019dde .LASF3266
C:\Users\SOLDER~1\AppData\Local\Temp\ccI3TRm9.s:25806  .debug_str:000000000000c97a .LASF3267
C:\Users\SOLDER~1\AppData\Local\Temp\ccI3TRm9.s:25018  .debug_str:00000000000095c3 .LASF3268
C:\Users\SOLDER~1\AppData\Local\Temp\ccI3TRm9.s:24722  .debug_str:0000000000008277 .LASF3269
C:\Users\SOLDER~1\AppData\Local\Temp\ccI3TRm9.s:26574  .debug_str:000000000000fb88 .LASF3270
C:\Users\SOLDER~1\AppData\Local\Temp\ccI3TRm9.s:28816  .debug_str:0000000000018cf6 .LASF3271
GAS LISTING C:\Users\SOLDER~1\AppData\Local\Temp\ccI3TRm9.s 			page 152


C:\Users\SOLDER~1\AppData\Local\Temp\ccI3TRm9.s:27822  .debug_str:0000000000014d1a .LASF3272
C:\Users\SOLDER~1\AppData\Local\Temp\ccI3TRm9.s:30126  .debug_str:000000000001e0fe .LASF3273
C:\Users\SOLDER~1\AppData\Local\Temp\ccI3TRm9.s:23248  .debug_str:00000000000023b6 .LASF3274
C:\Users\SOLDER~1\AppData\Local\Temp\ccI3TRm9.s:26312  .debug_str:000000000000eaad .LASF3275
C:\Users\SOLDER~1\AppData\Local\Temp\ccI3TRm9.s:28010  .debug_str:0000000000015978 .LASF3276
C:\Users\SOLDER~1\AppData\Local\Temp\ccI3TRm9.s:30458  .debug_str:000000000001f6d8 .LASF3277
C:\Users\SOLDER~1\AppData\Local\Temp\ccI3TRm9.s:31354  .debug_str:00000000000230b9 .LASF3278
C:\Users\SOLDER~1\AppData\Local\Temp\ccI3TRm9.s:34342  .debug_str:000000000002f2f1 .LASF3279
C:\Users\SOLDER~1\AppData\Local\Temp\ccI3TRm9.s:33194  .debug_str:000000000002a8bf .LASF3280
C:\Users\SOLDER~1\AppData\Local\Temp\ccI3TRm9.s:33464  .debug_str:000000000002ba75 .LASF3281
C:\Users\SOLDER~1\AppData\Local\Temp\ccI3TRm9.s:24890  .debug_str:0000000000008d1f .LASF3282
C:\Users\SOLDER~1\AppData\Local\Temp\ccI3TRm9.s:28648  .debug_str:0000000000018221 .LASF3283
C:\Users\SOLDER~1\AppData\Local\Temp\ccI3TRm9.s:33990  .debug_str:000000000002dcb9 .LASF3284
C:\Users\SOLDER~1\AppData\Local\Temp\ccI3TRm9.s:31838  .debug_str:0000000000025060 .LASF3285
C:\Users\SOLDER~1\AppData\Local\Temp\ccI3TRm9.s:26316  .debug_str:000000000000eaff .LASF3286
C:\Users\SOLDER~1\AppData\Local\Temp\ccI3TRm9.s:27870  .debug_str:0000000000015067 .LASF3287
C:\Users\SOLDER~1\AppData\Local\Temp\ccI3TRm9.s:25764  .debug_str:000000000000c68e .LASF3288
C:\Users\SOLDER~1\AppData\Local\Temp\ccI3TRm9.s:27040  .debug_str:00000000000119a9 .LASF3289
C:\Users\SOLDER~1\AppData\Local\Temp\ccI3TRm9.s:27662  .debug_str:0000000000014231 .LASF3290
C:\Users\SOLDER~1\AppData\Local\Temp\ccI3TRm9.s:27036  .debug_str:000000000001195e .LASF3291
C:\Users\SOLDER~1\AppData\Local\Temp\ccI3TRm9.s:30326  .debug_str:000000000001ee14 .LASF3292
C:\Users\SOLDER~1\AppData\Local\Temp\ccI3TRm9.s:27424  .debug_str:0000000000013202 .LASF3293
C:\Users\SOLDER~1\AppData\Local\Temp\ccI3TRm9.s:32638  .debug_str:00000000000284ff .LASF3294
C:\Users\SOLDER~1\AppData\Local\Temp\ccI3TRm9.s:29986  .debug_str:000000000001d821 .LASF3295
C:\Users\SOLDER~1\AppData\Local\Temp\ccI3TRm9.s:31138  .debug_str:00000000000222da .LASF3296
C:\Users\SOLDER~1\AppData\Local\Temp\ccI3TRm9.s:28630  .debug_str:00000000000180e2 .LASF3297
C:\Users\SOLDER~1\AppData\Local\Temp\ccI3TRm9.s:24090  .debug_str:00000000000058cb .LASF3298
C:\Users\SOLDER~1\AppData\Local\Temp\ccI3TRm9.s:26592  .debug_str:000000000000fcc1 .LASF3299
C:\Users\SOLDER~1\AppData\Local\Temp\ccI3TRm9.s:28198  .debug_str:000000000001655c .LASF3300
C:\Users\SOLDER~1\AppData\Local\Temp\ccI3TRm9.s:30100  .debug_str:000000000001df47 .LASF3301
C:\Users\SOLDER~1\AppData\Local\Temp\ccI3TRm9.s:29650  .debug_str:000000000001c1cb .LASF3302
C:\Users\SOLDER~1\AppData\Local\Temp\ccI3TRm9.s:25938  .debug_str:000000000000d259 .LASF3303
C:\Users\SOLDER~1\AppData\Local\Temp\ccI3TRm9.s:23468  .debug_str:00000000000031d7 .LASF3304
C:\Users\SOLDER~1\AppData\Local\Temp\ccI3TRm9.s:29640  .debug_str:000000000001c114 .LASF3305
C:\Users\SOLDER~1\AppData\Local\Temp\ccI3TRm9.s:24918  .debug_str:0000000000008ed9 .LASF3306
C:\Users\SOLDER~1\AppData\Local\Temp\ccI3TRm9.s:26386  .debug_str:000000000000ef3b .LASF3307
C:\Users\SOLDER~1\AppData\Local\Temp\ccI3TRm9.s:23788  .debug_str:00000000000045ce .LASF3308
C:\Users\SOLDER~1\AppData\Local\Temp\ccI3TRm9.s:26732  .debug_str:00000000000105df .LASF3309
C:\Users\SOLDER~1\AppData\Local\Temp\ccI3TRm9.s:23976  .debug_str:000000000000518f .LASF3310
C:\Users\SOLDER~1\AppData\Local\Temp\ccI3TRm9.s:22760  .debug_str:0000000000000333 .LASF3311
C:\Users\SOLDER~1\AppData\Local\Temp\ccI3TRm9.s:25198  .debug_str:000000000000a17a .LASF3312
C:\Users\SOLDER~1\AppData\Local\Temp\ccI3TRm9.s:30400  .debug_str:000000000001f2fb .LASF3313
C:\Users\SOLDER~1\AppData\Local\Temp\ccI3TRm9.s:33326  .debug_str:000000000002b141 .LASF3314
C:\Users\SOLDER~1\AppData\Local\Temp\ccI3TRm9.s:22940  .debug_str:0000000000000fb6 .LASF3315
C:\Users\SOLDER~1\AppData\Local\Temp\ccI3TRm9.s:23628  .debug_str:0000000000003c01 .LASF3316
C:\Users\SOLDER~1\AppData\Local\Temp\ccI3TRm9.s:28254  .debug_str:00000000000168fb .LASF3317
C:\Users\SOLDER~1\AppData\Local\Temp\ccI3TRm9.s:29270  .debug_str:000000000001aa33 .LASF3318
C:\Users\SOLDER~1\AppData\Local\Temp\ccI3TRm9.s:28824  .debug_str:0000000000018d86 .LASF3319
C:\Users\SOLDER~1\AppData\Local\Temp\ccI3TRm9.s:33984  .debug_str:000000000002dc54 .LASF3320
C:\Users\SOLDER~1\AppData\Local\Temp\ccI3TRm9.s:30456  .debug_str:000000000001f6af .LASF3321
C:\Users\SOLDER~1\AppData\Local\Temp\ccI3TRm9.s:26940  .debug_str:00000000000112fd .LASF3322
C:\Users\SOLDER~1\AppData\Local\Temp\ccI3TRm9.s:23394  .debug_str:0000000000002d18 .LASF3323
C:\Users\SOLDER~1\AppData\Local\Temp\ccI3TRm9.s:31574  .debug_str:0000000000023f47 .LASF3324
C:\Users\SOLDER~1\AppData\Local\Temp\ccI3TRm9.s:27636  .debug_str:000000000001406d .LASF3325
C:\Users\SOLDER~1\AppData\Local\Temp\ccI3TRm9.s:27070  .debug_str:0000000000011b60 .LASF3326
C:\Users\SOLDER~1\AppData\Local\Temp\ccI3TRm9.s:26512  .debug_str:000000000000f761 .LASF3327
C:\Users\SOLDER~1\AppData\Local\Temp\ccI3TRm9.s:28900  .debug_str:00000000000192b7 .LASF3328
GAS LISTING C:\Users\SOLDER~1\AppData\Local\Temp\ccI3TRm9.s 			page 153


C:\Users\SOLDER~1\AppData\Local\Temp\ccI3TRm9.s:31638  .debug_str:0000000000024326 .LASF3329
C:\Users\SOLDER~1\AppData\Local\Temp\ccI3TRm9.s:22788  .debug_str:0000000000000507 .LASF3330
C:\Users\SOLDER~1\AppData\Local\Temp\ccI3TRm9.s:24322  .debug_str:0000000000006867 .LASF3331
C:\Users\SOLDER~1\AppData\Local\Temp\ccI3TRm9.s:23302  .debug_str:000000000000273f .LASF3332
C:\Users\SOLDER~1\AppData\Local\Temp\ccI3TRm9.s:30552  .debug_str:000000000001fd3b .LASF3333
C:\Users\SOLDER~1\AppData\Local\Temp\ccI3TRm9.s:32946  .debug_str:00000000000298fb .LASF3334
C:\Users\SOLDER~1\AppData\Local\Temp\ccI3TRm9.s:25726  .debug_str:000000000000c3ed .LASF3335
C:\Users\SOLDER~1\AppData\Local\Temp\ccI3TRm9.s:30826  .debug_str:0000000000020eb0 .LASF3336
C:\Users\SOLDER~1\AppData\Local\Temp\ccI3TRm9.s:23938  .debug_str:0000000000004f5f .LASF3337
C:\Users\SOLDER~1\AppData\Local\Temp\ccI3TRm9.s:24884  .debug_str:0000000000008cad .LASF3338
C:\Users\SOLDER~1\AppData\Local\Temp\ccI3TRm9.s:26506  .debug_str:000000000000f6df .LASF3339
C:\Users\SOLDER~1\AppData\Local\Temp\ccI3TRm9.s:24388  .debug_str:0000000000006c91 .LASF3340
C:\Users\SOLDER~1\AppData\Local\Temp\ccI3TRm9.s:34352  .debug_str:000000000002f3a3 .LASF3341
C:\Users\SOLDER~1\AppData\Local\Temp\ccI3TRm9.s:29830  .debug_str:000000000001cd9d .LASF3342
C:\Users\SOLDER~1\AppData\Local\Temp\ccI3TRm9.s:30692  .debug_str:00000000000205fb .LASF3343
C:\Users\SOLDER~1\AppData\Local\Temp\ccI3TRm9.s:28926  .debug_str:000000000001947a .LASF3344
C:\Users\SOLDER~1\AppData\Local\Temp\ccI3TRm9.s:27088  .debug_str:0000000000011c9e .LASF3345
C:\Users\SOLDER~1\AppData\Local\Temp\ccI3TRm9.s:24554  .debug_str:0000000000007772 .LASF3346
C:\Users\SOLDER~1\AppData\Local\Temp\ccI3TRm9.s:33382  .debug_str:000000000002b502 .LASF3347
C:\Users\SOLDER~1\AppData\Local\Temp\ccI3TRm9.s:25596  .debug_str:000000000000bb7d .LASF3348
C:\Users\SOLDER~1\AppData\Local\Temp\ccI3TRm9.s:27998  .debug_str:00000000000158b3 .LASF3349
C:\Users\SOLDER~1\AppData\Local\Temp\ccI3TRm9.s:31176  .debug_str:000000000002254a .LASF3350
C:\Users\SOLDER~1\AppData\Local\Temp\ccI3TRm9.s:32278  .debug_str:0000000000026d68 .LASF3351
C:\Users\SOLDER~1\AppData\Local\Temp\ccI3TRm9.s:27736  .debug_str:0000000000014778 .LASF3352
C:\Users\SOLDER~1\AppData\Local\Temp\ccI3TRm9.s:28026  .debug_str:0000000000015a7e .LASF3353
C:\Users\SOLDER~1\AppData\Local\Temp\ccI3TRm9.s:27746  .debug_str:000000000001480b .LASF3354
C:\Users\SOLDER~1\AppData\Local\Temp\ccI3TRm9.s:24206  .debug_str:0000000000006067 .LASF3355
C:\Users\SOLDER~1\AppData\Local\Temp\ccI3TRm9.s:32408  .debug_str:00000000000275f5 .LASF3356
C:\Users\SOLDER~1\AppData\Local\Temp\ccI3TRm9.s:31496  .debug_str:0000000000023a28 .LASF3357
C:\Users\SOLDER~1\AppData\Local\Temp\ccI3TRm9.s:28772  .debug_str:0000000000018a31 .LASF3358
C:\Users\SOLDER~1\AppData\Local\Temp\ccI3TRm9.s:33624  .debug_str:000000000002c4b8 .LASF3359
C:\Users\SOLDER~1\AppData\Local\Temp\ccI3TRm9.s:25770  .debug_str:000000000000c705 .LASF3360
C:\Users\SOLDER~1\AppData\Local\Temp\ccI3TRm9.s:30610  .debug_str:00000000000200c4 .LASF3361
C:\Users\SOLDER~1\AppData\Local\Temp\ccI3TRm9.s:33446  .debug_str:000000000002b916 .LASF3362
C:\Users\SOLDER~1\AppData\Local\Temp\ccI3TRm9.s:32950  .debug_str:0000000000029948 .LASF3363
C:\Users\SOLDER~1\AppData\Local\Temp\ccI3TRm9.s:30782  .debug_str:0000000000020bc9 .LASF3364
C:\Users\SOLDER~1\AppData\Local\Temp\ccI3TRm9.s:30142  .debug_str:000000000001e1f5 .LASF3365
C:\Users\SOLDER~1\AppData\Local\Temp\ccI3TRm9.s:31264  .debug_str:0000000000022a9a .LASF3366
C:\Users\SOLDER~1\AppData\Local\Temp\ccI3TRm9.s:32430  .debug_str:000000000002779c .LASF3367
C:\Users\SOLDER~1\AppData\Local\Temp\ccI3TRm9.s:33526  .debug_str:000000000002be46 .LASF3368
C:\Users\SOLDER~1\AppData\Local\Temp\ccI3TRm9.s:26594  .debug_str:000000000000fce9 .LASF3369
C:\Users\SOLDER~1\AppData\Local\Temp\ccI3TRm9.s:31370  .debug_str:00000000000231e0 .LASF3370
C:\Users\SOLDER~1\AppData\Local\Temp\ccI3TRm9.s:32352  .debug_str:0000000000027267 .LASF3371
C:\Users\SOLDER~1\AppData\Local\Temp\ccI3TRm9.s:24188  .debug_str:0000000000005f2e .LASF3372
C:\Users\SOLDER~1\AppData\Local\Temp\ccI3TRm9.s:34166  .debug_str:000000000002e7f2 .LASF3373
C:\Users\SOLDER~1\AppData\Local\Temp\ccI3TRm9.s:31276  .debug_str:0000000000022b5f .LASF3374
C:\Users\SOLDER~1\AppData\Local\Temp\ccI3TRm9.s:32790  .debug_str:0000000000028f16 .LASF3375
C:\Users\SOLDER~1\AppData\Local\Temp\ccI3TRm9.s:25488  .debug_str:000000000000b464 .LASF3376
C:\Users\SOLDER~1\AppData\Local\Temp\ccI3TRm9.s:27288  .debug_str:000000000001294d .LASF3377
C:\Users\SOLDER~1\AppData\Local\Temp\ccI3TRm9.s:24548  .debug_str:0000000000007706 .LASF3378
C:\Users\SOLDER~1\AppData\Local\Temp\ccI3TRm9.s:33554  .debug_str:000000000002c046 .LASF3379
C:\Users\SOLDER~1\AppData\Local\Temp\ccI3TRm9.s:27354  .debug_str:0000000000012d82 .LASF3380
C:\Users\SOLDER~1\AppData\Local\Temp\ccI3TRm9.s:30528  .debug_str:000000000001fb8c .LASF3381
C:\Users\SOLDER~1\AppData\Local\Temp\ccI3TRm9.s:28586  .debug_str:0000000000017e1b .LASF3382
C:\Users\SOLDER~1\AppData\Local\Temp\ccI3TRm9.s:34218  .debug_str:000000000002eb0f .LASF3383
C:\Users\SOLDER~1\AppData\Local\Temp\ccI3TRm9.s:29544  .debug_str:000000000001bb77 .LASF3384
C:\Users\SOLDER~1\AppData\Local\Temp\ccI3TRm9.s:29140  .debug_str:000000000001a22a .LASF3385
GAS LISTING C:\Users\SOLDER~1\AppData\Local\Temp\ccI3TRm9.s 			page 154


C:\Users\SOLDER~1\AppData\Local\Temp\ccI3TRm9.s:33106  .debug_str:000000000002a2f7 .LASF3386
C:\Users\SOLDER~1\AppData\Local\Temp\ccI3TRm9.s:27808  .debug_str:0000000000014c12 .LASF3387
C:\Users\SOLDER~1\AppData\Local\Temp\ccI3TRm9.s:33892  .debug_str:000000000002d5f1 .LASF3388
C:\Users\SOLDER~1\AppData\Local\Temp\ccI3TRm9.s:27898  .debug_str:0000000000015232 .LASF3389
C:\Users\SOLDER~1\AppData\Local\Temp\ccI3TRm9.s:30290  .debug_str:000000000001eba9 .LASF3390
C:\Users\SOLDER~1\AppData\Local\Temp\ccI3TRm9.s:34448  .debug_str:000000000002f96a .LASF3391
C:\Users\SOLDER~1\AppData\Local\Temp\ccI3TRm9.s:26400  .debug_str:000000000000f03a .LASF3392
C:\Users\SOLDER~1\AppData\Local\Temp\ccI3TRm9.s:24924  .debug_str:0000000000008f4e .LASF3393
C:\Users\SOLDER~1\AppData\Local\Temp\ccI3TRm9.s:23022  .debug_str:00000000000014f9 .LASF3394
C:\Users\SOLDER~1\AppData\Local\Temp\ccI3TRm9.s:32048  .debug_str:0000000000025db0 .LASF3395
C:\Users\SOLDER~1\AppData\Local\Temp\ccI3TRm9.s:32174  .debug_str:000000000002664c .LASF3396
C:\Users\SOLDER~1\AppData\Local\Temp\ccI3TRm9.s:29192  .debug_str:000000000001a536 .LASF3397
C:\Users\SOLDER~1\AppData\Local\Temp\ccI3TRm9.s:26232  .debug_str:000000000000e5c7 .LASF3398
C:\Users\SOLDER~1\AppData\Local\Temp\ccI3TRm9.s:25236  .debug_str:000000000000a412 .LASF3399
C:\Users\SOLDER~1\AppData\Local\Temp\ccI3TRm9.s:28434  .debug_str:00000000000173ef .LASF3400
C:\Users\SOLDER~1\AppData\Local\Temp\ccI3TRm9.s:28652  .debug_str:0000000000018270 .LASF3401
C:\Users\SOLDER~1\AppData\Local\Temp\ccI3TRm9.s:33210  .debug_str:000000000002a9bf .LASF3402
C:\Users\SOLDER~1\AppData\Local\Temp\ccI3TRm9.s:28428  .debug_str:000000000001738f .LASF3403
C:\Users\SOLDER~1\AppData\Local\Temp\ccI3TRm9.s:32394  .debug_str:000000000002752c .LASF3404
C:\Users\SOLDER~1\AppData\Local\Temp\ccI3TRm9.s:25494  .debug_str:000000000000b4bc .LASF3405
C:\Users\SOLDER~1\AppData\Local\Temp\ccI3TRm9.s:30308  .debug_str:000000000001ecfc .LASF3406
C:\Users\SOLDER~1\AppData\Local\Temp\ccI3TRm9.s:23384  .debug_str:0000000000002c6a .LASF3407
C:\Users\SOLDER~1\AppData\Local\Temp\ccI3TRm9.s:25112  .debug_str:0000000000009bd2 .LASF3408
C:\Users\SOLDER~1\AppData\Local\Temp\ccI3TRm9.s:33050  .debug_str:0000000000029f8e .LASF3409
C:\Users\SOLDER~1\AppData\Local\Temp\ccI3TRm9.s:33806  .debug_str:000000000002d0ad .LASF3410
C:\Users\SOLDER~1\AppData\Local\Temp\ccI3TRm9.s:23554  .debug_str:0000000000003740 .LASF3411
C:\Users\SOLDER~1\AppData\Local\Temp\ccI3TRm9.s:33508  .debug_str:000000000002bd20 .LASF3412
C:\Users\SOLDER~1\AppData\Local\Temp\ccI3TRm9.s:31636  .debug_str:00000000000242fc .LASF3413
C:\Users\SOLDER~1\AppData\Local\Temp\ccI3TRm9.s:27024  .debug_str:0000000000011894 .LASF3414
C:\Users\SOLDER~1\AppData\Local\Temp\ccI3TRm9.s:28090  .debug_str:0000000000015e79 .LASF3415
C:\Users\SOLDER~1\AppData\Local\Temp\ccI3TRm9.s:33268  .debug_str:000000000002adb5 .LASF3416
C:\Users\SOLDER~1\AppData\Local\Temp\ccI3TRm9.s:24458  .debug_str:0000000000007168 .LASF3417
C:\Users\SOLDER~1\AppData\Local\Temp\ccI3TRm9.s:27910  .debug_str:00000000000152df .LASF3418
C:\Users\SOLDER~1\AppData\Local\Temp\ccI3TRm9.s:26918  .debug_str:000000000001119f .LASF3419
C:\Users\SOLDER~1\AppData\Local\Temp\ccI3TRm9.s:26408  .debug_str:000000000000f0c4 .LASF3420
C:\Users\SOLDER~1\AppData\Local\Temp\ccI3TRm9.s:31796  .debug_str:0000000000024dac .LASF3421
C:\Users\SOLDER~1\AppData\Local\Temp\ccI3TRm9.s:32018  .debug_str:0000000000025be5 .LASF3422
C:\Users\SOLDER~1\AppData\Local\Temp\ccI3TRm9.s:27086  .debug_str:0000000000011c77 .LASF3423
C:\Users\SOLDER~1\AppData\Local\Temp\ccI3TRm9.s:32904  .debug_str:0000000000029683 .LASF3424
C:\Users\SOLDER~1\AppData\Local\Temp\ccI3TRm9.s:30212  .debug_str:000000000001e6a3 .LASF3425
C:\Users\SOLDER~1\AppData\Local\Temp\ccI3TRm9.s:30772  .debug_str:0000000000020b31 .LASF3426
C:\Users\SOLDER~1\AppData\Local\Temp\ccI3TRm9.s:27278  .debug_str:000000000001288e .LASF3427
C:\Users\SOLDER~1\AppData\Local\Temp\ccI3TRm9.s:29170  .debug_str:000000000001a3da .LASF3428
C:\Users\SOLDER~1\AppData\Local\Temp\ccI3TRm9.s:23618  .debug_str:0000000000003b50 .LASF3429
C:\Users\SOLDER~1\AppData\Local\Temp\ccI3TRm9.s:28492  .debug_str:00000000000177e6 .LASF3430
C:\Users\SOLDER~1\AppData\Local\Temp\ccI3TRm9.s:24950  .debug_str:0000000000009126 .LASF3431
C:\Users\SOLDER~1\AppData\Local\Temp\ccI3TRm9.s:30876  .debug_str:00000000000211f3 .LASF3432
C:\Users\SOLDER~1\AppData\Local\Temp\ccI3TRm9.s:33704  .debug_str:000000000002ca0b .LASF3433
C:\Users\SOLDER~1\AppData\Local\Temp\ccI3TRm9.s:26924  .debug_str:000000000001120c .LASF3434
C:\Users\SOLDER~1\AppData\Local\Temp\ccI3TRm9.s:27614  .debug_str:0000000000013ef8 .LASF3435
C:\Users\SOLDER~1\AppData\Local\Temp\ccI3TRm9.s:30408  .debug_str:000000000001f38e .LASF3436
C:\Users\SOLDER~1\AppData\Local\Temp\ccI3TRm9.s:33228  .debug_str:000000000002ab19 .LASF3437
C:\Users\SOLDER~1\AppData\Local\Temp\ccI3TRm9.s:24296  .debug_str:0000000000006680 .LASF3438
C:\Users\SOLDER~1\AppData\Local\Temp\ccI3TRm9.s:27112  .debug_str:0000000000011e15 .LASF3439
C:\Users\SOLDER~1\AppData\Local\Temp\ccI3TRm9.s:24854  .debug_str:0000000000008aa1 .LASF3440
C:\Users\SOLDER~1\AppData\Local\Temp\ccI3TRm9.s:29654  .debug_str:000000000001c21a .LASF3441
C:\Users\SOLDER~1\AppData\Local\Temp\ccI3TRm9.s:22776  .debug_str:0000000000000438 .LASF3442
GAS LISTING C:\Users\SOLDER~1\AppData\Local\Temp\ccI3TRm9.s 			page 155


C:\Users\SOLDER~1\AppData\Local\Temp\ccI3TRm9.s:25774  .debug_str:000000000000c748 .LASF3443
C:\Users\SOLDER~1\AppData\Local\Temp\ccI3TRm9.s:32370  .debug_str:00000000000273ab .LASF3444
C:\Users\SOLDER~1\AppData\Local\Temp\ccI3TRm9.s:24254  .debug_str:00000000000063c3 .LASF3445
C:\Users\SOLDER~1\AppData\Local\Temp\ccI3TRm9.s:30288  .debug_str:000000000001eb7f .LASF3446
C:\Users\SOLDER~1\AppData\Local\Temp\ccI3TRm9.s:27750  .debug_str:000000000001485b .LASF3447
C:\Users\SOLDER~1\AppData\Local\Temp\ccI3TRm9.s:25918  .debug_str:000000000000d119 .LASF3448
C:\Users\SOLDER~1\AppData\Local\Temp\ccI3TRm9.s:32412  .debug_str:0000000000027647 .LASF3449
C:\Users\SOLDER~1\AppData\Local\Temp\ccI3TRm9.s:34066  .debug_str:000000000002e19a .LASF3450
C:\Users\SOLDER~1\AppData\Local\Temp\ccI3TRm9.s:28082  .debug_str:0000000000015dfc .LASF3451
C:\Users\SOLDER~1\AppData\Local\Temp\ccI3TRm9.s:30436  .debug_str:000000000001f55f .LASF3452
C:\Users\SOLDER~1\AppData\Local\Temp\ccI3TRm9.s:28658  .debug_str:00000000000182da .LASF3453
C:\Users\SOLDER~1\AppData\Local\Temp\ccI3TRm9.s:23812  .debug_str:000000000000477d .LASF3454
C:\Users\SOLDER~1\AppData\Local\Temp\ccI3TRm9.s:28930  .debug_str:00000000000194c4 .LASF3455
C:\Users\SOLDER~1\AppData\Local\Temp\ccI3TRm9.s:23348  .debug_str:0000000000002a57 .LASF3456
C:\Users\SOLDER~1\AppData\Local\Temp\ccI3TRm9.s:33494  .debug_str:000000000002bc47 .LASF3457
C:\Users\SOLDER~1\AppData\Local\Temp\ccI3TRm9.s:32688  .debug_str:000000000002887e .LASF3458
C:\Users\SOLDER~1\AppData\Local\Temp\ccI3TRm9.s:34310  .debug_str:000000000002f0cc .LASF3459
C:\Users\SOLDER~1\AppData\Local\Temp\ccI3TRm9.s:27096  .debug_str:0000000000011d42 .LASF3460
C:\Users\SOLDER~1\AppData\Local\Temp\ccI3TRm9.s:31886  .debug_str:0000000000025398 .LASF3461
C:\Users\SOLDER~1\AppData\Local\Temp\ccI3TRm9.s:27192  .debug_str:0000000000012339 .LASF3462
C:\Users\SOLDER~1\AppData\Local\Temp\ccI3TRm9.s:32722  .debug_str:0000000000028adb .LASF3463
C:\Users\SOLDER~1\AppData\Local\Temp\ccI3TRm9.s:31182  .debug_str:00000000000225a8 .LASF3464
C:\Users\SOLDER~1\AppData\Local\Temp\ccI3TRm9.s:24070  .debug_str:0000000000005747 .LASF3465
C:\Users\SOLDER~1\AppData\Local\Temp\ccI3TRm9.s:26546  .debug_str:000000000000f987 .LASF3466
C:\Users\SOLDER~1\AppData\Local\Temp\ccI3TRm9.s:28450  .debug_str:000000000001750b .LASF3467
C:\Users\SOLDER~1\AppData\Local\Temp\ccI3TRm9.s:28626  .debug_str:00000000000180a9 .LASF3468
C:\Users\SOLDER~1\AppData\Local\Temp\ccI3TRm9.s:26002  .debug_str:000000000000d6a4 .LASF3469
C:\Users\SOLDER~1\AppData\Local\Temp\ccI3TRm9.s:28758  .debug_str:0000000000018966 .LASF3470
C:\Users\SOLDER~1\AppData\Local\Temp\ccI3TRm9.s:33580  .debug_str:000000000002c1db .LASF3471
C:\Users\SOLDER~1\AppData\Local\Temp\ccI3TRm9.s:30360  .debug_str:000000000001f06d .LASF3472
C:\Users\SOLDER~1\AppData\Local\Temp\ccI3TRm9.s:23602  .debug_str:0000000000003a51 .LASF3473
C:\Users\SOLDER~1\AppData\Local\Temp\ccI3TRm9.s:24300  .debug_str:00000000000066cc .LASF3474
C:\Users\SOLDER~1\AppData\Local\Temp\ccI3TRm9.s:27592  .debug_str:0000000000013d47 .LASF3475
C:\Users\SOLDER~1\AppData\Local\Temp\ccI3TRm9.s:25888  .debug_str:000000000000cf30 .LASF3476
C:\Users\SOLDER~1\AppData\Local\Temp\ccI3TRm9.s:27700  .debug_str:00000000000144c4 .LASF3477
C:\Users\SOLDER~1\AppData\Local\Temp\ccI3TRm9.s:24572  .debug_str:0000000000007890 .LASF3478
C:\Users\SOLDER~1\AppData\Local\Temp\ccI3TRm9.s:24920  .debug_str:0000000000008f09 .LASF3479
C:\Users\SOLDER~1\AppData\Local\Temp\ccI3TRm9.s:24516  .debug_str:0000000000007528 .LASF3480
C:\Users\SOLDER~1\AppData\Local\Temp\ccI3TRm9.s:28878  .debug_str:0000000000019130 .LASF3481
C:\Users\SOLDER~1\AppData\Local\Temp\ccI3TRm9.s:33490  .debug_str:000000000002bc0a .LASF3482
C:\Users\SOLDER~1\AppData\Local\Temp\ccI3TRm9.s:23448  .debug_str:000000000000309d .LASF3483
C:\Users\SOLDER~1\AppData\Local\Temp\ccI3TRm9.s:31204  .debug_str:000000000002271a .LASF3484
C:\Users\SOLDER~1\AppData\Local\Temp\ccI3TRm9.s:27576  .debug_str:0000000000013c2b .LASF3485
C:\Users\SOLDER~1\AppData\Local\Temp\ccI3TRm9.s:24696  .debug_str:00000000000080a1 .LASF3486
C:\Users\SOLDER~1\AppData\Local\Temp\ccI3TRm9.s:23426  .debug_str:0000000000002f54 .LASF3487
C:\Users\SOLDER~1\AppData\Local\Temp\ccI3TRm9.s:32780  .debug_str:0000000000028e7a .LASF3488
C:\Users\SOLDER~1\AppData\Local\Temp\ccI3TRm9.s:28856  .debug_str:0000000000018fbb .LASF3489
C:\Users\SOLDER~1\AppData\Local\Temp\ccI3TRm9.s:30248  .debug_str:000000000001e8f1 .LASF3490
C:\Users\SOLDER~1\AppData\Local\Temp\ccI3TRm9.s:27492  .debug_str:0000000000013697 .LASF3491
C:\Users\SOLDER~1\AppData\Local\Temp\ccI3TRm9.s:29758  .debug_str:000000000001c8e5 .LASF3492
C:\Users\SOLDER~1\AppData\Local\Temp\ccI3TRm9.s:26254  .debug_str:000000000000e729 .LASF3493
C:\Users\SOLDER~1\AppData\Local\Temp\ccI3TRm9.s:25700  .debug_str:000000000000c22e .LASF3494
C:\Users\SOLDER~1\AppData\Local\Temp\ccI3TRm9.s:30842  .debug_str:0000000000020fc2 .LASF3495
C:\Users\SOLDER~1\AppData\Local\Temp\ccI3TRm9.s:33400  .debug_str:000000000002b61d .LASF3496
C:\Users\SOLDER~1\AppData\Local\Temp\ccI3TRm9.s:32452  .debug_str:00000000000278f0 .LASF3497
C:\Users\SOLDER~1\AppData\Local\Temp\ccI3TRm9.s:24432  .debug_str:0000000000006f86 .LASF3498
C:\Users\SOLDER~1\AppData\Local\Temp\ccI3TRm9.s:28848  .debug_str:0000000000018f2d .LASF3499
GAS LISTING C:\Users\SOLDER~1\AppData\Local\Temp\ccI3TRm9.s 			page 156


C:\Users\SOLDER~1\AppData\Local\Temp\ccI3TRm9.s:28212  .debug_str:0000000000016649 .LASF3500
C:\Users\SOLDER~1\AppData\Local\Temp\ccI3TRm9.s:24034  .debug_str:0000000000005519 .LASF3501
C:\Users\SOLDER~1\AppData\Local\Temp\ccI3TRm9.s:23368  .debug_str:0000000000002b69 .LASF3502
C:\Users\SOLDER~1\AppData\Local\Temp\ccI3TRm9.s:25384  .debug_str:000000000000adb5 .LASF3503
C:\Users\SOLDER~1\AppData\Local\Temp\ccI3TRm9.s:31612  .debug_str:000000000002418d .LASF3504
C:\Users\SOLDER~1\AppData\Local\Temp\ccI3TRm9.s:34360  .debug_str:000000000002f422 .LASF3505
C:\Users\SOLDER~1\AppData\Local\Temp\ccI3TRm9.s:31916  .debug_str:000000000002556e .LASF3506
C:\Users\SOLDER~1\AppData\Local\Temp\ccI3TRm9.s:33028  .debug_str:0000000000029e38 .LASF3507
C:\Users\SOLDER~1\AppData\Local\Temp\ccI3TRm9.s:32758  .debug_str:0000000000028d1f .LASF3508
C:\Users\SOLDER~1\AppData\Local\Temp\ccI3TRm9.s:24758  .debug_str:00000000000084ab .LASF3509
C:\Users\SOLDER~1\AppData\Local\Temp\ccI3TRm9.s:29832  .debug_str:000000000001cdc6 .LASF3510
C:\Users\SOLDER~1\AppData\Local\Temp\ccI3TRm9.s:30178  .debug_str:000000000001e48c .LASF3511
C:\Users\SOLDER~1\AppData\Local\Temp\ccI3TRm9.s:33736  .debug_str:000000000002cc2d .LASF3512
C:\Users\SOLDER~1\AppData\Local\Temp\ccI3TRm9.s:26380  .debug_str:000000000000eed9 .LASF3513
C:\Users\SOLDER~1\AppData\Local\Temp\ccI3TRm9.s:34156  .debug_str:000000000002e75f .LASF3514
C:\Users\SOLDER~1\AppData\Local\Temp\ccI3TRm9.s:30344  .debug_str:000000000001ef61 .LASF3515
C:\Users\SOLDER~1\AppData\Local\Temp\ccI3TRm9.s:32268  .debug_str:0000000000026cde .LASF3516
C:\Users\SOLDER~1\AppData\Local\Temp\ccI3TRm9.s:24176  .debug_str:0000000000005e77 .LASF3517
C:\Users\SOLDER~1\AppData\Local\Temp\ccI3TRm9.s:32928  .debug_str:00000000000297f3 .LASF3518
C:\Users\SOLDER~1\AppData\Local\Temp\ccI3TRm9.s:29182  .debug_str:000000000001a4ac .LASF3519
C:\Users\SOLDER~1\AppData\Local\Temp\ccI3TRm9.s:28456  .debug_str:000000000001757d .LASF3520
C:\Users\SOLDER~1\AppData\Local\Temp\ccI3TRm9.s:33304  .debug_str:000000000002b01d .LASF3521
C:\Users\SOLDER~1\AppData\Local\Temp\ccI3TRm9.s:26494  .debug_str:000000000000f623 .LASF3522
C:\Users\SOLDER~1\AppData\Local\Temp\ccI3TRm9.s:29494  .debug_str:000000000001b843 .LASF3523
C:\Users\SOLDER~1\AppData\Local\Temp\ccI3TRm9.s:24582  .debug_str:0000000000007910 .LASF3524
C:\Users\SOLDER~1\AppData\Local\Temp\ccI3TRm9.s:28156  .debug_str:000000000001629e .LASF3525
C:\Users\SOLDER~1\AppData\Local\Temp\ccI3TRm9.s:23366  .debug_str:0000000000002b50 .LASF3526
C:\Users\SOLDER~1\AppData\Local\Temp\ccI3TRm9.s:28470  .debug_str:0000000000017698 .LASF3527
C:\Users\SOLDER~1\AppData\Local\Temp\ccI3TRm9.s:32984  .debug_str:0000000000029b37 .LASF3528
C:\Users\SOLDER~1\AppData\Local\Temp\ccI3TRm9.s:23060  .debug_str:000000000000174d .LASF3529
C:\Users\SOLDER~1\AppData\Local\Temp\ccI3TRm9.s:33770  .debug_str:000000000002ce3e .LASF3530
C:\Users\SOLDER~1\AppData\Local\Temp\ccI3TRm9.s:28496  .debug_str:000000000001783b .LASF3531
C:\Users\SOLDER~1\AppData\Local\Temp\ccI3TRm9.s:30186  .debug_str:000000000001e50f .LASF3532
C:\Users\SOLDER~1\AppData\Local\Temp\ccI3TRm9.s:26164  .debug_str:000000000000e0f3 .LASF3533
C:\Users\SOLDER~1\AppData\Local\Temp\ccI3TRm9.s:33522  .debug_str:000000000002be0b .LASF3534
C:\Users\SOLDER~1\AppData\Local\Temp\ccI3TRm9.s:26596  .debug_str:000000000000fd12 .LASF3535
C:\Users\SOLDER~1\AppData\Local\Temp\ccI3TRm9.s:30982  .debug_str:00000000000218e1 .LASF3536
C:\Users\SOLDER~1\AppData\Local\Temp\ccI3TRm9.s:23774  .debug_str:00000000000044f1 .LASF3537
C:\Users\SOLDER~1\AppData\Local\Temp\ccI3TRm9.s:26862  .debug_str:0000000000010e32 .LASF3538
C:\Users\SOLDER~1\AppData\Local\Temp\ccI3TRm9.s:23360  .debug_str:0000000000002b06 .LASF3539
C:\Users\SOLDER~1\AppData\Local\Temp\ccI3TRm9.s:28122  .debug_str:0000000000016071 .LASF3540
C:\Users\SOLDER~1\AppData\Local\Temp\ccI3TRm9.s:29744  .debug_str:000000000001c800 .LASF3541
C:\Users\SOLDER~1\AppData\Local\Temp\ccI3TRm9.s:22754  .debug_str:00000000000002db .LASF3542
C:\Users\SOLDER~1\AppData\Local\Temp\ccI3TRm9.s:26454  .debug_str:000000000000f3a2 .LASF3543
C:\Users\SOLDER~1\AppData\Local\Temp\ccI3TRm9.s:31254  .debug_str:0000000000022a0b .LASF3544
C:\Users\SOLDER~1\AppData\Local\Temp\ccI3TRm9.s:34098  .debug_str:000000000002e39b .LASF3545
C:\Users\SOLDER~1\AppData\Local\Temp\ccI3TRm9.s:31052  .debug_str:0000000000021d5f .LASF3546
C:\Users\SOLDER~1\AppData\Local\Temp\ccI3TRm9.s:24284  .debug_str:00000000000065ba .LASF3547
C:\Users\SOLDER~1\AppData\Local\Temp\ccI3TRm9.s:24150  .debug_str:0000000000005cda .LASF3548
C:\Users\SOLDER~1\AppData\Local\Temp\ccI3TRm9.s:25862  .debug_str:000000000000cd84 .LASF3549
C:\Users\SOLDER~1\AppData\Local\Temp\ccI3TRm9.s:22916  .debug_str:0000000000000e5e .LASF3550
C:\Users\SOLDER~1\AppData\Local\Temp\ccI3TRm9.s:26684  .debug_str:0000000000010305 .LASF3551
C:\Users\SOLDER~1\AppData\Local\Temp\ccI3TRm9.s:24384  .debug_str:0000000000006c65 .LASF3552
C:\Users\SOLDER~1\AppData\Local\Temp\ccI3TRm9.s:23962  .debug_str:00000000000050d1 .LASF3553
C:\Users\SOLDER~1\AppData\Local\Temp\ccI3TRm9.s:23120  .debug_str:0000000000001b37 .LASF3554
C:\Users\SOLDER~1\AppData\Local\Temp\ccI3TRm9.s:31992  .debug_str:0000000000025a3e .LASF3555
C:\Users\SOLDER~1\AppData\Local\Temp\ccI3TRm9.s:22902  .debug_str:0000000000000da8 .LASF3556
GAS LISTING C:\Users\SOLDER~1\AppData\Local\Temp\ccI3TRm9.s 			page 157


C:\Users\SOLDER~1\AppData\Local\Temp\ccI3TRm9.s:29308  .debug_str:000000000001acd6 .LASF3557
C:\Users\SOLDER~1\AppData\Local\Temp\ccI3TRm9.s:26470  .debug_str:000000000000f4a7 .LASF3558
C:\Users\SOLDER~1\AppData\Local\Temp\ccI3TRm9.s:23230  .debug_str:000000000000227d .LASF3559
C:\Users\SOLDER~1\AppData\Local\Temp\ccI3TRm9.s:24016  .debug_str:0000000000005422 .LASF3560
C:\Users\SOLDER~1\AppData\Local\Temp\ccI3TRm9.s:26358  .debug_str:000000000000eda8 .LASF3561
C:\Users\SOLDER~1\AppData\Local\Temp\ccI3TRm9.s:27238  .debug_str:0000000000012620 .LASF3562
C:\Users\SOLDER~1\AppData\Local\Temp\ccI3TRm9.s:33872  .debug_str:000000000002d4c0 .LASF3563
C:\Users\SOLDER~1\AppData\Local\Temp\ccI3TRm9.s:28168  .debug_str:0000000000016366 .LASF3564
C:\Users\SOLDER~1\AppData\Local\Temp\ccI3TRm9.s:29616  .debug_str:000000000001bfa7 .LASF3565
C:\Users\SOLDER~1\AppData\Local\Temp\ccI3TRm9.s:30382  .debug_str:000000000001f1cc .LASF3566
C:\Users\SOLDER~1\AppData\Local\Temp\ccI3TRm9.s:23328  .debug_str:0000000000002924 .LASF3567
C:\Users\SOLDER~1\AppData\Local\Temp\ccI3TRm9.s:28384  .debug_str:00000000000170d2 .LASF3568
C:\Users\SOLDER~1\AppData\Local\Temp\ccI3TRm9.s:27184  .debug_str:00000000000122a7 .LASF3569
C:\Users\SOLDER~1\AppData\Local\Temp\ccI3TRm9.s:33542  .debug_str:000000000002bf74 .LASF3570
C:\Users\SOLDER~1\AppData\Local\Temp\ccI3TRm9.s:30774  .debug_str:0000000000020b5b .LASF3571
C:\Users\SOLDER~1\AppData\Local\Temp\ccI3TRm9.s:23284  .debug_str:00000000000025f9 .LASF3572
C:\Users\SOLDER~1\AppData\Local\Temp\ccI3TRm9.s:28916  .debug_str:00000000000193cb .LASF3573
C:\Users\SOLDER~1\AppData\Local\Temp\ccI3TRm9.s:26776  .debug_str:00000000000108b0 .LASF3574
C:\Users\SOLDER~1\AppData\Local\Temp\ccI3TRm9.s:26048  .debug_str:000000000000d993 .LASF3575
C:\Users\SOLDER~1\AppData\Local\Temp\ccI3TRm9.s:32294  .debug_str:0000000000026e71 .LASF3576
C:\Users\SOLDER~1\AppData\Local\Temp\ccI3TRm9.s:33794  .debug_str:000000000002cfe0 .LASF3577
C:\Users\SOLDER~1\AppData\Local\Temp\ccI3TRm9.s:26442  .debug_str:000000000000f2ea .LASF3578
C:\Users\SOLDER~1\AppData\Local\Temp\ccI3TRm9.s:31572  .debug_str:0000000000023f24 .LASF3579
C:\Users\SOLDER~1\AppData\Local\Temp\ccI3TRm9.s:34206  .debug_str:000000000002ea6b .LASF3580
C:\Users\SOLDER~1\AppData\Local\Temp\ccI3TRm9.s:23810  .debug_str:000000000000475c .LASF3581
C:\Users\SOLDER~1\AppData\Local\Temp\ccI3TRm9.s:28246  .debug_str:000000000001685f .LASF3582
C:\Users\SOLDER~1\AppData\Local\Temp\ccI3TRm9.s:28594  .debug_str:0000000000017e94 .LASF3583
C:\Users\SOLDER~1\AppData\Local\Temp\ccI3TRm9.s:23336  .debug_str:00000000000029a5 .LASF3584
C:\Users\SOLDER~1\AppData\Local\Temp\ccI3TRm9.s:23804  .debug_str:00000000000046fc .LASF3585
C:\Users\SOLDER~1\AppData\Local\Temp\ccI3TRm9.s:22782  .debug_str:00000000000004ac .LASF3586
C:\Users\SOLDER~1\AppData\Local\Temp\ccI3TRm9.s:31232  .debug_str:000000000002288f .LASF3587
C:\Users\SOLDER~1\AppData\Local\Temp\ccI3TRm9.s:26608  .debug_str:000000000000fde8 .LASF3588
C:\Users\SOLDER~1\AppData\Local\Temp\ccI3TRm9.s:32084  .debug_str:0000000000026036 .LASF3589
C:\Users\SOLDER~1\AppData\Local\Temp\ccI3TRm9.s:31632  .debug_str:00000000000242bc .LASF3590
C:\Users\SOLDER~1\AppData\Local\Temp\ccI3TRm9.s:34266  .debug_str:000000000002edfb .LASF3591
C:\Users\SOLDER~1\AppData\Local\Temp\ccI3TRm9.s:25330  .debug_str:000000000000aa4b .LASF3592
C:\Users\SOLDER~1\AppData\Local\Temp\ccI3TRm9.s:26370  .debug_str:000000000000ee3d .LASF3593
C:\Users\SOLDER~1\AppData\Local\Temp\ccI3TRm9.s:27062  .debug_str:0000000000011ad6 .LASF3594
C:\Users\SOLDER~1\AppData\Local\Temp\ccI3TRm9.s:23514  .debug_str:00000000000034c9 .LASF3595
C:\Users\SOLDER~1\AppData\Local\Temp\ccI3TRm9.s:30062  .debug_str:000000000001dcf9 .LASF3596
C:\Users\SOLDER~1\AppData\Local\Temp\ccI3TRm9.s:29598  .debug_str:000000000001be58 .LASF3597
C:\Users\SOLDER~1\AppData\Local\Temp\ccI3TRm9.s:33516  .debug_str:000000000002bda7 .LASF3598
C:\Users\SOLDER~1\AppData\Local\Temp\ccI3TRm9.s:25896  .debug_str:000000000000cfae .LASF3599
C:\Users\SOLDER~1\AppData\Local\Temp\ccI3TRm9.s:22806  .debug_str:00000000000006c1 .LASF3600
C:\Users\SOLDER~1\AppData\Local\Temp\ccI3TRm9.s:33214  .debug_str:000000000002aa22 .LASF3601
C:\Users\SOLDER~1\AppData\Local\Temp\ccI3TRm9.s:29550  .debug_str:000000000001bbcf .LASF3602
C:\Users\SOLDER~1\AppData\Local\Temp\ccI3TRm9.s:27064  .debug_str:0000000000011af7 .LASF3603
C:\Users\SOLDER~1\AppData\Local\Temp\ccI3TRm9.s:30538  .debug_str:000000000001fc62 .LASF3604
C:\Users\SOLDER~1\AppData\Local\Temp\ccI3TRm9.s:31860  .debug_str:00000000000251d6 .LASF3605
C:\Users\SOLDER~1\AppData\Local\Temp\ccI3TRm9.s:29412  .debug_str:000000000001b3ac .LASF3606
C:\Users\SOLDER~1\AppData\Local\Temp\ccI3TRm9.s:25818  .debug_str:000000000000ca5f .LASF3607
C:\Users\SOLDER~1\AppData\Local\Temp\ccI3TRm9.s:28684  .debug_str:00000000000184b8 .LASF3608
C:\Users\SOLDER~1\AppData\Local\Temp\ccI3TRm9.s:33790  .debug_str:000000000002cf9a .LASF3609
C:\Users\SOLDER~1\AppData\Local\Temp\ccI3TRm9.s:26638  .debug_str:000000000001000a .LASF3610
C:\Users\SOLDER~1\AppData\Local\Temp\ccI3TRm9.s:33102  .debug_str:000000000002a2a4 .LASF3611
C:\Users\SOLDER~1\AppData\Local\Temp\ccI3TRm9.s:23056  .debug_str:0000000000001722 .LASF3612
C:\Users\SOLDER~1\AppData\Local\Temp\ccI3TRm9.s:24868  .debug_str:0000000000008bb0 .LASF3613
GAS LISTING C:\Users\SOLDER~1\AppData\Local\Temp\ccI3TRm9.s 			page 158


C:\Users\SOLDER~1\AppData\Local\Temp\ccI3TRm9.s:31664  .debug_str:00000000000244fb .LASF3614
C:\Users\SOLDER~1\AppData\Local\Temp\ccI3TRm9.s:31032  .debug_str:0000000000021c17 .LASF3615
C:\Users\SOLDER~1\AppData\Local\Temp\ccI3TRm9.s:31564  .debug_str:0000000000023eb7 .LASF3616
C:\Users\SOLDER~1\AppData\Local\Temp\ccI3TRm9.s:32868  .debug_str:0000000000029449 .LASF3617
C:\Users\SOLDER~1\AppData\Local\Temp\ccI3TRm9.s:31906  .debug_str:00000000000254c2 .LASF3618
C:\Users\SOLDER~1\AppData\Local\Temp\ccI3TRm9.s:34010  .debug_str:000000000002de15 .LASF3619
C:\Users\SOLDER~1\AppData\Local\Temp\ccI3TRm9.s:28438  .debug_str:000000000001743d .LASF3620
C:\Users\SOLDER~1\AppData\Local\Temp\ccI3TRm9.s:33120  .debug_str:000000000002a3ec .LASF3621
C:\Users\SOLDER~1\AppData\Local\Temp\ccI3TRm9.s:29594  .debug_str:000000000001be1e .LASF3622
C:\Users\SOLDER~1\AppData\Local\Temp\ccI3TRm9.s:29484  .debug_str:000000000001b7ae .LASF3623
C:\Users\SOLDER~1\AppData\Local\Temp\ccI3TRm9.s:23680  .debug_str:0000000000003f1d .LASF3624
C:\Users\SOLDER~1\AppData\Local\Temp\ccI3TRm9.s:31680  .debug_str:00000000000245f8 .LASF3625
C:\Users\SOLDER~1\AppData\Local\Temp\ccI3TRm9.s:31040  .debug_str:0000000000021c9d .LASF3626
C:\Users\SOLDER~1\AppData\Local\Temp\ccI3TRm9.s:33458  .debug_str:000000000002ba0b .LASF3627
C:\Users\SOLDER~1\AppData\Local\Temp\ccI3TRm9.s:26928  .debug_str:0000000000011250 .LASF3628
C:\Users\SOLDER~1\AppData\Local\Temp\ccI3TRm9.s:32754  .debug_str:0000000000028ce4 .LASF3629
C:\Users\SOLDER~1\AppData\Local\Temp\ccI3TRm9.s:27332  .debug_str:0000000000012be8 .LASF3630
C:\Users\SOLDER~1\AppData\Local\Temp\ccI3TRm9.s:33058  .debug_str:000000000002a007 .LASF3631
C:\Users\SOLDER~1\AppData\Local\Temp\ccI3TRm9.s:31090  .debug_str:0000000000021fbe .LASF3632
C:\Users\SOLDER~1\AppData\Local\Temp\ccI3TRm9.s:28460  .debug_str:00000000000175bb .LASF3633
C:\Users\SOLDER~1\AppData\Local\Temp\ccI3TRm9.s:31322  .debug_str:0000000000022e82 .LASF3634
C:\Users\SOLDER~1\AppData\Local\Temp\ccI3TRm9.s:28592  .debug_str:0000000000017e74 .LASF3635
C:\Users\SOLDER~1\AppData\Local\Temp\ccI3TRm9.s:31374  .debug_str:0000000000023229 .LASF3636
C:\Users\SOLDER~1\AppData\Local\Temp\ccI3TRm9.s:26558  .debug_str:000000000000fa43 .LASF3637
C:\Users\SOLDER~1\AppData\Local\Temp\ccI3TRm9.s:30696  .debug_str:0000000000020641 .LASF3638
C:\Users\SOLDER~1\AppData\Local\Temp\ccI3TRm9.s:27078  .debug_str:0000000000011bfb .LASF3639
C:\Users\SOLDER~1\AppData\Local\Temp\ccI3TRm9.s:31378  .debug_str:0000000000023271 .LASF3640
C:\Users\SOLDER~1\AppData\Local\Temp\ccI3TRm9.s:31390  .debug_str:0000000000023347 .LASF3641
C:\Users\SOLDER~1\AppData\Local\Temp\ccI3TRm9.s:26106  .debug_str:000000000000dd32 .LASF3642
C:\Users\SOLDER~1\AppData\Local\Temp\ccI3TRm9.s:33124  .debug_str:000000000002a41e .LASF3643
C:\Users\SOLDER~1\AppData\Local\Temp\ccI3TRm9.s:31922  .debug_str:00000000000255d6 .LASF3644
C:\Users\SOLDER~1\AppData\Local\Temp\ccI3TRm9.s:33302  .debug_str:000000000002affa .LASF3645
C:\Users\SOLDER~1\AppData\Local\Temp\ccI3TRm9.s:33798  .debug_str:000000000002d02d .LASF3646
C:\Users\SOLDER~1\AppData\Local\Temp\ccI3TRm9.s:24352  .debug_str:0000000000006a8f .LASF3647
C:\Users\SOLDER~1\AppData\Local\Temp\ccI3TRm9.s:22762  .debug_str:0000000000000359 .LASF3648
C:\Users\SOLDER~1\AppData\Local\Temp\ccI3TRm9.s:30454  .debug_str:000000000001f68d .LASF3649
C:\Users\SOLDER~1\AppData\Local\Temp\ccI3TRm9.s:25040  .debug_str:0000000000009748 .LASF3650
C:\Users\SOLDER~1\AppData\Local\Temp\ccI3TRm9.s:28130  .debug_str:00000000000160e8 .LASF3651
C:\Users\SOLDER~1\AppData\Local\Temp\ccI3TRm9.s:22880  .debug_str:0000000000000c04 .LASF3652
C:\Users\SOLDER~1\AppData\Local\Temp\ccI3TRm9.s:33966  .debug_str:000000000002db41 .LASF3653
C:\Users\SOLDER~1\AppData\Local\Temp\ccI3TRm9.s:28996  .debug_str:000000000001990d .LASF3654
C:\Users\SOLDER~1\AppData\Local\Temp\ccI3TRm9.s:34076  .debug_str:000000000002e24c .LASF3655
C:\Users\SOLDER~1\AppData\Local\Temp\ccI3TRm9.s:32494  .debug_str:0000000000027bc6 .LASF3656
C:\Users\SOLDER~1\AppData\Local\Temp\ccI3TRm9.s:25096  .debug_str:0000000000009adc .LASF3657
C:\Users\SOLDER~1\AppData\Local\Temp\ccI3TRm9.s:31658  .debug_str:0000000000024490 .LASF3658
C:\Users\SOLDER~1\AppData\Local\Temp\ccI3TRm9.s:33848  .debug_str:000000000002d356 .LASF3659
C:\Users\SOLDER~1\AppData\Local\Temp\ccI3TRm9.s:24256  .debug_str:00000000000063ed .LASF3660
C:\Users\SOLDER~1\AppData\Local\Temp\ccI3TRm9.s:29488  .debug_str:000000000001b7f5 .LASF3661
C:\Users\SOLDER~1\AppData\Local\Temp\ccI3TRm9.s:24198  .debug_str:0000000000005fda .LASF3662
C:\Users\SOLDER~1\AppData\Local\Temp\ccI3TRm9.s:23868  .debug_str:0000000000004af1 .LASF3663
C:\Users\SOLDER~1\AppData\Local\Temp\ccI3TRm9.s:23902  .debug_str:0000000000004d47 .LASF3664
C:\Users\SOLDER~1\AppData\Local\Temp\ccI3TRm9.s:23424  .debug_str:0000000000002f31 .LASF3665
C:\Users\SOLDER~1\AppData\Local\Temp\ccI3TRm9.s:32360  .debug_str:00000000000272f7 .LASF3666
C:\Users\SOLDER~1\AppData\Local\Temp\ccI3TRm9.s:27518  .debug_str:0000000000013852 .LASF3667
C:\Users\SOLDER~1\AppData\Local\Temp\ccI3TRm9.s:28746  .debug_str:000000000001889f .LASF3668
C:\Users\SOLDER~1\AppData\Local\Temp\ccI3TRm9.s:26332  .debug_str:000000000000ec24 .LASF3669
C:\Users\SOLDER~1\AppData\Local\Temp\ccI3TRm9.s:26598  .debug_str:000000000000fd32 .LASF3670
GAS LISTING C:\Users\SOLDER~1\AppData\Local\Temp\ccI3TRm9.s 			page 159


C:\Users\SOLDER~1\AppData\Local\Temp\ccI3TRm9.s:31224  .debug_str:000000000002282d .LASF3671
C:\Users\SOLDER~1\AppData\Local\Temp\ccI3TRm9.s:32340  .debug_str:0000000000027187 .LASF3672
C:\Users\SOLDER~1\AppData\Local\Temp\ccI3TRm9.s:29214  .debug_str:000000000001a6a9 .LASF3673
C:\Users\SOLDER~1\AppData\Local\Temp\ccI3TRm9.s:29234  .debug_str:000000000001a7e5 .LASF3674
C:\Users\SOLDER~1\AppData\Local\Temp\ccI3TRm9.s:25218  .debug_str:000000000000a2d0 .LASF3675
C:\Users\SOLDER~1\AppData\Local\Temp\ccI3TRm9.s:26966  .debug_str:00000000000114b3 .LASF3676
C:\Users\SOLDER~1\AppData\Local\Temp\ccI3TRm9.s:31346  .debug_str:0000000000023043 .LASF3677
C:\Users\SOLDER~1\AppData\Local\Temp\ccI3TRm9.s:29248  .debug_str:000000000001a8f0 .LASF3678
C:\Users\SOLDER~1\AppData\Local\Temp\ccI3TRm9.s:31582  .debug_str:0000000000023fd6 .LASF3679
C:\Users\SOLDER~1\AppData\Local\Temp\ccI3TRm9.s:32972  .debug_str:0000000000029a5c .LASF3680
C:\Users\SOLDER~1\AppData\Local\Temp\ccI3TRm9.s:33782  .debug_str:000000000002cf29 .LASF3681
C:\Users\SOLDER~1\AppData\Local\Temp\ccI3TRm9.s:28354  .debug_str:0000000000016f26 .LASF3682
C:\Users\SOLDER~1\AppData\Local\Temp\ccI3TRm9.s:33460  .debug_str:000000000002ba2c .LASF3683
C:\Users\SOLDER~1\AppData\Local\Temp\ccI3TRm9.s:27092  .debug_str:0000000000011ceb .LASF3684
C:\Users\SOLDER~1\AppData\Local\Temp\ccI3TRm9.s:31014  .debug_str:0000000000021ad9 .LASF3685
C:\Users\SOLDER~1\AppData\Local\Temp\ccI3TRm9.s:26892  .debug_str:0000000000011009 .LASF3686
C:\Users\SOLDER~1\AppData\Local\Temp\ccI3TRm9.s:30054  .debug_str:000000000001dc63 .LASF3687
C:\Users\SOLDER~1\AppData\Local\Temp\ccI3TRm9.s:31030  .debug_str:0000000000021bf0 .LASF3688
C:\Users\SOLDER~1\AppData\Local\Temp\ccI3TRm9.s:24876  .debug_str:0000000000008c33 .LASF3689
C:\Users\SOLDER~1\AppData\Local\Temp\ccI3TRm9.s:31020  .debug_str:0000000000021b4b .LASF3690
C:\Users\SOLDER~1\AppData\Local\Temp\ccI3TRm9.s:27946  .debug_str:0000000000015533 .LASF3691
C:\Users\SOLDER~1\AppData\Local\Temp\ccI3TRm9.s:24130  .debug_str:0000000000005b9a .LASF3692
C:\Users\SOLDER~1\AppData\Local\Temp\ccI3TRm9.s:25796  .debug_str:000000000000c8e5 .LASF3693
C:\Users\SOLDER~1\AppData\Local\Temp\ccI3TRm9.s:32910  .debug_str:00000000000296eb .LASF3694
C:\Users\SOLDER~1\AppData\Local\Temp\ccI3TRm9.s:27848  .debug_str:0000000000014ee1 .LASF3695
C:\Users\SOLDER~1\AppData\Local\Temp\ccI3TRm9.s:25074  .debug_str:000000000000995b .LASF3696
C:\Users\SOLDER~1\AppData\Local\Temp\ccI3TRm9.s:25674  .debug_str:000000000000c08c .LASF3697
C:\Users\SOLDER~1\AppData\Local\Temp\ccI3TRm9.s:29268  .debug_str:000000000001aa0e .LASF3698
C:\Users\SOLDER~1\AppData\Local\Temp\ccI3TRm9.s:26580  .debug_str:000000000000fc0e .LASF3699
C:\Users\SOLDER~1\AppData\Local\Temp\ccI3TRm9.s:30208  .debug_str:000000000001e65b .LASF3700
C:\Users\SOLDER~1\AppData\Local\Temp\ccI3TRm9.s:23172  .debug_str:0000000000001e90 .LASF3701
C:\Users\SOLDER~1\AppData\Local\Temp\ccI3TRm9.s:26830  .debug_str:0000000000010c30 .LASF3702
C:\Users\SOLDER~1\AppData\Local\Temp\ccI3TRm9.s:26280  .debug_str:000000000000e8a3 .LASF3703
C:\Users\SOLDER~1\AppData\Local\Temp\ccI3TRm9.s:23524  .debug_str:0000000000003552 .LASF3704
C:\Users\SOLDER~1\AppData\Local\Temp\ccI3TRm9.s:32490  .debug_str:0000000000027b70 .LASF3705
C:\Users\SOLDER~1\AppData\Local\Temp\ccI3TRm9.s:31804  .debug_str:0000000000024e21 .LASF3706
C:\Users\SOLDER~1\AppData\Local\Temp\ccI3TRm9.s:25954  .debug_str:000000000000d390 .LASF3707
C:\Users\SOLDER~1\AppData\Local\Temp\ccI3TRm9.s:23256  .debug_str:0000000000002439 .LASF3708
C:\Users\SOLDER~1\AppData\Local\Temp\ccI3TRm9.s:32058  .debug_str:0000000000025e5b .LASF3709
C:\Users\SOLDER~1\AppData\Local\Temp\ccI3TRm9.s:23452  .debug_str:00000000000030e3 .LASF3710
C:\Users\SOLDER~1\AppData\Local\Temp\ccI3TRm9.s:23188  .debug_str:0000000000001f92 .LASF3711
C:\Users\SOLDER~1\AppData\Local\Temp\ccI3TRm9.s:32152  .debug_str:00000000000264df .LASF3712
C:\Users\SOLDER~1\AppData\Local\Temp\ccI3TRm9.s:32538  .debug_str:0000000000027e85 .LASF3713
C:\Users\SOLDER~1\AppData\Local\Temp\ccI3TRm9.s:33016  .debug_str:0000000000029d6a .LASF3714
C:\Users\SOLDER~1\AppData\Local\Temp\ccI3TRm9.s:23878  .debug_str:0000000000004b9e .LASF3715
C:\Users\SOLDER~1\AppData\Local\Temp\ccI3TRm9.s:33030  .debug_str:0000000000029e5a .LASF3716
C:\Users\SOLDER~1\AppData\Local\Temp\ccI3TRm9.s:29012  .debug_str:0000000000019a3e .LASF3717
C:\Users\SOLDER~1\AppData\Local\Temp\ccI3TRm9.s:25706  .debug_str:000000000000c27f .LASF3718
C:\Users\SOLDER~1\AppData\Local\Temp\ccI3TRm9.s:32420  .debug_str:00000000000276e5 .LASF3719
C:\Users\SOLDER~1\AppData\Local\Temp\ccI3TRm9.s:26014  .debug_str:000000000000d77e .LASF3720
C:\Users\SOLDER~1\AppData\Local\Temp\ccI3TRm9.s:34256  .debug_str:000000000002ed6a .LASF3721
C:\Users\SOLDER~1\AppData\Local\Temp\ccI3TRm9.s:33492  .debug_str:000000000002bc22 .LASF3722
C:\Users\SOLDER~1\AppData\Local\Temp\ccI3TRm9.s:31884  .debug_str:0000000000025377 .LASF3723
C:\Users\SOLDER~1\AppData\Local\Temp\ccI3TRm9.s:33974  .debug_str:000000000002dbc4 .LASF3724
C:\Users\SOLDER~1\AppData\Local\Temp\ccI3TRm9.s:30908  .debug_str:00000000000213d9 .LASF3725
C:\Users\SOLDER~1\AppData\Local\Temp\ccI3TRm9.s:27762  .debug_str:0000000000014932 .LASF3726
C:\Users\SOLDER~1\AppData\Local\Temp\ccI3TRm9.s:33226  .debug_str:000000000002aaed .LASF3727
GAS LISTING C:\Users\SOLDER~1\AppData\Local\Temp\ccI3TRm9.s 			page 160


C:\Users\SOLDER~1\AppData\Local\Temp\ccI3TRm9.s:29722  .debug_str:000000000001c6a0 .LASF3728
C:\Users\SOLDER~1\AppData\Local\Temp\ccI3TRm9.s:25932  .debug_str:000000000000d1f9 .LASF3729
C:\Users\SOLDER~1\AppData\Local\Temp\ccI3TRm9.s:28872  .debug_str:00000000000190ba .LASF3730
C:\Users\SOLDER~1\AppData\Local\Temp\ccI3TRm9.s:24646  .debug_str:0000000000007d5e .LASF3731
C:\Users\SOLDER~1\AppData\Local\Temp\ccI3TRm9.s:29388  .debug_str:000000000001b208 .LASF3732
C:\Users\SOLDER~1\AppData\Local\Temp\ccI3TRm9.s:25676  .debug_str:000000000000c0b1 .LASF3733
C:\Users\SOLDER~1\AppData\Local\Temp\ccI3TRm9.s:29166  .debug_str:000000000001a3a0 .LASF3734
C:\Users\SOLDER~1\AppData\Local\Temp\ccI3TRm9.s:25602  .debug_str:000000000000bbdb .LASF3735
C:\Users\SOLDER~1\AppData\Local\Temp\ccI3TRm9.s:24120  .debug_str:0000000000005ae2 .LASF3736
C:\Users\SOLDER~1\AppData\Local\Temp\ccI3TRm9.s:26646  .debug_str:0000000000010091 .LASF3737
C:\Users\SOLDER~1\AppData\Local\Temp\ccI3TRm9.s:24428  .debug_str:0000000000006f46 .LASF3738
C:\Users\SOLDER~1\AppData\Local\Temp\ccI3TRm9.s:23508  .debug_str:0000000000003470 .LASF3739
C:\Users\SOLDER~1\AppData\Local\Temp\ccI3TRm9.s:30520  .debug_str:000000000001fb1f .LASF3740
C:\Users\SOLDER~1\AppData\Local\Temp\ccI3TRm9.s:30608  .debug_str:00000000000200b2 .LASF3741
C:\Users\SOLDER~1\AppData\Local\Temp\ccI3TRm9.s:26112  .debug_str:000000000000dd86 .LASF3742
C:\Users\SOLDER~1\AppData\Local\Temp\ccI3TRm9.s:34202  .debug_str:000000000002ea30 .LASF3743
C:\Users\SOLDER~1\AppData\Local\Temp\ccI3TRm9.s:24114  .debug_str:0000000000005a80 .LASF3744
C:\Users\SOLDER~1\AppData\Local\Temp\ccI3TRm9.s:33156  .debug_str:000000000002a67a .LASF3745
C:\Users\SOLDER~1\AppData\Local\Temp\ccI3TRm9.s:26160  .debug_str:000000000000e0b8 .LASF3746
C:\Users\SOLDER~1\AppData\Local\Temp\ccI3TRm9.s:31352  .debug_str:00000000000230a2 .LASF3747
C:\Users\SOLDER~1\AppData\Local\Temp\ccI3TRm9.s:27464  .debug_str:0000000000013483 .LASF3748
C:\Users\SOLDER~1\AppData\Local\Temp\ccI3TRm9.s:25916  .debug_str:000000000000d102 .LASF3749
C:\Users\SOLDER~1\AppData\Local\Temp\ccI3TRm9.s:33314  .debug_str:000000000002b09d .LASF3750
C:\Users\SOLDER~1\AppData\Local\Temp\ccI3TRm9.s:29578  .debug_str:000000000001bd0c .LASF3751
C:\Users\SOLDER~1\AppData\Local\Temp\ccI3TRm9.s:26666  .debug_str:00000000000101e2 .LASF3752
C:\Users\SOLDER~1\AppData\Local\Temp\ccI3TRm9.s:30192  .debug_str:000000000001e56d .LASF3753
C:\Users\SOLDER~1\AppData\Local\Temp\ccI3TRm9.s:26630  .debug_str:000000000000ff8b .LASF3754
C:\Users\SOLDER~1\AppData\Local\Temp\ccI3TRm9.s:29176  .debug_str:000000000001a452 .LASF3755
C:\Users\SOLDER~1\AppData\Local\Temp\ccI3TRm9.s:29410  .debug_str:000000000001b389 .LASF3756
C:\Users\SOLDER~1\AppData\Local\Temp\ccI3TRm9.s:27232  .debug_str:00000000000125c8 .LASF3757
C:\Users\SOLDER~1\AppData\Local\Temp\ccI3TRm9.s:28750  .debug_str:00000000000188ed .LASF3758
C:\Users\SOLDER~1\AppData\Local\Temp\ccI3TRm9.s:23282  .debug_str:00000000000025e3 .LASF3759
C:\Users\SOLDER~1\AppData\Local\Temp\ccI3TRm9.s:24022  .debug_str:0000000000005466 .LASF3760
C:\Users\SOLDER~1\AppData\Local\Temp\ccI3TRm9.s:33764  .debug_str:000000000002cde7 .LASF3761
C:\Users\SOLDER~1\AppData\Local\Temp\ccI3TRm9.s:33998  .debug_str:000000000002dd49 .LASF3762
C:\Users\SOLDER~1\AppData\Local\Temp\ccI3TRm9.s:22978  .debug_str:000000000000121d .LASF3763
C:\Users\SOLDER~1\AppData\Local\Temp\ccI3TRm9.s:28812  .debug_str:0000000000018cb7 .LASF3764
C:\Users\SOLDER~1\AppData\Local\Temp\ccI3TRm9.s:26944  .debug_str:000000000001134b .LASF3765
C:\Users\SOLDER~1\AppData\Local\Temp\ccI3TRm9.s:31806  .debug_str:0000000000024e45 .LASF3766
C:\Users\SOLDER~1\AppData\Local\Temp\ccI3TRm9.s:25468  .debug_str:000000000000b32b .LASF3767
C:\Users\SOLDER~1\AppData\Local\Temp\ccI3TRm9.s:31088  .debug_str:0000000000021f9b .LASF3768
C:\Users\SOLDER~1\AppData\Local\Temp\ccI3TRm9.s:23260  .debug_str:000000000000248b .LASF3769
C:\Users\SOLDER~1\AppData\Local\Temp\ccI3TRm9.s:32612  .debug_str:000000000002833f .LASF3770
C:\Users\SOLDER~1\AppData\Local\Temp\ccI3TRm9.s:22926  .debug_str:0000000000000eed .LASF3771
C:\Users\SOLDER~1\AppData\Local\Temp\ccI3TRm9.s:31660  .debug_str:00000000000244b7 .LASF3772
C:\Users\SOLDER~1\AppData\Local\Temp\ccI3TRm9.s:27584  .debug_str:0000000000013ccf .LASF3773
C:\Users\SOLDER~1\AppData\Local\Temp\ccI3TRm9.s:33024  .debug_str:0000000000029de8 .LASF3774
C:\Users\SOLDER~1\AppData\Local\Temp\ccI3TRm9.s:30428  .debug_str:000000000001f4d8 .LASF3775
C:\Users\SOLDER~1\AppData\Local\Temp\ccI3TRm9.s:25994  .debug_str:000000000000d618 .LASF3776
C:\Users\SOLDER~1\AppData\Local\Temp\ccI3TRm9.s:24542  .debug_str:00000000000076be .LASF3777
C:\Users\SOLDER~1\AppData\Local\Temp\ccI3TRm9.s:32322  .debug_str:000000000002706d .LASF3778
C:\Users\SOLDER~1\AppData\Local\Temp\ccI3TRm9.s:30602  .debug_str:0000000000020058 .LASF3779
C:\Users\SOLDER~1\AppData\Local\Temp\ccI3TRm9.s:30862  .debug_str:000000000002111c .LASF3780
C:\Users\SOLDER~1\AppData\Local\Temp\ccI3TRm9.s:31776  .debug_str:0000000000024c4e .LASF3781
C:\Users\SOLDER~1\AppData\Local\Temp\ccI3TRm9.s:23708  .debug_str:00000000000040d9 .LASF3782
C:\Users\SOLDER~1\AppData\Local\Temp\ccI3TRm9.s:27872  .debug_str:000000000001509a .LASF3783
C:\Users\SOLDER~1\AppData\Local\Temp\ccI3TRm9.s:26444  .debug_str:000000000000f303 .LASF3784
GAS LISTING C:\Users\SOLDER~1\AppData\Local\Temp\ccI3TRm9.s 			page 161


C:\Users\SOLDER~1\AppData\Local\Temp\ccI3TRm9.s:24396  .debug_str:0000000000006d24 .LASF3785
C:\Users\SOLDER~1\AppData\Local\Temp\ccI3TRm9.s:28680  .debug_str:0000000000018471 .LASF3786
C:\Users\SOLDER~1\AppData\Local\Temp\ccI3TRm9.s:33978  .debug_str:000000000002dc0d .LASF3787
C:\Users\SOLDER~1\AppData\Local\Temp\ccI3TRm9.s:31780  .debug_str:0000000000024c8b .LASF3788
C:\Users\SOLDER~1\AppData\Local\Temp\ccI3TRm9.s:24170  .debug_str:0000000000005e2a .LASF3789
C:\Users\SOLDER~1\AppData\Local\Temp\ccI3TRm9.s:25324  .debug_str:000000000000a9ff .LASF3790
C:\Users\SOLDER~1\AppData\Local\Temp\ccI3TRm9.s:32852  .debug_str:0000000000029357 .LASF3791
C:\Users\SOLDER~1\AppData\Local\Temp\ccI3TRm9.s:32444  .debug_str:0000000000027865 .LASF3792
C:\Users\SOLDER~1\AppData\Local\Temp\ccI3TRm9.s:30012  .debug_str:000000000001d9e1 .LASF3793
C:\Users\SOLDER~1\AppData\Local\Temp\ccI3TRm9.s:33876  .debug_str:000000000002d4eb .LASF3794
C:\Users\SOLDER~1\AppData\Local\Temp\ccI3TRm9.s:26764  .debug_str:00000000000107fd .LASF3795
C:\Users\SOLDER~1\AppData\Local\Temp\ccI3TRm9.s:25208  .debug_str:000000000000a210 .LASF3796
C:\Users\SOLDER~1\AppData\Local\Temp\ccI3TRm9.s:26668  .debug_str:0000000000010206 .LASF3797
C:\Users\SOLDER~1\AppData\Local\Temp\ccI3TRm9.s:32636  .debug_str:00000000000284dc .LASF3798
C:\Users\SOLDER~1\AppData\Local\Temp\ccI3TRm9.s:33260  .debug_str:000000000002ad3e .LASF3799
C:\Users\SOLDER~1\AppData\Local\Temp\ccI3TRm9.s:29644  .debug_str:000000000001c15b .LASF3800
C:\Users\SOLDER~1\AppData\Local\Temp\ccI3TRm9.s:30906  .debug_str:00000000000213c4 .LASF3801
C:\Users\SOLDER~1\AppData\Local\Temp\ccI3TRm9.s:28544  .debug_str:0000000000017b74 .LASF3802
C:\Users\SOLDER~1\AppData\Local\Temp\ccI3TRm9.s:32964  .debug_str:00000000000299ea .LASF3803
C:\Users\SOLDER~1\AppData\Local\Temp\ccI3TRm9.s:30662  .debug_str:0000000000020406 .LASF3804
C:\Users\SOLDER~1\AppData\Local\Temp\ccI3TRm9.s:29762  .debug_str:000000000001c917 .LASF3805
C:\Users\SOLDER~1\AppData\Local\Temp\ccI3TRm9.s:34182  .debug_str:000000000002e910 .LASF3806
C:\Users\SOLDER~1\AppData\Local\Temp\ccI3TRm9.s:33612  .debug_str:000000000002c407 .LASF3807
C:\Users\SOLDER~1\AppData\Local\Temp\ccI3TRm9.s:22844  .debug_str:0000000000000980 .LASF3808
C:\Users\SOLDER~1\AppData\Local\Temp\ccI3TRm9.s:28008  .debug_str:0000000000015962 .LASF3809
C:\Users\SOLDER~1\AppData\Local\Temp\ccI3TRm9.s:28318  .debug_str:0000000000016cbf .LASF3810
C:\Users\SOLDER~1\AppData\Local\Temp\ccI3TRm9.s:34378  .debug_str:000000000002f52d .LASF3811
C:\Users\SOLDER~1\AppData\Local\Temp\ccI3TRm9.s:28126  .debug_str:00000000000160a7 .LASF3812
C:\Users\SOLDER~1\AppData\Local\Temp\ccI3TRm9.s:24804  .debug_str:000000000000877e .LASF3813
C:\Users\SOLDER~1\AppData\Local\Temp\ccI3TRm9.s:23740  .debug_str:00000000000042ca .LASF3814
C:\Users\SOLDER~1\AppData\Local\Temp\ccI3TRm9.s:24992  .debug_str:000000000000940e .LASF3815
C:\Users\SOLDER~1\AppData\Local\Temp\ccI3TRm9.s:28104  .debug_str:0000000000015f53 .LASF3816
C:\Users\SOLDER~1\AppData\Local\Temp\ccI3TRm9.s:24824  .debug_str:00000000000088c6 .LASF3817
C:\Users\SOLDER~1\AppData\Local\Temp\ccI3TRm9.s:26050  .debug_str:000000000000d9bb .LASF3818
C:\Users\SOLDER~1\AppData\Local\Temp\ccI3TRm9.s:23928  .debug_str:0000000000004ed1 .LASF3819
C:\Users\SOLDER~1\AppData\Local\Temp\ccI3TRm9.s:31848  .debug_str:00000000000250fe .LASF3820
C:\Users\SOLDER~1\AppData\Local\Temp\ccI3TRm9.s:27316  .debug_str:0000000000012af4 .LASF3821
C:\Users\SOLDER~1\AppData\Local\Temp\ccI3TRm9.s:26642  .debug_str:000000000001004a .LASF3822
C:\Users\SOLDER~1\AppData\Local\Temp\ccI3TRm9.s:29912  .debug_str:000000000001d311 .LASF3823
C:\Users\SOLDER~1\AppData\Local\Temp\ccI3TRm9.s:33196  .debug_str:000000000002a8df .LASF3824
C:\Users\SOLDER~1\AppData\Local\Temp\ccI3TRm9.s:24962  .debug_str:00000000000091fb .LASF3825
C:\Users\SOLDER~1\AppData\Local\Temp\ccI3TRm9.s:31092  .debug_str:0000000000021fce .LASF3826
C:\Users\SOLDER~1\AppData\Local\Temp\ccI3TRm9.s:25190  .debug_str:000000000000a0f2 .LASF3827
C:\Users\SOLDER~1\AppData\Local\Temp\ccI3TRm9.s:24590  .debug_str:0000000000007987 .LASF3828
C:\Users\SOLDER~1\AppData\Local\Temp\ccI3TRm9.s:25822  .debug_str:000000000000caa4 .LASF3829
C:\Users\SOLDER~1\AppData\Local\Temp\ccI3TRm9.s:25810  .debug_str:000000000000c9c0 .LASF3830
C:\Users\SOLDER~1\AppData\Local\Temp\ccI3TRm9.s:23414  .debug_str:0000000000002e5e .LASF3831
C:\Users\SOLDER~1\AppData\Local\Temp\ccI3TRm9.s:25608  .debug_str:000000000000bc39 .LASF3832
C:\Users\SOLDER~1\AppData\Local\Temp\ccI3TRm9.s:31586  .debug_str:000000000002401a .LASF3833
C:\Users\SOLDER~1\AppData\Local\Temp\ccI3TRm9.s:29674  .debug_str:000000000001c388 .LASF3834
C:\Users\SOLDER~1\AppData\Local\Temp\ccI3TRm9.s:26144  .debug_str:000000000000dfb9 .LASF3835
C:\Users\SOLDER~1\AppData\Local\Temp\ccI3TRm9.s:33478  .debug_str:000000000002bb5d .LASF3836
C:\Users\SOLDER~1\AppData\Local\Temp\ccI3TRm9.s:31500  .debug_str:0000000000023a78 .LASF3837
C:\Users\SOLDER~1\AppData\Local\Temp\ccI3TRm9.s:23806  .debug_str:000000000000471f .LASF3838
C:\Users\SOLDER~1\AppData\Local\Temp\ccI3TRm9.s:31772  .debug_str:0000000000024c07 .LASF3839
C:\Users\SOLDER~1\AppData\Local\Temp\ccI3TRm9.s:31292  .debug_str:0000000000022c7b .LASF3840
C:\Users\SOLDER~1\AppData\Local\Temp\ccI3TRm9.s:23758  .debug_str:00000000000043e8 .LASF3841
GAS LISTING C:\Users\SOLDER~1\AppData\Local\Temp\ccI3TRm9.s 			page 162


C:\Users\SOLDER~1\AppData\Local\Temp\ccI3TRm9.s:25872  .debug_str:000000000000ce1b .LASF3842
C:\Users\SOLDER~1\AppData\Local\Temp\ccI3TRm9.s:33032  .debug_str:0000000000029e7f .LASF3843
C:\Users\SOLDER~1\AppData\Local\Temp\ccI3TRm9.s:25304  .debug_str:000000000000a8b4 .LASF3844
C:\Users\SOLDER~1\AppData\Local\Temp\ccI3TRm9.s:31328  .debug_str:0000000000022ee4 .LASF3845
C:\Users\SOLDER~1\AppData\Local\Temp\ccI3TRm9.s:29902  .debug_str:000000000001d284 .LASF3846
C:\Users\SOLDER~1\AppData\Local\Temp\ccI3TRm9.s:31644  .debug_str:00000000000243a5 .LASF3847
C:\Users\SOLDER~1\AppData\Local\Temp\ccI3TRm9.s:26856  .debug_str:0000000000010de6 .LASF3848
C:\Users\SOLDER~1\AppData\Local\Temp\ccI3TRm9.s:28256  .debug_str:0000000000016921 .LASF3849
C:\Users\SOLDER~1\AppData\Local\Temp\ccI3TRm9.s:24186  .debug_str:0000000000005f1a .LASF3850
C:\Users\SOLDER~1\AppData\Local\Temp\ccI3TRm9.s:25716  .debug_str:000000000000c344 .LASF3851
C:\Users\SOLDER~1\AppData\Local\Temp\ccI3TRm9.s:25464  .debug_str:000000000000b2f6 .LASF3852
C:\Users\SOLDER~1\AppData\Local\Temp\ccI3TRm9.s:25496  .debug_str:000000000000b4e6 .LASF3853
C:\Users\SOLDER~1\AppData\Local\Temp\ccI3TRm9.s:23422  .debug_str:0000000000002f1b .LASF3854
C:\Users\SOLDER~1\AppData\Local\Temp\ccI3TRm9.s:29002  .debug_str:000000000001997c .LASF3855
C:\Users\SOLDER~1\AppData\Local\Temp\ccI3TRm9.s:26140  .debug_str:000000000000df7e .LASF3856
C:\Users\SOLDER~1\AppData\Local\Temp\ccI3TRm9.s:33952  .debug_str:000000000002da37 .LASF3857
C:\Users\SOLDER~1\AppData\Local\Temp\ccI3TRm9.s:33644  .debug_str:000000000002c607 .LASF3858
C:\Users\SOLDER~1\AppData\Local\Temp\ccI3TRm9.s:32028  .debug_str:0000000000025c90 .LASF3859
C:\Users\SOLDER~1\AppData\Local\Temp\ccI3TRm9.s:30264  .debug_str:000000000001e9f0 .LASF3860
C:\Users\SOLDER~1\AppData\Local\Temp\ccI3TRm9.s:22874  .debug_str:0000000000000b98 .LASF3861
C:\Users\SOLDER~1\AppData\Local\Temp\ccI3TRm9.s:33094  .debug_str:000000000002a241 .LASF3862
C:\Users\SOLDER~1\AppData\Local\Temp\ccI3TRm9.s:30282  .debug_str:000000000001eb18 .LASF3863
C:\Users\SOLDER~1\AppData\Local\Temp\ccI3TRm9.s:34022  .debug_str:000000000002dec6 .LASF3864
C:\Users\SOLDER~1\AppData\Local\Temp\ccI3TRm9.s:26298  .debug_str:000000000000e9bf .LASF3865
C:\Users\SOLDER~1\AppData\Local\Temp\ccI3TRm9.s:25462  .debug_str:000000000000b2d6 .LASF3866
C:\Users\SOLDER~1\AppData\Local\Temp\ccI3TRm9.s:26640  .debug_str:000000000001002a .LASF3867
C:\Users\SOLDER~1\AppData\Local\Temp\ccI3TRm9.s:28740  .debug_str:000000000001884c .LASF3868
C:\Users\SOLDER~1\AppData\Local\Temp\ccI3TRm9.s:29784  .debug_str:000000000001cab0 .LASF3869
C:\Users\SOLDER~1\AppData\Local\Temp\ccI3TRm9.s:26290  .debug_str:000000000000e933 .LASF3870
C:\Users\SOLDER~1\AppData\Local\Temp\ccI3TRm9.s:26212  .debug_str:000000000000e450 .LASF3871
C:\Users\SOLDER~1\AppData\Local\Temp\ccI3TRm9.s:34124  .debug_str:000000000002e53f .LASF3872
C:\Users\SOLDER~1\AppData\Local\Temp\ccI3TRm9.s:28844  .debug_str:0000000000018ecd .LASF3873
C:\Users\SOLDER~1\AppData\Local\Temp\ccI3TRm9.s:23688  .debug_str:0000000000003f83 .LASF3874
C:\Users\SOLDER~1\AppData\Local\Temp\ccI3TRm9.s:32920  .debug_str:0000000000029783 .LASF3875
C:\Users\SOLDER~1\AppData\Local\Temp\ccI3TRm9.s:24638  .debug_str:0000000000007cd0 .LASF3876
C:\Users\SOLDER~1\AppData\Local\Temp\ccI3TRm9.s:23686  .debug_str:0000000000003f5f .LASF3877
C:\Users\SOLDER~1\AppData\Local\Temp\ccI3TRm9.s:28966  .debug_str:00000000000196f3 .LASF3878
C:\Users\SOLDER~1\AppData\Local\Temp\ccI3TRm9.s:25728  .debug_str:000000000000c416 .LASF3879
C:\Users\SOLDER~1\AppData\Local\Temp\ccI3TRm9.s:25812  .debug_str:000000000000c9e2 .LASF3880
C:\Users\SOLDER~1\AppData\Local\Temp\ccI3TRm9.s:31856  .debug_str:0000000000025178 .LASF3881
C:\Users\SOLDER~1\AppData\Local\Temp\ccI3TRm9.s:26548  .debug_str:000000000000f9a2 .LASF3882
C:\Users\SOLDER~1\AppData\Local\Temp\ccI3TRm9.s:22730  .debug_str:0000000000000132 .LASF3883
C:\Users\SOLDER~1\AppData\Local\Temp\ccI3TRm9.s:31122  .debug_str:00000000000221d8 .LASF3884
C:\Users\SOLDER~1\AppData\Local\Temp\ccI3TRm9.s:32952  .debug_str:0000000000029971 .LASF3885
C:\Users\SOLDER~1\AppData\Local\Temp\ccI3TRm9.s:26178  .debug_str:000000000000e1ea .LASF3886
C:\Users\SOLDER~1\AppData\Local\Temp\ccI3TRm9.s:30822  .debug_str:0000000000020e77 .LASF3887
C:\Users\SOLDER~1\AppData\Local\Temp\ccI3TRm9.s:22854  .debug_str:0000000000000a27 .LASF3888
C:\Users\SOLDER~1\AppData\Local\Temp\ccI3TRm9.s:34212  .debug_str:000000000002eaad .LASF3889
C:\Users\SOLDER~1\AppData\Local\Temp\ccI3TRm9.s:25452  .debug_str:000000000000b22e .LASF3890
C:\Users\SOLDER~1\AppData\Local\Temp\ccI3TRm9.s:26714  .debug_str:00000000000104c2 .LASF3891
C:\Users\SOLDER~1\AppData\Local\Temp\ccI3TRm9.s:33700  .debug_str:000000000002c9d1 .LASF3892
C:\Users\SOLDER~1\AppData\Local\Temp\ccI3TRm9.s:24768  .debug_str:0000000000008557 .LASF3893
C:\Users\SOLDER~1\AppData\Local\Temp\ccI3TRm9.s:29930  .debug_str:000000000001d431 .LASF3894
C:\Users\SOLDER~1\AppData\Local\Temp\ccI3TRm9.s:28928  .debug_str:00000000000194a3 .LASF3895
C:\Users\SOLDER~1\AppData\Local\Temp\ccI3TRm9.s:30910  .debug_str:00000000000213fa .LASF3896
C:\Users\SOLDER~1\AppData\Local\Temp\ccI3TRm9.s:25106  .debug_str:0000000000009b7e .LASF3897
C:\Users\SOLDER~1\AppData\Local\Temp\ccI3TRm9.s:32666  .debug_str:0000000000028715 .LASF3898
GAS LISTING C:\Users\SOLDER~1\AppData\Local\Temp\ccI3TRm9.s 			page 163


C:\Users\SOLDER~1\AppData\Local\Temp\ccI3TRm9.s:23122  .debug_str:0000000000001b4f .LASF3899
C:\Users\SOLDER~1\AppData\Local\Temp\ccI3TRm9.s:28516  .debug_str:00000000000179aa .LASF3900
C:\Users\SOLDER~1\AppData\Local\Temp\ccI3TRm9.s:33396  .debug_str:000000000002b5e3 .LASF3901
C:\Users\SOLDER~1\AppData\Local\Temp\ccI3TRm9.s:34226  .debug_str:000000000002eba8 .LASF3902
C:\Users\SOLDER~1\AppData\Local\Temp\ccI3TRm9.s:26436  .debug_str:000000000000f298 .LASF3903
C:\Users\SOLDER~1\AppData\Local\Temp\ccI3TRm9.s:27786  .debug_str:0000000000014ae1 .LASF3904
C:\Users\SOLDER~1\AppData\Local\Temp\ccI3TRm9.s:29834  .debug_str:000000000001cddf .LASF3905
C:\Users\SOLDER~1\AppData\Local\Temp\ccI3TRm9.s:31786  .debug_str:0000000000024d0f .LASF3906
C:\Users\SOLDER~1\AppData\Local\Temp\ccI3TRm9.s:32880  .debug_str:00000000000294ef .LASF3907
C:\Users\SOLDER~1\AppData\Local\Temp\ccI3TRm9.s:30214  .debug_str:000000000001e6ca .LASF3908
C:\Users\SOLDER~1\AppData\Local\Temp\ccI3TRm9.s:34224  .debug_str:000000000002eb85 .LASF3909
C:\Users\SOLDER~1\AppData\Local\Temp\ccI3TRm9.s:28170  .debug_str:0000000000016383 .LASF3910
C:\Users\SOLDER~1\AppData\Local\Temp\ccI3TRm9.s:34080  .debug_str:000000000002e285 .LASF3911
C:\Users\SOLDER~1\AppData\Local\Temp\ccI3TRm9.s:28716  .debug_str:00000000000186c2 .LASF3912
C:\Users\SOLDER~1\AppData\Local\Temp\ccI3TRm9.s:32712  .debug_str:0000000000028a3b .LASF3913
C:\Users\SOLDER~1\AppData\Local\Temp\ccI3TRm9.s:23830  .debug_str:00000000000048b3 .LASF3914
C:\Users\SOLDER~1\AppData\Local\Temp\ccI3TRm9.s:29230  .debug_str:000000000001a7b0 .LASF3915
C:\Users\SOLDER~1\AppData\Local\Temp\ccI3TRm9.s:30460  .debug_str:000000000001f70d .LASF3916
C:\Users\SOLDER~1\AppData\Local\Temp\ccI3TRm9.s:30922  .debug_str:00000000000214c7 .LASF3917
C:\Users\SOLDER~1\AppData\Local\Temp\ccI3TRm9.s:26812  .debug_str:0000000000010afe .LASF3918
C:\Users\SOLDER~1\AppData\Local\Temp\ccI3TRm9.s:32230  .debug_str:0000000000026a37 .LASF3919
C:\Users\SOLDER~1\AppData\Local\Temp\ccI3TRm9.s:33170  .debug_str:000000000002a742 .LASF3920
C:\Users\SOLDER~1\AppData\Local\Temp\ccI3TRm9.s:32100  .debug_str:000000000002614b .LASF3921
C:\Users\SOLDER~1\AppData\Local\Temp\ccI3TRm9.s:24506  .debug_str:000000000000747e .LASF3922
C:\Users\SOLDER~1\AppData\Local\Temp\ccI3TRm9.s:31012  .debug_str:0000000000021ab8 .LASF3923
C:\Users\SOLDER~1\AppData\Local\Temp\ccI3TRm9.s:26950  .debug_str:00000000000113a0 .LASF3924
C:\Users\SOLDER~1\AppData\Local\Temp\ccI3TRm9.s:30854  .debug_str:000000000002108e .LASF3925
C:\Users\SOLDER~1\AppData\Local\Temp\ccI3TRm9.s:23984  .debug_str:0000000000005219 .LASF3926
C:\Users\SOLDER~1\AppData\Local\Temp\ccI3TRm9.s:27506  .debug_str:000000000001377a .LASF3927
C:\Users\SOLDER~1\AppData\Local\Temp\ccI3TRm9.s:25124  .debug_str:0000000000009c9d .LASF3928
C:\Users\SOLDER~1\AppData\Local\Temp\ccI3TRm9.s:23556  .debug_str:000000000000376a .LASF3929
C:\Users\SOLDER~1\AppData\Local\Temp\ccI3TRm9.s:24616  .debug_str:0000000000007b3f .LASF3930
C:\Users\SOLDER~1\AppData\Local\Temp\ccI3TRm9.s:30474  .debug_str:000000000001f7f4 .LASF3931
C:\Users\SOLDER~1\AppData\Local\Temp\ccI3TRm9.s:29932  .debug_str:000000000001d448 .LASF3932
C:\Users\SOLDER~1\AppData\Local\Temp\ccI3TRm9.s:32730  .debug_str:0000000000028b46 .LASF3933
C:\Users\SOLDER~1\AppData\Local\Temp\ccI3TRm9.s:32286  .debug_str:0000000000026de3 .LASF3934
C:\Users\SOLDER~1\AppData\Local\Temp\ccI3TRm9.s:25118  .debug_str:0000000000009c40 .LASF3935
C:\Users\SOLDER~1\AppData\Local\Temp\ccI3TRm9.s:26334  .debug_str:000000000000ec4a .LASF3936
C:\Users\SOLDER~1\AppData\Local\Temp\ccI3TRm9.s:28128  .debug_str:00000000000160c9 .LASF3937
C:\Users\SOLDER~1\AppData\Local\Temp\ccI3TRm9.s:24044  .debug_str:00000000000055ad .LASF3938
C:\Users\SOLDER~1\AppData\Local\Temp\ccI3TRm9.s:24800  .debug_str:0000000000008729 .LASF3939
C:\Users\SOLDER~1\AppData\Local\Temp\ccI3TRm9.s:33244  .debug_str:000000000002ac3d .LASF3940
C:\Users\SOLDER~1\AppData\Local\Temp\ccI3TRm9.s:28664  .debug_str:0000000000018340 .LASF3941
C:\Users\SOLDER~1\AppData\Local\Temp\ccI3TRm9.s:34438  .debug_str:000000000002f8c2 .LASF3942
C:\Users\SOLDER~1\AppData\Local\Temp\ccI3TRm9.s:30926  .debug_str:000000000002150d .LASF3943
C:\Users\SOLDER~1\AppData\Local\Temp\ccI3TRm9.s:23314  .debug_str:0000000000002802 .LASF3944
C:\Users\SOLDER~1\AppData\Local\Temp\ccI3TRm9.s:29684  .debug_str:000000000001c3f9 .LASF3945
C:\Users\SOLDER~1\AppData\Local\Temp\ccI3TRm9.s:24756  .debug_str:0000000000008492 .LASF3946
C:\Users\SOLDER~1\AppData\Local\Temp\ccI3TRm9.s:30792  .debug_str:0000000000020c84 .LASF3947
C:\Users\SOLDER~1\AppData\Local\Temp\ccI3TRm9.s:31972  .debug_str:00000000000258fe .LASF3948
C:\Users\SOLDER~1\AppData\Local\Temp\ccI3TRm9.s:28034  .debug_str:0000000000015b03 .LASF3949
C:\Users\SOLDER~1\AppData\Local\Temp\ccI3TRm9.s:22980  .debug_str:0000000000001230 .LASF3950
C:\Users\SOLDER~1\AppData\Local\Temp\ccI3TRm9.s:31548  .debug_str:0000000000023da1 .LASF3951
C:\Users\SOLDER~1\AppData\Local\Temp\ccI3TRm9.s:23692  .debug_str:0000000000003fcf .LASF3952
C:\Users\SOLDER~1\AppData\Local\Temp\ccI3TRm9.s:26678  .debug_str:00000000000102a3 .LASF3953
C:\Users\SOLDER~1\AppData\Local\Temp\ccI3TRm9.s:28132  .debug_str:000000000001610a .LASF3954
C:\Users\SOLDER~1\AppData\Local\Temp\ccI3TRm9.s:24694  .debug_str:0000000000008079 .LASF3955
GAS LISTING C:\Users\SOLDER~1\AppData\Local\Temp\ccI3TRm9.s 			page 164


C:\Users\SOLDER~1\AppData\Local\Temp\ccI3TRm9.s:23026  .debug_str:000000000000153d .LASF3956
C:\Users\SOLDER~1\AppData\Local\Temp\ccI3TRm9.s:34440  .debug_str:000000000002f8d8 .LASF3957
C:\Users\SOLDER~1\AppData\Local\Temp\ccI3TRm9.s:27248  .debug_str:00000000000126ba .LASF3958
C:\Users\SOLDER~1\AppData\Local\Temp\ccI3TRm9.s:28478  .debug_str:0000000000017721 .LASF3959
C:\Users\SOLDER~1\AppData\Local\Temp\ccI3TRm9.s:26216  .debug_str:000000000000e497 .LASF3960
C:\Users\SOLDER~1\AppData\Local\Temp\ccI3TRm9.s:28748  .debug_str:00000000000188c5 .LASF3961
C:\Users\SOLDER~1\AppData\Local\Temp\ccI3TRm9.s:31988  .debug_str:0000000000025a01 .LASF3962
C:\Users\SOLDER~1\AppData\Local\Temp\ccI3TRm9.s:26398  .debug_str:000000000000f013 .LASF3963
C:\Users\SOLDER~1\AppData\Local\Temp\ccI3TRm9.s:26346  .debug_str:000000000000ed00 .LASF3964
C:\Users\SOLDER~1\AppData\Local\Temp\ccI3TRm9.s:30856  .debug_str:00000000000210ae .LASF3965
C:\Users\SOLDER~1\AppData\Local\Temp\ccI3TRm9.s:30920  .debug_str:000000000002149f .LASF3966
C:\Users\SOLDER~1\AppData\Local\Temp\ccI3TRm9.s:29872  .debug_str:000000000001d067 .LASF3967
C:\Users\SOLDER~1\AppData\Local\Temp\ccI3TRm9.s:31690  .debug_str:000000000002469d .LASF3968
C:\Users\SOLDER~1\AppData\Local\Temp\ccI3TRm9.s:28624  .debug_str:0000000000018085 .LASF3969
C:\Users\SOLDER~1\AppData\Local\Temp\ccI3TRm9.s:25800  .debug_str:000000000000c91e .LASF3970
C:\Users\SOLDER~1\AppData\Local\Temp\ccI3TRm9.s:25350  .debug_str:000000000000aba0 .LASF3971
C:\Users\SOLDER~1\AppData\Local\Temp\ccI3TRm9.s:23840  .debug_str:0000000000004961 .LASF3972
C:\Users\SOLDER~1\AppData\Local\Temp\ccI3TRm9.s:32242  .debug_str:0000000000026b13 .LASF3973
C:\Users\SOLDER~1\AppData\Local\Temp\ccI3TRm9.s:26602  .debug_str:000000000000fd88 .LASF3974
C:\Users\SOLDER~1\AppData\Local\Temp\ccI3TRm9.s:26798  .debug_str:00000000000109ec .LASF3975
C:\Users\SOLDER~1\AppData\Local\Temp\ccI3TRm9.s:22834  .debug_str:00000000000008d4 .LASF3976
C:\Users\SOLDER~1\AppData\Local\Temp\ccI3TRm9.s:24410  .debug_str:0000000000006e02 .LASF3977
C:\Users\SOLDER~1\AppData\Local\Temp\ccI3TRm9.s:34320  .debug_str:000000000002f173 .LASF3978
C:\Users\SOLDER~1\AppData\Local\Temp\ccI3TRm9.s:25286  .debug_str:000000000000a758 .LASF3979
C:\Users\SOLDER~1\AppData\Local\Temp\ccI3TRm9.s:28396  .debug_str:0000000000017181 .LASF3980
C:\Users\SOLDER~1\AppData\Local\Temp\ccI3TRm9.s:32406  .debug_str:00000000000275d9 .LASF3981
C:\Users\SOLDER~1\AppData\Local\Temp\ccI3TRm9.s:29444  .debug_str:000000000001b516 .LASF3982
C:\Users\SOLDER~1\AppData\Local\Temp\ccI3TRm9.s:32848  .debug_str:0000000000029317 .LASF3983
C:\Users\SOLDER~1\AppData\Local\Temp\ccI3TRm9.s:28558  .debug_str:0000000000017c3a .LASF3984
C:\Users\SOLDER~1\AppData\Local\Temp\ccI3TRm9.s:32400  .debug_str:000000000002756e .LASF3985
C:\Users\SOLDER~1\AppData\Local\Temp\ccI3TRm9.s:24846  .debug_str:0000000000008a1e .LASF3986
C:\Users\SOLDER~1\AppData\Local\Temp\ccI3TRm9.s:24360  .debug_str:0000000000006b03 .LASF3987
C:\Users\SOLDER~1\AppData\Local\Temp\ccI3TRm9.s:30080  .debug_str:000000000001de3c .LASF3988
C:\Users\SOLDER~1\AppData\Local\Temp\ccI3TRm9.s:24536  .debug_str:000000000000766e .LASF3989
C:\Users\SOLDER~1\AppData\Local\Temp\ccI3TRm9.s:33694  .debug_str:000000000002c96a .LASF3990
C:\Users\SOLDER~1\AppData\Local\Temp\ccI3TRm9.s:23684  .debug_str:0000000000003f42 .LASF3991
C:\Users\SOLDER~1\AppData\Local\Temp\ccI3TRm9.s:31682  .debug_str:000000000002461a .LASF3992
C:\Users\SOLDER~1\AppData\Local\Temp\ccI3TRm9.s:24946  .debug_str:00000000000090e8 .LASF3993
C:\Users\SOLDER~1\AppData\Local\Temp\ccI3TRm9.s:25540  .debug_str:000000000000b7fb .LASF3994
C:\Users\SOLDER~1\AppData\Local\Temp\ccI3TRm9.s:25826  .debug_str:000000000000caea .LASF3995
C:\Users\SOLDER~1\AppData\Local\Temp\ccI3TRm9.s:31766  .debug_str:0000000000024b98 .LASF3996
C:\Users\SOLDER~1\AppData\Local\Temp\ccI3TRm9.s:33406  .debug_str:000000000002b684 .LASF3997
C:\Users\SOLDER~1\AppData\Local\Temp\ccI3TRm9.s:24988  .debug_str:00000000000093ec .LASF3998
C:\Users\SOLDER~1\AppData\Local\Temp\ccI3TRm9.s:27306  .debug_str:0000000000012a74 .LASF3999
C:\Users\SOLDER~1\AppData\Local\Temp\ccI3TRm9.s:27798  .debug_str:0000000000014b7e .LASF4000
C:\Users\SOLDER~1\AppData\Local\Temp\ccI3TRm9.s:32618  .debug_str:000000000002839a .LASF4001
C:\Users\SOLDER~1\AppData\Local\Temp\ccI3TRm9.s:34240  .debug_str:000000000002ec6f .LASF4002
C:\Users\SOLDER~1\AppData\Local\Temp\ccI3TRm9.s:23250  .debug_str:00000000000023e3 .LASF4003
C:\Users\SOLDER~1\AppData\Local\Temp\ccI3TRm9.s:28264  .debug_str:0000000000016984 .LASF4004
C:\Users\SOLDER~1\AppData\Local\Temp\ccI3TRm9.s:31698  .debug_str:0000000000024716 .LASF4005
C:\Users\SOLDER~1\AppData\Local\Temp\ccI3TRm9.s:32968  .debug_str:0000000000029a24 .LASF4006
C:\Users\SOLDER~1\AppData\Local\Temp\ccI3TRm9.s:24038  .debug_str:000000000000555e .LASF4007
C:\Users\SOLDER~1\AppData\Local\Temp\ccI3TRm9.s:27906  .debug_str:00000000000152ab .LASF4008
C:\Users\SOLDER~1\AppData\Local\Temp\ccI3TRm9.s:22942  .debug_str:0000000000000fdc .LASF4009
C:\Users\SOLDER~1\AppData\Local\Temp\ccI3TRm9.s:32820  .debug_str:0000000000029152 .LASF4010
C:\Users\SOLDER~1\AppData\Local\Temp\ccI3TRm9.s:22908  .debug_str:0000000000000df3 .LASF4011
C:\Users\SOLDER~1\AppData\Local\Temp\ccI3TRm9.s:33320  .debug_str:000000000002b0f4 .LASF4012
GAS LISTING C:\Users\SOLDER~1\AppData\Local\Temp\ccI3TRm9.s 			page 165


C:\Users\SOLDER~1\AppData\Local\Temp\ccI3TRm9.s:32840  .debug_str:000000000002928a .LASF4013
C:\Users\SOLDER~1\AppData\Local\Temp\ccI3TRm9.s:29222  .debug_str:000000000001a732 .LASF4014
C:\Users\SOLDER~1\AppData\Local\Temp\ccI3TRm9.s:25336  .debug_str:000000000000aab0 .LASF4015
C:\Users\SOLDER~1\AppData\Local\Temp\ccI3TRm9.s:23162  .debug_str:0000000000001df3 .LASF4016
C:\Users\SOLDER~1\AppData\Local\Temp\ccI3TRm9.s:33914  .debug_str:000000000002d795 .LASF4017
C:\Users\SOLDER~1\AppData\Local\Temp\ccI3TRm9.s:31106  .debug_str:00000000000220db .LASF4018
C:\Users\SOLDER~1\AppData\Local\Temp\ccI3TRm9.s:22770  .debug_str:00000000000003e9 .LASF4019
C:\Users\SOLDER~1\AppData\Local\Temp\ccI3TRm9.s:25788  .debug_str:000000000000c867 .LASF4020
C:\Users\SOLDER~1\AppData\Local\Temp\ccI3TRm9.s:25618  .debug_str:000000000000bcef .LASF4021
C:\Users\SOLDER~1\AppData\Local\Temp\ccI3TRm9.s:31738  .debug_str:00000000000249b4 .LASF4022
C:\Users\SOLDER~1\AppData\Local\Temp\ccI3TRm9.s:32116  .debug_str:000000000002627a .LASF4023
C:\Users\SOLDER~1\AppData\Local\Temp\ccI3TRm9.s:32756  .debug_str:0000000000028d05 .LASF4024
C:\Users\SOLDER~1\AppData\Local\Temp\ccI3TRm9.s:23720  .debug_str:00000000000041b4 .LASF4025
C:\Users\SOLDER~1\AppData\Local\Temp\ccI3TRm9.s:30376  .debug_str:000000000001f174 .LASF4026
C:\Users\SOLDER~1\AppData\Local\Temp\ccI3TRm9.s:27900  .debug_str:0000000000015259 .LASF4027
C:\Users\SOLDER~1\AppData\Local\Temp\ccI3TRm9.s:34300  .debug_str:000000000002f041 .LASF4028
C:\Users\SOLDER~1\AppData\Local\Temp\ccI3TRm9.s:23572  .debug_str:0000000000003876 .LASF4029
C:\Users\SOLDER~1\AppData\Local\Temp\ccI3TRm9.s:29566  .debug_str:000000000001bcc0 .LASF4030
C:\Users\SOLDER~1\AppData\Local\Temp\ccI3TRm9.s:32290  .debug_str:0000000000026e30 .LASF4031
C:\Users\SOLDER~1\AppData\Local\Temp\ccI3TRm9.s:26708  .debug_str:0000000000010464 .LASF4032
C:\Users\SOLDER~1\AppData\Local\Temp\ccI3TRm9.s:31472  .debug_str:000000000002386d .LASF4033
C:\Users\SOLDER~1\AppData\Local\Temp\ccI3TRm9.s:25620  .debug_str:000000000000bd0c .LASF4034
C:\Users\SOLDER~1\AppData\Local\Temp\ccI3TRm9.s:33176  .debug_str:000000000002a7a4 .LASF4035
C:\Users\SOLDER~1\AppData\Local\Temp\ccI3TRm9.s:25076  .debug_str:0000000000009980 .LASF4036
C:\Users\SOLDER~1\AppData\Local\Temp\ccI3TRm9.s:23906  .debug_str:0000000000004d89 .LASF4037
C:\Users\SOLDER~1\AppData\Local\Temp\ccI3TRm9.s:28726  .debug_str:0000000000018774 .LASF4038
C:\Users\SOLDER~1\AppData\Local\Temp\ccI3TRm9.s:24816  .debug_str:000000000000885a .LASF4039
C:\Users\SOLDER~1\AppData\Local\Temp\ccI3TRm9.s:30886  .debug_str:000000000002128d .LASF4040
C:\Users\SOLDER~1\AppData\Local\Temp\ccI3TRm9.s:34042  .debug_str:000000000002dffe .LASF4041
C:\Users\SOLDER~1\AppData\Local\Temp\ccI3TRm9.s:26430  .debug_str:000000000000f243 .LASF4042
C:\Users\SOLDER~1\AppData\Local\Temp\ccI3TRm9.s:34148  .debug_str:000000000002e6d5 .LASF4043
C:\Users\SOLDER~1\AppData\Local\Temp\ccI3TRm9.s:30646  .debug_str:000000000002030c .LASF4044
C:\Users\SOLDER~1\AppData\Local\Temp\ccI3TRm9.s:24100  .debug_str:000000000000598d .LASF4045
C:\Users\SOLDER~1\AppData\Local\Temp\ccI3TRm9.s:30088  .debug_str:000000000001de7e .LASF4046
C:\Users\SOLDER~1\AppData\Local\Temp\ccI3TRm9.s:24092  .debug_str:0000000000005900 .LASF4047
C:\Users\SOLDER~1\AppData\Local\Temp\ccI3TRm9.s:31960  .debug_str:000000000002585b .LASF4048
C:\Users\SOLDER~1\AppData\Local\Temp\ccI3TRm9.s:26988  .debug_str:000000000001160f .LASF4049
C:\Users\SOLDER~1\AppData\Local\Temp\ccI3TRm9.s:27562  .debug_str:0000000000013b30 .LASF4050
C:\Users\SOLDER~1\AppData\Local\Temp\ccI3TRm9.s:23382  .debug_str:0000000000002c4d .LASF4051
C:\Users\SOLDER~1\AppData\Local\Temp\ccI3TRm9.s:27680  .debug_str:0000000000014394 .LASF4052
C:\Users\SOLDER~1\AppData\Local\Temp\ccI3TRm9.s:26766  .debug_str:0000000000010813 .LASF4053
C:\Users\SOLDER~1\AppData\Local\Temp\ccI3TRm9.s:26960  .debug_str:0000000000011459 .LASF4054
C:\Users\SOLDER~1\AppData\Local\Temp\ccI3TRm9.s:31340  .debug_str:0000000000022fd8 .LASF4055
C:\Users\SOLDER~1\AppData\Local\Temp\ccI3TRm9.s:26878  .debug_str:0000000000010f37 .LASF4056
C:\Users\SOLDER~1\AppData\Local\Temp\ccI3TRm9.s:23470  .debug_str:0000000000003203 .LASF4057
C:\Users\SOLDER~1\AppData\Local\Temp\ccI3TRm9.s:27418  .debug_str:00000000000131c0 .LASF4058
C:\Users\SOLDER~1\AppData\Local\Temp\ccI3TRm9.s:27330  .debug_str:0000000000012bcd .LASF4059
C:\Users\SOLDER~1\AppData\Local\Temp\ccI3TRm9.s:24980  .debug_str:0000000000009367 .LASF4060
C:\Users\SOLDER~1\AppData\Local\Temp\ccI3TRm9.s:24184  .debug_str:0000000000005eff .LASF4061
C:\Users\SOLDER~1\AppData\Local\Temp\ccI3TRm9.s:30882  .debug_str:0000000000021263 .LASF4062
C:\Users\SOLDER~1\AppData\Local\Temp\ccI3TRm9.s:28504  .debug_str:00000000000178e7 .LASF4063
C:\Users\SOLDER~1\AppData\Local\Temp\ccI3TRm9.s:30752  .debug_str:00000000000209d2 .LASF4064
C:\Users\SOLDER~1\AppData\Local\Temp\ccI3TRm9.s:31144  .debug_str:0000000000022347 .LASF4065
C:\Users\SOLDER~1\AppData\Local\Temp\ccI3TRm9.s:31348  .debug_str:0000000000023069 .LASF4066
C:\Users\SOLDER~1\AppData\Local\Temp\ccI3TRm9.s:27286  .debug_str:0000000000012930 .LASF4067
C:\Users\SOLDER~1\AppData\Local\Temp\ccI3TRm9.s:31482  .debug_str:000000000002391c .LASF4068
C:\Users\SOLDER~1\AppData\Local\Temp\ccI3TRm9.s:24234  .debug_str:000000000000627d .LASF4069
GAS LISTING C:\Users\SOLDER~1\AppData\Local\Temp\ccI3TRm9.s 			page 166


C:\Users\SOLDER~1\AppData\Local\Temp\ccI3TRm9.s:31630  .debug_str:00000000000242a8 .LASF4070
C:\Users\SOLDER~1\AppData\Local\Temp\ccI3TRm9.s:28802  .debug_str:0000000000018c27 .LASF4071
C:\Users\SOLDER~1\AppData\Local\Temp\ccI3TRm9.s:29082  .debug_str:0000000000019ea4 .LASF4072
C:\Users\SOLDER~1\AppData\Local\Temp\ccI3TRm9.s:32772  .debug_str:0000000000028e07 .LASF4073
C:\Users\SOLDER~1\AppData\Local\Temp\ccI3TRm9.s:32276  .debug_str:0000000000026d57 .LASF4074
C:\Users\SOLDER~1\AppData\Local\Temp\ccI3TRm9.s:31228  .debug_str:0000000000022858 .LASF4075
C:\Users\SOLDER~1\AppData\Local\Temp\ccI3TRm9.s:27410  .debug_str:0000000000013132 .LASF4076
C:\Users\SOLDER~1\AppData\Local\Temp\ccI3TRm9.s:32068  .debug_str:0000000000025efc .LASF4077
C:\Users\SOLDER~1\AppData\Local\Temp\ccI3TRm9.s:23616  .debug_str:0000000000003b3d .LASF4078
C:\Users\SOLDER~1\AppData\Local\Temp\ccI3TRm9.s:26588  .debug_str:000000000000fc8b .LASF4079
C:\Users\SOLDER~1\AppData\Local\Temp\ccI3TRm9.s:25504  .debug_str:000000000000b56c .LASF4080
C:\Users\SOLDER~1\AppData\Local\Temp\ccI3TRm9.s:23898  .debug_str:0000000000004d05 .LASF4081
C:\Users\SOLDER~1\AppData\Local\Temp\ccI3TRm9.s:32614  .debug_str:0000000000028362 .LASF4082
C:\Users\SOLDER~1\AppData\Local\Temp\ccI3TRm9.s:25080  .debug_str:00000000000099b7 .LASF4083
C:\Users\SOLDER~1\AppData\Local\Temp\ccI3TRm9.s:33638  .debug_str:000000000002c5b9 .LASF4084
C:\Users\SOLDER~1\AppData\Local\Temp\ccI3TRm9.s:31480  .debug_str:00000000000238ff .LASF4085
C:\Users\SOLDER~1\AppData\Local\Temp\ccI3TRm9.s:32792  .debug_str:0000000000028f3f .LASF4086
C:\Users\SOLDER~1\AppData\Local\Temp\ccI3TRm9.s:29728  .debug_str:000000000001c715 .LASF4087
C:\Users\SOLDER~1\AppData\Local\Temp\ccI3TRm9.s:27838  .debug_str:0000000000014e4d .LASF4088
C:\Users\SOLDER~1\AppData\Local\Temp\ccI3TRm9.s:23704  .debug_str:000000000000408f .LASF4089
C:\Users\SOLDER~1\AppData\Local\Temp\ccI3TRm9.s:29516  .debug_str:000000000001b9c0 .LASF4090
C:\Users\SOLDER~1\AppData\Local\Temp\ccI3TRm9.s:33544  .debug_str:000000000002bf8b .LASF4091
C:\Users\SOLDER~1\AppData\Local\Temp\ccI3TRm9.s:34408  .debug_str:000000000002f6f7 .LASF4092
C:\Users\SOLDER~1\AppData\Local\Temp\ccI3TRm9.s:24504  .debug_str:0000000000007461 .LASF4093
C:\Users\SOLDER~1\AppData\Local\Temp\ccI3TRm9.s:33852  .debug_str:000000000002d394 .LASF4094
C:\Users\SOLDER~1\AppData\Local\Temp\ccI3TRm9.s:34112  .debug_str:000000000002e465 .LASF4095
C:\Users\SOLDER~1\AppData\Local\Temp\ccI3TRm9.s:28712  .debug_str:0000000000018694 .LASF4096
C:\Users\SOLDER~1\AppData\Local\Temp\ccI3TRm9.s:23028  .debug_str:0000000000001558 .LASF4097
C:\Users\SOLDER~1\AppData\Local\Temp\ccI3TRm9.s:23852  .debug_str:0000000000004a15 .LASF4098
C:\Users\SOLDER~1\AppData\Local\Temp\ccI3TRm9.s:23670  .debug_str:0000000000003e9c .LASF4099
C:\Users\SOLDER~1\AppData\Local\Temp\ccI3TRm9.s:29520  .debug_str:000000000001b9fa .LASF4100
C:\Users\SOLDER~1\AppData\Local\Temp\ccI3TRm9.s:33398  .debug_str:000000000002b604 .LASF4101
C:\Users\SOLDER~1\AppData\Local\Temp\ccI3TRm9.s:27878  .debug_str:00000000000150f3 .LASF4102
C:\Users\SOLDER~1\AppData\Local\Temp\ccI3TRm9.s:23848  .debug_str:00000000000049e2 .LASF4103
C:\Users\SOLDER~1\AppData\Local\Temp\ccI3TRm9.s:26094  .debug_str:000000000000dc8d .LASF4104
C:\Users\SOLDER~1\AppData\Local\Temp\ccI3TRm9.s:25278  .debug_str:000000000000a6dd .LASF4105
C:\Users\SOLDER~1\AppData\Local\Temp\ccI3TRm9.s:25200  .debug_str:000000000000a196 .LASF4106
C:\Users\SOLDER~1\AppData\Local\Temp\ccI3TRm9.s:34036  .debug_str:000000000002df8b .LASF4107
C:\Users\SOLDER~1\AppData\Local\Temp\ccI3TRm9.s:28860  .debug_str:0000000000019002 .LASF4108
C:\Users\SOLDER~1\AppData\Local\Temp\ccI3TRm9.s:34294  .debug_str:000000000002efe1 .LASF4109
C:\Users\SOLDER~1\AppData\Local\Temp\ccI3TRm9.s:23678  .debug_str:0000000000003f0d .LASF4110
C:\Users\SOLDER~1\AppData\Local\Temp\ccI3TRm9.s:31288  .debug_str:0000000000022c41 .LASF4111
C:\Users\SOLDER~1\AppData\Local\Temp\ccI3TRm9.s:26784  .debug_str:0000000000010929 .LASF4112
C:\Users\SOLDER~1\AppData\Local\Temp\ccI3TRm9.s:28810  .debug_str:0000000000018ca0 .LASF4113
C:\Users\SOLDER~1\AppData\Local\Temp\ccI3TRm9.s:31028  .debug_str:0000000000021bde .LASF4114
C:\Users\SOLDER~1\AppData\Local\Temp\ccI3TRm9.s:29048  .debug_str:0000000000019c86 .LASF4115
C:\Users\SOLDER~1\AppData\Local\Temp\ccI3TRm9.s:26260  .debug_str:000000000000e78a .LASF4116
C:\Users\SOLDER~1\AppData\Local\Temp\ccI3TRm9.s:34064  .debug_str:000000000002e17c .LASF4117
C:\Users\SOLDER~1\AppData\Local\Temp\ccI3TRm9.s:25138  .debug_str:0000000000009d70 .LASF4118
C:\Users\SOLDER~1\AppData\Local\Temp\ccI3TRm9.s:24430  .debug_str:0000000000006f69 .LASF4119
C:\Users\SOLDER~1\AppData\Local\Temp\ccI3TRm9.s:32534  .debug_str:0000000000027e50 .LASF4120
C:\Users\SOLDER~1\AppData\Local\Temp\ccI3TRm9.s:26930  .debug_str:0000000000011264 .LASF4121
C:\Users\SOLDER~1\AppData\Local\Temp\ccI3TRm9.s:24020  .debug_str:0000000000005454 .LASF4122
C:\Users\SOLDER~1\AppData\Local\Temp\ccI3TRm9.s:24362  .debug_str:0000000000006b1e .LASF4123
C:\Users\SOLDER~1\AppData\Local\Temp\ccI3TRm9.s:28124  .debug_str:0000000000016089 .LASF4124
C:\Users\SOLDER~1\AppData\Local\Temp\ccI3TRm9.s:25520  .debug_str:000000000000b682 .LASF4125
C:\Users\SOLDER~1\AppData\Local\Temp\ccI3TRm9.s:23138  .debug_str:0000000000001c67 .LASF4126
GAS LISTING C:\Users\SOLDER~1\AppData\Local\Temp\ccI3TRm9.s 			page 167


C:\Users\SOLDER~1\AppData\Local\Temp\ccI3TRm9.s:27920  .debug_str:000000000001538f .LASF4127
C:\Users\SOLDER~1\AppData\Local\Temp\ccI3TRm9.s:25668  .debug_str:000000000000c02b .LASF4128
C:\Users\SOLDER~1\AppData\Local\Temp\ccI3TRm9.s:33168  .debug_str:000000000002a730 .LASF4129
C:\Users\SOLDER~1\AppData\Local\Temp\ccI3TRm9.s:23310  .debug_str:00000000000027c4 .LASF4130
C:\Users\SOLDER~1\AppData\Local\Temp\ccI3TRm9.s:25310  .debug_str:000000000000a920 .LASF4131
C:\Users\SOLDER~1\AppData\Local\Temp\ccI3TRm9.s:30128  .debug_str:000000000001e11e .LASF4132
C:\Users\SOLDER~1\AppData\Local\Temp\ccI3TRm9.s:25948  .debug_str:000000000000d336 .LASF4133
C:\Users\SOLDER~1\AppData\Local\Temp\ccI3TRm9.s:24060  .debug_str:00000000000056a2 .LASF4134
C:\Users\SOLDER~1\AppData\Local\Temp\ccI3TRm9.s:26718  .debug_str:00000000000104fe .LASF4135
C:\Users\SOLDER~1\AppData\Local\Temp\ccI3TRm9.s:32506  .debug_str:0000000000027c90 .LASF4136
C:\Users\SOLDER~1\AppData\Local\Temp\ccI3TRm9.s:31512  .debug_str:0000000000023b61 .LASF4137
C:\Users\SOLDER~1\AppData\Local\Temp\ccI3TRm9.s:34348  .debug_str:000000000002f35b .LASF4138
C:\Users\SOLDER~1\AppData\Local\Temp\ccI3TRm9.s:27802  .debug_str:0000000000014bb6 .LASF4139
C:\Users\SOLDER~1\AppData\Local\Temp\ccI3TRm9.s:24564  .debug_str:0000000000007820 .LASF4140
C:\Users\SOLDER~1\AppData\Local\Temp\ccI3TRm9.s:31584  .debug_str:0000000000023ffc .LASF4141
C:\Users\SOLDER~1\AppData\Local\Temp\ccI3TRm9.s:24728  .debug_str:00000000000082fb .LASF4142
C:\Users\SOLDER~1\AppData\Local\Temp\ccI3TRm9.s:23066  .debug_str:00000000000017ac .LASF4143
C:\Users\SOLDER~1\AppData\Local\Temp\ccI3TRm9.s:31734  .debug_str:0000000000024988 .LASF4144
C:\Users\SOLDER~1\AppData\Local\Temp\ccI3TRm9.s:27960  .debug_str:0000000000015612 .LASF4145
C:\Users\SOLDER~1\AppData\Local\Temp\ccI3TRm9.s:26246  .debug_str:000000000000e6a0 .LASF4146
C:\Users\SOLDER~1\AppData\Local\Temp\ccI3TRm9.s:25340  .debug_str:000000000000aafa .LASF4147
C:\Users\SOLDER~1\AppData\Local\Temp\ccI3TRm9.s:31514  .debug_str:0000000000023b74 .LASF4148
C:\Users\SOLDER~1\AppData\Local\Temp\ccI3TRm9.s:23408  .debug_str:0000000000002e0a .LASF4149
C:\Users\SOLDER~1\AppData\Local\Temp\ccI3TRm9.s:30768  .debug_str:0000000000020afb .LASF4150
C:\Users\SOLDER~1\AppData\Local\Temp\ccI3TRm9.s:33632  .debug_str:000000000002c550 .LASF4151
C:\Users\SOLDER~1\AppData\Local\Temp\ccI3TRm9.s:30652  .debug_str:000000000002035e .LASF4152
C:\Users\SOLDER~1\AppData\Local\Temp\ccI3TRm9.s:29666  .debug_str:000000000001c2f1 .LASF4153
C:\Users\SOLDER~1\AppData\Local\Temp\ccI3TRm9.s:23866  .debug_str:0000000000004adc .LASF4154
C:\Users\SOLDER~1\AppData\Local\Temp\ccI3TRm9.s:34370  .debug_str:000000000002f4b0 .LASF4155
C:\Users\SOLDER~1\AppData\Local\Temp\ccI3TRm9.s:25394  .debug_str:000000000000ae4f .LASF4156
C:\Users\SOLDER~1\AppData\Local\Temp\ccI3TRm9.s:28794  .debug_str:0000000000018ba8 .LASF4157
C:\Users\SOLDER~1\AppData\Local\Temp\ccI3TRm9.s:33274  .debug_str:000000000002ae17 .LASF4158
C:\Users\SOLDER~1\AppData\Local\Temp\ccI3TRm9.s:31230  .debug_str:0000000000022873 .LASF4159
C:\Users\SOLDER~1\AppData\Local\Temp\ccI3TRm9.s:29076  .debug_str:0000000000019e58 .LASF4160
C:\Users\SOLDER~1\AppData\Local\Temp\ccI3TRm9.s:23306  .debug_str:0000000000002780 .LASF4161
C:\Users\SOLDER~1\AppData\Local\Temp\ccI3TRm9.s:27246  .debug_str:000000000001269c .LASF4162
C:\Users\SOLDER~1\AppData\Local\Temp\ccI3TRm9.s:30748  .debug_str:0000000000020992 .LASF4163
C:\Users\SOLDER~1\AppData\Local\Temp\ccI3TRm9.s:28280  .debug_str:0000000000016a72 .LASF4164
C:\Users\SOLDER~1\AppData\Local\Temp\ccI3TRm9.s:25342  .debug_str:000000000000ab1a .LASF4165
C:\Users\SOLDER~1\AppData\Local\Temp\ccI3TRm9.s:31558  .debug_str:0000000000023e60 .LASF4166
C:\Users\SOLDER~1\AppData\Local\Temp\ccI3TRm9.s:32092  .debug_str:00000000000260c8 .LASF4167
C:\Users\SOLDER~1\AppData\Local\Temp\ccI3TRm9.s:32672  .debug_str:000000000002876e .LASF4168
C:\Users\SOLDER~1\AppData\Local\Temp\ccI3TRm9.s:30414  .debug_str:000000000001f3fa .LASF4169
C:\Users\SOLDER~1\AppData\Local\Temp\ccI3TRm9.s:33596  .debug_str:000000000002c311 .LASF4170
C:\Users\SOLDER~1\AppData\Local\Temp\ccI3TRm9.s:29614  .debug_str:000000000001bf95 .LASF4171
C:\Users\SOLDER~1\AppData\Local\Temp\ccI3TRm9.s:32882  .debug_str:0000000000029514 .LASF4172
C:\Users\SOLDER~1\AppData\Local\Temp\ccI3TRm9.s:33994  .debug_str:000000000002dd06 .LASF4173
C:\Users\SOLDER~1\AppData\Local\Temp\ccI3TRm9.s:23944  .debug_str:0000000000004fc1 .LASF4174
C:\Users\SOLDER~1\AppData\Local\Temp\ccI3TRm9.s:34244  .debug_str:000000000002ec9a .LASF4175
C:\Users\SOLDER~1\AppData\Local\Temp\ccI3TRm9.s:30548  .debug_str:000000000001fd0c .LASF4176
C:\Users\SOLDER~1\AppData\Local\Temp\ccI3TRm9.s:32546  .debug_str:0000000000027f1e .LASF4177
C:\Users\SOLDER~1\AppData\Local\Temp\ccI3TRm9.s:32042  .debug_str:0000000000025d65 .LASF4178
C:\Users\SOLDER~1\AppData\Local\Temp\ccI3TRm9.s:26496  .debug_str:000000000000f63c .LASF4179
C:\Users\SOLDER~1\AppData\Local\Temp\ccI3TRm9.s:29144  .debug_str:000000000001a264 .LASF4180
C:\Users\SOLDER~1\AppData\Local\Temp\ccI3TRm9.s:24180  .debug_str:0000000000005ebc .LASF4181
C:\Users\SOLDER~1\AppData\Local\Temp\ccI3TRm9.s:23786  .debug_str:00000000000045ba .LASF4182
C:\Users\SOLDER~1\AppData\Local\Temp\ccI3TRm9.s:24462  .debug_str:00000000000071ba .LASF4183
GAS LISTING C:\Users\SOLDER~1\AppData\Local\Temp\ccI3TRm9.s 			page 168


C:\Users\SOLDER~1\AppData\Local\Temp\ccI3TRm9.s:31930  .debug_str:000000000002564b .LASF4184
C:\Users\SOLDER~1\AppData\Local\Temp\ccI3TRm9.s:27688  .debug_str:00000000000143fa .LASF4185
C:\Users\SOLDER~1\AppData\Local\Temp\ccI3TRm9.s:34132  .debug_str:000000000002e5b9 .LASF4186
C:\Users\SOLDER~1\AppData\Local\Temp\ccI3TRm9.s:31120  .debug_str:00000000000221bc .LASF4187
C:\Users\SOLDER~1\AppData\Local\Temp\ccI3TRm9.s:24676  .debug_str:0000000000007f53 .LASF4188
C:\Users\SOLDER~1\AppData\Local\Temp\ccI3TRm9.s:30332  .debug_str:000000000001ee87 .LASF4189
C:\Users\SOLDER~1\AppData\Local\Temp\ccI3TRm9.s:24570  .debug_str:0000000000007872 .LASF4190
C:\Users\SOLDER~1\AppData\Local\Temp\ccI3TRm9.s:24358  .debug_str:0000000000006aef .LASF4191
C:\Users\SOLDER~1\AppData\Local\Temp\ccI3TRm9.s:32930  .debug_str:000000000002980c .LASF4192
C:\Users\SOLDER~1\AppData\Local\Temp\ccI3TRm9.s:23190  .debug_str:0000000000001fb7 .LASF4193
C:\Users\SOLDER~1\AppData\Local\Temp\ccI3TRm9.s:32004  .debug_str:0000000000025b15 .LASF4194
C:\Users\SOLDER~1\AppData\Local\Temp\ccI3TRm9.s:25848  .debug_str:000000000000cc7d .LASF4195
C:\Users\SOLDER~1\AppData\Local\Temp\ccI3TRm9.s:29588  .debug_str:000000000001bdb3 .LASF4196
C:\Users\SOLDER~1\AppData\Local\Temp\ccI3TRm9.s:22828  .debug_str:0000000000000876 .LASF4197
C:\Users\SOLDER~1\AppData\Local\Temp\ccI3TRm9.s:27672  .debug_str:00000000000142fd .LASF4198
C:\Users\SOLDER~1\AppData\Local\Temp\ccI3TRm9.s:27650  .debug_str:0000000000014160 .LASF4199
C:\Users\SOLDER~1\AppData\Local\Temp\ccI3TRm9.s:25358  .debug_str:000000000000ac48 .LASF4200
C:\Users\SOLDER~1\AppData\Local\Temp\ccI3TRm9.s:25160  .debug_str:0000000000009ee9 .LASF4201
C:\Users\SOLDER~1\AppData\Local\Temp\ccI3TRm9.s:25460  .debug_str:000000000000b2b8 .LASF4202
C:\Users\SOLDER~1\AppData\Local\Temp\ccI3TRm9.s:26820  .debug_str:0000000000010b78 .LASF4203
C:\Users\SOLDER~1\AppData\Local\Temp\ccI3TRm9.s:25362  .debug_str:000000000000ac8a .LASF4204
C:\Users\SOLDER~1\AppData\Local\Temp\ccI3TRm9.s:27630  .debug_str:000000000001400e .LASF4205
C:\Users\SOLDER~1\AppData\Local\Temp\ccI3TRm9.s:28956  .debug_str:0000000000019652 .LASF4206
C:\Users\SOLDER~1\AppData\Local\Temp\ccI3TRm9.s:24246  .debug_str:0000000000006343 .LASF4207
C:\Users\SOLDER~1\AppData\Local\Temp\ccI3TRm9.s:27508  .debug_str:0000000000013799 .LASF4208
C:\Users\SOLDER~1\AppData\Local\Temp\ccI3TRm9.s:24810  .debug_str:00000000000087da .LASF4209
C:\Users\SOLDER~1\AppData\Local\Temp\ccI3TRm9.s:33042  .debug_str:0000000000029f1a .LASF4210
C:\Users\SOLDER~1\AppData\Local\Temp\ccI3TRm9.s:33040  .debug_str:0000000000029efc .LASF4211
C:\Users\SOLDER~1\AppData\Local\Temp\ccI3TRm9.s:23090  .debug_str:0000000000001928 .LASF4212
C:\Users\SOLDER~1\AppData\Local\Temp\ccI3TRm9.s:30954  .debug_str:000000000002170c .LASF4213
C:\Users\SOLDER~1\AppData\Local\Temp\ccI3TRm9.s:32584  .debug_str:0000000000028183 .LASF4214
C:\Users\SOLDER~1\AppData\Local\Temp\ccI3TRm9.s:24776  .debug_str:00000000000085ca .LASF4215
C:\Users\SOLDER~1\AppData\Local\Temp\ccI3TRm9.s:28062  .debug_str:0000000000015cd4 .LASF4216
C:\Users\SOLDER~1\AppData\Local\Temp\ccI3TRm9.s:28488  .debug_str:00000000000177b9 .LASF4217
C:\Users\SOLDER~1\AppData\Local\Temp\ccI3TRm9.s:22758  .debug_str:0000000000000316 .LASF4218
C:\Users\SOLDER~1\AppData\Local\Temp\ccI3TRm9.s:27792  .debug_str:0000000000014b3b .LASF4219
C:\Users\SOLDER~1\AppData\Local\Temp\ccI3TRm9.s:32808  .debug_str:0000000000029071 .LASF4220
C:\Users\SOLDER~1\AppData\Local\Temp\ccI3TRm9.s:33902  .debug_str:000000000002d6a4 .LASF4221
C:\Users\SOLDER~1\AppData\Local\Temp\ccI3TRm9.s:33146  .debug_str:000000000002a5b2 .LASF4222
C:\Users\SOLDER~1\AppData\Local\Temp\ccI3TRm9.s:30576  .debug_str:000000000001fee8 .LASF4223
C:\Users\SOLDER~1\AppData\Local\Temp\ccI3TRm9.s:33062  .debug_str:000000000002a04b .LASF4224
C:\Users\SOLDER~1\AppData\Local\Temp\ccI3TRm9.s:28820  .debug_str:0000000000018d4f .LASF4225
C:\Users\SOLDER~1\AppData\Local\Temp\ccI3TRm9.s:30358  .debug_str:000000000001f050 .LASF4226
C:\Users\SOLDER~1\AppData\Local\Temp\ccI3TRm9.s:25476  .debug_str:000000000000b38b .LASF4227
C:\Users\SOLDER~1\AppData\Local\Temp\ccI3TRm9.s:25556  .debug_str:000000000000b903 .LASF4228
C:\Users\SOLDER~1\AppData\Local\Temp\ccI3TRm9.s:27930  .debug_str:0000000000015418 .LASF4229
C:\Users\SOLDER~1\AppData\Local\Temp\ccI3TRm9.s:25420  .debug_str:000000000000b02e .LASF4230
C:\Users\SOLDER~1\AppData\Local\Temp\ccI3TRm9.s:24742  .debug_str:00000000000083b0 .LASF4231
C:\Users\SOLDER~1\AppData\Local\Temp\ccI3TRm9.s:29300  .debug_str:000000000001ac40 .LASF4232
C:\Users\SOLDER~1\AppData\Local\Temp\ccI3TRm9.s:26858  .debug_str:0000000000010df9 .LASF4233
C:\Users\SOLDER~1\AppData\Local\Temp\ccI3TRm9.s:33456  .debug_str:000000000002b9ee .LASF4234
C:\Users\SOLDER~1\AppData\Local\Temp\ccI3TRm9.s:24754  .debug_str:000000000000847e .LASF4235
C:\Users\SOLDER~1\AppData\Local\Temp\ccI3TRm9.s:27422  .debug_str:00000000000131e5 .LASF4236
C:\Users\SOLDER~1\AppData\Local\Temp\ccI3TRm9.s:24316  .debug_str:00000000000067f2 .LASF4237
C:\Users\SOLDER~1\AppData\Local\Temp\ccI3TRm9.s:22796  .debug_str:0000000000000596 .LASF4238
C:\Users\SOLDER~1\AppData\Local\Temp\ccI3TRm9.s:23462  .debug_str:0000000000003190 .LASF4239
C:\Users\SOLDER~1\AppData\Local\Temp\ccI3TRm9.s:31726  .debug_str:0000000000024906 .LASF4240
GAS LISTING C:\Users\SOLDER~1\AppData\Local\Temp\ccI3TRm9.s 			page 169


C:\Users\SOLDER~1\AppData\Local\Temp\ccI3TRm9.s:23432  .debug_str:0000000000002fb1 .LASF4241
C:\Users\SOLDER~1\AppData\Local\Temp\ccI3TRm9.s:30634  .debug_str:0000000000020253 .LASF4242
C:\Users\SOLDER~1\AppData\Local\Temp\ccI3TRm9.s:32332  .debug_str:0000000000027102 .LASF4243
C:\Users\SOLDER~1\AppData\Local\Temp\ccI3TRm9.s:24518  .debug_str:0000000000007540 .LASF4244
C:\Users\SOLDER~1\AppData\Local\Temp\ccI3TRm9.s:30902  .debug_str:0000000000021382 .LASF4245
C:\Users\SOLDER~1\AppData\Local\Temp\ccI3TRm9.s:23374  .debug_str:0000000000002bbe .LASF4246
C:\Users\SOLDER~1\AppData\Local\Temp\ccI3TRm9.s:30482  .debug_str:000000000001f87f .LASF4247
C:\Users\SOLDER~1\AppData\Local\Temp\ccI3TRm9.s:26876  .debug_str:0000000000010f1b .LASF4248
C:\Users\SOLDER~1\AppData\Local\Temp\ccI3TRm9.s:23232  .debug_str:000000000000229e .LASF4249
C:\Users\SOLDER~1\AppData\Local\Temp\ccI3TRm9.s:28036  .debug_str:0000000000015b26 .LASF4250
C:\Users\SOLDER~1\AppData\Local\Temp\ccI3TRm9.s:30838  .debug_str:0000000000020f7f .LASF4251
C:\Users\SOLDER~1\AppData\Local\Temp\ccI3TRm9.s:33376  .debug_str:000000000002b493 .LASF4252
C:\Users\SOLDER~1\AppData\Local\Temp\ccI3TRm9.s:28584  .debug_str:0000000000017dfe .LASF4253
C:\Users\SOLDER~1\AppData\Local\Temp\ccI3TRm9.s:28112  .debug_str:0000000000015fd4 .LASF4254
C:\Users\SOLDER~1\AppData\Local\Temp\ccI3TRm9.s:26344  .debug_str:000000000000ece3 .LASF4255
C:\Users\SOLDER~1\AppData\Local\Temp\ccI3TRm9.s:33066  .debug_str:000000000002a087 .LASF4256
C:\Users\SOLDER~1\AppData\Local\Temp\ccI3TRm9.s:23698  .debug_str:0000000000004036 .LASF4257
C:\Users\SOLDER~1\AppData\Local\Temp\ccI3TRm9.s:30898  .debug_str:000000000002135b .LASF4258
C:\Users\SOLDER~1\AppData\Local\Temp\ccI3TRm9.s:24212  .debug_str:00000000000060da .LASF4259
C:\Users\SOLDER~1\AppData\Local\Temp\ccI3TRm9.s:27100  .debug_str:0000000000011d65 .LASF4260
C:\Users\SOLDER~1\AppData\Local\Temp\ccI3TRm9.s:28954  .debug_str:0000000000019634 .LASF4261
C:\Users\SOLDER~1\AppData\Local\Temp\ccI3TRm9.s:31814  .debug_str:0000000000024eca .LASF4262
C:\Users\SOLDER~1\AppData\Local\Temp\ccI3TRm9.s:31064  .debug_str:0000000000021e15 .LASF4263
C:\Users\SOLDER~1\AppData\Local\Temp\ccI3TRm9.s:32282  .debug_str:0000000000026da1 .LASF4264
C:\Users\SOLDER~1\AppData\Local\Temp\ccI3TRm9.s:32582  .debug_str:0000000000028168 .LASF4265
C:\Users\SOLDER~1\AppData\Local\Temp\ccI3TRm9.s:33414  .debug_str:000000000002b700 .LASF4266
C:\Users\SOLDER~1\AppData\Local\Temp\ccI3TRm9.s:32876  .debug_str:00000000000294c3 .LASF4267
C:\Users\SOLDER~1\AppData\Local\Temp\ccI3TRm9.s:30044  .debug_str:000000000001dbc9 .LASF4268
C:\Users\SOLDER~1\AppData\Local\Temp\ccI3TRm9.s:22936  .debug_str:0000000000000f7c .LASF4269
C:\Users\SOLDER~1\AppData\Local\Temp\ccI3TRm9.s:30978  .debug_str:00000000000218a4 .LASF4270
C:\Users\SOLDER~1\AppData\Local\Temp\ccI3TRm9.s:24730  .debug_str:000000000000830f .LASF4271
C:\Users\SOLDER~1\AppData\Local\Temp\ccI3TRm9.s:28770  .debug_str:0000000000018a14 .LASF4272
C:\Users\SOLDER~1\AppData\Local\Temp\ccI3TRm9.s:32462  .debug_str:0000000000027999 .LASF4273
C:\Users\SOLDER~1\AppData\Local\Temp\ccI3TRm9.s:22804  .debug_str:00000000000006a4 .LASF4274
C:\Users\SOLDER~1\AppData\Local\Temp\ccI3TRm9.s:32050  .debug_str:0000000000025dd9 .LASF4275
C:\Users\SOLDER~1\AppData\Local\Temp\ccI3TRm9.s:23750  .debug_str:000000000000436c .LASF4276
C:\Users\SOLDER~1\AppData\Local\Temp\ccI3TRm9.s:26062  .debug_str:000000000000daa2 .LASF4277
C:\Users\SOLDER~1\AppData\Local\Temp\ccI3TRm9.s:24772  .debug_str:0000000000008589 .LASF4278
C:\Users\SOLDER~1\AppData\Local\Temp\ccI3TRm9.s:33670  .debug_str:000000000002c7b4 .LASF4279
C:\Users\SOLDER~1\AppData\Local\Temp\ccI3TRm9.s:26922  .debug_str:00000000000111ef .LASF4280
C:\Users\SOLDER~1\AppData\Local\Temp\ccI3TRm9.s:22768  .debug_str:00000000000003c8 .LASF4281
C:\Users\SOLDER~1\AppData\Local\Temp\ccI3TRm9.s:25056  .debug_str:000000000000982c .LASF4282
C:\Users\SOLDER~1\AppData\Local\Temp\ccI3TRm9.s:32906  .debug_str:00000000000296a1 .LASF4283
C:\Users\SOLDER~1\AppData\Local\Temp\ccI3TRm9.s:24514  .debug_str:0000000000007510 .LASF4284
C:\Users\SOLDER~1\AppData\Local\Temp\ccI3TRm9.s:25778  .debug_str:000000000000c797 .LASF4285
C:\Users\SOLDER~1\AppData\Local\Temp\ccI3TRm9.s:28784  .debug_str:0000000000018b15 .LASF4286
C:\Users\SOLDER~1\AppData\Local\Temp\ccI3TRm9.s:27702  .debug_str:00000000000144e7 .LASF4287
C:\Users\SOLDER~1\AppData\Local\Temp\ccI3TRm9.s:31164  .debug_str:0000000000022484 .LASF4288
C:\Users\SOLDER~1\AppData\Local\Temp\ccI3TRm9.s:30246  .debug_str:000000000001e8ce .LASF4289
C:\Users\SOLDER~1\AppData\Local\Temp\ccI3TRm9.s:26926  .debug_str:0000000000011236 .LASF4290
C:\Users\SOLDER~1\AppData\Local\Temp\ccI3TRm9.s:28000  .debug_str:00000000000158d9 .LASF4291
C:\Users\SOLDER~1\AppData\Local\Temp\ccI3TRm9.s:22992  .debug_str:0000000000001301 .LASF4292
C:\Users\SOLDER~1\AppData\Local\Temp\ccI3TRm9.s:29084  .debug_str:0000000000019eb6 .LASF4293
C:\Users\SOLDER~1\AppData\Local\Temp\ccI3TRm9.s:29680  .debug_str:000000000001c3d3 .LASF4294
C:\Users\SOLDER~1\AppData\Local\Temp\ccI3TRm9.s:30888  .debug_str:000000000002129f .LASF4295
C:\Users\SOLDER~1\AppData\Local\Temp\ccI3TRm9.s:32446  .debug_str:0000000000027888 .LASF4296
C:\Users\SOLDER~1\AppData\Local\Temp\ccI3TRm9.s:26366  .debug_str:000000000000ee00 .LASF4297
GAS LISTING C:\Users\SOLDER~1\AppData\Local\Temp\ccI3TRm9.s 			page 170


C:\Users\SOLDER~1\AppData\Local\Temp\ccI3TRm9.s:27524  .debug_str:00000000000138b1 .LASF4298
C:\Users\SOLDER~1\AppData\Local\Temp\ccI3TRm9.s:24028  .debug_str:00000000000054ce .LASF4299
C:\Users\SOLDER~1\AppData\Local\Temp\ccI3TRm9.s:26138  .debug_str:000000000000df65 .LASF4300
C:\Users\SOLDER~1\AppData\Local\Temp\ccI3TRm9.s:24858  .debug_str:0000000000008aff .LASF4301
C:\Users\SOLDER~1\AppData\Local\Temp\ccI3TRm9.s:28696  .debug_str:0000000000018592 .LASF4302
C:\Users\SOLDER~1\AppData\Local\Temp\ccI3TRm9.s:34138  .debug_str:000000000002e60e .LASF4303
C:\Users\SOLDER~1\AppData\Local\Temp\ccI3TRm9.s:23210  .debug_str:000000000000211d .LASF4304
C:\Users\SOLDER~1\AppData\Local\Temp\ccI3TRm9.s:28108  .debug_str:0000000000015f84 .LASF4305
C:\Users\SOLDER~1\AppData\Local\Temp\ccI3TRm9.s:32248  .debug_str:0000000000026b87 .LASF4306
C:\Users\SOLDER~1\AppData\Local\Temp\ccI3TRm9.s:31938  .debug_str:00000000000256c3 .LASF4307
C:\Users\SOLDER~1\AppData\Local\Temp\ccI3TRm9.s:30422  .debug_str:000000000001f474 .LASF4308
C:\Users\SOLDER~1\AppData\Local\Temp\ccI3TRm9.s:34264  .debug_str:000000000002edd8 .LASF4309
C:\Users\SOLDER~1\AppData\Local\Temp\ccI3TRm9.s:25664  .debug_str:000000000000bff7 .LASF4310
C:\Users\SOLDER~1\AppData\Local\Temp\ccI3TRm9.s:26674  .debug_str:000000000001025b .LASF4311
C:\Users\SOLDER~1\AppData\Local\Temp\ccI3TRm9.s:24076  .debug_str:00000000000057bd .LASF4312
C:\Users\SOLDER~1\AppData\Local\Temp\ccI3TRm9.s:26814  .debug_str:0000000000010b16 .LASF4313
C:\Users\SOLDER~1\AppData\Local\Temp\ccI3TRm9.s:23062  .debug_str:0000000000001770 .LASF4314
C:\Users\SOLDER~1\AppData\Local\Temp\ccI3TRm9.s:28274  .debug_str:0000000000016a1f .LASF4315
C:\Users\SOLDER~1\AppData\Local\Temp\ccI3TRm9.s:27894  .debug_str:00000000000151f4 .LASF4316
C:\Users\SOLDER~1\AppData\Local\Temp\ccI3TRm9.s:24634  .debug_str:0000000000007c89 .LASF4317
C:\Users\SOLDER~1\AppData\Local\Temp\ccI3TRm9.s:28160  .debug_str:00000000000162e2 .LASF4318
C:\Users\SOLDER~1\AppData\Local\Temp\ccI3TRm9.s:24202  .debug_str:000000000000601b .LASF4319
C:\Users\SOLDER~1\AppData\Local\Temp\ccI3TRm9.s:33618  .debug_str:000000000002c467 .LASF4320
C:\Users\SOLDER~1\AppData\Local\Temp\ccI3TRm9.s:32668  .debug_str:000000000002872c .LASF4321
C:\Users\SOLDER~1\AppData\Local\Temp\ccI3TRm9.s:31124  .debug_str:00000000000221fa .LASF4322
C:\Users\SOLDER~1\AppData\Local\Temp\ccI3TRm9.s:33830  .debug_str:000000000002d220 .LASF4323
C:\Users\SOLDER~1\AppData\Local\Temp\ccI3TRm9.s:28764  .debug_str:00000000000189a3 .LASF4324
C:\Users\SOLDER~1\AppData\Local\Temp\ccI3TRm9.s:34222  .debug_str:000000000002eb61 .LASF4325
C:\Users\SOLDER~1\AppData\Local\Temp\ccI3TRm9.s:27018  .debug_str:000000000001181b .LASF4326
C:\Users\SOLDER~1\AppData\Local\Temp\ccI3TRm9.s:24682  .debug_str:0000000000007fb0 .LASF4327
C:\Users\SOLDER~1\AppData\Local\Temp\ccI3TRm9.s:34118  .debug_str:000000000002e4d0 .LASF4328
C:\Users\SOLDER~1\AppData\Local\Temp\ccI3TRm9.s:31330  .debug_str:0000000000022f0a .LASF4329
C:\Users\SOLDER~1\AppData\Local\Temp\ccI3TRm9.s:30546  .debug_str:000000000001fcf1 .LASF4330
C:\Users\SOLDER~1\AppData\Local\Temp\ccI3TRm9.s:29738  .debug_str:000000000001c7a3 .LASF4331
C:\Users\SOLDER~1\AppData\Local\Temp\ccI3TRm9.s:27470  .debug_str:00000000000134ed .LASF4332
C:\Users\SOLDER~1\AppData\Local\Temp\ccI3TRm9.s:30556  .debug_str:000000000001fd8a .LASF4333
C:\Users\SOLDER~1\AppData\Local\Temp\ccI3TRm9.s:27266  .debug_str:00000000000127ad .LASF4334
C:\Users\SOLDER~1\AppData\Local\Temp\ccI3TRm9.s:29856  .debug_str:000000000001cf77 .LASF4335
C:\Users\SOLDER~1\AppData\Local\Temp\ccI3TRm9.s:29400  .debug_str:000000000001b2df .LASF4336
C:\Users\SOLDER~1\AppData\Local\Temp\ccI3TRm9.s:24276  .debug_str:000000000000653a .LASF4337
C:\Users\SOLDER~1\AppData\Local\Temp\ccI3TRm9.s:30240  .debug_str:000000000001e869 .LASF4338
C:\Users\SOLDER~1\AppData\Local\Temp\ccI3TRm9.s:29094  .debug_str:0000000000019f24 .LASF4339
C:\Users\SOLDER~1\AppData\Local\Temp\ccI3TRm9.s:29788  .debug_str:000000000001cafc .LASF4340
C:\Users\SOLDER~1\AppData\Local\Temp\ccI3TRm9.s:28574  .debug_str:0000000000017d53 .LASF4341
C:\Users\SOLDER~1\AppData\Local\Temp\ccI3TRm9.s:30040  .debug_str:000000000001db89 .LASF4342
C:\Users\SOLDER~1\AppData\Local\Temp\ccI3TRm9.s:28390  .debug_str:0000000000017127 .LASF4343
C:\Users\SOLDER~1\AppData\Local\Temp\ccI3TRm9.s:28480  .debug_str:0000000000017747 .LASF4344
C:\Users\SOLDER~1\AppData\Local\Temp\ccI3TRm9.s:31828  .debug_str:0000000000024fbe .LASF4345
C:\Users\SOLDER~1\AppData\Local\Temp\ccI3TRm9.s:27296  .debug_str:00000000000129d8 .LASF4346
C:\Users\SOLDER~1\AppData\Local\Temp\ccI3TRm9.s:23454  .debug_str:0000000000003107 .LASF4347
C:\Users\SOLDER~1\AppData\Local\Temp\ccI3TRm9.s:31730  .debug_str:0000000000024947 .LASF4348
C:\Users\SOLDER~1\AppData\Local\Temp\ccI3TRm9.s:33568  .debug_str:000000000002c124 .LASF4349
C:\Users\SOLDER~1\AppData\Local\Temp\ccI3TRm9.s:31368  .debug_str:00000000000231c4 .LASF4350
C:\Users\SOLDER~1\AppData\Local\Temp\ccI3TRm9.s:26416  .debug_str:000000000000f14d .LASF4351
C:\Users\SOLDER~1\AppData\Local\Temp\ccI3TRm9.s:28226  .debug_str:000000000001672d .LASF4352
C:\Users\SOLDER~1\AppData\Local\Temp\ccI3TRm9.s:23400  .debug_str:0000000000002d7a .LASF4353
C:\Users\SOLDER~1\AppData\Local\Temp\ccI3TRm9.s:29112  .debug_str:000000000001a05d .LASF4354
GAS LISTING C:\Users\SOLDER~1\AppData\Local\Temp\ccI3TRm9.s 			page 171


C:\Users\SOLDER~1\AppData\Local\Temp\ccI3TRm9.s:27468  .debug_str:00000000000134c7 .LASF4355
C:\Users\SOLDER~1\AppData\Local\Temp\ccI3TRm9.s:29482  .debug_str:000000000001b792 .LASF4356
C:\Users\SOLDER~1\AppData\Local\Temp\ccI3TRm9.s:31478  .debug_str:00000000000238da .LASF4357
C:\Users\SOLDER~1\AppData\Local\Temp\ccI3TRm9.s:26146  .debug_str:000000000000dfda .LASF4358
C:\Users\SOLDER~1\AppData\Local\Temp\ccI3TRm9.s:26524  .debug_str:000000000000f821 .LASF4359
C:\Users\SOLDER~1\AppData\Local\Temp\ccI3TRm9.s:33532  .debug_str:000000000002beb8 .LASF4360
C:\Users\SOLDER~1\AppData\Local\Temp\ccI3TRm9.s:30366  .debug_str:000000000001f0cb .LASF4361
C:\Users\SOLDER~1\AppData\Local\Temp\ccI3TRm9.s:25046  .debug_str:00000000000097a2 .LASF4362
C:\Users\SOLDER~1\AppData\Local\Temp\ccI3TRm9.s:23776  .debug_str:000000000000450e .LASF4363
C:\Users\SOLDER~1\AppData\Local\Temp\ccI3TRm9.s:25666  .debug_str:000000000000c010 .LASF4364
C:\Users\SOLDER~1\AppData\Local\Temp\ccI3TRm9.s:25950  .debug_str:000000000000d34a .LASF4365
C:\Users\SOLDER~1\AppData\Local\Temp\ccI3TRm9.s:28514  .debug_str:0000000000017990 .LASF4366
C:\Users\SOLDER~1\AppData\Local\Temp\ccI3TRm9.s:34284  .debug_str:000000000002ef36 .LASF4367
C:\Users\SOLDER~1\AppData\Local\Temp\ccI3TRm9.s:25772  .debug_str:000000000000c72e .LASF4368
C:\Users\SOLDER~1\AppData\Local\Temp\ccI3TRm9.s:31158  .debug_str:000000000002241c .LASF4369
C:\Users\SOLDER~1\AppData\Local\Temp\ccI3TRm9.s:32438  .debug_str:0000000000027811 .LASF4370
C:\Users\SOLDER~1\AppData\Local\Temp\ccI3TRm9.s:24778  .debug_str:00000000000085dc .LASF4371
C:\Users\SOLDER~1\AppData\Local\Temp\ccI3TRm9.s:26110  .debug_str:000000000000dd6c .LASF4372
C:\Users\SOLDER~1\AppData\Local\Temp\ccI3TRm9.s:27850  .debug_str:0000000000014f06 .LASF4373
C:\Users\SOLDER~1\AppData\Local\Temp\ccI3TRm9.s:32488  .debug_str:0000000000027b56 .LASF4374
C:\Users\SOLDER~1\AppData\Local\Temp\ccI3TRm9.s:28964  .debug_str:00000000000196cf .LASF4375
C:\Users\SOLDER~1\AppData\Local\Temp\ccI3TRm9.s:27828  .debug_str:0000000000014d9b .LASF4376
C:\Users\SOLDER~1\AppData\Local\Temp\ccI3TRm9.s:29238  .debug_str:000000000001a81f .LASF4377
C:\Users\SOLDER~1\AppData\Local\Temp\ccI3TRm9.s:25996  .debug_str:000000000000d63b .LASF4378
C:\Users\SOLDER~1\AppData\Local\Temp\ccI3TRm9.s:30016  .debug_str:000000000001da1b .LASF4379
C:\Users\SOLDER~1\AppData\Local\Temp\ccI3TRm9.s:31854  .debug_str:000000000002515b .LASF4380
C:\Users\SOLDER~1\AppData\Local\Temp\ccI3TRm9.s:24932  .debug_str:0000000000008fdd .LASF4381
C:\Users\SOLDER~1\AppData\Local\Temp\ccI3TRm9.s:25316  .debug_str:000000000000a983 .LASF4382
C:\Users\SOLDER~1\AppData\Local\Temp\ccI3TRm9.s:25890  .debug_str:000000000000cf49 .LASF4383
C:\Users\SOLDER~1\AppData\Local\Temp\ccI3TRm9.s:33022  .debug_str:0000000000029dc5 .LASF4384
C:\Users\SOLDER~1\AppData\Local\Temp\ccI3TRm9.s:29498  .debug_str:000000000001b889 .LASF4385
C:\Users\SOLDER~1\AppData\Local\Temp\ccI3TRm9.s:27478  .debug_str:000000000001359c .LASF4386
C:\Users\SOLDER~1\AppData\Local\Temp\ccI3TRm9.s:22856  .debug_str:0000000000000a49 .LASF4387
C:\Users\SOLDER~1\AppData\Local\Temp\ccI3TRm9.s:24898  .debug_str:0000000000008d7c .LASF4388
C:\Users\SOLDER~1\AppData\Local\Temp\ccI3TRm9.s:27724  .debug_str:00000000000146a5 .LASF4389
C:\Users\SOLDER~1\AppData\Local\Temp\ccI3TRm9.s:23796  .debug_str:0000000000004661 .LASF4390
C:\Users\SOLDER~1\AppData\Local\Temp\ccI3TRm9.s:23856  .debug_str:0000000000004a4b .LASF4391
C:\Users\SOLDER~1\AppData\Local\Temp\ccI3TRm9.s:34034  .debug_str:000000000002df75 .LASF4392
C:\Users\SOLDER~1\AppData\Local\Temp\ccI3TRm9.s:28834  .debug_str:0000000000018e2d .LASF4393
C:\Users\SOLDER~1\AppData\Local\Temp\ccI3TRm9.s:34158  .debug_str:000000000002e778 .LASF4394
C:\Users\SOLDER~1\AppData\Local\Temp\ccI3TRm9.s:28266  .debug_str:0000000000016995 .LASF4395
C:\Users\SOLDER~1\AppData\Local\Temp\ccI3TRm9.s:25978  .debug_str:000000000000d509 .LASF4396
C:\Users\SOLDER~1\AppData\Local\Temp\ccI3TRm9.s:25562  .debug_str:000000000000b953 .LASF4397
C:\Users\SOLDER~1\AppData\Local\Temp\ccI3TRm9.s:24236  .debug_str:000000000000629a .LASF4398
C:\Users\SOLDER~1\AppData\Local\Temp\ccI3TRm9.s:23980  .debug_str:00000000000051d7 .LASF4399
C:\Users\SOLDER~1\AppData\Local\Temp\ccI3TRm9.s:27634  .debug_str:0000000000014050 .LASF4400
C:\Users\SOLDER~1\AppData\Local\Temp\ccI3TRm9.s:29130  .debug_str:000000000001a18b .LASF4401
C:\Users\SOLDER~1\AppData\Local\Temp\ccI3TRm9.s:29054  .debug_str:0000000000019cee .LASF4402
C:\Users\SOLDER~1\AppData\Local\Temp\ccI3TRm9.s:29924  .debug_str:000000000001d3e0 .LASF4403
C:\Users\SOLDER~1\AppData\Local\Temp\ccI3TRm9.s:27692  .debug_str:0000000000014438 .LASF4404
C:\Users\SOLDER~1\AppData\Local\Temp\ccI3TRm9.s:31198  .debug_str:00000000000226a9 .LASF4405
C:\Users\SOLDER~1\AppData\Local\Temp\ccI3TRm9.s:32056  .debug_str:0000000000025e3b .LASF4406
C:\Users\SOLDER~1\AppData\Local\Temp\ccI3TRm9.s:26792  .debug_str:000000000001098e .LASF4407
C:\Users\SOLDER~1\AppData\Local\Temp\ccI3TRm9.s:30624  .debug_str:00000000000201b6 .LASF4408
C:\Users\SOLDER~1\AppData\Local\Temp\ccI3TRm9.s:31056  .debug_str:0000000000021d84 .LASF4409
C:\Users\SOLDER~1\AppData\Local\Temp\ccI3TRm9.s:28638  .debug_str:0000000000018179 .LASF4410
C:\Users\SOLDER~1\AppData\Local\Temp\ccI3TRm9.s:30950  .debug_str:00000000000216c7 .LASF4411
GAS LISTING C:\Users\SOLDER~1\AppData\Local\Temp\ccI3TRm9.s 			page 172


C:\Users\SOLDER~1\AppData\Local\Temp\ccI3TRm9.s:31626  .debug_str:0000000000024265 .LASF4412
C:\Users\SOLDER~1\AppData\Local\Temp\ccI3TRm9.s:32180  .debug_str:00000000000266ce .LASF4413
C:\Users\SOLDER~1\AppData\Local\Temp\ccI3TRm9.s:26786  .debug_str:0000000000010939 .LASF4414
C:\Users\SOLDER~1\AppData\Local\Temp\ccI3TRm9.s:26840  .debug_str:0000000000010ce7 .LASF4415
C:\Users\SOLDER~1\AppData\Local\Temp\ccI3TRm9.s:23290  .debug_str:000000000000266c .LASF4416
C:\Users\SOLDER~1\AppData\Local\Temp\ccI3TRm9.s:28422  .debug_str:0000000000017325 .LASF4417
C:\Users\SOLDER~1\AppData\Local\Temp\ccI3TRm9.s:23666  .debug_str:0000000000003e4d .LASF4418
C:\Users\SOLDER~1\AppData\Local\Temp\ccI3TRm9.s:23294  .debug_str:00000000000026b3 .LASF4419
C:\Users\SOLDER~1\AppData\Local\Temp\ccI3TRm9.s:25252  .debug_str:000000000000a518 .LASF4420
C:\Users\SOLDER~1\AppData\Local\Temp\ccI3TRm9.s:29944  .debug_str:000000000001d509 .LASF4421
C:\Users\SOLDER~1\AppData\Local\Temp\ccI3TRm9.s:29072  .debug_str:0000000000019e0b .LASF4422
C:\Users\SOLDER~1\AppData\Local\Temp\ccI3TRm9.s:27172  .debug_str:00000000000121da .LASF4423
C:\Users\SOLDER~1\AppData\Local\Temp\ccI3TRm9.s:30108  .debug_str:000000000001dfcb .LASF4424
C:\Users\SOLDER~1\AppData\Local\Temp\ccI3TRm9.s:24192  .debug_str:0000000000005f78 .LASF4425
C:\Users\SOLDER~1\AppData\Local\Temp\ccI3TRm9.s:27814  .debug_str:0000000000014c90 .LASF4426
C:\Users\SOLDER~1\AppData\Local\Temp\ccI3TRm9.s:30828  .debug_str:0000000000020ed9 .LASF4427
C:\Users\SOLDER~1\AppData\Local\Temp\ccI3TRm9.s:26636  .debug_str:000000000000fff7 .LASF4428
C:\Users\SOLDER~1\AppData\Local\Temp\ccI3TRm9.s:29322  .debug_str:000000000001adc5 .LASF4429
C:\Users\SOLDER~1\AppData\Local\Temp\ccI3TRm9.s:34078  .debug_str:000000000002e271 .LASF4430
C:\Users\SOLDER~1\AppData\Local\Temp\ccI3TRm9.s:33076  .debug_str:000000000002a128 .LASF4431
C:\Users\SOLDER~1\AppData\Local\Temp\ccI3TRm9.s:29078  .debug_str:0000000000019e76 .LASF4432
C:\Users\SOLDER~1\AppData\Local\Temp\ccI3TRm9.s:29332  .debug_str:000000000001ae50 .LASF4433
C:\Users\SOLDER~1\AppData\Local\Temp\ccI3TRm9.s:27032  .debug_str:0000000000011928 .LASF4434
C:\Users\SOLDER~1\AppData\Local\Temp\ccI3TRm9.s:33890  .debug_str:000000000002d5dd .LASF4435
C:\Users\SOLDER~1\AppData\Local\Temp\ccI3TRm9.s:29046  .debug_str:0000000000019c75 .LASF4436
C:\Users\SOLDER~1\AppData\Local\Temp\ccI3TRm9.s:32748  .debug_str:0000000000028c85 .LASF4437
C:\Users\SOLDER~1\AppData\Local\Temp\ccI3TRm9.s:31366  .debug_str:00000000000231b0 .LASF4438
C:\Users\SOLDER~1\AppData\Local\Temp\ccI3TRm9.s:26556  .debug_str:000000000000fa2f .LASF4439
C:\Users\SOLDER~1\AppData\Local\Temp\ccI3TRm9.s:32012  .debug_str:0000000000025b99 .LASF4440
C:\Users\SOLDER~1\AppData\Local\Temp\ccI3TRm9.s:28372  .debug_str:0000000000017040 .LASF4441
C:\Users\SOLDER~1\AppData\Local\Temp\ccI3TRm9.s:32826  .debug_str:00000000000291bc .LASF4442
C:\Users\SOLDER~1\AppData\Local\Temp\ccI3TRm9.s:28276  .debug_str:0000000000016a41 .LASF4443
C:\Users\SOLDER~1\AppData\Local\Temp\ccI3TRm9.s:25678  .debug_str:000000000000c0c6 .LASF4444
C:\Users\SOLDER~1\AppData\Local\Temp\ccI3TRm9.s:28066  .debug_str:0000000000015cfa .LASF4445
C:\Users\SOLDER~1\AppData\Local\Temp\ccI3TRm9.s:28836  .debug_str:0000000000018e4d .LASF4446
C:\Users\SOLDER~1\AppData\Local\Temp\ccI3TRm9.s:25868  .debug_str:000000000000cde2 .LASF4447
C:\Users\SOLDER~1\AppData\Local\Temp\ccI3TRm9.s:29660  .debug_str:000000000001c285 .LASF4448
C:\Users\SOLDER~1\AppData\Local\Temp\ccI3TRm9.s:31186  .debug_str:00000000000225dc .LASF4449
C:\Users\SOLDER~1\AppData\Local\Temp\ccI3TRm9.s:32924  .debug_str:00000000000297c1 .LASF4450
C:\Users\SOLDER~1\AppData\Local\Temp\ccI3TRm9.s:30930  .debug_str:0000000000021548 .LASF4451
C:\Users\SOLDER~1\AppData\Local\Temp\ccI3TRm9.s:31518  .debug_str:0000000000023bac .LASF4452
C:\Users\SOLDER~1\AppData\Local\Temp\ccI3TRm9.s:27566  .debug_str:0000000000013b65 .LASF4453
C:\Users\SOLDER~1\AppData\Local\Temp\ccI3TRm9.s:29908  .debug_str:000000000001d2e2 .LASF4454
C:\Users\SOLDER~1\AppData\Local\Temp\ccI3TRm9.s:27198  .debug_str:000000000001239d .LASF4455
C:\Users\SOLDER~1\AppData\Local\Temp\ccI3TRm9.s:32358  .debug_str:00000000000272e0 .LASF4456
C:\Users\SOLDER~1\AppData\Local\Temp\ccI3TRm9.s:26654  .debug_str:0000000000010122 .LASF4457
C:\Users\SOLDER~1\AppData\Local\Temp\ccI3TRm9.s:33192  .debug_str:000000000002a8a9 .LASF4458
C:\Users\SOLDER~1\AppData\Local\Temp\ccI3TRm9.s:33200  .debug_str:000000000002a91f .LASF4459
C:\Users\SOLDER~1\AppData\Local\Temp\ccI3TRm9.s:33114  .debug_str:000000000002a388 .LASF4460
C:\Users\SOLDER~1\AppData\Local\Temp\ccI3TRm9.s:27094  .debug_str:0000000000011d0f .LASF4461
C:\Users\SOLDER~1\AppData\Local\Temp\ccI3TRm9.s:28430  .debug_str:00000000000173b8 .LASF4462
C:\Users\SOLDER~1\AppData\Local\Temp\ccI3TRm9.s:29262  .debug_str:000000000001a9d6 .LASF4463
C:\Users\SOLDER~1\AppData\Local\Temp\ccI3TRm9.s:31614  .debug_str:00000000000241a7 .LASF4464
C:\Users\SOLDER~1\AppData\Local\Temp\ccI3TRm9.s:29634  .debug_str:000000000001c0ab .LASF4465
C:\Users\SOLDER~1\AppData\Local\Temp\ccI3TRm9.s:29236  .debug_str:000000000001a808 .LASF4466
C:\Users\SOLDER~1\AppData\Local\Temp\ccI3TRm9.s:28936  .debug_str:0000000000019527 .LASF4467
C:\Users\SOLDER~1\AppData\Local\Temp\ccI3TRm9.s:29814  .debug_str:000000000001ccb2 .LASF4468
GAS LISTING C:\Users\SOLDER~1\AppData\Local\Temp\ccI3TRm9.s 			page 173


C:\Users\SOLDER~1\AppData\Local\Temp\ccI3TRm9.s:28350  .debug_str:0000000000016eda .LASF4469
C:\Users\SOLDER~1\AppData\Local\Temp\ccI3TRm9.s:32828  .debug_str:00000000000291cd .LASF4470
C:\Users\SOLDER~1\AppData\Local\Temp\ccI3TRm9.s:33604  .debug_str:000000000002c37e .LASF4471
C:\Users\SOLDER~1\AppData\Local\Temp\ccI3TRm9.s:23916  .debug_str:0000000000004e17 .LASF4472
C:\Users\SOLDER~1\AppData\Local\Temp\ccI3TRm9.s:34008  .debug_str:000000000002ddfe .LASF4473
C:\Users\SOLDER~1\AppData\Local\Temp\ccI3TRm9.s:26722  .debug_str:0000000000010533 .LASF4474
C:\Users\SOLDER~1\AppData\Local\Temp\ccI3TRm9.s:33280  .debug_str:000000000002ae6d .LASF4475
C:\Users\SOLDER~1\AppData\Local\Temp\ccI3TRm9.s:28510  .debug_str:0000000000017955 .LASF4476
C:\Users\SOLDER~1\AppData\Local\Temp\ccI3TRm9.s:30118  .debug_str:000000000001e06b .LASF4477
C:\Users\SOLDER~1\AppData\Local\Temp\ccI3TRm9.s:32466  .debug_str:00000000000279d3 .LASF4478
C:\Users\SOLDER~1\AppData\Local\Temp\ccI3TRm9.s:33086  .debug_str:000000000002a1a7 .LASF4479
C:\Users\SOLDER~1\AppData\Local\Temp\ccI3TRm9.s:31074  .debug_str:0000000000021ea5 .LASF4480
C:\Users\SOLDER~1\AppData\Local\Temp\ccI3TRm9.s:27054  .debug_str:0000000000011a5c .LASF4481
C:\Users\SOLDER~1\AppData\Local\Temp\ccI3TRm9.s:34176  .debug_str:000000000002e8b0 .LASF4482
C:\Users\SOLDER~1\AppData\Local\Temp\ccI3TRm9.s:25272  .debug_str:000000000000a658 .LASF4483
C:\Users\SOLDER~1\AppData\Local\Temp\ccI3TRm9.s:33178  .debug_str:000000000002a7c1 .LASF4484
C:\Users\SOLDER~1\AppData\Local\Temp\ccI3TRm9.s:24402  .debug_str:0000000000006d74 .LASF4485
C:\Users\SOLDER~1\AppData\Local\Temp\ccI3TRm9.s:29548  .debug_str:000000000001bbb8 .LASF4486
C:\Users\SOLDER~1\AppData\Local\Temp\ccI3TRm9.s:33954  .debug_str:000000000002da5a .LASF4487
C:\Users\SOLDER~1\AppData\Local\Temp\ccI3TRm9.s:33506  .debug_str:000000000002bd08 .LASF4488
C:\Users\SOLDER~1\AppData\Local\Temp\ccI3TRm9.s:25364  .debug_str:000000000000aca8 .LASF4489
C:\Users\SOLDER~1\AppData\Local\Temp\ccI3TRm9.s:27556  .debug_str:0000000000013ad5 .LASF4490
C:\Users\SOLDER~1\AppData\Local\Temp\ccI3TRm9.s:28142  .debug_str:00000000000161bb .LASF4491
C:\Users\SOLDER~1\AppData\Local\Temp\ccI3TRm9.s:27308  .debug_str:0000000000012a90 .LASF4492
C:\Users\SOLDER~1\AppData\Local\Temp\ccI3TRm9.s:33356  .debug_str:000000000002b313 .LASF4493
C:\Users\SOLDER~1\AppData\Local\Temp\ccI3TRm9.s:28442  .debug_str:0000000000017474 .LASF4494
C:\Users\SOLDER~1\AppData\Local\Temp\ccI3TRm9.s:32072  .debug_str:0000000000025f41 .LASF4495
C:\Users\SOLDER~1\AppData\Local\Temp\ccI3TRm9.s:28572  .debug_str:0000000000017d1a .LASF4496
C:\Users\SOLDER~1\AppData\Local\Temp\ccI3TRm9.s:30796  .debug_str:0000000000020cbc .LASF4497
C:\Users\SOLDER~1\AppData\Local\Temp\ccI3TRm9.s:34038  .debug_str:000000000002dfa4 .LASF4498
C:\Users\SOLDER~1\AppData\Local\Temp\ccI3TRm9.s:27840  .debug_str:0000000000014e5e .LASF4499
C:\Users\SOLDER~1\AppData\Local\Temp\ccI3TRm9.s:28992  .debug_str:00000000000198b3 .LASF4500
C:\Users\SOLDER~1\AppData\Local\Temp\ccI3TRm9.s:30196  .debug_str:000000000001e591 .LASF4501
C:\Users\SOLDER~1\AppData\Local\Temp\ccI3TRm9.s:31294  .debug_str:0000000000022c9f .LASF4502
C:\Users\SOLDER~1\AppData\Local\Temp\ccI3TRm9.s:29704  .debug_str:000000000001c53f .LASF4503
C:\Users\SOLDER~1\AppData\Local\Temp\ccI3TRm9.s:32560  .debug_str:0000000000027feb .LASF4504
C:\Users\SOLDER~1\AppData\Local\Temp\ccI3TRm9.s:31334  .debug_str:0000000000022f4f .LASF4505
C:\Users\SOLDER~1\AppData\Local\Temp\ccI3TRm9.s:23116  .debug_str:0000000000001ad8 .LASF4506
C:\Users\SOLDER~1\AppData\Local\Temp\ccI3TRm9.s:32104  .debug_str:000000000002619d .LASF4507
C:\Users\SOLDER~1\AppData\Local\Temp\ccI3TRm9.s:24304  .debug_str:0000000000006700 .LASF4508
C:\Users\SOLDER~1\AppData\Local\Temp\ccI3TRm9.s:27008  .debug_str:000000000001174e .LASF4509
C:\Users\SOLDER~1\AppData\Local\Temp\ccI3TRm9.s:29514  .debug_str:000000000001b9a7 .LASF4510
C:\Users\SOLDER~1\AppData\Local\Temp\ccI3TRm9.s:23660  .debug_str:0000000000003de5 .LASF4511
C:\Users\SOLDER~1\AppData\Local\Temp\ccI3TRm9.s:31070  .debug_str:0000000000021e6e .LASF4512
C:\Users\SOLDER~1\AppData\Local\Temp\ccI3TRm9.s:31142  .debug_str:000000000002232e .LASF4513
C:\Users\SOLDER~1\AppData\Local\Temp\ccI3TRm9.s:30648  .debug_str:000000000002031d .LASF4514
C:\Users\SOLDER~1\AppData\Local\Temp\ccI3TRm9.s:25132  .debug_str:0000000000009d28 .LASF4515
C:\Users\SOLDER~1\AppData\Local\Temp\ccI3TRm9.s:28006  .debug_str:0000000000015949 .LASF4516
C:\Users\SOLDER~1\AppData\Local\Temp\ccI3TRm9.s:30510  .debug_str:000000000001fa54 .LASF4517
C:\Users\SOLDER~1\AppData\Local\Temp\ccI3TRm9.s:34412  .debug_str:000000000002f725 .LASF4518
C:\Users\SOLDER~1\AppData\Local\Temp\ccI3TRm9.s:30250  .debug_str:000000000001e909 .LASF4519
C:\Users\SOLDER~1\AppData\Local\Temp\ccI3TRm9.s:22984  .debug_str:0000000000001263 .LASF4520
C:\Users\SOLDER~1\AppData\Local\Temp\ccI3TRm9.s:25320  .debug_str:000000000000a9ba .LASF4521
C:\Users\SOLDER~1\AppData\Local\Temp\ccI3TRm9.s:25864  .debug_str:000000000000cda6 .LASF4522
C:\Users\SOLDER~1\AppData\Local\Temp\ccI3TRm9.s:31984  .debug_str:00000000000259a3 .LASF4523
C:\Users\SOLDER~1\AppData\Local\Temp\ccI3TRm9.s:26054  .debug_str:000000000000da1f .LASF4524
C:\Users\SOLDER~1\AppData\Local\Temp\ccI3TRm9.s:33578  .debug_str:000000000002c1c0 .LASF4525
GAS LISTING C:\Users\SOLDER~1\AppData\Local\Temp\ccI3TRm9.s 			page 174


C:\Users\SOLDER~1\AppData\Local\Temp\ccI3TRm9.s:28918  .debug_str:00000000000193f0 .LASF4526
C:\Users\SOLDER~1\AppData\Local\Temp\ccI3TRm9.s:27932  .debug_str:000000000001542a .LASF4527
C:\Users\SOLDER~1\AppData\Local\Temp\ccI3TRm9.s:31928  .debug_str:0000000000025631 .LASF4528
C:\Users\SOLDER~1\AppData\Local\Temp\ccI3TRm9.s:33444  .debug_str:000000000002b8dc .LASF4529
C:\Users\SOLDER~1\AppData\Local\Temp\ccI3TRm9.s:25554  .debug_str:000000000000b8e7 .LASF4530
C:\Users\SOLDER~1\AppData\Local\Temp\ccI3TRm9.s:31858  .debug_str:000000000002519e .LASF4531
C:\Users\SOLDER~1\AppData\Local\Temp\ccI3TRm9.s:31486  .debug_str:0000000000023954 .LASF4532
C:\Users\SOLDER~1\AppData\Local\Temp\ccI3TRm9.s:29958  .debug_str:000000000001d621 .LASF4533
C:\Users\SOLDER~1\AppData\Local\Temp\ccI3TRm9.s:32178  .debug_str:0000000000026695 .LASF4534
C:\Users\SOLDER~1\AppData\Local\Temp\ccI3TRm9.s:25534  .debug_str:000000000000b790 .LASF4535
C:\Users\SOLDER~1\AppData\Local\Temp\ccI3TRm9.s:28252  .debug_str:00000000000168c0 .LASF4536
C:\Users\SOLDER~1\AppData\Local\Temp\ccI3TRm9.s:23864  .debug_str:0000000000004ac2 .LASF4537
C:\Users\SOLDER~1\AppData\Local\Temp\ccI3TRm9.s:26476  .debug_str:000000000000f4f9 .LASF4538
C:\Users\SOLDER~1\AppData\Local\Temp\ccI3TRm9.s:27488  .debug_str:0000000000013640 .LASF4539
C:\Users\SOLDER~1\AppData\Local\Temp\ccI3TRm9.s:29812  .debug_str:000000000001cc77 .LASF4540
C:\Users\SOLDER~1\AppData\Local\Temp\ccI3TRm9.s:29778  .debug_str:000000000001ca1d .LASF4541
C:\Users\SOLDER~1\AppData\Local\Temp\ccI3TRm9.s:27704  .debug_str:0000000000014509 .LASF4542
C:\Users\SOLDER~1\AppData\Local\Temp\ccI3TRm9.s:33720  .debug_str:000000000002cb24 .LASF4543
C:\Users\SOLDER~1\AppData\Local\Temp\ccI3TRm9.s:33692  .debug_str:000000000002c930 .LASF4544
C:\Users\SOLDER~1\AppData\Local\Temp\ccI3TRm9.s:31862  .debug_str:00000000000251fa .LASF4545
C:\Users\SOLDER~1\AppData\Local\Temp\ccI3TRm9.s:26208  .debug_str:000000000000e3f2 .LASF4546
C:\Users\SOLDER~1\AppData\Local\Temp\ccI3TRm9.s:24308  .debug_str:000000000000675e .LASF4547
C:\Users\SOLDER~1\AppData\Local\Temp\ccI3TRm9.s:24372  .debug_str:0000000000006bc3 .LASF4548
C:\Users\SOLDER~1\AppData\Local\Temp\ccI3TRm9.s:27460  .debug_str:0000000000013453 .LASF4549
C:\Users\SOLDER~1\AppData\Local\Temp\ccI3TRm9.s:29256  .debug_str:000000000001a97e .LASF4550
C:\Users\SOLDER~1\AppData\Local\Temp\ccI3TRm9.s:29676  .debug_str:000000000001c3a9 .LASF4551
C:\Users\SOLDER~1\AppData\Local\Temp\ccI3TRm9.s:28776  .debug_str:0000000000018a7f .LASF4552
C:\Users\SOLDER~1\AppData\Local\Temp\ccI3TRm9.s:33034  .debug_str:0000000000029ea5 .LASF4553
C:\Users\SOLDER~1\AppData\Local\Temp\ccI3TRm9.s:22722  .debug_str:00000000000000e1 .LASF4554
C:\Users\SOLDER~1\AppData\Local\Temp\ccI3TRm9.s:31130  .debug_str:0000000000022251 .LASF4555
C:\Users\SOLDER~1\AppData\Local\Temp\ccI3TRm9.s:30872  .debug_str:00000000000211ba .LASF4556
C:\Users\SOLDER~1\AppData\Local\Temp\ccI3TRm9.s:28752  .debug_str:0000000000018910 .LASF4557
C:\Users\SOLDER~1\AppData\Local\Temp\ccI3TRm9.s:33558  .debug_str:000000000002c081 .LASF4558
C:\Users\SOLDER~1\AppData\Local\Temp\ccI3TRm9.s:26696  .debug_str:00000000000103a4 .LASF4559
C:\Users\SOLDER~1\AppData\Local\Temp\ccI3TRm9.s:26788  .debug_str:000000000001095a .LASF4560
C:\Users\SOLDER~1\AppData\Local\Temp\ccI3TRm9.s:26896  .debug_str:0000000000011059 .LASF4561
C:\Users\SOLDER~1\AppData\Local\Temp\ccI3TRm9.s:27044  .debug_str:00000000000119e2 .LASF4562
C:\Users\SOLDER~1\AppData\Local\Temp\ccI3TRm9.s:26762  .debug_str:00000000000107ea .LASF4563
C:\Users\SOLDER~1\AppData\Local\Temp\ccI3TRm9.s:25174  .debug_str:0000000000009fdd .LASF4564
C:\Users\SOLDER~1\AppData\Local\Temp\ccI3TRm9.s:24538  .debug_str:0000000000007689 .LASF4565
C:\Users\SOLDER~1\AppData\Local\Temp\ccI3TRm9.s:23818  .debug_str:00000000000047e2 .LASF4566
C:\Users\SOLDER~1\AppData\Local\Temp\ccI3TRm9.s:27216  .debug_str:00000000000124c2 .LASF4567
C:\Users\SOLDER~1\AppData\Local\Temp\ccI3TRm9.s:32516  .debug_str:0000000000027d37 .LASF4568
C:\Users\SOLDER~1\AppData\Local\Temp\ccI3TRm9.s:28216  .debug_str:0000000000016689 .LASF4569
C:\Users\SOLDER~1\AppData\Local\Temp\ccI3TRm9.s:29938  .debug_str:000000000001d4ae .LASF4570
C:\Users\SOLDER~1\AppData\Local\Temp\ccI3TRm9.s:30140  .debug_str:000000000001e1e5 .LASF4571
C:\Users\SOLDER~1\AppData\Local\Temp\ccI3TRm9.s:26934  .debug_str:00000000000112a5 .LASF4572
C:\Users\SOLDER~1\AppData\Local\Temp\ccI3TRm9.s:28536  .debug_str:0000000000017b09 .LASF4573
C:\Users\SOLDER~1\AppData\Local\Temp\ccI3TRm9.s:33562  .debug_str:000000000002c0ce .LASF4574
C:\Users\SOLDER~1\AppData\Local\Temp\ccI3TRm9.s:30130  .debug_str:000000000001e13c .LASF4575
C:\Users\SOLDER~1\AppData\Local\Temp\ccI3TRm9.s:23266  .debug_str:0000000000002506 .LASF4576
C:\Users\SOLDER~1\AppData\Local\Temp\ccI3TRm9.s:25372  .debug_str:000000000000ad0a .LASF4577
C:\Users\SOLDER~1\AppData\Local\Temp\ccI3TRm9.s:25326  .debug_str:000000000000aa22 .LASF4578
C:\Users\SOLDER~1\AppData\Local\Temp\ccI3TRm9.s:29688  .debug_str:000000000001c448 .LASF4579
C:\Users\SOLDER~1\AppData\Local\Temp\ccI3TRm9.s:26842  .debug_str:0000000000010d07 .LASF4580
C:\Users\SOLDER~1\AppData\Local\Temp\ccI3TRm9.s:29604  .debug_str:000000000001bee9 .LASF4581
C:\Users\SOLDER~1\AppData\Local\Temp\ccI3TRm9.s:32574  .debug_str:00000000000280dc .LASF4582
GAS LISTING C:\Users\SOLDER~1\AppData\Local\Temp\ccI3TRm9.s 			page 175


C:\Users\SOLDER~1\AppData\Local\Temp\ccI3TRm9.s:25704  .debug_str:000000000000c26a .LASF4583
C:\Users\SOLDER~1\AppData\Local\Temp\ccI3TRm9.s:24560  .debug_str:00000000000077e5 .LASF4584
C:\Users\SOLDER~1\AppData\Local\Temp\ccI3TRm9.s:28604  .debug_str:0000000000017f31 .LASF4585
C:\Users\SOLDER~1\AppData\Local\Temp\ccI3TRm9.s:29536  .debug_str:000000000001bb0a .LASF4586
C:\Users\SOLDER~1\AppData\Local\Temp\ccI3TRm9.s:24084  .debug_str:000000000000585a .LASF4587
C:\Users\SOLDER~1\AppData\Local\Temp\ccI3TRm9.s:24660  .debug_str:0000000000007e60 .LASF4588
C:\Users\SOLDER~1\AppData\Local\Temp\ccI3TRm9.s:24866  .debug_str:0000000000008b87 .LASF4589
C:\Users\SOLDER~1\AppData\Local\Temp\ccI3TRm9.s:30284  .debug_str:000000000001eb3c .LASF4590
C:\Users\SOLDER~1\AppData\Local\Temp\ccI3TRm9.s:33868  .debug_str:000000000002d484 .LASF4591
C:\Users\SOLDER~1\AppData\Local\Temp\ccI3TRm9.s:30008  .debug_str:000000000001d991 .LASF4594
C:\Users\SOLDER~1\AppData\Local\Temp\ccI3TRm9.s:32664  .debug_str:00000000000286eb .LASF4595
C:\Users\SOLDER~1\AppData\Local\Temp\ccI3TRm9.s:30614  .debug_str:0000000000020111 .LASF4596
C:\Users\SOLDER~1\AppData\Local\Temp\ccI3TRm9.s:32102  .debug_str:000000000002616b .LASF4597
C:\Users\SOLDER~1\AppData\Local\Temp\ccI3TRm9.s:22972  .debug_str:00000000000011c0 .LASF4598
C:\Users\SOLDER~1\AppData\Local\Temp\ccI3TRm9.s:30470  .debug_str:000000000001f7ad .LASF4599
C:\Users\SOLDER~1\AppData\Local\Temp\ccI3TRm9.s:31326  .debug_str:0000000000022ec9 .LASF4600
C:\Users\SOLDER~1\AppData\Local\Temp\ccI3TRm9.s:32926  .debug_str:00000000000297d8 .LASF4601
C:\Users\SOLDER~1\AppData\Local\Temp\ccI3TRm9.s:30050  .debug_str:000000000001dc15 .LASF4602
C:\Users\SOLDER~1\AppData\Local\Temp\ccI3TRm9.s:23072  .debug_str:00000000000017e5 .LASF4603
C:\Users\SOLDER~1\AppData\Local\Temp\ccI3TRm9.s:27842  .debug_str:0000000000014e95 .LASF4604
C:\Users\SOLDER~1\AppData\Local\Temp\ccI3TRm9.s:24608  .debug_str:0000000000007ad0 .LASF4605
C:\Users\SOLDER~1\AppData\Local\Temp\ccI3TRm9.s:33434  .debug_str:000000000002b831 .LASF4606
C:\Users\SOLDER~1\AppData\Local\Temp\ccI3TRm9.s:29870  .debug_str:000000000001d04c .LASF4607
C:\Users\SOLDER~1\AppData\Local\Temp\ccI3TRm9.s:25100  .debug_str:0000000000009b2e .LASF4608
C:\Users\SOLDER~1\AppData\Local\Temp\ccI3TRm9.s:27682  .debug_str:00000000000143a7 .LASF4609
C:\Users\SOLDER~1\AppData\Local\Temp\ccI3TRm9.s:23338  .debug_str:00000000000029bf .LASF4610
C:\Users\SOLDER~1\AppData\Local\Temp\ccI3TRm9.s:31812  .debug_str:0000000000024eae .LASF4611
C:\Users\SOLDER~1\AppData\Local\Temp\ccI3TRm9.s:28656  .debug_str:00000000000182be .LASF4612
C:\Users\SOLDER~1\AppData\Local\Temp\ccI3TRm9.s:32728  .debug_str:0000000000028b2a .LASF4613
C:\Users\SOLDER~1\AppData\Local\Temp\ccI3TRm9.s:27056  .debug_str:0000000000011a75 .LASF4614
C:\Users\SOLDER~1\AppData\Local\Temp\ccI3TRm9.s:25558  .debug_str:000000000000b920 .LASF4615
C:\Users\SOLDER~1\AppData\Local\Temp\ccI3TRm9.s:28734  .debug_str:00000000000187f0 .LASF4616
C:\Users\SOLDER~1\AppData\Local\Temp\ccI3TRm9.s:29748  .debug_str:000000000001c848 .LASF4617
C:\Users\SOLDER~1\AppData\Local\Temp\ccI3TRm9.s:30738  .debug_str:00000000000208e4 .LASF4618
C:\Users\SOLDER~1\AppData\Local\Temp\ccI3TRm9.s:28590  .debug_str:0000000000017e58 .LASF4619
C:\Users\SOLDER~1\AppData\Local\Temp\ccI3TRm9.s:29390  .debug_str:000000000001b22b .LASF4620
C:\Users\SOLDER~1\AppData\Local\Temp\ccI3TRm9.s:26780  .debug_str:00000000000108f3 .LASF4621
C:\Users\SOLDER~1\AppData\Local\Temp\ccI3TRm9.s:34340  .debug_str:000000000002f2d5 .LASF4622
C:\Users\SOLDER~1\AppData\Local\Temp\ccI3TRm9.s:33404  .debug_str:000000000002b668 .LASF4623
C:\Users\SOLDER~1\AppData\Local\Temp\ccI3TRm9.s:32472  .debug_str:0000000000027a3d .LASF4624
C:\Users\SOLDER~1\AppData\Local\Temp\ccI3TRm9.s:32914  .debug_str:0000000000029720 .LASF4625
C:\Users\SOLDER~1\AppData\Local\Temp\ccI3TRm9.s:23440  .debug_str:0000000000003029 .LASF4626
C:\Users\SOLDER~1\AppData\Local\Temp\ccI3TRm9.s:27178  .debug_str:000000000001223d .LASF4627
C:\Users\SOLDER~1\AppData\Local\Temp\ccI3TRm9.s:28950  .debug_str:00000000000195f7 .LASF4628
C:\Users\SOLDER~1\AppData\Local\Temp\ccI3TRm9.s:22886  .debug_str:0000000000000c73 .LASF4629
C:\Users\SOLDER~1\AppData\Local\Temp\ccI3TRm9.s:30416  .debug_str:000000000001f417 .LASF4630
C:\Users\SOLDER~1\AppData\Local\Temp\ccI3TRm9.s:25028  .debug_str:000000000000968f .LASF4631
C:\Users\SOLDER~1\AppData\Local\Temp\ccI3TRm9.s:30462  .debug_str:000000000001f728 .LASF4632
C:\Users\SOLDER~1\AppData\Local\Temp\ccI3TRm9.s:29042  .debug_str:0000000000019c45 .LASF4633
C:\Users\SOLDER~1\AppData\Local\Temp\ccI3TRm9.s:25412  .debug_str:000000000000af8e .LASF4634
C:\Users\SOLDER~1\AppData\Local\Temp\ccI3TRm9.s:25102  .debug_str:0000000000009b49 .LASF4635
C:\Users\SOLDER~1\AppData\Local\Temp\ccI3TRm9.s:25048  .debug_str:00000000000097bc .LASF4636
C:\Users\SOLDER~1\AppData\Local\Temp\ccI3TRm9.s:31306  .debug_str:0000000000022d72 .LASF4637
C:\Users\SOLDER~1\AppData\Local\Temp\ccI3TRm9.s:33768  .debug_str:000000000002ce22 .LASF4638
C:\Users\SOLDER~1\AppData\Local\Temp\ccI3TRm9.s:31528  .debug_str:0000000000023c3a .LASF4639
C:\Users\SOLDER~1\AppData\Local\Temp\ccI3TRm9.s:32590  .debug_str:00000000000281d6 .LASF4640
C:\Users\SOLDER~1\AppData\Local\Temp\ccI3TRm9.s:33046  .debug_str:0000000000029f59 .LASF4641
GAS LISTING C:\Users\SOLDER~1\AppData\Local\Temp\ccI3TRm9.s 			page 176


C:\Users\SOLDER~1\AppData\Local\Temp\ccI3TRm9.s:25526  .debug_str:000000000000b708 .LASF4642
C:\Users\SOLDER~1\AppData\Local\Temp\ccI3TRm9.s:24204  .debug_str:0000000000006041 .LASF4643
C:\Users\SOLDER~1\AppData\Local\Temp\ccI3TRm9.s:23542  .debug_str:000000000000367b .LASF4644
C:\Users\SOLDER~1\AppData\Local\Temp\ccI3TRm9.s:32512  .debug_str:0000000000027cf4 .LASF4645
C:\Users\SOLDER~1\AppData\Local\Temp\ccI3TRm9.s:26122  .debug_str:000000000000de1a .LASF4646
C:\Users\SOLDER~1\AppData\Local\Temp\ccI3TRm9.s:23604  .debug_str:0000000000003a73 .LASF4647
C:\Users\SOLDER~1\AppData\Local\Temp\ccI3TRm9.s:23716  .debug_str:000000000000416b .LASF4648
C:\Users\SOLDER~1\AppData\Local\Temp\ccI3TRm9.s:31550  .debug_str:0000000000023dc6 .LASF4649
C:\Users\SOLDER~1\AppData\Local\Temp\ccI3TRm9.s:31904  .debug_str:0000000000025499 .LASF4650
C:\Users\SOLDER~1\AppData\Local\Temp\ccI3TRm9.s:27416  .debug_str:0000000000013198 .LASF4651
C:\Users\SOLDER~1\AppData\Local\Temp\ccI3TRm9.s:23128  .debug_str:0000000000001bb0 .LASF4652
C:\Users\SOLDER~1\AppData\Local\Temp\ccI3TRm9.s:32086  .debug_str:0000000000026054 .LASF4653
C:\Users\SOLDER~1\AppData\Local\Temp\ccI3TRm9.s:26058  .debug_str:000000000000da62 .LASF4654
C:\Users\SOLDER~1\AppData\Local\Temp\ccI3TRm9.s:22968  .debug_str:000000000000118a .LASF4655
C:\Users\SOLDER~1\AppData\Local\Temp\ccI3TRm9.s:31522  .debug_str:0000000000023be7 .LASF4656
C:\Users\SOLDER~1\AppData\Local\Temp\ccI3TRm9.s:27230  .debug_str:00000000000125ac .LASF4657
C:\Users\SOLDER~1\AppData\Local\Temp\ccI3TRm9.s:26492  .debug_str:000000000000f607 .LASF4658
C:\Users\SOLDER~1\AppData\Local\Temp\ccI3TRm9.s:25680  .debug_str:000000000000c0d9 .LASF4659
C:\Users\SOLDER~1\AppData\Local\Temp\ccI3TRm9.s:31974  .debug_str:0000000000025917 .LASF4660
C:\Users\SOLDER~1\AppData\Local\Temp\ccI3TRm9.s:28912  .debug_str:000000000001938a .LASF4661
C:\Users\SOLDER~1\AppData\Local\Temp\ccI3TRm9.s:22852  .debug_str:0000000000000a0b .LASF4662
C:\Users\SOLDER~1\AppData\Local\Temp\ccI3TRm9.s:34416  .debug_str:000000000002f762 .LASF4663
C:\Users\SOLDER~1\AppData\Local\Temp\ccI3TRm9.s:31216  .debug_str:00000000000227c8 .LASF4664
C:\Users\SOLDER~1\AppData\Local\Temp\ccI3TRm9.s:31700  .debug_str:0000000000024731 .LASF4665
C:\Users\SOLDER~1\AppData\Local\Temp\ccI3TRm9.s:23988  .debug_str:0000000000005259 .LASF4666
C:\Users\SOLDER~1\AppData\Local\Temp\ccI3TRm9.s:26514  .debug_str:000000000000f78a .LASF4667
C:\Users\SOLDER~1\AppData\Local\Temp\ccI3TRm9.s:31970  .debug_str:00000000000258e1 .LASF4668
C:\Users\SOLDER~1\AppData\Local\Temp\ccI3TRm9.s:28908  .debug_str:000000000001934a .LASF4669
C:\Users\SOLDER~1\AppData\Local\Temp\ccI3TRm9.s:25760  .debug_str:000000000000c650 .LASF4670
C:\Users\SOLDER~1\AppData\Local\Temp\ccI3TRm9.s:27384  .debug_str:0000000000012fa9 .LASF4671
C:\Users\SOLDER~1\AppData\Local\Temp\ccI3TRm9.s:31214  .debug_str:00000000000227ab .LASF4672
C:\Users\SOLDER~1\AppData\Local\Temp\ccI3TRm9.s:28164  .debug_str:000000000001631f .LASF4673
C:\Users\SOLDER~1\AppData\Local\Temp\ccI3TRm9.s:30490  .debug_str:000000000001f90e .LASF4674
C:\Users\SOLDER~1\AppData\Local\Temp\ccI3TRm9.s:24348  .debug_str:0000000000006a51 .LASF4675
C:\Users\SOLDER~1\AppData\Local\Temp\ccI3TRm9.s:34028  .debug_str:000000000002df14 .LASF4676
C:\Users\SOLDER~1\AppData\Local\Temp\ccI3TRm9.s:30550  .debug_str:000000000001fd1f .LASF4677
C:\Users\SOLDER~1\AppData\Local\Temp\ccI3TRm9.s:26526  .debug_str:000000000000f844 .LASF4678
C:\Users\SOLDER~1\AppData\Local\Temp\ccI3TRm9.s:26450  .debug_str:000000000000f36d .LASF4679
C:\Users\SOLDER~1\AppData\Local\Temp\ccI3TRm9.s:23500  .debug_str:00000000000033ec .LASF4680
C:\Users\SOLDER~1\AppData\Local\Temp\ccI3TRm9.s:32098  .debug_str:000000000002612f .LASF4681
C:\Users\SOLDER~1\AppData\Local\Temp\ccI3TRm9.s:23018  .debug_str:00000000000014b9 .LASF4682
C:\Users\SOLDER~1\AppData\Local\Temp\ccI3TRm9.s:23632  .debug_str:0000000000003c3d .LASF4683
C:\Users\SOLDER~1\AppData\Local\Temp\ccI3TRm9.s:30256  .debug_str:000000000001e963 .LASF4684
C:\Users\SOLDER~1\AppData\Local\Temp\ccI3TRm9.s:24054  .debug_str:0000000000005646 .LASF4685
C:\Users\SOLDER~1\AppData\Local\Temp\ccI3TRm9.s:33412  .debug_str:000000000002b6df .LASF4686
C:\Users\SOLDER~1\AppData\Local\Temp\ccI3TRm9.s:33680  .debug_str:000000000002c85c .LASF4687
C:\Users\SOLDER~1\AppData\Local\Temp\ccI3TRm9.s:26286  .debug_str:000000000000e8e8 .LASF4688
C:\Users\SOLDER~1\AppData\Local\Temp\ccI3TRm9.s:30492  .debug_str:000000000001f92a .LASF4689
C:\Users\SOLDER~1\AppData\Local\Temp\ccI3TRm9.s:26186  .debug_str:000000000000e272 .LASF4690
C:\Users\SOLDER~1\AppData\Local\Temp\ccI3TRm9.s:25594  .debug_str:000000000000bb57 .LASF4691
C:\Users\SOLDER~1\AppData\Local\Temp\ccI3TRm9.s:30880  .debug_str:000000000002123f .LASF4692
C:\Users\SOLDER~1\AppData\Local\Temp\ccI3TRm9.s:23144  .debug_str:0000000000001cc8 .LASF4693
C:\Users\SOLDER~1\AppData\Local\Temp\ccI3TRm9.s:29358  .debug_str:000000000001afea .LASF4694
C:\Users\SOLDER~1\AppData\Local\Temp\ccI3TRm9.s:34328  .debug_str:000000000002f1f8 .LASF4695
C:\Users\SOLDER~1\AppData\Local\Temp\ccI3TRm9.s:25282  .debug_str:000000000000a71f .LASF4696
C:\Users\SOLDER~1\AppData\Local\Temp\ccI3TRm9.s:34356  .debug_str:000000000002f3e7 .LASF4697
C:\Users\SOLDER~1\AppData\Local\Temp\ccI3TRm9.s:23676  .debug_str:0000000000003eec .LASF4698
GAS LISTING C:\Users\SOLDER~1\AppData\Local\Temp\ccI3TRm9.s 			page 177


C:\Users\SOLDER~1\AppData\Local\Temp\ccI3TRm9.s:32434  .debug_str:00000000000277dc .LASF4699
C:\Users\SOLDER~1\AppData\Local\Temp\ccI3TRm9.s:32656  .debug_str:000000000002866c .LASF4700
C:\Users\SOLDER~1\AppData\Local\Temp\ccI3TRm9.s:24840  .debug_str:00000000000089ba .LASF4701
C:\Users\SOLDER~1\AppData\Local\Temp\ccI3TRm9.s:25290  .debug_str:000000000000a79c .LASF4702
C:\Users\SOLDER~1\AppData\Local\Temp\ccI3TRm9.s:33344  .debug_str:000000000002b244 .LASF4703
C:\Users\SOLDER~1\AppData\Local\Temp\ccI3TRm9.s:27582  .debug_str:0000000000013ca9 .LASF4704
C:\Users\SOLDER~1\AppData\Local\Temp\ccI3TRm9.s:23528  .debug_str:000000000000358e .LASF4705
C:\Users\SOLDER~1\AppData\Local\Temp\ccI3TRm9.s:25684  .debug_str:000000000000c11a .LASF4706
C:\Users\SOLDER~1\AppData\Local\Temp\ccI3TRm9.s:26796  .debug_str:00000000000109bf .LASF4707
C:\Users\SOLDER~1\AppData\Local\Temp\ccI3TRm9.s:33004  .debug_str:0000000000029c8a .LASF4708
C:\Users\SOLDER~1\AppData\Local\Temp\ccI3TRm9.s:24406  .debug_str:0000000000006db0 .LASF4709
C:\Users\SOLDER~1\AppData\Local\Temp\ccI3TRm9.s:31260  .debug_str:0000000000022a4f .LASF4710
C:\Users\SOLDER~1\AppData\Local\Temp\ccI3TRm9.s:26612  .debug_str:000000000000fe24 .LASF4711
C:\Users\SOLDER~1\AppData\Local\Temp\ccI3TRm9.s:30268  .debug_str:000000000001ea1c .LASF4712
C:\Users\SOLDER~1\AppData\Local\Temp\ccI3TRm9.s:33900  .debug_str:000000000002d67f .LASF4713
C:\Users\SOLDER~1\AppData\Local\Temp\ccI3TRm9.s:24248  .debug_str:0000000000006356 .LASF4714
C:\Users\SOLDER~1\AppData\Local\Temp\ccI3TRm9.s:31874  .debug_str:00000000000252e3 .LASF4715
C:\Users\SOLDER~1\AppData\Local\Temp\ccI3TRm9.s:24970  .debug_str:000000000000928d .LASF4716
C:\Users\SOLDER~1\AppData\Local\Temp\ccI3TRm9.s:26626  .debug_str:000000000000ff46 .LASF4717
C:\Users\SOLDER~1\AppData\Local\Temp\ccI3TRm9.s:29512  .debug_str:000000000001b982 .LASF4718
C:\Users\SOLDER~1\AppData\Local\Temp\ccI3TRm9.s:34162  .debug_str:000000000002e7a9 .LASF4719
C:\Users\SOLDER~1\AppData\Local\Temp\ccI3TRm9.s:33462  .debug_str:000000000002ba50 .LASF4720
C:\Users\SOLDER~1\AppData\Local\Temp\ccI3TRm9.s:24782  .debug_str:0000000000008626 .LASF4721
C:\Users\SOLDER~1\AppData\Local\Temp\ccI3TRm9.s:26932  .debug_str:0000000000011281 .LASF4722
C:\Users\SOLDER~1\AppData\Local\Temp\ccI3TRm9.s:25986  .debug_str:000000000000d592 .LASF4723
C:\Users\SOLDER~1\AppData\Local\Temp\ccI3TRm9.s:24912  .debug_str:0000000000008e6e .LASF4724
C:\Users\SOLDER~1\AppData\Local\Temp\ccI3TRm9.s:23510  .debug_str:0000000000003485 .LASF4725
C:\Users\SOLDER~1\AppData\Local\Temp\ccI3TRm9.s:22710  .debug_str:0000000000000000 .LASF4726
C:\Users\SOLDER~1\AppData\Local\Temp\ccI3TRm9.s:30354  .debug_str:000000000001f00b .LASF4727
C:\Users\SOLDER~1\AppData\Local\Temp\ccI3TRm9.s:31010  .debug_str:0000000000021a95 .LASF4728
C:\Users\SOLDER~1\AppData\Local\Temp\ccI3TRm9.s:34104  .debug_str:000000000002e3e7 .LASF4729
C:\Users\SOLDER~1\AppData\Local\Temp\ccI3TRm9.s:24948  .debug_str:0000000000009104 .LASF4730
C:\Users\SOLDER~1\AppData\Local\Temp\ccI3TRm9.s:24126  .debug_str:0000000000005b4f .LASF4731
C:\Users\SOLDER~1\AppData\Local\Temp\ccI3TRm9.s:22862  .debug_str:0000000000000aca .LASF4732
C:\Users\SOLDER~1\AppData\Local\Temp\ccI3TRm9.s:31446  .debug_str:00000000000236ca .LASF4733
C:\Users\SOLDER~1\AppData\Local\Temp\ccI3TRm9.s:26330  .debug_str:000000000000ec02 .LASF4734
C:\Users\SOLDER~1\AppData\Local\Temp\ccI3TRm9.s:28418  .debug_str:00000000000172db .LASF4735
C:\Users\SOLDER~1\AppData\Local\Temp\ccI3TRm9.s:23548  .debug_str:00000000000036cf .LASF4736
C:\Users\SOLDER~1\AppData\Local\Temp\ccI3TRm9.s:23296  .debug_str:00000000000026dc .LASF4737
C:\Users\SOLDER~1\AppData\Local\Temp\ccI3TRm9.s:27916  .debug_str:0000000000015344 .LASF4738
C:\Users\SOLDER~1\AppData\Local\Temp\ccI3TRm9.s:32622  .debug_str:00000000000283db .LASF4739
C:\Users\SOLDER~1\AppData\Local\Temp\ccI3TRm9.s:28102  .debug_str:0000000000015f3b .LASF4740
C:\Users\SOLDER~1\AppData\Local\Temp\ccI3TRm9.s:23526  .debug_str:0000000000003576 .LASF4741
C:\Users\SOLDER~1\AppData\Local\Temp\ccI3TRm9.s:31006  .debug_str:0000000000021a5b .LASF4742
C:\Users\SOLDER~1\AppData\Local\Temp\ccI3TRm9.s:27760  .debug_str:0000000000014911 .LASF4743
C:\Users\SOLDER~1\AppData\Local\Temp\ccI3TRm9.s:24818  .debug_str:0000000000008878 .LASF4744
C:\Users\SOLDER~1\AppData\Local\Temp\ccI3TRm9.s:25952  .debug_str:000000000000d36f .LASF4745
C:\Users\SOLDER~1\AppData\Local\Temp\ccI3TRm9.s:31184  .debug_str:00000000000225c1 .LASF4746
C:\Users\SOLDER~1\AppData\Local\Temp\ccI3TRm9.s:30928  .debug_str:000000000002152d .LASF4747
C:\Users\SOLDER~1\AppData\Local\Temp\ccI3TRm9.s:29330  .debug_str:000000000001ae36 .LASF4748
C:\Users\SOLDER~1\AppData\Local\Temp\ccI3TRm9.s:28362  .debug_str:0000000000016f9f .LASF4749
C:\Users\SOLDER~1\AppData\Local\Temp\ccI3TRm9.s:23596  .debug_str:00000000000039e9 .LASF4750
C:\Users\SOLDER~1\AppData\Local\Temp\ccI3TRm9.s:28392  .debug_str:000000000001714c .LASF4751
C:\Users\SOLDER~1\AppData\Local\Temp\ccI3TRm9.s:32980  .debug_str:0000000000029aea .LASF4752
C:\Users\SOLDER~1\AppData\Local\Temp\ccI3TRm9.s:26104  .debug_str:000000000000dd11 .LASF4753
C:\Users\SOLDER~1\AppData\Local\Temp\ccI3TRm9.s:32764  .debug_str:0000000000028d94 .LASF4754
C:\Users\SOLDER~1\AppData\Local\Temp\ccI3TRm9.s:32388  .debug_str:00000000000274ca .LASF4755
GAS LISTING C:\Users\SOLDER~1\AppData\Local\Temp\ccI3TRm9.s 			page 178


C:\Users\SOLDER~1\AppData\Local\Temp\ccI3TRm9.s:27564  .debug_str:0000000000013b43 .LASF4756
C:\Users\SOLDER~1\AppData\Local\Temp\ccI3TRm9.s:30760  .debug_str:0000000000020a6c .LASF4757
C:\Users\SOLDER~1\AppData\Local\Temp\ccI3TRm9.s:29306  .debug_str:000000000001acc1 .LASF4759
C:\Users\SOLDER~1\AppData\Local\Temp\ccI3TRm9.s:31238  .debug_str:00000000000228e2 .LASF4760
C:\Users\SOLDER~1\AppData\Local\Temp\ccI3TRm9.s:25906  .debug_str:000000000000d058 .LASF4761
C:\Users\SOLDER~1\AppData\Local\Temp\ccI3TRm9.s:27350  .debug_str:0000000000012d2d .LASF4762
C:\Users\SOLDER~1\AppData\Local\Temp\ccI3TRm9.s:26248  .debug_str:000000000000e6c0 .LASF4763
C:\Users\SOLDER~1\AppData\Local\Temp\ccI3TRm9.s:29522  .debug_str:000000000001ba0c .LASF4764
C:\Users\SOLDER~1\AppData\Local\Temp\ccI3TRm9.s:24746  .debug_str:00000000000083e4 .LASF4765
C:\Users\SOLDER~1\AppData\Local\Temp\ccI3TRm9.s:25352  .debug_str:000000000000abc6 .LASF4766
C:\Users\SOLDER~1\AppData\Local\Temp\ccI3TRm9.s:33352  .debug_str:000000000002b2d4 .LASF4767
C:\Users\SOLDER~1\AppData\Local\Temp\ccI3TRm9.s:30404  .debug_str:000000000001f346 .LASF4768
C:\Users\SOLDER~1\AppData\Local\Temp\ccI3TRm9.s:32356  .debug_str:00000000000272b8 .LASF4769
C:\Users\SOLDER~1\AppData\Local\Temp\ccI3TRm9.s:31024  .debug_str:0000000000021b94 .LASF4770
C:\Users\SOLDER~1\AppData\Local\Temp\ccI3TRm9.s:23756  .debug_str:00000000000043c0 .LASF4771
C:\Users\SOLDER~1\AppData\Local\Temp\ccI3TRm9.s:31342  .debug_str:0000000000022ff5 .LASF4772
C:\Users\SOLDER~1\AppData\Local\Temp\ccI3TRm9.s:23578  .debug_str:00000000000038d8 .LASF4773
C:\Users\SOLDER~1\AppData\Local\Temp\ccI3TRm9.s:24760  .debug_str:00000000000084d0 .LASF4774
C:\Users\SOLDER~1\AppData\Local\Temp\ccI3TRm9.s:26236  .debug_str:000000000000e605 .LASF4775
C:\Users\SOLDER~1\AppData\Local\Temp\ccI3TRm9.s:32626  .debug_str:000000000002841b .LASF4776
C:\Users\SOLDER~1\AppData\Local\Temp\ccI3TRm9.s:23802  .debug_str:00000000000046d4 .LASF4777
C:\Users\SOLDER~1\AppData\Local\Temp\ccI3TRm9.s:22838  .debug_str:0000000000000913 .LASF4778
C:\Users\SOLDER~1\AppData\Local\Temp\ccI3TRm9.s:30442  .debug_str:000000000001f5c2 .LASF4779
C:\Users\SOLDER~1\AppData\Local\Temp\ccI3TRm9.s:25586  .debug_str:000000000000bab9 .LASF4780
C:\Users\SOLDER~1\AppData\Local\Temp\ccI3TRm9.s:32022  .debug_str:0000000000025c0b .LASF4781
C:\Users\SOLDER~1\AppData\Local\Temp\ccI3TRm9.s:34062  .debug_str:000000000002e14c .LASF4782
C:\Users\SOLDER~1\AppData\Local\Temp\ccI3TRm9.s:23286  .debug_str:0000000000002614 .LASF4783
C:\Users\SOLDER~1\AppData\Local\Temp\ccI3TRm9.s:23798  .debug_str:0000000000004684 .LASF4784
C:\Users\SOLDER~1\AppData\Local\Temp\ccI3TRm9.s:30890  .debug_str:00000000000212c1 .LASF4785
C:\Users\SOLDER~1\AppData\Local\Temp\ccI3TRm9.s:33104  .debug_str:000000000002a2c4 .LASF4786
C:\Users\SOLDER~1\AppData\Local\Temp\ccI3TRm9.s:32610  .debug_str:0000000000028308 .LASF4787
C:\Users\SOLDER~1\AppData\Local\Temp\ccI3TRm9.s:32428  .debug_str:0000000000027769 .LASF4788
C:\Users\SOLDER~1\AppData\Local\Temp\ccI3TRm9.s:33130  .debug_str:000000000002a480 .LASF4789
C:\Users\SOLDER~1\AppData\Local\Temp\ccI3TRm9.s:27754  .debug_str:00000000000148ab .LASF4790
C:\Users\SOLDER~1\AppData\Local\Temp\ccI3TRm9.s:33190  .debug_str:000000000002a87a .LASF4791
C:\Users\SOLDER~1\AppData\Local\Temp\ccI3TRm9.s:30682  .debug_str:000000000002054f .LASF4792
C:\Users\SOLDER~1\AppData\Local\Temp\ccI3TRm9.s:31782  .debug_str:0000000000024cae .LASF4793
C:\Users\SOLDER~1\AppData\Local\Temp\ccI3TRm9.s:24712  .debug_str:00000000000081b0 .LASF4794
C:\Users\SOLDER~1\AppData\Local\Temp\ccI3TRm9.s:23158  .debug_str:0000000000001da1 .LASF4795
C:\Users\SOLDER~1\AppData\Local\Temp\ccI3TRm9.s:24004  .debug_str:0000000000005353 .LASF4796
C:\Users\SOLDER~1\AppData\Local\Temp\ccI3TRm9.s:31050  .debug_str:0000000000021d37 .LASF4797
C:\Users\SOLDER~1\AppData\Local\Temp\ccI3TRm9.s:32314  .debug_str:0000000000026fdf .LASF4798
C:\Users\SOLDER~1\AppData\Local\Temp\ccI3TRm9.s:26938  .debug_str:00000000000112d6 .LASF4799
C:\Users\SOLDER~1\AppData\Local\Temp\ccI3TRm9.s:31714  .debug_str:0000000000024827 .LASF4800
C:\Users\SOLDER~1\AppData\Local\Temp\ccI3TRm9.s:29474  .debug_str:000000000001b703 .LASF4801
C:\Users\SOLDER~1\AppData\Local\Temp\ccI3TRm9.s:26804  .debug_str:0000000000010a58 .LASF4802
C:\Users\SOLDER~1\AppData\Local\Temp\ccI3TRm9.s:33862  .debug_str:000000000002d429 .LASF4803
C:\Users\SOLDER~1\AppData\Local\Temp\ccI3TRm9.s:32132  .debug_str:0000000000026367 .LASF4804
C:\Users\SOLDER~1\AppData\Local\Temp\ccI3TRm9.s:26118  .debug_str:000000000000dddf .LASF4805
C:\Users\SOLDER~1\AppData\Local\Temp\ccI3TRm9.s:34126  .debug_str:000000000002e55d .LASF4806
C:\Users\SOLDER~1\AppData\Local\Temp\ccI3TRm9.s:24494  .debug_str:00000000000073b5 .LASF4807
C:\Users\SOLDER~1\AppData\Local\Temp\ccI3TRm9.s:28910  .debug_str:0000000000019367 .LASF4808
C:\Users\SOLDER~1\AppData\Local\Temp\ccI3TRm9.s:25854  .debug_str:000000000000ccf4 .LASF4809
C:\Users\SOLDER~1\AppData\Local\Temp\ccI3TRm9.s:32118  .debug_str:000000000002628a .LASF4810
C:\Users\SOLDER~1\AppData\Local\Temp\ccI3TRm9.s:32514  .debug_str:0000000000027d14 .LASF4811
C:\Users\SOLDER~1\AppData\Local\Temp\ccI3TRm9.s:30092  .debug_str:000000000001deb6 .LASF4812
C:\Users\SOLDER~1\AppData\Local\Temp\ccI3TRm9.s:30562  .debug_str:000000000001fde5 .LASF4813
GAS LISTING C:\Users\SOLDER~1\AppData\Local\Temp\ccI3TRm9.s 			page 179


C:\Users\SOLDER~1\AppData\Local\Temp\ccI3TRm9.s:30712  .debug_str:0000000000020732 .LASF4814
C:\Users\SOLDER~1\AppData\Local\Temp\ccI3TRm9.s:23836  .debug_str:0000000000004919 .LASF4815
C:\Users\SOLDER~1\AppData\Local\Temp\ccI3TRm9.s:31242  .debug_str:0000000000022928 .LASF4816
C:\Users\SOLDER~1\AppData\Local\Temp\ccI3TRm9.s:24602  .debug_str:0000000000007a62 .LASF4817
C:\Users\SOLDER~1\AppData\Local\Temp\ccI3TRm9.s:25860  .debug_str:000000000000cd61 .LASF4818
C:\Users\SOLDER~1\AppData\Local\Temp\ccI3TRm9.s:28136  .debug_str:0000000000016157 .LASF4819
C:\Users\SOLDER~1\AppData\Local\Temp\ccI3TRm9.s:31830  .debug_str:0000000000024fe2 .LASF4820
C:\Users\SOLDER~1\AppData\Local\Temp\ccI3TRm9.s:32734  .debug_str:0000000000028b88 .LASF4821
C:\Users\SOLDER~1\AppData\Local\Temp\ccI3TRm9.s:27016  .debug_str:00000000000117f8 .LASF4822
C:\Users\SOLDER~1\AppData\Local\Temp\ccI3TRm9.s:22876  .debug_str:0000000000000bbc .LASF4823
C:\Users\SOLDER~1\AppData\Local\Temp\ccI3TRm9.s:29340  .debug_str:000000000001aebf .LASF4824
C:\Users\SOLDER~1\AppData\Local\Temp\ccI3TRm9.s:31642  .debug_str:0000000000024382 .LASF4825
C:\Users\SOLDER~1\AppData\Local\Temp\ccI3TRm9.s:31934  .debug_str:0000000000025681 .LASF4826
C:\Users\SOLDER~1\AppData\Local\Temp\ccI3TRm9.s:27912  .debug_str:00000000000152fc .LASF4827
C:\Users\SOLDER~1\AppData\Local\Temp\ccI3TRm9.s:32078  .debug_str:0000000000025fb2 .LASF4828
C:\Users\SOLDER~1\AppData\Local\Temp\ccI3TRm9.s:32916  .debug_str:000000000002973c .LASF4829
C:\Users\SOLDER~1\AppData\Local\Temp\ccI3TRm9.s:26314  .debug_str:000000000000eadc .LASF4830
C:\Users\SOLDER~1\AppData\Local\Temp\ccI3TRm9.s:23714  .debug_str:0000000000004148 .LASF4831
C:\Users\SOLDER~1\AppData\Local\Temp\ccI3TRm9.s:29490  .debug_str:000000000001b808 .LASF4832
C:\Users\SOLDER~1\AppData\Local\Temp\ccI3TRm9.s:30680  .debug_str:000000000002052c .LASF4833
C:\Users\SOLDER~1\AppData\Local\Temp\ccI3TRm9.s:27174  .debug_str:0000000000012203 .LASF4834
C:\Users\SOLDER~1\AppData\Local\Temp\ccI3TRm9.s:34296  .debug_str:000000000002effa .LASF4835
C:\Users\SOLDER~1\AppData\Local\Temp\ccI3TRm9.s:32138  .debug_str:00000000000263e4 .LASF4836
C:\Users\SOLDER~1\AppData\Local\Temp\ccI3TRm9.s:33132  .debug_str:000000000002a4af .LASF4837
C:\Users\SOLDER~1\AppData\Local\Temp\ccI3TRm9.s:33960  .debug_str:000000000002dad7 .LASF4838
C:\Users\SOLDER~1\AppData\Local\Temp\ccI3TRm9.s:29922  .debug_str:000000000001d3bb .LASF4839
C:\Users\SOLDER~1\AppData\Local\Temp\ccI3TRm9.s:27526  .debug_str:00000000000138ca .LASF4840
C:\Users\SOLDER~1\AppData\Local\Temp\ccI3TRm9.s:30006  .debug_str:000000000001d96c .LASF4841
C:\Users\SOLDER~1\AppData\Local\Temp\ccI3TRm9.s:30654  .debug_str:000000000002037c .LASF4842
C:\Users\SOLDER~1\AppData\Local\Temp\ccI3TRm9.s:28922  .debug_str:0000000000019430 .LASF4843
C:\Users\SOLDER~1\AppData\Local\Temp\ccI3TRm9.s:24610  .debug_str:0000000000007aeb .LASF4844
C:\Users\SOLDER~1\AppData\Local\Temp\ccI3TRm9.s:28694  .debug_str:000000000001856d .LASF4845
C:\Users\SOLDER~1\AppData\Local\Temp\ccI3TRm9.s:27214  .debug_str:000000000001249d .LASF4846
C:\Users\SOLDER~1\AppData\Local\Temp\ccI3TRm9.s:28268  .debug_str:00000000000169b2 .LASF4847
C:\Users\SOLDER~1\AppData\Local\Temp\ccI3TRm9.s:30292  .debug_str:000000000001ebd2 .LASF4848
C:\Users\SOLDER~1\AppData\Local\Temp\ccI3TRm9.s:31956  .debug_str:0000000000025811 .LASF4849
C:\Users\SOLDER~1\AppData\Local\Temp\ccI3TRm9.s:31364  .debug_str:000000000002318b .LASF4850
C:\Users\SOLDER~1\AppData\Local\Temp\ccI3TRm9.s:30790  .debug_str:0000000000020c5f .LASF4851
C:\Users\SOLDER~1\AppData\Local\Temp\ccI3TRm9.s:31086  .debug_str:0000000000021f76 .LASF4852
C:\Users\SOLDER~1\AppData\Local\Temp\ccI3TRm9.s:26304  .debug_str:000000000000ea25 .LASF4853
C:\Users\SOLDER~1\AppData\Local\Temp\ccI3TRm9.s:27374  .debug_str:0000000000012ed9 .LASF4854
C:\Users\SOLDER~1\AppData\Local\Temp\ccI3TRm9.s:27250  .debug_str:00000000000126d6 .LASF4855
C:\Users\SOLDER~1\AppData\Local\Temp\ccI3TRm9.s:25980  .debug_str:000000000000d526 .LASF4856
C:\Users\SOLDER~1\AppData\Local\Temp\ccI3TRm9.s:32832  .debug_str:00000000000291f6 .LASF4857
C:\Users\SOLDER~1\AppData\Local\Temp\ccI3TRm9.s:23246  .debug_str:0000000000002391 .LASF4858
C:\Users\SOLDER~1\AppData\Local\Temp\ccI3TRm9.s:32702  .debug_str:000000000002897f .LASF4859
C:\Users\SOLDER~1\AppData\Local\Temp\ccI3TRm9.s:27988  .debug_str:00000000000157eb .LASF4860
C:\Users\SOLDER~1\AppData\Local\Temp\ccI3TRm9.s:25590  .debug_str:000000000000bb0b .LASF4861
C:\Users\SOLDER~1\AppData\Local\Temp\ccI3TRm9.s:26702  .debug_str:00000000000103f3 .LASF4862
C:\Users\SOLDER~1\AppData\Local\Temp\ccI3TRm9.s:34016  .debug_str:000000000002de79 .LASF4863
C:\Users\SOLDER~1\AppData\Local\Temp\ccI3TRm9.s:27940  .debug_str:00000000000154c6 .LASF4864
C:\Users\SOLDER~1\AppData\Local\Temp\ccI3TRm9.s:24262  .debug_str:000000000000644f .LASF4865
C:\Users\SOLDER~1\AppData\Local\Temp\ccI3TRm9.s:30074  .debug_str:000000000001ddc4 .LASF4866
C:\Users\SOLDER~1\AppData\Local\Temp\ccI3TRm9.s:25150  .debug_str:0000000000009e29 .LASF4867
C:\Users\SOLDER~1\AppData\Local\Temp\ccI3TRm9.s:31608  .debug_str:000000000002413e .LASF4868
C:\Users\SOLDER~1\AppData\Local\Temp\ccI3TRm9.s:26740  .debug_str:0000000000010669 .LASF4869
C:\Users\SOLDER~1\AppData\Local\Temp\ccI3TRm9.s:25140  .debug_str:0000000000009d83 .LASF4870
GAS LISTING C:\Users\SOLDER~1\AppData\Local\Temp\ccI3TRm9.s 			page 180


C:\Users\SOLDER~1\AppData\Local\Temp\ccI3TRm9.s:28240  .debug_str:0000000000016804 .LASF4871
C:\Users\SOLDER~1\AppData\Local\Temp\ccI3TRm9.s:25484  .debug_str:000000000000b419 .LASF4872
C:\Users\SOLDER~1\AppData\Local\Temp\ccI3TRm9.s:23050  .debug_str:00000000000016b6 .LASF4873
C:\Users\SOLDER~1\AppData\Local\Temp\ccI3TRm9.s:25284  .debug_str:000000000000a739 .LASF4874
C:\Users\SOLDER~1\AppData\Local\Temp\ccI3TRm9.s:25698  .debug_str:000000000000c20f .LASF4875
C:\Users\SOLDER~1\AppData\Local\Temp\ccI3TRm9.s:31936  .debug_str:00000000000256a4 .LASF4876
C:\Users\SOLDER~1\AppData\Local\Temp\ccI3TRm9.s:28868  .debug_str:0000000000019070 .LASF4877
C:\Users\SOLDER~1\AppData\Local\Temp\ccI3TRm9.s:29318  .debug_str:000000000001ad82 .LASF4878
C:\Users\SOLDER~1\AppData\Local\Temp\ccI3TRm9.s:23792  .debug_str:0000000000004629 .LASF4879
C:\Users\SOLDER~1\AppData\Local\Temp\ccI3TRm9.s:30524  .debug_str:000000000001fb53 .LASF4880
C:\Users\SOLDER~1\AppData\Local\Temp\ccI3TRm9.s:27126  .debug_str:0000000000011f0f .LASF4881
C:\Users\SOLDER~1\AppData\Local\Temp\ccI3TRm9.s:23002  .debug_str:00000000000013a5 .LASF4882
C:\Users\SOLDER~1\AppData\Local\Temp\ccI3TRm9.s:23580  .debug_str:0000000000003900 .LASF4883
C:\Users\SOLDER~1\AppData\Local\Temp\ccI3TRm9.s:26946  .debug_str:0000000000011360 .LASF4884
C:\Users\SOLDER~1\AppData\Local\Temp\ccI3TRm9.s:23346  .debug_str:0000000000002a37 .LASF4885
C:\Users\SOLDER~1\AppData\Local\Temp\ccI3TRm9.s:30498  .debug_str:000000000001f994 .LASF4886
C:\Users\SOLDER~1\AppData\Local\Temp\ccI3TRm9.s:29794  .debug_str:000000000001cb52 .LASF4887
C:\Users\SOLDER~1\AppData\Local\Temp\ccI3TRm9.s:34426  .debug_str:000000000002f80a .LASF4888
C:\Users\SOLDER~1\AppData\Local\Temp\ccI3TRm9.s:34376  .debug_str:000000000002f519 .LASF4889
C:\Users\SOLDER~1\AppData\Local\Temp\ccI3TRm9.s:33282  .debug_str:000000000002aea2 .LASF4890
C:\Users\SOLDER~1\AppData\Local\Temp\ccI3TRm9.s:30540  .debug_str:000000000001fc86 .LASF4891
C:\Users\SOLDER~1\AppData\Local\Temp\ccI3TRm9.s:25024  .debug_str:0000000000009649 .LASF4892
C:\Users\SOLDER~1\AppData\Local\Temp\ccI3TRm9.s:30848  .debug_str:0000000000021024 .LASF4893
C:\Users\SOLDER~1\AppData\Local\Temp\ccI3TRm9.s:31356  .debug_str:00000000000230f3 .LASF4894
C:\Users\SOLDER~1\AppData\Local\Temp\ccI3TRm9.s:33026  .debug_str:0000000000029e0b .LASF4895
C:\Users\SOLDER~1\AppData\Local\Temp\ccI3TRm9.s:27474  .debug_str:0000000000013544 .LASF4896
C:\Users\SOLDER~1\AppData\Local\Temp\ccI3TRm9.s:28596  .debug_str:0000000000017eb6 .LASF4897
C:\Users\SOLDER~1\AppData\Local\Temp\ccI3TRm9.s:23438  .debug_str:0000000000002ffc .LASF4898
C:\Users\SOLDER~1\AppData\Local\Temp\ccI3TRm9.s:31384  .debug_str:00000000000232d9 .LASF4899
C:\Users\SOLDER~1\AppData\Local\Temp\ccI3TRm9.s:33378  .debug_str:000000000002b4b0 .LASF4900
C:\Users\SOLDER~1\AppData\Local\Temp\ccI3TRm9.s:31684  .debug_str:000000000002462c .LASF4901
C:\Users\SOLDER~1\AppData\Local\Temp\ccI3TRm9.s:31202  .debug_str:00000000000226ec .LASF4902
C:\Users\SOLDER~1\AppData\Local\Temp\ccI3TRm9.s:31752  .debug_str:0000000000024aac .LASF4903
C:\Users\SOLDER~1\AppData\Local\Temp\ccI3TRm9.s:33546  .debug_str:000000000002bfa8 .LASF4904
C:\Users\SOLDER~1\AppData\Local\Temp\ccI3TRm9.s:24072  .debug_str:000000000000576a .LASF4905
C:\Users\SOLDER~1\AppData\Local\Temp\ccI3TRm9.s:25222  .debug_str:000000000000a315 .LASF4906
C:\Users\SOLDER~1\AppData\Local\Temp\ccI3TRm9.s:32520  .debug_str:0000000000027d6e .LASF4907
C:\Users\SOLDER~1\AppData\Local\Temp\ccI3TRm9.s:32082  .debug_str:0000000000026008 .LASF4908
C:\Users\SOLDER~1\AppData\Local\Temp\ccI3TRm9.s:31316  .debug_str:0000000000022e1d .LASF4909
C:\Users\SOLDER~1\AppData\Local\Temp\ccI3TRm9.s:29716  .debug_str:000000000001c62a .LASF4910
C:\Users\SOLDER~1\AppData\Local\Temp\ccI3TRm9.s:26648  .debug_str:00000000000100a6 .LASF4911
C:\Users\SOLDER~1\AppData\Local\Temp\ccI3TRm9.s:31504  .debug_str:0000000000023ab1 .LASF4912
C:\Users\SOLDER~1\AppData\Local\Temp\ccI3TRm9.s:32628  .debug_str:0000000000028443 .LASF4913
C:\Users\SOLDER~1\AppData\Local\Temp\ccI3TRm9.s:25436  .debug_str:000000000000b121 .LASF4914
C:\Users\SOLDER~1\AppData\Local\Temp\ccI3TRm9.s:26218  .debug_str:000000000000e4bf .LASF4915
C:\Users\SOLDER~1\AppData\Local\Temp\ccI3TRm9.s:28148  .debug_str:000000000001620a .LASF4916
C:\Users\SOLDER~1\AppData\Local\Temp\ccI3TRm9.s:31822  .debug_str:0000000000024f3d .LASF4917
C:\Users\SOLDER~1\AppData\Local\Temp\ccI3TRm9.s:32708  .debug_str:00000000000289ec .LASF4918
C:\Users\SOLDER~1\AppData\Local\Temp\ccI3TRm9.s:27712  .debug_str:00000000000145b6 .LASF4919
C:\Users\SOLDER~1\AppData\Local\Temp\ccI3TRm9.s:32744  .debug_str:0000000000028c32 .LASF4920
C:\Users\SOLDER~1\AppData\Local\Temp\ccI3TRm9.s:33092  .debug_str:000000000002a20e .LASF4921
C:\Users\SOLDER~1\AppData\Local\Temp\ccI3TRm9.s:27674  .debug_str:0000000000014319 .LASF4922
C:\Users\SOLDER~1\AppData\Local\Temp\ccI3TRm9.s:31688  .debug_str:000000000002467f .LASF4923
C:\Users\SOLDER~1\AppData\Local\Temp\ccI3TRm9.s:27756  .debug_str:00000000000148de .LASF4924
C:\Users\SOLDER~1\AppData\Local\Temp\ccI3TRm9.s:28432  .debug_str:00000000000173ce .LASF4925
C:\Users\SOLDER~1\AppData\Local\Temp\ccI3TRm9.s:28028  .debug_str:0000000000015aa4 .LASF4926
C:\Users\SOLDER~1\AppData\Local\Temp\ccI3TRm9.s:29108  .debug_str:000000000001a015 .LASF4927
GAS LISTING C:\Users\SOLDER~1\AppData\Local\Temp\ccI3TRm9.s 			page 181


C:\Users\SOLDER~1\AppData\Local\Temp\ccI3TRm9.s:25834  .debug_str:000000000000cb6f .LASF4928
C:\Users\SOLDER~1\AppData\Local\Temp\ccI3TRm9.s:32454  .debug_str:0000000000027914 .LASF4929
C:\Users\SOLDER~1\AppData\Local\Temp\ccI3TRm9.s:33504  .debug_str:000000000002bce4 .LASF4930
C:\Users\SOLDER~1\AppData\Local\Temp\ccI3TRm9.s:30732  .debug_str:000000000002087b .LASF4931
C:\Users\SOLDER~1\AppData\Local\Temp\ccI3TRm9.s:27466  .debug_str:00000000000134a7 .LASF4932
C:\Users\SOLDER~1\AppData\Local\Temp\ccI3TRm9.s:27170  .debug_str:00000000000121b4 .LASF4933
C:\Users\SOLDER~1\AppData\Local\Temp\ccI3TRm9.s:30724  .debug_str:00000000000207f6 .LASF4934
C:\Users\SOLDER~1\AppData\Local\Temp\ccI3TRm9.s:27818  .debug_str:0000000000014cca .LASF4935
C:\Users\SOLDER~1\AppData\Local\Temp\ccI3TRm9.s:29392  .debug_str:000000000001b247 .LASF4936
C:\Users\SOLDER~1\AppData\Local\Temp\ccI3TRm9.s:26682  .debug_str:00000000000102e1 .LASF4937
C:\Users\SOLDER~1\AppData\Local\Temp\ccI3TRm9.s:32350  .debug_str:0000000000027243 .LASF4938
C:\Users\SOLDER~1\AppData\Local\Temp\ccI3TRm9.s:30534  .debug_str:000000000001fc22 .LASF4939
C:\Users\SOLDER~1\AppData\Local\Temp\ccI3TRm9.s:23238  .debug_str:00000000000022f7 .LASF4940
C:\Users\SOLDER~1\AppData\Local\Temp\ccI3TRm9.s:22990  .debug_str:00000000000012d6 .LASF4941
C:\Users\SOLDER~1\AppData\Local\Temp\ccI3TRm9.s:31208  .debug_str:0000000000022758 .LASF4942
C:\Users\SOLDER~1\AppData\Local\Temp\ccI3TRm9.s:26700  .debug_str:00000000000103d5 .LASF4943
C:\Users\SOLDER~1\AppData\Local\Temp\ccI3TRm9.s:29892  .debug_str:000000000001d1bc .LASF4944
C:\Users\SOLDER~1\AppData\Local\Temp\ccI3TRm9.s:32856  .debug_str:000000000002938d .LASF4945
C:\Users\SOLDER~1\AppData\Local\Temp\ccI3TRm9.s:29560  .debug_str:000000000001bc70 .LASF4946
C:\Users\SOLDER~1\AppData\Local\Temp\ccI3TRm9.s:27490  .debug_str:0000000000013679 .LASF4947
C:\Users\SOLDER~1\AppData\Local\Temp\ccI3TRm9.s:31058  .debug_str:0000000000021da4 .LASF4948
C:\Users\SOLDER~1\AppData\Local\Temp\ccI3TRm9.s:25538  .debug_str:000000000000b7dd .LASF4949
C:\Users\SOLDER~1\AppData\Local\Temp\ccI3TRm9.s:30568  .debug_str:000000000001fe57 .LASF4950
C:\Users\SOLDER~1\AppData\Local\Temp\ccI3TRm9.s:28818  .debug_str:0000000000018d31 .LASF4951
C:\Users\SOLDER~1\AppData\Local\Temp\ccI3TRm9.s:27536  .debug_str:0000000000013981 .LASF4952
C:\Users\SOLDER~1\AppData\Local\Temp\ccI3TRm9.s:25030  .debug_str:00000000000096ab .LASF4953
C:\Users\SOLDER~1\AppData\Local\Temp\ccI3TRm9.s:31628  .debug_str:0000000000024289 .LASF4954
C:\Users\SOLDER~1\AppData\Local\Temp\ccI3TRm9.s:32806  .debug_str:0000000000029052 .LASF4955
C:\Users\SOLDER~1\AppData\Local\Temp\ccI3TRm9.s:30974  .debug_str:000000000002185e .LASF4956
C:\Users\SOLDER~1\AppData\Local\Temp\ccI3TRm9.s:30972  .debug_str:000000000002183f .LASF4957
C:\Users\SOLDER~1\AppData\Local\Temp\ccI3TRm9.s:22890  .debug_str:0000000000000ccd .LASF4958
C:\Users\SOLDER~1\AppData\Local\Temp\ccI3TRm9.s:34432  .debug_str:000000000002f863 .LASF4959
C:\Users\SOLDER~1\AppData\Local\Temp\ccI3TRm9.s:29906  .debug_str:000000000001d2bb .LASF4960
C:\Users\SOLDER~1\AppData\Local\Temp\ccI3TRm9.s:25168  .debug_str:0000000000009f6b .LASF4961
C:\Users\SOLDER~1\AppData\Local\Temp\ccI3TRm9.s:27502  .debug_str:0000000000013727 .LASF4962
C:\Users\SOLDER~1\AppData\Local\Temp\ccI3TRm9.s:31082  .debug_str:0000000000021f2b .LASF4963
C:\Users\SOLDER~1\AppData\Local\Temp\ccI3TRm9.s:25214  .debug_str:000000000000a27f .LASF4964
C:\Users\SOLDER~1\AppData\Local\Temp\ccI3TRm9.s:27144  .debug_str:0000000000012044 .LASF4965
C:\Users\SOLDER~1\AppData\Local\Temp\ccI3TRm9.s:33164  .debug_str:000000000002a6dd .LASF4966
C:\Users\SOLDER~1\AppData\Local\Temp\ccI3TRm9.s:27644  .debug_str:00000000000140fb .LASF4967
C:\Users\SOLDER~1\AppData\Local\Temp\ccI3TRm9.s:23080  .debug_str:000000000000185f .LASF4968
C:\Users\SOLDER~1\AppData\Local\Temp\ccI3TRm9.s:28322  .debug_str:0000000000016d01 .LASF4969
C:\Users\SOLDER~1\AppData\Local\Temp\ccI3TRm9.s:26198  .debug_str:000000000000e31c .LASF4970
C:\Users\SOLDER~1\AppData\Local\Temp\ccI3TRm9.s:25478  .debug_str:000000000000b39e .LASF4971
C:\Users\SOLDER~1\AppData\Local\Temp\ccI3TRm9.s:25838  .debug_str:000000000000cbb4 .LASF4972
C:\Users\SOLDER~1\AppData\Local\Temp\ccI3TRm9.s:22830  .debug_str:0000000000000888 .LASF4973
C:\Users\SOLDER~1\AppData\Local\Temp\ccI3TRm9.s:31832  .debug_str:0000000000025005 .LASF4974
C:\Users\SOLDER~1\AppData\Local\Temp\ccI3TRm9.s:23406  .debug_str:0000000000002de2 .LASF4975
C:\Users\SOLDER~1\AppData\Local\Temp\ccI3TRm9.s:25354  .debug_str:000000000000abf7 .LASF4976
C:\Users\SOLDER~1\AppData\Local\Temp\ccI3TRm9.s:24656  .debug_str:0000000000007e0a .LASF4977
C:\Users\SOLDER~1\AppData\Local\Temp\ccI3TRm9.s:27026  .debug_str:00000000000118be .LASF4978
C:\Users\SOLDER~1\AppData\Local\Temp\ccI3TRm9.s:29638  .debug_str:000000000001c0e5 .LASF4979
C:\Users\SOLDER~1\AppData\Local\Temp\ccI3TRm9.s:25634  .debug_str:000000000000bdfb .LASF4980
C:\Users\SOLDER~1\AppData\Local\Temp\ccI3TRm9.s:27572  .debug_str:0000000000013bd9 .LASF4981
C:\Users\SOLDER~1\AppData\Local\Temp\ccI3TRm9.s:24910  .debug_str:0000000000008e48 .LASF4982
C:\Users\SOLDER~1\AppData\Local\Temp\ccI3TRm9.s:32696  .debug_str:000000000002890c .LASF4983
C:\Users\SOLDER~1\AppData\Local\Temp\ccI3TRm9.s:27124  .debug_str:0000000000011ee0 .LASF4984
GAS LISTING C:\Users\SOLDER~1\AppData\Local\Temp\ccI3TRm9.s 			page 182


C:\Users\SOLDER~1\AppData\Local\Temp\ccI3TRm9.s:24508  .debug_str:0000000000007498 .LASF4985
C:\Users\SOLDER~1\AppData\Local\Temp\ccI3TRm9.s:23126  .debug_str:0000000000001b89 .LASF4986
C:\Users\SOLDER~1\AppData\Local\Temp\ccI3TRm9.s:31388  .debug_str:0000000000023314 .LASF4987
C:\Users\SOLDER~1\AppData\Local\Temp\ccI3TRm9.s:27080  .debug_str:0000000000011c0c .LASF4988
C:\Users\SOLDER~1\AppData\Local\Temp\ccI3TRm9.s:24994  .debug_str:000000000000942d .LASF4989
C:\Users\SOLDER~1\AppData\Local\Temp\ccI3TRm9.s:24716  .debug_str:00000000000081f7 .LASF4990
C:\Users\SOLDER~1\AppData\Local\Temp\ccI3TRm9.s:29972  .debug_str:000000000001d71f .LASF4991
C:\Users\SOLDER~1\AppData\Local\Temp\ccI3TRm9.s:32258  .debug_str:0000000000026c1c .LASF4992
C:\Users\SOLDER~1\AppData\Local\Temp\ccI3TRm9.s:34350  .debug_str:000000000002f377 .LASF4993
C:\Users\SOLDER~1\AppData\Local\Temp\ccI3TRm9.s:25530  .debug_str:000000000000b740 .LASF4994
C:\Users\SOLDER~1\AppData\Local\Temp\ccI3TRm9.s:25170  .debug_str:0000000000009f92 .LASF4995
C:\Users\SOLDER~1\AppData\Local\Temp\ccI3TRm9.s:24882  .debug_str:0000000000008c80 .LASF4996
C:\Users\SOLDER~1\AppData\Local\Temp\ccI3TRm9.s:31610  .debug_str:000000000002415d .LASF4997
C:\Users\SOLDER~1\AppData\Local\Temp\ccI3TRm9.s:25166  .debug_str:0000000000009f3e .LASF4998
C:\Users\SOLDER~1\AppData\Local\Temp\ccI3TRm9.s:30410  .debug_str:000000000001f3b8 .LASF4999
C:\Users\SOLDER~1\AppData\Local\Temp\ccI3TRm9.s:25638  .debug_str:000000000000be4a .LASF5000
C:\Users\SOLDER~1\AppData\Local\Temp\ccI3TRm9.s:24976  .debug_str:000000000000930c .LASF5001
C:\Users\SOLDER~1\AppData\Local\Temp\ccI3TRm9.s:32678  .debug_str:00000000000287cb .LASF5002
C:\Users\SOLDER~1\AppData\Local\Temp\ccI3TRm9.s:27774  .debug_str:0000000000014a03 .LASF5003
C:\Users\SOLDER~1\AppData\Local\Temp\ccI3TRm9.s:32822  .debug_str:000000000002916e .LASF5004
C:\Users\SOLDER~1\AppData\Local\Temp\ccI3TRm9.s:29478  .debug_str:000000000001b749 .LASF5005
C:\Users\SOLDER~1\AppData\Local\Temp\ccI3TRm9.s:24718  .debug_str:0000000000008225 .LASF5006
C:\Users\SOLDER~1\AppData\Local\Temp\ccI3TRm9.s:29068  .debug_str:0000000000019db9 .LASF5007
C:\Users\SOLDER~1\AppData\Local\Temp\ccI3TRm9.s:22884  .debug_str:0000000000000c4e .LASF5008
C:\Users\SOLDER~1\AppData\Local\Temp\ccI3TRm9.s:29580  .debug_str:000000000001bd23 .LASF5009
C:\Users\SOLDER~1\AppData\Local\Temp\ccI3TRm9.s:31694  .debug_str:00000000000246cf .LASF5010
C:\Users\SOLDER~1\AppData\Local\Temp\ccI3TRm9.s:23076  .debug_str:0000000000001814 .LASF5011
C:\Users\SOLDER~1\AppData\Local\Temp\ccI3TRm9.s:31304  .debug_str:0000000000022d4d .LASF5012
C:\Users\SOLDER~1\AppData\Local\Temp\ccI3TRm9.s:23606  .debug_str:0000000000003a93 .LASF5013
C:\Users\SOLDER~1\AppData\Local\Temp\ccI3TRm9.s:23530  .debug_str:00000000000035b3 .LASF5014
C:\Users\SOLDER~1\AppData\Local\Temp\ccI3TRm9.s:32090  .debug_str:00000000000260a8 .LASF5015
C:\Users\SOLDER~1\AppData\Local\Temp\ccI3TRm9.s:29836  .debug_str:000000000001ce00 .LASF5016
C:\Users\SOLDER~1\AppData\Local\Temp\ccI3TRm9.s:27228  .debug_str:000000000001258c .LASF5017
C:\Users\SOLDER~1\AppData\Local\Temp\ccI3TRm9.s:32892  .debug_str:00000000000295ca .LASF5018
C:\Users\SOLDER~1\AppData\Local\Temp\ccI3TRm9.s:26746  .debug_str:00000000000106de .LASF5019
C:\Users\SOLDER~1\AppData\Local\Temp\ccI3TRm9.s:29994  .debug_str:000000000001d8af .LASF5020
C:\Users\SOLDER~1\AppData\Local\Temp\ccI3TRm9.s:29386  .debug_str:000000000001b1e8 .LASF5021
C:\Users\SOLDER~1\AppData\Local\Temp\ccI3TRm9.s:25600  .debug_str:000000000000bbbb .LASF5022
C:\Users\SOLDER~1\AppData\Local\Temp\ccI3TRm9.s:29584  .debug_str:000000000001bd70 .LASF5023
C:\Users\SOLDER~1\AppData\Local\Temp\ccI3TRm9.s:26504  .debug_str:000000000000f6be .LASF5024
C:\Users\SOLDER~1\AppData\Local\Temp\ccI3TRm9.s:26720  .debug_str:0000000000010512 .LASF5025
C:\Users\SOLDER~1\AppData\Local\Temp\ccI3TRm9.s:26466  .debug_str:000000000000f465 .LASF5026
C:\Users\SOLDER~1\AppData\Local\Temp\ccI3TRm9.s:34422  .debug_str:000000000002f7c5 .LASF5027
C:\Users\SOLDER~1\AppData\Local\Temp\ccI3TRm9.s:31624  .debug_str:0000000000024244 .LASF5028
C:\Users\SOLDER~1\AppData\Local\Temp\ccI3TRm9.s:26616  .debug_str:000000000000fe73 .LASF5029
C:\Users\SOLDER~1\AppData\Local\Temp\ccI3TRm9.s:23706  .debug_str:00000000000040aa .LASF5030
C:\Users\SOLDER~1\AppData\Local\Temp\ccI3TRm9.s:32480  .debug_str:0000000000027ad9 .LASF5031
C:\Users\SOLDER~1\AppData\Local\Temp\ccI3TRm9.s:33564  .debug_str:000000000002c0de .LASF5032
C:\Users\SOLDER~1\AppData\Local\Temp\ccI3TRm9.s:24134  .debug_str:0000000000005be3 .LASF5033
C:\Users\SOLDER~1\AppData\Local\Temp\ccI3TRm9.s:28660  .debug_str:0000000000018304 .LASF5034
C:\Users\SOLDER~1\AppData\Local\Temp\ccI3TRm9.s:29418  .debug_str:000000000001b3fc .LASF5035
C:\Users\SOLDER~1\AppData\Local\Temp\ccI3TRm9.s:28406  .debug_str:0000000000017214 .LASF5036
C:\Users\SOLDER~1\AppData\Local\Temp\ccI3TRm9.s:28732  .debug_str:00000000000187ce .LASF5037
C:\Users\SOLDER~1\AppData\Local\Temp\ccI3TRm9.s:24522  .debug_str:000000000000757b .LASF5038
C:\Users\SOLDER~1\AppData\Local\Temp\ccI3TRm9.s:33072  .debug_str:000000000002a0eb .LASF5039
C:\Users\SOLDER~1\AppData\Local\Temp\ccI3TRm9.s:30864  .debug_str:000000000002113f .LASF5040
C:\Users\SOLDER~1\AppData\Local\Temp\ccI3TRm9.s:31136  .debug_str:00000000000222aa .LASF5041
GAS LISTING C:\Users\SOLDER~1\AppData\Local\Temp\ccI3TRm9.s 			page 183


C:\Users\SOLDER~1\AppData\Local\Temp\ccI3TRm9.s:32478  .debug_str:0000000000027aa8 .LASF5042
C:\Users\SOLDER~1\AppData\Local\Temp\ccI3TRm9.s:34406  .debug_str:000000000002f6d4 .LASF5043
C:\Users\SOLDER~1\AppData\Local\Temp\ccI3TRm9.s:34336  .debug_str:000000000002f292 .LASF5044
C:\Users\SOLDER~1\AppData\Local\Temp\ccI3TRm9.s:28370  .debug_str:000000000001701c .LASF5045
C:\Users\SOLDER~1\AppData\Local\Temp\ccI3TRm9.s:27768  .debug_str:000000000001499c .LASF5046
C:\Users\SOLDER~1\AppData\Local\Temp\ccI3TRm9.s:27604  .debug_str:0000000000013e3e .LASF5047
C:\Users\SOLDER~1\AppData\Local\Temp\ccI3TRm9.s:32530  .debug_str:0000000000027e08 .LASF5048
C:\Users\SOLDER~1\AppData\Local\Temp\ccI3TRm9.s:28672  .debug_str:00000000000183e5 .LASF5049
C:\Users\SOLDER~1\AppData\Local\Temp\ccI3TRm9.s:23012  .debug_str:000000000000145c .LASF5050
C:\Users\SOLDER~1\AppData\Local\Temp\ccI3TRm9.s:30810  .debug_str:0000000000020db0 .LASF5051
C:\Users\SOLDER~1\AppData\Local\Temp\ccI3TRm9.s:31246  .debug_str:0000000000022966 .LASF5052
C:\Users\SOLDER~1\AppData\Local\Temp\ccI3TRm9.s:25438  .debug_str:000000000000b14f .LASF5053
C:\Users\SOLDER~1\AppData\Local\Temp\ccI3TRm9.s:32414  .debug_str:0000000000027671 .LASF5054
C:\Users\SOLDER~1\AppData\Local\Temp\ccI3TRm9.s:24942  .debug_str:0000000000009097 .LASF5055
C:\Users\SOLDER~1\AppData\Local\Temp\ccI3TRm9.s:27970  .debug_str:00000000000156ca .LASF5056
C:\Users\SOLDER~1\AppData\Local\Temp\ccI3TRm9.s:32162  .debug_str:0000000000026584 .LASF5057
C:\Users\SOLDER~1\AppData\Local\Temp\ccI3TRm9.s:26982  .debug_str:00000000000115a4 .LASF5058
C:\Users\SOLDER~1\AppData\Local\Temp\ccI3TRm9.s:34092  .debug_str:000000000002e33a .LASF5059
C:\Users\SOLDER~1\AppData\Local\Temp\ccI3TRm9.s:34316  .debug_str:000000000002f130 .LASF5060
C:\Users\SOLDER~1\AppData\Local\Temp\ccI3TRm9.s:31410  .debug_str:0000000000023482 .LASF5061
C:\Users\SOLDER~1\AppData\Local\Temp\ccI3TRm9.s:28718  .debug_str:00000000000186df .LASF5062
C:\Users\SOLDER~1\AppData\Local\Temp\ccI3TRm9.s:28958  .debug_str:0000000000019672 .LASF5063
C:\Users\SOLDER~1\AppData\Local\Temp\ccI3TRm9.s:29708  .debug_str:000000000001c59b .LASF5064
C:\Users\SOLDER~1\AppData\Local\Temp\ccI3TRm9.s:24916  .debug_str:0000000000008eb8 .LASF5065
C:\Users\SOLDER~1\AppData\Local\Temp\ccI3TRm9.s:30590  .debug_str:000000000001ff8f .LASF5066
C:\Users\SOLDER~1\AppData\Local\Temp\ccI3TRm9.s:32800  .debug_str:0000000000028fe1 .LASF5067
C:\Users\SOLDER~1\AppData\Local\Temp\ccI3TRm9.s:30952  .debug_str:00000000000216ea .LASF5068
C:\Users\SOLDER~1\AppData\Local\Temp\ccI3TRm9.s:22986  .debug_str:000000000000127d .LASF5069
C:\Users\SOLDER~1\AppData\Local\Temp\ccI3TRm9.s:22714  .debug_str:0000000000000048 .LASF5070
C:\Users\SOLDER~1\AppData\Local\Temp\ccI3TRm9.s:30342  .debug_str:000000000001ef3d .LASF5071
C:\Users\SOLDER~1\AppData\Local\Temp\ccI3TRm9.s:25780  .debug_str:000000000000c7b9 .LASF5072
C:\Users\SOLDER~1\AppData\Local\Temp\ccI3TRm9.s:22740  .debug_str:00000000000001ca .LASF5073
C:\Users\SOLDER~1\AppData\Local\Temp\ccI3TRm9.s:25142  .debug_str:0000000000009da2 .LASF5074
C:\Users\SOLDER~1\AppData\Local\Temp\ccI3TRm9.s:34444  .debug_str:000000000002f922 .LASF5075
C:\Users\SOLDER~1\AppData\Local\Temp\ccI3TRm9.s:27194  .debug_str:000000000001234f .LASF5076
C:\Users\SOLDER~1\AppData\Local\Temp\ccI3TRm9.s:28870  .debug_str:000000000001908f .LASF5077
C:\Users\SOLDER~1\AppData\Local\Temp\ccI3TRm9.s:24658  .debug_str:0000000000007e38 .LASF5078
C:\Users\SOLDER~1\AppData\Local\Temp\ccI3TRm9.s:24670  .debug_str:0000000000007ef3 .LASF5079
C:\Users\SOLDER~1\AppData\Local\Temp\ccI3TRm9.s:30378  .debug_str:000000000001f190 .LASF5080
C:\Users\SOLDER~1\AppData\Local\Temp\ccI3TRm9.s:23498  .debug_str:00000000000033c8 .LASF5081
C:\Users\SOLDER~1\AppData\Local\Temp\ccI3TRm9.s:26884  .debug_str:0000000000010f83 .LASF5082
C:\Users\SOLDER~1\AppData\Local\Temp\ccI3TRm9.s:24982  .debug_str:0000000000009378 .LASF5083
C:\Users\SOLDER~1\AppData\Local\Temp\ccI3TRm9.s:27646  .debug_str:0000000000014126 .LASF5084
C:\Users\SOLDER~1\AppData\Local\Temp\ccI3TRm9.s:30780  .debug_str:0000000000020ba5 .LASF5085
C:\Users\SOLDER~1\AppData\Local\Temp\ccI3TRm9.s:28244  .debug_str:000000000001683c .LASF5086
C:\Users\SOLDER~1\AppData\Local\Temp\ccI3TRm9.s:26606  .debug_str:000000000000fdc3 .LASF5087
C:\Users\SOLDER~1\AppData\Local\Temp\ccI3TRm9.s:34384  .debug_str:000000000002f57b .LASF5088
C:\Users\SOLDER~1\AppData\Local\Temp\ccI3TRm9.s:25900  .debug_str:000000000000cfe0 .LASF5089
C:\Users\SOLDER~1\AppData\Local\Temp\ccI3TRm9.s:29610  .debug_str:000000000001bf43 .LASF5090
C:\Users\SOLDER~1\AppData\Local\Temp\ccI3TRm9.s:23410  .debug_str:0000000000002e26 .LASF5091
C:\Users\SOLDER~1\AppData\Local\Temp\ccI3TRm9.s:26986  .debug_str:00000000000115e9 .LASF5092
C:\Users\SOLDER~1\AppData\Local\Temp\ccI3TRm9.s:30168  .debug_str:000000000001e3d3 .LASF5093
C:\Users\SOLDER~1\AppData\Local\Temp\ccI3TRm9.s:27884  .debug_str:000000000001514e .LASF5094
C:\Users\SOLDER~1\AppData\Local\Temp\ccI3TRm9.s:29314  .debug_str:000000000001ad35 .LASF5095
C:\Users\SOLDER~1\AppData\Local\Temp\ccI3TRm9.s:29664  .debug_str:000000000001c2bd .LASF5096
C:\Users\SOLDER~1\AppData\Local\Temp\ccI3TRm9.s:26052  .debug_str:000000000000d9dd .LASF5097
C:\Users\SOLDER~1\AppData\Local\Temp\ccI3TRm9.s:24220  .debug_str:000000000000616c .LASF5098
GAS LISTING C:\Users\SOLDER~1\AppData\Local\Temp\ccI3TRm9.s 			page 184


C:\Users\SOLDER~1\AppData\Local\Temp\ccI3TRm9.s:34332  .debug_str:000000000002f245 .LASF5099
C:\Users\SOLDER~1\AppData\Local\Temp\ccI3TRm9.s:22988  .debug_str:00000000000012a0 .LASF5100
C:\Users\SOLDER~1\AppData\Local\Temp\ccI3TRm9.s:25846  .debug_str:000000000000cc43 .LASF5101
C:\Users\SOLDER~1\AppData\Local\Temp\ccI3TRm9.s:32468  .debug_str:00000000000279ed .LASF5102
C:\Users\SOLDER~1\AppData\Local\Temp\ccI3TRm9.s:29304  .debug_str:000000000001ac81 .LASF5103
C:\Users\SOLDER~1\AppData\Local\Temp\ccI3TRm9.s:25294  .debug_str:000000000000a7de .LASF5104
C:\Users\SOLDER~1\AppData\Local\Temp\ccI3TRm9.s:23264  .debug_str:00000000000024c0 .LASF5105
C:\Users\SOLDER~1\AppData\Local\Temp\ccI3TRm9.s:29376  .debug_str:000000000001b129 .LASF5106
C:\Users\SOLDER~1\AppData\Local\Temp\ccI3TRm9.s:32134  .debug_str:000000000002638a .LASF5107
C:\Users\SOLDER~1\AppData\Local\Temp\ccI3TRm9.s:24972  .debug_str:00000000000092b2 .LASF5108
C:\Users\SOLDER~1\AppData\Local\Temp\ccI3TRm9.s:32228  .debug_str:0000000000026a02 .LASF5109
C:\Users\SOLDER~1\AppData\Local\Temp\ccI3TRm9.s:25814  .debug_str:000000000000ca06 .LASF5110
C:\Users\SOLDER~1\AppData\Local\Temp\ccI3TRm9.s:22858  .debug_str:0000000000000a6c .LASF5111
C:\Users\SOLDER~1\AppData\Local\Temp\ccI3TRm9.s:25850  .debug_str:000000000000cc9d .LASF5112
C:\Users\SOLDER~1\AppData\Local\Temp\ccI3TRm9.s:27148  .debug_str:000000000001208b .LASF5113
C:\Users\SOLDER~1\AppData\Local\Temp\ccI3TRm9.s:29686  .debug_str:000000000001c41d .LASF5114
C:\Users\SOLDER~1\AppData\Local\Temp\ccI3TRm9.s:24270  .debug_str:00000000000064d7 .LASF5115
C:\Users\SOLDER~1\AppData\Local\Temp\ccI3TRm9.s:32698  .debug_str:0000000000028933 .LASF5116
C:\Users\SOLDER~1\AppData\Local\Temp\ccI3TRm9.s:31336  .debug_str:0000000000022f86 .LASF5117
C:\Users\SOLDER~1\AppData\Local\Temp\ccI3TRm9.s:27568  .debug_str:0000000000013b7d .LASF5118
C:\Users\SOLDER~1\AppData\Local\Temp\ccI3TRm9.s:31026  .debug_str:0000000000021bbc .LASF5119
C:\Users\SOLDER~1\AppData\Local\Temp\ccI3TRm9.s:31818  .debug_str:0000000000024f0a .LASF5120
C:\Users\SOLDER~1\AppData\Local\Temp\ccI3TRm9.s:29840  .debug_str:000000000001ce46 .LASF5121
C:\Users\SOLDER~1\AppData\Local\Temp\ccI3TRm9.s:28328  .debug_str:0000000000016d6b .LASF5122
C:\Users\SOLDER~1\AppData\Local\Temp\ccI3TRm9.s:31662  .debug_str:00000000000244da .LASF5123
C:\Users\SOLDER~1\AppData\Local\Temp\ccI3TRm9.s:34012  .debug_str:000000000002de37 .LASF5124
C:\Users\SOLDER~1\AppData\Local\Temp\ccI3TRm9.s:29208  .debug_str:000000000001a664 .LASF5125
C:\Users\SOLDER~1\AppData\Local\Temp\ccI3TRm9.s:32960  .debug_str:000000000002999b .LASF5126
C:\Users\SOLDER~1\AppData\Local\Temp\ccI3TRm9.s:30812  .debug_str:0000000000020dd1 .LASF5127
C:\Users\SOLDER~1\AppData\Local\Temp\ccI3TRm9.s:29602  .debug_str:000000000001bec1 .LASF5128
C:\Users\SOLDER~1\AppData\Local\Temp\ccI3TRm9.s:28420  .debug_str:00000000000172fd .LASF5129
C:\Users\SOLDER~1\AppData\Local\Temp\ccI3TRm9.s:32070  .debug_str:0000000000025f19 .LASF5130
C:\Users\SOLDER~1\AppData\Local\Temp\ccI3TRm9.s:23054  .debug_str:00000000000016fa .LASF5131
C:\Users\SOLDER~1\AppData\Local\Temp\ccI3TRm9.s:27074  .debug_str:0000000000011bb1 .LASF5132
C:\Users\SOLDER~1\AppData\Local\Temp\ccI3TRm9.s:27082  .debug_str:0000000000011c36 .LASF5133
C:\Users\SOLDER~1\AppData\Local\Temp\ccI3TRm9.s:33608  .debug_str:000000000002c3ba .LASF5134
C:\Users\SOLDER~1\AppData\Local\Temp\ccI3TRm9.s:25750  .debug_str:000000000000c587 .LASF5135
C:\Users\SOLDER~1\AppData\Local\Temp\ccI3TRm9.s:24870  .debug_str:0000000000008bd1 .LASF5136
C:\Users\SOLDER~1\AppData\Local\Temp\ccI3TRm9.s:24748  .debug_str:0000000000008415 .LASF5137
C:\Users\SOLDER~1\AppData\Local\Temp\ccI3TRm9.s:23744  .debug_str:0000000000004301 .LASF5138
C:\Users\SOLDER~1\AppData\Local\Temp\ccI3TRm9.s:26010  .debug_str:000000000000d734 .LASF5139
C:\Users\SOLDER~1\AppData\Local\Temp\ccI3TRm9.s:30852  .debug_str:0000000000021069 .LASF5140
C:\Users\SOLDER~1\AppData\Local\Temp\ccI3TRm9.s:26488  .debug_str:000000000000f5d5 .LASF5141
C:\Users\SOLDER~1\AppData\Local\Temp\ccI3TRm9.s:23482  .debug_str:00000000000032a7 .LASF5142
C:\Users\SOLDER~1\AppData\Local\Temp\ccI3TRm9.s:33342  .debug_str:000000000002b222 .LASF5143
C:\Users\SOLDER~1\AppData\Local\Temp\ccI3TRm9.s:26800  .debug_str:0000000000010a0d .LASF5144
C:\Users\SOLDER~1\AppData\Local\Temp\ccI3TRm9.s:33148  .debug_str:000000000002a5ce .LASF5145
C:\Users\SOLDER~1\AppData\Local\Temp\ccI3TRm9.s:26570  .debug_str:000000000000fb31 .LASF5146
C:\Users\SOLDER~1\AppData\Local\Temp\ccI3TRm9.s:23258  .debug_str:000000000000245d .LASF5147
C:\Users\SOLDER~1\AppData\Local\Temp\ccI3TRm9.s:29224  .debug_str:000000000001a74f .LASF5148
C:\Users\SOLDER~1\AppData\Local\Temp\ccI3TRm9.s:23534  .debug_str:00000000000035f4 .LASF5149
C:\Users\SOLDER~1\AppData\Local\Temp\ccI3TRm9.s:23958  .debug_str:000000000000509c .LASF5150
C:\Users\SOLDER~1\AppData\Local\Temp\ccI3TRm9.s:33242  .debug_str:000000000002ac19 .LASF5151
C:\Users\SOLDER~1\AppData\Local\Temp\ccI3TRm9.s:22756  .debug_str:00000000000002f2 .LASF5152
C:\Users\SOLDER~1\AppData\Local\Temp\ccI3TRm9.s:23034  .debug_str:00000000000015ac .LASF5153
C:\Users\SOLDER~1\AppData\Local\Temp\ccI3TRm9.s:33480  .debug_str:000000000002bb7e .LASF5154
C:\Users\SOLDER~1\AppData\Local\Temp\ccI3TRm9.s:25360  .debug_str:000000000000ac66 .LASF5155
GAS LISTING C:\Users\SOLDER~1\AppData\Local\Temp\ccI3TRm9.s 			page 185


C:\Users\SOLDER~1\AppData\Local\Temp\ccI3TRm9.s:32232  .debug_str:0000000000026a56 .LASF5156
C:\Users\SOLDER~1\AppData\Local\Temp\ccI3TRm9.s:33614  .debug_str:000000000002c41f .LASF5157
C:\Users\SOLDER~1\AppData\Local\Temp\ccI3TRm9.s:26750  .debug_str:0000000000010718 .LASF5158
C:\Users\SOLDER~1\AppData\Local\Temp\ccI3TRm9.s:25754  .debug_str:000000000000c5da .LASF5159
C:\Users\SOLDER~1\AppData\Local\Temp\ccI3TRm9.s:31882  .debug_str:0000000000025352 .LASF5160
C:\Users\SOLDER~1\AppData\Local\Temp\ccI3TRm9.s:23278  .debug_str:00000000000025ab .LASF5161
C:\Users\SOLDER~1\AppData\Local\Temp\ccI3TRm9.s:26296  .debug_str:000000000000e99a .LASF5162
C:\Users\SOLDER~1\AppData\Local\Temp\ccI3TRm9.s:34250  .debug_str:000000000002ed05 .LASF5163
C:\Users\SOLDER~1\AppData\Local\Temp\ccI3TRm9.s:27006  .debug_str:0000000000011722 .LASF5164
C:\Users\SOLDER~1\AppData\Local\Temp\ccI3TRm9.s:29900  .debug_str:000000000001d258 .LASF5165
C:\Users\SOLDER~1\AppData\Local\Temp\ccI3TRm9.s:28610  .debug_str:0000000000017f89 .LASF5166
C:\Users\SOLDER~1\AppData\Local\Temp\ccI3TRm9.s:24644  .debug_str:0000000000007d37 .LASF5167
C:\Users\SOLDER~1\AppData\Local\Temp\ccI3TRm9.s:34214  .debug_str:000000000002eac3 .LASF5168
C:\Users\SOLDER~1\AppData\Local\Temp\ccI3TRm9.s:30258  .debug_str:000000000001e989 .LASF5169
C:\Users\SOLDER~1\AppData\Local\Temp\ccI3TRm9.s:22996  .debug_str:0000000000001334 .LASF5170
C:\Users\SOLDER~1\AppData\Local\Temp\ccI3TRm9.s:28114  .debug_str:0000000000015ff1 .LASF5171
C:\Users\SOLDER~1\AppData\Local\Temp\ccI3TRm9.s:32404  .debug_str:00000000000275b1 .LASF5172
C:\Users\SOLDER~1\AppData\Local\Temp\ccI3TRm9.s:27210  .debug_str:000000000001244e .LASF5173
C:\Users\SOLDER~1\AppData\Local\Temp\ccI3TRm9.s:32642  .debug_str:0000000000028555 .LASF5174
C:\Users\SOLDER~1\AppData\Local\Temp\ccI3TRm9.s:23084  .debug_str:00000000000018b9 .LASF5175
C:\Users\SOLDER~1\AppData\Local\Temp\ccI3TRm9.s:31262  .debug_str:0000000000022a75 .LASF5176
C:\Users\SOLDER~1\AppData\Local\Temp\ccI3TRm9.s:29202  .debug_str:000000000001a5fe .LASF5177
C:\Users\SOLDER~1\AppData\Local\Temp\ccI3TRm9.s:28134  .debug_str:0000000000016132 .LASF5178
C:\Users\SOLDER~1\AppData\Local\Temp\ccI3TRm9.s:25374  .debug_str:000000000000ad1b .LASF5179
C:\Users\SOLDER~1\AppData\Local\Temp\ccI3TRm9.s:22836  .debug_str:00000000000008ed .LASF5180
C:\Users\SOLDER~1\AppData\Local\Temp\ccI3TRm9.s:27578  .debug_str:0000000000013c4c .LASF5181
C:\Users\SOLDER~1\AppData\Local\Temp\ccI3TRm9.s:33198  .debug_str:000000000002a901 .LASF5182
C:\Users\SOLDER~1\AppData\Local\Temp\ccI3TRm9.s:28554  .debug_str:0000000000017c03 .LASF5183
C:\Users\SOLDER~1\AppData\Local\Temp\ccI3TRm9.s:26712  .debug_str:00000000000104a4 .LASF5184
C:\Users\SOLDER~1\AppData\Local\Temp\ccI3TRm9.s:23404  .debug_str:0000000000002dc4 .LASF5185
C:\Users\SOLDER~1\AppData\Local\Temp\ccI3TRm9.s:24576  .debug_str:00000000000078b4 .LASF5186
C:\Users\SOLDER~1\AppData\Local\Temp\ccI3TRm9.s:30138  .debug_str:000000000001e1b8 .LASF5187
C:\Users\SOLDER~1\AppData\Local\Temp\ccI3TRm9.s:24680  .debug_str:0000000000007f83 .LASF5188
C:\Users\SOLDER~1\AppData\Local\Temp\ccI3TRm9.s:29786  .debug_str:000000000001cacf .LASF5189
C:\Users\SOLDER~1\AppData\Local\Temp\ccI3TRm9.s:23474  .debug_str:0000000000003244 .LASF5190
C:\Users\SOLDER~1\AppData\Local\Temp\ccI3TRm9.s:24108  .debug_str:0000000000005a0f .LASF5191
C:\Users\SOLDER~1\AppData\Local\Temp\ccI3TRm9.s:29770  .debug_str:000000000001c998 .LASF5192
C:\Users\SOLDER~1\AppData\Local\Temp\ccI3TRm9.s:23494  .debug_str:0000000000003380 .LASF5193
C:\Users\SOLDER~1\AppData\Local\Temp\ccI3TRm9.s:33756  .debug_str:000000000002cd72 .LASF5194
C:\Users\SOLDER~1\AppData\Local\Temp\ccI3TRm9.s:26438  .debug_str:000000000000f2bc .LASF5195
C:\Users\SOLDER~1\AppData\Local\Temp\ccI3TRm9.s:26816  .debug_str:0000000000010b38 .LASF5196
C:\Users\SOLDER~1\AppData\Local\Temp\ccI3TRm9.s:23690  .debug_str:0000000000003fa3 .LASF5197
C:\Users\SOLDER~1\AppData\Local\Temp\ccI3TRm9.s:24080  .debug_str:000000000000580a .LASF5198
C:\Users\SOLDER~1\AppData\Local\Temp\ccI3TRm9.s:22918  .debug_str:0000000000000e75 .LASF5199
C:\Users\SOLDER~1\AppData\Local\Temp\ccI3TRm9.s:27558  .debug_str:0000000000013aed .LASF5200
C:\Users\SOLDER~1\AppData\Local\Temp\ccI3TRm9.s:31474  .debug_str:000000000002388a .LASF5201
C:\Users\SOLDER~1\AppData\Local\Temp\ccI3TRm9.s:28500  .debug_str:0000000000017885 .LASF5202
C:\Users\SOLDER~1\AppData\Local\Temp\ccI3TRm9.s:28410  .debug_str:0000000000017253 .LASF5203
C:\Users\SOLDER~1\AppData\Local\Temp\ccI3TRm9.s:26372  .debug_str:000000000000ee5e .LASF5204
C:\Users\SOLDER~1\AppData\Local\Temp\ccI3TRm9.s:24464  .debug_str:00000000000071d7 .LASF5205
C:\Users\SOLDER~1\AppData\Local\Temp\ccI3TRm9.s:24726  .debug_str:00000000000082d1 .LASF5206
C:\Users\SOLDER~1\AppData\Local\Temp\ccI3TRm9.s:32976  .debug_str:0000000000029a9a .LASF5207
C:\Users\SOLDER~1\AppData\Local\Temp\ccI3TRm9.s:28310  .debug_str:0000000000016c39 .LASF5208
C:\Users\SOLDER~1\AppData\Local\Temp\ccI3TRm9.s:25840  .debug_str:000000000000cbdf .LASF5209
C:\Users\SOLDER~1\AppData\Local\Temp\ccI3TRm9.s:31620  .debug_str:0000000000024200 .LASF5210
C:\Users\SOLDER~1\AppData\Local\Temp\ccI3TRm9.s:25486  .debug_str:000000000000b438 .LASF5211
C:\Users\SOLDER~1\AppData\Local\Temp\ccI3TRm9.s:29916  .debug_str:000000000001d358 .LASF5212
GAS LISTING C:\Users\SOLDER~1\AppData\Local\Temp\ccI3TRm9.s 			page 186


C:\Users\SOLDER~1\AppData\Local\Temp\ccI3TRm9.s:26968  .debug_str:00000000000114d9 .LASF5213
C:\Users\SOLDER~1\AppData\Local\Temp\ccI3TRm9.s:25510  .debug_str:000000000000b5ce .LASF5214
C:\Users\SOLDER~1\AppData\Local\Temp\ccI3TRm9.s:30232  .debug_str:000000000001e7da .LASF5215
C:\Users\SOLDER~1\AppData\Local\Temp\ccI3TRm9.s:30596  .debug_str:000000000001ffe9 .LASF5216
C:\Users\SOLDER~1\AppData\Local\Temp\ccI3TRm9.s:25130  .debug_str:0000000000009cfd .LASF5217
C:\Users\SOLDER~1\AppData\Local\Temp\ccI3TRm9.s:33454  .debug_str:000000000002b9c3 .LASF5218
C:\Users\SOLDER~1\AppData\Local\Temp\ccI3TRm9.s:32222  .debug_str:000000000002698c .LASF5219
C:\Users\SOLDER~1\AppData\Local\Temp\ccI3TRm9.s:23174  .debug_str:0000000000001eb8 .LASF5220
C:\Users\SOLDER~1\AppData\Local\Temp\ccI3TRm9.s:27476  .debug_str:0000000000013571 .LASF5221
C:\Users\SOLDER~1\AppData\Local\Temp\ccI3TRm9.s:23754  .debug_str:0000000000004394 .LASF5222
C:\Users\SOLDER~1\AppData\Local\Temp\ccI3TRm9.s:27532  .debug_str:0000000000013930 .LASF5223
C:\Users\SOLDER~1\AppData\Local\Temp\ccI3TRm9.s:25248  .debug_str:000000000000a4c2 .LASF5224
C:\Users\SOLDER~1\AppData\Local\Temp\ccI3TRm9.s:31268  .debug_str:0000000000022ae7 .LASF5225
C:\Users\SOLDER~1\AppData\Local\Temp\ccI3TRm9.s:28172  .debug_str:000000000001639e .LASF5226
C:\Users\SOLDER~1\AppData\Local\Temp\ccI3TRm9.s:33108  .debug_str:000000000002a314 .LASF5227
C:\Users\SOLDER~1\AppData\Local\Temp\ccI3TRm9.s:28876  .debug_str:0000000000019105 .LASF5228
C:\Users\SOLDER~1\AppData\Local\Temp\ccI3TRm9.s:32542  .debug_str:0000000000027ece .LASF5229
C:\Users\SOLDER~1\AppData\Local\Temp\ccI3TRm9.s:26866  .debug_str:0000000000010e5e .LASF5230
C:\Users\SOLDER~1\AppData\Local\Temp\ccI3TRm9.s:27322  .debug_str:0000000000012b38 .LASF5231
C:\Users\SOLDER~1\AppData\Local\Temp\ccI3TRm9.s:28494  .debug_str:0000000000017810 .LASF5232
C:\Users\SOLDER~1\AppData\Local\Temp\ccI3TRm9.s:29982  .debug_str:000000000001d7dc .LASF5233
C:\Users\SOLDER~1\AppData\Local\Temp\ccI3TRm9.s:23082  .debug_str:000000000000188e .LASF5234
C:\Users\SOLDER~1\AppData\Local\Temp\ccI3TRm9.s:31538  .debug_str:0000000000023cf8 .LASF5235
C:\Users\SOLDER~1\AppData\Local\Temp\ccI3TRm9.s:28044  .debug_str:0000000000015ba5 .LASF5236
C:\Users\SOLDER~1\AppData\Local\Temp\ccI3TRm9.s:24446  .debug_str:00000000000070a9 .LASF5237
C:\Users\SOLDER~1\AppData\Local\Temp\ccI3TRm9.s:23990  .debug_str:0000000000005275 .LASF5238
C:\Users\SOLDER~1\AppData\Local\Temp\ccI3TRm9.s:26874  .debug_str:0000000000010ef0 .LASF5239
C:\Users\SOLDER~1\AppData\Local\Temp\ccI3TRm9.s:24978  .debug_str:000000000000933c .LASF5240
C:\Users\SOLDER~1\AppData\Local\Temp\ccI3TRm9.s:31918  .debug_str:0000000000025587 .LASF5241
C:\Users\SOLDER~1\AppData\Local\Temp\ccI3TRm9.s:32982  .debug_str:0000000000029b0c .LASF5242
C:\Users\SOLDER~1\AppData\Local\Temp\ccI3TRm9.s:24112  .debug_str:0000000000005a55 .LASF5243
C:\Users\SOLDER~1\AppData\Local\Temp\ccI3TRm9.s:28166  .debug_str:000000000001633c .LASF5244
C:\Users\SOLDER~1\AppData\Local\Temp\ccI3TRm9.s:25732  .debug_str:000000000000c461 .LASF5245
C:\Users\SOLDER~1\AppData\Local\Temp\ccI3TRm9.s:24626  .debug_str:0000000000007bf0 .LASF5246
C:\Users\SOLDER~1\AppData\Local\Temp\ccI3TRm9.s:24500  .debug_str:000000000000741a .LASF5247
C:\Users\SOLDER~1\AppData\Local\Temp\ccI3TRm9.s:31118  .debug_str:000000000002219d .LASF5248
C:\Users\SOLDER~1\AppData\Local\Temp\ccI3TRm9.s:29120  .debug_str:000000000001a0df .LASF5249
C:\Users\SOLDER~1\AppData\Local\Temp\ccI3TRm9.s:32554  .debug_str:0000000000027f90 .LASF5250
C:\Users\SOLDER~1\AppData\Local\Temp\ccI3TRm9.s:34424  .debug_str:000000000002f7e6 .LASF5251
C:\Users\SOLDER~1\AppData\Local\Temp\ccI3TRm9.s:27528  .debug_str:00000000000138ef .LASF5252
C:\Users\SOLDER~1\AppData\Local\Temp\ccI3TRm9.s:33884  .debug_str:000000000002d56d .LASF5253
C:\Users\SOLDER~1\AppData\Local\Temp\ccI3TRm9.s:23560  .debug_str:00000000000037ad .LASF5254
C:\Users\SOLDER~1\AppData\Local\Temp\ccI3TRm9.s:33520  .debug_str:000000000002bdeb .LASF5255
C:\Users\SOLDER~1\AppData\Local\Temp\ccI3TRm9.s:33964  .debug_str:000000000002db21 .LASF5256
C:\Users\SOLDER~1\AppData\Local\Temp\ccI3TRm9.s:28634  .debug_str:000000000001812f .LASF5257
C:\Users\SOLDER~1\AppData\Local\Temp\ccI3TRm9.s:23442  .debug_str:0000000000003045 .LASF5258
C:\Users\SOLDER~1\AppData\Local\Temp\ccI3TRm9.s:23096  .debug_str:000000000000198c .LASF5259
C:\Users\SOLDER~1\AppData\Local\Temp\ccI3TRm9.s:33590  .debug_str:000000000002c2a7 .LASF5260
C:\Users\SOLDER~1\AppData\Local\Temp\ccI3TRm9.s:32564  .debug_str:000000000002803a .LASF5261
C:\Users\SOLDER~1\AppData\Local\Temp\ccI3TRm9.s:33918  .debug_str:000000000002d7d2 .LASF5262
C:\Users\SOLDER~1\AppData\Local\Temp\ccI3TRm9.s:31250  .debug_str:00000000000229b6 .LASF5263
C:\Users\SOLDER~1\AppData\Local\Temp\ccI3TRm9.s:26958  .debug_str:000000000001142b .LASF5264
C:\Users\SOLDER~1\AppData\Local\Temp\ccI3TRm9.s:24102  .debug_str:00000000000059a8 .LASF5265
C:\Users\SOLDER~1\AppData\Local\Temp\ccI3TRm9.s:33548  .debug_str:000000000002bfd6 .LASF5266
C:\Users\SOLDER~1\AppData\Local\Temp\ccI3TRm9.s:28076  .debug_str:0000000000015d9e .LASF5267
C:\Users\SOLDER~1\AppData\Local\Temp\ccI3TRm9.s:27764  .debug_str:0000000000014959 .LASF5268
C:\Users\SOLDER~1\AppData\Local\Temp\ccI3TRm9.s:32710  .debug_str:0000000000028a1a .LASF5269
GAS LISTING C:\Users\SOLDER~1\AppData\Local\Temp\ccI3TRm9.s 			page 187


C:\Users\SOLDER~1\AppData\Local\Temp\ccI3TRm9.s:23506  .debug_str:000000000000344f .LASF5270
C:\Users\SOLDER~1\AppData\Local\Temp\ccI3TRm9.s:27686  .debug_str:00000000000143d9 .LASF5271
C:\Users\SOLDER~1\AppData\Local\Temp\ccI3TRm9.s:29216  .debug_str:000000000001a6cc .LASF5272
C:\Users\SOLDER~1\AppData\Local\Temp\ccI3TRm9.s:23412  .debug_str:0000000000002e4c .LASF5273
C:\Users\SOLDER~1\AppData\Local\Temp\ccI3TRm9.s:24690  .debug_str:0000000000008038 .LASF5274
C:\Users\SOLDER~1\AppData\Local\Temp\ccI3TRm9.s:29196  .debug_str:000000000001a597 .LASF5275
C:\Users\SOLDER~1\AppData\Local\Temp\ccI3TRm9.s:28220  .debug_str:00000000000166c2 .LASF5276
C:\Users\SOLDER~1\AppData\Local\Temp\ccI3TRm9.s:31824  .debug_str:0000000000024f6b .LASF5277
C:\Users\SOLDER~1\AppData\Local\Temp\ccI3TRm9.s:27226  .debug_str:000000000001256c .LASF5278
C:\Users\SOLDER~1\AppData\Local\Temp\ccI3TRm9.s:33660  .debug_str:000000000002c6fd .LASF5279
C:\Users\SOLDER~1\AppData\Local\Temp\ccI3TRm9.s:27776  .debug_str:0000000000014a33 .LASF5280
C:\Users\SOLDER~1\AppData\Local\Temp\ccI3TRm9.s:26008  .debug_str:000000000000d714 .LASF5281
C:\Users\SOLDER~1\AppData\Local\Temp\ccI3TRm9.s:33788  .debug_str:000000000002cf88 .LASF5282
C:\Users\SOLDER~1\AppData\Local\Temp\ccI3TRm9.s:32080  .debug_str:0000000000025fd5 .LASF5283
C:\Users\SOLDER~1\AppData\Local\Temp\ccI3TRm9.s:27866  .debug_str:0000000000015018 .LASF5284
C:\Users\SOLDER~1\AppData\Local\Temp\ccI3TRm9.s:23880  .debug_str:0000000000004bc3 .LASF5285
C:\Users\SOLDER~1\AppData\Local\Temp\ccI3TRm9.s:24068  .debug_str:000000000000571d .LASF5286
C:\Users\SOLDER~1\AppData\Local\Temp\ccI3TRm9.s:29172  .debug_str:000000000001a404 .LASF5287
C:\Users\SOLDER~1\AppData\Local\Temp\ccI3TRm9.s:31332  .debug_str:0000000000022f2d .LASF5288
C:\Users\SOLDER~1\AppData\Local\Temp\ccI3TRm9.s:22974  .debug_str:00000000000011ed .LASF5289
C:\Users\SOLDER~1\AppData\Local\Temp\ccI3TRm9.s:26584  .debug_str:000000000000fc51 .LASF5290
C:\Users\SOLDER~1\AppData\Local\Temp\ccI3TRm9.s:31560  .debug_str:0000000000023e7e .LASF5291
C:\Users\SOLDER~1\AppData\Local\Temp\ccI3TRm9.s:22772  .debug_str:0000000000000404 .LASF5292
C:\Users\SOLDER~1\AppData\Local\Temp\ccI3TRm9.s:28046  .debug_str:0000000000015bd2 .LASF5293
C:\Users\SOLDER~1\AppData\Local\Temp\ccI3TRm9.s:34446  .debug_str:000000000002f948 .LASF5294
C:\Users\SOLDER~1\AppData\Local\Temp\ccI3TRm9.s:29028  .debug_str:0000000000019b60 .LASF5295
C:\Users\SOLDER~1\AppData\Local\Temp\ccI3TRm9.s:33182  .debug_str:000000000002a7ef .LASF5296
C:\Users\SOLDER~1\AppData\Local\Temp\ccI3TRm9.s:29010  .debug_str:0000000000019a13 .LASF5297
C:\Users\SOLDER~1\AppData\Local\Temp\ccI3TRm9.s:26734  .debug_str:0000000000010611 .LASF5298
C:\Users\SOLDER~1\AppData\Local\Temp\ccI3TRm9.s:27778  .debug_str:0000000000014a53 .LASF5299
C:\Users\SOLDER~1\AppData\Local\Temp\ccI3TRm9.s:27436  .debug_str:00000000000132ce .LASF5300
C:\Users\SOLDER~1\AppData\Local\Temp\ccI3TRm9.s:30666  .debug_str:0000000000020440 .LASF5301
C:\Users\SOLDER~1\AppData\Local\Temp\ccI3TRm9.s:34220  .debug_str:000000000002eb35 .LASF5302
C:\Users\SOLDER~1\AppData\Local\Temp\ccI3TRm9.s:25612  .debug_str:000000000000bc79 .LASF5303
C:\Users\SOLDER~1\AppData\Local\Temp\ccI3TRm9.s:29364  .debug_str:000000000001b066 .LASF5304
C:\Users\SOLDER~1\AppData\Local\Temp\ccI3TRm9.s:33930  .debug_str:000000000002d8ab .LASF5305
C:\Users\SOLDER~1\AppData\Local\Temp\ccI3TRm9.s:31788  .debug_str:0000000000024d2b .LASF5306
C:\Users\SOLDER~1\AppData\Local\Temp\ccI3TRm9.s:29702  .debug_str:000000000001c51b .LASF5307
C:\Users\SOLDER~1\AppData\Local\Temp\ccI3TRm9.s:29992  .debug_str:000000000001d88b .LASF5308
C:\Users\SOLDER~1\AppData\Local\Temp\ccI3TRm9.s:25570  .debug_str:000000000000b9c7 .LASF5309
C:\Users\SOLDER~1\AppData\Local\Temp\ccI3TRm9.s:28774  .debug_str:0000000000018a5a .LASF5310
C:\Users\SOLDER~1\AppData\Local\Temp\ccI3TRm9.s:32576  .debug_str:00000000000280f3 .LASF5311
C:\Users\SOLDER~1\AppData\Local\Temp\ccI3TRm9.s:26692  .debug_str:000000000001036e .LASF5312
C:\Users\SOLDER~1\AppData\Local\Temp\ccI3TRm9.s:28858  .debug_str:0000000000018fde .LASF5313
C:\Users\SOLDER~1\AppData\Local\Temp\ccI3TRm9.s:27834  .debug_str:0000000000014dfd .LASF5314
C:\Users\SOLDER~1\AppData\Local\Temp\ccI3TRm9.s:33538  .debug_str:000000000002bf24 .LASF5315
C:\Users\SOLDER~1\AppData\Local\Temp\ccI3TRm9.s:34006  .debug_str:000000000002ddd8 .LASF5316
C:\Users\SOLDER~1\AppData\Local\Temp\ccI3TRm9.s:33846  .debug_str:000000000002d328 .LASF5317
C:\Users\SOLDER~1\AppData\Local\Temp\ccI3TRm9.s:24208  .debug_str:0000000000006090 .LASF5318
C:\Users\SOLDER~1\AppData\Local\Temp\ccI3TRm9.s:31892  .debug_str:00000000000253fb .LASF5319
C:\Users\SOLDER~1\AppData\Local\Temp\ccI3TRm9.s:25378  .debug_str:000000000000ad65 .LASF5320
C:\Users\SOLDER~1\AppData\Local\Temp\ccI3TRm9.s:25322  .debug_str:000000000000a9d5 .LASF5321
C:\Users\SOLDER~1\AppData\Local\Temp\ccI3TRm9.s:29036  .debug_str:0000000000019bf1 .LASF5322
C:\Users\SOLDER~1\AppData\Local\Temp\ccI3TRm9.s:32496  .debug_str:0000000000027bec .LASF5323
C:\Users\SOLDER~1\AppData\Local\Temp\ccI3TRm9.s:25824  .debug_str:000000000000cac6 .LASF5324
C:\Users\SOLDER~1\AppData\Local\Temp\ccI3TRm9.s:26954  .debug_str:00000000000113e2 .LASF5325
C:\Users\SOLDER~1\AppData\Local\Temp\ccI3TRm9.s:25348  .debug_str:000000000000ab7c .LASF5326
GAS LISTING C:\Users\SOLDER~1\AppData\Local\Temp\ccI3TRm9.s 			page 188


C:\Users\SOLDER~1\AppData\Local\Temp\ccI3TRm9.s:33880  .debug_str:000000000002d531 .LASF5327
C:\Users\SOLDER~1\AppData\Local\Temp\ccI3TRm9.s:30338  .debug_str:000000000001eef0 .LASF5328
C:\Users\SOLDER~1\AppData\Local\Temp\ccI3TRm9.s:31380  .debug_str:0000000000023290 .LASF5329
C:\Users\SOLDER~1\AppData\Local\Temp\ccI3TRm9.s:29796  .debug_str:000000000001cb72 .LASF5330
C:\Users\SOLDER~1\AppData\Local\Temp\ccI3TRm9.s:24886  .debug_str:0000000000008cd6 .LASF5331
C:\Users\SOLDER~1\AppData\Local\Temp\ccI3TRm9.s:32736  .debug_str:0000000000028bab .LASF5332
C:\Users\SOLDER~1\AppData\Local\Temp\ccI3TRm9.s:34142  .debug_str:000000000002e66a .LASF5333
C:\Users\SOLDER~1\AppData\Local\Temp\ccI3TRm9.s:24074  .debug_str:0000000000005798 .LASF5334
C:\Users\SOLDER~1\AppData\Local\Temp\ccI3TRm9.s:27782  .debug_str:0000000000014aa6 .LASF5335
C:\Users\SOLDER~1\AppData\Local\Temp\ccI3TRm9.s:33550  .debug_str:000000000002bff7 .LASF5336
C:\Users\SOLDER~1\AppData\Local\Temp\ccI3TRm9.s:33950  .debug_str:000000000002da0a .LASF5337
C:\Users\SOLDER~1\AppData\Local\Temp\ccI3TRm9.s:27030  .debug_str:000000000001190d .LASF5338
C:\Users\SOLDER~1\AppData\Local\Temp\ccI3TRm9.s:23858  .debug_str:0000000000004a6e .LASF5339
C:\Users\SOLDER~1\AppData\Local\Temp\ccI3TRm9.s:23484  .debug_str:00000000000032ca .LASF5340
C:\Users\SOLDER~1\AppData\Local\Temp\ccI3TRm9.s:29530  .debug_str:000000000001ba99 .LASF5341
C:\Users\SOLDER~1\AppData\Local\Temp\ccI3TRm9.s:32870  .debug_str:000000000002946c .LASF5342
C:\Users\SOLDER~1\AppData\Local\Temp\ccI3TRm9.s:25318  .debug_str:000000000000a99a .LASF5343
C:\Users\SOLDER~1\AppData\Local\Temp\ccI3TRm9.s:26578  .debug_str:000000000000fbef .LASF5344
C:\Users\SOLDER~1\AppData\Local\Temp\ccI3TRm9.s:29960  .debug_str:000000000001d65c .LASF5345
C:\Users\SOLDER~1\AppData\Local\Temp\ccI3TRm9.s:30832  .debug_str:0000000000020f19 .LASF5346
C:\Users\SOLDER~1\AppData\Local\Temp\ccI3TRm9.s:25184  .debug_str:000000000000a087 .LASF5347
C:\Users\SOLDER~1\AppData\Local\Temp\ccI3TRm9.s:23106  .debug_str:0000000000001a3f .LASF5348
C:\Users\SOLDER~1\AppData\Local\Temp\ccI3TRm9.s:29096  .debug_str:0000000000019f47 .LASF5349
C:\Users\SOLDER~1\AppData\Local\Temp\ccI3TRm9.s:23888  .debug_str:0000000000004c50 .LASF5350
C:\Users\SOLDER~1\AppData\Local\Temp\ccI3TRm9.s:33718  .debug_str:000000000002cb01 .LASF5351
C:\Users\SOLDER~1\AppData\Local\Temp\ccI3TRm9.s:30710  .debug_str:0000000000020712 .LASF5352
C:\Users\SOLDER~1\AppData\Local\Temp\ccI3TRm9.s:31200  .debug_str:00000000000226c9 .LASF5353
C:\Users\SOLDER~1\AppData\Local\Temp\ccI3TRm9.s:24332  .debug_str:0000000000006940 .LASF5354
C:\Users\SOLDER~1\AppData\Local\Temp\ccI3TRm9.s:26768  .debug_str:0000000000010830 .LASF5355
C:\Users\SOLDER~1\AppData\Local\Temp\ccI3TRm9.s:28138  .debug_str:000000000001617a .LASF5356
C:\Users\SOLDER~1\AppData\Local\Temp\ccI3TRm9.s:27106  .debug_str:0000000000011dba .LASF5357
C:\Users\SOLDER~1\AppData\Local\Temp\ccI3TRm9.s:32168  .debug_str:00000000000265e8 .LASF5358
C:\Users\SOLDER~1\AppData\Local\Temp\ccI3TRm9.s:26650  .debug_str:00000000000100d4 .LASF5359
C:\Users\SOLDER~1\AppData\Local\Temp\ccI3TRm9.s:27836  .debug_str:0000000000014e26 .LASF5360
C:\Users\SOLDER~1\AppData\Local\Temp\ccI3TRm9.s:27434  .debug_str:00000000000132a9 .LASF5361
C:\Users\SOLDER~1\AppData\Local\Temp\ccI3TRm9.s:26480  .debug_str:000000000000f555 .LASF5362
C:\Users\SOLDER~1\AppData\Local\Temp\ccI3TRm9.s:23586  .debug_str:0000000000003950 .LASF5363
C:\Users\SOLDER~1\AppData\Local\Temp\ccI3TRm9.s:25300  .debug_str:000000000000a868 .LASF5364
C:\Users\SOLDER~1\AppData\Local\Temp\ccI3TRm9.s:23760  .debug_str:000000000000440c .LASF5365
C:\Users\SOLDER~1\AppData\Local\Temp\ccI3TRm9.s:25238  .debug_str:000000000000a43b .LASF5366
C:\Users\SOLDER~1\AppData\Local\Temp\ccI3TRm9.s:25148  .debug_str:0000000000009e08 .LASF5367
C:\Users\SOLDER~1\AppData\Local\Temp\ccI3TRm9.s:33676  .debug_str:000000000002c815 .LASF5368
C:\Users\SOLDER~1\AppData\Local\Temp\ccI3TRm9.s:28404  .debug_str:00000000000171f3 .LASF5369
C:\Users\SOLDER~1\AppData\Local\Temp\ccI3TRm9.s:29210  .debug_str:000000000001a676 .LASF5370
C:\Users\SOLDER~1\AppData\Local\Temp\ccI3TRm9.s:26498  .debug_str:000000000000f658 .LASF5371
C:\Users\SOLDER~1\AppData\Local\Temp\ccI3TRm9.s:31072  .debug_str:0000000000021e85 .LASF5372
C:\Users\SOLDER~1\AppData\Local\Temp\ccI3TRm9.s:32220  .debug_str:0000000000026966 .LASF5373
C:\Users\SOLDER~1\AppData\Local\Temp\ccI3TRm9.s:28222  .debug_str:00000000000166e0 .LASF5374
C:\Users\SOLDER~1\AppData\Local\Temp\ccI3TRm9.s:24438  .debug_str:0000000000006ff5 .LASF5375
C:\Users\SOLDER~1\AppData\Local\Temp\ccI3TRm9.s:25022  .debug_str:0000000000009617 .LASF5376
C:\Users\SOLDER~1\AppData\Local\Temp\ccI3TRm9.s:25606  .debug_str:000000000000bc07 .LASF5377
C:\Users\SOLDER~1\AppData\Local\Temp\ccI3TRm9.s:26536  .debug_str:000000000000f8e3 .LASF5378
C:\Users\SOLDER~1\AppData\Local\Temp\ccI3TRm9.s:29324  .debug_str:000000000001add9 .LASF5379
C:\Users\SOLDER~1\AppData\Local\Temp\ccI3TRm9.s:29946  .debug_str:000000000001d532 .LASF5380
C:\Users\SOLDER~1\AppData\Local\Temp\ccI3TRm9.s:33802  .debug_str:000000000002d063 .LASF5381
C:\Users\SOLDER~1\AppData\Local\Temp\ccI3TRm9.s:33338  .debug_str:000000000002b1e5 .LASF5382
C:\Users\SOLDER~1\AppData\Local\Temp\ccI3TRm9.s:29862  .debug_str:000000000001cfae .LASF5383
GAS LISTING C:\Users\SOLDER~1\AppData\Local\Temp\ccI3TRm9.s 			page 189


C:\Users\SOLDER~1\AppData\Local\Temp\ccI3TRm9.s:26576  .debug_str:000000000000fbc3 .LASF5384
C:\Users\SOLDER~1\AppData\Local\Temp\ccI3TRm9.s:30072  .debug_str:000000000001dd99 .LASF5385
C:\Users\SOLDER~1\AppData\Local\Temp\ccI3TRm9.s:25920  .debug_str:000000000000d143 .LASF5386
C:\Users\SOLDER~1\AppData\Local\Temp\ccI3TRm9.s:25146  .debug_str:0000000000009de5 .LASF5387
C:\Users\SOLDER~1\AppData\Local\Temp\ccI3TRm9.s:32038  .debug_str:0000000000025cfe .LASF5388
C:\Users\SOLDER~1\AppData\Local\Temp\ccI3TRm9.s:26656  .debug_str:0000000000010137 .LASF5389
C:\Users\SOLDER~1\AppData\Local\Temp\ccI3TRm9.s:34120  .debug_str:000000000002e4ea .LASF5390
C:\Users\SOLDER~1\AppData\Local\Temp\ccI3TRm9.s:30334  .debug_str:000000000001eea5 .LASF5391
C:\Users\SOLDER~1\AppData\Local\Temp\ccI3TRm9.s:22846  .debug_str:00000000000009a5 .LASF5392
C:\Users\SOLDER~1\AppData\Local\Temp\ccI3TRm9.s:27616  .debug_str:0000000000013f22 .LASF5393
C:\Users\SOLDER~1\AppData\Local\Temp\ccI3TRm9.s:25482  .debug_str:000000000000b3eb .LASF5394
C:\Users\SOLDER~1\AppData\Local\Temp\ccI3TRm9.s:29354  .debug_str:000000000001af97 .LASF5395
C:\Users\SOLDER~1\AppData\Local\Temp\ccI3TRm9.s:25582  .debug_str:000000000000ba7c .LASF5396
C:\Users\SOLDER~1\AppData\Local\Temp\ccI3TRm9.s:28440  .debug_str:0000000000017451 .LASF5397
C:\Users\SOLDER~1\AppData\Local\Temp\ccI3TRm9.s:33240  .debug_str:000000000002abf6 .LASF5398
C:\Users\SOLDER~1\AppData\Local\Temp\ccI3TRm9.s:26308  .debug_str:000000000000ea65 .LASF5399
C:\Users\SOLDER~1\AppData\Local\Temp\ccI3TRm9.s:29582  .debug_str:000000000001bd48 .LASF5400
C:\Users\SOLDER~1\AppData\Local\Temp\ccI3TRm9.s:26056  .debug_str:000000000000da39 .LASF5401
C:\Users\SOLDER~1\AppData\Local\Temp\ccI3TRm9.s:32354  .debug_str:0000000000027290 .LASF5402
C:\Users\SOLDER~1\AppData\Local\Temp\ccI3TRm9.s:31674  .debug_str:000000000002459c .LASF5403
C:\Users\SOLDER~1\AppData\Local\Temp\ccI3TRm9.s:33648  .debug_str:000000000002c644 .LASF5404
C:\Users\SOLDER~1\AppData\Local\Temp\ccI3TRm9.s:25944  .debug_str:000000000000d2cc .LASF5405
C:\Users\SOLDER~1\AppData\Local\Temp\ccI3TRm9.s:31616  .debug_str:00000000000241be .LASF5406
C:\Users\SOLDER~1\AppData\Local\Temp\ccI3TRm9.s:28786  .debug_str:0000000000018b2d .LASF5407
C:\Users\SOLDER~1\AppData\Local\Temp\ccI3TRm9.s:34400  .debug_str:000000000002f66f .LASF5408
C:\Users\SOLDER~1\AppData\Local\Temp\ccI3TRm9.s:29380  .debug_str:000000000001b185 .LASF5409
C:\Users\SOLDER~1\AppData\Local\Temp\ccI3TRm9.s:34280  .debug_str:000000000002eee4 .LASF5410
C:\Users\SOLDER~1\AppData\Local\Temp\ccI3TRm9.s:24010  .debug_str:00000000000053b8 .LASF5411
C:\Users\SOLDER~1\AppData\Local\Temp\ccI3TRm9.s:25338  .debug_str:000000000000aacc .LASF5412
C:\Users\SOLDER~1\AppData\Local\Temp\ccI3TRm9.s:27748  .debug_str:0000000000014834 .LASF5413
C:\Users\SOLDER~1\AppData\Local\Temp\ccI3TRm9.s:25984  .debug_str:000000000000d570 .LASF5414
C:\Users\SOLDER~1\AppData\Local\Temp\ccI3TRm9.s:25882  .debug_str:000000000000cec4 .LASF5415
C:\Users\SOLDER~1\AppData\Local\Temp\ccI3TRm9.s:30750  .debug_str:00000000000209b0 .LASF5416
C:\Users\SOLDER~1\AppData\Local\Temp\ccI3TRm9.s:27830  .debug_str:0000000000014db5 .LASF5417
C:\Users\SOLDER~1\AppData\Local\Temp\ccI3TRm9.s:27058  .debug_str:0000000000011a91 .LASF5418
C:\Users\SOLDER~1\AppData\Local\Temp\ccI3TRm9.s:30994  .debug_str:00000000000219a0 .LASF5419
C:\Users\SOLDER~1\AppData\Local\Temp\ccI3TRm9.s:30914  .debug_str:000000000002143b .LASF5420
C:\Users\SOLDER~1\AppData\Local\Temp\ccI3TRm9.s:24450  .debug_str:00000000000070e7 .LASF5421
C:\Users\SOLDER~1\AppData\Local\Temp\ccI3TRm9.s:26724  .debug_str:000000000001054a .LASF5422
C:\Users\SOLDER~1\AppData\Local\Temp\ccI3TRm9.s:32670  .debug_str:0000000000028750 .LASF5423
C:\Users\SOLDER~1\AppData\Local\Temp\ccI3TRm9.s:33238  .debug_str:000000000002abd4 .LASF5424
C:\Users\SOLDER~1\AppData\Local\Temp\ccI3TRm9.s:29658  .debug_str:000000000001c265 .LASF5425
C:\Users\SOLDER~1\AppData\Local\Temp\ccI3TRm9.s:34208  .debug_str:000000000002ea82 .LASF5426
C:\Users\SOLDER~1\AppData\Local\Temp\ccI3TRm9.s:33684  .debug_str:000000000002c8a2 .LASF5427
C:\Users\SOLDER~1\AppData\Local\Temp\ccI3TRm9.s:31484  .debug_str:0000000000023930 .LASF5428
C:\Users\SOLDER~1\AppData\Local\Temp\ccI3TRm9.s:23064  .debug_str:0000000000001788 .LASF5429
C:\Users\SOLDER~1\AppData\Local\Temp\ccI3TRm9.s:27514  .debug_str:0000000000013806 .LASF5430
C:\Users\SOLDER~1\AppData\Local\Temp\ccI3TRm9.s:27222  .debug_str:0000000000012523 .LASF5431
C:\Users\SOLDER~1\AppData\Local\Temp\ccI3TRm9.s:26742  .debug_str:0000000000010688 .LASF5432
C:\Users\SOLDER~1\AppData\Local\Temp\ccI3TRm9.s:23192  .debug_str:0000000000001fcb .LASF5433
C:\Users\SOLDER~1\AppData\Local\Temp\ccI3TRm9.s:23130  .debug_str:0000000000001bd6 .LASF5434
C:\Users\SOLDER~1\AppData\Local\Temp\ccI3TRm9.s:30622  .debug_str:0000000000020193 .LASF5435
C:\Users\SOLDER~1\AppData\Local\Temp\ccI3TRm9.s:33956  .debug_str:000000000002da8f .LASF5436
C:\Users\SOLDER~1\AppData\Local\Temp\ccI3TRm9.s:30398  .debug_str:000000000001f2d8 .LASF5437
C:\Users\SOLDER~1\AppData\Local\Temp\ccI3TRm9.s:31756  .debug_str:0000000000024afb .LASF5438
C:\Users\SOLDER~1\AppData\Local\Temp\ccI3TRm9.s:33858  .debug_str:000000000002d3e6 .LASF5439
C:\Users\SOLDER~1\AppData\Local\Temp\ccI3TRm9.s:29706  .debug_str:000000000001c577 .LASF5440
GAS LISTING C:\Users\SOLDER~1\AppData\Local\Temp\ccI3TRm9.s 			page 190


C:\Users\SOLDER~1\AppData\Local\Temp\ccI3TRm9.s:27376  .debug_str:0000000000012efe .LASF5441
C:\Users\SOLDER~1\AppData\Local\Temp\ccI3TRm9.s:34372  .debug_str:000000000002f4ce .LASF5442
C:\Users\SOLDER~1\AppData\Local\Temp\ccI3TRm9.s:26060  .debug_str:000000000000da7e .LASF5443
C:\Users\SOLDER~1\AppData\Local\Temp\ccI3TRm9.s:31282  .debug_str:0000000000022bd5 .LASF5444
C:\Users\SOLDER~1\AppData\Local\Temp\ccI3TRm9.s:25992  .debug_str:000000000000d5e8 .LASF5445
C:\Users\SOLDER~1\AppData\Local\Temp\ccI3TRm9.s:32304  .debug_str:0000000000026f16 .LASF5446
C:\Users\SOLDER~1\AppData\Local\Temp\ccI3TRm9.s:26004  .debug_str:000000000000d6c7 .LASF5447
C:\Users\SOLDER~1\AppData\Local\Temp\ccI3TRm9.s:33154  .debug_str:000000000002a649 .LASF5448
C:\Users\SOLDER~1\AppData\Local\Temp\ccI3TRm9.s:33536  .debug_str:000000000002bef3 .LASF5449
C:\Users\SOLDER~1\AppData\Local\Temp\ccI3TRm9.s:31308  .debug_str:0000000000022d8e .LASF5450
C:\Users\SOLDER~1\AppData\Local\Temp\ccI3TRm9.s:32566  .debug_str:000000000002805b .LASF5451
C:\Users\SOLDER~1\AppData\Local\Temp\ccI3TRm9.s:27938  .debug_str:0000000000015495 .LASF5452
C:\Users\SOLDER~1\AppData\Local\Temp\ccI3TRm9.s:34122  .debug_str:000000000002e50e .LASF5453
C:\Users\SOLDER~1\AppData\Local\Temp\ccI3TRm9.s:28768  .debug_str:00000000000189e2 .LASF5454
C:\Users\SOLDER~1\AppData\Local\Temp\ccI3TRm9.s:27812  .debug_str:0000000000014c5e .LASF5455
C:\Users\SOLDER~1\AppData\Local\Temp\ccI3TRm9.s:27610  .debug_str:0000000000013ea2 .LASF5456
C:\Users\SOLDER~1\AppData\Local\Temp\ccI3TRm9.s:25204  .debug_str:000000000000a1cd .LASF5457
C:\Users\SOLDER~1\AppData\Local\Temp\ccI3TRm9.s:29978  .debug_str:000000000001d793 .LASF5458
C:\Users\SOLDER~1\AppData\Local\Temp\ccI3TRm9.s:29004  .debug_str:000000000001999f .LASF5459
C:\Users\SOLDER~1\AppData\Local\Temp\ccI3TRm9.s:32492  .debug_str:0000000000027b94 .LASF5460
C:\Users\SOLDER~1\AppData\Local\Temp\ccI3TRm9.s:23416  .debug_str:0000000000002e82 .LASF5461
C:\Users\SOLDER~1\AppData\Local\Temp\ccI3TRm9.s:23874  .debug_str:0000000000004b56 .LASF5462
C:\Users\SOLDER~1\AppData\Local\Temp\ccI3TRm9.s:25450  .debug_str:000000000000b20c .LASF5463
C:\Users\SOLDER~1\AppData\Local\Temp\ccI3TRm9.s:28982  .debug_str:0000000000019811 .LASF5464
C:\Users\SOLDER~1\AppData\Local\Temp\ccI3TRm9.s:26016  .debug_str:000000000000d7a0 .LASF5465
C:\Users\SOLDER~1\AppData\Local\Temp\ccI3TRm9.s:31566  .debug_str:0000000000023ecc .LASF5466
C:\Users\SOLDER~1\AppData\Local\Temp\ccI3TRm9.s:32740  .debug_str:0000000000028bea .LASF5467
C:\Users\SOLDER~1\AppData\Local\Temp\ccI3TRm9.s:25480  .debug_str:000000000000b3cc .LASF5468
C:\Users\SOLDER~1\AppData\Local\Temp\ccI3TRm9.s:30104  .debug_str:000000000001df89 .LASF5469
C:\Users\SOLDER~1\AppData\Local\Temp\ccI3TRm9.s:32676  .debug_str:00000000000287a6 .LASF5470
C:\Users\SOLDER~1\AppData\Local\Temp\ccI3TRm9.s:29828  .debug_str:000000000001cd77 .LASF5471
C:\Users\SOLDER~1\AppData\Local\Temp\ccI3TRm9.s:34330  .debug_str:000000000002f21f .LASF5472
C:\Users\SOLDER~1\AppData\Local\Temp\ccI3TRm9.s:33386  .debug_str:000000000002b53f .LASF5473
C:\Users\SOLDER~1\AppData\Local\Temp\ccI3TRm9.s:33662  .debug_str:000000000002c71c .LASF5474
C:\Users\SOLDER~1\AppData\Local\Temp\ccI3TRm9.s:29034  .debug_str:0000000000019bd2 .LASF5475
C:\Users\SOLDER~1\AppData\Local\Temp\ccI3TRm9.s:24398  .debug_str:0000000000006d3c .LASF5476
C:\Users\SOLDER~1\AppData\Local\Temp\ccI3TRm9.s:22938  .debug_str:0000000000000f97 .LASF5477
C:\Users\SOLDER~1\AppData\Local\Temp\ccI3TRm9.s:31362  .debug_str:0000000000023169 .LASF5478
C:\Users\SOLDER~1\AppData\Local\Temp\ccI3TRm9.s:22842  .debug_str:000000000000095f .LASF5479
C:\Users\SOLDER~1\AppData\Local\Temp\ccI3TRm9.s:27638  .debug_str:0000000000014096 .LASF5480
C:\Users\SOLDER~1\AppData\Local\Temp\ccI3TRm9.s:27000  .debug_str:00000000000116c5 .LASF5481
C:\Users\SOLDER~1\AppData\Local\Temp\ccI3TRm9.s:31826  .debug_str:0000000000024f8d .LASF5482
C:\Users\SOLDER~1\AppData\Local\Temp\ccI3TRm9.s:22958  .debug_str:00000000000010da .LASF5483
C:\Users\SOLDER~1\AppData\Local\Temp\ccI3TRm9.s:28468  .debug_str:0000000000017665 .LASF5484
C:\Users\SOLDER~1\AppData\Local\Temp\ccI3TRm9.s:29670  .debug_str:000000000001c334 .LASF5485
C:\Users\SOLDER~1\AppData\Local\Temp\ccI3TRm9.s:24556  .debug_str:000000000000778e .LASF5486
C:\Users\SOLDER~1\AppData\Local\Temp\ccI3TRm9.s:25098  .debug_str:0000000000009b02 .LASF5487
C:\Users\SOLDER~1\AppData\Local\Temp\ccI3TRm9.s:27352  .debug_str:0000000000012d53 .LASF5488
C:\Users\SOLDER~1\AppData\Local\Temp\ccI3TRm9.s:29174  .debug_str:000000000001a427 .LASF5489
C:\Users\SOLDER~1\AppData\Local\Temp\ccI3TRm9.s:29030  .debug_str:0000000000019b80 .LASF5490
C:\Users\SOLDER~1\AppData\Local\Temp\ccI3TRm9.s:34050  .debug_str:000000000002e074 .LASF5491
C:\Users\SOLDER~1\AppData\Local\Temp\ccI3TRm9.s:30516  .debug_str:000000000001fad3 .LASF5492
C:\Users\SOLDER~1\AppData\Local\Temp\ccI3TRm9.s:27242  .debug_str:0000000000012652 .LASF5493
C:\Users\SOLDER~1\AppData\Local\Temp\ccI3TRm9.s:33430  .debug_str:000000000002b7e2 .LASF5494
C:\Users\SOLDER~1\AppData\Local\Temp\ccI3TRm9.s:22716  .debug_str:000000000000006c .LASF5495
C:\Users\SOLDER~1\AppData\Local\Temp\ccI3TRm9.s:30976  .debug_str:000000000002187d .LASF5496
C:\Users\SOLDER~1\AppData\Local\Temp\ccI3TRm9.s:26634  .debug_str:000000000000ffd0 .LASF5497
GAS LISTING C:\Users\SOLDER~1\AppData\Local\Temp\ccI3TRm9.s 			page 191


C:\Users\SOLDER~1\AppData\Local\Temp\ccI3TRm9.s:28270  .debug_str:00000000000169d7 .LASF5498
C:\Users\SOLDER~1\AppData\Local\Temp\ccI3TRm9.s:28882  .debug_str:0000000000019173 .LASF5499
C:\Users\SOLDER~1\AppData\Local\Temp\ccI3TRm9.s:24172  .debug_str:0000000000005e3f .LASF5500
C:\Users\SOLDER~1\AppData\Local\Temp\ccI3TRm9.s:24586  .debug_str:0000000000007939 .LASF5501
C:\Users\SOLDER~1\AppData\Local\Temp\ccI3TRm9.s:25250  .debug_str:000000000000a4ed .LASF5502
C:\Users\SOLDER~1\AppData\Local\Temp\ccI3TRm9.s:31436  .debug_str:0000000000023612 .LASF5503
C:\Users\SOLDER~1\AppData\Local\Temp\ccI3TRm9.s:30094  .debug_str:000000000001ded9 .LASF5504
C:\Users\SOLDER~1\AppData\Local\Temp\ccI3TRm9.s:22808  .debug_str:00000000000006e5 .LASF5505
C:\Users\SOLDER~1\AppData\Local\Temp\ccI3TRm9.s:26860  .debug_str:0000000000010e0d .LASF5506
C:\Users\SOLDER~1\AppData\Local\Temp\ccI3TRm9.s:33980  .debug_str:000000000002dc22 .LASF5507
C:\Users\SOLDER~1\AppData\Local\Temp\ccI3TRm9.s:23516  .debug_str:00000000000034e9 .LASF5508
C:\Users\SOLDER~1\AppData\Local\Temp\ccI3TRm9.s:31652  .debug_str:000000000002441e .LASF5509
C:\Users\SOLDER~1\AppData\Local\Temp\ccI3TRm9.s:32624  .debug_str:00000000000283f3 .LASF5510
C:\Users\SOLDER~1\AppData\Local\Temp\ccI3TRm9.s:31156  .debug_str:00000000000223f3 .LASF5511
C:\Users\SOLDER~1\AppData\Local\Temp\ccI3TRm9.s:31108  .debug_str:00000000000220ec .LASF5512
C:\Users\SOLDER~1\AppData\Local\Temp\ccI3TRm9.s:30706  .debug_str:00000000000206d4 .LASF5513
C:\Users\SOLDER~1\AppData\Local\Temp\ccI3TRm9.s:23140  .debug_str:0000000000001c85 .LASF5514
C:\Users\SOLDER~1\AppData\Local\Temp\ccI3TRm9.s:32902  .debug_str:000000000002965a .LASF5515
C:\Users\SOLDER~1\AppData\Local\Temp\ccI3TRm9.s:29954  .debug_str:000000000001d5df .LASF5516
C:\Users\SOLDER~1\AppData\Local\Temp\ccI3TRm9.s:33926  .debug_str:000000000002d85c .LASF5517
C:\Users\SOLDER~1\AppData\Local\Temp\ccI3TRm9.s:24404  .debug_str:0000000000006d89 .LASF5518
C:\Users\SOLDER~1\AppData\Local\Temp\ccI3TRm9.s:25730  .debug_str:000000000000c43a .LASF5519
C:\Users\SOLDER~1\AppData\Local\Temp\ccI3TRm9.s:33150  .debug_str:000000000002a5fc .LASF5520
C:\Users\SOLDER~1\AppData\Local\Temp\ccI3TRm9.s:28886  .debug_str:00000000000191ae .LASF5521
C:\Users\SOLDER~1\AppData\Local\Temp\ccI3TRm9.s:31770  .debug_str:0000000000024bd9 .LASF5522
C:\Users\SOLDER~1\AppData\Local\Temp\ccI3TRm9.s:30148  .debug_str:000000000001e267 .LASF5523
C:\Users\SOLDER~1\AppData\Local\Temp\ccI3TRm9.s:28414  .debug_str:0000000000017292 .LASF5524
C:\Users\SOLDER~1\AppData\Local\Temp\ccI3TRm9.s:24056  .debug_str:000000000000566c .LASF5525
C:\Users\SOLDER~1\AppData\Local\Temp\ccI3TRm9.s:28278  .debug_str:0000000000016a52 .LASF5526
C:\Users\SOLDER~1\AppData\Local\Temp\ccI3TRm9.s:32298  .debug_str:0000000000026ead .LASF5527
C:\Users\SOLDER~1\AppData\Local\Temp\ccI3TRm9.s:27028  .debug_str:00000000000118ed .LASF5528
C:\Users\SOLDER~1\AppData\Local\Temp\ccI3TRm9.s:29430  .debug_str:000000000001b47f .LASF5529
C:\Users\SOLDER~1\AppData\Local\Temp\ccI3TRm9.s:22800  .debug_str:000000000000066a .LASF5530
C:\Users\SOLDER~1\AppData\Local\Temp\ccI3TRm9.s:25370  .debug_str:000000000000ace8 .LASF5531
C:\Users\SOLDER~1\AppData\Local\Temp\ccI3TRm9.s:30210  .debug_str:000000000001e681 .LASF5532
C:\Users\SOLDER~1\AppData\Local\Temp\ccI3TRm9.s:27326  .debug_str:0000000000012b88 .LASF5533
C:\Users\SOLDER~1\AppData\Local\Temp\ccI3TRm9.s:27590  .debug_str:0000000000013d25 .LASF5534
C:\Users\SOLDER~1\AppData\Local\Temp\ccI3TRm9.s:25768  .debug_str:000000000000c6e3 .LASF5535
C:\Users\SOLDER~1\AppData\Local\Temp\ccI3TRm9.s:30916  .debug_str:0000000000021459 .LASF5536
C:\Users\SOLDER~1\AppData\Local\Temp\ccI3TRm9.s:28502  .debug_str:00000000000178af .LASF5537
C:\Users\SOLDER~1\AppData\Local\Temp\ccI3TRm9.s:32818  .debug_str:000000000002911a .LASF5538
C:\Users\SOLDER~1\AppData\Local\Temp\ccI3TRm9.s:28508  .debug_str:000000000001791d .LASF5539
C:\Users\SOLDER~1\AppData\Local\Temp\ccI3TRm9.s:34152  .debug_str:000000000002e717 .LASF5540
C:\Users\SOLDER~1\AppData\Local\Temp\ccI3TRm9.s:28286  .debug_str:0000000000016abc .LASF5541
C:\Users\SOLDER~1\AppData\Local\Temp\ccI3TRm9.s:29894  .debug_str:000000000001d1da .LASF5542
C:\Users\SOLDER~1\AppData\Local\Temp\ccI3TRm9.s:31510  .debug_str:0000000000023b29 .LASF5543
C:\Users\SOLDER~1\AppData\Local\Temp\ccI3TRm9.s:26898  .debug_str:0000000000011068 .LASF5544
C:\Users\SOLDER~1\AppData\Local\Temp\ccI3TRm9.s:28780  .debug_str:0000000000018ab2 .LASF5545
C:\Users\SOLDER~1\AppData\Local\Temp\ccI3TRm9.s:24812  .debug_str:00000000000087f8 .LASF5546
C:\Users\SOLDER~1\AppData\Local\Temp\ccI3TRm9.s:27570  .debug_str:0000000000013b9f .LASF5547
C:\Users\SOLDER~1\AppData\Local\Temp\ccI3TRm9.s:31076  .debug_str:0000000000021ebe .LASF5548
C:\Users\SOLDER~1\AppData\Local\Temp\ccI3TRm9.s:33448  .debug_str:000000000002b93f .LASF5549
C:\Users\SOLDER~1\AppData\Local\Temp\ccI3TRm9.s:30530  .debug_str:000000000001fbb5 .LASF5550
C:\Users\SOLDER~1\AppData\Local\Temp\ccI3TRm9.s:30940  .debug_str:00000000000215f0 .LASF5551
C:\Users\SOLDER~1\AppData\Local\Temp\ccI3TRm9.s:27396  .debug_str:0000000000013038 .LASF5552
C:\Users\SOLDER~1\AppData\Local\Temp\ccI3TRm9.s:31784  .debug_str:0000000000024cd5 .LASF5553
C:\Users\SOLDER~1\AppData\Local\Temp\ccI3TRm9.s:27890  .debug_str:00000000000151be .LASF5554
GAS LISTING C:\Users\SOLDER~1\AppData\Local\Temp\ccI3TRm9.s 			page 192


C:\Users\SOLDER~1\AppData\Local\Temp\ccI3TRm9.s:31324  .debug_str:0000000000022ea2 .LASF5555
C:\Users\SOLDER~1\AppData\Local\Temp\ccI3TRm9.s:34374  .debug_str:000000000002f4f2 .LASF5556
C:\Users\SOLDER~1\AppData\Local\Temp\ccI3TRm9.s:33714  .debug_str:000000000002cac8 .LASF5557
C:\Users\SOLDER~1\AppData\Local\Temp\ccI3TRm9.s:32998  .debug_str:0000000000029c12 .LASF5558
C:\Users\SOLDER~1\AppData\Local\Temp\ccI3TRm9.s:24416  .debug_str:0000000000006e62 .LASF5559
C:\Users\SOLDER~1\AppData\Local\Temp\ccI3TRm9.s:27888  .debug_str:0000000000015198 .LASF5560
C:\Users\SOLDER~1\AppData\Local\Temp\ccI3TRm9.s:24412  .debug_str:0000000000006e25 .LASF5561
C:\Users\SOLDER~1\AppData\Local\Temp\ccI3TRm9.s:31458  .debug_str:000000000002378a .LASF5562
C:\Users\SOLDER~1\AppData\Local\Temp\ccI3TRm9.s:33530  .debug_str:000000000002be94 .LASF5563
C:\Users\SOLDER~1\AppData\Local\Temp\ccI3TRm9.s:23502  .debug_str:0000000000003408 .LASF5564
C:\Users\SOLDER~1\AppData\Local\Temp\ccI3TRm9.s:33514  .debug_str:000000000002bd86 .LASF5565
C:\Users\SOLDER~1\AppData\Local\Temp\ccI3TRm9.s:30278  .debug_str:000000000001eac1 .LASF5566
C:\Users\SOLDER~1\AppData\Local\Temp\ccI3TRm9.s:26744  .debug_str:00000000000106ad .LASF5567
C:\Users\SOLDER~1\AppData\Local\Temp\ccI3TRm9.s:24376  .debug_str:0000000000006be8 .LASF5568
C:\Users\SOLDER~1\AppData\Local\Temp\ccI3TRm9.s:24078  .debug_str:00000000000057d5 .LASF5569
C:\Users\SOLDER~1\AppData\Local\Temp\ccI3TRm9.s:23288  .debug_str:0000000000002645 .LASF5570
C:\Users\SOLDER~1\AppData\Local\Temp\ccI3TRm9.s:23504  .debug_str:0000000000003429 .LASF5571
C:\Users\SOLDER~1\AppData\Local\Temp\ccI3TRm9.s:26890  .debug_str:0000000000010fe7 .LASF5572
C:\Users\SOLDER~1\AppData\Local\Temp\ccI3TRm9.s:24998  .debug_str:0000000000009460 .LASF5573
C:\Users\SOLDER~1\AppData\Local\Temp\ccI3TRm9.s:24082  .debug_str:0000000000005836 .LASF5574
C:\Users\SOLDER~1\AppData\Local\Temp\ccI3TRm9.s:32150  .debug_str:00000000000264bb .LASF5575
C:\Users\SOLDER~1\AppData\Local\Temp\ccI3TRm9.s:25904  .debug_str:000000000000d02f .LASF5576
C:\Users\SOLDER~1\AppData\Local\Temp\ccI3TRm9.s:24460  .debug_str:0000000000007192 .LASF5577
C:\Users\SOLDER~1\AppData\Local\Temp\ccI3TRm9.s:34454  .debug_str:000000000002f9af .LASF5578
C:\Users\SOLDER~1\AppData\Local\Temp\ccI3TRm9.s:23646  .debug_str:0000000000003d05 .LASF5579
C:\Users\SOLDER~1\AppData\Local\Temp\ccI3TRm9.s:24472  .debug_str:0000000000007250 .LASF5580
C:\Users\SOLDER~1\AppData\Local\Temp\ccI3TRm9.s:28190  .debug_str:00000000000164e5 .LASF5581
C:\Users\SOLDER~1\AppData\Local\Temp\ccI3TRm9.s:34270  .debug_str:000000000002ee33 .LASF5582
C:\Users\SOLDER~1\AppData\Local\Temp\ccI3TRm9.s:33870  .debug_str:000000000002d49f .LASF5583
C:\Users\SOLDER~1\AppData\Local\Temp\ccI3TRm9.s:28018  .debug_str:0000000000015a0b .LASF5584
C:\Users\SOLDER~1\AppData\Local\Temp\ccI3TRm9.s:34052  .debug_str:000000000002e09b .LASF5585
C:\Users\SOLDER~1\AppData\Local\Temp\ccI3TRm9.s:30464  .debug_str:000000000001f744 .LASF5586
C:\Users\SOLDER~1\AppData\Local\Temp\ccI3TRm9.s:23610  .debug_str:0000000000003ade .LASF5587
C:\Users\SOLDER~1\AppData\Local\Temp\ccI3TRm9.s:31634  .debug_str:00000000000242dd .LASF5588
C:\Users\SOLDER~1\AppData\Local\Temp\ccI3TRm9.s:31140  .debug_str:000000000002230f .LASF5589
C:\Users\SOLDER~1\AppData\Local\Temp\ccI3TRm9.s:23520  .debug_str:0000000000003523 .LASF5590
C:\Users\SOLDER~1\AppData\Local\Temp\ccI3TRm9.s:29472  .debug_str:000000000001b6e0 .LASF5591
C:\Users\SOLDER~1\AppData\Local\Temp\ccI3TRm9.s:27944  .debug_str:0000000000015510 .LASF5592
C:\Users\SOLDER~1\AppData\Local\Temp\ccI3TRm9.s:29934  .debug_str:000000000001d45f .LASF5593
C:\Users\SOLDER~1\AppData\Local\Temp\ccI3TRm9.s:23778  .debug_str:0000000000004532 .LASF5594
C:\Users\SOLDER~1\AppData\Local\Temp\ccI3TRm9.s:31996  .debug_str:0000000000025a80 .LASF5595
C:\Users\SOLDER~1\AppData\Local\Temp\ccI3TRm9.s:33368  .debug_str:000000000002b3f3 .LASF5596
C:\Users\SOLDER~1\AppData\Local\Temp\ccI3TRm9.s:29362  .debug_str:000000000001b03b .LASF5597
C:\Users\SOLDER~1\AppData\Local\Temp\ccI3TRm9.s:29712  .debug_str:000000000001c5dd .LASF5598
C:\Users\SOLDER~1\AppData\Local\Temp\ccI3TRm9.s:27876  .debug_str:00000000000150d1 .LASF5599
C:\Users\SOLDER~1\AppData\Local\Temp\ccI3TRm9.s:27298  .debug_str:00000000000129f2 .LASF5600
C:\Users\SOLDER~1\AppData\Local\Temp\ccI3TRm9.s:29368  .debug_str:000000000001b0b5 .LASF5601
C:\Users\SOLDER~1\AppData\Local\Temp\ccI3TRm9.s:34272  .debug_str:000000000002ee56 .LASF5602
C:\Users\SOLDER~1\AppData\Local\Temp\ccI3TRm9.s:34174  .debug_str:000000000002e88d .LASF5603
C:\Users\SOLDER~1\AppData\Local\Temp\ccI3TRm9.s:26710  .debug_str:0000000000010481 .LASF5604
C:\Users\SOLDER~1\AppData\Local\Temp\ccI3TRm9.s:33518  .debug_str:000000000002bdc9 .LASF5605
C:\Users\SOLDER~1\AppData\Local\Temp\ccI3TRm9.s:30152  .debug_str:000000000001e2b8 .LASF5606
C:\Users\SOLDER~1\AppData\Local\Temp\ccI3TRm9.s:27120  .debug_str:0000000000011e9a .LASF5607
C:\Users\SOLDER~1\AppData\Local\Temp\ccI3TRm9.s:24636  .debug_str:0000000000007caf .LASF5608
C:\Users\SOLDER~1\AppData\Local\Temp\ccI3TRm9.s:22962  .debug_str:000000000000112c .LASF5609
C:\Users\SOLDER~1\AppData\Local\Temp\ccI3TRm9.s:30242  .debug_str:000000000001e882 .LASF5610
C:\Users\SOLDER~1\AppData\Local\Temp\ccI3TRm9.s:27272  .debug_str:0000000000012814 .LASF5611
GAS LISTING C:\Users\SOLDER~1\AppData\Local\Temp\ccI3TRm9.s 			page 193


C:\Users\SOLDER~1\AppData\Local\Temp\ccI3TRm9.s:24908  .debug_str:0000000000008e20 .LASF5612
C:\Users\SOLDER~1\AppData\Local\Temp\ccI3TRm9.s:24116  .debug_str:0000000000005aa4 .LASF5613
C:\Users\SOLDER~1\AppData\Local\Temp\ccI3TRm9.s:33744  .debug_str:000000000002cca8 .LASF5614
C:\Users\SOLDER~1\AppData\Local\Temp\ccI3TRm9.s:25694  .debug_str:000000000000c1c8 .LASF5615
C:\Users\SOLDER~1\AppData\Local\Temp\ccI3TRm9.s:25892  .debug_str:000000000000cf6a .LASF5616
C:\Users\SOLDER~1\AppData\Local\Temp\ccI3TRm9.s:30060  .debug_str:000000000001dcd3 .LASF5617
C:\Users\SOLDER~1\AppData\Local\Temp\ccI3TRm9.s:29446  .debug_str:000000000001b527 .LASF5618
C:\Users\SOLDER~1\AppData\Local\Temp\ccI3TRm9.s:28920  .debug_str:000000000001940a .LASF5619
C:\Users\SOLDER~1\AppData\Local\Temp\ccI3TRm9.s:24578  .debug_str:00000000000078cf .LASF5620
C:\Users\SOLDER~1\AppData\Local\Temp\ccI3TRm9.s:29294  .debug_str:000000000001abd2 .LASF5621
C:\Users\SOLDER~1\AppData\Local\Temp\ccI3TRm9.s:31104  .debug_str:00000000000220a7 .LASF5622
C:\Users\SOLDER~1\AppData\Local\Temp\ccI3TRm9.s:24336  .debug_str:0000000000006977 .LASF5623
C:\Users\SOLDER~1\AppData\Local\Temp\ccI3TRm9.s:31940  .debug_str:00000000000256ed .LASF5624
C:\Users\SOLDER~1\AppData\Local\Temp\ccI3TRm9.s:27992  .debug_str:0000000000015847 .LASF5625
C:\Users\SOLDER~1\AppData\Local\Temp\ccI3TRm9.s:26568  .debug_str:000000000000fb07 .LASF5626
C:\Users\SOLDER~1\AppData\Local\Temp\ccI3TRm9.s:28332  .debug_str:0000000000016da9 .LASF5627
C:\Users\SOLDER~1\AppData\Local\Temp\ccI3TRm9.s:25902  .debug_str:000000000000d004 .LASF5628
C:\Users\SOLDER~1\AppData\Local\Temp\ccI3TRm9.s:27706  .debug_str:0000000000014543 .LASF5629
C:\Users\SOLDER~1\AppData\Local\Temp\ccI3TRm9.s:26560  .debug_str:000000000000fa65 .LASF5630
C:\Users\SOLDER~1\AppData\Local\Temp\ccI3TRm9.s:33186  .debug_str:000000000002a825 .LASF5631
C:\Users\SOLDER~1\AppData\Local\Temp\ccI3TRm9.s:32646  .debug_str:00000000000285a0 .LASF5632
C:\Users\SOLDER~1\AppData\Local\Temp\ccI3TRm9.s:33582  .debug_str:000000000002c1fe .LASF5633
C:\Users\SOLDER~1\AppData\Local\Temp\ccI3TRm9.s:25262  .debug_str:000000000000a5b2 .LASF5634
C:\Users\SOLDER~1\AppData\Local\Temp\ccI3TRm9.s:27472  .debug_str:0000000000013505 .LASF5635
C:\Users\SOLDER~1\AppData\Local\Temp\ccI3TRm9.s:27190  .debug_str:0000000000012306 .LASF5636
C:\Users\SOLDER~1\AppData\Local\Temp\ccI3TRm9.s:24434  .debug_str:0000000000006fa1 .LASF5637
C:\Users\SOLDER~1\AppData\Local\Temp\ccI3TRm9.s:30532  .debug_str:000000000001fbef .LASF5638
C:\Users\SOLDER~1\AppData\Local\Temp\ccI3TRm9.s:24620  .debug_str:0000000000007b7e .LASF5639
C:\Users\SOLDER~1\AppData\Local\Temp\ccI3TRm9.s:32288  .debug_str:0000000000026dfd .LASF5640
C:\Users\SOLDER~1\AppData\Local\Temp\ccI3TRm9.s:24856  .debug_str:0000000000008acb .LASF5641
C:\Users\SOLDER~1\AppData\Local\Temp\ccI3TRm9.s:32346  .debug_str:00000000000271ea .LASF5642
C:\Users\SOLDER~1\AppData\Local\Temp\ccI3TRm9.s:24442  .debug_str:000000000000704d .LASF5643
C:\Users\SOLDER~1\AppData\Local\Temp\ccI3TRm9.s:23378  .debug_str:0000000000002bfb .LASF5644
C:\Users\SOLDER~1\AppData\Local\Temp\ccI3TRm9.s:28636  .debug_str:000000000001814f .LASF5645
C:\Users\SOLDER~1\AppData\Local\Temp\ccI3TRm9.s:25610  .debug_str:000000000000bc5b .LASF5646
C:\Users\SOLDER~1\AppData\Local\Temp\ccI3TRm9.s:31764  .debug_str:0000000000024b7a .LASF5647
C:\Users\SOLDER~1\AppData\Local\Temp\ccI3TRm9.s:32922  .debug_str:00000000000297a3 .LASF5648
C:\Users\SOLDER~1\AppData\Local\Temp\ccI3TRm9.s:23826  .debug_str:0000000000004872 .LASF5649
C:\Users\SOLDER~1\AppData\Local\Temp\ccI3TRm9.s:26902  .debug_str:00000000000110c2 .LASF5650
C:\Users\SOLDER~1\AppData\Local\Temp\ccI3TRm9.s:33346  .debug_str:000000000002b26b .LASF5651
C:\Users\SOLDER~1\AppData\Local\Temp\ccI3TRm9.s:28368  .debug_str:0000000000016ffe .LASF5652
C:\Users\SOLDER~1\AppData\Local\Temp\ccI3TRm9.s:30804  .debug_str:0000000000020d4d .LASF5653
C:\Users\SOLDER~1\AppData\Local\Temp\ccI3TRm9.s:28608  .debug_str:0000000000017f6b .LASF5654
C:\Users\SOLDER~1\AppData\Local\Temp\ccI3TRm9.s:23490  .debug_str:000000000000333d .LASF5655
C:\Users\SOLDER~1\AppData\Local\Temp\ccI3TRm9.s:30392  .debug_str:000000000001f27a .LASF5656
C:\Users\SOLDER~1\AppData\Local\Temp\ccI3TRm9.s:33172  .debug_str:000000000002a75b .LASF5657
C:\Users\SOLDER~1\AppData\Local\Temp\ccI3TRm9.s:32648  .debug_str:00000000000285d3 .LASF5658
C:\Users\SOLDER~1\AppData\Local\Temp\ccI3TRm9.s:33992  .debug_str:000000000002dce7 .LASF5659
C:\Users\SOLDER~1\AppData\Local\Temp\ccI3TRm9.s:27948  .debug_str:000000000001554a .LASF5660
C:\Users\SOLDER~1\AppData\Local\Temp\ccI3TRm9.s:22726  .debug_str:0000000000000105 .LASF5661
C:\Users\SOLDER~1\AppData\Local\Temp\ccI3TRm9.s:28472  .debug_str:00000000000176bb .LASF5662
C:\Users\SOLDER~1\AppData\Local\Temp\ccI3TRm9.s:27550  .debug_str:0000000000013a66 .LASF5663
C:\Users\SOLDER~1\AppData\Local\Temp\ccI3TRm9.s:31338  .debug_str:0000000000022fa7 .LASF5664
C:\Users\SOLDER~1\AppData\Local\Temp\ccI3TRm9.s:22900  .debug_str:0000000000000d7a .LASF5665
C:\Users\SOLDER~1\AppData\Local\Temp\ccI3TRm9.s:27336  .debug_str:0000000000012c1e .LASF5666
C:\Users\SOLDER~1\AppData\Local\Temp\ccI3TRm9.s:32652  .debug_str:0000000000028617 .LASF5667
C:\Users\SOLDER~1\AppData\Local\Temp\ccI3TRm9.s:34434  .debug_str:000000000002f883 .LASF5668
GAS LISTING C:\Users\SOLDER~1\AppData\Local\Temp\ccI3TRm9.s 			page 194


C:\Users\SOLDER~1\AppData\Local\Temp\ccI3TRm9.s:34178  .debug_str:000000000002e8c9 .LASF5669
C:\Users\SOLDER~1\AppData\Local\Temp\ccI3TRm9.s:26034  .debug_str:000000000000d8c0 .LASF5670
C:\Users\SOLDER~1\AppData\Local\Temp\ccI3TRm9.s:30182  .debug_str:000000000001e4d4 .LASF5671
C:\Users\SOLDER~1\AppData\Local\Temp\ccI3TRm9.s:26066  .debug_str:000000000000dae5 .LASF5672
C:\Users\SOLDER~1\AppData\Local\Temp\ccI3TRm9.s:32334  .debug_str:000000000002711d .LASF5673
C:\Users\SOLDER~1\AppData\Local\Temp\ccI3TRm9.s:26652  .debug_str:00000000000100f9 .LASF5674
C:\Users\SOLDER~1\AppData\Local\Temp\ccI3TRm9.s:23220  .debug_str:00000000000021d1 .LASF5675
C:\Users\SOLDER~1\AppData\Local\Temp\ccI3TRm9.s:23148  .debug_str:0000000000001cfc .LASF5676
C:\Users\SOLDER~1\AppData\Local\Temp\ccI3TRm9.s:25936  .debug_str:000000000000d230 .LASF5677
C:\Users\SOLDER~1\AppData\Local\Temp\ccI3TRm9.s:29242  .debug_str:000000000001a867 .LASF5678
C:\Users\SOLDER~1\AppData\Local\Temp\ccI3TRm9.s:31488  .debug_str:000000000002398e .LASF5679
C:\Users\SOLDER~1\AppData\Local\Temp\ccI3TRm9.s:27598  .debug_str:0000000000013dcd .LASF5680
C:\Users\SOLDER~1\AppData\Local\Temp\ccI3TRm9.s:29194  .debug_str:000000000001a55f .LASF5681
C:\Users\SOLDER~1\AppData\Local\Temp\ccI3TRm9.s:27664  .debug_str:000000000001425e .LASF5682
C:\Users\SOLDER~1\AppData\Local\Temp\ccI3TRm9.s:26622  .debug_str:000000000000fee8 .LASF5683
C:\Users\SOLDER~1\AppData\Local\Temp\ccI3TRm9.s:25156  .debug_str:0000000000009e82 .LASF5684
C:\Users\SOLDER~1\AppData\Local\Temp\ccI3TRm9.s:28304  .debug_str:0000000000016bc8 .LASF5685
C:\Users\SOLDER~1\AppData\Local\Temp\ccI3TRm9.s:33140  .debug_str:000000000002a535 .LASF5686
C:\Users\SOLDER~1\AppData\Local\Temp\ccI3TRm9.s:29848  .debug_str:000000000001cece .LASF5687
C:\Users\SOLDER~1\AppData\Local\Temp\ccI3TRm9.s:29160  .debug_str:000000000001a349 .LASF5688
C:\Users\SOLDER~1\AppData\Local\Temp\ccI3TRm9.s:27346  .debug_str:0000000000012cd1 .LASF5689
C:\Users\SOLDER~1\AppData\Local\Temp\ccI3TRm9.s:27136  .debug_str:0000000000011faa .LASF5690
C:\Users\SOLDER~1\AppData\Local\Temp\ccI3TRm9.s:29024  .debug_str:0000000000019b02 .LASF5691
C:\Users\SOLDER~1\AppData\Local\Temp\ccI3TRm9.s:33708  .debug_str:000000000002ca5b .LASF5692
C:\Users\SOLDER~1\AppData\Local\Temp\ccI3TRm9.s:22998  .debug_str:000000000000135b .LASF5693
C:\Users\SOLDER~1\AppData\Local\Temp\ccI3TRm9.s:22792  .debug_str:0000000000000548 .LASF5694
C:\Users\SOLDER~1\AppData\Local\Temp\ccI3TRm9.s:24326  .debug_str:00000000000068b4 .LASF5695
C:\Users\SOLDER~1\AppData\Local\Temp\ccI3TRm9.s:28284  .debug_str:0000000000016a96 .LASF5696
C:\Users\SOLDER~1\AppData\Local\Temp\ccI3TRm9.s:30388  .debug_str:000000000001f219 .LASF5697
C:\Users\SOLDER~1\AppData\Local\Temp\ccI3TRm9.s:33772  .debug_str:000000000002ce5b .LASF5698
C:\Users\SOLDER~1\AppData\Local\Temp\ccI3TRm9.s:33912  .debug_str:000000000002d754 .LASF5699
C:\Users\SOLDER~1\AppData\Local\Temp\ccI3TRm9.s:27990  .debug_str:0000000000015810 .LASF5700
C:\Users\SOLDER~1\AppData\Local\Temp\ccI3TRm9.s:23820  .debug_str:00000000000047f5 .LASF5701
C:\Users\SOLDER~1\AppData\Local\Temp\ccI3TRm9.s:27282  .debug_str:00000000000128da .LASF5702
C:\Users\SOLDER~1\AppData\Local\Temp\ccI3TRm9.s:26600  .debug_str:000000000000fd59 .LASF5703
C:\Users\SOLDER~1\AppData\Local\Temp\ccI3TRm9.s:25490  .debug_str:000000000000b48d .LASF5704
C:\Users\SOLDER~1\AppData\Local\Temp\ccI3TRm9.s:31808  .debug_str:0000000000024e68 .LASF5705
C:\Users\SOLDER~1\AppData\Local\Temp\ccI3TRm9.s:27860  .debug_str:0000000000014fae .LASF5706
C:\Users\SOLDER~1\AppData\Local\Temp\ccI3TRm9.s:23392  .debug_str:0000000000002cfb .LASF5707
C:\Users\SOLDER~1\AppData\Local\Temp\ccI3TRm9.s:31068  .debug_str:0000000000021e51 .LASF5708
C:\Users\SOLDER~1\AppData\Local\Temp\ccI3TRm9.s:25428  .debug_str:000000000000b0a8 .LASF5709
C:\Users\SOLDER~1\AppData\Local\Temp\ccI3TRm9.s:31272  .debug_str:0000000000022b2d .LASF5710
C:\Users\SOLDER~1\AppData\Local\Temp\ccI3TRm9.s:33136  .debug_str:000000000002a4f7 .LASF5711
                           .group:0000000000000000 wm4.0.cc27e0d2094b492664a2491ca1ae43b0
                           .group:0000000000000000 wm4.ch32v20x.h.13.a030255a3e90e7179ae3b08da8e2408d
                           .group:0000000000000000 wm4._newlib_version.h.4.529115dae5e4f67702b1de0b6e841f38
                           .group:0000000000000000 wm4.features.h.33.3e67abe6fb64142d4f6fa9496796153c
                           .group:0000000000000000 wm4._default_types.h.15.247e5cd201eca3442cbf5404108c4935
                           .group:0000000000000000 wm4._intsup.h.10.48bafbb683905c4daa4565a85aeeb264
                           .group:0000000000000000 wm4._stdint.h.10.c24fa3af3bc1706662bb5593a907e841
                           .group:0000000000000000 wm4.stdint.h.23.d53047a68f4a85177f80b422d52785ed
                           .group:0000000000000000 wm4.core_riscv.h.11.151d7acb41e203dcc664023294f59bdc
                           .group:0000000000000000 wm4.ch32v20x.h.153.1d8393f26361703471ea96fe9aa4b4f9
                           .group:0000000000000000 wm4.ch32v20x_bkp.h.23.a6c07ee7ce111f11c5f9bbbe4b4278ce
                           .group:0000000000000000 wm4.ch32v20x_can.h.14.aa1dae2c28cbaf083875b4b61810c3c7
                           .group:0000000000000000 wm4.ch32v20x_dbgmcu.h.14.26ef95879978d9caaa154b373f3a512b
                           .group:0000000000000000 wm4.ch32v20x_dma.h.14.425a907348dd0134bf6e82c73bbd3df8
GAS LISTING C:\Users\SOLDER~1\AppData\Local\Temp\ccI3TRm9.s 			page 195


                           .group:0000000000000000 wm4.ch32v20x_exti.h.14.f67190d3fb91aa9aecce0f4d5a543221
                           .group:0000000000000000 wm4.ch32v20x_flash.h.14.91c5ecdad44f358d5032244aabf7ef4e
                           .group:0000000000000000 wm4.ch32v20x_gpio.h.14.bdb7f79cce0dffbc24dc81ea80f90bd2
                           .group:0000000000000000 wm4.ch32v20x_i2c.h.14.101eb625c9d2afac400f4e8ac2e9fb1d
                           .group:0000000000000000 wm4.ch32v20x_iwdg.h.14.26025d04ceeb3151185969ed5850fbb4
                           .group:0000000000000000 wm4.ch32v20x_pwr.h.14.8eaa3508938f71b27f140895c21602e6
                           .group:0000000000000000 wm4.ch32v20x_rcc.h.13.18c6b8696a30372de01acaf3c246ecb8
                           .group:0000000000000000 wm4.ch32v20x_rtc.h.14.eb8734f5dd75abcf831b4f12ec49aebe
                           .group:0000000000000000 wm4.ch32v20x_spi.h.14.f12b1f237c615e7304ae62cc2e2c3c1a
                           .group:0000000000000000 wm4.ch32v20x_tim.h.14.35d11fab62898d9d661122ade86d8a6c
                           .group:0000000000000000 wm4.ch32v20x_usart.h.14.9d28c7ec28f2121810b69a55079cd38f
                           .group:0000000000000000 wm4.ch32v20x_wwdg.h.14.49bada437175894a4dce7e12e4216bc9
                           .group:0000000000000000 wm4.ch32v20x_misc.h.14.f3992cf724c30ec0bea268444ffdb6e0
                           .group:0000000000000000 wm4.ch32v20x_adc.h.56.f131972e7ce35efbe3b5c47a075d6d1b

UNDEFINED SYMBOLS
RCC_APB2PeriphResetCmd
