GAS LISTING C:\Users\SOLDER~1\AppData\Local\Temp\ccLLkDzL.s 			page 1


   1              		.file	"ch32v20x_wwdg.c"
   2              		.option nopic
   3              		.attribute arch, "rv32i2p0_m2p0_a2p0_c2p0_xw"
   4              		.attribute unaligned_access, 0
   5              		.attribute stack_align, 16
   6              		.text
   7              	.Ltext0:
   8              		.cfi_sections	.debug_frame
   9              		.file 0 "C:\\Users\\Solderingiron\\Documents\\GitHub\\VSC-make-example\\VSC_CH32V203C8T6" "Drivers
  10              		.section	.text.WWDG_DeInit,"ax",@progbits
  11              		.align	1
  12              		.globl	WWDG_DeInit
  14              	WWDG_DeInit:
  15              	.LFB16:
  16              		.file 1 "Drivers/src/ch32v20x_wwdg.c"
   1:Drivers/src/ch32v20x_wwdg.c **** /********************************** (C) COPYRIGHT *******************************
   2:Drivers/src/ch32v20x_wwdg.c ****  * File Name          : ch32v20x_wwdg.c
   3:Drivers/src/ch32v20x_wwdg.c ****  * Author             : WCH
   4:Drivers/src/ch32v20x_wwdg.c ****  * Version            : V1.0.0
   5:Drivers/src/ch32v20x_wwdg.c ****  * Date               : 2021/06/06
   6:Drivers/src/ch32v20x_wwdg.c ****  * Description        : This file provides all the WWDG firmware functions.
   7:Drivers/src/ch32v20x_wwdg.c ****  *********************************************************************************
   8:Drivers/src/ch32v20x_wwdg.c ****  * Copyright (c) 2021 Nanjing Qinheng Microelectronics Co., Ltd.
   9:Drivers/src/ch32v20x_wwdg.c ****  * Attention: This software (modified or not) and binary are used for 
  10:Drivers/src/ch32v20x_wwdg.c ****  * microcontroller manufactured by Nanjing Qinheng Microelectronics.
  11:Drivers/src/ch32v20x_wwdg.c ****  *******************************************************************************/
  12:Drivers/src/ch32v20x_wwdg.c **** #include "ch32v20x_wwdg.h"
  13:Drivers/src/ch32v20x_wwdg.c **** #include "ch32v20x_rcc.h"
  14:Drivers/src/ch32v20x_wwdg.c **** 
  15:Drivers/src/ch32v20x_wwdg.c **** /* CTLR register bit mask */
  16:Drivers/src/ch32v20x_wwdg.c **** #define CTLR_WDGA_Set      ((uint32_t)0x00000080)
  17:Drivers/src/ch32v20x_wwdg.c **** 
  18:Drivers/src/ch32v20x_wwdg.c **** /* CFGR register bit mask */
  19:Drivers/src/ch32v20x_wwdg.c **** #define CFGR_WDGTB_Mask    ((uint32_t)0xFFFFFE7F)
  20:Drivers/src/ch32v20x_wwdg.c **** #define CFGR_W_Mask        ((uint32_t)0xFFFFFF80)
  21:Drivers/src/ch32v20x_wwdg.c **** #define BIT_Mask           ((uint8_t)0x7F)
  22:Drivers/src/ch32v20x_wwdg.c **** 
  23:Drivers/src/ch32v20x_wwdg.c **** /*********************************************************************
  24:Drivers/src/ch32v20x_wwdg.c ****  * @fn      WWDG_DeInit
  25:Drivers/src/ch32v20x_wwdg.c ****  *
  26:Drivers/src/ch32v20x_wwdg.c ****  * @brief   Deinitializes the WWDG peripheral registers to their default reset values
  27:Drivers/src/ch32v20x_wwdg.c ****  *
  28:Drivers/src/ch32v20x_wwdg.c ****  * @return  none
  29:Drivers/src/ch32v20x_wwdg.c ****  */
  30:Drivers/src/ch32v20x_wwdg.c **** void WWDG_DeInit(void)
  31:Drivers/src/ch32v20x_wwdg.c **** {
  17              		.loc 1 31 1
  18              		.cfi_startproc
  19 0000 4111     		addi	sp,sp,-16
  20              		.cfi_def_cfa_offset 16
  21 0002 06C6     		sw	ra,12(sp)
  22 0004 22C4     		sw	s0,8(sp)
  23              		.cfi_offset 1, -4
  24              		.cfi_offset 8, -8
  25 0006 0008     		addi	s0,sp,16
  26              		.cfi_def_cfa 8, 0
  32:Drivers/src/ch32v20x_wwdg.c ****     RCC_APB1PeriphResetCmd(RCC_APB1Periph_WWDG, ENABLE);
GAS LISTING C:\Users\SOLDER~1\AppData\Local\Temp\ccLLkDzL.s 			page 2


  27              		.loc 1 32 5
  28 0008 8545     		li	a1,1
  29 000a 8567     		li	a5,4096
  30 000c 13850780 		addi	a0,a5,-2048
  31 0010 97000000 		call	RCC_APB1PeriphResetCmd
  31      E7800000 
  33:Drivers/src/ch32v20x_wwdg.c ****     RCC_APB1PeriphResetCmd(RCC_APB1Periph_WWDG, DISABLE);
  32              		.loc 1 33 5
  33 0018 8145     		li	a1,0
  34 001a 8567     		li	a5,4096
  35 001c 13850780 		addi	a0,a5,-2048
  36 0020 97000000 		call	RCC_APB1PeriphResetCmd
  36      E7800000 
  34:Drivers/src/ch32v20x_wwdg.c **** }
  37              		.loc 1 34 1
  38 0028 0100     		nop
  39 002a B240     		lw	ra,12(sp)
  40              		.cfi_restore 1
  41 002c 2244     		lw	s0,8(sp)
  42              		.cfi_restore 8
  43              		.cfi_def_cfa 2, 16
  44 002e 4101     		addi	sp,sp,16
  45              		.cfi_def_cfa_offset 0
  46 0030 8280     		jr	ra
  47              		.cfi_endproc
  48              	.LFE16:
  50              		.section	.text.WWDG_SetPrescaler,"ax",@progbits
  51              		.align	1
  52              		.globl	WWDG_SetPrescaler
  54              	WWDG_SetPrescaler:
  55              	.LFB17:
  35:Drivers/src/ch32v20x_wwdg.c **** 
  36:Drivers/src/ch32v20x_wwdg.c **** /*********************************************************************
  37:Drivers/src/ch32v20x_wwdg.c ****  * @fn      WWDG_SetPrescaler
  38:Drivers/src/ch32v20x_wwdg.c ****  *
  39:Drivers/src/ch32v20x_wwdg.c ****  * @brief   Sets the WWDG Prescaler
  40:Drivers/src/ch32v20x_wwdg.c ****  *
  41:Drivers/src/ch32v20x_wwdg.c ****  * @param   WWDG_Prescaler - specifies the WWDG Prescaler
  42:Drivers/src/ch32v20x_wwdg.c ****  *            WWDG_Prescaler_1 - WWDG counter clock = (PCLK1/4096)/1
  43:Drivers/src/ch32v20x_wwdg.c ****  *            WWDG_Prescaler_2 - WWDG counter clock = (PCLK1/4096)/2
  44:Drivers/src/ch32v20x_wwdg.c ****  *            WWDG_Prescaler_4 - WWDG counter clock = (PCLK1/4096)/4
  45:Drivers/src/ch32v20x_wwdg.c ****  *            WWDG_Prescaler_8 - WWDG counter clock = (PCLK1/4096)/8
  46:Drivers/src/ch32v20x_wwdg.c ****  *
  47:Drivers/src/ch32v20x_wwdg.c ****  * @return  none
  48:Drivers/src/ch32v20x_wwdg.c ****  */
  49:Drivers/src/ch32v20x_wwdg.c **** void WWDG_SetPrescaler(uint32_t WWDG_Prescaler)
  50:Drivers/src/ch32v20x_wwdg.c **** {
  56              		.loc 1 50 1
  57              		.cfi_startproc
  58 0000 7971     		addi	sp,sp,-48
  59              		.cfi_def_cfa_offset 48
  60 0002 22D6     		sw	s0,44(sp)
  61              		.cfi_offset 8, -4
  62 0004 0018     		addi	s0,sp,48
  63              		.cfi_def_cfa 8, 0
  64 0006 232EA4FC 		sw	a0,-36(s0)
  51:Drivers/src/ch32v20x_wwdg.c ****     uint32_t tmpreg = 0;
GAS LISTING C:\Users\SOLDER~1\AppData\Local\Temp\ccLLkDzL.s 			page 3


  65              		.loc 1 51 14
  66 000a 232604FE 		sw	zero,-20(s0)
  52:Drivers/src/ch32v20x_wwdg.c ****     tmpreg = WWDG->CFGR & CFGR_WDGTB_Mask;
  67              		.loc 1 52 18
  68 000e B7370040 		li	a5,1073754112
  69 0012 938707C0 		addi	a5,a5,-1024
  70 0016 DC43     		lw	a5,4(a5)
  71              		.loc 1 52 12
  72 0018 93F7F7E7 		andi	a5,a5,-385
  73 001c 2326F4FE 		sw	a5,-20(s0)
  53:Drivers/src/ch32v20x_wwdg.c ****     tmpreg |= WWDG_Prescaler;
  74              		.loc 1 53 12
  75 0020 0327C4FE 		lw	a4,-20(s0)
  76 0024 8327C4FD 		lw	a5,-36(s0)
  77 0028 D98F     		or	a5,a4,a5
  78 002a 2326F4FE 		sw	a5,-20(s0)
  54:Drivers/src/ch32v20x_wwdg.c ****     WWDG->CFGR = tmpreg;
  79              		.loc 1 54 9
  80 002e B7370040 		li	a5,1073754112
  81 0032 938707C0 		addi	a5,a5,-1024
  82              		.loc 1 54 16
  83 0036 0327C4FE 		lw	a4,-20(s0)
  84 003a D8C3     		sw	a4,4(a5)
  55:Drivers/src/ch32v20x_wwdg.c **** }
  85              		.loc 1 55 1
  86 003c 0100     		nop
  87 003e 3254     		lw	s0,44(sp)
  88              		.cfi_restore 8
  89              		.cfi_def_cfa 2, 48
  90 0040 4561     		addi	sp,sp,48
  91              		.cfi_def_cfa_offset 0
  92 0042 8280     		jr	ra
  93              		.cfi_endproc
  94              	.LFE17:
  96              		.section	.text.WWDG_SetWindowValue,"ax",@progbits
  97              		.align	1
  98              		.globl	WWDG_SetWindowValue
 100              	WWDG_SetWindowValue:
 101              	.LFB18:
  56:Drivers/src/ch32v20x_wwdg.c **** 
  57:Drivers/src/ch32v20x_wwdg.c **** /*********************************************************************
  58:Drivers/src/ch32v20x_wwdg.c ****  * @fn      WWDG_SetWindowValue
  59:Drivers/src/ch32v20x_wwdg.c ****  *
  60:Drivers/src/ch32v20x_wwdg.c ****  * @brief   Sets the WWDG window value
  61:Drivers/src/ch32v20x_wwdg.c ****  *
  62:Drivers/src/ch32v20x_wwdg.c ****  * @param   WindowValue - specifies the window value to be compared to the
  63:Drivers/src/ch32v20x_wwdg.c ****  *        downcounter,which must be lower than 0x80
  64:Drivers/src/ch32v20x_wwdg.c ****  *
  65:Drivers/src/ch32v20x_wwdg.c ****  * @return  none
  66:Drivers/src/ch32v20x_wwdg.c ****  */
  67:Drivers/src/ch32v20x_wwdg.c **** void WWDG_SetWindowValue(uint8_t WindowValue)
  68:Drivers/src/ch32v20x_wwdg.c **** {
 102              		.loc 1 68 1
 103              		.cfi_startproc
 104 0000 7971     		addi	sp,sp,-48
 105              		.cfi_def_cfa_offset 48
 106 0002 22D6     		sw	s0,44(sp)
GAS LISTING C:\Users\SOLDER~1\AppData\Local\Temp\ccLLkDzL.s 			page 4


 107              		.cfi_offset 8, -4
 108 0004 0018     		addi	s0,sp,48
 109              		.cfi_def_cfa 8, 0
 110 0006 AA87     		mv	a5,a0
 111 0008 A30FF4FC 		sb	a5,-33(s0)
  69:Drivers/src/ch32v20x_wwdg.c ****     __IO uint32_t tmpreg = 0;
 112              		.loc 1 69 19
 113 000c 232604FE 		sw	zero,-20(s0)
  70:Drivers/src/ch32v20x_wwdg.c **** 
  71:Drivers/src/ch32v20x_wwdg.c ****     tmpreg = WWDG->CFGR & CFGR_W_Mask;
 114              		.loc 1 71 18
 115 0010 B7370040 		li	a5,1073754112
 116 0014 938707C0 		addi	a5,a5,-1024
 117 0018 DC43     		lw	a5,4(a5)
 118              		.loc 1 71 25
 119 001a 93F707F8 		andi	a5,a5,-128
 120              		.loc 1 71 12
 121 001e 2326F4FE 		sw	a5,-20(s0)
  72:Drivers/src/ch32v20x_wwdg.c **** 
  73:Drivers/src/ch32v20x_wwdg.c ****     tmpreg |= WindowValue & (uint32_t)BIT_Mask;
 122              		.loc 1 73 27
 123 0022 8347F4FD 		lbu	a5,-33(s0)
 124 0026 13F7F707 		andi	a4,a5,127
 125              		.loc 1 73 12
 126 002a 8327C4FE 		lw	a5,-20(s0)
 127 002e D98F     		or	a5,a4,a5
 128 0030 2326F4FE 		sw	a5,-20(s0)
  74:Drivers/src/ch32v20x_wwdg.c **** 
  75:Drivers/src/ch32v20x_wwdg.c ****     WWDG->CFGR = tmpreg;
 129              		.loc 1 75 9
 130 0034 B7370040 		li	a5,1073754112
 131 0038 938707C0 		addi	a5,a5,-1024
 132              		.loc 1 75 16
 133 003c 0327C4FE 		lw	a4,-20(s0)
 134 0040 D8C3     		sw	a4,4(a5)
  76:Drivers/src/ch32v20x_wwdg.c **** }
 135              		.loc 1 76 1
 136 0042 0100     		nop
 137 0044 3254     		lw	s0,44(sp)
 138              		.cfi_restore 8
 139              		.cfi_def_cfa 2, 48
 140 0046 4561     		addi	sp,sp,48
 141              		.cfi_def_cfa_offset 0
 142 0048 8280     		jr	ra
 143              		.cfi_endproc
 144              	.LFE18:
 146              		.section	.text.WWDG_EnableIT,"ax",@progbits
 147              		.align	1
 148              		.globl	WWDG_EnableIT
 150              	WWDG_EnableIT:
 151              	.LFB19:
  77:Drivers/src/ch32v20x_wwdg.c **** 
  78:Drivers/src/ch32v20x_wwdg.c **** /*********************************************************************
  79:Drivers/src/ch32v20x_wwdg.c ****  * @fn      WWDG_EnableIT
  80:Drivers/src/ch32v20x_wwdg.c ****  *
  81:Drivers/src/ch32v20x_wwdg.c ****  * @brief   Enables the WWDG Early Wakeup interrupt(EWI)
  82:Drivers/src/ch32v20x_wwdg.c ****  *
GAS LISTING C:\Users\SOLDER~1\AppData\Local\Temp\ccLLkDzL.s 			page 5


  83:Drivers/src/ch32v20x_wwdg.c ****  * @return  none
  84:Drivers/src/ch32v20x_wwdg.c ****  */
  85:Drivers/src/ch32v20x_wwdg.c **** void WWDG_EnableIT(void)
  86:Drivers/src/ch32v20x_wwdg.c **** {
 152              		.loc 1 86 1
 153              		.cfi_startproc
 154 0000 4111     		addi	sp,sp,-16
 155              		.cfi_def_cfa_offset 16
 156 0002 22C6     		sw	s0,12(sp)
 157              		.cfi_offset 8, -4
 158 0004 0008     		addi	s0,sp,16
 159              		.cfi_def_cfa 8, 0
  87:Drivers/src/ch32v20x_wwdg.c ****     WWDG->CFGR |= (1 << 9);
 160              		.loc 1 87 9
 161 0006 B7370040 		li	a5,1073754112
 162 000a 938707C0 		addi	a5,a5,-1024
 163 000e D843     		lw	a4,4(a5)
 164 0010 B7370040 		li	a5,1073754112
 165 0014 938707C0 		addi	a5,a5,-1024
 166              		.loc 1 87 16
 167 0018 13670720 		ori	a4,a4,512
 168 001c D8C3     		sw	a4,4(a5)
  88:Drivers/src/ch32v20x_wwdg.c **** }
 169              		.loc 1 88 1
 170 001e 0100     		nop
 171 0020 3244     		lw	s0,12(sp)
 172              		.cfi_restore 8
 173              		.cfi_def_cfa 2, 16
 174 0022 4101     		addi	sp,sp,16
 175              		.cfi_def_cfa_offset 0
 176 0024 8280     		jr	ra
 177              		.cfi_endproc
 178              	.LFE19:
 180              		.section	.text.WWDG_SetCounter,"ax",@progbits
 181              		.align	1
 182              		.globl	WWDG_SetCounter
 184              	WWDG_SetCounter:
 185              	.LFB20:
  89:Drivers/src/ch32v20x_wwdg.c **** 
  90:Drivers/src/ch32v20x_wwdg.c **** /*********************************************************************
  91:Drivers/src/ch32v20x_wwdg.c ****  * @fn      WWDG_SetCounter
  92:Drivers/src/ch32v20x_wwdg.c ****  *
  93:Drivers/src/ch32v20x_wwdg.c ****  * @brief   Sets the WWDG counter value
  94:Drivers/src/ch32v20x_wwdg.c ****  *
  95:Drivers/src/ch32v20x_wwdg.c ****  * @param   Counter - specifies the watchdog counter value,which must be a
  96:Drivers/src/ch32v20x_wwdg.c ****  *        number between 0x40 and 0x7F
  97:Drivers/src/ch32v20x_wwdg.c ****  *
  98:Drivers/src/ch32v20x_wwdg.c ****  * @return  none
  99:Drivers/src/ch32v20x_wwdg.c ****  */
 100:Drivers/src/ch32v20x_wwdg.c **** void WWDG_SetCounter(uint8_t Counter)
 101:Drivers/src/ch32v20x_wwdg.c **** {
 186              		.loc 1 101 1
 187              		.cfi_startproc
 188 0000 0111     		addi	sp,sp,-32
 189              		.cfi_def_cfa_offset 32
 190 0002 22CE     		sw	s0,28(sp)
 191              		.cfi_offset 8, -4
GAS LISTING C:\Users\SOLDER~1\AppData\Local\Temp\ccLLkDzL.s 			page 6


 192 0004 0010     		addi	s0,sp,32
 193              		.cfi_def_cfa 8, 0
 194 0006 AA87     		mv	a5,a0
 195 0008 A307F4FE 		sb	a5,-17(s0)
 102:Drivers/src/ch32v20x_wwdg.c ****     WWDG->CTLR = Counter & BIT_Mask;
 196              		.loc 1 102 26
 197 000c 0347F4FE 		lbu	a4,-17(s0)
 198              		.loc 1 102 9
 199 0010 B7370040 		li	a5,1073754112
 200 0014 938707C0 		addi	a5,a5,-1024
 201              		.loc 1 102 26
 202 0018 1377F707 		andi	a4,a4,127
 203              		.loc 1 102 16
 204 001c 98C3     		sw	a4,0(a5)
 103:Drivers/src/ch32v20x_wwdg.c **** }
 205              		.loc 1 103 1
 206 001e 0100     		nop
 207 0020 7244     		lw	s0,28(sp)
 208              		.cfi_restore 8
 209              		.cfi_def_cfa 2, 32
 210 0022 0561     		addi	sp,sp,32
 211              		.cfi_def_cfa_offset 0
 212 0024 8280     		jr	ra
 213              		.cfi_endproc
 214              	.LFE20:
 216              		.section	.text.WWDG_Enable,"ax",@progbits
 217              		.align	1
 218              		.globl	WWDG_Enable
 220              	WWDG_Enable:
 221              	.LFB21:
 104:Drivers/src/ch32v20x_wwdg.c **** 
 105:Drivers/src/ch32v20x_wwdg.c **** /*********************************************************************
 106:Drivers/src/ch32v20x_wwdg.c ****  * @fn      WWDG_Enable
 107:Drivers/src/ch32v20x_wwdg.c ****  *
 108:Drivers/src/ch32v20x_wwdg.c ****  * @brief   Enables WWDG and load the counter value
 109:Drivers/src/ch32v20x_wwdg.c ****  *
 110:Drivers/src/ch32v20x_wwdg.c ****  * @param   Counter - specifies the watchdog counter value,which must be a
 111:Drivers/src/ch32v20x_wwdg.c ****  *        number between 0x40 and 0x7F
 112:Drivers/src/ch32v20x_wwdg.c ****  * @return  none
 113:Drivers/src/ch32v20x_wwdg.c ****  */
 114:Drivers/src/ch32v20x_wwdg.c **** void WWDG_Enable(uint8_t Counter)
 115:Drivers/src/ch32v20x_wwdg.c **** {
 222              		.loc 1 115 1
 223              		.cfi_startproc
 224 0000 0111     		addi	sp,sp,-32
 225              		.cfi_def_cfa_offset 32
 226 0002 22CE     		sw	s0,28(sp)
 227              		.cfi_offset 8, -4
 228 0004 0010     		addi	s0,sp,32
 229              		.cfi_def_cfa 8, 0
 230 0006 AA87     		mv	a5,a0
 231 0008 A307F4FE 		sb	a5,-17(s0)
 116:Drivers/src/ch32v20x_wwdg.c ****     WWDG->CTLR = CTLR_WDGA_Set | Counter;
 232              		.loc 1 116 32
 233 000c 8347F4FE 		lbu	a5,-17(s0)
 234 0010 93E707F8 		ori	a5,a5,-128
 235 0014 13F7F70F 		andi	a4,a5,0xff
GAS LISTING C:\Users\SOLDER~1\AppData\Local\Temp\ccLLkDzL.s 			page 7


 236              		.loc 1 116 9
 237 0018 B7370040 		li	a5,1073754112
 238 001c 938707C0 		addi	a5,a5,-1024
 239              		.loc 1 116 16
 240 0020 98C3     		sw	a4,0(a5)
 117:Drivers/src/ch32v20x_wwdg.c **** }
 241              		.loc 1 117 1
 242 0022 0100     		nop
 243 0024 7244     		lw	s0,28(sp)
 244              		.cfi_restore 8
 245              		.cfi_def_cfa 2, 32
 246 0026 0561     		addi	sp,sp,32
 247              		.cfi_def_cfa_offset 0
 248 0028 8280     		jr	ra
 249              		.cfi_endproc
 250              	.LFE21:
 252              		.section	.text.WWDG_GetFlagStatus,"ax",@progbits
 253              		.align	1
 254              		.globl	WWDG_GetFlagStatus
 256              	WWDG_GetFlagStatus:
 257              	.LFB22:
 118:Drivers/src/ch32v20x_wwdg.c **** 
 119:Drivers/src/ch32v20x_wwdg.c **** /*********************************************************************
 120:Drivers/src/ch32v20x_wwdg.c ****  * @fn      WWDG_GetFlagStatus
 121:Drivers/src/ch32v20x_wwdg.c ****  *
 122:Drivers/src/ch32v20x_wwdg.c ****  * @brief   Checks whether the Early Wakeup interrupt flag is set or not
 123:Drivers/src/ch32v20x_wwdg.c ****  *
 124:Drivers/src/ch32v20x_wwdg.c ****  * @return  The new state of the Early Wakeup interrupt flag (SET or RESET)
 125:Drivers/src/ch32v20x_wwdg.c ****  */
 126:Drivers/src/ch32v20x_wwdg.c **** FlagStatus WWDG_GetFlagStatus(void)
 127:Drivers/src/ch32v20x_wwdg.c **** {
 258              		.loc 1 127 1
 259              		.cfi_startproc
 260 0000 4111     		addi	sp,sp,-16
 261              		.cfi_def_cfa_offset 16
 262 0002 22C6     		sw	s0,12(sp)
 263              		.cfi_offset 8, -4
 264 0004 0008     		addi	s0,sp,16
 265              		.cfi_def_cfa 8, 0
 128:Drivers/src/ch32v20x_wwdg.c ****     return (FlagStatus)(WWDG->STATR);
 266              		.loc 1 128 29
 267 0006 B7370040 		li	a5,1073754112
 268 000a 938707C0 		addi	a5,a5,-1024
 269              		.loc 1 128 12
 270 000e 9C47     		lw	a5,8(a5)
 129:Drivers/src/ch32v20x_wwdg.c **** }
 271              		.loc 1 129 1
 272 0010 3E85     		mv	a0,a5
 273 0012 3244     		lw	s0,12(sp)
 274              		.cfi_restore 8
 275              		.cfi_def_cfa 2, 16
 276 0014 4101     		addi	sp,sp,16
 277              		.cfi_def_cfa_offset 0
 278 0016 8280     		jr	ra
 279              		.cfi_endproc
 280              	.LFE22:
 282              		.section	.text.WWDG_ClearFlag,"ax",@progbits
GAS LISTING C:\Users\SOLDER~1\AppData\Local\Temp\ccLLkDzL.s 			page 8


 283              		.align	1
 284              		.globl	WWDG_ClearFlag
 286              	WWDG_ClearFlag:
 287              	.LFB23:
 130:Drivers/src/ch32v20x_wwdg.c **** 
 131:Drivers/src/ch32v20x_wwdg.c **** /*********************************************************************
 132:Drivers/src/ch32v20x_wwdg.c ****  * @fn      WWDG_ClearFlag
 133:Drivers/src/ch32v20x_wwdg.c ****  *
 134:Drivers/src/ch32v20x_wwdg.c ****  * @brief   Clears Early Wakeup interrupt flag
 135:Drivers/src/ch32v20x_wwdg.c ****  *
 136:Drivers/src/ch32v20x_wwdg.c ****  * @return  none
 137:Drivers/src/ch32v20x_wwdg.c ****  */
 138:Drivers/src/ch32v20x_wwdg.c **** void WWDG_ClearFlag(void)
 139:Drivers/src/ch32v20x_wwdg.c **** {
 288              		.loc 1 139 1
 289              		.cfi_startproc
 290 0000 4111     		addi	sp,sp,-16
 291              		.cfi_def_cfa_offset 16
 292 0002 22C6     		sw	s0,12(sp)
 293              		.cfi_offset 8, -4
 294 0004 0008     		addi	s0,sp,16
 295              		.cfi_def_cfa 8, 0
 140:Drivers/src/ch32v20x_wwdg.c ****     WWDG->STATR = (uint32_t)RESET;
 296              		.loc 1 140 9
 297 0006 B7370040 		li	a5,1073754112
 298 000a 938707C0 		addi	a5,a5,-1024
 299              		.loc 1 140 17
 300 000e 23A40700 		sw	zero,8(a5)
 141:Drivers/src/ch32v20x_wwdg.c **** }
 301              		.loc 1 141 1
 302 0012 0100     		nop
 303 0014 3244     		lw	s0,12(sp)
 304              		.cfi_restore 8
 305              		.cfi_def_cfa 2, 16
 306 0016 4101     		addi	sp,sp,16
 307              		.cfi_def_cfa_offset 0
 308 0018 8280     		jr	ra
 309              		.cfi_endproc
 310              	.LFE23:
 312              		.text
 313              	.Letext0:
 314              		.file 2 "c:\\dev_tools\\ch32_tools\\risc-v_embedded_gcc12\\riscv-none-elf\\include\\machine\\_defa
 315              		.file 3 "c:\\dev_tools\\ch32_tools\\risc-v_embedded_gcc12\\riscv-none-elf\\include\\sys\\_stdint.h
 316              		.file 4 "Drivers/inc/core_riscv.h"
 317              		.file 5 "Drivers/inc/ch32v20x.h"
 318              		.file 6 "Drivers/inc/ch32v20x_rcc.h"
GAS LISTING C:\Users\SOLDER~1\AppData\Local\Temp\ccLLkDzL.s 			page 9


DEFINED SYMBOLS
                            *ABS*:0000000000000000 ch32v20x_wwdg.c
C:\Users\SOLDER~1\AppData\Local\Temp\ccLLkDzL.s:14     .text.WWDG_DeInit:0000000000000000 WWDG_DeInit
C:\Users\SOLDER~1\AppData\Local\Temp\ccLLkDzL.s:18     .text.WWDG_DeInit:0000000000000000 .L0 
C:\Users\SOLDER~1\AppData\Local\Temp\ccLLkDzL.s:19     .text.WWDG_DeInit:0000000000000000 $x
C:\Users\SOLDER~1\AppData\Local\Temp\ccLLkDzL.s:19     .text.WWDG_DeInit:0000000000000000 .L0 
C:\Users\SOLDER~1\AppData\Local\Temp\ccLLkDzL.s:20     .text.WWDG_DeInit:0000000000000002 .L0 
C:\Users\SOLDER~1\AppData\Local\Temp\ccLLkDzL.s:23     .text.WWDG_DeInit:0000000000000006 .L0 
C:\Users\SOLDER~1\AppData\Local\Temp\ccLLkDzL.s:24     .text.WWDG_DeInit:0000000000000006 .L0 
C:\Users\SOLDER~1\AppData\Local\Temp\ccLLkDzL.s:26     .text.WWDG_DeInit:0000000000000008 .L0 
C:\Users\SOLDER~1\AppData\Local\Temp\ccLLkDzL.s:28     .text.WWDG_DeInit:0000000000000008 .L0 
C:\Users\SOLDER~1\AppData\Local\Temp\ccLLkDzL.s:33     .text.WWDG_DeInit:0000000000000018 .L0 
C:\Users\SOLDER~1\AppData\Local\Temp\ccLLkDzL.s:38     .text.WWDG_DeInit:0000000000000028 .L0 
C:\Users\SOLDER~1\AppData\Local\Temp\ccLLkDzL.s:40     .text.WWDG_DeInit:000000000000002c .L0 
C:\Users\SOLDER~1\AppData\Local\Temp\ccLLkDzL.s:42     .text.WWDG_DeInit:000000000000002e .L0 
C:\Users\SOLDER~1\AppData\Local\Temp\ccLLkDzL.s:43     .text.WWDG_DeInit:000000000000002e .L0 
C:\Users\SOLDER~1\AppData\Local\Temp\ccLLkDzL.s:45     .text.WWDG_DeInit:0000000000000030 .L0 
C:\Users\SOLDER~1\AppData\Local\Temp\ccLLkDzL.s:47     .text.WWDG_DeInit:0000000000000032 .L0 
C:\Users\SOLDER~1\AppData\Local\Temp\ccLLkDzL.s:54     .text.WWDG_SetPrescaler:0000000000000000 WWDG_SetPrescaler
C:\Users\SOLDER~1\AppData\Local\Temp\ccLLkDzL.s:57     .text.WWDG_SetPrescaler:0000000000000000 .L0 
C:\Users\SOLDER~1\AppData\Local\Temp\ccLLkDzL.s:58     .text.WWDG_SetPrescaler:0000000000000000 $x
C:\Users\SOLDER~1\AppData\Local\Temp\ccLLkDzL.s:58     .text.WWDG_SetPrescaler:0000000000000000 .L0 
C:\Users\SOLDER~1\AppData\Local\Temp\ccLLkDzL.s:59     .text.WWDG_SetPrescaler:0000000000000002 .L0 
C:\Users\SOLDER~1\AppData\Local\Temp\ccLLkDzL.s:61     .text.WWDG_SetPrescaler:0000000000000004 .L0 
C:\Users\SOLDER~1\AppData\Local\Temp\ccLLkDzL.s:63     .text.WWDG_SetPrescaler:0000000000000006 .L0 
C:\Users\SOLDER~1\AppData\Local\Temp\ccLLkDzL.s:66     .text.WWDG_SetPrescaler:000000000000000a .L0 
C:\Users\SOLDER~1\AppData\Local\Temp\ccLLkDzL.s:68     .text.WWDG_SetPrescaler:000000000000000e .L0 
C:\Users\SOLDER~1\AppData\Local\Temp\ccLLkDzL.s:72     .text.WWDG_SetPrescaler:0000000000000018 .L0 
C:\Users\SOLDER~1\AppData\Local\Temp\ccLLkDzL.s:75     .text.WWDG_SetPrescaler:0000000000000020 .L0 
C:\Users\SOLDER~1\AppData\Local\Temp\ccLLkDzL.s:80     .text.WWDG_SetPrescaler:000000000000002e .L0 
C:\Users\SOLDER~1\AppData\Local\Temp\ccLLkDzL.s:83     .text.WWDG_SetPrescaler:0000000000000036 .L0 
C:\Users\SOLDER~1\AppData\Local\Temp\ccLLkDzL.s:86     .text.WWDG_SetPrescaler:000000000000003c .L0 
C:\Users\SOLDER~1\AppData\Local\Temp\ccLLkDzL.s:88     .text.WWDG_SetPrescaler:0000000000000040 .L0 
C:\Users\SOLDER~1\AppData\Local\Temp\ccLLkDzL.s:89     .text.WWDG_SetPrescaler:0000000000000040 .L0 
C:\Users\SOLDER~1\AppData\Local\Temp\ccLLkDzL.s:91     .text.WWDG_SetPrescaler:0000000000000042 .L0 
C:\Users\SOLDER~1\AppData\Local\Temp\ccLLkDzL.s:93     .text.WWDG_SetPrescaler:0000000000000044 .L0 
C:\Users\SOLDER~1\AppData\Local\Temp\ccLLkDzL.s:100    .text.WWDG_SetWindowValue:0000000000000000 WWDG_SetWindowValue
C:\Users\SOLDER~1\AppData\Local\Temp\ccLLkDzL.s:103    .text.WWDG_SetWindowValue:0000000000000000 .L0 
C:\Users\SOLDER~1\AppData\Local\Temp\ccLLkDzL.s:104    .text.WWDG_SetWindowValue:0000000000000000 $x
C:\Users\SOLDER~1\AppData\Local\Temp\ccLLkDzL.s:104    .text.WWDG_SetWindowValue:0000000000000000 .L0 
C:\Users\SOLDER~1\AppData\Local\Temp\ccLLkDzL.s:105    .text.WWDG_SetWindowValue:0000000000000002 .L0 
C:\Users\SOLDER~1\AppData\Local\Temp\ccLLkDzL.s:107    .text.WWDG_SetWindowValue:0000000000000004 .L0 
C:\Users\SOLDER~1\AppData\Local\Temp\ccLLkDzL.s:109    .text.WWDG_SetWindowValue:0000000000000006 .L0 
C:\Users\SOLDER~1\AppData\Local\Temp\ccLLkDzL.s:113    .text.WWDG_SetWindowValue:000000000000000c .L0 
C:\Users\SOLDER~1\AppData\Local\Temp\ccLLkDzL.s:115    .text.WWDG_SetWindowValue:0000000000000010 .L0 
C:\Users\SOLDER~1\AppData\Local\Temp\ccLLkDzL.s:119    .text.WWDG_SetWindowValue:000000000000001a .L0 
C:\Users\SOLDER~1\AppData\Local\Temp\ccLLkDzL.s:121    .text.WWDG_SetWindowValue:000000000000001e .L0 
C:\Users\SOLDER~1\AppData\Local\Temp\ccLLkDzL.s:123    .text.WWDG_SetWindowValue:0000000000000022 .L0 
C:\Users\SOLDER~1\AppData\Local\Temp\ccLLkDzL.s:126    .text.WWDG_SetWindowValue:000000000000002a .L0 
C:\Users\SOLDER~1\AppData\Local\Temp\ccLLkDzL.s:130    .text.WWDG_SetWindowValue:0000000000000034 .L0 
C:\Users\SOLDER~1\AppData\Local\Temp\ccLLkDzL.s:133    .text.WWDG_SetWindowValue:000000000000003c .L0 
C:\Users\SOLDER~1\AppData\Local\Temp\ccLLkDzL.s:136    .text.WWDG_SetWindowValue:0000000000000042 .L0 
C:\Users\SOLDER~1\AppData\Local\Temp\ccLLkDzL.s:138    .text.WWDG_SetWindowValue:0000000000000046 .L0 
C:\Users\SOLDER~1\AppData\Local\Temp\ccLLkDzL.s:139    .text.WWDG_SetWindowValue:0000000000000046 .L0 
C:\Users\SOLDER~1\AppData\Local\Temp\ccLLkDzL.s:141    .text.WWDG_SetWindowValue:0000000000000048 .L0 
C:\Users\SOLDER~1\AppData\Local\Temp\ccLLkDzL.s:143    .text.WWDG_SetWindowValue:000000000000004a .L0 
C:\Users\SOLDER~1\AppData\Local\Temp\ccLLkDzL.s:150    .text.WWDG_EnableIT:0000000000000000 WWDG_EnableIT
GAS LISTING C:\Users\SOLDER~1\AppData\Local\Temp\ccLLkDzL.s 			page 10


C:\Users\SOLDER~1\AppData\Local\Temp\ccLLkDzL.s:153    .text.WWDG_EnableIT:0000000000000000 .L0 
C:\Users\SOLDER~1\AppData\Local\Temp\ccLLkDzL.s:154    .text.WWDG_EnableIT:0000000000000000 $x
C:\Users\SOLDER~1\AppData\Local\Temp\ccLLkDzL.s:154    .text.WWDG_EnableIT:0000000000000000 .L0 
C:\Users\SOLDER~1\AppData\Local\Temp\ccLLkDzL.s:155    .text.WWDG_EnableIT:0000000000000002 .L0 
C:\Users\SOLDER~1\AppData\Local\Temp\ccLLkDzL.s:157    .text.WWDG_EnableIT:0000000000000004 .L0 
C:\Users\SOLDER~1\AppData\Local\Temp\ccLLkDzL.s:159    .text.WWDG_EnableIT:0000000000000006 .L0 
C:\Users\SOLDER~1\AppData\Local\Temp\ccLLkDzL.s:161    .text.WWDG_EnableIT:0000000000000006 .L0 
C:\Users\SOLDER~1\AppData\Local\Temp\ccLLkDzL.s:167    .text.WWDG_EnableIT:0000000000000018 .L0 
C:\Users\SOLDER~1\AppData\Local\Temp\ccLLkDzL.s:170    .text.WWDG_EnableIT:000000000000001e .L0 
C:\Users\SOLDER~1\AppData\Local\Temp\ccLLkDzL.s:172    .text.WWDG_EnableIT:0000000000000022 .L0 
C:\Users\SOLDER~1\AppData\Local\Temp\ccLLkDzL.s:173    .text.WWDG_EnableIT:0000000000000022 .L0 
C:\Users\SOLDER~1\AppData\Local\Temp\ccLLkDzL.s:175    .text.WWDG_EnableIT:0000000000000024 .L0 
C:\Users\SOLDER~1\AppData\Local\Temp\ccLLkDzL.s:177    .text.WWDG_EnableIT:0000000000000026 .L0 
C:\Users\SOLDER~1\AppData\Local\Temp\ccLLkDzL.s:184    .text.WWDG_SetCounter:0000000000000000 WWDG_SetCounter
C:\Users\SOLDER~1\AppData\Local\Temp\ccLLkDzL.s:187    .text.WWDG_SetCounter:0000000000000000 .L0 
C:\Users\SOLDER~1\AppData\Local\Temp\ccLLkDzL.s:188    .text.WWDG_SetCounter:0000000000000000 $x
C:\Users\SOLDER~1\AppData\Local\Temp\ccLLkDzL.s:188    .text.WWDG_SetCounter:0000000000000000 .L0 
C:\Users\SOLDER~1\AppData\Local\Temp\ccLLkDzL.s:189    .text.WWDG_SetCounter:0000000000000002 .L0 
C:\Users\SOLDER~1\AppData\Local\Temp\ccLLkDzL.s:191    .text.WWDG_SetCounter:0000000000000004 .L0 
C:\Users\SOLDER~1\AppData\Local\Temp\ccLLkDzL.s:193    .text.WWDG_SetCounter:0000000000000006 .L0 
C:\Users\SOLDER~1\AppData\Local\Temp\ccLLkDzL.s:197    .text.WWDG_SetCounter:000000000000000c .L0 
C:\Users\SOLDER~1\AppData\Local\Temp\ccLLkDzL.s:199    .text.WWDG_SetCounter:0000000000000010 .L0 
C:\Users\SOLDER~1\AppData\Local\Temp\ccLLkDzL.s:202    .text.WWDG_SetCounter:0000000000000018 .L0 
C:\Users\SOLDER~1\AppData\Local\Temp\ccLLkDzL.s:204    .text.WWDG_SetCounter:000000000000001c .L0 
C:\Users\SOLDER~1\AppData\Local\Temp\ccLLkDzL.s:206    .text.WWDG_SetCounter:000000000000001e .L0 
C:\Users\SOLDER~1\AppData\Local\Temp\ccLLkDzL.s:208    .text.WWDG_SetCounter:0000000000000022 .L0 
C:\Users\SOLDER~1\AppData\Local\Temp\ccLLkDzL.s:209    .text.WWDG_SetCounter:0000000000000022 .L0 
C:\Users\SOLDER~1\AppData\Local\Temp\ccLLkDzL.s:211    .text.WWDG_SetCounter:0000000000000024 .L0 
C:\Users\SOLDER~1\AppData\Local\Temp\ccLLkDzL.s:213    .text.WWDG_SetCounter:0000000000000026 .L0 
C:\Users\SOLDER~1\AppData\Local\Temp\ccLLkDzL.s:220    .text.WWDG_Enable:0000000000000000 WWDG_Enable
C:\Users\SOLDER~1\AppData\Local\Temp\ccLLkDzL.s:223    .text.WWDG_Enable:0000000000000000 .L0 
C:\Users\SOLDER~1\AppData\Local\Temp\ccLLkDzL.s:224    .text.WWDG_Enable:0000000000000000 $x
C:\Users\SOLDER~1\AppData\Local\Temp\ccLLkDzL.s:224    .text.WWDG_Enable:0000000000000000 .L0 
C:\Users\SOLDER~1\AppData\Local\Temp\ccLLkDzL.s:225    .text.WWDG_Enable:0000000000000002 .L0 
C:\Users\SOLDER~1\AppData\Local\Temp\ccLLkDzL.s:227    .text.WWDG_Enable:0000000000000004 .L0 
C:\Users\SOLDER~1\AppData\Local\Temp\ccLLkDzL.s:229    .text.WWDG_Enable:0000000000000006 .L0 
C:\Users\SOLDER~1\AppData\Local\Temp\ccLLkDzL.s:233    .text.WWDG_Enable:000000000000000c .L0 
C:\Users\SOLDER~1\AppData\Local\Temp\ccLLkDzL.s:237    .text.WWDG_Enable:0000000000000018 .L0 
C:\Users\SOLDER~1\AppData\Local\Temp\ccLLkDzL.s:240    .text.WWDG_Enable:0000000000000020 .L0 
C:\Users\SOLDER~1\AppData\Local\Temp\ccLLkDzL.s:242    .text.WWDG_Enable:0000000000000022 .L0 
C:\Users\SOLDER~1\AppData\Local\Temp\ccLLkDzL.s:244    .text.WWDG_Enable:0000000000000026 .L0 
C:\Users\SOLDER~1\AppData\Local\Temp\ccLLkDzL.s:245    .text.WWDG_Enable:0000000000000026 .L0 
C:\Users\SOLDER~1\AppData\Local\Temp\ccLLkDzL.s:247    .text.WWDG_Enable:0000000000000028 .L0 
C:\Users\SOLDER~1\AppData\Local\Temp\ccLLkDzL.s:249    .text.WWDG_Enable:000000000000002a .L0 
C:\Users\SOLDER~1\AppData\Local\Temp\ccLLkDzL.s:256    .text.WWDG_GetFlagStatus:0000000000000000 WWDG_GetFlagStatus
C:\Users\SOLDER~1\AppData\Local\Temp\ccLLkDzL.s:259    .text.WWDG_GetFlagStatus:0000000000000000 .L0 
C:\Users\SOLDER~1\AppData\Local\Temp\ccLLkDzL.s:260    .text.WWDG_GetFlagStatus:0000000000000000 $x
C:\Users\SOLDER~1\AppData\Local\Temp\ccLLkDzL.s:260    .text.WWDG_GetFlagStatus:0000000000000000 .L0 
C:\Users\SOLDER~1\AppData\Local\Temp\ccLLkDzL.s:261    .text.WWDG_GetFlagStatus:0000000000000002 .L0 
C:\Users\SOLDER~1\AppData\Local\Temp\ccLLkDzL.s:263    .text.WWDG_GetFlagStatus:0000000000000004 .L0 
C:\Users\SOLDER~1\AppData\Local\Temp\ccLLkDzL.s:265    .text.WWDG_GetFlagStatus:0000000000000006 .L0 
C:\Users\SOLDER~1\AppData\Local\Temp\ccLLkDzL.s:267    .text.WWDG_GetFlagStatus:0000000000000006 .L0 
C:\Users\SOLDER~1\AppData\Local\Temp\ccLLkDzL.s:270    .text.WWDG_GetFlagStatus:000000000000000e .L0 
C:\Users\SOLDER~1\AppData\Local\Temp\ccLLkDzL.s:272    .text.WWDG_GetFlagStatus:0000000000000010 .L0 
C:\Users\SOLDER~1\AppData\Local\Temp\ccLLkDzL.s:274    .text.WWDG_GetFlagStatus:0000000000000014 .L0 
C:\Users\SOLDER~1\AppData\Local\Temp\ccLLkDzL.s:275    .text.WWDG_GetFlagStatus:0000000000000014 .L0 
C:\Users\SOLDER~1\AppData\Local\Temp\ccLLkDzL.s:277    .text.WWDG_GetFlagStatus:0000000000000016 .L0 
GAS LISTING C:\Users\SOLDER~1\AppData\Local\Temp\ccLLkDzL.s 			page 11


C:\Users\SOLDER~1\AppData\Local\Temp\ccLLkDzL.s:279    .text.WWDG_GetFlagStatus:0000000000000018 .L0 
C:\Users\SOLDER~1\AppData\Local\Temp\ccLLkDzL.s:286    .text.WWDG_ClearFlag:0000000000000000 WWDG_ClearFlag
C:\Users\SOLDER~1\AppData\Local\Temp\ccLLkDzL.s:289    .text.WWDG_ClearFlag:0000000000000000 .L0 
C:\Users\SOLDER~1\AppData\Local\Temp\ccLLkDzL.s:290    .text.WWDG_ClearFlag:0000000000000000 $x
C:\Users\SOLDER~1\AppData\Local\Temp\ccLLkDzL.s:290    .text.WWDG_ClearFlag:0000000000000000 .L0 
C:\Users\SOLDER~1\AppData\Local\Temp\ccLLkDzL.s:291    .text.WWDG_ClearFlag:0000000000000002 .L0 
C:\Users\SOLDER~1\AppData\Local\Temp\ccLLkDzL.s:293    .text.WWDG_ClearFlag:0000000000000004 .L0 
C:\Users\SOLDER~1\AppData\Local\Temp\ccLLkDzL.s:295    .text.WWDG_ClearFlag:0000000000000006 .L0 
C:\Users\SOLDER~1\AppData\Local\Temp\ccLLkDzL.s:297    .text.WWDG_ClearFlag:0000000000000006 .L0 
C:\Users\SOLDER~1\AppData\Local\Temp\ccLLkDzL.s:300    .text.WWDG_ClearFlag:000000000000000e .L0 
C:\Users\SOLDER~1\AppData\Local\Temp\ccLLkDzL.s:302    .text.WWDG_ClearFlag:0000000000000012 .L0 
C:\Users\SOLDER~1\AppData\Local\Temp\ccLLkDzL.s:304    .text.WWDG_ClearFlag:0000000000000016 .L0 
C:\Users\SOLDER~1\AppData\Local\Temp\ccLLkDzL.s:305    .text.WWDG_ClearFlag:0000000000000016 .L0 
C:\Users\SOLDER~1\AppData\Local\Temp\ccLLkDzL.s:307    .text.WWDG_ClearFlag:0000000000000018 .L0 
C:\Users\SOLDER~1\AppData\Local\Temp\ccLLkDzL.s:309    .text.WWDG_ClearFlag:000000000000001a .L0 
C:\Users\SOLDER~1\AppData\Local\Temp\ccLLkDzL.s:30018  .debug_line_str:0000000000000066 .L0 
C:\Users\SOLDER~1\AppData\Local\Temp\ccLLkDzL.s:30018  .debug_line_str:00000000000000b0 .L0 
C:\Users\SOLDER~1\AppData\Local\Temp\ccLLkDzL.s:30018  .debug_line_str:00000000000000bc .L0 
C:\Users\SOLDER~1\AppData\Local\Temp\ccLLkDzL.s:30018  .debug_line_str:0000000000000109 .L0 
C:\Users\SOLDER~1\AppData\Local\Temp\ccLLkDzL.s:30018  .debug_line_str:0000000000000152 .L0 
C:\Users\SOLDER~1\AppData\Local\Temp\ccLLkDzL.s:30018  .debug_line_str:000000000000015e .L0 
C:\Users\SOLDER~1\AppData\Local\Temp\ccLLkDzL.s:30018  .debug_line_str:00000000000001b2 .L0 
C:\Users\SOLDER~1\AppData\Local\Temp\ccLLkDzL.s:30018  .debug_line_str:00000000000001f7 .L0 
C:\Users\SOLDER~1\AppData\Local\Temp\ccLLkDzL.s:30018  .debug_line_str:0000000000000207 .L0 
C:\Users\SOLDER~1\AppData\Local\Temp\ccLLkDzL.s:30018  .debug_line_str:0000000000000217 .L0 
C:\Users\SOLDER~1\AppData\Local\Temp\ccLLkDzL.s:30018  .debug_line_str:0000000000000228 .L0 
C:\Users\SOLDER~1\AppData\Local\Temp\ccLLkDzL.s:30018  .debug_line_str:0000000000000232 .L0 
C:\Users\SOLDER~1\AppData\Local\Temp\ccLLkDzL.s:30018  .debug_line_str:000000000000023f .L0 
C:\Users\SOLDER~1\AppData\Local\Temp\ccLLkDzL.s:30018  .debug_line_str:000000000000024a .L0 
C:\Users\SOLDER~1\AppData\Local\Temp\ccLLkDzL.s:30018  .debug_line_str:0000000000000259 .L0 
C:\Users\SOLDER~1\AppData\Local\Temp\ccLLkDzL.s:30018  .debug_line_str:0000000000000269 .L0 
C:\Users\SOLDER~1\AppData\Local\Temp\ccLLkDzL.s:30018  .debug_line_str:0000000000000272 .L0 
C:\Users\SOLDER~1\AppData\Local\Temp\ccLLkDzL.s:30018  .debug_line_str:000000000000027b .L0 
C:\Users\SOLDER~1\AppData\Local\Temp\ccLLkDzL.s:30018  .debug_line_str:0000000000000286 .L0 
C:\Users\SOLDER~1\AppData\Local\Temp\ccLLkDzL.s:30018  .debug_line_str:0000000000000298 .L0 
C:\Users\SOLDER~1\AppData\Local\Temp\ccLLkDzL.s:30018  .debug_line_str:00000000000002a2 .L0 
C:\Users\SOLDER~1\AppData\Local\Temp\ccLLkDzL.s:30018  .debug_line_str:00000000000002b2 .L0 
C:\Users\SOLDER~1\AppData\Local\Temp\ccLLkDzL.s:30018  .debug_line_str:00000000000002c1 .L0 
C:\Users\SOLDER~1\AppData\Local\Temp\ccLLkDzL.s:30018  .debug_line_str:00000000000002d0 .L0 
C:\Users\SOLDER~1\AppData\Local\Temp\ccLLkDzL.s:30018  .debug_line_str:00000000000002df .L0 
C:\Users\SOLDER~1\AppData\Local\Temp\ccLLkDzL.s:30018  .debug_line_str:00000000000002ee .L0 
C:\Users\SOLDER~1\AppData\Local\Temp\ccLLkDzL.s:30018  .debug_line_str:0000000000000300 .L0 
C:\Users\SOLDER~1\AppData\Local\Temp\ccLLkDzL.s:30018  .debug_line_str:000000000000030f .L0 
C:\Users\SOLDER~1\AppData\Local\Temp\ccLLkDzL.s:30018  .debug_line_str:000000000000031f .L0 
C:\Users\SOLDER~1\AppData\Local\Temp\ccLLkDzL.s:30018  .debug_line_str:0000000000000330 .L0 
C:\Users\SOLDER~1\AppData\Local\Temp\ccLLkDzL.s:30018  .debug_line_str:0000000000000340 .L0 
C:\Users\SOLDER~1\AppData\Local\Temp\ccLLkDzL.s:30018  .debug_line_str:000000000000034f .L0 
C:\Users\SOLDER~1\AppData\Local\Temp\ccLLkDzL.s:30018  .debug_line_str:000000000000035f .L0 
C:\Users\SOLDER~1\AppData\Local\Temp\ccLLkDzL.s:30018  .debug_line_str:000000000000036e .L0 
C:\Users\SOLDER~1\AppData\Local\Temp\ccLLkDzL.s:30018  .debug_line_str:000000000000037d .L0 
C:\Users\SOLDER~1\AppData\Local\Temp\ccLLkDzL.s:30018  .debug_line_str:000000000000038c .L0 
C:\Users\SOLDER~1\AppData\Local\Temp\ccLLkDzL.s:30018  .debug_line_str:000000000000039b .L0 
C:\Users\SOLDER~1\AppData\Local\Temp\ccLLkDzL.s:30018  .debug_line_str:00000000000003ac .L0 
C:\Users\SOLDER~1\AppData\Local\Temp\ccLLkDzL.s:50     .text.WWDG_DeInit:0000000000000032 .L0 
C:\Users\SOLDER~1\AppData\Local\Temp\ccLLkDzL.s:96     .text.WWDG_SetPrescaler:0000000000000044 .L0 
C:\Users\SOLDER~1\AppData\Local\Temp\ccLLkDzL.s:146    .text.WWDG_SetWindowValue:000000000000004a .L0 
C:\Users\SOLDER~1\AppData\Local\Temp\ccLLkDzL.s:180    .text.WWDG_EnableIT:0000000000000026 .L0 
GAS LISTING C:\Users\SOLDER~1\AppData\Local\Temp\ccLLkDzL.s 			page 12


C:\Users\SOLDER~1\AppData\Local\Temp\ccLLkDzL.s:216    .text.WWDG_SetCounter:0000000000000026 .L0 
C:\Users\SOLDER~1\AppData\Local\Temp\ccLLkDzL.s:252    .text.WWDG_Enable:000000000000002a .L0 
C:\Users\SOLDER~1\AppData\Local\Temp\ccLLkDzL.s:282    .text.WWDG_GetFlagStatus:0000000000000018 .L0 
C:\Users\SOLDER~1\AppData\Local\Temp\ccLLkDzL.s:312    .text.WWDG_ClearFlag:000000000000001a .L0 
                     .debug_frame:0000000000000000 .L0 
C:\Users\SOLDER~1\AppData\Local\Temp\ccLLkDzL.s:593    .debug_abbrev:0000000000000000 .Ldebug_abbrev0
C:\Users\SOLDER~1\AppData\Local\Temp\ccLLkDzL.s:18611  .debug_str:000000000000063e .LASF5749
C:\Users\SOLDER~1\AppData\Local\Temp\ccLLkDzL.s:30014  .debug_line_str:0000000000000000 .LASF0
C:\Users\SOLDER~1\AppData\Local\Temp\ccLLkDzL.s:30016  .debug_line_str:000000000000001c .LASF1
C:\Users\SOLDER~1\AppData\Local\Temp\ccLLkDzL.s:956    .debug_rnglists:000000000000000c .LLRL0
C:\Users\SOLDER~1\AppData\Local\Temp\ccLLkDzL.s:18511  .debug_line:0000000000000000 .Ldebug_line0
C:\Users\SOLDER~1\AppData\Local\Temp\ccLLkDzL.s:984    .debug_macro:0000000000000000 .Ldebug_macro0
C:\Users\SOLDER~1\AppData\Local\Temp\ccLLkDzL.s:29951  .debug_str:000000000002eaf5 .LASF5716
C:\Users\SOLDER~1\AppData\Local\Temp\ccLLkDzL.s:24743  .debug_str:00000000000196cb .LASF5717
C:\Users\SOLDER~1\AppData\Local\Temp\ccLLkDzL.s:20775  .debug_str:0000000000009357 .LASF5722
C:\Users\SOLDER~1\AppData\Local\Temp\ccLLkDzL.s:24241  .debug_str:0000000000017631 .LASF5718
C:\Users\SOLDER~1\AppData\Local\Temp\ccLLkDzL.s:23543  .debug_str:000000000001495a .LASF5719
C:\Users\SOLDER~1\AppData\Local\Temp\ccLLkDzL.s:23653  .debug_str:000000000001508b .LASF5720
C:\Users\SOLDER~1\AppData\Local\Temp\ccLLkDzL.s:27985  .debug_str:0000000000026ae9 .LASF5721
C:\Users\SOLDER~1\AppData\Local\Temp\ccLLkDzL.s:24941  .debug_str:000000000001a34b .LASF5723
C:\Users\SOLDER~1\AppData\Local\Temp\ccLLkDzL.s:18623  .debug_str:000000000000079a .LASF5724
C:\Users\SOLDER~1\AppData\Local\Temp\ccLLkDzL.s:18533  .debug_str:000000000000014f .LASF5725
C:\Users\SOLDER~1\AppData\Local\Temp\ccLLkDzL.s:28073  .debug_str:0000000000027099 .LASF5726
C:\Users\SOLDER~1\AppData\Local\Temp\ccLLkDzL.s:27649  .debug_str:00000000000253ed .LASF5727
C:\Users\SOLDER~1\AppData\Local\Temp\ccLLkDzL.s:19349  .debug_str:00000000000036b5 .LASF5728
C:\Users\SOLDER~1\AppData\Local\Temp\ccLLkDzL.s:20589  .debug_str:00000000000086f7 .LASF5729
C:\Users\SOLDER~1\AppData\Local\Temp\ccLLkDzL.s:22093  .debug_str:000000000000ea05 .LASF5730
C:\Users\SOLDER~1\AppData\Local\Temp\ccLLkDzL.s:24001  .debug_str:00000000000166a3 .LASF5731
C:\Users\SOLDER~1\AppData\Local\Temp\ccLLkDzL.s:27739  .debug_str:0000000000025a14 .LASF5732
C:\Users\SOLDER~1\AppData\Local\Temp\ccLLkDzL.s:21137  .debug_str:000000000000ab27 .LASF5733
C:\Users\SOLDER~1\AppData\Local\Temp\ccLLkDzL.s:24647  .debug_str:00000000000190bd .LASF5734
C:\Users\SOLDER~1\AppData\Local\Temp\ccLLkDzL.s:18887  .debug_str:00000000000018b0 .LASF5735
C:\Users\SOLDER~1\AppData\Local\Temp\ccLLkDzL.s:30007  .debug_str:000000000002ee55 .LASF5736
C:\Users\SOLDER~1\AppData\Local\Temp\ccLLkDzL.s:23779  .debug_str:00000000000158d2 .LASF5737
C:\Users\SOLDER~1\AppData\Local\Temp\ccLLkDzL.s:18555  .debug_str:00000000000002a4 .LASF5750
C:\Users\SOLDER~1\AppData\Local\Temp\ccLLkDzL.s:19099  .debug_str:00000000000026b8 .LASF5741
C:\Users\SOLDER~1\AppData\Local\Temp\ccLLkDzL.s:287    .text.WWDG_ClearFlag:0000000000000000 .LFB23
C:\Users\SOLDER~1\AppData\Local\Temp\ccLLkDzL.s:310    .text.WWDG_ClearFlag:000000000000001a .LFE23
C:\Users\SOLDER~1\AppData\Local\Temp\ccLLkDzL.s:29155  .debug_str:000000000002b740 .LASF5751
C:\Users\SOLDER~1\AppData\Local\Temp\ccLLkDzL.s:257    .text.WWDG_GetFlagStatus:0000000000000000 .LFB22
C:\Users\SOLDER~1\AppData\Local\Temp\ccLLkDzL.s:280    .text.WWDG_GetFlagStatus:0000000000000018 .LFE22
C:\Users\SOLDER~1\AppData\Local\Temp\ccLLkDzL.s:21035  .debug_str:000000000000a45b .LASF5738
C:\Users\SOLDER~1\AppData\Local\Temp\ccLLkDzL.s:221    .text.WWDG_Enable:0000000000000000 .LFB21
C:\Users\SOLDER~1\AppData\Local\Temp\ccLLkDzL.s:250    .text.WWDG_Enable:000000000000002a .LFE21
C:\Users\SOLDER~1\AppData\Local\Temp\ccLLkDzL.s:22127  .debug_str:000000000000ec2e .LASF5740
C:\Users\SOLDER~1\AppData\Local\Temp\ccLLkDzL.s:26151  .debug_str:000000000001f289 .LASF5739
C:\Users\SOLDER~1\AppData\Local\Temp\ccLLkDzL.s:185    .text.WWDG_SetCounter:0000000000000000 .LFB20
C:\Users\SOLDER~1\AppData\Local\Temp\ccLLkDzL.s:214    .text.WWDG_SetCounter:0000000000000026 .LFE20
C:\Users\SOLDER~1\AppData\Local\Temp\ccLLkDzL.s:25227  .debug_str:000000000001b5b8 .LASF5742
C:\Users\SOLDER~1\AppData\Local\Temp\ccLLkDzL.s:151    .text.WWDG_EnableIT:0000000000000000 .LFB19
C:\Users\SOLDER~1\AppData\Local\Temp\ccLLkDzL.s:178    .text.WWDG_EnableIT:0000000000000026 .LFE19
C:\Users\SOLDER~1\AppData\Local\Temp\ccLLkDzL.s:23415  .debug_str:00000000000140a3 .LASF5743
C:\Users\SOLDER~1\AppData\Local\Temp\ccLLkDzL.s:101    .text.WWDG_SetWindowValue:0000000000000000 .LFB18
C:\Users\SOLDER~1\AppData\Local\Temp\ccLLkDzL.s:144    .text.WWDG_SetWindowValue:000000000000004a .LFE18
C:\Users\SOLDER~1\AppData\Local\Temp\ccLLkDzL.s:25249  .debug_str:000000000001b6e5 .LASF5744
C:\Users\SOLDER~1\AppData\Local\Temp\ccLLkDzL.s:19161  .debug_str:0000000000002ace .LASF5747
C:\Users\SOLDER~1\AppData\Local\Temp\ccLLkDzL.s:25911  .debug_str:000000000001e283 .LASF5745
GAS LISTING C:\Users\SOLDER~1\AppData\Local\Temp\ccLLkDzL.s 			page 13


C:\Users\SOLDER~1\AppData\Local\Temp\ccLLkDzL.s:55     .text.WWDG_SetPrescaler:0000000000000000 .LFB17
C:\Users\SOLDER~1\AppData\Local\Temp\ccLLkDzL.s:94     .text.WWDG_SetPrescaler:0000000000000044 .LFE17
C:\Users\SOLDER~1\AppData\Local\Temp\ccLLkDzL.s:27059  .debug_str:0000000000022d61 .LASF5746
C:\Users\SOLDER~1\AppData\Local\Temp\ccLLkDzL.s:28065  .debug_str:000000000002701d .LASF5748
C:\Users\SOLDER~1\AppData\Local\Temp\ccLLkDzL.s:15     .text.WWDG_DeInit:0000000000000000 .LFB16
C:\Users\SOLDER~1\AppData\Local\Temp\ccLLkDzL.s:48     .text.WWDG_DeInit:0000000000000032 .LFE16
C:\Users\SOLDER~1\AppData\Local\Temp\ccLLkDzL.s:320    .debug_info:0000000000000000 .Ldebug_info0
C:\Users\SOLDER~1\AppData\Local\Temp\ccLLkDzL.s:1238   .debug_macro:0000000000000000 .Ldebug_macro2
C:\Users\SOLDER~1\AppData\Local\Temp\ccLLkDzL.s:18775  .debug_str:00000000000011b4 .LASF318
C:\Users\SOLDER~1\AppData\Local\Temp\ccLLkDzL.s:2191   .debug_macro:0000000000000000 .Ldebug_macro3
C:\Users\SOLDER~1\AppData\Local\Temp\ccLLkDzL.s:24839  .debug_str:0000000000019cce .LASF336
C:\Users\SOLDER~1\AppData\Local\Temp\ccLLkDzL.s:19549  .debug_str:000000000000437b .LASF337
C:\Users\SOLDER~1\AppData\Local\Temp\ccLLkDzL.s:26813  .debug_str:0000000000021d85 .LASF338
C:\Users\SOLDER~1\AppData\Local\Temp\ccLLkDzL.s:2247   .debug_macro:0000000000000000 .Ldebug_macro4
C:\Users\SOLDER~1\AppData\Local\Temp\ccLLkDzL.s:2267   .debug_macro:0000000000000000 .Ldebug_macro5
C:\Users\SOLDER~1\AppData\Local\Temp\ccLLkDzL.s:2332   .debug_macro:0000000000000000 .Ldebug_macro6
C:\Users\SOLDER~1\AppData\Local\Temp\ccLLkDzL.s:2373   .debug_macro:0000000000000000 .Ldebug_macro7
C:\Users\SOLDER~1\AppData\Local\Temp\ccLLkDzL.s:2498   .debug_macro:0000000000000000 .Ldebug_macro8
C:\Users\SOLDER~1\AppData\Local\Temp\ccLLkDzL.s:2554   .debug_macro:0000000000000000 .Ldebug_macro9
C:\Users\SOLDER~1\AppData\Local\Temp\ccLLkDzL.s:18883  .debug_str:0000000000001877 .LASF493
C:\Users\SOLDER~1\AppData\Local\Temp\ccLLkDzL.s:2766   .debug_macro:0000000000000000 .Ldebug_macro10
C:\Users\SOLDER~1\AppData\Local\Temp\ccLLkDzL.s:2804   .debug_macro:0000000000000000 .Ldebug_macro11
C:\Users\SOLDER~1\AppData\Local\Temp\ccLLkDzL.s:19147  .debug_str:00000000000029f1 .LASF4592
C:\Users\SOLDER~1\AppData\Local\Temp\ccLLkDzL.s:27611  .debug_str:0000000000025188 .LASF4593
C:\Users\SOLDER~1\AppData\Local\Temp\ccLLkDzL.s:15070  .debug_macro:0000000000000000 .Ldebug_macro12
C:\Users\SOLDER~1\AppData\Local\Temp\ccLLkDzL.s:15351  .debug_macro:0000000000000000 .Ldebug_macro13
C:\Users\SOLDER~1\AppData\Local\Temp\ccLLkDzL.s:15503  .debug_macro:0000000000000000 .Ldebug_macro14
C:\Users\SOLDER~1\AppData\Local\Temp\ccLLkDzL.s:23993  .debug_str:0000000000016615 .LASF4851
C:\Users\SOLDER~1\AppData\Local\Temp\ccLLkDzL.s:15856  .debug_macro:0000000000000000 .Ldebug_macro15
C:\Users\SOLDER~1\AppData\Local\Temp\ccLLkDzL.s:15921  .debug_macro:0000000000000000 .Ldebug_macro16
C:\Users\SOLDER~1\AppData\Local\Temp\ccLLkDzL.s:16190  .debug_macro:0000000000000000 .Ldebug_macro17
C:\Users\SOLDER~1\AppData\Local\Temp\ccLLkDzL.s:16261  .debug_macro:0000000000000000 .Ldebug_macro18
C:\Users\SOLDER~1\AppData\Local\Temp\ccLLkDzL.s:16425  .debug_macro:0000000000000000 .Ldebug_macro19
C:\Users\SOLDER~1\AppData\Local\Temp\ccLLkDzL.s:16697  .debug_macro:0000000000000000 .Ldebug_macro20
C:\Users\SOLDER~1\AppData\Local\Temp\ccLLkDzL.s:16948  .debug_macro:0000000000000000 .Ldebug_macro21
C:\Users\SOLDER~1\AppData\Local\Temp\ccLLkDzL.s:16989  .debug_macro:0000000000000000 .Ldebug_macro22
C:\Users\SOLDER~1\AppData\Local\Temp\ccLLkDzL.s:17042  .debug_macro:0000000000000000 .Ldebug_macro23
C:\Users\SOLDER~1\AppData\Local\Temp\ccLLkDzL.s:17443  .debug_macro:0000000000000000 .Ldebug_macro24
C:\Users\SOLDER~1\AppData\Local\Temp\ccLLkDzL.s:17475  .debug_macro:0000000000000000 .Ldebug_macro25
C:\Users\SOLDER~1\AppData\Local\Temp\ccLLkDzL.s:17705  .debug_macro:0000000000000000 .Ldebug_macro26
C:\Users\SOLDER~1\AppData\Local\Temp\ccLLkDzL.s:18301  .debug_macro:0000000000000000 .Ldebug_macro27
C:\Users\SOLDER~1\AppData\Local\Temp\ccLLkDzL.s:18471  .debug_macro:0000000000000000 .Ldebug_macro28
C:\Users\SOLDER~1\AppData\Local\Temp\ccLLkDzL.s:18494  .debug_macro:0000000000000000 .Ldebug_macro29
C:\Users\SOLDER~1\AppData\Local\Temp\ccLLkDzL.s:19057  .debug_str:0000000000002404 .LASF5712
C:\Users\SOLDER~1\AppData\Local\Temp\ccLLkDzL.s:25279  .debug_str:000000000001b8e6 .LASF5713
C:\Users\SOLDER~1\AppData\Local\Temp\ccLLkDzL.s:22957  .debug_str:0000000000012180 .LASF5714
C:\Users\SOLDER~1\AppData\Local\Temp\ccLLkDzL.s:18643  .debug_str:0000000000000914 .LASF5715
C:\Users\SOLDER~1\AppData\Local\Temp\ccLLkDzL.s:19927  .debug_str:0000000000005b7c .LASF2
C:\Users\SOLDER~1\AppData\Local\Temp\ccLLkDzL.s:28763  .debug_str:0000000000029d84 .LASF3
C:\Users\SOLDER~1\AppData\Local\Temp\ccLLkDzL.s:29135  .debug_str:000000000002b607 .LASF4
C:\Users\SOLDER~1\AppData\Local\Temp\ccLLkDzL.s:22631  .debug_str:0000000000010ccd .LASF5
C:\Users\SOLDER~1\AppData\Local\Temp\ccLLkDzL.s:23971  .debug_str:00000000000164cb .LASF6
C:\Users\SOLDER~1\AppData\Local\Temp\ccLLkDzL.s:29549  .debug_str:000000000002d11f .LASF7
C:\Users\SOLDER~1\AppData\Local\Temp\ccLLkDzL.s:22691  .debug_str:00000000000110a1 .LASF8
C:\Users\SOLDER~1\AppData\Local\Temp\ccLLkDzL.s:23431  .debug_str:00000000000141c9 .LASF9
C:\Users\SOLDER~1\AppData\Local\Temp\ccLLkDzL.s:20659  .debug_str:0000000000008b7a .LASF10
C:\Users\SOLDER~1\AppData\Local\Temp\ccLLkDzL.s:28467  .debug_str:0000000000028a54 .LASF11
GAS LISTING C:\Users\SOLDER~1\AppData\Local\Temp\ccLLkDzL.s 			page 14


C:\Users\SOLDER~1\AppData\Local\Temp\ccLLkDzL.s:25031  .debug_str:000000000001a917 .LASF12
C:\Users\SOLDER~1\AppData\Local\Temp\ccLLkDzL.s:24887  .debug_str:0000000000019fde .LASF13
C:\Users\SOLDER~1\AppData\Local\Temp\ccLLkDzL.s:27417  .debug_str:00000000000244ed .LASF14
C:\Users\SOLDER~1\AppData\Local\Temp\ccLLkDzL.s:24907  .debug_str:000000000001a11a .LASF15
C:\Users\SOLDER~1\AppData\Local\Temp\ccLLkDzL.s:21141  .debug_str:000000000000ab57 .LASF16
C:\Users\SOLDER~1\AppData\Local\Temp\ccLLkDzL.s:26313  .debug_str:000000000001fcf6 .LASF17
C:\Users\SOLDER~1\AppData\Local\Temp\ccLLkDzL.s:27031  .debug_str:0000000000022ba7 .LASF18
C:\Users\SOLDER~1\AppData\Local\Temp\ccLLkDzL.s:21181  .debug_str:000000000000ae02 .LASF19
C:\Users\SOLDER~1\AppData\Local\Temp\ccLLkDzL.s:20083  .debug_str:00000000000065cd .LASF20
C:\Users\SOLDER~1\AppData\Local\Temp\ccLLkDzL.s:22173  .debug_str:000000000000ef10 .LASF21
C:\Users\SOLDER~1\AppData\Local\Temp\ccLLkDzL.s:27885  .debug_str:0000000000026424 .LASF22
C:\Users\SOLDER~1\AppData\Local\Temp\ccLLkDzL.s:24715  .debug_str:000000000001955f .LASF23
C:\Users\SOLDER~1\AppData\Local\Temp\ccLLkDzL.s:24713  .debug_str:0000000000019545 .LASF24
C:\Users\SOLDER~1\AppData\Local\Temp\ccLLkDzL.s:27341  .debug_str:0000000000023fc6 .LASF25
C:\Users\SOLDER~1\AppData\Local\Temp\ccLLkDzL.s:27999  .debug_str:0000000000026bc7 .LASF26
C:\Users\SOLDER~1\AppData\Local\Temp\ccLLkDzL.s:19441  .debug_str:0000000000003ca8 .LASF27
C:\Users\SOLDER~1\AppData\Local\Temp\ccLLkDzL.s:24115  .debug_str:0000000000016dc4 .LASF28
C:\Users\SOLDER~1\AppData\Local\Temp\ccLLkDzL.s:27235  .debug_str:00000000000238b7 .LASF29
C:\Users\SOLDER~1\AppData\Local\Temp\ccLLkDzL.s:27041  .debug_str:0000000000022c4f .LASF30
C:\Users\SOLDER~1\AppData\Local\Temp\ccLLkDzL.s:19865  .debug_str:000000000000572e .LASF31
C:\Users\SOLDER~1\AppData\Local\Temp\ccLLkDzL.s:26091  .debug_str:000000000001ee62 .LASF32
C:\Users\SOLDER~1\AppData\Local\Temp\ccLLkDzL.s:18841  .debug_str:00000000000015f1 .LASF33
C:\Users\SOLDER~1\AppData\Local\Temp\ccLLkDzL.s:22855  .debug_str:0000000000011b38 .LASF34
C:\Users\SOLDER~1\AppData\Local\Temp\ccLLkDzL.s:23785  .debug_str:0000000000015926 .LASF35
C:\Users\SOLDER~1\AppData\Local\Temp\ccLLkDzL.s:21925  .debug_str:000000000000decf .LASF36
C:\Users\SOLDER~1\AppData\Local\Temp\ccLLkDzL.s:21019  .debug_str:000000000000a358 .LASF37
C:\Users\SOLDER~1\AppData\Local\Temp\ccLLkDzL.s:20873  .debug_str:00000000000099b7 .LASF38
C:\Users\SOLDER~1\AppData\Local\Temp\ccLLkDzL.s:22197  .debug_str:000000000000f083 .LASF39
C:\Users\SOLDER~1\AppData\Local\Temp\ccLLkDzL.s:25139  .debug_str:000000000001b02c .LASF40
C:\Users\SOLDER~1\AppData\Local\Temp\ccLLkDzL.s:20405  .debug_str:0000000000007ac6 .LASF41
C:\Users\SOLDER~1\AppData\Local\Temp\ccLLkDzL.s:22569  .debug_str:00000000000108e7 .LASF42
C:\Users\SOLDER~1\AppData\Local\Temp\ccLLkDzL.s:28301  .debug_str:0000000000027f95 .LASF43
C:\Users\SOLDER~1\AppData\Local\Temp\ccLLkDzL.s:19203  .debug_str:0000000000002d41 .LASF44
C:\Users\SOLDER~1\AppData\Local\Temp\ccLLkDzL.s:22265  .debug_str:000000000000f4ec .LASF45
C:\Users\SOLDER~1\AppData\Local\Temp\ccLLkDzL.s:23165  .debug_str:0000000000012f44 .LASF46
C:\Users\SOLDER~1\AppData\Local\Temp\ccLLkDzL.s:27617  .debug_str:00000000000251f2 .LASF47
C:\Users\SOLDER~1\AppData\Local\Temp\ccLLkDzL.s:25129  .debug_str:000000000001af73 .LASF48
C:\Users\SOLDER~1\AppData\Local\Temp\ccLLkDzL.s:23017  .debug_str:0000000000012581 .LASF49
C:\Users\SOLDER~1\AppData\Local\Temp\ccLLkDzL.s:19695  .debug_str:0000000000004cb2 .LASF50
C:\Users\SOLDER~1\AppData\Local\Temp\ccLLkDzL.s:23167  .debug_str:0000000000012f5d .LASF51
C:\Users\SOLDER~1\AppData\Local\Temp\ccLLkDzL.s:27795  .debug_str:0000000000025e00 .LASF52
C:\Users\SOLDER~1\AppData\Local\Temp\ccLLkDzL.s:21923  .debug_str:000000000000deaf .LASF53
C:\Users\SOLDER~1\AppData\Local\Temp\ccLLkDzL.s:19045  .debug_str:0000000000002331 .LASF54
C:\Users\SOLDER~1\AppData\Local\Temp\ccLLkDzL.s:18541  .debug_str:00000000000001b4 .LASF55
C:\Users\SOLDER~1\AppData\Local\Temp\ccLLkDzL.s:29177  .debug_str:000000000002b8a5 .LASF56
C:\Users\SOLDER~1\AppData\Local\Temp\ccLLkDzL.s:27211  .debug_str:000000000002375a .LASF57
C:\Users\SOLDER~1\AppData\Local\Temp\ccLLkDzL.s:18625  .debug_str:00000000000007ac .LASF58
C:\Users\SOLDER~1\AppData\Local\Temp\ccLLkDzL.s:22535  .debug_str:0000000000010694 .LASF59
C:\Users\SOLDER~1\AppData\Local\Temp\ccLLkDzL.s:20489  .debug_str:0000000000008074 .LASF60
C:\Users\SOLDER~1\AppData\Local\Temp\ccLLkDzL.s:26869  .debug_str:00000000000220c4 .LASF61
C:\Users\SOLDER~1\AppData\Local\Temp\ccLLkDzL.s:18793  .debug_str:00000000000012c7 .LASF62
C:\Users\SOLDER~1\AppData\Local\Temp\ccLLkDzL.s:21811  .debug_str:000000000000d775 .LASF63
C:\Users\SOLDER~1\AppData\Local\Temp\ccLLkDzL.s:24677  .debug_str:00000000000192b9 .LASF64
C:\Users\SOLDER~1\AppData\Local\Temp\ccLLkDzL.s:25493  .debug_str:000000000001c73d .LASF65
C:\Users\SOLDER~1\AppData\Local\Temp\ccLLkDzL.s:19285  .debug_str:0000000000003292 .LASF66
C:\Users\SOLDER~1\AppData\Local\Temp\ccLLkDzL.s:21913  .debug_str:000000000000de00 .LASF67
C:\Users\SOLDER~1\AppData\Local\Temp\ccLLkDzL.s:21645  .debug_str:000000000000cc95 .LASF68
GAS LISTING C:\Users\SOLDER~1\AppData\Local\Temp\ccLLkDzL.s 			page 15


C:\Users\SOLDER~1\AppData\Local\Temp\ccLLkDzL.s:25119  .debug_str:000000000001aeeb .LASF69
C:\Users\SOLDER~1\AppData\Local\Temp\ccLLkDzL.s:23781  .debug_str:00000000000158df .LASF70
C:\Users\SOLDER~1\AppData\Local\Temp\ccLLkDzL.s:28937  .debug_str:000000000002a8dd .LASF71
C:\Users\SOLDER~1\AppData\Local\Temp\ccLLkDzL.s:29401  .debug_str:000000000002c73f .LASF72
C:\Users\SOLDER~1\AppData\Local\Temp\ccLLkDzL.s:22973  .debug_str:0000000000012282 .LASF73
C:\Users\SOLDER~1\AppData\Local\Temp\ccLLkDzL.s:22085  .debug_str:000000000000e9a0 .LASF74
C:\Users\SOLDER~1\AppData\Local\Temp\ccLLkDzL.s:19713  .debug_str:0000000000004dc9 .LASF75
C:\Users\SOLDER~1\AppData\Local\Temp\ccLLkDzL.s:23007  .debug_str:00000000000124e7 .LASF76
C:\Users\SOLDER~1\AppData\Local\Temp\ccLLkDzL.s:21561  .debug_str:000000000000c6f0 .LASF77
C:\Users\SOLDER~1\AppData\Local\Temp\ccLLkDzL.s:23255  .debug_str:0000000000013547 .LASF78
C:\Users\SOLDER~1\AppData\Local\Temp\ccLLkDzL.s:23787  .debug_str:0000000000015954 .LASF79
C:\Users\SOLDER~1\AppData\Local\Temp\ccLLkDzL.s:23195  .debug_str:000000000001313f .LASF80
C:\Users\SOLDER~1\AppData\Local\Temp\ccLLkDzL.s:27705  .debug_str:00000000000257c8 .LASF81
C:\Users\SOLDER~1\AppData\Local\Temp\ccLLkDzL.s:25619  .debug_str:000000000001cfda .LASF82
C:\Users\SOLDER~1\AppData\Local\Temp\ccLLkDzL.s:26055  .debug_str:000000000001ec2c .LASF83
C:\Users\SOLDER~1\AppData\Local\Temp\ccLLkDzL.s:28923  .debug_str:000000000002a7f4 .LASF84
C:\Users\SOLDER~1\AppData\Local\Temp\ccLLkDzL.s:20965  .debug_str:0000000000009fb6 .LASF85
C:\Users\SOLDER~1\AppData\Local\Temp\ccLLkDzL.s:24799  .debug_str:0000000000019a6b .LASF86
C:\Users\SOLDER~1\AppData\Local\Temp\ccLLkDzL.s:23009  .debug_str:000000000001250e .LASF87
C:\Users\SOLDER~1\AppData\Local\Temp\ccLLkDzL.s:25145  .debug_str:000000000001b08c .LASF88
C:\Users\SOLDER~1\AppData\Local\Temp\ccLLkDzL.s:20223  .debug_str:0000000000006f5c .LASF89
C:\Users\SOLDER~1\AppData\Local\Temp\ccLLkDzL.s:29395  .debug_str:000000000002c6dd .LASF90
C:\Users\SOLDER~1\AppData\Local\Temp\ccLLkDzL.s:29091  .debug_str:000000000002b313 .LASF91
C:\Users\SOLDER~1\AppData\Local\Temp\ccLLkDzL.s:26479  .debug_str:00000000000207bb .LASF92
C:\Users\SOLDER~1\AppData\Local\Temp\ccLLkDzL.s:25215  .debug_str:000000000001b501 .LASF93
C:\Users\SOLDER~1\AppData\Local\Temp\ccLLkDzL.s:26503  .debug_str:0000000000020956 .LASF94
C:\Users\SOLDER~1\AppData\Local\Temp\ccLLkDzL.s:29311  .debug_str:000000000002c1a8 .LASF95
C:\Users\SOLDER~1\AppData\Local\Temp\ccLLkDzL.s:28103  .debug_str:00000000000272a9 .LASF96
C:\Users\SOLDER~1\AppData\Local\Temp\ccLLkDzL.s:21053  .debug_str:000000000000a581 .LASF97
C:\Users\SOLDER~1\AppData\Local\Temp\ccLLkDzL.s:27335  .debug_str:0000000000023f4b .LASF98
C:\Users\SOLDER~1\AppData\Local\Temp\ccLLkDzL.s:23493  .debug_str:00000000000145fe .LASF99
C:\Users\SOLDER~1\AppData\Local\Temp\ccLLkDzL.s:27499  .debug_str:0000000000024a62 .LASF100
C:\Users\SOLDER~1\AppData\Local\Temp\ccLLkDzL.s:29587  .debug_str:000000000002d380 .LASF101
C:\Users\SOLDER~1\AppData\Local\Temp\ccLLkDzL.s:23101  .debug_str:0000000000012b1a .LASF102
C:\Users\SOLDER~1\AppData\Local\Temp\ccLLkDzL.s:27053  .debug_str:0000000000022d00 .LASF103
C:\Users\SOLDER~1\AppData\Local\Temp\ccLLkDzL.s:25683  .debug_str:000000000001d420 .LASF104
C:\Users\SOLDER~1\AppData\Local\Temp\ccLLkDzL.s:22587  .debug_str:00000000000109fa .LASF105
C:\Users\SOLDER~1\AppData\Local\Temp\ccLLkDzL.s:20319  .debug_str:0000000000007567 .LASF106
C:\Users\SOLDER~1\AppData\Local\Temp\ccLLkDzL.s:22849  .debug_str:0000000000011ac3 .LASF107
C:\Users\SOLDER~1\AppData\Local\Temp\ccLLkDzL.s:21837  .debug_str:000000000000d901 .LASF108
C:\Users\SOLDER~1\AppData\Local\Temp\ccLLkDzL.s:23025  .debug_str:0000000000012611 .LASF109
C:\Users\SOLDER~1\AppData\Local\Temp\ccLLkDzL.s:19747  .debug_str:0000000000004fc0 .LASF110
C:\Users\SOLDER~1\AppData\Local\Temp\ccLLkDzL.s:22843  .debug_str:0000000000011a6d .LASF111
C:\Users\SOLDER~1\AppData\Local\Temp\ccLLkDzL.s:21833  .debug_str:000000000000d8cc .LASF112
C:\Users\SOLDER~1\AppData\Local\Temp\ccLLkDzL.s:23313  .debug_str:0000000000013997 .LASF113
C:\Users\SOLDER~1\AppData\Local\Temp\ccLLkDzL.s:22225  .debug_str:000000000000f255 .LASF114
C:\Users\SOLDER~1\AppData\Local\Temp\ccLLkDzL.s:24767  .debug_str:000000000001985b .LASF115
C:\Users\SOLDER~1\AppData\Local\Temp\ccLLkDzL.s:21311  .debug_str:000000000000b62e .LASF116
C:\Users\SOLDER~1\AppData\Local\Temp\ccLLkDzL.s:21047  .debug_str:000000000000a4fa .LASF117
C:\Users\SOLDER~1\AppData\Local\Temp\ccLLkDzL.s:22393  .debug_str:000000000000fdd6 .LASF118
C:\Users\SOLDER~1\AppData\Local\Temp\ccLLkDzL.s:28973  .debug_str:000000000002ab57 .LASF119
C:\Users\SOLDER~1\AppData\Local\Temp\ccLLkDzL.s:24301  .debug_str:0000000000017a00 .LASF120
C:\Users\SOLDER~1\AppData\Local\Temp\ccLLkDzL.s:20815  .debug_str:00000000000095fc .LASF121
C:\Users\SOLDER~1\AppData\Local\Temp\ccLLkDzL.s:25475  .debug_str:000000000001c609 .LASF122
C:\Users\SOLDER~1\AppData\Local\Temp\ccLLkDzL.s:29719  .debug_str:000000000002dc09 .LASF123
C:\Users\SOLDER~1\AppData\Local\Temp\ccLLkDzL.s:22139  .debug_str:000000000000ecdb .LASF124
C:\Users\SOLDER~1\AppData\Local\Temp\ccLLkDzL.s:27691  .debug_str:00000000000256b2 .LASF125
GAS LISTING C:\Users\SOLDER~1\AppData\Local\Temp\ccLLkDzL.s 			page 16


C:\Users\SOLDER~1\AppData\Local\Temp\ccLLkDzL.s:21615  .debug_str:000000000000ca9f .LASF126
C:\Users\SOLDER~1\AppData\Local\Temp\ccLLkDzL.s:21711  .debug_str:000000000000d0ec .LASF127
C:\Users\SOLDER~1\AppData\Local\Temp\ccLLkDzL.s:19383  .debug_str:00000000000038ed .LASF128
C:\Users\SOLDER~1\AppData\Local\Temp\ccLLkDzL.s:19665  .debug_str:0000000000004ade .LASF129
C:\Users\SOLDER~1\AppData\Local\Temp\ccLLkDzL.s:28661  .debug_str:00000000000296dd .LASF130
C:\Users\SOLDER~1\AppData\Local\Temp\ccLLkDzL.s:23031  .debug_str:0000000000012654 .LASF131
C:\Users\SOLDER~1\AppData\Local\Temp\ccLLkDzL.s:25881  .debug_str:000000000001e0a0 .LASF132
C:\Users\SOLDER~1\AppData\Local\Temp\ccLLkDzL.s:20883  .debug_str:0000000000009a52 .LASF133
C:\Users\SOLDER~1\AppData\Local\Temp\ccLLkDzL.s:28209  .debug_str:0000000000027935 .LASF134
C:\Users\SOLDER~1\AppData\Local\Temp\ccLLkDzL.s:28529  .debug_str:0000000000028e1a .LASF135
C:\Users\SOLDER~1\AppData\Local\Temp\ccLLkDzL.s:28331  .debug_str:0000000000028172 .LASF136
C:\Users\SOLDER~1\AppData\Local\Temp\ccLLkDzL.s:22117  .debug_str:000000000000eb6e .LASF137
C:\Users\SOLDER~1\AppData\Local\Temp\ccLLkDzL.s:27605  .debug_str:0000000000025126 .LASF138
C:\Users\SOLDER~1\AppData\Local\Temp\ccLLkDzL.s:19651  .debug_str:00000000000049d1 .LASF139
C:\Users\SOLDER~1\AppData\Local\Temp\ccLLkDzL.s:20531  .debug_str:0000000000008347 .LASF140
C:\Users\SOLDER~1\AppData\Local\Temp\ccLLkDzL.s:29393  .debug_str:000000000002c6c9 .LASF141
C:\Users\SOLDER~1\AppData\Local\Temp\ccLLkDzL.s:25369  .debug_str:000000000001beba .LASF142
C:\Users\SOLDER~1\AppData\Local\Temp\ccLLkDzL.s:28869  .debug_str:000000000002a4bb .LASF143
C:\Users\SOLDER~1\AppData\Local\Temp\ccLLkDzL.s:27975  .debug_str:0000000000026a44 .LASF144
C:\Users\SOLDER~1\AppData\Local\Temp\ccLLkDzL.s:25567  .debug_str:000000000001cc77 .LASF145
C:\Users\SOLDER~1\AppData\Local\Temp\ccLLkDzL.s:21005  .debug_str:000000000000a258 .LASF146
C:\Users\SOLDER~1\AppData\Local\Temp\ccLLkDzL.s:23249  .debug_str:00000000000134ed .LASF147
C:\Users\SOLDER~1\AppData\Local\Temp\ccLLkDzL.s:24731  .debug_str:0000000000019627 .LASF148
C:\Users\SOLDER~1\AppData\Local\Temp\ccLLkDzL.s:23795  .debug_str:00000000000159ac .LASF149
C:\Users\SOLDER~1\AppData\Local\Temp\ccLLkDzL.s:21671  .debug_str:000000000000ce34 .LASF150
C:\Users\SOLDER~1\AppData\Local\Temp\ccLLkDzL.s:19711  .debug_str:0000000000004db2 .LASF151
C:\Users\SOLDER~1\AppData\Local\Temp\ccLLkDzL.s:22261  .debug_str:000000000000f4ae .LASF152
C:\Users\SOLDER~1\AppData\Local\Temp\ccLLkDzL.s:24719  .debug_str:000000000001958f .LASF153
C:\Users\SOLDER~1\AppData\Local\Temp\ccLLkDzL.s:18615  .debug_str:000000000000071a .LASF154
C:\Users\SOLDER~1\AppData\Local\Temp\ccLLkDzL.s:27043  .debug_str:0000000000022c69 .LASF155
C:\Users\SOLDER~1\AppData\Local\Temp\ccLLkDzL.s:23303  .debug_str:00000000000138b2 .LASF156
C:\Users\SOLDER~1\AppData\Local\Temp\ccLLkDzL.s:27977  .debug_str:0000000000026a5c .LASF157
C:\Users\SOLDER~1\AppData\Local\Temp\ccLLkDzL.s:25773  .debug_str:000000000001d96f .LASF158
C:\Users\SOLDER~1\AppData\Local\Temp\ccLLkDzL.s:27915  .debug_str:0000000000026616 .LASF159
C:\Users\SOLDER~1\AppData\Local\Temp\ccLLkDzL.s:28583  .debug_str:00000000000291ae .LASF160
C:\Users\SOLDER~1\AppData\Local\Temp\ccLLkDzL.s:25917  .debug_str:000000000001e2c6 .LASF161
C:\Users\SOLDER~1\AppData\Local\Temp\ccLLkDzL.s:21541  .debug_str:000000000000c596 .LASF162
C:\Users\SOLDER~1\AppData\Local\Temp\ccLLkDzL.s:20633  .debug_str:00000000000089bf .LASF163
C:\Users\SOLDER~1\AppData\Local\Temp\ccLLkDzL.s:23441  .debug_str:0000000000014271 .LASF164
C:\Users\SOLDER~1\AppData\Local\Temp\ccLLkDzL.s:25415  .debug_str:000000000001c217 .LASF165
C:\Users\SOLDER~1\AppData\Local\Temp\ccLLkDzL.s:26861  .debug_str:0000000000022067 .LASF166
C:\Users\SOLDER~1\AppData\Local\Temp\ccLLkDzL.s:28459  .debug_str:00000000000289d5 .LASF167
C:\Users\SOLDER~1\AppData\Local\Temp\ccLLkDzL.s:27595  .debug_str:000000000002506c .LASF168
C:\Users\SOLDER~1\AppData\Local\Temp\ccLLkDzL.s:29293  .debug_str:000000000002c07a .LASF169
C:\Users\SOLDER~1\AppData\Local\Temp\ccLLkDzL.s:20395  .debug_str:0000000000007a16 .LASF170
C:\Users\SOLDER~1\AppData\Local\Temp\ccLLkDzL.s:28965  .debug_str:000000000002aad7 .LASF171
C:\Users\SOLDER~1\AppData\Local\Temp\ccLLkDzL.s:20777  .debug_str:0000000000009361 .LASF172
C:\Users\SOLDER~1\AppData\Local\Temp\ccLLkDzL.s:25273  .debug_str:000000000001b85f .LASF173
C:\Users\SOLDER~1\AppData\Local\Temp\ccLLkDzL.s:24519  .debug_str:0000000000018825 .LASF174
C:\Users\SOLDER~1\AppData\Local\Temp\ccLLkDzL.s:28391  .debug_str:0000000000028540 .LASF175
C:\Users\SOLDER~1\AppData\Local\Temp\ccLLkDzL.s:25411  .debug_str:000000000001c1a9 .LASF176
C:\Users\SOLDER~1\AppData\Local\Temp\ccLLkDzL.s:25693  .debug_str:000000000001d4b4 .LASF177
C:\Users\SOLDER~1\AppData\Local\Temp\ccLLkDzL.s:20999  .debug_str:000000000000a213 .LASF178
C:\Users\SOLDER~1\AppData\Local\Temp\ccLLkDzL.s:22971  .debug_str:000000000001226a .LASF179
C:\Users\SOLDER~1\AppData\Local\Temp\ccLLkDzL.s:24843  .debug_str:0000000000019cfc .LASF180
C:\Users\SOLDER~1\AppData\Local\Temp\ccLLkDzL.s:20053  .debug_str:00000000000063e8 .LASF181
C:\Users\SOLDER~1\AppData\Local\Temp\ccLLkDzL.s:20859  .debug_str:00000000000098f0 .LASF182
GAS LISTING C:\Users\SOLDER~1\AppData\Local\Temp\ccLLkDzL.s 			page 17


C:\Users\SOLDER~1\AppData\Local\Temp\ccLLkDzL.s:19517  .debug_str:0000000000004183 .LASF183
C:\Users\SOLDER~1\AppData\Local\Temp\ccLLkDzL.s:24901  .debug_str:000000000001a0bb .LASF184
C:\Users\SOLDER~1\AppData\Local\Temp\ccLLkDzL.s:23443  .debug_str:0000000000014288 .LASF185
C:\Users\SOLDER~1\AppData\Local\Temp\ccLLkDzL.s:19039  .debug_str:00000000000022c1 .LASF186
C:\Users\SOLDER~1\AppData\Local\Temp\ccLLkDzL.s:29585  .debug_str:000000000002d36d .LASF187
C:\Users\SOLDER~1\AppData\Local\Temp\ccLLkDzL.s:18825  .debug_str:00000000000014fc .LASF188
C:\Users\SOLDER~1\AppData\Local\Temp\ccLLkDzL.s:23423  .debug_str:000000000001412f .LASF189
C:\Users\SOLDER~1\AppData\Local\Temp\ccLLkDzL.s:23865  .debug_str:0000000000015e1f .LASF190
C:\Users\SOLDER~1\AppData\Local\Temp\ccLLkDzL.s:28795  .debug_str:0000000000029fb2 .LASF191
C:\Users\SOLDER~1\AppData\Local\Temp\ccLLkDzL.s:21867  .debug_str:000000000000dae4 .LASF192
C:\Users\SOLDER~1\AppData\Local\Temp\ccLLkDzL.s:29265  .debug_str:000000000002be63 .LASF193
C:\Users\SOLDER~1\AppData\Local\Temp\ccLLkDzL.s:23389  .debug_str:0000000000013ed4 .LASF194
C:\Users\SOLDER~1\AppData\Local\Temp\ccLLkDzL.s:22159  .debug_str:000000000000ee40 .LASF195
C:\Users\SOLDER~1\AppData\Local\Temp\ccLLkDzL.s:21193  .debug_str:000000000000aecd .LASF196
C:\Users\SOLDER~1\AppData\Local\Temp\ccLLkDzL.s:25973  .debug_str:000000000001e6b5 .LASF197
C:\Users\SOLDER~1\AppData\Local\Temp\ccLLkDzL.s:28883  .debug_str:000000000002a5ae .LASF198
C:\Users\SOLDER~1\AppData\Local\Temp\ccLLkDzL.s:23661  .debug_str:000000000001510f .LASF199
C:\Users\SOLDER~1\AppData\Local\Temp\ccLLkDzL.s:26169  .debug_str:000000000001f3b8 .LASF200
C:\Users\SOLDER~1\AppData\Local\Temp\ccLLkDzL.s:18835  .debug_str:000000000000159e .LASF201
C:\Users\SOLDER~1\AppData\Local\Temp\ccLLkDzL.s:29817  .debug_str:000000000002e212 .LASF202
C:\Users\SOLDER~1\AppData\Local\Temp\ccLLkDzL.s:23637  .debug_str:0000000000014f62 .LASF203
C:\Users\SOLDER~1\AppData\Local\Temp\ccLLkDzL.s:26357  .debug_str:000000000001ffc7 .LASF204
C:\Users\SOLDER~1\AppData\Local\Temp\ccLLkDzL.s:24921  .debug_str:000000000001a1fd .LASF205
C:\Users\SOLDER~1\AppData\Local\Temp\ccLLkDzL.s:20101  .debug_str:000000000000670b .LASF206
C:\Users\SOLDER~1\AppData\Local\Temp\ccLLkDzL.s:23649  .debug_str:0000000000015029 .LASF207
C:\Users\SOLDER~1\AppData\Local\Temp\ccLLkDzL.s:25615  .debug_str:000000000001cf73 .LASF208
C:\Users\SOLDER~1\AppData\Local\Temp\ccLLkDzL.s:26593  .debug_str:0000000000020f3d .LASF209
C:\Users\SOLDER~1\AppData\Local\Temp\ccLLkDzL.s:22481  .debug_str:0000000000010366 .LASF210
C:\Users\SOLDER~1\AppData\Local\Temp\ccLLkDzL.s:27979  .debug_str:0000000000026a98 .LASF211
C:\Users\SOLDER~1\AppData\Local\Temp\ccLLkDzL.s:27781  .debug_str:0000000000025cea .LASF212
C:\Users\SOLDER~1\AppData\Local\Temp\ccLLkDzL.s:20341  .debug_str:00000000000076d2 .LASF213
C:\Users\SOLDER~1\AppData\Local\Temp\ccLLkDzL.s:27301  .debug_str:0000000000023d14 .LASF214
C:\Users\SOLDER~1\AppData\Local\Temp\ccLLkDzL.s:23951  .debug_str:00000000000163c0 .LASF215
C:\Users\SOLDER~1\AppData\Local\Temp\ccLLkDzL.s:20307  .debug_str:00000000000074c3 .LASF216
C:\Users\SOLDER~1\AppData\Local\Temp\ccLLkDzL.s:20719  .debug_str:0000000000008f94 .LASF217
C:\Users\SOLDER~1\AppData\Local\Temp\ccLLkDzL.s:27855  .debug_str:0000000000026246 .LASF218
C:\Users\SOLDER~1\AppData\Local\Temp\ccLLkDzL.s:27441  .debug_str:0000000000024672 .LASF219
C:\Users\SOLDER~1\AppData\Local\Temp\ccLLkDzL.s:19137  .debug_str:0000000000002954 .LASF220
C:\Users\SOLDER~1\AppData\Local\Temp\ccLLkDzL.s:20853  .debug_str:000000000000984d .LASF221
C:\Users\SOLDER~1\AppData\Local\Temp\ccLLkDzL.s:26543  .debug_str:0000000000020bd7 .LASF222
C:\Users\SOLDER~1\AppData\Local\Temp\ccLLkDzL.s:26391  .debug_str:00000000000201e6 .LASF223
C:\Users\SOLDER~1\AppData\Local\Temp\ccLLkDzL.s:20765  .debug_str:000000000000929a .LASF224
C:\Users\SOLDER~1\AppData\Local\Temp\ccLLkDzL.s:20109  .debug_str:00000000000067be .LASF225
C:\Users\SOLDER~1\AppData\Local\Temp\ccLLkDzL.s:25879  .debug_str:000000000001e089 .LASF226
C:\Users\SOLDER~1\AppData\Local\Temp\ccLLkDzL.s:24051  .debug_str:00000000000169da .LASF227
C:\Users\SOLDER~1\AppData\Local\Temp\ccLLkDzL.s:22401  .debug_str:000000000000fe46 .LASF228
C:\Users\SOLDER~1\AppData\Local\Temp\ccLLkDzL.s:26389  .debug_str:00000000000201cd .LASF229
C:\Users\SOLDER~1\AppData\Local\Temp\ccLLkDzL.s:27425  .debug_str:000000000002456e .LASF230
C:\Users\SOLDER~1\AppData\Local\Temp\ccLLkDzL.s:22425  .debug_str:000000000000ffc7 .LASF231
C:\Users\SOLDER~1\AppData\Local\Temp\ccLLkDzL.s:28205  .debug_str:00000000000278f9 .LASF232
C:\Users\SOLDER~1\AppData\Local\Temp\ccLLkDzL.s:27491  .debug_str:00000000000249dd .LASF233
C:\Users\SOLDER~1\AppData\Local\Temp\ccLLkDzL.s:29241  .debug_str:000000000002bcae .LASF234
C:\Users\SOLDER~1\AppData\Local\Temp\ccLLkDzL.s:20505  .debug_str:0000000000008198 .LASF235
C:\Users\SOLDER~1\AppData\Local\Temp\ccLLkDzL.s:22475  .debug_str:00000000000102fe .LASF236
C:\Users\SOLDER~1\AppData\Local\Temp\ccLLkDzL.s:21931  .debug_str:000000000000df3f .LASF237
C:\Users\SOLDER~1\AppData\Local\Temp\ccLLkDzL.s:27657  .debug_str:0000000000025456 .LASF238
C:\Users\SOLDER~1\AppData\Local\Temp\ccLLkDzL.s:23287  .debug_str:0000000000013778 .LASF239
GAS LISTING C:\Users\SOLDER~1\AppData\Local\Temp\ccLLkDzL.s 			page 18


C:\Users\SOLDER~1\AppData\Local\Temp\ccLLkDzL.s:26405  .debug_str:00000000000202d7 .LASF240
C:\Users\SOLDER~1\AppData\Local\Temp\ccLLkDzL.s:19223  .debug_str:0000000000002e93 .LASF241
C:\Users\SOLDER~1\AppData\Local\Temp\ccLLkDzL.s:24249  .debug_str:0000000000017687 .LASF242
C:\Users\SOLDER~1\AppData\Local\Temp\ccLLkDzL.s:25707  .debug_str:000000000001d57f .LASF243
C:\Users\SOLDER~1\AppData\Local\Temp\ccLLkDzL.s:25081  .debug_str:000000000001acac .LASF244
C:\Users\SOLDER~1\AppData\Local\Temp\ccLLkDzL.s:29553  .debug_str:000000000002d154 .LASF245
C:\Users\SOLDER~1\AppData\Local\Temp\ccLLkDzL.s:25643  .debug_str:000000000001d18e .LASF246
C:\Users\SOLDER~1\AppData\Local\Temp\ccLLkDzL.s:28685  .debug_str:000000000002983a .LASF247
C:\Users\SOLDER~1\AppData\Local\Temp\ccLLkDzL.s:21955  .debug_str:000000000000e122 .LASF248
C:\Users\SOLDER~1\AppData\Local\Temp\ccLLkDzL.s:28067  .debug_str:0000000000027029 .LASF249
C:\Users\SOLDER~1\AppData\Local\Temp\ccLLkDzL.s:21809  .debug_str:000000000000d75d .LASF250
C:\Users\SOLDER~1\AppData\Local\Temp\ccLLkDzL.s:24989  .debug_str:000000000001a686 .LASF251
C:\Users\SOLDER~1\AppData\Local\Temp\ccLLkDzL.s:22511  .debug_str:000000000001052a .LASF252
C:\Users\SOLDER~1\AppData\Local\Temp\ccLLkDzL.s:18761  .debug_str:00000000000010ae .LASF253
C:\Users\SOLDER~1\AppData\Local\Temp\ccLLkDzL.s:21267  .debug_str:000000000000b360 .LASF254
C:\Users\SOLDER~1\AppData\Local\Temp\ccLLkDzL.s:18703  .debug_str:0000000000000d22 .LASF255
C:\Users\SOLDER~1\AppData\Local\Temp\ccLLkDzL.s:21373  .debug_str:000000000000ba2e .LASF256
C:\Users\SOLDER~1\AppData\Local\Temp\ccLLkDzL.s:20857  .debug_str:00000000000098ab .LASF257
C:\Users\SOLDER~1\AppData\Local\Temp\ccLLkDzL.s:29759  .debug_str:000000000002de76 .LASF258
C:\Users\SOLDER~1\AppData\Local\Temp\ccLLkDzL.s:25591  .debug_str:000000000001cde9 .LASF259
C:\Users\SOLDER~1\AppData\Local\Temp\ccLLkDzL.s:24401  .debug_str:00000000000180ba .LASF260
C:\Users\SOLDER~1\AppData\Local\Temp\ccLLkDzL.s:25203  .debug_str:000000000001b445 .LASF261
C:\Users\SOLDER~1\AppData\Local\Temp\ccLLkDzL.s:21981  .debug_str:000000000000e2e8 .LASF262
C:\Users\SOLDER~1\AppData\Local\Temp\ccLLkDzL.s:21319  .debug_str:000000000000b6b6 .LASF263
C:\Users\SOLDER~1\AppData\Local\Temp\ccLLkDzL.s:29055  .debug_str:000000000002b0dc .LASF264
C:\Users\SOLDER~1\AppData\Local\Temp\ccLLkDzL.s:21629  .debug_str:000000000000cb96 .LASF265
C:\Users\SOLDER~1\AppData\Local\Temp\ccLLkDzL.s:22603  .debug_str:0000000000010af0 .LASF266
C:\Users\SOLDER~1\AppData\Local\Temp\ccLLkDzL.s:24433  .debug_str:00000000000182b2 .LASF267
C:\Users\SOLDER~1\AppData\Local\Temp\ccLLkDzL.s:28313  .debug_str:000000000002806d .LASF268
C:\Users\SOLDER~1\AppData\Local\Temp\ccLLkDzL.s:21451  .debug_str:000000000000bf3d .LASF269
C:\Users\SOLDER~1\AppData\Local\Temp\ccLLkDzL.s:20197  .debug_str:0000000000006d42 .LASF270
C:\Users\SOLDER~1\AppData\Local\Temp\ccLLkDzL.s:20375  .debug_str:00000000000078b7 .LASF271
C:\Users\SOLDER~1\AppData\Local\Temp\ccLLkDzL.s:21683  .debug_str:000000000000cf07 .LASF272
C:\Users\SOLDER~1\AppData\Local\Temp\ccLLkDzL.s:21519  .debug_str:000000000000c40e .LASF273
C:\Users\SOLDER~1\AppData\Local\Temp\ccLLkDzL.s:18847  .debug_str:0000000000001664 .LASF274
C:\Users\SOLDER~1\AppData\Local\Temp\ccLLkDzL.s:20189  .debug_str:0000000000006ccf .LASF275
C:\Users\SOLDER~1\AppData\Local\Temp\ccLLkDzL.s:28991  .debug_str:000000000002ac73 .LASF276
C:\Users\SOLDER~1\AppData\Local\Temp\ccLLkDzL.s:26943  .debug_str:00000000000225a0 .LASF277
C:\Users\SOLDER~1\AppData\Local\Temp\ccLLkDzL.s:27881  .debug_str:00000000000263fe .LASF278
C:\Users\SOLDER~1\AppData\Local\Temp\ccLLkDzL.s:20149  .debug_str:0000000000006a3e .LASF279
C:\Users\SOLDER~1\AppData\Local\Temp\ccLLkDzL.s:19929  .debug_str:0000000000005b87 .LASF280
C:\Users\SOLDER~1\AppData\Local\Temp\ccLLkDzL.s:19809  .debug_str:00000000000053a2 .LASF281
C:\Users\SOLDER~1\AppData\Local\Temp\ccLLkDzL.s:24463  .debug_str:00000000000184b5 .LASF282
C:\Users\SOLDER~1\AppData\Local\Temp\ccLLkDzL.s:27851  .debug_str:0000000000026201 .LASF283
C:\Users\SOLDER~1\AppData\Local\Temp\ccLLkDzL.s:28111  .debug_str:0000000000027320 .LASF284
C:\Users\SOLDER~1\AppData\Local\Temp\ccLLkDzL.s:28971  .debug_str:000000000002ab39 .LASF285
C:\Users\SOLDER~1\AppData\Local\Temp\ccLLkDzL.s:25653  .debug_str:000000000001d232 .LASF286
C:\Users\SOLDER~1\AppData\Local\Temp\ccLLkDzL.s:29749  .debug_str:000000000002ddd5 .LASF287
C:\Users\SOLDER~1\AppData\Local\Temp\ccLLkDzL.s:19901  .debug_str:00000000000059a9 .LASF288
C:\Users\SOLDER~1\AppData\Local\Temp\ccLLkDzL.s:23665  .debug_str:0000000000015144 .LASF289
C:\Users\SOLDER~1\AppData\Local\Temp\ccLLkDzL.s:22557  .debug_str:0000000000010832 .LASF290
C:\Users\SOLDER~1\AppData\Local\Temp\ccLLkDzL.s:29989  .debug_str:000000000002ed34 .LASF291
C:\Users\SOLDER~1\AppData\Local\Temp\ccLLkDzL.s:28813  .debug_str:000000000002a10d .LASF292
C:\Users\SOLDER~1\AppData\Local\Temp\ccLLkDzL.s:19733  .debug_str:0000000000004efb .LASF293
C:\Users\SOLDER~1\AppData\Local\Temp\ccLLkDzL.s:18557  .debug_str:00000000000002bb .LASF294
C:\Users\SOLDER~1\AppData\Local\Temp\ccLLkDzL.s:23715  .debug_str:000000000001549f .LASF295
C:\Users\SOLDER~1\AppData\Local\Temp\ccLLkDzL.s:24537  .debug_str:0000000000018973 .LASF296
GAS LISTING C:\Users\SOLDER~1\AppData\Local\Temp\ccLLkDzL.s 			page 19


C:\Users\SOLDER~1\AppData\Local\Temp\ccLLkDzL.s:21973  .debug_str:000000000000e262 .LASF297
C:\Users\SOLDER~1\AppData\Local\Temp\ccLLkDzL.s:22503  .debug_str:00000000000104b7 .LASF298
C:\Users\SOLDER~1\AppData\Local\Temp\ccLLkDzL.s:25243  .debug_str:000000000001b69a .LASF299
C:\Users\SOLDER~1\AppData\Local\Temp\ccLLkDzL.s:23789  .debug_str:000000000001596d .LASF300
C:\Users\SOLDER~1\AppData\Local\Temp\ccLLkDzL.s:23229  .debug_str:0000000000013387 .LASF301
C:\Users\SOLDER~1\AppData\Local\Temp\ccLLkDzL.s:19077  .debug_str:0000000000002560 .LASF302
C:\Users\SOLDER~1\AppData\Local\Temp\ccLLkDzL.s:21635  .debug_str:000000000000cbe6 .LASF303
C:\Users\SOLDER~1\AppData\Local\Temp\ccLLkDzL.s:27023  .debug_str:0000000000022b24 .LASF304
C:\Users\SOLDER~1\AppData\Local\Temp\ccLLkDzL.s:22523  .debug_str:00000000000105c9 .LASF305
C:\Users\SOLDER~1\AppData\Local\Temp\ccLLkDzL.s:27871  .debug_str:000000000002636d .LASF306
C:\Users\SOLDER~1\AppData\Local\Temp\ccLLkDzL.s:27463  .debug_str:00000000000247ed .LASF307
C:\Users\SOLDER~1\AppData\Local\Temp\ccLLkDzL.s:25665  .debug_str:000000000001d2fd .LASF308
C:\Users\SOLDER~1\AppData\Local\Temp\ccLLkDzL.s:19523  .debug_str:00000000000041e7 .LASF309
C:\Users\SOLDER~1\AppData\Local\Temp\ccLLkDzL.s:26033  .debug_str:000000000001eab0 .LASF310
C:\Users\SOLDER~1\AppData\Local\Temp\ccLLkDzL.s:21757  .debug_str:000000000000d404 .LASF311
C:\Users\SOLDER~1\AppData\Local\Temp\ccLLkDzL.s:23057  .debug_str:00000000000127fb .LASF312
C:\Users\SOLDER~1\AppData\Local\Temp\ccLLkDzL.s:20923  .debug_str:0000000000009ce3 .LASF313
C:\Users\SOLDER~1\AppData\Local\Temp\ccLLkDzL.s:23487  .debug_str:00000000000145a6 .LASF314
C:\Users\SOLDER~1\AppData\Local\Temp\ccLLkDzL.s:20371  .debug_str:0000000000007878 .LASF315
C:\Users\SOLDER~1\AppData\Local\Temp\ccLLkDzL.s:25737  .debug_str:000000000001d739 .LASF316
C:\Users\SOLDER~1\AppData\Local\Temp\ccLLkDzL.s:28201  .debug_str:00000000000278ca .LASF317
C:\Users\SOLDER~1\AppData\Local\Temp\ccLLkDzL.s:27469  .debug_str:000000000002485a .LASF319
C:\Users\SOLDER~1\AppData\Local\Temp\ccLLkDzL.s:22365  .debug_str:000000000000fbe7 .LASF320
C:\Users\SOLDER~1\AppData\Local\Temp\ccLLkDzL.s:23635  .debug_str:0000000000014f3d .LASF321
C:\Users\SOLDER~1\AppData\Local\Temp\ccLLkDzL.s:26073  .debug_str:000000000001ed2f .LASF322
C:\Users\SOLDER~1\AppData\Local\Temp\ccLLkDzL.s:24895  .debug_str:000000000001a05b .LASF323
C:\Users\SOLDER~1\AppData\Local\Temp\ccLLkDzL.s:21649  .debug_str:000000000000ccd1 .LASF324
C:\Users\SOLDER~1\AppData\Local\Temp\ccLLkDzL.s:19897  .debug_str:0000000000005970 .LASF325
C:\Users\SOLDER~1\AppData\Local\Temp\ccLLkDzL.s:18639  .debug_str:000000000000089d .LASF326
C:\Users\SOLDER~1\AppData\Local\Temp\ccLLkDzL.s:28817  .debug_str:000000000002a152 .LASF327
C:\Users\SOLDER~1\AppData\Local\Temp\ccLLkDzL.s:21727  .debug_str:000000000000d1f7 .LASF328
C:\Users\SOLDER~1\AppData\Local\Temp\ccLLkDzL.s:29675  .debug_str:000000000002d90b .LASF329
C:\Users\SOLDER~1\AppData\Local\Temp\ccLLkDzL.s:20021  .debug_str:00000000000061cb .LASF330
C:\Users\SOLDER~1\AppData\Local\Temp\ccLLkDzL.s:19569  .debug_str:00000000000044a6 .LASF331
C:\Users\SOLDER~1\AppData\Local\Temp\ccLLkDzL.s:18569  .debug_str:000000000000037c .LASF332
C:\Users\SOLDER~1\AppData\Local\Temp\ccLLkDzL.s:23887  .debug_str:0000000000015f94 .LASF333
C:\Users\SOLDER~1\AppData\Local\Temp\ccLLkDzL.s:26493  .debug_str:00000000000208b1 .LASF334
C:\Users\SOLDER~1\AppData\Local\Temp\ccLLkDzL.s:24775  .debug_str:00000000000198dc .LASF335
C:\Users\SOLDER~1\AppData\Local\Temp\ccLLkDzL.s:24635  .debug_str:0000000000018ff3 .LASF339
C:\Users\SOLDER~1\AppData\Local\Temp\ccLLkDzL.s:25179  .debug_str:000000000001b2be .LASF340
C:\Users\SOLDER~1\AppData\Local\Temp\ccLLkDzL.s:21219  .debug_str:000000000000b051 .LASF341
C:\Users\SOLDER~1\AppData\Local\Temp\ccLLkDzL.s:24407  .debug_str:0000000000018120 .LASF342
C:\Users\SOLDER~1\AppData\Local\Temp\ccLLkDzL.s:24621  .debug_str:0000000000018f19 .LASF343
C:\Users\SOLDER~1\AppData\Local\Temp\ccLLkDzL.s:19121  .debug_str:000000000000280a .LASF344
C:\Users\SOLDER~1\AppData\Local\Temp\ccLLkDzL.s:21261  .debug_str:000000000000b2ee .LASF345
C:\Users\SOLDER~1\AppData\Local\Temp\ccLLkDzL.s:19437  .debug_str:0000000000003c65 .LASF346
C:\Users\SOLDER~1\AppData\Local\Temp\ccLLkDzL.s:29339  .debug_str:000000000002c369 .LASF347
C:\Users\SOLDER~1\AppData\Local\Temp\ccLLkDzL.s:23975  .debug_str:0000000000016515 .LASF348
C:\Users\SOLDER~1\AppData\Local\Temp\ccLLkDzL.s:26425  .debug_str:0000000000020437 .LASF349
C:\Users\SOLDER~1\AppData\Local\Temp\ccLLkDzL.s:20755  .debug_str:0000000000009215 .LASF350
C:\Users\SOLDER~1\AppData\Local\Temp\ccLLkDzL.s:24473  .debug_str:000000000001854c .LASF351
C:\Users\SOLDER~1\AppData\Local\Temp\ccLLkDzL.s:29665  .debug_str:000000000002d874 .LASF352
C:\Users\SOLDER~1\AppData\Local\Temp\ccLLkDzL.s:21195  .debug_str:000000000000aee6 .LASF353
C:\Users\SOLDER~1\AppData\Local\Temp\ccLLkDzL.s:22277  .debug_str:000000000000f5c2 .LASF354
C:\Users\SOLDER~1\AppData\Local\Temp\ccLLkDzL.s:25679  .debug_str:000000000001d3e9 .LASF355
C:\Users\SOLDER~1\AppData\Local\Temp\ccLLkDzL.s:23885  .debug_str:0000000000015f84 .LASF356
C:\Users\SOLDER~1\AppData\Local\Temp\ccLLkDzL.s:24027  .debug_str:000000000001685b .LASF357
GAS LISTING C:\Users\SOLDER~1\AppData\Local\Temp\ccLLkDzL.s 			page 20


C:\Users\SOLDER~1\AppData\Local\Temp\ccLLkDzL.s:27067  .debug_str:0000000000022dcd .LASF358
C:\Users\SOLDER~1\AppData\Local\Temp\ccLLkDzL.s:23113  .debug_str:0000000000012bf4 .LASF359
C:\Users\SOLDER~1\AppData\Local\Temp\ccLLkDzL.s:24091  .debug_str:0000000000016c1f .LASF360
C:\Users\SOLDER~1\AppData\Local\Temp\ccLLkDzL.s:27177  .debug_str:0000000000023537 .LASF361
C:\Users\SOLDER~1\AppData\Local\Temp\ccLLkDzL.s:20261  .debug_str:00000000000071bf .LASF362
C:\Users\SOLDER~1\AppData\Local\Temp\ccLLkDzL.s:28945  .debug_str:000000000002a971 .LASF363
C:\Users\SOLDER~1\AppData\Local\Temp\ccLLkDzL.s:19779  .debug_str:00000000000051cb .LASF364
C:\Users\SOLDER~1\AppData\Local\Temp\ccLLkDzL.s:24557  .debug_str:0000000000018ad3 .LASF365
C:\Users\SOLDER~1\AppData\Local\Temp\ccLLkDzL.s:20359  .debug_str:00000000000077bd .LASF366
C:\Users\SOLDER~1\AppData\Local\Temp\ccLLkDzL.s:21279  .debug_str:000000000000b450 .LASF367
C:\Users\SOLDER~1\AppData\Local\Temp\ccLLkDzL.s:18529  .debug_str:000000000000011b .LASF368
C:\Users\SOLDER~1\AppData\Local\Temp\ccLLkDzL.s:26375  .debug_str:00000000000200e9 .LASF369
C:\Users\SOLDER~1\AppData\Local\Temp\ccLLkDzL.s:21963  .debug_str:000000000000e1b5 .LASF370
C:\Users\SOLDER~1\AppData\Local\Temp\ccLLkDzL.s:27371  .debug_str:00000000000241c1 .LASF371
C:\Users\SOLDER~1\AppData\Local\Temp\ccLLkDzL.s:26309  .debug_str:000000000001fcb8 .LASF372
C:\Users\SOLDER~1\AppData\Local\Temp\ccLLkDzL.s:22715  .debug_str:0000000000011212 .LASF373
C:\Users\SOLDER~1\AppData\Local\Temp\ccLLkDzL.s:29809  .debug_str:000000000002e195 .LASF374
C:\Users\SOLDER~1\AppData\Local\Temp\ccLLkDzL.s:29747  .debug_str:000000000002ddcf .LASF375
C:\Users\SOLDER~1\AppData\Local\Temp\ccLLkDzL.s:20539  .debug_str:00000000000083c8 .LASF376
C:\Users\SOLDER~1\AppData\Local\Temp\ccLLkDzL.s:28847  .debug_str:000000000002a33e .LASF377
C:\Users\SOLDER~1\AppData\Local\Temp\ccLLkDzL.s:23871  .debug_str:0000000000015ea7 .LASF378
C:\Users\SOLDER~1\AppData\Local\Temp\ccLLkDzL.s:27637  .debug_str:000000000002531c .LASF379
C:\Users\SOLDER~1\AppData\Local\Temp\ccLLkDzL.s:28645  .debug_str:00000000000295ed .LASF380
C:\Users\SOLDER~1\AppData\Local\Temp\ccLLkDzL.s:27103  .debug_str:0000000000023031 .LASF381
C:\Users\SOLDER~1\AppData\Local\Temp\ccLLkDzL.s:24067  .debug_str:0000000000016ac2 .LASF382
C:\Users\SOLDER~1\AppData\Local\Temp\ccLLkDzL.s:28671  .debug_str:000000000002976b .LASF383
C:\Users\SOLDER~1\AppData\Local\Temp\ccLLkDzL.s:25403  .debug_str:000000000001c136 .LASF384
C:\Users\SOLDER~1\AppData\Local\Temp\ccLLkDzL.s:22813  .debug_str:0000000000011899 .LASF385
C:\Users\SOLDER~1\AppData\Local\Temp\ccLLkDzL.s:27225  .debug_str:0000000000023830 .LASF386
C:\Users\SOLDER~1\AppData\Local\Temp\ccLLkDzL.s:26223  .debug_str:000000000001f76f .LASF387
C:\Users\SOLDER~1\AppData\Local\Temp\ccLLkDzL.s:18877  .debug_str:0000000000001840 .LASF388
C:\Users\SOLDER~1\AppData\Local\Temp\ccLLkDzL.s:19539  .debug_str:00000000000042cf .LASF389
C:\Users\SOLDER~1\AppData\Local\Temp\ccLLkDzL.s:19955  .debug_str:0000000000005d48 .LASF390
C:\Users\SOLDER~1\AppData\Local\Temp\ccLLkDzL.s:21121  .debug_str:000000000000aa3d .LASF391
C:\Users\SOLDER~1\AppData\Local\Temp\ccLLkDzL.s:20607  .debug_str:0000000000008810 .LASF392
C:\Users\SOLDER~1\AppData\Local\Temp\ccLLkDzL.s:25925  .debug_str:000000000001e344 .LASF393
C:\Users\SOLDER~1\AppData\Local\Temp\ccLLkDzL.s:26563  .debug_str:0000000000020d47 .LASF394
C:\Users\SOLDER~1\AppData\Local\Temp\ccLLkDzL.s:26697  .debug_str:0000000000021608 .LASF395
C:\Users\SOLDER~1\AppData\Local\Temp\ccLLkDzL.s:20761  .debug_str:000000000000926b .LASF396
C:\Users\SOLDER~1\AppData\Local\Temp\ccLLkDzL.s:20349  .debug_str:000000000000773c .LASF397
C:\Users\SOLDER~1\AppData\Local\Temp\ccLLkDzL.s:25733  .debug_str:000000000001d715 .LASF398
C:\Users\SOLDER~1\AppData\Local\Temp\ccLLkDzL.s:28357  .debug_str:000000000002832d .LASF399
C:\Users\SOLDER~1\AppData\Local\Temp\ccLLkDzL.s:23027  .debug_str:000000000001261f .LASF400
C:\Users\SOLDER~1\AppData\Local\Temp\ccLLkDzL.s:23771  .debug_str:0000000000015855 .LASF401
C:\Users\SOLDER~1\AppData\Local\Temp\ccLLkDzL.s:21617  .debug_str:000000000000caca .LASF402
C:\Users\SOLDER~1\AppData\Local\Temp\ccLLkDzL.s:25431  .debug_str:000000000001c31d .LASF403
C:\Users\SOLDER~1\AppData\Local\Temp\ccLLkDzL.s:23983  .debug_str:0000000000016582 .LASF404
C:\Users\SOLDER~1\AppData\Local\Temp\ccLLkDzL.s:24423  .debug_str:000000000001821f .LASF405
C:\Users\SOLDER~1\AppData\Local\Temp\ccLLkDzL.s:20663  .debug_str:0000000000008ba9 .LASF406
C:\Users\SOLDER~1\AppData\Local\Temp\ccLLkDzL.s:29289  .debug_str:000000000002c046 .LASF407
C:\Users\SOLDER~1\AppData\Local\Temp\ccLLkDzL.s:23335  .debug_str:0000000000013b32 .LASF408
C:\Users\SOLDER~1\AppData\Local\Temp\ccLLkDzL.s:25765  .debug_str:000000000001d8fa .LASF409
C:\Users\SOLDER~1\AppData\Local\Temp\ccLLkDzL.s:22191  .debug_str:000000000000f022 .LASF410
C:\Users\SOLDER~1\AppData\Local\Temp\ccLLkDzL.s:26459  .debug_str:000000000002067d .LASF411
C:\Users\SOLDER~1\AppData\Local\Temp\ccLLkDzL.s:28423  .debug_str:0000000000028786 .LASF412
C:\Users\SOLDER~1\AppData\Local\Temp\ccLLkDzL.s:22881  .debug_str:0000000000011cbd .LASF413
C:\Users\SOLDER~1\AppData\Local\Temp\ccLLkDzL.s:22871  .debug_str:0000000000011c33 .LASF414
GAS LISTING C:\Users\SOLDER~1\AppData\Local\Temp\ccLLkDzL.s 			page 21


C:\Users\SOLDER~1\AppData\Local\Temp\ccLLkDzL.s:24837  .debug_str:0000000000019cba .LASF415
C:\Users\SOLDER~1\AppData\Local\Temp\ccLLkDzL.s:29843  .debug_str:000000000002e3d0 .LASF416
C:\Users\SOLDER~1\AppData\Local\Temp\ccLLkDzL.s:29981  .debug_str:000000000002ecbb .LASF417
C:\Users\SOLDER~1\AppData\Local\Temp\ccLLkDzL.s:20421  .debug_str:0000000000007bd8 .LASF418
C:\Users\SOLDER~1\AppData\Local\Temp\ccLLkDzL.s:21473  .debug_str:000000000000c0e7 .LASF419
C:\Users\SOLDER~1\AppData\Local\Temp\ccLLkDzL.s:21475  .debug_str:000000000000c0fb .LASF420
C:\Users\SOLDER~1\AppData\Local\Temp\ccLLkDzL.s:26513  .debug_str:0000000000020a04 .LASF421
C:\Users\SOLDER~1\AppData\Local\Temp\ccLLkDzL.s:27201  .debug_str:00000000000236b7 .LASF422
C:\Users\SOLDER~1\AppData\Local\Temp\ccLLkDzL.s:18991  .debug_str:0000000000001f97 .LASF423
C:\Users\SOLDER~1\AppData\Local\Temp\ccLLkDzL.s:23269  .debug_str:0000000000013640 .LASF424
C:\Users\SOLDER~1\AppData\Local\Temp\ccLLkDzL.s:26449  .debug_str:00000000000205d5 .LASF425
C:\Users\SOLDER~1\AppData\Local\Temp\ccLLkDzL.s:22861  .debug_str:0000000000011baf .LASF426
C:\Users\SOLDER~1\AppData\Local\Temp\ccLLkDzL.s:29963  .debug_str:000000000002eb9b .LASF427
C:\Users\SOLDER~1\AppData\Local\Temp\ccLLkDzL.s:25443  .debug_str:000000000001c3d2 .LASF428
C:\Users\SOLDER~1\AppData\Local\Temp\ccLLkDzL.s:19793  .debug_str:00000000000052ba .LASF429
C:\Users\SOLDER~1\AppData\Local\Temp\ccLLkDzL.s:27579  .debug_str:0000000000024f82 .LASF430
C:\Users\SOLDER~1\AppData\Local\Temp\ccLLkDzL.s:23203  .debug_str:00000000000131c8 .LASF431
C:\Users\SOLDER~1\AppData\Local\Temp\ccLLkDzL.s:27493  .debug_str:00000000000249fb .LASF432
C:\Users\SOLDER~1\AppData\Local\Temp\ccLLkDzL.s:19701  .debug_str:0000000000004d1a .LASF433
C:\Users\SOLDER~1\AppData\Local\Temp\ccLLkDzL.s:22165  .debug_str:000000000000ee8e .LASF434
C:\Users\SOLDER~1\AppData\Local\Temp\ccLLkDzL.s:26343  .debug_str:000000000001fef1 .LASF435
C:\Users\SOLDER~1\AppData\Local\Temp\ccLLkDzL.s:18687  .debug_str:0000000000000c13 .LASF436
C:\Users\SOLDER~1\AppData\Local\Temp\ccLLkDzL.s:21659  .debug_str:000000000000cd7f .LASF437
C:\Users\SOLDER~1\AppData\Local\Temp\ccLLkDzL.s:23607  .debug_str:0000000000014d7e .LASF438
C:\Users\SOLDER~1\AppData\Local\Temp\ccLLkDzL.s:19781  .debug_str:00000000000051e0 .LASF439
C:\Users\SOLDER~1\AppData\Local\Temp\ccLLkDzL.s:22931  .debug_str:0000000000011fda .LASF440
C:\Users\SOLDER~1\AppData\Local\Temp\ccLLkDzL.s:28611  .debug_str:00000000000293b0 .LASF441
C:\Users\SOLDER~1\AppData\Local\Temp\ccLLkDzL.s:21307  .debug_str:000000000000b5ef .LASF442
C:\Users\SOLDER~1\AppData\Local\Temp\ccLLkDzL.s:25491  .debug_str:000000000001c721 .LASF443
C:\Users\SOLDER~1\AppData\Local\Temp\ccLLkDzL.s:29163  .debug_str:000000000002b7a9 .LASF444
C:\Users\SOLDER~1\AppData\Local\Temp\ccLLkDzL.s:23069  .debug_str:00000000000128d5 .LASF445
C:\Users\SOLDER~1\AppData\Local\Temp\ccLLkDzL.s:22489  .debug_str:00000000000103dd .LASF446
C:\Users\SOLDER~1\AppData\Local\Temp\ccLLkDzL.s:26245  .debug_str:000000000001f8c7 .LASF447
C:\Users\SOLDER~1\AppData\Local\Temp\ccLLkDzL.s:20661  .debug_str:0000000000008b8f .LASF448
C:\Users\SOLDER~1\AppData\Local\Temp\ccLLkDzL.s:25841  .debug_str:000000000001de26 .LASF449
C:\Users\SOLDER~1\AppData\Local\Temp\ccLLkDzL.s:22157  .debug_str:000000000000ee15 .LASF450
C:\Users\SOLDER~1\AppData\Local\Temp\ccLLkDzL.s:28581  .debug_str:0000000000029188 .LASF451
C:\Users\SOLDER~1\AppData\Local\Temp\ccLLkDzL.s:22787  .debug_str:00000000000116c7 .LASF452
C:\Users\SOLDER~1\AppData\Local\Temp\ccLLkDzL.s:19241  .debug_str:0000000000002fc7 .LASF453
C:\Users\SOLDER~1\AppData\Local\Temp\ccLLkDzL.s:18831  .debug_str:000000000000155b .LASF454
C:\Users\SOLDER~1\AppData\Local\Temp\ccLLkDzL.s:26951  .debug_str:0000000000022621 .LASF455
C:\Users\SOLDER~1\AppData\Local\Temp\ccLLkDzL.s:27849  .debug_str:00000000000261d6 .LASF456
C:\Users\SOLDER~1\AppData\Local\Temp\ccLLkDzL.s:21679  .debug_str:000000000000ceb8 .LASF457
C:\Users\SOLDER~1\AppData\Local\Temp\ccLLkDzL.s:22001  .debug_str:000000000000e41b .LASF458
C:\Users\SOLDER~1\AppData\Local\Temp\ccLLkDzL.s:28481  .debug_str:0000000000028b1f .LASF459
C:\Users\SOLDER~1\AppData\Local\Temp\ccLLkDzL.s:29405  .debug_str:000000000002c777 .LASF460
C:\Users\SOLDER~1\AppData\Local\Temp\ccLLkDzL.s:18817  .debug_str:0000000000001466 .LASF461
C:\Users\SOLDER~1\AppData\Local\Temp\ccLLkDzL.s:21289  .debug_str:000000000000b4d9 .LASF462
C:\Users\SOLDER~1\AppData\Local\Temp\ccLLkDzL.s:27809  .debug_str:0000000000025eec .LASF463
C:\Users\SOLDER~1\AppData\Local\Temp\ccLLkDzL.s:25177  .debug_str:000000000001b298 .LASF464
C:\Users\SOLDER~1\AppData\Local\Temp\ccLLkDzL.s:28335  .debug_str:00000000000281b0 .LASF465
C:\Users\SOLDER~1\AppData\Local\Temp\ccLLkDzL.s:24353  .debug_str:0000000000017d8a .LASF466
C:\Users\SOLDER~1\AppData\Local\Temp\ccLLkDzL.s:26745  .debug_str:0000000000021929 .LASF467
C:\Users\SOLDER~1\AppData\Local\Temp\ccLLkDzL.s:25393  .debug_str:000000000001c07d .LASF468
C:\Users\SOLDER~1\AppData\Local\Temp\ccLLkDzL.s:18919  .debug_str:0000000000001ace .LASF469
C:\Users\SOLDER~1\AppData\Local\Temp\ccLLkDzL.s:21423  .debug_str:000000000000bd6e .LASF470
C:\Users\SOLDER~1\AppData\Local\Temp\ccLLkDzL.s:26325  .debug_str:000000000001fdb8 .LASF471
GAS LISTING C:\Users\SOLDER~1\AppData\Local\Temp\ccLLkDzL.s 			page 22


C:\Users\SOLDER~1\AppData\Local\Temp\ccLLkDzL.s:29655  .debug_str:000000000002d7d3 .LASF472
C:\Users\SOLDER~1\AppData\Local\Temp\ccLLkDzL.s:29899  .debug_str:000000000002e7ae .LASF473
C:\Users\SOLDER~1\AppData\Local\Temp\ccLLkDzL.s:29751  .debug_str:000000000002ddf7 .LASF474
C:\Users\SOLDER~1\AppData\Local\Temp\ccLLkDzL.s:27841  .debug_str:0000000000026130 .LASF475
C:\Users\SOLDER~1\AppData\Local\Temp\ccLLkDzL.s:20943  .debug_str:0000000000009e3c .LASF476
C:\Users\SOLDER~1\AppData\Local\Temp\ccLLkDzL.s:24957  .debug_str:000000000001a44f .LASF477
C:\Users\SOLDER~1\AppData\Local\Temp\ccLLkDzL.s:24043  .debug_str:0000000000016965 .LASF478
C:\Users\SOLDER~1\AppData\Local\Temp\ccLLkDzL.s:27945  .debug_str:0000000000026823 .LASF479
C:\Users\SOLDER~1\AppData\Local\Temp\ccLLkDzL.s:29993  .debug_str:000000000002ed6a .LASF480
C:\Users\SOLDER~1\AppData\Local\Temp\ccLLkDzL.s:26757  .debug_str:00000000000219f9 .LASF481
C:\Users\SOLDER~1\AppData\Local\Temp\ccLLkDzL.s:28039  .debug_str:0000000000026e7d .LASF482
C:\Users\SOLDER~1\AppData\Local\Temp\ccLLkDzL.s:21941  .debug_str:000000000000e027 .LASF483
C:\Users\SOLDER~1\AppData\Local\Temp\ccLLkDzL.s:25117  .debug_str:000000000001aed3 .LASF484
C:\Users\SOLDER~1\AppData\Local\Temp\ccLLkDzL.s:25027  .debug_str:000000000001a8e6 .LASF485
C:\Users\SOLDER~1\AppData\Local\Temp\ccLLkDzL.s:28163  .debug_str:0000000000027676 .LASF486
C:\Users\SOLDER~1\AppData\Local\Temp\ccLLkDzL.s:25589  .debug_str:000000000001cdd1 .LASF487
C:\Users\SOLDER~1\AppData\Local\Temp\ccLLkDzL.s:22417  .debug_str:000000000000ff50 .LASF488
C:\Users\SOLDER~1\AppData\Local\Temp\ccLLkDzL.s:24513  .debug_str:00000000000187c5 .LASF489
C:\Users\SOLDER~1\AppData\Local\Temp\ccLLkDzL.s:19725  .debug_str:0000000000004e74 .LASF490
C:\Users\SOLDER~1\AppData\Local\Temp\ccLLkDzL.s:22763  .debug_str:0000000000011549 .LASF491
C:\Users\SOLDER~1\AppData\Local\Temp\ccLLkDzL.s:21743  .debug_str:000000000000d313 .LASF492
C:\Users\SOLDER~1\AppData\Local\Temp\ccLLkDzL.s:27063  .debug_str:0000000000022d96 .LASF494
C:\Users\SOLDER~1\AppData\Local\Temp\ccLLkDzL.s:20827  .debug_str:00000000000096b3 .LASF495
C:\Users\SOLDER~1\AppData\Local\Temp\ccLLkDzL.s:19821  .debug_str:0000000000005451 .LASF496
C:\Users\SOLDER~1\AppData\Local\Temp\ccLLkDzL.s:25847  .debug_str:000000000001de7f .LASF497
C:\Users\SOLDER~1\AppData\Local\Temp\ccLLkDzL.s:25181  .debug_str:000000000001b2d6 .LASF498
C:\Users\SOLDER~1\AppData\Local\Temp\ccLLkDzL.s:25281  .debug_str:000000000001b90d .LASF499
C:\Users\SOLDER~1\AppData\Local\Temp\ccLLkDzL.s:22005  .debug_str:000000000000e45c .LASF500
C:\Users\SOLDER~1\AppData\Local\Temp\ccLLkDzL.s:19625  .debug_str:0000000000004868 .LASF501
C:\Users\SOLDER~1\AppData\Local\Temp\ccLLkDzL.s:22915  .debug_str:0000000000011ee3 .LASF502
C:\Users\SOLDER~1\AppData\Local\Temp\ccLLkDzL.s:27543  .debug_str:0000000000024d36 .LASF503
C:\Users\SOLDER~1\AppData\Local\Temp\ccLLkDzL.s:23755  .debug_str:000000000001572f .LASF504
C:\Users\SOLDER~1\AppData\Local\Temp\ccLLkDzL.s:18539  .debug_str:00000000000001a0 .LASF505
C:\Users\SOLDER~1\AppData\Local\Temp\ccLLkDzL.s:21821  .debug_str:000000000000d81e .LASF506
C:\Users\SOLDER~1\AppData\Local\Temp\ccLLkDzL.s:29715  .debug_str:000000000002dbaa .LASF507
C:\Users\SOLDER~1\AppData\Local\Temp\ccLLkDzL.s:28651  .debug_str:0000000000029639 .LASF508
C:\Users\SOLDER~1\AppData\Local\Temp\ccLLkDzL.s:23295  .debug_str:0000000000013820 .LASF509
C:\Users\SOLDER~1\AppData\Local\Temp\ccLLkDzL.s:24211  .debug_str:0000000000017434 .LASF510
C:\Users\SOLDER~1\AppData\Local\Temp\ccLLkDzL.s:23595  .debug_str:0000000000014cc1 .LASF511
C:\Users\SOLDER~1\AppData\Local\Temp\ccLLkDzL.s:24651  .debug_str:00000000000190e7 .LASF512
C:\Users\SOLDER~1\AppData\Local\Temp\ccLLkDzL.s:26487  .debug_str:0000000000020846 .LASF513
C:\Users\SOLDER~1\AppData\Local\Temp\ccLLkDzL.s:25511  .debug_str:000000000001c87c .LASF514
C:\Users\SOLDER~1\AppData\Local\Temp\ccLLkDzL.s:21205  .debug_str:000000000000af7e .LASF515
C:\Users\SOLDER~1\AppData\Local\Temp\ccLLkDzL.s:29261  .debug_str:000000000002be1b .LASF516
C:\Users\SOLDER~1\AppData\Local\Temp\ccLLkDzL.s:25753  .debug_str:000000000001d82c .LASF517
C:\Users\SOLDER~1\AppData\Local\Temp\ccLLkDzL.s:29131  .debug_str:000000000002b5c1 .LASF518
C:\Users\SOLDER~1\AppData\Local\Temp\ccLLkDzL.s:27733  .debug_str:00000000000259a6 .LASF519
C:\Users\SOLDER~1\AppData\Local\Temp\ccLLkDzL.s:24925  .debug_str:000000000001a25e .LASF520
C:\Users\SOLDER~1\AppData\Local\Temp\ccLLkDzL.s:20045  .debug_str:0000000000006351 .LASF521
C:\Users\SOLDER~1\AppData\Local\Temp\ccLLkDzL.s:27107  .debug_str:0000000000023062 .LASF522
C:\Users\SOLDER~1\AppData\Local\Temp\ccLLkDzL.s:20985  .debug_str:000000000000a112 .LASF523
C:\Users\SOLDER~1\AppData\Local\Temp\ccLLkDzL.s:19021  .debug_str:0000000000002195 .LASF524
C:\Users\SOLDER~1\AppData\Local\Temp\ccLLkDzL.s:25809  .debug_str:000000000001dbf4 .LASF525
C:\Users\SOLDER~1\AppData\Local\Temp\ccLLkDzL.s:21875  .debug_str:000000000000db74 .LASF526
C:\Users\SOLDER~1\AppData\Local\Temp\ccLLkDzL.s:23611  .debug_str:0000000000014dba .LASF527
C:\Users\SOLDER~1\AppData\Local\Temp\ccLLkDzL.s:21915  .debug_str:000000000000de22 .LASF528
C:\Users\SOLDER~1\AppData\Local\Temp\ccLLkDzL.s:20717  .debug_str:0000000000008f70 .LASF529
GAS LISTING C:\Users\SOLDER~1\AppData\Local\Temp\ccLLkDzL.s 			page 23


C:\Users\SOLDER~1\AppData\Local\Temp\ccLLkDzL.s:20363  .debug_str:00000000000077f6 .LASF530
C:\Users\SOLDER~1\AppData\Local\Temp\ccLLkDzL.s:21509  .debug_str:000000000000c362 .LASF531
C:\Users\SOLDER~1\AppData\Local\Temp\ccLLkDzL.s:28087  .debug_str:000000000002717f .LASF532
C:\Users\SOLDER~1\AppData\Local\Temp\ccLLkDzL.s:29861  .debug_str:000000000002e4ef .LASF533
C:\Users\SOLDER~1\AppData\Local\Temp\ccLLkDzL.s:22937  .debug_str:000000000001204a .LASF534
C:\Users\SOLDER~1\AppData\Local\Temp\ccLLkDzL.s:29253  .debug_str:000000000002bd8d .LASF535
C:\Users\SOLDER~1\AppData\Local\Temp\ccLLkDzL.s:25397  .debug_str:000000000001c0cf .LASF536
C:\Users\SOLDER~1\AppData\Local\Temp\ccLLkDzL.s:21829  .debug_str:000000000000d894 .LASF537
C:\Users\SOLDER~1\AppData\Local\Temp\ccLLkDzL.s:25175  .debug_str:000000000001b272 .LASF538
C:\Users\SOLDER~1\AppData\Local\Temp\ccLLkDzL.s:19613  .debug_str:0000000000004797 .LASF539
C:\Users\SOLDER~1\AppData\Local\Temp\ccLLkDzL.s:27157  .debug_str:00000000000233df .LASF540
C:\Users\SOLDER~1\AppData\Local\Temp\ccLLkDzL.s:25221  .debug_str:000000000001b558 .LASF541
C:\Users\SOLDER~1\AppData\Local\Temp\ccLLkDzL.s:29345  .debug_str:000000000002c3b2 .LASF542
C:\Users\SOLDER~1\AppData\Local\Temp\ccLLkDzL.s:21331  .debug_str:000000000000b77c .LASF543
C:\Users\SOLDER~1\AppData\Local\Temp\ccLLkDzL.s:28063  .debug_str:0000000000026ff9 .LASF544
C:\Users\SOLDER~1\AppData\Local\Temp\ccLLkDzL.s:27297  .debug_str:0000000000023cc4 .LASF545
C:\Users\SOLDER~1\AppData\Local\Temp\ccLLkDzL.s:26075  .debug_str:000000000001ed51 .LASF546
C:\Users\SOLDER~1\AppData\Local\Temp\ccLLkDzL.s:28283  .debug_str:0000000000027e47 .LASF547
C:\Users\SOLDER~1\AppData\Local\Temp\ccLLkDzL.s:26279  .debug_str:000000000001fae0 .LASF548
C:\Users\SOLDER~1\AppData\Local\Temp\ccLLkDzL.s:24403  .debug_str:00000000000180d5 .LASF549
C:\Users\SOLDER~1\AppData\Local\Temp\ccLLkDzL.s:23127  .debug_str:0000000000012ccb .LASF550
C:\Users\SOLDER~1\AppData\Local\Temp\ccLLkDzL.s:26703  .debug_str:0000000000021652 .LASF551
C:\Users\SOLDER~1\AppData\Local\Temp\ccLLkDzL.s:23361  .debug_str:0000000000013cf0 .LASF552
C:\Users\SOLDER~1\AppData\Local\Temp\ccLLkDzL.s:25949  .debug_str:000000000001e4fd .LASF553
C:\Users\SOLDER~1\AppData\Local\Temp\ccLLkDzL.s:23897  .debug_str:000000000001603c .LASF554
C:\Users\SOLDER~1\AppData\Local\Temp\ccLLkDzL.s:18857  .debug_str:0000000000001701 .LASF555
C:\Users\SOLDER~1\AppData\Local\Temp\ccLLkDzL.s:22661  .debug_str:0000000000010eb9 .LASF556
C:\Users\SOLDER~1\AppData\Local\Temp\ccLLkDzL.s:20005  .debug_str:00000000000060b4 .LASF557
C:\Users\SOLDER~1\AppData\Local\Temp\ccLLkDzL.s:22559  .debug_str:000000000001084f .LASF558
C:\Users\SOLDER~1\AppData\Local\Temp\ccLLkDzL.s:22429  .debug_str:000000000000ffe8 .LASF559
C:\Users\SOLDER~1\AppData\Local\Temp\ccLLkDzL.s:18945  .debug_str:0000000000001cb6 .LASF560
C:\Users\SOLDER~1\AppData\Local\Temp\ccLLkDzL.s:27609  .debug_str:0000000000025168 .LASF561
C:\Users\SOLDER~1\AppData\Local\Temp\ccLLkDzL.s:29537  .debug_str:000000000002d05a .LASF562
C:\Users\SOLDER~1\AppData\Local\Temp\ccLLkDzL.s:29771  .debug_str:000000000002df28 .LASF563
C:\Users\SOLDER~1\AppData\Local\Temp\ccLLkDzL.s:21899  .debug_str:000000000000dd09 .LASF564
C:\Users\SOLDER~1\AppData\Local\Temp\ccLLkDzL.s:18765  .debug_str:000000000000110c .LASF565
C:\Users\SOLDER~1\AppData\Local\Temp\ccLLkDzL.s:27207  .debug_str:0000000000023717 .LASF566
C:\Users\SOLDER~1\AppData\Local\Temp\ccLLkDzL.s:25101  .debug_str:000000000001adf7 .LASF567
C:\Users\SOLDER~1\AppData\Local\Temp\ccLLkDzL.s:25335  .debug_str:000000000001bc90 .LASF568
C:\Users\SOLDER~1\AppData\Local\Temp\ccLLkDzL.s:18975  .debug_str:0000000000001e90 .LASF569
C:\Users\SOLDER~1\AppData\Local\Temp\ccLLkDzL.s:23697  .debug_str:0000000000015369 .LASF570
C:\Users\SOLDER~1\AppData\Local\Temp\ccLLkDzL.s:27393  .debug_str:000000000002432d .LASF571
C:\Users\SOLDER~1\AppData\Local\Temp\ccLLkDzL.s:22219  .debug_str:000000000000f1ff .LASF572
C:\Users\SOLDER~1\AppData\Local\Temp\ccLLkDzL.s:24137  .debug_str:0000000000016f3d .LASF573
C:\Users\SOLDER~1\AppData\Local\Temp\ccLLkDzL.s:22035  .debug_str:000000000000e635 .LASF574
C:\Users\SOLDER~1\AppData\Local\Temp\ccLLkDzL.s:24031  .debug_str:0000000000016891 .LASF575
C:\Users\SOLDER~1\AppData\Local\Temp\ccLLkDzL.s:23153  .debug_str:0000000000012e83 .LASF576
C:\Users\SOLDER~1\AppData\Local\Temp\ccLLkDzL.s:23115  .debug_str:0000000000012c05 .LASF577
C:\Users\SOLDER~1\AppData\Local\Temp\ccLLkDzL.s:29611  .debug_str:000000000002d4ed .LASF578
C:\Users\SOLDER~1\AppData\Local\Temp\ccLLkDzL.s:24579  .debug_str:0000000000018c60 .LASF579
C:\Users\SOLDER~1\AppData\Local\Temp\ccLLkDzL.s:27811  .debug_str:0000000000025f10 .LASF580
C:\Users\SOLDER~1\AppData\Local\Temp\ccLLkDzL.s:19609  .debug_str:0000000000004759 .LASF581
C:\Users\SOLDER~1\AppData\Local\Temp\ccLLkDzL.s:22897  .debug_str:0000000000011dc5 .LASF582
C:\Users\SOLDER~1\AppData\Local\Temp\ccLLkDzL.s:26095  .debug_str:000000000001eeb2 .LASF583
C:\Users\SOLDER~1\AppData\Local\Temp\ccLLkDzL.s:29381  .debug_str:000000000002c603 .LASF584
C:\Users\SOLDER~1\AppData\Local\Temp\ccLLkDzL.s:21155  .debug_str:000000000000ac2a .LASF585
C:\Users\SOLDER~1\AppData\Local\Temp\ccLLkDzL.s:28919  .debug_str:000000000002a7a9 .LASF586
GAS LISTING C:\Users\SOLDER~1\AppData\Local\Temp\ccLLkDzL.s 			page 24


C:\Users\SOLDER~1\AppData\Local\Temp\ccLLkDzL.s:27821  .debug_str:0000000000025fc4 .LASF587
C:\Users\SOLDER~1\AppData\Local\Temp\ccLLkDzL.s:23051  .debug_str:000000000001278e .LASF588
C:\Users\SOLDER~1\AppData\Local\Temp\ccLLkDzL.s:24955  .debug_str:000000000001a42e .LASF589
C:\Users\SOLDER~1\AppData\Local\Temp\ccLLkDzL.s:27097  .debug_str:0000000000022fcb .LASF590
C:\Users\SOLDER~1\AppData\Local\Temp\ccLLkDzL.s:24063  .debug_str:0000000000016a82 .LASF591
C:\Users\SOLDER~1\AppData\Local\Temp\ccLLkDzL.s:28537  .debug_str:0000000000028e95 .LASF592
C:\Users\SOLDER~1\AppData\Local\Temp\ccLLkDzL.s:25651  .debug_str:000000000001d212 .LASF593
C:\Users\SOLDER~1\AppData\Local\Temp\ccLLkDzL.s:24351  .debug_str:0000000000017d50 .LASF594
C:\Users\SOLDER~1\AppData\Local\Temp\ccLLkDzL.s:29705  .debug_str:000000000002daea .LASF595
C:\Users\SOLDER~1\AppData\Local\Temp\ccLLkDzL.s:21167  .debug_str:000000000000ad06 .LASF596
C:\Users\SOLDER~1\AppData\Local\Temp\ccLLkDzL.s:29139  .debug_str:000000000002b62c .LASF597
C:\Users\SOLDER~1\AppData\Local\Temp\ccLLkDzL.s:23091  .debug_str:0000000000012a43 .LASF598
C:\Users\SOLDER~1\AppData\Local\Temp\ccLLkDzL.s:28551  .debug_str:0000000000028f90 .LASF599
C:\Users\SOLDER~1\AppData\Local\Temp\ccLLkDzL.s:22539  .debug_str:00000000000106d9 .LASF600
C:\Users\SOLDER~1\AppData\Local\Temp\ccLLkDzL.s:27867  .debug_str:000000000002630b .LASF601
C:\Users\SOLDER~1\AppData\Local\Temp\ccLLkDzL.s:27971  .debug_str:00000000000269fc .LASF602
C:\Users\SOLDER~1\AppData\Local\Temp\ccLLkDzL.s:21903  .debug_str:000000000000dd4e .LASF603
C:\Users\SOLDER~1\AppData\Local\Temp\ccLLkDzL.s:21693  .debug_str:000000000000cfc6 .LASF604
C:\Users\SOLDER~1\AppData\Local\Temp\ccLLkDzL.s:25729  .debug_str:000000000001d6d8 .LASF605
C:\Users\SOLDER~1\AppData\Local\Temp\ccLLkDzL.s:27643  .debug_str:0000000000025377 .LASF606
C:\Users\SOLDER~1\AppData\Local\Temp\ccLLkDzL.s:24143  .debug_str:0000000000016fab .LASF607
C:\Users\SOLDER~1\AppData\Local\Temp\ccLLkDzL.s:26853  .debug_str:0000000000021fe9 .LASF608
C:\Users\SOLDER~1\AppData\Local\Temp\ccLLkDzL.s:29225  .debug_str:000000000002bb95 .LASF609
C:\Users\SOLDER~1\AppData\Local\Temp\ccLLkDzL.s:20801  .debug_str:0000000000009524 .LASF610
C:\Users\SOLDER~1\AppData\Local\Temp\ccLLkDzL.s:22829  .debug_str:000000000001197d .LASF611
C:\Users\SOLDER~1\AppData\Local\Temp\ccLLkDzL.s:23103  .debug_str:0000000000012b34 .LASF612
C:\Users\SOLDER~1\AppData\Local\Temp\ccLLkDzL.s:25723  .debug_str:000000000001d683 .LASF613
C:\Users\SOLDER~1\AppData\Local\Temp\ccLLkDzL.s:20245  .debug_str:00000000000070cf .LASF614
C:\Users\SOLDER~1\AppData\Local\Temp\ccLLkDzL.s:18987  .debug_str:0000000000001f71 .LASF615
C:\Users\SOLDER~1\AppData\Local\Temp\ccLLkDzL.s:24215  .debug_str:000000000001747d .LASF616
C:\Users\SOLDER~1\AppData\Local\Temp\ccLLkDzL.s:19845  .debug_str:00000000000055bb .LASF617
C:\Users\SOLDER~1\AppData\Local\Temp\ccLLkDzL.s:28181  .debug_str:00000000000277a3 .LASF618
C:\Users\SOLDER~1\AppData\Local\Temp\ccLLkDzL.s:19273  .debug_str:00000000000031d9 .LASF619
C:\Users\SOLDER~1\AppData\Local\Temp\ccLLkDzL.s:25855  .debug_str:000000000001defc .LASF620
C:\Users\SOLDER~1\AppData\Local\Temp\ccLLkDzL.s:19365  .debug_str:00000000000037c0 .LASF621
C:\Users\SOLDER~1\AppData\Local\Temp\ccLLkDzL.s:23761  .debug_str:00000000000157a0 .LASF622
C:\Users\SOLDER~1\AppData\Local\Temp\ccLLkDzL.s:24825  .debug_str:0000000000019be4 .LASF623
C:\Users\SOLDER~1\AppData\Local\Temp\ccLLkDzL.s:22707  .debug_str:0000000000011194 .LASF624
C:\Users\SOLDER~1\AppData\Local\Temp\ccLLkDzL.s:25407  .debug_str:000000000001c15f .LASF625
C:\Users\SOLDER~1\AppData\Local\Temp\ccLLkDzL.s:20211  .debug_str:0000000000006e59 .LASF626
C:\Users\SOLDER~1\AppData\Local\Temp\ccLLkDzL.s:20169  .debug_str:0000000000006b88 .LASF627
C:\Users\SOLDER~1\AppData\Local\Temp\ccLLkDzL.s:25065  .debug_str:000000000001abad .LASF628
C:\Users\SOLDER~1\AppData\Local\Temp\ccLLkDzL.s:21907  .debug_str:000000000000dd98 .LASF629
C:\Users\SOLDER~1\AppData\Local\Temp\ccLLkDzL.s:26347  .debug_str:000000000001ff30 .LASF630
C:\Users\SOLDER~1\AppData\Local\Temp\ccLLkDzL.s:25329  .debug_str:000000000001bc37 .LASF631
C:\Users\SOLDER~1\AppData\Local\Temp\ccLLkDzL.s:26335  .debug_str:000000000001fe6b .LASF632
C:\Users\SOLDER~1\AppData\Local\Temp\ccLLkDzL.s:24791  .debug_str:00000000000199e7 .LASF633
C:\Users\SOLDER~1\AppData\Local\Temp\ccLLkDzL.s:28369  .debug_str:00000000000283e3 .LASF634
C:\Users\SOLDER~1\AppData\Local\Temp\ccLLkDzL.s:23561  .debug_str:0000000000014a93 .LASF635
C:\Users\SOLDER~1\AppData\Local\Temp\ccLLkDzL.s:25295  .debug_str:000000000001b9f3 .LASF636
C:\Users\SOLDER~1\AppData\Local\Temp\ccLLkDzL.s:18999  .debug_str:000000000000200b .LASF637
C:\Users\SOLDER~1\AppData\Local\Temp\ccLLkDzL.s:18957  .debug_str:0000000000001d77 .LASF638
C:\Users\SOLDER~1\AppData\Local\Temp\ccLLkDzL.s:29233  .debug_str:000000000002bc2a .LASF639
C:\Users\SOLDER~1\AppData\Local\Temp\ccLLkDzL.s:23155  .debug_str:0000000000012ea1 .LASF640
C:\Users\SOLDER~1\AppData\Local\Temp\ccLLkDzL.s:24165  .debug_str:000000000001712a .LASF641
C:\Users\SOLDER~1\AppData\Local\Temp\ccLLkDzL.s:24075  .debug_str:0000000000016b2e .LASF642
C:\Users\SOLDER~1\AppData\Local\Temp\ccLLkDzL.s:25425  .debug_str:000000000001c2b1 .LASF643
GAS LISTING C:\Users\SOLDER~1\AppData\Local\Temp\ccLLkDzL.s 			page 25


C:\Users\SOLDER~1\AppData\Local\Temp\ccLLkDzL.s:20075  .debug_str:000000000000654e .LASF644
C:\Users\SOLDER~1\AppData\Local\Temp\ccLLkDzL.s:27387  .debug_str:00000000000242cf .LASF645
C:\Users\SOLDER~1\AppData\Local\Temp\ccLLkDzL.s:24125  .debug_str:0000000000016e6a .LASF646
C:\Users\SOLDER~1\AppData\Local\Temp\ccLLkDzL.s:22043  .debug_str:000000000000e6b8 .LASF647
C:\Users\SOLDER~1\AppData\Local\Temp\ccLLkDzL.s:23555  .debug_str:0000000000014a19 .LASF648
C:\Users\SOLDER~1\AppData\Local\Temp\ccLLkDzL.s:27249  .debug_str:00000000000239a5 .LASF649
C:\Users\SOLDER~1\AppData\Local\Temp\ccLLkDzL.s:28719  .debug_str:0000000000029a83 .LASF650
C:\Users\SOLDER~1\AppData\Local\Temp\ccLLkDzL.s:24963  .debug_str:000000000001a4a6 .LASF651
C:\Users\SOLDER~1\AppData\Local\Temp\ccLLkDzL.s:20655  .debug_str:0000000000008b36 .LASF652
C:\Users\SOLDER~1\AppData\Local\Temp\ccLLkDzL.s:24567  .debug_str:0000000000018b81 .LASF653
C:\Users\SOLDER~1\AppData\Local\Temp\ccLLkDzL.s:23875  .debug_str:0000000000015ed0 .LASF654
C:\Users\SOLDER~1\AppData\Local\Temp\ccLLkDzL.s:29725  .debug_str:000000000002dc4e .LASF655
C:\Users\SOLDER~1\AppData\Local\Temp\ccLLkDzL.s:24613  .debug_str:0000000000018e9c .LASF656
C:\Users\SOLDER~1\AppData\Local\Temp\ccLLkDzL.s:28997  .debug_str:000000000002acca .LASF657
C:\Users\SOLDER~1\AppData\Local\Temp\ccLLkDzL.s:28367  .debug_str:00000000000283c2 .LASF658
C:\Users\SOLDER~1\AppData\Local\Temp\ccLLkDzL.s:27159  .debug_str:0000000000023404 .LASF659
C:\Users\SOLDER~1\AppData\Local\Temp\ccLLkDzL.s:27187  .debug_str:00000000000235e7 .LASF660
C:\Users\SOLDER~1\AppData\Local\Temp\ccLLkDzL.s:29387  .debug_str:000000000002c67a .LASF661
C:\Users\SOLDER~1\AppData\Local\Temp\ccLLkDzL.s:21917  .debug_str:000000000000de46 .LASF662
C:\Users\SOLDER~1\AppData\Local\Temp\ccLLkDzL.s:21237  .debug_str:000000000000b166 .LASF663
C:\Users\SOLDER~1\AppData\Local\Temp\ccLLkDzL.s:28669  .debug_str:000000000002974c .LASF664
C:\Users\SOLDER~1\AppData\Local\Temp\ccLLkDzL.s:25877  .debug_str:000000000001e075 .LASF665
C:\Users\SOLDER~1\AppData\Local\Temp\ccLLkDzL.s:26149  .debug_str:000000000001f267 .LASF666
C:\Users\SOLDER~1\AppData\Local\Temp\ccLLkDzL.s:26165  .debug_str:000000000001f387 .LASF667
C:\Users\SOLDER~1\AppData\Local\Temp\ccLLkDzL.s:20131  .debug_str:000000000000693d .LASF668
C:\Users\SOLDER~1\AppData\Local\Temp\ccLLkDzL.s:27223  .debug_str:000000000002381c .LASF669
C:\Users\SOLDER~1\AppData\Local\Temp\ccLLkDzL.s:28241  .debug_str:0000000000027b89 .LASF670
C:\Users\SOLDER~1\AppData\Local\Temp\ccLLkDzL.s:29693  .debug_str:000000000002da3a .LASF671
C:\Users\SOLDER~1\AppData\Local\Temp\ccLLkDzL.s:28989  .debug_str:000000000002ac50 .LASF672
C:\Users\SOLDER~1\AppData\Local\Temp\ccLLkDzL.s:25265  .debug_str:000000000001b7de .LASF673
C:\Users\SOLDER~1\AppData\Local\Temp\ccLLkDzL.s:21429  .debug_str:000000000000bddb .LASF674
C:\Users\SOLDER~1\AppData\Local\Temp\ccLLkDzL.s:19399  .debug_str:00000000000039f0 .LASF675
C:\Users\SOLDER~1\AppData\Local\Temp\ccLLkDzL.s:22567  .debug_str:00000000000108d0 .LASF676
C:\Users\SOLDER~1\AppData\Local\Temp\ccLLkDzL.s:24969  .debug_str:000000000001a516 .LASF677
C:\Users\SOLDER~1\AppData\Local\Temp\ccLLkDzL.s:28043  .debug_str:0000000000026eaf .LASF678
C:\Users\SOLDER~1\AppData\Local\Temp\ccLLkDzL.s:29313  .debug_str:000000000002c1c0 .LASF679
C:\Users\SOLDER~1\AppData\Local\Temp\ccLLkDzL.s:24287  .debug_str:0000000000017916 .LASF680
C:\Users\SOLDER~1\AppData\Local\Temp\ccLLkDzL.s:25797  .debug_str:000000000001db14 .LASF681
C:\Users\SOLDER~1\AppData\Local\Temp\ccLLkDzL.s:23105  .debug_str:0000000000012b4c .LASF682
C:\Users\SOLDER~1\AppData\Local\Temp\ccLLkDzL.s:24011  .debug_str:0000000000016749 .LASF683
C:\Users\SOLDER~1\AppData\Local\Temp\ccLLkDzL.s:20605  .debug_str:00000000000087ed .LASF684
C:\Users\SOLDER~1\AppData\Local\Temp\ccLLkDzL.s:25573  .debug_str:000000000001cccc .LASF685
C:\Users\SOLDER~1\AppData\Local\Temp\ccLLkDzL.s:26111  .debug_str:000000000001efd1 .LASF686
C:\Users\SOLDER~1\AppData\Local\Temp\ccLLkDzL.s:18921  .debug_str:0000000000001af2 .LASF687
C:\Users\SOLDER~1\AppData\Local\Temp\ccLLkDzL.s:25889  .debug_str:000000000001e127 .LASF688
C:\Users\SOLDER~1\AppData\Local\Temp\ccLLkDzL.s:29199  .debug_str:000000000002b9f1 .LASF689
C:\Users\SOLDER~1\AppData\Local\Temp\ccLLkDzL.s:18543  .debug_str:00000000000001d2 .LASF690
C:\Users\SOLDER~1\AppData\Local\Temp\ccLLkDzL.s:26369  .debug_str:000000000002008b .LASF691
C:\Users\SOLDER~1\AppData\Local\Temp\ccLLkDzL.s:26321  .debug_str:000000000001fd72 .LASF692
C:\Users\SOLDER~1\AppData\Local\Temp\ccLLkDzL.s:20703  .debug_str:0000000000008e7d .LASF693
C:\Users\SOLDER~1\AppData\Local\Temp\ccLLkDzL.s:26077  .debug_str:000000000001ed7e .LASF694
C:\Users\SOLDER~1\AppData\Local\Temp\ccLLkDzL.s:20687  .debug_str:0000000000008d5c .LASF695
C:\Users\SOLDER~1\AppData\Local\Temp\ccLLkDzL.s:25583  .debug_str:000000000001cd7a .LASF696
C:\Users\SOLDER~1\AppData\Local\Temp\ccLLkDzL.s:28231  .debug_str:0000000000027ac6 .LASF697
C:\Users\SOLDER~1\AppData\Local\Temp\ccLLkDzL.s:29011  .debug_str:000000000002ad93 .LASF698
C:\Users\SOLDER~1\AppData\Local\Temp\ccLLkDzL.s:22061  .debug_str:000000000000e818 .LASF699
C:\Users\SOLDER~1\AppData\Local\Temp\ccLLkDzL.s:29695  .debug_str:000000000002da50 .LASF700
GAS LISTING C:\Users\SOLDER~1\AppData\Local\Temp\ccLLkDzL.s 			page 26


C:\Users\SOLDER~1\AppData\Local\Temp\ccLLkDzL.s:24823  .debug_str:0000000000019bd1 .LASF701
C:\Users\SOLDER~1\AppData\Local\Temp\ccLLkDzL.s:19335  .debug_str:00000000000035c2 .LASF702
C:\Users\SOLDER~1\AppData\Local\Temp\ccLLkDzL.s:27299  .debug_str:0000000000023cf1 .LASF703
C:\Users\SOLDER~1\AppData\Local\Temp\ccLLkDzL.s:25299  .debug_str:000000000001ba1e .LASF704
C:\Users\SOLDER~1\AppData\Local\Temp\ccLLkDzL.s:28281  .debug_str:0000000000027e24 .LASF705
C:\Users\SOLDER~1\AppData\Local\Temp\ccLLkDzL.s:24047  .debug_str:00000000000169a9 .LASF706
C:\Users\SOLDER~1\AppData\Local\Temp\ccLLkDzL.s:21383  .debug_str:000000000000bb13 .LASF707
C:\Users\SOLDER~1\AppData\Local\Temp\ccLLkDzL.s:26899  .debug_str:000000000002229b .LASF708
C:\Users\SOLDER~1\AppData\Local\Temp\ccLLkDzL.s:26363  .debug_str:0000000000020022 .LASF709
C:\Users\SOLDER~1\AppData\Local\Temp\ccLLkDzL.s:19351  .debug_str:00000000000036be .LASF710
C:\Users\SOLDER~1\AppData\Local\Temp\ccLLkDzL.s:27775  .debug_str:0000000000025c8c .LASF711
C:\Users\SOLDER~1\AppData\Local\Temp\ccLLkDzL.s:27089  .debug_str:0000000000022f40 .LASF712
C:\Users\SOLDER~1\AppData\Local\Temp\ccLLkDzL.s:20469  .debug_str:0000000000007f18 .LASF713
C:\Users\SOLDER~1\AppData\Local\Temp\ccLLkDzL.s:28121  .debug_str:00000000000273be .LASF714
C:\Users\SOLDER~1\AppData\Local\Temp\ccLLkDzL.s:26093  .debug_str:000000000001ee8f .LASF715
C:\Users\SOLDER~1\AppData\Local\Temp\ccLLkDzL.s:19163  .debug_str:0000000000002ad5 .LASF716
C:\Users\SOLDER~1\AppData\Local\Temp\ccLLkDzL.s:22591  .debug_str:0000000000010a31 .LASF717
C:\Users\SOLDER~1\AppData\Local\Temp\ccLLkDzL.s:29735  .debug_str:000000000002dcfb .LASF718
C:\Users\SOLDER~1\AppData\Local\Temp\ccLLkDzL.s:24999  .debug_str:000000000001a734 .LASF719
C:\Users\SOLDER~1\AppData\Local\Temp\ccLLkDzL.s:23019  .debug_str:000000000001259e .LASF720
C:\Users\SOLDER~1\AppData\Local\Temp\ccLLkDzL.s:26641  .debug_str:0000000000021279 .LASF721
C:\Users\SOLDER~1\AppData\Local\Temp\ccLLkDzL.s:24793  .debug_str:0000000000019a09 .LASF722
C:\Users\SOLDER~1\AppData\Local\Temp\ccLLkDzL.s:26685  .debug_str:0000000000021541 .LASF723
C:\Users\SOLDER~1\AppData\Local\Temp\ccLLkDzL.s:23939  .debug_str:00000000000162dc .LASF724
C:\Users\SOLDER~1\AppData\Local\Temp\ccLLkDzL.s:23191  .debug_str:00000000000130f3 .LASF725
C:\Users\SOLDER~1\AppData\Local\Temp\ccLLkDzL.s:28889  .debug_str:000000000002a60a .LASF726
C:\Users\SOLDER~1\AppData\Local\Temp\ccLLkDzL.s:23371  .debug_str:0000000000013da5 .LASF727
C:\Users\SOLDER~1\AppData\Local\Temp\ccLLkDzL.s:18681  .debug_str:0000000000000ba4 .LASF728
C:\Users\SOLDER~1\AppData\Local\Temp\ccLLkDzL.s:21817  .debug_str:000000000000d7d6 .LASF729
C:\Users\SOLDER~1\AppData\Local\Temp\ccLLkDzL.s:24645  .debug_str:000000000001909a .LASF730
C:\Users\SOLDER~1\AppData\Local\Temp\ccLLkDzL.s:25247  .debug_str:000000000001b6d3 .LASF731
C:\Users\SOLDER~1\AppData\Local\Temp\ccLLkDzL.s:20297  .debug_str:0000000000007412 .LASF732
C:\Users\SOLDER~1\AppData\Local\Temp\ccLLkDzL.s:20905  .debug_str:0000000000009b9f .LASF733
C:\Users\SOLDER~1\AppData\Local\Temp\ccLLkDzL.s:26883  .debug_str:0000000000022189 .LASF734
C:\Users\SOLDER~1\AppData\Local\Temp\ccLLkDzL.s:26815  .debug_str:0000000000021d96 .LASF735
C:\Users\SOLDER~1\AppData\Local\Temp\ccLLkDzL.s:24481  .debug_str:00000000000185c7 .LASF736
C:\Users\SOLDER~1\AppData\Local\Temp\ccLLkDzL.s:21377  .debug_str:000000000000ba9e .LASF737
C:\Users\SOLDER~1\AppData\Local\Temp\ccLLkDzL.s:29865  .debug_str:000000000002e531 .LASF738
C:\Users\SOLDER~1\AppData\Local\Temp\ccLLkDzL.s:21603  .debug_str:000000000000c9d4 .LASF739
C:\Users\SOLDER~1\AppData\Local\Temp\ccLLkDzL.s:19023  .debug_str:00000000000021bb .LASF740
C:\Users\SOLDER~1\AppData\Local\Temp\ccLLkDzL.s:23669  .debug_str:0000000000015188 .LASF741
C:\Users\SOLDER~1\AppData\Local\Temp\ccLLkDzL.s:21365  .debug_str:000000000000b9c2 .LASF742
C:\Users\SOLDER~1\AppData\Local\Temp\ccLLkDzL.s:28157  .debug_str:0000000000027619 .LASF743
C:\Users\SOLDER~1\AppData\Local\Temp\ccLLkDzL.s:24811  .debug_str:0000000000019b28 .LASF744
C:\Users\SOLDER~1\AppData\Local\Temp\ccLLkDzL.s:22959  .debug_str:00000000000121a3 .LASF745
C:\Users\SOLDER~1\AppData\Local\Temp\ccLLkDzL.s:26241  .debug_str:000000000001f88a .LASF746
C:\Users\SOLDER~1\AppData\Local\Temp\ccLLkDzL.s:26809  .debug_str:0000000000021d30 .LASF747
C:\Users\SOLDER~1\AppData\Local\Temp\ccLLkDzL.s:27741  .debug_str:0000000000025a1a .LASF748
C:\Users\SOLDER~1\AppData\Local\Temp\ccLLkDzL.s:27175  .debug_str:0000000000023515 .LASF749
C:\Users\SOLDER~1\AppData\Local\Temp\ccLLkDzL.s:20195  .debug_str:0000000000006d20 .LASF750
C:\Users\SOLDER~1\AppData\Local\Temp\ccLLkDzL.s:19687  .debug_str:0000000000004c51 .LASF751
C:\Users\SOLDER~1\AppData\Local\Temp\ccLLkDzL.s:21075  .debug_str:000000000000a724 .LASF752
C:\Users\SOLDER~1\AppData\Local\Temp\ccLLkDzL.s:21283  .debug_str:000000000000b47b .LASF753
C:\Users\SOLDER~1\AppData\Local\Temp\ccLLkDzL.s:28975  .debug_str:000000000002ab70 .LASF754
C:\Users\SOLDER~1\AppData\Local\Temp\ccLLkDzL.s:26895  .debug_str:0000000000022260 .LASF755
C:\Users\SOLDER~1\AppData\Local\Temp\ccLLkDzL.s:19173  .debug_str:0000000000002b48 .LASF756
C:\Users\SOLDER~1\AppData\Local\Temp\ccLLkDzL.s:28187  .debug_str:00000000000277f4 .LASF757
GAS LISTING C:\Users\SOLDER~1\AppData\Local\Temp\ccLLkDzL.s 			page 27


C:\Users\SOLDER~1\AppData\Local\Temp\ccLLkDzL.s:19055  .debug_str:00000000000023e2 .LASF758
C:\Users\SOLDER~1\AppData\Local\Temp\ccLLkDzL.s:24741  .debug_str:00000000000196a9 .LASF759
C:\Users\SOLDER~1\AppData\Local\Temp\ccLLkDzL.s:23877  .debug_str:0000000000015ef5 .LASF760
C:\Users\SOLDER~1\AppData\Local\Temp\ccLLkDzL.s:18579  .debug_str:0000000000000426 .LASF761
C:\Users\SOLDER~1\AppData\Local\Temp\ccLLkDzL.s:18763  .debug_str:00000000000010ec .LASF762
C:\Users\SOLDER~1\AppData\Local\Temp\ccLLkDzL.s:27277  .debug_str:0000000000023b7b .LASF763
C:\Users\SOLDER~1\AppData\Local\Temp\ccLLkDzL.s:27583  .debug_str:0000000000024fc0 .LASF764
C:\Users\SOLDER~1\AppData\Local\Temp\ccLLkDzL.s:19959  .debug_str:0000000000005d78 .LASF765
C:\Users\SOLDER~1\AppData\Local\Temp\ccLLkDzL.s:20771  .debug_str:000000000000931f .LASF766
C:\Users\SOLDER~1\AppData\Local\Temp\ccLLkDzL.s:28723  .debug_str:0000000000029ac4 .LASF767
C:\Users\SOLDER~1\AppData\Local\Temp\ccLLkDzL.s:18709  .debug_str:0000000000000da4 .LASF768
C:\Users\SOLDER~1\AppData\Local\Temp\ccLLkDzL.s:23469  .debug_str:0000000000014455 .LASF769
C:\Users\SOLDER~1\AppData\Local\Temp\ccLLkDzL.s:25447  .debug_str:000000000001c40f .LASF770
C:\Users\SOLDER~1\AppData\Local\Temp\ccLLkDzL.s:20251  .debug_str:0000000000007126 .LASF771
C:\Users\SOLDER~1\AppData\Local\Temp\ccLLkDzL.s:19933  .debug_str:0000000000005bb6 .LASF772
C:\Users\SOLDER~1\AppData\Local\Temp\ccLLkDzL.s:21481  .debug_str:000000000000c155 .LASF773
C:\Users\SOLDER~1\AppData\Local\Temp\ccLLkDzL.s:19075  .debug_str:000000000000253e .LASF774
C:\Users\SOLDER~1\AppData\Local\Temp\ccLLkDzL.s:19727  .debug_str:0000000000004e8e .LASF775
C:\Users\SOLDER~1\AppData\Local\Temp\ccLLkDzL.s:19709  .debug_str:0000000000004d9f .LASF776
C:\Users\SOLDER~1\AppData\Local\Temp\ccLLkDzL.s:19981  .debug_str:0000000000005ed9 .LASF777
C:\Users\SOLDER~1\AppData\Local\Temp\ccLLkDzL.s:28879  .debug_str:000000000002a56a .LASF778
C:\Users\SOLDER~1\AppData\Local\Temp\ccLLkDzL.s:25675  .debug_str:000000000001d3a2 .LASF779
C:\Users\SOLDER~1\AppData\Local\Temp\ccLLkDzL.s:24803  .debug_str:0000000000019aa2 .LASF780
C:\Users\SOLDER~1\AppData\Local\Temp\ccLLkDzL.s:26651  .debug_str:000000000002130f .LASF781
C:\Users\SOLDER~1\AppData\Local\Temp\ccLLkDzL.s:20559  .debug_str:00000000000084fc .LASF782
C:\Users\SOLDER~1\AppData\Local\Temp\ccLLkDzL.s:30005  .debug_str:000000000002ee3f .LASF783
C:\Users\SOLDER~1\AppData\Local\Temp\ccLLkDzL.s:18917  .debug_str:0000000000001aae .LASF784
C:\Users\SOLDER~1\AppData\Local\Temp\ccLLkDzL.s:21779  .debug_str:000000000000d550 .LASF785
C:\Users\SOLDER~1\AppData\Local\Temp\ccLLkDzL.s:20247  .debug_str:00000000000070e7 .LASF786
C:\Users\SOLDER~1\AppData\Local\Temp\ccLLkDzL.s:25103  .debug_str:000000000001ae18 .LASF787
C:\Users\SOLDER~1\AppData\Local\Temp\ccLLkDzL.s:27085  .debug_str:0000000000022eff .LASF788
C:\Users\SOLDER~1\AppData\Local\Temp\ccLLkDzL.s:24289  .debug_str:000000000001793a .LASF789
C:\Users\SOLDER~1\AppData\Local\Temp\ccLLkDzL.s:29667  .debug_str:000000000002d883 .LASF790
C:\Users\SOLDER~1\AppData\Local\Temp\ccLLkDzL.s:24619  .debug_str:0000000000018f09 .LASF791
C:\Users\SOLDER~1\AppData\Local\Temp\ccLLkDzL.s:26849  .debug_str:0000000000021fad .LASF792
C:\Users\SOLDER~1\AppData\Local\Temp\ccLLkDzL.s:22765  .debug_str:0000000000011563 .LASF793
C:\Users\SOLDER~1\AppData\Local\Temp\ccLLkDzL.s:27815  .debug_str:0000000000025f56 .LASF794
C:\Users\SOLDER~1\AppData\Local\Temp\ccLLkDzL.s:28245  .debug_str:0000000000027bd3 .LASF795
C:\Users\SOLDER~1\AppData\Local\Temp\ccLLkDzL.s:21455  .debug_str:000000000000bf9e .LASF796
C:\Users\SOLDER~1\AppData\Local\Temp\ccLLkDzL.s:28275  .debug_str:0000000000027dcb .LASF797
C:\Users\SOLDER~1\AppData\Local\Temp\ccLLkDzL.s:23657  .debug_str:00000000000150c7 .LASF798
C:\Users\SOLDER~1\AppData\Local\Temp\ccLLkDzL.s:23623  .debug_str:0000000000014e5c .LASF799
C:\Users\SOLDER~1\AppData\Local\Temp\ccLLkDzL.s:23083  .debug_str:00000000000129c3 .LASF800
C:\Users\SOLDER~1\AppData\Local\Temp\ccLLkDzL.s:21515  .debug_str:000000000000c3c8 .LASF801
C:\Users\SOLDER~1\AppData\Local\Temp\ccLLkDzL.s:26145  .debug_str:000000000001f223 .LASF802
C:\Users\SOLDER~1\AppData\Local\Temp\ccLLkDzL.s:29955  .debug_str:000000000002eb27 .LASF803
C:\Users\SOLDER~1\AppData\Local\Temp\ccLLkDzL.s:29701  .debug_str:000000000002daa6 .LASF804
C:\Users\SOLDER~1\AppData\Local\Temp\ccLLkDzL.s:27923  .debug_str:00000000000266b6 .LASF805
C:\Users\SOLDER~1\AppData\Local\Temp\ccLLkDzL.s:19125  .debug_str:0000000000002880 .LASF806
C:\Users\SOLDER~1\AppData\Local\Temp\ccLLkDzL.s:27983  .debug_str:0000000000026ad6 .LASF807
C:\Users\SOLDER~1\AppData\Local\Temp\ccLLkDzL.s:28207  .debug_str:0000000000027915 .LASF808
C:\Users\SOLDER~1\AppData\Local\Temp\ccLLkDzL.s:20127  .debug_str:00000000000068fb .LASF809
C:\Users\SOLDER~1\AppData\Local\Temp\ccLLkDzL.s:24865  .debug_str:0000000000019e71 .LASF810
C:\Users\SOLDER~1\AppData\Local\Temp\ccLLkDzL.s:23927  .debug_str:0000000000016232 .LASF811
C:\Users\SOLDER~1\AppData\Local\Temp\ccLLkDzL.s:20099  .debug_str:00000000000066e9 .LASF812
C:\Users\SOLDER~1\AppData\Local\Temp\ccLLkDzL.s:29555  .debug_str:000000000002d16e .LASF813
C:\Users\SOLDER~1\AppData\Local\Temp\ccLLkDzL.s:28585  .debug_str:00000000000291ec .LASF814
GAS LISTING C:\Users\SOLDER~1\AppData\Local\Temp\ccLLkDzL.s 			page 28


C:\Users\SOLDER~1\AppData\Local\Temp\ccLLkDzL.s:19905  .debug_str:00000000000059f3 .LASF815
C:\Users\SOLDER~1\AppData\Local\Temp\ccLLkDzL.s:29229  .debug_str:000000000002bbe3 .LASF816
C:\Users\SOLDER~1\AppData\Local\Temp\ccLLkDzL.s:28105  .debug_str:00000000000272bd .LASF817
C:\Users\SOLDER~1\AppData\Local\Temp\ccLLkDzL.s:26155  .debug_str:000000000001f2d2 .LASF818
C:\Users\SOLDER~1\AppData\Local\Temp\ccLLkDzL.s:27857  .debug_str:000000000002625d .LASF819
C:\Users\SOLDER~1\AppData\Local\Temp\ccLLkDzL.s:24929  .debug_str:000000000001a2a4 .LASF820
C:\Users\SOLDER~1\AppData\Local\Temp\ccLLkDzL.s:21647  .debug_str:000000000000ccc1 .LASF821
C:\Users\SOLDER~1\AppData\Local\Temp\ccLLkDzL.s:26959  .debug_str:00000000000226b3 .LASF822
C:\Users\SOLDER~1\AppData\Local\Temp\ccLLkDzL.s:20849  .debug_str:000000000000981c .LASF823
C:\Users\SOLDER~1\AppData\Local\Temp\ccLLkDzL.s:25757  .debug_str:000000000001d874 .LASF824
C:\Users\SOLDER~1\AppData\Local\Temp\ccLLkDzL.s:22115  .debug_str:000000000000eb4f .LASF825
C:\Users\SOLDER~1\AppData\Local\Temp\ccLLkDzL.s:25525  .debug_str:000000000001c980 .LASF826
C:\Users\SOLDER~1\AppData\Local\Temp\ccLLkDzL.s:28151  .debug_str:00000000000275c9 .LASF827
C:\Users\SOLDER~1\AppData\Local\Temp\ccLLkDzL.s:24357  .debug_str:0000000000017dd1 .LASF828
C:\Users\SOLDER~1\AppData\Local\Temp\ccLLkDzL.s:21677  .debug_str:000000000000ce97 .LASF829
C:\Users\SOLDER~1\AppData\Local\Temp\ccLLkDzL.s:27671  .debug_str:0000000000025541 .LASF830
C:\Users\SOLDER~1\AppData\Local\Temp\ccLLkDzL.s:22297  .debug_str:000000000000f70b .LASF831
C:\Users\SOLDER~1\AppData\Local\Temp\ccLLkDzL.s:28577  .debug_str:000000000002914e .LASF832
C:\Users\SOLDER~1\AppData\Local\Temp\ccLLkDzL.s:20767  .debug_str:00000000000092d9 .LASF833
C:\Users\SOLDER~1\AppData\Local\Temp\ccLLkDzL.s:28471  .debug_str:0000000000028a82 .LASF834
C:\Users\SOLDER~1\AppData\Local\Temp\ccLLkDzL.s:29435  .debug_str:000000000002c95f .LASF835
C:\Users\SOLDER~1\AppData\Local\Temp\ccLLkDzL.s:19465  .debug_str:0000000000003e36 .LASF836
C:\Users\SOLDER~1\AppData\Local\Temp\ccLLkDzL.s:26467  .debug_str:00000000000206ef .LASF837
C:\Users\SOLDER~1\AppData\Local\Temp\ccLLkDzL.s:19141  .debug_str:0000000000002987 .LASF838
C:\Users\SOLDER~1\AppData\Local\Temp\ccLLkDzL.s:21367  .debug_str:000000000000b9e2 .LASF839
C:\Users\SOLDER~1\AppData\Local\Temp\ccLLkDzL.s:19831  .debug_str:00000000000054d6 .LASF840
C:\Users\SOLDER~1\AppData\Local\Temp\ccLLkDzL.s:22711  .debug_str:00000000000111d9 .LASF841
C:\Users\SOLDER~1\AppData\Local\Temp\ccLLkDzL.s:22695  .debug_str:00000000000110c5 .LASF842
C:\Users\SOLDER~1\AppData\Local\Temp\ccLLkDzL.s:25305  .debug_str:000000000001ba7f .LASF843
C:\Users\SOLDER~1\AppData\Local\Temp\ccLLkDzL.s:29793  .debug_str:000000000002e096 .LASF844
C:\Users\SOLDER~1\AppData\Local\Temp\ccLLkDzL.s:28829  .debug_str:000000000002a21e .LASF845
C:\Users\SOLDER~1\AppData\Local\Temp\ccLLkDzL.s:24933  .debug_str:000000000001a2d4 .LASF846
C:\Users\SOLDER~1\AppData\Local\Temp\ccLLkDzL.s:22877  .debug_str:0000000000011c81 .LASF847
C:\Users\SOLDER~1\AppData\Local\Temp\ccLLkDzL.s:18879  .debug_str:0000000000001849 .LASF848
C:\Users\SOLDER~1\AppData\Local\Temp\ccLLkDzL.s:25943  .debug_str:000000000001e488 .LASF849
C:\Users\SOLDER~1\AppData\Local\Temp\ccLLkDzL.s:28913  .debug_str:000000000002a75a .LASF850
C:\Users\SOLDER~1\AppData\Local\Temp\ccLLkDzL.s:19803  .debug_str:000000000000533a .LASF851
C:\Users\SOLDER~1\AppData\Local\Temp\ccLLkDzL.s:22207  .debug_str:000000000000f110 .LASF852
C:\Users\SOLDER~1\AppData\Local\Temp\ccLLkDzL.s:23873  .debug_str:0000000000015eae .LASF853
C:\Users\SOLDER~1\AppData\Local\Temp\ccLLkDzL.s:21059  .debug_str:000000000000a607 .LASF854
C:\Users\SOLDER~1\AppData\Local\Temp\ccLLkDzL.s:22095  .debug_str:000000000000ea0c .LASF855
C:\Users\SOLDER~1\AppData\Local\Temp\ccLLkDzL.s:26049  .debug_str:000000000001ebbd .LASF856
C:\Users\SOLDER~1\AppData\Local\Temp\ccLLkDzL.s:22129  .debug_str:000000000000ec36 .LASF857
C:\Users\SOLDER~1\AppData\Local\Temp\ccLLkDzL.s:26937  .debug_str:000000000002254f .LASF858
C:\Users\SOLDER~1\AppData\Local\Temp\ccLLkDzL.s:19431  .debug_str:0000000000003c02 .LASF859
C:\Users\SOLDER~1\AppData\Local\Temp\ccLLkDzL.s:21425  .debug_str:000000000000bd94 .LASF860
C:\Users\SOLDER~1\AppData\Local\Temp\ccLLkDzL.s:26805  .debug_str:0000000000021cf5 .LASF861
C:\Users\SOLDER~1\AppData\Local\Temp\ccLLkDzL.s:22693  .debug_str:00000000000110b2 .LASF862
C:\Users\SOLDER~1\AppData\Local\Temp\ccLLkDzL.s:25007  .debug_str:000000000001a7a8 .LASF863
C:\Users\SOLDER~1\AppData\Local\Temp\ccLLkDzL.s:26221  .debug_str:000000000001f74d .LASF864
C:\Users\SOLDER~1\AppData\Local\Temp\ccLLkDzL.s:26851  .debug_str:0000000000021fc7 .LASF865
C:\Users\SOLDER~1\AppData\Local\Temp\ccLLkDzL.s:22499  .debug_str:000000000001046f .LASF866
C:\Users\SOLDER~1\AppData\Local\Temp\ccLLkDzL.s:19317  .debug_str:00000000000034bc .LASF867
C:\Users\SOLDER~1\AppData\Local\Temp\ccLLkDzL.s:29831  .debug_str:000000000002e2ed .LASF868
C:\Users\SOLDER~1\AppData\Local\Temp\ccLLkDzL.s:19737  .debug_str:0000000000004f43 .LASF869
C:\Users\SOLDER~1\AppData\Local\Temp\ccLLkDzL.s:23367  .debug_str:0000000000013d59 .LASF870
C:\Users\SOLDER~1\AppData\Local\Temp\ccLLkDzL.s:29341  .debug_str:000000000002c37b .LASF871
GAS LISTING C:\Users\SOLDER~1\AppData\Local\Temp\ccLLkDzL.s 			page 29


C:\Users\SOLDER~1\AppData\Local\Temp\ccLLkDzL.s:23853  .debug_str:0000000000015d54 .LASF872
C:\Users\SOLDER~1\AppData\Local\Temp\ccLLkDzL.s:29949  .debug_str:000000000002ead4 .LASF873
C:\Users\SOLDER~1\AppData\Local\Temp\ccLLkDzL.s:25373  .debug_str:000000000001beff .LASF874
C:\Users\SOLDER~1\AppData\Local\Temp\ccLLkDzL.s:24625  .debug_str:0000000000018f4d .LASF875
C:\Users\SOLDER~1\AppData\Local\Temp\ccLLkDzL.s:20059  .debug_str:0000000000006444 .LASF876
C:\Users\SOLDER~1\AppData\Local\Temp\ccLLkDzL.s:28527  .debug_str:0000000000028dfb .LASF877
C:\Users\SOLDER~1\AppData\Local\Temp\ccLLkDzL.s:27087  .debug_str:0000000000022f1f .LASF878
C:\Users\SOLDER~1\AppData\Local\Temp\ccLLkDzL.s:22653  .debug_str:0000000000010e1c .LASF879
C:\Users\SOLDER~1\AppData\Local\Temp\ccLLkDzL.s:19201  .debug_str:0000000000002d20 .LASF880
C:\Users\SOLDER~1\AppData\Local\Temp\ccLLkDzL.s:29019  .debug_str:000000000002ae20 .LASF881
C:\Users\SOLDER~1\AppData\Local\Temp\ccLLkDzL.s:20199  .debug_str:0000000000006d86 .LASF882
C:\Users\SOLDER~1\AppData\Local\Temp\ccLLkDzL.s:19773  .debug_str:0000000000005177 .LASF883
C:\Users\SOLDER~1\AppData\Local\Temp\ccLLkDzL.s:23741  .debug_str:000000000001564d .LASF884
C:\Users\SOLDER~1\AppData\Local\Temp\ccLLkDzL.s:21435  .debug_str:000000000000be49 .LASF885
C:\Users\SOLDER~1\AppData\Local\Temp\ccLLkDzL.s:25817  .debug_str:000000000001dc83 .LASF886
C:\Users\SOLDER~1\AppData\Local\Temp\ccLLkDzL.s:24903  .debug_str:000000000001a0d7 .LASF887
C:\Users\SOLDER~1\AppData\Local\Temp\ccLLkDzL.s:21069  .debug_str:000000000000a6c0 .LASF888
C:\Users\SOLDER~1\AppData\Local\Temp\ccLLkDzL.s:22589  .debug_str:0000000000010a10 .LASF889
C:\Users\SOLDER~1\AppData\Local\Temp\ccLLkDzL.s:28683  .debug_str:0000000000029828 .LASF890
C:\Users\SOLDER~1\AppData\Local\Temp\ccLLkDzL.s:18589  .debug_str:00000000000004c4 .LASF891
C:\Users\SOLDER~1\AppData\Local\Temp\ccLLkDzL.s:29197  .debug_str:000000000002b9d0 .LASF892
C:\Users\SOLDER~1\AppData\Local\Temp\ccLLkDzL.s:29113  .debug_str:000000000002b471 .LASF893
C:\Users\SOLDER~1\AppData\Local\Temp\ccLLkDzL.s:27101  .debug_str:0000000000023010 .LASF894
C:\Users\SOLDER~1\AppData\Local\Temp\ccLLkDzL.s:28699  .debug_str:0000000000029937 .LASF895
C:\Users\SOLDER~1\AppData\Local\Temp\ccLLkDzL.s:29489  .debug_str:000000000002ccdd .LASF896
C:\Users\SOLDER~1\AppData\Local\Temp\ccLLkDzL.s:28277  .debug_str:0000000000027ded .LASF897
C:\Users\SOLDER~1\AppData\Local\Temp\ccLLkDzL.s:20123  .debug_str:00000000000068b3 .LASF898
C:\Users\SOLDER~1\AppData\Local\Temp\ccLLkDzL.s:18607  .debug_str:0000000000000601 .LASF899
C:\Users\SOLDER~1\AppData\Local\Temp\ccLLkDzL.s:20055  .debug_str:00000000000063fe .LASF900
C:\Users\SOLDER~1\AppData\Local\Temp\ccLLkDzL.s:24385  .debug_str:0000000000017fc5 .LASF901
C:\Users\SOLDER~1\AppData\Local\Temp\ccLLkDzL.s:26263  .debug_str:000000000001f9f0 .LASF902
C:\Users\SOLDER~1\AppData\Local\Temp\ccLLkDzL.s:20275  .debug_str:00000000000072b0 .LASF903
C:\Users\SOLDER~1\AppData\Local\Temp\ccLLkDzL.s:19325  .debug_str:000000000000352f .LASF904
C:\Users\SOLDER~1\AppData\Local\Temp\ccLLkDzL.s:21391  .debug_str:000000000000bb8f .LASF905
C:\Users\SOLDER~1\AppData\Local\Temp\ccLLkDzL.s:19553  .debug_str:00000000000043bb .LASF906
C:\Users\SOLDER~1\AppData\Local\Temp\ccLLkDzL.s:20327  .debug_str:00000000000075e5 .LASF907
C:\Users\SOLDER~1\AppData\Local\Temp\ccLLkDzL.s:27279  .debug_str:0000000000023b9d .LASF908
C:\Users\SOLDER~1\AppData\Local\Temp\ccLLkDzL.s:24171  .debug_str:000000000001718c .LASF909
C:\Users\SOLDER~1\AppData\Local\Temp\ccLLkDzL.s:23253  .debug_str:0000000000013526 .LASF910
C:\Users\SOLDER~1\AppData\Local\Temp\ccLLkDzL.s:25851  .debug_str:000000000001dec4 .LASF911
C:\Users\SOLDER~1\AppData\Local\Temp\ccLLkDzL.s:19815  .debug_str:00000000000053ef .LASF912
C:\Users\SOLDER~1\AppData\Local\Temp\ccLLkDzL.s:28881  .debug_str:000000000002a58c .LASF913
C:\Users\SOLDER~1\AppData\Local\Temp\ccLLkDzL.s:19115  .debug_str:00000000000027a9 .LASF914
C:\Users\SOLDER~1\AppData\Local\Temp\ccLLkDzL.s:25927  .debug_str:000000000001e354 .LASF915
C:\Users\SOLDER~1\AppData\Local\Temp\ccLLkDzL.s:24305  .debug_str:0000000000017a3e .LASF916
C:\Users\SOLDER~1\AppData\Local\Temp\ccLLkDzL.s:19617  .debug_str:00000000000047e2 .LASF917
C:\Users\SOLDER~1\AppData\Local\Temp\ccLLkDzL.s:26179  .debug_str:000000000001f49c .LASF918
C:\Users\SOLDER~1\AppData\Local\Temp\ccLLkDzL.s:25017  .debug_str:000000000001a831 .LASF919
C:\Users\SOLDER~1\AppData\Local\Temp\ccLLkDzL.s:26725  .debug_str:00000000000217d5 .LASF920
C:\Users\SOLDER~1\AppData\Local\Temp\ccLLkDzL.s:22273  .debug_str:000000000000f57e .LASF921
C:\Users\SOLDER~1\AppData\Local\Temp\ccLLkDzL.s:18903  .debug_str:00000000000019c0 .LASF922
C:\Users\SOLDER~1\AppData\Local\Temp\ccLLkDzL.s:28553  .debug_str:0000000000028fca .LASF923
C:\Users\SOLDER~1\AppData\Local\Temp\ccLLkDzL.s:28867  .debug_str:000000000002a499 .LASF924
C:\Users\SOLDER~1\AppData\Local\Temp\ccLLkDzL.s:19691  .debug_str:0000000000004c8a .LASF925
C:\Users\SOLDER~1\AppData\Local\Temp\ccLLkDzL.s:20121  .debug_str:0000000000006893 .LASF926
C:\Users\SOLDER~1\AppData\Local\Temp\ccLLkDzL.s:20979  .debug_str:000000000000a0aa .LASF927
C:\Users\SOLDER~1\AppData\Local\Temp\ccLLkDzL.s:25451  .debug_str:000000000001c46b .LASF928
GAS LISTING C:\Users\SOLDER~1\AppData\Local\Temp\ccLLkDzL.s 			page 30


C:\Users\SOLDER~1\AppData\Local\Temp\ccLLkDzL.s:24547  .debug_str:0000000000018a1d .LASF929
C:\Users\SOLDER~1\AppData\Local\Temp\ccLLkDzL.s:25965  .debug_str:000000000001e620 .LASF930
C:\Users\SOLDER~1\AppData\Local\Temp\ccLLkDzL.s:18843  .debug_str:0000000000001606 .LASF931
C:\Users\SOLDER~1\AppData\Local\Temp\ccLLkDzL.s:20193  .debug_str:0000000000006d0d .LASF932
C:\Users\SOLDER~1\AppData\Local\Temp\ccLLkDzL.s:18759  .debug_str:000000000000108e .LASF933
C:\Users\SOLDER~1\AppData\Local\Temp\ccLLkDzL.s:21951  .debug_str:000000000000e0d7 .LASF934
C:\Users\SOLDER~1\AppData\Local\Temp\ccLLkDzL.s:28745  .debug_str:0000000000029c64 .LASF935
C:\Users\SOLDER~1\AppData\Local\Temp\ccLLkDzL.s:26739  .debug_str:00000000000218bb .LASF936
C:\Users\SOLDER~1\AppData\Local\Temp\ccLLkDzL.s:28311  .debug_str:000000000002804b .LASF937
C:\Users\SOLDER~1\AppData\Local\Temp\ccLLkDzL.s:25603  .debug_str:000000000001ce94 .LASF938
C:\Users\SOLDER~1\AppData\Local\Temp\ccLLkDzL.s:28587  .debug_str:00000000000291ff .LASF939
C:\Users\SOLDER~1\AppData\Local\Temp\ccLLkDzL.s:20807  .debug_str:000000000000958c .LASF940
C:\Users\SOLDER~1\AppData\Local\Temp\ccLLkDzL.s:28729  .debug_str:0000000000029b41 .LASF941
C:\Users\SOLDER~1\AppData\Local\Temp\ccLLkDzL.s:22153  .debug_str:000000000000edd0 .LASF942
C:\Users\SOLDER~1\AppData\Local\Temp\ccLLkDzL.s:27651  .debug_str:00000000000253f5 .LASF943
C:\Users\SOLDER~1\AppData\Local\Temp\ccLLkDzL.s:19339  .debug_str:0000000000003607 .LASF944
C:\Users\SOLDER~1\AppData\Local\Temp\ccLLkDzL.s:21997  .debug_str:000000000000e3dc .LASF945
C:\Users\SOLDER~1\AppData\Local\Temp\ccLLkDzL.s:28901  .debug_str:000000000002a6a7 .LASF946
C:\Users\SOLDER~1\AppData\Local\Temp\ccLLkDzL.s:27725  .debug_str:000000000002592d .LASF947
C:\Users\SOLDER~1\AppData\Local\Temp\ccLLkDzL.s:25201  .debug_str:000000000001b420 .LASF948
C:\Users\SOLDER~1\AppData\Local\Temp\ccLLkDzL.s:20877  .debug_str:00000000000099f4 .LASF949
C:\Users\SOLDER~1\AppData\Local\Temp\ccLLkDzL.s:21967  .debug_str:000000000000e1f2 .LASF950
C:\Users\SOLDER~1\AppData\Local\Temp\ccLLkDzL.s:22319  .debug_str:000000000000f898 .LASF951
C:\Users\SOLDER~1\AppData\Local\Temp\ccLLkDzL.s:29569  .debug_str:000000000002d265 .LASF952
C:\Users\SOLDER~1\AppData\Local\Temp\ccLLkDzL.s:21825  .debug_str:000000000000d856 .LASF953
C:\Users\SOLDER~1\AppData\Local\Temp\ccLLkDzL.s:24207  .debug_str:00000000000173e4 .LASF954
C:\Users\SOLDER~1\AppData\Local\Temp\ccLLkDzL.s:24729  .debug_str:0000000000019611 .LASF955
C:\Users\SOLDER~1\AppData\Local\Temp\ccLLkDzL.s:24575  .debug_str:0000000000018c19 .LASF956
C:\Users\SOLDER~1\AppData\Local\Temp\ccLLkDzL.s:24061  .debug_str:0000000000016a6c .LASF957
C:\Users\SOLDER~1\AppData\Local\Temp\ccLLkDzL.s:22179  .debug_str:000000000000ef5f .LASF958
C:\Users\SOLDER~1\AppData\Local\Temp\ccLLkDzL.s:19655  .debug_str:0000000000004a2d .LASF959
C:\Users\SOLDER~1\AppData\Local\Temp\ccLLkDzL.s:19889  .debug_str:00000000000058d9 .LASF960
C:\Users\SOLDER~1\AppData\Local\Temp\ccLLkDzL.s:26679  .debug_str:00000000000214f2 .LASF961
C:\Users\SOLDER~1\AppData\Local\Temp\ccLLkDzL.s:29023  .debug_str:000000000002ae6a .LASF962
C:\Users\SOLDER~1\AppData\Local\Temp\ccLLkDzL.s:22251  .debug_str:000000000000f40c .LASF963
C:\Users\SOLDER~1\AppData\Local\Temp\ccLLkDzL.s:26621  .debug_str:0000000000021133 .LASF964
C:\Users\SOLDER~1\AppData\Local\Temp\ccLLkDzL.s:29305  .debug_str:000000000002c15d .LASF965
C:\Users\SOLDER~1\AppData\Local\Temp\ccLLkDzL.s:24307  .debug_str:0000000000017a60 .LASF966
C:\Users\SOLDER~1\AppData\Local\Temp\ccLLkDzL.s:24101  .debug_str:0000000000016cce .LASF967
C:\Users\SOLDER~1\AppData\Local\Temp\ccLLkDzL.s:21887  .debug_str:000000000000dc3c .LASF968
C:\Users\SOLDER~1\AppData\Local\Temp\ccLLkDzL.s:20479  .debug_str:0000000000007fd3 .LASF969
C:\Users\SOLDER~1\AppData\Local\Temp\ccLLkDzL.s:19509  .debug_str:0000000000004107 .LASF970
C:\Users\SOLDER~1\AppData\Local\Temp\ccLLkDzL.s:27475  .debug_str:000000000002489e .LASF971
C:\Users\SOLDER~1\AppData\Local\Temp\ccLLkDzL.s:28655  .debug_str:0000000000029677 .LASF972
C:\Users\SOLDER~1\AppData\Local\Temp\ccLLkDzL.s:21667  .debug_str:000000000000cdfc .LASF973
C:\Users\SOLDER~1\AppData\Local\Temp\ccLLkDzL.s:22731  .debug_str:000000000001133f .LASF974
C:\Users\SOLDER~1\AppData\Local\Temp\ccLLkDzL.s:22283  .debug_str:000000000000f616 .LASF975
C:\Users\SOLDER~1\AppData\Local\Temp\ccLLkDzL.s:23151  .debug_str:0000000000012e62 .LASF976
C:\Users\SOLDER~1\AppData\Local\Temp\ccLLkDzL.s:29427  .debug_str:000000000002c8f6 .LASF977
C:\Users\SOLDER~1\AppData\Local\Temp\ccLLkDzL.s:29485  .debug_str:000000000002cc9b .LASF978
C:\Users\SOLDER~1\AppData\Local\Temp\ccLLkDzL.s:24961  .debug_str:000000000001a48f .LASF979
C:\Users\SOLDER~1\AppData\Local\Temp\ccLLkDzL.s:27069  .debug_str:0000000000022de3 .LASF980
C:\Users\SOLDER~1\AppData\Local\Temp\ccLLkDzL.s:20509  .debug_str:00000000000081d8 .LASF981
C:\Users\SOLDER~1\AppData\Local\Temp\ccLLkDzL.s:24737  .debug_str:0000000000019662 .LASF982
C:\Users\SOLDER~1\AppData\Local\Temp\ccLLkDzL.s:27501  .debug_str:0000000000024a74 .LASF983
C:\Users\SOLDER~1\AppData\Local\Temp\ccLLkDzL.s:22465  .debug_str:0000000000010248 .LASF984
C:\Users\SOLDER~1\AppData\Local\Temp\ccLLkDzL.s:23079  .debug_str:0000000000012988 .LASF985
GAS LISTING C:\Users\SOLDER~1\AppData\Local\Temp\ccLLkDzL.s 			page 31


C:\Users\SOLDER~1\AppData\Local\Temp\ccLLkDzL.s:20069  .debug_str:00000000000064e6 .LASF986
C:\Users\SOLDER~1\AppData\Local\Temp\ccLLkDzL.s:18743  .debug_str:0000000000000faf .LASF987
C:\Users\SOLDER~1\AppData\Local\Temp\ccLLkDzL.s:29205  .debug_str:000000000002ba59 .LASF988
C:\Users\SOLDER~1\AppData\Local\Temp\ccLLkDzL.s:25735  .debug_str:000000000001d722 .LASF989
C:\Users\SOLDER~1\AppData\Local\Temp\ccLLkDzL.s:26791  .debug_str:0000000000021c08 .LASF990
C:\Users\SOLDER~1\AppData\Local\Temp\ccLLkDzL.s:21287  .debug_str:000000000000b4c2 .LASF991
C:\Users\SOLDER~1\AppData\Local\Temp\ccLLkDzL.s:24475  .debug_str:0000000000018564 .LASF992
C:\Users\SOLDER~1\AppData\Local\Temp\ccLLkDzL.s:28319  .debug_str:00000000000280c6 .LASF993
C:\Users\SOLDER~1\AppData\Local\Temp\ccLLkDzL.s:25547  .debug_str:000000000001cafe .LASF994
C:\Users\SOLDER~1\AppData\Local\Temp\ccLLkDzL.s:23891  .debug_str:0000000000015fe7 .LASF995
C:\Users\SOLDER~1\AppData\Local\Temp\ccLLkDzL.s:22543  .debug_str:0000000000010732 .LASF996
C:\Users\SOLDER~1\AppData\Local\Temp\ccLLkDzL.s:19421  .debug_str:0000000000003b6b .LASF997
C:\Users\SOLDER~1\AppData\Local\Temp\ccLLkDzL.s:20817  .debug_str:000000000000960b .LASF998
C:\Users\SOLDER~1\AppData\Local\Temp\ccLLkDzL.s:26527  .debug_str:0000000000020ad5 .LASF999
C:\Users\SOLDER~1\AppData\Local\Temp\ccLLkDzL.s:29945  .debug_str:000000000002ea8c .LASF1000
C:\Users\SOLDER~1\AppData\Local\Temp\ccLLkDzL.s:22087  .debug_str:000000000000e9b7 .LASF1001
C:\Users\SOLDER~1\AppData\Local\Temp\ccLLkDzL.s:27529  .debug_str:0000000000024c3a .LASF1002
C:\Users\SOLDER~1\AppData\Local\Temp\ccLLkDzL.s:29153  .debug_str:000000000002b729 .LASF1003
C:\Users\SOLDER~1\AppData\Local\Temp\ccLLkDzL.s:25283  .debug_str:000000000001b92e .LASF1004
C:\Users\SOLDER~1\AppData\Local\Temp\ccLLkDzL.s:24691  .debug_str:00000000000193ae .LASF1005
C:\Users\SOLDER~1\AppData\Local\Temp\ccLLkDzL.s:22899  .debug_str:0000000000011de8 .LASF1006
C:\Users\SOLDER~1\AppData\Local\Temp\ccLLkDzL.s:20229  .debug_str:0000000000006fb2 .LASF1007
C:\Users\SOLDER~1\AppData\Local\Temp\ccLLkDzL.s:20533  .debug_str:0000000000008361 .LASF1008
C:\Users\SOLDER~1\AppData\Local\Temp\ccLLkDzL.s:27323  .debug_str:0000000000023e86 .LASF1009
C:\Users\SOLDER~1\AppData\Local\Temp\ccLLkDzL.s:29661  .debug_str:000000000002d830 .LASF1010
C:\Users\SOLDER~1\AppData\Local\Temp\ccLLkDzL.s:22891  .debug_str:0000000000011d64 .LASF1011
C:\Users\SOLDER~1\AppData\Local\Temp\ccLLkDzL.s:27901  .debug_str:0000000000026522 .LASF1012
C:\Users\SOLDER~1\AppData\Local\Temp\ccLLkDzL.s:29939  .debug_str:000000000002ea33 .LASF1013
C:\Users\SOLDER~1\AppData\Local\Temp\ccLLkDzL.s:28377  .debug_str:0000000000028457 .LASF1014
C:\Users\SOLDER~1\AppData\Local\Temp\ccLLkDzL.s:25463  .debug_str:000000000001c54f .LASF1015
C:\Users\SOLDER~1\AppData\Local\Temp\ccLLkDzL.s:26011  .debug_str:000000000001e952 .LASF1016
C:\Users\SOLDER~1\AppData\Local\Temp\ccLLkDzL.s:21003  .debug_str:000000000000a241 .LASF1017
C:\Users\SOLDER~1\AppData\Local\Temp\ccLLkDzL.s:23641  .debug_str:0000000000014fa0 .LASF1018
C:\Users\SOLDER~1\AppData\Local\Temp\ccLLkDzL.s:28035  .debug_str:0000000000026e49 .LASF1019
C:\Users\SOLDER~1\AppData\Local\Temp\ccLLkDzL.s:21259  .debug_str:000000000000b2cd .LASF1020
C:\Users\SOLDER~1\AppData\Local\Temp\ccLLkDzL.s:22865  .debug_str:0000000000011bdc .LASF1021
C:\Users\SOLDER~1\AppData\Local\Temp\ccLLkDzL.s:24927  .debug_str:000000000001a283 .LASF1022
C:\Users\SOLDER~1\AppData\Local\Temp\ccLLkDzL.s:19237  .debug_str:0000000000002f9c .LASF1023
C:\Users\SOLDER~1\AppData\Local\Temp\ccLLkDzL.s:28085  .debug_str:000000000002715e .LASF1024
C:\Users\SOLDER~1\AppData\Local\Temp\ccLLkDzL.s:27057  .debug_str:0000000000022d4a .LASF1025
C:\Users\SOLDER~1\AppData\Local\Temp\ccLLkDzL.s:25713  .debug_str:000000000001d5cf .LASF1026
C:\Users\SOLDER~1\AppData\Local\Temp\ccLLkDzL.s:21805  .debug_str:000000000000d725 .LASF1027
C:\Users\SOLDER~1\AppData\Local\Temp\ccLLkDzL.s:23375  .debug_str:0000000000013deb .LASF1028
C:\Users\SOLDER~1\AppData\Local\Temp\ccLLkDzL.s:28861  .debug_str:000000000002a420 .LASF1029
C:\Users\SOLDER~1\AppData\Local\Temp\ccLLkDzL.s:20975  .debug_str:000000000000a066 .LASF1030
C:\Users\SOLDER~1\AppData\Local\Temp\ccLLkDzL.s:20575  .debug_str:00000000000085fa .LASF1031
C:\Users\SOLDER~1\AppData\Local\Temp\ccLLkDzL.s:18635  .debug_str:000000000000085b .LASF1032
C:\Users\SOLDER~1\AppData\Local\Temp\ccLLkDzL.s:19935  .debug_str:0000000000005bd6 .LASF1033
C:\Users\SOLDER~1\AppData\Local\Temp\ccLLkDzL.s:19717  .debug_str:0000000000004e0b .LASF1034
C:\Users\SOLDER~1\AppData\Local\Temp\ccLLkDzL.s:26941  .debug_str:0000000000022589 .LASF1035
C:\Users\SOLDER~1\AppData\Local\Temp\ccLLkDzL.s:28845  .debug_str:000000000002a31d .LASF1036
C:\Users\SOLDER~1\AppData\Local\Temp\ccLLkDzL.s:22627  .debug_str:0000000000010c91 .LASF1037
C:\Users\SOLDER~1\AppData\Local\Temp\ccLLkDzL.s:26447  .debug_str:00000000000205b4 .LASF1038
C:\Users\SOLDER~1\AppData\Local\Temp\ccLLkDzL.s:27445  .debug_str:00000000000246ad .LASF1039
C:\Users\SOLDER~1\AppData\Local\Temp\ccLLkDzL.s:20871  .debug_str:000000000000999c .LASF1040
C:\Users\SOLDER~1\AppData\Local\Temp\ccLLkDzL.s:19641  .debug_str:0000000000004951 .LASF1041
C:\Users\SOLDER~1\AppData\Local\Temp\ccLLkDzL.s:22485  .debug_str:00000000000103a7 .LASF1042
GAS LISTING C:\Users\SOLDER~1\AppData\Local\Temp\ccLLkDzL.s 			page 32


C:\Users\SOLDER~1\AppData\Local\Temp\ccLLkDzL.s:28505  .debug_str:0000000000028cbe .LASF1043
C:\Users\SOLDER~1\AppData\Local\Temp\ccLLkDzL.s:26251  .debug_str:000000000001f921 .LASF1044
C:\Users\SOLDER~1\AppData\Local\Temp\ccLLkDzL.s:23807  .debug_str:0000000000015a79 .LASF1045
C:\Users\SOLDER~1\AppData\Local\Temp\ccLLkDzL.s:19429  .debug_str:0000000000003be6 .LASF1046
C:\Users\SOLDER~1\AppData\Local\Temp\ccLLkDzL.s:27933  .debug_str:0000000000026762 .LASF1047
C:\Users\SOLDER~1\AppData\Local\Temp\ccLLkDzL.s:20025  .debug_str:0000000000006209 .LASF1048
C:\Users\SOLDER~1\AppData\Local\Temp\ccLLkDzL.s:24175  .debug_str:00000000000171d2 .LASF1049
C:\Users\SOLDER~1\AppData\Local\Temp\ccLLkDzL.s:22875  .debug_str:0000000000011c68 .LASF1050
C:\Users\SOLDER~1\AppData\Local\Temp\ccLLkDzL.s:25539  .debug_str:000000000001ca7f .LASF1051
C:\Users\SOLDER~1\AppData\Local\Temp\ccLLkDzL.s:27921  .debug_str:000000000002669b .LASF1052
C:\Users\SOLDER~1\AppData\Local\Temp\ccLLkDzL.s:22073  .debug_str:000000000000e8e5 .LASF1053
C:\Users\SOLDER~1\AppData\Local\Temp\ccLLkDzL.s:25363  .debug_str:000000000001be62 .LASF1054
C:\Users\SOLDER~1\AppData\Local\Temp\ccLLkDzL.s:19723  .debug_str:0000000000004e62 .LASF1055
C:\Users\SOLDER~1\AppData\Local\Temp\ccLLkDzL.s:26633  .debug_str:00000000000211ef .LASF1056
C:\Users\SOLDER~1\AppData\Local\Temp\ccLLkDzL.s:26721  .debug_str:000000000002178d .LASF1057
C:\Users\SOLDER~1\AppData\Local\Temp\ccLLkDzL.s:25695  .debug_str:000000000001d4c9 .LASF1058
C:\Users\SOLDER~1\AppData\Local\Temp\ccLLkDzL.s:28707  .debug_str:00000000000299bc .LASF1059
C:\Users\SOLDER~1\AppData\Local\Temp\ccLLkDzL.s:26643  .debug_str:000000000002128d .LASF1060
C:\Users\SOLDER~1\AppData\Local\Temp\ccLLkDzL.s:26407  .debug_str:0000000000020318 .LASF1061
C:\Users\SOLDER~1\AppData\Local\Temp\ccLLkDzL.s:29607  .debug_str:000000000002d4b0 .LASF1062
C:\Users\SOLDER~1\AppData\Local\Temp\ccLLkDzL.s:20091  .debug_str:000000000000667c .LASF1063
C:\Users\SOLDER~1\AppData\Local\Temp\ccLLkDzL.s:22395  .debug_str:000000000000fdeb .LASF1064
C:\Users\SOLDER~1\AppData\Local\Temp\ccLLkDzL.s:27049  .debug_str:0000000000022cc7 .LASF1065
C:\Users\SOLDER~1\AppData\Local\Temp\ccLLkDzL.s:27071  .debug_str:0000000000022e04 .LASF1066
C:\Users\SOLDER~1\AppData\Local\Temp\ccLLkDzL.s:21807  .debug_str:000000000000d73c .LASF1067
C:\Users\SOLDER~1\AppData\Local\Temp\ccLLkDzL.s:19627  .debug_str:0000000000004889 .LASF1068
C:\Users\SOLDER~1\AppData\Local\Temp\ccLLkDzL.s:22621  .debug_str:0000000000010c26 .LASF1069
C:\Users\SOLDER~1\AppData\Local\Temp\ccLLkDzL.s:26925  .debug_str:0000000000022472 .LASF1070
C:\Users\SOLDER~1\AppData\Local\Temp\ccLLkDzL.s:25611  .debug_str:000000000001cf2c .LASF1071
C:\Users\SOLDER~1\AppData\Local\Temp\ccLLkDzL.s:22601  .debug_str:0000000000010ace .LASF1072
C:\Users\SOLDER~1\AppData\Local\Temp\ccLLkDzL.s:27165  .debug_str:000000000002345b .LASF1073
C:\Users\SOLDER~1\AppData\Local\Temp\ccLLkDzL.s:18655  .debug_str:00000000000009e1 .LASF1074
C:\Users\SOLDER~1\AppData\Local\Temp\ccLLkDzL.s:24881  .debug_str:0000000000019f8b .LASF1075
C:\Users\SOLDER~1\AppData\Local\Temp\ccLLkDzL.s:23395  .debug_str:0000000000013f28 .LASF1076
C:\Users\SOLDER~1\AppData\Local\Temp\ccLLkDzL.s:21607  .debug_str:000000000000ca0d .LASF1077
C:\Users\SOLDER~1\AppData\Local\Temp\ccLLkDzL.s:19101  .debug_str:00000000000026c7 .LASF1078
C:\Users\SOLDER~1\AppData\Local\Temp\ccLLkDzL.s:27625  .debug_str:0000000000025267 .LASF1079
C:\Users\SOLDER~1\AppData\Local\Temp\ccLLkDzL.s:20693  .debug_str:0000000000008dcc .LASF1080
C:\Users\SOLDER~1\AppData\Local\Temp\ccLLkDzL.s:23053  .debug_str:00000000000127af .LASF1081
C:\Users\SOLDER~1\AppData\Local\Temp\ccLLkDzL.s:26483  .debug_str:00000000000207fa .LASF1082
C:\Users\SOLDER~1\AppData\Local\Temp\ccLLkDzL.s:25945  .debug_str:000000000001e4a8 .LASF1083
C:\Users\SOLDER~1\AppData\Local\Temp\ccLLkDzL.s:23883  .debug_str:0000000000015f5c .LASF1084
C:\Users\SOLDER~1\AppData\Local\Temp\ccLLkDzL.s:19939  .debug_str:0000000000005c12 .LASF1085
C:\Users\SOLDER~1\AppData\Local\Temp\ccLLkDzL.s:27033  .debug_str:0000000000022bb8 .LASF1086
C:\Users\SOLDER~1\AppData\Local\Temp\ccLLkDzL.s:28789  .debug_str:0000000000029f45 .LASF1087
C:\Users\SOLDER~1\AppData\Local\Temp\ccLLkDzL.s:26625  .debug_str:0000000000021169 .LASF1088
C:\Users\SOLDER~1\AppData\Local\Temp\ccLLkDzL.s:19909  .debug_str:0000000000005a36 .LASF1089
C:\Users\SOLDER~1\AppData\Local\Temp\ccLLkDzL.s:27943  .debug_str:00000000000267fb .LASF1090
C:\Users\SOLDER~1\AppData\Local\Temp\ccLLkDzL.s:25785  .debug_str:000000000001da3c .LASF1091
C:\Users\SOLDER~1\AppData\Local\Temp\ccLLkDzL.s:20269  .debug_str:0000000000007244 .LASF1092
C:\Users\SOLDER~1\AppData\Local\Temp\ccLLkDzL.s:24323  .debug_str:0000000000017b62 .LASF1093
C:\Users\SOLDER~1\AppData\Local\Temp\ccLLkDzL.s:21775  .debug_str:000000000000d511 .LASF1094
C:\Users\SOLDER~1\AppData\Local\Temp\ccLLkDzL.s:18859  .debug_str:0000000000001724 .LASF1095
C:\Users\SOLDER~1\AppData\Local\Temp\ccLLkDzL.s:19997  .debug_str:0000000000005fff .LASF1096
C:\Users\SOLDER~1\AppData\Local\Temp\ccLLkDzL.s:27055  .debug_str:0000000000022d23 .LASF1097
C:\Users\SOLDER~1\AppData\Local\Temp\ccLLkDzL.s:26351  .debug_str:000000000001ff68 .LASF1098
C:\Users\SOLDER~1\AppData\Local\Temp\ccLLkDzL.s:20231  .debug_str:0000000000006fc9 .LASF1099
GAS LISTING C:\Users\SOLDER~1\AppData\Local\Temp\ccLLkDzL.s 			page 33


C:\Users\SOLDER~1\AppData\Local\Temp\ccLLkDzL.s:23651  .debug_str:0000000000015064 .LASF1100
C:\Users\SOLDER~1\AppData\Local\Temp\ccLLkDzL.s:27303  .debug_str:0000000000023d2a .LASF1101
C:\Users\SOLDER~1\AppData\Local\Temp\ccLLkDzL.s:28983  .debug_str:000000000002abf0 .LASF1102
C:\Users\SOLDER~1\AppData\Local\Temp\ccLLkDzL.s:18719  .debug_str:0000000000000e38 .LASF1103
C:\Users\SOLDER~1\AppData\Local\Temp\ccLLkDzL.s:18827  .debug_str:0000000000001514 .LASF1104
C:\Users\SOLDER~1\AppData\Local\Temp\ccLLkDzL.s:26283  .debug_str:000000000001fb24 .LASF1105
C:\Users\SOLDER~1\AppData\Local\Temp\ccLLkDzL.s:19881  .debug_str:000000000000585a .LASF1106
C:\Users\SOLDER~1\AppData\Local\Temp\ccLLkDzL.s:21409  .debug_str:000000000000bc9c .LASF1107
C:\Users\SOLDER~1\AppData\Local\Temp\ccLLkDzL.s:18897  .debug_str:000000000000195d .LASF1108
C:\Users\SOLDER~1\AppData\Local\Temp\ccLLkDzL.s:26365  .debug_str:0000000000020045 .LASF1109
C:\Users\SOLDER~1\AppData\Local\Temp\ccLLkDzL.s:19971  .debug_str:0000000000005e35 .LASF1110
C:\Users\SOLDER~1\AppData\Local\Temp\ccLLkDzL.s:20477  .debug_str:0000000000007fab .LASF1111
C:\Users\SOLDER~1\AppData\Local\Temp\ccLLkDzL.s:20955  .debug_str:0000000000009f08 .LASF1112
C:\Users\SOLDER~1\AppData\Local\Temp\ccLLkDzL.s:21381  .debug_str:000000000000baeb .LASF1113
C:\Users\SOLDER~1\AppData\Local\Temp\ccLLkDzL.s:28289  .debug_str:0000000000027eb2 .LASF1114
C:\Users\SOLDER~1\AppData\Local\Temp\ccLLkDzL.s:20617  .debug_str:000000000000888d .LASF1115
C:\Users\SOLDER~1\AppData\Local\Temp\ccLLkDzL.s:28005  .debug_str:0000000000026c0d .LASF1116
C:\Users\SOLDER~1\AppData\Local\Temp\ccLLkDzL.s:29459  .debug_str:000000000002cadf .LASF1117
C:\Users\SOLDER~1\AppData\Local\Temp\ccLLkDzL.s:28949  .debug_str:000000000002a9ac .LASF1118
C:\Users\SOLDER~1\AppData\Local\Temp\ccLLkDzL.s:23315  .debug_str:00000000000139b0 .LASF1119
C:\Users\SOLDER~1\AppData\Local\Temp\ccLLkDzL.s:19643  .debug_str:0000000000004962 .LASF1120
C:\Users\SOLDER~1\AppData\Local\Temp\ccLLkDzL.s:25831  .debug_str:000000000001dd83 .LASF1121
C:\Users\SOLDER~1\AppData\Local\Temp\ccLLkDzL.s:20733  .debug_str:0000000000009087 .LASF1122
C:\Users\SOLDER~1\AppData\Local\Temp\ccLLkDzL.s:29119  .debug_str:000000000002b4eb .LASF1123
C:\Users\SOLDER~1\AppData\Local\Temp\ccLLkDzL.s:23551  .debug_str:00000000000149d2 .LASF1124
C:\Users\SOLDER~1\AppData\Local\Temp\ccLLkDzL.s:21273  .debug_str:000000000000b3da .LASF1125
C:\Users\SOLDER~1\AppData\Local\Temp\ccLLkDzL.s:29637  .debug_str:000000000002d6b5 .LASF1126
C:\Users\SOLDER~1\AppData\Local\Temp\ccLLkDzL.s:27757  .debug_str:0000000000025b40 .LASF1127
C:\Users\SOLDER~1\AppData\Local\Temp\ccLLkDzL.s:26817  .debug_str:0000000000021db8 .LASF1128
C:\Users\SOLDER~1\AppData\Local\Temp\ccLLkDzL.s:24501  .debug_str:000000000001870d .LASF1129
C:\Users\SOLDER~1\AppData\Local\Temp\ccLLkDzL.s:25107  .debug_str:000000000001ae45 .LASF1130
C:\Users\SOLDER~1\AppData\Local\Temp\ccLLkDzL.s:20629  .debug_str:0000000000008980 .LASF1131
C:\Users\SOLDER~1\AppData\Local\Temp\ccLLkDzL.s:26129  .debug_str:000000000001f109 .LASF1132
C:\Users\SOLDER~1\AppData\Local\Temp\ccLLkDzL.s:21191  .debug_str:000000000000aea8 .LASF1133
C:\Users\SOLDER~1\AppData\Local\Temp\ccLLkDzL.s:24163  .debug_str:0000000000017105 .LASF1134
C:\Users\SOLDER~1\AppData\Local\Temp\ccLLkDzL.s:23549  .debug_str:00000000000149ad .LASF1135
C:\Users\SOLDER~1\AppData\Local\Temp\ccLLkDzL.s:24173  .debug_str:00000000000171ad .LASF1136
C:\Users\SOLDER~1\AppData\Local\Temp\ccLLkDzL.s:28193  .debug_str:0000000000027847 .LASF1137
C:\Users\SOLDER~1\AppData\Local\Temp\ccLLkDzL.s:26067  .debug_str:000000000001eccf .LASF1138
C:\Users\SOLDER~1\AppData\Local\Temp\ccLLkDzL.s:27361  .debug_str:0000000000024118 .LASF1139
C:\Users\SOLDER~1\AppData\Local\Temp\ccLLkDzL.s:19043  .debug_str:000000000000230a .LASF1140
C:\Users\SOLDER~1\AppData\Local\Temp\ccLLkDzL.s:27803  .debug_str:0000000000025e90 .LASF1141
C:\Users\SOLDER~1\AppData\Local\Temp\ccLLkDzL.s:26935  .debug_str:0000000000022529 .LASF1142
C:\Users\SOLDER~1\AppData\Local\Temp\ccLLkDzL.s:25469  .debug_str:000000000001c5a8 .LASF1143
C:\Users\SOLDER~1\AppData\Local\Temp\ccLLkDzL.s:29213  .debug_str:000000000002bae6 .LASF1144
C:\Users\SOLDER~1\AppData\Local\Temp\ccLLkDzL.s:25963  .debug_str:000000000001e5f9 .LASF1145
C:\Users\SOLDER~1\AppData\Local\Temp\ccLLkDzL.s:25719  .debug_str:000000000001d63b .LASF1146
C:\Users\SOLDER~1\AppData\Local\Temp\ccLLkDzL.s:24053  .debug_str:00000000000169f3 .LASF1147
C:\Users\SOLDER~1\AppData\Local\Temp\ccLLkDzL.s:29329  .debug_str:000000000002c2b9 .LASF1148
C:\Users\SOLDER~1\AppData\Local\Temp\ccLLkDzL.s:26635  .debug_str:000000000002120b .LASF1149
C:\Users\SOLDER~1\AppData\Local\Temp\ccLLkDzL.s:23783  .debug_str:00000000000158fd .LASF1150
C:\Users\SOLDER~1\AppData\Local\Temp\ccLLkDzL.s:25521  .debug_str:000000000001c935 .LASF1151
C:\Users\SOLDER~1\AppData\Local\Temp\ccLLkDzL.s:22615  .debug_str:0000000000010bb6 .LASF1152
C:\Users\SOLDER~1\AppData\Local\Temp\ccLLkDzL.s:28095  .debug_str:0000000000027210 .LASF1153
C:\Users\SOLDER~1\AppData\Local\Temp\ccLLkDzL.s:24409  .debug_str:0000000000018133 .LASF1154
C:\Users\SOLDER~1\AppData\Local\Temp\ccLLkDzL.s:18941  .debug_str:0000000000001c64 .LASF1155
C:\Users\SOLDER~1\AppData\Local\Temp\ccLLkDzL.s:23325  .debug_str:0000000000013a82 .LASF1156
GAS LISTING C:\Users\SOLDER~1\AppData\Local\Temp\ccLLkDzL.s 			page 34


C:\Users\SOLDER~1\AppData\Local\Temp\ccLLkDzL.s:26395  .debug_str:0000000000020239 .LASF1157
C:\Users\SOLDER~1\AppData\Local\Temp\ccLLkDzL.s:29745  .debug_str:000000000002dda9 .LASF1158
C:\Users\SOLDER~1\AppData\Local\Temp\ccLLkDzL.s:29753  .debug_str:000000000002de0f .LASF1159
C:\Users\SOLDER~1\AppData\Local\Temp\ccLLkDzL.s:28341  .debug_str:0000000000028211 .LASF1160
C:\Users\SOLDER~1\AppData\Local\Temp\ccLLkDzL.s:24657  .debug_str:000000000001914a .LASF1161
C:\Users\SOLDER~1\AppData\Local\Temp\ccLLkDzL.s:24435  .debug_str:00000000000182cd .LASF1162
C:\Users\SOLDER~1\AppData\Local\Temp\ccLLkDzL.s:28179  .debug_str:000000000002777b .LASF1163
C:\Users\SOLDER~1\AppData\Local\Temp\ccLLkDzL.s:22671  .debug_str:0000000000010f4c .LASF1164
C:\Users\SOLDER~1\AppData\Local\Temp\ccLLkDzL.s:28113  .debug_str:000000000002733e .LASF1165
C:\Users\SOLDER~1\AppData\Local\Temp\ccLLkDzL.s:29805  .debug_str:000000000002e147 .LASF1166
C:\Users\SOLDER~1\AppData\Local\Temp\ccLLkDzL.s:26189  .debug_str:000000000001f532 .LASF1167
C:\Users\SOLDER~1\AppData\Local\Temp\ccLLkDzL.s:23193  .debug_str:0000000000013116 .LASF1168
C:\Users\SOLDER~1\AppData\Local\Temp\ccLLkDzL.s:28659  .debug_str:00000000000296b4 .LASF1169
C:\Users\SOLDER~1\AppData\Local\Temp\ccLLkDzL.s:20671  .debug_str:0000000000008c28 .LASF1170
C:\Users\SOLDER~1\AppData\Local\Temp\ccLLkDzL.s:26677  .debug_str:00000000000214c9 .LASF1171
C:\Users\SOLDER~1\AppData\Local\Temp\ccLLkDzL.s:27527  .debug_str:0000000000024c13 .LASF1172
C:\Users\SOLDER~1\AppData\Local\Temp\ccLLkDzL.s:26017  .debug_str:000000000001e9b2 .LASF1173
C:\Users\SOLDER~1\AppData\Local\Temp\ccLLkDzL.s:24421  .debug_str:00000000000181f9 .LASF1174
C:\Users\SOLDER~1\AppData\Local\Temp\ccLLkDzL.s:22419  .debug_str:000000000000ff6a .LASF1175
C:\Users\SOLDER~1\AppData\Local\Temp\ccLLkDzL.s:26217  .debug_str:000000000001f714 .LASF1176
C:\Users\SOLDER~1\AppData\Local\Temp\ccLLkDzL.s:23329  .debug_str:0000000000013ace .LASF1177
C:\Users\SOLDER~1\AppData\Local\Temp\ccLLkDzL.s:23073  .debug_str:0000000000012917 .LASF1178
C:\Users\SOLDER~1\AppData\Local\Temp\ccLLkDzL.s:20947  .debug_str:0000000000009e81 .LASF1179
C:\Users\SOLDER~1\AppData\Local\Temp\ccLLkDzL.s:18943  .debug_str:0000000000001c8d .LASF1180
C:\Users\SOLDER~1\AppData\Local\Temp\ccLLkDzL.s:24349  .debug_str:0000000000017d27 .LASF1181
C:\Users\SOLDER~1\AppData\Local\Temp\ccLLkDzL.s:27797  .debug_str:0000000000025e27 .LASF1182
C:\Users\SOLDER~1\AppData\Local\Temp\ccLLkDzL.s:22479  .debug_str:000000000001033d .LASF1183
C:\Users\SOLDER~1\AppData\Local\Temp\ccLLkDzL.s:28013  .debug_str:0000000000026ca2 .LASF1184
C:\Users\SOLDER~1\AppData\Local\Temp\ccLLkDzL.s:24935  .debug_str:000000000001a2f5 .LASF1185
C:\Users\SOLDER~1\AppData\Local\Temp\ccLLkDzL.s:28427  .debug_str:00000000000287bf .LASF1186
C:\Users\SOLDER~1\AppData\Local\Temp\ccLLkDzL.s:22983  .debug_str:0000000000012313 .LASF1187
C:\Users\SOLDER~1\AppData\Local\Temp\ccLLkDzL.s:21037  .debug_str:000000000000a467 .LASF1188
C:\Users\SOLDER~1\AppData\Local\Temp\ccLLkDzL.s:20379  .debug_str:0000000000007919 .LASF1189
C:\Users\SOLDER~1\AppData\Local\Temp\ccLLkDzL.s:18977  .debug_str:0000000000001eb6 .LASF1190
C:\Users\SOLDER~1\AppData\Local\Temp\ccLLkDzL.s:22713  .debug_str:00000000000111eb .LASF1191
C:\Users\SOLDER~1\AppData\Local\Temp\ccLLkDzL.s:19461  .debug_str:0000000000003df8 .LASF1192
C:\Users\SOLDER~1\AppData\Local\Temp\ccLLkDzL.s:29947  .debug_str:000000000002eaad .LASF1193
C:\Users\SOLDER~1\AppData\Local\Temp\ccLLkDzL.s:24971  .debug_str:000000000001a53a .LASF1194
C:\Users\SOLDER~1\AppData\Local\Temp\ccLLkDzL.s:20219  .debug_str:0000000000006f07 .LASF1195
C:\Users\SOLDER~1\AppData\Local\Temp\ccLLkDzL.s:25663  .debug_str:000000000001d2d4 .LASF1196
C:\Users\SOLDER~1\AppData\Local\Temp\ccLLkDzL.s:29203  .debug_str:000000000002ba30 .LASF1197
C:\Users\SOLDER~1\AppData\Local\Temp\ccLLkDzL.s:23747  .debug_str:00000000000156af .LASF1198
C:\Users\SOLDER~1\AppData\Local\Temp\ccLLkDzL.s:20835  .debug_str:0000000000009736 .LASF1199
C:\Users\SOLDER~1\AppData\Local\Temp\ccLLkDzL.s:26209  .debug_str:000000000001f681 .LASF1200
C:\Users\SOLDER~1\AppData\Local\Temp\ccLLkDzL.s:29737  .debug_str:000000000002dd1e .LASF1201
C:\Users\SOLDER~1\AppData\Local\Temp\ccLLkDzL.s:24379  .debug_str:0000000000017f53 .LASF1202
C:\Users\SOLDER~1\AppData\Local\Temp\ccLLkDzL.s:19787  .debug_str:0000000000005243 .LASF1203
C:\Users\SOLDER~1\AppData\Local\Temp\ccLLkDzL.s:19029  .debug_str:0000000000002215 .LASF1204
C:\Users\SOLDER~1\AppData\Local\Temp\ccLLkDzL.s:23149  .debug_str:0000000000012e3b .LASF1205
C:\Users\SOLDER~1\AppData\Local\Temp\ccLLkDzL.s:26923  .debug_str:000000000002244b .LASF1206
C:\Users\SOLDER~1\AppData\Local\Temp\ccLLkDzL.s:29649  .debug_str:000000000002d778 .LASF1207
C:\Users\SOLDER~1\AppData\Local\Temp\ccLLkDzL.s:28605  .debug_str:0000000000029341 .LASF1208
C:\Users\SOLDER~1\AppData\Local\Temp\ccLLkDzL.s:29151  .debug_str:000000000002b701 .LASF1209
C:\Users\SOLDER~1\AppData\Local\Temp\ccLLkDzL.s:27965  .debug_str:0000000000026996 .LASF1210
C:\Users\SOLDER~1\AppData\Local\Temp\ccLLkDzL.s:21953  .debug_str:000000000000e0f9 .LASF1211
C:\Users\SOLDER~1\AppData\Local\Temp\ccLLkDzL.s:25371  .debug_str:000000000001bed6 .LASF1212
C:\Users\SOLDER~1\AppData\Local\Temp\ccLLkDzL.s:20019  .debug_str:00000000000061a2 .LASF1213
GAS LISTING C:\Users\SOLDER~1\AppData\Local\Temp\ccLLkDzL.s 			page 35


C:\Users\SOLDER~1\AppData\Local\Temp\ccLLkDzL.s:29021  .debug_str:000000000002ae41 .LASF1214
C:\Users\SOLDER~1\AppData\Local\Temp\ccLLkDzL.s:19875  .debug_str:00000000000057f5 .LASF1215
C:\Users\SOLDER~1\AppData\Local\Temp\ccLLkDzL.s:25989  .debug_str:000000000001e7d1 .LASF1216
C:\Users\SOLDER~1\AppData\Local\Temp\ccLLkDzL.s:20643  .debug_str:0000000000008a5a .LASF1217
C:\Users\SOLDER~1\AppData\Local\Temp\ccLLkDzL.s:19253  .debug_str:0000000000003089 .LASF1218
C:\Users\SOLDER~1\AppData\Local\Temp\ccLLkDzL.s:27209  .debug_str:0000000000023738 .LASF1219
C:\Users\SOLDER~1\AppData\Local\Temp\ccLLkDzL.s:26929  .debug_str:00000000000224ab .LASF1220
C:\Users\SOLDER~1\AppData\Local\Temp\ccLLkDzL.s:26385  .debug_str:000000000002018e .LASF1221
C:\Users\SOLDER~1\AppData\Local\Temp\ccLLkDzL.s:23045  .debug_str:000000000001273b .LASF1222
C:\Users\SOLDER~1\AppData\Local\Temp\ccLLkDzL.s:19873  .debug_str:00000000000057d2 .LASF1223
C:\Users\SOLDER~1\AppData\Local\Temp\ccLLkDzL.s:21305  .debug_str:000000000000b5cc .LASF1224
C:\Users\SOLDER~1\AppData\Local\Temp\ccLLkDzL.s:24667  .debug_str:0000000000019204 .LASF1225
C:\Users\SOLDER~1\AppData\Local\Temp\ccLLkDzL.s:22213  .debug_str:000000000000f1a0 .LASF1226
C:\Users\SOLDER~1\AppData\Local\Temp\ccLLkDzL.s:27347  .debug_str:0000000000024023 .LASF1227
C:\Users\SOLDER~1\AppData\Local\Temp\ccLLkDzL.s:21179  .debug_str:000000000000addf .LASF1228
C:\Users\SOLDER~1\AppData\Local\Temp\ccLLkDzL.s:22255  .debug_str:000000000000f44c .LASF1229
C:\Users\SOLDER~1\AppData\Local\Temp\ccLLkDzL.s:25541  .debug_str:000000000001ca90 .LASF1230
C:\Users\SOLDER~1\AppData\Local\Temp\ccLLkDzL.s:23231  .debug_str:000000000001339c .LASF1231
C:\Users\SOLDER~1\AppData\Local\Temp\ccLLkDzL.s:24359  .debug_str:0000000000017df0 .LASF1232
C:\Users\SOLDER~1\AppData\Local\Temp\ccLLkDzL.s:22573  .debug_str:000000000001092b .LASF1233
C:\Users\SOLDER~1\AppData\Local\Temp\ccLLkDzL.s:20167  .debug_str:0000000000006b66 .LASF1234
C:\Users\SOLDER~1\AppData\Local\Temp\ccLLkDzL.s:23283  .debug_str:0000000000013731 .LASF1235
C:\Users\SOLDER~1\AppData\Local\Temp\ccLLkDzL.s:19805  .debug_str:000000000000535c .LASF1236
C:\Users\SOLDER~1\AppData\Local\Temp\ccLLkDzL.s:27937  .debug_str:0000000000026798 .LASF1237
C:\Users\SOLDER~1\AppData\Local\Temp\ccLLkDzL.s:24809  .debug_str:0000000000019b05 .LASF1238
C:\Users\SOLDER~1\AppData\Local\Temp\ccLLkDzL.s:21987  .debug_str:000000000000e33e .LASF1239
C:\Users\SOLDER~1\AppData\Local\Temp\ccLLkDzL.s:29571  .debug_str:000000000002d28c .LASF1240
C:\Users\SOLDER~1\AppData\Local\Temp\ccLLkDzL.s:27091  .debug_str:0000000000022f61 .LASF1241
C:\Users\SOLDER~1\AppData\Local\Temp\ccLLkDzL.s:25777  .debug_str:000000000001d9c7 .LASF1242
C:\Users\SOLDER~1\AppData\Local\Temp\ccLLkDzL.s:26005  .debug_str:000000000001e8f2 .LASF1243
C:\Users\SOLDER~1\AppData\Local\Temp\ccLLkDzL.s:19235  .debug_str:0000000000002f79 .LASF1244
C:\Users\SOLDER~1\AppData\Local\Temp\ccLLkDzL.s:21939  .debug_str:000000000000e003 .LASF1245
C:\Users\SOLDER~1\AppData\Local\Temp\ccLLkDzL.s:28451  .debug_str:000000000002894f .LASF1246
C:\Users\SOLDER~1\AppData\Local\Temp\ccLLkDzL.s:27993  .debug_str:0000000000026b53 .LASF1247
C:\Users\SOLDER~1\AppData\Local\Temp\ccLLkDzL.s:27773  .debug_str:0000000000025c68 .LASF1248
C:\Users\SOLDER~1\AppData\Local\Temp\ccLLkDzL.s:27813  .debug_str:0000000000025f33 .LASF1249
C:\Users\SOLDER~1\AppData\Local\Temp\ccLLkDzL.s:21523  .debug_str:000000000000c471 .LASF1250
C:\Users\SOLDER~1\AppData\Local\Temp\ccLLkDzL.s:29593  .debug_str:000000000002d3c4 .LASF1251
C:\Users\SOLDER~1\AppData\Local\Temp\ccLLkDzL.s:26227  .debug_str:000000000001f791 .LASF1252
C:\Users\SOLDER~1\AppData\Local\Temp\ccLLkDzL.s:23061  .debug_str:0000000000012833 .LASF1253
C:\Users\SOLDER~1\AppData\Local\Temp\ccLLkDzL.s:25077  .debug_str:000000000001ac6c .LASF1254
C:\Users\SOLDER~1\AppData\Local\Temp\ccLLkDzL.s:25759  .debug_str:000000000001d893 .LASF1255
C:\Users\SOLDER~1\AppData\Local\Temp\ccLLkDzL.s:25387  .debug_str:000000000001c00c .LASF1256
C:\Users\SOLDER~1\AppData\Local\Temp\ccLLkDzL.s:24087  .debug_str:0000000000016bd5 .LASF1257
C:\Users\SOLDER~1\AppData\Local\Temp\ccLLkDzL.s:24391  .debug_str:0000000000018024 .LASF1258
C:\Users\SOLDER~1\AppData\Local\Temp\ccLLkDzL.s:29001  .debug_str:000000000002acf4 .LASF1259
C:\Users\SOLDER~1\AppData\Local\Temp\ccLLkDzL.s:21327  .debug_str:000000000000b732 .LASF1260
C:\Users\SOLDER~1\AppData\Local\Temp\ccLLkDzL.s:27823  .debug_str:0000000000025fe4 .LASF1261
C:\Users\SOLDER~1\AppData\Local\Temp\ccLLkDzL.s:28955  .debug_str:000000000002aa1d .LASF1262
C:\Users\SOLDER~1\AppData\Local\Temp\ccLLkDzL.s:27065  .debug_str:0000000000022da8 .LASF1263
C:\Users\SOLDER~1\AppData\Local\Temp\ccLLkDzL.s:24879  .debug_str:0000000000019f6b .LASF1264
C:\Users\SOLDER~1\AppData\Local\Temp\ccLLkDzL.s:27029  .debug_str:0000000000022b86 .LASF1265
C:\Users\SOLDER~1\AppData\Local\Temp\ccLLkDzL.s:23617  .debug_str:0000000000014e0f .LASF1266
C:\Users\SOLDER~1\AppData\Local\Temp\ccLLkDzL.s:20273  .debug_str:000000000000728f .LASF1267
C:\Users\SOLDER~1\AppData\Local\Temp\ccLLkDzL.s:28593  .debug_str:0000000000029267 .LASF1268
C:\Users\SOLDER~1\AppData\Local\Temp\ccLLkDzL.s:19103  .debug_str:00000000000026e7 .LASF1269
C:\Users\SOLDER~1\AppData\Local\Temp\ccLLkDzL.s:21853  .debug_str:000000000000d9eb .LASF1270
GAS LISTING C:\Users\SOLDER~1\AppData\Local\Temp\ccLLkDzL.s 			page 36


C:\Users\SOLDER~1\AppData\Local\Temp\ccLLkDzL.s:19423  .debug_str:0000000000003b82 .LASF1271
C:\Users\SOLDER~1\AppData\Local\Temp\ccLLkDzL.s:27379  .debug_str:0000000000024247 .LASF1272
C:\Users\SOLDER~1\AppData\Local\Temp\ccLLkDzL.s:29913  .debug_str:000000000002e887 .LASF1273
C:\Users\SOLDER~1\AppData\Local\Temp\ccLLkDzL.s:23121  .debug_str:0000000000012c73 .LASF1274
C:\Users\SOLDER~1\AppData\Local\Temp\ccLLkDzL.s:24951  .debug_str:000000000001a3e8 .LASF1275
C:\Users\SOLDER~1\AppData\Local\Temp\ccLLkDzL.s:20039  .debug_str:00000000000062f2 .LASF1276
C:\Users\SOLDER~1\AppData\Local\Temp\ccLLkDzL.s:21145  .debug_str:000000000000ab8b .LASF1277
C:\Users\SOLDER~1\AppData\Local\Temp\ccLLkDzL.s:19377  .debug_str:0000000000003883 .LASF1278
C:\Users\SOLDER~1\AppData\Local\Temp\ccLLkDzL.s:18907  .debug_str:0000000000001a00 .LASF1279
C:\Users\SOLDER~1\AppData\Local\Temp\ccLLkDzL.s:20299  .debug_str:0000000000007432 .LASF1280
C:\Users\SOLDER~1\AppData\Local\Temp\ccLLkDzL.s:19493  .debug_str:0000000000003fde .LASF1281
C:\Users\SOLDER~1\AppData\Local\Temp\ccLLkDzL.s:22805  .debug_str:0000000000011805 .LASF1282
C:\Users\SOLDER~1\AppData\Local\Temp\ccLLkDzL.s:28855  .debug_str:000000000002a3bd .LASF1283
C:\Users\SOLDER~1\AppData\Local\Temp\ccLLkDzL.s:24033  .debug_str:00000000000168af .LASF1284
C:\Users\SOLDER~1\AppData\Local\Temp\ccLLkDzL.s:21885  .debug_str:000000000000dc18 .LASF1285
C:\Users\SOLDER~1\AppData\Local\Temp\ccLLkDzL.s:18547  .debug_str:0000000000000218 .LASF1286
C:\Users\SOLDER~1\AppData\Local\Temp\ccLLkDzL.s:23285  .debug_str:0000000000013754 .LASF1287
C:\Users\SOLDER~1\AppData\Local\Temp\ccLLkDzL.s:23363  .debug_str:0000000000013d1d .LASF1288
C:\Users\SOLDER~1\AppData\Local\Temp\ccLLkDzL.s:29231  .debug_str:000000000002bc05 .LASF1289
C:\Users\SOLDER~1\AppData\Local\Temp\ccLLkDzL.s:22195  .debug_str:000000000000f05e .LASF1290
C:\Users\SOLDER~1\AppData\Local\Temp\ccLLkDzL.s:21251  .debug_str:000000000000b23a .LASF1291
C:\Users\SOLDER~1\AppData\Local\Temp\ccLLkDzL.s:28849  .debug_str:000000000002a35a .LASF1292
C:\Users\SOLDER~1\AppData\Local\Temp\ccLLkDzL.s:26769  .debug_str:0000000000021a90 .LASF1293
C:\Users\SOLDER~1\AppData\Local\Temp\ccLLkDzL.s:28279  .debug_str:0000000000027dff .LASF1294
C:\Users\SOLDER~1\AppData\Local\Temp\ccLLkDzL.s:23667  .debug_str:0000000000015163 .LASF1295
C:\Users\SOLDER~1\AppData\Local\Temp\ccLLkDzL.s:21593  .debug_str:000000000000c92b .LASF1296
C:\Users\SOLDER~1\AppData\Local\Temp\ccLLkDzL.s:29711  .debug_str:000000000002db6a .LASF1297
C:\Users\SOLDER~1\AppData\Local\Temp\ccLLkDzL.s:20471  .debug_str:0000000000007f3b .LASF1298
C:\Users\SOLDER~1\AppData\Local\Temp\ccLLkDzL.s:21861  .debug_str:000000000000da71 .LASF1299
C:\Users\SOLDER~1\AppData\Local\Temp\ccLLkDzL.s:29107  .debug_str:000000000002b40e .LASF1300
C:\Users\SOLDER~1\AppData\Local\Temp\ccLLkDzL.s:23603  .debug_str:0000000000014d37 .LASF1301
C:\Users\SOLDER~1\AppData\Local\Temp\ccLLkDzL.s:21699  .debug_str:000000000000d012 .LASF1302
C:\Users\SOLDER~1\AppData\Local\Temp\ccLLkDzL.s:27075  .debug_str:0000000000022e51 .LASF1303
C:\Users\SOLDER~1\AppData\Local\Temp\ccLLkDzL.s:24701  .debug_str:0000000000019469 .LASF1304
C:\Users\SOLDER~1\AppData\Local\Temp\ccLLkDzL.s:25427  .debug_str:000000000001c2d4 .LASF1305
C:\Users\SOLDER~1\AppData\Local\Temp\ccLLkDzL.s:20937  .debug_str:0000000000009dcc .LASF1306
C:\Users\SOLDER~1\AppData\Local\Temp\ccLLkDzL.s:29275  .debug_str:000000000002bf2d .LASF1307
C:\Users\SOLDER~1\AppData\Local\Temp\ccLLkDzL.s:28353  .debug_str:00000000000282e8 .LASF1308
C:\Users\SOLDER~1\AppData\Local\Temp\ccLLkDzL.s:23349  .debug_str:0000000000013c1a .LASF1309
C:\Users\SOLDER~1\AppData\Local\Temp\ccLLkDzL.s:24981  .debug_str:000000000001a5ec .LASF1310
C:\Users\SOLDER~1\AppData\Local\Temp\ccLLkDzL.s:23163  .debug_str:0000000000012f20 .LASF1311
C:\Users\SOLDER~1\AppData\Local\Temp\ccLLkDzL.s:29173  .debug_str:000000000002b864 .LASF1312
C:\Users\SOLDER~1\AppData\Local\Temp\ccLLkDzL.s:23775  .debug_str:0000000000015884 .LASF1313
C:\Users\SOLDER~1\AppData\Local\Temp\ccLLkDzL.s:24035  .debug_str:00000000000168d3 .LASF1314
C:\Users\SOLDER~1\AppData\Local\Temp\ccLLkDzL.s:29935  .debug_str:000000000002e9ea .LASF1315
C:\Users\SOLDER~1\AppData\Local\Temp\ccLLkDzL.s:19143  .debug_str:00000000000029a8 .LASF1316
C:\Users\SOLDER~1\AppData\Local\Temp\ccLLkDzL.s:26157  .debug_str:000000000001f2f4 .LASF1317
C:\Users\SOLDER~1\AppData\Local\Temp\ccLLkDzL.s:22775  .debug_str:00000000000115f0 .LASF1318
C:\Users\SOLDER~1\AppData\Local\Temp\ccLLkDzL.s:21027  .debug_str:000000000000a3d5 .LASF1319
C:\Users\SOLDER~1\AppData\Local\Temp\ccLLkDzL.s:23713  .debug_str:000000000001547b .LASF1320
C:\Users\SOLDER~1\AppData\Local\Temp\ccLLkDzL.s:25487  .debug_str:000000000001c6dc .LASF1321
C:\Users\SOLDER~1\AppData\Local\Temp\ccLLkDzL.s:29997  .debug_str:000000000002eda9 .LASF1322
C:\Users\SOLDER~1\AppData\Local\Temp\ccLLkDzL.s:28941  .debug_str:000000000002a92b .LASF1323
C:\Users\SOLDER~1\AppData\Local\Temp\ccLLkDzL.s:25131  .debug_str:000000000001af90 .LASF1324
C:\Users\SOLDER~1\AppData\Local\Temp\ccLLkDzL.s:23077  .debug_str:0000000000012963 .LASF1325
C:\Users\SOLDER~1\AppData\Local\Temp\ccLLkDzL.s:24597  .debug_str:0000000000018d8e .LASF1326
C:\Users\SOLDER~1\AppData\Local\Temp\ccLLkDzL.s:19941  .debug_str:0000000000005c3a .LASF1327
GAS LISTING C:\Users\SOLDER~1\AppData\Local\Temp\ccLLkDzL.s 			page 37


C:\Users\SOLDER~1\AppData\Local\Temp\ccLLkDzL.s:29389  .debug_str:000000000002c68c .LASF1328
C:\Users\SOLDER~1\AppData\Local\Temp\ccLLkDzL.s:19435  .debug_str:0000000000003c40 .LASF1329
C:\Users\SOLDER~1\AppData\Local\Temp\ccLLkDzL.s:28217  .debug_str:00000000000279ca .LASF1330
C:\Users\SOLDER~1\AppData\Local\Temp\ccLLkDzL.s:18707  .debug_str:0000000000000d7f .LASF1331
C:\Users\SOLDER~1\AppData\Local\Temp\ccLLkDzL.s:29033  .debug_str:000000000002af4d .LASF1332
C:\Users\SOLDER~1\AppData\Local\Temp\ccLLkDzL.s:27539  .debug_str:0000000000024cee .LASF1333
C:\Users\SOLDER~1\AppData\Local\Temp\ccLLkDzL.s:29493  .debug_str:000000000002cd1d .LASF1334
C:\Users\SOLDER~1\AppData\Local\Temp\ccLLkDzL.s:23399  .debug_str:0000000000013f69 .LASF1335
C:\Users\SOLDER~1\AppData\Local\Temp\ccLLkDzL.s:20961  .debug_str:0000000000009f5f .LASF1336
C:\Users\SOLDER~1\AppData\Local\Temp\ccLLkDzL.s:21709  .debug_str:000000000000d0c7 .LASF1337
C:\Users\SOLDER~1\AppData\Local\Temp\ccLLkDzL.s:28727  .debug_str:0000000000029b1c .LASF1338
C:\Users\SOLDER~1\AppData\Local\Temp\ccLLkDzL.s:25533  .debug_str:000000000001ca17 .LASF1339
C:\Users\SOLDER~1\AppData\Local\Temp\ccLLkDzL.s:24661  .debug_str:000000000001918b .LASF1340
C:\Users\SOLDER~1\AppData\Local\Temp\ccLLkDzL.s:19597  .debug_str:0000000000004680 .LASF1341
C:\Users\SOLDER~1\AppData\Local\Temp\ccLLkDzL.s:21247  .debug_str:000000000000b202 .LASF1342
C:\Users\SOLDER~1\AppData\Local\Temp\ccLLkDzL.s:27375  .debug_str:00000000000241f5 .LASF1343
C:\Users\SOLDER~1\AppData\Local\Temp\ccLLkDzL.s:21823  .debug_str:000000000000d832 .LASF1344
C:\Users\SOLDER~1\AppData\Local\Temp\ccLLkDzL.s:27905  .debug_str:0000000000026563 .LASF1345
C:\Users\SOLDER~1\AppData\Local\Temp\ccLLkDzL.s:22727  .debug_str:00000000000112f0 .LASF1346
C:\Users\SOLDER~1\AppData\Local\Temp\ccLLkDzL.s:26589  .debug_str:0000000000020ef9 .LASF1347
C:\Users\SOLDER~1\AppData\Local\Temp\ccLLkDzL.s:22677  .debug_str:0000000000010fbe .LASF1348
C:\Users\SOLDER~1\AppData\Local\Temp\ccLLkDzL.s:18923  .debug_str:0000000000001b08 .LASF1349
C:\Users\SOLDER~1\AppData\Local\Temp\ccLLkDzL.s:26999  .debug_str:0000000000022982 .LASF1350
C:\Users\SOLDER~1\AppData\Local\Temp\ccLLkDzL.s:25207  .debug_str:000000000001b483 .LASF1351
C:\Users\SOLDER~1\AppData\Local\Temp\ccLLkDzL.s:21101  .debug_str:000000000000a8cd .LASF1352
C:\Users\SOLDER~1\AppData\Local\Temp\ccLLkDzL.s:21767  .debug_str:000000000000d49c .LASF1353
C:\Users\SOLDER~1\AppData\Local\Temp\ccLLkDzL.s:26161  .debug_str:000000000001f33f .LASF1354
C:\Users\SOLDER~1\AppData\Local\Temp\ccLLkDzL.s:25229  .debug_str:000000000001b5c6 .LASF1355
C:\Users\SOLDER~1\AppData\Local\Temp\ccLLkDzL.s:21399  .debug_str:000000000000bc0f .LASF1356
C:\Users\SOLDER~1\AppData\Local\Temp\ccLLkDzL.s:19359  .debug_str:0000000000003755 .LASF1357
C:\Users\SOLDER~1\AppData\Local\Temp\ccLLkDzL.s:20599  .debug_str:000000000000878a .LASF1358
C:\Users\SOLDER~1\AppData\Local\Temp\ccLLkDzL.s:27601  .debug_str:00000000000250e4 .LASF1359
C:\Users\SOLDER~1\AppData\Local\Temp\ccLLkDzL.s:25639  .debug_str:000000000001d137 .LASF1360
C:\Users\SOLDER~1\AppData\Local\Temp\ccLLkDzL.s:27173  .debug_str:00000000000234f0 .LASF1361
C:\Users\SOLDER~1\AppData\Local\Temp\ccLLkDzL.s:24535  .debug_str:000000000001894e .LASF1362
C:\Users\SOLDER~1\AppData\Local\Temp\ccLLkDzL.s:26431  .debug_str:0000000000020494 .LASF1363
C:\Users\SOLDER~1\AppData\Local\Temp\ccLLkDzL.s:19883  .debug_str:000000000000587b .LASF1364
C:\Users\SOLDER~1\AppData\Local\Temp\ccLLkDzL.s:23767  .debug_str:0000000000015806 .LASF1365
C:\Users\SOLDER~1\AppData\Local\Temp\ccLLkDzL.s:25741  .debug_str:000000000001d759 .LASF1366
C:\Users\SOLDER~1\AppData\Local\Temp\ccLLkDzL.s:23979  .debug_str:000000000001653c .LASF1367
C:\Users\SOLDER~1\AppData\Local\Temp\ccLLkDzL.s:28749  .debug_str:0000000000029cb4 .LASF1368
C:\Users\SOLDER~1\AppData\Local\Temp\ccLLkDzL.s:29503  .debug_str:000000000002cdd2 .LASF1369
C:\Users\SOLDER~1\AppData\Local\Temp\ccLLkDzL.s:29517  .debug_str:000000000002cedc .LASF1370
C:\Users\SOLDER~1\AppData\Local\Temp\ccLLkDzL.s:21813  .debug_str:000000000000d78d .LASF1371
C:\Users\SOLDER~1\AppData\Local\Temp\ccLLkDzL.s:20915  .debug_str:0000000000009c39 .LASF1372
C:\Users\SOLDER~1\AppData\Local\Temp\ccLLkDzL.s:27353  .debug_str:0000000000024097 .LASF1373
C:\Users\SOLDER~1\AppData\Local\Temp\ccLLkDzL.s:29035  .debug_str:000000000002af72 .LASF1374
C:\Users\SOLDER~1\AppData\Local\Temp\ccLLkDzL.s:20087  .debug_str:000000000000661e .LASF1375
C:\Users\SOLDER~1\AppData\Local\Temp\ccLLkDzL.s:23125  .debug_str:0000000000012ca7 .LASF1376
C:\Users\SOLDER~1\AppData\Local\Temp\ccLLkDzL.s:20699  .debug_str:0000000000008e34 .LASF1377
C:\Users\SOLDER~1\AppData\Local\Temp\ccLLkDzL.s:25629  .debug_str:000000000001d090 .LASF1378
C:\Users\SOLDER~1\AppData\Local\Temp\ccLLkDzL.s:26907  .debug_str:0000000000022332 .LASF1379
C:\Users\SOLDER~1\AppData\Local\Temp\ccLLkDzL.s:27627  .debug_str:000000000002528f .LASF1380
C:\Users\SOLDER~1\AppData\Local\Temp\ccLLkDzL.s:23081  .debug_str:000000000001299f .LASF1381
C:\Users\SOLDER~1\AppData\Local\Temp\ccLLkDzL.s:19697  .debug_str:0000000000004cd5 .LASF1382
C:\Users\SOLDER~1\AppData\Local\Temp\ccLLkDzL.s:29477  .debug_str:000000000002cc08 .LASF1383
C:\Users\SOLDER~1\AppData\Local\Temp\ccLLkDzL.s:20647  .debug_str:0000000000008a98 .LASF1384
GAS LISTING C:\Users\SOLDER~1\AppData\Local\Temp\ccLLkDzL.s 			page 38


C:\Users\SOLDER~1\AppData\Local\Temp\ccLLkDzL.s:29563  .debug_str:000000000002d1fb .LASF1385
C:\Users\SOLDER~1\AppData\Local\Temp\ccLLkDzL.s:22457  .debug_str:000000000001019d .LASF1386
C:\Users\SOLDER~1\AppData\Local\Temp\ccLLkDzL.s:28947  .debug_str:000000000002a987 .LASF1387
C:\Users\SOLDER~1\AppData\Local\Temp\ccLLkDzL.s:29187  .debug_str:000000000002b931 .LASF1388
C:\Users\SOLDER~1\AppData\Local\Temp\ccLLkDzL.s:27099  .debug_str:0000000000022feb .LASF1389
C:\Users\SOLDER~1\AppData\Local\Temp\ccLLkDzL.s:28627  .debug_str:00000000000294c3 .LASF1390
C:\Users\SOLDER~1\AppData\Local\Temp\ccLLkDzL.s:23919  .debug_str:00000000000161ad .LASF1391
C:\Users\SOLDER~1\AppData\Local\Temp\ccLLkDzL.s:21921  .debug_str:000000000000de8a .LASF1392
C:\Users\SOLDER~1\AppData\Local\Temp\ccLLkDzL.s:23513  .debug_str:0000000000014728 .LASF1393
C:\Users\SOLDER~1\AppData\Local\Temp\ccLLkDzL.s:22551  .debug_str:00000000000107bd .LASF1394
C:\Users\SOLDER~1\AppData\Local\Temp\ccLLkDzL.s:22739  .debug_str:00000000000113d7 .LASF1395
C:\Users\SOLDER~1\AppData\Local\Temp\ccLLkDzL.s:27641  .debug_str:0000000000025352 .LASF1396
C:\Users\SOLDER~1\AppData\Local\Temp\ccLLkDzL.s:20033  .debug_str:000000000000627c .LASF1397
C:\Users\SOLDER~1\AppData\Local\Temp\ccLLkDzL.s:22027  .debug_str:000000000000e5a5 .LASF1398
C:\Users\SOLDER~1\AppData\Local\Temp\ccLLkDzL.s:27399  .debug_str:00000000000243a1 .LASF1399
C:\Users\SOLDER~1\AppData\Local\Temp\ccLLkDzL.s:25023  .debug_str:000000000001a89c .LASF1400
C:\Users\SOLDER~1\AppData\Local\Temp\ccLLkDzL.s:25659  .debug_str:000000000001d297 .LASF1401
C:\Users\SOLDER~1\AppData\Local\Temp\ccLLkDzL.s:21269  .debug_str:000000000000b3a3 .LASF1402
C:\Users\SOLDER~1\AppData\Local\Temp\ccLLkDzL.s:27521  .debug_str:0000000000024bb1 .LASF1403
C:\Users\SOLDER~1\AppData\Local\Temp\ccLLkDzL.s:28703  .debug_str:0000000000029971 .LASF1404
C:\Users\SOLDER~1\AppData\Local\Temp\ccLLkDzL.s:23663  .debug_str:000000000001511f .LASF1405
C:\Users\SOLDER~1\AppData\Local\Temp\ccLLkDzL.s:25309  .debug_str:000000000001bab5 .LASF1406
C:\Users\SOLDER~1\AppData\Local\Temp\ccLLkDzL.s:24373  .debug_str:0000000000017ef2 .LASF1407
C:\Users\SOLDER~1\AppData\Local\Temp\ccLLkDzL.s:26047  .debug_str:000000000001eb99 .LASF1408
C:\Users\SOLDER~1\AppData\Local\Temp\ccLLkDzL.s:24953  .debug_str:000000000001a40a .LASF1409
C:\Users\SOLDER~1\AppData\Local\Temp\ccLLkDzL.s:19729  .debug_str:0000000000004eb0 .LASF1410
C:\Users\SOLDER~1\AppData\Local\Temp\ccLLkDzL.s:19599  .debug_str:00000000000046a5 .LASF1411
C:\Users\SOLDER~1\AppData\Local\Temp\ccLLkDzL.s:20337  .debug_str:0000000000007690 .LASF1412
C:\Users\SOLDER~1\AppData\Local\Temp\ccLLkDzL.s:27307  .debug_str:0000000000023d7a .LASF1413
C:\Users\SOLDER~1\AppData\Local\Temp\ccLLkDzL.s:23987  .debug_str:00000000000165ab .LASF1414
C:\Users\SOLDER~1\AppData\Local\Temp\ccLLkDzL.s:22221  .debug_str:000000000000f21f .LASF1415
C:\Users\SOLDER~1\AppData\Local\Temp\ccLLkDzL.s:24915  .debug_str:000000000001a18b .LASF1416
C:\Users\SOLDER~1\AppData\Local\Temp\ccLLkDzL.s:25717  .debug_str:000000000001d616 .LASF1417
C:\Users\SOLDER~1\AppData\Local\Temp\ccLLkDzL.s:21583  .debug_str:000000000000c882 .LASF1418
C:\Users\SOLDER~1\AppData\Local\Temp\ccLLkDzL.s:29279  .debug_str:000000000002bf74 .LASF1419
C:\Users\SOLDER~1\AppData\Local\Temp\ccLLkDzL.s:25445  .debug_str:000000000001c3ea .LASF1420
C:\Users\SOLDER~1\AppData\Local\Temp\ccLLkDzL.s:18693  .debug_str:0000000000000c72 .LASF1421
C:\Users\SOLDER~1\AppData\Local\Temp\ccLLkDzL.s:24919  .debug_str:000000000001a1d8 .LASF1422
C:\Users\SOLDER~1\AppData\Local\Temp\ccLLkDzL.s:20183  .debug_str:0000000000006c64 .LASF1423
C:\Users\SOLDER~1\AppData\Local\Temp\ccLLkDzL.s:29729  .debug_str:000000000002dc87 .LASF1424
C:\Users\SOLDER~1\AppData\Local\Temp\ccLLkDzL.s:19761  .debug_str:0000000000005095 .LASF1425
C:\Users\SOLDER~1\AppData\Local\Temp\ccLLkDzL.s:28557  .debug_str:0000000000029001 .LASF1426
C:\Users\SOLDER~1\AppData\Local\Temp\ccLLkDzL.s:19005  .debug_str:0000000000002074 .LASF1427
C:\Users\SOLDER~1\AppData\Local\Temp\ccLLkDzL.s:23869  .debug_str:0000000000015e82 .LASF1428
C:\Users\SOLDER~1\AppData\Local\Temp\ccLLkDzL.s:27779  .debug_str:0000000000025cc5 .LASF1429
C:\Users\SOLDER~1\AppData\Local\Temp\ccLLkDzL.s:29833  .debug_str:000000000002e30f .LASF1430
C:\Users\SOLDER~1\AppData\Local\Temp\ccLLkDzL.s:19293  .debug_str:000000000000331f .LASF1431
C:\Users\SOLDER~1\AppData\Local\Temp\ccLLkDzL.s:21285  .debug_str:000000000000b49d .LASF1432
C:\Users\SOLDER~1\AppData\Local\Temp\ccLLkDzL.s:21949  .debug_str:000000000000e0b2 .LASF1433
C:\Users\SOLDER~1\AppData\Local\Temp\ccLLkDzL.s:29053  .debug_str:000000000002b0b7 .LASF1434
C:\Users\SOLDER~1\AppData\Local\Temp\ccLLkDzL.s:25869  .debug_str:000000000001dfe0 .LASF1435
C:\Users\SOLDER~1\AppData\Local\Temp\ccLLkDzL.s:20591  .debug_str:00000000000086ff .LASF1436
C:\Users\SOLDER~1\AppData\Local\Temp\ccLLkDzL.s:19663  .debug_str:0000000000004ab9 .LASF1437
C:\Users\SOLDER~1\AppData\Local\Temp\ccLLkDzL.s:21569  .debug_str:000000000000c774 .LASF1438
C:\Users\SOLDER~1\AppData\Local\Temp\ccLLkDzL.s:28601  .debug_str:00000000000292f8 .LASF1439
C:\Users\SOLDER~1\AppData\Local\Temp\ccLLkDzL.s:23107  .debug_str:0000000000012b70 .LASF1440
C:\Users\SOLDER~1\AppData\Local\Temp\ccLLkDzL.s:29215  .debug_str:000000000002bb0d .LASF1441
GAS LISTING C:\Users\SOLDER~1\AppData\Local\Temp\ccLLkDzL.s 			page 39


C:\Users\SOLDER~1\AppData\Local\Temp\ccLLkDzL.s:23921  .debug_str:00000000000161d2 .LASF1442
C:\Users\SOLDER~1\AppData\Local\Temp\ccLLkDzL.s:23879  .debug_str:0000000000015f17 .LASF1443
C:\Users\SOLDER~1\AppData\Local\Temp\ccLLkDzL.s:26403  .debug_str:00000000000202b3 .LASF1444
C:\Users\SOLDER~1\AppData\Local\Temp\ccLLkDzL.s:20105  .debug_str:0000000000006774 .LASF1445
C:\Users\SOLDER~1\AppData\Local\Temp\ccLLkDzL.s:22021  .debug_str:000000000000e53f .LASF1446
C:\Users\SOLDER~1\AppData\Local\Temp\ccLLkDzL.s:26453  .debug_str:0000000000020610 .LASF1447
C:\Users\SOLDER~1\AppData\Local\Temp\ccLLkDzL.s:29167  .debug_str:000000000002b7fa .LASF1448
C:\Users\SOLDER~1\AppData\Local\Temp\ccLLkDzL.s:20603  .debug_str:00000000000087c8 .LASF1449
C:\Users\SOLDER~1\AppData\Local\Temp\ccLLkDzL.s:26463  .debug_str:00000000000206b2 .LASF1450
C:\Users\SOLDER~1\AppData\Local\Temp\ccLLkDzL.s:23413  .debug_str:000000000001407e .LASF1451
C:\Users\SOLDER~1\AppData\Local\Temp\ccLLkDzL.s:21725  .debug_str:000000000000d1d2 .LASF1452
C:\Users\SOLDER~1\AppData\Local\Temp\ccLLkDzL.s:19679  .debug_str:0000000000004bc7 .LASF1453
C:\Users\SOLDER~1\AppData\Local\Temp\ccLLkDzL.s:21177  .debug_str:000000000000adba .LASF1454
C:\Users\SOLDER~1\AppData\Local\Temp\ccLLkDzL.s:27935  .debug_str:0000000000026773 .LASF1455
C:\Users\SOLDER~1\AppData\Local\Temp\ccLLkDzL.s:25979  .debug_str:000000000001e71f .LASF1456
C:\Users\SOLDER~1\AppData\Local\Temp\ccLLkDzL.s:27511  .debug_str:0000000000024b0f .LASF1457
C:\Users\SOLDER~1\AppData\Local\Temp\ccLLkDzL.s:24763  .debug_str:0000000000019810 .LASF1458
C:\Users\SOLDER~1\AppData\Local\Temp\ccLLkDzL.s:26753  .debug_str:00000000000219ae .LASF1459
C:\Users\SOLDER~1\AppData\Local\Temp\ccLLkDzL.s:20067  .debug_str:00000000000064c1 .LASF1460
C:\Users\SOLDER~1\AppData\Local\Temp\ccLLkDzL.s:24113  .debug_str:0000000000016d9f .LASF1461
C:\Users\SOLDER~1\AppData\Local\Temp\ccLLkDzL.s:24045  .debug_str:0000000000016984 .LASF1462
C:\Users\SOLDER~1\AppData\Local\Temp\ccLLkDzL.s:19995  .debug_str:0000000000005fda .LASF1463
C:\Users\SOLDER~1\AppData\Local\Temp\ccLLkDzL.s:29077  .debug_str:000000000002b22a .LASF1464
C:\Users\SOLDER~1\AppData\Local\Temp\ccLLkDzL.s:29755  .debug_str:000000000002de36 .LASF1465
C:\Users\SOLDER~1\AppData\Local\Temp\ccLLkDzL.s:25325  .debug_str:000000000001bbe8 .LASF1466
C:\Users\SOLDER~1\AppData\Local\Temp\ccLLkDzL.s:20143  .debug_str:00000000000069f3 .LASF1467
C:\Users\SOLDER~1\AppData\Local\Temp\ccLLkDzL.s:21161  .debug_str:000000000000ac97 .LASF1468
C:\Users\SOLDER~1\AppData\Local\Temp\ccLLkDzL.s:25701  .debug_str:000000000001d528 .LASF1469
C:\Users\SOLDER~1\AppData\Local\Temp\ccLLkDzL.s:24317  .debug_str:0000000000017b05 .LASF1470
C:\Users\SOLDER~1\AppData\Local\Temp\ccLLkDzL.s:21357  .debug_str:000000000000b93f .LASF1471
C:\Users\SOLDER~1\AppData\Local\Temp\ccLLkDzL.s:27233  .debug_str:0000000000023893 .LASF1472
C:\Users\SOLDER~1\AppData\Local\Temp\ccLLkDzL.s:21863  .debug_str:000000000000da96 .LASF1473
C:\Users\SOLDER~1\AppData\Local\Temp\ccLLkDzL.s:28141  .debug_str:0000000000027516 .LASF1474
C:\Users\SOLDER~1\AppData\Local\Temp\ccLLkDzL.s:28107  .debug_str:00000000000272df .LASF1475
C:\Users\SOLDER~1\AppData\Local\Temp\ccLLkDzL.s:28837  .debug_str:000000000002a299 .LASF1476
C:\Users\SOLDER~1\AppData\Local\Temp\ccLLkDzL.s:24383  .debug_str:0000000000017fa1 .LASF1477
C:\Users\SOLDER~1\AppData\Local\Temp\ccLLkDzL.s:20969  .debug_str:0000000000009fea .LASF1478
C:\Users\SOLDER~1\AppData\Local\Temp\ccLLkDzL.s:19153  .debug_str:0000000000002a3e .LASF1479
C:\Users\SOLDER~1\AppData\Local\Temp\ccLLkDzL.s:21815  .debug_str:000000000000d7b2 .LASF1480
C:\Users\SOLDER~1\AppData\Local\Temp\ccLLkDzL.s:29811  .debug_str:000000000002e1b0 .LASF1481
C:\Users\SOLDER~1\AppData\Local\Temp\ccLLkDzL.s:22767  .debug_str:0000000000011575 .LASF1482
C:\Users\SOLDER~1\AppData\Local\Temp\ccLLkDzL.s:21819  .debug_str:000000000000d7f9 .LASF1483
C:\Users\SOLDER~1\AppData\Local\Temp\ccLLkDzL.s:29513  .debug_str:000000000002ce8e .LASF1484
C:\Users\SOLDER~1\AppData\Local\Temp\ccLLkDzL.s:27427  .debug_str:0000000000024586 .LASF1485
C:\Users\SOLDER~1\AppData\Local\Temp\ccLLkDzL.s:28873  .debug_str:000000000002a4fa .LASF1486
C:\Users\SOLDER~1\AppData\Local\Temp\ccLLkDzL.s:24269  .debug_str:00000000000177f2 .LASF1487
C:\Users\SOLDER~1\AppData\Local\Temp\ccLLkDzL.s:21613  .debug_str:000000000000ca7a .LASF1488
C:\Users\SOLDER~1\AppData\Local\Temp\ccLLkDzL.s:23835  .debug_str:0000000000015c23 .LASF1489
C:\Users\SOLDER~1\AppData\Local\Temp\ccLLkDzL.s:21015  .debug_str:000000000000a30d .LASF1490
C:\Users\SOLDER~1\AppData\Local\Temp\ccLLkDzL.s:20007  .debug_str:00000000000060d7 .LASF1491
C:\Users\SOLDER~1\AppData\Local\Temp\ccLLkDzL.s:27879  .debug_str:00000000000263d9 .LASF1492
C:\Users\SOLDER~1\AppData\Local\Temp\ccLLkDzL.s:24993  .debug_str:000000000001a6c5 .LASF1493
C:\Users\SOLDER~1\AppData\Local\Temp\ccLLkDzL.s:22375  .debug_str:000000000000fc92 .LASF1494
C:\Users\SOLDER~1\AppData\Local\Temp\ccLLkDzL.s:27735  .debug_str:00000000000259cb .LASF1495
C:\Users\SOLDER~1\AppData\Local\Temp\ccLLkDzL.s:25345  .debug_str:000000000001bd4d .LASF1496
C:\Users\SOLDER~1\AppData\Local\Temp\ccLLkDzL.s:26009  .debug_str:000000000001e92d .LASF1497
C:\Users\SOLDER~1\AppData\Local\Temp\ccLLkDzL.s:21595  .debug_str:000000000000c950 .LASF1498
GAS LISTING C:\Users\SOLDER~1\AppData\Local\Temp\ccLLkDzL.s 			page 40


C:\Users\SOLDER~1\AppData\Local\Temp\ccLLkDzL.s:29859  .debug_str:000000000002e4ca .LASF1499
C:\Users\SOLDER~1\AppData\Local\Temp\ccLLkDzL.s:28933  .debug_str:000000000002a893 .LASF1500
C:\Users\SOLDER~1\AppData\Local\Temp\ccLLkDzL.s:24013  .debug_str:000000000001675f .LASF1501
C:\Users\SOLDER~1\AppData\Local\Temp\ccLLkDzL.s:19145  .debug_str:00000000000029cc .LASF1502
C:\Users\SOLDER~1\AppData\Local\Temp\ccLLkDzL.s:25519  .debug_str:000000000001c911 .LASF1503
C:\Users\SOLDER~1\AppData\Local\Temp\ccLLkDzL.s:20031  .debug_str:0000000000006258 .LASF1504
C:\Users\SOLDER~1\AppData\Local\Temp\ccLLkDzL.s:26139  .debug_str:000000000001f1b5 .LASF1505
C:\Users\SOLDER~1\AppData\Local\Temp\ccLLkDzL.s:20919  .debug_str:0000000000009ca1 .LASF1506
C:\Users\SOLDER~1\AppData\Local\Temp\ccLLkDzL.s:20885  .debug_str:0000000000009a6a .LASF1507
C:\Users\SOLDER~1\AppData\Local\Temp\ccLLkDzL.s:21587  .debug_str:000000000000c8c4 .LASF1508
C:\Users\SOLDER~1\AppData\Local\Temp\ccLLkDzL.s:28511  .debug_str:0000000000028d0f .LASF1509
C:\Users\SOLDER~1\AppData\Local\Temp\ccLLkDzL.s:25921  .debug_str:000000000001e2fa .LASF1510
C:\Users\SOLDER~1\AppData\Local\Temp\ccLLkDzL.s:23421  .debug_str:000000000001410b .LASF1511
C:\Users\SOLDER~1\AppData\Local\Temp\ccLLkDzL.s:26083  .debug_str:000000000001ede0 .LASF1512
C:\Users\SOLDER~1\AppData\Local\Temp\ccLLkDzL.s:26069  .debug_str:000000000001ecf5 .LASF1513
C:\Users\SOLDER~1\AppData\Local\Temp\ccLLkDzL.s:19011  .debug_str:00000000000020e9 .LASF1514
C:\Users\SOLDER~1\AppData\Local\Temp\ccLLkDzL.s:29615  .debug_str:000000000002d523 .LASF1515
C:\Users\SOLDER~1\AppData\Local\Temp\ccLLkDzL.s:25769  .debug_str:000000000001d932 .LASF1516
C:\Users\SOLDER~1\AppData\Local\Temp\ccLLkDzL.s:26659  .debug_str:0000000000021390 .LASF1517
C:\Users\SOLDER~1\AppData\Local\Temp\ccLLkDzL.s:25147  .debug_str:000000000001b09f .LASF1518
C:\Users\SOLDER~1\AppData\Local\Temp\ccLLkDzL.s:20519  .debug_str:0000000000008276 .LASF1519
C:\Users\SOLDER~1\AppData\Local\Temp\ccLLkDzL.s:29967  .debug_str:000000000002ebcd .LASF1520
C:\Users\SOLDER~1\AppData\Local\Temp\ccLLkDzL.s:27477  .debug_str:00000000000248b4 .LASF1521
C:\Users\SOLDER~1\AppData\Local\Temp\ccLLkDzL.s:28801  .debug_str:000000000002a02e .LASF1522
C:\Users\SOLDER~1\AppData\Local\Temp\ccLLkDzL.s:19257  .debug_str:00000000000030ca .LASF1523
C:\Users\SOLDER~1\AppData\Local\Temp\ccLLkDzL.s:24221  .debug_str:00000000000174de .LASF1524
C:\Users\SOLDER~1\AppData\Local\Temp\ccLLkDzL.s:28127  .debug_str:000000000002742f .LASF1525
C:\Users\SOLDER~1\AppData\Local\Temp\ccLLkDzL.s:18583  .debug_str:0000000000000463 .LASF1526
C:\Users\SOLDER~1\AppData\Local\Temp\ccLLkDzL.s:24069  .debug_str:0000000000016aca .LASF1527
C:\Users\SOLDER~1\AppData\Local\Temp\ccLLkDzL.s:21527  .debug_str:000000000000c4ad .LASF1528
C:\Users\SOLDER~1\AppData\Local\Temp\ccLLkDzL.s:22295  .debug_str:000000000000f6e6 .LASF1529
C:\Users\SOLDER~1\AppData\Local\Temp\ccLLkDzL.s:20493  .debug_str:00000000000080d6 .LASF1530
C:\Users\SOLDER~1\AppData\Local\Temp\ccLLkDzL.s:27019  .debug_str:0000000000022ad2 .LASF1531
C:\Users\SOLDER~1\AppData\Local\Temp\ccLLkDzL.s:25217  .debug_str:000000000001b517 .LASF1532
C:\Users\SOLDER~1\AppData\Local\Temp\ccLLkDzL.s:20063  .debug_str:0000000000006479 .LASF1533
C:\Users\SOLDER~1\AppData\Local\Temp\ccLLkDzL.s:21901  .debug_str:000000000000dd29 .LASF1534
C:\Users\SOLDER~1\AppData\Local\Temp\ccLLkDzL.s:29803  .debug_str:000000000002e123 .LASF1535
C:\Users\SOLDER~1\AppData\Local\Temp\ccLLkDzL.s:24327  .debug_str:0000000000017ba4 .LASF1536
C:\Users\SOLDER~1\AppData\Local\Temp\ccLLkDzL.s:18901  .debug_str:000000000000199c .LASF1537
C:\Users\SOLDER~1\AppData\Local\Temp\ccLLkDzL.s:25185  .debug_str:000000000001b324 .LASF1538
C:\Users\SOLDER~1\AppData\Local\Temp\ccLLkDzL.s:25053  .debug_str:000000000001aaa6 .LASF1539
C:\Users\SOLDER~1\AppData\Local\Temp\ccLLkDzL.s:25747  .debug_str:000000000001d7c9 .LASF1540
C:\Users\SOLDER~1\AppData\Local\Temp\ccLLkDzL.s:21277  .debug_str:000000000000b42c .LASF1541
C:\Users\SOLDER~1\AppData\Local\Temp\ccLLkDzL.s:29419  .debug_str:000000000002c862 .LASF1542
C:\Users\SOLDER~1\AppData\Local\Temp\ccLLkDzL.s:27561  .debug_str:0000000000024e4f .LASF1543
C:\Users\SOLDER~1\AppData\Local\Temp\ccLLkDzL.s:18855  .debug_str:00000000000016dd .LASF1544
C:\Users\SOLDER~1\AppData\Local\Temp\ccLLkDzL.s:22355  .debug_str:000000000000fb36 .LASF1545
C:\Users\SOLDER~1\AppData\Local\Temp\ccLLkDzL.s:26789  .debug_str:0000000000021be3 .LASF1546
C:\Users\SOLDER~1\AppData\Local\Temp\ccLLkDzL.s:25873  .debug_str:000000000001e02b .LASF1547
C:\Users\SOLDER~1\AppData\Local\Temp\ccLLkDzL.s:22053  .debug_str:000000000000e78d .LASF1548
C:\Users\SOLDER~1\AppData\Local\Temp\ccLLkDzL.s:29671  .debug_str:000000000002d8c0 .LASF1549
C:\Users\SOLDER~1\AppData\Local\Temp\ccLLkDzL.s:20423  .debug_str:0000000000007bec .LASF1550
C:\Users\SOLDER~1\AppData\Local\Temp\ccLLkDzL.s:28269  .debug_str:0000000000027d54 .LASF1551
C:\Users\SOLDER~1\AppData\Local\Temp\ccLLkDzL.s:26645  .debug_str:00000000000212a8 .LASF1552
C:\Users\SOLDER~1\AppData\Local\Temp\ccLLkDzL.s:27843  .debug_str:000000000002615c .LASF1553
C:\Users\SOLDER~1\AppData\Local\Temp\ccLLkDzL.s:25083  .debug_str:000000000001acc7 .LASF1554
C:\Users\SOLDER~1\AppData\Local\Temp\ccLLkDzL.s:26989  .debug_str:00000000000228ba .LASF1555
GAS LISTING C:\Users\SOLDER~1\AppData\Local\Temp\ccLLkDzL.s 			page 41


C:\Users\SOLDER~1\AppData\Local\Temp\ccLLkDzL.s:20475  .debug_str:0000000000007f86 .LASF1556
C:\Users\SOLDER~1\AppData\Local\Temp\ccLLkDzL.s:24445  .debug_str:0000000000018361 .LASF1557
C:\Users\SOLDER~1\AppData\Local\Temp\ccLLkDzL.s:26323  .debug_str:000000000001fd93 .LASF1558
C:\Users\SOLDER~1\AppData\Local\Temp\ccLLkDzL.s:20333  .debug_str:0000000000007654 .LASF1559
C:\Users\SOLDER~1\AppData\Local\Temp\ccLLkDzL.s:29327  .debug_str:000000000002c294 .LASF1560
C:\Users\SOLDER~1\AppData\Local\Temp\ccLLkDzL.s:18591  .debug_str:00000000000004e3 .LASF1561
C:\Users\SOLDER~1\AppData\Local\Temp\ccLLkDzL.s:25553  .debug_str:000000000001cb5f .LASF1562
C:\Users\SOLDER~1\AppData\Local\Temp\ccLLkDzL.s:22407  .debug_str:000000000000fea8 .LASF1563
C:\Users\SOLDER~1\AppData\Local\Temp\ccLLkDzL.s:21479  .debug_str:000000000000c130 .LASF1564
C:\Users\SOLDER~1\AppData\Local\Temp\ccLLkDzL.s:28019  .debug_str:0000000000026d1d .LASF1565
C:\Users\SOLDER~1\AppData\Local\Temp\ccLLkDzL.s:24229  .debug_str:000000000001755c .LASF1566
C:\Users\SOLDER~1\AppData\Local\Temp\ccLLkDzL.s:22561  .debug_str:0000000000010875 .LASF1567
C:\Users\SOLDER~1\AppData\Local\Temp\ccLLkDzL.s:28541  .debug_str:0000000000028ee4 .LASF1568
C:\Users\SOLDER~1\AppData\Local\Temp\ccLLkDzL.s:23055  .debug_str:00000000000127d7 .LASF1569
C:\Users\SOLDER~1\AppData\Local\Temp\ccLLkDzL.s:29357  .debug_str:000000000002c47e .LASF1570
C:\Users\SOLDER~1\AppData\Local\Temp\ccLLkDzL.s:29325  .debug_str:000000000002c270 .LASF1571
C:\Users\SOLDER~1\AppData\Local\Temp\ccLLkDzL.s:18553  .debug_str:0000000000000280 .LASF1572
C:\Users\SOLDER~1\AppData\Local\Temp\ccLLkDzL.s:25531  .debug_str:000000000001c9f3 .LASF1573
C:\Users\SOLDER~1\AppData\Local\Temp\ccLLkDzL.s:22161  .debug_str:000000000000ee58 .LASF1574
C:\Users\SOLDER~1\AppData\Local\Temp\ccLLkDzL.s:20435  .debug_str:0000000000007ce2 .LASF1575
C:\Users\SOLDER~1\AppData\Local\Temp\ccLLkDzL.s:23005  .debug_str:00000000000124c3 .LASF1576
C:\Users\SOLDER~1\AppData\Local\Temp\ccLLkDzL.s:18647  .debug_str:0000000000000954 .LASF1577
C:\Users\SOLDER~1\AppData\Local\Temp\ccLLkDzL.s:23097  .debug_str:0000000000012ad2 .LASF1578
C:\Users\SOLDER~1\AppData\Local\Temp\ccLLkDzL.s:22151  .debug_str:000000000000edab .LASF1579
C:\Users\SOLDER~1\AppData\Local\Temp\ccLLkDzL.s:29765  .debug_str:000000000002dec9 .LASF1580
C:\Users\SOLDER~1\AppData\Local\Temp\ccLLkDzL.s:27683  .debug_str:0000000000025612 .LASF1581
C:\Users\SOLDER~1\AppData\Local\Temp\ccLLkDzL.s:29207  .debug_str:000000000002ba7a .LASF1582
C:\Users\SOLDER~1\AppData\Local\Temp\ccLLkDzL.s:24587  .debug_str:0000000000018cdf .LASF1583
C:\Users\SOLDER~1\AppData\Local\Temp\ccLLkDzL.s:22519  .debug_str:0000000000010584 .LASF1584
C:\Users\SOLDER~1\AppData\Local\Temp\ccLLkDzL.s:24085  .debug_str:0000000000016bb0 .LASF1585
C:\Users\SOLDER~1\AppData\Local\Temp\ccLLkDzL.s:21355  .debug_str:000000000000b91a .LASF1586
C:\Users\SOLDER~1\AppData\Local\Temp\ccLLkDzL.s:23327  .debug_str:0000000000013aa9 .LASF1587
C:\Users\SOLDER~1\AppData\Local\Temp\ccLLkDzL.s:28221  .debug_str:0000000000027a0b .LASF1588
C:\Users\SOLDER~1\AppData\Local\Temp\ccLLkDzL.s:20701  .debug_str:0000000000008e58 .LASF1589
C:\Users\SOLDER~1\AppData\Local\Temp\ccLLkDzL.s:22623  .debug_str:0000000000010c48 .LASF1590
C:\Users\SOLDER~1\AppData\Local\Temp\ccLLkDzL.s:27981  .debug_str:0000000000026ab1 .LASF1591
C:\Users\SOLDER~1\AppData\Local\Temp\ccLLkDzL.s:25577  .debug_str:000000000001cd05 .LASF1592
C:\Users\SOLDER~1\AppData\Local\Temp\ccLLkDzL.s:28235  .debug_str:0000000000027b0c .LASF1593
C:\Users\SOLDER~1\AppData\Local\Temp\ccLLkDzL.s:21839  .debug_str:000000000000d919 .LASF1594
C:\Users\SOLDER~1\AppData\Local\Temp\ccLLkDzL.s:18697  .debug_str:0000000000000cbc .LASF1595
C:\Users\SOLDER~1\AppData\Local\Temp\ccLLkDzL.s:29273  .debug_str:000000000002bf08 .LASF1596
C:\Users\SOLDER~1\AppData\Local\Temp\ccLLkDzL.s:24265  .debug_str:00000000000177a9 .LASF1597
C:\Users\SOLDER~1\AppData\Local\Temp\ccLLkDzL.s:27131  .debug_str:000000000002321f .LASF1598
C:\Users\SOLDER~1\AppData\Local\Temp\ccLLkDzL.s:29403  .debug_str:000000000002c752 .LASF1599
C:\Users\SOLDER~1\AppData\Local\Temp\ccLLkDzL.s:23909  .debug_str:00000000000160f3 .LASF1600
C:\Users\SOLDER~1\AppData\Local\Temp\ccLLkDzL.s:18525  .debug_str:00000000000000e7 .LASF1601
C:\Users\SOLDER~1\AppData\Local\Temp\ccLLkDzL.s:24707  .debug_str:00000000000194db .LASF1602
C:\Users\SOLDER~1\AppData\Local\Temp\ccLLkDzL.s:24673  .debug_str:0000000000019271 .LASF1603
C:\Users\SOLDER~1\AppData\Local\Temp\ccLLkDzL.s:25365  .debug_str:000000000001be7d .LASF1604
C:\Users\SOLDER~1\AppData\Local\Temp\ccLLkDzL.s:20891  .debug_str:0000000000009ac9 .LASF1605
C:\Users\SOLDER~1\AppData\Local\Temp\ccLLkDzL.s:29015  .debug_str:000000000002ade0 .LASF1606
C:\Users\SOLDER~1\AppData\Local\Temp\ccLLkDzL.s:27229  .debug_str:0000000000023856 .LASF1607
C:\Users\SOLDER~1\AppData\Local\Temp\ccLLkDzL.s:29875  .debug_str:000000000002e5ea .LASF1608
C:\Users\SOLDER~1\AppData\Local\Temp\ccLLkDzL.s:23403  .debug_str:0000000000013faf .LASF1609
C:\Users\SOLDER~1\AppData\Local\Temp\ccLLkDzL.s:21935  .debug_str:000000000000dfa3 .LASF1610
C:\Users\SOLDER~1\AppData\Local\Temp\ccLLkDzL.s:26199  .debug_str:000000000001f5ce .LASF1611
C:\Users\SOLDER~1\AppData\Local\Temp\ccLLkDzL.s:19195  .debug_str:0000000000002cb4 .LASF1612
GAS LISTING C:\Users\SOLDER~1\AppData\Local\Temp\ccLLkDzL.s 			page 42


C:\Users\SOLDER~1\AppData\Local\Temp\ccLLkDzL.s:26535  .debug_str:0000000000020b4d .LASF1613
C:\Users\SOLDER~1\AppData\Local\Temp\ccLLkDzL.s:28027  .debug_str:0000000000026da3 .LASF1614
C:\Users\SOLDER~1\AppData\Local\Temp\ccLLkDzL.s:23433  .debug_str:00000000000141df .LASF1615
C:\Users\SOLDER~1\AppData\Local\Temp\ccLLkDzL.s:20555  .debug_str:00000000000084c3 .LASF1616
C:\Users\SOLDER~1\AppData\Local\Temp\ccLLkDzL.s:22911  .debug_str:0000000000011ea6 .LASF1617
C:\Users\SOLDER~1\AppData\Local\Temp\ccLLkDzL.s:20215  .debug_str:0000000000006eae .LASF1618
C:\Users\SOLDER~1\AppData\Local\Temp\ccLLkDzL.s:22147  .debug_str:000000000000ed60 .LASF1619
C:\Users\SOLDER~1\AppData\Local\Temp\ccLLkDzL.s:27061  .debug_str:0000000000022d70 .LASF1620
C:\Users\SOLDER~1\AppData\Local\Temp\ccLLkDzL.s:19533  .debug_str:000000000000426a .LASF1621
C:\Users\SOLDER~1\AppData\Local\Temp\ccLLkDzL.s:21447  .debug_str:000000000000beff .LASF1622
C:\Users\SOLDER~1\AppData\Local\Temp\ccLLkDzL.s:26823  .debug_str:0000000000021e15 .LASF1623
C:\Users\SOLDER~1\AppData\Local\Temp\ccLLkDzL.s:24471  .debug_str:0000000000018526 .LASF1624
C:\Users\SOLDER~1\AppData\Local\Temp\ccLLkDzL.s:25199  .debug_str:000000000001b3fa .LASF1625
C:\Users\SOLDER~1\AppData\Local\Temp\ccLLkDzL.s:20707  .debug_str:0000000000008ebd .LASF1626
C:\Users\SOLDER~1\AppData\Local\Temp\ccLLkDzL.s:29025  .debug_str:000000000002ae8a .LASF1627
C:\Users\SOLDER~1\AppData\Local\Temp\ccLLkDzL.s:28101  .debug_str:0000000000027283 .LASF1628
C:\Users\SOLDER~1\AppData\Local\Temp\ccLLkDzL.s:20669  .debug_str:0000000000008c02 .LASF1629
C:\Users\SOLDER~1\AppData\Local\Temp\ccLLkDzL.s:24739  .debug_str:0000000000019683 .LASF1630
C:\Users\SOLDER~1\AppData\Local\Temp\ccLLkDzL.s:22143  .debug_str:000000000000ed1a .LASF1631
C:\Users\SOLDER~1\AppData\Local\Temp\ccLLkDzL.s:28045  .debug_str:0000000000026ec4 .LASF1632
C:\Users\SOLDER~1\AppData\Local\Temp\ccLLkDzL.s:22681  .debug_str:0000000000010ff5 .LASF1633
C:\Users\SOLDER~1\AppData\Local\Temp\ccLLkDzL.s:28951  .debug_str:000000000002a9d4 .LASF1634
C:\Users\SOLDER~1\AppData\Local\Temp\ccLLkDzL.s:27317  .debug_str:0000000000023e28 .LASF1635
C:\Users\SOLDER~1\AppData\Local\Temp\ccLLkDzL.s:29641  .debug_str:000000000002d6f6 .LASF1636
C:\Users\SOLDER~1\AppData\Local\Temp\ccLLkDzL.s:25153  .debug_str:000000000001b0fd .LASF1637
C:\Users\SOLDER~1\AppData\Local\Temp\ccLLkDzL.s:21759  .debug_str:000000000000d416 .LASF1638
C:\Users\SOLDER~1\AppData\Local\Temp\ccLLkDzL.s:19937  .debug_str:0000000000005bed .LASF1639
C:\Users\SOLDER~1\AppData\Local\Temp\ccLLkDzL.s:22629  .debug_str:0000000000010ca8 .LASF1640
C:\Users\SOLDER~1\AppData\Local\Temp\ccLLkDzL.s:25263  .debug_str:000000000001b7b8 .LASF1641
C:\Users\SOLDER~1\AppData\Local\Temp\ccLLkDzL.s:29743  .debug_str:000000000002dd83 .LASF1642
C:\Users\SOLDER~1\AppData\Local\Temp\ccLLkDzL.s:28705  .debug_str:0000000000029996 .LASF1643
C:\Users\SOLDER~1\AppData\Local\Temp\ccLLkDzL.s:24893  .debug_str:000000000001a035 .LASF1644
C:\Users\SOLDER~1\AppData\Local\Temp\ccLLkDzL.s:22823  .debug_str:000000000001190a .LASF1645
C:\Users\SOLDER~1\AppData\Local\Temp\ccLLkDzL.s:28767  .debug_str:0000000000029dcc .LASF1646
C:\Users\SOLDER~1\AppData\Local\Temp\ccLLkDzL.s:19685  .debug_str:0000000000004c2b .LASF1647
C:\Users\SOLDER~1\AppData\Local\Temp\ccLLkDzL.s:23531  .debug_str:0000000000014881 .LASF1648
C:\Users\SOLDER~1\AppData\Local\Temp\ccLLkDzL.s:19191  .debug_str:0000000000002c73 .LASF1649
C:\Users\SOLDER~1\AppData\Local\Temp\ccLLkDzL.s:27963  .debug_str:0000000000026970 .LASF1650
C:\Users\SOLDER~1\AppData\Local\Temp\ccLLkDzL.s:29941  .debug_str:000000000002ea4a .LASF1651
C:\Users\SOLDER~1\AppData\Local\Temp\ccLLkDzL.s:19303  .debug_str:00000000000033db .LASF1652
C:\Users\SOLDER~1\AppData\Local\Temp\ccLLkDzL.s:27287  .debug_str:0000000000023c1f .LASF1653
C:\Users\SOLDER~1\AppData\Local\Temp\ccLLkDzL.s:29243  .debug_str:000000000002bcc7 .LASF1654
C:\Users\SOLDER~1\AppData\Local\Temp\ccLLkDzL.s:23141  .debug_str:0000000000012da2 .LASF1655
C:\Users\SOLDER~1\AppData\Local\Temp\ccLLkDzL.s:20729  .debug_str:000000000000903f .LASF1656
C:\Users\SOLDER~1\AppData\Local\Temp\ccLLkDzL.s:23445  .debug_str:000000000001429f .LASF1657
C:\Users\SOLDER~1\AppData\Local\Temp\ccLLkDzL.s:28457  .debug_str:00000000000289af .LASF1658
C:\Users\SOLDER~1\AppData\Local\Temp\ccLLkDzL.s:25303  .debug_str:000000000001ba59 .LASF1659
C:\Users\SOLDER~1\AppData\Local\Temp\ccLLkDzL.s:24417  .debug_str:00000000000181b4 .LASF1660
C:\Users\SOLDER~1\AppData\Local\Temp\ccLLkDzL.s:19363  .debug_str:000000000000379a .LASF1661
C:\Users\SOLDER~1\AppData\Local\Temp\ccLLkDzL.s:20993  .debug_str:000000000000a1a3 .LASF1662
C:\Users\SOLDER~1\AppData\Local\Temp\ccLLkDzL.s:26307  .debug_str:000000000001fc93 .LASF1663
C:\Users\SOLDER~1\AppData\Local\Temp\ccLLkDzL.s:20831  .debug_str:00000000000096ec .LASF1664
C:\Users\SOLDER~1\AppData\Local\Temp\ccLLkDzL.s:26891  .debug_str:0000000000022208 .LASF1665
C:\Users\SOLDER~1\AppData\Local\Temp\ccLLkDzL.s:21703  .debug_str:000000000000d05c .LASF1666
C:\Users\SOLDER~1\AppData\Local\Temp\ccLLkDzL.s:21663  .debug_str:000000000000cdbf .LASF1667
C:\Users\SOLDER~1\AppData\Local\Temp\ccLLkDzL.s:22403  .debug_str:000000000000fe60 .LASF1668
C:\Users\SOLDER~1\AppData\Local\Temp\ccLLkDzL.s:29331  .debug_str:000000000002c2e2 .LASF1669
GAS LISTING C:\Users\SOLDER~1\AppData\Local\Temp\ccLLkDzL.s 			page 43


C:\Users\SOLDER~1\AppData\Local\Temp\ccLLkDzL.s:25931  .debug_str:000000000001e3a8 .LASF1670
C:\Users\SOLDER~1\AppData\Local\Temp\ccLLkDzL.s:24237  .debug_str:00000000000175f7 .LASF1671
C:\Users\SOLDER~1\AppData\Local\Temp\ccLLkDzL.s:26837  .debug_str:0000000000021ee6 .LASF1672
C:\Users\SOLDER~1\AppData\Local\Temp\ccLLkDzL.s:21517  .debug_str:000000000000c3e8 .LASF1673
C:\Users\SOLDER~1\AppData\Local\Temp\ccLLkDzL.s:29145  .debug_str:000000000002b696 .LASF1674
C:\Users\SOLDER~1\AppData\Local\Temp\ccLLkDzL.s:24977  .debug_str:000000000001a5aa .LASF1675
C:\Users\SOLDER~1\AppData\Local\Temp\ccLLkDzL.s:21157  .debug_str:000000000000ac4d .LASF1676
C:\Users\SOLDER~1\AppData\Local\Temp\ccLLkDzL.s:19111  .debug_str:0000000000002767 .LASF1677
C:\Users\SOLDER~1\AppData\Local\Temp\ccLLkDzL.s:20619  .debug_str:00000000000088b6 .LASF1678
C:\Users\SOLDER~1\AppData\Local\Temp\ccLLkDzL.s:27351  .debug_str:0000000000024071 .LASF1679
C:\Users\SOLDER~1\AppData\Local\Temp\ccLLkDzL.s:25399  .debug_str:000000000001c0f5 .LASF1680
C:\Users\SOLDER~1\AppData\Local\Temp\ccLLkDzL.s:29433  .debug_str:000000000002c939 .LASF1681
C:\Users\SOLDER~1\AppData\Local\Temp\ccLLkDzL.s:24297  .debug_str:00000000000179b3 .LASF1682
C:\Users\SOLDER~1\AppData\Local\Temp\ccLLkDzL.s:26207  .debug_str:000000000001f65b .LASF1683
C:\Users\SOLDER~1\AppData\Local\Temp\ccLLkDzL.s:19635  .debug_str:00000000000048ed .LASF1684
C:\Users\SOLDER~1\AppData\Local\Temp\ccLLkDzL.s:23523  .debug_str:00000000000147fb .LASF1685
C:\Users\SOLDER~1\AppData\Local\Temp\ccLLkDzL.s:25505  .debug_str:000000000001c807 .LASF1686
C:\Users\SOLDER~1\AppData\Local\Temp\ccLLkDzL.s:19419  .debug_str:0000000000003b45 .LASF1687
C:\Users\SOLDER~1\AppData\Local\Temp\ccLLkDzL.s:28479  .debug_str:0000000000028af9 .LASF1688
C:\Users\SOLDER~1\AppData\Local\Temp\ccLLkDzL.s:29257  .debug_str:000000000002bdd4 .LASF1689
C:\Users\SOLDER~1\AppData\Local\Temp\ccLLkDzL.s:24765  .debug_str:0000000000019835 .LASF1690
C:\Users\SOLDER~1\AppData\Local\Temp\ccLLkDzL.s:21563  .debug_str:000000000000c709 .LASF1691
C:\Users\SOLDER~1\AppData\Local\Temp\ccLLkDzL.s:20679  .debug_str:0000000000008cc3 .LASF1692
C:\Users\SOLDER~1\AppData\Local\Temp\ccLLkDzL.s:22059  .debug_str:000000000000e7f2 .LASF1693
C:\Users\SOLDER~1\AppData\Local\Temp\ccLLkDzL.s:28785  .debug_str:0000000000029f02 .LASF1694
C:\Users\SOLDER~1\AppData\Local\Temp\ccLLkDzL.s:25353  .debug_str:000000000001bdb4 .LASF1695
C:\Users\SOLDER~1\AppData\Local\Temp\ccLLkDzL.s:25085  .debug_str:000000000001acec .LASF1696
C:\Users\SOLDER~1\AppData\Local\Temp\ccLLkDzL.s:19297  .debug_str:000000000000336e .LASF1697
C:\Users\SOLDER~1\AppData\Local\Temp\ccLLkDzL.s:25961  .debug_str:000000000001e5d4 .LASF1698
C:\Users\SOLDER~1\AppData\Local\Temp\ccLLkDzL.s:25833  .debug_str:000000000001ddab .LASF1699
C:\Users\SOLDER~1\AppData\Local\Temp\ccLLkDzL.s:26537  .debug_str:0000000000020b73 .LASF1700
C:\Users\SOLDER~1\AppData\Local\Temp\ccLLkDzL.s:22069  .debug_str:000000000000e89b .LASF1701
C:\Users\SOLDER~1\AppData\Local\Temp\ccLLkDzL.s:18725  .debug_str:0000000000000e8e .LASF1702
C:\Users\SOLDER~1\AppData\Local\Temp\ccLLkDzL.s:28437  .debug_str:0000000000028870 .LASF1703
C:\Users\SOLDER~1\AppData\Local\Temp\ccLLkDzL.s:19619  .debug_str:0000000000004804 .LASF1704
C:\Users\SOLDER~1\AppData\Local\Temp\ccLLkDzL.s:29319  .debug_str:000000000002c220 .LASF1705
C:\Users\SOLDER~1\AppData\Local\Temp\ccLLkDzL.s:22189  .debug_str:000000000000effc .LASF1706
C:\Users\SOLDER~1\AppData\Local\Temp\ccLLkDzL.s:21243  .debug_str:000000000000b1c1 .LASF1707
C:\Users\SOLDER~1\AppData\Local\Temp\ccLLkDzL.s:28931  .debug_str:000000000002a86d .LASF1708
C:\Users\SOLDER~1\AppData\Local\Temp\ccLLkDzL.s:26847  .debug_str:0000000000021f87 .LASF1709
C:\Users\SOLDER~1\AppData\Local\Temp\ccLLkDzL.s:23221  .debug_str:00000000000132ef .LASF1710
C:\Users\SOLDER~1\AppData\Local\Temp\ccLLkDzL.s:23659  .debug_str:00000000000150e9 .LASF1711
C:\Users\SOLDER~1\AppData\Local\Temp\ccLLkDzL.s:29841  .debug_str:000000000002e3aa .LASF1712
C:\Users\SOLDER~1\AppData\Local\Temp\ccLLkDzL.s:23263  .debug_str:00000000000135d8 .LASF1713
C:\Users\SOLDER~1\AppData\Local\Temp\ccLLkDzL.s:20549  .debug_str:000000000000844f .LASF1714
C:\Users\SOLDER~1\AppData\Local\Temp\ccLLkDzL.s:22501  .debug_str:0000000000010491 .LASF1715
C:\Users\SOLDER~1\AppData\Local\Temp\ccLLkDzL.s:20305  .debug_str:000000000000749d .LASF1716
C:\Users\SOLDER~1\AppData\Local\Temp\ccLLkDzL.s:19019  .debug_str:000000000000216f .LASF1717
C:\Users\SOLDER~1\AppData\Local\Temp\ccLLkDzL.s:21781  .debug_str:000000000000d566 .LASF1718
C:\Users\SOLDER~1\AppData\Local\Temp\ccLLkDzL.s:27151  .debug_str:0000000000023379 .LASF1719
C:\Users\SOLDER~1\AppData\Local\Temp\ccLLkDzL.s:24785  .debug_str:0000000000019982 .LASF1720
C:\Users\SOLDER~1\AppData\Local\Temp\ccLLkDzL.s:25517  .debug_str:000000000001c8eb .LASF1721
C:\Users\SOLDER~1\AppData\Local\Temp\ccLLkDzL.s:21017  .debug_str:000000000000a332 .LASF1722
C:\Users\SOLDER~1\AppData\Local\Temp\ccLLkDzL.s:29363  .debug_str:000000000002c4db .LASF1723
C:\Users\SOLDER~1\AppData\Local\Temp\ccLLkDzL.s:28435  .debug_str:000000000002884a .LASF1724
C:\Users\SOLDER~1\AppData\Local\Temp\ccLLkDzL.s:23427  .debug_str:0000000000014180 .LASF1725
C:\Users\SOLDER~1\AppData\Local\Temp\ccLLkDzL.s:25063  .debug_str:000000000001ab87 .LASF1726
GAS LISTING C:\Users\SOLDER~1\AppData\Local\Temp\ccLLkDzL.s 			page 44


C:\Users\SOLDER~1\AppData\Local\Temp\ccLLkDzL.s:21761  .debug_str:000000000000d43b .LASF1727
C:\Users\SOLDER~1\AppData\Local\Temp\ccLLkDzL.s:27743  .debug_str:0000000000025a3c .LASF1728
C:\Users\SOLDER~1\AppData\Local\Temp\ccLLkDzL.s:23725  .debug_str:0000000000015537 .LASF1729
C:\Users\SOLDER~1\AppData\Local\Temp\ccLLkDzL.s:28673  .debug_str:0000000000029775 .LASF1730
C:\Users\SOLDER~1\AppData\Local\Temp\ccLLkDzL.s:28629  .debug_str:00000000000294e8 .LASF1731
C:\Users\SOLDER~1\AppData\Local\Temp\ccLLkDzL.s:29351  .debug_str:000000000002c410 .LASF1732
C:\Users\SOLDER~1\AppData\Local\Temp\ccLLkDzL.s:24873  .debug_str:0000000000019efd .LASF1733
C:\Users\SOLDER~1\AppData\Local\Temp\ccLLkDzL.s:21389  .debug_str:000000000000bb6b .LASF1734
C:\Users\SOLDER~1\AppData\Local\Temp\ccLLkDzL.s:20117  .debug_str:0000000000006857 .LASF1735
C:\Users\SOLDER~1\AppData\Local\Temp\ccLLkDzL.s:22333  .debug_str:000000000000f98f .LASF1736
C:\Users\SOLDER~1\AppData\Local\Temp\ccLLkDzL.s:23905  .debug_str:00000000000160ba .LASF1737
C:\Users\SOLDER~1\AppData\Local\Temp\ccLLkDzL.s:19375  .debug_str:000000000000385e .LASF1738
C:\Users\SOLDER~1\AppData\Local\Temp\ccLLkDzL.s:19923  .debug_str:0000000000005b38 .LASF1739
C:\Users\SOLDER~1\AppData\Local\Temp\ccLLkDzL.s:27581  .debug_str:0000000000024f9b .LASF1740
C:\Users\SOLDER~1\AppData\Local\Temp\ccLLkDzL.s:25461  .debug_str:000000000001c52a .LASF1741
C:\Users\SOLDER~1\AppData\Local\Temp\ccLLkDzL.s:29301  .debug_str:000000000002c10c .LASF1742
C:\Users\SOLDER~1\AppData\Local\Temp\ccLLkDzL.s:22339  .debug_str:000000000000f9ef .LASF1743
C:\Users\SOLDER~1\AppData\Local\Temp\ccLLkDzL.s:20287  .debug_str:000000000000737d .LASF1744
C:\Users\SOLDER~1\AppData\Local\Temp\ccLLkDzL.s:21909  .debug_str:000000000000ddb9 .LASF1745
C:\Users\SOLDER~1\AppData\Local\Temp\ccLLkDzL.s:27219  .debug_str:00000000000237e2 .LASF1746
C:\Users\SOLDER~1\AppData\Local\Temp\ccLLkDzL.s:21067  .debug_str:000000000000a69b .LASF1747
C:\Users\SOLDER~1\AppData\Local\Temp\ccLLkDzL.s:26001  .debug_str:000000000001e8ab .LASF1748
C:\Users\SOLDER~1\AppData\Local\Temp\ccLLkDzL.s:29983  .debug_str:000000000002ecce .LASF1749
C:\Users\SOLDER~1\AppData\Local\Temp\ccLLkDzL.s:20393  .debug_str:00000000000079f1 .LASF1750
C:\Users\SOLDER~1\AppData\Local\Temp\ccLLkDzL.s:25859  .debug_str:000000000001df32 .LASF1751
C:\Users\SOLDER~1\AppData\Local\Temp\ccLLkDzL.s:23373  .debug_str:0000000000013dc6 .LASF1752
C:\Users\SOLDER~1\AppData\Local\Temp\ccLLkDzL.s:24135  .debug_str:0000000000016f18 .LASF1753
C:\Users\SOLDER~1\AppData\Local\Temp\ccLLkDzL.s:19605  .debug_str:0000000000004715 .LASF1754
C:\Users\SOLDER~1\AppData\Local\Temp\ccLLkDzL.s:27911  .debug_str:00000000000265dd .LASF1755
C:\Users\SOLDER~1\AppData\Local\Temp\ccLLkDzL.s:26997  .debug_str:000000000002295d .LASF1756
C:\Users\SOLDER~1\AppData\Local\Temp\ccLLkDzL.s:22083  .debug_str:000000000000e97b .LASF1757
C:\Users\SOLDER~1\AppData\Local\Temp\ccLLkDzL.s:23739  .debug_str:0000000000015628 .LASF1758
C:\Users\SOLDER~1\AppData\Local\Temp\ccLLkDzL.s:26031  .debug_str:000000000001ea8c .LASF1759
C:\Users\SOLDER~1\AppData\Local\Temp\ccLLkDzL.s:20543  .debug_str:00000000000083f5 .LASF1760
C:\Users\SOLDER~1\AppData\Local\Temp\ccLLkDzL.s:26611  .debug_str:000000000002108d .LASF1761
C:\Users\SOLDER~1\AppData\Local\Temp\ccLLkDzL.s:21411  .debug_str:000000000000bcbc .LASF1762
C:\Users\SOLDER~1\AppData\Local\Temp\ccLLkDzL.s:19047  .debug_str:0000000000002350 .LASF1763
C:\Users\SOLDER~1\AppData\Local\Temp\ccLLkDzL.s:21999  .debug_str:000000000000e3f7 .LASF1764
C:\Users\SOLDER~1\AppData\Local\Temp\ccLLkDzL.s:22857  .debug_str:0000000000011b5e .LASF1765
C:\Users\SOLDER~1\AppData\Local\Temp\ccLLkDzL.s:25637  .debug_str:000000000001d113 .LASF1766
C:\Users\SOLDER~1\AppData\Local\Temp\ccLLkDzL.s:23925  .debug_str:000000000001620e .LASF1767
C:\Users\SOLDER~1\AppData\Local\Temp\ccLLkDzL.s:26569  .debug_str:0000000000020da1 .LASF1768
C:\Users\SOLDER~1\AppData\Local\Temp\ccLLkDzL.s:24201  .debug_str:000000000001738e .LASF1769
C:\Users\SOLDER~1\AppData\Local\Temp\ccLLkDzL.s:28647  .debug_str:00000000000295f2 .LASF1770
C:\Users\SOLDER~1\AppData\Local\Temp\ccLLkDzL.s:27681  .debug_str:00000000000255ed .LASF1771
C:\Users\SOLDER~1\AppData\Local\Temp\ccLLkDzL.s:23901  .debug_str:000000000001607a .LASF1772
C:\Users\SOLDER~1\AppData\Local\Temp\ccLLkDzL.s:21737  .debug_str:000000000000d29b .LASF1773
C:\Users\SOLDER~1\AppData\Local\Temp\ccLLkDzL.s:23257  .debug_str:000000000001356a .LASF1774
C:\Users\SOLDER~1\AppData\Local\Temp\ccLLkDzL.s:18633  .debug_str:0000000000000836 .LASF1775
C:\Users\SOLDER~1\AppData\Local\Temp\ccLLkDzL.s:28025  .debug_str:0000000000026d7e .LASF1776
C:\Users\SOLDER~1\AppData\Local\Temp\ccLLkDzL.s:29709  .debug_str:000000000002db45 .LASF1777
C:\Users\SOLDER~1\AppData\Local\Temp\ccLLkDzL.s:26865  .debug_str:000000000002208b .LASF1778
C:\Users\SOLDER~1\AppData\Local\Temp\ccLLkDzL.s:26293  .debug_str:000000000001fbbc .LASF1779
C:\Users\SOLDER~1\AppData\Local\Temp\ccLLkDzL.s:22285  .debug_str:000000000000f62d .LASF1780
C:\Users\SOLDER~1\AppData\Local\Temp\ccLLkDzL.s:26235  .debug_str:000000000001f81a .LASF1781
C:\Users\SOLDER~1\AppData\Local\Temp\ccLLkDzL.s:28133  .debug_str:0000000000027497 .LASF1782
C:\Users\SOLDER~1\AppData\Local\Temp\ccLLkDzL.s:22137  .debug_str:000000000000ecb6 .LASF1783
GAS LISTING C:\Users\SOLDER~1\AppData\Local\Temp\ccLLkDzL.s 			page 45


C:\Users\SOLDER~1\AppData\Local\Temp\ccLLkDzL.s:19623  .debug_str:0000000000004843 .LASF1784
C:\Users\SOLDER~1\AppData\Local\Temp\ccLLkDzL.s:20401  .debug_str:0000000000007a7f .LASF1785
C:\Users\SOLDER~1\AppData\Local\Temp\ccLLkDzL.s:27357  .debug_str:00000000000240d8 .LASF1786
C:\Users\SOLDER~1\AppData\Local\Temp\ccLLkDzL.s:24255  .debug_str:00000000000176e7 .LASF1787
C:\Users\SOLDER~1\AppData\Local\Temp\ccLLkDzL.s:23333  .debug_str:0000000000013b0d .LASF1788
C:\Users\SOLDER~1\AppData\Local\Temp\ccLLkDzL.s:29883  .debug_str:000000000002e66f .LASF1789
C:\Users\SOLDER~1\AppData\Local\Temp\ccLLkDzL.s:19919  .debug_str:0000000000005aef .LASF1790
C:\Users\SOLDER~1\AppData\Local\Temp\ccLLkDzL.s:18811  .debug_str:00000000000013fd .LASF1791
C:\Users\SOLDER~1\AppData\Local\Temp\ccLLkDzL.s:24807  .debug_str:0000000000019ae1 .LASF1792
C:\Users\SOLDER~1\AppData\Local\Temp\ccLLkDzL.s:19401  .debug_str:0000000000003a15 .LASF1793
C:\Users\SOLDER~1\AppData\Local\Temp\ccLLkDzL.s:25581  .debug_str:000000000001cd56 .LASF1794
C:\Users\SOLDER~1\AppData\Local\Temp\ccLLkDzL.s:25545  .debug_str:000000000001cada .LASF1795
C:\Users\SOLDER~1\AppData\Local\Temp\ccLLkDzL.s:26259  .debug_str:000000000001f9a0 .LASF1796
C:\Users\SOLDER~1\AppData\Local\Temp\ccLLkDzL.s:22609  .debug_str:0000000000010b49 .LASF1797
C:\Users\SOLDER~1\AppData\Local\Temp\ccLLkDzL.s:29923  .debug_str:000000000002e92d .LASF1798
C:\Users\SOLDER~1\AppData\Local\Temp\ccLLkDzL.s:28145  .debug_str:0000000000027566 .LASF1799
C:\Users\SOLDER~1\AppData\Local\Temp\ccLLkDzL.s:19347  .debug_str:0000000000003691 .LASF1800
C:\Users\SOLDER~1\AppData\Local\Temp\ccLLkDzL.s:20459  .debug_str:0000000000007e70 .LASF1801
C:\Users\SOLDER~1\AppData\Local\Temp\ccLLkDzL.s:26131  .debug_str:000000000001f12e .LASF1802
C:\Users\SOLDER~1\AppData\Local\Temp\ccLLkDzL.s:24003  .debug_str:00000000000166b3 .LASF1803
C:\Users\SOLDER~1\AppData\Local\Temp\ccLLkDzL.s:20071  .debug_str:0000000000006507 .LASF1804
C:\Users\SOLDER~1\AppData\Local\Temp\ccLLkDzL.s:29531  .debug_str:000000000002cff3 .LASF1805
C:\Users\SOLDER~1\AppData\Local\Temp\ccLLkDzL.s:19503  .debug_str:0000000000004096 .LASF1806
C:\Users\SOLDER~1\AppData\Local\Temp\ccLLkDzL.s:26371  .debug_str:000000000002009e .LASF1807
C:\Users\SOLDER~1\AppData\Local\Temp\ccLLkDzL.s:24209  .debug_str:000000000001740f .LASF1808
C:\Users\SOLDER~1\AppData\Local\Temp\ccLLkDzL.s:25875  .debug_str:000000000001e050 .LASF1809
C:\Users\SOLDER~1\AppData\Local\Temp\ccLLkDzL.s:23189  .debug_str:00000000000130ce .LASF1810
C:\Users\SOLDER~1\AppData\Local\Temp\ccLLkDzL.s:25127  .debug_str:000000000001af4e .LASF1811
C:\Users\SOLDER~1\AppData\Local\Temp\ccLLkDzL.s:18585  .debug_str:0000000000000488 .LASF1812
C:\Users\SOLDER~1\AppData\Local\Temp\ccLLkDzL.s:22531  .debug_str:000000000001064e .LASF1813
C:\Users\SOLDER~1\AppData\Local\Temp\ccLLkDzL.s:24455  .debug_str:0000000000018414 .LASF1814
C:\Users\SOLDER~1\AppData\Local\Temp\ccLLkDzL.s:29847  .debug_str:000000000002e40c .LASF1815
C:\Users\SOLDER~1\AppData\Local\Temp\ccLLkDzL.s:25825  .debug_str:000000000001dd18 .LASF1816
C:\Users\SOLDER~1\AppData\Local\Temp\ccLLkDzL.s:28603  .debug_str:000000000002931c .LASF1817
C:\Users\SOLDER~1\AppData\Local\Temp\ccLLkDzL.s:23671  .debug_str:000000000001519a .LASF1818
C:\Users\SOLDER~1\AppData\Local\Temp\ccLLkDzL.s:20503  .debug_str:0000000000008173 .LASF1819
C:\Users\SOLDER~1\AppData\Local\Temp\ccLLkDzL.s:19575  .debug_str:000000000000450e .LASF1820
C:\Users\SOLDER~1\AppData\Local\Temp\ccLLkDzL.s:26045  .debug_str:000000000001eb74 .LASF1821
C:\Users\SOLDER~1\AppData\Local\Temp\ccLLkDzL.s:27677  .debug_str:00000000000255a6 .LASF1822
C:\Users\SOLDER~1\AppData\Local\Temp\ccLLkDzL.s:23041  .debug_str:00000000000126f5 .LASF1823
C:\Users\SOLDER~1\AppData\Local\Temp\ccLLkDzL.s:28961  .debug_str:000000000002aa8d .LASF1824
C:\Users\SOLDER~1\AppData\Local\Temp\ccLLkDzL.s:23575  .debug_str:0000000000014b76 .LASF1825
C:\Users\SOLDER~1\AppData\Local\Temp\ccLLkDzL.s:29869  .debug_str:000000000002e56e .LASF1826
C:\Users\SOLDER~1\AppData\Local\Temp\ccLLkDzL.s:28287  .debug_str:0000000000027e8e .LASF1827
C:\Users\SOLDER~1\AppData\Local\Temp\ccLLkDzL.s:19025  .debug_str:00000000000021dd .LASF1828
C:\Users\SOLDER~1\AppData\Local\Temp\ccLLkDzL.s:26037  .debug_str:000000000001eaec .LASF1829
C:\Users\SOLDER~1\AppData\Local\Temp\ccLLkDzL.s:20889  .debug_str:0000000000009aa5 .LASF1830
C:\Users\SOLDER~1\AppData\Local\Temp\ccLLkDzL.s:20843  .debug_str:00000000000097b7 .LASF1831
C:\Users\SOLDER~1\AppData\Local\Temp\ccLLkDzL.s:23525  .debug_str:0000000000014821 .LASF1832
C:\Users\SOLDER~1\AppData\Local\Temp\ccLLkDzL.s:28203  .debug_str:00000000000278d4 .LASF1833
C:\Users\SOLDER~1\AppData\Local\Temp\ccLLkDzL.s:21187  .debug_str:000000000000ae61 .LASF1834
C:\Users\SOLDER~1\AppData\Local\Temp\ccLLkDzL.s:20165  .debug_str:0000000000006b41 .LASF1835
C:\Users\SOLDER~1\AppData\Local\Temp\ccLLkDzL.s:27819  .debug_str:0000000000025f9f .LASF1836
C:\Users\SOLDER~1\AppData\Local\Temp\ccLLkDzL.s:25787  .debug_str:000000000001da64 .LASF1837
C:\Users\SOLDER~1\AppData\Local\Temp\ccLLkDzL.s:26681  .debug_str:0000000000021508 .LASF1838
C:\Users\SOLDER~1\AppData\Local\Temp\ccLLkDzL.s:22675  .debug_str:0000000000010f99 .LASF1839
C:\Users\SOLDER~1\AppData\Local\Temp\ccLLkDzL.s:21461  .debug_str:000000000000c000 .LASF1840
GAS LISTING C:\Users\SOLDER~1\AppData\Local\Temp\ccLLkDzL.s 			page 46


C:\Users\SOLDER~1\AppData\Local\Temp\ccLLkDzL.s:22155  .debug_str:000000000000edf0 .LASF1841
C:\Users\SOLDER~1\AppData\Local\Temp\ccLLkDzL.s:19445  .debug_str:0000000000003ce4 .LASF1842
C:\Users\SOLDER~1\AppData\Local\Temp\ccLLkDzL.s:21395  .debug_str:000000000000bbd2 .LASF1843
C:\Users\SOLDER~1\AppData\Local\Temp\ccLLkDzL.s:26327  .debug_str:000000000001fdd4 .LASF1844
C:\Users\SOLDER~1\AppData\Local\Temp\ccLLkDzL.s:18815  .debug_str:0000000000001441 .LASF1845
C:\Users\SOLDER~1\AppData\Local\Temp\ccLLkDzL.s:20715  .debug_str:0000000000008f4b .LASF1846
C:\Users\SOLDER~1\AppData\Local\Temp\ccLLkDzL.s:26109  .debug_str:000000000001efac .LASF1847
C:\Users\SOLDER~1\AppData\Local\Temp\ccLLkDzL.s:23685  .debug_str:000000000001529a .LASF1848
C:\Users\SOLDER~1\AppData\Local\Temp\ccLLkDzL.s:24467  .debug_str:00000000000184e1 .LASF1849
C:\Users\SOLDER~1\AppData\Local\Temp\ccLLkDzL.s:19945  .debug_str:0000000000005c87 .LASF1850
C:\Users\SOLDER~1\AppData\Local\Temp\ccLLkDzL.s:28247  .debug_str:0000000000027bf5 .LASF1851
C:\Users\SOLDER~1\AppData\Local\Temp\ccLLkDzL.s:27333  .debug_str:0000000000023f26 .LASF1852
C:\Users\SOLDER~1\AppData\Local\Temp\ccLLkDzL.s:28535  .debug_str:0000000000028e70 .LASF1853
C:\Users\SOLDER~1\AppData\Local\Temp\ccLLkDzL.s:23997  .debug_str:0000000000016653 .LASF1854
C:\Users\SOLDER~1\AppData\Local\Temp\ccLLkDzL.s:27171  .debug_str:00000000000234cc .LASF1855
C:\Users\SOLDER~1\AppData\Local\Temp\ccLLkDzL.s:24833  .debug_str:0000000000019c5e .LASF1856
C:\Users\SOLDER~1\AppData\Local\Temp\ccLLkDzL.s:27793  .debug_str:0000000000025ddc .LASF1857
C:\Users\SOLDER~1\AppData\Local\Temp\ccLLkDzL.s:22625  .debug_str:0000000000010c6d .LASF1858
C:\Users\SOLDER~1\AppData\Local\Temp\ccLLkDzL.s:22593  .debug_str:0000000000010a52 .LASF1859
C:\Users\SOLDER~1\AppData\Local\Temp\ccLLkDzL.s:29445  .debug_str:000000000002c9f4 .LASF1860
C:\Users\SOLDER~1\AppData\Local\Temp\ccLLkDzL.s:21175  .debug_str:000000000000ad96 .LASF1861
C:\Users\SOLDER~1\AppData\Local\Temp\ccLLkDzL.s:26803  .debug_str:0000000000021cd1 .LASF1862
C:\Users\SOLDER~1\AppData\Local\Temp\ccLLkDzL.s:25099  .debug_str:000000000001add3 .LASF1863
C:\Users\SOLDER~1\AppData\Local\Temp\ccLLkDzL.s:27737  .debug_str:00000000000259f0 .LASF1864
C:\Users\SOLDER~1\AppData\Local\Temp\ccLLkDzL.s:24523  .debug_str:000000000001888c .LASF1865
C:\Users\SOLDER~1\AppData\Local\Temp\ccLLkDzL.s:28969  .debug_str:000000000002ab14 .LASF1866
C:\Users\SOLDER~1\AppData\Local\Temp\ccLLkDzL.s:27917  .debug_str:0000000000026650 .LASF1867
C:\Users\SOLDER~1\AppData\Local\Temp\ccLLkDzL.s:24147  .debug_str:0000000000016fe8 .LASF1868
C:\Users\SOLDER~1\AppData\Local\Temp\ccLLkDzL.s:22071  .debug_str:000000000000e8c0 .LASF1869
C:\Users\SOLDER~1\AppData\Local\Temp\ccLLkDzL.s:23579  .debug_str:0000000000014bbf .LASF1870
C:\Users\SOLDER~1\AppData\Local\Temp\ccLLkDzL.s:18863  .debug_str:0000000000001769 .LASF1871
C:\Users\SOLDER~1\AppData\Local\Temp\ccLLkDzL.s:28365  .debug_str:000000000002839d .LASF1872
C:\Users\SOLDER~1\AppData\Local\Temp\ccLLkDzL.s:27337  .debug_str:0000000000023f78 .LASF1873
C:\Users\SOLDER~1\AppData\Local\Temp\ccLLkDzL.s:27185  .debug_str:00000000000235c2 .LASF1874
C:\Users\SOLDER~1\AppData\Local\Temp\ccLLkDzL.s:29185  .debug_str:000000000002b90c .LASF1875
C:\Users\SOLDER~1\AppData\Local\Temp\ccLLkDzL.s:26737  .debug_str:0000000000021896 .LASF1876
C:\Users\SOLDER~1\AppData\Local\Temp\ccLLkDzL.s:25485  .debug_str:000000000001c6b7 .LASF1877
C:\Users\SOLDER~1\AppData\Local\Temp\ccLLkDzL.s:28465  .debug_str:0000000000028a2f .LASF1878
C:\Users\SOLDER~1\AppData\Local\Temp\ccLLkDzL.s:27141  .debug_str:00000000000232d2 .LASF1879
C:\Users\SOLDER~1\AppData\Local\Temp\ccLLkDzL.s:19963  .debug_str:0000000000005db8 .LASF1880
C:\Users\SOLDER~1\AppData\Local\Temp\ccLLkDzL.s:20725  .debug_str:0000000000008ff8 .LASF1881
C:\Users\SOLDER~1\AppData\Local\Temp\ccLLkDzL.s:27693  .debug_str:00000000000256c8 .LASF1882
C:\Users\SOLDER~1\AppData\Local\Temp\ccLLkDzL.s:24565  .debug_str:0000000000018b5c .LASF1883
C:\Users\SOLDER~1\AppData\Local\Temp\ccLLkDzL.s:18779  .debug_str:00000000000011ed .LASF1884
C:\Users\SOLDER~1\AppData\Local\Temp\ccLLkDzL.s:18629  .debug_str:00000000000007eb .LASF1885
C:\Users\SOLDER~1\AppData\Local\Temp\ccLLkDzL.s:20263  .debug_str:00000000000071cf .LASF1886
C:\Users\SOLDER~1\AppData\Local\Temp\ccLLkDzL.s:19975  .debug_str:0000000000005e7c .LASF1887
C:\Users\SOLDER~1\AppData\Local\Temp\ccLLkDzL.s:25969  .debug_str:000000000001e663 .LASF1888
C:\Users\SOLDER~1\AppData\Local\Temp\ccLLkDzL.s:20595  .debug_str:0000000000008741 .LASF1889
C:\Users\SOLDER~1\AppData\Local\Temp\ccLLkDzL.s:26831  .debug_str:0000000000021e87 .LASF1890
C:\Users\SOLDER~1\AppData\Local\Temp\ccLLkDzL.s:26797  .debug_str:0000000000021c60 .LASF1891
C:\Users\SOLDER~1\AppData\Local\Temp\ccLLkDzL.s:27419  .debug_str:0000000000024500 .LASF1892
C:\Users\SOLDER~1\AppData\Local\Temp\ccLLkDzL.s:22967  .debug_str:0000000000012224 .LASF1893
C:\Users\SOLDER~1\AppData\Local\Temp\ccLLkDzL.s:19585  .debug_str:00000000000045ba .LASF1894
C:\Users\SOLDER~1\AppData\Local\Temp\ccLLkDzL.s:29361  .debug_str:000000000002c4b7 .LASF1895
C:\Users\SOLDER~1\AppData\Local\Temp\ccLLkDzL.s:20535  .debug_str:0000000000008382 .LASF1896
C:\Users\SOLDER~1\AppData\Local\Temp\ccLLkDzL.s:20781  .debug_str:00000000000093c0 .LASF1897
GAS LISTING C:\Users\SOLDER~1\AppData\Local\Temp\ccLLkDzL.s 			page 47


C:\Users\SOLDER~1\AppData\Local\Temp\ccLLkDzL.s:25163  .debug_str:000000000001b1a9 .LASF1898
C:\Users\SOLDER~1\AppData\Local\Temp\ccLLkDzL.s:24257  .debug_str:000000000001770c .LASF1899
C:\Users\SOLDER~1\AppData\Local\Temp\ccLLkDzL.s:20413  .debug_str:0000000000007b55 .LASF1900
C:\Users\SOLDER~1\AppData\Local\Temp\ccLLkDzL.s:29871  .debug_str:000000000002e592 .LASF1901
C:\Users\SOLDER~1\AppData\Local\Temp\ccLLkDzL.s:19843  .debug_str:0000000000005596 .LASF1902
C:\Users\SOLDER~1\AppData\Local\Temp\ccLLkDzL.s:29467  .debug_str:000000000002cb61 .LASF1903
C:\Users\SOLDER~1\AppData\Local\Temp\ccLLkDzL.s:24671  .debug_str:000000000001924c .LASF1904
C:\Users\SOLDER~1\AppData\Local\Temp\ccLLkDzL.s:26213  .debug_str:000000000001f6c8 .LASF1905
C:\Users\SOLDER~1\AppData\Local\Temp\ccLLkDzL.s:23519  .debug_str:000000000001479f .LASF1906
C:\Users\SOLDER~1\AppData\Local\Temp\ccLLkDzL.s:25439  .debug_str:000000000001c387 .LASF1907
C:\Users\SOLDER~1\AppData\Local\Temp\ccLLkDzL.s:18895  .debug_str:0000000000001938 .LASF1908
C:\Users\SOLDER~1\AppData\Local\Temp\ccLLkDzL.s:28455  .debug_str:000000000002898a .LASF1909
C:\Users\SOLDER~1\AppData\Local\Temp\ccLLkDzL.s:24773  .debug_str:00000000000198b7 .LASF1910
C:\Users\SOLDER~1\AppData\Local\Temp\ccLLkDzL.s:18683  .debug_str:0000000000000bc7 .LASF1911
C:\Users\SOLDER~1\AppData\Local\Temp\ccLLkDzL.s:27711  .debug_str:0000000000025821 .LASF1912
C:\Users\SOLDER~1\AppData\Local\Temp\ccLLkDzL.s:28477  .debug_str:0000000000028ad4 .LASF1913
C:\Users\SOLDER~1\AppData\Local\Temp\ccLLkDzL.s:24021  .debug_str:00000000000167ed .LASF1914
C:\Users\SOLDER~1\AppData\Local\Temp\ccLLkDzL.s:29235  .debug_str:000000000002bc4b .LASF1915
C:\Users\SOLDER~1\AppData\Local\Temp\ccLLkDzL.s:19913  .debug_str:0000000000005a82 .LASF1916
C:\Users\SOLDER~1\AppData\Local\Temp\ccLLkDzL.s:26367  .debug_str:0000000000020066 .LASF1917
C:\Users\SOLDER~1\AppData\Local\Temp\ccLLkDzL.s:24947  .debug_str:000000000001a3a4 .LASF1918
C:\Users\SOLDER~1\AppData\Local\Temp\ccLLkDzL.s:24267  .debug_str:00000000000177ce .LASF1919
C:\Users\SOLDER~1\AppData\Local\Temp\ccLLkDzL.s:18767  .debug_str:000000000000112a .LASF1920
C:\Users\SOLDER~1\AppData\Local\Temp\ccLLkDzL.s:24853  .debug_str:0000000000019da1 .LASF1921
C:\Users\SOLDER~1\AppData\Local\Temp\ccLLkDzL.s:19521  .debug_str:00000000000041c3 .LASF1922
C:\Users\SOLDER~1\AppData\Local\Temp\ccLLkDzL.s:19487  .debug_str:0000000000003f85 .LASF1923
C:\Users\SOLDER~1\AppData\Local\Temp\ccLLkDzL.s:27153  .debug_str:000000000002339f .LASF1924
C:\Users\SOLDER~1\AppData\Local\Temp\ccLLkDzL.s:27183  .debug_str:000000000002359e .LASF1925
C:\Users\SOLDER~1\AppData\Local\Temp\ccLLkDzL.s:23867  .debug_str:0000000000015e5e .LASF1926
C:\Users\SOLDER~1\AppData\Local\Temp\ccLLkDzL.s:22107  .debug_str:000000000000eac1 .LASF1927
C:\Users\SOLDER~1\AppData\Local\Temp\ccLLkDzL.s:28255  .debug_str:0000000000027c7b .LASF1928
C:\Users\SOLDER~1\AppData\Local\Temp\ccLLkDzL.s:28443  .debug_str:00000000000288d6 .LASF1929
C:\Users\SOLDER~1\AppData\Local\Temp\ccLLkDzL.s:21421  .debug_str:000000000000bd49 .LASF1930
C:\Users\SOLDER~1\AppData\Local\Temp\ccLLkDzL.s:20507  .debug_str:00000000000081b3 .LASF1931
C:\Users\SOLDER~1\AppData\Local\Temp\ccLLkDzL.s:29045  .debug_str:000000000002b024 .LASF1932
C:\Users\SOLDER~1\AppData\Local\Temp\ccLLkDzL.s:21869  .debug_str:000000000000db20 .LASF1933
C:\Users\SOLDER~1\AppData\Local\Temp\ccLLkDzL.s:27597  .debug_str:0000000000025086 .LASF1934
C:\Users\SOLDER~1\AppData\Local\Temp\ccLLkDzL.s:18515  .debug_str:0000000000000023 .LASF1935
C:\Users\SOLDER~1\AppData\Local\Temp\ccLLkDzL.s:20925  .debug_str:0000000000009cf5 .LASF1936
C:\Users\SOLDER~1\AppData\Local\Temp\ccLLkDzL.s:22507  .debug_str:00000000000104e9 .LASF1937
C:\Users\SOLDER~1\AppData\Local\Temp\ccLLkDzL.s:19771  .debug_str:0000000000005152 .LASF1938
C:\Users\SOLDER~1\AppData\Local\Temp\ccLLkDzL.s:21719  .debug_str:000000000000d167 .LASF1939
C:\Users\SOLDER~1\AppData\Local\Temp\ccLLkDzL.s:26557  .debug_str:0000000000020cce .LASF1940
C:\Users\SOLDER~1\AppData\Local\Temp\ccLLkDzL.s:19031  .debug_str:000000000000223b .LASF1941
C:\Users\SOLDER~1\AppData\Local\Temp\ccLLkDzL.s:24303  .debug_str:0000000000017a19 .LASF1942
C:\Users\SOLDER~1\AppData\Local\Temp\ccLLkDzL.s:26413  .debug_str:0000000000020378 .LASF1943
C:\Users\SOLDER~1\AppData\Local\Temp\ccLLkDzL.s:28431  .debug_str:0000000000028809 .LASF1944
C:\Users\SOLDER~1\AppData\Local\Temp\ccLLkDzL.s:24695  .debug_str:00000000000193ef .LASF1945
C:\Users\SOLDER~1\AppData\Local\Temp\ccLLkDzL.s:20289  .debug_str:00000000000073a2 .LASF1946
C:\Users\SOLDER~1\AppData\Local\Temp\ccLLkDzL.s:28597  .debug_str:00000000000292ad .LASF1947
C:\Users\SOLDER~1\AppData\Local\Temp\ccLLkDzL.s:27575  .debug_str:0000000000024f4a .LASF1948
C:\Users\SOLDER~1\AppData\Local\Temp\ccLLkDzL.s:25955  .debug_str:000000000001e56b .LASF1949
C:\Users\SOLDER~1\AppData\Local\Temp\ccLLkDzL.s:24337  .debug_str:0000000000017c62 .LASF1950
C:\Users\SOLDER~1\AppData\Local\Temp\ccLLkDzL.s:21905  .debug_str:000000000000dd74 .LASF1951
C:\Users\SOLDER~1\AppData\Local\Temp\ccLLkDzL.s:22903  .debug_str:0000000000011e2b .LASF1952
C:\Users\SOLDER~1\AppData\Local\Temp\ccLLkDzL.s:29007  .debug_str:000000000002ad4a .LASF1953
C:\Users\SOLDER~1\AppData\Local\Temp\ccLLkDzL.s:23809  .debug_str:0000000000015a8b .LASF1954
GAS LISTING C:\Users\SOLDER~1\AppData\Local\Temp\ccLLkDzL.s 			page 48


C:\Users\SOLDER~1\AppData\Local\Temp\ccLLkDzL.s:23765  .debug_str:00000000000157e2 .LASF1955
C:\Users\SOLDER~1\AppData\Local\Temp\ccLLkDzL.s:24497  .debug_str:00000000000186c0 .LASF1956
C:\Users\SOLDER~1\AppData\Local\Temp\ccLLkDzL.s:27343  .debug_str:0000000000023fda .LASF1957
C:\Users\SOLDER~1\AppData\Local\Temp\ccLLkDzL.s:28089  .debug_str:00000000000271a5 .LASF1958
C:\Users\SOLDER~1\AppData\Local\Temp\ccLLkDzL.s:26267  .debug_str:000000000001fa24 .LASF1959
C:\Users\SOLDER~1\AppData\Local\Temp\ccLLkDzL.s:28953  .debug_str:000000000002a9f9 .LASF1960
C:\Users\SOLDER~1\AppData\Local\Temp\ccLLkDzL.s:24749  .debug_str:000000000001972c .LASF1961
C:\Users\SOLDER~1\AppData\Local\Temp\ccLLkDzL.s:27755  .debug_str:0000000000025b1b .LASF1962
C:\Users\SOLDER~1\AppData\Local\Temp\ccLLkDzL.s:28249  .debug_str:0000000000027c1a .LASF1963
C:\Users\SOLDER~1\AppData\Local\Temp\ccLLkDzL.s:24483  .debug_str:00000000000185d9 .LASF1964
C:\Users\SOLDER~1\AppData\Local\Temp\ccLLkDzL.s:24875  .debug_str:0000000000019f21 .LASF1965
C:\Users\SOLDER~1\AppData\Local\Temp\ccLLkDzL.s:23915  .debug_str:000000000001616d .LASF1966
C:\Users\SOLDER~1\AppData\Local\Temp\ccLLkDzL.s:19179  .debug_str:0000000000002b99 .LASF1967
C:\Users\SOLDER~1\AppData\Local\Temp\ccLLkDzL.s:28713  .debug_str:0000000000029a0a .LASF1968
C:\Users\SOLDER~1\AppData\Local\Temp\ccLLkDzL.s:24801  .debug_str:0000000000019a7d .LASF1969
C:\Users\SOLDER~1\AppData\Local\Temp\ccLLkDzL.s:27531  .debug_str:0000000000024c5b .LASF1970
C:\Users\SOLDER~1\AppData\Local\Temp\ccLLkDzL.s:29509  .debug_str:000000000002ce3e .LASF1971
C:\Users\SOLDER~1\AppData\Local\Temp\ccLLkDzL.s:22845  .debug_str:0000000000011a88 .LASF1972
C:\Users\SOLDER~1\AppData\Local\Temp\ccLLkDzL.s:26775  .debug_str:0000000000021ae9 .LASF1973
C:\Users\SOLDER~1\AppData\Local\Temp\ccLLkDzL.s:28807  .debug_str:000000000002a092 .LASF1974
C:\Users\SOLDER~1\AppData\Local\Temp\ccLLkDzL.s:22719  .debug_str:000000000001124c .LASF1975
C:\Users\SOLDER~1\AppData\Local\Temp\ccLLkDzL.s:20309  .debug_str:00000000000074dd .LASF1976
C:\Users\SOLDER~1\AppData\Local\Temp\ccLLkDzL.s:20949  .debug_str:0000000000009ea9 .LASF1977
C:\Users\SOLDER~1\AppData\Local\Temp\ccLLkDzL.s:18679  .debug_str:0000000000000b7f .LASF1978
C:\Users\SOLDER~1\AppData\Local\Temp\ccLLkDzL.s:24797  .debug_str:0000000000019a46 .LASF1979
C:\Users\SOLDER~1\AppData\Local\Temp\ccLLkDzL.s:23895  .debug_str:0000000000016017 .LASF1980
C:\Users\SOLDER~1\AppData\Local\Temp\ccLLkDzL.s:28935  .debug_str:000000000002a8b8 .LASF1981
C:\Users\SOLDER~1\AppData\Local\Temp\ccLLkDzL.s:20597  .debug_str:0000000000008765 .LASF1982
C:\Users\SOLDER~1\AppData\Local\Temp\ccLLkDzL.s:21159  .debug_str:000000000000ac73 .LASF1983
C:\Users\SOLDER~1\AppData\Local\Temp\ccLLkDzL.s:27129  .debug_str:00000000000231fb .LASF1984
C:\Users\SOLDER~1\AppData\Local\Temp\ccLLkDzL.s:22833  .debug_str:00000000000119b4 .LASF1985
C:\Users\SOLDER~1\AppData\Local\Temp\ccLLkDzL.s:28029  .debug_str:0000000000026dc9 .LASF1986
C:\Users\SOLDER~1\AppData\Local\Temp\ccLLkDzL.s:27987  .debug_str:0000000000026af2 .LASF1987
C:\Users\SOLDER~1\AppData\Local\Temp\ccLLkDzL.s:28737  .debug_str:0000000000029bd4 .LASF1988
C:\Users\SOLDER~1\AppData\Local\Temp\ccLLkDzL.s:20061  .debug_str:0000000000006455 .LASF1989
C:\Users\SOLDER~1\AppData\Local\Temp\ccLLkDzL.s:21471  .debug_str:000000000000c0c3 .LASF1990
C:\Users\SOLDER~1\AppData\Local\Temp\ccLLkDzL.s:19037  .debug_str:000000000000229d .LASF1991
C:\Users\SOLDER~1\AppData\Local\Temp\ccLLkDzL.s:21705  .debug_str:000000000000d081 .LASF1992
C:\Users\SOLDER~1\AppData\Local\Temp\ccLLkDzL.s:26751  .debug_str:0000000000021989 .LASF1993
C:\Users\SOLDER~1\AppData\Local\Temp\ccLLkDzL.s:25477  .debug_str:000000000001c625 .LASF1994
C:\Users\SOLDER~1\AppData\Local\Temp\ccLLkDzL.s:24571  .debug_str:0000000000018bcb .LASF1995
C:\Users\SOLDER~1\AppData\Local\Temp\ccLLkDzL.s:20739  .debug_str:0000000000009109 .LASF1996
C:\Users\SOLDER~1\AppData\Local\Temp\ccLLkDzL.s:18711  .debug_str:0000000000000dc6 .LASF1997
C:\Users\SOLDER~1\AppData\Local\Temp\ccLLkDzL.s:20093  .debug_str:000000000000669d .LASF1998
C:\Users\SOLDER~1\AppData\Local\Temp\ccLLkDzL.s:26919  .debug_str:0000000000022403 .LASF1999
C:\Users\SOLDER~1\AppData\Local\Temp\ccLLkDzL.s:24991  .debug_str:000000000001a6a0 .LASF2000
C:\Users\SOLDER~1\AppData\Local\Temp\ccLLkDzL.s:26517  .debug_str:0000000000020a2d .LASF2001
C:\Users\SOLDER~1\AppData\Local\Temp\ccLLkDzL.s:23757  .debug_str:0000000000015755 .LASF2002
C:\Users\SOLDER~1\AppData\Local\Temp\ccLLkDzL.s:25671  .debug_str:000000000001d365 .LASF2003
C:\Users\SOLDER~1\AppData\Local\Temp\ccLLkDzL.s:19129  .debug_str:00000000000028c8 .LASF2004
C:\Users\SOLDER~1\AppData\Local\Temp\ccLLkDzL.s:23085  .debug_str:00000000000129d5 .LASF2005
C:\Users\SOLDER~1\AppData\Local\Temp\ccLLkDzL.s:18745  .debug_str:0000000000000fc6 .LASF2006
C:\Users\SOLDER~1\AppData\Local\Temp\ccLLkDzL.s:18985  .debug_str:0000000000001f4c .LASF2007
C:\Users\SOLDER~1\AppData\Local\Temp\ccLLkDzL.s:28053  .debug_str:0000000000026f4f .LASF2008
C:\Users\SOLDER~1\AppData\Local\Temp\ccLLkDzL.s:28743  .debug_str:0000000000029c3f .LASF2009
C:\Users\SOLDER~1\AppData\Local\Temp\ccLLkDzL.s:24361  .debug_str:0000000000017e14 .LASF2010
C:\Users\SOLDER~1\AppData\Local\Temp\ccLLkDzL.s:21057  .debug_str:000000000000a5e2 .LASF2011
GAS LISTING C:\Users\SOLDER~1\AppData\Local\Temp\ccLLkDzL.s 			page 49


C:\Users\SOLDER~1\AppData\Local\Temp\ccLLkDzL.s:20157  .debug_str:0000000000006ac7 .LASF2012
C:\Users\SOLDER~1\AppData\Local\Temp\ccLLkDzL.s:20425  .debug_str:0000000000007c11 .LASF2013
C:\Users\SOLDER~1\AppData\Local\Temp\ccLLkDzL.s:28343  .debug_str:0000000000028238 .LASF2014
C:\Users\SOLDER~1\AppData\Local\Temp\ccLLkDzL.s:25405  .debug_str:000000000001c13b .LASF2015
C:\Users\SOLDER~1\AppData\Local\Temp\ccLLkDzL.s:19921  .debug_str:0000000000005b14 .LASF2016
C:\Users\SOLDER~1\AppData\Local\Temp\ccLLkDzL.s:26021  .debug_str:000000000001e9f2 .LASF2017
C:\Users\SOLDER~1\AppData\Local\Temp\ccLLkDzL.s:20819  .debug_str:000000000000962c .LASF2018
C:\Users\SOLDER~1\AppData\Local\Temp\ccLLkDzL.s:20691  .debug_str:0000000000008da8 .LASF2019
C:\Users\SOLDER~1\AppData\Local\Temp\ccLLkDzL.s:21393  .debug_str:000000000000bbae .LASF2020
C:\Users\SOLDER~1\AppData\Local\Temp\ccLLkDzL.s:28405  .debug_str:0000000000028654 .LASF2021
C:\Users\SOLDER~1\AppData\Local\Temp\ccLLkDzL.s:25037  .debug_str:000000000001a971 .LASF2022
C:\Users\SOLDER~1\AppData\Local\Temp\ccLLkDzL.s:23319  .debug_str:0000000000013a0a .LASF2023
C:\Users\SOLDER~1\AppData\Local\Temp\ccLLkDzL.s:29377  .debug_str:000000000002c5b8 .LASF2024
C:\Users\SOLDER~1\AppData\Local\Temp\ccLLkDzL.s:29777  .debug_str:000000000002df85 .LASF2025
C:\Users\SOLDER~1\AppData\Local\Temp\ccLLkDzL.s:22233  .debug_str:000000000000f2c6 .LASF2026
C:\Users\SOLDER~1\AppData\Local\Temp\ccLLkDzL.s:20833  .debug_str:0000000000009711 .LASF2027
C:\Users\SOLDER~1\AppData\Local\Temp\ccLLkDzL.s:28493  .debug_str:0000000000028bd9 .LASF2028
C:\Users\SOLDER~1\AppData\Local\Temp\ccLLkDzL.s:26435  .debug_str:00000000000204dc .LASF2029
C:\Users\SOLDER~1\AppData\Local\Temp\ccLLkDzL.s:27833  .debug_str:0000000000026092 .LASF2030
C:\Users\SOLDER~1\AppData\Local\Temp\ccLLkDzL.s:23247  .debug_str:00000000000134c8 .LASF2031
C:\Users\SOLDER~1\AppData\Local\Temp\ccLLkDzL.s:21169  .debug_str:000000000000ad40 .LASF2032
C:\Users\SOLDER~1\AppData\Local\Temp\ccLLkDzL.s:22819  .debug_str:00000000000118d3 .LASF2033
C:\Users\SOLDER~1\AppData\Local\Temp\ccLLkDzL.s:20023  .debug_str:00000000000061e4 .LASF2034
C:\Users\SOLDER~1\AppData\Local\Temp\ccLLkDzL.s:21959  .debug_str:000000000000e167 .LASF2035
C:\Users\SOLDER~1\AppData\Local\Temp\ccLLkDzL.s:29417  .debug_str:000000000002c83d .LASF2036
C:\Users\SOLDER~1\AppData\Local\Temp\ccLLkDzL.s:28875  .debug_str:000000000002a51f .LASF2037
C:\Users\SOLDER~1\AppData\Local\Temp\ccLLkDzL.s:20799  .debug_str:00000000000094ff .LASF2038
C:\Users\SOLDER~1\AppData\Local\Temp\ccLLkDzL.s:26735  .debug_str:0000000000021871 .LASF2039
C:\Users\SOLDER~1\AppData\Local\Temp\ccLLkDzL.s:24293  .debug_str:000000000001795f .LASF2040
C:\Users\SOLDER~1\AppData\Local\Temp\ccLLkDzL.s:25015  .debug_str:000000000001a80c .LASF2041
C:\Users\SOLDER~1\AppData\Local\Temp\ccLLkDzL.s:26857  .debug_str:0000000000022026 .LASF2042
C:\Users\SOLDER~1\AppData\Local\Temp\ccLLkDzL.s:28833  .debug_str:000000000002a261 .LASF2043
C:\Users\SOLDER~1\AppData\Local\Temp\ccLLkDzL.s:27907  .debug_str:0000000000026587 .LASF2044
C:\Users\SOLDER~1\AppData\Local\Temp\ccLLkDzL.s:22985  .debug_str:000000000001233c .LASF2045
C:\Users\SOLDER~1\AppData\Local\Temp\ccLLkDzL.s:24649  .debug_str:00000000000190c2 .LASF2046
C:\Users\SOLDER~1\AppData\Local\Temp\ccLLkDzL.s:20769  .debug_str:00000000000092fa .LASF2047
C:\Users\SOLDER~1\AppData\Local\Temp\ccLLkDzL.s:26741  .debug_str:00000000000218dd .LASF2048
C:\Users\SOLDER~1\AppData\Local\Temp\ccLLkDzL.s:21363  .debug_str:000000000000b99d .LASF2049
C:\Users\SOLDER~1\AppData\Local\Temp\ccLLkDzL.s:27631  .debug_str:00000000000252c7 .LASF2050
C:\Users\SOLDER~1\AppData\Local\Temp\ccLLkDzL.s:27593  .debug_str:0000000000025047 .LASF2051
C:\Users\SOLDER~1\AppData\Local\Temp\ccLLkDzL.s:28233  .debug_str:0000000000027ae7 .LASF2052
C:\Users\SOLDER~1\AppData\Local\Temp\ccLLkDzL.s:23773  .debug_str:000000000001585f .LASF2053
C:\Users\SOLDER~1\AppData\Local\Temp\ccLLkDzL.s:29505  .debug_str:000000000002cdf7 .LASF2054
C:\Users\SOLDER~1\AppData\Local\Temp\ccLLkDzL.s:18665  .debug_str:0000000000000a8b .LASF2055
C:\Users\SOLDER~1\AppData\Local\Temp\ccLLkDzL.s:21313  .debug_str:000000000000b647 .LASF2056
C:\Users\SOLDER~1\AppData\Local\Temp\ccLLkDzL.s:27615  .debug_str:00000000000251cc .LASF2057
C:\Users\SOLDER~1\AppData\Local\Temp\ccLLkDzL.s:28675  .debug_str:0000000000029799 .LASF2058
C:\Users\SOLDER~1\AppData\Local\Temp\ccLLkDzL.s:19669  .debug_str:0000000000004b19 .LASF2059
C:\Users\SOLDER~1\AppData\Local\Temp\ccLLkDzL.s:27331  .debug_str:0000000000023f00 .LASF2060
C:\Users\SOLDER~1\AppData\Local\Temp\ccLLkDzL.s:29621  .debug_str:000000000002d58c .LASF2061
C:\Users\SOLDER~1\AppData\Local\Temp\ccLLkDzL.s:26689  .debug_str:000000000002157f .LASF2062
C:\Users\SOLDER~1\AppData\Local\Temp\ccLLkDzL.s:22081  .debug_str:000000000000e955 .LASF2063
C:\Users\SOLDER~1\AppData\Local\Temp\ccLLkDzL.s:29337  .debug_str:000000000002c343 .LASF2064
C:\Users\SOLDER~1\AppData\Local\Temp\ccLLkDzL.s:21661  .debug_str:000000000000cd99 .LASF2065
C:\Users\SOLDER~1\AppData\Local\Temp\ccLLkDzL.s:25343  .debug_str:000000000001bd27 .LASF2066
C:\Users\SOLDER~1\AppData\Local\Temp\ccLLkDzL.s:20829  .debug_str:00000000000096c6 .LASF2067
C:\Users\SOLDER~1\AppData\Local\Temp\ccLLkDzL.s:20141  .debug_str:00000000000069cd .LASF2068
GAS LISTING C:\Users\SOLDER~1\AppData\Local\Temp\ccLLkDzL.s 			page 50


C:\Users\SOLDER~1\AppData\Local\Temp\ccLLkDzL.s:29733  .debug_str:000000000002dcd5 .LASF2069
C:\Users\SOLDER~1\AppData\Local\Temp\ccLLkDzL.s:20227  .debug_str:0000000000006f8c .LASF2070
C:\Users\SOLDER~1\AppData\Local\Temp\ccLLkDzL.s:25599  .debug_str:000000000001ce5a .LASF2071
C:\Users\SOLDER~1\AppData\Local\Temp\ccLLkDzL.s:23111  .debug_str:0000000000012bce .LASF2072
C:\Users\SOLDER~1\AppData\Local\Temp\ccLLkDzL.s:27897  .debug_str:00000000000264e1 .LASF2073
C:\Users\SOLDER~1\AppData\Local\Temp\ccLLkDzL.s:19371  .debug_str:000000000000381d .LASF2074
C:\Users\SOLDER~1\AppData\Local\Temp\ccLLkDzL.s:27669  .debug_str:000000000002551b .LASF2075
C:\Users\SOLDER~1\AppData\Local\Temp\ccLLkDzL.s:26755  .debug_str:00000000000219d3 .LASF2076
C:\Users\SOLDER~1\AppData\Local\Temp\ccLLkDzL.s:21835  .debug_str:000000000000d8db .LASF2077
C:\Users\SOLDER~1\AppData\Local\Temp\ccLLkDzL.s:23509  .debug_str:00000000000146db .LASF2078
C:\Users\SOLDER~1\AppData\Local\Temp\ccLLkDzL.s:25025  .debug_str:000000000001a8c1 .LASF2079
C:\Users\SOLDER~1\AppData\Local\Temp\ccLLkDzL.s:19513  .debug_str:0000000000004143 .LASF2080
C:\Users\SOLDER~1\AppData\Local\Temp\ccLLkDzL.s:25613  .debug_str:000000000001cf4e .LASF2081
C:\Users\SOLDER~1\AppData\Local\Temp\ccLLkDzL.s:24479  .debug_str:00000000000185a2 .LASF2082
C:\Users\SOLDER~1\AppData\Local\Temp\ccLLkDzL.s:20303  .debug_str:0000000000007478 .LASF2083
C:\Users\SOLDER~1\AppData\Local\Temp\ccLLkDzL.s:20989  .debug_str:000000000000a15c .LASF2084
C:\Users\SOLDER~1\AppData\Local\Temp\ccLLkDzL.s:23707  .debug_str:0000000000015411 .LASF2085
C:\Users\SOLDER~1\AppData\Local\Temp\ccLLkDzL.s:23075  .debug_str:000000000001293e .LASF2086
C:\Users\SOLDER~1\AppData\Local\Temp\ccLLkDzL.s:25795  .debug_str:000000000001daef .LASF2087
C:\Users\SOLDER~1\AppData\Local\Temp\ccLLkDzL.s:25559  .debug_str:000000000001cbe4 .LASF2088
C:\Users\SOLDER~1\AppData\Local\Temp\ccLLkDzL.s:23941  .debug_str:00000000000162ff .LASF2089
C:\Users\SOLDER~1\AppData\Local\Temp\ccLLkDzL.s:28385  .debug_str:00000000000284cb .LASF2090
C:\Users\SOLDER~1\AppData\Local\Temp\ccLLkDzL.s:25419  .debug_str:000000000001c24d .LASF2091
C:\Users\SOLDER~1\AppData\Local\Temp\ccLLkDzL.s:23639  .debug_str:0000000000014f7a .LASF2092
C:\Users\SOLDER~1\AppData\Local\Temp\ccLLkDzL.s:21489  .debug_str:000000000000c1ef .LASF2093
C:\Users\SOLDER~1\AppData\Local\Temp\ccLLkDzL.s:22991  .debug_str:00000000000123b5 .LASF2094
C:\Users\SOLDER~1\AppData\Local\Temp\ccLLkDzL.s:29881  .debug_str:000000000002e649 .LASF2095
C:\Users\SOLDER~1\AppData\Local\Temp\ccLLkDzL.s:27769  .debug_str:0000000000025c16 .LASF2096
C:\Users\SOLDER~1\AppData\Local\Temp\ccLLkDzL.s:24641  .debug_str:0000000000019051 .LASF2097
C:\Users\SOLDER~1\AppData\Local\Temp\ccLLkDzL.s:26629  .debug_str:00000000000211b3 .LASF2098
C:\Users\SOLDER~1\AppData\Local\Temp\ccLLkDzL.s:28599  .debug_str:00000000000292d2 .LASF2099
C:\Users\SOLDER~1\AppData\Local\Temp\ccLLkDzL.s:23119  .debug_str:0000000000012c4d .LASF2100
C:\Users\SOLDER~1\AppData\Local\Temp\ccLLkDzL.s:25985  .debug_str:000000000001e787 .LASF2101
C:\Users\SOLDER~1\AppData\Local\Temp\ccLLkDzL.s:27877  .debug_str:00000000000263b3 .LASF2102
C:\Users\SOLDER~1\AppData\Local\Temp\ccLLkDzL.s:21881  .debug_str:000000000000dbd3 .LASF2103
C:\Users\SOLDER~1\AppData\Local\Temp\ccLLkDzL.s:19391  .debug_str:0000000000003964 .LASF2104
C:\Users\SOLDER~1\AppData\Local\Temp\ccLLkDzL.s:20139  .debug_str:00000000000069a7 .LASF2105
C:\Users\SOLDER~1\AppData\Local\Temp\ccLLkDzL.s:27113  .debug_str:00000000000230d0 .LASF2106
C:\Users\SOLDER~1\AppData\Local\Temp\ccLLkDzL.s:23991  .debug_str:00000000000165ef .LASF2107
C:\Users\SOLDER~1\AppData\Local\Temp\ccLLkDzL.s:23059  .debug_str:000000000001280d .LASF2108
C:\Users\SOLDER~1\AppData\Local\Temp\ccLLkDzL.s:29627  .debug_str:000000000002d5f5 .LASF2109
C:\Users\SOLDER~1\AppData\Local\Temp\ccLLkDzL.s:28439  .debug_str:0000000000028895 .LASF2110
C:\Users\SOLDER~1\AppData\Local\Temp\ccLLkDzL.s:29287  .debug_str:000000000002c021 .LASF2111
C:\Users\SOLDER~1\AppData\Local\Temp\ccLLkDzL.s:23695  .debug_str:0000000000015344 .LASF2112
C:\Users\SOLDER~1\AppData\Local\Temp\ccLLkDzL.s:29815  .debug_str:000000000002e1ed .LASF2113
C:\Users\SOLDER~1\AppData\Local\Temp\ccLLkDzL.s:24611  .debug_str:0000000000018e77 .LASF2114
C:\Users\SOLDER~1\AppData\Local\Temp\ccLLkDzL.s:24569  .debug_str:0000000000018ba6 .LASF2115
C:\Users\SOLDER~1\AppData\Local\Temp\ccLLkDzL.s:25269  .debug_str:000000000001b818 .LASF2116
C:\Users\SOLDER~1\AppData\Local\Temp\ccLLkDzL.s:20785  .debug_str:0000000000009414 .LASF2117
C:\Users\SOLDER~1\AppData\Local\Temp\ccLLkDzL.s:28911  .debug_str:000000000002a735 .LASF2118
C:\Users\SOLDER~1\AppData\Local\Temp\ccLLkDzL.s:27037  .debug_str:0000000000022c03 .LASF2119
C:\Users\SOLDER~1\AppData\Local\Temp\ccLLkDzL.s:29761  .debug_str:000000000002de8e .LASF2120
C:\Users\SOLDER~1\AppData\Local\Temp\ccLLkDzL.s:20201  .debug_str:0000000000006da7 .LASF2121
C:\Users\SOLDER~1\AppData\Local\Temp\ccLLkDzL.s:24685  .debug_str:000000000001934b .LASF2122
C:\Users\SOLDER~1\AppData\Local\Temp\ccLLkDzL.s:23735  .debug_str:00000000000155e8 .LASF2123
C:\Users\SOLDER~1\AppData\Local\Temp\ccLLkDzL.s:22437  .debug_str:0000000000010073 .LASF2124
C:\Users\SOLDER~1\AppData\Local\Temp\ccLLkDzL.s:29283  .debug_str:000000000002bfc3 .LASF2125
GAS LISTING C:\Users\SOLDER~1\AppData\Local\Temp\ccLLkDzL.s 			page 51


C:\Users\SOLDER~1\AppData\Local\Temp\ccLLkDzL.s:19279  .debug_str:0000000000003232 .LASF2126
C:\Users\SOLDER~1\AppData\Local\Temp\ccLLkDzL.s:26143  .debug_str:000000000001f1fd .LASF2127
C:\Users\SOLDER~1\AppData\Local\Temp\ccLLkDzL.s:24105  .debug_str:0000000000016d07 .LASF2128
C:\Users\SOLDER~1\AppData\Local\Temp\ccLLkDzL.s:26661  .debug_str:00000000000213b5 .LASF2129
C:\Users\SOLDER~1\AppData\Local\Temp\ccLLkDzL.s:22925  .debug_str:0000000000011f7b .LASF2130
C:\Users\SOLDER~1\AppData\Local\Temp\ccLLkDzL.s:21217  .debug_str:000000000000b02b .LASF2131
C:\Users\SOLDER~1\AppData\Local\Temp\ccLLkDzL.s:29829  .debug_str:000000000002e2c7 .LASF2132
C:\Users\SOLDER~1\AppData\Local\Temp\ccLLkDzL.s:22271  .debug_str:000000000000f558 .LASF2133
C:\Users\SOLDER~1\AppData\Local\Temp\ccLLkDzL.s:24219  .debug_str:00000000000174b8 .LASF2134
C:\Users\SOLDER~1\AppData\Local\Temp\ccLLkDzL.s:29681  .debug_str:000000000002d964 .LASF2135
C:\Users\SOLDER~1\AppData\Local\Temp\ccLLkDzL.s:23557  .debug_str:0000000000014a3e .LASF2136
C:\Users\SOLDER~1\AppData\Local\Temp\ccLLkDzL.s:27889  .debug_str:0000000000026453 .LASF2137
C:\Users\SOLDER~1\AppData\Local\Temp\ccLLkDzL.s:23435  .debug_str:0000000000014205 .LASF2138
C:\Users\SOLDER~1\AppData\Local\Temp\ccLLkDzL.s:20257  .debug_str:0000000000007181 .LASF2139
C:\Users\SOLDER~1\AppData\Local\Temp\ccLLkDzL.s:19341  .debug_str:000000000000362c .LASF2140
C:\Users\SOLDER~1\AppData\Local\Temp\ccLLkDzL.s:26087  .debug_str:000000000001ee16 .LASF2141
C:\Users\SOLDER~1\AppData\Local\Temp\ccLLkDzL.s:27415  .debug_str:00000000000244c7 .LASF2142
C:\Users\SOLDER~1\AppData\Local\Temp\ccLLkDzL.s:21933  .debug_str:000000000000df7e .LASF2143
C:\Users\SOLDER~1\AppData\Local\Temp\ccLLkDzL.s:27931  .debug_str:000000000002673d .LASF2144
C:\Users\SOLDER~1\AppData\Local\Temp\ccLLkDzL.s:22575  .debug_str:000000000001094f .LASF2145
C:\Users\SOLDER~1\AppData\Local\Temp\ccLLkDzL.s:28841  .debug_str:000000000002a2e3 .LASF2146
C:\Users\SOLDER~1\AppData\Local\Temp\ccLLkDzL.s:28803  .debug_str:000000000002a053 .LASF2147
C:\Users\SOLDER~1\AppData\Local\Temp\ccLLkDzL.s:29527  .debug_str:000000000002cfa9 .LASF2148
C:\Users\SOLDER~1\AppData\Local\Temp\ccLLkDzL.s:25997  .debug_str:000000000001e862 .LASF2149
C:\Users\SOLDER~1\AppData\Local\Temp\ccLLkDzL.s:21553  .debug_str:000000000000c664 .LASF2150
C:\Users\SOLDER~1\AppData\Local\Temp\ccLLkDzL.s:19819  .debug_str:000000000000542c .LASF2151
C:\Users\SOLDER~1\AppData\Local\Temp\ccLLkDzL.s:23647  .debug_str:0000000000015004 .LASF2152
C:\Users\SOLDER~1\AppData\Local\Temp\ccLLkDzL.s:27949  .debug_str:0000000000026870 .LASF2153
C:\Users\SOLDER~1\AppData\Local\Temp\ccLLkDzL.s:20939  .debug_str:0000000000009df1 .LASF2154
C:\Users\SOLDER~1\AppData\Local\Temp\ccLLkDzL.s:20009  .debug_str:00000000000060fc .LASF2155
C:\Users\SOLDER~1\AppData\Local\Temp\ccLLkDzL.s:27571  .debug_str:0000000000024eff .LASF2156
C:\Users\SOLDER~1\AppData\Local\Temp\ccLLkDzL.s:25543  .debug_str:000000000001cab4 .LASF2157
C:\Users\SOLDER~1\AppData\Local\Temp\ccLLkDzL.s:27015  .debug_str:0000000000022a88 .LASF2158
C:\Users\SOLDER~1\AppData\Local\Temp\ccLLkDzL.s:22435  .debug_str:000000000001004d .LASF2159
C:\Users\SOLDER~1\AppData\Local\Temp\ccLLkDzL.s:20373  .debug_str:0000000000007891 .LASF2160
C:\Users\SOLDER~1\AppData\Local\Temp\ccLLkDzL.s:29673  .debug_str:000000000002d8e5 .LASF2161
C:\Users\SOLDER~1\AppData\Local\Temp\ccLLkDzL.s:19207  .debug_str:0000000000002d7d .LASF2162
C:\Users\SOLDER~1\AppData\Local\Temp\ccLLkDzL.s:21153  .debug_str:000000000000ac04 .LASF2163
C:\Users\SOLDER~1\AppData\Local\Temp\ccLLkDzL.s:26089  .debug_str:000000000001ee3c .LASF2164
C:\Users\SOLDER~1\AppData\Local\Temp\ccLLkDzL.s:18571  .debug_str:00000000000003a3 .LASF2165
C:\Users\SOLDER~1\AppData\Local\Temp\ccLLkDzL.s:20473  .debug_str:0000000000007f60 .LASF2166
C:\Users\SOLDER~1\AppData\Local\Temp\ccLLkDzL.s:25853  .debug_str:000000000001ded6 .LASF2167
C:\Users\SOLDER~1\AppData\Local\Temp\ccLLkDzL.s:23455  .debug_str:0000000000014360 .LASF2168
C:\Users\SOLDER~1\AppData\Local\Temp\ccLLkDzL.s:24233  .debug_str:00000000000175af .LASF2169
C:\Users\SOLDER~1\AppData\Local\Temp\ccLLkDzL.s:19689  .debug_str:0000000000004c64 .LASF2170
C:\Users\SOLDER~1\AppData\Local\Temp\ccLLkDzL.s:27995  .debug_str:0000000000026b77 .LASF2171
C:\Users\SOLDER~1\AppData\Local\Temp\ccLLkDzL.s:27081  .debug_str:0000000000022eb7 .LASF2172
C:\Users\SOLDER~1\AppData\Local\Temp\ccLLkDzL.s:22075  .debug_str:000000000000e8f6 .LASF2173
C:\Users\SOLDER~1\AppData\Local\Temp\ccLLkDzL.s:23729  .debug_str:0000000000015573 .LASF2174
C:\Users\SOLDER~1\AppData\Local\Temp\ccLLkDzL.s:25115  .debug_str:000000000001aebd .LASF2175
C:\Users\SOLDER~1\AppData\Local\Temp\ccLLkDzL.s:24371  .debug_str:0000000000017ece .LASF2176
C:\Users\SOLDER~1\AppData\Local\Temp\ccLLkDzL.s:23727  .debug_str:000000000001555b .LASF2177
C:\Users\SOLDER~1\AppData\Local\Temp\ccLLkDzL.s:25391  .debug_str:000000000001c05e .LASF2178
C:\Users\SOLDER~1\AppData\Local\Temp\ccLLkDzL.s:22421  .debug_str:000000000000ff91 .LASF2179
C:\Users\SOLDER~1\AppData\Local\Temp\ccLLkDzL.s:24489  .debug_str:0000000000018635 .LASF2180
C:\Users\SOLDER~1\AppData\Local\Temp\ccLLkDzL.s:20851  .debug_str:000000000000983b .LASF2181
C:\Users\SOLDER~1\AppData\Local\Temp\ccLLkDzL.s:22667  .debug_str:0000000000010f13 .LASF2182
GAS LISTING C:\Users\SOLDER~1\AppData\Local\Temp\ccLLkDzL.s 			page 52


C:\Users\SOLDER~1\AppData\Local\Temp\ccLLkDzL.s:19083  .debug_str:00000000000025ac .LASF2183
C:\Users\SOLDER~1\AppData\Local\Temp\ccLLkDzL.s:27865  .debug_str:00000000000262ea .LASF2184
C:\Users\SOLDER~1\AppData\Local\Temp\ccLLkDzL.s:23357  .debug_str:0000000000013cbf .LASF2185
C:\Users\SOLDER~1\AppData\Local\Temp\ccLLkDzL.s:21477  .debug_str:000000000000c10f .LASF2186
C:\Users\SOLDER~1\AppData\Local\Temp\ccLLkDzL.s:20797  .debug_str:00000000000094ec .LASF2187
C:\Users\SOLDER~1\AppData\Local\Temp\ccLLkDzL.s:26579  .debug_str:0000000000020e40 .LASF2188
C:\Users\SOLDER~1\AppData\Local\Temp\ccLLkDzL.s:26353  .debug_str:000000000001ff8f .LASF2189
C:\Users\SOLDER~1\AppData\Local\Temp\ccLLkDzL.s:23293  .debug_str:0000000000013800 .LASF2190
C:\Users\SOLDER~1\AppData\Local\Temp\ccLLkDzL.s:22089  .debug_str:000000000000e9ce .LASF2191
C:\Users\SOLDER~1\AppData\Local\Temp\ccLLkDzL.s:23239  .debug_str:0000000000013438 .LASF2192
C:\Users\SOLDER~1\AppData\Local\Temp\ccLLkDzL.s:27633  .debug_str:00000000000252ec .LASF2193
C:\Users\SOLDER~1\AppData\Local\Temp\ccLLkDzL.s:28943  .debug_str:000000000002a950 .LASF2194
C:\Users\SOLDER~1\AppData\Local\Temp\ccLLkDzL.s:26291  .debug_str:000000000001fba9 .LASF2195
C:\Users\SOLDER~1\AppData\Local\Temp\ccLLkDzL.s:25141  .debug_str:000000000001b04a .LASF2196
C:\Users\SOLDER~1\AppData\Local\Temp\ccLLkDzL.s:22011  .debug_str:000000000000e4a5 .LASF2197
C:\Users\SOLDER~1\AppData\Local\Temp\ccLLkDzL.s:25489  .debug_str:000000000001c701 .LASF2198
C:\Users\SOLDER~1\AppData\Local\Temp\ccLLkDzL.s:27585  .debug_str:0000000000024fe2 .LASF2199
C:\Users\SOLDER~1\AppData\Local\Temp\ccLLkDzL.s:21549  .debug_str:000000000000c623 .LASF2200
C:\Users\SOLDER~1\AppData\Local\Temp\ccLLkDzL.s:19321  .debug_str:00000000000034fe .LASF2201
C:\Users\SOLDER~1\AppData\Local\Temp\ccLLkDzL.s:19703  .debug_str:0000000000004d36 .LASF2202
C:\Users\SOLDER~1\AppData\Local\Temp\ccLLkDzL.s:28533  .debug_str:0000000000028e5c .LASF2203
C:\Users\SOLDER~1\AppData\Local\Temp\ccLLkDzL.s:29625  .debug_str:000000000002d5d4 .LASF2204
C:\Users\SOLDER~1\AppData\Local\Temp\ccLLkDzL.s:23833  .debug_str:0000000000015c10 .LASF2205
C:\Users\SOLDER~1\AppData\Local\Temp\ccLLkDzL.s:19067  .debug_str:00000000000024a8 .LASF2206
C:\Users\SOLDER~1\AppData\Local\Temp\ccLLkDzL.s:19027  .debug_str:0000000000002201 .LASF2207
C:\Users\SOLDER~1\AppData\Local\Temp\ccLLkDzL.s:25977  .debug_str:000000000001e6fe .LASF2208
C:\Users\SOLDER~1\AppData\Local\Temp\ccLLkDzL.s:25093  .debug_str:000000000001ad81 .LASF2209
C:\Users\SOLDER~1\AppData\Local\Temp\ccLLkDzL.s:22571  .debug_str:000000000001090a .LASF2210
C:\Users\SOLDER~1\AppData\Local\Temp\ccLLkDzL.s:22817  .debug_str:00000000000118bf .LASF2211
C:\Users\SOLDER~1\AppData\Local\Temp\ccLLkDzL.s:24151  .debug_str:000000000001702b .LASF2212
C:\Users\SOLDER~1\AppData\Local\Temp\ccLLkDzL.s:29267  .debug_str:000000000002bea4 .LASF2213
C:\Users\SOLDER~1\AppData\Local\Temp\ccLLkDzL.s:26709  .debug_str:00000000000216c1 .LASF2214
C:\Users\SOLDER~1\AppData\Local\Temp\ccLLkDzL.s:24817  .debug_str:0000000000019b89 .LASF2215
C:\Users\SOLDER~1\AppData\Local\Temp\ccLLkDzL.s:24029  .debug_str:0000000000016870 .LASF2216
C:\Users\SOLDER~1\AppData\Local\Temp\ccLLkDzL.s:19283  .debug_str:000000000000327e .LASF2217
C:\Users\SOLDER~1\AppData\Local\Temp\ccLLkDzL.s:23959  .debug_str:0000000000016424 .LASF2218
C:\Users\SOLDER~1\AppData\Local\Temp\ccLLkDzL.s:28489  .debug_str:0000000000028baf .LASF2219
C:\Users\SOLDER~1\AppData\Local\Temp\ccLLkDzL.s:21123  .debug_str:000000000000aa44 .LASF2220
C:\Users\SOLDER~1\AppData\Local\Temp\ccLLkDzL.s:26265  .debug_str:000000000001fa11 .LASF2221
C:\Users\SOLDER~1\AppData\Local\Temp\ccLLkDzL.s:28129  .debug_str:0000000000027454 .LASF2222
C:\Users\SOLDER~1\AppData\Local\Temp\ccLLkDzL.s:20095  .debug_str:00000000000066c2 .LASF2223
C:\Users\SOLDER~1\AppData\Local\Temp\ccLLkDzL.s:20823  .debug_str:0000000000009668 .LASF2224
C:\Users\SOLDER~1\AppData\Local\Temp\ccLLkDzL.s:22975  .debug_str:0000000000012296 .LASF2225
C:\Users\SOLDER~1\AppData\Local\Temp\ccLLkDzL.s:23401  .debug_str:0000000000013f8e .LASF2226
C:\Users\SOLDER~1\AppData\Local\Temp\ccLLkDzL.s:25513  .debug_str:000000000001c8a1 .LASF2227
C:\Users\SOLDER~1\AppData\Local\Temp\ccLLkDzL.s:29415  .debug_str:000000000002c81c .LASF2228
C:\Users\SOLDER~1\AppData\Local\Temp\ccLLkDzL.s:20557  .debug_str:00000000000084e9 .LASF2229
C:\Users\SOLDER~1\AppData\Local\Temp\ccLLkDzL.s:26591  .debug_str:0000000000020f1d .LASF2230
C:\Users\SOLDER~1\AppData\Local\Temp\ccLLkDzL.s:27471  .debug_str:0000000000024868 .LASF2231
C:\Users\SOLDER~1\AppData\Local\Temp\ccLLkDzL.s:23447  .debug_str:00000000000142c5 .LASF2232
C:\Users\SOLDER~1\AppData\Local\Temp\ccLLkDzL.s:20161  .debug_str:0000000000006b04 .LASF2233
C:\Users\SOLDER~1\AppData\Local\Temp\ccLLkDzL.s:22883  .debug_str:0000000000011cd1 .LASF2234
C:\Users\SOLDER~1\AppData\Local\Temp\ccLLkDzL.s:19785  .debug_str:000000000000522f .LASF2235
C:\Users\SOLDER~1\AppData\Local\Temp\ccLLkDzL.s:29471  .debug_str:000000000002cbb0 .LASF2236
C:\Users\SOLDER~1\AppData\Local\Temp\ccLLkDzL.s:26317  .debug_str:000000000001fd39 .LASF2237
C:\Users\SOLDER~1\AppData\Local\Temp\ccLLkDzL.s:28893  .debug_str:000000000002a632 .LASF2238
C:\Users\SOLDER~1\AppData\Local\Temp\ccLLkDzL.s:21773  .debug_str:000000000000d4fd .LASF2239
GAS LISTING C:\Users\SOLDER~1\AppData\Local\Temp\ccLLkDzL.s 			page 53


C:\Users\SOLDER~1\AppData\Local\Temp\ccLLkDzL.s:23205  .debug_str:00000000000131e1 .LASF2240
C:\Users\SOLDER~1\AppData\Local\Temp\ccLLkDzL.s:18989  .debug_str:0000000000001f83 .LASF2241
C:\Users\SOLDER~1\AppData\Local\Temp\ccLLkDzL.s:27969  .debug_str:00000000000269db .LASF2242
C:\Users\SOLDER~1\AppData\Local\Temp\ccLLkDzL.s:27913  .debug_str:0000000000026602 .LASF2243
C:\Users\SOLDER~1\AppData\Local\Temp\ccLLkDzL.s:22359  .debug_str:000000000000fb7f .LASF2244
C:\Users\SOLDER~1\AppData\Local\Temp\ccLLkDzL.s:18597  .debug_str:0000000000000552 .LASF2245
C:\Users\SOLDER~1\AppData\Local\Temp\ccLLkDzL.s:18549  .debug_str:000000000000023c .LASF2246
C:\Users\SOLDER~1\AppData\Local\Temp\ccLLkDzL.s:24275  .debug_str:0000000000017850 .LASF2247
C:\Users\SOLDER~1\AppData\Local\Temp\ccLLkDzL.s:20445  .debug_str:0000000000007d7e .LASF2248
C:\Users\SOLDER~1\AppData\Local\Temp\ccLLkDzL.s:23473  .debug_str:000000000001449b .LASF2249
C:\Users\SOLDER~1\AppData\Local\Temp\ccLLkDzL.s:21707  .debug_str:000000000000d0a5 .LASF2250
C:\Users\SOLDER~1\AppData\Local\Temp\ccLLkDzL.s:21189  .debug_str:000000000000ae86 .LASF2251
C:\Users\SOLDER~1\AppData\Local\Temp\ccLLkDzL.s:29599  .debug_str:000000000002d427 .LASF2252
C:\Users\SOLDER~1\AppData\Local\Temp\ccLLkDzL.s:22869  .debug_str:0000000000011c12 .LASF2253
C:\Users\SOLDER~1\AppData\Local\Temp\ccLLkDzL.s:24615  .debug_str:0000000000018ebe .LASF2254
C:\Users\SOLDER~1\AppData\Local\Temp\ccLLkDzL.s:24155  .debug_str:000000000001706e .LASF2255
C:\Users\SOLDER~1\AppData\Local\Temp\ccLLkDzL.s:26603  .debug_str:0000000000021006 .LASF2256
C:\Users\SOLDER~1\AppData\Local\Temp\ccLLkDzL.s:28665  .debug_str:0000000000029725 .LASF2257
C:\Users\SOLDER~1\AppData\Local\Temp\ccLLkDzL.s:21611  .debug_str:000000000000ca59 .LASF2258
C:\Users\SOLDER~1\AppData\Local\Temp\ccLLkDzL.s:19165  .debug_str:0000000000002ae9 .LASF2259
C:\Users\SOLDER~1\AppData\Local\Temp\ccLLkDzL.s:27167  .debug_str:000000000002347d .LASF2260
C:\Users\SOLDER~1\AppData\Local\Temp\ccLLkDzL.s:24733  .debug_str:0000000000019637 .LASF2261
C:\Users\SOLDER~1\AppData\Local\Temp\ccLLkDzL.s:20521  .debug_str:000000000000829b .LASF2262
C:\Users\SOLDER~1\AppData\Local\Temp\ccLLkDzL.s:19745  .debug_str:0000000000004fac .LASF2263
C:\Users\SOLDER~1\AppData\Local\Temp\ccLLkDzL.s:26269  .debug_str:000000000001fa48 .LASF2264
C:\Users\SOLDER~1\AppData\Local\Temp\ccLLkDzL.s:22689  .debug_str:000000000001108e .LASF2265
C:\Users\SOLDER~1\AppData\Local\Temp\ccLLkDzL.s:22235  .debug_str:000000000000f2eb .LASF2266
C:\Users\SOLDER~1\AppData\Local\Temp\ccLLkDzL.s:24689  .debug_str:000000000001939a .LASF2267
C:\Users\SOLDER~1\AppData\Local\Temp\ccLLkDzL.s:22033  .debug_str:000000000000e613 .LASF2268
C:\Users\SOLDER~1\AppData\Local\Temp\ccLLkDzL.s:18769  .debug_str:000000000000114e .LASF2269
C:\Users\SOLDER~1\AppData\Local\Temp\ccLLkDzL.s:28149  .debug_str:00000000000275a7 .LASF2270
C:\Users\SOLDER~1\AppData\Local\Temp\ccLLkDzL.s:28891  .debug_str:000000000002a61e .LASF2271
C:\Users\SOLDER~1\AppData\Local\Temp\ccLLkDzL.s:29083  .debug_str:000000000002b28b .LASF2272
C:\Users\SOLDER~1\AppData\Local\Temp\ccLLkDzL.s:28171  .debug_str:0000000000027710 .LASF2273
C:\Users\SOLDER~1\AppData\Local\Temp\ccLLkDzL.s:18637  .debug_str:000000000000087c .LASF2274
C:\Users\SOLDER~1\AppData\Local\Temp\ccLLkDzL.s:18717  .debug_str:0000000000000e24 .LASF2275
C:\Users\SOLDER~1\AppData\Local\Temp\ccLLkDzL.s:20879  .debug_str:0000000000009a0f .LASF2276
C:\Users\SOLDER~1\AppData\Local\Temp\ccLLkDzL.s:26081  .debug_str:000000000001edcb .LASF2277
C:\Users\SOLDER~1\AppData\Local\Temp\ccLLkDzL.s:20415  .debug_str:0000000000007b7a .LASF2278
C:\Users\SOLDER~1\AppData\Local\Temp\ccLLkDzL.s:29933  .debug_str:000000000002e9d5 .LASF2279
C:\Users\SOLDER~1\AppData\Local\Temp\ccLLkDzL.s:22969  .debug_str:0000000000012248 .LASF2280
C:\Users\SOLDER~1\AppData\Local\Temp\ccLLkDzL.s:28625  .debug_str:00000000000294af .LASF2281
C:\Users\SOLDER~1\AppData\Local\Temp\ccLLkDzL.s:29539  .debug_str:000000000002d07a .LASF2282
C:\Users\SOLDER~1\AppData\Local\Temp\ccLLkDzL.s:20355  .debug_str:000000000000778f .LASF2283
C:\Users\SOLDER~1\AppData\Local\Temp\ccLLkDzL.s:19123  .debug_str:000000000000285e .LASF2284
C:\Users\SOLDER~1\AppData\Local\Temp\ccLLkDzL.s:26441  .debug_str:0000000000020549 .LASF2285
C:\Users\SOLDER~1\AppData\Local\Temp\ccLLkDzL.s:20315  .debug_str:0000000000007530 .LASF2286
C:\Users\SOLDER~1\AppData\Local\Temp\ccLLkDzL.s:24239  .debug_str:000000000001761c .LASF2287
C:\Users\SOLDER~1\AppData\Local\Temp\ccLLkDzL.s:22919  .debug_str:0000000000011f17 .LASF2288
C:\Users\SOLDER~1\AppData\Local\Temp\ccLLkDzL.s:20439  .debug_str:0000000000007d2b .LASF2289
C:\Users\SOLDER~1\AppData\Local\Temp\ccLLkDzL.s:25685  .debug_str:000000000001d433 .LASF2290
C:\Users\SOLDER~1\AppData\Local\Temp\ccLLkDzL.s:26187  .debug_str:000000000001f51d .LASF2291
C:\Users\SOLDER~1\AppData\Local\Temp\ccLLkDzL.s:23339  .debug_str:0000000000013b64 .LASF2292
C:\Users\SOLDER~1\AppData\Local\Temp\ccLLkDzL.s:19525  .debug_str:00000000000041fb .LASF2293
C:\Users\SOLDER~1\AppData\Local\Temp\ccLLkDzL.s:23585  .debug_str:0000000000014c1e .LASF2294
C:\Users\SOLDER~1\AppData\Local\Temp\ccLLkDzL.s:29901  .debug_str:000000000002e7cc .LASF2295
C:\Users\SOLDER~1\AppData\Local\Temp\ccLLkDzL.s:20369  .debug_str:0000000000007856 .LASF2296
GAS LISTING C:\Users\SOLDER~1\AppData\Local\Temp\ccLLkDzL.s 			page 54


C:\Users\SOLDER~1\AppData\Local\Temp\ccLLkDzL.s:28853  .debug_str:000000000002a3a9 .LASF2297
C:\Users\SOLDER~1\AppData\Local\Temp\ccLLkDzL.s:27077  .debug_str:0000000000022e76 .LASF2298
C:\Users\SOLDER~1\AppData\Local\Temp\ccLLkDzL.s:23209  .debug_str:0000000000013221 .LASF2299
C:\Users\SOLDER~1\AppData\Local\Temp\ccLLkDzL.s:26383  .debug_str:000000000002016c .LASF2300
C:\Users\SOLDER~1\AppData\Local\Temp\ccLLkDzL.s:29179  .debug_str:000000000002b8c8 .LASF2301
C:\Users\SOLDER~1\AppData\Local\Temp\ccLLkDzL.s:22709  .debug_str:00000000000111b7 .LASF2302
C:\Users\SOLDER~1\AppData\Local\Temp\ccLLkDzL.s:26863  .debug_str:0000000000022076 .LASF2303
C:\Users\SOLDER~1\AppData\Local\Temp\ccLLkDzL.s:24217  .debug_str:0000000000017496 .LASF2304
C:\Users\SOLDER~1\AppData\Local\Temp\ccLLkDzL.s:23133  .debug_str:0000000000012d31 .LASF2305
C:\Users\SOLDER~1\AppData\Local\Temp\ccLLkDzL.s:25561  .debug_str:000000000001cc09 .LASF2306
C:\Users\SOLDER~1\AppData\Local\Temp\ccLLkDzL.s:28895  .debug_str:000000000002a652 .LASF2307
C:\Users\SOLDER~1\AppData\Local\Temp\ccLLkDzL.s:22749  .debug_str:000000000001147a .LASF2308
C:\Users\SOLDER~1\AppData\Local\Temp\ccLLkDzL.s:23461  .debug_str:00000000000143d7 .LASF2309
C:\Users\SOLDER~1\AppData\Local\Temp\ccLLkDzL.s:22109  .debug_str:000000000000eae5 .LASF2310
C:\Users\SOLDER~1\AppData\Local\Temp\ccLLkDzL.s:21173  .debug_str:000000000000ad81 .LASF2311
C:\Users\SOLDER~1\AppData\Local\Temp\ccLLkDzL.s:28773  .debug_str:0000000000029e3b .LASF2312
C:\Users\SOLDER~1\AppData\Local\Temp\ccLLkDzL.s:28915  .debug_str:000000000002a77c .LASF2313
C:\Users\SOLDER~1\AppData\Local\Temp\ccLLkDzL.s:21495  .debug_str:000000000000c25d .LASF2314
C:\Users\SOLDER~1\AppData\Local\Temp\ccLLkDzL.s:23169  .debug_str:0000000000012f7f .LASF2315
C:\Users\SOLDER~1\AppData\Local\Temp\ccLLkDzL.s:22873  .debug_str:0000000000011c46 .LASF2316
C:\Users\SOLDER~1\AppData\Local\Temp\ccLLkDzL.s:20389  .debug_str:00000000000079c2 .LASF2317
C:\Users\SOLDER~1\AppData\Local\Temp\ccLLkDzL.s:22683  .debug_str:000000000001101a .LASF2318
C:\Users\SOLDER~1\AppData\Local\Temp\ccLLkDzL.s:29613  .debug_str:000000000002d50e .LASF2319
C:\Users\SOLDER~1\AppData\Local\Temp\ccLLkDzL.s:23805  .debug_str:0000000000015a57 .LASF2320
C:\Users\SOLDER~1\AppData\Local\Temp\ccLLkDzL.s:26877  .debug_str:0000000000022133 .LASF2321
C:\Users\SOLDER~1\AppData\Local\Temp\ccLLkDzL.s:24253  .debug_str:00000000000176c7 .LASF2322
C:\Users\SOLDER~1\AppData\Local\Temp\ccLLkDzL.s:27255  .debug_str:0000000000023a01 .LASF2323
C:\Users\SOLDER~1\AppData\Local\Temp\ccLLkDzL.s:26719  .debug_str:000000000002176b .LASF2324
C:\Users\SOLDER~1\AppData\Local\Temp\ccLLkDzL.s:25661  .debug_str:000000000001d2bc .LASF2325
C:\Users\SOLDER~1\AppData\Local\Temp\ccLLkDzL.s:20325  .debug_str:00000000000075c3 .LASF2326
C:\Users\SOLDER~1\AppData\Local\Temp\ccLLkDzL.s:25367  .debug_str:000000000001bea2 .LASF2327
C:\Users\SOLDER~1\AppData\Local\Temp\ccLLkDzL.s:21103  .debug_str:000000000000a8f1 .LASF2328
C:\Users\SOLDER~1\AppData\Local\Temp\ccLLkDzL.s:21007  .debug_str:000000000000a279 .LASF2329
C:\Users\SOLDER~1\AppData\Local\Temp\ccLLkDzL.s:19825  .debug_str:0000000000005475 .LASF2330
C:\Users\SOLDER~1\AppData\Local\Temp\ccLLkDzL.s:18869  .debug_str:00000000000017c9 .LASF2331
C:\Users\SOLDER~1\AppData\Local\Temp\ccLLkDzL.s:29103  .debug_str:000000000002b3c3 .LASF2332
C:\Users\SOLDER~1\AppData\Local\Temp\ccLLkDzL.s:19775  .debug_str:0000000000005189 .LASF2333
C:\Users\SOLDER~1\AppData\Local\Temp\ccLLkDzL.s:28403  .debug_str:0000000000028632 .LASF2334
C:\Users\SOLDER~1\AppData\Local\Temp\ccLLkDzL.s:21387  .debug_str:000000000000bb53 .LASF2335
C:\Users\SOLDER~1\AppData\Local\Temp\ccLLkDzL.s:26147  .debug_str:000000000001f245 .LASF2336
C:\Users\SOLDER~1\AppData\Local\Temp\ccLLkDzL.s:21845  .debug_str:000000000000d980 .LASF2337
C:\Users\SOLDER~1\AppData\Local\Temp\ccLLkDzL.s:29597  .debug_str:000000000002d404 .LASF2338
C:\Users\SOLDER~1\AppData\Local\Temp\ccLLkDzL.s:21621  .debug_str:000000000000cb11 .LASF2339
C:\Users\SOLDER~1\AppData\Local\Temp\ccLLkDzL.s:26349  .debug_str:000000000001ff43 .LASF2340
C:\Users\SOLDER~1\AppData\Local\Temp\ccLLkDzL.s:26225  .debug_str:000000000001f777 .LASF2341
C:\Users\SOLDER~1\AppData\Local\Temp\ccLLkDzL.s:29193  .debug_str:000000000002b993 .LASF2342
C:\Users\SOLDER~1\AppData\Local\Temp\ccLLkDzL.s:21485  .debug_str:000000000000c1a5 .LASF2343
C:\Users\SOLDER~1\AppData\Local\Temp\ccLLkDzL.s:27989  .debug_str:0000000000026b16 .LASF2344
C:\Users\SOLDER~1\AppData\Local\Temp\ccLLkDzL.s:22607  .debug_str:0000000000010b32 .LASF2345
C:\Users\SOLDER~1\AppData\Local\Temp\ccLLkDzL.s:21993  .debug_str:000000000000e395 .LASF2346
C:\Users\SOLDER~1\AppData\Local\Temp\ccLLkDzL.s:28299  .debug_str:0000000000027f73 .LASF2347
C:\Users\SOLDER~1\AppData\Local\Temp\ccLLkDzL.s:26521  .debug_str:0000000000020a7c .LASF2348
C:\Users\SOLDER~1\AppData\Local\Temp\ccLLkDzL.s:20457  .debug_str:0000000000007e54 .LASF2349
C:\Users\SOLDER~1\AppData\Local\Temp\ccLLkDzL.s:25341  .debug_str:000000000001bd02 .LASF2350
C:\Users\SOLDER~1\AppData\Local\Temp\ccLLkDzL.s:28491  .debug_str:0000000000028bc3 .LASF2351
C:\Users\SOLDER~1\AppData\Local\Temp\ccLLkDzL.s:27011  .debug_str:0000000000022a46 .LASF2352
C:\Users\SOLDER~1\AppData\Local\Temp\ccLLkDzL.s:21081  .debug_str:000000000000a77b .LASF2353
GAS LISTING C:\Users\SOLDER~1\AppData\Local\Temp\ccLLkDzL.s 			page 55


C:\Users\SOLDER~1\AppData\Local\Temp\ccLLkDzL.s:29507  .debug_str:000000000002ce1c .LASF2354
C:\Users\SOLDER~1\AppData\Local\Temp\ccLLkDzL.s:21851  .debug_str:000000000000d9d3 .LASF2355
C:\Users\SOLDER~1\AppData\Local\Temp\ccLLkDzL.s:24553  .debug_str:0000000000018a8a .LASF2356
C:\Users\SOLDER~1\AppData\Local\Temp\ccLLkDzL.s:21449  .debug_str:000000000000bf25 .LASF2357
C:\Users\SOLDER~1\AppData\Local\Temp\ccLLkDzL.s:25319  .debug_str:000000000001bb72 .LASF2358
C:\Users\SOLDER~1\AppData\Local\Temp\ccLLkDzL.s:22315  .debug_str:000000000000f864 .LASF2359
C:\Users\SOLDER~1\AppData\Local\Temp\ccLLkDzL.s:25721  .debug_str:000000000001d662 .LASF2360
C:\Users\SOLDER~1\AppData\Local\Temp\ccLLkDzL.s:26417  .debug_str:00000000000203bb .LASF2361
C:\Users\SOLDER~1\AppData\Local\Temp\ccLLkDzL.s:21889  .debug_str:000000000000dc5c .LASF2362
C:\Users\SOLDER~1\AppData\Local\Temp\ccLLkDzL.s:23139  .debug_str:0000000000012d8a .LASF2363
C:\Users\SOLDER~1\AppData\Local\Temp\ccLLkDzL.s:21213  .debug_str:000000000000aff4 .LASF2364
C:\Users\SOLDER~1\AppData\Local\Temp\ccLLkDzL.s:29067  .debug_str:000000000002b1a3 .LASF2365
C:\Users\SOLDER~1\AppData\Local\Temp\ccLLkDzL.s:26339  .debug_str:000000000001fea6 .LASF2366
C:\Users\SOLDER~1\AppData\Local\Temp\ccLLkDzL.s:25029  .debug_str:000000000001a8fe .LASF2367
C:\Users\SOLDER~1\AppData\Local\Temp\ccLLkDzL.s:26433  .debug_str:00000000000204b9 .LASF2368
C:\Users\SOLDER~1\AppData\Local\Temp\ccLLkDzL.s:24527  .debug_str:00000000000188d0 .LASF2369
C:\Users\SOLDER~1\AppData\Local\Temp\ccLLkDzL.s:19119  .debug_str:00000000000027e5 .LASF2370
C:\Users\SOLDER~1\AppData\Local\Temp\ccLLkDzL.s:19567  .debug_str:000000000000448c .LASF2371
C:\Users\SOLDER~1\AppData\Local\Temp\ccLLkDzL.s:25953  .debug_str:000000000001e548 .LASF2372
C:\Users\SOLDER~1\AppData\Local\Temp\ccLLkDzL.s:19551  .debug_str:0000000000004396 .LASF2373
C:\Users\SOLDER~1\AppData\Local\Temp\ccLLkDzL.s:19393  .debug_str:000000000000398a .LASF2374
C:\Users\SOLDER~1\AppData\Local\Temp\ccLLkDzL.s:20011  .debug_str:0000000000006122 .LASF2375
C:\Users\SOLDER~1\AppData\Local\Temp\ccLLkDzL.s:24855  .debug_str:0000000000019dc5 .LASF2376
C:\Users\SOLDER~1\AppData\Local\Temp\ccLLkDzL.s:21025  .debug_str:000000000000a3b3 .LASF2377
C:\Users\SOLDER~1\AppData\Local\Temp\ccLLkDzL.s:19271  .debug_str:00000000000031b7 .LASF2378
C:\Users\SOLDER~1\AppData\Local\Temp\ccLLkDzL.s:28791  .debug_str:0000000000029f6d .LASF2379
C:\Users\SOLDER~1\AppData\Local\Temp\ccLLkDzL.s:28199  .debug_str:00000000000278a5 .LASF2380
C:\Users\SOLDER~1\AppData\Local\Temp\ccLLkDzL.s:18627  .debug_str:00000000000007d5 .LASF2381
C:\Users\SOLDER~1\AppData\Local\Temp\ccLLkDzL.s:29893  .debug_str:000000000002e73b .LASF2382
C:\Users\SOLDER~1\AppData\Local\Temp\ccLLkDzL.s:25355  .debug_str:000000000001bdd9 .LASF2383
C:\Users\SOLDER~1\AppData\Local\Temp\ccLLkDzL.s:21499  .debug_str:000000000000c2b1 .LASF2384
C:\Users\SOLDER~1\AppData\Local\Temp\ccLLkDzL.s:29455  .debug_str:000000000002caa7 .LASF2385
C:\Users\SOLDER~1\AppData\Local\Temp\ccLLkDzL.s:28831  .debug_str:000000000002a23f .LASF2386
C:\Users\SOLDER~1\AppData\Local\Temp\ccLLkDzL.s:29157  .debug_str:000000000002b753 .LASF2387
C:\Users\SOLDER~1\AppData\Local\Temp\ccLLkDzL.s:29635  .debug_str:000000000002d693 .LASF2388
C:\Users\SOLDER~1\AppData\Local\Temp\ccLLkDzL.s:23615  .debug_str:0000000000014df8 .LASF2389
C:\Users\SOLDER~1\AppData\Local\Temp\ccLLkDzL.s:20155  .debug_str:0000000000006aa6 .LASF2390
C:\Users\SOLDER~1\AppData\Local\Temp\ccLLkDzL.s:22633  .debug_str:0000000000010cdf .LASF2391
C:\Users\SOLDER~1\AppData\Local\Temp\ccLLkDzL.s:26123  .debug_str:000000000001f0a5 .LASF2392
C:\Users\SOLDER~1\AppData\Local\Temp\ccLLkDzL.s:20119  .debug_str:000000000000687b .LASF2393
C:\Users\SOLDER~1\AppData\Local\Temp\ccLLkDzL.s:25423  .debug_str:000000000001c28f .LASF2394
C:\Users\SOLDER~1\AppData\Local\Temp\ccLLkDzL.s:25157  .debug_str:000000000001b153 .LASF2395
C:\Users\SOLDER~1\AppData\Local\Temp\ccLLkDzL.s:19157  .debug_str:0000000000002a86 .LASF2396
C:\Users\SOLDER~1\AppData\Local\Temp\ccLLkDzL.s:19739  .debug_str:0000000000004f54 .LASF2397
C:\Users\SOLDER~1\AppData\Local\Temp\ccLLkDzL.s:23251  .debug_str:0000000000013503 .LASF2398
C:\Users\SOLDER~1\AppData\Local\Temp\ccLLkDzL.s:27345  .debug_str:0000000000023ffe .LASF2399
C:\Users\SOLDER~1\AppData\Local\Temp\ccLLkDzL.s:20611  .debug_str:0000000000008836 .LASF2400
C:\Users\SOLDER~1\AppData\Local\Temp\ccLLkDzL.s:22135  .debug_str:000000000000ec9c .LASF2401
C:\Users\SOLDER~1\AppData\Local\Temp\ccLLkDzL.s:22825  .debug_str:0000000000011930 .LASF2402
C:\Users\SOLDER~1\AppData\Local\Temp\ccLLkDzL.s:27199  .debug_str:0000000000023692 .LASF2403
C:\Users\SOLDER~1\AppData\Local\Temp\ccLLkDzL.s:22263  .debug_str:000000000000f4c7 .LASF2404
C:\Users\SOLDER~1\AppData\Local\Temp\ccLLkDzL.s:21299  .debug_str:000000000000b57e .LASF2405
C:\Users\SOLDER~1\AppData\Local\Temp\ccLLkDzL.s:27647  .debug_str:00000000000253cd .LASF2406
C:\Users\SOLDER~1\AppData\Local\Temp\ccLLkDzL.s:25259  .debug_str:000000000001b776 .LASF2407
C:\Users\SOLDER~1\AppData\Local\Temp\ccLLkDzL.s:23499  .debug_str:000000000001464b .LASF2408
C:\Users\SOLDER~1\AppData\Local\Temp\ccLLkDzL.s:25631  .debug_str:000000000001d0b4 .LASF2409
C:\Users\SOLDER~1\AppData\Local\Temp\ccLLkDzL.s:19671  .debug_str:0000000000004b3f .LASF2410
GAS LISTING C:\Users\SOLDER~1\AppData\Local\Temp\ccLLkDzL.s 			page 56


C:\Users\SOLDER~1\AppData\Local\Temp\ccLLkDzL.s:20115  .debug_str:0000000000006841 .LASF2411
C:\Users\SOLDER~1\AppData\Local\Temp\ccLLkDzL.s:21201  .debug_str:000000000000af39 .LASF2412
C:\Users\SOLDER~1\AppData\Local\Temp\ccLLkDzL.s:21525  .debug_str:000000000000c495 .LASF2413
C:\Users\SOLDER~1\AppData\Local\Temp\ccLLkDzL.s:26501  .debug_str:0000000000020934 .LASF2414
C:\Users\SOLDER~1\AppData\Local\Temp\ccLLkDzL.s:20259  .debug_str:00000000000071a7 .LASF2415
C:\Users\SOLDER~1\AppData\Local\Temp\ccLLkDzL.s:19535  .debug_str:0000000000004290 .LASF2416
C:\Users\SOLDER~1\AppData\Local\Temp\ccLLkDzL.s:25233  .debug_str:000000000001b610 .LASF2417
C:\Users\SOLDER~1\AppData\Local\Temp\ccLLkDzL.s:22351  .debug_str:000000000000fadb .LASF2418
C:\Users\SOLDER~1\AppData\Local\Temp\ccLLkDzL.s:25005  .debug_str:000000000001a791 .LASF2419
C:\Users\SOLDER~1\AppData\Local\Temp\ccLLkDzL.s:25967  .debug_str:000000000001e642 .LASF2420
C:\Users\SOLDER~1\AppData\Local\Temp\ccLLkDzL.s:18735  .debug_str:0000000000000f46 .LASF2421
C:\Users\SOLDER~1\AppData\Local\Temp\ccLLkDzL.s:18849  .debug_str:000000000000167c .LASF2422
C:\Users\SOLDER~1\AppData\Local\Temp\ccLLkDzL.s:19719  .debug_str:0000000000004e2c .LASF2423
C:\Users\SOLDER~1\AppData\Local\Temp\ccLLkDzL.s:29659  .debug_str:000000000002d80e .LASF2424
C:\Users\SOLDER~1\AppData\Local\Temp\ccLLkDzL.s:21323  .debug_str:000000000000b6ed .LASF2425
C:\Users\SOLDER~1\AppData\Local\Temp\ccLLkDzL.s:23383  .debug_str:0000000000013e81 .LASF2426
C:\Users\SOLDER~1\AppData\Local\Temp\ccLLkDzL.s:24195  .debug_str:0000000000017327 .LASF2427
C:\Users\SOLDER~1\AppData\Local\Temp\ccLLkDzL.s:20111  .debug_str:0000000000006801 .LASF2428
C:\Users\SOLDER~1\AppData\Local\Temp\ccLLkDzL.s:18851  .debug_str:000000000000169e .LASF2429
C:\Users\SOLDER~1\AppData\Local\Temp\ccLLkDzL.s:23573  .debug_str:0000000000014b51 .LASF2430
C:\Users\SOLDER~1\AppData\Local\Temp\ccLLkDzL.s:25647  .debug_str:000000000001d1d0 .LASF2431
C:\Users\SOLDER~1\AppData\Local\Temp\ccLLkDzL.s:18551  .debug_str:000000000000025d .LASF2432
C:\Users\SOLDER~1\AppData\Local\Temp\ccLLkDzL.s:18737  .debug_str:0000000000000f5e .LASF2433
C:\Users\SOLDER~1\AppData\Local\Temp\ccLLkDzL.s:25231  .debug_str:000000000001b5eb .LASF2434
C:\Users\SOLDER~1\AppData\Local\Temp\ccLLkDzL.s:29269  .debug_str:000000000002beb7 .LASF2435
C:\Users\SOLDER~1\AppData\Local\Temp\ccLLkDzL.s:19001  .debug_str:000000000000202d .LASF2436
C:\Users\SOLDER~1\AppData\Local\Temp\ccLLkDzL.s:29567  .debug_str:000000000002d243 .LASF2437
C:\Users\SOLDER~1\AppData\Local\Temp\ccLLkDzL.s:27751  .debug_str:0000000000025add .LASF2438
C:\Users\SOLDER~1\AppData\Local\Temp\ccLLkDzL.s:28899  .debug_str:000000000002a68b .LASF2439
C:\Users\SOLDER~1\AppData\Local\Temp\ccLLkDzL.s:24387  .debug_str:0000000000017fe6 .LASF2440
C:\Users\SOLDER~1\AppData\Local\Temp\ccLLkDzL.s:21695  .debug_str:000000000000cfe4 .LASF2441
C:\Users\SOLDER~1\AppData\Local\Temp\ccLLkDzL.s:24065  .debug_str:0000000000016aa2 .LASF2442
C:\Users\SOLDER~1\AppData\Local\Temp\ccLLkDzL.s:29221  .debug_str:000000000002bb67 .LASF2443
C:\Users\SOLDER~1\AppData\Local\Temp\ccLLkDzL.s:19251  .debug_str:0000000000003067 .LASF2444
C:\Users\SOLDER~1\AppData\Local\Temp\ccLLkDzL.s:21697  .debug_str:000000000000cffa .LASF2445
C:\Users\SOLDER~1\AppData\Local\Temp\ccLLkDzL.s:25749  .debug_str:000000000001d7ed .LASF2446
C:\Users\SOLDER~1\AppData\Local\Temp\ccLLkDzL.s:21397  .debug_str:000000000000bbf7 .LASF2447
C:\Users\SOLDER~1\AppData\Local\Temp\ccLLkDzL.s:26539  .debug_str:0000000000020b98 .LASF2448
C:\Users\SOLDER~1\AppData\Local\Temp\ccLLkDzL.s:26281  .debug_str:000000000001fb0d .LASF2449
C:\Users\SOLDER~1\AppData\Local\Temp\ccLLkDzL.s:23567  .debug_str:0000000000014afc .LASF2450
C:\Users\SOLDER~1\AppData\Local\Temp\ccLLkDzL.s:23923  .debug_str:00000000000161f6 .LASF2451
C:\Users\SOLDER~1\AppData\Local\Temp\ccLLkDzL.s:23143  .debug_str:0000000000012dc8 .LASF2452
C:\Users\SOLDER~1\AppData\Local\Temp\ccLLkDzL.s:27365  .debug_str:0000000000024152 .LASF2453
C:\Users\SOLDER~1\AppData\Local\Temp\ccLLkDzL.s:21783  .debug_str:000000000000d58c .LASF2454
C:\Users\SOLDER~1\AppData\Local\Temp\ccLLkDzL.s:29003  .debug_str:000000000002ad18 .LASF2455
C:\Users\SOLDER~1\AppData\Local\Temp\ccLLkDzL.s:27551  .debug_str:0000000000024d9c .LASF2456
C:\Users\SOLDER~1\AppData\Local\Temp\ccLLkDzL.s:22003  .debug_str:000000000000e443 .LASF2457
C:\Users\SOLDER~1\AppData\Local\Temp\ccLLkDzL.s:28373  .debug_str:000000000002840f .LASF2458
C:\Users\SOLDER~1\AppData\Local\Temp\ccLLkDzL.s:21701  .debug_str:000000000000d037 .LASF2459
C:\Users\SOLDER~1\AppData\Local\Temp\ccLLkDzL.s:26411  .debug_str:0000000000020353 .LASF2460
C:\Users\SOLDER~1\AppData\Local\Temp\ccLLkDzL.s:18953  .debug_str:0000000000001d3d .LASF2461
C:\Users\SOLDER~1\AppData\Local\Temp\ccLLkDzL.s:27861  .debug_str:0000000000026298 .LASF2462
C:\Users\SOLDER~1\AppData\Local\Temp\ccLLkDzL.s:21565  .debug_str:000000000000c72f .LASF2463
C:\Users\SOLDER~1\AppData\Local\Temp\ccLLkDzL.s:28077  .debug_str:00000000000270cc .LASF2464
C:\Users\SOLDER~1\AppData\Local\Temp\ccLLkDzL.s:20641  .debug_str:0000000000008a43 .LASF2465
C:\Users\SOLDER~1\AppData\Local\Temp\ccLLkDzL.s:21827  .debug_str:000000000000d874 .LASF2466
C:\Users\SOLDER~1\AppData\Local\Temp\ccLLkDzL.s:22275  .debug_str:000000000000f5a0 .LASF2467
GAS LISTING C:\Users\SOLDER~1\AppData\Local\Temp\ccLLkDzL.s 			page 57


C:\Users\SOLDER~1\AppData\Local\Temp\ccLLkDzL.s:20513  .debug_str:0000000000008201 .LASF2468
C:\Users\SOLDER~1\AppData\Local\Temp\ccLLkDzL.s:19433  .debug_str:0000000000003c24 .LASF2469
C:\Users\SOLDER~1\AppData\Local\Temp\ccLLkDzL.s:25413  .debug_str:000000000001c1f2 .LASF2470
C:\Users\SOLDER~1\AppData\Local\Temp\ccLLkDzL.s:27801  .debug_str:0000000000025e7a .LASF2471
C:\Users\SOLDER~1\AppData\Local\Temp\ccLLkDzL.s:26835  .debug_str:0000000000021ec6 .LASF2472
C:\Users\SOLDER~1\AppData\Local\Temp\ccLLkDzL.s:25301  .debug_str:000000000001ba41 .LASF2473
C:\Users\SOLDER~1\AppData\Local\Temp\ccLLkDzL.s:23475  .debug_str:00000000000144bc .LASF2474
C:\Users\SOLDER~1\AppData\Local\Temp\ccLLkDzL.s:29391  .debug_str:000000000002c6b1 .LASF2475
C:\Users\SOLDER~1\AppData\Local\Temp\ccLLkDzL.s:25801  .debug_str:000000000001db67 .LASF2476
C:\Users\SOLDER~1\AppData\Local\Temp\ccLLkDzL.s:29081  .debug_str:000000000002b273 .LASF2477
C:\Users\SOLDER~1\AppData\Local\Temp\ccLLkDzL.s:19369  .debug_str:00000000000037fb .LASF2478
C:\Users\SOLDER~1\AppData\Local\Temp\ccLLkDzL.s:29651  .debug_str:000000000002d79f .LASF2479
C:\Users\SOLDER~1\AppData\Local\Temp\ccLLkDzL.s:26289  .debug_str:000000000001fb88 .LASF2480
C:\Users\SOLDER~1\AppData\Local\Temp\ccLLkDzL.s:21777  .debug_str:000000000000d538 .LASF2481
C:\Users\SOLDER~1\AppData\Local\Temp\ccLLkDzL.s:27327  .debug_str:0000000000023ec2 .LASF2482
C:\Users\SOLDER~1\AppData\Local\Temp\ccLLkDzL.s:23507  .debug_str:00000000000146c3 .LASF2483
C:\Users\SOLDER~1\AppData\Local\Temp\ccLLkDzL.s:26647  .debug_str:00000000000212cd .LASF2484
C:\Users\SOLDER~1\AppData\Local\Temp\ccLLkDzL.s:25095  .debug_str:000000000001ad95 .LASF2485
C:\Users\SOLDER~1\AppData\Local\Temp\ccLLkDzL.s:20403  .debug_str:0000000000007aa4 .LASF2486
C:\Users\SOLDER~1\AppData\Local\Temp\ccLLkDzL.s:27827  .debug_str:0000000000026028 .LASF2487
C:\Users\SOLDER~1\AppData\Local\Temp\ccLLkDzL.s:25171  .debug_str:000000000001b22c .LASF2488
C:\Users\SOLDER~1\AppData\Local\Temp\ccLLkDzL.s:24607  .debug_str:0000000000018e3b .LASF2489
C:\Users\SOLDER~1\AppData\Local\Temp\ccLLkDzL.s:29317  .debug_str:000000000002c1fb .LASF2490
C:\Users\SOLDER~1\AppData\Local\Temp\ccLLkDzL.s:29309  .debug_str:000000000002c18e .LASF2491
C:\Users\SOLDER~1\AppData\Local\Temp\ccLLkDzL.s:24777  .debug_str:00000000000198f1 .LASF2492
C:\Users\SOLDER~1\AppData\Local\Temp\ccLLkDzL.s:29931  .debug_str:000000000002e9b0 .LASF2493
C:\Users\SOLDER~1\AppData\Local\Temp\ccLLkDzL.s:19457  .debug_str:0000000000003dab .LASF2494
C:\Users\SOLDER~1\AppData\Local\Temp\ccLLkDzL.s:25297  .debug_str:000000000001ba07 .LASF2495
C:\Users\SOLDER~1\AppData\Local\Temp\ccLLkDzL.s:24679  .debug_str:00000000000192db .LASF2496
C:\Users\SOLDER~1\AppData\Local\Temp\ccLLkDzL.s:26461  .debug_str:0000000000020690 .LASF2497
C:\Users\SOLDER~1\AppData\Local\Temp\ccLLkDzL.s:24725  .debug_str:00000000000195d0 .LASF2498
C:\Users\SOLDER~1\AppData\Local\Temp\ccLLkDzL.s:27753  .debug_str:0000000000025aff .LASF2499
C:\Users\SOLDER~1\AppData\Local\Temp\ccLLkDzL.s:28375  .debug_str:0000000000028432 .LASF2500
C:\Users\SOLDER~1\AppData\Local\Temp\ccLLkDzL.s:24821  .debug_str:0000000000019bbb .LASF2501
C:\Users\SOLDER~1\AppData\Local\Temp\ccLLkDzL.s:29333  .debug_str:000000000002c307 .LASF2502
C:\Users\SOLDER~1\AppData\Local\Temp\ccLLkDzL.s:21457  .debug_str:000000000000bfc0 .LASF2503
C:\Users\SOLDER~1\AppData\Local\Temp\ccLLkDzL.s:24365  .debug_str:0000000000017e5e .LASF2504
C:\Users\SOLDER~1\AppData\Local\Temp\ccLLkDzL.s:25549  .debug_str:000000000001cb1f .LASF2505
C:\Users\SOLDER~1\AppData\Local\Temp\ccLLkDzL.s:22791  .debug_str:0000000000011717 .LASF2506
C:\Users\SOLDER~1\AppData\Local\Temp\ccLLkDzL.s:25167  .debug_str:000000000001b1f1 .LASF2507
C:\Users\SOLDER~1\AppData\Local\Temp\ccLLkDzL.s:23589  .debug_str:0000000000014c5c .LASF2508
C:\Users\SOLDER~1\AppData\Local\Temp\ccLLkDzL.s:21001  .debug_str:000000000000a22a .LASF2509
C:\Users\SOLDER~1\AppData\Local\Temp\ccLLkDzL.s:20721  .debug_str:0000000000008fb0 .LASF2510
C:\Users\SOLDER~1\AppData\Local\Temp\ccLLkDzL.s:18663  .debug_str:0000000000000a73 .LASF2511
C:\Users\SOLDER~1\AppData\Local\Temp\ccLLkDzL.s:20073  .debug_str:000000000000652c .LASF2512
C:\Users\SOLDER~1\AppData\Local\Temp\ccLLkDzL.s:19649  .debug_str:00000000000049b9 .LASF2513
C:\Users\SOLDER~1\AppData\Local\Temp\ccLLkDzL.s:19395  .debug_str:00000000000039af .LASF2514
C:\Users\SOLDER~1\AppData\Local\Temp\ccLLkDzL.s:21257  .debug_str:000000000000b2b5 .LASF2515
C:\Users\SOLDER~1\AppData\Local\Temp\ccLLkDzL.s:24633  .debug_str:0000000000018fd1 .LASF2516
C:\Users\SOLDER~1\AppData\Local\Temp\ccLLkDzL.s:19827  .debug_str:0000000000005496 .LASF2517
C:\Users\SOLDER~1\AppData\Local\Temp\ccLLkDzL.s:22025  .debug_str:000000000000e582 .LASF2518
C:\Users\SOLDER~1\AppData\Local\Temp\ccLLkDzL.s:27509  .debug_str:0000000000024aea .LASF2519
C:\Users\SOLDER~1\AppData\Local\Temp\ccLLkDzL.s:20773  .debug_str:0000000000009332 .LASF2520
C:\Users\SOLDER~1\AppData\Local\Temp\ccLLkDzL.s:29005  .debug_str:000000000002ad30 .LASF2521
C:\Users\SOLDER~1\AppData\Local\Temp\ccLLkDzL.s:21531  .debug_str:000000000000c4e8 .LASF2522
C:\Users\SOLDER~1\AppData\Local\Temp\ccLLkDzL.s:27285  .debug_str:0000000000023bfa .LASF2523
C:\Users\SOLDER~1\AppData\Local\Temp\ccLLkDzL.s:22349  .debug_str:000000000000fab6 .LASF2524
GAS LISTING C:\Users\SOLDER~1\AppData\Local\Temp\ccLLkDzL.s 			page 58


C:\Users\SOLDER~1\AppData\Local\Temp\ccLLkDzL.s:27929  .debug_str:0000000000026726 .LASF2525
C:\Users\SOLDER~1\AppData\Local\Temp\ccLLkDzL.s:19673  .debug_str:0000000000004b64 .LASF2526
C:\Users\SOLDER~1\AppData\Local\Temp\ccLLkDzL.s:19301  .debug_str:00000000000033b9 .LASF2527
C:\Users\SOLDER~1\AppData\Local\Temp\ccLLkDzL.s:26691  .debug_str:00000000000215a5 .LASF2528
C:\Users\SOLDER~1\AppData\Local\Temp\ccLLkDzL.s:24653  .debug_str:000000000001910f .LASF2529
C:\Users\SOLDER~1\AppData\Local\Temp\ccLLkDzL.s:19751  .debug_str:0000000000004ff2 .LASF2530
C:\Users\SOLDER~1\AppData\Local\Temp\ccLLkDzL.s:28453  .debug_str:0000000000028973 .LASF2531
C:\Users\SOLDER~1\AppData\Local\Temp\ccLLkDzL.s:19699  .debug_str:0000000000004cf9 .LASF2532
C:\Users\SOLDER~1\AppData\Local\Temp\ccLLkDzL.s:29789  .debug_str:000000000002e05e .LASF2533
C:\Users\SOLDER~1\AppData\Local\Temp\ccLLkDzL.s:18909  .debug_str:0000000000001a24 .LASF2534
C:\Users\SOLDER~1\AppData\Local\Temp\ccLLkDzL.s:19557  .debug_str:00000000000043f4 .LASF2535
C:\Users\SOLDER~1\AppData\Local\Temp\ccLLkDzL.s:24827  .debug_str:0000000000019c07 .LASF2536
C:\Users\SOLDER~1\AppData\Local\Temp\ccLLkDzL.s:26393  .debug_str:0000000000020222 .LASF2537
C:\Users\SOLDER~1\AppData\Local\Temp\ccLLkDzL.s:19227  .debug_str:0000000000002efc .LASF2538
C:\Users\SOLDER~1\AppData\Local\Temp\ccLLkDzL.s:22249  .debug_str:000000000000f3f5 .LASF2539
C:\Users\SOLDER~1\AppData\Local\Temp\ccLLkDzL.s:25143  .debug_str:000000000001b06b .LASF2540
C:\Users\SOLDER~1\AppData\Local\Temp\ccLLkDzL.s:29051  .debug_str:000000000002b0a0 .LASF2541
C:\Users\SOLDER~1\AppData\Local\Temp\ccLLkDzL.s:19451  .debug_str:0000000000003d47 .LASF2542
C:\Users\SOLDER~1\AppData\Local\Temp\ccLLkDzL.s:24863  .debug_str:0000000000019e5a .LASF2543
C:\Users\SOLDER~1\AppData\Local\Temp\ccLLkDzL.s:22977  .debug_str:00000000000122aa .LASF2544
C:\Users\SOLDER~1\AppData\Local\Temp\ccLLkDzL.s:18741  .debug_str:0000000000000f98 .LASF2545
C:\Users\SOLDER~1\AppData\Local\Temp\ccLLkDzL.s:29171  .debug_str:000000000002b83f .LASF2546
C:\Users\SOLDER~1\AppData\Local\Temp\ccLLkDzL.s:20321  .debug_str:0000000000007583 .LASF2547
C:\Users\SOLDER~1\AppData\Local\Temp\ccLLkDzL.s:28361  .debug_str:000000000002835b .LASF2548
C:\Users\SOLDER~1\AppData\Local\Temp\ccLLkDzL.s:21893  .debug_str:000000000000dca2 .LASF2549
C:\Users\SOLDER~1\AppData\Local\Temp\ccLLkDzL.s:27723  .debug_str:0000000000025908 .LASF2550
C:\Users\SOLDER~1\AppData\Local\Temp\ccLLkDzL.s:23425  .debug_str:0000000000014169 .LASF2551
C:\Users\SOLDER~1\AppData\Local\Temp\ccLLkDzL.s:21203  .debug_str:000000000000af59 .LASF2552
C:\Users\SOLDER~1\AppData\Local\Temp\ccLLkDzL.s:25013  .debug_str:000000000001a7f5 .LASF2553
C:\Users\SOLDER~1\AppData\Local\Temp\ccLLkDzL.s:21073  .debug_str:000000000000a6ff .LASF2554
C:\Users\SOLDER~1\AppData\Local\Temp\ccLLkDzL.s:26489  .debug_str:000000000002086d .LASF2555
C:\Users\SOLDER~1\AppData\Local\Temp\ccLLkDzL.s:19791  .debug_str:0000000000005295 .LASF2556
C:\Users\SOLDER~1\AppData\Local\Temp\ccLLkDzL.s:24735  .debug_str:000000000001964b .LASF2557
C:\Users\SOLDER~1\AppData\Local\Temp\ccLLkDzL.s:24779  .debug_str:0000000000019914 .LASF2558
C:\Users\SOLDER~1\AppData\Local\Temp\ccLLkDzL.s:25113  .debug_str:000000000001aea6 .LASF2559
C:\Users\SOLDER~1\AppData\Local\Temp\ccLLkDzL.s:21131  .debug_str:000000000000aabd .LASF2560
C:\Users\SOLDER~1\AppData\Local\Temp\ccLLkDzL.s:26587  .debug_str:0000000000020ee2 .LASF2561
C:\Users\SOLDER~1\AppData\Local\Temp\ccLLkDzL.s:24369  .debug_str:0000000000017ea9 .LASF2562
C:\Users\SOLDER~1\AppData\Local\Temp\ccLLkDzL.s:28189  .debug_str:0000000000027814 .LASF2563
C:\Users\SOLDER~1\AppData\Local\Temp\ccLLkDzL.s:29397  .debug_str:000000000002c6f2 .LASF2564
C:\Users\SOLDER~1\AppData\Local\Temp\ccLLkDzL.s:29823  .debug_str:000000000002e26c .LASF2565
C:\Users\SOLDER~1\AppData\Local\Temp\ccLLkDzL.s:22837  .debug_str:00000000000119f9 .LASF2566
C:\Users\SOLDER~1\AppData\Local\Temp\ccLLkDzL.s:19797  .debug_str:00000000000052ee .LASF2567
C:\Users\SOLDER~1\AppData\Local\Temp\ccLLkDzL.s:27619  .debug_str:000000000002520a .LASF2568
C:\Users\SOLDER~1\AppData\Local\Temp\ccLLkDzL.s:21401  .debug_str:000000000000bc34 .LASF2569
C:\Users\SOLDER~1\AppData\Local\Temp\ccLLkDzL.s:21427  .debug_str:000000000000bdb6 .LASF2570
C:\Users\SOLDER~1\AppData\Local\Temp\ccLLkDzL.s:22999  .debug_str:0000000000012466 .LASF2571
C:\Users\SOLDER~1\AppData\Local\Temp\ccLLkDzL.s:26379  .debug_str:0000000000020123 .LASF2572
C:\Users\SOLDER~1\AppData\Local\Temp\ccLLkDzL.s:25837  .debug_str:000000000001ddf2 .LASF2573
C:\Users\SOLDER~1\AppData\Local\Temp\ccLLkDzL.s:19183  .debug_str:0000000000002be9 .LASF2574
C:\Users\SOLDER~1\AppData\Local\Temp\ccLLkDzL.s:23977  .debug_str:0000000000016523 .LASF2575
C:\Users\SOLDER~1\AppData\Local\Temp\ccLLkDzL.s:25193  .debug_str:000000000001b399 .LASF2576
C:\Users\SOLDER~1\AppData\Local\Temp\ccLLkDzL.s:22055  .debug_str:000000000000e7b2 .LASF2577
C:\Users\SOLDER~1\AppData\Local\Temp\ccLLkDzL.s:25843  .debug_str:000000000001de42 .LASF2578
C:\Users\SOLDER~1\AppData\Local\Temp\ccLLkDzL.s:20175  .debug_str:0000000000006be2 .LASF2579
C:\Users\SOLDER~1\AppData\Local\Temp\ccLLkDzL.s:21537  .debug_str:000000000000c540 .LASF2580
C:\Users\SOLDER~1\AppData\Local\Temp\ccLLkDzL.s:29799  .debug_str:000000000002e0ec .LASF2581
GAS LISTING C:\Users\SOLDER~1\AppData\Local\Temp\ccLLkDzL.s 			page 59


C:\Users\SOLDER~1\AppData\Local\Temp\ccLLkDzL.s:27567  .debug_str:0000000000024ebb .LASF2582
C:\Users\SOLDER~1\AppData\Local\Temp\ccLLkDzL.s:27859  .debug_str:000000000002627f .LASF2583
C:\Users\SOLDER~1\AppData\Local\Temp\ccLLkDzL.s:26639  .debug_str:0000000000021252 .LASF2584
C:\Users\SOLDER~1\AppData\Local\Temp\ccLLkDzL.s:25995  .debug_str:000000000001e849 .LASF2585
C:\Users\SOLDER~1\AppData\Local\Temp\ccLLkDzL.s:22181  .debug_str:000000000000ef7f .LASF2586
C:\Users\SOLDER~1\AppData\Local\Temp\ccLLkDzL.s:24133  .debug_str:0000000000016eff .LASF2587
C:\Users\SOLDER~1\AppData\Local\Temp\ccLLkDzL.s:18821  .debug_str:00000000000014b1 .LASF2588
C:\Users\SOLDER~1\AppData\Local\Temp\ccLLkDzL.s:22217  .debug_str:000000000000f1e6 .LASF2589
C:\Users\SOLDER~1\AppData\Local\Temp\ccLLkDzL.s:21995  .debug_str:000000000000e3b5 .LASF2590
C:\Users\SOLDER~1\AppData\Local\Temp\ccLLkDzL.s:24975  .debug_str:000000000001a591 .LASF2591
C:\Users\SOLDER~1\AppData\Local\Temp\ccLLkDzL.s:19731  .debug_str:0000000000004ed4 .LASF2592
C:\Users\SOLDER~1\AppData\Local\Temp\ccLLkDzL.s:26231  .debug_str:000000000001f7dc .LASF2593
C:\Users\SOLDER~1\AppData\Local\Temp\ccLLkDzL.s:25935  .debug_str:000000000001e3e8 .LASF2594
C:\Users\SOLDER~1\AppData\Local\Temp\ccLLkDzL.s:24539  .debug_str:000000000001898f .LASF2595
C:\Users\SOLDER~1\AppData\Local\Temp\ccLLkDzL.s:18927  .debug_str:0000000000001b63 .LASF2596
C:\Users\SOLDER~1\AppData\Local\Temp\ccLLkDzL.s:22879  .debug_str:0000000000011ca2 .LASF2597
C:\Users\SOLDER~1\AppData\Local\Temp\ccLLkDzL.s:29399  .debug_str:000000000002c717 .LASF2598
C:\Users\SOLDER~1\AppData\Local\Temp\ccLLkDzL.s:21245  .debug_str:000000000000b1e7 .LASF2599
C:\Users\SOLDER~1\AppData\Local\Temp\ccLLkDzL.s:25555  .debug_str:000000000001cb84 .LASF2600
C:\Users\SOLDER~1\AppData\Local\Temp\ccLLkDzL.s:19515  .debug_str:0000000000004168 .LASF2601
C:\Users\SOLDER~1\AppData\Local\Temp\ccLLkDzL.s:21735  .debug_str:000000000000d273 .LASF2602
C:\Users\SOLDER~1\AppData\Local\Temp\ccLLkDzL.s:29413  .debug_str:000000000002c801 .LASF2603
C:\Users\SOLDER~1\AppData\Local\Temp\ccLLkDzL.s:25021  .debug_str:000000000001a874 .LASF2604
C:\Users\SOLDER~1\AppData\Local\Temp\ccLLkDzL.s:24263  .debug_str:000000000001778e .LASF2605
C:\Users\SOLDER~1\AppData\Local\Temp\ccLLkDzL.s:20397  .debug_str:0000000000007a2d .LASF2606
C:\Users\SOLDER~1\AppData\Local\Temp\ccLLkDzL.s:26039  .debug_str:000000000001eb10 .LASF2607
C:\Users\SOLDER~1\AppData\Local\Temp\ccLLkDzL.s:29845  .debug_str:000000000002e3e4 .LASF2608
C:\Users\SOLDER~1\AppData\Local\Temp\ccLLkDzL.s:24441  .debug_str:0000000000018328 .LASF2609
C:\Users\SOLDER~1\AppData\Local\Temp\ccLLkDzL.s:23483  .debug_str:0000000000014559 .LASF2610
C:\Users\SOLDER~1\AppData\Local\Temp\ccLLkDzL.s:22783  .debug_str:0000000000011683 .LASF2611
C:\Users\SOLDER~1\AppData\Local\Temp\ccLLkDzL.s:28687  .debug_str:000000000002984c .LASF2612
C:\Users\SOLDER~1\AppData\Local\Temp\ccLLkDzL.s:22311  .debug_str:000000000000f829 .LASF2613
C:\Users\SOLDER~1\AppData\Local\Temp\ccLLkDzL.s:19519  .debug_str:000000000000419d .LASF2614
C:\Users\SOLDER~1\AppData\Local\Temp\ccLLkDzL.s:18601  .debug_str:000000000000059b .LASF2615
C:\Users\SOLDER~1\AppData\Local\Temp\ccLLkDzL.s:25435  .debug_str:000000000001c341 .LASF2616
C:\Users\SOLDER~1\AppData\Local\Temp\ccLLkDzL.s:28167  .debug_str:00000000000276c7 .LASF2617
C:\Users\SOLDER~1\AppData\Local\Temp\ccLLkDzL.s:20047  .debug_str:0000000000006376 .LASF2618
C:\Users\SOLDER~1\AppData\Local\Temp\ccLLkDzL.s:26277  .debug_str:000000000001fac8 .LASF2619
C:\Users\SOLDER~1\AppData\Local\Temp\ccLLkDzL.s:26333  .debug_str:000000000001fe45 .LASF2620
C:\Users\SOLDER~1\AppData\Local\Temp\ccLLkDzL.s:24465  .debug_str:00000000000184c9 .LASF2621
C:\Users\SOLDER~1\AppData\Local\Temp\ccLLkDzL.s:26287  .debug_str:000000000001fb62 .LASF2622
C:\Users\SOLDER~1\AppData\Local\Temp\ccLLkDzL.s:21665  .debug_str:000000000000cde4 .LASF2623
C:\Users\SOLDER~1\AppData\Local\Temp\ccLLkDzL.s:26983  .debug_str:000000000002285a .LASF2624
C:\Users\SOLDER~1\AppData\Local\Temp\ccLLkDzL.s:20631  .debug_str:00000000000089a7 .LASF2625
C:\Users\SOLDER~1\AppData\Local\Temp\ccLLkDzL.s:22549  .debug_str:0000000000010797 .LASF2626
C:\Users\SOLDER~1\AppData\Local\Temp\ccLLkDzL.s:18757  .debug_str:0000000000001076 .LASF2627
C:\Users\SOLDER~1\AppData\Local\Temp\ccLLkDzL.s:19159  .debug_str:0000000000002aa8 .LASF2628
C:\Users\SOLDER~1\AppData\Local\Temp\ccLLkDzL.s:28321  .debug_str:00000000000280dd .LASF2629
C:\Users\SOLDER~1\AppData\Local\Temp\ccLLkDzL.s:28815  .debug_str:000000000002a12c .LASF2630
C:\Users\SOLDER~1\AppData\Local\Temp\ccLLkDzL.s:26511  .debug_str:00000000000209ec .LASF2631
C:\Users\SOLDER~1\AppData\Local\Temp\ccLLkDzL.s:20003  .debug_str:000000000000608e .LASF2632
C:\Users\SOLDER~1\AppData\Local\Temp\ccLLkDzL.s:29971  .debug_str:000000000002ec0e .LASF2633
C:\Users\SOLDER~1\AppData\Local\Temp\ccLLkDzL.s:22701  .debug_str:000000000001112a .LASF2634
C:\Users\SOLDER~1\AppData\Local\Temp\ccLLkDzL.s:22097  .debug_str:000000000000ea1f .LASF2635
C:\Users\SOLDER~1\AppData\Local\Temp\ccLLkDzL.s:27127  .debug_str:00000000000231d4 .LASF2636
C:\Users\SOLDER~1\AppData\Local\Temp\ccLLkDzL.s:28253  .debug_str:0000000000027c61 .LASF2637
C:\Users\SOLDER~1\AppData\Local\Temp\ccLLkDzL.s:26215  .debug_str:000000000001f6ed .LASF2638
GAS LISTING C:\Users\SOLDER~1\AppData\Local\Temp\ccLLkDzL.s 			page 60


C:\Users\SOLDER~1\AppData\Local\Temp\ccLLkDzL.s:18853  .debug_str:00000000000016c3 .LASF2639
C:\Users\SOLDER~1\AppData\Local\Temp\ccLLkDzL.s:24223  .debug_str:0000000000017503 .LASF2640
C:\Users\SOLDER~1\AppData\Local\Temp\ccLLkDzL.s:28711  .debug_str:00000000000299f0 .LASF2641
C:\Users\SOLDER~1\AppData\Local\Temp\ccLLkDzL.s:20279  .debug_str:00000000000072f1 .LASF2642
C:\Users\SOLDER~1\AppData\Local\Temp\ccLLkDzL.s:26949  .debug_str:0000000000022607 .LASF2643
C:\Users\SOLDER~1\AppData\Local\Temp\ccLLkDzL.s:21749  .debug_str:000000000000d372 .LASF2644
C:\Users\SOLDER~1\AppData\Local\Temp\ccLLkDzL.s:25349  .debug_str:000000000001bd82 .LASF2645
C:\Users\SOLDER~1\AppData\Local\Temp\ccLLkDzL.s:23687  .debug_str:00000000000152bf .LASF2646
C:\Users\SOLDER~1\AppData\Local\Temp\ccLLkDzL.s:23723  .debug_str:000000000001551d .LASF2647
C:\Users\SOLDER~1\AppData\Local\Temp\ccLLkDzL.s:26549  .debug_str:0000000000020c55 .LASF2648
C:\Users\SOLDER~1\AppData\Local\Temp\ccLLkDzL.s:21985  .debug_str:000000000000e324 .LASF2649
C:\Users\SOLDER~1\AppData\Local\Temp\ccLLkDzL.s:28197  .debug_str:000000000002787e .LASF2650
C:\Users\SOLDER~1\AppData\Local\Temp\ccLLkDzL.s:20387  .debug_str:00000000000079a8 .LASF2651
C:\Users\SOLDER~1\AppData\Local\Temp\ccLLkDzL.s:25409  .debug_str:000000000001c182 .LASF2652
C:\Users\SOLDER~1\AppData\Local\Temp\ccLLkDzL.s:20983  .debug_str:000000000000a0fa .LASF2653
C:\Users\SOLDER~1\AppData\Local\Temp\ccLLkDzL.s:19127  .debug_str:00000000000028a2 .LASF2654
C:\Users\SOLDER~1\AppData\Local\Temp\ccLLkDzL.s:19107  .debug_str:0000000000002731 .LASF2655
C:\Users\SOLDER~1\AppData\Local\Temp\ccLLkDzL.s:25137  .debug_str:000000000001b006 .LASF2656
C:\Users\SOLDER~1\AppData\Local\Temp\ccLLkDzL.s:27051  .debug_str:0000000000022ce8 .LASF2657
C:\Users\SOLDER~1\AppData\Local\Temp\ccLLkDzL.s:19841  .debug_str:0000000000005570 .LASF2658
C:\Users\SOLDER~1\AppData\Local\Temp\ccLLkDzL.s:24321  .debug_str:0000000000017b4a .LASF2659
C:\Users\SOLDER~1\AppData\Local\Temp\ccLLkDzL.s:25923  .debug_str:000000000001e31e .LASF2660
C:\Users\SOLDER~1\AppData\Local\Temp\ccLLkDzL.s:24939  .debug_str:000000000001a333 .LASF2661
C:\Users\SOLDER~1\AppData\Local\Temp\ccLLkDzL.s:25887  .debug_str:000000000001e101 .LASF2662
C:\Users\SOLDER~1\AppData\Local\Temp\ccLLkDzL.s:23035  .debug_str:000000000001268e .LASF2663
C:\Users\SOLDER~1\AppData\Local\Temp\ccLLkDzL.s:26583  .debug_str:0000000000020e82 .LASF2664
C:\Users\SOLDER~1\AppData\Local\Temp\ccLLkDzL.s:21151  .debug_str:000000000000abec .LASF2665
C:\Users\SOLDER~1\AppData\Local\Temp\ccLLkDzL.s:22123  .debug_str:000000000000ebe2 .LASF2666
C:\Users\SOLDER~1\AppData\Local\Temp\ccLLkDzL.s:19267  .debug_str:000000000000318c .LASF2667
C:\Users\SOLDER~1\AppData\Local\Temp\ccLLkDzL.s:18777  .debug_str:00000000000011c7 .LASF2668
C:\Users\SOLDER~1\AppData\Local\Temp\ccLLkDzL.s:19579  .debug_str:0000000000004553 .LASF2669
C:\Users\SOLDER~1\AppData\Local\Temp\ccLLkDzL.s:27467  .debug_str:0000000000024834 .LASF2670
C:\Users\SOLDER~1\AppData\Local\Temp\ccLLkDzL.s:26939  .debug_str:0000000000022571 .LASF2671
C:\Users\SOLDER~1\AppData\Local\Temp\ccLLkDzL.s:19675  .debug_str:0000000000004b84 .LASF2672
C:\Users\SOLDER~1\AppData\Local\Temp\ccLLkDzL.s:27623  .debug_str:000000000002524d .LASF2673
C:\Users\SOLDER~1\AppData\Local\Temp\ccLLkDzL.s:26665  .debug_str:00000000000213fd .LASF2674
C:\Users\SOLDER~1\AppData\Local\Temp\ccLLkDzL.s:26019  .debug_str:000000000001e9d8 .LASF2675
C:\Users\SOLDER~1\AppData\Local\Temp\ccLLkDzL.s:24781  .debug_str:0000000000019939 .LASF2676
C:\Users\SOLDER~1\AppData\Local\Temp\ccLLkDzL.s:24415  .debug_str:000000000001819a .LASF2677
C:\Users\SOLDER~1\AppData\Local\Temp\ccLLkDzL.s:23843  .debug_str:0000000000015cac .LASF2678
C:\Users\SOLDER~1\AppData\Local\Temp\ccLLkDzL.s:22761  .debug_str:000000000001152f .LASF2679
C:\Users\SOLDER~1\AppData\Local\Temp\ccLLkDzL.s:20013  .debug_str:0000000000006139 .LASF2680
C:\Users\SOLDER~1\AppData\Local\Temp\ccLLkDzL.s:21029  .debug_str:000000000000a3f9 .LASF2681
C:\Users\SOLDER~1\AppData\Local\Temp\ccLLkDzL.s:29479  .debug_str:000000000002cc2c .LASF2682
C:\Users\SOLDER~1\AppData\Local\Temp\ccLLkDzL.s:19413  .debug_str:0000000000003aee .LASF2683
C:\Users\SOLDER~1\AppData\Local\Temp\ccLLkDzL.s:19449  .debug_str:0000000000003d20 .LASF2684
C:\Users\SOLDER~1\AppData\Local\Temp\ccLLkDzL.s:25959  .debug_str:000000000001e5ba .LASF2685
C:\Users\SOLDER~1\AppData\Local\Temp\ccLLkDzL.s:26229  .debug_str:000000000001f7b5 .LASF2686
C:\Users\SOLDER~1\AppData\Local\Temp\ccLLkDzL.s:27519  .debug_str:0000000000024b97 .LASF2687
C:\Users\SOLDER~1\AppData\Local\Temp\ccLLkDzL.s:24299  .debug_str:00000000000179d9 .LASF2688
C:\Users\SOLDER~1\AppData\Local\Temp\ccLLkDzL.s:25913  .debug_str:000000000001e295 .LASF2689
C:\Users\SOLDER~1\AppData\Local\Temp\ccLLkDzL.s:25813  .debug_str:000000000001dc3a .LASF2690
C:\Users\SOLDER~1\AppData\Local\Temp\ccLLkDzL.s:24325  .debug_str:0000000000017b8a .LASF2691
C:\Users\SOLDER~1\AppData\Local\Temp\ccLLkDzL.s:27039  .debug_str:0000000000022c28 .LASF2692
C:\Users\SOLDER~1\AppData\Local\Temp\ccLLkDzL.s:19811  .debug_str:00000000000053b2 .LASF2693
C:\Users\SOLDER~1\AppData\Local\Temp\ccLLkDzL.s:19017  .debug_str:0000000000002149 .LASF2694
C:\Users\SOLDER~1\AppData\Local\Temp\ccLLkDzL.s:29441  .debug_str:000000000002c9c1 .LASF2695
GAS LISTING C:\Users\SOLDER~1\AppData\Local\Temp\ccLLkDzL.s 			page 61


C:\Users\SOLDER~1\AppData\Local\Temp\ccLLkDzL.s:23243  .debug_str:0000000000013484 .LASF2696
C:\Users\SOLDER~1\AppData\Local\Temp\ccLLkDzL.s:23161  .debug_str:0000000000012f08 .LASF2697
C:\Users\SOLDER~1\AppData\Local\Temp\ccLLkDzL.s:19615  .debug_str:00000000000047bc .LASF2698
C:\Users\SOLDER~1\AppData\Local\Temp\ccLLkDzL.s:25633  .debug_str:000000000001d0d0 .LASF2699
C:\Users\SOLDER~1\AppData\Local\Temp\ccLLkDzL.s:25909  .debug_str:000000000001e25d .LASF2700
C:\Users\SOLDER~1\AppData\Local\Temp\ccLLkDzL.s:29991  .debug_str:000000000002ed52 .LASF2701
C:\Users\SOLDER~1\AppData\Local\Temp\ccLLkDzL.s:25871  .debug_str:000000000001e005 .LASF2702
C:\Users\SOLDER~1\AppData\Local\Temp\ccLLkDzL.s:21857  .debug_str:000000000000da2f .LASF2703
C:\Users\SOLDER~1\AppData\Local\Temp\ccLLkDzL.s:26477  .debug_str:0000000000020795 .LASF2704
C:\Users\SOLDER~1\AppData\Local\Temp\ccLLkDzL.s:19977  .debug_str:0000000000005ea0 .LASF2705
C:\Users\SOLDER~1\AppData\Local\Temp\ccLLkDzL.s:22007  .debug_str:000000000000e466 .LASF2706
C:\Users\SOLDER~1\AppData\Local\Temp\ccLLkDzL.s:29591  .debug_str:000000000002d3ac .LASF2707
C:\Users\SOLDER~1\AppData\Local\Temp\ccLLkDzL.s:23503  .debug_str:000000000001467f .LASF2708
C:\Users\SOLDER~1\AppData\Local\Temp\ccLLkDzL.s:27749  .debug_str:0000000000025ac5 .LASF2709
C:\Users\SOLDER~1\AppData\Local\Temp\ccLLkDzL.s:28387  .debug_str:00000000000284f1 .LASF2710
C:\Users\SOLDER~1\AppData\Local\Temp\ccLLkDzL.s:25883  .debug_str:000000000001e0be .LASF2711
C:\Users\SOLDER~1\AppData\Local\Temp\ccLLkDzL.s:26275  .debug_str:000000000001faa2 .LASF2712
C:\Users\SOLDER~1\AppData\Local\Temp\ccLLkDzL.s:24285  .debug_str:00000000000178fc .LASF2713
C:\Users\SOLDER~1\AppData\Local\Temp\ccLLkDzL.s:26605  .debug_str:0000000000021028 .LASF2714
C:\Users\SOLDER~1\AppData\Local\Temp\ccLLkDzL.s:20695  .debug_str:0000000000008df4 .LASF2715
C:\Users\SOLDER~1\AppData\Local\Temp\ccLLkDzL.s:19485  .debug_str:0000000000003f5e .LASF2716
C:\Users\SOLDER~1\AppData\Local\Temp\ccLLkDzL.s:20897  .debug_str:0000000000009b32 .LASF2717
C:\Users\SOLDER~1\AppData\Local\Temp\ccLLkDzL.s:18685  .debug_str:0000000000000bec .LASF2718
C:\Users\SOLDER~1\AppData\Local\Temp\ccLLkDzL.s:18521  .debug_str:00000000000000a4 .LASF2719
C:\Users\SOLDER~1\AppData\Local\Temp\ccLLkDzL.s:26337  .debug_str:000000000001fe7f .LASF2720
C:\Users\SOLDER~1\AppData\Local\Temp\ccLLkDzL.s:24395  .debug_str:000000000001805c .LASF2721
C:\Users\SOLDER~1\AppData\Local\Temp\ccLLkDzL.s:27133  .debug_str:0000000000023244 .LASF2722
C:\Users\SOLDER~1\AppData\Local\Temp\ccLLkDzL.s:27373  .debug_str:00000000000241db .LASF2723
C:\Users\SOLDER~1\AppData\Local\Temp\ccLLkDzL.s:25681  .debug_str:000000000001d3f9 .LASF2724
C:\Users\SOLDER~1\AppData\Local\Temp\ccLLkDzL.s:25763  .debug_str:000000000001d8e0 .LASF2725
C:\Users\SOLDER~1\AppData\Local\Temp\ccLLkDzL.s:21063  .debug_str:000000000000a64e .LASF2726
C:\Users\SOLDER~1\AppData\Local\Temp\ccLLkDzL.s:24179  .debug_str:00000000000171f7 .LASF2727
C:\Users\SOLDER~1\AppData\Local\Temp\ccLLkDzL.s:19003  .debug_str:000000000000204d .LASF2728
C:\Users\SOLDER~1\AppData\Local\Temp\ccLLkDzL.s:22447  .debug_str:0000000000010119 .LASF2729
C:\Users\SOLDER~1\AppData\Local\Temp\ccLLkDzL.s:20667  .debug_str:0000000000008bdb .LASF2730
C:\Users\SOLDER~1\AppData\Local\Temp\ccLLkDzL.s:20809  .debug_str:00000000000095aa .LASF2731
C:\Users\SOLDER~1\AppData\Local\Temp\ccLLkDzL.s:29369  .debug_str:000000000002c532 .LASF2732
C:\Users\SOLDER~1\AppData\Local\Temp\ccLLkDzL.s:29501  .debug_str:000000000002cdb5 .LASF2733
C:\Users\SOLDER~1\AppData\Local\Temp\ccLLkDzL.s:27727  .debug_str:0000000000025948 .LASF2734
C:\Users\SOLDER~1\AppData\Local\Temp\ccLLkDzL.s:27569  .debug_str:0000000000024ee2 .LASF2735
C:\Users\SOLDER~1\AppData\Local\Temp\ccLLkDzL.s:22267  .debug_str:000000000000f506 .LASF2736
C:\Users\SOLDER~1\AppData\Local\Temp\ccLLkDzL.s:25691  .debug_str:000000000001d497 .LASF2737
C:\Users\SOLDER~1\AppData\Local\Temp\ccLLkDzL.s:28351  .debug_str:00000000000282bd .LASF2738
C:\Users\SOLDER~1\AppData\Local\Temp\ccLLkDzL.s:23829  .debug_str:0000000000015bdc .LASF2739
C:\Users\SOLDER~1\AppData\Local\Temp\ccLLkDzL.s:23157  .debug_str:0000000000012eb6 .LASF2740
C:\Users\SOLDER~1\AppData\Local\Temp\ccLLkDzL.s:20563  .debug_str:0000000000008535 .LASF2741
C:\Users\SOLDER~1\AppData\Local\Temp\ccLLkDzL.s:19409  .debug_str:0000000000003a9b .LASF2742
C:\Users\SOLDER~1\AppData\Local\Temp\ccLLkDzL.s:24663  .debug_str:00000000000191b0 .LASF2743
C:\Users\SOLDER~1\AppData\Local\Temp\ccLLkDzL.s:23745  .debug_str:0000000000015684 .LASF2744
C:\Users\SOLDER~1\AppData\Local\Temp\ccLLkDzL.s:29653  .debug_str:000000000002d7b6 .LASF2745
C:\Users\SOLDER~1\AppData\Local\Temp\ccLLkDzL.s:19265  .debug_str:0000000000003161 .LASF2746
C:\Users\SOLDER~1\AppData\Local\Temp\ccLLkDzL.s:27721  .debug_str:00000000000258eb .LASF2747
C:\Users\SOLDER~1\AppData\Local\Temp\ccLLkDzL.s:27349  .debug_str:0000000000024046 .LASF2748
C:\Users\SOLDER~1\AppData\Local\Temp\ccLLkDzL.s:25857  .debug_str:000000000001df15 .LASF2749
C:\Users\SOLDER~1\AppData\Local\Temp\ccLLkDzL.s:25625  .debug_str:000000000001d044 .LASF2750
C:\Users\SOLDER~1\AppData\Local\Temp\ccLLkDzL.s:24081  .debug_str:0000000000016b81 .LASF2751
C:\Users\SOLDER~1\AppData\Local\Temp\ccLLkDzL.s:28295  .debug_str:0000000000027f23 .LASF2752
GAS LISTING C:\Users\SOLDER~1\AppData\Local\Temp\ccLLkDzL.s 			page 62


C:\Users\SOLDER~1\AppData\Local\Temp\ccLLkDzL.s:19607  .debug_str:000000000000473a .LASF2753
C:\Users\SOLDER~1\AppData\Local\Temp\ccLLkDzL.s:22657  .debug_str:0000000000010e64 .LASF2754
C:\Users\SOLDER~1\AppData\Local\Temp\ccLLkDzL.s:29491  .debug_str:000000000002ccfe .LASF2755
C:\Users\SOLDER~1\AppData\Local\Temp\ccLLkDzL.s:26601  .debug_str:0000000000020fda .LASF2756
C:\Users\SOLDER~1\AppData\Local\Temp\ccLLkDzL.s:27825  .debug_str:0000000000026009 .LASF2757
C:\Users\SOLDER~1\AppData\Local\Temp\ccLLkDzL.s:28859  .debug_str:000000000002a3f4 .LASF2758
C:\Users\SOLDER~1\AppData\Local\Temp\ccLLkDzL.s:26137  .debug_str:000000000001f196 .LASF2759
C:\Users\SOLDER~1\AppData\Local\Temp\ccLLkDzL.s:25041  .debug_str:000000000001a9ba .LASF2760
C:\Users\SOLDER~1\AppData\Local\Temp\ccLLkDzL.s:24525  .debug_str:00000000000188b1 .LASF2761
C:\Users\SOLDER~1\AppData\Local\Temp\ccLLkDzL.s:22989  .debug_str:0000000000012389 .LASF2762
C:\Users\SOLDER~1\AppData\Local\Temp\ccLLkDzL.s:22867  .debug_str:0000000000011bf3 .LASF2763
C:\Users\SOLDER~1\AppData\Local\Temp\ccLLkDzL.s:24511  .debug_str:0000000000018799 .LASF2764
C:\Users\SOLDER~1\AppData\Local\Temp\ccLLkDzL.s:21147  .debug_str:000000000000abad .LASF2765
C:\Users\SOLDER~1\AppData\Local\Temp\ccLLkDzL.s:19757  .debug_str:000000000000504c .LASF2766
C:\Users\SOLDER~1\AppData\Local\Temp\ccLLkDzL.s:21883  .debug_str:000000000000dbf9 .LASF2767
C:\Users\SOLDER~1\AppData\Local\Temp\ccLLkDzL.s:29303  .debug_str:000000000002c131 .LASF2768
C:\Users\SOLDER~1\AppData\Local\Temp\ccLLkDzL.s:26063  .debug_str:000000000001ec97 .LASF2769
C:\Users\SOLDER~1\AppData\Local\Temp\ccLLkDzL.s:19353  .debug_str:00000000000036e1 .LASF2770
C:\Users\SOLDER~1\AppData\Local\Temp\ccLLkDzL.s:19925  .debug_str:0000000000005b5d .LASF2771
C:\Users\SOLDER~1\AppData\Local\Temp\ccLLkDzL.s:29481  .debug_str:000000000002cc53 .LASF2772
C:\Users\SOLDER~1\AppData\Local\Temp\ccLLkDzL.s:26423  .debug_str:000000000002041e .LASF2773
C:\Users\SOLDER~1\AppData\Local\Temp\ccLLkDzL.s:23541  .debug_str:0000000000014933 .LASF2774
C:\Users\SOLDER~1\AppData\Local\Temp\ccLLkDzL.s:19753  .debug_str:0000000000005017 .LASF2775
C:\Users\SOLDER~1\AppData\Local\Temp\ccLLkDzL.s:29461  .debug_str:000000000002cb08 .LASF2776
C:\Users\SOLDER~1\AppData\Local\Temp\ccLLkDzL.s:22757  .debug_str:0000000000011507 .LASF2777
C:\Users\SOLDER~1\AppData\Local\Temp\ccLLkDzL.s:24073  .debug_str:0000000000016b07 .LASF2778
C:\Users\SOLDER~1\AppData\Local\Temp\ccLLkDzL.s:20867  .debug_str:000000000000995d .LASF2779
C:\Users\SOLDER~1\AppData\Local\Temp\ccLLkDzL.s:21291  .debug_str:000000000000b502 .LASF2780
C:\Users\SOLDER~1\AppData\Local\Temp\ccLLkDzL.s:18973  .debug_str:0000000000001e77 .LASF2781
C:\Users\SOLDER~1\AppData\Local\Temp\ccLLkDzL.s:18819  .debug_str:000000000000148a .LASF2782
C:\Users\SOLDER~1\AppData\Local\Temp\ccLLkDzL.s:28579  .debug_str:000000000002916f .LASF2783
C:\Users\SOLDER~1\AppData\Local\Temp\ccLLkDzL.s:19501  .debug_str:000000000000406f .LASF2784
C:\Users\SOLDER~1\AppData\Local\Temp\ccLLkDzL.s:19529  .debug_str:000000000000422e .LASF2785
C:\Users\SOLDER~1\AppData\Local\Temp\ccLLkDzL.s:26509  .debug_str:00000000000209c5 .LASF2786
C:\Users\SOLDER~1\AppData\Local\Temp\ccLLkDzL.s:24813  .debug_str:0000000000019b4a .LASF2787
C:\Users\SOLDER~1\AppData\Local\Temp\ccLLkDzL.s:23159  .debug_str:0000000000012ee1 .LASF2788
C:\Users\SOLDER~1\AppData\Local\Temp\ccLLkDzL.s:22905  .debug_str:0000000000011e4f .LASF2789
C:\Users\SOLDER~1\AppData\Local\Temp\ccLLkDzL.s:21317  .debug_str:000000000000b68f .LASF2790
C:\Users\SOLDER~1\AppData\Local\Temp\ccLLkDzL.s:24039  .debug_str:000000000001692a .LASF2791
C:\Users\SOLDER~1\AppData\Local\Temp\ccLLkDzL.s:24025  .debug_str:0000000000016834 .LASF2792
C:\Users\SOLDER~1\AppData\Local\Temp\ccLLkDzL.s:20443  .debug_str:0000000000007d63 .LASF2793
C:\Users\SOLDER~1\AppData\Local\Temp\ccLLkDzL.s:26607  .debug_str:000000000002104f .LASF2794
C:\Users\SOLDER~1\AppData\Local\Temp\ccLLkDzL.s:25891  .debug_str:000000000001e14a .LASF2795
C:\Users\SOLDER~1\AppData\Local\Temp\ccLLkDzL.s:23301  .debug_str:000000000001388a .LASF2796
C:\Users\SOLDER~1\AppData\Local\Temp\ccLLkDzL.s:19749  .debug_str:0000000000004fd7 .LASF2797
C:\Users\SOLDER~1\AppData\Local\Temp\ccLLkDzL.s:18605  .debug_str:00000000000005d9 .LASF2798
C:\Users\SOLDER~1\AppData\Local\Temp\ccLLkDzL.s:26911  .debug_str:0000000000022381 .LASF2799
C:\Users\SOLDER~1\AppData\Local\Temp\ccLLkDzL.s:26253  .debug_str:000000000001f93d .LASF2800
C:\Users\SOLDER~1\AppData\Local\Temp\ccLLkDzL.s:25315  .debug_str:000000000001bb35 .LASF2801
C:\Users\SOLDER~1\AppData\Local\Temp\ccLLkDzL.s:24251  .debug_str:000000000001769f .LASF2802
C:\Users\SOLDER~1\AppData\Local\Temp\ccLLkDzL.s:23679  .debug_str:0000000000015235 .LASF2803
C:\Users\SOLDER~1\AppData\Local\Temp\ccLLkDzL.s:25687  .debug_str:000000000001d454 .LASF2804
C:\Users\SOLDER~1\AppData\Local\Temp\ccLLkDzL.s:22039  .debug_str:000000000000e67a .LASF2805
C:\Users\SOLDER~1\AppData\Local\Temp\ccLLkDzL.s:20971  .debug_str:000000000000a00e .LASF2806
C:\Users\SOLDER~1\AppData\Local\Temp\ccLLkDzL.s:20343  .debug_str:00000000000076eb .LASF2807
C:\Users\SOLDER~1\AppData\Local\Temp\ccLLkDzL.s:19009  .debug_str:00000000000020c1 .LASF2808
C:\Users\SOLDER~1\AppData\Local\Temp\ccLLkDzL.s:18727  .debug_str:0000000000000eb3 .LASF2809
GAS LISTING C:\Users\SOLDER~1\AppData\Local\Temp\ccLLkDzL.s 			page 63


C:\Users\SOLDER~1\AppData\Local\Temp\ccLLkDzL.s:20583  .debug_str:0000000000008690 .LASF2810
C:\Users\SOLDER~1\AppData\Local\Temp\ccLLkDzL.s:28561  .debug_str:0000000000029043 .LASF2811
C:\Users\SOLDER~1\AppData\Local\Temp\ccLLkDzL.s:29373  .debug_str:000000000002c57e .LASF2812
C:\Users\SOLDER~1\AppData\Local\Temp\ccLLkDzL.s:18979  .debug_str:0000000000001edd .LASF2813
C:\Users\SOLDER~1\AppData\Local\Temp\ccLLkDzL.s:25551  .debug_str:000000000001cb37 .LASF2814
C:\Users\SOLDER~1\AppData\Local\Temp\ccLLkDzL.s:26445  .debug_str:0000000000020597 .LASF2815
C:\Users\SOLDER~1\AppData\Local\Temp\ccLLkDzL.s:18911  .debug_str:0000000000001a45 .LASF2816
C:\Users\SOLDER~1\AppData\Local\Temp\ccLLkDzL.s:26119  .debug_str:000000000001f05d .LASF2817
C:\Users\SOLDER~1\AppData\Local\Temp\ccLLkDzL.s:24153  .debug_str:000000000001704c .LASF2818
C:\Users\SOLDER~1\AppData\Local\Temp\ccLLkDzL.s:26377  .debug_str:00000000000200fe .LASF2819
C:\Users\SOLDER~1\AppData\Local\Temp\ccLLkDzL.s:20253  .debug_str:0000000000007139 .LASF2820
C:\Users\SOLDER~1\AppData\Local\Temp\ccLLkDzL.s:26767  .debug_str:0000000000021a79 .LASF2821
C:\Users\SOLDER~1\AppData\Local\Temp\ccLLkDzL.s:20455  .debug_str:0000000000007e2f .LASF2822
C:\Users\SOLDER~1\AppData\Local\Temp\ccLLkDzL.s:19343  .debug_str:0000000000003652 .LASF2823
C:\Users\SOLDER~1\AppData\Local\Temp\ccLLkDzL.s:24605  .debug_str:0000000000018e15 .LASF2824
C:\Users\SOLDER~1\AppData\Local\Temp\ccLLkDzL.s:27385  .debug_str:00000000000242b7 .LASF2825
C:\Users\SOLDER~1\AppData\Local\Temp\ccLLkDzL.s:22831  .debug_str:000000000001198e .LASF2826
C:\Users\SOLDER~1\AppData\Local\Temp\ccLLkDzL.s:19631  .debug_str:00000000000048c3 .LASF2827
C:\Users\SOLDER~1\AppData\Local\Temp\ccLLkDzL.s:26953  .debug_str:000000000002263d .LASF2828
C:\Users\SOLDER~1\AppData\Local\Temp\ccLLkDzL.s:23737  .debug_str:000000000001560e .LASF2829
C:\Users\SOLDER~1\AppData\Local\Temp\ccLLkDzL.s:28483  .debug_str:0000000000028b46 .LASF2830
C:\Users\SOLDER~1\AppData\Local\Temp\ccLLkDzL.s:25903  .debug_str:000000000001e1f7 .LASF2831
C:\Users\SOLDER~1\AppData\Local\Temp\ccLLkDzL.s:30011  .debug_str:000000000002ee7a .LASF2832
C:\Users\SOLDER~1\AppData\Local\Temp\ccLLkDzL.s:24789  .debug_str:00000000000199ce .LASF2833
C:\Users\SOLDER~1\AppData\Local\Temp\ccLLkDzL.s:22753  .debug_str:00000000000114c0 .LASF2834
C:\Users\SOLDER~1\AppData\Local\Temp\ccLLkDzL.s:24017  .debug_str:00000000000167a7 .LASF2835
C:\Users\SOLDER~1\AppData\Local\Temp\ccLLkDzL.s:19999  .debug_str:0000000000006026 .LASF2836
C:\Users\SOLDER~1\AppData\Local\Temp\ccLLkDzL.s:25479  .debug_str:000000000001c64a .LASF2837
C:\Users\SOLDER~1\AppData\Local\Temp\ccLLkDzL.s:22697  .debug_str:00000000000110e4 .LASF2838
C:\Users\SOLDER~1\AppData\Local\Temp\ccLLkDzL.s:19591  .debug_str:0000000000004628 .LASF2839
C:\Users\SOLDER~1\AppData\Local\Temp\ccLLkDzL.s:28697  .debug_str:000000000002990f .LASF2840
C:\Users\SOLDER~1\AppData\Local\Temp\ccLLkDzL.s:28161  .debug_str:0000000000027657 .LASF2841
C:\Users\SOLDER~1\AppData\Local\Temp\ccLLkDzL.s:25509  .debug_str:000000000001c850 .LASF2842
C:\Users\SOLDER~1\AppData\Local\Temp\ccLLkDzL.s:26295  .debug_str:000000000001fbe1 .LASF2843
C:\Users\SOLDER~1\AppData\Local\Temp\ccLLkDzL.s:28079  .debug_str:00000000000270f1 .LASF2844
C:\Users\SOLDER~1\AppData\Local\Temp\ccLLkDzL.s:28409  .debug_str:00000000000286a1 .LASF2845
C:\Users\SOLDER~1\AppData\Local\Temp\ccLLkDzL.s:21929  .debug_str:000000000000df15 .LASF2846
C:\Users\SOLDER~1\AppData\Local\Temp\ccLLkDzL.s:25383  .debug_str:000000000001bfc3 .LASF2847
C:\Users\SOLDER~1\AppData\Local\Temp\ccLLkDzL.s:29973  .debug_str:000000000002ec28 .LASF2848
C:\Users\SOLDER~1\AppData\Local\Temp\ccLLkDzL.s:25437  .debug_str:000000000001c367 .LASF2849
C:\Users\SOLDER~1\AppData\Local\Temp\ccLLkDzL.s:23347  .debug_str:0000000000013bed .LASF2850
C:\Users\SOLDER~1\AppData\Local\Temp\ccLLkDzL.s:29535  .debug_str:000000000002d03d .LASF2851
C:\Users\SOLDER~1\AppData\Local\Temp\ccLLkDzL.s:21755  .debug_str:000000000000d3da .LASF2852
C:\Users\SOLDER~1\AppData\Local\Temp\ccLLkDzL.s:21369  .debug_str:000000000000ba03 .LASF2853
C:\Users\SOLDER~1\AppData\Local\Temp\ccLLkDzL.s:28839  .debug_str:000000000002a2bd .LASF2854
C:\Users\SOLDER~1\AppData\Local\Temp\ccLLkDzL.s:25075  .debug_str:000000000001ac48 .LASF2855
C:\Users\SOLDER~1\AppData\Local\Temp\ccLLkDzL.s:29219  .debug_str:000000000002bb44 .LASF2856
C:\Users\SOLDER~1\AppData\Local\Temp\ccLLkDzL.s:21577  .debug_str:000000000000c806 .LASF2857
C:\Users\SOLDER~1\AppData\Local\Temp\ccLLkDzL.s:25999  .debug_str:000000000001e887 .LASF2858
C:\Users\SOLDER~1\AppData\Local\Temp\ccLLkDzL.s:19829  .debug_str:00000000000054af .LASF2859
C:\Users\SOLDER~1\AppData\Local\Temp\ccLLkDzL.s:19367  .debug_str:00000000000037d3 .LASF2860
C:\Users\SOLDER~1\AppData\Local\Temp\ccLLkDzL.s:28061  .debug_str:0000000000026fd7 .LASF2861
C:\Users\SOLDER~1\AppData\Local\Temp\ccLLkDzL.s:20437  .debug_str:0000000000007d06 .LASF2862
C:\Users\SOLDER~1\AppData\Local\Temp\ccLLkDzL.s:26599  .debug_str:0000000000020fb3 .LASF2863
C:\Users\SOLDER~1\AppData\Local\Temp\ccLLkDzL.s:26121  .debug_str:000000000001f07d .LASF2864
C:\Users\SOLDER~1\AppData\Local\Temp\ccLLkDzL.s:22933  .debug_str:0000000000012000 .LASF2865
C:\Users\SOLDER~1\AppData\Local\Temp\ccLLkDzL.s:21459  .debug_str:000000000000bfd8 .LASF2866
GAS LISTING C:\Users\SOLDER~1\AppData\Local\Temp\ccLLkDzL.s 			page 64


C:\Users\SOLDER~1\AppData\Local\Temp\ccLLkDzL.s:22637  .debug_str:0000000000010d1e .LASF2867
C:\Users\SOLDER~1\AppData\Local\Temp\ccLLkDzL.s:23213  .debug_str:000000000001325f .LASF2868
C:\Users\SOLDER~1\AppData\Local\Temp\ccLLkDzL.s:29879  .debug_str:000000000002e620 .LASF2869
C:\Users\SOLDER~1\AppData\Local\Temp\ccLLkDzL.s:23225  .debug_str:0000000000013337 .LASF2870
C:\Users\SOLDER~1\AppData\Local\Temp\ccLLkDzL.s:29355  .debug_str:000000000002c455 .LASF2871
C:\Users\SOLDER~1\AppData\Local\Temp\ccLLkDzL.s:29469  .debug_str:000000000002cb86 .LASF2872
C:\Users\SOLDER~1\AppData\Local\Temp\ccLLkDzL.s:25087  .debug_str:000000000001ad11 .LASF2873
C:\Users\SOLDER~1\AppData\Local\Temp\ccLLkDzL.s:29385  .debug_str:000000000002c650 .LASF2874
C:\Users\SOLDER~1\AppData\Local\Temp\ccLLkDzL.s:26577  .debug_str:0000000000020e17 .LASF2875
C:\Users\SOLDER~1\AppData\Local\Temp\ccLLkDzL.s:22241  .debug_str:000000000000f356 .LASF2876
C:\Users\SOLDER~1\AppData\Local\Temp\ccLLkDzL.s:22343  .debug_str:000000000000fa3a .LASF2877
C:\Users\SOLDER~1\AppData\Local\Temp\ccLLkDzL.s:22253  .debug_str:000000000000f422 .LASF2878
C:\Users\SOLDER~1\AppData\Local\Temp\ccLLkDzL.s:24245  .debug_str:000000000001765d .LASF2879
C:\Users\SOLDER~1\AppData\Local\Temp\ccLLkDzL.s:29837  .debug_str:000000000002e35f .LASF2880
C:\Users\SOLDER~1\AppData\Local\Temp\ccLLkDzL.s:21769  .debug_str:000000000000d4c1 .LASF2881
C:\Users\SOLDER~1\AppData\Local\Temp\ccLLkDzL.s:29919  .debug_str:000000000002e8de .LASF2882
C:\Users\SOLDER~1\AppData\Local\Temp\ccLLkDzL.s:29057  .debug_str:000000000002b0f8 .LASF2883
C:\Users\SOLDER~1\AppData\Local\Temp\ccLLkDzL.s:20267  .debug_str:000000000000721a .LASF2884
C:\Users\SOLDER~1\AppData\Local\Temp\ccLLkDzL.s:27251  .debug_str:00000000000239bb .LASF2885
C:\Users\SOLDER~1\AppData\Local\Temp\ccLLkDzL.s:19943  .debug_str:0000000000005c5f .LASF2886
C:\Users\SOLDER~1\AppData\Local\Temp\ccLLkDzL.s:20553  .debug_str:0000000000008499 .LASF2887
C:\Users\SOLDER~1\AppData\Local\Temp\ccLLkDzL.s:21253  .debug_str:000000000000b25f .LASF2888
C:\Users\SOLDER~1\AppData\Local\Temp\ccLLkDzL.s:21303  .debug_str:000000000000b5b2 .LASF2889
C:\Users\SOLDER~1\AppData\Local\Temp\ccLLkDzL.s:20255  .debug_str:0000000000007159 .LASF2890
C:\Users\SOLDER~1\AppData\Local\Temp\ccLLkDzL.s:19295  .debug_str:0000000000003344 .LASF2891
C:\Users\SOLDER~1\AppData\Local\Temp\ccLLkDzL.s:21957  .debug_str:000000000000e13d .LASF2892
C:\Users\SOLDER~1\AppData\Local\Temp\ccLLkDzL.s:23985  .debug_str:0000000000016590 .LASF2893
C:\Users\SOLDER~1\AppData\Local\Temp\ccLLkDzL.s:29679  .debug_str:000000000002d93c .LASF2894
C:\Users\SOLDER~1\AppData\Local\Temp\ccLLkDzL.s:21163  .debug_str:000000000000acbc .LASF2895
C:\Users\SOLDER~1\AppData\Local\Temp\ccLLkDzL.s:28757  .debug_str:0000000000029d28 .LASF2896
C:\Users\SOLDER~1\AppData\Local\Temp\ccLLkDzL.s:29757  .debug_str:000000000002de5b .LASF2897
C:\Users\SOLDER~1\AppData\Local\Temp\ccLLkDzL.s:29543  .debug_str:000000000002d0bc .LASF2898
C:\Users\SOLDER~1\AppData\Local\Temp\ccLLkDzL.s:19777  .debug_str:00000000000051a1 .LASF2899
C:\Users\SOLDER~1\AppData\Local\Temp\ccLLkDzL.s:20751  .debug_str:00000000000091d9 .LASF2900
C:\Users\SOLDER~1\AppData\Local\Temp\ccLLkDzL.s:25689  .debug_str:000000000001d47c .LASF2901
C:\Users\SOLDER~1\AppData\Local\Temp\ccLLkDzL.s:21651  .debug_str:000000000000ccf4 .LASF2902
C:\Users\SOLDER~1\AppData\Local\Temp\ccLLkDzL.s:23491  .debug_str:00000000000145d4 .LASF2903
C:\Users\SOLDER~1\AppData\Local\Temp\ccLLkDzL.s:28395  .debug_str:00000000000285a8 .LASF2904
C:\Users\SOLDER~1\AppData\Local\Temp\ccLLkDzL.s:20933  .debug_str:0000000000009d9e .LASF2905
C:\Users\SOLDER~1\AppData\Local\Temp\ccLLkDzL.s:28501  .debug_str:0000000000028c73 .LASF2906
C:\Users\SOLDER~1\AppData\Local\Temp\ccLLkDzL.s:24515  .debug_str:00000000000187dd .LASF2907
C:\Users\SOLDER~1\AppData\Local\Temp\ccLLkDzL.s:21971  .debug_str:000000000000e238 .LASF2908
C:\Users\SOLDER~1\AppData\Local\Temp\ccLLkDzL.s:26687  .debug_str:0000000000021564 .LASF2909
C:\Users\SOLDER~1\AppData\Local\Temp\ccLLkDzL.s:27435  .debug_str:0000000000024610 .LASF2910
C:\Users\SOLDER~1\AppData\Local\Temp\ccLLkDzL.s:22781  .debug_str:0000000000011659 .LASF2911
C:\Users\SOLDER~1\AppData\Local\Temp\ccLLkDzL.s:21865  .debug_str:000000000000daba .LASF2912
C:\Users\SOLDER~1\AppData\Local\Temp\ccLLkDzL.s:22205  .debug_str:000000000000f0f8 .LASF2913
C:\Users\SOLDER~1\AppData\Local\Temp\ccLLkDzL.s:19175  .debug_str:0000000000002b5b .LASF2914
C:\Users\SOLDER~1\AppData\Local\Temp\ccLLkDzL.s:24505  .debug_str:000000000001874e .LASF2915
C:\Users\SOLDER~1\AppData\Local\Temp\ccLLkDzL.s:18595  .debug_str:000000000000052b .LASF2916
C:\Users\SOLDER~1\AppData\Local\Temp\ccLLkDzL.s:27163  .debug_str:0000000000023432 .LASF2917
C:\Users\SOLDER~1\AppData\Local\Temp\ccLLkDzL.s:21979  .debug_str:000000000000e2bf .LASF2918
C:\Users\SOLDER~1\AppData\Local\Temp\ccLLkDzL.s:26115  .debug_str:000000000001f023 .LASF2919
C:\Users\SOLDER~1\AppData\Local\Temp\ccLLkDzL.s:27403  .debug_str:00000000000243dc .LASF2920
C:\Users\SOLDER~1\AppData\Local\Temp\ccLLkDzL.s:25807  .debug_str:000000000001dbcb .LASF2921
C:\Users\SOLDER~1\AppData\Local\Temp\ccLLkDzL.s:22459  .debug_str:00000000000101c2 .LASF2922
C:\Users\SOLDER~1\AppData\Local\Temp\ccLLkDzL.s:27461  .debug_str:00000000000247d3 .LASF2923
GAS LISTING C:\Users\SOLDER~1\AppData\Local\Temp\ccLLkDzL.s 			page 65


C:\Users\SOLDER~1\AppData\Local\Temp\ccLLkDzL.s:24577  .debug_str:0000000000018c39 .LASF2924
C:\Users\SOLDER~1\AppData\Local\Temp\ccLLkDzL.s:24141  .debug_str:0000000000016f82 .LASF2925
C:\Users\SOLDER~1\AppData\Local\Temp\ccLLkDzL.s:23437  .debug_str:000000000001422b .LASF2926
C:\Users\SOLDER~1\AppData\Local\Temp\ccLLkDzL.s:21763  .debug_str:000000000000d45f .LASF2927
C:\Users\SOLDER~1\AppData\Local\Temp\ccLLkDzL.s:22057  .debug_str:000000000000e7cb .LASF2928
C:\Users\SOLDER~1\AppData\Local\Temp\ccLLkDzL.s:24367  .debug_str:0000000000017e80 .LASF2929
C:\Users\SOLDER~1\AppData\Local\Temp\ccLLkDzL.s:25821  .debug_str:000000000001dcc8 .LASF2930
C:\Users\SOLDER~1\AppData\Local\Temp\ccLLkDzL.s:27515  .debug_str:0000000000024b5a .LASF2931
C:\Users\SOLDER~1\AppData\Local\Temp\ccLLkDzL.s:28021  .debug_str:0000000000026d42 .LASF2932
C:\Users\SOLDER~1\AppData\Local\Temp\ccLLkDzL.s:28407  .debug_str:0000000000028678 .LASF2933
C:\Users\SOLDER~1\AppData\Local\Temp\ccLLkDzL.s:25697  .debug_str:000000000001d4e4 .LASF2934
C:\Users\SOLDER~1\AppData\Local\Temp\ccLLkDzL.s:24503  .debug_str:0000000000018734 .LASF2935
C:\Users\SOLDER~1\AppData\Local\Temp\ccLLkDzL.s:27565  .debug_str:0000000000024e94 .LASF2936
C:\Users\SOLDER~1\AppData\Local\Temp\ccLLkDzL.s:18523  .debug_str:00000000000000be .LASF2937
C:\Users\SOLDER~1\AppData\Local\Temp\ccLLkDzL.s:27817  .debug_str:0000000000025f76 .LASF2938
C:\Users\SOLDER~1\AppData\Local\Temp\ccLLkDzL.s:18783  .debug_str:000000000000122e .LASF2939
C:\Users\SOLDER~1\AppData\Local\Temp\ccLLkDzL.s:19661  .debug_str:0000000000004a92 .LASF2940
C:\Users\SOLDER~1\AppData\Local\Temp\ccLLkDzL.s:20381  .debug_str:000000000000793f .LASF2941
C:\Users\SOLDER~1\AppData\Local\Temp\ccLLkDzL.s:27339  .debug_str:0000000000023f9d .LASF2942
C:\Users\SOLDER~1\AppData\Local\Temp\ccLLkDzL.s:27227  .debug_str:000000000002383c .LASF2943
C:\Users\SOLDER~1\AppData\Local\Temp\ccLLkDzL.s:20577  .debug_str:0000000000008611 .LASF2944
C:\Users\SOLDER~1\AppData\Local\Temp\ccLLkDzL.s:23309  .debug_str:000000000001394b .LASF2945
C:\Users\SOLDER~1\AppData\Local\Temp\ccLLkDzL.s:24861  .debug_str:0000000000019e31 .LASF2946
C:\Users\SOLDER~1\AppData\Local\Temp\ccLLkDzL.s:23949  .debug_str:00000000000163a7 .LASF2947
C:\Users\SOLDER~1\AppData\Local\Temp\ccLLkDzL.s:24399  .debug_str:0000000000018093 .LASF2948
C:\Users\SOLDER~1\AppData\Local\Temp\ccLLkDzL.s:24659  .debug_str:0000000000019171 .LASF2949
C:\Users\SOLDER~1\AppData\Local\Temp\ccLLkDzL.s:23095  .debug_str:0000000000012aaa .LASF2950
C:\Users\SOLDER~1\AppData\Local\Temp\ccLLkDzL.s:24761  .debug_str:00000000000197e6 .LASF2951
C:\Users\SOLDER~1\AppData\Local\Temp\ccLLkDzL.s:19263  .debug_str:0000000000003137 .LASF2952
C:\Users\SOLDER~1\AppData\Local\Temp\ccLLkDzL.s:18723  .debug_str:0000000000000e74 .LASF2953
C:\Users\SOLDER~1\AppData\Local\Temp\ccLLkDzL.s:24563  .debug_str:0000000000018b34 .LASF2954
C:\Users\SOLDER~1\AppData\Local\Temp\ccLLkDzL.s:27799  .debug_str:0000000000025e50 .LASF2955
C:\Users\SOLDER~1\AppData\Local\Temp\ccLLkDzL.s:28531  .debug_str:0000000000028e32 .LASF2956
C:\Users\SOLDER~1\AppData\Local\Temp\ccLLkDzL.s:19079  .debug_str:0000000000002571 .LASF2957
C:\Users\SOLDER~1\AppData\Local\Temp\ccLLkDzL.s:22193  .debug_str:000000000000f035 .LASF2958
C:\Users\SOLDER~1\AppData\Local\Temp\ccLLkDzL.s:29511  .debug_str:000000000002ce63 .LASF2959
C:\Users\SOLDER~1\AppData\Local\Temp\ccLLkDzL.s:22729  .debug_str:0000000000011314 .LASF2960
C:\Users\SOLDER~1\AppData\Local\Temp\ccLLkDzL.s:24187  .debug_str:000000000001728c .LASF2961
C:\Users\SOLDER~1\AppData\Local\Temp\ccLLkDzL.s:20125  .debug_str:00000000000068d2 .LASF2962
C:\Users\SOLDER~1\AppData\Local\Temp\ccLLkDzL.s:19871  .debug_str:00000000000057a7 .LASF2963
C:\Users\SOLDER~1\AppData\Local\Temp\ccLLkDzL.s:27533  .debug_str:0000000000024c80 .LASF2964
C:\Users\SOLDER~1\AppData\Local\Temp\ccLLkDzL.s:29943  .debug_str:000000000002ea70 .LASF2965
C:\Users\SOLDER~1\AppData\Local\Temp\ccLLkDzL.s:19991  .debug_str:0000000000005f94 .LASF2966
C:\Users\SOLDER~1\AppData\Local\Temp\ccLLkDzL.s:18537  .debug_str:0000000000000175 .LASF2967
C:\Users\SOLDER~1\AppData\Local\Temp\ccLLkDzL.s:27925  .debug_str:00000000000266d8 .LASF2968
C:\Users\SOLDER~1\AppData\Local\Temp\ccLLkDzL.s:26821  .debug_str:0000000000021df9 .LASF2969
C:\Users\SOLDER~1\AppData\Local\Temp\ccLLkDzL.s:23703  .debug_str:00000000000153c8 .LASF2970
C:\Users\SOLDER~1\AppData\Local\Temp\ccLLkDzL.s:22287  .debug_str:000000000000f652 .LASF2971
C:\Users\SOLDER~1\AppData\Local\Temp\ccLLkDzL.s:23029  .debug_str:0000000000012629 .LASF2972
C:\Users\SOLDER~1\AppData\Local\Temp\ccLLkDzL.s:21135  .debug_str:000000000000ab0b .LASF2973
C:\Users\SOLDER~1\AppData\Local\Temp\ccLLkDzL.s:18969  .debug_str:0000000000001e31 .LASF2974
C:\Users\SOLDER~1\AppData\Local\Temp\ccLLkDzL.s:23219  .debug_str:00000000000132c4 .LASF2975
C:\Users\SOLDER~1\AppData\Local\Temp\ccLLkDzL.s:20803  .debug_str:000000000000953f .LASF2976
C:\Users\SOLDER~1\AppData\Local\Temp\ccLLkDzL.s:26879  .debug_str:0000000000022149 .LASF2977
C:\Users\SOLDER~1\AppData\Local\Temp\ccLLkDzL.s:29515  .debug_str:000000000002ceb3 .LASF2978
C:\Users\SOLDER~1\AppData\Local\Temp\ccLLkDzL.s:21491  .debug_str:000000000000c215 .LASF2979
C:\Users\SOLDER~1\AppData\Local\Temp\ccLLkDzL.s:27105  .debug_str:0000000000023037 .LASF2980
GAS LISTING C:\Users\SOLDER~1\AppData\Local\Temp\ccLLkDzL.s 			page 66


C:\Users\SOLDER~1\AppData\Local\Temp\ccLLkDzL.s:21089  .debug_str:000000000000a7f1 .LASF2981
C:\Users\SOLDER~1\AppData\Local\Temp\ccLLkDzL.s:29497  .debug_str:000000000002cd6b .LASF2982
C:\Users\SOLDER~1\AppData\Local\Temp\ccLLkDzL.s:23893  .debug_str:0000000000015ffe .LASF2983
C:\Users\SOLDER~1\AppData\Local\Temp\ccLLkDzL.s:25823  .debug_str:000000000001dcf1 .LASF2984
C:\Users\SOLDER~1\AppData\Local\Temp\ccLLkDzL.s:24687  .debug_str:0000000000019371 .LASF2985
C:\Users\SOLDER~1\AppData\Local\Temp\ccLLkDzL.s:19455  .debug_str:0000000000003d82 .LASF2986
C:\Users\SOLDER~1\AppData\Local\Temp\ccLLkDzL.s:29409  .debug_str:000000000002c7be .LASF2987
C:\Users\SOLDER~1\AppData\Local\Temp\ccLLkDzL.s:23117  .debug_str:0000000000012c26 .LASF2988
C:\Users\SOLDER~1\AppData\Local\Temp\ccLLkDzL.s:23307  .debug_str:0000000000013922 .LASF2989
C:\Users\SOLDER~1\AppData\Local\Temp\ccLLkDzL.s:19903  .debug_str:00000000000059ca .LASF2990
C:\Users\SOLDER~1\AppData\Local\Temp\ccLLkDzL.s:29909  .debug_str:000000000002e852 .LASF2991
C:\Users\SOLDER~1\AppData\Local\Temp\ccLLkDzL.s:19007  .debug_str:0000000000002099 .LASF2992
C:\Users\SOLDER~1\AppData\Local\Temp\ccLLkDzL.s:28051  .debug_str:0000000000026f25 .LASF2993
C:\Users\SOLDER~1\AppData\Local\Temp\ccLLkDzL.s:24693  .debug_str:00000000000193c5 .LASF2994
C:\Users\SOLDER~1\AppData\Local\Temp\ccLLkDzL.s:19193  .debug_str:0000000000002c99 .LASF2995
C:\Users\SOLDER~1\AppData\Local\Temp\ccLLkDzL.s:27869  .debug_str:0000000000026345 .LASF2996
C:\Users\SOLDER~1\AppData\Local\Temp\ccLLkDzL.s:21859  .debug_str:000000000000da47 .LASF2997
C:\Users\SOLDER~1\AppData\Local\Temp\ccLLkDzL.s:23381  .debug_str:0000000000013e57 .LASF2998
C:\Users\SOLDER~1\AppData\Local\Temp\ccLLkDzL.s:29957  .debug_str:000000000002eb49 .LASF2999
C:\Users\SOLDER~1\AppData\Local\Temp\ccLLkDzL.s:22389  .debug_str:000000000000fd81 .LASF3000
C:\Users\SOLDER~1\AppData\Local\Temp\ccLLkDzL.s:26035  .debug_str:000000000001eac2 .LASF3001
C:\Users\SOLDER~1\AppData\Local\Temp\ccLLkDzL.s:23261  .debug_str:00000000000135ae .LASF3002
C:\Users\SOLDER~1\AppData\Local\Temp\ccLLkDzL.s:26833  .debug_str:0000000000021eab .LASF3003
C:\Users\SOLDER~1\AppData\Local\Temp\ccLLkDzL.s:23799  .debug_str:00000000000159ea .LASF3004
C:\Users\SOLDER~1\AppData\Local\Temp\ccLLkDzL.s:27489  .debug_str:00000000000249b3 .LASF3005
C:\Users\SOLDER~1\AppData\Local\Temp\ccLLkDzL.s:25321  .debug_str:000000000001bb94 .LASF3006
C:\Users\SOLDER~1\AppData\Local\Temp\ccLLkDzL.s:26887  .debug_str:00000000000221ce .LASF3007
C:\Users\SOLDER~1\AppData\Local\Temp\ccLLkDzL.s:25951  .debug_str:000000000001e520 .LASF3008
C:\Users\SOLDER~1\AppData\Local\Temp\ccLLkDzL.s:29411  .debug_str:000000000002c7d7 .LASF3009
C:\Users\SOLDER~1\AppData\Local\Temp\ccLLkDzL.s:24995  .debug_str:000000000001a6ea .LASF3010
C:\Users\SOLDER~1\AppData\Local\Temp\ccLLkDzL.s:29639  .debug_str:000000000002d6db .LASF3011
C:\Users\SOLDER~1\AppData\Local\Temp\ccLLkDzL.s:26301  .debug_str:000000000001fc28 .LASF3012
C:\Users\SOLDER~1\AppData\Local\Temp\ccLLkDzL.s:20825  .debug_str:0000000000009689 .LASF3013
C:\Users\SOLDER~1\AppData\Local\Temp\ccLLkDzL.s:22483  .debug_str:000000000001037d .LASF3014
C:\Users\SOLDER~1\AppData\Local\Temp\ccLLkDzL.s:23365  .debug_str:0000000000013d41 .LASF3015
C:\Users\SOLDER~1\AppData\Local\Temp\ccLLkDzL.s:24329  .debug_str:0000000000017bc8 .LASF3016
C:\Users\SOLDER~1\AppData\Local\Temp\ccLLkDzL.s:21441  .debug_str:000000000000bead .LASF3017
C:\Users\SOLDER~1\AppData\Local\Temp\ccLLkDzL.s:20855  .debug_str:0000000000009889 .LASF3018
C:\Users\SOLDER~1\AppData\Local\Temp\ccLLkDzL.s:19555  .debug_str:00000000000043dc .LASF3019
C:\Users\SOLDER~1\AppData\Local\Temp\ccLLkDzL.s:29855  .debug_str:000000000002e497 .LASF3020
C:\Users\SOLDER~1\AppData\Local\Temp\ccLLkDzL.s:29181  .debug_str:000000000002b8dd .LASF3021
C:\Users\SOLDER~1\AppData\Local\Temp\ccLLkDzL.s:25815  .debug_str:000000000001dc61 .LASF3022
C:\Users\SOLDER~1\AppData\Local\Temp\ccLLkDzL.s:27237  .debug_str:00000000000238d1 .LASF3023
C:\Users\SOLDER~1\AppData\Local\Temp\ccLLkDzL.s:27807  .debug_str:0000000000025eca .LASF3024
C:\Users\SOLDER~1\AppData\Local\Temp\ccLLkDzL.s:25473  .debug_str:000000000001c5f1 .LASF3025
C:\Users\SOLDER~1\AppData\Local\Temp\ccLLkDzL.s:19095  .debug_str:000000000000266d .LASF3026
C:\Users\SOLDER~1\AppData\Local\Temp\ccLLkDzL.s:23597  .debug_str:0000000000014cdf .LASF3027
C:\Users\SOLDER~1\AppData\Local\Temp\ccLLkDzL.s:28137  .debug_str:00000000000274cf .LASF3028
C:\Users\SOLDER~1\AppData\Local\Temp\ccLLkDzL.s:21691  .debug_str:000000000000cfae .LASF3029
C:\Users\SOLDER~1\AppData\Local\Temp\ccLLkDzL.s:26793  .debug_str:0000000000021c29 .LASF3030
C:\Users\SOLDER~1\AppData\Local\Temp\ccLLkDzL.s:19059  .debug_str:0000000000002429 .LASF3031
C:\Users\SOLDER~1\AppData\Local\Temp\ccLLkDzL.s:27093  .debug_str:0000000000022f84 .LASF3032
C:\Users\SOLDER~1\AppData\Local\Temp\ccLLkDzL.s:29431  .debug_str:000000000002c921 .LASF3033
C:\Users\SOLDER~1\AppData\Local\Temp\ccLLkDzL.s:22995  .debug_str:0000000000012405 .LASF3034
C:\Users\SOLDER~1\AppData\Local\Temp\ccLLkDzL.s:28805  .debug_str:000000000002a078 .LASF3035
C:\Users\SOLDER~1\AppData\Local\Temp\ccLLkDzL.s:20987  .debug_str:000000000000a139 .LASF3036
C:\Users\SOLDER~1\AppData\Local\Temp\ccLLkDzL.s:25109  .debug_str:000000000001ae6c .LASF3037
GAS LISTING C:\Users\SOLDER~1\AppData\Local\Temp\ccLLkDzL.s 			page 67


C:\Users\SOLDER~1\AppData\Local\Temp\ccLLkDzL.s:18913  .debug_str:0000000000001a70 .LASF3038
C:\Users\SOLDER~1\AppData\Local\Temp\ccLLkDzL.s:18965  .debug_str:0000000000001dee .LASF3039
C:\Users\SOLDER~1\AppData\Local\Temp\ccLLkDzL.s:19133  .debug_str:000000000000290e .LASF3040
C:\Users\SOLDER~1\AppData\Local\Temp\ccLLkDzL.s:23839  .debug_str:0000000000015c76 .LASF3041
C:\Users\SOLDER~1\AppData\Local\Temp\ccLLkDzL.s:22555  .debug_str:000000000001080f .LASF3042
C:\Users\SOLDER~1\AppData\Local\Temp\ccLLkDzL.s:22101  .debug_str:000000000000ea5c .LASF3043
C:\Users\SOLDER~1\AppData\Local\Temp\ccLLkDzL.s:24643  .debug_str:0000000000019077 .LASF3044
C:\Users\SOLDER~1\AppData\Local\Temp\ccLLkDzL.s:20483  .debug_str:0000000000008007 .LASF3045
C:\Users\SOLDER~1\AppData\Local\Temp\ccLLkDzL.s:21765  .debug_str:000000000000d479 .LASF3046
C:\Users\SOLDER~1\AppData\Local\Temp\ccLLkDzL.s:24389  .debug_str:000000000001800b .LASF3047
C:\Users\SOLDER~1\AppData\Local\Temp\ccLLkDzL.s:27035  .debug_str:0000000000022be0 .LASF3048
C:\Users\SOLDER~1\AppData\Local\Temp\ccLLkDzL.s:22921  .debug_str:0000000000011f39 .LASF3049
C:\Users\SOLDER~1\AppData\Local\Temp\ccLLkDzL.s:26203  .debug_str:000000000001f615 .LASF3050
C:\Users\SOLDER~1\AppData\Local\Temp\ccLLkDzL.s:20601  .debug_str:00000000000087af .LASF3051
C:\Users\SOLDER~1\AppData\Local\Temp\ccLLkDzL.s:21431  .debug_str:000000000000be00 .LASF3052
C:\Users\SOLDER~1\AppData\Local\Temp\ccLLkDzL.s:18805  .debug_str:0000000000001397 .LASF3053
C:\Users\SOLDER~1\AppData\Local\Temp\ccLLkDzL.s:29795  .debug_str:000000000002e0b7 .LASF3054
C:\Users\SOLDER~1\AppData\Local\Temp\ccLLkDzL.s:28379  .debug_str:0000000000028478 .LASF3055
C:\Users\SOLDER~1\AppData\Local\Temp\ccLLkDzL.s:23721  .debug_str:00000000000154fa .LASF3056
C:\Users\SOLDER~1\AppData\Local\Temp\ccLLkDzL.s:26473  .debug_str:0000000000020760 .LASF3057
C:\Users\SOLDER~1\AppData\Local\Temp\ccLLkDzL.s:23037  .debug_str:00000000000126a6 .LASF3058
C:\Users\SOLDER~1\AppData\Local\Temp\ccLLkDzL.s:23613  .debug_str:0000000000014ddf .LASF3059
C:\Users\SOLDER~1\AppData\Local\Temp\ccLLkDzL.s:20621  .debug_str:00000000000088dc .LASF3060
C:\Users\SOLDER~1\AppData\Local\Temp\ccLLkDzL.s:22721  .debug_str:0000000000011271 .LASF3061
C:\Users\SOLDER~1\AppData\Local\Temp\ccLLkDzL.s:24831  .debug_str:0000000000019c3b .LASF3062
C:\Users\SOLDER~1\AppData\Local\Temp\ccLLkDzL.s:18933  .debug_str:0000000000001bc4 .LASF3063
C:\Users\SOLDER~1\AppData\Local\Temp\ccLLkDzL.s:19443  .debug_str:0000000000003cc1 .LASF3064
C:\Users\SOLDER~1\AppData\Local\Temp\ccLLkDzL.s:28059  .debug_str:0000000000026fbe .LASF3065
C:\Users\SOLDER~1\AppData\Local\Temp\ccLLkDzL.s:24333  .debug_str:0000000000017c16 .LASF3066
C:\Users\SOLDER~1\AppData\Local\Temp\ccLLkDzL.s:25213  .debug_str:000000000001b4e6 .LASF3067
C:\Users\SOLDER~1\AppData\Local\Temp\ccLLkDzL.s:22577  .debug_str:0000000000010974 .LASF3068
C:\Users\SOLDER~1\AppData\Local\Temp\ccLLkDzL.s:24439  .debug_str:000000000001830d .LASF3069
C:\Users\SOLDER~1\AppData\Local\Temp\ccLLkDzL.s:29079  .debug_str:000000000002b24f .LASF3070
C:\Users\SOLDER~1\AppData\Local\Temp\ccLLkDzL.s:26059  .debug_str:000000000001ec5b .LASF3071
C:\Users\SOLDER~1\AppData\Local\Temp\ccLLkDzL.s:20847  .debug_str:00000000000097f8 .LASF3072
C:\Users\SOLDER~1\AppData\Local\Temp\ccLLkDzL.s:28905  .debug_str:000000000002a6e9 .LASF3073
C:\Users\SOLDER~1\AppData\Local\Temp\ccLLkDzL.s:28397  .debug_str:00000000000285d2 .LASF3074
C:\Users\SOLDER~1\AppData\Local\Temp\ccLLkDzL.s:29421  .debug_str:000000000002c886 .LASF3075
C:\Users\SOLDER~1\AppData\Local\Temp\ccLLkDzL.s:25895  .debug_str:000000000001e17e .LASF3076
C:\Users\SOLDER~1\AppData\Local\Temp\ccLLkDzL.s:29307  .debug_str:000000000002c173 .LASF3077
C:\Users\SOLDER~1\AppData\Local\Temp\ccLLkDzL.s:20463  .debug_str:0000000000007eb2 .LASF3078
C:\Users\SOLDER~1\AppData\Local\Temp\ccLLkDzL.s:25705  .debug_str:000000000001d568 .LASF3079
C:\Users\SOLDER~1\AppData\Local\Temp\ccLLkDzL.s:28359  .debug_str:0000000000028336 .LASF3080
C:\Users\SOLDER~1\AppData\Local\Temp\ccLLkDzL.s:21345  .debug_str:000000000000b864 .LASF3081
C:\Users\SOLDER~1\AppData\Local\Temp\ccLLkDzL.s:28643  .debug_str:00000000000295c8 .LASF3082
C:\Users\SOLDER~1\AppData\Local\Temp\ccLLkDzL.s:19447  .debug_str:0000000000003d09 .LASF3083
C:\Users\SOLDER~1\AppData\Local\Temp\ccLLkDzL.s:20017  .debug_str:000000000000617d .LASF3084
C:\Users\SOLDER~1\AppData\Local\Temp\ccLLkDzL.s:29065  .debug_str:000000000002b18c .LASF3085
C:\Users\SOLDER~1\AppData\Local\Temp\ccLLkDzL.s:23677  .debug_str:0000000000015210 .LASF3086
C:\Users\SOLDER~1\AppData\Local\Temp\ccLLkDzL.s:27137  .debug_str:000000000002328d .LASF3087
C:\Users\SOLDER~1\AppData\Local\Temp\ccLLkDzL.s:23643  .debug_str:0000000000014fc1 .LASF3088
C:\Users\SOLDER~1\AppData\Local\Temp\ccLLkDzL.s:25293  .debug_str:000000000001b9dc .LASF3089
C:\Users\SOLDER~1\AppData\Local\Temp\ccLLkDzL.s:24381  .debug_str:0000000000017f7c .LASF3090
C:\Users\SOLDER~1\AppData\Local\Temp\ccLLkDzL.s:28565  .debug_str:0000000000029085 .LASF3091
C:\Users\SOLDER~1\AppData\Local\Temp\ccLLkDzL.s:19863  .debug_str:0000000000005709 .LASF3092
C:\Users\SOLDER~1\AppData\Local\Temp\ccLLkDzL.s:21575  .debug_str:000000000000c7ef .LASF3093
C:\Users\SOLDER~1\AppData\Local\Temp\ccLLkDzL.s:27763  .debug_str:0000000000025baf .LASF3094
GAS LISTING C:\Users\SOLDER~1\AppData\Local\Temp\ccLLkDzL.s 			page 68


C:\Users\SOLDER~1\AppData\Local\Temp\ccLLkDzL.s:23899  .debug_str:0000000000016063 .LASF3095
C:\Users\SOLDER~1\AppData\Local\Temp\ccLLkDzL.s:26247  .debug_str:000000000001f8e6 .LASF3096
C:\Users\SOLDER~1\AppData\Local\Temp\ccLLkDzL.s:29321  .debug_str:000000000002c246 .LASF3097
C:\Users\SOLDER~1\AppData\Local\Temp\ccLLkDzL.s:22167  .debug_str:000000000000eeac .LASF3098
C:\Users\SOLDER~1\AppData\Local\Temp\ccLLkDzL.s:23933  .debug_str:0000000000016288 .LASF3099
C:\Users\SOLDER~1\AppData\Local\Temp\ccLLkDzL.s:29165  .debug_str:000000000002b7d4 .LASF3100
C:\Users\SOLDER~1\AppData\Local\Temp\ccLLkDzL.s:22799  .debug_str:000000000001179c .LASF3101
C:\Users\SOLDER~1\AppData\Local\Temp\ccLLkDzL.s:22125  .debug_str:000000000000ec08 .LASF3102
C:\Users\SOLDER~1\AppData\Local\Temp\ccLLkDzL.s:23699  .debug_str:000000000001538f .LASF3103
C:\Users\SOLDER~1\AppData\Local\Temp\ccLLkDzL.s:21183  .debug_str:000000000000ae14 .LASF3104
C:\Users\SOLDER~1\AppData\Local\Temp\ccLLkDzL.s:22009  .debug_str:000000000000e48c .LASF3105
C:\Users\SOLDER~1\AppData\Local\Temp\ccLLkDzL.s:28877  .debug_str:000000000002a544 .LASF3106
C:\Users\SOLDER~1\AppData\Local\Temp\ccLLkDzL.s:20367  .debug_str:000000000000783d .LASF3107
C:\Users\SOLDER~1\AppData\Local\Temp\ccLLkDzL.s:26705  .debug_str:000000000002167f .LASF3108
C:\Users\SOLDER~1\AppData\Local\Temp\ccLLkDzL.s:18747  .debug_str:0000000000000feb .LASF3109
C:\Users\SOLDER~1\AppData\Local\Temp\ccLLkDzL.s:23759  .debug_str:000000000001577a .LASF3110
C:\Users\SOLDER~1\AppData\Local\Temp\ccLLkDzL.s:19467  .debug_str:0000000000003e57 .LASF3111
C:\Users\SOLDER~1\AppData\Local\Temp\ccLLkDzL.s:27559  .debug_str:0000000000024e2a .LASF3112
C:\Users\SOLDER~1\AppData\Local\Temp\ccLLkDzL.s:27231  .debug_str:000000000002387b .LASF3113
C:\Users\SOLDER~1\AppData\Local\Temp\ccLLkDzL.s:25605  .debug_str:000000000001ceb6 .LASF3114
C:\Users\SOLDER~1\AppData\Local\Temp\ccLLkDzL.s:21535  .debug_str:000000000000c528 .LASF3115
C:\Users\SOLDER~1\AppData\Local\Temp\ccLLkDzL.s:27143  .debug_str:00000000000232f7 .LASF3116
C:\Users\SOLDER~1\AppData\Local\Temp\ccLLkDzL.s:22411  .debug_str:000000000000fef3 .LASF3117
C:\Users\SOLDER~1\AppData\Local\Temp\ccLLkDzL.s:25829  .debug_str:000000000001dd5e .LASF3118
C:\Users\SOLDER~1\AppData\Local\Temp\ccLLkDzL.s:25033  .debug_str:000000000001a92a .LASF3119
C:\Users\SOLDER~1\AppData\Local\Temp\ccLLkDzL.s:25767  .debug_str:000000000001d90d .LASF3120
C:\Users\SOLDER~1\AppData\Local\Temp\ccLLkDzL.s:23331  .debug_str:0000000000013af5 .LASF3121
C:\Users\SOLDER~1\AppData\Local\Temp\ccLLkDzL.s:28819  .debug_str:000000000002a179 .LASF3122
C:\Users\SOLDER~1\AppData\Local\Temp\ccLLkDzL.s:20145  .debug_str:0000000000006a18 .LASF3123
C:\Users\SOLDER~1\AppData\Local\Temp\ccLLkDzL.s:20941  .debug_str:0000000000009e17 .LASF3124
C:\Users\SOLDER~1\AppData\Local\Temp\ccLLkDzL.s:20043  .debug_str:0000000000006339 .LASF3125
C:\Users\SOLDER~1\AppData\Local\Temp\ccLLkDzL.s:22947  .debug_str:00000000000120e4 .LASF3126
C:\Users\SOLDER~1\AppData\Local\Temp\ccLLkDzL.s:19243  .debug_str:0000000000002fe6 .LASF3127
C:\Users\SOLDER~1\AppData\Local\Temp\ccLLkDzL.s:28337  .debug_str:00000000000281d9 .LASF3128
C:\Users\SOLDER~1\AppData\Local\Temp\ccLLkDzL.s:28173  .debug_str:0000000000027723 .LASF3129
C:\Users\SOLDER~1\AppData\Local\Temp\ccLLkDzL.s:22347  .debug_str:000000000000fa91 .LASF3130
C:\Users\SOLDER~1\AppData\Local\Temp\ccLLkDzL.s:28639  .debug_str:0000000000029585 .LASF3131
C:\Users\SOLDER~1\AppData\Local\Temp\ccLLkDzL.s:23419  .debug_str:00000000000140e5 .LASF3132
C:\Users\SOLDER~1\AppData\Local\Temp\ccLLkDzL.s:20791  .debug_str:0000000000009498 .LASF3133
C:\Users\SOLDER~1\AppData\Local\Temp\ccLLkDzL.s:18993  .debug_str:0000000000001fac .LASF3134
C:\Users\SOLDER~1\AppData\Local\Temp\ccLLkDzL.s:22185  .debug_str:000000000000efc2 .LASF3135
C:\Users\SOLDER~1\AppData\Local\Temp\ccLLkDzL.s:24213  .debug_str:0000000000017457 .LASF3136
C:\Users\SOLDER~1\AppData\Local\Temp\ccLLkDzL.s:20561  .debug_str:000000000000851c .LASF3137
C:\Users\SOLDER~1\AppData\Local\Temp\ccLLkDzL.s:26319  .debug_str:000000000001fd4c .LASF3138
C:\Users\SOLDER~1\AppData\Local\Temp\ccLLkDzL.s:27193  .debug_str:0000000000023645 .LASF3139
C:\Users\SOLDER~1\AppData\Local\Temp\ccLLkDzL.s:18631  .debug_str:0000000000000810 .LASF3140
C:\Users\SOLDER~1\AppData\Local\Temp\ccLLkDzL.s:28917  .debug_str:000000000002a790 .LASF3141
C:\Users\SOLDER~1\AppData\Local\Temp\ccLLkDzL.s:20265  .debug_str:00000000000071f4 .LASF3142
C:\Users\SOLDER~1\AppData\Local\Temp\ccLLkDzL.s:19837  .debug_str:000000000000553d .LASF3143
C:\Users\SOLDER~1\AppData\Local\Temp\ccLLkDzL.s:24313  .debug_str:0000000000017abd .LASF3144
C:\Users\SOLDER~1\AppData\Local\Temp\ccLLkDzL.s:28999  .debug_str:000000000002acde .LASF3145
C:\Users\SOLDER~1\AppData\Local\Temp\ccLLkDzL.s:20837  .debug_str:000000000000975f .LASF3146
C:\Users\SOLDER~1\AppData\Local\Temp\ccLLkDzL.s:26631  .debug_str:00000000000211d9 .LASF3147
C:\Users\SOLDER~1\AppData\Local\Temp\ccLLkDzL.s:19917  .debug_str:0000000000005acf .LASF3148
C:\Users\SOLDER~1\AppData\Local\Temp\ccLLkDzL.s:24345  .debug_str:0000000000017cf3 .LASF3149
C:\Users\SOLDER~1\AppData\Local\Temp\ccLLkDzL.s:28447  .debug_str:0000000000028911 .LASF3150
C:\Users\SOLDER~1\AppData\Local\Temp\ccLLkDzL.s:26609  .debug_str:0000000000021077 .LASF3151
GAS LISTING C:\Users\SOLDER~1\AppData\Local\Temp\ccLLkDzL.s 			page 69


C:\Users\SOLDER~1\AppData\Local\Temp\ccLLkDzL.s:27787  .debug_str:0000000000025d5f .LASF3152
C:\Users\SOLDER~1\AppData\Local\Temp\ccLLkDzL.s:24755  .debug_str:0000000000019787 .LASF3153
C:\Users\SOLDER~1\AppData\Local\Temp\ccLLkDzL.s:19081  .debug_str:000000000000258c .LASF3154
C:\Users\SOLDER~1\AppData\Local\Temp\ccLLkDzL.s:22847  .debug_str:0000000000011aad .LASF3155
C:\Users\SOLDER~1\AppData\Local\Temp\ccLLkDzL.s:28125  .debug_str:000000000002740f .LASF3156
C:\Users\SOLDER~1\AppData\Local\Temp\ccLLkDzL.s:20953  .debug_str:0000000000009ef2 .LASF3157
C:\Users\SOLDER~1\AppData\Local\Temp\ccLLkDzL.s:26773  .debug_str:0000000000021ac9 .LASF3158
C:\Users\SOLDER~1\AppData\Local\Temp\ccLLkDzL.s:19167  .debug_str:0000000000002afd .LASF3159
C:\Users\SOLDER~1\AppData\Local\Temp\ccLLkDzL.s:27079  .debug_str:0000000000022e97 .LASF3160
C:\Users\SOLDER~1\AppData\Local\Temp\ccLLkDzL.s:28769  .debug_str:0000000000029df2 .LASF3161
C:\Users\SOLDER~1\AppData\Local\Temp\ccLLkDzL.s:29439  .debug_str:000000000002c9a1 .LASF3162
C:\Users\SOLDER~1\AppData\Local\Temp\ccLLkDzL.s:29069  .debug_str:000000000002b1bb .LASF3163
C:\Users\SOLDER~1\AppData\Local\Temp\ccLLkDzL.s:26451  .debug_str:00000000000205ef .LASF3164
C:\Users\SOLDER~1\AppData\Local\Temp\ccLLkDzL.s:22017  .debug_str:000000000000e500 .LASF3165
C:\Users\SOLDER~1\AppData\Local\Temp\ccLLkDzL.s:27045  .debug_str:0000000000022c7f .LASF3166
C:\Users\SOLDER~1\AppData\Local\Temp\ccLLkDzL.s:22853  .debug_str:0000000000011b20 .LASF3167
C:\Users\SOLDER~1\AppData\Local\Temp\ccLLkDzL.s:29581  .debug_str:000000000002d327 .LASF3168
C:\Users\SOLDER~1\AppData\Local\Temp\ccLLkDzL.s:21221  .debug_str:000000000000b05e .LASF3169
C:\Users\SOLDER~1\AppData\Local\Temp\ccLLkDzL.s:27767  .debug_str:0000000000025bf5 .LASF3170
C:\Users\SOLDER~1\AppData\Local\Temp\ccLLkDzL.s:19491  .debug_str:0000000000003fc6 .LASF3171
C:\Users\SOLDER~1\AppData\Local\Temp\ccLLkDzL.s:27765  .debug_str:0000000000025bd4 .LASF3172
C:\Users\SOLDER~1\AppData\Local\Temp\ccLLkDzL.s:19565  .debug_str:0000000000004474 .LASF3173
C:\Users\SOLDER~1\AppData\Local\Temp\ccLLkDzL.s:23845  .debug_str:0000000000015cd3 .LASF3174
C:\Users\SOLDER~1\AppData\Local\Temp\ccLLkDzL.s:24829  .debug_str:0000000000019c28 .LASF3175
C:\Users\SOLDER~1\AppData\Local\Temp\ccLLkDzL.s:25627  .debug_str:000000000001d06f .LASF3176
C:\Users\SOLDER~1\AppData\Local\Temp\ccLLkDzL.s:22917  .debug_str:0000000000011f04 .LASF3177
C:\Users\SOLDER~1\AppData\Local\Temp\ccLLkDzL.s:25135  .debug_str:000000000001afe5 .LASF3178
C:\Users\SOLDER~1\AppData\Local\Temp\ccLLkDzL.s:21021  .debug_str:000000000000a36d .LASF3179
C:\Users\SOLDER~1\AppData\Local\Temp\ccLLkDzL.s:27563  .debug_str:0000000000024e73 .LASF3180
C:\Users\SOLDER~1\AppData\Local\Temp\ccLLkDzL.s:21371  .debug_str:000000000000ba1b .LASF3181
C:\Users\SOLDER~1\AppData\Local\Temp\ccLLkDzL.s:26015  .debug_str:000000000001e991 .LASF3182
C:\Users\SOLDER~1\AppData\Local\Temp\ccLLkDzL.s:28835  .debug_str:000000000002a286 .LASF3183
C:\Users\SOLDER~1\AppData\Local\Temp\ccLLkDzL.s:28429  .debug_str:00000000000287e8 .LASF3184
C:\Users\SOLDER~1\AppData\Local\Temp\ccLLkDzL.s:26913  .debug_str:000000000002239c .LASF3185
C:\Users\SOLDER~1\AppData\Local\Temp\ccLLkDzL.s:26581  .debug_str:0000000000020e61 .LASF3186
C:\Users\SOLDER~1\AppData\Local\Temp\ccLLkDzL.s:25059  .debug_str:000000000001ab4a .LASF3187
C:\Users\SOLDER~1\AppData\Local\Temp\ccLLkDzL.s:22121  .debug_str:000000000000ebc1 .LASF3188
C:\Users\SOLDER~1\AppData\Local\Temp\ccLLkDzL.s:23173  .debug_str:0000000000012fa2 .LASF3189
C:\Users\SOLDER~1\AppData\Local\Temp\ccLLkDzL.s:18773  .debug_str:0000000000001193 .LASF3190
C:\Users\SOLDER~1\AppData\Local\Temp\ccLLkDzL.s:21031  .debug_str:000000000000a413 .LASF3191
C:\Users\SOLDER~1\AppData\Local\Temp\ccLLkDzL.s:28487  .debug_str:0000000000028b8e .LASF3192
C:\Users\SOLDER~1\AppData\Local\Temp\ccLLkDzL.s:19385  .debug_str:000000000000390a .LASF3193
C:\Users\SOLDER~1\AppData\Local\Temp\ccLLkDzL.s:23849  .debug_str:0000000000015d17 .LASF3194
C:\Users\SOLDER~1\AppData\Local\Temp\ccLLkDzL.s:28907  .debug_str:000000000002a704 .LASF3195
C:\Users\SOLDER~1\AppData\Local\Temp\ccLLkDzL.s:20991  .debug_str:000000000000a181 .LASF3196
C:\Users\SOLDER~1\AppData\Local\Temp\ccLLkDzL.s:27221  .debug_str:0000000000023807 .LASF3197
C:\Users\SOLDER~1\AppData\Local\Temp\ccLLkDzL.s:25471  .debug_str:000000000001c5cf .LASF3198
C:\Users\SOLDER~1\AppData\Local\Temp\ccLLkDzL.s:26795  .debug_str:0000000000021c4b .LASF3199
C:\Users\SOLDER~1\AppData\Local\Temp\ccLLkDzL.s:24561  .debug_str:0000000000018b12 .LASF3200
C:\Users\SOLDER~1\AppData\Local\Temp\ccLLkDzL.s:23929  .debug_str:0000000000016254 .LASF3201
C:\Users\SOLDER~1\AppData\Local\Temp\ccLLkDzL.s:20731  .debug_str:0000000000009065 .LASF3202
C:\Users\SOLDER~1\AppData\Local\Temp\ccLLkDzL.s:27281  .debug_str:0000000000023bbe .LASF3203
C:\Users\SOLDER~1\AppData\Local\Temp\ccLLkDzL.s:22051  .debug_str:000000000000e76b .LASF3204
C:\Users\SOLDER~1\AppData\Local\Temp\ccLLkDzL.s:20567  .debug_str:0000000000008572 .LASF3205
C:\Users\SOLDER~1\AppData\Local\Temp\ccLLkDzL.s:20079  .debug_str:000000000000658e .LASF3206
C:\Users\SOLDER~1\AppData\Local\Temp\ccLLkDzL.s:27805  .debug_str:0000000000025eb6 .LASF3207
C:\Users\SOLDER~1\AppData\Local\Temp\ccLLkDzL.s:20913  .debug_str:0000000000009c18 .LASF3208
GAS LISTING C:\Users\SOLDER~1\AppData\Local\Temp\ccLLkDzL.s 			page 70


C:\Users\SOLDER~1\AppData\Local\Temp\ccLLkDzL.s:22953  .debug_str:0000000000012142 .LASF3209
C:\Users\SOLDER~1\AppData\Local\Temp\ccLLkDzL.s:22949  .debug_str:0000000000012109 .LASF3210
C:\Users\SOLDER~1\AppData\Local\Temp\ccLLkDzL.s:24007  .debug_str:00000000000166fb .LASF3211
C:\Users\SOLDER~1\AppData\Local\Temp\ccLLkDzL.s:28309  .debug_str:000000000002802c .LASF3212
C:\Users\SOLDER~1\AppData\Local\Temp\ccLLkDzL.s:27939  .debug_str:00000000000267bb .LASF3213
C:\Users\SOLDER~1\AppData\Local\Temp\ccLLkDzL.s:25657  .debug_str:000000000001d278 .LASF3214
C:\Users\SOLDER~1\AppData\Local\Temp\ccLLkDzL.s:19949  .debug_str:0000000000005ce7 .LASF3215
C:\Users\SOLDER~1\AppData\Local\Temp\ccLLkDzL.s:27383  .debug_str:0000000000024296 .LASF3216
C:\Users\SOLDER~1\AppData\Local\Temp\ccLLkDzL.s:28635  .debug_str:0000000000029548 .LASF3217
C:\Users\SOLDER~1\AppData\Local\Temp\ccLLkDzL.s:22201  .debug_str:000000000000f0bf .LASF3218
C:\Users\SOLDER~1\AppData\Local\Temp\ccLLkDzL.s:25805  .debug_str:000000000001dbaa .LASF3219
C:\Users\SOLDER~1\AppData\Local\Temp\ccLLkDzL.s:23981  .debug_str:0000000000016561 .LASF3220
C:\Users\SOLDER~1\AppData\Local\Temp\ccLLkDzL.s:25811  .debug_str:000000000001dc19 .LASF3221
C:\Users\SOLDER~1\AppData\Local\Temp\ccLLkDzL.s:21143  .debug_str:000000000000ab6a .LASF3222
C:\Users\SOLDER~1\AppData\Local\Temp\ccLLkDzL.s:20613  .debug_str:000000000000885b .LASF3223
C:\Users\SOLDER~1\AppData\Local\Temp\ccLLkDzL.s:29451  .debug_str:000000000002ca62 .LASF3224
C:\Users\SOLDER~1\AppData\Local\Temp\ccLLkDzL.s:20301  .debug_str:0000000000007456 .LASF3225
C:\Users\SOLDER~1\AppData\Local\Temp\ccLLkDzL.s:28525  .debug_str:0000000000028dd9 .LASF3226
C:\Users\SOLDER~1\AppData\Local\Temp\ccLLkDzL.s:26545  .debug_str:0000000000020c18 .LASF3227
C:\Users\SOLDER~1\AppData\Local\Temp\ccLLkDzL.s:24023  .debug_str:0000000000016812 .LASF3228
C:\Users\SOLDER~1\AppData\Local\Temp\ccLLkDzL.s:21337  .debug_str:000000000000b7e5 .LASF3229
C:\Users\SOLDER~1\AppData\Local\Temp\ccLLkDzL.s:18713  .debug_str:0000000000000deb .LASF3230
C:\Users\SOLDER~1\AppData\Local\Temp\ccLLkDzL.s:27661  .debug_str:00000000000254ac .LASF3231
C:\Users\SOLDER~1\AppData\Local\Temp\ccLLkDzL.s:28799  .debug_str:000000000002a010 .LASF3232
C:\Users\SOLDER~1\AppData\Local\Temp\ccLLkDzL.s:18961  .debug_str:0000000000001db4 .LASF3233
C:\Users\SOLDER~1\AppData\Local\Temp\ccLLkDzL.s:23015  .debug_str:0000000000012561 .LASF3234
C:\Users\SOLDER~1\AppData\Local\Temp\ccLLkDzL.s:29699  .debug_str:000000000002da86 .LASF3235
C:\Users\SOLDER~1\AppData\Local\Temp\ccLLkDzL.s:27497  .debug_str:0000000000024a41 .LASF3236
C:\Users\SOLDER~1\AppData\Local\Temp\ccLLkDzL.s:22145  .debug_str:000000000000ed3f .LASF3237
C:\Users\SOLDER~1\AppData\Local\Temp\ccLLkDzL.s:25775  .debug_str:000000000001d9a6 .LASF3238
C:\Users\SOLDER~1\AppData\Local\Temp\ccLLkDzL.s:29353  .debug_str:000000000002c434 .LASF3239
C:\Users\SOLDER~1\AppData\Local\Temp\ccLLkDzL.s:29677  .debug_str:000000000002d91b .LASF3240
C:\Users\SOLDER~1\AppData\Local\Temp\ccLLkDzL.s:27545  .debug_str:0000000000024d57 .LASF3241
C:\Users\SOLDER~1\AppData\Local\Temp\ccLLkDzL.s:29249  .debug_str:000000000002bd43 .LASF3242
C:\Users\SOLDER~1\AppData\Local\Temp\ccLLkDzL.s:23207  .debug_str:0000000000013202 .LASF3243
C:\Users\SOLDER~1\AppData\Local\Temp\ccLLkDzL.s:22391  .debug_str:000000000000fda9 .LASF3244
C:\Users\SOLDER~1\AppData\Local\Temp\ccLLkDzL.s:28257  .debug_str:0000000000027c9f .LASF3245
C:\Users\SOLDER~1\AppData\Local\Temp\ccLLkDzL.s:25947  .debug_str:000000000001e4d0 .LASF3246
C:\Users\SOLDER~1\AppData\Local\Temp\ccLLkDzL.s:28417  .debug_str:000000000002873f .LASF3247
C:\Users\SOLDER~1\AppData\Local\Temp\ccLLkDzL.s:22243  .debug_str:000000000000f380 .LASF3248
C:\Users\SOLDER~1\AppData\Local\Temp\ccLLkDzL.s:29149  .debug_str:000000000002b6e0 .LASF3249
C:\Users\SOLDER~1\AppData\Local\Temp\ccLLkDzL.s:23625  .debug_str:0000000000014e7e .LASF3250
C:\Users\SOLDER~1\AppData\Local\Temp\ccLLkDzL.s:29791  .debug_str:000000000002e075 .LASF3251
C:\Users\SOLDER~1\AppData\Local\Temp\ccLLkDzL.s:28871  .debug_str:000000000002a4cb .LASF3252
C:\Users\SOLDER~1\AppData\Local\Temp\ccLLkDzL.s:27845  .debug_str:0000000000026181 .LASF3253
C:\Users\SOLDER~1\AppData\Local\Temp\ccLLkDzL.s:28591  .debug_str:0000000000029236 .LASF3254
C:\Users\SOLDER~1\AppData\Local\Temp\ccLLkDzL.s:25453  .debug_str:000000000001c48d .LASF3255
C:\Users\SOLDER~1\AppData\Local\Temp\ccLLkDzL.s:22737  .debug_str:000000000001139b .LASF3256
C:\Users\SOLDER~1\AppData\Local\Temp\ccLLkDzL.s:20427  .debug_str:0000000000007c36 .LASF3257
C:\Users\SOLDER~1\AppData\Local\Temp\ccLLkDzL.s:21385  .debug_str:000000000000bb34 .LASF3258
C:\Users\SOLDER~1\AppData\Local\Temp\ccLLkDzL.s:25287  .debug_str:000000000001b977 .LASF3259
C:\Users\SOLDER~1\AppData\Local\Temp\ccLLkDzL.s:22547  .debug_str:0000000000010768 .LASF3260
C:\Users\SOLDER~1\AppData\Local\Temp\ccLLkDzL.s:25183  .debug_str:000000000001b2f5 .LASF3261
C:\Users\SOLDER~1\AppData\Local\Temp\ccLLkDzL.s:26811  .debug_str:0000000000021d50 .LASF3262
C:\Users\SOLDER~1\AppData\Local\Temp\ccLLkDzL.s:27369  .debug_str:0000000000024187 .LASF3263
C:\Users\SOLDER~1\AppData\Local\Temp\ccLLkDzL.s:20571  .debug_str:00000000000085a5 .LASF3264
C:\Users\SOLDER~1\AppData\Local\Temp\ccLLkDzL.s:28315  .debug_str:0000000000028087 .LASF3265
GAS LISTING C:\Users\SOLDER~1\AppData\Local\Temp\ccLLkDzL.s 			page 71


C:\Users\SOLDER~1\AppData\Local\Temp\ccLLkDzL.s:24745  .debug_str:00000000000196d7 .LASF3266
C:\Users\SOLDER~1\AppData\Local\Temp\ccLLkDzL.s:21539  .debug_str:000000000000c567 .LASF3267
C:\Users\SOLDER~1\AppData\Local\Temp\ccLLkDzL.s:20783  .debug_str:00000000000093e5 .LASF3268
C:\Users\SOLDER~1\AppData\Local\Temp\ccLLkDzL.s:20491  .debug_str:00000000000080a1 .LASF3269
C:\Users\SOLDER~1\AppData\Local\Temp\ccLLkDzL.s:22303  .debug_str:000000000000f778 .LASF3270
C:\Users\SOLDER~1\AppData\Local\Temp\ccLLkDzL.s:24491  .debug_str:0000000000018654 .LASF3271
C:\Users\SOLDER~1\AppData\Local\Temp\ccLLkDzL.s:23521  .debug_str:00000000000147c4 .LASF3272
C:\Users\SOLDER~1\AppData\Local\Temp\ccLLkDzL.s:25779  .debug_str:000000000001d9ea .LASF3273
C:\Users\SOLDER~1\AppData\Local\Temp\ccLLkDzL.s:19051  .debug_str:0000000000002399 .LASF3274
C:\Users\SOLDER~1\AppData\Local\Temp\ccLLkDzL.s:22045  .debug_str:000000000000e6dd .LASF3275
C:\Users\SOLDER~1\AppData\Local\Temp\ccLLkDzL.s:23693  .debug_str:0000000000015315 .LASF3276
C:\Users\SOLDER~1\AppData\Local\Temp\ccLLkDzL.s:26101  .debug_str:000000000001ef20 .LASF3277
C:\Users\SOLDER~1\AppData\Local\Temp\ccLLkDzL.s:26993  .debug_str:00000000000228f6 .LASF3278
C:\Users\SOLDER~1\AppData\Local\Temp\ccLLkDzL.s:29897  .debug_str:000000000002e777 .LASF3279
C:\Users\SOLDER~1\AppData\Local\Temp\ccLLkDzL.s:28779  .debug_str:0000000000029ea2 .LASF3280
C:\Users\SOLDER~1\AppData\Local\Temp\ccLLkDzL.s:29047  .debug_str:000000000002b049 .LASF3281
C:\Users\SOLDER~1\AppData\Local\Temp\ccLLkDzL.s:20657  .debug_str:0000000000008b5b .LASF3282
C:\Users\SOLDER~1\AppData\Local\Temp\ccLLkDzL.s:24331  .debug_str:0000000000017bea .LASF3283
C:\Users\SOLDER~1\AppData\Local\Temp\ccLLkDzL.s:29557  .debug_str:000000000002d190 .LASF3284
C:\Users\SOLDER~1\AppData\Local\Temp\ccLLkDzL.s:27465  .debug_str:0000000000024806 .LASF3285
C:\Users\SOLDER~1\AppData\Local\Temp\ccLLkDzL.s:22049  .debug_str:000000000000e738 .LASF3286
C:\Users\SOLDER~1\AppData\Local\Temp\ccLLkDzL.s:23563  .debug_str:0000000000014ab3 .LASF3287
C:\Users\SOLDER~1\AppData\Local\Temp\ccLLkDzL.s:21497  .debug_str:000000000000c27e .LASF3288
C:\Users\SOLDER~1\AppData\Local\Temp\ccLLkDzL.s:22755  .debug_str:00000000000114e7 .LASF3289
C:\Users\SOLDER~1\AppData\Local\Temp\ccLLkDzL.s:23369  .debug_str:0000000000013d78 .LASF3290
C:\Users\SOLDER~1\AppData\Local\Temp\ccLLkDzL.s:22751  .debug_str:000000000001149c .LASF3291
C:\Users\SOLDER~1\AppData\Local\Temp\ccLLkDzL.s:25975  .debug_str:000000000001e6cd .LASF3292
C:\Users\SOLDER~1\AppData\Local\Temp\ccLLkDzL.s:23137  .debug_str:0000000000012d62 .LASF3293
C:\Users\SOLDER~1\AppData\Local\Temp\ccLLkDzL.s:28239  .debug_str:0000000000027b54 .LASF3294
C:\Users\SOLDER~1\AppData\Local\Temp\ccLLkDzL.s:25649  .debug_str:000000000001d1ea .LASF3295
C:\Users\SOLDER~1\AppData\Local\Temp\ccLLkDzL.s:26779  .debug_str:0000000000021b3e .LASF3296
C:\Users\SOLDER~1\AppData\Local\Temp\ccLLkDzL.s:24315  .debug_str:0000000000017add .LASF3297
C:\Users\SOLDER~1\AppData\Local\Temp\ccLLkDzL.s:19867  .debug_str:0000000000005755 .LASF3298
C:\Users\SOLDER~1\AppData\Local\Temp\ccLLkDzL.s:22321  .debug_str:000000000000f8b1 .LASF3299
C:\Users\SOLDER~1\AppData\Local\Temp\ccLLkDzL.s:23889  .debug_str:0000000000015fb2 .LASF3300
C:\Users\SOLDER~1\AppData\Local\Temp\ccLLkDzL.s:25751  .debug_str:000000000001d80f .LASF3301
C:\Users\SOLDER~1\AppData\Local\Temp\ccLLkDzL.s:25323  .debug_str:000000000001bbbe .LASF3302
C:\Users\SOLDER~1\AppData\Local\Temp\ccLLkDzL.s:21675  .debug_str:000000000000ce6b .LASF3303
C:\Users\SOLDER~1\AppData\Local\Temp\ccLLkDzL.s:19275  .debug_str:00000000000031eb .LASF3304
C:\Users\SOLDER~1\AppData\Local\Temp\ccLLkDzL.s:25313  .debug_str:000000000001bb09 .LASF3305
C:\Users\SOLDER~1\AppData\Local\Temp\ccLLkDzL.s:20683  .debug_str:0000000000008d0a .LASF3306
C:\Users\SOLDER~1\AppData\Local\Temp\ccLLkDzL.s:22119  .debug_str:000000000000eb8e .LASF3307
C:\Users\SOLDER~1\AppData\Local\Temp\ccLLkDzL.s:19573  .debug_str:00000000000044d8 .LASF3308
C:\Users\SOLDER~1\AppData\Local\Temp\ccLLkDzL.s:22461  .debug_str:00000000000101eb .LASF3309
C:\Users\SOLDER~1\AppData\Local\Temp\ccLLkDzL.s:19755  .debug_str:0000000000005030 .LASF3310
C:\Users\SOLDER~1\AppData\Local\Temp\ccLLkDzL.s:18565  .debug_str:0000000000000334 .LASF3311
C:\Users\SOLDER~1\AppData\Local\Temp\ccLLkDzL.s:20957  .debug_str:0000000000009f31 .LASF3312
C:\Users\SOLDER~1\AppData\Local\Temp\ccLLkDzL.s:26043  .debug_str:000000000001eb4e .LASF3313
C:\Users\SOLDER~1\AppData\Local\Temp\ccLLkDzL.s:29863  .debug_str:000000000002e515 .LASF3314
C:\Users\SOLDER~1\AppData\Local\Temp\ccLLkDzL.s:18753  .debug_str:000000000000103e .LASF3315
C:\Users\SOLDER~1\AppData\Local\Temp\ccLLkDzL.s:19425  .debug_str:0000000000003ba3 .LASF3316
C:\Users\SOLDER~1\AppData\Local\Temp\ccLLkDzL.s:23945  .debug_str:0000000000016360 .LASF3317
C:\Users\SOLDER~1\AppData\Local\Temp\ccLLkDzL.s:24945  .debug_str:000000000001a37b .LASF3318
C:\Users\SOLDER~1\AppData\Local\Temp\ccLLkDzL.s:24499  .debug_str:00000000000186e4 .LASF3319
C:\Users\SOLDER~1\AppData\Local\Temp\ccLLkDzL.s:29551  .debug_str:000000000002d12b .LASF3320
C:\Users\SOLDER~1\AppData\Local\Temp\ccLLkDzL.s:26099  .debug_str:000000000001eef7 .LASF3321
C:\Users\SOLDER~1\AppData\Local\Temp\ccLLkDzL.s:22659  .debug_str:0000000000010e90 .LASF3322
GAS LISTING C:\Users\SOLDER~1\AppData\Local\Temp\ccLLkDzL.s 			page 72


C:\Users\SOLDER~1\AppData\Local\Temp\ccLLkDzL.s:19199  .debug_str:0000000000002cf7 .LASF3323
C:\Users\SOLDER~1\AppData\Local\Temp\ccLLkDzL.s:27205  .debug_str:00000000000236ee .LASF3324
C:\Users\SOLDER~1\AppData\Local\Temp\ccLLkDzL.s:23343  .debug_str:0000000000013ba3 .LASF3325
C:\Users\SOLDER~1\AppData\Local\Temp\ccLLkDzL.s:22785  .debug_str:000000000001169e .LASF3326
C:\Users\SOLDER~1\AppData\Local\Temp\ccLLkDzL.s:22245  .debug_str:000000000000f3af .LASF3327
C:\Users\SOLDER~1\AppData\Local\Temp\ccLLkDzL.s:24573  .debug_str:0000000000018bf0 .LASF3328
C:\Users\SOLDER~1\AppData\Local\Temp\ccLLkDzL.s:27271  .debug_str:0000000000023b0e .LASF3329
C:\Users\SOLDER~1\AppData\Local\Temp\ccLLkDzL.s:18599  .debug_str:0000000000000572 .LASF3330
C:\Users\SOLDER~1\AppData\Local\Temp\ccLLkDzL.s:20103  .debug_str:000000000000674b .LASF3331
C:\Users\SOLDER~1\AppData\Local\Temp\ccLLkDzL.s:19105  .debug_str:0000000000002708 .LASF3332
C:\Users\SOLDER~1\AppData\Local\Temp\ccLLkDzL.s:26197  .debug_str:000000000001f5a5 .LASF3333
C:\Users\SOLDER~1\AppData\Local\Temp\ccLLkDzL.s:28539  .debug_str:0000000000028ebb .LASF3334
C:\Users\SOLDER~1\AppData\Local\Temp\ccLLkDzL.s:21463  .debug_str:000000000000c025 .LASF3335
C:\Users\SOLDER~1\AppData\Local\Temp\ccLLkDzL.s:26469  .debug_str:0000000000020710 .LASF3336
C:\Users\SOLDER~1\AppData\Local\Temp\ccLLkDzL.s:19715  .debug_str:0000000000004de2 .LASF3337
C:\Users\SOLDER~1\AppData\Local\Temp\ccLLkDzL.s:20651  .debug_str:0000000000008ae9 .LASF3338
C:\Users\SOLDER~1\AppData\Local\Temp\ccLLkDzL.s:22239  .debug_str:000000000000f32d .LASF3339
C:\Users\SOLDER~1\AppData\Local\Temp\ccLLkDzL.s:20163  .debug_str:0000000000006b18 .LASF3340
C:\Users\SOLDER~1\AppData\Local\Temp\ccLLkDzL.s:29907  .debug_str:000000000002e829 .LASF3341
C:\Users\SOLDER~1\AppData\Local\Temp\ccLLkDzL.s:25497  .debug_str:000000000001c784 .LASF3342
C:\Users\SOLDER~1\AppData\Local\Temp\ccLLkDzL.s:26341  .debug_str:000000000001fec8 .LASF3343
C:\Users\SOLDER~1\AppData\Local\Temp\ccLLkDzL.s:24599  .debug_str:0000000000018db3 .LASF3344
C:\Users\SOLDER~1\AppData\Local\Temp\ccLLkDzL.s:22803  .debug_str:00000000000117dc .LASF3345
C:\Users\SOLDER~1\AppData\Local\Temp\ccLLkDzL.s:20329  .debug_str:0000000000007606 .LASF3346
C:\Users\SOLDER~1\AppData\Local\Temp\ccLLkDzL.s:28963  .debug_str:000000000002aab1 .LASF3347
C:\Users\SOLDER~1\AppData\Local\Temp\ccLLkDzL.s:21335  .debug_str:000000000000b7c9 .LASF3348
C:\Users\SOLDER~1\AppData\Local\Temp\ccLLkDzL.s:23681  .debug_str:0000000000015250 .LASF3349
C:\Users\SOLDER~1\AppData\Local\Temp\ccLLkDzL.s:26819  .debug_str:0000000000021ddd .LASF3350
C:\Users\SOLDER~1\AppData\Local\Temp\ccLLkDzL.s:26127  .debug_str:000000000001f0e3 .LASF3351
C:\Users\SOLDER~1\AppData\Local\Temp\ccLLkDzL.s:23439  .debug_str:0000000000014254 .LASF3352
C:\Users\SOLDER~1\AppData\Local\Temp\ccLLkDzL.s:23709  .debug_str:0000000000015436 .LASF3353
C:\Users\SOLDER~1\AppData\Local\Temp\ccLLkDzL.s:23449  .debug_str:00000000000142e6 .LASF3354
C:\Users\SOLDER~1\AppData\Local\Temp\ccLLkDzL.s:19987  .debug_str:0000000000005f45 .LASF3355
C:\Users\SOLDER~1\AppData\Local\Temp\ccLLkDzL.s:28011  .debug_str:0000000000026c79 .LASF3356
C:\Users\SOLDER~1\AppData\Local\Temp\ccLLkDzL.s:24617  .debug_str:0000000000018ee0 .LASF3357
C:\Users\SOLDER~1\AppData\Local\Temp\ccLLkDzL.s:24449  .debug_str:00000000000183b8 .LASF3358
C:\Users\SOLDER~1\AppData\Local\Temp\ccLLkDzL.s:29201  .debug_str:000000000002ba07 .LASF3359
C:\Users\SOLDER~1\AppData\Local\Temp\ccLLkDzL.s:21503  .debug_str:000000000000c2f5 .LASF3360
C:\Users\SOLDER~1\AppData\Local\Temp\ccLLkDzL.s:26257  .debug_str:000000000001f977 .LASF3361
C:\Users\SOLDER~1\AppData\Local\Temp\ccLLkDzL.s:29029  .debug_str:000000000002aeea .LASF3362
C:\Users\SOLDER~1\AppData\Local\Temp\ccLLkDzL.s:28543  .debug_str:0000000000028f08 .LASF3363
C:\Users\SOLDER~1\AppData\Local\Temp\ccLLkDzL.s:26429  .debug_str:000000000002046b .LASF3364
C:\Users\SOLDER~1\AppData\Local\Temp\ccLLkDzL.s:25793  .debug_str:000000000001dac6 .LASF3365
C:\Users\SOLDER~1\AppData\Local\Temp\ccLLkDzL.s:26905  .debug_str:0000000000022309 .LASF3366
C:\Users\SOLDER~1\AppData\Local\Temp\ccLLkDzL.s:28033  .debug_str:0000000000026e20 .LASF3367
C:\Users\SOLDER~1\AppData\Local\Temp\ccLLkDzL.s:29105  .debug_str:000000000002b3e5 .LASF3368
C:\Users\SOLDER~1\AppData\Local\Temp\ccLLkDzL.s:22323  .debug_str:000000000000f8d9 .LASF3369
C:\Users\SOLDER~1\AppData\Local\Temp\ccLLkDzL.s:27009  .debug_str:0000000000022a1d .LASF3370
C:\Users\SOLDER~1\AppData\Local\Temp\ccLLkDzL.s:27953  .debug_str:00000000000268ba .LASF3371
C:\Users\SOLDER~1\AppData\Local\Temp\ccLLkDzL.s:19969  .debug_str:0000000000005e0c .LASF3372
C:\Users\SOLDER~1\AppData\Local\Temp\ccLLkDzL.s:29731  .debug_str:000000000002dcac .LASF3373
C:\Users\SOLDER~1\AppData\Local\Temp\ccLLkDzL.s:26915  .debug_str:00000000000223af .LASF3374
C:\Users\SOLDER~1\AppData\Local\Temp\ccLLkDzL.s:28381  .debug_str:0000000000028491 .LASF3375
C:\Users\SOLDER~1\AppData\Local\Temp\ccLLkDzL.s:21235  .debug_str:000000000000b13d .LASF3376
C:\Users\SOLDER~1\AppData\Local\Temp\ccLLkDzL.s:23003  .debug_str:000000000001249a .LASF3377
C:\Users\SOLDER~1\AppData\Local\Temp\ccLLkDzL.s:20323  .debug_str:000000000000759a .LASF3378
C:\Users\SOLDER~1\AppData\Local\Temp\ccLLkDzL.s:24859  .debug_str:0000000000019e08 .LASF3379
GAS LISTING C:\Users\SOLDER~1\AppData\Local\Temp\ccLLkDzL.s 			page 73


C:\Users\SOLDER~1\AppData\Local\Temp\ccLLkDzL.s:23067  .debug_str:00000000000128ac .LASF3380
C:\Users\SOLDER~1\AppData\Local\Temp\ccLLkDzL.s:26171  .debug_str:000000000001f3d1 .LASF3381
C:\Users\SOLDER~1\AppData\Local\Temp\ccLLkDzL.s:24273  .debug_str:0000000000017834 .LASF3382
C:\Users\SOLDER~1\AppData\Local\Temp\ccLLkDzL.s:29779  .debug_str:000000000002dfaa .LASF3383
C:\Users\SOLDER~1\AppData\Local\Temp\ccLLkDzL.s:25219  .debug_str:000000000001b53c .LASF3384
C:\Users\SOLDER~1\AppData\Local\Temp\ccLLkDzL.s:24815  .debug_str:0000000000019b63 .LASF3385
C:\Users\SOLDER~1\AppData\Local\Temp\ccLLkDzL.s:28693  .debug_str:00000000000298c7 .LASF3386
C:\Users\SOLDER~1\AppData\Local\Temp\ccLLkDzL.s:23511  .debug_str:0000000000014701 .LASF3387
C:\Users\SOLDER~1\AppData\Local\Temp\ccLLkDzL.s:29465  .debug_str:000000000002cb43 .LASF3388
C:\Users\SOLDER~1\AppData\Local\Temp\ccLLkDzL.s:23591  .debug_str:0000000000014c7e .LASF3389
C:\Users\SOLDER~1\AppData\Local\Temp\ccLLkDzL.s:25939  .debug_str:000000000001e43a .LASF3390
C:\Users\SOLDER~1\AppData\Local\Temp\ccLLkDzL.s:30003  .debug_str:000000000002ee16 .LASF3391
C:\Users\SOLDER~1\AppData\Local\Temp\ccLLkDzL.s:22133  .debug_str:000000000000ec73 .LASF3392
C:\Users\SOLDER~1\AppData\Local\Temp\ccLLkDzL.s:20689  .debug_str:0000000000008d7f .LASF3393
C:\Users\SOLDER~1\AppData\Local\Temp\ccLLkDzL.s:18833  .debug_str:0000000000001575 .LASF3394
C:\Users\SOLDER~1\AppData\Local\Temp\ccLLkDzL.s:27665  .debug_str:00000000000254d7 .LASF3395
C:\Users\SOLDER~1\AppData\Local\Temp\ccLLkDzL.s:27785  .debug_str:0000000000025d36 .LASF3396
C:\Users\SOLDER~1\AppData\Local\Temp\ccLLkDzL.s:24867  .debug_str:0000000000019e93 .LASF3397
C:\Users\SOLDER~1\AppData\Local\Temp\ccLLkDzL.s:21961  .debug_str:000000000000e18c .LASF3398
C:\Users\SOLDER~1\AppData\Local\Temp\ccLLkDzL.s:20995  .debug_str:000000000000a1c9 .LASF3399
C:\Users\SOLDER~1\AppData\Local\Temp\ccLLkDzL.s:24123  .debug_str:0000000000016e41 .LASF3400
C:\Users\SOLDER~1\AppData\Local\Temp\ccLLkDzL.s:24335  .debug_str:0000000000017c39 .LASF3401
C:\Users\SOLDER~1\AppData\Local\Temp\ccLLkDzL.s:28793  .debug_str:0000000000029f89 .LASF3402
C:\Users\SOLDER~1\AppData\Local\Temp\ccLLkDzL.s:24117  .debug_str:0000000000016de1 .LASF3403
C:\Users\SOLDER~1\AppData\Local\Temp\ccLLkDzL.s:27997  .debug_str:0000000000026b9d .LASF3404
C:\Users\SOLDER~1\AppData\Local\Temp\ccLLkDzL.s:21239  .debug_str:000000000000b177 .LASF3405
C:\Users\SOLDER~1\AppData\Local\Temp\ccLLkDzL.s:25957  .debug_str:000000000001e590 .LASF3406
C:\Users\SOLDER~1\AppData\Local\Temp\ccLLkDzL.s:19189  .debug_str:0000000000002c49 .LASF3407
C:\Users\SOLDER~1\AppData\Local\Temp\ccLLkDzL.s:20875  .debug_str:00000000000099ca .LASF3408
C:\Users\SOLDER~1\AppData\Local\Temp\ccLLkDzL.s:28641  .debug_str:000000000002959e .LASF3409
C:\Users\SOLDER~1\AppData\Local\Temp\ccLLkDzL.s:29383  .debug_str:000000000002c626 .LASF3410
C:\Users\SOLDER~1\AppData\Local\Temp\ccLLkDzL.s:19355  .debug_str:000000000000370d .LASF3411
C:\Users\SOLDER~1\AppData\Local\Temp\ccLLkDzL.s:29089  .debug_str:000000000002b2e9 .LASF3412
C:\Users\SOLDER~1\AppData\Local\Temp\ccLLkDzL.s:27269  .debug_str:0000000000023ae4 .LASF3413
C:\Users\SOLDER~1\AppData\Local\Temp\ccLLkDzL.s:25527  .debug_str:000000000001c99f .LASF3414
C:\Users\SOLDER~1\AppData\Local\Temp\ccLLkDzL.s:23777  .debug_str:00000000000158a8 .LASF3415
C:\Users\SOLDER~1\AppData\Local\Temp\ccLLkDzL.s:28851  .debug_str:000000000002a37f .LASF3416
C:\Users\SOLDER~1\AppData\Local\Temp\ccLLkDzL.s:20233  .debug_str:0000000000006fef .LASF3417
C:\Users\SOLDER~1\AppData\Local\Temp\ccLLkDzL.s:23599  .debug_str:0000000000014cf7 .LASF3418
C:\Users\SOLDER~1\AppData\Local\Temp\ccLLkDzL.s:22635  .debug_str:0000000000010cf7 .LASF3419
C:\Users\SOLDER~1\AppData\Local\Temp\ccLLkDzL.s:22141  .debug_str:000000000000ecfd .LASF3420
C:\Users\SOLDER~1\AppData\Local\Temp\ccLLkDzL.s:27421  .debug_str:0000000000024524 .LASF3421
C:\Users\SOLDER~1\AppData\Local\Temp\ccLLkDzL.s:27635  .debug_str:00000000000252ff .LASF3422
C:\Users\SOLDER~1\AppData\Local\Temp\ccLLkDzL.s:22801  .debug_str:00000000000117b5 .LASF3423
C:\Users\SOLDER~1\AppData\Local\Temp\ccLLkDzL.s:28499  .debug_str:0000000000028c55 .LASF3424
C:\Users\SOLDER~1\AppData\Local\Temp\ccLLkDzL.s:25865  .debug_str:000000000001df9f .LASF3425
C:\Users\SOLDER~1\AppData\Local\Temp\ccLLkDzL.s:26419  .debug_str:00000000000203d3 .LASF3426
C:\Users\SOLDER~1\AppData\Local\Temp\ccLLkDzL.s:22993  .debug_str:00000000000123db .LASF3427
C:\Users\SOLDER~1\AppData\Local\Temp\ccLLkDzL.s:24845  .debug_str:0000000000019d13 .LASF3428
C:\Users\SOLDER~1\AppData\Local\Temp\ccLLkDzL.s:19417  .debug_str:0000000000003b1b .LASF3429
C:\Users\SOLDER~1\AppData\Local\Temp\ccLLkDzL.s:24181  .debug_str:0000000000017211 .LASF3430
C:\Users\SOLDER~1\AppData\Local\Temp\ccLLkDzL.s:20713  .debug_str:0000000000008f21 .LASF3431
C:\Users\SOLDER~1\AppData\Local\Temp\ccLLkDzL.s:26519  .debug_str:0000000000020a52 .LASF3432
C:\Users\SOLDER~1\AppData\Local\Temp\ccLLkDzL.s:29281  .debug_str:000000000002bf99 .LASF3433
C:\Users\SOLDER~1\AppData\Local\Temp\ccLLkDzL.s:22641  .debug_str:0000000000010d64 .LASF3434
C:\Users\SOLDER~1\AppData\Local\Temp\ccLLkDzL.s:23321  .debug_str:0000000000013a2e .LASF3435
C:\Users\SOLDER~1\AppData\Local\Temp\ccLLkDzL.s:26053  .debug_str:000000000001ec02 .LASF3436
GAS LISTING C:\Users\SOLDER~1\AppData\Local\Temp\ccLLkDzL.s 			page 74


C:\Users\SOLDER~1\AppData\Local\Temp\ccLLkDzL.s:28811  .debug_str:000000000002a0e3 .LASF3437
C:\Users\SOLDER~1\AppData\Local\Temp\ccLLkDzL.s:20077  .debug_str:0000000000006564 .LASF3438
C:\Users\SOLDER~1\AppData\Local\Temp\ccLLkDzL.s:22827  .debug_str:0000000000011953 .LASF3439
C:\Users\SOLDER~1\AppData\Local\Temp\ccLLkDzL.s:20623  .debug_str:00000000000088ff .LASF3440
C:\Users\SOLDER~1\AppData\Local\Temp\ccLLkDzL.s:25327  .debug_str:000000000001bc0d .LASF3441
C:\Users\SOLDER~1\AppData\Local\Temp\ccLLkDzL.s:18581  .debug_str:0000000000000439 .LASF3442
C:\Users\SOLDER~1\AppData\Local\Temp\ccLLkDzL.s:21507  .debug_str:000000000000c338 .LASF3443
C:\Users\SOLDER~1\AppData\Local\Temp\ccLLkDzL.s:27973  .debug_str:0000000000026a1a .LASF3444
C:\Users\SOLDER~1\AppData\Local\Temp\ccLLkDzL.s:20035  .debug_str:00000000000062a1 .LASF3445
C:\Users\SOLDER~1\AppData\Local\Temp\ccLLkDzL.s:25937  .debug_str:000000000001e410 .LASF3446
C:\Users\SOLDER~1\AppData\Local\Temp\ccLLkDzL.s:23453  .debug_str:0000000000014336 .LASF3447
C:\Users\SOLDER~1\AppData\Local\Temp\ccLLkDzL.s:21655  .debug_str:000000000000cd33 .LASF3448
C:\Users\SOLDER~1\AppData\Local\Temp\ccLLkDzL.s:28015  .debug_str:0000000000026ccb .LASF3449
C:\Users\SOLDER~1\AppData\Local\Temp\ccLLkDzL.s:29633  .debug_str:000000000002d669 .LASF3450
C:\Users\SOLDER~1\AppData\Local\Temp\ccLLkDzL.s:23769  .debug_str:000000000001582b .LASF3451
C:\Users\SOLDER~1\AppData\Local\Temp\ccLLkDzL.s:26079  .debug_str:000000000001eda1 .LASF3452
C:\Users\SOLDER~1\AppData\Local\Temp\ccLLkDzL.s:24341  .debug_str:0000000000017ca3 .LASF3453
C:\Users\SOLDER~1\AppData\Local\Temp\ccLLkDzL.s:19595  .debug_str:0000000000004664 .LASF3454
C:\Users\SOLDER~1\AppData\Local\Temp\ccLLkDzL.s:24603  .debug_str:0000000000018dfd .LASF3455
C:\Users\SOLDER~1\AppData\Local\Temp\ccLLkDzL.s:19151  .debug_str:0000000000002a24 .LASF3456
C:\Users\SOLDER~1\AppData\Local\Temp\ccLLkDzL.s:29075  .debug_str:000000000002b210 .LASF3457
C:\Users\SOLDER~1\AppData\Local\Temp\ccLLkDzL.s:28285  .debug_str:0000000000027e74 .LASF3458
C:\Users\SOLDER~1\AppData\Local\Temp\ccLLkDzL.s:29867  .debug_str:000000000002e553 .LASF3459
C:\Users\SOLDER~1\AppData\Local\Temp\ccLLkDzL.s:22811  .debug_str:0000000000011880 .LASF3460
C:\Users\SOLDER~1\AppData\Local\Temp\ccLLkDzL.s:27507  .debug_str:0000000000024ad1 .LASF3461
C:\Users\SOLDER~1\AppData\Local\Temp\ccLLkDzL.s:22907  .debug_str:0000000000011e68 .LASF3462
C:\Users\SOLDER~1\AppData\Local\Temp\ccLLkDzL.s:28317  .debug_str:00000000000280a6 .LASF3463
C:\Users\SOLDER~1\AppData\Local\Temp\ccLLkDzL.s:26825  .debug_str:0000000000021e3b .LASF3464
C:\Users\SOLDER~1\AppData\Local\Temp\ccLLkDzL.s:19849  .debug_str:00000000000055f8 .LASF3465
C:\Users\SOLDER~1\AppData\Local\Temp\ccLLkDzL.s:22279  .debug_str:000000000000f5d5 .LASF3466
C:\Users\SOLDER~1\AppData\Local\Temp\ccLLkDzL.s:24139  .debug_str:0000000000016f5d .LASF3467
C:\Users\SOLDER~1\AppData\Local\Temp\ccLLkDzL.s:24311  .debug_str:0000000000017aa4 .LASF3468
C:\Users\SOLDER~1\AppData\Local\Temp\ccLLkDzL.s:19135  .debug_str:0000000000002931 .LASF3469
C:\Users\SOLDER~1\AppData\Local\Temp\ccLLkDzL.s:24437  .debug_str:00000000000182f4 .LASF3470
C:\Users\SOLDER~1\AppData\Local\Temp\ccLLkDzL.s:29161  .debug_str:000000000002b786 .LASF3471
C:\Users\SOLDER~1\AppData\Local\Temp\ccLLkDzL.s:26007  .debug_str:000000000001e915 .LASF3472
C:\Users\SOLDER~1\AppData\Local\Temp\ccLLkDzL.s:19403  .debug_str:0000000000003a39 .LASF3473
C:\Users\SOLDER~1\AppData\Local\Temp\ccLLkDzL.s:20081  .debug_str:00000000000065b0 .LASF3474
C:\Users\SOLDER~1\AppData\Local\Temp\ccLLkDzL.s:23299  .debug_str:0000000000013863 .LASF3475
C:\Users\SOLDER~1\AppData\Local\Temp\ccLLkDzL.s:21623  .debug_str:000000000000cb36 .LASF3476
C:\Users\SOLDER~1\AppData\Local\Temp\ccLLkDzL.s:23405  .debug_str:0000000000013fd5 .LASF3477
C:\Users\SOLDER~1\AppData\Local\Temp\ccLLkDzL.s:20347  .debug_str:0000000000007724 .LASF3478
C:\Users\SOLDER~1\AppData\Local\Temp\ccLLkDzL.s:20685  .debug_str:0000000000008d3a .LASF3479
C:\Users\SOLDER~1\AppData\Local\Temp\ccLLkDzL.s:20293  .debug_str:00000000000073df .LASF3480
C:\Users\SOLDER~1\AppData\Local\Temp\ccLLkDzL.s:26061  .debug_str:000000000001ec76 .LASF3481
C:\Users\SOLDER~1\AppData\Local\Temp\ccLLkDzL.s:29071  .debug_str:000000000002b1d3 .LASF3482
C:\Users\SOLDER~1\AppData\Local\Temp\ccLLkDzL.s:19255  .debug_str:00000000000030a9 .LASF3483
C:\Users\SOLDER~1\AppData\Local\Temp\ccLLkDzL.s:26845  .debug_str:0000000000021f6f .LASF3484
C:\Users\SOLDER~1\AppData\Local\Temp\ccLLkDzL.s:19853  .debug_str:0000000000005640 .LASF3485
C:\Users\SOLDER~1\AppData\Local\Temp\ccLLkDzL.s:20467  .debug_str:0000000000007efe .LASF3486
C:\Users\SOLDER~1\AppData\Local\Temp\ccLLkDzL.s:19233  .debug_str:0000000000002f56 .LASF3487
C:\Users\SOLDER~1\AppData\Local\Temp\ccLLkDzL.s:28371  .debug_str:00000000000283f5 .LASF3488
C:\Users\SOLDER~1\AppData\Local\Temp\ccLLkDzL.s:24529  .debug_str:00000000000188f5 .LASF3489
C:\Users\SOLDER~1\AppData\Local\Temp\ccLLkDzL.s:25899  .debug_str:000000000001e1c5 .LASF3490
C:\Users\SOLDER~1\AppData\Local\Temp\ccLLkDzL.s:23201  .debug_str:00000000000131a6 .LASF3491
C:\Users\SOLDER~1\AppData\Local\Temp\ccLLkDzL.s:25429  .debug_str:000000000001c2f9 .LASF3492
C:\Users\SOLDER~1\AppData\Local\Temp\ccLLkDzL.s:21983  .debug_str:000000000000e300 .LASF3493
GAS LISTING C:\Users\SOLDER~1\AppData\Local\Temp\ccLLkDzL.s 			page 75


C:\Users\SOLDER~1\AppData\Local\Temp\ccLLkDzL.s:21439  .debug_str:000000000000be89 .LASF3494
C:\Users\SOLDER~1\AppData\Local\Temp\ccLLkDzL.s:26485  .debug_str:0000000000020822 .LASF3495
C:\Users\SOLDER~1\AppData\Local\Temp\ccLLkDzL.s:28981  .debug_str:000000000002abcc .LASF3496
C:\Users\SOLDER~1\AppData\Local\Temp\ccLLkDzL.s:28055  .debug_str:0000000000026f74 .LASF3497
C:\Users\SOLDER~1\AppData\Local\Temp\ccLLkDzL.s:20207  .debug_str:0000000000006e0d .LASF3498
C:\Users\SOLDER~1\AppData\Local\Temp\ccLLkDzL.s:24521  .debug_str:0000000000018867 .LASF3499
C:\Users\SOLDER~1\AppData\Local\Temp\ccLLkDzL.s:23903  .debug_str:000000000001609f .LASF3500
C:\Users\SOLDER~1\AppData\Local\Temp\ccLLkDzL.s:19813  .debug_str:00000000000053ca .LASF3501
C:\Users\SOLDER~1\AppData\Local\Temp\ccLLkDzL.s:19171  .debug_str:0000000000002b2c .LASF3502
C:\Users\SOLDER~1\AppData\Local\Temp\ccLLkDzL.s:21139  .debug_str:000000000000ab32 .LASF3503
C:\Users\SOLDER~1\AppData\Local\Temp\ccLLkDzL.s:27243  .debug_str:000000000002394c .LASF3504
C:\Users\SOLDER~1\AppData\Local\Temp\ccLLkDzL.s:29915  .debug_str:000000000002e8a8 .LASF3505
C:\Users\SOLDER~1\AppData\Local\Temp\ccLLkDzL.s:27535  .debug_str:0000000000024cab .LASF3506
C:\Users\SOLDER~1\AppData\Local\Temp\ccLLkDzL.s:28619  .debug_str:0000000000029442 .LASF3507
C:\Users\SOLDER~1\AppData\Local\Temp\ccLLkDzL.s:28349  .debug_str:0000000000028298 .LASF3508
C:\Users\SOLDER~1\AppData\Local\Temp\ccLLkDzL.s:20527  .debug_str:00000000000082ea .LASF3509
C:\Users\SOLDER~1\AppData\Local\Temp\ccLLkDzL.s:25499  .debug_str:000000000001c7ad .LASF3510
C:\Users\SOLDER~1\AppData\Local\Temp\ccLLkDzL.s:28091  .debug_str:00000000000271c9 .LASF3511
C:\Users\SOLDER~1\AppData\Local\Temp\ccLLkDzL.s:29315  .debug_str:000000000002c1e2 .LASF3512
C:\Users\SOLDER~1\AppData\Local\Temp\ccLLkDzL.s:22113  .debug_str:000000000000eb2c .LASF3513
C:\Users\SOLDER~1\AppData\Local\Temp\ccLLkDzL.s:29721  .debug_str:000000000002dc19 .LASF3514
C:\Users\SOLDER~1\AppData\Local\Temp\ccLLkDzL.s:25993  .debug_str:000000000001e826 .LASF3515
C:\Users\SOLDER~1\AppData\Local\Temp\ccLLkDzL.s:27875  .debug_str:000000000002639a .LASF3516
C:\Users\SOLDER~1\AppData\Local\Temp\ccLLkDzL.s:19957  .debug_str:0000000000005d55 .LASF3517
C:\Users\SOLDER~1\AppData\Local\Temp\ccLLkDzL.s:28521  .debug_str:0000000000028da3 .LASF3518
C:\Users\SOLDER~1\AppData\Local\Temp\ccLLkDzL.s:24857  .debug_str:0000000000019de5 .LASF3519
C:\Users\SOLDER~1\AppData\Local\Temp\ccLLkDzL.s:24145  .debug_str:0000000000016fcf .LASF3520
C:\Users\SOLDER~1\AppData\Local\Temp\ccLLkDzL.s:28887  .debug_str:000000000002a5e7 .LASF3521
C:\Users\SOLDER~1\AppData\Local\Temp\ccLLkDzL.s:22229  .debug_str:000000000000f291 .LASF3522
C:\Users\SOLDER~1\AppData\Local\Temp\ccLLkDzL.s:25169  .debug_str:000000000001b209 .LASF3523
C:\Users\SOLDER~1\AppData\Local\Temp\ccLLkDzL.s:20357  .debug_str:00000000000077a4 .LASF3524
C:\Users\SOLDER~1\AppData\Local\Temp\ccLLkDzL.s:23847  .debug_str:0000000000015cf4 .LASF3525
C:\Users\SOLDER~1\AppData\Local\Temp\ccLLkDzL.s:19169  .debug_str:0000000000002b13 .LASF3526
C:\Users\SOLDER~1\AppData\Local\Temp\ccLLkDzL.s:24159  .debug_str:00000000000170c3 .LASF3527
C:\Users\SOLDER~1\AppData\Local\Temp\ccLLkDzL.s:28575  .debug_str:0000000000029135 .LASF3528
C:\Users\SOLDER~1\AppData\Local\Temp\ccLLkDzL.s:18871  .debug_str:00000000000017e1 .LASF3529
C:\Users\SOLDER~1\AppData\Local\Temp\ccLLkDzL.s:29349  .debug_str:000000000002c3f3 .LASF3530
C:\Users\SOLDER~1\AppData\Local\Temp\ccLLkDzL.s:24185  .debug_str:0000000000017266 .LASF3531
C:\Users\SOLDER~1\AppData\Local\Temp\ccLLkDzL.s:25839  .debug_str:000000000001de0b .LASF3532
C:\Users\SOLDER~1\AppData\Local\Temp\ccLLkDzL.s:21897  .debug_str:000000000000dce7 .LASF3533
C:\Users\SOLDER~1\AppData\Local\Temp\ccLLkDzL.s:29101  .debug_str:000000000002b3aa .LASF3534
C:\Users\SOLDER~1\AppData\Local\Temp\ccLLkDzL.s:22325  .debug_str:000000000000f902 .LASF3535
C:\Users\SOLDER~1\AppData\Local\Temp\ccLLkDzL.s:26623  .debug_str:0000000000021153 .LASF3536
C:\Users\SOLDER~1\AppData\Local\Temp\ccLLkDzL.s:19559  .debug_str:000000000000440b .LASF3537
C:\Users\SOLDER~1\AppData\Local\Temp\ccLLkDzL.s:22585  .debug_str:00000000000109e4 .LASF3538
C:\Users\SOLDER~1\AppData\Local\Temp\ccLLkDzL.s:26649  .debug_str:00000000000212ef .LASF3539
C:\Users\SOLDER~1\AppData\Local\Temp\ccLLkDzL.s:23811  .debug_str:0000000000015aaf .LASF3540
C:\Users\SOLDER~1\AppData\Local\Temp\ccLLkDzL.s:25417  .debug_str:000000000001c22b .LASF3541
C:\Users\SOLDER~1\AppData\Local\Temp\ccLLkDzL.s:18559  .debug_str:00000000000002dc .LASF3542
C:\Users\SOLDER~1\AppData\Local\Temp\ccLLkDzL.s:22187  .debug_str:000000000000efdb .LASF3543
C:\Users\SOLDER~1\AppData\Local\Temp\ccLLkDzL.s:26897  .debug_str:0000000000022282 .LASF3544
C:\Users\SOLDER~1\AppData\Local\Temp\ccLLkDzL.s:29663  .debug_str:000000000002d851 .LASF3545
C:\Users\SOLDER~1\AppData\Local\Temp\ccLLkDzL.s:26695  .debug_str:00000000000215ef .LASF3546
C:\Users\SOLDER~1\AppData\Local\Temp\ccLLkDzL.s:20065  .debug_str:000000000000649e .LASF3547
C:\Users\SOLDER~1\AppData\Local\Temp\ccLLkDzL.s:19931  .debug_str:0000000000005b9e .LASF3548
C:\Users\SOLDER~1\AppData\Local\Temp\ccLLkDzL.s:21599  .debug_str:000000000000c998 .LASF3549
C:\Users\SOLDER~1\AppData\Local\Temp\ccLLkDzL.s:20749  .debug_str:00000000000091c2 .LASF3550
GAS LISTING C:\Users\SOLDER~1\AppData\Local\Temp\ccLLkDzL.s 			page 76


C:\Users\SOLDER~1\AppData\Local\Temp\ccLLkDzL.s:22415  .debug_str:000000000000ff2f .LASF3551
C:\Users\SOLDER~1\AppData\Local\Temp\ccLLkDzL.s:20159  .debug_str:0000000000006aec .LASF3552
C:\Users\SOLDER~1\AppData\Local\Temp\ccLLkDzL.s:19741  .debug_str:0000000000004f6d .LASF3553
C:\Users\SOLDER~1\AppData\Local\Temp\ccLLkDzL.s:18929  .debug_str:0000000000001b8b .LASF3554
C:\Users\SOLDER~1\AppData\Local\Temp\ccLLkDzL.s:27607  .debug_str:0000000000025146 .LASF3555
C:\Users\SOLDER~1\AppData\Local\Temp\ccLLkDzL.s:18715  .debug_str:0000000000000e0d .LASF3556
C:\Users\SOLDER~1\AppData\Local\Temp\ccLLkDzL.s:24987  .debug_str:000000000001a666 .LASF3557
C:\Users\SOLDER~1\AppData\Local\Temp\ccLLkDzL.s:22203  .debug_str:000000000000f0e0 .LASF3558
C:\Users\SOLDER~1\AppData\Local\Temp\ccLLkDzL.s:19033  .debug_str:0000000000002260 .LASF3559
C:\Users\SOLDER~1\AppData\Local\Temp\ccLLkDzL.s:19795  .debug_str:00000000000052d3 .LASF3560
C:\Users\SOLDER~1\AppData\Local\Temp\ccLLkDzL.s:22091  .debug_str:000000000000e9e1 .LASF3561
C:\Users\SOLDER~1\AppData\Local\Temp\ccLLkDzL.s:22951  .debug_str:0000000000012126 .LASF3562
C:\Users\SOLDER~1\AppData\Local\Temp\ccLLkDzL.s:29447  .debug_str:000000000002ca18 .LASF3563
C:\Users\SOLDER~1\AppData\Local\Temp\ccLLkDzL.s:23859  .debug_str:0000000000015dbc .LASF3564
C:\Users\SOLDER~1\AppData\Local\Temp\ccLLkDzL.s:25291  .debug_str:000000000001b9b6 .LASF3565
C:\Users\SOLDER~1\AppData\Local\Temp\ccLLkDzL.s:26029  .debug_str:000000000001ea75 .LASF3566
C:\Users\SOLDER~1\AppData\Local\Temp\ccLLkDzL.s:19131  .debug_str:00000000000028ed .LASF3567
C:\Users\SOLDER~1\AppData\Local\Temp\ccLLkDzL.s:24071  .debug_str:0000000000016aef .LASF3568
C:\Users\SOLDER~1\AppData\Local\Temp\ccLLkDzL.s:22901  .debug_str:0000000000011e09 .LASF3569
C:\Users\SOLDER~1\AppData\Local\Temp\ccLLkDzL.s:29121  .debug_str:000000000002b513 .LASF3570
C:\Users\SOLDER~1\AppData\Local\Temp\ccLLkDzL.s:26421  .debug_str:00000000000203fd .LASF3571
C:\Users\SOLDER~1\AppData\Local\Temp\ccLLkDzL.s:19087  .debug_str:00000000000025d5 .LASF3572
C:\Users\SOLDER~1\AppData\Local\Temp\ccLLkDzL.s:24589  .debug_str:0000000000018d04 .LASF3573
C:\Users\SOLDER~1\AppData\Local\Temp\ccLLkDzL.s:22505  .debug_str:00000000000104cb .LASF3574
C:\Users\SOLDER~1\AppData\Local\Temp\ccLLkDzL.s:21785  .debug_str:000000000000d5ae .LASF3575
C:\Users\SOLDER~1\AppData\Local\Temp\ccLLkDzL.s:27899  .debug_str:0000000000026507 .LASF3576
C:\Users\SOLDER~1\AppData\Local\Temp\ccLLkDzL.s:29371  .debug_str:000000000002c559 .LASF3577
C:\Users\SOLDER~1\AppData\Local\Temp\ccLLkDzL.s:22175  .debug_str:000000000000ef23 .LASF3578
C:\Users\SOLDER~1\AppData\Local\Temp\ccLLkDzL.s:27203  .debug_str:00000000000236cb .LASF3579
C:\Users\SOLDER~1\AppData\Local\Temp\ccLLkDzL.s:29767  .debug_str:000000000002deee .LASF3580
C:\Users\SOLDER~1\AppData\Local\Temp\ccLLkDzL.s:19593  .debug_str:0000000000004643 .LASF3581
C:\Users\SOLDER~1\AppData\Local\Temp\ccLLkDzL.s:23937  .debug_str:00000000000162c4 .LASF3582
C:\Users\SOLDER~1\AppData\Local\Temp\ccLLkDzL.s:24281  .debug_str:00000000000178ad .LASF3583
C:\Users\SOLDER~1\AppData\Local\Temp\ccLLkDzL.s:19139  .debug_str:000000000000296d .LASF3584
C:\Users\SOLDER~1\AppData\Local\Temp\ccLLkDzL.s:20449  .debug_str:0000000000007dbd .LASF3585
C:\Users\SOLDER~1\AppData\Local\Temp\ccLLkDzL.s:18587  .debug_str:00000000000004ad .LASF3586
C:\Users\SOLDER~1\AppData\Local\Temp\ccLLkDzL.s:26875  .debug_str:0000000000022112 .LASF3587
C:\Users\SOLDER~1\AppData\Local\Temp\ccLLkDzL.s:22337  .debug_str:000000000000f9d8 .LASF3588
C:\Users\SOLDER~1\AppData\Local\Temp\ccLLkDzL.s:27701  .debug_str:0000000000025771 .LASF3589
C:\Users\SOLDER~1\AppData\Local\Temp\ccLLkDzL.s:27265  .debug_str:0000000000023aa4 .LASF3590
C:\Users\SOLDER~1\AppData\Local\Temp\ccLLkDzL.s:29821  .debug_str:000000000002e24b .LASF3591
C:\Users\SOLDER~1\AppData\Local\Temp\ccLLkDzL.s:21091  .debug_str:000000000000a809 .LASF3592
C:\Users\SOLDER~1\AppData\Local\Temp\ccLLkDzL.s:22103  .debug_str:000000000000ea76 .LASF3593
C:\Users\SOLDER~1\AppData\Local\Temp\ccLLkDzL.s:22777  .debug_str:0000000000011614 .LASF3594
C:\Users\SOLDER~1\AppData\Local\Temp\ccLLkDzL.s:19319  .debug_str:00000000000034de .LASF3595
C:\Users\SOLDER~1\AppData\Local\Temp\ccLLkDzL.s:27679  .debug_str:00000000000255cb .LASF3596
C:\Users\SOLDER~1\AppData\Local\Temp\ccLLkDzL.s:25271  .debug_str:000000000001b83d .LASF3597
C:\Users\SOLDER~1\AppData\Local\Temp\ccLLkDzL.s:29095  .debug_str:000000000002b346 .LASF3598
C:\Users\SOLDER~1\AppData\Local\Temp\ccLLkDzL.s:21633  .debug_str:000000000000cbc2 .LASF3599
C:\Users\SOLDER~1\AppData\Local\Temp\ccLLkDzL.s:18619  .debug_str:000000000000074d .LASF3600
C:\Users\SOLDER~1\AppData\Local\Temp\ccLLkDzL.s:28797  .debug_str:0000000000029fec .LASF3601
C:\Users\SOLDER~1\AppData\Local\Temp\ccLLkDzL.s:25225  .debug_str:000000000001b594 .LASF3602
C:\Users\SOLDER~1\AppData\Local\Temp\ccLLkDzL.s:22779  .debug_str:0000000000011635 .LASF3603
C:\Users\SOLDER~1\AppData\Local\Temp\ccLLkDzL.s:26183  .debug_str:000000000001f4cc .LASF3604
C:\Users\SOLDER~1\AppData\Local\Temp\ccLLkDzL.s:27485  .debug_str:0000000000024954 .LASF3605
C:\Users\SOLDER~1\AppData\Local\Temp\ccLLkDzL.s:25091  .debug_str:000000000001ad5d .LASF3606
C:\Users\SOLDER~1\AppData\Local\Temp\ccLLkDzL.s:21551  .debug_str:000000000000c644 .LASF3607
GAS LISTING C:\Users\SOLDER~1\AppData\Local\Temp\ccLLkDzL.s 			page 77


C:\Users\SOLDER~1\AppData\Local\Temp\ccLLkDzL.s:25241  .debug_str:000000000001b67b .LASF3608
C:\Users\SOLDER~1\AppData\Local\Temp\ccLLkDzL.s:29367  .debug_str:000000000002c513 .LASF3609
C:\Users\SOLDER~1\AppData\Local\Temp\ccLLkDzL.s:22369  .debug_str:000000000000fc30 .LASF3610
C:\Users\SOLDER~1\AppData\Local\Temp\ccLLkDzL.s:28689  .debug_str:0000000000029874 .LASF3611
C:\Users\SOLDER~1\AppData\Local\Temp\ccLLkDzL.s:18867  .debug_str:00000000000017b6 .LASF3612
C:\Users\SOLDER~1\AppData\Local\Temp\ccLLkDzL.s:20637  .debug_str:0000000000008a00 .LASF3613
C:\Users\SOLDER~1\AppData\Local\Temp\ccLLkDzL.s:27295  .debug_str:0000000000023cb0 .LASF3614
C:\Users\SOLDER~1\AppData\Local\Temp\ccLLkDzL.s:26675  .debug_str:00000000000214a7 .LASF3615
C:\Users\SOLDER~1\AppData\Local\Temp\ccLLkDzL.s:27195  .debug_str:000000000002365e .LASF3616
C:\Users\SOLDER~1\AppData\Local\Temp\ccLLkDzL.s:28461  .debug_str:00000000000289ed .LASF3617
C:\Users\SOLDER~1\AppData\Local\Temp\ccLLkDzL.s:27525  .debug_str:0000000000024bff .LASF3618
C:\Users\SOLDER~1\AppData\Local\Temp\ccLLkDzL.s:21739  .debug_str:000000000000d2c0 .LASF3619
C:\Users\SOLDER~1\AppData\Local\Temp\ccLLkDzL.s:24127  .debug_str:0000000000016e8f .LASF3620
C:\Users\SOLDER~1\AppData\Local\Temp\ccLLkDzL.s:28569  .debug_str:00000000000290c7 .LASF3621
C:\Users\SOLDER~1\AppData\Local\Temp\ccLLkDzL.s:25267  .debug_str:000000000001b803 .LASF3622
C:\Users\SOLDER~1\AppData\Local\Temp\ccLLkDzL.s:25161  .debug_str:000000000001b187 .LASF3623
C:\Users\SOLDER~1\AppData\Local\Temp\ccLLkDzL.s:19473  .debug_str:0000000000003ea0 .LASF3624
C:\Users\SOLDER~1\AppData\Local\Temp\ccLLkDzL.s:27311  .debug_str:0000000000023dc6 .LASF3625
C:\Users\SOLDER~1\AppData\Local\Temp\ccLLkDzL.s:26683  .debug_str:000000000002152d .LASF3626
C:\Users\SOLDER~1\AppData\Local\Temp\ccLLkDzL.s:29041  .debug_str:000000000002afdf .LASF3627
C:\Users\SOLDER~1\AppData\Local\Temp\ccLLkDzL.s:25047  .debug_str:000000000001aa3e .LASF3628
C:\Users\SOLDER~1\AppData\Local\Temp\ccLLkDzL.s:28345  .debug_str:000000000002825d .LASF3629
C:\Users\SOLDER~1\AppData\Local\Temp\ccLLkDzL.s:23049  .debug_str:0000000000012779 .LASF3630
C:\Users\SOLDER~1\AppData\Local\Temp\ccLLkDzL.s:28649  .debug_str:0000000000029617 .LASF3631
C:\Users\SOLDER~1\AppData\Local\Temp\ccLLkDzL.s:26731  .debug_str:000000000002183f .LASF3632
C:\Users\SOLDER~1\AppData\Local\Temp\ccLLkDzL.s:24149  .debug_str:000000000001700d .LASF3633
C:\Users\SOLDER~1\AppData\Local\Temp\ccLLkDzL.s:26961  .debug_str:00000000000226d0 .LASF3634
C:\Users\SOLDER~1\AppData\Local\Temp\ccLLkDzL.s:24279  .debug_str:000000000001788d .LASF3635
C:\Users\SOLDER~1\AppData\Local\Temp\ccLLkDzL.s:27013  .debug_str:0000000000022a66 .LASF3636
C:\Users\SOLDER~1\AppData\Local\Temp\ccLLkDzL.s:22291  .debug_str:000000000000f691 .LASF3637
C:\Users\SOLDER~1\AppData\Local\Temp\ccLLkDzL.s:26345  .debug_str:000000000001ff0e .LASF3638
C:\Users\SOLDER~1\AppData\Local\Temp\ccLLkDzL.s:22793  .debug_str:0000000000011739 .LASF3639
C:\Users\SOLDER~1\AppData\Local\Temp\ccLLkDzL.s:28677  .debug_str:00000000000297bf .LASF3640
C:\Users\SOLDER~1\AppData\Local\Temp\ccLLkDzL.s:27027  .debug_str:0000000000022b65 .LASF3641
C:\Users\SOLDER~1\AppData\Local\Temp\ccLLkDzL.s:21843  .debug_str:000000000000d95f .LASF3642
C:\Users\SOLDER~1\AppData\Local\Temp\ccLLkDzL.s:28709  .debug_str:00000000000299cd .LASF3643
C:\Users\SOLDER~1\AppData\Local\Temp\ccLLkDzL.s:27541  .debug_str:0000000000024d13 .LASF3644
C:\Users\SOLDER~1\AppData\Local\Temp\ccLLkDzL.s:28885  .debug_str:000000000002a5c4 .LASF3645
C:\Users\SOLDER~1\AppData\Local\Temp\ccLLkDzL.s:29375  .debug_str:000000000002c5a6 .LASF3646
C:\Users\SOLDER~1\AppData\Local\Temp\ccLLkDzL.s:20129  .debug_str:000000000000691d .LASF3647
C:\Users\SOLDER~1\AppData\Local\Temp\ccLLkDzL.s:18567  .debug_str:000000000000035a .LASF3648
C:\Users\SOLDER~1\AppData\Local\Temp\ccLLkDzL.s:26097  .debug_str:000000000001eed5 .LASF3649
C:\Users\SOLDER~1\AppData\Local\Temp\ccLLkDzL.s:20805  .debug_str:000000000000956a .LASF3650
C:\Users\SOLDER~1\AppData\Local\Temp\ccLLkDzL.s:23819  .debug_str:0000000000015b26 .LASF3651
C:\Users\SOLDER~1\AppData\Local\Temp\ccLLkDzL.s:18695  .debug_str:0000000000000c97 .LASF3652
C:\Users\SOLDER~1\AppData\Local\Temp\ccLLkDzL.s:29533  .debug_str:000000000002d018 .LASF3653
C:\Users\SOLDER~1\AppData\Local\Temp\ccLLkDzL.s:24669  .debug_str:0000000000019227 .LASF3654
C:\Users\SOLDER~1\AppData\Local\Temp\ccLLkDzL.s:29643  .debug_str:000000000002d71b .LASF3655
C:\Users\SOLDER~1\AppData\Local\Temp\ccLLkDzL.s:28097  .debug_str:0000000000027239 .LASF3656
C:\Users\SOLDER~1\AppData\Local\Temp\ccLLkDzL.s:20861  .debug_str:0000000000009900 .LASF3657
C:\Users\SOLDER~1\AppData\Local\Temp\ccLLkDzL.s:27289  .debug_str:0000000000023c45 .LASF3658
C:\Users\SOLDER~1\AppData\Local\Temp\ccLLkDzL.s:29425  .debug_str:000000000002c8cf .LASF3659
C:\Users\SOLDER~1\AppData\Local\Temp\ccLLkDzL.s:20037  .debug_str:00000000000062cb .LASF3660
C:\Users\SOLDER~1\AppData\Local\Temp\ccLLkDzL.s:18675  .debug_str:0000000000000b4a .LASF3661
C:\Users\SOLDER~1\AppData\Local\Temp\ccLLkDzL.s:19979  .debug_str:0000000000005eb8 .LASF3662
C:\Users\SOLDER~1\AppData\Local\Temp\ccLLkDzL.s:28609  .debug_str:000000000002938d .LASF3663
C:\Users\SOLDER~1\AppData\Local\Temp\ccLLkDzL.s:19681  .debug_str:0000000000004bec .LASF3664
GAS LISTING C:\Users\SOLDER~1\AppData\Local\Temp\ccLLkDzL.s 			page 78


C:\Users\SOLDER~1\AppData\Local\Temp\ccLLkDzL.s:19231  .debug_str:0000000000002f33 .LASF3665
C:\Users\SOLDER~1\AppData\Local\Temp\ccLLkDzL.s:27961  .debug_str:000000000002694a .LASF3666
C:\Users\SOLDER~1\AppData\Local\Temp\ccLLkDzL.s:23227  .debug_str:0000000000013361 .LASF3667
C:\Users\SOLDER~1\AppData\Local\Temp\ccLLkDzL.s:24425  .debug_str:000000000001822d .LASF3668
C:\Users\SOLDER~1\AppData\Local\Temp\ccLLkDzL.s:22065  .debug_str:000000000000e85d .LASF3669
C:\Users\SOLDER~1\AppData\Local\Temp\ccLLkDzL.s:22327  .debug_str:000000000000f922 .LASF3670
C:\Users\SOLDER~1\AppData\Local\Temp\ccLLkDzL.s:26867  .debug_str:00000000000220b0 .LASF3671
C:\Users\SOLDER~1\AppData\Local\Temp\ccLLkDzL.s:27941  .debug_str:00000000000267da .LASF3672
C:\Users\SOLDER~1\AppData\Local\Temp\ccLLkDzL.s:24889  .debug_str:0000000000019ff1 .LASF3673
C:\Users\SOLDER~1\AppData\Local\Temp\ccLLkDzL.s:24909  .debug_str:000000000001a12d .LASF3674
C:\Users\SOLDER~1\AppData\Local\Temp\ccLLkDzL.s:20977  .debug_str:000000000000a087 .LASF3675
C:\Users\SOLDER~1\AppData\Local\Temp\ccLLkDzL.s:22685  .debug_str:000000000001103c .LASF3676
C:\Users\SOLDER~1\AppData\Local\Temp\ccLLkDzL.s:26985  .debug_str:0000000000022880 .LASF3677
C:\Users\SOLDER~1\AppData\Local\Temp\ccLLkDzL.s:24923  .debug_str:000000000001a238 .LASF3678
C:\Users\SOLDER~1\AppData\Local\Temp\ccLLkDzL.s:27213  .debug_str:000000000002377d .LASF3679
C:\Users\SOLDER~1\AppData\Local\Temp\ccLLkDzL.s:28563  .debug_str:000000000002905e .LASF3680
C:\Users\SOLDER~1\AppData\Local\Temp\ccLLkDzL.s:29359  .debug_str:000000000002c4a2 .LASF3681
C:\Users\SOLDER~1\AppData\Local\Temp\ccLLkDzL.s:24041  .debug_str:0000000000016943 .LASF3682
C:\Users\SOLDER~1\AppData\Local\Temp\ccLLkDzL.s:29043  .debug_str:000000000002b000 .LASF3683
C:\Users\SOLDER~1\AppData\Local\Temp\ccLLkDzL.s:22807  .debug_str:0000000000011829 .LASF3684
C:\Users\SOLDER~1\AppData\Local\Temp\ccLLkDzL.s:26657  .debug_str:0000000000021369 .LASF3685
C:\Users\SOLDER~1\AppData\Local\Temp\ccLLkDzL.s:22613  .debug_str:0000000000010b8f .LASF3686
C:\Users\SOLDER~1\AppData\Local\Temp\ccLLkDzL.s:29921  .debug_str:000000000002e906 .LASF3687
C:\Users\SOLDER~1\AppData\Local\Temp\ccLLkDzL.s:26673  .debug_str:0000000000021480 .LASF3688
C:\Users\SOLDER~1\AppData\Local\Temp\ccLLkDzL.s:20645  .debug_str:0000000000008a83 .LASF3689
C:\Users\SOLDER~1\AppData\Local\Temp\ccLLkDzL.s:26663  .debug_str:00000000000213db .LASF3690
C:\Users\SOLDER~1\AppData\Local\Temp\ccLLkDzL.s:23633  .debug_str:0000000000014f26 .LASF3691
C:\Users\SOLDER~1\AppData\Local\Temp\ccLLkDzL.s:19911  .debug_str:0000000000005a5e .LASF3692
C:\Users\SOLDER~1\AppData\Local\Temp\ccLLkDzL.s:21529  .debug_str:000000000000c4d2 .LASF3693
C:\Users\SOLDER~1\AppData\Local\Temp\ccLLkDzL.s:28503  .debug_str:0000000000028c9b .LASF3694
C:\Users\SOLDER~1\AppData\Local\Temp\ccLLkDzL.s:23545  .debug_str:0000000000014964 .LASF3695
C:\Users\SOLDER~1\AppData\Local\Temp\ccLLkDzL.s:20839  .debug_str:000000000000977f .LASF3696
C:\Users\SOLDER~1\AppData\Local\Temp\ccLLkDzL.s:21413  .debug_str:000000000000bce0 .LASF3697
C:\Users\SOLDER~1\AppData\Local\Temp\ccLLkDzL.s:24943  .debug_str:000000000001a356 .LASF3698
C:\Users\SOLDER~1\AppData\Local\Temp\ccLLkDzL.s:22309  .debug_str:000000000000f7fe .LASF3699
C:\Users\SOLDER~1\AppData\Local\Temp\ccLLkDzL.s:25861  .debug_str:000000000001df57 .LASF3700
C:\Users\SOLDER~1\AppData\Local\Temp\ccLLkDzL.s:18981  .debug_str:0000000000001ef7 .LASF3701
C:\Users\SOLDER~1\AppData\Local\Temp\ccLLkDzL.s:22553  .debug_str:00000000000107e2 .LASF3702
C:\Users\SOLDER~1\AppData\Local\Temp\ccLLkDzL.s:22013  .debug_str:000000000000e4b7 .LASF3703
C:\Users\SOLDER~1\AppData\Local\Temp\ccLLkDzL.s:19327  .debug_str:0000000000003541 .LASF3704
C:\Users\SOLDER~1\AppData\Local\Temp\ccLLkDzL.s:28093  .debug_str:00000000000271ec .LASF3705
C:\Users\SOLDER~1\AppData\Local\Temp\ccLLkDzL.s:27429  .debug_str:00000000000245ab .LASF3706
C:\Users\SOLDER~1\AppData\Local\Temp\ccLLkDzL.s:21689  .debug_str:000000000000cf8a .LASF3707
C:\Users\SOLDER~1\AppData\Local\Temp\ccLLkDzL.s:19061  .debug_str:0000000000002441 .LASF3708
C:\Users\SOLDER~1\AppData\Local\Temp\ccLLkDzL.s:27675  .debug_str:0000000000025582 .LASF3709
C:\Users\SOLDER~1\AppData\Local\Temp\ccLLkDzL.s:19259  .debug_str:00000000000030ef .LASF3710
C:\Users\SOLDER~1\AppData\Local\Temp\ccLLkDzL.s:18995  .debug_str:0000000000001fd2 .LASF3711
C:\Users\SOLDER~1\AppData\Local\Temp\ccLLkDzL.s:27761  .debug_str:0000000000025b8a .LASF3712
C:\Users\SOLDER~1\AppData\Local\Temp\ccLLkDzL.s:28139  .debug_str:00000000000274f1 .LASF3713
C:\Users\SOLDER~1\AppData\Local\Temp\ccLLkDzL.s:28607  .debug_str:0000000000029368 .LASF3714
C:\Users\SOLDER~1\AppData\Local\Temp\ccLLkDzL.s:19657  .debug_str:0000000000004a43 .LASF3715
C:\Users\SOLDER~1\AppData\Local\Temp\ccLLkDzL.s:28621  .debug_str:0000000000029464 .LASF3716
C:\Users\SOLDER~1\AppData\Local\Temp\ccLLkDzL.s:24683  .debug_str:0000000000019326 .LASF3717
C:\Users\SOLDER~1\AppData\Local\Temp\ccLLkDzL.s:21445  .debug_str:000000000000beda .LASF3718
C:\Users\SOLDER~1\AppData\Local\Temp\ccLLkDzL.s:28023  .debug_str:0000000000026d69 .LASF3719
C:\Users\SOLDER~1\AppData\Local\Temp\ccLLkDzL.s:21751  .debug_str:000000000000d399 .LASF3720
C:\Users\SOLDER~1\AppData\Local\Temp\ccLLkDzL.s:29813  .debug_str:000000000002e1d5 .LASF3721
GAS LISTING C:\Users\SOLDER~1\AppData\Local\Temp\ccLLkDzL.s 			page 79


C:\Users\SOLDER~1\AppData\Local\Temp\ccLLkDzL.s:29073  .debug_str:000000000002b1eb .LASF3722
C:\Users\SOLDER~1\AppData\Local\Temp\ccLLkDzL.s:27505  .debug_str:0000000000024ab0 .LASF3723
C:\Users\SOLDER~1\AppData\Local\Temp\ccLLkDzL.s:29541  .debug_str:000000000002d09b .LASF3724
C:\Users\SOLDER~1\AppData\Local\Temp\ccLLkDzL.s:26553  .debug_str:0000000000020c91 .LASF3725
C:\Users\SOLDER~1\AppData\Local\Temp\ccLLkDzL.s:23465  .debug_str:000000000001440d .LASF3726
C:\Users\SOLDER~1\AppData\Local\Temp\ccLLkDzL.s:28809  .debug_str:000000000002a0b7 .LASF3727
C:\Users\SOLDER~1\AppData\Local\Temp\ccLLkDzL.s:25395  .debug_str:000000000001c0a6 .LASF3728
C:\Users\SOLDER~1\AppData\Local\Temp\ccLLkDzL.s:23751  .debug_str:00000000000156f4 .LASF3729
C:\Users\SOLDER~1\AppData\Local\Temp\ccLLkDzL.s:24545  .debug_str:00000000000189f4 .LASF3730
C:\Users\SOLDER~1\AppData\Local\Temp\ccLLkDzL.s:20419  .debug_str:0000000000007bc3 .LASF3731
C:\Users\SOLDER~1\AppData\Local\Temp\ccLLkDzL.s:25069  .debug_str:000000000001abe0 .LASF3732
C:\Users\SOLDER~1\AppData\Local\Temp\ccLLkDzL.s:21415  .debug_str:000000000000bd05 .LASF3733
C:\Users\SOLDER~1\AppData\Local\Temp\ccLLkDzL.s:24841  .debug_str:0000000000019cd9 .LASF3734
C:\Users\SOLDER~1\AppData\Local\Temp\ccLLkDzL.s:21343  .debug_str:000000000000b84f .LASF3735
C:\Users\SOLDER~1\AppData\Local\Temp\ccLLkDzL.s:19899  .debug_str:0000000000005986 .LASF3736
C:\Users\SOLDER~1\AppData\Local\Temp\ccLLkDzL.s:22377  .debug_str:000000000000fcb7 .LASF3737
C:\Users\SOLDER~1\AppData\Local\Temp\ccLLkDzL.s:20203  .debug_str:0000000000006dcd .LASF3738
C:\Users\SOLDER~1\AppData\Local\Temp\ccLLkDzL.s:19313  .debug_str:0000000000003485 .LASF3739
C:\Users\SOLDER~1\AppData\Local\Temp\ccLLkDzL.s:26163  .debug_str:000000000001f364 .LASF3740
C:\Users\SOLDER~1\AppData\Local\Temp\ccLLkDzL.s:26255  .debug_str:000000000001f965 .LASF3741
C:\Users\SOLDER~1\AppData\Local\Temp\ccLLkDzL.s:21847  .debug_str:000000000000d999 .LASF3742
C:\Users\SOLDER~1\AppData\Local\Temp\ccLLkDzL.s:29763  .debug_str:000000000002deb3 .LASF3743
C:\Users\SOLDER~1\AppData\Local\Temp\ccLLkDzL.s:19893  .debug_str:0000000000005924 .LASF3744
C:\Users\SOLDER~1\AppData\Local\Temp\ccLLkDzL.s:28741  .debug_str:0000000000029c29 .LASF3745
C:\Users\SOLDER~1\AppData\Local\Temp\ccLLkDzL.s:21891  .debug_str:000000000000dc7e .LASF3746
C:\Users\SOLDER~1\AppData\Local\Temp\ccLLkDzL.s:26991  .debug_str:00000000000228df .LASF3747
C:\Users\SOLDER~1\AppData\Local\Temp\ccLLkDzL.s:23175  .debug_str:0000000000012fb5 .LASF3748
C:\Users\SOLDER~1\AppData\Local\Temp\ccLLkDzL.s:21653  .debug_str:000000000000cd1c .LASF3749
C:\Users\SOLDER~1\AppData\Local\Temp\ccLLkDzL.s:28897  .debug_str:000000000002a667 .LASF3750
C:\Users\SOLDER~1\AppData\Local\Temp\ccLLkDzL.s:25251  .debug_str:000000000001b6f1 .LASF3751
C:\Users\SOLDER~1\AppData\Local\Temp\ccLLkDzL.s:22397  .debug_str:000000000000fe0c .LASF3752
C:\Users\SOLDER~1\AppData\Local\Temp\ccLLkDzL.s:25845  .debug_str:000000000001de69 .LASF3753
C:\Users\SOLDER~1\AppData\Local\Temp\ccLLkDzL.s:22361  .debug_str:000000000000fba0 .LASF3754
C:\Users\SOLDER~1\AppData\Local\Temp\ccLLkDzL.s:24851  .debug_str:0000000000019d8b .LASF3755
C:\Users\SOLDER~1\AppData\Local\Temp\ccLLkDzL.s:25089  .debug_str:000000000001ad3a .LASF3756
C:\Users\SOLDER~1\AppData\Local\Temp\ccLLkDzL.s:22945  .debug_str:00000000000120ce .LASF3757
C:\Users\SOLDER~1\AppData\Local\Temp\ccLLkDzL.s:24429  .debug_str:000000000001827b .LASF3758
C:\Users\SOLDER~1\AppData\Local\Temp\ccLLkDzL.s:19085  .debug_str:00000000000025bf .LASF3759
C:\Users\SOLDER~1\AppData\Local\Temp\ccLLkDzL.s:19801  .debug_str:0000000000005317 .LASF3760
C:\Users\SOLDER~1\AppData\Local\Temp\ccLLkDzL.s:29343  .debug_str:000000000002c39c .LASF3761
C:\Users\SOLDER~1\AppData\Local\Temp\ccLLkDzL.s:29565  .debug_str:000000000002d220 .LASF3762
C:\Users\SOLDER~1\AppData\Local\Temp\ccLLkDzL.s:18789  .debug_str:0000000000001299 .LASF3763
C:\Users\SOLDER~1\AppData\Local\Temp\ccLLkDzL.s:24487  .debug_str:0000000000018615 .LASF3764
C:\Users\SOLDER~1\AppData\Local\Temp\ccLLkDzL.s:22663  .debug_str:0000000000010ede .LASF3765
C:\Users\SOLDER~1\AppData\Local\Temp\ccLLkDzL.s:27431  .debug_str:00000000000245cf .LASF3766
C:\Users\SOLDER~1\AppData\Local\Temp\ccLLkDzL.s:21215  .debug_str:000000000000b016 .LASF3767
C:\Users\SOLDER~1\AppData\Local\Temp\ccLLkDzL.s:26729  .debug_str:000000000002181c .LASF3768
C:\Users\SOLDER~1\AppData\Local\Temp\ccLLkDzL.s:19065  .debug_str:0000000000002493 .LASF3769
C:\Users\SOLDER~1\AppData\Local\Temp\ccLLkDzL.s:28213  .debug_str:0000000000027994 .LASF3770
C:\Users\SOLDER~1\AppData\Local\Temp\ccLLkDzL.s:18739  .debug_str:0000000000000f83 .LASF3771
C:\Users\SOLDER~1\AppData\Local\Temp\ccLLkDzL.s:27291  .debug_str:0000000000023c6c .LASF3772
C:\Users\SOLDER~1\AppData\Local\Temp\ccLLkDzL.s:23291  .debug_str:00000000000137eb .LASF3773
C:\Users\SOLDER~1\AppData\Local\Temp\ccLLkDzL.s:28615  .debug_str:00000000000293f2 .LASF3774
C:\Users\SOLDER~1\AppData\Local\Temp\ccLLkDzL.s:26071  .debug_str:000000000001ed1a .LASF3775
C:\Users\SOLDER~1\AppData\Local\Temp\ccLLkDzL.s:21731  .debug_str:000000000000d234 .LASF3776
C:\Users\SOLDER~1\AppData\Local\Temp\ccLLkDzL.s:20317  .debug_str:0000000000007552 .LASF3777
C:\Users\SOLDER~1\AppData\Local\Temp\ccLLkDzL.s:27927  .debug_str:0000000000026703 .LASF3778
GAS LISTING C:\Users\SOLDER~1\AppData\Local\Temp\ccLLkDzL.s 			page 80


C:\Users\SOLDER~1\AppData\Local\Temp\ccLLkDzL.s:26249  .debug_str:000000000001f90b .LASF3779
C:\Users\SOLDER~1\AppData\Local\Temp\ccLLkDzL.s:26505  .debug_str:000000000002097c .LASF3780
C:\Users\SOLDER~1\AppData\Local\Temp\ccLLkDzL.s:27401  .debug_str:00000000000243c6 .LASF3781
C:\Users\SOLDER~1\AppData\Local\Temp\ccLLkDzL.s:19499  .debug_str:000000000000404c .LASF3782
C:\Users\SOLDER~1\AppData\Local\Temp\ccLLkDzL.s:23565  .debug_str:0000000000014ae6 .LASF3783
C:\Users\SOLDER~1\AppData\Local\Temp\ccLLkDzL.s:22177  .debug_str:000000000000ef3c .LASF3784
C:\Users\SOLDER~1\AppData\Local\Temp\ccLLkDzL.s:20171  .debug_str:0000000000006bab .LASF3785
C:\Users\SOLDER~1\AppData\Local\Temp\ccLLkDzL.s:24363  .debug_str:0000000000017e39 .LASF3786
C:\Users\SOLDER~1\AppData\Local\Temp\ccLLkDzL.s:29545  .debug_str:000000000002d0e4 .LASF3787
C:\Users\SOLDER~1\AppData\Local\Temp\ccLLkDzL.s:27405  .debug_str:0000000000024403 .LASF3788
C:\Users\SOLDER~1\AppData\Local\Temp\ccLLkDzL.s:19951  .debug_str:0000000000005d08 .LASF3789
C:\Users\SOLDER~1\AppData\Local\Temp\ccLLkDzL.s:21085  .debug_str:000000000000a7bd .LASF3790
C:\Users\SOLDER~1\AppData\Local\Temp\ccLLkDzL.s:28445  .debug_str:00000000000288fb .LASF3791
C:\Users\SOLDER~1\AppData\Local\Temp\ccLLkDzL.s:28047  .debug_str:0000000000026ee9 .LASF3792
C:\Users\SOLDER~1\AppData\Local\Temp\ccLLkDzL.s:25673  .debug_str:000000000001d38a .LASF3793
C:\Users\SOLDER~1\AppData\Local\Temp\ccLLkDzL.s:29449  .debug_str:000000000002ca3d .LASF3794
C:\Users\SOLDER~1\AppData\Local\Temp\ccLLkDzL.s:22493  .debug_str:0000000000010418 .LASF3795
C:\Users\SOLDER~1\AppData\Local\Temp\ccLLkDzL.s:20967  .debug_str:0000000000009fc7 .LASF3796
C:\Users\SOLDER~1\AppData\Local\Temp\ccLLkDzL.s:22399  .debug_str:000000000000fe30 .LASF3797
C:\Users\SOLDER~1\AppData\Local\Temp\ccLLkDzL.s:28237  .debug_str:0000000000027b31 .LASF3798
C:\Users\SOLDER~1\AppData\Local\Temp\ccLLkDzL.s:28843  .debug_str:000000000002a308 .LASF3799
C:\Users\SOLDER~1\AppData\Local\Temp\ccLLkDzL.s:25317  .debug_str:000000000001bb50 .LASF3800
C:\Users\SOLDER~1\AppData\Local\Temp\ccLLkDzL.s:26551  .debug_str:0000000000020c7c .LASF3801
C:\Users\SOLDER~1\AppData\Local\Temp\ccLLkDzL.s:24235  .debug_str:00000000000175d5 .LASF3802
C:\Users\SOLDER~1\AppData\Local\Temp\ccLLkDzL.s:28555  .debug_str:0000000000028fec .LASF3803
C:\Users\SOLDER~1\AppData\Local\Temp\ccLLkDzL.s:26311  .debug_str:000000000001fcd3 .LASF3804
C:\Users\SOLDER~1\AppData\Local\Temp\ccLLkDzL.s:25433  .debug_str:000000000001c32b .LASF3805
C:\Users\SOLDER~1\AppData\Local\Temp\ccLLkDzL.s:18593  .debug_str:0000000000000508 .LASF3806
C:\Users\SOLDER~1\AppData\Local\Temp\ccLLkDzL.s:29189  .debug_str:000000000002b956 .LASF3807
C:\Users\SOLDER~1\AppData\Local\Temp\ccLLkDzL.s:18659  .debug_str:0000000000000a25 .LASF3808
C:\Users\SOLDER~1\AppData\Local\Temp\ccLLkDzL.s:23691  .debug_str:00000000000152ff .LASF3809
C:\Users\SOLDER~1\AppData\Local\Temp\ccLLkDzL.s:24005  .debug_str:00000000000166d8 .LASF3810
C:\Users\SOLDER~1\AppData\Local\Temp\ccLLkDzL.s:26273  .debug_str:000000000001fa8d .LASF3811
C:\Users\SOLDER~1\AppData\Local\Temp\ccLLkDzL.s:23815  .debug_str:0000000000015ae5 .LASF3812
C:\Users\SOLDER~1\AppData\Local\Temp\ccLLkDzL.s:20573  .debug_str:00000000000085dc .LASF3813
C:\Users\SOLDER~1\AppData\Local\Temp\ccLLkDzL.s:19527  .debug_str:0000000000004210 .LASF3814
C:\Users\SOLDER~1\AppData\Local\Temp\ccLLkDzL.s:20757  .debug_str:0000000000009225 .LASF3815
C:\Users\SOLDER~1\AppData\Local\Temp\ccLLkDzL.s:23793  .debug_str:000000000001598f .LASF3816
C:\Users\SOLDER~1\AppData\Local\Temp\ccLLkDzL.s:20593  .debug_str:0000000000008724 .LASF3817
C:\Users\SOLDER~1\AppData\Local\Temp\ccLLkDzL.s:21787  .debug_str:000000000000d5d6 .LASF3818
C:\Users\SOLDER~1\AppData\Local\Temp\ccLLkDzL.s:19705  .debug_str:0000000000004d57 .LASF3819
C:\Users\SOLDER~1\AppData\Local\Temp\ccLLkDzL.s:27473  .debug_str:000000000002487c .LASF3820
C:\Users\SOLDER~1\AppData\Local\Temp\ccLLkDzL.s:23033  .debug_str:000000000001266c .LASF3821
C:\Users\SOLDER~1\AppData\Local\Temp\ccLLkDzL.s:22373  .debug_str:000000000000fc70 .LASF3822
C:\Users\SOLDER~1\AppData\Local\Temp\ccLLkDzL.s:25575  .debug_str:000000000001cce3 .LASF3823
C:\Users\SOLDER~1\AppData\Local\Temp\ccLLkDzL.s:28781  .debug_str:0000000000029ec2 .LASF3824
C:\Users\SOLDER~1\AppData\Local\Temp\ccLLkDzL.s:20727  .debug_str:000000000000901d .LASF3825
C:\Users\SOLDER~1\AppData\Local\Temp\ccLLkDzL.s:26733  .debug_str:000000000002184f .LASF3826
C:\Users\SOLDER~1\AppData\Local\Temp\ccLLkDzL.s:20951  .debug_str:0000000000009ece .LASF3827
C:\Users\SOLDER~1\AppData\Local\Temp\ccLLkDzL.s:20365  .debug_str:000000000000781b .LASF3828
C:\Users\SOLDER~1\AppData\Local\Temp\ccLLkDzL.s:21555  .debug_str:000000000000c689 .LASF3829
C:\Users\SOLDER~1\AppData\Local\Temp\ccLLkDzL.s:21543  .debug_str:000000000000c5ad .LASF3830
C:\Users\SOLDER~1\AppData\Local\Temp\ccLLkDzL.s:19219  .debug_str:0000000000002e3d .LASF3831
C:\Users\SOLDER~1\AppData\Local\Temp\ccLLkDzL.s:21349  .debug_str:000000000000b8ad .LASF3832
C:\Users\SOLDER~1\AppData\Local\Temp\ccLLkDzL.s:27217  .debug_str:00000000000237c1 .LASF3833
C:\Users\SOLDER~1\AppData\Local\Temp\ccLLkDzL.s:18729  .debug_str:0000000000000ece .LASF3834
C:\Users\SOLDER~1\AppData\Local\Temp\ccLLkDzL.s:21877  .debug_str:000000000000db99 .LASF3835
GAS LISTING C:\Users\SOLDER~1\AppData\Local\Temp\ccLLkDzL.s 			page 81


C:\Users\SOLDER~1\AppData\Local\Temp\ccLLkDzL.s:29059  .debug_str:000000000002b122 .LASF3836
C:\Users\SOLDER~1\AppData\Local\Temp\ccLLkDzL.s:27135  .debug_str:000000000002326b .LASF3837
C:\Users\SOLDER~1\AppData\Local\Temp\ccLLkDzL.s:19589  .debug_str:0000000000004606 .LASF3838
C:\Users\SOLDER~1\AppData\Local\Temp\ccLLkDzL.s:27397  .debug_str:000000000002437f .LASF3839
C:\Users\SOLDER~1\AppData\Local\Temp\ccLLkDzL.s:26931  .debug_str:00000000000224ce .LASF3840
C:\Users\SOLDER~1\AppData\Local\Temp\ccLLkDzL.s:19545  .debug_str:000000000000432e .LASF3841
C:\Users\SOLDER~1\AppData\Local\Temp\ccLLkDzL.s:21609  .debug_str:000000000000ca2f .LASF3842
C:\Users\SOLDER~1\AppData\Local\Temp\ccLLkDzL.s:28623  .debug_str:0000000000029489 .LASF3843
C:\Users\SOLDER~1\AppData\Local\Temp\ccLLkDzL.s:21065  .debug_str:000000000000a675 .LASF3844
C:\Users\SOLDER~1\AppData\Local\Temp\ccLLkDzL.s:26967  .debug_str:0000000000022732 .LASF3845
C:\Users\SOLDER~1\AppData\Local\Temp\ccLLkDzL.s:25565  .debug_str:000000000001cc56 .LASF3846
C:\Users\SOLDER~1\AppData\Local\Temp\ccLLkDzL.s:27275  .debug_str:0000000000023b5a .LASF3847
C:\Users\SOLDER~1\AppData\Local\Temp\ccLLkDzL.s:22579  .debug_str:0000000000010998 .LASF3848
C:\Users\SOLDER~1\AppData\Local\Temp\ccLLkDzL.s:23947  .debug_str:0000000000016386 .LASF3849
C:\Users\SOLDER~1\AppData\Local\Temp\ccLLkDzL.s:19967  .debug_str:0000000000005df8 .LASF3850
C:\Users\SOLDER~1\AppData\Local\Temp\ccLLkDzL.s:21453  .debug_str:000000000000bf7c .LASF3851
C:\Users\SOLDER~1\AppData\Local\Temp\ccLLkDzL.s:21211  .debug_str:000000000000afe1 .LASF3852
C:\Users\SOLDER~1\AppData\Local\Temp\ccLLkDzL.s:21241  .debug_str:000000000000b1a1 .LASF3853
C:\Users\SOLDER~1\AppData\Local\Temp\ccLLkDzL.s:19229  .debug_str:0000000000002f1d .LASF3854
C:\Users\SOLDER~1\AppData\Local\Temp\ccLLkDzL.s:24675  .debug_str:0000000000019296 .LASF3855
C:\Users\SOLDER~1\AppData\Local\Temp\ccLLkDzL.s:21873  .debug_str:000000000000db5e .LASF3856
C:\Users\SOLDER~1\AppData\Local\Temp\ccLLkDzL.s:29521  .debug_str:000000000002cf2e .LASF3857
C:\Users\SOLDER~1\AppData\Local\Temp\ccLLkDzL.s:29223  .debug_str:000000000002bb7f .LASF3858
C:\Users\SOLDER~1\AppData\Local\Temp\ccLLkDzL.s:27645  .debug_str:00000000000253aa .LASF3859
C:\Users\SOLDER~1\AppData\Local\Temp\ccLLkDzL.s:25915  .debug_str:000000000001e2af .LASF3860
C:\Users\SOLDER~1\AppData\Local\Temp\ccLLkDzL.s:18689  .debug_str:0000000000000c2b .LASF3861
C:\Users\SOLDER~1\AppData\Local\Temp\ccLLkDzL.s:28681  .debug_str:0000000000029811 .LASF3862
C:\Users\SOLDER~1\AppData\Local\Temp\ccLLkDzL.s:19389  .debug_str:0000000000003940 .LASF3863
C:\Users\SOLDER~1\AppData\Local\Temp\ccLLkDzL.s:29589  .debug_str:000000000002d395 .LASF3864
C:\Users\SOLDER~1\AppData\Local\Temp\ccLLkDzL.s:22031  .debug_str:000000000000e5ef .LASF3865
C:\Users\SOLDER~1\AppData\Local\Temp\ccLLkDzL.s:21209  .debug_str:000000000000afc1 .LASF3866
C:\Users\SOLDER~1\AppData\Local\Temp\ccLLkDzL.s:22371  .debug_str:000000000000fc50 .LASF3867
C:\Users\SOLDER~1\AppData\Local\Temp\ccLLkDzL.s:24419  .debug_str:00000000000181da .LASF3868
C:\Users\SOLDER~1\AppData\Local\Temp\ccLLkDzL.s:25455  .debug_str:000000000001c4c4 .LASF3869
C:\Users\SOLDER~1\AppData\Local\Temp\ccLLkDzL.s:22023  .debug_str:000000000000e563 .LASF3870
C:\Users\SOLDER~1\AppData\Local\Temp\ccLLkDzL.s:21229  .debug_str:000000000000b0d6 .LASF3871
C:\Users\SOLDER~1\AppData\Local\Temp\ccLLkDzL.s:29689  .debug_str:000000000002d9f9 .LASF3872
C:\Users\SOLDER~1\AppData\Local\Temp\ccLLkDzL.s:24517  .debug_str:0000000000018807 .LASF3873
C:\Users\SOLDER~1\AppData\Local\Temp\ccLLkDzL.s:19479  .debug_str:0000000000003ef6 .LASF3874
C:\Users\SOLDER~1\AppData\Local\Temp\ccLLkDzL.s:28513  .debug_str:0000000000028d33 .LASF3875
C:\Users\SOLDER~1\AppData\Local\Temp\ccLLkDzL.s:20411  .debug_str:0000000000007b35 .LASF3876
C:\Users\SOLDER~1\AppData\Local\Temp\ccLLkDzL.s:19477  .debug_str:0000000000003ed2 .LASF3877
C:\Users\SOLDER~1\AppData\Local\Temp\ccLLkDzL.s:24639  .debug_str:000000000001902d .LASF3878
C:\Users\SOLDER~1\AppData\Local\Temp\ccLLkDzL.s:21465  .debug_str:000000000000c04e .LASF3879
C:\Users\SOLDER~1\AppData\Local\Temp\ccLLkDzL.s:21545  .debug_str:000000000000c5cf .LASF3880
C:\Users\SOLDER~1\AppData\Local\Temp\ccLLkDzL.s:27481  .debug_str:00000000000248f6 .LASF3881
C:\Users\SOLDER~1\AppData\Local\Temp\ccLLkDzL.s:22281  .debug_str:000000000000f5f0 .LASF3882
C:\Users\SOLDER~1\AppData\Local\Temp\ccLLkDzL.s:18535  .debug_str:000000000000015d .LASF3883
C:\Users\SOLDER~1\AppData\Local\Temp\ccLLkDzL.s:29133  .debug_str:000000000002b5e5 .LASF3884
C:\Users\SOLDER~1\AppData\Local\Temp\ccLLkDzL.s:28545  .debug_str:0000000000028f31 .LASF3885
C:\Users\SOLDER~1\AppData\Local\Temp\ccLLkDzL.s:21911  .debug_str:000000000000ddde .LASF3886
C:\Users\SOLDER~1\AppData\Local\Temp\ccLLkDzL.s:26465  .debug_str:00000000000206d7 .LASF3887
C:\Users\SOLDER~1\AppData\Local\Temp\ccLLkDzL.s:18669  .debug_str:0000000000000acc .LASF3888
C:\Users\SOLDER~1\AppData\Local\Temp\ccLLkDzL.s:29773  .debug_str:000000000002df48 .LASF3889
C:\Users\SOLDER~1\AppData\Local\Temp\ccLLkDzL.s:21199  .debug_str:000000000000af19 .LASF3890
C:\Users\SOLDER~1\AppData\Local\Temp\ccLLkDzL.s:22445  .debug_str:00000000000100f7 .LASF3891
C:\Users\SOLDER~1\AppData\Local\Temp\ccLLkDzL.s:29277  .debug_str:000000000002bf52 .LASF3892
GAS LISTING C:\Users\SOLDER~1\AppData\Local\Temp\ccLLkDzL.s 			page 82


C:\Users\SOLDER~1\AppData\Local\Temp\ccLLkDzL.s:20537  .debug_str:00000000000083a6 .LASF3893
C:\Users\SOLDER~1\AppData\Local\Temp\ccLLkDzL.s:25593  .debug_str:000000000001ce03 .LASF3894
C:\Users\SOLDER~1\AppData\Local\Temp\ccLLkDzL.s:24601  .debug_str:0000000000018ddc .LASF3895
C:\Users\SOLDER~1\AppData\Local\Temp\ccLLkDzL.s:26555  .debug_str:0000000000020cb2 .LASF3896
C:\Users\SOLDER~1\AppData\Local\Temp\ccLLkDzL.s:20869  .debug_str:0000000000009976 .LASF3897
C:\Users\SOLDER~1\AppData\Local\Temp\ccLLkDzL.s:28261  .debug_str:0000000000027ce8 .LASF3898
C:\Users\SOLDER~1\AppData\Local\Temp\ccLLkDzL.s:18931  .debug_str:0000000000001ba3 .LASF3899
C:\Users\SOLDER~1\AppData\Local\Temp\ccLLkDzL.s:24205  .debug_str:00000000000173cd .LASF3900
C:\Users\SOLDER~1\AppData\Local\Temp\ccLLkDzL.s:28977  .debug_str:000000000002ab92 .LASF3901
C:\Users\SOLDER~1\AppData\Local\Temp\ccLLkDzL.s:29787  .debug_str:000000000002e043 .LASF3902
C:\Users\SOLDER~1\AppData\Local\Temp\ccLLkDzL.s:22169  .debug_str:000000000000eed1 .LASF3903
C:\Users\SOLDER~1\AppData\Local\Temp\ccLLkDzL.s:23489  .debug_str:00000000000145bc .LASF3904
C:\Users\SOLDER~1\AppData\Local\Temp\ccLLkDzL.s:25501  .debug_str:000000000001c7c6 .LASF3905
C:\Users\SOLDER~1\AppData\Local\Temp\ccLLkDzL.s:27411  .debug_str:0000000000024487 .LASF3906
C:\Users\SOLDER~1\AppData\Local\Temp\ccLLkDzL.s:28473  .debug_str:0000000000028a93 .LASF3907
C:\Users\SOLDER~1\AppData\Local\Temp\ccLLkDzL.s:25867  .debug_str:000000000001dfc6 .LASF3908
C:\Users\SOLDER~1\AppData\Local\Temp\ccLLkDzL.s:29785  .debug_str:000000000002e020 .LASF3909
C:\Users\SOLDER~1\AppData\Local\Temp\ccLLkDzL.s:23861  .debug_str:0000000000015dd9 .LASF3910
C:\Users\SOLDER~1\AppData\Local\Temp\ccLLkDzL.s:29647  .debug_str:000000000002d754 .LASF3911
C:\Users\SOLDER~1\AppData\Local\Temp\ccLLkDzL.s:24397  .debug_str:0000000000018076 .LASF3912
C:\Users\SOLDER~1\AppData\Local\Temp\ccLLkDzL.s:28307  .debug_str:0000000000028006 .LASF3913
C:\Users\SOLDER~1\AppData\Local\Temp\ccLLkDzL.s:19611  .debug_str:000000000000477c .LASF3914
C:\Users\SOLDER~1\AppData\Local\Temp\ccLLkDzL.s:24905  .debug_str:000000000001a0f8 .LASF3915
C:\Users\SOLDER~1\AppData\Local\Temp\ccLLkDzL.s:26103  .debug_str:000000000001ef55 .LASF3916
C:\Users\SOLDER~1\AppData\Local\Temp\ccLLkDzL.s:26567  .debug_str:0000000000020d7f .LASF3917
C:\Users\SOLDER~1\AppData\Local\Temp\ccLLkDzL.s:23743  .debug_str:000000000001566c .LASF3918
C:\Users\SOLDER~1\AppData\Local\Temp\ccLLkDzL.s:27837  .debug_str:00000000000260ec .LASF3919
C:\Users\SOLDER~1\AppData\Local\Temp\ccLLkDzL.s:28753  .debug_str:0000000000029ceb .LASF3920
C:\Users\SOLDER~1\AppData\Local\Temp\ccLLkDzL.s:27715  .debug_str:0000000000025862 .LASF3921
C:\Users\SOLDER~1\AppData\Local\Temp\ccLLkDzL.s:20283  .debug_str:0000000000007335 .LASF3922
C:\Users\SOLDER~1\AppData\Local\Temp\ccLLkDzL.s:26655  .debug_str:0000000000021348 .LASF3923
C:\Users\SOLDER~1\AppData\Local\Temp\ccLLkDzL.s:22669  .debug_str:0000000000010f33 .LASF3924
C:\Users\SOLDER~1\AppData\Local\Temp\ccLLkDzL.s:26497  .debug_str:00000000000208ee .LASF3925
C:\Users\SOLDER~1\AppData\Local\Temp\ccLLkDzL.s:19763  .debug_str:00000000000050ba .LASF3926
C:\Users\SOLDER~1\AppData\Local\Temp\ccLLkDzL.s:23215  .debug_str:0000000000013289 .LASF3927
C:\Users\SOLDER~1\AppData\Local\Temp\ccLLkDzL.s:20887  .debug_str:0000000000009a8e .LASF3928
C:\Users\SOLDER~1\AppData\Local\Temp\ccLLkDzL.s:19357  .debug_str:0000000000003737 .LASF3929
C:\Users\SOLDER~1\AppData\Local\Temp\ccLLkDzL.s:20391  .debug_str:00000000000079d7 .LASF3930
C:\Users\SOLDER~1\AppData\Local\Temp\ccLLkDzL.s:26117  .debug_str:000000000001f03c .LASF3931
C:\Users\SOLDER~1\AppData\Local\Temp\ccLLkDzL.s:25595  .debug_str:000000000001ce1a .LASF3932
C:\Users\SOLDER~1\AppData\Local\Temp\ccLLkDzL.s:28323  .debug_str:00000000000280f5 .LASF3933
C:\Users\SOLDER~1\AppData\Local\Temp\ccLLkDzL.s:27891  .debug_str:0000000000026479 .LASF3934
C:\Users\SOLDER~1\AppData\Local\Temp\ccLLkDzL.s:20881  .debug_str:0000000000009a31 .LASF3935
C:\Users\SOLDER~1\AppData\Local\Temp\ccLLkDzL.s:22067  .debug_str:000000000000e883 .LASF3936
C:\Users\SOLDER~1\AppData\Local\Temp\ccLLkDzL.s:23817  .debug_str:0000000000015b07 .LASF3937
C:\Users\SOLDER~1\AppData\Local\Temp\ccLLkDzL.s:19823  .debug_str:000000000000545e .LASF3938
C:\Users\SOLDER~1\AppData\Local\Temp\ccLLkDzL.s:20569  .debug_str:0000000000008587 .LASF3939
C:\Users\SOLDER~1\AppData\Local\Temp\ccLLkDzL.s:28827  .debug_str:000000000002a207 .LASF3940
C:\Users\SOLDER~1\AppData\Local\Temp\ccLLkDzL.s:24347  .debug_str:0000000000017d09 .LASF3941
C:\Users\SOLDER~1\AppData\Local\Temp\ccLLkDzL.s:21991  .debug_str:000000000000e37f .LASF3942
C:\Users\SOLDER~1\AppData\Local\Temp\ccLLkDzL.s:26571  .debug_str:0000000000020dc5 .LASF3943
C:\Users\SOLDER~1\AppData\Local\Temp\ccLLkDzL.s:19117  .debug_str:00000000000027cb .LASF3944
C:\Users\SOLDER~1\AppData\Local\Temp\ccLLkDzL.s:25357  .debug_str:000000000001bdf1 .LASF3945
C:\Users\SOLDER~1\AppData\Local\Temp\ccLLkDzL.s:20525  .debug_str:00000000000082d1 .LASF3946
C:\Users\SOLDER~1\AppData\Local\Temp\ccLLkDzL.s:26439  .debug_str:0000000000020526 .LASF3947
C:\Users\SOLDER~1\AppData\Local\Temp\ccLLkDzL.s:27589  .debug_str:0000000000025012 .LASF3948
C:\Users\SOLDER~1\AppData\Local\Temp\ccLLkDzL.s:23717  .debug_str:00000000000154bb .LASF3949
GAS LISTING C:\Users\SOLDER~1\AppData\Local\Temp\ccLLkDzL.s 			page 83


C:\Users\SOLDER~1\AppData\Local\Temp\ccLLkDzL.s:18791  .debug_str:00000000000012ac .LASF3950
C:\Users\SOLDER~1\AppData\Local\Temp\ccLLkDzL.s:27179  .debug_str:0000000000023548 .LASF3951
C:\Users\SOLDER~1\AppData\Local\Temp\ccLLkDzL.s:19483  .debug_str:0000000000003f42 .LASF3952
C:\Users\SOLDER~1\AppData\Local\Temp\ccLLkDzL.s:22409  .debug_str:000000000000fecd .LASF3953
C:\Users\SOLDER~1\AppData\Local\Temp\ccLLkDzL.s:23821  .debug_str:0000000000015b48 .LASF3954
C:\Users\SOLDER~1\AppData\Local\Temp\ccLLkDzL.s:20465  .debug_str:0000000000007ed6 .LASF3955
C:\Users\SOLDER~1\AppData\Local\Temp\ccLLkDzL.s:18837  .debug_str:00000000000015b9 .LASF3956
C:\Users\SOLDER~1\AppData\Local\Temp\ccLLkDzL.s:29995  .debug_str:000000000002ed84 .LASF3957
C:\Users\SOLDER~1\AppData\Local\Temp\ccLLkDzL.s:22963  .debug_str:00000000000121e3 .LASF3958
C:\Users\SOLDER~1\AppData\Local\Temp\ccLLkDzL.s:24167  .debug_str:000000000001714c .LASF3959
C:\Users\SOLDER~1\AppData\Local\Temp\ccLLkDzL.s:21945  .debug_str:000000000000e064 .LASF3960
C:\Users\SOLDER~1\AppData\Local\Temp\ccLLkDzL.s:24427  .debug_str:0000000000018253 .LASF3961
C:\Users\SOLDER~1\AppData\Local\Temp\ccLLkDzL.s:27603  .debug_str:0000000000025109 .LASF3962
C:\Users\SOLDER~1\AppData\Local\Temp\ccLLkDzL.s:21943  .debug_str:000000000000e03d .LASF3963
C:\Users\SOLDER~1\AppData\Local\Temp\ccLLkDzL.s:22079  .debug_str:000000000000e939 .LASF3964
C:\Users\SOLDER~1\AppData\Local\Temp\ccLLkDzL.s:26499  .debug_str:000000000002090e .LASF3965
C:\Users\SOLDER~1\AppData\Local\Temp\ccLLkDzL.s:26565  .debug_str:0000000000020d57 .LASF3966
C:\Users\SOLDER~1\AppData\Local\Temp\ccLLkDzL.s:25537  .debug_str:000000000001ca57 .LASF3967
C:\Users\SOLDER~1\AppData\Local\Temp\ccLLkDzL.s:27321  .debug_str:0000000000023e6b .LASF3968
C:\Users\SOLDER~1\AppData\Local\Temp\ccLLkDzL.s:24309  .debug_str:0000000000017a80 .LASF3969
C:\Users\SOLDER~1\AppData\Local\Temp\ccLLkDzL.s:21533  .debug_str:000000000000c50b .LASF3970
C:\Users\SOLDER~1\AppData\Local\Temp\ccLLkDzL.s:21107  .debug_str:000000000000a937 .LASF3971
C:\Users\SOLDER~1\AppData\Local\Temp\ccLLkDzL.s:19621  .debug_str:0000000000004829 .LASF3972
C:\Users\SOLDER~1\AppData\Local\Temp\ccLLkDzL.s:27847  .debug_str:00000000000261b2 .LASF3973
C:\Users\SOLDER~1\AppData\Local\Temp\ccLLkDzL.s:22331  .debug_str:000000000000f978 .LASF3974
C:\Users\SOLDER~1\AppData\Local\Temp\ccLLkDzL.s:22527  .debug_str:0000000000010607 .LASF3975
C:\Users\SOLDER~1\AppData\Local\Temp\ccLLkDzL.s:18649  .debug_str:0000000000000979 .LASF3976
C:\Users\SOLDER~1\AppData\Local\Temp\ccLLkDzL.s:20185  .debug_str:0000000000006c89 .LASF3977
C:\Users\SOLDER~1\AppData\Local\Temp\ccLLkDzL.s:29877  .debug_str:000000000002e60f .LASF3978
C:\Users\SOLDER~1\AppData\Local\Temp\ccLLkDzL.s:21045  .debug_str:000000000000a4df .LASF3979
C:\Users\SOLDER~1\AppData\Local\Temp\ccLLkDzL.s:24083  .debug_str:0000000000016b9e .LASF3980
C:\Users\SOLDER~1\AppData\Local\Temp\ccLLkDzL.s:28009  .debug_str:0000000000026c5d .LASF3981
C:\Users\SOLDER~1\AppData\Local\Temp\ccLLkDzL.s:25123  .debug_str:000000000001af17 .LASF3982
C:\Users\SOLDER~1\AppData\Local\Temp\ccLLkDzL.s:28441  .debug_str:00000000000288bb .LASF3983
C:\Users\SOLDER~1\AppData\Local\Temp\ccLLkDzL.s:24247  .debug_str:0000000000017676 .LASF3984
C:\Users\SOLDER~1\AppData\Local\Temp\ccLLkDzL.s:28003  .debug_str:0000000000026bf2 .LASF3985
C:\Users\SOLDER~1\AppData\Local\Temp\ccLLkDzL.s:20615  .debug_str:000000000000887c .LASF3986
C:\Users\SOLDER~1\AppData\Local\Temp\ccLLkDzL.s:20135  .debug_str:0000000000006970 .LASF3987
C:\Users\SOLDER~1\AppData\Local\Temp\ccLLkDzL.s:25731  .debug_str:000000000001d704 .LASF3988
C:\Users\SOLDER~1\AppData\Local\Temp\ccLLkDzL.s:20311  .debug_str:0000000000007502 .LASF3989
C:\Users\SOLDER~1\AppData\Local\Temp\ccLLkDzL.s:27873  .debug_str:000000000002637d .LASF3990
C:\Users\SOLDER~1\AppData\Local\Temp\ccLLkDzL.s:19475  .debug_str:0000000000003eb5 .LASF3991
C:\Users\SOLDER~1\AppData\Local\Temp\ccLLkDzL.s:27313  .debug_str:0000000000023de8 .LASF3992
C:\Users\SOLDER~1\AppData\Local\Temp\ccLLkDzL.s:20709  .debug_str:0000000000008ee3 .LASF3993
C:\Users\SOLDER~1\AppData\Local\Temp\ccLLkDzL.s:21281  .debug_str:000000000000b464 .LASF3994
C:\Users\SOLDER~1\AppData\Local\Temp\ccLLkDzL.s:21559  .debug_str:000000000000c6cf .LASF3995
C:\Users\SOLDER~1\AppData\Local\Temp\ccLLkDzL.s:27391  .debug_str:0000000000024310 .LASF3996
C:\Users\SOLDER~1\AppData\Local\Temp\ccLLkDzL.s:28987  .debug_str:000000000002ac33 .LASF3997
C:\Users\SOLDER~1\AppData\Local\Temp\ccLLkDzL.s:20753  .debug_str:0000000000009203 .LASF3998
C:\Users\SOLDER~1\AppData\Local\Temp\ccLLkDzL.s:23021  .debug_str:00000000000125c1 .LASF3999
C:\Users\SOLDER~1\AppData\Local\Temp\ccLLkDzL.s:23501  .debug_str:000000000001466d .LASF4000
C:\Users\SOLDER~1\AppData\Local\Temp\ccLLkDzL.s:28219  .debug_str:00000000000279ef .LASF4001
C:\Users\SOLDER~1\AppData\Local\Temp\ccLLkDzL.s:29797  .debug_str:000000000002e0da .LASF4002
C:\Users\SOLDER~1\AppData\Local\Temp\ccLLkDzL.s:19053  .debug_str:00000000000023c6 .LASF4003
C:\Users\SOLDER~1\AppData\Local\Temp\ccLLkDzL.s:23953  .debug_str:00000000000163d1 .LASF4004
C:\Users\SOLDER~1\AppData\Local\Temp\ccLLkDzL.s:25711  .debug_str:000000000001d5b4 .LASF4005
C:\Users\SOLDER~1\AppData\Local\Temp\ccLLkDzL.s:28559  .debug_str:0000000000029026 .LASF4006
GAS LISTING C:\Users\SOLDER~1\AppData\Local\Temp\ccLLkDzL.s 			page 84


C:\Users\SOLDER~1\AppData\Local\Temp\ccLLkDzL.s:19817  .debug_str:000000000000540f .LASF4007
C:\Users\SOLDER~1\AppData\Local\Temp\ccLLkDzL.s:20501  .debug_str:0000000000008156 .LASF4008
C:\Users\SOLDER~1\AppData\Local\Temp\ccLLkDzL.s:18755  .debug_str:0000000000001064 .LASF4009
C:\Users\SOLDER~1\AppData\Local\Temp\ccLLkDzL.s:28413  .debug_str:00000000000286f6 .LASF4010
C:\Users\SOLDER~1\AppData\Local\Temp\ccLLkDzL.s:18721  .debug_str:0000000000000e58 .LASF4011
C:\Users\SOLDER~1\AppData\Local\Temp\ccLLkDzL.s:28903  .debug_str:000000000002a6cc .LASF4012
C:\Users\SOLDER~1\AppData\Local\Temp\ccLLkDzL.s:28433  .debug_str:000000000002882e .LASF4013
C:\Users\SOLDER~1\AppData\Local\Temp\ccLLkDzL.s:24897  .debug_str:000000000001a07a .LASF4014
C:\Users\SOLDER~1\AppData\Local\Temp\ccLLkDzL.s:28001  .debug_str:0000000000026bd6 .LASF4015
C:\Users\SOLDER~1\AppData\Local\Temp\ccLLkDzL.s:18971  .debug_str:0000000000001e5a .LASF4016
C:\Users\SOLDER~1\AppData\Local\Temp\ccLLkDzL.s:29483  .debug_str:000000000002cc7f .LASF4017
C:\Users\SOLDER~1\AppData\Local\Temp\ccLLkDzL.s:26747  .debug_str:000000000002194f .LASF4018
C:\Users\SOLDER~1\AppData\Local\Temp\ccLLkDzL.s:18575  .debug_str:00000000000003ea .LASF4019
C:\Users\SOLDER~1\AppData\Local\Temp\ccLLkDzL.s:21521  .debug_str:000000000000c454 .LASF4020
C:\Users\SOLDER~1\AppData\Local\Temp\ccLLkDzL.s:21359  .debug_str:000000000000b963 .LASF4021
C:\Users\SOLDER~1\AppData\Local\Temp\ccLLkDzL.s:27367  .debug_str:000000000002416a .LASF4022
C:\Users\SOLDER~1\AppData\Local\Temp\ccLLkDzL.s:27729  .debug_str:0000000000025973 .LASF4023
C:\Users\SOLDER~1\AppData\Local\Temp\ccLLkDzL.s:28347  .debug_str:000000000002827e .LASF4024
C:\Users\SOLDER~1\AppData\Local\Temp\ccLLkDzL.s:19511  .debug_str:0000000000004127 .LASF4025
C:\Users\SOLDER~1\AppData\Local\Temp\ccLLkDzL.s:26023  .debug_str:000000000001ea16 .LASF4026
C:\Users\SOLDER~1\AppData\Local\Temp\ccLLkDzL.s:23593  .debug_str:0000000000014ca5 .LASF4027
C:\Users\SOLDER~1\AppData\Local\Temp\ccLLkDzL.s:29857  .debug_str:000000000002e4b9 .LASF4028
C:\Users\SOLDER~1\AppData\Local\Temp\ccLLkDzL.s:19373  .debug_str:0000000000003843 .LASF4029
C:\Users\SOLDER~1\AppData\Local\Temp\ccLLkDzL.s:25239  .debug_str:000000000001b66a .LASF4030
C:\Users\SOLDER~1\AppData\Local\Temp\ccLLkDzL.s:27895  .debug_str:00000000000264c6 .LASF4031
C:\Users\SOLDER~1\AppData\Local\Temp\ccLLkDzL.s:22439  .debug_str:0000000000010099 .LASF4032
C:\Users\SOLDER~1\AppData\Local\Temp\ccLLkDzL.s:27109  .debug_str:0000000000023089 .LASF4033
C:\Users\SOLDER~1\AppData\Local\Temp\ccLLkDzL.s:21361  .debug_str:000000000000b980 .LASF4034
C:\Users\SOLDER~1\AppData\Local\Temp\ccLLkDzL.s:28759  .debug_str:0000000000029d52 .LASF4035
C:\Users\SOLDER~1\AppData\Local\Temp\ccLLkDzL.s:20841  .debug_str:00000000000097a4 .LASF4036
C:\Users\SOLDER~1\AppData\Local\Temp\ccLLkDzL.s:19683  .debug_str:0000000000004c0f .LASF4037
C:\Users\SOLDER~1\AppData\Local\Temp\ccLLkDzL.s:24405  .debug_str:0000000000018102 .LASF4038
C:\Users\SOLDER~1\AppData\Local\Temp\ccLLkDzL.s:20585  .debug_str:00000000000086b8 .LASF4039
C:\Users\SOLDER~1\AppData\Local\Temp\ccLLkDzL.s:26529  .debug_str:0000000000020aec .LASF4040
C:\Users\SOLDER~1\AppData\Local\Temp\ccLLkDzL.s:29609  .debug_str:000000000002d4d2 .LASF4041
C:\Users\SOLDER~1\AppData\Local\Temp\ccLLkDzL.s:22163  .debug_str:000000000000ee7c .LASF4042
C:\Users\SOLDER~1\AppData\Local\Temp\ccLLkDzL.s:29713  .debug_str:000000000002db8f .LASF4043
C:\Users\SOLDER~1\AppData\Local\Temp\ccLLkDzL.s:26297  .debug_str:000000000001fbfe .LASF4044
C:\Users\SOLDER~1\AppData\Local\Temp\ccLLkDzL.s:19877  .debug_str:000000000000581e .LASF4045
C:\Users\SOLDER~1\AppData\Local\Temp\ccLLkDzL.s:25739  .debug_str:000000000001d746 .LASF4046
C:\Users\SOLDER~1\AppData\Local\Temp\ccLLkDzL.s:19869  .debug_str:000000000000578a .LASF4047
C:\Users\SOLDER~1\AppData\Local\Temp\ccLLkDzL.s:27577  .debug_str:0000000000024f6f .LASF4048
C:\Users\SOLDER~1\AppData\Local\Temp\ccLLkDzL.s:22705  .debug_str:0000000000011177 .LASF4049
C:\Users\SOLDER~1\AppData\Local\Temp\ccLLkDzL.s:23271  .debug_str:0000000000013659 .LASF4050
C:\Users\SOLDER~1\AppData\Local\Temp\ccLLkDzL.s:19185  .debug_str:0000000000002c10 .LASF4051
C:\Users\SOLDER~1\AppData\Local\Temp\ccLLkDzL.s:23385  .debug_str:0000000000013ea3 .LASF4052
C:\Users\SOLDER~1\AppData\Local\Temp\ccLLkDzL.s:22495  .debug_str:000000000001042e .LASF4053
C:\Users\SOLDER~1\AppData\Local\Temp\ccLLkDzL.s:22679  .debug_str:0000000000010fe2 .LASF4054
C:\Users\SOLDER~1\AppData\Local\Temp\ccLLkDzL.s:26979  .debug_str:0000000000022815 .LASF4055
C:\Users\SOLDER~1\AppData\Local\Temp\ccLLkDzL.s:22599  .debug_str:0000000000010abd .LASF4056
C:\Users\SOLDER~1\AppData\Local\Temp\ccLLkDzL.s:19277  .debug_str:0000000000003217 .LASF4057
C:\Users\SOLDER~1\AppData\Local\Temp\ccLLkDzL.s:23131  .debug_str:0000000000012d20 .LASF4058
C:\Users\SOLDER~1\AppData\Local\Temp\ccLLkDzL.s:23047  .debug_str:000000000001275e .LASF4059
C:\Users\SOLDER~1\AppData\Local\Temp\ccLLkDzL.s:20745  .debug_str:0000000000009189 .LASF4060
C:\Users\SOLDER~1\AppData\Local\Temp\ccLLkDzL.s:19965  .debug_str:0000000000005ddd .LASF4061
C:\Users\SOLDER~1\AppData\Local\Temp\ccLLkDzL.s:26525  .debug_str:0000000000020ac2 .LASF4062
C:\Users\SOLDER~1\AppData\Local\Temp\ccLLkDzL.s:24193  .debug_str:000000000001730a .LASF4063
GAS LISTING C:\Users\SOLDER~1\AppData\Local\Temp\ccLLkDzL.s 			page 85


C:\Users\SOLDER~1\AppData\Local\Temp\ccLLkDzL.s:26401  .debug_str:000000000002029f .LASF4064
C:\Users\SOLDER~1\AppData\Local\Temp\ccLLkDzL.s:26785  .debug_str:0000000000021bab .LASF4065
C:\Users\SOLDER~1\AppData\Local\Temp\ccLLkDzL.s:26987  .debug_str:00000000000228a6 .LASF4066
C:\Users\SOLDER~1\AppData\Local\Temp\ccLLkDzL.s:23001  .debug_str:000000000001247d .LASF4067
C:\Users\SOLDER~1\AppData\Local\Temp\ccLLkDzL.s:27119  .debug_str:0000000000023138 .LASF4068
C:\Users\SOLDER~1\AppData\Local\Temp\ccLLkDzL.s:20015  .debug_str:0000000000006160 .LASF4069
C:\Users\SOLDER~1\AppData\Local\Temp\ccLLkDzL.s:27263  .debug_str:0000000000023a90 .LASF4070
C:\Users\SOLDER~1\AppData\Local\Temp\ccLLkDzL.s:24477  .debug_str:0000000000018585 .LASF4071
C:\Users\SOLDER~1\AppData\Local\Temp\ccLLkDzL.s:26763  .debug_str:0000000000021a4c .LASF4072
C:\Users\SOLDER~1\AppData\Local\Temp\ccLLkDzL.s:19013  .debug_str:000000000000210e .LASF4073
C:\Users\SOLDER~1\AppData\Local\Temp\ccLLkDzL.s:27883  .debug_str:0000000000026413 .LASF4074
C:\Users\SOLDER~1\AppData\Local\Temp\ccLLkDzL.s:26871  .debug_str:00000000000220db .LASF4075
C:\Users\SOLDER~1\AppData\Local\Temp\ccLLkDzL.s:23123  .debug_str:0000000000012c94 .LASF4076
C:\Users\SOLDER~1\AppData\Local\Temp\ccLLkDzL.s:27685  .debug_str:0000000000025637 .LASF4077
C:\Users\SOLDER~1\AppData\Local\Temp\ccLLkDzL.s:19415  .debug_str:0000000000003b08 .LASF4078
C:\Users\SOLDER~1\AppData\Local\Temp\ccLLkDzL.s:22317  .debug_str:000000000000f87b .LASF4079
C:\Users\SOLDER~1\AppData\Local\Temp\ccLLkDzL.s:21249  .debug_str:000000000000b227 .LASF4080
C:\Users\SOLDER~1\AppData\Local\Temp\ccLLkDzL.s:19677  .debug_str:0000000000004baa .LASF4081
C:\Users\SOLDER~1\AppData\Local\Temp\ccLLkDzL.s:28215  .debug_str:00000000000279b7 .LASF4082
C:\Users\SOLDER~1\AppData\Local\Temp\ccLLkDzL.s:20845  .debug_str:00000000000097db .LASF4083
C:\Users\SOLDER~1\AppData\Local\Temp\ccLLkDzL.s:29217  .debug_str:000000000002bb31 .LASF4084
C:\Users\SOLDER~1\AppData\Local\Temp\ccLLkDzL.s:27117  .debug_str:000000000002311b .LASF4085
C:\Users\SOLDER~1\AppData\Local\Temp\ccLLkDzL.s:28383  .debug_str:00000000000284ba .LASF4086
C:\Users\SOLDER~1\AppData\Local\Temp\ccLLkDzL.s:25401  .debug_str:000000000001c11b .LASF4087
C:\Users\SOLDER~1\AppData\Local\Temp\ccLLkDzL.s:23535  .debug_str:00000000000148d0 .LASF4088
C:\Users\SOLDER~1\AppData\Local\Temp\ccLLkDzL.s:19495  .debug_str:0000000000004002 .LASF4089
C:\Users\SOLDER~1\AppData\Local\Temp\ccLLkDzL.s:25191  .debug_str:000000000001b386 .LASF4090
C:\Users\SOLDER~1\AppData\Local\Temp\ccLLkDzL.s:29123  .debug_str:000000000002b52a .LASF4091
C:\Users\SOLDER~1\AppData\Local\Temp\ccLLkDzL.s:29961  .debug_str:000000000002eb87 .LASF4092
C:\Users\SOLDER~1\AppData\Local\Temp\ccLLkDzL.s:20281  .debug_str:0000000000007318 .LASF4093
C:\Users\SOLDER~1\AppData\Local\Temp\ccLLkDzL.s:29429  .debug_str:000000000002c90d .LASF4094
C:\Users\SOLDER~1\AppData\Local\Temp\ccLLkDzL.s:21585  .debug_str:000000000000c8a7 .LASF4095
C:\Users\SOLDER~1\AppData\Local\Temp\ccLLkDzL.s:24393  .debug_str:0000000000018048 .LASF4096
C:\Users\SOLDER~1\AppData\Local\Temp\ccLLkDzL.s:18839  .debug_str:00000000000015d4 .LASF4097
C:\Users\SOLDER~1\AppData\Local\Temp\ccLLkDzL.s:19633  .debug_str:00000000000048dd .LASF4098
C:\Users\SOLDER~1\AppData\Local\Temp\ccLLkDzL.s:19463  .debug_str:0000000000003e1f .LASF4099
C:\Users\SOLDER~1\AppData\Local\Temp\ccLLkDzL.s:25195  .debug_str:000000000001b3c0 .LASF4100
C:\Users\SOLDER~1\AppData\Local\Temp\ccLLkDzL.s:28979  .debug_str:000000000002abb3 .LASF4101
C:\Users\SOLDER~1\AppData\Local\Temp\ccLLkDzL.s:23571  .debug_str:0000000000014b3f .LASF4102
C:\Users\SOLDER~1\AppData\Local\Temp\ccLLkDzL.s:19629  .debug_str:00000000000048aa .LASF4103
C:\Users\SOLDER~1\AppData\Local\Temp\ccLLkDzL.s:21831  .debug_str:000000000000d8ba .LASF4104
C:\Users\SOLDER~1\AppData\Local\Temp\ccLLkDzL.s:21039  .debug_str:000000000000a48d .LASF4105
C:\Users\SOLDER~1\AppData\Local\Temp\ccLLkDzL.s:20959  .debug_str:0000000000009f4d .LASF4106
C:\Users\SOLDER~1\AppData\Local\Temp\ccLLkDzL.s:29603  .debug_str:000000000002d45f .LASF4107
C:\Users\SOLDER~1\AppData\Local\Temp\ccLLkDzL.s:24533  .debug_str:000000000001893c .LASF4108
C:\Users\SOLDER~1\AppData\Local\Temp\ccLLkDzL.s:29851  .debug_str:000000000002e459 .LASF4109
C:\Users\SOLDER~1\AppData\Local\Temp\ccLLkDzL.s:19471  .debug_str:0000000000003e90 .LASF4110
C:\Users\SOLDER~1\AppData\Local\Temp\ccLLkDzL.s:26927  .debug_str:0000000000022494 .LASF4111
C:\Users\SOLDER~1\AppData\Local\Temp\ccLLkDzL.s:22513  .debug_str:0000000000010544 .LASF4112
C:\Users\SOLDER~1\AppData\Local\Temp\ccLLkDzL.s:24485  .debug_str:00000000000185fe .LASF4113
C:\Users\SOLDER~1\AppData\Local\Temp\ccLLkDzL.s:26671  .debug_str:000000000002146e .LASF4114
C:\Users\SOLDER~1\AppData\Local\Temp\ccLLkDzL.s:24723  .debug_str:00000000000195b4 .LASF4115
C:\Users\SOLDER~1\AppData\Local\Temp\ccLLkDzL.s:21989  .debug_str:000000000000e361 .LASF4116
C:\Users\SOLDER~1\AppData\Local\Temp\ccLLkDzL.s:29631  .debug_str:000000000002d64b .LASF4117
C:\Users\SOLDER~1\AppData\Local\Temp\ccLLkDzL.s:20899  .debug_str:0000000000009b4c .LASF4118
C:\Users\SOLDER~1\AppData\Local\Temp\ccLLkDzL.s:20205  .debug_str:0000000000006df0 .LASF4119
C:\Users\SOLDER~1\AppData\Local\Temp\ccLLkDzL.s:28135  .debug_str:00000000000274bc .LASF4120
GAS LISTING C:\Users\SOLDER~1\AppData\Local\Temp\ccLLkDzL.s 			page 86


C:\Users\SOLDER~1\AppData\Local\Temp\ccLLkDzL.s:22647  .debug_str:0000000000010dcb .LASF4121
C:\Users\SOLDER~1\AppData\Local\Temp\ccLLkDzL.s:19799  .debug_str:0000000000005305 .LASF4122
C:\Users\SOLDER~1\AppData\Local\Temp\ccLLkDzL.s:20137  .debug_str:000000000000698b .LASF4123
C:\Users\SOLDER~1\AppData\Local\Temp\ccLLkDzL.s:23813  .debug_str:0000000000015ac7 .LASF4124
C:\Users\SOLDER~1\AppData\Local\Temp\ccLLkDzL.s:21265  .debug_str:000000000000b342 .LASF4125
C:\Users\SOLDER~1\AppData\Local\Temp\ccLLkDzL.s:18947  .debug_str:0000000000001cd5 .LASF4126
C:\Users\SOLDER~1\AppData\Local\Temp\ccLLkDzL.s:23609  .debug_str:0000000000014da7 .LASF4127
C:\Users\SOLDER~1\AppData\Local\Temp\ccLLkDzL.s:21407  .debug_str:000000000000bc7f .LASF4128
C:\Users\SOLDER~1\AppData\Local\Temp\ccLLkDzL.s:28751  .debug_str:0000000000029cd9 .LASF4129
C:\Users\SOLDER~1\AppData\Local\Temp\ccLLkDzL.s:19113  .debug_str:000000000000278d .LASF4130
C:\Users\SOLDER~1\AppData\Local\Temp\ccLLkDzL.s:21071  .debug_str:000000000000a6e1 .LASF4131
C:\Users\SOLDER~1\AppData\Local\Temp\ccLLkDzL.s:25781  .debug_str:000000000001da0a .LASF4132
C:\Users\SOLDER~1\AppData\Local\Temp\ccLLkDzL.s:21685  .debug_str:000000000000cf48 .LASF4133
C:\Users\SOLDER~1\AppData\Local\Temp\ccLLkDzL.s:19839  .debug_str:0000000000005553 .LASF4134
C:\Users\SOLDER~1\AppData\Local\Temp\ccLLkDzL.s:22449  .debug_str:0000000000010133 .LASF4135
C:\Users\SOLDER~1\AppData\Local\Temp\ccLLkDzL.s:28109  .debug_str:0000000000027303 .LASF4136
C:\Users\SOLDER~1\AppData\Local\Temp\ccLLkDzL.s:27147  .debug_str:0000000000023354 .LASF4137
C:\Users\SOLDER~1\AppData\Local\Temp\ccLLkDzL.s:29903  .debug_str:000000000002e7e1 .LASF4138
C:\Users\SOLDER~1\AppData\Local\Temp\ccLLkDzL.s:23505  .debug_str:00000000000146a5 .LASF4139
C:\Users\SOLDER~1\AppData\Local\Temp\ccLLkDzL.s:20339  .debug_str:00000000000076b4 .LASF4140
C:\Users\SOLDER~1\AppData\Local\Temp\ccLLkDzL.s:27215  .debug_str:00000000000237a3 .LASF4141
C:\Users\SOLDER~1\AppData\Local\Temp\ccLLkDzL.s:20497  .debug_str:0000000000008125 .LASF4142
C:\Users\SOLDER~1\AppData\Local\Temp\ccLLkDzL.s:28787  .debug_str:0000000000029f28 .LASF4143
C:\Users\SOLDER~1\AppData\Local\Temp\ccLLkDzL.s:27363  .debug_str:000000000002413e .LASF4144
C:\Users\SOLDER~1\AppData\Local\Temp\ccLLkDzL.s:23645  .debug_str:0000000000014fe6 .LASF4145
C:\Users\SOLDER~1\AppData\Local\Temp\ccLLkDzL.s:21975  .debug_str:000000000000e277 .LASF4146
C:\Users\SOLDER~1\AppData\Local\Temp\ccLLkDzL.s:26957  .debug_str:0000000000022693 .LASF4147
C:\Users\SOLDER~1\AppData\Local\Temp\ccLLkDzL.s:27149  .debug_str:0000000000023367 .LASF4148
C:\Users\SOLDER~1\AppData\Local\Temp\ccLLkDzL.s:19213  .debug_str:0000000000002de9 .LASF4149
C:\Users\SOLDER~1\AppData\Local\Temp\ccLLkDzL.s:26415  .debug_str:000000000002039d .LASF4150
C:\Users\SOLDER~1\AppData\Local\Temp\ccLLkDzL.s:29209  .debug_str:000000000002ba9f .LASF4151
C:\Users\SOLDER~1\AppData\Local\Temp\ccLLkDzL.s:26303  .debug_str:000000000001fc50 .LASF4152
C:\Users\SOLDER~1\AppData\Local\Temp\ccLLkDzL.s:25339  .debug_str:000000000001bce4 .LASF4153
C:\Users\SOLDER~1\AppData\Local\Temp\ccLLkDzL.s:19647  .debug_str:00000000000049a4 .LASF4154
C:\Users\SOLDER~1\AppData\Local\Temp\ccLLkDzL.s:19073  .debug_str:0000000000002520 .LASF4155
C:\Users\SOLDER~1\AppData\Local\Temp\ccLLkDzL.s:21149  .debug_str:000000000000abcc .LASF4156
C:\Users\SOLDER~1\AppData\Local\Temp\ccLLkDzL.s:24469  .debug_str:0000000000018506 .LASF4157
C:\Users\SOLDER~1\AppData\Local\Temp\ccLLkDzL.s:28857  .debug_str:000000000002a3e1 .LASF4158
C:\Users\SOLDER~1\AppData\Local\Temp\ccLLkDzL.s:26873  .debug_str:00000000000220f6 .LASF4159
C:\Users\SOLDER~1\AppData\Local\Temp\ccLLkDzL.s:24751  .debug_str:0000000000019751 .LASF4160
C:\Users\SOLDER~1\AppData\Local\Temp\ccLLkDzL.s:19109  .debug_str:0000000000002749 .LASF4161
C:\Users\SOLDER~1\AppData\Local\Temp\ccLLkDzL.s:22961  .debug_str:00000000000121c5 .LASF4162
C:\Users\SOLDER~1\AppData\Local\Temp\ccLLkDzL.s:26397  .debug_str:000000000002025f .LASF4163
C:\Users\SOLDER~1\AppData\Local\Temp\ccLLkDzL.s:23969  .debug_str:00000000000164b9 .LASF4164
C:\Users\SOLDER~1\AppData\Local\Temp\ccLLkDzL.s:21099  .debug_str:000000000000a8b1 .LASF4165
C:\Users\SOLDER~1\AppData\Local\Temp\ccLLkDzL.s:27189  .debug_str:0000000000023607 .LASF4166
C:\Users\SOLDER~1\AppData\Local\Temp\ccLLkDzL.s:27709  .debug_str:0000000000025803 .LASF4167
C:\Users\SOLDER~1\AppData\Local\Temp\ccLLkDzL.s:28267  .debug_str:0000000000027d41 .LASF4168
C:\Users\SOLDER~1\AppData\Local\Temp\ccLLkDzL.s:26057  .debug_str:000000000001ec3e .LASF4169
C:\Users\SOLDER~1\AppData\Local\Temp\ccLLkDzL.s:29175  .debug_str:000000000002b888 .LASF4170
C:\Users\SOLDER~1\AppData\Local\Temp\ccLLkDzL.s:25289  .debug_str:000000000001b9a4 .LASF4171
C:\Users\SOLDER~1\AppData\Local\Temp\ccLLkDzL.s:28475  .debug_str:0000000000028ab8 .LASF4172
C:\Users\SOLDER~1\AppData\Local\Temp\ccLLkDzL.s:29561  .debug_str:000000000002d1dd .LASF4173
C:\Users\SOLDER~1\AppData\Local\Temp\ccLLkDzL.s:19721  .debug_str:0000000000004e44 .LASF4174
C:\Users\SOLDER~1\AppData\Local\Temp\ccLLkDzL.s:29801  .debug_str:000000000002e105 .LASF4175
C:\Users\SOLDER~1\AppData\Local\Temp\ccLLkDzL.s:26193  .debug_str:000000000001f576 .LASF4176
C:\Users\SOLDER~1\AppData\Local\Temp\ccLLkDzL.s:28147  .debug_str:000000000002758a .LASF4177
GAS LISTING C:\Users\SOLDER~1\AppData\Local\Temp\ccLLkDzL.s 			page 87


C:\Users\SOLDER~1\AppData\Local\Temp\ccLLkDzL.s:27659  .debug_str:000000000002549a .LASF4178
C:\Users\SOLDER~1\AppData\Local\Temp\ccLLkDzL.s:22231  .debug_str:000000000000f2aa .LASF4179
C:\Users\SOLDER~1\AppData\Local\Temp\ccLLkDzL.s:24819  .debug_str:0000000000019b9d .LASF4180
C:\Users\SOLDER~1\AppData\Local\Temp\ccLLkDzL.s:19961  .debug_str:0000000000005d9a .LASF4181
C:\Users\SOLDER~1\AppData\Local\Temp\ccLLkDzL.s:19571  .debug_str:00000000000044c4 .LASF4182
C:\Users\SOLDER~1\AppData\Local\Temp\ccLLkDzL.s:20237  .debug_str:0000000000007041 .LASF4183
C:\Users\SOLDER~1\AppData\Local\Temp\ccLLkDzL.s:27549  .debug_str:0000000000024d88 .LASF4184
C:\Users\SOLDER~1\AppData\Local\Temp\ccLLkDzL.s:23393  .debug_str:0000000000013f0b .LASF4185
C:\Users\SOLDER~1\AppData\Local\Temp\ccLLkDzL.s:29697  .debug_str:000000000002da73 .LASF4186
C:\Users\SOLDER~1\AppData\Local\Temp\ccLLkDzL.s:26761  .debug_str:0000000000021a30 .LASF4187
C:\Users\SOLDER~1\AppData\Local\Temp\ccLLkDzL.s:20447  .debug_str:0000000000007d9f .LASF4188
C:\Users\SOLDER~1\AppData\Local\Temp\ccLLkDzL.s:25981  .debug_str:000000000001e744 .LASF4189
C:\Users\SOLDER~1\AppData\Local\Temp\ccLLkDzL.s:20345  .debug_str:0000000000007706 .LASF4190
C:\Users\SOLDER~1\AppData\Local\Temp\ccLLkDzL.s:20133  .debug_str:000000000000695c .LASF4191
C:\Users\SOLDER~1\AppData\Local\Temp\ccLLkDzL.s:28523  .debug_str:0000000000028dbc .LASF4192
C:\Users\SOLDER~1\AppData\Local\Temp\ccLLkDzL.s:18997  .debug_str:0000000000001ff7 .LASF4193
C:\Users\SOLDER~1\AppData\Local\Temp\ccLLkDzL.s:27621  .debug_str:000000000002522f .LASF4194
C:\Users\SOLDER~1\AppData\Local\Temp\ccLLkDzL.s:21581  .debug_str:000000000000c862 .LASF4195
C:\Users\SOLDER~1\AppData\Local\Temp\ccLLkDzL.s:25261  .debug_str:000000000001b798 .LASF4196
C:\Users\SOLDER~1\AppData\Local\Temp\ccLLkDzL.s:18641  .debug_str:0000000000000902 .LASF4197
C:\Users\SOLDER~1\AppData\Local\Temp\ccLLkDzL.s:23377  .debug_str:0000000000013e0c .LASF4198
C:\Users\SOLDER~1\AppData\Local\Temp\ccLLkDzL.s:23359  .debug_str:0000000000013cd2 .LASF4199
C:\Users\SOLDER~1\AppData\Local\Temp\ccLLkDzL.s:21113  .debug_str:000000000000a9b5 .LASF4200
C:\Users\SOLDER~1\AppData\Local\Temp\ccLLkDzL.s:20921  .debug_str:0000000000009cc5 .LASF4201
C:\Users\SOLDER~1\AppData\Local\Temp\ccLLkDzL.s:21207  .debug_str:000000000000afa3 .LASF4202
C:\Users\SOLDER~1\AppData\Local\Temp\ccLLkDzL.s:22545  .debug_str:0000000000010753 .LASF4203
C:\Users\SOLDER~1\AppData\Local\Temp\ccLLkDzL.s:21117  .debug_str:000000000000a9f7 .LASF4204
C:\Users\SOLDER~1\AppData\Local\Temp\ccLLkDzL.s:23337  .debug_str:0000000000013b44 .LASF4205
C:\Users\SOLDER~1\AppData\Local\Temp\ccLLkDzL.s:24629  .debug_str:0000000000018f8c .LASF4206
C:\Users\SOLDER~1\AppData\Local\Temp\ccLLkDzL.s:20027  .debug_str:0000000000006221 .LASF4207
C:\Users\SOLDER~1\AppData\Local\Temp\ccLLkDzL.s:23217  .debug_str:00000000000132a8 .LASF4208
C:\Users\SOLDER~1\AppData\Local\Temp\ccLLkDzL.s:20579  .debug_str:0000000000008638 .LASF4209
C:\Users\SOLDER~1\AppData\Local\Temp\ccLLkDzL.s:28633  .debug_str:000000000002952a .LASF4210
C:\Users\SOLDER~1\AppData\Local\Temp\ccLLkDzL.s:28631  .debug_str:000000000002950c .LASF4211
C:\Users\SOLDER~1\AppData\Local\Temp\ccLLkDzL.s:18899  .debug_str:000000000000197e .LASF4212
C:\Users\SOLDER~1\AppData\Local\Temp\ccLLkDzL.s:26597  .debug_str:0000000000020fa1 .LASF4213
C:\Users\SOLDER~1\AppData\Local\Temp\ccLLkDzL.s:28185  .debug_str:00000000000277d8 .LASF4214
C:\Users\SOLDER~1\AppData\Local\Temp\ccLLkDzL.s:20545  .debug_str:0000000000008419 .LASF4215
C:\Users\SOLDER~1\AppData\Local\Temp\ccLLkDzL.s:23749  .debug_str:00000000000156d8 .LASF4216
C:\Users\SOLDER~1\AppData\Local\Temp\ccLLkDzL.s:24177  .debug_str:00000000000171e4 .LASF4217
C:\Users\SOLDER~1\AppData\Local\Temp\ccLLkDzL.s:18563  .debug_str:0000000000000317 .LASF4218
C:\Users\SOLDER~1\AppData\Local\Temp\ccLLkDzL.s:23495  .debug_str:0000000000014616 .LASF4219
C:\Users\SOLDER~1\AppData\Local\Temp\ccLLkDzL.s:28401  .debug_str:0000000000028615 .LASF4220
C:\Users\SOLDER~1\AppData\Local\Temp\ccLLkDzL.s:29475  .debug_str:000000000002cbf6 .LASF4221
C:\Users\SOLDER~1\AppData\Local\Temp\ccLLkDzL.s:28731  .debug_str:0000000000029b61 .LASF4222
C:\Users\SOLDER~1\AppData\Local\Temp\ccLLkDzL.s:26219  .debug_str:000000000001f73b .LASF4223
C:\Users\SOLDER~1\AppData\Local\Temp\ccLLkDzL.s:28653  .debug_str:000000000002965b .LASF4224
C:\Users\SOLDER~1\AppData\Local\Temp\ccLLkDzL.s:24495  .debug_str:00000000000186ad .LASF4225
C:\Users\SOLDER~1\AppData\Local\Temp\ccLLkDzL.s:22537  .debug_str:00000000000106bc .LASF4226
C:\Users\SOLDER~1\AppData\Local\Temp\ccLLkDzL.s:21223  .debug_str:000000000000b076 .LASF4227
C:\Users\SOLDER~1\AppData\Local\Temp\ccLLkDzL.s:21295  .debug_str:000000000000b545 .LASF4228
C:\Users\SOLDER~1\AppData\Local\Temp\ccLLkDzL.s:23619  .debug_str:0000000000014e30 .LASF4229
C:\Users\SOLDER~1\AppData\Local\Temp\ccLLkDzL.s:21171  .debug_str:000000000000ad65 .LASF4230
C:\Users\SOLDER~1\AppData\Local\Temp\ccLLkDzL.s:20511  .debug_str:00000000000081ef .LASF4231
C:\Users\SOLDER~1\AppData\Local\Temp\ccLLkDzL.s:24979  .debug_str:000000000001a5d0 .LASF4232
C:\Users\SOLDER~1\AppData\Local\Temp\ccLLkDzL.s:22581  .debug_str:00000000000109ab .LASF4233
C:\Users\SOLDER~1\AppData\Local\Temp\ccLLkDzL.s:29039  .debug_str:000000000002afc2 .LASF4234
GAS LISTING C:\Users\SOLDER~1\AppData\Local\Temp\ccLLkDzL.s 			page 88


C:\Users\SOLDER~1\AppData\Local\Temp\ccLLkDzL.s:20523  .debug_str:00000000000082bd .LASF4235
C:\Users\SOLDER~1\AppData\Local\Temp\ccLLkDzL.s:23135  .debug_str:0000000000012d45 .LASF4236
C:\Users\SOLDER~1\AppData\Local\Temp\ccLLkDzL.s:20097  .debug_str:00000000000066d6 .LASF4237
C:\Users\SOLDER~1\AppData\Local\Temp\ccLLkDzL.s:18609  .debug_str:0000000000000622 .LASF4238
C:\Users\SOLDER~1\AppData\Local\Temp\ccLLkDzL.s:19269  .debug_str:00000000000031a4 .LASF4239
C:\Users\SOLDER~1\AppData\Local\Temp\ccLLkDzL.s:27355  .debug_str:00000000000240bc .LASF4240
C:\Users\SOLDER~1\AppData\Local\Temp\ccLLkDzL.s:19239  .debug_str:0000000000002fb3 .LASF4241
C:\Users\SOLDER~1\AppData\Local\Temp\ccLLkDzL.s:26285  .debug_str:000000000001fb45 .LASF4242
C:\Users\SOLDER~1\AppData\Local\Temp\ccLLkDzL.s:22131  .debug_str:000000000000ec58 .LASF4243
C:\Users\SOLDER~1\AppData\Local\Temp\ccLLkDzL.s:20295  .debug_str:00000000000073f7 .LASF4244
C:\Users\SOLDER~1\AppData\Local\Temp\ccLLkDzL.s:26547  .debug_str:0000000000020c3a .LASF4245
C:\Users\SOLDER~1\AppData\Local\Temp\ccLLkDzL.s:19177  .debug_str:0000000000002b81 .LASF4246
C:\Users\SOLDER~1\AppData\Local\Temp\ccLLkDzL.s:26125  .debug_str:000000000001f0c7 .LASF4247
C:\Users\SOLDER~1\AppData\Local\Temp\ccLLkDzL.s:22597  .debug_str:0000000000010aa1 .LASF4248
C:\Users\SOLDER~1\AppData\Local\Temp\ccLLkDzL.s:19035  .debug_str:0000000000002281 .LASF4249
C:\Users\SOLDER~1\AppData\Local\Temp\ccLLkDzL.s:23719  .debug_str:00000000000154de .LASF4250
C:\Users\SOLDER~1\AppData\Local\Temp\ccLLkDzL.s:26481  .debug_str:00000000000207df .LASF4251
C:\Users\SOLDER~1\AppData\Local\Temp\ccLLkDzL.s:28957  .debug_str:000000000002aa42 .LASF4252
C:\Users\SOLDER~1\AppData\Local\Temp\ccLLkDzL.s:24271  .debug_str:0000000000017817 .LASF4253
C:\Users\SOLDER~1\AppData\Local\Temp\ccLLkDzL.s:23801  .debug_str:0000000000015a12 .LASF4254
C:\Users\SOLDER~1\AppData\Local\Temp\ccLLkDzL.s:22077  .debug_str:000000000000e91c .LASF4255
C:\Users\SOLDER~1\AppData\Local\Temp\ccLLkDzL.s:28657  .debug_str:0000000000029697 .LASF4256
C:\Users\SOLDER~1\AppData\Local\Temp\ccLLkDzL.s:19489  .debug_str:0000000000003fa9 .LASF4257
C:\Users\SOLDER~1\AppData\Local\Temp\ccLLkDzL.s:26541  .debug_str:0000000000020bba .LASF4258
C:\Users\SOLDER~1\AppData\Local\Temp\ccLLkDzL.s:19993  .debug_str:0000000000005fbd .LASF4259
C:\Users\SOLDER~1\AppData\Local\Temp\ccLLkDzL.s:22815  .debug_str:00000000000118a3 .LASF4260
C:\Users\SOLDER~1\AppData\Local\Temp\ccLLkDzL.s:24627  .debug_str:0000000000018f6e .LASF4261
C:\Users\SOLDER~1\AppData\Local\Temp\ccLLkDzL.s:27439  .debug_str:0000000000024654 .LASF4262
C:\Users\SOLDER~1\AppData\Local\Temp\ccLLkDzL.s:26707  .debug_str:00000000000216a5 .LASF4263
C:\Users\SOLDER~1\AppData\Local\Temp\ccLLkDzL.s:27887  .debug_str:0000000000026437 .LASF4264
C:\Users\SOLDER~1\AppData\Local\Temp\ccLLkDzL.s:28183  .debug_str:00000000000277bd .LASF4265
C:\Users\SOLDER~1\AppData\Local\Temp\ccLLkDzL.s:28995  .debug_str:000000000002acaf .LASF4266
C:\Users\SOLDER~1\AppData\Local\Temp\ccLLkDzL.s:28469  .debug_str:0000000000028a67 .LASF4267
C:\Users\SOLDER~1\AppData\Local\Temp\ccLLkDzL.s:25703  .debug_str:000000000001d54d .LASF4268
C:\Users\SOLDER~1\AppData\Local\Temp\ccLLkDzL.s:18749  .debug_str:0000000000001004 .LASF4269
C:\Users\SOLDER~1\AppData\Local\Temp\ccLLkDzL.s:26619  .debug_str:0000000000021116 .LASF4270
C:\Users\SOLDER~1\AppData\Local\Temp\ccLLkDzL.s:20499  .debug_str:0000000000008139 .LASF4271
C:\Users\SOLDER~1\AppData\Local\Temp\ccLLkDzL.s:19743  .debug_str:0000000000004f8f .LASF4272
C:\Users\SOLDER~1\AppData\Local\Temp\ccLLkDzL.s:25379  .debug_str:000000000001bf84 .LASF4273
C:\Users\SOLDER~1\AppData\Local\Temp\ccLLkDzL.s:18617  .debug_str:0000000000000730 .LASF4274
C:\Users\SOLDER~1\AppData\Local\Temp\ccLLkDzL.s:27667  .debug_str:0000000000025500 .LASF4275
C:\Users\SOLDER~1\AppData\Local\Temp\ccLLkDzL.s:19537  .debug_str:00000000000042b2 .LASF4276
C:\Users\SOLDER~1\AppData\Local\Temp\ccLLkDzL.s:21799  .debug_str:000000000000d6bd .LASF4277
C:\Users\SOLDER~1\AppData\Local\Temp\ccLLkDzL.s:20541  .debug_str:00000000000083d8 .LASF4278
C:\Users\SOLDER~1\AppData\Local\Temp\ccLLkDzL.s:29247  .debug_str:000000000002bd26 .LASF4279
C:\Users\SOLDER~1\AppData\Local\Temp\ccLLkDzL.s:22639  .debug_str:0000000000010d47 .LASF4280
C:\Users\SOLDER~1\AppData\Local\Temp\ccLLkDzL.s:18573  .debug_str:00000000000003c9 .LASF4281
C:\Users\SOLDER~1\AppData\Local\Temp\ccLLkDzL.s:20821  .debug_str:0000000000009650 .LASF4282
C:\Users\SOLDER~1\AppData\Local\Temp\ccLLkDzL.s:23497  .debug_str:0000000000014629 .LASF4283
C:\Users\SOLDER~1\AppData\Local\Temp\ccLLkDzL.s:20291  .debug_str:00000000000073c7 .LASF4284
C:\Users\SOLDER~1\AppData\Local\Temp\ccLLkDzL.s:21511  .debug_str:000000000000c387 .LASF4285
C:\Users\SOLDER~1\AppData\Local\Temp\ccLLkDzL.s:24459  .debug_str:0000000000018473 .LASF4286
C:\Users\SOLDER~1\AppData\Local\Temp\ccLLkDzL.s:23407  .debug_str:0000000000013ff8 .LASF4287
C:\Users\SOLDER~1\AppData\Local\Temp\ccLLkDzL.s:26807  .debug_str:0000000000021d17 .LASF4288
C:\Users\SOLDER~1\AppData\Local\Temp\ccLLkDzL.s:25897  .debug_str:000000000001e1a2 .LASF4289
C:\Users\SOLDER~1\AppData\Local\Temp\ccLLkDzL.s:22643  .debug_str:0000000000010d8e .LASF4290
C:\Users\SOLDER~1\AppData\Local\Temp\ccLLkDzL.s:23683  .debug_str:0000000000015276 .LASF4291
GAS LISTING C:\Users\SOLDER~1\AppData\Local\Temp\ccLLkDzL.s 			page 89


C:\Users\SOLDER~1\AppData\Local\Temp\ccLLkDzL.s:18803  .debug_str:000000000000137d .LASF4292
C:\Users\SOLDER~1\AppData\Local\Temp\ccLLkDzL.s:24759  .debug_str:00000000000197c2 .LASF4293
C:\Users\SOLDER~1\AppData\Local\Temp\ccLLkDzL.s:25351  .debug_str:000000000001bd9c .LASF4294
C:\Users\SOLDER~1\AppData\Local\Temp\ccLLkDzL.s:26531  .debug_str:0000000000020afe .LASF4295
C:\Users\SOLDER~1\AppData\Local\Temp\ccLLkDzL.s:28049  .debug_str:0000000000026f0c .LASF4296
C:\Users\SOLDER~1\AppData\Local\Temp\ccLLkDzL.s:22099  .debug_str:000000000000ea39 .LASF4297
C:\Users\SOLDER~1\AppData\Local\Temp\ccLLkDzL.s:23233  .debug_str:00000000000133c0 .LASF4298
C:\Users\SOLDER~1\AppData\Local\Temp\ccLLkDzL.s:19807  .debug_str:000000000000537f .LASF4299
C:\Users\SOLDER~1\AppData\Local\Temp\ccLLkDzL.s:21871  .debug_str:000000000000db45 .LASF4300
C:\Users\SOLDER~1\AppData\Local\Temp\ccLLkDzL.s:20627  .debug_str:000000000000895d .LASF4301
C:\Users\SOLDER~1\AppData\Local\Temp\ccLLkDzL.s:24377  .debug_str:0000000000017f3b .LASF4302
C:\Users\SOLDER~1\AppData\Local\Temp\ccLLkDzL.s:29703  .debug_str:000000000002dac8 .LASF4303
C:\Users\SOLDER~1\AppData\Local\Temp\ccLLkDzL.s:19015  .debug_str:0000000000002129 .LASF4304
C:\Users\SOLDER~1\AppData\Local\Temp\ccLLkDzL.s:23797  .debug_str:00000000000159c0 .LASF4305
C:\Users\SOLDER~1\AppData\Local\Temp\ccLLkDzL.s:27853  .debug_str:0000000000026226 .LASF4306
C:\Users\SOLDER~1\AppData\Local\Temp\ccLLkDzL.s:27557  .debug_str:0000000000024e00 .LASF4307
C:\Users\SOLDER~1\AppData\Local\Temp\ccLLkDzL.s:26065  .debug_str:000000000001ecb6 .LASF4308
C:\Users\SOLDER~1\AppData\Local\Temp\ccLLkDzL.s:29819  .debug_str:000000000002e228 .LASF4309
C:\Users\SOLDER~1\AppData\Local\Temp\ccLLkDzL.s:21403  .debug_str:000000000000bc4b .LASF4310
C:\Users\SOLDER~1\AppData\Local\Temp\ccLLkDzL.s:22405  .debug_str:000000000000fe85 .LASF4311
C:\Users\SOLDER~1\AppData\Local\Temp\ccLLkDzL.s:25149  .debug_str:000000000001b0c4 .LASF4312
C:\Users\SOLDER~1\AppData\Local\Temp\ccLLkDzL.s:25245  .debug_str:000000000001b6b1 .LASF4313
C:\Users\SOLDER~1\AppData\Local\Temp\ccLLkDzL.s:18873  .debug_str:0000000000001804 .LASF4314
C:\Users\SOLDER~1\AppData\Local\Temp\ccLLkDzL.s:23963  .debug_str:0000000000016466 .LASF4315
C:\Users\SOLDER~1\AppData\Local\Temp\ccLLkDzL.s:23587  .debug_str:0000000000014c40 .LASF4316
C:\Users\SOLDER~1\AppData\Local\Temp\ccLLkDzL.s:20407  .debug_str:0000000000007aee .LASF4317
C:\Users\SOLDER~1\AppData\Local\Temp\ccLLkDzL.s:23851  .debug_str:0000000000015d38 .LASF4318
C:\Users\SOLDER~1\AppData\Local\Temp\ccLLkDzL.s:19983  .debug_str:0000000000005ef9 .LASF4319
C:\Users\SOLDER~1\AppData\Local\Temp\ccLLkDzL.s:29195  .debug_str:000000000002b9b6 .LASF4320
C:\Users\SOLDER~1\AppData\Local\Temp\ccLLkDzL.s:28263  .debug_str:0000000000027cff .LASF4321
C:\Users\SOLDER~1\AppData\Local\Temp\ccLLkDzL.s:26765  .debug_str:0000000000021a5e .LASF4322
C:\Users\SOLDER~1\AppData\Local\Temp\ccLLkDzL.s:29407  .debug_str:000000000002c799 .LASF4323
C:\Users\SOLDER~1\AppData\Local\Temp\ccLLkDzL.s:18963  .debug_str:0000000000001dd4 .LASF4324
C:\Users\SOLDER~1\AppData\Local\Temp\ccLLkDzL.s:29783  .debug_str:000000000002dffc .LASF4325
C:\Users\SOLDER~1\AppData\Local\Temp\ccLLkDzL.s:22735  .debug_str:0000000000011383 .LASF4326
C:\Users\SOLDER~1\AppData\Local\Temp\ccLLkDzL.s:20453  .debug_str:0000000000007e0d .LASF4327
C:\Users\SOLDER~1\AppData\Local\Temp\ccLLkDzL.s:29683  .debug_str:000000000002d98a .LASF4328
C:\Users\SOLDER~1\AppData\Local\Temp\ccLLkDzL.s:26969  .debug_str:0000000000022758 .LASF4329
C:\Users\SOLDER~1\AppData\Local\Temp\ccLLkDzL.s:26191  .debug_str:000000000001f55b .LASF4330
C:\Users\SOLDER~1\AppData\Local\Temp\ccLLkDzL.s:19155  .debug_str:0000000000002a62 .LASF4331
C:\Users\SOLDER~1\AppData\Local\Temp\ccLLkDzL.s:23181  .debug_str:000000000001301f .LASF4332
C:\Users\SOLDER~1\AppData\Local\Temp\ccLLkDzL.s:26201  .debug_str:000000000001f5f4 .LASF4333
C:\Users\SOLDER~1\AppData\Local\Temp\ccLLkDzL.s:22981  .debug_str:00000000000122fa .LASF4334
C:\Users\SOLDER~1\AppData\Local\Temp\ccLLkDzL.s:25523  .debug_str:000000000001c95e .LASF4335
C:\Users\SOLDER~1\AppData\Local\Temp\ccLLkDzL.s:25079  .debug_str:000000000001ac90 .LASF4336
C:\Users\SOLDER~1\AppData\Local\Temp\ccLLkDzL.s:20057  .debug_str:000000000000641f .LASF4337
C:\Users\SOLDER~1\AppData\Local\Temp\ccLLkDzL.s:25893  .debug_str:000000000001e165 .LASF4338
C:\Users\SOLDER~1\AppData\Local\Temp\ccLLkDzL.s:24769  .debug_str:000000000001986f .LASF4339
C:\Users\SOLDER~1\AppData\Local\Temp\ccLLkDzL.s:25459  .debug_str:000000000001c510 .LASF4340
C:\Users\SOLDER~1\AppData\Local\Temp\ccLLkDzL.s:24261  .debug_str:000000000001776a .LASF4341
C:\Users\SOLDER~1\AppData\Local\Temp\ccLLkDzL.s:25699  .debug_str:000000000001d50d .LASF4342
C:\Users\SOLDER~1\AppData\Local\Temp\ccLLkDzL.s:24077  .debug_str:0000000000016b44 .LASF4343
C:\Users\SOLDER~1\AppData\Local\Temp\ccLLkDzL.s:24169  .debug_str:0000000000017172 .LASF4344
C:\Users\SOLDER~1\AppData\Local\Temp\ccLLkDzL.s:27453  .debug_str:000000000002473f .LASF4345
C:\Users\SOLDER~1\AppData\Local\Temp\ccLLkDzL.s:23011  .debug_str:0000000000012525 .LASF4346
C:\Users\SOLDER~1\AppData\Local\Temp\ccLLkDzL.s:19261  .debug_str:0000000000003113 .LASF4347
C:\Users\SOLDER~1\AppData\Local\Temp\ccLLkDzL.s:27359  .debug_str:00000000000240fd .LASF4348
GAS LISTING C:\Users\SOLDER~1\AppData\Local\Temp\ccLLkDzL.s 			page 90


C:\Users\SOLDER~1\AppData\Local\Temp\ccLLkDzL.s:29147  .debug_str:000000000002b6bc .LASF4349
C:\Users\SOLDER~1\AppData\Local\Temp\ccLLkDzL.s:27007  .debug_str:0000000000022a01 .LASF4350
C:\Users\SOLDER~1\AppData\Local\Temp\ccLLkDzL.s:22149  .debug_str:000000000000ed86 .LASF4351
C:\Users\SOLDER~1\AppData\Local\Temp\ccLLkDzL.s:23917  .debug_str:0000000000016192 .LASF4352
C:\Users\SOLDER~1\AppData\Local\Temp\ccLLkDzL.s:19205  .debug_str:0000000000002d59 .LASF4353
C:\Users\SOLDER~1\AppData\Local\Temp\ccLLkDzL.s:24787  .debug_str:00000000000199a8 .LASF4354
C:\Users\SOLDER~1\AppData\Local\Temp\ccLLkDzL.s:23179  .debug_str:0000000000012ff9 .LASF4355
C:\Users\SOLDER~1\AppData\Local\Temp\ccLLkDzL.s:25159  .debug_str:000000000001b16b .LASF4356
C:\Users\SOLDER~1\AppData\Local\Temp\ccLLkDzL.s:27115  .debug_str:00000000000230f6 .LASF4357
C:\Users\SOLDER~1\AppData\Local\Temp\ccLLkDzL.s:21879  .debug_str:000000000000dbba .LASF4358
C:\Users\SOLDER~1\AppData\Local\Temp\ccLLkDzL.s:22257  .debug_str:000000000000f46f .LASF4359
C:\Users\SOLDER~1\AppData\Local\Temp\ccLLkDzL.s:29111  .debug_str:000000000002b457 .LASF4360
C:\Users\SOLDER~1\AppData\Local\Temp\ccLLkDzL.s:19287  .debug_str:00000000000032b4 .LASF4361
C:\Users\SOLDER~1\AppData\Local\Temp\ccLLkDzL.s:20811  .debug_str:00000000000095c4 .LASF4362
C:\Users\SOLDER~1\AppData\Local\Temp\ccLLkDzL.s:19561  .debug_str:0000000000004428 .LASF4363
C:\Users\SOLDER~1\AppData\Local\Temp\ccLLkDzL.s:21405  .debug_str:000000000000bc64 .LASF4364
C:\Users\SOLDER~1\AppData\Local\Temp\ccLLkDzL.s:29063  .debug_str:000000000002b167 .LASF4365
C:\Users\SOLDER~1\AppData\Local\Temp\ccLLkDzL.s:24203  .debug_str:00000000000173b3 .LASF4366
C:\Users\SOLDER~1\AppData\Local\Temp\ccLLkDzL.s:29839  .debug_str:000000000002e386 .LASF4367
C:\Users\SOLDER~1\AppData\Local\Temp\ccLLkDzL.s:21505  .debug_str:000000000000c31e .LASF4368
C:\Users\SOLDER~1\AppData\Local\Temp\ccLLkDzL.s:26801  .debug_str:0000000000021cad .LASF4369
C:\Users\SOLDER~1\AppData\Local\Temp\ccLLkDzL.s:28041  .debug_str:0000000000026e95 .LASF4370
C:\Users\SOLDER~1\AppData\Local\Temp\ccLLkDzL.s:20547  .debug_str:000000000000842b .LASF4371
C:\Users\SOLDER~1\AppData\Local\Temp\ccLLkDzL.s:29577  .debug_str:000000000002d2ec .LASF4372
C:\Users\SOLDER~1\AppData\Local\Temp\ccLLkDzL.s:23547  .debug_str:0000000000014989 .LASF4373
C:\Users\SOLDER~1\AppData\Local\Temp\ccLLkDzL.s:21849  .debug_str:000000000000d9b9 .LASF4374
C:\Users\SOLDER~1\AppData\Local\Temp\ccLLkDzL.s:24637  .debug_str:0000000000019009 .LASF4375
C:\Users\SOLDER~1\AppData\Local\Temp\ccLLkDzL.s:23527  .debug_str:0000000000014845 .LASF4376
C:\Users\SOLDER~1\AppData\Local\Temp\ccLLkDzL.s:24913  .debug_str:000000000001a167 .LASF4377
C:\Users\SOLDER~1\AppData\Local\Temp\ccLLkDzL.s:21733  .debug_str:000000000000d257 .LASF4378
C:\Users\SOLDER~1\AppData\Local\Temp\ccLLkDzL.s:25677  .debug_str:000000000001d3c4 .LASF4379
C:\Users\SOLDER~1\AppData\Local\Temp\ccLLkDzL.s:27479  .debug_str:00000000000248d9 .LASF4380
C:\Users\SOLDER~1\AppData\Local\Temp\ccLLkDzL.s:20697  .debug_str:0000000000008e0e .LASF4381
C:\Users\SOLDER~1\AppData\Local\Temp\ccLLkDzL.s:21077  .debug_str:000000000000a744 .LASF4382
C:\Users\SOLDER~1\AppData\Local\Temp\ccLLkDzL.s:21625  .debug_str:000000000000cb4f .LASF4383
C:\Users\SOLDER~1\AppData\Local\Temp\ccLLkDzL.s:28613  .debug_str:00000000000293cf .LASF4384
C:\Users\SOLDER~1\AppData\Local\Temp\ccLLkDzL.s:25173  .debug_str:000000000001b24f .LASF4385
C:\Users\SOLDER~1\AppData\Local\Temp\ccLLkDzL.s:21801  .debug_str:000000000000d6da .LASF4386
C:\Users\SOLDER~1\AppData\Local\Temp\ccLLkDzL.s:18671  .debug_str:0000000000000aee .LASF4387
C:\Users\SOLDER~1\AppData\Local\Temp\ccLLkDzL.s:20665  .debug_str:0000000000008bb8 .LASF4388
C:\Users\SOLDER~1\AppData\Local\Temp\ccLLkDzL.s:23429  .debug_str:00000000000141a6 .LASF4389
C:\Users\SOLDER~1\AppData\Local\Temp\ccLLkDzL.s:19581  .debug_str:000000000000456b .LASF4390
C:\Users\SOLDER~1\AppData\Local\Temp\ccLLkDzL.s:19637  .debug_str:0000000000004913 .LASF4391
C:\Users\SOLDER~1\AppData\Local\Temp\ccLLkDzL.s:29601  .debug_str:000000000002d449 .LASF4392
C:\Users\SOLDER~1\AppData\Local\Temp\ccLLkDzL.s:24507  .debug_str:0000000000018767 .LASF4393
C:\Users\SOLDER~1\AppData\Local\Temp\ccLLkDzL.s:29723  .debug_str:000000000002dc32 .LASF4394
C:\Users\SOLDER~1\AppData\Local\Temp\ccLLkDzL.s:23955  .debug_str:00000000000163e2 .LASF4395
C:\Users\SOLDER~1\AppData\Local\Temp\ccLLkDzL.s:21715  .debug_str:000000000000d125 .LASF4396
C:\Users\SOLDER~1\AppData\Local\Temp\ccLLkDzL.s:21301  .debug_str:000000000000b595 .LASF4397
C:\Users\SOLDER~1\AppData\Local\Temp\ccLLkDzL.s:28363  .debug_str:0000000000028380 .LASF4398
C:\Users\SOLDER~1\AppData\Local\Temp\ccLLkDzL.s:19759  .debug_str:0000000000005078 .LASF4399
C:\Users\SOLDER~1\AppData\Local\Temp\ccLLkDzL.s:23341  .debug_str:0000000000013b86 .LASF4400
C:\Users\SOLDER~1\AppData\Local\Temp\ccLLkDzL.s:24805  .debug_str:0000000000019ac4 .LASF4401
C:\Users\SOLDER~1\AppData\Local\Temp\ccLLkDzL.s:24727  .debug_str:00000000000195f2 .LASF4402
C:\Users\SOLDER~1\AppData\Local\Temp\ccLLkDzL.s:25587  .debug_str:000000000001cdb2 .LASF4403
C:\Users\SOLDER~1\AppData\Local\Temp\ccLLkDzL.s:23397  .debug_str:0000000000013f49 .LASF4404
C:\Users\SOLDER~1\AppData\Local\Temp\ccLLkDzL.s:26839  .debug_str:0000000000021f0b .LASF4405
GAS LISTING C:\Users\SOLDER~1\AppData\Local\Temp\ccLLkDzL.s 			page 91


C:\Users\SOLDER~1\AppData\Local\Temp\ccLLkDzL.s:27673  .debug_str:0000000000025562 .LASF4406
C:\Users\SOLDER~1\AppData\Local\Temp\ccLLkDzL.s:22521  .debug_str:00000000000105a9 .LASF4407
C:\Users\SOLDER~1\AppData\Local\Temp\ccLLkDzL.s:23989  .debug_str:00000000000165cf .LASF4408
C:\Users\SOLDER~1\AppData\Local\Temp\ccLLkDzL.s:26699  .debug_str:0000000000021614 .LASF4409
C:\Users\SOLDER~1\AppData\Local\Temp\ccLLkDzL.s:21165  .debug_str:000000000000ace6 .LASF4410
C:\Users\SOLDER~1\AppData\Local\Temp\ccLLkDzL.s:27423  .debug_str:000000000002454b .LASF4411
C:\Users\SOLDER~1\AppData\Local\Temp\ccLLkDzL.s:27259  .debug_str:0000000000023a4d .LASF4412
C:\Users\SOLDER~1\AppData\Local\Temp\ccLLkDzL.s:27791  .debug_str:0000000000025db8 .LASF4413
C:\Users\SOLDER~1\AppData\Local\Temp\ccLLkDzL.s:22515  .debug_str:0000000000010554 .LASF4414
C:\Users\SOLDER~1\AppData\Local\Temp\ccLLkDzL.s:22563  .debug_str:0000000000010899 .LASF4415
C:\Users\SOLDER~1\AppData\Local\Temp\ccLLkDzL.s:19093  .debug_str:0000000000002648 .LASF4416
C:\Users\SOLDER~1\AppData\Local\Temp\ccLLkDzL.s:24111  .debug_str:0000000000016d77 .LASF4417
C:\Users\SOLDER~1\AppData\Local\Temp\ccLLkDzL.s:19459  .debug_str:0000000000003dd0 .LASF4418
C:\Users\SOLDER~1\AppData\Local\Temp\ccLLkDzL.s:19097  .debug_str:000000000000268f .LASF4419
C:\Users\SOLDER~1\AppData\Local\Temp\ccLLkDzL.s:21013  .debug_str:000000000000a2e6 .LASF4420
C:\Users\SOLDER~1\AppData\Local\Temp\ccLLkDzL.s:25607  .debug_str:000000000001cedb .LASF4421
C:\Users\SOLDER~1\AppData\Local\Temp\ccLLkDzL.s:24747  .debug_str:0000000000019704 .LASF4422
C:\Users\SOLDER~1\AppData\Local\Temp\ccLLkDzL.s:22887  .debug_str:0000000000011d18 .LASF4423
C:\Users\SOLDER~1\AppData\Local\Temp\ccLLkDzL.s:25761  .debug_str:000000000001d8b7 .LASF4424
C:\Users\SOLDER~1\AppData\Local\Temp\ccLLkDzL.s:19973  .debug_str:0000000000005e56 .LASF4425
C:\Users\SOLDER~1\AppData\Local\Temp\ccLLkDzL.s:23515  .debug_str:000000000001474d .LASF4426
C:\Users\SOLDER~1\AppData\Local\Temp\ccLLkDzL.s:26471  .debug_str:0000000000020739 .LASF4427
C:\Users\SOLDER~1\AppData\Local\Temp\ccLLkDzL.s:29917  .debug_str:000000000002e8cb .LASF4428
C:\Users\SOLDER~1\AppData\Local\Temp\ccLLkDzL.s:25001  .debug_str:000000000001a757 .LASF4429
C:\Users\SOLDER~1\AppData\Local\Temp\ccLLkDzL.s:29645  .debug_str:000000000002d740 .LASF4430
C:\Users\SOLDER~1\AppData\Local\Temp\ccLLkDzL.s:28667  .debug_str:0000000000029738 .LASF4431
C:\Users\SOLDER~1\AppData\Local\Temp\ccLLkDzL.s:24753  .debug_str:000000000001976f .LASF4432
C:\Users\SOLDER~1\AppData\Local\Temp\ccLLkDzL.s:25011  .debug_str:000000000001a7e2 .LASF4433
C:\Users\SOLDER~1\AppData\Local\Temp\ccLLkDzL.s:22747  .debug_str:0000000000011466 .LASF4434
C:\Users\SOLDER~1\AppData\Local\Temp\ccLLkDzL.s:29463  .debug_str:000000000002cb2f .LASF4435
C:\Users\SOLDER~1\AppData\Local\Temp\ccLLkDzL.s:24721  .debug_str:00000000000195a3 .LASF4436
C:\Users\SOLDER~1\AppData\Local\Temp\ccLLkDzL.s:28339  .debug_str:00000000000281fe .LASF4437
C:\Users\SOLDER~1\AppData\Local\Temp\ccLLkDzL.s:27005  .debug_str:00000000000229ed .LASF4438
C:\Users\SOLDER~1\AppData\Local\Temp\ccLLkDzL.s:22289  .debug_str:000000000000f67d .LASF4439
C:\Users\SOLDER~1\AppData\Local\Temp\ccLLkDzL.s:27629  .debug_str:00000000000252b3 .LASF4440
C:\Users\SOLDER~1\AppData\Local\Temp\ccLLkDzL.s:24059  .debug_str:0000000000016a5d .LASF4441
C:\Users\SOLDER~1\AppData\Local\Temp\ccLLkDzL.s:28419  .debug_str:0000000000028760 .LASF4442
C:\Users\SOLDER~1\AppData\Local\Temp\ccLLkDzL.s:23965  .debug_str:0000000000016488 .LASF4443
C:\Users\SOLDER~1\AppData\Local\Temp\ccLLkDzL.s:21417  .debug_str:000000000000bd1a .LASF4444
C:\Users\SOLDER~1\AppData\Local\Temp\ccLLkDzL.s:23753  .debug_str:000000000001571d .LASF4445
C:\Users\SOLDER~1\AppData\Local\Temp\ccLLkDzL.s:24509  .debug_str:0000000000018787 .LASF4446
C:\Users\SOLDER~1\AppData\Local\Temp\ccLLkDzL.s:21605  .debug_str:000000000000c9f6 .LASF4447
C:\Users\SOLDER~1\AppData\Local\Temp\ccLLkDzL.s:25333  .debug_str:000000000001bc78 .LASF4448
C:\Users\SOLDER~1\AppData\Local\Temp\ccLLkDzL.s:26829  .debug_str:0000000000021e6f .LASF4449
C:\Users\SOLDER~1\AppData\Local\Temp\ccLLkDzL.s:28517  .debug_str:0000000000028d71 .LASF4450
C:\Users\SOLDER~1\AppData\Local\Temp\ccLLkDzL.s:26575  .debug_str:0000000000020e00 .LASF4451
C:\Users\SOLDER~1\AppData\Local\Temp\ccLLkDzL.s:25105  .debug_str:000000000001ae2e .LASF4452
C:\Users\SOLDER~1\AppData\Local\Temp\ccLLkDzL.s:23275  .debug_str:000000000001368e .LASF4453
C:\Users\SOLDER~1\AppData\Local\Temp\ccLLkDzL.s:25571  .debug_str:000000000001ccb4 .LASF4454
C:\Users\SOLDER~1\AppData\Local\Temp\ccLLkDzL.s:22913  .debug_str:0000000000011ecc .LASF4455
C:\Users\SOLDER~1\AppData\Local\Temp\ccLLkDzL.s:27959  .debug_str:0000000000026933 .LASF4456
C:\Users\SOLDER~1\AppData\Local\Temp\ccLLkDzL.s:22385  .debug_str:000000000000fd48 .LASF4457
C:\Users\SOLDER~1\AppData\Local\Temp\ccLLkDzL.s:28777  .debug_str:0000000000029e8c .LASF4458
C:\Users\SOLDER~1\AppData\Local\Temp\ccLLkDzL.s:27663  .debug_str:00000000000254c3 .LASF4459
C:\Users\SOLDER~1\AppData\Local\Temp\ccLLkDzL.s:28701  .debug_str:0000000000029958 .LASF4460
C:\Users\SOLDER~1\AppData\Local\Temp\ccLLkDzL.s:22809  .debug_str:000000000001184d .LASF4461
C:\Users\SOLDER~1\AppData\Local\Temp\ccLLkDzL.s:24119  .debug_str:0000000000016e0a .LASF4462
GAS LISTING C:\Users\SOLDER~1\AppData\Local\Temp\ccLLkDzL.s 			page 92


C:\Users\SOLDER~1\AppData\Local\Temp\ccLLkDzL.s:24937  .debug_str:000000000001a31e .LASF4463
C:\Users\SOLDER~1\AppData\Local\Temp\ccLLkDzL.s:27245  .debug_str:0000000000023966 .LASF4464
C:\Users\SOLDER~1\AppData\Local\Temp\ccLLkDzL.s:25307  .debug_str:000000000001baa0 .LASF4465
C:\Users\SOLDER~1\AppData\Local\Temp\ccLLkDzL.s:24911  .debug_str:000000000001a150 .LASF4466
C:\Users\SOLDER~1\AppData\Local\Temp\ccLLkDzL.s:24609  .debug_str:0000000000018e60 .LASF4467
C:\Users\SOLDER~1\AppData\Local\Temp\ccLLkDzL.s:25483  .debug_str:000000000001c6a0 .LASF4468
C:\Users\SOLDER~1\AppData\Local\Temp\ccLLkDzL.s:24037  .debug_str:00000000000168f7 .LASF4469
C:\Users\SOLDER~1\AppData\Local\Temp\ccLLkDzL.s:28421  .debug_str:0000000000028771 .LASF4470
C:\Users\SOLDER~1\AppData\Local\Temp\ccLLkDzL.s:29183  .debug_str:000000000002b8f5 .LASF4471
C:\Users\SOLDER~1\AppData\Local\Temp\ccLLkDzL.s:19693  .debug_str:0000000000004c9d .LASF4472
C:\Users\SOLDER~1\AppData\Local\Temp\ccLLkDzL.s:29575  .debug_str:000000000002d2d5 .LASF4473
C:\Users\SOLDER~1\AppData\Local\Temp\ccLLkDzL.s:22453  .debug_str:0000000000010168 .LASF4474
C:\Users\SOLDER~1\AppData\Local\Temp\ccLLkDzL.s:28863  .debug_str:000000000002a437 .LASF4475
C:\Users\SOLDER~1\AppData\Local\Temp\ccLLkDzL.s:24199  .debug_str:0000000000017378 .LASF4476
C:\Users\SOLDER~1\AppData\Local\Temp\ccLLkDzL.s:25771  .debug_str:000000000001d957 .LASF4477
C:\Users\SOLDER~1\AppData\Local\Temp\ccLLkDzL.s:28069  .debug_str:0000000000027046 .LASF4478
C:\Users\SOLDER~1\AppData\Local\Temp\ccLLkDzL.s:26787  .debug_str:0000000000021bc8 .LASF4479
C:\Users\SOLDER~1\AppData\Local\Temp\ccLLkDzL.s:26715  .debug_str:0000000000021718 .LASF4480
C:\Users\SOLDER~1\AppData\Local\Temp\ccLLkDzL.s:22769  .debug_str:000000000001159a .LASF4481
C:\Users\SOLDER~1\AppData\Local\Temp\ccLLkDzL.s:29741  .debug_str:000000000002dd6a .LASF4482
C:\Users\SOLDER~1\AppData\Local\Temp\ccLLkDzL.s:21033  .debug_str:000000000000a426 .LASF4483
C:\Users\SOLDER~1\AppData\Local\Temp\ccLLkDzL.s:28761  .debug_str:0000000000029d6f .LASF4484
C:\Users\SOLDER~1\AppData\Local\Temp\ccLLkDzL.s:20177  .debug_str:0000000000006bfb .LASF4485
C:\Users\SOLDER~1\AppData\Local\Temp\ccLLkDzL.s:25223  .debug_str:000000000001b57d .LASF4486
C:\Users\SOLDER~1\AppData\Local\Temp\ccLLkDzL.s:29523  .debug_str:000000000002cf51 .LASF4487
C:\Users\SOLDER~1\AppData\Local\Temp\ccLLkDzL.s:29087  .debug_str:000000000002b2d1 .LASF4488
C:\Users\SOLDER~1\AppData\Local\Temp\ccLLkDzL.s:25121  .debug_str:000000000001aeff .LASF4489
C:\Users\SOLDER~1\AppData\Local\Temp\ccLLkDzL.s:23265  .debug_str:00000000000135fe .LASF4490
C:\Users\SOLDER~1\AppData\Local\Temp\ccLLkDzL.s:23831  .debug_str:0000000000015bf9 .LASF4491
C:\Users\SOLDER~1\AppData\Local\Temp\ccLLkDzL.s:23023  .debug_str:00000000000125dd .LASF4492
C:\Users\SOLDER~1\AppData\Local\Temp\ccLLkDzL.s:28939  .debug_str:000000000002a8f4 .LASF4493
C:\Users\SOLDER~1\AppData\Local\Temp\ccLLkDzL.s:24131  .debug_str:0000000000016ec6 .LASF4494
C:\Users\SOLDER~1\AppData\Local\Temp\ccLLkDzL.s:27689  .debug_str:000000000002567c .LASF4495
C:\Users\SOLDER~1\AppData\Local\Temp\ccLLkDzL.s:24259  .debug_str:0000000000017731 .LASF4496
C:\Users\SOLDER~1\AppData\Local\Temp\ccLLkDzL.s:26443  .debug_str:000000000002055e .LASF4497
C:\Users\SOLDER~1\AppData\Local\Temp\ccLLkDzL.s:29605  .debug_str:000000000002d478 .LASF4498
C:\Users\SOLDER~1\AppData\Local\Temp\ccLLkDzL.s:23537  .debug_str:00000000000148e1 .LASF4499
C:\Users\SOLDER~1\AppData\Local\Temp\ccLLkDzL.s:24665  .debug_str:00000000000191cd .LASF4500
C:\Users\SOLDER~1\AppData\Local\Temp\ccLLkDzL.s:25849  .debug_str:000000000001de8d .LASF4501
C:\Users\SOLDER~1\AppData\Local\Temp\ccLLkDzL.s:26933  .debug_str:00000000000224f2 .LASF4502
C:\Users\SOLDER~1\AppData\Local\Temp\ccLLkDzL.s:25377  .debug_str:000000000001bf4c .LASF4503
C:\Users\SOLDER~1\AppData\Local\Temp\ccLLkDzL.s:28165  .debug_str:0000000000027690 .LASF4504
C:\Users\SOLDER~1\AppData\Local\Temp\ccLLkDzL.s:26975  .debug_str:00000000000227bd .LASF4505
C:\Users\SOLDER~1\AppData\Local\Temp\ccLLkDzL.s:18925  .debug_str:0000000000001b2c .LASF4506
C:\Users\SOLDER~1\AppData\Local\Temp\ccLLkDzL.s:27719  .debug_str:00000000000258b4 .LASF4507
C:\Users\SOLDER~1\AppData\Local\Temp\ccLLkDzL.s:20085  .debug_str:00000000000065e4 .LASF4508
C:\Users\SOLDER~1\AppData\Local\Temp\ccLLkDzL.s:22725  .debug_str:00000000000112b6 .LASF4509
C:\Users\SOLDER~1\AppData\Local\Temp\ccLLkDzL.s:25189  .debug_str:000000000001b36d .LASF4510
C:\Users\SOLDER~1\AppData\Local\Temp\ccLLkDzL.s:19453  .debug_str:0000000000003d68 .LASF4511
C:\Users\SOLDER~1\AppData\Local\Temp\ccLLkDzL.s:26711  .debug_str:00000000000216e1 .LASF4512
C:\Users\SOLDER~1\AppData\Local\Temp\ccLLkDzL.s:26783  .debug_str:0000000000021b92 .LASF4513
C:\Users\SOLDER~1\AppData\Local\Temp\ccLLkDzL.s:26299  .debug_str:000000000001fc0f .LASF4514
C:\Users\SOLDER~1\AppData\Local\Temp\ccLLkDzL.s:20895  .debug_str:0000000000009b19 .LASF4515
C:\Users\SOLDER~1\AppData\Local\Temp\ccLLkDzL.s:23689  .debug_str:00000000000152e6 .LASF4516
C:\Users\SOLDER~1\AppData\Local\Temp\ccLLkDzL.s:26153  .debug_str:000000000001f299 .LASF4517
C:\Users\SOLDER~1\AppData\Local\Temp\ccLLkDzL.s:29965  .debug_str:000000000002ebb5 .LASF4518
C:\Users\SOLDER~1\AppData\Local\Temp\ccLLkDzL.s:25901  .debug_str:000000000001e1dd .LASF4519
GAS LISTING C:\Users\SOLDER~1\AppData\Local\Temp\ccLLkDzL.s 			page 93


C:\Users\SOLDER~1\AppData\Local\Temp\ccLLkDzL.s:18795  .debug_str:00000000000012df .LASF4520
C:\Users\SOLDER~1\AppData\Local\Temp\ccLLkDzL.s:22487  .debug_str:00000000000103c2 .LASF4521
C:\Users\SOLDER~1\AppData\Local\Temp\ccLLkDzL.s:21601  .debug_str:000000000000c9ba .LASF4522
C:\Users\SOLDER~1\AppData\Local\Temp\ccLLkDzL.s:27599  .debug_str:00000000000250ab .LASF4523
C:\Users\SOLDER~1\AppData\Local\Temp\ccLLkDzL.s:21791  .debug_str:000000000000d63a .LASF4524
C:\Users\SOLDER~1\AppData\Local\Temp\ccLLkDzL.s:29159  .debug_str:000000000002b76b .LASF4525
C:\Users\SOLDER~1\AppData\Local\Temp\ccLLkDzL.s:24591  .debug_str:0000000000018d29 .LASF4526
C:\Users\SOLDER~1\AppData\Local\Temp\ccLLkDzL.s:23621  .debug_str:0000000000014e42 .LASF4527
C:\Users\SOLDER~1\AppData\Local\Temp\ccLLkDzL.s:27547  .debug_str:0000000000024d6e .LASF4528
C:\Users\SOLDER~1\AppData\Local\Temp\ccLLkDzL.s:29027  .debug_str:000000000002aeb0 .LASF4529
C:\Users\SOLDER~1\AppData\Local\Temp\ccLLkDzL.s:21293  .debug_str:000000000000b529 .LASF4530
C:\Users\SOLDER~1\AppData\Local\Temp\ccLLkDzL.s:27483  .debug_str:000000000002491c .LASF4531
C:\Users\SOLDER~1\AppData\Local\Temp\ccLLkDzL.s:27123  .debug_str:0000000000023170 .LASF4532
C:\Users\SOLDER~1\AppData\Local\Temp\ccLLkDzL.s:19947  .debug_str:0000000000005cac .LASF4533
C:\Users\SOLDER~1\AppData\Local\Temp\ccLLkDzL.s:27789  .debug_str:0000000000025d7f .LASF4534
C:\Users\SOLDER~1\AppData\Local\Temp\ccLLkDzL.s:29245  .debug_str:000000000002bced .LASF4535
C:\Users\SOLDER~1\AppData\Local\Temp\ccLLkDzL.s:23943  .debug_str:0000000000016325 .LASF4536
C:\Users\SOLDER~1\AppData\Local\Temp\ccLLkDzL.s:19645  .debug_str:000000000000498a .LASF4537
C:\Users\SOLDER~1\AppData\Local\Temp\ccLLkDzL.s:22211  .debug_str:000000000000f167 .LASF4538
C:\Users\SOLDER~1\AppData\Local\Temp\ccLLkDzL.s:23197  .debug_str:000000000001314f .LASF4539
C:\Users\SOLDER~1\AppData\Local\Temp\ccLLkDzL.s:25481  .debug_str:000000000001c665 .LASF4540
C:\Users\SOLDER~1\AppData\Local\Temp\ccLLkDzL.s:25449  .debug_str:000000000001c431 .LASF4541
C:\Users\SOLDER~1\AppData\Local\Temp\ccLLkDzL.s:23409  .debug_str:000000000001401a .LASF4542
C:\Users\SOLDER~1\AppData\Local\Temp\ccLLkDzL.s:29299  .debug_str:000000000002c0d2 .LASF4543
C:\Users\SOLDER~1\AppData\Local\Temp\ccLLkDzL.s:29271  .debug_str:000000000002bece .LASF4544
C:\Users\SOLDER~1\AppData\Local\Temp\ccLLkDzL.s:27487  .debug_str:0000000000024978 .LASF4545
C:\Users\SOLDER~1\AppData\Local\Temp\ccLLkDzL.s:21937  .debug_str:000000000000dfc9 .LASF4546
C:\Users\SOLDER~1\AppData\Local\Temp\ccLLkDzL.s:20089  .debug_str:0000000000006642 .LASF4547
C:\Users\SOLDER~1\AppData\Local\Temp\ccLLkDzL.s:20147  .debug_str:0000000000006a30 .LASF4548
C:\Users\SOLDER~1\AppData\Local\Temp\ccLLkDzL.s:23171  .debug_str:0000000000012f94 .LASF4549
C:\Users\SOLDER~1\AppData\Local\Temp\ccLLkDzL.s:24931  .debug_str:000000000001a2c6 .LASF4550
C:\Users\SOLDER~1\AppData\Local\Temp\ccLLkDzL.s:25347  .debug_str:000000000001bd72 .LASF4551
C:\Users\SOLDER~1\AppData\Local\Temp\ccLLkDzL.s:24453  .debug_str:0000000000018406 .LASF4552
C:\Users\SOLDER~1\AppData\Local\Temp\ccLLkDzL.s:21631  .debug_str:000000000000cbb4 .LASF4553
C:\Users\SOLDER~1\AppData\Local\Temp\ccLLkDzL.s:18527  .debug_str:000000000000010c .LASF4554
C:\Users\SOLDER~1\AppData\Local\Temp\ccLLkDzL.s:26771  .debug_str:0000000000021ab5 .LASF4555
C:\Users\SOLDER~1\AppData\Local\Temp\ccLLkDzL.s:26515  .debug_str:0000000000020a19 .LASF4556
C:\Users\SOLDER~1\AppData\Local\Temp\ccLLkDzL.s:24431  .debug_str:000000000001829e .LASF4557
C:\Users\SOLDER~1\AppData\Local\Temp\ccLLkDzL.s:29137  .debug_str:000000000002b619 .LASF4558
C:\Users\SOLDER~1\AppData\Local\Temp\ccLLkDzL.s:22427  .debug_str:000000000000ffd9 .LASF4559
C:\Users\SOLDER~1\AppData\Local\Temp\ccLLkDzL.s:22517  .debug_str:0000000000010575 .LASF4560
C:\Users\SOLDER~1\AppData\Local\Temp\ccLLkDzL.s:22617  .debug_str:0000000000010bdf .LASF4561
C:\Users\SOLDER~1\AppData\Local\Temp\ccLLkDzL.s:22759  .debug_str:0000000000011520 .LASF4562
C:\Users\SOLDER~1\AppData\Local\Temp\ccLLkDzL.s:22491  .debug_str:0000000000010405 .LASF4563
C:\Users\SOLDER~1\AppData\Local\Temp\ccLLkDzL.s:20935  .debug_str:0000000000009db9 .LASF4564
C:\Users\SOLDER~1\AppData\Local\Temp\ccLLkDzL.s:20313  .debug_str:000000000000751d .LASF4565
C:\Users\SOLDER~1\AppData\Local\Temp\ccLLkDzL.s:19601  .debug_str:00000000000046c9 .LASF4566
C:\Users\SOLDER~1\AppData\Local\Temp\ccLLkDzL.s:22929  .debug_str:0000000000011fc6 .LASF4567
C:\Users\SOLDER~1\AppData\Local\Temp\ccLLkDzL.s:28119  .debug_str:00000000000273aa .LASF4568
C:\Users\SOLDER~1\AppData\Local\Temp\ccLLkDzL.s:23907  .debug_str:00000000000160df .LASF4569
C:\Users\SOLDER~1\AppData\Local\Temp\ccLLkDzL.s:25601  .debug_str:000000000001ce80 .LASF4570
C:\Users\SOLDER~1\AppData\Local\Temp\ccLLkDzL.s:25791  .debug_str:000000000001dab6 .LASF4571
C:\Users\SOLDER~1\AppData\Local\Temp\ccLLkDzL.s:22651  .debug_str:0000000000010e0c .LASF4572
C:\Users\SOLDER~1\AppData\Local\Temp\ccLLkDzL.s:24225  .debug_str:000000000001752a .LASF4573
C:\Users\SOLDER~1\AppData\Local\Temp\ccLLkDzL.s:29141  .debug_str:000000000002b666 .LASF4574
C:\Users\SOLDER~1\AppData\Local\Temp\ccLLkDzL.s:25783  .debug_str:000000000001da28 .LASF4575
C:\Users\SOLDER~1\AppData\Local\Temp\ccLLkDzL.s:19071  .debug_str:000000000000250e .LASF4576
GAS LISTING C:\Users\SOLDER~1\AppData\Local\Temp\ccLLkDzL.s 			page 94


C:\Users\SOLDER~1\AppData\Local\Temp\ccLLkDzL.s:21127  .debug_str:000000000000aa87 .LASF4577
C:\Users\SOLDER~1\AppData\Local\Temp\ccLLkDzL.s:21087  .debug_str:000000000000a7e0 .LASF4578
C:\Users\SOLDER~1\AppData\Local\Temp\ccLLkDzL.s:25361  .debug_str:000000000001be4d .LASF4579
C:\Users\SOLDER~1\AppData\Local\Temp\ccLLkDzL.s:22565  .debug_str:00000000000108b9 .LASF4580
C:\Users\SOLDER~1\AppData\Local\Temp\ccLLkDzL.s:25277  .debug_str:000000000001b8ce .LASF4581
C:\Users\SOLDER~1\AppData\Local\Temp\ccLLkDzL.s:28175  .debug_str:000000000002773b .LASF4582
C:\Users\SOLDER~1\AppData\Local\Temp\ccLLkDzL.s:21443  .debug_str:000000000000bec5 .LASF4583
C:\Users\SOLDER~1\AppData\Local\Temp\ccLLkDzL.s:20335  .debug_str:0000000000007679 .LASF4584
C:\Users\SOLDER~1\AppData\Local\Temp\ccLLkDzL.s:24291  .debug_str:000000000001794a .LASF4585
C:\Users\SOLDER~1\AppData\Local\Temp\ccLLkDzL.s:25211  .debug_str:000000000001b4cf .LASF4586
C:\Users\SOLDER~1\AppData\Local\Temp\ccLLkDzL.s:19861  .debug_str:00000000000056e4 .LASF4587
C:\Users\SOLDER~1\AppData\Local\Temp\ccLLkDzL.s:20433  .debug_str:0000000000007cc5 .LASF4588
C:\Users\SOLDER~1\AppData\Local\Temp\ccLLkDzL.s:20635  .debug_str:00000000000089d7 .LASF4589
C:\Users\SOLDER~1\AppData\Local\Temp\ccLLkDzL.s:25933  .debug_str:000000000001e3cd .LASF4590
C:\Users\SOLDER~1\AppData\Local\Temp\ccLLkDzL.s:29443  .debug_str:000000000002c9d9 .LASF4591
C:\Users\SOLDER~1\AppData\Local\Temp\ccLLkDzL.s:20353  .debug_str:0000000000007763 .LASF4594
C:\Users\SOLDER~1\AppData\Local\Temp\ccLLkDzL.s:24973  .debug_str:000000000001a562 .LASF4595
C:\Users\SOLDER~1\AppData\Local\Temp\ccLLkDzL.s:23289  .debug_str:00000000000137b7 .LASF4596
C:\Users\SOLDER~1\AppData\Local\Temp\ccLLkDzL.s:25055  .debug_str:000000000001aaca .LASF4597
C:\Users\SOLDER~1\AppData\Local\Temp\ccLLkDzL.s:26723  .debug_str:000000000002179e .LASF4598
C:\Users\SOLDER~1\AppData\Local\Temp\ccLLkDzL.s:23675  .debug_str:00000000000151e4 .LASF4599
C:\Users\SOLDER~1\AppData\Local\Temp\ccLLkDzL.s:29049  .debug_str:000000000002b076 .LASF4600
C:\Users\SOLDER~1\AppData\Local\Temp\ccLLkDzL.s:24019  .debug_str:00000000000167c2 .LASF4601
C:\Users\SOLDER~1\AppData\Local\Temp\ccLLkDzL.s:21639  .debug_str:000000000000cc18 .LASF4602
C:\Users\SOLDER~1\AppData\Local\Temp\ccLLkDzL.s:23411  .debug_str:0000000000014054 .LASF4603
C:\Users\SOLDER~1\AppData\Local\Temp\ccLLkDzL.s:22293  .debug_str:000000000000f6b3 .LASF4604
C:\Users\SOLDER~1\AppData\Local\Temp\ccLLkDzL.s:28771  .debug_str:0000000000029e08 .LASF4605
C:\Users\SOLDER~1\AppData\Local\Temp\ccLLkDzL.s:29873  .debug_str:000000000002e5b7 .LASF4606
C:\Users\SOLDER~1\AppData\Local\Temp\ccLLkDzL.s:27257  .debug_str:0000000000023a19 .LASF4607
C:\Users\SOLDER~1\AppData\Local\Temp\ccLLkDzL.s:21023  .debug_str:000000000000a380 .LASF4608
C:\Users\SOLDER~1\AppData\Local\Temp\ccLLkDzL.s:23183  .debug_str:0000000000013037 .LASF4609
C:\Users\SOLDER~1\AppData\Local\Temp\ccLLkDzL.s:27239  .debug_str:00000000000238e9 .LASF4610
C:\Users\SOLDER~1\AppData\Local\Temp\ccLLkDzL.s:20209  .debug_str:0000000000006e28 .LASF4611
C:\Users\SOLDER~1\AppData\Local\Temp\ccLLkDzL.s:26175  .debug_str:000000000001f43b .LASF4612
C:\Users\SOLDER~1\AppData\Local\Temp\ccLLkDzL.s:19439  .debug_str:0000000000003c75 .LASF4613
C:\Users\SOLDER~1\AppData\Local\Temp\ccLLkDzL.s:27893  .debug_str:0000000000026493 .LASF4614
C:\Users\SOLDER~1\AppData\Local\Temp\ccLLkDzL.s:20625  .debug_str:0000000000008929 .LASF4615
C:\Users\SOLDER~1\AppData\Local\Temp\ccLLkDzL.s:27947  .debug_str:000000000002683d .LASF4616
C:\Users\SOLDER~1\AppData\Local\Temp\ccLLkDzL.s:20217  .debug_str:0000000000006ed4 .LASF4617
C:\Users\SOLDER~1\AppData\Local\Temp\ccLLkDzL.s:19181  .debug_str:0000000000002bbe .LASF4618
C:\Users\SOLDER~1\AppData\Local\Temp\ccLLkDzL.s:21233  .debug_str:000000000000b113 .LASF4619
C:\Users\SOLDER~1\AppData\Local\Temp\ccLLkDzL.s:21351  .debug_str:000000000000b8cf .LASF4620
C:\Users\SOLDER~1\AppData\Local\Temp\ccLLkDzL.s:27389  .debug_str:00000000000242f2 .LASF4621
C:\Users\SOLDER~1\AppData\Local\Temp\ccLLkDzL.s:28515  .debug_str:0000000000028d53 .LASF4622
C:\Users\SOLDER~1\AppData\Local\Temp\ccLLkDzL.s:22299  .debug_str:000000000000f72c .LASF4623
C:\Users\SOLDER~1\AppData\Local\Temp\ccLLkDzL.s:22423  .debug_str:000000000000ffa9 .LASF4624
C:\Users\SOLDER~1\AppData\Local\Temp\ccLLkDzL.s:28929  .debug_str:000000000002a84f .LASF4625
C:\Users\SOLDER~1\AppData\Local\Temp\ccLLkDzL.s:24055  .debug_str:0000000000016a1b .LASF4626
C:\Users\SOLDER~1\AppData\Local\Temp\ccLLkDzL.s:26027  .debug_str:000000000001ea57 .LASF4627
C:\Users\SOLDER~1\AppData\Local\Temp\ccLLkDzL.s:23387  .debug_str:0000000000013eb6 .LASF4628
C:\Users\SOLDER~1\AppData\Local\Temp\ccLLkDzL.s:20813  .debug_str:00000000000095de .LASF4629
C:\Users\SOLDER~1\AppData\Local\Temp\ccLLkDzL.s:25919  .debug_str:000000000001e2db .LASF4630
C:\Users\SOLDER~1\AppData\Local\Temp\ccLLkDzL.s:26889  .debug_str:00000000000221e9 .LASF4631
C:\Users\SOLDER~1\AppData\Local\Temp\ccLLkDzL.s:25725  .debug_str:000000000001d694 .LASF4632
C:\Users\SOLDER~1\AppData\Local\Temp\ccLLkDzL.s:29559  .debug_str:000000000002d1be .LASF4633
C:\Users\SOLDER~1\AppData\Local\Temp\ccLLkDzL.s:26855  .debug_str:0000000000022007 .LASF4634
C:\Users\SOLDER~1\AppData\Local\Temp\ccLLkDzL.s:18531  .debug_str:0000000000000130 .LASF4635
GAS LISTING C:\Users\SOLDER~1\AppData\Local\Temp\ccLLkDzL.s 			page 95


C:\Users\SOLDER~1\AppData\Local\Temp\ccLLkDzL.s:24161  .debug_str:00000000000170e6 .LASF4636
C:\Users\SOLDER~1\AppData\Local\Temp\ccLLkDzL.s:23259  .debug_str:000000000001358f .LASF4637
C:\Users\SOLDER~1\AppData\Local\Temp\ccLLkDzL.s:23235  .debug_str:00000000000133d9 .LASF4638
C:\Users\SOLDER~1\AppData\Local\Temp\ccLLkDzL.s:23237  .debug_str:000000000001340a .LASF4639
C:\Users\SOLDER~1\AppData\Local\Temp\ccLLkDzL.s:28765  .debug_str:0000000000029d9d .LASF4640
C:\Users\SOLDER~1\AppData\Local\Temp\ccLLkDzL.s:21547  .debug_str:000000000000c5f3 .LASF4641
C:\Users\SOLDER~1\AppData\Local\Temp\ccLLkDzL.s:29987  .debug_str:000000000002ed13 .LASF4642
C:\Users\SOLDER~1\AppData\Local\Temp\ccLLkDzL.s:26843  .debug_str:0000000000021f4e .LASF4643
C:\Users\SOLDER~1\AppData\Local\Temp\ccLLkDzL.s:21771  .debug_str:000000000000d4db .LASF4644
C:\Users\SOLDER~1\AppData\Local\Temp\ccLLkDzL.s:25835  .debug_str:000000000001ddd0 .LASF4645
C:\Users\SOLDER~1\AppData\Local\Temp\ccLLkDzL.s:21803  .debug_str:000000000000d6fd .LASF4646
C:\Users\SOLDER~1\AppData\Local\Temp\ccLLkDzL.s:25285  .debug_str:000000000001b94f .LASF4647
C:\Users\SOLDER~1\AppData\Local\Temp\ccLLkDzL.s:22383  .debug_str:000000000000fd1f .LASF4648
C:\Users\SOLDER~1\AppData\Local\Temp\ccLLkDzL.s:21643  .debug_str:000000000000cc6c .LASF4649
C:\Users\SOLDER~1\AppData\Local\Temp\ccLLkDzL.s:18959  .debug_str:0000000000001d8b .LASF4650
C:\Users\SOLDER~1\AppData\Local\Temp\ccLLkDzL.s:21673  .debug_str:000000000000ce42 .LASF4651
C:\Users\SOLDER~1\AppData\Local\Temp\ccLLkDzL.s:24917  .debug_str:000000000001a1af .LASF4652
C:\Users\SOLDER~1\AppData\Local\Temp\ccLLkDzL.s:27125  .debug_str:00000000000231aa .LASF4653
C:\Users\SOLDER~1\AppData\Local\Temp\ccLLkDzL.s:23305  .debug_str:00000000000138e9 .LASF4654
C:\Users\SOLDER~1\AppData\Local\Temp\ccLLkDzL.s:20529  .debug_str:000000000000830f .LASF4655
C:\Users\SOLDER~1\AppData\Local\Temp\ccLLkDzL.s:25359  .debug_str:000000000001be15 .LASF4656
C:\Users\SOLDER~1\AppData\Local\Temp\ccLLkDzL.s:22353  .debug_str:000000000000fafd .LASF4657
C:\Users\SOLDER~1\AppData\Local\Temp\ccLLkDzL.s:20917  .debug_str:0000000000009c5e .LASF4658
C:\Users\SOLDER~1\AppData\Local\Temp\ccLLkDzL.s:21619  .debug_str:000000000000cad8 .LASF4659
C:\Users\SOLDER~1\AppData\Local\Temp\ccLLkDzL.s:28725  .debug_str:0000000000029ae4 .LASF4660
C:\Users\SOLDER~1\AppData\Local\Temp\ccLLkDzL.s:25515  .debug_str:000000000001c8b5 .LASF4661
C:\Users\SOLDER~1\AppData\Local\Temp\ccLLkDzL.s:24835  .debug_str:0000000000019c82 .LASF4662
C:\Users\SOLDER~1\AppData\Local\Temp\ccLLkDzL.s:18519  .debug_str:000000000000006c .LASF4663
C:\Users\SOLDER~1\AppData\Local\Temp\ccLLkDzL.s:22851  .debug_str:0000000000011ae8 .LASF4664
C:\Users\SOLDER~1\AppData\Local\Temp\ccLLkDzL.s:24699  .debug_str:0000000000019430 .LASF4665
C:\Users\SOLDER~1\AppData\Local\Temp\ccLLkDzL.s:29285  .debug_str:000000000002bfe9 .LASF4666
C:\Users\SOLDER~1\AppData\Local\Temp\ccLLkDzL.s:18809  .debug_str:00000000000013d7 .LASF4667
C:\Users\SOLDER~1\AppData\Local\Temp\ccLLkDzL.s:18603  .debug_str:00000000000005b3 .LASF4668
C:\Users\SOLDER~1\AppData\Local\Temp\ccLLkDzL.s:20107  .debug_str:0000000000006798 .LASF4669
C:\Users\SOLDER~1\AppData\Local\Temp\ccLLkDzL.s:21947  .debug_str:000000000000e08c .LASF4670
C:\Users\SOLDER~1\AppData\Local\Temp\ccLLkDzL.s:18939  .debug_str:0000000000001c2a .LASF4671
C:\Users\SOLDER~1\AppData\Local\Temp\ccLLkDzL.s:18845  .debug_str:0000000000001628 .LASF4672
C:\Users\SOLDER~1\AppData\Local\Temp\ccLLkDzL.s:26173  .debug_str:000000000001f3fa .LASF4673
C:\Users\SOLDER~1\AppData\Local\Temp\ccLLkDzL.s:23913  .debug_str:0000000000016136 .LASF4674
C:\Users\SOLDER~1\AppData\Local\Temp\ccLLkDzL.s:19603  .debug_str:00000000000046dc .LASF4675
C:\Users\SOLDER~1\AppData\Local\Temp\ccLLkDzL.s:22997  .debug_str:0000000000012427 .LASF4676
C:\Users\SOLDER~1\AppData\Local\Temp\ccLLkDzL.s:22329  .debug_str:000000000000f949 .LASF4677
C:\Users\SOLDER~1\AppData\Local\Temp\ccLLkDzL.s:20481  .debug_str:0000000000007fe9 .LASF4678
C:\Users\SOLDER~1\AppData\Local\Temp\ccLLkDzL.s:27433  .debug_str:00000000000245f2 .LASF4679
C:\Users\SOLDER~1\AppData\Local\Temp\ccLLkDzL.s:23553  .debug_str:00000000000149fa .LASF4680
C:\Users\SOLDER~1\AppData\Local\Temp\ccLLkDzL.s:19197  .debug_str:0000000000002cda .LASF4681
C:\Users\SOLDER~1\AppData\Local\Temp\ccLLkDzL.s:20113  .debug_str:0000000000006824 .LASF4682
C:\Users\SOLDER~1\AppData\Local\Temp\ccLLkDzL.s:18905  .debug_str:00000000000019e2 .LASF4683
C:\Users\SOLDER~1\AppData\Local\Temp\ccLLkDzL.s:21513  .debug_str:000000000000c3a9 .LASF4684
C:\Users\SOLDER~1\AppData\Local\Temp\ccLLkDzL.s:28721  .debug_str:0000000000029aa6 .LASF4685
C:\Users\SOLDER~1\AppData\Local\Temp\ccLLkDzL.s:28195  .debug_str:000000000002786c .LASF4686
C:\Users\SOLDER~1\AppData\Local\Temp\ccLLkDzL.s:25669  .debug_str:000000000001d33a .LASF4687
C:\Users\SOLDER~1\AppData\Local\Temp\ccLLkDzL.s:28259  .debug_str:0000000000027cbe .LASF4688
C:\Users\SOLDER~1\AppData\Local\Temp\ccLLkDzL.s:26261  .debug_str:000000000001f9c4 .LASF4689
C:\Users\SOLDER~1\AppData\Local\Temp\ccLLkDzL.s:27717  .debug_str:0000000000025882 .LASF4690
C:\Users\SOLDER~1\AppData\Local\Temp\ccLLkDzL.s:18785  .debug_str:0000000000001248 .LASF4691
C:\Users\SOLDER~1\AppData\Local\Temp\ccLLkDzL.s:26113  .debug_str:000000000001eff5 .LASF4692
GAS LISTING C:\Users\SOLDER~1\AppData\Local\Temp\ccLLkDzL.s 			page 96


C:\Users\SOLDER~1\AppData\Local\Temp\ccLLkDzL.s:26965  .debug_str:0000000000022717 .LASF4693
C:\Users\SOLDER~1\AppData\Local\Temp\ccLLkDzL.s:28519  .debug_str:0000000000028d88 .LASF4694
C:\Users\SOLDER~1\AppData\Local\Temp\ccLLkDzL.s:25709  .debug_str:000000000001d599 .LASF4695
C:\Users\SOLDER~1\AppData\Local\Temp\ccLLkDzL.s:18881  .debug_str:000000000000185c .LASF4696
C:\Users\SOLDER~1\AppData\Local\Temp\ccLLkDzL.s:23539  .debug_str:0000000000014918 .LASF4697
C:\Users\SOLDER~1\AppData\Local\Temp\ccLLkDzL.s:20383  .debug_str:0000000000007968 .LASF4698
C:\Users\SOLDER~1\AppData\Local\Temp\ccLLkDzL.s:29017  .debug_str:000000000002ae05 .LASF4699
C:\Users\SOLDER~1\AppData\Local\Temp\ccLLkDzL.s:25535  .debug_str:000000000001ca3c .LASF4700
C:\Users\SOLDER~1\AppData\Local\Temp\ccLLkDzL.s:20863  .debug_str:0000000000009926 .LASF4701
C:\Users\SOLDER~1\AppData\Local\Temp\ccLLkDzL.s:19187  .debug_str:0000000000002c2d .LASF4702
C:\Users\SOLDER~1\AppData\Local\Temp\ccLLkDzL.s:24697  .debug_str:0000000000019414 .LASF4703
C:\Users\SOLDER~1\AppData\Local\Temp\ccLLkDzL.s:27437  .debug_str:0000000000024638 .LASF4704
C:\Users\SOLDER~1\AppData\Local\Temp\ccLLkDzL.s:24339  .debug_str:0000000000017c87 .LASF4705
C:\Users\SOLDER~1\AppData\Local\Temp\ccLLkDzL.s:23841  .debug_str:0000000000015c90 .LASF4706
C:\Users\SOLDER~1\AppData\Local\Temp\ccLLkDzL.s:22771  .debug_str:00000000000115b3 .LASF4707
C:\Users\SOLDER~1\AppData\Local\Temp\ccLLkDzL.s:21297  .debug_str:000000000000b562 .LASF4708
C:\Users\SOLDER~1\AppData\Local\Temp\ccLLkDzL.s:24413  .debug_str:000000000001817e .LASF4709
C:\Users\SOLDER~1\AppData\Local\Temp\ccLLkDzL.s:25421  .debug_str:000000000001c273 .LASF4710
C:\Users\SOLDER~1\AppData\Local\Temp\ccLLkDzL.s:26387  .debug_str:00000000000201b1 .LASF4711
C:\Users\SOLDER~1\AppData\Local\Temp\ccLLkDzL.s:24277  .debug_str:0000000000017871 .LASF4712
C:\Users\SOLDER~1\AppData\Local\Temp\ccLLkDzL.s:25071  .debug_str:000000000001ac03 .LASF4713
C:\Users\SOLDER~1\AppData\Local\Temp\ccLLkDzL.s:22509  .debug_str:000000000001050e .LASF4714
C:\Users\SOLDER~1\AppData\Local\Temp\ccLLkDzL.s:29895  .debug_str:000000000002e75b .LASF4715
C:\Users\SOLDER~1\AppData\Local\Temp\ccLLkDzL.s:28985  .debug_str:000000000002ac17 .LASF4716
C:\Users\SOLDER~1\AppData\Local\Temp\ccLLkDzL.s:28075  .debug_str:00000000000270b0 .LASF4717
C:\Users\SOLDER~1\AppData\Local\Temp\ccLLkDzL.s:28507  .debug_str:0000000000028cd0 .LASF4718
C:\Users\SOLDER~1\AppData\Local\Temp\ccLLkDzL.s:19247  .debug_str:000000000000302b .LASF4719
C:\Users\SOLDER~1\AppData\Local\Temp\ccLLkDzL.s:22895  .debug_str:0000000000011da9 .LASF4720
C:\Users\SOLDER~1\AppData\Local\Temp\ccLLkDzL.s:24623  .debug_str:0000000000018f31 .LASF4721
C:\Users\SOLDER~1\AppData\Local\Temp\ccLLkDzL.s:18701  .debug_str:0000000000000d06 .LASF4722
C:\Users\SOLDER~1\AppData\Local\Temp\ccLLkDzL.s:28155  .debug_str:00000000000275fd .LASF4723
C:\Users\SOLDER~1\AppData\Local\Temp\ccLLkDzL.s:20793  .debug_str:00000000000094b1 .LASF4724
C:\Users\SOLDER~1\AppData\Local\Temp\ccLLkDzL.s:26105  .debug_str:000000000001ef70 .LASF4725
C:\Users\SOLDER~1\AppData\Local\Temp\ccLLkDzL.s:24717  .debug_str:0000000000019573 .LASF4726
C:\Users\SOLDER~1\AppData\Local\Temp\ccLLkDzL.s:28325  .debug_str:0000000000028113 .LASF4727
C:\Users\SOLDER~1\AppData\Local\Temp\ccLLkDzL.s:20865  .debug_str:0000000000009941 .LASF4728
C:\Users\SOLDER~1\AppData\Local\Temp\ccLLkDzL.s:27967  .debug_str:00000000000269bf .LASF4729
C:\Users\SOLDER~1\AppData\Local\Temp\ccLLkDzL.s:26945  .debug_str:00000000000225ba .LASF4730
C:\Users\SOLDER~1\AppData\Local\Temp\ccLLkDzL.s:29347  .debug_str:000000000002c3d7 .LASF4731
C:\Users\SOLDER~1\AppData\Local\Temp\ccLLkDzL.s:27161  .debug_str:0000000000023416 .LASF4732
C:\Users\SOLDER~1\AppData\Local\Temp\ccLLkDzL.s:28191  .debug_str:000000000002782b .LASF4733
C:\Users\SOLDER~1\AppData\Local\Temp\ccLLkDzL.s:28637  .debug_str:0000000000029569 .LASF4734
C:\Users\SOLDER~1\AppData\Local\Temp\ccLLkDzL.s:21271  .debug_str:000000000000b3c8 .LASF4735
C:\Users\SOLDER~1\AppData\Local\Temp\ccLLkDzL.s:19985  .debug_str:0000000000005f1f .LASF4736
C:\Users\SOLDER~1\AppData\Local\Temp\ccLLkDzL.s:19345  .debug_str:000000000000366a .LASF4737
C:\Users\SOLDER~1\AppData\Local\Temp\ccLLkDzL.s:28115  .debug_str:0000000000027367 .LASF4738
C:\Users\SOLDER~1\AppData\Local\Temp\ccLLkDzL.s:24959  .debug_str:000000000001a46d .LASF4739
C:\Users\SOLDER~1\AppData\Local\Temp\ccLLkDzL.s:19405  .debug_str:0000000000003a5b .LASF4740
C:\Users\SOLDER~1\AppData\Local\Temp\ccLLkDzL.s:19507  .debug_str:00000000000040de .LASF4741
C:\Users\SOLDER~1\AppData\Local\Temp\ccLLkDzL.s:27181  .debug_str:000000000002356d .LASF4742
C:\Users\SOLDER~1\AppData\Local\Temp\ccLLkDzL.s:27523  .debug_str:0000000000024bd6 .LASF4743
C:\Users\SOLDER~1\AppData\Local\Temp\ccLLkDzL.s:23129  .debug_str:0000000000012cf8 .LASF4744
C:\Users\SOLDER~1\AppData\Local\Temp\ccLLkDzL.s:18937  .debug_str:0000000000001c04 .LASF4745
C:\Users\SOLDER~1\AppData\Local\Temp\ccLLkDzL.s:27703  .debug_str:000000000002578f .LASF4746
C:\Users\SOLDER~1\AppData\Local\Temp\ccLLkDzL.s:21795  .debug_str:000000000000d67d .LASF4747
C:\Users\SOLDER~1\AppData\Local\Temp\ccLLkDzL.s:18781  .debug_str:0000000000001212 .LASF4748
C:\Users\SOLDER~1\AppData\Local\Temp\ccLLkDzL.s:27155  .debug_str:00000000000233c3 .LASF4749
GAS LISTING C:\Users\SOLDER~1\AppData\Local\Temp\ccLLkDzL.s 			page 97


C:\Users\SOLDER~1\AppData\Local\Temp\ccLLkDzL.s:28909  .debug_str:000000000002a719 .LASF4750
C:\Users\SOLDER~1\AppData\Local\Temp\ccLLkDzL.s:22227  .debug_str:000000000000f275 .LASF4751
C:\Users\SOLDER~1\AppData\Local\Temp\ccLLkDzL.s:21419  .debug_str:000000000000bd2d .LASF4752
C:\Users\SOLDER~1\AppData\Local\Temp\ccLLkDzL.s:27591  .debug_str:000000000002502b .LASF4753
C:\Users\SOLDER~1\AppData\Local\Temp\ccLLkDzL.s:24585  .debug_str:0000000000018cc3 .LASF4754
C:\Users\SOLDER~1\AppData\Local\Temp\ccLLkDzL.s:18667  .debug_str:0000000000000ab0 .LASF4755
C:\Users\SOLDER~1\AppData\Local\Temp\ccLLkDzL.s:29969  .debug_str:000000000002ebf2 .LASF4756
C:\Users\SOLDER~1\AppData\Local\Temp\ccLLkDzL.s:26859  .debug_str:000000000002204b .LASF4757
C:\Users\SOLDER~1\AppData\Local\Temp\ccLLkDzL.s:27329  .debug_str:0000000000023ee4 .LASF4758
C:\Users\SOLDER~1\AppData\Local\Temp\ccLLkDzL.s:19767  .debug_str:000000000000510a .LASF4759
C:\Users\SOLDER~1\AppData\Local\Temp\ccLLkDzL.s:22247  .debug_str:000000000000f3d8 .LASF4760
C:\Users\SOLDER~1\AppData\Local\Temp\ccLLkDzL.s:27587  .debug_str:0000000000024ff5 .LASF4761
C:\Users\SOLDER~1\AppData\Local\Temp\ccLLkDzL.s:24581  .debug_str:0000000000018c83 .LASF4762
C:\Users\SOLDER~1\AppData\Local\Temp\ccLLkDzL.s:21493  .debug_str:000000000000c240 .LASF4763
C:\Users\SOLDER~1\AppData\Local\Temp\ccLLkDzL.s:20779  .debug_str:00000000000093a3 .LASF4764
C:\Users\SOLDER~1\AppData\Local\Temp\ccLLkDzL.s:20705  .debug_str:0000000000008ea0 .LASF4765
C:\Users\SOLDER~1\AppData\Local\Temp\ccLLkDzL.s:23855  .debug_str:0000000000015d75 .LASF4766
C:\Users\SOLDER~1\AppData\Local\Temp\ccLLkDzL.s:26133  .debug_str:000000000001f153 .LASF4767
C:\Users\SOLDER~1\AppData\Local\Temp\ccLLkDzL.s:23071  .debug_str:00000000000128fb .LASF4768
C:\Users\SOLDER~1\AppData\Local\Temp\ccLLkDzL.s:29595  .debug_str:000000000002d3e8 .LASF4769
C:\Users\SOLDER~1\AppData\Local\Temp\ccLLkDzL.s:26195  .debug_str:000000000001f589 .LASF4770
C:\Users\SOLDER~1\AppData\Local\Temp\ccLLkDzL.s:22259  .debug_str:000000000000f492 .LASF4771
C:\Users\SOLDER~1\AppData\Local\Temp\ccLLkDzL.s:22183  .debug_str:000000000000efa6 .LASF4772
C:\Users\SOLDER~1\AppData\Local\Temp\ccLLkDzL.s:19305  .debug_str:0000000000003401 .LASF4773
C:\Users\SOLDER~1\AppData\Local\Temp\ccLLkDzL.s:27713  .debug_str:0000000000025846 .LASF4774
C:\Users\SOLDER~1\AppData\Local\Temp\ccLLkDzL.s:18829  .debug_str:0000000000001535 .LASF4775
C:\Users\SOLDER~1\AppData\Local\Temp\ccLLkDzL.s:19427  .debug_str:0000000000003bc0 .LASF4776
C:\Users\SOLDER~1\AppData\Local\Temp\ccLLkDzL.s:25905  .debug_str:000000000001e210 .LASF4777
C:\Users\SOLDER~1\AppData\Local\Temp\ccLLkDzL.s:19833  .debug_str:00000000000054f7 .LASF4778
C:\Users\SOLDER~1\AppData\Local\Temp\ccLLkDzL.s:28993  .debug_str:000000000002ac8e .LASF4779
C:\Users\SOLDER~1\AppData\Local\Temp\ccLLkDzL.s:29259  .debug_str:000000000002bdfa .LASF4780
C:\Users\SOLDER~1\AppData\Local\Temp\ccLLkDzL.s:22019  .debug_str:000000000000e518 .LASF4781
C:\Users\SOLDER~1\AppData\Local\Temp\ccLLkDzL.s:26135  .debug_str:000000000001f16f .LASF4782
C:\Users\SOLDER~1\AppData\Local\Temp\ccLLkDzL.s:21919  .debug_str:000000000000de66 .LASF4783
C:\Users\SOLDER~1\AppData\Local\Temp\ccLLkDzL.s:21333  .debug_str:000000000000b7a3 .LASF4784
C:\Users\SOLDER~1\AppData\Local\Temp\ccLLkDzL.s:26523  .debug_str:0000000000020a9e .LASF4785
C:\Users\SOLDER~1\AppData\Local\Temp\ccLLkDzL.s:18955  .debug_str:0000000000001d57 .LASF4786
C:\Users\SOLDER~1\AppData\Local\Temp\ccLLkDzL.s:25039  .debug_str:000000000001a995 .LASF4787
C:\Users\SOLDER~1\AppData\Local\Temp\ccLLkDzL.s:29885  .debug_str:000000000002e694 .LASF4788
C:\Users\SOLDER~1\AppData\Local\Temp\ccLLkDzL.s:21041  .debug_str:000000000000a4a6 .LASF4789
C:\Users\SOLDER~1\AppData\Local\Temp\ccLLkDzL.s:29911  .debug_str:000000000002e86d .LASF4790
C:\Users\SOLDER~1\AppData\Local\Temp\ccLLkDzL.s:19469  .debug_str:0000000000003e6f .LASF4791
C:\Users\SOLDER~1\AppData\Local\Temp\ccLLkDzL.s:28037  .debug_str:0000000000026e60 .LASF4792
C:\Users\SOLDER~1\AppData\Local\Temp\ccLLkDzL.s:28251  .debug_str:0000000000027c3f .LASF4793
C:\Users\SOLDER~1\AppData\Local\Temp\ccLLkDzL.s:20609  .debug_str:0000000000008818 .LASF4794
C:\Users\SOLDER~1\AppData\Local\Temp\ccLLkDzL.s:21051  .debug_str:000000000000a55d .LASF4795
C:\Users\SOLDER~1\AppData\Local\Temp\ccLLkDzL.s:28927  .debug_str:000000000002a828 .LASF4796
C:\Users\SOLDER~1\AppData\Local\Temp\ccLLkDzL.s:24089  .debug_str:0000000000016bf9 .LASF4797
C:\Users\SOLDER~1\AppData\Local\Temp\ccLLkDzL.s:19331  .debug_str:000000000000357d .LASF4798
C:\Users\SOLDER~1\AppData\Local\Temp\ccLLkDzL.s:21895  .debug_str:000000000000dcb9 .LASF4799
C:\Users\SOLDER~1\AppData\Local\Temp\ccLLkDzL.s:22525  .debug_str:00000000000105da .LASF4800
C:\Users\SOLDER~1\AppData\Local\Temp\ccLLkDzL.s:28595  .debug_str:0000000000029288 .LASF4801
C:\Users\SOLDER~1\AppData\Local\Temp\ccLLkDzL.s:20181  .debug_str:0000000000006c37 .LASF4802
C:\Users\SOLDER~1\AppData\Local\Temp\ccLLkDzL.s:26901  .debug_str:00000000000222be .LASF4803
C:\Users\SOLDER~1\AppData\Local\Temp\ccLLkDzL.s:22341  .debug_str:000000000000fa14 .LASF4804
C:\Users\SOLDER~1\AppData\Local\Temp\ccLLkDzL.s:26507  .debug_str:000000000002099f .LASF4805
C:\Users\SOLDER~1\AppData\Local\Temp\ccLLkDzL.s:29473  .debug_str:000000000002cbd1 .LASF4806
GAS LISTING C:\Users\SOLDER~1\AppData\Local\Temp\ccLLkDzL.s 			page 98


C:\Users\SOLDER~1\AppData\Local\Temp\ccLLkDzL.s:20029  .debug_str:0000000000006234 .LASF4807
C:\Users\SOLDER~1\AppData\Local\Temp\ccLLkDzL.s:27495  .debug_str:0000000000024a1c .LASF4808
C:\Users\SOLDER~1\AppData\Local\Temp\ccLLkDzL.s:20735  .debug_str:00000000000090af .LASF4809
C:\Users\SOLDER~1\AppData\Local\Temp\ccLLkDzL.s:22357  .debug_str:000000000000fb5b .LASF4810
C:\Users\SOLDER~1\AppData\Local\Temp\ccLLkDzL.s:25187  .debug_str:000000000001b348 .LASF4811
C:\Users\SOLDER~1\AppData\Local\Temp\ccLLkDzL.s:29727  .debug_str:000000000002dc63 .LASF4812
C:\Users\SOLDER~1\AppData\Local\Temp\ccLLkDzL.s:29953  .debug_str:000000000002eb02 .LASF4813
C:\Users\SOLDER~1\AppData\Local\Temp\ccLLkDzL.s:20551  .debug_str:0000000000008475 .LASF4814
C:\Users\SOLDER~1\AppData\Local\Temp\ccLLkDzL.s:22649  .debug_str:0000000000010de8 .LASF4815
C:\Users\SOLDER~1\AppData\Local\Temp\ccLLkDzL.s:21723  .debug_str:000000000000d1ae .LASF4816
C:\Users\SOLDER~1\AppData\Local\Temp\ccLLkDzL.s:20677  .debug_str:0000000000008c9f .LASF4817
C:\Users\SOLDER~1\AppData\Local\Temp\ccLLkDzL.s:19315  .debug_str:000000000000349a .LASF4818
C:\Users\SOLDER~1\AppData\Local\Temp\ccLLkDzL.s:18513  .debug_str:0000000000000000 .LASF4819
C:\Users\SOLDER~1\AppData\Local\Temp\ccLLkDzL.s:26003  .debug_str:000000000001e8d0 .LASF4820
C:\Users\SOLDER~1\AppData\Local\Temp\ccLLkDzL.s:26653  .debug_str:0000000000021325 .LASF4821
C:\Users\SOLDER~1\AppData\Local\Temp\ccLLkDzL.s:29669  .debug_str:000000000002d89d .LASF4822
C:\Users\SOLDER~1\AppData\Local\Temp\ccLLkDzL.s:20711  .debug_str:0000000000008eff .LASF4823
C:\Users\SOLDER~1\AppData\Local\Temp\ccLLkDzL.s:19907  .debug_str:0000000000005a13 .LASF4824
C:\Users\SOLDER~1\AppData\Local\Temp\ccLLkDzL.s:18677  .debug_str:0000000000000b5d .LASF4825
C:\Users\SOLDER~1\AppData\Local\Temp\ccLLkDzL.s:27083  .debug_str:0000000000022edd .LASF4826
C:\Users\SOLDER~1\AppData\Local\Temp\ccLLkDzL.s:22063  .debug_str:000000000000e83b .LASF4827
C:\Users\SOLDER~1\AppData\Local\Temp\ccLLkDzL.s:24107  .debug_str:0000000000016d2d .LASF4828
C:\Users\SOLDER~1\AppData\Local\Temp\ccLLkDzL.s:24227  .debug_str:000000000001753a .LASF4829
C:\Users\SOLDER~1\AppData\Local\Temp\ccLLkDzL.s:21713  .debug_str:000000000000d103 .LASF4830
C:\Users\SOLDER~1\AppData\Local\Temp\ccLLkDzL.s:23605  .debug_str:0000000000014d5c .LASF4831
C:\Users\SOLDER~1\AppData\Local\Temp\ccLLkDzL.s:28223  .debug_str:0000000000027a30 .LASF4832
C:\Users\SOLDER~1\AppData\Local\Temp\ccLLkDzL.s:23791  .debug_str:0000000000015977 .LASF4833
C:\Users\SOLDER~1\AppData\Local\Temp\ccLLkDzL.s:19329  .debug_str:0000000000003565 .LASF4834
C:\Users\SOLDER~1\AppData\Local\Temp\ccLLkDzL.s:26141  .debug_str:000000000001f1d9 .LASF4835
C:\Users\SOLDER~1\AppData\Local\Temp\ccLLkDzL.s:23463  .debug_str:00000000000143ec .LASF4836
C:\Users\SOLDER~1\AppData\Local\Temp\ccLLkDzL.s:20587  .debug_str:00000000000086d6 .LASF4837
C:\Users\SOLDER~1\AppData\Local\Temp\ccLLkDzL.s:21969  .debug_str:000000000000e217 .LASF4838
C:\Users\SOLDER~1\AppData\Local\Temp\ccLLkDzL.s:26827  .debug_str:0000000000021e54 .LASF4839
C:\Users\SOLDER~1\AppData\Local\Temp\ccLLkDzL.s:26573  .debug_str:0000000000020de5 .LASF4840
C:\Users\SOLDER~1\AppData\Local\Temp\ccLLkDzL.s:25009  .debug_str:000000000001a7c8 .LASF4841
C:\Users\SOLDER~1\AppData\Local\Temp\ccLLkDzL.s:24049  .debug_str:00000000000169bc .LASF4842
C:\Users\SOLDER~1\AppData\Local\Temp\ccLLkDzL.s:19397  .debug_str:00000000000039d1 .LASF4843
C:\Users\SOLDER~1\AppData\Local\Temp\ccLLkDzL.s:24079  .debug_str:0000000000016b69 .LASF4844
C:\Users\SOLDER~1\AppData\Local\Temp\ccLLkDzL.s:28571  .debug_str:00000000000290e8 .LASF4845
C:\Users\SOLDER~1\AppData\Local\Temp\ccLLkDzL.s:21841  .debug_str:000000000000d93e .LASF4846
C:\Users\SOLDER~1\AppData\Local\Temp\ccLLkDzL.s:28355  .debug_str:000000000002830d .LASF4847
C:\Users\SOLDER~1\AppData\Local\Temp\ccLLkDzL.s:27991  .debug_str:0000000000026b3b .LASF4848
C:\Users\SOLDER~1\AppData\Local\Temp\ccLLkDzL.s:23273  .debug_str:000000000001366c .LASF4849
C:\Users\SOLDER~1\AppData\Local\Temp\ccLLkDzL.s:26409  .debug_str:0000000000020339 .LASF4850
C:\Users\SOLDER~1\AppData\Local\Temp\ccLLkDzL.s:24985  .debug_str:000000000001a651 .LASF4852
C:\Users\SOLDER~1\AppData\Local\Temp\ccLLkDzL.s:26881  .debug_str:0000000000022165 .LASF4853
C:\Users\SOLDER~1\AppData\Local\Temp\ccLLkDzL.s:19225  .debug_str:0000000000002ed9 .LASF4854
C:\Users\SOLDER~1\AppData\Local\Temp\ccLLkDzL.s:23063  .debug_str:0000000000012857 .LASF4855
C:\Users\SOLDER~1\AppData\Local\Temp\ccLLkDzL.s:21977  .debug_str:000000000000e297 .LASF4856
C:\Users\SOLDER~1\AppData\Local\Temp\ccLLkDzL.s:25197  .debug_str:000000000001b3d2 .LASF4857
C:\Users\SOLDER~1\AppData\Local\Temp\ccLLkDzL.s:20515  .debug_str:0000000000008223 .LASF4858
C:\Users\SOLDER~1\AppData\Local\Temp\ccLLkDzL.s:21109  .debug_str:000000000000a95d .LASF4859
C:\Users\SOLDER~1\AppData\Local\Temp\ccLLkDzL.s:29849  .debug_str:000000000002e431 .LASF4860
C:\Users\SOLDER~1\AppData\Local\Temp\ccLLkDzL.s:19411  .debug_str:0000000000003ac6 .LASF4861
C:\Users\SOLDER~1\AppData\Local\Temp\ccLLkDzL.s:27957  .debug_str:000000000002690b .LASF4862
C:\Users\SOLDER~1\AppData\Local\Temp\ccLLkDzL.s:26667  .debug_str:0000000000021424 .LASF4863
C:\Users\SOLDER~1\AppData\Local\Temp\ccLLkDzL.s:19543  .debug_str:0000000000004306 .LASF4864
GAS LISTING C:\Users\SOLDER~1\AppData\Local\Temp\ccLLkDzL.s 			page 99


C:\Users\SOLDER~1\AppData\Local\Temp\ccLLkDzL.s:26981  .debug_str:0000000000022832 .LASF4865
C:\Users\SOLDER~1\AppData\Local\Temp\ccLLkDzL.s:19379  .debug_str:00000000000038a5 .LASF4866
C:\Users\SOLDER~1\AppData\Local\Temp\ccLLkDzL.s:19563  .debug_str:000000000000444c .LASF4867
C:\Users\SOLDER~1\AppData\Local\Temp\ccLLkDzL.s:21965  .debug_str:000000000000e1ca .LASF4868
C:\Users\SOLDER~1\AppData\Local\Temp\ccLLkDzL.s:28227  .debug_str:0000000000027a70 .LASF4869
C:\Users\SOLDER~1\AppData\Local\Temp\ccLLkDzL.s:19587  .debug_str:00000000000045de .LASF4870
C:\Users\SOLDER~1\AppData\Local\Temp\ccLLkDzL.s:18653  .debug_str:00000000000009b8 .LASF4871
C:\Users\SOLDER~1\AppData\Local\Temp\ccLLkDzL.s:26085  .debug_str:000000000001ee04 .LASF4872
C:\Users\SOLDER~1\AppData\Local\Temp\ccLLkDzL.s:21325  .debug_str:000000000000b705 .LASF4873
C:\Users\SOLDER~1\AppData\Local\Temp\ccLLkDzL.s:27639  .debug_str:0000000000025325 .LASF4874
C:\Users\SOLDER~1\AppData\Local\Temp\ccLLkDzL.s:29629  .debug_str:000000000002d61b .LASF4875
C:\Users\SOLDER~1\AppData\Local\Temp\ccLLkDzL.s:19089  .debug_str:00000000000025f0 .LASF4876
C:\Users\SOLDER~1\AppData\Local\Temp\ccLLkDzL.s:19583  .debug_str:000000000000458e .LASF4877
C:\Users\SOLDER~1\AppData\Local\Temp\ccLLkDzL.s:26533  .debug_str:0000000000020b20 .LASF4878
C:\Users\SOLDER~1\AppData\Local\Temp\ccLLkDzL.s:28691  .debug_str:0000000000029894 .LASF4879
C:\Users\SOLDER~1\AppData\Local\Temp\ccLLkDzL.s:28211  .debug_str:000000000002795d .LASF4880
C:\Users\SOLDER~1\AppData\Local\Temp\ccLLkDzL.s:28031  .debug_str:0000000000026ded .LASF4881
C:\Users\SOLDER~1\AppData\Local\Temp\ccLLkDzL.s:28715  .debug_str:0000000000029a2f .LASF4882
C:\Users\SOLDER~1\AppData\Local\Temp\ccLLkDzL.s:23457  .debug_str:0000000000014386 .LASF4883
C:\Users\SOLDER~1\AppData\Local\Temp\ccLLkDzL.s:28775  .debug_str:0000000000029e5d .LASF4884
C:\Users\SOLDER~1\AppData\Local\Temp\ccLLkDzL.s:26331  .debug_str:000000000001fe1c .LASF4885
C:\Users\SOLDER~1\AppData\Local\Temp\ccLLkDzL.s:27407  .debug_str:0000000000024426 .LASF4886
C:\Users\SOLDER~1\AppData\Local\Temp\ccLLkDzL.s:23093  .debug_str:0000000000012a7d .LASF4887
C:\Users\SOLDER~1\AppData\Local\Temp\ccLLkDzL.s:18967  .debug_str:0000000000001e08 .LASF4888
C:\Users\SOLDER~1\AppData\Local\Temp\ccLLkDzL.s:19783  .debug_str:0000000000005204 .LASF4889
C:\Users\SOLDER~1\AppData\Local\Temp\ccLLkDzL.s:26693  .debug_str:00000000000215c7 .LASF4890
C:\Users\SOLDER~1\AppData\Local\Temp\ccLLkDzL.s:27919  .debug_str:0000000000026675 .LASF4891
C:\Users\SOLDER~1\AppData\Local\Temp\ccLLkDzL.s:22655  .debug_str:0000000000010e3d .LASF4892
C:\Users\SOLDER~1\AppData\Local\Temp\ccLLkDzL.s:25827  .debug_str:000000000001dd3d .LASF4893
C:\Users\SOLDER~1\AppData\Local\Temp\ccLLkDzL.s:25151  .debug_str:000000000001b0dc .LASF4894
C:\Users\SOLDER~1\AppData\Local\Temp\ccLLkDzL.s:22533  .debug_str:0000000000010673 .LASF4895
C:\Users\SOLDER~1\AppData\Local\Temp\ccLLkDzL.s:29437  .debug_str:000000000002c97e .LASF4896
C:\Users\SOLDER~1\AppData\Local\Temp\ccLLkDzL.s:27745  .debug_str:0000000000025a60 .LASF4897
C:\Users\SOLDER~1\AppData\Local\Temp\ccLLkDzL.s:21855  .debug_str:000000000000da0c .LASF4898
C:\Users\SOLDER~1\AppData\Local\Temp\ccLLkDzL.s:29691  .debug_str:000000000002da17 .LASF4899
C:\Users\SOLDER~1\AppData\Local\Temp\ccLLkDzL.s:20271  .debug_str:000000000000726c .LASF4900
C:\Users\SOLDER~1\AppData\Local\Temp\ccLLkDzL.s:24583  .debug_str:0000000000018ca0 .LASF4901
C:\Users\SOLDER~1\AppData\Local\Temp\ccLLkDzL.s:21589  .debug_str:000000000000c8e8 .LASF4902
C:\Users\SOLDER~1\AppData\Local\Temp\ccLLkDzL.s:27731  .debug_str:0000000000025983 .LASF4903
C:\Users\SOLDER~1\AppData\Local\Temp\ccLLkDzL.s:28117  .debug_str:0000000000027387 .LASF4904
C:\Users\SOLDER~1\AppData\Local\Temp\ccLLkDzL.s:25743  .debug_str:000000000001d77e .LASF4905
C:\Users\SOLDER~1\AppData\Local\Temp\ccLLkDzL.s:26205  .debug_str:000000000001f638 .LASF4906
C:\Users\SOLDER~1\AppData\Local\Temp\ccLLkDzL.s:26361  .debug_str:000000000001ffff .LASF4907
C:\Users\SOLDER~1\AppData\Local\Temp\ccLLkDzL.s:27517  .debug_str:0000000000024b74 .LASF4908
C:\Users\SOLDER~1\AppData\Local\Temp\ccLLkDzL.s:26885  .debug_str:00000000000221ab .LASF4909
C:\Users\SOLDER~1\AppData\Local\Temp\ccLLkDzL.s:20377  .debug_str:00000000000078f6 .LASF4910
C:\Users\SOLDER~1\AppData\Local\Temp\ccLLkDzL.s:21597  .debug_str:000000000000c975 .LASF4911
C:\Users\SOLDER~1\AppData\Local\Temp\ccLLkDzL.s:23825  .debug_str:0000000000015b95 .LASF4912
C:\Users\SOLDER~1\AppData\Local\Temp\ccLLkDzL.s:27455  .debug_str:0000000000024763 .LASF4913
C:\Users\SOLDER~1\AppData\Local\Temp\ccLLkDzL.s:28327  .debug_str:000000000002812f .LASF4914
C:\Users\SOLDER~1\AppData\Local\Temp\ccLLkDzL.s:22733  .debug_str:0000000000011360 .LASF4915
C:\Users\SOLDER~1\AppData\Local\Temp\ccLLkDzL.s:18691  .debug_str:0000000000000c4f .LASF4916
C:\Users\SOLDER~1\AppData\Local\Temp\ccLLkDzL.s:25019  .debug_str:000000000001a851 .LASF4917
C:\Users\SOLDER~1\AppData\Local\Temp\ccLLkDzL.s:27273  .debug_str:0000000000023b37 .LASF4918
C:\Users\SOLDER~1\AppData\Local\Temp\ccLLkDzL.s:27553  .debug_str:0000000000024dbe .LASF4919
C:\Users\SOLDER~1\AppData\Local\Temp\ccLLkDzL.s:23601  .debug_str:0000000000014d14 .LASF4920
C:\Users\SOLDER~1\AppData\Local\Temp\ccLLkDzL.s:27695  .debug_str:00000000000256ed .LASF4921
GAS LISTING C:\Users\SOLDER~1\AppData\Local\Temp\ccLLkDzL.s 			page 100


C:\Users\SOLDER~1\AppData\Local\Temp\ccLLkDzL.s:28509  .debug_str:0000000000028cec .LASF4922
C:\Users\SOLDER~1\AppData\Local\Temp\ccLLkDzL.s:21315  .debug_str:000000000000b66c .LASF4923
C:\Users\SOLDER~1\AppData\Local\Temp\ccLLkDzL.s:19505  .debug_str:00000000000040bb .LASF4924
C:\Users\SOLDER~1\AppData\Local\Temp\ccLLkDzL.s:25165  .debug_str:000000000001b1ce .LASF4925
C:\Users\SOLDER~1\AppData\Local\Temp\ccLLkDzL.s:26329  .debug_str:000000000001fdf9 .LASF4926
C:\Users\SOLDER~1\AppData\Local\Temp\ccLLkDzL.s:22889  .debug_str:0000000000011d41 .LASF4927
C:\Users\SOLDER~1\AppData\Local\Temp\ccLLkDzL.s:29853  .debug_str:000000000002e472 .LASF4928
C:\Users\SOLDER~1\AppData\Local\Temp\ccLLkDzL.s:22015  .debug_str:000000000000e4db .LASF4929
C:\Users\SOLDER~1\AppData\Local\Temp\ccLLkDzL.s:28717  .debug_str:0000000000029a5e .LASF4930
C:\Users\SOLDER~1\AppData\Local\Temp\ccLLkDzL.s:29529  .debug_str:000000000002cfce .LASF4931
C:\Users\SOLDER~1\AppData\Local\Temp\ccLLkDzL.s:25585  .debug_str:000000000001cd8d .LASF4932
C:\Users\SOLDER~1\AppData\Local\Temp\ccLLkDzL.s:29009  .debug_str:000000000002ad6e .LASF4933
C:\Users\SOLDER~1\AppData\Local\Temp\ccLLkDzL.s:25667  .debug_str:000000000001d315 .LASF4934
C:\Users\SOLDER~1\AppData\Local\Temp\ccLLkDzL.s:26305  .debug_str:000000000001fc6e .LASF4935
C:\Users\SOLDER~1\AppData\Local\Temp\ccLLkDzL.s:24595  .debug_str:0000000000018d69 .LASF4936
C:\Users\SOLDER~1\AppData\Local\Temp\ccLLkDzL.s:20385  .debug_str:0000000000007983 .LASF4937
C:\Users\SOLDER~1\AppData\Local\Temp\ccLLkDzL.s:24375  .debug_str:0000000000017f16 .LASF4938
C:\Users\SOLDER~1\AppData\Local\Temp\ccLLkDzL.s:22927  .debug_str:0000000000011fa1 .LASF4939
C:\Users\SOLDER~1\AppData\Local\Temp\ccLLkDzL.s:23957  .debug_str:00000000000163ff .LASF4940
C:\Users\SOLDER~1\AppData\Local\Temp\ccLLkDzL.s:25941  .debug_str:000000000001e463 .LASF4941
C:\Users\SOLDER~1\AppData\Local\Temp\ccLLkDzL.s:27573  .debug_str:0000000000024f25 .LASF4942
C:\Users\SOLDER~1\AppData\Local\Temp\ccLLkDzL.s:27003  .debug_str:00000000000229c8 .LASF4943
C:\Users\SOLDER~1\AppData\Local\Temp\ccLLkDzL.s:26437  .debug_str:0000000000020501 .LASF4944
C:\Users\SOLDER~1\AppData\Local\Temp\ccLLkDzL.s:26727  .debug_str:00000000000217f7 .LASF4945
C:\Users\SOLDER~1\AppData\Local\Temp\ccLLkDzL.s:22037  .debug_str:000000000000e655 .LASF4946
C:\Users\SOLDER~1\AppData\Local\Temp\ccLLkDzL.s:23087  .debug_str:00000000000129fa .LASF4947
C:\Users\SOLDER~1\AppData\Local\Temp\ccLLkDzL.s:22965  .debug_str:00000000000121ff .LASF4948
C:\Users\SOLDER~1\AppData\Local\Temp\ccLLkDzL.s:21717  .debug_str:000000000000d142 .LASF4949
C:\Users\SOLDER~1\AppData\Local\Temp\ccLLkDzL.s:28425  .debug_str:000000000002879a .LASF4950
C:\Users\SOLDER~1\AppData\Local\Temp\ccLLkDzL.s:19049  .debug_str:0000000000002374 .LASF4951
C:\Users\SOLDER~1\AppData\Local\Temp\ccLLkDzL.s:28297  .debug_str:0000000000027f4e .LASF4952
C:\Users\SOLDER~1\AppData\Local\Temp\ccLLkDzL.s:23673  .debug_str:00000000000151bf .LASF4953
C:\Users\SOLDER~1\AppData\Local\Temp\ccLLkDzL.s:21329  .debug_str:000000000000b757 .LASF4954
C:\Users\SOLDER~1\AppData\Local\Temp\ccLLkDzL.s:22433  .debug_str:0000000000010028 .LASF4955
C:\Users\SOLDER~1\AppData\Local\Temp\ccLLkDzL.s:29583  .debug_str:000000000002d348 .LASF4956
C:\Users\SOLDER~1\AppData\Local\Temp\ccLLkDzL.s:23629  .debug_str:0000000000014ede .LASF4957
C:\Users\SOLDER~1\AppData\Local\Temp\ccLLkDzL.s:20041  .debug_str:0000000000006314 .LASF4958
C:\Users\SOLDER~1\AppData\Local\Temp\ccLLkDzL.s:25727  .debug_str:000000000001d6b3 .LASF4959
C:\Users\SOLDER~1\AppData\Local\Temp\ccLLkDzL.s:20911  .debug_str:0000000000009c05 .LASF4960
C:\Users\SOLDER~1\AppData\Local\Temp\ccLLkDzL.s:24949  .debug_str:000000000001a3c9 .LASF4961
C:\Users\SOLDER~1\AppData\Local\Temp\ccLLkDzL.s:22467  .debug_str:0000000000010269 .LASF4962
C:\Users\SOLDER~1\AppData\Local\Temp\ccLLkDzL.s:20901  .debug_str:0000000000009b5f .LASF4963
C:\Users\SOLDER~1\AppData\Local\Temp\ccLLkDzL.s:23931  .debug_str:0000000000016269 .LASF4964
C:\Users\SOLDER~1\AppData\Local\Temp\ccLLkDzL.s:21231  .debug_str:000000000000b0f4 .LASF4965
C:\Users\SOLDER~1\AppData\Local\Temp\ccLLkDzL.s:18861  .debug_str:000000000000174a .LASF4966
C:\Users\SOLDER~1\AppData\Local\Temp\ccLLkDzL.s:21043  .debug_str:000000000000a4c0 .LASF4967
C:\Users\SOLDER~1\AppData\Local\Temp\ccLLkDzL.s:21437  .debug_str:000000000000be6a .LASF4968
C:\Users\SOLDER~1\AppData\Local\Temp\ccLLkDzL.s:27555  .debug_str:0000000000024de1 .LASF4969
C:\Users\SOLDER~1\AppData\Local\Temp\ccLLkDzL.s:24541  .debug_str:00000000000189aa .LASF4970
C:\Users\SOLDER~1\AppData\Local\Temp\ccLLkDzL.s:24997  .debug_str:000000000001a714 .LASF4971
C:\Users\SOLDER~1\AppData\Local\Temp\ccLLkDzL.s:19577  .debug_str:0000000000004533 .LASF4972
C:\Users\SOLDER~1\AppData\Local\Temp\ccLLkDzL.s:26167  .debug_str:000000000001f398 .LASF4973
C:\Users\SOLDER~1\AppData\Local\Temp\ccLLkDzL.s:22841  .debug_str:0000000000011a4d .LASF4974
C:\Users\SOLDER~1\AppData\Local\Temp\ccLLkDzL.s:18813  .debug_str:0000000000001421 .LASF4975
C:\Users\SOLDER~1\AppData\Local\Temp\ccLLkDzL.s:19381  .debug_str:00000000000038cd .LASF4976
C:\Users\SOLDER~1\AppData\Local\Temp\ccLLkDzL.s:22665  .debug_str:0000000000010ef3 .LASF4977
C:\Users\SOLDER~1\AppData\Local\Temp\ccLLkDzL.s:19149  .debug_str:0000000000002a04 .LASF4978
GAS LISTING C:\Users\SOLDER~1\AppData\Local\Temp\ccLLkDzL.s 			page 101


C:\Users\SOLDER~1\AppData\Local\Temp\ccLLkDzL.s:20051  .debug_str:00000000000063c8 .LASF4979
C:\Users\SOLDER~1\AppData\Local\Temp\ccLLkDzL.s:25465  .debug_str:000000000001c566 .LASF4980
C:\Users\SOLDER~1\AppData\Local\Temp\ccLLkDzL.s:29979  .debug_str:000000000002ec9a .LASF4981
C:\Users\SOLDER~1\AppData\Local\Temp\ccLLkDzL.s:29929  .debug_str:000000000002e99c .LASF4982
C:\Users\SOLDER~1\AppData\Local\Temp\ccLLkDzL.s:28865  .debug_str:000000000002a46c .LASF4983
C:\Users\SOLDER~1\AppData\Local\Temp\ccLLkDzL.s:26185  .debug_str:000000000001f4f0 .LASF4984
C:\Users\SOLDER~1\AppData\Local\Temp\ccLLkDzL.s:20789  .debug_str:000000000000946b .LASF4985
C:\Users\SOLDER~1\AppData\Local\Temp\ccLLkDzL.s:26491  .debug_str:0000000000020884 .LASF4986
C:\Users\SOLDER~1\AppData\Local\Temp\ccLLkDzL.s:26995  .debug_str:0000000000022930 .LASF4987
C:\Users\SOLDER~1\AppData\Local\Temp\ccLLkDzL.s:28617  .debug_str:0000000000029415 .LASF4988
C:\Users\SOLDER~1\AppData\Local\Temp\ccLLkDzL.s:23185  .debug_str:0000000000013076 .LASF4989
C:\Users\SOLDER~1\AppData\Local\Temp\ccLLkDzL.s:24283  .debug_str:00000000000178cf .LASF4990
C:\Users\SOLDER~1\AppData\Local\Temp\ccLLkDzL.s:19245  .debug_str:0000000000002ffe .LASF4991
C:\Users\SOLDER~1\AppData\Local\Temp\ccLLkDzL.s:27021  .debug_str:0000000000022af7 .LASF4992
C:\Users\SOLDER~1\AppData\Local\Temp\ccLLkDzL.s:28959  .debug_str:000000000002aa5f .LASF4993
C:\Users\SOLDER~1\AppData\Local\Temp\ccLLkDzL.s:27315  .debug_str:0000000000023dfa .LASF4994
C:\Users\SOLDER~1\AppData\Local\Temp\ccLLkDzL.s:22893  .debug_str:0000000000011d7b .LASF4995
C:\Users\SOLDER~1\AppData\Local\Temp\ccLLkDzL.s:27377  .debug_str:0000000000024219 .LASF4996
C:\Users\SOLDER~1\AppData\Local\Temp\ccLLkDzL.s:29125  .debug_str:000000000002b547 .LASF4997
C:\Users\SOLDER~1\AppData\Local\Temp\ccLLkDzL.s:23351  .debug_str:0000000000013c3f .LASF4998
C:\Users\SOLDER~1\AppData\Local\Temp\ccLLkDzL.s:20981  .debug_str:000000000000a0cc .LASF4999
C:\Users\SOLDER~1\AppData\Local\Temp\ccLLkDzL.s:28123  .debug_str:00000000000273e1 .LASF5000
C:\Users\SOLDER~1\AppData\Local\Temp\ccLLkDzL.s:27699  .debug_str:0000000000025743 .LASF5001
C:\Users\SOLDER~1\AppData\Local\Temp\ccLLkDzL.s:26955  .debug_str:0000000000022665 .LASF5002
C:\Users\SOLDER~1\AppData\Local\Temp\ccLLkDzL.s:25389  .debug_str:000000000001c030 .LASF5003
C:\Users\SOLDER~1\AppData\Local\Temp\ccLLkDzL.s:22379  .debug_str:000000000000fccc .LASF5004
C:\Users\SOLDER~1\AppData\Local\Temp\ccLLkDzL.s:27139  .debug_str:00000000000232a4 .LASF5005
C:\Users\SOLDER~1\AppData\Local\Temp\ccLLkDzL.s:28229  .debug_str:0000000000027a98 .LASF5006
C:\Users\SOLDER~1\AppData\Local\Temp\ccLLkDzL.s:25971  .debug_str:000000000001e687 .LASF5007
C:\Users\SOLDER~1\AppData\Local\Temp\ccLLkDzL.s:24231  .debug_str:0000000000017581 .LASF5008
C:\Users\SOLDER~1\AppData\Local\Temp\ccLLkDzL.s:23837  .debug_str:0000000000015c48 .LASF5009
C:\Users\SOLDER~1\AppData\Local\Temp\ccLLkDzL.s:27447  .debug_str:00000000000246be .LASF5010
C:\Users\SOLDER~1\AppData\Local\Temp\ccLLkDzL.s:28303  .debug_str:0000000000027fb7 .LASF5011
C:\Users\SOLDER~1\AppData\Local\Temp\ccLLkDzL.s:23417  .debug_str:00000000000140b7 .LASF5012
C:\Users\SOLDER~1\AppData\Local\Temp\ccLLkDzL.s:21687  .debug_str:000000000000cf5c .LASF5013
C:\Users\SOLDER~1\AppData\Local\Temp\ccLLkDzL.s:28679  .debug_str:00000000000297de .LASF5014
C:\Users\SOLDER~1\AppData\Local\Temp\ccLLkDzL.s:23379  .debug_str:0000000000013e28 .LASF5015
C:\Users\SOLDER~1\AppData\Local\Temp\ccLLkDzL.s:27319  .debug_str:0000000000023e4d .LASF5016
C:\Users\SOLDER~1\AppData\Local\Temp\ccLLkDzL.s:23459  .debug_str:00000000000143b9 .LASF5017
C:\Users\SOLDER~1\AppData\Local\Temp\ccLLkDzL.s:24121  .debug_str:0000000000016e20 .LASF5018
C:\Users\SOLDER~1\AppData\Local\Temp\ccLLkDzL.s:23711  .debug_str:000000000001545c .LASF5019
C:\Users\SOLDER~1\AppData\Local\Temp\ccLLkDzL.s:24783  .debug_str:0000000000019960 .LASF5020
C:\Users\SOLDER~1\AppData\Local\Temp\ccLLkDzL.s:21567  .debug_str:000000000000c754 .LASF5021
C:\Users\SOLDER~1\AppData\Local\Temp\ccLLkDzL.s:28057  .debug_str:0000000000026f98 .LASF5022
C:\Users\SOLDER~1\AppData\Local\Temp\ccLLkDzL.s:29085  .debug_str:000000000002b2ad .LASF5023
C:\Users\SOLDER~1\AppData\Local\Temp\ccLLkDzL.s:26381  .debug_str:0000000000020148 .LASF5024
C:\Users\SOLDER~1\AppData\Local\Temp\ccLLkDzL.s:23177  .debug_str:0000000000012fd9 .LASF5025
C:\Users\SOLDER~1\AppData\Local\Temp\ccLLkDzL.s:22885  .debug_str:0000000000011cf2 .LASF5026
C:\Users\SOLDER~1\AppData\Local\Temp\ccLLkDzL.s:26373  .debug_str:00000000000200c3 .LASF5027
C:\Users\SOLDER~1\AppData\Local\Temp\ccLLkDzL.s:23517  .debug_str:0000000000014774 .LASF5028
C:\Users\SOLDER~1\AppData\Local\Temp\ccLLkDzL.s:25073  .debug_str:000000000001ac1f .LASF5029
C:\Users\SOLDER~1\AppData\Local\Temp\ccLLkDzL.s:22413  .debug_str:000000000000ff0b .LASF5030
C:\Users\SOLDER~1\AppData\Local\Temp\ccLLkDzL.s:27951  .debug_str:0000000000026896 .LASF5031
C:\Users\SOLDER~1\AppData\Local\Temp\ccLLkDzL.s:26177  .debug_str:000000000001f46e .LASF5032
C:\Users\SOLDER~1\AppData\Local\Temp\ccLLkDzL.s:19041  .debug_str:00000000000022da .LASF5033
C:\Users\SOLDER~1\AppData\Local\Temp\ccLLkDzL.s:18801  .debug_str:0000000000001352 .LASF5034
C:\Users\SOLDER~1\AppData\Local\Temp\ccLLkDzL.s:19887  .debug_str:00000000000058c6 .LASF5035
GAS LISTING C:\Users\SOLDER~1\AppData\Local\Temp\ccLLkDzL.s 			page 102


C:\Users\SOLDER~1\AppData\Local\Temp\ccLLkDzL.s:22431  .debug_str:000000000001000a .LASF5036
C:\Users\SOLDER~1\AppData\Local\Temp\ccLLkDzL.s:22943  .debug_str:00000000000120b0 .LASF5037
C:\Users\SOLDER~1\AppData\Local\Temp\ccLLkDzL.s:28449  .debug_str:0000000000028931 .LASF5038
C:\Users\SOLDER~1\AppData\Local\Temp\ccLLkDzL.s:25235  .debug_str:000000000001b628 .LASF5039
C:\Users\SOLDER~1\AppData\Local\Temp\ccLLkDzL.s:23199  .debug_str:0000000000013188 .LASF5040
C:\Users\SOLDER~1\AppData\Local\Temp\ccLLkDzL.s:26701  .debug_str:0000000000021634 .LASF5041
C:\Users\SOLDER~1\AppData\Local\Temp\ccLLkDzL.s:24443  .debug_str:0000000000018343 .LASF5042
C:\Users\SOLDER~1\AppData\Local\Temp\ccLLkDzL.s:26211  .debug_str:000000000001f6aa .LASF5043
C:\Users\SOLDER~1\AppData\Local\Temp\ccLLkDzL.s:24493  .debug_str:000000000001868f .LASF5044
C:\Users\SOLDER~1\AppData\Local\Temp\ccLLkDzL.s:23245  .debug_str:00000000000134aa .LASF5045
C:\Users\SOLDER~1\AppData\Local\Temp\ccLLkDzL.s:20795  .debug_str:00000000000094cd .LASF5046
C:\Users\SOLDER~1\AppData\Local\Temp\ccLLkDzL.s:27261  .debug_str:0000000000023a71 .LASF5047
C:\Users\SOLDER~1\AppData\Local\Temp\ccLLkDzL.s:28399  .debug_str:00000000000285f6 .LASF5048
C:\Users\SOLDER~1\AppData\Local\Temp\ccLLkDzL.s:26615  .debug_str:00000000000210d0 .LASF5049
C:\Users\SOLDER~1\AppData\Local\Temp\ccLLkDzL.s:26613  .debug_str:00000000000210b1 .LASF5050
C:\Users\SOLDER~1\AppData\Local\Temp\ccLLkDzL.s:18705  .debug_str:0000000000000d60 .LASF5051
C:\Users\SOLDER~1\AppData\Local\Temp\ccLLkDzL.s:29985  .debug_str:000000000002ecf3 .LASF5052
C:\Users\SOLDER~1\AppData\Local\Temp\ccLLkDzL.s:25569  .debug_str:000000000001cc8d .LASF5053
C:\Users\SOLDER~1\AppData\Local\Temp\ccLLkDzL.s:20929  .debug_str:0000000000009d47 .LASF5054
C:\Users\SOLDER~1\AppData\Local\Temp\ccLLkDzL.s:23211  .debug_str:0000000000013236 .LASF5055
C:\Users\SOLDER~1\AppData\Local\Temp\ccLLkDzL.s:29211  .debug_str:000000000002babd .LASF5056
C:\Users\SOLDER~1\AppData\Local\Temp\ccLLkDzL.s:20973  .debug_str:000000000000a036 .LASF5057
C:\Users\SOLDER~1\AppData\Local\Temp\ccLLkDzL.s:22859  .debug_str:0000000000011b82 .LASF5058
C:\Users\SOLDER~1\AppData\Local\Temp\ccLLkDzL.s:28747  .debug_str:0000000000029c86 .LASF5059
C:\Users\SOLDER~1\AppData\Local\Temp\ccLLkDzL.s:23353  .debug_str:0000000000013c6d .LASF5060
C:\Users\SOLDER~1\AppData\Local\Temp\ccLLkDzL.s:18889  .debug_str:00000000000018b5 .LASF5061
C:\Users\SOLDER~1\AppData\Local\Temp\ccLLkDzL.s:24009  .debug_str:000000000001671a .LASF5062
C:\Users\SOLDER~1\AppData\Local\Temp\ccLLkDzL.s:21927  .debug_str:000000000000deea .LASF5063
C:\Users\SOLDER~1\AppData\Local\Temp\ccLLkDzL.s:21225  .debug_str:000000000000b089 .LASF5064
C:\Users\SOLDER~1\AppData\Local\Temp\ccLLkDzL.s:21571  .debug_str:000000000000c799 .LASF5065
C:\Users\SOLDER~1\AppData\Local\Temp\ccLLkDzL.s:18645  .debug_str:000000000000092d .LASF5066
C:\Users\SOLDER~1\AppData\Local\Temp\ccLLkDzL.s:27457  .debug_str:0000000000024786 .LASF5067
C:\Users\SOLDER~1\AppData\Local\Temp\ccLLkDzL.s:19211  .debug_str:0000000000002dc1 .LASF5068
C:\Users\SOLDER~1\AppData\Local\Temp\ccLLkDzL.s:21111  .debug_str:000000000000a98e .LASF5069
C:\Users\SOLDER~1\AppData\Local\Temp\ccLLkDzL.s:20429  .debug_str:0000000000007c6f .LASF5070
C:\Users\SOLDER~1\AppData\Local\Temp\ccLLkDzL.s:22741  .debug_str:00000000000113fc .LASF5071
C:\Users\SOLDER~1\AppData\Local\Temp\ccLLkDzL.s:25311  .debug_str:000000000001bada .LASF5072
C:\Users\SOLDER~1\AppData\Local\Temp\ccLLkDzL.s:21375  .debug_str:000000000000ba6f .LASF5073
C:\Users\SOLDER~1\AppData\Local\Temp\ccLLkDzL.s:23281  .debug_str:0000000000013702 .LASF5074
C:\Users\SOLDER~1\AppData\Local\Temp\ccLLkDzL.s:20675  .debug_str:0000000000008c79 .LASF5075
C:\Users\SOLDER~1\AppData\Local\Temp\ccLLkDzL.s:28291  .debug_str:0000000000027edb .LASF5076
C:\Users\SOLDER~1\AppData\Local\Temp\ccLLkDzL.s:22839  .debug_str:0000000000011a1e .LASF5077
C:\Users\SOLDER~1\AppData\Local\Temp\ccLLkDzL.s:20285  .debug_str:000000000000734f .LASF5078
C:\Users\SOLDER~1\AppData\Local\Temp\ccLLkDzL.s:18935  .debug_str:0000000000001bdd .LASF5079
C:\Users\SOLDER~1\AppData\Local\Temp\ccLLkDzL.s:27025  .debug_str:0000000000022b32 .LASF5080
C:\Users\SOLDER~1\AppData\Local\Temp\ccLLkDzL.s:22795  .debug_str:000000000001174a .LASF5081
C:\Users\SOLDER~1\AppData\Local\Temp\ccLLkDzL.s:20759  .debug_str:0000000000009244 .LASF5082
C:\Users\SOLDER~1\AppData\Local\Temp\ccLLkDzL.s:20485  .debug_str:0000000000008021 .LASF5083
C:\Users\SOLDER~1\AppData\Local\Temp\ccLLkDzL.s:25635  .debug_str:000000000001d0e8 .LASF5084
C:\Users\SOLDER~1\AppData\Local\Temp\ccLLkDzL.s:27863  .debug_str:00000000000262bb .LASF5085
C:\Users\SOLDER~1\AppData\Local\Temp\ccLLkDzL.s:29905  .debug_str:000000000002e7fd .LASF5086
C:\Users\SOLDER~1\AppData\Local\Temp\ccLLkDzL.s:21275  .debug_str:000000000000b400 .LASF5087
C:\Users\SOLDER~1\AppData\Local\Temp\ccLLkDzL.s:20931  .debug_str:0000000000009d6e .LASF5088
C:\Users\SOLDER~1\AppData\Local\Temp\ccLLkDzL.s:20649  .debug_str:0000000000008abc .LASF5089
C:\Users\SOLDER~1\AppData\Local\Temp\ccLLkDzL.s:27241  .debug_str:000000000002391c .LASF5090
C:\Users\SOLDER~1\AppData\Local\Temp\ccLLkDzL.s:20927  .debug_str:0000000000009d1a .LASF5091
C:\Users\SOLDER~1\AppData\Local\Temp\ccLLkDzL.s:25133  .debug_str:000000000001afb5 .LASF5092
GAS LISTING C:\Users\SOLDER~1\AppData\Local\Temp\ccLLkDzL.s 			page 103


C:\Users\SOLDER~1\AppData\Local\Temp\ccLLkDzL.s:21379  .debug_str:000000000000babe .LASF5093
C:\Users\SOLDER~1\AppData\Local\Temp\ccLLkDzL.s:20741  .debug_str:000000000000912e .LASF5094
C:\Users\SOLDER~1\AppData\Local\Temp\ccLLkDzL.s:28273  .debug_str:0000000000027d9e .LASF5095
C:\Users\SOLDER~1\AppData\Local\Temp\ccLLkDzL.s:23477  .debug_str:00000000000144de .LASF5096
C:\Users\SOLDER~1\AppData\Local\Temp\ccLLkDzL.s:28415  .debug_str:0000000000028712 .LASF5097
C:\Users\SOLDER~1\AppData\Local\Temp\ccLLkDzL.s:25155  .debug_str:000000000001b122 .LASF5098
C:\Users\SOLDER~1\AppData\Local\Temp\ccLLkDzL.s:20487  .debug_str:000000000000804f .LASF5099
C:\Users\SOLDER~1\AppData\Local\Temp\ccLLkDzL.s:22111  .debug_str:000000000000eb07 .LASF5100
C:\Users\SOLDER~1\AppData\Local\Temp\ccLLkDzL.s:18699  .debug_str:0000000000000ce1 .LASF5101
C:\Users\SOLDER~1\AppData\Local\Temp\ccLLkDzL.s:25253  .debug_str:000000000001b708 .LASF5102
C:\Users\SOLDER~1\AppData\Local\Temp\ccLLkDzL.s:27325  .debug_str:0000000000023e9d .LASF5103
C:\Users\SOLDER~1\AppData\Local\Temp\ccLLkDzL.s:18885  .debug_str:000000000000188b .LASF5104
C:\Users\SOLDER~1\AppData\Local\Temp\ccLLkDzL.s:26237  .debug_str:000000000001f83f .LASF5105
C:\Users\SOLDER~1\AppData\Local\Temp\ccLLkDzL.s:19407  .debug_str:0000000000003a7b .LASF5106
C:\Users\SOLDER~1\AppData\Local\Temp\ccLLkDzL.s:19333  .debug_str:00000000000035a2 .LASF5107
C:\Users\SOLDER~1\AppData\Local\Temp\ccLLkDzL.s:27707  .debug_str:00000000000257e3 .LASF5108
C:\Users\SOLDER~1\AppData\Local\Temp\ccLLkDzL.s:25503  .debug_str:000000000001c7e7 .LASF5109
C:\Users\SOLDER~1\AppData\Local\Temp\ccLLkDzL.s:22941  .debug_str:0000000000012090 .LASF5110
C:\Users\SOLDER~1\AppData\Local\Temp\ccLLkDzL.s:28485  .debug_str:0000000000028b6e .LASF5111
C:\Users\SOLDER~1\AppData\Local\Temp\ccLLkDzL.s:22473  .debug_str:00000000000102de .LASF5112
C:\Users\SOLDER~1\AppData\Local\Temp\ccLLkDzL.s:20153  .debug_str:0000000000006a86 .LASF5113
C:\Users\SOLDER~1\AppData\Local\Temp\ccLLkDzL.s:25067  .debug_str:000000000001abc0 .LASF5114
C:\Users\SOLDER~1\AppData\Local\Temp\ccLLkDzL.s:21341  .debug_str:000000000000b82f .LASF5115
C:\Users\SOLDER~1\AppData\Local\Temp\ccLLkDzL.s:25257  .debug_str:000000000001b755 .LASF5116
C:\Users\SOLDER~1\AppData\Local\Temp\ccLLkDzL.s:22237  .debug_str:000000000000f30c .LASF5117
C:\Users\SOLDER~1\AppData\Local\Temp\ccLLkDzL.s:22451  .debug_str:0000000000010147 .LASF5118
C:\Users\SOLDER~1\AppData\Local\Temp\ccLLkDzL.s:22199  .debug_str:000000000000f09e .LASF5119
C:\Users\SOLDER~1\AppData\Local\Temp\ccLLkDzL.s:29975  .debug_str:000000000002ec55 .LASF5120
C:\Users\SOLDER~1\AppData\Local\Temp\ccLLkDzL.s:21669  .debug_str:000000000000ce13 .LASF5121
C:\Users\SOLDER~1\AppData\Local\Temp\ccLLkDzL.s:22345  .debug_str:000000000000fa63 .LASF5122
C:\Users\SOLDER~1\AppData\Local\Temp\ccLLkDzL.s:19497  .debug_str:000000000000401d .LASF5123
C:\Users\SOLDER~1\AppData\Local\Temp\ccLLkDzL.s:28083  .debug_str:000000000002714c .LASF5124
C:\Users\SOLDER~1\AppData\Local\Temp\ccLLkDzL.s:29143  .debug_str:000000000002b676 .LASF5125
C:\Users\SOLDER~1\AppData\Local\Temp\ccLLkDzL.s:19915  .debug_str:0000000000005aa7 .LASF5126
C:\Users\SOLDER~1\AppData\Local\Temp\ccLLkDzL.s:24343  .debug_str:0000000000017ccd .LASF5127
C:\Users\SOLDER~1\AppData\Local\Temp\ccLLkDzL.s:25097  .debug_str:000000000001adad .LASF5128
C:\Users\SOLDER~1\AppData\Local\Temp\ccLLkDzL.s:24095  .debug_str:0000000000016c57 .LASF5129
C:\Users\SOLDER~1\AppData\Local\Temp\ccLLkDzL.s:24411  .debug_str:000000000001815c .LASF5130
C:\Users\SOLDER~1\AppData\Local\Temp\ccLLkDzL.s:23099  .debug_str:0000000000012af7 .LASF5131
C:\Users\SOLDER~1\AppData\Local\Temp\ccLLkDzL.s:28663  .debug_str:00000000000296fb .LASF5132
C:\Users\SOLDER~1\AppData\Local\Temp\ccLLkDzL.s:26743  .debug_str:0000000000021902 .LASF5133
C:\Users\SOLDER~1\AppData\Local\Temp\ccLLkDzL.s:26777  .debug_str:0000000000021b0e .LASF5134
C:\Users\SOLDER~1\AppData\Local\Temp\ccLLkDzL.s:28081  .debug_str:000000000002711b .LASF5135
C:\Users\SOLDER~1\AppData\Local\Temp\ccLLkDzL.s:29959  .debug_str:000000000002eb64 .LASF5136
C:\Users\SOLDER~1\AppData\Local\Temp\ccLLkDzL.s:29891  .debug_str:000000000002e718 .LASF5137
C:\Users\SOLDER~1\AppData\Local\Temp\ccLLkDzL.s:24057  .debug_str:0000000000016a39 .LASF5138
C:\Users\SOLDER~1\AppData\Local\Temp\ccLLkDzL.s:23471  .debug_str:0000000000014477 .LASF5139
C:\Users\SOLDER~1\AppData\Local\Temp\ccLLkDzL.s:23311  .debug_str:0000000000013974 .LASF5140
C:\Users\SOLDER~1\AppData\Local\Temp\ccLLkDzL.s:28131  .debug_str:0000000000027474 .LASF5141
C:\Users\SOLDER~1\AppData\Local\Temp\ccLLkDzL.s:24355  .debug_str:0000000000017dae .LASF5142
C:\Users\SOLDER~1\AppData\Local\Temp\ccLLkDzL.s:18823  .debug_str:00000000000014d8 .LASF5143
C:\Users\SOLDER~1\AppData\Local\Temp\ccLLkDzL.s:26455  .debug_str:0000000000020634 .LASF5144
C:\Users\SOLDER~1\AppData\Local\Temp\ccLLkDzL.s:26239  .debug_str:000000000001f864 .LASF5145
C:\Users\SOLDER~1\AppData\Local\Temp\ccLLkDzL.s:21185  .debug_str:000000000000ae3a .LASF5146
C:\Users\SOLDER~1\AppData\Local\Temp\ccLLkDzL.s:28017  .debug_str:0000000000026cf5 .LASF5147
C:\Users\SOLDER~1\AppData\Local\Temp\ccLLkDzL.s:26917  .debug_str:00000000000223d8 .LASF5148
C:\Users\SOLDER~1\AppData\Local\Temp\ccLLkDzL.s:23655  .debug_str:000000000001509e .LASF5149
GAS LISTING C:\Users\SOLDER~1\AppData\Local\Temp\ccLLkDzL.s 			page 104


C:\Users\SOLDER~1\AppData\Local\Temp\ccLLkDzL.s:27771  .debug_str:0000000000025c3c .LASF5150
C:\Users\SOLDER~1\AppData\Local\Temp\ccLLkDzL.s:22699  .debug_str:000000000001110c .LASF5151
C:\Users\SOLDER~1\AppData\Local\Temp\ccLLkDzL.s:29657  .debug_str:000000000002d7f0 .LASF5152
C:\Users\SOLDER~1\AppData\Local\Temp\ccLLkDzL.s:26181  .debug_str:000000000001f4ae .LASF5153
C:\Users\SOLDER~1\AppData\Local\Temp\ccLLkDzL.s:27047  .debug_str:0000000000022ca0 .LASF5154
C:\Users\SOLDER~1\AppData\Local\Temp\ccLLkDzL.s:28549  .debug_str:0000000000028f6a .LASF5155
C:\Users\SOLDER~1\AppData\Local\Temp\ccLLkDzL.s:24631  .debug_str:0000000000018fac .LASF5156
C:\Users\SOLDER~1\AppData\Local\Temp\ccLLkDzL.s:25381  .debug_str:000000000001bfa1 .LASF5157
C:\Users\SOLDER~1\AppData\Local\Temp\ccLLkDzL.s:20681  .debug_str:0000000000008ce9 .LASF5158
C:\Users\SOLDER~1\AppData\Local\Temp\ccLLkDzL.s:26233  .debug_str:000000000001f7f7 .LASF5159
C:\Users\SOLDER~1\AppData\Local\Temp\ccLLkDzL.s:28393  .debug_str:0000000000028585 .LASF5160
C:\Users\SOLDER~1\AppData\Local\Temp\ccLLkDzL.s:26595  .debug_str:0000000000020f7f .LASF5161
C:\Users\SOLDER~1\AppData\Local\Temp\ccLLkDzL.s:18797  .debug_str:00000000000012f9 .LASF5162
C:\Users\SOLDER~1\AppData\Local\Temp\ccLLkDzL.s:18517  .debug_str:0000000000000048 .LASF5163
C:\Users\SOLDER~1\AppData\Local\Temp\ccLLkDzL.s:25237  .debug_str:000000000001b646 .LASF5164
C:\Users\SOLDER~1\AppData\Local\Temp\ccLLkDzL.s:29623  .debug_str:000000000002d5b2 .LASF5165
C:\Users\SOLDER~1\AppData\Local\Temp\ccLLkDzL.s:18545  .debug_str:00000000000001f5 .LASF5166
C:\Users\SOLDER~1\AppData\Local\Temp\ccLLkDzL.s:20903  .debug_str:0000000000009b7e .LASF5167
C:\Users\SOLDER~1\AppData\Local\Temp\ccLLkDzL.s:29999  .debug_str:000000000002edce .LASF5168
C:\Users\SOLDER~1\AppData\Local\Temp\ccLLkDzL.s:22909  .debug_str:0000000000011e7e .LASF5169
C:\Users\SOLDER~1\AppData\Local\Temp\ccLLkDzL.s:24543  .debug_str:00000000000189c9 .LASF5170
C:\Users\SOLDER~1\AppData\Local\Temp\ccLLkDzL.s:20431  .debug_str:0000000000007c9d .LASF5171
C:\Users\SOLDER~1\AppData\Local\Temp\ccLLkDzL.s:20441  .debug_str:0000000000007d3f .LASF5172
C:\Users\SOLDER~1\AppData\Local\Temp\ccLLkDzL.s:26025  .debug_str:000000000001ea32 .LASF5173
C:\Users\SOLDER~1\AppData\Local\Temp\ccLLkDzL.s:29617  .debug_str:000000000002d548 .LASF5174
C:\Users\SOLDER~1\AppData\Local\Temp\ccLLkDzL.s:22605  .debug_str:0000000000010b09 .LASF5175
C:\Users\SOLDER~1\AppData\Local\Temp\ccLLkDzL.s:20747  .debug_str:000000000000919a .LASF5176
C:\Users\SOLDER~1\AppData\Local\Temp\ccLLkDzL.s:23355  .debug_str:0000000000013c98 .LASF5177
C:\Users\SOLDER~1\AppData\Local\Temp\ccLLkDzL.s:26427  .debug_str:0000000000020447 .LASF5178
C:\Users\SOLDER~1\AppData\Local\Temp\ccLLkDzL.s:23935  .debug_str:00000000000162a1 .LASF5179
C:\Users\SOLDER~1\AppData\Local\Temp\ccLLkDzL.s:22335  .debug_str:000000000000f9b3 .LASF5180
C:\Users\SOLDER~1\AppData\Local\Temp\ccLLkDzL.s:29937  .debug_str:000000000002ea0e .LASF5181
C:\Users\SOLDER~1\AppData\Local\Temp\ccLLkDzL.s:21637  .debug_str:000000000000cbf4 .LASF5182
C:\Users\SOLDER~1\AppData\Local\Temp\ccLLkDzL.s:26051  .debug_str:000000000001ebdd .LASF5183
C:\Users\SOLDER~1\AppData\Local\Temp\ccLLkDzL.s:19215  .debug_str:0000000000002e05 .LASF5184
C:\Users\SOLDER~1\AppData\Local\Temp\ccLLkDzL.s:22703  .debug_str:0000000000011151 .LASF5185
C:\Users\SOLDER~1\AppData\Local\Temp\ccLLkDzL.s:25819  .debug_str:000000000001dca4 .LASF5186
C:\Users\SOLDER~1\AppData\Local\Temp\ccLLkDzL.s:23577  .debug_str:0000000000014b9a .LASF5187
C:\Users\SOLDER~1\AppData\Local\Temp\ccLLkDzL.s:27653  .debug_str:0000000000025410 .LASF5188
C:\Users\SOLDER~1\AppData\Local\Temp\ccLLkDzL.s:25337  .debug_str:000000000001bcb0 .LASF5189
C:\Users\SOLDER~1\AppData\Local\Temp\ccLLkDzL.s:21789  .debug_str:000000000000d5f8 .LASF5190
C:\Users\SOLDER~1\AppData\Local\Temp\ccLLkDzL.s:20001  .debug_str:000000000000604f .LASF5191
C:\Users\SOLDER~1\AppData\Local\Temp\ccLLkDzL.s:29889  .debug_str:000000000002e6e1 .LASF5192
C:\Users\SOLDER~1\AppData\Local\Temp\ccLLkDzL.s:18799  .debug_str:000000000000131c .LASF5193
C:\Users\SOLDER~1\AppData\Local\Temp\ccLLkDzL.s:21579  .debug_str:000000000000c828 .LASF5194
C:\Users\SOLDER~1\AppData\Local\Temp\ccLLkDzL.s:28071  .debug_str:0000000000027060 .LASF5195
C:\Users\SOLDER~1\AppData\Local\Temp\ccLLkDzL.s:24983  .debug_str:000000000001a611 .LASF5196
C:\Users\SOLDER~1\AppData\Local\Temp\ccLLkDzL.s:21055  .debug_str:000000000000a59f .LASF5197
C:\Users\SOLDER~1\AppData\Local\Temp\ccLLkDzL.s:19069  .debug_str:00000000000024c8 .LASF5198
C:\Users\SOLDER~1\AppData\Local\Temp\ccLLkDzL.s:25057  .debug_str:000000000001ab01 .LASF5199
C:\Users\SOLDER~1\AppData\Local\Temp\ccLLkDzL.s:27747  .debug_str:0000000000025a83 .LASF5200
C:\Users\SOLDER~1\AppData\Local\Temp\ccLLkDzL.s:20737  .debug_str:00000000000090d4 .LASF5201
C:\Users\SOLDER~1\AppData\Local\Temp\ccLLkDzL.s:27835  .debug_str:00000000000260b7 .LASF5202
C:\Users\SOLDER~1\AppData\Local\Temp\ccLLkDzL.s:19765  .debug_str:00000000000050d2 .LASF5203
C:\Users\SOLDER~1\AppData\Local\Temp\ccLLkDzL.s:18673  .debug_str:0000000000000b11 .LASF5204
C:\Users\SOLDER~1\AppData\Local\Temp\ccLLkDzL.s:19855  .debug_str:0000000000005661 .LASF5205
C:\Users\SOLDER~1\AppData\Local\Temp\ccLLkDzL.s:22863  .debug_str:0000000000011bc9 .LASF5206
GAS LISTING C:\Users\SOLDER~1\AppData\Local\Temp\ccLLkDzL.s 			page 105


C:\Users\SOLDER~1\AppData\Local\Temp\ccLLkDzL.s:23999  .debug_str:0000000000016678 .LASF5207
C:\Users\SOLDER~1\AppData\Local\Temp\ccLLkDzL.s:20049  .debug_str:000000000000639c .LASF5208
C:\Users\SOLDER~1\AppData\Local\Temp\ccLLkDzL.s:28293  .debug_str:0000000000027f02 .LASF5209
C:\Users\SOLDER~1\AppData\Local\Temp\ccLLkDzL.s:26977  .debug_str:00000000000227f4 .LASF5210
C:\Users\SOLDER~1\AppData\Local\Temp\ccLLkDzL.s:23277  .debug_str:00000000000136a6 .LASF5211
C:\Users\SOLDER~1\AppData\Local\Temp\ccLLkDzL.s:26669  .debug_str:000000000002144c .LASF5212
C:\Users\SOLDER~1\AppData\Local\Temp\ccLLkDzL.s:27443  .debug_str:000000000002468b .LASF5213
C:\Users\SOLDER~1\AppData\Local\Temp\ccLLkDzL.s:25507  .debug_str:000000000001c82d .LASF5214
C:\Users\SOLDER~1\AppData\Local\Temp\ccLLkDzL.s:24015  .debug_str:0000000000016784 .LASF5215
C:\Users\SOLDER~1\AppData\Local\Temp\ccLLkDzL.s:27293  .debug_str:0000000000023c8f .LASF5216
C:\Users\SOLDER~1\AppData\Local\Temp\ccLLkDzL.s:29579  .debug_str:000000000002d306 .LASF5217
C:\Users\SOLDER~1\AppData\Local\Temp\ccLLkDzL.s:24883  .debug_str:0000000000019fac .LASF5218
C:\Users\SOLDER~1\AppData\Local\Temp\ccLLkDzL.s:25209  .debug_str:000000000001b4a7 .LASF5219
C:\Users\SOLDER~1\AppData\Local\Temp\ccLLkDzL.s:26457  .debug_str:0000000000020655 .LASF5220
C:\Users\SOLDER~1\AppData\Local\Temp\ccLLkDzL.s:25275  .debug_str:000000000001b8a6 .LASF5221
C:\Users\SOLDER~1\AppData\Local\Temp\ccLLkDzL.s:24109  .debug_str:0000000000016d4f .LASF5222
C:\Users\SOLDER~1\AppData\Local\Temp\ccLLkDzL.s:27687  .debug_str:0000000000025654 .LASF5223
C:\Users\SOLDER~1\AppData\Local\Temp\ccLLkDzL.s:18865  .debug_str:000000000000178e .LASF5224
C:\Users\SOLDER~1\AppData\Local\Temp\ccLLkDzL.s:22789  .debug_str:00000000000116ef .LASF5225
C:\Users\SOLDER~1\AppData\Local\Temp\ccLLkDzL.s:22797  .debug_str:0000000000011774 .LASF5226
C:\Users\SOLDER~1\AppData\Local\Temp\ccLLkDzL.s:21119  .debug_str:000000000000aa15 .LASF5227
C:\Users\SOLDER~1\AppData\Local\Temp\ccLLkDzL.s:21483  .debug_str:000000000000c177 .LASF5228
C:\Users\SOLDER~1\AppData\Local\Temp\ccLLkDzL.s:20639  .debug_str:0000000000008a21 .LASF5229
C:\Users\SOLDER~1\AppData\Local\Temp\ccLLkDzL.s:20517  .debug_str:0000000000008254 .LASF5230
C:\Users\SOLDER~1\AppData\Local\Temp\ccLLkDzL.s:19531  .debug_str:0000000000004247 .LASF5231
C:\Users\SOLDER~1\AppData\Local\Temp\ccLLkDzL.s:21747  .debug_str:000000000000d34f .LASF5232
C:\Users\SOLDER~1\AppData\Local\Temp\ccLLkDzL.s:26495  .debug_str:00000000000208c9 .LASF5233
C:\Users\SOLDER~1\AppData\Local\Temp\ccLLkDzL.s:22223  .debug_str:000000000000f243 .LASF5234
C:\Users\SOLDER~1\AppData\Local\Temp\ccLLkDzL.s:19289  .debug_str:00000000000032d8 .LASF5235
C:\Users\SOLDER~1\AppData\Local\Temp\ccLLkDzL.s:28925  .debug_str:000000000002a806 .LASF5236
C:\Users\SOLDER~1\AppData\Local\Temp\ccLLkDzL.s:22529  .debug_str:0000000000010628 .LASF5237
C:\Users\SOLDER~1\AppData\Local\Temp\ccLLkDzL.s:28733  .debug_str:0000000000029b7d .LASF5238
C:\Users\SOLDER~1\AppData\Local\Temp\ccLLkDzL.s:22301  .debug_str:000000000000f74a .LASF5239
C:\Users\SOLDER~1\AppData\Local\Temp\ccLLkDzL.s:19063  .debug_str:0000000000002465 .LASF5240
C:\Users\SOLDER~1\AppData\Local\Temp\ccLLkDzL.s:24899  .debug_str:000000000001a097 .LASF5241
C:\Users\SOLDER~1\AppData\Local\Temp\ccLLkDzL.s:19337  .debug_str:00000000000035e3 .LASF5242
C:\Users\SOLDER~1\AppData\Local\Temp\ccLLkDzL.s:19735  .debug_str:0000000000004f1f .LASF5243
C:\Users\SOLDER~1\AppData\Local\Temp\ccLLkDzL.s:28825  .debug_str:000000000002a1e3 .LASF5244
C:\Users\SOLDER~1\AppData\Local\Temp\ccLLkDzL.s:18561  .debug_str:00000000000002f3 .LASF5245
C:\Users\SOLDER~1\AppData\Local\Temp\ccLLkDzL.s:20243  .debug_str:00000000000070ab .LASF5246
C:\Users\SOLDER~1\AppData\Local\Temp\ccLLkDzL.s:29061  .debug_str:000000000002b143 .LASF5247
C:\Users\SOLDER~1\AppData\Local\Temp\ccLLkDzL.s:21115  .debug_str:000000000000a9d3 .LASF5248
C:\Users\SOLDER~1\AppData\Local\Temp\ccLLkDzL.s:27839  .debug_str:000000000002610b .LASF5249
C:\Users\SOLDER~1\AppData\Local\Temp\ccLLkDzL.s:29191  .debug_str:000000000002b96e .LASF5250
C:\Users\SOLDER~1\AppData\Local\Temp\ccLLkDzL.s:22477  .debug_str:0000000000010318 .LASF5251
C:\Users\SOLDER~1\AppData\Local\Temp\ccLLkDzL.s:21487  .debug_str:000000000000c1ca .LASF5252
C:\Users\SOLDER~1\AppData\Local\Temp\ccLLkDzL.s:27503  .debug_str:0000000000024a8b .LASF5253
C:\Users\SOLDER~1\AppData\Local\Temp\ccLLkDzL.s:24757  .debug_str:000000000001979d .LASF5254
C:\Users\SOLDER~1\AppData\Local\Temp\ccLLkDzL.s:22029  .debug_str:000000000000e5ca .LASF5255
C:\Users\SOLDER~1\AppData\Local\Temp\ccLLkDzL.s:29807  .debug_str:000000000002e170 .LASF5256
C:\Users\SOLDER~1\AppData\Local\Temp\ccLLkDzL.s:22723  .debug_str:000000000001128a .LASF5257
C:\Users\SOLDER~1\AppData\Local\Temp\ccLLkDzL.s:25563  .debug_str:000000000001cc2a .LASF5258
C:\Users\SOLDER~1\AppData\Local\Temp\ccLLkDzL.s:24295  .debug_str:0000000000017984 .LASF5259
C:\Users\SOLDER~1\AppData\Local\Temp\ccLLkDzL.s:20417  .debug_str:0000000000007b9c .LASF5260
C:\Users\SOLDER~1\AppData\Local\Temp\ccLLkDzL.s:29775  .debug_str:000000000002df5e .LASF5261
C:\Users\SOLDER~1\AppData\Local\Temp\ccLLkDzL.s:25907  .debug_str:000000000001e236 .LASF5262
C:\Users\SOLDER~1\AppData\Local\Temp\ccLLkDzL.s:18807  .debug_str:00000000000013b0 .LASF5263
GAS LISTING C:\Users\SOLDER~1\AppData\Local\Temp\ccLLkDzL.s 			page 106


C:\Users\SOLDER~1\AppData\Local\Temp\ccLLkDzL.s:23803  .debug_str:0000000000015a2f .LASF5264
C:\Users\SOLDER~1\AppData\Local\Temp\ccLLkDzL.s:28007  .debug_str:0000000000026c35 .LASF5265
C:\Users\SOLDER~1\AppData\Local\Temp\ccLLkDzL.s:22923  .debug_str:0000000000011f52 .LASF5266
C:\Users\SOLDER~1\AppData\Local\Temp\ccLLkDzL.s:28243  .debug_str:0000000000027baa .LASF5267
C:\Users\SOLDER~1\AppData\Local\Temp\ccLLkDzL.s:18893  .debug_str:000000000000190f .LASF5268
C:\Users\SOLDER~1\AppData\Local\Temp\ccLLkDzL.s:26903  .debug_str:00000000000222e4 .LASF5269
C:\Users\SOLDER~1\AppData\Local\Temp\ccLLkDzL.s:24877  .debug_str:0000000000019f46 .LASF5270
C:\Users\SOLDER~1\AppData\Local\Temp\ccLLkDzL.s:23823  .debug_str:0000000000015b70 .LASF5271
C:\Users\SOLDER~1\AppData\Local\Temp\ccLLkDzL.s:21129  .debug_str:000000000000aa98 .LASF5272
C:\Users\SOLDER~1\AppData\Local\Temp\ccLLkDzL.s:18651  .debug_str:0000000000000992 .LASF5273
C:\Users\SOLDER~1\AppData\Local\Temp\ccLLkDzL.s:26013  .debug_str:000000000001e973 .LASF5274
C:\Users\SOLDER~1\AppData\Local\Temp\ccLLkDzL.s:28783  .debug_str:0000000000029ee4 .LASF5275
C:\Users\SOLDER~1\AppData\Local\Temp\ccLLkDzL.s:24243  .debug_str:000000000001763f .LASF5276
C:\Users\SOLDER~1\AppData\Local\Temp\ccLLkDzL.s:22443  .debug_str:00000000000100d9 .LASF5277
C:\Users\SOLDER~1\AppData\Local\Temp\ccLLkDzL.s:19209  .debug_str:0000000000002da3 .LASF5278
C:\Users\SOLDER~1\AppData\Local\Temp\ccLLkDzL.s:20351  .debug_str:0000000000007748 .LASF5279
C:\Users\SOLDER~1\AppData\Local\Temp\ccLLkDzL.s:25789  .debug_str:000000000001da89 .LASF5280
C:\Users\SOLDER~1\AppData\Local\Temp\ccLLkDzL.s:20451  .debug_str:0000000000007de0 .LASF5281
C:\Users\SOLDER~1\AppData\Local\Temp\ccLLkDzL.s:25457  .debug_str:000000000001c4e3 .LASF5282
C:\Users\SOLDER~1\AppData\Local\Temp\ccLLkDzL.s:19281  .debug_str:0000000000003258 .LASF5283
C:\Users\SOLDER~1\AppData\Local\Temp\ccLLkDzL.s:19885  .debug_str:00000000000058a0 .LASF5284
C:\Users\SOLDER~1\AppData\Local\Temp\ccLLkDzL.s:25441  .debug_str:000000000001c3ac .LASF5285
C:\Users\SOLDER~1\AppData\Local\Temp\ccLLkDzL.s:19299  .debug_str:0000000000003393 .LASF5286
C:\Users\SOLDER~1\AppData\Local\Temp\ccLLkDzL.s:29335  .debug_str:000000000002c327 .LASF5287
C:\Users\SOLDER~1\AppData\Local\Temp\ccLLkDzL.s:22171  .debug_str:000000000000eef5 .LASF5288
C:\Users\SOLDER~1\AppData\Local\Temp\ccLLkDzL.s:22541  .debug_str:0000000000010713 .LASF5289
C:\Users\SOLDER~1\AppData\Local\Temp\ccLLkDzL.s:19481  .debug_str:0000000000003f16 .LASF5290
C:\Users\SOLDER~1\AppData\Local\Temp\ccLLkDzL.s:19857  .debug_str:0000000000005694 .LASF5291
C:\Users\SOLDER~1\AppData\Local\Temp\ccLLkDzL.s:18731  .debug_str:0000000000000eef .LASF5292
C:\Users\SOLDER~1\AppData\Local\Temp\ccLLkDzL.s:23267  .debug_str:0000000000013616 .LASF5293
C:\Users\SOLDER~1\AppData\Local\Temp\ccLLkDzL.s:27111  .debug_str:00000000000230a6 .LASF5294
C:\Users\SOLDER~1\AppData\Local\Temp\ccLLkDzL.s:24189  .debug_str:00000000000172a8 .LASF5295
C:\Users\SOLDER~1\AppData\Local\Temp\ccLLkDzL.s:24099  .debug_str:0000000000016ca5 .LASF5296
C:\Users\SOLDER~1\AppData\Local\Temp\ccLLkDzL.s:22105  .debug_str:000000000000ea97 .LASF5297
C:\Users\SOLDER~1\AppData\Local\Temp\ccLLkDzL.s:20239  .debug_str:000000000000705e .LASF5298
C:\Users\SOLDER~1\AppData\Local\Temp\ccLLkDzL.s:20495  .debug_str:00000000000080fb .LASF5299
C:\Users\SOLDER~1\AppData\Local\Temp\ccLLkDzL.s:28567  .debug_str:000000000002909c .LASF5300
C:\Users\SOLDER~1\AppData\Local\Temp\ccLLkDzL.s:23995  .debug_str:0000000000016627 .LASF5301
C:\Users\SOLDER~1\AppData\Local\Temp\ccLLkDzL.s:21573  .debug_str:000000000000c7c4 .LASF5302
C:\Users\SOLDER~1\AppData\Local\Temp\ccLLkDzL.s:27253  .debug_str:00000000000239d5 .LASF5303
C:\Users\SOLDER~1\AppData\Local\Temp\ccLLkDzL.s:25375  .debug_str:000000000001bf20 .LASF5304
C:\Users\SOLDER~1\AppData\Local\Temp\ccLLkDzL.s:25579  .debug_str:000000000001cd2a .LASF5305
C:\Users\SOLDER~1\AppData\Local\Temp\ccLLkDzL.s:22687  .debug_str:0000000000011062 .LASF5306
C:\Users\SOLDER~1\AppData\Local\Temp\ccLLkDzL.s:21255  .debug_str:000000000000b289 .LASF5307
C:\Users\SOLDER~1\AppData\Local\Temp\ccLLkDzL.s:25885  .debug_str:000000000001e0d6 .LASF5308
C:\Users\SOLDER~1\AppData\Local\Temp\ccLLkDzL.s:26243  .debug_str:000000000001f89c .LASF5309
C:\Users\SOLDER~1\AppData\Local\Temp\ccLLkDzL.s:20893  .debug_str:0000000000009aee .LASF5310
C:\Users\SOLDER~1\AppData\Local\Temp\ccLLkDzL.s:29037  .debug_str:000000000002af97 .LASF5311
C:\Users\SOLDER~1\AppData\Local\Temp\ccLLkDzL.s:27831  .debug_str:0000000000026067 .LASF5312
C:\Users\SOLDER~1\AppData\Local\Temp\ccLLkDzL.s:18983  .debug_str:0000000000001f1f .LASF5313
C:\Users\SOLDER~1\AppData\Local\Temp\ccLLkDzL.s:23187  .debug_str:00000000000130a3 .LASF5314
C:\Users\SOLDER~1\AppData\Local\Temp\ccLLkDzL.s:19541  .debug_str:00000000000042da .LASF5315
C:\Users\SOLDER~1\AppData\Local\Temp\ccLLkDzL.s:23241  .debug_str:0000000000013459 .LASF5316
C:\Users\SOLDER~1\AppData\Local\Temp\ccLLkDzL.s:21009  .debug_str:000000000000a290 .LASF5317
C:\Users\SOLDER~1\AppData\Local\Temp\ccLLkDzL.s:26909  .debug_str:0000000000022356 .LASF5318
C:\Users\SOLDER~1\AppData\Local\Temp\ccLLkDzL.s:23863  .debug_str:0000000000015df4 .LASF5319
C:\Users\SOLDER~1\AppData\Local\Temp\ccLLkDzL.s:28695  .debug_str:00000000000298e4 .LASF5320
GAS LISTING C:\Users\SOLDER~1\AppData\Local\Temp\ccLLkDzL.s 			page 107


C:\Users\SOLDER~1\AppData\Local\Temp\ccLLkDzL.s:24549  .debug_str:0000000000018a3f .LASF5321
C:\Users\SOLDER~1\AppData\Local\Temp\ccLLkDzL.s:28143  .debug_str:000000000002753a .LASF5322
C:\Users\SOLDER~1\AppData\Local\Temp\ccLLkDzL.s:25991  .debug_str:000000000001e7fa .LASF5323
C:\Users\SOLDER~1\AppData\Local\Temp\ccLLkDzL.s:23039  .debug_str:00000000000126c9 .LASF5324
C:\Users\SOLDER~1\AppData\Local\Temp\ccLLkDzL.s:24183  .debug_str:000000000001723b .LASF5325
C:\Users\SOLDER~1\AppData\Local\Temp\ccLLkDzL.s:25645  .debug_str:000000000001d1a5 .LASF5326
C:\Users\SOLDER~1\AppData\Local\Temp\ccLLkDzL.s:18891  .debug_str:00000000000018e4 .LASF5327
C:\Users\SOLDER~1\AppData\Local\Temp\ccLLkDzL.s:27169  .debug_str:000000000002349f .LASF5328
C:\Users\SOLDER~1\AppData\Local\Temp\ccLLkDzL.s:23731  .debug_str:0000000000015599 .LASF5329
C:\Users\SOLDER~1\AppData\Local\Temp\ccLLkDzL.s:20221  .debug_str:0000000000006f30 .LASF5330
C:\Users\SOLDER~1\AppData\Local\Temp\ccLLkDzL.s:19769  .debug_str:0000000000005126 .LASF5331
C:\Users\SOLDER~1\AppData\Local\Temp\ccLLkDzL.s:22595  .debug_str:0000000000010a76 .LASF5332
C:\Users\SOLDER~1\AppData\Local\Temp\ccLLkDzL.s:20743  .debug_str:000000000000915e .LASF5333
C:\Users\SOLDER~1\AppData\Local\Temp\ccLLkDzL.s:27537  .debug_str:0000000000024cc4 .LASF5334
C:\Users\SOLDER~1\AppData\Local\Temp\ccLLkDzL.s:28573  .debug_str:000000000002910a .LASF5335
C:\Users\SOLDER~1\AppData\Local\Temp\ccLLkDzL.s:19891  .debug_str:00000000000058f9 .LASF5336
C:\Users\SOLDER~1\AppData\Local\Temp\ccLLkDzL.s:23857  .debug_str:0000000000015d92 .LASF5337
C:\Users\SOLDER~1\AppData\Local\Temp\ccLLkDzL.s:21469  .debug_str:000000000000c099 .LASF5338
C:\Users\SOLDER~1\AppData\Local\Temp\ccLLkDzL.s:20399  .debug_str:0000000000007a55 .LASF5339
C:\Users\SOLDER~1\AppData\Local\Temp\ccLLkDzL.s:20277  .debug_str:00000000000072d1 .LASF5340
C:\Users\SOLDER~1\AppData\Local\Temp\ccLLkDzL.s:26759  .debug_str:0000000000021a11 .LASF5341
C:\Users\SOLDER~1\AppData\Local\Temp\ccLLkDzL.s:24795  .debug_str:0000000000019a2a .LASF5342
C:\Users\SOLDER~1\AppData\Local\Temp\ccLLkDzL.s:28159  .debug_str:000000000002763b .LASF5343
C:\Users\SOLDER~1\AppData\Local\Temp\ccLLkDzL.s:29977  .debug_str:000000000002ec76 .LASF5344
C:\Users\SOLDER~1\AppData\Local\Temp\ccLLkDzL.s:26971  .debug_str:000000000002277b .LASF5345
C:\Users\SOLDER~1\AppData\Local\Temp\ccLLkDzL.s:29457  .debug_str:000000000002cabf .LASF5346
C:\Users\SOLDER~1\AppData\Local\Temp\ccLLkDzL.s:19361  .debug_str:000000000000377a .LASF5347
C:\Users\SOLDER~1\AppData\Local\Temp\ccLLkDzL.s:29099  .debug_str:000000000002b38a .LASF5348
C:\Users\SOLDER~1\AppData\Local\Temp\ccLLkDzL.s:24551  .debug_str:0000000000018a6a .LASF5349
C:\Users\SOLDER~1\AppData\Local\Temp\ccLLkDzL.s:24319  .debug_str:0000000000017b2a .LASF5350
C:\Users\SOLDER~1\AppData\Local\Temp\ccLLkDzL.s:19249  .debug_str:0000000000003047 .LASF5351
C:\Users\SOLDER~1\AppData\Local\Temp\ccLLkDzL.s:21591  .debug_str:000000000000c90b .LASF5352
C:\Users\SOLDER~1\AppData\Local\Temp\ccLLkDzL.s:29169  .debug_str:000000000002b81e .LASF5353
C:\Users\SOLDER~1\AppData\Local\Temp\ccLLkDzL.s:28547  .debug_str:0000000000028f49 .LASF5354
C:\Users\SOLDER~1\AppData\Local\Temp\ccLLkDzL.s:29487  .debug_str:000000000002ccbc .LASF5355
C:\Users\SOLDER~1\AppData\Local\Temp\ccLLkDzL.s:26893  .debug_str:000000000002222d .LASF5356
C:\Users\SOLDER~1\AppData\Local\Temp\ccLLkDzL.s:27381  .debug_str:0000000000024268 .LASF5357
C:\Users\SOLDER~1\AppData\Local\Temp\ccLLkDzL.s:19879  .debug_str:0000000000005839 .LASF5358
C:\Users\SOLDER~1\AppData\Local\Temp\ccLLkDzL.s:29127  .debug_str:000000000002b575 .LASF5359
C:\Users\SOLDER~1\AppData\Local\Temp\ccLLkDzL.s:23763  .debug_str:00000000000157c1 .LASF5360
C:\Users\SOLDER~1\AppData\Local\Temp\ccLLkDzL.s:23467  .debug_str:0000000000014434 .LASF5361
C:\Users\SOLDER~1\AppData\Local\Temp\ccLLkDzL.s:28305  .debug_str:0000000000027fe5 .LASF5362
C:\Users\SOLDER~1\AppData\Local\Temp\ccLLkDzL.s:19311  .debug_str:0000000000003464 .LASF5363
C:\Users\SOLDER~1\AppData\Local\Temp\ccLLkDzL.s:23391  .debug_str:0000000000013eea .LASF5364
C:\Users\SOLDER~1\AppData\Local\Temp\ccLLkDzL.s:24891  .debug_str:000000000001a014 .LASF5365
C:\Users\SOLDER~1\AppData\Local\Temp\ccLLkDzL.s:19217  .debug_str:0000000000002e2b .LASF5366
C:\Users\SOLDER~1\AppData\Local\Temp\ccLLkDzL.s:20461  .debug_str:0000000000007e95 .LASF5367
C:\Users\SOLDER~1\AppData\Local\Temp\ccLLkDzL.s:24871  .debug_str:0000000000019edf .LASF5368
C:\Users\SOLDER~1\AppData\Local\Temp\ccLLkDzL.s:23911  .debug_str:0000000000016118 .LASF5369
C:\Users\SOLDER~1\AppData\Local\Temp\ccLLkDzL.s:27449  .debug_str:00000000000246ec .LASF5370
C:\Users\SOLDER~1\AppData\Local\Temp\ccLLkDzL.s:22939  .debug_str:0000000000012070 .LASF5371
C:\Users\SOLDER~1\AppData\Local\Temp\ccLLkDzL.s:29237  .debug_str:000000000002bc70 .LASF5372
C:\Users\SOLDER~1\AppData\Local\Temp\ccLLkDzL.s:23479  .debug_str:000000000001450e .LASF5373
C:\Users\SOLDER~1\AppData\Local\Temp\ccLLkDzL.s:21745  .debug_str:000000000000d32f .LASF5374
C:\Users\SOLDER~1\AppData\Local\Temp\ccLLkDzL.s:29365  .debug_str:000000000002c501 .LASF5375
C:\Users\SOLDER~1\AppData\Local\Temp\ccLLkDzL.s:27697  .debug_str:0000000000025710 .LASF5376
C:\Users\SOLDER~1\AppData\Local\Temp\ccLLkDzL.s:23559  .debug_str:0000000000014a64 .LASF5377
GAS LISTING C:\Users\SOLDER~1\AppData\Local\Temp\ccLLkDzL.s 			page 108


C:\Users\SOLDER~1\AppData\Local\Temp\ccLLkDzL.s:19659  .debug_str:0000000000004a68 .LASF5378
C:\Users\SOLDER~1\AppData\Local\Temp\ccLLkDzL.s:19847  .debug_str:00000000000055ce .LASF5379
C:\Users\SOLDER~1\AppData\Local\Temp\ccLLkDzL.s:24847  .debug_str:0000000000019d3d .LASF5380
C:\Users\SOLDER~1\AppData\Local\Temp\ccLLkDzL.s:26973  .debug_str:000000000002279b .LASF5381
C:\Users\SOLDER~1\AppData\Local\Temp\ccLLkDzL.s:18787  .debug_str:0000000000001275 .LASF5382
C:\Users\SOLDER~1\AppData\Local\Temp\ccLLkDzL.s:22313  .debug_str:000000000000f841 .LASF5383
C:\Users\SOLDER~1\AppData\Local\Temp\ccLLkDzL.s:27191  .debug_str:0000000000023625 .LASF5384
C:\Users\SOLDER~1\AppData\Local\Temp\ccLLkDzL.s:18577  .debug_str:0000000000000405 .LASF5385
C:\Users\SOLDER~1\AppData\Local\Temp\ccLLkDzL.s:23733  .debug_str:00000000000155c6 .LASF5386
C:\Users\SOLDER~1\AppData\Local\Temp\ccLLkDzL.s:30001  .debug_str:000000000002edf4 .LASF5387
C:\Users\SOLDER~1\AppData\Local\Temp\ccLLkDzL.s:24703  .debug_str:000000000001948e .LASF5388
C:\Users\SOLDER~1\AppData\Local\Temp\ccLLkDzL.s:29297  .debug_str:000000000002c0b2 .LASF5389
C:\Users\SOLDER~1\AppData\Local\Temp\ccLLkDzL.s:24681  .debug_str:00000000000192fb .LASF5390
C:\Users\SOLDER~1\AppData\Local\Temp\ccLLkDzL.s:22463  .debug_str:000000000001021d .LASF5391
C:\Users\SOLDER~1\AppData\Local\Temp\ccLLkDzL.s:23481  .debug_str:000000000001452e .LASF5392
C:\Users\SOLDER~1\AppData\Local\Temp\ccLLkDzL.s:23147  .debug_str:0000000000012e0f .LASF5393
C:\Users\SOLDER~1\AppData\Local\Temp\ccLLkDzL.s:26315  .debug_str:000000000001fd0d .LASF5394
C:\Users\SOLDER~1\AppData\Local\Temp\ccLLkDzL.s:29781  .debug_str:000000000002dfd0 .LASF5395
C:\Users\SOLDER~1\AppData\Local\Temp\ccLLkDzL.s:21353  .debug_str:000000000000b8ed .LASF5396
C:\Users\SOLDER~1\AppData\Local\Temp\ccLLkDzL.s:25045  .debug_str:000000000001aa11 .LASF5397
C:\Users\SOLDER~1\AppData\Local\Temp\ccLLkDzL.s:29499  .debug_str:000000000002cd91 .LASF5398
C:\Users\SOLDER~1\AppData\Local\Temp\ccLLkDzL.s:27413  .debug_str:00000000000244a3 .LASF5399
C:\Users\SOLDER~1\AppData\Local\Temp\ccLLkDzL.s:24967  .debug_str:000000000001a4f2 .LASF5400
C:\Users\SOLDER~1\AppData\Local\Temp\ccLLkDzL.s:25655  .debug_str:000000000001d254 .LASF5401
C:\Users\SOLDER~1\AppData\Local\Temp\ccLLkDzL.s:21309  .debug_str:000000000000b609 .LASF5402
C:\Users\SOLDER~1\AppData\Local\Temp\ccLLkDzL.s:24451  .debug_str:00000000000183e1 .LASF5403
C:\Users\SOLDER~1\AppData\Local\Temp\ccLLkDzL.s:28177  .debug_str:0000000000027752 .LASF5404
C:\Users\SOLDER~1\AppData\Local\Temp\ccLLkDzL.s:22363  .debug_str:000000000000fbc3 .LASF5405
C:\Users\SOLDER~1\AppData\Local\Temp\ccLLkDzL.s:24531  .debug_str:0000000000018918 .LASF5406
C:\Users\SOLDER~1\AppData\Local\Temp\ccLLkDzL.s:23533  .debug_str:00000000000148a7 .LASF5407
C:\Users\SOLDER~1\AppData\Local\Temp\ccLLkDzL.s:29117  .debug_str:000000000002b4c3 .LASF5408
C:\Users\SOLDER~1\AppData\Local\Temp\ccLLkDzL.s:29573  .debug_str:000000000002d2af .LASF5409
C:\Users\SOLDER~1\AppData\Local\Temp\ccLLkDzL.s:29423  .debug_str:000000000002c8a1 .LASF5410
C:\Users\SOLDER~1\AppData\Local\Temp\ccLLkDzL.s:19989  .debug_str:0000000000005f6e .LASF5411
C:\Users\SOLDER~1\AppData\Local\Temp\ccLLkDzL.s:27513  .debug_str:0000000000024b34 .LASF5412
C:\Users\SOLDER~1\AppData\Local\Temp\ccLLkDzL.s:21133  .debug_str:000000000000aae2 .LASF5413
C:\Users\SOLDER~1\AppData\Local\Temp\ccLLkDzL.s:21083  .debug_str:000000000000a793 .LASF5414
C:\Users\SOLDER~1\AppData\Local\Temp\ccLLkDzL.s:24711  .debug_str:000000000001951f .LASF5415
C:\Users\SOLDER~1\AppData\Local\Temp\ccLLkDzL.s:28099  .debug_str:000000000002725f .LASF5416
C:\Users\SOLDER~1\AppData\Local\Temp\ccLLkDzL.s:21557  .debug_str:000000000000c6ab .LASF5417
C:\Users\SOLDER~1\AppData\Local\Temp\ccLLkDzL.s:22673  .debug_str:0000000000010f75 .LASF5418
C:\Users\SOLDER~1\AppData\Local\Temp\ccLLkDzL.s:21105  .debug_str:000000000000a913 .LASF5419
C:\Users\SOLDER~1\AppData\Local\Temp\ccLLkDzL.s:29453  .debug_str:000000000002ca83 .LASF5420
C:\Users\SOLDER~1\AppData\Local\Temp\ccLLkDzL.s:25987  .debug_str:000000000001e7ad .LASF5421
C:\Users\SOLDER~1\AppData\Local\Temp\ccLLkDzL.s:27017  .debug_str:0000000000022aae .LASF5422
C:\Users\SOLDER~1\AppData\Local\Temp\ccLLkDzL.s:25467  .debug_str:000000000001c586 .LASF5423
C:\Users\SOLDER~1\AppData\Local\Temp\ccLLkDzL.s:20653  .debug_str:0000000000008b12 .LASF5424
C:\Users\SOLDER~1\AppData\Local\Temp\ccLLkDzL.s:28329  .debug_str:0000000000028152 .LASF5425
C:\Users\SOLDER~1\AppData\Local\Temp\ccLLkDzL.s:29707  .debug_str:000000000002db24 .LASF5426
C:\Users\SOLDER~1\AppData\Local\Temp\ccLLkDzL.s:19851  .debug_str:000000000000561b .LASF5427
C:\Users\SOLDER~1\AppData\Local\Temp\ccLLkDzL.s:23485  .debug_str:0000000000014581 .LASF5428
C:\Users\SOLDER~1\AppData\Local\Temp\ccLLkDzL.s:29129  .debug_str:000000000002b596 .LASF5429
C:\Users\SOLDER~1\AppData\Local\Temp\ccLLkDzL.s:29519  .debug_str:000000000002cf01 .LASF5430
C:\Users\SOLDER~1\AppData\Local\Temp\ccLLkDzL.s:22745  .debug_str:000000000001144b .LASF5431
C:\Users\SOLDER~1\AppData\Local\Temp\ccLLkDzL.s:19639  .debug_str:0000000000004936 .LASF5432
C:\Users\SOLDER~1\AppData\Local\Temp\ccLLkDzL.s:19291  .debug_str:00000000000032fb .LASF5433
C:\Users\SOLDER~1\AppData\Local\Temp\ccLLkDzL.s:25205  .debug_str:000000000001b45f .LASF5434
GAS LISTING C:\Users\SOLDER~1\AppData\Local\Temp\ccLLkDzL.s 			page 109


C:\Users\SOLDER~1\AppData\Local\Temp\ccLLkDzL.s:28463  .debug_str:0000000000028a10 .LASF5435
C:\Users\SOLDER~1\AppData\Local\Temp\ccLLkDzL.s:21079  .debug_str:000000000000a75b .LASF5436
C:\Users\SOLDER~1\AppData\Local\Temp\ccLLkDzL.s:22307  .debug_str:000000000000f7df .LASF5437
C:\Users\SOLDER~1\AppData\Local\Temp\ccLLkDzL.s:25623  .debug_str:000000000001d025 .LASF5438
C:\Users\SOLDER~1\AppData\Local\Temp\ccLLkDzL.s:26475  .debug_str:0000000000020779 .LASF5439
C:\Users\SOLDER~1\AppData\Local\Temp\ccLLkDzL.s:20945  .debug_str:0000000000009e63 .LASF5440
C:\Users\SOLDER~1\AppData\Local\Temp\ccLLkDzL.s:18915  .debug_str:0000000000001a93 .LASF5441
C:\Users\SOLDER~1\AppData\Local\Temp\ccLLkDzL.s:24771  .debug_str:0000000000019892 .LASF5442
C:\Users\SOLDER~1\AppData\Local\Temp\ccLLkDzL.s:19667  .debug_str:0000000000004af5 .LASF5443
C:\Users\SOLDER~1\AppData\Local\Temp\ccLLkDzL.s:29295  .debug_str:000000000002c08f .LASF5444
C:\Users\SOLDER~1\AppData\Local\Temp\ccLLkDzL.s:26359  .debug_str:000000000001ffdf .LASF5445
C:\Users\SOLDER~1\AppData\Local\Temp\ccLLkDzL.s:26841  .debug_str:0000000000021f2b .LASF5446
C:\Users\SOLDER~1\AppData\Local\Temp\ccLLkDzL.s:23961  .debug_str:0000000000016445 .LASF5447
C:\Users\SOLDER~1\AppData\Local\Temp\ccLLkDzL.s:22497  .debug_str:000000000001044b .LASF5448
C:\Users\SOLDER~1\AppData\Local\Temp\ccLLkDzL.s:23827  .debug_str:0000000000015bb8 .LASF5449
C:\Users\SOLDER~1\AppData\Local\Temp\ccLLkDzL.s:22821  .debug_str:00000000000118f8 .LASF5450
C:\Users\SOLDER~1\AppData\Local\Temp\ccLLkDzL.s:27777  .debug_str:0000000000025ca0 .LASF5451
C:\Users\SOLDER~1\AppData\Local\Temp\ccLLkDzL.s:22381  .debug_str:000000000000fcfa .LASF5452
C:\Users\SOLDER~1\AppData\Local\Temp\ccLLkDzL.s:21263  .debug_str:000000000000b31b .LASF5453
C:\Users\SOLDER~1\AppData\Local\Temp\ccLLkDzL.s:23145  .debug_str:0000000000012dea .LASF5454
C:\Users\SOLDER~1\AppData\Local\Temp\ccLLkDzL.s:22215  .debug_str:000000000000f1c3 .LASF5455
C:\Users\SOLDER~1\AppData\Local\Temp\ccLLkDzL.s:19387  .debug_str:000000000000391d .LASF5456
C:\Users\SOLDER~1\AppData\Local\Temp\ccLLkDzL.s:21061  .debug_str:000000000000a629 .LASF5457
C:\Users\SOLDER~1\AppData\Local\Temp\ccLLkDzL.s:19547  .debug_str:0000000000004352 .LASF5458
C:\Users\SOLDER~1\AppData\Local\Temp\ccLLkDzL.s:20997  .debug_str:000000000000a1f2 .LASF5459
C:\Users\SOLDER~1\AppData\Local\Temp\ccLLkDzL.s:20909  .debug_str:0000000000009be4 .LASF5460
C:\Users\SOLDER~1\AppData\Local\Temp\ccLLkDzL.s:29255  .debug_str:000000000002bdb3 .LASF5461
C:\Users\SOLDER~1\AppData\Local\Temp\ccLLkDzL.s:24093  .debug_str:0000000000016c36 .LASF5462
C:\Users\SOLDER~1\AppData\Local\Temp\ccLLkDzL.s:24885  .debug_str:0000000000019fbe .LASF5463
C:\Users\SOLDER~1\AppData\Local\Temp\ccLLkDzL.s:23705  .debug_str:00000000000153f1 .LASF5464
C:\Users\SOLDER~1\AppData\Local\Temp\ccLLkDzL.s:26713  .debug_str:00000000000216f8 .LASF5465
C:\Users\SOLDER~1\AppData\Local\Temp\ccLLkDzL.s:27829  .debug_str:0000000000026041 .LASF5466
C:\Users\SOLDER~1\AppData\Local\Temp\ccLLkDzL.s:21339  .debug_str:000000000000b807 .LASF5467
C:\Users\SOLDER~1\AppData\Local\Temp\ccLLkDzL.s:20213  .debug_str:0000000000006e7c .LASF5468
C:\Users\SOLDER~1\AppData\Local\Temp\ccLLkDzL.s:20787  .debug_str:0000000000009439 .LASF5469
C:\Users\SOLDER~1\AppData\Local\Temp\ccLLkDzL.s:21347  .debug_str:000000000000b87b .LASF5470
C:\Users\SOLDER~1\AppData\Local\Temp\ccLLkDzL.s:22269  .debug_str:000000000000f531 .LASF5471
C:\Users\SOLDER~1\AppData\Local\Temp\ccLLkDzL.s:25003  .debug_str:000000000001a76b .LASF5472
C:\Users\SOLDER~1\AppData\Local\Temp\ccLLkDzL.s:25609  .debug_str:000000000001cf04 .LASF5473
C:\Users\SOLDER~1\AppData\Local\Temp\ccLLkDzL.s:29379  .debug_str:000000000002c5dc .LASF5474
C:\Users\SOLDER~1\AppData\Local\Temp\ccLLkDzL.s:28921  .debug_str:000000000002a7c9 .LASF5475
C:\Users\SOLDER~1\AppData\Local\Temp\ccLLkDzL.s:25529  .debug_str:000000000001c9c9 .LASF5476
C:\Users\SOLDER~1\AppData\Local\Temp\ccLLkDzL.s:22305  .debug_str:000000000000f7b3 .LASF5477
C:\Users\SOLDER~1\AppData\Local\Temp\ccLLkDzL.s:24097  .debug_str:0000000000016c7a .LASF5478
C:\Users\SOLDER~1\AppData\Local\Temp\ccLLkDzL.s:21657  .debug_str:000000000000cd5d .LASF5479
C:\Users\SOLDER~1\AppData\Local\Temp\ccLLkDzL.s:20907  .debug_str:0000000000009bc1 .LASF5480
C:\Users\SOLDER~1\AppData\Local\Temp\ccLLkDzL.s:27655  .debug_str:0000000000025433 .LASF5481
C:\Users\SOLDER~1\AppData\Local\Temp\ccLLkDzL.s:22387  .debug_str:000000000000fd5d .LASF5482
C:\Users\SOLDER~1\AppData\Local\Temp\ccLLkDzL.s:29685  .debug_str:000000000002d9a4 .LASF5483
C:\Users\SOLDER~1\AppData\Local\Temp\ccLLkDzL.s:25983  .debug_str:000000000001e762 .LASF5484
C:\Users\SOLDER~1\AppData\Local\Temp\ccLLkDzL.s:18661  .debug_str:0000000000000a4a .LASF5485
C:\Users\SOLDER~1\AppData\Local\Temp\ccLLkDzL.s:23323  .debug_str:0000000000013a58 .LASF5486
C:\Users\SOLDER~1\AppData\Local\Temp\ccLLkDzL.s:28497  .debug_str:0000000000028c27 .LASF5487
C:\Users\SOLDER~1\AppData\Local\Temp\ccLLkDzL.s:25035  .debug_str:000000000001a942 .LASF5488
C:\Users\SOLDER~1\AppData\Local\Temp\ccLLkDzL.s:21321  .debug_str:000000000000b6c8 .LASF5489
C:\Users\SOLDER~1\AppData\Local\Temp\ccLLkDzL.s:24129  .debug_str:0000000000016ea3 .LASF5490
C:\Users\SOLDER~1\AppData\Local\Temp\ccLLkDzL.s:28823  .debug_str:000000000002a1c0 .LASF5491
GAS LISTING C:\Users\SOLDER~1\AppData\Local\Temp\ccLLkDzL.s 			page 110


C:\Users\SOLDER~1\AppData\Local\Temp\ccLLkDzL.s:22041  .debug_str:000000000000e695 .LASF5492
C:\Users\SOLDER~1\AppData\Local\Temp\ccLLkDzL.s:25255  .debug_str:000000000001b72d .LASF5493
C:\Users\SOLDER~1\AppData\Local\Temp\ccLLkDzL.s:21793  .debug_str:000000000000d654 .LASF5494
C:\Users\SOLDER~1\AppData\Local\Temp\ccLLkDzL.s:27955  .debug_str:00000000000268e3 .LASF5495
C:\Users\SOLDER~1\AppData\Local\Temp\ccLLkDzL.s:27305  .debug_str:0000000000023d51 .LASF5496
C:\Users\SOLDER~1\AppData\Local\Temp\ccLLkDzL.s:29227  .debug_str:000000000002bbbc .LASF5497
C:\Users\SOLDER~1\AppData\Local\Temp\ccLLkDzL.s:21681  .debug_str:000000000000cede .LASF5498
C:\Users\SOLDER~1\AppData\Local\Temp\ccLLkDzL.s:27247  .debug_str:000000000002397d .LASF5499
C:\Users\SOLDER~1\AppData\Local\Temp\ccLLkDzL.s:24461  .debug_str:000000000001848b .LASF5500
C:\Users\SOLDER~1\AppData\Local\Temp\ccLLkDzL.s:28389  .debug_str:0000000000028517 .LASF5501
C:\Users\SOLDER~1\AppData\Local\Temp\ccLLkDzL.s:25061  .debug_str:000000000001ab5d .LASF5502
C:\Users\SOLDER~1\AppData\Local\Temp\ccLLkDzL.s:29835  .debug_str:000000000002e334 .LASF5503
C:\Users\SOLDER~1\AppData\Local\Temp\ccLLkDzL.s:19789  .debug_str:0000000000005269 .LASF5504
C:\Users\SOLDER~1\AppData\Local\Temp\ccLLkDzL.s:21097  .debug_str:000000000000a883 .LASF5505
C:\Users\SOLDER~1\AppData\Local\Temp\ccLLkDzL.s:23451  .debug_str:000000000001430f .LASF5506
C:\Users\SOLDER~1\AppData\Local\Temp\ccLLkDzL.s:21721  .debug_str:000000000000d18c .LASF5507
C:\Users\SOLDER~1\AppData\Local\Temp\ccLLkDzL.s:26627  .debug_str:0000000000021191 .LASF5508
C:\Users\SOLDER~1\AppData\Local\Temp\ccLLkDzL.s:26399  .debug_str:000000000002027d .LASF5509
C:\Users\SOLDER~1\AppData\Local\Temp\ccLLkDzL.s:23529  .debug_str:000000000001485f .LASF5510
C:\Users\SOLDER~1\AppData\Local\Temp\ccLLkDzL.s:22773  .debug_str:00000000000115cf .LASF5511
C:\Users\SOLDER~1\AppData\Local\Temp\ccLLkDzL.s:26637  .debug_str:0000000000021234 .LASF5512
C:\Users\SOLDER~1\AppData\Local\Temp\ccLLkDzL.s:26559  .debug_str:0000000000020cf3 .LASF5513
C:\Users\SOLDER~1\AppData\Local\Temp\ccLLkDzL.s:20225  .debug_str:0000000000006f6e .LASF5514
C:\Users\SOLDER~1\AppData\Local\Temp\ccLLkDzL.s:22455  .debug_str:000000000001017f .LASF5515
C:\Users\SOLDER~1\AppData\Local\Temp\ccLLkDzL.s:28265  .debug_str:0000000000027d23 .LASF5516
C:\Users\SOLDER~1\AppData\Local\Temp\ccLLkDzL.s:28821  .debug_str:000000000002a19e .LASF5517
C:\Users\SOLDER~1\AppData\Local\Temp\ccLLkDzL.s:25331  .debug_str:000000000001bc58 .LASF5518
C:\Users\SOLDER~1\AppData\Local\Temp\ccLLkDzL.s:29769  .debug_str:000000000002df05 .LASF5519
C:\Users\SOLDER~1\AppData\Local\Temp\ccLLkDzL.s:29263  .debug_str:000000000002be40 .LASF5520
C:\Users\SOLDER~1\AppData\Local\Temp\ccLLkDzL.s:27121  .debug_str:000000000002314c .LASF5521
C:\Users\SOLDER~1\AppData\Local\Temp\ccLLkDzL.s:18875  .debug_str:000000000000181c .LASF5522
C:\Users\SOLDER~1\AppData\Local\Temp\ccLLkDzL.s:23223  .debug_str:0000000000013315 .LASF5523
C:\Users\SOLDER~1\AppData\Local\Temp\ccLLkDzL.s:22935  .debug_str:0000000000012027 .LASF5524
C:\Users\SOLDER~1\AppData\Local\Temp\ccLLkDzL.s:22469  .debug_str:0000000000010288 .LASF5525
C:\Users\SOLDER~1\AppData\Local\Temp\ccLLkDzL.s:27459  .debug_str:00000000000247ae .LASF5526
C:\Users\SOLDER~1\AppData\Local\Temp\ccLLkDzL.s:18733  .debug_str:0000000000000f22 .LASF5527
C:\Users\SOLDER~1\AppData\Local\Temp\ccLLkDzL.s:26271  .debug_str:000000000001fa6a .LASF5528
C:\Users\SOLDER~1\AppData\Local\Temp\ccLLkDzL.s:29525  .debug_str:000000000002cf86 .LASF5529
C:\Users\SOLDER~1\AppData\Local\Temp\ccLLkDzL.s:26041  .debug_str:000000000001eb2b .LASF5530
C:\Users\SOLDER~1\AppData\Local\Temp\ccLLkDzL.s:24869  .debug_str:0000000000019ebc .LASF5531
C:\Users\SOLDER~1\AppData\Local\Temp\ccLLkDzL.s:20241  .debug_str:0000000000007087 .LASF5532
C:\Users\SOLDER~1\AppData\Local\Temp\ccLLkDzL.s:28755  .debug_str:0000000000029d04 .LASF5533
C:\Users\SOLDER~1\AppData\Local\Temp\ccLLkDzL.s:23089  .debug_str:0000000000012a1f .LASF5534
C:\Users\SOLDER~1\AppData\Local\Temp\ccLLkDzL.s:29925  .debug_str:000000000002e951 .LASF5535
C:\Users\SOLDER~1\AppData\Local\Temp\ccLLkDzL.s:21797  .debug_str:000000000000d699 .LASF5536
C:\Users\SOLDER~1\AppData\Local\Temp\ccLLkDzL.s:26921  .debug_str:0000000000022428 .LASF5537
C:\Users\SOLDER~1\AppData\Local\Temp\ccLLkDzL.s:21729  .debug_str:000000000000d204 .LASF5538
C:\Users\SOLDER~1\AppData\Local\Temp\ccLLkDzL.s:27909  .debug_str:00000000000265ac .LASF5539
C:\Users\SOLDER~1\AppData\Local\Temp\ccLLkDzL.s:21741  .debug_str:000000000000d2e2 .LASF5540
C:\Users\SOLDER~1\AppData\Local\Temp\ccLLkDzL.s:28739  .debug_str:0000000000029bf8 .LASF5541
C:\Users\SOLDER~1\AppData\Local\Temp\ccLLkDzL.s:29115  .debug_str:000000000002b492 .LASF5542
C:\Users\SOLDER~1\AppData\Local\Temp\ccLLkDzL.s:26947  .debug_str:00000000000225d6 .LASF5543
C:\Users\SOLDER~1\AppData\Local\Temp\ccLLkDzL.s:28169  .debug_str:00000000000276df .LASF5544
C:\Users\SOLDER~1\AppData\Local\Temp\ccLLkDzL.s:23627  .debug_str:0000000000014ead .LASF5545
C:\Users\SOLDER~1\AppData\Local\Temp\ccLLkDzL.s:29687  .debug_str:000000000002d9c8 .LASF5546
C:\Users\SOLDER~1\AppData\Local\Temp\ccLLkDzL.s:24447  .debug_str:0000000000018386 .LASF5547
C:\Users\SOLDER~1\AppData\Local\Temp\ccLLkDzL.s:25621  .debug_str:000000000001cff3 .LASF5548
GAS LISTING C:\Users\SOLDER~1\AppData\Local\Temp\ccLLkDzL.s 			page 111


C:\Users\SOLDER~1\AppData\Local\Temp\ccLLkDzL.s:23317  .debug_str:00000000000139d8 .LASF5549
C:\Users\SOLDER~1\AppData\Local\Temp\ccLLkDzL.s:20963  .debug_str:0000000000009f84 .LASF5550
C:\Users\SOLDER~1\AppData\Local\Temp\ccLLkDzL.s:25641  .debug_str:000000000001d15c .LASF5551
C:\Users\SOLDER~1\AppData\Local\Temp\ccLLkDzL.s:21093  .debug_str:000000000000a82a .LASF5552
C:\Users\SOLDER~1\AppData\Local\Temp\ccLLkDzL.s:27783  .debug_str:0000000000025d04 .LASF5553
C:\Users\SOLDER~1\AppData\Local\Temp\ccLLkDzL.s:19221  .debug_str:0000000000002e61 .LASF5554
C:\Users\SOLDER~1\AppData\Local\Temp\ccLLkDzL.s:19653  .debug_str:00000000000049fb .LASF5555
C:\Users\SOLDER~1\AppData\Local\Temp\ccLLkDzL.s:21197  .debug_str:000000000000aef7 .LASF5556
C:\Users\SOLDER~1\AppData\Local\Temp\ccLLkDzL.s:24655  .debug_str:000000000001912b .LASF5557
C:\Users\SOLDER~1\AppData\Local\Temp\ccLLkDzL.s:21753  .debug_str:000000000000d3bb .LASF5558
C:\Users\SOLDER~1\AppData\Local\Temp\ccLLkDzL.s:27197  .debug_str:0000000000023673 .LASF5559
C:\Users\SOLDER~1\AppData\Local\Temp\ccLLkDzL.s:28333  .debug_str:0000000000028191 .LASF5560
C:\Users\SOLDER~1\AppData\Local\Temp\ccLLkDzL.s:21227  .debug_str:000000000000b0b7 .LASF5561
C:\Users\SOLDER~1\AppData\Local\Temp\ccLLkDzL.s:25755  .debug_str:000000000001d851 .LASF5562
C:\Users\SOLDER~1\AppData\Local\Temp\ccLLkDzL.s:28271  .debug_str:0000000000027d79 .LASF5563
C:\Users\SOLDER~1\AppData\Local\Temp\ccLLkDzL.s:25495  .debug_str:000000000001c75e .LASF5564
C:\Users\SOLDER~1\AppData\Local\Temp\ccLLkDzL.s:29887  .debug_str:000000000002e6bb .LASF5565
C:\Users\SOLDER~1\AppData\Local\Temp\ccLLkDzL.s:28967  .debug_str:000000000002aaee .LASF5566
C:\Users\SOLDER~1\AppData\Local\Temp\ccLLkDzL.s:29239  .debug_str:000000000002bc8f .LASF5567
C:\Users\SOLDER~1\AppData\Local\Temp\ccLLkDzL.s:24709  .debug_str:0000000000019500 .LASF5568
C:\Users\SOLDER~1\AppData\Local\Temp\ccLLkDzL.s:20173  .debug_str:0000000000006bc3 .LASF5569
C:\Users\SOLDER~1\AppData\Local\Temp\ccLLkDzL.s:18751  .debug_str:000000000000101f .LASF5570
C:\Users\SOLDER~1\AppData\Local\Temp\ccLLkDzL.s:27001  .debug_str:00000000000229a6 .LASF5571
C:\Users\SOLDER~1\AppData\Local\Temp\ccLLkDzL.s:18657  .debug_str:0000000000000a04 .LASF5572
C:\Users\SOLDER~1\AppData\Local\Temp\ccLLkDzL.s:23345  .debug_str:0000000000013bcc .LASF5573
C:\Users\SOLDER~1\AppData\Local\Temp\ccLLkDzL.s:22717  .debug_str:000000000001122d .LASF5574
C:\Users\SOLDER~1\AppData\Local\Temp\ccLLkDzL.s:27451  .debug_str:000000000002470e .LASF5575
C:\Users\SOLDER~1\AppData\Local\Temp\ccLLkDzL.s:18771  .debug_str:0000000000001162 .LASF5576
C:\Users\SOLDER~1\AppData\Local\Temp\ccLLkDzL.s:24157  .debug_str:0000000000017090 .LASF5577
C:\Users\SOLDER~1\AppData\Local\Temp\ccLLkDzL.s:22979  .debug_str:00000000000122cb .LASF5578
C:\Users\SOLDER~1\AppData\Local\Temp\ccLLkDzL.s:20331  .debug_str:0000000000007622 .LASF5579
C:\Users\SOLDER~1\AppData\Local\Temp\ccLLkDzL.s:22047  .debug_str:000000000000e70c .LASF5580
C:\Users\SOLDER~1\AppData\Local\Temp\ccLLkDzL.s:23065  .debug_str:000000000001287d .LASF5581
C:\Users\SOLDER~1\AppData\Local\Temp\ccLLkDzL.s:24849  .debug_str:0000000000019d60 .LASF5582
C:\Users\SOLDER~1\AppData\Local\Temp\ccLLkDzL.s:24705  .debug_str:00000000000194ae .LASF5583
C:\Users\SOLDER~1\AppData\Local\Temp\ccLLkDzL.s:24965  .debug_str:000000000001a4cb .LASF5584
C:\Users\SOLDER~1\AppData\Local\Temp\ccLLkDzL.s:26159  .debug_str:000000000001f318 .LASF5585
C:\Users\SOLDER~1\AppData\Local\Temp\ccLLkDzL.s:22955  .debug_str:0000000000012158 .LASF5586
C:\Users\SOLDER~1\AppData\Local\Temp\ccLLkDzL.s:29013  .debug_str:000000000002adb6 .LASF5587
C:\Users\SOLDER~1\AppData\Local\Temp\ccLLkDzL.s:20723  .debug_str:0000000000008fd1 .LASF5588
C:\Users\SOLDER~1\AppData\Local\Temp\ccLLkDzL.s:26617  .debug_str:00000000000210ef .LASF5589
C:\Users\SOLDER~1\AppData\Local\Temp\ccLLkDzL.s:22367  .debug_str:000000000000fc09 .LASF5590
C:\Users\SOLDER~1\AppData\Local\Temp\ccLLkDzL.s:21095  .debug_str:000000000000a85c .LASF5591
C:\Users\SOLDER~1\AppData\Local\Temp\ccLLkDzL.s:24555  .debug_str:0000000000018aac .LASF5592
C:\Users\SOLDER~1\AppData\Local\Temp\ccLLkDzL.s:19953  .debug_str:0000000000005d1d .LASF5593
C:\Users\SOLDER~1\AppData\Local\Temp\ccLLkDzL.s:20361  .debug_str:00000000000077cd .LASF5594
C:\Users\SOLDER~1\AppData\Local\Temp\ccLLkDzL.s:21011  .debug_str:000000000000a2bb .LASF5595
C:\Users\SOLDER~1\AppData\Local\Temp\ccLLkDzL.s:27073  .debug_str:0000000000022e25 .LASF5596
C:\Users\SOLDER~1\AppData\Local\Temp\ccLLkDzL.s:25745  .debug_str:000000000001d7a1 .LASF5597
C:\Users\SOLDER~1\AppData\Local\Temp\ccLLkDzL.s:18621  .debug_str:0000000000000771 .LASF5598
C:\Users\SOLDER~1\AppData\Local\Temp\ccLLkDzL.s:22583  .debug_str:00000000000109bf .LASF5599
C:\Users\SOLDER~1\AppData\Local\Temp\ccLLkDzL.s:29547  .debug_str:000000000002d0f9 .LASF5600
C:\Users\SOLDER~1\AppData\Local\Temp\ccLLkDzL.s:19707  .debug_str:0000000000004d79 .LASF5601
C:\Users\SOLDER~1\AppData\Local\Temp\ccLLkDzL.s:27283  .debug_str:0000000000023bd3 .LASF5602
C:\Users\SOLDER~1\AppData\Local\Temp\ccLLkDzL.s:28225  .debug_str:0000000000027a48 .LASF5603
C:\Users\SOLDER~1\AppData\Local\Temp\ccLLkDzL.s:26799  .debug_str:0000000000021c84 .LASF5604
C:\Users\SOLDER~1\AppData\Local\Temp\ccLLkDzL.s:26749  .debug_str:0000000000021960 .LASF5605
GAS LISTING C:\Users\SOLDER~1\AppData\Local\Temp\ccLLkDzL.s 			page 112


C:\Users\SOLDER~1\AppData\Local\Temp\ccLLkDzL.s:26355  .debug_str:000000000001ffa1 .LASF5606
C:\Users\SOLDER~1\AppData\Local\Temp\ccLLkDzL.s:18951  .debug_str:0000000000001d14 .LASF5607
C:\Users\SOLDER~1\AppData\Local\Temp\ccLLkDzL.s:28495  .debug_str:0000000000028bfe .LASF5608
C:\Users\SOLDER~1\AppData\Local\Temp\ccLLkDzL.s:25617  .debug_str:000000000001cfb1 .LASF5609
C:\Users\SOLDER~1\AppData\Local\Temp\ccLLkDzL.s:29495  .debug_str:000000000002cd42 .LASF5610
C:\Users\SOLDER~1\AppData\Local\Temp\ccLLkDzL.s:20179  .debug_str:0000000000006c10 .LASF5611
C:\Users\SOLDER~1\AppData\Local\Temp\ccLLkDzL.s:21467  .debug_str:000000000000c072 .LASF5612
C:\Users\SOLDER~1\AppData\Local\Temp\ccLLkDzL.s:28735  .debug_str:0000000000029bab .LASF5613
C:\Users\SOLDER~1\AppData\Local\Temp\ccLLkDzL.s:24559  .debug_str:0000000000018ae7 .LASF5614
C:\Users\SOLDER~1\AppData\Local\Temp\ccLLkDzL.s:27395  .debug_str:0000000000024351 .LASF5615
C:\Users\SOLDER~1\AppData\Local\Temp\ccLLkDzL.s:25799  .debug_str:000000000001db38 .LASF5616
C:\Users\SOLDER~1\AppData\Local\Temp\ccLLkDzL.s:24103  .debug_str:0000000000016ce4 .LASF5617
C:\Users\SOLDER~1\AppData\Local\Temp\ccLLkDzL.s:19835  .debug_str:000000000000551d .LASF5618
C:\Users\SOLDER~1\AppData\Local\Temp\ccLLkDzL.s:23967  .debug_str:0000000000016499 .LASF5619
C:\Users\SOLDER~1\AppData\Local\Temp\ccLLkDzL.s:27903  .debug_str:0000000000026543 .LASF5620
C:\Users\SOLDER~1\AppData\Local\Temp\ccLLkDzL.s:22743  .debug_str:000000000001142b .LASF5621
C:\Users\SOLDER~1\AppData\Local\Temp\ccLLkDzL.s:25111  .debug_str:000000000001ae86 .LASF5622
C:\Users\SOLDER~1\AppData\Local\Temp\ccLLkDzL.s:18613  .debug_str:00000000000006f6 .LASF5623
C:\Users\SOLDER~1\AppData\Local\Temp\ccLLkDzL.s:21125  .debug_str:000000000000aa65 .LASF5624
C:\Users\SOLDER~1\AppData\Local\Temp\ccLLkDzL.s:25863  .debug_str:000000000001df7d .LASF5625
C:\Users\SOLDER~1\AppData\Local\Temp\ccLLkDzL.s:23043  .debug_str:0000000000012719 .LASF5626
C:\Users\SOLDER~1\AppData\Local\Temp\ccLLkDzL.s:23297  .debug_str:0000000000013841 .LASF5627
C:\Users\SOLDER~1\AppData\Local\Temp\ccLLkDzL.s:21501  .debug_str:000000000000c2d3 .LASF5628
C:\Users\SOLDER~1\AppData\Local\Temp\ccLLkDzL.s:26561  .debug_str:0000000000020d11 .LASF5629
C:\Users\SOLDER~1\AppData\Local\Temp\ccLLkDzL.s:24191  .debug_str:00000000000172d2 .LASF5630
C:\Users\SOLDER~1\AppData\Local\Temp\ccLLkDzL.s:28411  .debug_str:00000000000286be .LASF5631
C:\Users\SOLDER~1\AppData\Local\Temp\ccLLkDzL.s:24197  .debug_str:0000000000017340 .LASF5632
C:\Users\SOLDER~1\AppData\Local\Temp\ccLLkDzL.s:29717  .debug_str:000000000002dbd1 .LASF5633
C:\Users\SOLDER~1\AppData\Local\Temp\ccLLkDzL.s:23973  .debug_str:00000000000164dd .LASF5634
C:\Users\SOLDER~1\AppData\Local\Temp\ccLLkDzL.s:25557  .debug_str:000000000001cbac .LASF5635
C:\Users\SOLDER~1\AppData\Local\Temp\ccLLkDzL.s:27145  .debug_str:000000000002331c .LASF5636
C:\Users\SOLDER~1\AppData\Local\Temp\ccLLkDzL.s:22619  .debug_str:0000000000010bee .LASF5637
C:\Users\SOLDER~1\AppData\Local\Temp\ccLLkDzL.s:24457  .debug_str:0000000000018439 .LASF5638
C:\Users\SOLDER~1\AppData\Local\Temp\ccLLkDzL.s:20581  .debug_str:0000000000008656 .LASF5639
C:\Users\SOLDER~1\AppData\Local\Temp\ccLLkDzL.s:23279  .debug_str:00000000000136c8 .LASF5640
C:\Users\SOLDER~1\AppData\Local\Temp\ccLLkDzL.s:26717  .debug_str:0000000000021731 .LASF5641
C:\Users\SOLDER~1\AppData\Local\Temp\ccLLkDzL.s:29031  .debug_str:000000000002af13 .LASF5642
C:\Users\SOLDER~1\AppData\Local\Temp\ccLLkDzL.s:21049  .debug_str:000000000000a523 .LASF5643
C:\Users\SOLDER~1\AppData\Local\Temp\ccLLkDzL.s:26585  .debug_str:0000000000020ea8 .LASF5644
C:\Users\SOLDER~1\AppData\Local\Temp\ccLLkDzL.s:23109  .debug_str:0000000000012b94 .LASF5645
C:\Users\SOLDER~1\AppData\Local\Temp\ccLLkDzL.s:27409  .debug_str:000000000002444d .LASF5646
C:\Users\SOLDER~1\AppData\Local\Temp\ccLLkDzL.s:23583  .debug_str:0000000000014c0a .LASF5647
C:\Users\SOLDER~1\AppData\Local\Temp\ccLLkDzL.s:26963  .debug_str:00000000000226f0 .LASF5648
C:\Users\SOLDER~1\AppData\Local\Temp\ccLLkDzL.s:29927  .debug_str:000000000002e975 .LASF5649
C:\Users\SOLDER~1\AppData\Local\Temp\ccLLkDzL.s:29291  .debug_str:000000000002c056 .LASF5650
C:\Users\SOLDER~1\AppData\Local\Temp\ccLLkDzL.s:28589  .debug_str:0000000000029210 .LASF5651
C:\Users\SOLDER~1\AppData\Local\Temp\ccLLkDzL.s:20191  .debug_str:0000000000006ce9 .LASF5652
C:\Users\SOLDER~1\AppData\Local\Temp\ccLLkDzL.s:23581  .debug_str:0000000000014be4 .LASF5653
C:\Users\SOLDER~1\AppData\Local\Temp\ccLLkDzL.s:20187  .debug_str:0000000000006cac .LASF5654
C:\Users\SOLDER~1\AppData\Local\Temp\ccLLkDzL.s:27095  .debug_str:0000000000022fa6 .LASF5655
C:\Users\SOLDER~1\AppData\Local\Temp\ccLLkDzL.s:29109  .debug_str:000000000002b433 .LASF5656
C:\Users\SOLDER~1\AppData\Local\Temp\ccLLkDzL.s:19307  .debug_str:000000000000341d .LASF5657
C:\Users\SOLDER~1\AppData\Local\Temp\ccLLkDzL.s:29093  .debug_str:000000000002b325 .LASF5658
C:\Users\SOLDER~1\AppData\Local\Temp\ccLLkDzL.s:25929  .debug_str:000000000001e376 .LASF5659
C:\Users\SOLDER~1\AppData\Local\Temp\ccLLkDzL.s:22471  .debug_str:00000000000102ad .LASF5660
C:\Users\SOLDER~1\AppData\Local\Temp\ccLLkDzL.s:20151  .debug_str:0000000000006a55 .LASF5661
C:\Users\SOLDER~1\AppData\Local\Temp\ccLLkDzL.s:22209  .debug_str:000000000000f132 .LASF5662
GAS LISTING C:\Users\SOLDER~1\AppData\Local\Temp\ccLLkDzL.s 			page 113


C:\Users\SOLDER~1\AppData\Local\Temp\ccLLkDzL.s:19091  .debug_str:0000000000002621 .LASF5663
C:\Users\SOLDER~1\AppData\Local\Temp\ccLLkDzL.s:19309  .debug_str:000000000000343e .LASF5664
C:\Users\SOLDER~1\AppData\Local\Temp\ccLLkDzL.s:22611  .debug_str:0000000000010b6d .LASF5665
C:\Users\SOLDER~1\AppData\Local\Temp\ccLLkDzL.s:20763  .debug_str:0000000000009277 .LASF5666
C:\Users\SOLDER~1\AppData\Local\Temp\ccLLkDzL.s:19859  .debug_str:00000000000056c0 .LASF5667
C:\Users\SOLDER~1\AppData\Local\Temp\ccLLkDzL.s:27759  .debug_str:0000000000025b66 .LASF5668
C:\Users\SOLDER~1\AppData\Local\Temp\ccLLkDzL.s:21641  .debug_str:000000000000cc43 .LASF5669
C:\Users\SOLDER~1\AppData\Local\Temp\ccLLkDzL.s:20235  .debug_str:0000000000007019 .LASF5670
C:\Users\SOLDER~1\AppData\Local\Temp\ccLLkDzL.s:30009  .debug_str:000000000002ee5b .LASF5671
C:\Users\SOLDER~1\AppData\Local\Temp\ccLLkDzL.s:20565  .debug_str:0000000000008552 .LASF5672
C:\Users\SOLDER~1\AppData\Local\Temp\ccLLkDzL.s:20249  .debug_str:0000000000007107 .LASF5673
C:\Users\SOLDER~1\AppData\Local\Temp\ccLLkDzL.s:23881  .debug_str:0000000000015f3b .LASF5674
C:\Users\SOLDER~1\AppData\Local\Temp\ccLLkDzL.s:29825  .debug_str:000000000002e283 .LASF5675
C:\Users\SOLDER~1\AppData\Local\Temp\ccLLkDzL.s:18949  .debug_str:0000000000001cf3 .LASF5676
C:\Users\SOLDER~1\AppData\Local\Temp\ccLLkDzL.s:23701  .debug_str:00000000000153a8 .LASF5677
C:\Users\SOLDER~1\AppData\Local\Temp\ccLLkDzL.s:29619  .debug_str:000000000002d56c .LASF5678
C:\Users\SOLDER~1\AppData\Local\Temp\ccLLkDzL.s:26107  .debug_str:000000000001ef8c .LASF5679
C:\Users\SOLDER~1\AppData\Local\Temp\ccLLkDzL.s:22645  .debug_str:0000000000010da8 .LASF5680
C:\Users\SOLDER~1\AppData\Local\Temp\ccLLkDzL.s:27267  .debug_str:0000000000023ac5 .LASF5681
C:\Users\SOLDER~1\AppData\Local\Temp\ccLLkDzL.s:26781  .debug_str:0000000000021b73 .LASF5682
C:\Users\SOLDER~1\AppData\Local\Temp\ccLLkDzL.s:19323  .debug_str:0000000000003512 .LASF5683
C:\Users\SOLDER~1\AppData\Local\Temp\ccLLkDzL.s:28153  .debug_str:00000000000275da .LASF5684
C:\Users\SOLDER~1\AppData\Local\Temp\ccLLkDzL.s:23631  .debug_str:0000000000014f03 .LASF5685
C:\Users\SOLDER~1\AppData\Local\Temp\ccLLkDzL.s:25597  .debug_str:000000000001ce31 .LASF5686
C:\Users\SOLDER~1\AppData\Local\Temp\ccLLkDzL.s:29251  .debug_str:000000000002bd61 .LASF5687
C:\Users\SOLDER~1\AppData\Local\Temp\ccLLkDzL.s:27613  .debug_str:000000000002519a .LASF5688
C:\Users\SOLDER~1\AppData\Local\Temp\ccLLkDzL.s:25051  .debug_str:000000000001aa74 .LASF5689
C:\Users\SOLDER~1\AppData\Local\Temp\ccLLkDzL.s:25043  .debug_str:000000000001a9e6 .LASF5690
C:\Users\SOLDER~1\AppData\Local\Temp\ccLLkDzL.s:25385  .debug_str:000000000001bfe3 .LASF5691
C:\Users\SOLDER~1\AppData\Local\Temp\ccLLkDzL.s:23569  .debug_str:0000000000014b1d .LASF5692
C:\Users\SOLDER~1\AppData\Local\Temp\ccLLkDzL.s:23013  .debug_str:000000000001253f .LASF5693
C:\Users\SOLDER~1\AppData\Local\Temp\ccLLkDzL.s:25049  .debug_str:000000000001aa52 .LASF5694
C:\Users\SOLDER~1\AppData\Local\Temp\ccLLkDzL.s:29827  .debug_str:000000000002e2a6 .LASF5695
C:\Users\SOLDER~1\AppData\Local\Temp\ccLLkDzL.s:29739  .debug_str:000000000002dd47 .LASF5696
C:\Users\SOLDER~1\AppData\Local\Temp\ccLLkDzL.s:22441  .debug_str:00000000000100b6 .LASF5697
C:\Users\SOLDER~1\AppData\Local\Temp\ccLLkDzL.s:29097  .debug_str:000000000002b368 .LASF5698
C:\Users\SOLDER~1\AppData\Local\Temp\ccLLkDzL.s:25803  .debug_str:000000000001db89 .LASF5699
C:\Users\SOLDER~1\AppData\Local\Temp\ccLLkDzL.s:22835  .debug_str:00000000000119d8 .LASF5700
C:\Users\SOLDER~1\AppData\Local\Temp\ccLLkDzL.s:20409  .debug_str:0000000000007b14 .LASF5701
C:\Users\SOLDER~1\AppData\Local\Temp\ccLLkDzL.s:29323  .debug_str:000000000002c25d .LASF5702
C:\Users\SOLDER~1\AppData\Local\Temp\ccLLkDzL.s:21433  .debug_str:000000000000be23 .LASF5703
C:\Users\SOLDER~1\AppData\Local\Temp\ccLLkDzL.s:21627  .debug_str:000000000000cb70 .LASF5704
C:\Users\SOLDER~1\AppData\Local\Temp\ccLLkDzL.s:25715  .debug_str:000000000001d5f0 .LASF5705
C:\Users\SOLDER~1\AppData\Local\Temp\ccLLkDzL.s:25125  .debug_str:000000000001af28 .LASF5706
C:\Users\SOLDER~1\AppData\Local\Temp\ccLLkDzL.s:24593  .debug_str:0000000000018d43 .LASF5707
C:\Users\SOLDER~1\AppData\Local\Temp\ccLLkDzL.s:27309  .debug_str:0000000000023d9e .LASF5708
C:\Users\SOLDER~1\AppData\Local\Temp\ccLLkDzL.s:22987  .debug_str:0000000000012361 .LASF5709
C:\Users\SOLDER~1\AppData\Local\Temp\ccLLkDzL.s:20673  .debug_str:0000000000008c51 .LASF5710
C:\Users\SOLDER~1\AppData\Local\Temp\ccLLkDzL.s:19895  .debug_str:0000000000005948 .LASF5711
                           .group:0000000000000000 wm4.0.cc27e0d2094b492664a2491ca1ae43b0
                           .group:0000000000000000 wm4.ch32v20x.h.13.a030255a3e90e7179ae3b08da8e2408d
                           .group:0000000000000000 wm4._newlib_version.h.4.529115dae5e4f67702b1de0b6e841f38
                           .group:0000000000000000 wm4.features.h.33.3e67abe6fb64142d4f6fa9496796153c
                           .group:0000000000000000 wm4._default_types.h.15.247e5cd201eca3442cbf5404108c4935
                           .group:0000000000000000 wm4._intsup.h.10.48bafbb683905c4daa4565a85aeeb264
                           .group:0000000000000000 wm4._stdint.h.10.c24fa3af3bc1706662bb5593a907e841
                           .group:0000000000000000 wm4.stdint.h.23.d53047a68f4a85177f80b422d52785ed
GAS LISTING C:\Users\SOLDER~1\AppData\Local\Temp\ccLLkDzL.s 			page 114


                           .group:0000000000000000 wm4.core_riscv.h.11.151d7acb41e203dcc664023294f59bdc
                           .group:0000000000000000 wm4.ch32v20x.h.153.1d8393f26361703471ea96fe9aa4b4f9
                           .group:0000000000000000 wm4.ch32v20x_adc.h.56.f131972e7ce35efbe3b5c47a075d6d1b
                           .group:0000000000000000 wm4.ch32v20x_bkp.h.14.0a7965eb5be5000a494c3059b6f0eca5
                           .group:0000000000000000 wm4.ch32v20x_can.h.14.aa1dae2c28cbaf083875b4b61810c3c7
                           .group:0000000000000000 wm4.ch32v20x_dbgmcu.h.14.26ef95879978d9caaa154b373f3a512b
                           .group:0000000000000000 wm4.ch32v20x_dma.h.14.425a907348dd0134bf6e82c73bbd3df8
                           .group:0000000000000000 wm4.ch32v20x_exti.h.14.f67190d3fb91aa9aecce0f4d5a543221
                           .group:0000000000000000 wm4.ch32v20x_flash.h.14.91c5ecdad44f358d5032244aabf7ef4e
                           .group:0000000000000000 wm4.ch32v20x_gpio.h.14.bdb7f79cce0dffbc24dc81ea80f90bd2
                           .group:0000000000000000 wm4.ch32v20x_i2c.h.14.101eb625c9d2afac400f4e8ac2e9fb1d
                           .group:0000000000000000 wm4.ch32v20x_iwdg.h.14.26025d04ceeb3151185969ed5850fbb4
                           .group:0000000000000000 wm4.ch32v20x_pwr.h.14.8eaa3508938f71b27f140895c21602e6
                           .group:0000000000000000 wm4.ch32v20x_rcc.h.13.18c6b8696a30372de01acaf3c246ecb8
                           .group:0000000000000000 wm4.ch32v20x_rtc.h.14.eb8734f5dd75abcf831b4f12ec49aebe
                           .group:0000000000000000 wm4.ch32v20x_spi.h.14.f12b1f237c615e7304ae62cc2e2c3c1a
                           .group:0000000000000000 wm4.ch32v20x_tim.h.14.35d11fab62898d9d661122ade86d8a6c
                           .group:0000000000000000 wm4.ch32v20x_usart.h.14.9d28c7ec28f2121810b69a55079cd38f
                           .group:0000000000000000 wm4.ch32v20x_misc.h.14.f3992cf724c30ec0bea268444ffdb6e0
                           .group:0000000000000000 wm4.ch32v20x_wwdg.h.23.62cfaac146312648df119ecc3039377e

UNDEFINED SYMBOLS
RCC_APB1PeriphResetCmd
