GAS LISTING C:\Users\SOLDER~1\AppData\Local\Temp\ccqxjBbT.s 			page 1


   1              		.file	"ch32v203xx_it.c"
   2              		.option nopic
   3              		.attribute arch, "rv32i2p0_m2p0_a2p0_c2p0_xw"
   4              		.attribute unaligned_access, 0
   5              		.attribute stack_align, 16
   6              		.text
   7              	.Ltext0:
   8              		.cfi_sections	.debug_frame
   9              		.file 0 "C:\\Users\\Solderingiron\\Documents\\GitHub\\VSC-make-example\\VSC_CH32V203C8T6" "Core/Sr
  10              		.section	.text.SysTick_Handler,"ax",@progbits
  11              		.align	1
  12              		.globl	SysTick_Handler
  14              	SysTick_Handler:
  15              	.LFB16:
  16              		.file 1 "Core/Src/ch32v203xx_it.c"
   1:Core/Src/ch32v203xx_it.c **** /*
   2:Core/Src/ch32v203xx_it.c ****  * ch32v203xx_it.c
   3:Core/Src/ch32v203xx_it.c ****  *
   4:Core/Src/ch32v203xx_it.c ****  *  Created on: Aug 17, 2023
   5:Core/Src/ch32v203xx_it.c ****  *      Author: Oleg Volkov
   6:Core/Src/ch32v203xx_it.c ****  */
   7:Core/Src/ch32v203xx_it.c **** 
   8:Core/Src/ch32v203xx_it.c **** 
   9:Core/Src/ch32v203xx_it.c ****  #include "ch32v203xx_it.h"
  10:Core/Src/ch32v203xx_it.c **** 
  11:Core/Src/ch32v203xx_it.c ****  extern volatile uint32_t SysTimer_ms; //–ü–µ—Ä–µ–º–µ–Ω–Ω–∞—è, –∞–Ω–∞–ª–æ–≥–∏—á–Ω–∞—è HAL_GetTick()
  12:Core/Src/ch32v203xx_it.c ****  extern volatile uint32_t Delay_counter_ms; //–°—á–µ—Ç—á–∏–∫ –¥–ª—è —Ñ—É–Ω–∫—Ü–∏–∏ Delay_ms
  13:Core/Src/ch32v203xx_it.c ****  extern volatile uint32_t Timeout_counter_ms; //–ü–µ—Ä–µ–º–µ–Ω–Ω–∞—è –¥–ª—è —Ç–∞–π–º–∞—É—Ç–∞ —Ñ—É–Ω
  14:Core/Src/ch32v203xx_it.c ****  
  15:Core/Src/ch32v203xx_it.c ****  extern struct USART_name husart1; //–û–±—ä—è–≤–ª—è–µ–º —Å—Ç—Ä—É–∫—Ç—É—Ä—É –ø–æ USART.(—Å–º. ch32v2
  16:Core/Src/ch32v203xx_it.c ****  extern struct USART_name husart2; //–û–±—ä—è–≤–ª—è–µ–º —Å—Ç—Ä—É–∫—Ç—É—Ä—É –ø–æ USART.(—Å–º. ch32v2
  17:Core/Src/ch32v203xx_it.c ****  extern struct USART_name husart3; //–û–±—ä—è–≤–ª—è–µ–º —Å—Ç—Ä—É–∫—Ç—É—Ä—É –ø–æ USART.(—Å–º. ch32v2
  18:Core/Src/ch32v203xx_it.c ****  
  19:Core/Src/ch32v203xx_it.c ****  /*
  20:Core/Src/ch32v203xx_it.c ****   ******************************************************************************
  21:Core/Src/ch32v203xx_it.c ****   *  @breif –ü—Ä–µ—Ä—ã–≤–∞–Ω–∏–µ –ø–æ —Ñ–ª–∞–≥—É CNTIF
  22:Core/Src/ch32v203xx_it.c ****   ******************************************************************************
  23:Core/Src/ch32v203xx_it.c ****   */
  24:Core/Src/ch32v203xx_it.c ****  
  25:Core/Src/ch32v203xx_it.c ****  void SysTick_Handler(void) {
  17              		.loc 1 25 29
  18              		.cfi_startproc
  19 0000 4111     		addi	sp,sp,-16
  20              		.cfi_def_cfa_offset 16
  21 0002 22C6     		sw	s0,12(sp)
  22 0004 3AC4     		sw	a4,8(sp)
  23 0006 3EC2     		sw	a5,4(sp)
  24              		.cfi_offset 8, -4
  25              		.cfi_offset 14, -8
  26              		.cfi_offset 15, -12
  27 0008 0008     		addi	s0,sp,16
  28              		.cfi_def_cfa 8, 0
  26:Core/Src/ch32v203xx_it.c ****      SysTick->SR &= ~(1 << 0);
  29              		.loc 1 26 13
  30 000a B7F700E0 		li	a5,-536809472
  31 000e D843     		lw	a4,4(a5)
  32 0010 B7F700E0 		li	a5,-536809472
GAS LISTING C:\Users\SOLDER~1\AppData\Local\Temp\ccqxjBbT.s 			page 2


  33              		.loc 1 26 18
  34 0014 799B     		andi	a4,a4,-2
  35 0016 D8C3     		sw	a4,4(a5)
  27:Core/Src/ch32v203xx_it.c ****      SysTimer_ms++;
  36              		.loc 1 27 17
  37 0018 B7070000 		lui	a5,%hi(SysTimer_ms)
  38 001c 83A70700 		lw	a5,%lo(SysTimer_ms)(a5)
  39 0020 13871700 		addi	a4,a5,1
  40 0024 B7070000 		lui	a5,%hi(SysTimer_ms)
  41 0028 23A0E700 		sw	a4,%lo(SysTimer_ms)(a5)
  28:Core/Src/ch32v203xx_it.c ****  
  29:Core/Src/ch32v203xx_it.c ****      if (Delay_counter_ms) {
  42              		.loc 1 29 10
  43 002c B7070000 		lui	a5,%hi(Delay_counter_ms)
  44 0030 83A70700 		lw	a5,%lo(Delay_counter_ms)(a5)
  45              		.loc 1 29 9
  46 0034 99CB     		beq	a5,zero,.L2
  30:Core/Src/ch32v203xx_it.c ****          Delay_counter_ms--;
  47              		.loc 1 30 26
  48 0036 B7070000 		lui	a5,%hi(Delay_counter_ms)
  49 003a 83A70700 		lw	a5,%lo(Delay_counter_ms)(a5)
  50 003e 1387F7FF 		addi	a4,a5,-1
  51 0042 B7070000 		lui	a5,%hi(Delay_counter_ms)
  52 0046 23A0E700 		sw	a4,%lo(Delay_counter_ms)(a5)
  53              	.L2:
  31:Core/Src/ch32v203xx_it.c ****      }
  32:Core/Src/ch32v203xx_it.c ****      if (Timeout_counter_ms) {
  54              		.loc 1 32 10
  55 004a B7070000 		lui	a5,%hi(Timeout_counter_ms)
  56 004e 83A70700 		lw	a5,%lo(Timeout_counter_ms)(a5)
  57              		.loc 1 32 9
  58 0052 99CB     		beq	a5,zero,.L4
  33:Core/Src/ch32v203xx_it.c ****          Timeout_counter_ms--;
  59              		.loc 1 33 28
  60 0054 B7070000 		lui	a5,%hi(Timeout_counter_ms)
  61 0058 83A70700 		lw	a5,%lo(Timeout_counter_ms)(a5)
  62 005c 1387F7FF 		addi	a4,a5,-1
  63 0060 B7070000 		lui	a5,%hi(Timeout_counter_ms)
  64 0064 23A0E700 		sw	a4,%lo(Timeout_counter_ms)(a5)
  65              	.L4:
  34:Core/Src/ch32v203xx_it.c ****      }
  35:Core/Src/ch32v203xx_it.c ****  }
  66              		.loc 1 35 2
  67 0068 0100     		nop
  68 006a 3244     		lw	s0,12(sp)
  69              		.cfi_restore 8
  70              		.cfi_def_cfa 2, 16
  71 006c 2247     		lw	a4,8(sp)
  72              		.cfi_restore 14
  73 006e 9247     		lw	a5,4(sp)
  74              		.cfi_restore 15
  75 0070 4101     		addi	sp,sp,16
  76              		.cfi_def_cfa_offset 0
  77 0072 73002030 		mret
  78              		.cfi_endproc
  79              	.LFE16:
  81              		.section	.text.USART1_IRQHandler,"ax",@progbits
GAS LISTING C:\Users\SOLDER~1\AppData\Local\Temp\ccqxjBbT.s 			page 3


  82              		.align	1
  83              		.globl	USART1_IRQHandler
  85              	USART1_IRQHandler:
  86              	.LFB17:
  36:Core/Src/ch32v203xx_it.c ****  
  37:Core/Src/ch32v203xx_it.c ****  /**
  38:Core/Src/ch32v203xx_it.c ****   ******************************************************************************
  39:Core/Src/ch32v203xx_it.c ****   *  @breif –ü—Ä–µ—Ä—ã–≤–∞–Ω–∏–µ –ø–æ USART1
  40:Core/Src/ch32v203xx_it.c ****   ******************************************************************************
  41:Core/Src/ch32v203xx_it.c ****   */
  42:Core/Src/ch32v203xx_it.c ****  
  43:Core/Src/ch32v203xx_it.c ****  void USART1_IRQHandler(void) {
  87              		.loc 1 43 31
  88              		.cfi_startproc
  89 0000 4111     		addi	sp,sp,-16
  90              		.cfi_def_cfa_offset 16
  91 0002 22C6     		sw	s0,12(sp)
  92 0004 36C4     		sw	a3,8(sp)
  93 0006 3AC2     		sw	a4,4(sp)
  94 0008 3EC0     		sw	a5,0(sp)
  95              		.cfi_offset 8, -4
  96              		.cfi_offset 13, -8
  97              		.cfi_offset 14, -12
  98              		.cfi_offset 15, -16
  99 000a 0008     		addi	s0,sp,16
 100              		.cfi_def_cfa 8, 0
  44:Core/Src/ch32v203xx_it.c ****      if (READ_BIT(USART1->STATR, USART_STATR_RXNE)) {
 101              		.loc 1 44 10
 102 000c B7470140 		li	a5,1073823744
 103 0010 93870780 		addi	a5,a5,-2048
 104 0014 9E23     		lhu	a5,0(a5)
 105 0016 C207     		slli	a5,a5,16
 106 0018 C183     		srli	a5,a5,16
 107 001a 93F70702 		andi	a5,a5,32
 108              		.loc 1 44 9
 109 001e A5C7     		beq	a5,zero,.L6
  45:Core/Src/ch32v203xx_it.c ****          //–ï—Å–ª–∏ –ø—Ä–∏—à–ª–∏ –¥–∞–Ω–Ω—ã–µ –ø–æ USART
  46:Core/Src/ch32v203xx_it.c ****          if (husart1.rx_counter < USART_MAX_LEN_RX_BUFFER) { //–ï—Å–ª–∏ –±–∞–π—Ç –ø—Ä–∏–ª–µ—Ç–µ–ª–æ
 110              		.loc 1 46 21
 111 0020 B7070000 		lui	a5,%hi(husart1)
 112 0024 93870700 		addi	a5,a5,%lo(husart1)
 113 0028 DA2B     		lhu	a4,20(a5)
 114              		.loc 1 46 13
 115 002a CD47     		li	a5,19
 116 002c 63E7E704 		bgtu	a4,a5,.L7
  47:Core/Src/ch32v203xx_it.c ****              husart1.rx_buffer[husart1.rx_counter] = USART1->DATAR; //–°—á–∏—Ç–∞–µ–º –¥–∞–Ω–Ω—ã–µ –
 117              		.loc 1 47 60
 118 0030 B7470140 		li	a5,1073823744
 119 0034 93870780 		addi	a5,a5,-2048
 120 0038 DE23     		lhu	a5,4(a5)
 121 003a 13970701 		slli	a4,a5,16
 122 003e 4183     		srli	a4,a4,16
 123              		.loc 1 47 39
 124 0040 B7070000 		lui	a5,%hi(husart1)
 125 0044 93870700 		addi	a5,a5,%lo(husart1)
 126 0048 DE2B     		lhu	a5,20(a5)
 127 004a BE86     		mv	a3,a5
GAS LISTING C:\Users\SOLDER~1\AppData\Local\Temp\ccqxjBbT.s 			page 4


 128              		.loc 1 47 52
 129 004c 1377F70F 		andi	a4,a4,0xff
 130 0050 B7070000 		lui	a5,%hi(husart1)
 131 0054 93870700 		addi	a5,a5,%lo(husart1)
 132 0058 B697     		add	a5,a5,a3
 133 005a 98A3     		sb	a4,0(a5)
  48:Core/Src/ch32v203xx_it.c ****              husart1.rx_counter++; //–£–≤–µ–ª–∏—á–∏–º —Å—á–µ—Ç—á–∏–∫ –ø—Ä–∏–Ω—è—Ç—ã—Ö –±–∞–π—Ç –Ω–∞
 134              		.loc 1 48 21
 135 005c B7070000 		lui	a5,%hi(husart1)
 136 0060 93870700 		addi	a5,a5,%lo(husart1)
 137 0064 DE2B     		lhu	a5,20(a5)
 138              		.loc 1 48 32
 139 0066 8507     		addi	a5,a5,1
 140 0068 13970701 		slli	a4,a5,16
 141 006c 4183     		srli	a4,a4,16
 142 006e B7070000 		lui	a5,%hi(husart1)
 143 0072 93870700 		addi	a5,a5,%lo(husart1)
 144 0076 DAAB     		sh	a4,20(a5)
 145 0078 39A0     		j	.L6
 146              	.L7:
  49:Core/Src/ch32v203xx_it.c ****          } else {
  50:Core/Src/ch32v203xx_it.c ****              husart1.rx_counter = 0; //–ï—Å–ª–∏ –±–æ–ª—å—à–µ - —Å–±—Ä–æ—Å–∏–º —Å—á–µ—Ç—á–∏–∫.
 147              		.loc 1 50 33
 148 007a B7070000 		lui	a5,%hi(husart1)
 149 007e 93870700 		addi	a5,a5,%lo(husart1)
 150 0082 239A0700 		sh	zero,20(a5)
 151              	.L6:
  51:Core/Src/ch32v203xx_it.c ****          }
  52:Core/Src/ch32v203xx_it.c ****      }
  53:Core/Src/ch32v203xx_it.c ****      if (READ_BIT(USART1->STATR, USART_STATR_IDLE)) {
 152              		.loc 1 53 10
 153 0086 B7470140 		li	a5,1073823744
 154 008a 93870780 		addi	a5,a5,-2048
 155 008e 9E23     		lhu	a5,0(a5)
 156 0090 C207     		slli	a5,a5,16
 157 0092 C183     		srli	a5,a5,16
 158 0094 C18B     		andi	a5,a5,16
 159              		.loc 1 53 9
 160 0096 95C7     		beq	a5,zero,.L9
  54:Core/Src/ch32v203xx_it.c ****          //–ï—Å–ª–∏ –ø—Ä–∏–ª–µ—Ç–µ–ª —Ñ–ª–∞–≥ IDLE
  55:Core/Src/ch32v203xx_it.c ****          USART1->DATAR; //–°–±—Ä–æ—Å–∏–º —Ñ–ª–∞–≥ IDLE
 161              		.loc 1 55 16
 162 0098 B7470140 		li	a5,1073823744
 163 009c 93870780 		addi	a5,a5,-2048
 164 00a0 DE23     		lhu	a5,4(a5)
  56:Core/Src/ch32v203xx_it.c ****          husart1.rx_len = husart1.rx_counter; //–£–∑–Ω–∞–µ–º, —Å–∫–æ–ª—å–∫–æ –±–∞–π—Ç –ø–æ–ª—É—á–∏–
 165              		.loc 1 56 34
 166 00a2 B7070000 		lui	a5,%hi(husart1)
 167 00a6 93870700 		addi	a5,a5,%lo(husart1)
 168 00aa DA2B     		lhu	a4,20(a5)
 169              		.loc 1 56 25
 170 00ac B7070000 		lui	a5,%hi(husart1)
 171 00b0 93870700 		addi	a5,a5,%lo(husart1)
 172 00b4 FAAB     		sh	a4,22(a5)
  57:Core/Src/ch32v203xx_it.c ****          husart1.rx_counter = 0; //—Å–±—Ä–æ—Å–∏–º —Å—á–µ—Ç—á–∏–∫ –ø—Ä–∏—Ö–æ–¥—è—â–∏—Ö –¥–∞–Ω–Ω—ã—Ö
 173              		.loc 1 57 29
 174 00b6 B7070000 		lui	a5,%hi(husart1)
GAS LISTING C:\Users\SOLDER~1\AppData\Local\Temp\ccqxjBbT.s 			page 5


 175 00ba 93870700 		addi	a5,a5,%lo(husart1)
 176 00be 239A0700 		sh	zero,20(a5)
 177              	.L9:
  58:Core/Src/ch32v203xx_it.c ****      }
  59:Core/Src/ch32v203xx_it.c ****  }
 178              		.loc 1 59 2
 179 00c2 0100     		nop
 180 00c4 3244     		lw	s0,12(sp)
 181              		.cfi_restore 8
 182              		.cfi_def_cfa 2, 16
 183 00c6 A246     		lw	a3,8(sp)
 184              		.cfi_restore 13
 185 00c8 1247     		lw	a4,4(sp)
 186              		.cfi_restore 14
 187 00ca 8247     		lw	a5,0(sp)
 188              		.cfi_restore 15
 189 00cc 4101     		addi	sp,sp,16
 190              		.cfi_def_cfa_offset 0
 191 00ce 73002030 		mret
 192              		.cfi_endproc
 193              	.LFE17:
 195              		.section	.text.USART2_IRQHandler,"ax",@progbits
 196              		.align	1
 197              		.globl	USART2_IRQHandler
 199              	USART2_IRQHandler:
 200              	.LFB18:
  60:Core/Src/ch32v203xx_it.c ****  
  61:Core/Src/ch32v203xx_it.c ****  /**
  62:Core/Src/ch32v203xx_it.c ****   ******************************************************************************
  63:Core/Src/ch32v203xx_it.c ****   *  @breif –ü—Ä–µ—Ä—ã–≤–∞–Ω–∏–µ –ø–æ USART2
  64:Core/Src/ch32v203xx_it.c ****   ******************************************************************************
  65:Core/Src/ch32v203xx_it.c ****   */
  66:Core/Src/ch32v203xx_it.c ****  
  67:Core/Src/ch32v203xx_it.c ****  void USART2_IRQHandler(void) {
 201              		.loc 1 67 31
 202              		.cfi_startproc
 203 0000 4111     		addi	sp,sp,-16
 204              		.cfi_def_cfa_offset 16
 205 0002 22C6     		sw	s0,12(sp)
 206 0004 36C4     		sw	a3,8(sp)
 207 0006 3AC2     		sw	a4,4(sp)
 208 0008 3EC0     		sw	a5,0(sp)
 209              		.cfi_offset 8, -4
 210              		.cfi_offset 13, -8
 211              		.cfi_offset 14, -12
 212              		.cfi_offset 15, -16
 213 000a 0008     		addi	s0,sp,16
 214              		.cfi_def_cfa 8, 0
  68:Core/Src/ch32v203xx_it.c ****      if (READ_BIT(USART2->STATR, USART_STATR_RXNE)) {
 215              		.loc 1 68 10
 216 000c B7470040 		li	a5,1073758208
 217 0010 93870740 		addi	a5,a5,1024
 218 0014 9E23     		lhu	a5,0(a5)
 219 0016 C207     		slli	a5,a5,16
 220 0018 C183     		srli	a5,a5,16
 221 001a 93F70702 		andi	a5,a5,32
 222              		.loc 1 68 9
GAS LISTING C:\Users\SOLDER~1\AppData\Local\Temp\ccqxjBbT.s 			page 6


 223 001e A5C7     		beq	a5,zero,.L11
  69:Core/Src/ch32v203xx_it.c ****          //–ï—Å–ª–∏ –ø—Ä–∏—à–ª–∏ –¥–∞–Ω–Ω—ã–µ –ø–æ USART
  70:Core/Src/ch32v203xx_it.c ****          if (husart2.rx_counter < USART_MAX_LEN_RX_BUFFER) { //–ï—Å–ª–∏ –±–∞–π—Ç –ø—Ä–∏–ª–µ—Ç–µ–ª–æ
 224              		.loc 1 70 21
 225 0020 B7070000 		lui	a5,%hi(husart2)
 226 0024 93870700 		addi	a5,a5,%lo(husart2)
 227 0028 DA2B     		lhu	a4,20(a5)
 228              		.loc 1 70 13
 229 002a CD47     		li	a5,19
 230 002c 63E7E704 		bgtu	a4,a5,.L12
  71:Core/Src/ch32v203xx_it.c ****              husart2.rx_buffer[husart2.rx_counter] = USART2->DATAR; //–°—á–∏—Ç–∞–µ–º –¥–∞–Ω–Ω—ã–µ –
 231              		.loc 1 71 60
 232 0030 B7470040 		li	a5,1073758208
 233 0034 93870740 		addi	a5,a5,1024
 234 0038 DE23     		lhu	a5,4(a5)
 235 003a 13970701 		slli	a4,a5,16
 236 003e 4183     		srli	a4,a4,16
 237              		.loc 1 71 39
 238 0040 B7070000 		lui	a5,%hi(husart2)
 239 0044 93870700 		addi	a5,a5,%lo(husart2)
 240 0048 DE2B     		lhu	a5,20(a5)
 241 004a BE86     		mv	a3,a5
 242              		.loc 1 71 52
 243 004c 1377F70F 		andi	a4,a4,0xff
 244 0050 B7070000 		lui	a5,%hi(husart2)
 245 0054 93870700 		addi	a5,a5,%lo(husart2)
 246 0058 B697     		add	a5,a5,a3
 247 005a 98A3     		sb	a4,0(a5)
  72:Core/Src/ch32v203xx_it.c ****              husart2.rx_counter++; //–£–≤–µ–ª–∏—á–∏–º —Å—á–µ—Ç—á–∏–∫ –ø—Ä–∏–Ω—è—Ç—ã—Ö –±–∞–π—Ç –Ω–∞
 248              		.loc 1 72 21
 249 005c B7070000 		lui	a5,%hi(husart2)
 250 0060 93870700 		addi	a5,a5,%lo(husart2)
 251 0064 DE2B     		lhu	a5,20(a5)
 252              		.loc 1 72 32
 253 0066 8507     		addi	a5,a5,1
 254 0068 13970701 		slli	a4,a5,16
 255 006c 4183     		srli	a4,a4,16
 256 006e B7070000 		lui	a5,%hi(husart2)
 257 0072 93870700 		addi	a5,a5,%lo(husart2)
 258 0076 DAAB     		sh	a4,20(a5)
 259 0078 39A0     		j	.L11
 260              	.L12:
  73:Core/Src/ch32v203xx_it.c ****          } else {
  74:Core/Src/ch32v203xx_it.c ****              husart2.rx_counter = 0; //–ï—Å–ª–∏ –±–æ–ª—å—à–µ - —Å–±—Ä–æ—Å–∏–º —Å—á–µ—Ç—á–∏–∫.
 261              		.loc 1 74 33
 262 007a B7070000 		lui	a5,%hi(husart2)
 263 007e 93870700 		addi	a5,a5,%lo(husart2)
 264 0082 239A0700 		sh	zero,20(a5)
 265              	.L11:
  75:Core/Src/ch32v203xx_it.c ****          }
  76:Core/Src/ch32v203xx_it.c ****      }
  77:Core/Src/ch32v203xx_it.c ****      if (READ_BIT(USART2->STATR, USART_STATR_IDLE)) {
 266              		.loc 1 77 10
 267 0086 B7470040 		li	a5,1073758208
 268 008a 93870740 		addi	a5,a5,1024
 269 008e 9E23     		lhu	a5,0(a5)
 270 0090 C207     		slli	a5,a5,16
GAS LISTING C:\Users\SOLDER~1\AppData\Local\Temp\ccqxjBbT.s 			page 7


 271 0092 C183     		srli	a5,a5,16
 272 0094 C18B     		andi	a5,a5,16
 273              		.loc 1 77 9
 274 0096 95C7     		beq	a5,zero,.L14
  78:Core/Src/ch32v203xx_it.c ****          //–ï—Å–ª–∏ –ø—Ä–∏–ª–µ—Ç–µ–ª —Ñ–ª–∞–≥ IDLE
  79:Core/Src/ch32v203xx_it.c ****          USART2->DATAR; //–°–±—Ä–æ—Å–∏–º —Ñ–ª–∞–≥ IDLE
 275              		.loc 1 79 16
 276 0098 B7470040 		li	a5,1073758208
 277 009c 93870740 		addi	a5,a5,1024
 278 00a0 DE23     		lhu	a5,4(a5)
  80:Core/Src/ch32v203xx_it.c ****          husart2.rx_len = husart2.rx_counter; //–£–∑–Ω–∞–µ–º, —Å–∫–æ–ª—å–∫–æ –±–∞–π—Ç –ø–æ–ª—É—á–∏–
 279              		.loc 1 80 34
 280 00a2 B7070000 		lui	a5,%hi(husart2)
 281 00a6 93870700 		addi	a5,a5,%lo(husart2)
 282 00aa DA2B     		lhu	a4,20(a5)
 283              		.loc 1 80 25
 284 00ac B7070000 		lui	a5,%hi(husart2)
 285 00b0 93870700 		addi	a5,a5,%lo(husart2)
 286 00b4 FAAB     		sh	a4,22(a5)
  81:Core/Src/ch32v203xx_it.c ****          husart2.rx_counter = 0; //—Å–±—Ä–æ—Å–∏–º —Å—á–µ—Ç—á–∏–∫ –ø—Ä–∏—Ö–æ–¥—è—â–∏—Ö –¥–∞–Ω–Ω—ã—Ö
 287              		.loc 1 81 29
 288 00b6 B7070000 		lui	a5,%hi(husart2)
 289 00ba 93870700 		addi	a5,a5,%lo(husart2)
 290 00be 239A0700 		sh	zero,20(a5)
 291              	.L14:
  82:Core/Src/ch32v203xx_it.c ****      }
  83:Core/Src/ch32v203xx_it.c ****  }
 292              		.loc 1 83 2
 293 00c2 0100     		nop
 294 00c4 3244     		lw	s0,12(sp)
 295              		.cfi_restore 8
 296              		.cfi_def_cfa 2, 16
 297 00c6 A246     		lw	a3,8(sp)
 298              		.cfi_restore 13
 299 00c8 1247     		lw	a4,4(sp)
 300              		.cfi_restore 14
 301 00ca 8247     		lw	a5,0(sp)
 302              		.cfi_restore 15
 303 00cc 4101     		addi	sp,sp,16
 304              		.cfi_def_cfa_offset 0
 305 00ce 73002030 		mret
 306              		.cfi_endproc
 307              	.LFE18:
 309              		.section	.text.USART3_IRQHandler,"ax",@progbits
 310              		.align	1
 311              		.globl	USART3_IRQHandler
 313              	USART3_IRQHandler:
 314              	.LFB19:
  84:Core/Src/ch32v203xx_it.c ****  
  85:Core/Src/ch32v203xx_it.c ****  /**
  86:Core/Src/ch32v203xx_it.c ****   ******************************************************************************
  87:Core/Src/ch32v203xx_it.c ****   *  @breif –ü—Ä–µ—Ä—ã–≤–∞–Ω–∏–µ –ø–æ USART3
  88:Core/Src/ch32v203xx_it.c ****   ******************************************************************************
  89:Core/Src/ch32v203xx_it.c ****   */
  90:Core/Src/ch32v203xx_it.c ****  
  91:Core/Src/ch32v203xx_it.c ****  void USART3_IRQHandler(void) {
 315              		.loc 1 91 31
GAS LISTING C:\Users\SOLDER~1\AppData\Local\Temp\ccqxjBbT.s 			page 8


 316              		.cfi_startproc
 317 0000 4111     		addi	sp,sp,-16
 318              		.cfi_def_cfa_offset 16
 319 0002 22C6     		sw	s0,12(sp)
 320 0004 36C4     		sw	a3,8(sp)
 321 0006 3AC2     		sw	a4,4(sp)
 322 0008 3EC0     		sw	a5,0(sp)
 323              		.cfi_offset 8, -4
 324              		.cfi_offset 13, -8
 325              		.cfi_offset 14, -12
 326              		.cfi_offset 15, -16
 327 000a 0008     		addi	s0,sp,16
 328              		.cfi_def_cfa 8, 0
  92:Core/Src/ch32v203xx_it.c ****      if (READ_BIT(USART3->STATR, USART_STATR_RXNE)) {
 329              		.loc 1 92 10
 330 000c B7570040 		li	a5,1073762304
 331 0010 93870780 		addi	a5,a5,-2048
 332 0014 9E23     		lhu	a5,0(a5)
 333 0016 C207     		slli	a5,a5,16
 334 0018 C183     		srli	a5,a5,16
 335 001a 93F70702 		andi	a5,a5,32
 336              		.loc 1 92 9
 337 001e A5C7     		beq	a5,zero,.L16
  93:Core/Src/ch32v203xx_it.c ****          //–ï—Å–ª–∏ –ø—Ä–∏—à–ª–∏ –¥–∞–Ω–Ω—ã–µ –ø–æ USART
  94:Core/Src/ch32v203xx_it.c ****          if (husart3.rx_counter < USART_MAX_LEN_RX_BUFFER) { //–ï—Å–ª–∏ –±–∞–π—Ç –ø—Ä–∏–ª–µ—Ç–µ–ª–æ
 338              		.loc 1 94 21
 339 0020 B7070000 		lui	a5,%hi(husart3)
 340 0024 93870700 		addi	a5,a5,%lo(husart3)
 341 0028 DA2B     		lhu	a4,20(a5)
 342              		.loc 1 94 13
 343 002a CD47     		li	a5,19
 344 002c 63E7E704 		bgtu	a4,a5,.L17
  95:Core/Src/ch32v203xx_it.c ****              husart3.rx_buffer[husart3.rx_counter] = USART3->DATAR; //–°—á–∏—Ç–∞–µ–º –¥–∞–Ω–Ω—ã–µ –
 345              		.loc 1 95 60
 346 0030 B7570040 		li	a5,1073762304
 347 0034 93870780 		addi	a5,a5,-2048
 348 0038 DE23     		lhu	a5,4(a5)
 349 003a 13970701 		slli	a4,a5,16
 350 003e 4183     		srli	a4,a4,16
 351              		.loc 1 95 39
 352 0040 B7070000 		lui	a5,%hi(husart3)
 353 0044 93870700 		addi	a5,a5,%lo(husart3)
 354 0048 DE2B     		lhu	a5,20(a5)
 355 004a BE86     		mv	a3,a5
 356              		.loc 1 95 52
 357 004c 1377F70F 		andi	a4,a4,0xff
 358 0050 B7070000 		lui	a5,%hi(husart3)
 359 0054 93870700 		addi	a5,a5,%lo(husart3)
 360 0058 B697     		add	a5,a5,a3
 361 005a 98A3     		sb	a4,0(a5)
  96:Core/Src/ch32v203xx_it.c ****              husart3.rx_counter++; //–£–≤–µ–ª–∏—á–∏–º —Å—á–µ—Ç—á–∏–∫ –ø—Ä–∏–Ω—è—Ç—ã—Ö –±–∞–π—Ç –Ω–∞
 362              		.loc 1 96 21
 363 005c B7070000 		lui	a5,%hi(husart3)
 364 0060 93870700 		addi	a5,a5,%lo(husart3)
 365 0064 DE2B     		lhu	a5,20(a5)
 366              		.loc 1 96 32
 367 0066 8507     		addi	a5,a5,1
GAS LISTING C:\Users\SOLDER~1\AppData\Local\Temp\ccqxjBbT.s 			page 9


 368 0068 13970701 		slli	a4,a5,16
 369 006c 4183     		srli	a4,a4,16
 370 006e B7070000 		lui	a5,%hi(husart3)
 371 0072 93870700 		addi	a5,a5,%lo(husart3)
 372 0076 DAAB     		sh	a4,20(a5)
 373 0078 39A0     		j	.L16
 374              	.L17:
  97:Core/Src/ch32v203xx_it.c ****          } else {
  98:Core/Src/ch32v203xx_it.c ****              husart3.rx_counter = 0; //–ï—Å–ª–∏ –±–æ–ª—å—à–µ - —Å–±—Ä–æ—Å–∏–º —Å—á–µ—Ç—á–∏–∫.
 375              		.loc 1 98 33
 376 007a B7070000 		lui	a5,%hi(husart3)
 377 007e 93870700 		addi	a5,a5,%lo(husart3)
 378 0082 239A0700 		sh	zero,20(a5)
 379              	.L16:
  99:Core/Src/ch32v203xx_it.c ****          }
 100:Core/Src/ch32v203xx_it.c ****      }
 101:Core/Src/ch32v203xx_it.c ****      if (READ_BIT(USART3->STATR, USART_STATR_IDLE)) {
 380              		.loc 1 101 10
 381 0086 B7570040 		li	a5,1073762304
 382 008a 93870780 		addi	a5,a5,-2048
 383 008e 9E23     		lhu	a5,0(a5)
 384 0090 C207     		slli	a5,a5,16
 385 0092 C183     		srli	a5,a5,16
 386 0094 C18B     		andi	a5,a5,16
 387              		.loc 1 101 9
 388 0096 95C7     		beq	a5,zero,.L19
 102:Core/Src/ch32v203xx_it.c ****          //–ï—Å–ª–∏ –ø—Ä–∏–ª–µ—Ç–µ–ª —Ñ–ª–∞–≥ IDLE
 103:Core/Src/ch32v203xx_it.c ****          USART3->DATAR; //–°–±—Ä–æ—Å–∏–º —Ñ–ª–∞–≥ IDLE
 389              		.loc 1 103 16
 390 0098 B7570040 		li	a5,1073762304
 391 009c 93870780 		addi	a5,a5,-2048
 392 00a0 DE23     		lhu	a5,4(a5)
 104:Core/Src/ch32v203xx_it.c ****          husart3.rx_len = husart3.rx_counter; //–£–∑–Ω–∞–µ–º, —Å–∫–æ–ª—å–∫–æ –±–∞–π—Ç –ø–æ–ª—É—á–∏–
 393              		.loc 1 104 34
 394 00a2 B7070000 		lui	a5,%hi(husart3)
 395 00a6 93870700 		addi	a5,a5,%lo(husart3)
 396 00aa DA2B     		lhu	a4,20(a5)
 397              		.loc 1 104 25
 398 00ac B7070000 		lui	a5,%hi(husart3)
 399 00b0 93870700 		addi	a5,a5,%lo(husart3)
 400 00b4 FAAB     		sh	a4,22(a5)
 105:Core/Src/ch32v203xx_it.c ****          husart3.rx_counter = 0; //—Å–±—Ä–æ—Å–∏–º —Å—á–µ—Ç—á–∏–∫ –ø—Ä–∏—Ö–æ–¥—è—â–∏—Ö –¥–∞–Ω–Ω—ã—Ö
 401              		.loc 1 105 29
 402 00b6 B7070000 		lui	a5,%hi(husart3)
 403 00ba 93870700 		addi	a5,a5,%lo(husart3)
 404 00be 239A0700 		sh	zero,20(a5)
 405              	.L19:
 106:Core/Src/ch32v203xx_it.c ****      }
 107:Core/Src/ch32v203xx_it.c ****  }
 406              		.loc 1 107 2
 407 00c2 0100     		nop
 408 00c4 3244     		lw	s0,12(sp)
 409              		.cfi_restore 8
 410              		.cfi_def_cfa 2, 16
 411 00c6 A246     		lw	a3,8(sp)
 412              		.cfi_restore 13
 413 00c8 1247     		lw	a4,4(sp)
GAS LISTING C:\Users\SOLDER~1\AppData\Local\Temp\ccqxjBbT.s 			page 10


 414              		.cfi_restore 14
 415 00ca 8247     		lw	a5,0(sp)
 416              		.cfi_restore 15
 417 00cc 4101     		addi	sp,sp,16
 418              		.cfi_def_cfa_offset 0
 419 00ce 73002030 		mret
 420              		.cfi_endproc
 421              	.LFE19:
 423              		.section	.text.TIM3_IRQHandler,"ax",@progbits
 424              		.align	1
 425              		.globl	TIM3_IRQHandler
 427              	TIM3_IRQHandler:
 428              	.LFB20:
 108:Core/Src/ch32v203xx_it.c ****  
 109:Core/Src/ch32v203xx_it.c ****  /**
 110:Core/Src/ch32v203xx_it.c ****   ******************************************************************************
 111:Core/Src/ch32v203xx_it.c ****   *  @breif –ü—Ä–µ—Ä—ã–≤–∞–Ω–∏–µ –ø–æ TIM3
 112:Core/Src/ch32v203xx_it.c ****   ******************************************************************************
 113:Core/Src/ch32v203xx_it.c ****   */
 114:Core/Src/ch32v203xx_it.c ****  
 115:Core/Src/ch32v203xx_it.c ****  void TIM3_IRQHandler(void) {
 429              		.loc 1 115 29
 430              		.cfi_startproc
 431 0000 4111     		addi	sp,sp,-16
 432              		.cfi_def_cfa_offset 16
 433 0002 22C6     		sw	s0,12(sp)
 434 0004 3AC4     		sw	a4,8(sp)
 435 0006 3EC2     		sw	a5,4(sp)
 436              		.cfi_offset 8, -4
 437              		.cfi_offset 14, -8
 438              		.cfi_offset 15, -12
 439 0008 0008     		addi	s0,sp,16
 440              		.cfi_def_cfa 8, 0
 116:Core/Src/ch32v203xx_it.c ****      if (READ_BIT(TIM3->INTFR, TIM_UIF)) {
 441              		.loc 1 116 10
 442 000a B7070040 		li	a5,1073741824
 443 000e 93870740 		addi	a5,a5,1024
 444 0012 9E2B     		lhu	a5,16(a5)
 445 0014 C207     		slli	a5,a5,16
 446 0016 C183     		srli	a5,a5,16
 447 0018 858B     		andi	a5,a5,1
 448              		.loc 1 116 9
 449 001a 8DC3     		beq	a5,zero,.L22
 117:Core/Src/ch32v203xx_it.c ****          CLEAR_BIT(TIM3->INTFR, TIM_UIF); //–°–±—Ä–æ—Å–∏–º —Ñ–ª–∞–≥ –ø—Ä–µ—Ä—ã–≤–∞–Ω–∏—è
 450              		.loc 1 117 10
 451 001c B7070040 		li	a5,1073741824
 452 0020 93870740 		addi	a5,a5,1024
 453 0024 9E2B     		lhu	a5,16(a5)
 454 0026 13970701 		slli	a4,a5,16
 455 002a 4183     		srli	a4,a4,16
 456 002c B7070040 		li	a5,1073741824
 457 0030 93870740 		addi	a5,a5,1024
 458 0034 799B     		andi	a4,a4,-2
 459 0036 4207     		slli	a4,a4,16
 460 0038 4183     		srli	a4,a4,16
 461 003a 9AAB     		sh	a4,16(a5)
 462              	.L22:
GAS LISTING C:\Users\SOLDER~1\AppData\Local\Temp\ccqxjBbT.s 			page 11


 118:Core/Src/ch32v203xx_it.c ****      }
 119:Core/Src/ch32v203xx_it.c ****  }
 463              		.loc 1 119 2
 464 003c 0100     		nop
 465 003e 3244     		lw	s0,12(sp)
 466              		.cfi_restore 8
 467              		.cfi_def_cfa 2, 16
 468 0040 2247     		lw	a4,8(sp)
 469              		.cfi_restore 14
 470 0042 9247     		lw	a5,4(sp)
 471              		.cfi_restore 15
 472 0044 4101     		addi	sp,sp,16
 473              		.cfi_def_cfa_offset 0
 474 0046 73002030 		mret
 475              		.cfi_endproc
 476              	.LFE20:
 478              		.text
 479              	.Letext0:
 480              		.file 2 "c:\\dev_tools\\ch32_tools\\risc-v_embedded_gcc12\\riscv-none-elf\\include\\machine\\_defa
 481              		.file 3 "c:\\dev_tools\\ch32_tools\\risc-v_embedded_gcc12\\riscv-none-elf\\include\\sys\\_stdint.h
 482              		.file 4 "Drivers/inc/core_riscv.h"
 483              		.file 5 "Drivers/inc/ch32v20x.h"
 484              		.file 6 "Core/Inc/ch32v20x_RVMSIS.h"
GAS LISTING C:\Users\SOLDER~1\AppData\Local\Temp\ccqxjBbT.s 			page 12

