GAS LISTING C:\Users\SOLDER~1\AppData\Local\Temp\ccqxjBbT.s 			page 1


   1              		.file	"ch32v203xx_it.c"
   2              		.option nopic
   3              		.attribute arch, "rv32i2p0_m2p0_a2p0_c2p0_xw"
   4              		.attribute unaligned_access, 0
   5              		.attribute stack_align, 16
   6              		.text
   7              	.Ltext0:
   8              		.cfi_sections	.debug_frame
   9              		.file 0 "C:\\Users\\Solderingiron\\Documents\\GitHub\\VSC-make-example\\VSC_CH32V203C8T6" "Core/Sr
  10              		.section	.text.SysTick_Handler,"ax",@progbits
  11              		.align	1
  12              		.globl	SysTick_Handler
  14              	SysTick_Handler:
  15              	.LFB16:
  16              		.file 1 "Core/Src/ch32v203xx_it.c"
   1:Core/Src/ch32v203xx_it.c **** /*
   2:Core/Src/ch32v203xx_it.c ****  * ch32v203xx_it.c
   3:Core/Src/ch32v203xx_it.c ****  *
   4:Core/Src/ch32v203xx_it.c ****  *  Created on: Aug 17, 2023
   5:Core/Src/ch32v203xx_it.c ****  *      Author: Oleg Volkov
   6:Core/Src/ch32v203xx_it.c ****  */
   7:Core/Src/ch32v203xx_it.c **** 
   8:Core/Src/ch32v203xx_it.c **** 
   9:Core/Src/ch32v203xx_it.c ****  #include "ch32v203xx_it.h"
  10:Core/Src/ch32v203xx_it.c **** 
  11:Core/Src/ch32v203xx_it.c ****  extern volatile uint32_t SysTimer_ms; //–ü–µ—Ä–µ–º–µ–Ω–Ω–∞—è, –∞–Ω–∞–ª–æ–≥–∏—á–Ω–∞—è HAL_GetTick()
  12:Core/Src/ch32v203xx_it.c ****  extern volatile uint32_t Delay_counter_ms; //–°—á–µ—Ç—á–∏–∫ –¥–ª—è —Ñ—É–Ω–∫—Ü–∏–∏ Delay_ms
  13:Core/Src/ch32v203xx_it.c ****  extern volatile uint32_t Timeout_counter_ms; //–ü–µ—Ä–µ–º–µ–Ω–Ω–∞—è –¥–ª—è —Ç–∞–π–º–∞—É—Ç–∞ —Ñ—É–Ω
  14:Core/Src/ch32v203xx_it.c ****  
  15:Core/Src/ch32v203xx_it.c ****  extern struct USART_name husart1; //–û–±—ä—è–≤–ª—è–µ–º —Å—Ç—Ä—É–∫—Ç—É—Ä—É –ø–æ USART.(—Å–º. ch32v2
  16:Core/Src/ch32v203xx_it.c ****  extern struct USART_name husart2; //–û–±—ä—è–≤–ª—è–µ–º —Å—Ç—Ä—É–∫—Ç—É—Ä—É –ø–æ USART.(—Å–º. ch32v2
  17:Core/Src/ch32v203xx_it.c ****  extern struct USART_name husart3; //–û–±—ä—è–≤–ª—è–µ–º —Å—Ç—Ä—É–∫—Ç—É—Ä—É –ø–æ USART.(—Å–º. ch32v2
  18:Core/Src/ch32v203xx_it.c ****  
  19:Core/Src/ch32v203xx_it.c ****  /*
  20:Core/Src/ch32v203xx_it.c ****   ******************************************************************************
  21:Core/Src/ch32v203xx_it.c ****   *  @breif –ü—Ä–µ—Ä—ã–≤–∞–Ω–∏–µ –ø–æ —Ñ–ª–∞–≥—É CNTIF
  22:Core/Src/ch32v203xx_it.c ****   ******************************************************************************
  23:Core/Src/ch32v203xx_it.c ****   */
  24:Core/Src/ch32v203xx_it.c ****  
  25:Core/Src/ch32v203xx_it.c ****  void SysTick_Handler(void) {
  17              		.loc 1 25 29
  18              		.cfi_startproc
  19 0000 4111     		addi	sp,sp,-16
  20              		.cfi_def_cfa_offset 16
  21 0002 22C6     		sw	s0,12(sp)
  22 0004 3AC4     		sw	a4,8(sp)
  23 0006 3EC2     		sw	a5,4(sp)
  24              		.cfi_offset 8, -4
  25              		.cfi_offset 14, -8
  26              		.cfi_offset 15, -12
  27 0008 0008     		addi	s0,sp,16
  28              		.cfi_def_cfa 8, 0
  26:Core/Src/ch32v203xx_it.c ****      SysTick->SR &= ~(1 << 0);
  29              		.loc 1 26 13
  30 000a B7F700E0 		li	a5,-536809472
  31 000e D843     		lw	a4,4(a5)
  32 0010 B7F700E0 		li	a5,-536809472
GAS LISTING C:\Users\SOLDER~1\AppData\Local\Temp\ccqxjBbT.s 			page 2


  33              		.loc 1 26 18
  34 0014 799B     		andi	a4,a4,-2
  35 0016 D8C3     		sw	a4,4(a5)
  27:Core/Src/ch32v203xx_it.c ****      SysTimer_ms++;
  36              		.loc 1 27 17
  37 0018 B7070000 		lui	a5,%hi(SysTimer_ms)
  38 001c 83A70700 		lw	a5,%lo(SysTimer_ms)(a5)
  39 0020 13871700 		addi	a4,a5,1
  40 0024 B7070000 		lui	a5,%hi(SysTimer_ms)
  41 0028 23A0E700 		sw	a4,%lo(SysTimer_ms)(a5)
  28:Core/Src/ch32v203xx_it.c ****  
  29:Core/Src/ch32v203xx_it.c ****      if (Delay_counter_ms) {
  42              		.loc 1 29 10
  43 002c B7070000 		lui	a5,%hi(Delay_counter_ms)
  44 0030 83A70700 		lw	a5,%lo(Delay_counter_ms)(a5)
  45              		.loc 1 29 9
  46 0034 99CB     		beq	a5,zero,.L2
  30:Core/Src/ch32v203xx_it.c ****          Delay_counter_ms--;
  47              		.loc 1 30 26
  48 0036 B7070000 		lui	a5,%hi(Delay_counter_ms)
  49 003a 83A70700 		lw	a5,%lo(Delay_counter_ms)(a5)
  50 003e 1387F7FF 		addi	a4,a5,-1
  51 0042 B7070000 		lui	a5,%hi(Delay_counter_ms)
  52 0046 23A0E700 		sw	a4,%lo(Delay_counter_ms)(a5)
  53              	.L2:
  31:Core/Src/ch32v203xx_it.c ****      }
  32:Core/Src/ch32v203xx_it.c ****      if (Timeout_counter_ms) {
  54              		.loc 1 32 10
  55 004a B7070000 		lui	a5,%hi(Timeout_counter_ms)
  56 004e 83A70700 		lw	a5,%lo(Timeout_counter_ms)(a5)
  57              		.loc 1 32 9
  58 0052 99CB     		beq	a5,zero,.L4
  33:Core/Src/ch32v203xx_it.c ****          Timeout_counter_ms--;
  59              		.loc 1 33 28
  60 0054 B7070000 		lui	a5,%hi(Timeout_counter_ms)
  61 0058 83A70700 		lw	a5,%lo(Timeout_counter_ms)(a5)
  62 005c 1387F7FF 		addi	a4,a5,-1
  63 0060 B7070000 		lui	a5,%hi(Timeout_counter_ms)
  64 0064 23A0E700 		sw	a4,%lo(Timeout_counter_ms)(a5)
  65              	.L4:
  34:Core/Src/ch32v203xx_it.c ****      }
  35:Core/Src/ch32v203xx_it.c ****  }
  66              		.loc 1 35 2
  67 0068 0100     		nop
  68 006a 3244     		lw	s0,12(sp)
  69              		.cfi_restore 8
  70              		.cfi_def_cfa 2, 16
  71 006c 2247     		lw	a4,8(sp)
  72              		.cfi_restore 14
  73 006e 9247     		lw	a5,4(sp)
  74              		.cfi_restore 15
  75 0070 4101     		addi	sp,sp,16
  76              		.cfi_def_cfa_offset 0
  77 0072 73002030 		mret
  78              		.cfi_endproc
  79              	.LFE16:
  81              		.section	.text.USART1_IRQHandler,"ax",@progbits
GAS LISTING C:\Users\SOLDER~1\AppData\Local\Temp\ccqxjBbT.s 			page 3


  82              		.align	1
  83              		.globl	USART1_IRQHandler
  85              	USART1_IRQHandler:
  86              	.LFB17:
  36:Core/Src/ch32v203xx_it.c ****  
  37:Core/Src/ch32v203xx_it.c ****  /**
  38:Core/Src/ch32v203xx_it.c ****   ******************************************************************************
  39:Core/Src/ch32v203xx_it.c ****   *  @breif –ü—Ä–µ—Ä—ã–≤–∞–Ω–∏–µ –ø–æ USART1
  40:Core/Src/ch32v203xx_it.c ****   ******************************************************************************
  41:Core/Src/ch32v203xx_it.c ****   */
  42:Core/Src/ch32v203xx_it.c ****  
  43:Core/Src/ch32v203xx_it.c ****  void USART1_IRQHandler(void) {
  87              		.loc 1 43 31
  88              		.cfi_startproc
  89 0000 4111     		addi	sp,sp,-16
  90              		.cfi_def_cfa_offset 16
  91 0002 22C6     		sw	s0,12(sp)
  92 0004 36C4     		sw	a3,8(sp)
  93 0006 3AC2     		sw	a4,4(sp)
  94 0008 3EC0     		sw	a5,0(sp)
  95              		.cfi_offset 8, -4
  96              		.cfi_offset 13, -8
  97              		.cfi_offset 14, -12
  98              		.cfi_offset 15, -16
  99 000a 0008     		addi	s0,sp,16
 100              		.cfi_def_cfa 8, 0
  44:Core/Src/ch32v203xx_it.c ****      if (READ_BIT(USART1->STATR, USART_STATR_RXNE)) {
 101              		.loc 1 44 10
 102 000c B7470140 		li	a5,1073823744
 103 0010 93870780 		addi	a5,a5,-2048
 104 0014 9E23     		lhu	a5,0(a5)
 105 0016 C207     		slli	a5,a5,16
 106 0018 C183     		srli	a5,a5,16
 107 001a 93F70702 		andi	a5,a5,32
 108              		.loc 1 44 9
 109 001e A5C7     		beq	a5,zero,.L6
  45:Core/Src/ch32v203xx_it.c ****          //–ï—Å–ª–∏ –ø—Ä–∏—à–ª–∏ –¥–∞–Ω–Ω—ã–µ –ø–æ USART
  46:Core/Src/ch32v203xx_it.c ****          if (husart1.rx_counter < USART_MAX_LEN_RX_BUFFER) { //–ï—Å–ª–∏ –±–∞–π—Ç –ø—Ä–∏–ª–µ—Ç–µ–ª–æ
 110              		.loc 1 46 21
 111 0020 B7070000 		lui	a5,%hi(husart1)
 112 0024 93870700 		addi	a5,a5,%lo(husart1)
 113 0028 DA2B     		lhu	a4,20(a5)
 114              		.loc 1 46 13
 115 002a CD47     		li	a5,19
 116 002c 63E7E704 		bgtu	a4,a5,.L7
  47:Core/Src/ch32v203xx_it.c ****              husart1.rx_buffer[husart1.rx_counter] = USART1->DATAR; //–°—á–∏—Ç–∞–µ–º –¥–∞–Ω–Ω—ã–µ –
 117              		.loc 1 47 60
 118 0030 B7470140 		li	a5,1073823744
 119 0034 93870780 		addi	a5,a5,-2048
 120 0038 DE23     		lhu	a5,4(a5)
 121 003a 13970701 		slli	a4,a5,16
 122 003e 4183     		srli	a4,a4,16
 123              		.loc 1 47 39
 124 0040 B7070000 		lui	a5,%hi(husart1)
 125 0044 93870700 		addi	a5,a5,%lo(husart1)
 126 0048 DE2B     		lhu	a5,20(a5)
 127 004a BE86     		mv	a3,a5
GAS LISTING C:\Users\SOLDER~1\AppData\Local\Temp\ccqxjBbT.s 			page 4


 128              		.loc 1 47 52
 129 004c 1377F70F 		andi	a4,a4,0xff
 130 0050 B7070000 		lui	a5,%hi(husart1)
 131 0054 93870700 		addi	a5,a5,%lo(husart1)
 132 0058 B697     		add	a5,a5,a3
 133 005a 98A3     		sb	a4,0(a5)
  48:Core/Src/ch32v203xx_it.c ****              husart1.rx_counter++; //–£–≤–µ–ª–∏—á–∏–º —Å—á–µ—Ç—á–∏–∫ –ø—Ä–∏–Ω—è—Ç—ã—Ö –±–∞–π—Ç –Ω–∞
 134              		.loc 1 48 21
 135 005c B7070000 		lui	a5,%hi(husart1)
 136 0060 93870700 		addi	a5,a5,%lo(husart1)
 137 0064 DE2B     		lhu	a5,20(a5)
 138              		.loc 1 48 32
 139 0066 8507     		addi	a5,a5,1
 140 0068 13970701 		slli	a4,a5,16
 141 006c 4183     		srli	a4,a4,16
 142 006e B7070000 		lui	a5,%hi(husart1)
 143 0072 93870700 		addi	a5,a5,%lo(husart1)
 144 0076 DAAB     		sh	a4,20(a5)
 145 0078 39A0     		j	.L6
 146              	.L7:
  49:Core/Src/ch32v203xx_it.c ****          } else {
  50:Core/Src/ch32v203xx_it.c ****              husart1.rx_counter = 0; //–ï—Å–ª–∏ –±–æ–ª—å—à–µ - —Å–±—Ä–æ—Å–∏–º —Å—á–µ—Ç—á–∏–∫.
 147              		.loc 1 50 33
 148 007a B7070000 		lui	a5,%hi(husart1)
 149 007e 93870700 		addi	a5,a5,%lo(husart1)
 150 0082 239A0700 		sh	zero,20(a5)
 151              	.L6:
  51:Core/Src/ch32v203xx_it.c ****          }
  52:Core/Src/ch32v203xx_it.c ****      }
  53:Core/Src/ch32v203xx_it.c ****      if (READ_BIT(USART1->STATR, USART_STATR_IDLE)) {
 152              		.loc 1 53 10
 153 0086 B7470140 		li	a5,1073823744
 154 008a 93870780 		addi	a5,a5,-2048
 155 008e 9E23     		lhu	a5,0(a5)
 156 0090 C207     		slli	a5,a5,16
 157 0092 C183     		srli	a5,a5,16
 158 0094 C18B     		andi	a5,a5,16
 159              		.loc 1 53 9
 160 0096 95C7     		beq	a5,zero,.L9
  54:Core/Src/ch32v203xx_it.c ****          //–ï—Å–ª–∏ –ø—Ä–∏–ª–µ—Ç–µ–ª —Ñ–ª–∞–≥ IDLE
  55:Core/Src/ch32v203xx_it.c ****          USART1->DATAR; //–°–±—Ä–æ—Å–∏–º —Ñ–ª–∞–≥ IDLE
 161              		.loc 1 55 16
 162 0098 B7470140 		li	a5,1073823744
 163 009c 93870780 		addi	a5,a5,-2048
 164 00a0 DE23     		lhu	a5,4(a5)
  56:Core/Src/ch32v203xx_it.c ****          husart1.rx_len = husart1.rx_counter; //–£–∑–Ω–∞–µ–º, —Å–∫–æ–ª—å–∫–æ –±–∞–π—Ç –ø–æ–ª—É—á–∏–
 165              		.loc 1 56 34
 166 00a2 B7070000 		lui	a5,%hi(husart1)
 167 00a6 93870700 		addi	a5,a5,%lo(husart1)
 168 00aa DA2B     		lhu	a4,20(a5)
 169              		.loc 1 56 25
 170 00ac B7070000 		lui	a5,%hi(husart1)
 171 00b0 93870700 		addi	a5,a5,%lo(husart1)
 172 00b4 FAAB     		sh	a4,22(a5)
  57:Core/Src/ch32v203xx_it.c ****          husart1.rx_counter = 0; //—Å–±—Ä–æ—Å–∏–º —Å—á–µ—Ç—á–∏–∫ –ø—Ä–∏—Ö–æ–¥—è—â–∏—Ö –¥–∞–Ω–Ω—ã—Ö
 173              		.loc 1 57 29
 174 00b6 B7070000 		lui	a5,%hi(husart1)
GAS LISTING C:\Users\SOLDER~1\AppData\Local\Temp\ccqxjBbT.s 			page 5


 175 00ba 93870700 		addi	a5,a5,%lo(husart1)
 176 00be 239A0700 		sh	zero,20(a5)
 177              	.L9:
  58:Core/Src/ch32v203xx_it.c ****      }
  59:Core/Src/ch32v203xx_it.c ****  }
 178              		.loc 1 59 2
 179 00c2 0100     		nop
 180 00c4 3244     		lw	s0,12(sp)
 181              		.cfi_restore 8
 182              		.cfi_def_cfa 2, 16
 183 00c6 A246     		lw	a3,8(sp)
 184              		.cfi_restore 13
 185 00c8 1247     		lw	a4,4(sp)
 186              		.cfi_restore 14
 187 00ca 8247     		lw	a5,0(sp)
 188              		.cfi_restore 15
 189 00cc 4101     		addi	sp,sp,16
 190              		.cfi_def_cfa_offset 0
 191 00ce 73002030 		mret
 192              		.cfi_endproc
 193              	.LFE17:
 195              		.section	.text.USART2_IRQHandler,"ax",@progbits
 196              		.align	1
 197              		.globl	USART2_IRQHandler
 199              	USART2_IRQHandler:
 200              	.LFB18:
  60:Core/Src/ch32v203xx_it.c ****  
  61:Core/Src/ch32v203xx_it.c ****  /**
  62:Core/Src/ch32v203xx_it.c ****   ******************************************************************************
  63:Core/Src/ch32v203xx_it.c ****   *  @breif –ü—Ä–µ—Ä—ã–≤–∞–Ω–∏–µ –ø–æ USART2
  64:Core/Src/ch32v203xx_it.c ****   ******************************************************************************
  65:Core/Src/ch32v203xx_it.c ****   */
  66:Core/Src/ch32v203xx_it.c ****  
  67:Core/Src/ch32v203xx_it.c ****  void USART2_IRQHandler(void) {
 201              		.loc 1 67 31
 202              		.cfi_startproc
 203 0000 4111     		addi	sp,sp,-16
 204              		.cfi_def_cfa_offset 16
 205 0002 22C6     		sw	s0,12(sp)
 206 0004 36C4     		sw	a3,8(sp)
 207 0006 3AC2     		sw	a4,4(sp)
 208 0008 3EC0     		sw	a5,0(sp)
 209              		.cfi_offset 8, -4
 210              		.cfi_offset 13, -8
 211              		.cfi_offset 14, -12
 212              		.cfi_offset 15, -16
 213 000a 0008     		addi	s0,sp,16
 214              		.cfi_def_cfa 8, 0
  68:Core/Src/ch32v203xx_it.c ****      if (READ_BIT(USART2->STATR, USART_STATR_RXNE)) {
 215              		.loc 1 68 10
 216 000c B7470040 		li	a5,1073758208
 217 0010 93870740 		addi	a5,a5,1024
 218 0014 9E23     		lhu	a5,0(a5)
 219 0016 C207     		slli	a5,a5,16
 220 0018 C183     		srli	a5,a5,16
 221 001a 93F70702 		andi	a5,a5,32
 222              		.loc 1 68 9
GAS LISTING C:\Users\SOLDER~1\AppData\Local\Temp\ccqxjBbT.s 			page 6


 223 001e A5C7     		beq	a5,zero,.L11
  69:Core/Src/ch32v203xx_it.c ****          //–ï—Å–ª–∏ –ø—Ä–∏—à–ª–∏ –¥–∞–Ω–Ω—ã–µ –ø–æ USART
  70:Core/Src/ch32v203xx_it.c ****          if (husart2.rx_counter < USART_MAX_LEN_RX_BUFFER) { //–ï—Å–ª–∏ –±–∞–π—Ç –ø—Ä–∏–ª–µ—Ç–µ–ª–æ
 224              		.loc 1 70 21
 225 0020 B7070000 		lui	a5,%hi(husart2)
 226 0024 93870700 		addi	a5,a5,%lo(husart2)
 227 0028 DA2B     		lhu	a4,20(a5)
 228              		.loc 1 70 13
 229 002a CD47     		li	a5,19
 230 002c 63E7E704 		bgtu	a4,a5,.L12
  71:Core/Src/ch32v203xx_it.c ****              husart2.rx_buffer[husart2.rx_counter] = USART2->DATAR; //–°—á–∏—Ç–∞–µ–º –¥–∞–Ω–Ω—ã–µ –
 231              		.loc 1 71 60
 232 0030 B7470040 		li	a5,1073758208
 233 0034 93870740 		addi	a5,a5,1024
 234 0038 DE23     		lhu	a5,4(a5)
 235 003a 13970701 		slli	a4,a5,16
 236 003e 4183     		srli	a4,a4,16
 237              		.loc 1 71 39
 238 0040 B7070000 		lui	a5,%hi(husart2)
 239 0044 93870700 		addi	a5,a5,%lo(husart2)
 240 0048 DE2B     		lhu	a5,20(a5)
 241 004a BE86     		mv	a3,a5
 242              		.loc 1 71 52
 243 004c 1377F70F 		andi	a4,a4,0xff
 244 0050 B7070000 		lui	a5,%hi(husart2)
 245 0054 93870700 		addi	a5,a5,%lo(husart2)
 246 0058 B697     		add	a5,a5,a3
 247 005a 98A3     		sb	a4,0(a5)
  72:Core/Src/ch32v203xx_it.c ****              husart2.rx_counter++; //–£–≤–µ–ª–∏—á–∏–º —Å—á–µ—Ç—á–∏–∫ –ø—Ä–∏–Ω—è—Ç—ã—Ö –±–∞–π—Ç –Ω–∞
 248              		.loc 1 72 21
 249 005c B7070000 		lui	a5,%hi(husart2)
 250 0060 93870700 		addi	a5,a5,%lo(husart2)
 251 0064 DE2B     		lhu	a5,20(a5)
 252              		.loc 1 72 32
 253 0066 8507     		addi	a5,a5,1
 254 0068 13970701 		slli	a4,a5,16
 255 006c 4183     		srli	a4,a4,16
 256 006e B7070000 		lui	a5,%hi(husart2)
 257 0072 93870700 		addi	a5,a5,%lo(husart2)
 258 0076 DAAB     		sh	a4,20(a5)
 259 0078 39A0     		j	.L11
 260              	.L12:
  73:Core/Src/ch32v203xx_it.c ****          } else {
  74:Core/Src/ch32v203xx_it.c ****              husart2.rx_counter = 0; //–ï—Å–ª–∏ –±–æ–ª—å—à–µ - —Å–±—Ä–æ—Å–∏–º —Å—á–µ—Ç—á–∏–∫.
 261              		.loc 1 74 33
 262 007a B7070000 		lui	a5,%hi(husart2)
 263 007e 93870700 		addi	a5,a5,%lo(husart2)
 264 0082 239A0700 		sh	zero,20(a5)
 265              	.L11:
  75:Core/Src/ch32v203xx_it.c ****          }
  76:Core/Src/ch32v203xx_it.c ****      }
  77:Core/Src/ch32v203xx_it.c ****      if (READ_BIT(USART2->STATR, USART_STATR_IDLE)) {
 266              		.loc 1 77 10
 267 0086 B7470040 		li	a5,1073758208
 268 008a 93870740 		addi	a5,a5,1024
 269 008e 9E23     		lhu	a5,0(a5)
 270 0090 C207     		slli	a5,a5,16
GAS LISTING C:\Users\SOLDER~1\AppData\Local\Temp\ccqxjBbT.s 			page 7


 271 0092 C183     		srli	a5,a5,16
 272 0094 C18B     		andi	a5,a5,16
 273              		.loc 1 77 9
 274 0096 95C7     		beq	a5,zero,.L14
  78:Core/Src/ch32v203xx_it.c ****          //–ï—Å–ª–∏ –ø—Ä–∏–ª–µ—Ç–µ–ª —Ñ–ª–∞–≥ IDLE
  79:Core/Src/ch32v203xx_it.c ****          USART2->DATAR; //–°–±—Ä–æ—Å–∏–º —Ñ–ª–∞–≥ IDLE
 275              		.loc 1 79 16
 276 0098 B7470040 		li	a5,1073758208
 277 009c 93870740 		addi	a5,a5,1024
 278 00a0 DE23     		lhu	a5,4(a5)
  80:Core/Src/ch32v203xx_it.c ****          husart2.rx_len = husart2.rx_counter; //–£–∑–Ω–∞–µ–º, —Å–∫–æ–ª—å–∫–æ –±–∞–π—Ç –ø–æ–ª—É—á–∏–
 279              		.loc 1 80 34
 280 00a2 B7070000 		lui	a5,%hi(husart2)
 281 00a6 93870700 		addi	a5,a5,%lo(husart2)
 282 00aa DA2B     		lhu	a4,20(a5)
 283              		.loc 1 80 25
 284 00ac B7070000 		lui	a5,%hi(husart2)
 285 00b0 93870700 		addi	a5,a5,%lo(husart2)
 286 00b4 FAAB     		sh	a4,22(a5)
  81:Core/Src/ch32v203xx_it.c ****          husart2.rx_counter = 0; //—Å–±—Ä–æ—Å–∏–º —Å—á–µ—Ç—á–∏–∫ –ø—Ä–∏—Ö–æ–¥—è—â–∏—Ö –¥–∞–Ω–Ω—ã—Ö
 287              		.loc 1 81 29
 288 00b6 B7070000 		lui	a5,%hi(husart2)
 289 00ba 93870700 		addi	a5,a5,%lo(husart2)
 290 00be 239A0700 		sh	zero,20(a5)
 291              	.L14:
  82:Core/Src/ch32v203xx_it.c ****      }
  83:Core/Src/ch32v203xx_it.c ****  }
 292              		.loc 1 83 2
 293 00c2 0100     		nop
 294 00c4 3244     		lw	s0,12(sp)
 295              		.cfi_restore 8
 296              		.cfi_def_cfa 2, 16
 297 00c6 A246     		lw	a3,8(sp)
 298              		.cfi_restore 13
 299 00c8 1247     		lw	a4,4(sp)
 300              		.cfi_restore 14
 301 00ca 8247     		lw	a5,0(sp)
 302              		.cfi_restore 15
 303 00cc 4101     		addi	sp,sp,16
 304              		.cfi_def_cfa_offset 0
 305 00ce 73002030 		mret
 306              		.cfi_endproc
 307              	.LFE18:
 309              		.section	.text.USART3_IRQHandler,"ax",@progbits
 310              		.align	1
 311              		.globl	USART3_IRQHandler
 313              	USART3_IRQHandler:
 314              	.LFB19:
  84:Core/Src/ch32v203xx_it.c ****  
  85:Core/Src/ch32v203xx_it.c ****  /**
  86:Core/Src/ch32v203xx_it.c ****   ******************************************************************************
  87:Core/Src/ch32v203xx_it.c ****   *  @breif –ü—Ä–µ—Ä—ã–≤–∞–Ω–∏–µ –ø–æ USART3
  88:Core/Src/ch32v203xx_it.c ****   ******************************************************************************
  89:Core/Src/ch32v203xx_it.c ****   */
  90:Core/Src/ch32v203xx_it.c ****  
  91:Core/Src/ch32v203xx_it.c ****  void USART3_IRQHandler(void) {
 315              		.loc 1 91 31
GAS LISTING C:\Users\SOLDER~1\AppData\Local\Temp\ccqxjBbT.s 			page 8


 316              		.cfi_startproc
 317 0000 4111     		addi	sp,sp,-16
 318              		.cfi_def_cfa_offset 16
 319 0002 22C6     		sw	s0,12(sp)
 320 0004 36C4     		sw	a3,8(sp)
 321 0006 3AC2     		sw	a4,4(sp)
 322 0008 3EC0     		sw	a5,0(sp)
 323              		.cfi_offset 8, -4
 324              		.cfi_offset 13, -8
 325              		.cfi_offset 14, -12
 326              		.cfi_offset 15, -16
 327 000a 0008     		addi	s0,sp,16
 328              		.cfi_def_cfa 8, 0
  92:Core/Src/ch32v203xx_it.c ****      if (READ_BIT(USART3->STATR, USART_STATR_RXNE)) {
 329              		.loc 1 92 10
 330 000c B7570040 		li	a5,1073762304
 331 0010 93870780 		addi	a5,a5,-2048
 332 0014 9E23     		lhu	a5,0(a5)
 333 0016 C207     		slli	a5,a5,16
 334 0018 C183     		srli	a5,a5,16
 335 001a 93F70702 		andi	a5,a5,32
 336              		.loc 1 92 9
 337 001e A5C7     		beq	a5,zero,.L16
  93:Core/Src/ch32v203xx_it.c ****          //–ï—Å–ª–∏ –ø—Ä–∏—à–ª–∏ –¥–∞–Ω–Ω—ã–µ –ø–æ USART
  94:Core/Src/ch32v203xx_it.c ****          if (husart3.rx_counter < USART_MAX_LEN_RX_BUFFER) { //–ï—Å–ª–∏ –±–∞–π—Ç –ø—Ä–∏–ª–µ—Ç–µ–ª–æ
 338              		.loc 1 94 21
 339 0020 B7070000 		lui	a5,%hi(husart3)
 340 0024 93870700 		addi	a5,a5,%lo(husart3)
 341 0028 DA2B     		lhu	a4,20(a5)
 342              		.loc 1 94 13
 343 002a CD47     		li	a5,19
 344 002c 63E7E704 		bgtu	a4,a5,.L17
  95:Core/Src/ch32v203xx_it.c ****              husart3.rx_buffer[husart3.rx_counter] = USART3->DATAR; //–°—á–∏—Ç–∞–µ–º –¥–∞–Ω–Ω—ã–µ –
 345              		.loc 1 95 60
 346 0030 B7570040 		li	a5,1073762304
 347 0034 93870780 		addi	a5,a5,-2048
 348 0038 DE23     		lhu	a5,4(a5)
 349 003a 13970701 		slli	a4,a5,16
 350 003e 4183     		srli	a4,a4,16
 351              		.loc 1 95 39
 352 0040 B7070000 		lui	a5,%hi(husart3)
 353 0044 93870700 		addi	a5,a5,%lo(husart3)
 354 0048 DE2B     		lhu	a5,20(a5)
 355 004a BE86     		mv	a3,a5
 356              		.loc 1 95 52
 357 004c 1377F70F 		andi	a4,a4,0xff
 358 0050 B7070000 		lui	a5,%hi(husart3)
 359 0054 93870700 		addi	a5,a5,%lo(husart3)
 360 0058 B697     		add	a5,a5,a3
 361 005a 98A3     		sb	a4,0(a5)
  96:Core/Src/ch32v203xx_it.c ****              husart3.rx_counter++; //–£–≤–µ–ª–∏—á–∏–º —Å—á–µ—Ç—á–∏–∫ –ø—Ä–∏–Ω—è—Ç—ã—Ö –±–∞–π—Ç –Ω–∞
 362              		.loc 1 96 21
 363 005c B7070000 		lui	a5,%hi(husart3)
 364 0060 93870700 		addi	a5,a5,%lo(husart3)
 365 0064 DE2B     		lhu	a5,20(a5)
 366              		.loc 1 96 32
 367 0066 8507     		addi	a5,a5,1
GAS LISTING C:\Users\SOLDER~1\AppData\Local\Temp\ccqxjBbT.s 			page 9


 368 0068 13970701 		slli	a4,a5,16
 369 006c 4183     		srli	a4,a4,16
 370 006e B7070000 		lui	a5,%hi(husart3)
 371 0072 93870700 		addi	a5,a5,%lo(husart3)
 372 0076 DAAB     		sh	a4,20(a5)
 373 0078 39A0     		j	.L16
 374              	.L17:
  97:Core/Src/ch32v203xx_it.c ****          } else {
  98:Core/Src/ch32v203xx_it.c ****              husart3.rx_counter = 0; //–ï—Å–ª–∏ –±–æ–ª—å—à–µ - —Å–±—Ä–æ—Å–∏–º —Å—á–µ—Ç—á–∏–∫.
 375              		.loc 1 98 33
 376 007a B7070000 		lui	a5,%hi(husart3)
 377 007e 93870700 		addi	a5,a5,%lo(husart3)
 378 0082 239A0700 		sh	zero,20(a5)
 379              	.L16:
  99:Core/Src/ch32v203xx_it.c ****          }
 100:Core/Src/ch32v203xx_it.c ****      }
 101:Core/Src/ch32v203xx_it.c ****      if (READ_BIT(USART3->STATR, USART_STATR_IDLE)) {
 380              		.loc 1 101 10
 381 0086 B7570040 		li	a5,1073762304
 382 008a 93870780 		addi	a5,a5,-2048
 383 008e 9E23     		lhu	a5,0(a5)
 384 0090 C207     		slli	a5,a5,16
 385 0092 C183     		srli	a5,a5,16
 386 0094 C18B     		andi	a5,a5,16
 387              		.loc 1 101 9
 388 0096 95C7     		beq	a5,zero,.L19
 102:Core/Src/ch32v203xx_it.c ****          //–ï—Å–ª–∏ –ø—Ä–∏–ª–µ—Ç–µ–ª —Ñ–ª–∞–≥ IDLE
 103:Core/Src/ch32v203xx_it.c ****          USART3->DATAR; //–°–±—Ä–æ—Å–∏–º —Ñ–ª–∞–≥ IDLE
 389              		.loc 1 103 16
 390 0098 B7570040 		li	a5,1073762304
 391 009c 93870780 		addi	a5,a5,-2048
 392 00a0 DE23     		lhu	a5,4(a5)
 104:Core/Src/ch32v203xx_it.c ****          husart3.rx_len = husart3.rx_counter; //–£–∑–Ω–∞–µ–º, —Å–∫–æ–ª—å–∫–æ –±–∞–π—Ç –ø–æ–ª—É—á–∏–
 393              		.loc 1 104 34
 394 00a2 B7070000 		lui	a5,%hi(husart3)
 395 00a6 93870700 		addi	a5,a5,%lo(husart3)
 396 00aa DA2B     		lhu	a4,20(a5)
 397              		.loc 1 104 25
 398 00ac B7070000 		lui	a5,%hi(husart3)
 399 00b0 93870700 		addi	a5,a5,%lo(husart3)
 400 00b4 FAAB     		sh	a4,22(a5)
 105:Core/Src/ch32v203xx_it.c ****          husart3.rx_counter = 0; //—Å–±—Ä–æ—Å–∏–º —Å—á–µ—Ç—á–∏–∫ –ø—Ä–∏—Ö–æ–¥—è—â–∏—Ö –¥–∞–Ω–Ω—ã—Ö
 401              		.loc 1 105 29
 402 00b6 B7070000 		lui	a5,%hi(husart3)
 403 00ba 93870700 		addi	a5,a5,%lo(husart3)
 404 00be 239A0700 		sh	zero,20(a5)
 405              	.L19:
 106:Core/Src/ch32v203xx_it.c ****      }
 107:Core/Src/ch32v203xx_it.c ****  }
 406              		.loc 1 107 2
 407 00c2 0100     		nop
 408 00c4 3244     		lw	s0,12(sp)
 409              		.cfi_restore 8
 410              		.cfi_def_cfa 2, 16
 411 00c6 A246     		lw	a3,8(sp)
 412              		.cfi_restore 13
 413 00c8 1247     		lw	a4,4(sp)
GAS LISTING C:\Users\SOLDER~1\AppData\Local\Temp\ccqxjBbT.s 			page 10


 414              		.cfi_restore 14
 415 00ca 8247     		lw	a5,0(sp)
 416              		.cfi_restore 15
 417 00cc 4101     		addi	sp,sp,16
 418              		.cfi_def_cfa_offset 0
 419 00ce 73002030 		mret
 420              		.cfi_endproc
 421              	.LFE19:
 423              		.section	.text.TIM3_IRQHandler,"ax",@progbits
 424              		.align	1
 425              		.globl	TIM3_IRQHandler
 427              	TIM3_IRQHandler:
 428              	.LFB20:
 108:Core/Src/ch32v203xx_it.c ****  
 109:Core/Src/ch32v203xx_it.c ****  /**
 110:Core/Src/ch32v203xx_it.c ****   ******************************************************************************
 111:Core/Src/ch32v203xx_it.c ****   *  @breif –ü—Ä–µ—Ä—ã–≤–∞–Ω–∏–µ –ø–æ TIM3
 112:Core/Src/ch32v203xx_it.c ****   ******************************************************************************
 113:Core/Src/ch32v203xx_it.c ****   */
 114:Core/Src/ch32v203xx_it.c ****  
 115:Core/Src/ch32v203xx_it.c ****  void TIM3_IRQHandler(void) {
 429              		.loc 1 115 29
 430              		.cfi_startproc
 431 0000 4111     		addi	sp,sp,-16
 432              		.cfi_def_cfa_offset 16
 433 0002 22C6     		sw	s0,12(sp)
 434 0004 3AC4     		sw	a4,8(sp)
 435 0006 3EC2     		sw	a5,4(sp)
 436              		.cfi_offset 8, -4
 437              		.cfi_offset 14, -8
 438              		.cfi_offset 15, -12
 439 0008 0008     		addi	s0,sp,16
 440              		.cfi_def_cfa 8, 0
 116:Core/Src/ch32v203xx_it.c ****      if (READ_BIT(TIM3->INTFR, TIM_UIF)) {
 441              		.loc 1 116 10
 442 000a B7070040 		li	a5,1073741824
 443 000e 93870740 		addi	a5,a5,1024
 444 0012 9E2B     		lhu	a5,16(a5)
 445 0014 C207     		slli	a5,a5,16
 446 0016 C183     		srli	a5,a5,16
 447 0018 858B     		andi	a5,a5,1
 448              		.loc 1 116 9
 449 001a 8DC3     		beq	a5,zero,.L22
 117:Core/Src/ch32v203xx_it.c ****          CLEAR_BIT(TIM3->INTFR, TIM_UIF); //–°–±—Ä–æ—Å–∏–º —Ñ–ª–∞–≥ –ø—Ä–µ—Ä—ã–≤–∞–Ω–∏—è
 450              		.loc 1 117 10
 451 001c B7070040 		li	a5,1073741824
 452 0020 93870740 		addi	a5,a5,1024
 453 0024 9E2B     		lhu	a5,16(a5)
 454 0026 13970701 		slli	a4,a5,16
 455 002a 4183     		srli	a4,a4,16
 456 002c B7070040 		li	a5,1073741824
 457 0030 93870740 		addi	a5,a5,1024
 458 0034 799B     		andi	a4,a4,-2
 459 0036 4207     		slli	a4,a4,16
 460 0038 4183     		srli	a4,a4,16
 461 003a 9AAB     		sh	a4,16(a5)
 462              	.L22:
GAS LISTING C:\Users\SOLDER~1\AppData\Local\Temp\ccqxjBbT.s 			page 11


 118:Core/Src/ch32v203xx_it.c ****      }
 119:Core/Src/ch32v203xx_it.c ****  }
 463              		.loc 1 119 2
 464 003c 0100     		nop
 465 003e 3244     		lw	s0,12(sp)
 466              		.cfi_restore 8
 467              		.cfi_def_cfa 2, 16
 468 0040 2247     		lw	a4,8(sp)
 469              		.cfi_restore 14
 470 0042 9247     		lw	a5,4(sp)
 471              		.cfi_restore 15
 472 0044 4101     		addi	sp,sp,16
 473              		.cfi_def_cfa_offset 0
 474 0046 73002030 		mret
 475              		.cfi_endproc
 476              	.LFE20:
 478              		.text
 479              	.Letext0:
 480              		.file 2 "c:\\dev_tools\\ch32_tools\\risc-v_embedded_gcc12\\riscv-none-elf\\include\\machine\\_defa
 481              		.file 3 "c:\\dev_tools\\ch32_tools\\risc-v_embedded_gcc12\\riscv-none-elf\\include\\sys\\_stdint.h
 482              		.file 4 "Drivers/inc/core_riscv.h"
 483              		.file 5 "Drivers/inc/ch32v20x.h"
 484              		.file 6 "Core/Inc/ch32v20x_RVMSIS.h"
GAS LISTING C:\Users\SOLDER~1\AppData\Local\Temp\ccqxjBbT.s 			page 12


DEFINED SYMBOLS
                            *ABS*:0000000000000000 ch32v203xx_it.c
C:\Users\SOLDER~1\AppData\Local\Temp\ccqxjBbT.s:14     .text.SysTick_Handler:0000000000000000 SysTick_Handler
C:\Users\SOLDER~1\AppData\Local\Temp\ccqxjBbT.s:18     .text.SysTick_Handler:0000000000000000 .L0 
C:\Users\SOLDER~1\AppData\Local\Temp\ccqxjBbT.s:19     .text.SysTick_Handler:0000000000000000 $x
C:\Users\SOLDER~1\AppData\Local\Temp\ccqxjBbT.s:19     .text.SysTick_Handler:0000000000000000 .L0 
C:\Users\SOLDER~1\AppData\Local\Temp\ccqxjBbT.s:20     .text.SysTick_Handler:0000000000000002 .L0 
C:\Users\SOLDER~1\AppData\Local\Temp\ccqxjBbT.s:24     .text.SysTick_Handler:0000000000000008 .L0 
C:\Users\SOLDER~1\AppData\Local\Temp\ccqxjBbT.s:25     .text.SysTick_Handler:0000000000000008 .L0 
C:\Users\SOLDER~1\AppData\Local\Temp\ccqxjBbT.s:26     .text.SysTick_Handler:0000000000000008 .L0 
C:\Users\SOLDER~1\AppData\Local\Temp\ccqxjBbT.s:28     .text.SysTick_Handler:000000000000000a .L0 
C:\Users\SOLDER~1\AppData\Local\Temp\ccqxjBbT.s:30     .text.SysTick_Handler:000000000000000a .L0 
C:\Users\SOLDER~1\AppData\Local\Temp\ccqxjBbT.s:34     .text.SysTick_Handler:0000000000000014 .L0 
C:\Users\SOLDER~1\AppData\Local\Temp\ccqxjBbT.s:37     .text.SysTick_Handler:0000000000000018 .L0 
C:\Users\SOLDER~1\AppData\Local\Temp\ccqxjBbT.s:43     .text.SysTick_Handler:000000000000002c .L0 
C:\Users\SOLDER~1\AppData\Local\Temp\ccqxjBbT.s:46     .text.SysTick_Handler:0000000000000034 .L0 
C:\Users\SOLDER~1\AppData\Local\Temp\ccqxjBbT.s:48     .text.SysTick_Handler:0000000000000036 .L0 
C:\Users\SOLDER~1\AppData\Local\Temp\ccqxjBbT.s:55     .text.SysTick_Handler:000000000000004a .L0 
C:\Users\SOLDER~1\AppData\Local\Temp\ccqxjBbT.s:58     .text.SysTick_Handler:0000000000000052 .L0 
C:\Users\SOLDER~1\AppData\Local\Temp\ccqxjBbT.s:60     .text.SysTick_Handler:0000000000000054 .L0 
C:\Users\SOLDER~1\AppData\Local\Temp\ccqxjBbT.s:67     .text.SysTick_Handler:0000000000000068 .L0 
C:\Users\SOLDER~1\AppData\Local\Temp\ccqxjBbT.s:69     .text.SysTick_Handler:000000000000006c .L0 
C:\Users\SOLDER~1\AppData\Local\Temp\ccqxjBbT.s:70     .text.SysTick_Handler:000000000000006c .L0 
C:\Users\SOLDER~1\AppData\Local\Temp\ccqxjBbT.s:72     .text.SysTick_Handler:000000000000006e .L0 
C:\Users\SOLDER~1\AppData\Local\Temp\ccqxjBbT.s:74     .text.SysTick_Handler:0000000000000070 .L0 
C:\Users\SOLDER~1\AppData\Local\Temp\ccqxjBbT.s:76     .text.SysTick_Handler:0000000000000072 .L0 
C:\Users\SOLDER~1\AppData\Local\Temp\ccqxjBbT.s:78     .text.SysTick_Handler:0000000000000076 .L0 
C:\Users\SOLDER~1\AppData\Local\Temp\ccqxjBbT.s:85     .text.USART1_IRQHandler:0000000000000000 USART1_IRQHandler
C:\Users\SOLDER~1\AppData\Local\Temp\ccqxjBbT.s:88     .text.USART1_IRQHandler:0000000000000000 .L0 
C:\Users\SOLDER~1\AppData\Local\Temp\ccqxjBbT.s:89     .text.USART1_IRQHandler:0000000000000000 $x
C:\Users\SOLDER~1\AppData\Local\Temp\ccqxjBbT.s:89     .text.USART1_IRQHandler:0000000000000000 .L0 
C:\Users\SOLDER~1\AppData\Local\Temp\ccqxjBbT.s:90     .text.USART1_IRQHandler:0000000000000002 .L0 
C:\Users\SOLDER~1\AppData\Local\Temp\ccqxjBbT.s:95     .text.USART1_IRQHandler:000000000000000a .L0 
C:\Users\SOLDER~1\AppData\Local\Temp\ccqxjBbT.s:96     .text.USART1_IRQHandler:000000000000000a .L0 
C:\Users\SOLDER~1\AppData\Local\Temp\ccqxjBbT.s:97     .text.USART1_IRQHandler:000000000000000a .L0 
C:\Users\SOLDER~1\AppData\Local\Temp\ccqxjBbT.s:98     .text.USART1_IRQHandler:000000000000000a .L0 
C:\Users\SOLDER~1\AppData\Local\Temp\ccqxjBbT.s:100    .text.USART1_IRQHandler:000000000000000c .L0 
C:\Users\SOLDER~1\AppData\Local\Temp\ccqxjBbT.s:102    .text.USART1_IRQHandler:000000000000000c .L0 
C:\Users\SOLDER~1\AppData\Local\Temp\ccqxjBbT.s:109    .text.USART1_IRQHandler:000000000000001e .L0 
C:\Users\SOLDER~1\AppData\Local\Temp\ccqxjBbT.s:111    .text.USART1_IRQHandler:0000000000000020 .L0 
C:\Users\SOLDER~1\AppData\Local\Temp\ccqxjBbT.s:115    .text.USART1_IRQHandler:000000000000002a .L0 
C:\Users\SOLDER~1\AppData\Local\Temp\ccqxjBbT.s:118    .text.USART1_IRQHandler:0000000000000030 .L0 
C:\Users\SOLDER~1\AppData\Local\Temp\ccqxjBbT.s:124    .text.USART1_IRQHandler:0000000000000040 .L0 
C:\Users\SOLDER~1\AppData\Local\Temp\ccqxjBbT.s:129    .text.USART1_IRQHandler:000000000000004c .L0 
C:\Users\SOLDER~1\AppData\Local\Temp\ccqxjBbT.s:135    .text.USART1_IRQHandler:000000000000005c .L0 
C:\Users\SOLDER~1\AppData\Local\Temp\ccqxjBbT.s:139    .text.USART1_IRQHandler:0000000000000066 .L0 
C:\Users\SOLDER~1\AppData\Local\Temp\ccqxjBbT.s:148    .text.USART1_IRQHandler:000000000000007a .L0 
C:\Users\SOLDER~1\AppData\Local\Temp\ccqxjBbT.s:153    .text.USART1_IRQHandler:0000000000000086 .L0 
C:\Users\SOLDER~1\AppData\Local\Temp\ccqxjBbT.s:160    .text.USART1_IRQHandler:0000000000000096 .L0 
C:\Users\SOLDER~1\AppData\Local\Temp\ccqxjBbT.s:162    .text.USART1_IRQHandler:0000000000000098 .L0 
C:\Users\SOLDER~1\AppData\Local\Temp\ccqxjBbT.s:166    .text.USART1_IRQHandler:00000000000000a2 .L0 
C:\Users\SOLDER~1\AppData\Local\Temp\ccqxjBbT.s:170    .text.USART1_IRQHandler:00000000000000ac .L0 
C:\Users\SOLDER~1\AppData\Local\Temp\ccqxjBbT.s:174    .text.USART1_IRQHandler:00000000000000b6 .L0 
C:\Users\SOLDER~1\AppData\Local\Temp\ccqxjBbT.s:179    .text.USART1_IRQHandler:00000000000000c2 .L0 
C:\Users\SOLDER~1\AppData\Local\Temp\ccqxjBbT.s:181    .text.USART1_IRQHandler:00000000000000c6 .L0 
C:\Users\SOLDER~1\AppData\Local\Temp\ccqxjBbT.s:182    .text.USART1_IRQHandler:00000000000000c6 .L0 
C:\Users\SOLDER~1\AppData\Local\Temp\ccqxjBbT.s:184    .text.USART1_IRQHandler:00000000000000c8 .L0 
GAS LISTING C:\Users\SOLDER~1\AppData\Local\Temp\ccqxjBbT.s 			page 13


C:\Users\SOLDER~1\AppData\Local\Temp\ccqxjBbT.s:186    .text.USART1_IRQHandler:00000000000000ca .L0 
C:\Users\SOLDER~1\AppData\Local\Temp\ccqxjBbT.s:188    .text.USART1_IRQHandler:00000000000000cc .L0 
C:\Users\SOLDER~1\AppData\Local\Temp\ccqxjBbT.s:190    .text.USART1_IRQHandler:00000000000000ce .L0 
C:\Users\SOLDER~1\AppData\Local\Temp\ccqxjBbT.s:192    .text.USART1_IRQHandler:00000000000000d2 .L0 
C:\Users\SOLDER~1\AppData\Local\Temp\ccqxjBbT.s:199    .text.USART2_IRQHandler:0000000000000000 USART2_IRQHandler
C:\Users\SOLDER~1\AppData\Local\Temp\ccqxjBbT.s:202    .text.USART2_IRQHandler:0000000000000000 .L0 
C:\Users\SOLDER~1\AppData\Local\Temp\ccqxjBbT.s:203    .text.USART2_IRQHandler:0000000000000000 $x
C:\Users\SOLDER~1\AppData\Local\Temp\ccqxjBbT.s:203    .text.USART2_IRQHandler:0000000000000000 .L0 
C:\Users\SOLDER~1\AppData\Local\Temp\ccqxjBbT.s:204    .text.USART2_IRQHandler:0000000000000002 .L0 
C:\Users\SOLDER~1\AppData\Local\Temp\ccqxjBbT.s:209    .text.USART2_IRQHandler:000000000000000a .L0 
C:\Users\SOLDER~1\AppData\Local\Temp\ccqxjBbT.s:210    .text.USART2_IRQHandler:000000000000000a .L0 
C:\Users\SOLDER~1\AppData\Local\Temp\ccqxjBbT.s:211    .text.USART2_IRQHandler:000000000000000a .L0 
C:\Users\SOLDER~1\AppData\Local\Temp\ccqxjBbT.s:212    .text.USART2_IRQHandler:000000000000000a .L0 
C:\Users\SOLDER~1\AppData\Local\Temp\ccqxjBbT.s:214    .text.USART2_IRQHandler:000000000000000c .L0 
C:\Users\SOLDER~1\AppData\Local\Temp\ccqxjBbT.s:216    .text.USART2_IRQHandler:000000000000000c .L0 
C:\Users\SOLDER~1\AppData\Local\Temp\ccqxjBbT.s:223    .text.USART2_IRQHandler:000000000000001e .L0 
C:\Users\SOLDER~1\AppData\Local\Temp\ccqxjBbT.s:225    .text.USART2_IRQHandler:0000000000000020 .L0 
C:\Users\SOLDER~1\AppData\Local\Temp\ccqxjBbT.s:229    .text.USART2_IRQHandler:000000000000002a .L0 
C:\Users\SOLDER~1\AppData\Local\Temp\ccqxjBbT.s:232    .text.USART2_IRQHandler:0000000000000030 .L0 
C:\Users\SOLDER~1\AppData\Local\Temp\ccqxjBbT.s:238    .text.USART2_IRQHandler:0000000000000040 .L0 
C:\Users\SOLDER~1\AppData\Local\Temp\ccqxjBbT.s:243    .text.USART2_IRQHandler:000000000000004c .L0 
C:\Users\SOLDER~1\AppData\Local\Temp\ccqxjBbT.s:249    .text.USART2_IRQHandler:000000000000005c .L0 
C:\Users\SOLDER~1\AppData\Local\Temp\ccqxjBbT.s:253    .text.USART2_IRQHandler:0000000000000066 .L0 
C:\Users\SOLDER~1\AppData\Local\Temp\ccqxjBbT.s:262    .text.USART2_IRQHandler:000000000000007a .L0 
C:\Users\SOLDER~1\AppData\Local\Temp\ccqxjBbT.s:267    .text.USART2_IRQHandler:0000000000000086 .L0 
C:\Users\SOLDER~1\AppData\Local\Temp\ccqxjBbT.s:274    .text.USART2_IRQHandler:0000000000000096 .L0 
C:\Users\SOLDER~1\AppData\Local\Temp\ccqxjBbT.s:276    .text.USART2_IRQHandler:0000000000000098 .L0 
C:\Users\SOLDER~1\AppData\Local\Temp\ccqxjBbT.s:280    .text.USART2_IRQHandler:00000000000000a2 .L0 
C:\Users\SOLDER~1\AppData\Local\Temp\ccqxjBbT.s:284    .text.USART2_IRQHandler:00000000000000ac .L0 
C:\Users\SOLDER~1\AppData\Local\Temp\ccqxjBbT.s:288    .text.USART2_IRQHandler:00000000000000b6 .L0 
C:\Users\SOLDER~1\AppData\Local\Temp\ccqxjBbT.s:293    .text.USART2_IRQHandler:00000000000000c2 .L0 
C:\Users\SOLDER~1\AppData\Local\Temp\ccqxjBbT.s:295    .text.USART2_IRQHandler:00000000000000c6 .L0 
C:\Users\SOLDER~1\AppData\Local\Temp\ccqxjBbT.s:296    .text.USART2_IRQHandler:00000000000000c6 .L0 
C:\Users\SOLDER~1\AppData\Local\Temp\ccqxjBbT.s:298    .text.USART2_IRQHandler:00000000000000c8 .L0 
C:\Users\SOLDER~1\AppData\Local\Temp\ccqxjBbT.s:300    .text.USART2_IRQHandler:00000000000000ca .L0 
C:\Users\SOLDER~1\AppData\Local\Temp\ccqxjBbT.s:302    .text.USART2_IRQHandler:00000000000000cc .L0 
C:\Users\SOLDER~1\AppData\Local\Temp\ccqxjBbT.s:304    .text.USART2_IRQHandler:00000000000000ce .L0 
C:\Users\SOLDER~1\AppData\Local\Temp\ccqxjBbT.s:306    .text.USART2_IRQHandler:00000000000000d2 .L0 
C:\Users\SOLDER~1\AppData\Local\Temp\ccqxjBbT.s:313    .text.USART3_IRQHandler:0000000000000000 USART3_IRQHandler
C:\Users\SOLDER~1\AppData\Local\Temp\ccqxjBbT.s:316    .text.USART3_IRQHandler:0000000000000000 .L0 
C:\Users\SOLDER~1\AppData\Local\Temp\ccqxjBbT.s:317    .text.USART3_IRQHandler:0000000000000000 $x
C:\Users\SOLDER~1\AppData\Local\Temp\ccqxjBbT.s:317    .text.USART3_IRQHandler:0000000000000000 .L0 
C:\Users\SOLDER~1\AppData\Local\Temp\ccqxjBbT.s:318    .text.USART3_IRQHandler:0000000000000002 .L0 
C:\Users\SOLDER~1\AppData\Local\Temp\ccqxjBbT.s:323    .text.USART3_IRQHandler:000000000000000a .L0 
C:\Users\SOLDER~1\AppData\Local\Temp\ccqxjBbT.s:324    .text.USART3_IRQHandler:000000000000000a .L0 
C:\Users\SOLDER~1\AppData\Local\Temp\ccqxjBbT.s:325    .text.USART3_IRQHandler:000000000000000a .L0 
C:\Users\SOLDER~1\AppData\Local\Temp\ccqxjBbT.s:326    .text.USART3_IRQHandler:000000000000000a .L0 
C:\Users\SOLDER~1\AppData\Local\Temp\ccqxjBbT.s:328    .text.USART3_IRQHandler:000000000000000c .L0 
C:\Users\SOLDER~1\AppData\Local\Temp\ccqxjBbT.s:330    .text.USART3_IRQHandler:000000000000000c .L0 
C:\Users\SOLDER~1\AppData\Local\Temp\ccqxjBbT.s:337    .text.USART3_IRQHandler:000000000000001e .L0 
C:\Users\SOLDER~1\AppData\Local\Temp\ccqxjBbT.s:339    .text.USART3_IRQHandler:0000000000000020 .L0 
C:\Users\SOLDER~1\AppData\Local\Temp\ccqxjBbT.s:343    .text.USART3_IRQHandler:000000000000002a .L0 
C:\Users\SOLDER~1\AppData\Local\Temp\ccqxjBbT.s:346    .text.USART3_IRQHandler:0000000000000030 .L0 
C:\Users\SOLDER~1\AppData\Local\Temp\ccqxjBbT.s:352    .text.USART3_IRQHandler:0000000000000040 .L0 
C:\Users\SOLDER~1\AppData\Local\Temp\ccqxjBbT.s:357    .text.USART3_IRQHandler:000000000000004c .L0 
C:\Users\SOLDER~1\AppData\Local\Temp\ccqxjBbT.s:363    .text.USART3_IRQHandler:000000000000005c .L0 
C:\Users\SOLDER~1\AppData\Local\Temp\ccqxjBbT.s:367    .text.USART3_IRQHandler:0000000000000066 .L0 
GAS LISTING C:\Users\SOLDER~1\AppData\Local\Temp\ccqxjBbT.s 			page 14


C:\Users\SOLDER~1\AppData\Local\Temp\ccqxjBbT.s:376    .text.USART3_IRQHandler:000000000000007a .L0 
C:\Users\SOLDER~1\AppData\Local\Temp\ccqxjBbT.s:381    .text.USART3_IRQHandler:0000000000000086 .L0 
C:\Users\SOLDER~1\AppData\Local\Temp\ccqxjBbT.s:388    .text.USART3_IRQHandler:0000000000000096 .L0 
C:\Users\SOLDER~1\AppData\Local\Temp\ccqxjBbT.s:390    .text.USART3_IRQHandler:0000000000000098 .L0 
C:\Users\SOLDER~1\AppData\Local\Temp\ccqxjBbT.s:394    .text.USART3_IRQHandler:00000000000000a2 .L0 
C:\Users\SOLDER~1\AppData\Local\Temp\ccqxjBbT.s:398    .text.USART3_IRQHandler:00000000000000ac .L0 
C:\Users\SOLDER~1\AppData\Local\Temp\ccqxjBbT.s:402    .text.USART3_IRQHandler:00000000000000b6 .L0 
C:\Users\SOLDER~1\AppData\Local\Temp\ccqxjBbT.s:407    .text.USART3_IRQHandler:00000000000000c2 .L0 
C:\Users\SOLDER~1\AppData\Local\Temp\ccqxjBbT.s:409    .text.USART3_IRQHandler:00000000000000c6 .L0 
C:\Users\SOLDER~1\AppData\Local\Temp\ccqxjBbT.s:410    .text.USART3_IRQHandler:00000000000000c6 .L0 
C:\Users\SOLDER~1\AppData\Local\Temp\ccqxjBbT.s:412    .text.USART3_IRQHandler:00000000000000c8 .L0 
C:\Users\SOLDER~1\AppData\Local\Temp\ccqxjBbT.s:414    .text.USART3_IRQHandler:00000000000000ca .L0 
C:\Users\SOLDER~1\AppData\Local\Temp\ccqxjBbT.s:416    .text.USART3_IRQHandler:00000000000000cc .L0 
C:\Users\SOLDER~1\AppData\Local\Temp\ccqxjBbT.s:418    .text.USART3_IRQHandler:00000000000000ce .L0 
C:\Users\SOLDER~1\AppData\Local\Temp\ccqxjBbT.s:420    .text.USART3_IRQHandler:00000000000000d2 .L0 
C:\Users\SOLDER~1\AppData\Local\Temp\ccqxjBbT.s:427    .text.TIM3_IRQHandler:0000000000000000 TIM3_IRQHandler
C:\Users\SOLDER~1\AppData\Local\Temp\ccqxjBbT.s:430    .text.TIM3_IRQHandler:0000000000000000 .L0 
C:\Users\SOLDER~1\AppData\Local\Temp\ccqxjBbT.s:431    .text.TIM3_IRQHandler:0000000000000000 $x
C:\Users\SOLDER~1\AppData\Local\Temp\ccqxjBbT.s:431    .text.TIM3_IRQHandler:0000000000000000 .L0 
C:\Users\SOLDER~1\AppData\Local\Temp\ccqxjBbT.s:432    .text.TIM3_IRQHandler:0000000000000002 .L0 
C:\Users\SOLDER~1\AppData\Local\Temp\ccqxjBbT.s:436    .text.TIM3_IRQHandler:0000000000000008 .L0 
C:\Users\SOLDER~1\AppData\Local\Temp\ccqxjBbT.s:437    .text.TIM3_IRQHandler:0000000000000008 .L0 
C:\Users\SOLDER~1\AppData\Local\Temp\ccqxjBbT.s:438    .text.TIM3_IRQHandler:0000000000000008 .L0 
C:\Users\SOLDER~1\AppData\Local\Temp\ccqxjBbT.s:440    .text.TIM3_IRQHandler:000000000000000a .L0 
C:\Users\SOLDER~1\AppData\Local\Temp\ccqxjBbT.s:442    .text.TIM3_IRQHandler:000000000000000a .L0 
C:\Users\SOLDER~1\AppData\Local\Temp\ccqxjBbT.s:449    .text.TIM3_IRQHandler:000000000000001a .L0 
C:\Users\SOLDER~1\AppData\Local\Temp\ccqxjBbT.s:451    .text.TIM3_IRQHandler:000000000000001c .L0 
C:\Users\SOLDER~1\AppData\Local\Temp\ccqxjBbT.s:464    .text.TIM3_IRQHandler:000000000000003c .L0 
C:\Users\SOLDER~1\AppData\Local\Temp\ccqxjBbT.s:466    .text.TIM3_IRQHandler:0000000000000040 .L0 
C:\Users\SOLDER~1\AppData\Local\Temp\ccqxjBbT.s:467    .text.TIM3_IRQHandler:0000000000000040 .L0 
C:\Users\SOLDER~1\AppData\Local\Temp\ccqxjBbT.s:469    .text.TIM3_IRQHandler:0000000000000042 .L0 
C:\Users\SOLDER~1\AppData\Local\Temp\ccqxjBbT.s:471    .text.TIM3_IRQHandler:0000000000000044 .L0 
C:\Users\SOLDER~1\AppData\Local\Temp\ccqxjBbT.s:473    .text.TIM3_IRQHandler:0000000000000046 .L0 
C:\Users\SOLDER~1\AppData\Local\Temp\ccqxjBbT.s:475    .text.TIM3_IRQHandler:000000000000004a .L0 
C:\Users\SOLDER~1\AppData\Local\Temp\ccqxjBbT.s:30558  .debug_line_str:0000000000000063 .L0 
C:\Users\SOLDER~1\AppData\Local\Temp\ccqxjBbT.s:30558  .debug_line_str:00000000000000ad .L0 
C:\Users\SOLDER~1\AppData\Local\Temp\ccqxjBbT.s:30558  .debug_line_str:00000000000000b6 .L0 
C:\Users\SOLDER~1\AppData\Local\Temp\ccqxjBbT.s:30558  .debug_line_str:0000000000000103 .L0 
C:\Users\SOLDER~1\AppData\Local\Temp\ccqxjBbT.s:30558  .debug_line_str:000000000000014c .L0 
C:\Users\SOLDER~1\AppData\Local\Temp\ccqxjBbT.s:30558  .debug_line_str:0000000000000158 .L0 
C:\Users\SOLDER~1\AppData\Local\Temp\ccqxjBbT.s:30558  .debug_line_str:0000000000000161 .L0 
C:\Users\SOLDER~1\AppData\Local\Temp\ccqxjBbT.s:30558  .debug_line_str:00000000000001b5 .L0 
C:\Users\SOLDER~1\AppData\Local\Temp\ccqxjBbT.s:30558  .debug_line_str:00000000000001fa .L0 
C:\Users\SOLDER~1\AppData\Local\Temp\ccqxjBbT.s:30558  .debug_line_str:000000000000020a .L0 
C:\Users\SOLDER~1\AppData\Local\Temp\ccqxjBbT.s:30558  .debug_line_str:000000000000021a .L0 
C:\Users\SOLDER~1\AppData\Local\Temp\ccqxjBbT.s:30558  .debug_line_str:000000000000022b .L0 
C:\Users\SOLDER~1\AppData\Local\Temp\ccqxjBbT.s:30558  .debug_line_str:0000000000000235 .L0 
C:\Users\SOLDER~1\AppData\Local\Temp\ccqxjBbT.s:30558  .debug_line_str:0000000000000242 .L0 
C:\Users\SOLDER~1\AppData\Local\Temp\ccqxjBbT.s:30558  .debug_line_str:000000000000024d .L0 
C:\Users\SOLDER~1\AppData\Local\Temp\ccqxjBbT.s:30558  .debug_line_str:000000000000025f .L0 
C:\Users\SOLDER~1\AppData\Local\Temp\ccqxjBbT.s:30558  .debug_line_str:000000000000026f .L0 
C:\Users\SOLDER~1\AppData\Local\Temp\ccqxjBbT.s:30558  .debug_line_str:0000000000000276 .L0 
C:\Users\SOLDER~1\AppData\Local\Temp\ccqxjBbT.s:30558  .debug_line_str:0000000000000280 .L0 
C:\Users\SOLDER~1\AppData\Local\Temp\ccqxjBbT.s:30558  .debug_line_str:0000000000000289 .L0 
C:\Users\SOLDER~1\AppData\Local\Temp\ccqxjBbT.s:30558  .debug_line_str:0000000000000292 .L0 
C:\Users\SOLDER~1\AppData\Local\Temp\ccqxjBbT.s:30558  .debug_line_str:000000000000029d .L0 
C:\Users\SOLDER~1\AppData\Local\Temp\ccqxjBbT.s:30558  .debug_line_str:00000000000002af .L0 
GAS LISTING C:\Users\SOLDER~1\AppData\Local\Temp\ccqxjBbT.s 			page 15


C:\Users\SOLDER~1\AppData\Local\Temp\ccqxjBbT.s:30558  .debug_line_str:00000000000002b9 .L0 
C:\Users\SOLDER~1\AppData\Local\Temp\ccqxjBbT.s:30558  .debug_line_str:00000000000002c9 .L0 
C:\Users\SOLDER~1\AppData\Local\Temp\ccqxjBbT.s:30558  .debug_line_str:00000000000002d8 .L0 
C:\Users\SOLDER~1\AppData\Local\Temp\ccqxjBbT.s:30558  .debug_line_str:00000000000002e7 .L0 
C:\Users\SOLDER~1\AppData\Local\Temp\ccqxjBbT.s:30558  .debug_line_str:00000000000002f6 .L0 
C:\Users\SOLDER~1\AppData\Local\Temp\ccqxjBbT.s:30558  .debug_line_str:0000000000000305 .L0 
C:\Users\SOLDER~1\AppData\Local\Temp\ccqxjBbT.s:30558  .debug_line_str:0000000000000317 .L0 
C:\Users\SOLDER~1\AppData\Local\Temp\ccqxjBbT.s:30558  .debug_line_str:0000000000000326 .L0 
C:\Users\SOLDER~1\AppData\Local\Temp\ccqxjBbT.s:30558  .debug_line_str:0000000000000336 .L0 
C:\Users\SOLDER~1\AppData\Local\Temp\ccqxjBbT.s:30558  .debug_line_str:0000000000000347 .L0 
C:\Users\SOLDER~1\AppData\Local\Temp\ccqxjBbT.s:30558  .debug_line_str:0000000000000357 .L0 
C:\Users\SOLDER~1\AppData\Local\Temp\ccqxjBbT.s:30558  .debug_line_str:0000000000000366 .L0 
C:\Users\SOLDER~1\AppData\Local\Temp\ccqxjBbT.s:30558  .debug_line_str:0000000000000376 .L0 
C:\Users\SOLDER~1\AppData\Local\Temp\ccqxjBbT.s:30558  .debug_line_str:0000000000000385 .L0 
C:\Users\SOLDER~1\AppData\Local\Temp\ccqxjBbT.s:30558  .debug_line_str:0000000000000394 .L0 
C:\Users\SOLDER~1\AppData\Local\Temp\ccqxjBbT.s:30558  .debug_line_str:00000000000003a3 .L0 
C:\Users\SOLDER~1\AppData\Local\Temp\ccqxjBbT.s:30558  .debug_line_str:00000000000003b2 .L0 
C:\Users\SOLDER~1\AppData\Local\Temp\ccqxjBbT.s:30558  .debug_line_str:00000000000003c1 .L0 
C:\Users\SOLDER~1\AppData\Local\Temp\ccqxjBbT.s:30558  .debug_line_str:00000000000003d2 .L0 
C:\Users\SOLDER~1\AppData\Local\Temp\ccqxjBbT.s:30558  .debug_line_str:00000000000003e2 .L0 
C:\Users\SOLDER~1\AppData\Local\Temp\ccqxjBbT.s:81     .text.SysTick_Handler:0000000000000076 .L0 
C:\Users\SOLDER~1\AppData\Local\Temp\ccqxjBbT.s:195    .text.USART1_IRQHandler:00000000000000d2 .L0 
C:\Users\SOLDER~1\AppData\Local\Temp\ccqxjBbT.s:309    .text.USART2_IRQHandler:00000000000000d2 .L0 
C:\Users\SOLDER~1\AppData\Local\Temp\ccqxjBbT.s:423    .text.USART3_IRQHandler:00000000000000d2 .L0 
C:\Users\SOLDER~1\AppData\Local\Temp\ccqxjBbT.s:478    .text.TIM3_IRQHandler:000000000000004a .L0 
                     .debug_frame:0000000000000000 .L0 
C:\Users\SOLDER~1\AppData\Local\Temp\ccqxjBbT.s:53     .text.SysTick_Handler:000000000000004a .L2
C:\Users\SOLDER~1\AppData\Local\Temp\ccqxjBbT.s:65     .text.SysTick_Handler:0000000000000068 .L4
C:\Users\SOLDER~1\AppData\Local\Temp\ccqxjBbT.s:151    .text.USART1_IRQHandler:0000000000000086 .L6
C:\Users\SOLDER~1\AppData\Local\Temp\ccqxjBbT.s:146    .text.USART1_IRQHandler:000000000000007a .L7
C:\Users\SOLDER~1\AppData\Local\Temp\ccqxjBbT.s:177    .text.USART1_IRQHandler:00000000000000c2 .L9
C:\Users\SOLDER~1\AppData\Local\Temp\ccqxjBbT.s:265    .text.USART2_IRQHandler:0000000000000086 .L11
C:\Users\SOLDER~1\AppData\Local\Temp\ccqxjBbT.s:260    .text.USART2_IRQHandler:000000000000007a .L12
C:\Users\SOLDER~1\AppData\Local\Temp\ccqxjBbT.s:291    .text.USART2_IRQHandler:00000000000000c2 .L14
C:\Users\SOLDER~1\AppData\Local\Temp\ccqxjBbT.s:379    .text.USART3_IRQHandler:0000000000000086 .L16
C:\Users\SOLDER~1\AppData\Local\Temp\ccqxjBbT.s:374    .text.USART3_IRQHandler:000000000000007a .L17
C:\Users\SOLDER~1\AppData\Local\Temp\ccqxjBbT.s:405    .text.USART3_IRQHandler:00000000000000c2 .L19
C:\Users\SOLDER~1\AppData\Local\Temp\ccqxjBbT.s:462    .text.TIM3_IRQHandler:000000000000003c .L22
C:\Users\SOLDER~1\AppData\Local\Temp\ccqxjBbT.s:1025   .debug_abbrev:0000000000000000 .Ldebug_abbrev0
C:\Users\SOLDER~1\AppData\Local\Temp\ccqxjBbT.s:19053  .debug_str:000000000000068c .LASF5800
C:\Users\SOLDER~1\AppData\Local\Temp\ccqxjBbT.s:30554  .debug_line_str:0000000000000000 .LASF0
C:\Users\SOLDER~1\AppData\Local\Temp\ccqxjBbT.s:30556  .debug_line_str:0000000000000019 .LASF1
C:\Users\SOLDER~1\AppData\Local\Temp\ccqxjBbT.s:1343   .debug_rnglists:000000000000000c .LLRL0
C:\Users\SOLDER~1\AppData\Local\Temp\ccqxjBbT.s:18951  .debug_line:0000000000000000 .Ldebug_line0
C:\Users\SOLDER~1\AppData\Local\Temp\ccqxjBbT.s:1362   .debug_macro:0000000000000000 .Ldebug_macro0
C:\Users\SOLDER~1\AppData\Local\Temp\ccqxjBbT.s:30491  .debug_str:000000000002ecfb .LASF5724
C:\Users\SOLDER~1\AppData\Local\Temp\ccqxjBbT.s:25253  .debug_str:00000000000198d5 .LASF5725
C:\Users\SOLDER~1\AppData\Local\Temp\ccqxjBbT.s:21231  .debug_str:00000000000093d1 .LASF5728
C:\Users\SOLDER~1\AppData\Local\Temp\ccqxjBbT.s:24749  .debug_str:000000000001786f .LASF5726
C:\Users\SOLDER~1\AppData\Local\Temp\ccqxjBbT.s:24051  .debug_str:0000000000014c73 .LASF5727
C:\Users\SOLDER~1\AppData\Local\Temp\ccqxjBbT.s:22591  .debug_str:000000000000ecf7 .LASF5729
C:\Users\SOLDER~1\AppData\Local\Temp\ccqxjBbT.s:28225  .debug_str:00000000000258de .LASF5730
C:\Users\SOLDER~1\AppData\Local\Temp\ccqxjBbT.s:28507  .debug_str:0000000000026c1e .LASF5731
C:\Users\SOLDER~1\AppData\Local\Temp\ccqxjBbT.s:25449  .debug_str:000000000001a4e4 .LASF5732
C:\Users\SOLDER~1\AppData\Local\Temp\ccqxjBbT.s:19065  .debug_str:00000000000007e8 .LASF5733
C:\Users\SOLDER~1\AppData\Local\Temp\ccqxjBbT.s:18973  .debug_str:000000000000014f .LASF5734
C:\Users\SOLDER~1\AppData\Local\Temp\ccqxjBbT.s:30037  .debug_str:000000000002cf9b .LASF5735
GAS LISTING C:\Users\SOLDER~1\AppData\Local\Temp\ccqxjBbT.s 			page 16


C:\Users\SOLDER~1\AppData\Local\Temp\ccqxjBbT.s:28597  .debug_str:00000000000271de .LASF5736
C:\Users\SOLDER~1\AppData\Local\Temp\ccqxjBbT.s:28165  .debug_str:00000000000254c6 .LASF5737
C:\Users\SOLDER~1\AppData\Local\Temp\ccqxjBbT.s:28525  .debug_str:0000000000026d1d .LASF5738
C:\Users\SOLDER~1\AppData\Local\Temp\ccqxjBbT.s:19799  .debug_str:000000000000370f .LASF5739
C:\Users\SOLDER~1\AppData\Local\Temp\ccqxjBbT.s:22723  .debug_str:000000000000f538 .LASF5740
C:\Users\SOLDER~1\AppData\Local\Temp\ccqxjBbT.s:25161  .debug_str:00000000000192fa .LASF5741
C:\Users\SOLDER~1\AppData\Local\Temp\ccqxjBbT.s:27027  .debug_str:0000000000020b7f .LASF5742
C:\Users\SOLDER~1\AppData\Local\Temp\ccqxjBbT.s:25273  .debug_str:0000000000019a1a .LASF5743
C:\Users\SOLDER~1\AppData\Local\Temp\ccqxjBbT.s:21779  .debug_str:000000000000b77d .LASF5744
C:\Users\SOLDER~1\AppData\Local\Temp\ccqxjBbT.s:25275  .debug_str:0000000000019a20 .LASF5745
C:\Users\SOLDER~1\AppData\Local\Temp\ccqxjBbT.s:24243  .debug_str:00000000000158a5 .LASF5746
C:\Users\SOLDER~1\AppData\Local\Temp\ccqxjBbT.s:20357  .debug_str:0000000000005a65 .LASF5747
C:\Users\SOLDER~1\AppData\Local\Temp\ccqxjBbT.s:24245  .debug_str:00000000000158af .LASF5748
C:\Users\SOLDER~1\AppData\Local\Temp\ccqxjBbT.s:19695  .debug_str:000000000000306a .LASF5749
C:\Users\SOLDER~1\AppData\Local\Temp\ccqxjBbT.s:21791  .debug_str:000000000000b82c .LASF5750
C:\Users\SOLDER~1\AppData\Local\Temp\ccqxjBbT.s:24139  .debug_str:00000000000151dc .LASF5751
C:\Users\SOLDER~1\AppData\Local\Temp\ccqxjBbT.s:21795  .debug_str:000000000000b863 .LASF5752
C:\Users\SOLDER~1\AppData\Local\Temp\ccqxjBbT.s:28991  .debug_str:0000000000028ba5 .LASF5753
C:\Users\SOLDER~1\AppData\Local\Temp\ccqxjBbT.s:21799  .debug_str:000000000000b892 .LASF5754
C:\Users\SOLDER~1\AppData\Local\Temp\ccqxjBbT.s:26721  .debug_str:000000000001f7f4 .LASF5755
C:\Users\SOLDER~1\AppData\Local\Temp\ccqxjBbT.s:24253  .debug_str:000000000001591e .LASF5756
C:\Users\SOLDER~1\AppData\Local\Temp\ccqxjBbT.s:26723  .debug_str:000000000001f7fc .LASF5757
C:\Users\SOLDER~1\AppData\Local\Temp\ccqxjBbT.s:24255  .debug_str:0000000000015928 .LASF5758
C:\Users\SOLDER~1\AppData\Local\Temp\ccqxjBbT.s:23283  .debug_str:00000000000119a6 .LASF5759
C:\Users\SOLDER~1\AppData\Local\Temp\ccqxjBbT.s:24257  .debug_str:0000000000015932 .LASF5760
C:\Users\SOLDER~1\AppData\Local\Temp\ccqxjBbT.s:21813  .debug_str:000000000000b96f .LASF5761
C:\Users\SOLDER~1\AppData\Local\Temp\ccqxjBbT.s:24807  .debug_str:0000000000017c0c .LASF5762
C:\Users\SOLDER~1\AppData\Local\Temp\ccqxjBbT.s:24541  .debug_str:0000000000016af8 .LASF5763
C:\Users\SOLDER~1\AppData\Local\Temp\ccqxjBbT.s:19179  .debug_str:0000000000000fa7 .LASF5764
C:\Users\SOLDER~1\AppData\Local\Temp\ccqxjBbT.s:21755  .debug_str:000000000000b634 .LASF5765
C:\Users\SOLDER~1\AppData\Local\Temp\ccqxjBbT.s:19181  .debug_str:0000000000000fb2 .LASF5766
C:\Users\SOLDER~1\AppData\Local\Temp\ccqxjBbT.s:27305  .debug_str:0000000000021d3b .LASF5767
C:\Users\SOLDER~1\AppData\Local\Temp\ccqxjBbT.s:19183  .debug_str:0000000000000fbd .LASF5768
C:\Users\SOLDER~1\AppData\Local\Temp\ccqxjBbT.s:26105  .debug_str:000000000001cf75 .LASF5769
C:\Users\SOLDER~1\AppData\Local\Temp\ccqxjBbT.s:19185  .debug_str:0000000000000fc8 .LASF5770
C:\Users\SOLDER~1\AppData\Local\Temp\ccqxjBbT.s:20979  .debug_str:0000000000008320 .LASF5771
C:\Users\SOLDER~1\AppData\Local\Temp\ccqxjBbT.s:19187  .debug_str:0000000000000fd3 .LASF5772
C:\Users\SOLDER~1\AppData\Local\Temp\ccqxjBbT.s:19597  .debug_str:0000000000002a63 .LASF5773
C:\Users\SOLDER~1\AppData\Local\Temp\ccqxjBbT.s:24827  .debug_str:0000000000017d41 .LASF5774
C:\Users\SOLDER~1\AppData\Local\Temp\ccqxjBbT.s:22709  .debug_str:000000000000f45d .LASF5775
C:\Users\SOLDER~1\AppData\Local\Temp\ccqxjBbT.s:24831  .debug_str:0000000000017d71 .LASF5776
C:\Users\SOLDER~1\AppData\Local\Temp\ccqxjBbT.s:21845  .debug_str:000000000000bb84 .LASF5777
C:\Users\SOLDER~1\AppData\Local\Temp\ccqxjBbT.s:19193  .debug_str:000000000000101a .LASF5778
C:\Users\SOLDER~1\AppData\Local\Temp\ccqxjBbT.s:21719  .debug_str:000000000000b3e0 .LASF5779
C:\Users\SOLDER~1\AppData\Local\Temp\ccqxjBbT.s:19195  .debug_str:0000000000001025 .LASF5780
C:\Users\SOLDER~1\AppData\Local\Temp\ccqxjBbT.s:20099  .debug_str:0000000000004a19 .LASF5781
C:\Users\SOLDER~1\AppData\Local\Temp\ccqxjBbT.s:30547  .debug_str:000000000002f05e .LASF5782
C:\Users\SOLDER~1\AppData\Local\Temp\ccqxjBbT.s:22317  .debug_str:000000000000daff .LASF5783
C:\Users\SOLDER~1\AppData\Local\Temp\ccqxjBbT.s:25277  .debug_str:0000000000019a26 .LASF5784
C:\Users\SOLDER~1\AppData\Local\Temp\ccqxjBbT.s:27633  .debug_str:000000000002325b .LASF5785
C:\Users\SOLDER~1\AppData\Local\Temp\ccqxjBbT.s:23547  .debug_str:00000000000129fb .LASF5801
C:\Users\SOLDER~1\AppData\Local\Temp\ccqxjBbT.s:27819  .debug_str:0000000000023e6f .LASF5786
C:\Users\SOLDER~1\AppData\Local\Temp\ccqxjBbT.s:27871  .debug_str:00000000000241ce .LASF5787
C:\Users\SOLDER~1\AppData\Local\Temp\ccqxjBbT.s:26075  .debug_str:000000000001cddf .LASF5788
C:\Users\SOLDER~1\AppData\Local\Temp\ccqxjBbT.s:22863  .debug_str:000000000000feaa .LASF5789
C:\Users\SOLDER~1\AppData\Local\Temp\ccqxjBbT.s:23521  .debug_str:00000000000128c1 .LASF5790
C:\Users\SOLDER~1\AppData\Local\Temp\ccqxjBbT.s:28949  .debug_str:00000000000288fd .LASF5791
GAS LISTING C:\Users\SOLDER~1\AppData\Local\Temp\ccqxjBbT.s 			page 17


C:\Users\SOLDER~1\AppData\Local\Temp\ccqxjBbT.s:23541  .debug_str:00000000000129e3 .LASF5792
C:\Users\SOLDER~1\AppData\Local\Temp\ccqxjBbT.s:23543  .debug_str:00000000000129eb .LASF5793
C:\Users\SOLDER~1\AppData\Local\Temp\ccqxjBbT.s:23545  .debug_str:00000000000129f3 .LASF5794
C:\Users\SOLDER~1\AppData\Local\Temp\ccqxjBbT.s:25735  .debug_str:000000000001b751 .LASF5795
C:\Users\SOLDER~1\AppData\Local\Temp\ccqxjBbT.s:428    .text.TIM3_IRQHandler:0000000000000000 .LFB20
C:\Users\SOLDER~1\AppData\Local\Temp\ccqxjBbT.s:476    .text.TIM3_IRQHandler:000000000000004a .LFE20
C:\Users\SOLDER~1\AppData\Local\Temp\ccqxjBbT.s:24075  .debug_str:0000000000014e21 .LASF5796
C:\Users\SOLDER~1\AppData\Local\Temp\ccqxjBbT.s:314    .text.USART3_IRQHandler:0000000000000000 .LFB19
C:\Users\SOLDER~1\AppData\Local\Temp\ccqxjBbT.s:421    .text.USART3_IRQHandler:00000000000000d2 .LFE19
C:\Users\SOLDER~1\AppData\Local\Temp\ccqxjBbT.s:28509  .debug_str:0000000000026c27 .LASF5797
C:\Users\SOLDER~1\AppData\Local\Temp\ccqxjBbT.s:200    .text.USART2_IRQHandler:0000000000000000 .LFB18
C:\Users\SOLDER~1\AppData\Local\Temp\ccqxjBbT.s:307    .text.USART2_IRQHandler:00000000000000d2 .LFE18
C:\Users\SOLDER~1\AppData\Local\Temp\ccqxjBbT.s:21423  .debug_str:000000000000a068 .LASF5798
C:\Users\SOLDER~1\AppData\Local\Temp\ccqxjBbT.s:86     .text.USART1_IRQHandler:0000000000000000 .LFB17
C:\Users\SOLDER~1\AppData\Local\Temp\ccqxjBbT.s:193    .text.USART1_IRQHandler:00000000000000d2 .LFE17
C:\Users\SOLDER~1\AppData\Local\Temp\ccqxjBbT.s:24087  .debug_str:0000000000014ed1 .LASF5799
C:\Users\SOLDER~1\AppData\Local\Temp\ccqxjBbT.s:15     .text.SysTick_Handler:0000000000000000 .LFB16
C:\Users\SOLDER~1\AppData\Local\Temp\ccqxjBbT.s:79     .text.SysTick_Handler:0000000000000076 .LFE16
C:\Users\SOLDER~1\AppData\Local\Temp\ccqxjBbT.s:486    .debug_info:0000000000000000 .Ldebug_info0
C:\Users\SOLDER~1\AppData\Local\Temp\ccqxjBbT.s:1638   .debug_macro:0000000000000000 .Ldebug_macro2
C:\Users\SOLDER~1\AppData\Local\Temp\ccqxjBbT.s:23869  .debug_str:0000000000014012 .LASF318
C:\Users\SOLDER~1\AppData\Local\Temp\ccqxjBbT.s:26047  .debug_str:000000000001cc18 .LASF319
C:\Users\SOLDER~1\AppData\Local\Temp\ccqxjBbT.s:2591   .debug_macro:0000000000000000 .Ldebug_macro3
C:\Users\SOLDER~1\AppData\Local\Temp\ccqxjBbT.s:2611   .debug_macro:0000000000000000 .Ldebug_macro4
C:\Users\SOLDER~1\AppData\Local\Temp\ccqxjBbT.s:25349  .debug_str:0000000000019e8a .LASF342
C:\Users\SOLDER~1\AppData\Local\Temp\ccqxjBbT.s:20003  .debug_str:0000000000004413 .LASF343
C:\Users\SOLDER~1\AppData\Local\Temp\ccqxjBbT.s:27327  .debug_str:0000000000021e96 .LASF344
C:\Users\SOLDER~1\AppData\Local\Temp\ccqxjBbT.s:2667   .debug_macro:0000000000000000 .Ldebug_macro5
C:\Users\SOLDER~1\AppData\Local\Temp\ccqxjBbT.s:2687   .debug_macro:0000000000000000 .Ldebug_macro6
C:\Users\SOLDER~1\AppData\Local\Temp\ccqxjBbT.s:2752   .debug_macro:0000000000000000 .Ldebug_macro7
C:\Users\SOLDER~1\AppData\Local\Temp\ccqxjBbT.s:2793   .debug_macro:0000000000000000 .Ldebug_macro8
C:\Users\SOLDER~1\AppData\Local\Temp\ccqxjBbT.s:2918   .debug_macro:0000000000000000 .Ldebug_macro9
C:\Users\SOLDER~1\AppData\Local\Temp\ccqxjBbT.s:2974   .debug_macro:0000000000000000 .Ldebug_macro10
C:\Users\SOLDER~1\AppData\Local\Temp\ccqxjBbT.s:19331  .debug_str:0000000000001890 .LASF499
C:\Users\SOLDER~1\AppData\Local\Temp\ccqxjBbT.s:3186   .debug_macro:0000000000000000 .Ldebug_macro11
C:\Users\SOLDER~1\AppData\Local\Temp\ccqxjBbT.s:3224   .debug_macro:0000000000000000 .Ldebug_macro12
C:\Users\SOLDER~1\AppData\Local\Temp\ccqxjBbT.s:26097  .debug_str:000000000001cf11 .LASF4598
C:\Users\SOLDER~1\AppData\Local\Temp\ccqxjBbT.s:28127  .debug_str:000000000002525f .LASF4599
C:\Users\SOLDER~1\AppData\Local\Temp\ccqxjBbT.s:15490  .debug_macro:0000000000000000 .Ldebug_macro13
C:\Users\SOLDER~1\AppData\Local\Temp\ccqxjBbT.s:15771  .debug_macro:0000000000000000 .Ldebug_macro14
C:\Users\SOLDER~1\AppData\Local\Temp\ccqxjBbT.s:15923  .debug_macro:0000000000000000 .Ldebug_macro15
C:\Users\SOLDER~1\AppData\Local\Temp\ccqxjBbT.s:24503  .debug_str:000000000001686e .LASF4857
C:\Users\SOLDER~1\AppData\Local\Temp\ccqxjBbT.s:16276  .debug_macro:0000000000000000 .Ldebug_macro16
C:\Users\SOLDER~1\AppData\Local\Temp\ccqxjBbT.s:16341  .debug_macro:0000000000000000 .Ldebug_macro17
C:\Users\SOLDER~1\AppData\Local\Temp\ccqxjBbT.s:16610  .debug_macro:0000000000000000 .Ldebug_macro18
C:\Users\SOLDER~1\AppData\Local\Temp\ccqxjBbT.s:16681  .debug_macro:0000000000000000 .Ldebug_macro19
C:\Users\SOLDER~1\AppData\Local\Temp\ccqxjBbT.s:16845  .debug_macro:0000000000000000 .Ldebug_macro20
C:\Users\SOLDER~1\AppData\Local\Temp\ccqxjBbT.s:17117  .debug_macro:0000000000000000 .Ldebug_macro21
C:\Users\SOLDER~1\AppData\Local\Temp\ccqxjBbT.s:17368  .debug_macro:0000000000000000 .Ldebug_macro22
C:\Users\SOLDER~1\AppData\Local\Temp\ccqxjBbT.s:17409  .debug_macro:0000000000000000 .Ldebug_macro23
C:\Users\SOLDER~1\AppData\Local\Temp\ccqxjBbT.s:17462  .debug_macro:0000000000000000 .Ldebug_macro24
C:\Users\SOLDER~1\AppData\Local\Temp\ccqxjBbT.s:17863  .debug_macro:0000000000000000 .Ldebug_macro25
C:\Users\SOLDER~1\AppData\Local\Temp\ccqxjBbT.s:17895  .debug_macro:0000000000000000 .Ldebug_macro26
C:\Users\SOLDER~1\AppData\Local\Temp\ccqxjBbT.s:18125  .debug_macro:0000000000000000 .Ldebug_macro27
C:\Users\SOLDER~1\AppData\Local\Temp\ccqxjBbT.s:18721  .debug_macro:0000000000000000 .Ldebug_macro28
C:\Users\SOLDER~1\AppData\Local\Temp\ccqxjBbT.s:18891  .debug_macro:0000000000000000 .Ldebug_macro29
C:\Users\SOLDER~1\AppData\Local\Temp\ccqxjBbT.s:18911  .debug_macro:0000000000000000 .Ldebug_macro30
GAS LISTING C:\Users\SOLDER~1\AppData\Local\Temp\ccqxjBbT.s 			page 18


C:\Users\SOLDER~1\AppData\Local\Temp\ccqxjBbT.s:23329  .debug_str:0000000000011c7b .LASF5719
C:\Users\SOLDER~1\AppData\Local\Temp\ccqxjBbT.s:18934  .debug_macro:0000000000000000 .Ldebug_macro31
C:\Users\SOLDER~1\AppData\Local\Temp\ccqxjBbT.s:20379  .debug_str:0000000000005bd5 .LASF2
C:\Users\SOLDER~1\AppData\Local\Temp\ccqxjBbT.s:29289  .debug_str:0000000000029edf .LASF3
C:\Users\SOLDER~1\AppData\Local\Temp\ccqxjBbT.s:29661  .debug_str:000000000002b71f .LASF4
C:\Users\SOLDER~1\AppData\Local\Temp\ccqxjBbT.s:23125  .debug_str:0000000000010f5c .LASF5
C:\Users\SOLDER~1\AppData\Local\Temp\ccqxjBbT.s:24481  .debug_str:0000000000016724 .LASF6
C:\Users\SOLDER~1\AppData\Local\Temp\ccqxjBbT.s:30081  .debug_str:000000000002d2a9 .LASF7
C:\Users\SOLDER~1\AppData\Local\Temp\ccqxjBbT.s:23187  .debug_str:000000000001137f .LASF8
C:\Users\SOLDER~1\AppData\Local\Temp\ccqxjBbT.s:23935  .debug_str:00000000000144a8 .LASF9
C:\Users\SOLDER~1\AppData\Local\Temp\ccqxjBbT.s:21113  .debug_str:0000000000008bc2 .LASF10
C:\Users\SOLDER~1\AppData\Local\Temp\ccqxjBbT.s:28993  .debug_str:0000000000028bac .LASF11
C:\Users\SOLDER~1\AppData\Local\Temp\ccqxjBbT.s:25537  .debug_str:000000000001aa9f .LASF12
C:\Users\SOLDER~1\AppData\Local\Temp\ccqxjBbT.s:25395  .debug_str:000000000001a177 .LASF13
C:\Users\SOLDER~1\AppData\Local\Temp\ccqxjBbT.s:27933  .debug_str:00000000000245e3 .LASF14
C:\Users\SOLDER~1\AppData\Local\Temp\ccqxjBbT.s:25415  .debug_str:000000000001a2b3 .LASF15
C:\Users\SOLDER~1\AppData\Local\Temp\ccqxjBbT.s:21607  .debug_str:000000000000acc4 .LASF16
C:\Users\SOLDER~1\AppData\Local\Temp\ccqxjBbT.s:26829  .debug_str:000000000001fe88 .LASF17
C:\Users\SOLDER~1\AppData\Local\Temp\ccqxjBbT.s:27545  .debug_str:0000000000022cb6 .LASF18
C:\Users\SOLDER~1\AppData\Local\Temp\ccqxjBbT.s:21645  .debug_str:000000000000af57 .LASF19
C:\Users\SOLDER~1\AppData\Local\Temp\ccqxjBbT.s:20537  .debug_str:0000000000006636 .LASF20
C:\Users\SOLDER~1\AppData\Local\Temp\ccqxjBbT.s:22653  .debug_str:000000000000f0f4 .LASF21
C:\Users\SOLDER~1\AppData\Local\Temp\ccqxjBbT.s:28405  .debug_str:000000000002652c .LASF22
C:\Users\SOLDER~1\AppData\Local\Temp\ccqxjBbT.s:25225  .debug_str:0000000000019777 .LASF23
C:\Users\SOLDER~1\AppData\Local\Temp\ccqxjBbT.s:25223  .debug_str:000000000001975d .LASF24
C:\Users\SOLDER~1\AppData\Local\Temp\ccqxjBbT.s:27855  .debug_str:00000000000240bc .LASF25
C:\Users\SOLDER~1\AppData\Local\Temp\ccqxjBbT.s:28523  .debug_str:0000000000026d0e .LASF26
C:\Users\SOLDER~1\AppData\Local\Temp\ccqxjBbT.s:19895  .debug_str:0000000000003d45 .LASF27
C:\Users\SOLDER~1\AppData\Local\Temp\ccqxjBbT.s:24623  .debug_str:0000000000016fef .LASF28
C:\Users\SOLDER~1\AppData\Local\Temp\ccqxjBbT.s:27749  .debug_str:00000000000239c6 .LASF29
C:\Users\SOLDER~1\AppData\Local\Temp\ccqxjBbT.s:27555  .debug_str:0000000000022d5e .LASF30
C:\Users\SOLDER~1\AppData\Local\Temp\ccqxjBbT.s:20319  .debug_str:00000000000057b3 .LASF31
C:\Users\SOLDER~1\AppData\Local\Temp\ccqxjBbT.s:26605  .debug_str:000000000001effb .LASF32
C:\Users\SOLDER~1\AppData\Local\Temp\ccqxjBbT.s:19289  .debug_str:000000000000160a .LASF33
C:\Users\SOLDER~1\AppData\Local\Temp\ccqxjBbT.s:23359  .debug_str:0000000000011e75 .LASF34
C:\Users\SOLDER~1\AppData\Local\Temp\ccqxjBbT.s:24297  .debug_str:0000000000015bd4 .LASF35
C:\Users\SOLDER~1\AppData\Local\Temp\ccqxjBbT.s:22401  .debug_str:000000000000e056 .LASF36
C:\Users\SOLDER~1\AppData\Local\Temp\ccqxjBbT.s:21479  .debug_str:000000000000a428 .LASF37
C:\Users\SOLDER~1\AppData\Local\Temp\ccqxjBbT.s:21329  .debug_str:0000000000009a4a .LASF38
C:\Users\SOLDER~1\AppData\Local\Temp\ccqxjBbT.s:22677  .debug_str:000000000000f267 .LASF39
C:\Users\SOLDER~1\AppData\Local\Temp\ccqxjBbT.s:25643  .debug_str:000000000001b17e .LASF40
C:\Users\SOLDER~1\AppData\Local\Temp\ccqxjBbT.s:20857  .debug_str:0000000000007afe .LASF41
C:\Users\SOLDER~1\AppData\Local\Temp\ccqxjBbT.s:23061  .debug_str:0000000000010b51 .LASF42
C:\Users\SOLDER~1\AppData\Local\Temp\ccqxjBbT.s:28825  .debug_str:00000000000280fc .LASF43
C:\Users\SOLDER~1\AppData\Local\Temp\ccqxjBbT.s:19655  .debug_str:0000000000002dcf .LASF44
C:\Users\SOLDER~1\AppData\Local\Temp\ccqxjBbT.s:22745  .debug_str:000000000000f67e .LASF45
C:\Users\SOLDER~1\AppData\Local\Temp\ccqxjBbT.s:23663  .debug_str:00000000000131b1 .LASF46
C:\Users\SOLDER~1\AppData\Local\Temp\ccqxjBbT.s:28133  .debug_str:00000000000252c9 .LASF47
C:\Users\SOLDER~1\AppData\Local\Temp\ccqxjBbT.s:25633  .debug_str:000000000001b0d3 .LASF48
C:\Users\SOLDER~1\AppData\Local\Temp\ccqxjBbT.s:23517  .debug_str:0000000000012881 .LASF49
C:\Users\SOLDER~1\AppData\Local\Temp\ccqxjBbT.s:20153  .debug_str:0000000000004d75 .LASF50
C:\Users\SOLDER~1\AppData\Local\Temp\ccqxjBbT.s:23665  .debug_str:00000000000131ca .LASF51
C:\Users\SOLDER~1\AppData\Local\Temp\ccqxjBbT.s:28315  .debug_str:0000000000025f12 .LASF52
C:\Users\SOLDER~1\AppData\Local\Temp\ccqxjBbT.s:22399  .debug_str:000000000000e036 .LASF53
C:\Users\SOLDER~1\AppData\Local\Temp\ccqxjBbT.s:19497  .debug_str:00000000000023bd .LASF54
C:\Users\SOLDER~1\AppData\Local\Temp\ccqxjBbT.s:18981  .debug_str:00000000000001b4 .LASF55
C:\Users\SOLDER~1\AppData\Local\Temp\ccqxjBbT.s:29701  .debug_str:000000000002b9aa .LASF56
GAS LISTING C:\Users\SOLDER~1\AppData\Local\Temp\ccqxjBbT.s 			page 19


C:\Users\SOLDER~1\AppData\Local\Temp\ccqxjBbT.s:27725  .debug_str:0000000000023869 .LASF57
C:\Users\SOLDER~1\AppData\Local\Temp\ccqxjBbT.s:19067  .debug_str:00000000000007fa .LASF58
C:\Users\SOLDER~1\AppData\Local\Temp\ccqxjBbT.s:23023  .debug_str:00000000000108bd .LASF59
C:\Users\SOLDER~1\AppData\Local\Temp\ccqxjBbT.s:20941  .debug_str:00000000000080aa .LASF60
C:\Users\SOLDER~1\AppData\Local\Temp\ccqxjBbT.s:27381  .debug_str:00000000000221ab .LASF61
C:\Users\SOLDER~1\AppData\Local\Temp\ccqxjBbT.s:19241  .debug_str:00000000000012e0 .LASF62
C:\Users\SOLDER~1\AppData\Local\Temp\ccqxjBbT.s:22285  .debug_str:000000000000d915 .LASF63
C:\Users\SOLDER~1\AppData\Local\Temp\ccqxjBbT.s:25191  .debug_str:00000000000194f6 .LASF64
C:\Users\SOLDER~1\AppData\Local\Temp\ccqxjBbT.s:26003  .debug_str:000000000001c8f6 .LASF65
C:\Users\SOLDER~1\AppData\Local\Temp\ccqxjBbT.s:19735  .debug_str:00000000000032ec .LASF66
C:\Users\SOLDER~1\AppData\Local\Temp\ccqxjBbT.s:22389  .debug_str:000000000000df93 .LASF67
C:\Users\SOLDER~1\AppData\Local\Temp\ccqxjBbT.s:22117  .debug_str:000000000000ce07 .LASF68
C:\Users\SOLDER~1\AppData\Local\Temp\ccqxjBbT.s:25623  .debug_str:000000000001b059 .LASF69
C:\Users\SOLDER~1\AppData\Local\Temp\ccqxjBbT.s:24293  .debug_str:0000000000015b8d .LASF70
C:\Users\SOLDER~1\AppData\Local\Temp\ccqxjBbT.s:29461  .debug_str:000000000002a9f8 .LASF71
C:\Users\SOLDER~1\AppData\Local\Temp\ccqxjBbT.s:29927  .debug_str:000000000002c87a .LASF72
C:\Users\SOLDER~1\AppData\Local\Temp\ccqxjBbT.s:23475  .debug_str:00000000000125b1 .LASF73
C:\Users\SOLDER~1\AppData\Local\Temp\ccqxjBbT.s:22563  .debug_str:000000000000eb45 .LASF74
C:\Users\SOLDER~1\AppData\Local\Temp\ccqxjBbT.s:20171  .debug_str:0000000000004e8c .LASF75
C:\Users\SOLDER~1\AppData\Local\Temp\ccqxjBbT.s:23507  .debug_str:00000000000127e7 .LASF76
C:\Users\SOLDER~1\AppData\Local\Temp\ccqxjBbT.s:22031  .debug_str:000000000000c80f .LASF77
C:\Users\SOLDER~1\AppData\Local\Temp\ccqxjBbT.s:23757  .debug_str:000000000001381c .LASF78
C:\Users\SOLDER~1\AppData\Local\Temp\ccqxjBbT.s:24299  .debug_str:0000000000015c02 .LASF79
C:\Users\SOLDER~1\AppData\Local\Temp\ccqxjBbT.s:23695  .debug_str:00000000000133da .LASF80
C:\Users\SOLDER~1\AppData\Local\Temp\ccqxjBbT.s:28221  .debug_str:00000000000258a3 .LASF81
C:\Users\SOLDER~1\AppData\Local\Temp\ccqxjBbT.s:26133  .debug_str:000000000001d154 .LASF82
C:\Users\SOLDER~1\AppData\Local\Temp\ccqxjBbT.s:26569  .debug_str:000000000001edcb .LASF83
C:\Users\SOLDER~1\AppData\Local\Temp\ccqxjBbT.s:29447  .debug_str:000000000002a91b .LASF84
C:\Users\SOLDER~1\AppData\Local\Temp\ccqxjBbT.s:21425  .debug_str:000000000000a07a .LASF85
C:\Users\SOLDER~1\AppData\Local\Temp\ccqxjBbT.s:25309  .debug_str:0000000000019c27 .LASF86
C:\Users\SOLDER~1\AppData\Local\Temp\ccqxjBbT.s:23509  .debug_str:000000000001280e .LASF87
C:\Users\SOLDER~1\AppData\Local\Temp\ccqxjBbT.s:25649  .debug_str:000000000001b1de .LASF88
C:\Users\SOLDER~1\AppData\Local\Temp\ccqxjBbT.s:20677  .debug_str:0000000000006fc5 .LASF89
C:\Users\SOLDER~1\AppData\Local\Temp\ccqxjBbT.s:29921  .debug_str:000000000002c818 .LASF90
C:\Users\SOLDER~1\AppData\Local\Temp\ccqxjBbT.s:29617  .debug_str:000000000002b42b .LASF91
C:\Users\SOLDER~1\AppData\Local\Temp\ccqxjBbT.s:26995  .debug_str:000000000002094e .LASF92
C:\Users\SOLDER~1\AppData\Local\Temp\ccqxjBbT.s:25721  .debug_str:000000000001b67f .LASF93
C:\Users\SOLDER~1\AppData\Local\Temp\ccqxjBbT.s:27019  .debug_str:0000000000020ae9 .LASF94
C:\Users\SOLDER~1\AppData\Local\Temp\ccqxjBbT.s:29837  .debug_str:000000000002c2e3 .LASF95
C:\Users\SOLDER~1\AppData\Local\Temp\ccqxjBbT.s:28627  .debug_str:00000000000273ee .LASF96
C:\Users\SOLDER~1\AppData\Local\Temp\ccqxjBbT.s:21513  .debug_str:000000000000a66f .LASF97
C:\Users\SOLDER~1\AppData\Local\Temp\ccqxjBbT.s:27849  .debug_str:0000000000024041 .LASF98
C:\Users\SOLDER~1\AppData\Local\Temp\ccqxjBbT.s:23997  .debug_str:00000000000148d2 .LASF99
C:\Users\SOLDER~1\AppData\Local\Temp\ccqxjBbT.s:28013  .debug_str:0000000000024b3c .LASF100
C:\Users\SOLDER~1\AppData\Local\Temp\ccqxjBbT.s:30119  .debug_str:000000000002d512 .LASF101
C:\Users\SOLDER~1\AppData\Local\Temp\ccqxjBbT.s:23599  .debug_str:0000000000012d8d .LASF102
C:\Users\SOLDER~1\AppData\Local\Temp\ccqxjBbT.s:27567  .debug_str:0000000000022e0f .LASF103
C:\Users\SOLDER~1\AppData\Local\Temp\ccqxjBbT.s:26197  .debug_str:000000000001d5a3 .LASF104
C:\Users\SOLDER~1\AppData\Local\Temp\ccqxjBbT.s:23079  .debug_str:0000000000010c64 .LASF105
C:\Users\SOLDER~1\AppData\Local\Temp\ccqxjBbT.s:20771  .debug_str:00000000000075b5 .LASF106
C:\Users\SOLDER~1\AppData\Local\Temp\ccqxjBbT.s:23353  .debug_str:0000000000011e00 .LASF107
C:\Users\SOLDER~1\AppData\Local\Temp\ccqxjBbT.s:22311  .debug_str:000000000000daa1 .LASF108
C:\Users\SOLDER~1\AppData\Local\Temp\ccqxjBbT.s:23525  .debug_str:0000000000012906 .LASF109
C:\Users\SOLDER~1\AppData\Local\Temp\ccqxjBbT.s:20203  .debug_str:000000000000506a .LASF110
C:\Users\SOLDER~1\AppData\Local\Temp\ccqxjBbT.s:23347  .debug_str:0000000000011daa .LASF111
C:\Users\SOLDER~1\AppData\Local\Temp\ccqxjBbT.s:22307  .debug_str:000000000000da6c .LASF112
C:\Users\SOLDER~1\AppData\Local\Temp\ccqxjBbT.s:23815  .debug_str:0000000000013c50 .LASF113
GAS LISTING C:\Users\SOLDER~1\AppData\Local\Temp\ccqxjBbT.s 			page 20


C:\Users\SOLDER~1\AppData\Local\Temp\ccqxjBbT.s:22703  .debug_str:000000000000f404 .LASF114
C:\Users\SOLDER~1\AppData\Local\Temp\ccqxjBbT.s:25251  .debug_str:00000000000198c1 .LASF115
C:\Users\SOLDER~1\AppData\Local\Temp\ccqxjBbT.s:21775  .debug_str:000000000000b73f .LASF116
C:\Users\SOLDER~1\AppData\Local\Temp\ccqxjBbT.s:21507  .debug_str:000000000000a5e8 .LASF117
C:\Users\SOLDER~1\AppData\Local\Temp\ccqxjBbT.s:22873  .debug_str:000000000000ff40 .LASF118
C:\Users\SOLDER~1\AppData\Local\Temp\ccqxjBbT.s:29499  .debug_str:000000000002ac7f .LASF119
C:\Users\SOLDER~1\AppData\Local\Temp\ccqxjBbT.s:24813  .debug_str:0000000000017c64 .LASF120
C:\Users\SOLDER~1\AppData\Local\Temp\ccqxjBbT.s:21271  .debug_str:0000000000009676 .LASF121
C:\Users\SOLDER~1\AppData\Local\Temp\ccqxjBbT.s:25985  .debug_str:000000000001c7cf .LASF122
C:\Users\SOLDER~1\AppData\Local\Temp\ccqxjBbT.s:30251  .debug_str:000000000002dd97 .LASF123
C:\Users\SOLDER~1\AppData\Local\Temp\ccqxjBbT.s:22619  .debug_str:000000000000eebf .LASF124
C:\Users\SOLDER~1\AppData\Local\Temp\ccqxjBbT.s:28207  .debug_str:000000000002578d .LASF125
C:\Users\SOLDER~1\AppData\Local\Temp\ccqxjBbT.s:22083  .debug_str:000000000000cbaf .LASF126
C:\Users\SOLDER~1\AppData\Local\Temp\ccqxjBbT.s:22185  .debug_str:000000000000d287 .LASF127
C:\Users\SOLDER~1\AppData\Local\Temp\ccqxjBbT.s:19833  .debug_str:0000000000003947 .LASF128
C:\Users\SOLDER~1\AppData\Local\Temp\ccqxjBbT.s:20123  .debug_str:0000000000004ba1 .LASF129
C:\Users\SOLDER~1\AppData\Local\Temp\ccqxjBbT.s:29187  .debug_str:0000000000029831 .LASF130
C:\Users\SOLDER~1\AppData\Local\Temp\ccqxjBbT.s:23529  .debug_str:000000000001291e .LASF131
C:\Users\SOLDER~1\AppData\Local\Temp\ccqxjBbT.s:26393  .debug_str:000000000001e203 .LASF132
C:\Users\SOLDER~1\AppData\Local\Temp\ccqxjBbT.s:21339  .debug_str:0000000000009ae5 .LASF133
C:\Users\SOLDER~1\AppData\Local\Temp\ccqxjBbT.s:28731  .debug_str:0000000000027a75 .LASF134
C:\Users\SOLDER~1\AppData\Local\Temp\ccqxjBbT.s:29055  .debug_str:0000000000028f72 .LASF135
C:\Users\SOLDER~1\AppData\Local\Temp\ccqxjBbT.s:28855  .debug_str:00000000000282d9 .LASF136
C:\Users\SOLDER~1\AppData\Local\Temp\ccqxjBbT.s:22597  .debug_str:000000000000ed44 .LASF137
C:\Users\SOLDER~1\AppData\Local\Temp\ccqxjBbT.s:28121  .debug_str:00000000000251fd .LASF138
C:\Users\SOLDER~1\AppData\Local\Temp\ccqxjBbT.s:20109  .debug_str:0000000000004a94 .LASF139
C:\Users\SOLDER~1\AppData\Local\Temp\ccqxjBbT.s:20985  .debug_str:0000000000008384 .LASF140
C:\Users\SOLDER~1\AppData\Local\Temp\ccqxjBbT.s:29919  .debug_str:000000000002c804 .LASF141
C:\Users\SOLDER~1\AppData\Local\Temp\ccqxjBbT.s:25881  .debug_str:000000000001c0a2 .LASF142
C:\Users\SOLDER~1\AppData\Local\Temp\ccqxjBbT.s:29393  .debug_str:000000000002a5f0 .LASF143
C:\Users\SOLDER~1\AppData\Local\Temp\ccqxjBbT.s:28495  .debug_str:0000000000026b55 .LASF144
C:\Users\SOLDER~1\AppData\Local\Temp\ccqxjBbT.s:26079  .debug_str:000000000001ce07 .LASF145
C:\Users\SOLDER~1\AppData\Local\Temp\ccqxjBbT.s:21465  .debug_str:000000000000a328 .LASF146
C:\Users\SOLDER~1\AppData\Local\Temp\ccqxjBbT.s:23751  .debug_str:00000000000137c2 .LASF147
C:\Users\SOLDER~1\AppData\Local\Temp\ccqxjBbT.s:25241  .debug_str:000000000001983f .LASF148
C:\Users\SOLDER~1\AppData\Local\Temp\ccqxjBbT.s:24307  .debug_str:0000000000015c5a .LASF149
C:\Users\SOLDER~1\AppData\Local\Temp\ccqxjBbT.s:22143  .debug_str:000000000000cfa6 .LASF150
C:\Users\SOLDER~1\AppData\Local\Temp\ccqxjBbT.s:20169  .debug_str:0000000000004e75 .LASF151
C:\Users\SOLDER~1\AppData\Local\Temp\ccqxjBbT.s:22741  .debug_str:000000000000f640 .LASF152
C:\Users\SOLDER~1\AppData\Local\Temp\ccqxjBbT.s:25229  .debug_str:00000000000197a7 .LASF153
C:\Users\SOLDER~1\AppData\Local\Temp\ccqxjBbT.s:19057  .debug_str:0000000000000768 .LASF154
C:\Users\SOLDER~1\AppData\Local\Temp\ccqxjBbT.s:27557  .debug_str:0000000000022d78 .LASF155
C:\Users\SOLDER~1\AppData\Local\Temp\ccqxjBbT.s:23805  .debug_str:0000000000013b70 .LASF156
C:\Users\SOLDER~1\AppData\Local\Temp\ccqxjBbT.s:28499  .debug_str:0000000000026b84 .LASF157
C:\Users\SOLDER~1\AppData\Local\Temp\ccqxjBbT.s:26285  .debug_str:000000000001dae2 .LASF158
C:\Users\SOLDER~1\AppData\Local\Temp\ccqxjBbT.s:28435  .debug_str:0000000000026727 .LASF159
C:\Users\SOLDER~1\AppData\Local\Temp\ccqxjBbT.s:29111  .debug_str:000000000002932a .LASF160
C:\Users\SOLDER~1\AppData\Local\Temp\ccqxjBbT.s:26427  .debug_str:000000000001e417 .LASF161
C:\Users\SOLDER~1\AppData\Local\Temp\ccqxjBbT.s:22011  .debug_str:000000000000c6b5 .LASF162
C:\Users\SOLDER~1\AppData\Local\Temp\ccqxjBbT.s:21087  .debug_str:0000000000008a07 .LASF163
C:\Users\SOLDER~1\AppData\Local\Temp\ccqxjBbT.s:23945  .debug_str:0000000000014550 .LASF164
C:\Users\SOLDER~1\AppData\Local\Temp\ccqxjBbT.s:25925  .debug_str:000000000001c3dd .LASF165
C:\Users\SOLDER~1\AppData\Local\Temp\ccqxjBbT.s:27373  .debug_str:000000000002214e .LASF166
C:\Users\SOLDER~1\AppData\Local\Temp\ccqxjBbT.s:28983  .debug_str:0000000000028b26 .LASF167
C:\Users\SOLDER~1\AppData\Local\Temp\ccqxjBbT.s:28111  .debug_str:0000000000025143 .LASF168
C:\Users\SOLDER~1\AppData\Local\Temp\ccqxjBbT.s:29819  .debug_str:000000000002c1ab .LASF169
C:\Users\SOLDER~1\AppData\Local\Temp\ccqxjBbT.s:20847  .debug_str:0000000000007a4e .LASF170
GAS LISTING C:\Users\SOLDER~1\AppData\Local\Temp\ccqxjBbT.s 			page 21


C:\Users\SOLDER~1\AppData\Local\Temp\ccqxjBbT.s:29489  .debug_str:000000000002abdd .LASF171
C:\Users\SOLDER~1\AppData\Local\Temp\ccqxjBbT.s:21233  .debug_str:00000000000093db .LASF172
C:\Users\SOLDER~1\AppData\Local\Temp\ccqxjBbT.s:25783  .debug_str:000000000001ba18 .LASF173
C:\Users\SOLDER~1\AppData\Local\Temp\ccqxjBbT.s:25035  .debug_str:0000000000018a8d .LASF174
C:\Users\SOLDER~1\AppData\Local\Temp\ccqxjBbT.s:28913  .debug_str:000000000002867e .LASF175
C:\Users\SOLDER~1\AppData\Local\Temp\ccqxjBbT.s:25921  .debug_str:000000000001c36f .LASF176
C:\Users\SOLDER~1\AppData\Local\Temp\ccqxjBbT.s:26207  .debug_str:000000000001d637 .LASF177
C:\Users\SOLDER~1\AppData\Local\Temp\ccqxjBbT.s:21459  .debug_str:000000000000a2e3 .LASF178
C:\Users\SOLDER~1\AppData\Local\Temp\ccqxjBbT.s:23473  .debug_str:0000000000012599 .LASF179
C:\Users\SOLDER~1\AppData\Local\Temp\ccqxjBbT.s:25353  .debug_str:0000000000019eb8 .LASF180
C:\Users\SOLDER~1\AppData\Local\Temp\ccqxjBbT.s:20507  .debug_str:0000000000006451 .LASF181
C:\Users\SOLDER~1\AppData\Local\Temp\ccqxjBbT.s:21313  .debug_str:0000000000009957 .LASF182
C:\Users\SOLDER~1\AppData\Local\Temp\ccqxjBbT.s:19971  .debug_str:0000000000004220 .LASF183
C:\Users\SOLDER~1\AppData\Local\Temp\ccqxjBbT.s:25409  .debug_str:000000000001a254 .LASF184
C:\Users\SOLDER~1\AppData\Local\Temp\ccqxjBbT.s:23947  .debug_str:0000000000014567 .LASF185
C:\Users\SOLDER~1\AppData\Local\Temp\ccqxjBbT.s:19491  .debug_str:000000000000234d .LASF186
C:\Users\SOLDER~1\AppData\Local\Temp\ccqxjBbT.s:30117  .debug_str:000000000002d4ff .LASF187
C:\Users\SOLDER~1\AppData\Local\Temp\ccqxjBbT.s:19273  .debug_str:0000000000001515 .LASF188
C:\Users\SOLDER~1\AppData\Local\Temp\ccqxjBbT.s:23927  .debug_str:000000000001440e .LASF189
C:\Users\SOLDER~1\AppData\Local\Temp\ccqxjBbT.s:24377  .debug_str:000000000001609f .LASF190
C:\Users\SOLDER~1\AppData\Local\Temp\ccqxjBbT.s:29319  .debug_str:000000000002a0e7 .LASF191
C:\Users\SOLDER~1\AppData\Local\Temp\ccqxjBbT.s:22345  .debug_str:000000000000dca5 .LASF192
C:\Users\SOLDER~1\AppData\Local\Temp\ccqxjBbT.s:29791  .debug_str:000000000002bf94 .LASF193
C:\Users\SOLDER~1\AppData\Local\Temp\ccqxjBbT.s:23893  .debug_str:00000000000141a3 .LASF194
C:\Users\SOLDER~1\AppData\Local\Temp\ccqxjBbT.s:22639  .debug_str:000000000000f024 .LASF195
C:\Users\SOLDER~1\AppData\Local\Temp\ccqxjBbT.s:21657  .debug_str:000000000000b022 .LASF196
C:\Users\SOLDER~1\AppData\Local\Temp\ccqxjBbT.s:26485  .debug_str:000000000001e82b .LASF197
C:\Users\SOLDER~1\AppData\Local\Temp\ccqxjBbT.s:29407  .debug_str:000000000002a6e3 .LASF198
C:\Users\SOLDER~1\AppData\Local\Temp\ccqxjBbT.s:24175  .debug_str:0000000000015445 .LASF199
C:\Users\SOLDER~1\AppData\Local\Temp\ccqxjBbT.s:26683  .debug_str:000000000001f551 .LASF200
C:\Users\SOLDER~1\AppData\Local\Temp\ccqxjBbT.s:19283  .debug_str:00000000000015b7 .LASF201
C:\Users\SOLDER~1\AppData\Local\Temp\ccqxjBbT.s:30351  .debug_str:000000000002e3ba .LASF202
C:\Users\SOLDER~1\AppData\Local\Temp\ccqxjBbT.s:24151  .debug_str:0000000000015297 .LASF203
C:\Users\SOLDER~1\AppData\Local\Temp\ccqxjBbT.s:26873  .debug_str:0000000000020159 .LASF204
C:\Users\SOLDER~1\AppData\Local\Temp\ccqxjBbT.s:25429  .debug_str:000000000001a396 .LASF205
C:\Users\SOLDER~1\AppData\Local\Temp\ccqxjBbT.s:20555  .debug_str:0000000000006774 .LASF206
C:\Users\SOLDER~1\AppData\Local\Temp\ccqxjBbT.s:24163  .debug_str:000000000001535e .LASF207
C:\Users\SOLDER~1\AppData\Local\Temp\ccqxjBbT.s:26129  .debug_str:000000000001d0ed .LASF208
C:\Users\SOLDER~1\AppData\Local\Temp\ccqxjBbT.s:27107  .debug_str:0000000000021084 .LASF209
C:\Users\SOLDER~1\AppData\Local\Temp\ccqxjBbT.s:22965  .debug_str:000000000001052c .LASF210
C:\Users\SOLDER~1\AppData\Local\Temp\ccqxjBbT.s:29459  .debug_str:000000000002a9df .LASF211
C:\Users\SOLDER~1\AppData\Local\Temp\ccqxjBbT.s:28301  .debug_str:0000000000025dfc .LASF212
C:\Users\SOLDER~1\AppData\Local\Temp\ccqxjBbT.s:20793  .debug_str:0000000000007718 .LASF213
C:\Users\SOLDER~1\AppData\Local\Temp\ccqxjBbT.s:27813  .debug_str:0000000000023e09 .LASF214
C:\Users\SOLDER~1\AppData\Local\Temp\ccqxjBbT.s:24463  .debug_str:0000000000016639 .LASF215
C:\Users\SOLDER~1\AppData\Local\Temp\ccqxjBbT.s:20759  .debug_str:0000000000007511 .LASF216
C:\Users\SOLDER~1\AppData\Local\Temp\ccqxjBbT.s:21175  .debug_str:0000000000009003 .LASF217
C:\Users\SOLDER~1\AppData\Local\Temp\ccqxjBbT.s:28375  .debug_str:000000000002634e .LASF218
C:\Users\SOLDER~1\AppData\Local\Temp\ccqxjBbT.s:27303  .debug_str:0000000000021d22 .LASF219
C:\Users\SOLDER~1\AppData\Local\Temp\ccqxjBbT.s:19587  .debug_str:00000000000029cb .LASF220
C:\Users\SOLDER~1\AppData\Local\Temp\ccqxjBbT.s:21307  .debug_str:00000000000098b4 .LASF221
C:\Users\SOLDER~1\AppData\Local\Temp\ccqxjBbT.s:18997  .debug_str:00000000000002c8 .LASF222
C:\Users\SOLDER~1\AppData\Local\Temp\ccqxjBbT.s:26907  .debug_str:0000000000020378 .LASF223
C:\Users\SOLDER~1\AppData\Local\Temp\ccqxjBbT.s:21221  .debug_str:0000000000009314 .LASF224
C:\Users\SOLDER~1\AppData\Local\Temp\ccqxjBbT.s:20563  .debug_str:0000000000006827 .LASF225
C:\Users\SOLDER~1\AppData\Local\Temp\ccqxjBbT.s:26391  .debug_str:000000000001e1ec .LASF226
C:\Users\SOLDER~1\AppData\Local\Temp\ccqxjBbT.s:24559  .debug_str:0000000000016c05 .LASF227
GAS LISTING C:\Users\SOLDER~1\AppData\Local\Temp\ccqxjBbT.s 			page 22


C:\Users\SOLDER~1\AppData\Local\Temp\ccqxjBbT.s:22881  .debug_str:000000000000ffb0 .LASF228
C:\Users\SOLDER~1\AppData\Local\Temp\ccqxjBbT.s:26905  .debug_str:000000000002035f .LASF229
C:\Users\SOLDER~1\AppData\Local\Temp\ccqxjBbT.s:27941  .debug_str:0000000000024664 .LASF230
C:\Users\SOLDER~1\AppData\Local\Temp\ccqxjBbT.s:22905  .debug_str:0000000000010131 .LASF231
C:\Users\SOLDER~1\AppData\Local\Temp\ccqxjBbT.s:28727  .debug_str:0000000000027a39 .LASF232
C:\Users\SOLDER~1\AppData\Local\Temp\ccqxjBbT.s:28005  .debug_str:0000000000024ab7 .LASF233
C:\Users\SOLDER~1\AppData\Local\Temp\ccqxjBbT.s:29767  .debug_str:000000000002bddf .LASF234
C:\Users\SOLDER~1\AppData\Local\Temp\ccqxjBbT.s:20955  .debug_str:00000000000081a9 .LASF235
C:\Users\SOLDER~1\AppData\Local\Temp\ccqxjBbT.s:22959  .debug_str:00000000000104d4 .LASF236
C:\Users\SOLDER~1\AppData\Local\Temp\ccqxjBbT.s:22407  .debug_str:000000000000e0c6 .LASF237
C:\Users\SOLDER~1\AppData\Local\Temp\ccqxjBbT.s:28173  .debug_str:0000000000025531 .LASF238
C:\Users\SOLDER~1\AppData\Local\Temp\ccqxjBbT.s:23789  .debug_str:0000000000013a36 .LASF239
C:\Users\SOLDER~1\AppData\Local\Temp\ccqxjBbT.s:26921  .debug_str:0000000000020469 .LASF240
C:\Users\SOLDER~1\AppData\Local\Temp\ccqxjBbT.s:25211  .debug_str:0000000000019660 .LASF241
C:\Users\SOLDER~1\AppData\Local\Temp\ccqxjBbT.s:24759  .debug_str:00000000000178ea .LASF242
C:\Users\SOLDER~1\AppData\Local\Temp\ccqxjBbT.s:26221  .debug_str:000000000001d702 .LASF243
C:\Users\SOLDER~1\AppData\Local\Temp\ccqxjBbT.s:25587  .debug_str:000000000001ae34 .LASF244
C:\Users\SOLDER~1\AppData\Local\Temp\ccqxjBbT.s:30085  .debug_str:000000000002d2de .LASF245
C:\Users\SOLDER~1\AppData\Local\Temp\ccqxjBbT.s:26157  .debug_str:000000000001d311 .LASF246
C:\Users\SOLDER~1\AppData\Local\Temp\ccqxjBbT.s:29211  .debug_str:0000000000029985 .LASF247
C:\Users\SOLDER~1\AppData\Local\Temp\ccqxjBbT.s:22431  .debug_str:000000000000e2a9 .LASF248
C:\Users\SOLDER~1\AppData\Local\Temp\ccqxjBbT.s:28591  .debug_str:000000000002716e .LASF249
C:\Users\SOLDER~1\AppData\Local\Temp\ccqxjBbT.s:22283  .debug_str:000000000000d8fd .LASF250
C:\Users\SOLDER~1\AppData\Local\Temp\ccqxjBbT.s:25497  .debug_str:000000000001a827 .LASF251
C:\Users\SOLDER~1\AppData\Local\Temp\ccqxjBbT.s:22999  .debug_str:0000000000010753 .LASF252
C:\Users\SOLDER~1\AppData\Local\Temp\ccqxjBbT.s:19209  .debug_str:00000000000010da .LASF253
C:\Users\SOLDER~1\AppData\Local\Temp\ccqxjBbT.s:21731  .debug_str:000000000000b492 .LASF254
C:\Users\SOLDER~1\AppData\Local\Temp\ccqxjBbT.s:19143  .debug_str:0000000000000d69 .LASF255
C:\Users\SOLDER~1\AppData\Local\Temp\ccqxjBbT.s:21843  .debug_str:000000000000bb43 .LASF256
C:\Users\SOLDER~1\AppData\Local\Temp\ccqxjBbT.s:21311  .debug_str:0000000000009912 .LASF257
C:\Users\SOLDER~1\AppData\Local\Temp\ccqxjBbT.s:30291  .debug_str:000000000002e004 .LASF258
C:\Users\SOLDER~1\AppData\Local\Temp\ccqxjBbT.s:26103  .debug_str:000000000001cf5b .LASF259
C:\Users\SOLDER~1\AppData\Local\Temp\ccqxjBbT.s:24917  .debug_str:000000000001832c .LASF260
C:\Users\SOLDER~1\AppData\Local\Temp\ccqxjBbT.s:29967  .debug_str:000000000002cafc .LASF261
C:\Users\SOLDER~1\AppData\Local\Temp\ccqxjBbT.s:22459  .debug_str:000000000000e49c .LASF262
C:\Users\SOLDER~1\AppData\Local\Temp\ccqxjBbT.s:21785  .debug_str:000000000000b7dd .LASF263
C:\Users\SOLDER~1\AppData\Local\Temp\ccqxjBbT.s:29581  .debug_str:000000000002b1f9 .LASF264
C:\Users\SOLDER~1\AppData\Local\Temp\ccqxjBbT.s:22101  .debug_str:000000000000ccef .LASF265
C:\Users\SOLDER~1\AppData\Local\Temp\ccqxjBbT.s:23095  .debug_str:0000000000010d5a .LASF266
C:\Users\SOLDER~1\AppData\Local\Temp\ccqxjBbT.s:24949  .debug_str:0000000000018528 .LASF267
C:\Users\SOLDER~1\AppData\Local\Temp\ccqxjBbT.s:28837  .debug_str:00000000000281d4 .LASF268
C:\Users\SOLDER~1\AppData\Local\Temp\ccqxjBbT.s:21921  .debug_str:000000000000c03c .LASF269
C:\Users\SOLDER~1\AppData\Local\Temp\ccqxjBbT.s:20651  .debug_str:0000000000006dab .LASF270
C:\Users\SOLDER~1\AppData\Local\Temp\ccqxjBbT.s:20827  .debug_str:00000000000078f4 .LASF271
C:\Users\SOLDER~1\AppData\Local\Temp\ccqxjBbT.s:22155  .debug_str:000000000000d079 .LASF272
C:\Users\SOLDER~1\AppData\Local\Temp\ccqxjBbT.s:21991  .debug_str:000000000000c545 .LASF273
C:\Users\SOLDER~1\AppData\Local\Temp\ccqxjBbT.s:19295  .debug_str:000000000000167d .LASF274
C:\Users\SOLDER~1\AppData\Local\Temp\ccqxjBbT.s:20643  .debug_str:0000000000006d38 .LASF275
C:\Users\SOLDER~1\AppData\Local\Temp\ccqxjBbT.s:29517  .debug_str:000000000002ad9b .LASF276
C:\Users\SOLDER~1\AppData\Local\Temp\ccqxjBbT.s:27457  .debug_str:00000000000226b0 .LASF277
C:\Users\SOLDER~1\AppData\Local\Temp\ccqxjBbT.s:28401  .debug_str:0000000000026506 .LASF278
C:\Users\SOLDER~1\AppData\Local\Temp\ccqxjBbT.s:20603  .debug_str:0000000000006aa7 .LASF279
C:\Users\SOLDER~1\AppData\Local\Temp\ccqxjBbT.s:20381  .debug_str:0000000000005be0 .LASF280
C:\Users\SOLDER~1\AppData\Local\Temp\ccqxjBbT.s:20263  .debug_str:000000000000542e .LASF281
C:\Users\SOLDER~1\AppData\Local\Temp\ccqxjBbT.s:24979  .debug_str:000000000001872b .LASF282
C:\Users\SOLDER~1\AppData\Local\Temp\ccqxjBbT.s:28371  .debug_str:0000000000026309 .LASF283
C:\Users\SOLDER~1\AppData\Local\Temp\ccqxjBbT.s:28637  .debug_str:000000000002748f .LASF284
GAS LISTING C:\Users\SOLDER~1\AppData\Local\Temp\ccqxjBbT.s 			page 23


C:\Users\SOLDER~1\AppData\Local\Temp\ccqxjBbT.s:29495  .debug_str:000000000002ac3f .LASF285
C:\Users\SOLDER~1\AppData\Local\Temp\ccqxjBbT.s:26167  .debug_str:000000000001d3b5 .LASF286
C:\Users\SOLDER~1\AppData\Local\Temp\ccqxjBbT.s:30281  .debug_str:000000000002df63 .LASF287
C:\Users\SOLDER~1\AppData\Local\Temp\ccqxjBbT.s:20353  .debug_str:0000000000005a1b .LASF288
C:\Users\SOLDER~1\AppData\Local\Temp\ccqxjBbT.s:24179  .debug_str:000000000001547a .LASF289
C:\Users\SOLDER~1\AppData\Local\Temp\ccqxjBbT.s:23049  .debug_str:0000000000010a9c .LASF290
C:\Users\SOLDER~1\AppData\Local\Temp\ccqxjBbT.s:30529  .debug_str:000000000002ef3d .LASF291
C:\Users\SOLDER~1\AppData\Local\Temp\ccqxjBbT.s:29337  .debug_str:000000000002a242 .LASF292
C:\Users\SOLDER~1\AppData\Local\Temp\ccqxjBbT.s:20191  .debug_str:0000000000004fbe .LASF293
C:\Users\SOLDER~1\AppData\Local\Temp\ccqxjBbT.s:18999  .debug_str:0000000000000309 .LASF294
C:\Users\SOLDER~1\AppData\Local\Temp\ccqxjBbT.s:24229  .debug_str:00000000000157cf .LASF295
C:\Users\SOLDER~1\AppData\Local\Temp\ccqxjBbT.s:25053  .debug_str:0000000000018bdb .LASF296
C:\Users\SOLDER~1\AppData\Local\Temp\ccqxjBbT.s:22451  .debug_str:000000000000e416 .LASF297
C:\Users\SOLDER~1\AppData\Local\Temp\ccqxjBbT.s:22989  .debug_str:00000000000106b4 .LASF298
C:\Users\SOLDER~1\AppData\Local\Temp\ccqxjBbT.s:25749  .debug_str:000000000001b810 .LASF299
C:\Users\SOLDER~1\AppData\Local\Temp\ccqxjBbT.s:24301  .debug_str:0000000000015c1b .LASF300
C:\Users\SOLDER~1\AppData\Local\Temp\ccqxjBbT.s:23731  .debug_str:000000000001365c .LASF301
C:\Users\SOLDER~1\AppData\Local\Temp\ccqxjBbT.s:19527  .debug_str:00000000000025c3 .LASF302
C:\Users\SOLDER~1\AppData\Local\Temp\ccqxjBbT.s:22107  .debug_str:000000000000cd58 .LASF303
C:\Users\SOLDER~1\AppData\Local\Temp\ccqxjBbT.s:27537  .debug_str:0000000000022c33 .LASF304
C:\Users\SOLDER~1\AppData\Local\Temp\ccqxjBbT.s:23011  .debug_str:00000000000107f2 .LASF305
C:\Users\SOLDER~1\AppData\Local\Temp\ccqxjBbT.s:28391  .debug_str:0000000000026475 .LASF306
C:\Users\SOLDER~1\AppData\Local\Temp\ccqxjBbT.s:27977  .debug_str:00000000000248c7 .LASF307
C:\Users\SOLDER~1\AppData\Local\Temp\ccqxjBbT.s:26179  .debug_str:000000000001d480 .LASF308
C:\Users\SOLDER~1\AppData\Local\Temp\ccqxjBbT.s:19977  .debug_str:0000000000004284 .LASF309
C:\Users\SOLDER~1\AppData\Local\Temp\ccqxjBbT.s:26545  .debug_str:000000000001ec22 .LASF310
C:\Users\SOLDER~1\AppData\Local\Temp\ccqxjBbT.s:22229  .debug_str:000000000000d57e .LASF311
C:\Users\SOLDER~1\AppData\Local\Temp\ccqxjBbT.s:23555  .debug_str:0000000000012a73 .LASF312
C:\Users\SOLDER~1\AppData\Local\Temp\ccqxjBbT.s:21381  .debug_str:0000000000009da2 .LASF313
C:\Users\SOLDER~1\AppData\Local\Temp\ccqxjBbT.s:23991  .debug_str:000000000001487a .LASF314
C:\Users\SOLDER~1\AppData\Local\Temp\ccqxjBbT.s:20823  .debug_str:00000000000078b5 .LASF315
C:\Users\SOLDER~1\AppData\Local\Temp\ccqxjBbT.s:26251  .debug_str:000000000001d8c9 .LASF316
C:\Users\SOLDER~1\AppData\Local\Temp\ccqxjBbT.s:28723  .debug_str:0000000000027a0a .LASF317
C:\Users\SOLDER~1\AppData\Local\Temp\ccqxjBbT.s:19149  .debug_str:0000000000000deb .LASF320
C:\Users\SOLDER~1\AppData\Local\Temp\ccqxjBbT.s:26357  .debug_str:000000000001dfd7 .LASF321
C:\Users\SOLDER~1\AppData\Local\Temp\ccqxjBbT.s:30393  .debug_str:000000000002e676 .LASF322
C:\Users\SOLDER~1\AppData\Local\Temp\ccqxjBbT.s:23233  .debug_str:00000000000116a2 .LASF323
C:\Users\SOLDER~1\AppData\Local\Temp\ccqxjBbT.s:26091  .debug_str:000000000001ceba .LASF324
C:\Users\SOLDER~1\AppData\Local\Temp\ccqxjBbT.s:27983  .debug_str:0000000000024934 .LASF325
C:\Users\SOLDER~1\AppData\Local\Temp\ccqxjBbT.s:22843  .debug_str:000000000000fd5f .LASF326
C:\Users\SOLDER~1\AppData\Local\Temp\ccqxjBbT.s:24149  .debug_str:0000000000015272 .LASF327
C:\Users\SOLDER~1\AppData\Local\Temp\ccqxjBbT.s:26587  .debug_str:000000000001eecf .LASF328
C:\Users\SOLDER~1\AppData\Local\Temp\ccqxjBbT.s:25403  .debug_str:000000000001a1f4 .LASF329
C:\Users\SOLDER~1\AppData\Local\Temp\ccqxjBbT.s:22121  .debug_str:000000000000ce43 .LASF330
C:\Users\SOLDER~1\AppData\Local\Temp\ccqxjBbT.s:20349  .debug_str:00000000000059e2 .LASF331
C:\Users\SOLDER~1\AppData\Local\Temp\ccqxjBbT.s:19081  .debug_str:00000000000008eb .LASF332
C:\Users\SOLDER~1\AppData\Local\Temp\ccqxjBbT.s:29341  .debug_str:000000000002a287 .LASF333
C:\Users\SOLDER~1\AppData\Local\Temp\ccqxjBbT.s:22199  .debug_str:000000000000d370 .LASF334
C:\Users\SOLDER~1\AppData\Local\Temp\ccqxjBbT.s:30207  .debug_str:000000000002da9d .LASF335
C:\Users\SOLDER~1\AppData\Local\Temp\ccqxjBbT.s:20475  .debug_str:0000000000006232 .LASF336
C:\Users\SOLDER~1\AppData\Local\Temp\ccqxjBbT.s:20025  .debug_str:000000000000455d .LASF337
C:\Users\SOLDER~1\AppData\Local\Temp\ccqxjBbT.s:19011  .debug_str:00000000000003ca .LASF338
C:\Users\SOLDER~1\AppData\Local\Temp\ccqxjBbT.s:24399  .debug_str:000000000001620d .LASF339
C:\Users\SOLDER~1\AppData\Local\Temp\ccqxjBbT.s:27009  .debug_str:0000000000020a44 .LASF340
C:\Users\SOLDER~1\AppData\Local\Temp\ccqxjBbT.s:25285  .debug_str:0000000000019a98 .LASF341
C:\Users\SOLDER~1\AppData\Local\Temp\ccqxjBbT.s:25149  .debug_str:0000000000019230 .LASF345
C:\Users\SOLDER~1\AppData\Local\Temp\ccqxjBbT.s:25685  .debug_str:000000000001b42e .LASF346
GAS LISTING C:\Users\SOLDER~1\AppData\Local\Temp\ccqxjBbT.s 			page 24


C:\Users\SOLDER~1\AppData\Local\Temp\ccqxjBbT.s:21683  .debug_str:000000000000b1a8 .LASF347
C:\Users\SOLDER~1\AppData\Local\Temp\ccqxjBbT.s:24923  .debug_str:0000000000018396 .LASF348
C:\Users\SOLDER~1\AppData\Local\Temp\ccqxjBbT.s:25135  .debug_str:0000000000019156 .LASF349
C:\Users\SOLDER~1\AppData\Local\Temp\ccqxjBbT.s:19571  .debug_str:0000000000002880 .LASF350
C:\Users\SOLDER~1\AppData\Local\Temp\ccqxjBbT.s:21725  .debug_str:000000000000b420 .LASF351
C:\Users\SOLDER~1\AppData\Local\Temp\ccqxjBbT.s:19891  .debug_str:0000000000003d02 .LASF352
C:\Users\SOLDER~1\AppData\Local\Temp\ccqxjBbT.s:29865  .debug_str:000000000002c4a4 .LASF353
C:\Users\SOLDER~1\AppData\Local\Temp\ccqxjBbT.s:24485  .debug_str:000000000001676e .LASF354
C:\Users\SOLDER~1\AppData\Local\Temp\ccqxjBbT.s:26941  .debug_str:00000000000205c9 .LASF355
C:\Users\SOLDER~1\AppData\Local\Temp\ccqxjBbT.s:21211  .debug_str:000000000000928f .LASF356
C:\Users\SOLDER~1\AppData\Local\Temp\ccqxjBbT.s:24989  .debug_str:00000000000187b4 .LASF357
C:\Users\SOLDER~1\AppData\Local\Temp\ccqxjBbT.s:30197  .debug_str:000000000002da06 .LASF358
C:\Users\SOLDER~1\AppData\Local\Temp\ccqxjBbT.s:21659  .debug_str:000000000000b03b .LASF359
C:\Users\SOLDER~1\AppData\Local\Temp\ccqxjBbT.s:22757  .debug_str:000000000000f754 .LASF360
C:\Users\SOLDER~1\AppData\Local\Temp\ccqxjBbT.s:26193  .debug_str:000000000001d56c .LASF361
C:\Users\SOLDER~1\AppData\Local\Temp\ccqxjBbT.s:24397  .debug_str:00000000000161fd .LASF362
C:\Users\SOLDER~1\AppData\Local\Temp\ccqxjBbT.s:24535  .debug_str:0000000000016aa4 .LASF363
C:\Users\SOLDER~1\AppData\Local\Temp\ccqxjBbT.s:27581  .debug_str:0000000000022ee7 .LASF364
C:\Users\SOLDER~1\AppData\Local\Temp\ccqxjBbT.s:23611  .debug_str:0000000000012e67 .LASF365
C:\Users\SOLDER~1\AppData\Local\Temp\ccqxjBbT.s:24599  .debug_str:0000000000016e4a .LASF366
C:\Users\SOLDER~1\AppData\Local\Temp\ccqxjBbT.s:27693  .debug_str:0000000000023664 .LASF367
C:\Users\SOLDER~1\AppData\Local\Temp\ccqxjBbT.s:20715  .debug_str:0000000000007228 .LASF368
C:\Users\SOLDER~1\AppData\Local\Temp\ccqxjBbT.s:29469  .debug_str:000000000002aa8c .LASF369
C:\Users\SOLDER~1\AppData\Local\Temp\ccqxjBbT.s:20233  .debug_str:0000000000005257 .LASF370
C:\Users\SOLDER~1\AppData\Local\Temp\ccqxjBbT.s:25073  .debug_str:0000000000018d3b .LASF371
C:\Users\SOLDER~1\AppData\Local\Temp\ccqxjBbT.s:20811  .debug_str:0000000000007803 .LASF372
C:\Users\SOLDER~1\AppData\Local\Temp\ccqxjBbT.s:21743  .debug_str:000000000000b582 .LASF373
C:\Users\SOLDER~1\AppData\Local\Temp\ccqxjBbT.s:18969  .debug_str:000000000000011b .LASF374
C:\Users\SOLDER~1\AppData\Local\Temp\ccqxjBbT.s:26891  .debug_str:000000000002027b .LASF375
C:\Users\SOLDER~1\AppData\Local\Temp\ccqxjBbT.s:22441  .debug_str:000000000000e369 .LASF376
C:\Users\SOLDER~1\AppData\Local\Temp\ccqxjBbT.s:27887  .debug_str:00000000000242c2 .LASF377
C:\Users\SOLDER~1\AppData\Local\Temp\ccqxjBbT.s:26825  .debug_str:000000000001fe4a .LASF378
C:\Users\SOLDER~1\AppData\Local\Temp\ccqxjBbT.s:23211  .debug_str:00000000000114f0 .LASF379
C:\Users\SOLDER~1\AppData\Local\Temp\ccqxjBbT.s:30343  .debug_str:000000000002e33d .LASF380
C:\Users\SOLDER~1\AppData\Local\Temp\ccqxjBbT.s:30279  .debug_str:000000000002df5d .LASF381
C:\Users\SOLDER~1\AppData\Local\Temp\ccqxjBbT.s:20993  .debug_str:0000000000008405 .LASF382
C:\Users\SOLDER~1\AppData\Local\Temp\ccqxjBbT.s:29371  .debug_str:000000000002a473 .LASF383
C:\Users\SOLDER~1\AppData\Local\Temp\ccqxjBbT.s:24383  .debug_str:0000000000016127 .LASF384
C:\Users\SOLDER~1\AppData\Local\Temp\ccqxjBbT.s:28153  .debug_str:00000000000253f5 .LASF385
C:\Users\SOLDER~1\AppData\Local\Temp\ccqxjBbT.s:29171  .debug_str:0000000000029741 .LASF386
C:\Users\SOLDER~1\AppData\Local\Temp\ccqxjBbT.s:27617  .debug_str:0000000000023154 .LASF387
C:\Users\SOLDER~1\AppData\Local\Temp\ccqxjBbT.s:24575  .debug_str:0000000000016ced .LASF388
C:\Users\SOLDER~1\AppData\Local\Temp\ccqxjBbT.s:29197  .debug_str:00000000000298bf .LASF389
C:\Users\SOLDER~1\AppData\Local\Temp\ccqxjBbT.s:25913  .debug_str:000000000001c2fc .LASF390
C:\Users\SOLDER~1\AppData\Local\Temp\ccqxjBbT.s:23315  .debug_str:0000000000011bc1 .LASF391
C:\Users\SOLDER~1\AppData\Local\Temp\ccqxjBbT.s:27739  .debug_str:000000000002393f .LASF392
C:\Users\SOLDER~1\AppData\Local\Temp\ccqxjBbT.s:26739  .debug_str:000000000001f8f1 .LASF393
C:\Users\SOLDER~1\AppData\Local\Temp\ccqxjBbT.s:19325  .debug_str:0000000000001859 .LASF394
C:\Users\SOLDER~1\AppData\Local\Temp\ccqxjBbT.s:19993  .debug_str:000000000000436c .LASF395
C:\Users\SOLDER~1\AppData\Local\Temp\ccqxjBbT.s:20407  .debug_str:0000000000005d87 .LASF396
C:\Users\SOLDER~1\AppData\Local\Temp\ccqxjBbT.s:21587  .debug_str:000000000000ab96 .LASF397
C:\Users\SOLDER~1\AppData\Local\Temp\ccqxjBbT.s:21061  .debug_str:0000000000008858 .LASF398
C:\Users\SOLDER~1\AppData\Local\Temp\ccqxjBbT.s:26435  .debug_str:000000000001e495 .LASF399
C:\Users\SOLDER~1\AppData\Local\Temp\ccqxjBbT.s:27077  .debug_str:0000000000020e8e .LASF400
C:\Users\SOLDER~1\AppData\Local\Temp\ccqxjBbT.s:27211  .debug_str:000000000002174c .LASF401
C:\Users\SOLDER~1\AppData\Local\Temp\ccqxjBbT.s:21217  .debug_str:00000000000092e5 .LASF402
C:\Users\SOLDER~1\AppData\Local\Temp\ccqxjBbT.s:20801  .debug_str:0000000000007782 .LASF403
GAS LISTING C:\Users\SOLDER~1\AppData\Local\Temp\ccqxjBbT.s 			page 25


C:\Users\SOLDER~1\AppData\Local\Temp\ccqxjBbT.s:26247  .debug_str:000000000001d8a5 .LASF404
C:\Users\SOLDER~1\AppData\Local\Temp\ccqxjBbT.s:28881  .debug_str:0000000000028494 .LASF405
C:\Users\SOLDER~1\AppData\Local\Temp\ccqxjBbT.s:23527  .debug_str:0000000000012914 .LASF406
C:\Users\SOLDER~1\AppData\Local\Temp\ccqxjBbT.s:24285  .debug_str:0000000000015b0d .LASF407
C:\Users\SOLDER~1\AppData\Local\Temp\ccqxjBbT.s:22085  .debug_str:000000000000cbda .LASF408
C:\Users\SOLDER~1\AppData\Local\Temp\ccqxjBbT.s:25941  .debug_str:000000000001c4e3 .LASF409
C:\Users\SOLDER~1\AppData\Local\Temp\ccqxjBbT.s:24493  .debug_str:00000000000167db .LASF410
C:\Users\SOLDER~1\AppData\Local\Temp\ccqxjBbT.s:24939  .debug_str:0000000000018495 .LASF411
C:\Users\SOLDER~1\AppData\Local\Temp\ccqxjBbT.s:21117  .debug_str:0000000000008bf1 .LASF412
C:\Users\SOLDER~1\AppData\Local\Temp\ccqxjBbT.s:29815  .debug_str:000000000002c177 .LASF413
C:\Users\SOLDER~1\AppData\Local\Temp\ccqxjBbT.s:23837  .debug_str:0000000000013deb .LASF414
C:\Users\SOLDER~1\AppData\Local\Temp\ccqxjBbT.s:26277  .debug_str:000000000001da6d .LASF415
C:\Users\SOLDER~1\AppData\Local\Temp\ccqxjBbT.s:22671  .debug_str:000000000000f206 .LASF416
C:\Users\SOLDER~1\AppData\Local\Temp\ccqxjBbT.s:26975  .debug_str:0000000000020810 .LASF417
C:\Users\SOLDER~1\AppData\Local\Temp\ccqxjBbT.s:28945  .debug_str:00000000000288c4 .LASF418
C:\Users\SOLDER~1\AppData\Local\Temp\ccqxjBbT.s:24167  .debug_str:00000000000153c0 .LASF419
C:\Users\SOLDER~1\AppData\Local\Temp\ccqxjBbT.s:23375  .debug_str:0000000000011f70 .LASF420
C:\Users\SOLDER~1\AppData\Local\Temp\ccqxjBbT.s:25347  .debug_str:0000000000019e76 .LASF421
C:\Users\SOLDER~1\AppData\Local\Temp\ccqxjBbT.s:30379  .debug_str:000000000002e585 .LASF422
C:\Users\SOLDER~1\AppData\Local\Temp\ccqxjBbT.s:30521  .debug_str:000000000002eec4 .LASF423
C:\Users\SOLDER~1\AppData\Local\Temp\ccqxjBbT.s:20873  .debug_str:0000000000007c10 .LASF424
C:\Users\SOLDER~1\AppData\Local\Temp\ccqxjBbT.s:21943  .debug_str:000000000000c1e6 .LASF425
C:\Users\SOLDER~1\AppData\Local\Temp\ccqxjBbT.s:19509  .debug_str:0000000000002490 .LASF426
C:\Users\SOLDER~1\AppData\Local\Temp\ccqxjBbT.s:27029  .debug_str:0000000000020b8c .LASF427
C:\Users\SOLDER~1\AppData\Local\Temp\ccqxjBbT.s:27715  .debug_str:00000000000237c6 .LASF428
C:\Users\SOLDER~1\AppData\Local\Temp\ccqxjBbT.s:19441  .debug_str:0000000000001ffb .LASF429
C:\Users\SOLDER~1\AppData\Local\Temp\ccqxjBbT.s:23771  .debug_str:0000000000013915 .LASF430
C:\Users\SOLDER~1\AppData\Local\Temp\ccqxjBbT.s:26965  .debug_str:0000000000020767 .LASF431
C:\Users\SOLDER~1\AppData\Local\Temp\ccqxjBbT.s:23365  .debug_str:0000000000011eec .LASF432
C:\Users\SOLDER~1\AppData\Local\Temp\ccqxjBbT.s:30503  .debug_str:000000000002eda4 .LASF433
C:\Users\SOLDER~1\AppData\Local\Temp\ccqxjBbT.s:25953  .debug_str:000000000001c598 .LASF434
C:\Users\SOLDER~1\AppData\Local\Temp\ccqxjBbT.s:20247  .debug_str:0000000000005346 .LASF435
C:\Users\SOLDER~1\AppData\Local\Temp\ccqxjBbT.s:28093  .debug_str:0000000000025041 .LASF436
C:\Users\SOLDER~1\AppData\Local\Temp\ccqxjBbT.s:23703  .debug_str:0000000000013463 .LASF437
C:\Users\SOLDER~1\AppData\Local\Temp\ccqxjBbT.s:28007  .debug_str:0000000000024ad5 .LASF438
C:\Users\SOLDER~1\AppData\Local\Temp\ccqxjBbT.s:20159  .debug_str:0000000000004ddd .LASF439
C:\Users\SOLDER~1\AppData\Local\Temp\ccqxjBbT.s:22645  .debug_str:000000000000f072 .LASF440
C:\Users\SOLDER~1\AppData\Local\Temp\ccqxjBbT.s:26859  .debug_str:0000000000020083 .LASF441
C:\Users\SOLDER~1\AppData\Local\Temp\ccqxjBbT.s:19127  .debug_str:0000000000000c5a .LASF442
C:\Users\SOLDER~1\AppData\Local\Temp\ccqxjBbT.s:22131  .debug_str:000000000000cef1 .LASF443
C:\Users\SOLDER~1\AppData\Local\Temp\ccqxjBbT.s:24121  .debug_str:00000000000150dc .LASF444
C:\Users\SOLDER~1\AppData\Local\Temp\ccqxjBbT.s:20235  .debug_str:000000000000526c .LASF445
C:\Users\SOLDER~1\AppData\Local\Temp\ccqxjBbT.s:23435  .debug_str:0000000000012325 .LASF446
C:\Users\SOLDER~1\AppData\Local\Temp\ccqxjBbT.s:29139  .debug_str:000000000002952c .LASF447
C:\Users\SOLDER~1\AppData\Local\Temp\ccqxjBbT.s:21771  .debug_str:000000000000b700 .LASF448
C:\Users\SOLDER~1\AppData\Local\Temp\ccqxjBbT.s:26001  .debug_str:000000000001c8da .LASF449
C:\Users\SOLDER~1\AppData\Local\Temp\ccqxjBbT.s:29687  .debug_str:000000000002b8ae .LASF450
C:\Users\SOLDER~1\AppData\Local\Temp\ccqxjBbT.s:23567  .debug_str:0000000000012b4d .LASF451
C:\Users\SOLDER~1\AppData\Local\Temp\ccqxjBbT.s:22975  .debug_str:00000000000105da .LASF452
C:\Users\SOLDER~1\AppData\Local\Temp\ccqxjBbT.s:26759  .debug_str:000000000001fa26 .LASF453
C:\Users\SOLDER~1\AppData\Local\Temp\ccqxjBbT.s:21115  .debug_str:0000000000008bd7 .LASF454
C:\Users\SOLDER~1\AppData\Local\Temp\ccqxjBbT.s:26353  .debug_str:000000000001df94 .LASF455
C:\Users\SOLDER~1\AppData\Local\Temp\ccqxjBbT.s:22637  .debug_str:000000000000eff9 .LASF456
C:\Users\SOLDER~1\AppData\Local\Temp\ccqxjBbT.s:29109  .debug_str:0000000000029304 .LASF457
C:\Users\SOLDER~1\AppData\Local\Temp\ccqxjBbT.s:23289  .debug_str:00000000000119ef .LASF458
C:\Users\SOLDER~1\AppData\Local\Temp\ccqxjBbT.s:19693  .debug_str:000000000000304b .LASF459
C:\Users\SOLDER~1\AppData\Local\Temp\ccqxjBbT.s:19279  .debug_str:0000000000001574 .LASF460
GAS LISTING C:\Users\SOLDER~1\AppData\Local\Temp\ccqxjBbT.s 			page 26


C:\Users\SOLDER~1\AppData\Local\Temp\ccqxjBbT.s:27465  .debug_str:0000000000022731 .LASF461
C:\Users\SOLDER~1\AppData\Local\Temp\ccqxjBbT.s:28369  .debug_str:00000000000262de .LASF462
C:\Users\SOLDER~1\AppData\Local\Temp\ccqxjBbT.s:22151  .debug_str:000000000000d02a .LASF463
C:\Users\SOLDER~1\AppData\Local\Temp\ccqxjBbT.s:22479  .debug_str:000000000000e5cf .LASF464
C:\Users\SOLDER~1\AppData\Local\Temp\ccqxjBbT.s:29007  .debug_str:0000000000028c77 .LASF465
C:\Users\SOLDER~1\AppData\Local\Temp\ccqxjBbT.s:29931  .debug_str:000000000002c8b2 .LASF466
C:\Users\SOLDER~1\AppData\Local\Temp\ccqxjBbT.s:19265  .debug_str:000000000000147f .LASF467
C:\Users\SOLDER~1\AppData\Local\Temp\ccqxjBbT.s:21753  .debug_str:000000000000b60b .LASF468
C:\Users\SOLDER~1\AppData\Local\Temp\ccqxjBbT.s:28327  .debug_str:0000000000025fda .LASF469
C:\Users\SOLDER~1\AppData\Local\Temp\ccqxjBbT.s:25683  .debug_str:000000000001b408 .LASF470
C:\Users\SOLDER~1\AppData\Local\Temp\ccqxjBbT.s:28859  .debug_str:0000000000028317 .LASF471
C:\Users\SOLDER~1\AppData\Local\Temp\ccqxjBbT.s:24869  .debug_str:0000000000018002 .LASF472
C:\Users\SOLDER~1\AppData\Local\Temp\ccqxjBbT.s:27259  .debug_str:0000000000021a5c .LASF473
C:\Users\SOLDER~1\AppData\Local\Temp\ccqxjBbT.s:25905  .debug_str:000000000001c26c .LASF474
C:\Users\SOLDER~1\AppData\Local\Temp\ccqxjBbT.s:19367  .debug_str:0000000000001b08 .LASF475
C:\Users\SOLDER~1\AppData\Local\Temp\ccqxjBbT.s:24311  .debug_str:0000000000015c98 .LASF476
C:\Users\SOLDER~1\AppData\Local\Temp\ccqxjBbT.s:26841  .debug_str:000000000001ff4a .LASF477
C:\Users\SOLDER~1\AppData\Local\Temp\ccqxjBbT.s:30187  .debug_str:000000000002d965 .LASF478
C:\Users\SOLDER~1\AppData\Local\Temp\ccqxjBbT.s:30439  .debug_str:000000000002e994 .LASF479
C:\Users\SOLDER~1\AppData\Local\Temp\ccqxjBbT.s:30283  .debug_str:000000000002df85 .LASF480
C:\Users\SOLDER~1\AppData\Local\Temp\ccqxjBbT.s:28361  .debug_str:0000000000026239 .LASF481
C:\Users\SOLDER~1\AppData\Local\Temp\ccqxjBbT.s:21401  .debug_str:0000000000009efb .LASF482
C:\Users\SOLDER~1\AppData\Local\Temp\ccqxjBbT.s:25465  .debug_str:000000000001a5e8 .LASF483
C:\Users\SOLDER~1\AppData\Local\Temp\ccqxjBbT.s:24551  .debug_str:0000000000016b90 .LASF484
C:\Users\SOLDER~1\AppData\Local\Temp\ccqxjBbT.s:28465  .debug_str:0000000000026934 .LASF485
C:\Users\SOLDER~1\AppData\Local\Temp\ccqxjBbT.s:30533  .debug_str:000000000002ef73 .LASF486
C:\Users\SOLDER~1\AppData\Local\Temp\ccqxjBbT.s:27271  .debug_str:0000000000021b2c .LASF487
C:\Users\SOLDER~1\AppData\Local\Temp\ccqxjBbT.s:28563  .debug_str:0000000000026fb1 .LASF488
C:\Users\SOLDER~1\AppData\Local\Temp\ccqxjBbT.s:22417  .debug_str:000000000000e1ae .LASF489
C:\Users\SOLDER~1\AppData\Local\Temp\ccqxjBbT.s:25621  .debug_str:000000000001b041 .LASF490
C:\Users\SOLDER~1\AppData\Local\Temp\ccqxjBbT.s:25535  .debug_str:000000000001aa87 .LASF491
C:\Users\SOLDER~1\AppData\Local\Temp\ccqxjBbT.s:28685  .debug_str:00000000000277ac .LASF492
C:\Users\SOLDER~1\AppData\Local\Temp\ccqxjBbT.s:26101  .debug_str:000000000001cf43 .LASF493
C:\Users\SOLDER~1\AppData\Local\Temp\ccqxjBbT.s:22897  .debug_str:00000000000100ba .LASF494
C:\Users\SOLDER~1\AppData\Local\Temp\ccqxjBbT.s:25029  .debug_str:0000000000018a2d .LASF495
C:\Users\SOLDER~1\AppData\Local\Temp\ccqxjBbT.s:20183  .debug_str:0000000000004f37 .LASF496
C:\Users\SOLDER~1\AppData\Local\Temp\ccqxjBbT.s:23263  .debug_str:0000000000011870 .LASF497
C:\Users\SOLDER~1\AppData\Local\Temp\ccqxjBbT.s:22215  .debug_str:000000000000d48d .LASF498
C:\Users\SOLDER~1\AppData\Local\Temp\ccqxjBbT.s:27577  .debug_str:0000000000022eb0 .LASF500
C:\Users\SOLDER~1\AppData\Local\Temp\ccqxjBbT.s:21283  .debug_str:000000000000972d .LASF501
C:\Users\SOLDER~1\AppData\Local\Temp\ccqxjBbT.s:20275  .debug_str:00000000000054dd .LASF502
C:\Users\SOLDER~1\AppData\Local\Temp\ccqxjBbT.s:26359  .debug_str:000000000001dfe2 .LASF503
C:\Users\SOLDER~1\AppData\Local\Temp\ccqxjBbT.s:25687  .debug_str:000000000001b446 .LASF504
C:\Users\SOLDER~1\AppData\Local\Temp\ccqxjBbT.s:25789  .debug_str:000000000001ba9f .LASF505
C:\Users\SOLDER~1\AppData\Local\Temp\ccqxjBbT.s:22483  .debug_str:000000000000e61c .LASF506
C:\Users\SOLDER~1\AppData\Local\Temp\ccqxjBbT.s:20081  .debug_str:000000000000491f .LASF507
C:\Users\SOLDER~1\AppData\Local\Temp\ccqxjBbT.s:23419  .debug_str:000000000001222e .LASF508
C:\Users\SOLDER~1\AppData\Local\Temp\ccqxjBbT.s:28057  .debug_str:0000000000024e10 .LASF509
C:\Users\SOLDER~1\AppData\Local\Temp\ccqxjBbT.s:24269  .debug_str:00000000000159e7 .LASF510
C:\Users\SOLDER~1\AppData\Local\Temp\ccqxjBbT.s:18979  .debug_str:00000000000001a0 .LASF511
C:\Users\SOLDER~1\AppData\Local\Temp\ccqxjBbT.s:22295  .debug_str:000000000000d9be .LASF512
C:\Users\SOLDER~1\AppData\Local\Temp\ccqxjBbT.s:30247  .debug_str:000000000002dd38 .LASF513
C:\Users\SOLDER~1\AppData\Local\Temp\ccqxjBbT.s:29177  .debug_str:000000000002978d .LASF514
C:\Users\SOLDER~1\AppData\Local\Temp\ccqxjBbT.s:23797  .debug_str:0000000000013ade .LASF515
C:\Users\SOLDER~1\AppData\Local\Temp\ccqxjBbT.s:24719  .debug_str:0000000000017672 .LASF516
C:\Users\SOLDER~1\AppData\Local\Temp\ccqxjBbT.s:24107  .debug_str:0000000000015008 .LASF517
C:\Users\SOLDER~1\AppData\Local\Temp\ccqxjBbT.s:25165  .debug_str:0000000000019324 .LASF518
GAS LISTING C:\Users\SOLDER~1\AppData\Local\Temp\ccqxjBbT.s 			page 27


C:\Users\SOLDER~1\AppData\Local\Temp\ccqxjBbT.s:27003  .debug_str:00000000000209d9 .LASF519
C:\Users\SOLDER~1\AppData\Local\Temp\ccqxjBbT.s:26021  .debug_str:000000000001ca3d .LASF520
C:\Users\SOLDER~1\AppData\Local\Temp\ccqxjBbT.s:21669  .debug_str:000000000000b0d3 .LASF521
C:\Users\SOLDER~1\AppData\Local\Temp\ccqxjBbT.s:29787  .debug_str:000000000002bf4c .LASF522
C:\Users\SOLDER~1\AppData\Local\Temp\ccqxjBbT.s:26267  .debug_str:000000000001d9bc .LASF523
C:\Users\SOLDER~1\AppData\Local\Temp\ccqxjBbT.s:29657  .debug_str:000000000002b6d9 .LASF524
C:\Users\SOLDER~1\AppData\Local\Temp\ccqxjBbT.s:28253  .debug_str:0000000000025ab8 .LASF525
C:\Users\SOLDER~1\AppData\Local\Temp\ccqxjBbT.s:25433  .debug_str:000000000001a3f7 .LASF526
C:\Users\SOLDER~1\AppData\Local\Temp\ccqxjBbT.s:20501  .debug_str:00000000000063da .LASF527
C:\Users\SOLDER~1\AppData\Local\Temp\ccqxjBbT.s:27621  .debug_str:0000000000023185 .LASF528
C:\Users\SOLDER~1\AppData\Local\Temp\ccqxjBbT.s:21445  .debug_str:000000000000a1d6 .LASF529
C:\Users\SOLDER~1\AppData\Local\Temp\ccqxjBbT.s:19473  .debug_str:0000000000002221 .LASF530
C:\Users\SOLDER~1\AppData\Local\Temp\ccqxjBbT.s:26321  .debug_str:000000000001dd67 .LASF531
C:\Users\SOLDER~1\AppData\Local\Temp\ccqxjBbT.s:22353  .debug_str:000000000000dd35 .LASF532
C:\Users\SOLDER~1\AppData\Local\Temp\ccqxjBbT.s:24125  .debug_str:0000000000015118 .LASF533
C:\Users\SOLDER~1\AppData\Local\Temp\ccqxjBbT.s:22391  .debug_str:000000000000dfb5 .LASF534
C:\Users\SOLDER~1\AppData\Local\Temp\ccqxjBbT.s:21173  .debug_str:0000000000008fdf .LASF535
C:\Users\SOLDER~1\AppData\Local\Temp\ccqxjBbT.s:20815  .debug_str:000000000000783c .LASF536
C:\Users\SOLDER~1\AppData\Local\Temp\ccqxjBbT.s:21981  .debug_str:000000000000c499 .LASF537
C:\Users\SOLDER~1\AppData\Local\Temp\ccqxjBbT.s:28611  .debug_str:00000000000272c4 .LASF538
C:\Users\SOLDER~1\AppData\Local\Temp\ccqxjBbT.s:30401  .debug_str:000000000002e6d5 .LASF539
C:\Users\SOLDER~1\AppData\Local\Temp\ccqxjBbT.s:23441  .debug_str:0000000000012395 .LASF540
C:\Users\SOLDER~1\AppData\Local\Temp\ccqxjBbT.s:29779  .debug_str:000000000002bebe .LASF541
C:\Users\SOLDER~1\AppData\Local\Temp\ccqxjBbT.s:25907  .debug_str:000000000001c295 .LASF542
C:\Users\SOLDER~1\AppData\Local\Temp\ccqxjBbT.s:22303  .debug_str:000000000000da34 .LASF543
C:\Users\SOLDER~1\AppData\Local\Temp\ccqxjBbT.s:25681  .debug_str:000000000001b3e2 .LASF544
C:\Users\SOLDER~1\AppData\Local\Temp\ccqxjBbT.s:20069  .debug_str:000000000000484e .LASF545
C:\Users\SOLDER~1\AppData\Local\Temp\ccqxjBbT.s:27675  .debug_str:0000000000023539 .LASF546
C:\Users\SOLDER~1\AppData\Local\Temp\ccqxjBbT.s:25727  .debug_str:000000000001b6d6 .LASF547
C:\Users\SOLDER~1\AppData\Local\Temp\ccqxjBbT.s:29871  .debug_str:000000000002c4ed .LASF548
C:\Users\SOLDER~1\AppData\Local\Temp\ccqxjBbT.s:21801  .debug_str:000000000000b89c .LASF549
C:\Users\SOLDER~1\AppData\Local\Temp\ccqxjBbT.s:28587  .debug_str:000000000002712d .LASF550
C:\Users\SOLDER~1\AppData\Local\Temp\ccqxjBbT.s:27809  .debug_str:0000000000023db9 .LASF551
C:\Users\SOLDER~1\AppData\Local\Temp\ccqxjBbT.s:26589  .debug_str:000000000001eef1 .LASF552
C:\Users\SOLDER~1\AppData\Local\Temp\ccqxjBbT.s:28805  .debug_str:0000000000027f87 .LASF553
C:\Users\SOLDER~1\AppData\Local\Temp\ccqxjBbT.s:26793  .debug_str:000000000001fc48 .LASF554
C:\Users\SOLDER~1\AppData\Local\Temp\ccqxjBbT.s:24919  .debug_str:0000000000018347 .LASF555
C:\Users\SOLDER~1\AppData\Local\Temp\ccqxjBbT.s:23625  .debug_str:0000000000012f38 .LASF556
C:\Users\SOLDER~1\AppData\Local\Temp\ccqxjBbT.s:27217  .debug_str:0000000000021796 .LASF557
C:\Users\SOLDER~1\AppData\Local\Temp\ccqxjBbT.s:23863  .debug_str:0000000000013fa9 .LASF558
C:\Users\SOLDER~1\AppData\Local\Temp\ccqxjBbT.s:26459  .debug_str:000000000001e651 .LASF559
C:\Users\SOLDER~1\AppData\Local\Temp\ccqxjBbT.s:24409  .debug_str:00000000000162b5 .LASF560
C:\Users\SOLDER~1\AppData\Local\Temp\ccqxjBbT.s:19305  .debug_str:000000000000171a .LASF561
C:\Users\SOLDER~1\AppData\Local\Temp\ccqxjBbT.s:23157  .debug_str:000000000001118d .LASF562
C:\Users\SOLDER~1\AppData\Local\Temp\ccqxjBbT.s:20457  .debug_str:00000000000060f3 .LASF563
C:\Users\SOLDER~1\AppData\Local\Temp\ccqxjBbT.s:23051  .debug_str:0000000000010ab9 .LASF564
C:\Users\SOLDER~1\AppData\Local\Temp\ccqxjBbT.s:22909  .debug_str:0000000000010152 .LASF565
C:\Users\SOLDER~1\AppData\Local\Temp\ccqxjBbT.s:19393  .debug_str:0000000000001cec .LASF566
C:\Users\SOLDER~1\AppData\Local\Temp\ccqxjBbT.s:28125  .debug_str:000000000002523f .LASF567
C:\Users\SOLDER~1\AppData\Local\Temp\ccqxjBbT.s:30069  .debug_str:000000000002d1e4 .LASF568
C:\Users\SOLDER~1\AppData\Local\Temp\ccqxjBbT.s:30305  .debug_str:000000000002e0d0 .LASF569
C:\Users\SOLDER~1\AppData\Local\Temp\ccqxjBbT.s:22375  .debug_str:000000000000de9c .LASF570
C:\Users\SOLDER~1\AppData\Local\Temp\ccqxjBbT.s:19213  .debug_str:0000000000001138 .LASF571
C:\Users\SOLDER~1\AppData\Local\Temp\ccqxjBbT.s:27721  .debug_str:0000000000023826 .LASF572
C:\Users\SOLDER~1\AppData\Local\Temp\ccqxjBbT.s:25607  .debug_str:000000000001af7f .LASF573
C:\Users\SOLDER~1\AppData\Local\Temp\ccqxjBbT.s:25845  .debug_str:000000000001be4e .LASF574
C:\Users\SOLDER~1\AppData\Local\Temp\ccqxjBbT.s:19421  .debug_str:0000000000001ea8 .LASF575
GAS LISTING C:\Users\SOLDER~1\AppData\Local\Temp\ccqxjBbT.s 			page 28


C:\Users\SOLDER~1\AppData\Local\Temp\ccqxjBbT.s:28501  .debug_str:0000000000026bc0 .LASF576
C:\Users\SOLDER~1\AppData\Local\Temp\ccqxjBbT.s:27909  .debug_str:0000000000024423 .LASF577
C:\Users\SOLDER~1\AppData\Local\Temp\ccqxjBbT.s:22697  .debug_str:000000000000f3ae .LASF578
C:\Users\SOLDER~1\AppData\Local\Temp\ccqxjBbT.s:24645  .debug_str:0000000000017168 .LASF579
C:\Users\SOLDER~1\AppData\Local\Temp\ccqxjBbT.s:22515  .debug_str:000000000000e812 .LASF580
C:\Users\SOLDER~1\AppData\Local\Temp\ccqxjBbT.s:24539  .debug_str:0000000000016ada .LASF581
C:\Users\SOLDER~1\AppData\Local\Temp\ccqxjBbT.s:23651  .debug_str:00000000000130f0 .LASF582
C:\Users\SOLDER~1\AppData\Local\Temp\ccqxjBbT.s:23613  .debug_str:0000000000012e78 .LASF583
C:\Users\SOLDER~1\AppData\Local\Temp\ccqxjBbT.s:30143  .debug_str:000000000002d67f .LASF584
C:\Users\SOLDER~1\AppData\Local\Temp\ccqxjBbT.s:25095  .debug_str:0000000000018ec8 .LASF585
C:\Users\SOLDER~1\AppData\Local\Temp\ccqxjBbT.s:28329  .debug_str:0000000000025ffe .LASF586
C:\Users\SOLDER~1\AppData\Local\Temp\ccqxjBbT.s:20065  .debug_str:0000000000004810 .LASF587
C:\Users\SOLDER~1\AppData\Local\Temp\ccqxjBbT.s:23401  .debug_str:0000000000012110 .LASF588
C:\Users\SOLDER~1\AppData\Local\Temp\ccqxjBbT.s:26609  .debug_str:000000000001f04b .LASF589
C:\Users\SOLDER~1\AppData\Local\Temp\ccqxjBbT.s:29907  .debug_str:000000000002c73e .LASF590
C:\Users\SOLDER~1\AppData\Local\Temp\ccqxjBbT.s:21621  .debug_str:000000000000ad97 .LASF591
C:\Users\SOLDER~1\AppData\Local\Temp\ccqxjBbT.s:29443  .debug_str:000000000002a8de .LASF592
C:\Users\SOLDER~1\AppData\Local\Temp\ccqxjBbT.s:28339  .debug_str:00000000000260b2 .LASF593
C:\Users\SOLDER~1\AppData\Local\Temp\ccqxjBbT.s:23549  .debug_str:0000000000012a06 .LASF594
C:\Users\SOLDER~1\AppData\Local\Temp\ccqxjBbT.s:25463  .debug_str:000000000001a5c7 .LASF595
C:\Users\SOLDER~1\AppData\Local\Temp\ccqxjBbT.s:27611  .debug_str:00000000000230ee .LASF596
C:\Users\SOLDER~1\AppData\Local\Temp\ccqxjBbT.s:24571  .debug_str:0000000000016cad .LASF597
C:\Users\SOLDER~1\AppData\Local\Temp\ccqxjBbT.s:29063  .debug_str:0000000000028fed .LASF598
C:\Users\SOLDER~1\AppData\Local\Temp\ccqxjBbT.s:26165  .debug_str:000000000001d395 .LASF599
C:\Users\SOLDER~1\AppData\Local\Temp\ccqxjBbT.s:24867  .debug_str:0000000000017fc8 .LASF600
C:\Users\SOLDER~1\AppData\Local\Temp\ccqxjBbT.s:30237  .debug_str:000000000002dc78 .LASF601
C:\Users\SOLDER~1\AppData\Local\Temp\ccqxjBbT.s:21631  .debug_str:000000000000ae53 .LASF602
C:\Users\SOLDER~1\AppData\Local\Temp\ccqxjBbT.s:29665  .debug_str:000000000002b744 .LASF603
C:\Users\SOLDER~1\AppData\Local\Temp\ccqxjBbT.s:23589  .debug_str:0000000000012cbb .LASF604
C:\Users\SOLDER~1\AppData\Local\Temp\ccqxjBbT.s:29077  .debug_str:00000000000290e8 .LASF605
C:\Users\SOLDER~1\AppData\Local\Temp\ccqxjBbT.s:23027  .debug_str:0000000000010902 .LASF606
C:\Users\SOLDER~1\AppData\Local\Temp\ccqxjBbT.s:28387  .debug_str:0000000000026413 .LASF607
C:\Users\SOLDER~1\AppData\Local\Temp\ccqxjBbT.s:28491  .debug_str:0000000000026b0d .LASF608
C:\Users\SOLDER~1\AppData\Local\Temp\ccqxjBbT.s:22379  .debug_str:000000000000dee1 .LASF609
C:\Users\SOLDER~1\AppData\Local\Temp\ccqxjBbT.s:22165  .debug_str:000000000000d138 .LASF610
C:\Users\SOLDER~1\AppData\Local\Temp\ccqxjBbT.s:26243  .debug_str:000000000001d868 .LASF611
C:\Users\SOLDER~1\AppData\Local\Temp\ccqxjBbT.s:28159  .debug_str:0000000000025450 .LASF612
C:\Users\SOLDER~1\AppData\Local\Temp\ccqxjBbT.s:24651  .debug_str:00000000000171d6 .LASF613
C:\Users\SOLDER~1\AppData\Local\Temp\ccqxjBbT.s:27365  .debug_str:00000000000220d0 .LASF614
C:\Users\SOLDER~1\AppData\Local\Temp\ccqxjBbT.s:29749  .debug_str:000000000002bc9a .LASF615
C:\Users\SOLDER~1\AppData\Local\Temp\ccqxjBbT.s:21257  .debug_str:000000000000959e .LASF616
C:\Users\SOLDER~1\AppData\Local\Temp\ccqxjBbT.s:23333  .debug_str:0000000000011cba .LASF617
C:\Users\SOLDER~1\AppData\Local\Temp\ccqxjBbT.s:23601  .debug_str:0000000000012da7 .LASF618
C:\Users\SOLDER~1\AppData\Local\Temp\ccqxjBbT.s:26237  .debug_str:000000000001d813 .LASF619
C:\Users\SOLDER~1\AppData\Local\Temp\ccqxjBbT.s:20699  .debug_str:0000000000007138 .LASF620
C:\Users\SOLDER~1\AppData\Local\Temp\ccqxjBbT.s:19437  .debug_str:0000000000001fd5 .LASF621
C:\Users\SOLDER~1\AppData\Local\Temp\ccqxjBbT.s:24723  .debug_str:00000000000176bb .LASF622
C:\Users\SOLDER~1\AppData\Local\Temp\ccqxjBbT.s:20299  .debug_str:0000000000005647 .LASF623
C:\Users\SOLDER~1\AppData\Local\Temp\ccqxjBbT.s:28079  .debug_str:0000000000024f6e .LASF624
C:\Users\SOLDER~1\AppData\Local\Temp\ccqxjBbT.s:19723  .debug_str:0000000000003233 .LASF625
C:\Users\SOLDER~1\AppData\Local\Temp\ccqxjBbT.s:26367  .debug_str:000000000001e05f .LASF626
C:\Users\SOLDER~1\AppData\Local\Temp\ccqxjBbT.s:19815  .debug_str:000000000000381a .LASF627
C:\Users\SOLDER~1\AppData\Local\Temp\ccqxjBbT.s:24275  .debug_str:0000000000015a58 .LASF628
C:\Users\SOLDER~1\AppData\Local\Temp\ccqxjBbT.s:25335  .debug_str:0000000000019da0 .LASF629
C:\Users\SOLDER~1\AppData\Local\Temp\ccqxjBbT.s:23203  .debug_str:0000000000011472 .LASF630
C:\Users\SOLDER~1\AppData\Local\Temp\ccqxjBbT.s:25917  .debug_str:000000000001c325 .LASF631
C:\Users\SOLDER~1\AppData\Local\Temp\ccqxjBbT.s:20665  .debug_str:0000000000006ec2 .LASF632
GAS LISTING C:\Users\SOLDER~1\AppData\Local\Temp\ccqxjBbT.s 			page 29


C:\Users\SOLDER~1\AppData\Local\Temp\ccqxjBbT.s:20623  .debug_str:0000000000006bf1 .LASF633
C:\Users\SOLDER~1\AppData\Local\Temp\ccqxjBbT.s:25571  .debug_str:000000000001ad35 .LASF634
C:\Users\SOLDER~1\AppData\Local\Temp\ccqxjBbT.s:22383  .debug_str:000000000000df2b .LASF635
C:\Users\SOLDER~1\AppData\Local\Temp\ccqxjBbT.s:26863  .debug_str:00000000000200c2 .LASF636
C:\Users\SOLDER~1\AppData\Local\Temp\ccqxjBbT.s:25839  .debug_str:000000000001bdf5 .LASF637
C:\Users\SOLDER~1\AppData\Local\Temp\ccqxjBbT.s:26851  .debug_str:000000000001fffd .LASF638
C:\Users\SOLDER~1\AppData\Local\Temp\ccqxjBbT.s:25301  .debug_str:0000000000019ba3 .LASF639
C:\Users\SOLDER~1\AppData\Local\Temp\ccqxjBbT.s:28893  .debug_str:000000000002854a .LASF640
C:\Users\SOLDER~1\AppData\Local\Temp\ccqxjBbT.s:24071  .debug_str:0000000000014dce .LASF641
C:\Users\SOLDER~1\AppData\Local\Temp\ccqxjBbT.s:25803  .debug_str:000000000001bb85 .LASF642
C:\Users\SOLDER~1\AppData\Local\Temp\ccqxjBbT.s:27957  .debug_str:0000000000024768 .LASF643
C:\Users\SOLDER~1\AppData\Local\Temp\ccqxjBbT.s:19403  .debug_str:0000000000001d8c .LASF644
C:\Users\SOLDER~1\AppData\Local\Temp\ccqxjBbT.s:29757  .debug_str:000000000002bd2f .LASF645
C:\Users\SOLDER~1\AppData\Local\Temp\ccqxjBbT.s:23653  .debug_str:000000000001310e .LASF646
C:\Users\SOLDER~1\AppData\Local\Temp\ccqxjBbT.s:24673  .debug_str:0000000000017358 .LASF647
C:\Users\SOLDER~1\AppData\Local\Temp\ccqxjBbT.s:24583  .debug_str:0000000000016d59 .LASF648
C:\Users\SOLDER~1\AppData\Local\Temp\ccqxjBbT.s:25935  .debug_str:000000000001c477 .LASF649
C:\Users\SOLDER~1\AppData\Local\Temp\ccqxjBbT.s:20529  .debug_str:00000000000065b7 .LASF650
C:\Users\SOLDER~1\AppData\Local\Temp\ccqxjBbT.s:27903  .debug_str:00000000000243c5 .LASF651
C:\Users\SOLDER~1\AppData\Local\Temp\ccqxjBbT.s:24633  .debug_str:0000000000017095 .LASF652
C:\Users\SOLDER~1\AppData\Local\Temp\ccqxjBbT.s:22523  .debug_str:000000000000e895 .LASF653
C:\Users\SOLDER~1\AppData\Local\Temp\ccqxjBbT.s:24065  .debug_str:0000000000014d54 .LASF654
C:\Users\SOLDER~1\AppData\Local\Temp\ccqxjBbT.s:22607  .debug_str:000000000000ee04 .LASF655
C:\Users\SOLDER~1\AppData\Local\Temp\ccqxjBbT.s:29247  .debug_str:0000000000029c02 .LASF656
C:\Users\SOLDER~1\AppData\Local\Temp\ccqxjBbT.s:25471  .debug_str:000000000001a647 .LASF657
C:\Users\SOLDER~1\AppData\Local\Temp\ccqxjBbT.s:21109  .debug_str:0000000000008b7e .LASF658
C:\Users\SOLDER~1\AppData\Local\Temp\ccqxjBbT.s:25083  .debug_str:0000000000018de9 .LASF659
C:\Users\SOLDER~1\AppData\Local\Temp\ccqxjBbT.s:24387  .debug_str:0000000000016150 .LASF660
C:\Users\SOLDER~1\AppData\Local\Temp\ccqxjBbT.s:30257  .debug_str:000000000002dddc .LASF661
C:\Users\SOLDER~1\AppData\Local\Temp\ccqxjBbT.s:20887  .debug_str:0000000000007d1a .LASF662
C:\Users\SOLDER~1\AppData\Local\Temp\ccqxjBbT.s:29523  .debug_str:000000000002adf2 .LASF663
C:\Users\SOLDER~1\AppData\Local\Temp\ccqxjBbT.s:28891  .debug_str:0000000000028529 .LASF664
C:\Users\SOLDER~1\AppData\Local\Temp\ccqxjBbT.s:27677  .debug_str:000000000002355e .LASF665
C:\Users\SOLDER~1\AppData\Local\Temp\ccqxjBbT.s:27703  .debug_str:0000000000023714 .LASF666
C:\Users\SOLDER~1\AppData\Local\Temp\ccqxjBbT.s:29913  .debug_str:000000000002c7b5 .LASF667
C:\Users\SOLDER~1\AppData\Local\Temp\ccqxjBbT.s:22393  .debug_str:000000000000dfd9 .LASF668
C:\Users\SOLDER~1\AppData\Local\Temp\ccqxjBbT.s:21701  .debug_str:000000000000b2bd .LASF669
C:\Users\SOLDER~1\AppData\Local\Temp\ccqxjBbT.s:29195  .debug_str:00000000000298a0 .LASF670
C:\Users\SOLDER~1\AppData\Local\Temp\ccqxjBbT.s:26389  .debug_str:000000000001e1d8 .LASF671
C:\Users\SOLDER~1\AppData\Local\Temp\ccqxjBbT.s:26663  .debug_str:000000000001f3fc .LASF672
C:\Users\SOLDER~1\AppData\Local\Temp\ccqxjBbT.s:26679  .debug_str:000000000001f520 .LASF673
C:\Users\SOLDER~1\AppData\Local\Temp\ccqxjBbT.s:20585  .debug_str:00000000000069a6 .LASF674
C:\Users\SOLDER~1\AppData\Local\Temp\ccqxjBbT.s:27737  .debug_str:000000000002392b .LASF675
C:\Users\SOLDER~1\AppData\Local\Temp\ccqxjBbT.s:28763  .debug_str:0000000000027cc9 .LASF676
C:\Users\SOLDER~1\AppData\Local\Temp\ccqxjBbT.s:30225  .debug_str:000000000002dbc8 .LASF677
C:\Users\SOLDER~1\AppData\Local\Temp\ccqxjBbT.s:29515  .debug_str:000000000002ad78 .LASF678
C:\Users\SOLDER~1\AppData\Local\Temp\ccqxjBbT.s:25773  .debug_str:000000000001b97b .LASF679
C:\Users\SOLDER~1\AppData\Local\Temp\ccqxjBbT.s:21899  .debug_str:000000000000bed1 .LASF680
C:\Users\SOLDER~1\AppData\Local\Temp\ccqxjBbT.s:19849  .debug_str:0000000000003a4a .LASF681
C:\Users\SOLDER~1\AppData\Local\Temp\ccqxjBbT.s:23059  .debug_str:0000000000010b3a .LASF682
C:\Users\SOLDER~1\AppData\Local\Temp\ccqxjBbT.s:25477  .debug_str:000000000001a6b7 .LASF683
C:\Users\SOLDER~1\AppData\Local\Temp\ccqxjBbT.s:28567  .debug_str:0000000000026fe3 .LASF684
C:\Users\SOLDER~1\AppData\Local\Temp\ccqxjBbT.s:29839  .debug_str:000000000002c2fb .LASF685
C:\Users\SOLDER~1\AppData\Local\Temp\ccqxjBbT.s:24797  .debug_str:0000000000017b6f .LASF686
C:\Users\SOLDER~1\AppData\Local\Temp\ccqxjBbT.s:26309  .debug_str:000000000001dc87 .LASF687
C:\Users\SOLDER~1\AppData\Local\Temp\ccqxjBbT.s:23603  .debug_str:0000000000012dbf .LASF688
C:\Users\SOLDER~1\AppData\Local\Temp\ccqxjBbT.s:24519  .debug_str:0000000000016992 .LASF689
GAS LISTING C:\Users\SOLDER~1\AppData\Local\Temp\ccqxjBbT.s 			page 30


C:\Users\SOLDER~1\AppData\Local\Temp\ccqxjBbT.s:21059  .debug_str:0000000000008835 .LASF690
C:\Users\SOLDER~1\AppData\Local\Temp\ccqxjBbT.s:26085  .debug_str:000000000001ce5c .LASF691
C:\Users\SOLDER~1\AppData\Local\Temp\ccqxjBbT.s:26625  .debug_str:000000000001f16a .LASF692
C:\Users\SOLDER~1\AppData\Local\Temp\ccqxjBbT.s:19369  .debug_str:0000000000001b2c .LASF693
C:\Users\SOLDER~1\AppData\Local\Temp\ccqxjBbT.s:26401  .debug_str:000000000001e28a .LASF694
C:\Users\SOLDER~1\AppData\Local\Temp\ccqxjBbT.s:29723  .debug_str:000000000002baf6 .LASF695
C:\Users\SOLDER~1\AppData\Local\Temp\ccqxjBbT.s:18983  .debug_str:00000000000001d2 .LASF696
C:\Users\SOLDER~1\AppData\Local\Temp\ccqxjBbT.s:26885  .debug_str:000000000002021d .LASF697
C:\Users\SOLDER~1\AppData\Local\Temp\ccqxjBbT.s:26837  .debug_str:000000000001ff04 .LASF698
C:\Users\SOLDER~1\AppData\Local\Temp\ccqxjBbT.s:21159  .debug_str:0000000000008eec .LASF699
C:\Users\SOLDER~1\AppData\Local\Temp\ccqxjBbT.s:26591  .debug_str:000000000001ef1e .LASF700
C:\Users\SOLDER~1\AppData\Local\Temp\ccqxjBbT.s:21143  .debug_str:0000000000008dc1 .LASF701
C:\Users\SOLDER~1\AppData\Local\Temp\ccqxjBbT.s:26095  .debug_str:000000000001cefe .LASF702
C:\Users\SOLDER~1\AppData\Local\Temp\ccqxjBbT.s:28753  .debug_str:0000000000027c06 .LASF703
C:\Users\SOLDER~1\AppData\Local\Temp\ccqxjBbT.s:29537  .debug_str:000000000002aebb .LASF704
C:\Users\SOLDER~1\AppData\Local\Temp\ccqxjBbT.s:22539  .debug_str:000000000000e9bd .LASF705
C:\Users\SOLDER~1\AppData\Local\Temp\ccqxjBbT.s:30227  .debug_str:000000000002dbde .LASF706
C:\Users\SOLDER~1\AppData\Local\Temp\ccqxjBbT.s:25333  .debug_str:0000000000019d8d .LASF707
C:\Users\SOLDER~1\AppData\Local\Temp\ccqxjBbT.s:19785  .debug_str:000000000000361c .LASF708
C:\Users\SOLDER~1\AppData\Local\Temp\ccqxjBbT.s:27811  .debug_str:0000000000023de6 .LASF709
C:\Users\SOLDER~1\AppData\Local\Temp\ccqxjBbT.s:25807  .debug_str:000000000001bbb0 .LASF710
C:\Users\SOLDER~1\AppData\Local\Temp\ccqxjBbT.s:28803  .debug_str:0000000000027f64 .LASF711
C:\Users\SOLDER~1\AppData\Local\Temp\ccqxjBbT.s:24555  .debug_str:0000000000016bd4 .LASF712
C:\Users\SOLDER~1\AppData\Local\Temp\ccqxjBbT.s:21853  .debug_str:000000000000bc01 .LASF713
C:\Users\SOLDER~1\AppData\Local\Temp\ccqxjBbT.s:27413  .debug_str:00000000000223ab .LASF714
C:\Users\SOLDER~1\AppData\Local\Temp\ccqxjBbT.s:26879  .debug_str:00000000000201b4 .LASF715
C:\Users\SOLDER~1\AppData\Local\Temp\ccqxjBbT.s:19801  .debug_str:0000000000003718 .LASF716
C:\Users\SOLDER~1\AppData\Local\Temp\ccqxjBbT.s:28295  .debug_str:0000000000025d9e .LASF717
C:\Users\SOLDER~1\AppData\Local\Temp\ccqxjBbT.s:27603  .debug_str:000000000002305a .LASF718
C:\Users\SOLDER~1\AppData\Local\Temp\ccqxjBbT.s:20921  .debug_str:0000000000007f4e .LASF719
C:\Users\SOLDER~1\AppData\Local\Temp\ccqxjBbT.s:28647  .debug_str:000000000002752d .LASF720
C:\Users\SOLDER~1\AppData\Local\Temp\ccqxjBbT.s:26607  .debug_str:000000000001f028 .LASF721
C:\Users\SOLDER~1\AppData\Local\Temp\ccqxjBbT.s:27751  .debug_str:00000000000239e0 .LASF722
C:\Users\SOLDER~1\AppData\Local\Temp\ccqxjBbT.s:23083  .debug_str:0000000000010c9b .LASF723
C:\Users\SOLDER~1\AppData\Local\Temp\ccqxjBbT.s:30267  .debug_str:000000000002de89 .LASF724
C:\Users\SOLDER~1\AppData\Local\Temp\ccqxjBbT.s:25507  .debug_str:000000000001a8d5 .LASF725
C:\Users\SOLDER~1\AppData\Local\Temp\ccqxjBbT.s:23519  .debug_str:000000000001289e .LASF726
C:\Users\SOLDER~1\AppData\Local\Temp\ccqxjBbT.s:27155  .debug_str:00000000000213c0 .LASF727
C:\Users\SOLDER~1\AppData\Local\Temp\ccqxjBbT.s:25303  .debug_str:0000000000019bc5 .LASF728
C:\Users\SOLDER~1\AppData\Local\Temp\ccqxjBbT.s:27199  .debug_str:0000000000021685 .LASF729
C:\Users\SOLDER~1\AppData\Local\Temp\ccqxjBbT.s:24451  .debug_str:0000000000016555 .LASF730
C:\Users\SOLDER~1\AppData\Local\Temp\ccqxjBbT.s:23691  .debug_str:000000000001338e .LASF731
C:\Users\SOLDER~1\AppData\Local\Temp\ccqxjBbT.s:29413  .debug_str:000000000002a73f .LASF732
C:\Users\SOLDER~1\AppData\Local\Temp\ccqxjBbT.s:23875  .debug_str:0000000000014074 .LASF733
C:\Users\SOLDER~1\AppData\Local\Temp\ccqxjBbT.s:19121  .debug_str:0000000000000beb .LASF734
C:\Users\SOLDER~1\AppData\Local\Temp\ccqxjBbT.s:22291  .debug_str:000000000000d976 .LASF735
C:\Users\SOLDER~1\AppData\Local\Temp\ccqxjBbT.s:25159  .debug_str:00000000000192d7 .LASF736
C:\Users\SOLDER~1\AppData\Local\Temp\ccqxjBbT.s:25753  .debug_str:000000000001b849 .LASF737
C:\Users\SOLDER~1\AppData\Local\Temp\ccqxjBbT.s:20749  .debug_str:0000000000007460 .LASF738
C:\Users\SOLDER~1\AppData\Local\Temp\ccqxjBbT.s:21363  .debug_str:0000000000009c5e .LASF739
C:\Users\SOLDER~1\AppData\Local\Temp\ccqxjBbT.s:27395  .debug_str:0000000000022270 .LASF740
C:\Users\SOLDER~1\AppData\Local\Temp\ccqxjBbT.s:27329  .debug_str:0000000000021ea7 .LASF741
C:\Users\SOLDER~1\AppData\Local\Temp\ccqxjBbT.s:24997  .debug_str:000000000001882f .LASF742
C:\Users\SOLDER~1\AppData\Local\Temp\ccqxjBbT.s:21847  .debug_str:000000000000bb8c .LASF743
C:\Users\SOLDER~1\AppData\Local\Temp\ccqxjBbT.s:30405  .debug_str:000000000002e717 .LASF744
C:\Users\SOLDER~1\AppData\Local\Temp\ccqxjBbT.s:22071  .debug_str:000000000000cae4 .LASF745
C:\Users\SOLDER~1\AppData\Local\Temp\ccqxjBbT.s:19475  .debug_str:0000000000002247 .LASF746
GAS LISTING C:\Users\SOLDER~1\AppData\Local\Temp\ccqxjBbT.s 			page 31


C:\Users\SOLDER~1\AppData\Local\Temp\ccqxjBbT.s:24183  .debug_str:00000000000154be .LASF747
C:\Users\SOLDER~1\AppData\Local\Temp\ccqxjBbT.s:21835  .debug_str:000000000000bad7 .LASF748
C:\Users\SOLDER~1\AppData\Local\Temp\ccqxjBbT.s:28679  .debug_str:0000000000027749 .LASF749
C:\Users\SOLDER~1\AppData\Local\Temp\ccqxjBbT.s:25321  .debug_str:0000000000019ce4 .LASF750
C:\Users\SOLDER~1\AppData\Local\Temp\ccqxjBbT.s:23461  .debug_str:00000000000124d2 .LASF751
C:\Users\SOLDER~1\AppData\Local\Temp\ccqxjBbT.s:26755  .debug_str:000000000001f9e9 .LASF752
C:\Users\SOLDER~1\AppData\Local\Temp\ccqxjBbT.s:27323  .debug_str:0000000000021e41 .LASF753
C:\Users\SOLDER~1\AppData\Local\Temp\ccqxjBbT.s:28259  .debug_str:0000000000025b1b .LASF754
C:\Users\SOLDER~1\AppData\Local\Temp\ccqxjBbT.s:27691  .debug_str:0000000000023642 .LASF755
C:\Users\SOLDER~1\AppData\Local\Temp\ccqxjBbT.s:20649  .debug_str:0000000000006d89 .LASF756
C:\Users\SOLDER~1\AppData\Local\Temp\ccqxjBbT.s:20145  .debug_str:0000000000004d14 .LASF757
C:\Users\SOLDER~1\AppData\Local\Temp\ccqxjBbT.s:21535  .debug_str:000000000000a812 .LASF758
C:\Users\SOLDER~1\AppData\Local\Temp\ccqxjBbT.s:21747  .debug_str:000000000000b5ad .LASF759
C:\Users\SOLDER~1\AppData\Local\Temp\ccqxjBbT.s:29501  .debug_str:000000000002ac98 .LASF760
C:\Users\SOLDER~1\AppData\Local\Temp\ccqxjBbT.s:27409  .debug_str:0000000000022370 .LASF761
C:\Users\SOLDER~1\AppData\Local\Temp\ccqxjBbT.s:19625  .debug_str:0000000000002be1 .LASF762
C:\Users\SOLDER~1\AppData\Local\Temp\ccqxjBbT.s:28709  .debug_str:0000000000027934 .LASF763
C:\Users\SOLDER~1\AppData\Local\Temp\ccqxjBbT.s:19507  .debug_str:000000000000246e .LASF764
C:\Users\SOLDER~1\AppData\Local\Temp\ccqxjBbT.s:26335  .debug_str:000000000001de64 .LASF765
C:\Users\SOLDER~1\AppData\Local\Temp\ccqxjBbT.s:24389  .debug_str:0000000000016175 .LASF766
C:\Users\SOLDER~1\AppData\Local\Temp\ccqxjBbT.s:19021  .debug_str:0000000000000474 .LASF767
C:\Users\SOLDER~1\AppData\Local\Temp\ccqxjBbT.s:19211  .debug_str:0000000000001118 .LASF768
C:\Users\SOLDER~1\AppData\Local\Temp\ccqxjBbT.s:27789  .debug_str:0000000000023c70 .LASF769
C:\Users\SOLDER~1\AppData\Local\Temp\ccqxjBbT.s:28099  .debug_str:0000000000025096 .LASF770
C:\Users\SOLDER~1\AppData\Local\Temp\ccqxjBbT.s:20411  .debug_str:0000000000005db7 .LASF771
C:\Users\SOLDER~1\AppData\Local\Temp\ccqxjBbT.s:21227  .debug_str:0000000000009399 .LASF772
C:\Users\SOLDER~1\AppData\Local\Temp\ccqxjBbT.s:29251  .debug_str:0000000000029c43 .LASF773
C:\Users\SOLDER~1\AppData\Local\Temp\ccqxjBbT.s:19151  .debug_str:0000000000000df7 .LASF774
C:\Users\SOLDER~1\AppData\Local\Temp\ccqxjBbT.s:23973  .debug_str:0000000000014729 .LASF775
C:\Users\SOLDER~1\AppData\Local\Temp\ccqxjBbT.s:25957  .debug_str:000000000001c5d5 .LASF776
C:\Users\SOLDER~1\AppData\Local\Temp\ccqxjBbT.s:20705  .debug_str:000000000000718f .LASF777
C:\Users\SOLDER~1\AppData\Local\Temp\ccqxjBbT.s:20385  .debug_str:0000000000005c0f .LASF778
C:\Users\SOLDER~1\AppData\Local\Temp\ccqxjBbT.s:21951  .debug_str:000000000000c261 .LASF779
C:\Users\SOLDER~1\AppData\Local\Temp\ccqxjBbT.s:19525  .debug_str:00000000000025a1 .LASF780
C:\Users\SOLDER~1\AppData\Local\Temp\ccqxjBbT.s:20185  .debug_str:0000000000004f51 .LASF781
C:\Users\SOLDER~1\AppData\Local\Temp\ccqxjBbT.s:20167  .debug_str:0000000000004e62 .LASF782
C:\Users\SOLDER~1\AppData\Local\Temp\ccqxjBbT.s:20433  .debug_str:0000000000005f18 .LASF783
C:\Users\SOLDER~1\AppData\Local\Temp\ccqxjBbT.s:29403  .debug_str:000000000002a69f .LASF784
C:\Users\SOLDER~1\AppData\Local\Temp\ccqxjBbT.s:26189  .debug_str:000000000001d525 .LASF785
C:\Users\SOLDER~1\AppData\Local\Temp\ccqxjBbT.s:25313  .debug_str:0000000000019c5e .LASF786
C:\Users\SOLDER~1\AppData\Local\Temp\ccqxjBbT.s:27165  .debug_str:0000000000021453 .LASF787
C:\Users\SOLDER~1\AppData\Local\Temp\ccqxjBbT.s:21013  .debug_str:0000000000008539 .LASF788
C:\Users\SOLDER~1\AppData\Local\Temp\ccqxjBbT.s:30545  .debug_str:000000000002f048 .LASF789
C:\Users\SOLDER~1\AppData\Local\Temp\ccqxjBbT.s:19365  .debug_str:0000000000001ae8 .LASF790
C:\Users\SOLDER~1\AppData\Local\Temp\ccqxjBbT.s:22253  .debug_str:000000000000d6ed .LASF791
C:\Users\SOLDER~1\AppData\Local\Temp\ccqxjBbT.s:20701  .debug_str:0000000000007150 .LASF792
C:\Users\SOLDER~1\AppData\Local\Temp\ccqxjBbT.s:25609  .debug_str:000000000001afa0 .LASF793
C:\Users\SOLDER~1\AppData\Local\Temp\ccqxjBbT.s:27599  .debug_str:0000000000023019 .LASF794
C:\Users\SOLDER~1\AppData\Local\Temp\ccqxjBbT.s:24799  .debug_str:0000000000017b93 .LASF795
C:\Users\SOLDER~1\AppData\Local\Temp\ccqxjBbT.s:30199  .debug_str:000000000002da15 .LASF796
C:\Users\SOLDER~1\AppData\Local\Temp\ccqxjBbT.s:25133  .debug_str:0000000000019146 .LASF797
C:\Users\SOLDER~1\AppData\Local\Temp\ccqxjBbT.s:30497  .debug_str:000000000002ed53 .LASF798
C:\Users\SOLDER~1\AppData\Local\Temp\ccqxjBbT.s:23265  .debug_str:000000000001188a .LASF799
C:\Users\SOLDER~1\AppData\Local\Temp\ccqxjBbT.s:28333  .debug_str:0000000000026044 .LASF800
C:\Users\SOLDER~1\AppData\Local\Temp\ccqxjBbT.s:28767  .debug_str:0000000000027d13 .LASF801
C:\Users\SOLDER~1\AppData\Local\Temp\ccqxjBbT.s:21925  .debug_str:000000000000c09d .LASF802
C:\Users\SOLDER~1\AppData\Local\Temp\ccqxjBbT.s:28797  .debug_str:0000000000027f0b .LASF803
GAS LISTING C:\Users\SOLDER~1\AppData\Local\Temp\ccqxjBbT.s 			page 32


C:\Users\SOLDER~1\AppData\Local\Temp\ccqxjBbT.s:24171  .debug_str:00000000000153fd .LASF804
C:\Users\SOLDER~1\AppData\Local\Temp\ccqxjBbT.s:24137  .debug_str:00000000000151ba .LASF805
C:\Users\SOLDER~1\AppData\Local\Temp\ccqxjBbT.s:23581  .debug_str:0000000000012c3b .LASF806
C:\Users\SOLDER~1\AppData\Local\Temp\ccqxjBbT.s:21987  .debug_str:000000000000c4ff .LASF807
C:\Users\SOLDER~1\AppData\Local\Temp\ccqxjBbT.s:26659  .debug_str:000000000001f3b8 .LASF808
C:\Users\SOLDER~1\AppData\Local\Temp\ccqxjBbT.s:30495  .debug_str:000000000002ed31 .LASF809
C:\Users\SOLDER~1\AppData\Local\Temp\ccqxjBbT.s:30233  .debug_str:000000000002dc34 .LASF810
C:\Users\SOLDER~1\AppData\Local\Temp\ccqxjBbT.s:28443  .debug_str:00000000000267c7 .LASF811
C:\Users\SOLDER~1\AppData\Local\Temp\ccqxjBbT.s:19575  .debug_str:00000000000028f6 .LASF812
C:\Users\SOLDER~1\AppData\Local\Temp\ccqxjBbT.s:28505  .debug_str:0000000000026c0b .LASF813
C:\Users\SOLDER~1\AppData\Local\Temp\ccqxjBbT.s:28729  .debug_str:0000000000027a55 .LASF814
C:\Users\SOLDER~1\AppData\Local\Temp\ccqxjBbT.s:20581  .debug_str:0000000000006964 .LASF815
C:\Users\SOLDER~1\AppData\Local\Temp\ccqxjBbT.s:25375  .debug_str:000000000001a02d .LASF816
C:\Users\SOLDER~1\AppData\Local\Temp\ccqxjBbT.s:24439  .debug_str:00000000000164ab .LASF817
C:\Users\SOLDER~1\AppData\Local\Temp\ccqxjBbT.s:20553  .debug_str:0000000000006752 .LASF818
C:\Users\SOLDER~1\AppData\Local\Temp\ccqxjBbT.s:30087  .debug_str:000000000002d2f8 .LASF819
C:\Users\SOLDER~1\AppData\Local\Temp\ccqxjBbT.s:29113  .debug_str:0000000000029368 .LASF820
C:\Users\SOLDER~1\AppData\Local\Temp\ccqxjBbT.s:27319  .debug_str:0000000000021e08 .LASF821
C:\Users\SOLDER~1\AppData\Local\Temp\ccqxjBbT.s:29753  .debug_str:000000000002bce8 .LASF822
C:\Users\SOLDER~1\AppData\Local\Temp\ccqxjBbT.s:28631  .debug_str:000000000002742c .LASF823
C:\Users\SOLDER~1\AppData\Local\Temp\ccqxjBbT.s:26669  .debug_str:000000000001f46b .LASF824
C:\Users\SOLDER~1\AppData\Local\Temp\ccqxjBbT.s:28377  .debug_str:0000000000026365 .LASF825
C:\Users\SOLDER~1\AppData\Local\Temp\ccqxjBbT.s:25437  .debug_str:000000000001a43d .LASF826
C:\Users\SOLDER~1\AppData\Local\Temp\ccqxjBbT.s:22119  .debug_str:000000000000ce33 .LASF827
C:\Users\SOLDER~1\AppData\Local\Temp\ccqxjBbT.s:25127  .debug_str:00000000000190df .LASF828
C:\Users\SOLDER~1\AppData\Local\Temp\ccqxjBbT.s:21303  .debug_str:0000000000009883 .LASF829
C:\Users\SOLDER~1\AppData\Local\Temp\ccqxjBbT.s:19641  .debug_str:0000000000002ce2 .LASF830
C:\Users\SOLDER~1\AppData\Local\Temp\ccqxjBbT.s:22595  .debug_str:000000000000ed25 .LASF831
C:\Users\SOLDER~1\AppData\Local\Temp\ccqxjBbT.s:26035  .debug_str:000000000001cb41 .LASF832
C:\Users\SOLDER~1\AppData\Local\Temp\ccqxjBbT.s:28677  .debug_str:0000000000027738 .LASF833
C:\Users\SOLDER~1\AppData\Local\Temp\ccqxjBbT.s:24873  .debug_str:0000000000018049 .LASF834
C:\Users\SOLDER~1\AppData\Local\Temp\ccqxjBbT.s:22149  .debug_str:000000000000d009 .LASF835
C:\Users\SOLDER~1\AppData\Local\Temp\ccqxjBbT.s:28187  .debug_str:000000000002561c .LASF836
C:\Users\SOLDER~1\AppData\Local\Temp\ccqxjBbT.s:22777  .debug_str:000000000000f89d .LASF837
C:\Users\SOLDER~1\AppData\Local\Temp\ccqxjBbT.s:29105  .debug_str:00000000000292ca .LASF838
C:\Users\SOLDER~1\AppData\Local\Temp\ccqxjBbT.s:21223  .debug_str:0000000000009353 .LASF839
C:\Users\SOLDER~1\AppData\Local\Temp\ccqxjBbT.s:28997  .debug_str:0000000000028bda .LASF840
C:\Users\SOLDER~1\AppData\Local\Temp\ccqxjBbT.s:29961  .debug_str:000000000002ca9a .LASF841
C:\Users\SOLDER~1\AppData\Local\Temp\ccqxjBbT.s:19919  .debug_str:0000000000003ed3 .LASF842
C:\Users\SOLDER~1\AppData\Local\Temp\ccqxjBbT.s:26983  .debug_str:0000000000020882 .LASF843
C:\Users\SOLDER~1\AppData\Local\Temp\ccqxjBbT.s:23615  .debug_str:0000000000012e99 .LASF844
C:\Users\SOLDER~1\AppData\Local\Temp\ccqxjBbT.s:21837  .debug_str:000000000000baf7 .LASF845
C:\Users\SOLDER~1\AppData\Local\Temp\ccqxjBbT.s:20285  .debug_str:0000000000005562 .LASF846
C:\Users\SOLDER~1\AppData\Local\Temp\ccqxjBbT.s:23207  .debug_str:00000000000114b7 .LASF847
C:\Users\SOLDER~1\AppData\Local\Temp\ccqxjBbT.s:23191  .debug_str:00000000000113a3 .LASF848
C:\Users\SOLDER~1\AppData\Local\Temp\ccqxjBbT.s:25815  .debug_str:000000000001bc3b .LASF849
C:\Users\SOLDER~1\AppData\Local\Temp\ccqxjBbT.s:30327  .debug_str:000000000002e23e .LASF850
C:\Users\SOLDER~1\AppData\Local\Temp\ccqxjBbT.s:29353  .debug_str:000000000002a353 .LASF851
C:\Users\SOLDER~1\AppData\Local\Temp\ccqxjBbT.s:25441  .debug_str:000000000001a46d .LASF852
C:\Users\SOLDER~1\AppData\Local\Temp\ccqxjBbT.s:23381  .debug_str:0000000000011fbe .LASF853
C:\Users\SOLDER~1\AppData\Local\Temp\ccqxjBbT.s:19327  .debug_str:0000000000001862 .LASF854
C:\Users\SOLDER~1\AppData\Local\Temp\ccqxjBbT.s:26453  .debug_str:000000000001e5dc .LASF855
C:\Users\SOLDER~1\AppData\Local\Temp\ccqxjBbT.s:29437  .debug_str:000000000002a88f .LASF856
C:\Users\SOLDER~1\AppData\Local\Temp\ccqxjBbT.s:20257  .debug_str:00000000000053c6 .LASF857
C:\Users\SOLDER~1\AppData\Local\Temp\ccqxjBbT.s:22687  .debug_str:000000000000f2f4 .LASF858
C:\Users\SOLDER~1\AppData\Local\Temp\ccqxjBbT.s:24385  .debug_str:000000000001612e .LASF859
C:\Users\SOLDER~1\AppData\Local\Temp\ccqxjBbT.s:21519  .debug_str:000000000000a6f5 .LASF860
GAS LISTING C:\Users\SOLDER~1\AppData\Local\Temp\ccqxjBbT.s 			page 33


C:\Users\SOLDER~1\AppData\Local\Temp\ccqxjBbT.s:22575  .debug_str:000000000000ebfc .LASF861
C:\Users\SOLDER~1\AppData\Local\Temp\ccqxjBbT.s:26561  .debug_str:000000000001ed2c .LASF862
C:\Users\SOLDER~1\AppData\Local\Temp\ccqxjBbT.s:22609  .debug_str:000000000000ee1a .LASF863
C:\Users\SOLDER~1\AppData\Local\Temp\ccqxjBbT.s:27451  .debug_str:000000000002265f .LASF864
C:\Users\SOLDER~1\AppData\Local\Temp\ccqxjBbT.s:19885  .debug_str:0000000000003c9f .LASF865
C:\Users\SOLDER~1\AppData\Local\Temp\ccqxjBbT.s:21895  .debug_str:000000000000be8a .LASF866
C:\Users\SOLDER~1\AppData\Local\Temp\ccqxjBbT.s:19605  .debug_str:0000000000002ac8 .LASF867
C:\Users\SOLDER~1\AppData\Local\Temp\ccqxjBbT.s:23189  .debug_str:0000000000011390 .LASF868
C:\Users\SOLDER~1\AppData\Local\Temp\ccqxjBbT.s:25515  .debug_str:000000000001a949 .LASF869
C:\Users\SOLDER~1\AppData\Local\Temp\ccqxjBbT.s:23671  .debug_str:000000000001320f .LASF870
C:\Users\SOLDER~1\AppData\Local\Temp\ccqxjBbT.s:27363  .debug_str:00000000000220ae .LASF871
C:\Users\SOLDER~1\AppData\Local\Temp\ccqxjBbT.s:22985  .debug_str:000000000001066c .LASF872
C:\Users\SOLDER~1\AppData\Local\Temp\ccqxjBbT.s:19767  .debug_str:0000000000003516 .LASF873
C:\Users\SOLDER~1\AppData\Local\Temp\ccqxjBbT.s:30365  .debug_str:000000000002e495 .LASF874
C:\Users\SOLDER~1\AppData\Local\Temp\ccqxjBbT.s:20195  .debug_str:0000000000005006 .LASF875
C:\Users\SOLDER~1\AppData\Local\Temp\ccqxjBbT.s:23871  .debug_str:0000000000014028 .LASF876
C:\Users\SOLDER~1\AppData\Local\Temp\ccqxjBbT.s:29867  .debug_str:000000000002c4b6 .LASF877
C:\Users\SOLDER~1\AppData\Local\Temp\ccqxjBbT.s:24365  .debug_str:0000000000015feb .LASF878
C:\Users\SOLDER~1\AppData\Local\Temp\ccqxjBbT.s:30489  .debug_str:000000000002ecda .LASF879
C:\Users\SOLDER~1\AppData\Local\Temp\ccqxjBbT.s:25885  .debug_str:000000000001c0e7 .LASF880
C:\Users\SOLDER~1\AppData\Local\Temp\ccqxjBbT.s:25139  .debug_str:000000000001918a .LASF881
C:\Users\SOLDER~1\AppData\Local\Temp\ccqxjBbT.s:20513  .debug_str:00000000000064ad .LASF882
C:\Users\SOLDER~1\AppData\Local\Temp\ccqxjBbT.s:29053  .debug_str:0000000000028f53 .LASF883
C:\Users\SOLDER~1\AppData\Local\Temp\ccqxjBbT.s:27601  .debug_str:0000000000023039 .LASF884
C:\Users\SOLDER~1\AppData\Local\Temp\ccqxjBbT.s:23149  .debug_str:00000000000110f1 .LASF885
C:\Users\SOLDER~1\AppData\Local\Temp\ccqxjBbT.s:19653  .debug_str:0000000000002dae .LASF886
C:\Users\SOLDER~1\AppData\Local\Temp\ccqxjBbT.s:29545  .debug_str:000000000002af48 .LASF887
C:\Users\SOLDER~1\AppData\Local\Temp\ccqxjBbT.s:20653  .debug_str:0000000000006def .LASF888
C:\Users\SOLDER~1\AppData\Local\Temp\ccqxjBbT.s:20227  .debug_str:0000000000005206 .LASF889
C:\Users\SOLDER~1\AppData\Local\Temp\ccqxjBbT.s:19863  .debug_str:0000000000003b48 .LASF890
C:\Users\SOLDER~1\AppData\Local\Temp\ccqxjBbT.s:22919  .debug_str:0000000000010203 .LASF891
C:\Users\SOLDER~1\AppData\Local\Temp\ccqxjBbT.s:26329  .debug_str:000000000001ddf6 .LASF892
C:\Users\SOLDER~1\AppData\Local\Temp\ccqxjBbT.s:25411  .debug_str:000000000001a270 .LASF893
C:\Users\SOLDER~1\AppData\Local\Temp\ccqxjBbT.s:21529  .debug_str:000000000000a7ae .LASF894
C:\Users\SOLDER~1\AppData\Local\Temp\ccqxjBbT.s:23081  .debug_str:0000000000010c7a .LASF895
C:\Users\SOLDER~1\AppData\Local\Temp\ccqxjBbT.s:29209  .debug_str:0000000000029973 .LASF896
C:\Users\SOLDER~1\AppData\Local\Temp\ccqxjBbT.s:19031  .debug_str:0000000000000512 .LASF897
C:\Users\SOLDER~1\AppData\Local\Temp\ccqxjBbT.s:29721  .debug_str:000000000002bad5 .LASF898
C:\Users\SOLDER~1\AppData\Local\Temp\ccqxjBbT.s:29639  .debug_str:000000000002b589 .LASF899
C:\Users\SOLDER~1\AppData\Local\Temp\ccqxjBbT.s:27615  .debug_str:0000000000023133 .LASF900
C:\Users\SOLDER~1\AppData\Local\Temp\ccqxjBbT.s:29225  .debug_str:0000000000029a89 .LASF901
C:\Users\SOLDER~1\AppData\Local\Temp\ccqxjBbT.s:26491  .debug_str:000000000001e895 .LASF902
C:\Users\SOLDER~1\AppData\Local\Temp\ccqxjBbT.s:28799  .debug_str:0000000000027f2d .LASF903
C:\Users\SOLDER~1\AppData\Local\Temp\ccqxjBbT.s:20577  .debug_str:000000000000691c .LASF904
C:\Users\SOLDER~1\AppData\Local\Temp\ccqxjBbT.s:19049  .debug_str:000000000000064f .LASF905
C:\Users\SOLDER~1\AppData\Local\Temp\ccqxjBbT.s:20509  .debug_str:0000000000006467 .LASF906
C:\Users\SOLDER~1\AppData\Local\Temp\ccqxjBbT.s:24901  .debug_str:0000000000018237 .LASF907
C:\Users\SOLDER~1\AppData\Local\Temp\ccqxjBbT.s:26777  .debug_str:000000000001fb4f .LASF908
C:\Users\SOLDER~1\AppData\Local\Temp\ccqxjBbT.s:20729  .debug_str:0000000000007319 .LASF909
C:\Users\SOLDER~1\AppData\Local\Temp\ccqxjBbT.s:19775  .debug_str:0000000000003589 .LASF910
C:\Users\SOLDER~1\AppData\Local\Temp\ccqxjBbT.s:21861  .debug_str:000000000000bc7d .LASF911
C:\Users\SOLDER~1\AppData\Local\Temp\ccqxjBbT.s:20007  .debug_str:0000000000004453 .LASF912
C:\Users\SOLDER~1\AppData\Local\Temp\ccqxjBbT.s:20779  .debug_str:000000000000762b .LASF913
C:\Users\SOLDER~1\AppData\Local\Temp\ccqxjBbT.s:27791  .debug_str:0000000000023c92 .LASF914
C:\Users\SOLDER~1\AppData\Local\Temp\ccqxjBbT.s:24679  .debug_str:00000000000173ba .LASF915
C:\Users\SOLDER~1\AppData\Local\Temp\ccqxjBbT.s:23755  .debug_str:00000000000137fb .LASF916
C:\Users\SOLDER~1\AppData\Local\Temp\ccqxjBbT.s:26363  .debug_str:000000000001e027 .LASF917
GAS LISTING C:\Users\SOLDER~1\AppData\Local\Temp\ccqxjBbT.s 			page 34


C:\Users\SOLDER~1\AppData\Local\Temp\ccqxjBbT.s:20269  .debug_str:000000000000547b .LASF918
C:\Users\SOLDER~1\AppData\Local\Temp\ccqxjBbT.s:29405  .debug_str:000000000002a6c1 .LASF919
C:\Users\SOLDER~1\AppData\Local\Temp\ccqxjBbT.s:19565  .debug_str:000000000000281f .LASF920
C:\Users\SOLDER~1\AppData\Local\Temp\ccqxjBbT.s:30019  .debug_str:000000000002ce5b .LASF921
C:\Users\SOLDER~1\AppData\Local\Temp\ccqxjBbT.s:24817  .debug_str:0000000000017ca2 .LASF922
C:\Users\SOLDER~1\AppData\Local\Temp\ccqxjBbT.s:20073  .debug_str:0000000000004899 .LASF923
C:\Users\SOLDER~1\AppData\Local\Temp\ccqxjBbT.s:26693  .debug_str:000000000001f635 .LASF924
C:\Users\SOLDER~1\AppData\Local\Temp\ccqxjBbT.s:25525  .debug_str:000000000001a9d2 .LASF925
C:\Users\SOLDER~1\AppData\Local\Temp\ccqxjBbT.s:27239  .debug_str:0000000000021919 .LASF926
C:\Users\SOLDER~1\AppData\Local\Temp\ccqxjBbT.s:22753  .debug_str:000000000000f710 .LASF927
C:\Users\SOLDER~1\AppData\Local\Temp\ccqxjBbT.s:19351  .debug_str:00000000000019fa .LASF928
C:\Users\SOLDER~1\AppData\Local\Temp\ccqxjBbT.s:29081  .debug_str:0000000000029146 .LASF929
C:\Users\SOLDER~1\AppData\Local\Temp\ccqxjBbT.s:29391  .debug_str:000000000002a5ce .LASF930
C:\Users\SOLDER~1\AppData\Local\Temp\ccqxjBbT.s:20149  .debug_str:0000000000004d4d .LASF931
C:\Users\SOLDER~1\AppData\Local\Temp\ccqxjBbT.s:20575  .debug_str:00000000000068fc .LASF932
C:\Users\SOLDER~1\AppData\Local\Temp\ccqxjBbT.s:21439  .debug_str:000000000000a16e .LASF933
C:\Users\SOLDER~1\AppData\Local\Temp\ccqxjBbT.s:25961  .debug_str:000000000001c631 .LASF934
C:\Users\SOLDER~1\AppData\Local\Temp\ccqxjBbT.s:25063  .debug_str:0000000000018c85 .LASF935
C:\Users\SOLDER~1\AppData\Local\Temp\ccqxjBbT.s:26475  .debug_str:000000000001e771 .LASF936
C:\Users\SOLDER~1\AppData\Local\Temp\ccqxjBbT.s:19291  .debug_str:000000000000161f .LASF937
C:\Users\SOLDER~1\AppData\Local\Temp\ccqxjBbT.s:20647  .debug_str:0000000000006d76 .LASF938
C:\Users\SOLDER~1\AppData\Local\Temp\ccqxjBbT.s:19207  .debug_str:00000000000010ba .LASF939
C:\Users\SOLDER~1\AppData\Local\Temp\ccqxjBbT.s:22427  .debug_str:000000000000e25e .LASF940
C:\Users\SOLDER~1\AppData\Local\Temp\ccqxjBbT.s:29273  .debug_str:0000000000029de3 .LASF941
C:\Users\SOLDER~1\AppData\Local\Temp\ccqxjBbT.s:27255  .debug_str:0000000000021a15 .LASF942
C:\Users\SOLDER~1\AppData\Local\Temp\ccqxjBbT.s:28835  .debug_str:00000000000281b2 .LASF943
C:\Users\SOLDER~1\AppData\Local\Temp\ccqxjBbT.s:26117  .debug_str:000000000001d00e .LASF944
C:\Users\SOLDER~1\AppData\Local\Temp\ccqxjBbT.s:29115  .debug_str:000000000002937b .LASF945
C:\Users\SOLDER~1\AppData\Local\Temp\ccqxjBbT.s:21263  .debug_str:0000000000009606 .LASF946
C:\Users\SOLDER~1\AppData\Local\Temp\ccqxjBbT.s:29257  .debug_str:0000000000029cc0 .LASF947
C:\Users\SOLDER~1\AppData\Local\Temp\ccqxjBbT.s:22633  .debug_str:000000000000efb4 .LASF948
C:\Users\SOLDER~1\AppData\Local\Temp\ccqxjBbT.s:28167  .debug_str:00000000000254ce .LASF949
C:\Users\SOLDER~1\AppData\Local\Temp\ccqxjBbT.s:19789  .debug_str:0000000000003661 .LASF950
C:\Users\SOLDER~1\AppData\Local\Temp\ccqxjBbT.s:22475  .debug_str:000000000000e590 .LASF951
C:\Users\SOLDER~1\AppData\Local\Temp\ccqxjBbT.s:29425  .debug_str:000000000002a7dc .LASF952
C:\Users\SOLDER~1\AppData\Local\Temp\ccqxjBbT.s:28245  .debug_str:0000000000025a3f .LASF953
C:\Users\SOLDER~1\AppData\Local\Temp\ccqxjBbT.s:25707  .debug_str:000000000001b5a3 .LASF954
C:\Users\SOLDER~1\AppData\Local\Temp\ccqxjBbT.s:21333  .debug_str:0000000000009a87 .LASF955
C:\Users\SOLDER~1\AppData\Local\Temp\ccqxjBbT.s:22445  .debug_str:000000000000e3a6 .LASF956
C:\Users\SOLDER~1\AppData\Local\Temp\ccqxjBbT.s:22799  .debug_str:000000000000fa35 .LASF957
C:\Users\SOLDER~1\AppData\Local\Temp\ccqxjBbT.s:30101  .debug_str:000000000002d3ef .LASF958
C:\Users\SOLDER~1\AppData\Local\Temp\ccqxjBbT.s:22299  .debug_str:000000000000d9f6 .LASF959
C:\Users\SOLDER~1\AppData\Local\Temp\ccqxjBbT.s:24715  .debug_str:0000000000017622 .LASF960
C:\Users\SOLDER~1\AppData\Local\Temp\ccqxjBbT.s:25239  .debug_str:0000000000019829 .LASF961
C:\Users\SOLDER~1\AppData\Local\Temp\ccqxjBbT.s:25091  .debug_str:0000000000018e81 .LASF962
C:\Users\SOLDER~1\AppData\Local\Temp\ccqxjBbT.s:24569  .debug_str:0000000000016c97 .LASF963
C:\Users\SOLDER~1\AppData\Local\Temp\ccqxjBbT.s:22659  .debug_str:000000000000f143 .LASF964
C:\Users\SOLDER~1\AppData\Local\Temp\ccqxjBbT.s:20113  .debug_str:0000000000004af0 .LASF965
C:\Users\SOLDER~1\AppData\Local\Temp\ccqxjBbT.s:20341  .debug_str:000000000000594b .LASF966
C:\Users\SOLDER~1\AppData\Local\Temp\ccqxjBbT.s:27193  .debug_str:0000000000021636 .LASF967
C:\Users\SOLDER~1\AppData\Local\Temp\ccqxjBbT.s:29549  .debug_str:000000000002af92 .LASF968
C:\Users\SOLDER~1\AppData\Local\Temp\ccqxjBbT.s:22731  .debug_str:000000000000f59e .LASF969
C:\Users\SOLDER~1\AppData\Local\Temp\ccqxjBbT.s:27135  .debug_str:000000000002127a .LASF970
C:\Users\SOLDER~1\AppData\Local\Temp\ccqxjBbT.s:29831  .debug_str:000000000002c298 .LASF971
C:\Users\SOLDER~1\AppData\Local\Temp\ccqxjBbT.s:24819  .debug_str:0000000000017cc4 .LASF972
C:\Users\SOLDER~1\AppData\Local\Temp\ccqxjBbT.s:24609  .debug_str:0000000000016ef9 .LASF973
C:\Users\SOLDER~1\AppData\Local\Temp\ccqxjBbT.s:22365  .debug_str:000000000000ddfd .LASF974
GAS LISTING C:\Users\SOLDER~1\AppData\Local\Temp\ccqxjBbT.s 			page 35


C:\Users\SOLDER~1\AppData\Local\Temp\ccqxjBbT.s:20931  .debug_str:0000000000008009 .LASF975
C:\Users\SOLDER~1\AppData\Local\Temp\ccqxjBbT.s:19963  .debug_str:00000000000041a4 .LASF976
C:\Users\SOLDER~1\AppData\Local\Temp\ccqxjBbT.s:27989  .debug_str:0000000000024978 .LASF977
C:\Users\SOLDER~1\AppData\Local\Temp\ccqxjBbT.s:29181  .debug_str:00000000000297cb .LASF978
C:\Users\SOLDER~1\AppData\Local\Temp\ccqxjBbT.s:22139  .debug_str:000000000000cf6e .LASF979
C:\Users\SOLDER~1\AppData\Local\Temp\ccqxjBbT.s:23231  .debug_str:0000000000011681 .LASF980
C:\Users\SOLDER~1\AppData\Local\Temp\ccqxjBbT.s:22763  .debug_str:000000000000f7a8 .LASF981
C:\Users\SOLDER~1\AppData\Local\Temp\ccqxjBbT.s:23649  .debug_str:00000000000130cf .LASF982
C:\Users\SOLDER~1\AppData\Local\Temp\ccqxjBbT.s:29953  .debug_str:000000000002ca31 .LASF983
C:\Users\SOLDER~1\AppData\Local\Temp\ccqxjBbT.s:30015  .debug_str:000000000002ce19 .LASF984
C:\Users\SOLDER~1\AppData\Local\Temp\ccqxjBbT.s:25469  .debug_str:000000000001a630 .LASF985
C:\Users\SOLDER~1\AppData\Local\Temp\ccqxjBbT.s:27583  .debug_str:0000000000022efd .LASF986
C:\Users\SOLDER~1\AppData\Local\Temp\ccqxjBbT.s:20959  .debug_str:00000000000081e9 .LASF987
C:\Users\SOLDER~1\AppData\Local\Temp\ccqxjBbT.s:25247  .debug_str:000000000001987a .LASF988
C:\Users\SOLDER~1\AppData\Local\Temp\ccqxjBbT.s:28015  .debug_str:0000000000024b4e .LASF989
C:\Users\SOLDER~1\AppData\Local\Temp\ccqxjBbT.s:22945  .debug_str:00000000000103ce .LASF990
C:\Users\SOLDER~1\AppData\Local\Temp\ccqxjBbT.s:23577  .debug_str:0000000000012c00 .LASF991
C:\Users\SOLDER~1\AppData\Local\Temp\ccqxjBbT.s:20523  .debug_str:000000000000654f .LASF992
C:\Users\SOLDER~1\AppData\Local\Temp\ccqxjBbT.s:24111  .debug_str:000000000001503e .LASF993
C:\Users\SOLDER~1\AppData\Local\Temp\ccqxjBbT.s:29729  .debug_str:000000000002bb5e .LASF994
C:\Users\SOLDER~1\AppData\Local\Temp\ccqxjBbT.s:26249  .debug_str:000000000001d8b2 .LASF995
C:\Users\SOLDER~1\AppData\Local\Temp\ccqxjBbT.s:20399  .debug_str:0000000000005d05 .LASF996
C:\Users\SOLDER~1\AppData\Local\Temp\ccqxjBbT.s:21751  .debug_str:000000000000b5f4 .LASF997
C:\Users\SOLDER~1\AppData\Local\Temp\ccqxjBbT.s:24991  .debug_str:00000000000187cc .LASF998
C:\Users\SOLDER~1\AppData\Local\Temp\ccqxjBbT.s:28843  .debug_str:000000000002822d .LASF999
C:\Users\SOLDER~1\AppData\Local\Temp\ccqxjBbT.s:26057  .debug_str:000000000001cc95 .LASF1000
C:\Users\SOLDER~1\AppData\Local\Temp\ccqxjBbT.s:24403  .debug_str:0000000000016260 .LASF1001
C:\Users\SOLDER~1\AppData\Local\Temp\ccqxjBbT.s:23033  .debug_str:0000000000010973 .LASF1002
C:\Users\SOLDER~1\AppData\Local\Temp\ccqxjBbT.s:19873  .debug_str:0000000000003be4 .LASF1003
C:\Users\SOLDER~1\AppData\Local\Temp\ccqxjBbT.s:21273  .debug_str:0000000000009685 .LASF1004
C:\Users\SOLDER~1\AppData\Local\Temp\ccqxjBbT.s:27043  .debug_str:0000000000020c5d .LASF1005
C:\Users\SOLDER~1\AppData\Local\Temp\ccqxjBbT.s:30485  .debug_str:000000000002ec92 .LASF1006
C:\Users\SOLDER~1\AppData\Local\Temp\ccqxjBbT.s:22567  .debug_str:000000000000eb8e .LASF1007
C:\Users\SOLDER~1\AppData\Local\Temp\ccqxjBbT.s:28043  .debug_str:0000000000024d14 .LASF1008
C:\Users\SOLDER~1\AppData\Local\Temp\ccqxjBbT.s:29679  .debug_str:000000000002b841 .LASF1009
C:\Users\SOLDER~1\AppData\Local\Temp\ccqxjBbT.s:25791  .debug_str:000000000001bac0 .LASF1010
C:\Users\SOLDER~1\AppData\Local\Temp\ccqxjBbT.s:25205  .debug_str:00000000000195eb .LASF1011
C:\Users\SOLDER~1\AppData\Local\Temp\ccqxjBbT.s:23403  .debug_str:0000000000012133 .LASF1012
C:\Users\SOLDER~1\AppData\Local\Temp\ccqxjBbT.s:20683  .debug_str:000000000000701b .LASF1013
C:\Users\SOLDER~1\AppData\Local\Temp\ccqxjBbT.s:20987  .debug_str:000000000000839e .LASF1014
C:\Users\SOLDER~1\AppData\Local\Temp\ccqxjBbT.s:27835  .debug_str:0000000000023f61 .LASF1015
C:\Users\SOLDER~1\AppData\Local\Temp\ccqxjBbT.s:30193  .debug_str:000000000002d9c2 .LASF1016
C:\Users\SOLDER~1\AppData\Local\Temp\ccqxjBbT.s:23395  .debug_str:00000000000120af .LASF1017
C:\Users\SOLDER~1\AppData\Local\Temp\ccqxjBbT.s:28421  .debug_str:0000000000026633 .LASF1018
C:\Users\SOLDER~1\AppData\Local\Temp\ccqxjBbT.s:30479  .debug_str:000000000002ec39 .LASF1019
C:\Users\SOLDER~1\AppData\Local\Temp\ccqxjBbT.s:28901  .debug_str:00000000000285be .LASF1020
C:\Users\SOLDER~1\AppData\Local\Temp\ccqxjBbT.s:25973  .debug_str:000000000001c715 .LASF1021
C:\Users\SOLDER~1\AppData\Local\Temp\ccqxjBbT.s:26523  .debug_str:000000000001eac4 .LASF1022
C:\Users\SOLDER~1\AppData\Local\Temp\ccqxjBbT.s:21463  .debug_str:000000000000a311 .LASF1023
C:\Users\SOLDER~1\AppData\Local\Temp\ccqxjBbT.s:24155  .debug_str:00000000000152d5 .LASF1024
C:\Users\SOLDER~1\AppData\Local\Temp\ccqxjBbT.s:28559  .debug_str:0000000000026f7d .LASF1025
C:\Users\SOLDER~1\AppData\Local\Temp\ccqxjBbT.s:21723  .debug_str:000000000000b3ff .LASF1026
C:\Users\SOLDER~1\AppData\Local\Temp\ccqxjBbT.s:23369  .debug_str:0000000000011f19 .LASF1027
C:\Users\SOLDER~1\AppData\Local\Temp\ccqxjBbT.s:25435  .debug_str:000000000001a41c .LASF1028
C:\Users\SOLDER~1\AppData\Local\Temp\ccqxjBbT.s:19689  .debug_str:0000000000003020 .LASF1029
C:\Users\SOLDER~1\AppData\Local\Temp\ccqxjBbT.s:28609  .debug_str:00000000000272a3 .LASF1030
C:\Users\SOLDER~1\AppData\Local\Temp\ccqxjBbT.s:27571  .debug_str:0000000000022e59 .LASF1031
GAS LISTING C:\Users\SOLDER~1\AppData\Local\Temp\ccqxjBbT.s 			page 36


C:\Users\SOLDER~1\AppData\Local\Temp\ccqxjBbT.s:26227  .debug_str:000000000001d75f .LASF1032
C:\Users\SOLDER~1\AppData\Local\Temp\ccqxjBbT.s:22279  .debug_str:000000000000d8c5 .LASF1033
C:\Users\SOLDER~1\AppData\Local\Temp\ccqxjBbT.s:23879  .debug_str:00000000000140ba .LASF1034
C:\Users\SOLDER~1\AppData\Local\Temp\ccqxjBbT.s:29385  .debug_str:000000000002a555 .LASF1035
C:\Users\SOLDER~1\AppData\Local\Temp\ccqxjBbT.s:21435  .debug_str:000000000000a12a .LASF1036
C:\Users\SOLDER~1\AppData\Local\Temp\ccqxjBbT.s:21029  .debug_str:0000000000008637 .LASF1037
C:\Users\SOLDER~1\AppData\Local\Temp\ccqxjBbT.s:19077  .debug_str:00000000000008a9 .LASF1038
C:\Users\SOLDER~1\AppData\Local\Temp\ccqxjBbT.s:20387  .debug_str:0000000000005c2f .LASF1039
C:\Users\SOLDER~1\AppData\Local\Temp\ccqxjBbT.s:20175  .debug_str:0000000000004ece .LASF1040
C:\Users\SOLDER~1\AppData\Local\Temp\ccqxjBbT.s:27455  .debug_str:0000000000022699 .LASF1041
C:\Users\SOLDER~1\AppData\Local\Temp\ccqxjBbT.s:29369  .debug_str:000000000002a452 .LASF1042
C:\Users\SOLDER~1\AppData\Local\Temp\ccqxjBbT.s:23119  .debug_str:0000000000010efb .LASF1043
C:\Users\SOLDER~1\AppData\Local\Temp\ccqxjBbT.s:26963  .debug_str:0000000000020746 .LASF1044
C:\Users\SOLDER~1\AppData\Local\Temp\ccqxjBbT.s:27961  .debug_str:00000000000247ac .LASF1045
C:\Users\SOLDER~1\AppData\Local\Temp\ccqxjBbT.s:21327  .debug_str:0000000000009a2f .LASF1046
C:\Users\SOLDER~1\AppData\Local\Temp\ccqxjBbT.s:20097  .debug_str:0000000000004a08 .LASF1047
C:\Users\SOLDER~1\AppData\Local\Temp\ccqxjBbT.s:22971  .debug_str:000000000001059a .LASF1048
C:\Users\SOLDER~1\AppData\Local\Temp\ccqxjBbT.s:29031  .debug_str:0000000000028e16 .LASF1049
C:\Users\SOLDER~1\AppData\Local\Temp\ccqxjBbT.s:26765  .debug_str:000000000001fa80 .LASF1050
C:\Users\SOLDER~1\AppData\Local\Temp\ccqxjBbT.s:24319  .debug_str:0000000000015d25 .LASF1051
C:\Users\SOLDER~1\AppData\Local\Temp\ccqxjBbT.s:19883  .debug_str:0000000000003c83 .LASF1052
C:\Users\SOLDER~1\AppData\Local\Temp\ccqxjBbT.s:28453  .debug_str:0000000000026873 .LASF1053
C:\Users\SOLDER~1\AppData\Local\Temp\ccqxjBbT.s:20479  .debug_str:0000000000006270 .LASF1054
C:\Users\SOLDER~1\AppData\Local\Temp\ccqxjBbT.s:24683  .debug_str:0000000000017400 .LASF1055
C:\Users\SOLDER~1\AppData\Local\Temp\ccqxjBbT.s:23379  .debug_str:0000000000011fa5 .LASF1056
C:\Users\SOLDER~1\AppData\Local\Temp\ccqxjBbT.s:26049  .debug_str:000000000001cc22 .LASF1057
C:\Users\SOLDER~1\AppData\Local\Temp\ccqxjBbT.s:28441  .debug_str:00000000000267ac .LASF1058
C:\Users\SOLDER~1\AppData\Local\Temp\ccqxjBbT.s:22551  .debug_str:000000000000ea8a .LASF1059
C:\Users\SOLDER~1\AppData\Local\Temp\ccqxjBbT.s:25875  .debug_str:000000000001c04a .LASF1060
C:\Users\SOLDER~1\AppData\Local\Temp\ccqxjBbT.s:20181  .debug_str:0000000000004f25 .LASF1061
C:\Users\SOLDER~1\AppData\Local\Temp\ccqxjBbT.s:27147  .debug_str:0000000000021336 .LASF1062
C:\Users\SOLDER~1\AppData\Local\Temp\ccqxjBbT.s:27235  .debug_str:00000000000218d1 .LASF1063
C:\Users\SOLDER~1\AppData\Local\Temp\ccqxjBbT.s:26209  .debug_str:000000000001d64c .LASF1064
C:\Users\SOLDER~1\AppData\Local\Temp\ccqxjBbT.s:29235  .debug_str:0000000000029b3b .LASF1065
C:\Users\SOLDER~1\AppData\Local\Temp\ccqxjBbT.s:27157  .debug_str:00000000000213d4 .LASF1066
C:\Users\SOLDER~1\AppData\Local\Temp\ccqxjBbT.s:26923  .debug_str:00000000000204aa .LASF1067
C:\Users\SOLDER~1\AppData\Local\Temp\ccqxjBbT.s:30139  .debug_str:000000000002d642 .LASF1068
C:\Users\SOLDER~1\AppData\Local\Temp\ccqxjBbT.s:20545  .debug_str:00000000000066e5 .LASF1069
C:\Users\SOLDER~1\AppData\Local\Temp\ccqxjBbT.s:22875  .debug_str:000000000000ff55 .LASF1070
C:\Users\SOLDER~1\AppData\Local\Temp\ccqxjBbT.s:27563  .debug_str:0000000000022dd6 .LASF1071
C:\Users\SOLDER~1\AppData\Local\Temp\ccqxjBbT.s:27585  .debug_str:0000000000022f1e .LASF1072
C:\Users\SOLDER~1\AppData\Local\Temp\ccqxjBbT.s:22281  .debug_str:000000000000d8dc .LASF1073
C:\Users\SOLDER~1\AppData\Local\Temp\ccqxjBbT.s:20083  .debug_str:0000000000004940 .LASF1074
C:\Users\SOLDER~1\AppData\Local\Temp\ccqxjBbT.s:23113  .debug_str:0000000000010e90 .LASF1075
C:\Users\SOLDER~1\AppData\Local\Temp\ccqxjBbT.s:27439  .debug_str:0000000000022582 .LASF1076
C:\Users\SOLDER~1\AppData\Local\Temp\ccqxjBbT.s:26125  .debug_str:000000000001d0a6 .LASF1077
C:\Users\SOLDER~1\AppData\Local\Temp\ccqxjBbT.s:23093  .debug_str:0000000000010d38 .LASF1078
C:\Users\SOLDER~1\AppData\Local\Temp\ccqxjBbT.s:27683  .debug_str:00000000000235b5 .LASF1079
C:\Users\SOLDER~1\AppData\Local\Temp\ccqxjBbT.s:19095  .debug_str:0000000000000a16 .LASF1080
C:\Users\SOLDER~1\AppData\Local\Temp\ccqxjBbT.s:25389  .debug_str:000000000001a124 .LASF1081
C:\Users\SOLDER~1\AppData\Local\Temp\ccqxjBbT.s:23899  .debug_str:00000000000141f7 .LASF1082
C:\Users\SOLDER~1\AppData\Local\Temp\ccqxjBbT.s:22075  .debug_str:000000000000cb1d .LASF1083
C:\Users\SOLDER~1\AppData\Local\Temp\ccqxjBbT.s:19551  .debug_str:000000000000273d .LASF1084
C:\Users\SOLDER~1\AppData\Local\Temp\ccqxjBbT.s:28141  .debug_str:000000000002533e .LASF1085
C:\Users\SOLDER~1\AppData\Local\Temp\ccqxjBbT.s:21149  .debug_str:0000000000008e31 .LASF1086
C:\Users\SOLDER~1\AppData\Local\Temp\ccqxjBbT.s:23551  .debug_str:0000000000012a27 .LASF1087
C:\Users\SOLDER~1\AppData\Local\Temp\ccqxjBbT.s:26999  .debug_str:000000000002098d .LASF1088
GAS LISTING C:\Users\SOLDER~1\AppData\Local\Temp\ccqxjBbT.s 			page 37


C:\Users\SOLDER~1\AppData\Local\Temp\ccqxjBbT.s:26455  .debug_str:000000000001e5fc .LASF1089
C:\Users\SOLDER~1\AppData\Local\Temp\ccqxjBbT.s:23147  .debug_str:00000000000110c9 .LASF1090
C:\Users\SOLDER~1\AppData\Local\Temp\ccqxjBbT.s:20391  .debug_str:0000000000005c6b .LASF1091
C:\Users\SOLDER~1\AppData\Local\Temp\ccqxjBbT.s:27547  .debug_str:0000000000022cc7 .LASF1092
C:\Users\SOLDER~1\AppData\Local\Temp\ccqxjBbT.s:29313  .debug_str:000000000002a07a .LASF1093
C:\Users\SOLDER~1\AppData\Local\Temp\ccqxjBbT.s:27139  .debug_str:00000000000212b0 .LASF1094
C:\Users\SOLDER~1\AppData\Local\Temp\ccqxjBbT.s:20361  .debug_str:0000000000005a8f .LASF1095
C:\Users\SOLDER~1\AppData\Local\Temp\ccqxjBbT.s:28463  .debug_str:000000000002690c .LASF1096
C:\Users\SOLDER~1\AppData\Local\Temp\ccqxjBbT.s:26297  .debug_str:000000000001dbaf .LASF1097
C:\Users\SOLDER~1\AppData\Local\Temp\ccqxjBbT.s:20723  .debug_str:00000000000072ad .LASF1098
C:\Users\SOLDER~1\AppData\Local\Temp\ccqxjBbT.s:24839  .debug_str:0000000000017dda .LASF1099
C:\Users\SOLDER~1\AppData\Local\Temp\ccqxjBbT.s:22249  .debug_str:000000000000d6ae .LASF1100
C:\Users\SOLDER~1\AppData\Local\Temp\ccqxjBbT.s:19307  .debug_str:000000000000173d .LASF1101
C:\Users\SOLDER~1\AppData\Local\Temp\ccqxjBbT.s:20449  .debug_str:000000000000603e .LASF1102
C:\Users\SOLDER~1\AppData\Local\Temp\ccqxjBbT.s:27569  .debug_str:0000000000022e32 .LASF1103
C:\Users\SOLDER~1\AppData\Local\Temp\ccqxjBbT.s:26867  .debug_str:00000000000200fa .LASF1104
C:\Users\SOLDER~1\AppData\Local\Temp\ccqxjBbT.s:20685  .debug_str:0000000000007032 .LASF1105
C:\Users\SOLDER~1\AppData\Local\Temp\ccqxjBbT.s:24165  .debug_str:0000000000015399 .LASF1106
C:\Users\SOLDER~1\AppData\Local\Temp\ccqxjBbT.s:27815  .debug_str:0000000000023e1f .LASF1107
C:\Users\SOLDER~1\AppData\Local\Temp\ccqxjBbT.s:29509  .debug_str:000000000002ad18 .LASF1108
C:\Users\SOLDER~1\AppData\Local\Temp\ccqxjBbT.s:19161  .debug_str:0000000000000e8b .LASF1109
C:\Users\SOLDER~1\AppData\Local\Temp\ccqxjBbT.s:19275  .debug_str:000000000000152d .LASF1110
C:\Users\SOLDER~1\AppData\Local\Temp\ccqxjBbT.s:26797  .debug_str:000000000001fc8c .LASF1111
C:\Users\SOLDER~1\AppData\Local\Temp\ccqxjBbT.s:20335  .debug_str:00000000000058df .LASF1112
C:\Users\SOLDER~1\AppData\Local\Temp\ccqxjBbT.s:21879  .debug_str:000000000000bd8a .LASF1113
C:\Users\SOLDER~1\AppData\Local\Temp\ccqxjBbT.s:19345  .debug_str:0000000000001997 .LASF1114
C:\Users\SOLDER~1\AppData\Local\Temp\ccqxjBbT.s:26881  .debug_str:00000000000201d7 .LASF1115
C:\Users\SOLDER~1\AppData\Local\Temp\ccqxjBbT.s:20423  .debug_str:0000000000005e74 .LASF1116
C:\Users\SOLDER~1\AppData\Local\Temp\ccqxjBbT.s:20929  .debug_str:0000000000007fe1 .LASF1117
C:\Users\SOLDER~1\AppData\Local\Temp\ccqxjBbT.s:21415  .debug_str:0000000000009fec .LASF1118
C:\Users\SOLDER~1\AppData\Local\Temp\ccqxjBbT.s:21851  .debug_str:000000000000bbd9 .LASF1119
C:\Users\SOLDER~1\AppData\Local\Temp\ccqxjBbT.s:28811  .debug_str:0000000000027ff2 .LASF1120
C:\Users\SOLDER~1\AppData\Local\Temp\ccqxjBbT.s:21071  .debug_str:00000000000088d5 .LASF1121
C:\Users\SOLDER~1\AppData\Local\Temp\ccqxjBbT.s:28529  .debug_str:0000000000026d41 .LASF1122
C:\Users\SOLDER~1\AppData\Local\Temp\ccqxjBbT.s:29987  .debug_str:000000000002cc3a .LASF1123
C:\Users\SOLDER~1\AppData\Local\Temp\ccqxjBbT.s:29471  .debug_str:000000000002aaa2 .LASF1124
C:\Users\SOLDER~1\AppData\Local\Temp\ccqxjBbT.s:23817  .debug_str:0000000000013c69 .LASF1125
C:\Users\SOLDER~1\AppData\Local\Temp\ccqxjBbT.s:20101  .debug_str:0000000000004a25 .LASF1126
C:\Users\SOLDER~1\AppData\Local\Temp\ccqxjBbT.s:26343  .debug_str:000000000001def1 .LASF1127
C:\Users\SOLDER~1\AppData\Local\Temp\ccqxjBbT.s:21189  .debug_str:00000000000090f6 .LASF1128
C:\Users\SOLDER~1\AppData\Local\Temp\ccqxjBbT.s:29645  .debug_str:000000000002b603 .LASF1129
C:\Users\SOLDER~1\AppData\Local\Temp\ccqxjBbT.s:24059  .debug_str:0000000000014ceb .LASF1130
C:\Users\SOLDER~1\AppData\Local\Temp\ccqxjBbT.s:21737  .debug_str:000000000000b50c .LASF1131
C:\Users\SOLDER~1\AppData\Local\Temp\ccqxjBbT.s:30169  .debug_str:000000000002d847 .LASF1132
C:\Users\SOLDER~1\AppData\Local\Temp\ccqxjBbT.s:28277  .debug_str:0000000000025c5f .LASF1133
C:\Users\SOLDER~1\AppData\Local\Temp\ccqxjBbT.s:27331  .debug_str:0000000000021ec9 .LASF1134
C:\Users\SOLDER~1\AppData\Local\Temp\ccqxjBbT.s:25017  .debug_str:0000000000018975 .LASF1135
C:\Users\SOLDER~1\AppData\Local\Temp\ccqxjBbT.s:25613  .debug_str:000000000001afcd .LASF1136
C:\Users\SOLDER~1\AppData\Local\Temp\ccqxjBbT.s:21083  .debug_str:00000000000089c8 .LASF1137
C:\Users\SOLDER~1\AppData\Local\Temp\ccqxjBbT.s:26643  .debug_str:000000000001f2a2 .LASF1138
C:\Users\SOLDER~1\AppData\Local\Temp\ccqxjBbT.s:21655  .debug_str:000000000000affd .LASF1139
C:\Users\SOLDER~1\AppData\Local\Temp\ccqxjBbT.s:24671  .debug_str:0000000000017333 .LASF1140
C:\Users\SOLDER~1\AppData\Local\Temp\ccqxjBbT.s:24057  .debug_str:0000000000014cc6 .LASF1141
C:\Users\SOLDER~1\AppData\Local\Temp\ccqxjBbT.s:24681  .debug_str:00000000000173db .LASF1142
C:\Users\SOLDER~1\AppData\Local\Temp\ccqxjBbT.s:28715  .debug_str:0000000000027987 .LASF1143
C:\Users\SOLDER~1\AppData\Local\Temp\ccqxjBbT.s:26581  .debug_str:000000000001ee6f .LASF1144
C:\Users\SOLDER~1\AppData\Local\Temp\ccqxjBbT.s:27877  .debug_str:0000000000024219 .LASF1145
GAS LISTING C:\Users\SOLDER~1\AppData\Local\Temp\ccqxjBbT.s 			page 38


C:\Users\SOLDER~1\AppData\Local\Temp\ccqxjBbT.s:19495  .debug_str:0000000000002396 .LASF1146
C:\Users\SOLDER~1\AppData\Local\Temp\ccqxjBbT.s:28143  .debug_str:0000000000025366 .LASF1147
C:\Users\SOLDER~1\AppData\Local\Temp\ccqxjBbT.s:27449  .debug_str:0000000000022639 .LASF1148
C:\Users\SOLDER~1\AppData\Local\Temp\ccqxjBbT.s:25979  .debug_str:000000000001c76e .LASF1149
C:\Users\SOLDER~1\AppData\Local\Temp\ccqxjBbT.s:29737  .debug_str:000000000002bbeb .LASF1150
C:\Users\SOLDER~1\AppData\Local\Temp\ccqxjBbT.s:26473  .debug_str:000000000001e74a .LASF1151
C:\Users\SOLDER~1\AppData\Local\Temp\ccqxjBbT.s:26233  .debug_str:000000000001d7cb .LASF1152
C:\Users\SOLDER~1\AppData\Local\Temp\ccqxjBbT.s:24561  .debug_str:0000000000016c1e .LASF1153
C:\Users\SOLDER~1\AppData\Local\Temp\ccqxjBbT.s:29855  .debug_str:000000000002c3f4 .LASF1154
C:\Users\SOLDER~1\AppData\Local\Temp\ccqxjBbT.s:27149  .debug_str:0000000000021352 .LASF1155
C:\Users\SOLDER~1\AppData\Local\Temp\ccqxjBbT.s:24295  .debug_str:0000000000015bab .LASF1156
C:\Users\SOLDER~1\AppData\Local\Temp\ccqxjBbT.s:26031  .debug_str:000000000001caf6 .LASF1157
C:\Users\SOLDER~1\AppData\Local\Temp\ccqxjBbT.s:23107  .debug_str:0000000000010e20 .LASF1158
C:\Users\SOLDER~1\AppData\Local\Temp\ccqxjBbT.s:28619  .debug_str:0000000000027355 .LASF1159
C:\Users\SOLDER~1\AppData\Local\Temp\ccqxjBbT.s:24925  .debug_str:00000000000183a9 .LASF1160
C:\Users\SOLDER~1\AppData\Local\Temp\ccqxjBbT.s:19389  .debug_str:0000000000001c9e .LASF1161
C:\Users\SOLDER~1\AppData\Local\Temp\ccqxjBbT.s:23827  .debug_str:0000000000013d3b .LASF1162
C:\Users\SOLDER~1\AppData\Local\Temp\ccqxjBbT.s:26911  .debug_str:00000000000203cb .LASF1163
C:\Users\SOLDER~1\AppData\Local\Temp\ccqxjBbT.s:30277  .debug_str:000000000002df37 .LASF1164
C:\Users\SOLDER~1\AppData\Local\Temp\ccqxjBbT.s:30285  .debug_str:000000000002df9d .LASF1165
C:\Users\SOLDER~1\AppData\Local\Temp\ccqxjBbT.s:28865  .debug_str:0000000000028378 .LASF1166
C:\Users\SOLDER~1\AppData\Local\Temp\ccqxjBbT.s:25171  .debug_str:0000000000019387 .LASF1167
C:\Users\SOLDER~1\AppData\Local\Temp\ccqxjBbT.s:24951  .debug_str:0000000000018543 .LASF1168
C:\Users\SOLDER~1\AppData\Local\Temp\ccqxjBbT.s:28701  .debug_str:00000000000278b1 .LASF1169
C:\Users\SOLDER~1\AppData\Local\Temp\ccqxjBbT.s:23167  .debug_str:0000000000011220 .LASF1170
C:\Users\SOLDER~1\AppData\Local\Temp\ccqxjBbT.s:28639  .debug_str:00000000000274ad .LASF1171
C:\Users\SOLDER~1\AppData\Local\Temp\ccqxjBbT.s:30339  .debug_str:000000000002e2ef .LASF1172
C:\Users\SOLDER~1\AppData\Local\Temp\ccqxjBbT.s:26703  .debug_str:000000000001f6cb .LASF1173
C:\Users\SOLDER~1\AppData\Local\Temp\ccqxjBbT.s:23693  .debug_str:00000000000133b1 .LASF1174
C:\Users\SOLDER~1\AppData\Local\Temp\ccqxjBbT.s:29185  .debug_str:0000000000029808 .LASF1175
C:\Users\SOLDER~1\AppData\Local\Temp\ccqxjBbT.s:21125  .debug_str:0000000000008c6a .LASF1176
C:\Users\SOLDER~1\AppData\Local\Temp\ccqxjBbT.s:27191  .debug_str:000000000002160d .LASF1177
C:\Users\SOLDER~1\AppData\Local\Temp\ccqxjBbT.s:28041  .debug_str:0000000000024ced .LASF1178
C:\Users\SOLDER~1\AppData\Local\Temp\ccqxjBbT.s:26529  .debug_str:000000000001eb24 .LASF1179
C:\Users\SOLDER~1\AppData\Local\Temp\ccqxjBbT.s:24937  .debug_str:000000000001846f .LASF1180
C:\Users\SOLDER~1\AppData\Local\Temp\ccqxjBbT.s:22899  .debug_str:00000000000100d4 .LASF1181
C:\Users\SOLDER~1\AppData\Local\Temp\ccqxjBbT.s:26731  .debug_str:000000000001f86e .LASF1182
C:\Users\SOLDER~1\AppData\Local\Temp\ccqxjBbT.s:23831  .debug_str:0000000000013d87 .LASF1183
C:\Users\SOLDER~1\AppData\Local\Temp\ccqxjBbT.s:23571  .debug_str:0000000000012b8f .LASF1184
C:\Users\SOLDER~1\AppData\Local\Temp\ccqxjBbT.s:21405  .debug_str:0000000000009f40 .LASF1185
C:\Users\SOLDER~1\AppData\Local\Temp\ccqxjBbT.s:22779  .debug_str:000000000000f8be .LASF1186
C:\Users\SOLDER~1\AppData\Local\Temp\ccqxjBbT.s:24865  .debug_str:0000000000017f9f .LASF1187
C:\Users\SOLDER~1\AppData\Local\Temp\ccqxjBbT.s:28317  .debug_str:0000000000025f39 .LASF1188
C:\Users\SOLDER~1\AppData\Local\Temp\ccqxjBbT.s:22963  .debug_str:0000000000010503 .LASF1189
C:\Users\SOLDER~1\AppData\Local\Temp\ccqxjBbT.s:28537  .debug_str:0000000000026dd6 .LASF1190
C:\Users\SOLDER~1\AppData\Local\Temp\ccqxjBbT.s:25443  .debug_str:000000000001a48e .LASF1191
C:\Users\SOLDER~1\AppData\Local\Temp\ccqxjBbT.s:28951  .debug_str:0000000000028910 .LASF1192
C:\Users\SOLDER~1\AppData\Local\Temp\ccqxjBbT.s:23483  .debug_str:0000000000012613 .LASF1193
C:\Users\SOLDER~1\AppData\Local\Temp\ccqxjBbT.s:21497  .debug_str:000000000000a555 .LASF1194
C:\Users\SOLDER~1\AppData\Local\Temp\ccqxjBbT.s:20831  .debug_str:0000000000007956 .LASF1195
C:\Users\SOLDER~1\AppData\Local\Temp\ccqxjBbT.s:19423  .debug_str:0000000000001ece .LASF1196
C:\Users\SOLDER~1\AppData\Local\Temp\ccqxjBbT.s:23209  .debug_str:00000000000114c9 .LASF1197
C:\Users\SOLDER~1\AppData\Local\Temp\ccqxjBbT.s:19915  .debug_str:0000000000003e95 .LASF1198
C:\Users\SOLDER~1\AppData\Local\Temp\ccqxjBbT.s:30487  .debug_str:000000000002ecb3 .LASF1199
C:\Users\SOLDER~1\AppData\Local\Temp\ccqxjBbT.s:25479  .debug_str:000000000001a6db .LASF1200
C:\Users\SOLDER~1\AppData\Local\Temp\ccqxjBbT.s:20673  .debug_str:0000000000006f70 .LASF1201
C:\Users\SOLDER~1\AppData\Local\Temp\ccqxjBbT.s:26177  .debug_str:000000000001d457 .LASF1202
GAS LISTING C:\Users\SOLDER~1\AppData\Local\Temp\ccqxjBbT.s 			page 39


C:\Users\SOLDER~1\AppData\Local\Temp\ccqxjBbT.s:29727  .debug_str:000000000002bb35 .LASF1203
C:\Users\SOLDER~1\AppData\Local\Temp\ccqxjBbT.s:24261  .debug_str:0000000000015967 .LASF1204
C:\Users\SOLDER~1\AppData\Local\Temp\ccqxjBbT.s:21291  .debug_str:00000000000097b0 .LASF1205
C:\Users\SOLDER~1\AppData\Local\Temp\ccqxjBbT.s:22175  .debug_str:000000000000d1ce .LASF1206
C:\Users\SOLDER~1\AppData\Local\Temp\ccqxjBbT.s:30269  .debug_str:000000000002deac .LASF1207
C:\Users\SOLDER~1\AppData\Local\Temp\ccqxjBbT.s:24895  .debug_str:00000000000181c5 .LASF1208
C:\Users\SOLDER~1\AppData\Local\Temp\ccqxjBbT.s:20241  .debug_str:00000000000052cf .LASF1209
C:\Users\SOLDER~1\AppData\Local\Temp\ccqxjBbT.s:19481  .debug_str:00000000000022a1 .LASF1210
C:\Users\SOLDER~1\AppData\Local\Temp\ccqxjBbT.s:23647  .debug_str:00000000000130a8 .LASF1211
C:\Users\SOLDER~1\AppData\Local\Temp\ccqxjBbT.s:27437  .debug_str:000000000002255b .LASF1212
C:\Users\SOLDER~1\AppData\Local\Temp\ccqxjBbT.s:30181  .debug_str:000000000002d90a .LASF1213
C:\Users\SOLDER~1\AppData\Local\Temp\ccqxjBbT.s:29133  .debug_str:00000000000294bd .LASF1214
C:\Users\SOLDER~1\AppData\Local\Temp\ccqxjBbT.s:29677  .debug_str:000000000002b819 .LASF1215
C:\Users\SOLDER~1\AppData\Local\Temp\ccqxjBbT.s:28485  .debug_str:0000000000026aa7 .LASF1216
C:\Users\SOLDER~1\AppData\Local\Temp\ccqxjBbT.s:22429  .debug_str:000000000000e280 .LASF1217
C:\Users\SOLDER~1\AppData\Local\Temp\ccqxjBbT.s:25883  .debug_str:000000000001c0be .LASF1218
C:\Users\SOLDER~1\AppData\Local\Temp\ccqxjBbT.s:20473  .debug_str:0000000000006209 .LASF1219
C:\Users\SOLDER~1\AppData\Local\Temp\ccqxjBbT.s:29547  .debug_str:000000000002af69 .LASF1220
C:\Users\SOLDER~1\AppData\Local\Temp\ccqxjBbT.s:20329  .debug_str:000000000000587a .LASF1221
C:\Users\SOLDER~1\AppData\Local\Temp\ccqxjBbT.s:26501  .debug_str:000000000001e943 .LASF1222
C:\Users\SOLDER~1\AppData\Local\Temp\ccqxjBbT.s:21097  .debug_str:0000000000008aa2 .LASF1223
C:\Users\SOLDER~1\AppData\Local\Temp\ccqxjBbT.s:19703  .debug_str:00000000000030e3 .LASF1224
C:\Users\SOLDER~1\AppData\Local\Temp\ccqxjBbT.s:27723  .debug_str:0000000000023847 .LASF1225
C:\Users\SOLDER~1\AppData\Local\Temp\ccqxjBbT.s:27443  .debug_str:00000000000225bb .LASF1226
C:\Users\SOLDER~1\AppData\Local\Temp\ccqxjBbT.s:26901  .debug_str:0000000000020320 .LASF1227
C:\Users\SOLDER~1\AppData\Local\Temp\ccqxjBbT.s:24793  .debug_str:0000000000017b32 .LASF1228
C:\Users\SOLDER~1\AppData\Local\Temp\ccqxjBbT.s:20327  .debug_str:0000000000005857 .LASF1229
C:\Users\SOLDER~1\AppData\Local\Temp\ccqxjBbT.s:21769  .debug_str:000000000000b6dd .LASF1230
C:\Users\SOLDER~1\AppData\Local\Temp\ccqxjBbT.s:25181  .debug_str:0000000000019441 .LASF1231
C:\Users\SOLDER~1\AppData\Local\Temp\ccqxjBbT.s:22691  .debug_str:000000000000f34f .LASF1232
C:\Users\SOLDER~1\AppData\Local\Temp\ccqxjBbT.s:27861  .debug_str:0000000000024119 .LASF1233
C:\Users\SOLDER~1\AppData\Local\Temp\ccqxjBbT.s:21643  .debug_str:000000000000af34 .LASF1234
C:\Users\SOLDER~1\AppData\Local\Temp\ccqxjBbT.s:22735  .debug_str:000000000000f5de .LASF1235
C:\Users\SOLDER~1\AppData\Local\Temp\ccqxjBbT.s:28703  .debug_str:00000000000278d9 .LASF1236
C:\Users\SOLDER~1\AppData\Local\Temp\ccqxjBbT.s:23733  .debug_str:0000000000013671 .LASF1237
C:\Users\SOLDER~1\AppData\Local\Temp\ccqxjBbT.s:24875  .debug_str:0000000000018068 .LASF1238
C:\Users\SOLDER~1\AppData\Local\Temp\ccqxjBbT.s:23065  .debug_str:0000000000010b95 .LASF1239
C:\Users\SOLDER~1\AppData\Local\Temp\ccqxjBbT.s:20621  .debug_str:0000000000006bcf .LASF1240
C:\Users\SOLDER~1\AppData\Local\Temp\ccqxjBbT.s:23785  .debug_str:00000000000139f2 .LASF1241
C:\Users\SOLDER~1\AppData\Local\Temp\ccqxjBbT.s:20259  .debug_str:00000000000053e8 .LASF1242
C:\Users\SOLDER~1\AppData\Local\Temp\ccqxjBbT.s:28457  .debug_str:00000000000268a9 .LASF1243
C:\Users\SOLDER~1\AppData\Local\Temp\ccqxjBbT.s:25319  .debug_str:0000000000019cc1 .LASF1244
C:\Users\SOLDER~1\AppData\Local\Temp\ccqxjBbT.s:22465  .debug_str:000000000000e4f2 .LASF1245
C:\Users\SOLDER~1\AppData\Local\Temp\ccqxjBbT.s:30103  .debug_str:000000000002d416 .LASF1246
C:\Users\SOLDER~1\AppData\Local\Temp\ccqxjBbT.s:27605  .debug_str:000000000002307b .LASF1247
C:\Users\SOLDER~1\AppData\Local\Temp\ccqxjBbT.s:26289  .debug_str:000000000001db3a .LASF1248
C:\Users\SOLDER~1\AppData\Local\Temp\ccqxjBbT.s:26517  .debug_str:000000000001ea64 .LASF1249
C:\Users\SOLDER~1\AppData\Local\Temp\ccqxjBbT.s:19687  .debug_str:0000000000002ffd .LASF1250
C:\Users\SOLDER~1\AppData\Local\Temp\ccqxjBbT.s:22415  .debug_str:000000000000e18a .LASF1251
C:\Users\SOLDER~1\AppData\Local\Temp\ccqxjBbT.s:28975  .debug_str:0000000000028aa0 .LASF1252
C:\Users\SOLDER~1\AppData\Local\Temp\ccqxjBbT.s:28517  .debug_str:0000000000026c9a .LASF1253
C:\Users\SOLDER~1\AppData\Local\Temp\ccqxjBbT.s:28293  .debug_str:0000000000025d7a .LASF1254
C:\Users\SOLDER~1\AppData\Local\Temp\ccqxjBbT.s:28331  .debug_str:0000000000026021 .LASF1255
C:\Users\SOLDER~1\AppData\Local\Temp\ccqxjBbT.s:21995  .debug_str:000000000000c5a8 .LASF1256
C:\Users\SOLDER~1\AppData\Local\Temp\ccqxjBbT.s:30125  .debug_str:000000000002d556 .LASF1257
C:\Users\SOLDER~1\AppData\Local\Temp\ccqxjBbT.s:26743  .debug_str:000000000001f913 .LASF1258
C:\Users\SOLDER~1\AppData\Local\Temp\ccqxjBbT.s:23559  .debug_str:0000000000012aab .LASF1259
GAS LISTING C:\Users\SOLDER~1\AppData\Local\Temp\ccqxjBbT.s 			page 40


C:\Users\SOLDER~1\AppData\Local\Temp\ccqxjBbT.s:25583  .debug_str:000000000001adf4 .LASF1260
C:\Users\SOLDER~1\AppData\Local\Temp\ccqxjBbT.s:28325  .debug_str:0000000000025fb6 .LASF1261
C:\Users\SOLDER~1\AppData\Local\Temp\ccqxjBbT.s:25899  .debug_str:000000000001c1fb .LASF1262
C:\Users\SOLDER~1\AppData\Local\Temp\ccqxjBbT.s:24595  .debug_str:0000000000016e00 .LASF1263
C:\Users\SOLDER~1\AppData\Local\Temp\ccqxjBbT.s:24907  .debug_str:0000000000018296 .LASF1264
C:\Users\SOLDER~1\AppData\Local\Temp\ccqxjBbT.s:29527  .debug_str:000000000002ae1c .LASF1265
C:\Users\SOLDER~1\AppData\Local\Temp\ccqxjBbT.s:22973  .debug_str:00000000000105b5 .LASF1266
C:\Users\SOLDER~1\AppData\Local\Temp\ccqxjBbT.s:28341  .debug_str:00000000000260d2 .LASF1267
C:\Users\SOLDER~1\AppData\Local\Temp\ccqxjBbT.s:29479  .debug_str:000000000002ab23 .LASF1268
C:\Users\SOLDER~1\AppData\Local\Temp\ccqxjBbT.s:27579  .debug_str:0000000000022ec2 .LASF1269
C:\Users\SOLDER~1\AppData\Local\Temp\ccqxjBbT.s:25387  .debug_str:000000000001a104 .LASF1270
C:\Users\SOLDER~1\AppData\Local\Temp\ccqxjBbT.s:27543  .debug_str:0000000000022c95 .LASF1271
C:\Users\SOLDER~1\AppData\Local\Temp\ccqxjBbT.s:24131  .debug_str:000000000001516d .LASF1272
C:\Users\SOLDER~1\AppData\Local\Temp\ccqxjBbT.s:20727  .debug_str:00000000000072f8 .LASF1273
C:\Users\SOLDER~1\AppData\Local\Temp\ccqxjBbT.s:29121  .debug_str:00000000000293e3 .LASF1274
C:\Users\SOLDER~1\AppData\Local\Temp\ccqxjBbT.s:19553  .debug_str:000000000000275d .LASF1275
C:\Users\SOLDER~1\AppData\Local\Temp\ccqxjBbT.s:22329  .debug_str:000000000000db8a .LASF1276
C:\Users\SOLDER~1\AppData\Local\Temp\ccqxjBbT.s:19877  .debug_str:0000000000003c1f .LASF1277
C:\Users\SOLDER~1\AppData\Local\Temp\ccqxjBbT.s:27895  .debug_str:0000000000024348 .LASF1278
C:\Users\SOLDER~1\AppData\Local\Temp\ccqxjBbT.s:30453  .debug_str:000000000002ea6d .LASF1279
C:\Users\SOLDER~1\AppData\Local\Temp\ccqxjBbT.s:23619  .debug_str:0000000000012ee0 .LASF1280
C:\Users\SOLDER~1\AppData\Local\Temp\ccqxjBbT.s:25459  .debug_str:000000000001a581 .LASF1281
C:\Users\SOLDER~1\AppData\Local\Temp\ccqxjBbT.s:20493  .debug_str:0000000000006359 .LASF1282
C:\Users\SOLDER~1\AppData\Local\Temp\ccqxjBbT.s:21611  .debug_str:000000000000acf8 .LASF1283
C:\Users\SOLDER~1\AppData\Local\Temp\ccqxjBbT.s:19827  .debug_str:00000000000038dd .LASF1284
C:\Users\SOLDER~1\AppData\Local\Temp\ccqxjBbT.s:19355  .debug_str:0000000000001a3a .LASF1285
C:\Users\SOLDER~1\AppData\Local\Temp\ccqxjBbT.s:20751  .debug_str:0000000000007480 .LASF1286
C:\Users\SOLDER~1\AppData\Local\Temp\ccqxjBbT.s:19947  .debug_str:000000000000407b .LASF1287
C:\Users\SOLDER~1\AppData\Local\Temp\ccqxjBbT.s:23307  .debug_str:0000000000011b2d .LASF1288
C:\Users\SOLDER~1\AppData\Local\Temp\ccqxjBbT.s:29379  .debug_str:000000000002a4f2 .LASF1289
C:\Users\SOLDER~1\AppData\Local\Temp\ccqxjBbT.s:22095  .debug_str:000000000000cc84 .LASF1290
C:\Users\SOLDER~1\AppData\Local\Temp\ccqxjBbT.s:22363  .debug_str:000000000000ddd9 .LASF1291
C:\Users\SOLDER~1\AppData\Local\Temp\ccqxjBbT.s:18987  .debug_str:0000000000000218 .LASF1292
C:\Users\SOLDER~1\AppData\Local\Temp\ccqxjBbT.s:28777  .debug_str:0000000000027dbb .LASF1293
C:\Users\SOLDER~1\AppData\Local\Temp\ccqxjBbT.s:23865  .debug_str:0000000000013fd6 .LASF1294
C:\Users\SOLDER~1\AppData\Local\Temp\ccqxjBbT.s:29755  .debug_str:000000000002bd0a .LASF1295
C:\Users\SOLDER~1\AppData\Local\Temp\ccqxjBbT.s:22675  .debug_str:000000000000f242 .LASF1296
C:\Users\SOLDER~1\AppData\Local\Temp\ccqxjBbT.s:21715  .debug_str:000000000000b391 .LASF1297
C:\Users\SOLDER~1\AppData\Local\Temp\ccqxjBbT.s:29373  .debug_str:000000000002a48f .LASF1298
C:\Users\SOLDER~1\AppData\Local\Temp\ccqxjBbT.s:27283  .debug_str:0000000000021bc3 .LASF1299
C:\Users\SOLDER~1\AppData\Local\Temp\ccqxjBbT.s:28801  .debug_str:0000000000027f3f .LASF1300
C:\Users\SOLDER~1\AppData\Local\Temp\ccqxjBbT.s:24181  .debug_str:0000000000015499 .LASF1301
C:\Users\SOLDER~1\AppData\Local\Temp\ccqxjBbT.s:22061  .debug_str:000000000000ca3b .LASF1302
C:\Users\SOLDER~1\AppData\Local\Temp\ccqxjBbT.s:30243  .debug_str:000000000002dcf8 .LASF1303
C:\Users\SOLDER~1\AppData\Local\Temp\ccqxjBbT.s:20923  .debug_str:0000000000007f71 .LASF1304
C:\Users\SOLDER~1\AppData\Local\Temp\ccqxjBbT.s:22339  .debug_str:000000000000dc32 .LASF1305
C:\Users\SOLDER~1\AppData\Local\Temp\ccqxjBbT.s:29633  .debug_str:000000000002b526 .LASF1306
C:\Users\SOLDER~1\AppData\Local\Temp\ccqxjBbT.s:24117  .debug_str:0000000000015095 .LASF1307
C:\Users\SOLDER~1\AppData\Local\Temp\ccqxjBbT.s:22171  .debug_str:000000000000d184 .LASF1308
C:\Users\SOLDER~1\AppData\Local\Temp\ccqxjBbT.s:27589  .debug_str:0000000000022f6b .LASF1309
C:\Users\SOLDER~1\AppData\Local\Temp\ccqxjBbT.s:23121  .debug_str:0000000000010f12 .LASF1310
C:\Users\SOLDER~1\AppData\Local\Temp\ccqxjBbT.s:25937  .debug_str:000000000001c49a .LASF1311
C:\Users\SOLDER~1\AppData\Local\Temp\ccqxjBbT.s:21395  .debug_str:0000000000009e8b .LASF1312
C:\Users\SOLDER~1\AppData\Local\Temp\ccqxjBbT.s:29801  .debug_str:000000000002c05e .LASF1313
C:\Users\SOLDER~1\AppData\Local\Temp\ccqxjBbT.s:28877  .debug_str:000000000002844f .LASF1314
C:\Users\SOLDER~1\AppData\Local\Temp\ccqxjBbT.s:23851  .debug_str:0000000000013ed3 .LASF1315
C:\Users\SOLDER~1\AppData\Local\Temp\ccqxjBbT.s:25489  .debug_str:000000000001a78d .LASF1316
GAS LISTING C:\Users\SOLDER~1\AppData\Local\Temp\ccqxjBbT.s 			page 41


C:\Users\SOLDER~1\AppData\Local\Temp\ccqxjBbT.s:23661  .debug_str:000000000001318d .LASF1317
C:\Users\SOLDER~1\AppData\Local\Temp\ccqxjBbT.s:29697  .debug_str:000000000002b969 .LASF1318
C:\Users\SOLDER~1\AppData\Local\Temp\ccqxjBbT.s:21151  .debug_str:0000000000008e59 .LASF1319
C:\Users\SOLDER~1\AppData\Local\Temp\ccqxjBbT.s:24543  .debug_str:0000000000016afe .LASF1320
C:\Users\SOLDER~1\AppData\Local\Temp\ccqxjBbT.s:30473  .debug_str:000000000002ebbd .LASF1321
C:\Users\SOLDER~1\AppData\Local\Temp\ccqxjBbT.s:19593  .debug_str:0000000000002a1a .LASF1322
C:\Users\SOLDER~1\AppData\Local\Temp\ccqxjBbT.s:26671  .debug_str:000000000001f48d .LASF1323
C:\Users\SOLDER~1\AppData\Local\Temp\ccqxjBbT.s:23277  .debug_str:000000000001193d .LASF1324
C:\Users\SOLDER~1\AppData\Local\Temp\ccqxjBbT.s:21487  .debug_str:000000000000a4a5 .LASF1325
C:\Users\SOLDER~1\AppData\Local\Temp\ccqxjBbT.s:24227  .debug_str:00000000000157ab .LASF1326
C:\Users\SOLDER~1\AppData\Local\Temp\ccqxjBbT.s:25997  .debug_str:000000000001c895 .LASF1327
C:\Users\SOLDER~1\AppData\Local\Temp\ccqxjBbT.s:30537  .debug_str:000000000002efb2 .LASF1328
C:\Users\SOLDER~1\AppData\Local\Temp\ccqxjBbT.s:29465  .debug_str:000000000002aa46 .LASF1329
C:\Users\SOLDER~1\AppData\Local\Temp\ccqxjBbT.s:25635  .debug_str:000000000001b0f0 .LASF1330
C:\Users\SOLDER~1\AppData\Local\Temp\ccqxjBbT.s:23575  .debug_str:0000000000012bdb .LASF1331
C:\Users\SOLDER~1\AppData\Local\Temp\ccqxjBbT.s:25113  .debug_str:0000000000018ff6 .LASF1332
C:\Users\SOLDER~1\AppData\Local\Temp\ccqxjBbT.s:20393  .debug_str:0000000000005c93 .LASF1333
C:\Users\SOLDER~1\AppData\Local\Temp\ccqxjBbT.s:29915  .debug_str:000000000002c7c7 .LASF1334
C:\Users\SOLDER~1\AppData\Local\Temp\ccqxjBbT.s:19889  .debug_str:0000000000003cdd .LASF1335
C:\Users\SOLDER~1\AppData\Local\Temp\ccqxjBbT.s:28739  .debug_str:0000000000027b0a .LASF1336
C:\Users\SOLDER~1\AppData\Local\Temp\ccqxjBbT.s:19147  .debug_str:0000000000000dc6 .LASF1337
C:\Users\SOLDER~1\AppData\Local\Temp\ccqxjBbT.s:29559  .debug_str:000000000002b06a .LASF1338
C:\Users\SOLDER~1\AppData\Local\Temp\ccqxjBbT.s:28053  .debug_str:0000000000024dc8 .LASF1339
C:\Users\SOLDER~1\AppData\Local\Temp\ccqxjBbT.s:30023  .debug_str:000000000002ce9c .LASF1340
C:\Users\SOLDER~1\AppData\Local\Temp\ccqxjBbT.s:23903  .debug_str:0000000000014238 .LASF1341
C:\Users\SOLDER~1\AppData\Local\Temp\ccqxjBbT.s:21421  .debug_str:000000000000a043 .LASF1342
C:\Users\SOLDER~1\AppData\Local\Temp\ccqxjBbT.s:22183  .debug_str:000000000000d262 .LASF1343
C:\Users\SOLDER~1\AppData\Local\Temp\ccqxjBbT.s:29255  .debug_str:0000000000029c9b .LASF1344
C:\Users\SOLDER~1\AppData\Local\Temp\ccqxjBbT.s:26043  .debug_str:000000000001cbd8 .LASF1345
C:\Users\SOLDER~1\AppData\Local\Temp\ccqxjBbT.s:25175  .debug_str:00000000000193c8 .LASF1346
C:\Users\SOLDER~1\AppData\Local\Temp\ccqxjBbT.s:20053  .debug_str:0000000000004737 .LASF1347
C:\Users\SOLDER~1\AppData\Local\Temp\ccqxjBbT.s:21711  .debug_str:000000000000b359 .LASF1348
C:\Users\SOLDER~1\AppData\Local\Temp\ccqxjBbT.s:27891  .debug_str:00000000000242f6 .LASF1349
C:\Users\SOLDER~1\AppData\Local\Temp\ccqxjBbT.s:22297  .debug_str:000000000000d9d2 .LASF1350
C:\Users\SOLDER~1\AppData\Local\Temp\ccqxjBbT.s:28425  .debug_str:0000000000026674 .LASF1351
C:\Users\SOLDER~1\AppData\Local\Temp\ccqxjBbT.s:23227  .debug_str:0000000000011632 .LASF1352
C:\Users\SOLDER~1\AppData\Local\Temp\ccqxjBbT.s:27103  .debug_str:0000000000021040 .LASF1353
C:\Users\SOLDER~1\AppData\Local\Temp\ccqxjBbT.s:23919  .debug_str:0000000000014372 .LASF1354
C:\Users\SOLDER~1\AppData\Local\Temp\ccqxjBbT.s:19371  .debug_str:0000000000001b42 .LASF1355
C:\Users\SOLDER~1\AppData\Local\Temp\ccqxjBbT.s:27513  .debug_str:0000000000022a91 .LASF1356
C:\Users\SOLDER~1\AppData\Local\Temp\ccqxjBbT.s:25713  .debug_str:000000000001b601 .LASF1357
C:\Users\SOLDER~1\AppData\Local\Temp\ccqxjBbT.s:21565  .debug_str:000000000000a9fc .LASF1358
C:\Users\SOLDER~1\AppData\Local\Temp\ccqxjBbT.s:22241  .debug_str:000000000000d639 .LASF1359
C:\Users\SOLDER~1\AppData\Local\Temp\ccqxjBbT.s:26675  .debug_str:000000000001f4d8 .LASF1360
C:\Users\SOLDER~1\AppData\Local\Temp\ccqxjBbT.s:26477  .debug_str:000000000001e793 .LASF1361
C:\Users\SOLDER~1\AppData\Local\Temp\ccqxjBbT.s:21869  .debug_str:000000000000bcfd .LASF1362
C:\Users\SOLDER~1\AppData\Local\Temp\ccqxjBbT.s:19809  .debug_str:00000000000037af .LASF1363
C:\Users\SOLDER~1\AppData\Local\Temp\ccqxjBbT.s:21053  .debug_str:00000000000087d2 .LASF1364
C:\Users\SOLDER~1\AppData\Local\Temp\ccqxjBbT.s:28117  .debug_str:00000000000251bb .LASF1365
C:\Users\SOLDER~1\AppData\Local\Temp\ccqxjBbT.s:26153  .debug_str:000000000001d2ba .LASF1366
C:\Users\SOLDER~1\AppData\Local\Temp\ccqxjBbT.s:27689  .debug_str:000000000002361d .LASF1367
C:\Users\SOLDER~1\AppData\Local\Temp\ccqxjBbT.s:25051  .debug_str:0000000000018bb6 .LASF1368
C:\Users\SOLDER~1\AppData\Local\Temp\ccqxjBbT.s:26947  .debug_str:0000000000020626 .LASF1369
C:\Users\SOLDER~1\AppData\Local\Temp\ccqxjBbT.s:20337  .debug_str:0000000000005900 .LASF1370
C:\Users\SOLDER~1\AppData\Local\Temp\ccqxjBbT.s:24281  .debug_str:0000000000015abe .LASF1371
C:\Users\SOLDER~1\AppData\Local\Temp\ccqxjBbT.s:26255  .debug_str:000000000001d8e9 .LASF1372
C:\Users\SOLDER~1\AppData\Local\Temp\ccqxjBbT.s:24489  .debug_str:0000000000016795 .LASF1373
GAS LISTING C:\Users\SOLDER~1\AppData\Local\Temp\ccqxjBbT.s 			page 42


C:\Users\SOLDER~1\AppData\Local\Temp\ccqxjBbT.s:29277  .debug_str:0000000000029e33 .LASF1374
C:\Users\SOLDER~1\AppData\Local\Temp\ccqxjBbT.s:30033  .debug_str:000000000002cf51 .LASF1375
C:\Users\SOLDER~1\AppData\Local\Temp\ccqxjBbT.s:30049  .debug_str:000000000002d066 .LASF1376
C:\Users\SOLDER~1\AppData\Local\Temp\ccqxjBbT.s:22287  .debug_str:000000000000d92d .LASF1377
C:\Users\SOLDER~1\AppData\Local\Temp\ccqxjBbT.s:21373  .debug_str:0000000000009cf8 .LASF1378
C:\Users\SOLDER~1\AppData\Local\Temp\ccqxjBbT.s:27867  .debug_str:000000000002418d .LASF1379
C:\Users\SOLDER~1\AppData\Local\Temp\ccqxjBbT.s:29561  .debug_str:000000000002b08f .LASF1380
C:\Users\SOLDER~1\AppData\Local\Temp\ccqxjBbT.s:20541  .debug_str:0000000000006687 .LASF1381
C:\Users\SOLDER~1\AppData\Local\Temp\ccqxjBbT.s:23623  .debug_str:0000000000012f14 .LASF1382
C:\Users\SOLDER~1\AppData\Local\Temp\ccqxjBbT.s:21155  .debug_str:0000000000008ea3 .LASF1383
C:\Users\SOLDER~1\AppData\Local\Temp\ccqxjBbT.s:26143  .debug_str:000000000001d213 .LASF1384
C:\Users\SOLDER~1\AppData\Local\Temp\ccqxjBbT.s:27421  .debug_str:0000000000022442 .LASF1385
C:\Users\SOLDER~1\AppData\Local\Temp\ccqxjBbT.s:28233  .debug_str:0000000000025950 .LASF1386
C:\Users\SOLDER~1\AppData\Local\Temp\ccqxjBbT.s:23579  .debug_str:0000000000012c17 .LASF1387
C:\Users\SOLDER~1\AppData\Local\Temp\ccqxjBbT.s:20155  .debug_str:0000000000004d98 .LASF1388
C:\Users\SOLDER~1\AppData\Local\Temp\ccqxjBbT.s:30005  .debug_str:000000000002cd63 .LASF1389
C:\Users\SOLDER~1\AppData\Local\Temp\ccqxjBbT.s:21101  .debug_str:0000000000008ae0 .LASF1390
C:\Users\SOLDER~1\AppData\Local\Temp\ccqxjBbT.s:30095  .debug_str:000000000002d385 .LASF1391
C:\Users\SOLDER~1\AppData\Local\Temp\ccqxjBbT.s:22937  .debug_str:0000000000010323 .LASF1392
C:\Users\SOLDER~1\AppData\Local\Temp\ccqxjBbT.s:21957  .debug_str:000000000000c2dc .LASF1393
C:\Users\SOLDER~1\AppData\Local\Temp\ccqxjBbT.s:29711  .debug_str:000000000002ba36 .LASF1394
C:\Users\SOLDER~1\AppData\Local\Temp\ccqxjBbT.s:27613  .debug_str:000000000002310e .LASF1395
C:\Users\SOLDER~1\AppData\Local\Temp\ccqxjBbT.s:29153  .debug_str:0000000000029617 .LASF1396
C:\Users\SOLDER~1\AppData\Local\Temp\ccqxjBbT.s:24431  .debug_str:0000000000016426 .LASF1397
C:\Users\SOLDER~1\AppData\Local\Temp\ccqxjBbT.s:24751  .debug_str:000000000001787d .LASF1398
C:\Users\SOLDER~1\AppData\Local\Temp\ccqxjBbT.s:24017  .debug_str:00000000000149fc .LASF1399
C:\Users\SOLDER~1\AppData\Local\Temp\ccqxjBbT.s:23043  .debug_str:0000000000010a27 .LASF1400
C:\Users\SOLDER~1\AppData\Local\Temp\ccqxjBbT.s:23239  .debug_str:00000000000116fe .LASF1401
C:\Users\SOLDER~1\AppData\Local\Temp\ccqxjBbT.s:28157  .debug_str:000000000002542b .LASF1402
C:\Users\SOLDER~1\AppData\Local\Temp\ccqxjBbT.s:20487  .debug_str:00000000000062e3 .LASF1403
C:\Users\SOLDER~1\AppData\Local\Temp\ccqxjBbT.s:22507  .debug_str:000000000000e782 .LASF1404
C:\Users\SOLDER~1\AppData\Local\Temp\ccqxjBbT.s:27915  .debug_str:0000000000024497 .LASF1405
C:\Users\SOLDER~1\AppData\Local\Temp\ccqxjBbT.s:25531  .debug_str:000000000001aa3d .LASF1406
C:\Users\SOLDER~1\AppData\Local\Temp\ccqxjBbT.s:26173  .debug_str:000000000001d41a .LASF1407
C:\Users\SOLDER~1\AppData\Local\Temp\ccqxjBbT.s:21733  .debug_str:000000000000b4d5 .LASF1408
C:\Users\SOLDER~1\AppData\Local\Temp\ccqxjBbT.s:28035  .debug_str:0000000000024c8b .LASF1409
C:\Users\SOLDER~1\AppData\Local\Temp\ccqxjBbT.s:29229  .debug_str:0000000000029ac3 .LASF1410
C:\Users\SOLDER~1\AppData\Local\Temp\ccqxjBbT.s:24177  .debug_str:0000000000015455 .LASF1411
C:\Users\SOLDER~1\AppData\Local\Temp\ccqxjBbT.s:25819  .debug_str:000000000001bc71 .LASF1412
C:\Users\SOLDER~1\AppData\Local\Temp\ccqxjBbT.s:24889  .debug_str:000000000001816b .LASF1413
C:\Users\SOLDER~1\AppData\Local\Temp\ccqxjBbT.s:26559  .debug_str:000000000001ed08 .LASF1414
C:\Users\SOLDER~1\AppData\Local\Temp\ccqxjBbT.s:25461  .debug_str:000000000001a5a3 .LASF1415
C:\Users\SOLDER~1\AppData\Local\Temp\ccqxjBbT.s:20187  .debug_str:0000000000004f73 .LASF1416
C:\Users\SOLDER~1\AppData\Local\Temp\ccqxjBbT.s:20055  .debug_str:000000000000475c .LASF1417
C:\Users\SOLDER~1\AppData\Local\Temp\ccqxjBbT.s:20789  .debug_str:00000000000076d6 .LASF1418
C:\Users\SOLDER~1\AppData\Local\Temp\ccqxjBbT.s:29615  .debug_str:000000000002b407 .LASF1419
C:\Users\SOLDER~1\AppData\Local\Temp\ccqxjBbT.s:24497  .debug_str:0000000000016804 .LASF1420
C:\Users\SOLDER~1\AppData\Local\Temp\ccqxjBbT.s:22699  .debug_str:000000000000f3ce .LASF1421
C:\Users\SOLDER~1\AppData\Local\Temp\ccqxjBbT.s:25423  .debug_str:000000000001a324 .LASF1422
C:\Users\SOLDER~1\AppData\Local\Temp\ccqxjBbT.s:26231  .debug_str:000000000001d7a6 .LASF1423
C:\Users\SOLDER~1\AppData\Local\Temp\ccqxjBbT.s:19191  .debug_str:0000000000000ff5 .LASF1424
C:\Users\SOLDER~1\AppData\Local\Temp\ccqxjBbT.s:29805  .debug_str:000000000002c0a5 .LASF1425
C:\Users\SOLDER~1\AppData\Local\Temp\ccqxjBbT.s:25955  .debug_str:000000000001c5b0 .LASF1426
C:\Users\SOLDER~1\AppData\Local\Temp\ccqxjBbT.s:19133  .debug_str:0000000000000cb9 .LASF1427
C:\Users\SOLDER~1\AppData\Local\Temp\ccqxjBbT.s:25427  .debug_str:000000000001a371 .LASF1428
C:\Users\SOLDER~1\AppData\Local\Temp\ccqxjBbT.s:20637  .debug_str:0000000000006ccd .LASF1429
C:\Users\SOLDER~1\AppData\Local\Temp\ccqxjBbT.s:30261  .debug_str:000000000002de15 .LASF1430
GAS LISTING C:\Users\SOLDER~1\AppData\Local\Temp\ccqxjBbT.s 			page 43


C:\Users\SOLDER~1\AppData\Local\Temp\ccqxjBbT.s:20215  .debug_str:0000000000005124 .LASF1431
C:\Users\SOLDER~1\AppData\Local\Temp\ccqxjBbT.s:29085  .debug_str:000000000002917d .LASF1432
C:\Users\SOLDER~1\AppData\Local\Temp\ccqxjBbT.s:19457  .debug_str:0000000000002103 .LASF1433
C:\Users\SOLDER~1\AppData\Local\Temp\ccqxjBbT.s:24381  .debug_str:0000000000016102 .LASF1434
C:\Users\SOLDER~1\AppData\Local\Temp\ccqxjBbT.s:28299  .debug_str:0000000000025dd7 .LASF1435
C:\Users\SOLDER~1\AppData\Local\Temp\ccqxjBbT.s:30367  .debug_str:000000000002e4b7 .LASF1436
C:\Users\SOLDER~1\AppData\Local\Temp\ccqxjBbT.s:19743  .debug_str:0000000000003379 .LASF1437
C:\Users\SOLDER~1\AppData\Local\Temp\ccqxjBbT.s:21749  .debug_str:000000000000b5cf .LASF1438
C:\Users\SOLDER~1\AppData\Local\Temp\ccqxjBbT.s:22425  .debug_str:000000000000e239 .LASF1439
C:\Users\SOLDER~1\AppData\Local\Temp\ccqxjBbT.s:29579  .debug_str:000000000002b1d4 .LASF1440
C:\Users\SOLDER~1\AppData\Local\Temp\ccqxjBbT.s:26381  .debug_str:000000000001e143 .LASF1441
C:\Users\SOLDER~1\AppData\Local\Temp\ccqxjBbT.s:21045  .debug_str:0000000000008747 .LASF1442
C:\Users\SOLDER~1\AppData\Local\Temp\ccqxjBbT.s:20121  .debug_str:0000000000004b7c .LASF1443
C:\Users\SOLDER~1\AppData\Local\Temp\ccqxjBbT.s:22039  .debug_str:000000000000c893 .LASF1444
C:\Users\SOLDER~1\AppData\Local\Temp\ccqxjBbT.s:29129  .debug_str:0000000000029474 .LASF1445
C:\Users\SOLDER~1\AppData\Local\Temp\ccqxjBbT.s:23605  .debug_str:0000000000012de3 .LASF1446
C:\Users\SOLDER~1\AppData\Local\Temp\ccqxjBbT.s:29739  .debug_str:000000000002bc12 .LASF1447
C:\Users\SOLDER~1\AppData\Local\Temp\ccqxjBbT.s:24433  .debug_str:000000000001644b .LASF1448
C:\Users\SOLDER~1\AppData\Local\Temp\ccqxjBbT.s:24391  .debug_str:0000000000016197 .LASF1449
C:\Users\SOLDER~1\AppData\Local\Temp\ccqxjBbT.s:26919  .debug_str:0000000000020445 .LASF1450
C:\Users\SOLDER~1\AppData\Local\Temp\ccqxjBbT.s:20559  .debug_str:00000000000067dd .LASF1451
C:\Users\SOLDER~1\AppData\Local\Temp\ccqxjBbT.s:22499  .debug_str:000000000000e701 .LASF1452
C:\Users\SOLDER~1\AppData\Local\Temp\ccqxjBbT.s:25281  .debug_str:0000000000019a4f .LASF1453
C:\Users\SOLDER~1\AppData\Local\Temp\ccqxjBbT.s:29691  .debug_str:000000000002b8ff .LASF1454
C:\Users\SOLDER~1\AppData\Local\Temp\ccqxjBbT.s:22481  .debug_str:000000000000e5f7 .LASF1455
C:\Users\SOLDER~1\AppData\Local\Temp\ccqxjBbT.s:26979  .debug_str:0000000000020845 .LASF1456
C:\Users\SOLDER~1\AppData\Local\Temp\ccqxjBbT.s:23917  .debug_str:000000000001434d .LASF1457
C:\Users\SOLDER~1\AppData\Local\Temp\ccqxjBbT.s:22197  .debug_str:000000000000d34b .LASF1458
C:\Users\SOLDER~1\AppData\Local\Temp\ccqxjBbT.s:20137  .debug_str:0000000000004c8a .LASF1459
C:\Users\SOLDER~1\AppData\Local\Temp\ccqxjBbT.s:21641  .debug_str:000000000000af0f .LASF1460
C:\Users\SOLDER~1\AppData\Local\Temp\ccqxjBbT.s:28455  .debug_str:0000000000026884 .LASF1461
C:\Users\SOLDER~1\AppData\Local\Temp\ccqxjBbT.s:19115  .debug_str:0000000000000b7f .LASF1462
C:\Users\SOLDER~1\AppData\Local\Temp\ccqxjBbT.s:28025  .debug_str:0000000000024be9 .LASF1463
C:\Users\SOLDER~1\AppData\Local\Temp\ccqxjBbT.s:21411  .debug_str:0000000000009fb1 .LASF1464
C:\Users\SOLDER~1\AppData\Local\Temp\ccqxjBbT.s:27267  .debug_str:0000000000021ae1 .LASF1465
C:\Users\SOLDER~1\AppData\Local\Temp\ccqxjBbT.s:20521  .debug_str:000000000000652a .LASF1466
C:\Users\SOLDER~1\AppData\Local\Temp\ccqxjBbT.s:24621  .debug_str:0000000000016fca .LASF1467
C:\Users\SOLDER~1\AppData\Local\Temp\ccqxjBbT.s:24553  .debug_str:0000000000016baf .LASF1468
C:\Users\SOLDER~1\AppData\Local\Temp\ccqxjBbT.s:20447  .debug_str:0000000000006019 .LASF1469
C:\Users\SOLDER~1\AppData\Local\Temp\ccqxjBbT.s:29603  .debug_str:000000000002b348 .LASF1470
C:\Users\SOLDER~1\AppData\Local\Temp\ccqxjBbT.s:30287  .debug_str:000000000002dfc4 .LASF1471
C:\Users\SOLDER~1\AppData\Local\Temp\ccqxjBbT.s:25835  .debug_str:000000000001bda6 .LASF1472
C:\Users\SOLDER~1\AppData\Local\Temp\ccqxjBbT.s:20597  .debug_str:0000000000006a5c .LASF1473
C:\Users\SOLDER~1\AppData\Local\Temp\ccqxjBbT.s:21627  .debug_str:000000000000ae04 .LASF1474
C:\Users\SOLDER~1\AppData\Local\Temp\ccqxjBbT.s:26215  .debug_str:000000000001d6ab .LASF1475
C:\Users\SOLDER~1\AppData\Local\Temp\ccqxjBbT.s:24829  .debug_str:0000000000017d4c .LASF1476
C:\Users\SOLDER~1\AppData\Local\Temp\ccqxjBbT.s:21827  .debug_str:000000000000ba54 .LASF1477
C:\Users\SOLDER~1\AppData\Local\Temp\ccqxjBbT.s:27747  .debug_str:00000000000239a2 .LASF1478
C:\Users\SOLDER~1\AppData\Local\Temp\ccqxjBbT.s:22341  .debug_str:000000000000dc57 .LASF1479
C:\Users\SOLDER~1\AppData\Local\Temp\ccqxjBbT.s:28667  .debug_str:0000000000027685 .LASF1480
C:\Users\SOLDER~1\AppData\Local\Temp\ccqxjBbT.s:28633  .debug_str:000000000002744e .LASF1481
C:\Users\SOLDER~1\AppData\Local\Temp\ccqxjBbT.s:29361  .debug_str:000000000002a3ce .LASF1482
C:\Users\SOLDER~1\AppData\Local\Temp\ccqxjBbT.s:24899  .debug_str:0000000000018213 .LASF1483
C:\Users\SOLDER~1\AppData\Local\Temp\ccqxjBbT.s:21429  .debug_str:000000000000a0ae .LASF1484
C:\Users\SOLDER~1\AppData\Local\Temp\ccqxjBbT.s:19603  .debug_str:0000000000002aa4 .LASF1485
C:\Users\SOLDER~1\AppData\Local\Temp\ccqxjBbT.s:22289  .debug_str:000000000000d952 .LASF1486
C:\Users\SOLDER~1\AppData\Local\Temp\ccqxjBbT.s:30345  .debug_str:000000000002e358 .LASF1487
GAS LISTING C:\Users\SOLDER~1\AppData\Local\Temp\ccqxjBbT.s 			page 44


C:\Users\SOLDER~1\AppData\Local\Temp\ccqxjBbT.s:23267  .debug_str:000000000001189c .LASF1488
C:\Users\SOLDER~1\AppData\Local\Temp\ccqxjBbT.s:22293  .debug_str:000000000000d999 .LASF1489
C:\Users\SOLDER~1\AppData\Local\Temp\ccqxjBbT.s:30045  .debug_str:000000000002d018 .LASF1490
C:\Users\SOLDER~1\AppData\Local\Temp\ccqxjBbT.s:27943  .debug_str:000000000002467c .LASF1491
C:\Users\SOLDER~1\AppData\Local\Temp\ccqxjBbT.s:29397  .debug_str:000000000002a62f .LASF1492
C:\Users\SOLDER~1\AppData\Local\Temp\ccqxjBbT.s:24779  .debug_str:0000000000017a55 .LASF1493
C:\Users\SOLDER~1\AppData\Local\Temp\ccqxjBbT.s:22081  .debug_str:000000000000cb8a .LASF1494
C:\Users\SOLDER~1\AppData\Local\Temp\ccqxjBbT.s:24347  .debug_str:0000000000015ecf .LASF1495
C:\Users\SOLDER~1\AppData\Local\Temp\ccqxjBbT.s:21475  .debug_str:000000000000a3dd .LASF1496
C:\Users\SOLDER~1\AppData\Local\Temp\ccqxjBbT.s:20459  .debug_str:0000000000006116 .LASF1497
C:\Users\SOLDER~1\AppData\Local\Temp\ccqxjBbT.s:28399  .debug_str:00000000000264e1 .LASF1498
C:\Users\SOLDER~1\AppData\Local\Temp\ccqxjBbT.s:25501  .debug_str:000000000001a866 .LASF1499
C:\Users\SOLDER~1\AppData\Local\Temp\ccqxjBbT.s:22855  .debug_str:000000000000fe1d .LASF1500
C:\Users\SOLDER~1\AppData\Local\Temp\ccqxjBbT.s:28255  .debug_str:0000000000025add .LASF1501
C:\Users\SOLDER~1\AppData\Local\Temp\ccqxjBbT.s:25855  .debug_str:000000000001bf14 .LASF1502
C:\Users\SOLDER~1\AppData\Local\Temp\ccqxjBbT.s:26521  .debug_str:000000000001ea9f .LASF1503
C:\Users\SOLDER~1\AppData\Local\Temp\ccqxjBbT.s:22063  .debug_str:000000000000ca60 .LASF1504
C:\Users\SOLDER~1\AppData\Local\Temp\ccqxjBbT.s:30399  .debug_str:000000000002e6b0 .LASF1505
C:\Users\SOLDER~1\AppData\Local\Temp\ccqxjBbT.s:29457  .debug_str:000000000002a9ba .LASF1506
C:\Users\SOLDER~1\AppData\Local\Temp\ccqxjBbT.s:24521  .debug_str:00000000000169a8 .LASF1507
C:\Users\SOLDER~1\AppData\Local\Temp\ccqxjBbT.s:19595  .debug_str:0000000000002a3e .LASF1508
C:\Users\SOLDER~1\AppData\Local\Temp\ccqxjBbT.s:26029  .debug_str:000000000001cad2 .LASF1509
C:\Users\SOLDER~1\AppData\Local\Temp\ccqxjBbT.s:20485  .debug_str:00000000000062bf .LASF1510
C:\Users\SOLDER~1\AppData\Local\Temp\ccqxjBbT.s:26653  .debug_str:000000000001f34e .LASF1511
C:\Users\SOLDER~1\AppData\Local\Temp\ccqxjBbT.s:21377  .debug_str:0000000000009d60 .LASF1512
C:\Users\SOLDER~1\AppData\Local\Temp\ccqxjBbT.s:21341  .debug_str:0000000000009afd .LASF1513
C:\Users\SOLDER~1\AppData\Local\Temp\ccqxjBbT.s:22055  .debug_str:000000000000c9d4 .LASF1514
C:\Users\SOLDER~1\AppData\Local\Temp\ccqxjBbT.s:29037  .debug_str:0000000000028e67 .LASF1515
C:\Users\SOLDER~1\AppData\Local\Temp\ccqxjBbT.s:26431  .debug_str:000000000001e44b .LASF1516
C:\Users\SOLDER~1\AppData\Local\Temp\ccqxjBbT.s:23925  .debug_str:00000000000143ea .LASF1517
C:\Users\SOLDER~1\AppData\Local\Temp\ccqxjBbT.s:26597  .debug_str:000000000001ef80 .LASF1518
C:\Users\SOLDER~1\AppData\Local\Temp\ccqxjBbT.s:26583  .debug_str:000000000001ee95 .LASF1519
C:\Users\SOLDER~1\AppData\Local\Temp\ccqxjBbT.s:19463  .debug_str:0000000000002178 .LASF1520
C:\Users\SOLDER~1\AppData\Local\Temp\ccqxjBbT.s:30147  .debug_str:000000000002d6b5 .LASF1521
C:\Users\SOLDER~1\AppData\Local\Temp\ccqxjBbT.s:26281  .debug_str:000000000001daa5 .LASF1522
C:\Users\SOLDER~1\AppData\Local\Temp\ccqxjBbT.s:27173  .debug_str:00000000000214d4 .LASF1523
C:\Users\SOLDER~1\AppData\Local\Temp\ccqxjBbT.s:25651  .debug_str:000000000001b1f1 .LASF1524
C:\Users\SOLDER~1\AppData\Local\Temp\ccqxjBbT.s:20971  .debug_str:00000000000082ac .LASF1525
C:\Users\SOLDER~1\AppData\Local\Temp\ccqxjBbT.s:30507  .debug_str:000000000002edd6 .LASF1526
C:\Users\SOLDER~1\AppData\Local\Temp\ccqxjBbT.s:27991  .debug_str:000000000002498e .LASF1527
C:\Users\SOLDER~1\AppData\Local\Temp\ccqxjBbT.s:29325  .debug_str:000000000002a163 .LASF1528
C:\Users\SOLDER~1\AppData\Local\Temp\ccqxjBbT.s:19707  .debug_str:0000000000003124 .LASF1529
C:\Users\SOLDER~1\AppData\Local\Temp\ccqxjBbT.s:24729  .debug_str:000000000001771c .LASF1530
C:\Users\SOLDER~1\AppData\Local\Temp\ccqxjBbT.s:28653  .debug_str:000000000002759e .LASF1531
C:\Users\SOLDER~1\AppData\Local\Temp\ccqxjBbT.s:19025  .debug_str:00000000000004b1 .LASF1532
C:\Users\SOLDER~1\AppData\Local\Temp\ccqxjBbT.s:24577  .debug_str:0000000000016cf5 .LASF1533
C:\Users\SOLDER~1\AppData\Local\Temp\ccqxjBbT.s:21999  .debug_str:000000000000c5e4 .LASF1534
C:\Users\SOLDER~1\AppData\Local\Temp\ccqxjBbT.s:22775  .debug_str:000000000000f878 .LASF1535
C:\Users\SOLDER~1\AppData\Local\Temp\ccqxjBbT.s:29827  .debug_str:000000000002c247 .LASF1536
C:\Users\SOLDER~1\AppData\Local\Temp\ccqxjBbT.s:27533  .debug_str:0000000000022be1 .LASF1537
C:\Users\SOLDER~1\AppData\Local\Temp\ccqxjBbT.s:25723  .debug_str:000000000001b695 .LASF1538
C:\Users\SOLDER~1\AppData\Local\Temp\ccqxjBbT.s:20517  .debug_str:00000000000064e2 .LASF1539
C:\Users\SOLDER~1\AppData\Local\Temp\ccqxjBbT.s:22377  .debug_str:000000000000debc .LASF1540
C:\Users\SOLDER~1\AppData\Local\Temp\ccqxjBbT.s:30337  .debug_str:000000000002e2cb .LASF1541
C:\Users\SOLDER~1\AppData\Local\Temp\ccqxjBbT.s:24843  .debug_str:0000000000017e1c .LASF1542
C:\Users\SOLDER~1\AppData\Local\Temp\ccqxjBbT.s:19349  .debug_str:00000000000019d6 .LASF1543
C:\Users\SOLDER~1\AppData\Local\Temp\ccqxjBbT.s:25691  .debug_str:000000000001b494 .LASF1544
GAS LISTING C:\Users\SOLDER~1\AppData\Local\Temp\ccqxjBbT.s 			page 45


C:\Users\SOLDER~1\AppData\Local\Temp\ccqxjBbT.s:25559  .debug_str:000000000001ac2e .LASF1545
C:\Users\SOLDER~1\AppData\Local\Temp\ccqxjBbT.s:26261  .debug_str:000000000001d959 .LASF1546
C:\Users\SOLDER~1\AppData\Local\Temp\ccqxjBbT.s:21741  .debug_str:000000000000b55e .LASF1547
C:\Users\SOLDER~1\AppData\Local\Temp\ccqxjBbT.s:29945  .debug_str:000000000002c99d .LASF1548
C:\Users\SOLDER~1\AppData\Local\Temp\ccqxjBbT.s:28075  .debug_str:0000000000024f29 .LASF1549
C:\Users\SOLDER~1\AppData\Local\Temp\ccqxjBbT.s:19303  .debug_str:00000000000016f6 .LASF1550
C:\Users\SOLDER~1\AppData\Local\Temp\ccqxjBbT.s:22833  .debug_str:000000000000fcae .LASF1551
C:\Users\SOLDER~1\AppData\Local\Temp\ccqxjBbT.s:27301  .debug_str:0000000000021cfd .LASF1552
C:\Users\SOLDER~1\AppData\Local\Temp\ccqxjBbT.s:26385  .debug_str:000000000001e18e .LASF1553
C:\Users\SOLDER~1\AppData\Local\Temp\ccqxjBbT.s:22531  .debug_str:000000000000e932 .LASF1554
C:\Users\SOLDER~1\AppData\Local\Temp\ccqxjBbT.s:30203  .debug_str:000000000002da52 .LASF1555
C:\Users\SOLDER~1\AppData\Local\Temp\ccqxjBbT.s:20875  .debug_str:0000000000007c24 .LASF1556
C:\Users\SOLDER~1\AppData\Local\Temp\ccqxjBbT.s:28791  .debug_str:0000000000027e94 .LASF1557
C:\Users\SOLDER~1\AppData\Local\Temp\ccqxjBbT.s:26737  .debug_str:000000000001f8cc .LASF1558
C:\Users\SOLDER~1\AppData\Local\Temp\ccqxjBbT.s:19435  .debug_str:0000000000001fb0 .LASF1559
C:\Users\SOLDER~1\AppData\Local\Temp\ccqxjBbT.s:25589  .debug_str:000000000001ae4f .LASF1560
C:\Users\SOLDER~1\AppData\Local\Temp\ccqxjBbT.s:27503  .debug_str:00000000000229c9 .LASF1561
C:\Users\SOLDER~1\AppData\Local\Temp\ccqxjBbT.s:20927  .debug_str:0000000000007fbc .LASF1562
C:\Users\SOLDER~1\AppData\Local\Temp\ccqxjBbT.s:24961  .debug_str:00000000000185d7 .LASF1563
C:\Users\SOLDER~1\AppData\Local\Temp\ccqxjBbT.s:26839  .debug_str:000000000001ff25 .LASF1564
C:\Users\SOLDER~1\AppData\Local\Temp\ccqxjBbT.s:20785  .debug_str:000000000000769a .LASF1565
C:\Users\SOLDER~1\AppData\Local\Temp\ccqxjBbT.s:29853  .debug_str:000000000002c3cf .LASF1566
C:\Users\SOLDER~1\AppData\Local\Temp\ccqxjBbT.s:19033  .debug_str:0000000000000531 .LASF1567
C:\Users\SOLDER~1\AppData\Local\Temp\ccqxjBbT.s:26063  .debug_str:000000000001ccf6 .LASF1568
C:\Users\SOLDER~1\AppData\Local\Temp\ccqxjBbT.s:22887  .debug_str:0000000000010012 .LASF1569
C:\Users\SOLDER~1\AppData\Local\Temp\ccqxjBbT.s:21949  .debug_str:000000000000c23c .LASF1570
C:\Users\SOLDER~1\AppData\Local\Temp\ccqxjBbT.s:28543  .debug_str:0000000000026e51 .LASF1571
C:\Users\SOLDER~1\AppData\Local\Temp\ccqxjBbT.s:24737  .debug_str:000000000001779a .LASF1572
C:\Users\SOLDER~1\AppData\Local\Temp\ccqxjBbT.s:23053  .debug_str:0000000000010adf .LASF1573
C:\Users\SOLDER~1\AppData\Local\Temp\ccqxjBbT.s:29067  .debug_str:000000000002903c .LASF1574
C:\Users\SOLDER~1\AppData\Local\Temp\ccqxjBbT.s:23553  .debug_str:0000000000012a4f .LASF1575
C:\Users\SOLDER~1\AppData\Local\Temp\ccqxjBbT.s:29883  .debug_str:000000000002c5b9 .LASF1576
C:\Users\SOLDER~1\AppData\Local\Temp\ccqxjBbT.s:29851  .debug_str:000000000002c3ab .LASF1577
C:\Users\SOLDER~1\AppData\Local\Temp\ccqxjBbT.s:18995  .debug_str:00000000000002a4 .LASF1578
C:\Users\SOLDER~1\AppData\Local\Temp\ccqxjBbT.s:26041  .debug_str:000000000001cbb4 .LASF1579
C:\Users\SOLDER~1\AppData\Local\Temp\ccqxjBbT.s:22641  .debug_str:000000000000f03c .LASF1580
C:\Users\SOLDER~1\AppData\Local\Temp\ccqxjBbT.s:21635  .debug_str:000000000000aeb2 .LASF1581
C:\Users\SOLDER~1\AppData\Local\Temp\ccqxjBbT.s:23505  .debug_str:00000000000127c3 .LASF1582
C:\Users\SOLDER~1\AppData\Local\Temp\ccqxjBbT.s:19087  .debug_str:0000000000000989 .LASF1583
C:\Users\SOLDER~1\AppData\Local\Temp\ccqxjBbT.s:23595  .debug_str:0000000000012d45 .LASF1584
C:\Users\SOLDER~1\AppData\Local\Temp\ccqxjBbT.s:22631  .debug_str:000000000000ef8f .LASF1585
C:\Users\SOLDER~1\AppData\Local\Temp\ccqxjBbT.s:30299  .debug_str:000000000002e078 .LASF1586
C:\Users\SOLDER~1\AppData\Local\Temp\ccqxjBbT.s:28199  .debug_str:00000000000256ed .LASF1587
C:\Users\SOLDER~1\AppData\Local\Temp\ccqxjBbT.s:29731  .debug_str:000000000002bb7f .LASF1588
C:\Users\SOLDER~1\AppData\Local\Temp\ccqxjBbT.s:25103  .debug_str:0000000000018f47 .LASF1589
C:\Users\SOLDER~1\AppData\Local\Temp\ccqxjBbT.s:23007  .debug_str:00000000000107ad .LASF1590
C:\Users\SOLDER~1\AppData\Local\Temp\ccqxjBbT.s:24593  .debug_str:0000000000016ddb .LASF1591
C:\Users\SOLDER~1\AppData\Local\Temp\ccqxjBbT.s:21825  .debug_str:000000000000ba2f .LASF1592
C:\Users\SOLDER~1\AppData\Local\Temp\ccqxjBbT.s:23829  .debug_str:0000000000013d62 .LASF1593
C:\Users\SOLDER~1\AppData\Local\Temp\ccqxjBbT.s:28743  .debug_str:0000000000027b4b .LASF1594
C:\Users\SOLDER~1\AppData\Local\Temp\ccqxjBbT.s:21157  .debug_str:0000000000008ec7 .LASF1595
C:\Users\SOLDER~1\AppData\Local\Temp\ccqxjBbT.s:23115  .debug_str:0000000000010eb2 .LASF1596
C:\Users\SOLDER~1\AppData\Local\Temp\ccqxjBbT.s:28503  .debug_str:0000000000026be6 .LASF1597
C:\Users\SOLDER~1\AppData\Local\Temp\ccqxjBbT.s:26089  .debug_str:000000000001ce95 .LASF1598
C:\Users\SOLDER~1\AppData\Local\Temp\ccqxjBbT.s:28757  .debug_str:0000000000027c4c .LASF1599
C:\Users\SOLDER~1\AppData\Local\Temp\ccqxjBbT.s:22313  .debug_str:000000000000dab9 .LASF1600
C:\Users\SOLDER~1\AppData\Local\Temp\ccqxjBbT.s:19137  .debug_str:0000000000000d03 .LASF1601
GAS LISTING C:\Users\SOLDER~1\AppData\Local\Temp\ccqxjBbT.s 			page 46


C:\Users\SOLDER~1\AppData\Local\Temp\ccqxjBbT.s:29799  .debug_str:000000000002c039 .LASF1602
C:\Users\SOLDER~1\AppData\Local\Temp\ccqxjBbT.s:24775  .debug_str:0000000000017a0c .LASF1603
C:\Users\SOLDER~1\AppData\Local\Temp\ccqxjBbT.s:27647  .debug_str:0000000000023350 .LASF1604
C:\Users\SOLDER~1\AppData\Local\Temp\ccqxjBbT.s:29929  .debug_str:000000000002c88d .LASF1605
C:\Users\SOLDER~1\AppData\Local\Temp\ccqxjBbT.s:24421  .debug_str:000000000001636c .LASF1606
C:\Users\SOLDER~1\AppData\Local\Temp\ccqxjBbT.s:18965  .debug_str:00000000000000e7 .LASF1607
C:\Users\SOLDER~1\AppData\Local\Temp\ccqxjBbT.s:25217  .debug_str:00000000000196f3 .LASF1608
C:\Users\SOLDER~1\AppData\Local\Temp\ccqxjBbT.s:25187  .debug_str:00000000000194ae .LASF1609
C:\Users\SOLDER~1\AppData\Local\Temp\ccqxjBbT.s:25877  .debug_str:000000000001c065 .LASF1610
C:\Users\SOLDER~1\AppData\Local\Temp\ccqxjBbT.s:21347  .debug_str:0000000000009b5c .LASF1611
C:\Users\SOLDER~1\AppData\Local\Temp\ccqxjBbT.s:29541  .debug_str:000000000002af08 .LASF1612
C:\Users\SOLDER~1\AppData\Local\Temp\ccqxjBbT.s:27743  .debug_str:0000000000023965 .LASF1613
C:\Users\SOLDER~1\AppData\Local\Temp\ccqxjBbT.s:30415  .debug_str:000000000002e7d0 .LASF1614
C:\Users\SOLDER~1\AppData\Local\Temp\ccqxjBbT.s:23907  .debug_str:000000000001427e .LASF1615
C:\Users\SOLDER~1\AppData\Local\Temp\ccqxjBbT.s:22411  .debug_str:000000000000e12a .LASF1616
C:\Users\SOLDER~1\AppData\Local\Temp\ccqxjBbT.s:26713  .debug_str:000000000001f767 .LASF1617
C:\Users\SOLDER~1\AppData\Local\Temp\ccqxjBbT.s:19647  .debug_str:0000000000002d42 .LASF1618
C:\Users\SOLDER~1\AppData\Local\Temp\ccqxjBbT.s:27051  .debug_str:0000000000020cd5 .LASF1619
C:\Users\SOLDER~1\AppData\Local\Temp\ccqxjBbT.s:28551  .debug_str:0000000000026ed7 .LASF1620
C:\Users\SOLDER~1\AppData\Local\Temp\ccqxjBbT.s:23937  .debug_str:00000000000144be .LASF1621
C:\Users\SOLDER~1\AppData\Local\Temp\ccqxjBbT.s:21009  .debug_str:0000000000008500 .LASF1622
C:\Users\SOLDER~1\AppData\Local\Temp\ccqxjBbT.s:23415  .debug_str:00000000000121f1 .LASF1623
C:\Users\SOLDER~1\AppData\Local\Temp\ccqxjBbT.s:20669  .debug_str:0000000000006f17 .LASF1624
C:\Users\SOLDER~1\AppData\Local\Temp\ccqxjBbT.s:22627  .debug_str:000000000000ef44 .LASF1625
C:\Users\SOLDER~1\AppData\Local\Temp\ccqxjBbT.s:27575  .debug_str:0000000000022e8a .LASF1626
C:\Users\SOLDER~1\AppData\Local\Temp\ccqxjBbT.s:19987  .debug_str:0000000000004307 .LASF1627
C:\Users\SOLDER~1\AppData\Local\Temp\ccqxjBbT.s:21917  .debug_str:000000000000bffe .LASF1628
C:\Users\SOLDER~1\AppData\Local\Temp\ccqxjBbT.s:27337  .debug_str:0000000000021f26 .LASF1629
C:\Users\SOLDER~1\AppData\Local\Temp\ccqxjBbT.s:24987  .debug_str:000000000001878e .LASF1630
C:\Users\SOLDER~1\AppData\Local\Temp\ccqxjBbT.s:25705  .debug_str:000000000001b57d .LASF1631
C:\Users\SOLDER~1\AppData\Local\Temp\ccqxjBbT.s:21163  .debug_str:0000000000008f2c .LASF1632
C:\Users\SOLDER~1\AppData\Local\Temp\ccqxjBbT.s:29551  .debug_str:000000000002afb2 .LASF1633
C:\Users\SOLDER~1\AppData\Local\Temp\ccqxjBbT.s:28625  .debug_str:00000000000273c8 .LASF1634
C:\Users\SOLDER~1\AppData\Local\Temp\ccqxjBbT.s:28109  .debug_str:000000000002511d .LASF1635
C:\Users\SOLDER~1\AppData\Local\Temp\ccqxjBbT.s:25249  .debug_str:000000000001989b .LASF1636
C:\Users\SOLDER~1\AppData\Local\Temp\ccqxjBbT.s:22623  .debug_str:000000000000eefe .LASF1637
C:\Users\SOLDER~1\AppData\Local\Temp\ccqxjBbT.s:28569  .debug_str:0000000000026ff8 .LASF1638
C:\Users\SOLDER~1\AppData\Local\Temp\ccqxjBbT.s:23177  .debug_str:00000000000112d3 .LASF1639
C:\Users\SOLDER~1\AppData\Local\Temp\ccqxjBbT.s:29475  .debug_str:000000000002aada .LASF1640
C:\Users\SOLDER~1\AppData\Local\Temp\ccqxjBbT.s:27829  .debug_str:0000000000023f03 .LASF1641
C:\Users\SOLDER~1\AppData\Local\Temp\ccqxjBbT.s:30173  .debug_str:000000000002d888 .LASF1642
C:\Users\SOLDER~1\AppData\Local\Temp\ccqxjBbT.s:25657  .debug_str:000000000001b25a .LASF1643
C:\Users\SOLDER~1\AppData\Local\Temp\ccqxjBbT.s:22233  .debug_str:000000000000d5b3 .LASF1644
C:\Users\SOLDER~1\AppData\Local\Temp\ccqxjBbT.s:20389  .debug_str:0000000000005c46 .LASF1645
C:\Users\SOLDER~1\AppData\Local\Temp\ccqxjBbT.s:23123  .debug_str:0000000000010f37 .LASF1646
C:\Users\SOLDER~1\AppData\Local\Temp\ccqxjBbT.s:25767  .debug_str:000000000001b922 .LASF1647
C:\Users\SOLDER~1\AppData\Local\Temp\ccqxjBbT.s:30275  .debug_str:000000000002df11 .LASF1648
C:\Users\SOLDER~1\AppData\Local\Temp\ccqxjBbT.s:29231  .debug_str:0000000000029ae8 .LASF1649
C:\Users\SOLDER~1\AppData\Local\Temp\ccqxjBbT.s:25401  .debug_str:000000000001a1ce .LASF1650
C:\Users\SOLDER~1\AppData\Local\Temp\ccqxjBbT.s:23325  .debug_str:0000000000011c32 .LASF1651
C:\Users\SOLDER~1\AppData\Local\Temp\ccqxjBbT.s:24877  .debug_str:000000000001808c .LASF1652
C:\Users\SOLDER~1\AppData\Local\Temp\ccqxjBbT.s:20143  .debug_str:0000000000004cee .LASF1653
C:\Users\SOLDER~1\AppData\Local\Temp\ccqxjBbT.s:24039  .debug_str:0000000000014b9a .LASF1654
C:\Users\SOLDER~1\AppData\Local\Temp\ccqxjBbT.s:19643  .debug_str:0000000000002d01 .LASF1655
C:\Users\SOLDER~1\AppData\Local\Temp\ccqxjBbT.s:28483  .debug_str:0000000000026a81 .LASF1656
C:\Users\SOLDER~1\AppData\Local\Temp\ccqxjBbT.s:30481  .debug_str:000000000002ec50 .LASF1657
C:\Users\SOLDER~1\AppData\Local\Temp\ccqxjBbT.s:19753  .debug_str:0000000000003435 .LASF1658
GAS LISTING C:\Users\SOLDER~1\AppData\Local\Temp\ccqxjBbT.s 			page 47


C:\Users\SOLDER~1\AppData\Local\Temp\ccqxjBbT.s:27799  .debug_str:0000000000023d14 .LASF1659
C:\Users\SOLDER~1\AppData\Local\Temp\ccqxjBbT.s:29769  .debug_str:000000000002bdf8 .LASF1660
C:\Users\SOLDER~1\AppData\Local\Temp\ccqxjBbT.s:23639  .debug_str:000000000001300f .LASF1661
C:\Users\SOLDER~1\AppData\Local\Temp\ccqxjBbT.s:21185  .debug_str:00000000000090ae .LASF1662
C:\Users\SOLDER~1\AppData\Local\Temp\ccqxjBbT.s:23949  .debug_str:000000000001457e .LASF1663
C:\Users\SOLDER~1\AppData\Local\Temp\ccqxjBbT.s:28981  .debug_str:0000000000028b00 .LASF1664
C:\Users\SOLDER~1\AppData\Local\Temp\ccqxjBbT.s:25813  .debug_str:000000000001bc15 .LASF1665
C:\Users\SOLDER~1\AppData\Local\Temp\ccqxjBbT.s:24933  .debug_str:000000000001842a .LASF1666
C:\Users\SOLDER~1\AppData\Local\Temp\ccqxjBbT.s:19813  .debug_str:00000000000037f4 .LASF1667
C:\Users\SOLDER~1\AppData\Local\Temp\ccqxjBbT.s:21453  .debug_str:000000000000a267 .LASF1668
C:\Users\SOLDER~1\AppData\Local\Temp\ccqxjBbT.s:26823  .debug_str:000000000001fe25 .LASF1669
C:\Users\SOLDER~1\AppData\Local\Temp\ccqxjBbT.s:21287  .debug_str:0000000000009766 .LASF1670
C:\Users\SOLDER~1\AppData\Local\Temp\ccqxjBbT.s:27403  .debug_str:00000000000222ef .LASF1671
C:\Users\SOLDER~1\AppData\Local\Temp\ccqxjBbT.s:22177  .debug_str:000000000000d1f7 .LASF1672
C:\Users\SOLDER~1\AppData\Local\Temp\ccqxjBbT.s:22135  .debug_str:000000000000cf31 .LASF1673
C:\Users\SOLDER~1\AppData\Local\Temp\ccqxjBbT.s:22883  .debug_str:000000000000ffca .LASF1674
C:\Users\SOLDER~1\AppData\Local\Temp\ccqxjBbT.s:29857  .debug_str:000000000002c41d .LASF1675
C:\Users\SOLDER~1\AppData\Local\Temp\ccqxjBbT.s:26441  .debug_str:000000000001e4fc .LASF1676
C:\Users\SOLDER~1\AppData\Local\Temp\ccqxjBbT.s:24745  .debug_str:0000000000017835 .LASF1677
C:\Users\SOLDER~1\AppData\Local\Temp\ccqxjBbT.s:27351  .debug_str:0000000000021ff7 .LASF1678
C:\Users\SOLDER~1\AppData\Local\Temp\ccqxjBbT.s:21989  .debug_str:000000000000c51f .LASF1679
C:\Users\SOLDER~1\AppData\Local\Temp\ccqxjBbT.s:29671  .debug_str:000000000002b7ae .LASF1680
C:\Users\SOLDER~1\AppData\Local\Temp\ccqxjBbT.s:25485  .debug_str:000000000001a74b .LASF1681
C:\Users\SOLDER~1\AppData\Local\Temp\ccqxjBbT.s:21623  .debug_str:000000000000adba .LASF1682
C:\Users\SOLDER~1\AppData\Local\Temp\ccqxjBbT.s:19561  .debug_str:00000000000027dd .LASF1683
C:\Users\SOLDER~1\AppData\Local\Temp\ccqxjBbT.s:21073  .debug_str:00000000000088fe .LASF1684
C:\Users\SOLDER~1\AppData\Local\Temp\ccqxjBbT.s:27865  .debug_str:0000000000024167 .LASF1685
C:\Users\SOLDER~1\AppData\Local\Temp\ccqxjBbT.s:25909  .debug_str:000000000001c2bb .LASF1686
C:\Users\SOLDER~1\AppData\Local\Temp\ccqxjBbT.s:29959  .debug_str:000000000002ca74 .LASF1687
C:\Users\SOLDER~1\AppData\Local\Temp\ccqxjBbT.s:24809  .debug_str:0000000000017c17 .LASF1688
C:\Users\SOLDER~1\AppData\Local\Temp\ccqxjBbT.s:26271  .debug_str:000000000001da04 .LASF1689
C:\Users\SOLDER~1\AppData\Local\Temp\ccqxjBbT.s:20091  .debug_str:00000000000049a4 .LASF1690
C:\Users\SOLDER~1\AppData\Local\Temp\ccqxjBbT.s:24031  .debug_str:0000000000014b14 .LASF1691
C:\Users\SOLDER~1\AppData\Local\Temp\ccqxjBbT.s:26015  .debug_str:000000000001c9c8 .LASF1692
C:\Users\SOLDER~1\AppData\Local\Temp\ccqxjBbT.s:19871  .debug_str:0000000000003bbe .LASF1693
C:\Users\SOLDER~1\AppData\Local\Temp\ccqxjBbT.s:29005  .debug_str:0000000000028c51 .LASF1694
C:\Users\SOLDER~1\AppData\Local\Temp\ccqxjBbT.s:29783  .debug_str:000000000002bf05 .LASF1695
C:\Users\SOLDER~1\AppData\Local\Temp\ccqxjBbT.s:22275  .debug_str:000000000000d877 .LASF1696
C:\Users\SOLDER~1\AppData\Local\Temp\ccqxjBbT.s:22033  .debug_str:000000000000c828 .LASF1697
C:\Users\SOLDER~1\AppData\Local\Temp\ccqxjBbT.s:21135  .debug_str:0000000000008d28 .LASF1698
C:\Users\SOLDER~1\AppData\Local\Temp\ccqxjBbT.s:22537  .debug_str:000000000000e997 .LASF1699
C:\Users\SOLDER~1\AppData\Local\Temp\ccqxjBbT.s:29309  .debug_str:000000000002a037 .LASF1700
C:\Users\SOLDER~1\AppData\Local\Temp\ccqxjBbT.s:25865  .debug_str:000000000001bf9c .LASF1701
C:\Users\SOLDER~1\AppData\Local\Temp\ccqxjBbT.s:25591  .debug_str:000000000001ae74 .LASF1702
C:\Users\SOLDER~1\AppData\Local\Temp\ccqxjBbT.s:19747  .debug_str:00000000000033c8 .LASF1703
C:\Users\SOLDER~1\AppData\Local\Temp\ccqxjBbT.s:26471  .debug_str:000000000001e725 .LASF1704
C:\Users\SOLDER~1\AppData\Local\Temp\ccqxjBbT.s:26345  .debug_str:000000000001df19 .LASF1705
C:\Users\SOLDER~1\AppData\Local\Temp\ccqxjBbT.s:27053  .debug_str:0000000000020cfb .LASF1706
C:\Users\SOLDER~1\AppData\Local\Temp\ccqxjBbT.s:22547  .debug_str:000000000000ea40 .LASF1707
C:\Users\SOLDER~1\AppData\Local\Temp\ccqxjBbT.s:19167  .debug_str:0000000000000ee1 .LASF1708
C:\Users\SOLDER~1\AppData\Local\Temp\ccqxjBbT.s:28961  .debug_str:00000000000289c1 .LASF1709
C:\Users\SOLDER~1\AppData\Local\Temp\ccqxjBbT.s:20075  .debug_str:00000000000048bb .LASF1710
C:\Users\SOLDER~1\AppData\Local\Temp\ccqxjBbT.s:29845  .debug_str:000000000002c35b .LASF1711
C:\Users\SOLDER~1\AppData\Local\Temp\ccqxjBbT.s:22669  .debug_str:000000000000f1e0 .LASF1712
C:\Users\SOLDER~1\AppData\Local\Temp\ccqxjBbT.s:21707  .debug_str:000000000000b318 .LASF1713
C:\Users\SOLDER~1\AppData\Local\Temp\ccqxjBbT.s:29455  .debug_str:000000000002a994 .LASF1714
C:\Users\SOLDER~1\AppData\Local\Temp\ccqxjBbT.s:27359  .debug_str:0000000000022075 .LASF1715
GAS LISTING C:\Users\SOLDER~1\AppData\Local\Temp\ccqxjBbT.s 			page 48


C:\Users\SOLDER~1\AppData\Local\Temp\ccqxjBbT.s:23723  .debug_str:00000000000135c4 .LASF1716
C:\Users\SOLDER~1\AppData\Local\Temp\ccqxjBbT.s:24173  .debug_str:000000000001541f .LASF1717
C:\Users\SOLDER~1\AppData\Local\Temp\ccqxjBbT.s:30377  .debug_str:000000000002e55f .LASF1718
C:\Users\SOLDER~1\AppData\Local\Temp\ccqxjBbT.s:23765  .debug_str:00000000000138ad .LASF1719
C:\Users\SOLDER~1\AppData\Local\Temp\ccqxjBbT.s:21003  .debug_str:000000000000848c .LASF1720
C:\Users\SOLDER~1\AppData\Local\Temp\ccqxjBbT.s:22987  .debug_str:000000000001068e .LASF1721
C:\Users\SOLDER~1\AppData\Local\Temp\ccqxjBbT.s:20757  .debug_str:00000000000074eb .LASF1722
C:\Users\SOLDER~1\AppData\Local\Temp\ccqxjBbT.s:20229  .debug_str:0000000000005218 .LASF1723
C:\Users\SOLDER~1\AppData\Local\Temp\ccqxjBbT.s:22255  .debug_str:000000000000d703 .LASF1724
C:\Users\SOLDER~1\AppData\Local\Temp\ccqxjBbT.s:27669  .debug_str:00000000000234d3 .LASF1725
C:\Users\SOLDER~1\AppData\Local\Temp\ccqxjBbT.s:25295  .debug_str:0000000000019b3e .LASF1726
C:\Users\SOLDER~1\AppData\Local\Temp\ccqxjBbT.s:26027  .debug_str:000000000001caac .LASF1727
C:\Users\SOLDER~1\AppData\Local\Temp\ccqxjBbT.s:21477  .debug_str:000000000000a402 .LASF1728
C:\Users\SOLDER~1\AppData\Local\Temp\ccqxjBbT.s:29889  .debug_str:000000000002c616 .LASF1729
C:\Users\SOLDER~1\AppData\Local\Temp\ccqxjBbT.s:28959  .debug_str:000000000002899b .LASF1730
C:\Users\SOLDER~1\AppData\Local\Temp\ccqxjBbT.s:23931  .debug_str:000000000001445f .LASF1731
C:\Users\SOLDER~1\AppData\Local\Temp\ccqxjBbT.s:25569  .debug_str:000000000001ad0f .LASF1732
C:\Users\SOLDER~1\AppData\Local\Temp\ccqxjBbT.s:22235  .debug_str:000000000000d5d8 .LASF1733
C:\Users\SOLDER~1\AppData\Local\Temp\ccqxjBbT.s:28263  .debug_str:0000000000025b5b .LASF1734
C:\Users\SOLDER~1\AppData\Local\Temp\ccqxjBbT.s:22869  .debug_str:000000000000feef .LASF1735
C:\Users\SOLDER~1\AppData\Local\Temp\ccqxjBbT.s:19875  .debug_str:0000000000003bfb .LASF1736
C:\Users\SOLDER~1\AppData\Local\Temp\ccqxjBbT.s:29155  .debug_str:000000000002963c .LASF1737
C:\Users\SOLDER~1\AppData\Local\Temp\ccqxjBbT.s:29877  .debug_str:000000000002c54b .LASF1738
C:\Users\SOLDER~1\AppData\Local\Temp\ccqxjBbT.s:25381  .debug_str:000000000001a096 .LASF1739
C:\Users\SOLDER~1\AppData\Local\Temp\ccqxjBbT.s:21859  .debug_str:000000000000bc59 .LASF1740
C:\Users\SOLDER~1\AppData\Local\Temp\ccqxjBbT.s:20571  .debug_str:00000000000068c0 .LASF1741
C:\Users\SOLDER~1\AppData\Local\Temp\ccqxjBbT.s:22813  .debug_str:000000000000fb2c .LASF1742
C:\Users\SOLDER~1\AppData\Local\Temp\ccqxjBbT.s:24417  .debug_str:0000000000016333 .LASF1743
C:\Users\SOLDER~1\AppData\Local\Temp\ccqxjBbT.s:19825  .debug_str:00000000000038b8 .LASF1744
C:\Users\SOLDER~1\AppData\Local\Temp\ccqxjBbT.s:20375  .debug_str:0000000000005b91 .LASF1745
C:\Users\SOLDER~1\AppData\Local\Temp\ccqxjBbT.s:28095  .debug_str:000000000002505a .LASF1746
C:\Users\SOLDER~1\AppData\Local\Temp\ccqxjBbT.s:25971  .debug_str:000000000001c6f0 .LASF1747
C:\Users\SOLDER~1\AppData\Local\Temp\ccqxjBbT.s:22951  .debug_str:0000000000010439 .LASF1748
C:\Users\SOLDER~1\AppData\Local\Temp\ccqxjBbT.s:22819  .debug_str:000000000000fb8c .LASF1749
C:\Users\SOLDER~1\AppData\Local\Temp\ccqxjBbT.s:20741  .debug_str:00000000000073e6 .LASF1750
C:\Users\SOLDER~1\AppData\Local\Temp\ccqxjBbT.s:22385  .debug_str:000000000000df4c .LASF1751
C:\Users\SOLDER~1\AppData\Local\Temp\ccqxjBbT.s:27733  .debug_str:00000000000238f1 .LASF1752
C:\Users\SOLDER~1\AppData\Local\Temp\ccqxjBbT.s:21527  .debug_str:000000000000a789 .LASF1753
C:\Users\SOLDER~1\AppData\Local\Temp\ccqxjBbT.s:26513  .debug_str:000000000001ea1d .LASF1754
C:\Users\SOLDER~1\AppData\Local\Temp\ccqxjBbT.s:30523  .debug_str:000000000002eed7 .LASF1755
C:\Users\SOLDER~1\AppData\Local\Temp\ccqxjBbT.s:20845  .debug_str:0000000000007a29 .LASF1756
C:\Users\SOLDER~1\AppData\Local\Temp\ccqxjBbT.s:26371  .debug_str:000000000001e095 .LASF1757
C:\Users\SOLDER~1\AppData\Local\Temp\ccqxjBbT.s:23877  .debug_str:0000000000014095 .LASF1758
C:\Users\SOLDER~1\AppData\Local\Temp\ccqxjBbT.s:24643  .debug_str:0000000000017143 .LASF1759
C:\Users\SOLDER~1\AppData\Local\Temp\ccqxjBbT.s:20061  .debug_str:00000000000047cc .LASF1760
C:\Users\SOLDER~1\AppData\Local\Temp\ccqxjBbT.s:28431  .debug_str:00000000000266ee .LASF1761
C:\Users\SOLDER~1\AppData\Local\Temp\ccqxjBbT.s:27511  .debug_str:0000000000022a6c .LASF1762
C:\Users\SOLDER~1\AppData\Local\Temp\ccqxjBbT.s:22561  .debug_str:000000000000eb20 .LASF1763
C:\Users\SOLDER~1\AppData\Local\Temp\ccqxjBbT.s:24251  .debug_str:00000000000158f9 .LASF1764
C:\Users\SOLDER~1\AppData\Local\Temp\ccqxjBbT.s:26543  .debug_str:000000000001ebfe .LASF1765
C:\Users\SOLDER~1\AppData\Local\Temp\ccqxjBbT.s:20997  .debug_str:0000000000008432 .LASF1766
C:\Users\SOLDER~1\AppData\Local\Temp\ccqxjBbT.s:27125  .debug_str:00000000000211d4 .LASF1767
C:\Users\SOLDER~1\AppData\Local\Temp\ccqxjBbT.s:21881  .debug_str:000000000000bdaa .LASF1768
C:\Users\SOLDER~1\AppData\Local\Temp\ccqxjBbT.s:19499  .debug_str:00000000000023dc .LASF1769
C:\Users\SOLDER~1\AppData\Local\Temp\ccqxjBbT.s:22477  .debug_str:000000000000e5ab .LASF1770
C:\Users\SOLDER~1\AppData\Local\Temp\ccqxjBbT.s:23361  .debug_str:0000000000011e9b .LASF1771
C:\Users\SOLDER~1\AppData\Local\Temp\ccqxjBbT.s:26151  .debug_str:000000000001d296 .LASF1772
GAS LISTING C:\Users\SOLDER~1\AppData\Local\Temp\ccqxjBbT.s 			page 49


C:\Users\SOLDER~1\AppData\Local\Temp\ccqxjBbT.s:24437  .debug_str:0000000000016487 .LASF1773
C:\Users\SOLDER~1\AppData\Local\Temp\ccqxjBbT.s:27083  .debug_str:0000000000020ee8 .LASF1774
C:\Users\SOLDER~1\AppData\Local\Temp\ccqxjBbT.s:24709  .debug_str:00000000000175cc .LASF1775
C:\Users\SOLDER~1\AppData\Local\Temp\ccqxjBbT.s:29173  .debug_str:0000000000029746 .LASF1776
C:\Users\SOLDER~1\AppData\Local\Temp\ccqxjBbT.s:28197  .debug_str:00000000000256c8 .LASF1777
C:\Users\SOLDER~1\AppData\Local\Temp\ccqxjBbT.s:24413  .debug_str:00000000000162f3 .LASF1778
C:\Users\SOLDER~1\AppData\Local\Temp\ccqxjBbT.s:22209  .debug_str:000000000000d414 .LASF1779
C:\Users\SOLDER~1\AppData\Local\Temp\ccqxjBbT.s:23759  .debug_str:000000000001383f .LASF1780
C:\Users\SOLDER~1\AppData\Local\Temp\ccqxjBbT.s:19075  .debug_str:0000000000000884 .LASF1781
C:\Users\SOLDER~1\AppData\Local\Temp\ccqxjBbT.s:28549  .debug_str:0000000000026eb2 .LASF1782
C:\Users\SOLDER~1\AppData\Local\Temp\ccqxjBbT.s:30241  .debug_str:000000000002dcd3 .LASF1783
C:\Users\SOLDER~1\AppData\Local\Temp\ccqxjBbT.s:27377  .debug_str:0000000000022172 .LASF1784
C:\Users\SOLDER~1\AppData\Local\Temp\ccqxjBbT.s:26807  .debug_str:000000000001fd24 .LASF1785
C:\Users\SOLDER~1\AppData\Local\Temp\ccqxjBbT.s:22765  .debug_str:000000000000f7bf .LASF1786
C:\Users\SOLDER~1\AppData\Local\Temp\ccqxjBbT.s:26749  .debug_str:000000000001f979 .LASF1787
C:\Users\SOLDER~1\AppData\Local\Temp\ccqxjBbT.s:28659  .debug_str:0000000000027606 .LASF1788
C:\Users\SOLDER~1\AppData\Local\Temp\ccqxjBbT.s:22617  .debug_str:000000000000ee9a .LASF1789
C:\Users\SOLDER~1\AppData\Local\Temp\ccqxjBbT.s:20079  .debug_str:00000000000048fa .LASF1790
C:\Users\SOLDER~1\AppData\Local\Temp\ccqxjBbT.s:20853  .debug_str:0000000000007ab7 .LASF1791
C:\Users\SOLDER~1\AppData\Local\Temp\ccqxjBbT.s:27873  .debug_str:00000000000241d9 .LASF1792
C:\Users\SOLDER~1\AppData\Local\Temp\ccqxjBbT.s:24765  .debug_str:000000000001794a .LASF1793
C:\Users\SOLDER~1\AppData\Local\Temp\ccqxjBbT.s:23835  .debug_str:0000000000013dc6 .LASF1794
C:\Users\SOLDER~1\AppData\Local\Temp\ccqxjBbT.s:30423  .debug_str:000000000002e855 .LASF1795
C:\Users\SOLDER~1\AppData\Local\Temp\ccqxjBbT.s:20371  .debug_str:0000000000005b48 .LASF1796
C:\Users\SOLDER~1\AppData\Local\Temp\ccqxjBbT.s:19259  .debug_str:0000000000001416 .LASF1797
C:\Users\SOLDER~1\AppData\Local\Temp\ccqxjBbT.s:25317  .debug_str:0000000000019c9d .LASF1798
C:\Users\SOLDER~1\AppData\Local\Temp\ccqxjBbT.s:19851  .debug_str:0000000000003a6f .LASF1799
C:\Users\SOLDER~1\AppData\Local\Temp\ccqxjBbT.s:26093  .debug_str:000000000001ceda .LASF1800
C:\Users\SOLDER~1\AppData\Local\Temp\ccqxjBbT.s:26055  .debug_str:000000000001cc71 .LASF1801
C:\Users\SOLDER~1\AppData\Local\Temp\ccqxjBbT.s:26773  .debug_str:000000000001faff .LASF1802
C:\Users\SOLDER~1\AppData\Local\Temp\ccqxjBbT.s:23101  .debug_str:0000000000010db3 .LASF1803
C:\Users\SOLDER~1\AppData\Local\Temp\ccqxjBbT.s:30461  .debug_str:000000000002eb00 .LASF1804
C:\Users\SOLDER~1\AppData\Local\Temp\ccqxjBbT.s:28671  .debug_str:00000000000276d5 .LASF1805
C:\Users\SOLDER~1\AppData\Local\Temp\ccqxjBbT.s:19797  .debug_str:00000000000036eb .LASF1806
C:\Users\SOLDER~1\AppData\Local\Temp\ccqxjBbT.s:20911  .debug_str:0000000000007ea6 .LASF1807
C:\Users\SOLDER~1\AppData\Local\Temp\ccqxjBbT.s:26645  .debug_str:000000000001f2c7 .LASF1808
C:\Users\SOLDER~1\AppData\Local\Temp\ccqxjBbT.s:24511  .debug_str:00000000000168fc .LASF1809
C:\Users\SOLDER~1\AppData\Local\Temp\ccqxjBbT.s:20525  .debug_str:0000000000006570 .LASF1810
C:\Users\SOLDER~1\AppData\Local\Temp\ccqxjBbT.s:30063  .debug_str:000000000002d17d .LASF1811
C:\Users\SOLDER~1\AppData\Local\Temp\ccqxjBbT.s:19957  .debug_str:0000000000004133 .LASF1812
C:\Users\SOLDER~1\AppData\Local\Temp\ccqxjBbT.s:26887  .debug_str:0000000000020230 .LASF1813
C:\Users\SOLDER~1\AppData\Local\Temp\ccqxjBbT.s:24717  .debug_str:000000000001764d .LASF1814
C:\Users\SOLDER~1\AppData\Local\Temp\ccqxjBbT.s:26387  .debug_str:000000000001e1b3 .LASF1815
C:\Users\SOLDER~1\AppData\Local\Temp\ccqxjBbT.s:23689  .debug_str:0000000000013369 .LASF1816
C:\Users\SOLDER~1\AppData\Local\Temp\ccqxjBbT.s:25631  .debug_str:000000000001b0ae .LASF1817
C:\Users\SOLDER~1\AppData\Local\Temp\ccqxjBbT.s:19027  .debug_str:00000000000004d6 .LASF1818
C:\Users\SOLDER~1\AppData\Local\Temp\ccqxjBbT.s:23019  .debug_str:0000000000010877 .LASF1819
C:\Users\SOLDER~1\AppData\Local\Temp\ccqxjBbT.s:24971  .debug_str:000000000001868a .LASF1820
C:\Users\SOLDER~1\AppData\Local\Temp\ccqxjBbT.s:30385  .debug_str:000000000002e5eb .LASF1821
C:\Users\SOLDER~1\AppData\Local\Temp\ccqxjBbT.s:26337  .debug_str:000000000001de86 .LASF1822
C:\Users\SOLDER~1\AppData\Local\Temp\ccqxjBbT.s:29131  .debug_str:0000000000029498 .LASF1823
C:\Users\SOLDER~1\AppData\Local\Temp\ccqxjBbT.s:24185  .debug_str:00000000000154d0 .LASF1824
C:\Users\SOLDER~1\AppData\Local\Temp\ccqxjBbT.s:20953  .debug_str:0000000000008184 .LASF1825
C:\Users\SOLDER~1\AppData\Local\Temp\ccqxjBbT.s:20031  .debug_str:00000000000045c5 .LASF1826
C:\Users\SOLDER~1\AppData\Local\Temp\ccqxjBbT.s:26557  .debug_str:000000000001ece3 .LASF1827
C:\Users\SOLDER~1\AppData\Local\Temp\ccqxjBbT.s:28193  .debug_str:0000000000025681 .LASF1828
C:\Users\SOLDER~1\AppData\Local\Temp\ccqxjBbT.s:23539  .debug_str:00000000000129bf .LASF1829
GAS LISTING C:\Users\SOLDER~1\AppData\Local\Temp\ccqxjBbT.s 			page 50


C:\Users\SOLDER~1\AppData\Local\Temp\ccqxjBbT.s:29485  .debug_str:000000000002ab93 .LASF1830
C:\Users\SOLDER~1\AppData\Local\Temp\ccqxjBbT.s:24085  .debug_str:0000000000014ead .LASF1831
C:\Users\SOLDER~1\AppData\Local\Temp\ccqxjBbT.s:30409  .debug_str:000000000002e754 .LASF1832
C:\Users\SOLDER~1\AppData\Local\Temp\ccqxjBbT.s:28809  .debug_str:0000000000027fce .LASF1833
C:\Users\SOLDER~1\AppData\Local\Temp\ccqxjBbT.s:19477  .debug_str:0000000000002269 .LASF1834
C:\Users\SOLDER~1\AppData\Local\Temp\ccqxjBbT.s:26549  .debug_str:000000000001ec5b .LASF1835
C:\Users\SOLDER~1\AppData\Local\Temp\ccqxjBbT.s:21345  .debug_str:0000000000009b38 .LASF1836
C:\Users\SOLDER~1\AppData\Local\Temp\ccqxjBbT.s:21297  .debug_str:000000000000981e .LASF1837
C:\Users\SOLDER~1\AppData\Local\Temp\ccqxjBbT.s:24033  .debug_str:0000000000014b3a .LASF1838
C:\Users\SOLDER~1\AppData\Local\Temp\ccqxjBbT.s:28725  .debug_str:0000000000027a14 .LASF1839
C:\Users\SOLDER~1\AppData\Local\Temp\ccqxjBbT.s:21651  .debug_str:000000000000afb6 .LASF1840
C:\Users\SOLDER~1\AppData\Local\Temp\ccqxjBbT.s:20619  .debug_str:0000000000006baa .LASF1841
C:\Users\SOLDER~1\AppData\Local\Temp\ccqxjBbT.s:28337  .debug_str:000000000002608d .LASF1842
C:\Users\SOLDER~1\AppData\Local\Temp\ccqxjBbT.s:26299  .debug_str:000000000001dbd7 .LASF1843
C:\Users\SOLDER~1\AppData\Local\Temp\ccqxjBbT.s:27195  .debug_str:000000000002164c .LASF1844
C:\Users\SOLDER~1\AppData\Local\Temp\ccqxjBbT.s:23171  .debug_str:000000000001126d .LASF1845
C:\Users\SOLDER~1\AppData\Local\Temp\ccqxjBbT.s:21931  .debug_str:000000000000c0ff .LASF1846
C:\Users\SOLDER~1\AppData\Local\Temp\ccqxjBbT.s:22635  .debug_str:000000000000efd4 .LASF1847
C:\Users\SOLDER~1\AppData\Local\Temp\ccqxjBbT.s:19899  .debug_str:0000000000003d81 .LASF1848
C:\Users\SOLDER~1\AppData\Local\Temp\ccqxjBbT.s:21865  .debug_str:000000000000bcc0 .LASF1849
C:\Users\SOLDER~1\AppData\Local\Temp\ccqxjBbT.s:26843  .debug_str:000000000001ff66 .LASF1850
C:\Users\SOLDER~1\AppData\Local\Temp\ccqxjBbT.s:19263  .debug_str:000000000000145a .LASF1851
C:\Users\SOLDER~1\AppData\Local\Temp\ccqxjBbT.s:21171  .debug_str:0000000000008fba .LASF1852
C:\Users\SOLDER~1\AppData\Local\Temp\ccqxjBbT.s:26623  .debug_str:000000000001f145 .LASF1853
C:\Users\SOLDER~1\AppData\Local\Temp\ccqxjBbT.s:24201  .debug_str:00000000000155f0 .LASF1854
C:\Users\SOLDER~1\AppData\Local\Temp\ccqxjBbT.s:24983  .debug_str:0000000000018757 .LASF1855
C:\Users\SOLDER~1\AppData\Local\Temp\ccqxjBbT.s:20397  .debug_str:0000000000005ce0 .LASF1856
C:\Users\SOLDER~1\AppData\Local\Temp\ccqxjBbT.s:28769  .debug_str:0000000000027d35 .LASF1857
C:\Users\SOLDER~1\AppData\Local\Temp\ccqxjBbT.s:27847  .debug_str:000000000002401c .LASF1858
C:\Users\SOLDER~1\AppData\Local\Temp\ccqxjBbT.s:29061  .debug_str:0000000000028fc8 .LASF1859
C:\Users\SOLDER~1\AppData\Local\Temp\ccqxjBbT.s:24507  .debug_str:00000000000168ac .LASF1860
C:\Users\SOLDER~1\AppData\Local\Temp\ccqxjBbT.s:27687  .debug_str:00000000000235f9 .LASF1861
C:\Users\SOLDER~1\AppData\Local\Temp\ccqxjBbT.s:25343  .debug_str:0000000000019e1a .LASF1862
C:\Users\SOLDER~1\AppData\Local\Temp\ccqxjBbT.s:28313  .debug_str:0000000000025eee .LASF1863
C:\Users\SOLDER~1\AppData\Local\Temp\ccqxjBbT.s:23117  .debug_str:0000000000010ed7 .LASF1864
C:\Users\SOLDER~1\AppData\Local\Temp\ccqxjBbT.s:23085  .debug_str:0000000000010cbc .LASF1865
C:\Users\SOLDER~1\AppData\Local\Temp\ccqxjBbT.s:23809  .debug_str:0000000000013be0 .LASF1866
C:\Users\SOLDER~1\AppData\Local\Temp\ccqxjBbT.s:21639  .debug_str:000000000000aeeb .LASF1867
C:\Users\SOLDER~1\AppData\Local\Temp\ccqxjBbT.s:27317  .debug_str:0000000000021de4 .LASF1868
C:\Users\SOLDER~1\AppData\Local\Temp\ccqxjBbT.s:25605  .debug_str:000000000001af5b .LASF1869
C:\Users\SOLDER~1\AppData\Local\Temp\ccqxjBbT.s:28363  .debug_str:0000000000026265 .LASF1870
C:\Users\SOLDER~1\AppData\Local\Temp\ccqxjBbT.s:25039  .debug_str:0000000000018af4 .LASF1871
C:\Users\SOLDER~1\AppData\Local\Temp\ccqxjBbT.s:29493  .debug_str:000000000002ac1a .LASF1872
C:\Users\SOLDER~1\AppData\Local\Temp\ccqxjBbT.s:28437  .debug_str:0000000000026761 .LASF1873
C:\Users\SOLDER~1\AppData\Local\Temp\ccqxjBbT.s:24655  .debug_str:0000000000017213 .LASF1874
C:\Users\SOLDER~1\AppData\Local\Temp\ccqxjBbT.s:22549  .debug_str:000000000000ea65 .LASF1875
C:\Users\SOLDER~1\AppData\Local\Temp\ccqxjBbT.s:24091  .debug_str:0000000000014f06 .LASF1876
C:\Users\SOLDER~1\AppData\Local\Temp\ccqxjBbT.s:19311  .debug_str:0000000000001782 .LASF1877
C:\Users\SOLDER~1\AppData\Local\Temp\ccqxjBbT.s:28889  .debug_str:0000000000028504 .LASF1878
C:\Users\SOLDER~1\AppData\Local\Temp\ccqxjBbT.s:27851  .debug_str:000000000002406e .LASF1879
C:\Users\SOLDER~1\AppData\Local\Temp\ccqxjBbT.s:27701  .debug_str:00000000000236ef .LASF1880
C:\Users\SOLDER~1\AppData\Local\Temp\ccqxjBbT.s:29709  .debug_str:000000000002ba11 .LASF1881
C:\Users\SOLDER~1\AppData\Local\Temp\ccqxjBbT.s:27253  .debug_str:00000000000219f0 .LASF1882
C:\Users\SOLDER~1\AppData\Local\Temp\ccqxjBbT.s:26969  .debug_str:00000000000207a2 .LASF1883
C:\Users\SOLDER~1\AppData\Local\Temp\ccqxjBbT.s:28989  .debug_str:0000000000028b80 .LASF1884
C:\Users\SOLDER~1\AppData\Local\Temp\ccqxjBbT.s:27659  .debug_str:000000000002342c .LASF1885
C:\Users\SOLDER~1\AppData\Local\Temp\ccqxjBbT.s:20415  .debug_str:0000000000005df7 .LASF1886
GAS LISTING C:\Users\SOLDER~1\AppData\Local\Temp\ccqxjBbT.s 			page 51


C:\Users\SOLDER~1\AppData\Local\Temp\ccqxjBbT.s:21181  .debug_str:0000000000009067 .LASF1887
C:\Users\SOLDER~1\AppData\Local\Temp\ccqxjBbT.s:28209  .debug_str:00000000000257a3 .LASF1888
C:\Users\SOLDER~1\AppData\Local\Temp\ccqxjBbT.s:25081  .debug_str:0000000000018dc4 .LASF1889
C:\Users\SOLDER~1\AppData\Local\Temp\ccqxjBbT.s:19227  .debug_str:0000000000001219 .LASF1890
C:\Users\SOLDER~1\AppData\Local\Temp\ccqxjBbT.s:19071  .debug_str:0000000000000839 .LASF1891
C:\Users\SOLDER~1\AppData\Local\Temp\ccqxjBbT.s:20717  .debug_str:0000000000007238 .LASF1892
C:\Users\SOLDER~1\AppData\Local\Temp\ccqxjBbT.s:20427  .debug_str:0000000000005ebb .LASF1893
C:\Users\SOLDER~1\AppData\Local\Temp\ccqxjBbT.s:26481  .debug_str:000000000001e7d9 .LASF1894
C:\Users\SOLDER~1\AppData\Local\Temp\ccqxjBbT.s:21049  .debug_str:0000000000008789 .LASF1895
C:\Users\SOLDER~1\AppData\Local\Temp\ccqxjBbT.s:27345  .debug_str:0000000000021f98 .LASF1896
C:\Users\SOLDER~1\AppData\Local\Temp\ccqxjBbT.s:27311  .debug_str:0000000000021d73 .LASF1897
C:\Users\SOLDER~1\AppData\Local\Temp\ccqxjBbT.s:27935  .debug_str:00000000000245f6 .LASF1898
C:\Users\SOLDER~1\AppData\Local\Temp\ccqxjBbT.s:23469  .debug_str:0000000000012553 .LASF1899
C:\Users\SOLDER~1\AppData\Local\Temp\ccqxjBbT.s:20041  .debug_str:0000000000004671 .LASF1900
C:\Users\SOLDER~1\AppData\Local\Temp\ccqxjBbT.s:29887  .debug_str:000000000002c5f2 .LASF1901
C:\Users\SOLDER~1\AppData\Local\Temp\ccqxjBbT.s:20989  .debug_str:00000000000083bf .LASF1902
C:\Users\SOLDER~1\AppData\Local\Temp\ccqxjBbT.s:21237  .debug_str:000000000000943a .LASF1903
C:\Users\SOLDER~1\AppData\Local\Temp\ccqxjBbT.s:25667  .debug_str:000000000001b306 .LASF1904
C:\Users\SOLDER~1\AppData\Local\Temp\ccqxjBbT.s:24767  .debug_str:000000000001796f .LASF1905
C:\Users\SOLDER~1\AppData\Local\Temp\ccqxjBbT.s:20865  .debug_str:0000000000007b8d .LASF1906
C:\Users\SOLDER~1\AppData\Local\Temp\ccqxjBbT.s:30411  .debug_str:000000000002e778 .LASF1907
C:\Users\SOLDER~1\AppData\Local\Temp\ccqxjBbT.s:20297  .debug_str:0000000000005622 .LASF1908
C:\Users\SOLDER~1\AppData\Local\Temp\ccqxjBbT.s:29995  .debug_str:000000000002ccbc .LASF1909
C:\Users\SOLDER~1\AppData\Local\Temp\ccqxjBbT.s:25185  .debug_str:0000000000019489 .LASF1910
C:\Users\SOLDER~1\AppData\Local\Temp\ccqxjBbT.s:26727  .debug_str:000000000001f822 .LASF1911
C:\Users\SOLDER~1\AppData\Local\Temp\ccqxjBbT.s:24027  .debug_str:0000000000014ab8 .LASF1912
C:\Users\SOLDER~1\AppData\Local\Temp\ccqxjBbT.s:25949  .debug_str:000000000001c54d .LASF1913
C:\Users\SOLDER~1\AppData\Local\Temp\ccqxjBbT.s:19343  .debug_str:0000000000001972 .LASF1914
C:\Users\SOLDER~1\AppData\Local\Temp\ccqxjBbT.s:28979  .debug_str:0000000000028adb .LASF1915
C:\Users\SOLDER~1\AppData\Local\Temp\ccqxjBbT.s:25283  .debug_str:0000000000019a73 .LASF1916
C:\Users\SOLDER~1\AppData\Local\Temp\ccqxjBbT.s:19123  .debug_str:0000000000000c0e .LASF1917
C:\Users\SOLDER~1\AppData\Local\Temp\ccqxjBbT.s:28229  .debug_str:000000000002590f .LASF1918
C:\Users\SOLDER~1\AppData\Local\Temp\ccqxjBbT.s:29003  .debug_str:0000000000028c2c .LASF1919
C:\Users\SOLDER~1\AppData\Local\Temp\ccqxjBbT.s:24529  .debug_str:0000000000016a36 .LASF1920
C:\Users\SOLDER~1\AppData\Local\Temp\ccqxjBbT.s:29761  .debug_str:000000000002bd7c .LASF1921
C:\Users\SOLDER~1\AppData\Local\Temp\ccqxjBbT.s:20365  .debug_str:0000000000005adb .LASF1922
C:\Users\SOLDER~1\AppData\Local\Temp\ccqxjBbT.s:26883  .debug_str:00000000000201f8 .LASF1923
C:\Users\SOLDER~1\AppData\Local\Temp\ccqxjBbT.s:25455  .debug_str:000000000001a53d .LASF1924
C:\Users\SOLDER~1\AppData\Local\Temp\ccqxjBbT.s:24777  .debug_str:0000000000017a31 .LASF1925
C:\Users\SOLDER~1\AppData\Local\Temp\ccqxjBbT.s:19215  .debug_str:0000000000001156 .LASF1926
C:\Users\SOLDER~1\AppData\Local\Temp\ccqxjBbT.s:25363  .debug_str:0000000000019f5d .LASF1927
C:\Users\SOLDER~1\AppData\Local\Temp\ccqxjBbT.s:19975  .debug_str:0000000000004260 .LASF1928
C:\Users\SOLDER~1\AppData\Local\Temp\ccqxjBbT.s:19941  .debug_str:0000000000004022 .LASF1929
C:\Users\SOLDER~1\AppData\Local\Temp\ccqxjBbT.s:27671  .debug_str:00000000000234f9 .LASF1930
C:\Users\SOLDER~1\AppData\Local\Temp\ccqxjBbT.s:27699  .debug_str:00000000000236cb .LASF1931
C:\Users\SOLDER~1\AppData\Local\Temp\ccqxjBbT.s:24379  .debug_str:00000000000160de .LASF1932
C:\Users\SOLDER~1\AppData\Local\Temp\ccqxjBbT.s:22587  .debug_str:000000000000ecb1 .LASF1933
C:\Users\SOLDER~1\AppData\Local\Temp\ccqxjBbT.s:18991  .debug_str:000000000000025d .LASF1934
C:\Users\SOLDER~1\AppData\Local\Temp\ccqxjBbT.s:28967  .debug_str:0000000000028a27 .LASF1935
C:\Users\SOLDER~1\AppData\Local\Temp\ccqxjBbT.s:21891  .debug_str:000000000000be37 .LASF1936
C:\Users\SOLDER~1\AppData\Local\Temp\ccqxjBbT.s:20957  .debug_str:00000000000081c4 .LASF1937
C:\Users\SOLDER~1\AppData\Local\Temp\ccqxjBbT.s:28683  .debug_str:0000000000027787 .LASF1938
C:\Users\SOLDER~1\AppData\Local\Temp\ccqxjBbT.s:22347  .debug_str:000000000000dce1 .LASF1939
C:\Users\SOLDER~1\AppData\Local\Temp\ccqxjBbT.s:28113  .debug_str:000000000002515d .LASF1940
C:\Users\SOLDER~1\AppData\Local\Temp\ccqxjBbT.s:18955  .debug_str:0000000000000023 .LASF1941
C:\Users\SOLDER~1\AppData\Local\Temp\ccqxjBbT.s:21383  .debug_str:0000000000009db4 .LASF1942
C:\Users\SOLDER~1\AppData\Local\Temp\ccqxjBbT.s:22993  .debug_str:00000000000106e6 .LASF1943
GAS LISTING C:\Users\SOLDER~1\AppData\Local\Temp\ccqxjBbT.s 			page 52


C:\Users\SOLDER~1\AppData\Local\Temp\ccqxjBbT.s:20225  .debug_str:00000000000051e1 .LASF1944
C:\Users\SOLDER~1\AppData\Local\Temp\ccqxjBbT.s:22191  .debug_str:000000000000d2e0 .LASF1945
C:\Users\SOLDER~1\AppData\Local\Temp\ccqxjBbT.s:27071  .debug_str:0000000000020e15 .LASF1946
C:\Users\SOLDER~1\AppData\Local\Temp\ccqxjBbT.s:19483  .debug_str:00000000000022c7 .LASF1947
C:\Users\SOLDER~1\AppData\Local\Temp\ccqxjBbT.s:24815  .debug_str:0000000000017c7d .LASF1948
C:\Users\SOLDER~1\AppData\Local\Temp\ccqxjBbT.s:26929  .debug_str:000000000002050a .LASF1949
C:\Users\SOLDER~1\AppData\Local\Temp\ccqxjBbT.s:28955  .debug_str:000000000002895a .LASF1950
C:\Users\SOLDER~1\AppData\Local\Temp\ccqxjBbT.s:25207  .debug_str:0000000000019602 .LASF1951
C:\Users\SOLDER~1\AppData\Local\Temp\ccqxjBbT.s:20743  .debug_str:000000000000740b .LASF1952
C:\Users\SOLDER~1\AppData\Local\Temp\ccqxjBbT.s:29125  .debug_str:0000000000029429 .LASF1953
C:\Users\SOLDER~1\AppData\Local\Temp\ccqxjBbT.s:28089  .debug_str:0000000000025009 .LASF1954
C:\Users\SOLDER~1\AppData\Local\Temp\ccqxjBbT.s:26465  .debug_str:000000000001e6bc .LASF1955
C:\Users\SOLDER~1\AppData\Local\Temp\ccqxjBbT.s:24853  .debug_str:0000000000017eda .LASF1956
C:\Users\SOLDER~1\AppData\Local\Temp\ccqxjBbT.s:22381  .debug_str:000000000000df07 .LASF1957
C:\Users\SOLDER~1\AppData\Local\Temp\ccqxjBbT.s:23407  .debug_str:0000000000012176 .LASF1958
C:\Users\SOLDER~1\AppData\Local\Temp\ccqxjBbT.s:29533  .debug_str:000000000002ae72 .LASF1959
C:\Users\SOLDER~1\AppData\Local\Temp\ccqxjBbT.s:24321  .debug_str:0000000000015d37 .LASF1960
C:\Users\SOLDER~1\AppData\Local\Temp\ccqxjBbT.s:24279  .debug_str:0000000000015a9a .LASF1961
C:\Users\SOLDER~1\AppData\Local\Temp\ccqxjBbT.s:25013  .debug_str:0000000000018928 .LASF1962
C:\Users\SOLDER~1\AppData\Local\Temp\ccqxjBbT.s:27857  .debug_str:00000000000240d0 .LASF1963
C:\Users\SOLDER~1\AppData\Local\Temp\ccqxjBbT.s:28613  .debug_str:00000000000272ea .LASF1964
C:\Users\SOLDER~1\AppData\Local\Temp\ccqxjBbT.s:19585  .debug_str:00000000000029a7 .LASF1965
C:\Users\SOLDER~1\AppData\Local\Temp\ccqxjBbT.s:29477  .debug_str:000000000002aaff .LASF1966
C:\Users\SOLDER~1\AppData\Local\Temp\ccqxjBbT.s:25259  .debug_str:0000000000019936 .LASF1967
C:\Users\SOLDER~1\AppData\Local\Temp\ccqxjBbT.s:28275  .debug_str:0000000000025c3a .LASF1968
C:\Users\SOLDER~1\AppData\Local\Temp\ccqxjBbT.s:28771  .debug_str:0000000000027d5a .LASF1969
C:\Users\SOLDER~1\AppData\Local\Temp\ccqxjBbT.s:24999  .debug_str:0000000000018841 .LASF1970
C:\Users\SOLDER~1\AppData\Local\Temp\ccqxjBbT.s:25383  .debug_str:000000000001a0ba .LASF1971
C:\Users\SOLDER~1\AppData\Local\Temp\ccqxjBbT.s:24427  .debug_str:00000000000163e6 .LASF1972
C:\Users\SOLDER~1\AppData\Local\Temp\ccqxjBbT.s:19631  .debug_str:0000000000002c32 .LASF1973
C:\Users\SOLDER~1\AppData\Local\Temp\ccqxjBbT.s:29241  .debug_str:0000000000029b89 .LASF1974
C:\Users\SOLDER~1\AppData\Local\Temp\ccqxjBbT.s:25311  .debug_str:0000000000019c39 .LASF1975
C:\Users\SOLDER~1\AppData\Local\Temp\ccqxjBbT.s:28045  .debug_str:0000000000024d35 .LASF1976
C:\Users\SOLDER~1\AppData\Local\Temp\ccqxjBbT.s:30041  .debug_str:000000000002cfc8 .LASF1977
C:\Users\SOLDER~1\AppData\Local\Temp\ccqxjBbT.s:23349  .debug_str:0000000000011dc5 .LASF1978
C:\Users\SOLDER~1\AppData\Local\Temp\ccqxjBbT.s:27289  .debug_str:0000000000021c1c .LASF1979
C:\Users\SOLDER~1\AppData\Local\Temp\ccqxjBbT.s:29331  .debug_str:000000000002a1c7 .LASF1980
C:\Users\SOLDER~1\AppData\Local\Temp\ccqxjBbT.s:23215  .debug_str:000000000001152a .LASF1981
C:\Users\SOLDER~1\AppData\Local\Temp\ccqxjBbT.s:20761  .debug_str:000000000000752b .LASF1982
C:\Users\SOLDER~1\AppData\Local\Temp\ccqxjBbT.s:21407  .debug_str:0000000000009f68 .LASF1983
C:\Users\SOLDER~1\AppData\Local\Temp\ccqxjBbT.s:19119  .debug_str:0000000000000bc6 .LASF1984
C:\Users\SOLDER~1\AppData\Local\Temp\ccqxjBbT.s:25307  .debug_str:0000000000019c02 .LASF1985
C:\Users\SOLDER~1\AppData\Local\Temp\ccqxjBbT.s:24407  .debug_str:0000000000016290 .LASF1986
C:\Users\SOLDER~1\AppData\Local\Temp\ccqxjBbT.s:19391  .debug_str:0000000000001cc7 .LASF1987
C:\Users\SOLDER~1\AppData\Local\Temp\ccqxjBbT.s:21051  .debug_str:00000000000087ad .LASF1988
C:\Users\SOLDER~1\AppData\Local\Temp\ccqxjBbT.s:21625  .debug_str:000000000000ade0 .LASF1989
C:\Users\SOLDER~1\AppData\Local\Temp\ccqxjBbT.s:27645  .debug_str:000000000002332c .LASF1990
C:\Users\SOLDER~1\AppData\Local\Temp\ccqxjBbT.s:23337  .debug_str:0000000000011cf1 .LASF1991
C:\Users\SOLDER~1\AppData\Local\Temp\ccqxjBbT.s:28553  .debug_str:0000000000026efd .LASF1992
C:\Users\SOLDER~1\AppData\Local\Temp\ccqxjBbT.s:28511  .debug_str:0000000000026c39 .LASF1993
C:\Users\SOLDER~1\AppData\Local\Temp\ccqxjBbT.s:29265  .debug_str:0000000000029d53 .LASF1994
C:\Users\SOLDER~1\AppData\Local\Temp\ccqxjBbT.s:20515  .debug_str:00000000000064be .LASF1995
C:\Users\SOLDER~1\AppData\Local\Temp\ccqxjBbT.s:21941  .debug_str:000000000000c1c2 .LASF1996
C:\Users\SOLDER~1\AppData\Local\Temp\ccqxjBbT.s:19489  .debug_str:0000000000002329 .LASF1997
C:\Users\SOLDER~1\AppData\Local\Temp\ccqxjBbT.s:22179  .debug_str:000000000000d21c .LASF1998
C:\Users\SOLDER~1\AppData\Local\Temp\ccqxjBbT.s:27265  .debug_str:0000000000021abc .LASF1999
C:\Users\SOLDER~1\AppData\Local\Temp\ccqxjBbT.s:25987  .debug_str:000000000001c7eb .LASF2000
GAS LISTING C:\Users\SOLDER~1\AppData\Local\Temp\ccqxjBbT.s 			page 53


C:\Users\SOLDER~1\AppData\Local\Temp\ccqxjBbT.s:25087  .debug_str:0000000000018e33 .LASF2001
C:\Users\SOLDER~1\AppData\Local\Temp\ccqxjBbT.s:21195  .debug_str:0000000000009178 .LASF2002
C:\Users\SOLDER~1\AppData\Local\Temp\ccqxjBbT.s:19153  .debug_str:0000000000000e19 .LASF2003
C:\Users\SOLDER~1\AppData\Local\Temp\ccqxjBbT.s:20547  .debug_str:0000000000006706 .LASF2004
C:\Users\SOLDER~1\AppData\Local\Temp\ccqxjBbT.s:27433  .debug_str:0000000000022513 .LASF2005
C:\Users\SOLDER~1\AppData\Local\Temp\ccqxjBbT.s:25499  .debug_str:000000000001a841 .LASF2006
C:\Users\SOLDER~1\AppData\Local\Temp\ccqxjBbT.s:27033  .debug_str:0000000000020bb5 .LASF2007
C:\Users\SOLDER~1\AppData\Local\Temp\ccqxjBbT.s:24271  .debug_str:0000000000015a0d .LASF2008
C:\Users\SOLDER~1\AppData\Local\Temp\ccqxjBbT.s:26185  .debug_str:000000000001d4e8 .LASF2009
C:\Users\SOLDER~1\AppData\Local\Temp\ccqxjBbT.s:19579  .debug_str:000000000000293e .LASF2010
C:\Users\SOLDER~1\AppData\Local\Temp\ccqxjBbT.s:23583  .debug_str:0000000000012c4d .LASF2011
C:\Users\SOLDER~1\AppData\Local\Temp\ccqxjBbT.s:24369  .debug_str:0000000000016029 .LASF2012
C:\Users\SOLDER~1\AppData\Local\Temp\ccqxjBbT.s:19433  .debug_str:0000000000001f8b .LASF2013
C:\Users\SOLDER~1\AppData\Local\Temp\ccqxjBbT.s:28577  .debug_str:0000000000027083 .LASF2014
C:\Users\SOLDER~1\AppData\Local\Temp\ccqxjBbT.s:29271  .debug_str:0000000000029dbe .LASF2015
C:\Users\SOLDER~1\AppData\Local\Temp\ccqxjBbT.s:22089  .debug_str:000000000000cc21 .LASF2016
C:\Users\SOLDER~1\AppData\Local\Temp\ccqxjBbT.s:21517  .debug_str:000000000000a6d0 .LASF2017
C:\Users\SOLDER~1\AppData\Local\Temp\ccqxjBbT.s:20611  .debug_str:0000000000006b30 .LASF2018
C:\Users\SOLDER~1\AppData\Local\Temp\ccqxjBbT.s:20877  .debug_str:0000000000007c49 .LASF2019
C:\Users\SOLDER~1\AppData\Local\Temp\ccqxjBbT.s:28867  .debug_str:000000000002839f .LASF2020
C:\Users\SOLDER~1\AppData\Local\Temp\ccqxjBbT.s:25915  .debug_str:000000000001c301 .LASF2021
C:\Users\SOLDER~1\AppData\Local\Temp\ccqxjBbT.s:20373  .debug_str:0000000000005b6d .LASF2022
C:\Users\SOLDER~1\AppData\Local\Temp\ccqxjBbT.s:26533  .debug_str:000000000001eb64 .LASF2023
C:\Users\SOLDER~1\AppData\Local\Temp\ccqxjBbT.s:21275  .debug_str:00000000000096a6 .LASF2024
C:\Users\SOLDER~1\AppData\Local\Temp\ccqxjBbT.s:21147  .debug_str:0000000000008e0d .LASF2025
C:\Users\SOLDER~1\AppData\Local\Temp\ccqxjBbT.s:21863  .debug_str:000000000000bc9c .LASF2026
C:\Users\SOLDER~1\AppData\Local\Temp\ccqxjBbT.s:28927  .debug_str:0000000000028792 .LASF2027
C:\Users\SOLDER~1\AppData\Local\Temp\ccqxjBbT.s:25543  .debug_str:000000000001aaf9 .LASF2028
C:\Users\SOLDER~1\AppData\Local\Temp\ccqxjBbT.s:23821  .debug_str:0000000000013cc3 .LASF2029
C:\Users\SOLDER~1\AppData\Local\Temp\ccqxjBbT.s:29903  .debug_str:000000000002c6f3 .LASF2030
C:\Users\SOLDER~1\AppData\Local\Temp\ccqxjBbT.s:30311  .debug_str:000000000002e12d .LASF2031
C:\Users\SOLDER~1\AppData\Local\Temp\ccqxjBbT.s:22713  .debug_str:000000000000f47e .LASF2032
C:\Users\SOLDER~1\AppData\Local\Temp\ccqxjBbT.s:21289  .debug_str:000000000000978b .LASF2033
C:\Users\SOLDER~1\AppData\Local\Temp\ccqxjBbT.s:29019  .debug_str:0000000000028d31 .LASF2034
C:\Users\SOLDER~1\AppData\Local\Temp\ccqxjBbT.s:26951  .debug_str:000000000002066e .LASF2035
C:\Users\SOLDER~1\AppData\Local\Temp\ccqxjBbT.s:28351  .debug_str:0000000000026180 .LASF2036
C:\Users\SOLDER~1\AppData\Local\Temp\ccqxjBbT.s:23749  .debug_str:000000000001379d .LASF2037
C:\Users\SOLDER~1\AppData\Local\Temp\ccqxjBbT.s:21633  .debug_str:000000000000ae8d .LASF2038
C:\Users\SOLDER~1\AppData\Local\Temp\ccqxjBbT.s:23321  .debug_str:0000000000011bfb .LASF2039
C:\Users\SOLDER~1\AppData\Local\Temp\ccqxjBbT.s:20477  .debug_str:000000000000624b .LASF2040
C:\Users\SOLDER~1\AppData\Local\Temp\ccqxjBbT.s:22435  .debug_str:000000000000e2ee .LASF2041
C:\Users\SOLDER~1\AppData\Local\Temp\ccqxjBbT.s:29943  .debug_str:000000000002c978 .LASF2042
C:\Users\SOLDER~1\AppData\Local\Temp\ccqxjBbT.s:29399  .debug_str:000000000002a654 .LASF2043
C:\Users\SOLDER~1\AppData\Local\Temp\ccqxjBbT.s:21255  .debug_str:0000000000009579 .LASF2044
C:\Users\SOLDER~1\AppData\Local\Temp\ccqxjBbT.s:27251  .debug_str:00000000000219cb .LASF2045
C:\Users\SOLDER~1\AppData\Local\Temp\ccqxjBbT.s:24803  .debug_str:0000000000017bb8 .LASF2046
C:\Users\SOLDER~1\AppData\Local\Temp\ccqxjBbT.s:25523  .debug_str:000000000001a9ad .LASF2047
C:\Users\SOLDER~1\AppData\Local\Temp\ccqxjBbT.s:27369  .debug_str:000000000002210d .LASF2048
C:\Users\SOLDER~1\AppData\Local\Temp\ccqxjBbT.s:29357  .debug_str:000000000002a396 .LASF2049
C:\Users\SOLDER~1\AppData\Local\Temp\ccqxjBbT.s:28427  .debug_str:0000000000026698 .LASF2050
C:\Users\SOLDER~1\AppData\Local\Temp\ccqxjBbT.s:23485  .debug_str:000000000001263c .LASF2051
C:\Users\SOLDER~1\AppData\Local\Temp\ccqxjBbT.s:25163  .debug_str:00000000000192ff .LASF2052
C:\Users\SOLDER~1\AppData\Local\Temp\ccqxjBbT.s:21225  .debug_str:0000000000009374 .LASF2053
C:\Users\SOLDER~1\AppData\Local\Temp\ccqxjBbT.s:27257  .debug_str:0000000000021a37 .LASF2054
C:\Users\SOLDER~1\AppData\Local\Temp\ccqxjBbT.s:21833  .debug_str:000000000000bab2 .LASF2055
C:\Users\SOLDER~1\AppData\Local\Temp\ccqxjBbT.s:28147  .debug_str:00000000000253a0 .LASF2056
C:\Users\SOLDER~1\AppData\Local\Temp\ccqxjBbT.s:26821  .debug_str:000000000001fe00 .LASF2057
GAS LISTING C:\Users\SOLDER~1\AppData\Local\Temp\ccqxjBbT.s 			page 54


C:\Users\SOLDER~1\AppData\Local\Temp\ccqxjBbT.s:28755  .debug_str:0000000000027c27 .LASF2058
C:\Users\SOLDER~1\AppData\Local\Temp\ccqxjBbT.s:24287  .debug_str:0000000000015b17 .LASF2059
C:\Users\SOLDER~1\AppData\Local\Temp\ccqxjBbT.s:30035  .debug_str:000000000002cf76 .LASF2060
C:\Users\SOLDER~1\AppData\Local\Temp\ccqxjBbT.s:19105  .debug_str:0000000000000ac0 .LASF2061
C:\Users\SOLDER~1\AppData\Local\Temp\ccqxjBbT.s:21777  .debug_str:000000000000b758 .LASF2062
C:\Users\SOLDER~1\AppData\Local\Temp\ccqxjBbT.s:28131  .debug_str:00000000000252a3 .LASF2063
C:\Users\SOLDER~1\AppData\Local\Temp\ccqxjBbT.s:29201  .debug_str:00000000000298e4 .LASF2064
C:\Users\SOLDER~1\AppData\Local\Temp\ccqxjBbT.s:20127  .debug_str:0000000000004bdc .LASF2065
C:\Users\SOLDER~1\AppData\Local\Temp\ccqxjBbT.s:27845  .debug_str:0000000000023ff6 .LASF2066
C:\Users\SOLDER~1\AppData\Local\Temp\ccqxjBbT.s:30153  .debug_str:000000000002d71e .LASF2067
C:\Users\SOLDER~1\AppData\Local\Temp\ccqxjBbT.s:27203  .debug_str:00000000000216c3 .LASF2068
C:\Users\SOLDER~1\AppData\Local\Temp\ccqxjBbT.s:22559  .debug_str:000000000000eafa .LASF2069
C:\Users\SOLDER~1\AppData\Local\Temp\ccqxjBbT.s:29863  .debug_str:000000000002c47e .LASF2070
C:\Users\SOLDER~1\AppData\Local\Temp\ccqxjBbT.s:22133  .debug_str:000000000000cf0b .LASF2071
C:\Users\SOLDER~1\AppData\Local\Temp\ccqxjBbT.s:19335  .debug_str:00000000000018c9 .LASF2072
C:\Users\SOLDER~1\AppData\Local\Temp\ccqxjBbT.s:21285  .debug_str:0000000000009740 .LASF2073
C:\Users\SOLDER~1\AppData\Local\Temp\ccqxjBbT.s:20595  .debug_str:0000000000006a36 .LASF2074
C:\Users\SOLDER~1\AppData\Local\Temp\ccqxjBbT.s:30265  .debug_str:000000000002de63 .LASF2075
C:\Users\SOLDER~1\AppData\Local\Temp\ccqxjBbT.s:20681  .debug_str:0000000000006ff5 .LASF2076
C:\Users\SOLDER~1\AppData\Local\Temp\ccqxjBbT.s:26113  .debug_str:000000000001cfd4 .LASF2077
C:\Users\SOLDER~1\AppData\Local\Temp\ccqxjBbT.s:23609  .debug_str:0000000000012e41 .LASF2078
C:\Users\SOLDER~1\AppData\Local\Temp\ccqxjBbT.s:28417  .debug_str:00000000000265f2 .LASF2079
C:\Users\SOLDER~1\AppData\Local\Temp\ccqxjBbT.s:19821  .debug_str:0000000000003877 .LASF2080
C:\Users\SOLDER~1\AppData\Local\Temp\ccqxjBbT.s:28185  .debug_str:00000000000255f6 .LASF2081
C:\Users\SOLDER~1\AppData\Local\Temp\ccqxjBbT.s:27269  .debug_str:0000000000021b06 .LASF2082
C:\Users\SOLDER~1\AppData\Local\Temp\ccqxjBbT.s:22309  .debug_str:000000000000da7b .LASF2083
C:\Users\SOLDER~1\AppData\Local\Temp\ccqxjBbT.s:24013  .debug_str:00000000000149af .LASF2084
C:\Users\SOLDER~1\AppData\Local\Temp\ccqxjBbT.s:25533  .debug_str:000000000001aa62 .LASF2085
C:\Users\SOLDER~1\AppData\Local\Temp\ccqxjBbT.s:19967  .debug_str:00000000000041e0 .LASF2086
C:\Users\SOLDER~1\AppData\Local\Temp\ccqxjBbT.s:26127  .debug_str:000000000001d0c8 .LASF2087
C:\Users\SOLDER~1\AppData\Local\Temp\ccqxjBbT.s:24995  .debug_str:000000000001880a .LASF2088
C:\Users\SOLDER~1\AppData\Local\Temp\ccqxjBbT.s:20755  .debug_str:00000000000074c6 .LASF2089
C:\Users\SOLDER~1\AppData\Local\Temp\ccqxjBbT.s:21449  .debug_str:000000000000a220 .LASF2090
C:\Users\SOLDER~1\AppData\Local\Temp\ccqxjBbT.s:24221  .debug_str:0000000000015741 .LASF2091
C:\Users\SOLDER~1\AppData\Local\Temp\ccqxjBbT.s:23573  .debug_str:0000000000012bb6 .LASF2092
C:\Users\SOLDER~1\AppData\Local\Temp\ccqxjBbT.s:26307  .debug_str:000000000001dc62 .LASF2093
C:\Users\SOLDER~1\AppData\Local\Temp\ccqxjBbT.s:26071  .debug_str:000000000001cd99 .LASF2094
C:\Users\SOLDER~1\AppData\Local\Temp\ccqxjBbT.s:24453  .debug_str:0000000000016578 .LASF2095
C:\Users\SOLDER~1\AppData\Local\Temp\ccqxjBbT.s:28909  .debug_str:0000000000028632 .LASF2096
C:\Users\SOLDER~1\AppData\Local\Temp\ccqxjBbT.s:25929  .debug_str:000000000001c413 .LASF2097
C:\Users\SOLDER~1\AppData\Local\Temp\ccqxjBbT.s:24153  .debug_str:00000000000152af .LASF2098
C:\Users\SOLDER~1\AppData\Local\Temp\ccqxjBbT.s:21961  .debug_str:000000000000c326 .LASF2099
C:\Users\SOLDER~1\AppData\Local\Temp\ccqxjBbT.s:23491  .debug_str:00000000000126b5 .LASF2100
C:\Users\SOLDER~1\AppData\Local\Temp\ccqxjBbT.s:30421  .debug_str:000000000002e82f .LASF2101
C:\Users\SOLDER~1\AppData\Local\Temp\ccqxjBbT.s:28289  .debug_str:0000000000025d28 .LASF2102
C:\Users\SOLDER~1\AppData\Local\Temp\ccqxjBbT.s:25155  .debug_str:000000000001928e .LASF2103
C:\Users\SOLDER~1\AppData\Local\Temp\ccqxjBbT.s:27143  .debug_str:00000000000212fa .LASF2104
C:\Users\SOLDER~1\AppData\Local\Temp\ccqxjBbT.s:29127  .debug_str:000000000002944e .LASF2105
C:\Users\SOLDER~1\AppData\Local\Temp\ccqxjBbT.s:23617  .debug_str:0000000000012eba .LASF2106
C:\Users\SOLDER~1\AppData\Local\Temp\ccqxjBbT.s:26497  .debug_str:000000000001e8f9 .LASF2107
C:\Users\SOLDER~1\AppData\Local\Temp\ccqxjBbT.s:28397  .debug_str:00000000000264bb .LASF2108
C:\Users\SOLDER~1\AppData\Local\Temp\ccqxjBbT.s:22359  .debug_str:000000000000dd94 .LASF2109
C:\Users\SOLDER~1\AppData\Local\Temp\ccqxjBbT.s:19841  .debug_str:00000000000039be .LASF2110
C:\Users\SOLDER~1\AppData\Local\Temp\ccqxjBbT.s:20593  .debug_str:0000000000006a10 .LASF2111
C:\Users\SOLDER~1\AppData\Local\Temp\ccqxjBbT.s:27627  .debug_str:00000000000231f3 .LASF2112
C:\Users\SOLDER~1\AppData\Local\Temp\ccqxjBbT.s:24501  .debug_str:0000000000016848 .LASF2113
C:\Users\SOLDER~1\AppData\Local\Temp\ccqxjBbT.s:23557  .debug_str:0000000000012a85 .LASF2114
GAS LISTING C:\Users\SOLDER~1\AppData\Local\Temp\ccqxjBbT.s 			page 55


C:\Users\SOLDER~1\AppData\Local\Temp\ccqxjBbT.s:30159  .debug_str:000000000002d787 .LASF2115
C:\Users\SOLDER~1\AppData\Local\Temp\ccqxjBbT.s:28963  .debug_str:00000000000289e6 .LASF2116
C:\Users\SOLDER~1\AppData\Local\Temp\ccqxjBbT.s:29813  .debug_str:000000000002c152 .LASF2117
C:\Users\SOLDER~1\AppData\Local\Temp\ccqxjBbT.s:24211  .debug_str:000000000001569a .LASF2118
C:\Users\SOLDER~1\AppData\Local\Temp\ccqxjBbT.s:30349  .debug_str:000000000002e395 .LASF2119
C:\Users\SOLDER~1\AppData\Local\Temp\ccqxjBbT.s:28407  .debug_str:000000000002653f .LASF2120
C:\Users\SOLDER~1\AppData\Local\Temp\ccqxjBbT.s:25085  .debug_str:0000000000018e0e .LASF2121
C:\Users\SOLDER~1\AppData\Local\Temp\ccqxjBbT.s:25779  .debug_str:000000000001b9d1 .LASF2122
C:\Users\SOLDER~1\AppData\Local\Temp\ccqxjBbT.s:21241  .debug_str:000000000000948e .LASF2123
C:\Users\SOLDER~1\AppData\Local\Temp\ccqxjBbT.s:29435  .debug_str:000000000002a86a .LASF2124
C:\Users\SOLDER~1\AppData\Local\Temp\ccqxjBbT.s:27551  .debug_str:0000000000022d12 .LASF2125
C:\Users\SOLDER~1\AppData\Local\Temp\ccqxjBbT.s:30293  .debug_str:000000000002e01c .LASF2126
C:\Users\SOLDER~1\AppData\Local\Temp\ccqxjBbT.s:20655  .debug_str:0000000000006e10 .LASF2127
C:\Users\SOLDER~1\AppData\Local\Temp\ccqxjBbT.s:25199  .debug_str:0000000000019588 .LASF2128
C:\Users\SOLDER~1\AppData\Local\Temp\ccqxjBbT.s:24247  .debug_str:00000000000158b9 .LASF2129
C:\Users\SOLDER~1\AppData\Local\Temp\ccqxjBbT.s:22917  .debug_str:00000000000101dd .LASF2130
C:\Users\SOLDER~1\AppData\Local\Temp\ccqxjBbT.s:29809  .debug_str:000000000002c0f4 .LASF2131
C:\Users\SOLDER~1\AppData\Local\Temp\ccqxjBbT.s:19729  .debug_str:000000000000328c .LASF2132
C:\Users\SOLDER~1\AppData\Local\Temp\ccqxjBbT.s:26657  .debug_str:000000000001f392 .LASF2133
C:\Users\SOLDER~1\AppData\Local\Temp\ccqxjBbT.s:24613  .debug_str:0000000000016f32 .LASF2134
C:\Users\SOLDER~1\AppData\Local\Temp\ccqxjBbT.s:27175  .debug_str:00000000000214f9 .LASF2135
C:\Users\SOLDER~1\AppData\Local\Temp\ccqxjBbT.s:23429  .debug_str:00000000000122c6 .LASF2136
C:\Users\SOLDER~1\AppData\Local\Temp\ccqxjBbT.s:21681  .debug_str:000000000000b182 .LASF2137
C:\Users\SOLDER~1\AppData\Local\Temp\ccqxjBbT.s:30363  .debug_str:000000000002e46f .LASF2138
C:\Users\SOLDER~1\AppData\Local\Temp\ccqxjBbT.s:22751  .debug_str:000000000000f6ea .LASF2139
C:\Users\SOLDER~1\AppData\Local\Temp\ccqxjBbT.s:24727  .debug_str:00000000000176f6 .LASF2140
C:\Users\SOLDER~1\AppData\Local\Temp\ccqxjBbT.s:30213  .debug_str:000000000002daf2 .LASF2141
C:\Users\SOLDER~1\AppData\Local\Temp\ccqxjBbT.s:24067  .debug_str:0000000000014d79 .LASF2142
C:\Users\SOLDER~1\AppData\Local\Temp\ccqxjBbT.s:28409  .debug_str:0000000000026564 .LASF2143
C:\Users\SOLDER~1\AppData\Local\Temp\ccqxjBbT.s:23939  .debug_str:00000000000144e4 .LASF2144
C:\Users\SOLDER~1\AppData\Local\Temp\ccqxjBbT.s:20711  .debug_str:00000000000071ea .LASF2145
C:\Users\SOLDER~1\AppData\Local\Temp\ccqxjBbT.s:19791  .debug_str:0000000000003686 .LASF2146
C:\Users\SOLDER~1\AppData\Local\Temp\ccqxjBbT.s:26601  .debug_str:000000000001efb6 .LASF2147
C:\Users\SOLDER~1\AppData\Local\Temp\ccqxjBbT.s:27931  .debug_str:00000000000245bd .LASF2148
C:\Users\SOLDER~1\AppData\Local\Temp\ccqxjBbT.s:22409  .debug_str:000000000000e105 .LASF2149
C:\Users\SOLDER~1\AppData\Local\Temp\ccqxjBbT.s:28451  .debug_str:000000000002684e .LASF2150
C:\Users\SOLDER~1\AppData\Local\Temp\ccqxjBbT.s:23067  .debug_str:0000000000010bb9 .LASF2151
C:\Users\SOLDER~1\AppData\Local\Temp\ccqxjBbT.s:29365  .debug_str:000000000002a418 .LASF2152
C:\Users\SOLDER~1\AppData\Local\Temp\ccqxjBbT.s:29327  .debug_str:000000000002a188 .LASF2153
C:\Users\SOLDER~1\AppData\Local\Temp\ccqxjBbT.s:30059  .debug_str:000000000002d133 .LASF2154
C:\Users\SOLDER~1\AppData\Local\Temp\ccqxjBbT.s:26509  .debug_str:000000000001e9d4 .LASF2155
C:\Users\SOLDER~1\AppData\Local\Temp\ccqxjBbT.s:22023  .debug_str:000000000000c783 .LASF2156
C:\Users\SOLDER~1\AppData\Local\Temp\ccqxjBbT.s:20273  .debug_str:00000000000054b8 .LASF2157
C:\Users\SOLDER~1\AppData\Local\Temp\ccqxjBbT.s:24161  .debug_str:0000000000015339 .LASF2158
C:\Users\SOLDER~1\AppData\Local\Temp\ccqxjBbT.s:28469  .debug_str:0000000000026981 .LASF2159
C:\Users\SOLDER~1\AppData\Local\Temp\ccqxjBbT.s:21397  .debug_str:0000000000009eb0 .LASF2160
C:\Users\SOLDER~1\AppData\Local\Temp\ccqxjBbT.s:20461  .debug_str:000000000000613b .LASF2161
C:\Users\SOLDER~1\AppData\Local\Temp\ccqxjBbT.s:28085  .debug_str:0000000000024fbe .LASF2162
C:\Users\SOLDER~1\AppData\Local\Temp\ccqxjBbT.s:26053  .debug_str:000000000001cc4b .LASF2163
C:\Users\SOLDER~1\AppData\Local\Temp\ccqxjBbT.s:27529  .debug_str:0000000000022b97 .LASF2164
C:\Users\SOLDER~1\AppData\Local\Temp\ccqxjBbT.s:22915  .debug_str:00000000000101b7 .LASF2165
C:\Users\SOLDER~1\AppData\Local\Temp\ccqxjBbT.s:20825  .debug_str:00000000000078ce .LASF2166
C:\Users\SOLDER~1\AppData\Local\Temp\ccqxjBbT.s:30205  .debug_str:000000000002da77 .LASF2167
C:\Users\SOLDER~1\AppData\Local\Temp\ccqxjBbT.s:19659  .debug_str:0000000000002e0b .LASF2168
C:\Users\SOLDER~1\AppData\Local\Temp\ccqxjBbT.s:21619  .debug_str:000000000000ad71 .LASF2169
C:\Users\SOLDER~1\AppData\Local\Temp\ccqxjBbT.s:29589  .debug_str:000000000002b284 .LASF2170
C:\Users\SOLDER~1\AppData\Local\Temp\ccqxjBbT.s:19013  .debug_str:00000000000003f1 .LASF2171
GAS LISTING C:\Users\SOLDER~1\AppData\Local\Temp\ccqxjBbT.s 			page 56


C:\Users\SOLDER~1\AppData\Local\Temp\ccqxjBbT.s:20925  .debug_str:0000000000007f96 .LASF2172
C:\Users\SOLDER~1\AppData\Local\Temp\ccqxjBbT.s:26365  .debug_str:000000000001e039 .LASF2173
C:\Users\SOLDER~1\AppData\Local\Temp\ccqxjBbT.s:23959  .debug_str:0000000000014634 .LASF2174
C:\Users\SOLDER~1\AppData\Local\Temp\ccqxjBbT.s:24741  .debug_str:00000000000177ed .LASF2175
C:\Users\SOLDER~1\AppData\Local\Temp\ccqxjBbT.s:20147  .debug_str:0000000000004d27 .LASF2176
C:\Users\SOLDER~1\AppData\Local\Temp\ccqxjBbT.s:28519  .debug_str:0000000000026cbe .LASF2177
C:\Users\SOLDER~1\AppData\Local\Temp\ccqxjBbT.s:27595  .debug_str:0000000000022fd1 .LASF2178
C:\Users\SOLDER~1\AppData\Local\Temp\ccqxjBbT.s:22553  .debug_str:000000000000ea9b .LASF2179
C:\Users\SOLDER~1\AppData\Local\Temp\ccqxjBbT.s:24241  .debug_str:000000000001587f .LASF2180
C:\Users\SOLDER~1\AppData\Local\Temp\ccqxjBbT.s:25619  .debug_str:000000000001b02b .LASF2181
C:\Users\SOLDER~1\AppData\Local\Temp\ccqxjBbT.s:24887  .debug_str:0000000000018147 .LASF2182
C:\Users\SOLDER~1\AppData\Local\Temp\ccqxjBbT.s:24239  .debug_str:0000000000015867 .LASF2183
C:\Users\SOLDER~1\AppData\Local\Temp\ccqxjBbT.s:25903  .debug_str:000000000001c24d .LASF2184
C:\Users\SOLDER~1\AppData\Local\Temp\ccqxjBbT.s:22901  .debug_str:00000000000100fb .LASF2185
C:\Users\SOLDER~1\AppData\Local\Temp\ccqxjBbT.s:25005  .debug_str:000000000001889d .LASF2186
C:\Users\SOLDER~1\AppData\Local\Temp\ccqxjBbT.s:21305  .debug_str:00000000000098a2 .LASF2187
C:\Users\SOLDER~1\AppData\Local\Temp\ccqxjBbT.s:23163  .debug_str:00000000000111e7 .LASF2188
C:\Users\SOLDER~1\AppData\Local\Temp\ccqxjBbT.s:19533  .debug_str:000000000000260f .LASF2189
C:\Users\SOLDER~1\AppData\Local\Temp\ccqxjBbT.s:28385  .debug_str:00000000000263f2 .LASF2190
C:\Users\SOLDER~1\AppData\Local\Temp\ccqxjBbT.s:23859  .debug_str:0000000000013f78 .LASF2191
C:\Users\SOLDER~1\AppData\Local\Temp\ccqxjBbT.s:21947  .debug_str:000000000000c21b .LASF2192
C:\Users\SOLDER~1\AppData\Local\Temp\ccqxjBbT.s:21253  .debug_str:0000000000009566 .LASF2193
C:\Users\SOLDER~1\AppData\Local\Temp\ccqxjBbT.s:27093  .debug_str:0000000000020f87 .LASF2194
C:\Users\SOLDER~1\AppData\Local\Temp\ccqxjBbT.s:26869  .debug_str:0000000000020121 .LASF2195
C:\Users\SOLDER~1\AppData\Local\Temp\ccqxjBbT.s:23795  .debug_str:0000000000013abe .LASF2196
C:\Users\SOLDER~1\AppData\Local\Temp\ccqxjBbT.s:22569  .debug_str:000000000000eba5 .LASF2197
C:\Users\SOLDER~1\AppData\Local\Temp\ccqxjBbT.s:23741  .debug_str:000000000001370d .LASF2198
C:\Users\SOLDER~1\AppData\Local\Temp\ccqxjBbT.s:28149  .debug_str:00000000000253c5 .LASF2199
C:\Users\SOLDER~1\AppData\Local\Temp\ccqxjBbT.s:29467  .debug_str:000000000002aa6b .LASF2200
C:\Users\SOLDER~1\AppData\Local\Temp\ccqxjBbT.s:26805  .debug_str:000000000001fd11 .LASF2201
C:\Users\SOLDER~1\AppData\Local\Temp\ccqxjBbT.s:25645  .debug_str:000000000001b19c .LASF2202
C:\Users\SOLDER~1\AppData\Local\Temp\ccqxjBbT.s:22489  .debug_str:000000000000e665 .LASF2203
C:\Users\SOLDER~1\AppData\Local\Temp\ccqxjBbT.s:25999  .debug_str:000000000001c8ba .LASF2204
C:\Users\SOLDER~1\AppData\Local\Temp\ccqxjBbT.s:28101  .debug_str:00000000000250b8 .LASF2205
C:\Users\SOLDER~1\AppData\Local\Temp\ccqxjBbT.s:22019  .debug_str:000000000000c742 .LASF2206
C:\Users\SOLDER~1\AppData\Local\Temp\ccqxjBbT.s:19771  .debug_str:0000000000003558 .LASF2207
C:\Users\SOLDER~1\AppData\Local\Temp\ccqxjBbT.s:20161  .debug_str:0000000000004df9 .LASF2208
C:\Users\SOLDER~1\AppData\Local\Temp\ccqxjBbT.s:29059  .debug_str:0000000000028fb4 .LASF2209
C:\Users\SOLDER~1\AppData\Local\Temp\ccqxjBbT.s:30157  .debug_str:000000000002d766 .LASF2210
C:\Users\SOLDER~1\AppData\Local\Temp\ccqxjBbT.s:24345  .debug_str:0000000000015ebc .LASF2211
C:\Users\SOLDER~1\AppData\Local\Temp\ccqxjBbT.s:19517  .debug_str:000000000000250b .LASF2212
C:\Users\SOLDER~1\AppData\Local\Temp\ccqxjBbT.s:19479  .debug_str:000000000000228d .LASF2213
C:\Users\SOLDER~1\AppData\Local\Temp\ccqxjBbT.s:26489  .debug_str:000000000001e874 .LASF2214
C:\Users\SOLDER~1\AppData\Local\Temp\ccqxjBbT.s:25599  .debug_str:000000000001af09 .LASF2215
C:\Users\SOLDER~1\AppData\Local\Temp\ccqxjBbT.s:23063  .debug_str:0000000000010b74 .LASF2216
C:\Users\SOLDER~1\AppData\Local\Temp\ccqxjBbT.s:23319  .debug_str:0000000000011be7 .LASF2217
C:\Users\SOLDER~1\AppData\Local\Temp\ccqxjBbT.s:24395  .debug_str:00000000000161dc .LASF2218
C:\Users\SOLDER~1\AppData\Local\Temp\ccqxjBbT.s:29793  .debug_str:000000000002bfd5 .LASF2219
C:\Users\SOLDER~1\AppData\Local\Temp\ccqxjBbT.s:27223  .debug_str:0000000000021805 .LASF2220
C:\Users\SOLDER~1\AppData\Local\Temp\ccqxjBbT.s:25327  .debug_str:0000000000019d45 .LASF2221
C:\Users\SOLDER~1\AppData\Local\Temp\ccqxjBbT.s:24537  .debug_str:0000000000016ab9 .LASF2222
C:\Users\SOLDER~1\AppData\Local\Temp\ccqxjBbT.s:19733  .debug_str:00000000000032d8 .LASF2223
C:\Users\SOLDER~1\AppData\Local\Temp\ccqxjBbT.s:24471  .debug_str:000000000001669d .LASF2224
C:\Users\SOLDER~1\AppData\Local\Temp\ccqxjBbT.s:29015  .debug_str:0000000000028d07 .LASF2225
C:\Users\SOLDER~1\AppData\Local\Temp\ccqxjBbT.s:21589  .debug_str:000000000000ab9d .LASF2226
C:\Users\SOLDER~1\AppData\Local\Temp\ccqxjBbT.s:26779  .debug_str:000000000001fb70 .LASF2227
C:\Users\SOLDER~1\AppData\Local\Temp\ccqxjBbT.s:28655  .debug_str:00000000000275c3 .LASF2228
GAS LISTING C:\Users\SOLDER~1\AppData\Local\Temp\ccqxjBbT.s 			page 57


C:\Users\SOLDER~1\AppData\Local\Temp\ccqxjBbT.s:20549  .debug_str:000000000000672b .LASF2229
C:\Users\SOLDER~1\AppData\Local\Temp\ccqxjBbT.s:21279  .debug_str:00000000000096e2 .LASF2230
C:\Users\SOLDER~1\AppData\Local\Temp\ccqxjBbT.s:23477  .debug_str:00000000000125c5 .LASF2231
C:\Users\SOLDER~1\AppData\Local\Temp\ccqxjBbT.s:23905  .debug_str:000000000001425d .LASF2232
C:\Users\SOLDER~1\AppData\Local\Temp\ccqxjBbT.s:26023  .debug_str:000000000001ca62 .LASF2233
C:\Users\SOLDER~1\AppData\Local\Temp\ccqxjBbT.s:29941  .debug_str:000000000002c957 .LASF2234
C:\Users\SOLDER~1\AppData\Local\Temp\ccqxjBbT.s:21011  .debug_str:0000000000008526 .LASF2235
C:\Users\SOLDER~1\AppData\Local\Temp\ccqxjBbT.s:27105  .debug_str:0000000000021064 .LASF2236
C:\Users\SOLDER~1\AppData\Local\Temp\ccqxjBbT.s:27985  .debug_str:0000000000024942 .LASF2237
C:\Users\SOLDER~1\AppData\Local\Temp\ccqxjBbT.s:23951  .debug_str:00000000000145a4 .LASF2238
C:\Users\SOLDER~1\AppData\Local\Temp\ccqxjBbT.s:20615  .debug_str:0000000000006b6d .LASF2239
C:\Users\SOLDER~1\AppData\Local\Temp\ccqxjBbT.s:23387  .debug_str:000000000001201c .LASF2240
C:\Users\SOLDER~1\AppData\Local\Temp\ccqxjBbT.s:20239  .debug_str:00000000000052bb .LASF2241
C:\Users\SOLDER~1\AppData\Local\Temp\ccqxjBbT.s:29999  .debug_str:000000000002cd0b .LASF2242
C:\Users\SOLDER~1\AppData\Local\Temp\ccqxjBbT.s:26833  .debug_str:000000000001fecb .LASF2243
C:\Users\SOLDER~1\AppData\Local\Temp\ccqxjBbT.s:29417  .debug_str:000000000002a767 .LASF2244
C:\Users\SOLDER~1\AppData\Local\Temp\ccqxjBbT.s:22247  .debug_str:000000000000d69a .LASF2245
C:\Users\SOLDER~1\AppData\Local\Temp\ccqxjBbT.s:23705  .debug_str:000000000001347c .LASF2246
C:\Users\SOLDER~1\AppData\Local\Temp\ccqxjBbT.s:19439  .debug_str:0000000000001fe7 .LASF2247
C:\Users\SOLDER~1\AppData\Local\Temp\ccqxjBbT.s:28489  .debug_str:0000000000026aec .LASF2248
C:\Users\SOLDER~1\AppData\Local\Temp\ccqxjBbT.s:28433  .debug_str:0000000000026713 .LASF2249
C:\Users\SOLDER~1\AppData\Local\Temp\ccqxjBbT.s:22837  .debug_str:000000000000fcf7 .LASF2250
C:\Users\SOLDER~1\AppData\Local\Temp\ccqxjBbT.s:19039  .debug_str:00000000000005a0 .LASF2251
C:\Users\SOLDER~1\AppData\Local\Temp\ccqxjBbT.s:18989  .debug_str:000000000000023c .LASF2252
C:\Users\SOLDER~1\AppData\Local\Temp\ccqxjBbT.s:24785  .debug_str:0000000000017ab3 .LASF2253
C:\Users\SOLDER~1\AppData\Local\Temp\ccqxjBbT.s:20897  .debug_str:0000000000007db4 .LASF2254
C:\Users\SOLDER~1\AppData\Local\Temp\ccqxjBbT.s:23977  .debug_str:000000000001476f .LASF2255
C:\Users\SOLDER~1\AppData\Local\Temp\ccqxjBbT.s:22181  .debug_str:000000000000d240 .LASF2256
C:\Users\SOLDER~1\AppData\Local\Temp\ccqxjBbT.s:21653  .debug_str:000000000000afdb .LASF2257
C:\Users\SOLDER~1\AppData\Local\Temp\ccqxjBbT.s:30131  .debug_str:000000000002d5b9 .LASF2258
C:\Users\SOLDER~1\AppData\Local\Temp\ccqxjBbT.s:23373  .debug_str:0000000000011f4f .LASF2259
C:\Users\SOLDER~1\AppData\Local\Temp\ccqxjBbT.s:25129  .debug_str:00000000000190fc .LASF2260
C:\Users\SOLDER~1\AppData\Local\Temp\ccqxjBbT.s:24663  .debug_str:000000000001729c .LASF2261
C:\Users\SOLDER~1\AppData\Local\Temp\ccqxjBbT.s:27117  .debug_str:000000000002114d .LASF2262
C:\Users\SOLDER~1\AppData\Local\Temp\ccqxjBbT.s:29191  .debug_str:0000000000029879 .LASF2263
C:\Users\SOLDER~1\AppData\Local\Temp\ccqxjBbT.s:22079  .debug_str:000000000000cb69 .LASF2264
C:\Users\SOLDER~1\AppData\Local\Temp\ccqxjBbT.s:19615  .debug_str:0000000000002b67 .LASF2265
C:\Users\SOLDER~1\AppData\Local\Temp\ccqxjBbT.s:27685  .debug_str:00000000000235d7 .LASF2266
C:\Users\SOLDER~1\AppData\Local\Temp\ccqxjBbT.s:25243  .debug_str:000000000001984f .LASF2267
C:\Users\SOLDER~1\AppData\Local\Temp\ccqxjBbT.s:20973  .debug_str:00000000000082d1 .LASF2268
C:\Users\SOLDER~1\AppData\Local\Temp\ccqxjBbT.s:20201  .debug_str:0000000000005056 .LASF2269
C:\Users\SOLDER~1\AppData\Local\Temp\ccqxjBbT.s:26781  .debug_str:000000000001fb83 .LASF2270
C:\Users\SOLDER~1\AppData\Local\Temp\ccqxjBbT.s:23185  .debug_str:000000000001136c .LASF2271
C:\Users\SOLDER~1\AppData\Local\Temp\ccqxjBbT.s:22715  .debug_str:000000000000f4a3 .LASF2272
C:\Users\SOLDER~1\AppData\Local\Temp\ccqxjBbT.s:25203  .debug_str:00000000000195d7 .LASF2273
C:\Users\SOLDER~1\AppData\Local\Temp\ccqxjBbT.s:22513  .debug_str:000000000000e7f0 .LASF2274
C:\Users\SOLDER~1\AppData\Local\Temp\ccqxjBbT.s:19217  .debug_str:000000000000117a .LASF2275
C:\Users\SOLDER~1\AppData\Local\Temp\ccqxjBbT.s:28675  .debug_str:0000000000027716 .LASF2276
C:\Users\SOLDER~1\AppData\Local\Temp\ccqxjBbT.s:29415  .debug_str:000000000002a753 .LASF2277
C:\Users\SOLDER~1\AppData\Local\Temp\ccqxjBbT.s:29609  .debug_str:000000000002b3a9 .LASF2278
C:\Users\SOLDER~1\AppData\Local\Temp\ccqxjBbT.s:28693  .debug_str:0000000000027846 .LASF2279
C:\Users\SOLDER~1\AppData\Local\Temp\ccqxjBbT.s:19079  .debug_str:00000000000008ca .LASF2280
C:\Users\SOLDER~1\AppData\Local\Temp\ccqxjBbT.s:19159  .debug_str:0000000000000e77 .LASF2281
C:\Users\SOLDER~1\AppData\Local\Temp\ccqxjBbT.s:21335  .debug_str:0000000000009aa2 .LASF2282
C:\Users\SOLDER~1\AppData\Local\Temp\ccqxjBbT.s:26595  .debug_str:000000000001ef6b .LASF2283
C:\Users\SOLDER~1\AppData\Local\Temp\ccqxjBbT.s:20867  .debug_str:0000000000007bb2 .LASF2284
C:\Users\SOLDER~1\AppData\Local\Temp\ccqxjBbT.s:30471  .debug_str:000000000002eba8 .LASF2285
GAS LISTING C:\Users\SOLDER~1\AppData\Local\Temp\ccqxjBbT.s 			page 58


C:\Users\SOLDER~1\AppData\Local\Temp\ccqxjBbT.s:23471  .debug_str:0000000000012577 .LASF2286
C:\Users\SOLDER~1\AppData\Local\Temp\ccqxjBbT.s:26665  .debug_str:000000000001f41e .LASF2287
C:\Users\SOLDER~1\AppData\Local\Temp\ccqxjBbT.s:30071  .debug_str:000000000002d204 .LASF2288
C:\Users\SOLDER~1\AppData\Local\Temp\ccqxjBbT.s:20807  .debug_str:00000000000077d5 .LASF2289
C:\Users\SOLDER~1\AppData\Local\Temp\ccqxjBbT.s:19573  .debug_str:00000000000028d4 .LASF2290
C:\Users\SOLDER~1\AppData\Local\Temp\ccqxjBbT.s:26957  .debug_str:00000000000206db .LASF2291
C:\Users\SOLDER~1\AppData\Local\Temp\ccqxjBbT.s:20767  .debug_str:000000000000757e .LASF2292
C:\Users\SOLDER~1\AppData\Local\Temp\ccqxjBbT.s:24747  .debug_str:000000000001785a .LASF2293
C:\Users\SOLDER~1\AppData\Local\Temp\ccqxjBbT.s:23423  .debug_str:0000000000012262 .LASF2294
C:\Users\SOLDER~1\AppData\Local\Temp\ccqxjBbT.s:20891  .debug_str:0000000000007d61 .LASF2295
C:\Users\SOLDER~1\AppData\Local\Temp\ccqxjBbT.s:26199  .debug_str:000000000001d5b6 .LASF2296
C:\Users\SOLDER~1\AppData\Local\Temp\ccqxjBbT.s:26701  .debug_str:000000000001f6b6 .LASF2297
C:\Users\SOLDER~1\AppData\Local\Temp\ccqxjBbT.s:23841  .debug_str:0000000000013e1d .LASF2298
C:\Users\SOLDER~1\AppData\Local\Temp\ccqxjBbT.s:19979  .debug_str:0000000000004298 .LASF2299
C:\Users\SOLDER~1\AppData\Local\Temp\ccqxjBbT.s:24097  .debug_str:0000000000014f65 .LASF2300
C:\Users\SOLDER~1\AppData\Local\Temp\ccqxjBbT.s:30441  .debug_str:000000000002e9b2 .LASF2301
C:\Users\SOLDER~1\AppData\Local\Temp\ccqxjBbT.s:20821  .debug_str:0000000000007893 .LASF2302
C:\Users\SOLDER~1\AppData\Local\Temp\ccqxjBbT.s:29377  .debug_str:000000000002a4de .LASF2303
C:\Users\SOLDER~1\AppData\Local\Temp\ccqxjBbT.s:27591  .debug_str:0000000000022f90 .LASF2304
C:\Users\SOLDER~1\AppData\Local\Temp\ccqxjBbT.s:23711  .debug_str:00000000000134f6 .LASF2305
C:\Users\SOLDER~1\AppData\Local\Temp\ccqxjBbT.s:26899  .debug_str:00000000000202fe .LASF2306
C:\Users\SOLDER~1\AppData\Local\Temp\ccqxjBbT.s:29703  .debug_str:000000000002b9cd .LASF2307
C:\Users\SOLDER~1\AppData\Local\Temp\ccqxjBbT.s:23205  .debug_str:0000000000011495 .LASF2308
C:\Users\SOLDER~1\AppData\Local\Temp\ccqxjBbT.s:27375  .debug_str:000000000002215d .LASF2309
C:\Users\SOLDER~1\AppData\Local\Temp\ccqxjBbT.s:24725  .debug_str:00000000000176d4 .LASF2310
C:\Users\SOLDER~1\AppData\Local\Temp\ccqxjBbT.s:23631  .debug_str:0000000000012f9e .LASF2311
C:\Users\SOLDER~1\AppData\Local\Temp\ccqxjBbT.s:26073  .debug_str:000000000001cdbe .LASF2312
C:\Users\SOLDER~1\AppData\Local\Temp\ccqxjBbT.s:29419  .debug_str:000000000002a787 .LASF2313
C:\Users\SOLDER~1\AppData\Local\Temp\ccqxjBbT.s:23249  .debug_str:00000000000117a1 .LASF2314
C:\Users\SOLDER~1\AppData\Local\Temp\ccqxjBbT.s:23965  .debug_str:00000000000146ab .LASF2315
C:\Users\SOLDER~1\AppData\Local\Temp\ccqxjBbT.s:22589  .debug_str:000000000000ecd5 .LASF2316
C:\Users\SOLDER~1\AppData\Local\Temp\ccqxjBbT.s:21637  .debug_str:000000000000aed6 .LASF2317
C:\Users\SOLDER~1\AppData\Local\Temp\ccqxjBbT.s:29297  .debug_str:0000000000029f70 .LASF2318
C:\Users\SOLDER~1\AppData\Local\Temp\ccqxjBbT.s:29439  .debug_str:000000000002a8b1 .LASF2319
C:\Users\SOLDER~1\AppData\Local\Temp\ccqxjBbT.s:21967  .debug_str:000000000000c394 .LASF2320
C:\Users\SOLDER~1\AppData\Local\Temp\ccqxjBbT.s:23667  .debug_str:00000000000131ec .LASF2321
C:\Users\SOLDER~1\AppData\Local\Temp\ccqxjBbT.s:23377  .debug_str:0000000000011f83 .LASF2322
C:\Users\SOLDER~1\AppData\Local\Temp\ccqxjBbT.s:20841  .debug_str:00000000000079fa .LASF2323
C:\Users\SOLDER~1\AppData\Local\Temp\ccqxjBbT.s:23179  .debug_str:00000000000112f8 .LASF2324
C:\Users\SOLDER~1\AppData\Local\Temp\ccqxjBbT.s:30145  .debug_str:000000000002d6a0 .LASF2325
C:\Users\SOLDER~1\AppData\Local\Temp\ccqxjBbT.s:24317  .debug_str:0000000000015d03 .LASF2326
C:\Users\SOLDER~1\AppData\Local\Temp\ccqxjBbT.s:27389  .debug_str:000000000002221a .LASF2327
C:\Users\SOLDER~1\AppData\Local\Temp\ccqxjBbT.s:24763  .debug_str:000000000001792a .LASF2328
C:\Users\SOLDER~1\AppData\Local\Temp\ccqxjBbT.s:27767  .debug_str:0000000000023af6 .LASF2329
C:\Users\SOLDER~1\AppData\Local\Temp\ccqxjBbT.s:27233  .debug_str:00000000000218af .LASF2330
C:\Users\SOLDER~1\AppData\Local\Temp\ccqxjBbT.s:26175  .debug_str:000000000001d43f .LASF2331
C:\Users\SOLDER~1\AppData\Local\Temp\ccqxjBbT.s:20777  .debug_str:0000000000007609 .LASF2332
C:\Users\SOLDER~1\AppData\Local\Temp\ccqxjBbT.s:25879  .debug_str:000000000001c08a .LASF2333
C:\Users\SOLDER~1\AppData\Local\Temp\ccqxjBbT.s:21567  .debug_str:000000000000aa20 .LASF2334
C:\Users\SOLDER~1\AppData\Local\Temp\ccqxjBbT.s:21467  .debug_str:000000000000a349 .LASF2335
C:\Users\SOLDER~1\AppData\Local\Temp\ccqxjBbT.s:20279  .debug_str:0000000000005501 .LASF2336
C:\Users\SOLDER~1\AppData\Local\Temp\ccqxjBbT.s:19317  .debug_str:00000000000017e2 .LASF2337
C:\Users\SOLDER~1\AppData\Local\Temp\ccqxjBbT.s:29629  .debug_str:000000000002b4db .LASF2338
C:\Users\SOLDER~1\AppData\Local\Temp\ccqxjBbT.s:25771  .debug_str:000000000001b963 .LASF2339
C:\Users\SOLDER~1\AppData\Local\Temp\ccqxjBbT.s:28925  .debug_str:0000000000028770 .LASF2340
C:\Users\SOLDER~1\AppData\Local\Temp\ccqxjBbT.s:21857  .debug_str:000000000000bc41 .LASF2341
C:\Users\SOLDER~1\AppData\Local\Temp\ccqxjBbT.s:26661  .debug_str:000000000001f3da .LASF2342
GAS LISTING C:\Users\SOLDER~1\AppData\Local\Temp\ccqxjBbT.s 			page 59


C:\Users\SOLDER~1\AppData\Local\Temp\ccqxjBbT.s:22319  .debug_str:000000000000db05 .LASF2343
C:\Users\SOLDER~1\AppData\Local\Temp\ccqxjBbT.s:30129  .debug_str:000000000002d596 .LASF2344
C:\Users\SOLDER~1\AppData\Local\Temp\ccqxjBbT.s:22091  .debug_str:000000000000cc46 .LASF2345
C:\Users\SOLDER~1\AppData\Local\Temp\ccqxjBbT.s:26865  .debug_str:00000000000200d5 .LASF2346
C:\Users\SOLDER~1\AppData\Local\Temp\ccqxjBbT.s:26741  .debug_str:000000000001f8f9 .LASF2347
C:\Users\SOLDER~1\AppData\Local\Temp\ccqxjBbT.s:29717  .debug_str:000000000002ba98 .LASF2348
C:\Users\SOLDER~1\AppData\Local\Temp\ccqxjBbT.s:23447  .debug_str:00000000000123fb .LASF2349
C:\Users\SOLDER~1\AppData\Local\Temp\ccqxjBbT.s:28513  .debug_str:0000000000026c5d .LASF2350
C:\Users\SOLDER~1\AppData\Local\Temp\ccqxjBbT.s:23099  .debug_str:0000000000010d9c .LASF2351
C:\Users\SOLDER~1\AppData\Local\Temp\ccqxjBbT.s:22471  .debug_str:000000000000e549 .LASF2352
C:\Users\SOLDER~1\AppData\Local\Temp\ccqxjBbT.s:28823  .debug_str:00000000000280da .LASF2353
C:\Users\SOLDER~1\AppData\Local\Temp\ccqxjBbT.s:27037  .debug_str:0000000000020c04 .LASF2354
C:\Users\SOLDER~1\AppData\Local\Temp\ccqxjBbT.s:20909  .debug_str:0000000000007e8a .LASF2355
C:\Users\SOLDER~1\AppData\Local\Temp\ccqxjBbT.s:25851  .debug_str:000000000001bec0 .LASF2356
C:\Users\SOLDER~1\AppData\Local\Temp\ccqxjBbT.s:29017  .debug_str:0000000000028d1b .LASF2357
C:\Users\SOLDER~1\AppData\Local\Temp\ccqxjBbT.s:27525  .debug_str:0000000000022b55 .LASF2358
C:\Users\SOLDER~1\AppData\Local\Temp\ccqxjBbT.s:21541  .debug_str:000000000000a869 .LASF2359
C:\Users\SOLDER~1\AppData\Local\Temp\ccqxjBbT.s:30039  .debug_str:000000000002cfa6 .LASF2360
C:\Users\SOLDER~1\AppData\Local\Temp\ccqxjBbT.s:22327  .debug_str:000000000000db72 .LASF2361
C:\Users\SOLDER~1\AppData\Local\Temp\ccqxjBbT.s:25069  .debug_str:0000000000018cf2 .LASF2362
C:\Users\SOLDER~1\AppData\Local\Temp\ccqxjBbT.s:21919  .debug_str:000000000000c024 .LASF2363
C:\Users\SOLDER~1\AppData\Local\Temp\ccqxjBbT.s:25829  .debug_str:000000000001bd2e .LASF2364
C:\Users\SOLDER~1\AppData\Local\Temp\ccqxjBbT.s:22795  .debug_str:000000000000fa01 .LASF2365
C:\Users\SOLDER~1\AppData\Local\Temp\ccqxjBbT.s:26235  .debug_str:000000000001d7f2 .LASF2366
C:\Users\SOLDER~1\AppData\Local\Temp\ccqxjBbT.s:26933  .debug_str:000000000002054d .LASF2367
C:\Users\SOLDER~1\AppData\Local\Temp\ccqxjBbT.s:22367  .debug_str:000000000000de1d .LASF2368
C:\Users\SOLDER~1\AppData\Local\Temp\ccqxjBbT.s:23637  .debug_str:0000000000012ff7 .LASF2369
C:\Users\SOLDER~1\AppData\Local\Temp\ccqxjBbT.s:21677  .debug_str:000000000000b14b .LASF2370
C:\Users\SOLDER~1\AppData\Local\Temp\ccqxjBbT.s:29593  .debug_str:000000000002b2c1 .LASF2371
C:\Users\SOLDER~1\AppData\Local\Temp\ccqxjBbT.s:26855  .debug_str:0000000000020038 .LASF2372
C:\Users\SOLDER~1\AppData\Local\Temp\ccqxjBbT.s:28081  .debug_str:0000000000024f88 .LASF2373
C:\Users\SOLDER~1\AppData\Local\Temp\ccqxjBbT.s:26949  .debug_str:000000000002064b .LASF2374
C:\Users\SOLDER~1\AppData\Local\Temp\ccqxjBbT.s:25043  .debug_str:0000000000018b38 .LASF2375
C:\Users\SOLDER~1\AppData\Local\Temp\ccqxjBbT.s:19569  .debug_str:000000000000285b .LASF2376
C:\Users\SOLDER~1\AppData\Local\Temp\ccqxjBbT.s:20023  .debug_str:0000000000004543 .LASF2377
C:\Users\SOLDER~1\AppData\Local\Temp\ccqxjBbT.s:26463  .debug_str:000000000001e699 .LASF2378
C:\Users\SOLDER~1\AppData\Local\Temp\ccqxjBbT.s:20005  .debug_str:000000000000442e .LASF2379
C:\Users\SOLDER~1\AppData\Local\Temp\ccqxjBbT.s:19843  .debug_str:00000000000039e4 .LASF2380
C:\Users\SOLDER~1\AppData\Local\Temp\ccqxjBbT.s:20463  .debug_str:0000000000006161 .LASF2381
C:\Users\SOLDER~1\AppData\Local\Temp\ccqxjBbT.s:25365  .debug_str:0000000000019f81 .LASF2382
C:\Users\SOLDER~1\AppData\Local\Temp\ccqxjBbT.s:21485  .debug_str:000000000000a483 .LASF2383
C:\Users\SOLDER~1\AppData\Local\Temp\ccqxjBbT.s:19721  .debug_str:0000000000003211 .LASF2384
C:\Users\SOLDER~1\AppData\Local\Temp\ccqxjBbT.s:29315  .debug_str:000000000002a0a2 .LASF2385
C:\Users\SOLDER~1\AppData\Local\Temp\ccqxjBbT.s:28721  .debug_str:00000000000279e5 .LASF2386
C:\Users\SOLDER~1\AppData\Local\Temp\ccqxjBbT.s:19069  .debug_str:0000000000000823 .LASF2387
C:\Users\SOLDER~1\AppData\Local\Temp\ccqxjBbT.s:30433  .debug_str:000000000002e921 .LASF2388
C:\Users\SOLDER~1\AppData\Local\Temp\ccqxjBbT.s:25867  .debug_str:000000000001bfc1 .LASF2389
C:\Users\SOLDER~1\AppData\Local\Temp\ccqxjBbT.s:21971  .debug_str:000000000000c3e8 .LASF2390
C:\Users\SOLDER~1\AppData\Local\Temp\ccqxjBbT.s:29983  .debug_str:000000000002cc02 .LASF2391
C:\Users\SOLDER~1\AppData\Local\Temp\ccqxjBbT.s:29355  .debug_str:000000000002a374 .LASF2392
C:\Users\SOLDER~1\AppData\Local\Temp\ccqxjBbT.s:29681  .debug_str:000000000002b858 .LASF2393
C:\Users\SOLDER~1\AppData\Local\Temp\ccqxjBbT.s:30167  .debug_str:000000000002d825 .LASF2394
C:\Users\SOLDER~1\AppData\Local\Temp\ccqxjBbT.s:24129  .debug_str:0000000000015156 .LASF2395
C:\Users\SOLDER~1\AppData\Local\Temp\ccqxjBbT.s:20609  .debug_str:0000000000006b0f .LASF2396
C:\Users\SOLDER~1\AppData\Local\Temp\ccqxjBbT.s:23127  .debug_str:0000000000010f6e .LASF2397
C:\Users\SOLDER~1\AppData\Local\Temp\ccqxjBbT.s:26637  .debug_str:000000000001f23e .LASF2398
C:\Users\SOLDER~1\AppData\Local\Temp\ccqxjBbT.s:20573  .debug_str:00000000000068e4 .LASF2399
GAS LISTING C:\Users\SOLDER~1\AppData\Local\Temp\ccqxjBbT.s 			page 60


C:\Users\SOLDER~1\AppData\Local\Temp\ccqxjBbT.s:25933  .debug_str:000000000001c455 .LASF2400
C:\Users\SOLDER~1\AppData\Local\Temp\ccqxjBbT.s:25661  .debug_str:000000000001b2b0 .LASF2401
C:\Users\SOLDER~1\AppData\Local\Temp\ccqxjBbT.s:19607  .debug_str:0000000000002aea .LASF2402
C:\Users\SOLDER~1\AppData\Local\Temp\ccqxjBbT.s:22397  .debug_str:000000000000e01d .LASF2403
C:\Users\SOLDER~1\AppData\Local\Temp\ccqxjBbT.s:23753  .debug_str:00000000000137d8 .LASF2404
C:\Users\SOLDER~1\AppData\Local\Temp\ccqxjBbT.s:27859  .debug_str:00000000000240f4 .LASF2405
C:\Users\SOLDER~1\AppData\Local\Temp\ccqxjBbT.s:21065  .debug_str:000000000000887e .LASF2406
C:\Users\SOLDER~1\AppData\Local\Temp\ccqxjBbT.s:22615  .debug_str:000000000000ee80 .LASF2407
C:\Users\SOLDER~1\AppData\Local\Temp\ccqxjBbT.s:23327  .debug_str:0000000000011c58 .LASF2408
C:\Users\SOLDER~1\AppData\Local\Temp\ccqxjBbT.s:27713  .debug_str:00000000000237a1 .LASF2409
C:\Users\SOLDER~1\AppData\Local\Temp\ccqxjBbT.s:22743  .debug_str:000000000000f659 .LASF2410
C:\Users\SOLDER~1\AppData\Local\Temp\ccqxjBbT.s:21763  .debug_str:000000000000b68f .LASF2411
C:\Users\SOLDER~1\AppData\Local\Temp\ccqxjBbT.s:28163  .debug_str:00000000000254a6 .LASF2412
C:\Users\SOLDER~1\AppData\Local\Temp\ccqxjBbT.s:25763  .debug_str:000000000001b8e0 .LASF2413
C:\Users\SOLDER~1\AppData\Local\Temp\ccqxjBbT.s:24003  .debug_str:000000000001491f .LASF2414
C:\Users\SOLDER~1\AppData\Local\Temp\ccqxjBbT.s:26145  .debug_str:000000000001d237 .LASF2415
C:\Users\SOLDER~1\AppData\Local\Temp\ccqxjBbT.s:20129  .debug_str:0000000000004c02 .LASF2416
C:\Users\SOLDER~1\AppData\Local\Temp\ccqxjBbT.s:20569  .debug_str:00000000000068aa .LASF2417
C:\Users\SOLDER~1\AppData\Local\Temp\ccqxjBbT.s:21665  .debug_str:000000000000b08e .LASF2418
C:\Users\SOLDER~1\AppData\Local\Temp\ccqxjBbT.s:21997  .debug_str:000000000000c5cc .LASF2419
C:\Users\SOLDER~1\AppData\Local\Temp\ccqxjBbT.s:27017  .debug_str:0000000000020ac7 .LASF2420
C:\Users\SOLDER~1\AppData\Local\Temp\ccqxjBbT.s:20713  .debug_str:0000000000007210 .LASF2421
C:\Users\SOLDER~1\AppData\Local\Temp\ccqxjBbT.s:19989  .debug_str:000000000000432d .LASF2422
C:\Users\SOLDER~1\AppData\Local\Temp\ccqxjBbT.s:25739  .debug_str:000000000001b786 .LASF2423
C:\Users\SOLDER~1\AppData\Local\Temp\ccqxjBbT.s:22829  .debug_str:000000000000fc53 .LASF2424
C:\Users\SOLDER~1\AppData\Local\Temp\ccqxjBbT.s:25513  .debug_str:000000000001a932 .LASF2425
C:\Users\SOLDER~1\AppData\Local\Temp\ccqxjBbT.s:26479  .debug_str:000000000001e7b8 .LASF2426
C:\Users\SOLDER~1\AppData\Local\Temp\ccqxjBbT.s:19177  .debug_str:0000000000000f8f .LASF2427
C:\Users\SOLDER~1\AppData\Local\Temp\ccqxjBbT.s:19297  .debug_str:0000000000001695 .LASF2428
C:\Users\SOLDER~1\AppData\Local\Temp\ccqxjBbT.s:20177  .debug_str:0000000000004eef .LASF2429
C:\Users\SOLDER~1\AppData\Local\Temp\ccqxjBbT.s:30191  .debug_str:000000000002d9a0 .LASF2430
C:\Users\SOLDER~1\AppData\Local\Temp\ccqxjBbT.s:21789  .debug_str:000000000000b814 .LASF2431
C:\Users\SOLDER~1\AppData\Local\Temp\ccqxjBbT.s:23887  .debug_str:0000000000014150 .LASF2432
C:\Users\SOLDER~1\AppData\Local\Temp\ccqxjBbT.s:28257  .debug_str:0000000000025b02 .LASF2433
C:\Users\SOLDER~1\AppData\Local\Temp\ccqxjBbT.s:20565  .debug_str:000000000000686a .LASF2434
C:\Users\SOLDER~1\AppData\Local\Temp\ccqxjBbT.s:19299  .debug_str:00000000000016b7 .LASF2435
C:\Users\SOLDER~1\AppData\Local\Temp\ccqxjBbT.s:24083  .debug_str:0000000000014e88 .LASF2436
C:\Users\SOLDER~1\AppData\Local\Temp\ccqxjBbT.s:26161  .debug_str:000000000001d353 .LASF2437
C:\Users\SOLDER~1\AppData\Local\Temp\ccqxjBbT.s:18993  .debug_str:0000000000000281 .LASF2438
C:\Users\SOLDER~1\AppData\Local\Temp\ccqxjBbT.s:25701  .debug_str:000000000001b530 .LASF2439
C:\Users\SOLDER~1\AppData\Local\Temp\ccqxjBbT.s:25737  .debug_str:000000000001b761 .LASF2440
C:\Users\SOLDER~1\AppData\Local\Temp\ccqxjBbT.s:29795  .debug_str:000000000002bfe8 .LASF2441
C:\Users\SOLDER~1\AppData\Local\Temp\ccqxjBbT.s:19451  .debug_str:0000000000002094 .LASF2442
C:\Users\SOLDER~1\AppData\Local\Temp\ccqxjBbT.s:30099  .debug_str:000000000002d3cd .LASF2443
C:\Users\SOLDER~1\AppData\Local\Temp\ccqxjBbT.s:28271  .debug_str:0000000000025bfc .LASF2444
C:\Users\SOLDER~1\AppData\Local\Temp\ccqxjBbT.s:29423  .debug_str:000000000002a7c0 .LASF2445
C:\Users\SOLDER~1\AppData\Local\Temp\ccqxjBbT.s:24903  .debug_str:0000000000018258 .LASF2446
C:\Users\SOLDER~1\AppData\Local\Temp\ccqxjBbT.s:22167  .debug_str:000000000000d156 .LASF2447
C:\Users\SOLDER~1\AppData\Local\Temp\ccqxjBbT.s:24573  .debug_str:0000000000016ccd .LASF2448
C:\Users\SOLDER~1\AppData\Local\Temp\ccqxjBbT.s:29745  .debug_str:000000000002bc6c .LASF2449
C:\Users\SOLDER~1\AppData\Local\Temp\ccqxjBbT.s:19701  .debug_str:00000000000030c1 .LASF2450
C:\Users\SOLDER~1\AppData\Local\Temp\ccqxjBbT.s:22169  .debug_str:000000000000d16c .LASF2451
C:\Users\SOLDER~1\AppData\Local\Temp\ccqxjBbT.s:26263  .debug_str:000000000001d97d .LASF2452
C:\Users\SOLDER~1\AppData\Local\Temp\ccqxjBbT.s:21867  .debug_str:000000000000bce5 .LASF2453
C:\Users\SOLDER~1\AppData\Local\Temp\ccqxjBbT.s:27055  .debug_str:0000000000020d20 .LASF2454
C:\Users\SOLDER~1\AppData\Local\Temp\ccqxjBbT.s:26795  .debug_str:000000000001fc75 .LASF2455
C:\Users\SOLDER~1\AppData\Local\Temp\ccqxjBbT.s:24077  .debug_str:0000000000014e33 .LASF2456
GAS LISTING C:\Users\SOLDER~1\AppData\Local\Temp\ccqxjBbT.s 			page 61


C:\Users\SOLDER~1\AppData\Local\Temp\ccqxjBbT.s:24435  .debug_str:000000000001646f .LASF2457
C:\Users\SOLDER~1\AppData\Local\Temp\ccqxjBbT.s:23641  .debug_str:0000000000013035 .LASF2458
C:\Users\SOLDER~1\AppData\Local\Temp\ccqxjBbT.s:27881  .debug_str:0000000000024253 .LASF2459
C:\Users\SOLDER~1\AppData\Local\Temp\ccqxjBbT.s:22257  .debug_str:000000000000d729 .LASF2460
C:\Users\SOLDER~1\AppData\Local\Temp\ccqxjBbT.s:29529  .debug_str:000000000002ae40 .LASF2461
C:\Users\SOLDER~1\AppData\Local\Temp\ccqxjBbT.s:28065  .debug_str:0000000000024e76 .LASF2462
C:\Users\SOLDER~1\AppData\Local\Temp\ccqxjBbT.s:20231  .debug_str:000000000000523e .LASF2463
C:\Users\SOLDER~1\AppData\Local\Temp\ccqxjBbT.s:28897  .debug_str:0000000000028576 .LASF2464
C:\Users\SOLDER~1\AppData\Local\Temp\ccqxjBbT.s:22173  .debug_str:000000000000d1a9 .LASF2465
C:\Users\SOLDER~1\AppData\Local\Temp\ccqxjBbT.s:26927  .debug_str:00000000000204e5 .LASF2466
C:\Users\SOLDER~1\AppData\Local\Temp\ccqxjBbT.s:19399  .debug_str:0000000000001d52 .LASF2467
C:\Users\SOLDER~1\AppData\Local\Temp\ccqxjBbT.s:28381  .debug_str:00000000000263a0 .LASF2468
C:\Users\SOLDER~1\AppData\Local\Temp\ccqxjBbT.s:22035  .debug_str:000000000000c84e .LASF2469
C:\Users\SOLDER~1\AppData\Local\Temp\ccqxjBbT.s:28601  .debug_str:0000000000027211 .LASF2470
C:\Users\SOLDER~1\AppData\Local\Temp\ccqxjBbT.s:21095  .debug_str:0000000000008a8b .LASF2471
C:\Users\SOLDER~1\AppData\Local\Temp\ccqxjBbT.s:22301  .debug_str:000000000000da14 .LASF2472
C:\Users\SOLDER~1\AppData\Local\Temp\ccqxjBbT.s:22755  .debug_str:000000000000f732 .LASF2473
C:\Users\SOLDER~1\AppData\Local\Temp\ccqxjBbT.s:20963  .debug_str:0000000000008212 .LASF2474
C:\Users\SOLDER~1\AppData\Local\Temp\ccqxjBbT.s:19887  .debug_str:0000000000003cc1 .LASF2475
C:\Users\SOLDER~1\AppData\Local\Temp\ccqxjBbT.s:25923  .debug_str:000000000001c3b8 .LASF2476
C:\Users\SOLDER~1\AppData\Local\Temp\ccqxjBbT.s:28321  .debug_str:0000000000025f8c .LASF2477
C:\Users\SOLDER~1\AppData\Local\Temp\ccqxjBbT.s:27349  .debug_str:0000000000021fd7 .LASF2478
C:\Users\SOLDER~1\AppData\Local\Temp\ccqxjBbT.s:25811  .debug_str:000000000001bbfd .LASF2479
C:\Users\SOLDER~1\AppData\Local\Temp\ccqxjBbT.s:23979  .debug_str:0000000000014790 .LASF2480
C:\Users\SOLDER~1\AppData\Local\Temp\ccqxjBbT.s:29917  .debug_str:000000000002c7ec .LASF2481
C:\Users\SOLDER~1\AppData\Local\Temp\ccqxjBbT.s:26313  .debug_str:000000000001dcda .LASF2482
C:\Users\SOLDER~1\AppData\Local\Temp\ccqxjBbT.s:29607  .debug_str:000000000002b391 .LASF2483
C:\Users\SOLDER~1\AppData\Local\Temp\ccqxjBbT.s:19819  .debug_str:0000000000003855 .LASF2484
C:\Users\SOLDER~1\AppData\Local\Temp\ccqxjBbT.s:30183  .debug_str:000000000002d931 .LASF2485
C:\Users\SOLDER~1\AppData\Local\Temp\ccqxjBbT.s:26803  .debug_str:000000000001fcf0 .LASF2486
C:\Users\SOLDER~1\AppData\Local\Temp\ccqxjBbT.s:22251  .debug_str:000000000000d6d5 .LASF2487
C:\Users\SOLDER~1\AppData\Local\Temp\ccqxjBbT.s:27839  .debug_str:0000000000023f9d .LASF2488
C:\Users\SOLDER~1\AppData\Local\Temp\ccqxjBbT.s:24011  .debug_str:0000000000014997 .LASF2489
C:\Users\SOLDER~1\AppData\Local\Temp\ccqxjBbT.s:27161  .debug_str:000000000002140d .LASF2490
C:\Users\SOLDER~1\AppData\Local\Temp\ccqxjBbT.s:25601  .debug_str:000000000001af1d .LASF2491
C:\Users\SOLDER~1\AppData\Local\Temp\ccqxjBbT.s:20855  .debug_str:0000000000007adc .LASF2492
C:\Users\SOLDER~1\AppData\Local\Temp\ccqxjBbT.s:28345  .debug_str:0000000000026116 .LASF2493
C:\Users\SOLDER~1\AppData\Local\Temp\ccqxjBbT.s:25677  .debug_str:000000000001b39c .LASF2494
C:\Users\SOLDER~1\AppData\Local\Temp\ccqxjBbT.s:25123  .debug_str:00000000000190a3 .LASF2495
C:\Users\SOLDER~1\AppData\Local\Temp\ccqxjBbT.s:29843  .debug_str:000000000002c336 .LASF2496
C:\Users\SOLDER~1\AppData\Local\Temp\ccqxjBbT.s:29835  .debug_str:000000000002c2c9 .LASF2497
C:\Users\SOLDER~1\AppData\Local\Temp\ccqxjBbT.s:25287  .debug_str:0000000000019aad .LASF2498
C:\Users\SOLDER~1\AppData\Local\Temp\ccqxjBbT.s:30469  .debug_str:000000000002eb83 .LASF2499
C:\Users\SOLDER~1\AppData\Local\Temp\ccqxjBbT.s:19911  .debug_str:0000000000003e48 .LASF2500
C:\Users\SOLDER~1\AppData\Local\Temp\ccqxjBbT.s:25805  .debug_str:000000000001bb99 .LASF2501
C:\Users\SOLDER~1\AppData\Local\Temp\ccqxjBbT.s:25193  .debug_str:0000000000019518 .LASF2502
C:\Users\SOLDER~1\AppData\Local\Temp\ccqxjBbT.s:26977  .debug_str:0000000000020823 .LASF2503
C:\Users\SOLDER~1\AppData\Local\Temp\ccqxjBbT.s:25235  .debug_str:00000000000197e8 .LASF2504
C:\Users\SOLDER~1\AppData\Local\Temp\ccqxjBbT.s:28273  .debug_str:0000000000025c1e .LASF2505
C:\Users\SOLDER~1\AppData\Local\Temp\ccqxjBbT.s:28899  .debug_str:0000000000028599 .LASF2506
C:\Users\SOLDER~1\AppData\Local\Temp\ccqxjBbT.s:25331  .debug_str:0000000000019d77 .LASF2507
C:\Users\SOLDER~1\AppData\Local\Temp\ccqxjBbT.s:29859  .debug_str:000000000002c442 .LASF2508
C:\Users\SOLDER~1\AppData\Local\Temp\ccqxjBbT.s:21927  .debug_str:000000000000c0bf .LASF2509
C:\Users\SOLDER~1\AppData\Local\Temp\ccqxjBbT.s:24881  .debug_str:00000000000180d7 .LASF2510
C:\Users\SOLDER~1\AppData\Local\Temp\ccqxjBbT.s:26059  .debug_str:000000000001ccb6 .LASF2511
C:\Users\SOLDER~1\AppData\Local\Temp\ccqxjBbT.s:23293  .debug_str:0000000000011a3f .LASF2512
C:\Users\SOLDER~1\AppData\Local\Temp\ccqxjBbT.s:25673  .debug_str:000000000001b361 .LASF2513
GAS LISTING C:\Users\SOLDER~1\AppData\Local\Temp\ccqxjBbT.s 			page 62


C:\Users\SOLDER~1\AppData\Local\Temp\ccqxjBbT.s:24101  .debug_str:0000000000014fa3 .LASF2514
C:\Users\SOLDER~1\AppData\Local\Temp\ccqxjBbT.s:21461  .debug_str:000000000000a2fa .LASF2515
C:\Users\SOLDER~1\AppData\Local\Temp\ccqxjBbT.s:21177  .debug_str:000000000000901f .LASF2516
C:\Users\SOLDER~1\AppData\Local\Temp\ccqxjBbT.s:19103  .debug_str:0000000000000aa8 .LASF2517
C:\Users\SOLDER~1\AppData\Local\Temp\ccqxjBbT.s:20527  .debug_str:0000000000006595 .LASF2518
C:\Users\SOLDER~1\AppData\Local\Temp\ccqxjBbT.s:20107  .debug_str:0000000000004a7c .LASF2519
C:\Users\SOLDER~1\AppData\Local\Temp\ccqxjBbT.s:19845  .debug_str:0000000000003a09 .LASF2520
C:\Users\SOLDER~1\AppData\Local\Temp\ccqxjBbT.s:21721  .debug_str:000000000000b3e7 .LASF2521
C:\Users\SOLDER~1\AppData\Local\Temp\ccqxjBbT.s:25147  .debug_str:000000000001920e .LASF2522
C:\Users\SOLDER~1\AppData\Local\Temp\ccqxjBbT.s:20281  .debug_str:0000000000005522 .LASF2523
C:\Users\SOLDER~1\AppData\Local\Temp\ccqxjBbT.s:22503  .debug_str:000000000000e744 .LASF2524
C:\Users\SOLDER~1\AppData\Local\Temp\ccqxjBbT.s:28023  .debug_str:0000000000024bc4 .LASF2525
C:\Users\SOLDER~1\AppData\Local\Temp\ccqxjBbT.s:21229  .debug_str:00000000000093ac .LASF2526
C:\Users\SOLDER~1\AppData\Local\Temp\ccqxjBbT.s:29531  .debug_str:000000000002ae58 .LASF2527
C:\Users\SOLDER~1\AppData\Local\Temp\ccqxjBbT.s:22003  .debug_str:000000000000c61f .LASF2528
C:\Users\SOLDER~1\AppData\Local\Temp\ccqxjBbT.s:27797  .debug_str:0000000000023cef .LASF2529
C:\Users\SOLDER~1\AppData\Local\Temp\ccqxjBbT.s:22827  .debug_str:000000000000fc2e .LASF2530
C:\Users\SOLDER~1\AppData\Local\Temp\ccqxjBbT.s:28449  .debug_str:0000000000026837 .LASF2531
C:\Users\SOLDER~1\AppData\Local\Temp\ccqxjBbT.s:20131  .debug_str:0000000000004c27 .LASF2532
C:\Users\SOLDER~1\AppData\Local\Temp\ccqxjBbT.s:19751  .debug_str:0000000000003413 .LASF2533
C:\Users\SOLDER~1\AppData\Local\Temp\ccqxjBbT.s:27205  .debug_str:00000000000216e9 .LASF2534
C:\Users\SOLDER~1\AppData\Local\Temp\ccqxjBbT.s:25167  .debug_str:000000000001934c .LASF2535
C:\Users\SOLDER~1\AppData\Local\Temp\ccqxjBbT.s:20205  .debug_str:0000000000005081 .LASF2536
C:\Users\SOLDER~1\AppData\Local\Temp\ccqxjBbT.s:28977  .debug_str:0000000000028ac4 .LASF2537
C:\Users\SOLDER~1\AppData\Local\Temp\ccqxjBbT.s:20157  .debug_str:0000000000004dbc .LASF2538
C:\Users\SOLDER~1\AppData\Local\Temp\ccqxjBbT.s:30323  .debug_str:000000000002e206 .LASF2539
C:\Users\SOLDER~1\AppData\Local\Temp\ccqxjBbT.s:19357  .debug_str:0000000000001a5e .LASF2540
C:\Users\SOLDER~1\AppData\Local\Temp\ccqxjBbT.s:20013  .debug_str:00000000000044ab .LASF2541
C:\Users\SOLDER~1\AppData\Local\Temp\ccqxjBbT.s:25337  .debug_str:0000000000019dc3 .LASF2542
C:\Users\SOLDER~1\AppData\Local\Temp\ccqxjBbT.s:26909  .debug_str:00000000000203b4 .LASF2543
C:\Users\SOLDER~1\AppData\Local\Temp\ccqxjBbT.s:19679  .debug_str:0000000000002f80 .LASF2544
C:\Users\SOLDER~1\AppData\Local\Temp\ccqxjBbT.s:22729  .debug_str:000000000000f587 .LASF2545
C:\Users\SOLDER~1\AppData\Local\Temp\ccqxjBbT.s:25647  .debug_str:000000000001b1bd .LASF2546
C:\Users\SOLDER~1\AppData\Local\Temp\ccqxjBbT.s:29577  .debug_str:000000000002b1bd .LASF2547
C:\Users\SOLDER~1\AppData\Local\Temp\ccqxjBbT.s:19905  .debug_str:0000000000003de4 .LASF2548
C:\Users\SOLDER~1\AppData\Local\Temp\ccqxjBbT.s:25373  .debug_str:000000000001a016 .LASF2549
C:\Users\SOLDER~1\AppData\Local\Temp\ccqxjBbT.s:23479  .debug_str:00000000000125d9 .LASF2550
C:\Users\SOLDER~1\AppData\Local\Temp\ccqxjBbT.s:19189  .debug_str:0000000000000fde .LASF2551
C:\Users\SOLDER~1\AppData\Local\Temp\ccqxjBbT.s:29695  .debug_str:000000000002b944 .LASF2552
C:\Users\SOLDER~1\AppData\Local\Temp\ccqxjBbT.s:20773  .debug_str:00000000000075d1 .LASF2553
C:\Users\SOLDER~1\AppData\Local\Temp\ccqxjBbT.s:28885  .debug_str:00000000000284c2 .LASF2554
C:\Users\SOLDER~1\AppData\Local\Temp\ccqxjBbT.s:22371  .debug_str:000000000000de63 .LASF2555
C:\Users\SOLDER~1\AppData\Local\Temp\ccqxjBbT.s:28243  .debug_str:0000000000025a1a .LASF2556
C:\Users\SOLDER~1\AppData\Local\Temp\ccqxjBbT.s:23929  .debug_str:0000000000014448 .LASF2557
C:\Users\SOLDER~1\AppData\Local\Temp\ccqxjBbT.s:21667  .debug_str:000000000000b0ae .LASF2558
C:\Users\SOLDER~1\AppData\Local\Temp\ccqxjBbT.s:25521  .debug_str:000000000001a996 .LASF2559
C:\Users\SOLDER~1\AppData\Local\Temp\ccqxjBbT.s:21533  .debug_str:000000000000a7ed .LASF2560
C:\Users\SOLDER~1\AppData\Local\Temp\ccqxjBbT.s:27005  .debug_str:0000000000020a00 .LASF2561
C:\Users\SOLDER~1\AppData\Local\Temp\ccqxjBbT.s:20245  .debug_str:0000000000005321 .LASF2562
C:\Users\SOLDER~1\AppData\Local\Temp\ccqxjBbT.s:25245  .debug_str:0000000000019863 .LASF2563
C:\Users\SOLDER~1\AppData\Local\Temp\ccqxjBbT.s:25289  .debug_str:0000000000019ad0 .LASF2564
C:\Users\SOLDER~1\AppData\Local\Temp\ccqxjBbT.s:25617  .debug_str:000000000001b014 .LASF2565
C:\Users\SOLDER~1\AppData\Local\Temp\ccqxjBbT.s:26461  .debug_str:000000000001e674 .LASF2566
C:\Users\SOLDER~1\AppData\Local\Temp\ccqxjBbT.s:27101  .debug_str:0000000000021029 .LASF2567
C:\Users\SOLDER~1\AppData\Local\Temp\ccqxjBbT.s:24885  .debug_str:0000000000018122 .LASF2568
C:\Users\SOLDER~1\AppData\Local\Temp\ccqxjBbT.s:28711  .debug_str:0000000000027954 .LASF2569
C:\Users\SOLDER~1\AppData\Local\Temp\ccqxjBbT.s:29923  .debug_str:000000000002c82d .LASF2570
GAS LISTING C:\Users\SOLDER~1\AppData\Local\Temp\ccqxjBbT.s 			page 63


C:\Users\SOLDER~1\AppData\Local\Temp\ccqxjBbT.s:30357  .debug_str:000000000002e414 .LASF2571
C:\Users\SOLDER~1\AppData\Local\Temp\ccqxjBbT.s:23341  .debug_str:0000000000011d36 .LASF2572
C:\Users\SOLDER~1\AppData\Local\Temp\ccqxjBbT.s:20251  .debug_str:000000000000537a .LASF2573
C:\Users\SOLDER~1\AppData\Local\Temp\ccqxjBbT.s:28135  .debug_str:00000000000252e1 .LASF2574
C:\Users\SOLDER~1\AppData\Local\Temp\ccqxjBbT.s:21871  .debug_str:000000000000bd22 .LASF2575
C:\Users\SOLDER~1\AppData\Local\Temp\ccqxjBbT.s:21897  .debug_str:000000000000beac .LASF2576
C:\Users\SOLDER~1\AppData\Local\Temp\ccqxjBbT.s:23499  .debug_str:0000000000012766 .LASF2577
C:\Users\SOLDER~1\AppData\Local\Temp\ccqxjBbT.s:26895  .debug_str:00000000000202b5 .LASF2578
C:\Users\SOLDER~1\AppData\Local\Temp\ccqxjBbT.s:26349  .debug_str:000000000001df60 .LASF2579
C:\Users\SOLDER~1\AppData\Local\Temp\ccqxjBbT.s:19635  .debug_str:0000000000002c82 .LASF2580
C:\Users\SOLDER~1\AppData\Local\Temp\ccqxjBbT.s:24487  .debug_str:000000000001677c .LASF2581
C:\Users\SOLDER~1\AppData\Local\Temp\ccqxjBbT.s:25699  .debug_str:000000000001b509 .LASF2582
C:\Users\SOLDER~1\AppData\Local\Temp\ccqxjBbT.s:22533  .debug_str:000000000000e957 .LASF2583
C:\Users\SOLDER~1\AppData\Local\Temp\ccqxjBbT.s:26355  .debug_str:000000000001dfb0 .LASF2584
C:\Users\SOLDER~1\AppData\Local\Temp\ccqxjBbT.s:20629  .debug_str:0000000000006c4b .LASF2585
C:\Users\SOLDER~1\AppData\Local\Temp\ccqxjBbT.s:22007  .debug_str:000000000000c65f .LASF2586
C:\Users\SOLDER~1\AppData\Local\Temp\ccqxjBbT.s:30333  .debug_str:000000000002e294 .LASF2587
C:\Users\SOLDER~1\AppData\Local\Temp\ccqxjBbT.s:26547  .debug_str:000000000001ec34 .LASF2588
C:\Users\SOLDER~1\AppData\Local\Temp\ccqxjBbT.s:28379  .debug_str:0000000000026387 .LASF2589
C:\Users\SOLDER~1\AppData\Local\Temp\ccqxjBbT.s:27153  .debug_str:0000000000021399 .LASF2590
C:\Users\SOLDER~1\AppData\Local\Temp\ccqxjBbT.s:26507  .debug_str:000000000001e9bb .LASF2591
C:\Users\SOLDER~1\AppData\Local\Temp\ccqxjBbT.s:22661  .debug_str:000000000000f163 .LASF2592
C:\Users\SOLDER~1\AppData\Local\Temp\ccqxjBbT.s:24641  .debug_str:000000000001712a .LASF2593
C:\Users\SOLDER~1\AppData\Local\Temp\ccqxjBbT.s:19269  .debug_str:00000000000014ca .LASF2594
C:\Users\SOLDER~1\AppData\Local\Temp\ccqxjBbT.s:22695  .debug_str:000000000000f395 .LASF2595
C:\Users\SOLDER~1\AppData\Local\Temp\ccqxjBbT.s:22473  .debug_str:000000000000e569 .LASF2596
C:\Users\SOLDER~1\AppData\Local\Temp\ccqxjBbT.s:25483  .debug_str:000000000001a732 .LASF2597
C:\Users\SOLDER~1\AppData\Local\Temp\ccqxjBbT.s:20189  .debug_str:0000000000004f97 .LASF2598
C:\Users\SOLDER~1\AppData\Local\Temp\ccqxjBbT.s:26747  .debug_str:000000000001f95e .LASF2599
C:\Users\SOLDER~1\AppData\Local\Temp\ccqxjBbT.s:26445  .debug_str:000000000001e53c .LASF2600
C:\Users\SOLDER~1\AppData\Local\Temp\ccqxjBbT.s:25055  .debug_str:0000000000018bf7 .LASF2601
C:\Users\SOLDER~1\AppData\Local\Temp\ccqxjBbT.s:19375  .debug_str:0000000000001b9d .LASF2602
C:\Users\SOLDER~1\AppData\Local\Temp\ccqxjBbT.s:23383  .debug_str:0000000000011fdf .LASF2603
C:\Users\SOLDER~1\AppData\Local\Temp\ccqxjBbT.s:29925  .debug_str:000000000002c852 .LASF2604
C:\Users\SOLDER~1\AppData\Local\Temp\ccqxjBbT.s:21709  .debug_str:000000000000b33e .LASF2605
C:\Users\SOLDER~1\AppData\Local\Temp\ccqxjBbT.s:26065  .debug_str:000000000001cd1b .LASF2606
C:\Users\SOLDER~1\AppData\Local\Temp\ccqxjBbT.s:19969  .debug_str:0000000000004205 .LASF2607
C:\Users\SOLDER~1\AppData\Local\Temp\ccqxjBbT.s:22207  .debug_str:000000000000d3ec .LASF2608
C:\Users\SOLDER~1\AppData\Local\Temp\ccqxjBbT.s:29939  .debug_str:000000000002c93c .LASF2609
C:\Users\SOLDER~1\AppData\Local\Temp\ccqxjBbT.s:25529  .debug_str:000000000001aa15 .LASF2610
C:\Users\SOLDER~1\AppData\Local\Temp\ccqxjBbT.s:24773  .debug_str:00000000000179f1 .LASF2611
C:\Users\SOLDER~1\AppData\Local\Temp\ccqxjBbT.s:20849  .debug_str:0000000000007a65 .LASF2612
C:\Users\SOLDER~1\AppData\Local\Temp\ccqxjBbT.s:26551  .debug_str:000000000001ec7f .LASF2613
C:\Users\SOLDER~1\AppData\Local\Temp\ccqxjBbT.s:30381  .debug_str:000000000002e599 .LASF2614
C:\Users\SOLDER~1\AppData\Local\Temp\ccqxjBbT.s:24957  .debug_str:000000000001859e .LASF2615
C:\Users\SOLDER~1\AppData\Local\Temp\ccqxjBbT.s:23987  .debug_str:000000000001482d .LASF2616
C:\Users\SOLDER~1\AppData\Local\Temp\ccqxjBbT.s:23285  .debug_str:00000000000119ab .LASF2617
C:\Users\SOLDER~1\AppData\Local\Temp\ccqxjBbT.s:29213  .debug_str:0000000000029997 .LASF2618
C:\Users\SOLDER~1\AppData\Local\Temp\ccqxjBbT.s:22791  .debug_str:000000000000f9c6 .LASF2619
C:\Users\SOLDER~1\AppData\Local\Temp\ccqxjBbT.s:19973  .debug_str:000000000000423a .LASF2620
C:\Users\SOLDER~1\AppData\Local\Temp\ccqxjBbT.s:19043  .debug_str:00000000000005e9 .LASF2621
C:\Users\SOLDER~1\AppData\Local\Temp\ccqxjBbT.s:25945  .debug_str:000000000001c507 .LASF2622
C:\Users\SOLDER~1\AppData\Local\Temp\ccqxjBbT.s:28689  .debug_str:00000000000277fd .LASF2623
C:\Users\SOLDER~1\AppData\Local\Temp\ccqxjBbT.s:20503  .debug_str:00000000000063ff .LASF2624
C:\Users\SOLDER~1\AppData\Local\Temp\ccqxjBbT.s:26791  .debug_str:000000000001fc30 .LASF2625
C:\Users\SOLDER~1\AppData\Local\Temp\ccqxjBbT.s:26849  .debug_str:000000000001ffd7 .LASF2626
C:\Users\SOLDER~1\AppData\Local\Temp\ccqxjBbT.s:24981  .debug_str:000000000001873f .LASF2627
GAS LISTING C:\Users\SOLDER~1\AppData\Local\Temp\ccqxjBbT.s 			page 64


C:\Users\SOLDER~1\AppData\Local\Temp\ccqxjBbT.s:26801  .debug_str:000000000001fcca .LASF2628
C:\Users\SOLDER~1\AppData\Local\Temp\ccqxjBbT.s:22137  .debug_str:000000000000cf56 .LASF2629
C:\Users\SOLDER~1\AppData\Local\Temp\ccqxjBbT.s:27497  .debug_str:0000000000022969 .LASF2630
C:\Users\SOLDER~1\AppData\Local\Temp\ccqxjBbT.s:21085  .debug_str:00000000000089ef .LASF2631
C:\Users\SOLDER~1\AppData\Local\Temp\ccqxjBbT.s:23039  .debug_str:00000000000109d8 .LASF2632
C:\Users\SOLDER~1\AppData\Local\Temp\ccqxjBbT.s:19205  .debug_str:00000000000010a2 .LASF2633
C:\Users\SOLDER~1\AppData\Local\Temp\ccqxjBbT.s:19609  .debug_str:0000000000002b0c .LASF2634
C:\Users\SOLDER~1\AppData\Local\Temp\ccqxjBbT.s:28845  .debug_str:0000000000028244 .LASF2635
C:\Users\SOLDER~1\AppData\Local\Temp\ccqxjBbT.s:29339  .debug_str:000000000002a261 .LASF2636
C:\Users\SOLDER~1\AppData\Local\Temp\ccqxjBbT.s:25629  .debug_str:000000000001b096 .LASF2637
C:\Users\SOLDER~1\AppData\Local\Temp\ccqxjBbT.s:20455  .debug_str:00000000000060cd .LASF2638
C:\Users\SOLDER~1\AppData\Local\Temp\ccqxjBbT.s:30511  .debug_str:000000000002ee17 .LASF2639
C:\Users\SOLDER~1\AppData\Local\Temp\ccqxjBbT.s:23197  .debug_str:0000000000011408 .LASF2640
C:\Users\SOLDER~1\AppData\Local\Temp\ccqxjBbT.s:22577  .debug_str:000000000000ec0f .LASF2641
C:\Users\SOLDER~1\AppData\Local\Temp\ccqxjBbT.s:27643  .debug_str:0000000000023305 .LASF2642
C:\Users\SOLDER~1\AppData\Local\Temp\ccqxjBbT.s:28775  .debug_str:0000000000027da1 .LASF2643
C:\Users\SOLDER~1\AppData\Local\Temp\ccqxjBbT.s:26729  .debug_str:000000000001f847 .LASF2644
C:\Users\SOLDER~1\AppData\Local\Temp\ccqxjBbT.s:19301  .debug_str:00000000000016dc .LASF2645
C:\Users\SOLDER~1\AppData\Local\Temp\ccqxjBbT.s:24731  .debug_str:0000000000017741 .LASF2646
C:\Users\SOLDER~1\AppData\Local\Temp\ccqxjBbT.s:29239  .debug_str:0000000000029b6f .LASF2647
C:\Users\SOLDER~1\AppData\Local\Temp\ccqxjBbT.s:20733  .debug_str:000000000000735a .LASF2648
C:\Users\SOLDER~1\AppData\Local\Temp\ccqxjBbT.s:27463  .debug_str:0000000000022717 .LASF2649
C:\Users\SOLDER~1\AppData\Local\Temp\ccqxjBbT.s:22221  .debug_str:000000000000d4ec .LASF2650
C:\Users\SOLDER~1\AppData\Local\Temp\ccqxjBbT.s:25861  .debug_str:000000000001bf6a .LASF2651
C:\Users\SOLDER~1\AppData\Local\Temp\ccqxjBbT.s:24203  .debug_str:0000000000015615 .LASF2652
C:\Users\SOLDER~1\AppData\Local\Temp\ccqxjBbT.s:24237  .debug_str:000000000001584d .LASF2653
C:\Users\SOLDER~1\AppData\Local\Temp\ccqxjBbT.s:27063  .debug_str:0000000000020d9c .LASF2654
C:\Users\SOLDER~1\AppData\Local\Temp\ccqxjBbT.s:22463  .debug_str:000000000000e4d8 .LASF2655
C:\Users\SOLDER~1\AppData\Local\Temp\ccqxjBbT.s:28719  .debug_str:00000000000279be .LASF2656
C:\Users\SOLDER~1\AppData\Local\Temp\ccqxjBbT.s:20839  .debug_str:00000000000079e0 .LASF2657
C:\Users\SOLDER~1\AppData\Local\Temp\ccqxjBbT.s:25919  .debug_str:000000000001c348 .LASF2658
C:\Users\SOLDER~1\AppData\Local\Temp\ccqxjBbT.s:21443  .debug_str:000000000000a1be .LASF2659
C:\Users\SOLDER~1\AppData\Local\Temp\ccqxjBbT.s:19577  .debug_str:0000000000002918 .LASF2660
C:\Users\SOLDER~1\AppData\Local\Temp\ccqxjBbT.s:19557  .debug_str:00000000000027a7 .LASF2661
C:\Users\SOLDER~1\AppData\Local\Temp\ccqxjBbT.s:25641  .debug_str:000000000001b158 .LASF2662
C:\Users\SOLDER~1\AppData\Local\Temp\ccqxjBbT.s:27565  .debug_str:0000000000022df7 .LASF2663
C:\Users\SOLDER~1\AppData\Local\Temp\ccqxjBbT.s:20295  .debug_str:00000000000055fc .LASF2664
C:\Users\SOLDER~1\AppData\Local\Temp\ccqxjBbT.s:27307  .debug_str:0000000000021d42 .LASF2665
C:\Users\SOLDER~1\AppData\Local\Temp\ccqxjBbT.s:26433  .debug_str:000000000001e46f .LASF2666
C:\Users\SOLDER~1\AppData\Local\Temp\ccqxjBbT.s:25447  .debug_str:000000000001a4cc .LASF2667
C:\Users\SOLDER~1\AppData\Local\Temp\ccqxjBbT.s:26399  .debug_str:000000000001e264 .LASF2668
C:\Users\SOLDER~1\AppData\Local\Temp\ccqxjBbT.s:23533  .debug_str:0000000000012958 .LASF2669
C:\Users\SOLDER~1\AppData\Local\Temp\ccqxjBbT.s:27097  .debug_str:0000000000020fc9 .LASF2670
C:\Users\SOLDER~1\AppData\Local\Temp\ccqxjBbT.s:21617  .debug_str:000000000000ad59 .LASF2671
C:\Users\SOLDER~1\AppData\Local\Temp\ccqxjBbT.s:22603  .debug_str:000000000000edb8 .LASF2672
C:\Users\SOLDER~1\AppData\Local\Temp\ccqxjBbT.s:19717  .debug_str:00000000000031e6 .LASF2673
C:\Users\SOLDER~1\AppData\Local\Temp\ccqxjBbT.s:19225  .debug_str:00000000000011f3 .LASF2674
C:\Users\SOLDER~1\AppData\Local\Temp\ccqxjBbT.s:20035  .debug_str:000000000000460a .LASF2675
C:\Users\SOLDER~1\AppData\Local\Temp\ccqxjBbT.s:27981  .debug_str:000000000002490e .LASF2676
C:\Users\SOLDER~1\AppData\Local\Temp\ccqxjBbT.s:27453  .debug_str:0000000000022681 .LASF2677
C:\Users\SOLDER~1\AppData\Local\Temp\ccqxjBbT.s:20133  .debug_str:0000000000004c47 .LASF2678
C:\Users\SOLDER~1\AppData\Local\Temp\ccqxjBbT.s:28139  .debug_str:0000000000025324 .LASF2679
C:\Users\SOLDER~1\AppData\Local\Temp\ccqxjBbT.s:27179  .debug_str:0000000000021541 .LASF2680
C:\Users\SOLDER~1\AppData\Local\Temp\ccqxjBbT.s:26531  .debug_str:000000000001eb4a .LASF2681
C:\Users\SOLDER~1\AppData\Local\Temp\ccqxjBbT.s:25291  .debug_str:0000000000019af5 .LASF2682
C:\Users\SOLDER~1\AppData\Local\Temp\ccqxjBbT.s:24931  .debug_str:0000000000018410 .LASF2683
C:\Users\SOLDER~1\AppData\Local\Temp\ccqxjBbT.s:24355  .debug_str:0000000000015f3f .LASF2684
GAS LISTING C:\Users\SOLDER~1\AppData\Local\Temp\ccqxjBbT.s 			page 65


C:\Users\SOLDER~1\AppData\Local\Temp\ccqxjBbT.s:23261  .debug_str:0000000000011856 .LASF2685
C:\Users\SOLDER~1\AppData\Local\Temp\ccqxjBbT.s:20465  .debug_str:0000000000006178 .LASF2686
C:\Users\SOLDER~1\AppData\Local\Temp\ccqxjBbT.s:21489  .debug_str:000000000000a4c9 .LASF2687
C:\Users\SOLDER~1\AppData\Local\Temp\ccqxjBbT.s:30007  .debug_str:000000000002cd87 .LASF2688
C:\Users\SOLDER~1\AppData\Local\Temp\ccqxjBbT.s:19865  .debug_str:0000000000003b67 .LASF2689
C:\Users\SOLDER~1\AppData\Local\Temp\ccqxjBbT.s:19903  .debug_str:0000000000003dbd .LASF2690
C:\Users\SOLDER~1\AppData\Local\Temp\ccqxjBbT.s:26469  .debug_str:000000000001e70b .LASF2691
C:\Users\SOLDER~1\AppData\Local\Temp\ccqxjBbT.s:26745  .debug_str:000000000001f937 .LASF2692
C:\Users\SOLDER~1\AppData\Local\Temp\ccqxjBbT.s:28033  .debug_str:0000000000024c71 .LASF2693
C:\Users\SOLDER~1\AppData\Local\Temp\ccqxjBbT.s:24811  .debug_str:0000000000017c3d .LASF2694
C:\Users\SOLDER~1\AppData\Local\Temp\ccqxjBbT.s:26423  .debug_str:000000000001e3e6 .LASF2695
C:\Users\SOLDER~1\AppData\Local\Temp\ccqxjBbT.s:26325  .debug_str:000000000001ddad .LASF2696
C:\Users\SOLDER~1\AppData\Local\Temp\ccqxjBbT.s:24841  .debug_str:0000000000017e02 .LASF2697
C:\Users\SOLDER~1\AppData\Local\Temp\ccqxjBbT.s:27553  .debug_str:0000000000022d37 .LASF2698
C:\Users\SOLDER~1\AppData\Local\Temp\ccqxjBbT.s:20265  .debug_str:000000000000543e .LASF2699
C:\Users\SOLDER~1\AppData\Local\Temp\ccqxjBbT.s:19469  .debug_str:00000000000021d8 .LASF2700
C:\Users\SOLDER~1\AppData\Local\Temp\ccqxjBbT.s:25995  .debug_str:000000000001c87d .LASF2701
C:\Users\SOLDER~1\AppData\Local\Temp\ccqxjBbT.s:23745  .debug_str:0000000000013759 .LASF2702
C:\Users\SOLDER~1\AppData\Local\Temp\ccqxjBbT.s:23659  .debug_str:0000000000013175 .LASF2703
C:\Users\SOLDER~1\AppData\Local\Temp\ccqxjBbT.s:20071  .debug_str:0000000000004873 .LASF2704
C:\Users\SOLDER~1\AppData\Local\Temp\ccqxjBbT.s:26147  .debug_str:000000000001d253 .LASF2705
C:\Users\SOLDER~1\AppData\Local\Temp\ccqxjBbT.s:26421  .debug_str:000000000001e3c0 .LASF2706
C:\Users\SOLDER~1\AppData\Local\Temp\ccqxjBbT.s:30531  .debug_str:000000000002ef5b .LASF2707
C:\Users\SOLDER~1\AppData\Local\Temp\ccqxjBbT.s:26383  .debug_str:000000000001e168 .LASF2708
C:\Users\SOLDER~1\AppData\Local\Temp\ccqxjBbT.s:22333  .debug_str:000000000000dbce .LASF2709
C:\Users\SOLDER~1\AppData\Local\Temp\ccqxjBbT.s:26993  .debug_str:0000000000020928 .LASF2710
C:\Users\SOLDER~1\AppData\Local\Temp\ccqxjBbT.s:20429  .debug_str:0000000000005edf .LASF2711
C:\Users\SOLDER~1\AppData\Local\Temp\ccqxjBbT.s:22485  .debug_str:000000000000e626 .LASF2712
C:\Users\SOLDER~1\AppData\Local\Temp\ccqxjBbT.s:30123  .debug_str:000000000002d53e .LASF2713
C:\Users\SOLDER~1\AppData\Local\Temp\ccqxjBbT.s:24007  .debug_str:0000000000014953 .LASF2714
C:\Users\SOLDER~1\AppData\Local\Temp\ccqxjBbT.s:28269  .debug_str:0000000000025be4 .LASF2715
C:\Users\SOLDER~1\AppData\Local\Temp\ccqxjBbT.s:28911  .debug_str:0000000000028658 .LASF2716
C:\Users\SOLDER~1\AppData\Local\Temp\ccqxjBbT.s:26395  .debug_str:000000000001e221 .LASF2717
C:\Users\SOLDER~1\AppData\Local\Temp\ccqxjBbT.s:26789  .debug_str:000000000001fc0a .LASF2718
C:\Users\SOLDER~1\AppData\Local\Temp\ccqxjBbT.s:24795  .debug_str:0000000000017b55 .LASF2719
C:\Users\SOLDER~1\AppData\Local\Temp\ccqxjBbT.s:27119  .debug_str:000000000002116f .LASF2720
C:\Users\SOLDER~1\AppData\Local\Temp\ccqxjBbT.s:19233  .debug_str:0000000000001274 .LASF2721
C:\Users\SOLDER~1\AppData\Local\Temp\ccqxjBbT.s:19939  .debug_str:0000000000003ffb .LASF2722
C:\Users\SOLDER~1\AppData\Local\Temp\ccqxjBbT.s:21353  .debug_str:0000000000009bc5 .LASF2723
C:\Users\SOLDER~1\AppData\Local\Temp\ccqxjBbT.s:19125  .debug_str:0000000000000c33 .LASF2724
C:\Users\SOLDER~1\AppData\Local\Temp\ccqxjBbT.s:18961  .debug_str:00000000000000a4 .LASF2725
C:\Users\SOLDER~1\AppData\Local\Temp\ccqxjBbT.s:26853  .debug_str:0000000000020011 .LASF2726
C:\Users\SOLDER~1\AppData\Local\Temp\ccqxjBbT.s:24911  .debug_str:00000000000182ce .LASF2727
C:\Users\SOLDER~1\AppData\Local\Temp\ccqxjBbT.s:27651  .debug_str:000000000002339e .LASF2728
C:\Users\SOLDER~1\AppData\Local\Temp\ccqxjBbT.s:27889  .debug_str:00000000000242dc .LASF2729
C:\Users\SOLDER~1\AppData\Local\Temp\ccqxjBbT.s:26195  .debug_str:000000000001d57c .LASF2730
C:\Users\SOLDER~1\AppData\Local\Temp\ccqxjBbT.s:26275  .debug_str:000000000001da53 .LASF2731
C:\Users\SOLDER~1\AppData\Local\Temp\ccqxjBbT.s:21523  .debug_str:000000000000a73c .LASF2732
C:\Users\SOLDER~1\AppData\Local\Temp\ccqxjBbT.s:24687  .debug_str:0000000000017425 .LASF2733
C:\Users\SOLDER~1\AppData\Local\Temp\ccqxjBbT.s:19455  .debug_str:00000000000020dc .LASF2734
C:\Users\SOLDER~1\AppData\Local\Temp\ccqxjBbT.s:22927  .debug_str:0000000000010287 .LASF2735
C:\Users\SOLDER~1\AppData\Local\Temp\ccqxjBbT.s:21121  .debug_str:0000000000008c23 .LASF2736
C:\Users\SOLDER~1\AppData\Local\Temp\ccqxjBbT.s:21265  .debug_str:0000000000009624 .LASF2737
C:\Users\SOLDER~1\AppData\Local\Temp\ccqxjBbT.s:29895  .debug_str:000000000002c66d .LASF2738
C:\Users\SOLDER~1\AppData\Local\Temp\ccqxjBbT.s:30031  .debug_str:000000000002cf34 .LASF2739
C:\Users\SOLDER~1\AppData\Local\Temp\ccqxjBbT.s:28247  .debug_str:0000000000025a5a .LASF2740
C:\Users\SOLDER~1\AppData\Local\Temp\ccqxjBbT.s:28083  .debug_str:0000000000024fa1 .LASF2741
GAS LISTING C:\Users\SOLDER~1\AppData\Local\Temp\ccqxjBbT.s 			page 66


C:\Users\SOLDER~1\AppData\Local\Temp\ccqxjBbT.s:22747  .debug_str:000000000000f698 .LASF2742
C:\Users\SOLDER~1\AppData\Local\Temp\ccqxjBbT.s:26205  .debug_str:000000000001d61a .LASF2743
C:\Users\SOLDER~1\AppData\Local\Temp\ccqxjBbT.s:28875  .debug_str:0000000000028424 .LASF2744
C:\Users\SOLDER~1\AppData\Local\Temp\ccqxjBbT.s:24341  .debug_str:0000000000015e88 .LASF2745
C:\Users\SOLDER~1\AppData\Local\Temp\ccqxjBbT.s:23655  .debug_str:0000000000013123 .LASF2746
C:\Users\SOLDER~1\AppData\Local\Temp\ccqxjBbT.s:21017  .debug_str:0000000000008572 .LASF2747
C:\Users\SOLDER~1\AppData\Local\Temp\ccqxjBbT.s:19859  .debug_str:0000000000003af5 .LASF2748
C:\Users\SOLDER~1\AppData\Local\Temp\ccqxjBbT.s:25177  .debug_str:00000000000193ed .LASF2749
C:\Users\SOLDER~1\AppData\Local\Temp\ccqxjBbT.s:24259  .debug_str:000000000001593c .LASF2750
C:\Users\SOLDER~1\AppData\Local\Temp\ccqxjBbT.s:30185  .debug_str:000000000002d948 .LASF2751
C:\Users\SOLDER~1\AppData\Local\Temp\ccqxjBbT.s:19715  .debug_str:00000000000031bb .LASF2752
C:\Users\SOLDER~1\AppData\Local\Temp\ccqxjBbT.s:28241  .debug_str:00000000000259fd .LASF2753
C:\Users\SOLDER~1\AppData\Local\Temp\ccqxjBbT.s:27863  .debug_str:000000000002413c .LASF2754
C:\Users\SOLDER~1\AppData\Local\Temp\ccqxjBbT.s:26369  .debug_str:000000000001e078 .LASF2755
C:\Users\SOLDER~1\AppData\Local\Temp\ccqxjBbT.s:26139  .debug_str:000000000001d1c7 .LASF2756
C:\Users\SOLDER~1\AppData\Local\Temp\ccqxjBbT.s:24589  .debug_str:0000000000016dac .LASF2757
C:\Users\SOLDER~1\AppData\Local\Temp\ccqxjBbT.s:28819  .debug_str:000000000002808a .LASF2758
C:\Users\SOLDER~1\AppData\Local\Temp\ccqxjBbT.s:20063  .debug_str:00000000000047f1 .LASF2759
C:\Users\SOLDER~1\AppData\Local\Temp\ccqxjBbT.s:25831  .debug_str:000000000001bd50 .LASF2760
C:\Users\SOLDER~1\AppData\Local\Temp\ccqxjBbT.s:30021  .debug_str:000000000002ce7d .LASF2761
C:\Users\SOLDER~1\AppData\Local\Temp\ccqxjBbT.s:27115  .debug_str:0000000000021121 .LASF2762
C:\Users\SOLDER~1\AppData\Local\Temp\ccqxjBbT.s:28343  .debug_str:00000000000260f7 .LASF2763
C:\Users\SOLDER~1\AppData\Local\Temp\ccqxjBbT.s:29383  .debug_str:000000000002a529 .LASF2764
C:\Users\SOLDER~1\AppData\Local\Temp\ccqxjBbT.s:26651  .debug_str:000000000001f32f .LASF2765
C:\Users\SOLDER~1\AppData\Local\Temp\ccqxjBbT.s:25547  .debug_str:000000000001ab42 .LASF2766
C:\Users\SOLDER~1\AppData\Local\Temp\ccqxjBbT.s:25041  .debug_str:0000000000018b19 .LASF2767
C:\Users\SOLDER~1\AppData\Local\Temp\ccqxjBbT.s:23489  .debug_str:0000000000012689 .LASF2768
C:\Users\SOLDER~1\AppData\Local\Temp\ccqxjBbT.s:23371  .debug_str:0000000000011f30 .LASF2769
C:\Users\SOLDER~1\AppData\Local\Temp\ccqxjBbT.s:25027  .debug_str:0000000000018a01 .LASF2770
C:\Users\SOLDER~1\AppData\Local\Temp\ccqxjBbT.s:21613  .debug_str:000000000000ad1a .LASF2771
C:\Users\SOLDER~1\AppData\Local\Temp\ccqxjBbT.s:20211  .debug_str:00000000000050db .LASF2772
C:\Users\SOLDER~1\AppData\Local\Temp\ccqxjBbT.s:22361  .debug_str:000000000000ddba .LASF2773
C:\Users\SOLDER~1\AppData\Local\Temp\ccqxjBbT.s:29829  .debug_str:000000000002c26c .LASF2774
C:\Users\SOLDER~1\AppData\Local\Temp\ccqxjBbT.s:26577  .debug_str:000000000001ee37 .LASF2775
C:\Users\SOLDER~1\AppData\Local\Temp\ccqxjBbT.s:19803  .debug_str:000000000000373b .LASF2776
C:\Users\SOLDER~1\AppData\Local\Temp\ccqxjBbT.s:20377  .debug_str:0000000000005bb6 .LASF2777
C:\Users\SOLDER~1\AppData\Local\Temp\ccqxjBbT.s:30011  .debug_str:000000000002cdd1 .LASF2778
C:\Users\SOLDER~1\AppData\Local\Temp\ccqxjBbT.s:26939  .debug_str:00000000000205b0 .LASF2779
C:\Users\SOLDER~1\AppData\Local\Temp\ccqxjBbT.s:24049  .debug_str:0000000000014c4c .LASF2780
C:\Users\SOLDER~1\AppData\Local\Temp\ccqxjBbT.s:20207  .debug_str:00000000000050a6 .LASF2781
C:\Users\SOLDER~1\AppData\Local\Temp\ccqxjBbT.s:29989  .debug_str:000000000002cc63 .LASF2782
C:\Users\SOLDER~1\AppData\Local\Temp\ccqxjBbT.s:23257  .debug_str:000000000001182e .LASF2783
C:\Users\SOLDER~1\AppData\Local\Temp\ccqxjBbT.s:24581  .debug_str:0000000000016d32 .LASF2784
C:\Users\SOLDER~1\AppData\Local\Temp\ccqxjBbT.s:21323  .debug_str:00000000000099f0 .LASF2785
C:\Users\SOLDER~1\AppData\Local\Temp\ccqxjBbT.s:24289  .debug_str:0000000000015b3c .LASF2786
C:\Users\SOLDER~1\AppData\Local\Temp\ccqxjBbT.s:19419  .debug_str:0000000000001e8f .LASF2787
C:\Users\SOLDER~1\AppData\Local\Temp\ccqxjBbT.s:19267  .debug_str:00000000000014a3 .LASF2788
C:\Users\SOLDER~1\AppData\Local\Temp\ccqxjBbT.s:29107  .debug_str:00000000000292eb .LASF2789
C:\Users\SOLDER~1\AppData\Local\Temp\ccqxjBbT.s:19955  .debug_str:000000000000410c .LASF2790
C:\Users\SOLDER~1\AppData\Local\Temp\ccqxjBbT.s:19983  .debug_str:00000000000042cb .LASF2791
C:\Users\SOLDER~1\AppData\Local\Temp\ccqxjBbT.s:27025  .debug_str:0000000000020b58 .LASF2792
C:\Users\SOLDER~1\AppData\Local\Temp\ccqxjBbT.s:25323  .debug_str:0000000000019d06 .LASF2793
C:\Users\SOLDER~1\AppData\Local\Temp\ccqxjBbT.s:23657  .debug_str:000000000001314e .LASF2794
C:\Users\SOLDER~1\AppData\Local\Temp\ccqxjBbT.s:23409  .debug_str:000000000001219a .LASF2795
C:\Users\SOLDER~1\AppData\Local\Temp\ccqxjBbT.s:21781  .debug_str:000000000000b787 .LASF2796
C:\Users\SOLDER~1\AppData\Local\Temp\ccqxjBbT.s:24547  .debug_str:0000000000016b55 .LASF2797
C:\Users\SOLDER~1\AppData\Local\Temp\ccqxjBbT.s:24533  .debug_str:0000000000016a7d .LASF2798
GAS LISTING C:\Users\SOLDER~1\AppData\Local\Temp\ccqxjBbT.s 			page 67


C:\Users\SOLDER~1\AppData\Local\Temp\ccqxjBbT.s:20895  .debug_str:0000000000007d99 .LASF2799
C:\Users\SOLDER~1\AppData\Local\Temp\ccqxjBbT.s:27121  .debug_str:0000000000021196 .LASF2800
C:\Users\SOLDER~1\AppData\Local\Temp\ccqxjBbT.s:26403  .debug_str:000000000001e2ad .LASF2801
C:\Users\SOLDER~1\AppData\Local\Temp\ccqxjBbT.s:23803  .debug_str:0000000000013b48 .LASF2802
C:\Users\SOLDER~1\AppData\Local\Temp\ccqxjBbT.s:29199  .debug_str:00000000000298c9 .LASF2803
C:\Users\SOLDER~1\AppData\Local\Temp\ccqxjBbT.s:19047  .debug_str:0000000000000627 .LASF2804
C:\Users\SOLDER~1\AppData\Local\Temp\ccqxjBbT.s:27425  .debug_str:0000000000022491 .LASF2805
C:\Users\SOLDER~1\AppData\Local\Temp\ccqxjBbT.s:26767  .debug_str:000000000001fa9c .LASF2806
C:\Users\SOLDER~1\AppData\Local\Temp\ccqxjBbT.s:25825  .debug_str:000000000001bcf1 .LASF2807
C:\Users\SOLDER~1\AppData\Local\Temp\ccqxjBbT.s:24761  .debug_str:0000000000017902 .LASF2808
C:\Users\SOLDER~1\AppData\Local\Temp\ccqxjBbT.s:24195  .debug_str:000000000001558b .LASF2809
C:\Users\SOLDER~1\AppData\Local\Temp\ccqxjBbT.s:26201  .debug_str:000000000001d5d7 .LASF2810
C:\Users\SOLDER~1\AppData\Local\Temp\ccqxjBbT.s:22519  .debug_str:000000000000e857 .LASF2811
C:\Users\SOLDER~1\AppData\Local\Temp\ccqxjBbT.s:21431  .debug_str:000000000000a0d2 .LASF2812
C:\Users\SOLDER~1\AppData\Local\Temp\ccqxjBbT.s:20795  .debug_str:0000000000007731 .LASF2813
C:\Users\SOLDER~1\AppData\Local\Temp\ccqxjBbT.s:19461  .debug_str:0000000000002150 .LASF2814
C:\Users\SOLDER~1\AppData\Local\Temp\ccqxjBbT.s:19169  .debug_str:0000000000000f06 .LASF2815
C:\Users\SOLDER~1\AppData\Local\Temp\ccqxjBbT.s:21037  .debug_str:00000000000086cd .LASF2816
C:\Users\SOLDER~1\AppData\Local\Temp\ccqxjBbT.s:29089  .debug_str:00000000000291bf .LASF2817
C:\Users\SOLDER~1\AppData\Local\Temp\ccqxjBbT.s:29899  .debug_str:000000000002c6b9 .LASF2818
C:\Users\SOLDER~1\AppData\Local\Temp\ccqxjBbT.s:19425  .debug_str:0000000000001ef5 .LASF2819
C:\Users\SOLDER~1\AppData\Local\Temp\ccqxjBbT.s:26061  .debug_str:000000000001ccce .LASF2820
C:\Users\SOLDER~1\AppData\Local\Temp\ccqxjBbT.s:26961  .debug_str:0000000000020729 .LASF2821
C:\Users\SOLDER~1\AppData\Local\Temp\ccqxjBbT.s:19359  .debug_str:0000000000001a7f .LASF2822
C:\Users\SOLDER~1\AppData\Local\Temp\ccqxjBbT.s:26633  .debug_str:000000000001f1f6 .LASF2823
C:\Users\SOLDER~1\AppData\Local\Temp\ccqxjBbT.s:24661  .debug_str:000000000001727a .LASF2824
C:\Users\SOLDER~1\AppData\Local\Temp\ccqxjBbT.s:26893  .debug_str:0000000000020290 .LASF2825
C:\Users\SOLDER~1\AppData\Local\Temp\ccqxjBbT.s:20707  .debug_str:00000000000071a2 .LASF2826
C:\Users\SOLDER~1\AppData\Local\Temp\ccqxjBbT.s:27281  .debug_str:0000000000021bac .LASF2827
C:\Users\SOLDER~1\AppData\Local\Temp\ccqxjBbT.s:20907  .debug_str:0000000000007e65 .LASF2828
C:\Users\SOLDER~1\AppData\Local\Temp\ccqxjBbT.s:19793  .debug_str:00000000000036ac .LASF2829
C:\Users\SOLDER~1\AppData\Local\Temp\ccqxjBbT.s:25121  .debug_str:000000000001907d .LASF2830
C:\Users\SOLDER~1\AppData\Local\Temp\ccqxjBbT.s:27901  .debug_str:00000000000243ad .LASF2831
C:\Users\SOLDER~1\AppData\Local\Temp\ccqxjBbT.s:23335  .debug_str:0000000000011ccb .LASF2832
C:\Users\SOLDER~1\AppData\Local\Temp\ccqxjBbT.s:20087  .debug_str:000000000000497a .LASF2833
C:\Users\SOLDER~1\AppData\Local\Temp\ccqxjBbT.s:27467  .debug_str:000000000002274d .LASF2834
C:\Users\SOLDER~1\AppData\Local\Temp\ccqxjBbT.s:24249  .debug_str:00000000000158df .LASF2835
C:\Users\SOLDER~1\AppData\Local\Temp\ccqxjBbT.s:29009  .debug_str:0000000000028c9e .LASF2836
C:\Users\SOLDER~1\AppData\Local\Temp\ccqxjBbT.s:26415  .debug_str:000000000001e35a .LASF2837
C:\Users\SOLDER~1\AppData\Local\Temp\ccqxjBbT.s:30551  .debug_str:000000000002f083 .LASF2838
C:\Users\SOLDER~1\AppData\Local\Temp\ccqxjBbT.s:25299  .debug_str:0000000000019b8a .LASF2839
C:\Users\SOLDER~1\AppData\Local\Temp\ccqxjBbT.s:23253  .debug_str:00000000000117e7 .LASF2840
C:\Users\SOLDER~1\AppData\Local\Temp\ccqxjBbT.s:24525  .debug_str:00000000000169f0 .LASF2841
C:\Users\SOLDER~1\AppData\Local\Temp\ccqxjBbT.s:20451  .debug_str:0000000000006065 .LASF2842
C:\Users\SOLDER~1\AppData\Local\Temp\ccqxjBbT.s:25989  .debug_str:000000000001c810 .LASF2843
C:\Users\SOLDER~1\AppData\Local\Temp\ccqxjBbT.s:23193  .debug_str:00000000000113c2 .LASF2844
C:\Users\SOLDER~1\AppData\Local\Temp\ccqxjBbT.s:20047  .debug_str:00000000000046df .LASF2845
C:\Users\SOLDER~1\AppData\Local\Temp\ccqxjBbT.s:29223  .debug_str:0000000000029a61 .LASF2846
C:\Users\SOLDER~1\AppData\Local\Temp\ccqxjBbT.s:26603  .debug_str:000000000001efdc .LASF2847
C:\Users\SOLDER~1\AppData\Local\Temp\ccqxjBbT.s:26019  .debug_str:000000000001ca11 .LASF2848
C:\Users\SOLDER~1\AppData\Local\Temp\ccqxjBbT.s:26809  .debug_str:000000000001fd49 .LASF2849
C:\Users\SOLDER~1\AppData\Local\Temp\ccqxjBbT.s:28603  .debug_str:0000000000027236 .LASF2850
C:\Users\SOLDER~1\AppData\Local\Temp\ccqxjBbT.s:28931  .debug_str:00000000000287df .LASF2851
C:\Users\SOLDER~1\AppData\Local\Temp\ccqxjBbT.s:22405  .debug_str:000000000000e09c .LASF2852
C:\Users\SOLDER~1\AppData\Local\Temp\ccqxjBbT.s:25895  .debug_str:000000000001c1b2 .LASF2853
C:\Users\SOLDER~1\AppData\Local\Temp\ccqxjBbT.s:30513  .debug_str:000000000002ee31 .LASF2854
C:\Users\SOLDER~1\AppData\Local\Temp\ccqxjBbT.s:25947  .debug_str:000000000001c52d .LASF2855
GAS LISTING C:\Users\SOLDER~1\AppData\Local\Temp\ccqxjBbT.s 			page 68


C:\Users\SOLDER~1\AppData\Local\Temp\ccqxjBbT.s:23849  .debug_str:0000000000013ea6 .LASF2856
C:\Users\SOLDER~1\AppData\Local\Temp\ccqxjBbT.s:30067  .debug_str:000000000002d1c7 .LASF2857
C:\Users\SOLDER~1\AppData\Local\Temp\ccqxjBbT.s:22227  .debug_str:000000000000d554 .LASF2858
C:\Users\SOLDER~1\AppData\Local\Temp\ccqxjBbT.s:21839  .debug_str:000000000000bb18 .LASF2859
C:\Users\SOLDER~1\AppData\Local\Temp\ccqxjBbT.s:29363  .debug_str:000000000002a3f2 .LASF2860
C:\Users\SOLDER~1\AppData\Local\Temp\ccqxjBbT.s:25581  .debug_str:000000000001add0 .LASF2861
C:\Users\SOLDER~1\AppData\Local\Temp\ccqxjBbT.s:29743  .debug_str:000000000002bc49 .LASF2862
C:\Users\SOLDER~1\AppData\Local\Temp\ccqxjBbT.s:22047  .debug_str:000000000000c925 .LASF2863
C:\Users\SOLDER~1\AppData\Local\Temp\ccqxjBbT.s:26511  .debug_str:000000000001e9f9 .LASF2864
C:\Users\SOLDER~1\AppData\Local\Temp\ccqxjBbT.s:20283  .debug_str:000000000000553b .LASF2865
C:\Users\SOLDER~1\AppData\Local\Temp\ccqxjBbT.s:19817  .debug_str:000000000000382d .LASF2866
C:\Users\SOLDER~1\AppData\Local\Temp\ccqxjBbT.s:28585  .debug_str:000000000002710b .LASF2867
C:\Users\SOLDER~1\AppData\Local\Temp\ccqxjBbT.s:20889  .debug_str:0000000000007d3c .LASF2868
C:\Users\SOLDER~1\AppData\Local\Temp\ccqxjBbT.s:27113  .debug_str:00000000000210fa .LASF2869
C:\Users\SOLDER~1\AppData\Local\Temp\ccqxjBbT.s:26635  .debug_str:000000000001f216 .LASF2870
C:\Users\SOLDER~1\AppData\Local\Temp\ccqxjBbT.s:23437  .debug_str:000000000001234b .LASF2871
C:\Users\SOLDER~1\AppData\Local\Temp\ccqxjBbT.s:21929  .debug_str:000000000000c0d7 .LASF2872
C:\Users\SOLDER~1\AppData\Local\Temp\ccqxjBbT.s:23131  .debug_str:0000000000010fad .LASF2873
C:\Users\SOLDER~1\AppData\Local\Temp\ccqxjBbT.s:23715  .debug_str:0000000000013534 .LASF2874
C:\Users\SOLDER~1\AppData\Local\Temp\ccqxjBbT.s:30419  .debug_str:000000000002e806 .LASF2875
C:\Users\SOLDER~1\AppData\Local\Temp\ccqxjBbT.s:23727  .debug_str:000000000001360c .LASF2876
C:\Users\SOLDER~1\AppData\Local\Temp\ccqxjBbT.s:29881  .debug_str:000000000002c590 .LASF2877
C:\Users\SOLDER~1\AppData\Local\Temp\ccqxjBbT.s:29997  .debug_str:000000000002cce1 .LASF2878
C:\Users\SOLDER~1\AppData\Local\Temp\ccqxjBbT.s:25593  .debug_str:000000000001ae99 .LASF2879
C:\Users\SOLDER~1\AppData\Local\Temp\ccqxjBbT.s:29911  .debug_str:000000000002c78b .LASF2880
C:\Users\SOLDER~1\AppData\Local\Temp\ccqxjBbT.s:27091  .debug_str:0000000000020f5e .LASF2881
C:\Users\SOLDER~1\AppData\Local\Temp\ccqxjBbT.s:22721  .debug_str:000000000000f50e .LASF2882
C:\Users\SOLDER~1\AppData\Local\Temp\ccqxjBbT.s:22823  .debug_str:000000000000fbd7 .LASF2883
C:\Users\SOLDER~1\AppData\Local\Temp\ccqxjBbT.s:22733  .debug_str:000000000000f5b4 .LASF2884
C:\Users\SOLDER~1\AppData\Local\Temp\ccqxjBbT.s:24755  .debug_str:00000000000178c0 .LASF2885
C:\Users\SOLDER~1\AppData\Local\Temp\ccqxjBbT.s:30373  .debug_str:000000000002e514 .LASF2886
C:\Users\SOLDER~1\AppData\Local\Temp\ccqxjBbT.s:22243  .debug_str:000000000000d65e .LASF2887
C:\Users\SOLDER~1\AppData\Local\Temp\ccqxjBbT.s:30457  .debug_str:000000000002eab1 .LASF2888
C:\Users\SOLDER~1\AppData\Local\Temp\ccqxjBbT.s:29583  .debug_str:000000000002b215 .LASF2889
C:\Users\SOLDER~1\AppData\Local\Temp\ccqxjBbT.s:20721  .debug_str:0000000000007283 .LASF2890
C:\Users\SOLDER~1\AppData\Local\Temp\ccqxjBbT.s:27763  .debug_str:0000000000023ab0 .LASF2891
C:\Users\SOLDER~1\AppData\Local\Temp\ccqxjBbT.s:20395  .debug_str:0000000000005cb8 .LASF2892
C:\Users\SOLDER~1\AppData\Local\Temp\ccqxjBbT.s:21007  .debug_str:00000000000084d6 .LASF2893
C:\Users\SOLDER~1\AppData\Local\Temp\ccqxjBbT.s:21717  .debug_str:000000000000b3b6 .LASF2894
C:\Users\SOLDER~1\AppData\Local\Temp\ccqxjBbT.s:21767  .debug_str:000000000000b6c3 .LASF2895
C:\Users\SOLDER~1\AppData\Local\Temp\ccqxjBbT.s:20709  .debug_str:00000000000071c2 .LASF2896
C:\Users\SOLDER~1\AppData\Local\Temp\ccqxjBbT.s:19745  .debug_str:000000000000339e .LASF2897
C:\Users\SOLDER~1\AppData\Local\Temp\ccqxjBbT.s:22433  .debug_str:000000000000e2c4 .LASF2898
C:\Users\SOLDER~1\AppData\Local\Temp\ccqxjBbT.s:24495  .debug_str:00000000000167e9 .LASF2899
C:\Users\SOLDER~1\AppData\Local\Temp\ccqxjBbT.s:30211  .debug_str:000000000002daca .LASF2900
C:\Users\SOLDER~1\AppData\Local\Temp\ccqxjBbT.s:21629  .debug_str:000000000000ae29 .LASF2901
C:\Users\SOLDER~1\AppData\Local\Temp\ccqxjBbT.s:29283  .debug_str:0000000000029e83 .LASF2902
C:\Users\SOLDER~1\AppData\Local\Temp\ccqxjBbT.s:30289  .debug_str:000000000002dfe9 .LASF2903
C:\Users\SOLDER~1\AppData\Local\Temp\ccqxjBbT.s:30075  .debug_str:000000000002d246 .LASF2904
C:\Users\SOLDER~1\AppData\Local\Temp\ccqxjBbT.s:21905  .debug_str:000000000000bf3f .LASF2905
C:\Users\SOLDER~1\AppData\Local\Temp\ccqxjBbT.s:21207  .debug_str:0000000000009253 .LASF2906
C:\Users\SOLDER~1\AppData\Local\Temp\ccqxjBbT.s:26203  .debug_str:000000000001d5ff .LASF2907
C:\Users\SOLDER~1\AppData\Local\Temp\ccqxjBbT.s:22123  .debug_str:000000000000ce66 .LASF2908
C:\Users\SOLDER~1\AppData\Local\Temp\ccqxjBbT.s:23995  .debug_str:00000000000148a8 .LASF2909
C:\Users\SOLDER~1\AppData\Local\Temp\ccqxjBbT.s:28917  .debug_str:00000000000286e6 .LASF2910
C:\Users\SOLDER~1\AppData\Local\Temp\ccqxjBbT.s:21391  .debug_str:0000000000009e5d .LASF2911
C:\Users\SOLDER~1\AppData\Local\Temp\ccqxjBbT.s:29027  .debug_str:0000000000028dcb .LASF2912
GAS LISTING C:\Users\SOLDER~1\AppData\Local\Temp\ccqxjBbT.s 			page 69


C:\Users\SOLDER~1\AppData\Local\Temp\ccqxjBbT.s:25031  .debug_str:0000000000018a45 .LASF2913
C:\Users\SOLDER~1\AppData\Local\Temp\ccqxjBbT.s:22449  .debug_str:000000000000e3ec .LASF2914
C:\Users\SOLDER~1\AppData\Local\Temp\ccqxjBbT.s:27201  .debug_str:00000000000216a8 .LASF2915
C:\Users\SOLDER~1\AppData\Local\Temp\ccqxjBbT.s:27951  .debug_str:0000000000024706 .LASF2916
C:\Users\SOLDER~1\AppData\Local\Temp\ccqxjBbT.s:25809  .debug_str:000000000001bbd3 .LASF2917
C:\Users\SOLDER~1\AppData\Local\Temp\ccqxjBbT.s:22343  .debug_str:000000000000dc7b .LASF2918
C:\Users\SOLDER~1\AppData\Local\Temp\ccqxjBbT.s:22685  .debug_str:000000000000f2dc .LASF2919
C:\Users\SOLDER~1\AppData\Local\Temp\ccqxjBbT.s:19627  .debug_str:0000000000002bf4 .LASF2920
C:\Users\SOLDER~1\AppData\Local\Temp\ccqxjBbT.s:25021  .debug_str:00000000000189b6 .LASF2921
C:\Users\SOLDER~1\AppData\Local\Temp\ccqxjBbT.s:19037  .debug_str:0000000000000579 .LASF2922
C:\Users\SOLDER~1\AppData\Local\Temp\ccqxjBbT.s:27681  .debug_str:000000000002358c .LASF2923
C:\Users\SOLDER~1\AppData\Local\Temp\ccqxjBbT.s:22457  .debug_str:000000000000e473 .LASF2924
C:\Users\SOLDER~1\AppData\Local\Temp\ccqxjBbT.s:26629  .debug_str:000000000001f1bc .LASF2925
C:\Users\SOLDER~1\AppData\Local\Temp\ccqxjBbT.s:27919  .debug_str:00000000000244d2 .LASF2926
C:\Users\SOLDER~1\AppData\Local\Temp\ccqxjBbT.s:26319  .debug_str:000000000001dd3e .LASF2927
C:\Users\SOLDER~1\AppData\Local\Temp\ccqxjBbT.s:22939  .debug_str:0000000000010348 .LASF2928
C:\Users\SOLDER~1\AppData\Local\Temp\ccqxjBbT.s:27975  .debug_str:00000000000248ad .LASF2929
C:\Users\SOLDER~1\AppData\Local\Temp\ccqxjBbT.s:25093  .debug_str:0000000000018ea1 .LASF2930
C:\Users\SOLDER~1\AppData\Local\Temp\ccqxjBbT.s:24649  .debug_str:00000000000171ad .LASF2931
C:\Users\SOLDER~1\AppData\Local\Temp\ccqxjBbT.s:23941  .debug_str:000000000001450a .LASF2932
C:\Users\SOLDER~1\AppData\Local\Temp\ccqxjBbT.s:22237  .debug_str:000000000000d5fc .LASF2933
C:\Users\SOLDER~1\AppData\Local\Temp\ccqxjBbT.s:22535  .debug_str:000000000000e970 .LASF2934
C:\Users\SOLDER~1\AppData\Local\Temp\ccqxjBbT.s:24883  .debug_str:00000000000180f9 .LASF2935
C:\Users\SOLDER~1\AppData\Local\Temp\ccqxjBbT.s:26333  .debug_str:000000000001de3b .LASF2936
C:\Users\SOLDER~1\AppData\Local\Temp\ccqxjBbT.s:28029  .debug_str:0000000000024c34 .LASF2937
C:\Users\SOLDER~1\AppData\Local\Temp\ccqxjBbT.s:28545  .debug_str:0000000000026e76 .LASF2938
C:\Users\SOLDER~1\AppData\Local\Temp\ccqxjBbT.s:28929  .debug_str:00000000000287b6 .LASF2939
C:\Users\SOLDER~1\AppData\Local\Temp\ccqxjBbT.s:26211  .debug_str:000000000001d667 .LASF2940
C:\Users\SOLDER~1\AppData\Local\Temp\ccqxjBbT.s:25019  .debug_str:000000000001899c .LASF2941
C:\Users\SOLDER~1\AppData\Local\Temp\ccqxjBbT.s:22103  .debug_str:000000000000cd0d .LASF2942
C:\Users\SOLDER~1\AppData\Local\Temp\ccqxjBbT.s:18963  .debug_str:00000000000000be .LASF2943
C:\Users\SOLDER~1\AppData\Local\Temp\ccqxjBbT.s:28335  .debug_str:0000000000026064 .LASF2944
C:\Users\SOLDER~1\AppData\Local\Temp\ccqxjBbT.s:19231  .debug_str:000000000000125a .LASF2945
C:\Users\SOLDER~1\AppData\Local\Temp\ccqxjBbT.s:20119  .debug_str:0000000000004b55 .LASF2946
C:\Users\SOLDER~1\AppData\Local\Temp\ccqxjBbT.s:20833  .debug_str:000000000000797c .LASF2947
C:\Users\SOLDER~1\AppData\Local\Temp\ccqxjBbT.s:27853  .debug_str:0000000000024093 .LASF2948
C:\Users\SOLDER~1\AppData\Local\Temp\ccqxjBbT.s:27741  .debug_str:000000000002394b .LASF2949
C:\Users\SOLDER~1\AppData\Local\Temp\ccqxjBbT.s:21031  .debug_str:000000000000864e .LASF2950
C:\Users\SOLDER~1\AppData\Local\Temp\ccqxjBbT.s:23811  .debug_str:0000000000013c04 .LASF2951
C:\Users\SOLDER~1\AppData\Local\Temp\ccqxjBbT.s:25371  .debug_str:0000000000019fed .LASF2952
C:\Users\SOLDER~1\AppData\Local\Temp\ccqxjBbT.s:24461  .debug_str:0000000000016620 .LASF2953
C:\Users\SOLDER~1\AppData\Local\Temp\ccqxjBbT.s:24915  .debug_str:0000000000018305 .LASF2954
C:\Users\SOLDER~1\AppData\Local\Temp\ccqxjBbT.s:25173  .debug_str:00000000000193ae .LASF2955
C:\Users\SOLDER~1\AppData\Local\Temp\ccqxjBbT.s:23593  .debug_str:0000000000012d1d .LASF2956
C:\Users\SOLDER~1\AppData\Local\Temp\ccqxjBbT.s:25271  .debug_str:00000000000199f0 .LASF2957
C:\Users\SOLDER~1\AppData\Local\Temp\ccqxjBbT.s:19713  .debug_str:0000000000003191 .LASF2958
C:\Users\SOLDER~1\AppData\Local\Temp\ccqxjBbT.s:19165  .debug_str:0000000000000ec7 .LASF2959
C:\Users\SOLDER~1\AppData\Local\Temp\ccqxjBbT.s:25079  .debug_str:0000000000018d9c .LASF2960
C:\Users\SOLDER~1\AppData\Local\Temp\ccqxjBbT.s:28319  .debug_str:0000000000025f62 .LASF2961
C:\Users\SOLDER~1\AppData\Local\Temp\ccqxjBbT.s:29057  .debug_str:0000000000028f8a .LASF2962
C:\Users\SOLDER~1\AppData\Local\Temp\ccqxjBbT.s:19529  .debug_str:00000000000025d4 .LASF2963
C:\Users\SOLDER~1\AppData\Local\Temp\ccqxjBbT.s:22673  .debug_str:000000000000f219 .LASF2964
C:\Users\SOLDER~1\AppData\Local\Temp\ccqxjBbT.s:30043  .debug_str:000000000002cfed .LASF2965
C:\Users\SOLDER~1\AppData\Local\Temp\ccqxjBbT.s:23229  .debug_str:0000000000011656 .LASF2966
C:\Users\SOLDER~1\AppData\Local\Temp\ccqxjBbT.s:24695  .debug_str:00000000000174ba .LASF2967
C:\Users\SOLDER~1\AppData\Local\Temp\ccqxjBbT.s:20579  .debug_str:000000000000693b .LASF2968
C:\Users\SOLDER~1\AppData\Local\Temp\ccqxjBbT.s:20325  .debug_str:000000000000582c .LASF2969
GAS LISTING C:\Users\SOLDER~1\AppData\Local\Temp\ccqxjBbT.s 			page 70


C:\Users\SOLDER~1\AppData\Local\Temp\ccqxjBbT.s:28047  .debug_str:0000000000024d5a .LASF2970
C:\Users\SOLDER~1\AppData\Local\Temp\ccqxjBbT.s:30483  .debug_str:000000000002ec76 .LASF2971
C:\Users\SOLDER~1\AppData\Local\Temp\ccqxjBbT.s:20443  .debug_str:0000000000005fd3 .LASF2972
C:\Users\SOLDER~1\AppData\Local\Temp\ccqxjBbT.s:18977  .debug_str:0000000000000175 .LASF2973
C:\Users\SOLDER~1\AppData\Local\Temp\ccqxjBbT.s:28445  .debug_str:00000000000267e9 .LASF2974
C:\Users\SOLDER~1\AppData\Local\Temp\ccqxjBbT.s:27335  .debug_str:0000000000021f0a .LASF2975
C:\Users\SOLDER~1\AppData\Local\Temp\ccqxjBbT.s:24217  .debug_str:00000000000156f8 .LASF2976
C:\Users\SOLDER~1\AppData\Local\Temp\ccqxjBbT.s:22767  .debug_str:000000000000f7e4 .LASF2977
C:\Users\SOLDER~1\AppData\Local\Temp\ccqxjBbT.s:27607  .debug_str:000000000002309e .LASF2978
C:\Users\SOLDER~1\AppData\Local\Temp\ccqxjBbT.s:21601  .debug_str:000000000000ac68 .LASF2979
C:\Users\SOLDER~1\AppData\Local\Temp\ccqxjBbT.s:19415  .debug_str:0000000000001e49 .LASF2980
C:\Users\SOLDER~1\AppData\Local\Temp\ccqxjBbT.s:23721  .debug_str:0000000000013599 .LASF2981
C:\Users\SOLDER~1\AppData\Local\Temp\ccqxjBbT.s:21259  .debug_str:00000000000095b9 .LASF2982
C:\Users\SOLDER~1\AppData\Local\Temp\ccqxjBbT.s:27391  .debug_str:0000000000022230 .LASF2983
C:\Users\SOLDER~1\AppData\Local\Temp\ccqxjBbT.s:30047  .debug_str:000000000002d03d .LASF2984
C:\Users\SOLDER~1\AppData\Local\Temp\ccqxjBbT.s:21963  .debug_str:000000000000c34c .LASF2985
C:\Users\SOLDER~1\AppData\Local\Temp\ccqxjBbT.s:27619  .debug_str:000000000002315a .LASF2986
C:\Users\SOLDER~1\AppData\Local\Temp\ccqxjBbT.s:21551  .debug_str:000000000000a904 .LASF2987
C:\Users\SOLDER~1\AppData\Local\Temp\ccqxjBbT.s:30027  .debug_str:000000000002ceea .LASF2988
C:\Users\SOLDER~1\AppData\Local\Temp\ccqxjBbT.s:24405  .debug_str:0000000000016277 .LASF2989
C:\Users\SOLDER~1\AppData\Local\Temp\ccqxjBbT.s:28813  .debug_str:000000000002801b .LASF2990
C:\Users\SOLDER~1\AppData\Local\Temp\ccqxjBbT.s:25201  .debug_str:00000000000195ae .LASF2991
C:\Users\SOLDER~1\AppData\Local\Temp\ccqxjBbT.s:19909  .debug_str:0000000000003e1f .LASF2992
C:\Users\SOLDER~1\AppData\Local\Temp\ccqxjBbT.s:29935  .debug_str:000000000002c8f9 .LASF2993
C:\Users\SOLDER~1\AppData\Local\Temp\ccqxjBbT.s:19431  .debug_str:0000000000001f64 .LASF2994
C:\Users\SOLDER~1\AppData\Local\Temp\ccqxjBbT.s:23041  .debug_str:00000000000109fe .LASF2995
C:\Users\SOLDER~1\AppData\Local\Temp\ccqxjBbT.s:20355  .debug_str:0000000000005a3c .LASF2996
C:\Users\SOLDER~1\AppData\Local\Temp\ccqxjBbT.s:30449  .debug_str:000000000002ea38 .LASF2997
C:\Users\SOLDER~1\AppData\Local\Temp\ccqxjBbT.s:19459  .debug_str:0000000000002128 .LASF2998
C:\Users\SOLDER~1\AppData\Local\Temp\ccqxjBbT.s:28575  .debug_str:0000000000027059 .LASF2999
C:\Users\SOLDER~1\AppData\Local\Temp\ccqxjBbT.s:21495  .debug_str:000000000000a52b .LASF3000
C:\Users\SOLDER~1\AppData\Local\Temp\ccqxjBbT.s:19645  .debug_str:0000000000002d27 .LASF3001
C:\Users\SOLDER~1\AppData\Local\Temp\ccqxjBbT.s:28389  .debug_str:000000000002644d .LASF3002
C:\Users\SOLDER~1\AppData\Local\Temp\ccqxjBbT.s:22337  .debug_str:000000000000dc08 .LASF3003
C:\Users\SOLDER~1\AppData\Local\Temp\ccqxjBbT.s:23885  .debug_str:0000000000014126 .LASF3004
C:\Users\SOLDER~1\AppData\Local\Temp\ccqxjBbT.s:28359  .debug_str:000000000002621e .LASF3005
C:\Users\SOLDER~1\AppData\Local\Temp\ccqxjBbT.s:19453  .debug_str:00000000000020b4 .LASF3006
C:\Users\SOLDER~1\AppData\Local\Temp\ccqxjBbT.s:25467  .debug_str:000000000001a606 .LASF3007
C:\Users\SOLDER~1\AppData\Local\Temp\ccqxjBbT.s:23763  .debug_str:0000000000013883 .LASF3008
C:\Users\SOLDER~1\AppData\Local\Temp\ccqxjBbT.s:27347  .debug_str:0000000000021fbc .LASF3009
C:\Users\SOLDER~1\AppData\Local\Temp\ccqxjBbT.s:26225  .debug_str:000000000001d737 .LASF3010
C:\Users\SOLDER~1\AppData\Local\Temp\ccqxjBbT.s:28003  .debug_str:0000000000024a8d .LASF3011
C:\Users\SOLDER~1\AppData\Local\Temp\ccqxjBbT.s:21577  .debug_str:000000000000aae4 .LASF3012
C:\Users\SOLDER~1\AppData\Local\Temp\ccqxjBbT.s:27399  .debug_str:00000000000222b5 .LASF3013
C:\Users\SOLDER~1\AppData\Local\Temp\ccqxjBbT.s:25131  .debug_str:000000000001911e .LASF3014
C:\Users\SOLDER~1\AppData\Local\Temp\ccqxjBbT.s:29937  .debug_str:000000000002c912 .LASF3015
C:\Users\SOLDER~1\AppData\Local\Temp\ccqxjBbT.s:25503  .debug_str:000000000001a88b .LASF3016
C:\Users\SOLDER~1\AppData\Local\Temp\ccqxjBbT.s:30171  .debug_str:000000000002d86d .LASF3017
C:\Users\SOLDER~1\AppData\Local\Temp\ccqxjBbT.s:26815  .debug_str:000000000001fd90 .LASF3018
C:\Users\SOLDER~1\AppData\Local\Temp\ccqxjBbT.s:21281  .debug_str:0000000000009703 .LASF3019
C:\Users\SOLDER~1\AppData\Local\Temp\ccqxjBbT.s:22967  .debug_str:0000000000010543 .LASF3020
C:\Users\SOLDER~1\AppData\Local\Temp\ccqxjBbT.s:23867  .debug_str:0000000000013ffa .LASF3021
C:\Users\SOLDER~1\AppData\Local\Temp\ccqxjBbT.s:24845  .debug_str:0000000000017e40 .LASF3022
C:\Users\SOLDER~1\AppData\Local\Temp\ccqxjBbT.s:21911  .debug_str:000000000000bfac .LASF3023
C:\Users\SOLDER~1\AppData\Local\Temp\ccqxjBbT.s:21309  .debug_str:00000000000098f0 .LASF3024
C:\Users\SOLDER~1\AppData\Local\Temp\ccqxjBbT.s:20009  .debug_str:0000000000004474 .LASF3025
C:\Users\SOLDER~1\AppData\Local\Temp\ccqxjBbT.s:30395  .debug_str:000000000002e67d .LASF3026
GAS LISTING C:\Users\SOLDER~1\AppData\Local\Temp\ccqxjBbT.s 			page 71


C:\Users\SOLDER~1\AppData\Local\Temp\ccqxjBbT.s:29705  .debug_str:000000000002b9e2 .LASF3027
C:\Users\SOLDER~1\AppData\Local\Temp\ccqxjBbT.s:26327  .debug_str:000000000001ddd4 .LASF3028
C:\Users\SOLDER~1\AppData\Local\Temp\ccqxjBbT.s:28283  .debug_str:0000000000025cce .LASF3029
C:\Users\SOLDER~1\AppData\Local\Temp\ccqxjBbT.s:25637  .debug_str:000000000001b115 .LASF3030
C:\Users\SOLDER~1\AppData\Local\Temp\ccqxjBbT.s:25983  .debug_str:000000000001c7b7 .LASF3031
C:\Users\SOLDER~1\AppData\Local\Temp\ccqxjBbT.s:19545  .debug_str:00000000000026d0 .LASF3032
C:\Users\SOLDER~1\AppData\Local\Temp\ccqxjBbT.s:24109  .debug_str:0000000000015026 .LASF3033
C:\Users\SOLDER~1\AppData\Local\Temp\ccqxjBbT.s:28663  .debug_str:000000000002763e .LASF3034
C:\Users\SOLDER~1\AppData\Local\Temp\ccqxjBbT.s:22163  .debug_str:000000000000d120 .LASF3035
C:\Users\SOLDER~1\AppData\Local\Temp\ccqxjBbT.s:24061  .debug_str:0000000000014d13 .LASF3036
C:\Users\SOLDER~1\AppData\Local\Temp\ccqxjBbT.s:30369  .debug_str:000000000002e4dc .LASF3037
C:\Users\SOLDER~1\AppData\Local\Temp\ccqxjBbT.s:21205  .debug_str:0000000000009231 .LASF3038
C:\Users\SOLDER~1\AppData\Local\Temp\ccqxjBbT.s:29957  .debug_str:000000000002ca5c .LASF3039
C:\Users\SOLDER~1\AppData\Local\Temp\ccqxjBbT.s:23495  .debug_str:0000000000012705 .LASF3040
C:\Users\SOLDER~1\AppData\Local\Temp\ccqxjBbT.s:29329  .debug_str:000000000002a1ad .LASF3041
C:\Users\SOLDER~1\AppData\Local\Temp\ccqxjBbT.s:21447  .debug_str:000000000000a1fd .LASF3042
C:\Users\SOLDER~1\AppData\Local\Temp\ccqxjBbT.s:27573  .debug_str:0000000000022e70 .LASF3043
C:\Users\SOLDER~1\AppData\Local\Temp\ccqxjBbT.s:19361  .debug_str:0000000000001aaa .LASF3044
C:\Users\SOLDER~1\AppData\Local\Temp\ccqxjBbT.s:19411  .debug_str:0000000000001e03 .LASF3045
C:\Users\SOLDER~1\AppData\Local\Temp\ccqxjBbT.s:19583  .debug_str:0000000000002984 .LASF3046
C:\Users\SOLDER~1\AppData\Local\Temp\ccqxjBbT.s:24351  .debug_str:0000000000015f09 .LASF3047
C:\Users\SOLDER~1\AppData\Local\Temp\ccqxjBbT.s:23047  .debug_str:0000000000010a79 .LASF3048
C:\Users\SOLDER~1\AppData\Local\Temp\ccqxjBbT.s:22581  .debug_str:000000000000ec4c .LASF3049
C:\Users\SOLDER~1\AppData\Local\Temp\ccqxjBbT.s:25157  .debug_str:00000000000192b4 .LASF3050
C:\Users\SOLDER~1\AppData\Local\Temp\ccqxjBbT.s:20935  .debug_str:000000000000803d .LASF3051
C:\Users\SOLDER~1\AppData\Local\Temp\ccqxjBbT.s:22239  .debug_str:000000000000d616 .LASF3052
C:\Users\SOLDER~1\AppData\Local\Temp\ccqxjBbT.s:24905  .debug_str:000000000001827d .LASF3053
C:\Users\SOLDER~1\AppData\Local\Temp\ccqxjBbT.s:27549  .debug_str:0000000000022cef .LASF3054
C:\Users\SOLDER~1\AppData\Local\Temp\ccqxjBbT.s:23425  .debug_str:0000000000012284 .LASF3055
C:\Users\SOLDER~1\AppData\Local\Temp\ccqxjBbT.s:26717  .debug_str:000000000001f7ae .LASF3056
C:\Users\SOLDER~1\AppData\Local\Temp\ccqxjBbT.s:21055  .debug_str:00000000000087f7 .LASF3057
C:\Users\SOLDER~1\AppData\Local\Temp\ccqxjBbT.s:21901  .debug_str:000000000000bef6 .LASF3058
C:\Users\SOLDER~1\AppData\Local\Temp\ccqxjBbT.s:19253  .debug_str:00000000000013b0 .LASF3059
C:\Users\SOLDER~1\AppData\Local\Temp\ccqxjBbT.s:30329  .debug_str:000000000002e25f .LASF3060
C:\Users\SOLDER~1\AppData\Local\Temp\ccqxjBbT.s:28903  .debug_str:00000000000285df .LASF3061
C:\Users\SOLDER~1\AppData\Local\Temp\ccqxjBbT.s:24235  .debug_str:000000000001582a .LASF3062
C:\Users\SOLDER~1\AppData\Local\Temp\ccqxjBbT.s:26989  .debug_str:00000000000208f3 .LASF3063
C:\Users\SOLDER~1\AppData\Local\Temp\ccqxjBbT.s:23535  .debug_str:0000000000012970 .LASF3064
C:\Users\SOLDER~1\AppData\Local\Temp\ccqxjBbT.s:24127  .debug_str:000000000001513d .LASF3065
C:\Users\SOLDER~1\AppData\Local\Temp\ccqxjBbT.s:21075  .debug_str:0000000000008924 .LASF3066
C:\Users\SOLDER~1\AppData\Local\Temp\ccqxjBbT.s:23221  .debug_str:00000000000115b3 .LASF3067
C:\Users\SOLDER~1\AppData\Local\Temp\ccqxjBbT.s:25341  .debug_str:0000000000019df7 .LASF3068
C:\Users\SOLDER~1\AppData\Local\Temp\ccqxjBbT.s:19381  .debug_str:0000000000001bfe .LASF3069
C:\Users\SOLDER~1\AppData\Local\Temp\ccqxjBbT.s:19897  .debug_str:0000000000003d5e .LASF3070
C:\Users\SOLDER~1\AppData\Local\Temp\ccqxjBbT.s:28583  .debug_str:00000000000270f2 .LASF3071
C:\Users\SOLDER~1\AppData\Local\Temp\ccqxjBbT.s:24849  .debug_str:0000000000017e8e .LASF3072
C:\Users\SOLDER~1\AppData\Local\Temp\ccqxjBbT.s:25719  .debug_str:000000000001b664 .LASF3073
C:\Users\SOLDER~1\AppData\Local\Temp\ccqxjBbT.s:23069  .debug_str:0000000000010bde .LASF3074
C:\Users\SOLDER~1\AppData\Local\Temp\ccqxjBbT.s:24955  .debug_str:0000000000018583 .LASF3075
C:\Users\SOLDER~1\AppData\Local\Temp\ccqxjBbT.s:29605  .debug_str:000000000002b36d .LASF3076
C:\Users\SOLDER~1\AppData\Local\Temp\ccqxjBbT.s:25733  .debug_str:000000000001b736 .LASF3077
C:\Users\SOLDER~1\AppData\Local\Temp\ccqxjBbT.s:21301  .debug_str:000000000000985f .LASF3078
C:\Users\SOLDER~1\AppData\Local\Temp\ccqxjBbT.s:29429  .debug_str:000000000002a81e .LASF3079
C:\Users\SOLDER~1\AppData\Local\Temp\ccqxjBbT.s:28919  .debug_str:0000000000028710 .LASF3080
C:\Users\SOLDER~1\AppData\Local\Temp\ccqxjBbT.s:29947  .debug_str:000000000002c9c1 .LASF3081
C:\Users\SOLDER~1\AppData\Local\Temp\ccqxjBbT.s:26407  .debug_str:000000000001e2e1 .LASF3082
C:\Users\SOLDER~1\AppData\Local\Temp\ccqxjBbT.s:29833  .debug_str:000000000002c2ae .LASF3083
GAS LISTING C:\Users\SOLDER~1\AppData\Local\Temp\ccqxjBbT.s 			page 72


C:\Users\SOLDER~1\AppData\Local\Temp\ccqxjBbT.s:20915  .debug_str:0000000000007ee8 .LASF3084
C:\Users\SOLDER~1\AppData\Local\Temp\ccqxjBbT.s:26219  .debug_str:000000000001d6eb .LASF3085
C:\Users\SOLDER~1\AppData\Local\Temp\ccqxjBbT.s:28883  .debug_str:000000000002849d .LASF3086
C:\Users\SOLDER~1\AppData\Local\Temp\ccqxjBbT.s:21815  .debug_str:000000000000b979 .LASF3087
C:\Users\SOLDER~1\AppData\Local\Temp\ccqxjBbT.s:29169  .debug_str:000000000002971c .LASF3088
C:\Users\SOLDER~1\AppData\Local\Temp\ccqxjBbT.s:19901  .debug_str:0000000000003da6 .LASF3089
C:\Users\SOLDER~1\AppData\Local\Temp\ccqxjBbT.s:20471  .debug_str:00000000000061e4 .LASF3090
C:\Users\SOLDER~1\AppData\Local\Temp\ccqxjBbT.s:29591  .debug_str:000000000002b2aa .LASF3091
C:\Users\SOLDER~1\AppData\Local\Temp\ccqxjBbT.s:24193  .debug_str:0000000000015566 .LASF3092
C:\Users\SOLDER~1\AppData\Local\Temp\ccqxjBbT.s:27655  .debug_str:00000000000233e7 .LASF3093
C:\Users\SOLDER~1\AppData\Local\Temp\ccqxjBbT.s:24157  .debug_str:00000000000152f6 .LASF3094
C:\Users\SOLDER~1\AppData\Local\Temp\ccqxjBbT.s:25801  .debug_str:000000000001bb6e .LASF3095
C:\Users\SOLDER~1\AppData\Local\Temp\ccqxjBbT.s:24897  .debug_str:00000000000181ee .LASF3096
C:\Users\SOLDER~1\AppData\Local\Temp\ccqxjBbT.s:29093  .debug_str:0000000000029201 .LASF3097
C:\Users\SOLDER~1\AppData\Local\Temp\ccqxjBbT.s:20317  .debug_str:000000000000578e .LASF3098
C:\Users\SOLDER~1\AppData\Local\Temp\ccqxjBbT.s:22045  .debug_str:000000000000c90e .LASF3099
C:\Users\SOLDER~1\AppData\Local\Temp\ccqxjBbT.s:24357  .debug_str:0000000000015f66 .LASF3100
C:\Users\SOLDER~1\AppData\Local\Temp\ccqxjBbT.s:24411  .debug_str:00000000000162dc .LASF3101
C:\Users\SOLDER~1\AppData\Local\Temp\ccqxjBbT.s:26761  .debug_str:000000000001fa45 .LASF3102
C:\Users\SOLDER~1\AppData\Local\Temp\ccqxjBbT.s:29847  .debug_str:000000000002c381 .LASF3103
C:\Users\SOLDER~1\AppData\Local\Temp\ccqxjBbT.s:22647  .debug_str:000000000000f090 .LASF3104
C:\Users\SOLDER~1\AppData\Local\Temp\ccqxjBbT.s:24445  .debug_str:0000000000016501 .LASF3105
C:\Users\SOLDER~1\AppData\Local\Temp\ccqxjBbT.s:29689  .debug_str:000000000002b8d9 .LASF3106
C:\Users\SOLDER~1\AppData\Local\Temp\ccqxjBbT.s:23301  .debug_str:0000000000011ac4 .LASF3107
C:\Users\SOLDER~1\AppData\Local\Temp\ccqxjBbT.s:22605  .debug_str:000000000000edde .LASF3108
C:\Users\SOLDER~1\AppData\Local\Temp\ccqxjBbT.s:24213  .debug_str:00000000000156bf .LASF3109
C:\Users\SOLDER~1\AppData\Local\Temp\ccqxjBbT.s:21647  .debug_str:000000000000af69 .LASF3110
C:\Users\SOLDER~1\AppData\Local\Temp\ccqxjBbT.s:22487  .debug_str:000000000000e64c .LASF3111
C:\Users\SOLDER~1\AppData\Local\Temp\ccqxjBbT.s:29401  .debug_str:000000000002a679 .LASF3112
C:\Users\SOLDER~1\AppData\Local\Temp\ccqxjBbT.s:20819  .debug_str:000000000000787a .LASF3113
C:\Users\SOLDER~1\AppData\Local\Temp\ccqxjBbT.s:27219  .debug_str:00000000000217c3 .LASF3114
C:\Users\SOLDER~1\AppData\Local\Temp\ccqxjBbT.s:20817  .debug_str:0000000000007861 .LASF3115
C:\Users\SOLDER~1\AppData\Local\Temp\ccqxjBbT.s:24273  .debug_str:0000000000015a32 .LASF3116
C:\Users\SOLDER~1\AppData\Local\Temp\ccqxjBbT.s:19921  .debug_str:0000000000003ef4 .LASF3117
C:\Users\SOLDER~1\AppData\Local\Temp\ccqxjBbT.s:28073  .debug_str:0000000000024f04 .LASF3118
C:\Users\SOLDER~1\AppData\Local\Temp\ccqxjBbT.s:27745  .debug_str:000000000002398a .LASF3119
C:\Users\SOLDER~1\AppData\Local\Temp\ccqxjBbT.s:26119  .debug_str:000000000001d030 .LASF3120
C:\Users\SOLDER~1\AppData\Local\Temp\ccqxjBbT.s:26051  .debug_str:000000000001cc33 .LASF3121
C:\Users\SOLDER~1\AppData\Local\Temp\ccqxjBbT.s:27661  .debug_str:0000000000023451 .LASF3122
C:\Users\SOLDER~1\AppData\Local\Temp\ccqxjBbT.s:22891  .debug_str:000000000001005d .LASF3123
C:\Users\SOLDER~1\AppData\Local\Temp\ccqxjBbT.s:26341  .debug_str:000000000001decc .LASF3124
C:\Users\SOLDER~1\AppData\Local\Temp\ccqxjBbT.s:25539  .debug_str:000000000001aab2 .LASF3125
C:\Users\SOLDER~1\AppData\Local\Temp\ccqxjBbT.s:26279  .debug_str:000000000001da80 .LASF3126
C:\Users\SOLDER~1\AppData\Local\Temp\ccqxjBbT.s:23833  .debug_str:0000000000013dae .LASF3127
C:\Users\SOLDER~1\AppData\Local\Temp\ccqxjBbT.s:29343  .debug_str:000000000002a2ae .LASF3128
C:\Users\SOLDER~1\AppData\Local\Temp\ccqxjBbT.s:20599  .debug_str:0000000000006a81 .LASF3129
C:\Users\SOLDER~1\AppData\Local\Temp\ccqxjBbT.s:21399  .debug_str:0000000000009ed6 .LASF3130
C:\Users\SOLDER~1\AppData\Local\Temp\ccqxjBbT.s:20499  .debug_str:00000000000063c2 .LASF3131
C:\Users\SOLDER~1\AppData\Local\Temp\ccqxjBbT.s:23451  .debug_str:0000000000012436 .LASF3132
C:\Users\SOLDER~1\AppData\Local\Temp\ccqxjBbT.s:26107  .debug_str:000000000001cf7c .LASF3133
C:\Users\SOLDER~1\AppData\Local\Temp\ccqxjBbT.s:28861  .debug_str:0000000000028340 .LASF3134
C:\Users\SOLDER~1\AppData\Local\Temp\ccqxjBbT.s:28695  .debug_str:0000000000027859 .LASF3135
C:\Users\SOLDER~1\AppData\Local\Temp\ccqxjBbT.s:26437  .debug_str:000000000001e4a5 .LASF3136
C:\Users\SOLDER~1\AppData\Local\Temp\ccqxjBbT.s:29165  .debug_str:00000000000296d9 .LASF3137
C:\Users\SOLDER~1\AppData\Local\Temp\ccqxjBbT.s:23923  .debug_str:00000000000143c4 .LASF3138
C:\Users\SOLDER~1\AppData\Local\Temp\ccqxjBbT.s:21247  .debug_str:0000000000009512 .LASF3139
C:\Users\SOLDER~1\AppData\Local\Temp\ccqxjBbT.s:19443  .debug_str:0000000000002010 .LASF3140
GAS LISTING C:\Users\SOLDER~1\AppData\Local\Temp\ccqxjBbT.s 			page 73


C:\Users\SOLDER~1\AppData\Local\Temp\ccqxjBbT.s:22665  .debug_str:000000000000f1a6 .LASF3141
C:\Users\SOLDER~1\AppData\Local\Temp\ccqxjBbT.s:24721  .debug_str:0000000000017695 .LASF3142
C:\Users\SOLDER~1\AppData\Local\Temp\ccqxjBbT.s:21015  .debug_str:0000000000008559 .LASF3143
C:\Users\SOLDER~1\AppData\Local\Temp\ccqxjBbT.s:26835  .debug_str:000000000001fede .LASF3144
C:\Users\SOLDER~1\AppData\Local\Temp\ccqxjBbT.s:27707  .debug_str:0000000000023752 .LASF3145
C:\Users\SOLDER~1\AppData\Local\Temp\ccqxjBbT.s:19073  .debug_str:000000000000085e .LASF3146
C:\Users\SOLDER~1\AppData\Local\Temp\ccqxjBbT.s:29441  .debug_str:000000000002a8c5 .LASF3147
C:\Users\SOLDER~1\AppData\Local\Temp\ccqxjBbT.s:20719  .debug_str:000000000000725d .LASF3148
C:\Users\SOLDER~1\AppData\Local\Temp\ccqxjBbT.s:20291  .debug_str:00000000000055c9 .LASF3149
C:\Users\SOLDER~1\AppData\Local\Temp\ccqxjBbT.s:24825  .debug_str:0000000000017d21 .LASF3150
C:\Users\SOLDER~1\AppData\Local\Temp\ccqxjBbT.s:29525  .debug_str:000000000002ae06 .LASF3151
C:\Users\SOLDER~1\AppData\Local\Temp\ccqxjBbT.s:21293  .debug_str:00000000000097d9 .LASF3152
C:\Users\SOLDER~1\AppData\Local\Temp\ccqxjBbT.s:27145  .debug_str:0000000000021320 .LASF3153
C:\Users\SOLDER~1\AppData\Local\Temp\ccqxjBbT.s:20369  .debug_str:0000000000005b28 .LASF3154
C:\Users\SOLDER~1\AppData\Local\Temp\ccqxjBbT.s:24861  .debug_str:0000000000017f6b .LASF3155
C:\Users\SOLDER~1\AppData\Local\Temp\ccqxjBbT.s:28971  .debug_str:0000000000028a62 .LASF3156
C:\Users\SOLDER~1\AppData\Local\Temp\ccqxjBbT.s:27123  .debug_str:00000000000211be .LASF3157
C:\Users\SOLDER~1\AppData\Local\Temp\ccqxjBbT.s:28307  .debug_str:0000000000025e71 .LASF3158
C:\Users\SOLDER~1\AppData\Local\Temp\ccqxjBbT.s:25265  .debug_str:0000000000019991 .LASF3159
C:\Users\SOLDER~1\AppData\Local\Temp\ccqxjBbT.s:19531  .debug_str:00000000000025ef .LASF3160
C:\Users\SOLDER~1\AppData\Local\Temp\ccqxjBbT.s:23351  .debug_str:0000000000011dea .LASF3161
C:\Users\SOLDER~1\AppData\Local\Temp\ccqxjBbT.s:28651  .debug_str:000000000002757e .LASF3162
C:\Users\SOLDER~1\AppData\Local\Temp\ccqxjBbT.s:21413  .debug_str:0000000000009fd6 .LASF3163
C:\Users\SOLDER~1\AppData\Local\Temp\ccqxjBbT.s:27287  .debug_str:0000000000021bfc .LASF3164
C:\Users\SOLDER~1\AppData\Local\Temp\ccqxjBbT.s:19617  .debug_str:0000000000002b7b .LASF3165
C:\Users\SOLDER~1\AppData\Local\Temp\ccqxjBbT.s:27593  .debug_str:0000000000022fb1 .LASF3166
C:\Users\SOLDER~1\AppData\Local\Temp\ccqxjBbT.s:29293  .debug_str:0000000000029f27 .LASF3167
C:\Users\SOLDER~1\AppData\Local\Temp\ccqxjBbT.s:29965  .debug_str:000000000002cadc .LASF3168
C:\Users\SOLDER~1\AppData\Local\Temp\ccqxjBbT.s:29595  .debug_str:000000000002b2d9 .LASF3169
C:\Users\SOLDER~1\AppData\Local\Temp\ccqxjBbT.s:26967  .debug_str:0000000000020781 .LASF3170
C:\Users\SOLDER~1\AppData\Local\Temp\ccqxjBbT.s:22495  .debug_str:000000000000e6c2 .LASF3171
C:\Users\SOLDER~1\AppData\Local\Temp\ccqxjBbT.s:27559  .debug_str:0000000000022d8e .LASF3172
C:\Users\SOLDER~1\AppData\Local\Temp\ccqxjBbT.s:23357  .debug_str:0000000000011e5d .LASF3173
C:\Users\SOLDER~1\AppData\Local\Temp\ccqxjBbT.s:30113  .debug_str:000000000002d4b9 .LASF3174
C:\Users\SOLDER~1\AppData\Local\Temp\ccqxjBbT.s:21685  .debug_str:000000000000b1b5 .LASF3175
C:\Users\SOLDER~1\AppData\Local\Temp\ccqxjBbT.s:28287  .debug_str:0000000000025d07 .LASF3176
C:\Users\SOLDER~1\AppData\Local\Temp\ccqxjBbT.s:19945  .debug_str:0000000000004063 .LASF3177
C:\Users\SOLDER~1\AppData\Local\Temp\ccqxjBbT.s:28285  .debug_str:0000000000025ce6 .LASF3178
C:\Users\SOLDER~1\AppData\Local\Temp\ccqxjBbT.s:20021  .debug_str:000000000000452b .LASF3179
C:\Users\SOLDER~1\AppData\Local\Temp\ccqxjBbT.s:20775  .debug_str:00000000000075e8 .LASF3180
C:\Users\SOLDER~1\AppData\Local\Temp\ccqxjBbT.s:25339  .debug_str:0000000000019de4 .LASF3181
C:\Users\SOLDER~1\AppData\Local\Temp\ccqxjBbT.s:26141  .debug_str:000000000001d1f2 .LASF3182
C:\Users\SOLDER~1\AppData\Local\Temp\ccqxjBbT.s:23421  .debug_str:000000000001224f .LASF3183
C:\Users\SOLDER~1\AppData\Local\Temp\ccqxjBbT.s:25639  .debug_str:000000000001b137 .LASF3184
C:\Users\SOLDER~1\AppData\Local\Temp\ccqxjBbT.s:21481  .debug_str:000000000000a43d .LASF3185
C:\Users\SOLDER~1\AppData\Local\Temp\ccqxjBbT.s:28077  .debug_str:0000000000024f4d .LASF3186
C:\Users\SOLDER~1\AppData\Local\Temp\ccqxjBbT.s:21841  .debug_str:000000000000bb30 .LASF3187
C:\Users\SOLDER~1\AppData\Local\Temp\ccqxjBbT.s:26527  .debug_str:000000000001eb03 .LASF3188
C:\Users\SOLDER~1\AppData\Local\Temp\ccqxjBbT.s:29359  .debug_str:000000000002a3bb .LASF3189
C:\Users\SOLDER~1\AppData\Local\Temp\ccqxjBbT.s:28953  .debug_str:0000000000028939 .LASF3190
C:\Users\SOLDER~1\AppData\Local\Temp\ccqxjBbT.s:27427  .debug_str:00000000000224ac .LASF3191
C:\Users\SOLDER~1\AppData\Local\Temp\ccqxjBbT.s:27095  .debug_str:0000000000020fa8 .LASF3192
C:\Users\SOLDER~1\AppData\Local\Temp\ccqxjBbT.s:25565  .debug_str:000000000001acd2 .LASF3193
C:\Users\SOLDER~1\AppData\Local\Temp\ccqxjBbT.s:22601  .debug_str:000000000000ed97 .LASF3194
C:\Users\SOLDER~1\AppData\Local\Temp\ccqxjBbT.s:24023  .debug_str:0000000000014a7a .LASF3195
C:\Users\SOLDER~1\AppData\Local\Temp\ccqxjBbT.s:19221  .debug_str:00000000000011bf .LASF3196
C:\Users\SOLDER~1\AppData\Local\Temp\ccqxjBbT.s:21491  .debug_str:000000000000a4e3 .LASF3197
GAS LISTING C:\Users\SOLDER~1\AppData\Local\Temp\ccqxjBbT.s 			page 74


C:\Users\SOLDER~1\AppData\Local\Temp\ccqxjBbT.s:29013  .debug_str:0000000000028ce6 .LASF3198
C:\Users\SOLDER~1\AppData\Local\Temp\ccqxjBbT.s:19835  .debug_str:0000000000003964 .LASF3199
C:\Users\SOLDER~1\AppData\Local\Temp\ccqxjBbT.s:24361  .debug_str:0000000000015fae .LASF3200
C:\Users\SOLDER~1\AppData\Local\Temp\ccqxjBbT.s:29431  .debug_str:000000000002a839 .LASF3201
C:\Users\SOLDER~1\AppData\Local\Temp\ccqxjBbT.s:21451  .debug_str:000000000000a245 .LASF3202
C:\Users\SOLDER~1\AppData\Local\Temp\ccqxjBbT.s:27735  .debug_str:0000000000023916 .LASF3203
C:\Users\SOLDER~1\AppData\Local\Temp\ccqxjBbT.s:25981  .debug_str:000000000001c795 .LASF3204
C:\Users\SOLDER~1\AppData\Local\Temp\ccqxjBbT.s:19611  .debug_str:0000000000002b32 .LASF3205
C:\Users\SOLDER~1\AppData\Local\Temp\ccqxjBbT.s:25077  .debug_str:0000000000018d7a .LASF3206
C:\Users\SOLDER~1\AppData\Local\Temp\ccqxjBbT.s:24441  .debug_str:00000000000164cd .LASF3207
C:\Users\SOLDER~1\AppData\Local\Temp\ccqxjBbT.s:21187  .debug_str:00000000000090d4 .LASF3208
C:\Users\SOLDER~1\AppData\Local\Temp\ccqxjBbT.s:27793  .debug_str:0000000000023cb3 .LASF3209
C:\Users\SOLDER~1\AppData\Local\Temp\ccqxjBbT.s:22529  .debug_str:000000000000e910 .LASF3210
C:\Users\SOLDER~1\AppData\Local\Temp\ccqxjBbT.s:21021  .debug_str:00000000000085af .LASF3211
C:\Users\SOLDER~1\AppData\Local\Temp\ccqxjBbT.s:20533  .debug_str:00000000000065f7 .LASF3212
C:\Users\SOLDER~1\AppData\Local\Temp\ccqxjBbT.s:28323  .debug_str:0000000000025fa2 .LASF3213
C:\Users\SOLDER~1\AppData\Local\Temp\ccqxjBbT.s:21371  .debug_str:0000000000009cd7 .LASF3214
C:\Users\SOLDER~1\AppData\Local\Temp\ccqxjBbT.s:23457  .debug_str:0000000000012494 .LASF3215
C:\Users\SOLDER~1\AppData\Local\Temp\ccqxjBbT.s:23453  .debug_str:000000000001245b .LASF3216
C:\Users\SOLDER~1\AppData\Local\Temp\ccqxjBbT.s:24515  .debug_str:0000000000016944 .LASF3217
C:\Users\SOLDER~1\AppData\Local\Temp\ccqxjBbT.s:28833  .debug_str:0000000000028193 .LASF3218
C:\Users\SOLDER~1\AppData\Local\Temp\ccqxjBbT.s:28459  .debug_str:00000000000268cc .LASF3219
C:\Users\SOLDER~1\AppData\Local\Temp\ccqxjBbT.s:26171  .debug_str:000000000001d3fb .LASF3220
C:\Users\SOLDER~1\AppData\Local\Temp\ccqxjBbT.s:20401  .debug_str:0000000000005d26 .LASF3221
C:\Users\SOLDER~1\AppData\Local\Temp\ccqxjBbT.s:27899  .debug_str:000000000002438c .LASF3222
C:\Users\SOLDER~1\AppData\Local\Temp\ccqxjBbT.s:29161  .debug_str:000000000002969c .LASF3223
C:\Users\SOLDER~1\AppData\Local\Temp\ccqxjBbT.s:22681  .debug_str:000000000000f2a3 .LASF3224
C:\Users\SOLDER~1\AppData\Local\Temp\ccqxjBbT.s:26317  .debug_str:000000000001dd1d .LASF3225
C:\Users\SOLDER~1\AppData\Local\Temp\ccqxjBbT.s:24491  .debug_str:00000000000167ba .LASF3226
C:\Users\SOLDER~1\AppData\Local\Temp\ccqxjBbT.s:26323  .debug_str:000000000001dd8c .LASF3227
C:\Users\SOLDER~1\AppData\Local\Temp\ccqxjBbT.s:21609  .debug_str:000000000000acd7 .LASF3228
C:\Users\SOLDER~1\AppData\Local\Temp\ccqxjBbT.s:21067  .debug_str:00000000000088a3 .LASF3229
C:\Users\SOLDER~1\AppData\Local\Temp\ccqxjBbT.s:29979  .debug_str:000000000002cbbd .LASF3230
C:\Users\SOLDER~1\AppData\Local\Temp\ccqxjBbT.s:20753  .debug_str:00000000000074a4 .LASF3231
C:\Users\SOLDER~1\AppData\Local\Temp\ccqxjBbT.s:29051  .debug_str:0000000000028f31 .LASF3232
C:\Users\SOLDER~1\AppData\Local\Temp\ccqxjBbT.s:27059  .debug_str:0000000000020d5f .LASF3233
C:\Users\SOLDER~1\AppData\Local\Temp\ccqxjBbT.s:24531  .debug_str:0000000000016a5b .LASF3234
C:\Users\SOLDER~1\AppData\Local\Temp\ccqxjBbT.s:21807  .debug_str:000000000000b905 .LASF3235
C:\Users\SOLDER~1\AppData\Local\Temp\ccqxjBbT.s:19155  .debug_str:0000000000000e3e .LASF3236
C:\Users\SOLDER~1\AppData\Local\Temp\ccqxjBbT.s:28177  .debug_str:0000000000025587 .LASF3237
C:\Users\SOLDER~1\AppData\Local\Temp\ccqxjBbT.s:29323  .debug_str:000000000002a145 .LASF3238
C:\Users\SOLDER~1\AppData\Local\Temp\ccqxjBbT.s:19407  .debug_str:0000000000001dc9 .LASF3239
C:\Users\SOLDER~1\AppData\Local\Temp\ccqxjBbT.s:23515  .debug_str:0000000000012861 .LASF3240
C:\Users\SOLDER~1\AppData\Local\Temp\ccqxjBbT.s:30231  .debug_str:000000000002dc14 .LASF3241
C:\Users\SOLDER~1\AppData\Local\Temp\ccqxjBbT.s:28011  .debug_str:0000000000024b1b .LASF3242
C:\Users\SOLDER~1\AppData\Local\Temp\ccqxjBbT.s:22625  .debug_str:000000000000ef23 .LASF3243
C:\Users\SOLDER~1\AppData\Local\Temp\ccqxjBbT.s:26287  .debug_str:000000000001db19 .LASF3244
C:\Users\SOLDER~1\AppData\Local\Temp\ccqxjBbT.s:29879  .debug_str:000000000002c56f .LASF3245
C:\Users\SOLDER~1\AppData\Local\Temp\ccqxjBbT.s:21945  .debug_str:000000000000c1fa .LASF3246
C:\Users\SOLDER~1\AppData\Local\Temp\ccqxjBbT.s:28059  .debug_str:0000000000024e31 .LASF3247
C:\Users\SOLDER~1\AppData\Local\Temp\ccqxjBbT.s:29775  .debug_str:000000000002be74 .LASF3248
C:\Users\SOLDER~1\AppData\Local\Temp\ccqxjBbT.s:23707  .debug_str:000000000001349d .LASF3249
C:\Users\SOLDER~1\AppData\Local\Temp\ccqxjBbT.s:22871  .debug_str:000000000000ff13 .LASF3250
C:\Users\SOLDER~1\AppData\Local\Temp\ccqxjBbT.s:28779  .debug_str:0000000000027ddf .LASF3251
C:\Users\SOLDER~1\AppData\Local\Temp\ccqxjBbT.s:26457  .debug_str:000000000001e624 .LASF3252
C:\Users\SOLDER~1\AppData\Local\Temp\ccqxjBbT.s:28939  .debug_str:000000000002887d .LASF3253
C:\Users\SOLDER~1\AppData\Local\Temp\ccqxjBbT.s:29553  .debug_str:000000000002afd8 .LASF3254
GAS LISTING C:\Users\SOLDER~1\AppData\Local\Temp\ccqxjBbT.s 			page 75


C:\Users\SOLDER~1\AppData\Local\Temp\ccqxjBbT.s:29675  .debug_str:000000000002b7f8 .LASF3255
C:\Users\SOLDER~1\AppData\Local\Temp\ccqxjBbT.s:22933  .debug_str:00000000000102d6 .LASF3256
C:\Users\SOLDER~1\AppData\Local\Temp\ccqxjBbT.s:30325  .debug_str:000000000002e21d .LASF3257
C:\Users\SOLDER~1\AppData\Local\Temp\ccqxjBbT.s:29395  .debug_str:000000000002a600 .LASF3258
C:\Users\SOLDER~1\AppData\Local\Temp\ccqxjBbT.s:28365  .debug_str:0000000000026289 .LASF3259
C:\Users\SOLDER~1\AppData\Local\Temp\ccqxjBbT.s:29119  .debug_str:00000000000293b2 .LASF3260
C:\Users\SOLDER~1\AppData\Local\Temp\ccqxjBbT.s:25963  .debug_str:000000000001c653 .LASF3261
C:\Users\SOLDER~1\AppData\Local\Temp\ccqxjBbT.s:23237  .debug_str:00000000000116c2 .LASF3262
C:\Users\SOLDER~1\AppData\Local\Temp\ccqxjBbT.s:20879  .debug_str:0000000000007c6e .LASF3263
C:\Users\SOLDER~1\AppData\Local\Temp\ccqxjBbT.s:21855  .debug_str:000000000000bc22 .LASF3264
C:\Users\SOLDER~1\AppData\Local\Temp\ccqxjBbT.s:25795  .debug_str:000000000001bb09 .LASF3265
C:\Users\SOLDER~1\AppData\Local\Temp\ccqxjBbT.s:23037  .debug_str:00000000000109a9 .LASF3266
C:\Users\SOLDER~1\AppData\Local\Temp\ccqxjBbT.s:25689  .debug_str:000000000001b465 .LASF3267
C:\Users\SOLDER~1\AppData\Local\Temp\ccqxjBbT.s:27325  .debug_str:0000000000021e61 .LASF3268
C:\Users\SOLDER~1\AppData\Local\Temp\ccqxjBbT.s:27885  .debug_str:0000000000024288 .LASF3269
C:\Users\SOLDER~1\AppData\Local\Temp\ccqxjBbT.s:21025  .debug_str:00000000000085e2 .LASF3270
C:\Users\SOLDER~1\AppData\Local\Temp\ccqxjBbT.s:28839  .debug_str:00000000000281ee .LASF3271
C:\Users\SOLDER~1\AppData\Local\Temp\ccqxjBbT.s:25255  .debug_str:00000000000198e1 .LASF3272
C:\Users\SOLDER~1\AppData\Local\Temp\ccqxjBbT.s:22009  .debug_str:000000000000c686 .LASF3273
C:\Users\SOLDER~1\AppData\Local\Temp\ccqxjBbT.s:21239  .debug_str:000000000000945f .LASF3274
C:\Users\SOLDER~1\AppData\Local\Temp\ccqxjBbT.s:20943  .debug_str:00000000000080d7 .LASF3275
C:\Users\SOLDER~1\AppData\Local\Temp\ccqxjBbT.s:22783  .debug_str:000000000000f915 .LASF3276
C:\Users\SOLDER~1\AppData\Local\Temp\ccqxjBbT.s:25007  .debug_str:00000000000188bc .LASF3277
C:\Users\SOLDER~1\AppData\Local\Temp\ccqxjBbT.s:24029  .debug_str:0000000000014add .LASF3278
C:\Users\SOLDER~1\AppData\Local\Temp\ccqxjBbT.s:26291  .debug_str:000000000001db5d .LASF3279
C:\Users\SOLDER~1\AppData\Local\Temp\ccqxjBbT.s:19503  .debug_str:0000000000002425 .LASF3280
C:\Users\SOLDER~1\AppData\Local\Temp\ccqxjBbT.s:19675  .debug_str:0000000000002f2e .LASF3281
C:\Users\SOLDER~1\AppData\Local\Temp\ccqxjBbT.s:24209  .debug_str:000000000001566b .LASF3282
C:\Users\SOLDER~1\AppData\Local\Temp\ccqxjBbT.s:26615  .debug_str:000000000001f0b9 .LASF3283
C:\Users\SOLDER~1\AppData\Local\Temp\ccqxjBbT.s:27507  .debug_str:0000000000022a05 .LASF3284
C:\Users\SOLDER~1\AppData\Local\Temp\ccqxjBbT.s:30437  .debug_str:000000000002e95d .LASF3285
C:\Users\SOLDER~1\AppData\Local\Temp\ccqxjBbT.s:29303  .debug_str:0000000000029fd7 .LASF3286
C:\Users\SOLDER~1\AppData\Local\Temp\ccqxjBbT.s:29573  .debug_str:000000000002b166 .LASF3287
C:\Users\SOLDER~1\AppData\Local\Temp\ccqxjBbT.s:21111  .debug_str:0000000000008ba3 .LASF3288
C:\Users\SOLDER~1\AppData\Local\Temp\ccqxjBbT.s:24847  .debug_str:0000000000017e62 .LASF3289
C:\Users\SOLDER~1\AppData\Local\Temp\ccqxjBbT.s:30089  .debug_str:000000000002d31a .LASF3290
C:\Users\SOLDER~1\AppData\Local\Temp\ccqxjBbT.s:27979  .debug_str:00000000000248e0 .LASF3291
C:\Users\SOLDER~1\AppData\Local\Temp\ccqxjBbT.s:22527  .debug_str:000000000000e8dd .LASF3292
C:\Users\SOLDER~1\AppData\Local\Temp\ccqxjBbT.s:24073  .debug_str:0000000000014dee .LASF3293
C:\Users\SOLDER~1\AppData\Local\Temp\ccqxjBbT.s:21969  .debug_str:000000000000c3b5 .LASF3294
C:\Users\SOLDER~1\AppData\Local\Temp\ccqxjBbT.s:23255  .debug_str:000000000001180e .LASF3295
C:\Users\SOLDER~1\AppData\Local\Temp\ccqxjBbT.s:23873  .debug_str:0000000000014047 .LASF3296
C:\Users\SOLDER~1\AppData\Local\Temp\ccqxjBbT.s:23251  .debug_str:00000000000117c3 .LASF3297
C:\Users\SOLDER~1\AppData\Local\Temp\ccqxjBbT.s:26487  .debug_str:000000000001e843 .LASF3298
C:\Users\SOLDER~1\AppData\Local\Temp\ccqxjBbT.s:23635  .debug_str:0000000000012fcf .LASF3299
C:\Users\SOLDER~1\AppData\Local\Temp\ccqxjBbT.s:28761  .debug_str:0000000000027c94 .LASF3300
C:\Users\SOLDER~1\AppData\Local\Temp\ccqxjBbT.s:26163  .debug_str:000000000001d36d .LASF3301
C:\Users\SOLDER~1\AppData\Local\Temp\ccqxjBbT.s:27293  .debug_str:0000000000021c71 .LASF3302
C:\Users\SOLDER~1\AppData\Local\Temp\ccqxjBbT.s:20469  .debug_str:00000000000061bc .LASF3303
C:\Users\SOLDER~1\AppData\Local\Temp\ccqxjBbT.s:20321  .debug_str:00000000000057da .LASF3304
C:\Users\SOLDER~1\AppData\Local\Temp\ccqxjBbT.s:22801  .debug_str:000000000000fa4e .LASF3305
C:\Users\SOLDER~1\AppData\Local\Temp\ccqxjBbT.s:24401  .debug_str:000000000001622b .LASF3306
C:\Users\SOLDER~1\AppData\Local\Temp\ccqxjBbT.s:26265  .debug_str:000000000001d99f .LASF3307
C:\Users\SOLDER~1\AppData\Local\Temp\ccqxjBbT.s:25833  .debug_str:000000000001bd7c .LASF3308
C:\Users\SOLDER~1\AppData\Local\Temp\ccqxjBbT.s:22147  .debug_str:000000000000cfdd .LASF3309
C:\Users\SOLDER~1\AppData\Local\Temp\ccqxjBbT.s:19725  .debug_str:0000000000003245 .LASF3310
C:\Users\SOLDER~1\AppData\Local\Temp\ccqxjBbT.s:25823  .debug_str:000000000001bcc5 .LASF3311
GAS LISTING C:\Users\SOLDER~1\AppData\Local\Temp\ccqxjBbT.s 			page 76


C:\Users\SOLDER~1\AppData\Local\Temp\ccqxjBbT.s:21139  .debug_str:0000000000008d6f .LASF3312
C:\Users\SOLDER~1\AppData\Local\Temp\ccqxjBbT.s:22599  .debug_str:000000000000ed64 .LASF3313
C:\Users\SOLDER~1\AppData\Local\Temp\ccqxjBbT.s:20029  .debug_str:000000000000458f .LASF3314
C:\Users\SOLDER~1\AppData\Local\Temp\ccqxjBbT.s:22941  .debug_str:0000000000010371 .LASF3315
C:\Users\SOLDER~1\AppData\Local\Temp\ccqxjBbT.s:20209  .debug_str:00000000000050bf .LASF3316
C:\Users\SOLDER~1\AppData\Local\Temp\ccqxjBbT.s:19007  .debug_str:0000000000000382 .LASF3317
C:\Users\SOLDER~1\AppData\Local\Temp\ccqxjBbT.s:21417  .debug_str:000000000000a015 .LASF3318
C:\Users\SOLDER~1\AppData\Local\Temp\ccqxjBbT.s:26555  .debug_str:000000000001ecbd .LASF3319
C:\Users\SOLDER~1\AppData\Local\Temp\ccqxjBbT.s:30403  .debug_str:000000000002e6fb .LASF3320
C:\Users\SOLDER~1\AppData\Local\Temp\ccqxjBbT.s:19201  .debug_str:000000000000106a .LASF3321
C:\Users\SOLDER~1\AppData\Local\Temp\ccqxjBbT.s:19879  .debug_str:0000000000003c40 .LASF3322
C:\Users\SOLDER~1\AppData\Local\Temp\ccqxjBbT.s:24457  .debug_str:00000000000165d9 .LASF3323
C:\Users\SOLDER~1\AppData\Local\Temp\ccqxjBbT.s:25453  .debug_str:000000000001a514 .LASF3324
C:\Users\SOLDER~1\AppData\Local\Temp\ccqxjBbT.s:25015  .debug_str:000000000001894c .LASF3325
C:\Users\SOLDER~1\AppData\Local\Temp\ccqxjBbT.s:30083  .debug_str:000000000002d2b5 .LASF3326
C:\Users\SOLDER~1\AppData\Local\Temp\ccqxjBbT.s:26613  .debug_str:000000000001f090 .LASF3327
C:\Users\SOLDER~1\AppData\Local\Temp\ccqxjBbT.s:23155  .debug_str:0000000000011164 .LASF3328
C:\Users\SOLDER~1\AppData\Local\Temp\ccqxjBbT.s:19651  .debug_str:0000000000002d85 .LASF3329
C:\Users\SOLDER~1\AppData\Local\Temp\ccqxjBbT.s:27719  .debug_str:00000000000237fd .LASF3330
C:\Users\SOLDER~1\AppData\Local\Temp\ccqxjBbT.s:23845  .debug_str:0000000000013e5c .LASF3331
C:\Users\SOLDER~1\AppData\Local\Temp\ccqxjBbT.s:23287  .debug_str:00000000000119c6 .LASF3332
C:\Users\SOLDER~1\AppData\Local\Temp\ccqxjBbT.s:22725  .debug_str:000000000000f541 .LASF3333
C:\Users\SOLDER~1\AppData\Local\Temp\ccqxjBbT.s:25089  .debug_str:0000000000018e58 .LASF3334
C:\Users\SOLDER~1\AppData\Local\Temp\ccqxjBbT.s:27783  .debug_str:0000000000023c03 .LASF3335
C:\Users\SOLDER~1\AppData\Local\Temp\ccqxjBbT.s:19041  .debug_str:00000000000005c0 .LASF3336
C:\Users\SOLDER~1\AppData\Local\Temp\ccqxjBbT.s:20557  .debug_str:00000000000067b4 .LASF3337
C:\Users\SOLDER~1\AppData\Local\Temp\ccqxjBbT.s:19555  .debug_str:000000000000277e .LASF3338
C:\Users\SOLDER~1\AppData\Local\Temp\ccqxjBbT.s:26711  .debug_str:000000000001f73e .LASF3339
C:\Users\SOLDER~1\AppData\Local\Temp\ccqxjBbT.s:29065  .debug_str:0000000000029013 .LASF3340
C:\Users\SOLDER~1\AppData\Local\Temp\ccqxjBbT.s:21933  .debug_str:000000000000c124 .LASF3341
C:\Users\SOLDER~1\AppData\Local\Temp\ccqxjBbT.s:26985  .debug_str:00000000000208a3 .LASF3342
C:\Users\SOLDER~1\AppData\Local\Temp\ccqxjBbT.s:20173  .debug_str:0000000000004ea5 .LASF3343
C:\Users\SOLDER~1\AppData\Local\Temp\ccqxjBbT.s:21105  .debug_str:0000000000008b31 .LASF3344
C:\Users\SOLDER~1\AppData\Local\Temp\ccqxjBbT.s:22719  .debug_str:000000000000f4e5 .LASF3345
C:\Users\SOLDER~1\AppData\Local\Temp\ccqxjBbT.s:20617  .debug_str:0000000000006b81 .LASF3346
C:\Users\SOLDER~1\AppData\Local\Temp\ccqxjBbT.s:30447  .debug_str:000000000002ea0f .LASF3347
C:\Users\SOLDER~1\AppData\Local\Temp\ccqxjBbT.s:26007  .debug_str:000000000001c93d .LASF3348
C:\Users\SOLDER~1\AppData\Local\Temp\ccqxjBbT.s:26857  .debug_str:000000000002005a .LASF3349
C:\Users\SOLDER~1\AppData\Local\Temp\ccqxjBbT.s:25115  .debug_str:000000000001901b .LASF3350
C:\Users\SOLDER~1\AppData\Local\Temp\ccqxjBbT.s:23305  .debug_str:0000000000011b04 .LASF3351
C:\Users\SOLDER~1\AppData\Local\Temp\ccqxjBbT.s:20781  .debug_str:000000000000764c .LASF3352
C:\Users\SOLDER~1\AppData\Local\Temp\ccqxjBbT.s:29487  .debug_str:000000000002abb7 .LASF3353
C:\Users\SOLDER~1\AppData\Local\Temp\ccqxjBbT.s:21805  .debug_str:000000000000b8e9 .LASF3354
C:\Users\SOLDER~1\AppData\Local\Temp\ccqxjBbT.s:24197  .debug_str:00000000000155a6 .LASF3355
C:\Users\SOLDER~1\AppData\Local\Temp\ccqxjBbT.s:27333  .debug_str:0000000000021eee .LASF3356
C:\Users\SOLDER~1\AppData\Local\Temp\ccqxjBbT.s:26641  .debug_str:000000000001f27c .LASF3357
C:\Users\SOLDER~1\AppData\Local\Temp\ccqxjBbT.s:23943  .debug_str:0000000000014533 .LASF3358
C:\Users\SOLDER~1\AppData\Local\Temp\ccqxjBbT.s:24223  .debug_str:0000000000015766 .LASF3359
C:\Users\SOLDER~1\AppData\Local\Temp\ccqxjBbT.s:23953  .debug_str:00000000000145c5 .LASF3360
C:\Users\SOLDER~1\AppData\Local\Temp\ccqxjBbT.s:20439  .debug_str:0000000000005f84 .LASF3361
C:\Users\SOLDER~1\AppData\Local\Temp\ccqxjBbT.s:28535  .debug_str:0000000000026dad .LASF3362
C:\Users\SOLDER~1\AppData\Local\Temp\ccqxjBbT.s:27649  .debug_str:0000000000023375 .LASF3363
C:\Users\SOLDER~1\AppData\Local\Temp\ccqxjBbT.s:24965  .debug_str:000000000001862e .LASF3364
C:\Users\SOLDER~1\AppData\Local\Temp\ccqxjBbT.s:29725  .debug_str:000000000002bb0c .LASF3365
C:\Users\SOLDER~1\AppData\Local\Temp\ccqxjBbT.s:21975  .debug_str:000000000000c42c .LASF3366
C:\Users\SOLDER~1\AppData\Local\Temp\ccqxjBbT.s:26771  .debug_str:000000000001fad6 .LASF3367
C:\Users\SOLDER~1\AppData\Local\Temp\ccqxjBbT.s:29555  .debug_str:000000000002b007 .LASF3368
GAS LISTING C:\Users\SOLDER~1\AppData\Local\Temp\ccqxjBbT.s 			page 77


C:\Users\SOLDER~1\AppData\Local\Temp\ccqxjBbT.s:29069  .debug_str:0000000000029060 .LASF3369
C:\Users\SOLDER~1\AppData\Local\Temp\ccqxjBbT.s:26945  .debug_str:00000000000205fd .LASF3370
C:\Users\SOLDER~1\AppData\Local\Temp\ccqxjBbT.s:26305  .debug_str:000000000001dc39 .LASF3371
C:\Users\SOLDER~1\AppData\Local\Temp\ccqxjBbT.s:27419  .debug_str:0000000000022419 .LASF3372
C:\Users\SOLDER~1\AppData\Local\Temp\ccqxjBbT.s:28557  .debug_str:0000000000026f54 .LASF3373
C:\Users\SOLDER~1\AppData\Local\Temp\ccqxjBbT.s:29631  .debug_str:000000000002b4fd .LASF3374
C:\Users\SOLDER~1\AppData\Local\Temp\ccqxjBbT.s:22803  .debug_str:000000000000fa76 .LASF3375
C:\Users\SOLDER~1\AppData\Local\Temp\ccqxjBbT.s:27523  .debug_str:0000000000022b2c .LASF3376
C:\Users\SOLDER~1\AppData\Local\Temp\ccqxjBbT.s:28473  .debug_str:00000000000269cb .LASF3377
C:\Users\SOLDER~1\AppData\Local\Temp\ccqxjBbT.s:20421  .debug_str:0000000000005e4b .LASF3378
C:\Users\SOLDER~1\AppData\Local\Temp\ccqxjBbT.s:30263  .debug_str:000000000002de3a .LASF3379
C:\Users\SOLDER~1\AppData\Local\Temp\ccqxjBbT.s:27429  .debug_str:00000000000224bf .LASF3380
C:\Users\SOLDER~1\AppData\Local\Temp\ccqxjBbT.s:28905  .debug_str:00000000000285f8 .LASF3381
C:\Users\SOLDER~1\AppData\Local\Temp\ccqxjBbT.s:21699  .debug_str:000000000000b294 .LASF3382
C:\Users\SOLDER~1\AppData\Local\Temp\ccqxjBbT.s:23503  .debug_str:000000000001279a .LASF3383
C:\Users\SOLDER~1\AppData\Local\Temp\ccqxjBbT.s:26011  .debug_str:000000000001c97f .LASF3384
C:\Users\SOLDER~1\AppData\Local\Temp\ccqxjBbT.s:25369  .debug_str:0000000000019fc4 .LASF3385
C:\Users\SOLDER~1\AppData\Local\Temp\ccqxjBbT.s:23565  .debug_str:0000000000012b24 .LASF3386
C:\Users\SOLDER~1\AppData\Local\Temp\ccqxjBbT.s:26685  .debug_str:000000000001f56a .LASF3387
C:\Users\SOLDER~1\AppData\Local\Temp\ccqxjBbT.s:24783  .debug_str:0000000000017a97 .LASF3388
C:\Users\SOLDER~1\AppData\Local\Temp\ccqxjBbT.s:30313  .debug_str:000000000002e152 .LASF3389
C:\Users\SOLDER~1\AppData\Local\Temp\ccqxjBbT.s:25725  .debug_str:000000000001b6ba .LASF3390
C:\Users\SOLDER~1\AppData\Local\Temp\ccqxjBbT.s:25325  .debug_str:0000000000019d1f .LASF3391
C:\Users\SOLDER~1\AppData\Local\Temp\ccqxjBbT.s:29219  .debug_str:0000000000029a19 .LASF3392
C:\Users\SOLDER~1\AppData\Local\Temp\ccqxjBbT.s:24015  .debug_str:00000000000149d5 .LASF3393
C:\Users\SOLDER~1\AppData\Local\Temp\ccqxjBbT.s:29993  .debug_str:000000000002cc9e .LASF3394
C:\Users\SOLDER~1\AppData\Local\Temp\ccqxjBbT.s:24103  .debug_str:0000000000014fc5 .LASF3395
C:\Users\SOLDER~1\AppData\Local\Temp\ccqxjBbT.s:26449  .debug_str:000000000001e58e .LASF3396
C:\Users\SOLDER~1\AppData\Local\Temp\ccqxjBbT.s:30543  .debug_str:000000000002f01f .LASF3397
C:\Users\SOLDER~1\AppData\Local\Temp\ccqxjBbT.s:22613  .debug_str:000000000000ee57 .LASF3398
C:\Users\SOLDER~1\AppData\Local\Temp\ccqxjBbT.s:21145  .debug_str:0000000000008de4 .LASF3399
C:\Users\SOLDER~1\AppData\Local\Temp\ccqxjBbT.s:19281  .debug_str:000000000000158e .LASF3400
C:\Users\SOLDER~1\AppData\Local\Temp\ccqxjBbT.s:28181  .debug_str:00000000000255b2 .LASF3401
C:\Users\SOLDER~1\AppData\Local\Temp\ccqxjBbT.s:28305  .debug_str:0000000000025e48 .LASF3402
C:\Users\SOLDER~1\AppData\Local\Temp\ccqxjBbT.s:25377  .debug_str:000000000001a04f .LASF3403
C:\Users\SOLDER~1\AppData\Local\Temp\ccqxjBbT.s:22439  .debug_str:000000000000e340 .LASF3404
C:\Users\SOLDER~1\AppData\Local\Temp\ccqxjBbT.s:21455  .debug_str:000000000000a28d .LASF3405
C:\Users\SOLDER~1\AppData\Local\Temp\ccqxjBbT.s:24631  .debug_str:000000000001706c .LASF3406
C:\Users\SOLDER~1\AppData\Local\Temp\ccqxjBbT.s:24851  .debug_str:0000000000017eb1 .LASF3407
C:\Users\SOLDER~1\AppData\Local\Temp\ccqxjBbT.s:29317  .debug_str:000000000002a0be .LASF3408
C:\Users\SOLDER~1\AppData\Local\Temp\ccqxjBbT.s:24625  .debug_str:000000000001700c .LASF3409
C:\Users\SOLDER~1\AppData\Local\Temp\ccqxjBbT.s:28521  .debug_str:0000000000026ce4 .LASF3410
C:\Users\SOLDER~1\AppData\Local\Temp\ccqxjBbT.s:21703  .debug_str:000000000000b2ce .LASF3411
C:\Users\SOLDER~1\AppData\Local\Temp\ccqxjBbT.s:26467  .debug_str:000000000001e6e1 .LASF3412
C:\Users\SOLDER~1\AppData\Local\Temp\ccqxjBbT.s:30383  .debug_str:000000000002e5c1 .LASF3413
C:\Users\SOLDER~1\AppData\Local\Temp\ccqxjBbT.s:21331  .debug_str:0000000000009a5d .LASF3414
C:\Users\SOLDER~1\AppData\Local\Temp\ccqxjBbT.s:29167  .debug_str:00000000000296f2 .LASF3415
C:\Users\SOLDER~1\AppData\Local\Temp\ccqxjBbT.s:29909  .debug_str:000000000002c761 .LASF3416
C:\Users\SOLDER~1\AppData\Local\Temp\ccqxjBbT.s:19805  .debug_str:0000000000003767 .LASF3417
C:\Users\SOLDER~1\AppData\Local\Temp\ccqxjBbT.s:28629  .debug_str:0000000000027402 .LASF3418
C:\Users\SOLDER~1\AppData\Local\Temp\ccqxjBbT.s:27781  .debug_str:0000000000023bd9 .LASF3419
C:\Users\SOLDER~1\AppData\Local\Temp\ccqxjBbT.s:26037  .debug_str:000000000001cb60 .LASF3420
C:\Users\SOLDER~1\AppData\Local\Temp\ccqxjBbT.s:24291  .debug_str:0000000000015b63 .LASF3421
C:\Users\SOLDER~1\AppData\Local\Temp\ccqxjBbT.s:29375  .debug_str:000000000002a4b4 .LASF3422
C:\Users\SOLDER~1\AppData\Local\Temp\ccqxjBbT.s:20687  .debug_str:0000000000007058 .LASF3423
C:\Users\SOLDER~1\AppData\Local\Temp\ccqxjBbT.s:24113  .debug_str:0000000000015055 .LASF3424
C:\Users\SOLDER~1\AppData\Local\Temp\ccqxjBbT.s:23129  .debug_str:0000000000010f86 .LASF3425
GAS LISTING C:\Users\SOLDER~1\AppData\Local\Temp\ccqxjBbT.s 			page 78


C:\Users\SOLDER~1\AppData\Local\Temp\ccqxjBbT.s:22621  .debug_str:000000000000eee1 .LASF3426
C:\Users\SOLDER~1\AppData\Local\Temp\ccqxjBbT.s:27937  .debug_str:000000000002461a .LASF3427
C:\Users\SOLDER~1\AppData\Local\Temp\ccqxjBbT.s:28151  .debug_str:00000000000253d8 .LASF3428
C:\Users\SOLDER~1\AppData\Local\Temp\ccqxjBbT.s:23303  .debug_str:0000000000011add .LASF3429
C:\Users\SOLDER~1\AppData\Local\Temp\ccqxjBbT.s:29025  .debug_str:0000000000028dad .LASF3430
C:\Users\SOLDER~1\AppData\Local\Temp\ccqxjBbT.s:26377  .debug_str:000000000001e102 .LASF3431
C:\Users\SOLDER~1\AppData\Local\Temp\ccqxjBbT.s:26935  .debug_str:0000000000020565 .LASF3432
C:\Users\SOLDER~1\AppData\Local\Temp\ccqxjBbT.s:23493  .debug_str:00000000000126db .LASF3433
C:\Users\SOLDER~1\AppData\Local\Temp\ccqxjBbT.s:25355  .debug_str:0000000000019ecf .LASF3434
C:\Users\SOLDER~1\AppData\Local\Temp\ccqxjBbT.s:19869  .debug_str:0000000000003b94 .LASF3435
C:\Users\SOLDER~1\AppData\Local\Temp\ccqxjBbT.s:24689  .debug_str:000000000001743f .LASF3436
C:\Users\SOLDER~1\AppData\Local\Temp\ccqxjBbT.s:21169  .debug_str:0000000000008f90 .LASF3437
C:\Users\SOLDER~1\AppData\Local\Temp\ccqxjBbT.s:27035  .debug_str:0000000000020bda .LASF3438
C:\Users\SOLDER~1\AppData\Local\Temp\ccqxjBbT.s:29807  .debug_str:000000000002c0ca .LASF3439
C:\Users\SOLDER~1\AppData\Local\Temp\ccqxjBbT.s:23135  .debug_str:0000000000010ff3 .LASF3440
C:\Users\SOLDER~1\AppData\Local\Temp\ccqxjBbT.s:23823  .debug_str:0000000000013ce7 .LASF3441
C:\Users\SOLDER~1\AppData\Local\Temp\ccqxjBbT.s:26565  .debug_str:000000000001ed71 .LASF3442
C:\Users\SOLDER~1\AppData\Local\Temp\ccqxjBbT.s:29335  .debug_str:000000000002a218 .LASF3443
C:\Users\SOLDER~1\AppData\Local\Temp\ccqxjBbT.s:20531  .debug_str:00000000000065cd .LASF3444
C:\Users\SOLDER~1\AppData\Local\Temp\ccqxjBbT.s:23331  .debug_str:0000000000011c90 .LASF3445
C:\Users\SOLDER~1\AppData\Local\Temp\ccqxjBbT.s:21077  .debug_str:0000000000008947 .LASF3446
C:\Users\SOLDER~1\AppData\Local\Temp\ccqxjBbT.s:25837  .debug_str:000000000001bdcb .LASF3447
C:\Users\SOLDER~1\AppData\Local\Temp\ccqxjBbT.s:19023  .debug_str:0000000000000487 .LASF3448
C:\Users\SOLDER~1\AppData\Local\Temp\ccqxjBbT.s:21979  .debug_str:000000000000c46f .LASF3449
C:\Users\SOLDER~1\AppData\Local\Temp\ccqxjBbT.s:28493  .debug_str:0000000000026b2b .LASF3450
C:\Users\SOLDER~1\AppData\Local\Temp\ccqxjBbT.s:20489  .debug_str:0000000000006308 .LASF3451
C:\Users\SOLDER~1\AppData\Local\Temp\ccqxjBbT.s:26447  .debug_str:000000000001e564 .LASF3452
C:\Users\SOLDER~1\AppData\Local\Temp\ccqxjBbT.s:23957  .debug_str:000000000001460a .LASF3453
C:\Users\SOLDER~1\AppData\Local\Temp\ccqxjBbT.s:22127  .debug_str:000000000000cea5 .LASF3454
C:\Users\SOLDER~1\AppData\Local\Temp\ccqxjBbT.s:28539  .debug_str:0000000000026dff .LASF3455
C:\Users\SOLDER~1\AppData\Local\Temp\ccqxjBbT.s:30165  .debug_str:000000000002d7fb .LASF3456
C:\Users\SOLDER~1\AppData\Local\Temp\ccqxjBbT.s:24283  .debug_str:0000000000015ae3 .LASF3457
C:\Users\SOLDER~1\AppData\Local\Temp\ccqxjBbT.s:26593  .debug_str:000000000001ef41 .LASF3458
C:\Users\SOLDER~1\AppData\Local\Temp\ccqxjBbT.s:24857  .debug_str:0000000000017f1b .LASF3459
C:\Users\SOLDER~1\AppData\Local\Temp\ccqxjBbT.s:20051  .debug_str:000000000000471b .LASF3460
C:\Users\SOLDER~1\AppData\Local\Temp\ccqxjBbT.s:25119  .debug_str:0000000000019065 .LASF3461
C:\Users\SOLDER~1\AppData\Local\Temp\ccqxjBbT.s:19601  .debug_str:0000000000002a8a .LASF3462
C:\Users\SOLDER~1\AppData\Local\Temp\ccqxjBbT.s:29601  .debug_str:000000000002b32e .LASF3463
C:\Users\SOLDER~1\AppData\Local\Temp\ccqxjBbT.s:28807  .debug_str:0000000000027fb4 .LASF3464
C:\Users\SOLDER~1\AppData\Local\Temp\ccqxjBbT.s:30407  .debug_str:000000000002e739 .LASF3465
C:\Users\SOLDER~1\AppData\Local\Temp\ccqxjBbT.s:23313  .debug_str:0000000000011ba8 .LASF3466
C:\Users\SOLDER~1\AppData\Local\Temp\ccqxjBbT.s:28021  .debug_str:0000000000024bab .LASF3467
C:\Users\SOLDER~1\AppData\Local\Temp\ccqxjBbT.s:23411  .debug_str:00000000000121b3 .LASF3468
C:\Users\SOLDER~1\AppData\Local\Temp\ccqxjBbT.s:28841  .debug_str:000000000002820d .LASF3469
C:\Users\SOLDER~1\AppData\Local\Temp\ccqxjBbT.s:27339  .debug_str:0000000000021f4c .LASF3470
C:\Users\SOLDER~1\AppData\Local\Temp\ccqxjBbT.s:20303  .debug_str:0000000000005684 .LASF3471
C:\Users\SOLDER~1\AppData\Local\Temp\ccqxjBbT.s:22759  .debug_str:000000000000f767 .LASF3472
C:\Users\SOLDER~1\AppData\Local\Temp\ccqxjBbT.s:24647  .debug_str:0000000000017188 .LASF3473
C:\Users\SOLDER~1\AppData\Local\Temp\ccqxjBbT.s:24823  .debug_str:0000000000017d08 .LASF3474
C:\Users\SOLDER~1\AppData\Local\Temp\ccqxjBbT.s:22211  .debug_str:000000000000d439 .LASF3475
C:\Users\SOLDER~1\AppData\Local\Temp\ccqxjBbT.s:24953  .debug_str:000000000001856a .LASF3476
C:\Users\SOLDER~1\AppData\Local\Temp\ccqxjBbT.s:29685  .debug_str:000000000002b88b .LASF3477
C:\Users\SOLDER~1\AppData\Local\Temp\ccqxjBbT.s:26519  .debug_str:000000000001ea87 .LASF3478
C:\Users\SOLDER~1\AppData\Local\Temp\ccqxjBbT.s:19853  .debug_str:0000000000003a93 .LASF3479
C:\Users\SOLDER~1\AppData\Local\Temp\ccqxjBbT.s:20535  .debug_str:0000000000006619 .LASF3480
C:\Users\SOLDER~1\AppData\Local\Temp\ccqxjBbT.s:23801  .debug_str:0000000000013b21 .LASF3481
C:\Users\SOLDER~1\AppData\Local\Temp\ccqxjBbT.s:22093  .debug_str:000000000000cc6b .LASF3482
GAS LISTING C:\Users\SOLDER~1\AppData\Local\Temp\ccqxjBbT.s 			page 79


C:\Users\SOLDER~1\AppData\Local\Temp\ccqxjBbT.s:23909  .debug_str:00000000000142a4 .LASF3483
C:\Users\SOLDER~1\AppData\Local\Temp\ccqxjBbT.s:20799  .debug_str:000000000000776a .LASF3484
C:\Users\SOLDER~1\AppData\Local\Temp\ccqxjBbT.s:21141  .debug_str:0000000000008d9f .LASF3485
C:\Users\SOLDER~1\AppData\Local\Temp\ccqxjBbT.s:20747  .debug_str:0000000000007448 .LASF3486
C:\Users\SOLDER~1\AppData\Local\Temp\ccqxjBbT.s:26575  .debug_str:000000000001ee16 .LASF3487
C:\Users\SOLDER~1\AppData\Local\Temp\ccqxjBbT.s:29597  .debug_str:000000000002b2f1 .LASF3488
C:\Users\SOLDER~1\AppData\Local\Temp\ccqxjBbT.s:19705  .debug_str:0000000000003103 .LASF3489
C:\Users\SOLDER~1\AppData\Local\Temp\ccqxjBbT.s:27357  .debug_str:000000000002205d .LASF3490
C:\Users\SOLDER~1\AppData\Local\Temp\ccqxjBbT.s:23787  .debug_str:0000000000013a15 .LASF3491
C:\Users\SOLDER~1\AppData\Local\Temp\ccqxjBbT.s:20919  .debug_str:0000000000007f34 .LASF3492
C:\Users\SOLDER~1\AppData\Local\Temp\ccqxjBbT.s:19685  .debug_str:0000000000002fda .LASF3493
C:\Users\SOLDER~1\AppData\Local\Temp\ccqxjBbT.s:28895  .debug_str:000000000002855c .LASF3494
C:\Users\SOLDER~1\AppData\Local\Temp\ccqxjBbT.s:25045  .debug_str:0000000000018b5d .LASF3495
C:\Users\SOLDER~1\AppData\Local\Temp\ccqxjBbT.s:26411  .debug_str:000000000001e328 .LASF3496
C:\Users\SOLDER~1\AppData\Local\Temp\ccqxjBbT.s:23701  .debug_str:0000000000013441 .LASF3497
C:\Users\SOLDER~1\AppData\Local\Temp\ccqxjBbT.s:25939  .debug_str:000000000001c4bf .LASF3498
C:\Users\SOLDER~1\AppData\Local\Temp\ccqxjBbT.s:22461  .debug_str:000000000000e4b4 .LASF3499
C:\Users\SOLDER~1\AppData\Local\Temp\ccqxjBbT.s:21909  .debug_str:000000000000bf88 .LASF3500
C:\Users\SOLDER~1\AppData\Local\Temp\ccqxjBbT.s:27001  .debug_str:00000000000209b5 .LASF3501
C:\Users\SOLDER~1\AppData\Local\Temp\ccqxjBbT.s:29507  .debug_str:000000000002acf4 .LASF3502
C:\Users\SOLDER~1\AppData\Local\Temp\ccqxjBbT.s:28579  .debug_str:00000000000270a8 .LASF3503
C:\Users\SOLDER~1\AppData\Local\Temp\ccqxjBbT.s:20661  .debug_str:0000000000006e76 .LASF3504
C:\Users\SOLDER~1\AppData\Local\Temp\ccqxjBbT.s:25037  .debug_str:0000000000018acf .LASF3505
C:\Users\SOLDER~1\AppData\Local\Temp\ccqxjBbT.s:24415  .debug_str:0000000000016318 .LASF3506
C:\Users\SOLDER~1\AppData\Local\Temp\ccqxjBbT.s:20267  .debug_str:0000000000005456 .LASF3507
C:\Users\SOLDER~1\AppData\Local\Temp\ccqxjBbT.s:19623  .debug_str:0000000000002bc5 .LASF3508
C:\Users\SOLDER~1\AppData\Local\Temp\ccqxjBbT.s:21605  .debug_str:000000000000ac9f .LASF3509
C:\Users\SOLDER~1\AppData\Local\Temp\ccqxjBbT.s:27757  .debug_str:0000000000023a57 .LASF3510
C:\Users\SOLDER~1\AppData\Local\Temp\ccqxjBbT.s:30455  .debug_str:000000000002ea8e .LASF3511
C:\Users\SOLDER~1\AppData\Local\Temp\ccqxjBbT.s:28049  .debug_str:0000000000024d85 .LASF3512
C:\Users\SOLDER~1\AppData\Local\Temp\ccqxjBbT.s:23385  .debug_str:0000000000011ffa .LASF3513
C:\Users\SOLDER~1\AppData\Local\Temp\ccqxjBbT.s:28873  .debug_str:00000000000283ff .LASF3514
C:\Users\SOLDER~1\AppData\Local\Temp\ccqxjBbT.s:20981  .debug_str:0000000000008327 .LASF3515
C:\Users\SOLDER~1\AppData\Local\Temp\ccqxjBbT.s:26009  .debug_str:000000000001c966 .LASF3516
C:\Users\SOLDER~1\AppData\Local\Temp\ccqxjBbT.s:28615  .debug_str:000000000002730e .LASF3517
C:\Users\SOLDER~1\AppData\Local\Temp\ccqxjBbT.s:29841  .debug_str:000000000002c31d .LASF3518
C:\Users\SOLDER~1\AppData\Local\Temp\ccqxjBbT.s:22593  .debug_str:000000000000ed02 .LASF3519
C:\Users\SOLDER~1\AppData\Local\Temp\ccqxjBbT.s:30253  .debug_str:000000000002dda7 .LASF3520
C:\Users\SOLDER~1\AppData\Local\Temp\ccqxjBbT.s:26505  .debug_str:000000000001e998 .LASF3521
C:\Users\SOLDER~1\AppData\Local\Temp\ccqxjBbT.s:28395  .debug_str:00000000000264a2 .LASF3522
C:\Users\SOLDER~1\AppData\Local\Temp\ccqxjBbT.s:20409  .debug_str:0000000000005d94 .LASF3523
C:\Users\SOLDER~1\AppData\Local\Temp\ccqxjBbT.s:29047  .debug_str:0000000000028efb .LASF3524
C:\Users\SOLDER~1\AppData\Local\Temp\ccqxjBbT.s:25367  .debug_str:0000000000019fa1 .LASF3525
C:\Users\SOLDER~1\AppData\Local\Temp\ccqxjBbT.s:24653  .debug_str:00000000000171fa .LASF3526
C:\Users\SOLDER~1\AppData\Local\Temp\ccqxjBbT.s:29411  .debug_str:000000000002a71c .LASF3527
C:\Users\SOLDER~1\AppData\Local\Temp\ccqxjBbT.s:24375  .debug_str:0000000000016086 .LASF3528
C:\Users\SOLDER~1\AppData\Local\Temp\ccqxjBbT.s:25675  .debug_str:000000000001b379 .LASF3529
C:\Users\SOLDER~1\AppData\Local\Temp\ccqxjBbT.s:20809  .debug_str:00000000000077ea .LASF3530
C:\Users\SOLDER~1\AppData\Local\Temp\ccqxjBbT.s:24359  .debug_str:0000000000015f8b .LASF3531
C:\Users\SOLDER~1\AppData\Local\Temp\ccqxjBbT.s:19619  .debug_str:0000000000002b91 .LASF3532
C:\Users\SOLDER~1\AppData\Local\Temp\ccqxjBbT.s:24667  .debug_str:00000000000172f1 .LASF3533
C:\Users\SOLDER~1\AppData\Local\Temp\ccqxjBbT.s:29103  .debug_str:00000000000292b1 .LASF3534
C:\Users\SOLDER~1\AppData\Local\Temp\ccqxjBbT.s:19319  .debug_str:00000000000017fa .LASF3535
C:\Users\SOLDER~1\AppData\Local\Temp\ccqxjBbT.s:29875  .debug_str:000000000002c52e .LASF3536
C:\Users\SOLDER~1\AppData\Local\Temp\ccqxjBbT.s:24693  .debug_str:0000000000017494 .LASF3537
C:\Users\SOLDER~1\AppData\Local\Temp\ccqxjBbT.s:26351  .debug_str:000000000001df79 .LASF3538
C:\Users\SOLDER~1\AppData\Local\Temp\ccqxjBbT.s:22373  .debug_str:000000000000de7a .LASF3539
GAS LISTING C:\Users\SOLDER~1\AppData\Local\Temp\ccqxjBbT.s 			page 80


C:\Users\SOLDER~1\AppData\Local\Temp\ccqxjBbT.s:29627  .debug_str:000000000002b4c2 .LASF3540
C:\Users\SOLDER~1\AppData\Local\Temp\ccqxjBbT.s:22805  .debug_str:000000000000fa9f .LASF3541
C:\Users\SOLDER~1\AppData\Local\Temp\ccqxjBbT.s:27137  .debug_str:000000000002129a .LASF3542
C:\Users\SOLDER~1\AppData\Local\Temp\ccqxjBbT.s:20015  .debug_str:00000000000044c2 .LASF3543
C:\Users\SOLDER~1\AppData\Local\Temp\ccqxjBbT.s:23077  .debug_str:0000000000010c4e .LASF3544
C:\Users\SOLDER~1\AppData\Local\Temp\ccqxjBbT.s:19613  .debug_str:0000000000002b47 .LASF3545
C:\Users\SOLDER~1\AppData\Local\Temp\ccqxjBbT.s:24323  .debug_str:0000000000015d5b .LASF3546
C:\Users\SOLDER~1\AppData\Local\Temp\ccqxjBbT.s:25927  .debug_str:000000000001c3f1 .LASF3547
C:\Users\SOLDER~1\AppData\Local\Temp\ccqxjBbT.s:19001  .debug_str:000000000000032a .LASF3548
C:\Users\SOLDER~1\AppData\Local\Temp\ccqxjBbT.s:22667  .debug_str:000000000000f1bf .LASF3549
C:\Users\SOLDER~1\AppData\Local\Temp\ccqxjBbT.s:27411  .debug_str:0000000000022392 .LASF3550
C:\Users\SOLDER~1\AppData\Local\Temp\ccqxjBbT.s:30195  .debug_str:000000000002d9e3 .LASF3551
C:\Users\SOLDER~1\AppData\Local\Temp\ccqxjBbT.s:27209  .debug_str:0000000000021733 .LASF3552
C:\Users\SOLDER~1\AppData\Local\Temp\ccqxjBbT.s:20519  .debug_str:0000000000006507 .LASF3553
C:\Users\SOLDER~1\AppData\Local\Temp\ccqxjBbT.s:20383  .debug_str:0000000000005bf7 .LASF3554
C:\Users\SOLDER~1\AppData\Local\Temp\ccqxjBbT.s:22067  .debug_str:000000000000caa8 .LASF3555
C:\Users\SOLDER~1\AppData\Local\Temp\ccqxjBbT.s:19171  .debug_str:0000000000000f21 .LASF3556
C:\Users\SOLDER~1\AppData\Local\Temp\ccqxjBbT.s:22895  .debug_str:0000000000010099 .LASF3557
C:\Users\SOLDER~1\AppData\Local\Temp\ccqxjBbT.s:20613  .debug_str:0000000000006b55 .LASF3558
C:\Users\SOLDER~1\AppData\Local\Temp\ccqxjBbT.s:20197  .debug_str:0000000000005017 .LASF3559
C:\Users\SOLDER~1\AppData\Local\Temp\ccqxjBbT.s:19377  .debug_str:0000000000001bc5 .LASF3560
C:\Users\SOLDER~1\AppData\Local\Temp\ccqxjBbT.s:28123  .debug_str:000000000002521d .LASF3561
C:\Users\SOLDER~1\AppData\Local\Temp\ccqxjBbT.s:19157  .debug_str:0000000000000e60 .LASF3562
C:\Users\SOLDER~1\AppData\Local\Temp\ccqxjBbT.s:25495  .debug_str:000000000001a807 .LASF3563
C:\Users\SOLDER~1\AppData\Local\Temp\ccqxjBbT.s:22683  .debug_str:000000000000f2c4 .LASF3564
C:\Users\SOLDER~1\AppData\Local\Temp\ccqxjBbT.s:19485  .debug_str:00000000000022ec .LASF3565
C:\Users\SOLDER~1\AppData\Local\Temp\ccqxjBbT.s:20249  .debug_str:000000000000535f .LASF3566
C:\Users\SOLDER~1\AppData\Local\Temp\ccqxjBbT.s:22571  .debug_str:000000000000ebb8 .LASF3567
C:\Users\SOLDER~1\AppData\Local\Temp\ccqxjBbT.s:23455  .debug_str:0000000000012478 .LASF3568
C:\Users\SOLDER~1\AppData\Local\Temp\ccqxjBbT.s:29973  .debug_str:000000000002cb52 .LASF3569
C:\Users\SOLDER~1\AppData\Local\Temp\ccqxjBbT.s:24371  .debug_str:000000000001604e .LASF3570
C:\Users\SOLDER~1\AppData\Local\Temp\ccqxjBbT.s:25799  .debug_str:000000000001bb48 .LASF3571
C:\Users\SOLDER~1\AppData\Local\Temp\ccqxjBbT.s:26541  .debug_str:000000000001ebe7 .LASF3572
C:\Users\SOLDER~1\AppData\Local\Temp\ccqxjBbT.s:19581  .debug_str:0000000000002963 .LASF3573
C:\Users\SOLDER~1\AppData\Local\Temp\ccqxjBbT.s:24579  .debug_str:0000000000016d1a .LASF3574
C:\Users\SOLDER~1\AppData\Local\Temp\ccqxjBbT.s:23405  .debug_str:0000000000012154 .LASF3575
C:\Users\SOLDER~1\AppData\Local\Temp\ccqxjBbT.s:29647  .debug_str:000000000002b62b .LASF3576
C:\Users\SOLDER~1\AppData\Local\Temp\ccqxjBbT.s:26937  .debug_str:000000000002058f .LASF3577
C:\Users\SOLDER~1\AppData\Local\Temp\ccqxjBbT.s:19537  .debug_str:0000000000002638 .LASF3578
C:\Users\SOLDER~1\AppData\Local\Temp\ccqxjBbT.s:25105  .debug_str:0000000000018f6c .LASF3579
C:\Users\SOLDER~1\AppData\Local\Temp\ccqxjBbT.s:22991  .debug_str:00000000000106c8 .LASF3580
C:\Users\SOLDER~1\AppData\Local\Temp\ccqxjBbT.s:22259  .debug_str:000000000000d74b .LASF3581
C:\Users\SOLDER~1\AppData\Local\Temp\ccqxjBbT.s:28419  .debug_str:0000000000026618 .LASF3582
C:\Users\SOLDER~1\AppData\Local\Temp\ccqxjBbT.s:29897  .debug_str:000000000002c694 .LASF3583
C:\Users\SOLDER~1\AppData\Local\Temp\ccqxjBbT.s:22655  .debug_str:000000000000f107 .LASF3584
C:\Users\SOLDER~1\AppData\Local\Temp\ccqxjBbT.s:27717  .debug_str:00000000000237da .LASF3585
C:\Users\SOLDER~1\AppData\Local\Temp\ccqxjBbT.s:30301  .debug_str:000000000002e09d .LASF3586
C:\Users\SOLDER~1\AppData\Local\Temp\ccqxjBbT.s:20049  .debug_str:00000000000046fa .LASF3587
C:\Users\SOLDER~1\AppData\Local\Temp\ccqxjBbT.s:24449  .debug_str:000000000001653d .LASF3588
C:\Users\SOLDER~1\AppData\Local\Temp\ccqxjBbT.s:24791  .debug_str:0000000000017b10 .LASF3589
C:\Users\SOLDER~1\AppData\Local\Temp\ccqxjBbT.s:19589  .debug_str:00000000000029e4 .LASF3590
C:\Users\SOLDER~1\AppData\Local\Temp\ccqxjBbT.s:20901  .debug_str:0000000000007df3 .LASF3591
C:\Users\SOLDER~1\AppData\Local\Temp\ccqxjBbT.s:19029  .debug_str:00000000000004fb .LASF3592
C:\Users\SOLDER~1\AppData\Local\Temp\ccqxjBbT.s:27387  .debug_str:00000000000221f9 .LASF3593
C:\Users\SOLDER~1\AppData\Local\Temp\ccqxjBbT.s:22817  .debug_str:000000000000fb75 .LASF3594
C:\Users\SOLDER~1\AppData\Local\Temp\ccqxjBbT.s:28217  .debug_str:000000000002584c .LASF3595
C:\Users\SOLDER~1\AppData\Local\Temp\ccqxjBbT.s:27777  .debug_str:0000000000023b99 .LASF3596
GAS LISTING C:\Users\SOLDER~1\AppData\Local\Temp\ccqxjBbT.s 			page 81


C:\Users\SOLDER~1\AppData\Local\Temp\ccqxjBbT.s:30355  .debug_str:000000000002e3f3 .LASF3597
C:\Users\SOLDER~1\AppData\Local\Temp\ccqxjBbT.s:21553  .debug_str:000000000000a91c .LASF3598
C:\Users\SOLDER~1\AppData\Local\Temp\ccqxjBbT.s:22583  .debug_str:000000000000ec66 .LASF3599
C:\Users\SOLDER~1\AppData\Local\Temp\ccqxjBbT.s:23279  .debug_str:0000000000011961 .LASF3600
C:\Users\SOLDER~1\AppData\Local\Temp\ccqxjBbT.s:19769  .debug_str:0000000000003538 .LASF3601
C:\Users\SOLDER~1\AppData\Local\Temp\ccqxjBbT.s:28195  .debug_str:00000000000256a6 .LASF3602
C:\Users\SOLDER~1\AppData\Local\Temp\ccqxjBbT.s:25781  .debug_str:000000000001b9f6 .LASF3603
C:\Users\SOLDER~1\AppData\Local\Temp\ccqxjBbT.s:29621  .debug_str:000000000002b45e .LASF3604
C:\Users\SOLDER~1\AppData\Local\Temp\ccqxjBbT.s:22105  .debug_str:000000000000cd34 .LASF3605
C:\Users\SOLDER~1\AppData\Local\Temp\ccqxjBbT.s:19061  .debug_str:000000000000079b .LASF3606
C:\Users\SOLDER~1\AppData\Local\Temp\ccqxjBbT.s:29321  .debug_str:000000000002a121 .LASF3607
C:\Users\SOLDER~1\AppData\Local\Temp\ccqxjBbT.s:25731  .debug_str:000000000001b712 .LASF3608
C:\Users\SOLDER~1\AppData\Local\Temp\ccqxjBbT.s:23281  .debug_str:0000000000011982 .LASF3609
C:\Users\SOLDER~1\AppData\Local\Temp\ccqxjBbT.s:26697  .debug_str:000000000001f665 .LASF3610
C:\Users\SOLDER~1\AppData\Local\Temp\ccqxjBbT.s:27999  .debug_str:0000000000024a2e .LASF3611
C:\Users\SOLDER~1\AppData\Local\Temp\ccqxjBbT.s:25597  .debug_str:000000000001aee5 .LASF3612
C:\Users\SOLDER~1\AppData\Local\Temp\ccqxjBbT.s:22021  .debug_str:000000000000c763 .LASF3613
C:\Users\SOLDER~1\AppData\Local\Temp\ccqxjBbT.s:25747  .debug_str:000000000001b7f1 .LASF3614
C:\Users\SOLDER~1\AppData\Local\Temp\ccqxjBbT.s:29893  .debug_str:000000000002c64e .LASF3615
C:\Users\SOLDER~1\AppData\Local\Temp\ccqxjBbT.s:22849  .debug_str:000000000000fdbb .LASF3616
C:\Users\SOLDER~1\AppData\Local\Temp\ccqxjBbT.s:29215  .debug_str:00000000000299bf .LASF3617
C:\Users\SOLDER~1\AppData\Local\Temp\ccqxjBbT.s:19315  .debug_str:00000000000017cf .LASF3618
C:\Users\SOLDER~1\AppData\Local\Temp\ccqxjBbT.s:21091  .debug_str:0000000000008a48 .LASF3619
C:\Users\SOLDER~1\AppData\Local\Temp\ccqxjBbT.s:27807  .debug_str:0000000000023da5 .LASF3620
C:\Users\SOLDER~1\AppData\Local\Temp\ccqxjBbT.s:27189  .debug_str:00000000000215eb .LASF3621
C:\Users\SOLDER~1\AppData\Local\Temp\ccqxjBbT.s:27709  .debug_str:000000000002376b .LASF3622
C:\Users\SOLDER~1\AppData\Local\Temp\ccqxjBbT.s:28985  .debug_str:0000000000028b3e .LASF3623
C:\Users\SOLDER~1\AppData\Local\Temp\ccqxjBbT.s:28039  .debug_str:0000000000024cd9 .LASF3624
C:\Users\SOLDER~1\AppData\Local\Temp\ccqxjBbT.s:30109  .debug_str:000000000002d476 .LASF3625
C:\Users\SOLDER~1\AppData\Local\Temp\ccqxjBbT.s:24635  .debug_str:00000000000170ba .LASF3626
C:\Users\SOLDER~1\AppData\Local\Temp\ccqxjBbT.s:29097  .debug_str:0000000000029243 .LASF3627
C:\Users\SOLDER~1\AppData\Local\Temp\ccqxjBbT.s:25775  .debug_str:000000000001b9a0 .LASF3628
C:\Users\SOLDER~1\AppData\Local\Temp\ccqxjBbT.s:25665  .debug_str:000000000001b2e4 .LASF3629
C:\Users\SOLDER~1\AppData\Local\Temp\ccqxjBbT.s:19927  .debug_str:0000000000003f3d .LASF3630
C:\Users\SOLDER~1\AppData\Local\Temp\ccqxjBbT.s:27823  .debug_str:0000000000023ea1 .LASF3631
C:\Users\SOLDER~1\AppData\Local\Temp\ccqxjBbT.s:27197  .debug_str:0000000000021671 .LASF3632
C:\Users\SOLDER~1\AppData\Local\Temp\ccqxjBbT.s:29567  .debug_str:000000000002b0fc .LASF3633
C:\Users\SOLDER~1\AppData\Local\Temp\ccqxjBbT.s:25553  .debug_str:000000000001abc6 .LASF3634
C:\Users\SOLDER~1\AppData\Local\Temp\ccqxjBbT.s:28869  .debug_str:00000000000283c4 .LASF3635
C:\Users\SOLDER~1\AppData\Local\Temp\ccqxjBbT.s:22961  .debug_str:00000000000104ee .LASF3636
C:\Users\SOLDER~1\AppData\Local\Temp\ccqxjBbT.s:29175  .debug_str:000000000002976b .LASF3637
C:\Users\SOLDER~1\AppData\Local\Temp\ccqxjBbT.s:27247  .debug_str:0000000000021999 .LASF3638
C:\Users\SOLDER~1\AppData\Local\Temp\ccqxjBbT.s:24657  .debug_str:0000000000017238 .LASF3639
C:\Users\SOLDER~1\AppData\Local\Temp\ccqxjBbT.s:27475  .debug_str:00000000000227df .LASF3640
C:\Users\SOLDER~1\AppData\Local\Temp\ccqxjBbT.s:24789  .debug_str:0000000000017af0 .LASF3641
C:\Users\SOLDER~1\AppData\Local\Temp\ccqxjBbT.s:27527  .debug_str:0000000000022b75 .LASF3642
C:\Users\SOLDER~1\AppData\Local\Temp\ccqxjBbT.s:22771  .debug_str:000000000000f823 .LASF3643
C:\Users\SOLDER~1\AppData\Local\Temp\ccqxjBbT.s:26861  .debug_str:00000000000200a0 .LASF3644
C:\Users\SOLDER~1\AppData\Local\Temp\ccqxjBbT.s:23295  .debug_str:0000000000011a61 .LASF3645
C:\Users\SOLDER~1\AppData\Local\Temp\ccqxjBbT.s:29203  .debug_str:000000000002990a .LASF3646
C:\Users\SOLDER~1\AppData\Local\Temp\ccqxjBbT.s:27541  .debug_str:0000000000022c74 .LASF3647
C:\Users\SOLDER~1\AppData\Local\Temp\ccqxjBbT.s:27711  .debug_str:0000000000023780 .LASF3648
C:\Users\SOLDER~1\AppData\Local\Temp\ccqxjBbT.s:29237  .debug_str:0000000000029b4c .LASF3649
C:\Users\SOLDER~1\AppData\Local\Temp\ccqxjBbT.s:28055  .debug_str:0000000000024ded .LASF3650
C:\Users\SOLDER~1\AppData\Local\Temp\ccqxjBbT.s:29409  .debug_str:000000000002a6f9 .LASF3651
C:\Users\SOLDER~1\AppData\Local\Temp\ccqxjBbT.s:29901  .debug_str:000000000002c6e1 .LASF3652
C:\Users\SOLDER~1\AppData\Local\Temp\ccqxjBbT.s:20583  .debug_str:0000000000006986 .LASF3653
GAS LISTING C:\Users\SOLDER~1\AppData\Local\Temp\ccqxjBbT.s 			page 82


C:\Users\SOLDER~1\AppData\Local\Temp\ccqxjBbT.s:19009  .debug_str:00000000000003a8 .LASF3654
C:\Users\SOLDER~1\AppData\Local\Temp\ccqxjBbT.s:26611  .debug_str:000000000001f06e .LASF3655
C:\Users\SOLDER~1\AppData\Local\Temp\ccqxjBbT.s:21261  .debug_str:00000000000095e4 .LASF3656
C:\Users\SOLDER~1\AppData\Local\Temp\ccqxjBbT.s:24331  .debug_str:0000000000015dd2 .LASF3657
C:\Users\SOLDER~1\AppData\Local\Temp\ccqxjBbT.s:19135  .debug_str:0000000000000cde .LASF3658
C:\Users\SOLDER~1\AppData\Local\Temp\ccqxjBbT.s:30065  .debug_str:000000000002d1a2 .LASF3659
C:\Users\SOLDER~1\AppData\Local\Temp\ccqxjBbT.s:25183  .debug_str:0000000000019464 .LASF3660
C:\Users\SOLDER~1\AppData\Local\Temp\ccqxjBbT.s:30175  .debug_str:000000000002d8ad .LASF3661
C:\Users\SOLDER~1\AppData\Local\Temp\ccqxjBbT.s:28621  .debug_str:000000000002737e .LASF3662
C:\Users\SOLDER~1\AppData\Local\Temp\ccqxjBbT.s:21315  .debug_str:0000000000009967 .LASF3663
C:\Users\SOLDER~1\AppData\Local\Temp\ccqxjBbT.s:27801  .debug_str:0000000000023d3a .LASF3664
C:\Users\SOLDER~1\AppData\Local\Temp\ccqxjBbT.s:29951  .debug_str:000000000002ca0a .LASF3665
C:\Users\SOLDER~1\AppData\Local\Temp\ccqxjBbT.s:20491  .debug_str:0000000000006332 .LASF3666
C:\Users\SOLDER~1\AppData\Local\Temp\ccqxjBbT.s:25669  .debug_str:000000000001b32b .LASF3667
C:\Users\SOLDER~1\AppData\Local\Temp\ccqxjBbT.s:20431  .debug_str:0000000000005ef7 .LASF3668
C:\Users\SOLDER~1\AppData\Local\Temp\ccqxjBbT.s:29137  .debug_str:0000000000029509 .LASF3669
C:\Users\SOLDER~1\AppData\Local\Temp\ccqxjBbT.s:20139  .debug_str:0000000000004caf .LASF3670
C:\Users\SOLDER~1\AppData\Local\Temp\ccqxjBbT.s:19683  .debug_str:0000000000002fb7 .LASF3671
C:\Users\SOLDER~1\AppData\Local\Temp\ccqxjBbT.s:28481  .debug_str:0000000000026a5b .LASF3672
C:\Users\SOLDER~1\AppData\Local\Temp\ccqxjBbT.s:23729  .debug_str:0000000000013636 .LASF3673
C:\Users\SOLDER~1\AppData\Local\Temp\ccqxjBbT.s:24941  .debug_str:00000000000184a3 .LASF3674
C:\Users\SOLDER~1\AppData\Local\Temp\ccqxjBbT.s:22543  .debug_str:000000000000ea02 .LASF3675
C:\Users\SOLDER~1\AppData\Local\Temp\ccqxjBbT.s:22807  .debug_str:000000000000fabf .LASF3676
C:\Users\SOLDER~1\AppData\Local\Temp\ccqxjBbT.s:27379  .debug_str:0000000000022197 .LASF3677
C:\Users\SOLDER~1\AppData\Local\Temp\ccqxjBbT.s:28461  .debug_str:00000000000268eb .LASF3678
C:\Users\SOLDER~1\AppData\Local\Temp\ccqxjBbT.s:25397  .debug_str:000000000001a18a .LASF3679
C:\Users\SOLDER~1\AppData\Local\Temp\ccqxjBbT.s:25417  .debug_str:000000000001a2c6 .LASF3680
C:\Users\SOLDER~1\AppData\Local\Temp\ccqxjBbT.s:21437  .debug_str:000000000000a14b .LASF3681
C:\Users\SOLDER~1\AppData\Local\Temp\ccqxjBbT.s:23181  .debug_str:000000000001131a .LASF3682
C:\Users\SOLDER~1\AppData\Local\Temp\ccqxjBbT.s:27499  .debug_str:000000000002298f .LASF3683
C:\Users\SOLDER~1\AppData\Local\Temp\ccqxjBbT.s:25431  .debug_str:000000000001a3d1 .LASF3684
C:\Users\SOLDER~1\AppData\Local\Temp\ccqxjBbT.s:27727  .debug_str:000000000002388c .LASF3685
C:\Users\SOLDER~1\AppData\Local\Temp\ccqxjBbT.s:29091  .debug_str:00000000000291da .LASF3686
C:\Users\SOLDER~1\AppData\Local\Temp\ccqxjBbT.s:29885  .debug_str:000000000002c5dd .LASF3687
C:\Users\SOLDER~1\AppData\Local\Temp\ccqxjBbT.s:24549  .debug_str:0000000000016b6e .LASF3688
C:\Users\SOLDER~1\AppData\Local\Temp\ccqxjBbT.s:29569  .debug_str:000000000002b11d .LASF3689
C:\Users\SOLDER~1\AppData\Local\Temp\ccqxjBbT.s:23309  .debug_str:0000000000011b51 .LASF3690
C:\Users\SOLDER~1\AppData\Local\Temp\ccqxjBbT.s:27171  .debug_str:00000000000214ad .LASF3691
C:\Users\SOLDER~1\AppData\Local\Temp\ccqxjBbT.s:23105  .debug_str:0000000000010df9 .LASF3692
C:\Users\SOLDER~1\AppData\Local\Temp\ccqxjBbT.s:30459  .debug_str:000000000002ead9 .LASF3693
C:\Users\SOLDER~1\AppData\Local\Temp\ccqxjBbT.s:27187  .debug_str:00000000000215c4 .LASF3694
C:\Users\SOLDER~1\AppData\Local\Temp\ccqxjBbT.s:21099  .debug_str:0000000000008acb .LASF3695
C:\Users\SOLDER~1\AppData\Local\Temp\ccqxjBbT.s:27177  .debug_str:000000000002151f .LASF3696
C:\Users\SOLDER~1\AppData\Local\Temp\ccqxjBbT.s:24147  .debug_str:000000000001525b .LASF3697
C:\Users\SOLDER~1\AppData\Local\Temp\ccqxjBbT.s:20363  .debug_str:0000000000005ab7 .LASF3698
C:\Users\SOLDER~1\AppData\Local\Temp\ccqxjBbT.s:22001  .debug_str:000000000000c609 .LASF3699
C:\Users\SOLDER~1\AppData\Local\Temp\ccqxjBbT.s:29029  .debug_str:0000000000028df3 .LASF3700
C:\Users\SOLDER~1\AppData\Local\Temp\ccqxjBbT.s:24053  .debug_str:0000000000014c7d .LASF3701
C:\Users\SOLDER~1\AppData\Local\Temp\ccqxjBbT.s:21295  .debug_str:00000000000097f9 .LASF3702
C:\Users\SOLDER~1\AppData\Local\Temp\ccqxjBbT.s:21883  .debug_str:000000000000bdce .LASF3703
C:\Users\SOLDER~1\AppData\Local\Temp\ccqxjBbT.s:25451  .debug_str:000000000001a4ef .LASF3704
C:\Users\SOLDER~1\AppData\Local\Temp\ccqxjBbT.s:22789  .debug_str:000000000000f99b .LASF3705
C:\Users\SOLDER~1\AppData\Local\Temp\ccqxjBbT.s:26373  .debug_str:000000000001e0ba .LASF3706
C:\Users\SOLDER~1\AppData\Local\Temp\ccqxjBbT.s:19427  .debug_str:0000000000001f0f .LASF3707
C:\Users\SOLDER~1\AppData\Local\Temp\ccqxjBbT.s:23045  .debug_str:0000000000010a4c .LASF3708
C:\Users\SOLDER~1\AppData\Local\Temp\ccqxjBbT.s:22491  .debug_str:000000000000e677 .LASF3709
C:\Users\SOLDER~1\AppData\Local\Temp\ccqxjBbT.s:19777  .debug_str:000000000000359b .LASF3710
GAS LISTING C:\Users\SOLDER~1\AppData\Local\Temp\ccqxjBbT.s 			page 83


C:\Users\SOLDER~1\AppData\Local\Temp\ccqxjBbT.s:28617  .debug_str:0000000000027331 .LASF3711
C:\Users\SOLDER~1\AppData\Local\Temp\ccqxjBbT.s:27945  .debug_str:00000000000246a1 .LASF3712
C:\Users\SOLDER~1\AppData\Local\Temp\ccqxjBbT.s:22161  .debug_str:000000000000d0fc .LASF3713
C:\Users\SOLDER~1\AppData\Local\Temp\ccqxjBbT.s:19511  .debug_str:00000000000024a4 .LASF3714
C:\Users\SOLDER~1\AppData\Local\Temp\ccqxjBbT.s:28191  .debug_str:000000000002565d .LASF3715
C:\Users\SOLDER~1\AppData\Local\Temp\ccqxjBbT.s:19709  .debug_str:0000000000003149 .LASF3716
C:\Users\SOLDER~1\AppData\Local\Temp\ccqxjBbT.s:19445  .debug_str:0000000000002036 .LASF3717
C:\Users\SOLDER~1\AppData\Local\Temp\ccqxjBbT.s:28281  .debug_str:0000000000025ca9 .LASF3718
C:\Users\SOLDER~1\AppData\Local\Temp\ccqxjBbT.s:28665  .debug_str:0000000000027660 .LASF3719
C:\Users\SOLDER~1\AppData\Local\Temp\ccqxjBbT.s:29135  .debug_str:00000000000294e4 .LASF3720
C:\Users\SOLDER~1\AppData\Local\Temp\ccqxjBbT.s:20115  .debug_str:0000000000004b06 .LASF3721
C:\Users\SOLDER~1\AppData\Local\Temp\ccqxjBbT.s:29147  .debug_str:00000000000295be .LASF3722
C:\Users\SOLDER~1\AppData\Local\Temp\ccqxjBbT.s:25197  .debug_str:0000000000019563 .LASF3723
C:\Users\SOLDER~1\AppData\Local\Temp\ccqxjBbT.s:21915  .debug_str:000000000000bfd9 .LASF3724
C:\Users\SOLDER~1\AppData\Local\Temp\ccqxjBbT.s:28547  .debug_str:0000000000026e9d .LASF3725
C:\Users\SOLDER~1\AppData\Local\Temp\ccqxjBbT.s:22223  .debug_str:000000000000d513 .LASF3726
C:\Users\SOLDER~1\AppData\Local\Temp\ccqxjBbT.s:30347  .debug_str:000000000002e37d .LASF3727
C:\Users\SOLDER~1\AppData\Local\Temp\ccqxjBbT.s:29599  .debug_str:000000000002b309 .LASF3728
C:\Users\SOLDER~1\AppData\Local\Temp\ccqxjBbT.s:28019  .debug_str:0000000000024b8a .LASF3729
C:\Users\SOLDER~1\AppData\Local\Temp\ccqxjBbT.s:30073  .debug_str:000000000002d225 .LASF3730
C:\Users\SOLDER~1\AppData\Local\Temp\ccqxjBbT.s:27067  .debug_str:0000000000020dd8 .LASF3731
C:\Users\SOLDER~1\AppData\Local\Temp\ccqxjBbT.s:23969  .debug_str:00000000000146e1 .LASF3732
C:\Users\SOLDER~1\AppData\Local\Temp\ccqxjBbT.s:29333  .debug_str:000000000002a1ec .LASF3733
C:\Users\SOLDER~1\AppData\Local\Temp\ccqxjBbT.s:21597  .debug_str:000000000000ac16 .LASF3734
C:\Users\SOLDER~1\AppData\Local\Temp\ccqxjBbT.s:24265  .debug_str:00000000000159ac .LASF3735
C:\Users\SOLDER~1\AppData\Local\Temp\ccqxjBbT.s:25061  .debug_str:0000000000018c5c .LASF3736
C:\Users\SOLDER~1\AppData\Local\Temp\ccqxjBbT.s:20871  .debug_str:0000000000007bfb .LASF3737
C:\Users\SOLDER~1\AppData\Local\Temp\ccqxjBbT.s:25575  .debug_str:000000000001ad68 .LASF3738
C:\Users\SOLDER~1\AppData\Local\Temp\ccqxjBbT.s:21885  .debug_str:000000000000bdf3 .LASF3739
C:\Users\SOLDER~1\AppData\Local\Temp\ccqxjBbT.s:25351  .debug_str:0000000000019e95 .LASF3740
C:\Users\SOLDER~1\AppData\Local\Temp\ccqxjBbT.s:24349  .debug_str:0000000000015ef4 .LASF3741
C:\Users\SOLDER~1\AppData\Local\Temp\ccqxjBbT.s:20351  .debug_str:00000000000059f8 .LASF3742
C:\Users\SOLDER~1\AppData\Local\Temp\ccqxjBbT.s:22857  .debug_str:000000000000fe42 .LASF3743
C:\Users\SOLDER~1\AppData\Local\Temp\ccqxjBbT.s:20657  .debug_str:0000000000006e36 .LASF3744
C:\Users\SOLDER~1\AppData\Local\Temp\ccqxjBbT.s:19763  .debug_str:00000000000034df .LASF3745
C:\Users\SOLDER~1\AppData\Local\Temp\ccqxjBbT.s:26677  .debug_str:000000000001f4fd .LASF3746
C:\Users\SOLDER~1\AppData\Local\Temp\ccqxjBbT.s:26769  .debug_str:000000000001fac4 .LASF3747
C:\Users\SOLDER~1\AppData\Local\Temp\ccqxjBbT.s:22323  .debug_str:000000000000db38 .LASF3748
C:\Users\SOLDER~1\AppData\Local\Temp\ccqxjBbT.s:30297  .debug_str:000000000002e062 .LASF3749
C:\Users\SOLDER~1\AppData\Local\Temp\ccqxjBbT.s:20345  .debug_str:0000000000005996 .LASF3750
C:\Users\SOLDER~1\AppData\Local\Temp\ccqxjBbT.s:29269  .debug_str:0000000000029da8 .LASF3751
C:\Users\SOLDER~1\AppData\Local\Temp\ccqxjBbT.s:22369  .debug_str:000000000000de3f .LASF3752
C:\Users\SOLDER~1\AppData\Local\Temp\ccqxjBbT.s:27505  .debug_str:00000000000229ee .LASF3753
C:\Users\SOLDER~1\AppData\Local\Temp\ccqxjBbT.s:24659  .debug_str:0000000000017256 .LASF3754
C:\Users\SOLDER~1\AppData\Local\Temp\ccqxjBbT.s:22125  .debug_str:000000000000ce8e .LASF3755
C:\Users\SOLDER~1\AppData\Local\Temp\ccqxjBbT.s:29421  .debug_str:000000000002a79c .LASF3756
C:\Users\SOLDER~1\AppData\Local\Temp\ccqxjBbT.s:25755  .debug_str:000000000001b85b .LASF3757
C:\Users\SOLDER~1\AppData\Local\Temp\ccqxjBbT.s:22877  .debug_str:000000000000ff76 .LASF3758
C:\Users\SOLDER~1\AppData\Local\Temp\ccqxjBbT.s:27245  .debug_str:0000000000021983 .LASF3759
C:\Users\SOLDER~1\AppData\Local\Temp\ccqxjBbT.s:22839  .debug_str:000000000000fd18 .LASF3760
C:\Users\SOLDER~1\AppData\Local\Temp\ccqxjBbT.s:25361  .debug_str:0000000000019f47 .LASF3761
C:\Users\SOLDER~1\AppData\Local\Temp\ccqxjBbT.s:25595  .debug_str:000000000001aec2 .LASF3762
C:\Users\SOLDER~1\AppData\Local\Temp\ccqxjBbT.s:23449  .debug_str:0000000000012420 .LASF3763
C:\Users\SOLDER~1\AppData\Local\Temp\ccqxjBbT.s:24945  .debug_str:00000000000184f1 .LASF3764
C:\Users\SOLDER~1\AppData\Local\Temp\ccqxjBbT.s:19535  .debug_str:0000000000002622 .LASF3765
C:\Users\SOLDER~1\AppData\Local\Temp\ccqxjBbT.s:20255  .debug_str:00000000000053a3 .LASF3766
C:\Users\SOLDER~1\AppData\Local\Temp\ccqxjBbT.s:29869  .debug_str:000000000002c4d7 .LASF3767
GAS LISTING C:\Users\SOLDER~1\AppData\Local\Temp\ccqxjBbT.s 			page 84


C:\Users\SOLDER~1\AppData\Local\Temp\ccqxjBbT.s:30097  .debug_str:000000000002d3aa .LASF3768
C:\Users\SOLDER~1\AppData\Local\Temp\ccqxjBbT.s:19237  .debug_str:00000000000012b2 .LASF3769
C:\Users\SOLDER~1\AppData\Local\Temp\ccqxjBbT.s:25003  .debug_str:000000000001887d .LASF3770
C:\Users\SOLDER~1\AppData\Local\Temp\ccqxjBbT.s:23159  .debug_str:00000000000111b2 .LASF3771
C:\Users\SOLDER~1\AppData\Local\Temp\ccqxjBbT.s:27947  .debug_str:00000000000246c5 .LASF3772
C:\Users\SOLDER~1\AppData\Local\Temp\ccqxjBbT.s:21679  .debug_str:000000000000b16d .LASF3773
C:\Users\SOLDER~1\AppData\Local\Temp\ccqxjBbT.s:27243  .debug_str:0000000000021960 .LASF3774
C:\Users\SOLDER~1\AppData\Local\Temp\ccqxjBbT.s:19515  .debug_str:00000000000024f6 .LASF3775
C:\Users\SOLDER~1\AppData\Local\Temp\ccqxjBbT.s:28735  .debug_str:0000000000027ad4 .LASF3776
C:\Users\SOLDER~1\AppData\Local\Temp\ccqxjBbT.s:25709  .debug_str:000000000001b5c8 .LASF3777
C:\Users\SOLDER~1\AppData\Local\Temp\ccqxjBbT.s:27803  .debug_str:0000000000023d61 .LASF3778
C:\Users\SOLDER~1\AppData\Local\Temp\ccqxjBbT.s:23793  .debug_str:0000000000013aa9 .LASF3779
C:\Users\SOLDER~1\AppData\Local\Temp\ccqxjBbT.s:29143  .debug_str:000000000002956e .LASF3780
C:\Users\SOLDER~1\AppData\Local\Temp\ccqxjBbT.s:26585  .debug_str:000000000001eeba .LASF3781
C:\Users\SOLDER~1\AppData\Local\Temp\ccqxjBbT.s:22203  .debug_str:000000000000d3ad .LASF3782
C:\Users\SOLDER~1\AppData\Local\Temp\ccqxjBbT.s:20769  .debug_str:00000000000075a0 .LASF3783
C:\Users\SOLDER~1\AppData\Local\Temp\ccqxjBbT.s:28447  .debug_str:0000000000026814 .LASF3784
C:\Users\SOLDER~1\AppData\Local\Temp\ccqxjBbT.s:26763  .debug_str:000000000001fa6a .LASF3785
C:\Users\SOLDER~1\AppData\Local\Temp\ccqxjBbT.s:27021  .debug_str:0000000000020b0f .LASF3786
C:\Users\SOLDER~1\AppData\Local\Temp\ccqxjBbT.s:27917  .debug_str:00000000000244bc .LASF3787
C:\Users\SOLDER~1\AppData\Local\Temp\ccqxjBbT.s:19953  .debug_str:00000000000040e9 .LASF3788
C:\Users\SOLDER~1\AppData\Local\Temp\ccqxjBbT.s:20835  .debug_str:00000000000079a5 .LASF3789
C:\Users\SOLDER~1\AppData\Local\Temp\ccqxjBbT.s:22657  .debug_str:000000000000f120 .LASF3790
C:\Users\SOLDER~1\AppData\Local\Temp\ccqxjBbT.s:20625  .debug_str:0000000000006c14 .LASF3791
C:\Users\SOLDER~1\AppData\Local\Temp\ccqxjBbT.s:24879  .debug_str:00000000000180b2 .LASF3792
C:\Users\SOLDER~1\AppData\Local\Temp\ccqxjBbT.s:30077  .debug_str:000000000002d26e .LASF3793
C:\Users\SOLDER~1\AppData\Local\Temp\ccqxjBbT.s:27921  .debug_str:00000000000244f9 .LASF3794
C:\Users\SOLDER~1\AppData\Local\Temp\ccqxjBbT.s:20403  .debug_str:0000000000005d47 .LASF3795
C:\Users\SOLDER~1\AppData\Local\Temp\ccqxjBbT.s:21547  .debug_str:000000000000a8d0 .LASF3796
C:\Users\SOLDER~1\AppData\Local\Temp\ccqxjBbT.s:28969  .debug_str:0000000000028a4c .LASF3797
C:\Users\SOLDER~1\AppData\Local\Temp\ccqxjBbT.s:28571  .debug_str:000000000002701d .LASF3798
C:\Users\SOLDER~1\AppData\Local\Temp\ccqxjBbT.s:26187  .debug_str:000000000001d50d .LASF3799
C:\Users\SOLDER~1\AppData\Local\Temp\ccqxjBbT.s:29977  .debug_str:000000000002cb98 .LASF3800
C:\Users\SOLDER~1\AppData\Local\Temp\ccqxjBbT.s:22979  .debug_str:0000000000010615 .LASF3801
C:\Users\SOLDER~1\AppData\Local\Temp\ccqxjBbT.s:21427  .debug_str:000000000000a08b .LASF3802
C:\Users\SOLDER~1\AppData\Local\Temp\ccqxjBbT.s:22879  .debug_str:000000000000ff9a .LASF3803
C:\Users\SOLDER~1\AppData\Local\Temp\ccqxjBbT.s:28759  .debug_str:0000000000027c71 .LASF3804
C:\Users\SOLDER~1\AppData\Local\Temp\ccqxjBbT.s:29367  .debug_str:000000000002a43d .LASF3805
C:\Users\SOLDER~1\AppData\Local\Temp\ccqxjBbT.s:25827  .debug_str:000000000001bd0c .LASF3806
C:\Users\SOLDER~1\AppData\Local\Temp\ccqxjBbT.s:27065  .debug_str:0000000000020dc3 .LASF3807
C:\Users\SOLDER~1\AppData\Local\Temp\ccqxjBbT.s:24743  .debug_str:0000000000017813 .LASF3808
C:\Users\SOLDER~1\AppData\Local\Temp\ccqxjBbT.s:29083  .debug_str:0000000000029168 .LASF3809
C:\Users\SOLDER~1\AppData\Local\Temp\ccqxjBbT.s:26827  .debug_str:000000000001fe65 .LASF3810
C:\Users\SOLDER~1\AppData\Local\Temp\ccqxjBbT.s:25943  .debug_str:000000000001c4f1 .LASF3811
C:\Users\SOLDER~1\AppData\Local\Temp\ccqxjBbT.s:19035  .debug_str:0000000000000556 .LASF3812
C:\Users\SOLDER~1\AppData\Local\Temp\ccqxjBbT.s:29713  .debug_str:000000000002ba5b .LASF3813
C:\Users\SOLDER~1\AppData\Local\Temp\ccqxjBbT.s:19099  .debug_str:0000000000000a5a .LASF3814
C:\Users\SOLDER~1\AppData\Local\Temp\ccqxjBbT.s:24207  .debug_str:0000000000015655 .LASF3815
C:\Users\SOLDER~1\AppData\Local\Temp\ccqxjBbT.s:24513  .debug_str:0000000000016921 .LASF3816
C:\Users\SOLDER~1\AppData\Local\Temp\ccqxjBbT.s:26787  .debug_str:000000000001fbf5 .LASF3817
C:\Users\SOLDER~1\AppData\Local\Temp\ccqxjBbT.s:24327  .debug_str:0000000000015d91 .LASF3818
C:\Users\SOLDER~1\AppData\Local\Temp\ccqxjBbT.s:21027  .debug_str:0000000000008619 .LASF3819
C:\Users\SOLDER~1\AppData\Local\Temp\ccqxjBbT.s:19981  .debug_str:00000000000042ad .LASF3820
C:\Users\SOLDER~1\AppData\Local\Temp\ccqxjBbT.s:21213  .debug_str:000000000000929f .LASF3821
C:\Users\SOLDER~1\AppData\Local\Temp\ccqxjBbT.s:24305  .debug_str:0000000000015c3d .LASF3822
C:\Users\SOLDER~1\AppData\Local\Temp\ccqxjBbT.s:21047  .debug_str:000000000000876c .LASF3823
C:\Users\SOLDER~1\AppData\Local\Temp\ccqxjBbT.s:22261  .debug_str:000000000000d773 .LASF3824
GAS LISTING C:\Users\SOLDER~1\AppData\Local\Temp\ccqxjBbT.s 			page 85


C:\Users\SOLDER~1\AppData\Local\Temp\ccqxjBbT.s:20163  .debug_str:0000000000004e1a .LASF3825
C:\Users\SOLDER~1\AppData\Local\Temp\ccqxjBbT.s:27987  .debug_str:0000000000024956 .LASF3826
C:\Users\SOLDER~1\AppData\Local\Temp\ccqxjBbT.s:23531  .debug_str:0000000000012936 .LASF3827
C:\Users\SOLDER~1\AppData\Local\Temp\ccqxjBbT.s:22853  .debug_str:000000000000fdfb .LASF3828
C:\Users\SOLDER~1\AppData\Local\Temp\ccqxjBbT.s:26087  .debug_str:000000000001ce73 .LASF3829
C:\Users\SOLDER~1\AppData\Local\Temp\ccqxjBbT.s:29305  .debug_str:0000000000029ff7 .LASF3830
C:\Users\SOLDER~1\AppData\Local\Temp\ccqxjBbT.s:21183  .debug_str:000000000000908c .LASF3831
C:\Users\SOLDER~1\AppData\Local\Temp\ccqxjBbT.s:27249  .debug_str:00000000000219a9 .LASF3832
C:\Users\SOLDER~1\AppData\Local\Temp\ccqxjBbT.s:21409  .debug_str:0000000000009f8d .LASF3833
C:\Users\SOLDER~1\AppData\Local\Temp\ccqxjBbT.s:24921  .debug_str:0000000000018374 .LASF3834
C:\Users\SOLDER~1\AppData\Local\Temp\ccqxjBbT.s:22025  .debug_str:000000000000c7a8 .LASF3835
C:\Users\SOLDER~1\AppData\Local\Temp\ccqxjBbT.s:22013  .debug_str:000000000000c6cc .LASF3836
C:\Users\SOLDER~1\AppData\Local\Temp\ccqxjBbT.s:19671  .debug_str:0000000000002ed8 .LASF3837
C:\Users\SOLDER~1\AppData\Local\Temp\ccqxjBbT.s:21819  .debug_str:000000000000b9c2 .LASF3838
C:\Users\SOLDER~1\AppData\Local\Temp\ccqxjBbT.s:27731  .debug_str:00000000000238d0 .LASF3839
C:\Users\SOLDER~1\AppData\Local\Temp\ccqxjBbT.s:25857  .debug_str:000000000001bf39 .LASF3840
C:\Users\SOLDER~1\AppData\Local\Temp\ccqxjBbT.s:22355  .debug_str:000000000000dd5a .LASF3841
C:\Users\SOLDER~1\AppData\Local\Temp\ccqxjBbT.s:29585  .debug_str:000000000002b23f .LASF3842
C:\Users\SOLDER~1\AppData\Local\Temp\ccqxjBbT.s:27653  .debug_str:00000000000233c5 .LASF3843
C:\Users\SOLDER~1\AppData\Local\Temp\ccqxjBbT.s:20045  .debug_str:00000000000046bd .LASF3844
C:\Users\SOLDER~1\AppData\Local\Temp\ccqxjBbT.s:27913  .debug_str:0000000000024475 .LASF3845
C:\Users\SOLDER~1\AppData\Local\Temp\ccqxjBbT.s:27445  .debug_str:00000000000225de .LASF3846
C:\Users\SOLDER~1\AppData\Local\Temp\ccqxjBbT.s:19999  .debug_str:00000000000043c6 .LASF3847
C:\Users\SOLDER~1\AppData\Local\Temp\ccqxjBbT.s:22077  .debug_str:000000000000cb3f .LASF3848
C:\Users\SOLDER~1\AppData\Local\Temp\ccqxjBbT.s:29149  .debug_str:00000000000295e3 .LASF3849
C:\Users\SOLDER~1\AppData\Local\Temp\ccqxjBbT.s:21525  .debug_str:000000000000a763 .LASF3850
C:\Users\SOLDER~1\AppData\Local\Temp\ccqxjBbT.s:27481  .debug_str:0000000000022841 .LASF3851
C:\Users\SOLDER~1\AppData\Local\Temp\ccqxjBbT.s:26077  .debug_str:000000000001cde6 .LASF3852
C:\Users\SOLDER~1\AppData\Local\Temp\ccqxjBbT.s:27787  .debug_str:0000000000023c4f .LASF3853
C:\Users\SOLDER~1\AppData\Local\Temp\ccqxjBbT.s:23071  .debug_str:0000000000010c02 .LASF3854
C:\Users\SOLDER~1\AppData\Local\Temp\ccqxjBbT.s:24459  .debug_str:00000000000165ff .LASF3855
C:\Users\SOLDER~1\AppData\Local\Temp\ccqxjBbT.s:20419  .debug_str:0000000000005e37 .LASF3856
C:\Users\SOLDER~1\AppData\Local\Temp\ccqxjBbT.s:21923  .debug_str:000000000000c07b .LASF3857
C:\Users\SOLDER~1\AppData\Local\Temp\ccqxjBbT.s:21675  .debug_str:000000000000b138 .LASF3858
C:\Users\SOLDER~1\AppData\Local\Temp\ccqxjBbT.s:21705  .debug_str:000000000000b2f8 .LASF3859
C:\Users\SOLDER~1\AppData\Local\Temp\ccqxjBbT.s:19681  .debug_str:0000000000002fa1 .LASF3860
C:\Users\SOLDER~1\AppData\Local\Temp\ccqxjBbT.s:25189  .debug_str:00000000000194d3 .LASF3861
C:\Users\SOLDER~1\AppData\Local\Temp\ccqxjBbT.s:22351  .debug_str:000000000000dd1f .LASF3862
C:\Users\SOLDER~1\AppData\Local\Temp\ccqxjBbT.s:30053  .debug_str:000000000002d0b8 .LASF3863
C:\Users\SOLDER~1\AppData\Local\Temp\ccqxjBbT.s:29747  .debug_str:000000000002bc84 .LASF3864
C:\Users\SOLDER~1\AppData\Local\Temp\ccqxjBbT.s:28161  .debug_str:0000000000025483 .LASF3865
C:\Users\SOLDER~1\AppData\Local\Temp\ccqxjBbT.s:26425  .debug_str:000000000001e400 .LASF3866
C:\Users\SOLDER~1\AppData\Local\Temp\ccqxjBbT.s:19129  .debug_str:0000000000000c72 .LASF3867
C:\Users\SOLDER~1\AppData\Local\Temp\ccqxjBbT.s:29207  .debug_str:000000000002995c .LASF3868
C:\Users\SOLDER~1\AppData\Local\Temp\ccqxjBbT.s:19839  .debug_str:000000000000399a .LASF3869
C:\Users\SOLDER~1\AppData\Local\Temp\ccqxjBbT.s:30121  .debug_str:000000000002d527 .LASF3870
C:\Users\SOLDER~1\AppData\Local\Temp\ccqxjBbT.s:22511  .debug_str:000000000000e7cc .LASF3871
C:\Users\SOLDER~1\AppData\Local\Temp\ccqxjBbT.s:21673  .debug_str:000000000000b118 .LASF3872
C:\Users\SOLDER~1\AppData\Local\Temp\ccqxjBbT.s:22851  .debug_str:000000000000fddb .LASF3873
C:\Users\SOLDER~1\AppData\Local\Temp\ccqxjBbT.s:24935  .debug_str:0000000000018450 .LASF3874
C:\Users\SOLDER~1\AppData\Local\Temp\ccqxjBbT.s:25965  .debug_str:000000000001c68a .LASF3875
C:\Users\SOLDER~1\AppData\Local\Temp\ccqxjBbT.s:22501  .debug_str:000000000000e725 .LASF3876
C:\Users\SOLDER~1\AppData\Local\Temp\ccqxjBbT.s:21693  .debug_str:000000000000b22d .LASF3877
C:\Users\SOLDER~1\AppData\Local\Temp\ccqxjBbT.s:30221  .debug_str:000000000002db87 .LASF3878
C:\Users\SOLDER~1\AppData\Local\Temp\ccqxjBbT.s:25033  .debug_str:0000000000018a6f .LASF3879
C:\Users\SOLDER~1\AppData\Local\Temp\ccqxjBbT.s:19933  .debug_str:0000000000003f93 .LASF3880
C:\Users\SOLDER~1\AppData\Local\Temp\ccqxjBbT.s:29039  .debug_str:0000000000028e8b .LASF3881
GAS LISTING C:\Users\SOLDER~1\AppData\Local\Temp\ccqxjBbT.s 			page 86


C:\Users\SOLDER~1\AppData\Local\Temp\ccqxjBbT.s:20863  .debug_str:0000000000007b6d .LASF3882
C:\Users\SOLDER~1\AppData\Local\Temp\ccqxjBbT.s:19931  .debug_str:0000000000003f6f .LASF3883
C:\Users\SOLDER~1\AppData\Local\Temp\ccqxjBbT.s:25153  .debug_str:000000000001926a .LASF3884
C:\Users\SOLDER~1\AppData\Local\Temp\ccqxjBbT.s:21935  .debug_str:000000000000c14d .LASF3885
C:\Users\SOLDER~1\AppData\Local\Temp\ccqxjBbT.s:22015  .debug_str:000000000000c6ee .LASF3886
C:\Users\SOLDER~1\AppData\Local\Temp\ccqxjBbT.s:27995  .debug_str:00000000000249d0 .LASF3887
C:\Users\SOLDER~1\AppData\Local\Temp\ccqxjBbT.s:22761  .debug_str:000000000000f782 .LASF3888
C:\Users\SOLDER~1\AppData\Local\Temp\ccqxjBbT.s:18975  .debug_str:000000000000015d .LASF3889
C:\Users\SOLDER~1\AppData\Local\Temp\ccqxjBbT.s:29659  .debug_str:000000000002b6fd .LASF3890
C:\Users\SOLDER~1\AppData\Local\Temp\ccqxjBbT.s:29071  .debug_str:0000000000029089 .LASF3891
C:\Users\SOLDER~1\AppData\Local\Temp\ccqxjBbT.s:22387  .debug_str:000000000000df71 .LASF3892
C:\Users\SOLDER~1\AppData\Local\Temp\ccqxjBbT.s:26981  .debug_str:000000000002086a .LASF3893
C:\Users\SOLDER~1\AppData\Local\Temp\ccqxjBbT.s:19109  .debug_str:0000000000000b01 .LASF3894
C:\Users\SOLDER~1\AppData\Local\Temp\ccqxjBbT.s:30307  .debug_str:000000000002e0f0 .LASF3895
C:\Users\SOLDER~1\AppData\Local\Temp\ccqxjBbT.s:21663  .debug_str:000000000000b06e .LASF3896
C:\Users\SOLDER~1\AppData\Local\Temp\ccqxjBbT.s:22925  .debug_str:0000000000010265 .LASF3897
C:\Users\SOLDER~1\AppData\Local\Temp\ccqxjBbT.s:29803  .debug_str:000000000002c083 .LASF3898
C:\Users\SOLDER~1\AppData\Local\Temp\ccqxjBbT.s:20991  .debug_str:00000000000083e3 .LASF3899
C:\Users\SOLDER~1\AppData\Local\Temp\ccqxjBbT.s:28497  .debug_str:0000000000026b6d .LASF3900
C:\Users\SOLDER~1\AppData\Local\Temp\ccqxjBbT.s:25117  .debug_str:0000000000019044 .LASF3901
C:\Users\SOLDER~1\AppData\Local\Temp\ccqxjBbT.s:27069  .debug_str:0000000000020df9 .LASF3902
C:\Users\SOLDER~1\AppData\Local\Temp\ccqxjBbT.s:21325  .debug_str:0000000000009a09 .LASF3903
C:\Users\SOLDER~1\AppData\Local\Temp\ccqxjBbT.s:28783  .debug_str:0000000000027e28 .LASF3904
C:\Users\SOLDER~1\AppData\Local\Temp\ccqxjBbT.s:19379  .debug_str:0000000000001bdd .LASF3905
C:\Users\SOLDER~1\AppData\Local\Temp\ccqxjBbT.s:24713  .debug_str:000000000001760b .LASF3906
C:\Users\SOLDER~1\AppData\Local\Temp\ccqxjBbT.s:29503  .debug_str:000000000002acba .LASF3907
C:\Users\SOLDER~1\AppData\Local\Temp\ccqxjBbT.s:30321  .debug_str:000000000002e1eb .LASF3908
C:\Users\SOLDER~1\AppData\Local\Temp\ccqxjBbT.s:22649  .debug_str:000000000000f0b5 .LASF3909
C:\Users\SOLDER~1\AppData\Local\Temp\ccqxjBbT.s:23993  .debug_str:0000000000014890 .LASF3910
C:\Users\SOLDER~1\AppData\Local\Temp\ccqxjBbT.s:30295  .debug_str:000000000002e041 .LASF3911
C:\Users\SOLDER~1\AppData\Local\Temp\ccqxjBbT.s:27927  .debug_str:000000000002457d .LASF3912
C:\Users\SOLDER~1\AppData\Local\Temp\ccqxjBbT.s:28999  .debug_str:0000000000028beb .LASF3913
C:\Users\SOLDER~1\AppData\Local\Temp\ccqxjBbT.s:26379  .debug_str:000000000001e129 .LASF3914
C:\Users\SOLDER~1\AppData\Local\Temp\ccqxjBbT.s:30319  .debug_str:000000000002e1c8 .LASF3915
C:\Users\SOLDER~1\AppData\Local\Temp\ccqxjBbT.s:24373  .debug_str:000000000001606b .LASF3916
C:\Users\SOLDER~1\AppData\Local\Temp\ccqxjBbT.s:30179  .debug_str:000000000002d8e6 .LASF3917
C:\Users\SOLDER~1\AppData\Local\Temp\ccqxjBbT.s:24913  .debug_str:00000000000182e8 .LASF3918
C:\Users\SOLDER~1\AppData\Local\Temp\ccqxjBbT.s:28831  .debug_str:000000000002816d .LASF3919
C:\Users\SOLDER~1\AppData\Local\Temp\ccqxjBbT.s:20067  .debug_str:0000000000004833 .LASF3920
C:\Users\SOLDER~1\AppData\Local\Temp\ccqxjBbT.s:25413  .debug_str:000000000001a291 .LASF3921
C:\Users\SOLDER~1\AppData\Local\Temp\ccqxjBbT.s:26617  .debug_str:000000000001f0ee .LASF3922
C:\Users\SOLDER~1\AppData\Local\Temp\ccqxjBbT.s:27081  .debug_str:0000000000020ec6 .LASF3923
C:\Users\SOLDER~1\AppData\Local\Temp\ccqxjBbT.s:23029  .debug_str:000000000001093c .LASF3924
C:\Users\SOLDER~1\AppData\Local\Temp\ccqxjBbT.s:28355  .debug_str:00000000000261da .LASF3925
C:\Users\SOLDER~1\AppData\Local\Temp\ccqxjBbT.s:29281  .debug_str:0000000000029e6a .LASF3926
C:\Users\SOLDER~1\AppData\Local\Temp\ccqxjBbT.s:28235  .debug_str:0000000000025974 .LASF3927
C:\Users\SOLDER~1\AppData\Local\Temp\ccqxjBbT.s:20737  .debug_str:000000000000739e .LASF3928
C:\Users\SOLDER~1\AppData\Local\Temp\ccqxjBbT.s:27169  .debug_str:000000000002148c .LASF3929
C:\Users\SOLDER~1\AppData\Local\Temp\ccqxjBbT.s:23165  .debug_str:0000000000011207 .LASF3930
C:\Users\SOLDER~1\AppData\Local\Temp\ccqxjBbT.s:27013  .debug_str:0000000000020a81 .LASF3931
C:\Users\SOLDER~1\AppData\Local\Temp\ccqxjBbT.s:20217  .debug_str:0000000000005149 .LASF3932
C:\Users\SOLDER~1\AppData\Local\Temp\ccqxjBbT.s:23717  .debug_str:000000000001355e .LASF3933
C:\Users\SOLDER~1\AppData\Local\Temp\ccqxjBbT.s:21343  .debug_str:0000000000009b21 .LASF3934
C:\Users\SOLDER~1\AppData\Local\Temp\ccqxjBbT.s:19807  .debug_str:0000000000003791 .LASF3935
C:\Users\SOLDER~1\AppData\Local\Temp\ccqxjBbT.s:20843  .debug_str:0000000000007a0f .LASF3936
C:\Users\SOLDER~1\AppData\Local\Temp\ccqxjBbT.s:26631  .debug_str:000000000001f1d5 .LASF3937
C:\Users\SOLDER~1\AppData\Local\Temp\ccqxjBbT.s:26109  .debug_str:000000000001cf94 .LASF3938
GAS LISTING C:\Users\SOLDER~1\AppData\Local\Temp\ccqxjBbT.s 			page 87


C:\Users\SOLDER~1\AppData\Local\Temp\ccqxjBbT.s:28847  .debug_str:000000000002825c .LASF3939
C:\Users\SOLDER~1\AppData\Local\Temp\ccqxjBbT.s:28411  .debug_str:000000000002658a .LASF3940
C:\Users\SOLDER~1\AppData\Local\Temp\ccqxjBbT.s:21337  .debug_str:0000000000009ac4 .LASF3941
C:\Users\SOLDER~1\AppData\Local\Temp\ccqxjBbT.s:22545  .debug_str:000000000000ea28 .LASF3942
C:\Users\SOLDER~1\AppData\Local\Temp\ccqxjBbT.s:24329  .debug_str:0000000000015db3 .LASF3943
C:\Users\SOLDER~1\AppData\Local\Temp\ccqxjBbT.s:20277  .debug_str:00000000000054ea .LASF3944
C:\Users\SOLDER~1\AppData\Local\Temp\ccqxjBbT.s:21023  .debug_str:00000000000085c4 .LASF3945
C:\Users\SOLDER~1\AppData\Local\Temp\ccqxjBbT.s:29351  .debug_str:000000000002a33c .LASF3946
C:\Users\SOLDER~1\AppData\Local\Temp\ccqxjBbT.s:24863  .debug_str:0000000000017f81 .LASF3947
C:\Users\SOLDER~1\AppData\Local\Temp\ccqxjBbT.s:22469  .debug_str:000000000000e533 .LASF3948
C:\Users\SOLDER~1\AppData\Local\Temp\ccqxjBbT.s:27085  .debug_str:0000000000020f0c .LASF3949
C:\Users\SOLDER~1\AppData\Local\Temp\ccqxjBbT.s:19567  .debug_str:0000000000002841 .LASF3950
C:\Users\SOLDER~1\AppData\Local\Temp\ccqxjBbT.s:25869  .debug_str:000000000001bfd9 .LASF3951
C:\Users\SOLDER~1\AppData\Local\Temp\ccqxjBbT.s:20977  .debug_str:0000000000008307 .LASF3952
C:\Users\SOLDER~1\AppData\Local\Temp\ccqxjBbT.s:26955  .debug_str:00000000000206b8 .LASF3953
C:\Users\SOLDER~1\AppData\Local\Temp\ccqxjBbT.s:28105  .debug_str:00000000000250e8 .LASF3954
C:\Users\SOLDER~1\AppData\Local\Temp\ccqxjBbT.s:24231  .debug_str:00000000000157eb .LASF3955
C:\Users\SOLDER~1\AppData\Local\Temp\ccqxjBbT.s:19239  .debug_str:00000000000012c5 .LASF3956
C:\Users\SOLDER~1\AppData\Local\Temp\ccqxjBbT.s:27695  .debug_str:0000000000023675 .LASF3957
C:\Users\SOLDER~1\AppData\Local\Temp\ccqxjBbT.s:19937  .debug_str:0000000000003fdf .LASF3958
C:\Users\SOLDER~1\AppData\Local\Temp\ccqxjBbT.s:22889  .debug_str:0000000000010037 .LASF3959
C:\Users\SOLDER~1\AppData\Local\Temp\ccqxjBbT.s:24333  .debug_str:0000000000015df4 .LASF3960
C:\Users\SOLDER~1\AppData\Local\Temp\ccqxjBbT.s:20917  .debug_str:0000000000007f0c .LASF3961
C:\Users\SOLDER~1\AppData\Local\Temp\ccqxjBbT.s:19285  .debug_str:00000000000015d2 .LASF3962
C:\Users\SOLDER~1\AppData\Local\Temp\ccqxjBbT.s:30535  .debug_str:000000000002ef8d .LASF3963
C:\Users\SOLDER~1\AppData\Local\Temp\ccqxjBbT.s:23465  .debug_str:0000000000012512 .LASF3964
C:\Users\SOLDER~1\AppData\Local\Temp\ccqxjBbT.s:24675  .debug_str:000000000001737a .LASF3965
C:\Users\SOLDER~1\AppData\Local\Temp\ccqxjBbT.s:22421  .debug_str:000000000000e1eb .LASF3966
C:\Users\SOLDER~1\AppData\Local\Temp\ccqxjBbT.s:24943  .debug_str:00000000000184c9 .LASF3967
C:\Users\SOLDER~1\AppData\Local\Temp\ccqxjBbT.s:28119  .debug_str:00000000000251e0 .LASF3968
C:\Users\SOLDER~1\AppData\Local\Temp\ccqxjBbT.s:22419  .debug_str:000000000000e1c4 .LASF3969
C:\Users\SOLDER~1\AppData\Local\Temp\ccqxjBbT.s:22557  .debug_str:000000000000eade .LASF3970
C:\Users\SOLDER~1\AppData\Local\Temp\ccqxjBbT.s:27015  .debug_str:0000000000020aa1 .LASF3971
C:\Users\SOLDER~1\AppData\Local\Temp\ccqxjBbT.s:27079  .debug_str:0000000000020e9e .LASF3972
C:\Users\SOLDER~1\AppData\Local\Temp\ccqxjBbT.s:23591  .debug_str:0000000000012cf5 .LASF3973
C:\Users\SOLDER~1\AppData\Local\Temp\ccqxjBbT.s:27833  .debug_str:0000000000023f46 .LASF3974
C:\Users\SOLDER~1\AppData\Local\Temp\ccqxjBbT.s:24821  .debug_str:0000000000017ce4 .LASF3975
C:\Users\SOLDER~1\AppData\Local\Temp\ccqxjBbT.s:22005  .debug_str:000000000000c642 .LASF3976
C:\Users\SOLDER~1\AppData\Local\Temp\ccqxjBbT.s:21571  .debug_str:000000000000aa66 .LASF3977
C:\Users\SOLDER~1\AppData\Local\Temp\ccqxjBbT.s:20077  .debug_str:00000000000048e0 .LASF3978
C:\Users\SOLDER~1\AppData\Local\Temp\ccqxjBbT.s:28367  .debug_str:00000000000262ba .LASF3979
C:\Users\SOLDER~1\AppData\Local\Temp\ccqxjBbT.s:22811  .debug_str:000000000000fb15 .LASF3980
C:\Users\SOLDER~1\AppData\Local\Temp\ccqxjBbT.s:23015  .debug_str:0000000000010830 .LASF3981
C:\Users\SOLDER~1\AppData\Local\Temp\ccqxjBbT.s:19089  .debug_str:00000000000009ae .LASF3982
C:\Users\SOLDER~1\AppData\Local\Temp\ccqxjBbT.s:20639  .debug_str:0000000000006cf2 .LASF3983
C:\Users\SOLDER~1\AppData\Local\Temp\ccqxjBbT.s:30417  .debug_str:000000000002e7f5 .LASF3984
C:\Users\SOLDER~1\AppData\Local\Temp\ccqxjBbT.s:21505  .debug_str:000000000000a5cd .LASF3985
C:\Users\SOLDER~1\AppData\Local\Temp\ccqxjBbT.s:24591  .debug_str:0000000000016dc9 .LASF3986
C:\Users\SOLDER~1\AppData\Local\Temp\ccqxjBbT.s:28533  .debug_str:0000000000026d91 .LASF3987
C:\Users\SOLDER~1\AppData\Local\Temp\ccqxjBbT.s:25627  .debug_str:000000000001b085 .LASF3988
C:\Users\SOLDER~1\AppData\Local\Temp\ccqxjBbT.s:28965  .debug_str:0000000000028a0c .LASF3989
C:\Users\SOLDER~1\AppData\Local\Temp\ccqxjBbT.s:24757  .debug_str:00000000000178d9 .LASF3990
C:\Users\SOLDER~1\AppData\Local\Temp\ccqxjBbT.s:28527  .debug_str:0000000000026d26 .LASF3991
C:\Users\SOLDER~1\AppData\Local\Temp\ccqxjBbT.s:21069  .debug_str:00000000000088c4 .LASF3992
C:\Users\SOLDER~1\AppData\Local\Temp\ccqxjBbT.s:20589  .debug_str:00000000000069d9 .LASF3993
C:\Users\SOLDER~1\AppData\Local\Temp\ccqxjBbT.s:26245  .debug_str:000000000001d894 .LASF3994
C:\Users\SOLDER~1\AppData\Local\Temp\ccqxjBbT.s:20763  .debug_str:0000000000007550 .LASF3995
GAS LISTING C:\Users\SOLDER~1\AppData\Local\Temp\ccqxjBbT.s 			page 88


C:\Users\SOLDER~1\AppData\Local\Temp\ccqxjBbT.s:28393  .debug_str:0000000000026485 .LASF3996
C:\Users\SOLDER~1\AppData\Local\Temp\ccqxjBbT.s:19929  .debug_str:0000000000003f52 .LASF3997
C:\Users\SOLDER~1\AppData\Local\Temp\ccqxjBbT.s:27825  .debug_str:0000000000023ec3 .LASF3998
C:\Users\SOLDER~1\AppData\Local\Temp\ccqxjBbT.s:21165  .debug_str:0000000000008f52 .LASF3999
C:\Users\SOLDER~1\AppData\Local\Temp\ccqxjBbT.s:21745  .debug_str:000000000000b596 .LASF4000
C:\Users\SOLDER~1\AppData\Local\Temp\ccqxjBbT.s:22029  .debug_str:000000000000c7ee .LASF4001
C:\Users\SOLDER~1\AppData\Local\Temp\ccqxjBbT.s:27907  .debug_str:0000000000024406 .LASF4002
C:\Users\SOLDER~1\AppData\Local\Temp\ccqxjBbT.s:29513  .debug_str:000000000002ad5b .LASF4003
C:\Users\SOLDER~1\AppData\Local\Temp\ccqxjBbT.s:21209  .debug_str:000000000000927d .LASF4004
C:\Users\SOLDER~1\AppData\Local\Temp\ccqxjBbT.s:25777  .debug_str:000000000001b9b5 .LASF4005
C:\Users\SOLDER~1\AppData\Local\Temp\ccqxjBbT.s:24005  .debug_str:0000000000014941 .LASF4006
C:\Users\SOLDER~1\AppData\Local\Temp\ccqxjBbT.s:28741  .debug_str:0000000000027b2f .LASF4007
C:\Users\SOLDER~1\AppData\Local\Temp\ccqxjBbT.s:30331  .debug_str:000000000002e282 .LASF4008
C:\Users\SOLDER~1\AppData\Local\Temp\ccqxjBbT.s:19505  .debug_str:0000000000002452 .LASF4009
C:\Users\SOLDER~1\AppData\Local\Temp\ccqxjBbT.s:24465  .debug_str:000000000001664a .LASF4010
C:\Users\SOLDER~1\AppData\Local\Temp\ccqxjBbT.s:27841  .debug_str:0000000000023fbf .LASF4011
C:\Users\SOLDER~1\AppData\Local\Temp\ccqxjBbT.s:29087  .debug_str:00000000000291a2 .LASF4012
C:\Users\SOLDER~1\AppData\Local\Temp\ccqxjBbT.s:20271  .debug_str:000000000000549b .LASF4013
C:\Users\SOLDER~1\AppData\Local\Temp\ccqxjBbT.s:20951  .debug_str:0000000000008167 .LASF4014
C:\Users\SOLDER~1\AppData\Local\Temp\ccqxjBbT.s:19203  .debug_str:0000000000001090 .LASF4015
C:\Users\SOLDER~1\AppData\Local\Temp\ccqxjBbT.s:28935  .debug_str:0000000000028834 .LASF4016
C:\Users\SOLDER~1\AppData\Local\Temp\ccqxjBbT.s:19163  .debug_str:0000000000000eab .LASF4017
C:\Users\SOLDER~1\AppData\Local\Temp\ccqxjBbT.s:29427  .debug_str:000000000002a801 .LASF4018
C:\Users\SOLDER~1\AppData\Local\Temp\ccqxjBbT.s:28957  .debug_str:000000000002897f .LASF4019
C:\Users\SOLDER~1\AppData\Local\Temp\ccqxjBbT.s:25405  .debug_str:000000000001a213 .LASF4020
C:\Users\SOLDER~1\AppData\Local\Temp\ccqxjBbT.s:21559  .debug_str:000000000000a996 .LASF4021
C:\Users\SOLDER~1\AppData\Local\Temp\ccqxjBbT.s:19417  .debug_str:0000000000001e72 .LASF4022
C:\Users\SOLDER~1\AppData\Local\Temp\ccqxjBbT.s:30013  .debug_str:000000000002cdfd .LASF4023
C:\Users\SOLDER~1\AppData\Local\Temp\ccqxjBbT.s:27261  .debug_str:0000000000021a82 .LASF4024
C:\Users\SOLDER~1\AppData\Local\Temp\ccqxjBbT.s:19017  .debug_str:0000000000000438 .LASF4025
C:\Users\SOLDER~1\AppData\Local\Temp\ccqxjBbT.s:21993  .debug_str:000000000000c58b .LASF4026
C:\Users\SOLDER~1\AppData\Local\Temp\ccqxjBbT.s:21829  .debug_str:000000000000ba78 .LASF4027
C:\Users\SOLDER~1\AppData\Local\Temp\ccqxjBbT.s:27883  .debug_str:000000000002426b .LASF4028
C:\Users\SOLDER~1\AppData\Local\Temp\ccqxjBbT.s:28249  .debug_str:0000000000025a85 .LASF4029
C:\Users\SOLDER~1\AppData\Local\Temp\ccqxjBbT.s:28871  .debug_str:00000000000283e5 .LASF4030
C:\Users\SOLDER~1\AppData\Local\Temp\ccqxjBbT.s:19965  .debug_str:00000000000041c4 .LASF4031
C:\Users\SOLDER~1\AppData\Local\Temp\ccqxjBbT.s:26535  .debug_str:000000000001eb88 .LASF4032
C:\Users\SOLDER~1\AppData\Local\Temp\ccqxjBbT.s:24105  .debug_str:0000000000014fec .LASF4033
C:\Users\SOLDER~1\AppData\Local\Temp\ccqxjBbT.s:30397  .debug_str:000000000002e69f .LASF4034
C:\Users\SOLDER~1\AppData\Local\Temp\ccqxjBbT.s:19823  .debug_str:000000000000389d .LASF4035
C:\Users\SOLDER~1\AppData\Local\Temp\ccqxjBbT.s:25745  .debug_str:000000000001b7e0 .LASF4036
C:\Users\SOLDER~1\AppData\Local\Temp\ccqxjBbT.s:28415  .debug_str:00000000000265d7 .LASF4037
C:\Users\SOLDER~1\AppData\Local\Temp\ccqxjBbT.s:29445  .debug_str:000000000002a8fe .LASF4038
C:\Users\SOLDER~1\AppData\Local\Temp\ccqxjBbT.s:27623  .debug_str:00000000000231ac .LASF4039
C:\Users\SOLDER~1\AppData\Local\Temp\ccqxjBbT.s:21831  .debug_str:000000000000ba95 .LASF4040
C:\Users\SOLDER~1\AppData\Local\Temp\ccqxjBbT.s:29285  .debug_str:0000000000029ead .LASF4041
C:\Users\SOLDER~1\AppData\Local\Temp\ccqxjBbT.s:21043  .debug_str:0000000000008734 .LASF4042
C:\Users\SOLDER~1\AppData\Local\Temp\ccqxjBbT.s:20141  .debug_str:0000000000004cd2 .LASF4043
C:\Users\SOLDER~1\AppData\Local\Temp\ccqxjBbT.s:24835  .debug_str:0000000000017d9c .LASF4044
C:\Users\SOLDER~1\AppData\Local\Temp\ccqxjBbT.s:21039  .debug_str:00000000000086f5 .LASF4045
C:\Users\SOLDER~1\AppData\Local\Temp\ccqxjBbT.s:27045  .debug_str:0000000000020c74 .LASF4046
C:\Users\SOLDER~1\AppData\Local\Temp\ccqxjBbT.s:30141  .debug_str:000000000002d664 .LASF4047
C:\Users\SOLDER~1\AppData\Local\Temp\ccqxjBbT.s:22643  .debug_str:000000000000f060 .LASF4048
C:\Users\SOLDER~1\AppData\Local\Temp\ccqxjBbT.s:30245  .debug_str:000000000002dd1d .LASF4049
C:\Users\SOLDER~1\AppData\Local\Temp\ccqxjBbT.s:26811  .debug_str:000000000001fd66 .LASF4050
C:\Users\SOLDER~1\AppData\Local\Temp\ccqxjBbT.s:20331  .debug_str:00000000000058a3 .LASF4051
C:\Users\SOLDER~1\AppData\Local\Temp\ccqxjBbT.s:26253  .debug_str:000000000001d8d6 .LASF4052
GAS LISTING C:\Users\SOLDER~1\AppData\Local\Temp\ccqxjBbT.s 			page 89


C:\Users\SOLDER~1\AppData\Local\Temp\ccqxjBbT.s:20323  .debug_str:000000000000580f .LASF4053
C:\Users\SOLDER~1\AppData\Local\Temp\ccqxjBbT.s:28091  .debug_str:000000000002502e .LASF4054
C:\Users\SOLDER~1\AppData\Local\Temp\ccqxjBbT.s:23201  .debug_str:0000000000011455 .LASF4055
C:\Users\SOLDER~1\AppData\Local\Temp\ccqxjBbT.s:23773  .debug_str:000000000001392e .LASF4056
C:\Users\SOLDER~1\AppData\Local\Temp\ccqxjBbT.s:19637  .debug_str:0000000000002ca9 .LASF4057
C:\Users\SOLDER~1\AppData\Local\Temp\ccqxjBbT.s:23889  .debug_str:0000000000014172 .LASF4058
C:\Users\SOLDER~1\AppData\Local\Temp\ccqxjBbT.s:22981  .debug_str:000000000001062b .LASF4059
C:\Users\SOLDER~1\AppData\Local\Temp\ccqxjBbT.s:23175  .debug_str:00000000000112c0 .LASF4060
C:\Users\SOLDER~1\AppData\Local\Temp\ccqxjBbT.s:27493  .debug_str:0000000000022924 .LASF4061
C:\Users\SOLDER~1\AppData\Local\Temp\ccqxjBbT.s:23091  .debug_str:0000000000010d27 .LASF4062
C:\Users\SOLDER~1\AppData\Local\Temp\ccqxjBbT.s:19727  .debug_str:0000000000003271 .LASF4063
C:\Users\SOLDER~1\AppData\Local\Temp\ccqxjBbT.s:23629  .debug_str:0000000000012f8d .LASF4064
C:\Users\SOLDER~1\AppData\Local\Temp\ccqxjBbT.s:23675  .debug_str:0000000000013256 .LASF4065
C:\Users\SOLDER~1\AppData\Local\Temp\ccqxjBbT.s:21201  .debug_str:00000000000091f8 .LASF4066
C:\Users\SOLDER~1\AppData\Local\Temp\ccqxjBbT.s:20417  .debug_str:0000000000005e1c .LASF4067
C:\Users\SOLDER~1\AppData\Local\Temp\ccqxjBbT.s:27041  .debug_str:0000000000020c4a .LASF4068
C:\Users\SOLDER~1\AppData\Local\Temp\ccqxjBbT.s:24701  .debug_str:0000000000017538 .LASF4069
C:\Users\SOLDER~1\AppData\Local\Temp\ccqxjBbT.s:26917  .debug_str:0000000000020431 .LASF4070
C:\Users\SOLDER~1\AppData\Local\Temp\ccqxjBbT.s:27297  .debug_str:0000000000021cc5 .LASF4071
C:\Users\SOLDER~1\AppData\Local\Temp\ccqxjBbT.s:27501  .debug_str:00000000000229b5 .LASF4072
C:\Users\SOLDER~1\AppData\Local\Temp\ccqxjBbT.s:23501  .debug_str:000000000001277d .LASF4073
C:\Users\SOLDER~1\AppData\Local\Temp\ccqxjBbT.s:27635  .debug_str:0000000000023269 .LASF4074
C:\Users\SOLDER~1\AppData\Local\Temp\ccqxjBbT.s:20467  .debug_str:000000000000619f .LASF4075
C:\Users\SOLDER~1\AppData\Local\Temp\ccqxjBbT.s:27775  .debug_str:0000000000023b85 .LASF4076
C:\Users\SOLDER~1\AppData\Local\Temp\ccqxjBbT.s:24993  .debug_str:00000000000187ed .LASF4077
C:\Users\SOLDER~1\AppData\Local\Temp\ccqxjBbT.s:27277  .debug_str:0000000000021b7f .LASF4078
C:\Users\SOLDER~1\AppData\Local\Temp\ccqxjBbT.s:19465  .debug_str:000000000000219d .LASF4079
C:\Users\SOLDER~1\AppData\Local\Temp\ccqxjBbT.s:28403  .debug_str:000000000002651b .LASF4080
C:\Users\SOLDER~1\AppData\Local\Temp\ccqxjBbT.s:27383  .debug_str:00000000000221c2 .LASF4081
C:\Users\SOLDER~1\AppData\Local\Temp\ccqxjBbT.s:23621  .debug_str:0000000000012f01 .LASF4082
C:\Users\SOLDER~1\AppData\Local\Temp\ccqxjBbT.s:28201  .debug_str:0000000000025712 .LASF4083
C:\Users\SOLDER~1\AppData\Local\Temp\ccqxjBbT.s:19867  .debug_str:0000000000003b81 .LASF4084
C:\Users\SOLDER~1\AppData\Local\Temp\ccqxjBbT.s:22797  .debug_str:000000000000fa18 .LASF4085
C:\Users\SOLDER~1\AppData\Local\Temp\ccqxjBbT.s:21713  .debug_str:000000000000b37e .LASF4086
C:\Users\SOLDER~1\AppData\Local\Temp\ccqxjBbT.s:20135  .debug_str:0000000000004c6d .LASF4087
C:\Users\SOLDER~1\AppData\Local\Temp\ccqxjBbT.s:28737  .debug_str:0000000000027af7 .LASF4088
C:\Users\SOLDER~1\AppData\Local\Temp\ccqxjBbT.s:21299  .debug_str:0000000000009842 .LASF4089
C:\Users\SOLDER~1\AppData\Local\Temp\ccqxjBbT.s:29741  .debug_str:000000000002bc36 .LASF4090
C:\Users\SOLDER~1\AppData\Local\Temp\ccqxjBbT.s:27631  .debug_str:000000000002323e .LASF4091
C:\Users\SOLDER~1\AppData\Local\Temp\ccqxjBbT.s:28907  .debug_str:0000000000028621 .LASF4092
C:\Users\SOLDER~1\AppData\Local\Temp\ccqxjBbT.s:25911  .debug_str:000000000001c2e1 .LASF4093
C:\Users\SOLDER~1\AppData\Local\Temp\ccqxjBbT.s:24043  .debug_str:0000000000014be9 .LASF4094
C:\Users\SOLDER~1\AppData\Local\Temp\ccqxjBbT.s:19949  .debug_str:000000000000409f .LASF4095
C:\Users\SOLDER~1\AppData\Local\Temp\ccqxjBbT.s:25697  .debug_str:000000000001b4f6 .LASF4096
C:\Users\SOLDER~1\AppData\Local\Temp\ccqxjBbT.s:29649  .debug_str:000000000002b642 .LASF4097
C:\Users\SOLDER~1\AppData\Local\Temp\ccqxjBbT.s:30501  .debug_str:000000000002ed90 .LASF4098
C:\Users\SOLDER~1\AppData\Local\Temp\ccqxjBbT.s:20735  .debug_str:0000000000007381 .LASF4099
C:\Users\SOLDER~1\AppData\Local\Temp\ccqxjBbT.s:29955  .debug_str:000000000002ca48 .LASF4100
C:\Users\SOLDER~1\AppData\Local\Temp\ccqxjBbT.s:30209  .debug_str:000000000002daad .LASF4101
C:\Users\SOLDER~1\AppData\Local\Temp\ccqxjBbT.s:24909  .debug_str:00000000000182ba .LASF4102
C:\Users\SOLDER~1\AppData\Local\Temp\ccqxjBbT.s:19287  .debug_str:00000000000015ed .LASF4103
C:\Users\SOLDER~1\AppData\Local\Temp\ccqxjBbT.s:20089  .debug_str:0000000000004994 .LASF4104
C:\Users\SOLDER~1\AppData\Local\Temp\ccqxjBbT.s:19917  .debug_str:0000000000003ebc .LASF4105
C:\Users\SOLDER~1\AppData\Local\Temp\ccqxjBbT.s:24985  .debug_str:000000000001877c .LASF4106
C:\Users\SOLDER~1\AppData\Local\Temp\ccqxjBbT.s:29505  .debug_str:000000000002acdb .LASF4107
C:\Users\SOLDER~1\AppData\Local\Temp\ccqxjBbT.s:24081  .debug_str:0000000000014e76 .LASF4108
C:\Users\SOLDER~1\AppData\Local\Temp\ccqxjBbT.s:20085  .debug_str:0000000000004961 .LASF4109
GAS LISTING C:\Users\SOLDER~1\AppData\Local\Temp\ccqxjBbT.s 			page 90


C:\Users\SOLDER~1\AppData\Local\Temp\ccqxjBbT.s:22305  .debug_str:000000000000da5a .LASF4110
C:\Users\SOLDER~1\AppData\Local\Temp\ccqxjBbT.s:21499  .debug_str:000000000000a57b .LASF4111
C:\Users\SOLDER~1\AppData\Local\Temp\ccqxjBbT.s:21419  .debug_str:000000000000a031 .LASF4112
C:\Users\SOLDER~1\AppData\Local\Temp\ccqxjBbT.s:30135  .debug_str:000000000002d5f1 .LASF4113
C:\Users\SOLDER~1\AppData\Local\Temp\ccqxjBbT.s:25049  .debug_str:0000000000018ba4 .LASF4114
C:\Users\SOLDER~1\AppData\Local\Temp\ccqxjBbT.s:30389  .debug_str:000000000002e638 .LASF4115
C:\Users\SOLDER~1\AppData\Local\Temp\ccqxjBbT.s:19925  .debug_str:0000000000003f2d .LASF4116
C:\Users\SOLDER~1\AppData\Local\Temp\ccqxjBbT.s:27441  .debug_str:00000000000225a4 .LASF4117
C:\Users\SOLDER~1\AppData\Local\Temp\ccqxjBbT.s:23001  .debug_str:000000000001076d .LASF4118
C:\Users\SOLDER~1\AppData\Local\Temp\ccqxjBbT.s:25001  .debug_str:0000000000018866 .LASF4119
C:\Users\SOLDER~1\AppData\Local\Temp\ccqxjBbT.s:27185  .debug_str:00000000000215b2 .LASF4120
C:\Users\SOLDER~1\AppData\Local\Temp\ccqxjBbT.s:25233  .debug_str:00000000000197cc .LASF4121
C:\Users\SOLDER~1\AppData\Local\Temp\ccqxjBbT.s:22467  .debug_str:000000000000e515 .LASF4122
C:\Users\SOLDER~1\AppData\Local\Temp\ccqxjBbT.s:30163  .debug_str:000000000002d7dd .LASF4123
C:\Users\SOLDER~1\AppData\Local\Temp\ccqxjBbT.s:21357  .debug_str:0000000000009c0b .LASF4124
C:\Users\SOLDER~1\AppData\Local\Temp\ccqxjBbT.s:20659  .debug_str:0000000000006e59 .LASF4125
C:\Users\SOLDER~1\AppData\Local\Temp\ccqxjBbT.s:28661  .debug_str:000000000002762b .LASF4126
C:\Users\SOLDER~1\AppData\Local\Temp\ccqxjBbT.s:23141  .debug_str:000000000001105a .LASF4127
C:\Users\SOLDER~1\AppData\Local\Temp\ccqxjBbT.s:20253  .debug_str:0000000000005391 .LASF4128
C:\Users\SOLDER~1\AppData\Local\Temp\ccqxjBbT.s:20591  .debug_str:00000000000069f4 .LASF4129
C:\Users\SOLDER~1\AppData\Local\Temp\ccqxjBbT.s:24325  .debug_str:0000000000015d73 .LASF4130
C:\Users\SOLDER~1\AppData\Local\Temp\ccqxjBbT.s:21729  .debug_str:000000000000b474 .LASF4131
C:\Users\SOLDER~1\AppData\Local\Temp\ccqxjBbT.s:19395  .debug_str:0000000000001d0b .LASF4132
C:\Users\SOLDER~1\AppData\Local\Temp\ccqxjBbT.s:24123  .debug_str:0000000000015105 .LASF4133
C:\Users\SOLDER~1\AppData\Local\Temp\ccqxjBbT.s:21877  .debug_str:000000000000bd6d .LASF4134
C:\Users\SOLDER~1\AppData\Local\Temp\ccqxjBbT.s:29279  .debug_str:0000000000029e58 .LASF4135
C:\Users\SOLDER~1\AppData\Local\Temp\ccqxjBbT.s:19563  .debug_str:0000000000002803 .LASF4136
C:\Users\SOLDER~1\AppData\Local\Temp\ccqxjBbT.s:21531  .debug_str:000000000000a7cf .LASF4137
C:\Users\SOLDER~1\AppData\Local\Temp\ccqxjBbT.s:26293  .debug_str:000000000001db7d .LASF4138
C:\Users\SOLDER~1\AppData\Local\Temp\ccqxjBbT.s:22157  .debug_str:000000000000d0ba .LASF4139
C:\Users\SOLDER~1\AppData\Local\Temp\ccqxjBbT.s:20293  .debug_str:00000000000055df .LASF4140
C:\Users\SOLDER~1\AppData\Local\Temp\ccqxjBbT.s:22929  .debug_str:00000000000102a1 .LASF4141
C:\Users\SOLDER~1\AppData\Local\Temp\ccqxjBbT.s:28635  .debug_str:0000000000027472 .LASF4142
C:\Users\SOLDER~1\AppData\Local\Temp\ccqxjBbT.s:27665  .debug_str:00000000000234ae .LASF4143
C:\Users\SOLDER~1\AppData\Local\Temp\ccqxjBbT.s:30443  .debug_str:000000000002e9c7 .LASF4144
C:\Users\SOLDER~1\AppData\Local\Temp\ccqxjBbT.s:24009  .debug_str:0000000000014979 .LASF4145
C:\Users\SOLDER~1\AppData\Local\Temp\ccqxjBbT.s:20791  .debug_str:00000000000076fa .LASF4146
C:\Users\SOLDER~1\AppData\Local\Temp\ccqxjBbT.s:27729  .debug_str:00000000000238b2 .LASF4147
C:\Users\SOLDER~1\AppData\Local\Temp\ccqxjBbT.s:20947  .debug_str:0000000000008136 .LASF4148
C:\Users\SOLDER~1\AppData\Local\Temp\ccqxjBbT.s:29311  .debug_str:000000000002a05d .LASF4149
C:\Users\SOLDER~1\AppData\Local\Temp\ccqxjBbT.s:27879  .debug_str:000000000002423f .LASF4150
C:\Users\SOLDER~1\AppData\Local\Temp\ccqxjBbT.s:24159  .debug_str:000000000001531b .LASF4151
C:\Users\SOLDER~1\AppData\Local\Temp\ccqxjBbT.s:22453  .debug_str:000000000000e42b .LASF4152
C:\Users\SOLDER~1\AppData\Local\Temp\ccqxjBbT.s:27471  .debug_str:00000000000227a3 .LASF4153
C:\Users\SOLDER~1\AppData\Local\Temp\ccqxjBbT.s:27667  .debug_str:00000000000234c1 .LASF4154
C:\Users\SOLDER~1\AppData\Local\Temp\ccqxjBbT.s:19665  .debug_str:0000000000002e77 .LASF4155
C:\Users\SOLDER~1\AppData\Local\Temp\ccqxjBbT.s:26931  .debug_str:000000000002052f .LASF4156
C:\Users\SOLDER~1\AppData\Local\Temp\ccqxjBbT.s:29733  .debug_str:000000000002bba4 .LASF4157
C:\Users\SOLDER~1\AppData\Local\Temp\ccqxjBbT.s:27159  .debug_str:00000000000213ef .LASF4158
C:\Users\SOLDER~1\AppData\Local\Temp\ccqxjBbT.s:25849  .debug_str:000000000001bea2 .LASF4159
C:\Users\SOLDER~1\AppData\Local\Temp\ccqxjBbT.s:20105  .debug_str:0000000000004a67 .LASF4160
C:\Users\SOLDER~1\AppData\Local\Temp\ccqxjBbT.s:19523  .debug_str:0000000000002583 .LASF4161
C:\Users\SOLDER~1\AppData\Local\Temp\ccqxjBbT.s:21615  .debug_str:000000000000ad39 .LASF4162
C:\Users\SOLDER~1\AppData\Local\Temp\ccqxjBbT.s:21671  .debug_str:000000000000b0f8 .LASF4163
C:\Users\SOLDER~1\AppData\Local\Temp\ccqxjBbT.s:29381  .debug_str:000000000002a516 .LASF4164
C:\Users\SOLDER~1\AppData\Local\Temp\ccqxjBbT.s:27385  .debug_str:00000000000221dd .LASF4165
C:\Users\SOLDER~1\AppData\Local\Temp\ccqxjBbT.s:25261  .debug_str:000000000001995b .LASF4166
GAS LISTING C:\Users\SOLDER~1\AppData\Local\Temp\ccqxjBbT.s 			page 91


C:\Users\SOLDER~1\AppData\Local\Temp\ccqxjBbT.s:19559  .debug_str:00000000000027bf .LASF4167
C:\Users\SOLDER~1\AppData\Local\Temp\ccqxjBbT.s:23463  .debug_str:00000000000124f4 .LASF4168
C:\Users\SOLDER~1\AppData\Local\Temp\ccqxjBbT.s:26913  .debug_str:00000000000203f1 .LASF4169
C:\Users\SOLDER~1\AppData\Local\Temp\ccqxjBbT.s:24479  .debug_str:0000000000016712 .LASF4170
C:\Users\SOLDER~1\AppData\Local\Temp\ccqxjBbT.s:21563  .debug_str:000000000000a9e0 .LASF4171
C:\Users\SOLDER~1\AppData\Local\Temp\ccqxjBbT.s:27705  .debug_str:0000000000023734 .LASF4172
C:\Users\SOLDER~1\AppData\Local\Temp\ccqxjBbT.s:28227  .debug_str:00000000000258f1 .LASF4173
C:\Users\SOLDER~1\AppData\Local\Temp\ccqxjBbT.s:28789  .debug_str:0000000000027e81 .LASF4174
C:\Users\SOLDER~1\AppData\Local\Temp\ccqxjBbT.s:26571  .debug_str:000000000001eddd .LASF4175
C:\Users\SOLDER~1\AppData\Local\Temp\ccqxjBbT.s:29699  .debug_str:000000000002b98d .LASF4176
C:\Users\SOLDER~1\AppData\Local\Temp\ccqxjBbT.s:25797  .debug_str:000000000001bb36 .LASF4177
C:\Users\SOLDER~1\AppData\Local\Temp\ccqxjBbT.s:29001  .debug_str:0000000000028c10 .LASF4178
C:\Users\SOLDER~1\AppData\Local\Temp\ccqxjBbT.s:30093  .debug_str:000000000002d367 .LASF4179
C:\Users\SOLDER~1\AppData\Local\Temp\ccqxjBbT.s:20179  .debug_str:0000000000004f07 .LASF4180
C:\Users\SOLDER~1\AppData\Local\Temp\ccqxjBbT.s:30335  .debug_str:000000000002e2ad .LASF4181
C:\Users\SOLDER~1\AppData\Local\Temp\ccqxjBbT.s:26707  .debug_str:000000000001f70f .LASF4182
C:\Users\SOLDER~1\AppData\Local\Temp\ccqxjBbT.s:28673  .debug_str:00000000000276f9 .LASF4183
C:\Users\SOLDER~1\AppData\Local\Temp\ccqxjBbT.s:28175  .debug_str:0000000000025575 .LASF4184
C:\Users\SOLDER~1\AppData\Local\Temp\ccqxjBbT.s:22711  .debug_str:000000000000f462 .LASF4185
C:\Users\SOLDER~1\AppData\Local\Temp\ccqxjBbT.s:25329  .debug_str:0000000000019d59 .LASF4186
C:\Users\SOLDER~1\AppData\Local\Temp\ccqxjBbT.s:20413  .debug_str:0000000000005dd9 .LASF4187
C:\Users\SOLDER~1\AppData\Local\Temp\ccqxjBbT.s:20027  .debug_str:000000000000457b .LASF4188
C:\Users\SOLDER~1\AppData\Local\Temp\ccqxjBbT.s:20691  .debug_str:00000000000070aa .LASF4189
C:\Users\SOLDER~1\AppData\Local\Temp\ccqxjBbT.s:28063  .debug_str:0000000000024e62 .LASF4190
C:\Users\SOLDER~1\AppData\Local\Temp\ccqxjBbT.s:23897  .debug_str:00000000000141da .LASF4191
C:\Users\SOLDER~1\AppData\Local\Temp\ccqxjBbT.s:30229  .debug_str:000000000002dc01 .LASF4192
C:\Users\SOLDER~1\AppData\Local\Temp\ccqxjBbT.s:27275  .debug_str:0000000000021b63 .LASF4193
C:\Users\SOLDER~1\AppData\Local\Temp\ccqxjBbT.s:20899  .debug_str:0000000000007dd5 .LASF4194
C:\Users\SOLDER~1\AppData\Local\Temp\ccqxjBbT.s:26493  .debug_str:000000000001e8b6 .LASF4195
C:\Users\SOLDER~1\AppData\Local\Temp\ccqxjBbT.s:20797  .debug_str:000000000000774c .LASF4196
C:\Users\SOLDER~1\AppData\Local\Temp\ccqxjBbT.s:20587  .debug_str:00000000000069c5 .LASF4197
C:\Users\SOLDER~1\AppData\Local\Temp\ccqxjBbT.s:29049  .debug_str:0000000000028f14 .LASF4198
C:\Users\SOLDER~1\AppData\Local\Temp\ccqxjBbT.s:19447  .debug_str:000000000000205b .LASF4199
C:\Users\SOLDER~1\AppData\Local\Temp\ccqxjBbT.s:28137  .debug_str:0000000000025306 .LASF4200
C:\Users\SOLDER~1\AppData\Local\Temp\ccqxjBbT.s:22051  .debug_str:000000000000c981 .LASF4201
C:\Users\SOLDER~1\AppData\Local\Temp\ccqxjBbT.s:25765  .debug_str:000000000001b902 .LASF4202
C:\Users\SOLDER~1\AppData\Local\Temp\ccqxjBbT.s:19083  .debug_str:0000000000000950 .LASF4203
C:\Users\SOLDER~1\AppData\Local\Temp\ccqxjBbT.s:23881  .debug_str:00000000000140db .LASF4204
C:\Users\SOLDER~1\AppData\Local\Temp\ccqxjBbT.s:23861  .debug_str:0000000000013f8b .LASF4205
C:\Users\SOLDER~1\AppData\Local\Temp\ccqxjBbT.s:21579  .debug_str:000000000000ab0e .LASF4206
C:\Users\SOLDER~1\AppData\Local\Temp\ccqxjBbT.s:21379  .debug_str:0000000000009d84 .LASF4207
C:\Users\SOLDER~1\AppData\Local\Temp\ccqxjBbT.s:28261  .debug_str:0000000000025b3d .LASF4208
C:\Users\SOLDER~1\AppData\Local\Temp\ccqxjBbT.s:23035  .debug_str:0000000000010994 .LASF4209
C:\Users\SOLDER~1\AppData\Local\Temp\ccqxjBbT.s:21583  .debug_str:000000000000ab50 .LASF4210
C:\Users\SOLDER~1\AppData\Local\Temp\ccqxjBbT.s:23839  .debug_str:0000000000013dfd .LASF4211
C:\Users\SOLDER~1\AppData\Local\Temp\ccqxjBbT.s:25143  .debug_str:00000000000191c9 .LASF4212
C:\Users\SOLDER~1\AppData\Local\Temp\ccqxjBbT.s:20481  .debug_str:0000000000006288 .LASF4213
C:\Users\SOLDER~1\AppData\Local\Temp\ccqxjBbT.s:23719  .debug_str:000000000001357d .LASF4214
C:\Users\SOLDER~1\AppData\Local\Temp\ccqxjBbT.s:21033  .debug_str:0000000000008675 .LASF4215
C:\Users\SOLDER~1\AppData\Local\Temp\ccqxjBbT.s:29159  .debug_str:000000000002967e .LASF4216
C:\Users\SOLDER~1\AppData\Local\Temp\ccqxjBbT.s:29157  .debug_str:0000000000029660 .LASF4217
C:\Users\SOLDER~1\AppData\Local\Temp\ccqxjBbT.s:19347  .debug_str:00000000000019b8 .LASF4218
C:\Users\SOLDER~1\AppData\Local\Temp\ccqxjBbT.s:27111  .debug_str:00000000000210e8 .LASF4219
C:\Users\SOLDER~1\AppData\Local\Temp\ccqxjBbT.s:28707  .debug_str:0000000000027918 .LASF4220
C:\Users\SOLDER~1\AppData\Local\Temp\ccqxjBbT.s:20999  .debug_str:0000000000008456 .LASF4221
C:\Users\SOLDER~1\AppData\Local\Temp\ccqxjBbT.s:24263  .debug_str:0000000000015990 .LASF4222
C:\Users\SOLDER~1\AppData\Local\Temp\ccqxjBbT.s:24685  .debug_str:0000000000017412 .LASF4223
GAS LISTING C:\Users\SOLDER~1\AppData\Local\Temp\ccqxjBbT.s 			page 92


C:\Users\SOLDER~1\AppData\Local\Temp\ccqxjBbT.s:19005  .debug_str:0000000000000365 .LASF4224
C:\Users\SOLDER~1\AppData\Local\Temp\ccqxjBbT.s:23999  .debug_str:00000000000148ea .LASF4225
C:\Users\SOLDER~1\AppData\Local\Temp\ccqxjBbT.s:28923  .debug_str:0000000000028753 .LASF4226
C:\Users\SOLDER~1\AppData\Local\Temp\ccqxjBbT.s:30003  .debug_str:000000000002cd51 .LASF4227
C:\Users\SOLDER~1\AppData\Local\Temp\ccqxjBbT.s:29259  .debug_str:0000000000029ce0 .LASF4228
C:\Users\SOLDER~1\AppData\Local\Temp\ccqxjBbT.s:26733  .debug_str:000000000001f895 .LASF4229
C:\Users\SOLDER~1\AppData\Local\Temp\ccqxjBbT.s:29179  .debug_str:00000000000297af .LASF4230
C:\Users\SOLDER~1\AppData\Local\Temp\ccqxjBbT.s:25011  .debug_str:0000000000018915 .LASF4231
C:\Users\SOLDER~1\AppData\Local\Temp\ccqxjBbT.s:23025  .debug_str:00000000000108e5 .LASF4232
C:\Users\SOLDER~1\AppData\Local\Temp\ccqxjBbT.s:21687  .debug_str:000000000000b1cd .LASF4233
C:\Users\SOLDER~1\AppData\Local\Temp\ccqxjBbT.s:21759  .debug_str:000000000000b656 .LASF4234
C:\Users\SOLDER~1\AppData\Local\Temp\ccqxjBbT.s:24133  .debug_str:000000000001518e .LASF4235
C:\Users\SOLDER~1\AppData\Local\Temp\ccqxjBbT.s:23955  .debug_str:00000000000145ee .LASF4236
C:\Users\SOLDER~1\AppData\Local\Temp\ccqxjBbT.s:20961  .debug_str:0000000000008200 .LASF4237
C:\Users\SOLDER~1\AppData\Local\Temp\ccqxjBbT.s:25487  .debug_str:000000000001a771 .LASF4238
C:\Users\SOLDER~1\AppData\Local\Temp\ccqxjBbT.s:23073  .debug_str:0000000000010c15 .LASF4239
C:\Users\SOLDER~1\AppData\Local\Temp\ccqxjBbT.s:29565  .debug_str:000000000002b0df .LASF4240
C:\Users\SOLDER~1\AppData\Local\Temp\ccqxjBbT.s:20975  .debug_str:00000000000082f3 .LASF4241
C:\Users\SOLDER~1\AppData\Local\Temp\ccqxjBbT.s:23633  .debug_str:0000000000012fb2 .LASF4242
C:\Users\SOLDER~1\AppData\Local\Temp\ccqxjBbT.s:20551  .debug_str:000000000000673f .LASF4243
C:\Users\SOLDER~1\AppData\Local\Temp\ccqxjBbT.s:19051  .debug_str:0000000000000670 .LASF4244
C:\Users\SOLDER~1\AppData\Local\Temp\ccqxjBbT.s:19719  .debug_str:00000000000031fe .LASF4245
C:\Users\SOLDER~1\AppData\Local\Temp\ccqxjBbT.s:27869  .debug_str:00000000000241b2 .LASF4246
C:\Users\SOLDER~1\AppData\Local\Temp\ccqxjBbT.s:19691  .debug_str:0000000000003037 .LASF4247
C:\Users\SOLDER~1\AppData\Local\Temp\ccqxjBbT.s:26799  .debug_str:000000000001fcad .LASF4248
C:\Users\SOLDER~1\AppData\Local\Temp\ccqxjBbT.s:22611  .debug_str:000000000000ee3c .LASF4249
C:\Users\SOLDER~1\AppData\Local\Temp\ccqxjBbT.s:21603  .debug_str:000000000000ac84 .LASF4250
C:\Users\SOLDER~1\AppData\Local\Temp\ccqxjBbT.s:27061  .debug_str:0000000000020d81 .LASF4251
C:\Users\SOLDER~1\AppData\Local\Temp\ccqxjBbT.s:19629  .debug_str:0000000000002c1a .LASF4252
C:\Users\SOLDER~1\AppData\Local\Temp\ccqxjBbT.s:26639  .debug_str:000000000001f260 .LASF4253
C:\Users\SOLDER~1\AppData\Local\Temp\ccqxjBbT.s:23089  .debug_str:0000000000010d0b .LASF4254
C:\Users\SOLDER~1\AppData\Local\Temp\ccqxjBbT.s:19487  .debug_str:000000000000230d .LASF4255
C:\Users\SOLDER~1\AppData\Local\Temp\ccqxjBbT.s:24233  .debug_str:000000000001580e .LASF4256
C:\Users\SOLDER~1\AppData\Local\Temp\ccqxjBbT.s:26997  .debug_str:0000000000020972 .LASF4257
C:\Users\SOLDER~1\AppData\Local\Temp\ccqxjBbT.s:29481  .debug_str:000000000002ab48 .LASF4258
C:\Users\SOLDER~1\AppData\Local\Temp\ccqxjBbT.s:24781  .debug_str:0000000000017a7a .LASF4259
C:\Users\SOLDER~1\AppData\Local\Temp\ccqxjBbT.s:24313  .debug_str:0000000000015cbe .LASF4260
C:\Users\SOLDER~1\AppData\Local\Temp\ccqxjBbT.s:22555  .debug_str:000000000000eac1 .LASF4261
C:\Users\SOLDER~1\AppData\Local\Temp\ccqxjBbT.s:29183  .debug_str:00000000000297eb .LASF4262
C:\Users\SOLDER~1\AppData\Local\Temp\ccqxjBbT.s:19943  .debug_str:0000000000004046 .LASF4263
C:\Users\SOLDER~1\AppData\Local\Temp\ccqxjBbT.s:27057  .debug_str:0000000000020d42 .LASF4264
C:\Users\SOLDER~1\AppData\Local\Temp\ccqxjBbT.s:20445  .debug_str:0000000000005ffc .LASF4265
C:\Users\SOLDER~1\AppData\Local\Temp\ccqxjBbT.s:23317  .debug_str:0000000000011bcb .LASF4266
C:\Users\SOLDER~1\AppData\Local\Temp\ccqxjBbT.s:25141  .debug_str:00000000000191ab .LASF4267
C:\Users\SOLDER~1\AppData\Local\Temp\ccqxjBbT.s:27955  .debug_str:000000000002474a .LASF4268
C:\Users\SOLDER~1\AppData\Local\Temp\ccqxjBbT.s:27221  .debug_str:00000000000217e9 .LASF4269
C:\Users\SOLDER~1\AppData\Local\Temp\ccqxjBbT.s:30303  .debug_str:000000000002e0b4 .LASF4270
C:\Users\SOLDER~1\AppData\Local\Temp\ccqxjBbT.s:28705  .debug_str:00000000000278fd .LASF4271
C:\Users\SOLDER~1\AppData\Local\Temp\ccqxjBbT.s:29521  .debug_str:000000000002add7 .LASF4272
C:\Users\SOLDER~1\AppData\Local\Temp\ccqxjBbT.s:28995  .debug_str:0000000000028bbf .LASF4273
C:\Users\SOLDER~1\AppData\Local\Temp\ccqxjBbT.s:26217  .debug_str:000000000001d6d0 .LASF4274
C:\Users\SOLDER~1\AppData\Local\Temp\ccqxjBbT.s:19197  .debug_str:0000000000001030 .LASF4275
C:\Users\SOLDER~1\AppData\Local\Temp\ccqxjBbT.s:27133  .debug_str:000000000002125d .LASF4276
C:\Users\SOLDER~1\AppData\Local\Temp\ccqxjBbT.s:20949  .debug_str:000000000000814a .LASF4277
C:\Users\SOLDER~1\AppData\Local\Temp\ccqxjBbT.s:20199  .debug_str:0000000000005039 .LASF4278
C:\Users\SOLDER~1\AppData\Local\Temp\ccqxjBbT.s:28589  .debug_str:0000000000027151 .LASF4279
C:\Users\SOLDER~1\AppData\Local\Temp\ccqxjBbT.s:19059  .debug_str:000000000000077e .LASF4280
GAS LISTING C:\Users\SOLDER~1\AppData\Local\Temp\ccqxjBbT.s 			page 93


C:\Users\SOLDER~1\AppData\Local\Temp\ccqxjBbT.s:28183  .debug_str:00000000000255db .LASF4281
C:\Users\SOLDER~1\AppData\Local\Temp\ccqxjBbT.s:19991  .debug_str:000000000000434f .LASF4282
C:\Users\SOLDER~1\AppData\Local\Temp\ccqxjBbT.s:22273  .debug_str:000000000000d85a .LASF4283
C:\Users\SOLDER~1\AppData\Local\Temp\ccqxjBbT.s:20995  .debug_str:0000000000008415 .LASF4284
C:\Users\SOLDER~1\AppData\Local\Temp\ccqxjBbT.s:29773  .debug_str:000000000002be57 .LASF4285
C:\Users\SOLDER~1\AppData\Local\Temp\ccqxjBbT.s:23133  .debug_str:0000000000010fd6 .LASF4286
C:\Users\SOLDER~1\AppData\Local\Temp\ccqxjBbT.s:19015  .debug_str:0000000000000417 .LASF4287
C:\Users\SOLDER~1\AppData\Local\Temp\ccqxjBbT.s:21277  .debug_str:00000000000096ca .LASF4288
C:\Users\SOLDER~1\AppData\Local\Temp\ccqxjBbT.s:24001  .debug_str:00000000000148fd .LASF4289
C:\Users\SOLDER~1\AppData\Local\Temp\ccqxjBbT.s:20745  .debug_str:0000000000007430 .LASF4290
C:\Users\SOLDER~1\AppData\Local\Temp\ccqxjBbT.s:21983  .debug_str:000000000000c4be .LASF4291
C:\Users\SOLDER~1\AppData\Local\Temp\ccqxjBbT.s:24975  .debug_str:00000000000186e9 .LASF4292
C:\Users\SOLDER~1\AppData\Local\Temp\ccqxjBbT.s:23911  .debug_str:00000000000142c7 .LASF4293
C:\Users\SOLDER~1\AppData\Local\Temp\ccqxjBbT.s:27321  .debug_str:0000000000021e28 .LASF4294
C:\Users\SOLDER~1\AppData\Local\Temp\ccqxjBbT.s:26409  .debug_str:000000000001e305 .LASF4295
C:\Users\SOLDER~1\AppData\Local\Temp\ccqxjBbT.s:23137  .debug_str:000000000001101d .LASF4296
C:\Users\SOLDER~1\AppData\Local\Temp\ccqxjBbT.s:24199  .debug_str:00000000000155cc .LASF4297
C:\Users\SOLDER~1\AppData\Local\Temp\ccqxjBbT.s:19251  .debug_str:0000000000001396 .LASF4298
C:\Users\SOLDER~1\AppData\Local\Temp\ccqxjBbT.s:25269  .debug_str:00000000000199cc .LASF4299
C:\Users\SOLDER~1\AppData\Local\Temp\ccqxjBbT.s:25863  .debug_str:000000000001bf84 .LASF4300
C:\Users\SOLDER~1\AppData\Local\Temp\ccqxjBbT.s:27047  .debug_str:0000000000020c86 .LASF4301
C:\Users\SOLDER~1\AppData\Local\Temp\ccqxjBbT.s:28573  .debug_str:0000000000027040 .LASF4302
C:\Users\SOLDER~1\AppData\Local\Temp\ccqxjBbT.s:22579  .debug_str:000000000000ec29 .LASF4303
C:\Users\SOLDER~1\AppData\Local\Temp\ccqxjBbT.s:23735  .debug_str:0000000000013695 .LASF4304
C:\Users\SOLDER~1\AppData\Local\Temp\ccqxjBbT.s:20261  .debug_str:000000000000540b .LASF4305
C:\Users\SOLDER~1\AppData\Local\Temp\ccqxjBbT.s:22349  .debug_str:000000000000dd06 .LASF4306
C:\Users\SOLDER~1\AppData\Local\Temp\ccqxjBbT.s:21081  .debug_str:00000000000089a5 .LASF4307
C:\Users\SOLDER~1\AppData\Local\Temp\ccqxjBbT.s:24893  .debug_str:00000000000181ad .LASF4308
C:\Users\SOLDER~1\AppData\Local\Temp\ccqxjBbT.s:30235  .debug_str:000000000002dc56 .LASF4309
C:\Users\SOLDER~1\AppData\Local\Temp\ccqxjBbT.s:19467  .debug_str:00000000000021b8 .LASF4310
C:\Users\SOLDER~1\AppData\Local\Temp\ccqxjBbT.s:24309  .debug_str:0000000000015c6e .LASF4311
C:\Users\SOLDER~1\AppData\Local\Temp\ccqxjBbT.s:28373  .debug_str:000000000002632e .LASF4312
C:\Users\SOLDER~1\AppData\Local\Temp\ccqxjBbT.s:28071  .debug_str:0000000000024eda .LASF4313
C:\Users\SOLDER~1\AppData\Local\Temp\ccqxjBbT.s:26579  .debug_str:000000000001ee56 .LASF4314
C:\Users\SOLDER~1\AppData\Local\Temp\ccqxjBbT.s:30353  .debug_str:000000000002e3d0 .LASF4315
C:\Users\SOLDER~1\AppData\Local\Temp\ccqxjBbT.s:21873  .debug_str:000000000000bd39 .LASF4316
C:\Users\SOLDER~1\AppData\Local\Temp\ccqxjBbT.s:22885  .debug_str:000000000000ffef .LASF4317
C:\Users\SOLDER~1\AppData\Local\Temp\ccqxjBbT.s:20307  .debug_str:00000000000056cc .LASF4318
C:\Users\SOLDER~1\AppData\Local\Temp\ccqxjBbT.s:25751  .debug_str:000000000001b827 .LASF4319
C:\Users\SOLDER~1\AppData\Local\Temp\ccqxjBbT.s:19321  .debug_str:000000000000181d .LASF4320
C:\Users\SOLDER~1\AppData\Local\Temp\ccqxjBbT.s:24475  .debug_str:00000000000166df .LASF4321
C:\Users\SOLDER~1\AppData\Local\Temp\ccqxjBbT.s:24099  .debug_str:0000000000014f87 .LASF4322
C:\Users\SOLDER~1\AppData\Local\Temp\ccqxjBbT.s:20859  .debug_str:0000000000007b26 .LASF4323
C:\Users\SOLDER~1\AppData\Local\Temp\ccqxjBbT.s:24363  .debug_str:0000000000015fcf .LASF4324
C:\Users\SOLDER~1\AppData\Local\Temp\ccqxjBbT.s:20435  .debug_str:0000000000005f38 .LASF4325
C:\Users\SOLDER~1\AppData\Local\Temp\ccqxjBbT.s:29719  .debug_str:000000000002babb .LASF4326
C:\Users\SOLDER~1\AppData\Local\Temp\ccqxjBbT.s:28785  .debug_str:0000000000027e3f .LASF4327
C:\Users\SOLDER~1\AppData\Local\Temp\ccqxjBbT.s:27279  .debug_str:0000000000021b91 .LASF4328
C:\Users\SOLDER~1\AppData\Local\Temp\ccqxjBbT.s:29933  .debug_str:000000000002c8d4 .LASF4329
C:\Users\SOLDER~1\AppData\Local\Temp\ccqxjBbT.s:19409  .debug_str:0000000000001de9 .LASF4330
C:\Users\SOLDER~1\AppData\Local\Temp\ccqxjBbT.s:30317  .debug_str:000000000002e1a4 .LASF4331
C:\Users\SOLDER~1\AppData\Local\Temp\ccqxjBbT.s:23235  .debug_str:00000000000116aa .LASF4332
C:\Users\SOLDER~1\AppData\Local\Temp\ccqxjBbT.s:20905  .debug_str:0000000000007e43 .LASF4333
C:\Users\SOLDER~1\AppData\Local\Temp\ccqxjBbT.s:30215  .debug_str:000000000002db18 .LASF4334
C:\Users\SOLDER~1\AppData\Local\Temp\ccqxjBbT.s:27483  .debug_str:0000000000022867 .LASF4335
C:\Users\SOLDER~1\AppData\Local\Temp\ccqxjBbT.s:26705  .debug_str:000000000001f6f4 .LASF4336
C:\Users\SOLDER~1\AppData\Local\Temp\ccqxjBbT.s:29079  .debug_str:0000000000029122 .LASF4337
GAS LISTING C:\Users\SOLDER~1\AppData\Local\Temp\ccqxjBbT.s 			page 94


C:\Users\SOLDER~1\AppData\Local\Temp\ccqxjBbT.s:23679  .debug_str:0000000000013297 .LASF4338
C:\Users\SOLDER~1\AppData\Local\Temp\ccqxjBbT.s:26715  .debug_str:000000000001f78d .LASF4339
C:\Users\SOLDER~1\AppData\Local\Temp\ccqxjBbT.s:23481  .debug_str:00000000000125fa .LASF4340
C:\Users\SOLDER~1\AppData\Local\Temp\ccqxjBbT.s:26033  .debug_str:000000000001cb1f .LASF4341
C:\Users\SOLDER~1\AppData\Local\Temp\ccqxjBbT.s:25585  .debug_str:000000000001ae18 .LASF4342
C:\Users\SOLDER~1\AppData\Local\Temp\ccqxjBbT.s:20511  .debug_str:0000000000006488 .LASF4343
C:\Users\SOLDER~1\AppData\Local\Temp\ccqxjBbT.s:26405  .debug_str:000000000001e2c8 .LASF4344
C:\Users\SOLDER~1\AppData\Local\Temp\ccqxjBbT.s:25279  .debug_str:0000000000019a2c .LASF4345
C:\Users\SOLDER~1\AppData\Local\Temp\ccqxjBbT.s:25969  .debug_str:000000000001c6d6 .LASF4346
C:\Users\SOLDER~1\AppData\Local\Temp\ccqxjBbT.s:24771  .debug_str:00000000000179cd .LASF4347
C:\Users\SOLDER~1\AppData\Local\Temp\ccqxjBbT.s:26213  .debug_str:000000000001d690 .LASF4348
C:\Users\SOLDER~1\AppData\Local\Temp\ccqxjBbT.s:24585  .debug_str:0000000000016d6f .LASF4349
C:\Users\SOLDER~1\AppData\Local\Temp\ccqxjBbT.s:24677  .debug_str:00000000000173a0 .LASF4350
C:\Users\SOLDER~1\AppData\Local\Temp\ccqxjBbT.s:27969  .debug_str:000000000002483e .LASF4351
C:\Users\SOLDER~1\AppData\Local\Temp\ccqxjBbT.s:23511  .debug_str:0000000000012825 .LASF4352
C:\Users\SOLDER~1\AppData\Local\Temp\ccqxjBbT.s:19711  .debug_str:000000000000316d .LASF4353
C:\Users\SOLDER~1\AppData\Local\Temp\ccqxjBbT.s:27875  .debug_str:00000000000241fe .LASF4354
C:\Users\SOLDER~1\AppData\Local\Temp\ccqxjBbT.s:29673  .debug_str:000000000002b7d4 .LASF4355
C:\Users\SOLDER~1\AppData\Local\Temp\ccqxjBbT.s:27521  .debug_str:0000000000022b10 .LASF4356
C:\Users\SOLDER~1\AppData\Local\Temp\ccqxjBbT.s:22629  .debug_str:000000000000ef6a .LASF4357
C:\Users\SOLDER~1\AppData\Local\Temp\ccqxjBbT.s:24429  .debug_str:000000000001640b .LASF4358
C:\Users\SOLDER~1\AppData\Local\Temp\ccqxjBbT.s:19657  .debug_str:0000000000002de7 .LASF4359
C:\Users\SOLDER~1\AppData\Local\Temp\ccqxjBbT.s:25297  .debug_str:0000000000019b64 .LASF4360
C:\Users\SOLDER~1\AppData\Local\Temp\ccqxjBbT.s:23677  .debug_str:0000000000013271 .LASF4361
C:\Users\SOLDER~1\AppData\Local\Temp\ccqxjBbT.s:25663  .debug_str:000000000001b2c8 .LASF4362
C:\Users\SOLDER~1\AppData\Local\Temp\ccqxjBbT.s:27629  .debug_str:0000000000023219 .LASF4363
C:\Users\SOLDER~1\AppData\Local\Temp\ccqxjBbT.s:22357  .debug_str:000000000000dd7b .LASF4364
C:\Users\SOLDER~1\AppData\Local\Temp\ccqxjBbT.s:22737  .debug_str:000000000000f601 .LASF4365
C:\Users\SOLDER~1\AppData\Local\Temp\ccqxjBbT.s:29637  .debug_str:000000000002b56f .LASF4366
C:\Users\SOLDER~1\AppData\Local\Temp\ccqxjBbT.s:19737  .debug_str:000000000000330e .LASF4367
C:\Users\SOLDER~1\AppData\Local\Temp\ccqxjBbT.s:21267  .debug_str:000000000000963e .LASF4368
C:\Users\SOLDER~1\AppData\Local\Temp\ccqxjBbT.s:20017  .debug_str:00000000000044df .LASF4369
C:\Users\SOLDER~1\AppData\Local\Temp\ccqxjBbT.s:21875  .debug_str:000000000000bd52 .LASF4370
C:\Users\SOLDER~1\AppData\Local\Temp\ccqxjBbT.s:23673  .debug_str:0000000000013231 .LASF4371
C:\Users\SOLDER~1\AppData\Local\Temp\ccqxjBbT.s:24711  .debug_str:00000000000175f1 .LASF4372
C:\Users\SOLDER~1\AppData\Local\Temp\ccqxjBbT.s:30375  .debug_str:000000000002e53b .LASF4373
C:\Users\SOLDER~1\AppData\Local\Temp\ccqxjBbT.s:21977  .debug_str:000000000000c455 .LASF4374
C:\Users\SOLDER~1\AppData\Local\Temp\ccqxjBbT.s:27315  .debug_str:0000000000021dc0 .LASF4375
C:\Users\SOLDER~1\AppData\Local\Temp\ccqxjBbT.s:28565  .debug_str:0000000000026fc9 .LASF4376
C:\Users\SOLDER~1\AppData\Local\Temp\ccqxjBbT.s:21001  .debug_str:0000000000008468 .LASF4377
C:\Users\SOLDER~1\AppData\Local\Temp\ccqxjBbT.s:22321  .debug_str:000000000000db1e .LASF4378
C:\Users\SOLDER~1\AppData\Local\Temp\ccqxjBbT.s:24055  .debug_str:0000000000014ca2 .LASF4379
C:\Users\SOLDER~1\AppData\Local\Temp\ccqxjBbT.s:22325  .debug_str:000000000000db58 .LASF4380
C:\Users\SOLDER~1\AppData\Local\Temp\ccqxjBbT.s:25151  .debug_str:0000000000019246 .LASF4381
C:\Users\SOLDER~1\AppData\Local\Temp\ccqxjBbT.s:24035  .debug_str:0000000000014b5e .LASF4382
C:\Users\SOLDER~1\AppData\Local\Temp\ccqxjBbT.s:25421  .debug_str:000000000001a300 .LASF4383
C:\Users\SOLDER~1\AppData\Local\Temp\ccqxjBbT.s:22205  .debug_str:000000000000d3d0 .LASF4384
C:\Users\SOLDER~1\AppData\Local\Temp\ccqxjBbT.s:26191  .debug_str:000000000001d547 .LASF4385
C:\Users\SOLDER~1\AppData\Local\Temp\ccqxjBbT.s:27993  .debug_str:00000000000249b3 .LASF4386
C:\Users\SOLDER~1\AppData\Local\Temp\ccqxjBbT.s:21153  .debug_str:0000000000008e7d .LASF4387
C:\Users\SOLDER~1\AppData\Local\Temp\ccqxjBbT.s:21537  .debug_str:000000000000a832 .LASF4388
C:\Users\SOLDER~1\AppData\Local\Temp\ccqxjBbT.s:22097  .debug_str:000000000000cca8 .LASF4389
C:\Users\SOLDER~1\AppData\Local\Temp\ccqxjBbT.s:29141  .debug_str:000000000002954b .LASF4390
C:\Users\SOLDER~1\AppData\Local\Temp\ccqxjBbT.s:25679  .debug_str:000000000001b3bf .LASF4391
C:\Users\SOLDER~1\AppData\Local\Temp\ccqxjBbT.s:23687  .debug_str:0000000000013346 .LASF4392
C:\Users\SOLDER~1\AppData\Local\Temp\ccqxjBbT.s:19111  .debug_str:0000000000000b23 .LASF4393
C:\Users\SOLDER~1\AppData\Local\Temp\ccqxjBbT.s:21119  .debug_str:0000000000008c00 .LASF4394
GAS LISTING C:\Users\SOLDER~1\AppData\Local\Temp\ccqxjBbT.s 			page 95


C:\Users\SOLDER~1\AppData\Local\Temp\ccqxjBbT.s:23933  .debug_str:0000000000014485 .LASF4395
C:\Users\SOLDER~1\AppData\Local\Temp\ccqxjBbT.s:20037  .debug_str:0000000000004622 .LASF4396
C:\Users\SOLDER~1\AppData\Local\Temp\ccqxjBbT.s:20093  .debug_str:00000000000049ca .LASF4397
C:\Users\SOLDER~1\AppData\Local\Temp\ccqxjBbT.s:30133  .debug_str:000000000002d5db .LASF4398
C:\Users\SOLDER~1\AppData\Local\Temp\ccqxjBbT.s:25023  .debug_str:00000000000189cf .LASF4399
C:\Users\SOLDER~1\AppData\Local\Temp\ccqxjBbT.s:30255  .debug_str:000000000002ddc0 .LASF4400
C:\Users\SOLDER~1\AppData\Local\Temp\ccqxjBbT.s:24467  .debug_str:000000000001665b .LASF4401
C:\Users\SOLDER~1\AppData\Local\Temp\ccqxjBbT.s:22187  .debug_str:000000000000d29e .LASF4402
C:\Users\SOLDER~1\AppData\Local\Temp\ccqxjBbT.s:21765  .debug_str:000000000000b6a6 .LASF4403
C:\Users\SOLDER~1\AppData\Local\Temp\ccqxjBbT.s:28887  .debug_str:00000000000284e7 .LASF4404
C:\Users\SOLDER~1\AppData\Local\Temp\ccqxjBbT.s:20213  .debug_str:0000000000005107 .LASF4405
C:\Users\SOLDER~1\AppData\Local\Temp\ccqxjBbT.s:23843  .debug_str:0000000000013e3f .LASF4406
C:\Users\SOLDER~1\AppData\Local\Temp\ccqxjBbT.s:25315  .debug_str:0000000000019c80 .LASF4407
C:\Users\SOLDER~1\AppData\Local\Temp\ccqxjBbT.s:25237  .debug_str:000000000001980a .LASF4408
C:\Users\SOLDER~1\AppData\Local\Temp\ccqxjBbT.s:26099  .debug_str:000000000001cf24 .LASF4409
C:\Users\SOLDER~1\AppData\Local\Temp\ccqxjBbT.s:23901  .debug_str:0000000000014218 .LASF4410
C:\Users\SOLDER~1\AppData\Local\Temp\ccqxjBbT.s:27353  .debug_str:000000000002201c .LASF4411
C:\Users\SOLDER~1\AppData\Local\Temp\ccqxjBbT.s:21123  .debug_str:0000000000008c4a .LASF4412
C:\Users\SOLDER~1\AppData\Local\Temp\ccqxjBbT.s:23009  .debug_str:00000000000107d2 .LASF4413
C:\Users\SOLDER~1\AppData\Local\Temp\ccqxjBbT.s:24499  .debug_str:0000000000016828 .LASF4414
C:\Users\SOLDER~1\AppData\Local\Temp\ccqxjBbT.s:27213  .debug_str:0000000000021758 .LASF4415
C:\Users\SOLDER~1\AppData\Local\Temp\ccqxjBbT.s:24837  .debug_str:0000000000017dba .LASF4416
C:\Users\SOLDER~1\AppData\Local\Temp\ccqxjBbT.s:27939  .debug_str:0000000000024641 .LASF4417
C:\Users\SOLDER~1\AppData\Local\Temp\ccqxjBbT.s:27771  .debug_str:0000000000023b42 .LASF4418
C:\Users\SOLDER~1\AppData\Local\Temp\ccqxjBbT.s:28311  .debug_str:0000000000025eca .LASF4419
C:\Users\SOLDER~1\AppData\Local\Temp\ccqxjBbT.s:23003  .debug_str:000000000001077d .LASF4420
C:\Users\SOLDER~1\AppData\Local\Temp\ccqxjBbT.s:23055  .debug_str:0000000000010b03 .LASF4421
C:\Users\SOLDER~1\AppData\Local\Temp\ccqxjBbT.s:19543  .debug_str:00000000000026ab .LASF4422
C:\Users\SOLDER~1\AppData\Local\Temp\ccqxjBbT.s:24619  .debug_str:0000000000016fa2 .LASF4423
C:\Users\SOLDER~1\AppData\Local\Temp\ccqxjBbT.s:19913  .debug_str:0000000000003e6d .LASF4424
C:\Users\SOLDER~1\AppData\Local\Temp\ccqxjBbT.s:19547  .debug_str:00000000000026f2 .LASF4425
C:\Users\SOLDER~1\AppData\Local\Temp\ccqxjBbT.s:21473  .debug_str:000000000000a3b6 .LASF4426
C:\Users\SOLDER~1\AppData\Local\Temp\ccqxjBbT.s:26121  .debug_str:000000000001d055 .LASF4427
C:\Users\SOLDER~1\AppData\Local\Temp\ccqxjBbT.s:25257  .debug_str:000000000001990e .LASF4428
C:\Users\SOLDER~1\AppData\Local\Temp\ccqxjBbT.s:23391  .debug_str:0000000000012063 .LASF4429
C:\Users\SOLDER~1\AppData\Local\Temp\ccqxjBbT.s:26273  .debug_str:000000000001da2a .LASF4430
C:\Users\SOLDER~1\AppData\Local\Temp\ccqxjBbT.s:20425  .debug_str:0000000000005e95 .LASF4431
C:\Users\SOLDER~1\AppData\Local\Temp\ccqxjBbT.s:24021  .debug_str:0000000000014a53 .LASF4432
C:\Users\SOLDER~1\AppData\Local\Temp\ccqxjBbT.s:26987  .debug_str:00000000000208cc .LASF4433
C:\Users\SOLDER~1\AppData\Local\Temp\ccqxjBbT.s:22847  .debug_str:000000000000fda8 .LASF4434
C:\Users\SOLDER~1\AppData\Local\Temp\ccqxjBbT.s:25509  .debug_str:000000000001a8f8 .LASF4435
C:\Users\SOLDER~1\AppData\Local\Temp\ccqxjBbT.s:30177  .debug_str:000000000002d8d2 .LASF4436
C:\Users\SOLDER~1\AppData\Local\Temp\ccqxjBbT.s:29193  .debug_str:000000000002988c .LASF4437
C:\Users\SOLDER~1\AppData\Local\Temp\ccqxjBbT.s:25263  .debug_str:0000000000019979 .LASF4438
C:\Users\SOLDER~1\AppData\Local\Temp\ccqxjBbT.s:25519  .debug_str:000000000001a983 .LASF4439
C:\Users\SOLDER~1\AppData\Local\Temp\ccqxjBbT.s:23247  .debug_str:000000000001178d .LASF4440
C:\Users\SOLDER~1\AppData\Local\Temp\ccqxjBbT.s:29991  .debug_str:000000000002cc8a .LASF4441
C:\Users\SOLDER~1\AppData\Local\Temp\ccqxjBbT.s:25231  .debug_str:00000000000197bb .LASF4442
C:\Users\SOLDER~1\AppData\Local\Temp\ccqxjBbT.s:28863  .debug_str:0000000000028365 .LASF4443
C:\Users\SOLDER~1\AppData\Local\Temp\ccqxjBbT.s:27519  .debug_str:0000000000022afc .LASF4444
C:\Users\SOLDER~1\AppData\Local\Temp\ccqxjBbT.s:22769  .debug_str:000000000000f80f .LASF4445
C:\Users\SOLDER~1\AppData\Local\Temp\ccqxjBbT.s:28145  .debug_str:000000000002538c .LASF4446
C:\Users\SOLDER~1\AppData\Local\Temp\ccqxjBbT.s:24567  .debug_str:0000000000016c88 .LASF4447
C:\Users\SOLDER~1\AppData\Local\Temp\ccqxjBbT.s:28941  .debug_str:000000000002889e .LASF4448
C:\Users\SOLDER~1\AppData\Local\Temp\ccqxjBbT.s:24477  .debug_str:0000000000016701 .LASF4449
C:\Users\SOLDER~1\AppData\Local\Temp\ccqxjBbT.s:21887  .debug_str:000000000000be08 .LASF4450
C:\Users\SOLDER~1\AppData\Local\Temp\ccqxjBbT.s:24267  .debug_str:00000000000159d5 .LASF4451
GAS LISTING C:\Users\SOLDER~1\AppData\Local\Temp\ccqxjBbT.s 			page 96


C:\Users\SOLDER~1\AppData\Local\Temp\ccqxjBbT.s:25025  .debug_str:00000000000189ef .LASF4452
C:\Users\SOLDER~1\AppData\Local\Temp\ccqxjBbT.s:22073  .debug_str:000000000000cb06 .LASF4453
C:\Users\SOLDER~1\AppData\Local\Temp\ccqxjBbT.s:25843  .debug_str:000000000001be36 .LASF4454
C:\Users\SOLDER~1\AppData\Local\Temp\ccqxjBbT.s:27343  .debug_str:0000000000021f80 .LASF4455
C:\Users\SOLDER~1\AppData\Local\Temp\ccqxjBbT.s:29043  .debug_str:0000000000028ec9 .LASF4456
C:\Users\SOLDER~1\AppData\Local\Temp\ccqxjBbT.s:27089  .debug_str:0000000000020f47 .LASF4457
C:\Users\SOLDER~1\AppData\Local\Temp\ccqxjBbT.s:25611  .debug_str:000000000001afb6 .LASF4458
C:\Users\SOLDER~1\AppData\Local\Temp\ccqxjBbT.s:23777  .debug_str:0000000000013963 .LASF4459
C:\Users\SOLDER~1\AppData\Local\Temp\ccqxjBbT.s:26083  .debug_str:000000000001ce44 .LASF4460
C:\Users\SOLDER~1\AppData\Local\Temp\ccqxjBbT.s:23417  .debug_str:0000000000012217 .LASF4461
C:\Users\SOLDER~1\AppData\Local\Temp\ccqxjBbT.s:28479  .debug_str:0000000000026a44 .LASF4462
C:\Users\SOLDER~1\AppData\Local\Temp\ccqxjBbT.s:22865  .debug_str:000000000000feb6 .LASF4463
C:\Users\SOLDER~1\AppData\Local\Temp\ccqxjBbT.s:29301  .debug_str:0000000000029fc1 .LASF4464
C:\Users\SOLDER~1\AppData\Local\Temp\ccqxjBbT.s:28179  .debug_str:000000000002559e .LASF4465
C:\Users\SOLDER~1\AppData\Local\Temp\ccqxjBbT.s:29227  .debug_str:0000000000029aaa .LASF4466
C:\Users\SOLDER~1\AppData\Local\Temp\ccqxjBbT.s:23311  .debug_str:0000000000011b75 .LASF4467
C:\Users\SOLDER~1\AppData\Local\Temp\ccqxjBbT.s:24627  .debug_str:0000000000017035 .LASF4468
C:\Users\SOLDER~1\AppData\Local\Temp\ccqxjBbT.s:25445  .debug_str:000000000001a4b7 .LASF4469
C:\Users\SOLDER~1\AppData\Local\Temp\ccqxjBbT.s:27759  .debug_str:0000000000023a71 .LASF4470
C:\Users\SOLDER~1\AppData\Local\Temp\ccqxjBbT.s:25817  .debug_str:000000000001bc5c .LASF4471
C:\Users\SOLDER~1\AppData\Local\Temp\ccqxjBbT.s:25419  .debug_str:000000000001a2e9 .LASF4472
C:\Users\SOLDER~1\AppData\Local\Temp\ccqxjBbT.s:25125  .debug_str:00000000000190c8 .LASF4473
C:\Users\SOLDER~1\AppData\Local\Temp\ccqxjBbT.s:25993  .debug_str:000000000001c866 .LASF4474
C:\Users\SOLDER~1\AppData\Local\Temp\ccqxjBbT.s:24545  .debug_str:0000000000016b22 .LASF4475
C:\Users\SOLDER~1\AppData\Local\Temp\ccqxjBbT.s:28943  .debug_str:00000000000288af .LASF4476
C:\Users\SOLDER~1\AppData\Local\Temp\ccqxjBbT.s:29707  .debug_str:000000000002b9fa .LASF4477
C:\Users\SOLDER~1\AppData\Local\Temp\ccqxjBbT.s:20151  .debug_str:0000000000004d60 .LASF4478
C:\Users\SOLDER~1\AppData\Local\Temp\ccqxjBbT.s:30107  .debug_str:000000000002d45f .LASF4479
C:\Users\SOLDER~1\AppData\Local\Temp\ccqxjBbT.s:28097  .debug_str:000000000002507f .LASF4480
C:\Users\SOLDER~1\AppData\Local\Temp\ccqxjBbT.s:29387  .debug_str:000000000002a56c .LASF4481
C:\Users\SOLDER~1\AppData\Local\Temp\ccqxjBbT.s:24707  .debug_str:00000000000175b6 .LASF4482
C:\Users\SOLDER~1\AppData\Local\Temp\ccqxjBbT.s:26283  .debug_str:000000000001daca .LASF4483
C:\Users\SOLDER~1\AppData\Local\Temp\ccqxjBbT.s:28593  .debug_str:000000000002718b .LASF4484
C:\Users\SOLDER~1\AppData\Local\Temp\ccqxjBbT.s:27299  .debug_str:0000000000021ce2 .LASF4485
C:\Users\SOLDER~1\AppData\Local\Temp\ccqxjBbT.s:27229  .debug_str:000000000002185c .LASF4486
C:\Users\SOLDER~1\AppData\Local\Temp\ccqxjBbT.s:23271  .debug_str:00000000000118e7 .LASF4487
C:\Users\SOLDER~1\AppData\Local\Temp\ccqxjBbT.s:30273  .debug_str:000000000002def8 .LASF4488
C:\Users\SOLDER~1\AppData\Local\Temp\ccqxjBbT.s:21493  .debug_str:000000000000a4f6 .LASF4489
C:\Users\SOLDER~1\AppData\Local\Temp\ccqxjBbT.s:29287  .debug_str:0000000000029eca .LASF4490
C:\Users\SOLDER~1\AppData\Local\Temp\ccqxjBbT.s:20631  .debug_str:0000000000006c64 .LASF4491
C:\Users\SOLDER~1\AppData\Local\Temp\ccqxjBbT.s:25729  .debug_str:000000000001b6fb .LASF4492
C:\Users\SOLDER~1\AppData\Local\Temp\ccqxjBbT.s:30055  .debug_str:000000000002d0db .LASF4493
C:\Users\SOLDER~1\AppData\Local\Temp\ccqxjBbT.s:29613  .debug_str:000000000002b3ef .LASF4494
C:\Users\SOLDER~1\AppData\Local\Temp\ccqxjBbT.s:25625  .debug_str:000000000001b06d .LASF4495
C:\Users\SOLDER~1\AppData\Local\Temp\ccqxjBbT.s:23767  .debug_str:00000000000138d3 .LASF4496
C:\Users\SOLDER~1\AppData\Local\Temp\ccqxjBbT.s:24343  .debug_str:0000000000015ea5 .LASF4497
C:\Users\SOLDER~1\AppData\Local\Temp\ccqxjBbT.s:23523  .debug_str:00000000000128d2 .LASF4498
C:\Users\SOLDER~1\AppData\Local\Temp\ccqxjBbT.s:29463  .debug_str:000000000002aa0f .LASF4499
C:\Users\SOLDER~1\AppData\Local\Temp\ccqxjBbT.s:24639  .debug_str:00000000000170f1 .LASF4500
C:\Users\SOLDER~1\AppData\Local\Temp\ccqxjBbT.s:28205  .debug_str:0000000000025757 .LASF4501
C:\Users\SOLDER~1\AppData\Local\Temp\ccqxjBbT.s:24769  .debug_str:0000000000017994 .LASF4502
C:\Users\SOLDER~1\AppData\Local\Temp\ccqxjBbT.s:26959  .debug_str:00000000000206f0 .LASF4503
C:\Users\SOLDER~1\AppData\Local\Temp\ccqxjBbT.s:30137  .debug_str:000000000002d60a .LASF4504
C:\Users\SOLDER~1\AppData\Local\Temp\ccqxjBbT.s:24045  .debug_str:0000000000014bfa .LASF4505
C:\Users\SOLDER~1\AppData\Local\Temp\ccqxjBbT.s:25179  .debug_str:000000000001940a .LASF4506
C:\Users\SOLDER~1\AppData\Local\Temp\ccqxjBbT.s:26361  .debug_str:000000000001dff0 .LASF4507
C:\Users\SOLDER~1\AppData\Local\Temp\ccqxjBbT.s:27447  .debug_str:0000000000022602 .LASF4508
GAS LISTING C:\Users\SOLDER~1\AppData\Local\Temp\ccqxjBbT.s 			page 97


C:\Users\SOLDER~1\AppData\Local\Temp\ccqxjBbT.s:25889  .debug_str:000000000001c134 .LASF4509
C:\Users\SOLDER~1\AppData\Local\Temp\ccqxjBbT.s:28687  .debug_str:00000000000277c6 .LASF4510
C:\Users\SOLDER~1\AppData\Local\Temp\ccqxjBbT.s:27489  .debug_str:00000000000228cc .LASF4511
C:\Users\SOLDER~1\AppData\Local\Temp\ccqxjBbT.s:19373  .debug_str:0000000000001b66 .LASF4512
C:\Users\SOLDER~1\AppData\Local\Temp\ccqxjBbT.s:28239  .debug_str:00000000000259c6 .LASF4513
C:\Users\SOLDER~1\AppData\Local\Temp\ccqxjBbT.s:20539  .debug_str:000000000000664d .LASF4514
C:\Users\SOLDER~1\AppData\Local\Temp\ccqxjBbT.s:23225  .debug_str:00000000000115f8 .LASF4515
C:\Users\SOLDER~1\AppData\Local\Temp\ccqxjBbT.s:25695  .debug_str:000000000001b4dd .LASF4516
C:\Users\SOLDER~1\AppData\Local\Temp\ccqxjBbT.s:19907  .debug_str:0000000000003e05 .LASF4517
C:\Users\SOLDER~1\AppData\Local\Temp\ccqxjBbT.s:27225  .debug_str:0000000000021825 .LASF4518
C:\Users\SOLDER~1\AppData\Local\Temp\ccqxjBbT.s:27309  .debug_str:0000000000021d5a .LASF4519
C:\Users\SOLDER~1\AppData\Local\Temp\ccqxjBbT.s:26813  .debug_str:000000000001fd77 .LASF4520
C:\Users\SOLDER~1\AppData\Local\Temp\ccqxjBbT.s:21351  .debug_str:0000000000009bac .LASF4521
C:\Users\SOLDER~1\AppData\Local\Temp\ccqxjBbT.s:24205  .debug_str:000000000001563c .LASF4522
C:\Users\SOLDER~1\AppData\Local\Temp\ccqxjBbT.s:26667  .debug_str:000000000001f432 .LASF4523
C:\Users\SOLDER~1\AppData\Local\Temp\ccqxjBbT.s:30505  .debug_str:000000000002edbe .LASF4524
C:\Users\SOLDER~1\AppData\Local\Temp\ccqxjBbT.s:26413  .debug_str:000000000001e340 .LASF4525
C:\Users\SOLDER~1\AppData\Local\Temp\ccqxjBbT.s:19243  .debug_str:00000000000012f8 .LASF4526
C:\Users\SOLDER~1\AppData\Local\Temp\ccqxjBbT.s:25769  .debug_str:000000000001b948 .LASF4527
C:\Users\SOLDER~1\AppData\Local\Temp\ccqxjBbT.s:22069  .debug_str:000000000000caca .LASF4528
C:\Users\SOLDER~1\AppData\Local\Temp\ccqxjBbT.s:28115  .debug_str:0000000000025182 .LASF4529
C:\Users\SOLDER~1\AppData\Local\Temp\ccqxjBbT.s:22265  .debug_str:000000000000d7d7 .LASF4530
C:\Users\SOLDER~1\AppData\Local\Temp\ccqxjBbT.s:29683  .debug_str:000000000002b870 .LASF4531
C:\Users\SOLDER~1\AppData\Local\Temp\ccqxjBbT.s:25107  .debug_str:0000000000018f91 .LASF4532
C:\Users\SOLDER~1\AppData\Local\Temp\ccqxjBbT.s:24135  .debug_str:00000000000151a0 .LASF4533
C:\Users\SOLDER~1\AppData\Local\Temp\ccqxjBbT.s:28061  .debug_str:0000000000024e48 .LASF4534
C:\Users\SOLDER~1\AppData\Local\Temp\ccqxjBbT.s:29217  .debug_str:00000000000299df .LASF4535
C:\Users\SOLDER~1\AppData\Local\Temp\ccqxjBbT.s:21757  .debug_str:000000000000b63a .LASF4536
C:\Users\SOLDER~1\AppData\Local\Temp\ccqxjBbT.s:27997  .debug_str:00000000000249f6 .LASF4537
C:\Users\SOLDER~1\AppData\Local\Temp\ccqxjBbT.s:27639  .debug_str:00000000000232a1 .LASF4538
C:\Users\SOLDER~1\AppData\Local\Temp\ccqxjBbT.s:26135  .debug_str:000000000001d16d .LASF4539
C:\Users\SOLDER~1\AppData\Local\Temp\ccqxjBbT.s:28309  .debug_str:0000000000025e91 .LASF4540
C:\Users\SOLDER~1\AppData\Local\Temp\ccqxjBbT.s:29771  .debug_str:000000000002be1e .LASF4541
C:\Users\SOLDER~1\AppData\Local\Temp\ccqxjBbT.s:24455  .debug_str:000000000001659e .LASF4542
C:\Users\SOLDER~1\AppData\Local\Temp\ccqxjBbT.s:20103  .debug_str:0000000000004a4d .LASF4543
C:\Users\SOLDER~1\AppData\Local\Temp\ccqxjBbT.s:22689  .debug_str:000000000000f316 .LASF4544
C:\Users\SOLDER~1\AppData\Local\Temp\ccqxjBbT.s:23697  .debug_str:00000000000133ea .LASF4545
C:\Users\SOLDER~1\AppData\Local\Temp\ccqxjBbT.s:25991  .debug_str:000000000001c82b .LASF4546
C:\Users\SOLDER~1\AppData\Local\Temp\ccqxjBbT.s:25959  .debug_str:000000000001c5f7 .LASF4547
C:\Users\SOLDER~1\AppData\Local\Temp\ccqxjBbT.s:23913  .debug_str:00000000000142e9 .LASF4548
C:\Users\SOLDER~1\AppData\Local\Temp\ccqxjBbT.s:29825  .debug_str:000000000002c20d .LASF4549
C:\Users\SOLDER~1\AppData\Local\Temp\ccqxjBbT.s:29797  .debug_str:000000000002bfff .LASF4550
C:\Users\SOLDER~1\AppData\Local\Temp\ccqxjBbT.s:28001  .debug_str:0000000000024a52 .LASF4551
C:\Users\SOLDER~1\AppData\Local\Temp\ccqxjBbT.s:22413  .debug_str:000000000000e150 .LASF4552
C:\Users\SOLDER~1\AppData\Local\Temp\ccqxjBbT.s:20543  .debug_str:00000000000066ab .LASF4553
C:\Users\SOLDER~1\AppData\Local\Temp\ccqxjBbT.s:20601  .debug_str:0000000000006a99 .LASF4554
C:\Users\SOLDER~1\AppData\Local\Temp\ccqxjBbT.s:23669  .debug_str:0000000000013201 .LASF4555
C:\Users\SOLDER~1\AppData\Local\Temp\ccqxjBbT.s:25439  .debug_str:000000000001a45f .LASF4556
C:\Users\SOLDER~1\AppData\Local\Temp\ccqxjBbT.s:25859  .debug_str:000000000001bf5a .LASF4557
C:\Users\SOLDER~1\AppData\Local\Temp\ccqxjBbT.s:24969  .debug_str:000000000001867c .LASF4558
C:\Users\SOLDER~1\AppData\Local\Temp\ccqxjBbT.s:29151  .debug_str:0000000000029609 .LASF4559
C:\Users\SOLDER~1\AppData\Local\Temp\ccqxjBbT.s:18967  .debug_str:000000000000010c .LASF4560
C:\Users\SOLDER~1\AppData\Local\Temp\ccqxjBbT.s:27285  .debug_str:0000000000021be8 .LASF4561
C:\Users\SOLDER~1\AppData\Local\Temp\ccqxjBbT.s:27031  .debug_str:0000000000020ba1 .LASF4562
C:\Users\SOLDER~1\AppData\Local\Temp\ccqxjBbT.s:24947  .debug_str:0000000000018514 .LASF4563
C:\Users\SOLDER~1\AppData\Local\Temp\ccqxjBbT.s:29663  .debug_str:000000000002b731 .LASF4564
C:\Users\SOLDER~1\AppData\Local\Temp\ccqxjBbT.s:22907  .debug_str:0000000000010143 .LASF4565
GAS LISTING C:\Users\SOLDER~1\AppData\Local\Temp\ccqxjBbT.s 			page 98


C:\Users\SOLDER~1\AppData\Local\Temp\ccqxjBbT.s:23005  .debug_str:000000000001079e .LASF4566
C:\Users\SOLDER~1\AppData\Local\Temp\ccqxjBbT.s:23109  .debug_str:0000000000010e49 .LASF4567
C:\Users\SOLDER~1\AppData\Local\Temp\ccqxjBbT.s:23259  .debug_str:0000000000011847 .LASF4568
C:\Users\SOLDER~1\AppData\Local\Temp\ccqxjBbT.s:22977  .debug_str:0000000000010602 .LASF4569
C:\Users\SOLDER~1\AppData\Local\Temp\ccqxjBbT.s:21393  .debug_str:0000000000009e78 .LASF4570
C:\Users\SOLDER~1\AppData\Local\Temp\ccqxjBbT.s:20765  .debug_str:000000000000756b .LASF4571
C:\Users\SOLDER~1\AppData\Local\Temp\ccqxjBbT.s:20057  .debug_str:0000000000004780 .LASF4572
C:\Users\SOLDER~1\AppData\Local\Temp\ccqxjBbT.s:23433  .debug_str:0000000000012311 .LASF4573
C:\Users\SOLDER~1\AppData\Local\Temp\ccqxjBbT.s:28645  .debug_str:0000000000027519 .LASF4574
C:\Users\SOLDER~1\AppData\Local\Temp\ccqxjBbT.s:24419  .debug_str:0000000000016358 .LASF4575
C:\Users\SOLDER~1\AppData\Local\Temp\ccqxjBbT.s:26115  .debug_str:000000000001cffa .LASF4576
C:\Users\SOLDER~1\AppData\Local\Temp\ccqxjBbT.s:26303  .debug_str:000000000001dc29 .LASF4577
C:\Users\SOLDER~1\AppData\Local\Temp\ccqxjBbT.s:29473  .debug_str:000000000002aaca .LASF4578
C:\Users\SOLDER~1\AppData\Local\Temp\ccqxjBbT.s:24733  .debug_str:0000000000017768 .LASF4579
C:\Users\SOLDER~1\AppData\Local\Temp\ccqxjBbT.s:29667  .debug_str:000000000002b77e .LASF4580
C:\Users\SOLDER~1\AppData\Local\Temp\ccqxjBbT.s:26295  .debug_str:000000000001db9b .LASF4581
C:\Users\SOLDER~1\AppData\Local\Temp\ccqxjBbT.s:19521  .debug_str:0000000000002571 .LASF4582
C:\Users\SOLDER~1\AppData\Local\Temp\ccqxjBbT.s:21593  .debug_str:000000000000abe0 .LASF4583
C:\Users\SOLDER~1\AppData\Local\Temp\ccqxjBbT.s:21549  .debug_str:000000000000a8f3 .LASF4584
C:\Users\SOLDER~1\AppData\Local\Temp\ccqxjBbT.s:25873  .debug_str:000000000001c035 .LASF4585
C:\Users\SOLDER~1\AppData\Local\Temp\ccqxjBbT.s:23057  .debug_str:0000000000010b23 .LASF4586
C:\Users\SOLDER~1\AppData\Local\Temp\ccqxjBbT.s:25787  .debug_str:000000000001ba87 .LASF4587
C:\Users\SOLDER~1\AppData\Local\Temp\ccqxjBbT.s:28697  .debug_str:0000000000027871 .LASF4588
C:\Users\SOLDER~1\AppData\Local\Temp\ccqxjBbT.s:21913  .debug_str:000000000000bfc4 .LASF4589
C:\Users\SOLDER~1\AppData\Local\Temp\ccqxjBbT.s:20787  .debug_str:00000000000076bf .LASF4590
C:\Users\SOLDER~1\AppData\Local\Temp\ccqxjBbT.s:24801  .debug_str:0000000000017ba3 .LASF4591
C:\Users\SOLDER~1\AppData\Local\Temp\ccqxjBbT.s:25717  .debug_str:000000000001b64d .LASF4592
C:\Users\SOLDER~1\AppData\Local\Temp\ccqxjBbT.s:20315  .debug_str:0000000000005769 .LASF4593
C:\Users\SOLDER~1\AppData\Local\Temp\ccqxjBbT.s:20885  .debug_str:0000000000007cfd .LASF4594
C:\Users\SOLDER~1\AppData\Local\Temp\ccqxjBbT.s:21089  .debug_str:0000000000008a1f .LASF4595
C:\Users\SOLDER~1\AppData\Local\Temp\ccqxjBbT.s:26443  .debug_str:000000000001e521 .LASF4596
C:\Users\SOLDER~1\AppData\Local\Temp\ccqxjBbT.s:29969  .debug_str:000000000002cb16 .LASF4597
C:\Users\SOLDER~1\AppData\Local\Temp\ccqxjBbT.s:20805  .debug_str:00000000000077a9 .LASF4600
C:\Users\SOLDER~1\AppData\Local\Temp\ccqxjBbT.s:25481  .debug_str:000000000001a703 .LASF4601
C:\Users\SOLDER~1\AppData\Local\Temp\ccqxjBbT.s:23791  .debug_str:0000000000013a75 .LASF4602
C:\Users\SOLDER~1\AppData\Local\Temp\ccqxjBbT.s:25561  .debug_str:000000000001ac52 .LASF4603
C:\Users\SOLDER~1\AppData\Local\Temp\ccqxjBbT.s:27237  .debug_str:00000000000218e2 .LASF4604
C:\Users\SOLDER~1\AppData\Local\Temp\ccqxjBbT.s:24191  .debug_str:000000000001553a .LASF4605
C:\Users\SOLDER~1\AppData\Local\Temp\ccqxjBbT.s:29575  .debug_str:000000000002b193 .LASF4606
C:\Users\SOLDER~1\AppData\Local\Temp\ccqxjBbT.s:24527  .debug_str:0000000000016a0b .LASF4607
C:\Users\SOLDER~1\AppData\Local\Temp\ccqxjBbT.s:22111  .debug_str:000000000000cd8a .LASF4608
C:\Users\SOLDER~1\AppData\Local\Temp\ccqxjBbT.s:23915  .debug_str:0000000000014323 .LASF4609
C:\Users\SOLDER~1\AppData\Local\Temp\ccqxjBbT.s:22773  .debug_str:000000000000f845 .LASF4610
C:\Users\SOLDER~1\AppData\Local\Temp\ccqxjBbT.s:29295  .debug_str:0000000000029f3d .LASF4611
C:\Users\SOLDER~1\AppData\Local\Temp\ccqxjBbT.s:30413  .debug_str:000000000002e79d .LASF4612
C:\Users\SOLDER~1\AppData\Local\Temp\ccqxjBbT.s:27769  .debug_str:0000000000023b0e .LASF4613
C:\Users\SOLDER~1\AppData\Local\Temp\ccqxjBbT.s:21483  .debug_str:000000000000a450 .LASF4614
C:\Users\SOLDER~1\AppData\Local\Temp\ccqxjBbT.s:23681  .debug_str:00000000000132af .LASF4615
C:\Users\SOLDER~1\AppData\Local\Temp\ccqxjBbT.s:27753  .debug_str:00000000000239f4 .LASF4616
C:\Users\SOLDER~1\AppData\Local\Temp\ccqxjBbT.s:20663  .debug_str:0000000000006e91 .LASF4617
C:\Users\SOLDER~1\AppData\Local\Temp\ccqxjBbT.s:26689  .debug_str:000000000001f5d4 .LASF4618
C:\Users\SOLDER~1\AppData\Local\Temp\ccqxjBbT.s:19893  .debug_str:0000000000003d12 .LASF4619
C:\Users\SOLDER~1\AppData\Local\Temp\ccqxjBbT.s:28413  .debug_str:00000000000265a4 .LASF4620
C:\Users\SOLDER~1\AppData\Local\Temp\ccqxjBbT.s:21079  .debug_str:0000000000008971 .LASF4621
C:\Users\SOLDER~1\AppData\Local\Temp\ccqxjBbT.s:28467  .debug_str:000000000002694e .LASF4622
C:\Users\SOLDER~1\AppData\Local\Temp\ccqxjBbT.s:20671  .debug_str:0000000000006f3d .LASF4623
C:\Users\SOLDER~1\AppData\Local\Temp\ccqxjBbT.s:19633  .debug_str:0000000000002c57 .LASF4624
GAS LISTING C:\Users\SOLDER~1\AppData\Local\Temp\ccqxjBbT.s 			page 99


C:\Users\SOLDER~1\AppData\Local\Temp\ccqxjBbT.s:21697  .debug_str:000000000000b26a .LASF4625
C:\Users\SOLDER~1\AppData\Local\Temp\ccqxjBbT.s:21821  .debug_str:000000000000b9e4 .LASF4626
C:\Users\SOLDER~1\AppData\Local\Temp\ccqxjBbT.s:27905  .debug_str:00000000000243e8 .LASF4627
C:\Users\SOLDER~1\AppData\Local\Temp\ccqxjBbT.s:29041  .debug_str:0000000000028eab .LASF4628
C:\Users\SOLDER~1\AppData\Local\Temp\ccqxjBbT.s:24891  .debug_str:000000000001818f .LASF4629
C:\Users\SOLDER~1\AppData\Local\Temp\ccqxjBbT.s:22903  .debug_str:0000000000010113 .LASF4630
C:\Users\SOLDER~1\AppData\Local\Temp\ccqxjBbT.s:29453  .debug_str:000000000002a976 .LASF4631
C:\Users\SOLDER~1\AppData\Local\Temp\ccqxjBbT.s:24563  .debug_str:0000000000016c46 .LASF4632
C:\Users\SOLDER~1\AppData\Local\Temp\ccqxjBbT.s:26539  .debug_str:000000000001ebc9 .LASF4633
C:\Users\SOLDER~1\AppData\Local\Temp\ccqxjBbT.s:23891  .debug_str:0000000000014185 .LASF4634
C:\Users\SOLDER~1\AppData\Local\Temp\ccqxjBbT.s:21269  .debug_str:0000000000009658 .LASF4635
C:\Users\SOLDER~1\AppData\Local\Temp\ccqxjBbT.s:26429  .debug_str:000000000001e42c .LASF4636
C:\Users\SOLDER~1\AppData\Local\Temp\ccqxjBbT.s:27401  .debug_str:00000000000222d0 .LASF4637
C:\Users\SOLDER~1\AppData\Local\Temp\ccqxjBbT.s:26239  .debug_str:000000000001d824 .LASF4638
C:\Users\SOLDER~1\AppData\Local\Temp\ccqxjBbT.s:30091  .debug_str:000000000002d348 .LASF4639
C:\Users\SOLDER~1\AppData\Local\Temp\ccqxjBbT.s:27367  .debug_str:00000000000220ee .LASF4640
C:\Users\SOLDER~1\AppData\Local\Temp\ccqxjBbT.s:18971  .debug_str:0000000000000130 .LASF4641
C:\Users\SOLDER~1\AppData\Local\Temp\ccqxjBbT.s:24669  .debug_str:0000000000017314 .LASF4642
C:\Users\SOLDER~1\AppData\Local\Temp\ccqxjBbT.s:23761  .debug_str:0000000000013864 .LASF4643
C:\Users\SOLDER~1\AppData\Local\Temp\ccqxjBbT.s:23737  .debug_str:00000000000136ae .LASF4644
C:\Users\SOLDER~1\AppData\Local\Temp\ccqxjBbT.s:23739  .debug_str:00000000000136df .LASF4645
C:\Users\SOLDER~1\AppData\Local\Temp\ccqxjBbT.s:29291  .debug_str:0000000000029ef8 .LASF4646
C:\Users\SOLDER~1\AppData\Local\Temp\ccqxjBbT.s:22017  .debug_str:000000000000c712 .LASF4647
C:\Users\SOLDER~1\AppData\Local\Temp\ccqxjBbT.s:30527  .debug_str:000000000002ef1c .LASF4648
C:\Users\SOLDER~1\AppData\Local\Temp\ccqxjBbT.s:27355  .debug_str:000000000002203c .LASF4649
C:\Users\SOLDER~1\AppData\Local\Temp\ccqxjBbT.s:22245  .debug_str:000000000000d678 .LASF4650
C:\Users\SOLDER~1\AppData\Local\Temp\ccqxjBbT.s:26347  .debug_str:000000000001df3e .LASF4651
C:\Users\SOLDER~1\AppData\Local\Temp\ccqxjBbT.s:22277  .debug_str:000000000000d89d .LASF4652
C:\Users\SOLDER~1\AppData\Local\Temp\ccqxjBbT.s:25793  .debug_str:000000000001bae1 .LASF4653
C:\Users\SOLDER~1\AppData\Local\Temp\ccqxjBbT.s:27407  .debug_str:0000000000022347 .LASF4654
C:\Users\SOLDER~1\AppData\Local\Temp\ccqxjBbT.s:22115  .debug_str:000000000000cdde .LASF4655
C:\Users\SOLDER~1\AppData\Local\Temp\ccqxjBbT.s:19405  .debug_str:0000000000001da0 .LASF4656
C:\Users\SOLDER~1\AppData\Local\Temp\ccqxjBbT.s:22145  .debug_str:000000000000cfb4 .LASF4657
C:\Users\SOLDER~1\AppData\Local\Temp\ccqxjBbT.s:25425  .debug_str:000000000001a348 .LASF4658
C:\Users\SOLDER~1\AppData\Local\Temp\ccqxjBbT.s:27641  .debug_str:00000000000232db .LASF4659
C:\Users\SOLDER~1\AppData\Local\Temp\ccqxjBbT.s:23807  .debug_str:0000000000013ba7 .LASF4660
C:\Users\SOLDER~1\AppData\Local\Temp\ccqxjBbT.s:20983  .debug_str:000000000000834c .LASF4661
C:\Users\SOLDER~1\AppData\Local\Temp\ccqxjBbT.s:25871  .debug_str:000000000001bffd .LASF4662
C:\Users\SOLDER~1\AppData\Local\Temp\ccqxjBbT.s:22831  .debug_str:000000000000fc75 .LASF4663
C:\Users\SOLDER~1\AppData\Local\Temp\ccqxjBbT.s:21375  .debug_str:0000000000009d1d .LASF4664
C:\Users\SOLDER~1\AppData\Local\Temp\ccqxjBbT.s:22087  .debug_str:000000000000cbe8 .LASF4665
C:\Users\SOLDER~1\AppData\Local\Temp\ccqxjBbT.s:29253  .debug_str:0000000000029c63 .LASF4666
C:\Users\SOLDER~1\AppData\Local\Temp\ccqxjBbT.s:26025  .debug_str:000000000001ca76 .LASF4667
C:\Users\SOLDER~1\AppData\Local\Temp\ccqxjBbT.s:25345  .debug_str:0000000000019e3e .LASF4668
C:\Users\SOLDER~1\AppData\Local\Temp\ccqxjBbT.s:18959  .debug_str:000000000000006c .LASF4669
C:\Users\SOLDER~1\AppData\Local\Temp\ccqxjBbT.s:23355  .debug_str:0000000000011e25 .LASF4670
C:\Users\SOLDER~1\AppData\Local\Temp\ccqxjBbT.s:25209  .debug_str:0000000000019627 .LASF4671
C:\Users\SOLDER~1\AppData\Local\Temp\ccqxjBbT.s:29811  .debug_str:000000000002c11a .LASF4672
C:\Users\SOLDER~1\AppData\Local\Temp\ccqxjBbT.s:19257  .debug_str:00000000000013f0 .LASF4673
C:\Users\SOLDER~1\AppData\Local\Temp\ccqxjBbT.s:19045  .debug_str:0000000000000601 .LASF4674
C:\Users\SOLDER~1\AppData\Local\Temp\ccqxjBbT.s:20561  .debug_str:0000000000006801 .LASF4675
C:\Users\SOLDER~1\AppData\Local\Temp\ccqxjBbT.s:22423  .debug_str:000000000000e213 .LASF4676
C:\Users\SOLDER~1\AppData\Local\Temp\ccqxjBbT.s:19387  .debug_str:0000000000001c64 .LASF4677
C:\Users\SOLDER~1\AppData\Local\Temp\ccqxjBbT.s:19293  .debug_str:0000000000001641 .LASF4678
C:\Users\SOLDER~1\AppData\Local\Temp\ccqxjBbT.s:26687  .debug_str:000000000001f593 .LASF4679
C:\Users\SOLDER~1\AppData\Local\Temp\ccqxjBbT.s:24425  .debug_str:00000000000163af .LASF4680
C:\Users\SOLDER~1\AppData\Local\Temp\ccqxjBbT.s:20059  .debug_str:0000000000004793 .LASF4681
GAS LISTING C:\Users\SOLDER~1\AppData\Local\Temp\ccqxjBbT.s 			page 100


C:\Users\SOLDER~1\AppData\Local\Temp\ccqxjBbT.s:23497  .debug_str:0000000000012727 .LASF4682
C:\Users\SOLDER~1\AppData\Local\Temp\ccqxjBbT.s:22809  .debug_str:000000000000fae6 .LASF4683
C:\Users\SOLDER~1\AppData\Local\Temp\ccqxjBbT.s:20933  .debug_str:000000000000801f .LASF4684
C:\Users\SOLDER~1\AppData\Local\Temp\ccqxjBbT.s:27949  .debug_str:00000000000246e8 .LASF4685
C:\Users\SOLDER~1\AppData\Local\Temp\ccqxjBbT.s:24063  .debug_str:0000000000014d35 .LASF4686
C:\Users\SOLDER~1\AppData\Local\Temp\ccqxjBbT.s:19649  .debug_str:0000000000002d68 .LASF4687
C:\Users\SOLDER~1\AppData\Local\Temp\ccqxjBbT.s:20567  .debug_str:000000000000688d .LASF4688
C:\Users\SOLDER~1\AppData\Local\Temp\ccqxjBbT.s:19353  .debug_str:0000000000001a1c .LASF4689
C:\Users\SOLDER~1\AppData\Local\Temp\ccqxjBbT.s:21985  .debug_str:000000000000c4e0 .LASF4690
C:\Users\SOLDER~1\AppData\Local\Temp\ccqxjBbT.s:29249  .debug_str:0000000000029c25 .LASF4691
C:\Users\SOLDER~1\AppData\Local\Temp\ccqxjBbT.s:28717  .debug_str:00000000000279ac .LASF4692
C:\Users\SOLDER~1\AppData\Local\Temp\ccqxjBbT.s:26183  .debug_str:000000000001d4bd .LASF4693
C:\Users\SOLDER~1\AppData\Local\Temp\ccqxjBbT.s:28781  .debug_str:0000000000027dfe .LASF4694
C:\Users\SOLDER~1\AppData\Local\Temp\ccqxjBbT.s:26775  .debug_str:000000000001fb23 .LASF4695
C:\Users\SOLDER~1\AppData\Local\Temp\ccqxjBbT.s:28237  .debug_str:0000000000025994 .LASF4696
C:\Users\SOLDER~1\AppData\Local\Temp\ccqxjBbT.s:26783  .debug_str:000000000001fba5 .LASF4697
C:\Users\SOLDER~1\AppData\Local\Temp\ccqxjBbT.s:26627  .debug_str:000000000001f18e .LASF4698
C:\Users\SOLDER~1\AppData\Local\Temp\ccqxjBbT.s:27479  .debug_str:0000000000022826 .LASF4699
C:\Users\SOLDER~1\AppData\Local\Temp\ccqxjBbT.s:29045  .debug_str:0000000000028ee0 .LASF4700
C:\Users\SOLDER~1\AppData\Local\Temp\ccqxjBbT.s:26223  .debug_str:000000000001d71c .LASF4701
C:\Users\SOLDER~1\AppData\Local\Temp\ccqxjBbT.s:19329  .debug_str:0000000000001875 .LASF4702
C:\Users\SOLDER~1\AppData\Local\Temp\ccqxjBbT.s:24047  .debug_str:0000000000014c31 .LASF4703
C:\Users\SOLDER~1\AppData\Local\Temp\ccqxjBbT.s:22505  .debug_str:000000000000e767 .LASF4704
C:\Users\SOLDER~1\AppData\Local\Temp\ccqxjBbT.s:29543  .debug_str:000000000002af2d .LASF4705
C:\Users\SOLDER~1\AppData\Local\Temp\ccqxjBbT.s:26045  .debug_str:000000000001cbfd .LASF4706
C:\Users\SOLDER~1\AppData\Local\Temp\ccqxjBbT.s:21319  .debug_str:00000000000099b9 .LASF4707
C:\Users\SOLDER~1\AppData\Local\Temp\ccqxjBbT.s:19639  .debug_str:0000000000002cc6 .LASF4708
C:\Users\SOLDER~1\AppData\Local\Temp\ccqxjBbT.s:19591  .debug_str:00000000000029fe .LASF4709
C:\Users\SOLDER~1\AppData\Local\Temp\ccqxjBbT.s:27953  .debug_str:000000000002472e .LASF4710
C:\Users\SOLDER~1\AppData\Local\Temp\ccqxjBbT.s:24855  .debug_str:0000000000017eff .LASF4711
C:\Users\SOLDER~1\AppData\Local\Temp\ccqxjBbT.s:24353  .debug_str:0000000000015f23 .LASF4712
C:\Users\SOLDER~1\AppData\Local\Temp\ccqxjBbT.s:23273  .debug_str:0000000000011900 .LASF4713
C:\Users\SOLDER~1\AppData\Local\Temp\ccqxjBbT.s:21761  .debug_str:000000000000b673 .LASF4714
C:\Users\SOLDER~1\AppData\Local\Temp\ccqxjBbT.s:24929  .debug_str:00000000000183f4 .LASF4715
C:\Users\SOLDER~1\AppData\Local\Temp\ccqxjBbT.s:25931  .debug_str:000000000001c439 .LASF4716
C:\Users\SOLDER~1\AppData\Local\Temp\ccqxjBbT.s:26903  .debug_str:0000000000020343 .LASF4717
C:\Users\SOLDER~1\AppData\Local\Temp\ccqxjBbT.s:24787  .debug_str:0000000000017ad4 .LASF4718
C:\Users\SOLDER~1\AppData\Local\Temp\ccqxjBbT.s:25577  .debug_str:000000000001ad8b .LASF4719
C:\Users\SOLDER~1\AppData\Local\Temp\ccqxjBbT.s:22995  .debug_str:000000000001070b .LASF4720
C:\Users\SOLDER~1\AppData\Local\Temp\ccqxjBbT.s:30435  .debug_str:000000000002e941 .LASF4721
C:\Users\SOLDER~1\AppData\Local\Temp\ccqxjBbT.s:29511  .debug_str:000000000002ad3f .LASF4722
C:\Users\SOLDER~1\AppData\Local\Temp\ccqxjBbT.s:28599  .debug_str:00000000000271f5 .LASF4723
C:\Users\SOLDER~1\AppData\Local\Temp\ccqxjBbT.s:29033  .debug_str:0000000000028e28 .LASF4724
C:\Users\SOLDER~1\AppData\Local\Temp\ccqxjBbT.s:27473  .debug_str:00000000000227c3 .LASF4725
C:\Users\SOLDER~1\AppData\Local\Temp\ccqxjBbT.s:23399  .debug_str:00000000000120f4 .LASF4726
C:\Users\SOLDER~1\AppData\Local\Temp\ccqxjBbT.s:25137  .debug_str:000000000001916e .LASF4727
C:\Users\SOLDER~1\AppData\Local\Temp\ccqxjBbT.s:19141  .debug_str:0000000000000d4d .LASF4728
C:\Users\SOLDER~1\AppData\Local\Temp\ccqxjBbT.s:26573  .debug_str:000000000001edfa .LASF4729
C:\Users\SOLDER~1\AppData\Local\Temp\ccqxjBbT.s:21249  .debug_str:000000000000952b .LASF4730
C:\Users\SOLDER~1\AppData\Local\Temp\ccqxjBbT.s:26619  .debug_str:000000000001f109 .LASF4731
C:\Users\SOLDER~1\AppData\Local\Temp\ccqxjBbT.s:25227  .debug_str:000000000001978b .LASF4732
C:\Users\SOLDER~1\AppData\Local\Temp\ccqxjBbT.s:28849  .debug_str:000000000002827a .LASF4733
C:\Users\SOLDER~1\AppData\Local\Temp\ccqxjBbT.s:21321  .debug_str:00000000000099d4 .LASF4734
C:\Users\SOLDER~1\AppData\Local\Temp\ccqxjBbT.s:28487  .debug_str:0000000000026ad0 .LASF4735
C:\Users\SOLDER~1\AppData\Local\Temp\ccqxjBbT.s:27459  .debug_str:00000000000226ca .LASF4736
C:\Users\SOLDER~1\AppData\Local\Temp\ccqxjBbT.s:29873  .debug_str:000000000002c512 .LASF4737
C:\Users\SOLDER~1\AppData\Local\Temp\ccqxjBbT.s:27679  .debug_str:0000000000023570 .LASF4738
GAS LISTING C:\Users\SOLDER~1\AppData\Local\Temp\ccqxjBbT.s 			page 101


C:\Users\SOLDER~1\AppData\Local\Temp\ccqxjBbT.s:28713  .debug_str:000000000002796b .LASF4739
C:\Users\SOLDER~1\AppData\Local\Temp\ccqxjBbT.s:29163  .debug_str:00000000000296bd .LASF4740
C:\Users\SOLDER~1\AppData\Local\Temp\ccqxjBbT.s:21735  .debug_str:000000000000b4fa .LASF4741
C:\Users\SOLDER~1\AppData\Local\Temp\ccqxjBbT.s:20437  .debug_str:0000000000005f5e .LASF4742
C:\Users\SOLDER~1\AppData\Local\Temp\ccqxjBbT.s:19795  .debug_str:00000000000036c4 .LASF4743
C:\Users\SOLDER~1\AppData\Local\Temp\ccqxjBbT.s:28641  .debug_str:00000000000274d6 .LASF4744
C:\Users\SOLDER~1\AppData\Local\Temp\ccqxjBbT.s:22335  .debug_str:000000000000dbe6 .LASF4745
C:\Users\SOLDER~1\AppData\Local\Temp\ccqxjBbT.s:19855  .debug_str:0000000000003ab5 .LASF4746
C:\Users\SOLDER~1\AppData\Local\Temp\ccqxjBbT.s:19961  .debug_str:000000000000417b .LASF4747
C:\Users\SOLDER~1\AppData\Local\Temp\ccqxjBbT.s:27697  .debug_str:000000000002369a .LASF4748
C:\Users\SOLDER~1\AppData\Local\Temp\ccqxjBbT.s:28037  .debug_str:0000000000024cb0 .LASF4749
C:\Users\SOLDER~1\AppData\Local\Temp\ccqxjBbT.s:23627  .debug_str:0000000000012f65 .LASF4750
C:\Users\SOLDER~1\AppData\Local\Temp\ccqxjBbT.s:19385  .debug_str:0000000000001c3e .LASF4751
C:\Users\SOLDER~1\AppData\Local\Temp\ccqxjBbT.s:28219  .debug_str:000000000002586a .LASF4752
C:\Users\SOLDER~1\AppData\Local\Temp\ccqxjBbT.s:22269  .debug_str:000000000000d81a .LASF4753
C:\Users\SOLDER~1\AppData\Local\Temp\ccqxjBbT.s:19229  .debug_str:000000000000123e .LASF4754
C:\Users\SOLDER~1\AppData\Local\Temp\ccqxjBbT.s:27673  .debug_str:000000000002351d .LASF4755
C:\Users\SOLDER~1\AppData\Local\Temp\ccqxjBbT.s:29433  .debug_str:000000000002a84e .LASF4756
C:\Users\SOLDER~1\AppData\Local\Temp\ccqxjBbT.s:22707  .debug_str:000000000000f441 .LASF4757
C:\Users\SOLDER~1\AppData\Local\Temp\ccqxjBbT.s:21889  .debug_str:000000000000be1b .LASF4758
C:\Users\SOLDER~1\AppData\Local\Temp\ccqxjBbT.s:28107  .debug_str:0000000000025101 .LASF4759
C:\Users\SOLDER~1\AppData\Local\Temp\ccqxjBbT.s:25101  .debug_str:0000000000018f2b .LASF4760
C:\Users\SOLDER~1\AppData\Local\Temp\ccqxjBbT.s:19107  .debug_str:0000000000000ae5 .LASF4761
C:\Users\SOLDER~1\AppData\Local\Temp\ccqxjBbT.s:30509  .debug_str:000000000002edfb .LASF4762
C:\Users\SOLDER~1\AppData\Local\Temp\ccqxjBbT.s:27371  .debug_str:0000000000022132 .LASF4763
C:\Users\SOLDER~1\AppData\Local\Temp\ccqxjBbT.s:27843  .debug_str:0000000000023fda .LASF4764
C:\Users\SOLDER~1\AppData\Local\Temp\ccqxjBbT.s:20221  .debug_str:0000000000005199 .LASF4765
C:\Users\SOLDER~1\AppData\Local\Temp\ccqxjBbT.s:22727  .debug_str:000000000000f56a .LASF4766
C:\Users\SOLDER~1\AppData\Local\Temp\ccqxjBbT.s:28103  .debug_str:00000000000250cb .LASF4767
C:\Users\SOLDER~1\AppData\Local\Temp\ccqxjBbT.s:25097  .debug_str:0000000000018eeb .LASF4768
C:\Users\SOLDER~1\AppData\Local\Temp\ccqxjBbT.s:21965  .debug_str:000000000000c377 .LASF4769
C:\Users\SOLDER~1\AppData\Local\Temp\ccqxjBbT.s:21235  .debug_str:000000000000941d .LASF4770
C:\Users\SOLDER~1\AppData\Local\Temp\ccqxjBbT.s:21161  .debug_str:0000000000008f0f .LASF4771
C:\Users\SOLDER~1\AppData\Local\Temp\ccqxjBbT.s:24367  .debug_str:000000000001600c .LASF4772
C:\Users\SOLDER~1\AppData\Local\Temp\ccqxjBbT.s:26647  .debug_str:000000000001f2ec .LASF4773
C:\Users\SOLDER~1\AppData\Local\Temp\ccqxjBbT.s:23569  .debug_str:0000000000012b73 .LASF4774
C:\Users\SOLDER~1\AppData\Local\Temp\ccqxjBbT.s:30127  .debug_str:000000000002d57a .LASF4775
C:\Users\SOLDER~1\AppData\Local\Temp\ccqxjBbT.s:26709  .debug_str:000000000001f722 .LASF4776
C:\Users\SOLDER~1\AppData\Local\Temp\ccqxjBbT.s:22739  .debug_str:000000000000f624 .LASF4777
C:\Users\SOLDER~1\AppData\Local\Temp\ccqxjBbT.s:22663  .debug_str:000000000000f18a .LASF4778
C:\Users\SOLDER~1\AppData\Local\Temp\ccqxjBbT.s:19755  .debug_str:000000000000345b .LASF4779
C:\Users\SOLDER~1\AppData\Local\Temp\ccqxjBbT.s:28231  .debug_str:0000000000025934 .LASF4780
C:\Users\SOLDER~1\AppData\Local\Temp\ccqxjBbT.s:19277  .debug_str:000000000000154e .LASF4781
C:\Users\SOLDER~1\AppData\Local\Temp\ccqxjBbT.s:19881  .debug_str:0000000000003c5d .LASF4782
C:\Users\SOLDER~1\AppData\Local\Temp\ccqxjBbT.s:26417  .debug_str:000000000001e373 .LASF4783
C:\Users\SOLDER~1\AppData\Local\Temp\ccqxjBbT.s:20287  .debug_str:0000000000005583 .LASF4784
C:\Users\SOLDER~1\AppData\Local\Temp\ccqxjBbT.s:29519  .debug_str:000000000002adb6 .LASF4785
C:\Users\SOLDER~1\AppData\Local\Temp\ccqxjBbT.s:29785  .debug_str:000000000002bf2b .LASF4786
C:\Users\SOLDER~1\AppData\Local\Temp\ccqxjBbT.s:22497  .debug_str:000000000000e6da .LASF4787
C:\Users\SOLDER~1\AppData\Local\Temp\ccqxjBbT.s:26649  .debug_str:000000000001f308 .LASF4788
C:\Users\SOLDER~1\AppData\Local\Temp\ccqxjBbT.s:22395  .debug_str:000000000000dff9 .LASF4789
C:\Users\SOLDER~1\AppData\Local\Temp\ccqxjBbT.s:21803  .debug_str:000000000000b8c3 .LASF4790
C:\Users\SOLDER~1\AppData\Local\Temp\ccqxjBbT.s:27039  .debug_str:0000000000020c26 .LASF4791
C:\Users\SOLDER~1\AppData\Local\Temp\ccqxjBbT.s:19401  .debug_str:0000000000001d6c .LASF4792
C:\Users\SOLDER~1\AppData\Local\Temp\ccqxjBbT.s:25545  .debug_str:000000000001ab1d .LASF4793
C:\Users\SOLDER~1\AppData\Local\Temp\ccqxjBbT.s:30425  .debug_str:000000000002e87a .LASF4794
C:\Users\SOLDER~1\AppData\Local\Temp\ccqxjBbT.s:21501  .debug_str:000000000000a594 .LASF4795
GAS LISTING C:\Users\SOLDER~1\AppData\Local\Temp\ccqxjBbT.s 			page 102


C:\Users\SOLDER~1\AppData\Local\Temp\ccqxjBbT.s:30451  .debug_str:000000000002ea53 .LASF4796
C:\Users\SOLDER~1\AppData\Local\Temp\ccqxjBbT.s:19923  .debug_str:0000000000003f0c .LASF4797
C:\Users\SOLDER~1\AppData\Local\Temp\ccqxjBbT.s:28561  .debug_str:0000000000026f94 .LASF4798
C:\Users\SOLDER~1\AppData\Local\Temp\ccqxjBbT.s:28773  .debug_str:0000000000027d7f .LASF4799
C:\Users\SOLDER~1\AppData\Local\Temp\ccqxjBbT.s:21063  .debug_str:0000000000008860 .LASF4800
C:\Users\SOLDER~1\AppData\Local\Temp\ccqxjBbT.s:21511  .debug_str:000000000000a64b .LASF4801
C:\Users\SOLDER~1\AppData\Local\Temp\ccqxjBbT.s:29451  .debug_str:000000000002a94f .LASF4802
C:\Users\SOLDER~1\AppData\Local\Temp\ccqxjBbT.s:24597  .debug_str:0000000000016e24 .LASF4803
C:\Users\SOLDER~1\AppData\Local\Temp\ccqxjBbT.s:19781  .debug_str:00000000000035d7 .LASF4804
C:\Users\SOLDER~1\AppData\Local\Temp\ccqxjBbT.s:21893  .debug_str:000000000000be5c .LASF4805
C:\Users\SOLDER~1\AppData\Local\Temp\ccqxjBbT.s:23013  .debug_str:0000000000010803 .LASF4806
C:\Users\SOLDER~1\AppData\Local\Temp\ccqxjBbT.s:29123  .debug_str:0000000000029404 .LASF4807
C:\Users\SOLDER~1\AppData\Local\Temp\ccqxjBbT.s:20635  .debug_str:0000000000006ca0 .LASF4808
C:\Users\SOLDER~1\AppData\Local\Temp\ccqxjBbT.s:27415  .debug_str:00000000000223ce .LASF4809
C:\Users\SOLDER~1\AppData\Local\Temp\ccqxjBbT.s:22821  .debug_str:000000000000fbb1 .LASF4810
C:\Users\SOLDER~1\AppData\Local\Temp\ccqxjBbT.s:27023  .debug_str:0000000000020b32 .LASF4811
C:\Users\SOLDER~1\AppData\Local\Temp\ccqxjBbT.s:30001  .debug_str:000000000002cd2c .LASF4812
C:\Users\SOLDER~1\AppData\Local\Temp\ccqxjBbT.s:20483  .debug_str:000000000000629b .LASF4813
C:\Users\SOLDER~1\AppData\Local\Temp\ccqxjBbT.s:28009  .debug_str:0000000000024af6 .LASF4814
C:\Users\SOLDER~1\AppData\Local\Temp\ccqxjBbT.s:21191  .debug_str:000000000000911e .LASF4815
C:\Users\SOLDER~1\AppData\Local\Temp\ccqxjBbT.s:22835  .debug_str:000000000000fcd3 .LASF4816
C:\Users\SOLDER~1\AppData\Local\Temp\ccqxjBbT.s:25693  .debug_str:000000000001b4b8 .LASF4817
C:\Users\SOLDER~1\AppData\Local\Temp\ccqxjBbT.s:30259  .debug_str:000000000002ddf1 .LASF4818
C:\Users\SOLDER~1\AppData\Local\Temp\ccqxjBbT.s:29571  .debug_str:000000000002b141 .LASF4819
C:\Users\SOLDER~1\AppData\Local\Temp\ccqxjBbT.s:21005  .debug_str:00000000000084b2 .LASF4820
C:\Users\SOLDER~1\AppData\Local\Temp\ccqxjBbT.s:23143  .debug_str:0000000000011077 .LASF4821
C:\Users\SOLDER~1\AppData\Local\Temp\ccqxjBbT.s:22195  .debug_str:000000000000d327 .LASF4822
C:\Users\SOLDER~1\AppData\Local\Temp\ccqxjBbT.s:21131  .debug_str:0000000000008ce1 .LASF4823
C:\Users\SOLDER~1\AppData\Local\Temp\ccqxjBbT.s:19765  .debug_str:00000000000034f4 .LASF4824
C:\Users\SOLDER~1\AppData\Local\Temp\ccqxjBbT.s:18953  .debug_str:0000000000000000 .LASF4825
C:\Users\SOLDER~1\AppData\Local\Temp\ccqxjBbT.s:26515  .debug_str:000000000001ea42 .LASF4826
C:\Users\SOLDER~1\AppData\Local\Temp\ccqxjBbT.s:27167  .debug_str:0000000000021469 .LASF4827
C:\Users\SOLDER~1\AppData\Local\Temp\ccqxjBbT.s:30201  .debug_str:000000000002da2f .LASF4828
C:\Users\SOLDER~1\AppData\Local\Temp\ccqxjBbT.s:21167  .debug_str:0000000000008f6e .LASF4829
C:\Users\SOLDER~1\AppData\Local\Temp\ccqxjBbT.s:20359  .debug_str:0000000000005a6c .LASF4830
C:\Users\SOLDER~1\AppData\Local\Temp\ccqxjBbT.s:19117  .debug_str:0000000000000ba4 .LASF4831
C:\Users\SOLDER~1\AppData\Local\Temp\ccqxjBbT.s:27597  .debug_str:0000000000022ff7 .LASF4832
C:\Users\SOLDER~1\AppData\Local\Temp\ccqxjBbT.s:22541  .debug_str:000000000000e9e0 .LASF4833
C:\Users\SOLDER~1\AppData\Local\Temp\ccqxjBbT.s:24615  .debug_str:0000000000016f58 .LASF4834
C:\Users\SOLDER~1\AppData\Local\Temp\ccqxjBbT.s:24735  .debug_str:0000000000017778 .LASF4835
C:\Users\SOLDER~1\AppData\Local\Temp\ccqxjBbT.s:19549  .debug_str:000000000000271b .LASF4836
C:\Users\SOLDER~1\AppData\Local\Temp\ccqxjBbT.s:24119  .debug_str:00000000000150ba .LASF4837
C:\Users\SOLDER~1\AppData\Local\Temp\ccqxjBbT.s:28745  .debug_str:0000000000027b70 .LASF4838
C:\Users\SOLDER~1\AppData\Local\Temp\ccqxjBbT.s:24303  .debug_str:0000000000015c25 .LASF4839
C:\Users\SOLDER~1\AppData\Local\Temp\ccqxjBbT.s:19779  .debug_str:00000000000035bf .LASF4840
C:\Users\SOLDER~1\AppData\Local\Temp\ccqxjBbT.s:27163  .debug_str:000000000002142f .LASF4841
C:\Users\SOLDER~1\AppData\Local\Temp\ccqxjBbT.s:23967  .debug_str:00000000000146c0 .LASF4842
C:\Users\SOLDER~1\AppData\Local\Temp\ccqxjBbT.s:21041  .debug_str:0000000000008713 .LASF4843
C:\Users\SOLDER~1\AppData\Local\Temp\ccqxjBbT.s:22447  .debug_str:000000000000e3cb .LASF4844
C:\Users\SOLDER~1\AppData\Local\Temp\ccqxjBbT.s:27341  .debug_str:0000000000021f65 .LASF4845
C:\Users\SOLDER~1\AppData\Local\Temp\ccqxjBbT.s:27087  .debug_str:0000000000020f2c .LASF4846
C:\Users\SOLDER~1\AppData\Local\Temp\ccqxjBbT.s:25517  .debug_str:000000000001a969 .LASF4847
C:\Users\SOLDER~1\AppData\Local\Temp\ccqxjBbT.s:24557  .debug_str:0000000000016be7 .LASF4848
C:\Users\SOLDER~1\AppData\Local\Temp\ccqxjBbT.s:19847  .debug_str:0000000000003a2b .LASF4849
C:\Users\SOLDER~1\AppData\Local\Temp\ccqxjBbT.s:24587  .debug_str:0000000000016d94 .LASF4850
C:\Users\SOLDER~1\AppData\Local\Temp\ccqxjBbT.s:29099  .debug_str:0000000000029264 .LASF4851
C:\Users\SOLDER~1\AppData\Local\Temp\ccqxjBbT.s:22315  .debug_str:000000000000dade .LASF4852
GAS LISTING C:\Users\SOLDER~1\AppData\Local\Temp\ccqxjBbT.s 			page 103


C:\Users\SOLDER~1\AppData\Local\Temp\ccqxjBbT.s:28879  .debug_str:0000000000028474 .LASF4853
C:\Users\SOLDER~1\AppData\Local\Temp\ccqxjBbT.s:28515  .debug_str:0000000000026c82 .LASF4854
C:\Users\SOLDER~1\AppData\Local\Temp\ccqxjBbT.s:23775  .debug_str:0000000000013941 .LASF4855
C:\Users\SOLDER~1\AppData\Local\Temp\ccqxjBbT.s:26925  .debug_str:00000000000204cb .LASF4856
C:\Users\SOLDER~1\AppData\Local\Temp\ccqxjBbT.s:25493  .debug_str:000000000001a7f2 .LASF4858
C:\Users\SOLDER~1\AppData\Local\Temp\ccqxjBbT.s:27393  .debug_str:000000000002224c .LASF4859
C:\Users\SOLDER~1\AppData\Local\Temp\ccqxjBbT.s:19677  .debug_str:0000000000002f5d .LASF4860
C:\Users\SOLDER~1\AppData\Local\Temp\ccqxjBbT.s:23561  .debug_str:0000000000012acf .LASF4861
C:\Users\SOLDER~1\AppData\Local\Temp\ccqxjBbT.s:22455  .debug_str:000000000000e44b .LASF4862
C:\Users\SOLDER~1\AppData\Local\Temp\ccqxjBbT.s:25703  .debug_str:000000000001b555 .LASF4863
C:\Users\SOLDER~1\AppData\Local\Temp\ccqxjBbT.s:20965  .debug_str:0000000000008234 .LASF4864
C:\Users\SOLDER~1\AppData\Local\Temp\ccqxjBbT.s:21573  .debug_str:000000000000aa8c .LASF4865
C:\Users\SOLDER~1\AppData\Local\Temp\ccqxjBbT.s:30387  .debug_str:000000000002e610 .LASF4866
C:\Users\SOLDER~1\AppData\Local\Temp\ccqxjBbT.s:19861  .debug_str:0000000000003b20 .LASF4867
C:\Users\SOLDER~1\AppData\Local\Temp\ccqxjBbT.s:28477  .debug_str:0000000000026a1c .LASF4868
C:\Users\SOLDER~1\AppData\Local\Temp\ccqxjBbT.s:27181  .debug_str:0000000000021568 .LASF4869
C:\Users\SOLDER~1\AppData\Local\Temp\ccqxjBbT.s:19997  .debug_str:000000000000439e .LASF4870
C:\Users\SOLDER~1\AppData\Local\Temp\ccqxjBbT.s:27495  .debug_str:0000000000022941 .LASF4871
C:\Users\SOLDER~1\AppData\Local\Temp\ccqxjBbT.s:19829  .debug_str:00000000000038ff .LASF4872
C:\Users\SOLDER~1\AppData\Local\Temp\ccqxjBbT.s:20019  .debug_str:0000000000004503 .LASF4873
C:\Users\SOLDER~1\AppData\Local\Temp\ccqxjBbT.s:22443  .debug_str:000000000000e37e .LASF4874
C:\Users\SOLDER~1\AppData\Local\Temp\ccqxjBbT.s:28749  .debug_str:0000000000027bb0 .LASF4875
C:\Users\SOLDER~1\AppData\Local\Temp\ccqxjBbT.s:20043  .debug_str:0000000000004695 .LASF4876
C:\Users\SOLDER~1\AppData\Local\Temp\ccqxjBbT.s:19093  .debug_str:00000000000009ed .LASF4877
C:\Users\SOLDER~1\AppData\Local\Temp\ccqxjBbT.s:26599  .debug_str:000000000001efa4 .LASF4878
C:\Users\SOLDER~1\AppData\Local\Temp\ccqxjBbT.s:21793  .debug_str:000000000000b836 .LASF4879
C:\Users\SOLDER~1\AppData\Local\Temp\ccqxjBbT.s:28155  .debug_str:00000000000253fe .LASF4880
C:\Users\SOLDER~1\AppData\Local\Temp\ccqxjBbT.s:30161  .debug_str:000000000002d7ad .LASF4881
C:\Users\SOLDER~1\AppData\Local\Temp\ccqxjBbT.s:19539  .debug_str:0000000000002653 .LASF4882
C:\Users\SOLDER~1\AppData\Local\Temp\ccqxjBbT.s:20039  .debug_str:0000000000004645 .LASF4883
C:\Users\SOLDER~1\AppData\Local\Temp\ccqxjBbT.s:27049  .debug_str:0000000000020ca8 .LASF4884
C:\Users\SOLDER~1\AppData\Local\Temp\ccqxjBbT.s:19667  .debug_str:0000000000002e93 .LASF4885
C:\Users\SOLDER~1\AppData\Local\Temp\ccqxjBbT.s:28733  .debug_str:0000000000027a9d .LASF4886
C:\Users\SOLDER~1\AppData\Local\Temp\ccqxjBbT.s:28555  .debug_str:0000000000026f21 .LASF4887
C:\Users\SOLDER~1\AppData\Local\Temp\ccqxjBbT.s:29243  .debug_str:0000000000029bae .LASF4888
C:\Users\SOLDER~1\AppData\Local\Temp\ccqxjBbT.s:23961  .debug_str:000000000001465a .LASF4889
C:\Users\SOLDER~1\AppData\Local\Temp\ccqxjBbT.s:29299  .debug_str:0000000000029f92 .LASF4890
C:\Users\SOLDER~1\AppData\Local\Temp\ccqxjBbT.s:26847  .debug_str:000000000001ffae .LASF4891
C:\Users\SOLDER~1\AppData\Local\Temp\ccqxjBbT.s:27923  .debug_str:000000000002451c .LASF4892
C:\Users\SOLDER~1\AppData\Local\Temp\ccqxjBbT.s:21457  .debug_str:000000000000a2b6 .LASF4893
C:\Users\SOLDER~1\AppData\Local\Temp\ccqxjBbT.s:24703  .debug_str:0000000000017555 .LASF4894
C:\Users\SOLDER~1\AppData\Local\Temp\ccqxjBbT.s:20237  .debug_str:0000000000005290 .LASF4895
C:\Users\SOLDER~1\AppData\Local\Temp\ccqxjBbT.s:27207  .debug_str:000000000002170b .LASF4896
C:\Users\SOLDER~1\AppData\Local\Temp\ccqxjBbT.s:28439  .debug_str:0000000000026786 .LASF4897
C:\Users\SOLDER~1\AppData\Local\Temp\ccqxjBbT.s:23151  .debug_str:0000000000011112 .LASF4898
C:\Users\SOLDER~1\AppData\Local\Temp\ccqxjBbT.s:26339  .debug_str:000000000001deab .LASF4899
C:\Users\SOLDER~1\AppData\Local\Temp\ccqxjBbT.s:25655  .debug_str:000000000001b239 .LASF4900
C:\Users\SOLDER~1\AppData\Local\Temp\ccqxjBbT.s:23021  .debug_str:000000000001089c .LASF4901
C:\Users\SOLDER~1\AppData\Local\Temp\ccqxjBbT.s:29963  .debug_str:000000000002cab9 .LASF4902
C:\Users\SOLDER~1\AppData\Local\Temp\ccqxjBbT.s:28265  .debug_str:0000000000025b7f .LASF4903
C:\Users\SOLDER~1\AppData\Local\Temp\ccqxjBbT.s:22331  .debug_str:000000000000dbab .LASF4904
C:\Users\SOLDER~1\AppData\Local\Temp\ccqxjBbT.s:30223  .debug_str:000000000002dba5 .LASF4905
C:\Users\SOLDER~1\AppData\Local\Temp\ccqxjBbT.s:20725  .debug_str:00000000000072d5 .LASF4906
C:\Users\SOLDER~1\AppData\Local\Temp\ccqxjBbT.s:25099  .debug_str:0000000000018f08 .LASF4907
C:\Users\SOLDER~1\AppData\Local\Temp\ccqxjBbT.s:22057  .debug_str:000000000000c9f8 .LASF4908
C:\Users\SOLDER~1\AppData\Local\Temp\ccqxjBbT.s:28251  .debug_str:0000000000025a95 .LASF4909
C:\Users\SOLDER~1\AppData\Local\Temp\ccqxjBbT.s:28643  .debug_str:00000000000274f6 .LASF4910
GAS LISTING C:\Users\SOLDER~1\AppData\Local\Temp\ccqxjBbT.s 			page 104


C:\Users\SOLDER~1\AppData\Local\Temp\ccqxjBbT.s:26257  .debug_str:000000000001d90e .LASF4911
C:\Users\SOLDER~1\AppData\Local\Temp\ccqxjBbT.s:26719  .debug_str:000000000001f7d1 .LASF4912
C:\Users\SOLDER~1\AppData\Local\Temp\ccqxjBbT.s:26877  .debug_str:0000000000020191 .LASF4913
C:\Users\SOLDER~1\AppData\Local\Temp\ccqxjBbT.s:28031  .debug_str:0000000000024c4e .LASF4914
C:\Users\SOLDER~1\AppData\Local\Temp\ccqxjBbT.s:27397  .debug_str:0000000000022292 .LASF4915
C:\Users\SOLDER~1\AppData\Local\Temp\ccqxjBbT.s:20829  .debug_str:0000000000007933 .LASF4916
C:\Users\SOLDER~1\AppData\Local\Temp\ccqxjBbT.s:22065  .debug_str:000000000000ca85 .LASF4917
C:\Users\SOLDER~1\AppData\Local\Temp\ccqxjBbT.s:24337  .debug_str:0000000000015e41 .LASF4918
C:\Users\SOLDER~1\AppData\Local\Temp\ccqxjBbT.s:27971  .debug_str:0000000000024862 .LASF4919
C:\Users\SOLDER~1\AppData\Local\Temp\ccqxjBbT.s:28851  .debug_str:0000000000028296 .LASF4920
C:\Users\SOLDER~1\AppData\Local\Temp\ccqxjBbT.s:21133  .debug_str:0000000000008d05 .LASF4921
C:\Users\SOLDER~1\AppData\Local\Temp\ccqxjBbT.s:19131  .debug_str:0000000000000c96 .LASF4922
C:\Users\SOLDER~1\AppData\Local\Temp\ccqxjBbT.s:25527  .debug_str:000000000001a9f2 .LASF4923
C:\Users\SOLDER~1\AppData\Local\Temp\ccqxjBbT.s:27785  .debug_str:0000000000023c2c .LASF4924
C:\Users\SOLDER~1\AppData\Local\Temp\ccqxjBbT.s:28067  .debug_str:0000000000024e98 .LASF4925
C:\Users\SOLDER~1\AppData\Local\Temp\ccqxjBbT.s:24115  .debug_str:0000000000015072 .LASF4926
C:\Users\SOLDER~1\AppData\Local\Temp\ccqxjBbT.s:28211  .debug_str:00000000000257c8 .LASF4927
C:\Users\SOLDER~1\AppData\Local\Temp\ccqxjBbT.s:29035  .debug_str:0000000000028e44 .LASF4928
C:\Users\SOLDER~1\AppData\Local\Temp\ccqxjBbT.s:22525  .debug_str:000000000000e8ba .LASF4929
C:\Users\SOLDER~1\AppData\Local\Temp\ccqxjBbT.s:19959  .debug_str:0000000000004158 .LASF4930
C:\Users\SOLDER~1\AppData\Local\Temp\ccqxjBbT.s:25671  .debug_str:000000000001b33e .LASF4931
C:\Users\SOLDER~1\AppData\Local\Temp\ccqxjBbT.s:26845  .debug_str:000000000001ff8b .LASF4932
C:\Users\SOLDER~1\AppData\Local\Temp\ccqxjBbT.s:23393  .debug_str:000000000001208c .LASF4933
C:\Users\SOLDER~1\AppData\Local\Temp\ccqxjBbT.s:30391  .debug_str:000000000002e651 .LASF4934
C:\Users\SOLDER~1\AppData\Local\Temp\ccqxjBbT.s:21057  .debug_str:0000000000008810 .LASF4935
C:\Users\SOLDER~1\AppData\Local\Temp\ccqxjBbT.s:29245  .debug_str:0000000000029bdd .LASF4936
C:\Users\SOLDER~1\AppData\Local\Temp\ccqxjBbT.s:30061  .debug_str:000000000002d158 .LASF4937
C:\Users\SOLDER~1\AppData\Local\Temp\ccqxjBbT.s:28171  .debug_str:000000000002550c .LASF4938
C:\Users\SOLDER~1\AppData\Local\Temp\ccqxjBbT.s:29535  .debug_str:000000000002ae96 .LASF4939
C:\Users\SOLDER~1\AppData\Local\Temp\ccqxjBbT.s:26181  .debug_str:000000000001d498 .LASF4940
C:\Users\SOLDER~1\AppData\Local\Temp\ccqxjBbT.s:26819  .debug_str:000000000001fddb .LASF4941
C:\Users\SOLDER~1\AppData\Local\Temp\ccqxjBbT.s:25111  .debug_str:0000000000018fd1 .LASF4942
C:\Users\SOLDER~1\AppData\Local\Temp\ccqxjBbT.s:20837  .debug_str:00000000000079bb .LASF4943
C:\Users\SOLDER~1\AppData\Local\Temp\ccqxjBbT.s:23219  .debug_str:000000000001158e .LASF4944
C:\Users\SOLDER~1\AppData\Local\Temp\ccqxjBbT.s:23431  .debug_str:00000000000122ec .LASF4945
C:\Users\SOLDER~1\AppData\Local\Temp\ccqxjBbT.s:24469  .debug_str:0000000000016678 .LASF4946
C:\Users\SOLDER~1\AppData\Local\Temp\ccqxjBbT.s:26451  .debug_str:000000000001e5b7 .LASF4947
C:\Users\SOLDER~1\AppData\Local\Temp\ccqxjBbT.s:28087  .debug_str:0000000000024fe4 .LASF4948
C:\Users\SOLDER~1\AppData\Local\Temp\ccqxjBbT.s:27517  .debug_str:0000000000022ad7 .LASF4949
C:\Users\SOLDER~1\AppData\Local\Temp\ccqxjBbT.s:26953  .debug_str:0000000000020693 .LASF4950
C:\Users\SOLDER~1\AppData\Local\Temp\ccqxjBbT.s:27241  .debug_str:000000000002193b .LASF4951
C:\Users\SOLDER~1\AppData\Local\Temp\ccqxjBbT.s:22517  .debug_str:000000000000e832 .LASF4952
C:\Users\SOLDER~1\AppData\Local\Temp\ccqxjBbT.s:23585  .debug_str:0000000000012c72 .LASF4953
C:\Users\SOLDER~1\AppData\Local\Temp\ccqxjBbT.s:23467  .debug_str:000000000001252e .LASF4954
C:\Users\SOLDER~1\AppData\Local\Temp\ccqxjBbT.s:22189  .debug_str:000000000000d2bb .LASF4955
C:\Users\SOLDER~1\AppData\Local\Temp\ccqxjBbT.s:28947  .debug_str:00000000000288d8 .LASF4956
C:\Users\SOLDER~1\AppData\Local\Temp\ccqxjBbT.s:19501  .debug_str:0000000000002400 .LASF4957
C:\Users\SOLDER~1\AppData\Local\Temp\ccqxjBbT.s:28821  .debug_str:00000000000280b5 .LASF4958
C:\Users\SOLDER~1\AppData\Local\Temp\ccqxjBbT.s:24189  .debug_str:0000000000015515 .LASF4959
C:\Users\SOLDER~1\AppData\Local\Temp\ccqxjBbT.s:21797  .debug_str:000000000000b86d .LASF4960
C:\Users\SOLDER~1\AppData\Local\Temp\ccqxjBbT.s:22913  .debug_str:0000000000010192 .LASF4961
C:\Users\SOLDER~1\AppData\Local\Temp\ccqxjBbT.s:30115  .debug_str:000000000002d4da .LASF4962
C:\Users\SOLDER~1\AppData\Local\Temp\ccqxjBbT.s:24143  .debug_str:0000000000015213 .LASF4963
C:\Users\SOLDER~1\AppData\Local\Temp\ccqxjBbT.s:20497  .debug_str:000000000000639d .LASF4964
C:\Users\SOLDER~1\AppData\Local\Temp\ccqxjBbT.s:26241  .debug_str:000000000001d843 .LASF4965
C:\Users\SOLDER~1\AppData\Local\Temp\ccqxjBbT.s:21369  .debug_str:0000000000009cc4 .LASF4966
C:\Users\SOLDER~1\AppData\Local\Temp\ccqxjBbT.s:25457  .debug_str:000000000001a562 .LASF4967
GAS LISTING C:\Users\SOLDER~1\AppData\Local\Temp\ccqxjBbT.s 			page 105


C:\Users\SOLDER~1\AppData\Local\Temp\ccqxjBbT.s:22949  .debug_str:000000000001041a .LASF4968
C:\Users\SOLDER~1\AppData\Local\Temp\ccqxjBbT.s:21359  .debug_str:0000000000009c1e .LASF4969
C:\Users\SOLDER~1\AppData\Local\Temp\ccqxjBbT.s:24443  .debug_str:00000000000164e2 .LASF4970
C:\Users\SOLDER~1\AppData\Local\Temp\ccqxjBbT.s:21695  .debug_str:000000000000b24b .LASF4971
C:\Users\SOLDER~1\AppData\Local\Temp\ccqxjBbT.s:19309  .debug_str:0000000000001763 .LASF4972
C:\Users\SOLDER~1\AppData\Local\Temp\ccqxjBbT.s:21503  .debug_str:000000000000a5ae .LASF4973
C:\Users\SOLDER~1\AppData\Local\Temp\ccqxjBbT.s:21907  .debug_str:000000000000bf69 .LASF4974
C:\Users\SOLDER~1\AppData\Local\Temp\ccqxjBbT.s:28069  .debug_str:0000000000024ebb .LASF4975
C:\Users\SOLDER~1\AppData\Local\Temp\ccqxjBbT.s:25057  .debug_str:0000000000018c12 .LASF4976
C:\Users\SOLDER~1\AppData\Local\Temp\ccqxjBbT.s:25505  .debug_str:000000000001a8b5 .LASF4977
C:\Users\SOLDER~1\AppData\Local\Temp\ccqxjBbT.s:20033  .debug_str:00000000000045ea .LASF4978
C:\Users\SOLDER~1\AppData\Local\Temp\ccqxjBbT.s:26681  .debug_str:000000000001f531 .LASF4979
C:\Users\SOLDER~1\AppData\Local\Temp\ccqxjBbT.s:23345  .debug_str:0000000000011d8a .LASF4980
C:\Users\SOLDER~1\AppData\Local\Temp\ccqxjBbT.s:19261  .debug_str:000000000000143a .LASF4981
C:\Users\SOLDER~1\AppData\Local\Temp\ccqxjBbT.s:19831  .debug_str:0000000000003927 .LASF4982
C:\Users\SOLDER~1\AppData\Local\Temp\ccqxjBbT.s:23161  .debug_str:00000000000111c7 .LASF4983
C:\Users\SOLDER~1\AppData\Local\Temp\ccqxjBbT.s:19599  .debug_str:0000000000002a6a .LASF4984
C:\Users\SOLDER~1\AppData\Local\Temp\ccqxjBbT.s:26655  .debug_str:000000000001f372 .LASF4985
C:\Users\SOLDER~1\AppData\Local\Temp\ccqxjBbT.s:25975  .debug_str:000000000001c72c .LASF4986
C:\Users\SOLDER~1\AppData\Local\Temp\ccqxjBbT.s:30519  .debug_str:000000000002eea3 .LASF4987
C:\Users\SOLDER~1\AppData\Local\Temp\ccqxjBbT.s:30467  .debug_str:000000000002eb6f .LASF4988
C:\Users\SOLDER~1\AppData\Local\Temp\ccqxjBbT.s:29389  .debug_str:000000000002a5a1 .LASF4989
C:\Users\SOLDER~1\AppData\Local\Temp\ccqxjBbT.s:26699  .debug_str:000000000001f689 .LASF4990
C:\Users\SOLDER~1\AppData\Local\Temp\ccqxjBbT.s:21245  .debug_str:00000000000094e5 .LASF4991
C:\Users\SOLDER~1\AppData\Local\Temp\ccqxjBbT.s:27007  .debug_str:0000000000020a17 .LASF4992
C:\Users\SOLDER~1\AppData\Local\Temp\ccqxjBbT.s:27509  .debug_str:0000000000022a3f .LASF4993
C:\Users\SOLDER~1\AppData\Local\Temp\ccqxjBbT.s:29145  .debug_str:0000000000029591 .LASF4994
C:\Users\SOLDER~1\AppData\Local\Temp\ccqxjBbT.s:23683  .debug_str:00000000000132ee .LASF4995
C:\Users\SOLDER~1\AppData\Local\Temp\ccqxjBbT.s:29233  .debug_str:0000000000029b0e .LASF4996
C:\Users\SOLDER~1\AppData\Local\Temp\ccqxjBbT.s:19697  .debug_str:0000000000003074 .LASF4997
C:\Users\SOLDER~1\AppData\Local\Temp\ccqxjBbT.s:27535  .debug_str:0000000000022c06 .LASF4998
C:\Users\SOLDER~1\AppData\Local\Temp\ccqxjBbT.s:29483  .debug_str:000000000002ab65 .LASF4999
C:\Users\SOLDER~1\AppData\Local\Temp\ccqxjBbT.s:27827  .debug_str:0000000000023ed5 .LASF5000
C:\Users\SOLDER~1\AppData\Local\Temp\ccqxjBbT.s:23397  .debug_str:00000000000120c6 .LASF5001
C:\Users\SOLDER~1\AppData\Local\Temp\ccqxjBbT.s:27893  .debug_str:000000000002431a .LASF5002
C:\Users\SOLDER~1\AppData\Local\Temp\ccqxjBbT.s:29651  .debug_str:000000000002b65f .LASF5003
C:\Users\SOLDER~1\AppData\Local\Temp\ccqxjBbT.s:23853  .debug_str:0000000000013ef8 .LASF5004
C:\Users\SOLDER~1\AppData\Local\Temp\ccqxjBbT.s:21441  .debug_str:000000000000a190 .LASF5005
C:\Users\SOLDER~1\AppData\Local\Temp\ccqxjBbT.s:28649  .debug_str:0000000000027550 .LASF5006
C:\Users\SOLDER~1\AppData\Local\Temp\ccqxjBbT.s:28215  .debug_str:000000000002581e .LASF5007
C:\Users\SOLDER~1\AppData\Local\Temp\ccqxjBbT.s:27469  .debug_str:0000000000022775 .LASF5008
C:\Users\SOLDER~1\AppData\Local\Temp\ccqxjBbT.s:25901  .debug_str:000000000001c21f .LASF5009
C:\Users\SOLDER~1\AppData\Local\Temp\ccqxjBbT.s:22859  .debug_str:000000000000fe57 .LASF5010
C:\Users\SOLDER~1\AppData\Local\Temp\ccqxjBbT.s:27657  .debug_str:00000000000233fe .LASF5011
C:\Users\SOLDER~1\AppData\Local\Temp\ccqxjBbT.s:28751  .debug_str:0000000000027bd8 .LASF5012
C:\Users\SOLDER~1\AppData\Local\Temp\ccqxjBbT.s:26483  .debug_str:000000000001e7fd .LASF5013
C:\Users\SOLDER~1\AppData\Local\Temp\ccqxjBbT.s:24739  .debug_str:00000000000177bf .LASF5014
C:\Users\SOLDER~1\AppData\Local\Temp\ccqxjBbT.s:23145  .debug_str:000000000001109b .LASF5015
C:\Users\SOLDER~1\AppData\Local\Temp\ccqxjBbT.s:27963  .debug_str:00000000000247bd .LASF5016
C:\Users\SOLDER~1\AppData\Local\Temp\ccqxjBbT.s:28827  .debug_str:000000000002811e .LASF5017
C:\Users\SOLDER~1\AppData\Local\Temp\ccqxjBbT.s:23921  .debug_str:0000000000014396 .LASF5018
C:\Users\SOLDER~1\AppData\Local\Temp\ccqxjBbT.s:22159  .debug_str:000000000000d0ce .LASF5019
C:\Users\SOLDER~1\AppData\Local\Temp\ccqxjBbT.s:29205  .debug_str:0000000000029929 .LASF5020
C:\Users\SOLDER~1\AppData\Local\Temp\ccqxjBbT.s:23883  .debug_str:00000000000140f7 .LASF5021
C:\Users\SOLDER~1\AppData\Local\Temp\ccqxjBbT.s:27831  .debug_str:0000000000023f28 .LASF5022
C:\Users\SOLDER~1\AppData\Local\Temp\ccqxjBbT.s:23963  .debug_str:000000000001468d .LASF5023
C:\Users\SOLDER~1\AppData\Local\Temp\ccqxjBbT.s:24629  .debug_str:000000000001704b .LASF5024
GAS LISTING C:\Users\SOLDER~1\AppData\Local\Temp\ccqxjBbT.s 			page 106


C:\Users\SOLDER~1\AppData\Local\Temp\ccqxjBbT.s:24225  .debug_str:000000000001578c .LASF5025
C:\Users\SOLDER~1\AppData\Local\Temp\ccqxjBbT.s:25293  .debug_str:0000000000019b1c .LASF5026
C:\Users\SOLDER~1\AppData\Local\Temp\ccqxjBbT.s:22037  .debug_str:000000000000c873 .LASF5027
C:\Users\SOLDER~1\AppData\Local\Temp\ccqxjBbT.s:28581  .debug_str:00000000000270cc .LASF5028
C:\Users\SOLDER~1\AppData\Local\Temp\ccqxjBbT.s:29611  .debug_str:000000000002b3cb .LASF5029
C:\Users\SOLDER~1\AppData\Local\Temp\ccqxjBbT.s:26897  .debug_str:00000000000202da .LASF5030
C:\Users\SOLDER~1\AppData\Local\Temp\ccqxjBbT.s:24187  .debug_str:00000000000154f5 .LASF5031
C:\Users\SOLDER~1\AppData\Local\Temp\ccqxjBbT.s:23389  .debug_str:000000000001203d .LASF5032
C:\Users\SOLDER~1\AppData\Local\Temp\ccqxjBbT.s:26889  .debug_str:0000000000020255 .LASF5033
C:\Users\SOLDER~1\AppData\Local\Temp\ccqxjBbT.s:24025  .debug_str:0000000000014a8d .LASF5034
C:\Users\SOLDER~1\AppData\Local\Temp\ccqxjBbT.s:25579  .debug_str:000000000001ada7 .LASF5035
C:\Users\SOLDER~1\AppData\Local\Temp\ccqxjBbT.s:22893  .debug_str:0000000000010075 .LASF5036
C:\Users\SOLDER~1\AppData\Local\Temp\ccqxjBbT.s:28471  .debug_str:00000000000269a7 .LASF5037
C:\Users\SOLDER~1\AppData\Local\Temp\ccqxjBbT.s:26691  .debug_str:000000000001f607 .LASF5038
C:\Users\SOLDER~1\AppData\Local\Temp\ccqxjBbT.s:19493  .debug_str:0000000000002366 .LASF5039
C:\Users\SOLDER~1\AppData\Local\Temp\ccqxjBbT.s:19249  .debug_str:000000000000136b .LASF5040
C:\Users\SOLDER~1\AppData\Local\Temp\ccqxjBbT.s:27361  .debug_str:000000000002209b .LASF5041
C:\Users\SOLDER~1\AppData\Local\Temp\ccqxjBbT.s:22911  .debug_str:0000000000010174 .LASF5042
C:\Users\SOLDER~1\AppData\Local\Temp\ccqxjBbT.s:26067  .debug_str:000000000001cd43 .LASF5043
C:\Users\SOLDER~1\AppData\Local\Temp\ccqxjBbT.s:28973  .debug_str:0000000000028a82 .LASF5044
C:\Users\SOLDER~1\AppData\Local\Temp\ccqxjBbT.s:25741  .debug_str:000000000001b79e .LASF5045
C:\Users\SOLDER~1\AppData\Local\Temp\ccqxjBbT.s:23699  .debug_str:0000000000013423 .LASF5046
C:\Users\SOLDER~1\AppData\Local\Temp\ccqxjBbT.s:27215  .debug_str:0000000000021778 .LASF5047
C:\Users\SOLDER~1\AppData\Local\Temp\ccqxjBbT.s:24959  .debug_str:00000000000185b9 .LASF5048
C:\Users\SOLDER~1\AppData\Local\Temp\ccqxjBbT.s:26725  .debug_str:000000000001f804 .LASF5049
C:\Users\SOLDER~1\AppData\Local\Temp\ccqxjBbT.s:25009  .debug_str:00000000000188f7 .LASF5050
C:\Users\SOLDER~1\AppData\Local\Temp\ccqxjBbT.s:23747  .debug_str:000000000001377f .LASF5051
C:\Users\SOLDER~1\AppData\Local\Temp\ccqxjBbT.s:21251  .debug_str:0000000000009547 .LASF5052
C:\Users\SOLDER~1\AppData\Local\Temp\ccqxjBbT.s:27773  .debug_str:0000000000023b66 .LASF5053
C:\Users\SOLDER~1\AppData\Local\Temp\ccqxjBbT.s:28921  .debug_str:0000000000028734 .LASF5054
C:\Users\SOLDER~1\AppData\Local\Temp\ccqxjBbT.s:27129  .debug_str:0000000000021217 .LASF5055
C:\Users\SOLDER~1\AppData\Local\Temp\ccqxjBbT.s:27127  .debug_str:00000000000211f8 .LASF5056
C:\Users\SOLDER~1\AppData\Local\Temp\ccqxjBbT.s:19145  .debug_str:0000000000000da7 .LASF5057
C:\Users\SOLDER~1\AppData\Local\Temp\ccqxjBbT.s:30525  .debug_str:000000000002eefc .LASF5058
C:\Users\SOLDER~1\AppData\Local\Temp\ccqxjBbT.s:26081  .debug_str:000000000001ce1d .LASF5059
C:\Users\SOLDER~1\AppData\Local\Temp\ccqxjBbT.s:21387  .debug_str:0000000000009e06 .LASF5060
C:\Users\SOLDER~1\AppData\Local\Temp\ccqxjBbT.s:23713  .debug_str:000000000001350b .LASF5061
C:\Users\SOLDER~1\AppData\Local\Temp\ccqxjBbT.s:29735  .debug_str:000000000002bbc2 .LASF5062
C:\Users\SOLDER~1\AppData\Local\Temp\ccqxjBbT.s:21433  .debug_str:000000000000a0fa .LASF5063
C:\Users\SOLDER~1\AppData\Local\Temp\ccqxjBbT.s:23363  .debug_str:0000000000011ebf .LASF5064
C:\Users\SOLDER~1\AppData\Local\Temp\ccqxjBbT.s:29275  .debug_str:0000000000029e05 .LASF5065
C:\Users\SOLDER~1\AppData\Local\Temp\ccqxjBbT.s:23855  .debug_str:0000000000013f26 .LASF5066
C:\Users\SOLDER~1\AppData\Local\Temp\ccqxjBbT.s:19337  .debug_str:00000000000018ef .LASF5067
C:\Users\SOLDER~1\AppData\Local\Temp\ccqxjBbT.s:24517  .debug_str:0000000000016963 .LASF5068
C:\Users\SOLDER~1\AppData\Local\Temp\ccqxjBbT.s:22403  .debug_str:000000000000e071 .LASF5069
C:\Users\SOLDER~1\AppData\Local\Temp\ccqxjBbT.s:21689  .debug_str:000000000000b1e0 .LASF5070
C:\Users\SOLDER~1\AppData\Local\Temp\ccqxjBbT.s:22041  .debug_str:000000000000c8b8 .LASF5071
C:\Users\SOLDER~1\AppData\Local\Temp\ccqxjBbT.s:19085  .debug_str:0000000000000962 .LASF5072
C:\Users\SOLDER~1\AppData\Local\Temp\ccqxjBbT.s:27973  .debug_str:0000000000024885 .LASF5073
C:\Users\SOLDER~1\AppData\Local\Temp\ccqxjBbT.s:19663  .debug_str:0000000000002e4f .LASF5074
C:\Users\SOLDER~1\AppData\Local\Temp\ccqxjBbT.s:21575  .debug_str:000000000000aabd .LASF5075
C:\Users\SOLDER~1\AppData\Local\Temp\ccqxjBbT.s:20881  .debug_str:0000000000007ca7 .LASF5076
C:\Users\SOLDER~1\AppData\Local\Temp\ccqxjBbT.s:23241  .debug_str:0000000000011723 .LASF5077
C:\Users\SOLDER~1\AppData\Local\Temp\ccqxjBbT.s:25821  .debug_str:000000000001bc96 .LASF5078
C:\Users\SOLDER~1\AppData\Local\Temp\ccqxjBbT.s:21783  .debug_str:000000000000b7ae .LASF5079
C:\Users\SOLDER~1\AppData\Local\Temp\ccqxjBbT.s:23783  .debug_str:00000000000139c3 .LASF5080
C:\Users\SOLDER~1\AppData\Local\Temp\ccqxjBbT.s:21129  .debug_str:0000000000008cbb .LASF5081
GAS LISTING C:\Users\SOLDER~1\AppData\Local\Temp\ccqxjBbT.s 			page 107


C:\Users\SOLDER~1\AppData\Local\Temp\ccqxjBbT.s:28815  .debug_str:0000000000028042 .LASF5082
C:\Users\SOLDER~1\AppData\Local\Temp\ccqxjBbT.s:23343  .debug_str:0000000000011d5b .LASF5083
C:\Users\SOLDER~1\AppData\Local\Temp\ccqxjBbT.s:20739  .debug_str:00000000000073b8 .LASF5084
C:\Users\SOLDER~1\AppData\Local\Temp\ccqxjBbT.s:19383  .debug_str:0000000000001c17 .LASF5085
C:\Users\SOLDER~1\AppData\Local\Temp\ccqxjBbT.s:27539  .debug_str:0000000000022c41 .LASF5086
C:\Users\SOLDER~1\AppData\Local\Temp\ccqxjBbT.s:23297  .debug_str:0000000000011a72 .LASF5087
C:\Users\SOLDER~1\AppData\Local\Temp\ccqxjBbT.s:21215  .debug_str:00000000000092be .LASF5088
C:\Users\SOLDER~1\AppData\Local\Temp\ccqxjBbT.s:20937  .debug_str:0000000000008057 .LASF5089
C:\Users\SOLDER~1\AppData\Local\Temp\ccqxjBbT.s:26149  .debug_str:000000000001d26b .LASF5090
C:\Users\SOLDER~1\AppData\Local\Temp\ccqxjBbT.s:28383  .debug_str:00000000000263c3 .LASF5091
C:\Users\SOLDER~1\AppData\Local\Temp\ccqxjBbT.s:30445  .debug_str:000000000002e9e3 .LASF5092
C:\Users\SOLDER~1\AppData\Local\Temp\ccqxjBbT.s:21739  .debug_str:000000000000b532 .LASF5093
C:\Users\SOLDER~1\AppData\Local\Temp\ccqxjBbT.s:21389  .debug_str:0000000000009e2d .LASF5094
C:\Users\SOLDER~1\AppData\Local\Temp\ccqxjBbT.s:21103  .debug_str:0000000000008b04 .LASF5095
C:\Users\SOLDER~1\AppData\Local\Temp\ccqxjBbT.s:27755  .debug_str:0000000000023a27 .LASF5096
C:\Users\SOLDER~1\AppData\Local\Temp\ccqxjBbT.s:21385  .debug_str:0000000000009dd9 .LASF5097
C:\Users\SOLDER~1\AppData\Local\Temp\ccqxjBbT.s:26567  .debug_str:000000000001ed9b .LASF5098
C:\Users\SOLDER~1\AppData\Local\Temp\ccqxjBbT.s:21849  .debug_str:000000000000bbac .LASF5099
C:\Users\SOLDER~1\AppData\Local\Temp\ccqxjBbT.s:21197  .debug_str:000000000000919d .LASF5100
C:\Users\SOLDER~1\AppData\Local\Temp\ccqxjBbT.s:28795  .debug_str:0000000000027ede .LASF5101
C:\Users\SOLDER~1\AppData\Local\Temp\ccqxjBbT.s:23981  .debug_str:00000000000147b2 .LASF5102
C:\Users\SOLDER~1\AppData\Local\Temp\ccqxjBbT.s:28937  .debug_str:0000000000028850 .LASF5103
C:\Users\SOLDER~1\AppData\Local\Temp\ccqxjBbT.s:25659  .debug_str:000000000001b27f .LASF5104
C:\Users\SOLDER~1\AppData\Local\Temp\ccqxjBbT.s:20939  .debug_str:0000000000008085 .LASF5105
C:\Users\SOLDER~1\AppData\Local\Temp\ccqxjBbT.s:21543  .debug_str:000000000000a881 .LASF5106
C:\Users\SOLDER~1\AppData\Local\Temp\ccqxjBbT.s:19139  .debug_str:0000000000000d28 .LASF5107
C:\Users\SOLDER~1\AppData\Local\Temp\ccqxjBbT.s:25757  .debug_str:000000000001b872 .LASF5108
C:\Users\SOLDER~1\AppData\Local\Temp\ccqxjBbT.s:27837  .debug_str:0000000000023f78 .LASF5109
C:\Users\SOLDER~1\AppData\Local\Temp\ccqxjBbT.s:19333  .debug_str:00000000000018a4 .LASF5110
C:\Users\SOLDER~1\AppData\Local\Temp\ccqxjBbT.s:26751  .debug_str:000000000001f99e .LASF5111
C:\Users\SOLDER~1\AppData\Local\Temp\ccqxjBbT.s:19857  .debug_str:0000000000003ad5 .LASF5112
C:\Users\SOLDER~1\AppData\Local\Temp\ccqxjBbT.s:19783  .debug_str:00000000000035fc .LASF5113
C:\Users\SOLDER~1\AppData\Local\Temp\ccqxjBbT.s:28223  .debug_str:00000000000258be .LASF5114
C:\Users\SOLDER~1\AppData\Local\Temp\ccqxjBbT.s:26013  .debug_str:000000000001c9a8 .LASF5115
C:\Users\SOLDER~1\AppData\Local\Temp\ccqxjBbT.s:23445  .debug_str:00000000000123db .LASF5116
C:\Users\SOLDER~1\AppData\Local\Temp\ccqxjBbT.s:29011  .debug_str:0000000000028cc6 .LASF5117
C:\Users\SOLDER~1\AppData\Local\Temp\ccqxjBbT.s:22957  .debug_str:00000000000104b4 .LASF5118
C:\Users\SOLDER~1\AppData\Local\Temp\ccqxjBbT.s:20607  .debug_str:0000000000006aef .LASF5119
C:\Users\SOLDER~1\AppData\Local\Temp\ccqxjBbT.s:25573  .debug_str:000000000001ad48 .LASF5120
C:\Users\SOLDER~1\AppData\Local\Temp\ccqxjBbT.s:21811  .debug_str:000000000000b94f .LASF5121
C:\Users\SOLDER~1\AppData\Local\Temp\ccqxjBbT.s:25761  .debug_str:000000000001b8bf .LASF5122
C:\Users\SOLDER~1\AppData\Local\Temp\ccqxjBbT.s:22717  .debug_str:000000000000f4c4 .LASF5123
C:\Users\SOLDER~1\AppData\Local\Temp\ccqxjBbT.s:22931  .debug_str:00000000000102b5 .LASF5124
C:\Users\SOLDER~1\AppData\Local\Temp\ccqxjBbT.s:22679  .debug_str:000000000000f282 .LASF5125
C:\Users\SOLDER~1\AppData\Local\Temp\ccqxjBbT.s:30515  .debug_str:000000000002ee5e .LASF5126
C:\Users\SOLDER~1\AppData\Local\Temp\ccqxjBbT.s:22141  .debug_str:000000000000cf85 .LASF5127
C:\Users\SOLDER~1\AppData\Local\Temp\ccqxjBbT.s:22825  .debug_str:000000000000fc00 .LASF5128
C:\Users\SOLDER~1\AppData\Local\Temp\ccqxjBbT.s:19951  .debug_str:00000000000040ba .LASF5129
C:\Users\SOLDER~1\AppData\Local\Temp\ccqxjBbT.s:28607  .debug_str:0000000000027291 .LASF5130
C:\Users\SOLDER~1\AppData\Local\Temp\ccqxjBbT.s:29669  .debug_str:000000000002b78e .LASF5131
C:\Users\SOLDER~1\AppData\Local\Temp\ccqxjBbT.s:20367  .debug_str:0000000000005b00 .LASF5132
C:\Users\SOLDER~1\AppData\Local\Temp\ccqxjBbT.s:24859  .debug_str:0000000000017f45 .LASF5133
C:\Users\SOLDER~1\AppData\Local\Temp\ccqxjBbT.s:25603  .debug_str:000000000001af35 .LASF5134
C:\Users\SOLDER~1\AppData\Local\Temp\ccqxjBbT.s:24603  .debug_str:0000000000016e82 .LASF5135
C:\Users\SOLDER~1\AppData\Local\Temp\ccqxjBbT.s:24927  .debug_str:00000000000183d2 .LASF5136
C:\Users\SOLDER~1\AppData\Local\Temp\ccqxjBbT.s:23597  .debug_str:0000000000012d6a .LASF5137
C:\Users\SOLDER~1\AppData\Local\Temp\ccqxjBbT.s:29189  .debug_str:000000000002984f .LASF5138
GAS LISTING C:\Users\SOLDER~1\AppData\Local\Temp\ccqxjBbT.s 			page 108


C:\Users\SOLDER~1\AppData\Local\Temp\ccqxjBbT.s:22493  .debug_str:000000000000e69b .LASF5139
C:\Users\SOLDER~1\AppData\Local\Temp\ccqxjBbT.s:27291  .debug_str:0000000000021c41 .LASF5140
C:\Users\SOLDER~1\AppData\Local\Temp\ccqxjBbT.s:28605  .debug_str:0000000000027260 .LASF5141
C:\Users\SOLDER~1\AppData\Local\Temp\ccqxjBbT.s:30499  .debug_str:000000000002ed6d .LASF5142
C:\Users\SOLDER~1\AppData\Local\Temp\ccqxjBbT.s:30431  .debug_str:000000000002e8fe .LASF5143
C:\Users\SOLDER~1\AppData\Local\Temp\ccqxjBbT.s:24565  .debug_str:0000000000016c64 .LASF5144
C:\Users\SOLDER~1\AppData\Local\Temp\ccqxjBbT.s:23975  .debug_str:000000000001474b .LASF5145
C:\Users\SOLDER~1\AppData\Local\Temp\ccqxjBbT.s:23813  .debug_str:0000000000013c2d .LASF5146
C:\Users\SOLDER~1\AppData\Local\Temp\ccqxjBbT.s:28657  .debug_str:00000000000275e3 .LASF5147
C:\Users\SOLDER~1\AppData\Local\Temp\ccqxjBbT.s:24871  .debug_str:0000000000018026 .LASF5148
C:\Users\SOLDER~1\AppData\Local\Temp\ccqxjBbT.s:19271  .debug_str:00000000000014f1 .LASF5149
C:\Users\SOLDER~1\AppData\Local\Temp\ccqxjBbT.s:26971  .debug_str:00000000000207c7 .LASF5150
C:\Users\SOLDER~1\AppData\Local\Temp\ccqxjBbT.s:26753  .debug_str:000000000001f9c3 .LASF5151
C:\Users\SOLDER~1\AppData\Local\Temp\ccqxjBbT.s:21649  .debug_str:000000000000af8f .LASF5152
C:\Users\SOLDER~1\AppData\Local\Temp\ccqxjBbT.s:28541  .debug_str:0000000000026e29 .LASF5153
C:\Users\SOLDER~1\AppData\Local\Temp\ccqxjBbT.s:27431  .debug_str:00000000000224e8 .LASF5154
C:\Users\SOLDER~1\AppData\Local\Temp\ccqxjBbT.s:24169  .debug_str:00000000000153d4 .LASF5155
C:\Users\SOLDER~1\AppData\Local\Temp\ccqxjBbT.s:28291  .debug_str:0000000000025d4e .LASF5156
C:\Users\SOLDER~1\AppData\Local\Temp\ccqxjBbT.s:23195  .debug_str:00000000000113ea .LASF5157
C:\Users\SOLDER~1\AppData\Local\Temp\ccqxjBbT.s:30189  .debug_str:000000000002d982 .LASF5158
C:\Users\SOLDER~1\AppData\Local\Temp\ccqxjBbT.s:26695  .debug_str:000000000001f647 .LASF5159
C:\Users\SOLDER~1\AppData\Local\Temp\ccqxjBbT.s:27561  .debug_str:0000000000022daf .LASF5160
C:\Users\SOLDER~1\AppData\Local\Temp\ccqxjBbT.s:29075  .debug_str:00000000000290c2 .LASF5161
C:\Users\SOLDER~1\AppData\Local\Temp\ccqxjBbT.s:25145  .debug_str:00000000000191e9 .LASF5162
C:\Users\SOLDER~1\AppData\Local\Temp\ccqxjBbT.s:25893  .debug_str:000000000001c190 .LASF5163
C:\Users\SOLDER~1\AppData\Local\Temp\ccqxjBbT.s:21137  .debug_str:0000000000008d4e .LASF5164
C:\Users\SOLDER~1\AppData\Local\Temp\ccqxjBbT.s:26817  .debug_str:000000000001fdb8 .LASF5165
C:\Users\SOLDER~1\AppData\Local\Temp\ccqxjBbT.s:28915  .debug_str:00000000000286c3 .LASF5166
C:\Users\SOLDER~1\AppData\Local\Temp\ccqxjBbT.s:27109  .debug_str:00000000000210c6 .LASF5167
C:\Users\SOLDER~1\AppData\Local\Temp\ccqxjBbT.s:19245  .debug_str:0000000000001312 .LASF5168
C:\Users\SOLDER~1\AppData\Local\Temp\ccqxjBbT.s:18957  .debug_str:0000000000000048 .LASF5169
C:\Users\SOLDER~1\AppData\Local\Temp\ccqxjBbT.s:25743  .debug_str:000000000001b7bc .LASF5170
C:\Users\SOLDER~1\AppData\Local\Temp\ccqxjBbT.s:30155  .debug_str:000000000002d744 .LASF5171
C:\Users\SOLDER~1\AppData\Local\Temp\ccqxjBbT.s:18985  .debug_str:00000000000001f5 .LASF5172
C:\Users\SOLDER~1\AppData\Local\Temp\ccqxjBbT.s:21361  .debug_str:0000000000009c3d .LASF5173
C:\Users\SOLDER~1\AppData\Local\Temp\ccqxjBbT.s:30539  .debug_str:000000000002efd7 .LASF5174
C:\Users\SOLDER~1\AppData\Local\Temp\ccqxjBbT.s:23413  .debug_str:00000000000121c9 .LASF5175
C:\Users\SOLDER~1\AppData\Local\Temp\ccqxjBbT.s:25059  .debug_str:0000000000018c31 .LASF5176
C:\Users\SOLDER~1\AppData\Local\Temp\ccqxjBbT.s:20883  .debug_str:0000000000007cd5 .LASF5177
C:\Users\SOLDER~1\AppData\Local\Temp\ccqxjBbT.s:20893  .debug_str:0000000000007d75 .LASF5178
C:\Users\SOLDER~1\AppData\Local\Temp\ccqxjBbT.s:26537  .debug_str:000000000001eba4 .LASF5179
C:\Users\SOLDER~1\AppData\Local\Temp\ccqxjBbT.s:30149  .debug_str:000000000002d6da .LASF5180
C:\Users\SOLDER~1\AppData\Local\Temp\ccqxjBbT.s:23097  .debug_str:0000000000010d73 .LASF5181
C:\Users\SOLDER~1\AppData\Local\Temp\ccqxjBbT.s:21203  .debug_str:0000000000009209 .LASF5182
C:\Users\SOLDER~1\AppData\Local\Temp\ccqxjBbT.s:23857  .debug_str:0000000000013f51 .LASF5183
C:\Users\SOLDER~1\AppData\Local\Temp\ccqxjBbT.s:26943  .debug_str:00000000000205d9 .LASF5184
C:\Users\SOLDER~1\AppData\Local\Temp\ccqxjBbT.s:24447  .debug_str:000000000001651a .LASF5185
C:\Users\SOLDER~1\AppData\Local\Temp\ccqxjBbT.s:22815  .debug_str:000000000000fb50 .LASF5186
C:\Users\SOLDER~1\AppData\Local\Temp\ccqxjBbT.s:30475  .debug_str:000000000002ebe1 .LASF5187
C:\Users\SOLDER~1\AppData\Local\Temp\ccqxjBbT.s:22109  .debug_str:000000000000cd66 .LASF5188
C:\Users\SOLDER~1\AppData\Local\Temp\ccqxjBbT.s:26563  .debug_str:000000000001ed4c .LASF5189
C:\Users\SOLDER~1\AppData\Local\Temp\ccqxjBbT.s:23781  .debug_str:000000000001399d .LASF5190
C:\Users\SOLDER~1\AppData\Local\Temp\ccqxjBbT.s:23199  .debug_str:000000000001142f .LASF5191
C:\Users\SOLDER~1\AppData\Local\Temp\ccqxjBbT.s:26331  .debug_str:000000000001de17 .LASF5192
C:\Users\SOLDER~1\AppData\Local\Temp\ccqxjBbT.s:24089  .debug_str:0000000000014ee1 .LASF5193
C:\Users\SOLDER~1\AppData\Local\Temp\ccqxjBbT.s:28169  .debug_str:00000000000254e9 .LASF5194
C:\Users\SOLDER~1\AppData\Local\Temp\ccqxjBbT.s:25847  .debug_str:000000000001be6e .LASF5195
GAS LISTING C:\Users\SOLDER~1\AppData\Local\Temp\ccqxjBbT.s 			page 109


C:\Users\SOLDER~1\AppData\Local\Temp\ccqxjBbT.s:22263  .debug_str:000000000000d795 .LASF5196
C:\Users\SOLDER~1\AppData\Local\Temp\ccqxjBbT.s:20453  .debug_str:000000000000608e .LASF5197
C:\Users\SOLDER~1\AppData\Local\Temp\ccqxjBbT.s:30429  .debug_str:000000000002e8c7 .LASF5198
C:\Users\SOLDER~1\AppData\Local\Temp\ccqxjBbT.s:19247  .debug_str:0000000000001335 .LASF5199
C:\Users\SOLDER~1\AppData\Local\Temp\ccqxjBbT.s:22049  .debug_str:000000000000c947 .LASF5200
C:\Users\SOLDER~1\AppData\Local\Temp\ccqxjBbT.s:28595  .debug_str:00000000000271a5 .LASF5201
C:\Users\SOLDER~1\AppData\Local\Temp\ccqxjBbT.s:25491  .debug_str:000000000001a7b2 .LASF5202
C:\Users\SOLDER~1\AppData\Local\Temp\ccqxjBbT.s:21515  .debug_str:000000000000a68d .LASF5203
C:\Users\SOLDER~1\AppData\Local\Temp\ccqxjBbT.s:19519  .debug_str:000000000000252b .LASF5204
C:\Users\SOLDER~1\AppData\Local\Temp\ccqxjBbT.s:25563  .debug_str:000000000001ac89 .LASF5205
C:\Users\SOLDER~1\AppData\Local\Temp\ccqxjBbT.s:28267  .debug_str:0000000000025ba2 .LASF5206
C:\Users\SOLDER~1\AppData\Local\Temp\ccqxjBbT.s:21193  .debug_str:0000000000009143 .LASF5207
C:\Users\SOLDER~1\AppData\Local\Temp\ccqxjBbT.s:28353  .debug_str:00000000000261a5 .LASF5208
C:\Users\SOLDER~1\AppData\Local\Temp\ccqxjBbT.s:20219  .debug_str:0000000000005161 .LASF5209
C:\Users\SOLDER~1\AppData\Local\Temp\ccqxjBbT.s:19113  .debug_str:0000000000000b46 .LASF5210
C:\Users\SOLDER~1\AppData\Local\Temp\ccqxjBbT.s:22053  .debug_str:000000000000c9a1 .LASF5211
C:\Users\SOLDER~1\AppData\Local\Temp\ccqxjBbT.s:23367  .debug_str:0000000000011f06 .LASF5212
C:\Users\SOLDER~1\AppData\Local\Temp\ccqxjBbT.s:24509  .debug_str:00000000000168d1 .LASF5213
C:\Users\SOLDER~1\AppData\Local\Temp\ccqxjBbT.s:20505  .debug_str:0000000000006425 .LASF5214
C:\Users\SOLDER~1\AppData\Local\Temp\ccqxjBbT.s:28817  .debug_str:0000000000028069 .LASF5215
C:\Users\SOLDER~1\AppData\Local\Temp\ccqxjBbT.s:27491  .debug_str:0000000000022903 .LASF5216
C:\Users\SOLDER~1\AppData\Local\Temp\ccqxjBbT.s:23779  .debug_str:000000000001397b .LASF5217
C:\Users\SOLDER~1\AppData\Local\Temp\ccqxjBbT.s:27183  .debug_str:0000000000021590 .LASF5218
C:\Users\SOLDER~1\AppData\Local\Temp\ccqxjBbT.s:27959  .debug_str:000000000002478a .LASF5219
C:\Users\SOLDER~1\AppData\Local\Temp\ccqxjBbT.s:26017  .debug_str:000000000001c9ee .LASF5220
C:\Users\SOLDER~1\AppData\Local\Temp\ccqxjBbT.s:24523  .debug_str:00000000000169cd .LASF5221
C:\Users\SOLDER~1\AppData\Local\Temp\ccqxjBbT.s:27805  .debug_str:0000000000023d84 .LASF5222
C:\Users\SOLDER~1\AppData\Local\Temp\ccqxjBbT.s:30111  .debug_str:000000000002d498 .LASF5223
C:\Users\SOLDER~1\AppData\Local\Temp\ccqxjBbT.s:25391  .debug_str:000000000001a145 .LASF5224
C:\Users\SOLDER~1\AppData\Local\Temp\ccqxjBbT.s:25715  .debug_str:000000000001b625 .LASF5225
C:\Users\SOLDER~1\AppData\Local\Temp\ccqxjBbT.s:26973  .debug_str:00000000000207e8 .LASF5226
C:\Users\SOLDER~1\AppData\Local\Temp\ccqxjBbT.s:25785  .debug_str:000000000001ba5f .LASF5227
C:\Users\SOLDER~1\AppData\Local\Temp\ccqxjBbT.s:24617  .debug_str:0000000000016f7a .LASF5228
C:\Users\SOLDER~1\AppData\Local\Temp\ccqxjBbT.s:28203  .debug_str:000000000002572f .LASF5229
C:\Users\SOLDER~1\AppData\Local\Temp\ccqxjBbT.s:19313  .debug_str:00000000000017a7 .LASF5230
C:\Users\SOLDER~1\AppData\Local\Temp\ccqxjBbT.s:23291  .debug_str:0000000000011a17 .LASF5231
C:\Users\SOLDER~1\AppData\Local\Temp\ccqxjBbT.s:23299  .debug_str:0000000000011a9c .LASF5232
C:\Users\SOLDER~1\AppData\Local\Temp\ccqxjBbT.s:21585  .debug_str:000000000000ab6e .LASF5233
C:\Users\SOLDER~1\AppData\Local\Temp\ccqxjBbT.s:21955  .debug_str:000000000000c2ae .LASF5234
C:\Users\SOLDER~1\AppData\Local\Temp\ccqxjBbT.s:21093  .debug_str:0000000000008a69 .LASF5235
C:\Users\SOLDER~1\AppData\Local\Temp\ccqxjBbT.s:20967  .debug_str:0000000000008265 .LASF5236
C:\Users\SOLDER~1\AppData\Local\Temp\ccqxjBbT.s:19985  .debug_str:00000000000042e4 .LASF5237
C:\Users\SOLDER~1\AppData\Local\Temp\ccqxjBbT.s:22219  .debug_str:000000000000d4c9 .LASF5238
C:\Users\SOLDER~1\AppData\Local\Temp\ccqxjBbT.s:27011  .debug_str:0000000000020a5c .LASF5239
C:\Users\SOLDER~1\AppData\Local\Temp\ccqxjBbT.s:22701  .debug_str:000000000000f3f2 .LASF5240
C:\Users\SOLDER~1\AppData\Local\Temp\ccqxjBbT.s:19739  .debug_str:0000000000003332 .LASF5241
C:\Users\SOLDER~1\AppData\Local\Temp\ccqxjBbT.s:29449  .debug_str:000000000002a92d .LASF5242
C:\Users\SOLDER~1\AppData\Local\Temp\ccqxjBbT.s:23017  .debug_str:0000000000010851 .LASF5243
C:\Users\SOLDER~1\AppData\Local\Temp\ccqxjBbT.s:29261  .debug_str:0000000000029cfc .LASF5244
C:\Users\SOLDER~1\AppData\Local\Temp\ccqxjBbT.s:22781  .debug_str:000000000000f8e7 .LASF5245
C:\Users\SOLDER~1\AppData\Local\Temp\ccqxjBbT.s:19513  .debug_str:00000000000024c8 .LASF5246
C:\Users\SOLDER~1\AppData\Local\Temp\ccqxjBbT.s:25407  .debug_str:000000000001a230 .LASF5247
C:\Users\SOLDER~1\AppData\Local\Temp\ccqxjBbT.s:19787  .debug_str:000000000000363d .LASF5248
C:\Users\SOLDER~1\AppData\Local\Temp\ccqxjBbT.s:20193  .debug_str:0000000000004fe2 .LASF5249
C:\Users\SOLDER~1\AppData\Local\Temp\ccqxjBbT.s:29349  .debug_str:000000000002a318 .LASF5250
C:\Users\SOLDER~1\AppData\Local\Temp\ccqxjBbT.s:19003  .debug_str:0000000000000341 .LASF5251
C:\Users\SOLDER~1\AppData\Local\Temp\ccqxjBbT.s:20697  .debug_str:0000000000007114 .LASF5252
GAS LISTING C:\Users\SOLDER~1\AppData\Local\Temp\ccqxjBbT.s 			page 110


C:\Users\SOLDER~1\AppData\Local\Temp\ccqxjBbT.s:29587  .debug_str:000000000002b260 .LASF5253
C:\Users\SOLDER~1\AppData\Local\Temp\ccqxjBbT.s:21581  .debug_str:000000000000ab2c .LASF5254
C:\Users\SOLDER~1\AppData\Local\Temp\ccqxjBbT.s:28357  .debug_str:00000000000261f9 .LASF5255
C:\Users\SOLDER~1\AppData\Local\Temp\ccqxjBbT.s:29715  .debug_str:000000000002ba73 .LASF5256
C:\Users\SOLDER~1\AppData\Local\Temp\ccqxjBbT.s:20969  .debug_str:0000000000008287 .LASF5257
C:\Users\SOLDER~1\AppData\Local\Temp\ccqxjBbT.s:21959  .debug_str:000000000000c301 .LASF5258
C:\Users\SOLDER~1\AppData\Local\Temp\ccqxjBbT.s:28017  .debug_str:0000000000024b65 .LASF5259
C:\Users\SOLDER~1\AppData\Local\Temp\ccqxjBbT.s:25267  .debug_str:00000000000199a7 .LASF5260
C:\Users\SOLDER~1\AppData\Local\Temp\ccqxjBbT.s:22509  .debug_str:000000000000e7a7 .LASF5261
C:\Users\SOLDER~1\AppData\Local\Temp\ccqxjBbT.s:30341  .debug_str:000000000002e318 .LASF5262
C:\Users\SOLDER~1\AppData\Local\Temp\ccqxjBbT.s:23223  .debug_str:00000000000115cc .LASF5263
C:\Users\SOLDER~1\AppData\Local\Temp\ccqxjBbT.s:21355  .debug_str:0000000000009bdf .LASF5264
C:\Users\SOLDER~1\AppData\Local\Temp\ccqxjBbT.s:24805  .debug_str:0000000000017bdd .LASF5265
C:\Users\SOLDER~1\AppData\Local\Temp\ccqxjBbT.s:20869  .debug_str:0000000000007bd4 .LASF5266
C:\Users\SOLDER~1\AppData\Local\Temp\ccqxjBbT.s:30309  .debug_str:000000000002e106 .LASF5267
C:\Users\SOLDER~1\AppData\Local\Temp\ccqxjBbT.s:26419  .debug_str:000000000001e399 .LASF5268
C:\Users\SOLDER~1\AppData\Local\Temp\ccqxjBbT.s:19255  .debug_str:00000000000013c9 .LASF5269
C:\Users\SOLDER~1\AppData\Local\Temp\ccqxjBbT.s:24315  .debug_str:0000000000015cdb .LASF5270
C:\Users\SOLDER~1\AppData\Local\Temp\ccqxjBbT.s:28531  .debug_str:0000000000026d69 .LASF5271
C:\Users\SOLDER~1\AppData\Local\Temp\ccqxjBbT.s:23427  .debug_str:000000000001229d .LASF5272
C:\Users\SOLDER~1\AppData\Local\Temp\ccqxjBbT.s:28765  .debug_str:0000000000027cea .LASF5273
C:\Users\SOLDER~1\AppData\Local\Temp\ccqxjBbT.s:19341  .debug_str:0000000000001949 .LASF5274
C:\Users\SOLDER~1\AppData\Local\Temp\ccqxjBbT.s:27417  .debug_str:00000000000223f4 .LASF5275
C:\Users\SOLDER~1\AppData\Local\Temp\ccqxjBbT.s:25385  .debug_str:000000000001a0df .LASF5276
C:\Users\SOLDER~1\AppData\Local\Temp\ccqxjBbT.s:24335  .debug_str:0000000000015e1c .LASF5277
C:\Users\SOLDER~1\AppData\Local\Temp\ccqxjBbT.s:21595  .debug_str:000000000000abf1 .LASF5278
C:\Users\SOLDER~1\AppData\Local\Temp\ccqxjBbT.s:19091  .debug_str:00000000000009c7 .LASF5279
C:\Users\SOLDER~1\AppData\Local\Temp\ccqxjBbT.s:26525  .debug_str:000000000001eae5 .LASF5280
C:\Users\SOLDER~1\AppData\Local\Temp\ccqxjBbT.s:29307  .debug_str:000000000002a019 .LASF5281
C:\Users\SOLDER~1\AppData\Local\Temp\ccqxjBbT.s:24753  .debug_str:00000000000178a2 .LASF5282
C:\Users\SOLDER~1\AppData\Local\Temp\ccqxjBbT.s:22923  .debug_str:0000000000010247 .LASF5283
C:\Users\SOLDER~1\AppData\Local\Temp\ccqxjBbT.s:19661  .debug_str:0000000000002e31 .LASF5284
C:\Users\SOLDER~1\AppData\Local\Temp\ccqxjBbT.s:20803  .debug_str:000000000000778e .LASF5285
C:\Users\SOLDER~1\AppData\Local\Temp\ccqxjBbT.s:26301  .debug_str:000000000001dbfc .LASF5286
C:\Users\SOLDER~1\AppData\Local\Temp\ccqxjBbT.s:20903  .debug_str:0000000000007e16 .LASF5287
C:\Users\SOLDER~1\AppData\Local\Temp\ccqxjBbT.s:25967  .debug_str:000000000001c6a9 .LASF5288
C:\Users\SOLDER~1\AppData\Local\Temp\ccqxjBbT.s:19731  .debug_str:00000000000032b2 .LASF5289
C:\Users\SOLDER~1\AppData\Local\Temp\ccqxjBbT.s:20339  .debug_str:0000000000005925 .LASF5290
C:\Users\SOLDER~1\AppData\Local\Temp\ccqxjBbT.s:25951  .debug_str:000000000001c572 .LASF5291
C:\Users\SOLDER~1\AppData\Local\Temp\ccqxjBbT.s:19749  .debug_str:00000000000033ed .LASF5292
C:\Users\SOLDER~1\AppData\Local\Temp\ccqxjBbT.s:29861  .debug_str:000000000002c462 .LASF5293
C:\Users\SOLDER~1\AppData\Local\Temp\ccqxjBbT.s:22651  .debug_str:000000000000f0d9 .LASF5294
C:\Users\SOLDER~1\AppData\Local\Temp\ccqxjBbT.s:23031  .debug_str:0000000000010954 .LASF5295
C:\Users\SOLDER~1\AppData\Local\Temp\ccqxjBbT.s:19935  .debug_str:0000000000003fb3 .LASF5296
C:\Users\SOLDER~1\AppData\Local\Temp\ccqxjBbT.s:20311  .debug_str:0000000000005719 .LASF5297
C:\Users\SOLDER~1\AppData\Local\Temp\ccqxjBbT.s:19173  .debug_str:0000000000000f38 .LASF5298
C:\Users\SOLDER~1\AppData\Local\Temp\ccqxjBbT.s:23769  .debug_str:00000000000138eb .LASF5299
C:\Users\SOLDER~1\AppData\Local\Temp\ccqxjBbT.s:27625  .debug_str:00000000000231c9 .LASF5300
C:\Users\SOLDER~1\AppData\Local\Temp\ccqxjBbT.s:24697  .debug_str:00000000000174d6 .LASF5301
C:\Users\SOLDER~1\AppData\Local\Temp\ccqxjBbT.s:24607  .debug_str:0000000000016ed0 .LASF5302
C:\Users\SOLDER~1\AppData\Local\Temp\ccqxjBbT.s:22585  .debug_str:000000000000ec87 .LASF5303
C:\Users\SOLDER~1\AppData\Local\Temp\ccqxjBbT.s:20693  .debug_str:00000000000070c7 .LASF5304
C:\Users\SOLDER~1\AppData\Local\Temp\ccqxjBbT.s:20945  .debug_str:000000000000810c .LASF5305
C:\Users\SOLDER~1\AppData\Local\Temp\ccqxjBbT.s:29095  .debug_str:0000000000029218 .LASF5306
C:\Users\SOLDER~1\AppData\Local\Temp\ccqxjBbT.s:24505  .debug_str:0000000000016880 .LASF5307
C:\Users\SOLDER~1\AppData\Local\Temp\ccqxjBbT.s:22043  .debug_str:000000000000c8e3 .LASF5308
C:\Users\SOLDER~1\AppData\Local\Temp\ccqxjBbT.s:27765  .debug_str:0000000000023aca .LASF5309
GAS LISTING C:\Users\SOLDER~1\AppData\Local\Temp\ccqxjBbT.s 			page 111


C:\Users\SOLDER~1\AppData\Local\Temp\ccqxjBbT.s:25887  .debug_str:000000000001c108 .LASF5310
C:\Users\SOLDER~1\AppData\Local\Temp\ccqxjBbT.s:29759  .debug_str:000000000002bd50 .LASF5311
C:\Users\SOLDER~1\AppData\Local\Temp\ccqxjBbT.s:23183  .debug_str:0000000000011340 .LASF5312
C:\Users\SOLDER~1\AppData\Local\Temp\ccqxjBbT.s:22997  .debug_str:0000000000010727 .LASF5313
C:\Users\SOLDER~1\AppData\Local\Temp\ccqxjBbT.s:26397  .debug_str:000000000001e239 .LASF5314
C:\Users\SOLDER~1\AppData\Local\Temp\ccqxjBbT.s:26757  .debug_str:000000000001f9fb .LASF5315
C:\Users\SOLDER~1\AppData\Local\Temp\ccqxjBbT.s:21349  .debug_str:0000000000009b81 .LASF5316
C:\Users\SOLDER~1\AppData\Local\Temp\ccqxjBbT.s:29563  .debug_str:000000000002b0b4 .LASF5317
C:\Users\SOLDER~1\AppData\Local\Temp\ccqxjBbT.s:28349  .debug_str:0000000000026155 .LASF5318
C:\Users\SOLDER~1\AppData\Local\Temp\ccqxjBbT.s:19429  .debug_str:0000000000001f37 .LASF5319
C:\Users\SOLDER~1\AppData\Local\Temp\ccqxjBbT.s:23685  .debug_str:000000000001331b .LASF5320
C:\Users\SOLDER~1\AppData\Local\Temp\ccqxjBbT.s:19413  .debug_str:0000000000001e1d .LASF5321
C:\Users\SOLDER~1\AppData\Local\Temp\ccqxjBbT.s:23743  .debug_str:000000000001372e .LASF5322
C:\Users\SOLDER~1\AppData\Local\Temp\ccqxjBbT.s:21469  .debug_str:000000000000a360 .LASF5323
C:\Users\SOLDER~1\AppData\Local\Temp\ccqxjBbT.s:27423  .debug_str:0000000000022466 .LASF5324
C:\Users\SOLDER~1\AppData\Local\Temp\ccqxjBbT.s:23153  .debug_str:0000000000011139 .LASF5325
C:\Users\SOLDER~1\AppData\Local\Temp\ccqxjBbT.s:29221  .debug_str:0000000000029a36 .LASF5326
C:\Users\SOLDER~1\AppData\Local\Temp\ccqxjBbT.s:25065  .debug_str:0000000000018ca7 .LASF5327
C:\Users\SOLDER~1\AppData\Local\Temp\ccqxjBbT.s:28669  .debug_str:00000000000276a9 .LASF5328
C:\Users\SOLDER~1\AppData\Local\Temp\ccqxjBbT.s:26503  .debug_str:000000000001e96c .LASF5329
C:\Users\SOLDER~1\AppData\Local\Temp\ccqxjBbT.s:23537  .debug_str:0000000000012993 .LASF5330
C:\Users\SOLDER~1\AppData\Local\Temp\ccqxjBbT.s:24691  .debug_str:0000000000017469 .LASF5331
C:\Users\SOLDER~1\AppData\Local\Temp\ccqxjBbT.s:26159  .debug_str:000000000001d328 .LASF5332
C:\Users\SOLDER~1\AppData\Local\Temp\ccqxjBbT.s:19339  .debug_str:000000000000191e .LASF5333
C:\Users\SOLDER~1\AppData\Local\Temp\ccqxjBbT.s:22437  .debug_str:000000000000e313 .LASF5334
C:\Users\SOLDER~1\AppData\Local\Temp\ccqxjBbT.s:22969  .debug_str:000000000001056d .LASF5335
C:\Users\SOLDER~1\AppData\Local\Temp\ccqxjBbT.s:20675  .debug_str:0000000000006f99 .LASF5336
C:\Users\SOLDER~1\AppData\Local\Temp\ccqxjBbT.s:20223  .debug_str:00000000000051b5 .LASF5337
C:\Users\SOLDER~1\AppData\Local\Temp\ccqxjBbT.s:23087  .debug_str:0000000000010ce0 .LASF5338
C:\Users\SOLDER~1\AppData\Local\Temp\ccqxjBbT.s:21199  .debug_str:00000000000091cd .LASF5339
C:\Users\SOLDER~1\AppData\Local\Temp\ccqxjBbT.s:28051  .debug_str:0000000000024d9e .LASF5340
C:\Users\SOLDER~1\AppData\Local\Temp\ccqxjBbT.s:29101  .debug_str:0000000000029286 .LASF5341
C:\Users\SOLDER~1\AppData\Local\Temp\ccqxjBbT.s:20343  .debug_str:000000000000596b .LASF5342
C:\Users\SOLDER~1\AppData\Local\Temp\ccqxjBbT.s:29823  .debug_str:000000000002c1e3 .LASF5343
C:\Users\SOLDER~1\AppData\Local\Temp\ccqxjBbT.s:21939  .debug_str:000000000000c198 .LASF5344
C:\Users\SOLDER~1\AppData\Local\Temp\ccqxjBbT.s:20851  .debug_str:0000000000007a8d .LASF5345
C:\Users\SOLDER~1\AppData\Local\Temp\ccqxjBbT.s:20731  .debug_str:000000000000733a .LASF5346
C:\Users\SOLDER~1\AppData\Local\Temp\ccqxjBbT.s:27273  .debug_str:0000000000021b44 .LASF5347
C:\Users\SOLDER~1\AppData\Local\Temp\ccqxjBbT.s:25305  .debug_str:0000000000019be6 .LASF5348
C:\Users\SOLDER~1\AppData\Local\Temp\ccqxjBbT.s:28681  .debug_str:000000000002776b .LASF5349
C:\Users\SOLDER~1\AppData\Local\Temp\ccqxjBbT.s:30517  .debug_str:000000000002ee7f .LASF5350
C:\Users\SOLDER~1\AppData\Local\Temp\ccqxjBbT.s:27485  .debug_str:000000000002288a .LASF5351
C:\Users\SOLDER~1\AppData\Local\Temp\ccqxjBbT.s:29985  .debug_str:000000000002cc1a .LASF5352
C:\Users\SOLDER~1\AppData\Local\Temp\ccqxjBbT.s:19811  .debug_str:00000000000037d4 .LASF5353
C:\Users\SOLDER~1\AppData\Local\Temp\ccqxjBbT.s:29625  .debug_str:000000000002b4a2 .LASF5354
C:\Users\SOLDER~1\AppData\Local\Temp\ccqxjBbT.s:25067  .debug_str:0000000000018cd2 .LASF5355
C:\Users\SOLDER~1\AppData\Local\Temp\ccqxjBbT.s:24833  .debug_str:0000000000017d7c .LASF5356
C:\Users\SOLDER~1\AppData\Local\Temp\ccqxjBbT.s:19699  .debug_str:00000000000030a1 .LASF5357
C:\Users\SOLDER~1\AppData\Local\Temp\ccqxjBbT.s:22059  .debug_str:000000000000ca1b .LASF5358
C:\Users\SOLDER~1\AppData\Local\Temp\ccqxjBbT.s:29693  .debug_str:000000000002b923 .LASF5359
C:\Users\SOLDER~1\AppData\Local\Temp\ccqxjBbT.s:29073  .debug_str:00000000000290a1 .LASF5360
C:\Users\SOLDER~1\AppData\Local\Temp\ccqxjBbT.s:30017  .debug_str:000000000002ce3a .LASF5361
C:\Users\SOLDER~1\AppData\Local\Temp\ccqxjBbT.s:27405  .debug_str:0000000000022314 .LASF5362
C:\Users\SOLDER~1\AppData\Local\Temp\ccqxjBbT.s:23173  .debug_str:0000000000011292 .LASF5363
C:\Users\SOLDER~1\AppData\Local\Temp\ccqxjBbT.s:20333  .debug_str:00000000000058be .LASF5364
C:\Users\SOLDER~1\AppData\Local\Temp\ccqxjBbT.s:29653  .debug_str:000000000002b68d .LASF5365
C:\Users\SOLDER~1\AppData\Local\Temp\ccqxjBbT.s:24277  .debug_str:0000000000015a79 .LASF5366
GAS LISTING C:\Users\SOLDER~1\AppData\Local\Temp\ccqxjBbT.s 			page 112


C:\Users\SOLDER~1\AppData\Local\Temp\ccqxjBbT.s:23971  .debug_str:0000000000014708 .LASF5367
C:\Users\SOLDER~1\AppData\Local\Temp\ccqxjBbT.s:28829  .debug_str:000000000002814c .LASF5368
C:\Users\SOLDER~1\AppData\Local\Temp\ccqxjBbT.s:19761  .debug_str:00000000000034be .LASF5369
C:\Users\SOLDER~1\AppData\Local\Temp\ccqxjBbT.s:23895  .debug_str:00000000000141b9 .LASF5370
C:\Users\SOLDER~1\AppData\Local\Temp\ccqxjBbT.s:25399  .debug_str:000000000001a1ad .LASF5371
C:\Users\SOLDER~1\AppData\Local\Temp\ccqxjBbT.s:19669  .debug_str:0000000000002ec6 .LASF5372
C:\Users\SOLDER~1\AppData\Local\Temp\ccqxjBbT.s:20913  .debug_str:0000000000007ecb .LASF5373
C:\Users\SOLDER~1\AppData\Local\Temp\ccqxjBbT.s:25379  .debug_str:000000000001a078 .LASF5374
C:\Users\SOLDER~1\AppData\Local\Temp\ccqxjBbT.s:24423  .debug_str:0000000000016391 .LASF5375
C:\Users\SOLDER~1\AppData\Local\Temp\ccqxjBbT.s:27965  .debug_str:00000000000247eb .LASF5376
C:\Users\SOLDER~1\AppData\Local\Temp\ccqxjBbT.s:23443  .debug_str:00000000000123bb .LASF5377
C:\Users\SOLDER~1\AppData\Local\Temp\ccqxjBbT.s:29763  .debug_str:000000000002bda1 .LASF5378
C:\Users\SOLDER~1\AppData\Local\Temp\ccqxjBbT.s:23983  .debug_str:00000000000147e2 .LASF5379
C:\Users\SOLDER~1\AppData\Local\Temp\ccqxjBbT.s:22217  .debug_str:000000000000d4a9 .LASF5380
C:\Users\SOLDER~1\AppData\Local\Temp\ccqxjBbT.s:29891  .debug_str:000000000002c63c .LASF5381
C:\Users\SOLDER~1\AppData\Local\Temp\ccqxjBbT.s:28213  .debug_str:00000000000257eb .LASF5382
C:\Users\SOLDER~1\AppData\Local\Temp\ccqxjBbT.s:24069  .debug_str:0000000000014d9f .LASF5383
C:\Users\SOLDER~1\AppData\Local\Temp\ccqxjBbT.s:20117  .debug_str:0000000000004b2b .LASF5384
C:\Users\SOLDER~1\AppData\Local\Temp\ccqxjBbT.s:20301  .debug_str:000000000000565a .LASF5385
C:\Users\SOLDER~1\AppData\Local\Temp\ccqxjBbT.s:25357  .debug_str:0000000000019ef9 .LASF5386
C:\Users\SOLDER~1\AppData\Local\Temp\ccqxjBbT.s:27487  .debug_str:00000000000228aa .LASF5387
C:\Users\SOLDER~1\AppData\Local\Temp\ccqxjBbT.s:19235  .debug_str:000000000000128e .LASF5388
C:\Users\SOLDER~1\AppData\Local\Temp\ccqxjBbT.s:22793  .debug_str:000000000000f9de .LASF5389
C:\Users\SOLDER~1\AppData\Local\Temp\ccqxjBbT.s:28189  .debug_str:000000000002563d .LASF5390
C:\Users\SOLDER~1\AppData\Local\Temp\ccqxjBbT.s:19019  .debug_str:0000000000000453 .LASF5391
C:\Users\SOLDER~1\AppData\Local\Temp\ccqxjBbT.s:29497  .debug_str:000000000002ac5d .LASF5392
C:\Users\SOLDER~1\AppData\Local\Temp\ccqxjBbT.s:30541  .debug_str:000000000002effd .LASF5393
C:\Users\SOLDER~1\AppData\Local\Temp\ccqxjBbT.s:25213  .debug_str:00000000000196a6 .LASF5394
C:\Users\SOLDER~1\AppData\Local\Temp\ccqxjBbT.s:30371  .debug_str:000000000002e4f4 .LASF5395
C:\Users\SOLDER~1\AppData\Local\Temp\ccqxjBbT.s:25195  .debug_str:0000000000019538 .LASF5396
C:\Users\SOLDER~1\AppData\Local\Temp\ccqxjBbT.s:22943  .debug_str:00000000000103a3 .LASF5397
C:\Users\SOLDER~1\AppData\Local\Temp\ccqxjBbT.s:23985  .debug_str:0000000000014802 .LASF5398
C:\Users\SOLDER~1\AppData\Local\Temp\ccqxjBbT.s:23645  .debug_str:000000000001307c .LASF5399
C:\Users\SOLDER~1\AppData\Local\Temp\ccqxjBbT.s:26831  .debug_str:000000000001fe9f .LASF5400
C:\Users\SOLDER~1\AppData\Local\Temp\ccqxjBbT.s:30315  .debug_str:000000000002e178 .LASF5401
C:\Users\SOLDER~1\AppData\Local\Temp\ccqxjBbT.s:21823  .debug_str:000000000000ba02 .LASF5402
C:\Users\SOLDER~1\AppData\Local\Temp\ccqxjBbT.s:25551  .debug_str:000000000001ab99 .LASF5403
C:\Users\SOLDER~1\AppData\Local\Temp\ccqxjBbT.s:30029  .debug_str:000000000002cf10 .LASF5404
C:\Users\SOLDER~1\AppData\Local\Temp\ccqxjBbT.s:27929  .debug_str:0000000000024599 .LASF5405
C:\Users\SOLDER~1\AppData\Local\Temp\ccqxjBbT.s:25475  .debug_str:000000000001a693 .LASF5406
C:\Users\SOLDER~1\AppData\Local\Temp\ccqxjBbT.s:26169  .debug_str:000000000001d3d7 .LASF5407
C:\Users\SOLDER~1\AppData\Local\Temp\ccqxjBbT.s:21773  .debug_str:000000000000b71a .LASF5408
C:\Users\SOLDER~1\AppData\Local\Temp\ccqxjBbT.s:24967  .debug_str:0000000000018657 .LASF5409
C:\Users\SOLDER~1\AppData\Local\Temp\ccqxjBbT.s:28699  .debug_str:0000000000027888 .LASF5410
C:\Users\SOLDER~1\AppData\Local\Temp\ccqxjBbT.s:22841  .debug_str:000000000000fd3b .LASF5411
C:\Users\SOLDER~1\AppData\Local\Temp\ccqxjBbT.s:25047  .debug_str:0000000000018b80 .LASF5412
C:\Users\SOLDER~1\AppData\Local\Temp\ccqxjBbT.s:24041  .debug_str:0000000000014bc0 .LASF5413
C:\Users\SOLDER~1\AppData\Local\Temp\ccqxjBbT.s:29643  .debug_str:000000000002b5db .LASF5414
C:\Users\SOLDER~1\AppData\Local\Temp\ccqxjBbT.s:30105  .debug_str:000000000002d439 .LASF5415
C:\Users\SOLDER~1\AppData\Local\Temp\ccqxjBbT.s:29949  .debug_str:000000000002c9dc .LASF5416
C:\Users\SOLDER~1\AppData\Local\Temp\ccqxjBbT.s:20441  .debug_str:0000000000005fad .LASF5417
C:\Users\SOLDER~1\AppData\Local\Temp\ccqxjBbT.s:28027  .debug_str:0000000000024c0e .LASF5418
C:\Users\SOLDER~1\AppData\Local\Temp\ccqxjBbT.s:21599  .debug_str:000000000000ac3f .LASF5419
C:\Users\SOLDER~1\AppData\Local\Temp\ccqxjBbT.s:21545  .debug_str:000000000000a8a6 .LASF5420
C:\Users\SOLDER~1\AppData\Local\Temp\ccqxjBbT.s:25221  .debug_str:0000000000019737 .LASF5421
C:\Users\SOLDER~1\AppData\Local\Temp\ccqxjBbT.s:28623  .debug_str:00000000000273a4 .LASF5422
C:\Users\SOLDER~1\AppData\Local\Temp\ccqxjBbT.s:22027  .debug_str:000000000000c7ca .LASF5423
GAS LISTING C:\Users\SOLDER~1\AppData\Local\Temp\ccqxjBbT.s 			page 113


C:\Users\SOLDER~1\AppData\Local\Temp\ccqxjBbT.s:23169  .debug_str:0000000000011249 .LASF5424
C:\Users\SOLDER~1\AppData\Local\Temp\ccqxjBbT.s:21569  .debug_str:000000000000aa42 .LASF5425
C:\Users\SOLDER~1\AppData\Local\Temp\ccqxjBbT.s:29981  .debug_str:000000000002cbde .LASF5426
C:\Users\SOLDER~1\AppData\Local\Temp\ccqxjBbT.s:26499  .debug_str:000000000001e91f .LASF5427
C:\Users\SOLDER~1\AppData\Local\Temp\ccqxjBbT.s:27531  .debug_str:0000000000022bbd .LASF5428
C:\Users\SOLDER~1\AppData\Local\Temp\ccqxjBbT.s:25977  .debug_str:000000000001c74c .LASF5429
C:\Users\SOLDER~1\AppData\Local\Temp\ccqxjBbT.s:21107  .debug_str:0000000000008b5a .LASF5430
C:\Users\SOLDER~1\AppData\Local\Temp\ccqxjBbT.s:28853  .debug_str:00000000000282b9 .LASF5431
C:\Users\SOLDER~1\AppData\Local\Temp\ccqxjBbT.s:30239  .debug_str:000000000002dcb2 .LASF5432
C:\Users\SOLDER~1\AppData\Local\Temp\ccqxjBbT.s:20305  .debug_str:00000000000056a7 .LASF5433
C:\Users\SOLDER~1\AppData\Local\Temp\ccqxjBbT.s:23989  .debug_str:0000000000014855 .LASF5434
C:\Users\SOLDER~1\AppData\Local\Temp\ccqxjBbT.s:29655  .debug_str:000000000002b6ae .LASF5435
C:\Users\SOLDER~1\AppData\Local\Temp\ccqxjBbT.s:30051  .debug_str:000000000002d08b .LASF5436
C:\Users\SOLDER~1\AppData\Local\Temp\ccqxjBbT.s:23245  .debug_str:0000000000011772 .LASF5437
C:\Users\SOLDER~1\AppData\Local\Temp\ccqxjBbT.s:20095  .debug_str:00000000000049ed .LASF5438
C:\Users\SOLDER~1\AppData\Local\Temp\ccqxjBbT.s:19741  .debug_str:0000000000003355 .LASF5439
C:\Users\SOLDER~1\AppData\Local\Temp\ccqxjBbT.s:25711  .debug_str:000000000001b5dd .LASF5440
C:\Users\SOLDER~1\AppData\Local\Temp\ccqxjBbT.s:28987  .debug_str:0000000000028b61 .LASF5441
C:\Users\SOLDER~1\AppData\Local\Temp\ccqxjBbT.s:21539  .debug_str:000000000000a849 .LASF5442
C:\Users\SOLDER~1\AppData\Local\Temp\ccqxjBbT.s:22787  .debug_str:000000000000f97c .LASF5443
C:\Users\SOLDER~1\AppData\Local\Temp\ccqxjBbT.s:26137  .debug_str:000000000001d1a8 .LASF5444
C:\Users\SOLDER~1\AppData\Local\Temp\ccqxjBbT.s:26991  .debug_str:000000000002090c .LASF5445
C:\Users\SOLDER~1\AppData\Local\Temp\ccqxjBbT.s:21403  .debug_str:0000000000009f22 .LASF5446
C:\Users\SOLDER~1\AppData\Local\Temp\ccqxjBbT.s:19363  .debug_str:0000000000001acd .LASF5447
C:\Users\SOLDER~1\AppData\Local\Temp\ccqxjBbT.s:26735  .debug_str:000000000001f8a7 .LASF5448
C:\Users\SOLDER~1\AppData\Local\Temp\ccqxjBbT.s:20125  .debug_str:0000000000004bb8 .LASF5449
C:\Users\SOLDER~1\AppData\Local\Temp\ccqxjBbT.s:29821  .debug_str:000000000002c1c0 .LASF5450
C:\Users\SOLDER~1\AppData\Local\Temp\ccqxjBbT.s:26875  .debug_str:0000000000020171 .LASF5451
C:\Users\SOLDER~1\AppData\Local\Temp\ccqxjBbT.s:19471  .debug_str:00000000000021fe .LASF5452
C:\Users\SOLDER~1\AppData\Local\Temp\ccqxjBbT.s:24473  .debug_str:00000000000166be .LASF5453
C:\Users\SOLDER~1\AppData\Local\Temp\ccqxjBbT.s:22983  .debug_str:0000000000010648 .LASF5454
C:\Users\SOLDER~1\AppData\Local\Temp\ccqxjBbT.s:24339  .debug_str:0000000000015e64 .LASF5455
C:\Users\SOLDER~1\AppData\Local\Temp\ccqxjBbT.s:23323  .debug_str:0000000000011c20 .LASF5456
C:\Users\SOLDER~1\AppData\Local\Temp\ccqxjBbT.s:28297  .debug_str:0000000000025db2 .LASF5457
C:\Users\SOLDER~1\AppData\Local\Temp\ccqxjBbT.s:22861  .debug_str:000000000000fe85 .LASF5458
C:\Users\SOLDER~1\AppData\Local\Temp\ccqxjBbT.s:21727  .debug_str:000000000000b44d .LASF5459
C:\Users\SOLDER~1\AppData\Local\Temp\ccqxjBbT.s:23643  .debug_str:0000000000013057 .LASF5460
C:\Users\SOLDER~1\AppData\Local\Temp\ccqxjBbT.s:22693  .debug_str:000000000000f372 .LASF5461
C:\Users\SOLDER~1\AppData\Local\Temp\ccqxjBbT.s:19837  .debug_str:0000000000003977 .LASF5462
C:\Users\SOLDER~1\AppData\Local\Temp\ccqxjBbT.s:21521  .debug_str:000000000000a717 .LASF5463
C:\Users\SOLDER~1\AppData\Local\Temp\ccqxjBbT.s:20001  .debug_str:00000000000043ea .LASF5464
C:\Users\SOLDER~1\AppData\Local\Temp\ccqxjBbT.s:29975  .debug_str:000000000002cb77 .LASF5465
C:\Users\SOLDER~1\AppData\Local\Temp\ccqxjBbT.s:21367  .debug_str:0000000000009ca3 .LASF5466
C:\Users\SOLDER~1\AppData\Local\Temp\ccqxjBbT.s:29781  .debug_str:000000000002bee4 .LASF5467
C:\Users\SOLDER~1\AppData\Local\Temp\ccqxjBbT.s:24601  .debug_str:0000000000016e61 .LASF5468
C:\Users\SOLDER~1\AppData\Local\Temp\ccqxjBbT.s:25393  .debug_str:000000000001a157 .LASF5469
C:\Users\SOLDER~1\AppData\Local\Temp\ccqxjBbT.s:24219  .debug_str:0000000000015721 .LASF5470
C:\Users\SOLDER~1\AppData\Local\Temp\ccqxjBbT.s:27227  .debug_str:000000000002183c .LASF5471
C:\Users\SOLDER~1\AppData\Local\Temp\ccqxjBbT.s:28347  .debug_str:000000000002612f .LASF5472
C:\Users\SOLDER~1\AppData\Local\Temp\ccqxjBbT.s:21809  .debug_str:000000000000b927 .LASF5473
C:\Users\SOLDER~1\AppData\Local\Temp\ccqxjBbT.s:20667  .debug_str:0000000000006ee5 .LASF5474
C:\Users\SOLDER~1\AppData\Local\Temp\ccqxjBbT.s:21243  .debug_str:00000000000094b3 .LASF5475
C:\Users\SOLDER~1\AppData\Local\Temp\ccqxjBbT.s:21817  .debug_str:000000000000b990 .LASF5476
C:\Users\SOLDER~1\AppData\Local\Temp\ccqxjBbT.s:22749  .debug_str:000000000000f6c3 .LASF5477
C:\Users\SOLDER~1\AppData\Local\Temp\ccqxjBbT.s:25511  .debug_str:000000000001a90c .LASF5478
C:\Users\SOLDER~1\AppData\Local\Temp\ccqxjBbT.s:26123  .debug_str:000000000001d07e .LASF5479
C:\Users\SOLDER~1\AppData\Local\Temp\ccqxjBbT.s:29905  .debug_str:000000000002c717 .LASF5480
GAS LISTING C:\Users\SOLDER~1\AppData\Local\Temp\ccqxjBbT.s 			page 114


C:\Users\SOLDER~1\AppData\Local\Temp\ccqxjBbT.s:21953  .debug_str:000000000000c283 .LASF5481
C:\Users\SOLDER~1\AppData\Local\Temp\ccqxjBbT.s:26039  .debug_str:000000000001cb8a .LASF5482
C:\Users\SOLDER~1\AppData\Local\Temp\ccqxjBbT.s:22785  .debug_str:000000000000f950 .LASF5483
C:\Users\SOLDER~1\AppData\Local\Temp\ccqxjBbT.s:24605  .debug_str:0000000000016ea5 .LASF5484
C:\Users\SOLDER~1\AppData\Local\Temp\ccqxjBbT.s:22129  .debug_str:000000000000cecf .LASF5485
C:\Users\SOLDER~1\AppData\Local\Temp\ccqxjBbT.s:21365  .debug_str:0000000000009c80 .LASF5486
C:\Users\SOLDER~1\AppData\Local\Temp\ccqxjBbT.s:30009  .debug_str:000000000002cdae .LASF5487
C:\Users\SOLDER~1\AppData\Local\Temp\ccqxjBbT.s:22867  .debug_str:000000000000fecb .LASF5488
C:\Users\SOLDER~1\AppData\Local\Temp\ccqxjBbT.s:30217  .debug_str:000000000002db32 .LASF5489
C:\Users\SOLDER~1\AppData\Local\Temp\ccqxjBbT.s:26495  .debug_str:000000000001e8d4 .LASF5490
C:\Users\SOLDER~1\AppData\Local\Temp\ccqxjBbT.s:19101  .debug_str:0000000000000a7f .LASF5491
C:\Users\SOLDER~1\AppData\Local\Temp\ccqxjBbT.s:23825  .debug_str:0000000000013d11 .LASF5492
C:\Users\SOLDER~1\AppData\Local\Temp\ccqxjBbT.s:29023  .debug_str:0000000000028d7f .LASF5493
C:\Users\SOLDER~1\AppData\Local\Temp\ccqxjBbT.s:25541  .debug_str:000000000001aaca .LASF5494
C:\Users\SOLDER~1\AppData\Local\Temp\ccqxjBbT.s:21787  .debug_str:000000000000b7ef .LASF5495
C:\Users\SOLDER~1\AppData\Local\Temp\ccqxjBbT.s:24637  .debug_str:00000000000170ce .LASF5496
C:\Users\SOLDER~1\AppData\Local\Temp\ccqxjBbT.s:29347  .debug_str:000000000002a2f5 .LASF5497
C:\Users\SOLDER~1\AppData\Local\Temp\ccqxjBbT.s:22521  .debug_str:000000000000e872 .LASF5498
C:\Users\SOLDER~1\AppData\Local\Temp\ccqxjBbT.s:25759  .debug_str:000000000001b897 .LASF5499
C:\Users\SOLDER~1\AppData\Local\Temp\ccqxjBbT.s:22267  .debug_str:000000000000d7f1 .LASF5500
C:\Users\SOLDER~1\AppData\Local\Temp\ccqxjBbT.s:28475  .debug_str:00000000000269f4 .LASF5501
C:\Users\SOLDER~1\AppData\Local\Temp\ccqxjBbT.s:27817  .debug_str:0000000000023e46 .LASF5502
C:\Users\SOLDER~1\AppData\Local\Temp\ccqxjBbT.s:29751  .debug_str:000000000002bcc1 .LASF5503
C:\Users\SOLDER~1\AppData\Local\Temp\ccqxjBbT.s:22153  .debug_str:000000000000d050 .LASF5504
C:\Users\SOLDER~1\AppData\Local\Temp\ccqxjBbT.s:27761  .debug_str:0000000000023a88 .LASF5505
C:\Users\SOLDER~1\AppData\Local\Temp\ccqxjBbT.s:24977  .debug_str:0000000000018701 .LASF5506
C:\Users\SOLDER~1\AppData\Local\Temp\ccqxjBbT.s:30493  .debug_str:000000000002ed08 .LASF5507
C:\Users\SOLDER~1\AppData\Local\Temp\ccqxjBbT.s:25567  .debug_str:000000000001ace5 .LASF5508
C:\Users\SOLDER~1\AppData\Local\Temp\ccqxjBbT.s:22947  .debug_str:00000000000103ef .LASF5509
C:\Users\SOLDER~1\AppData\Local\Temp\ccqxjBbT.s:20243  .debug_str:00000000000052f5 .LASF5510
C:\Users\SOLDER~1\AppData\Local\Temp\ccqxjBbT.s:21561  .debug_str:000000000000a9b2 .LASF5511
C:\Users\SOLDER~1\AppData\Local\Temp\ccqxjBbT.s:19995  .debug_str:0000000000004377 .LASF5512
C:\Users\SOLDER~1\AppData\Local\Temp\ccqxjBbT.s:22193  .debug_str:000000000000d305 .LASF5513
C:\Users\SOLDER~1\AppData\Local\Temp\ccqxjBbT.s:27141  .debug_str:00000000000212d8 .LASF5514
C:\Users\SOLDER~1\AppData\Local\Temp\ccqxjBbT.s:26915  .debug_str:000000000002040f .LASF5515
C:\Users\SOLDER~1\AppData\Local\Temp\ccqxjBbT.s:24037  .debug_str:0000000000014b78 .LASF5516
C:\Users\SOLDER~1\AppData\Local\Temp\ccqxjBbT.s:23275  .debug_str:000000000001191c .LASF5517
C:\Users\SOLDER~1\AppData\Local\Temp\ccqxjBbT.s:27151  .debug_str:000000000002137b .LASF5518
C:\Users\SOLDER~1\AppData\Local\Temp\ccqxjBbT.s:27073  .debug_str:0000000000020e3a .LASF5519
C:\Users\SOLDER~1\AppData\Local\Temp\ccqxjBbT.s:20679  .debug_str:0000000000006fd7 .LASF5520
C:\Users\SOLDER~1\AppData\Local\Temp\ccqxjBbT.s:22935  .debug_str:0000000000010305 .LASF5521
C:\Users\SOLDER~1\AppData\Local\Temp\ccqxjBbT.s:28787  .debug_str:0000000000027e63 .LASF5522
C:\Users\SOLDER~1\AppData\Local\Temp\ccqxjBbT.s:29345  .debug_str:000000000002a2d3 .LASF5523
C:\Users\SOLDER~1\AppData\Local\Temp\ccqxjBbT.s:25841  .debug_str:000000000001be16 .LASF5524
C:\Users\SOLDER~1\AppData\Local\Temp\ccqxjBbT.s:22231  .debug_str:000000000000d590 .LASF5525
C:\Users\SOLDER~1\AppData\Local\Temp\ccqxjBbT.s:29789  .debug_str:000000000002bf71 .LASF5526
C:\Users\SOLDER~1\AppData\Local\Temp\ccqxjBbT.s:27637  .debug_str:000000000002327d .LASF5527
C:\Users\SOLDER~1\AppData\Local\Temp\ccqxjBbT.s:19323  .debug_str:0000000000001835 .LASF5528
C:\Users\SOLDER~1\AppData\Local\Temp\ccqxjBbT.s:23725  .debug_str:00000000000135ea .LASF5529
C:\Users\SOLDER~1\AppData\Local\Temp\ccqxjBbT.s:23439  .debug_str:0000000000012372 .LASF5530
C:\Users\SOLDER~1\AppData\Local\Temp\ccqxjBbT.s:22953  .debug_str:000000000001045e .LASF5531
C:\Users\SOLDER~1\AppData\Local\Temp\ccqxjBbT.s:19449  .debug_str:000000000000206f .LASF5532
C:\Users\SOLDER~1\AppData\Local\Temp\ccqxjBbT.s:19175  .debug_str:0000000000000f6b .LASF5533
C:\Users\SOLDER~1\AppData\Local\Temp\ccqxjBbT.s:26785  .debug_str:000000000001fbd2 .LASF5534
C:\Users\SOLDER~1\AppData\Local\Temp\ccqxjBbT.s:30057  .debug_str:000000000002d110 .LASF5535
C:\Users\SOLDER~1\AppData\Local\Temp\ccqxjBbT.s:26553  .debug_str:000000000001ec9a .LASF5536
C:\Users\SOLDER~1\AppData\Local\Temp\ccqxjBbT.s:27897  .debug_str:0000000000024369 .LASF5537
GAS LISTING C:\Users\SOLDER~1\AppData\Local\Temp\ccqxjBbT.s 			page 115


C:\Users\SOLDER~1\AppData\Local\Temp\ccqxjBbT.s:20695  .debug_str:00000000000070f0 .LASF5538
C:\Users\SOLDER~1\AppData\Local\Temp\ccqxjBbT.s:25891  .debug_str:000000000001c16c .LASF5539
C:\Users\SOLDER~1\AppData\Local\Temp\ccqxjBbT.s:23587  .debug_str:0000000000012c97 .LASF5540
C:\Users\SOLDER~1\AppData\Local\Temp\ccqxjBbT.s:30463  .debug_str:000000000002eb24 .LASF5541
C:\Users\SOLDER~1\AppData\Local\Temp\ccqxjBbT.s:22271  .debug_str:000000000000d836 .LASF5542
C:\Users\SOLDER~1\AppData\Local\Temp\ccqxjBbT.s:27435  .debug_str:0000000000022538 .LASF5543
C:\Users\SOLDER~1\AppData\Local\Temp\ccqxjBbT.s:22201  .debug_str:000000000000d37d .LASF5544
C:\Users\SOLDER~1\AppData\Local\Temp\ccqxjBbT.s:28429  .debug_str:00000000000266bd .LASF5545
C:\Users\SOLDER~1\AppData\Local\Temp\ccqxjBbT.s:22213  .debug_str:000000000000d45c .LASF5546
C:\Users\SOLDER~1\AppData\Local\Temp\ccqxjBbT.s:29267  .debug_str:0000000000029d77 .LASF5547
C:\Users\SOLDER~1\AppData\Local\Temp\ccqxjBbT.s:29641  .debug_str:000000000002b5aa .LASF5548
C:\Users\SOLDER~1\AppData\Local\Temp\ccqxjBbT.s:27461  .debug_str:00000000000226e6 .LASF5549
C:\Users\SOLDER~1\AppData\Local\Temp\ccqxjBbT.s:28691  .debug_str:0000000000027815 .LASF5550
C:\Users\SOLDER~1\AppData\Local\Temp\ccqxjBbT.s:24141  .debug_str:00000000000151e2 .LASF5551
C:\Users\SOLDER~1\AppData\Local\Temp\ccqxjBbT.s:30219  .debug_str:000000000002db56 .LASF5552
C:\Users\SOLDER~1\AppData\Local\Temp\ccqxjBbT.s:24963  .debug_str:00000000000185fc .LASF5553
C:\Users\SOLDER~1\AppData\Local\Temp\ccqxjBbT.s:24019  .debug_str:0000000000014a21 .LASF5554
C:\Users\SOLDER~1\AppData\Local\Temp\ccqxjBbT.s:23819  .debug_str:0000000000013c91 .LASF5555
C:\Users\SOLDER~1\AppData\Local\Temp\ccqxjBbT.s:22565  .debug_str:000000000000eb5c .LASF5556
C:\Users\SOLDER~1\AppData\Local\Temp\ccqxjBbT.s:26155  .debug_str:000000000001d2df .LASF5557
C:\Users\SOLDER~1\AppData\Local\Temp\ccqxjBbT.s:21555  .debug_str:000000000000a93d .LASF5558
C:\Users\SOLDER~1\AppData\Local\Temp\ccqxjBbT.s:28303  .debug_str:0000000000025e16 .LASF5559
C:\Users\SOLDER~1\AppData\Local\Temp\ccqxjBbT.s:19673  .debug_str:0000000000002efc .LASF5560
C:\Users\SOLDER~1\AppData\Local\Temp\ccqxjBbT.s:20111  .debug_str:0000000000004abe .LASF5561
C:\Users\SOLDER~1\AppData\Local\Temp\ccqxjBbT.s:21661  .debug_str:000000000000b04c .LASF5562
C:\Users\SOLDER~1\AppData\Local\Temp\ccqxjBbT.s:25169  .debug_str:0000000000019368 .LASF5563
C:\Users\SOLDER~1\AppData\Local\Temp\ccqxjBbT.s:22225  .debug_str:000000000000d535 .LASF5564
C:\Users\SOLDER~1\AppData\Local\Temp\ccqxjBbT.s:20011  .debug_str:000000000000448c .LASF5565
C:\Users\SOLDER~1\AppData\Local\Temp\ccqxjBbT.s:28857  .debug_str:00000000000282f8 .LASF5566
C:\Users\SOLDER~1\AppData\Local\Temp\ccqxjBbT.s:21691  .debug_str:000000000000b20e .LASF5567
C:\Users\SOLDER~1\AppData\Local\Temp\ccqxjBbT.s:26269  .debug_str:000000000001d9e1 .LASF5568
C:\Users\SOLDER~1\AppData\Local\Temp\ccqxjBbT.s:28793  .debug_str:0000000000027eb9 .LASF5569
C:\Users\SOLDER~1\AppData\Local\Temp\ccqxjBbT.s:26005  .debug_str:000000000001c917 .LASF5570
C:\Users\SOLDER~1\AppData\Local\Temp\ccqxjBbT.s:30427  .debug_str:000000000002e8a1 .LASF5571
C:\Users\SOLDER~1\AppData\Local\Temp\ccqxjBbT.s:29491  .debug_str:000000000002abf4 .LASF5572
C:\Users\SOLDER~1\AppData\Local\Temp\ccqxjBbT.s:29765  .debug_str:000000000002bdc0 .LASF5573
C:\Users\SOLDER~1\AppData\Local\Temp\ccqxjBbT.s:25219  .debug_str:0000000000019718 .LASF5574
C:\Users\SOLDER~1\AppData\Local\Temp\ccqxjBbT.s:20627  .debug_str:0000000000006c2c .LASF5575
C:\Users\SOLDER~1\AppData\Local\Temp\ccqxjBbT.s:19199  .debug_str:000000000000104b .LASF5576
C:\Users\SOLDER~1\AppData\Local\Temp\ccqxjBbT.s:27515  .debug_str:0000000000022ab5 .LASF5577
C:\Users\SOLDER~1\AppData\Local\Temp\ccqxjBbT.s:19097  .debug_str:0000000000000a39 .LASF5578
C:\Users\SOLDER~1\AppData\Local\Temp\ccqxjBbT.s:23847  .debug_str:0000000000013e85 .LASF5579
C:\Users\SOLDER~1\AppData\Local\Temp\ccqxjBbT.s:23213  .debug_str:000000000001150b .LASF5580
C:\Users\SOLDER~1\AppData\Local\Temp\ccqxjBbT.s:27967  .debug_str:000000000002480d .LASF5581
C:\Users\SOLDER~1\AppData\Local\Temp\ccqxjBbT.s:19219  .debug_str:000000000000118e .LASF5582
C:\Users\SOLDER~1\AppData\Local\Temp\ccqxjBbT.s:24665  .debug_str:00000000000172be .LASF5583
C:\Users\SOLDER~1\AppData\Local\Temp\ccqxjBbT.s:25853  .debug_str:000000000001bee5 .LASF5584
C:\Users\SOLDER~1\AppData\Local\Temp\ccqxjBbT.s:20783  .debug_str:0000000000007668 .LASF5585
C:\Users\SOLDER~1\AppData\Local\Temp\ccqxjBbT.s:21317  .debug_str:000000000000998d .LASF5586
C:\Users\SOLDER~1\AppData\Local\Temp\ccqxjBbT.s:23563  .debug_str:0000000000012af5 .LASF5587
C:\Users\SOLDER~1\AppData\Local\Temp\ccqxjBbT.s:25359  .debug_str:0000000000019f1c .LASF5588
C:\Users\SOLDER~1\AppData\Local\Temp\ccqxjBbT.s:25215  .debug_str:00000000000196c6 .LASF5589
C:\Users\SOLDER~1\AppData\Local\Temp\ccqxjBbT.s:25473  .debug_str:000000000001a66c .LASF5590
C:\Users\SOLDER~1\AppData\Local\Temp\ccqxjBbT.s:26673  .debug_str:000000000001f4b1 .LASF5591
C:\Users\SOLDER~1\AppData\Local\Temp\ccqxjBbT.s:23459  .debug_str:00000000000124aa .LASF5592
C:\Users\SOLDER~1\AppData\Local\Temp\ccqxjBbT.s:29539  .debug_str:000000000002aede .LASF5593
C:\Users\SOLDER~1\AppData\Local\Temp\ccqxjBbT.s:21179  .debug_str:0000000000009040 .LASF5594
GAS LISTING C:\Users\SOLDER~1\AppData\Local\Temp\ccqxjBbT.s 			page 116


C:\Users\SOLDER~1\AppData\Local\Temp\ccqxjBbT.s:27131  .debug_str:0000000000021236 .LASF5595
C:\Users\SOLDER~1\AppData\Local\Temp\ccqxjBbT.s:22845  .debug_str:000000000000fd81 .LASF5596
C:\Users\SOLDER~1\AppData\Local\Temp\ccqxjBbT.s:21557  .debug_str:000000000000a96f .LASF5597
C:\Users\SOLDER~1\AppData\Local\Temp\ccqxjBbT.s:25071  .debug_str:0000000000018d14 .LASF5598
C:\Users\SOLDER~1\AppData\Local\Temp\ccqxjBbT.s:20405  .debug_str:0000000000005d5c .LASF5599
C:\Users\SOLDER~1\AppData\Local\Temp\ccqxjBbT.s:20813  .debug_str:0000000000007813 .LASF5600
C:\Users\SOLDER~1\AppData\Local\Temp\ccqxjBbT.s:21471  .debug_str:000000000000a38b .LASF5601
C:\Users\SOLDER~1\AppData\Local\Temp\ccqxjBbT.s:27587  .debug_str:0000000000022f3f .LASF5602
C:\Users\SOLDER~1\AppData\Local\Temp\ccqxjBbT.s:26259  .debug_str:000000000001d931 .LASF5603
C:\Users\SOLDER~1\AppData\Local\Temp\ccqxjBbT.s:19063  .debug_str:00000000000007bf .LASF5604
C:\Users\SOLDER~1\AppData\Local\Temp\ccqxjBbT.s:23075  .debug_str:0000000000010c29 .LASF5605
C:\Users\SOLDER~1\AppData\Local\Temp\ccqxjBbT.s:30079  .debug_str:000000000002d283 .LASF5606
C:\Users\SOLDER~1\AppData\Local\Temp\ccqxjBbT.s:20165  .debug_str:0000000000004e3c .LASF5607
C:\Users\SOLDER~1\AppData\Local\Temp\ccqxjBbT.s:27795  .debug_str:0000000000023cc8 .LASF5608
C:\Users\SOLDER~1\AppData\Local\Temp\ccqxjBbT.s:28747  .debug_str:0000000000027b88 .LASF5609
C:\Users\SOLDER~1\AppData\Local\Temp\ccqxjBbT.s:27313  .debug_str:0000000000021d97 .LASF5610
C:\Users\SOLDER~1\AppData\Local\Temp\ccqxjBbT.s:27263  .debug_str:0000000000021a93 .LASF5611
C:\Users\SOLDER~1\AppData\Local\Temp\ccqxjBbT.s:26871  .debug_str:0000000000020133 .LASF5612
C:\Users\SOLDER~1\AppData\Local\Temp\ccqxjBbT.s:19397  .debug_str:0000000000001d29 .LASF5613
C:\Users\SOLDER~1\AppData\Local\Temp\ccqxjBbT.s:29021  .debug_str:0000000000028d56 .LASF5614
C:\Users\SOLDER~1\AppData\Local\Temp\ccqxjBbT.s:26131  .debug_str:000000000001d12b .LASF5615
C:\Users\SOLDER~1\AppData\Local\Temp\ccqxjBbT.s:30025  .debug_str:000000000002cec1 .LASF5616
C:\Users\SOLDER~1\AppData\Local\Temp\ccqxjBbT.s:20633  .debug_str:0000000000006c79 .LASF5617
C:\Users\SOLDER~1\AppData\Local\Temp\ccqxjBbT.s:21937  .debug_str:000000000000c171 .LASF5618
C:\Users\SOLDER~1\AppData\Local\Temp\ccqxjBbT.s:29263  .debug_str:0000000000029d2a .LASF5619
C:\Users\SOLDER~1\AppData\Local\Temp\ccqxjBbT.s:25075  .debug_str:0000000000018d4f .LASF5620
C:\Users\SOLDER~1\AppData\Local\Temp\ccqxjBbT.s:27911  .debug_str:0000000000024447 .LASF5621
C:\Users\SOLDER~1\AppData\Local\Temp\ccqxjBbT.s:26311  .debug_str:000000000001dcab .LASF5622
C:\Users\SOLDER~1\AppData\Local\Temp\ccqxjBbT.s:24611  .debug_str:0000000000016f0f .LASF5623
C:\Users\SOLDER~1\AppData\Local\Temp\ccqxjBbT.s:20289  .debug_str:00000000000055a9 .LASF5624
C:\Users\SOLDER~1\AppData\Local\Temp\ccqxjBbT.s:22573  .debug_str:000000000000ebdc .LASF5625
C:\Users\SOLDER~1\AppData\Local\Temp\ccqxjBbT.s:28423  .debug_str:0000000000026654 .LASF5626
C:\Users\SOLDER~1\AppData\Local\Temp\ccqxjBbT.s:23243  .debug_str:0000000000011752 .LASF5627
C:\Users\SOLDER~1\AppData\Local\Temp\ccqxjBbT.s:25615  .debug_str:000000000001aff4 .LASF5628
C:\Users\SOLDER~1\AppData\Local\Temp\ccqxjBbT.s:19055  .debug_str:0000000000000744 .LASF5629
C:\Users\SOLDER~1\AppData\Local\Temp\ccqxjBbT.s:21591  .debug_str:000000000000abbe .LASF5630
C:\Users\SOLDER~1\AppData\Local\Temp\ccqxjBbT.s:26375  .debug_str:000000000001e0e0 .LASF5631
C:\Users\SOLDER~1\AppData\Local\Temp\ccqxjBbT.s:20495  .debug_str:000000000000637b .LASF5632
C:\Users\SOLDER~1\AppData\Local\Temp\ccqxjBbT.s:23799  .debug_str:0000000000013aff .LASF5633
C:\Users\SOLDER~1\AppData\Local\Temp\ccqxjBbT.s:21973  .debug_str:000000000000c40a .LASF5634
C:\Users\SOLDER~1\AppData\Local\Temp\ccqxjBbT.s:27075  .debug_str:0000000000020e58 .LASF5635
C:\Users\SOLDER~1\AppData\Local\Temp\ccqxjBbT.s:24699  .debug_str:0000000000017500 .LASF5636
C:\Users\SOLDER~1\AppData\Local\Temp\ccqxjBbT.s:28933  .debug_str:00000000000287fc .LASF5637
C:\Users\SOLDER~1\AppData\Local\Temp\ccqxjBbT.s:24705  .debug_str:000000000001757e .LASF5638
C:\Users\SOLDER~1\AppData\Local\Temp\ccqxjBbT.s:30249  .debug_str:000000000002dd5f .LASF5639
C:\Users\SOLDER~1\AppData\Local\Temp\ccqxjBbT.s:24483  .debug_str:0000000000016736 .LASF5640
C:\Users\SOLDER~1\AppData\Local\Temp\ccqxjBbT.s:26069  .debug_str:000000000001cd61 .LASF5641
C:\Users\SOLDER~1\AppData\Local\Temp\ccqxjBbT.s:27663  .debug_str:0000000000023476 .LASF5642
C:\Users\SOLDER~1\AppData\Local\Temp\ccqxjBbT.s:23111  .debug_str:0000000000010e58 .LASF5643
C:\Users\SOLDER~1\AppData\Local\Temp\ccqxjBbT.s:24973  .debug_str:00000000000186af .LASF5644
C:\Users\SOLDER~1\AppData\Local\Temp\ccqxjBbT.s:21035  .debug_str:0000000000008693 .LASF5645
C:\Users\SOLDER~1\AppData\Local\Temp\ccqxjBbT.s:23709  .debug_str:00000000000134bc .LASF5646
C:\Users\SOLDER~1\AppData\Local\Temp\ccqxjBbT.s:27231  .debug_str:0000000000021875 .LASF5647
C:\Users\SOLDER~1\AppData\Local\Temp\ccqxjBbT.s:29557  .debug_str:000000000002b030 .LASF5648
C:\Users\SOLDER~1\AppData\Local\Temp\ccqxjBbT.s:21509  .debug_str:000000000000a611 .LASF5649
C:\Users\SOLDER~1\AppData\Local\Temp\ccqxjBbT.s:27099  .debug_str:0000000000020fef .LASF5650
C:\Users\SOLDER~1\AppData\Local\Temp\ccqxjBbT.s:23607  .debug_str:0000000000012e07 .LASF5651
GAS LISTING C:\Users\SOLDER~1\AppData\Local\Temp\ccqxjBbT.s 			page 117


C:\Users\SOLDER~1\AppData\Local\Temp\ccqxjBbT.s:27925  .debug_str:0000000000024543 .LASF5652
C:\Users\SOLDER~1\AppData\Local\Temp\ccqxjBbT.s:24095  .debug_str:0000000000014f51 .LASF5653
C:\Users\SOLDER~1\AppData\Local\Temp\ccqxjBbT.s:27477  .debug_str:00000000000227ff .LASF5654
C:\Users\SOLDER~1\AppData\Local\Temp\ccqxjBbT.s:30465  .debug_str:000000000002eb48 .LASF5655
C:\Users\SOLDER~1\AppData\Local\Temp\ccqxjBbT.s:29817  .debug_str:000000000002c187 .LASF5656
C:\Users\SOLDER~1\AppData\Local\Temp\ccqxjBbT.s:29117  .debug_str:000000000002938c .LASF5657
C:\Users\SOLDER~1\AppData\Local\Temp\ccqxjBbT.s:20645  .debug_str:0000000000006d52 .LASF5658
C:\Users\SOLDER~1\AppData\Local\Temp\ccqxjBbT.s:24093  .debug_str:0000000000014f2b .LASF5659
C:\Users\SOLDER~1\AppData\Local\Temp\ccqxjBbT.s:20641  .debug_str:0000000000006d15 .LASF5660
C:\Users\SOLDER~1\AppData\Local\Temp\ccqxjBbT.s:27609  .debug_str:00000000000230c9 .LASF5661
C:\Users\SOLDER~1\AppData\Local\Temp\ccqxjBbT.s:29635  .debug_str:000000000002b54b .LASF5662
C:\Users\SOLDER~1\AppData\Local\Temp\ccqxjBbT.s:19757  .debug_str:0000000000003477 .LASF5663
C:\Users\SOLDER~1\AppData\Local\Temp\ccqxjBbT.s:29619  .debug_str:000000000002b43d .LASF5664
C:\Users\SOLDER~1\AppData\Local\Temp\ccqxjBbT.s:26439  .debug_str:000000000001e4ca .LASF5665
C:\Users\SOLDER~1\AppData\Local\Temp\ccqxjBbT.s:22955  .debug_str:0000000000010483 .LASF5666
C:\Users\SOLDER~1\AppData\Local\Temp\ccqxjBbT.s:20605  .debug_str:0000000000006abe .LASF5667
C:\Users\SOLDER~1\AppData\Local\Temp\ccqxjBbT.s:20309  .debug_str:00000000000056e4 .LASF5668
C:\Users\SOLDER~1\AppData\Local\Temp\ccqxjBbT.s:19541  .debug_str:0000000000002684 .LASF5669
C:\Users\SOLDER~1\AppData\Local\Temp\ccqxjBbT.s:19759  .debug_str:0000000000003498 .LASF5670
C:\Users\SOLDER~1\AppData\Local\Temp\ccqxjBbT.s:23103  .debug_str:0000000000010dd7 .LASF5671
C:\Users\SOLDER~1\AppData\Local\Temp\ccqxjBbT.s:21219  .debug_str:00000000000092f1 .LASF5672
C:\Users\SOLDER~1\AppData\Local\Temp\ccqxjBbT.s:20313  .debug_str:0000000000005745 .LASF5673
C:\Users\SOLDER~1\AppData\Local\Temp\ccqxjBbT.s:28279  .debug_str:0000000000025c85 .LASF5674
C:\Users\SOLDER~1\AppData\Local\Temp\ccqxjBbT.s:22113  .debug_str:000000000000cdb5 .LASF5675
C:\Users\SOLDER~1\AppData\Local\Temp\ccqxjBbT.s:20689  .debug_str:0000000000007082 .LASF5676
C:\Users\SOLDER~1\AppData\Local\Temp\ccqxjBbT.s:30549  .debug_str:000000000002f064 .LASF5677
C:\Users\SOLDER~1\AppData\Local\Temp\ccqxjBbT.s:21019  .debug_str:000000000000858f .LASF5678
C:\Users\SOLDER~1\AppData\Local\Temp\ccqxjBbT.s:20703  .debug_str:0000000000007170 .LASF5679
C:\Users\SOLDER~1\AppData\Local\Temp\ccqxjBbT.s:24393  .debug_str:00000000000161bb .LASF5680
C:\Users\SOLDER~1\AppData\Local\Temp\ccqxjBbT.s:30359  .debug_str:000000000002e42b .LASF5681
C:\Users\SOLDER~1\AppData\Local\Temp\ccqxjBbT.s:29971  .debug_str:000000000002cb31 .LASF5682
C:\Users\SOLDER~1\AppData\Local\Temp\ccqxjBbT.s:24215  .debug_str:00000000000156d8 .LASF5683
C:\Users\SOLDER~1\AppData\Local\Temp\ccqxjBbT.s:30151  .debug_str:000000000002d6fe .LASF5684
C:\Users\SOLDER~1\AppData\Local\Temp\ccqxjBbT.s:26621  .debug_str:000000000001f125 .LASF5685
C:\Users\SOLDER~1\AppData\Local\Temp\ccqxjBbT.s:23139  .debug_str:0000000000011037 .LASF5686
C:\Users\SOLDER~1\AppData\Local\Temp\ccqxjBbT.s:27779  .debug_str:0000000000023bba .LASF5687
C:\Users\SOLDER~1\AppData\Local\Temp\ccqxjBbT.s:27295  .debug_str:0000000000021ca6 .LASF5688
C:\Users\SOLDER~1\AppData\Local\Temp\ccqxjBbT.s:19773  .debug_str:000000000000356c .LASF5689
C:\Users\SOLDER~1\AppData\Local\Temp\ccqxjBbT.s:25653  .debug_str:000000000001b216 .LASF5690
C:\Users\SOLDER~1\AppData\Local\Temp\ccqxjBbT.s:24145  .debug_str:0000000000015238 .LASF5691
C:\Users\SOLDER~1\AppData\Local\Temp\ccqxjBbT.s:26111  .debug_str:000000000001cfab .LASF5692
C:\Users\SOLDER~1\AppData\Local\Temp\ccqxjBbT.s:29777  .debug_str:000000000002be92 .LASF5693
C:\Users\SOLDER~1\AppData\Local\Temp\ccqxjBbT.s:28129  .debug_str:0000000000025271 .LASF5694
C:\Users\SOLDER~1\AppData\Local\Temp\ccqxjBbT.s:25557  .debug_str:000000000001abfc .LASF5695
C:\Users\SOLDER~1\AppData\Local\Temp\ccqxjBbT.s:25549  .debug_str:000000000001ab6e .LASF5696
C:\Users\SOLDER~1\AppData\Local\Temp\ccqxjBbT.s:25897  .debug_str:000000000001c1d2 .LASF5697
C:\Users\SOLDER~1\AppData\Local\Temp\ccqxjBbT.s:24079  .debug_str:0000000000014e54 .LASF5698
C:\Users\SOLDER~1\AppData\Local\Temp\ccqxjBbT.s:23513  .debug_str:000000000001283f .LASF5699
C:\Users\SOLDER~1\AppData\Local\Temp\ccqxjBbT.s:25555  .debug_str:000000000001abda .LASF5700
C:\Users\SOLDER~1\AppData\Local\Temp\ccqxjBbT.s:30361  .debug_str:000000000002e44e .LASF5701
C:\Users\SOLDER~1\AppData\Local\Temp\ccqxjBbT.s:30271  .debug_str:000000000002ded5 .LASF5702
C:\Users\SOLDER~1\AppData\Local\Temp\ccqxjBbT.s:22921  .debug_str:0000000000010224 .LASF5703
C:\Users\SOLDER~1\AppData\Local\Temp\ccqxjBbT.s:29623  .debug_str:000000000002b480 .LASF5704
C:\Users\SOLDER~1\AppData\Local\Temp\ccqxjBbT.s:26315  .debug_str:000000000001dcfc .LASF5705
C:\Users\SOLDER~1\AppData\Local\Temp\ccqxjBbT.s:23339  .debug_str:0000000000011d15 .LASF5706
C:\Users\SOLDER~1\AppData\Local\Temp\ccqxjBbT.s:20861  .debug_str:0000000000007b4c .LASF5707
C:\Users\SOLDER~1\AppData\Local\Temp\ccqxjBbT.s:19223  .debug_str:00000000000011e0 .LASF5708
GAS LISTING C:\Users\SOLDER~1\AppData\Local\Temp\ccqxjBbT.s 			page 118


C:\Users\SOLDER~1\AppData\Local\Temp\ccqxjBbT.s:27821  .debug_str:0000000000023e79 .LASF5709
C:\Users\SOLDER~1\AppData\Local\Temp\ccqxjBbT.s:23487  .debug_str:0000000000012661 .LASF5710
C:\Users\SOLDER~1\AppData\Local\Temp\ccqxjBbT.s:21127  .debug_str:0000000000008c93 .LASF5711
C:\Users\SOLDER~1\AppData\Local\Temp\ccqxjBbT.s:20347  .debug_str:00000000000059ba .LASF5712
C:\Users\SOLDER~1\AppData\Local\Temp\ccqxjBbT.s:29849  .debug_str:000000000002c398 .LASF5713
C:\Users\SOLDER~1\AppData\Local\Temp\ccqxjBbT.s:21903  .debug_str:000000000000bf19 .LASF5714
C:\Users\SOLDER~1\AppData\Local\Temp\ccqxjBbT.s:22099  .debug_str:000000000000ccc9 .LASF5715
C:\Users\SOLDER~1\AppData\Local\Temp\ccqxjBbT.s:26229  .debug_str:000000000001d780 .LASF5716
C:\Users\SOLDER~1\AppData\Local\Temp\ccqxjBbT.s:23269  .debug_str:00000000000118c1 .LASF5717
C:\Users\SOLDER~1\AppData\Local\Temp\ccqxjBbT.s:25109  .debug_str:0000000000018fab .LASF5718
C:\Users\SOLDER~1\AppData\Local\Temp\ccqxjBbT.s:22705  .debug_str:000000000000f424 .LASF5720
C:\Users\SOLDER~1\AppData\Local\Temp\ccqxjBbT.s:23217  .debug_str:000000000001154f .LASF5721
C:\Users\SOLDER~1\AppData\Local\Temp\ccqxjBbT.s:30477  .debug_str:000000000002ec06 .LASF5722
C:\Users\SOLDER~1\AppData\Local\Temp\ccqxjBbT.s:19621  .debug_str:0000000000002baa .LASF5723
                           .group:0000000000000000 wm4.0.cc27e0d2094b492664a2491ca1ae43b0
                           .group:0000000000000000 wm4.stdbool.h.29.4a1c88fe569adb8d03217dd16982ca34
                           .group:0000000000000000 wm4.ch32v20x.h.13.a030255a3e90e7179ae3b08da8e2408d
                           .group:0000000000000000 wm4._newlib_version.h.4.529115dae5e4f67702b1de0b6e841f38
                           .group:0000000000000000 wm4.features.h.33.3e67abe6fb64142d4f6fa9496796153c
                           .group:0000000000000000 wm4._default_types.h.15.247e5cd201eca3442cbf5404108c4935
                           .group:0000000000000000 wm4._intsup.h.10.48bafbb683905c4daa4565a85aeeb264
                           .group:0000000000000000 wm4._stdint.h.10.c24fa3af3bc1706662bb5593a907e841
                           .group:0000000000000000 wm4.stdint.h.23.d53047a68f4a85177f80b422d52785ed
                           .group:0000000000000000 wm4.core_riscv.h.11.151d7acb41e203dcc664023294f59bdc
                           .group:0000000000000000 wm4.ch32v20x.h.153.1d8393f26361703471ea96fe9aa4b4f9
                           .group:0000000000000000 wm4.ch32v20x_adc.h.56.f131972e7ce35efbe3b5c47a075d6d1b
                           .group:0000000000000000 wm4.ch32v20x_bkp.h.14.0a7965eb5be5000a494c3059b6f0eca5
                           .group:0000000000000000 wm4.ch32v20x_can.h.14.aa1dae2c28cbaf083875b4b61810c3c7
                           .group:0000000000000000 wm4.ch32v20x_dbgmcu.h.14.26ef95879978d9caaa154b373f3a512b
                           .group:0000000000000000 wm4.ch32v20x_dma.h.14.425a907348dd0134bf6e82c73bbd3df8
                           .group:0000000000000000 wm4.ch32v20x_exti.h.14.f67190d3fb91aa9aecce0f4d5a543221
                           .group:0000000000000000 wm4.ch32v20x_flash.h.14.91c5ecdad44f358d5032244aabf7ef4e
                           .group:0000000000000000 wm4.ch32v20x_gpio.h.14.bdb7f79cce0dffbc24dc81ea80f90bd2
                           .group:0000000000000000 wm4.ch32v20x_i2c.h.14.101eb625c9d2afac400f4e8ac2e9fb1d
                           .group:0000000000000000 wm4.ch32v20x_iwdg.h.14.26025d04ceeb3151185969ed5850fbb4
                           .group:0000000000000000 wm4.ch32v20x_pwr.h.14.8eaa3508938f71b27f140895c21602e6
                           .group:0000000000000000 wm4.ch32v20x_rcc.h.13.18c6b8696a30372de01acaf3c246ecb8
                           .group:0000000000000000 wm4.ch32v20x_rtc.h.14.eb8734f5dd75abcf831b4f12ec49aebe
                           .group:0000000000000000 wm4.ch32v20x_spi.h.14.f12b1f237c615e7304ae62cc2e2c3c1a
                           .group:0000000000000000 wm4.ch32v20x_tim.h.14.35d11fab62898d9d661122ade86d8a6c
                           .group:0000000000000000 wm4.ch32v20x_usart.h.14.9d28c7ec28f2121810b69a55079cd38f
                           .group:0000000000000000 wm4.ch32v20x_wwdg.h.14.49bada437175894a4dce7e12e4216bc9
                           .group:0000000000000000 wm4.ch32v20x_misc.h.14.f3992cf724c30ec0bea268444ffdb6e0
                           .group:0000000000000000 wm4.ch32v20x_RVMSIS.h.16.fd1de6597df373d1faf18b8f993e6168

UNDEFINED SYMBOLS
SysTimer_ms
Delay_counter_ms
Timeout_counter_ms
husart1
husart2
husart3
