GAS LISTING C:\Users\SOLDER~1\AppData\Local\Temp\ccYCTqm0.s 			page 1


   1              		.file	"ch32v20x_can.c"
   2              		.option nopic
   3              		.attribute arch, "rv32i2p0_m2p0_a2p0_c2p0_xw"
   4              		.attribute unaligned_access, 0
   5              		.attribute stack_align, 16
   6              		.text
   7              	.Ltext0:
   8              		.cfi_sections	.debug_frame
   9              		.file 0 "C:\\Users\\Solderingiron\\Documents\\GitHub\\VSC-make-example\\VSC_CH32V203C8T6" "Drivers
  10              		.section	.text.CAN_DeInit,"ax",@progbits
  11              		.align	1
  12              		.globl	CAN_DeInit
  14              	CAN_DeInit:
  15              	.LFB16:
  16              		.file 1 "Drivers/src/ch32v20x_can.c"
   1:Drivers/src/ch32v20x_can.c **** /********************************** (C) COPYRIGHT  *******************************
   2:Drivers/src/ch32v20x_can.c ****  * File Name          : ch32v20x_can.c
   3:Drivers/src/ch32v20x_can.c ****  * Author             : WCH
   4:Drivers/src/ch32v20x_can.c ****  * Version            : V1.0.0
   5:Drivers/src/ch32v20x_can.c ****  * Date               : 2021/06/06
   6:Drivers/src/ch32v20x_can.c ****  * Description        : This file provides all the CAN firmware functions.
   7:Drivers/src/ch32v20x_can.c **** *********************************************************************************
   8:Drivers/src/ch32v20x_can.c **** * Copyright (c) 2021 Nanjing Qinheng Microelectronics Co., Ltd.
   9:Drivers/src/ch32v20x_can.c **** * Attention: This software (modified or not) and binary are used for 
  10:Drivers/src/ch32v20x_can.c **** * microcontroller manufactured by Nanjing Qinheng Microelectronics.
  11:Drivers/src/ch32v20x_can.c **** *******************************************************************************/
  12:Drivers/src/ch32v20x_can.c **** #include "ch32v20x_can.h"
  13:Drivers/src/ch32v20x_can.c **** #include "ch32v20x_rcc.h"
  14:Drivers/src/ch32v20x_can.c **** 
  15:Drivers/src/ch32v20x_can.c **** /* CAN CTLR Register bits */
  16:Drivers/src/ch32v20x_can.c **** #define CTLR_DBF                     ((uint32_t)0x00010000) 
  17:Drivers/src/ch32v20x_can.c **** 
  18:Drivers/src/ch32v20x_can.c **** /* CAN Mailbox Transmit Request */
  19:Drivers/src/ch32v20x_can.c **** #define TMIDxR_TXRQ                  ((uint32_t)0x00000001) 
  20:Drivers/src/ch32v20x_can.c **** 
  21:Drivers/src/ch32v20x_can.c **** /* CAN FCTLR Register bits */
  22:Drivers/src/ch32v20x_can.c **** #define FCTLR_FINIT                  ((uint32_t)0x00000001) 
  23:Drivers/src/ch32v20x_can.c **** 
  24:Drivers/src/ch32v20x_can.c **** /* Time out for INAK bit */
  25:Drivers/src/ch32v20x_can.c **** #define INAK_TIMEOUT                 ((uint32_t)0x0000FFFF)
  26:Drivers/src/ch32v20x_can.c **** /* Time out for SLAK bit */
  27:Drivers/src/ch32v20x_can.c **** #define SLAK_TIMEOUT                 ((uint32_t)0x0000FFFF)
  28:Drivers/src/ch32v20x_can.c **** 
  29:Drivers/src/ch32v20x_can.c **** 
  30:Drivers/src/ch32v20x_can.c **** /* Flags in TSTATR register */
  31:Drivers/src/ch32v20x_can.c **** #define CAN_FLAGS_TSTATR             ((uint32_t)0x08000000) 
  32:Drivers/src/ch32v20x_can.c **** /* Flags in RFIFO1 register */
  33:Drivers/src/ch32v20x_can.c **** #define CAN_FLAGS_RFIFO1             ((uint32_t)0x04000000) 
  34:Drivers/src/ch32v20x_can.c **** /* Flags in RFIFO0 register */
  35:Drivers/src/ch32v20x_can.c **** #define CAN_FLAGS_RFIFO0             ((uint32_t)0x02000000) 
  36:Drivers/src/ch32v20x_can.c **** /* Flags in STATR register */
  37:Drivers/src/ch32v20x_can.c **** #define CAN_FLAGS_STATR              ((uint32_t)0x01000000) 
  38:Drivers/src/ch32v20x_can.c **** /* Flags in ERRSR register */
  39:Drivers/src/ch32v20x_can.c **** #define CAN_FLAGS_ERRSR              ((uint32_t)0x00F00000) 
  40:Drivers/src/ch32v20x_can.c **** 
  41:Drivers/src/ch32v20x_can.c **** /* Mailboxes definition */
  42:Drivers/src/ch32v20x_can.c **** #define CAN_TXMAILBOX_0              ((uint8_t)0x00)
GAS LISTING C:\Users\SOLDER~1\AppData\Local\Temp\ccYCTqm0.s 			page 2


  43:Drivers/src/ch32v20x_can.c **** #define CAN_TXMAILBOX_1              ((uint8_t)0x01)
  44:Drivers/src/ch32v20x_can.c **** #define CAN_TXMAILBOX_2              ((uint8_t)0x02) 
  45:Drivers/src/ch32v20x_can.c **** 
  46:Drivers/src/ch32v20x_can.c **** 
  47:Drivers/src/ch32v20x_can.c **** #define CAN_MODE_MASK                ((uint32_t) 0x00000003)
  48:Drivers/src/ch32v20x_can.c **** 
  49:Drivers/src/ch32v20x_can.c **** static ITStatus CheckITStatus(uint32_t CAN_Reg, uint32_t It_Bit);
  50:Drivers/src/ch32v20x_can.c **** 
  51:Drivers/src/ch32v20x_can.c **** 
  52:Drivers/src/ch32v20x_can.c **** /*********************************************************************
  53:Drivers/src/ch32v20x_can.c ****  * @fn      CAN_DeInit
  54:Drivers/src/ch32v20x_can.c ****  *
  55:Drivers/src/ch32v20x_can.c ****  * @brief   Deinitializes the CAN peripheral registers to their default reset
  56:Drivers/src/ch32v20x_can.c ****  *        values.
  57:Drivers/src/ch32v20x_can.c ****  *
  58:Drivers/src/ch32v20x_can.c ****  * @param   CANx - where x can be 1 or 2 to select the CAN peripheral.
  59:Drivers/src/ch32v20x_can.c ****  *
  60:Drivers/src/ch32v20x_can.c ****  * @return  none
  61:Drivers/src/ch32v20x_can.c ****  */
  62:Drivers/src/ch32v20x_can.c **** void CAN_DeInit(CAN_TypeDef* CANx)
  63:Drivers/src/ch32v20x_can.c **** {
  17              		.loc 1 63 1
  18              		.cfi_startproc
  19 0000 0111     		addi	sp,sp,-32
  20              		.cfi_def_cfa_offset 32
  21 0002 06CE     		sw	ra,28(sp)
  22 0004 22CC     		sw	s0,24(sp)
  23              		.cfi_offset 1, -4
  24              		.cfi_offset 8, -8
  25 0006 0010     		addi	s0,sp,32
  26              		.cfi_def_cfa 8, 0
  27 0008 2326A4FE 		sw	a0,-20(s0)
  64:Drivers/src/ch32v20x_can.c ****   if (CANx == CAN1)
  28              		.loc 1 64 6
  29 000c 0327C4FE 		lw	a4,-20(s0)
  30 0010 B7670040 		li	a5,1073766400
  31 0014 93870740 		addi	a5,a5,1024
  32 0018 6311F702 		bne	a4,a5,.L2
  65:Drivers/src/ch32v20x_can.c ****   {
  66:Drivers/src/ch32v20x_can.c ****     RCC_APB1PeriphResetCmd(RCC_APB1Periph_CAN1, ENABLE);
  33              		.loc 1 66 5
  34 001c 8545     		li	a1,1
  35 001e 37050002 		li	a0,33554432
  36 0022 97000000 		call	RCC_APB1PeriphResetCmd
  36      E7800000 
  67:Drivers/src/ch32v20x_can.c ****     RCC_APB1PeriphResetCmd(RCC_APB1Periph_CAN1, DISABLE);
  37              		.loc 1 67 5
  38 002a 8145     		li	a1,0
  39 002c 37050002 		li	a0,33554432
  40 0030 97000000 		call	RCC_APB1PeriphResetCmd
  40      E7800000 
  68:Drivers/src/ch32v20x_can.c ****   }
  69:Drivers/src/ch32v20x_can.c ****   else
  70:Drivers/src/ch32v20x_can.c ****   {  
  71:Drivers/src/ch32v20x_can.c ****     RCC_APB1PeriphResetCmd(RCC_APB1Periph_CAN2, ENABLE);
  72:Drivers/src/ch32v20x_can.c ****     RCC_APB1PeriphResetCmd(RCC_APB1Periph_CAN2, DISABLE);
  73:Drivers/src/ch32v20x_can.c ****   }
GAS LISTING C:\Users\SOLDER~1\AppData\Local\Temp\ccYCTqm0.s 			page 3


  74:Drivers/src/ch32v20x_can.c **** }
  41              		.loc 1 74 1
  42 0038 39A8     		j	.L4
  43              	.L2:
  71:Drivers/src/ch32v20x_can.c ****     RCC_APB1PeriphResetCmd(RCC_APB1Periph_CAN2, DISABLE);
  44              		.loc 1 71 5
  45 003a 8545     		li	a1,1
  46 003c 37050004 		li	a0,67108864
  47 0040 97000000 		call	RCC_APB1PeriphResetCmd
  47      E7800000 
  72:Drivers/src/ch32v20x_can.c ****   }
  48              		.loc 1 72 5
  49 0048 8145     		li	a1,0
  50 004a 37050004 		li	a0,67108864
  51 004e 97000000 		call	RCC_APB1PeriphResetCmd
  51      E7800000 
  52              	.L4:
  53              		.loc 1 74 1
  54 0056 0100     		nop
  55 0058 F240     		lw	ra,28(sp)
  56              		.cfi_restore 1
  57 005a 6244     		lw	s0,24(sp)
  58              		.cfi_restore 8
  59              		.cfi_def_cfa 2, 32
  60 005c 0561     		addi	sp,sp,32
  61              		.cfi_def_cfa_offset 0
  62 005e 8280     		jr	ra
  63              		.cfi_endproc
  64              	.LFE16:
  66              		.section	.text.CAN_Init,"ax",@progbits
  67              		.align	1
  68              		.globl	CAN_Init
  70              	CAN_Init:
  71              	.LFB17:
  75:Drivers/src/ch32v20x_can.c **** 
  76:Drivers/src/ch32v20x_can.c **** /*********************************************************************
  77:Drivers/src/ch32v20x_can.c ****  * @fn      CAN_Init
  78:Drivers/src/ch32v20x_can.c ****  *
  79:Drivers/src/ch32v20x_can.c ****  * @brief   Initializes the CAN peripheral according to the specified
  80:Drivers/src/ch32v20x_can.c ****  *        parameters in the CAN_InitStruct.
  81:Drivers/src/ch32v20x_can.c ****  *
  82:Drivers/src/ch32v20x_can.c ****  * @param   CANx - where x can be 1 to select the CAN peripheral.
  83:Drivers/src/ch32v20x_can.c ****  *          CAN_InitStruct - pointer to a CAN_InitTypeDef structure that
  84:Drivers/src/ch32v20x_can.c ****  *        contains the configuration information for the CAN peripheral.
  85:Drivers/src/ch32v20x_can.c ****  *
  86:Drivers/src/ch32v20x_can.c ****  * @return  InitStatus - CAN InitStatus state.
  87:Drivers/src/ch32v20x_can.c **** *             CAN_InitStatus_Failed.
  88:Drivers/src/ch32v20x_can.c **** *             CAN_InitStatus_Success.
  89:Drivers/src/ch32v20x_can.c ****  */
  90:Drivers/src/ch32v20x_can.c **** uint8_t CAN_Init(CAN_TypeDef* CANx, CAN_InitTypeDef* CAN_InitStruct)
  91:Drivers/src/ch32v20x_can.c **** {
  72              		.loc 1 91 1
  73              		.cfi_startproc
  74 0000 7971     		addi	sp,sp,-48
  75              		.cfi_def_cfa_offset 48
  76 0002 22D6     		sw	s0,44(sp)
  77              		.cfi_offset 8, -4
GAS LISTING C:\Users\SOLDER~1\AppData\Local\Temp\ccYCTqm0.s 			page 4


  78 0004 0018     		addi	s0,sp,48
  79              		.cfi_def_cfa 8, 0
  80 0006 232EA4FC 		sw	a0,-36(s0)
  81 000a 232CB4FC 		sw	a1,-40(s0)
  92:Drivers/src/ch32v20x_can.c ****   uint8_t InitStatus = CAN_InitStatus_Failed;
  82              		.loc 1 92 11
  83 000e A30704FE 		sb	zero,-17(s0)
  93:Drivers/src/ch32v20x_can.c ****   uint32_t wait_ack = 0x00000000;
  84              		.loc 1 93 12
  85 0012 232404FE 		sw	zero,-24(s0)
  94:Drivers/src/ch32v20x_can.c **** 
  95:Drivers/src/ch32v20x_can.c ****   CANx->CTLR &= (~(uint32_t)CAN_CTLR_SLEEP);
  86              		.loc 1 95 7
  87 0016 8327C4FD 		lw	a5,-36(s0)
  88 001a 9C43     		lw	a5,0(a5)
  89              		.loc 1 95 14
  90 001c 13F7D7FF 		andi	a4,a5,-3
  91 0020 8327C4FD 		lw	a5,-36(s0)
  92 0024 98C3     		sw	a4,0(a5)
  96:Drivers/src/ch32v20x_can.c ****   CANx->CTLR |= CAN_CTLR_INRQ ;
  93              		.loc 1 96 7
  94 0026 8327C4FD 		lw	a5,-36(s0)
  95 002a 9C43     		lw	a5,0(a5)
  96              		.loc 1 96 14
  97 002c 13E71700 		ori	a4,a5,1
  98 0030 8327C4FD 		lw	a5,-36(s0)
  99 0034 98C3     		sw	a4,0(a5)
  97:Drivers/src/ch32v20x_can.c **** 
  98:Drivers/src/ch32v20x_can.c ****   while (((CANx->STATR & CAN_STATR_INAK) != CAN_STATR_INAK) && (wait_ack != INAK_TIMEOUT))
 100              		.loc 1 98 9
 101 0036 31A0     		j	.L6
 102              	.L8:
  99:Drivers/src/ch32v20x_can.c ****   {
 100:Drivers/src/ch32v20x_can.c ****     wait_ack++;
 103              		.loc 1 100 13
 104 0038 832784FE 		lw	a5,-24(s0)
 105 003c 8507     		addi	a5,a5,1
 106 003e 2324F4FE 		sw	a5,-24(s0)
 107              	.L6:
  98:Drivers/src/ch32v20x_can.c ****   {
 108              		.loc 1 98 16
 109 0042 8327C4FD 		lw	a5,-36(s0)
 110 0046 DC43     		lw	a5,4(a5)
  98:Drivers/src/ch32v20x_can.c ****   {
 111              		.loc 1 98 24
 112 0048 13F71700 		andi	a4,a5,1
  98:Drivers/src/ch32v20x_can.c ****   {
 113              		.loc 1 98 61
 114 004c 8547     		li	a5,1
 115 004e 6308F700 		beq	a4,a5,.L7
  98:Drivers/src/ch32v20x_can.c ****   {
 116              		.loc 1 98 61 is_stmt 0 discriminator 1
 117 0052 032784FE 		lw	a4,-24(s0)
 118 0056 C167     		li	a5,65536
 119 0058 FD17     		addi	a5,a5,-1
 120 005a E31FF7FC 		bne	a4,a5,.L8
 121              	.L7:
GAS LISTING C:\Users\SOLDER~1\AppData\Local\Temp\ccYCTqm0.s 			page 5


 101:Drivers/src/ch32v20x_can.c ****   }
 102:Drivers/src/ch32v20x_can.c **** 
 103:Drivers/src/ch32v20x_can.c ****   if ((CANx->STATR & CAN_STATR_INAK) != CAN_STATR_INAK)
 122              		.loc 1 103 12 is_stmt 1
 123 005e 8327C4FD 		lw	a5,-36(s0)
 124 0062 DC43     		lw	a5,4(a5)
 125              		.loc 1 103 20
 126 0064 13F71700 		andi	a4,a5,1
 127              		.loc 1 103 6
 128 0068 8547     		li	a5,1
 129 006a 6305F700 		beq	a4,a5,.L9
 104:Drivers/src/ch32v20x_can.c ****   {
 105:Drivers/src/ch32v20x_can.c ****     InitStatus = CAN_InitStatus_Failed;
 130              		.loc 1 105 16
 131 006e A30704FE 		sb	zero,-17(s0)
 132 0072 5DA2     		j	.L10
 133              	.L9:
 106:Drivers/src/ch32v20x_can.c ****   }
 107:Drivers/src/ch32v20x_can.c ****   else 
 108:Drivers/src/ch32v20x_can.c ****   {
 109:Drivers/src/ch32v20x_can.c ****     if (CAN_InitStruct->CAN_TTCM == ENABLE)
 134              		.loc 1 109 23
 135 0074 832784FD 		lw	a5,-40(s0)
 136 0078 9847     		lw	a4,8(a5)
 137              		.loc 1 109 8
 138 007a 8547     		li	a5,1
 139 007c 631BF700 		bne	a4,a5,.L11
 110:Drivers/src/ch32v20x_can.c ****     {
 111:Drivers/src/ch32v20x_can.c ****       CANx->CTLR |= CAN_CTLR_TTCM;
 140              		.loc 1 111 11
 141 0080 8327C4FD 		lw	a5,-36(s0)
 142 0084 9C43     		lw	a5,0(a5)
 143              		.loc 1 111 18
 144 0086 13E70708 		ori	a4,a5,128
 145 008a 8327C4FD 		lw	a5,-36(s0)
 146 008e 98C3     		sw	a4,0(a5)
 147 0090 09A8     		j	.L12
 148              	.L11:
 112:Drivers/src/ch32v20x_can.c ****     }
 113:Drivers/src/ch32v20x_can.c ****     else
 114:Drivers/src/ch32v20x_can.c ****     {
 115:Drivers/src/ch32v20x_can.c ****       CANx->CTLR &= ~(uint32_t)CAN_CTLR_TTCM;
 149              		.loc 1 115 11
 150 0092 8327C4FD 		lw	a5,-36(s0)
 151 0096 9C43     		lw	a5,0(a5)
 152              		.loc 1 115 18
 153 0098 13F7F7F7 		andi	a4,a5,-129
 154 009c 8327C4FD 		lw	a5,-36(s0)
 155 00a0 98C3     		sw	a4,0(a5)
 156              	.L12:
 116:Drivers/src/ch32v20x_can.c ****     }
 117:Drivers/src/ch32v20x_can.c **** 
 118:Drivers/src/ch32v20x_can.c ****     if (CAN_InitStruct->CAN_ABOM == ENABLE)
 157              		.loc 1 118 23
 158 00a2 832784FD 		lw	a5,-40(s0)
 159 00a6 D847     		lw	a4,12(a5)
 160              		.loc 1 118 8
GAS LISTING C:\Users\SOLDER~1\AppData\Local\Temp\ccYCTqm0.s 			page 6


 161 00a8 8547     		li	a5,1
 162 00aa 631BF700 		bne	a4,a5,.L13
 119:Drivers/src/ch32v20x_can.c ****     {
 120:Drivers/src/ch32v20x_can.c ****       CANx->CTLR |= CAN_CTLR_ABOM;
 163              		.loc 1 120 11
 164 00ae 8327C4FD 		lw	a5,-36(s0)
 165 00b2 9C43     		lw	a5,0(a5)
 166              		.loc 1 120 18
 167 00b4 13E70704 		ori	a4,a5,64
 168 00b8 8327C4FD 		lw	a5,-36(s0)
 169 00bc 98C3     		sw	a4,0(a5)
 170 00be 09A8     		j	.L14
 171              	.L13:
 121:Drivers/src/ch32v20x_can.c ****     }
 122:Drivers/src/ch32v20x_can.c ****     else
 123:Drivers/src/ch32v20x_can.c ****     {
 124:Drivers/src/ch32v20x_can.c ****       CANx->CTLR &= ~(uint32_t)CAN_CTLR_ABOM;
 172              		.loc 1 124 11
 173 00c0 8327C4FD 		lw	a5,-36(s0)
 174 00c4 9C43     		lw	a5,0(a5)
 175              		.loc 1 124 18
 176 00c6 13F7F7FB 		andi	a4,a5,-65
 177 00ca 8327C4FD 		lw	a5,-36(s0)
 178 00ce 98C3     		sw	a4,0(a5)
 179              	.L14:
 125:Drivers/src/ch32v20x_can.c ****     }
 126:Drivers/src/ch32v20x_can.c **** 
 127:Drivers/src/ch32v20x_can.c ****     if (CAN_InitStruct->CAN_AWUM == ENABLE)
 180              		.loc 1 127 23
 181 00d0 832784FD 		lw	a5,-40(s0)
 182 00d4 984B     		lw	a4,16(a5)
 183              		.loc 1 127 8
 184 00d6 8547     		li	a5,1
 185 00d8 631BF700 		bne	a4,a5,.L15
 128:Drivers/src/ch32v20x_can.c ****     {
 129:Drivers/src/ch32v20x_can.c ****       CANx->CTLR |= CAN_CTLR_AWUM;
 186              		.loc 1 129 11
 187 00dc 8327C4FD 		lw	a5,-36(s0)
 188 00e0 9C43     		lw	a5,0(a5)
 189              		.loc 1 129 18
 190 00e2 13E70702 		ori	a4,a5,32
 191 00e6 8327C4FD 		lw	a5,-36(s0)
 192 00ea 98C3     		sw	a4,0(a5)
 193 00ec 09A8     		j	.L16
 194              	.L15:
 130:Drivers/src/ch32v20x_can.c ****     }
 131:Drivers/src/ch32v20x_can.c ****     else
 132:Drivers/src/ch32v20x_can.c ****     {
 133:Drivers/src/ch32v20x_can.c ****       CANx->CTLR &= ~(uint32_t)CAN_CTLR_AWUM;
 195              		.loc 1 133 11
 196 00ee 8327C4FD 		lw	a5,-36(s0)
 197 00f2 9C43     		lw	a5,0(a5)
 198              		.loc 1 133 18
 199 00f4 13F7F7FD 		andi	a4,a5,-33
 200 00f8 8327C4FD 		lw	a5,-36(s0)
 201 00fc 98C3     		sw	a4,0(a5)
 202              	.L16:
GAS LISTING C:\Users\SOLDER~1\AppData\Local\Temp\ccYCTqm0.s 			page 7


 134:Drivers/src/ch32v20x_can.c ****     }
 135:Drivers/src/ch32v20x_can.c **** 
 136:Drivers/src/ch32v20x_can.c ****     if (CAN_InitStruct->CAN_NART == ENABLE)
 203              		.loc 1 136 23
 204 00fe 832784FD 		lw	a5,-40(s0)
 205 0102 D84B     		lw	a4,20(a5)
 206              		.loc 1 136 8
 207 0104 8547     		li	a5,1
 208 0106 631BF700 		bne	a4,a5,.L17
 137:Drivers/src/ch32v20x_can.c ****     {
 138:Drivers/src/ch32v20x_can.c ****       CANx->CTLR |= CAN_CTLR_NART;
 209              		.loc 1 138 11
 210 010a 8327C4FD 		lw	a5,-36(s0)
 211 010e 9C43     		lw	a5,0(a5)
 212              		.loc 1 138 18
 213 0110 13E70701 		ori	a4,a5,16
 214 0114 8327C4FD 		lw	a5,-36(s0)
 215 0118 98C3     		sw	a4,0(a5)
 216 011a 09A8     		j	.L18
 217              	.L17:
 139:Drivers/src/ch32v20x_can.c ****     }
 140:Drivers/src/ch32v20x_can.c ****     else
 141:Drivers/src/ch32v20x_can.c ****     {
 142:Drivers/src/ch32v20x_can.c ****       CANx->CTLR &= ~(uint32_t)CAN_CTLR_NART;
 218              		.loc 1 142 11
 219 011c 8327C4FD 		lw	a5,-36(s0)
 220 0120 9C43     		lw	a5,0(a5)
 221              		.loc 1 142 18
 222 0122 13F7F7FE 		andi	a4,a5,-17
 223 0126 8327C4FD 		lw	a5,-36(s0)
 224 012a 98C3     		sw	a4,0(a5)
 225              	.L18:
 143:Drivers/src/ch32v20x_can.c ****     }
 144:Drivers/src/ch32v20x_can.c **** 
 145:Drivers/src/ch32v20x_can.c ****     if (CAN_InitStruct->CAN_RFLM == ENABLE)
 226              		.loc 1 145 23
 227 012c 832784FD 		lw	a5,-40(s0)
 228 0130 984F     		lw	a4,24(a5)
 229              		.loc 1 145 8
 230 0132 8547     		li	a5,1
 231 0134 631BF700 		bne	a4,a5,.L19
 146:Drivers/src/ch32v20x_can.c ****     {
 147:Drivers/src/ch32v20x_can.c ****       CANx->CTLR |= CAN_CTLR_RFLM;
 232              		.loc 1 147 11
 233 0138 8327C4FD 		lw	a5,-36(s0)
 234 013c 9C43     		lw	a5,0(a5)
 235              		.loc 1 147 18
 236 013e 13E78700 		ori	a4,a5,8
 237 0142 8327C4FD 		lw	a5,-36(s0)
 238 0146 98C3     		sw	a4,0(a5)
 239 0148 09A8     		j	.L20
 240              	.L19:
 148:Drivers/src/ch32v20x_can.c ****     }
 149:Drivers/src/ch32v20x_can.c ****     else
 150:Drivers/src/ch32v20x_can.c ****     {
 151:Drivers/src/ch32v20x_can.c ****       CANx->CTLR &= ~(uint32_t)CAN_CTLR_RFLM;
 241              		.loc 1 151 11
GAS LISTING C:\Users\SOLDER~1\AppData\Local\Temp\ccYCTqm0.s 			page 8


 242 014a 8327C4FD 		lw	a5,-36(s0)
 243 014e 9C43     		lw	a5,0(a5)
 244              		.loc 1 151 18
 245 0150 13F777FF 		andi	a4,a5,-9
 246 0154 8327C4FD 		lw	a5,-36(s0)
 247 0158 98C3     		sw	a4,0(a5)
 248              	.L20:
 152:Drivers/src/ch32v20x_can.c ****     }
 153:Drivers/src/ch32v20x_can.c **** 
 154:Drivers/src/ch32v20x_can.c ****     if (CAN_InitStruct->CAN_TXFP == ENABLE)
 249              		.loc 1 154 23
 250 015a 832784FD 		lw	a5,-40(s0)
 251 015e D84F     		lw	a4,28(a5)
 252              		.loc 1 154 8
 253 0160 8547     		li	a5,1
 254 0162 631BF700 		bne	a4,a5,.L21
 155:Drivers/src/ch32v20x_can.c ****     {
 156:Drivers/src/ch32v20x_can.c ****       CANx->CTLR |= CAN_CTLR_TXFP;
 255              		.loc 1 156 11
 256 0166 8327C4FD 		lw	a5,-36(s0)
 257 016a 9C43     		lw	a5,0(a5)
 258              		.loc 1 156 18
 259 016c 13E74700 		ori	a4,a5,4
 260 0170 8327C4FD 		lw	a5,-36(s0)
 261 0174 98C3     		sw	a4,0(a5)
 262 0176 09A8     		j	.L22
 263              	.L21:
 157:Drivers/src/ch32v20x_can.c ****     }
 158:Drivers/src/ch32v20x_can.c ****     else
 159:Drivers/src/ch32v20x_can.c ****     {
 160:Drivers/src/ch32v20x_can.c ****       CANx->CTLR &= ~(uint32_t)CAN_CTLR_TXFP;
 264              		.loc 1 160 11
 265 0178 8327C4FD 		lw	a5,-36(s0)
 266 017c 9C43     		lw	a5,0(a5)
 267              		.loc 1 160 18
 268 017e 13F7B7FF 		andi	a4,a5,-5
 269 0182 8327C4FD 		lw	a5,-36(s0)
 270 0186 98C3     		sw	a4,0(a5)
 271              	.L22:
 161:Drivers/src/ch32v20x_can.c ****     }
 162:Drivers/src/ch32v20x_can.c **** 
 163:Drivers/src/ch32v20x_can.c ****     CANx->BTIMR = (uint32_t)((uint32_t)CAN_InitStruct->CAN_Mode << 30) | \
 272              		.loc 1 163 54
 273 0188 832784FD 		lw	a5,-40(s0)
 274 018c BC23     		lbu	a5,2(a5)
 275              		.loc 1 163 19
 276 018e 1397E701 		slli	a4,a5,30
 164:Drivers/src/ch32v20x_can.c ****                 ((uint32_t)CAN_InitStruct->CAN_SJW << 24) | \
 277              		.loc 1 164 42
 278 0192 832784FD 		lw	a5,-40(s0)
 279 0196 BC33     		lbu	a5,3(a5)
 280              		.loc 1 164 52
 281 0198 E207     		slli	a5,a5,24
 163:Drivers/src/ch32v20x_can.c ****                 ((uint32_t)CAN_InitStruct->CAN_SJW << 24) | \
 282              		.loc 1 163 72
 283 019a 5D8F     		or	a4,a4,a5
 165:Drivers/src/ch32v20x_can.c ****                 ((uint32_t)CAN_InitStruct->CAN_BS1 << 16) | \
GAS LISTING C:\Users\SOLDER~1\AppData\Local\Temp\ccYCTqm0.s 			page 9


 284              		.loc 1 165 42
 285 019c 832784FD 		lw	a5,-40(s0)
 286 01a0 DC23     		lbu	a5,4(a5)
 287              		.loc 1 165 52
 288 01a2 C207     		slli	a5,a5,16
 164:Drivers/src/ch32v20x_can.c ****                 ((uint32_t)CAN_InitStruct->CAN_SJW << 24) | \
 289              		.loc 1 164 59
 290 01a4 5D8F     		or	a4,a4,a5
 166:Drivers/src/ch32v20x_can.c ****                 ((uint32_t)CAN_InitStruct->CAN_BS2 << 20) | \
 291              		.loc 1 166 42
 292 01a6 832784FD 		lw	a5,-40(s0)
 293 01aa DC33     		lbu	a5,5(a5)
 294              		.loc 1 166 52
 295 01ac D207     		slli	a5,a5,20
 165:Drivers/src/ch32v20x_can.c ****                 ((uint32_t)CAN_InitStruct->CAN_BS1 << 16) | \
 296              		.loc 1 165 59
 297 01ae 5D8F     		or	a4,a4,a5
 167:Drivers/src/ch32v20x_can.c ****                 ((uint32_t)CAN_InitStruct->CAN_Prescaler - 1);
 298              		.loc 1 167 42
 299 01b0 832784FD 		lw	a5,-40(s0)
 300 01b4 9E23     		lhu	a5,0(a5)
 301              		.loc 1 167 58
 302 01b6 FD17     		addi	a5,a5,-1
 166:Drivers/src/ch32v20x_can.c ****                 ((uint32_t)CAN_InitStruct->CAN_BS2 << 20) | \
 303              		.loc 1 166 59
 304 01b8 5D8F     		or	a4,a4,a5
 163:Drivers/src/ch32v20x_can.c ****                 ((uint32_t)CAN_InitStruct->CAN_SJW << 24) | \
 305              		.loc 1 163 17
 306 01ba 8327C4FD 		lw	a5,-36(s0)
 307 01be D8CF     		sw	a4,28(a5)
 168:Drivers/src/ch32v20x_can.c ****     CANx->CTLR &= ~(uint32_t)CAN_CTLR_INRQ;
 308              		.loc 1 168 9
 309 01c0 8327C4FD 		lw	a5,-36(s0)
 310 01c4 9C43     		lw	a5,0(a5)
 311              		.loc 1 168 16
 312 01c6 13F7E7FF 		andi	a4,a5,-2
 313 01ca 8327C4FD 		lw	a5,-36(s0)
 314 01ce 98C3     		sw	a4,0(a5)
 169:Drivers/src/ch32v20x_can.c ****     wait_ack = 0;
 315              		.loc 1 169 14
 316 01d0 232404FE 		sw	zero,-24(s0)
 170:Drivers/src/ch32v20x_can.c **** 
 171:Drivers/src/ch32v20x_can.c ****     while (((CANx->STATR & CAN_STATR_INAK) == CAN_STATR_INAK) && (wait_ack != INAK_TIMEOUT))
 317              		.loc 1 171 11
 318 01d4 31A0     		j	.L23
 319              	.L25:
 172:Drivers/src/ch32v20x_can.c ****     {
 173:Drivers/src/ch32v20x_can.c ****       wait_ack++;
 320              		.loc 1 173 15
 321 01d6 832784FE 		lw	a5,-24(s0)
 322 01da 8507     		addi	a5,a5,1
 323 01dc 2324F4FE 		sw	a5,-24(s0)
 324              	.L23:
 171:Drivers/src/ch32v20x_can.c ****     {
 325              		.loc 1 171 18
 326 01e0 8327C4FD 		lw	a5,-36(s0)
 327 01e4 DC43     		lw	a5,4(a5)
GAS LISTING C:\Users\SOLDER~1\AppData\Local\Temp\ccYCTqm0.s 			page 10


 171:Drivers/src/ch32v20x_can.c ****     {
 328              		.loc 1 171 26
 329 01e6 13F71700 		andi	a4,a5,1
 171:Drivers/src/ch32v20x_can.c ****     {
 330              		.loc 1 171 63
 331 01ea 8547     		li	a5,1
 332 01ec 6318F700 		bne	a4,a5,.L24
 171:Drivers/src/ch32v20x_can.c ****     {
 333              		.loc 1 171 63 is_stmt 0 discriminator 1
 334 01f0 032784FE 		lw	a4,-24(s0)
 335 01f4 C167     		li	a5,65536
 336 01f6 FD17     		addi	a5,a5,-1
 337 01f8 E31FF7FC 		bne	a4,a5,.L25
 338              	.L24:
 174:Drivers/src/ch32v20x_can.c ****     }
 175:Drivers/src/ch32v20x_can.c **** 
 176:Drivers/src/ch32v20x_can.c ****     if ((CANx->STATR & CAN_STATR_INAK) == CAN_STATR_INAK)
 339              		.loc 1 176 14 is_stmt 1
 340 01fc 8327C4FD 		lw	a5,-36(s0)
 341 0200 DC43     		lw	a5,4(a5)
 342              		.loc 1 176 22
 343 0202 13F71700 		andi	a4,a5,1
 344              		.loc 1 176 8
 345 0206 8547     		li	a5,1
 346 0208 6315F700 		bne	a4,a5,.L26
 177:Drivers/src/ch32v20x_can.c ****     {
 178:Drivers/src/ch32v20x_can.c ****       InitStatus = CAN_InitStatus_Failed;
 347              		.loc 1 178 18
 348 020c A30704FE 		sb	zero,-17(s0)
 349 0210 21A0     		j	.L10
 350              	.L26:
 179:Drivers/src/ch32v20x_can.c ****     }
 180:Drivers/src/ch32v20x_can.c ****     else
 181:Drivers/src/ch32v20x_can.c ****     {
 182:Drivers/src/ch32v20x_can.c ****       InitStatus = CAN_InitStatus_Success ;
 351              		.loc 1 182 18
 352 0212 8547     		li	a5,1
 353 0214 A307F4FE 		sb	a5,-17(s0)
 354              	.L10:
 183:Drivers/src/ch32v20x_can.c ****     }
 184:Drivers/src/ch32v20x_can.c ****   }
 185:Drivers/src/ch32v20x_can.c **** 
 186:Drivers/src/ch32v20x_can.c ****   return InitStatus;
 355              		.loc 1 186 10
 356 0218 8347F4FE 		lbu	a5,-17(s0)
 187:Drivers/src/ch32v20x_can.c **** }
 357              		.loc 1 187 1
 358 021c 3E85     		mv	a0,a5
 359 021e 3254     		lw	s0,44(sp)
 360              		.cfi_restore 8
 361              		.cfi_def_cfa 2, 48
 362 0220 4561     		addi	sp,sp,48
 363              		.cfi_def_cfa_offset 0
 364 0222 8280     		jr	ra
 365              		.cfi_endproc
 366              	.LFE17:
 368              		.section	.text.CAN_FilterInit,"ax",@progbits
GAS LISTING C:\Users\SOLDER~1\AppData\Local\Temp\ccYCTqm0.s 			page 11


 369              		.align	1
 370              		.globl	CAN_FilterInit
 372              	CAN_FilterInit:
 373              	.LFB18:
 188:Drivers/src/ch32v20x_can.c **** 
 189:Drivers/src/ch32v20x_can.c **** /*********************************************************************
 190:Drivers/src/ch32v20x_can.c ****  * @fn      CAN_FilterInit
 191:Drivers/src/ch32v20x_can.c ****  *
 192:Drivers/src/ch32v20x_can.c ****  * @brief   Initializes the CAN peripheral according to the specified
 193:Drivers/src/ch32v20x_can.c ****  *        parameters in the CAN_FilterInitStruct.
 194:Drivers/src/ch32v20x_can.c ****  *
 195:Drivers/src/ch32v20x_can.c ****  * @param   CAN_FilterInitStruct - pointer to a CAN_FilterInitTypeDef
 196:Drivers/src/ch32v20x_can.c ****  *        structure that contains the configuration information.
 197:Drivers/src/ch32v20x_can.c ****  *
 198:Drivers/src/ch32v20x_can.c ****  * @return  none
 199:Drivers/src/ch32v20x_can.c ****  */
 200:Drivers/src/ch32v20x_can.c **** void CAN_FilterInit(CAN_FilterInitTypeDef* CAN_FilterInitStruct)
 201:Drivers/src/ch32v20x_can.c **** {
 374              		.loc 1 201 1
 375              		.cfi_startproc
 376 0000 7971     		addi	sp,sp,-48
 377              		.cfi_def_cfa_offset 48
 378 0002 22D6     		sw	s0,44(sp)
 379              		.cfi_offset 8, -4
 380 0004 0018     		addi	s0,sp,48
 381              		.cfi_def_cfa 8, 0
 382 0006 232EA4FC 		sw	a0,-36(s0)
 202:Drivers/src/ch32v20x_can.c ****   uint32_t filter_number_bit_pos = 0;
 383              		.loc 1 202 12
 384 000a 232404FE 		sw	zero,-24(s0)
 203:Drivers/src/ch32v20x_can.c **** 
 204:Drivers/src/ch32v20x_can.c ****   filter_number_bit_pos = ((uint32_t)1) << CAN_FilterInitStruct->CAN_FilterNumber;
 385              		.loc 1 204 64
 386 000e 8327C4FD 		lw	a5,-36(s0)
 387 0012 BC27     		lbu	a5,10(a5)
 388 0014 3E87     		mv	a4,a5
 389              		.loc 1 204 25
 390 0016 8547     		li	a5,1
 391 0018 B397E700 		sll	a5,a5,a4
 392 001c 2324F4FE 		sw	a5,-24(s0)
 205:Drivers/src/ch32v20x_can.c ****   CAN1->FCTLR |= FCTLR_FINIT;
 393              		.loc 1 205 7
 394 0020 B7670040 		li	a5,1073766400
 395 0024 93870740 		addi	a5,a5,1024
 396 0028 03A70720 		lw	a4,512(a5)
 397 002c B7670040 		li	a5,1073766400
 398 0030 93870740 		addi	a5,a5,1024
 399              		.loc 1 205 15
 400 0034 13671700 		ori	a4,a4,1
 401 0038 23A0E720 		sw	a4,512(a5)
 206:Drivers/src/ch32v20x_can.c ****   CAN1->FWR &= ~(uint32_t)filter_number_bit_pos;
 402              		.loc 1 206 7
 403 003c B7670040 		li	a5,1073766400
 404 0040 93870740 		addi	a5,a5,1024
 405 0044 83A6C721 		lw	a3,540(a5)
 406              		.loc 1 206 16
 407 0048 832784FE 		lw	a5,-24(s0)
GAS LISTING C:\Users\SOLDER~1\AppData\Local\Temp\ccYCTqm0.s 			page 12


 408 004c 13C7F7FF 		not	a4,a5
 409              		.loc 1 206 7
 410 0050 B7670040 		li	a5,1073766400
 411 0054 93870740 		addi	a5,a5,1024
 412              		.loc 1 206 13
 413 0058 758F     		and	a4,a3,a4
 414 005a 23AEE720 		sw	a4,540(a5)
 207:Drivers/src/ch32v20x_can.c **** 
 208:Drivers/src/ch32v20x_can.c ****   if (CAN_FilterInitStruct->CAN_FilterScale == CAN_FilterScale_16bit)
 415              		.loc 1 208 27
 416 005e 8327C4FD 		lw	a5,-36(s0)
 417 0062 DC27     		lbu	a5,12(a5)
 418              		.loc 1 208 6
 419 0064 C1E3     		bne	a5,zero,.L29
 209:Drivers/src/ch32v20x_can.c ****   {
 210:Drivers/src/ch32v20x_can.c ****     CAN1->FSCFGR &= ~(uint32_t)filter_number_bit_pos;
 420              		.loc 1 210 9
 421 0066 B7670040 		li	a5,1073766400
 422 006a 93870740 		addi	a5,a5,1024
 423 006e 83A6C720 		lw	a3,524(a5)
 424              		.loc 1 210 21
 425 0072 832784FE 		lw	a5,-24(s0)
 426 0076 13C7F7FF 		not	a4,a5
 427              		.loc 1 210 9
 428 007a B7670040 		li	a5,1073766400
 429 007e 93870740 		addi	a5,a5,1024
 430              		.loc 1 210 18
 431 0082 758F     		and	a4,a3,a4
 432 0084 23A6E720 		sw	a4,524(a5)
 211:Drivers/src/ch32v20x_can.c **** 		
 212:Drivers/src/ch32v20x_can.c ****     CAN1->sFilterRegister[CAN_FilterInitStruct->CAN_FilterNumber].FR1 = 
 213:Drivers/src/ch32v20x_can.c ****     ((0x0000FFFF & (uint32_t)CAN_FilterInitStruct->CAN_FilterMaskIdLow) << 16) |
 433              		.loc 1 213 50
 434 0088 8327C4FD 		lw	a5,-36(s0)
 435 008c FE23     		lhu	a5,6(a5)
 436              		.loc 1 213 73
 437 008e C207     		slli	a5,a5,16
 214:Drivers/src/ch32v20x_can.c ****         (0x0000FFFF & (uint32_t)CAN_FilterInitStruct->CAN_FilterIdLow);
 438              		.loc 1 214 53
 439 0090 0327C4FD 		lw	a4,-36(s0)
 440 0094 3A23     		lhu	a4,2(a4)
 441              		.loc 1 214 21
 442 0096 BA85     		mv	a1,a4
 212:Drivers/src/ch32v20x_can.c ****     ((0x0000FFFF & (uint32_t)CAN_FilterInitStruct->CAN_FilterMaskIdLow) << 16) |
 443              		.loc 1 212 9
 444 0098 37670040 		li	a4,1073766400
 445 009c 93060740 		addi	a3,a4,1024
 212:Drivers/src/ch32v20x_can.c ****     ((0x0000FFFF & (uint32_t)CAN_FilterInitStruct->CAN_FilterMaskIdLow) << 16) |
 446              		.loc 1 212 47
 447 00a0 0327C4FD 		lw	a4,-36(s0)
 448 00a4 3827     		lbu	a4,10(a4)
 449 00a6 3A86     		mv	a2,a4
 213:Drivers/src/ch32v20x_can.c ****         (0x0000FFFF & (uint32_t)CAN_FilterInitStruct->CAN_FilterIdLow);
 450              		.loc 1 213 80
 451 00a8 33E7B700 		or	a4,a5,a1
 212:Drivers/src/ch32v20x_can.c ****     ((0x0000FFFF & (uint32_t)CAN_FilterInitStruct->CAN_FilterMaskIdLow) << 16) |
 452              		.loc 1 212 71
GAS LISTING C:\Users\SOLDER~1\AppData\Local\Temp\ccYCTqm0.s 			page 13


 453 00ac 93078604 		addi	a5,a2,72
 454 00b0 8E07     		slli	a5,a5,3
 455 00b2 B697     		add	a5,a3,a5
 456 00b4 98C3     		sw	a4,0(a5)
 215:Drivers/src/ch32v20x_can.c **** 		
 216:Drivers/src/ch32v20x_can.c ****     CAN1->sFilterRegister[CAN_FilterInitStruct->CAN_FilterNumber].FR2 = 
 217:Drivers/src/ch32v20x_can.c ****     ((0x0000FFFF & (uint32_t)CAN_FilterInitStruct->CAN_FilterMaskIdHigh) << 16) |
 457              		.loc 1 217 50
 458 00b6 8327C4FD 		lw	a5,-36(s0)
 459 00ba DE23     		lhu	a5,4(a5)
 460              		.loc 1 217 74
 461 00bc C207     		slli	a5,a5,16
 218:Drivers/src/ch32v20x_can.c ****         (0x0000FFFF & (uint32_t)CAN_FilterInitStruct->CAN_FilterIdHigh);
 462              		.loc 1 218 53
 463 00be 0327C4FD 		lw	a4,-36(s0)
 464 00c2 1A23     		lhu	a4,0(a4)
 465              		.loc 1 218 21
 466 00c4 BA85     		mv	a1,a4
 216:Drivers/src/ch32v20x_can.c ****     ((0x0000FFFF & (uint32_t)CAN_FilterInitStruct->CAN_FilterMaskIdHigh) << 16) |
 467              		.loc 1 216 9
 468 00c6 37670040 		li	a4,1073766400
 469 00ca 93060740 		addi	a3,a4,1024
 216:Drivers/src/ch32v20x_can.c ****     ((0x0000FFFF & (uint32_t)CAN_FilterInitStruct->CAN_FilterMaskIdHigh) << 16) |
 470              		.loc 1 216 47
 471 00ce 0327C4FD 		lw	a4,-36(s0)
 472 00d2 3827     		lbu	a4,10(a4)
 473 00d4 3A86     		mv	a2,a4
 217:Drivers/src/ch32v20x_can.c ****         (0x0000FFFF & (uint32_t)CAN_FilterInitStruct->CAN_FilterIdHigh);
 474              		.loc 1 217 81
 475 00d6 33E7B700 		or	a4,a5,a1
 216:Drivers/src/ch32v20x_can.c ****     ((0x0000FFFF & (uint32_t)CAN_FilterInitStruct->CAN_FilterMaskIdHigh) << 16) |
 476              		.loc 1 216 71
 477 00da 93078604 		addi	a5,a2,72
 478 00de 8E07     		slli	a5,a5,3
 479 00e0 B697     		add	a5,a3,a5
 480 00e2 D8C3     		sw	a4,4(a5)
 481              	.L29:
 219:Drivers/src/ch32v20x_can.c ****   }
 220:Drivers/src/ch32v20x_can.c **** 
 221:Drivers/src/ch32v20x_can.c ****   if (CAN_FilterInitStruct->CAN_FilterScale == CAN_FilterScale_32bit)
 482              		.loc 1 221 27
 483 00e4 8327C4FD 		lw	a5,-36(s0)
 484 00e8 D827     		lbu	a4,12(a5)
 485              		.loc 1 221 6
 486 00ea 8547     		li	a5,1
 487 00ec 631FF706 		bne	a4,a5,.L30
 222:Drivers/src/ch32v20x_can.c ****   {
 223:Drivers/src/ch32v20x_can.c ****     CAN1->FSCFGR |= filter_number_bit_pos;
 488              		.loc 1 223 9
 489 00f0 B7670040 		li	a5,1073766400
 490 00f4 93870740 		addi	a5,a5,1024
 491 00f8 83A6C720 		lw	a3,524(a5)
 492 00fc B7670040 		li	a5,1073766400
 493 0100 93870740 		addi	a5,a5,1024
 494              		.loc 1 223 18
 495 0104 032784FE 		lw	a4,-24(s0)
 496 0108 558F     		or	a4,a3,a4
GAS LISTING C:\Users\SOLDER~1\AppData\Local\Temp\ccYCTqm0.s 			page 14


 497 010a 23A6E720 		sw	a4,524(a5)
 224:Drivers/src/ch32v20x_can.c ****     
 225:Drivers/src/ch32v20x_can.c **** 		CAN1->sFilterRegister[CAN_FilterInitStruct->CAN_FilterNumber].FR1 = 
 226:Drivers/src/ch32v20x_can.c ****     ((0x0000FFFF & (uint32_t)CAN_FilterInitStruct->CAN_FilterIdHigh) << 16) |
 498              		.loc 1 226 50
 499 010e 8327C4FD 		lw	a5,-36(s0)
 500 0112 9E23     		lhu	a5,0(a5)
 501              		.loc 1 226 70
 502 0114 C207     		slli	a5,a5,16
 227:Drivers/src/ch32v20x_can.c ****         (0x0000FFFF & (uint32_t)CAN_FilterInitStruct->CAN_FilterIdLow);
 503              		.loc 1 227 53
 504 0116 0327C4FD 		lw	a4,-36(s0)
 505 011a 3A23     		lhu	a4,2(a4)
 506              		.loc 1 227 21
 507 011c BA85     		mv	a1,a4
 225:Drivers/src/ch32v20x_can.c ****     ((0x0000FFFF & (uint32_t)CAN_FilterInitStruct->CAN_FilterIdHigh) << 16) |
 508              		.loc 1 225 7
 509 011e 37670040 		li	a4,1073766400
 510 0122 93060740 		addi	a3,a4,1024
 225:Drivers/src/ch32v20x_can.c ****     ((0x0000FFFF & (uint32_t)CAN_FilterInitStruct->CAN_FilterIdHigh) << 16) |
 511              		.loc 1 225 45
 512 0126 0327C4FD 		lw	a4,-36(s0)
 513 012a 3827     		lbu	a4,10(a4)
 514 012c 3A86     		mv	a2,a4
 226:Drivers/src/ch32v20x_can.c ****         (0x0000FFFF & (uint32_t)CAN_FilterInitStruct->CAN_FilterIdLow);
 515              		.loc 1 226 77
 516 012e 33E7B700 		or	a4,a5,a1
 225:Drivers/src/ch32v20x_can.c ****     ((0x0000FFFF & (uint32_t)CAN_FilterInitStruct->CAN_FilterIdHigh) << 16) |
 517              		.loc 1 225 69
 518 0132 93078604 		addi	a5,a2,72
 519 0136 8E07     		slli	a5,a5,3
 520 0138 B697     		add	a5,a3,a5
 521 013a 98C3     		sw	a4,0(a5)
 228:Drivers/src/ch32v20x_can.c ****     
 229:Drivers/src/ch32v20x_can.c **** 		CAN1->sFilterRegister[CAN_FilterInitStruct->CAN_FilterNumber].FR2 = 
 230:Drivers/src/ch32v20x_can.c ****     ((0x0000FFFF & (uint32_t)CAN_FilterInitStruct->CAN_FilterMaskIdHigh) << 16) |
 522              		.loc 1 230 50
 523 013c 8327C4FD 		lw	a5,-36(s0)
 524 0140 DE23     		lhu	a5,4(a5)
 525              		.loc 1 230 74
 526 0142 C207     		slli	a5,a5,16
 231:Drivers/src/ch32v20x_can.c ****         (0x0000FFFF & (uint32_t)CAN_FilterInitStruct->CAN_FilterMaskIdLow);
 527              		.loc 1 231 53
 528 0144 0327C4FD 		lw	a4,-36(s0)
 529 0148 7A23     		lhu	a4,6(a4)
 530              		.loc 1 231 21
 531 014a BA85     		mv	a1,a4
 229:Drivers/src/ch32v20x_can.c ****     ((0x0000FFFF & (uint32_t)CAN_FilterInitStruct->CAN_FilterMaskIdHigh) << 16) |
 532              		.loc 1 229 7
 533 014c 37670040 		li	a4,1073766400
 534 0150 93060740 		addi	a3,a4,1024
 229:Drivers/src/ch32v20x_can.c ****     ((0x0000FFFF & (uint32_t)CAN_FilterInitStruct->CAN_FilterMaskIdHigh) << 16) |
 535              		.loc 1 229 45
 536 0154 0327C4FD 		lw	a4,-36(s0)
 537 0158 3827     		lbu	a4,10(a4)
 538 015a 3A86     		mv	a2,a4
 230:Drivers/src/ch32v20x_can.c ****         (0x0000FFFF & (uint32_t)CAN_FilterInitStruct->CAN_FilterMaskIdLow);
GAS LISTING C:\Users\SOLDER~1\AppData\Local\Temp\ccYCTqm0.s 			page 15


 539              		.loc 1 230 81
 540 015c 33E7B700 		or	a4,a5,a1
 229:Drivers/src/ch32v20x_can.c ****     ((0x0000FFFF & (uint32_t)CAN_FilterInitStruct->CAN_FilterMaskIdHigh) << 16) |
 541              		.loc 1 229 69
 542 0160 93078604 		addi	a5,a2,72
 543 0164 8E07     		slli	a5,a5,3
 544 0166 B697     		add	a5,a3,a5
 545 0168 D8C3     		sw	a4,4(a5)
 546              	.L30:
 232:Drivers/src/ch32v20x_can.c ****   }
 233:Drivers/src/ch32v20x_can.c **** 
 234:Drivers/src/ch32v20x_can.c **** #if defined (CH32V20x_D6)
 235:Drivers/src/ch32v20x_can.c ****   if(((*(uint32_t *) 0x40022030) & 0x0F000000) == 0)
 547              		.loc 1 235 8
 548 016a B7270240 		li	a5,1073881088
 549 016e 93870703 		addi	a5,a5,48
 550 0172 9843     		lw	a4,0(a5)
 551              		.loc 1 235 34
 552 0174 B707000F 		li	a5,251658240
 553 0178 F98F     		and	a5,a4,a5
 554              		.loc 1 235 5
 555 017a A9E7     		bne	a5,zero,.L31
 556              	.LBB2:
 236:Drivers/src/ch32v20x_can.c ****   {
 237:Drivers/src/ch32v20x_can.c ****     uint32_t i;
 238:Drivers/src/ch32v20x_can.c **** 
 239:Drivers/src/ch32v20x_can.c ****     for(i = 0; i < 64; i++){
 557              		.loc 1 239 11
 558 017c 232604FE 		sw	zero,-20(s0)
 559              		.loc 1 239 5
 560 0180 25A8     		j	.L32
 561              	.L33:
 240:Drivers/src/ch32v20x_can.c ****         *(__IO uint16_t *)(0x40006000 + 512 + 4 * i) = *(__IO uint16_t *)(0x40006000 + 768 + 4 * i)
 562              		.loc 1 240 92 discriminator 3
 563 0182 0327C4FE 		lw	a4,-20(s0)
 564 0186 B7270010 		li	a5,268443648
 565 018a 9387078C 		addi	a5,a5,-1856
 566 018e BA97     		add	a5,a4,a5
 567 0190 8A07     		slli	a5,a5,2
 568              		.loc 1 240 57 discriminator 3
 569 0192 BE86     		mv	a3,a5
 570              		.loc 1 240 45 discriminator 3
 571 0194 0327C4FE 		lw	a4,-20(s0)
 572 0198 B7270010 		li	a5,268443648
 573 019c 93870788 		addi	a5,a5,-1920
 574 01a0 BA97     		add	a5,a4,a5
 575 01a2 8A07     		slli	a5,a5,2
 576              		.loc 1 240 10 discriminator 3
 577 01a4 3E87     		mv	a4,a5
 578              		.loc 1 240 56 discriminator 3
 579 01a6 9E22     		lhu	a5,0(a3)
 580 01a8 C207     		slli	a5,a5,16
 581 01aa C183     		srli	a5,a5,16
 582              		.loc 1 240 54 discriminator 3
 583 01ac 1EA3     		sh	a5,0(a4)
 239:Drivers/src/ch32v20x_can.c ****         *(__IO uint16_t *)(0x40006000 + 512 + 4 * i) = *(__IO uint16_t *)(0x40006000 + 768 + 4 * i)
 584              		.loc 1 239 25 discriminator 3
GAS LISTING C:\Users\SOLDER~1\AppData\Local\Temp\ccYCTqm0.s 			page 16


 585 01ae 8327C4FE 		lw	a5,-20(s0)
 586 01b2 8507     		addi	a5,a5,1
 587 01b4 2326F4FE 		sw	a5,-20(s0)
 588              	.L32:
 239:Drivers/src/ch32v20x_can.c ****         *(__IO uint16_t *)(0x40006000 + 512 + 4 * i) = *(__IO uint16_t *)(0x40006000 + 768 + 4 * i)
 589              		.loc 1 239 18 discriminator 1
 590 01b8 0327C4FE 		lw	a4,-20(s0)
 591 01bc 9307F003 		li	a5,63
 592 01c0 E3F1E7FC 		bleu	a4,a5,.L33
 593              	.L31:
 594              	.LBE2:
 241:Drivers/src/ch32v20x_can.c ****     }
 242:Drivers/src/ch32v20x_can.c ****   }
 243:Drivers/src/ch32v20x_can.c **** 
 244:Drivers/src/ch32v20x_can.c **** #endif
 245:Drivers/src/ch32v20x_can.c **** 
 246:Drivers/src/ch32v20x_can.c ****   if (CAN_FilterInitStruct->CAN_FilterMode == CAN_FilterMode_IdMask)
 595              		.loc 1 246 27
 596 01c4 8327C4FD 		lw	a5,-36(s0)
 597 01c8 BC37     		lbu	a5,11(a5)
 598              		.loc 1 246 6
 599 01ca 9DE3     		bne	a5,zero,.L34
 247:Drivers/src/ch32v20x_can.c ****   {
 248:Drivers/src/ch32v20x_can.c ****     CAN1->FMCFGR &= ~(uint32_t)filter_number_bit_pos;
 600              		.loc 1 248 9
 601 01cc B7670040 		li	a5,1073766400
 602 01d0 93870740 		addi	a5,a5,1024
 603 01d4 83A64720 		lw	a3,516(a5)
 604              		.loc 1 248 21
 605 01d8 832784FE 		lw	a5,-24(s0)
 606 01dc 13C7F7FF 		not	a4,a5
 607              		.loc 1 248 9
 608 01e0 B7670040 		li	a5,1073766400
 609 01e4 93870740 		addi	a5,a5,1024
 610              		.loc 1 248 18
 611 01e8 758F     		and	a4,a3,a4
 612 01ea 23A2E720 		sw	a4,516(a5)
 613 01ee 05A0     		j	.L35
 614              	.L34:
 249:Drivers/src/ch32v20x_can.c ****   }
 250:Drivers/src/ch32v20x_can.c ****   else 
 251:Drivers/src/ch32v20x_can.c ****   {
 252:Drivers/src/ch32v20x_can.c ****     CAN1->FMCFGR |= (uint32_t)filter_number_bit_pos;
 615              		.loc 1 252 9
 616 01f0 B7670040 		li	a5,1073766400
 617 01f4 93870740 		addi	a5,a5,1024
 618 01f8 83A64720 		lw	a3,516(a5)
 619 01fc B7670040 		li	a5,1073766400
 620 0200 93870740 		addi	a5,a5,1024
 621              		.loc 1 252 18
 622 0204 032784FE 		lw	a4,-24(s0)
 623 0208 558F     		or	a4,a3,a4
 624 020a 23A2E720 		sw	a4,516(a5)
 625              	.L35:
 253:Drivers/src/ch32v20x_can.c ****   }
 254:Drivers/src/ch32v20x_can.c **** 
 255:Drivers/src/ch32v20x_can.c ****   if (CAN_FilterInitStruct->CAN_FilterFIFOAssignment == CAN_Filter_FIFO0)
GAS LISTING C:\Users\SOLDER~1\AppData\Local\Temp\ccYCTqm0.s 			page 17


 626              		.loc 1 255 27
 627 020e 8327C4FD 		lw	a5,-36(s0)
 628 0212 9E27     		lhu	a5,8(a5)
 629              		.loc 1 255 6
 630 0214 95E3     		bne	a5,zero,.L36
 256:Drivers/src/ch32v20x_can.c ****   {
 257:Drivers/src/ch32v20x_can.c ****     CAN1->FAFIFOR &= ~(uint32_t)filter_number_bit_pos;
 631              		.loc 1 257 9
 632 0216 B7670040 		li	a5,1073766400
 633 021a 93870740 		addi	a5,a5,1024
 634 021e 83A64721 		lw	a3,532(a5)
 635              		.loc 1 257 22
 636 0222 832784FE 		lw	a5,-24(s0)
 637 0226 13C7F7FF 		not	a4,a5
 638              		.loc 1 257 9
 639 022a B7670040 		li	a5,1073766400
 640 022e 93870740 		addi	a5,a5,1024
 641              		.loc 1 257 19
 642 0232 758F     		and	a4,a3,a4
 643 0234 23AAE720 		sw	a4,532(a5)
 644              	.L36:
 258:Drivers/src/ch32v20x_can.c ****   }
 259:Drivers/src/ch32v20x_can.c **** 
 260:Drivers/src/ch32v20x_can.c ****   if (CAN_FilterInitStruct->CAN_FilterFIFOAssignment == CAN_Filter_FIFO1)
 645              		.loc 1 260 27
 646 0238 8327C4FD 		lw	a5,-36(s0)
 647 023c 9A27     		lhu	a4,8(a5)
 648              		.loc 1 260 6
 649 023e 8547     		li	a5,1
 650 0240 6311F702 		bne	a4,a5,.L37
 261:Drivers/src/ch32v20x_can.c ****   {
 262:Drivers/src/ch32v20x_can.c ****     CAN1->FAFIFOR |= (uint32_t)filter_number_bit_pos;
 651              		.loc 1 262 9
 652 0244 B7670040 		li	a5,1073766400
 653 0248 93870740 		addi	a5,a5,1024
 654 024c 83A64721 		lw	a3,532(a5)
 655 0250 B7670040 		li	a5,1073766400
 656 0254 93870740 		addi	a5,a5,1024
 657              		.loc 1 262 19
 658 0258 032784FE 		lw	a4,-24(s0)
 659 025c 558F     		or	a4,a3,a4
 660 025e 23AAE720 		sw	a4,532(a5)
 661              	.L37:
 263:Drivers/src/ch32v20x_can.c ****   }
 264:Drivers/src/ch32v20x_can.c ****   
 265:Drivers/src/ch32v20x_can.c ****   if (CAN_FilterInitStruct->CAN_FilterActivation == ENABLE)
 662              		.loc 1 265 27
 663 0262 8327C4FD 		lw	a5,-36(s0)
 664 0266 984B     		lw	a4,16(a5)
 665              		.loc 1 265 6
 666 0268 8547     		li	a5,1
 667 026a 6311F702 		bne	a4,a5,.L38
 266:Drivers/src/ch32v20x_can.c ****   {
 267:Drivers/src/ch32v20x_can.c ****     CAN1->FWR |= filter_number_bit_pos;
 668              		.loc 1 267 9
 669 026e B7670040 		li	a5,1073766400
 670 0272 93870740 		addi	a5,a5,1024
GAS LISTING C:\Users\SOLDER~1\AppData\Local\Temp\ccYCTqm0.s 			page 18


 671 0276 83A6C721 		lw	a3,540(a5)
 672 027a B7670040 		li	a5,1073766400
 673 027e 93870740 		addi	a5,a5,1024
 674              		.loc 1 267 15
 675 0282 032784FE 		lw	a4,-24(s0)
 676 0286 558F     		or	a4,a3,a4
 677 0288 23AEE720 		sw	a4,540(a5)
 678              	.L38:
 268:Drivers/src/ch32v20x_can.c ****   }
 269:Drivers/src/ch32v20x_can.c **** 
 270:Drivers/src/ch32v20x_can.c ****   CAN1->FCTLR &= ~FCTLR_FINIT;
 679              		.loc 1 270 7
 680 028c B7670040 		li	a5,1073766400
 681 0290 93870740 		addi	a5,a5,1024
 682 0294 03A70720 		lw	a4,512(a5)
 683 0298 B7670040 		li	a5,1073766400
 684 029c 93870740 		addi	a5,a5,1024
 685              		.loc 1 270 15
 686 02a0 799B     		andi	a4,a4,-2
 687 02a2 23A0E720 		sw	a4,512(a5)
 271:Drivers/src/ch32v20x_can.c **** }
 688              		.loc 1 271 1
 689 02a6 0100     		nop
 690 02a8 3254     		lw	s0,44(sp)
 691              		.cfi_restore 8
 692              		.cfi_def_cfa 2, 48
 693 02aa 4561     		addi	sp,sp,48
 694              		.cfi_def_cfa_offset 0
 695 02ac 8280     		jr	ra
 696              		.cfi_endproc
 697              	.LFE18:
 699              		.section	.text.CAN_StructInit,"ax",@progbits
 700              		.align	1
 701              		.globl	CAN_StructInit
 703              	CAN_StructInit:
 704              	.LFB19:
 272:Drivers/src/ch32v20x_can.c **** 
 273:Drivers/src/ch32v20x_can.c **** /*********************************************************************
 274:Drivers/src/ch32v20x_can.c ****  * @fn      CAN_StructInit
 275:Drivers/src/ch32v20x_can.c ****  *
 276:Drivers/src/ch32v20x_can.c ****  * @brief   Fills each CAN_InitStruct member with its default value.
 277:Drivers/src/ch32v20x_can.c ****  *
 278:Drivers/src/ch32v20x_can.c ****  * @param   CAN_InitStruct - pointer to a CAN_InitTypeDef structure which
 279:Drivers/src/ch32v20x_can.c ****  *        will be initialized.
 280:Drivers/src/ch32v20x_can.c ****  *
 281:Drivers/src/ch32v20x_can.c ****  * @return  none
 282:Drivers/src/ch32v20x_can.c ****  */
 283:Drivers/src/ch32v20x_can.c **** void CAN_StructInit(CAN_InitTypeDef* CAN_InitStruct)
 284:Drivers/src/ch32v20x_can.c **** {
 705              		.loc 1 284 1
 706              		.cfi_startproc
 707 0000 0111     		addi	sp,sp,-32
 708              		.cfi_def_cfa_offset 32
 709 0002 22CE     		sw	s0,28(sp)
 710              		.cfi_offset 8, -4
 711 0004 0010     		addi	s0,sp,32
 712              		.cfi_def_cfa 8, 0
GAS LISTING C:\Users\SOLDER~1\AppData\Local\Temp\ccYCTqm0.s 			page 19


 713 0006 2326A4FE 		sw	a0,-20(s0)
 285:Drivers/src/ch32v20x_can.c ****   CAN_InitStruct->CAN_TTCM = DISABLE;
 714              		.loc 1 285 28
 715 000a 8327C4FE 		lw	a5,-20(s0)
 716 000e 23A40700 		sw	zero,8(a5)
 286:Drivers/src/ch32v20x_can.c ****   CAN_InitStruct->CAN_ABOM = DISABLE;
 717              		.loc 1 286 28
 718 0012 8327C4FE 		lw	a5,-20(s0)
 719 0016 23A60700 		sw	zero,12(a5)
 287:Drivers/src/ch32v20x_can.c ****   CAN_InitStruct->CAN_AWUM = DISABLE;
 720              		.loc 1 287 28
 721 001a 8327C4FE 		lw	a5,-20(s0)
 722 001e 23A80700 		sw	zero,16(a5)
 288:Drivers/src/ch32v20x_can.c ****   CAN_InitStruct->CAN_NART = DISABLE;
 723              		.loc 1 288 28
 724 0022 8327C4FE 		lw	a5,-20(s0)
 725 0026 23AA0700 		sw	zero,20(a5)
 289:Drivers/src/ch32v20x_can.c ****   CAN_InitStruct->CAN_RFLM = DISABLE;
 726              		.loc 1 289 28
 727 002a 8327C4FE 		lw	a5,-20(s0)
 728 002e 23AC0700 		sw	zero,24(a5)
 290:Drivers/src/ch32v20x_can.c ****   CAN_InitStruct->CAN_TXFP = DISABLE;
 729              		.loc 1 290 28
 730 0032 8327C4FE 		lw	a5,-20(s0)
 731 0036 23AE0700 		sw	zero,28(a5)
 291:Drivers/src/ch32v20x_can.c ****   CAN_InitStruct->CAN_Mode = CAN_Mode_Normal;
 732              		.loc 1 291 28
 733 003a 8327C4FE 		lw	a5,-20(s0)
 734 003e 23810700 		sb	zero,2(a5)
 292:Drivers/src/ch32v20x_can.c ****   CAN_InitStruct->CAN_SJW = CAN_SJW_1tq;
 735              		.loc 1 292 27
 736 0042 8327C4FE 		lw	a5,-20(s0)
 737 0046 A3810700 		sb	zero,3(a5)
 293:Drivers/src/ch32v20x_can.c ****   CAN_InitStruct->CAN_BS1 = CAN_BS1_4tq;
 738              		.loc 1 293 27
 739 004a 8327C4FE 		lw	a5,-20(s0)
 740 004e 0D47     		li	a4,3
 741 0050 D8A3     		sb	a4,4(a5)
 294:Drivers/src/ch32v20x_can.c ****   CAN_InitStruct->CAN_BS2 = CAN_BS2_3tq;
 742              		.loc 1 294 27
 743 0052 8327C4FE 		lw	a5,-20(s0)
 744 0056 0947     		li	a4,2
 745 0058 D8B3     		sb	a4,5(a5)
 295:Drivers/src/ch32v20x_can.c ****   CAN_InitStruct->CAN_Prescaler = 1;
 746              		.loc 1 295 33
 747 005a 8327C4FE 		lw	a5,-20(s0)
 748 005e 0547     		li	a4,1
 749 0060 9AA3     		sh	a4,0(a5)
 296:Drivers/src/ch32v20x_can.c **** }
 750              		.loc 1 296 1
 751 0062 0100     		nop
 752 0064 7244     		lw	s0,28(sp)
 753              		.cfi_restore 8
 754              		.cfi_def_cfa 2, 32
 755 0066 0561     		addi	sp,sp,32
 756              		.cfi_def_cfa_offset 0
 757 0068 8280     		jr	ra
GAS LISTING C:\Users\SOLDER~1\AppData\Local\Temp\ccYCTqm0.s 			page 20


 758              		.cfi_endproc
 759              	.LFE19:
 761              		.section	.text.CAN_SlaveStartBank,"ax",@progbits
 762              		.align	1
 763              		.globl	CAN_SlaveStartBank
 765              	CAN_SlaveStartBank:
 766              	.LFB20:
 297:Drivers/src/ch32v20x_can.c **** 
 298:Drivers/src/ch32v20x_can.c **** /*********************************************************************
 299:Drivers/src/ch32v20x_can.c ****  * @fn      CAN_SlaveStartBank
 300:Drivers/src/ch32v20x_can.c ****  *
 301:Drivers/src/ch32v20x_can.c ****  * @brief   This function applies only to CH32 Connectivity line devices.
 302:Drivers/src/ch32v20x_can.c ****  *
 303:Drivers/src/ch32v20x_can.c ****  * @param   CAN_BankNumber - Select the start slave bank filter from 1..27.
 304:Drivers/src/ch32v20x_can.c ****  *
 305:Drivers/src/ch32v20x_can.c ****  * @return  none
 306:Drivers/src/ch32v20x_can.c ****  */
 307:Drivers/src/ch32v20x_can.c **** void CAN_SlaveStartBank(uint8_t CAN_BankNumber) 
 308:Drivers/src/ch32v20x_can.c **** {
 767              		.loc 1 308 1
 768              		.cfi_startproc
 769 0000 0111     		addi	sp,sp,-32
 770              		.cfi_def_cfa_offset 32
 771 0002 22CE     		sw	s0,28(sp)
 772              		.cfi_offset 8, -4
 773 0004 0010     		addi	s0,sp,32
 774              		.cfi_def_cfa 8, 0
 775 0006 AA87     		mv	a5,a0
 776 0008 A307F4FE 		sb	a5,-17(s0)
 309:Drivers/src/ch32v20x_can.c ****   CAN1->FCTLR |= FCTLR_FINIT;
 777              		.loc 1 309 7
 778 000c B7670040 		li	a5,1073766400
 779 0010 93870740 		addi	a5,a5,1024
 780 0014 03A70720 		lw	a4,512(a5)
 781 0018 B7670040 		li	a5,1073766400
 782 001c 93870740 		addi	a5,a5,1024
 783              		.loc 1 309 15
 784 0020 13671700 		ori	a4,a4,1
 785 0024 23A0E720 		sw	a4,512(a5)
 310:Drivers/src/ch32v20x_can.c ****   CAN1->FCTLR &= (uint32_t)0xFFFFC0F1 ;
 786              		.loc 1 310 7
 787 0028 B7670040 		li	a5,1073766400
 788 002c 93870740 		addi	a5,a5,1024
 789 0030 83A60720 		lw	a3,512(a5)
 790 0034 B7670040 		li	a5,1073766400
 791 0038 93870740 		addi	a5,a5,1024
 792              		.loc 1 310 15
 793 003c 7177     		li	a4,-16384
 794 003e 1307170F 		addi	a4,a4,241
 795 0042 758F     		and	a4,a3,a4
 796 0044 23A0E720 		sw	a4,512(a5)
 311:Drivers/src/ch32v20x_can.c ****   CAN1->FCTLR |= (uint32_t)(CAN_BankNumber)<<8;
 797              		.loc 1 311 7
 798 0048 B7670040 		li	a5,1073766400
 799 004c 93870740 		addi	a5,a5,1024
 800 0050 83A60720 		lw	a3,512(a5)
 801              		.loc 1 311 18
GAS LISTING C:\Users\SOLDER~1\AppData\Local\Temp\ccYCTqm0.s 			page 21


 802 0054 8347F4FE 		lbu	a5,-17(s0)
 803              		.loc 1 311 44
 804 0058 13978700 		slli	a4,a5,8
 805              		.loc 1 311 7
 806 005c B7670040 		li	a5,1073766400
 807 0060 93870740 		addi	a5,a5,1024
 808              		.loc 1 311 15
 809 0064 558F     		or	a4,a3,a4
 810 0066 23A0E720 		sw	a4,512(a5)
 312:Drivers/src/ch32v20x_can.c ****   CAN1->FCTLR &= ~FCTLR_FINIT;
 811              		.loc 1 312 7
 812 006a B7670040 		li	a5,1073766400
 813 006e 93870740 		addi	a5,a5,1024
 814 0072 03A70720 		lw	a4,512(a5)
 815 0076 B7670040 		li	a5,1073766400
 816 007a 93870740 		addi	a5,a5,1024
 817              		.loc 1 312 15
 818 007e 799B     		andi	a4,a4,-2
 819 0080 23A0E720 		sw	a4,512(a5)
 313:Drivers/src/ch32v20x_can.c **** }
 820              		.loc 1 313 1
 821 0084 0100     		nop
 822 0086 7244     		lw	s0,28(sp)
 823              		.cfi_restore 8
 824              		.cfi_def_cfa 2, 32
 825 0088 0561     		addi	sp,sp,32
 826              		.cfi_def_cfa_offset 0
 827 008a 8280     		jr	ra
 828              		.cfi_endproc
 829              	.LFE20:
 831              		.section	.text.CAN_DBGFreeze,"ax",@progbits
 832              		.align	1
 833              		.globl	CAN_DBGFreeze
 835              	CAN_DBGFreeze:
 836              	.LFB21:
 314:Drivers/src/ch32v20x_can.c **** 
 315:Drivers/src/ch32v20x_can.c **** /*********************************************************************
 316:Drivers/src/ch32v20x_can.c ****  * @fn      CAN_DBGFreeze
 317:Drivers/src/ch32v20x_can.c ****  *
 318:Drivers/src/ch32v20x_can.c ****  * @brief   Enables or disables the DBG Freeze for CAN.
 319:Drivers/src/ch32v20x_can.c ****  *
 320:Drivers/src/ch32v20x_can.c ****  * @param   CANx - where x can be 1 to select the CAN peripheral.
 321:Drivers/src/ch32v20x_can.c ****  *          NewState - ENABLE or DISABLE.
 322:Drivers/src/ch32v20x_can.c ****  *
 323:Drivers/src/ch32v20x_can.c ****  * @return  none
 324:Drivers/src/ch32v20x_can.c ****  */
 325:Drivers/src/ch32v20x_can.c **** void CAN_DBGFreeze(CAN_TypeDef* CANx, FunctionalState NewState)
 326:Drivers/src/ch32v20x_can.c **** {
 837              		.loc 1 326 1
 838              		.cfi_startproc
 839 0000 0111     		addi	sp,sp,-32
 840              		.cfi_def_cfa_offset 32
 841 0002 22CE     		sw	s0,28(sp)
 842              		.cfi_offset 8, -4
 843 0004 0010     		addi	s0,sp,32
 844              		.cfi_def_cfa 8, 0
 845 0006 2326A4FE 		sw	a0,-20(s0)
GAS LISTING C:\Users\SOLDER~1\AppData\Local\Temp\ccYCTqm0.s 			page 22


 846 000a 2324B4FE 		sw	a1,-24(s0)
 327:Drivers/src/ch32v20x_can.c ****   if (NewState != DISABLE)
 847              		.loc 1 327 6
 848 000e 832784FE 		lw	a5,-24(s0)
 849 0012 91CB     		beq	a5,zero,.L42
 328:Drivers/src/ch32v20x_can.c ****   {
 329:Drivers/src/ch32v20x_can.c ****     CANx->CTLR |= CTLR_DBF;
 850              		.loc 1 329 9
 851 0014 8327C4FE 		lw	a5,-20(s0)
 852 0018 9843     		lw	a4,0(a5)
 853              		.loc 1 329 16
 854 001a C167     		li	a5,65536
 855 001c 5D8F     		or	a4,a4,a5
 856 001e 8327C4FE 		lw	a5,-20(s0)
 857 0022 98C3     		sw	a4,0(a5)
 330:Drivers/src/ch32v20x_can.c ****   }
 331:Drivers/src/ch32v20x_can.c ****   else
 332:Drivers/src/ch32v20x_can.c ****   {
 333:Drivers/src/ch32v20x_can.c ****     CANx->CTLR &= ~CTLR_DBF;
 334:Drivers/src/ch32v20x_can.c ****   }
 335:Drivers/src/ch32v20x_can.c **** }
 858              		.loc 1 335 1
 859 0024 11A8     		j	.L44
 860              	.L42:
 333:Drivers/src/ch32v20x_can.c ****   }
 861              		.loc 1 333 9
 862 0026 8327C4FE 		lw	a5,-20(s0)
 863 002a 9843     		lw	a4,0(a5)
 333:Drivers/src/ch32v20x_can.c ****   }
 864              		.loc 1 333 16
 865 002c C177     		li	a5,-65536
 866 002e FD17     		addi	a5,a5,-1
 867 0030 7D8F     		and	a4,a4,a5
 868 0032 8327C4FE 		lw	a5,-20(s0)
 869 0036 98C3     		sw	a4,0(a5)
 870              	.L44:
 871              		.loc 1 335 1
 872 0038 0100     		nop
 873 003a 7244     		lw	s0,28(sp)
 874              		.cfi_restore 8
 875              		.cfi_def_cfa 2, 32
 876 003c 0561     		addi	sp,sp,32
 877              		.cfi_def_cfa_offset 0
 878 003e 8280     		jr	ra
 879              		.cfi_endproc
 880              	.LFE21:
 882              		.section	.text.CAN_TTComModeCmd,"ax",@progbits
 883              		.align	1
 884              		.globl	CAN_TTComModeCmd
 886              	CAN_TTComModeCmd:
 887              	.LFB22:
 336:Drivers/src/ch32v20x_can.c **** 
 337:Drivers/src/ch32v20x_can.c **** /*********************************************************************
 338:Drivers/src/ch32v20x_can.c ****  * @fn      CAN_TTComModeCmd
 339:Drivers/src/ch32v20x_can.c ****  *
 340:Drivers/src/ch32v20x_can.c ****  * @brief   Enables or disabes the CAN Time TriggerOperation communication mode.
 341:Drivers/src/ch32v20x_can.c ****  *
GAS LISTING C:\Users\SOLDER~1\AppData\Local\Temp\ccYCTqm0.s 			page 23


 342:Drivers/src/ch32v20x_can.c ****  * @param   CANx - where x can be 1 to select the CAN peripheral.
 343:Drivers/src/ch32v20x_can.c ****  *          NewState - ENABLE or DISABLE.
 344:Drivers/src/ch32v20x_can.c ****  *          Note-
 345:Drivers/src/ch32v20x_can.c ****  *          DLC must be programmed as 8 in order Time Stamp (2 bytes) to be 
 346:Drivers/src/ch32v20x_can.c ****  *          sent over the CAN bus. 
 347:Drivers/src/ch32v20x_can.c ****  *
 348:Drivers/src/ch32v20x_can.c ****  * @return  none
 349:Drivers/src/ch32v20x_can.c ****  */
 350:Drivers/src/ch32v20x_can.c **** void CAN_TTComModeCmd(CAN_TypeDef* CANx, FunctionalState NewState)
 351:Drivers/src/ch32v20x_can.c **** {
 888              		.loc 1 351 1
 889              		.cfi_startproc
 890 0000 0111     		addi	sp,sp,-32
 891              		.cfi_def_cfa_offset 32
 892 0002 22CE     		sw	s0,28(sp)
 893              		.cfi_offset 8, -4
 894 0004 0010     		addi	s0,sp,32
 895              		.cfi_def_cfa 8, 0
 896 0006 2326A4FE 		sw	a0,-20(s0)
 897 000a 2324B4FE 		sw	a1,-24(s0)
 352:Drivers/src/ch32v20x_can.c ****   if (NewState != DISABLE)
 898              		.loc 1 352 6
 899 000e 832784FE 		lw	a5,-24(s0)
 900 0012 A1CB     		beq	a5,zero,.L46
 353:Drivers/src/ch32v20x_can.c ****   {
 354:Drivers/src/ch32v20x_can.c ****     CANx->CTLR |= CAN_CTLR_TTCM;
 901              		.loc 1 354 9
 902 0014 8327C4FE 		lw	a5,-20(s0)
 903 0018 9C43     		lw	a5,0(a5)
 904              		.loc 1 354 16
 905 001a 13E70708 		ori	a4,a5,128
 906 001e 8327C4FE 		lw	a5,-20(s0)
 907 0022 98C3     		sw	a4,0(a5)
 355:Drivers/src/ch32v20x_can.c **** 
 356:Drivers/src/ch32v20x_can.c ****     CANx->sTxMailBox[0].TXMDTR |= ((uint32_t)CAN_TXMDT0R_TGT);
 908              		.loc 1 356 24
 909 0024 8327C4FE 		lw	a5,-20(s0)
 910 0028 83A74718 		lw	a5,388(a5)
 911              		.loc 1 356 32
 912 002c 13E70710 		ori	a4,a5,256
 913 0030 8327C4FE 		lw	a5,-20(s0)
 914 0034 23A2E718 		sw	a4,388(a5)
 357:Drivers/src/ch32v20x_can.c ****     CANx->sTxMailBox[1].TXMDTR |= ((uint32_t)CAN_TXMDT1R_TGT);
 915              		.loc 1 357 24
 916 0038 8327C4FE 		lw	a5,-20(s0)
 917 003c 83A74719 		lw	a5,404(a5)
 918              		.loc 1 357 32
 919 0040 13E70710 		ori	a4,a5,256
 920 0044 8327C4FE 		lw	a5,-20(s0)
 921 0048 23AAE718 		sw	a4,404(a5)
 358:Drivers/src/ch32v20x_can.c ****     CANx->sTxMailBox[2].TXMDTR |= ((uint32_t)CAN_TXMDT2R_TGT);
 922              		.loc 1 358 24
 923 004c 8327C4FE 		lw	a5,-20(s0)
 924 0050 83A7471A 		lw	a5,420(a5)
 925              		.loc 1 358 32
 926 0054 13E70710 		ori	a4,a5,256
 927 0058 8327C4FE 		lw	a5,-20(s0)
GAS LISTING C:\Users\SOLDER~1\AppData\Local\Temp\ccYCTqm0.s 			page 24


 928 005c 23A2E71A 		sw	a4,420(a5)
 359:Drivers/src/ch32v20x_can.c ****   }
 360:Drivers/src/ch32v20x_can.c ****   else
 361:Drivers/src/ch32v20x_can.c ****   {
 362:Drivers/src/ch32v20x_can.c ****     CANx->CTLR &= (uint32_t)(~(uint32_t)CAN_CTLR_TTCM);
 363:Drivers/src/ch32v20x_can.c **** 
 364:Drivers/src/ch32v20x_can.c ****     CANx->sTxMailBox[0].TXMDTR &= ((uint32_t)~CAN_TXMDT0R_TGT);
 365:Drivers/src/ch32v20x_can.c ****     CANx->sTxMailBox[1].TXMDTR &= ((uint32_t)~CAN_TXMDT1R_TGT);
 366:Drivers/src/ch32v20x_can.c ****     CANx->sTxMailBox[2].TXMDTR &= ((uint32_t)~CAN_TXMDT2R_TGT);
 367:Drivers/src/ch32v20x_can.c ****   }
 368:Drivers/src/ch32v20x_can.c **** }
 929              		.loc 1 368 1
 930 0060 B9A0     		j	.L48
 931              	.L46:
 362:Drivers/src/ch32v20x_can.c **** 
 932              		.loc 1 362 9
 933 0062 8327C4FE 		lw	a5,-20(s0)
 934 0066 9C43     		lw	a5,0(a5)
 362:Drivers/src/ch32v20x_can.c **** 
 935              		.loc 1 362 16
 936 0068 13F7F7F7 		andi	a4,a5,-129
 937 006c 8327C4FE 		lw	a5,-20(s0)
 938 0070 98C3     		sw	a4,0(a5)
 364:Drivers/src/ch32v20x_can.c ****     CANx->sTxMailBox[1].TXMDTR &= ((uint32_t)~CAN_TXMDT1R_TGT);
 939              		.loc 1 364 24
 940 0072 8327C4FE 		lw	a5,-20(s0)
 941 0076 83A74718 		lw	a5,388(a5)
 364:Drivers/src/ch32v20x_can.c ****     CANx->sTxMailBox[1].TXMDTR &= ((uint32_t)~CAN_TXMDT1R_TGT);
 942              		.loc 1 364 32
 943 007a 13F7F7EF 		andi	a4,a5,-257
 944 007e 8327C4FE 		lw	a5,-20(s0)
 945 0082 23A2E718 		sw	a4,388(a5)
 365:Drivers/src/ch32v20x_can.c ****     CANx->sTxMailBox[2].TXMDTR &= ((uint32_t)~CAN_TXMDT2R_TGT);
 946              		.loc 1 365 24
 947 0086 8327C4FE 		lw	a5,-20(s0)
 948 008a 83A74719 		lw	a5,404(a5)
 365:Drivers/src/ch32v20x_can.c ****     CANx->sTxMailBox[2].TXMDTR &= ((uint32_t)~CAN_TXMDT2R_TGT);
 949              		.loc 1 365 32
 950 008e 13F7F7EF 		andi	a4,a5,-257
 951 0092 8327C4FE 		lw	a5,-20(s0)
 952 0096 23AAE718 		sw	a4,404(a5)
 366:Drivers/src/ch32v20x_can.c ****   }
 953              		.loc 1 366 24
 954 009a 8327C4FE 		lw	a5,-20(s0)
 955 009e 83A7471A 		lw	a5,420(a5)
 366:Drivers/src/ch32v20x_can.c ****   }
 956              		.loc 1 366 32
 957 00a2 13F7F7EF 		andi	a4,a5,-257
 958 00a6 8327C4FE 		lw	a5,-20(s0)
 959 00aa 23A2E71A 		sw	a4,420(a5)
 960              	.L48:
 961              		.loc 1 368 1
 962 00ae 0100     		nop
 963 00b0 7244     		lw	s0,28(sp)
 964              		.cfi_restore 8
 965              		.cfi_def_cfa 2, 32
 966 00b2 0561     		addi	sp,sp,32
GAS LISTING C:\Users\SOLDER~1\AppData\Local\Temp\ccYCTqm0.s 			page 25


 967              		.cfi_def_cfa_offset 0
 968 00b4 8280     		jr	ra
 969              		.cfi_endproc
 970              	.LFE22:
 972              		.section	.text.CAN_Transmit,"ax",@progbits
 973              		.align	1
 974              		.globl	CAN_Transmit
 976              	CAN_Transmit:
 977              	.LFB23:
 369:Drivers/src/ch32v20x_can.c **** 
 370:Drivers/src/ch32v20x_can.c **** /*********************************************************************
 371:Drivers/src/ch32v20x_can.c ****  * @fn      CAN_Transmit
 372:Drivers/src/ch32v20x_can.c ****  *
 373:Drivers/src/ch32v20x_can.c ****  * @brief   Initiates the transmission of a message.
 374:Drivers/src/ch32v20x_can.c ****  *
 375:Drivers/src/ch32v20x_can.c ****  * @param   CANx - where x can be 1 to select the CAN peripheral.
 376:Drivers/src/ch32v20x_can.c ****  *          TxMessage - pointer to a structure which contains CAN Id, CAN
 377:Drivers/src/ch32v20x_can.c ****  *        DLC and CAN data.
 378:Drivers/src/ch32v20x_can.c ****  *
 379:Drivers/src/ch32v20x_can.c ****  * @return  transmit_mailbox - The number of the mailbox that is used for
 380:Drivers/src/ch32v20x_can.c ****  *        transmission or CAN_TxStatus_NoMailBox if there is no empty mailbox.
 381:Drivers/src/ch32v20x_can.c ****  */
 382:Drivers/src/ch32v20x_can.c **** uint8_t CAN_Transmit(CAN_TypeDef* CANx, CanTxMsg* TxMessage)
 383:Drivers/src/ch32v20x_can.c **** {
 978              		.loc 1 383 1
 979              		.cfi_startproc
 980 0000 7971     		addi	sp,sp,-48
 981              		.cfi_def_cfa_offset 48
 982 0002 22D6     		sw	s0,44(sp)
 983              		.cfi_offset 8, -4
 984 0004 0018     		addi	s0,sp,48
 985              		.cfi_def_cfa 8, 0
 986 0006 232EA4FC 		sw	a0,-36(s0)
 987 000a 232CB4FC 		sw	a1,-40(s0)
 384:Drivers/src/ch32v20x_can.c ****   uint8_t transmit_mailbox = 0;
 988              		.loc 1 384 11
 989 000e A30704FE 		sb	zero,-17(s0)
 385:Drivers/src/ch32v20x_can.c **** 
 386:Drivers/src/ch32v20x_can.c ****   if ((CANx->TSTATR&CAN_TSTATR_TME0) == CAN_TSTATR_TME0)
 990              		.loc 1 386 12
 991 0012 8327C4FD 		lw	a5,-36(s0)
 992 0016 9847     		lw	a4,8(a5)
 993              		.loc 1 386 20
 994 0018 B7070004 		li	a5,67108864
 995 001c 7D8F     		and	a4,a4,a5
 996              		.loc 1 386 6
 997 001e B7070004 		li	a5,67108864
 998 0022 6315F700 		bne	a4,a5,.L50
 387:Drivers/src/ch32v20x_can.c ****   {
 388:Drivers/src/ch32v20x_can.c ****     transmit_mailbox = 0;
 999              		.loc 1 388 22
 1000 0026 A30704FE 		sb	zero,-17(s0)
 1001 002a 81A0     		j	.L51
 1002              	.L50:
 389:Drivers/src/ch32v20x_can.c ****   }
 390:Drivers/src/ch32v20x_can.c ****   else if ((CANx->TSTATR&CAN_TSTATR_TME1) == CAN_TSTATR_TME1)
 1003              		.loc 1 390 17
GAS LISTING C:\Users\SOLDER~1\AppData\Local\Temp\ccYCTqm0.s 			page 26


 1004 002c 8327C4FD 		lw	a5,-36(s0)
 1005 0030 9847     		lw	a4,8(a5)
 1006              		.loc 1 390 25
 1007 0032 B7070008 		li	a5,134217728
 1008 0036 7D8F     		and	a4,a4,a5
 1009              		.loc 1 390 11
 1010 0038 B7070008 		li	a5,134217728
 1011 003c 6316F700 		bne	a4,a5,.L52
 391:Drivers/src/ch32v20x_can.c ****   {
 392:Drivers/src/ch32v20x_can.c ****     transmit_mailbox = 1;
 1012              		.loc 1 392 22
 1013 0040 8547     		li	a5,1
 1014 0042 A307F4FE 		sb	a5,-17(s0)
 1015 0046 15A0     		j	.L51
 1016              	.L52:
 393:Drivers/src/ch32v20x_can.c ****   }
 394:Drivers/src/ch32v20x_can.c ****   else if ((CANx->TSTATR&CAN_TSTATR_TME2) == CAN_TSTATR_TME2)
 1017              		.loc 1 394 17
 1018 0048 8327C4FD 		lw	a5,-36(s0)
 1019 004c 9847     		lw	a4,8(a5)
 1020              		.loc 1 394 25
 1021 004e B7070010 		li	a5,268435456
 1022 0052 7D8F     		and	a4,a4,a5
 1023              		.loc 1 394 11
 1024 0054 B7070010 		li	a5,268435456
 1025 0058 6316F700 		bne	a4,a5,.L53
 395:Drivers/src/ch32v20x_can.c ****   {
 396:Drivers/src/ch32v20x_can.c ****     transmit_mailbox = 2;
 1026              		.loc 1 396 22
 1027 005c 8947     		li	a5,2
 1028 005e A307F4FE 		sb	a5,-17(s0)
 1029 0062 21A0     		j	.L51
 1030              	.L53:
 397:Drivers/src/ch32v20x_can.c ****   }
 398:Drivers/src/ch32v20x_can.c ****   else
 399:Drivers/src/ch32v20x_can.c ****   {
 400:Drivers/src/ch32v20x_can.c ****     transmit_mailbox = CAN_TxStatus_NoMailBox;
 1031              		.loc 1 400 22
 1032 0064 9147     		li	a5,4
 1033 0066 A307F4FE 		sb	a5,-17(s0)
 1034              	.L51:
 401:Drivers/src/ch32v20x_can.c ****   }
 402:Drivers/src/ch32v20x_can.c **** 
 403:Drivers/src/ch32v20x_can.c ****   if (transmit_mailbox != CAN_TxStatus_NoMailBox)
 1035              		.loc 1 403 6
 1036 006a 0347F4FE 		lbu	a4,-17(s0)
 1037 006e 9147     		li	a5,4
 1038 0070 6307F718 		beq	a4,a5,.L54
 404:Drivers/src/ch32v20x_can.c ****   {
 405:Drivers/src/ch32v20x_can.c ****     CANx->sTxMailBox[transmit_mailbox].TXMIR &= TMIDxR_TXRQ;
 1039              		.loc 1 405 39
 1040 0074 8347F4FE 		lbu	a5,-17(s0)
 1041 0078 0327C4FD 		lw	a4,-36(s0)
 1042 007c E107     		addi	a5,a5,24
 1043 007e 9207     		slli	a5,a5,4
 1044 0080 BA97     		add	a5,a4,a5
 1045 0082 9843     		lw	a4,0(a5)
GAS LISTING C:\Users\SOLDER~1\AppData\Local\Temp\ccYCTqm0.s 			page 27


 1046 0084 8347F4FE 		lbu	a5,-17(s0)
 1047              		.loc 1 405 46
 1048 0088 058B     		andi	a4,a4,1
 1049 008a 8326C4FD 		lw	a3,-36(s0)
 1050 008e E107     		addi	a5,a5,24
 1051 0090 9207     		slli	a5,a5,4
 1052 0092 B697     		add	a5,a3,a5
 1053 0094 98C3     		sw	a4,0(a5)
 406:Drivers/src/ch32v20x_can.c ****     if (TxMessage->IDE == CAN_Id_Standard)
 1054              		.loc 1 406 18
 1055 0096 832784FD 		lw	a5,-40(s0)
 1056 009a 9C27     		lbu	a5,8(a5)
 1057              		.loc 1 406 8
 1058 009c 9DEB     		bne	a5,zero,.L55
 407:Drivers/src/ch32v20x_can.c ****     {
 408:Drivers/src/ch32v20x_can.c ****       CANx->sTxMailBox[transmit_mailbox].TXMIR |= ((TxMessage->StdId << 21) | \
 1059              		.loc 1 408 41
 1060 009e 8347F4FE 		lbu	a5,-17(s0)
 1061 00a2 0327C4FD 		lw	a4,-36(s0)
 1062 00a6 E107     		addi	a5,a5,24
 1063 00a8 9207     		slli	a5,a5,4
 1064 00aa BA97     		add	a5,a4,a5
 1065 00ac 9443     		lw	a3,0(a5)
 1066              		.loc 1 408 62
 1067 00ae 832784FD 		lw	a5,-40(s0)
 1068 00b2 9C43     		lw	a5,0(a5)
 1069              		.loc 1 408 70
 1070 00b4 D607     		slli	a5,a5,21
 409:Drivers/src/ch32v20x_can.c ****                                                   TxMessage->RTR);
 1071              		.loc 1 409 60
 1072 00b6 032784FD 		lw	a4,-40(s0)
 1073 00ba 1837     		lbu	a4,9(a4)
 408:Drivers/src/ch32v20x_can.c ****                                                   TxMessage->RTR);
 1074              		.loc 1 408 77
 1075 00bc 5D8F     		or	a4,a5,a4
 408:Drivers/src/ch32v20x_can.c ****                                                   TxMessage->RTR);
 1076              		.loc 1 408 41
 1077 00be 8347F4FE 		lbu	a5,-17(s0)
 408:Drivers/src/ch32v20x_can.c ****                                                   TxMessage->RTR);
 1078              		.loc 1 408 48
 1079 00c2 558F     		or	a4,a3,a4
 1080 00c4 8326C4FD 		lw	a3,-36(s0)
 1081 00c8 E107     		addi	a5,a5,24
 1082 00ca 9207     		slli	a5,a5,4
 1083 00cc B697     		add	a5,a3,a5
 1084 00ce 98C3     		sw	a4,0(a5)
 1085 00d0 35A8     		j	.L56
 1086              	.L55:
 410:Drivers/src/ch32v20x_can.c ****     }
 411:Drivers/src/ch32v20x_can.c ****     else
 412:Drivers/src/ch32v20x_can.c ****     {
 413:Drivers/src/ch32v20x_can.c ****       CANx->sTxMailBox[transmit_mailbox].TXMIR |= ((TxMessage->ExtId << 3) | \
 1087              		.loc 1 413 41
 1088 00d2 8347F4FE 		lbu	a5,-17(s0)
 1089 00d6 0327C4FD 		lw	a4,-36(s0)
 1090 00da E107     		addi	a5,a5,24
 1091 00dc 9207     		slli	a5,a5,4
GAS LISTING C:\Users\SOLDER~1\AppData\Local\Temp\ccYCTqm0.s 			page 28


 1092 00de BA97     		add	a5,a4,a5
 1093 00e0 9443     		lw	a3,0(a5)
 1094              		.loc 1 413 62
 1095 00e2 832784FD 		lw	a5,-40(s0)
 1096 00e6 DC43     		lw	a5,4(a5)
 1097              		.loc 1 413 70
 1098 00e8 8E07     		slli	a5,a5,3
 414:Drivers/src/ch32v20x_can.c ****                                                   TxMessage->IDE | \
 1099              		.loc 1 414 60
 1100 00ea 032784FD 		lw	a4,-40(s0)
 1101 00ee 1827     		lbu	a4,8(a4)
 413:Drivers/src/ch32v20x_can.c ****                                                   TxMessage->IDE | \
 1102              		.loc 1 413 76
 1103 00f0 D98F     		or	a5,a5,a4
 415:Drivers/src/ch32v20x_can.c ****                                                   TxMessage->RTR);
 1104              		.loc 1 415 60
 1105 00f2 032784FD 		lw	a4,-40(s0)
 1106 00f6 1837     		lbu	a4,9(a4)
 414:Drivers/src/ch32v20x_can.c ****                                                   TxMessage->IDE | \
 1107              		.loc 1 414 66
 1108 00f8 5D8F     		or	a4,a5,a4
 413:Drivers/src/ch32v20x_can.c ****                                                   TxMessage->IDE | \
 1109              		.loc 1 413 41
 1110 00fa 8347F4FE 		lbu	a5,-17(s0)
 413:Drivers/src/ch32v20x_can.c ****                                                   TxMessage->IDE | \
 1111              		.loc 1 413 48
 1112 00fe 558F     		or	a4,a3,a4
 1113 0100 8326C4FD 		lw	a3,-36(s0)
 1114 0104 E107     		addi	a5,a5,24
 1115 0106 9207     		slli	a5,a5,4
 1116 0108 B697     		add	a5,a3,a5
 1117 010a 98C3     		sw	a4,0(a5)
 1118              	.L56:
 416:Drivers/src/ch32v20x_can.c ****     }
 417:Drivers/src/ch32v20x_can.c ****     
 418:Drivers/src/ch32v20x_can.c ****     TxMessage->DLC &= (uint8_t)0x0000000F;
 1119              		.loc 1 418 14
 1120 010c 832784FD 		lw	a5,-40(s0)
 1121 0110 BC27     		lbu	a5,10(a5)
 1122              		.loc 1 418 20
 1123 0112 BD8B     		andi	a5,a5,15
 1124 0114 13F7F70F 		andi	a4,a5,0xff
 1125 0118 832784FD 		lw	a5,-40(s0)
 1126 011c B8A7     		sb	a4,10(a5)
 419:Drivers/src/ch32v20x_can.c ****     CANx->sTxMailBox[transmit_mailbox].TXMDTR &= (uint32_t)0xFFFFFFF0;
 1127              		.loc 1 419 39
 1128 011e 8347F4FE 		lbu	a5,-17(s0)
 1129 0122 0327C4FD 		lw	a4,-36(s0)
 1130 0126 E107     		addi	a5,a5,24
 1131 0128 9207     		slli	a5,a5,4
 1132 012a BA97     		add	a5,a4,a5
 1133 012c D843     		lw	a4,4(a5)
 1134 012e 8347F4FE 		lbu	a5,-17(s0)
 1135              		.loc 1 419 47
 1136 0132 419B     		andi	a4,a4,-16
 1137 0134 8326C4FD 		lw	a3,-36(s0)
 1138 0138 E107     		addi	a5,a5,24
GAS LISTING C:\Users\SOLDER~1\AppData\Local\Temp\ccYCTqm0.s 			page 29


 1139 013a 9207     		slli	a5,a5,4
 1140 013c B697     		add	a5,a3,a5
 1141 013e D8C3     		sw	a4,4(a5)
 420:Drivers/src/ch32v20x_can.c ****     CANx->sTxMailBox[transmit_mailbox].TXMDTR |= TxMessage->DLC;
 1142              		.loc 1 420 39
 1143 0140 8347F4FE 		lbu	a5,-17(s0)
 1144 0144 0327C4FD 		lw	a4,-36(s0)
 1145 0148 E107     		addi	a5,a5,24
 1146 014a 9207     		slli	a5,a5,4
 1147 014c BA97     		add	a5,a4,a5
 1148 014e D843     		lw	a4,4(a5)
 1149              		.loc 1 420 59
 1150 0150 832784FD 		lw	a5,-40(s0)
 1151 0154 BC27     		lbu	a5,10(a5)
 1152 0156 BE86     		mv	a3,a5
 1153              		.loc 1 420 39
 1154 0158 8347F4FE 		lbu	a5,-17(s0)
 1155              		.loc 1 420 47
 1156 015c 558F     		or	a4,a4,a3
 1157 015e 8326C4FD 		lw	a3,-36(s0)
 1158 0162 E107     		addi	a5,a5,24
 1159 0164 9207     		slli	a5,a5,4
 1160 0166 B697     		add	a5,a3,a5
 1161 0168 D8C3     		sw	a4,4(a5)
 421:Drivers/src/ch32v20x_can.c **** 
 422:Drivers/src/ch32v20x_can.c ****     CANx->sTxMailBox[transmit_mailbox].TXMDLR = (((uint32_t)TxMessage->Data[3] << 24) | 
 1162              		.loc 1 422 76
 1163 016a 832784FD 		lw	a5,-40(s0)
 1164 016e FC27     		lbu	a5,14(a5)
 1165              		.loc 1 422 80
 1166 0170 13978701 		slli	a4,a5,24
 423:Drivers/src/ch32v20x_can.c ****                                              ((uint32_t)TxMessage->Data[2] << 16) |
 1167              		.loc 1 423 72
 1168 0174 832784FD 		lw	a5,-40(s0)
 1169 0178 DC37     		lbu	a5,13(a5)
 1170              		.loc 1 423 76
 1171 017a C207     		slli	a5,a5,16
 422:Drivers/src/ch32v20x_can.c ****                                              ((uint32_t)TxMessage->Data[2] << 16) |
 1172              		.loc 1 422 87
 1173 017c 5D8F     		or	a4,a4,a5
 424:Drivers/src/ch32v20x_can.c ****                                              ((uint32_t)TxMessage->Data[1] << 8) | 
 1174              		.loc 1 424 72
 1175 017e 832784FD 		lw	a5,-40(s0)
 1176 0182 DC27     		lbu	a5,12(a5)
 1177              		.loc 1 424 76
 1178 0184 A207     		slli	a5,a5,8
 423:Drivers/src/ch32v20x_can.c ****                                              ((uint32_t)TxMessage->Data[2] << 16) |
 1179              		.loc 1 423 83
 1180 0186 5D8F     		or	a4,a4,a5
 425:Drivers/src/ch32v20x_can.c ****                                              ((uint32_t)TxMessage->Data[0]));
 1181              		.loc 1 425 72
 1182 0188 832784FD 		lw	a5,-40(s0)
 1183 018c BC37     		lbu	a5,11(a5)
 1184              		.loc 1 425 47
 1185 018e BE86     		mv	a3,a5
 422:Drivers/src/ch32v20x_can.c ****                                              ((uint32_t)TxMessage->Data[2] << 16) |
 1186              		.loc 1 422 39
GAS LISTING C:\Users\SOLDER~1\AppData\Local\Temp\ccYCTqm0.s 			page 30


 1187 0190 8347F4FE 		lbu	a5,-17(s0)
 424:Drivers/src/ch32v20x_can.c ****                                              ((uint32_t)TxMessage->Data[1] << 8) | 
 1188              		.loc 1 424 82
 1189 0194 558F     		or	a4,a4,a3
 422:Drivers/src/ch32v20x_can.c ****                                              ((uint32_t)TxMessage->Data[2] << 16) |
 1190              		.loc 1 422 47
 1191 0196 8326C4FD 		lw	a3,-36(s0)
 1192 019a E107     		addi	a5,a5,24
 1193 019c 9207     		slli	a5,a5,4
 1194 019e B697     		add	a5,a3,a5
 1195 01a0 98C7     		sw	a4,8(a5)
 426:Drivers/src/ch32v20x_can.c ****     CANx->sTxMailBox[transmit_mailbox].TXMDHR = (((uint32_t)TxMessage->Data[7] << 24) | 
 1196              		.loc 1 426 76
 1197 01a2 832784FD 		lw	a5,-40(s0)
 1198 01a6 BC2B     		lbu	a5,18(a5)
 1199              		.loc 1 426 80
 1200 01a8 13978701 		slli	a4,a5,24
 427:Drivers/src/ch32v20x_can.c ****                                              ((uint32_t)TxMessage->Data[6] << 16) |
 1201              		.loc 1 427 72
 1202 01ac 832784FD 		lw	a5,-40(s0)
 1203 01b0 9C3B     		lbu	a5,17(a5)
 1204              		.loc 1 427 76
 1205 01b2 C207     		slli	a5,a5,16
 426:Drivers/src/ch32v20x_can.c ****     CANx->sTxMailBox[transmit_mailbox].TXMDHR = (((uint32_t)TxMessage->Data[7] << 24) | 
 1206              		.loc 1 426 87
 1207 01b4 5D8F     		or	a4,a4,a5
 428:Drivers/src/ch32v20x_can.c ****                                              ((uint32_t)TxMessage->Data[5] << 8) |
 1208              		.loc 1 428 72
 1209 01b6 832784FD 		lw	a5,-40(s0)
 1210 01ba 9C2B     		lbu	a5,16(a5)
 1211              		.loc 1 428 76
 1212 01bc A207     		slli	a5,a5,8
 427:Drivers/src/ch32v20x_can.c ****                                              ((uint32_t)TxMessage->Data[6] << 16) |
 1213              		.loc 1 427 83
 1214 01be 5D8F     		or	a4,a4,a5
 429:Drivers/src/ch32v20x_can.c ****                                              ((uint32_t)TxMessage->Data[4]));
 1215              		.loc 1 429 72
 1216 01c0 832784FD 		lw	a5,-40(s0)
 1217 01c4 FC37     		lbu	a5,15(a5)
 1218              		.loc 1 429 47
 1219 01c6 BE86     		mv	a3,a5
 426:Drivers/src/ch32v20x_can.c ****                                              ((uint32_t)TxMessage->Data[6] << 16) |
 1220              		.loc 1 426 39
 1221 01c8 8347F4FE 		lbu	a5,-17(s0)
 428:Drivers/src/ch32v20x_can.c ****                                              ((uint32_t)TxMessage->Data[5] << 8) |
 1222              		.loc 1 428 82
 1223 01cc 558F     		or	a4,a4,a3
 426:Drivers/src/ch32v20x_can.c ****                                              ((uint32_t)TxMessage->Data[6] << 16) |
 1224              		.loc 1 426 47
 1225 01ce 8326C4FD 		lw	a3,-36(s0)
 1226 01d2 E107     		addi	a5,a5,24
 1227 01d4 9207     		slli	a5,a5,4
 1228 01d6 B697     		add	a5,a3,a5
 1229 01d8 D8C7     		sw	a4,12(a5)
 430:Drivers/src/ch32v20x_can.c ****     CANx->sTxMailBox[transmit_mailbox].TXMIR |= TMIDxR_TXRQ;
 1230              		.loc 1 430 39
 1231 01da 8347F4FE 		lbu	a5,-17(s0)
GAS LISTING C:\Users\SOLDER~1\AppData\Local\Temp\ccYCTqm0.s 			page 31


 1232 01de 0327C4FD 		lw	a4,-36(s0)
 1233 01e2 E107     		addi	a5,a5,24
 1234 01e4 9207     		slli	a5,a5,4
 1235 01e6 BA97     		add	a5,a4,a5
 1236 01e8 9843     		lw	a4,0(a5)
 1237 01ea 8347F4FE 		lbu	a5,-17(s0)
 1238              		.loc 1 430 46
 1239 01ee 13671700 		ori	a4,a4,1
 1240 01f2 8326C4FD 		lw	a3,-36(s0)
 1241 01f6 E107     		addi	a5,a5,24
 1242 01f8 9207     		slli	a5,a5,4
 1243 01fa B697     		add	a5,a3,a5
 1244 01fc 98C3     		sw	a4,0(a5)
 1245              	.L54:
 431:Drivers/src/ch32v20x_can.c ****   }
 432:Drivers/src/ch32v20x_can.c **** 	
 433:Drivers/src/ch32v20x_can.c ****   return transmit_mailbox;
 1246              		.loc 1 433 10
 1247 01fe 8347F4FE 		lbu	a5,-17(s0)
 434:Drivers/src/ch32v20x_can.c **** }
 1248              		.loc 1 434 1
 1249 0202 3E85     		mv	a0,a5
 1250 0204 3254     		lw	s0,44(sp)
 1251              		.cfi_restore 8
 1252              		.cfi_def_cfa 2, 48
 1253 0206 4561     		addi	sp,sp,48
 1254              		.cfi_def_cfa_offset 0
 1255 0208 8280     		jr	ra
 1256              		.cfi_endproc
 1257              	.LFE23:
 1259              		.section	.text.CAN_TransmitStatus,"ax",@progbits
 1260              		.align	1
 1261              		.globl	CAN_TransmitStatus
 1263              	CAN_TransmitStatus:
 1264              	.LFB24:
 435:Drivers/src/ch32v20x_can.c **** 
 436:Drivers/src/ch32v20x_can.c **** /*********************************************************************
 437:Drivers/src/ch32v20x_can.c ****  * @fn      CAN_TransmitStatus
 438:Drivers/src/ch32v20x_can.c ****  *
 439:Drivers/src/ch32v20x_can.c ****  * @brief   Checks the transmission of a message.
 440:Drivers/src/ch32v20x_can.c ****  *
 441:Drivers/src/ch32v20x_can.c ****  * @param   CANx - where x can be 1 to select the CAN peripheral.
 442:Drivers/src/ch32v20x_can.c ****  *          TransmitMailbox - the number of the mailbox that is used for
 443:Drivers/src/ch32v20x_can.c ****  *        transmission.
 444:Drivers/src/ch32v20x_can.c ****  *
 445:Drivers/src/ch32v20x_can.c ****  * @return  state -
 446:Drivers/src/ch32v20x_can.c ****  *            CAN_TxStatus_Ok.
 447:Drivers/src/ch32v20x_can.c ****  *            CAN_TxStatus_Failed.
 448:Drivers/src/ch32v20x_can.c ****  */
 449:Drivers/src/ch32v20x_can.c **** uint8_t CAN_TransmitStatus(CAN_TypeDef* CANx, uint8_t TransmitMailbox)
 450:Drivers/src/ch32v20x_can.c **** {
 1265              		.loc 1 450 1
 1266              		.cfi_startproc
 1267 0000 7971     		addi	sp,sp,-48
 1268              		.cfi_def_cfa_offset 48
 1269 0002 22D6     		sw	s0,44(sp)
 1270              		.cfi_offset 8, -4
GAS LISTING C:\Users\SOLDER~1\AppData\Local\Temp\ccYCTqm0.s 			page 32


 1271 0004 0018     		addi	s0,sp,48
 1272              		.cfi_def_cfa 8, 0
 1273 0006 232EA4FC 		sw	a0,-36(s0)
 1274 000a AE87     		mv	a5,a1
 1275 000c A30DF4FC 		sb	a5,-37(s0)
 451:Drivers/src/ch32v20x_can.c ****   uint32_t state = 0;
 1276              		.loc 1 451 12
 1277 0010 232604FE 		sw	zero,-20(s0)
 452:Drivers/src/ch32v20x_can.c **** 
 453:Drivers/src/ch32v20x_can.c ****   switch (TransmitMailbox)
 1278              		.loc 1 453 3
 1279 0014 8347B4FD 		lbu	a5,-37(s0)
 1280 0018 0947     		li	a4,2
 1281 001a 638FE702 		beq	a5,a4,.L59
 1282 001e 0947     		li	a4,2
 1283 0020 6345F704 		bgt	a5,a4,.L60
 1284 0024 89C7     		beq	a5,zero,.L61
 1285 0026 0547     		li	a4,1
 1286 0028 638DE700 		beq	a5,a4,.L62
 1287 002c 3DA8     		j	.L60
 1288              	.L61:
 454:Drivers/src/ch32v20x_can.c ****   {
 455:Drivers/src/ch32v20x_can.c ****     case (CAN_TXMAILBOX_0): 
 456:Drivers/src/ch32v20x_can.c ****       state =   CANx->TSTATR &  (CAN_TSTATR_RQCP0 | CAN_TSTATR_TXOK0 | CAN_TSTATR_TME0);
 1289              		.loc 1 456 21
 1290 002e 8327C4FD 		lw	a5,-36(s0)
 1291 0032 9847     		lw	a4,8(a5)
 1292              		.loc 1 456 13
 1293 0034 B7070004 		li	a5,67108864
 1294 0038 8D07     		addi	a5,a5,3
 1295 003a F98F     		and	a5,a4,a5
 1296 003c 2326F4FE 		sw	a5,-20(s0)
 457:Drivers/src/ch32v20x_can.c ****       break;
 1297              		.loc 1 457 7
 1298 0040 05A8     		j	.L63
 1299              	.L62:
 458:Drivers/src/ch32v20x_can.c **** 		
 459:Drivers/src/ch32v20x_can.c ****     case (CAN_TXMAILBOX_1): 
 460:Drivers/src/ch32v20x_can.c ****       state =   CANx->TSTATR &  (CAN_TSTATR_RQCP1 | CAN_TSTATR_TXOK1 | CAN_TSTATR_TME1);
 1300              		.loc 1 460 21
 1301 0042 8327C4FD 		lw	a5,-36(s0)
 1302 0046 9847     		lw	a4,8(a5)
 1303              		.loc 1 460 13
 1304 0048 B7070008 		li	a5,134217728
 1305 004c 93870730 		addi	a5,a5,768
 1306 0050 F98F     		and	a5,a4,a5
 1307 0052 2326F4FE 		sw	a5,-20(s0)
 461:Drivers/src/ch32v20x_can.c ****       break;
 1308              		.loc 1 461 7
 1309 0056 29A8     		j	.L63
 1310              	.L59:
 462:Drivers/src/ch32v20x_can.c **** 		
 463:Drivers/src/ch32v20x_can.c ****     case (CAN_TXMAILBOX_2): 
 464:Drivers/src/ch32v20x_can.c ****       state =   CANx->TSTATR &  (CAN_TSTATR_RQCP2 | CAN_TSTATR_TXOK2 | CAN_TSTATR_TME2);
 1311              		.loc 1 464 21
 1312 0058 8327C4FD 		lw	a5,-36(s0)
 1313 005c 9847     		lw	a4,8(a5)
GAS LISTING C:\Users\SOLDER~1\AppData\Local\Temp\ccYCTqm0.s 			page 33


 1314              		.loc 1 464 13
 1315 005e B7070310 		li	a5,268632064
 1316 0062 F98F     		and	a5,a4,a5
 1317 0064 2326F4FE 		sw	a5,-20(s0)
 465:Drivers/src/ch32v20x_can.c ****       break;
 1318              		.loc 1 465 7
 1319 0068 21A0     		j	.L63
 1320              	.L60:
 466:Drivers/src/ch32v20x_can.c **** 		
 467:Drivers/src/ch32v20x_can.c ****     default:
 468:Drivers/src/ch32v20x_can.c ****       state = CAN_TxStatus_Failed;
 1321              		.loc 1 468 13
 1322 006a 232604FE 		sw	zero,-20(s0)
 469:Drivers/src/ch32v20x_can.c ****       break;
 1323              		.loc 1 469 7
 1324 006e 0100     		nop
 1325              	.L63:
 470:Drivers/src/ch32v20x_can.c ****   }
 471:Drivers/src/ch32v20x_can.c **** 	
 472:Drivers/src/ch32v20x_can.c ****   switch (state)
 1326              		.loc 1 472 3
 1327 0070 0327C4FE 		lw	a4,-20(s0)
 1328 0074 B7070310 		li	a5,268632064
 1329 0078 6302F70C 		beq	a4,a5,.L64
 1330 007c 0327C4FE 		lw	a4,-20(s0)
 1331 0080 B7070310 		li	a5,268632064
 1332 0084 63E0E70C 		bgtu	a4,a5,.L65
 1333 0088 0327C4FE 		lw	a4,-20(s0)
 1334 008c B7070110 		li	a5,268500992
 1335 0090 630BF708 		beq	a4,a5,.L66
 1336 0094 0327C4FE 		lw	a4,-20(s0)
 1337 0098 B7070110 		li	a5,268500992
 1338 009c 63E4E70A 		bgtu	a4,a5,.L65
 1339 00a0 0327C4FE 		lw	a4,-20(s0)
 1340 00a4 B7070008 		li	a5,134217728
 1341 00a8 93870730 		addi	a5,a5,768
 1342 00ac 6304F708 		beq	a4,a5,.L67
 1343 00b0 0327C4FE 		lw	a4,-20(s0)
 1344 00b4 B7070008 		li	a5,134217728
 1345 00b8 93870730 		addi	a5,a5,768
 1346 00bc 63E4E708 		bgtu	a4,a5,.L65
 1347 00c0 0327C4FE 		lw	a4,-20(s0)
 1348 00c4 B7070008 		li	a5,134217728
 1349 00c8 93870710 		addi	a5,a5,256
 1350 00cc 630AF704 		beq	a4,a5,.L68
 1351 00d0 0327C4FE 		lw	a4,-20(s0)
 1352 00d4 B7070008 		li	a5,134217728
 1353 00d8 93870710 		addi	a5,a5,256
 1354 00dc 63E4E706 		bgtu	a4,a5,.L65
 1355 00e0 0327C4FE 		lw	a4,-20(s0)
 1356 00e4 B7070004 		li	a5,67108864
 1357 00e8 8D07     		addi	a5,a5,3
 1358 00ea 6301F704 		beq	a4,a5,.L69
 1359 00ee 0327C4FE 		lw	a4,-20(s0)
 1360 00f2 B7070004 		li	a5,67108864
 1361 00f6 8D07     		addi	a5,a5,3
 1362 00f8 63E6E704 		bgtu	a4,a5,.L65
GAS LISTING C:\Users\SOLDER~1\AppData\Local\Temp\ccYCTqm0.s 			page 34


 1363 00fc 8327C4FE 		lw	a5,-20(s0)
 1364 0100 89CB     		beq	a5,zero,.L70
 1365 0102 0327C4FE 		lw	a4,-20(s0)
 1366 0106 B7070004 		li	a5,67108864
 1367 010a 8507     		addi	a5,a5,1
 1368 010c 6307F700 		beq	a4,a5,.L71
 1369 0110 15A8     		j	.L65
 1370              	.L70:
 473:Drivers/src/ch32v20x_can.c ****   {
 474:Drivers/src/ch32v20x_can.c ****     case (0x0): 
 475:Drivers/src/ch32v20x_can.c **** 			state = CAN_TxStatus_Pending;
 1371              		.loc 1 475 10
 1372 0112 8947     		li	a5,2
 1373 0114 2326F4FE 		sw	a5,-20(s0)
 476:Drivers/src/ch32v20x_can.c ****       break;
 1374              		.loc 1 476 7
 1375 0118 0DA8     		j	.L72
 1376              	.L71:
 477:Drivers/src/ch32v20x_can.c **** 		
 478:Drivers/src/ch32v20x_can.c ****      case (CAN_TSTATR_RQCP0 | CAN_TSTATR_TME0): 
 479:Drivers/src/ch32v20x_can.c **** 			state = CAN_TxStatus_Failed;
 1377              		.loc 1 479 10
 1378 011a 232604FE 		sw	zero,-20(s0)
 480:Drivers/src/ch32v20x_can.c ****       break;
 1379              		.loc 1 480 7
 1380 011e 35A0     		j	.L72
 1381              	.L68:
 481:Drivers/src/ch32v20x_can.c **** 		
 482:Drivers/src/ch32v20x_can.c ****      case (CAN_TSTATR_RQCP1 | CAN_TSTATR_TME1): 
 483:Drivers/src/ch32v20x_can.c **** 			state = CAN_TxStatus_Failed;
 1382              		.loc 1 483 10
 1383 0120 232604FE 		sw	zero,-20(s0)
 484:Drivers/src/ch32v20x_can.c ****       break;
 1384              		.loc 1 484 7
 1385 0124 1DA0     		j	.L72
 1386              	.L66:
 485:Drivers/src/ch32v20x_can.c **** 		
 486:Drivers/src/ch32v20x_can.c ****      case (CAN_TSTATR_RQCP2 | CAN_TSTATR_TME2):
 487:Drivers/src/ch32v20x_can.c **** 			state = CAN_TxStatus_Failed;
 1387              		.loc 1 487 10
 1388 0126 232604FE 		sw	zero,-20(s0)
 488:Drivers/src/ch32v20x_can.c ****       break;
 1389              		.loc 1 488 7
 1390 012a 05A0     		j	.L72
 1391              	.L69:
 489:Drivers/src/ch32v20x_can.c **** 		
 490:Drivers/src/ch32v20x_can.c ****     case (CAN_TSTATR_RQCP0 | CAN_TSTATR_TXOK0 | CAN_TSTATR_TME0):
 491:Drivers/src/ch32v20x_can.c **** 			state = CAN_TxStatus_Ok;
 1392              		.loc 1 491 10
 1393 012c 8547     		li	a5,1
 1394 012e 2326F4FE 		sw	a5,-20(s0)
 492:Drivers/src/ch32v20x_can.c ****       break;
 1395              		.loc 1 492 7
 1396 0132 21A8     		j	.L72
 1397              	.L67:
 493:Drivers/src/ch32v20x_can.c **** 		
 494:Drivers/src/ch32v20x_can.c ****     case (CAN_TSTATR_RQCP1 | CAN_TSTATR_TXOK1 | CAN_TSTATR_TME1):
GAS LISTING C:\Users\SOLDER~1\AppData\Local\Temp\ccYCTqm0.s 			page 35


 495:Drivers/src/ch32v20x_can.c **** 			state = CAN_TxStatus_Ok;
 1398              		.loc 1 495 10
 1399 0134 8547     		li	a5,1
 1400 0136 2326F4FE 		sw	a5,-20(s0)
 496:Drivers/src/ch32v20x_can.c ****       break;
 1401              		.loc 1 496 7
 1402 013a 01A8     		j	.L72
 1403              	.L64:
 497:Drivers/src/ch32v20x_can.c **** 		
 498:Drivers/src/ch32v20x_can.c ****     case (CAN_TSTATR_RQCP2 | CAN_TSTATR_TXOK2 | CAN_TSTATR_TME2):
 499:Drivers/src/ch32v20x_can.c **** 			state = CAN_TxStatus_Ok;
 1404              		.loc 1 499 10
 1405 013c 8547     		li	a5,1
 1406 013e 2326F4FE 		sw	a5,-20(s0)
 500:Drivers/src/ch32v20x_can.c ****       break;
 1407              		.loc 1 500 7
 1408 0142 21A0     		j	.L72
 1409              	.L65:
 501:Drivers/src/ch32v20x_can.c **** 		
 502:Drivers/src/ch32v20x_can.c ****     default: 
 503:Drivers/src/ch32v20x_can.c **** 			state = CAN_TxStatus_Failed;
 1410              		.loc 1 503 10
 1411 0144 232604FE 		sw	zero,-20(s0)
 504:Drivers/src/ch32v20x_can.c ****       break;
 1412              		.loc 1 504 7
 1413 0148 0100     		nop
 1414              	.L72:
 505:Drivers/src/ch32v20x_can.c ****   }
 506:Drivers/src/ch32v20x_can.c **** 	
 507:Drivers/src/ch32v20x_can.c ****   return (uint8_t) state;
 1415              		.loc 1 507 10
 1416 014a 8327C4FE 		lw	a5,-20(s0)
 1417 014e 93F7F70F 		andi	a5,a5,0xff
 508:Drivers/src/ch32v20x_can.c **** }
 1418              		.loc 1 508 1
 1419 0152 3E85     		mv	a0,a5
 1420 0154 3254     		lw	s0,44(sp)
 1421              		.cfi_restore 8
 1422              		.cfi_def_cfa 2, 48
 1423 0156 4561     		addi	sp,sp,48
 1424              		.cfi_def_cfa_offset 0
 1425 0158 8280     		jr	ra
 1426              		.cfi_endproc
 1427              	.LFE24:
 1429              		.section	.text.CAN_CancelTransmit,"ax",@progbits
 1430              		.align	1
 1431              		.globl	CAN_CancelTransmit
 1433              	CAN_CancelTransmit:
 1434              	.LFB25:
 509:Drivers/src/ch32v20x_can.c **** 
 510:Drivers/src/ch32v20x_can.c **** /*********************************************************************
 511:Drivers/src/ch32v20x_can.c ****  * @fn      CAN_CancelTransmit
 512:Drivers/src/ch32v20x_can.c ****  *
 513:Drivers/src/ch32v20x_can.c ****  * @brief   Cancels a transmit request.
 514:Drivers/src/ch32v20x_can.c ****  *
 515:Drivers/src/ch32v20x_can.c ****  * @param   CANx - where x can be 1 to select the CAN peripheral.
 516:Drivers/src/ch32v20x_can.c ****  *          Mailbox -  Mailbox number.
GAS LISTING C:\Users\SOLDER~1\AppData\Local\Temp\ccYCTqm0.s 			page 36


 517:Drivers/src/ch32v20x_can.c ****  *            CAN_TXMAILBOX_0.
 518:Drivers/src/ch32v20x_can.c ****  *            CAN_TXMAILBOX_1.
 519:Drivers/src/ch32v20x_can.c ****  *            CAN_TXMAILBOX_2.
 520:Drivers/src/ch32v20x_can.c ****  *
 521:Drivers/src/ch32v20x_can.c ****  * @return  none
 522:Drivers/src/ch32v20x_can.c ****  */
 523:Drivers/src/ch32v20x_can.c **** void CAN_CancelTransmit(CAN_TypeDef* CANx, uint8_t Mailbox)
 524:Drivers/src/ch32v20x_can.c **** {
 1435              		.loc 1 524 1
 1436              		.cfi_startproc
 1437 0000 0111     		addi	sp,sp,-32
 1438              		.cfi_def_cfa_offset 32
 1439 0002 22CE     		sw	s0,28(sp)
 1440              		.cfi_offset 8, -4
 1441 0004 0010     		addi	s0,sp,32
 1442              		.cfi_def_cfa 8, 0
 1443 0006 2326A4FE 		sw	a0,-20(s0)
 1444 000a AE87     		mv	a5,a1
 1445 000c A305F4FE 		sb	a5,-21(s0)
 525:Drivers/src/ch32v20x_can.c ****   switch (Mailbox)
 1446              		.loc 1 525 3
 1447 0010 8347B4FE 		lbu	a5,-21(s0)
 1448 0014 0947     		li	a4,2
 1449 0016 638CE702 		beq	a5,a4,.L75
 1450 001a 0947     		li	a4,2
 1451 001c 6343F704 		bgt	a5,a4,.L80
 1452 0020 89C7     		beq	a5,zero,.L77
 1453 0022 0547     		li	a4,1
 1454 0024 638CE700 		beq	a5,a4,.L78
 526:Drivers/src/ch32v20x_can.c ****   {
 527:Drivers/src/ch32v20x_can.c ****     case (CAN_TXMAILBOX_0): 
 528:Drivers/src/ch32v20x_can.c **** 			CANx->TSTATR |= CAN_TSTATR_ABRQ0;
 529:Drivers/src/ch32v20x_can.c ****       break;
 530:Drivers/src/ch32v20x_can.c **** 		
 531:Drivers/src/ch32v20x_can.c ****     case (CAN_TXMAILBOX_1): 
 532:Drivers/src/ch32v20x_can.c **** 			CANx->TSTATR |= CAN_TSTATR_ABRQ1;
 533:Drivers/src/ch32v20x_can.c ****       break;
 534:Drivers/src/ch32v20x_can.c **** 		
 535:Drivers/src/ch32v20x_can.c ****     case (CAN_TXMAILBOX_2): 
 536:Drivers/src/ch32v20x_can.c **** 			CANx->TSTATR |= CAN_TSTATR_ABRQ2;
 537:Drivers/src/ch32v20x_can.c ****       break;
 538:Drivers/src/ch32v20x_can.c **** 		
 539:Drivers/src/ch32v20x_can.c ****     default:
 540:Drivers/src/ch32v20x_can.c ****       break;
 1455              		.loc 1 540 7
 1456 0028 2DA8     		j	.L80
 1457              	.L77:
 528:Drivers/src/ch32v20x_can.c ****       break;
 1458              		.loc 1 528 8
 1459 002a 8327C4FE 		lw	a5,-20(s0)
 1460 002e 9C47     		lw	a5,8(a5)
 528:Drivers/src/ch32v20x_can.c ****       break;
 1461              		.loc 1 528 17
 1462 0030 13E70708 		ori	a4,a5,128
 1463 0034 8327C4FE 		lw	a5,-20(s0)
 1464 0038 98C7     		sw	a4,8(a5)
 529:Drivers/src/ch32v20x_can.c **** 		
GAS LISTING C:\Users\SOLDER~1\AppData\Local\Temp\ccYCTqm0.s 			page 37


 1465              		.loc 1 529 7
 1466 003a 2DA0     		j	.L79
 1467              	.L78:
 532:Drivers/src/ch32v20x_can.c ****       break;
 1468              		.loc 1 532 8
 1469 003c 8327C4FE 		lw	a5,-20(s0)
 1470 0040 9847     		lw	a4,8(a5)
 532:Drivers/src/ch32v20x_can.c ****       break;
 1471              		.loc 1 532 17
 1472 0042 A167     		li	a5,32768
 1473 0044 5D8F     		or	a4,a4,a5
 1474 0046 8327C4FE 		lw	a5,-20(s0)
 1475 004a 98C7     		sw	a4,8(a5)
 533:Drivers/src/ch32v20x_can.c **** 		
 1476              		.loc 1 533 7
 1477 004c 21A8     		j	.L79
 1478              	.L75:
 536:Drivers/src/ch32v20x_can.c ****       break;
 1479              		.loc 1 536 8
 1480 004e 8327C4FE 		lw	a5,-20(s0)
 1481 0052 9847     		lw	a4,8(a5)
 536:Drivers/src/ch32v20x_can.c ****       break;
 1482              		.loc 1 536 17
 1483 0054 B7078000 		li	a5,8388608
 1484 0058 5D8F     		or	a4,a4,a5
 1485 005a 8327C4FE 		lw	a5,-20(s0)
 1486 005e 98C7     		sw	a4,8(a5)
 537:Drivers/src/ch32v20x_can.c **** 		
 1487              		.loc 1 537 7
 1488 0060 11A0     		j	.L79
 1489              	.L80:
 1490              		.loc 1 540 7
 1491 0062 0100     		nop
 1492              	.L79:
 541:Drivers/src/ch32v20x_can.c ****   }
 542:Drivers/src/ch32v20x_can.c **** }
 1493              		.loc 1 542 1
 1494 0064 0100     		nop
 1495 0066 7244     		lw	s0,28(sp)
 1496              		.cfi_restore 8
 1497              		.cfi_def_cfa 2, 32
 1498 0068 0561     		addi	sp,sp,32
 1499              		.cfi_def_cfa_offset 0
 1500 006a 8280     		jr	ra
 1501              		.cfi_endproc
 1502              	.LFE25:
 1504              		.section	.text.CAN_Receive,"ax",@progbits
 1505              		.align	1
 1506              		.globl	CAN_Receive
 1508              	CAN_Receive:
 1509              	.LFB26:
 543:Drivers/src/ch32v20x_can.c **** 
 544:Drivers/src/ch32v20x_can.c **** /*********************************************************************
 545:Drivers/src/ch32v20x_can.c ****  * @fn      CAN_Receive
 546:Drivers/src/ch32v20x_can.c ****  *
 547:Drivers/src/ch32v20x_can.c ****  * @brief   Receives a message.
 548:Drivers/src/ch32v20x_can.c ****  *
GAS LISTING C:\Users\SOLDER~1\AppData\Local\Temp\ccYCTqm0.s 			page 38


 549:Drivers/src/ch32v20x_can.c ****  * @param   CANx - where x can be 1 to select the CAN peripheral.
 550:Drivers/src/ch32v20x_can.c ****  *          FIFONumber - Receive FIFO number.
 551:Drivers/src/ch32v20x_can.c ****  *            CAN_FIFO0.
 552:Drivers/src/ch32v20x_can.c ****  *            CAN_FIFO1.
 553:Drivers/src/ch32v20x_can.c ****  *          RxMessage -  pointer to a structure receive message which contains
 554:Drivers/src/ch32v20x_can.c ****  *        CAN Id, CAN DLC, CAN datas and FMI number.
 555:Drivers/src/ch32v20x_can.c ****  *
 556:Drivers/src/ch32v20x_can.c ****  * @return  none
 557:Drivers/src/ch32v20x_can.c ****  */
 558:Drivers/src/ch32v20x_can.c **** void CAN_Receive(CAN_TypeDef* CANx, uint8_t FIFONumber, CanRxMsg* RxMessage)
 559:Drivers/src/ch32v20x_can.c **** {
 1510              		.loc 1 559 1
 1511              		.cfi_startproc
 1512 0000 0111     		addi	sp,sp,-32
 1513              		.cfi_def_cfa_offset 32
 1514 0002 22CE     		sw	s0,28(sp)
 1515              		.cfi_offset 8, -4
 1516 0004 0010     		addi	s0,sp,32
 1517              		.cfi_def_cfa 8, 0
 1518 0006 2326A4FE 		sw	a0,-20(s0)
 1519 000a AE87     		mv	a5,a1
 1520 000c 2322C4FE 		sw	a2,-28(s0)
 1521 0010 A305F4FE 		sb	a5,-21(s0)
 560:Drivers/src/ch32v20x_can.c ****   RxMessage->IDE = (uint8_t)0x04 & CANx->sFIFOMailBox[FIFONumber].RXMIR;
 1522              		.loc 1 560 66
 1523 0014 8347B4FE 		lbu	a5,-21(s0)
 1524 0018 0327C4FE 		lw	a4,-20(s0)
 1525 001c ED07     		addi	a5,a5,27
 1526 001e 9207     		slli	a5,a5,4
 1527 0020 BA97     		add	a5,a4,a5
 1528 0022 9C43     		lw	a5,0(a5)
 1529              		.loc 1 560 34
 1530 0024 93F7F70F 		andi	a5,a5,0xff
 1531 0028 918B     		andi	a5,a5,4
 1532 002a 13F7F70F 		andi	a4,a5,0xff
 1533              		.loc 1 560 18
 1534 002e 832744FE 		lw	a5,-28(s0)
 1535 0032 98A7     		sb	a4,8(a5)
 561:Drivers/src/ch32v20x_can.c **** 	
 562:Drivers/src/ch32v20x_can.c ****   if (RxMessage->IDE == CAN_Id_Standard)
 1536              		.loc 1 562 16
 1537 0034 832744FE 		lw	a5,-28(s0)
 1538 0038 9C27     		lbu	a5,8(a5)
 1539              		.loc 1 562 6
 1540 003a 85E3     		bne	a5,zero,.L82
 563:Drivers/src/ch32v20x_can.c ****   {
 564:Drivers/src/ch32v20x_can.c ****     RxMessage->StdId = (uint32_t)0x000007FF & (CANx->sFIFOMailBox[FIFONumber].RXMIR >> 21);
 1541              		.loc 1 564 78
 1542 003c 8347B4FE 		lbu	a5,-21(s0)
 1543 0040 0327C4FE 		lw	a4,-20(s0)
 1544 0044 ED07     		addi	a5,a5,27
 1545 0046 9207     		slli	a5,a5,4
 1546 0048 BA97     		add	a5,a4,a5
 1547 004a 9C43     		lw	a5,0(a5)
 1548              		.loc 1 564 85
 1549 004c D583     		srli	a5,a5,21
 1550              		.loc 1 564 45
GAS LISTING C:\Users\SOLDER~1\AppData\Local\Temp\ccYCTqm0.s 			page 39


 1551 004e 13F7F77F 		andi	a4,a5,2047
 1552              		.loc 1 564 22
 1553 0052 832744FE 		lw	a5,-28(s0)
 1554 0056 98C3     		sw	a4,0(a5)
 1555 0058 15A0     		j	.L83
 1556              	.L82:
 565:Drivers/src/ch32v20x_can.c ****   }
 566:Drivers/src/ch32v20x_can.c ****   else
 567:Drivers/src/ch32v20x_can.c ****   {
 568:Drivers/src/ch32v20x_can.c ****     RxMessage->ExtId = (uint32_t)0x1FFFFFFF & (CANx->sFIFOMailBox[FIFONumber].RXMIR >> 3);
 1557              		.loc 1 568 78
 1558 005a 8347B4FE 		lbu	a5,-21(s0)
 1559 005e 0327C4FE 		lw	a4,-20(s0)
 1560 0062 ED07     		addi	a5,a5,27
 1561 0064 9207     		slli	a5,a5,4
 1562 0066 BA97     		add	a5,a4,a5
 1563 0068 9C43     		lw	a5,0(a5)
 1564              		.loc 1 568 85
 1565 006a 13D73700 		srli	a4,a5,3
 1566              		.loc 1 568 45
 1567 006e B7070020 		li	a5,536870912
 1568 0072 FD17     		addi	a5,a5,-1
 1569 0074 7D8F     		and	a4,a4,a5
 1570              		.loc 1 568 22
 1571 0076 832744FE 		lw	a5,-28(s0)
 1572 007a D8C3     		sw	a4,4(a5)
 1573              	.L83:
 569:Drivers/src/ch32v20x_can.c ****   }
 570:Drivers/src/ch32v20x_can.c ****   
 571:Drivers/src/ch32v20x_can.c ****   RxMessage->RTR = (uint8_t)0x02 & CANx->sFIFOMailBox[FIFONumber].RXMIR;
 1574              		.loc 1 571 66
 1575 007c 8347B4FE 		lbu	a5,-21(s0)
 1576 0080 0327C4FE 		lw	a4,-20(s0)
 1577 0084 ED07     		addi	a5,a5,27
 1578 0086 9207     		slli	a5,a5,4
 1579 0088 BA97     		add	a5,a4,a5
 1580 008a 9C43     		lw	a5,0(a5)
 1581              		.loc 1 571 34
 1582 008c 93F7F70F 		andi	a5,a5,0xff
 1583 0090 898B     		andi	a5,a5,2
 1584 0092 13F7F70F 		andi	a4,a5,0xff
 1585              		.loc 1 571 18
 1586 0096 832744FE 		lw	a5,-28(s0)
 1587 009a 98B7     		sb	a4,9(a5)
 572:Drivers/src/ch32v20x_can.c ****   RxMessage->DLC = (uint8_t)0x0F & CANx->sFIFOMailBox[FIFONumber].RXMDTR;
 1588              		.loc 1 572 66
 1589 009c 8347B4FE 		lbu	a5,-21(s0)
 1590 00a0 0327C4FE 		lw	a4,-20(s0)
 1591 00a4 ED07     		addi	a5,a5,27
 1592 00a6 9207     		slli	a5,a5,4
 1593 00a8 BA97     		add	a5,a4,a5
 1594 00aa DC43     		lw	a5,4(a5)
 1595              		.loc 1 572 34
 1596 00ac 93F7F70F 		andi	a5,a5,0xff
 1597 00b0 BD8B     		andi	a5,a5,15
 1598 00b2 13F7F70F 		andi	a4,a5,0xff
 1599              		.loc 1 572 18
GAS LISTING C:\Users\SOLDER~1\AppData\Local\Temp\ccYCTqm0.s 			page 40


 1600 00b6 832744FE 		lw	a5,-28(s0)
 1601 00ba B8A7     		sb	a4,10(a5)
 573:Drivers/src/ch32v20x_can.c ****   RxMessage->FMI = (uint8_t)0xFF & (CANx->sFIFOMailBox[FIFONumber].RXMDTR >> 8);
 1602              		.loc 1 573 67
 1603 00bc 8347B4FE 		lbu	a5,-21(s0)
 1604 00c0 0327C4FE 		lw	a4,-20(s0)
 1605 00c4 ED07     		addi	a5,a5,27
 1606 00c6 9207     		slli	a5,a5,4
 1607 00c8 BA97     		add	a5,a4,a5
 1608 00ca DC43     		lw	a5,4(a5)
 1609              		.loc 1 573 75
 1610 00cc A183     		srli	a5,a5,8
 1611              		.loc 1 573 18
 1612 00ce 13F7F70F 		andi	a4,a5,0xff
 1613 00d2 832744FE 		lw	a5,-28(s0)
 1614 00d6 B8BB     		sb	a4,19(a5)
 574:Drivers/src/ch32v20x_can.c ****   RxMessage->Data[0] = (uint8_t)0xFF & CANx->sFIFOMailBox[FIFONumber].RXMDLR;
 1615              		.loc 1 574 70
 1616 00d8 8347B4FE 		lbu	a5,-21(s0)
 1617 00dc 0327C4FE 		lw	a4,-20(s0)
 1618 00e0 ED07     		addi	a5,a5,27
 1619 00e2 9207     		slli	a5,a5,4
 1620 00e4 BA97     		add	a5,a4,a5
 1621 00e6 9C47     		lw	a5,8(a5)
 1622              		.loc 1 574 22
 1623 00e8 13F7F70F 		andi	a4,a5,0xff
 1624 00ec 832744FE 		lw	a5,-28(s0)
 1625 00f0 B8B7     		sb	a4,11(a5)
 575:Drivers/src/ch32v20x_can.c ****   RxMessage->Data[1] = (uint8_t)0xFF & (CANx->sFIFOMailBox[FIFONumber].RXMDLR >> 8);
 1626              		.loc 1 575 71
 1627 00f2 8347B4FE 		lbu	a5,-21(s0)
 1628 00f6 0327C4FE 		lw	a4,-20(s0)
 1629 00fa ED07     		addi	a5,a5,27
 1630 00fc 9207     		slli	a5,a5,4
 1631 00fe BA97     		add	a5,a4,a5
 1632 0100 9C47     		lw	a5,8(a5)
 1633              		.loc 1 575 79
 1634 0102 A183     		srli	a5,a5,8
 1635              		.loc 1 575 22
 1636 0104 13F7F70F 		andi	a4,a5,0xff
 1637 0108 832744FE 		lw	a5,-28(s0)
 1638 010c D8A7     		sb	a4,12(a5)
 576:Drivers/src/ch32v20x_can.c ****   RxMessage->Data[2] = (uint8_t)0xFF & (CANx->sFIFOMailBox[FIFONumber].RXMDLR >> 16);
 1639              		.loc 1 576 71
 1640 010e 8347B4FE 		lbu	a5,-21(s0)
 1641 0112 0327C4FE 		lw	a4,-20(s0)
 1642 0116 ED07     		addi	a5,a5,27
 1643 0118 9207     		slli	a5,a5,4
 1644 011a BA97     		add	a5,a4,a5
 1645 011c 9C47     		lw	a5,8(a5)
 1646              		.loc 1 576 79
 1647 011e C183     		srli	a5,a5,16
 1648              		.loc 1 576 22
 1649 0120 13F7F70F 		andi	a4,a5,0xff
 1650 0124 832744FE 		lw	a5,-28(s0)
 1651 0128 D8B7     		sb	a4,13(a5)
 577:Drivers/src/ch32v20x_can.c ****   RxMessage->Data[3] = (uint8_t)0xFF & (CANx->sFIFOMailBox[FIFONumber].RXMDLR >> 24);
GAS LISTING C:\Users\SOLDER~1\AppData\Local\Temp\ccYCTqm0.s 			page 41


 1652              		.loc 1 577 71
 1653 012a 8347B4FE 		lbu	a5,-21(s0)
 1654 012e 0327C4FE 		lw	a4,-20(s0)
 1655 0132 ED07     		addi	a5,a5,27
 1656 0134 9207     		slli	a5,a5,4
 1657 0136 BA97     		add	a5,a4,a5
 1658 0138 9C47     		lw	a5,8(a5)
 1659              		.loc 1 577 79
 1660 013a E183     		srli	a5,a5,24
 1661              		.loc 1 577 22
 1662 013c 13F7F70F 		andi	a4,a5,0xff
 1663 0140 832744FE 		lw	a5,-28(s0)
 1664 0144 F8A7     		sb	a4,14(a5)
 578:Drivers/src/ch32v20x_can.c ****   RxMessage->Data[4] = (uint8_t)0xFF & CANx->sFIFOMailBox[FIFONumber].RXMDHR;
 1665              		.loc 1 578 70
 1666 0146 8347B4FE 		lbu	a5,-21(s0)
 1667 014a 0327C4FE 		lw	a4,-20(s0)
 1668 014e ED07     		addi	a5,a5,27
 1669 0150 9207     		slli	a5,a5,4
 1670 0152 BA97     		add	a5,a4,a5
 1671 0154 DC47     		lw	a5,12(a5)
 1672              		.loc 1 578 22
 1673 0156 13F7F70F 		andi	a4,a5,0xff
 1674 015a 832744FE 		lw	a5,-28(s0)
 1675 015e F8B7     		sb	a4,15(a5)
 579:Drivers/src/ch32v20x_can.c ****   RxMessage->Data[5] = (uint8_t)0xFF & (CANx->sFIFOMailBox[FIFONumber].RXMDHR >> 8);
 1676              		.loc 1 579 71
 1677 0160 8347B4FE 		lbu	a5,-21(s0)
 1678 0164 0327C4FE 		lw	a4,-20(s0)
 1679 0168 ED07     		addi	a5,a5,27
 1680 016a 9207     		slli	a5,a5,4
 1681 016c BA97     		add	a5,a4,a5
 1682 016e DC47     		lw	a5,12(a5)
 1683              		.loc 1 579 79
 1684 0170 A183     		srli	a5,a5,8
 1685              		.loc 1 579 22
 1686 0172 13F7F70F 		andi	a4,a5,0xff
 1687 0176 832744FE 		lw	a5,-28(s0)
 1688 017a 98AB     		sb	a4,16(a5)
 580:Drivers/src/ch32v20x_can.c ****   RxMessage->Data[6] = (uint8_t)0xFF & (CANx->sFIFOMailBox[FIFONumber].RXMDHR >> 16);
 1689              		.loc 1 580 71
 1690 017c 8347B4FE 		lbu	a5,-21(s0)
 1691 0180 0327C4FE 		lw	a4,-20(s0)
 1692 0184 ED07     		addi	a5,a5,27
 1693 0186 9207     		slli	a5,a5,4
 1694 0188 BA97     		add	a5,a4,a5
 1695 018a DC47     		lw	a5,12(a5)
 1696              		.loc 1 580 79
 1697 018c C183     		srli	a5,a5,16
 1698              		.loc 1 580 22
 1699 018e 13F7F70F 		andi	a4,a5,0xff
 1700 0192 832744FE 		lw	a5,-28(s0)
 1701 0196 98BB     		sb	a4,17(a5)
 581:Drivers/src/ch32v20x_can.c ****   RxMessage->Data[7] = (uint8_t)0xFF & (CANx->sFIFOMailBox[FIFONumber].RXMDHR >> 24);
 1702              		.loc 1 581 71
 1703 0198 8347B4FE 		lbu	a5,-21(s0)
 1704 019c 0327C4FE 		lw	a4,-20(s0)
GAS LISTING C:\Users\SOLDER~1\AppData\Local\Temp\ccYCTqm0.s 			page 42


 1705 01a0 ED07     		addi	a5,a5,27
 1706 01a2 9207     		slli	a5,a5,4
 1707 01a4 BA97     		add	a5,a4,a5
 1708 01a6 DC47     		lw	a5,12(a5)
 1709              		.loc 1 581 79
 1710 01a8 E183     		srli	a5,a5,24
 1711              		.loc 1 581 22
 1712 01aa 13F7F70F 		andi	a4,a5,0xff
 1713 01ae 832744FE 		lw	a5,-28(s0)
 1714 01b2 B8AB     		sb	a4,18(a5)
 582:Drivers/src/ch32v20x_can.c **** 
 583:Drivers/src/ch32v20x_can.c ****   if (FIFONumber == CAN_FIFO0)
 1715              		.loc 1 583 6
 1716 01b4 8347B4FE 		lbu	a5,-21(s0)
 1717 01b8 91EB     		bne	a5,zero,.L84
 584:Drivers/src/ch32v20x_can.c ****   {
 585:Drivers/src/ch32v20x_can.c ****     CANx->RFIFO0 |= CAN_RFIFO0_RFOM0;
 1718              		.loc 1 585 9
 1719 01ba 8327C4FE 		lw	a5,-20(s0)
 1720 01be DC47     		lw	a5,12(a5)
 1721              		.loc 1 585 18
 1722 01c0 13E70702 		ori	a4,a5,32
 1723 01c4 8327C4FE 		lw	a5,-20(s0)
 1724 01c8 D8C7     		sw	a4,12(a5)
 586:Drivers/src/ch32v20x_can.c ****   }
 587:Drivers/src/ch32v20x_can.c ****   else 
 588:Drivers/src/ch32v20x_can.c ****   {
 589:Drivers/src/ch32v20x_can.c ****     CANx->RFIFO1 |= CAN_RFIFO1_RFOM1;
 590:Drivers/src/ch32v20x_can.c ****   }
 591:Drivers/src/ch32v20x_can.c **** }
 1725              		.loc 1 591 1
 1726 01ca 09A8     		j	.L86
 1727              	.L84:
 589:Drivers/src/ch32v20x_can.c ****   }
 1728              		.loc 1 589 9
 1729 01cc 8327C4FE 		lw	a5,-20(s0)
 1730 01d0 9C4B     		lw	a5,16(a5)
 589:Drivers/src/ch32v20x_can.c ****   }
 1731              		.loc 1 589 18
 1732 01d2 13E70702 		ori	a4,a5,32
 1733 01d6 8327C4FE 		lw	a5,-20(s0)
 1734 01da 98CB     		sw	a4,16(a5)
 1735              	.L86:
 1736              		.loc 1 591 1
 1737 01dc 0100     		nop
 1738 01de 7244     		lw	s0,28(sp)
 1739              		.cfi_restore 8
 1740              		.cfi_def_cfa 2, 32
 1741 01e0 0561     		addi	sp,sp,32
 1742              		.cfi_def_cfa_offset 0
 1743 01e2 8280     		jr	ra
 1744              		.cfi_endproc
 1745              	.LFE26:
 1747              		.section	.text.CAN_FIFORelease,"ax",@progbits
 1748              		.align	1
 1749              		.globl	CAN_FIFORelease
 1751              	CAN_FIFORelease:
GAS LISTING C:\Users\SOLDER~1\AppData\Local\Temp\ccYCTqm0.s 			page 43


 1752              	.LFB27:
 592:Drivers/src/ch32v20x_can.c **** 
 593:Drivers/src/ch32v20x_can.c **** /*********************************************************************
 594:Drivers/src/ch32v20x_can.c ****  * @fn      CAN_FIFORelease
 595:Drivers/src/ch32v20x_can.c ****  *
 596:Drivers/src/ch32v20x_can.c ****  * @brief   Releases the specified FIFO.
 597:Drivers/src/ch32v20x_can.c ****  *
 598:Drivers/src/ch32v20x_can.c ****  * @param   CANx - where x can be 1 to select the CAN peripheral.
 599:Drivers/src/ch32v20x_can.c ****  *          FIFONumber - Receive FIFO number.
 600:Drivers/src/ch32v20x_can.c ****  *            CAN_FIFO0.
 601:Drivers/src/ch32v20x_can.c ****  *            CAN_FIFO1.
 602:Drivers/src/ch32v20x_can.c ****  *
 603:Drivers/src/ch32v20x_can.c ****  * @return  none
 604:Drivers/src/ch32v20x_can.c ****  */
 605:Drivers/src/ch32v20x_can.c **** void CAN_FIFORelease(CAN_TypeDef* CANx, uint8_t FIFONumber)
 606:Drivers/src/ch32v20x_can.c **** {
 1753              		.loc 1 606 1
 1754              		.cfi_startproc
 1755 0000 0111     		addi	sp,sp,-32
 1756              		.cfi_def_cfa_offset 32
 1757 0002 22CE     		sw	s0,28(sp)
 1758              		.cfi_offset 8, -4
 1759 0004 0010     		addi	s0,sp,32
 1760              		.cfi_def_cfa 8, 0
 1761 0006 2326A4FE 		sw	a0,-20(s0)
 1762 000a AE87     		mv	a5,a1
 1763 000c A305F4FE 		sb	a5,-21(s0)
 607:Drivers/src/ch32v20x_can.c ****   if (FIFONumber == CAN_FIFO0)
 1764              		.loc 1 607 6
 1765 0010 8347B4FE 		lbu	a5,-21(s0)
 1766 0014 91EB     		bne	a5,zero,.L88
 608:Drivers/src/ch32v20x_can.c ****   {
 609:Drivers/src/ch32v20x_can.c ****     CANx->RFIFO0 |= CAN_RFIFO0_RFOM0;
 1767              		.loc 1 609 9
 1768 0016 8327C4FE 		lw	a5,-20(s0)
 1769 001a DC47     		lw	a5,12(a5)
 1770              		.loc 1 609 18
 1771 001c 13E70702 		ori	a4,a5,32
 1772 0020 8327C4FE 		lw	a5,-20(s0)
 1773 0024 D8C7     		sw	a4,12(a5)
 610:Drivers/src/ch32v20x_can.c ****   }
 611:Drivers/src/ch32v20x_can.c ****   else 
 612:Drivers/src/ch32v20x_can.c ****   {
 613:Drivers/src/ch32v20x_can.c ****     CANx->RFIFO1 |= CAN_RFIFO1_RFOM1;
 614:Drivers/src/ch32v20x_can.c ****   }
 615:Drivers/src/ch32v20x_can.c **** }
 1774              		.loc 1 615 1
 1775 0026 09A8     		j	.L90
 1776              	.L88:
 613:Drivers/src/ch32v20x_can.c ****   }
 1777              		.loc 1 613 9
 1778 0028 8327C4FE 		lw	a5,-20(s0)
 1779 002c 9C4B     		lw	a5,16(a5)
 613:Drivers/src/ch32v20x_can.c ****   }
 1780              		.loc 1 613 18
 1781 002e 13E70702 		ori	a4,a5,32
 1782 0032 8327C4FE 		lw	a5,-20(s0)
GAS LISTING C:\Users\SOLDER~1\AppData\Local\Temp\ccYCTqm0.s 			page 44


 1783 0036 98CB     		sw	a4,16(a5)
 1784              	.L90:
 1785              		.loc 1 615 1
 1786 0038 0100     		nop
 1787 003a 7244     		lw	s0,28(sp)
 1788              		.cfi_restore 8
 1789              		.cfi_def_cfa 2, 32
 1790 003c 0561     		addi	sp,sp,32
 1791              		.cfi_def_cfa_offset 0
 1792 003e 8280     		jr	ra
 1793              		.cfi_endproc
 1794              	.LFE27:
 1796              		.section	.text.CAN_MessagePending,"ax",@progbits
 1797              		.align	1
 1798              		.globl	CAN_MessagePending
 1800              	CAN_MessagePending:
 1801              	.LFB28:
 616:Drivers/src/ch32v20x_can.c **** 
 617:Drivers/src/ch32v20x_can.c **** /*********************************************************************
 618:Drivers/src/ch32v20x_can.c ****  * @fn      CAN_MessagePending
 619:Drivers/src/ch32v20x_can.c ****  *
 620:Drivers/src/ch32v20x_can.c ****  * @brief   Returns the number of pending messages.
 621:Drivers/src/ch32v20x_can.c ****  *
 622:Drivers/src/ch32v20x_can.c ****  * @param   CANx - where x can be 1 to select the CAN peripheral.
 623:Drivers/src/ch32v20x_can.c ****  *          FIFONumber - Receive FIFO number.
 624:Drivers/src/ch32v20x_can.c ****  *            CAN_FIFO0.
 625:Drivers/src/ch32v20x_can.c ****  *            CAN_FIFO1.
 626:Drivers/src/ch32v20x_can.c ****  *
 627:Drivers/src/ch32v20x_can.c ****  * @return  message_pending: which is the number of pending message.
 628:Drivers/src/ch32v20x_can.c ****  */
 629:Drivers/src/ch32v20x_can.c **** uint8_t CAN_MessagePending(CAN_TypeDef* CANx, uint8_t FIFONumber)
 630:Drivers/src/ch32v20x_can.c **** {
 1802              		.loc 1 630 1
 1803              		.cfi_startproc
 1804 0000 7971     		addi	sp,sp,-48
 1805              		.cfi_def_cfa_offset 48
 1806 0002 22D6     		sw	s0,44(sp)
 1807              		.cfi_offset 8, -4
 1808 0004 0018     		addi	s0,sp,48
 1809              		.cfi_def_cfa 8, 0
 1810 0006 232EA4FC 		sw	a0,-36(s0)
 1811 000a AE87     		mv	a5,a1
 1812 000c A30DF4FC 		sb	a5,-37(s0)
 631:Drivers/src/ch32v20x_can.c ****   uint8_t message_pending=0;
 1813              		.loc 1 631 11
 1814 0010 A30704FE 		sb	zero,-17(s0)
 632:Drivers/src/ch32v20x_can.c **** 
 633:Drivers/src/ch32v20x_can.c ****   if (FIFONumber == CAN_FIFO0)
 1815              		.loc 1 633 6
 1816 0014 8347B4FD 		lbu	a5,-37(s0)
 1817 0018 91EB     		bne	a5,zero,.L92
 634:Drivers/src/ch32v20x_can.c ****   {
 635:Drivers/src/ch32v20x_can.c ****     message_pending = (uint8_t)(CANx->RFIFO0&(uint32_t)0x03);
 1818              		.loc 1 635 37
 1819 001a 8327C4FD 		lw	a5,-36(s0)
 1820 001e DC47     		lw	a5,12(a5)
 1821              		.loc 1 635 23
GAS LISTING C:\Users\SOLDER~1\AppData\Local\Temp\ccYCTqm0.s 			page 45


 1822 0020 93F7F70F 		andi	a5,a5,0xff
 1823              		.loc 1 635 21
 1824 0024 8D8B     		andi	a5,a5,3
 1825 0026 A307F4FE 		sb	a5,-17(s0)
 1826 002a 0DA0     		j	.L93
 1827              	.L92:
 636:Drivers/src/ch32v20x_can.c ****   }
 637:Drivers/src/ch32v20x_can.c ****   else if (FIFONumber == CAN_FIFO1)
 1828              		.loc 1 637 11
 1829 002c 0347B4FD 		lbu	a4,-37(s0)
 1830 0030 8547     		li	a5,1
 1831 0032 631BF700 		bne	a4,a5,.L94
 638:Drivers/src/ch32v20x_can.c ****   {
 639:Drivers/src/ch32v20x_can.c ****     message_pending = (uint8_t)(CANx->RFIFO1&(uint32_t)0x03);
 1832              		.loc 1 639 37
 1833 0036 8327C4FD 		lw	a5,-36(s0)
 1834 003a 9C4B     		lw	a5,16(a5)
 1835              		.loc 1 639 23
 1836 003c 93F7F70F 		andi	a5,a5,0xff
 1837              		.loc 1 639 21
 1838 0040 8D8B     		andi	a5,a5,3
 1839 0042 A307F4FE 		sb	a5,-17(s0)
 1840 0046 19A0     		j	.L93
 1841              	.L94:
 640:Drivers/src/ch32v20x_can.c ****   }
 641:Drivers/src/ch32v20x_can.c ****   else
 642:Drivers/src/ch32v20x_can.c ****   {
 643:Drivers/src/ch32v20x_can.c ****     message_pending = 0;
 1842              		.loc 1 643 21
 1843 0048 A30704FE 		sb	zero,-17(s0)
 1844              	.L93:
 644:Drivers/src/ch32v20x_can.c ****   }
 645:Drivers/src/ch32v20x_can.c **** 	
 646:Drivers/src/ch32v20x_can.c ****   return message_pending;
 1845              		.loc 1 646 10
 1846 004c 8347F4FE 		lbu	a5,-17(s0)
 647:Drivers/src/ch32v20x_can.c **** }
 1847              		.loc 1 647 1
 1848 0050 3E85     		mv	a0,a5
 1849 0052 3254     		lw	s0,44(sp)
 1850              		.cfi_restore 8
 1851              		.cfi_def_cfa 2, 48
 1852 0054 4561     		addi	sp,sp,48
 1853              		.cfi_def_cfa_offset 0
 1854 0056 8280     		jr	ra
 1855              		.cfi_endproc
 1856              	.LFE28:
 1858              		.section	.text.CAN_OperatingModeRequest,"ax",@progbits
 1859              		.align	1
 1860              		.globl	CAN_OperatingModeRequest
 1862              	CAN_OperatingModeRequest:
 1863              	.LFB29:
 648:Drivers/src/ch32v20x_can.c **** 
 649:Drivers/src/ch32v20x_can.c **** /*********************************************************************
 650:Drivers/src/ch32v20x_can.c ****  * @fn      CAN_OperatingModeRequest
 651:Drivers/src/ch32v20x_can.c ****  *
 652:Drivers/src/ch32v20x_can.c ****  * @brief   Select the CAN Operation mode.
GAS LISTING C:\Users\SOLDER~1\AppData\Local\Temp\ccYCTqm0.s 			page 46


 653:Drivers/src/ch32v20x_can.c ****  *
 654:Drivers/src/ch32v20x_can.c ****  * @param   CANx - where x can be 1 to select the CAN peripheral.
 655:Drivers/src/ch32v20x_can.c ****  *          CAN_OperatingMode - CAN Operating Mode.
 656:Drivers/src/ch32v20x_can.c ****  *            CAN_OperatingMode_Initialization.
 657:Drivers/src/ch32v20x_can.c ****  *            CAN_OperatingMode_Normal.
 658:Drivers/src/ch32v20x_can.c ****  *            CAN_OperatingMode_Sleep.
 659:Drivers/src/ch32v20x_can.c ****  *
 660:Drivers/src/ch32v20x_can.c ****  * @return  status -
 661:Drivers/src/ch32v20x_can.c ****  *          CAN_ModeStatus_Failed - CAN failed entering the specific mode.
 662:Drivers/src/ch32v20x_can.c ****  *          CAN_ModeStatus_Success - CAN Succeed entering the specific mode.
 663:Drivers/src/ch32v20x_can.c ****  */
 664:Drivers/src/ch32v20x_can.c **** uint8_t CAN_OperatingModeRequest(CAN_TypeDef* CANx, uint8_t CAN_OperatingMode)
 665:Drivers/src/ch32v20x_can.c **** {
 1864              		.loc 1 665 1
 1865              		.cfi_startproc
 1866 0000 7971     		addi	sp,sp,-48
 1867              		.cfi_def_cfa_offset 48
 1868 0002 22D6     		sw	s0,44(sp)
 1869              		.cfi_offset 8, -4
 1870 0004 0018     		addi	s0,sp,48
 1871              		.cfi_def_cfa 8, 0
 1872 0006 232EA4FC 		sw	a0,-36(s0)
 1873 000a AE87     		mv	a5,a1
 1874 000c A30DF4FC 		sb	a5,-37(s0)
 666:Drivers/src/ch32v20x_can.c ****   uint8_t status = CAN_ModeStatus_Failed;
 1875              		.loc 1 666 11
 1876 0010 A30704FE 		sb	zero,-17(s0)
 667:Drivers/src/ch32v20x_can.c ****   uint32_t timeout = INAK_TIMEOUT; 
 1877              		.loc 1 667 12
 1878 0014 C167     		li	a5,65536
 1879 0016 FD17     		addi	a5,a5,-1
 1880 0018 2324F4FE 		sw	a5,-24(s0)
 668:Drivers/src/ch32v20x_can.c **** 
 669:Drivers/src/ch32v20x_can.c ****   if (CAN_OperatingMode == CAN_OperatingMode_Initialization)
 1881              		.loc 1 669 6
 1882 001c 8347B4FD 		lbu	a5,-37(s0)
 1883 0020 B1EB     		bne	a5,zero,.L97
 670:Drivers/src/ch32v20x_can.c ****   {
 671:Drivers/src/ch32v20x_can.c ****     CANx->CTLR = (uint32_t)((CANx->CTLR & (uint32_t)(~(uint32_t)CAN_CTLR_SLEEP)) | CAN_CTLR_INRQ);
 1884              		.loc 1 671 34
 1885 0022 8327C4FD 		lw	a5,-36(s0)
 1886 0026 9C43     		lw	a5,0(a5)
 1887              		.loc 1 671 18
 1888 0028 F19B     		andi	a5,a5,-4
 1889 002a 13E71700 		ori	a4,a5,1
 1890              		.loc 1 671 16
 1891 002e 8327C4FD 		lw	a5,-36(s0)
 1892 0032 98C3     		sw	a4,0(a5)
 672:Drivers/src/ch32v20x_can.c **** 
 673:Drivers/src/ch32v20x_can.c ****     while (((CANx->STATR & CAN_MODE_MASK) != CAN_STATR_INAK) && (timeout != 0))
 1893              		.loc 1 673 11
 1894 0034 31A0     		j	.L98
 1895              	.L100:
 674:Drivers/src/ch32v20x_can.c ****     {
 675:Drivers/src/ch32v20x_can.c ****       timeout--;
 1896              		.loc 1 675 14
 1897 0036 832784FE 		lw	a5,-24(s0)
GAS LISTING C:\Users\SOLDER~1\AppData\Local\Temp\ccYCTqm0.s 			page 47


 1898 003a FD17     		addi	a5,a5,-1
 1899 003c 2324F4FE 		sw	a5,-24(s0)
 1900              	.L98:
 673:Drivers/src/ch32v20x_can.c ****     {
 1901              		.loc 1 673 18
 1902 0040 8327C4FD 		lw	a5,-36(s0)
 1903 0044 DC43     		lw	a5,4(a5)
 673:Drivers/src/ch32v20x_can.c ****     {
 1904              		.loc 1 673 26
 1905 0046 13F73700 		andi	a4,a5,3
 673:Drivers/src/ch32v20x_can.c ****     {
 1906              		.loc 1 673 62
 1907 004a 8547     		li	a5,1
 1908 004c 6305F700 		beq	a4,a5,.L99
 673:Drivers/src/ch32v20x_can.c ****     {
 1909              		.loc 1 673 62 is_stmt 0 discriminator 1
 1910 0050 832784FE 		lw	a5,-24(s0)
 1911 0054 EDF3     		bne	a5,zero,.L100
 1912              	.L99:
 676:Drivers/src/ch32v20x_can.c ****     }
 677:Drivers/src/ch32v20x_can.c ****     if ((CANx->STATR & CAN_MODE_MASK) != CAN_STATR_INAK)
 1913              		.loc 1 677 14 is_stmt 1
 1914 0056 8327C4FD 		lw	a5,-36(s0)
 1915 005a DC43     		lw	a5,4(a5)
 1916              		.loc 1 677 22
 1917 005c 13F73700 		andi	a4,a5,3
 1918              		.loc 1 677 8
 1919 0060 8547     		li	a5,1
 1920 0062 6305F700 		beq	a4,a5,.L101
 678:Drivers/src/ch32v20x_can.c ****     {
 679:Drivers/src/ch32v20x_can.c ****       status = CAN_ModeStatus_Failed;
 1921              		.loc 1 679 14
 1922 0066 A30704FE 		sb	zero,-17(s0)
 1923 006a 65A8     		j	.L102
 1924              	.L101:
 680:Drivers/src/ch32v20x_can.c ****     }
 681:Drivers/src/ch32v20x_can.c ****     else
 682:Drivers/src/ch32v20x_can.c ****     {
 683:Drivers/src/ch32v20x_can.c ****       status = CAN_ModeStatus_Success;
 1925              		.loc 1 683 14
 1926 006c 8547     		li	a5,1
 1927 006e A307F4FE 		sb	a5,-17(s0)
 1928 0072 45A8     		j	.L102
 1929              	.L97:
 684:Drivers/src/ch32v20x_can.c ****     }
 685:Drivers/src/ch32v20x_can.c ****   }
 686:Drivers/src/ch32v20x_can.c ****   else if (CAN_OperatingMode == CAN_OperatingMode_Normal)
 1930              		.loc 1 686 11
 1931 0074 0347B4FD 		lbu	a4,-37(s0)
 1932 0078 8547     		li	a5,1
 1933 007a 6314F704 		bne	a4,a5,.L103
 687:Drivers/src/ch32v20x_can.c ****   {
 688:Drivers/src/ch32v20x_can.c ****     CANx->CTLR &= (uint32_t)(~(CAN_CTLR_SLEEP|CAN_CTLR_INRQ));
 1934              		.loc 1 688 9
 1935 007e 8327C4FD 		lw	a5,-36(s0)
 1936 0082 9C43     		lw	a5,0(a5)
 1937              		.loc 1 688 16
GAS LISTING C:\Users\SOLDER~1\AppData\Local\Temp\ccYCTqm0.s 			page 48


 1938 0084 13F7C7FF 		andi	a4,a5,-4
 1939 0088 8327C4FD 		lw	a5,-36(s0)
 1940 008c 98C3     		sw	a4,0(a5)
 689:Drivers/src/ch32v20x_can.c **** 
 690:Drivers/src/ch32v20x_can.c ****     while (((CANx->STATR & CAN_MODE_MASK) != 0) && (timeout!=0))
 1941              		.loc 1 690 11
 1942 008e 31A0     		j	.L104
 1943              	.L106:
 691:Drivers/src/ch32v20x_can.c ****     {
 692:Drivers/src/ch32v20x_can.c ****       timeout--;
 1944              		.loc 1 692 14
 1945 0090 832784FE 		lw	a5,-24(s0)
 1946 0094 FD17     		addi	a5,a5,-1
 1947 0096 2324F4FE 		sw	a5,-24(s0)
 1948              	.L104:
 690:Drivers/src/ch32v20x_can.c ****     {
 1949              		.loc 1 690 18
 1950 009a 8327C4FD 		lw	a5,-36(s0)
 1951 009e DC43     		lw	a5,4(a5)
 690:Drivers/src/ch32v20x_can.c ****     {
 1952              		.loc 1 690 26
 1953 00a0 8D8B     		andi	a5,a5,3
 690:Drivers/src/ch32v20x_can.c ****     {
 1954              		.loc 1 690 49
 1955 00a2 81C7     		beq	a5,zero,.L105
 690:Drivers/src/ch32v20x_can.c ****     {
 1956              		.loc 1 690 49 is_stmt 0 discriminator 1
 1957 00a4 832784FE 		lw	a5,-24(s0)
 1958 00a8 E5F7     		bne	a5,zero,.L106
 1959              	.L105:
 693:Drivers/src/ch32v20x_can.c ****     }
 694:Drivers/src/ch32v20x_can.c ****     if ((CANx->STATR & CAN_MODE_MASK) != 0)
 1960              		.loc 1 694 14 is_stmt 1
 1961 00aa 8327C4FD 		lw	a5,-36(s0)
 1962 00ae DC43     		lw	a5,4(a5)
 1963              		.loc 1 694 22
 1964 00b0 8D8B     		andi	a5,a5,3
 1965              		.loc 1 694 8
 1966 00b2 81C7     		beq	a5,zero,.L107
 695:Drivers/src/ch32v20x_can.c ****     {
 696:Drivers/src/ch32v20x_can.c ****       status = CAN_ModeStatus_Failed;
 1967              		.loc 1 696 14
 1968 00b4 A30704FE 		sb	zero,-17(s0)
 1969 00b8 ADA0     		j	.L102
 1970              	.L107:
 697:Drivers/src/ch32v20x_can.c ****     }
 698:Drivers/src/ch32v20x_can.c ****     else
 699:Drivers/src/ch32v20x_can.c ****     {
 700:Drivers/src/ch32v20x_can.c ****       status = CAN_ModeStatus_Success;
 1971              		.loc 1 700 14
 1972 00ba 8547     		li	a5,1
 1973 00bc A307F4FE 		sb	a5,-17(s0)
 1974 00c0 8DA0     		j	.L102
 1975              	.L103:
 701:Drivers/src/ch32v20x_can.c ****     }
 702:Drivers/src/ch32v20x_can.c ****   }
 703:Drivers/src/ch32v20x_can.c ****   else if (CAN_OperatingMode == CAN_OperatingMode_Sleep)
GAS LISTING C:\Users\SOLDER~1\AppData\Local\Temp\ccYCTqm0.s 			page 49


 1976              		.loc 1 703 11
 1977 00c2 0347B4FD 		lbu	a4,-37(s0)
 1978 00c6 8947     		li	a5,2
 1979 00c8 631BF704 		bne	a4,a5,.L108
 704:Drivers/src/ch32v20x_can.c ****   {
 705:Drivers/src/ch32v20x_can.c ****     CANx->CTLR = (uint32_t)((CANx->CTLR & (uint32_t)(~(uint32_t)CAN_CTLR_INRQ)) | CAN_CTLR_SLEEP);
 1980              		.loc 1 705 34
 1981 00cc 8327C4FD 		lw	a5,-36(s0)
 1982 00d0 9C43     		lw	a5,0(a5)
 1983              		.loc 1 705 18
 1984 00d2 F19B     		andi	a5,a5,-4
 1985 00d4 13E72700 		ori	a4,a5,2
 1986              		.loc 1 705 16
 1987 00d8 8327C4FD 		lw	a5,-36(s0)
 1988 00dc 98C3     		sw	a4,0(a5)
 706:Drivers/src/ch32v20x_can.c **** 
 707:Drivers/src/ch32v20x_can.c ****     while (((CANx->STATR & CAN_MODE_MASK) != CAN_STATR_SLAK) && (timeout!=0))
 1989              		.loc 1 707 11
 1990 00de 31A0     		j	.L109
 1991              	.L111:
 708:Drivers/src/ch32v20x_can.c ****     {
 709:Drivers/src/ch32v20x_can.c ****       timeout--;
 1992              		.loc 1 709 14
 1993 00e0 832784FE 		lw	a5,-24(s0)
 1994 00e4 FD17     		addi	a5,a5,-1
 1995 00e6 2324F4FE 		sw	a5,-24(s0)
 1996              	.L109:
 707:Drivers/src/ch32v20x_can.c ****     {
 1997              		.loc 1 707 18
 1998 00ea 8327C4FD 		lw	a5,-36(s0)
 1999 00ee DC43     		lw	a5,4(a5)
 707:Drivers/src/ch32v20x_can.c ****     {
 2000              		.loc 1 707 26
 2001 00f0 13F73700 		andi	a4,a5,3
 707:Drivers/src/ch32v20x_can.c ****     {
 2002              		.loc 1 707 62
 2003 00f4 8947     		li	a5,2
 2004 00f6 6305F700 		beq	a4,a5,.L110
 707:Drivers/src/ch32v20x_can.c ****     {
 2005              		.loc 1 707 62 is_stmt 0 discriminator 1
 2006 00fa 832784FE 		lw	a5,-24(s0)
 2007 00fe EDF3     		bne	a5,zero,.L111
 2008              	.L110:
 710:Drivers/src/ch32v20x_can.c ****     }
 711:Drivers/src/ch32v20x_can.c ****     if ((CANx->STATR & CAN_MODE_MASK) != CAN_STATR_SLAK)
 2009              		.loc 1 711 14 is_stmt 1
 2010 0100 8327C4FD 		lw	a5,-36(s0)
 2011 0104 DC43     		lw	a5,4(a5)
 2012              		.loc 1 711 22
 2013 0106 13F73700 		andi	a4,a5,3
 2014              		.loc 1 711 8
 2015 010a 8947     		li	a5,2
 2016 010c 6305F700 		beq	a4,a5,.L112
 712:Drivers/src/ch32v20x_can.c ****     {
 713:Drivers/src/ch32v20x_can.c ****       status = CAN_ModeStatus_Failed;
 2017              		.loc 1 713 14
 2018 0110 A30704FE 		sb	zero,-17(s0)
GAS LISTING C:\Users\SOLDER~1\AppData\Local\Temp\ccYCTqm0.s 			page 50


 2019 0114 39A0     		j	.L102
 2020              	.L112:
 714:Drivers/src/ch32v20x_can.c ****     }
 715:Drivers/src/ch32v20x_can.c ****     else
 716:Drivers/src/ch32v20x_can.c ****     {
 717:Drivers/src/ch32v20x_can.c ****       status = CAN_ModeStatus_Success;
 2021              		.loc 1 717 14
 2022 0116 8547     		li	a5,1
 2023 0118 A307F4FE 		sb	a5,-17(s0)
 2024 011c 19A0     		j	.L102
 2025              	.L108:
 718:Drivers/src/ch32v20x_can.c ****     }
 719:Drivers/src/ch32v20x_can.c ****   }
 720:Drivers/src/ch32v20x_can.c ****   else
 721:Drivers/src/ch32v20x_can.c ****   {
 722:Drivers/src/ch32v20x_can.c ****     status = CAN_ModeStatus_Failed;
 2026              		.loc 1 722 12
 2027 011e A30704FE 		sb	zero,-17(s0)
 2028              	.L102:
 723:Drivers/src/ch32v20x_can.c ****   }
 724:Drivers/src/ch32v20x_can.c **** 
 725:Drivers/src/ch32v20x_can.c ****   return  (uint8_t) status;
 2029              		.loc 1 725 11
 2030 0122 8347F4FE 		lbu	a5,-17(s0)
 726:Drivers/src/ch32v20x_can.c **** }
 2031              		.loc 1 726 1
 2032 0126 3E85     		mv	a0,a5
 2033 0128 3254     		lw	s0,44(sp)
 2034              		.cfi_restore 8
 2035              		.cfi_def_cfa 2, 48
 2036 012a 4561     		addi	sp,sp,48
 2037              		.cfi_def_cfa_offset 0
 2038 012c 8280     		jr	ra
 2039              		.cfi_endproc
 2040              	.LFE29:
 2042              		.section	.text.CAN_Sleep,"ax",@progbits
 2043              		.align	1
 2044              		.globl	CAN_Sleep
 2046              	CAN_Sleep:
 2047              	.LFB30:
 727:Drivers/src/ch32v20x_can.c **** 
 728:Drivers/src/ch32v20x_can.c **** /*********************************************************************
 729:Drivers/src/ch32v20x_can.c ****  * @fn      CAN_Sleep
 730:Drivers/src/ch32v20x_can.c ****  *
 731:Drivers/src/ch32v20x_can.c ****  * @brief   Enters the low power mode.
 732:Drivers/src/ch32v20x_can.c ****  *
 733:Drivers/src/ch32v20x_can.c ****  * @param   CANx - where x can be 1 to select the CAN peripheral.
 734:Drivers/src/ch32v20x_can.c ****  *
 735:Drivers/src/ch32v20x_can.c ****  * @return  sleepstatus -
 736:Drivers/src/ch32v20x_can.c ****  *            CAN_Sleep_Ok.
 737:Drivers/src/ch32v20x_can.c ****  *            CAN_Sleep_Failed.
 738:Drivers/src/ch32v20x_can.c ****  */
 739:Drivers/src/ch32v20x_can.c **** uint8_t CAN_Sleep(CAN_TypeDef* CANx)
 740:Drivers/src/ch32v20x_can.c **** {
 2048              		.loc 1 740 1
 2049              		.cfi_startproc
 2050 0000 7971     		addi	sp,sp,-48
GAS LISTING C:\Users\SOLDER~1\AppData\Local\Temp\ccYCTqm0.s 			page 51


 2051              		.cfi_def_cfa_offset 48
 2052 0002 22D6     		sw	s0,44(sp)
 2053              		.cfi_offset 8, -4
 2054 0004 0018     		addi	s0,sp,48
 2055              		.cfi_def_cfa 8, 0
 2056 0006 232EA4FC 		sw	a0,-36(s0)
 741:Drivers/src/ch32v20x_can.c ****   uint8_t sleepstatus = CAN_Sleep_Failed;
 2057              		.loc 1 741 11
 2058 000a A30704FE 		sb	zero,-17(s0)
 742:Drivers/src/ch32v20x_can.c **** 
 743:Drivers/src/ch32v20x_can.c ****   CANx->CTLR = (((CANx->CTLR) & (uint32_t)(~(uint32_t)CAN_CTLR_INRQ)) | CAN_CTLR_SLEEP);
 2059              		.loc 1 743 23
 2060 000e 8327C4FD 		lw	a5,-36(s0)
 2061 0012 9C43     		lw	a5,0(a5)
 2062              		.loc 1 743 71
 2063 0014 F19B     		andi	a5,a5,-4
 2064 0016 13E72700 		ori	a4,a5,2
 2065              		.loc 1 743 14
 2066 001a 8327C4FD 		lw	a5,-36(s0)
 2067 001e 98C3     		sw	a4,0(a5)
 744:Drivers/src/ch32v20x_can.c ****    
 745:Drivers/src/ch32v20x_can.c ****   if ((CANx->STATR & (CAN_STATR_SLAK|CAN_STATR_INAK)) == CAN_STATR_SLAK)
 2068              		.loc 1 745 12
 2069 0020 8327C4FD 		lw	a5,-36(s0)
 2070 0024 DC43     		lw	a5,4(a5)
 2071              		.loc 1 745 20
 2072 0026 13F73700 		andi	a4,a5,3
 2073              		.loc 1 745 6
 2074 002a 8947     		li	a5,2
 2075 002c 6315F700 		bne	a4,a5,.L115
 746:Drivers/src/ch32v20x_can.c ****   {
 747:Drivers/src/ch32v20x_can.c ****     sleepstatus =  CAN_Sleep_Ok;
 2076              		.loc 1 747 17
 2077 0030 8547     		li	a5,1
 2078 0032 A307F4FE 		sb	a5,-17(s0)
 2079              	.L115:
 748:Drivers/src/ch32v20x_can.c ****   }
 749:Drivers/src/ch32v20x_can.c **** 	
 750:Drivers/src/ch32v20x_can.c ****   return (uint8_t)sleepstatus;
 2080              		.loc 1 750 10
 2081 0036 8347F4FE 		lbu	a5,-17(s0)
 751:Drivers/src/ch32v20x_can.c **** }
 2082              		.loc 1 751 1
 2083 003a 3E85     		mv	a0,a5
 2084 003c 3254     		lw	s0,44(sp)
 2085              		.cfi_restore 8
 2086              		.cfi_def_cfa 2, 48
 2087 003e 4561     		addi	sp,sp,48
 2088              		.cfi_def_cfa_offset 0
 2089 0040 8280     		jr	ra
 2090              		.cfi_endproc
 2091              	.LFE30:
 2093              		.section	.text.CAN_WakeUp,"ax",@progbits
 2094              		.align	1
 2095              		.globl	CAN_WakeUp
 2097              	CAN_WakeUp:
 2098              	.LFB31:
GAS LISTING C:\Users\SOLDER~1\AppData\Local\Temp\ccYCTqm0.s 			page 52


 752:Drivers/src/ch32v20x_can.c **** 
 753:Drivers/src/ch32v20x_can.c **** /*********************************************************************
 754:Drivers/src/ch32v20x_can.c ****  * @fn      CAN_WakeUp
 755:Drivers/src/ch32v20x_can.c ****  *
 756:Drivers/src/ch32v20x_can.c ****  * @brief   Wakes the CAN up.
 757:Drivers/src/ch32v20x_can.c ****  *
 758:Drivers/src/ch32v20x_can.c ****  * @param   CANx - where x can be 1 to select the CAN peripheral.
 759:Drivers/src/ch32v20x_can.c ****  *
 760:Drivers/src/ch32v20x_can.c ****  * @return  wakeupstatus -
 761:Drivers/src/ch32v20x_can.c ****  *            CAN_WakeUp_Ok.
 762:Drivers/src/ch32v20x_can.c ****  *            CAN_WakeUp_Failed.
 763:Drivers/src/ch32v20x_can.c ****  */
 764:Drivers/src/ch32v20x_can.c **** uint8_t CAN_WakeUp(CAN_TypeDef* CANx)
 765:Drivers/src/ch32v20x_can.c **** {
 2099              		.loc 1 765 1
 2100              		.cfi_startproc
 2101 0000 7971     		addi	sp,sp,-48
 2102              		.cfi_def_cfa_offset 48
 2103 0002 22D6     		sw	s0,44(sp)
 2104              		.cfi_offset 8, -4
 2105 0004 0018     		addi	s0,sp,48
 2106              		.cfi_def_cfa 8, 0
 2107 0006 232EA4FC 		sw	a0,-36(s0)
 766:Drivers/src/ch32v20x_can.c ****   uint32_t wait_slak = SLAK_TIMEOUT;
 2108              		.loc 1 766 12
 2109 000a C167     		li	a5,65536
 2110 000c FD17     		addi	a5,a5,-1
 2111 000e 2326F4FE 		sw	a5,-20(s0)
 767:Drivers/src/ch32v20x_can.c ****   uint8_t wakeupstatus = CAN_WakeUp_Failed;
 2112              		.loc 1 767 11
 2113 0012 A30504FE 		sb	zero,-21(s0)
 768:Drivers/src/ch32v20x_can.c ****     
 769:Drivers/src/ch32v20x_can.c ****   CANx->CTLR &= ~(uint32_t)CAN_CTLR_SLEEP;
 2114              		.loc 1 769 7
 2115 0016 8327C4FD 		lw	a5,-36(s0)
 2116 001a 9C43     		lw	a5,0(a5)
 2117              		.loc 1 769 14
 2118 001c 13F7D7FF 		andi	a4,a5,-3
 2119 0020 8327C4FD 		lw	a5,-36(s0)
 2120 0024 98C3     		sw	a4,0(a5)
 770:Drivers/src/ch32v20x_can.c ****     
 771:Drivers/src/ch32v20x_can.c ****   while(((CANx->STATR & CAN_STATR_SLAK) == CAN_STATR_SLAK)&&(wait_slak!=0x00))
 2121              		.loc 1 771 8
 2122 0026 31A0     		j	.L118
 2123              	.L120:
 772:Drivers/src/ch32v20x_can.c ****   {
 773:Drivers/src/ch32v20x_can.c ****    wait_slak--;
 2124              		.loc 1 773 13
 2125 0028 8327C4FE 		lw	a5,-20(s0)
 2126 002c FD17     		addi	a5,a5,-1
 2127 002e 2326F4FE 		sw	a5,-20(s0)
 2128              	.L118:
 771:Drivers/src/ch32v20x_can.c ****   {
 2129              		.loc 1 771 15
 2130 0032 8327C4FD 		lw	a5,-36(s0)
 2131 0036 DC43     		lw	a5,4(a5)
 771:Drivers/src/ch32v20x_can.c ****   {
GAS LISTING C:\Users\SOLDER~1\AppData\Local\Temp\ccYCTqm0.s 			page 53


 2132              		.loc 1 771 23
 2133 0038 13F72700 		andi	a4,a5,2
 771:Drivers/src/ch32v20x_can.c ****   {
 2134              		.loc 1 771 59
 2135 003c 8947     		li	a5,2
 2136 003e 6315F700 		bne	a4,a5,.L119
 771:Drivers/src/ch32v20x_can.c ****   {
 2137              		.loc 1 771 59 is_stmt 0 discriminator 1
 2138 0042 8327C4FE 		lw	a5,-20(s0)
 2139 0046 EDF3     		bne	a5,zero,.L120
 2140              	.L119:
 774:Drivers/src/ch32v20x_can.c ****   }
 775:Drivers/src/ch32v20x_can.c ****   if((CANx->STATR & CAN_STATR_SLAK) != CAN_STATR_SLAK)
 2141              		.loc 1 775 11 is_stmt 1
 2142 0048 8327C4FD 		lw	a5,-36(s0)
 2143 004c DC43     		lw	a5,4(a5)
 2144              		.loc 1 775 19
 2145 004e 13F72700 		andi	a4,a5,2
 2146              		.loc 1 775 5
 2147 0052 8947     		li	a5,2
 2148 0054 6305F700 		beq	a4,a5,.L121
 776:Drivers/src/ch32v20x_can.c ****   {
 777:Drivers/src/ch32v20x_can.c ****     wakeupstatus = CAN_WakeUp_Ok;
 2149              		.loc 1 777 18
 2150 0058 8547     		li	a5,1
 2151 005a A305F4FE 		sb	a5,-21(s0)
 2152              	.L121:
 778:Drivers/src/ch32v20x_can.c ****   }
 779:Drivers/src/ch32v20x_can.c **** 
 780:Drivers/src/ch32v20x_can.c ****   return (uint8_t)wakeupstatus;
 2153              		.loc 1 780 10
 2154 005e 8347B4FE 		lbu	a5,-21(s0)
 781:Drivers/src/ch32v20x_can.c **** }
 2155              		.loc 1 781 1
 2156 0062 3E85     		mv	a0,a5
 2157 0064 3254     		lw	s0,44(sp)
 2158              		.cfi_restore 8
 2159              		.cfi_def_cfa 2, 48
 2160 0066 4561     		addi	sp,sp,48
 2161              		.cfi_def_cfa_offset 0
 2162 0068 8280     		jr	ra
 2163              		.cfi_endproc
 2164              	.LFE31:
 2166              		.section	.text.CAN_GetLastErrorCode,"ax",@progbits
 2167              		.align	1
 2168              		.globl	CAN_GetLastErrorCode
 2170              	CAN_GetLastErrorCode:
 2171              	.LFB32:
 782:Drivers/src/ch32v20x_can.c **** 
 783:Drivers/src/ch32v20x_can.c **** /*********************************************************************
 784:Drivers/src/ch32v20x_can.c ****  * @fn      CAN_GetLastErrorCode
 785:Drivers/src/ch32v20x_can.c ****  *
 786:Drivers/src/ch32v20x_can.c ****  * @brief   Returns the CANx's last error code (LEC).
 787:Drivers/src/ch32v20x_can.c ****  *
 788:Drivers/src/ch32v20x_can.c ****  * @param   CANx - where x can be 1 to select the CAN peripheral.
 789:Drivers/src/ch32v20x_can.c ****  *
 790:Drivers/src/ch32v20x_can.c ****  * @return  errorcode - specifies the Error code.
GAS LISTING C:\Users\SOLDER~1\AppData\Local\Temp\ccYCTqm0.s 			page 54


 791:Drivers/src/ch32v20x_can.c ****  *            CAN_ErrorCode_NoErr - No Error.
 792:Drivers/src/ch32v20x_can.c ****  *            CAN_ErrorCode_StuffErr - Stuff Error.
 793:Drivers/src/ch32v20x_can.c ****  *            CAN_ErrorCode_FormErr - Form Error.
 794:Drivers/src/ch32v20x_can.c ****  *            CAN_ErrorCode_ACKErr - Acknowledgment Error.
 795:Drivers/src/ch32v20x_can.c ****  *            CAN_ErrorCode_BitRecessiveErr - Bit Recessive Error.
 796:Drivers/src/ch32v20x_can.c ****  *            CAN_ErrorCode_BitDominantErr - Bit Dominant Error.
 797:Drivers/src/ch32v20x_can.c ****  *            CAN_ErrorCode_CRCErr - CRC Error.
 798:Drivers/src/ch32v20x_can.c ****  *            CAN_ErrorCode_SoftwareSetErr - Software Set Error.
 799:Drivers/src/ch32v20x_can.c ****  */
 800:Drivers/src/ch32v20x_can.c **** uint8_t CAN_GetLastErrorCode(CAN_TypeDef* CANx)
 801:Drivers/src/ch32v20x_can.c **** {
 2172              		.loc 1 801 1
 2173              		.cfi_startproc
 2174 0000 7971     		addi	sp,sp,-48
 2175              		.cfi_def_cfa_offset 48
 2176 0002 22D6     		sw	s0,44(sp)
 2177              		.cfi_offset 8, -4
 2178 0004 0018     		addi	s0,sp,48
 2179              		.cfi_def_cfa 8, 0
 2180 0006 232EA4FC 		sw	a0,-36(s0)
 802:Drivers/src/ch32v20x_can.c ****   uint8_t errorcode=0;
 2181              		.loc 1 802 11
 2182 000a A30704FE 		sb	zero,-17(s0)
 803:Drivers/src/ch32v20x_can.c ****   
 804:Drivers/src/ch32v20x_can.c ****   errorcode = (((uint8_t)CANx->ERRSR) & (uint8_t)CAN_ERRSR_LEC);
 2183              		.loc 1 804 30
 2184 000e 8327C4FD 		lw	a5,-36(s0)
 2185 0012 9C4F     		lw	a5,24(a5)
 2186              		.loc 1 804 39
 2187 0014 93F7F70F 		andi	a5,a5,0xff
 2188              		.loc 1 804 13
 2189 0018 93F70707 		andi	a5,a5,112
 2190 001c A307F4FE 		sb	a5,-17(s0)
 805:Drivers/src/ch32v20x_can.c ****   
 806:Drivers/src/ch32v20x_can.c ****   return errorcode;
 2191              		.loc 1 806 10
 2192 0020 8347F4FE 		lbu	a5,-17(s0)
 807:Drivers/src/ch32v20x_can.c **** }
 2193              		.loc 1 807 1
 2194 0024 3E85     		mv	a0,a5
 2195 0026 3254     		lw	s0,44(sp)
 2196              		.cfi_restore 8
 2197              		.cfi_def_cfa 2, 48
 2198 0028 4561     		addi	sp,sp,48
 2199              		.cfi_def_cfa_offset 0
 2200 002a 8280     		jr	ra
 2201              		.cfi_endproc
 2202              	.LFE32:
 2204              		.section	.text.CAN_GetReceiveErrorCounter,"ax",@progbits
 2205              		.align	1
 2206              		.globl	CAN_GetReceiveErrorCounter
 2208              	CAN_GetReceiveErrorCounter:
 2209              	.LFB33:
 808:Drivers/src/ch32v20x_can.c **** 
 809:Drivers/src/ch32v20x_can.c **** /*********************************************************************
 810:Drivers/src/ch32v20x_can.c ****  * @fn      CAN_GetReceiveErrorCounter
 811:Drivers/src/ch32v20x_can.c ****  *
GAS LISTING C:\Users\SOLDER~1\AppData\Local\Temp\ccYCTqm0.s 			page 55


 812:Drivers/src/ch32v20x_can.c ****  * @brief   Returns the CANx Receive Error Counter (REC).
 813:Drivers/src/ch32v20x_can.c ****  *
 814:Drivers/src/ch32v20x_can.c ****  * @param   CANx - where x can be 1 to select the CAN peripheral.
 815:Drivers/src/ch32v20x_can.c ****  *         Note-   
 816:Drivers/src/ch32v20x_can.c ****  *         In case of an error during reception, this counter is incremented 
 817:Drivers/src/ch32v20x_can.c ****  *         by 1 or by 8 depending on the error condition as defined by the CAN 
 818:Drivers/src/ch32v20x_can.c ****  *         standard. After every successful reception, the counter is 
 819:Drivers/src/ch32v20x_can.c ****  *         decremented by 1 or reset to 120 if its value was higher than 128. 
 820:Drivers/src/ch32v20x_can.c ****  *         When the counter value exceeds 127, the CAN controller enters the 
 821:Drivers/src/ch32v20x_can.c ****  *         error passive state.  
 822:Drivers/src/ch32v20x_can.c ****  * @return  counter - CAN Receive Error Counter.
 823:Drivers/src/ch32v20x_can.c ****  */
 824:Drivers/src/ch32v20x_can.c **** uint8_t CAN_GetReceiveErrorCounter(CAN_TypeDef* CANx)
 825:Drivers/src/ch32v20x_can.c **** {
 2210              		.loc 1 825 1
 2211              		.cfi_startproc
 2212 0000 7971     		addi	sp,sp,-48
 2213              		.cfi_def_cfa_offset 48
 2214 0002 22D6     		sw	s0,44(sp)
 2215              		.cfi_offset 8, -4
 2216 0004 0018     		addi	s0,sp,48
 2217              		.cfi_def_cfa 8, 0
 2218 0006 232EA4FC 		sw	a0,-36(s0)
 826:Drivers/src/ch32v20x_can.c ****   uint8_t counter=0;
 2219              		.loc 1 826 11
 2220 000a A30704FE 		sb	zero,-17(s0)
 827:Drivers/src/ch32v20x_can.c ****    
 828:Drivers/src/ch32v20x_can.c ****   counter = (uint8_t)((CANx->ERRSR & CAN_ERRSR_REC)>> 24);
 2221              		.loc 1 828 28
 2222 000e 8327C4FD 		lw	a5,-36(s0)
 2223 0012 9C4F     		lw	a5,24(a5)
 2224              		.loc 1 828 52
 2225 0014 E183     		srli	a5,a5,24
 2226              		.loc 1 828 11
 2227 0016 A307F4FE 		sb	a5,-17(s0)
 829:Drivers/src/ch32v20x_can.c ****   
 830:Drivers/src/ch32v20x_can.c ****   return counter;
 2228              		.loc 1 830 10
 2229 001a 8347F4FE 		lbu	a5,-17(s0)
 831:Drivers/src/ch32v20x_can.c **** }
 2230              		.loc 1 831 1
 2231 001e 3E85     		mv	a0,a5
 2232 0020 3254     		lw	s0,44(sp)
 2233              		.cfi_restore 8
 2234              		.cfi_def_cfa 2, 48
 2235 0022 4561     		addi	sp,sp,48
 2236              		.cfi_def_cfa_offset 0
 2237 0024 8280     		jr	ra
 2238              		.cfi_endproc
 2239              	.LFE33:
 2241              		.section	.text.CAN_GetLSBTransmitErrorCounter,"ax",@progbits
 2242              		.align	1
 2243              		.globl	CAN_GetLSBTransmitErrorCounter
 2245              	CAN_GetLSBTransmitErrorCounter:
 2246              	.LFB34:
 832:Drivers/src/ch32v20x_can.c **** 
 833:Drivers/src/ch32v20x_can.c **** /*********************************************************************
GAS LISTING C:\Users\SOLDER~1\AppData\Local\Temp\ccYCTqm0.s 			page 56


 834:Drivers/src/ch32v20x_can.c ****  * @fn      CAN_GetLSBTransmitErrorCounter
 835:Drivers/src/ch32v20x_can.c ****  *
 836:Drivers/src/ch32v20x_can.c ****  * @brief   Returns the LSB of the 9-bit CANx Transmit Error Counter(TEC).
 837:Drivers/src/ch32v20x_can.c ****  *
 838:Drivers/src/ch32v20x_can.c ****  * @param   CANx - where x can be 1 to select the CAN peripheral.
 839:Drivers/src/ch32v20x_can.c ****  *
 840:Drivers/src/ch32v20x_can.c ****  * @return  counter - LSB of the 9-bit CAN Transmit Error Counter.
 841:Drivers/src/ch32v20x_can.c ****  */
 842:Drivers/src/ch32v20x_can.c **** uint8_t CAN_GetLSBTransmitErrorCounter(CAN_TypeDef* CANx)
 843:Drivers/src/ch32v20x_can.c **** {
 2247              		.loc 1 843 1
 2248              		.cfi_startproc
 2249 0000 7971     		addi	sp,sp,-48
 2250              		.cfi_def_cfa_offset 48
 2251 0002 22D6     		sw	s0,44(sp)
 2252              		.cfi_offset 8, -4
 2253 0004 0018     		addi	s0,sp,48
 2254              		.cfi_def_cfa 8, 0
 2255 0006 232EA4FC 		sw	a0,-36(s0)
 844:Drivers/src/ch32v20x_can.c ****   uint8_t counter=0;
 2256              		.loc 1 844 11
 2257 000a A30704FE 		sb	zero,-17(s0)
 845:Drivers/src/ch32v20x_can.c ****   
 846:Drivers/src/ch32v20x_can.c ****   counter = (uint8_t)((CANx->ERRSR & CAN_ERRSR_TEC)>> 16);
 2258              		.loc 1 846 28
 2259 000e 8327C4FD 		lw	a5,-36(s0)
 2260 0012 9C4F     		lw	a5,24(a5)
 2261              		.loc 1 846 52
 2262 0014 C183     		srli	a5,a5,16
 2263              		.loc 1 846 11
 2264 0016 A307F4FE 		sb	a5,-17(s0)
 847:Drivers/src/ch32v20x_can.c ****   
 848:Drivers/src/ch32v20x_can.c ****   return counter;
 2265              		.loc 1 848 10
 2266 001a 8347F4FE 		lbu	a5,-17(s0)
 849:Drivers/src/ch32v20x_can.c **** }
 2267              		.loc 1 849 1
 2268 001e 3E85     		mv	a0,a5
 2269 0020 3254     		lw	s0,44(sp)
 2270              		.cfi_restore 8
 2271              		.cfi_def_cfa 2, 48
 2272 0022 4561     		addi	sp,sp,48
 2273              		.cfi_def_cfa_offset 0
 2274 0024 8280     		jr	ra
 2275              		.cfi_endproc
 2276              	.LFE34:
 2278              		.section	.text.CAN_ITConfig,"ax",@progbits
 2279              		.align	1
 2280              		.globl	CAN_ITConfig
 2282              	CAN_ITConfig:
 2283              	.LFB35:
 850:Drivers/src/ch32v20x_can.c **** 
 851:Drivers/src/ch32v20x_can.c **** /*********************************************************************
 852:Drivers/src/ch32v20x_can.c ****  * @fn      CAN_ITConfig
 853:Drivers/src/ch32v20x_can.c ****  *
 854:Drivers/src/ch32v20x_can.c ****  * @brief   Enables or disables the specified CANx interrupts.
 855:Drivers/src/ch32v20x_can.c ****  *
GAS LISTING C:\Users\SOLDER~1\AppData\Local\Temp\ccYCTqm0.s 			page 57


 856:Drivers/src/ch32v20x_can.c ****  * @param   CANx - where x can be 1 to select the CAN peripheral.
 857:Drivers/src/ch32v20x_can.c ****  *          CAN_IT - specifies the CAN interrupt sources to be enabled or disabled.
 858:Drivers/src/ch32v20x_can.c ****  *            CAN_IT_TME.
 859:Drivers/src/ch32v20x_can.c ****  *            CAN_IT_FMP0.
 860:Drivers/src/ch32v20x_can.c ****  *            CAN_IT_FF0.
 861:Drivers/src/ch32v20x_can.c ****  *            CAN_IT_FOV0.
 862:Drivers/src/ch32v20x_can.c ****  *            CAN_IT_FMP1.
 863:Drivers/src/ch32v20x_can.c ****  *            CAN_IT_FF1.
 864:Drivers/src/ch32v20x_can.c ****  *            CAN_IT_FOV1.
 865:Drivers/src/ch32v20x_can.c ****  *            CAN_IT_EWG.
 866:Drivers/src/ch32v20x_can.c ****  *            CAN_IT_EPV.
 867:Drivers/src/ch32v20x_can.c ****  *            CAN_IT_LEC.
 868:Drivers/src/ch32v20x_can.c ****  *            CAN_IT_ERR.
 869:Drivers/src/ch32v20x_can.c ****  *            CAN_IT_WKU.
 870:Drivers/src/ch32v20x_can.c ****  *            CAN_IT_SLK.
 871:Drivers/src/ch32v20x_can.c ****  *          NewState - ENABLE or DISABLE.
 872:Drivers/src/ch32v20x_can.c ****  *
 873:Drivers/src/ch32v20x_can.c ****  * @return  counter - LSB of the 9-bit CAN Transmit Error Counter.
 874:Drivers/src/ch32v20x_can.c ****  */
 875:Drivers/src/ch32v20x_can.c **** void CAN_ITConfig(CAN_TypeDef* CANx, uint32_t CAN_IT, FunctionalState NewState)
 876:Drivers/src/ch32v20x_can.c **** {
 2284              		.loc 1 876 1
 2285              		.cfi_startproc
 2286 0000 0111     		addi	sp,sp,-32
 2287              		.cfi_def_cfa_offset 32
 2288 0002 22CE     		sw	s0,28(sp)
 2289              		.cfi_offset 8, -4
 2290 0004 0010     		addi	s0,sp,32
 2291              		.cfi_def_cfa 8, 0
 2292 0006 2326A4FE 		sw	a0,-20(s0)
 2293 000a 2324B4FE 		sw	a1,-24(s0)
 2294 000e 2322C4FE 		sw	a2,-28(s0)
 877:Drivers/src/ch32v20x_can.c ****   if (NewState != DISABLE)
 2295              		.loc 1 877 6
 2296 0012 832744FE 		lw	a5,-28(s0)
 2297 0016 99CB     		beq	a5,zero,.L130
 878:Drivers/src/ch32v20x_can.c ****   {
 879:Drivers/src/ch32v20x_can.c ****     CANx->INTENR |= CAN_IT;
 2298              		.loc 1 879 9
 2299 0018 8327C4FE 		lw	a5,-20(s0)
 2300 001c D84B     		lw	a4,20(a5)
 2301              		.loc 1 879 18
 2302 001e 832784FE 		lw	a5,-24(s0)
 2303 0022 5D8F     		or	a4,a4,a5
 2304 0024 8327C4FE 		lw	a5,-20(s0)
 2305 0028 D8CB     		sw	a4,20(a5)
 880:Drivers/src/ch32v20x_can.c ****   }
 881:Drivers/src/ch32v20x_can.c ****   else
 882:Drivers/src/ch32v20x_can.c ****   {
 883:Drivers/src/ch32v20x_can.c ****     CANx->INTENR &= ~CAN_IT;
 884:Drivers/src/ch32v20x_can.c ****   }
 885:Drivers/src/ch32v20x_can.c **** }
 2306              		.loc 1 885 1
 2307 002a 21A8     		j	.L132
 2308              	.L130:
 883:Drivers/src/ch32v20x_can.c ****   }
 2309              		.loc 1 883 9
GAS LISTING C:\Users\SOLDER~1\AppData\Local\Temp\ccYCTqm0.s 			page 58


 2310 002c 8327C4FE 		lw	a5,-20(s0)
 2311 0030 D84B     		lw	a4,20(a5)
 883:Drivers/src/ch32v20x_can.c ****   }
 2312              		.loc 1 883 21
 2313 0032 832784FE 		lw	a5,-24(s0)
 2314 0036 93C7F7FF 		not	a5,a5
 883:Drivers/src/ch32v20x_can.c ****   }
 2315              		.loc 1 883 18
 2316 003a 7D8F     		and	a4,a4,a5
 2317 003c 8327C4FE 		lw	a5,-20(s0)
 2318 0040 D8CB     		sw	a4,20(a5)
 2319              	.L132:
 2320              		.loc 1 885 1
 2321 0042 0100     		nop
 2322 0044 7244     		lw	s0,28(sp)
 2323              		.cfi_restore 8
 2324              		.cfi_def_cfa 2, 32
 2325 0046 0561     		addi	sp,sp,32
 2326              		.cfi_def_cfa_offset 0
 2327 0048 8280     		jr	ra
 2328              		.cfi_endproc
 2329              	.LFE35:
 2331              		.section	.text.CAN_GetFlagStatus,"ax",@progbits
 2332              		.align	1
 2333              		.globl	CAN_GetFlagStatus
 2335              	CAN_GetFlagStatus:
 2336              	.LFB36:
 886:Drivers/src/ch32v20x_can.c **** 
 887:Drivers/src/ch32v20x_can.c **** /*********************************************************************
 888:Drivers/src/ch32v20x_can.c ****  * @fn      CAN_GetFlagStatus
 889:Drivers/src/ch32v20x_can.c ****  *
 890:Drivers/src/ch32v20x_can.c ****  * @brief   Checks whether the specified CAN flag is set or not.
 891:Drivers/src/ch32v20x_can.c ****  *
 892:Drivers/src/ch32v20x_can.c ****  * @param   CANx - where x can be 1 to select the CAN peripheral.
 893:Drivers/src/ch32v20x_can.c ****  *          CAN_FLAG - specifies the flag to check.
 894:Drivers/src/ch32v20x_can.c ****  *            CAN_FLAG_EWG.
 895:Drivers/src/ch32v20x_can.c ****  *            CAN_FLAG_EPV.
 896:Drivers/src/ch32v20x_can.c ****  *            CAN_FLAG_BOF.
 897:Drivers/src/ch32v20x_can.c ****  *            CAN_FLAG_RQCP0.
 898:Drivers/src/ch32v20x_can.c ****  *            CAN_FLAG_RQCP1.
 899:Drivers/src/ch32v20x_can.c ****  *            CAN_FLAG_RQCP2.
 900:Drivers/src/ch32v20x_can.c ****  *            CAN_FLAG_FMP1.
 901:Drivers/src/ch32v20x_can.c ****  *            CAN_FLAG_FF1.
 902:Drivers/src/ch32v20x_can.c ****  *            CAN_FLAG_FOV1.
 903:Drivers/src/ch32v20x_can.c ****  *            CAN_FLAG_FMP0.
 904:Drivers/src/ch32v20x_can.c ****  *            CAN_FLAG_FF0.
 905:Drivers/src/ch32v20x_can.c ****  *            CAN_FLAG_FOV0.
 906:Drivers/src/ch32v20x_can.c ****  *            CAN_FLAG_WKU.
 907:Drivers/src/ch32v20x_can.c ****  *            CAN_FLAG_SLAK.
 908:Drivers/src/ch32v20x_can.c ****  *            CAN_FLAG_LEC.
 909:Drivers/src/ch32v20x_can.c ****  *          NewState - ENABLE or DISABLE.
 910:Drivers/src/ch32v20x_can.c ****  *
 911:Drivers/src/ch32v20x_can.c ****  * @return  FlagStatus - SET or RESET.
 912:Drivers/src/ch32v20x_can.c ****  */
 913:Drivers/src/ch32v20x_can.c **** FlagStatus CAN_GetFlagStatus(CAN_TypeDef* CANx, uint32_t CAN_FLAG)
 914:Drivers/src/ch32v20x_can.c **** {
 2337              		.loc 1 914 1
GAS LISTING C:\Users\SOLDER~1\AppData\Local\Temp\ccYCTqm0.s 			page 59


 2338              		.cfi_startproc
 2339 0000 7971     		addi	sp,sp,-48
 2340              		.cfi_def_cfa_offset 48
 2341 0002 22D6     		sw	s0,44(sp)
 2342              		.cfi_offset 8, -4
 2343 0004 0018     		addi	s0,sp,48
 2344              		.cfi_def_cfa 8, 0
 2345 0006 232EA4FC 		sw	a0,-36(s0)
 2346 000a 232CB4FC 		sw	a1,-40(s0)
 915:Drivers/src/ch32v20x_can.c ****   FlagStatus bitstatus = RESET;
 2347              		.loc 1 915 14
 2348 000e 232604FE 		sw	zero,-20(s0)
 916:Drivers/src/ch32v20x_can.c ****   
 917:Drivers/src/ch32v20x_can.c ****   if((CAN_FLAG & CAN_FLAGS_ERRSR) != (uint32_t)RESET)
 2349              		.loc 1 917 16
 2350 0012 032784FD 		lw	a4,-40(s0)
 2351 0016 B707F000 		li	a5,15728640
 2352 001a F98F     		and	a5,a4,a5
 2353              		.loc 1 917 5
 2354 001c 9DC3     		beq	a5,zero,.L134
 918:Drivers/src/ch32v20x_can.c ****   { 
 919:Drivers/src/ch32v20x_can.c ****     if ((CANx->ERRSR & (CAN_FLAG & 0x000FFFFF)) != (uint32_t)RESET)
 2355              		.loc 1 919 14
 2356 001e 8327C4FD 		lw	a5,-36(s0)
 2357 0022 984F     		lw	a4,24(a5)
 2358              		.loc 1 919 22
 2359 0024 832784FD 		lw	a5,-40(s0)
 2360 0028 7D8F     		and	a4,a4,a5
 2361 002a B7071000 		li	a5,1048576
 2362 002e FD17     		addi	a5,a5,-1
 2363 0030 F98F     		and	a5,a4,a5
 2364              		.loc 1 919 8
 2365 0032 89C7     		beq	a5,zero,.L135
 920:Drivers/src/ch32v20x_can.c ****     { 
 921:Drivers/src/ch32v20x_can.c ****       bitstatus = SET;
 2366              		.loc 1 921 17
 2367 0034 8547     		li	a5,1
 2368 0036 2326F4FE 		sw	a5,-20(s0)
 2369 003a 6DA8     		j	.L136
 2370              	.L135:
 922:Drivers/src/ch32v20x_can.c ****     }
 923:Drivers/src/ch32v20x_can.c ****     else
 924:Drivers/src/ch32v20x_can.c ****     { 
 925:Drivers/src/ch32v20x_can.c ****       bitstatus = RESET;
 2371              		.loc 1 925 17
 2372 003c 232604FE 		sw	zero,-20(s0)
 2373 0040 55A8     		j	.L136
 2374              	.L134:
 926:Drivers/src/ch32v20x_can.c ****     }
 927:Drivers/src/ch32v20x_can.c ****   }
 928:Drivers/src/ch32v20x_can.c ****   else if((CAN_FLAG & CAN_FLAGS_STATR) != (uint32_t)RESET)
 2375              		.loc 1 928 21
 2376 0042 032784FD 		lw	a4,-40(s0)
 2377 0046 B7070001 		li	a5,16777216
 2378 004a F98F     		and	a5,a4,a5
 2379              		.loc 1 928 10
 2380 004c 9DC3     		beq	a5,zero,.L137
GAS LISTING C:\Users\SOLDER~1\AppData\Local\Temp\ccYCTqm0.s 			page 60


 929:Drivers/src/ch32v20x_can.c ****   { 
 930:Drivers/src/ch32v20x_can.c ****     if ((CANx->STATR & (CAN_FLAG & 0x000FFFFF)) != (uint32_t)RESET)
 2381              		.loc 1 930 14
 2382 004e 8327C4FD 		lw	a5,-36(s0)
 2383 0052 D843     		lw	a4,4(a5)
 2384              		.loc 1 930 22
 2385 0054 832784FD 		lw	a5,-40(s0)
 2386 0058 7D8F     		and	a4,a4,a5
 2387 005a B7071000 		li	a5,1048576
 2388 005e FD17     		addi	a5,a5,-1
 2389 0060 F98F     		and	a5,a4,a5
 2390              		.loc 1 930 8
 2391 0062 89C7     		beq	a5,zero,.L138
 931:Drivers/src/ch32v20x_can.c ****     { 
 932:Drivers/src/ch32v20x_can.c ****       bitstatus = SET;
 2392              		.loc 1 932 17
 2393 0064 8547     		li	a5,1
 2394 0066 2326F4FE 		sw	a5,-20(s0)
 2395 006a 69A0     		j	.L136
 2396              	.L138:
 933:Drivers/src/ch32v20x_can.c ****     }
 934:Drivers/src/ch32v20x_can.c ****     else
 935:Drivers/src/ch32v20x_can.c ****     { 
 936:Drivers/src/ch32v20x_can.c ****       bitstatus = RESET;
 2397              		.loc 1 936 17
 2398 006c 232604FE 		sw	zero,-20(s0)
 2399 0070 51A0     		j	.L136
 2400              	.L137:
 937:Drivers/src/ch32v20x_can.c ****     }
 938:Drivers/src/ch32v20x_can.c ****   }
 939:Drivers/src/ch32v20x_can.c ****   else if((CAN_FLAG & CAN_FLAGS_TSTATR) != (uint32_t)RESET)
 2401              		.loc 1 939 21
 2402 0072 032784FD 		lw	a4,-40(s0)
 2403 0076 B7070008 		li	a5,134217728
 2404 007a F98F     		and	a5,a4,a5
 2405              		.loc 1 939 10
 2406 007c 9DC3     		beq	a5,zero,.L139
 940:Drivers/src/ch32v20x_can.c ****   { 
 941:Drivers/src/ch32v20x_can.c ****     if ((CANx->TSTATR & (CAN_FLAG & 0x000FFFFF)) != (uint32_t)RESET)
 2407              		.loc 1 941 14
 2408 007e 8327C4FD 		lw	a5,-36(s0)
 2409 0082 9847     		lw	a4,8(a5)
 2410              		.loc 1 941 23
 2411 0084 832784FD 		lw	a5,-40(s0)
 2412 0088 7D8F     		and	a4,a4,a5
 2413 008a B7071000 		li	a5,1048576
 2414 008e FD17     		addi	a5,a5,-1
 2415 0090 F98F     		and	a5,a4,a5
 2416              		.loc 1 941 8
 2417 0092 89C7     		beq	a5,zero,.L140
 942:Drivers/src/ch32v20x_can.c ****     { 
 943:Drivers/src/ch32v20x_can.c ****       bitstatus = SET;
 2418              		.loc 1 943 17
 2419 0094 8547     		li	a5,1
 2420 0096 2326F4FE 		sw	a5,-20(s0)
 2421 009a A9A8     		j	.L136
 2422              	.L140:
GAS LISTING C:\Users\SOLDER~1\AppData\Local\Temp\ccYCTqm0.s 			page 61


 944:Drivers/src/ch32v20x_can.c ****     }
 945:Drivers/src/ch32v20x_can.c ****     else
 946:Drivers/src/ch32v20x_can.c ****     { 
 947:Drivers/src/ch32v20x_can.c ****       bitstatus = RESET;
 2423              		.loc 1 947 17
 2424 009c 232604FE 		sw	zero,-20(s0)
 2425 00a0 91A8     		j	.L136
 2426              	.L139:
 948:Drivers/src/ch32v20x_can.c ****     }
 949:Drivers/src/ch32v20x_can.c ****   }
 950:Drivers/src/ch32v20x_can.c ****   else if((CAN_FLAG & CAN_FLAGS_RFIFO0) != (uint32_t)RESET)
 2427              		.loc 1 950 21
 2428 00a2 032784FD 		lw	a4,-40(s0)
 2429 00a6 B7070002 		li	a5,33554432
 2430 00aa F98F     		and	a5,a4,a5
 2431              		.loc 1 950 10
 2432 00ac 9DC3     		beq	a5,zero,.L141
 951:Drivers/src/ch32v20x_can.c ****   { 
 952:Drivers/src/ch32v20x_can.c ****     if ((CANx->RFIFO0 & (CAN_FLAG & 0x000FFFFF)) != (uint32_t)RESET)
 2433              		.loc 1 952 14
 2434 00ae 8327C4FD 		lw	a5,-36(s0)
 2435 00b2 D847     		lw	a4,12(a5)
 2436              		.loc 1 952 23
 2437 00b4 832784FD 		lw	a5,-40(s0)
 2438 00b8 7D8F     		and	a4,a4,a5
 2439 00ba B7071000 		li	a5,1048576
 2440 00be FD17     		addi	a5,a5,-1
 2441 00c0 F98F     		and	a5,a4,a5
 2442              		.loc 1 952 8
 2443 00c2 89C7     		beq	a5,zero,.L142
 953:Drivers/src/ch32v20x_can.c ****     { 
 954:Drivers/src/ch32v20x_can.c ****       bitstatus = SET;
 2444              		.loc 1 954 17
 2445 00c4 8547     		li	a5,1
 2446 00c6 2326F4FE 		sw	a5,-20(s0)
 2447 00ca 2DA0     		j	.L136
 2448              	.L142:
 955:Drivers/src/ch32v20x_can.c ****     }
 956:Drivers/src/ch32v20x_can.c ****     else
 957:Drivers/src/ch32v20x_can.c ****     { 
 958:Drivers/src/ch32v20x_can.c ****       bitstatus = RESET;
 2449              		.loc 1 958 17
 2450 00cc 232604FE 		sw	zero,-20(s0)
 2451 00d0 15A0     		j	.L136
 2452              	.L141:
 959:Drivers/src/ch32v20x_can.c ****     }
 960:Drivers/src/ch32v20x_can.c ****   }
 961:Drivers/src/ch32v20x_can.c ****   else 
 962:Drivers/src/ch32v20x_can.c ****   { 
 963:Drivers/src/ch32v20x_can.c ****     if ((uint32_t)(CANx->RFIFO1 & (CAN_FLAG & 0x000FFFFF)) != (uint32_t)RESET)
 2453              		.loc 1 963 24
 2454 00d2 8327C4FD 		lw	a5,-36(s0)
 2455 00d6 984B     		lw	a4,16(a5)
 2456              		.loc 1 963 9
 2457 00d8 832784FD 		lw	a5,-40(s0)
 2458 00dc 7D8F     		and	a4,a4,a5
 2459 00de B7071000 		li	a5,1048576
GAS LISTING C:\Users\SOLDER~1\AppData\Local\Temp\ccYCTqm0.s 			page 62


 2460 00e2 FD17     		addi	a5,a5,-1
 2461 00e4 F98F     		and	a5,a4,a5
 2462              		.loc 1 963 8
 2463 00e6 89C7     		beq	a5,zero,.L143
 964:Drivers/src/ch32v20x_can.c ****     { 
 965:Drivers/src/ch32v20x_can.c ****       bitstatus = SET;
 2464              		.loc 1 965 17
 2465 00e8 8547     		li	a5,1
 2466 00ea 2326F4FE 		sw	a5,-20(s0)
 2467 00ee 19A0     		j	.L136
 2468              	.L143:
 966:Drivers/src/ch32v20x_can.c ****     }
 967:Drivers/src/ch32v20x_can.c ****     else
 968:Drivers/src/ch32v20x_can.c ****     { 
 969:Drivers/src/ch32v20x_can.c ****       bitstatus = RESET;
 2469              		.loc 1 969 17
 2470 00f0 232604FE 		sw	zero,-20(s0)
 2471              	.L136:
 970:Drivers/src/ch32v20x_can.c ****     }
 971:Drivers/src/ch32v20x_can.c ****   }
 972:Drivers/src/ch32v20x_can.c **** 
 973:Drivers/src/ch32v20x_can.c ****   return  bitstatus;
 2472              		.loc 1 973 11
 2473 00f4 8327C4FE 		lw	a5,-20(s0)
 974:Drivers/src/ch32v20x_can.c **** }
 2474              		.loc 1 974 1
 2475 00f8 3E85     		mv	a0,a5
 2476 00fa 3254     		lw	s0,44(sp)
 2477              		.cfi_restore 8
 2478              		.cfi_def_cfa 2, 48
 2479 00fc 4561     		addi	sp,sp,48
 2480              		.cfi_def_cfa_offset 0
 2481 00fe 8280     		jr	ra
 2482              		.cfi_endproc
 2483              	.LFE36:
 2485              		.section	.text.CAN_ClearFlag,"ax",@progbits
 2486              		.align	1
 2487              		.globl	CAN_ClearFlag
 2489              	CAN_ClearFlag:
 2490              	.LFB37:
 975:Drivers/src/ch32v20x_can.c **** 
 976:Drivers/src/ch32v20x_can.c **** /*********************************************************************
 977:Drivers/src/ch32v20x_can.c ****  * @fn      CAN_ClearFlag
 978:Drivers/src/ch32v20x_can.c ****  *
 979:Drivers/src/ch32v20x_can.c ****  * @brief   Clears the CAN's pending flags.
 980:Drivers/src/ch32v20x_can.c ****  *
 981:Drivers/src/ch32v20x_can.c ****  * @param   CANx - where x can be 1 to select the CAN peripheral.
 982:Drivers/src/ch32v20x_can.c ****  *          CAN_FLAG - specifies the flag to clear.
 983:Drivers/src/ch32v20x_can.c ****  *            CAN_FLAG_RQCP0.
 984:Drivers/src/ch32v20x_can.c ****  *            CAN_FLAG_RQCP1.
 985:Drivers/src/ch32v20x_can.c ****  *            CAN_FLAG_RQCP2.
 986:Drivers/src/ch32v20x_can.c ****  *            CAN_FLAG_FF1.
 987:Drivers/src/ch32v20x_can.c ****  *            CAN_FLAG_FOV1.
 988:Drivers/src/ch32v20x_can.c ****  *            CAN_FLAG_FF0.
 989:Drivers/src/ch32v20x_can.c ****  *            CAN_FLAG_FOV0.
 990:Drivers/src/ch32v20x_can.c ****  *            CAN_FLAG_WKU.
 991:Drivers/src/ch32v20x_can.c ****  *            CAN_FLAG_SLAK.
GAS LISTING C:\Users\SOLDER~1\AppData\Local\Temp\ccYCTqm0.s 			page 63


 992:Drivers/src/ch32v20x_can.c ****  *            CAN_FLAG_LEC.
 993:Drivers/src/ch32v20x_can.c ****  *
 994:Drivers/src/ch32v20x_can.c ****  * @return  none
 995:Drivers/src/ch32v20x_can.c ****  */
 996:Drivers/src/ch32v20x_can.c **** void CAN_ClearFlag(CAN_TypeDef* CANx, uint32_t CAN_FLAG)
 997:Drivers/src/ch32v20x_can.c **** {
 2491              		.loc 1 997 1
 2492              		.cfi_startproc
 2493 0000 7971     		addi	sp,sp,-48
 2494              		.cfi_def_cfa_offset 48
 2495 0002 22D6     		sw	s0,44(sp)
 2496              		.cfi_offset 8, -4
 2497 0004 0018     		addi	s0,sp,48
 2498              		.cfi_def_cfa 8, 0
 2499 0006 232EA4FC 		sw	a0,-36(s0)
 2500 000a 232CB4FC 		sw	a1,-40(s0)
 998:Drivers/src/ch32v20x_can.c ****   uint32_t flagtmp=0;
 2501              		.loc 1 998 12
 2502 000e 232604FE 		sw	zero,-20(s0)
 999:Drivers/src/ch32v20x_can.c ****   
1000:Drivers/src/ch32v20x_can.c **** 	if (CAN_FLAG == CAN_FLAG_LEC)
 2503              		.loc 1 1000 5
 2504 0012 032784FD 		lw	a4,-40(s0)
 2505 0016 B707F030 		li	a5,821035008
 2506 001a 93870707 		addi	a5,a5,112
 2507 001e 6317F700 		bne	a4,a5,.L146
1001:Drivers/src/ch32v20x_can.c ****   {
1002:Drivers/src/ch32v20x_can.c ****     CANx->ERRSR = (uint32_t)RESET;
 2508              		.loc 1 1002 17
 2509 0022 8327C4FD 		lw	a5,-36(s0)
 2510 0026 23AC0700 		sw	zero,24(a5)
1003:Drivers/src/ch32v20x_can.c ****   }
1004:Drivers/src/ch32v20x_can.c ****   else 
1005:Drivers/src/ch32v20x_can.c ****   {
1006:Drivers/src/ch32v20x_can.c ****     flagtmp = CAN_FLAG & 0x000FFFFF;
1007:Drivers/src/ch32v20x_can.c **** 
1008:Drivers/src/ch32v20x_can.c ****     if ((CAN_FLAG & CAN_FLAGS_RFIFO0)!=(uint32_t)RESET)
1009:Drivers/src/ch32v20x_can.c ****     {
1010:Drivers/src/ch32v20x_can.c ****       CANx->RFIFO0 = (uint32_t)(flagtmp);
1011:Drivers/src/ch32v20x_can.c ****     }
1012:Drivers/src/ch32v20x_can.c ****     else if ((CAN_FLAG & CAN_FLAGS_RFIFO1)!=(uint32_t)RESET)
1013:Drivers/src/ch32v20x_can.c ****     {
1014:Drivers/src/ch32v20x_can.c ****       CANx->RFIFO1 = (uint32_t)(flagtmp);
1015:Drivers/src/ch32v20x_can.c ****     }
1016:Drivers/src/ch32v20x_can.c ****     else if ((CAN_FLAG & CAN_FLAGS_TSTATR)!=(uint32_t)RESET)
1017:Drivers/src/ch32v20x_can.c ****     {
1018:Drivers/src/ch32v20x_can.c ****       CANx->TSTATR = (uint32_t)(flagtmp);
1019:Drivers/src/ch32v20x_can.c ****     }
1020:Drivers/src/ch32v20x_can.c ****     else 
1021:Drivers/src/ch32v20x_can.c ****     {
1022:Drivers/src/ch32v20x_can.c ****       CANx->STATR = (uint32_t)(flagtmp);
1023:Drivers/src/ch32v20x_can.c ****     }
1024:Drivers/src/ch32v20x_can.c ****   }
1025:Drivers/src/ch32v20x_can.c **** }
 2511              		.loc 1 1025 1
 2512 002a 95A0     		j	.L151
 2513              	.L146:
GAS LISTING C:\Users\SOLDER~1\AppData\Local\Temp\ccYCTqm0.s 			page 64


1006:Drivers/src/ch32v20x_can.c **** 
 2514              		.loc 1 1006 13
 2515 002c 032784FD 		lw	a4,-40(s0)
 2516 0030 B7071000 		li	a5,1048576
 2517 0034 FD17     		addi	a5,a5,-1
 2518 0036 F98F     		and	a5,a4,a5
 2519 0038 2326F4FE 		sw	a5,-20(s0)
1008:Drivers/src/ch32v20x_can.c ****     {
 2520              		.loc 1 1008 19
 2521 003c 032784FD 		lw	a4,-40(s0)
 2522 0040 B7070002 		li	a5,33554432
 2523 0044 F98F     		and	a5,a4,a5
1008:Drivers/src/ch32v20x_can.c ****     {
 2524              		.loc 1 1008 8
 2525 0046 99C7     		beq	a5,zero,.L148
1010:Drivers/src/ch32v20x_can.c ****     }
 2526              		.loc 1 1010 20
 2527 0048 8327C4FD 		lw	a5,-36(s0)
 2528 004c 0327C4FE 		lw	a4,-20(s0)
 2529 0050 D8C7     		sw	a4,12(a5)
 2530              		.loc 1 1025 1
 2531 0052 35A8     		j	.L151
 2532              	.L148:
1012:Drivers/src/ch32v20x_can.c ****     {
 2533              		.loc 1 1012 24
 2534 0054 032784FD 		lw	a4,-40(s0)
 2535 0058 B7070004 		li	a5,67108864
 2536 005c F98F     		and	a5,a4,a5
1012:Drivers/src/ch32v20x_can.c ****     {
 2537              		.loc 1 1012 13
 2538 005e 99C7     		beq	a5,zero,.L149
1014:Drivers/src/ch32v20x_can.c ****     }
 2539              		.loc 1 1014 20
 2540 0060 8327C4FD 		lw	a5,-36(s0)
 2541 0064 0327C4FE 		lw	a4,-20(s0)
 2542 0068 98CB     		sw	a4,16(a5)
 2543              		.loc 1 1025 1
 2544 006a 15A0     		j	.L151
 2545              	.L149:
1016:Drivers/src/ch32v20x_can.c ****     {
 2546              		.loc 1 1016 24
 2547 006c 032784FD 		lw	a4,-40(s0)
 2548 0070 B7070008 		li	a5,134217728
 2549 0074 F98F     		and	a5,a4,a5
1016:Drivers/src/ch32v20x_can.c ****     {
 2550              		.loc 1 1016 13
 2551 0076 99C7     		beq	a5,zero,.L150
1018:Drivers/src/ch32v20x_can.c ****     }
 2552              		.loc 1 1018 20
 2553 0078 8327C4FD 		lw	a5,-36(s0)
 2554 007c 0327C4FE 		lw	a4,-20(s0)
 2555 0080 98C7     		sw	a4,8(a5)
 2556              		.loc 1 1025 1
 2557 0082 31A0     		j	.L151
 2558              	.L150:
1022:Drivers/src/ch32v20x_can.c ****     }
 2559              		.loc 1 1022 19
GAS LISTING C:\Users\SOLDER~1\AppData\Local\Temp\ccYCTqm0.s 			page 65


 2560 0084 8327C4FD 		lw	a5,-36(s0)
 2561 0088 0327C4FE 		lw	a4,-20(s0)
 2562 008c D8C3     		sw	a4,4(a5)
 2563              	.L151:
 2564              		.loc 1 1025 1
 2565 008e 0100     		nop
 2566 0090 3254     		lw	s0,44(sp)
 2567              		.cfi_restore 8
 2568              		.cfi_def_cfa 2, 48
 2569 0092 4561     		addi	sp,sp,48
 2570              		.cfi_def_cfa_offset 0
 2571 0094 8280     		jr	ra
 2572              		.cfi_endproc
 2573              	.LFE37:
 2575              		.section	.text.CAN_GetITStatus,"ax",@progbits
 2576              		.align	1
 2577              		.globl	CAN_GetITStatus
 2579              	CAN_GetITStatus:
 2580              	.LFB38:
1026:Drivers/src/ch32v20x_can.c **** 
1027:Drivers/src/ch32v20x_can.c **** /*********************************************************************
1028:Drivers/src/ch32v20x_can.c ****  * @fn      CAN_GetITStatus
1029:Drivers/src/ch32v20x_can.c ****  *
1030:Drivers/src/ch32v20x_can.c ****  * @brief   Checks whether the specified CANx interrupt has occurred or not.
1031:Drivers/src/ch32v20x_can.c ****  *
1032:Drivers/src/ch32v20x_can.c ****  * @param   CANx - where x can be 1 to select the CAN peripheral.
1033:Drivers/src/ch32v20x_can.c ****  *          CAN_IT -  specifies the CAN interrupt source to check.
1034:Drivers/src/ch32v20x_can.c ****  *            CAN_IT_TME.
1035:Drivers/src/ch32v20x_can.c ****  *            CAN_IT_FMP0.
1036:Drivers/src/ch32v20x_can.c ****  *            CAN_IT_FF0.
1037:Drivers/src/ch32v20x_can.c ****  *            CAN_IT_FOV0.
1038:Drivers/src/ch32v20x_can.c ****  *            CAN_IT_FMP1.
1039:Drivers/src/ch32v20x_can.c ****  *            CAN_IT_FF1.
1040:Drivers/src/ch32v20x_can.c ****  *            CAN_IT_FOV1.
1041:Drivers/src/ch32v20x_can.c ****  *            CAN_IT_WKU.
1042:Drivers/src/ch32v20x_can.c ****  *            CAN_IT_SLK.
1043:Drivers/src/ch32v20x_can.c ****  *            CAN_IT_EWG.
1044:Drivers/src/ch32v20x_can.c ****  *            CAN_IT_EPV.
1045:Drivers/src/ch32v20x_can.c ****  *            CAN_IT_BOF.
1046:Drivers/src/ch32v20x_can.c ****  *            CAN_IT_LEC.
1047:Drivers/src/ch32v20x_can.c ****  *            CAN_IT_ERR.
1048:Drivers/src/ch32v20x_can.c ****  *
1049:Drivers/src/ch32v20x_can.c ****  * @return  ITStatus - SET or RESET.
1050:Drivers/src/ch32v20x_can.c ****  */
1051:Drivers/src/ch32v20x_can.c **** ITStatus CAN_GetITStatus(CAN_TypeDef* CANx, uint32_t CAN_IT)
1052:Drivers/src/ch32v20x_can.c **** {
 2581              		.loc 1 1052 1
 2582              		.cfi_startproc
 2583 0000 7971     		addi	sp,sp,-48
 2584              		.cfi_def_cfa_offset 48
 2585 0002 06D6     		sw	ra,44(sp)
 2586 0004 22D4     		sw	s0,40(sp)
 2587              		.cfi_offset 1, -4
 2588              		.cfi_offset 8, -8
 2589 0006 0018     		addi	s0,sp,48
 2590              		.cfi_def_cfa 8, 0
 2591 0008 232EA4FC 		sw	a0,-36(s0)
GAS LISTING C:\Users\SOLDER~1\AppData\Local\Temp\ccYCTqm0.s 			page 66


 2592 000c 232CB4FC 		sw	a1,-40(s0)
1053:Drivers/src/ch32v20x_can.c **** 	ITStatus itstatus = RESET;
 2593              		.loc 1 1053 11
 2594 0010 232604FE 		sw	zero,-20(s0)
1054:Drivers/src/ch32v20x_can.c ****   
1055:Drivers/src/ch32v20x_can.c ****   if((CANx->INTENR & CAN_IT) != RESET)
 2595              		.loc 1 1055 11
 2596 0014 8327C4FD 		lw	a5,-36(s0)
 2597 0018 D84B     		lw	a4,20(a5)
 2598              		.loc 1 1055 20
 2599 001a 832784FD 		lw	a5,-40(s0)
 2600 001e F98F     		and	a5,a4,a5
 2601              		.loc 1 1055 5
 2602 0020 63830724 		beq	a5,zero,.L153
1056:Drivers/src/ch32v20x_can.c ****   {
1057:Drivers/src/ch32v20x_can.c ****     switch (CAN_IT)
 2603              		.loc 1 1057 5
 2604 0024 032784FD 		lw	a4,-40(s0)
 2605 0028 B7070200 		li	a5,131072
 2606 002c 6301F71A 		beq	a4,a5,.L154
 2607 0030 032784FD 		lw	a4,-40(s0)
 2608 0034 B7070200 		li	a5,131072
 2609 0038 63E4E722 		bgtu	a4,a5,.L155
 2610 003c 032784FD 		lw	a4,-40(s0)
 2611 0040 C167     		li	a5,65536
 2612 0042 630AF716 		beq	a4,a5,.L156
 2613 0046 032784FD 		lw	a4,-40(s0)
 2614 004a C167     		li	a5,65536
 2615 004c 63EAE720 		bgtu	a4,a5,.L155
 2616 0050 032784FD 		lw	a4,-40(s0)
 2617 0054 A167     		li	a5,32768
 2618 0056 6309F71E 		beq	a4,a5,.L157
 2619 005a 032784FD 		lw	a4,-40(s0)
 2620 005e A167     		li	a5,32768
 2621 0060 63E0E720 		bgtu	a4,a5,.L155
 2622 0064 832784FD 		lw	a5,-40(s0)
 2623 0068 93870780 		addi	a5,a5,-2048
 2624 006c 6381071C 		beq	a5,zero,.L158
 2625 0070 032784FD 		lw	a4,-40(s0)
 2626 0074 8567     		li	a5,4096
 2627 0076 93870780 		addi	a5,a5,-2048
 2628 007a 63E3E71E 		bgtu	a4,a5,.L155
 2629 007e 032784FD 		lw	a4,-40(s0)
 2630 0082 93070040 		li	a5,1024
 2631 0086 6308F718 		beq	a4,a5,.L159
 2632 008a 032784FD 		lw	a4,-40(s0)
 2633 008e 93070040 		li	a5,1024
 2634 0092 63E7E71C 		bgtu	a4,a5,.L155
 2635 0096 032784FD 		lw	a4,-40(s0)
 2636 009a 93070020 		li	a5,512
 2637 009e 6300F716 		beq	a4,a5,.L160
 2638 00a2 032784FD 		lw	a4,-40(s0)
 2639 00a6 93070020 		li	a5,512
 2640 00aa 63EBE71A 		bgtu	a4,a5,.L155
 2641 00ae 032784FD 		lw	a4,-40(s0)
 2642 00b2 93070010 		li	a5,256
 2643 00b6 6308F712 		beq	a4,a5,.L161
GAS LISTING C:\Users\SOLDER~1\AppData\Local\Temp\ccYCTqm0.s 			page 67


 2644 00ba 032784FD 		lw	a4,-40(s0)
 2645 00be 93070010 		li	a5,256
 2646 00c2 63EFE718 		bgtu	a4,a5,.L155
 2647 00c6 032784FD 		lw	a4,-40(s0)
 2648 00ca 93070002 		li	a5,32
 2649 00ce 63E7E702 		bgtu	a4,a5,.L162
 2650 00d2 832784FD 		lw	a5,-40(s0)
 2651 00d6 63850718 		beq	a5,zero,.L155
 2652 00da 032784FD 		lw	a4,-40(s0)
 2653 00de 93070002 		li	a5,32
 2654 00e2 63EFE716 		bgtu	a4,a5,.L155
 2655 00e6 832784FD 		lw	a5,-40(s0)
 2656 00ea 13972700 		slli	a4,a5,2
 2657 00ee B7070000 		lui	a5,%hi(.L164)
 2658 00f2 93870700 		addi	a5,a5,%lo(.L164)
 2659 00f6 BA97     		add	a5,a4,a5
 2660 00f8 9C43     		lw	a5,0(a5)
 2661 00fa 8287     		jr	a5
 2662              		.section	.rodata.CAN_GetITStatus,"a",@progbits
 2663              		.align	2
 2664              		.align	2
 2665              	.L164:
 2666 0000 00000000 		.word	.L155
 2667 0004 00000000 		.word	.L169
 2668 0008 00000000 		.word	.L168
 2669 000c 00000000 		.word	.L155
 2670 0010 00000000 		.word	.L167
 2671 0014 00000000 		.word	.L155
 2672 0018 00000000 		.word	.L155
 2673 001c 00000000 		.word	.L155
 2674 0020 00000000 		.word	.L166
 2675 0024 00000000 		.word	.L155
 2676 0028 00000000 		.word	.L155
 2677 002c 00000000 		.word	.L155
 2678 0030 00000000 		.word	.L155
 2679 0034 00000000 		.word	.L155
 2680 0038 00000000 		.word	.L155
 2681 003c 00000000 		.word	.L155
 2682 0040 00000000 		.word	.L165
 2683 0044 00000000 		.word	.L155
 2684 0048 00000000 		.word	.L155
 2685 004c 00000000 		.word	.L155
 2686 0050 00000000 		.word	.L155
 2687 0054 00000000 		.word	.L155
 2688 0058 00000000 		.word	.L155
 2689 005c 00000000 		.word	.L155
 2690 0060 00000000 		.word	.L155
 2691 0064 00000000 		.word	.L155
 2692 0068 00000000 		.word	.L155
 2693 006c 00000000 		.word	.L155
 2694 0070 00000000 		.word	.L155
 2695 0074 00000000 		.word	.L155
 2696 0078 00000000 		.word	.L155
 2697 007c 00000000 		.word	.L155
 2698 0080 00000000 		.word	.L163
 2699              		.section	.text.CAN_GetITStatus
 2700              	.L162:
GAS LISTING C:\Users\SOLDER~1\AppData\Local\Temp\ccYCTqm0.s 			page 68


 2701 00fc 032784FD 		lw	a4,-40(s0)
 2702 0100 93070004 		li	a5,64
 2703 0104 630DF708 		beq	a4,a5,.L170
 2704 0108 A1AA     		j	.L155
 2705              	.L169:
1058:Drivers/src/ch32v20x_can.c ****     {
1059:Drivers/src/ch32v20x_can.c ****       case CAN_IT_TME:
1060:Drivers/src/ch32v20x_can.c **** 	      itstatus = CheckITStatus(CANx->TSTATR, CAN_TSTATR_RQCP0|CAN_TSTATR_RQCP1|CAN_TSTATR_RQCP2); 
 2706              		.loc 1 1060 37
 2707 010a 8327C4FD 		lw	a5,-36(s0)
 2708 010e 9847     		lw	a4,8(a5)
 2709              		.loc 1 1060 19
 2710 0110 C167     		li	a5,65536
 2711 0112 93851710 		addi	a1,a5,257
 2712 0116 3A85     		mv	a0,a4
 2713 0118 97000000 		call	CheckITStatus
 2713      E7800000 
 2714 0120 2326A4FE 		sw	a0,-20(s0)
1061:Drivers/src/ch32v20x_can.c **** 	      break;
 2715              		.loc 1 1061 8
 2716 0124 99A2     		j	.L172
 2717              	.L168:
1062:Drivers/src/ch32v20x_can.c **** 			
1063:Drivers/src/ch32v20x_can.c ****       case CAN_IT_FMP0:
1064:Drivers/src/ch32v20x_can.c **** 			  itstatus = CheckITStatus(CANx->RFIFO0, CAN_RFIFO0_FMP0);  
 2718              		.loc 1 1064 35
 2719 0126 8327C4FD 		lw	a5,-36(s0)
 2720 012a DC47     		lw	a5,12(a5)
 2721              		.loc 1 1064 17
 2722 012c 8D45     		li	a1,3
 2723 012e 3E85     		mv	a0,a5
 2724 0130 97000000 		call	CheckITStatus
 2724      E7800000 
 2725 0138 2326A4FE 		sw	a0,-20(s0)
1065:Drivers/src/ch32v20x_can.c **** 	      break;
 2726              		.loc 1 1065 8
 2727 013c 3DA2     		j	.L172
 2728              	.L167:
1066:Drivers/src/ch32v20x_can.c **** 			
1067:Drivers/src/ch32v20x_can.c ****       case CAN_IT_FF0:
1068:Drivers/src/ch32v20x_can.c ****         itstatus = CheckITStatus(CANx->RFIFO0, CAN_RFIFO0_FULL0);  
 2729              		.loc 1 1068 38
 2730 013e 8327C4FD 		lw	a5,-36(s0)
 2731 0142 DC47     		lw	a5,12(a5)
 2732              		.loc 1 1068 20
 2733 0144 A145     		li	a1,8
 2734 0146 3E85     		mv	a0,a5
 2735 0148 97000000 		call	CheckITStatus
 2735      E7800000 
 2736 0150 2326A4FE 		sw	a0,-20(s0)
1069:Drivers/src/ch32v20x_can.c **** 	      break;
 2737              		.loc 1 1069 8
 2738 0154 19AA     		j	.L172
 2739              	.L166:
1070:Drivers/src/ch32v20x_can.c **** 			
1071:Drivers/src/ch32v20x_can.c ****       case CAN_IT_FOV0:
1072:Drivers/src/ch32v20x_can.c ****         itstatus = CheckITStatus(CANx->RFIFO0, CAN_RFIFO0_FOVR0);  
GAS LISTING C:\Users\SOLDER~1\AppData\Local\Temp\ccYCTqm0.s 			page 69


 2740              		.loc 1 1072 38
 2741 0156 8327C4FD 		lw	a5,-36(s0)
 2742 015a DC47     		lw	a5,12(a5)
 2743              		.loc 1 1072 20
 2744 015c C145     		li	a1,16
 2745 015e 3E85     		mv	a0,a5
 2746 0160 97000000 		call	CheckITStatus
 2746      E7800000 
 2747 0168 2326A4FE 		sw	a0,-20(s0)
1073:Drivers/src/ch32v20x_can.c **** 	      break;
 2748              		.loc 1 1073 8
 2749 016c FDA8     		j	.L172
 2750              	.L165:
1074:Drivers/src/ch32v20x_can.c **** 			
1075:Drivers/src/ch32v20x_can.c ****       case CAN_IT_FMP1:
1076:Drivers/src/ch32v20x_can.c ****         itstatus = CheckITStatus(CANx->RFIFO1, CAN_RFIFO1_FMP1);  
 2751              		.loc 1 1076 38
 2752 016e 8327C4FD 		lw	a5,-36(s0)
 2753 0172 9C4B     		lw	a5,16(a5)
 2754              		.loc 1 1076 20
 2755 0174 8D45     		li	a1,3
 2756 0176 3E85     		mv	a0,a5
 2757 0178 97000000 		call	CheckITStatus
 2757      E7800000 
 2758 0180 2326A4FE 		sw	a0,-20(s0)
1077:Drivers/src/ch32v20x_can.c **** 	      break;
 2759              		.loc 1 1077 8
 2760 0184 DDA0     		j	.L172
 2761              	.L163:
1078:Drivers/src/ch32v20x_can.c **** 			
1079:Drivers/src/ch32v20x_can.c ****       case CAN_IT_FF1:
1080:Drivers/src/ch32v20x_can.c **** 	      itstatus = CheckITStatus(CANx->RFIFO1, CAN_RFIFO1_FULL1);  
 2762              		.loc 1 1080 37
 2763 0186 8327C4FD 		lw	a5,-36(s0)
 2764 018a 9C4B     		lw	a5,16(a5)
 2765              		.loc 1 1080 19
 2766 018c A145     		li	a1,8
 2767 018e 3E85     		mv	a0,a5
 2768 0190 97000000 		call	CheckITStatus
 2768      E7800000 
 2769 0198 2326A4FE 		sw	a0,-20(s0)
1081:Drivers/src/ch32v20x_can.c **** 	      break;
 2770              		.loc 1 1081 8
 2771 019c F9A0     		j	.L172
 2772              	.L170:
1082:Drivers/src/ch32v20x_can.c **** 			
1083:Drivers/src/ch32v20x_can.c ****       case CAN_IT_FOV1:
1084:Drivers/src/ch32v20x_can.c **** 	      itstatus = CheckITStatus(CANx->RFIFO1, CAN_RFIFO1_FOVR1);  
 2773              		.loc 1 1084 37
 2774 019e 8327C4FD 		lw	a5,-36(s0)
 2775 01a2 9C4B     		lw	a5,16(a5)
 2776              		.loc 1 1084 19
 2777 01a4 C145     		li	a1,16
 2778 01a6 3E85     		mv	a0,a5
 2779 01a8 97000000 		call	CheckITStatus
 2779      E7800000 
 2780 01b0 2326A4FE 		sw	a0,-20(s0)
GAS LISTING C:\Users\SOLDER~1\AppData\Local\Temp\ccYCTqm0.s 			page 70


1085:Drivers/src/ch32v20x_can.c **** 	      break;
 2781              		.loc 1 1085 8
 2782 01b4 5DA8     		j	.L172
 2783              	.L156:
1086:Drivers/src/ch32v20x_can.c **** 			
1087:Drivers/src/ch32v20x_can.c ****       case CAN_IT_WKU:
1088:Drivers/src/ch32v20x_can.c ****         itstatus = CheckITStatus(CANx->STATR, CAN_STATR_WKUI);  
 2784              		.loc 1 1088 38
 2785 01b6 8327C4FD 		lw	a5,-36(s0)
 2786 01ba DC43     		lw	a5,4(a5)
 2787              		.loc 1 1088 20
 2788 01bc A145     		li	a1,8
 2789 01be 3E85     		mv	a0,a5
 2790 01c0 97000000 		call	CheckITStatus
 2790      E7800000 
 2791 01c8 2326A4FE 		sw	a0,-20(s0)
1089:Drivers/src/ch32v20x_can.c **** 	      break;
 2792              		.loc 1 1089 8
 2793 01cc 79A8     		j	.L172
 2794              	.L154:
1090:Drivers/src/ch32v20x_can.c **** 			
1091:Drivers/src/ch32v20x_can.c ****       case CAN_IT_SLK:
1092:Drivers/src/ch32v20x_can.c **** 	      itstatus = CheckITStatus(CANx->STATR, CAN_STATR_SLAKI);  
 2795              		.loc 1 1092 37
 2796 01ce 8327C4FD 		lw	a5,-36(s0)
 2797 01d2 DC43     		lw	a5,4(a5)
 2798              		.loc 1 1092 19
 2799 01d4 C145     		li	a1,16
 2800 01d6 3E85     		mv	a0,a5
 2801 01d8 97000000 		call	CheckITStatus
 2801      E7800000 
 2802 01e0 2326A4FE 		sw	a0,-20(s0)
1093:Drivers/src/ch32v20x_can.c **** 	      break;
 2803              		.loc 1 1093 8
 2804 01e4 59A0     		j	.L172
 2805              	.L161:
1094:Drivers/src/ch32v20x_can.c **** 			
1095:Drivers/src/ch32v20x_can.c ****       case CAN_IT_EWG:
1096:Drivers/src/ch32v20x_can.c **** 	      itstatus = CheckITStatus(CANx->ERRSR, CAN_ERRSR_EWGF);  
 2806              		.loc 1 1096 37
 2807 01e6 8327C4FD 		lw	a5,-36(s0)
 2808 01ea 9C4F     		lw	a5,24(a5)
 2809              		.loc 1 1096 19
 2810 01ec 8545     		li	a1,1
 2811 01ee 3E85     		mv	a0,a5
 2812 01f0 97000000 		call	CheckITStatus
 2812      E7800000 
 2813 01f8 2326A4FE 		sw	a0,-20(s0)
1097:Drivers/src/ch32v20x_can.c **** 	      break;
 2814              		.loc 1 1097 8
 2815 01fc BDA0     		j	.L172
 2816              	.L160:
1098:Drivers/src/ch32v20x_can.c **** 			
1099:Drivers/src/ch32v20x_can.c ****       case CAN_IT_EPV:
1100:Drivers/src/ch32v20x_can.c **** 	      itstatus = CheckITStatus(CANx->ERRSR, CAN_ERRSR_EPVF);  
 2817              		.loc 1 1100 37
 2818 01fe 8327C4FD 		lw	a5,-36(s0)
GAS LISTING C:\Users\SOLDER~1\AppData\Local\Temp\ccYCTqm0.s 			page 71


 2819 0202 9C4F     		lw	a5,24(a5)
 2820              		.loc 1 1100 19
 2821 0204 8945     		li	a1,2
 2822 0206 3E85     		mv	a0,a5
 2823 0208 97000000 		call	CheckITStatus
 2823      E7800000 
 2824 0210 2326A4FE 		sw	a0,-20(s0)
1101:Drivers/src/ch32v20x_can.c **** 	      break;
 2825              		.loc 1 1101 8
 2826 0214 99A8     		j	.L172
 2827              	.L159:
1102:Drivers/src/ch32v20x_can.c **** 			
1103:Drivers/src/ch32v20x_can.c ****       case CAN_IT_BOF:
1104:Drivers/src/ch32v20x_can.c **** 	      itstatus = CheckITStatus(CANx->ERRSR, CAN_ERRSR_BOFF);  
 2828              		.loc 1 1104 37
 2829 0216 8327C4FD 		lw	a5,-36(s0)
 2830 021a 9C4F     		lw	a5,24(a5)
 2831              		.loc 1 1104 19
 2832 021c 9145     		li	a1,4
 2833 021e 3E85     		mv	a0,a5
 2834 0220 97000000 		call	CheckITStatus
 2834      E7800000 
 2835 0228 2326A4FE 		sw	a0,-20(s0)
1105:Drivers/src/ch32v20x_can.c **** 	      break;
 2836              		.loc 1 1105 8
 2837 022c 3DA8     		j	.L172
 2838              	.L158:
1106:Drivers/src/ch32v20x_can.c **** 			
1107:Drivers/src/ch32v20x_can.c ****       case CAN_IT_LEC:
1108:Drivers/src/ch32v20x_can.c **** 	      itstatus = CheckITStatus(CANx->ERRSR, CAN_ERRSR_LEC);  
 2839              		.loc 1 1108 37
 2840 022e 8327C4FD 		lw	a5,-36(s0)
 2841 0232 9C4F     		lw	a5,24(a5)
 2842              		.loc 1 1108 19
 2843 0234 93050007 		li	a1,112
 2844 0238 3E85     		mv	a0,a5
 2845 023a 97000000 		call	CheckITStatus
 2845      E7800000 
 2846 0242 2326A4FE 		sw	a0,-20(s0)
1109:Drivers/src/ch32v20x_can.c **** 	      break;
 2847              		.loc 1 1109 8
 2848 0246 15A0     		j	.L172
 2849              	.L157:
1110:Drivers/src/ch32v20x_can.c **** 			
1111:Drivers/src/ch32v20x_can.c ****       case CAN_IT_ERR:
1112:Drivers/src/ch32v20x_can.c ****         itstatus = CheckITStatus(CANx->STATR, CAN_STATR_ERRI); 
 2850              		.loc 1 1112 38
 2851 0248 8327C4FD 		lw	a5,-36(s0)
 2852 024c DC43     		lw	a5,4(a5)
 2853              		.loc 1 1112 20
 2854 024e 9145     		li	a1,4
 2855 0250 3E85     		mv	a0,a5
 2856 0252 97000000 		call	CheckITStatus
 2856      E7800000 
 2857 025a 2326A4FE 		sw	a0,-20(s0)
1113:Drivers/src/ch32v20x_can.c **** 	      break;
 2858              		.loc 1 1113 8
GAS LISTING C:\Users\SOLDER~1\AppData\Local\Temp\ccYCTqm0.s 			page 72


 2859 025e 31A0     		j	.L172
 2860              	.L155:
1114:Drivers/src/ch32v20x_can.c **** 			
1115:Drivers/src/ch32v20x_can.c ****       default :
1116:Drivers/src/ch32v20x_can.c ****         itstatus = RESET;
 2861              		.loc 1 1116 18
 2862 0260 232604FE 		sw	zero,-20(s0)
1117:Drivers/src/ch32v20x_can.c ****         break;
 2863              		.loc 1 1117 9
 2864 0264 19A0     		j	.L172
 2865              	.L153:
1118:Drivers/src/ch32v20x_can.c ****     }
1119:Drivers/src/ch32v20x_can.c **** 	}
1120:Drivers/src/ch32v20x_can.c ****   else
1121:Drivers/src/ch32v20x_can.c ****   {
1122:Drivers/src/ch32v20x_can.c ****     itstatus  = RESET;
 2866              		.loc 1 1122 15
 2867 0266 232604FE 		sw	zero,-20(s0)
 2868              	.L172:
1123:Drivers/src/ch32v20x_can.c ****   }
1124:Drivers/src/ch32v20x_can.c ****   
1125:Drivers/src/ch32v20x_can.c ****   return  itstatus;
 2869              		.loc 1 1125 11
 2870 026a 8327C4FE 		lw	a5,-20(s0)
1126:Drivers/src/ch32v20x_can.c **** }
 2871              		.loc 1 1126 1
 2872 026e 3E85     		mv	a0,a5
 2873 0270 B250     		lw	ra,44(sp)
 2874              		.cfi_restore 1
 2875 0272 2254     		lw	s0,40(sp)
 2876              		.cfi_restore 8
 2877              		.cfi_def_cfa 2, 48
 2878 0274 4561     		addi	sp,sp,48
 2879              		.cfi_def_cfa_offset 0
 2880 0276 8280     		jr	ra
 2881              		.cfi_endproc
 2882              	.LFE38:
 2884              		.section	.text.CAN_ClearITPendingBit,"ax",@progbits
 2885              		.align	1
 2886              		.globl	CAN_ClearITPendingBit
 2888              	CAN_ClearITPendingBit:
 2889              	.LFB39:
1127:Drivers/src/ch32v20x_can.c **** 
1128:Drivers/src/ch32v20x_can.c **** /*********************************************************************
1129:Drivers/src/ch32v20x_can.c ****  * @fn      CAN_ClearITPendingBit
1130:Drivers/src/ch32v20x_can.c ****  *
1131:Drivers/src/ch32v20x_can.c ****  * @brief   Clears the CANx's interrupt pending bits.
1132:Drivers/src/ch32v20x_can.c ****  *
1133:Drivers/src/ch32v20x_can.c ****  * @param   CANx - where x can be 1 to select the CAN peripheral.
1134:Drivers/src/ch32v20x_can.c ****  *          CAN_IT - specifies the interrupt pending bit to clear.
1135:Drivers/src/ch32v20x_can.c ****  *            CAN_IT_TME.
1136:Drivers/src/ch32v20x_can.c ****  *            CAN_IT_FF0.
1137:Drivers/src/ch32v20x_can.c ****  *            CAN_IT_FOV0.
1138:Drivers/src/ch32v20x_can.c ****  *            CAN_IT_FF1.
1139:Drivers/src/ch32v20x_can.c ****  *            CAN_IT_FOV1.
1140:Drivers/src/ch32v20x_can.c ****  *            CAN_IT_WKU.
1141:Drivers/src/ch32v20x_can.c ****  *            CAN_IT_SLK.
GAS LISTING C:\Users\SOLDER~1\AppData\Local\Temp\ccYCTqm0.s 			page 73


1142:Drivers/src/ch32v20x_can.c ****  *            CAN_IT_EWG.
1143:Drivers/src/ch32v20x_can.c ****  *            CAN_IT_EPV.
1144:Drivers/src/ch32v20x_can.c ****  *            CAN_IT_BOF.
1145:Drivers/src/ch32v20x_can.c ****  *            CAN_IT_LEC.
1146:Drivers/src/ch32v20x_can.c ****  *            CAN_IT_ERR.
1147:Drivers/src/ch32v20x_can.c ****  *
1148:Drivers/src/ch32v20x_can.c ****  * @return  none
1149:Drivers/src/ch32v20x_can.c ****  */
1150:Drivers/src/ch32v20x_can.c **** void CAN_ClearITPendingBit(CAN_TypeDef* CANx, uint32_t CAN_IT)
1151:Drivers/src/ch32v20x_can.c **** {
 2890              		.loc 1 1151 1
 2891              		.cfi_startproc
 2892 0000 0111     		addi	sp,sp,-32
 2893              		.cfi_def_cfa_offset 32
 2894 0002 22CE     		sw	s0,28(sp)
 2895              		.cfi_offset 8, -4
 2896 0004 0010     		addi	s0,sp,32
 2897              		.cfi_def_cfa 8, 0
 2898 0006 2326A4FE 		sw	a0,-20(s0)
 2899 000a 2324B4FE 		sw	a1,-24(s0)
1152:Drivers/src/ch32v20x_can.c **** 	switch (CAN_IT)
 2900              		.loc 1 1152 2
 2901 000e 032784FE 		lw	a4,-24(s0)
 2902 0012 B7070200 		li	a5,131072
 2903 0016 630AF712 		beq	a4,a5,.L175
 2904 001a 032784FE 		lw	a4,-24(s0)
 2905 001e B7070200 		li	a5,131072
 2906 0022 63EAE716 		bgtu	a4,a5,.L189
 2907 0026 032784FE 		lw	a4,-24(s0)
 2908 002a C167     		li	a5,65536
 2909 002c 630AF710 		beq	a4,a5,.L177
 2910 0030 032784FE 		lw	a4,-24(s0)
 2911 0034 C167     		li	a5,65536
 2912 0036 63E0E716 		bgtu	a4,a5,.L189
 2913 003a 032784FE 		lw	a4,-24(s0)
 2914 003e A167     		li	a5,32768
 2915 0040 6302F714 		beq	a4,a5,.L178
 2916 0044 032784FE 		lw	a4,-24(s0)
 2917 0048 A167     		li	a5,32768
 2918 004a 63E6E714 		bgtu	a4,a5,.L189
 2919 004e 832784FE 		lw	a5,-24(s0)
 2920 0052 93870780 		addi	a5,a5,-2048
 2921 0056 638E0710 		beq	a5,zero,.L179
 2922 005a 032784FE 		lw	a4,-24(s0)
 2923 005e 8567     		li	a5,4096
 2924 0060 93870780 		addi	a5,a5,-2048
 2925 0064 63E9E712 		bgtu	a4,a5,.L189
 2926 0068 032784FE 		lw	a4,-24(s0)
 2927 006c 93070040 		li	a5,1024
 2928 0070 630CF70E 		beq	a4,a5,.L180
 2929 0074 032784FE 		lw	a4,-24(s0)
 2930 0078 93070040 		li	a5,1024
 2931 007c 63EDE710 		bgtu	a4,a5,.L189
 2932 0080 032784FE 		lw	a4,-24(s0)
 2933 0084 93070020 		li	a5,512
 2934 0088 630BF70C 		beq	a4,a5,.L181
 2935 008c 032784FE 		lw	a4,-24(s0)
GAS LISTING C:\Users\SOLDER~1\AppData\Local\Temp\ccYCTqm0.s 			page 74


 2936 0090 93070020 		li	a5,512
 2937 0094 63E1E710 		bgtu	a4,a5,.L189
 2938 0098 032784FE 		lw	a4,-24(s0)
 2939 009c 93070010 		li	a5,256
 2940 00a0 630AF70A 		beq	a4,a5,.L182
 2941 00a4 032784FE 		lw	a4,-24(s0)
 2942 00a8 93070010 		li	a5,256
 2943 00ac 63E5E70E 		bgtu	a4,a5,.L189
 2944 00b0 032784FE 		lw	a4,-24(s0)
 2945 00b4 93070004 		li	a5,64
 2946 00b8 630FF706 		beq	a4,a5,.L183
 2947 00bc 032784FE 		lw	a4,-24(s0)
 2948 00c0 93070004 		li	a5,64
 2949 00c4 63E9E70C 		bgtu	a4,a5,.L189
 2950 00c8 032784FE 		lw	a4,-24(s0)
 2951 00cc 93070002 		li	a5,32
 2952 00d0 630EF704 		beq	a4,a5,.L184
 2953 00d4 032784FE 		lw	a4,-24(s0)
 2954 00d8 93070002 		li	a5,32
 2955 00dc 63EDE70A 		bgtu	a4,a5,.L189
 2956 00e0 032784FE 		lw	a4,-24(s0)
 2957 00e4 A147     		li	a5,8
 2958 00e6 630EF702 		beq	a4,a5,.L185
 2959 00ea 032784FE 		lw	a4,-24(s0)
 2960 00ee A147     		li	a5,8
 2961 00f0 63E3E70A 		bgtu	a4,a5,.L189
 2962 00f4 032784FE 		lw	a4,-24(s0)
 2963 00f8 8547     		li	a5,1
 2964 00fa 6308F700 		beq	a4,a5,.L186
 2965 00fe 032784FE 		lw	a4,-24(s0)
 2966 0102 9147     		li	a5,4
 2967 0104 630AF700 		beq	a4,a5,.L187
1153:Drivers/src/ch32v20x_can.c **** 	{
1154:Drivers/src/ch32v20x_can.c **** 		case CAN_IT_TME:
1155:Drivers/src/ch32v20x_can.c **** 			CANx->TSTATR = CAN_TSTATR_RQCP0|CAN_TSTATR_RQCP1|CAN_TSTATR_RQCP2;  
1156:Drivers/src/ch32v20x_can.c **** 			break;
1157:Drivers/src/ch32v20x_can.c **** 
1158:Drivers/src/ch32v20x_can.c **** 		case CAN_IT_FF0:
1159:Drivers/src/ch32v20x_can.c **** 			CANx->RFIFO0 = CAN_RFIFO0_FULL0; 
1160:Drivers/src/ch32v20x_can.c **** 			break;
1161:Drivers/src/ch32v20x_can.c **** 
1162:Drivers/src/ch32v20x_can.c **** 		case CAN_IT_FOV0:
1163:Drivers/src/ch32v20x_can.c **** 			CANx->RFIFO0 = CAN_RFIFO0_FOVR0; 
1164:Drivers/src/ch32v20x_can.c **** 			break;
1165:Drivers/src/ch32v20x_can.c **** 
1166:Drivers/src/ch32v20x_can.c **** 		case CAN_IT_FF1:
1167:Drivers/src/ch32v20x_can.c **** 			CANx->RFIFO1 = CAN_RFIFO1_FULL1;  
1168:Drivers/src/ch32v20x_can.c **** 			break;
1169:Drivers/src/ch32v20x_can.c **** 
1170:Drivers/src/ch32v20x_can.c **** 		case CAN_IT_FOV1:
1171:Drivers/src/ch32v20x_can.c **** 			CANx->RFIFO1 = CAN_RFIFO1_FOVR1; 
1172:Drivers/src/ch32v20x_can.c **** 			break;
1173:Drivers/src/ch32v20x_can.c **** 
1174:Drivers/src/ch32v20x_can.c **** 		case CAN_IT_WKU:
1175:Drivers/src/ch32v20x_can.c **** 			CANx->STATR = CAN_STATR_WKUI;  
1176:Drivers/src/ch32v20x_can.c **** 			break;
1177:Drivers/src/ch32v20x_can.c **** 
GAS LISTING C:\Users\SOLDER~1\AppData\Local\Temp\ccYCTqm0.s 			page 75


1178:Drivers/src/ch32v20x_can.c **** 		case CAN_IT_SLK:
1179:Drivers/src/ch32v20x_can.c **** 			CANx->STATR = CAN_STATR_SLAKI;   
1180:Drivers/src/ch32v20x_can.c **** 			break;
1181:Drivers/src/ch32v20x_can.c **** 
1182:Drivers/src/ch32v20x_can.c **** 		case CAN_IT_EWG:
1183:Drivers/src/ch32v20x_can.c **** 			CANx->STATR = CAN_STATR_ERRI;
1184:Drivers/src/ch32v20x_can.c **** 			break;
1185:Drivers/src/ch32v20x_can.c **** 
1186:Drivers/src/ch32v20x_can.c **** 		case CAN_IT_EPV:
1187:Drivers/src/ch32v20x_can.c **** 			CANx->STATR = CAN_STATR_ERRI; 
1188:Drivers/src/ch32v20x_can.c **** 			break;
1189:Drivers/src/ch32v20x_can.c **** 
1190:Drivers/src/ch32v20x_can.c **** 		case CAN_IT_BOF:
1191:Drivers/src/ch32v20x_can.c **** 			CANx->STATR = CAN_STATR_ERRI; 
1192:Drivers/src/ch32v20x_can.c **** 			break;
1193:Drivers/src/ch32v20x_can.c **** 
1194:Drivers/src/ch32v20x_can.c **** 		case CAN_IT_LEC:
1195:Drivers/src/ch32v20x_can.c **** 			CANx->ERRSR = RESET; 
1196:Drivers/src/ch32v20x_can.c **** 			CANx->STATR = CAN_STATR_ERRI; 
1197:Drivers/src/ch32v20x_can.c **** 			break;
1198:Drivers/src/ch32v20x_can.c **** 
1199:Drivers/src/ch32v20x_can.c **** 		case CAN_IT_ERR:
1200:Drivers/src/ch32v20x_can.c **** 			CANx->ERRSR = RESET; 
1201:Drivers/src/ch32v20x_can.c **** 			CANx->STATR = CAN_STATR_ERRI; 
1202:Drivers/src/ch32v20x_can.c **** 			break;
1203:Drivers/src/ch32v20x_can.c **** 
1204:Drivers/src/ch32v20x_can.c **** 		default :
1205:Drivers/src/ch32v20x_can.c **** 			break;
 2968              		.loc 1 1205 4
 2969 0108 79A0     		j	.L189
 2970              	.L186:
1155:Drivers/src/ch32v20x_can.c **** 			break;
 2971              		.loc 1 1155 17
 2972 010a 8327C4FE 		lw	a5,-20(s0)
 2973 010e 4167     		li	a4,65536
 2974 0110 13071710 		addi	a4,a4,257
 2975 0114 98C7     		sw	a4,8(a5)
1156:Drivers/src/ch32v20x_can.c **** 
 2976              		.loc 1 1156 4
 2977 0116 49A0     		j	.L188
 2978              	.L187:
1159:Drivers/src/ch32v20x_can.c **** 			break;
 2979              		.loc 1 1159 17
 2980 0118 8327C4FE 		lw	a5,-20(s0)
 2981 011c 2147     		li	a4,8
 2982 011e D8C7     		sw	a4,12(a5)
1160:Drivers/src/ch32v20x_can.c **** 
 2983              		.loc 1 1160 4
 2984 0120 A5A8     		j	.L188
 2985              	.L185:
1163:Drivers/src/ch32v20x_can.c **** 			break;
 2986              		.loc 1 1163 17
 2987 0122 8327C4FE 		lw	a5,-20(s0)
 2988 0126 4147     		li	a4,16
 2989 0128 D8C7     		sw	a4,12(a5)
1164:Drivers/src/ch32v20x_can.c **** 
 2990              		.loc 1 1164 4
GAS LISTING C:\Users\SOLDER~1\AppData\Local\Temp\ccYCTqm0.s 			page 76


 2991 012a BDA0     		j	.L188
 2992              	.L184:
1167:Drivers/src/ch32v20x_can.c **** 			break;
 2993              		.loc 1 1167 17
 2994 012c 8327C4FE 		lw	a5,-20(s0)
 2995 0130 2147     		li	a4,8
 2996 0132 98CB     		sw	a4,16(a5)
1168:Drivers/src/ch32v20x_can.c **** 
 2997              		.loc 1 1168 4
 2998 0134 95A0     		j	.L188
 2999              	.L183:
1171:Drivers/src/ch32v20x_can.c **** 			break;
 3000              		.loc 1 1171 17
 3001 0136 8327C4FE 		lw	a5,-20(s0)
 3002 013a 4147     		li	a4,16
 3003 013c 98CB     		sw	a4,16(a5)
1172:Drivers/src/ch32v20x_can.c **** 
 3004              		.loc 1 1172 4
 3005 013e A9A8     		j	.L188
 3006              	.L177:
1175:Drivers/src/ch32v20x_can.c **** 			break;
 3007              		.loc 1 1175 16
 3008 0140 8327C4FE 		lw	a5,-20(s0)
 3009 0144 2147     		li	a4,8
 3010 0146 D8C3     		sw	a4,4(a5)
1176:Drivers/src/ch32v20x_can.c **** 
 3011              		.loc 1 1176 4
 3012 0148 81A8     		j	.L188
 3013              	.L175:
1179:Drivers/src/ch32v20x_can.c **** 			break;
 3014              		.loc 1 1179 16
 3015 014a 8327C4FE 		lw	a5,-20(s0)
 3016 014e 4147     		li	a4,16
 3017 0150 D8C3     		sw	a4,4(a5)
1180:Drivers/src/ch32v20x_can.c **** 
 3018              		.loc 1 1180 4
 3019 0152 99A0     		j	.L188
 3020              	.L182:
1183:Drivers/src/ch32v20x_can.c **** 			break;
 3021              		.loc 1 1183 16
 3022 0154 8327C4FE 		lw	a5,-20(s0)
 3023 0158 1147     		li	a4,4
 3024 015a D8C3     		sw	a4,4(a5)
1184:Drivers/src/ch32v20x_can.c **** 
 3025              		.loc 1 1184 4
 3026 015c 35A8     		j	.L188
 3027              	.L181:
1187:Drivers/src/ch32v20x_can.c **** 			break;
 3028              		.loc 1 1187 16
 3029 015e 8327C4FE 		lw	a5,-20(s0)
 3030 0162 1147     		li	a4,4
 3031 0164 D8C3     		sw	a4,4(a5)
1188:Drivers/src/ch32v20x_can.c **** 
 3032              		.loc 1 1188 4
 3033 0166 0DA8     		j	.L188
 3034              	.L180:
1191:Drivers/src/ch32v20x_can.c **** 			break;
GAS LISTING C:\Users\SOLDER~1\AppData\Local\Temp\ccYCTqm0.s 			page 77


 3035              		.loc 1 1191 16
 3036 0168 8327C4FE 		lw	a5,-20(s0)
 3037 016c 1147     		li	a4,4
 3038 016e D8C3     		sw	a4,4(a5)
1192:Drivers/src/ch32v20x_can.c **** 
 3039              		.loc 1 1192 4
 3040 0170 25A0     		j	.L188
 3041              	.L179:
1195:Drivers/src/ch32v20x_can.c **** 			CANx->STATR = CAN_STATR_ERRI; 
 3042              		.loc 1 1195 16
 3043 0172 8327C4FE 		lw	a5,-20(s0)
 3044 0176 23AC0700 		sw	zero,24(a5)
1196:Drivers/src/ch32v20x_can.c **** 			break;
 3045              		.loc 1 1196 16
 3046 017a 8327C4FE 		lw	a5,-20(s0)
 3047 017e 1147     		li	a4,4
 3048 0180 D8C3     		sw	a4,4(a5)
1197:Drivers/src/ch32v20x_can.c **** 
 3049              		.loc 1 1197 4
 3050 0182 19A8     		j	.L188
 3051              	.L178:
1200:Drivers/src/ch32v20x_can.c **** 			CANx->STATR = CAN_STATR_ERRI; 
 3052              		.loc 1 1200 16
 3053 0184 8327C4FE 		lw	a5,-20(s0)
 3054 0188 23AC0700 		sw	zero,24(a5)
1201:Drivers/src/ch32v20x_can.c **** 			break;
 3055              		.loc 1 1201 16
 3056 018c 8327C4FE 		lw	a5,-20(s0)
 3057 0190 1147     		li	a4,4
 3058 0192 D8C3     		sw	a4,4(a5)
1202:Drivers/src/ch32v20x_can.c **** 
 3059              		.loc 1 1202 4
 3060 0194 11A0     		j	.L188
 3061              	.L189:
 3062              		.loc 1 1205 4
 3063 0196 0100     		nop
 3064              	.L188:
1206:Drivers/src/ch32v20x_can.c **** 	}
1207:Drivers/src/ch32v20x_can.c **** }
 3065              		.loc 1 1207 1
 3066 0198 0100     		nop
 3067 019a 7244     		lw	s0,28(sp)
 3068              		.cfi_restore 8
 3069              		.cfi_def_cfa 2, 32
 3070 019c 0561     		addi	sp,sp,32
 3071              		.cfi_def_cfa_offset 0
 3072 019e 8280     		jr	ra
 3073              		.cfi_endproc
 3074              	.LFE39:
 3076              		.section	.text.CheckITStatus,"ax",@progbits
 3077              		.align	1
 3079              	CheckITStatus:
 3080              	.LFB40:
1208:Drivers/src/ch32v20x_can.c **** 
1209:Drivers/src/ch32v20x_can.c **** /*********************************************************************
1210:Drivers/src/ch32v20x_can.c ****  * @fn      CheckITStatus
1211:Drivers/src/ch32v20x_can.c ****  *
GAS LISTING C:\Users\SOLDER~1\AppData\Local\Temp\ccYCTqm0.s 			page 78


1212:Drivers/src/ch32v20x_can.c ****  * @brief   Checks whether the CAN interrupt has occurred or not.
1213:Drivers/src/ch32v20x_can.c ****  *
1214:Drivers/src/ch32v20x_can.c ****  * @param   CAN_Reg - specifies the CAN interrupt register to check
1215:Drivers/src/ch32v20x_can.c ****  *          It_Bit - specifies the interrupt source bit to check.
1216:Drivers/src/ch32v20x_can.c ****  *
1217:Drivers/src/ch32v20x_can.c ****  * @return  ITStatus - SET or RESET.
1218:Drivers/src/ch32v20x_can.c ****  */
1219:Drivers/src/ch32v20x_can.c **** static ITStatus CheckITStatus(uint32_t CAN_Reg, uint32_t It_Bit)
1220:Drivers/src/ch32v20x_can.c **** {
 3081              		.loc 1 1220 1
 3082              		.cfi_startproc
 3083 0000 7971     		addi	sp,sp,-48
 3084              		.cfi_def_cfa_offset 48
 3085 0002 22D6     		sw	s0,44(sp)
 3086              		.cfi_offset 8, -4
 3087 0004 0018     		addi	s0,sp,48
 3088              		.cfi_def_cfa 8, 0
 3089 0006 232EA4FC 		sw	a0,-36(s0)
 3090 000a 232CB4FC 		sw	a1,-40(s0)
1221:Drivers/src/ch32v20x_can.c ****   ITStatus pendingbitstatus = RESET;
 3091              		.loc 1 1221 12
 3092 000e 232604FE 		sw	zero,-20(s0)
1222:Drivers/src/ch32v20x_can.c ****   
1223:Drivers/src/ch32v20x_can.c ****   if ((CAN_Reg & It_Bit) != (uint32_t)RESET)
 3093              		.loc 1 1223 16
 3094 0012 0327C4FD 		lw	a4,-36(s0)
 3095 0016 832784FD 		lw	a5,-40(s0)
 3096 001a F98F     		and	a5,a4,a5
 3097              		.loc 1 1223 6
 3098 001c 89C7     		beq	a5,zero,.L191
1224:Drivers/src/ch32v20x_can.c ****   {
1225:Drivers/src/ch32v20x_can.c ****     pendingbitstatus = SET;
 3099              		.loc 1 1225 22
 3100 001e 8547     		li	a5,1
 3101 0020 2326F4FE 		sw	a5,-20(s0)
 3102 0024 19A0     		j	.L192
 3103              	.L191:
1226:Drivers/src/ch32v20x_can.c ****   }
1227:Drivers/src/ch32v20x_can.c ****   else
1228:Drivers/src/ch32v20x_can.c ****   {
1229:Drivers/src/ch32v20x_can.c ****     pendingbitstatus = RESET;
 3104              		.loc 1 1229 22
 3105 0026 232604FE 		sw	zero,-20(s0)
 3106              	.L192:
1230:Drivers/src/ch32v20x_can.c ****   }
1231:Drivers/src/ch32v20x_can.c **** 	
1232:Drivers/src/ch32v20x_can.c ****   return pendingbitstatus;
 3107              		.loc 1 1232 10
 3108 002a 8327C4FE 		lw	a5,-20(s0)
1233:Drivers/src/ch32v20x_can.c **** }
 3109              		.loc 1 1233 1
 3110 002e 3E85     		mv	a0,a5
 3111 0030 3254     		lw	s0,44(sp)
 3112              		.cfi_restore 8
 3113              		.cfi_def_cfa 2, 48
 3114 0032 4561     		addi	sp,sp,48
 3115              		.cfi_def_cfa_offset 0
GAS LISTING C:\Users\SOLDER~1\AppData\Local\Temp\ccYCTqm0.s 			page 79


 3116 0034 8280     		jr	ra
 3117              		.cfi_endproc
 3118              	.LFE40:
 3120              		.text
 3121              	.Letext0:
 3122              		.file 2 "c:\\dev_tools\\ch32_tools\\risc-v_embedded_gcc12\\riscv-none-elf\\include\\machine\\_defa
 3123              		.file 3 "c:\\dev_tools\\ch32_tools\\risc-v_embedded_gcc12\\riscv-none-elf\\include\\sys\\_stdint.h
 3124              		.file 4 "Drivers/inc/core_riscv.h"
 3125              		.file 5 "Drivers/inc/ch32v20x.h"
 3126              		.file 6 "Drivers/inc/ch32v20x_can.h"
 3127              		.file 7 "Drivers/inc/ch32v20x_rcc.h"
GAS LISTING C:\Users\SOLDER~1\AppData\Local\Temp\ccYCTqm0.s 			page 80


DEFINED SYMBOLS
                            *ABS*:0000000000000000 ch32v20x_can.c
C:\Users\SOLDER~1\AppData\Local\Temp\ccYCTqm0.s:14     .text.CAN_DeInit:0000000000000000 CAN_DeInit
C:\Users\SOLDER~1\AppData\Local\Temp\ccYCTqm0.s:18     .text.CAN_DeInit:0000000000000000 .L0 
C:\Users\SOLDER~1\AppData\Local\Temp\ccYCTqm0.s:19     .text.CAN_DeInit:0000000000000000 $x
C:\Users\SOLDER~1\AppData\Local\Temp\ccYCTqm0.s:19     .text.CAN_DeInit:0000000000000000 .L0 
C:\Users\SOLDER~1\AppData\Local\Temp\ccYCTqm0.s:20     .text.CAN_DeInit:0000000000000002 .L0 
C:\Users\SOLDER~1\AppData\Local\Temp\ccYCTqm0.s:23     .text.CAN_DeInit:0000000000000006 .L0 
C:\Users\SOLDER~1\AppData\Local\Temp\ccYCTqm0.s:24     .text.CAN_DeInit:0000000000000006 .L0 
C:\Users\SOLDER~1\AppData\Local\Temp\ccYCTqm0.s:26     .text.CAN_DeInit:0000000000000008 .L0 
C:\Users\SOLDER~1\AppData\Local\Temp\ccYCTqm0.s:29     .text.CAN_DeInit:000000000000000c .L0 
C:\Users\SOLDER~1\AppData\Local\Temp\ccYCTqm0.s:34     .text.CAN_DeInit:000000000000001c .L0 
C:\Users\SOLDER~1\AppData\Local\Temp\ccYCTqm0.s:38     .text.CAN_DeInit:000000000000002a .L0 
C:\Users\SOLDER~1\AppData\Local\Temp\ccYCTqm0.s:42     .text.CAN_DeInit:0000000000000038 .L0 
C:\Users\SOLDER~1\AppData\Local\Temp\ccYCTqm0.s:45     .text.CAN_DeInit:000000000000003a .L0 
C:\Users\SOLDER~1\AppData\Local\Temp\ccYCTqm0.s:49     .text.CAN_DeInit:0000000000000048 .L0 
C:\Users\SOLDER~1\AppData\Local\Temp\ccYCTqm0.s:54     .text.CAN_DeInit:0000000000000056 .L0 
C:\Users\SOLDER~1\AppData\Local\Temp\ccYCTqm0.s:56     .text.CAN_DeInit:000000000000005a .L0 
C:\Users\SOLDER~1\AppData\Local\Temp\ccYCTqm0.s:58     .text.CAN_DeInit:000000000000005c .L0 
C:\Users\SOLDER~1\AppData\Local\Temp\ccYCTqm0.s:59     .text.CAN_DeInit:000000000000005c .L0 
C:\Users\SOLDER~1\AppData\Local\Temp\ccYCTqm0.s:61     .text.CAN_DeInit:000000000000005e .L0 
C:\Users\SOLDER~1\AppData\Local\Temp\ccYCTqm0.s:63     .text.CAN_DeInit:0000000000000060 .L0 
C:\Users\SOLDER~1\AppData\Local\Temp\ccYCTqm0.s:70     .text.CAN_Init:0000000000000000 CAN_Init
C:\Users\SOLDER~1\AppData\Local\Temp\ccYCTqm0.s:73     .text.CAN_Init:0000000000000000 .L0 
C:\Users\SOLDER~1\AppData\Local\Temp\ccYCTqm0.s:74     .text.CAN_Init:0000000000000000 $x
C:\Users\SOLDER~1\AppData\Local\Temp\ccYCTqm0.s:74     .text.CAN_Init:0000000000000000 .L0 
C:\Users\SOLDER~1\AppData\Local\Temp\ccYCTqm0.s:75     .text.CAN_Init:0000000000000002 .L0 
C:\Users\SOLDER~1\AppData\Local\Temp\ccYCTqm0.s:77     .text.CAN_Init:0000000000000004 .L0 
C:\Users\SOLDER~1\AppData\Local\Temp\ccYCTqm0.s:79     .text.CAN_Init:0000000000000006 .L0 
C:\Users\SOLDER~1\AppData\Local\Temp\ccYCTqm0.s:83     .text.CAN_Init:000000000000000e .L0 
C:\Users\SOLDER~1\AppData\Local\Temp\ccYCTqm0.s:85     .text.CAN_Init:0000000000000012 .L0 
C:\Users\SOLDER~1\AppData\Local\Temp\ccYCTqm0.s:87     .text.CAN_Init:0000000000000016 .L0 
C:\Users\SOLDER~1\AppData\Local\Temp\ccYCTqm0.s:90     .text.CAN_Init:000000000000001c .L0 
C:\Users\SOLDER~1\AppData\Local\Temp\ccYCTqm0.s:94     .text.CAN_Init:0000000000000026 .L0 
C:\Users\SOLDER~1\AppData\Local\Temp\ccYCTqm0.s:97     .text.CAN_Init:000000000000002c .L0 
C:\Users\SOLDER~1\AppData\Local\Temp\ccYCTqm0.s:101    .text.CAN_Init:0000000000000036 .L0 
C:\Users\SOLDER~1\AppData\Local\Temp\ccYCTqm0.s:104    .text.CAN_Init:0000000000000038 .L0 
C:\Users\SOLDER~1\AppData\Local\Temp\ccYCTqm0.s:109    .text.CAN_Init:0000000000000042 .L0 
C:\Users\SOLDER~1\AppData\Local\Temp\ccYCTqm0.s:112    .text.CAN_Init:0000000000000048 .L0 
C:\Users\SOLDER~1\AppData\Local\Temp\ccYCTqm0.s:114    .text.CAN_Init:000000000000004c .L0 
C:\Users\SOLDER~1\AppData\Local\Temp\ccYCTqm0.s:117    .text.CAN_Init:0000000000000052 .L0 
C:\Users\SOLDER~1\AppData\Local\Temp\ccYCTqm0.s:123    .text.CAN_Init:000000000000005e .L0 
C:\Users\SOLDER~1\AppData\Local\Temp\ccYCTqm0.s:126    .text.CAN_Init:0000000000000064 .L0 
C:\Users\SOLDER~1\AppData\Local\Temp\ccYCTqm0.s:128    .text.CAN_Init:0000000000000068 .L0 
C:\Users\SOLDER~1\AppData\Local\Temp\ccYCTqm0.s:131    .text.CAN_Init:000000000000006e .L0 
C:\Users\SOLDER~1\AppData\Local\Temp\ccYCTqm0.s:135    .text.CAN_Init:0000000000000074 .L0 
C:\Users\SOLDER~1\AppData\Local\Temp\ccYCTqm0.s:138    .text.CAN_Init:000000000000007a .L0 
C:\Users\SOLDER~1\AppData\Local\Temp\ccYCTqm0.s:141    .text.CAN_Init:0000000000000080 .L0 
C:\Users\SOLDER~1\AppData\Local\Temp\ccYCTqm0.s:144    .text.CAN_Init:0000000000000086 .L0 
C:\Users\SOLDER~1\AppData\Local\Temp\ccYCTqm0.s:150    .text.CAN_Init:0000000000000092 .L0 
C:\Users\SOLDER~1\AppData\Local\Temp\ccYCTqm0.s:153    .text.CAN_Init:0000000000000098 .L0 
C:\Users\SOLDER~1\AppData\Local\Temp\ccYCTqm0.s:158    .text.CAN_Init:00000000000000a2 .L0 
C:\Users\SOLDER~1\AppData\Local\Temp\ccYCTqm0.s:161    .text.CAN_Init:00000000000000a8 .L0 
C:\Users\SOLDER~1\AppData\Local\Temp\ccYCTqm0.s:164    .text.CAN_Init:00000000000000ae .L0 
C:\Users\SOLDER~1\AppData\Local\Temp\ccYCTqm0.s:167    .text.CAN_Init:00000000000000b4 .L0 
C:\Users\SOLDER~1\AppData\Local\Temp\ccYCTqm0.s:173    .text.CAN_Init:00000000000000c0 .L0 
C:\Users\SOLDER~1\AppData\Local\Temp\ccYCTqm0.s:176    .text.CAN_Init:00000000000000c6 .L0 
GAS LISTING C:\Users\SOLDER~1\AppData\Local\Temp\ccYCTqm0.s 			page 81


C:\Users\SOLDER~1\AppData\Local\Temp\ccYCTqm0.s:181    .text.CAN_Init:00000000000000d0 .L0 
C:\Users\SOLDER~1\AppData\Local\Temp\ccYCTqm0.s:184    .text.CAN_Init:00000000000000d6 .L0 
C:\Users\SOLDER~1\AppData\Local\Temp\ccYCTqm0.s:187    .text.CAN_Init:00000000000000dc .L0 
C:\Users\SOLDER~1\AppData\Local\Temp\ccYCTqm0.s:190    .text.CAN_Init:00000000000000e2 .L0 
C:\Users\SOLDER~1\AppData\Local\Temp\ccYCTqm0.s:196    .text.CAN_Init:00000000000000ee .L0 
C:\Users\SOLDER~1\AppData\Local\Temp\ccYCTqm0.s:199    .text.CAN_Init:00000000000000f4 .L0 
C:\Users\SOLDER~1\AppData\Local\Temp\ccYCTqm0.s:204    .text.CAN_Init:00000000000000fe .L0 
C:\Users\SOLDER~1\AppData\Local\Temp\ccYCTqm0.s:207    .text.CAN_Init:0000000000000104 .L0 
C:\Users\SOLDER~1\AppData\Local\Temp\ccYCTqm0.s:210    .text.CAN_Init:000000000000010a .L0 
C:\Users\SOLDER~1\AppData\Local\Temp\ccYCTqm0.s:213    .text.CAN_Init:0000000000000110 .L0 
C:\Users\SOLDER~1\AppData\Local\Temp\ccYCTqm0.s:219    .text.CAN_Init:000000000000011c .L0 
C:\Users\SOLDER~1\AppData\Local\Temp\ccYCTqm0.s:222    .text.CAN_Init:0000000000000122 .L0 
C:\Users\SOLDER~1\AppData\Local\Temp\ccYCTqm0.s:227    .text.CAN_Init:000000000000012c .L0 
C:\Users\SOLDER~1\AppData\Local\Temp\ccYCTqm0.s:230    .text.CAN_Init:0000000000000132 .L0 
C:\Users\SOLDER~1\AppData\Local\Temp\ccYCTqm0.s:233    .text.CAN_Init:0000000000000138 .L0 
C:\Users\SOLDER~1\AppData\Local\Temp\ccYCTqm0.s:236    .text.CAN_Init:000000000000013e .L0 
C:\Users\SOLDER~1\AppData\Local\Temp\ccYCTqm0.s:242    .text.CAN_Init:000000000000014a .L0 
C:\Users\SOLDER~1\AppData\Local\Temp\ccYCTqm0.s:245    .text.CAN_Init:0000000000000150 .L0 
C:\Users\SOLDER~1\AppData\Local\Temp\ccYCTqm0.s:250    .text.CAN_Init:000000000000015a .L0 
C:\Users\SOLDER~1\AppData\Local\Temp\ccYCTqm0.s:253    .text.CAN_Init:0000000000000160 .L0 
C:\Users\SOLDER~1\AppData\Local\Temp\ccYCTqm0.s:256    .text.CAN_Init:0000000000000166 .L0 
C:\Users\SOLDER~1\AppData\Local\Temp\ccYCTqm0.s:259    .text.CAN_Init:000000000000016c .L0 
C:\Users\SOLDER~1\AppData\Local\Temp\ccYCTqm0.s:265    .text.CAN_Init:0000000000000178 .L0 
C:\Users\SOLDER~1\AppData\Local\Temp\ccYCTqm0.s:268    .text.CAN_Init:000000000000017e .L0 
C:\Users\SOLDER~1\AppData\Local\Temp\ccYCTqm0.s:273    .text.CAN_Init:0000000000000188 .L0 
C:\Users\SOLDER~1\AppData\Local\Temp\ccYCTqm0.s:276    .text.CAN_Init:000000000000018e .L0 
C:\Users\SOLDER~1\AppData\Local\Temp\ccYCTqm0.s:278    .text.CAN_Init:0000000000000192 .L0 
C:\Users\SOLDER~1\AppData\Local\Temp\ccYCTqm0.s:281    .text.CAN_Init:0000000000000198 .L0 
C:\Users\SOLDER~1\AppData\Local\Temp\ccYCTqm0.s:283    .text.CAN_Init:000000000000019a .L0 
C:\Users\SOLDER~1\AppData\Local\Temp\ccYCTqm0.s:285    .text.CAN_Init:000000000000019c .L0 
C:\Users\SOLDER~1\AppData\Local\Temp\ccYCTqm0.s:288    .text.CAN_Init:00000000000001a2 .L0 
C:\Users\SOLDER~1\AppData\Local\Temp\ccYCTqm0.s:290    .text.CAN_Init:00000000000001a4 .L0 
C:\Users\SOLDER~1\AppData\Local\Temp\ccYCTqm0.s:292    .text.CAN_Init:00000000000001a6 .L0 
C:\Users\SOLDER~1\AppData\Local\Temp\ccYCTqm0.s:295    .text.CAN_Init:00000000000001ac .L0 
C:\Users\SOLDER~1\AppData\Local\Temp\ccYCTqm0.s:297    .text.CAN_Init:00000000000001ae .L0 
C:\Users\SOLDER~1\AppData\Local\Temp\ccYCTqm0.s:299    .text.CAN_Init:00000000000001b0 .L0 
C:\Users\SOLDER~1\AppData\Local\Temp\ccYCTqm0.s:302    .text.CAN_Init:00000000000001b6 .L0 
C:\Users\SOLDER~1\AppData\Local\Temp\ccYCTqm0.s:304    .text.CAN_Init:00000000000001b8 .L0 
C:\Users\SOLDER~1\AppData\Local\Temp\ccYCTqm0.s:306    .text.CAN_Init:00000000000001ba .L0 
C:\Users\SOLDER~1\AppData\Local\Temp\ccYCTqm0.s:309    .text.CAN_Init:00000000000001c0 .L0 
C:\Users\SOLDER~1\AppData\Local\Temp\ccYCTqm0.s:312    .text.CAN_Init:00000000000001c6 .L0 
C:\Users\SOLDER~1\AppData\Local\Temp\ccYCTqm0.s:316    .text.CAN_Init:00000000000001d0 .L0 
C:\Users\SOLDER~1\AppData\Local\Temp\ccYCTqm0.s:318    .text.CAN_Init:00000000000001d4 .L0 
C:\Users\SOLDER~1\AppData\Local\Temp\ccYCTqm0.s:321    .text.CAN_Init:00000000000001d6 .L0 
C:\Users\SOLDER~1\AppData\Local\Temp\ccYCTqm0.s:326    .text.CAN_Init:00000000000001e0 .L0 
C:\Users\SOLDER~1\AppData\Local\Temp\ccYCTqm0.s:329    .text.CAN_Init:00000000000001e6 .L0 
C:\Users\SOLDER~1\AppData\Local\Temp\ccYCTqm0.s:331    .text.CAN_Init:00000000000001ea .L0 
C:\Users\SOLDER~1\AppData\Local\Temp\ccYCTqm0.s:334    .text.CAN_Init:00000000000001f0 .L0 
C:\Users\SOLDER~1\AppData\Local\Temp\ccYCTqm0.s:340    .text.CAN_Init:00000000000001fc .L0 
C:\Users\SOLDER~1\AppData\Local\Temp\ccYCTqm0.s:343    .text.CAN_Init:0000000000000202 .L0 
C:\Users\SOLDER~1\AppData\Local\Temp\ccYCTqm0.s:345    .text.CAN_Init:0000000000000206 .L0 
C:\Users\SOLDER~1\AppData\Local\Temp\ccYCTqm0.s:348    .text.CAN_Init:000000000000020c .L0 
C:\Users\SOLDER~1\AppData\Local\Temp\ccYCTqm0.s:352    .text.CAN_Init:0000000000000212 .L0 
C:\Users\SOLDER~1\AppData\Local\Temp\ccYCTqm0.s:356    .text.CAN_Init:0000000000000218 .L0 
C:\Users\SOLDER~1\AppData\Local\Temp\ccYCTqm0.s:358    .text.CAN_Init:000000000000021c .L0 
C:\Users\SOLDER~1\AppData\Local\Temp\ccYCTqm0.s:360    .text.CAN_Init:0000000000000220 .L0 
C:\Users\SOLDER~1\AppData\Local\Temp\ccYCTqm0.s:361    .text.CAN_Init:0000000000000220 .L0 
GAS LISTING C:\Users\SOLDER~1\AppData\Local\Temp\ccYCTqm0.s 			page 82


C:\Users\SOLDER~1\AppData\Local\Temp\ccYCTqm0.s:363    .text.CAN_Init:0000000000000222 .L0 
C:\Users\SOLDER~1\AppData\Local\Temp\ccYCTqm0.s:365    .text.CAN_Init:0000000000000224 .L0 
C:\Users\SOLDER~1\AppData\Local\Temp\ccYCTqm0.s:372    .text.CAN_FilterInit:0000000000000000 CAN_FilterInit
C:\Users\SOLDER~1\AppData\Local\Temp\ccYCTqm0.s:375    .text.CAN_FilterInit:0000000000000000 .L0 
C:\Users\SOLDER~1\AppData\Local\Temp\ccYCTqm0.s:376    .text.CAN_FilterInit:0000000000000000 $x
C:\Users\SOLDER~1\AppData\Local\Temp\ccYCTqm0.s:376    .text.CAN_FilterInit:0000000000000000 .L0 
C:\Users\SOLDER~1\AppData\Local\Temp\ccYCTqm0.s:377    .text.CAN_FilterInit:0000000000000002 .L0 
C:\Users\SOLDER~1\AppData\Local\Temp\ccYCTqm0.s:379    .text.CAN_FilterInit:0000000000000004 .L0 
C:\Users\SOLDER~1\AppData\Local\Temp\ccYCTqm0.s:381    .text.CAN_FilterInit:0000000000000006 .L0 
C:\Users\SOLDER~1\AppData\Local\Temp\ccYCTqm0.s:384    .text.CAN_FilterInit:000000000000000a .L0 
C:\Users\SOLDER~1\AppData\Local\Temp\ccYCTqm0.s:386    .text.CAN_FilterInit:000000000000000e .L0 
C:\Users\SOLDER~1\AppData\Local\Temp\ccYCTqm0.s:390    .text.CAN_FilterInit:0000000000000016 .L0 
C:\Users\SOLDER~1\AppData\Local\Temp\ccYCTqm0.s:394    .text.CAN_FilterInit:0000000000000020 .L0 
C:\Users\SOLDER~1\AppData\Local\Temp\ccYCTqm0.s:400    .text.CAN_FilterInit:0000000000000034 .L0 
C:\Users\SOLDER~1\AppData\Local\Temp\ccYCTqm0.s:403    .text.CAN_FilterInit:000000000000003c .L0 
C:\Users\SOLDER~1\AppData\Local\Temp\ccYCTqm0.s:407    .text.CAN_FilterInit:0000000000000048 .L0 
C:\Users\SOLDER~1\AppData\Local\Temp\ccYCTqm0.s:410    .text.CAN_FilterInit:0000000000000050 .L0 
C:\Users\SOLDER~1\AppData\Local\Temp\ccYCTqm0.s:413    .text.CAN_FilterInit:0000000000000058 .L0 
C:\Users\SOLDER~1\AppData\Local\Temp\ccYCTqm0.s:416    .text.CAN_FilterInit:000000000000005e .L0 
C:\Users\SOLDER~1\AppData\Local\Temp\ccYCTqm0.s:419    .text.CAN_FilterInit:0000000000000064 .L0 
C:\Users\SOLDER~1\AppData\Local\Temp\ccYCTqm0.s:421    .text.CAN_FilterInit:0000000000000066 .L0 
C:\Users\SOLDER~1\AppData\Local\Temp\ccYCTqm0.s:425    .text.CAN_FilterInit:0000000000000072 .L0 
C:\Users\SOLDER~1\AppData\Local\Temp\ccYCTqm0.s:428    .text.CAN_FilterInit:000000000000007a .L0 
C:\Users\SOLDER~1\AppData\Local\Temp\ccYCTqm0.s:431    .text.CAN_FilterInit:0000000000000082 .L0 
C:\Users\SOLDER~1\AppData\Local\Temp\ccYCTqm0.s:434    .text.CAN_FilterInit:0000000000000088 .L0 
C:\Users\SOLDER~1\AppData\Local\Temp\ccYCTqm0.s:437    .text.CAN_FilterInit:000000000000008e .L0 
C:\Users\SOLDER~1\AppData\Local\Temp\ccYCTqm0.s:439    .text.CAN_FilterInit:0000000000000090 .L0 
C:\Users\SOLDER~1\AppData\Local\Temp\ccYCTqm0.s:442    .text.CAN_FilterInit:0000000000000096 .L0 
C:\Users\SOLDER~1\AppData\Local\Temp\ccYCTqm0.s:444    .text.CAN_FilterInit:0000000000000098 .L0 
C:\Users\SOLDER~1\AppData\Local\Temp\ccYCTqm0.s:447    .text.CAN_FilterInit:00000000000000a0 .L0 
C:\Users\SOLDER~1\AppData\Local\Temp\ccYCTqm0.s:451    .text.CAN_FilterInit:00000000000000a8 .L0 
C:\Users\SOLDER~1\AppData\Local\Temp\ccYCTqm0.s:453    .text.CAN_FilterInit:00000000000000ac .L0 
C:\Users\SOLDER~1\AppData\Local\Temp\ccYCTqm0.s:458    .text.CAN_FilterInit:00000000000000b6 .L0 
C:\Users\SOLDER~1\AppData\Local\Temp\ccYCTqm0.s:461    .text.CAN_FilterInit:00000000000000bc .L0 
C:\Users\SOLDER~1\AppData\Local\Temp\ccYCTqm0.s:463    .text.CAN_FilterInit:00000000000000be .L0 
C:\Users\SOLDER~1\AppData\Local\Temp\ccYCTqm0.s:466    .text.CAN_FilterInit:00000000000000c4 .L0 
C:\Users\SOLDER~1\AppData\Local\Temp\ccYCTqm0.s:468    .text.CAN_FilterInit:00000000000000c6 .L0 
C:\Users\SOLDER~1\AppData\Local\Temp\ccYCTqm0.s:471    .text.CAN_FilterInit:00000000000000ce .L0 
C:\Users\SOLDER~1\AppData\Local\Temp\ccYCTqm0.s:475    .text.CAN_FilterInit:00000000000000d6 .L0 
C:\Users\SOLDER~1\AppData\Local\Temp\ccYCTqm0.s:477    .text.CAN_FilterInit:00000000000000da .L0 
C:\Users\SOLDER~1\AppData\Local\Temp\ccYCTqm0.s:483    .text.CAN_FilterInit:00000000000000e4 .L0 
C:\Users\SOLDER~1\AppData\Local\Temp\ccYCTqm0.s:486    .text.CAN_FilterInit:00000000000000ea .L0 
C:\Users\SOLDER~1\AppData\Local\Temp\ccYCTqm0.s:489    .text.CAN_FilterInit:00000000000000f0 .L0 
C:\Users\SOLDER~1\AppData\Local\Temp\ccYCTqm0.s:495    .text.CAN_FilterInit:0000000000000104 .L0 
C:\Users\SOLDER~1\AppData\Local\Temp\ccYCTqm0.s:499    .text.CAN_FilterInit:000000000000010e .L0 
C:\Users\SOLDER~1\AppData\Local\Temp\ccYCTqm0.s:502    .text.CAN_FilterInit:0000000000000114 .L0 
C:\Users\SOLDER~1\AppData\Local\Temp\ccYCTqm0.s:504    .text.CAN_FilterInit:0000000000000116 .L0 
C:\Users\SOLDER~1\AppData\Local\Temp\ccYCTqm0.s:507    .text.CAN_FilterInit:000000000000011c .L0 
C:\Users\SOLDER~1\AppData\Local\Temp\ccYCTqm0.s:509    .text.CAN_FilterInit:000000000000011e .L0 
C:\Users\SOLDER~1\AppData\Local\Temp\ccYCTqm0.s:512    .text.CAN_FilterInit:0000000000000126 .L0 
C:\Users\SOLDER~1\AppData\Local\Temp\ccYCTqm0.s:516    .text.CAN_FilterInit:000000000000012e .L0 
C:\Users\SOLDER~1\AppData\Local\Temp\ccYCTqm0.s:518    .text.CAN_FilterInit:0000000000000132 .L0 
C:\Users\SOLDER~1\AppData\Local\Temp\ccYCTqm0.s:523    .text.CAN_FilterInit:000000000000013c .L0 
C:\Users\SOLDER~1\AppData\Local\Temp\ccYCTqm0.s:526    .text.CAN_FilterInit:0000000000000142 .L0 
C:\Users\SOLDER~1\AppData\Local\Temp\ccYCTqm0.s:528    .text.CAN_FilterInit:0000000000000144 .L0 
C:\Users\SOLDER~1\AppData\Local\Temp\ccYCTqm0.s:531    .text.CAN_FilterInit:000000000000014a .L0 
C:\Users\SOLDER~1\AppData\Local\Temp\ccYCTqm0.s:533    .text.CAN_FilterInit:000000000000014c .L0 
GAS LISTING C:\Users\SOLDER~1\AppData\Local\Temp\ccYCTqm0.s 			page 83


C:\Users\SOLDER~1\AppData\Local\Temp\ccYCTqm0.s:536    .text.CAN_FilterInit:0000000000000154 .L0 
C:\Users\SOLDER~1\AppData\Local\Temp\ccYCTqm0.s:540    .text.CAN_FilterInit:000000000000015c .L0 
C:\Users\SOLDER~1\AppData\Local\Temp\ccYCTqm0.s:542    .text.CAN_FilterInit:0000000000000160 .L0 
C:\Users\SOLDER~1\AppData\Local\Temp\ccYCTqm0.s:548    .text.CAN_FilterInit:000000000000016a .L0 
C:\Users\SOLDER~1\AppData\Local\Temp\ccYCTqm0.s:552    .text.CAN_FilterInit:0000000000000174 .L0 
C:\Users\SOLDER~1\AppData\Local\Temp\ccYCTqm0.s:555    .text.CAN_FilterInit:000000000000017a .L0 
C:\Users\SOLDER~1\AppData\Local\Temp\ccYCTqm0.s:558    .text.CAN_FilterInit:000000000000017c .L0 
C:\Users\SOLDER~1\AppData\Local\Temp\ccYCTqm0.s:560    .text.CAN_FilterInit:0000000000000180 .L0 
C:\Users\SOLDER~1\AppData\Local\Temp\ccYCTqm0.s:563    .text.CAN_FilterInit:0000000000000182 .L0 
C:\Users\SOLDER~1\AppData\Local\Temp\ccYCTqm0.s:569    .text.CAN_FilterInit:0000000000000192 .L0 
C:\Users\SOLDER~1\AppData\Local\Temp\ccYCTqm0.s:571    .text.CAN_FilterInit:0000000000000194 .L0 
C:\Users\SOLDER~1\AppData\Local\Temp\ccYCTqm0.s:577    .text.CAN_FilterInit:00000000000001a4 .L0 
C:\Users\SOLDER~1\AppData\Local\Temp\ccYCTqm0.s:579    .text.CAN_FilterInit:00000000000001a6 .L0 
C:\Users\SOLDER~1\AppData\Local\Temp\ccYCTqm0.s:583    .text.CAN_FilterInit:00000000000001ac .L0 
C:\Users\SOLDER~1\AppData\Local\Temp\ccYCTqm0.s:585    .text.CAN_FilterInit:00000000000001ae .L0 
C:\Users\SOLDER~1\AppData\Local\Temp\ccYCTqm0.s:590    .text.CAN_FilterInit:00000000000001b8 .L0 
C:\Users\SOLDER~1\AppData\Local\Temp\ccYCTqm0.s:596    .text.CAN_FilterInit:00000000000001c4 .L0 
C:\Users\SOLDER~1\AppData\Local\Temp\ccYCTqm0.s:599    .text.CAN_FilterInit:00000000000001ca .L0 
C:\Users\SOLDER~1\AppData\Local\Temp\ccYCTqm0.s:601    .text.CAN_FilterInit:00000000000001cc .L0 
C:\Users\SOLDER~1\AppData\Local\Temp\ccYCTqm0.s:605    .text.CAN_FilterInit:00000000000001d8 .L0 
C:\Users\SOLDER~1\AppData\Local\Temp\ccYCTqm0.s:608    .text.CAN_FilterInit:00000000000001e0 .L0 
C:\Users\SOLDER~1\AppData\Local\Temp\ccYCTqm0.s:611    .text.CAN_FilterInit:00000000000001e8 .L0 
C:\Users\SOLDER~1\AppData\Local\Temp\ccYCTqm0.s:616    .text.CAN_FilterInit:00000000000001f0 .L0 
C:\Users\SOLDER~1\AppData\Local\Temp\ccYCTqm0.s:622    .text.CAN_FilterInit:0000000000000204 .L0 
C:\Users\SOLDER~1\AppData\Local\Temp\ccYCTqm0.s:627    .text.CAN_FilterInit:000000000000020e .L0 
C:\Users\SOLDER~1\AppData\Local\Temp\ccYCTqm0.s:630    .text.CAN_FilterInit:0000000000000214 .L0 
C:\Users\SOLDER~1\AppData\Local\Temp\ccYCTqm0.s:632    .text.CAN_FilterInit:0000000000000216 .L0 
C:\Users\SOLDER~1\AppData\Local\Temp\ccYCTqm0.s:636    .text.CAN_FilterInit:0000000000000222 .L0 
C:\Users\SOLDER~1\AppData\Local\Temp\ccYCTqm0.s:639    .text.CAN_FilterInit:000000000000022a .L0 
C:\Users\SOLDER~1\AppData\Local\Temp\ccYCTqm0.s:642    .text.CAN_FilterInit:0000000000000232 .L0 
C:\Users\SOLDER~1\AppData\Local\Temp\ccYCTqm0.s:646    .text.CAN_FilterInit:0000000000000238 .L0 
C:\Users\SOLDER~1\AppData\Local\Temp\ccYCTqm0.s:649    .text.CAN_FilterInit:000000000000023e .L0 
C:\Users\SOLDER~1\AppData\Local\Temp\ccYCTqm0.s:652    .text.CAN_FilterInit:0000000000000244 .L0 
C:\Users\SOLDER~1\AppData\Local\Temp\ccYCTqm0.s:658    .text.CAN_FilterInit:0000000000000258 .L0 
C:\Users\SOLDER~1\AppData\Local\Temp\ccYCTqm0.s:663    .text.CAN_FilterInit:0000000000000262 .L0 
C:\Users\SOLDER~1\AppData\Local\Temp\ccYCTqm0.s:666    .text.CAN_FilterInit:0000000000000268 .L0 
C:\Users\SOLDER~1\AppData\Local\Temp\ccYCTqm0.s:669    .text.CAN_FilterInit:000000000000026e .L0 
C:\Users\SOLDER~1\AppData\Local\Temp\ccYCTqm0.s:675    .text.CAN_FilterInit:0000000000000282 .L0 
C:\Users\SOLDER~1\AppData\Local\Temp\ccYCTqm0.s:680    .text.CAN_FilterInit:000000000000028c .L0 
C:\Users\SOLDER~1\AppData\Local\Temp\ccYCTqm0.s:686    .text.CAN_FilterInit:00000000000002a0 .L0 
C:\Users\SOLDER~1\AppData\Local\Temp\ccYCTqm0.s:689    .text.CAN_FilterInit:00000000000002a6 .L0 
C:\Users\SOLDER~1\AppData\Local\Temp\ccYCTqm0.s:691    .text.CAN_FilterInit:00000000000002aa .L0 
C:\Users\SOLDER~1\AppData\Local\Temp\ccYCTqm0.s:692    .text.CAN_FilterInit:00000000000002aa .L0 
C:\Users\SOLDER~1\AppData\Local\Temp\ccYCTqm0.s:694    .text.CAN_FilterInit:00000000000002ac .L0 
C:\Users\SOLDER~1\AppData\Local\Temp\ccYCTqm0.s:696    .text.CAN_FilterInit:00000000000002ae .L0 
C:\Users\SOLDER~1\AppData\Local\Temp\ccYCTqm0.s:703    .text.CAN_StructInit:0000000000000000 CAN_StructInit
C:\Users\SOLDER~1\AppData\Local\Temp\ccYCTqm0.s:706    .text.CAN_StructInit:0000000000000000 .L0 
C:\Users\SOLDER~1\AppData\Local\Temp\ccYCTqm0.s:707    .text.CAN_StructInit:0000000000000000 $x
C:\Users\SOLDER~1\AppData\Local\Temp\ccYCTqm0.s:707    .text.CAN_StructInit:0000000000000000 .L0 
C:\Users\SOLDER~1\AppData\Local\Temp\ccYCTqm0.s:708    .text.CAN_StructInit:0000000000000002 .L0 
C:\Users\SOLDER~1\AppData\Local\Temp\ccYCTqm0.s:710    .text.CAN_StructInit:0000000000000004 .L0 
C:\Users\SOLDER~1\AppData\Local\Temp\ccYCTqm0.s:712    .text.CAN_StructInit:0000000000000006 .L0 
C:\Users\SOLDER~1\AppData\Local\Temp\ccYCTqm0.s:715    .text.CAN_StructInit:000000000000000a .L0 
C:\Users\SOLDER~1\AppData\Local\Temp\ccYCTqm0.s:718    .text.CAN_StructInit:0000000000000012 .L0 
C:\Users\SOLDER~1\AppData\Local\Temp\ccYCTqm0.s:721    .text.CAN_StructInit:000000000000001a .L0 
C:\Users\SOLDER~1\AppData\Local\Temp\ccYCTqm0.s:724    .text.CAN_StructInit:0000000000000022 .L0 
C:\Users\SOLDER~1\AppData\Local\Temp\ccYCTqm0.s:727    .text.CAN_StructInit:000000000000002a .L0 
GAS LISTING C:\Users\SOLDER~1\AppData\Local\Temp\ccYCTqm0.s 			page 84


C:\Users\SOLDER~1\AppData\Local\Temp\ccYCTqm0.s:730    .text.CAN_StructInit:0000000000000032 .L0 
C:\Users\SOLDER~1\AppData\Local\Temp\ccYCTqm0.s:733    .text.CAN_StructInit:000000000000003a .L0 
C:\Users\SOLDER~1\AppData\Local\Temp\ccYCTqm0.s:736    .text.CAN_StructInit:0000000000000042 .L0 
C:\Users\SOLDER~1\AppData\Local\Temp\ccYCTqm0.s:739    .text.CAN_StructInit:000000000000004a .L0 
C:\Users\SOLDER~1\AppData\Local\Temp\ccYCTqm0.s:743    .text.CAN_StructInit:0000000000000052 .L0 
C:\Users\SOLDER~1\AppData\Local\Temp\ccYCTqm0.s:747    .text.CAN_StructInit:000000000000005a .L0 
C:\Users\SOLDER~1\AppData\Local\Temp\ccYCTqm0.s:751    .text.CAN_StructInit:0000000000000062 .L0 
C:\Users\SOLDER~1\AppData\Local\Temp\ccYCTqm0.s:753    .text.CAN_StructInit:0000000000000066 .L0 
C:\Users\SOLDER~1\AppData\Local\Temp\ccYCTqm0.s:754    .text.CAN_StructInit:0000000000000066 .L0 
C:\Users\SOLDER~1\AppData\Local\Temp\ccYCTqm0.s:756    .text.CAN_StructInit:0000000000000068 .L0 
C:\Users\SOLDER~1\AppData\Local\Temp\ccYCTqm0.s:758    .text.CAN_StructInit:000000000000006a .L0 
C:\Users\SOLDER~1\AppData\Local\Temp\ccYCTqm0.s:765    .text.CAN_SlaveStartBank:0000000000000000 CAN_SlaveStartBank
C:\Users\SOLDER~1\AppData\Local\Temp\ccYCTqm0.s:768    .text.CAN_SlaveStartBank:0000000000000000 .L0 
C:\Users\SOLDER~1\AppData\Local\Temp\ccYCTqm0.s:769    .text.CAN_SlaveStartBank:0000000000000000 $x
C:\Users\SOLDER~1\AppData\Local\Temp\ccYCTqm0.s:769    .text.CAN_SlaveStartBank:0000000000000000 .L0 
C:\Users\SOLDER~1\AppData\Local\Temp\ccYCTqm0.s:770    .text.CAN_SlaveStartBank:0000000000000002 .L0 
C:\Users\SOLDER~1\AppData\Local\Temp\ccYCTqm0.s:772    .text.CAN_SlaveStartBank:0000000000000004 .L0 
C:\Users\SOLDER~1\AppData\Local\Temp\ccYCTqm0.s:774    .text.CAN_SlaveStartBank:0000000000000006 .L0 
C:\Users\SOLDER~1\AppData\Local\Temp\ccYCTqm0.s:778    .text.CAN_SlaveStartBank:000000000000000c .L0 
C:\Users\SOLDER~1\AppData\Local\Temp\ccYCTqm0.s:784    .text.CAN_SlaveStartBank:0000000000000020 .L0 
C:\Users\SOLDER~1\AppData\Local\Temp\ccYCTqm0.s:787    .text.CAN_SlaveStartBank:0000000000000028 .L0 
C:\Users\SOLDER~1\AppData\Local\Temp\ccYCTqm0.s:793    .text.CAN_SlaveStartBank:000000000000003c .L0 
C:\Users\SOLDER~1\AppData\Local\Temp\ccYCTqm0.s:798    .text.CAN_SlaveStartBank:0000000000000048 .L0 
C:\Users\SOLDER~1\AppData\Local\Temp\ccYCTqm0.s:802    .text.CAN_SlaveStartBank:0000000000000054 .L0 
C:\Users\SOLDER~1\AppData\Local\Temp\ccYCTqm0.s:804    .text.CAN_SlaveStartBank:0000000000000058 .L0 
C:\Users\SOLDER~1\AppData\Local\Temp\ccYCTqm0.s:806    .text.CAN_SlaveStartBank:000000000000005c .L0 
C:\Users\SOLDER~1\AppData\Local\Temp\ccYCTqm0.s:809    .text.CAN_SlaveStartBank:0000000000000064 .L0 
C:\Users\SOLDER~1\AppData\Local\Temp\ccYCTqm0.s:812    .text.CAN_SlaveStartBank:000000000000006a .L0 
C:\Users\SOLDER~1\AppData\Local\Temp\ccYCTqm0.s:818    .text.CAN_SlaveStartBank:000000000000007e .L0 
C:\Users\SOLDER~1\AppData\Local\Temp\ccYCTqm0.s:821    .text.CAN_SlaveStartBank:0000000000000084 .L0 
C:\Users\SOLDER~1\AppData\Local\Temp\ccYCTqm0.s:823    .text.CAN_SlaveStartBank:0000000000000088 .L0 
C:\Users\SOLDER~1\AppData\Local\Temp\ccYCTqm0.s:824    .text.CAN_SlaveStartBank:0000000000000088 .L0 
C:\Users\SOLDER~1\AppData\Local\Temp\ccYCTqm0.s:826    .text.CAN_SlaveStartBank:000000000000008a .L0 
C:\Users\SOLDER~1\AppData\Local\Temp\ccYCTqm0.s:828    .text.CAN_SlaveStartBank:000000000000008c .L0 
C:\Users\SOLDER~1\AppData\Local\Temp\ccYCTqm0.s:835    .text.CAN_DBGFreeze:0000000000000000 CAN_DBGFreeze
C:\Users\SOLDER~1\AppData\Local\Temp\ccYCTqm0.s:838    .text.CAN_DBGFreeze:0000000000000000 .L0 
C:\Users\SOLDER~1\AppData\Local\Temp\ccYCTqm0.s:839    .text.CAN_DBGFreeze:0000000000000000 $x
C:\Users\SOLDER~1\AppData\Local\Temp\ccYCTqm0.s:839    .text.CAN_DBGFreeze:0000000000000000 .L0 
C:\Users\SOLDER~1\AppData\Local\Temp\ccYCTqm0.s:840    .text.CAN_DBGFreeze:0000000000000002 .L0 
C:\Users\SOLDER~1\AppData\Local\Temp\ccYCTqm0.s:842    .text.CAN_DBGFreeze:0000000000000004 .L0 
C:\Users\SOLDER~1\AppData\Local\Temp\ccYCTqm0.s:844    .text.CAN_DBGFreeze:0000000000000006 .L0 
C:\Users\SOLDER~1\AppData\Local\Temp\ccYCTqm0.s:848    .text.CAN_DBGFreeze:000000000000000e .L0 
C:\Users\SOLDER~1\AppData\Local\Temp\ccYCTqm0.s:851    .text.CAN_DBGFreeze:0000000000000014 .L0 
C:\Users\SOLDER~1\AppData\Local\Temp\ccYCTqm0.s:854    .text.CAN_DBGFreeze:000000000000001a .L0 
C:\Users\SOLDER~1\AppData\Local\Temp\ccYCTqm0.s:859    .text.CAN_DBGFreeze:0000000000000024 .L0 
C:\Users\SOLDER~1\AppData\Local\Temp\ccYCTqm0.s:862    .text.CAN_DBGFreeze:0000000000000026 .L0 
C:\Users\SOLDER~1\AppData\Local\Temp\ccYCTqm0.s:865    .text.CAN_DBGFreeze:000000000000002c .L0 
C:\Users\SOLDER~1\AppData\Local\Temp\ccYCTqm0.s:872    .text.CAN_DBGFreeze:0000000000000038 .L0 
C:\Users\SOLDER~1\AppData\Local\Temp\ccYCTqm0.s:874    .text.CAN_DBGFreeze:000000000000003c .L0 
C:\Users\SOLDER~1\AppData\Local\Temp\ccYCTqm0.s:875    .text.CAN_DBGFreeze:000000000000003c .L0 
C:\Users\SOLDER~1\AppData\Local\Temp\ccYCTqm0.s:877    .text.CAN_DBGFreeze:000000000000003e .L0 
C:\Users\SOLDER~1\AppData\Local\Temp\ccYCTqm0.s:879    .text.CAN_DBGFreeze:0000000000000040 .L0 
C:\Users\SOLDER~1\AppData\Local\Temp\ccYCTqm0.s:886    .text.CAN_TTComModeCmd:0000000000000000 CAN_TTComModeCmd
C:\Users\SOLDER~1\AppData\Local\Temp\ccYCTqm0.s:889    .text.CAN_TTComModeCmd:0000000000000000 .L0 
C:\Users\SOLDER~1\AppData\Local\Temp\ccYCTqm0.s:890    .text.CAN_TTComModeCmd:0000000000000000 $x
C:\Users\SOLDER~1\AppData\Local\Temp\ccYCTqm0.s:890    .text.CAN_TTComModeCmd:0000000000000000 .L0 
C:\Users\SOLDER~1\AppData\Local\Temp\ccYCTqm0.s:891    .text.CAN_TTComModeCmd:0000000000000002 .L0 
GAS LISTING C:\Users\SOLDER~1\AppData\Local\Temp\ccYCTqm0.s 			page 85


C:\Users\SOLDER~1\AppData\Local\Temp\ccYCTqm0.s:893    .text.CAN_TTComModeCmd:0000000000000004 .L0 
C:\Users\SOLDER~1\AppData\Local\Temp\ccYCTqm0.s:895    .text.CAN_TTComModeCmd:0000000000000006 .L0 
C:\Users\SOLDER~1\AppData\Local\Temp\ccYCTqm0.s:899    .text.CAN_TTComModeCmd:000000000000000e .L0 
C:\Users\SOLDER~1\AppData\Local\Temp\ccYCTqm0.s:902    .text.CAN_TTComModeCmd:0000000000000014 .L0 
C:\Users\SOLDER~1\AppData\Local\Temp\ccYCTqm0.s:905    .text.CAN_TTComModeCmd:000000000000001a .L0 
C:\Users\SOLDER~1\AppData\Local\Temp\ccYCTqm0.s:909    .text.CAN_TTComModeCmd:0000000000000024 .L0 
C:\Users\SOLDER~1\AppData\Local\Temp\ccYCTqm0.s:912    .text.CAN_TTComModeCmd:000000000000002c .L0 
C:\Users\SOLDER~1\AppData\Local\Temp\ccYCTqm0.s:916    .text.CAN_TTComModeCmd:0000000000000038 .L0 
C:\Users\SOLDER~1\AppData\Local\Temp\ccYCTqm0.s:919    .text.CAN_TTComModeCmd:0000000000000040 .L0 
C:\Users\SOLDER~1\AppData\Local\Temp\ccYCTqm0.s:923    .text.CAN_TTComModeCmd:000000000000004c .L0 
C:\Users\SOLDER~1\AppData\Local\Temp\ccYCTqm0.s:926    .text.CAN_TTComModeCmd:0000000000000054 .L0 
C:\Users\SOLDER~1\AppData\Local\Temp\ccYCTqm0.s:930    .text.CAN_TTComModeCmd:0000000000000060 .L0 
C:\Users\SOLDER~1\AppData\Local\Temp\ccYCTqm0.s:933    .text.CAN_TTComModeCmd:0000000000000062 .L0 
C:\Users\SOLDER~1\AppData\Local\Temp\ccYCTqm0.s:936    .text.CAN_TTComModeCmd:0000000000000068 .L0 
C:\Users\SOLDER~1\AppData\Local\Temp\ccYCTqm0.s:940    .text.CAN_TTComModeCmd:0000000000000072 .L0 
C:\Users\SOLDER~1\AppData\Local\Temp\ccYCTqm0.s:943    .text.CAN_TTComModeCmd:000000000000007a .L0 
C:\Users\SOLDER~1\AppData\Local\Temp\ccYCTqm0.s:947    .text.CAN_TTComModeCmd:0000000000000086 .L0 
C:\Users\SOLDER~1\AppData\Local\Temp\ccYCTqm0.s:950    .text.CAN_TTComModeCmd:000000000000008e .L0 
C:\Users\SOLDER~1\AppData\Local\Temp\ccYCTqm0.s:954    .text.CAN_TTComModeCmd:000000000000009a .L0 
C:\Users\SOLDER~1\AppData\Local\Temp\ccYCTqm0.s:957    .text.CAN_TTComModeCmd:00000000000000a2 .L0 
C:\Users\SOLDER~1\AppData\Local\Temp\ccYCTqm0.s:962    .text.CAN_TTComModeCmd:00000000000000ae .L0 
C:\Users\SOLDER~1\AppData\Local\Temp\ccYCTqm0.s:964    .text.CAN_TTComModeCmd:00000000000000b2 .L0 
C:\Users\SOLDER~1\AppData\Local\Temp\ccYCTqm0.s:965    .text.CAN_TTComModeCmd:00000000000000b2 .L0 
C:\Users\SOLDER~1\AppData\Local\Temp\ccYCTqm0.s:967    .text.CAN_TTComModeCmd:00000000000000b4 .L0 
C:\Users\SOLDER~1\AppData\Local\Temp\ccYCTqm0.s:969    .text.CAN_TTComModeCmd:00000000000000b6 .L0 
C:\Users\SOLDER~1\AppData\Local\Temp\ccYCTqm0.s:976    .text.CAN_Transmit:0000000000000000 CAN_Transmit
C:\Users\SOLDER~1\AppData\Local\Temp\ccYCTqm0.s:979    .text.CAN_Transmit:0000000000000000 .L0 
C:\Users\SOLDER~1\AppData\Local\Temp\ccYCTqm0.s:980    .text.CAN_Transmit:0000000000000000 $x
C:\Users\SOLDER~1\AppData\Local\Temp\ccYCTqm0.s:980    .text.CAN_Transmit:0000000000000000 .L0 
C:\Users\SOLDER~1\AppData\Local\Temp\ccYCTqm0.s:981    .text.CAN_Transmit:0000000000000002 .L0 
C:\Users\SOLDER~1\AppData\Local\Temp\ccYCTqm0.s:983    .text.CAN_Transmit:0000000000000004 .L0 
C:\Users\SOLDER~1\AppData\Local\Temp\ccYCTqm0.s:985    .text.CAN_Transmit:0000000000000006 .L0 
C:\Users\SOLDER~1\AppData\Local\Temp\ccYCTqm0.s:989    .text.CAN_Transmit:000000000000000e .L0 
C:\Users\SOLDER~1\AppData\Local\Temp\ccYCTqm0.s:991    .text.CAN_Transmit:0000000000000012 .L0 
C:\Users\SOLDER~1\AppData\Local\Temp\ccYCTqm0.s:994    .text.CAN_Transmit:0000000000000018 .L0 
C:\Users\SOLDER~1\AppData\Local\Temp\ccYCTqm0.s:997    .text.CAN_Transmit:000000000000001e .L0 
C:\Users\SOLDER~1\AppData\Local\Temp\ccYCTqm0.s:1000   .text.CAN_Transmit:0000000000000026 .L0 
C:\Users\SOLDER~1\AppData\Local\Temp\ccYCTqm0.s:1004   .text.CAN_Transmit:000000000000002c .L0 
C:\Users\SOLDER~1\AppData\Local\Temp\ccYCTqm0.s:1007   .text.CAN_Transmit:0000000000000032 .L0 
C:\Users\SOLDER~1\AppData\Local\Temp\ccYCTqm0.s:1010   .text.CAN_Transmit:0000000000000038 .L0 
C:\Users\SOLDER~1\AppData\Local\Temp\ccYCTqm0.s:1013   .text.CAN_Transmit:0000000000000040 .L0 
C:\Users\SOLDER~1\AppData\Local\Temp\ccYCTqm0.s:1018   .text.CAN_Transmit:0000000000000048 .L0 
C:\Users\SOLDER~1\AppData\Local\Temp\ccYCTqm0.s:1021   .text.CAN_Transmit:000000000000004e .L0 
C:\Users\SOLDER~1\AppData\Local\Temp\ccYCTqm0.s:1024   .text.CAN_Transmit:0000000000000054 .L0 
C:\Users\SOLDER~1\AppData\Local\Temp\ccYCTqm0.s:1027   .text.CAN_Transmit:000000000000005c .L0 
C:\Users\SOLDER~1\AppData\Local\Temp\ccYCTqm0.s:1032   .text.CAN_Transmit:0000000000000064 .L0 
C:\Users\SOLDER~1\AppData\Local\Temp\ccYCTqm0.s:1036   .text.CAN_Transmit:000000000000006a .L0 
C:\Users\SOLDER~1\AppData\Local\Temp\ccYCTqm0.s:1040   .text.CAN_Transmit:0000000000000074 .L0 
C:\Users\SOLDER~1\AppData\Local\Temp\ccYCTqm0.s:1048   .text.CAN_Transmit:0000000000000088 .L0 
C:\Users\SOLDER~1\AppData\Local\Temp\ccYCTqm0.s:1055   .text.CAN_Transmit:0000000000000096 .L0 
C:\Users\SOLDER~1\AppData\Local\Temp\ccYCTqm0.s:1058   .text.CAN_Transmit:000000000000009c .L0 
C:\Users\SOLDER~1\AppData\Local\Temp\ccYCTqm0.s:1060   .text.CAN_Transmit:000000000000009e .L0 
C:\Users\SOLDER~1\AppData\Local\Temp\ccYCTqm0.s:1067   .text.CAN_Transmit:00000000000000ae .L0 
C:\Users\SOLDER~1\AppData\Local\Temp\ccYCTqm0.s:1070   .text.CAN_Transmit:00000000000000b4 .L0 
C:\Users\SOLDER~1\AppData\Local\Temp\ccYCTqm0.s:1072   .text.CAN_Transmit:00000000000000b6 .L0 
C:\Users\SOLDER~1\AppData\Local\Temp\ccYCTqm0.s:1075   .text.CAN_Transmit:00000000000000bc .L0 
C:\Users\SOLDER~1\AppData\Local\Temp\ccYCTqm0.s:1077   .text.CAN_Transmit:00000000000000be .L0 
GAS LISTING C:\Users\SOLDER~1\AppData\Local\Temp\ccYCTqm0.s 			page 86


C:\Users\SOLDER~1\AppData\Local\Temp\ccYCTqm0.s:1079   .text.CAN_Transmit:00000000000000c2 .L0 
C:\Users\SOLDER~1\AppData\Local\Temp\ccYCTqm0.s:1088   .text.CAN_Transmit:00000000000000d2 .L0 
C:\Users\SOLDER~1\AppData\Local\Temp\ccYCTqm0.s:1095   .text.CAN_Transmit:00000000000000e2 .L0 
C:\Users\SOLDER~1\AppData\Local\Temp\ccYCTqm0.s:1098   .text.CAN_Transmit:00000000000000e8 .L0 
C:\Users\SOLDER~1\AppData\Local\Temp\ccYCTqm0.s:1100   .text.CAN_Transmit:00000000000000ea .L0 
C:\Users\SOLDER~1\AppData\Local\Temp\ccYCTqm0.s:1103   .text.CAN_Transmit:00000000000000f0 .L0 
C:\Users\SOLDER~1\AppData\Local\Temp\ccYCTqm0.s:1105   .text.CAN_Transmit:00000000000000f2 .L0 
C:\Users\SOLDER~1\AppData\Local\Temp\ccYCTqm0.s:1108   .text.CAN_Transmit:00000000000000f8 .L0 
C:\Users\SOLDER~1\AppData\Local\Temp\ccYCTqm0.s:1110   .text.CAN_Transmit:00000000000000fa .L0 
C:\Users\SOLDER~1\AppData\Local\Temp\ccYCTqm0.s:1112   .text.CAN_Transmit:00000000000000fe .L0 
C:\Users\SOLDER~1\AppData\Local\Temp\ccYCTqm0.s:1120   .text.CAN_Transmit:000000000000010c .L0 
C:\Users\SOLDER~1\AppData\Local\Temp\ccYCTqm0.s:1123   .text.CAN_Transmit:0000000000000112 .L0 
C:\Users\SOLDER~1\AppData\Local\Temp\ccYCTqm0.s:1128   .text.CAN_Transmit:000000000000011e .L0 
C:\Users\SOLDER~1\AppData\Local\Temp\ccYCTqm0.s:1136   .text.CAN_Transmit:0000000000000132 .L0 
C:\Users\SOLDER~1\AppData\Local\Temp\ccYCTqm0.s:1143   .text.CAN_Transmit:0000000000000140 .L0 
C:\Users\SOLDER~1\AppData\Local\Temp\ccYCTqm0.s:1150   .text.CAN_Transmit:0000000000000150 .L0 
C:\Users\SOLDER~1\AppData\Local\Temp\ccYCTqm0.s:1154   .text.CAN_Transmit:0000000000000158 .L0 
C:\Users\SOLDER~1\AppData\Local\Temp\ccYCTqm0.s:1156   .text.CAN_Transmit:000000000000015c .L0 
C:\Users\SOLDER~1\AppData\Local\Temp\ccYCTqm0.s:1163   .text.CAN_Transmit:000000000000016a .L0 
C:\Users\SOLDER~1\AppData\Local\Temp\ccYCTqm0.s:1166   .text.CAN_Transmit:0000000000000170 .L0 
C:\Users\SOLDER~1\AppData\Local\Temp\ccYCTqm0.s:1168   .text.CAN_Transmit:0000000000000174 .L0 
C:\Users\SOLDER~1\AppData\Local\Temp\ccYCTqm0.s:1171   .text.CAN_Transmit:000000000000017a .L0 
C:\Users\SOLDER~1\AppData\Local\Temp\ccYCTqm0.s:1173   .text.CAN_Transmit:000000000000017c .L0 
C:\Users\SOLDER~1\AppData\Local\Temp\ccYCTqm0.s:1175   .text.CAN_Transmit:000000000000017e .L0 
C:\Users\SOLDER~1\AppData\Local\Temp\ccYCTqm0.s:1178   .text.CAN_Transmit:0000000000000184 .L0 
C:\Users\SOLDER~1\AppData\Local\Temp\ccYCTqm0.s:1180   .text.CAN_Transmit:0000000000000186 .L0 
C:\Users\SOLDER~1\AppData\Local\Temp\ccYCTqm0.s:1182   .text.CAN_Transmit:0000000000000188 .L0 
C:\Users\SOLDER~1\AppData\Local\Temp\ccYCTqm0.s:1185   .text.CAN_Transmit:000000000000018e .L0 
C:\Users\SOLDER~1\AppData\Local\Temp\ccYCTqm0.s:1187   .text.CAN_Transmit:0000000000000190 .L0 
C:\Users\SOLDER~1\AppData\Local\Temp\ccYCTqm0.s:1189   .text.CAN_Transmit:0000000000000194 .L0 
C:\Users\SOLDER~1\AppData\Local\Temp\ccYCTqm0.s:1191   .text.CAN_Transmit:0000000000000196 .L0 
C:\Users\SOLDER~1\AppData\Local\Temp\ccYCTqm0.s:1197   .text.CAN_Transmit:00000000000001a2 .L0 
C:\Users\SOLDER~1\AppData\Local\Temp\ccYCTqm0.s:1200   .text.CAN_Transmit:00000000000001a8 .L0 
C:\Users\SOLDER~1\AppData\Local\Temp\ccYCTqm0.s:1202   .text.CAN_Transmit:00000000000001ac .L0 
C:\Users\SOLDER~1\AppData\Local\Temp\ccYCTqm0.s:1205   .text.CAN_Transmit:00000000000001b2 .L0 
C:\Users\SOLDER~1\AppData\Local\Temp\ccYCTqm0.s:1207   .text.CAN_Transmit:00000000000001b4 .L0 
C:\Users\SOLDER~1\AppData\Local\Temp\ccYCTqm0.s:1209   .text.CAN_Transmit:00000000000001b6 .L0 
C:\Users\SOLDER~1\AppData\Local\Temp\ccYCTqm0.s:1212   .text.CAN_Transmit:00000000000001bc .L0 
C:\Users\SOLDER~1\AppData\Local\Temp\ccYCTqm0.s:1214   .text.CAN_Transmit:00000000000001be .L0 
C:\Users\SOLDER~1\AppData\Local\Temp\ccYCTqm0.s:1216   .text.CAN_Transmit:00000000000001c0 .L0 
C:\Users\SOLDER~1\AppData\Local\Temp\ccYCTqm0.s:1219   .text.CAN_Transmit:00000000000001c6 .L0 
C:\Users\SOLDER~1\AppData\Local\Temp\ccYCTqm0.s:1221   .text.CAN_Transmit:00000000000001c8 .L0 
C:\Users\SOLDER~1\AppData\Local\Temp\ccYCTqm0.s:1223   .text.CAN_Transmit:00000000000001cc .L0 
C:\Users\SOLDER~1\AppData\Local\Temp\ccYCTqm0.s:1225   .text.CAN_Transmit:00000000000001ce .L0 
C:\Users\SOLDER~1\AppData\Local\Temp\ccYCTqm0.s:1231   .text.CAN_Transmit:00000000000001da .L0 
C:\Users\SOLDER~1\AppData\Local\Temp\ccYCTqm0.s:1239   .text.CAN_Transmit:00000000000001ee .L0 
C:\Users\SOLDER~1\AppData\Local\Temp\ccYCTqm0.s:1247   .text.CAN_Transmit:00000000000001fe .L0 
C:\Users\SOLDER~1\AppData\Local\Temp\ccYCTqm0.s:1249   .text.CAN_Transmit:0000000000000202 .L0 
C:\Users\SOLDER~1\AppData\Local\Temp\ccYCTqm0.s:1251   .text.CAN_Transmit:0000000000000206 .L0 
C:\Users\SOLDER~1\AppData\Local\Temp\ccYCTqm0.s:1252   .text.CAN_Transmit:0000000000000206 .L0 
C:\Users\SOLDER~1\AppData\Local\Temp\ccYCTqm0.s:1254   .text.CAN_Transmit:0000000000000208 .L0 
C:\Users\SOLDER~1\AppData\Local\Temp\ccYCTqm0.s:1256   .text.CAN_Transmit:000000000000020a .L0 
C:\Users\SOLDER~1\AppData\Local\Temp\ccYCTqm0.s:1263   .text.CAN_TransmitStatus:0000000000000000 CAN_TransmitStatus
C:\Users\SOLDER~1\AppData\Local\Temp\ccYCTqm0.s:1266   .text.CAN_TransmitStatus:0000000000000000 .L0 
C:\Users\SOLDER~1\AppData\Local\Temp\ccYCTqm0.s:1267   .text.CAN_TransmitStatus:0000000000000000 $x
C:\Users\SOLDER~1\AppData\Local\Temp\ccYCTqm0.s:1267   .text.CAN_TransmitStatus:0000000000000000 .L0 
C:\Users\SOLDER~1\AppData\Local\Temp\ccYCTqm0.s:1268   .text.CAN_TransmitStatus:0000000000000002 .L0 
GAS LISTING C:\Users\SOLDER~1\AppData\Local\Temp\ccYCTqm0.s 			page 87


C:\Users\SOLDER~1\AppData\Local\Temp\ccYCTqm0.s:1270   .text.CAN_TransmitStatus:0000000000000004 .L0 
C:\Users\SOLDER~1\AppData\Local\Temp\ccYCTqm0.s:1272   .text.CAN_TransmitStatus:0000000000000006 .L0 
C:\Users\SOLDER~1\AppData\Local\Temp\ccYCTqm0.s:1277   .text.CAN_TransmitStatus:0000000000000010 .L0 
C:\Users\SOLDER~1\AppData\Local\Temp\ccYCTqm0.s:1279   .text.CAN_TransmitStatus:0000000000000014 .L0 
C:\Users\SOLDER~1\AppData\Local\Temp\ccYCTqm0.s:1290   .text.CAN_TransmitStatus:000000000000002e .L0 
C:\Users\SOLDER~1\AppData\Local\Temp\ccYCTqm0.s:1293   .text.CAN_TransmitStatus:0000000000000034 .L0 
C:\Users\SOLDER~1\AppData\Local\Temp\ccYCTqm0.s:1298   .text.CAN_TransmitStatus:0000000000000040 .L0 
C:\Users\SOLDER~1\AppData\Local\Temp\ccYCTqm0.s:1301   .text.CAN_TransmitStatus:0000000000000042 .L0 
C:\Users\SOLDER~1\AppData\Local\Temp\ccYCTqm0.s:1304   .text.CAN_TransmitStatus:0000000000000048 .L0 
C:\Users\SOLDER~1\AppData\Local\Temp\ccYCTqm0.s:1309   .text.CAN_TransmitStatus:0000000000000056 .L0 
C:\Users\SOLDER~1\AppData\Local\Temp\ccYCTqm0.s:1312   .text.CAN_TransmitStatus:0000000000000058 .L0 
C:\Users\SOLDER~1\AppData\Local\Temp\ccYCTqm0.s:1315   .text.CAN_TransmitStatus:000000000000005e .L0 
C:\Users\SOLDER~1\AppData\Local\Temp\ccYCTqm0.s:1319   .text.CAN_TransmitStatus:0000000000000068 .L0 
C:\Users\SOLDER~1\AppData\Local\Temp\ccYCTqm0.s:1322   .text.CAN_TransmitStatus:000000000000006a .L0 
C:\Users\SOLDER~1\AppData\Local\Temp\ccYCTqm0.s:1324   .text.CAN_TransmitStatus:000000000000006e .L0 
C:\Users\SOLDER~1\AppData\Local\Temp\ccYCTqm0.s:1327   .text.CAN_TransmitStatus:0000000000000070 .L0 
C:\Users\SOLDER~1\AppData\Local\Temp\ccYCTqm0.s:1372   .text.CAN_TransmitStatus:0000000000000112 .L0 
C:\Users\SOLDER~1\AppData\Local\Temp\ccYCTqm0.s:1375   .text.CAN_TransmitStatus:0000000000000118 .L0 
C:\Users\SOLDER~1\AppData\Local\Temp\ccYCTqm0.s:1378   .text.CAN_TransmitStatus:000000000000011a .L0 
C:\Users\SOLDER~1\AppData\Local\Temp\ccYCTqm0.s:1380   .text.CAN_TransmitStatus:000000000000011e .L0 
C:\Users\SOLDER~1\AppData\Local\Temp\ccYCTqm0.s:1383   .text.CAN_TransmitStatus:0000000000000120 .L0 
C:\Users\SOLDER~1\AppData\Local\Temp\ccYCTqm0.s:1385   .text.CAN_TransmitStatus:0000000000000124 .L0 
C:\Users\SOLDER~1\AppData\Local\Temp\ccYCTqm0.s:1388   .text.CAN_TransmitStatus:0000000000000126 .L0 
C:\Users\SOLDER~1\AppData\Local\Temp\ccYCTqm0.s:1390   .text.CAN_TransmitStatus:000000000000012a .L0 
C:\Users\SOLDER~1\AppData\Local\Temp\ccYCTqm0.s:1393   .text.CAN_TransmitStatus:000000000000012c .L0 
C:\Users\SOLDER~1\AppData\Local\Temp\ccYCTqm0.s:1396   .text.CAN_TransmitStatus:0000000000000132 .L0 
C:\Users\SOLDER~1\AppData\Local\Temp\ccYCTqm0.s:1399   .text.CAN_TransmitStatus:0000000000000134 .L0 
C:\Users\SOLDER~1\AppData\Local\Temp\ccYCTqm0.s:1402   .text.CAN_TransmitStatus:000000000000013a .L0 
C:\Users\SOLDER~1\AppData\Local\Temp\ccYCTqm0.s:1405   .text.CAN_TransmitStatus:000000000000013c .L0 
C:\Users\SOLDER~1\AppData\Local\Temp\ccYCTqm0.s:1408   .text.CAN_TransmitStatus:0000000000000142 .L0 
C:\Users\SOLDER~1\AppData\Local\Temp\ccYCTqm0.s:1411   .text.CAN_TransmitStatus:0000000000000144 .L0 
C:\Users\SOLDER~1\AppData\Local\Temp\ccYCTqm0.s:1413   .text.CAN_TransmitStatus:0000000000000148 .L0 
C:\Users\SOLDER~1\AppData\Local\Temp\ccYCTqm0.s:1416   .text.CAN_TransmitStatus:000000000000014a .L0 
C:\Users\SOLDER~1\AppData\Local\Temp\ccYCTqm0.s:1419   .text.CAN_TransmitStatus:0000000000000152 .L0 
C:\Users\SOLDER~1\AppData\Local\Temp\ccYCTqm0.s:1421   .text.CAN_TransmitStatus:0000000000000156 .L0 
C:\Users\SOLDER~1\AppData\Local\Temp\ccYCTqm0.s:1422   .text.CAN_TransmitStatus:0000000000000156 .L0 
C:\Users\SOLDER~1\AppData\Local\Temp\ccYCTqm0.s:1424   .text.CAN_TransmitStatus:0000000000000158 .L0 
C:\Users\SOLDER~1\AppData\Local\Temp\ccYCTqm0.s:1426   .text.CAN_TransmitStatus:000000000000015a .L0 
C:\Users\SOLDER~1\AppData\Local\Temp\ccYCTqm0.s:1433   .text.CAN_CancelTransmit:0000000000000000 CAN_CancelTransmit
C:\Users\SOLDER~1\AppData\Local\Temp\ccYCTqm0.s:1436   .text.CAN_CancelTransmit:0000000000000000 .L0 
C:\Users\SOLDER~1\AppData\Local\Temp\ccYCTqm0.s:1437   .text.CAN_CancelTransmit:0000000000000000 $x
C:\Users\SOLDER~1\AppData\Local\Temp\ccYCTqm0.s:1437   .text.CAN_CancelTransmit:0000000000000000 .L0 
C:\Users\SOLDER~1\AppData\Local\Temp\ccYCTqm0.s:1438   .text.CAN_CancelTransmit:0000000000000002 .L0 
C:\Users\SOLDER~1\AppData\Local\Temp\ccYCTqm0.s:1440   .text.CAN_CancelTransmit:0000000000000004 .L0 
C:\Users\SOLDER~1\AppData\Local\Temp\ccYCTqm0.s:1442   .text.CAN_CancelTransmit:0000000000000006 .L0 
C:\Users\SOLDER~1\AppData\Local\Temp\ccYCTqm0.s:1447   .text.CAN_CancelTransmit:0000000000000010 .L0 
C:\Users\SOLDER~1\AppData\Local\Temp\ccYCTqm0.s:1456   .text.CAN_CancelTransmit:0000000000000028 .L0 
C:\Users\SOLDER~1\AppData\Local\Temp\ccYCTqm0.s:1459   .text.CAN_CancelTransmit:000000000000002a .L0 
C:\Users\SOLDER~1\AppData\Local\Temp\ccYCTqm0.s:1462   .text.CAN_CancelTransmit:0000000000000030 .L0 
C:\Users\SOLDER~1\AppData\Local\Temp\ccYCTqm0.s:1466   .text.CAN_CancelTransmit:000000000000003a .L0 
C:\Users\SOLDER~1\AppData\Local\Temp\ccYCTqm0.s:1469   .text.CAN_CancelTransmit:000000000000003c .L0 
C:\Users\SOLDER~1\AppData\Local\Temp\ccYCTqm0.s:1472   .text.CAN_CancelTransmit:0000000000000042 .L0 
C:\Users\SOLDER~1\AppData\Local\Temp\ccYCTqm0.s:1477   .text.CAN_CancelTransmit:000000000000004c .L0 
C:\Users\SOLDER~1\AppData\Local\Temp\ccYCTqm0.s:1480   .text.CAN_CancelTransmit:000000000000004e .L0 
C:\Users\SOLDER~1\AppData\Local\Temp\ccYCTqm0.s:1483   .text.CAN_CancelTransmit:0000000000000054 .L0 
C:\Users\SOLDER~1\AppData\Local\Temp\ccYCTqm0.s:1488   .text.CAN_CancelTransmit:0000000000000060 .L0 
C:\Users\SOLDER~1\AppData\Local\Temp\ccYCTqm0.s:1491   .text.CAN_CancelTransmit:0000000000000062 .L0 
GAS LISTING C:\Users\SOLDER~1\AppData\Local\Temp\ccYCTqm0.s 			page 88


C:\Users\SOLDER~1\AppData\Local\Temp\ccYCTqm0.s:1494   .text.CAN_CancelTransmit:0000000000000064 .L0 
C:\Users\SOLDER~1\AppData\Local\Temp\ccYCTqm0.s:1496   .text.CAN_CancelTransmit:0000000000000068 .L0 
C:\Users\SOLDER~1\AppData\Local\Temp\ccYCTqm0.s:1497   .text.CAN_CancelTransmit:0000000000000068 .L0 
C:\Users\SOLDER~1\AppData\Local\Temp\ccYCTqm0.s:1499   .text.CAN_CancelTransmit:000000000000006a .L0 
C:\Users\SOLDER~1\AppData\Local\Temp\ccYCTqm0.s:1501   .text.CAN_CancelTransmit:000000000000006c .L0 
C:\Users\SOLDER~1\AppData\Local\Temp\ccYCTqm0.s:1508   .text.CAN_Receive:0000000000000000 CAN_Receive
C:\Users\SOLDER~1\AppData\Local\Temp\ccYCTqm0.s:1511   .text.CAN_Receive:0000000000000000 .L0 
C:\Users\SOLDER~1\AppData\Local\Temp\ccYCTqm0.s:1512   .text.CAN_Receive:0000000000000000 $x
C:\Users\SOLDER~1\AppData\Local\Temp\ccYCTqm0.s:1512   .text.CAN_Receive:0000000000000000 .L0 
C:\Users\SOLDER~1\AppData\Local\Temp\ccYCTqm0.s:1513   .text.CAN_Receive:0000000000000002 .L0 
C:\Users\SOLDER~1\AppData\Local\Temp\ccYCTqm0.s:1515   .text.CAN_Receive:0000000000000004 .L0 
C:\Users\SOLDER~1\AppData\Local\Temp\ccYCTqm0.s:1517   .text.CAN_Receive:0000000000000006 .L0 
C:\Users\SOLDER~1\AppData\Local\Temp\ccYCTqm0.s:1523   .text.CAN_Receive:0000000000000014 .L0 
C:\Users\SOLDER~1\AppData\Local\Temp\ccYCTqm0.s:1530   .text.CAN_Receive:0000000000000024 .L0 
C:\Users\SOLDER~1\AppData\Local\Temp\ccYCTqm0.s:1534   .text.CAN_Receive:000000000000002e .L0 
C:\Users\SOLDER~1\AppData\Local\Temp\ccYCTqm0.s:1537   .text.CAN_Receive:0000000000000034 .L0 
C:\Users\SOLDER~1\AppData\Local\Temp\ccYCTqm0.s:1540   .text.CAN_Receive:000000000000003a .L0 
C:\Users\SOLDER~1\AppData\Local\Temp\ccYCTqm0.s:1542   .text.CAN_Receive:000000000000003c .L0 
C:\Users\SOLDER~1\AppData\Local\Temp\ccYCTqm0.s:1549   .text.CAN_Receive:000000000000004c .L0 
C:\Users\SOLDER~1\AppData\Local\Temp\ccYCTqm0.s:1551   .text.CAN_Receive:000000000000004e .L0 
C:\Users\SOLDER~1\AppData\Local\Temp\ccYCTqm0.s:1553   .text.CAN_Receive:0000000000000052 .L0 
C:\Users\SOLDER~1\AppData\Local\Temp\ccYCTqm0.s:1558   .text.CAN_Receive:000000000000005a .L0 
C:\Users\SOLDER~1\AppData\Local\Temp\ccYCTqm0.s:1565   .text.CAN_Receive:000000000000006a .L0 
C:\Users\SOLDER~1\AppData\Local\Temp\ccYCTqm0.s:1567   .text.CAN_Receive:000000000000006e .L0 
C:\Users\SOLDER~1\AppData\Local\Temp\ccYCTqm0.s:1571   .text.CAN_Receive:0000000000000076 .L0 
C:\Users\SOLDER~1\AppData\Local\Temp\ccYCTqm0.s:1575   .text.CAN_Receive:000000000000007c .L0 
C:\Users\SOLDER~1\AppData\Local\Temp\ccYCTqm0.s:1582   .text.CAN_Receive:000000000000008c .L0 
C:\Users\SOLDER~1\AppData\Local\Temp\ccYCTqm0.s:1586   .text.CAN_Receive:0000000000000096 .L0 
C:\Users\SOLDER~1\AppData\Local\Temp\ccYCTqm0.s:1589   .text.CAN_Receive:000000000000009c .L0 
C:\Users\SOLDER~1\AppData\Local\Temp\ccYCTqm0.s:1596   .text.CAN_Receive:00000000000000ac .L0 
C:\Users\SOLDER~1\AppData\Local\Temp\ccYCTqm0.s:1600   .text.CAN_Receive:00000000000000b6 .L0 
C:\Users\SOLDER~1\AppData\Local\Temp\ccYCTqm0.s:1603   .text.CAN_Receive:00000000000000bc .L0 
C:\Users\SOLDER~1\AppData\Local\Temp\ccYCTqm0.s:1610   .text.CAN_Receive:00000000000000cc .L0 
C:\Users\SOLDER~1\AppData\Local\Temp\ccYCTqm0.s:1612   .text.CAN_Receive:00000000000000ce .L0 
C:\Users\SOLDER~1\AppData\Local\Temp\ccYCTqm0.s:1616   .text.CAN_Receive:00000000000000d8 .L0 
C:\Users\SOLDER~1\AppData\Local\Temp\ccYCTqm0.s:1623   .text.CAN_Receive:00000000000000e8 .L0 
C:\Users\SOLDER~1\AppData\Local\Temp\ccYCTqm0.s:1627   .text.CAN_Receive:00000000000000f2 .L0 
C:\Users\SOLDER~1\AppData\Local\Temp\ccYCTqm0.s:1634   .text.CAN_Receive:0000000000000102 .L0 
C:\Users\SOLDER~1\AppData\Local\Temp\ccYCTqm0.s:1636   .text.CAN_Receive:0000000000000104 .L0 
C:\Users\SOLDER~1\AppData\Local\Temp\ccYCTqm0.s:1640   .text.CAN_Receive:000000000000010e .L0 
C:\Users\SOLDER~1\AppData\Local\Temp\ccYCTqm0.s:1647   .text.CAN_Receive:000000000000011e .L0 
C:\Users\SOLDER~1\AppData\Local\Temp\ccYCTqm0.s:1649   .text.CAN_Receive:0000000000000120 .L0 
C:\Users\SOLDER~1\AppData\Local\Temp\ccYCTqm0.s:1653   .text.CAN_Receive:000000000000012a .L0 
C:\Users\SOLDER~1\AppData\Local\Temp\ccYCTqm0.s:1660   .text.CAN_Receive:000000000000013a .L0 
C:\Users\SOLDER~1\AppData\Local\Temp\ccYCTqm0.s:1662   .text.CAN_Receive:000000000000013c .L0 
C:\Users\SOLDER~1\AppData\Local\Temp\ccYCTqm0.s:1666   .text.CAN_Receive:0000000000000146 .L0 
C:\Users\SOLDER~1\AppData\Local\Temp\ccYCTqm0.s:1673   .text.CAN_Receive:0000000000000156 .L0 
C:\Users\SOLDER~1\AppData\Local\Temp\ccYCTqm0.s:1677   .text.CAN_Receive:0000000000000160 .L0 
C:\Users\SOLDER~1\AppData\Local\Temp\ccYCTqm0.s:1684   .text.CAN_Receive:0000000000000170 .L0 
C:\Users\SOLDER~1\AppData\Local\Temp\ccYCTqm0.s:1686   .text.CAN_Receive:0000000000000172 .L0 
C:\Users\SOLDER~1\AppData\Local\Temp\ccYCTqm0.s:1690   .text.CAN_Receive:000000000000017c .L0 
C:\Users\SOLDER~1\AppData\Local\Temp\ccYCTqm0.s:1697   .text.CAN_Receive:000000000000018c .L0 
C:\Users\SOLDER~1\AppData\Local\Temp\ccYCTqm0.s:1699   .text.CAN_Receive:000000000000018e .L0 
C:\Users\SOLDER~1\AppData\Local\Temp\ccYCTqm0.s:1703   .text.CAN_Receive:0000000000000198 .L0 
C:\Users\SOLDER~1\AppData\Local\Temp\ccYCTqm0.s:1710   .text.CAN_Receive:00000000000001a8 .L0 
C:\Users\SOLDER~1\AppData\Local\Temp\ccYCTqm0.s:1712   .text.CAN_Receive:00000000000001aa .L0 
C:\Users\SOLDER~1\AppData\Local\Temp\ccYCTqm0.s:1716   .text.CAN_Receive:00000000000001b4 .L0 
GAS LISTING C:\Users\SOLDER~1\AppData\Local\Temp\ccYCTqm0.s 			page 89


C:\Users\SOLDER~1\AppData\Local\Temp\ccYCTqm0.s:1719   .text.CAN_Receive:00000000000001ba .L0 
C:\Users\SOLDER~1\AppData\Local\Temp\ccYCTqm0.s:1722   .text.CAN_Receive:00000000000001c0 .L0 
C:\Users\SOLDER~1\AppData\Local\Temp\ccYCTqm0.s:1726   .text.CAN_Receive:00000000000001ca .L0 
C:\Users\SOLDER~1\AppData\Local\Temp\ccYCTqm0.s:1729   .text.CAN_Receive:00000000000001cc .L0 
C:\Users\SOLDER~1\AppData\Local\Temp\ccYCTqm0.s:1732   .text.CAN_Receive:00000000000001d2 .L0 
C:\Users\SOLDER~1\AppData\Local\Temp\ccYCTqm0.s:1737   .text.CAN_Receive:00000000000001dc .L0 
C:\Users\SOLDER~1\AppData\Local\Temp\ccYCTqm0.s:1739   .text.CAN_Receive:00000000000001e0 .L0 
C:\Users\SOLDER~1\AppData\Local\Temp\ccYCTqm0.s:1740   .text.CAN_Receive:00000000000001e0 .L0 
C:\Users\SOLDER~1\AppData\Local\Temp\ccYCTqm0.s:1742   .text.CAN_Receive:00000000000001e2 .L0 
C:\Users\SOLDER~1\AppData\Local\Temp\ccYCTqm0.s:1744   .text.CAN_Receive:00000000000001e4 .L0 
C:\Users\SOLDER~1\AppData\Local\Temp\ccYCTqm0.s:1751   .text.CAN_FIFORelease:0000000000000000 CAN_FIFORelease
C:\Users\SOLDER~1\AppData\Local\Temp\ccYCTqm0.s:1754   .text.CAN_FIFORelease:0000000000000000 .L0 
C:\Users\SOLDER~1\AppData\Local\Temp\ccYCTqm0.s:1755   .text.CAN_FIFORelease:0000000000000000 $x
C:\Users\SOLDER~1\AppData\Local\Temp\ccYCTqm0.s:1755   .text.CAN_FIFORelease:0000000000000000 .L0 
C:\Users\SOLDER~1\AppData\Local\Temp\ccYCTqm0.s:1756   .text.CAN_FIFORelease:0000000000000002 .L0 
C:\Users\SOLDER~1\AppData\Local\Temp\ccYCTqm0.s:1758   .text.CAN_FIFORelease:0000000000000004 .L0 
C:\Users\SOLDER~1\AppData\Local\Temp\ccYCTqm0.s:1760   .text.CAN_FIFORelease:0000000000000006 .L0 
C:\Users\SOLDER~1\AppData\Local\Temp\ccYCTqm0.s:1765   .text.CAN_FIFORelease:0000000000000010 .L0 
C:\Users\SOLDER~1\AppData\Local\Temp\ccYCTqm0.s:1768   .text.CAN_FIFORelease:0000000000000016 .L0 
C:\Users\SOLDER~1\AppData\Local\Temp\ccYCTqm0.s:1771   .text.CAN_FIFORelease:000000000000001c .L0 
C:\Users\SOLDER~1\AppData\Local\Temp\ccYCTqm0.s:1775   .text.CAN_FIFORelease:0000000000000026 .L0 
C:\Users\SOLDER~1\AppData\Local\Temp\ccYCTqm0.s:1778   .text.CAN_FIFORelease:0000000000000028 .L0 
C:\Users\SOLDER~1\AppData\Local\Temp\ccYCTqm0.s:1781   .text.CAN_FIFORelease:000000000000002e .L0 
C:\Users\SOLDER~1\AppData\Local\Temp\ccYCTqm0.s:1786   .text.CAN_FIFORelease:0000000000000038 .L0 
C:\Users\SOLDER~1\AppData\Local\Temp\ccYCTqm0.s:1788   .text.CAN_FIFORelease:000000000000003c .L0 
C:\Users\SOLDER~1\AppData\Local\Temp\ccYCTqm0.s:1789   .text.CAN_FIFORelease:000000000000003c .L0 
C:\Users\SOLDER~1\AppData\Local\Temp\ccYCTqm0.s:1791   .text.CAN_FIFORelease:000000000000003e .L0 
C:\Users\SOLDER~1\AppData\Local\Temp\ccYCTqm0.s:1793   .text.CAN_FIFORelease:0000000000000040 .L0 
C:\Users\SOLDER~1\AppData\Local\Temp\ccYCTqm0.s:1800   .text.CAN_MessagePending:0000000000000000 CAN_MessagePending
C:\Users\SOLDER~1\AppData\Local\Temp\ccYCTqm0.s:1803   .text.CAN_MessagePending:0000000000000000 .L0 
C:\Users\SOLDER~1\AppData\Local\Temp\ccYCTqm0.s:1804   .text.CAN_MessagePending:0000000000000000 $x
C:\Users\SOLDER~1\AppData\Local\Temp\ccYCTqm0.s:1804   .text.CAN_MessagePending:0000000000000000 .L0 
C:\Users\SOLDER~1\AppData\Local\Temp\ccYCTqm0.s:1805   .text.CAN_MessagePending:0000000000000002 .L0 
C:\Users\SOLDER~1\AppData\Local\Temp\ccYCTqm0.s:1807   .text.CAN_MessagePending:0000000000000004 .L0 
C:\Users\SOLDER~1\AppData\Local\Temp\ccYCTqm0.s:1809   .text.CAN_MessagePending:0000000000000006 .L0 
C:\Users\SOLDER~1\AppData\Local\Temp\ccYCTqm0.s:1814   .text.CAN_MessagePending:0000000000000010 .L0 
C:\Users\SOLDER~1\AppData\Local\Temp\ccYCTqm0.s:1816   .text.CAN_MessagePending:0000000000000014 .L0 
C:\Users\SOLDER~1\AppData\Local\Temp\ccYCTqm0.s:1819   .text.CAN_MessagePending:000000000000001a .L0 
C:\Users\SOLDER~1\AppData\Local\Temp\ccYCTqm0.s:1822   .text.CAN_MessagePending:0000000000000020 .L0 
C:\Users\SOLDER~1\AppData\Local\Temp\ccYCTqm0.s:1824   .text.CAN_MessagePending:0000000000000024 .L0 
C:\Users\SOLDER~1\AppData\Local\Temp\ccYCTqm0.s:1829   .text.CAN_MessagePending:000000000000002c .L0 
C:\Users\SOLDER~1\AppData\Local\Temp\ccYCTqm0.s:1833   .text.CAN_MessagePending:0000000000000036 .L0 
C:\Users\SOLDER~1\AppData\Local\Temp\ccYCTqm0.s:1836   .text.CAN_MessagePending:000000000000003c .L0 
C:\Users\SOLDER~1\AppData\Local\Temp\ccYCTqm0.s:1838   .text.CAN_MessagePending:0000000000000040 .L0 
C:\Users\SOLDER~1\AppData\Local\Temp\ccYCTqm0.s:1843   .text.CAN_MessagePending:0000000000000048 .L0 
C:\Users\SOLDER~1\AppData\Local\Temp\ccYCTqm0.s:1846   .text.CAN_MessagePending:000000000000004c .L0 
C:\Users\SOLDER~1\AppData\Local\Temp\ccYCTqm0.s:1848   .text.CAN_MessagePending:0000000000000050 .L0 
C:\Users\SOLDER~1\AppData\Local\Temp\ccYCTqm0.s:1850   .text.CAN_MessagePending:0000000000000054 .L0 
C:\Users\SOLDER~1\AppData\Local\Temp\ccYCTqm0.s:1851   .text.CAN_MessagePending:0000000000000054 .L0 
C:\Users\SOLDER~1\AppData\Local\Temp\ccYCTqm0.s:1853   .text.CAN_MessagePending:0000000000000056 .L0 
C:\Users\SOLDER~1\AppData\Local\Temp\ccYCTqm0.s:1855   .text.CAN_MessagePending:0000000000000058 .L0 
C:\Users\SOLDER~1\AppData\Local\Temp\ccYCTqm0.s:1862   .text.CAN_OperatingModeRequest:0000000000000000 CAN_OperatingModeRequest
C:\Users\SOLDER~1\AppData\Local\Temp\ccYCTqm0.s:1865   .text.CAN_OperatingModeRequest:0000000000000000 .L0 
C:\Users\SOLDER~1\AppData\Local\Temp\ccYCTqm0.s:1866   .text.CAN_OperatingModeRequest:0000000000000000 $x
C:\Users\SOLDER~1\AppData\Local\Temp\ccYCTqm0.s:1866   .text.CAN_OperatingModeRequest:0000000000000000 .L0 
C:\Users\SOLDER~1\AppData\Local\Temp\ccYCTqm0.s:1867   .text.CAN_OperatingModeRequest:0000000000000002 .L0 
C:\Users\SOLDER~1\AppData\Local\Temp\ccYCTqm0.s:1869   .text.CAN_OperatingModeRequest:0000000000000004 .L0 
GAS LISTING C:\Users\SOLDER~1\AppData\Local\Temp\ccYCTqm0.s 			page 90


C:\Users\SOLDER~1\AppData\Local\Temp\ccYCTqm0.s:1871   .text.CAN_OperatingModeRequest:0000000000000006 .L0 
C:\Users\SOLDER~1\AppData\Local\Temp\ccYCTqm0.s:1876   .text.CAN_OperatingModeRequest:0000000000000010 .L0 
C:\Users\SOLDER~1\AppData\Local\Temp\ccYCTqm0.s:1878   .text.CAN_OperatingModeRequest:0000000000000014 .L0 
C:\Users\SOLDER~1\AppData\Local\Temp\ccYCTqm0.s:1882   .text.CAN_OperatingModeRequest:000000000000001c .L0 
C:\Users\SOLDER~1\AppData\Local\Temp\ccYCTqm0.s:1885   .text.CAN_OperatingModeRequest:0000000000000022 .L0 
C:\Users\SOLDER~1\AppData\Local\Temp\ccYCTqm0.s:1888   .text.CAN_OperatingModeRequest:0000000000000028 .L0 
C:\Users\SOLDER~1\AppData\Local\Temp\ccYCTqm0.s:1891   .text.CAN_OperatingModeRequest:000000000000002e .L0 
C:\Users\SOLDER~1\AppData\Local\Temp\ccYCTqm0.s:1894   .text.CAN_OperatingModeRequest:0000000000000034 .L0 
C:\Users\SOLDER~1\AppData\Local\Temp\ccYCTqm0.s:1897   .text.CAN_OperatingModeRequest:0000000000000036 .L0 
C:\Users\SOLDER~1\AppData\Local\Temp\ccYCTqm0.s:1902   .text.CAN_OperatingModeRequest:0000000000000040 .L0 
C:\Users\SOLDER~1\AppData\Local\Temp\ccYCTqm0.s:1905   .text.CAN_OperatingModeRequest:0000000000000046 .L0 
C:\Users\SOLDER~1\AppData\Local\Temp\ccYCTqm0.s:1907   .text.CAN_OperatingModeRequest:000000000000004a .L0 
C:\Users\SOLDER~1\AppData\Local\Temp\ccYCTqm0.s:1910   .text.CAN_OperatingModeRequest:0000000000000050 .L0 
C:\Users\SOLDER~1\AppData\Local\Temp\ccYCTqm0.s:1914   .text.CAN_OperatingModeRequest:0000000000000056 .L0 
C:\Users\SOLDER~1\AppData\Local\Temp\ccYCTqm0.s:1917   .text.CAN_OperatingModeRequest:000000000000005c .L0 
C:\Users\SOLDER~1\AppData\Local\Temp\ccYCTqm0.s:1919   .text.CAN_OperatingModeRequest:0000000000000060 .L0 
C:\Users\SOLDER~1\AppData\Local\Temp\ccYCTqm0.s:1922   .text.CAN_OperatingModeRequest:0000000000000066 .L0 
C:\Users\SOLDER~1\AppData\Local\Temp\ccYCTqm0.s:1926   .text.CAN_OperatingModeRequest:000000000000006c .L0 
C:\Users\SOLDER~1\AppData\Local\Temp\ccYCTqm0.s:1931   .text.CAN_OperatingModeRequest:0000000000000074 .L0 
C:\Users\SOLDER~1\AppData\Local\Temp\ccYCTqm0.s:1935   .text.CAN_OperatingModeRequest:000000000000007e .L0 
C:\Users\SOLDER~1\AppData\Local\Temp\ccYCTqm0.s:1938   .text.CAN_OperatingModeRequest:0000000000000084 .L0 
C:\Users\SOLDER~1\AppData\Local\Temp\ccYCTqm0.s:1942   .text.CAN_OperatingModeRequest:000000000000008e .L0 
C:\Users\SOLDER~1\AppData\Local\Temp\ccYCTqm0.s:1945   .text.CAN_OperatingModeRequest:0000000000000090 .L0 
C:\Users\SOLDER~1\AppData\Local\Temp\ccYCTqm0.s:1950   .text.CAN_OperatingModeRequest:000000000000009a .L0 
C:\Users\SOLDER~1\AppData\Local\Temp\ccYCTqm0.s:1953   .text.CAN_OperatingModeRequest:00000000000000a0 .L0 
C:\Users\SOLDER~1\AppData\Local\Temp\ccYCTqm0.s:1955   .text.CAN_OperatingModeRequest:00000000000000a2 .L0 
C:\Users\SOLDER~1\AppData\Local\Temp\ccYCTqm0.s:1957   .text.CAN_OperatingModeRequest:00000000000000a4 .L0 
C:\Users\SOLDER~1\AppData\Local\Temp\ccYCTqm0.s:1961   .text.CAN_OperatingModeRequest:00000000000000aa .L0 
C:\Users\SOLDER~1\AppData\Local\Temp\ccYCTqm0.s:1964   .text.CAN_OperatingModeRequest:00000000000000b0 .L0 
C:\Users\SOLDER~1\AppData\Local\Temp\ccYCTqm0.s:1966   .text.CAN_OperatingModeRequest:00000000000000b2 .L0 
C:\Users\SOLDER~1\AppData\Local\Temp\ccYCTqm0.s:1968   .text.CAN_OperatingModeRequest:00000000000000b4 .L0 
C:\Users\SOLDER~1\AppData\Local\Temp\ccYCTqm0.s:1972   .text.CAN_OperatingModeRequest:00000000000000ba .L0 
C:\Users\SOLDER~1\AppData\Local\Temp\ccYCTqm0.s:1977   .text.CAN_OperatingModeRequest:00000000000000c2 .L0 
C:\Users\SOLDER~1\AppData\Local\Temp\ccYCTqm0.s:1981   .text.CAN_OperatingModeRequest:00000000000000cc .L0 
C:\Users\SOLDER~1\AppData\Local\Temp\ccYCTqm0.s:1984   .text.CAN_OperatingModeRequest:00000000000000d2 .L0 
C:\Users\SOLDER~1\AppData\Local\Temp\ccYCTqm0.s:1987   .text.CAN_OperatingModeRequest:00000000000000d8 .L0 
C:\Users\SOLDER~1\AppData\Local\Temp\ccYCTqm0.s:1990   .text.CAN_OperatingModeRequest:00000000000000de .L0 
C:\Users\SOLDER~1\AppData\Local\Temp\ccYCTqm0.s:1993   .text.CAN_OperatingModeRequest:00000000000000e0 .L0 
C:\Users\SOLDER~1\AppData\Local\Temp\ccYCTqm0.s:1998   .text.CAN_OperatingModeRequest:00000000000000ea .L0 
C:\Users\SOLDER~1\AppData\Local\Temp\ccYCTqm0.s:2001   .text.CAN_OperatingModeRequest:00000000000000f0 .L0 
C:\Users\SOLDER~1\AppData\Local\Temp\ccYCTqm0.s:2003   .text.CAN_OperatingModeRequest:00000000000000f4 .L0 
C:\Users\SOLDER~1\AppData\Local\Temp\ccYCTqm0.s:2006   .text.CAN_OperatingModeRequest:00000000000000fa .L0 
C:\Users\SOLDER~1\AppData\Local\Temp\ccYCTqm0.s:2010   .text.CAN_OperatingModeRequest:0000000000000100 .L0 
C:\Users\SOLDER~1\AppData\Local\Temp\ccYCTqm0.s:2013   .text.CAN_OperatingModeRequest:0000000000000106 .L0 
C:\Users\SOLDER~1\AppData\Local\Temp\ccYCTqm0.s:2015   .text.CAN_OperatingModeRequest:000000000000010a .L0 
C:\Users\SOLDER~1\AppData\Local\Temp\ccYCTqm0.s:2018   .text.CAN_OperatingModeRequest:0000000000000110 .L0 
C:\Users\SOLDER~1\AppData\Local\Temp\ccYCTqm0.s:2022   .text.CAN_OperatingModeRequest:0000000000000116 .L0 
C:\Users\SOLDER~1\AppData\Local\Temp\ccYCTqm0.s:2027   .text.CAN_OperatingModeRequest:000000000000011e .L0 
C:\Users\SOLDER~1\AppData\Local\Temp\ccYCTqm0.s:2030   .text.CAN_OperatingModeRequest:0000000000000122 .L0 
C:\Users\SOLDER~1\AppData\Local\Temp\ccYCTqm0.s:2032   .text.CAN_OperatingModeRequest:0000000000000126 .L0 
C:\Users\SOLDER~1\AppData\Local\Temp\ccYCTqm0.s:2034   .text.CAN_OperatingModeRequest:000000000000012a .L0 
C:\Users\SOLDER~1\AppData\Local\Temp\ccYCTqm0.s:2035   .text.CAN_OperatingModeRequest:000000000000012a .L0 
C:\Users\SOLDER~1\AppData\Local\Temp\ccYCTqm0.s:2037   .text.CAN_OperatingModeRequest:000000000000012c .L0 
C:\Users\SOLDER~1\AppData\Local\Temp\ccYCTqm0.s:2039   .text.CAN_OperatingModeRequest:000000000000012e .L0 
C:\Users\SOLDER~1\AppData\Local\Temp\ccYCTqm0.s:2046   .text.CAN_Sleep:0000000000000000 CAN_Sleep
C:\Users\SOLDER~1\AppData\Local\Temp\ccYCTqm0.s:2049   .text.CAN_Sleep:0000000000000000 .L0 
C:\Users\SOLDER~1\AppData\Local\Temp\ccYCTqm0.s:2050   .text.CAN_Sleep:0000000000000000 $x
GAS LISTING C:\Users\SOLDER~1\AppData\Local\Temp\ccYCTqm0.s 			page 91


C:\Users\SOLDER~1\AppData\Local\Temp\ccYCTqm0.s:2050   .text.CAN_Sleep:0000000000000000 .L0 
C:\Users\SOLDER~1\AppData\Local\Temp\ccYCTqm0.s:2051   .text.CAN_Sleep:0000000000000002 .L0 
C:\Users\SOLDER~1\AppData\Local\Temp\ccYCTqm0.s:2053   .text.CAN_Sleep:0000000000000004 .L0 
C:\Users\SOLDER~1\AppData\Local\Temp\ccYCTqm0.s:2055   .text.CAN_Sleep:0000000000000006 .L0 
C:\Users\SOLDER~1\AppData\Local\Temp\ccYCTqm0.s:2058   .text.CAN_Sleep:000000000000000a .L0 
C:\Users\SOLDER~1\AppData\Local\Temp\ccYCTqm0.s:2060   .text.CAN_Sleep:000000000000000e .L0 
C:\Users\SOLDER~1\AppData\Local\Temp\ccYCTqm0.s:2063   .text.CAN_Sleep:0000000000000014 .L0 
C:\Users\SOLDER~1\AppData\Local\Temp\ccYCTqm0.s:2066   .text.CAN_Sleep:000000000000001a .L0 
C:\Users\SOLDER~1\AppData\Local\Temp\ccYCTqm0.s:2069   .text.CAN_Sleep:0000000000000020 .L0 
C:\Users\SOLDER~1\AppData\Local\Temp\ccYCTqm0.s:2072   .text.CAN_Sleep:0000000000000026 .L0 
C:\Users\SOLDER~1\AppData\Local\Temp\ccYCTqm0.s:2074   .text.CAN_Sleep:000000000000002a .L0 
C:\Users\SOLDER~1\AppData\Local\Temp\ccYCTqm0.s:2077   .text.CAN_Sleep:0000000000000030 .L0 
C:\Users\SOLDER~1\AppData\Local\Temp\ccYCTqm0.s:2081   .text.CAN_Sleep:0000000000000036 .L0 
C:\Users\SOLDER~1\AppData\Local\Temp\ccYCTqm0.s:2083   .text.CAN_Sleep:000000000000003a .L0 
C:\Users\SOLDER~1\AppData\Local\Temp\ccYCTqm0.s:2085   .text.CAN_Sleep:000000000000003e .L0 
C:\Users\SOLDER~1\AppData\Local\Temp\ccYCTqm0.s:2086   .text.CAN_Sleep:000000000000003e .L0 
C:\Users\SOLDER~1\AppData\Local\Temp\ccYCTqm0.s:2088   .text.CAN_Sleep:0000000000000040 .L0 
C:\Users\SOLDER~1\AppData\Local\Temp\ccYCTqm0.s:2090   .text.CAN_Sleep:0000000000000042 .L0 
C:\Users\SOLDER~1\AppData\Local\Temp\ccYCTqm0.s:2097   .text.CAN_WakeUp:0000000000000000 CAN_WakeUp
C:\Users\SOLDER~1\AppData\Local\Temp\ccYCTqm0.s:2100   .text.CAN_WakeUp:0000000000000000 .L0 
C:\Users\SOLDER~1\AppData\Local\Temp\ccYCTqm0.s:2101   .text.CAN_WakeUp:0000000000000000 $x
C:\Users\SOLDER~1\AppData\Local\Temp\ccYCTqm0.s:2101   .text.CAN_WakeUp:0000000000000000 .L0 
C:\Users\SOLDER~1\AppData\Local\Temp\ccYCTqm0.s:2102   .text.CAN_WakeUp:0000000000000002 .L0 
C:\Users\SOLDER~1\AppData\Local\Temp\ccYCTqm0.s:2104   .text.CAN_WakeUp:0000000000000004 .L0 
C:\Users\SOLDER~1\AppData\Local\Temp\ccYCTqm0.s:2106   .text.CAN_WakeUp:0000000000000006 .L0 
C:\Users\SOLDER~1\AppData\Local\Temp\ccYCTqm0.s:2109   .text.CAN_WakeUp:000000000000000a .L0 
C:\Users\SOLDER~1\AppData\Local\Temp\ccYCTqm0.s:2113   .text.CAN_WakeUp:0000000000000012 .L0 
C:\Users\SOLDER~1\AppData\Local\Temp\ccYCTqm0.s:2115   .text.CAN_WakeUp:0000000000000016 .L0 
C:\Users\SOLDER~1\AppData\Local\Temp\ccYCTqm0.s:2118   .text.CAN_WakeUp:000000000000001c .L0 
C:\Users\SOLDER~1\AppData\Local\Temp\ccYCTqm0.s:2122   .text.CAN_WakeUp:0000000000000026 .L0 
C:\Users\SOLDER~1\AppData\Local\Temp\ccYCTqm0.s:2125   .text.CAN_WakeUp:0000000000000028 .L0 
C:\Users\SOLDER~1\AppData\Local\Temp\ccYCTqm0.s:2130   .text.CAN_WakeUp:0000000000000032 .L0 
C:\Users\SOLDER~1\AppData\Local\Temp\ccYCTqm0.s:2133   .text.CAN_WakeUp:0000000000000038 .L0 
C:\Users\SOLDER~1\AppData\Local\Temp\ccYCTqm0.s:2135   .text.CAN_WakeUp:000000000000003c .L0 
C:\Users\SOLDER~1\AppData\Local\Temp\ccYCTqm0.s:2138   .text.CAN_WakeUp:0000000000000042 .L0 
C:\Users\SOLDER~1\AppData\Local\Temp\ccYCTqm0.s:2142   .text.CAN_WakeUp:0000000000000048 .L0 
C:\Users\SOLDER~1\AppData\Local\Temp\ccYCTqm0.s:2145   .text.CAN_WakeUp:000000000000004e .L0 
C:\Users\SOLDER~1\AppData\Local\Temp\ccYCTqm0.s:2147   .text.CAN_WakeUp:0000000000000052 .L0 
C:\Users\SOLDER~1\AppData\Local\Temp\ccYCTqm0.s:2150   .text.CAN_WakeUp:0000000000000058 .L0 
C:\Users\SOLDER~1\AppData\Local\Temp\ccYCTqm0.s:2154   .text.CAN_WakeUp:000000000000005e .L0 
C:\Users\SOLDER~1\AppData\Local\Temp\ccYCTqm0.s:2156   .text.CAN_WakeUp:0000000000000062 .L0 
C:\Users\SOLDER~1\AppData\Local\Temp\ccYCTqm0.s:2158   .text.CAN_WakeUp:0000000000000066 .L0 
C:\Users\SOLDER~1\AppData\Local\Temp\ccYCTqm0.s:2159   .text.CAN_WakeUp:0000000000000066 .L0 
C:\Users\SOLDER~1\AppData\Local\Temp\ccYCTqm0.s:2161   .text.CAN_WakeUp:0000000000000068 .L0 
C:\Users\SOLDER~1\AppData\Local\Temp\ccYCTqm0.s:2163   .text.CAN_WakeUp:000000000000006a .L0 
C:\Users\SOLDER~1\AppData\Local\Temp\ccYCTqm0.s:2170   .text.CAN_GetLastErrorCode:0000000000000000 CAN_GetLastErrorCode
C:\Users\SOLDER~1\AppData\Local\Temp\ccYCTqm0.s:2173   .text.CAN_GetLastErrorCode:0000000000000000 .L0 
C:\Users\SOLDER~1\AppData\Local\Temp\ccYCTqm0.s:2174   .text.CAN_GetLastErrorCode:0000000000000000 $x
C:\Users\SOLDER~1\AppData\Local\Temp\ccYCTqm0.s:2174   .text.CAN_GetLastErrorCode:0000000000000000 .L0 
C:\Users\SOLDER~1\AppData\Local\Temp\ccYCTqm0.s:2175   .text.CAN_GetLastErrorCode:0000000000000002 .L0 
C:\Users\SOLDER~1\AppData\Local\Temp\ccYCTqm0.s:2177   .text.CAN_GetLastErrorCode:0000000000000004 .L0 
C:\Users\SOLDER~1\AppData\Local\Temp\ccYCTqm0.s:2179   .text.CAN_GetLastErrorCode:0000000000000006 .L0 
C:\Users\SOLDER~1\AppData\Local\Temp\ccYCTqm0.s:2182   .text.CAN_GetLastErrorCode:000000000000000a .L0 
C:\Users\SOLDER~1\AppData\Local\Temp\ccYCTqm0.s:2184   .text.CAN_GetLastErrorCode:000000000000000e .L0 
C:\Users\SOLDER~1\AppData\Local\Temp\ccYCTqm0.s:2187   .text.CAN_GetLastErrorCode:0000000000000014 .L0 
C:\Users\SOLDER~1\AppData\Local\Temp\ccYCTqm0.s:2189   .text.CAN_GetLastErrorCode:0000000000000018 .L0 
C:\Users\SOLDER~1\AppData\Local\Temp\ccYCTqm0.s:2192   .text.CAN_GetLastErrorCode:0000000000000020 .L0 
GAS LISTING C:\Users\SOLDER~1\AppData\Local\Temp\ccYCTqm0.s 			page 92


C:\Users\SOLDER~1\AppData\Local\Temp\ccYCTqm0.s:2194   .text.CAN_GetLastErrorCode:0000000000000024 .L0 
C:\Users\SOLDER~1\AppData\Local\Temp\ccYCTqm0.s:2196   .text.CAN_GetLastErrorCode:0000000000000028 .L0 
C:\Users\SOLDER~1\AppData\Local\Temp\ccYCTqm0.s:2197   .text.CAN_GetLastErrorCode:0000000000000028 .L0 
C:\Users\SOLDER~1\AppData\Local\Temp\ccYCTqm0.s:2199   .text.CAN_GetLastErrorCode:000000000000002a .L0 
C:\Users\SOLDER~1\AppData\Local\Temp\ccYCTqm0.s:2201   .text.CAN_GetLastErrorCode:000000000000002c .L0 
C:\Users\SOLDER~1\AppData\Local\Temp\ccYCTqm0.s:2208   .text.CAN_GetReceiveErrorCounter:0000000000000000 CAN_GetReceiveErrorCounter
C:\Users\SOLDER~1\AppData\Local\Temp\ccYCTqm0.s:2211   .text.CAN_GetReceiveErrorCounter:0000000000000000 .L0 
C:\Users\SOLDER~1\AppData\Local\Temp\ccYCTqm0.s:2212   .text.CAN_GetReceiveErrorCounter:0000000000000000 $x
C:\Users\SOLDER~1\AppData\Local\Temp\ccYCTqm0.s:2212   .text.CAN_GetReceiveErrorCounter:0000000000000000 .L0 
C:\Users\SOLDER~1\AppData\Local\Temp\ccYCTqm0.s:2213   .text.CAN_GetReceiveErrorCounter:0000000000000002 .L0 
C:\Users\SOLDER~1\AppData\Local\Temp\ccYCTqm0.s:2215   .text.CAN_GetReceiveErrorCounter:0000000000000004 .L0 
C:\Users\SOLDER~1\AppData\Local\Temp\ccYCTqm0.s:2217   .text.CAN_GetReceiveErrorCounter:0000000000000006 .L0 
C:\Users\SOLDER~1\AppData\Local\Temp\ccYCTqm0.s:2220   .text.CAN_GetReceiveErrorCounter:000000000000000a .L0 
C:\Users\SOLDER~1\AppData\Local\Temp\ccYCTqm0.s:2222   .text.CAN_GetReceiveErrorCounter:000000000000000e .L0 
C:\Users\SOLDER~1\AppData\Local\Temp\ccYCTqm0.s:2225   .text.CAN_GetReceiveErrorCounter:0000000000000014 .L0 
C:\Users\SOLDER~1\AppData\Local\Temp\ccYCTqm0.s:2227   .text.CAN_GetReceiveErrorCounter:0000000000000016 .L0 
C:\Users\SOLDER~1\AppData\Local\Temp\ccYCTqm0.s:2229   .text.CAN_GetReceiveErrorCounter:000000000000001a .L0 
C:\Users\SOLDER~1\AppData\Local\Temp\ccYCTqm0.s:2231   .text.CAN_GetReceiveErrorCounter:000000000000001e .L0 
C:\Users\SOLDER~1\AppData\Local\Temp\ccYCTqm0.s:2233   .text.CAN_GetReceiveErrorCounter:0000000000000022 .L0 
C:\Users\SOLDER~1\AppData\Local\Temp\ccYCTqm0.s:2234   .text.CAN_GetReceiveErrorCounter:0000000000000022 .L0 
C:\Users\SOLDER~1\AppData\Local\Temp\ccYCTqm0.s:2236   .text.CAN_GetReceiveErrorCounter:0000000000000024 .L0 
C:\Users\SOLDER~1\AppData\Local\Temp\ccYCTqm0.s:2238   .text.CAN_GetReceiveErrorCounter:0000000000000026 .L0 
C:\Users\SOLDER~1\AppData\Local\Temp\ccYCTqm0.s:2245   .text.CAN_GetLSBTransmitErrorCounter:0000000000000000 CAN_GetLSBTransmitErrorCounter
C:\Users\SOLDER~1\AppData\Local\Temp\ccYCTqm0.s:2248   .text.CAN_GetLSBTransmitErrorCounter:0000000000000000 .L0 
C:\Users\SOLDER~1\AppData\Local\Temp\ccYCTqm0.s:2249   .text.CAN_GetLSBTransmitErrorCounter:0000000000000000 $x
C:\Users\SOLDER~1\AppData\Local\Temp\ccYCTqm0.s:2249   .text.CAN_GetLSBTransmitErrorCounter:0000000000000000 .L0 
C:\Users\SOLDER~1\AppData\Local\Temp\ccYCTqm0.s:2250   .text.CAN_GetLSBTransmitErrorCounter:0000000000000002 .L0 
C:\Users\SOLDER~1\AppData\Local\Temp\ccYCTqm0.s:2252   .text.CAN_GetLSBTransmitErrorCounter:0000000000000004 .L0 
C:\Users\SOLDER~1\AppData\Local\Temp\ccYCTqm0.s:2254   .text.CAN_GetLSBTransmitErrorCounter:0000000000000006 .L0 
C:\Users\SOLDER~1\AppData\Local\Temp\ccYCTqm0.s:2257   .text.CAN_GetLSBTransmitErrorCounter:000000000000000a .L0 
C:\Users\SOLDER~1\AppData\Local\Temp\ccYCTqm0.s:2259   .text.CAN_GetLSBTransmitErrorCounter:000000000000000e .L0 
C:\Users\SOLDER~1\AppData\Local\Temp\ccYCTqm0.s:2262   .text.CAN_GetLSBTransmitErrorCounter:0000000000000014 .L0 
C:\Users\SOLDER~1\AppData\Local\Temp\ccYCTqm0.s:2264   .text.CAN_GetLSBTransmitErrorCounter:0000000000000016 .L0 
C:\Users\SOLDER~1\AppData\Local\Temp\ccYCTqm0.s:2266   .text.CAN_GetLSBTransmitErrorCounter:000000000000001a .L0 
C:\Users\SOLDER~1\AppData\Local\Temp\ccYCTqm0.s:2268   .text.CAN_GetLSBTransmitErrorCounter:000000000000001e .L0 
C:\Users\SOLDER~1\AppData\Local\Temp\ccYCTqm0.s:2270   .text.CAN_GetLSBTransmitErrorCounter:0000000000000022 .L0 
C:\Users\SOLDER~1\AppData\Local\Temp\ccYCTqm0.s:2271   .text.CAN_GetLSBTransmitErrorCounter:0000000000000022 .L0 
C:\Users\SOLDER~1\AppData\Local\Temp\ccYCTqm0.s:2273   .text.CAN_GetLSBTransmitErrorCounter:0000000000000024 .L0 
C:\Users\SOLDER~1\AppData\Local\Temp\ccYCTqm0.s:2275   .text.CAN_GetLSBTransmitErrorCounter:0000000000000026 .L0 
C:\Users\SOLDER~1\AppData\Local\Temp\ccYCTqm0.s:2282   .text.CAN_ITConfig:0000000000000000 CAN_ITConfig
C:\Users\SOLDER~1\AppData\Local\Temp\ccYCTqm0.s:2285   .text.CAN_ITConfig:0000000000000000 .L0 
C:\Users\SOLDER~1\AppData\Local\Temp\ccYCTqm0.s:2286   .text.CAN_ITConfig:0000000000000000 $x
C:\Users\SOLDER~1\AppData\Local\Temp\ccYCTqm0.s:2286   .text.CAN_ITConfig:0000000000000000 .L0 
C:\Users\SOLDER~1\AppData\Local\Temp\ccYCTqm0.s:2287   .text.CAN_ITConfig:0000000000000002 .L0 
C:\Users\SOLDER~1\AppData\Local\Temp\ccYCTqm0.s:2289   .text.CAN_ITConfig:0000000000000004 .L0 
C:\Users\SOLDER~1\AppData\Local\Temp\ccYCTqm0.s:2291   .text.CAN_ITConfig:0000000000000006 .L0 
C:\Users\SOLDER~1\AppData\Local\Temp\ccYCTqm0.s:2296   .text.CAN_ITConfig:0000000000000012 .L0 
C:\Users\SOLDER~1\AppData\Local\Temp\ccYCTqm0.s:2299   .text.CAN_ITConfig:0000000000000018 .L0 
C:\Users\SOLDER~1\AppData\Local\Temp\ccYCTqm0.s:2302   .text.CAN_ITConfig:000000000000001e .L0 
C:\Users\SOLDER~1\AppData\Local\Temp\ccYCTqm0.s:2307   .text.CAN_ITConfig:000000000000002a .L0 
C:\Users\SOLDER~1\AppData\Local\Temp\ccYCTqm0.s:2310   .text.CAN_ITConfig:000000000000002c .L0 
C:\Users\SOLDER~1\AppData\Local\Temp\ccYCTqm0.s:2313   .text.CAN_ITConfig:0000000000000032 .L0 
C:\Users\SOLDER~1\AppData\Local\Temp\ccYCTqm0.s:2316   .text.CAN_ITConfig:000000000000003a .L0 
C:\Users\SOLDER~1\AppData\Local\Temp\ccYCTqm0.s:2321   .text.CAN_ITConfig:0000000000000042 .L0 
C:\Users\SOLDER~1\AppData\Local\Temp\ccYCTqm0.s:2323   .text.CAN_ITConfig:0000000000000046 .L0 
C:\Users\SOLDER~1\AppData\Local\Temp\ccYCTqm0.s:2324   .text.CAN_ITConfig:0000000000000046 .L0 
C:\Users\SOLDER~1\AppData\Local\Temp\ccYCTqm0.s:2326   .text.CAN_ITConfig:0000000000000048 .L0 
GAS LISTING C:\Users\SOLDER~1\AppData\Local\Temp\ccYCTqm0.s 			page 93


C:\Users\SOLDER~1\AppData\Local\Temp\ccYCTqm0.s:2328   .text.CAN_ITConfig:000000000000004a .L0 
C:\Users\SOLDER~1\AppData\Local\Temp\ccYCTqm0.s:2335   .text.CAN_GetFlagStatus:0000000000000000 CAN_GetFlagStatus
C:\Users\SOLDER~1\AppData\Local\Temp\ccYCTqm0.s:2338   .text.CAN_GetFlagStatus:0000000000000000 .L0 
C:\Users\SOLDER~1\AppData\Local\Temp\ccYCTqm0.s:2339   .text.CAN_GetFlagStatus:0000000000000000 $x
C:\Users\SOLDER~1\AppData\Local\Temp\ccYCTqm0.s:2339   .text.CAN_GetFlagStatus:0000000000000000 .L0 
C:\Users\SOLDER~1\AppData\Local\Temp\ccYCTqm0.s:2340   .text.CAN_GetFlagStatus:0000000000000002 .L0 
C:\Users\SOLDER~1\AppData\Local\Temp\ccYCTqm0.s:2342   .text.CAN_GetFlagStatus:0000000000000004 .L0 
C:\Users\SOLDER~1\AppData\Local\Temp\ccYCTqm0.s:2344   .text.CAN_GetFlagStatus:0000000000000006 .L0 
C:\Users\SOLDER~1\AppData\Local\Temp\ccYCTqm0.s:2348   .text.CAN_GetFlagStatus:000000000000000e .L0 
C:\Users\SOLDER~1\AppData\Local\Temp\ccYCTqm0.s:2350   .text.CAN_GetFlagStatus:0000000000000012 .L0 
C:\Users\SOLDER~1\AppData\Local\Temp\ccYCTqm0.s:2354   .text.CAN_GetFlagStatus:000000000000001c .L0 
C:\Users\SOLDER~1\AppData\Local\Temp\ccYCTqm0.s:2356   .text.CAN_GetFlagStatus:000000000000001e .L0 
C:\Users\SOLDER~1\AppData\Local\Temp\ccYCTqm0.s:2359   .text.CAN_GetFlagStatus:0000000000000024 .L0 
C:\Users\SOLDER~1\AppData\Local\Temp\ccYCTqm0.s:2365   .text.CAN_GetFlagStatus:0000000000000032 .L0 
C:\Users\SOLDER~1\AppData\Local\Temp\ccYCTqm0.s:2367   .text.CAN_GetFlagStatus:0000000000000034 .L0 
C:\Users\SOLDER~1\AppData\Local\Temp\ccYCTqm0.s:2372   .text.CAN_GetFlagStatus:000000000000003c .L0 
C:\Users\SOLDER~1\AppData\Local\Temp\ccYCTqm0.s:2376   .text.CAN_GetFlagStatus:0000000000000042 .L0 
C:\Users\SOLDER~1\AppData\Local\Temp\ccYCTqm0.s:2380   .text.CAN_GetFlagStatus:000000000000004c .L0 
C:\Users\SOLDER~1\AppData\Local\Temp\ccYCTqm0.s:2382   .text.CAN_GetFlagStatus:000000000000004e .L0 
C:\Users\SOLDER~1\AppData\Local\Temp\ccYCTqm0.s:2385   .text.CAN_GetFlagStatus:0000000000000054 .L0 
C:\Users\SOLDER~1\AppData\Local\Temp\ccYCTqm0.s:2391   .text.CAN_GetFlagStatus:0000000000000062 .L0 
C:\Users\SOLDER~1\AppData\Local\Temp\ccYCTqm0.s:2393   .text.CAN_GetFlagStatus:0000000000000064 .L0 
C:\Users\SOLDER~1\AppData\Local\Temp\ccYCTqm0.s:2398   .text.CAN_GetFlagStatus:000000000000006c .L0 
C:\Users\SOLDER~1\AppData\Local\Temp\ccYCTqm0.s:2402   .text.CAN_GetFlagStatus:0000000000000072 .L0 
C:\Users\SOLDER~1\AppData\Local\Temp\ccYCTqm0.s:2406   .text.CAN_GetFlagStatus:000000000000007c .L0 
C:\Users\SOLDER~1\AppData\Local\Temp\ccYCTqm0.s:2408   .text.CAN_GetFlagStatus:000000000000007e .L0 
C:\Users\SOLDER~1\AppData\Local\Temp\ccYCTqm0.s:2411   .text.CAN_GetFlagStatus:0000000000000084 .L0 
C:\Users\SOLDER~1\AppData\Local\Temp\ccYCTqm0.s:2417   .text.CAN_GetFlagStatus:0000000000000092 .L0 
C:\Users\SOLDER~1\AppData\Local\Temp\ccYCTqm0.s:2419   .text.CAN_GetFlagStatus:0000000000000094 .L0 
C:\Users\SOLDER~1\AppData\Local\Temp\ccYCTqm0.s:2424   .text.CAN_GetFlagStatus:000000000000009c .L0 
C:\Users\SOLDER~1\AppData\Local\Temp\ccYCTqm0.s:2428   .text.CAN_GetFlagStatus:00000000000000a2 .L0 
C:\Users\SOLDER~1\AppData\Local\Temp\ccYCTqm0.s:2432   .text.CAN_GetFlagStatus:00000000000000ac .L0 
C:\Users\SOLDER~1\AppData\Local\Temp\ccYCTqm0.s:2434   .text.CAN_GetFlagStatus:00000000000000ae .L0 
C:\Users\SOLDER~1\AppData\Local\Temp\ccYCTqm0.s:2437   .text.CAN_GetFlagStatus:00000000000000b4 .L0 
C:\Users\SOLDER~1\AppData\Local\Temp\ccYCTqm0.s:2443   .text.CAN_GetFlagStatus:00000000000000c2 .L0 
C:\Users\SOLDER~1\AppData\Local\Temp\ccYCTqm0.s:2445   .text.CAN_GetFlagStatus:00000000000000c4 .L0 
C:\Users\SOLDER~1\AppData\Local\Temp\ccYCTqm0.s:2450   .text.CAN_GetFlagStatus:00000000000000cc .L0 
C:\Users\SOLDER~1\AppData\Local\Temp\ccYCTqm0.s:2454   .text.CAN_GetFlagStatus:00000000000000d2 .L0 
C:\Users\SOLDER~1\AppData\Local\Temp\ccYCTqm0.s:2457   .text.CAN_GetFlagStatus:00000000000000d8 .L0 
C:\Users\SOLDER~1\AppData\Local\Temp\ccYCTqm0.s:2463   .text.CAN_GetFlagStatus:00000000000000e6 .L0 
C:\Users\SOLDER~1\AppData\Local\Temp\ccYCTqm0.s:2465   .text.CAN_GetFlagStatus:00000000000000e8 .L0 
C:\Users\SOLDER~1\AppData\Local\Temp\ccYCTqm0.s:2470   .text.CAN_GetFlagStatus:00000000000000f0 .L0 
C:\Users\SOLDER~1\AppData\Local\Temp\ccYCTqm0.s:2473   .text.CAN_GetFlagStatus:00000000000000f4 .L0 
C:\Users\SOLDER~1\AppData\Local\Temp\ccYCTqm0.s:2475   .text.CAN_GetFlagStatus:00000000000000f8 .L0 
C:\Users\SOLDER~1\AppData\Local\Temp\ccYCTqm0.s:2477   .text.CAN_GetFlagStatus:00000000000000fc .L0 
C:\Users\SOLDER~1\AppData\Local\Temp\ccYCTqm0.s:2478   .text.CAN_GetFlagStatus:00000000000000fc .L0 
C:\Users\SOLDER~1\AppData\Local\Temp\ccYCTqm0.s:2480   .text.CAN_GetFlagStatus:00000000000000fe .L0 
C:\Users\SOLDER~1\AppData\Local\Temp\ccYCTqm0.s:2482   .text.CAN_GetFlagStatus:0000000000000100 .L0 
C:\Users\SOLDER~1\AppData\Local\Temp\ccYCTqm0.s:2489   .text.CAN_ClearFlag:0000000000000000 CAN_ClearFlag
C:\Users\SOLDER~1\AppData\Local\Temp\ccYCTqm0.s:2492   .text.CAN_ClearFlag:0000000000000000 .L0 
C:\Users\SOLDER~1\AppData\Local\Temp\ccYCTqm0.s:2493   .text.CAN_ClearFlag:0000000000000000 $x
C:\Users\SOLDER~1\AppData\Local\Temp\ccYCTqm0.s:2493   .text.CAN_ClearFlag:0000000000000000 .L0 
C:\Users\SOLDER~1\AppData\Local\Temp\ccYCTqm0.s:2494   .text.CAN_ClearFlag:0000000000000002 .L0 
C:\Users\SOLDER~1\AppData\Local\Temp\ccYCTqm0.s:2496   .text.CAN_ClearFlag:0000000000000004 .L0 
C:\Users\SOLDER~1\AppData\Local\Temp\ccYCTqm0.s:2498   .text.CAN_ClearFlag:0000000000000006 .L0 
C:\Users\SOLDER~1\AppData\Local\Temp\ccYCTqm0.s:2502   .text.CAN_ClearFlag:000000000000000e .L0 
C:\Users\SOLDER~1\AppData\Local\Temp\ccYCTqm0.s:2504   .text.CAN_ClearFlag:0000000000000012 .L0 
GAS LISTING C:\Users\SOLDER~1\AppData\Local\Temp\ccYCTqm0.s 			page 94


C:\Users\SOLDER~1\AppData\Local\Temp\ccYCTqm0.s:2509   .text.CAN_ClearFlag:0000000000000022 .L0 
C:\Users\SOLDER~1\AppData\Local\Temp\ccYCTqm0.s:2512   .text.CAN_ClearFlag:000000000000002a .L0 
C:\Users\SOLDER~1\AppData\Local\Temp\ccYCTqm0.s:2515   .text.CAN_ClearFlag:000000000000002c .L0 
C:\Users\SOLDER~1\AppData\Local\Temp\ccYCTqm0.s:2521   .text.CAN_ClearFlag:000000000000003c .L0 
C:\Users\SOLDER~1\AppData\Local\Temp\ccYCTqm0.s:2525   .text.CAN_ClearFlag:0000000000000046 .L0 
C:\Users\SOLDER~1\AppData\Local\Temp\ccYCTqm0.s:2527   .text.CAN_ClearFlag:0000000000000048 .L0 
C:\Users\SOLDER~1\AppData\Local\Temp\ccYCTqm0.s:2531   .text.CAN_ClearFlag:0000000000000052 .L0 
C:\Users\SOLDER~1\AppData\Local\Temp\ccYCTqm0.s:2534   .text.CAN_ClearFlag:0000000000000054 .L0 
C:\Users\SOLDER~1\AppData\Local\Temp\ccYCTqm0.s:2538   .text.CAN_ClearFlag:000000000000005e .L0 
C:\Users\SOLDER~1\AppData\Local\Temp\ccYCTqm0.s:2540   .text.CAN_ClearFlag:0000000000000060 .L0 
C:\Users\SOLDER~1\AppData\Local\Temp\ccYCTqm0.s:2544   .text.CAN_ClearFlag:000000000000006a .L0 
C:\Users\SOLDER~1\AppData\Local\Temp\ccYCTqm0.s:2547   .text.CAN_ClearFlag:000000000000006c .L0 
C:\Users\SOLDER~1\AppData\Local\Temp\ccYCTqm0.s:2551   .text.CAN_ClearFlag:0000000000000076 .L0 
C:\Users\SOLDER~1\AppData\Local\Temp\ccYCTqm0.s:2553   .text.CAN_ClearFlag:0000000000000078 .L0 
C:\Users\SOLDER~1\AppData\Local\Temp\ccYCTqm0.s:2557   .text.CAN_ClearFlag:0000000000000082 .L0 
C:\Users\SOLDER~1\AppData\Local\Temp\ccYCTqm0.s:2560   .text.CAN_ClearFlag:0000000000000084 .L0 
C:\Users\SOLDER~1\AppData\Local\Temp\ccYCTqm0.s:2565   .text.CAN_ClearFlag:000000000000008e .L0 
C:\Users\SOLDER~1\AppData\Local\Temp\ccYCTqm0.s:2567   .text.CAN_ClearFlag:0000000000000092 .L0 
C:\Users\SOLDER~1\AppData\Local\Temp\ccYCTqm0.s:2568   .text.CAN_ClearFlag:0000000000000092 .L0 
C:\Users\SOLDER~1\AppData\Local\Temp\ccYCTqm0.s:2570   .text.CAN_ClearFlag:0000000000000094 .L0 
C:\Users\SOLDER~1\AppData\Local\Temp\ccYCTqm0.s:2572   .text.CAN_ClearFlag:0000000000000096 .L0 
C:\Users\SOLDER~1\AppData\Local\Temp\ccYCTqm0.s:2579   .text.CAN_GetITStatus:0000000000000000 CAN_GetITStatus
C:\Users\SOLDER~1\AppData\Local\Temp\ccYCTqm0.s:2582   .text.CAN_GetITStatus:0000000000000000 .L0 
C:\Users\SOLDER~1\AppData\Local\Temp\ccYCTqm0.s:2583   .text.CAN_GetITStatus:0000000000000000 $x
C:\Users\SOLDER~1\AppData\Local\Temp\ccYCTqm0.s:2583   .text.CAN_GetITStatus:0000000000000000 .L0 
C:\Users\SOLDER~1\AppData\Local\Temp\ccYCTqm0.s:2584   .text.CAN_GetITStatus:0000000000000002 .L0 
C:\Users\SOLDER~1\AppData\Local\Temp\ccYCTqm0.s:2587   .text.CAN_GetITStatus:0000000000000006 .L0 
C:\Users\SOLDER~1\AppData\Local\Temp\ccYCTqm0.s:2588   .text.CAN_GetITStatus:0000000000000006 .L0 
C:\Users\SOLDER~1\AppData\Local\Temp\ccYCTqm0.s:2590   .text.CAN_GetITStatus:0000000000000008 .L0 
C:\Users\SOLDER~1\AppData\Local\Temp\ccYCTqm0.s:2594   .text.CAN_GetITStatus:0000000000000010 .L0 
C:\Users\SOLDER~1\AppData\Local\Temp\ccYCTqm0.s:2596   .text.CAN_GetITStatus:0000000000000014 .L0 
C:\Users\SOLDER~1\AppData\Local\Temp\ccYCTqm0.s:2599   .text.CAN_GetITStatus:000000000000001a .L0 
C:\Users\SOLDER~1\AppData\Local\Temp\ccYCTqm0.s:2602   .text.CAN_GetITStatus:0000000000000020 .L0 
C:\Users\SOLDER~1\AppData\Local\Temp\ccYCTqm0.s:2604   .text.CAN_GetITStatus:0000000000000024 .L0 
C:\Users\SOLDER~1\AppData\Local\Temp\ccYCTqm0.s:2707   .text.CAN_GetITStatus:000000000000010a .L0 
C:\Users\SOLDER~1\AppData\Local\Temp\ccYCTqm0.s:2710   .text.CAN_GetITStatus:0000000000000110 .L0 
C:\Users\SOLDER~1\AppData\Local\Temp\ccYCTqm0.s:3079   .text.CheckITStatus:0000000000000000 CheckITStatus
C:\Users\SOLDER~1\AppData\Local\Temp\ccYCTqm0.s:2716   .text.CAN_GetITStatus:0000000000000124 .L0 
C:\Users\SOLDER~1\AppData\Local\Temp\ccYCTqm0.s:2719   .text.CAN_GetITStatus:0000000000000126 .L0 
C:\Users\SOLDER~1\AppData\Local\Temp\ccYCTqm0.s:2722   .text.CAN_GetITStatus:000000000000012c .L0 
C:\Users\SOLDER~1\AppData\Local\Temp\ccYCTqm0.s:2727   .text.CAN_GetITStatus:000000000000013c .L0 
C:\Users\SOLDER~1\AppData\Local\Temp\ccYCTqm0.s:2730   .text.CAN_GetITStatus:000000000000013e .L0 
C:\Users\SOLDER~1\AppData\Local\Temp\ccYCTqm0.s:2733   .text.CAN_GetITStatus:0000000000000144 .L0 
C:\Users\SOLDER~1\AppData\Local\Temp\ccYCTqm0.s:2738   .text.CAN_GetITStatus:0000000000000154 .L0 
C:\Users\SOLDER~1\AppData\Local\Temp\ccYCTqm0.s:2741   .text.CAN_GetITStatus:0000000000000156 .L0 
C:\Users\SOLDER~1\AppData\Local\Temp\ccYCTqm0.s:2744   .text.CAN_GetITStatus:000000000000015c .L0 
C:\Users\SOLDER~1\AppData\Local\Temp\ccYCTqm0.s:2749   .text.CAN_GetITStatus:000000000000016c .L0 
C:\Users\SOLDER~1\AppData\Local\Temp\ccYCTqm0.s:2752   .text.CAN_GetITStatus:000000000000016e .L0 
C:\Users\SOLDER~1\AppData\Local\Temp\ccYCTqm0.s:2755   .text.CAN_GetITStatus:0000000000000174 .L0 
C:\Users\SOLDER~1\AppData\Local\Temp\ccYCTqm0.s:2760   .text.CAN_GetITStatus:0000000000000184 .L0 
C:\Users\SOLDER~1\AppData\Local\Temp\ccYCTqm0.s:2763   .text.CAN_GetITStatus:0000000000000186 .L0 
C:\Users\SOLDER~1\AppData\Local\Temp\ccYCTqm0.s:2766   .text.CAN_GetITStatus:000000000000018c .L0 
C:\Users\SOLDER~1\AppData\Local\Temp\ccYCTqm0.s:2771   .text.CAN_GetITStatus:000000000000019c .L0 
C:\Users\SOLDER~1\AppData\Local\Temp\ccYCTqm0.s:2774   .text.CAN_GetITStatus:000000000000019e .L0 
C:\Users\SOLDER~1\AppData\Local\Temp\ccYCTqm0.s:2777   .text.CAN_GetITStatus:00000000000001a4 .L0 
C:\Users\SOLDER~1\AppData\Local\Temp\ccYCTqm0.s:2782   .text.CAN_GetITStatus:00000000000001b4 .L0 
C:\Users\SOLDER~1\AppData\Local\Temp\ccYCTqm0.s:2785   .text.CAN_GetITStatus:00000000000001b6 .L0 
GAS LISTING C:\Users\SOLDER~1\AppData\Local\Temp\ccYCTqm0.s 			page 95


C:\Users\SOLDER~1\AppData\Local\Temp\ccYCTqm0.s:2788   .text.CAN_GetITStatus:00000000000001bc .L0 
C:\Users\SOLDER~1\AppData\Local\Temp\ccYCTqm0.s:2793   .text.CAN_GetITStatus:00000000000001cc .L0 
C:\Users\SOLDER~1\AppData\Local\Temp\ccYCTqm0.s:2796   .text.CAN_GetITStatus:00000000000001ce .L0 
C:\Users\SOLDER~1\AppData\Local\Temp\ccYCTqm0.s:2799   .text.CAN_GetITStatus:00000000000001d4 .L0 
C:\Users\SOLDER~1\AppData\Local\Temp\ccYCTqm0.s:2804   .text.CAN_GetITStatus:00000000000001e4 .L0 
C:\Users\SOLDER~1\AppData\Local\Temp\ccYCTqm0.s:2807   .text.CAN_GetITStatus:00000000000001e6 .L0 
C:\Users\SOLDER~1\AppData\Local\Temp\ccYCTqm0.s:2810   .text.CAN_GetITStatus:00000000000001ec .L0 
C:\Users\SOLDER~1\AppData\Local\Temp\ccYCTqm0.s:2815   .text.CAN_GetITStatus:00000000000001fc .L0 
C:\Users\SOLDER~1\AppData\Local\Temp\ccYCTqm0.s:2818   .text.CAN_GetITStatus:00000000000001fe .L0 
C:\Users\SOLDER~1\AppData\Local\Temp\ccYCTqm0.s:2821   .text.CAN_GetITStatus:0000000000000204 .L0 
C:\Users\SOLDER~1\AppData\Local\Temp\ccYCTqm0.s:2826   .text.CAN_GetITStatus:0000000000000214 .L0 
C:\Users\SOLDER~1\AppData\Local\Temp\ccYCTqm0.s:2829   .text.CAN_GetITStatus:0000000000000216 .L0 
C:\Users\SOLDER~1\AppData\Local\Temp\ccYCTqm0.s:2832   .text.CAN_GetITStatus:000000000000021c .L0 
C:\Users\SOLDER~1\AppData\Local\Temp\ccYCTqm0.s:2837   .text.CAN_GetITStatus:000000000000022c .L0 
C:\Users\SOLDER~1\AppData\Local\Temp\ccYCTqm0.s:2840   .text.CAN_GetITStatus:000000000000022e .L0 
C:\Users\SOLDER~1\AppData\Local\Temp\ccYCTqm0.s:2843   .text.CAN_GetITStatus:0000000000000234 .L0 
C:\Users\SOLDER~1\AppData\Local\Temp\ccYCTqm0.s:2848   .text.CAN_GetITStatus:0000000000000246 .L0 
C:\Users\SOLDER~1\AppData\Local\Temp\ccYCTqm0.s:2851   .text.CAN_GetITStatus:0000000000000248 .L0 
C:\Users\SOLDER~1\AppData\Local\Temp\ccYCTqm0.s:2854   .text.CAN_GetITStatus:000000000000024e .L0 
C:\Users\SOLDER~1\AppData\Local\Temp\ccYCTqm0.s:2859   .text.CAN_GetITStatus:000000000000025e .L0 
C:\Users\SOLDER~1\AppData\Local\Temp\ccYCTqm0.s:2862   .text.CAN_GetITStatus:0000000000000260 .L0 
C:\Users\SOLDER~1\AppData\Local\Temp\ccYCTqm0.s:2864   .text.CAN_GetITStatus:0000000000000264 .L0 
C:\Users\SOLDER~1\AppData\Local\Temp\ccYCTqm0.s:2867   .text.CAN_GetITStatus:0000000000000266 .L0 
C:\Users\SOLDER~1\AppData\Local\Temp\ccYCTqm0.s:2870   .text.CAN_GetITStatus:000000000000026a .L0 
C:\Users\SOLDER~1\AppData\Local\Temp\ccYCTqm0.s:2872   .text.CAN_GetITStatus:000000000000026e .L0 
C:\Users\SOLDER~1\AppData\Local\Temp\ccYCTqm0.s:2874   .text.CAN_GetITStatus:0000000000000272 .L0 
C:\Users\SOLDER~1\AppData\Local\Temp\ccYCTqm0.s:2876   .text.CAN_GetITStatus:0000000000000274 .L0 
C:\Users\SOLDER~1\AppData\Local\Temp\ccYCTqm0.s:2877   .text.CAN_GetITStatus:0000000000000274 .L0 
C:\Users\SOLDER~1\AppData\Local\Temp\ccYCTqm0.s:2879   .text.CAN_GetITStatus:0000000000000276 .L0 
C:\Users\SOLDER~1\AppData\Local\Temp\ccYCTqm0.s:2881   .text.CAN_GetITStatus:0000000000000278 .L0 
C:\Users\SOLDER~1\AppData\Local\Temp\ccYCTqm0.s:2888   .text.CAN_ClearITPendingBit:0000000000000000 CAN_ClearITPendingBit
C:\Users\SOLDER~1\AppData\Local\Temp\ccYCTqm0.s:2891   .text.CAN_ClearITPendingBit:0000000000000000 .L0 
C:\Users\SOLDER~1\AppData\Local\Temp\ccYCTqm0.s:2892   .text.CAN_ClearITPendingBit:0000000000000000 $x
C:\Users\SOLDER~1\AppData\Local\Temp\ccYCTqm0.s:2892   .text.CAN_ClearITPendingBit:0000000000000000 .L0 
C:\Users\SOLDER~1\AppData\Local\Temp\ccYCTqm0.s:2893   .text.CAN_ClearITPendingBit:0000000000000002 .L0 
C:\Users\SOLDER~1\AppData\Local\Temp\ccYCTqm0.s:2895   .text.CAN_ClearITPendingBit:0000000000000004 .L0 
C:\Users\SOLDER~1\AppData\Local\Temp\ccYCTqm0.s:2897   .text.CAN_ClearITPendingBit:0000000000000006 .L0 
C:\Users\SOLDER~1\AppData\Local\Temp\ccYCTqm0.s:2901   .text.CAN_ClearITPendingBit:000000000000000e .L0 
C:\Users\SOLDER~1\AppData\Local\Temp\ccYCTqm0.s:2969   .text.CAN_ClearITPendingBit:0000000000000108 .L0 
C:\Users\SOLDER~1\AppData\Local\Temp\ccYCTqm0.s:2972   .text.CAN_ClearITPendingBit:000000000000010a .L0 
C:\Users\SOLDER~1\AppData\Local\Temp\ccYCTqm0.s:2977   .text.CAN_ClearITPendingBit:0000000000000116 .L0 
C:\Users\SOLDER~1\AppData\Local\Temp\ccYCTqm0.s:2980   .text.CAN_ClearITPendingBit:0000000000000118 .L0 
C:\Users\SOLDER~1\AppData\Local\Temp\ccYCTqm0.s:2984   .text.CAN_ClearITPendingBit:0000000000000120 .L0 
C:\Users\SOLDER~1\AppData\Local\Temp\ccYCTqm0.s:2987   .text.CAN_ClearITPendingBit:0000000000000122 .L0 
C:\Users\SOLDER~1\AppData\Local\Temp\ccYCTqm0.s:2991   .text.CAN_ClearITPendingBit:000000000000012a .L0 
C:\Users\SOLDER~1\AppData\Local\Temp\ccYCTqm0.s:2994   .text.CAN_ClearITPendingBit:000000000000012c .L0 
C:\Users\SOLDER~1\AppData\Local\Temp\ccYCTqm0.s:2998   .text.CAN_ClearITPendingBit:0000000000000134 .L0 
C:\Users\SOLDER~1\AppData\Local\Temp\ccYCTqm0.s:3001   .text.CAN_ClearITPendingBit:0000000000000136 .L0 
C:\Users\SOLDER~1\AppData\Local\Temp\ccYCTqm0.s:3005   .text.CAN_ClearITPendingBit:000000000000013e .L0 
C:\Users\SOLDER~1\AppData\Local\Temp\ccYCTqm0.s:3008   .text.CAN_ClearITPendingBit:0000000000000140 .L0 
C:\Users\SOLDER~1\AppData\Local\Temp\ccYCTqm0.s:3012   .text.CAN_ClearITPendingBit:0000000000000148 .L0 
C:\Users\SOLDER~1\AppData\Local\Temp\ccYCTqm0.s:3015   .text.CAN_ClearITPendingBit:000000000000014a .L0 
C:\Users\SOLDER~1\AppData\Local\Temp\ccYCTqm0.s:3019   .text.CAN_ClearITPendingBit:0000000000000152 .L0 
C:\Users\SOLDER~1\AppData\Local\Temp\ccYCTqm0.s:3022   .text.CAN_ClearITPendingBit:0000000000000154 .L0 
C:\Users\SOLDER~1\AppData\Local\Temp\ccYCTqm0.s:3026   .text.CAN_ClearITPendingBit:000000000000015c .L0 
C:\Users\SOLDER~1\AppData\Local\Temp\ccYCTqm0.s:3029   .text.CAN_ClearITPendingBit:000000000000015e .L0 
C:\Users\SOLDER~1\AppData\Local\Temp\ccYCTqm0.s:3033   .text.CAN_ClearITPendingBit:0000000000000166 .L0 
GAS LISTING C:\Users\SOLDER~1\AppData\Local\Temp\ccYCTqm0.s 			page 96


C:\Users\SOLDER~1\AppData\Local\Temp\ccYCTqm0.s:3036   .text.CAN_ClearITPendingBit:0000000000000168 .L0 
C:\Users\SOLDER~1\AppData\Local\Temp\ccYCTqm0.s:3040   .text.CAN_ClearITPendingBit:0000000000000170 .L0 
C:\Users\SOLDER~1\AppData\Local\Temp\ccYCTqm0.s:3043   .text.CAN_ClearITPendingBit:0000000000000172 .L0 
C:\Users\SOLDER~1\AppData\Local\Temp\ccYCTqm0.s:3046   .text.CAN_ClearITPendingBit:000000000000017a .L0 
C:\Users\SOLDER~1\AppData\Local\Temp\ccYCTqm0.s:3050   .text.CAN_ClearITPendingBit:0000000000000182 .L0 
C:\Users\SOLDER~1\AppData\Local\Temp\ccYCTqm0.s:3053   .text.CAN_ClearITPendingBit:0000000000000184 .L0 
C:\Users\SOLDER~1\AppData\Local\Temp\ccYCTqm0.s:3056   .text.CAN_ClearITPendingBit:000000000000018c .L0 
C:\Users\SOLDER~1\AppData\Local\Temp\ccYCTqm0.s:3060   .text.CAN_ClearITPendingBit:0000000000000194 .L0 
C:\Users\SOLDER~1\AppData\Local\Temp\ccYCTqm0.s:3063   .text.CAN_ClearITPendingBit:0000000000000196 .L0 
C:\Users\SOLDER~1\AppData\Local\Temp\ccYCTqm0.s:3066   .text.CAN_ClearITPendingBit:0000000000000198 .L0 
C:\Users\SOLDER~1\AppData\Local\Temp\ccYCTqm0.s:3068   .text.CAN_ClearITPendingBit:000000000000019c .L0 
C:\Users\SOLDER~1\AppData\Local\Temp\ccYCTqm0.s:3069   .text.CAN_ClearITPendingBit:000000000000019c .L0 
C:\Users\SOLDER~1\AppData\Local\Temp\ccYCTqm0.s:3071   .text.CAN_ClearITPendingBit:000000000000019e .L0 
C:\Users\SOLDER~1\AppData\Local\Temp\ccYCTqm0.s:3073   .text.CAN_ClearITPendingBit:00000000000001a0 .L0 
C:\Users\SOLDER~1\AppData\Local\Temp\ccYCTqm0.s:3082   .text.CheckITStatus:0000000000000000 .L0 
C:\Users\SOLDER~1\AppData\Local\Temp\ccYCTqm0.s:3083   .text.CheckITStatus:0000000000000000 $x
C:\Users\SOLDER~1\AppData\Local\Temp\ccYCTqm0.s:3083   .text.CheckITStatus:0000000000000000 .L0 
C:\Users\SOLDER~1\AppData\Local\Temp\ccYCTqm0.s:3084   .text.CheckITStatus:0000000000000002 .L0 
C:\Users\SOLDER~1\AppData\Local\Temp\ccYCTqm0.s:3086   .text.CheckITStatus:0000000000000004 .L0 
C:\Users\SOLDER~1\AppData\Local\Temp\ccYCTqm0.s:3088   .text.CheckITStatus:0000000000000006 .L0 
C:\Users\SOLDER~1\AppData\Local\Temp\ccYCTqm0.s:3092   .text.CheckITStatus:000000000000000e .L0 
C:\Users\SOLDER~1\AppData\Local\Temp\ccYCTqm0.s:3094   .text.CheckITStatus:0000000000000012 .L0 
C:\Users\SOLDER~1\AppData\Local\Temp\ccYCTqm0.s:3098   .text.CheckITStatus:000000000000001c .L0 
C:\Users\SOLDER~1\AppData\Local\Temp\ccYCTqm0.s:3100   .text.CheckITStatus:000000000000001e .L0 
C:\Users\SOLDER~1\AppData\Local\Temp\ccYCTqm0.s:3105   .text.CheckITStatus:0000000000000026 .L0 
C:\Users\SOLDER~1\AppData\Local\Temp\ccYCTqm0.s:3108   .text.CheckITStatus:000000000000002a .L0 
C:\Users\SOLDER~1\AppData\Local\Temp\ccYCTqm0.s:3110   .text.CheckITStatus:000000000000002e .L0 
C:\Users\SOLDER~1\AppData\Local\Temp\ccYCTqm0.s:3112   .text.CheckITStatus:0000000000000032 .L0 
C:\Users\SOLDER~1\AppData\Local\Temp\ccYCTqm0.s:3113   .text.CheckITStatus:0000000000000032 .L0 
C:\Users\SOLDER~1\AppData\Local\Temp\ccYCTqm0.s:3115   .text.CheckITStatus:0000000000000034 .L0 
C:\Users\SOLDER~1\AppData\Local\Temp\ccYCTqm0.s:3117   .text.CheckITStatus:0000000000000036 .L0 
C:\Users\SOLDER~1\AppData\Local\Temp\ccYCTqm0.s:34616  .debug_line_str:0000000000000065 .L0 
C:\Users\SOLDER~1\AppData\Local\Temp\ccYCTqm0.s:34616  .debug_line_str:00000000000000af .L0 
C:\Users\SOLDER~1\AppData\Local\Temp\ccYCTqm0.s:34616  .debug_line_str:00000000000000bb .L0 
C:\Users\SOLDER~1\AppData\Local\Temp\ccYCTqm0.s:34616  .debug_line_str:0000000000000108 .L0 
C:\Users\SOLDER~1\AppData\Local\Temp\ccYCTqm0.s:34616  .debug_line_str:0000000000000151 .L0 
C:\Users\SOLDER~1\AppData\Local\Temp\ccYCTqm0.s:34616  .debug_line_str:000000000000015d .L0 
C:\Users\SOLDER~1\AppData\Local\Temp\ccYCTqm0.s:34616  .debug_line_str:00000000000001b1 .L0 
C:\Users\SOLDER~1\AppData\Local\Temp\ccYCTqm0.s:34616  .debug_line_str:00000000000001f6 .L0 
C:\Users\SOLDER~1\AppData\Local\Temp\ccYCTqm0.s:34616  .debug_line_str:0000000000000205 .L0 
C:\Users\SOLDER~1\AppData\Local\Temp\ccYCTqm0.s:34616  .debug_line_str:0000000000000214 .L0 
C:\Users\SOLDER~1\AppData\Local\Temp\ccYCTqm0.s:34616  .debug_line_str:0000000000000225 .L0 
C:\Users\SOLDER~1\AppData\Local\Temp\ccYCTqm0.s:34616  .debug_line_str:000000000000022f .L0 
C:\Users\SOLDER~1\AppData\Local\Temp\ccYCTqm0.s:34616  .debug_line_str:000000000000023c .L0 
C:\Users\SOLDER~1\AppData\Local\Temp\ccYCTqm0.s:34616  .debug_line_str:0000000000000247 .L0 
C:\Users\SOLDER~1\AppData\Local\Temp\ccYCTqm0.s:34616  .debug_line_str:0000000000000256 .L0 
C:\Users\SOLDER~1\AppData\Local\Temp\ccYCTqm0.s:34616  .debug_line_str:0000000000000265 .L0 
C:\Users\SOLDER~1\AppData\Local\Temp\ccYCTqm0.s:34616  .debug_line_str:000000000000026e .L0 
C:\Users\SOLDER~1\AppData\Local\Temp\ccYCTqm0.s:34616  .debug_line_str:0000000000000277 .L0 
C:\Users\SOLDER~1\AppData\Local\Temp\ccYCTqm0.s:34616  .debug_line_str:0000000000000282 .L0 
C:\Users\SOLDER~1\AppData\Local\Temp\ccYCTqm0.s:34616  .debug_line_str:0000000000000294 .L0 
C:\Users\SOLDER~1\AppData\Local\Temp\ccYCTqm0.s:34616  .debug_line_str:000000000000029e .L0 
C:\Users\SOLDER~1\AppData\Local\Temp\ccYCTqm0.s:34616  .debug_line_str:00000000000002ae .L0 
C:\Users\SOLDER~1\AppData\Local\Temp\ccYCTqm0.s:34616  .debug_line_str:00000000000002bd .L0 
C:\Users\SOLDER~1\AppData\Local\Temp\ccYCTqm0.s:34616  .debug_line_str:00000000000002cc .L0 
C:\Users\SOLDER~1\AppData\Local\Temp\ccYCTqm0.s:34616  .debug_line_str:00000000000002db .L0 
C:\Users\SOLDER~1\AppData\Local\Temp\ccYCTqm0.s:34616  .debug_line_str:00000000000002ed .L0 
GAS LISTING C:\Users\SOLDER~1\AppData\Local\Temp\ccYCTqm0.s 			page 97


C:\Users\SOLDER~1\AppData\Local\Temp\ccYCTqm0.s:34616  .debug_line_str:00000000000002fc .L0 
C:\Users\SOLDER~1\AppData\Local\Temp\ccYCTqm0.s:34616  .debug_line_str:000000000000030c .L0 
C:\Users\SOLDER~1\AppData\Local\Temp\ccYCTqm0.s:34616  .debug_line_str:000000000000031d .L0 
C:\Users\SOLDER~1\AppData\Local\Temp\ccYCTqm0.s:34616  .debug_line_str:000000000000032d .L0 
C:\Users\SOLDER~1\AppData\Local\Temp\ccYCTqm0.s:34616  .debug_line_str:000000000000033c .L0 
C:\Users\SOLDER~1\AppData\Local\Temp\ccYCTqm0.s:34616  .debug_line_str:000000000000034c .L0 
C:\Users\SOLDER~1\AppData\Local\Temp\ccYCTqm0.s:34616  .debug_line_str:000000000000035b .L0 
C:\Users\SOLDER~1\AppData\Local\Temp\ccYCTqm0.s:34616  .debug_line_str:000000000000036a .L0 
C:\Users\SOLDER~1\AppData\Local\Temp\ccYCTqm0.s:34616  .debug_line_str:0000000000000379 .L0 
C:\Users\SOLDER~1\AppData\Local\Temp\ccYCTqm0.s:34616  .debug_line_str:0000000000000388 .L0 
C:\Users\SOLDER~1\AppData\Local\Temp\ccYCTqm0.s:34616  .debug_line_str:0000000000000399 .L0 
C:\Users\SOLDER~1\AppData\Local\Temp\ccYCTqm0.s:34616  .debug_line_str:00000000000003a9 .L0 
C:\Users\SOLDER~1\AppData\Local\Temp\ccYCTqm0.s:66     .text.CAN_DeInit:0000000000000060 .L0 
C:\Users\SOLDER~1\AppData\Local\Temp\ccYCTqm0.s:368    .text.CAN_Init:0000000000000224 .L0 
C:\Users\SOLDER~1\AppData\Local\Temp\ccYCTqm0.s:699    .text.CAN_FilterInit:00000000000002ae .L0 
C:\Users\SOLDER~1\AppData\Local\Temp\ccYCTqm0.s:761    .text.CAN_StructInit:000000000000006a .L0 
C:\Users\SOLDER~1\AppData\Local\Temp\ccYCTqm0.s:831    .text.CAN_SlaveStartBank:000000000000008c .L0 
C:\Users\SOLDER~1\AppData\Local\Temp\ccYCTqm0.s:882    .text.CAN_DBGFreeze:0000000000000040 .L0 
C:\Users\SOLDER~1\AppData\Local\Temp\ccYCTqm0.s:972    .text.CAN_TTComModeCmd:00000000000000b6 .L0 
C:\Users\SOLDER~1\AppData\Local\Temp\ccYCTqm0.s:1259   .text.CAN_Transmit:000000000000020a .L0 
C:\Users\SOLDER~1\AppData\Local\Temp\ccYCTqm0.s:1429   .text.CAN_TransmitStatus:000000000000015a .L0 
C:\Users\SOLDER~1\AppData\Local\Temp\ccYCTqm0.s:1504   .text.CAN_CancelTransmit:000000000000006c .L0 
C:\Users\SOLDER~1\AppData\Local\Temp\ccYCTqm0.s:1747   .text.CAN_Receive:00000000000001e4 .L0 
C:\Users\SOLDER~1\AppData\Local\Temp\ccYCTqm0.s:1796   .text.CAN_FIFORelease:0000000000000040 .L0 
C:\Users\SOLDER~1\AppData\Local\Temp\ccYCTqm0.s:1858   .text.CAN_MessagePending:0000000000000058 .L0 
C:\Users\SOLDER~1\AppData\Local\Temp\ccYCTqm0.s:2042   .text.CAN_OperatingModeRequest:000000000000012e .L0 
C:\Users\SOLDER~1\AppData\Local\Temp\ccYCTqm0.s:2093   .text.CAN_Sleep:0000000000000042 .L0 
C:\Users\SOLDER~1\AppData\Local\Temp\ccYCTqm0.s:2166   .text.CAN_WakeUp:000000000000006a .L0 
C:\Users\SOLDER~1\AppData\Local\Temp\ccYCTqm0.s:2204   .text.CAN_GetLastErrorCode:000000000000002c .L0 
C:\Users\SOLDER~1\AppData\Local\Temp\ccYCTqm0.s:2241   .text.CAN_GetReceiveErrorCounter:0000000000000026 .L0 
C:\Users\SOLDER~1\AppData\Local\Temp\ccYCTqm0.s:2278   .text.CAN_GetLSBTransmitErrorCounter:0000000000000026 .L0 
C:\Users\SOLDER~1\AppData\Local\Temp\ccYCTqm0.s:2331   .text.CAN_ITConfig:000000000000004a .L0 
C:\Users\SOLDER~1\AppData\Local\Temp\ccYCTqm0.s:2485   .text.CAN_GetFlagStatus:0000000000000100 .L0 
C:\Users\SOLDER~1\AppData\Local\Temp\ccYCTqm0.s:2575   .text.CAN_ClearFlag:0000000000000096 .L0 
C:\Users\SOLDER~1\AppData\Local\Temp\ccYCTqm0.s:2884   .text.CAN_GetITStatus:0000000000000278 .L0 
C:\Users\SOLDER~1\AppData\Local\Temp\ccYCTqm0.s:3076   .text.CAN_ClearITPendingBit:00000000000001a0 .L0 
C:\Users\SOLDER~1\AppData\Local\Temp\ccYCTqm0.s:3120   .text.CheckITStatus:0000000000000036 .L0 
                     .debug_frame:0000000000000000 .L0 
C:\Users\SOLDER~1\AppData\Local\Temp\ccYCTqm0.s:43     .text.CAN_DeInit:000000000000003a .L2
C:\Users\SOLDER~1\AppData\Local\Temp\ccYCTqm0.s:52     .text.CAN_DeInit:0000000000000056 .L4
C:\Users\SOLDER~1\AppData\Local\Temp\ccYCTqm0.s:107    .text.CAN_Init:0000000000000042 .L6
C:\Users\SOLDER~1\AppData\Local\Temp\ccYCTqm0.s:121    .text.CAN_Init:000000000000005e .L7
C:\Users\SOLDER~1\AppData\Local\Temp\ccYCTqm0.s:102    .text.CAN_Init:0000000000000038 .L8
C:\Users\SOLDER~1\AppData\Local\Temp\ccYCTqm0.s:133    .text.CAN_Init:0000000000000074 .L9
C:\Users\SOLDER~1\AppData\Local\Temp\ccYCTqm0.s:354    .text.CAN_Init:0000000000000218 .L10
C:\Users\SOLDER~1\AppData\Local\Temp\ccYCTqm0.s:148    .text.CAN_Init:0000000000000092 .L11
C:\Users\SOLDER~1\AppData\Local\Temp\ccYCTqm0.s:156    .text.CAN_Init:00000000000000a2 .L12
C:\Users\SOLDER~1\AppData\Local\Temp\ccYCTqm0.s:171    .text.CAN_Init:00000000000000c0 .L13
C:\Users\SOLDER~1\AppData\Local\Temp\ccYCTqm0.s:179    .text.CAN_Init:00000000000000d0 .L14
C:\Users\SOLDER~1\AppData\Local\Temp\ccYCTqm0.s:194    .text.CAN_Init:00000000000000ee .L15
C:\Users\SOLDER~1\AppData\Local\Temp\ccYCTqm0.s:202    .text.CAN_Init:00000000000000fe .L16
C:\Users\SOLDER~1\AppData\Local\Temp\ccYCTqm0.s:217    .text.CAN_Init:000000000000011c .L17
C:\Users\SOLDER~1\AppData\Local\Temp\ccYCTqm0.s:225    .text.CAN_Init:000000000000012c .L18
C:\Users\SOLDER~1\AppData\Local\Temp\ccYCTqm0.s:240    .text.CAN_Init:000000000000014a .L19
C:\Users\SOLDER~1\AppData\Local\Temp\ccYCTqm0.s:248    .text.CAN_Init:000000000000015a .L20
C:\Users\SOLDER~1\AppData\Local\Temp\ccYCTqm0.s:263    .text.CAN_Init:0000000000000178 .L21
C:\Users\SOLDER~1\AppData\Local\Temp\ccYCTqm0.s:271    .text.CAN_Init:0000000000000188 .L22
GAS LISTING C:\Users\SOLDER~1\AppData\Local\Temp\ccYCTqm0.s 			page 98


C:\Users\SOLDER~1\AppData\Local\Temp\ccYCTqm0.s:324    .text.CAN_Init:00000000000001e0 .L23
C:\Users\SOLDER~1\AppData\Local\Temp\ccYCTqm0.s:338    .text.CAN_Init:00000000000001fc .L24
C:\Users\SOLDER~1\AppData\Local\Temp\ccYCTqm0.s:319    .text.CAN_Init:00000000000001d6 .L25
C:\Users\SOLDER~1\AppData\Local\Temp\ccYCTqm0.s:350    .text.CAN_Init:0000000000000212 .L26
C:\Users\SOLDER~1\AppData\Local\Temp\ccYCTqm0.s:481    .text.CAN_FilterInit:00000000000000e4 .L29
C:\Users\SOLDER~1\AppData\Local\Temp\ccYCTqm0.s:546    .text.CAN_FilterInit:000000000000016a .L30
C:\Users\SOLDER~1\AppData\Local\Temp\ccYCTqm0.s:593    .text.CAN_FilterInit:00000000000001c4 .L31
C:\Users\SOLDER~1\AppData\Local\Temp\ccYCTqm0.s:588    .text.CAN_FilterInit:00000000000001b8 .L32
C:\Users\SOLDER~1\AppData\Local\Temp\ccYCTqm0.s:561    .text.CAN_FilterInit:0000000000000182 .L33
C:\Users\SOLDER~1\AppData\Local\Temp\ccYCTqm0.s:614    .text.CAN_FilterInit:00000000000001f0 .L34
C:\Users\SOLDER~1\AppData\Local\Temp\ccYCTqm0.s:625    .text.CAN_FilterInit:000000000000020e .L35
C:\Users\SOLDER~1\AppData\Local\Temp\ccYCTqm0.s:644    .text.CAN_FilterInit:0000000000000238 .L36
C:\Users\SOLDER~1\AppData\Local\Temp\ccYCTqm0.s:661    .text.CAN_FilterInit:0000000000000262 .L37
C:\Users\SOLDER~1\AppData\Local\Temp\ccYCTqm0.s:678    .text.CAN_FilterInit:000000000000028c .L38
C:\Users\SOLDER~1\AppData\Local\Temp\ccYCTqm0.s:860    .text.CAN_DBGFreeze:0000000000000026 .L42
C:\Users\SOLDER~1\AppData\Local\Temp\ccYCTqm0.s:870    .text.CAN_DBGFreeze:0000000000000038 .L44
C:\Users\SOLDER~1\AppData\Local\Temp\ccYCTqm0.s:931    .text.CAN_TTComModeCmd:0000000000000062 .L46
C:\Users\SOLDER~1\AppData\Local\Temp\ccYCTqm0.s:960    .text.CAN_TTComModeCmd:00000000000000ae .L48
C:\Users\SOLDER~1\AppData\Local\Temp\ccYCTqm0.s:1002   .text.CAN_Transmit:000000000000002c .L50
C:\Users\SOLDER~1\AppData\Local\Temp\ccYCTqm0.s:1034   .text.CAN_Transmit:000000000000006a .L51
C:\Users\SOLDER~1\AppData\Local\Temp\ccYCTqm0.s:1016   .text.CAN_Transmit:0000000000000048 .L52
C:\Users\SOLDER~1\AppData\Local\Temp\ccYCTqm0.s:1030   .text.CAN_Transmit:0000000000000064 .L53
C:\Users\SOLDER~1\AppData\Local\Temp\ccYCTqm0.s:1245   .text.CAN_Transmit:00000000000001fe .L54
C:\Users\SOLDER~1\AppData\Local\Temp\ccYCTqm0.s:1086   .text.CAN_Transmit:00000000000000d2 .L55
C:\Users\SOLDER~1\AppData\Local\Temp\ccYCTqm0.s:1118   .text.CAN_Transmit:000000000000010c .L56
C:\Users\SOLDER~1\AppData\Local\Temp\ccYCTqm0.s:1310   .text.CAN_TransmitStatus:0000000000000058 .L59
C:\Users\SOLDER~1\AppData\Local\Temp\ccYCTqm0.s:1320   .text.CAN_TransmitStatus:000000000000006a .L60
C:\Users\SOLDER~1\AppData\Local\Temp\ccYCTqm0.s:1288   .text.CAN_TransmitStatus:000000000000002e .L61
C:\Users\SOLDER~1\AppData\Local\Temp\ccYCTqm0.s:1299   .text.CAN_TransmitStatus:0000000000000042 .L62
C:\Users\SOLDER~1\AppData\Local\Temp\ccYCTqm0.s:1325   .text.CAN_TransmitStatus:0000000000000070 .L63
C:\Users\SOLDER~1\AppData\Local\Temp\ccYCTqm0.s:1403   .text.CAN_TransmitStatus:000000000000013c .L64
C:\Users\SOLDER~1\AppData\Local\Temp\ccYCTqm0.s:1409   .text.CAN_TransmitStatus:0000000000000144 .L65
C:\Users\SOLDER~1\AppData\Local\Temp\ccYCTqm0.s:1386   .text.CAN_TransmitStatus:0000000000000126 .L66
C:\Users\SOLDER~1\AppData\Local\Temp\ccYCTqm0.s:1397   .text.CAN_TransmitStatus:0000000000000134 .L67
C:\Users\SOLDER~1\AppData\Local\Temp\ccYCTqm0.s:1381   .text.CAN_TransmitStatus:0000000000000120 .L68
C:\Users\SOLDER~1\AppData\Local\Temp\ccYCTqm0.s:1391   .text.CAN_TransmitStatus:000000000000012c .L69
C:\Users\SOLDER~1\AppData\Local\Temp\ccYCTqm0.s:1370   .text.CAN_TransmitStatus:0000000000000112 .L70
C:\Users\SOLDER~1\AppData\Local\Temp\ccYCTqm0.s:1376   .text.CAN_TransmitStatus:000000000000011a .L71
C:\Users\SOLDER~1\AppData\Local\Temp\ccYCTqm0.s:1414   .text.CAN_TransmitStatus:000000000000014a .L72
C:\Users\SOLDER~1\AppData\Local\Temp\ccYCTqm0.s:1478   .text.CAN_CancelTransmit:000000000000004e .L75
C:\Users\SOLDER~1\AppData\Local\Temp\ccYCTqm0.s:1489   .text.CAN_CancelTransmit:0000000000000062 .L80
C:\Users\SOLDER~1\AppData\Local\Temp\ccYCTqm0.s:1457   .text.CAN_CancelTransmit:000000000000002a .L77
C:\Users\SOLDER~1\AppData\Local\Temp\ccYCTqm0.s:1467   .text.CAN_CancelTransmit:000000000000003c .L78
C:\Users\SOLDER~1\AppData\Local\Temp\ccYCTqm0.s:1492   .text.CAN_CancelTransmit:0000000000000064 .L79
C:\Users\SOLDER~1\AppData\Local\Temp\ccYCTqm0.s:1556   .text.CAN_Receive:000000000000005a .L82
C:\Users\SOLDER~1\AppData\Local\Temp\ccYCTqm0.s:1573   .text.CAN_Receive:000000000000007c .L83
C:\Users\SOLDER~1\AppData\Local\Temp\ccYCTqm0.s:1727   .text.CAN_Receive:00000000000001cc .L84
C:\Users\SOLDER~1\AppData\Local\Temp\ccYCTqm0.s:1735   .text.CAN_Receive:00000000000001dc .L86
C:\Users\SOLDER~1\AppData\Local\Temp\ccYCTqm0.s:1776   .text.CAN_FIFORelease:0000000000000028 .L88
C:\Users\SOLDER~1\AppData\Local\Temp\ccYCTqm0.s:1784   .text.CAN_FIFORelease:0000000000000038 .L90
C:\Users\SOLDER~1\AppData\Local\Temp\ccYCTqm0.s:1827   .text.CAN_MessagePending:000000000000002c .L92
C:\Users\SOLDER~1\AppData\Local\Temp\ccYCTqm0.s:1844   .text.CAN_MessagePending:000000000000004c .L93
C:\Users\SOLDER~1\AppData\Local\Temp\ccYCTqm0.s:1841   .text.CAN_MessagePending:0000000000000048 .L94
C:\Users\SOLDER~1\AppData\Local\Temp\ccYCTqm0.s:1929   .text.CAN_OperatingModeRequest:0000000000000074 .L97
C:\Users\SOLDER~1\AppData\Local\Temp\ccYCTqm0.s:1900   .text.CAN_OperatingModeRequest:0000000000000040 .L98
C:\Users\SOLDER~1\AppData\Local\Temp\ccYCTqm0.s:1912   .text.CAN_OperatingModeRequest:0000000000000056 .L99
C:\Users\SOLDER~1\AppData\Local\Temp\ccYCTqm0.s:1895   .text.CAN_OperatingModeRequest:0000000000000036 .L100
GAS LISTING C:\Users\SOLDER~1\AppData\Local\Temp\ccYCTqm0.s 			page 99


C:\Users\SOLDER~1\AppData\Local\Temp\ccYCTqm0.s:1924   .text.CAN_OperatingModeRequest:000000000000006c .L101
C:\Users\SOLDER~1\AppData\Local\Temp\ccYCTqm0.s:2028   .text.CAN_OperatingModeRequest:0000000000000122 .L102
C:\Users\SOLDER~1\AppData\Local\Temp\ccYCTqm0.s:1975   .text.CAN_OperatingModeRequest:00000000000000c2 .L103
C:\Users\SOLDER~1\AppData\Local\Temp\ccYCTqm0.s:1948   .text.CAN_OperatingModeRequest:000000000000009a .L104
C:\Users\SOLDER~1\AppData\Local\Temp\ccYCTqm0.s:1959   .text.CAN_OperatingModeRequest:00000000000000aa .L105
C:\Users\SOLDER~1\AppData\Local\Temp\ccYCTqm0.s:1943   .text.CAN_OperatingModeRequest:0000000000000090 .L106
C:\Users\SOLDER~1\AppData\Local\Temp\ccYCTqm0.s:1970   .text.CAN_OperatingModeRequest:00000000000000ba .L107
C:\Users\SOLDER~1\AppData\Local\Temp\ccYCTqm0.s:2025   .text.CAN_OperatingModeRequest:000000000000011e .L108
C:\Users\SOLDER~1\AppData\Local\Temp\ccYCTqm0.s:1996   .text.CAN_OperatingModeRequest:00000000000000ea .L109
C:\Users\SOLDER~1\AppData\Local\Temp\ccYCTqm0.s:2008   .text.CAN_OperatingModeRequest:0000000000000100 .L110
C:\Users\SOLDER~1\AppData\Local\Temp\ccYCTqm0.s:1991   .text.CAN_OperatingModeRequest:00000000000000e0 .L111
C:\Users\SOLDER~1\AppData\Local\Temp\ccYCTqm0.s:2020   .text.CAN_OperatingModeRequest:0000000000000116 .L112
C:\Users\SOLDER~1\AppData\Local\Temp\ccYCTqm0.s:2079   .text.CAN_Sleep:0000000000000036 .L115
C:\Users\SOLDER~1\AppData\Local\Temp\ccYCTqm0.s:2128   .text.CAN_WakeUp:0000000000000032 .L118
C:\Users\SOLDER~1\AppData\Local\Temp\ccYCTqm0.s:2140   .text.CAN_WakeUp:0000000000000048 .L119
C:\Users\SOLDER~1\AppData\Local\Temp\ccYCTqm0.s:2123   .text.CAN_WakeUp:0000000000000028 .L120
C:\Users\SOLDER~1\AppData\Local\Temp\ccYCTqm0.s:2152   .text.CAN_WakeUp:000000000000005e .L121
C:\Users\SOLDER~1\AppData\Local\Temp\ccYCTqm0.s:2308   .text.CAN_ITConfig:000000000000002c .L130
C:\Users\SOLDER~1\AppData\Local\Temp\ccYCTqm0.s:2319   .text.CAN_ITConfig:0000000000000042 .L132
C:\Users\SOLDER~1\AppData\Local\Temp\ccYCTqm0.s:2374   .text.CAN_GetFlagStatus:0000000000000042 .L134
C:\Users\SOLDER~1\AppData\Local\Temp\ccYCTqm0.s:2370   .text.CAN_GetFlagStatus:000000000000003c .L135
C:\Users\SOLDER~1\AppData\Local\Temp\ccYCTqm0.s:2471   .text.CAN_GetFlagStatus:00000000000000f4 .L136
C:\Users\SOLDER~1\AppData\Local\Temp\ccYCTqm0.s:2400   .text.CAN_GetFlagStatus:0000000000000072 .L137
C:\Users\SOLDER~1\AppData\Local\Temp\ccYCTqm0.s:2396   .text.CAN_GetFlagStatus:000000000000006c .L138
C:\Users\SOLDER~1\AppData\Local\Temp\ccYCTqm0.s:2426   .text.CAN_GetFlagStatus:00000000000000a2 .L139
C:\Users\SOLDER~1\AppData\Local\Temp\ccYCTqm0.s:2422   .text.CAN_GetFlagStatus:000000000000009c .L140
C:\Users\SOLDER~1\AppData\Local\Temp\ccYCTqm0.s:2452   .text.CAN_GetFlagStatus:00000000000000d2 .L141
C:\Users\SOLDER~1\AppData\Local\Temp\ccYCTqm0.s:2448   .text.CAN_GetFlagStatus:00000000000000cc .L142
C:\Users\SOLDER~1\AppData\Local\Temp\ccYCTqm0.s:2468   .text.CAN_GetFlagStatus:00000000000000f0 .L143
C:\Users\SOLDER~1\AppData\Local\Temp\ccYCTqm0.s:2513   .text.CAN_ClearFlag:000000000000002c .L146
C:\Users\SOLDER~1\AppData\Local\Temp\ccYCTqm0.s:2563   .text.CAN_ClearFlag:000000000000008e .L151
C:\Users\SOLDER~1\AppData\Local\Temp\ccYCTqm0.s:2532   .text.CAN_ClearFlag:0000000000000054 .L148
C:\Users\SOLDER~1\AppData\Local\Temp\ccYCTqm0.s:2545   .text.CAN_ClearFlag:000000000000006c .L149
C:\Users\SOLDER~1\AppData\Local\Temp\ccYCTqm0.s:2558   .text.CAN_ClearFlag:0000000000000084 .L150
C:\Users\SOLDER~1\AppData\Local\Temp\ccYCTqm0.s:2665   .rodata.CAN_GetITStatus:0000000000000000 .L164
C:\Users\SOLDER~1\AppData\Local\Temp\ccYCTqm0.s:2865   .text.CAN_GetITStatus:0000000000000266 .L153
C:\Users\SOLDER~1\AppData\Local\Temp\ccYCTqm0.s:2794   .text.CAN_GetITStatus:00000000000001ce .L154
C:\Users\SOLDER~1\AppData\Local\Temp\ccYCTqm0.s:2860   .text.CAN_GetITStatus:0000000000000260 .L155
C:\Users\SOLDER~1\AppData\Local\Temp\ccYCTqm0.s:2783   .text.CAN_GetITStatus:00000000000001b6 .L156
C:\Users\SOLDER~1\AppData\Local\Temp\ccYCTqm0.s:2849   .text.CAN_GetITStatus:0000000000000248 .L157
C:\Users\SOLDER~1\AppData\Local\Temp\ccYCTqm0.s:2838   .text.CAN_GetITStatus:000000000000022e .L158
C:\Users\SOLDER~1\AppData\Local\Temp\ccYCTqm0.s:2827   .text.CAN_GetITStatus:0000000000000216 .L159
C:\Users\SOLDER~1\AppData\Local\Temp\ccYCTqm0.s:2816   .text.CAN_GetITStatus:00000000000001fe .L160
C:\Users\SOLDER~1\AppData\Local\Temp\ccYCTqm0.s:2805   .text.CAN_GetITStatus:00000000000001e6 .L161
C:\Users\SOLDER~1\AppData\Local\Temp\ccYCTqm0.s:2700   .text.CAN_GetITStatus:00000000000000fc .L162
C:\Users\SOLDER~1\AppData\Local\Temp\ccYCTqm0.s:2772   .text.CAN_GetITStatus:000000000000019e .L170
C:\Users\SOLDER~1\AppData\Local\Temp\ccYCTqm0.s:2868   .text.CAN_GetITStatus:000000000000026a .L172
C:\Users\SOLDER~1\AppData\Local\Temp\ccYCTqm0.s:2705   .text.CAN_GetITStatus:000000000000010a .L169
C:\Users\SOLDER~1\AppData\Local\Temp\ccYCTqm0.s:2717   .text.CAN_GetITStatus:0000000000000126 .L168
C:\Users\SOLDER~1\AppData\Local\Temp\ccYCTqm0.s:2728   .text.CAN_GetITStatus:000000000000013e .L167
C:\Users\SOLDER~1\AppData\Local\Temp\ccYCTqm0.s:2739   .text.CAN_GetITStatus:0000000000000156 .L166
C:\Users\SOLDER~1\AppData\Local\Temp\ccYCTqm0.s:2750   .text.CAN_GetITStatus:000000000000016e .L165
C:\Users\SOLDER~1\AppData\Local\Temp\ccYCTqm0.s:2761   .text.CAN_GetITStatus:0000000000000186 .L163
C:\Users\SOLDER~1\AppData\Local\Temp\ccYCTqm0.s:3013   .text.CAN_ClearITPendingBit:000000000000014a .L175
C:\Users\SOLDER~1\AppData\Local\Temp\ccYCTqm0.s:3061   .text.CAN_ClearITPendingBit:0000000000000196 .L189
C:\Users\SOLDER~1\AppData\Local\Temp\ccYCTqm0.s:3006   .text.CAN_ClearITPendingBit:0000000000000140 .L177
C:\Users\SOLDER~1\AppData\Local\Temp\ccYCTqm0.s:3051   .text.CAN_ClearITPendingBit:0000000000000184 .L178
GAS LISTING C:\Users\SOLDER~1\AppData\Local\Temp\ccYCTqm0.s 			page 100


C:\Users\SOLDER~1\AppData\Local\Temp\ccYCTqm0.s:3041   .text.CAN_ClearITPendingBit:0000000000000172 .L179
C:\Users\SOLDER~1\AppData\Local\Temp\ccYCTqm0.s:3034   .text.CAN_ClearITPendingBit:0000000000000168 .L180
C:\Users\SOLDER~1\AppData\Local\Temp\ccYCTqm0.s:3027   .text.CAN_ClearITPendingBit:000000000000015e .L181
C:\Users\SOLDER~1\AppData\Local\Temp\ccYCTqm0.s:3020   .text.CAN_ClearITPendingBit:0000000000000154 .L182
C:\Users\SOLDER~1\AppData\Local\Temp\ccYCTqm0.s:2999   .text.CAN_ClearITPendingBit:0000000000000136 .L183
C:\Users\SOLDER~1\AppData\Local\Temp\ccYCTqm0.s:2992   .text.CAN_ClearITPendingBit:000000000000012c .L184
C:\Users\SOLDER~1\AppData\Local\Temp\ccYCTqm0.s:2985   .text.CAN_ClearITPendingBit:0000000000000122 .L185
C:\Users\SOLDER~1\AppData\Local\Temp\ccYCTqm0.s:2970   .text.CAN_ClearITPendingBit:000000000000010a .L186
C:\Users\SOLDER~1\AppData\Local\Temp\ccYCTqm0.s:2978   .text.CAN_ClearITPendingBit:0000000000000118 .L187
C:\Users\SOLDER~1\AppData\Local\Temp\ccYCTqm0.s:3064   .text.CAN_ClearITPendingBit:0000000000000198 .L188
C:\Users\SOLDER~1\AppData\Local\Temp\ccYCTqm0.s:3103   .text.CheckITStatus:0000000000000026 .L191
C:\Users\SOLDER~1\AppData\Local\Temp\ccYCTqm0.s:3106   .text.CheckITStatus:000000000000002a .L192
C:\Users\SOLDER~1\AppData\Local\Temp\ccYCTqm0.s:4544   .debug_abbrev:0000000000000000 .Ldebug_abbrev0
C:\Users\SOLDER~1\AppData\Local\Temp\ccYCTqm0.s:22985  .debug_str:0000000000000685 .LASF5862
C:\Users\SOLDER~1\AppData\Local\Temp\ccYCTqm0.s:34614  .debug_line_str:000000000000004a .LASF0
C:\Users\SOLDER~1\AppData\Local\Temp\ccYCTqm0.s:34612  .debug_line_str:0000000000000000 .LASF1
C:\Users\SOLDER~1\AppData\Local\Temp\ccYCTqm0.s:5246   .debug_rnglists:000000000000000c .LLRL0
C:\Users\SOLDER~1\AppData\Local\Temp\ccYCTqm0.s:22881  .debug_line:0000000000000000 .Ldebug_line0
C:\Users\SOLDER~1\AppData\Local\Temp\ccYCTqm0.s:5325   .debug_macro:0000000000000000 .Ldebug_macro0
C:\Users\SOLDER~1\AppData\Local\Temp\ccYCTqm0.s:34549  .debug_str:000000000002f154 .LASF5726
C:\Users\SOLDER~1\AppData\Local\Temp\ccYCTqm0.s:29271  .debug_str:0000000000019cd1 .LASF5727
C:\Users\SOLDER~1\AppData\Local\Temp\ccYCTqm0.s:25209  .debug_str:00000000000096c1 .LASF5730
C:\Users\SOLDER~1\AppData\Local\Temp\ccYCTqm0.s:28755  .debug_str:0000000000017bc9 .LASF5728
C:\Users\SOLDER~1\AppData\Local\Temp\ccYCTqm0.s:28043  .debug_str:0000000000014e4b .LASF5729
C:\Users\SOLDER~1\AppData\Local\Temp\ccYCTqm0.s:26593  .debug_str:000000000000f047 .LASF5731
C:\Users\SOLDER~1\AppData\Local\Temp\ccYCTqm0.s:32263  .debug_str:0000000000025cfa .LASF5732
C:\Users\SOLDER~1\AppData\Local\Temp\ccYCTqm0.s:32553  .debug_str:0000000000027076 .LASF5733
C:\Users\SOLDER~1\AppData\Local\Temp\ccYCTqm0.s:29471  .debug_str:000000000001a987 .LASF5734
C:\Users\SOLDER~1\AppData\Local\Temp\ccYCTqm0.s:22999  .debug_str:0000000000000809 .LASF5735
C:\Users\SOLDER~1\AppData\Local\Temp\ccYCTqm0.s:22905  .debug_str:0000000000000188 .LASF5736
C:\Users\SOLDER~1\AppData\Local\Temp\ccYCTqm0.s:32641  .debug_str:0000000000027622 .LASF5737
C:\Users\SOLDER~1\AppData\Local\Temp\ccYCTqm0.s:32203  .debug_str:00000000000258e4 .LASF5738
C:\Users\SOLDER~1\AppData\Local\Temp\ccYCTqm0.s:32569  .debug_str:0000000000027161 .LASF5739
C:\Users\SOLDER~1\AppData\Local\Temp\ccYCTqm0.s:23755  .debug_str:00000000000038d1 .LASF5740
C:\Users\SOLDER~1\AppData\Local\Temp\ccYCTqm0.s:25021  .debug_str:0000000000008a62 .LASF5741
C:\Users\SOLDER~1\AppData\Local\Temp\ccYCTqm0.s:26575  .debug_str:000000000000ef45 .LASF5742
C:\Users\SOLDER~1\AppData\Local\Temp\ccYCTqm0.s:28507  .debug_str:0000000000016b79 .LASF5743
C:\Users\SOLDER~1\AppData\Local\Temp\ccYCTqm0.s:32299  .debug_str:0000000000025f5f .LASF5744
C:\Users\SOLDER~1\AppData\Local\Temp\ccYCTqm0.s:25577  .debug_str:000000000000aeeb .LASF5745
C:\Users\SOLDER~1\AppData\Local\Temp\ccYCTqm0.s:28213  .debug_str:0000000000015957 .LASF5746
C:\Users\SOLDER~1\AppData\Local\Temp\ccYCTqm0.s:28953  .debug_str:00000000000188af .LASF5747
C:\Users\SOLDER~1\AppData\Local\Temp\ccYCTqm0.s:26763  .debug_str:000000000000fb44 .LASF5748
C:\Users\SOLDER~1\AppData\Local\Temp\ccYCTqm0.s:25975  .debug_str:000000000000c820 .LASF5749
C:\Users\SOLDER~1\AppData\Local\Temp\ccYCTqm0.s:25585  .debug_str:000000000000af4f .LASF5750
C:\Users\SOLDER~1\AppData\Local\Temp\ccYCTqm0.s:27003  .debug_str:0000000000010a78 .LASF5751
C:\Users\SOLDER~1\AppData\Local\Temp\ccYCTqm0.s:25313  .debug_str:0000000000009d97 .LASF5752
C:\Users\SOLDER~1\AppData\Local\Temp\ccYCTqm0.s:31061  .debug_str:0000000000020f89 .LASF5753
C:\Users\SOLDER~1\AppData\Local\Temp\ccYCTqm0.s:30311  .debug_str:000000000001deae .LASF5754
C:\Users\SOLDER~1\AppData\Local\Temp\ccYCTqm0.s:29081  .debug_str:00000000000190e0 .LASF5755
C:\Users\SOLDER~1\AppData\Local\Temp\ccYCTqm0.s:26859  .debug_str:00000000000101e0 .LASF5756
C:\Users\SOLDER~1\AppData\Local\Temp\ccYCTqm0.s:33431  .debug_str:000000000002a974 .LASF5757
C:\Users\SOLDER~1\AppData\Local\Temp\ccYCTqm0.s:29169  .debug_str:0000000000019650 .LASF5758
C:\Users\SOLDER~1\AppData\Local\Temp\ccYCTqm0.s:34605  .debug_str:000000000002f4c1 .LASF5759
C:\Users\SOLDER~1\AppData\Local\Temp\ccYCTqm0.s:33961  .debug_str:000000000002cb83 .LASF5760
C:\Users\SOLDER~1\AppData\Local\Temp\ccYCTqm0.s:24099  .debug_str:0000000000004eb4 .LASF5761
C:\Users\SOLDER~1\AppData\Local\Temp\ccYCTqm0.s:30877  .debug_str:00000000000203bb .LASF5762
C:\Users\SOLDER~1\AppData\Local\Temp\ccYCTqm0.s:33211  .debug_str:0000000000029b28 .LASF5763
GAS LISTING C:\Users\SOLDER~1\AppData\Local\Temp\ccYCTqm0.s 			page 101


C:\Users\SOLDER~1\AppData\Local\Temp\ccYCTqm0.s:31909  .debug_str:00000000000245e1 .LASF5764
C:\Users\SOLDER~1\AppData\Local\Temp\ccYCTqm0.s:31171  .debug_str:00000000000216b0 .LASF5765
C:\Users\SOLDER~1\AppData\Local\Temp\ccYCTqm0.s:25767  .debug_str:000000000000baa9 .LASF5766
C:\Users\SOLDER~1\AppData\Local\Temp\ccYCTqm0.s:27009  .debug_str:0000000000010ac2 .LASF5767
C:\Users\SOLDER~1\AppData\Local\Temp\ccYCTqm0.s:33803  .debug_str:000000000002c141 .LASF5768
C:\Users\SOLDER~1\AppData\Local\Temp\ccYCTqm0.s:28237  .debug_str:0000000000015ac4 .LASF5769
C:\Users\SOLDER~1\AppData\Local\Temp\ccYCTqm0.s:24371  .debug_str:0000000000006009 .LASF5770
C:\Users\SOLDER~1\AppData\Local\Temp\ccYCTqm0.s:33731  .debug_str:000000000002bcc2 .LASF5771
C:\Users\SOLDER~1\AppData\Local\Temp\ccYCTqm0.s:28239  .debug_str:0000000000015ace .LASF5772
C:\Users\SOLDER~1\AppData\Local\Temp\ccYCTqm0.s:31837  .debug_str:000000000002415b .LASF5773
C:\Users\SOLDER~1\AppData\Local\Temp\ccYCTqm0.s:25777  .debug_str:000000000000bb29 .LASF5774
C:\Users\SOLDER~1\AppData\Local\Temp\ccYCTqm0.s:28501  .debug_str:0000000000016b21 .LASF5775
C:\Users\SOLDER~1\AppData\Local\Temp\ccYCTqm0.s:25781  .debug_str:000000000000bb60 .LASF5776
C:\Users\SOLDER~1\AppData\Local\Temp\ccYCTqm0.s:25785  .debug_str:000000000000bb8f .LASF5777
C:\Users\SOLDER~1\AppData\Local\Temp\ccYCTqm0.s:25971  .debug_str:000000000000c7ee .LASF5778
C:\Users\SOLDER~1\AppData\Local\Temp\ccYCTqm0.s:25853  .debug_str:000000000000c00b .LASF5779
C:\Users\SOLDER~1\AppData\Local\Temp\ccYCTqm0.s:26505  .debug_str:000000000000eae1 .LASF5780
C:\Users\SOLDER~1\AppData\Local\Temp\ccYCTqm0.s:30993  .debug_str:0000000000020b36 .LASF5781
C:\Users\SOLDER~1\AppData\Local\Temp\ccYCTqm0.s:29693  .debug_str:000000000001b7ae .LASF5782
C:\Users\SOLDER~1\AppData\Local\Temp\ccYCTqm0.s:30135  .debug_str:000000000001d3f7 .LASF5783
C:\Users\SOLDER~1\AppData\Local\Temp\ccYCTqm0.s:30137  .debug_str:000000000001d3ff .LASF5784
C:\Users\SOLDER~1\AppData\Local\Temp\ccYCTqm0.s:30559  .debug_str:000000000001eef3 .LASF5785
C:\Users\SOLDER~1\AppData\Local\Temp\ccYCTqm0.s:25609  .debug_str:000000000000b0d6 .LASF5786
C:\Users\SOLDER~1\AppData\Local\Temp\ccYCTqm0.s:27453  .debug_str:00000000000126dc .LASF5787
C:\Users\SOLDER~1\AppData\Local\Temp\ccYCTqm0.s:23499  .debug_str:0000000000002880 .LASF5788
C:\Users\SOLDER~1\AppData\Local\Temp\ccYCTqm0.s:30127  .debug_str:000000000001d39d .LASF5789
C:\Users\SOLDER~1\AppData\Local\Temp\ccYCTqm0.s:33075  .debug_str:0000000000029266 .LASF5790
C:\Users\SOLDER~1\AppData\Local\Temp\ccYCTqm0.s:23739  .debug_str:00000000000037e3 .LASF5791
C:\Users\SOLDER~1\AppData\Local\Temp\ccYCTqm0.s:29951  .debug_str:000000000001c7fa .LASF5792
C:\Users\SOLDER~1\AppData\Local\Temp\ccYCTqm0.s:33895  .debug_str:000000000002c779 .LASF5793
C:\Users\SOLDER~1\AppData\Local\Temp\ccYCTqm0.s:34269  .debug_str:000000000002df42 .LASF5794
C:\Users\SOLDER~1\AppData\Local\Temp\ccYCTqm0.s:31669  .debug_str:000000000002366b .LASF5795
C:\Users\SOLDER~1\AppData\Local\Temp\ccYCTqm0.s:23485  .debug_str:0000000000002790 .LASF5796
C:\Users\SOLDER~1\AppData\Local\Temp\ccYCTqm0.s:29005  .debug_str:0000000000018bcf .LASF5797
C:\Users\SOLDER~1\AppData\Local\Temp\ccYCTqm0.s:25623  .debug_str:000000000000b1b8 .LASF5798
C:\Users\SOLDER~1\AppData\Local\Temp\ccYCTqm0.s:30763  .debug_str:000000000001fca0 .LASF5799
C:\Users\SOLDER~1\AppData\Local\Temp\ccYCTqm0.s:23459  .debug_str:0000000000002612 .LASF5800
C:\Users\SOLDER~1\AppData\Local\Temp\ccYCTqm0.s:29135  .debug_str:000000000001945a .LASF5801
C:\Users\SOLDER~1\AppData\Local\Temp\ccYCTqm0.s:23943  .debug_str:00000000000044c9 .LASF5802
C:\Users\SOLDER~1\AppData\Local\Temp\ccYCTqm0.s:29697  .debug_str:000000000001b7ce .LASF5803
C:\Users\SOLDER~1\AppData\Local\Temp\ccYCTqm0.s:33637  .debug_str:000000000002b6df .LASF5804
C:\Users\SOLDER~1\AppData\Local\Temp\ccYCTqm0.s:27667  .debug_str:000000000001347f .LASF5805
C:\Users\SOLDER~1\AppData\Local\Temp\ccYCTqm0.s:26929  .debug_str:0000000000010624 .LASF5806
C:\Users\SOLDER~1\AppData\Local\Temp\ccYCTqm0.s:22927  .debug_str:00000000000002dd .LASF5863
C:\Users\SOLDER~1\AppData\Local\Temp\ccYCTqm0.s:32421  .debug_str:00000000000267bc .LASF5864
C:\Users\SOLDER~1\AppData\Local\Temp\ccYCTqm0.s:3080   .text.CheckITStatus:0000000000000000 .LFB40
C:\Users\SOLDER~1\AppData\Local\Temp\ccYCTqm0.s:3118   .text.CheckITStatus:0000000000000036 .LFE40
C:\Users\SOLDER~1\AppData\Local\Temp\ccYCTqm0.s:29961  .debug_str:000000000001c88c .LASF5807
C:\Users\SOLDER~1\AppData\Local\Temp\ccYCTqm0.s:25439  .debug_str:000000000000a5dc .LASF5808
C:\Users\SOLDER~1\AppData\Local\Temp\ccYCTqm0.s:27541  .debug_str:0000000000012c49 .LASF5811
C:\Users\SOLDER~1\AppData\Local\Temp\ccYCTqm0.s:30937  .debug_str:0000000000020773 .LASF5813
C:\Users\SOLDER~1\AppData\Local\Temp\ccYCTqm0.s:2889   .text.CAN_ClearITPendingBit:0000000000000000 .LFB39
C:\Users\SOLDER~1\AppData\Local\Temp\ccYCTqm0.s:3074   .text.CAN_ClearITPendingBit:00000000000001a0 .LFE39
C:\Users\SOLDER~1\AppData\Local\Temp\ccYCTqm0.s:27087  .debug_str:0000000000010fc9 .LASF5809
C:\Users\SOLDER~1\AppData\Local\Temp\ccYCTqm0.s:33477  .debug_str:000000000002ac49 .LASF5810
C:\Users\SOLDER~1\AppData\Local\Temp\ccYCTqm0.s:27869  .debug_str:0000000000014277 .LASF5817
C:\Users\SOLDER~1\AppData\Local\Temp\ccYCTqm0.s:2580   .text.CAN_GetITStatus:0000000000000000 .LFB38
GAS LISTING C:\Users\SOLDER~1\AppData\Local\Temp\ccYCTqm0.s 			page 102


C:\Users\SOLDER~1\AppData\Local\Temp\ccYCTqm0.s:2882   .text.CAN_GetITStatus:0000000000000278 .LFE38
C:\Users\SOLDER~1\AppData\Local\Temp\ccYCTqm0.s:32407  .debug_str:00000000000266d7 .LASF5812
C:\Users\SOLDER~1\AppData\Local\Temp\ccYCTqm0.s:30165  .debug_str:000000000001d5e0 .LASF5814
C:\Users\SOLDER~1\AppData\Local\Temp\ccYCTqm0.s:2490   .text.CAN_ClearFlag:0000000000000000 .LFB37
C:\Users\SOLDER~1\AppData\Local\Temp\ccYCTqm0.s:2573   .text.CAN_ClearFlag:0000000000000096 .LFE37
C:\Users\SOLDER~1\AppData\Local\Temp\ccYCTqm0.s:25135  .debug_str:00000000000091cf .LASF5815
C:\Users\SOLDER~1\AppData\Local\Temp\ccYCTqm0.s:26971  .debug_str:00000000000108c2 .LASF5816
C:\Users\SOLDER~1\AppData\Local\Temp\ccYCTqm0.s:28967  .debug_str:0000000000018989 .LASF5818
C:\Users\SOLDER~1\AppData\Local\Temp\ccYCTqm0.s:2336   .text.CAN_GetFlagStatus:0000000000000000 .LFB36
C:\Users\SOLDER~1\AppData\Local\Temp\ccYCTqm0.s:2483   .text.CAN_GetFlagStatus:0000000000000100 .LFE36
C:\Users\SOLDER~1\AppData\Local\Temp\ccYCTqm0.s:27521  .debug_str:0000000000012b0d .LASF5819
C:\Users\SOLDER~1\AppData\Local\Temp\ccYCTqm0.s:24587  .debug_str:0000000000006e60 .LASF5820
C:\Users\SOLDER~1\AppData\Local\Temp\ccYCTqm0.s:2283   .text.CAN_ITConfig:0000000000000000 .LFB35
C:\Users\SOLDER~1\AppData\Local\Temp\ccYCTqm0.s:2329   .text.CAN_ITConfig:000000000000004a .LFE35
C:\Users\SOLDER~1\AppData\Local\Temp\ccYCTqm0.s:23841  .debug_str:0000000000003e64 .LASF5821
C:\Users\SOLDER~1\AppData\Local\Temp\ccYCTqm0.s:27837  .debug_str:000000000001405a .LASF5822
C:\Users\SOLDER~1\AppData\Local\Temp\ccYCTqm0.s:2246   .text.CAN_GetLSBTransmitErrorCounter:0000000000000000 .LFB34
C:\Users\SOLDER~1\AppData\Local\Temp\ccYCTqm0.s:2276   .text.CAN_GetLSBTransmitErrorCounter:0000000000000026 .LFE34
C:\Users\SOLDER~1\AppData\Local\Temp\ccYCTqm0.s:29711  .debug_str:000000000001b89d .LASF5823
C:\Users\SOLDER~1\AppData\Local\Temp\ccYCTqm0.s:33089  .debug_str:0000000000029313 .LASF5824
C:\Users\SOLDER~1\AppData\Local\Temp\ccYCTqm0.s:2209   .text.CAN_GetReceiveErrorCounter:0000000000000000 .LFB33
C:\Users\SOLDER~1\AppData\Local\Temp\ccYCTqm0.s:2239   .text.CAN_GetReceiveErrorCounter:0000000000000026 .LFE33
C:\Users\SOLDER~1\AppData\Local\Temp\ccYCTqm0.s:33893  .debug_str:000000000002c764 .LASF5825
C:\Users\SOLDER~1\AppData\Local\Temp\ccYCTqm0.s:2171   .text.CAN_GetLastErrorCode:0000000000000000 .LFB32
C:\Users\SOLDER~1\AppData\Local\Temp\ccYCTqm0.s:2202   .text.CAN_GetLastErrorCode:000000000000002c .LFE32
C:\Users\SOLDER~1\AppData\Local\Temp\ccYCTqm0.s:29575  .debug_str:000000000001b04d .LASF5826
C:\Users\SOLDER~1\AppData\Local\Temp\ccYCTqm0.s:27861  .debug_str:0000000000014200 .LASF5827
C:\Users\SOLDER~1\AppData\Local\Temp\ccYCTqm0.s:2098   .text.CAN_WakeUp:0000000000000000 .LFB31
C:\Users\SOLDER~1\AppData\Local\Temp\ccYCTqm0.s:2164   .text.CAN_WakeUp:000000000000006a .LFE31
C:\Users\SOLDER~1\AppData\Local\Temp\ccYCTqm0.s:28377  .debug_str:00000000000163a9 .LASF5828
C:\Users\SOLDER~1\AppData\Local\Temp\ccYCTqm0.s:29867  .debug_str:000000000001c28d .LASF5829
C:\Users\SOLDER~1\AppData\Local\Temp\ccYCTqm0.s:29541  .debug_str:000000000001ae21 .LASF5830
C:\Users\SOLDER~1\AppData\Local\Temp\ccYCTqm0.s:2047   .text.CAN_Sleep:0000000000000000 .LFB30
C:\Users\SOLDER~1\AppData\Local\Temp\ccYCTqm0.s:2091   .text.CAN_Sleep:0000000000000042 .LFE30
C:\Users\SOLDER~1\AppData\Local\Temp\ccYCTqm0.s:26917  .debug_str:000000000001056c .LASF5831
C:\Users\SOLDER~1\AppData\Local\Temp\ccYCTqm0.s:28807  .debug_str:0000000000017ef7 .LASF5832
C:\Users\SOLDER~1\AppData\Local\Temp\ccYCTqm0.s:1863   .text.CAN_OperatingModeRequest:0000000000000000 .LFB29
C:\Users\SOLDER~1\AppData\Local\Temp\ccYCTqm0.s:2040   .text.CAN_OperatingModeRequest:000000000000012e .LFE29
C:\Users\SOLDER~1\AppData\Local\Temp\ccYCTqm0.s:24821  .debug_str:0000000000007d28 .LASF5833
C:\Users\SOLDER~1\AppData\Local\Temp\ccYCTqm0.s:26031  .debug_str:000000000000cbd2 .LASF5834
C:\Users\SOLDER~1\AppData\Local\Temp\ccYCTqm0.s:33989  .debug_str:000000000002cd2b .LASF5835
C:\Users\SOLDER~1\AppData\Local\Temp\ccYCTqm0.s:22981  .debug_str:0000000000000656 .LASF5836
C:\Users\SOLDER~1\AppData\Local\Temp\ccYCTqm0.s:1801   .text.CAN_MessagePending:0000000000000000 .LFB28
C:\Users\SOLDER~1\AppData\Local\Temp\ccYCTqm0.s:1856   .text.CAN_MessagePending:0000000000000058 .LFE28
C:\Users\SOLDER~1\AppData\Local\Temp\ccYCTqm0.s:24575  .debug_str:0000000000006dba .LASF5837
C:\Users\SOLDER~1\AppData\Local\Temp\ccYCTqm0.s:32093  .debug_str:0000000000025205 .LASF5838
C:\Users\SOLDER~1\AppData\Local\Temp\ccYCTqm0.s:26275  .debug_str:000000000000dbfd .LASF5839
C:\Users\SOLDER~1\AppData\Local\Temp\ccYCTqm0.s:1752   .text.CAN_FIFORelease:0000000000000000 .LFB27
C:\Users\SOLDER~1\AppData\Local\Temp\ccYCTqm0.s:1794   .text.CAN_FIFORelease:0000000000000040 .LFE27
C:\Users\SOLDER~1\AppData\Local\Temp\ccYCTqm0.s:29921  .debug_str:000000000001c624 .LASF5840
C:\Users\SOLDER~1\AppData\Local\Temp\ccYCTqm0.s:1509   .text.CAN_Receive:0000000000000000 .LFB26
C:\Users\SOLDER~1\AppData\Local\Temp\ccYCTqm0.s:1745   .text.CAN_Receive:00000000000001e4 .LFE26
C:\Users\SOLDER~1\AppData\Local\Temp\ccYCTqm0.s:29103  .debug_str:0000000000019253 .LASF5841
C:\Users\SOLDER~1\AppData\Local\Temp\ccYCTqm0.s:27337  .debug_str:0000000000011fb6 .LASF5842
C:\Users\SOLDER~1\AppData\Local\Temp\ccYCTqm0.s:1434   .text.CAN_CancelTransmit:0000000000000000 .LFB25
C:\Users\SOLDER~1\AppData\Local\Temp\ccYCTqm0.s:1502   .text.CAN_CancelTransmit:000000000000006c .LFE25
C:\Users\SOLDER~1\AppData\Local\Temp\ccYCTqm0.s:23197  .debug_str:0000000000001504 .LASF5843
GAS LISTING C:\Users\SOLDER~1\AppData\Local\Temp\ccYCTqm0.s 			page 103


C:\Users\SOLDER~1\AppData\Local\Temp\ccYCTqm0.s:29159  .debug_str:00000000000195bb .LASF5844
C:\Users\SOLDER~1\AppData\Local\Temp\ccYCTqm0.s:1264   .text.CAN_TransmitStatus:0000000000000000 .LFB24
C:\Users\SOLDER~1\AppData\Local\Temp\ccYCTqm0.s:1427   .text.CAN_TransmitStatus:000000000000015a .LFE24
C:\Users\SOLDER~1\AppData\Local\Temp\ccYCTqm0.s:29765  .debug_str:000000000001bbec .LASF5845
C:\Users\SOLDER~1\AppData\Local\Temp\ccYCTqm0.s:31271  .debug_str:0000000000021cf6 .LASF5846
C:\Users\SOLDER~1\AppData\Local\Temp\ccYCTqm0.s:25729  .debug_str:000000000000b892 .LASF5847
C:\Users\SOLDER~1\AppData\Local\Temp\ccYCTqm0.s:977    .text.CAN_Transmit:0000000000000000 .LFB23
C:\Users\SOLDER~1\AppData\Local\Temp\ccYCTqm0.s:1257   .text.CAN_Transmit:000000000000020a .LFE23
C:\Users\SOLDER~1\AppData\Local\Temp\ccYCTqm0.s:28463  .debug_str:000000000001690f .LASF5848
C:\Users\SOLDER~1\AppData\Local\Temp\ccYCTqm0.s:25187  .debug_str:000000000000956e .LASF5849
C:\Users\SOLDER~1\AppData\Local\Temp\ccYCTqm0.s:24913  .debug_str:0000000000008368 .LASF5850
C:\Users\SOLDER~1\AppData\Local\Temp\ccYCTqm0.s:887    .text.CAN_TTComModeCmd:0000000000000000 .LFB22
C:\Users\SOLDER~1\AppData\Local\Temp\ccYCTqm0.s:970    .text.CAN_TTComModeCmd:00000000000000b6 .LFE22
C:\Users\SOLDER~1\AppData\Local\Temp\ccYCTqm0.s:26051  .debug_str:000000000000cd23 .LASF5851
C:\Users\SOLDER~1\AppData\Local\Temp\ccYCTqm0.s:836    .text.CAN_DBGFreeze:0000000000000000 .LFB21
C:\Users\SOLDER~1\AppData\Local\Temp\ccYCTqm0.s:880    .text.CAN_DBGFreeze:0000000000000040 .LFE21
C:\Users\SOLDER~1\AppData\Local\Temp\ccYCTqm0.s:23079  .debug_str:0000000000000dbb .LASF5852
C:\Users\SOLDER~1\AppData\Local\Temp\ccYCTqm0.s:766    .text.CAN_SlaveStartBank:0000000000000000 .LFB20
C:\Users\SOLDER~1\AppData\Local\Temp\ccYCTqm0.s:829    .text.CAN_SlaveStartBank:000000000000008c .LFE20
C:\Users\SOLDER~1\AppData\Local\Temp\ccYCTqm0.s:26477  .debug_str:000000000000e948 .LASF5853
C:\Users\SOLDER~1\AppData\Local\Temp\ccYCTqm0.s:26735  .debug_str:000000000000f97b .LASF5854
C:\Users\SOLDER~1\AppData\Local\Temp\ccYCTqm0.s:704    .text.CAN_StructInit:0000000000000000 .LFB19
C:\Users\SOLDER~1\AppData\Local\Temp\ccYCTqm0.s:759    .text.CAN_StructInit:000000000000006a .LFE19
C:\Users\SOLDER~1\AppData\Local\Temp\ccYCTqm0.s:33077  .debug_str:000000000002926f .LASF5855
C:\Users\SOLDER~1\AppData\Local\Temp\ccYCTqm0.s:32859  .debug_str:0000000000028490 .LASF5856
C:\Users\SOLDER~1\AppData\Local\Temp\ccYCTqm0.s:373    .text.CAN_FilterInit:0000000000000000 .LFB18
C:\Users\SOLDER~1\AppData\Local\Temp\ccYCTqm0.s:697    .text.CAN_FilterInit:00000000000002ae .LFE18
C:\Users\SOLDER~1\AppData\Local\Temp\ccYCTqm0.s:33555  .debug_str:000000000002b143 .LASF5857
C:\Users\SOLDER~1\AppData\Local\Temp\ccYCTqm0.s:33185  .debug_str:0000000000029981 .LASF5858
C:\Users\SOLDER~1\AppData\Local\Temp\ccYCTqm0.s:556    .text.CAN_FilterInit:000000000000017c .LBB2
C:\Users\SOLDER~1\AppData\Local\Temp\ccYCTqm0.s:594    .text.CAN_FilterInit:00000000000001c4 .LBE2
C:\Users\SOLDER~1\AppData\Local\Temp\ccYCTqm0.s:26573  .debug_str:000000000000ef3c .LASF5859
C:\Users\SOLDER~1\AppData\Local\Temp\ccYCTqm0.s:71     .text.CAN_Init:0000000000000000 .LFB17
C:\Users\SOLDER~1\AppData\Local\Temp\ccYCTqm0.s:366    .text.CAN_Init:0000000000000224 .LFE17
C:\Users\SOLDER~1\AppData\Local\Temp\ccYCTqm0.s:23741  .debug_str:00000000000037f3 .LASF5860
C:\Users\SOLDER~1\AppData\Local\Temp\ccYCTqm0.s:24787  .debug_str:0000000000007b04 .LASF5861
C:\Users\SOLDER~1\AppData\Local\Temp\ccYCTqm0.s:31839  .debug_str:0000000000024162 .LASF5865
C:\Users\SOLDER~1\AppData\Local\Temp\ccYCTqm0.s:15     .text.CAN_DeInit:0000000000000000 .LFB16
C:\Users\SOLDER~1\AppData\Local\Temp\ccYCTqm0.s:64     .text.CAN_DeInit:0000000000000060 .LFE16
C:\Users\SOLDER~1\AppData\Local\Temp\ccYCTqm0.s:3129   .debug_info:0000000000000000 .Ldebug_info0
C:\Users\SOLDER~1\AppData\Local\Temp\ccYCTqm0.s:5608   .debug_macro:0000000000000000 .Ldebug_macro2
C:\Users\SOLDER~1\AppData\Local\Temp\ccYCTqm0.s:25721  .debug_str:000000000000b80a .LASF318
C:\Users\SOLDER~1\AppData\Local\Temp\ccYCTqm0.s:6561   .debug_macro:0000000000000000 .Ldebug_macro3
C:\Users\SOLDER~1\AppData\Local\Temp\ccYCTqm0.s:29367  .debug_str:000000000001a2e5 .LASF336
C:\Users\SOLDER~1\AppData\Local\Temp\ccYCTqm0.s:23957  .debug_str:000000000000458e .LASF337
C:\Users\SOLDER~1\AppData\Local\Temp\ccYCTqm0.s:31359  .debug_str:000000000002228b .LASF338
C:\Users\SOLDER~1\AppData\Local\Temp\ccYCTqm0.s:6617   .debug_macro:0000000000000000 .Ldebug_macro4
C:\Users\SOLDER~1\AppData\Local\Temp\ccYCTqm0.s:6637   .debug_macro:0000000000000000 .Ldebug_macro5
C:\Users\SOLDER~1\AppData\Local\Temp\ccYCTqm0.s:6702   .debug_macro:0000000000000000 .Ldebug_macro6
C:\Users\SOLDER~1\AppData\Local\Temp\ccYCTqm0.s:6743   .debug_macro:0000000000000000 .Ldebug_macro7
C:\Users\SOLDER~1\AppData\Local\Temp\ccYCTqm0.s:6868   .debug_macro:0000000000000000 .Ldebug_macro8
C:\Users\SOLDER~1\AppData\Local\Temp\ccYCTqm0.s:6924   .debug_macro:0000000000000000 .Ldebug_macro9
C:\Users\SOLDER~1\AppData\Local\Temp\ccYCTqm0.s:23271  .debug_str:000000000000196c .LASF493
C:\Users\SOLDER~1\AppData\Local\Temp\ccYCTqm0.s:7136   .debug_macro:0000000000000000 .Ldebug_macro10
C:\Users\SOLDER~1\AppData\Local\Temp\ccYCTqm0.s:7174   .debug_macro:0000000000000000 .Ldebug_macro11
C:\Users\SOLDER~1\AppData\Local\Temp\ccYCTqm0.s:23543  .debug_str:0000000000002b67 .LASF4592
C:\Users\SOLDER~1\AppData\Local\Temp\ccYCTqm0.s:32165  .debug_str:0000000000025686 .LASF4593
GAS LISTING C:\Users\SOLDER~1\AppData\Local\Temp\ccYCTqm0.s 			page 104


C:\Users\SOLDER~1\AppData\Local\Temp\ccYCTqm0.s:19440  .debug_macro:0000000000000000 .Ldebug_macro12
C:\Users\SOLDER~1\AppData\Local\Temp\ccYCTqm0.s:19721  .debug_macro:0000000000000000 .Ldebug_macro13
C:\Users\SOLDER~1\AppData\Local\Temp\ccYCTqm0.s:28499  .debug_str:0000000000016b0f .LASF4735
C:\Users\SOLDER~1\AppData\Local\Temp\ccYCTqm0.s:19873  .debug_macro:0000000000000000 .Ldebug_macro14
C:\Users\SOLDER~1\AppData\Local\Temp\ccYCTqm0.s:19938  .debug_macro:0000000000000000 .Ldebug_macro15
C:\Users\SOLDER~1\AppData\Local\Temp\ccYCTqm0.s:20207  .debug_macro:0000000000000000 .Ldebug_macro16
C:\Users\SOLDER~1\AppData\Local\Temp\ccYCTqm0.s:20278  .debug_macro:0000000000000000 .Ldebug_macro17
C:\Users\SOLDER~1\AppData\Local\Temp\ccYCTqm0.s:20442  .debug_macro:0000000000000000 .Ldebug_macro18
C:\Users\SOLDER~1\AppData\Local\Temp\ccYCTqm0.s:20714  .debug_macro:0000000000000000 .Ldebug_macro19
C:\Users\SOLDER~1\AppData\Local\Temp\ccYCTqm0.s:20965  .debug_macro:0000000000000000 .Ldebug_macro20
C:\Users\SOLDER~1\AppData\Local\Temp\ccYCTqm0.s:21006  .debug_macro:0000000000000000 .Ldebug_macro21
C:\Users\SOLDER~1\AppData\Local\Temp\ccYCTqm0.s:21059  .debug_macro:0000000000000000 .Ldebug_macro22
C:\Users\SOLDER~1\AppData\Local\Temp\ccYCTqm0.s:21460  .debug_macro:0000000000000000 .Ldebug_macro23
C:\Users\SOLDER~1\AppData\Local\Temp\ccYCTqm0.s:21492  .debug_macro:0000000000000000 .Ldebug_macro24
C:\Users\SOLDER~1\AppData\Local\Temp\ccYCTqm0.s:21722  .debug_macro:0000000000000000 .Ldebug_macro25
C:\Users\SOLDER~1\AppData\Local\Temp\ccYCTqm0.s:22318  .debug_macro:0000000000000000 .Ldebug_macro26
C:\Users\SOLDER~1\AppData\Local\Temp\ccYCTqm0.s:22488  .debug_macro:0000000000000000 .Ldebug_macro27
C:\Users\SOLDER~1\AppData\Local\Temp\ccYCTqm0.s:22508  .debug_macro:0000000000000000 .Ldebug_macro28
C:\Users\SOLDER~1\AppData\Local\Temp\ccYCTqm0.s:22531  .debug_macro:0000000000000000 .Ldebug_macro29
C:\Users\SOLDER~1\AppData\Local\Temp\ccYCTqm0.s:25247  .debug_str:000000000000994e .LASF5712
C:\Users\SOLDER~1\AppData\Local\Temp\ccYCTqm0.s:29223  .debug_str:00000000000199e8 .LASF5713
C:\Users\SOLDER~1\AppData\Local\Temp\ccYCTqm0.s:30125  .debug_str:000000000001d37a .LASF5714
C:\Users\SOLDER~1\AppData\Local\Temp\ccYCTqm0.s:23661  .debug_str:00000000000032e7 .LASF5715
C:\Users\SOLDER~1\AppData\Local\Temp\ccYCTqm0.s:26567  .debug_str:000000000000eeee .LASF5716
C:\Users\SOLDER~1\AppData\Local\Temp\ccYCTqm0.s:22987  .debug_str:000000000000073d .LASF5717
C:\Users\SOLDER~1\AppData\Local\Temp\ccYCTqm0.s:29247  .debug_str:0000000000019b7e .LASF5718
C:\Users\SOLDER~1\AppData\Local\Temp\ccYCTqm0.s:26403  .debug_str:000000000000e415 .LASF5719
C:\Users\SOLDER~1\AppData\Local\Temp\ccYCTqm0.s:26097  .debug_str:000000000000d028 .LASF5720
C:\Users\SOLDER~1\AppData\Local\Temp\ccYCTqm0.s:33665  .debug_str:000000000002b866 .LASF5721
C:\Users\SOLDER~1\AppData\Local\Temp\ccYCTqm0.s:24717  .debug_str:0000000000007705 .LASF5722
C:\Users\SOLDER~1\AppData\Local\Temp\ccYCTqm0.s:26845  .debug_str:00000000000100ef .LASF5723
C:\Users\SOLDER~1\AppData\Local\Temp\ccYCTqm0.s:28513  .debug_str:0000000000016bd1 .LASF5724
C:\Users\SOLDER~1\AppData\Local\Temp\ccYCTqm0.s:28911  .debug_str:000000000001860b .LASF5725
C:\Users\SOLDER~1\AppData\Local\Temp\ccYCTqm0.s:24343  .debug_str:0000000000005e3d .LASF2
C:\Users\SOLDER~1\AppData\Local\Temp\ccYCTqm0.s:33335  .debug_str:000000000002a2ff .LASF3
C:\Users\SOLDER~1\AppData\Local\Temp\ccYCTqm0.s:33711  .debug_str:000000000002bb89 .LASF4
C:\Users\SOLDER~1\AppData\Local\Temp\ccYCTqm0.s:27119  .debug_str:00000000000111ba .LASF5
C:\Users\SOLDER~1\AppData\Local\Temp\ccYCTqm0.s:28477  .debug_str:00000000000169c5 .LASF6
C:\Users\SOLDER~1\AppData\Local\Temp\ccYCTqm0.s:34139  .debug_str:000000000002d726 .LASF7
C:\Users\SOLDER~1\AppData\Local\Temp\ccYCTqm0.s:27175  .debug_str:0000000000011539 .LASF8
C:\Users\SOLDER~1\AppData\Local\Temp\ccYCTqm0.s:27921  .debug_str:00000000000145fa .LASF9
C:\Users\SOLDER~1\AppData\Local\Temp\ccYCTqm0.s:25093  .debug_str:0000000000008efa .LASF10
C:\Users\SOLDER~1\AppData\Local\Temp\ccYCTqm0.s:33039  .debug_str:000000000002901e .LASF11
C:\Users\SOLDER~1\AppData\Local\Temp\ccYCTqm0.s:29561  .debug_str:000000000001af53 .LASF12
C:\Users\SOLDER~1\AppData\Local\Temp\ccYCTqm0.s:29415  .debug_str:000000000001a5ef .LASF13
C:\Users\SOLDER~1\AppData\Local\Temp\ccYCTqm0.s:31965  .debug_str:0000000000024996 .LASF14
C:\Users\SOLDER~1\AppData\Local\Temp\ccYCTqm0.s:29435  .debug_str:000000000001a72b .LASF15
C:\Users\SOLDER~1\AppData\Local\Temp\ccYCTqm0.s:25581  .debug_str:000000000000af1b .LASF16
C:\Users\SOLDER~1\AppData\Local\Temp\ccYCTqm0.s:30861  .debug_str:00000000000202b8 .LASF17
C:\Users\SOLDER~1\AppData\Local\Temp\ccYCTqm0.s:31575  .debug_str:0000000000023069 .LASF18
C:\Users\SOLDER~1\AppData\Local\Temp\ccYCTqm0.s:25627  .debug_str:000000000000b1ea .LASF19
C:\Users\SOLDER~1\AppData\Local\Temp\ccYCTqm0.s:24501  .debug_str:00000000000068a7 .LASF20
C:\Users\SOLDER~1\AppData\Local\Temp\ccYCTqm0.s:26655  .debug_str:000000000000f447 .LASF21
C:\Users\SOLDER~1\AppData\Local\Temp\ccYCTqm0.s:32451  .debug_str:00000000000269a1 .LASF22
C:\Users\SOLDER~1\AppData\Local\Temp\ccYCTqm0.s:29241  .debug_str:0000000000019b3a .LASF23
C:\Users\SOLDER~1\AppData\Local\Temp\ccYCTqm0.s:29239  .debug_str:0000000000019b20 .LASF24
C:\Users\SOLDER~1\AppData\Local\Temp\ccYCTqm0.s:31891  .debug_str:00000000000244ad .LASF25
GAS LISTING C:\Users\SOLDER~1\AppData\Local\Temp\ccYCTqm0.s 			page 105


C:\Users\SOLDER~1\AppData\Local\Temp\ccYCTqm0.s:32567  .debug_str:0000000000027152 .LASF26
C:\Users\SOLDER~1\AppData\Local\Temp\ccYCTqm0.s:23849  .debug_str:0000000000003ed5 .LASF27
C:\Users\SOLDER~1\AppData\Local\Temp\ccYCTqm0.s:28629  .debug_str:000000000001731a .LASF28
C:\Users\SOLDER~1\AppData\Local\Temp\ccYCTqm0.s:31785  .debug_str:0000000000023de7 .LASF29
C:\Users\SOLDER~1\AppData\Local\Temp\ccYCTqm0.s:31585  .debug_str:0000000000023111 .LASF30
C:\Users\SOLDER~1\AppData\Local\Temp\ccYCTqm0.s:24283  .debug_str:0000000000005a03 .LASF31
C:\Users\SOLDER~1\AppData\Local\Temp\ccYCTqm0.s:30631  .debug_str:000000000001f375 .LASF32
C:\Users\SOLDER~1\AppData\Local\Temp\ccYCTqm0.s:23223  .debug_str:0000000000001697 .LASF33
C:\Users\SOLDER~1\AppData\Local\Temp\ccYCTqm0.s:27345  .debug_str:000000000001203e .LASF34
C:\Users\SOLDER~1\AppData\Local\Temp\ccYCTqm0.s:28289  .debug_str:0000000000015e0f .LASF35
C:\Users\SOLDER~1\AppData\Local\Temp\ccYCTqm0.s:26399  .debug_str:000000000000e3d8 .LASF36
C:\Users\SOLDER~1\AppData\Local\Temp\ccYCTqm0.s:25459  .debug_str:000000000000a6fe .LASF37
C:\Users\SOLDER~1\AppData\Local\Temp\ccYCTqm0.s:25315  .debug_str:0000000000009d9d .LASF38
C:\Users\SOLDER~1\AppData\Local\Temp\ccYCTqm0.s:26681  .debug_str:000000000000f5f4 .LASF39
C:\Users\SOLDER~1\AppData\Local\Temp\ccYCTqm0.s:29665  .debug_str:000000000001b5ee .LASF40
C:\Users\SOLDER~1\AppData\Local\Temp\ccYCTqm0.s:24833  .debug_str:0000000000007dea .LASF41
C:\Users\SOLDER~1\AppData\Local\Temp\ccYCTqm0.s:27059  .debug_str:0000000000010e0f .LASF42
C:\Users\SOLDER~1\AppData\Local\Temp\ccYCTqm0.s:32869  .debug_str:0000000000028532 .LASF43
C:\Users\SOLDER~1\AppData\Local\Temp\ccYCTqm0.s:23601  .debug_str:0000000000002ef1 .LASF44
C:\Users\SOLDER~1\AppData\Local\Temp\ccYCTqm0.s:26751  .debug_str:000000000000fa6e .LASF45
C:\Users\SOLDER~1\AppData\Local\Temp\ccYCTqm0.s:27651  .debug_str:00000000000133a4 .LASF46
C:\Users\SOLDER~1\AppData\Local\Temp\ccYCTqm0.s:32173  .debug_str:000000000002570e .LASF47
C:\Users\SOLDER~1\AppData\Local\Temp\ccYCTqm0.s:29655  .debug_str:000000000001b543 .LASF48
C:\Users\SOLDER~1\AppData\Local\Temp\ccYCTqm0.s:27503  .debug_str:0000000000012a13 .LASF49
C:\Users\SOLDER~1\AppData\Local\Temp\ccYCTqm0.s:24107  .debug_str:0000000000004f09 .LASF50
C:\Users\SOLDER~1\AppData\Local\Temp\ccYCTqm0.s:27653  .debug_str:00000000000133bd .LASF51
C:\Users\SOLDER~1\AppData\Local\Temp\ccYCTqm0.s:32355  .debug_str:000000000002633e .LASF52
C:\Users\SOLDER~1\AppData\Local\Temp\ccYCTqm0.s:26397  .debug_str:000000000000e3b8 .LASF53
C:\Users\SOLDER~1\AppData\Local\Temp\ccYCTqm0.s:27895  .debug_str:00000000000143fa .LASF54
C:\Users\SOLDER~1\AppData\Local\Temp\ccYCTqm0.s:22913  .debug_str:00000000000001ed .LASF55
C:\Users\SOLDER~1\AppData\Local\Temp\ccYCTqm0.s:33755  .debug_str:000000000002be43 .LASF56
C:\Users\SOLDER~1\AppData\Local\Temp\ccYCTqm0.s:31761  .debug_str:0000000000023c8a .LASF57
C:\Users\SOLDER~1\AppData\Local\Temp\ccYCTqm0.s:28031  .debug_str:0000000000014d6f .LASF58
C:\Users\SOLDER~1\AppData\Local\Temp\ccYCTqm0.s:27023  .debug_str:0000000000010b93 .LASF59
C:\Users\SOLDER~1\AppData\Local\Temp\ccYCTqm0.s:24925  .debug_str:000000000000841a .LASF60
C:\Users\SOLDER~1\AppData\Local\Temp\ccYCTqm0.s:31415  .debug_str:00000000000225b7 .LASF61
C:\Users\SOLDER~1\AppData\Local\Temp\ccYCTqm0.s:23175  .debug_str:000000000000138a .LASF62
C:\Users\SOLDER~1\AppData\Local\Temp\ccYCTqm0.s:26283  .debug_str:000000000000dc5d .LASF63
C:\Users\SOLDER~1\AppData\Local\Temp\ccYCTqm0.s:29203  .debug_str:000000000001989b .LASF64
C:\Users\SOLDER~1\AppData\Local\Temp\ccYCTqm0.s:30029  .debug_str:000000000001ccfa .LASF65
C:\Users\SOLDER~1\AppData\Local\Temp\ccYCTqm0.s:23685  .debug_str:0000000000003466 .LASF66
C:\Users\SOLDER~1\AppData\Local\Temp\ccYCTqm0.s:26387  .debug_str:000000000000e302 .LASF67
C:\Users\SOLDER~1\AppData\Local\Temp\ccYCTqm0.s:26115  .debug_str:000000000000d167 .LASF68
C:\Users\SOLDER~1\AppData\Local\Temp\ccYCTqm0.s:29645  .debug_str:000000000001b4bb .LASF69
C:\Users\SOLDER~1\AppData\Local\Temp\ccYCTqm0.s:28283  .debug_str:0000000000015da5 .LASF70
C:\Users\SOLDER~1\AppData\Local\Temp\ccYCTqm0.s:33509  .debug_str:000000000002ae25 .LASF71
C:\Users\SOLDER~1\AppData\Local\Temp\ccYCTqm0.s:33983  .debug_str:000000000002ccd1 .LASF72
C:\Users\SOLDER~1\AppData\Local\Temp\ccYCTqm0.s:27461  .debug_str:0000000000012743 .LASF73
C:\Users\SOLDER~1\AppData\Local\Temp\ccYCTqm0.s:26565  .debug_str:000000000000eed7 .LASF74
C:\Users\SOLDER~1\AppData\Local\Temp\ccYCTqm0.s:24125  .debug_str:0000000000005020 .LASF75
C:\Users\SOLDER~1\AppData\Local\Temp\ccYCTqm0.s:27493  .debug_str:0000000000012979 .LASF76
C:\Users\SOLDER~1\AppData\Local\Temp\ccYCTqm0.s:26025  .debug_str:000000000000cb6e .LASF77
C:\Users\SOLDER~1\AppData\Local\Temp\ccYCTqm0.s:27747  .debug_str:00000000000139fb .LASF78
C:\Users\SOLDER~1\AppData\Local\Temp\ccYCTqm0.s:28291  .debug_str:0000000000015e3d .LASF79
C:\Users\SOLDER~1\AppData\Local\Temp\ccYCTqm0.s:27681  .debug_str:0000000000013590 .LASF80
C:\Users\SOLDER~1\AppData\Local\Temp\ccYCTqm0.s:32259  .debug_str:0000000000025cbf .LASF81
C:\Users\SOLDER~1\AppData\Local\Temp\ccYCTqm0.s:30163  .debug_str:000000000001d5c7 .LASF82
GAS LISTING C:\Users\SOLDER~1\AppData\Local\Temp\ccYCTqm0.s 			page 106


C:\Users\SOLDER~1\AppData\Local\Temp\ccYCTqm0.s:30597  .debug_str:000000000001f163 .LASF83
C:\Users\SOLDER~1\AppData\Local\Temp\ccYCTqm0.s:33495  .debug_str:000000000002ad3c .LASF84
C:\Users\SOLDER~1\AppData\Local\Temp\ccYCTqm0.s:25407  .debug_str:000000000000a3ad .LASF85
C:\Users\SOLDER~1\AppData\Local\Temp\ccYCTqm0.s:33639  .debug_str:000000000002b6e4 .LASF86
C:\Users\SOLDER~1\AppData\Local\Temp\ccYCTqm0.s:27495  .debug_str:00000000000129a0 .LASF87
C:\Users\SOLDER~1\AppData\Local\Temp\ccYCTqm0.s:29671  .debug_str:000000000001b64e .LASF88
C:\Users\SOLDER~1\AppData\Local\Temp\ccYCTqm0.s:24647  .debug_str:0000000000007282 .LASF89
C:\Users\SOLDER~1\AppData\Local\Temp\ccYCTqm0.s:33977  .debug_str:000000000002cc6f .LASF90
C:\Users\SOLDER~1\AppData\Local\Temp\ccYCTqm0.s:33667  .debug_str:000000000002b88d .LASF91
C:\Users\SOLDER~1\AppData\Local\Temp\ccYCTqm0.s:31027  .debug_str:0000000000020d33 .LASF92
C:\Users\SOLDER~1\AppData\Local\Temp\ccYCTqm0.s:29741  .debug_str:000000000001ba69 .LASF93
C:\Users\SOLDER~1\AppData\Local\Temp\ccYCTqm0.s:31051  .debug_str:0000000000020eda .LASF94
C:\Users\SOLDER~1\AppData\Local\Temp\ccYCTqm0.s:32067  .debug_str:000000000002504b .LASF95
C:\Users\SOLDER~1\AppData\Local\Temp\ccYCTqm0.s:32671  .debug_str:0000000000027832 .LASF96
C:\Users\SOLDER~1\AppData\Local\Temp\ccYCTqm0.s:25493  .debug_str:000000000000a958 .LASF97
C:\Users\SOLDER~1\AppData\Local\Temp\ccYCTqm0.s:33375  .debug_str:000000000002a5cb .LASF98
C:\Users\SOLDER~1\AppData\Local\Temp\ccYCTqm0.s:27987  .debug_str:0000000000014a7a .LASF99
C:\Users\SOLDER~1\AppData\Local\Temp\ccYCTqm0.s:32051  .debug_str:0000000000024f5f .LASF100
C:\Users\SOLDER~1\AppData\Local\Temp\ccYCTqm0.s:34177  .debug_str:000000000002d987 .LASF101
C:\Users\SOLDER~1\AppData\Local\Temp\ccYCTqm0.s:27587  .debug_str:0000000000012f90 .LASF102
C:\Users\SOLDER~1\AppData\Local\Temp\ccYCTqm0.s:31597  .debug_str:00000000000231c2 .LASF103
C:\Users\SOLDER~1\AppData\Local\Temp\ccYCTqm0.s:30229  .debug_str:000000000001d9ed .LASF104
C:\Users\SOLDER~1\AppData\Local\Temp\ccYCTqm0.s:27077  .debug_str:0000000000010f22 .LASF105
C:\Users\SOLDER~1\AppData\Local\Temp\ccYCTqm0.s:28541  .debug_str:0000000000016da5 .LASF106
C:\Users\SOLDER~1\AppData\Local\Temp\ccYCTqm0.s:27339  .debug_str:0000000000011fc9 .LASF107
C:\Users\SOLDER~1\AppData\Local\Temp\ccYCTqm0.s:26309  .debug_str:000000000000ddea .LASF108
C:\Users\SOLDER~1\AppData\Local\Temp\ccYCTqm0.s:27511  .debug_str:0000000000012aa3 .LASF109
C:\Users\SOLDER~1\AppData\Local\Temp\ccYCTqm0.s:24159  .debug_str:000000000000522e .LASF110
C:\Users\SOLDER~1\AppData\Local\Temp\ccYCTqm0.s:27333  .debug_str:0000000000011f76 .LASF111
C:\Users\SOLDER~1\AppData\Local\Temp\ccYCTqm0.s:26305  .debug_str:000000000000ddb5 .LASF112
C:\Users\SOLDER~1\AppData\Local\Temp\ccYCTqm0.s:27803  .debug_str:0000000000013e04 .LASF113
C:\Users\SOLDER~1\AppData\Local\Temp\ccYCTqm0.s:26707  .debug_str:000000000000f791 .LASF114
C:\Users\SOLDER~1\AppData\Local\Temp\ccYCTqm0.s:29295  .debug_str:0000000000019e61 .LASF115
C:\Users\SOLDER~1\AppData\Local\Temp\ccYCTqm0.s:25763  .debug_str:000000000000ba6b .LASF116
C:\Users\SOLDER~1\AppData\Local\Temp\ccYCTqm0.s:25487  .debug_str:000000000000a8d1 .LASF117
C:\Users\SOLDER~1\AppData\Local\Temp\ccYCTqm0.s:26881  .debug_str:000000000001035a .LASF118
C:\Users\SOLDER~1\AppData\Local\Temp\ccYCTqm0.s:33549  .debug_str:000000000002b0e7 .LASF119
C:\Users\SOLDER~1\AppData\Local\Temp\ccYCTqm0.s:28815  .debug_str:0000000000017f8c .LASF120
C:\Users\SOLDER~1\AppData\Local\Temp\ccYCTqm0.s:25251  .debug_str:000000000000998c .LASF121
C:\Users\SOLDER~1\AppData\Local\Temp\ccYCTqm0.s:30009  .debug_str:000000000001cba2 .LASF122
C:\Users\SOLDER~1\AppData\Local\Temp\ccYCTqm0.s:34311  .debug_str:000000000002e210 .LASF123
C:\Users\SOLDER~1\AppData\Local\Temp\ccYCTqm0.s:26621  .debug_str:000000000000f210 .LASF124
C:\Users\SOLDER~1\AppData\Local\Temp\ccYCTqm0.s:32245  .debug_str:0000000000025ba9 .LASF125
C:\Users\SOLDER~1\AppData\Local\Temp\ccYCTqm0.s:26079  .debug_str:000000000000cee8 .LASF126
C:\Users\SOLDER~1\AppData\Local\Temp\ccYCTqm0.s:26181  .debug_str:000000000000d5b5 .LASF127
C:\Users\SOLDER~1\AppData\Local\Temp\ccYCTqm0.s:23791  .debug_str:0000000000003b2b .LASF128
C:\Users\SOLDER~1\AppData\Local\Temp\ccYCTqm0.s:24077  .debug_str:0000000000004d41 .LASF129
C:\Users\SOLDER~1\AppData\Local\Temp\ccYCTqm0.s:33235  .debug_str:0000000000029c87 .LASF130
C:\Users\SOLDER~1\AppData\Local\Temp\ccYCTqm0.s:27515  .debug_str:0000000000012abb .LASF131
C:\Users\SOLDER~1\AppData\Local\Temp\ccYCTqm0.s:30423  .debug_str:000000000001e5fd .LASF132
C:\Users\SOLDER~1\AppData\Local\Temp\ccYCTqm0.s:25325  .debug_str:0000000000009e38 .LASF133
C:\Users\SOLDER~1\AppData\Local\Temp\ccYCTqm0.s:32775  .debug_str:0000000000027ebc .LASF134
C:\Users\SOLDER~1\AppData\Local\Temp\ccYCTqm0.s:33103  .debug_str:00000000000293d7 .LASF135
C:\Users\SOLDER~1\AppData\Local\Temp\ccYCTqm0.s:32901  .debug_str:0000000000028730 .LASF136
C:\Users\SOLDER~1\AppData\Local\Temp\ccYCTqm0.s:26599  .debug_str:000000000000f095 .LASF137
C:\Users\SOLDER~1\AppData\Local\Temp\ccYCTqm0.s:32159  .debug_str:0000000000025624 .LASF138
C:\Users\SOLDER~1\AppData\Local\Temp\ccYCTqm0.s:24063  .debug_str:0000000000004c34 .LASF139
GAS LISTING C:\Users\SOLDER~1\AppData\Local\Temp\ccYCTqm0.s 			page 107


C:\Users\SOLDER~1\AppData\Local\Temp\ccYCTqm0.s:24967  .debug_str:00000000000086ed .LASF140
C:\Users\SOLDER~1\AppData\Local\Temp\ccYCTqm0.s:30173  .debug_str:000000000001d659 .LASF141
C:\Users\SOLDER~1\AppData\Local\Temp\ccYCTqm0.s:29901  .debug_str:000000000001c4a7 .LASF142
C:\Users\SOLDER~1\AppData\Local\Temp\ccYCTqm0.s:33441  .debug_str:000000000002aa2a .LASF143
C:\Users\SOLDER~1\AppData\Local\Temp\ccYCTqm0.s:32541  .debug_str:0000000000026fba .LASF144
C:\Users\SOLDER~1\AppData\Local\Temp\ccYCTqm0.s:30105  .debug_str:000000000001d23f .LASF145
C:\Users\SOLDER~1\AppData\Local\Temp\ccYCTqm0.s:25445  .debug_str:000000000000a611 .LASF146
C:\Users\SOLDER~1\AppData\Local\Temp\ccYCTqm0.s:27739  .debug_str:0000000000013978 .LASF147
C:\Users\SOLDER~1\AppData\Local\Temp\ccYCTqm0.s:29259  .debug_str:0000000000019c2a .LASF148
C:\Users\SOLDER~1\AppData\Local\Temp\ccYCTqm0.s:28299  .debug_str:0000000000015e95 .LASF149
C:\Users\SOLDER~1\AppData\Local\Temp\ccYCTqm0.s:26141  .debug_str:000000000000d306 .LASF150
C:\Users\SOLDER~1\AppData\Local\Temp\ccYCTqm0.s:24123  .debug_str:0000000000005009 .LASF151
C:\Users\SOLDER~1\AppData\Local\Temp\ccYCTqm0.s:26747  .debug_str:000000000000fa30 .LASF152
C:\Users\SOLDER~1\AppData\Local\Temp\ccYCTqm0.s:29245  .debug_str:0000000000019b6a .LASF153
C:\Users\SOLDER~1\AppData\Local\Temp\ccYCTqm0.s:22991  .debug_str:0000000000000789 .LASF154
C:\Users\SOLDER~1\AppData\Local\Temp\ccYCTqm0.s:31587  .debug_str:000000000002312b .LASF155
C:\Users\SOLDER~1\AppData\Local\Temp\ccYCTqm0.s:27793  .debug_str:0000000000013d39 .LASF156
C:\Users\SOLDER~1\AppData\Local\Temp\ccYCTqm0.s:32545  .debug_str:0000000000026fe9 .LASF157
C:\Users\SOLDER~1\AppData\Local\Temp\ccYCTqm0.s:30317  .debug_str:000000000001def2 .LASF158
C:\Users\SOLDER~1\AppData\Local\Temp\ccYCTqm0.s:32481  .debug_str:0000000000026b93 .LASF159
C:\Users\SOLDER~1\AppData\Local\Temp\ccYCTqm0.s:33159  .debug_str:0000000000029797 .LASF160
C:\Users\SOLDER~1\AppData\Local\Temp\ccYCTqm0.s:30457  .debug_str:000000000001e80e .LASF161
C:\Users\SOLDER~1\AppData\Local\Temp\ccYCTqm0.s:26003  .debug_str:000000000000c9fc .LASF162
C:\Users\SOLDER~1\AppData\Local\Temp\ccYCTqm0.s:25065  .debug_str:0000000000008d22 .LASF163
C:\Users\SOLDER~1\AppData\Local\Temp\ccYCTqm0.s:27935  .debug_str:00000000000146ec .LASF164
C:\Users\SOLDER~1\AppData\Local\Temp\ccYCTqm0.s:29949  .debug_str:000000000001c7e6 .LASF165
C:\Users\SOLDER~1\AppData\Local\Temp\ccYCTqm0.s:31407  .debug_str:000000000002255a .LASF166
C:\Users\SOLDER~1\AppData\Local\Temp\ccYCTqm0.s:33029  .debug_str:0000000000028f82 .LASF167
C:\Users\SOLDER~1\AppData\Local\Temp\ccYCTqm0.s:32149  .debug_str:000000000002556a .LASF168
C:\Users\SOLDER~1\AppData\Local\Temp\ccYCTqm0.s:33875  .debug_str:000000000002c636 .LASF169
C:\Users\SOLDER~1\AppData\Local\Temp\ccYCTqm0.s:24823  .debug_str:0000000000007d3a .LASF170
C:\Users\SOLDER~1\AppData\Local\Temp\ccYCTqm0.s:33539  .debug_str:000000000002b045 .LASF171
C:\Users\SOLDER~1\AppData\Local\Temp\ccYCTqm0.s:25211  .debug_str:00000000000096cb .LASF172
C:\Users\SOLDER~1\AppData\Local\Temp\ccYCTqm0.s:29801  .debug_str:000000000001be13 .LASF173
C:\Users\SOLDER~1\AppData\Local\Temp\ccYCTqm0.s:29037  .debug_str:0000000000018dd0 .LASF174
C:\Users\SOLDER~1\AppData\Local\Temp\ccYCTqm0.s:32961  .debug_str:0000000000028b03 .LASF175
C:\Users\SOLDER~1\AppData\Local\Temp\ccYCTqm0.s:28667  .debug_str:00000000000175a2 .LASF176
C:\Users\SOLDER~1\AppData\Local\Temp\ccYCTqm0.s:30239  .debug_str:000000000001da81 .LASF177
C:\Users\SOLDER~1\AppData\Local\Temp\ccYCTqm0.s:25441  .debug_str:000000000000a5e3 .LASF178
C:\Users\SOLDER~1\AppData\Local\Temp\ccYCTqm0.s:27459  .debug_str:000000000001272b .LASF179
C:\Users\SOLDER~1\AppData\Local\Temp\ccYCTqm0.s:29371  .debug_str:000000000001a313 .LASF180
C:\Users\SOLDER~1\AppData\Local\Temp\ccYCTqm0.s:24471  .debug_str:00000000000066c1 .LASF181
C:\Users\SOLDER~1\AppData\Local\Temp\ccYCTqm0.s:25295  .debug_str:0000000000009c80 .LASF182
C:\Users\SOLDER~1\AppData\Local\Temp\ccYCTqm0.s:23925  .debug_str:00000000000043bc .LASF183
C:\Users\SOLDER~1\AppData\Local\Temp\ccYCTqm0.s:29429  .debug_str:000000000001a6cc .LASF184
C:\Users\SOLDER~1\AppData\Local\Temp\ccYCTqm0.s:27937  .debug_str:0000000000014703 .LASF185
C:\Users\SOLDER~1\AppData\Local\Temp\ccYCTqm0.s:23433  .debug_str:000000000000244a .LASF186
C:\Users\SOLDER~1\AppData\Local\Temp\ccYCTqm0.s:34175  .debug_str:000000000002d974 .LASF187
C:\Users\SOLDER~1\AppData\Local\Temp\ccYCTqm0.s:23207  .debug_str:00000000000015a2 .LASF188
C:\Users\SOLDER~1\AppData\Local\Temp\ccYCTqm0.s:27913  .debug_str:0000000000014560 .LASF189
C:\Users\SOLDER~1\AppData\Local\Temp\ccYCTqm0.s:28369  .debug_str:000000000001631a .LASF190
C:\Users\SOLDER~1\AppData\Local\Temp\ccYCTqm0.s:33365  .debug_str:000000000002a505 .LASF191
C:\Users\SOLDER~1\AppData\Local\Temp\ccYCTqm0.s:26341  .debug_str:000000000000dfe9 .LASF192
C:\Users\SOLDER~1\AppData\Local\Temp\ccYCTqm0.s:33847  .debug_str:000000000002c432 .LASF193
C:\Users\SOLDER~1\AppData\Local\Temp\ccYCTqm0.s:31001  .debug_str:0000000000020b9b .LASF194
C:\Users\SOLDER~1\AppData\Local\Temp\ccYCTqm0.s:26643  .debug_str:000000000000f392 .LASF195
C:\Users\SOLDER~1\AppData\Local\Temp\ccYCTqm0.s:25639  .debug_str:000000000000b2b5 .LASF196
GAS LISTING C:\Users\SOLDER~1\AppData\Local\Temp\ccYCTqm0.s 			page 108


C:\Users\SOLDER~1\AppData\Local\Temp\ccYCTqm0.s:30513  .debug_str:000000000001ebf1 .LASF197
C:\Users\SOLDER~1\AppData\Local\Temp\ccYCTqm0.s:33455  .debug_str:000000000002ab1d .LASF198
C:\Users\SOLDER~1\AppData\Local\Temp\ccYCTqm0.s:28167  .debug_str:0000000000015656 .LASF199
C:\Users\SOLDER~1\AppData\Local\Temp\ccYCTqm0.s:30713  .debug_str:000000000001f91e .LASF200
C:\Users\SOLDER~1\AppData\Local\Temp\ccYCTqm0.s:23217  .debug_str:0000000000001644 .LASF201
C:\Users\SOLDER~1\AppData\Local\Temp\ccYCTqm0.s:34413  .debug_str:000000000002e84d .LASF202
C:\Users\SOLDER~1\AppData\Local\Temp\ccYCTqm0.s:28141  .debug_str:000000000001548c .LASF203
C:\Users\SOLDER~1\AppData\Local\Temp\ccYCTqm0.s:30905  .debug_str:000000000002056d .LASF204
C:\Users\SOLDER~1\AppData\Local\Temp\ccYCTqm0.s:29449  .debug_str:000000000001a80e .LASF205
C:\Users\SOLDER~1\AppData\Local\Temp\ccYCTqm0.s:24519  .debug_str:00000000000069e5 .LASF206
C:\Users\SOLDER~1\AppData\Local\Temp\ccYCTqm0.s:28161  .debug_str:00000000000155d3 .LASF207
C:\Users\SOLDER~1\AppData\Local\Temp\ccYCTqm0.s:30159  .debug_str:000000000001d560 .LASF208
C:\Users\SOLDER~1\AppData\Local\Temp\ccYCTqm0.s:31141  .debug_str:000000000002149a .LASF209
C:\Users\SOLDER~1\AppData\Local\Temp\ccYCTqm0.s:26967  .debug_str:0000000000010881 .LASF210
C:\Users\SOLDER~1\AppData\Local\Temp\ccYCTqm0.s:32547  .debug_str:0000000000027025 .LASF211
C:\Users\SOLDER~1\AppData\Local\Temp\ccYCTqm0.s:32341  .debug_str:0000000000026228 .LASF212
C:\Users\SOLDER~1\AppData\Local\Temp\ccYCTqm0.s:24767  .debug_str:0000000000007a09 .LASF213
C:\Users\SOLDER~1\AppData\Local\Temp\ccYCTqm0.s:31851  .debug_str:0000000000024215 .LASF214
C:\Users\SOLDER~1\AppData\Local\Temp\ccYCTqm0.s:28459  .debug_str:00000000000168ed .LASF215
C:\Users\SOLDER~1\AppData\Local\Temp\ccYCTqm0.s:24733  .debug_str:0000000000007809 .LASF216
C:\Users\SOLDER~1\AppData\Local\Temp\ccYCTqm0.s:25155  .debug_str:0000000000009322 .LASF217
C:\Users\SOLDER~1\AppData\Local\Temp\ccYCTqm0.s:32419  .debug_str:00000000000267a5 .LASF218
C:\Users\SOLDER~1\AppData\Local\Temp\ccYCTqm0.s:31991  .debug_str:0000000000024b3d .LASF219
C:\Users\SOLDER~1\AppData\Local\Temp\ccYCTqm0.s:23531  .debug_str:0000000000002aac .LASF220
C:\Users\SOLDER~1\AppData\Local\Temp\ccYCTqm0.s:25289  .debug_str:0000000000009bdd .LASF221
C:\Users\SOLDER~1\AppData\Local\Temp\ccYCTqm0.s:31091  .debug_str:0000000000021132 .LASF222
C:\Users\SOLDER~1\AppData\Local\Temp\ccYCTqm0.s:30941  .debug_str:00000000000207a2 .LASF223
C:\Users\SOLDER~1\AppData\Local\Temp\ccYCTqm0.s:25199  .debug_str:0000000000009604 .LASF224
C:\Users\SOLDER~1\AppData\Local\Temp\ccYCTqm0.s:24527  .debug_str:0000000000006a98 .LASF225
C:\Users\SOLDER~1\AppData\Local\Temp\ccYCTqm0.s:30421  .debug_str:000000000001e5e6 .LASF226
C:\Users\SOLDER~1\AppData\Local\Temp\ccYCTqm0.s:27177  .debug_str:000000000001154a .LASF227
C:\Users\SOLDER~1\AppData\Local\Temp\ccYCTqm0.s:26889  .debug_str:00000000000103ca .LASF228
C:\Users\SOLDER~1\AppData\Local\Temp\ccYCTqm0.s:30939  .debug_str:0000000000020789 .LASF229
C:\Users\SOLDER~1\AppData\Local\Temp\ccYCTqm0.s:31975  .debug_str:0000000000024a35 .LASF230
C:\Users\SOLDER~1\AppData\Local\Temp\ccYCTqm0.s:26913  .debug_str:000000000001054b .LASF231
C:\Users\SOLDER~1\AppData\Local\Temp\ccYCTqm0.s:32771  .debug_str:0000000000027e80 .LASF232
C:\Users\SOLDER~1\AppData\Local\Temp\ccYCTqm0.s:32041  .debug_str:0000000000024eb5 .LASF233
C:\Users\SOLDER~1\AppData\Local\Temp\ccYCTqm0.s:33823  .debug_str:000000000002c27d .LASF234
C:\Users\SOLDER~1\AppData\Local\Temp\ccYCTqm0.s:24941  .debug_str:000000000000853e .LASF235
C:\Users\SOLDER~1\AppData\Local\Temp\ccYCTqm0.s:26961  .debug_str:0000000000010819 .LASF236
C:\Users\SOLDER~1\AppData\Local\Temp\ccYCTqm0.s:26407  .debug_str:000000000000e467 .LASF237
C:\Users\SOLDER~1\AppData\Local\Temp\ccYCTqm0.s:32209  .debug_str:000000000002592a .LASF238
C:\Users\SOLDER~1\AppData\Local\Temp\ccYCTqm0.s:27777  .debug_str:0000000000013bff .LASF239
C:\Users\SOLDER~1\AppData\Local\Temp\ccYCTqm0.s:30953  .debug_str:000000000002086f .LASF240
C:\Users\SOLDER~1\AppData\Local\Temp\ccYCTqm0.s:23621  .debug_str:0000000000003043 .LASF241
C:\Users\SOLDER~1\AppData\Local\Temp\ccYCTqm0.s:28763  .debug_str:0000000000017c1f .LASF242
C:\Users\SOLDER~1\AppData\Local\Temp\ccYCTqm0.s:30253  .debug_str:000000000001db3f .LASF243
C:\Users\SOLDER~1\AppData\Local\Temp\ccYCTqm0.s:29609  .debug_str:000000000001b296 .LASF244
C:\Users\SOLDER~1\AppData\Local\Temp\ccYCTqm0.s:34143  .debug_str:000000000002d75b .LASF245
C:\Users\SOLDER~1\AppData\Local\Temp\ccYCTqm0.s:30189  .debug_str:000000000001d76b .LASF246
C:\Users\SOLDER~1\AppData\Local\Temp\ccYCTqm0.s:33259  .debug_str:0000000000029dd9 .LASF247
C:\Users\SOLDER~1\AppData\Local\Temp\ccYCTqm0.s:26431  .debug_str:000000000000e64a .LASF248
C:\Users\SOLDER~1\AppData\Local\Temp\ccYCTqm0.s:32635  .debug_str:00000000000275b2 .LASF249
C:\Users\SOLDER~1\AppData\Local\Temp\ccYCTqm0.s:26281  .debug_str:000000000000dc45 .LASF250
C:\Users\SOLDER~1\AppData\Local\Temp\ccYCTqm0.s:29519  .debug_str:000000000001acc7 .LASF251
C:\Users\SOLDER~1\AppData\Local\Temp\ccYCTqm0.s:26537  .debug_str:000000000000ed0c .LASF252
C:\Users\SOLDER~1\AppData\Local\Temp\ccYCTqm0.s:23139  .debug_str:000000000000113c .LASF253
GAS LISTING C:\Users\SOLDER~1\AppData\Local\Temp\ccYCTqm0.s 			page 109


C:\Users\SOLDER~1\AppData\Local\Temp\ccYCTqm0.s:25717  .debug_str:000000000000b7a2 .LASF254
C:\Users\SOLDER~1\AppData\Local\Temp\ccYCTqm0.s:32001  .debug_str:0000000000024bd9 .LASF255
C:\Users\SOLDER~1\AppData\Local\Temp\ccYCTqm0.s:25827  .debug_str:000000000000be2a .LASF256
C:\Users\SOLDER~1\AppData\Local\Temp\ccYCTqm0.s:25293  .debug_str:0000000000009c3b .LASF257
C:\Users\SOLDER~1\AppData\Local\Temp\ccYCTqm0.s:34353  .debug_str:000000000002e4a0 .LASF258
C:\Users\SOLDER~1\AppData\Local\Temp\ccYCTqm0.s:30133  .debug_str:000000000001d3dd .LASF259
C:\Users\SOLDER~1\AppData\Local\Temp\ccYCTqm0.s:28917  .debug_str:0000000000018675 .LASF260
C:\Users\SOLDER~1\AppData\Local\Temp\ccYCTqm0.s:34027  .debug_str:000000000002cf88 .LASF261
C:\Users\SOLDER~1\AppData\Local\Temp\ccYCTqm0.s:26455  .debug_str:000000000000e7e8 .LASF262
C:\Users\SOLDER~1\AppData\Local\Temp\ccYCTqm0.s:25771  .debug_str:000000000000bada .LASF263
C:\Users\SOLDER~1\AppData\Local\Temp\ccYCTqm0.s:30243  .debug_str:000000000001dab1 .LASF264
C:\Users\SOLDER~1\AppData\Local\Temp\ccYCTqm0.s:26099  .debug_str:000000000000d04f .LASF265
C:\Users\SOLDER~1\AppData\Local\Temp\ccYCTqm0.s:27093  .debug_str:0000000000011001 .LASF266
C:\Users\SOLDER~1\AppData\Local\Temp\ccYCTqm0.s:28949  .debug_str:000000000001886d .LASF267
C:\Users\SOLDER~1\AppData\Local\Temp\ccYCTqm0.s:32881  .debug_str:000000000002860a .LASF268
C:\Users\SOLDER~1\AppData\Local\Temp\ccYCTqm0.s:25911  .debug_str:000000000000c391 .LASF269
C:\Users\SOLDER~1\AppData\Local\Temp\ccYCTqm0.s:24621  .debug_str:0000000000007068 .LASF270
C:\Users\SOLDER~1\AppData\Local\Temp\ccYCTqm0.s:24801  .debug_str:0000000000007bce .LASF271
C:\Users\SOLDER~1\AppData\Local\Temp\ccYCTqm0.s:26153  .debug_str:000000000000d3d9 .LASF272
C:\Users\SOLDER~1\AppData\Local\Temp\ccYCTqm0.s:25983  .debug_str:000000000000c88c .LASF273
C:\Users\SOLDER~1\AppData\Local\Temp\ccYCTqm0.s:23231  .debug_str:0000000000001719 .LASF274
C:\Users\SOLDER~1\AppData\Local\Temp\ccYCTqm0.s:24613  .debug_str:0000000000006ff5 .LASF275
C:\Users\SOLDER~1\AppData\Local\Temp\ccYCTqm0.s:33569  .debug_str:000000000002b231 .LASF276
C:\Users\SOLDER~1\AppData\Local\Temp\ccYCTqm0.s:31487  .debug_str:0000000000022a68 .LASF277
C:\Users\SOLDER~1\AppData\Local\Temp\ccYCTqm0.s:32445  .debug_str:0000000000026955 .LASF278
C:\Users\SOLDER~1\AppData\Local\Temp\ccYCTqm0.s:24569  .debug_str:0000000000006d52 .LASF279
C:\Users\SOLDER~1\AppData\Local\Temp\ccYCTqm0.s:24345  .debug_str:0000000000005e48 .LASF280
C:\Users\SOLDER~1\AppData\Local\Temp\ccYCTqm0.s:24223  .debug_str:0000000000005636 .LASF281
C:\Users\SOLDER~1\AppData\Local\Temp\ccYCTqm0.s:28981  .debug_str:0000000000018a6f .LASF282
C:\Users\SOLDER~1\AppData\Local\Temp\ccYCTqm0.s:32415  .debug_str:0000000000026760 .LASF283
C:\Users\SOLDER~1\AppData\Local\Temp\ccYCTqm0.s:32679  .debug_str:00000000000278a9 .LASF284
C:\Users\SOLDER~1\AppData\Local\Temp\ccYCTqm0.s:33545  .debug_str:000000000002b0a7 .LASF285
C:\Users\SOLDER~1\AppData\Local\Temp\ccYCTqm0.s:30199  .debug_str:000000000001d7ff .LASF286
C:\Users\SOLDER~1\AppData\Local\Temp\ccYCTqm0.s:34343  .debug_str:000000000002e3ff .LASF287
C:\Users\SOLDER~1\AppData\Local\Temp\ccYCTqm0.s:24319  .debug_str:0000000000005c8a .LASF288
C:\Users\SOLDER~1\AppData\Local\Temp\ccYCTqm0.s:28173  .debug_str:00000000000156ae .LASF289
C:\Users\SOLDER~1\AppData\Local\Temp\ccYCTqm0.s:27047  .debug_str:0000000000010d5a .LASF290
C:\Users\SOLDER~1\AppData\Local\Temp\ccYCTqm0.s:34587  .debug_str:000000000002f3a0 .LASF291
C:\Users\SOLDER~1\AppData\Local\Temp\ccYCTqm0.s:33385  .debug_str:000000000002a68d .LASF292
C:\Users\SOLDER~1\AppData\Local\Temp\ccYCTqm0.s:24145  .debug_str:0000000000005161 .LASF293
C:\Users\SOLDER~1\AppData\Local\Temp\ccYCTqm0.s:22929  .debug_str:00000000000002f4 .LASF294
C:\Users\SOLDER~1\AppData\Local\Temp\ccYCTqm0.s:28223  .debug_str:00000000000159ee .LASF295
C:\Users\SOLDER~1\AppData\Local\Temp\ccYCTqm0.s:29055  .debug_str:0000000000018f1e .LASF296
C:\Users\SOLDER~1\AppData\Local\Temp\ccYCTqm0.s:26449  .debug_str:000000000000e78a .LASF297
C:\Users\SOLDER~1\AppData\Local\Temp\ccYCTqm0.s:26991  .debug_str:00000000000109d9 .LASF298
C:\Users\SOLDER~1\AppData\Local\Temp\ccYCTqm0.s:29769  .debug_str:000000000001bc1b .LASF299
C:\Users\SOLDER~1\AppData\Local\Temp\ccYCTqm0.s:28293  .debug_str:0000000000015e56 .LASF300
C:\Users\SOLDER~1\AppData\Local\Temp\ccYCTqm0.s:27719  .debug_str:0000000000013812 .LASF301
C:\Users\SOLDER~1\AppData\Local\Temp\ccYCTqm0.s:23469  .debug_str:000000000000269e .LASF302
C:\Users\SOLDER~1\AppData\Local\Temp\ccYCTqm0.s:26105  .debug_str:000000000000d0b8 .LASF303
C:\Users\SOLDER~1\AppData\Local\Temp\ccYCTqm0.s:31567  .debug_str:0000000000022fe6 .LASF304
C:\Users\SOLDER~1\AppData\Local\Temp\ccYCTqm0.s:27011  .debug_str:0000000000010acd .LASF305
C:\Users\SOLDER~1\AppData\Local\Temp\ccYCTqm0.s:32435  .debug_str:00000000000268c4 .LASF306
C:\Users\SOLDER~1\AppData\Local\Temp\ccYCTqm0.s:32013  .debug_str:0000000000024cc5 .LASF307
C:\Users\SOLDER~1\AppData\Local\Temp\ccYCTqm0.s:30211  .debug_str:000000000001d8ca .LASF308
C:\Users\SOLDER~1\AppData\Local\Temp\ccYCTqm0.s:23931  .debug_str:0000000000004420 .LASF309
C:\Users\SOLDER~1\AppData\Local\Temp\ccYCTqm0.s:30573  .debug_str:000000000001efba .LASF310
GAS LISTING C:\Users\SOLDER~1\AppData\Local\Temp\ccYCTqm0.s 			page 110


C:\Users\SOLDER~1\AppData\Local\Temp\ccYCTqm0.s:26223  .debug_str:000000000000d87c .LASF311
C:\Users\SOLDER~1\AppData\Local\Temp\ccYCTqm0.s:26983  .debug_str:000000000001095b .LASF312
C:\Users\SOLDER~1\AppData\Local\Temp\ccYCTqm0.s:25365  .debug_str:000000000000a0da .LASF313
C:\Users\SOLDER~1\AppData\Local\Temp\ccYCTqm0.s:27981  .debug_str:0000000000014a22 .LASF314
C:\Users\SOLDER~1\AppData\Local\Temp\ccYCTqm0.s:24797  .debug_str:0000000000007b8f .LASF315
C:\Users\SOLDER~1\AppData\Local\Temp\ccYCTqm0.s:30283  .debug_str:000000000001dd06 .LASF316
C:\Users\SOLDER~1\AppData\Local\Temp\ccYCTqm0.s:32767  .debug_str:0000000000027e51 .LASF317
C:\Users\SOLDER~1\AppData\Local\Temp\ccYCTqm0.s:32019  .debug_str:0000000000024d32 .LASF319
C:\Users\SOLDER~1\AppData\Local\Temp\ccYCTqm0.s:26853  .debug_str:0000000000010177 .LASF320
C:\Users\SOLDER~1\AppData\Local\Temp\ccYCTqm0.s:28139  .debug_str:0000000000015467 .LASF321
C:\Users\SOLDER~1\AppData\Local\Temp\ccYCTqm0.s:30613  .debug_str:000000000001f249 .LASF322
C:\Users\SOLDER~1\AppData\Local\Temp\ccYCTqm0.s:29423  .debug_str:000000000001a66c .LASF323
C:\Users\SOLDER~1\AppData\Local\Temp\ccYCTqm0.s:26119  .debug_str:000000000000d1a3 .LASF324
C:\Users\SOLDER~1\AppData\Local\Temp\ccYCTqm0.s:24315  .debug_str:0000000000005c51 .LASF325
C:\Users\SOLDER~1\AppData\Local\Temp\ccYCTqm0.s:23013  .debug_str:00000000000008e3 .LASF326
C:\Users\SOLDER~1\AppData\Local\Temp\ccYCTqm0.s:33389  .debug_str:000000000002a6d2 .LASF327
C:\Users\SOLDER~1\AppData\Local\Temp\ccYCTqm0.s:26195  .debug_str:000000000000d69f .LASF328
C:\Users\SOLDER~1\AppData\Local\Temp\ccYCTqm0.s:34267  .debug_str:000000000002df32 .LASF329
C:\Users\SOLDER~1\AppData\Local\Temp\ccYCTqm0.s:24439  .debug_str:0000000000006493 .LASF330
C:\Users\SOLDER~1\AppData\Local\Temp\ccYCTqm0.s:23977  .debug_str:00000000000046c5 .LASF331
C:\Users\SOLDER~1\AppData\Local\Temp\ccYCTqm0.s:22941  .debug_str:00000000000003b5 .LASF332
C:\Users\SOLDER~1\AppData\Local\Temp\ccYCTqm0.s:28395  .debug_str:00000000000164c0 .LASF333
C:\Users\SOLDER~1\AppData\Local\Temp\ccYCTqm0.s:31041  .debug_str:0000000000020e35 .LASF334
C:\Users\SOLDER~1\AppData\Local\Temp\ccYCTqm0.s:29303  .debug_str:0000000000019ee1 .LASF335
C:\Users\SOLDER~1\AppData\Local\Temp\ccYCTqm0.s:29153  .debug_str:000000000001955d .LASF339
C:\Users\SOLDER~1\AppData\Local\Temp\ccYCTqm0.s:29707  .debug_str:000000000001b866 .LASF340
C:\Users\SOLDER~1\AppData\Local\Temp\ccYCTqm0.s:25667  .debug_str:000000000000b470 .LASF341
C:\Users\SOLDER~1\AppData\Local\Temp\ccYCTqm0.s:28923  .debug_str:00000000000186db .LASF342
C:\Users\SOLDER~1\AppData\Local\Temp\ccYCTqm0.s:29141  .debug_str:00000000000194a8 .LASF343
C:\Users\SOLDER~1\AppData\Local\Temp\ccYCTqm0.s:23515  .debug_str:0000000000002962 .LASF344
C:\Users\SOLDER~1\AppData\Local\Temp\ccYCTqm0.s:25711  .debug_str:000000000000b730 .LASF345
C:\Users\SOLDER~1\AppData\Local\Temp\ccYCTqm0.s:23845  .debug_str:0000000000003e92 .LASF346
C:\Users\SOLDER~1\AppData\Local\Temp\ccYCTqm0.s:33921  .debug_str:000000000002c910 .LASF347
C:\Users\SOLDER~1\AppData\Local\Temp\ccYCTqm0.s:28481  .debug_str:0000000000016a0f .LASF348
C:\Users\SOLDER~1\AppData\Local\Temp\ccYCTqm0.s:30975  .debug_str:00000000000209fa .LASF349
C:\Users\SOLDER~1\AppData\Local\Temp\ccYCTqm0.s:25189  .debug_str:000000000000957f .LASF350
C:\Users\SOLDER~1\AppData\Local\Temp\ccYCTqm0.s:28991  .debug_str:0000000000018b06 .LASF351
C:\Users\SOLDER~1\AppData\Local\Temp\ccYCTqm0.s:34257  .debug_str:000000000002de9b .LASF352
C:\Users\SOLDER~1\AppData\Local\Temp\ccYCTqm0.s:25641  .debug_str:000000000000b2ce .LASF353
C:\Users\SOLDER~1\AppData\Local\Temp\ccYCTqm0.s:26765  .debug_str:000000000000fb4b .LASF354
C:\Users\SOLDER~1\AppData\Local\Temp\ccYCTqm0.s:30225  .debug_str:000000000001d9b6 .LASF355
C:\Users\SOLDER~1\AppData\Local\Temp\ccYCTqm0.s:28393  .debug_str:00000000000164b0 .LASF356
C:\Users\SOLDER~1\AppData\Local\Temp\ccYCTqm0.s:28535  .debug_str:0000000000016d51 .LASF357
C:\Users\SOLDER~1\AppData\Local\Temp\ccYCTqm0.s:31611  .debug_str:000000000002329a .LASF358
C:\Users\SOLDER~1\AppData\Local\Temp\ccYCTqm0.s:27599  .debug_str:000000000001306a .LASF359
C:\Users\SOLDER~1\AppData\Local\Temp\ccYCTqm0.s:28603  .debug_str:000000000001715a .LASF360
C:\Users\SOLDER~1\AppData\Local\Temp\ccYCTqm0.s:31727  .debug_str:0000000000023a64 .LASF361
C:\Users\SOLDER~1\AppData\Local\Temp\ccYCTqm0.s:24685  .debug_str:00000000000074e5 .LASF362
C:\Users\SOLDER~1\AppData\Local\Temp\ccYCTqm0.s:33517  .debug_str:000000000002aeb9 .LASF363
C:\Users\SOLDER~1\AppData\Local\Temp\ccYCTqm0.s:24193  .debug_str:000000000000545f .LASF364
C:\Users\SOLDER~1\AppData\Local\Temp\ccYCTqm0.s:29075  .debug_str:000000000001907f .LASF365
C:\Users\SOLDER~1\AppData\Local\Temp\ccYCTqm0.s:24785  .debug_str:0000000000007af4 .LASF366
C:\Users\SOLDER~1\AppData\Local\Temp\ccYCTqm0.s:25731  .debug_str:000000000000b89f .LASF367
C:\Users\SOLDER~1\AppData\Local\Temp\ccYCTqm0.s:22899  .debug_str:0000000000000132 .LASF368
C:\Users\SOLDER~1\AppData\Local\Temp\ccYCTqm0.s:30923  .debug_str:000000000002068f .LASF369
C:\Users\SOLDER~1\AppData\Local\Temp\ccYCTqm0.s:26439  .debug_str:000000000000e6dd .LASF370
C:\Users\SOLDER~1\AppData\Local\Temp\ccYCTqm0.s:31923  .debug_str:00000000000246b9 .LASF371
GAS LISTING C:\Users\SOLDER~1\AppData\Local\Temp\ccYCTqm0.s 			page 111


C:\Users\SOLDER~1\AppData\Local\Temp\ccYCTqm0.s:30857  .debug_str:000000000002027a .LASF372
C:\Users\SOLDER~1\AppData\Local\Temp\ccYCTqm0.s:27201  .debug_str:00000000000116d4 .LASF373
C:\Users\SOLDER~1\AppData\Local\Temp\ccYCTqm0.s:34405  .debug_str:000000000002e7d0 .LASF374
C:\Users\SOLDER~1\AppData\Local\Temp\ccYCTqm0.s:34341  .debug_str:000000000002e3f9 .LASF375
C:\Users\SOLDER~1\AppData\Local\Temp\ccYCTqm0.s:24975  .debug_str:000000000000876e .LASF376
C:\Users\SOLDER~1\AppData\Local\Temp\ccYCTqm0.s:33419  .debug_str:000000000002a8be .LASF377
C:\Users\SOLDER~1\AppData\Local\Temp\ccYCTqm0.s:28375  .debug_str:00000000000163a2 .LASF378
C:\Users\SOLDER~1\AppData\Local\Temp\ccYCTqm0.s:32191  .debug_str:0000000000025813 .LASF379
C:\Users\SOLDER~1\AppData\Local\Temp\ccYCTqm0.s:33219  .debug_str:0000000000029b97 .LASF380
C:\Users\SOLDER~1\AppData\Local\Temp\ccYCTqm0.s:31647  .debug_str:0000000000023507 .LASF381
C:\Users\SOLDER~1\AppData\Local\Temp\ccYCTqm0.s:30549  .debug_str:000000000001ee65 .LASF382
C:\Users\SOLDER~1\AppData\Local\Temp\ccYCTqm0.s:33245  .debug_str:0000000000029d15 .LASF383
C:\Users\SOLDER~1\AppData\Local\Temp\ccYCTqm0.s:29935  .debug_str:000000000001c70d .LASF384
C:\Users\SOLDER~1\AppData\Local\Temp\ccYCTqm0.s:27301  .debug_str:0000000000011d89 .LASF385
C:\Users\SOLDER~1\AppData\Local\Temp\ccYCTqm0.s:31775  .debug_str:0000000000023d60 .LASF386
C:\Users\SOLDER~1\AppData\Local\Temp\ccYCTqm0.s:30769  .debug_str:000000000001fcf7 .LASF387
C:\Users\SOLDER~1\AppData\Local\Temp\ccYCTqm0.s:23265  .debug_str:0000000000001935 .LASF388
C:\Users\SOLDER~1\AppData\Local\Temp\ccYCTqm0.s:23949  .debug_str:000000000000450e .LASF389
C:\Users\SOLDER~1\AppData\Local\Temp\ccYCTqm0.s:28555  .debug_str:0000000000016e97 .LASF390
C:\Users\SOLDER~1\AppData\Local\Temp\ccYCTqm0.s:25561  .debug_str:000000000000adfd .LASF391
C:\Users\SOLDER~1\AppData\Local\Temp\ccYCTqm0.s:25039  .debug_str:0000000000008b73 .LASF392
C:\Users\SOLDER~1\AppData\Local\Temp\ccYCTqm0.s:30465  .debug_str:000000000001e88c .LASF393
C:\Users\SOLDER~1\AppData\Local\Temp\ccYCTqm0.s:31111  .debug_str:00000000000212a4 .LASF394
C:\Users\SOLDER~1\AppData\Local\Temp\ccYCTqm0.s:31245  .debug_str:0000000000021b54 .LASF395
C:\Users\SOLDER~1\AppData\Local\Temp\ccYCTqm0.s:25195  .debug_str:00000000000095d5 .LASF396
C:\Users\SOLDER~1\AppData\Local\Temp\ccYCTqm0.s:24775  .debug_str:0000000000007a73 .LASF397
C:\Users\SOLDER~1\AppData\Local\Temp\ccYCTqm0.s:30279  .debug_str:000000000001dce2 .LASF398
C:\Users\SOLDER~1\AppData\Local\Temp\ccYCTqm0.s:32929  .debug_str:0000000000028919 .LASF399
C:\Users\SOLDER~1\AppData\Local\Temp\ccYCTqm0.s:27513  .debug_str:0000000000012ab1 .LASF400
C:\Users\SOLDER~1\AppData\Local\Temp\ccYCTqm0.s:28275  .debug_str:0000000000015d28 .LASF401
C:\Users\SOLDER~1\AppData\Local\Temp\ccYCTqm0.s:26081  .debug_str:000000000000cf13 .LASF402
C:\Users\SOLDER~1\AppData\Local\Temp\ccYCTqm0.s:29967  .debug_str:000000000001c8dd .LASF403
C:\Users\SOLDER~1\AppData\Local\Temp\ccYCTqm0.s:28489  .debug_str:0000000000016a7c .LASF404
C:\Users\SOLDER~1\AppData\Local\Temp\ccYCTqm0.s:28939  .debug_str:00000000000187da .LASF405
C:\Users\SOLDER~1\AppData\Local\Temp\ccYCTqm0.s:25097  .debug_str:0000000000008f29 .LASF406
C:\Users\SOLDER~1\AppData\Local\Temp\ccYCTqm0.s:33871  .debug_str:000000000002c615 .LASF407
C:\Users\SOLDER~1\AppData\Local\Temp\ccYCTqm0.s:27825  .debug_str:0000000000013f9f .LASF408
C:\Users\SOLDER~1\AppData\Local\Temp\ccYCTqm0.s:30309  .debug_str:000000000001de9b .LASF409
C:\Users\SOLDER~1\AppData\Local\Temp\ccYCTqm0.s:26675  .debug_str:000000000000f593 .LASF410
C:\Users\SOLDER~1\AppData\Local\Temp\ccYCTqm0.s:31007  .debug_str:0000000000020bfa .LASF411
C:\Users\SOLDER~1\AppData\Local\Temp\ccYCTqm0.s:32993  .debug_str:0000000000028d49 .LASF412
C:\Users\SOLDER~1\AppData\Local\Temp\ccYCTqm0.s:28157  .debug_str:0000000000015596 .LASF413
C:\Users\SOLDER~1\AppData\Local\Temp\ccYCTqm0.s:27361  .debug_str:0000000000012139 .LASF414
C:\Users\SOLDER~1\AppData\Local\Temp\ccYCTqm0.s:29365  .debug_str:000000000001a2d1 .LASF415
C:\Users\SOLDER~1\AppData\Local\Temp\ccYCTqm0.s:34441  .debug_str:000000000002ea26 .LASF416
C:\Users\SOLDER~1\AppData\Local\Temp\ccYCTqm0.s:34579  .debug_str:000000000002f327 .LASF417
C:\Users\SOLDER~1\AppData\Local\Temp\ccYCTqm0.s:24851  .debug_str:0000000000007f25 .LASF418
C:\Users\SOLDER~1\AppData\Local\Temp\ccYCTqm0.s:25933  .debug_str:000000000000c53b .LASF419
C:\Users\SOLDER~1\AppData\Local\Temp\ccYCTqm0.s:27799  .debug_str:0000000000013dcd .LASF420
C:\Users\SOLDER~1\AppData\Local\Temp\ccYCTqm0.s:31063  .debug_str:0000000000020f90 .LASF421
C:\Users\SOLDER~1\AppData\Local\Temp\ccYCTqm0.s:31751  .debug_str:0000000000023be7 .LASF422
C:\Users\SOLDER~1\AppData\Local\Temp\ccYCTqm0.s:23383  .debug_str:00000000000020f9 .LASF423
C:\Users\SOLDER~1\AppData\Local\Temp\ccYCTqm0.s:27759  .debug_str:0000000000013aca .LASF424
C:\Users\SOLDER~1\AppData\Local\Temp\ccYCTqm0.s:30997  .debug_str:0000000000020b60 .LASF425
C:\Users\SOLDER~1\AppData\Local\Temp\ccYCTqm0.s:27351  .debug_str:00000000000120b5 .LASF426
C:\Users\SOLDER~1\AppData\Local\Temp\ccYCTqm0.s:34561  .debug_str:000000000002f1fd .LASF427
C:\Users\SOLDER~1\AppData\Local\Temp\ccYCTqm0.s:29979  .debug_str:000000000001c998 .LASF428
GAS LISTING C:\Users\SOLDER~1\AppData\Local\Temp\ccYCTqm0.s 			page 112


C:\Users\SOLDER~1\AppData\Local\Temp\ccYCTqm0.s:24207  .debug_str:000000000000554e .LASF429
C:\Users\SOLDER~1\AppData\Local\Temp\ccYCTqm0.s:32133  .debug_str:000000000002547f .LASF430
C:\Users\SOLDER~1\AppData\Local\Temp\ccYCTqm0.s:27689  .debug_str:0000000000013619 .LASF431
C:\Users\SOLDER~1\AppData\Local\Temp\ccYCTqm0.s:32045  .debug_str:0000000000024ef8 .LASF432
C:\Users\SOLDER~1\AppData\Local\Temp\ccYCTqm0.s:24113  .debug_str:0000000000004f71 .LASF433
C:\Users\SOLDER~1\AppData\Local\Temp\ccYCTqm0.s:26649  .debug_str:000000000000f3e0 .LASF434
C:\Users\SOLDER~1\AppData\Local\Temp\ccYCTqm0.s:30891  .debug_str:0000000000020497 .LASF435
C:\Users\SOLDER~1\AppData\Local\Temp\ccYCTqm0.s:23061  .debug_str:0000000000000c8c .LASF436
C:\Users\SOLDER~1\AppData\Local\Temp\ccYCTqm0.s:26129  .debug_str:000000000000d251 .LASF437
C:\Users\SOLDER~1\AppData\Local\Temp\ccYCTqm0.s:28111  .debug_str:00000000000152a8 .LASF438
C:\Users\SOLDER~1\AppData\Local\Temp\ccYCTqm0.s:24195  .debug_str:0000000000005474 .LASF439
C:\Users\SOLDER~1\AppData\Local\Temp\ccYCTqm0.s:27421  .debug_str:00000000000124da .LASF440
C:\Users\SOLDER~1\AppData\Local\Temp\ccYCTqm0.s:33187  .debug_str:0000000000029997 .LASF441
C:\Users\SOLDER~1\AppData\Local\Temp\ccYCTqm0.s:25759  .debug_str:000000000000ba3e .LASF442
C:\Users\SOLDER~1\AppData\Local\Temp\ccYCTqm0.s:30027  .debug_str:000000000001ccde .LASF443
C:\Users\SOLDER~1\AppData\Local\Temp\ccYCTqm0.s:33741  .debug_str:000000000002bd47 .LASF444
C:\Users\SOLDER~1\AppData\Local\Temp\ccYCTqm0.s:27555  .debug_str:0000000000012d3c .LASF445
C:\Users\SOLDER~1\AppData\Local\Temp\ccYCTqm0.s:26977  .debug_str:000000000001090a .LASF446
C:\Users\SOLDER~1\AppData\Local\Temp\ccYCTqm0.s:30793  .debug_str:000000000001fe80 .LASF447
C:\Users\SOLDER~1\AppData\Local\Temp\ccYCTqm0.s:25095  .debug_str:0000000000008f0f .LASF448
C:\Users\SOLDER~1\AppData\Local\Temp\ccYCTqm0.s:30383  .debug_str:000000000001e383 .LASF449
C:\Users\SOLDER~1\AppData\Local\Temp\ccYCTqm0.s:26641  .debug_str:000000000000f367 .LASF450
C:\Users\SOLDER~1\AppData\Local\Temp\ccYCTqm0.s:33157  .debug_str:0000000000029771 .LASF451
C:\Users\SOLDER~1\AppData\Local\Temp\ccYCTqm0.s:27277  .debug_str:0000000000011bdf .LASF452
C:\Users\SOLDER~1\AppData\Local\Temp\ccYCTqm0.s:23639  .debug_str:0000000000003177 .LASF453
C:\Users\SOLDER~1\AppData\Local\Temp\ccYCTqm0.s:23213  .debug_str:0000000000001601 .LASF454
C:\Users\SOLDER~1\AppData\Local\Temp\ccYCTqm0.s:31495  .debug_str:0000000000022ae9 .LASF455
C:\Users\SOLDER~1\AppData\Local\Temp\ccYCTqm0.s:32413  .debug_str:0000000000026735 .LASF456
C:\Users\SOLDER~1\AppData\Local\Temp\ccYCTqm0.s:26149  .debug_str:000000000000d38a .LASF457
C:\Users\SOLDER~1\AppData\Local\Temp\ccYCTqm0.s:26479  .debug_str:000000000000e957 .LASF458
C:\Users\SOLDER~1\AppData\Local\Temp\ccYCTqm0.s:33053  .debug_str:00000000000290e9 .LASF459
C:\Users\SOLDER~1\AppData\Local\Temp\ccYCTqm0.s:33987  .debug_str:000000000002cd09 .LASF460
C:\Users\SOLDER~1\AppData\Local\Temp\ccYCTqm0.s:23199  .debug_str:000000000000150c .LASF461
C:\Users\SOLDER~1\AppData\Local\Temp\ccYCTqm0.s:25741  .debug_str:000000000000b928 .LASF462
C:\Users\SOLDER~1\AppData\Local\Temp\ccYCTqm0.s:32369  .debug_str:000000000002642c .LASF463
C:\Users\SOLDER~1\AppData\Local\Temp\ccYCTqm0.s:29705  .debug_str:000000000001b840 .LASF464
C:\Users\SOLDER~1\AppData\Local\Temp\ccYCTqm0.s:32905  .debug_str:000000000002876e .LASF465
C:\Users\SOLDER~1\AppData\Local\Temp\ccYCTqm0.s:28867  .debug_str:000000000001831e .LASF466
C:\Users\SOLDER~1\AppData\Local\Temp\ccYCTqm0.s:31293  .debug_str:0000000000021e45 .LASF467
C:\Users\SOLDER~1\AppData\Local\Temp\ccYCTqm0.s:29927  .debug_str:000000000001c67d .LASF468
C:\Users\SOLDER~1\AppData\Local\Temp\ccYCTqm0.s:23307  .debug_str:0000000000001be4 .LASF469
C:\Users\SOLDER~1\AppData\Local\Temp\ccYCTqm0.s:28303  .debug_str:0000000000015ed3 .LASF470
C:\Users\SOLDER~1\AppData\Local\Temp\ccYCTqm0.s:30873  .debug_str:000000000002037a .LASF471
C:\Users\SOLDER~1\AppData\Local\Temp\ccYCTqm0.s:34247  .debug_str:000000000002ddfa .LASF472
C:\Users\SOLDER~1\AppData\Local\Temp\ccYCTqm0.s:34497  .debug_str:000000000002ee0d .LASF473
C:\Users\SOLDER~1\AppData\Local\Temp\ccYCTqm0.s:34345  .debug_str:000000000002e421 .LASF474
C:\Users\SOLDER~1\AppData\Local\Temp\ccYCTqm0.s:32405  .debug_str:00000000000266ab .LASF475
C:\Users\SOLDER~1\AppData\Local\Temp\ccYCTqm0.s:25385  .debug_str:000000000000a233 .LASF476
C:\Users\SOLDER~1\AppData\Local\Temp\ccYCTqm0.s:29489  .debug_str:000000000001aaaf .LASF477
C:\Users\SOLDER~1\AppData\Local\Temp\ccYCTqm0.s:28551  .debug_str:0000000000016e53 .LASF478
C:\Users\SOLDER~1\AppData\Local\Temp\ccYCTqm0.s:32511  .debug_str:0000000000026da0 .LASF479
C:\Users\SOLDER~1\AppData\Local\Temp\ccYCTqm0.s:34591  .debug_str:000000000002f3d6 .LASF480
C:\Users\SOLDER~1\AppData\Local\Temp\ccYCTqm0.s:31305  .debug_str:0000000000021f15 .LASF481
C:\Users\SOLDER~1\AppData\Local\Temp\ccYCTqm0.s:32607  .debug_str:00000000000273f5 .LASF482
C:\Users\SOLDER~1\AppData\Local\Temp\ccYCTqm0.s:26417  .debug_str:000000000000e54f .LASF483
C:\Users\SOLDER~1\AppData\Local\Temp\ccYCTqm0.s:29643  .debug_str:000000000001b4a3 .LASF484
C:\Users\SOLDER~1\AppData\Local\Temp\ccYCTqm0.s:29557  .debug_str:000000000001af1c .LASF485
GAS LISTING C:\Users\SOLDER~1\AppData\Local\Temp\ccYCTqm0.s 			page 113


C:\Users\SOLDER~1\AppData\Local\Temp\ccYCTqm0.s:32727  .debug_str:0000000000027bc6 .LASF486
C:\Users\SOLDER~1\AppData\Local\Temp\ccYCTqm0.s:30131  .debug_str:000000000001d3c5 .LASF487
C:\Users\SOLDER~1\AppData\Local\Temp\ccYCTqm0.s:26905  .debug_str:00000000000104d4 .LASF488
C:\Users\SOLDER~1\AppData\Local\Temp\ccYCTqm0.s:29031  .debug_str:0000000000018d70 .LASF489
C:\Users\SOLDER~1\AppData\Local\Temp\ccYCTqm0.s:24137  .debug_str:00000000000050da .LASF490
C:\Users\SOLDER~1\AppData\Local\Temp\ccYCTqm0.s:27251  .debug_str:0000000000011a4f .LASF491
C:\Users\SOLDER~1\AppData\Local\Temp\ccYCTqm0.s:26209  .debug_str:000000000000d78b .LASF492
C:\Users\SOLDER~1\AppData\Local\Temp\ccYCTqm0.s:31607  .debug_str:0000000000023263 .LASF494
C:\Users\SOLDER~1\AppData\Local\Temp\ccYCTqm0.s:25263  .debug_str:0000000000009a43 .LASF495
C:\Users\SOLDER~1\AppData\Local\Temp\ccYCTqm0.s:24235  .debug_str:00000000000056e5 .LASF496
C:\Users\SOLDER~1\AppData\Local\Temp\ccYCTqm0.s:30389  .debug_str:000000000001e3dc .LASF497
C:\Users\SOLDER~1\AppData\Local\Temp\ccYCTqm0.s:29709  .debug_str:000000000001b87e .LASF498
C:\Users\SOLDER~1\AppData\Local\Temp\ccYCTqm0.s:29807  .debug_str:000000000001be9a .LASF499
C:\Users\SOLDER~1\AppData\Local\Temp\ccYCTqm0.s:26483  .debug_str:000000000000e998 .LASF500
C:\Users\SOLDER~1\AppData\Local\Temp\ccYCTqm0.s:24035  .debug_str:0000000000004aa8 .LASF501
C:\Users\SOLDER~1\AppData\Local\Temp\ccYCTqm0.s:27403  .debug_str:00000000000123cb .LASF502
C:\Users\SOLDER~1\AppData\Local\Temp\ccYCTqm0.s:32097  .debug_str:0000000000025238 .LASF503
C:\Users\SOLDER~1\AppData\Local\Temp\ccYCTqm0.s:28261  .debug_str:0000000000015c1f .LASF504
C:\Users\SOLDER~1\AppData\Local\Temp\ccYCTqm0.s:22911  .debug_str:00000000000001d9 .LASF505
C:\Users\SOLDER~1\AppData\Local\Temp\ccYCTqm0.s:26293  .debug_str:000000000000dd06 .LASF506
C:\Users\SOLDER~1\AppData\Local\Temp\ccYCTqm0.s:34307  .debug_str:000000000002e1b1 .LASF507
C:\Users\SOLDER~1\AppData\Local\Temp\ccYCTqm0.s:33225  .debug_str:0000000000029be3 .LASF508
C:\Users\SOLDER~1\AppData\Local\Temp\ccYCTqm0.s:27785  .debug_str:0000000000013ca7 .LASF509
C:\Users\SOLDER~1\AppData\Local\Temp\ccYCTqm0.s:28725  .debug_str:00000000000179c3 .LASF510
C:\Users\SOLDER~1\AppData\Local\Temp\ccYCTqm0.s:28097  .debug_str:00000000000151d4 .LASF511
C:\Users\SOLDER~1\AppData\Local\Temp\ccYCTqm0.s:29173  .debug_str:000000000001967a .LASF512
C:\Users\SOLDER~1\AppData\Local\Temp\ccYCTqm0.s:31035  .debug_str:0000000000020dca .LASF513
C:\Users\SOLDER~1\AppData\Local\Temp\ccYCTqm0.s:30047  .debug_str:000000000001ce2f .LASF514
C:\Users\SOLDER~1\AppData\Local\Temp\ccYCTqm0.s:25653  .debug_str:000000000000b393 .LASF515
C:\Users\SOLDER~1\AppData\Local\Temp\ccYCTqm0.s:33843  .debug_str:000000000002c3ea .LASF516
C:\Users\SOLDER~1\AppData\Local\Temp\ccYCTqm0.s:30299  .debug_str:000000000001ddf1 .LASF517
C:\Users\SOLDER~1\AppData\Local\Temp\ccYCTqm0.s:33707  .debug_str:000000000002bb43 .LASF518
C:\Users\SOLDER~1\AppData\Local\Temp\ccYCTqm0.s:32291  .debug_str:0000000000025ec8 .LASF519
C:\Users\SOLDER~1\AppData\Local\Temp\ccYCTqm0.s:29453  .debug_str:000000000001a86f .LASF520
C:\Users\SOLDER~1\AppData\Local\Temp\ccYCTqm0.s:24465  .debug_str:000000000000664a .LASF521
C:\Users\SOLDER~1\AppData\Local\Temp\ccYCTqm0.s:31651  .debug_str:0000000000023538 .LASF522
C:\Users\SOLDER~1\AppData\Local\Temp\ccYCTqm0.s:25429  .debug_str:000000000000a525 .LASF523
C:\Users\SOLDER~1\AppData\Local\Temp\ccYCTqm0.s:23415  .debug_str:000000000000231e .LASF524
C:\Users\SOLDER~1\AppData\Local\Temp\ccYCTqm0.s:30353  .debug_str:000000000001e177 .LASF525
C:\Users\SOLDER~1\AppData\Local\Temp\ccYCTqm0.s:26351  .debug_str:000000000000e0a4 .LASF526
C:\Users\SOLDER~1\AppData\Local\Temp\ccYCTqm0.s:28115  .debug_str:00000000000152e4 .LASF527
C:\Users\SOLDER~1\AppData\Local\Temp\ccYCTqm0.s:26389  .debug_str:000000000000e324 .LASF528
C:\Users\SOLDER~1\AppData\Local\Temp\ccYCTqm0.s:25153  .debug_str:00000000000092fe .LASF529
C:\Users\SOLDER~1\AppData\Local\Temp\ccYCTqm0.s:24789  .debug_str:0000000000007b0d .LASF530
C:\Users\SOLDER~1\AppData\Local\Temp\ccYCTqm0.s:23327  .debug_str:0000000000001d40 .LASF531
C:\Users\SOLDER~1\AppData\Local\Temp\ccYCTqm0.s:32655  .debug_str:0000000000027708 .LASF532
C:\Users\SOLDER~1\AppData\Local\Temp\ccYCTqm0.s:34459  .debug_str:000000000002eb45 .LASF533
C:\Users\SOLDER~1\AppData\Local\Temp\ccYCTqm0.s:27427  .debug_str:000000000001254a .LASF534
C:\Users\SOLDER~1\AppData\Local\Temp\ccYCTqm0.s:33835  .debug_str:000000000002c35c .LASF535
C:\Users\SOLDER~1\AppData\Local\Temp\ccYCTqm0.s:29929  .debug_str:000000000001c6a6 .LASF536
C:\Users\SOLDER~1\AppData\Local\Temp\ccYCTqm0.s:26301  .debug_str:000000000000dd7c .LASF537
C:\Users\SOLDER~1\AppData\Local\Temp\ccYCTqm0.s:29703  .debug_str:000000000001b81a .LASF538
C:\Users\SOLDER~1\AppData\Local\Temp\ccYCTqm0.s:24021  .debug_str:00000000000049b6 .LASF539
C:\Users\SOLDER~1\AppData\Local\Temp\ccYCTqm0.s:31705  .debug_str:00000000000238e4 .LASF540
C:\Users\SOLDER~1\AppData\Local\Temp\ccYCTqm0.s:29747  .debug_str:000000000001bac0 .LASF541
C:\Users\SOLDER~1\AppData\Local\Temp\ccYCTqm0.s:33927  .debug_str:000000000002c959 .LASF542
C:\Users\SOLDER~1\AppData\Local\Temp\ccYCTqm0.s:25787  .debug_str:000000000000bb99 .LASF543
GAS LISTING C:\Users\SOLDER~1\AppData\Local\Temp\ccYCTqm0.s 			page 114


C:\Users\SOLDER~1\AppData\Local\Temp\ccYCTqm0.s:32631  .debug_str:0000000000027571 .LASF544
C:\Users\SOLDER~1\AppData\Local\Temp\ccYCTqm0.s:31847  .debug_str:00000000000241c5 .LASF545
C:\Users\SOLDER~1\AppData\Local\Temp\ccYCTqm0.s:30615  .debug_str:000000000001f26b .LASF546
C:\Users\SOLDER~1\AppData\Local\Temp\ccYCTqm0.s:32849  .debug_str:00000000000283d5 .LASF547
C:\Users\SOLDER~1\AppData\Local\Temp\ccYCTqm0.s:30825  .debug_str:0000000000020073 .LASF548
C:\Users\SOLDER~1\AppData\Local\Temp\ccYCTqm0.s:28919  .debug_str:0000000000018690 .LASF549
C:\Users\SOLDER~1\AppData\Local\Temp\ccYCTqm0.s:27613  .debug_str:000000000001313b .LASF550
C:\Users\SOLDER~1\AppData\Local\Temp\ccYCTqm0.s:31251  .debug_str:0000000000021b9e .LASF551
C:\Users\SOLDER~1\AppData\Local\Temp\ccYCTqm0.s:27849  .debug_str:000000000001412a .LASF552
C:\Users\SOLDER~1\AppData\Local\Temp\ccYCTqm0.s:30489  .debug_str:000000000001ea48 .LASF553
C:\Users\SOLDER~1\AppData\Local\Temp\ccYCTqm0.s:28405  .debug_str:0000000000016568 .LASF554
C:\Users\SOLDER~1\AppData\Local\Temp\ccYCTqm0.s:23241  .debug_str:00000000000017b6 .LASF555
C:\Users\SOLDER~1\AppData\Local\Temp\ccYCTqm0.s:27147  .debug_str:000000000001136b .LASF556
C:\Users\SOLDER~1\AppData\Local\Temp\ccYCTqm0.s:24423  .debug_str:000000000000637c .LASF557
C:\Users\SOLDER~1\AppData\Local\Temp\ccYCTqm0.s:27049  .debug_str:0000000000010d77 .LASF558
C:\Users\SOLDER~1\AppData\Local\Temp\ccYCTqm0.s:33733  .debug_str:000000000002bcc9 .LASF559
C:\Users\SOLDER~1\AppData\Local\Temp\ccYCTqm0.s:23335  .debug_str:0000000000001df1 .LASF560
C:\Users\SOLDER~1\AppData\Local\Temp\ccYCTqm0.s:32163  .debug_str:0000000000025666 .LASF561
C:\Users\SOLDER~1\AppData\Local\Temp\ccYCTqm0.s:34127  .debug_str:000000000002d661 .LASF562
C:\Users\SOLDER~1\AppData\Local\Temp\ccYCTqm0.s:34365  .debug_str:000000000002e552 .LASF563
C:\Users\SOLDER~1\AppData\Local\Temp\ccYCTqm0.s:26373  .debug_str:000000000000e20b .LASF564
C:\Users\SOLDER~1\AppData\Local\Temp\ccYCTqm0.s:23143  .debug_str:000000000000119a .LASF565
C:\Users\SOLDER~1\AppData\Local\Temp\ccYCTqm0.s:31757  .debug_str:0000000000023c47 .LASF566
C:\Users\SOLDER~1\AppData\Local\Temp\ccYCTqm0.s:29629  .debug_str:000000000001b3e1 .LASF567
C:\Users\SOLDER~1\AppData\Local\Temp\ccYCTqm0.s:29863  .debug_str:000000000001c239 .LASF568
C:\Users\SOLDER~1\AppData\Local\Temp\ccYCTqm0.s:23363  .debug_str:0000000000001fa6 .LASF569
C:\Users\SOLDER~1\AppData\Local\Temp\ccYCTqm0.s:28205  .debug_str:00000000000158d3 .LASF570
C:\Users\SOLDER~1\AppData\Local\Temp\ccYCTqm0.s:31941  .debug_str:00000000000247d9 .LASF571
C:\Users\SOLDER~1\AppData\Local\Temp\ccYCTqm0.s:26701  .debug_str:000000000000f73b .LASF572
C:\Users\SOLDER~1\AppData\Local\Temp\ccYCTqm0.s:28651  .debug_str:0000000000017493 .LASF573
C:\Users\SOLDER~1\AppData\Local\Temp\ccYCTqm0.s:26515  .debug_str:000000000000eb7f .LASF574
C:\Users\SOLDER~1\AppData\Local\Temp\ccYCTqm0.s:28539  .debug_str:0000000000016d87 .LASF575
C:\Users\SOLDER~1\AppData\Local\Temp\ccYCTqm0.s:27639  .debug_str:00000000000132e3 .LASF576
C:\Users\SOLDER~1\AppData\Local\Temp\ccYCTqm0.s:27601  .debug_str:000000000001307b .LASF577
C:\Users\SOLDER~1\AppData\Local\Temp\ccYCTqm0.s:34201  .debug_str:000000000002daf4 .LASF578
C:\Users\SOLDER~1\AppData\Local\Temp\ccYCTqm0.s:29099  .debug_str:0000000000019213 .LASF579
C:\Users\SOLDER~1\AppData\Local\Temp\ccYCTqm0.s:32371  .debug_str:0000000000026450 .LASF580
C:\Users\SOLDER~1\AppData\Local\Temp\ccYCTqm0.s:24017  .debug_str:0000000000004978 .LASF581
C:\Users\SOLDER~1\AppData\Local\Temp\ccYCTqm0.s:25531  .debug_str:000000000000abd7 .LASF582
C:\Users\SOLDER~1\AppData\Local\Temp\ccYCTqm0.s:30635  .debug_str:000000000001f3c5 .LASF583
C:\Users\SOLDER~1\AppData\Local\Temp\ccYCTqm0.s:33963  .debug_str:000000000002cb8a .LASF584
C:\Users\SOLDER~1\AppData\Local\Temp\ccYCTqm0.s:25597  .debug_str:000000000000aff5 .LASF585
C:\Users\SOLDER~1\AppData\Local\Temp\ccYCTqm0.s:33491  .debug_str:000000000002ad03 .LASF586
C:\Users\SOLDER~1\AppData\Local\Temp\ccYCTqm0.s:32383  .debug_str:0000000000026524 .LASF587
C:\Users\SOLDER~1\AppData\Local\Temp\ccYCTqm0.s:27535  .debug_str:0000000000012bdc .LASF588
C:\Users\SOLDER~1\AppData\Local\Temp\ccYCTqm0.s:29487  .debug_str:000000000001aa8e .LASF589
C:\Users\SOLDER~1\AppData\Local\Temp\ccYCTqm0.s:31641  .debug_str:00000000000234a1 .LASF590
C:\Users\SOLDER~1\AppData\Local\Temp\ccYCTqm0.s:28573  .debug_str:0000000000016f87 .LASF591
C:\Users\SOLDER~1\AppData\Local\Temp\ccYCTqm0.s:33111  .debug_str:0000000000029452 .LASF592
C:\Users\SOLDER~1\AppData\Local\Temp\ccYCTqm0.s:30197  .debug_str:000000000001d7df .LASF593
C:\Users\SOLDER~1\AppData\Local\Temp\ccYCTqm0.s:28865  .debug_str:00000000000182e4 .LASF594
C:\Users\SOLDER~1\AppData\Local\Temp\ccYCTqm0.s:34297  .debug_str:000000000002e0f1 .LASF595
C:\Users\SOLDER~1\AppData\Local\Temp\ccYCTqm0.s:25611  .debug_str:000000000000b0df .LASF596
C:\Users\SOLDER~1\AppData\Local\Temp\ccYCTqm0.s:33715  .debug_str:000000000002bbae .LASF597
C:\Users\SOLDER~1\AppData\Local\Temp\ccYCTqm0.s:27577  .debug_str:0000000000012eaa .LASF598
C:\Users\SOLDER~1\AppData\Local\Temp\ccYCTqm0.s:33125  .debug_str:000000000002954d .LASF599
C:\Users\SOLDER~1\AppData\Local\Temp\ccYCTqm0.s:27027  .debug_str:0000000000010bd8 .LASF600
GAS LISTING C:\Users\SOLDER~1\AppData\Local\Temp\ccYCTqm0.s 			page 115


C:\Users\SOLDER~1\AppData\Local\Temp\ccYCTqm0.s:32431  .debug_str:0000000000026862 .LASF601
C:\Users\SOLDER~1\AppData\Local\Temp\ccYCTqm0.s:32537  .debug_str:0000000000026f72 .LASF602
C:\Users\SOLDER~1\AppData\Local\Temp\ccYCTqm0.s:26377  .debug_str:000000000000e250 .LASF603
C:\Users\SOLDER~1\AppData\Local\Temp\ccYCTqm0.s:26163  .debug_str:000000000000d48f .LASF604
C:\Users\SOLDER~1\AppData\Local\Temp\ccYCTqm0.s:30275  .debug_str:000000000001dca5 .LASF605
C:\Users\SOLDER~1\AppData\Local\Temp\ccYCTqm0.s:32197  .debug_str:000000000002586e .LASF606
C:\Users\SOLDER~1\AppData\Local\Temp\ccYCTqm0.s:28657  .debug_str:0000000000017501 .LASF607
C:\Users\SOLDER~1\AppData\Local\Temp\ccYCTqm0.s:31401  .debug_str:0000000000022501 .LASF608
C:\Users\SOLDER~1\AppData\Local\Temp\ccYCTqm0.s:33807  .debug_str:000000000002c164 .LASF609
C:\Users\SOLDER~1\AppData\Local\Temp\ccYCTqm0.s:25235  .debug_str:0000000000009894 .LASF610
C:\Users\SOLDER~1\AppData\Local\Temp\ccYCTqm0.s:27317  .debug_str:0000000000011e6d .LASF611
C:\Users\SOLDER~1\AppData\Local\Temp\ccYCTqm0.s:27589  .debug_str:0000000000012faa .LASF612
C:\Users\SOLDER~1\AppData\Local\Temp\ccYCTqm0.s:30269  .debug_str:000000000001dc50 .LASF613
C:\Users\SOLDER~1\AppData\Local\Temp\ccYCTqm0.s:24669  .debug_str:00000000000073f5 .LASF614
C:\Users\SOLDER~1\AppData\Local\Temp\ccYCTqm0.s:23379  .debug_str:00000000000020d3 .LASF615
C:\Users\SOLDER~1\AppData\Local\Temp\ccYCTqm0.s:28729  .debug_str:0000000000017a0c .LASF616
C:\Users\SOLDER~1\AppData\Local\Temp\ccYCTqm0.s:24259  .debug_str:000000000000584f .LASF617
C:\Users\SOLDER~1\AppData\Local\Temp\ccYCTqm0.s:32119  .debug_str:00000000000253ac .LASF618
C:\Users\SOLDER~1\AppData\Local\Temp\ccYCTqm0.s:23673  .debug_str:00000000000033ad .LASF619
C:\Users\SOLDER~1\AppData\Local\Temp\ccYCTqm0.s:30397  .debug_str:000000000001e459 .LASF620
C:\Users\SOLDER~1\AppData\Local\Temp\ccYCTqm0.s:23773  .debug_str:00000000000039fe .LASF621
C:\Users\SOLDER~1\AppData\Local\Temp\ccYCTqm0.s:28267  .debug_str:0000000000015c94 .LASF622
C:\Users\SOLDER~1\AppData\Local\Temp\ccYCTqm0.s:29353  .debug_str:000000000001a1fb .LASF623
C:\Users\SOLDER~1\AppData\Local\Temp\ccYCTqm0.s:27191  .debug_str:0000000000011632 .LASF624
C:\Users\SOLDER~1\AppData\Local\Temp\ccYCTqm0.s:29939  .debug_str:000000000001c736 .LASF625
C:\Users\SOLDER~1\AppData\Local\Temp\ccYCTqm0.s:24635  .debug_str:000000000000717f .LASF626
C:\Users\SOLDER~1\AppData\Local\Temp\ccYCTqm0.s:24593  .debug_str:0000000000006eb4 .LASF627
C:\Users\SOLDER~1\AppData\Local\Temp\ccYCTqm0.s:29591  .debug_str:000000000001b172 .LASF628
C:\Users\SOLDER~1\AppData\Local\Temp\ccYCTqm0.s:26381  .debug_str:000000000000e29a .LASF629
C:\Users\SOLDER~1\AppData\Local\Temp\ccYCTqm0.s:30895  .debug_str:00000000000204d6 .LASF630
C:\Users\SOLDER~1\AppData\Local\Temp\ccYCTqm0.s:29857  .debug_str:000000000001c1e0 .LASF631
C:\Users\SOLDER~1\AppData\Local\Temp\ccYCTqm0.s:30883  .debug_str:0000000000020411 .LASF632
C:\Users\SOLDER~1\AppData\Local\Temp\ccYCTqm0.s:29319  .debug_str:0000000000019fec .LASF633
C:\Users\SOLDER~1\AppData\Local\Temp\ccYCTqm0.s:32941  .debug_str:00000000000289cf .LASF634
C:\Users\SOLDER~1\AppData\Local\Temp\ccYCTqm0.s:28063  .debug_str:0000000000014fa6 .LASF635
C:\Users\SOLDER~1\AppData\Local\Temp\ccYCTqm0.s:29823  .debug_str:000000000001bf9a .LASF636
C:\Users\SOLDER~1\AppData\Local\Temp\ccYCTqm0.s:23391  .debug_str:000000000000216d .LASF637
C:\Users\SOLDER~1\AppData\Local\Temp\ccYCTqm0.s:23345  .debug_str:0000000000001e91 .LASF638
C:\Users\SOLDER~1\AppData\Local\Temp\ccYCTqm0.s:33815  .debug_str:000000000002c1f9 .LASF639
C:\Users\SOLDER~1\AppData\Local\Temp\ccYCTqm0.s:27641  .debug_str:0000000000013301 .LASF640
C:\Users\SOLDER~1\AppData\Local\Temp\ccYCTqm0.s:28679  .debug_str:00000000000176a7 .LASF641
C:\Users\SOLDER~1\AppData\Local\Temp\ccYCTqm0.s:28585  .debug_str:0000000000017050 .LASF642
C:\Users\SOLDER~1\AppData\Local\Temp\ccYCTqm0.s:29959  .debug_str:000000000001c869 .LASF643
C:\Users\SOLDER~1\AppData\Local\Temp\ccYCTqm0.s:24493  .debug_str:0000000000006828 .LASF644
C:\Users\SOLDER~1\AppData\Local\Temp\ccYCTqm0.s:31937  .debug_str:0000000000024799 .LASF645
C:\Users\SOLDER~1\AppData\Local\Temp\ccYCTqm0.s:28639  .debug_str:00000000000173c0 .LASF646
C:\Users\SOLDER~1\AppData\Local\Temp\ccYCTqm0.s:26523  .debug_str:000000000000ec02 .LASF647
C:\Users\SOLDER~1\AppData\Local\Temp\ccYCTqm0.s:28057  .debug_str:0000000000014f2c .LASF648
C:\Users\SOLDER~1\AppData\Local\Temp\ccYCTqm0.s:26609  .debug_str:000000000000f155 .LASF649
C:\Users\SOLDER~1\AppData\Local\Temp\ccYCTqm0.s:33293  .debug_str:000000000002a022 .LASF650
C:\Users\SOLDER~1\AppData\Local\Temp\ccYCTqm0.s:29495  .debug_str:000000000001ab0e .LASF651
C:\Users\SOLDER~1\AppData\Local\Temp\ccYCTqm0.s:25089  .debug_str:0000000000008eb6 .LASF652
C:\Users\SOLDER~1\AppData\Local\Temp\ccYCTqm0.s:29087  .debug_str:0000000000019134 .LASF653
C:\Users\SOLDER~1\AppData\Local\Temp\ccYCTqm0.s:28381  .debug_str:00000000000163d5 .LASF654
C:\Users\SOLDER~1\AppData\Local\Temp\ccYCTqm0.s:34317  .debug_str:000000000002e255 .LASF655
C:\Users\SOLDER~1\AppData\Local\Temp\ccYCTqm0.s:29133  .debug_str:0000000000019438 .LASF656
C:\Users\SOLDER~1\AppData\Local\Temp\ccYCTqm0.s:33575  .debug_str:000000000002b288 .LASF657
GAS LISTING C:\Users\SOLDER~1\AppData\Local\Temp\ccYCTqm0.s 			page 116


C:\Users\SOLDER~1\AppData\Local\Temp\ccYCTqm0.s:32939  .debug_str:00000000000289ae .LASF658
C:\Users\SOLDER~1\AppData\Local\Temp\ccYCTqm0.s:31707  .debug_str:0000000000023909 .LASF659
C:\Users\SOLDER~1\AppData\Local\Temp\ccYCTqm0.s:31737  .debug_str:0000000000023b14 .LASF660
C:\Users\SOLDER~1\AppData\Local\Temp\ccYCTqm0.s:33969  .debug_str:000000000002cc01 .LASF661
C:\Users\SOLDER~1\AppData\Local\Temp\ccYCTqm0.s:26391  .debug_str:000000000000e348 .LASF662
C:\Users\SOLDER~1\AppData\Local\Temp\ccYCTqm0.s:25685  .debug_str:000000000000b585 .LASF663
C:\Users\SOLDER~1\AppData\Local\Temp\ccYCTqm0.s:33243  .debug_str:0000000000029cf6 .LASF664
C:\Users\SOLDER~1\AppData\Local\Temp\ccYCTqm0.s:30419  .debug_str:000000000001e5d2 .LASF665
C:\Users\SOLDER~1\AppData\Local\Temp\ccYCTqm0.s:30693  .debug_str:000000000001f7c9 .LASF666
C:\Users\SOLDER~1\AppData\Local\Temp\ccYCTqm0.s:30709  .debug_str:000000000001f8ed .LASF667
C:\Users\SOLDER~1\AppData\Local\Temp\ccYCTqm0.s:24551  .debug_str:0000000000006c51 .LASF668
C:\Users\SOLDER~1\AppData\Local\Temp\ccYCTqm0.s:31773  .debug_str:0000000000023d4c .LASF669
C:\Users\SOLDER~1\AppData\Local\Temp\ccYCTqm0.s:32809  .debug_str:000000000002813a .LASF670
C:\Users\SOLDER~1\AppData\Local\Temp\ccYCTqm0.s:34285  .debug_str:000000000002e041 .LASF671
C:\Users\SOLDER~1\AppData\Local\Temp\ccYCTqm0.s:33567  .debug_str:000000000002b20e .LASF672
C:\Users\SOLDER~1\AppData\Local\Temp\ccYCTqm0.s:29793  .debug_str:000000000001bd92 .LASF673
C:\Users\SOLDER~1\AppData\Local\Temp\ccYCTqm0.s:25887  .debug_str:000000000000c20c .LASF674
C:\Users\SOLDER~1\AppData\Local\Temp\ccYCTqm0.s:23807  .debug_str:0000000000003c2e .LASF675
C:\Users\SOLDER~1\AppData\Local\Temp\ccYCTqm0.s:27057  .debug_str:0000000000010df8 .LASF676
C:\Users\SOLDER~1\AppData\Local\Temp\ccYCTqm0.s:29499  .debug_str:000000000001ab57 .LASF677
C:\Users\SOLDER~1\AppData\Local\Temp\ccYCTqm0.s:32611  .debug_str:0000000000027427 .LASF678
C:\Users\SOLDER~1\AppData\Local\Temp\ccYCTqm0.s:22949  .debug_str:000000000000043e .LASF679
C:\Users\SOLDER~1\AppData\Local\Temp\ccYCTqm0.s:28801  .debug_str:0000000000017eae .LASF680
C:\Users\SOLDER~1\AppData\Local\Temp\ccYCTqm0.s:30341  .debug_str:000000000001e097 .LASF681
C:\Users\SOLDER~1\AppData\Local\Temp\ccYCTqm0.s:27591  .debug_str:0000000000012fc2 .LASF682
C:\Users\SOLDER~1\AppData\Local\Temp\ccYCTqm0.s:28519  .debug_str:0000000000016c3f .LASF683
C:\Users\SOLDER~1\AppData\Local\Temp\ccYCTqm0.s:25037  .debug_str:0000000000008b50 .LASF684
C:\Users\SOLDER~1\AppData\Local\Temp\ccYCTqm0.s:30111  .debug_str:000000000001d294 .LASF685
C:\Users\SOLDER~1\AppData\Local\Temp\ccYCTqm0.s:30651  .debug_str:000000000001f4e4 .LASF686
C:\Users\SOLDER~1\AppData\Local\Temp\ccYCTqm0.s:23309  .debug_str:0000000000001c08 .LASF687
C:\Users\SOLDER~1\AppData\Local\Temp\ccYCTqm0.s:30431  .debug_str:000000000001e684 .LASF688
C:\Users\SOLDER~1\AppData\Local\Temp\ccYCTqm0.s:33777  .debug_str:000000000002bf8f .LASF689
C:\Users\SOLDER~1\AppData\Local\Temp\ccYCTqm0.s:22915  .debug_str:000000000000020b .LASF690
C:\Users\SOLDER~1\AppData\Local\Temp\ccYCTqm0.s:30917  .debug_str:0000000000020631 .LASF691
C:\Users\SOLDER~1\AppData\Local\Temp\ccYCTqm0.s:30869  .debug_str:0000000000020334 .LASF692
C:\Users\SOLDER~1\AppData\Local\Temp\ccYCTqm0.s:25139  .debug_str:00000000000091fd .LASF693
C:\Users\SOLDER~1\AppData\Local\Temp\ccYCTqm0.s:30617  .debug_str:000000000001f298 .LASF694
C:\Users\SOLDER~1\AppData\Local\Temp\ccYCTqm0.s:25121  .debug_str:00000000000090d3 .LASF695
C:\Users\SOLDER~1\AppData\Local\Temp\ccYCTqm0.s:30121  .debug_str:000000000001d342 .LASF696
C:\Users\SOLDER~1\AppData\Local\Temp\ccYCTqm0.s:32797  .debug_str:000000000002804d .LASF697
C:\Users\SOLDER~1\AppData\Local\Temp\ccYCTqm0.s:33589  .debug_str:000000000002b351 .LASF698
C:\Users\SOLDER~1\AppData\Local\Temp\ccYCTqm0.s:26541  .debug_str:000000000000ed4c .LASF699
C:\Users\SOLDER~1\AppData\Local\Temp\ccYCTqm0.s:34287  .debug_str:000000000002e057 .LASF700
C:\Users\SOLDER~1\AppData\Local\Temp\ccYCTqm0.s:29351  .debug_str:000000000001a1e8 .LASF701
C:\Users\SOLDER~1\AppData\Local\Temp\ccYCTqm0.s:23737  .debug_str:00000000000037c2 .LASF702
C:\Users\SOLDER~1\AppData\Local\Temp\ccYCTqm0.s:31849  .debug_str:00000000000241f2 .LASF703
C:\Users\SOLDER~1\AppData\Local\Temp\ccYCTqm0.s:29827  .debug_str:000000000001bfc5 .LASF704
C:\Users\SOLDER~1\AppData\Local\Temp\ccYCTqm0.s:32557  .debug_str:00000000000270a3 .LASF705
C:\Users\SOLDER~1\AppData\Local\Temp\ccYCTqm0.s:28557  .debug_str:0000000000016ea4 .LASF706
C:\Users\SOLDER~1\AppData\Local\Temp\ccYCTqm0.s:25837  .debug_str:000000000000bf0f .LASF707
C:\Users\SOLDER~1\AppData\Local\Temp\ccYCTqm0.s:31445  .debug_str:000000000002278e .LASF708
C:\Users\SOLDER~1\AppData\Local\Temp\ccYCTqm0.s:30911  .debug_str:00000000000205c8 .LASF709
C:\Users\SOLDER~1\AppData\Local\Temp\ccYCTqm0.s:23759  .debug_str:00000000000038fc .LASF710
C:\Users\SOLDER~1\AppData\Local\Temp\ccYCTqm0.s:32335  .debug_str:00000000000261ca .LASF711
C:\Users\SOLDER~1\AppData\Local\Temp\ccYCTqm0.s:31633  .debug_str:000000000002340d .LASF712
C:\Users\SOLDER~1\AppData\Local\Temp\ccYCTqm0.s:24903  .debug_str:00000000000082b9 .LASF713
C:\Users\SOLDER~1\AppData\Local\Temp\ccYCTqm0.s:32689  .debug_str:0000000000027947 .LASF714
GAS LISTING C:\Users\SOLDER~1\AppData\Local\Temp\ccYCTqm0.s 			page 117


C:\Users\SOLDER~1\AppData\Local\Temp\ccYCTqm0.s:30633  .debug_str:000000000001f3a2 .LASF715
C:\Users\SOLDER~1\AppData\Local\Temp\ccYCTqm0.s:31787  .debug_str:0000000000023e01 .LASF716
C:\Users\SOLDER~1\AppData\Local\Temp\ccYCTqm0.s:27081  .debug_str:0000000000010f59 .LASF717
C:\Users\SOLDER~1\AppData\Local\Temp\ccYCTqm0.s:34327  .debug_str:000000000002e302 .LASF718
C:\Users\SOLDER~1\AppData\Local\Temp\ccYCTqm0.s:29529  .debug_str:000000000001ad73 .LASF719
C:\Users\SOLDER~1\AppData\Local\Temp\ccYCTqm0.s:27505  .debug_str:0000000000012a30 .LASF720
C:\Users\SOLDER~1\AppData\Local\Temp\ccYCTqm0.s:31191  .debug_str:00000000000217dc .LASF721
C:\Users\SOLDER~1\AppData\Local\Temp\ccYCTqm0.s:29321  .debug_str:000000000001a00e .LASF722
C:\Users\SOLDER~1\AppData\Local\Temp\ccYCTqm0.s:31233  .debug_str:0000000000021a84 .LASF723
C:\Users\SOLDER~1\AppData\Local\Temp\ccYCTqm0.s:28447  .debug_str:0000000000016809 .LASF724
C:\Users\SOLDER~1\AppData\Local\Temp\ccYCTqm0.s:27677  .debug_str:0000000000013544 .LASF725
C:\Users\SOLDER~1\AppData\Local\Temp\ccYCTqm0.s:33461  .debug_str:000000000002ab79 .LASF726
C:\Users\SOLDER~1\AppData\Local\Temp\ccYCTqm0.s:27859  .debug_str:00000000000141df .LASF727
C:\Users\SOLDER~1\AppData\Local\Temp\ccYCTqm0.s:23055  .debug_str:0000000000000c1d .LASF728
C:\Users\SOLDER~1\AppData\Local\Temp\ccYCTqm0.s:26289  .debug_str:000000000000dcbe .LASF729
C:\Users\SOLDER~1\AppData\Local\Temp\ccYCTqm0.s:29163  .debug_str:00000000000195f1 .LASF730
C:\Users\SOLDER~1\AppData\Local\Temp\ccYCTqm0.s:29775  .debug_str:000000000001bc78 .LASF731
C:\Users\SOLDER~1\AppData\Local\Temp\ccYCTqm0.s:24723  .debug_str:0000000000007758 .LASF732
C:\Users\SOLDER~1\AppData\Local\Temp\ccYCTqm0.s:25347  .debug_str:0000000000009f8f .LASF733
C:\Users\SOLDER~1\AppData\Local\Temp\ccYCTqm0.s:31429  .debug_str:000000000002267c .LASF734
C:\Users\SOLDER~1\AppData\Local\Temp\ccYCTqm0.s:31361  .debug_str:000000000002229c .LASF735
C:\Users\SOLDER~1\AppData\Local\Temp\ccYCTqm0.s:28999  .debug_str:0000000000018b81 .LASF736
C:\Users\SOLDER~1\AppData\Local\Temp\ccYCTqm0.s:25831  .debug_str:000000000000be9a .LASF737
C:\Users\SOLDER~1\AppData\Local\Temp\ccYCTqm0.s:34463  .debug_str:000000000002eb87 .LASF738
C:\Users\SOLDER~1\AppData\Local\Temp\ccYCTqm0.s:26067  .debug_str:000000000000ce1d .LASF739
C:\Users\SOLDER~1\AppData\Local\Temp\ccYCTqm0.s:23417  .debug_str:0000000000002344 .LASF740
C:\Users\SOLDER~1\AppData\Local\Temp\ccYCTqm0.s:28177  .debug_str:00000000000156f2 .LASF741
C:\Users\SOLDER~1\AppData\Local\Temp\ccYCTqm0.s:25819  .debug_str:000000000000bdbe .LASF742
C:\Users\SOLDER~1\AppData\Local\Temp\ccYCTqm0.s:32721  .debug_str:0000000000027b63 .LASF743
C:\Users\SOLDER~1\AppData\Local\Temp\ccYCTqm0.s:29339  .debug_str:000000000001a13f .LASF744
C:\Users\SOLDER~1\AppData\Local\Temp\ccYCTqm0.s:27447  .debug_str:0000000000012680 .LASF745
C:\Users\SOLDER~1\AppData\Local\Temp\ccYCTqm0.s:30789  .debug_str:000000000001fe43 .LASF746
C:\Users\SOLDER~1\AppData\Local\Temp\ccYCTqm0.s:31355  .debug_str:0000000000022236 .LASF747
C:\Users\SOLDER~1\AppData\Local\Temp\ccYCTqm0.s:32301  .debug_str:0000000000025f65 .LASF748
C:\Users\SOLDER~1\AppData\Local\Temp\ccYCTqm0.s:31725  .debug_str:0000000000023a42 .LASF749
C:\Users\SOLDER~1\AppData\Local\Temp\ccYCTqm0.s:24619  .debug_str:0000000000007046 .LASF750
C:\Users\SOLDER~1\AppData\Local\Temp\ccYCTqm0.s:26303  .debug_str:000000000000dda2 .LASF751
C:\Users\SOLDER~1\AppData\Local\Temp\ccYCTqm0.s:25515  .debug_str:000000000000aafb .LASF752
C:\Users\SOLDER~1\AppData\Local\Temp\ccYCTqm0.s:25735  .debug_str:000000000000b8ca .LASF753
C:\Users\SOLDER~1\AppData\Local\Temp\ccYCTqm0.s:33551  .debug_str:000000000002b100 .LASF754
C:\Users\SOLDER~1\AppData\Local\Temp\ccYCTqm0.s:31441  .debug_str:0000000000022753 .LASF755
C:\Users\SOLDER~1\AppData\Local\Temp\ccYCTqm0.s:23569  .debug_str:0000000000002cd6 .LASF756
C:\Users\SOLDER~1\AppData\Local\Temp\ccYCTqm0.s:32751  .debug_str:0000000000027d4e .LASF757
C:\Users\SOLDER~1\AppData\Local\Temp\ccYCTqm0.s:23449  .debug_str:0000000000002571 .LASF758
C:\Users\SOLDER~1\AppData\Local\Temp\ccYCTqm0.s:30367  .debug_str:000000000001e274 .LASF759
C:\Users\SOLDER~1\AppData\Local\Temp\ccYCTqm0.s:28383  .debug_str:00000000000163fa .LASF760
C:\Users\SOLDER~1\AppData\Local\Temp\ccYCTqm0.s:22951  .debug_str:0000000000000460 .LASF761
C:\Users\SOLDER~1\AppData\Local\Temp\ccYCTqm0.s:23141  .debug_str:000000000000117a .LASF762
C:\Users\SOLDER~1\AppData\Local\Temp\ccYCTqm0.s:31825  .debug_str:0000000000024091 .LASF763
C:\Users\SOLDER~1\AppData\Local\Temp\ccYCTqm0.s:32137  .debug_str:00000000000254bd .LASF764
C:\Users\SOLDER~1\AppData\Local\Temp\ccYCTqm0.s:24375  .debug_str:0000000000006032 .LASF765
C:\Users\SOLDER~1\AppData\Local\Temp\ccYCTqm0.s:25205  .debug_str:0000000000009689 .LASF766
C:\Users\SOLDER~1\AppData\Local\Temp\ccYCTqm0.s:33297  .debug_str:000000000002a063 .LASF767
C:\Users\SOLDER~1\AppData\Local\Temp\ccYCTqm0.s:23087  .debug_str:0000000000000e29 .LASF768
C:\Users\SOLDER~1\AppData\Local\Temp\ccYCTqm0.s:27963  .debug_str:00000000000148d7 .LASF769
C:\Users\SOLDER~1\AppData\Local\Temp\ccYCTqm0.s:29983  .debug_str:000000000001c9d5 .LASF770
C:\Users\SOLDER~1\AppData\Local\Temp\ccYCTqm0.s:24675  .debug_str:000000000000744c .LASF771
GAS LISTING C:\Users\SOLDER~1\AppData\Local\Temp\ccYCTqm0.s 			page 118


C:\Users\SOLDER~1\AppData\Local\Temp\ccYCTqm0.s:24349  .debug_str:0000000000005e77 .LASF772
C:\Users\SOLDER~1\AppData\Local\Temp\ccYCTqm0.s:25941  .debug_str:000000000000c5b6 .LASF773
C:\Users\SOLDER~1\AppData\Local\Temp\ccYCTqm0.s:23467  .debug_str:000000000000267c .LASF774
C:\Users\SOLDER~1\AppData\Local\Temp\ccYCTqm0.s:24139  .debug_str:00000000000050f4 .LASF775
C:\Users\SOLDER~1\AppData\Local\Temp\ccYCTqm0.s:24121  .debug_str:0000000000004ff6 .LASF776
C:\Users\SOLDER~1\AppData\Local\Temp\ccYCTqm0.s:24397  .debug_str:0000000000006193 .LASF777
C:\Users\SOLDER~1\AppData\Local\Temp\ccYCTqm0.s:33451  .debug_str:000000000002aad9 .LASF778
C:\Users\SOLDER~1\AppData\Local\Temp\ccYCTqm0.s:30221  .debug_str:000000000001d96f .LASF779
C:\Users\SOLDER~1\AppData\Local\Temp\ccYCTqm0.s:29331  .debug_str:000000000001a0b9 .LASF780
C:\Users\SOLDER~1\AppData\Local\Temp\ccYCTqm0.s:31201  .debug_str:0000000000021876 .LASF781
C:\Users\SOLDER~1\AppData\Local\Temp\ccYCTqm0.s:24995  .debug_str:00000000000088ac .LASF782
C:\Users\SOLDER~1\AppData\Local\Temp\ccYCTqm0.s:34603  .debug_str:000000000002f4ab .LASF783
C:\Users\SOLDER~1\AppData\Local\Temp\ccYCTqm0.s:23305  .debug_str:0000000000001bc4 .LASF784
C:\Users\SOLDER~1\AppData\Local\Temp\ccYCTqm0.s:26249  .debug_str:000000000000da18 .LASF785
C:\Users\SOLDER~1\AppData\Local\Temp\ccYCTqm0.s:24671  .debug_str:000000000000740d .LASF786
C:\Users\SOLDER~1\AppData\Local\Temp\ccYCTqm0.s:29631  .debug_str:000000000001b402 .LASF787
C:\Users\SOLDER~1\AppData\Local\Temp\ccYCTqm0.s:31629  .debug_str:00000000000233cc .LASF788
C:\Users\SOLDER~1\AppData\Local\Temp\ccYCTqm0.s:28803  .debug_str:0000000000017ed2 .LASF789
C:\Users\SOLDER~1\AppData\Local\Temp\ccYCTqm0.s:34259  .debug_str:000000000002deaa .LASF790
C:\Users\SOLDER~1\AppData\Local\Temp\ccYCTqm0.s:29139  .debug_str:0000000000019498 .LASF791
C:\Users\SOLDER~1\AppData\Local\Temp\ccYCTqm0.s:34555  .debug_str:000000000002f1ac .LASF792
C:\Users\SOLDER~1\AppData\Local\Temp\ccYCTqm0.s:27253  .debug_str:0000000000011a69 .LASF793
C:\Users\SOLDER~1\AppData\Local\Temp\ccYCTqm0.s:32375  .debug_str:0000000000026496 .LASF794
C:\Users\SOLDER~1\AppData\Local\Temp\ccYCTqm0.s:32813  .debug_str:0000000000028184 .LASF795
C:\Users\SOLDER~1\AppData\Local\Temp\ccYCTqm0.s:25915  .debug_str:000000000000c3f2 .LASF796
C:\Users\SOLDER~1\AppData\Local\Temp\ccYCTqm0.s:32843  .debug_str:000000000002837c .LASF797
C:\Users\SOLDER~1\AppData\Local\Temp\ccYCTqm0.s:28163  .debug_str:000000000001560e .LASF798
C:\Users\SOLDER~1\AppData\Local\Temp\ccYCTqm0.s:28127  .debug_str:0000000000015386 .LASF799
C:\Users\SOLDER~1\AppData\Local\Temp\ccYCTqm0.s:27569  .debug_str:0000000000012e2a .LASF800
C:\Users\SOLDER~1\AppData\Local\Temp\ccYCTqm0.s:25979  .debug_str:000000000000c846 .LASF801
C:\Users\SOLDER~1\AppData\Local\Temp\ccYCTqm0.s:30689  .debug_str:000000000001f785 .LASF802
C:\Users\SOLDER~1\AppData\Local\Temp\ccYCTqm0.s:34553  .debug_str:000000000002f18a .LASF803
C:\Users\SOLDER~1\AppData\Local\Temp\ccYCTqm0.s:34293  .debug_str:000000000002e0ad .LASF804
C:\Users\SOLDER~1\AppData\Local\Temp\ccYCTqm0.s:32489  .debug_str:0000000000026c33 .LASF805
C:\Users\SOLDER~1\AppData\Local\Temp\ccYCTqm0.s:23519  .debug_str:00000000000029d8 .LASF806
C:\Users\SOLDER~1\AppData\Local\Temp\ccYCTqm0.s:32551  .debug_str:0000000000027063 .LASF807
C:\Users\SOLDER~1\AppData\Local\Temp\ccYCTqm0.s:32773  .debug_str:0000000000027e9c .LASF808
C:\Users\SOLDER~1\AppData\Local\Temp\ccYCTqm0.s:24547  .debug_str:0000000000006c0f .LASF809
C:\Users\SOLDER~1\AppData\Local\Temp\ccYCTqm0.s:29393  .debug_str:000000000001a488 .LASF810
C:\Users\SOLDER~1\AppData\Local\Temp\ccYCTqm0.s:28435  .debug_str:000000000001675f .LASF811
C:\Users\SOLDER~1\AppData\Local\Temp\ccYCTqm0.s:24517  .debug_str:00000000000069c3 .LASF812
C:\Users\SOLDER~1\AppData\Local\Temp\ccYCTqm0.s:34145  .debug_str:000000000002d775 .LASF813
C:\Users\SOLDER~1\AppData\Local\Temp\ccYCTqm0.s:33161  .debug_str:00000000000297d5 .LASF814
C:\Users\SOLDER~1\AppData\Local\Temp\ccYCTqm0.s:31351  .debug_str:00000000000221fd .LASF815
C:\Users\SOLDER~1\AppData\Local\Temp\ccYCTqm0.s:33811  .debug_str:000000000002c1b2 .LASF816
C:\Users\SOLDER~1\AppData\Local\Temp\ccYCTqm0.s:32673  .debug_str:0000000000027846 .LASF817
C:\Users\SOLDER~1\AppData\Local\Temp\ccYCTqm0.s:30699  .debug_str:000000000001f838 .LASF818
C:\Users\SOLDER~1\AppData\Local\Temp\ccYCTqm0.s:32519  .debug_str:0000000000026e37 .LASF819
C:\Users\SOLDER~1\AppData\Local\Temp\ccYCTqm0.s:29459  .debug_str:000000000001a8e0 .LASF820
C:\Users\SOLDER~1\AppData\Local\Temp\ccYCTqm0.s:26117  .debug_str:000000000000d193 .LASF821
C:\Users\SOLDER~1\AppData\Local\Temp\ccYCTqm0.s:31503  .debug_str:0000000000022b7b .LASF822
C:\Users\SOLDER~1\AppData\Local\Temp\ccYCTqm0.s:25285  .debug_str:0000000000009bac .LASF823
C:\Users\SOLDER~1\AppData\Local\Temp\ccYCTqm0.s:30303  .debug_str:000000000001de39 .LASF824
C:\Users\SOLDER~1\AppData\Local\Temp\ccYCTqm0.s:26597  .debug_str:000000000000f076 .LASF825
C:\Users\SOLDER~1\AppData\Local\Temp\ccYCTqm0.s:30061  .debug_str:000000000001cf33 .LASF826
C:\Users\SOLDER~1\AppData\Local\Temp\ccYCTqm0.s:32719  .debug_str:0000000000027b52 .LASF827
C:\Users\SOLDER~1\AppData\Local\Temp\ccYCTqm0.s:28871  .debug_str:0000000000018365 .LASF828
GAS LISTING C:\Users\SOLDER~1\AppData\Local\Temp\ccYCTqm0.s 			page 119


C:\Users\SOLDER~1\AppData\Local\Temp\ccYCTqm0.s:26147  .debug_str:000000000000d369 .LASF829
C:\Users\SOLDER~1\AppData\Local\Temp\ccYCTqm0.s:32223  .debug_str:0000000000025a15 .LASF830
C:\Users\SOLDER~1\AppData\Local\Temp\ccYCTqm0.s:26785  .debug_str:000000000000fc94 .LASF831
C:\Users\SOLDER~1\AppData\Local\Temp\ccYCTqm0.s:33153  .debug_str:0000000000029737 .LASF832
C:\Users\SOLDER~1\AppData\Local\Temp\ccYCTqm0.s:25201  .debug_str:0000000000009643 .LASF833
C:\Users\SOLDER~1\AppData\Local\Temp\ccYCTqm0.s:33043  .debug_str:000000000002904c .LASF834
C:\Users\SOLDER~1\AppData\Local\Temp\ccYCTqm0.s:34019  .debug_str:000000000002cefd .LASF835
C:\Users\SOLDER~1\AppData\Local\Temp\ccYCTqm0.s:23873  .debug_str:0000000000004063 .LASF836
C:\Users\SOLDER~1\AppData\Local\Temp\ccYCTqm0.s:31015  .debug_str:0000000000020c6c .LASF837
C:\Users\SOLDER~1\AppData\Local\Temp\ccYCTqm0.s:27603  .debug_str:000000000001309c .LASF838
C:\Users\SOLDER~1\AppData\Local\Temp\ccYCTqm0.s:25821  .debug_str:000000000000bdde .LASF839
C:\Users\SOLDER~1\AppData\Local\Temp\ccYCTqm0.s:24245  .debug_str:000000000000576a .LASF840
C:\Users\SOLDER~1\AppData\Local\Temp\ccYCTqm0.s:27197  .debug_str:000000000001169b .LASF841
C:\Users\SOLDER~1\AppData\Local\Temp\ccYCTqm0.s:27179  .debug_str:0000000000011563 .LASF842
C:\Users\SOLDER~1\AppData\Local\Temp\ccYCTqm0.s:29833  .debug_str:000000000001c026 .LASF843
C:\Users\SOLDER~1\AppData\Local\Temp\ccYCTqm0.s:34387  .debug_str:000000000002e6bc .LASF844
C:\Users\SOLDER~1\AppData\Local\Temp\ccYCTqm0.s:33401  .debug_str:000000000002a79e .LASF845
C:\Users\SOLDER~1\AppData\Local\Temp\ccYCTqm0.s:29463  .debug_str:000000000001a910 .LASF846
C:\Users\SOLDER~1\AppData\Local\Temp\ccYCTqm0.s:27367  .debug_str:0000000000012187 .LASF847
C:\Users\SOLDER~1\AppData\Local\Temp\ccYCTqm0.s:23267  .debug_str:000000000000193e .LASF848
C:\Users\SOLDER~1\AppData\Local\Temp\ccYCTqm0.s:30483  .debug_str:000000000001e9d3 .LASF849
C:\Users\SOLDER~1\AppData\Local\Temp\ccYCTqm0.s:33483  .debug_str:000000000002ac91 .LASF850
C:\Users\SOLDER~1\AppData\Local\Temp\ccYCTqm0.s:24217  .debug_str:00000000000055ce .LASF851
C:\Users\SOLDER~1\AppData\Local\Temp\ccYCTqm0.s:26691  .debug_str:000000000000f681 .LASF852
C:\Users\SOLDER~1\AppData\Local\Temp\ccYCTqm0.s:28379  .debug_str:00000000000163b3 .LASF853
C:\Users\SOLDER~1\AppData\Local\Temp\ccYCTqm0.s:25499  .debug_str:000000000000a9de .LASF854
C:\Users\SOLDER~1\AppData\Local\Temp\ccYCTqm0.s:26577  .debug_str:000000000000ef4c .LASF855
C:\Users\SOLDER~1\AppData\Local\Temp\ccYCTqm0.s:30589  .debug_str:000000000001f0c4 .LASF856
C:\Users\SOLDER~1\AppData\Local\Temp\ccYCTqm0.s:26611  .debug_str:000000000000f16b .LASF857
C:\Users\SOLDER~1\AppData\Local\Temp\ccYCTqm0.s:31481  .debug_str:0000000000022a17 .LASF858
C:\Users\SOLDER~1\AppData\Local\Temp\ccYCTqm0.s:23839  .debug_str:0000000000003e42 .LASF859
C:\Users\SOLDER~1\AppData\Local\Temp\ccYCTqm0.s:25883  .debug_str:000000000000c1c5 .LASF860
C:\Users\SOLDER~1\AppData\Local\Temp\ccYCTqm0.s:23551  .debug_str:0000000000002bd8 .LASF861
C:\Users\SOLDER~1\AppData\Local\Temp\ccYCTqm0.s:24417  .debug_str:0000000000006304 .LASF862
C:\Users\SOLDER~1\AppData\Local\Temp\ccYCTqm0.s:29537  .debug_str:000000000001ade7 .LASF863
C:\Users\SOLDER~1\AppData\Local\Temp\ccYCTqm0.s:30767  .debug_str:000000000001fcd5 .LASF864
C:\Users\SOLDER~1\AppData\Local\Temp\ccYCTqm0.s:31399  .debug_str:00000000000224df .LASF865
C:\Users\SOLDER~1\AppData\Local\Temp\ccYCTqm0.s:26987  .debug_str:0000000000010991 .LASF866
C:\Users\SOLDER~1\AppData\Local\Temp\ccYCTqm0.s:23715  .debug_str:000000000000366f .LASF867
C:\Users\SOLDER~1\AppData\Local\Temp\ccYCTqm0.s:34429  .debug_str:000000000002e943 .LASF868
C:\Users\SOLDER~1\AppData\Local\Temp\ccYCTqm0.s:24149  .debug_str:00000000000051a9 .LASF869
C:\Users\SOLDER~1\AppData\Local\Temp\ccYCTqm0.s:27855  .debug_str:0000000000014193 .LASF870
C:\Users\SOLDER~1\AppData\Local\Temp\ccYCTqm0.s:33923  .debug_str:000000000002c922 .LASF871
C:\Users\SOLDER~1\AppData\Local\Temp\ccYCTqm0.s:28357  .debug_str:0000000000016246 .LASF872
C:\Users\SOLDER~1\AppData\Local\Temp\ccYCTqm0.s:34547  .debug_str:000000000002f133 .LASF873
C:\Users\SOLDER~1\AppData\Local\Temp\ccYCTqm0.s:29905  .debug_str:000000000001c4ec .LASF874
C:\Users\SOLDER~1\AppData\Local\Temp\ccYCTqm0.s:29145  .debug_str:00000000000194dc .LASF875
C:\Users\SOLDER~1\AppData\Local\Temp\ccYCTqm0.s:24477  .debug_str:000000000000671d .LASF876
C:\Users\SOLDER~1\AppData\Local\Temp\ccYCTqm0.s:33101  .debug_str:00000000000293b8 .LASF877
C:\Users\SOLDER~1\AppData\Local\Temp\ccYCTqm0.s:31631  .debug_str:00000000000233ec .LASF878
C:\Users\SOLDER~1\AppData\Local\Temp\ccYCTqm0.s:27141  .debug_str:00000000000112fa .LASF879
C:\Users\SOLDER~1\AppData\Local\Temp\ccYCTqm0.s:23599  .debug_str:0000000000002ed0 .LASF880
C:\Users\SOLDER~1\AppData\Local\Temp\ccYCTqm0.s:33597  .debug_str:000000000002b3de .LASF881
C:\Users\SOLDER~1\AppData\Local\Temp\ccYCTqm0.s:24623  .debug_str:00000000000070ac .LASF882
C:\Users\SOLDER~1\AppData\Local\Temp\ccYCTqm0.s:24187  .debug_str:000000000000540b .LASF883
C:\Users\SOLDER~1\AppData\Local\Temp\ccYCTqm0.s:28247  .debug_str:0000000000015b3d .LASF884
C:\Users\SOLDER~1\AppData\Local\Temp\ccYCTqm0.s:25893  .debug_str:000000000000c27a .LASF885
GAS LISTING C:\Users\SOLDER~1\AppData\Local\Temp\ccYCTqm0.s 			page 120


C:\Users\SOLDER~1\AppData\Local\Temp\ccYCTqm0.s:30361  .debug_str:000000000001e206 .LASF886
C:\Users\SOLDER~1\AppData\Local\Temp\ccYCTqm0.s:29431  .debug_str:000000000001a6e8 .LASF887
C:\Users\SOLDER~1\AppData\Local\Temp\ccYCTqm0.s:25509  .debug_str:000000000000aa97 .LASF888
C:\Users\SOLDER~1\AppData\Local\Temp\ccYCTqm0.s:27079  .debug_str:0000000000010f38 .LASF889
C:\Users\SOLDER~1\AppData\Local\Temp\ccYCTqm0.s:33257  .debug_str:0000000000029dc7 .LASF890
C:\Users\SOLDER~1\AppData\Local\Temp\ccYCTqm0.s:22963  .debug_str:000000000000051b .LASF891
C:\Users\SOLDER~1\AppData\Local\Temp\ccYCTqm0.s:33775  .debug_str:000000000002bf6e .LASF892
C:\Users\SOLDER~1\AppData\Local\Temp\ccYCTqm0.s:33687  .debug_str:000000000002b9ca .LASF893
C:\Users\SOLDER~1\AppData\Local\Temp\ccYCTqm0.s:31645  .debug_str:00000000000234e6 .LASF894
C:\Users\SOLDER~1\AppData\Local\Temp\ccYCTqm0.s:33273  .debug_str:0000000000029ed6 .LASF895
C:\Users\SOLDER~1\AppData\Local\Temp\ccYCTqm0.s:30519  .debug_str:000000000001ec5b .LASF896
C:\Users\SOLDER~1\AppData\Local\Temp\ccYCTqm0.s:32845  .debug_str:000000000002839e .LASF897
C:\Users\SOLDER~1\AppData\Local\Temp\ccYCTqm0.s:24543  .debug_str:0000000000006bc7 .LASF898
C:\Users\SOLDER~1\AppData\Local\Temp\ccYCTqm0.s:22979  .debug_str:0000000000000635 .LASF899
C:\Users\SOLDER~1\AppData\Local\Temp\ccYCTqm0.s:24473  .debug_str:00000000000066d7 .LASF900
C:\Users\SOLDER~1\AppData\Local\Temp\ccYCTqm0.s:28899  .debug_str:000000000001855a .LASF901
C:\Users\SOLDER~1\AppData\Local\Temp\ccYCTqm0.s:30811  .debug_str:000000000001ffa9 .LASF902
C:\Users\SOLDER~1\AppData\Local\Temp\ccYCTqm0.s:24699  .debug_str:00000000000075d6 .LASF903
C:\Users\SOLDER~1\AppData\Local\Temp\ccYCTqm0.s:23725  .debug_str:0000000000003706 .LASF904
C:\Users\SOLDER~1\AppData\Local\Temp\ccYCTqm0.s:25845  .debug_str:000000000000bf8b .LASF905
C:\Users\SOLDER~1\AppData\Local\Temp\ccYCTqm0.s:23961  .debug_str:00000000000045ce .LASF906
C:\Users\SOLDER~1\AppData\Local\Temp\ccYCTqm0.s:24753  .debug_str:000000000000792d .LASF907
C:\Users\SOLDER~1\AppData\Local\Temp\ccYCTqm0.s:31827  .debug_str:00000000000240b3 .LASF908
C:\Users\SOLDER~1\AppData\Local\Temp\ccYCTqm0.s:28685  .debug_str:0000000000017709 .LASF909
C:\Users\SOLDER~1\AppData\Local\Temp\ccYCTqm0.s:27745  .debug_str:00000000000139da .LASF910
C:\Users\SOLDER~1\AppData\Local\Temp\ccYCTqm0.s:30393  .debug_str:000000000001e421 .LASF911
C:\Users\SOLDER~1\AppData\Local\Temp\ccYCTqm0.s:24229  .debug_str:0000000000005683 .LASF912
C:\Users\SOLDER~1\AppData\Local\Temp\ccYCTqm0.s:33453  .debug_str:000000000002aafb .LASF913
C:\Users\SOLDER~1\AppData\Local\Temp\ccYCTqm0.s:23509  .debug_str:0000000000002901 .LASF914
C:\Users\SOLDER~1\AppData\Local\Temp\ccYCTqm0.s:34075  .debug_str:000000000002d2a6 .LASF915
C:\Users\SOLDER~1\AppData\Local\Temp\ccYCTqm0.s:28819  .debug_str:0000000000017fca .LASF916
C:\Users\SOLDER~1\AppData\Local\Temp\ccYCTqm0.s:24027  .debug_str:0000000000004a22 .LASF917
C:\Users\SOLDER~1\AppData\Local\Temp\ccYCTqm0.s:30723  .debug_str:000000000001fa02 .LASF918
C:\Users\SOLDER~1\AppData\Local\Temp\ccYCTqm0.s:29547  .debug_str:000000000001ae67 .LASF919
C:\Users\SOLDER~1\AppData\Local\Temp\ccYCTqm0.s:31273  .debug_str:0000000000021cfc .LASF920
C:\Users\SOLDER~1\AppData\Local\Temp\ccYCTqm0.s:26761  .debug_str:000000000000fb22 .LASF921
C:\Users\SOLDER~1\AppData\Local\Temp\ccYCTqm0.s:23291  .debug_str:0000000000001ad6 .LASF922
C:\Users\SOLDER~1\AppData\Local\Temp\ccYCTqm0.s:33129  .debug_str:00000000000295af .LASF923
C:\Users\SOLDER~1\AppData\Local\Temp\ccYCTqm0.s:33439  .debug_str:000000000002aa08 .LASF924
C:\Users\SOLDER~1\AppData\Local\Temp\ccYCTqm0.s:24103  .debug_str:0000000000004ee1 .LASF925
C:\Users\SOLDER~1\AppData\Local\Temp\ccYCTqm0.s:24541  .debug_str:0000000000006ba7 .LASF926
C:\Users\SOLDER~1\AppData\Local\Temp\ccYCTqm0.s:25423  .debug_str:000000000000a4bd .LASF927
C:\Users\SOLDER~1\AppData\Local\Temp\ccYCTqm0.s:29987  .debug_str:000000000001ca31 .LASF928
C:\Users\SOLDER~1\AppData\Local\Temp\ccYCTqm0.s:29065  .debug_str:0000000000018fc8 .LASF929
C:\Users\SOLDER~1\AppData\Local\Temp\ccYCTqm0.s:30505  .debug_str:000000000001eb5c .LASF930
C:\Users\SOLDER~1\AppData\Local\Temp\ccYCTqm0.s:23225  .debug_str:00000000000016ac .LASF931
C:\Users\SOLDER~1\AppData\Local\Temp\ccYCTqm0.s:24617  .debug_str:0000000000007033 .LASF932
C:\Users\SOLDER~1\AppData\Local\Temp\ccYCTqm0.s:23137  .debug_str:000000000000111c .LASF933
C:\Users\SOLDER~1\AppData\Local\Temp\ccYCTqm0.s:26427  .debug_str:000000000000e5ff .LASF934
C:\Users\SOLDER~1\AppData\Local\Temp\ccYCTqm0.s:33319  .debug_str:000000000002a203 .LASF935
C:\Users\SOLDER~1\AppData\Local\Temp\ccYCTqm0.s:31287  .debug_str:0000000000021de2 .LASF936
C:\Users\SOLDER~1\AppData\Local\Temp\ccYCTqm0.s:32879  .debug_str:00000000000285e8 .LASF937
C:\Users\SOLDER~1\AppData\Local\Temp\ccYCTqm0.s:30147  .debug_str:000000000001d481 .LASF938
C:\Users\SOLDER~1\AppData\Local\Temp\ccYCTqm0.s:33163  .debug_str:00000000000297e8 .LASF939
C:\Users\SOLDER~1\AppData\Local\Temp\ccYCTqm0.s:25241  .debug_str:00000000000098fc .LASF940
C:\Users\SOLDER~1\AppData\Local\Temp\ccYCTqm0.s:33303  .debug_str:000000000002a0e0 .LASF941
C:\Users\SOLDER~1\AppData\Local\Temp\ccYCTqm0.s:26637  .debug_str:000000000000f322 .LASF942
GAS LISTING C:\Users\SOLDER~1\AppData\Local\Temp\ccYCTqm0.s 			page 121


C:\Users\SOLDER~1\AppData\Local\Temp\ccYCTqm0.s:32205  .debug_str:00000000000258ec .LASF943
C:\Users\SOLDER~1\AppData\Local\Temp\ccYCTqm0.s:23743  .debug_str:00000000000037fe .LASF944
C:\Users\SOLDER~1\AppData\Local\Temp\ccYCTqm0.s:26473  .debug_str:000000000000e909 .LASF945
C:\Users\SOLDER~1\AppData\Local\Temp\ccYCTqm0.s:27929  .debug_str:0000000000014685 .LASF946
C:\Users\SOLDER~1\AppData\Local\Temp\ccYCTqm0.s:32283  .debug_str:0000000000025e4f .LASF947
C:\Users\SOLDER~1\AppData\Local\Temp\ccYCTqm0.s:29729  .debug_str:000000000001b9a1 .LASF948
C:\Users\SOLDER~1\AppData\Local\Temp\ccYCTqm0.s:25319  .debug_str:0000000000009dda .LASF949
C:\Users\SOLDER~1\AppData\Local\Temp\ccYCTqm0.s:26443  .debug_str:000000000000e71a .LASF950
C:\Users\SOLDER~1\AppData\Local\Temp\ccYCTqm0.s:26807  .debug_str:000000000000fe21 .LASF951
C:\Users\SOLDER~1\AppData\Local\Temp\ccYCTqm0.s:34159  .debug_str:000000000002d86c .LASF952
C:\Users\SOLDER~1\AppData\Local\Temp\ccYCTqm0.s:26297  .debug_str:000000000000dd3e .LASF953
C:\Users\SOLDER~1\AppData\Local\Temp\ccYCTqm0.s:28721  .debug_str:0000000000017973 .LASF954
C:\Users\SOLDER~1\AppData\Local\Temp\ccYCTqm0.s:29257  .debug_str:0000000000019c14 .LASF955
C:\Users\SOLDER~1\AppData\Local\Temp\ccYCTqm0.s:29095  .debug_str:00000000000191cc .LASF956
C:\Users\SOLDER~1\AppData\Local\Temp\ccYCTqm0.s:28571  .debug_str:0000000000016f71 .LASF957
C:\Users\SOLDER~1\AppData\Local\Temp\ccYCTqm0.s:26661  .debug_str:000000000000f496 .LASF958
C:\Users\SOLDER~1\AppData\Local\Temp\ccYCTqm0.s:24067  .debug_str:0000000000004c90 .LASF959
C:\Users\SOLDER~1\AppData\Local\Temp\ccYCTqm0.s:24305  .debug_str:0000000000005b99 .LASF960
C:\Users\SOLDER~1\AppData\Local\Temp\ccYCTqm0.s:31227  .debug_str:0000000000021a35 .LASF961
C:\Users\SOLDER~1\AppData\Local\Temp\ccYCTqm0.s:33601  .debug_str:000000000002b428 .LASF962
C:\Users\SOLDER~1\AppData\Local\Temp\ccYCTqm0.s:26737  .debug_str:000000000000f98a .LASF963
C:\Users\SOLDER~1\AppData\Local\Temp\ccYCTqm0.s:31169  .debug_str:0000000000021690 .LASF964
C:\Users\SOLDER~1\AppData\Local\Temp\ccYCTqm0.s:33887  .debug_str:000000000002c719 .LASF965
C:\Users\SOLDER~1\AppData\Local\Temp\ccYCTqm0.s:28821  .debug_str:0000000000017fec .LASF966
C:\Users\SOLDER~1\AppData\Local\Temp\ccYCTqm0.s:28615  .debug_str:0000000000017225 .LASF967
C:\Users\SOLDER~1\AppData\Local\Temp\ccYCTqm0.s:26363  .debug_str:000000000000e16c .LASF968
C:\Users\SOLDER~1\AppData\Local\Temp\ccYCTqm0.s:24915  .debug_str:0000000000008379 .LASF969
C:\Users\SOLDER~1\AppData\Local\Temp\ccYCTqm0.s:23917  .debug_str:0000000000004340 .LASF970
C:\Users\SOLDER~1\AppData\Local\Temp\ccYCTqm0.s:32025  .debug_str:0000000000024d76 .LASF971
C:\Users\SOLDER~1\AppData\Local\Temp\ccYCTqm0.s:33229  .debug_str:0000000000029c21 .LASF972
C:\Users\SOLDER~1\AppData\Local\Temp\ccYCTqm0.s:26137  .debug_str:000000000000d2ce .LASF973
C:\Users\SOLDER~1\AppData\Local\Temp\ccYCTqm0.s:27217  .debug_str:0000000000011801 .LASF974
C:\Users\SOLDER~1\AppData\Local\Temp\ccYCTqm0.s:26771  .debug_str:000000000000fb9f .LASF975
C:\Users\SOLDER~1\AppData\Local\Temp\ccYCTqm0.s:27637  .debug_str:00000000000132c2 .LASF976
C:\Users\SOLDER~1\AppData\Local\Temp\ccYCTqm0.s:34011  .debug_str:000000000002ce82 .LASF977
C:\Users\SOLDER~1\AppData\Local\Temp\ccYCTqm0.s:34071  .debug_str:000000000002d264 .LASF978
C:\Users\SOLDER~1\AppData\Local\Temp\ccYCTqm0.s:29493  .debug_str:000000000001aaf7 .LASF979
C:\Users\SOLDER~1\AppData\Local\Temp\ccYCTqm0.s:31613  .debug_str:00000000000232b0 .LASF980
C:\Users\SOLDER~1\AppData\Local\Temp\ccYCTqm0.s:24945  .debug_str:000000000000857e .LASF981
C:\Users\SOLDER~1\AppData\Local\Temp\ccYCTqm0.s:29265  .debug_str:0000000000019c65 .LASF982
C:\Users\SOLDER~1\AppData\Local\Temp\ccYCTqm0.s:32053  .debug_str:0000000000024f71 .LASF983
C:\Users\SOLDER~1\AppData\Local\Temp\ccYCTqm0.s:26951  .debug_str:0000000000010771 .LASF984
C:\Users\SOLDER~1\AppData\Local\Temp\ccYCTqm0.s:27565  .debug_str:0000000000012def .LASF985
C:\Users\SOLDER~1\AppData\Local\Temp\ccYCTqm0.s:24487  .debug_str:00000000000067c0 .LASF986
C:\Users\SOLDER~1\AppData\Local\Temp\ccYCTqm0.s:28101  .debug_str:000000000001520a .LASF987
C:\Users\SOLDER~1\AppData\Local\Temp\ccYCTqm0.s:33783  .debug_str:000000000002bff7 .LASF988
C:\Users\SOLDER~1\AppData\Local\Temp\ccYCTqm0.s:30281  .debug_str:000000000001dcef .LASF989
C:\Users\SOLDER~1\AppData\Local\Temp\ccYCTqm0.s:31335  .debug_str:00000000000220f0 .LASF990
C:\Users\SOLDER~1\AppData\Local\Temp\ccYCTqm0.s:25739  .debug_str:000000000000b911 .LASF991
C:\Users\SOLDER~1\AppData\Local\Temp\ccYCTqm0.s:28993  .debug_str:0000000000018b1e .LASF992
C:\Users\SOLDER~1\AppData\Local\Temp\ccYCTqm0.s:32887  .debug_str:0000000000028663 .LASF993
C:\Users\SOLDER~1\AppData\Local\Temp\ccYCTqm0.s:30083  .debug_str:000000000001d0a5 .LASF994
C:\Users\SOLDER~1\AppData\Local\Temp\ccYCTqm0.s:28399  .debug_str:0000000000016513 .LASF995
C:\Users\SOLDER~1\AppData\Local\Temp\ccYCTqm0.s:27031  .debug_str:0000000000010c31 .LASF996
C:\Users\SOLDER~1\AppData\Local\Temp\ccYCTqm0.s:23829  .debug_str:0000000000003da9 .LASF997
C:\Users\SOLDER~1\AppData\Local\Temp\ccYCTqm0.s:25253  .debug_str:000000000000999b .LASF998
C:\Users\SOLDER~1\AppData\Local\Temp\ccYCTqm0.s:31077  .debug_str:000000000002105d .LASF999
GAS LISTING C:\Users\SOLDER~1\AppData\Local\Temp\ccYCTqm0.s 			page 122


C:\Users\SOLDER~1\AppData\Local\Temp\ccYCTqm0.s:34543  .debug_str:000000000002f0eb .LASF1000
C:\Users\SOLDER~1\AppData\Local\Temp\ccYCTqm0.s:26569  .debug_str:000000000000ef12 .LASF1001
C:\Users\SOLDER~1\AppData\Local\Temp\ccYCTqm0.s:32079  .debug_str:0000000000025106 .LASF1002
C:\Users\SOLDER~1\AppData\Local\Temp\ccYCTqm0.s:33729  .debug_str:000000000002bcab .LASF1003
C:\Users\SOLDER~1\AppData\Local\Temp\ccYCTqm0.s:29809  .debug_str:000000000001bebb .LASF1004
C:\Users\SOLDER~1\AppData\Local\Temp\ccYCTqm0.s:29217  .debug_str:0000000000019990 .LASF1005
C:\Users\SOLDER~1\AppData\Local\Temp\ccYCTqm0.s:27387  .debug_str:00000000000122d0 .LASF1006
C:\Users\SOLDER~1\AppData\Local\Temp\ccYCTqm0.s:24653  .debug_str:00000000000072d8 .LASF1007
C:\Users\SOLDER~1\AppData\Local\Temp\ccYCTqm0.s:24969  .debug_str:0000000000008707 .LASF1008
C:\Users\SOLDER~1\AppData\Local\Temp\ccYCTqm0.s:31871  .debug_str:0000000000024359 .LASF1009
C:\Users\SOLDER~1\AppData\Local\Temp\ccYCTqm0.s:34253  .debug_str:000000000002de57 .LASF1010
C:\Users\SOLDER~1\AppData\Local\Temp\ccYCTqm0.s:27379  .debug_str:0000000000012255 .LASF1011
C:\Users\SOLDER~1\AppData\Local\Temp\ccYCTqm0.s:32467  .debug_str:0000000000026a9f .LASF1012
C:\Users\SOLDER~1\AppData\Local\Temp\ccYCTqm0.s:34537  .debug_str:000000000002f092 .LASF1013
C:\Users\SOLDER~1\AppData\Local\Temp\ccYCTqm0.s:32949  .debug_str:0000000000028a43 .LASF1014
C:\Users\SOLDER~1\AppData\Local\Temp\ccYCTqm0.s:29997  .debug_str:000000000001cae8 .LASF1015
C:\Users\SOLDER~1\AppData\Local\Temp\ccYCTqm0.s:30551  .debug_str:000000000001ee6d .LASF1016
C:\Users\SOLDER~1\AppData\Local\Temp\ccYCTqm0.s:25443  .debug_str:000000000000a5fa .LASF1017
C:\Users\SOLDER~1\AppData\Local\Temp\ccYCTqm0.s:28145  .debug_str:00000000000154ca .LASF1018
C:\Users\SOLDER~1\AppData\Local\Temp\ccYCTqm0.s:32603  .debug_str:00000000000273b0 .LASF1019
C:\Users\SOLDER~1\AppData\Local\Temp\ccYCTqm0.s:25707  .debug_str:000000000000b6ec .LASF1020
C:\Users\SOLDER~1\AppData\Local\Temp\ccYCTqm0.s:27355  .debug_str:00000000000120e2 .LASF1021
C:\Users\SOLDER~1\AppData\Local\Temp\ccYCTqm0.s:29455  .debug_str:000000000001a894 .LASF1022
C:\Users\SOLDER~1\AppData\Local\Temp\ccYCTqm0.s:23635  .debug_str:000000000000314c .LASF1023
C:\Users\SOLDER~1\AppData\Local\Temp\ccYCTqm0.s:32653  .debug_str:00000000000276e7 .LASF1024
C:\Users\SOLDER~1\AppData\Local\Temp\ccYCTqm0.s:31601  .debug_str:000000000002320c .LASF1025
C:\Users\SOLDER~1\AppData\Local\Temp\ccYCTqm0.s:30259  .debug_str:000000000001db9c .LASF1026
C:\Users\SOLDER~1\AppData\Local\Temp\ccYCTqm0.s:26277  .debug_str:000000000000dc0d .LASF1027
C:\Users\SOLDER~1\AppData\Local\Temp\ccYCTqm0.s:27863  .debug_str:000000000001420b .LASF1028
C:\Users\SOLDER~1\AppData\Local\Temp\ccYCTqm0.s:33433  .debug_str:000000000002a98f .LASF1029
C:\Users\SOLDER~1\AppData\Local\Temp\ccYCTqm0.s:25417  .debug_str:000000000000a45d .LASF1030
C:\Users\SOLDER~1\AppData\Local\Temp\ccYCTqm0.s:25011  .debug_str:00000000000089aa .LASF1031
C:\Users\SOLDER~1\AppData\Local\Temp\ccYCTqm0.s:23009  .debug_str:00000000000008a1 .LASF1032
C:\Users\SOLDER~1\AppData\Local\Temp\ccYCTqm0.s:24351  .debug_str:0000000000005e97 .LASF1033
C:\Users\SOLDER~1\AppData\Local\Temp\ccYCTqm0.s:24129  .debug_str:0000000000005062 .LASF1034
C:\Users\SOLDER~1\AppData\Local\Temp\ccYCTqm0.s:31485  .debug_str:0000000000022a51 .LASF1035
C:\Users\SOLDER~1\AppData\Local\Temp\ccYCTqm0.s:33417  .debug_str:000000000002a89d .LASF1036
C:\Users\SOLDER~1\AppData\Local\Temp\ccYCTqm0.s:27115  .debug_str:000000000001117e .LASF1037
C:\Users\SOLDER~1\AppData\Local\Temp\ccYCTqm0.s:30995  .debug_str:0000000000020b3f .LASF1038
C:\Users\SOLDER~1\AppData\Local\Temp\ccYCTqm0.s:31995  .debug_str:0000000000024b78 .LASF1039
C:\Users\SOLDER~1\AppData\Local\Temp\ccYCTqm0.s:25311  .debug_str:0000000000009d7c .LASF1040
C:\Users\SOLDER~1\AppData\Local\Temp\ccYCTqm0.s:24051  .debug_str:0000000000004b91 .LASF1041
C:\Users\SOLDER~1\AppData\Local\Temp\ccYCTqm0.s:26973  .debug_str:00000000000108ca .LASF1042
C:\Users\SOLDER~1\AppData\Local\Temp\ccYCTqm0.s:33079  .debug_str:000000000002927e .LASF1043
C:\Users\SOLDER~1\AppData\Local\Temp\ccYCTqm0.s:30799  .debug_str:000000000001feda .LASF1044
C:\Users\SOLDER~1\AppData\Local\Temp\ccYCTqm0.s:28311  .debug_str:0000000000015f60 .LASF1045
C:\Users\SOLDER~1\AppData\Local\Temp\ccYCTqm0.s:23837  .debug_str:0000000000003e26 .LASF1046
C:\Users\SOLDER~1\AppData\Local\Temp\ccYCTqm0.s:32499  .debug_str:0000000000026cdf .LASF1047
C:\Users\SOLDER~1\AppData\Local\Temp\ccYCTqm0.s:24445  .debug_str:0000000000006502 .LASF1048
C:\Users\SOLDER~1\AppData\Local\Temp\ccYCTqm0.s:28689  .debug_str:000000000001774f .LASF1049
C:\Users\SOLDER~1\AppData\Local\Temp\ccYCTqm0.s:27365  .debug_str:000000000001216e .LASF1050
C:\Users\SOLDER~1\AppData\Local\Temp\ccYCTqm0.s:30075  .debug_str:000000000001d032 .LASF1051
C:\Users\SOLDER~1\AppData\Local\Temp\ccYCTqm0.s:32487  .debug_str:0000000000026c18 .LASF1052
C:\Users\SOLDER~1\AppData\Local\Temp\ccYCTqm0.s:26553  .debug_str:000000000000ee1c .LASF1053
C:\Users\SOLDER~1\AppData\Local\Temp\ccYCTqm0.s:29891  .debug_str:000000000001c3ff .LASF1054
C:\Users\SOLDER~1\AppData\Local\Temp\ccYCTqm0.s:28599  .debug_str:0000000000017122 .LASF1055
C:\Users\SOLDER~1\AppData\Local\Temp\ccYCTqm0.s:31183  .debug_str:0000000000021752 .LASF1056
GAS LISTING C:\Users\SOLDER~1\AppData\Local\Temp\ccYCTqm0.s 			page 123


C:\Users\SOLDER~1\AppData\Local\Temp\ccYCTqm0.s:31269  .debug_str:0000000000021ce5 .LASF1057
C:\Users\SOLDER~1\AppData\Local\Temp\ccYCTqm0.s:30241  .debug_str:000000000001da96 .LASF1058
C:\Users\SOLDER~1\AppData\Local\Temp\ccYCTqm0.s:33281  .debug_str:0000000000029f5b .LASF1059
C:\Users\SOLDER~1\AppData\Local\Temp\ccYCTqm0.s:31193  .debug_str:00000000000217f0 .LASF1060
C:\Users\SOLDER~1\AppData\Local\Temp\ccYCTqm0.s:30955  .debug_str:00000000000208b0 .LASF1061
C:\Users\SOLDER~1\AppData\Local\Temp\ccYCTqm0.s:34197  .debug_str:000000000002dab7 .LASF1062
C:\Users\SOLDER~1\AppData\Local\Temp\ccYCTqm0.s:24509  .debug_str:0000000000006956 .LASF1063
C:\Users\SOLDER~1\AppData\Local\Temp\ccYCTqm0.s:26883  .debug_str:000000000001036f .LASF1064
C:\Users\SOLDER~1\AppData\Local\Temp\ccYCTqm0.s:31593  .debug_str:0000000000023189 .LASF1065
C:\Users\SOLDER~1\AppData\Local\Temp\ccYCTqm0.s:31615  .debug_str:00000000000232d1 .LASF1066
C:\Users\SOLDER~1\AppData\Local\Temp\ccYCTqm0.s:26279  .debug_str:000000000000dc24 .LASF1067
C:\Users\SOLDER~1\AppData\Local\Temp\ccYCTqm0.s:24037  .debug_str:0000000000004ac9 .LASF1068
C:\Users\SOLDER~1\AppData\Local\Temp\ccYCTqm0.s:27109  .debug_str:0000000000011113 .LASF1069
C:\Users\SOLDER~1\AppData\Local\Temp\ccYCTqm0.s:31469  .debug_str:000000000002293a .LASF1070
C:\Users\SOLDER~1\AppData\Local\Temp\ccYCTqm0.s:30155  .debug_str:000000000001d519 .LASF1071
C:\Users\SOLDER~1\AppData\Local\Temp\ccYCTqm0.s:27091  .debug_str:0000000000010fdf .LASF1072
C:\Users\SOLDER~1\AppData\Local\Temp\ccYCTqm0.s:31715  .debug_str:0000000000023988 .LASF1073
C:\Users\SOLDER~1\AppData\Local\Temp\ccYCTqm0.s:23027  .debug_str:0000000000000a24 .LASF1074
C:\Users\SOLDER~1\AppData\Local\Temp\ccYCTqm0.s:29409  .debug_str:000000000001a59c .LASF1075
C:\Users\SOLDER~1\AppData\Local\Temp\ccYCTqm0.s:27885  .debug_str:000000000001434d .LASF1076
C:\Users\SOLDER~1\AppData\Local\Temp\ccYCTqm0.s:26071  .debug_str:000000000000ce56 .LASF1077
C:\Users\SOLDER~1\AppData\Local\Temp\ccYCTqm0.s:23493  .debug_str:0000000000002816 .LASF1078
C:\Users\SOLDER~1\AppData\Local\Temp\ccYCTqm0.s:32179  .debug_str:000000000002575e .LASF1079
C:\Users\SOLDER~1\AppData\Local\Temp\ccYCTqm0.s:25127  .debug_str:0000000000009143 .LASF1080
C:\Users\SOLDER~1\AppData\Local\Temp\ccYCTqm0.s:27537  .debug_str:0000000000012bfd .LASF1081
C:\Users\SOLDER~1\AppData\Local\Temp\ccYCTqm0.s:31031  .debug_str:0000000000020d7e .LASF1082
C:\Users\SOLDER~1\AppData\Local\Temp\ccYCTqm0.s:30485  .debug_str:000000000001e9f3 .LASF1083
C:\Users\SOLDER~1\AppData\Local\Temp\ccYCTqm0.s:28391  .debug_str:0000000000016488 .LASF1084
C:\Users\SOLDER~1\AppData\Local\Temp\ccYCTqm0.s:24355  .debug_str:0000000000005ed3 .LASF1085
C:\Users\SOLDER~1\AppData\Local\Temp\ccYCTqm0.s:31577  .debug_str:000000000002307a .LASF1086
C:\Users\SOLDER~1\AppData\Local\Temp\ccYCTqm0.s:33359  .debug_str:000000000002a49a .LASF1087
C:\Users\SOLDER~1\AppData\Local\Temp\ccYCTqm0.s:31175  .debug_str:00000000000216cc .LASF1088
C:\Users\SOLDER~1\AppData\Local\Temp\ccYCTqm0.s:24325  .debug_str:0000000000005cf7 .LASF1089
C:\Users\SOLDER~1\AppData\Local\Temp\ccYCTqm0.s:32509  .debug_str:0000000000026d78 .LASF1090
C:\Users\SOLDER~1\AppData\Local\Temp\ccYCTqm0.s:30329  .debug_str:000000000001dfbf .LASF1091
C:\Users\SOLDER~1\AppData\Local\Temp\ccYCTqm0.s:24693  .debug_str:000000000000756a .LASF1092
C:\Users\SOLDER~1\AppData\Local\Temp\ccYCTqm0.s:28837  .debug_str:00000000000180f6 .LASF1093
C:\Users\SOLDER~1\AppData\Local\Temp\ccYCTqm0.s:26245  .debug_str:000000000000d9cd .LASF1094
C:\Users\SOLDER~1\AppData\Local\Temp\ccYCTqm0.s:23243  .debug_str:00000000000017d9 .LASF1095
C:\Users\SOLDER~1\AppData\Local\Temp\ccYCTqm0.s:24413  .debug_str:00000000000062b4 .LASF1096
C:\Users\SOLDER~1\AppData\Local\Temp\ccYCTqm0.s:31599  .debug_str:00000000000231e5 .LASF1097
C:\Users\SOLDER~1\AppData\Local\Temp\ccYCTqm0.s:30899  .debug_str:000000000002050e .LASF1098
C:\Users\SOLDER~1\AppData\Local\Temp\ccYCTqm0.s:24655  .debug_str:00000000000072ef .LASF1099
C:\Users\SOLDER~1\AppData\Local\Temp\ccYCTqm0.s:28155  .debug_str:000000000001556f .LASF1100
C:\Users\SOLDER~1\AppData\Local\Temp\ccYCTqm0.s:31853  .debug_str:000000000002422b .LASF1101
C:\Users\SOLDER~1\AppData\Local\Temp\ccYCTqm0.s:33559  .debug_str:000000000002b17c .LASF1102
C:\Users\SOLDER~1\AppData\Local\Temp\ccYCTqm0.s:23097  .debug_str:0000000000000ebd .LASF1103
C:\Users\SOLDER~1\AppData\Local\Temp\ccYCTqm0.s:23209  .debug_str:00000000000015ba .LASF1104
C:\Users\SOLDER~1\AppData\Local\Temp\ccYCTqm0.s:30829  .debug_str:00000000000200b7 .LASF1105
C:\Users\SOLDER~1\AppData\Local\Temp\ccYCTqm0.s:24299  .debug_str:0000000000005b2c .LASF1106
C:\Users\SOLDER~1\AppData\Local\Temp\ccYCTqm0.s:25867  .debug_str:000000000000c0c5 .LASF1107
C:\Users\SOLDER~1\AppData\Local\Temp\ccYCTqm0.s:23285  .debug_str:0000000000001a73 .LASF1108
C:\Users\SOLDER~1\AppData\Local\Temp\ccYCTqm0.s:30913  .debug_str:00000000000205eb .LASF1109
C:\Users\SOLDER~1\AppData\Local\Temp\ccYCTqm0.s:24387  .debug_str:00000000000060ef .LASF1110
C:\Users\SOLDER~1\AppData\Local\Temp\ccYCTqm0.s:29113  .debug_str:00000000000192dd .LASF1111
C:\Users\SOLDER~1\AppData\Local\Temp\ccYCTqm0.s:25397  .debug_str:000000000000a2ff .LASF1112
C:\Users\SOLDER~1\AppData\Local\Temp\ccYCTqm0.s:25835  .debug_str:000000000000bee7 .LASF1113
GAS LISTING C:\Users\SOLDER~1\AppData\Local\Temp\ccYCTqm0.s 			page 124


C:\Users\SOLDER~1\AppData\Local\Temp\ccYCTqm0.s:32855  .debug_str:0000000000028440 .LASF1114
C:\Users\SOLDER~1\AppData\Local\Temp\ccYCTqm0.s:25049  .debug_str:0000000000008bf0 .LASF1115
C:\Users\SOLDER~1\AppData\Local\Temp\ccYCTqm0.s:32573  .debug_str:0000000000027185 .LASF1116
C:\Users\SOLDER~1\AppData\Local\Temp\ccYCTqm0.s:34045  .debug_str:000000000002d0a8 .LASF1117
C:\Users\SOLDER~1\AppData\Local\Temp\ccYCTqm0.s:33521  .debug_str:000000000002aef4 .LASF1118
C:\Users\SOLDER~1\AppData\Local\Temp\ccYCTqm0.s:27805  .debug_str:0000000000013e1d .LASF1119
C:\Users\SOLDER~1\AppData\Local\Temp\ccYCTqm0.s:24053  .debug_str:0000000000004ba2 .LASF1120
C:\Users\SOLDER~1\AppData\Local\Temp\ccYCTqm0.s:30373  .debug_str:000000000001e2e0 .LASF1121
C:\Users\SOLDER~1\AppData\Local\Temp\ccYCTqm0.s:25167  .debug_str:00000000000093ee .LASF1122
C:\Users\SOLDER~1\AppData\Local\Temp\ccYCTqm0.s:33693  .debug_str:000000000002ba44 .LASF1123
C:\Users\SOLDER~1\AppData\Local\Temp\ccYCTqm0.s:28051  .debug_str:0000000000014ec3 .LASF1124
C:\Users\SOLDER~1\AppData\Local\Temp\ccYCTqm0.s:25723  .debug_str:000000000000b81c .LASF1125
C:\Users\SOLDER~1\AppData\Local\Temp\ccYCTqm0.s:34229  .debug_str:000000000002dcdc .LASF1126
C:\Users\SOLDER~1\AppData\Local\Temp\ccYCTqm0.s:32317  .debug_str:000000000002608b .LASF1127
C:\Users\SOLDER~1\AppData\Local\Temp\ccYCTqm0.s:31363  .debug_str:00000000000222be .LASF1128
C:\Users\SOLDER~1\AppData\Local\Temp\ccYCTqm0.s:29019  .debug_str:0000000000018cb8 .LASF1129
C:\Users\SOLDER~1\AppData\Local\Temp\ccYCTqm0.s:29635  .debug_str:000000000001b42f .LASF1130
C:\Users\SOLDER~1\AppData\Local\Temp\ccYCTqm0.s:25061  .debug_str:0000000000008ce3 .LASF1131
C:\Users\SOLDER~1\AppData\Local\Temp\ccYCTqm0.s:30671  .debug_str:000000000001f649 .LASF1132
C:\Users\SOLDER~1\AppData\Local\Temp\ccYCTqm0.s:25637  .debug_str:000000000000b290 .LASF1133
C:\Users\SOLDER~1\AppData\Local\Temp\ccYCTqm0.s:28677  .debug_str:0000000000017682 .LASF1134
C:\Users\SOLDER~1\AppData\Local\Temp\ccYCTqm0.s:28049  .debug_str:0000000000014e9e .LASF1135
C:\Users\SOLDER~1\AppData\Local\Temp\ccYCTqm0.s:28687  .debug_str:000000000001772a .LASF1136
C:\Users\SOLDER~1\AppData\Local\Temp\ccYCTqm0.s:32757  .debug_str:0000000000027da1 .LASF1137
C:\Users\SOLDER~1\AppData\Local\Temp\ccYCTqm0.s:30607  .debug_str:000000000001f1e9 .LASF1138
C:\Users\SOLDER~1\AppData\Local\Temp\ccYCTqm0.s:31911  .debug_str:00000000000245e7 .LASF1139
C:\Users\SOLDER~1\AppData\Local\Temp\ccYCTqm0.s:23437  .debug_str:0000000000002493 .LASF1140
C:\Users\SOLDER~1\AppData\Local\Temp\ccYCTqm0.s:32363  .debug_str:00000000000263ce .LASF1141
C:\Users\SOLDER~1\AppData\Local\Temp\ccYCTqm0.s:31479  .debug_str:00000000000229f1 .LASF1142
C:\Users\SOLDER~1\AppData\Local\Temp\ccYCTqm0.s:30003  .debug_str:000000000001cb41 .LASF1143
C:\Users\SOLDER~1\AppData\Local\Temp\ccYCTqm0.s:33793  .debug_str:000000000002c0a8 .LASF1144
C:\Users\SOLDER~1\AppData\Local\Temp\ccYCTqm0.s:30503  .debug_str:000000000001eb35 .LASF1145
C:\Users\SOLDER~1\AppData\Local\Temp\ccYCTqm0.s:30265  .debug_str:000000000001dc08 .LASF1146
C:\Users\SOLDER~1\AppData\Local\Temp\ccYCTqm0.s:28563  .debug_str:0000000000016ef8 .LASF1147
C:\Users\SOLDER~1\AppData\Local\Temp\ccYCTqm0.s:33911  .debug_str:000000000002c860 .LASF1148
C:\Users\SOLDER~1\AppData\Local\Temp\ccYCTqm0.s:31185  .debug_str:000000000002176e .LASF1149
C:\Users\SOLDER~1\AppData\Local\Temp\ccYCTqm0.s:28285  .debug_str:0000000000015dc3 .LASF1150
C:\Users\SOLDER~1\AppData\Local\Temp\ccYCTqm0.s:30057  .debug_str:000000000001cee8 .LASF1151
C:\Users\SOLDER~1\AppData\Local\Temp\ccYCTqm0.s:27103  .debug_str:00000000000110a3 .LASF1152
C:\Users\SOLDER~1\AppData\Local\Temp\ccYCTqm0.s:32663  .debug_str:0000000000027799 .LASF1153
C:\Users\SOLDER~1\AppData\Local\Temp\ccYCTqm0.s:28925  .debug_str:00000000000186ee .LASF1154
C:\Users\SOLDER~1\AppData\Local\Temp\ccYCTqm0.s:23331  .debug_str:0000000000001d9f .LASF1155
C:\Users\SOLDER~1\AppData\Local\Temp\ccYCTqm0.s:27815  .debug_str:0000000000013eef .LASF1156
C:\Users\SOLDER~1\AppData\Local\Temp\ccYCTqm0.s:30945  .debug_str:00000000000207f5 .LASF1157
C:\Users\SOLDER~1\AppData\Local\Temp\ccYCTqm0.s:34339  .debug_str:000000000002e3d3 .LASF1158
C:\Users\SOLDER~1\AppData\Local\Temp\ccYCTqm0.s:34347  .debug_str:000000000002e439 .LASF1159
C:\Users\SOLDER~1\AppData\Local\Temp\ccYCTqm0.s:32913  .debug_str:00000000000287fd .LASF1160
C:\Users\SOLDER~1\AppData\Local\Temp\ccYCTqm0.s:29179  .debug_str:00000000000196dd .LASF1161
C:\Users\SOLDER~1\AppData\Local\Temp\ccYCTqm0.s:28951  .debug_str:0000000000018888 .LASF1162
C:\Users\SOLDER~1\AppData\Local\Temp\ccYCTqm0.s:32743  .debug_str:0000000000027ccb .LASF1163
C:\Users\SOLDER~1\AppData\Local\Temp\ccYCTqm0.s:23729  .debug_str:000000000000373c .LASF1164
C:\Users\SOLDER~1\AppData\Local\Temp\ccYCTqm0.s:32681  .debug_str:00000000000278c7 .LASF1165
C:\Users\SOLDER~1\AppData\Local\Temp\ccYCTqm0.s:34401  .debug_str:000000000002e782 .LASF1166
C:\Users\SOLDER~1\AppData\Local\Temp\ccYCTqm0.s:30733  .debug_str:000000000001fa98 .LASF1167
C:\Users\SOLDER~1\AppData\Local\Temp\ccYCTqm0.s:27679  .debug_str:0000000000013567 .LASF1168
C:\Users\SOLDER~1\AppData\Local\Temp\ccYCTqm0.s:33233  .debug_str:0000000000029c5e .LASF1169
C:\Users\SOLDER~1\AppData\Local\Temp\ccYCTqm0.s:25105  .debug_str:0000000000008fa2 .LASF1170
GAS LISTING C:\Users\SOLDER~1\AppData\Local\Temp\ccYCTqm0.s 			page 125


C:\Users\SOLDER~1\AppData\Local\Temp\ccYCTqm0.s:31225  .debug_str:0000000000021a0c .LASF1171
C:\Users\SOLDER~1\AppData\Local\Temp\ccYCTqm0.s:32077  .debug_str:00000000000250df .LASF1172
C:\Users\SOLDER~1\AppData\Local\Temp\ccYCTqm0.s:30557  .debug_str:000000000001eecd .LASF1173
C:\Users\SOLDER~1\AppData\Local\Temp\ccYCTqm0.s:28937  .debug_str:00000000000187b4 .LASF1174
C:\Users\SOLDER~1\AppData\Local\Temp\ccYCTqm0.s:26907  .debug_str:00000000000104ee .LASF1175
C:\Users\SOLDER~1\AppData\Local\Temp\ccYCTqm0.s:30761  .debug_str:000000000001fc79 .LASF1176
C:\Users\SOLDER~1\AppData\Local\Temp\ccYCTqm0.s:27819  .debug_str:0000000000013f3b .LASF1177
C:\Users\SOLDER~1\AppData\Local\Temp\ccYCTqm0.s:27559  .debug_str:0000000000012d7e .LASF1178
C:\Users\SOLDER~1\AppData\Local\Temp\ccYCTqm0.s:25389  .debug_str:000000000000a278 .LASF1179
C:\Users\SOLDER~1\AppData\Local\Temp\ccYCTqm0.s:23333  .debug_str:0000000000001dc8 .LASF1180
C:\Users\SOLDER~1\AppData\Local\Temp\ccYCTqm0.s:28863  .debug_str:00000000000182bb .LASF1181
C:\Users\SOLDER~1\AppData\Local\Temp\ccYCTqm0.s:32357  .debug_str:0000000000026365 .LASF1182
C:\Users\SOLDER~1\AppData\Local\Temp\ccYCTqm0.s:26965  .debug_str:0000000000010858 .LASF1183
C:\Users\SOLDER~1\AppData\Local\Temp\ccYCTqm0.s:28263  .debug_str:0000000000015c45 .LASF1184
C:\Users\SOLDER~1\AppData\Local\Temp\ccYCTqm0.s:29465  .debug_str:000000000001a931 .LASF1185
C:\Users\SOLDER~1\AppData\Local\Temp\ccYCTqm0.s:32997  .debug_str:0000000000028d82 .LASF1186
C:\Users\SOLDER~1\AppData\Local\Temp\ccYCTqm0.s:27469  .debug_str:00000000000127a5 .LASF1187
C:\Users\SOLDER~1\AppData\Local\Temp\ccYCTqm0.s:25477  .debug_str:000000000000a82b .LASF1188
C:\Users\SOLDER~1\AppData\Local\Temp\ccYCTqm0.s:24805  .debug_str:0000000000007c30 .LASF1189
C:\Users\SOLDER~1\AppData\Local\Temp\ccYCTqm0.s:23365  .debug_str:0000000000001fcc .LASF1190
C:\Users\SOLDER~1\AppData\Local\Temp\ccYCTqm0.s:27199  .debug_str:00000000000116ad .LASF1191
C:\Users\SOLDER~1\AppData\Local\Temp\ccYCTqm0.s:23869  .debug_str:0000000000004025 .LASF1192
C:\Users\SOLDER~1\AppData\Local\Temp\ccYCTqm0.s:34545  .debug_str:000000000002f10c .LASF1193
C:\Users\SOLDER~1\AppData\Local\Temp\ccYCTqm0.s:29501  .debug_str:000000000001ab7b .LASF1194
C:\Users\SOLDER~1\AppData\Local\Temp\ccYCTqm0.s:24643  .debug_str:000000000000722d .LASF1195
C:\Users\SOLDER~1\AppData\Local\Temp\ccYCTqm0.s:30209  .debug_str:000000000001d8a1 .LASF1196
C:\Users\SOLDER~1\AppData\Local\Temp\ccYCTqm0.s:33781  .debug_str:000000000002bfce .LASF1197
C:\Users\SOLDER~1\AppData\Local\Temp\ccYCTqm0.s:28253  .debug_str:0000000000015b9f .LASF1198
C:\Users\SOLDER~1\AppData\Local\Temp\ccYCTqm0.s:25271  .debug_str:0000000000009ac6 .LASF1199
C:\Users\SOLDER~1\AppData\Local\Temp\ccYCTqm0.s:30753  .debug_str:000000000001fbe6 .LASF1200
C:\Users\SOLDER~1\AppData\Local\Temp\ccYCTqm0.s:34329  .debug_str:000000000002e325 .LASF1201
C:\Users\SOLDER~1\AppData\Local\Temp\ccYCTqm0.s:28893  .debug_str:00000000000184e8 .LASF1202
C:\Users\SOLDER~1\AppData\Local\Temp\ccYCTqm0.s:24201  .debug_str:00000000000054d7 .LASF1203
C:\Users\SOLDER~1\AppData\Local\Temp\ccYCTqm0.s:23423  .debug_str:000000000000239e .LASF1204
C:\Users\SOLDER~1\AppData\Local\Temp\ccYCTqm0.s:27635  .debug_str:000000000001329b .LASF1205
C:\Users\SOLDER~1\AppData\Local\Temp\ccYCTqm0.s:31467  .debug_str:0000000000022913 .LASF1206
C:\Users\SOLDER~1\AppData\Local\Temp\ccYCTqm0.s:34241  .debug_str:000000000002dd9f .LASF1207
C:\Users\SOLDER~1\AppData\Local\Temp\ccYCTqm0.s:33181  .debug_str:0000000000029935 .LASF1208
C:\Users\SOLDER~1\AppData\Local\Temp\ccYCTqm0.s:33727  .debug_str:000000000002bc83 .LASF1209
C:\Users\SOLDER~1\AppData\Local\Temp\ccYCTqm0.s:32531  .debug_str:0000000000026f0c .LASF1210
C:\Users\SOLDER~1\AppData\Local\Temp\ccYCTqm0.s:26429  .debug_str:000000000000e621 .LASF1211
C:\Users\SOLDER~1\AppData\Local\Temp\ccYCTqm0.s:29903  .debug_str:000000000001c4c3 .LASF1212
C:\Users\SOLDER~1\AppData\Local\Temp\ccYCTqm0.s:24437  .debug_str:000000000000646a .LASF1213
C:\Users\SOLDER~1\AppData\Local\Temp\ccYCTqm0.s:33599  .debug_str:000000000002b3ff .LASF1214
C:\Users\SOLDER~1\AppData\Local\Temp\ccYCTqm0.s:24293  .debug_str:0000000000005ac3 .LASF1215
C:\Users\SOLDER~1\AppData\Local\Temp\ccYCTqm0.s:30529  .debug_str:000000000001ed09 .LASF1216
C:\Users\SOLDER~1\AppData\Local\Temp\ccYCTqm0.s:25077  .debug_str:0000000000008dda .LASF1217
C:\Users\SOLDER~1\AppData\Local\Temp\ccYCTqm0.s:23651  .debug_str:0000000000003239 .LASF1218
C:\Users\SOLDER~1\AppData\Local\Temp\ccYCTqm0.s:31759  .debug_str:0000000000023c68 .LASF1219
C:\Users\SOLDER~1\AppData\Local\Temp\ccYCTqm0.s:31473  .debug_str:0000000000022973 .LASF1220
C:\Users\SOLDER~1\AppData\Local\Temp\ccYCTqm0.s:30933  .debug_str:0000000000020734 .LASF1221
C:\Users\SOLDER~1\AppData\Local\Temp\ccYCTqm0.s:27529  .debug_str:0000000000012b89 .LASF1222
C:\Users\SOLDER~1\AppData\Local\Temp\ccYCTqm0.s:24291  .debug_str:0000000000005aa0 .LASF1223
C:\Users\SOLDER~1\AppData\Local\Temp\ccYCTqm0.s:25757  .debug_str:000000000000ba1b .LASF1224
C:\Users\SOLDER~1\AppData\Local\Temp\ccYCTqm0.s:29189  .debug_str:0000000000019798 .LASF1225
C:\Users\SOLDER~1\AppData\Local\Temp\ccYCTqm0.s:26695  .debug_str:000000000000f6dc .LASF1226
C:\Users\SOLDER~1\AppData\Local\Temp\ccYCTqm0.s:31897  .debug_str:0000000000024507 .LASF1227
GAS LISTING C:\Users\SOLDER~1\AppData\Local\Temp\ccYCTqm0.s 			page 126


C:\Users\SOLDER~1\AppData\Local\Temp\ccYCTqm0.s:25625  .debug_str:000000000000b1c7 .LASF1228
C:\Users\SOLDER~1\AppData\Local\Temp\ccYCTqm0.s:26741  .debug_str:000000000000f9ca .LASF1229
C:\Users\SOLDER~1\AppData\Local\Temp\ccYCTqm0.s:32745  .debug_str:0000000000027cf3 .LASF1230
C:\Users\SOLDER~1\AppData\Local\Temp\ccYCTqm0.s:27721  .debug_str:0000000000013827 .LASF1231
C:\Users\SOLDER~1\AppData\Local\Temp\ccYCTqm0.s:28873  .debug_str:0000000000018384 .LASF1232
C:\Users\SOLDER~1\AppData\Local\Temp\ccYCTqm0.s:27063  .debug_str:0000000000010e53 .LASF1233
C:\Users\SOLDER~1\AppData\Local\Temp\ccYCTqm0.s:24591  .debug_str:0000000000006e92 .LASF1234
C:\Users\SOLDER~1\AppData\Local\Temp\ccYCTqm0.s:27773  .debug_str:0000000000013bbb .LASF1235
C:\Users\SOLDER~1\AppData\Local\Temp\ccYCTqm0.s:24219  .debug_str:00000000000055f0 .LASF1236
C:\Users\SOLDER~1\AppData\Local\Temp\ccYCTqm0.s:32503  .debug_str:0000000000026d15 .LASF1237
C:\Users\SOLDER~1\AppData\Local\Temp\ccYCTqm0.s:29337  .debug_str:000000000001a11c .LASF1238
C:\Users\SOLDER~1\AppData\Local\Temp\ccYCTqm0.s:26463  .debug_str:000000000000e86b .LASF1239
C:\Users\SOLDER~1\AppData\Local\Temp\ccYCTqm0.s:34161  .debug_str:000000000002d893 .LASF1240
C:\Users\SOLDER~1\AppData\Local\Temp\ccYCTqm0.s:31635  .debug_str:000000000002342e .LASF1241
C:\Users\SOLDER~1\AppData\Local\Temp\ccYCTqm0.s:30321  .debug_str:000000000001df4a .LASF1242
C:\Users\SOLDER~1\AppData\Local\Temp\ccYCTqm0.s:30545  .debug_str:000000000001ee2a .LASF1243
C:\Users\SOLDER~1\AppData\Local\Temp\ccYCTqm0.s:23633  .debug_str:0000000000003129 .LASF1244
C:\Users\SOLDER~1\AppData\Local\Temp\ccYCTqm0.s:26415  .debug_str:000000000000e52b .LASF1245
C:\Users\SOLDER~1\AppData\Local\Temp\ccYCTqm0.s:33021  .debug_str:0000000000028f12 .LASF1246
C:\Users\SOLDER~1\AppData\Local\Temp\ccYCTqm0.s:32561  .debug_str:00000000000270de .LASF1247
C:\Users\SOLDER~1\AppData\Local\Temp\ccYCTqm0.s:32333  .debug_str:00000000000261a6 .LASF1248
C:\Users\SOLDER~1\AppData\Local\Temp\ccYCTqm0.s:32373  .debug_str:0000000000026473 .LASF1249
C:\Users\SOLDER~1\AppData\Local\Temp\ccYCTqm0.s:25987  .debug_str:000000000000c8ef .LASF1250
C:\Users\SOLDER~1\AppData\Local\Temp\ccYCTqm0.s:34183  .debug_str:000000000002d9cb .LASF1251
C:\Users\SOLDER~1\AppData\Local\Temp\ccYCTqm0.s:30773  .debug_str:000000000001fd19 .LASF1252
C:\Users\SOLDER~1\AppData\Local\Temp\ccYCTqm0.s:27547  .debug_str:0000000000012c9a .LASF1253
C:\Users\SOLDER~1\AppData\Local\Temp\ccYCTqm0.s:29605  .debug_str:000000000001b256 .LASF1254
C:\Users\SOLDER~1\AppData\Local\Temp\ccYCTqm0.s:32367  .debug_str:0000000000026408 .LASF1255
C:\Users\SOLDER~1\AppData\Local\Temp\ccYCTqm0.s:29919  .debug_str:000000000001c600 .LASF1256
C:\Users\SOLDER~1\AppData\Local\Temp\ccYCTqm0.s:27193  .debug_str:0000000000011655 .LASF1257
C:\Users\SOLDER~1\AppData\Local\Temp\ccYCTqm0.s:28905  .debug_str:00000000000185b9 .LASF1258
C:\Users\SOLDER~1\AppData\Local\Temp\ccYCTqm0.s:33579  .debug_str:000000000002b2b2 .LASF1259
C:\Users\SOLDER~1\AppData\Local\Temp\ccYCTqm0.s:26975  .debug_str:00000000000108e5 .LASF1260
C:\Users\SOLDER~1\AppData\Local\Temp\ccYCTqm0.s:32385  .debug_str:0000000000026544 .LASF1261
C:\Users\SOLDER~1\AppData\Local\Temp\ccYCTqm0.s:33529  .debug_str:000000000002af8b .LASF1262
C:\Users\SOLDER~1\AppData\Local\Temp\ccYCTqm0.s:31609  .debug_str:0000000000023275 .LASF1263
C:\Users\SOLDER~1\AppData\Local\Temp\ccYCTqm0.s:29407  .debug_str:000000000001a57c .LASF1264
C:\Users\SOLDER~1\AppData\Local\Temp\ccYCTqm0.s:31573  .debug_str:0000000000023048 .LASF1265
C:\Users\SOLDER~1\AppData\Local\Temp\ccYCTqm0.s:28121  .debug_str:0000000000015339 .LASF1266
C:\Users\SOLDER~1\AppData\Local\Temp\ccYCTqm0.s:24697  .debug_str:00000000000075b5 .LASF1267
C:\Users\SOLDER~1\AppData\Local\Temp\ccYCTqm0.s:33169  .debug_str:0000000000029850 .LASF1268
C:\Users\SOLDER~1\AppData\Local\Temp\ccYCTqm0.s:23495  .debug_str:0000000000002836 .LASF1269
C:\Users\SOLDER~1\AppData\Local\Temp\ccYCTqm0.s:26327  .debug_str:000000000000def0 .LASF1270
C:\Users\SOLDER~1\AppData\Local\Temp\ccYCTqm0.s:23831  .debug_str:0000000000003dc0 .LASF1271
C:\Users\SOLDER~1\AppData\Local\Temp\ccYCTqm0.s:31931  .debug_str:000000000002473f .LASF1272
C:\Users\SOLDER~1\AppData\Local\Temp\ccYCTqm0.s:34511  .debug_str:000000000002eee6 .LASF1273
C:\Users\SOLDER~1\AppData\Local\Temp\ccYCTqm0.s:27607  .debug_str:00000000000130e3 .LASF1274
C:\Users\SOLDER~1\AppData\Local\Temp\ccYCTqm0.s:29483  .debug_str:000000000001aa48 .LASF1275
C:\Users\SOLDER~1\AppData\Local\Temp\ccYCTqm0.s:24459  .debug_str:00000000000065eb .LASF1276
C:\Users\SOLDER~1\AppData\Local\Temp\ccYCTqm0.s:25587  .debug_str:000000000000af56 .LASF1277
C:\Users\SOLDER~1\AppData\Local\Temp\ccYCTqm0.s:23785  .debug_str:0000000000003ac1 .LASF1278
C:\Users\SOLDER~1\AppData\Local\Temp\ccYCTqm0.s:23295  .debug_str:0000000000001b16 .LASF1279
C:\Users\SOLDER~1\AppData\Local\Temp\ccYCTqm0.s:24725  .debug_str:0000000000007778 .LASF1280
C:\Users\SOLDER~1\AppData\Local\Temp\ccYCTqm0.s:23901  .debug_str:0000000000004217 .LASF1281
C:\Users\SOLDER~1\AppData\Local\Temp\ccYCTqm0.s:27293  .debug_str:0000000000011cf5 .LASF1282
C:\Users\SOLDER~1\AppData\Local\Temp\ccYCTqm0.s:33427  .debug_str:000000000002a93d .LASF1283
C:\Users\SOLDER~1\AppData\Local\Temp\ccYCTqm0.s:26091  .debug_str:000000000000cfbd .LASF1284
GAS LISTING C:\Users\SOLDER~1\AppData\Local\Temp\ccYCTqm0.s 			page 127


C:\Users\SOLDER~1\AppData\Local\Temp\ccYCTqm0.s:26361  .debug_str:000000000000e148 .LASF1285
C:\Users\SOLDER~1\AppData\Local\Temp\ccYCTqm0.s:22919  .debug_str:0000000000000251 .LASF1286
C:\Users\SOLDER~1\AppData\Local\Temp\ccYCTqm0.s:32823  .debug_str:000000000002822c .LASF1287
C:\Users\SOLDER~1\AppData\Local\Temp\ccYCTqm0.s:27851  .debug_str:0000000000014157 .LASF1288
C:\Users\SOLDER~1\AppData\Local\Temp\ccYCTqm0.s:33813  .debug_str:000000000002c1d4 .LASF1289
C:\Users\SOLDER~1\AppData\Local\Temp\ccYCTqm0.s:26679  .debug_str:000000000000f5cf .LASF1290
C:\Users\SOLDER~1\AppData\Local\Temp\ccYCTqm0.s:25699  .debug_str:000000000000b659 .LASF1291
C:\Users\SOLDER~1\AppData\Local\Temp\ccYCTqm0.s:33421  .debug_str:000000000002a8da .LASF1292
C:\Users\SOLDER~1\AppData\Local\Temp\ccYCTqm0.s:31317  .debug_str:0000000000021fac .LASF1293
C:\Users\SOLDER~1\AppData\Local\Temp\ccYCTqm0.s:32847  .debug_str:00000000000283b0 .LASF1294
C:\Users\SOLDER~1\AppData\Local\Temp\ccYCTqm0.s:28175  .debug_str:00000000000156cd .LASF1295
C:\Users\SOLDER~1\AppData\Local\Temp\ccYCTqm0.s:26057  .debug_str:000000000000cd74 .LASF1296
C:\Users\SOLDER~1\AppData\Local\Temp\ccYCTqm0.s:34303  .debug_str:000000000002e171 .LASF1297
C:\Users\SOLDER~1\AppData\Local\Temp\ccYCTqm0.s:24905  .debug_str:00000000000082dc .LASF1298
C:\Users\SOLDER~1\AppData\Local\Temp\ccYCTqm0.s:26335  .debug_str:000000000000df76 .LASF1299
C:\Users\SOLDER~1\AppData\Local\Temp\ccYCTqm0.s:33681  .debug_str:000000000002b967 .LASF1300
C:\Users\SOLDER~1\AppData\Local\Temp\ccYCTqm0.s:28107  .debug_str:0000000000015261 .LASF1301
C:\Users\SOLDER~1\AppData\Local\Temp\ccYCTqm0.s:26169  .debug_str:000000000000d4db .LASF1302
C:\Users\SOLDER~1\AppData\Local\Temp\ccYCTqm0.s:31619  .debug_str:000000000002331e .LASF1303
C:\Users\SOLDER~1\AppData\Local\Temp\ccYCTqm0.s:29227  .debug_str:0000000000019a44 .LASF1304
C:\Users\SOLDER~1\AppData\Local\Temp\ccYCTqm0.s:29963  .debug_str:000000000001c894 .LASF1305
C:\Users\SOLDER~1\AppData\Local\Temp\ccYCTqm0.s:25379  .debug_str:000000000000a1c3 .LASF1306
C:\Users\SOLDER~1\AppData\Local\Temp\ccYCTqm0.s:33857  .debug_str:000000000002c4fc .LASF1307
C:\Users\SOLDER~1\AppData\Local\Temp\ccYCTqm0.s:32925  .debug_str:00000000000288d4 .LASF1308
C:\Users\SOLDER~1\AppData\Local\Temp\ccYCTqm0.s:26843  .debug_str:00000000000100ca .LASF1309
C:\Users\SOLDER~1\AppData\Local\Temp\ccYCTqm0.s:29511  .debug_str:000000000001ac2d .LASF1310
C:\Users\SOLDER~1\AppData\Local\Temp\ccYCTqm0.s:27649  .debug_str:0000000000013380 .LASF1311
C:\Users\SOLDER~1\AppData\Local\Temp\ccYCTqm0.s:33751  .debug_str:000000000002be02 .LASF1312
C:\Users\SOLDER~1\AppData\Local\Temp\ccYCTqm0.s:28279  .debug_str:0000000000015d57 .LASF1313
C:\Users\SOLDER~1\AppData\Local\Temp\ccYCTqm0.s:28543  .debug_str:0000000000016dc1 .LASF1314
C:\Users\SOLDER~1\AppData\Local\Temp\ccYCTqm0.s:34533  .debug_str:000000000002f049 .LASF1315
C:\Users\SOLDER~1\AppData\Local\Temp\ccYCTqm0.s:23537  .debug_str:0000000000002afb .LASF1316
C:\Users\SOLDER~1\AppData\Local\Temp\ccYCTqm0.s:30701  .debug_str:000000000001f85a .LASF1317
C:\Users\SOLDER~1\AppData\Local\Temp\ccYCTqm0.s:27265  .debug_str:0000000000011b08 .LASF1318
C:\Users\SOLDER~1\AppData\Local\Temp\ccYCTqm0.s:25467  .debug_str:000000000000a77b .LASF1319
C:\Users\SOLDER~1\AppData\Local\Temp\ccYCTqm0.s:28221  .debug_str:00000000000159ca .LASF1320
C:\Users\SOLDER~1\AppData\Local\Temp\ccYCTqm0.s:30023  .debug_str:000000000001cc95 .LASF1321
C:\Users\SOLDER~1\AppData\Local\Temp\ccYCTqm0.s:34595  .debug_str:000000000002f415 .LASF1322
C:\Users\SOLDER~1\AppData\Local\Temp\ccYCTqm0.s:33513  .debug_str:000000000002ae73 .LASF1323
C:\Users\SOLDER~1\AppData\Local\Temp\ccYCTqm0.s:29657  .debug_str:000000000001b560 .LASF1324
C:\Users\SOLDER~1\AppData\Local\Temp\ccYCTqm0.s:27563  .debug_str:0000000000012dca .LASF1325
C:\Users\SOLDER~1\AppData\Local\Temp\ccYCTqm0.s:29117  .debug_str:000000000001932a .LASF1326
C:\Users\SOLDER~1\AppData\Local\Temp\ccYCTqm0.s:24357  .debug_str:0000000000005efb .LASF1327
C:\Users\SOLDER~1\AppData\Local\Temp\ccYCTqm0.s:33971  .debug_str:000000000002cc13 .LASF1328
C:\Users\SOLDER~1\AppData\Local\Temp\ccYCTqm0.s:23843  .debug_str:0000000000003e6d .LASF1329
C:\Users\SOLDER~1\AppData\Local\Temp\ccYCTqm0.s:32783  .debug_str:0000000000027f51 .LASF1330
C:\Users\SOLDER~1\AppData\Local\Temp\ccYCTqm0.s:23083  .debug_str:0000000000000ded .LASF1331
C:\Users\SOLDER~1\AppData\Local\Temp\ccYCTqm0.s:33611  .debug_str:000000000002b507 .LASF1332
C:\Users\SOLDER~1\AppData\Local\Temp\ccYCTqm0.s:32091  .debug_str:00000000000251e0 .LASF1333
C:\Users\SOLDER~1\AppData\Local\Temp\ccYCTqm0.s:34079  .debug_str:000000000002d2e7 .LASF1334
C:\Users\SOLDER~1\AppData\Local\Temp\ccYCTqm0.s:27889  .debug_str:000000000001438e .LASF1335
C:\Users\SOLDER~1\AppData\Local\Temp\ccYCTqm0.s:25403  .debug_str:000000000000a356 .LASF1336
C:\Users\SOLDER~1\AppData\Local\Temp\ccYCTqm0.s:26179  .debug_str:000000000000d590 .LASF1337
C:\Users\SOLDER~1\AppData\Local\Temp\ccYCTqm0.s:33301  .debug_str:000000000002a0bb .LASF1338
C:\Users\SOLDER~1\AppData\Local\Temp\ccYCTqm0.s:30069  .debug_str:000000000001cfca .LASF1339
C:\Users\SOLDER~1\AppData\Local\Temp\ccYCTqm0.s:28583  .debug_str:000000000001702b .LASF1340
C:\Users\SOLDER~1\AppData\Local\Temp\ccYCTqm0.s:24005  .debug_str:000000000000489f .LASF1341
GAS LISTING C:\Users\SOLDER~1\AppData\Local\Temp\ccYCTqm0.s 			page 128


C:\Users\SOLDER~1\AppData\Local\Temp\ccYCTqm0.s:25695  .debug_str:000000000000b621 .LASF1342
C:\Users\SOLDER~1\AppData\Local\Temp\ccYCTqm0.s:31927  .debug_str:00000000000246ed .LASF1343
C:\Users\SOLDER~1\AppData\Local\Temp\ccYCTqm0.s:26295  .debug_str:000000000000dd1a .LASF1344
C:\Users\SOLDER~1\AppData\Local\Temp\ccYCTqm0.s:32471  .debug_str:0000000000026ae0 .LASF1345
C:\Users\SOLDER~1\AppData\Local\Temp\ccYCTqm0.s:27213  .debug_str:00000000000117b2 .LASF1346
C:\Users\SOLDER~1\AppData\Local\Temp\ccYCTqm0.s:31137  .debug_str:0000000000021456 .LASF1347
C:\Users\SOLDER~1\AppData\Local\Temp\ccYCTqm0.s:27905  .debug_str:00000000000144c4 .LASF1348
C:\Users\SOLDER~1\AppData\Local\Temp\ccYCTqm0.s:23311  .debug_str:0000000000001c1e .LASF1349
C:\Users\SOLDER~1\AppData\Local\Temp\ccYCTqm0.s:31543  .debug_str:0000000000022e44 .LASF1350
C:\Users\SOLDER~1\AppData\Local\Temp\ccYCTqm0.s:29733  .debug_str:000000000001b9ea .LASF1351
C:\Users\SOLDER~1\AppData\Local\Temp\ccYCTqm0.s:25541  .debug_str:000000000000ac87 .LASF1352
C:\Users\SOLDER~1\AppData\Local\Temp\ccYCTqm0.s:26235  .debug_str:000000000000d936 .LASF1353
C:\Users\SOLDER~1\AppData\Local\Temp\ccYCTqm0.s:30705  .debug_str:000000000001f8a5 .LASF1354
C:\Users\SOLDER~1\AppData\Local\Temp\ccYCTqm0.s:29755  .debug_str:000000000001bb48 .LASF1355
C:\Users\SOLDER~1\AppData\Local\Temp\ccYCTqm0.s:25855  .debug_str:000000000000c017 .LASF1356
C:\Users\SOLDER~1\AppData\Local\Temp\ccYCTqm0.s:23767  .debug_str:0000000000003993 .LASF1357
C:\Users\SOLDER~1\AppData\Local\Temp\ccYCTqm0.s:25031  .debug_str:0000000000008aed .LASF1358
C:\Users\SOLDER~1\AppData\Local\Temp\ccYCTqm0.s:32155  .debug_str:00000000000255e2 .LASF1359
C:\Users\SOLDER~1\AppData\Local\Temp\ccYCTqm0.s:30185  .debug_str:000000000001d714 .LASF1360
C:\Users\SOLDER~1\AppData\Local\Temp\ccYCTqm0.s:31723  .debug_str:0000000000023a1d .LASF1361
C:\Users\SOLDER~1\AppData\Local\Temp\ccYCTqm0.s:29053  .debug_str:0000000000018ef9 .LASF1362
C:\Users\SOLDER~1\AppData\Local\Temp\ccYCTqm0.s:30979  .debug_str:0000000000020a33 .LASF1363
C:\Users\SOLDER~1\AppData\Local\Temp\ccYCTqm0.s:24301  .debug_str:0000000000005b4d .LASF1364
C:\Users\SOLDER~1\AppData\Local\Temp\ccYCTqm0.s:28271  .debug_str:0000000000015cd9 .LASF1365
C:\Users\SOLDER~1\AppData\Local\Temp\ccYCTqm0.s:30287  .debug_str:000000000001dd26 .LASF1366
C:\Users\SOLDER~1\AppData\Local\Temp\ccYCTqm0.s:28485  .debug_str:0000000000016a36 .LASF1367
C:\Users\SOLDER~1\AppData\Local\Temp\ccYCTqm0.s:33323  .debug_str:000000000002a253 .LASF1368
C:\Users\SOLDER~1\AppData\Local\Temp\ccYCTqm0.s:34089  .debug_str:000000000002d39c .LASF1369
C:\Users\SOLDER~1\AppData\Local\Temp\ccYCTqm0.s:34103  .debug_str:000000000002d4a6 .LASF1370
C:\Users\SOLDER~1\AppData\Local\Temp\ccYCTqm0.s:26285  .debug_str:000000000000dc75 .LASF1371
C:\Users\SOLDER~1\AppData\Local\Temp\ccYCTqm0.s:25357  .debug_str:000000000000a029 .LASF1372
C:\Users\SOLDER~1\AppData\Local\Temp\ccYCTqm0.s:31903  .debug_str:000000000002457b .LASF1373
C:\Users\SOLDER~1\AppData\Local\Temp\ccYCTqm0.s:33613  .debug_str:000000000002b52c .LASF1374
C:\Users\SOLDER~1\AppData\Local\Temp\ccYCTqm0.s:24505  .debug_str:00000000000068f8 .LASF1375
C:\Users\SOLDER~1\AppData\Local\Temp\ccYCTqm0.s:27611  .debug_str:0000000000013117 .LASF1376
C:\Users\SOLDER~1\AppData\Local\Temp\ccYCTqm0.s:25133  .debug_str:00000000000091ab .LASF1377
C:\Users\SOLDER~1\AppData\Local\Temp\ccYCTqm0.s:30175  .debug_str:000000000001d66d .LASF1378
C:\Users\SOLDER~1\AppData\Local\Temp\ccYCTqm0.s:31453  .debug_str:0000000000022825 .LASF1379
C:\Users\SOLDER~1\AppData\Local\Temp\ccYCTqm0.s:32181  .debug_str:0000000000025786 .LASF1380
C:\Users\SOLDER~1\AppData\Local\Temp\ccYCTqm0.s:27567  .debug_str:0000000000012e06 .LASF1381
C:\Users\SOLDER~1\AppData\Local\Temp\ccYCTqm0.s:24109  .debug_str:0000000000004f2c .LASF1382
C:\Users\SOLDER~1\AppData\Local\Temp\ccYCTqm0.s:34063  .debug_str:000000000002d1d1 .LASF1383
C:\Users\SOLDER~1\AppData\Local\Temp\ccYCTqm0.s:25081  .debug_str:0000000000008e18 .LASF1384
C:\Users\SOLDER~1\AppData\Local\Temp\ccYCTqm0.s:34153  .debug_str:000000000002d802 .LASF1385
C:\Users\SOLDER~1\AppData\Local\Temp\ccYCTqm0.s:26945  .debug_str:00000000000106f1 .LASF1386
C:\Users\SOLDER~1\AppData\Local\Temp\ccYCTqm0.s:33519  .debug_str:000000000002aecf .LASF1387
C:\Users\SOLDER~1\AppData\Local\Temp\ccYCTqm0.s:33765  .debug_str:000000000002becf .LASF1388
C:\Users\SOLDER~1\AppData\Local\Temp\ccYCTqm0.s:31643  .debug_str:00000000000234c1 .LASF1389
C:\Users\SOLDER~1\AppData\Local\Temp\ccYCTqm0.s:33201  .debug_str:0000000000029a82 .LASF1390
C:\Users\SOLDER~1\AppData\Local\Temp\ccYCTqm0.s:23461  .debug_str:0000000000002627 .LASF1391
C:\Users\SOLDER~1\AppData\Local\Temp\ccYCTqm0.s:26395  .debug_str:000000000000e393 .LASF1392
C:\Users\SOLDER~1\AppData\Local\Temp\ccYCTqm0.s:28007  .debug_str:0000000000014ba4 .LASF1393
C:\Users\SOLDER~1\AppData\Local\Temp\ccYCTqm0.s:27041  .debug_str:0000000000010ce5 .LASF1394
C:\Users\SOLDER~1\AppData\Local\Temp\ccYCTqm0.s:27225  .debug_str:0000000000011899 .LASF1395
C:\Users\SOLDER~1\AppData\Local\Temp\ccYCTqm0.s:32195  .debug_str:0000000000025849 .LASF1396
C:\Users\SOLDER~1\AppData\Local\Temp\ccYCTqm0.s:24453  .debug_str:0000000000006575 .LASF1397
C:\Users\SOLDER~1\AppData\Local\Temp\ccYCTqm0.s:26507  .debug_str:000000000000eaef .LASF1398
GAS LISTING C:\Users\SOLDER~1\AppData\Local\Temp\ccYCTqm0.s 			page 129


C:\Users\SOLDER~1\AppData\Local\Temp\ccYCTqm0.s:31947  .debug_str:000000000002484d .LASF1399
C:\Users\SOLDER~1\AppData\Local\Temp\ccYCTqm0.s:29553  .debug_str:000000000001aed2 .LASF1400
C:\Users\SOLDER~1\AppData\Local\Temp\ccYCTqm0.s:30205  .debug_str:000000000001d864 .LASF1401
C:\Users\SOLDER~1\AppData\Local\Temp\ccYCTqm0.s:25719  .debug_str:000000000000b7e5 .LASF1402
C:\Users\SOLDER~1\AppData\Local\Temp\ccYCTqm0.s:32071  .debug_str:000000000002507d .LASF1403
C:\Users\SOLDER~1\AppData\Local\Temp\ccYCTqm0.s:33277  .debug_str:0000000000029f10 .LASF1404
C:\Users\SOLDER~1\AppData\Local\Temp\ccYCTqm0.s:28169  .debug_str:0000000000015666 .LASF1405
C:\Users\SOLDER~1\AppData\Local\Temp\ccYCTqm0.s:29837  .debug_str:000000000001c05c .LASF1406
C:\Users\SOLDER~1\AppData\Local\Temp\ccYCTqm0.s:28887  .debug_str:0000000000018487 .LASF1407
C:\Users\SOLDER~1\AppData\Local\Temp\ccYCTqm0.s:30587  .debug_str:000000000001f0a0 .LASF1408
C:\Users\SOLDER~1\AppData\Local\Temp\ccYCTqm0.s:29485  .debug_str:000000000001aa6a .LASF1409
C:\Users\SOLDER~1\AppData\Local\Temp\ccYCTqm0.s:24141  .debug_str:0000000000005116 .LASF1410
C:\Users\SOLDER~1\AppData\Local\Temp\ccYCTqm0.s:24007  .debug_str:00000000000048c4 .LASF1411
C:\Users\SOLDER~1\AppData\Local\Temp\ccYCTqm0.s:24763  .debug_str:00000000000079c7 .LASF1412
C:\Users\SOLDER~1\AppData\Local\Temp\ccYCTqm0.s:31857  .debug_str:000000000002427b .LASF1413
C:\Users\SOLDER~1\AppData\Local\Temp\ccYCTqm0.s:28493  .debug_str:0000000000016aa5 .LASF1414
C:\Users\SOLDER~1\AppData\Local\Temp\ccYCTqm0.s:26703  .debug_str:000000000000f75b .LASF1415
C:\Users\SOLDER~1\AppData\Local\Temp\ccYCTqm0.s:29443  .debug_str:000000000001a79c .LASF1416
C:\Users\SOLDER~1\AppData\Local\Temp\ccYCTqm0.s:30263  .debug_str:000000000001dbe3 .LASF1417
C:\Users\SOLDER~1\AppData\Local\Temp\ccYCTqm0.s:23121  .debug_str:000000000000102a .LASF1418
C:\Users\SOLDER~1\AppData\Local\Temp\ccYCTqm0.s:33861  .debug_str:000000000002c543 .LASF1419
C:\Users\SOLDER~1\AppData\Local\Temp\ccYCTqm0.s:29981  .debug_str:000000000001c9b0 .LASF1420
C:\Users\SOLDER~1\AppData\Local\Temp\ccYCTqm0.s:23067  .debug_str:0000000000000ceb .LASF1421
C:\Users\SOLDER~1\AppData\Local\Temp\ccYCTqm0.s:29447  .debug_str:000000000001a7e9 .LASF1422
C:\Users\SOLDER~1\AppData\Local\Temp\ccYCTqm0.s:24607  .debug_str:0000000000006f8a .LASF1423
C:\Users\SOLDER~1\AppData\Local\Temp\ccYCTqm0.s:34321  .debug_str:000000000002e28e .LASF1424
C:\Users\SOLDER~1\AppData\Local\Temp\ccYCTqm0.s:24173  .debug_str:0000000000005303 .LASF1425
C:\Users\SOLDER~1\AppData\Local\Temp\ccYCTqm0.s:33133  .debug_str:00000000000295e6 .LASF1426
C:\Users\SOLDER~1\AppData\Local\Temp\ccYCTqm0.s:23399  .debug_str:00000000000021fe .LASF1427
C:\Users\SOLDER~1\AppData\Local\Temp\ccYCTqm0.s:28373  .debug_str:000000000001637d .LASF1428
C:\Users\SOLDER~1\AppData\Local\Temp\ccYCTqm0.s:32339  .debug_str:0000000000026203 .LASF1429
C:\Users\SOLDER~1\AppData\Local\Temp\ccYCTqm0.s:34431  .debug_str:000000000002e965 .LASF1430
C:\Users\SOLDER~1\AppData\Local\Temp\ccYCTqm0.s:23693  .debug_str:00000000000034f3 .LASF1431
C:\Users\SOLDER~1\AppData\Local\Temp\ccYCTqm0.s:25737  .debug_str:000000000000b8ec .LASF1432
C:\Users\SOLDER~1\AppData\Local\Temp\ccYCTqm0.s:26425  .debug_str:000000000000e5da .LASF1433
C:\Users\SOLDER~1\AppData\Local\Temp\ccYCTqm0.s:33629  .debug_str:000000000002b64b .LASF1434
C:\Users\SOLDER~1\AppData\Local\Temp\ccYCTqm0.s:30411  .debug_str:000000000001e53d .LASF1435
C:\Users\SOLDER~1\AppData\Local\Temp\ccYCTqm0.s:25023  .debug_str:0000000000008a6a .LASF1436
C:\Users\SOLDER~1\AppData\Local\Temp\ccYCTqm0.s:24075  .debug_str:0000000000004d1c .LASF1437
C:\Users\SOLDER~1\AppData\Local\Temp\ccYCTqm0.s:26035  .debug_str:000000000000cbf9 .LASF1438
C:\Users\SOLDER~1\AppData\Local\Temp\ccYCTqm0.s:33177  .debug_str:00000000000298ec .LASF1439
C:\Users\SOLDER~1\AppData\Local\Temp\ccYCTqm0.s:27593  .debug_str:0000000000012fe6 .LASF1440
C:\Users\SOLDER~1\AppData\Local\Temp\ccYCTqm0.s:33795  .debug_str:000000000002c0cf .LASF1441
C:\Users\SOLDER~1\AppData\Local\Temp\ccYCTqm0.s:28429  .debug_str:00000000000166ff .LASF1442
C:\Users\SOLDER~1\AppData\Local\Temp\ccYCTqm0.s:28387  .debug_str:0000000000016443 .LASF1443
C:\Users\SOLDER~1\AppData\Local\Temp\ccYCTqm0.s:30025  .debug_str:000000000001ccba .LASF1444
C:\Users\SOLDER~1\AppData\Local\Temp\ccYCTqm0.s:24523  .debug_str:0000000000006a4e .LASF1445
C:\Users\SOLDER~1\AppData\Local\Temp\ccYCTqm0.s:26499  .debug_str:000000000000ea7b .LASF1446
C:\Users\SOLDER~1\AppData\Local\Temp\ccYCTqm0.s:29299  .debug_str:0000000000019e98 .LASF1447
C:\Users\SOLDER~1\AppData\Local\Temp\ccYCTqm0.s:33745  .debug_str:000000000002bd98 .LASF1448
C:\Users\SOLDER~1\AppData\Local\Temp\ccYCTqm0.s:25035  .debug_str:0000000000008b2b .LASF1449
C:\Users\SOLDER~1\AppData\Local\Temp\ccYCTqm0.s:31011  .debug_str:0000000000020c2f .LASF1450
C:\Users\SOLDER~1\AppData\Local\Temp\ccYCTqm0.s:27903  .debug_str:000000000001449f .LASF1451
C:\Users\SOLDER~1\AppData\Local\Temp\ccYCTqm0.s:26193  .debug_str:000000000000d67a .LASF1452
C:\Users\SOLDER~1\AppData\Local\Temp\ccYCTqm0.s:24091  .debug_str:0000000000004e2a .LASF1453
C:\Users\SOLDER~1\AppData\Local\Temp\ccYCTqm0.s:25621  .debug_str:000000000000b193 .LASF1454
C:\Users\SOLDER~1\AppData\Local\Temp\ccYCTqm0.s:32501  .debug_str:0000000000026cf0 .LASF1455
GAS LISTING C:\Users\SOLDER~1\AppData\Local\Temp\ccYCTqm0.s 			page 130


C:\Users\SOLDER~1\AppData\Local\Temp\ccYCTqm0.s:23047  .debug_str:0000000000000b8d .LASF1456
C:\Users\SOLDER~1\AppData\Local\Temp\ccYCTqm0.s:32063  .debug_str:000000000002500c .LASF1457
C:\Users\SOLDER~1\AppData\Local\Temp\ccYCTqm0.s:29291  .debug_str:0000000000019e16 .LASF1458
C:\Users\SOLDER~1\AppData\Local\Temp\ccYCTqm0.s:31301  .debug_str:0000000000021eca .LASF1459
C:\Users\SOLDER~1\AppData\Local\Temp\ccYCTqm0.s:24485  .debug_str:000000000000679b .LASF1460
C:\Users\SOLDER~1\AppData\Local\Temp\ccYCTqm0.s:28627  .debug_str:00000000000172f5 .LASF1461
C:\Users\SOLDER~1\AppData\Local\Temp\ccYCTqm0.s:28553  .debug_str:0000000000016e72 .LASF1462
C:\Users\SOLDER~1\AppData\Local\Temp\ccYCTqm0.s:24411  .debug_str:000000000000628f .LASF1463
C:\Users\SOLDER~1\AppData\Local\Temp\ccYCTqm0.s:33651  .debug_str:000000000002b77d .LASF1464
C:\Users\SOLDER~1\AppData\Local\Temp\ccYCTqm0.s:34349  .debug_str:000000000002e460 .LASF1465
C:\Users\SOLDER~1\AppData\Local\Temp\ccYCTqm0.s:29853  .debug_str:000000000001c191 .LASF1466
C:\Users\SOLDER~1\AppData\Local\Temp\ccYCTqm0.s:24563  .debug_str:0000000000006d07 .LASF1467
C:\Users\SOLDER~1\AppData\Local\Temp\ccYCTqm0.s:25603  .debug_str:000000000000b062 .LASF1468
C:\Users\SOLDER~1\AppData\Local\Temp\ccYCTqm0.s:30247  .debug_str:000000000001dae8 .LASF1469
C:\Users\SOLDER~1\AppData\Local\Temp\ccYCTqm0.s:28831  .debug_str:0000000000018091 .LASF1470
C:\Users\SOLDER~1\AppData\Local\Temp\ccYCTqm0.s:25811  .debug_str:000000000000bd3b .LASF1471
C:\Users\SOLDER~1\AppData\Local\Temp\ccYCTqm0.s:31783  .debug_str:0000000000023dc3 .LASF1472
C:\Users\SOLDER~1\AppData\Local\Temp\ccYCTqm0.s:26337  .debug_str:000000000000df9b .LASF1473
C:\Users\SOLDER~1\AppData\Local\Temp\ccYCTqm0.s:32709  .debug_str:0000000000027a9f .LASF1474
C:\Users\SOLDER~1\AppData\Local\Temp\ccYCTqm0.s:32675  .debug_str:0000000000027868 .LASF1475
C:\Users\SOLDER~1\AppData\Local\Temp\ccYCTqm0.s:33409  .debug_str:000000000002a819 .LASF1476
C:\Users\SOLDER~1\AppData\Local\Temp\ccYCTqm0.s:28897  .debug_str:0000000000018536 .LASF1477
C:\Users\SOLDER~1\AppData\Local\Temp\ccYCTqm0.s:25411  .debug_str:000000000000a3e1 .LASF1478
C:\Users\SOLDER~1\AppData\Local\Temp\ccYCTqm0.s:23549  .debug_str:0000000000002bb4 .LASF1479
C:\Users\SOLDER~1\AppData\Local\Temp\ccYCTqm0.s:26287  .debug_str:000000000000dc9a .LASF1480
C:\Users\SOLDER~1\AppData\Local\Temp\ccYCTqm0.s:34407  .debug_str:000000000002e7eb .LASF1481
C:\Users\SOLDER~1\AppData\Local\Temp\ccYCTqm0.s:27255  .debug_str:0000000000011a7b .LASF1482
C:\Users\SOLDER~1\AppData\Local\Temp\ccYCTqm0.s:26291  .debug_str:000000000000dce1 .LASF1483
C:\Users\SOLDER~1\AppData\Local\Temp\ccYCTqm0.s:34099  .debug_str:000000000002d458 .LASF1484
C:\Users\SOLDER~1\AppData\Local\Temp\ccYCTqm0.s:31977  .debug_str:0000000000024a4d .LASF1485
C:\Users\SOLDER~1\AppData\Local\Temp\ccYCTqm0.s:33445  .debug_str:000000000002aa69 .LASF1486
C:\Users\SOLDER~1\AppData\Local\Temp\ccYCTqm0.s:28783  .debug_str:0000000000017d8a .LASF1487
C:\Users\SOLDER~1\AppData\Local\Temp\ccYCTqm0.s:26077  .debug_str:000000000000cec3 .LASF1488
C:\Users\SOLDER~1\AppData\Local\Temp\ccYCTqm0.s:28339  .debug_str:000000000001610a .LASF1489
C:\Users\SOLDER~1\AppData\Local\Temp\ccYCTqm0.s:25455  .debug_str:000000000000a6b3 .LASF1490
C:\Users\SOLDER~1\AppData\Local\Temp\ccYCTqm0.s:24425  .debug_str:000000000000639f .LASF1491
C:\Users\SOLDER~1\AppData\Local\Temp\ccYCTqm0.s:32443  .debug_str:0000000000026930 .LASF1492
C:\Users\SOLDER~1\AppData\Local\Temp\ccYCTqm0.s:24807  .debug_str:0000000000007c56 .LASF1493
C:\Users\SOLDER~1\AppData\Local\Temp\ccYCTqm0.s:26863  .debug_str:000000000001021a .LASF1494
C:\Users\SOLDER~1\AppData\Local\Temp\ccYCTqm0.s:32295  .debug_str:0000000000025f16 .LASF1495
C:\Users\SOLDER~1\AppData\Local\Temp\ccYCTqm0.s:29873  .debug_str:000000000001c2ee .LASF1496
C:\Users\SOLDER~1\AppData\Local\Temp\ccYCTqm0.s:23733  .debug_str:000000000000377d .LASF1497
C:\Users\SOLDER~1\AppData\Local\Temp\ccYCTqm0.s:26059  .debug_str:000000000000cd99 .LASF1498
C:\Users\SOLDER~1\AppData\Local\Temp\ccYCTqm0.s:34457  .debug_str:000000000002eb20 .LASF1499
C:\Users\SOLDER~1\AppData\Local\Temp\ccYCTqm0.s:33505  .debug_str:000000000002addb .LASF1500
C:\Users\SOLDER~1\AppData\Local\Temp\ccYCTqm0.s:28521  .debug_str:0000000000016c55 .LASF1501
C:\Users\SOLDER~1\AppData\Local\Temp\ccYCTqm0.s:23541  .debug_str:0000000000002b42 .LASF1502
C:\Users\SOLDER~1\AppData\Local\Temp\ccYCTqm0.s:30055  .debug_str:000000000001cec4 .LASF1503
C:\Users\SOLDER~1\AppData\Local\Temp\ccYCTqm0.s:24451  .debug_str:0000000000006551 .LASF1504
C:\Users\SOLDER~1\AppData\Local\Temp\ccYCTqm0.s:30681  .debug_str:000000000001f6f5 .LASF1505
C:\Users\SOLDER~1\AppData\Local\Temp\ccYCTqm0.s:25361  .debug_str:000000000000a091 .LASF1506
C:\Users\SOLDER~1\AppData\Local\Temp\ccYCTqm0.s:25327  .debug_str:0000000000009e50 .LASF1507
C:\Users\SOLDER~1\AppData\Local\Temp\ccYCTqm0.s:28703  .debug_str:000000000001782d .LASF1508
C:\Users\SOLDER~1\AppData\Local\Temp\ccYCTqm0.s:33085  .debug_str:00000000000292cf .LASF1509
C:\Users\SOLDER~1\AppData\Local\Temp\ccYCTqm0.s:30461  .debug_str:000000000001e842 .LASF1510
C:\Users\SOLDER~1\AppData\Local\Temp\ccYCTqm0.s:27911  .debug_str:000000000001453c .LASF1511
C:\Users\SOLDER~1\AppData\Local\Temp\ccYCTqm0.s:30623  .debug_str:000000000001f2fa .LASF1512
GAS LISTING C:\Users\SOLDER~1\AppData\Local\Temp\ccYCTqm0.s 			page 131


C:\Users\SOLDER~1\AppData\Local\Temp\ccYCTqm0.s:30609  .debug_str:000000000001f20f .LASF1513
C:\Users\SOLDER~1\AppData\Local\Temp\ccYCTqm0.s:23439  .debug_str:00000000000024ba .LASF1514
C:\Users\SOLDER~1\AppData\Local\Temp\ccYCTqm0.s:34205  .debug_str:000000000002db2a .LASF1515
C:\Users\SOLDER~1\AppData\Local\Temp\ccYCTqm0.s:30313  .debug_str:000000000001deb5 .LASF1516
C:\Users\SOLDER~1\AppData\Local\Temp\ccYCTqm0.s:31207  .debug_str:00000000000218d3 .LASF1517
C:\Users\SOLDER~1\AppData\Local\Temp\ccYCTqm0.s:29673  .debug_str:000000000001b661 .LASF1518
C:\Users\SOLDER~1\AppData\Local\Temp\ccYCTqm0.s:24955  .debug_str:000000000000861c .LASF1519
C:\Users\SOLDER~1\AppData\Local\Temp\ccYCTqm0.s:34565  .debug_str:000000000002f22f .LASF1520
C:\Users\SOLDER~1\AppData\Local\Temp\ccYCTqm0.s:32027  .debug_str:0000000000024d8c .LASF1521
C:\Users\SOLDER~1\AppData\Local\Temp\ccYCTqm0.s:33371  .debug_str:000000000002a581 .LASF1522
C:\Users\SOLDER~1\AppData\Local\Temp\ccYCTqm0.s:23655  .debug_str:000000000000327a .LASF1523
C:\Users\SOLDER~1\AppData\Local\Temp\ccYCTqm0.s:28735  .debug_str:0000000000017a6d .LASF1524
C:\Users\SOLDER~1\AppData\Local\Temp\ccYCTqm0.s:32695  .debug_str:00000000000279b8 .LASF1525
C:\Users\SOLDER~1\AppData\Local\Temp\ccYCTqm0.s:22955  .debug_str:000000000000049d .LASF1526
C:\Users\SOLDER~1\AppData\Local\Temp\ccYCTqm0.s:28577  .debug_str:0000000000016fc7 .LASF1527
C:\Users\SOLDER~1\AppData\Local\Temp\ccYCTqm0.s:25991  .debug_str:000000000000c92b .LASF1528
C:\Users\SOLDER~1\AppData\Local\Temp\ccYCTqm0.s:26783  .debug_str:000000000000fc6f .LASF1529
C:\Users\SOLDER~1\AppData\Local\Temp\ccYCTqm0.s:24929  .debug_str:000000000000847c .LASF1530
C:\Users\SOLDER~1\AppData\Local\Temp\ccYCTqm0.s:31563  .debug_str:0000000000022f94 .LASF1531
C:\Users\SOLDER~1\AppData\Local\Temp\ccYCTqm0.s:29743  .debug_str:000000000001ba7f .LASF1532
C:\Users\SOLDER~1\AppData\Local\Temp\ccYCTqm0.s:24481  .debug_str:0000000000006753 .LASF1533
C:\Users\SOLDER~1\AppData\Local\Temp\ccYCTqm0.s:26375  .debug_str:000000000000e22b .LASF1534
C:\Users\SOLDER~1\AppData\Local\Temp\ccYCTqm0.s:34399  .debug_str:000000000002e75e .LASF1535
C:\Users\SOLDER~1\AppData\Local\Temp\ccYCTqm0.s:28841  .debug_str:0000000000018138 .LASF1536
C:\Users\SOLDER~1\AppData\Local\Temp\ccYCTqm0.s:23289  .debug_str:0000000000001ab2 .LASF1537
C:\Users\SOLDER~1\AppData\Local\Temp\ccYCTqm0.s:29713  .debug_str:000000000001b8a5 .LASF1538
C:\Users\SOLDER~1\AppData\Local\Temp\ccYCTqm0.s:29579  .debug_str:000000000001b079 .LASF1539
C:\Users\SOLDER~1\AppData\Local\Temp\ccYCTqm0.s:30293  .debug_str:000000000001dd8e .LASF1540
C:\Users\SOLDER~1\AppData\Local\Temp\ccYCTqm0.s:25727  .debug_str:000000000000b86e .LASF1541
C:\Users\SOLDER~1\AppData\Local\Temp\ccYCTqm0.s:34003  .debug_str:000000000002cdee .LASF1542
C:\Users\SOLDER~1\AppData\Local\Temp\ccYCTqm0.s:32117  .debug_str:0000000000025388 .LASF1543
C:\Users\SOLDER~1\AppData\Local\Temp\ccYCTqm0.s:23239  .debug_str:0000000000001792 .LASF1544
C:\Users\SOLDER~1\AppData\Local\Temp\ccYCTqm0.s:26841  .debug_str:00000000000100a5 .LASF1545
C:\Users\SOLDER~1\AppData\Local\Temp\ccYCTqm0.s:31333  .debug_str:00000000000220cb .LASF1546
C:\Users\SOLDER~1\AppData\Local\Temp\ccYCTqm0.s:30415  .debug_str:000000000001e588 .LASF1547
C:\Users\SOLDER~1\AppData\Local\Temp\ccYCTqm0.s:26533  .debug_str:000000000000ecce .LASF1548
C:\Users\SOLDER~1\AppData\Local\Temp\ccYCTqm0.s:34263  .debug_str:000000000002dee7 .LASF1549
C:\Users\SOLDER~1\AppData\Local\Temp\ccYCTqm0.s:24853  .debug_str:0000000000007f39 .LASF1550
C:\Users\SOLDER~1\AppData\Local\Temp\ccYCTqm0.s:32837  .debug_str:0000000000028305 .LASF1551
C:\Users\SOLDER~1\AppData\Local\Temp\ccYCTqm0.s:31195  .debug_str:000000000002180b .LASF1552
C:\Users\SOLDER~1\AppData\Local\Temp\ccYCTqm0.s:23377  .debug_str:00000000000020ae .LASF1553
C:\Users\SOLDER~1\AppData\Local\Temp\ccYCTqm0.s:29611  .debug_str:000000000001b2b1 .LASF1554
C:\Users\SOLDER~1\AppData\Local\Temp\ccYCTqm0.s:31533  .debug_str:0000000000022d7c .LASF1555
C:\Users\SOLDER~1\AppData\Local\Temp\ccYCTqm0.s:24909  .debug_str:0000000000008327 .LASF1556
C:\Users\SOLDER~1\AppData\Local\Temp\ccYCTqm0.s:28961  .debug_str:0000000000018909 .LASF1557
C:\Users\SOLDER~1\AppData\Local\Temp\ccYCTqm0.s:30871  .debug_str:0000000000020355 .LASF1558
C:\Users\SOLDER~1\AppData\Local\Temp\ccYCTqm0.s:24759  .debug_str:000000000000798b .LASF1559
C:\Users\SOLDER~1\AppData\Local\Temp\ccYCTqm0.s:33909  .debug_str:000000000002c83b .LASF1560
C:\Users\SOLDER~1\AppData\Local\Temp\ccYCTqm0.s:22965  .debug_str:000000000000053a .LASF1561
C:\Users\SOLDER~1\AppData\Local\Temp\ccYCTqm0.s:30091  .debug_str:000000000001d127 .LASF1562
C:\Users\SOLDER~1\AppData\Local\Temp\ccYCTqm0.s:26895  .debug_str:000000000001042c .LASF1563
C:\Users\SOLDER~1\AppData\Local\Temp\ccYCTqm0.s:25939  .debug_str:000000000000c591 .LASF1564
C:\Users\SOLDER~1\AppData\Local\Temp\ccYCTqm0.s:32587  .debug_str:0000000000027284 .LASF1565
C:\Users\SOLDER~1\AppData\Local\Temp\ccYCTqm0.s:28743  .debug_str:0000000000017af4 .LASF1566
C:\Users\SOLDER~1\AppData\Local\Temp\ccYCTqm0.s:27051  .debug_str:0000000000010d9d .LASF1567
C:\Users\SOLDER~1\AppData\Local\Temp\ccYCTqm0.s:33115  .debug_str:00000000000294a1 .LASF1568
C:\Users\SOLDER~1\AppData\Local\Temp\ccYCTqm0.s:27539  .debug_str:0000000000012c25 .LASF1569
GAS LISTING C:\Users\SOLDER~1\AppData\Local\Temp\ccYCTqm0.s 			page 132


C:\Users\SOLDER~1\AppData\Local\Temp\ccYCTqm0.s:33939  .debug_str:000000000002ca25 .LASF1570
C:\Users\SOLDER~1\AppData\Local\Temp\ccYCTqm0.s:33907  .debug_str:000000000002c817 .LASF1571
C:\Users\SOLDER~1\AppData\Local\Temp\ccYCTqm0.s:22925  .debug_str:00000000000002b9 .LASF1572
C:\Users\SOLDER~1\AppData\Local\Temp\ccYCTqm0.s:30067  .debug_str:000000000001cfa6 .LASF1573
C:\Users\SOLDER~1\AppData\Local\Temp\ccYCTqm0.s:26645  .debug_str:000000000000f3aa .LASF1574
C:\Users\SOLDER~1\AppData\Local\Temp\ccYCTqm0.s:24865  .debug_str:000000000000802f .LASF1575
C:\Users\SOLDER~1\AppData\Local\Temp\ccYCTqm0.s:27491  .debug_str:0000000000012955 .LASF1576
C:\Users\SOLDER~1\AppData\Local\Temp\ccYCTqm0.s:23019  .debug_str:0000000000000981 .LASF1577
C:\Users\SOLDER~1\AppData\Local\Temp\ccYCTqm0.s:27583  .debug_str:0000000000012f39 .LASF1578
C:\Users\SOLDER~1\AppData\Local\Temp\ccYCTqm0.s:26635  .debug_str:000000000000f2fd .LASF1579
C:\Users\SOLDER~1\AppData\Local\Temp\ccYCTqm0.s:34359  .debug_str:000000000002e4f3 .LASF1580
C:\Users\SOLDER~1\AppData\Local\Temp\ccYCTqm0.s:32235  .debug_str:0000000000025ae6 .LASF1581
C:\Users\SOLDER~1\AppData\Local\Temp\ccYCTqm0.s:33785  .debug_str:000000000002c018 .LASF1582
C:\Users\SOLDER~1\AppData\Local\Temp\ccYCTqm0.s:29107  .debug_str:0000000000019279 .LASF1583
C:\Users\SOLDER~1\AppData\Local\Temp\ccYCTqm0.s:25363  .debug_str:000000000000a0b5 .LASF1584
C:\Users\SOLDER~1\AppData\Local\Temp\ccYCTqm0.s:28597  .debug_str:00000000000170fd .LASF1585
C:\Users\SOLDER~1\AppData\Local\Temp\ccYCTqm0.s:25809  .debug_str:000000000000bd16 .LASF1586
C:\Users\SOLDER~1\AppData\Local\Temp\ccYCTqm0.s:27817  .debug_str:0000000000013f16 .LASF1587
C:\Users\SOLDER~1\AppData\Local\Temp\ccYCTqm0.s:32787  .debug_str:0000000000027f92 .LASF1588
C:\Users\SOLDER~1\AppData\Local\Temp\ccYCTqm0.s:25137  .debug_str:00000000000091d8 .LASF1589
C:\Users\SOLDER~1\AppData\Local\Temp\ccYCTqm0.s:27111  .debug_str:0000000000011135 .LASF1590
C:\Users\SOLDER~1\AppData\Local\Temp\ccYCTqm0.s:32549  .debug_str:000000000002703e .LASF1591
C:\Users\SOLDER~1\AppData\Local\Temp\ccYCTqm0.s:30115  .debug_str:000000000001d2cd .LASF1592
C:\Users\SOLDER~1\AppData\Local\Temp\ccYCTqm0.s:32801  .debug_str:0000000000028093 .LASF1593
C:\Users\SOLDER~1\AppData\Local\Temp\ccYCTqm0.s:26311  .debug_str:000000000000de02 .LASF1594
C:\Users\SOLDER~1\AppData\Local\Temp\ccYCTqm0.s:23073  .debug_str:0000000000000d55 .LASF1595
C:\Users\SOLDER~1\AppData\Local\Temp\ccYCTqm0.s:33855  .debug_str:000000000002c4d7 .LASF1596
C:\Users\SOLDER~1\AppData\Local\Temp\ccYCTqm0.s:28779  .debug_str:0000000000017d41 .LASF1597
C:\Users\SOLDER~1\AppData\Local\Temp\ccYCTqm0.s:31677  .debug_str:00000000000236f4 .LASF1598
C:\Users\SOLDER~1\AppData\Local\Temp\ccYCTqm0.s:33985  .debug_str:000000000002cce4 .LASF1599
C:\Users\SOLDER~1\AppData\Local\Temp\ccYCTqm0.s:28417  .debug_str:000000000001661f .LASF1600
C:\Users\SOLDER~1\AppData\Local\Temp\ccYCTqm0.s:22895  .debug_str:00000000000000f4 .LASF1601
C:\Users\SOLDER~1\AppData\Local\Temp\ccYCTqm0.s:29233  .debug_str:0000000000019ab6 .LASF1602
C:\Users\SOLDER~1\AppData\Local\Temp\ccYCTqm0.s:29197  .debug_str:0000000000019821 .LASF1603
C:\Users\SOLDER~1\AppData\Local\Temp\ccYCTqm0.s:29893  .debug_str:000000000001c41a .LASF1604
C:\Users\SOLDER~1\AppData\Local\Temp\ccYCTqm0.s:25333  .debug_str:0000000000009eaf .LASF1605
C:\Users\SOLDER~1\AppData\Local\Temp\ccYCTqm0.s:33593  .debug_str:000000000002b39e .LASF1606
C:\Users\SOLDER~1\AppData\Local\Temp\ccYCTqm0.s:31779  .debug_str:0000000000023d86 .LASF1607
C:\Users\SOLDER~1\AppData\Local\Temp\ccYCTqm0.s:34473  .debug_str:000000000002ec40 .LASF1608
C:\Users\SOLDER~1\AppData\Local\Temp\ccYCTqm0.s:27893  .debug_str:00000000000143d4 .LASF1609
C:\Users\SOLDER~1\AppData\Local\Temp\ccYCTqm0.s:26411  .debug_str:000000000000e4cb .LASF1610
C:\Users\SOLDER~1\AppData\Local\Temp\ccYCTqm0.s:30743  .debug_str:000000000001fb33 .LASF1611
C:\Users\SOLDER~1\AppData\Local\Temp\ccYCTqm0.s:23593  .debug_str:0000000000002e64 .LASF1612
C:\Users\SOLDER~1\AppData\Local\Temp\ccYCTqm0.s:31083  .debug_str:00000000000210a8 .LASF1613
C:\Users\SOLDER~1\AppData\Local\Temp\ccYCTqm0.s:32595  .debug_str:000000000002730a .LASF1614
C:\Users\SOLDER~1\AppData\Local\Temp\ccYCTqm0.s:27923  .debug_str:0000000000014610 .LASF1615
C:\Users\SOLDER~1\AppData\Local\Temp\ccYCTqm0.s:24991  .debug_str:0000000000008873 .LASF1616
C:\Users\SOLDER~1\AppData\Local\Temp\ccYCTqm0.s:27399  .debug_str:000000000001238e .LASF1617
C:\Users\SOLDER~1\AppData\Local\Temp\ccYCTqm0.s:24639  .debug_str:00000000000071d4 .LASF1618
C:\Users\SOLDER~1\AppData\Local\Temp\ccYCTqm0.s:26631  .debug_str:000000000000f2b2 .LASF1619
C:\Users\SOLDER~1\AppData\Local\Temp\ccYCTqm0.s:31605  .debug_str:000000000002323d .LASF1620
C:\Users\SOLDER~1\AppData\Local\Temp\ccYCTqm0.s:23941  .debug_str:00000000000044a3 .LASF1621
C:\Users\SOLDER~1\AppData\Local\Temp\ccYCTqm0.s:25905  .debug_str:000000000000c330 .LASF1622
C:\Users\SOLDER~1\AppData\Local\Temp\ccYCTqm0.s:31369  .debug_str:000000000002231b .LASF1623
C:\Users\SOLDER~1\AppData\Local\Temp\ccYCTqm0.s:28989  .debug_str:0000000000018ae0 .LASF1624
C:\Users\SOLDER~1\AppData\Local\Temp\ccYCTqm0.s:29727  .debug_str:000000000001b97b .LASF1625
C:\Users\SOLDER~1\AppData\Local\Temp\ccYCTqm0.s:25143  .debug_str:000000000000924b .LASF1626
GAS LISTING C:\Users\SOLDER~1\AppData\Local\Temp\ccYCTqm0.s 			page 133


C:\Users\SOLDER~1\AppData\Local\Temp\ccYCTqm0.s:28427  .debug_str:00000000000166d9 .LASF1627
C:\Users\SOLDER~1\AppData\Local\Temp\ccYCTqm0.s:32669  .debug_str:000000000002780c .LASF1628
C:\Users\SOLDER~1\AppData\Local\Temp\ccYCTqm0.s:32147  .debug_str:0000000000025544 .LASF1629
C:\Users\SOLDER~1\AppData\Local\Temp\ccYCTqm0.s:29267  .debug_str:0000000000019c86 .LASF1630
C:\Users\SOLDER~1\AppData\Local\Temp\ccYCTqm0.s:26627  .debug_str:000000000000f26c .LASF1631
C:\Users\SOLDER~1\AppData\Local\Temp\ccYCTqm0.s:32613  .debug_str:000000000002743c .LASF1632
C:\Users\SOLDER~1\AppData\Local\Temp\ccYCTqm0.s:27165  .debug_str:000000000001148d .LASF1633
C:\Users\SOLDER~1\AppData\Local\Temp\ccYCTqm0.s:33525  .debug_str:000000000002af42 .LASF1634
C:\Users\SOLDER~1\AppData\Local\Temp\ccYCTqm0.s:31865  .debug_str:00000000000242fb .LASF1635
C:\Users\SOLDER~1\AppData\Local\Temp\ccYCTqm0.s:34233  .debug_str:000000000002dd1d .LASF1636
C:\Users\SOLDER~1\AppData\Local\Temp\ccYCTqm0.s:29679  .debug_str:000000000001b6ca .LASF1637
C:\Users\SOLDER~1\AppData\Local\Temp\ccYCTqm0.s:26227  .debug_str:000000000000d8b0 .LASF1638
C:\Users\SOLDER~1\AppData\Local\Temp\ccYCTqm0.s:24353  .debug_str:0000000000005eae .LASF1639
C:\Users\SOLDER~1\AppData\Local\Temp\ccYCTqm0.s:27117  .debug_str:0000000000011195 .LASF1640
C:\Users\SOLDER~1\AppData\Local\Temp\ccYCTqm0.s:29789  .debug_str:000000000001bd51 .LASF1641
C:\Users\SOLDER~1\AppData\Local\Temp\ccYCTqm0.s:34335  .debug_str:000000000002e38a .LASF1642
C:\Users\SOLDER~1\AppData\Local\Temp\ccYCTqm0.s:33279  .debug_str:0000000000029f35 .LASF1643
C:\Users\SOLDER~1\AppData\Local\Temp\ccYCTqm0.s:29421  .debug_str:000000000001a646 .LASF1644
C:\Users\SOLDER~1\AppData\Local\Temp\ccYCTqm0.s:27311  .debug_str:0000000000011dfa .LASF1645
C:\Users\SOLDER~1\AppData\Local\Temp\ccYCTqm0.s:28875  .debug_str:00000000000183a8 .LASF1646
C:\Users\SOLDER~1\AppData\Local\Temp\ccYCTqm0.s:24097  .debug_str:0000000000004e8e .LASF1647
C:\Users\SOLDER~1\AppData\Local\Temp\ccYCTqm0.s:34013  .debug_str:000000000002ce99 .LASF1648
C:\Users\SOLDER~1\AppData\Local\Temp\ccYCTqm0.s:23589  .debug_str:0000000000002e23 .LASF1649
C:\Users\SOLDER~1\AppData\Local\Temp\ccYCTqm0.s:32529  .debug_str:0000000000026ee6 .LASF1650
C:\Users\SOLDER~1\AppData\Local\Temp\ccYCTqm0.s:34539  .debug_str:000000000002f0a9 .LASF1651
C:\Users\SOLDER~1\AppData\Local\Temp\ccYCTqm0.s:23703  .debug_str:00000000000035af .LASF1652
C:\Users\SOLDER~1\AppData\Local\Temp\ccYCTqm0.s:31835  .debug_str:0000000000024135 .LASF1653
C:\Users\SOLDER~1\AppData\Local\Temp\ccYCTqm0.s:33825  .debug_str:000000000002c296 .LASF1654
C:\Users\SOLDER~1\AppData\Local\Temp\ccYCTqm0.s:27629  .debug_str:000000000001322e .LASF1655
C:\Users\SOLDER~1\AppData\Local\Temp\ccYCTqm0.s:25163  .debug_str:00000000000093a6 .LASF1656
C:\Users\SOLDER~1\AppData\Local\Temp\ccYCTqm0.s:27939  .debug_str:000000000001471a .LASF1657
C:\Users\SOLDER~1\AppData\Local\Temp\ccYCTqm0.s:33027  .debug_str:0000000000028f5c .LASF1658
C:\Users\SOLDER~1\AppData\Local\Temp\ccYCTqm0.s:29831  .debug_str:000000000001c000 .LASF1659
C:\Users\SOLDER~1\AppData\Local\Temp\ccYCTqm0.s:28933  .debug_str:000000000001876f .LASF1660
C:\Users\SOLDER~1\AppData\Local\Temp\ccYCTqm0.s:23771  .debug_str:00000000000039d8 .LASF1661
C:\Users\SOLDER~1\AppData\Local\Temp\ccYCTqm0.s:25437  .debug_str:000000000000a5b6 .LASF1662
C:\Users\SOLDER~1\AppData\Local\Temp\ccYCTqm0.s:30855  .debug_str:0000000000020255 .LASF1663
C:\Users\SOLDER~1\AppData\Local\Temp\ccYCTqm0.s:25267  .debug_str:0000000000009a7c .LASF1664
C:\Users\SOLDER~1\AppData\Local\Temp\ccYCTqm0.s:31437  .debug_str:00000000000226fb .LASF1665
C:\Users\SOLDER~1\AppData\Local\Temp\ccYCTqm0.s:26173  .debug_str:000000000000d525 .LASF1666
C:\Users\SOLDER~1\AppData\Local\Temp\ccYCTqm0.s:26133  .debug_str:000000000000d291 .LASF1667
C:\Users\SOLDER~1\AppData\Local\Temp\ccYCTqm0.s:26891  .debug_str:00000000000103e4 .LASF1668
C:\Users\SOLDER~1\AppData\Local\Temp\ccYCTqm0.s:33913  .debug_str:000000000002c889 .LASF1669
C:\Users\SOLDER~1\AppData\Local\Temp\ccYCTqm0.s:30471  .debug_str:000000000001e8f3 .LASF1670
C:\Users\SOLDER~1\AppData\Local\Temp\ccYCTqm0.s:28751  .debug_str:0000000000017b8f .LASF1671
C:\Users\SOLDER~1\AppData\Local\Temp\ccYCTqm0.s:31383  .debug_str:00000000000223ec .LASF1672
C:\Users\SOLDER~1\AppData\Local\Temp\ccYCTqm0.s:25981  .debug_str:000000000000c866 .LASF1673
C:\Users\SOLDER~1\AppData\Local\Temp\ccYCTqm0.s:33721  .debug_str:000000000002bc18 .LASF1674
C:\Users\SOLDER~1\AppData\Local\Temp\ccYCTqm0.s:29507  .debug_str:000000000001abeb .LASF1675
C:\Users\SOLDER~1\AppData\Local\Temp\ccYCTqm0.s:25599  .debug_str:000000000000b018 .LASF1676
C:\Users\SOLDER~1\AppData\Local\Temp\ccYCTqm0.s:23505  .debug_str:00000000000028bf .LASF1677
C:\Users\SOLDER~1\AppData\Local\Temp\ccYCTqm0.s:25051  .debug_str:0000000000008c19 .LASF1678
C:\Users\SOLDER~1\AppData\Local\Temp\ccYCTqm0.s:31901  .debug_str:0000000000024555 .LASF1679
C:\Users\SOLDER~1\AppData\Local\Temp\ccYCTqm0.s:29931  .debug_str:000000000001c6cc .LASF1680
C:\Users\SOLDER~1\AppData\Local\Temp\ccYCTqm0.s:34017  .debug_str:000000000002ced7 .LASF1681
C:\Users\SOLDER~1\AppData\Local\Temp\ccYCTqm0.s:28811  .debug_str:0000000000017f3f .LASF1682
C:\Users\SOLDER~1\AppData\Local\Temp\ccYCTqm0.s:30751  .debug_str:000000000001fbc0 .LASF1683
GAS LISTING C:\Users\SOLDER~1\AppData\Local\Temp\ccYCTqm0.s 			page 134


C:\Users\SOLDER~1\AppData\Local\Temp\ccYCTqm0.s:24045  .debug_str:0000000000004b2d .LASF1684
C:\Users\SOLDER~1\AppData\Local\Temp\ccYCTqm0.s:28021  .debug_str:0000000000014cc3 .LASF1685
C:\Users\SOLDER~1\AppData\Local\Temp\ccYCTqm0.s:30041  .debug_str:000000000001cdba .LASF1686
C:\Users\SOLDER~1\AppData\Local\Temp\ccYCTqm0.s:23827  .debug_str:0000000000003d83 .LASF1687
C:\Users\SOLDER~1\AppData\Local\Temp\ccYCTqm0.s:33051  .debug_str:00000000000290c3 .LASF1688
C:\Users\SOLDER~1\AppData\Local\Temp\ccYCTqm0.s:33839  .debug_str:000000000002c3a3 .LASF1689
C:\Users\SOLDER~1\AppData\Local\Temp\ccYCTqm0.s:29293  .debug_str:0000000000019e3b .LASF1690
C:\Users\SOLDER~1\AppData\Local\Temp\ccYCTqm0.s:26027  .debug_str:000000000000cb87 .LASF1691
C:\Users\SOLDER~1\AppData\Local\Temp\ccYCTqm0.s:25113  .debug_str:000000000000903a .LASF1692
C:\Users\SOLDER~1\AppData\Local\Temp\ccYCTqm0.s:26539  .debug_str:000000000000ed26 .LASF1693
C:\Users\SOLDER~1\AppData\Local\Temp\ccYCTqm0.s:33355  .debug_str:000000000002a457 .LASF1694
C:\Users\SOLDER~1\AppData\Local\Temp\ccYCTqm0.s:23471  .debug_str:00000000000026af .LASF1695
C:\Users\SOLDER~1\AppData\Local\Temp\ccYCTqm0.s:29613  .debug_str:000000000001b2d6 .LASF1696
C:\Users\SOLDER~1\AppData\Local\Temp\ccYCTqm0.s:23697  .debug_str:0000000000003542 .LASF1697
C:\Users\SOLDER~1\AppData\Local\Temp\ccYCTqm0.s:30501  .debug_str:000000000001eb10 .LASF1698
C:\Users\SOLDER~1\AppData\Local\Temp\ccYCTqm0.s:30375  .debug_str:000000000001e308 .LASF1699
C:\Users\SOLDER~1\AppData\Local\Temp\ccYCTqm0.s:31085  .debug_str:00000000000210ce .LASF1700
C:\Users\SOLDER~1\AppData\Local\Temp\ccYCTqm0.s:26549  .debug_str:000000000000edd2 .LASF1701
C:\Users\SOLDER~1\AppData\Local\Temp\ccYCTqm0.s:23103  .debug_str:0000000000000f13 .LASF1702
C:\Users\SOLDER~1\AppData\Local\Temp\ccYCTqm0.s:33007  .debug_str:0000000000028e33 .LASF1703
C:\Users\SOLDER~1\AppData\Local\Temp\ccYCTqm0.s:24029  .debug_str:0000000000004a44 .LASF1704
C:\Users\SOLDER~1\AppData\Local\Temp\ccYCTqm0.s:33901  .debug_str:000000000002c7c7 .LASF1705
C:\Users\SOLDER~1\AppData\Local\Temp\ccYCTqm0.s:26671  .debug_str:000000000000f533 .LASF1706
C:\Users\SOLDER~1\AppData\Local\Temp\ccYCTqm0.s:25691  .debug_str:000000000000b5e0 .LASF1707
C:\Users\SOLDER~1\AppData\Local\Temp\ccYCTqm0.s:33503  .debug_str:000000000002adb5 .LASF1708
C:\Users\SOLDER~1\AppData\Local\Temp\ccYCTqm0.s:31393  .debug_str:000000000002248d .LASF1709
C:\Users\SOLDER~1\AppData\Local\Temp\ccYCTqm0.s:27709  .debug_str:0000000000013764 .LASF1710
C:\Users\SOLDER~1\AppData\Local\Temp\ccYCTqm0.s:28165  .debug_str:0000000000015630 .LASF1711
C:\Users\SOLDER~1\AppData\Local\Temp\ccYCTqm0.s:34439  .debug_str:000000000002ea00 .LASF1712
C:\Users\SOLDER~1\AppData\Local\Temp\ccYCTqm0.s:27755  .debug_str:0000000000013a8c .LASF1713
C:\Users\SOLDER~1\AppData\Local\Temp\ccYCTqm0.s:24985  .debug_str:00000000000087f5 .LASF1714
C:\Users\SOLDER~1\AppData\Local\Temp\ccYCTqm0.s:26989  .debug_str:00000000000109b3 .LASF1715
C:\Users\SOLDER~1\AppData\Local\Temp\ccYCTqm0.s:24731  .debug_str:00000000000077e3 .LASF1716
C:\Users\SOLDER~1\AppData\Local\Temp\ccYCTqm0.s:23413  .debug_str:00000000000022f8 .LASF1717
C:\Users\SOLDER~1\AppData\Local\Temp\ccYCTqm0.s:26251  .debug_str:000000000000da2e .LASF1718
C:\Users\SOLDER~1\AppData\Local\Temp\ccYCTqm0.s:31699  .debug_str:0000000000023877 .LASF1719
C:\Users\SOLDER~1\AppData\Local\Temp\ccYCTqm0.s:29313  .debug_str:0000000000019f87 .LASF1720
C:\Users\SOLDER~1\AppData\Local\Temp\ccYCTqm0.s:30053  .debug_str:000000000001ce9e .LASF1721
C:\Users\SOLDER~1\AppData\Local\Temp\ccYCTqm0.s:25457  .debug_str:000000000000a6d8 .LASF1722
C:\Users\SOLDER~1\AppData\Local\Temp\ccYCTqm0.s:33945  .debug_str:000000000002ca82 .LASF1723
C:\Users\SOLDER~1\AppData\Local\Temp\ccYCTqm0.s:33005  .debug_str:0000000000028e0d .LASF1724
C:\Users\SOLDER~1\AppData\Local\Temp\ccYCTqm0.s:27917  .debug_str:00000000000145b1 .LASF1725
C:\Users\SOLDER~1\AppData\Local\Temp\ccYCTqm0.s:29589  .debug_str:000000000001b14c .LASF1726
C:\Users\SOLDER~1\AppData\Local\Temp\ccYCTqm0.s:26229  .debug_str:000000000000d8d5 .LASF1727
C:\Users\SOLDER~1\AppData\Local\Temp\ccYCTqm0.s:32303  .debug_str:0000000000025f87 .LASF1728
C:\Users\SOLDER~1\AppData\Local\Temp\ccYCTqm0.s:26877  .debug_str:0000000000010309 .LASF1729
C:\Users\SOLDER~1\AppData\Local\Temp\ccYCTqm0.s:33247  .debug_str:0000000000029d1f .LASF1730
C:\Users\SOLDER~1\AppData\Local\Temp\ccYCTqm0.s:33203  .debug_str:0000000000029aa7 .LASF1731
C:\Users\SOLDER~1\AppData\Local\Temp\ccYCTqm0.s:33933  .debug_str:000000000002c9b7 .LASF1732
C:\Users\SOLDER~1\AppData\Local\Temp\ccYCTqm0.s:29401  .debug_str:000000000001a50e .LASF1733
C:\Users\SOLDER~1\AppData\Local\Temp\ccYCTqm0.s:25843  .debug_str:000000000000bf67 .LASF1734
C:\Users\SOLDER~1\AppData\Local\Temp\ccYCTqm0.s:24289  .debug_str:0000000000005a7c .LASF1735
C:\Users\SOLDER~1\AppData\Local\Temp\ccYCTqm0.s:26821  .debug_str:000000000000ff18 .LASF1736
C:\Users\SOLDER~1\AppData\Local\Temp\ccYCTqm0.s:28413  .debug_str:00000000000165e6 .LASF1737
C:\Users\SOLDER~1\AppData\Local\Temp\ccYCTqm0.s:23783  .debug_str:0000000000003a9c .LASF1738
C:\Users\SOLDER~1\AppData\Local\Temp\ccYCTqm0.s:24339  .debug_str:0000000000005df9 .LASF1739
C:\Users\SOLDER~1\AppData\Local\Temp\ccYCTqm0.s:32135  .debug_str:0000000000025498 .LASF1740
GAS LISTING C:\Users\SOLDER~1\AppData\Local\Temp\ccYCTqm0.s 			page 135


C:\Users\SOLDER~1\AppData\Local\Temp\ccYCTqm0.s:29995  .debug_str:000000000001cac3 .LASF1741
C:\Users\SOLDER~1\AppData\Local\Temp\ccYCTqm0.s:33883  .debug_str:000000000002c6c8 .LASF1742
C:\Users\SOLDER~1\AppData\Local\Temp\ccYCTqm0.s:26827  .debug_str:000000000000ff78 .LASF1743
C:\Users\SOLDER~1\AppData\Local\Temp\ccYCTqm0.s:24711  .debug_str:00000000000076a3 .LASF1744
C:\Users\SOLDER~1\AppData\Local\Temp\ccYCTqm0.s:26383  .debug_str:000000000000e2bb .LASF1745
C:\Users\SOLDER~1\AppData\Local\Temp\ccYCTqm0.s:31769  .debug_str:0000000000023d12 .LASF1746
C:\Users\SOLDER~1\AppData\Local\Temp\ccYCTqm0.s:25507  .debug_str:000000000000aa72 .LASF1747
C:\Users\SOLDER~1\AppData\Local\Temp\ccYCTqm0.s:30541  .debug_str:000000000001ede3 .LASF1748
C:\Users\SOLDER~1\AppData\Local\Temp\ccYCTqm0.s:34581  .debug_str:000000000002f33a .LASF1749
C:\Users\SOLDER~1\AppData\Local\Temp\ccYCTqm0.s:34021  .debug_str:000000000002cf1c .LASF1750
C:\Users\SOLDER~1\AppData\Local\Temp\ccYCTqm0.s:30401  .debug_str:000000000001e48f .LASF1751
C:\Users\SOLDER~1\AppData\Local\Temp\ccYCTqm0.s:24297  .debug_str:0000000000005b07 .LASF1752
C:\Users\SOLDER~1\AppData\Local\Temp\ccYCTqm0.s:28649  .debug_str:000000000001746e .LASF1753
C:\Users\SOLDER~1\AppData\Local\Temp\ccYCTqm0.s:24013  .debug_str:0000000000004934 .LASF1754
C:\Users\SOLDER~1\AppData\Local\Temp\ccYCTqm0.s:32477  .debug_str:0000000000026b5a .LASF1755
C:\Users\SOLDER~1\AppData\Local\Temp\ccYCTqm0.s:31541  .debug_str:0000000000022e1f .LASF1756
C:\Users\SOLDER~1\AppData\Local\Temp\ccYCTqm0.s:26563  .debug_str:000000000000eeb2 .LASF1757
C:\Users\SOLDER~1\AppData\Local\Temp\ccYCTqm0.s:28245  .debug_str:0000000000015b18 .LASF1758
C:\Users\SOLDER~1\AppData\Local\Temp\ccYCTqm0.s:30571  .debug_str:000000000001ef96 .LASF1759
C:\Users\SOLDER~1\AppData\Local\Temp\ccYCTqm0.s:24979  .debug_str:000000000000879b .LASF1760
C:\Users\SOLDER~1\AppData\Local\Temp\ccYCTqm0.s:31159  .debug_str:00000000000215ea .LASF1761
C:\Users\SOLDER~1\AppData\Local\Temp\ccYCTqm0.s:25869  .debug_str:000000000000c0e5 .LASF1762
C:\Users\SOLDER~1\AppData\Local\Temp\ccYCTqm0.s:23441  .debug_str:00000000000024df .LASF1763
C:\Users\SOLDER~1\AppData\Local\Temp\ccYCTqm0.s:26475  .debug_str:000000000000e924 .LASF1764
C:\Users\SOLDER~1\AppData\Local\Temp\ccYCTqm0.s:27347  .debug_str:0000000000012064 .LASF1765
C:\Users\SOLDER~1\AppData\Local\Temp\ccYCTqm0.s:30183  .debug_str:000000000001d6f0 .LASF1766
C:\Users\SOLDER~1\AppData\Local\Temp\ccYCTqm0.s:28433  .debug_str:000000000001673b .LASF1767
C:\Users\SOLDER~1\AppData\Local\Temp\ccYCTqm0.s:31117  .debug_str:00000000000212fe .LASF1768
C:\Users\SOLDER~1\AppData\Local\Temp\ccYCTqm0.s:28715  .debug_str:000000000001791d .LASF1769
C:\Users\SOLDER~1\AppData\Local\Temp\ccYCTqm0.s:33221  .debug_str:0000000000029b9c .LASF1770
C:\Users\SOLDER~1\AppData\Local\Temp\ccYCTqm0.s:32233  .debug_str:0000000000025ac1 .LASF1771
C:\Users\SOLDER~1\AppData\Local\Temp\ccYCTqm0.s:28409  .debug_str:00000000000165a6 .LASF1772
C:\Users\SOLDER~1\AppData\Local\Temp\ccYCTqm0.s:26203  .debug_str:000000000000d713 .LASF1773
C:\Users\SOLDER~1\AppData\Local\Temp\ccYCTqm0.s:27749  .debug_str:0000000000013a1e .LASF1774
C:\Users\SOLDER~1\AppData\Local\Temp\ccYCTqm0.s:23007  .debug_str:000000000000087c .LASF1775
C:\Users\SOLDER~1\AppData\Local\Temp\ccYCTqm0.s:32593  .debug_str:00000000000272e5 .LASF1776
C:\Users\SOLDER~1\AppData\Local\Temp\ccYCTqm0.s:34301  .debug_str:000000000002e14c .LASF1777
C:\Users\SOLDER~1\AppData\Local\Temp\ccYCTqm0.s:31411  .debug_str:000000000002257e .LASF1778
C:\Users\SOLDER~1\AppData\Local\Temp\ccYCTqm0.s:30839  .debug_str:0000000000020159 .LASF1779
C:\Users\SOLDER~1\AppData\Local\Temp\ccYCTqm0.s:26773  .debug_str:000000000000fbb6 .LASF1780
C:\Users\SOLDER~1\AppData\Local\Temp\ccYCTqm0.s:30781  .debug_str:000000000001fda2 .LASF1781
C:\Users\SOLDER~1\AppData\Local\Temp\ccYCTqm0.s:32701  .debug_str:0000000000027a20 .LASF1782
C:\Users\SOLDER~1\AppData\Local\Temp\ccYCTqm0.s:26619  .debug_str:000000000000f1eb .LASF1783
C:\Users\SOLDER~1\AppData\Local\Temp\ccYCTqm0.s:24033  .debug_str:0000000000004a83 .LASF1784
C:\Users\SOLDER~1\AppData\Local\Temp\ccYCTqm0.s:24829  .debug_str:0000000000007da3 .LASF1785
C:\Users\SOLDER~1\AppData\Local\Temp\ccYCTqm0.s:31907  .debug_str:00000000000245bc .LASF1786
C:\Users\SOLDER~1\AppData\Local\Temp\ccYCTqm0.s:28769  .debug_str:0000000000017c7f .LASF1787
C:\Users\SOLDER~1\AppData\Local\Temp\ccYCTqm0.s:27823  .debug_str:0000000000013f7a .LASF1788
C:\Users\SOLDER~1\AppData\Local\Temp\ccYCTqm0.s:34481  .debug_str:000000000002ecc5 .LASF1789
C:\Users\SOLDER~1\AppData\Local\Temp\ccYCTqm0.s:24335  .debug_str:0000000000005db0 .LASF1790
C:\Users\SOLDER~1\AppData\Local\Temp\ccYCTqm0.s:23193  .debug_str:00000000000014c0 .LASF1791
C:\Users\SOLDER~1\AppData\Local\Temp\ccYCTqm0.s:29335  .debug_str:000000000001a0f8 .LASF1792
C:\Users\SOLDER~1\AppData\Local\Temp\ccYCTqm0.s:23809  .debug_str:0000000000003c53 .LASF1793
C:\Users\SOLDER~1\AppData\Local\Temp\ccYCTqm0.s:30119  .debug_str:000000000001d31e .LASF1794
C:\Users\SOLDER~1\AppData\Local\Temp\ccYCTqm0.s:30081  .debug_str:000000000001d081 .LASF1795
C:\Users\SOLDER~1\AppData\Local\Temp\ccYCTqm0.s:30807  .debug_str:000000000001ff59 .LASF1796
C:\Users\SOLDER~1\AppData\Local\Temp\ccYCTqm0.s:26247  .debug_str:000000000000d9f4 .LASF1797
GAS LISTING C:\Users\SOLDER~1\AppData\Local\Temp\ccYCTqm0.s 			page 136


C:\Users\SOLDER~1\AppData\Local\Temp\ccYCTqm0.s:34521  .debug_str:000000000002ef8c .LASF1798
C:\Users\SOLDER~1\AppData\Local\Temp\ccYCTqm0.s:32713  .debug_str:0000000000027aef .LASF1799
C:\Users\SOLDER~1\AppData\Local\Temp\ccYCTqm0.s:23753  .debug_str:00000000000038ad .LASF1800
C:\Users\SOLDER~1\AppData\Local\Temp\ccYCTqm0.s:24889  .debug_str:00000000000081af .LASF1801
C:\Users\SOLDER~1\AppData\Local\Temp\ccYCTqm0.s:30673  .debug_str:000000000001f66e .LASF1802
C:\Users\SOLDER~1\AppData\Local\Temp\ccYCTqm0.s:28509  .debug_str:0000000000016b89 .LASF1803
C:\Users\SOLDER~1\AppData\Local\Temp\ccYCTqm0.s:24489  .debug_str:00000000000067e1 .LASF1804
C:\Users\SOLDER~1\AppData\Local\Temp\ccYCTqm0.s:34119  .debug_str:000000000002d5da .LASF1805
C:\Users\SOLDER~1\AppData\Local\Temp\ccYCTqm0.s:23911  .debug_str:00000000000042cf .LASF1806
C:\Users\SOLDER~1\AppData\Local\Temp\ccYCTqm0.s:30919  .debug_str:0000000000020644 .LASF1807
C:\Users\SOLDER~1\AppData\Local\Temp\ccYCTqm0.s:28723  .debug_str:000000000001799e .LASF1808
C:\Users\SOLDER~1\AppData\Local\Temp\ccYCTqm0.s:30417  .debug_str:000000000001e5ad .LASF1809
C:\Users\SOLDER~1\AppData\Local\Temp\ccYCTqm0.s:27675  .debug_str:000000000001351f .LASF1810
C:\Users\SOLDER~1\AppData\Local\Temp\ccYCTqm0.s:29653  .debug_str:000000000001b51e .LASF1811
C:\Users\SOLDER~1\AppData\Local\Temp\ccYCTqm0.s:22957  .debug_str:00000000000004c2 .LASF1812
C:\Users\SOLDER~1\AppData\Local\Temp\ccYCTqm0.s:27019  .debug_str:0000000000010b4d .LASF1813
C:\Users\SOLDER~1\AppData\Local\Temp\ccYCTqm0.s:28973  .debug_str:00000000000189ce .LASF1814
C:\Users\SOLDER~1\AppData\Local\Temp\ccYCTqm0.s:34445  .debug_str:000000000002ea62 .LASF1815
C:\Users\SOLDER~1\AppData\Local\Temp\ccYCTqm0.s:30369  .debug_str:000000000001e296 .LASF1816
C:\Users\SOLDER~1\AppData\Local\Temp\ccYCTqm0.s:33179  .debug_str:0000000000029910 .LASF1817
C:\Users\SOLDER~1\AppData\Local\Temp\ccYCTqm0.s:28179  .debug_str:0000000000015704 .LASF1818
C:\Users\SOLDER~1\AppData\Local\Temp\ccYCTqm0.s:24939  .debug_str:0000000000008519 .LASF1819
C:\Users\SOLDER~1\AppData\Local\Temp\ccYCTqm0.s:23983  .debug_str:000000000000472d .LASF1820
C:\Users\SOLDER~1\AppData\Local\Temp\ccYCTqm0.s:30585  .debug_str:000000000001f07b .LASF1821
C:\Users\SOLDER~1\AppData\Local\Temp\ccYCTqm0.s:32229  .debug_str:0000000000025a7a .LASF1822
C:\Users\SOLDER~1\AppData\Local\Temp\ccYCTqm0.s:27525  .debug_str:0000000000012b43 .LASF1823
C:\Users\SOLDER~1\AppData\Local\Temp\ccYCTqm0.s:33535  .debug_str:000000000002affb .LASF1824
C:\Users\SOLDER~1\AppData\Local\Temp\ccYCTqm0.s:28077  .debug_str:0000000000015089 .LASF1825
C:\Users\SOLDER~1\AppData\Local\Temp\ccYCTqm0.s:34467  .debug_str:000000000002ebc4 .LASF1826
C:\Users\SOLDER~1\AppData\Local\Temp\ccYCTqm0.s:32853  .debug_str:000000000002841c .LASF1827
C:\Users\SOLDER~1\AppData\Local\Temp\ccYCTqm0.s:23419  .debug_str:0000000000002366 .LASF1828
C:\Users\SOLDER~1\AppData\Local\Temp\ccYCTqm0.s:30577  .debug_str:000000000001eff3 .LASF1829
C:\Users\SOLDER~1\AppData\Local\Temp\ccYCTqm0.s:25331  .debug_str:0000000000009e8b .LASF1830
C:\Users\SOLDER~1\AppData\Local\Temp\ccYCTqm0.s:25279  .debug_str:0000000000009b47 .LASF1831
C:\Users\SOLDER~1\AppData\Local\Temp\ccYCTqm0.s:28023  .debug_str:0000000000014ce9 .LASF1832
C:\Users\SOLDER~1\AppData\Local\Temp\ccYCTqm0.s:32769  .debug_str:0000000000027e5b .LASF1833
C:\Users\SOLDER~1\AppData\Local\Temp\ccYCTqm0.s:25633  .debug_str:000000000000b249 .LASF1834
C:\Users\SOLDER~1\AppData\Local\Temp\ccYCTqm0.s:24589  .debug_str:0000000000006e6d .LASF1835
C:\Users\SOLDER~1\AppData\Local\Temp\ccYCTqm0.s:32381  .debug_str:00000000000264ff .LASF1836
C:\Users\SOLDER~1\AppData\Local\Temp\ccYCTqm0.s:30331  .debug_str:000000000001dfe7 .LASF1837
C:\Users\SOLDER~1\AppData\Local\Temp\ccYCTqm0.s:31229  .debug_str:0000000000021a4b .LASF1838
C:\Users\SOLDER~1\AppData\Local\Temp\ccYCTqm0.s:27159  .debug_str:0000000000011427 .LASF1839
C:\Users\SOLDER~1\AppData\Local\Temp\ccYCTqm0.s:25921  .debug_str:000000000000c454 .LASF1840
C:\Users\SOLDER~1\AppData\Local\Temp\ccYCTqm0.s:26639  .debug_str:000000000000f342 .LASF1841
C:\Users\SOLDER~1\AppData\Local\Temp\ccYCTqm0.s:23853  .debug_str:0000000000003f11 .LASF1842
C:\Users\SOLDER~1\AppData\Local\Temp\ccYCTqm0.s:25849  .debug_str:000000000000bfce .LASF1843
C:\Users\SOLDER~1\AppData\Local\Temp\ccYCTqm0.s:30875  .debug_str:0000000000020396 .LASF1844
C:\Users\SOLDER~1\AppData\Local\Temp\ccYCTqm0.s:27933  .debug_str:00000000000146c7 .LASF1845
C:\Users\SOLDER~1\AppData\Local\Temp\ccYCTqm0.s:25151  .debug_str:00000000000092d9 .LASF1846
C:\Users\SOLDER~1\AppData\Local\Temp\ccYCTqm0.s:30649  .debug_str:000000000001f4bf .LASF1847
C:\Users\SOLDER~1\AppData\Local\Temp\ccYCTqm0.s:28193  .debug_str:0000000000015804 .LASF1848
C:\Users\SOLDER~1\AppData\Local\Temp\ccYCTqm0.s:28985  .debug_str:0000000000018a9b .LASF1849
C:\Users\SOLDER~1\AppData\Local\Temp\ccYCTqm0.s:24361  .debug_str:0000000000005f48 .LASF1850
C:\Users\SOLDER~1\AppData\Local\Temp\ccYCTqm0.s:32815  .debug_str:00000000000281a6 .LASF1851
C:\Users\SOLDER~1\AppData\Local\Temp\ccYCTqm0.s:31883  .debug_str:0000000000024414 .LASF1852
C:\Users\SOLDER~1\AppData\Local\Temp\ccYCTqm0.s:33109  .debug_str:000000000002942d .LASF1853
C:\Users\SOLDER~1\AppData\Local\Temp\ccYCTqm0.s:28503  .debug_str:0000000000016b29 .LASF1854
GAS LISTING C:\Users\SOLDER~1\AppData\Local\Temp\ccYCTqm0.s 			page 137


C:\Users\SOLDER~1\AppData\Local\Temp\ccYCTqm0.s:31721  .debug_str:00000000000239f9 .LASF1855
C:\Users\SOLDER~1\AppData\Local\Temp\ccYCTqm0.s:29361  .debug_str:000000000001a275 .LASF1856
C:\Users\SOLDER~1\AppData\Local\Temp\ccYCTqm0.s:32353  .debug_str:000000000002631a .LASF1857
C:\Users\SOLDER~1\AppData\Local\Temp\ccYCTqm0.s:27113  .debug_str:000000000001115a .LASF1858
C:\Users\SOLDER~1\AppData\Local\Temp\ccYCTqm0.s:27083  .debug_str:0000000000010f7a .LASF1859
C:\Users\SOLDER~1\AppData\Local\Temp\ccYCTqm0.s:27797  .debug_str:0000000000013da9 .LASF1860
C:\Users\SOLDER~1\AppData\Local\Temp\ccYCTqm0.s:25619  .debug_str:000000000000b16f .LASF1861
C:\Users\SOLDER~1\AppData\Local\Temp\ccYCTqm0.s:31349  .debug_str:00000000000221d9 .LASF1862
C:\Users\SOLDER~1\AppData\Local\Temp\ccYCTqm0.s:29627  .debug_str:000000000001b3bd .LASF1863
C:\Users\SOLDER~1\AppData\Local\Temp\ccYCTqm0.s:32297  .debug_str:0000000000025f3b .LASF1864
C:\Users\SOLDER~1\AppData\Local\Temp\ccYCTqm0.s:29041  .debug_str:0000000000018e37 .LASF1865
C:\Users\SOLDER~1\AppData\Local\Temp\ccYCTqm0.s:33543  .debug_str:000000000002b082 .LASF1866
C:\Users\SOLDER~1\AppData\Local\Temp\ccYCTqm0.s:32483  .debug_str:0000000000026bcd .LASF1867
C:\Users\SOLDER~1\AppData\Local\Temp\ccYCTqm0.s:28661  .debug_str:000000000001753e .LASF1868
C:\Users\SOLDER~1\AppData\Local\Temp\ccYCTqm0.s:26551  .debug_str:000000000000edf7 .LASF1869
C:\Users\SOLDER~1\AppData\Local\Temp\ccYCTqm0.s:28081  .debug_str:00000000000150d2 .LASF1870
C:\Users\SOLDER~1\AppData\Local\Temp\ccYCTqm0.s:23247  .debug_str:000000000000181e .LASF1871
C:\Users\SOLDER~1\AppData\Local\Temp\ccYCTqm0.s:32937  .debug_str:0000000000028989 .LASF1872
C:\Users\SOLDER~1\AppData\Local\Temp\ccYCTqm0.s:31887  .debug_str:000000000002445f .LASF1873
C:\Users\SOLDER~1\AppData\Local\Temp\ccYCTqm0.s:31735  .debug_str:0000000000023aef .LASF1874
C:\Users\SOLDER~1\AppData\Local\Temp\ccYCTqm0.s:33763  .debug_str:000000000002beaa .LASF1875
C:\Users\SOLDER~1\AppData\Local\Temp\ccYCTqm0.s:31285  .debug_str:0000000000021dbd .LASF1876
C:\Users\SOLDER~1\AppData\Local\Temp\ccYCTqm0.s:30021  .debug_str:000000000001cc70 .LASF1877
C:\Users\SOLDER~1\AppData\Local\Temp\ccYCTqm0.s:33035  .debug_str:0000000000028fdc .LASF1878
C:\Users\SOLDER~1\AppData\Local\Temp\ccYCTqm0.s:31689  .debug_str:00000000000237d0 .LASF1879
C:\Users\SOLDER~1\AppData\Local\Temp\ccYCTqm0.s:24379  .debug_str:0000000000006072 .LASF1880
C:\Users\SOLDER~1\AppData\Local\Temp\ccYCTqm0.s:25159  .debug_str:000000000000935f .LASF1881
C:\Users\SOLDER~1\AppData\Local\Temp\ccYCTqm0.s:32247  .debug_str:0000000000025bbf .LASF1882
C:\Users\SOLDER~1\AppData\Local\Temp\ccYCTqm0.s:29085  .debug_str:000000000001910f .LASF1883
C:\Users\SOLDER~1\AppData\Local\Temp\ccYCTqm0.s:23159  .debug_str:0000000000001295 .LASF1884
C:\Users\SOLDER~1\AppData\Local\Temp\ccYCTqm0.s:23003  .debug_str:0000000000000831 .LASF1885
C:\Users\SOLDER~1\AppData\Local\Temp\ccYCTqm0.s:24687  .debug_str:00000000000074f5 .LASF1886
C:\Users\SOLDER~1\AppData\Local\Temp\ccYCTqm0.s:24391  .debug_str:0000000000006136 .LASF1887
C:\Users\SOLDER~1\AppData\Local\Temp\ccYCTqm0.s:30509  .debug_str:000000000001eb9f .LASF1888
C:\Users\SOLDER~1\AppData\Local\Temp\ccYCTqm0.s:29749  .debug_str:000000000001bae5 .LASF1889
C:\Users\SOLDER~1\AppData\Local\Temp\ccYCTqm0.s:31377  .debug_str:000000000002238d .LASF1890
C:\Users\SOLDER~1\AppData\Local\Temp\ccYCTqm0.s:31343  .debug_str:0000000000022168 .LASF1891
C:\Users\SOLDER~1\AppData\Local\Temp\ccYCTqm0.s:26595  .debug_str:000000000000f052 .LASF1892
C:\Users\SOLDER~1\AppData\Local\Temp\ccYCTqm0.s:27455  .debug_str:00000000000126e5 .LASF1893
C:\Users\SOLDER~1\AppData\Local\Temp\ccYCTqm0.s:23993  .debug_str:00000000000047d9 .LASF1894
C:\Users\SOLDER~1\AppData\Local\Temp\ccYCTqm0.s:33943  .debug_str:000000000002ca5e .LASF1895
C:\Users\SOLDER~1\AppData\Local\Temp\ccYCTqm0.s:24971  .debug_str:0000000000008728 .LASF1896
C:\Users\SOLDER~1\AppData\Local\Temp\ccYCTqm0.s:25215  .debug_str:0000000000009730 .LASF1897
C:\Users\SOLDER~1\AppData\Local\Temp\ccYCTqm0.s:29689  .debug_str:000000000001b776 .LASF1898
C:\Users\SOLDER~1\AppData\Local\Temp\ccYCTqm0.s:28771  .debug_str:0000000000017ca4 .LASF1899
C:\Users\SOLDER~1\AppData\Local\Temp\ccYCTqm0.s:24841  .debug_str:0000000000007e79 .LASF1900
C:\Users\SOLDER~1\AppData\Local\Temp\ccYCTqm0.s:34469  .debug_str:000000000002ebe8 .LASF1901
C:\Users\SOLDER~1\AppData\Local\Temp\ccYCTqm0.s:24257  .debug_str:000000000000582a .LASF1902
C:\Users\SOLDER~1\AppData\Local\Temp\ccYCTqm0.s:34053  .debug_str:000000000002d12a .LASF1903
C:\Users\SOLDER~1\AppData\Local\Temp\ccYCTqm0.s:29195  .debug_str:00000000000197fc .LASF1904
C:\Users\SOLDER~1\AppData\Local\Temp\ccYCTqm0.s:30757  .debug_str:000000000001fc2d .LASF1905
C:\Users\SOLDER~1\AppData\Local\Temp\ccYCTqm0.s:28017  .debug_str:0000000000014c67 .LASF1906
C:\Users\SOLDER~1\AppData\Local\Temp\ccYCTqm0.s:29975  .debug_str:000000000001c94d .LASF1907
C:\Users\SOLDER~1\AppData\Local\Temp\ccYCTqm0.s:23283  .debug_str:0000000000001a4e .LASF1908
C:\Users\SOLDER~1\AppData\Local\Temp\ccYCTqm0.s:27247  .debug_str:0000000000011a10 .LASF1909
C:\Users\SOLDER~1\AppData\Local\Temp\ccYCTqm0.s:29301  .debug_str:0000000000019ebc .LASF1910
C:\Users\SOLDER~1\AppData\Local\Temp\ccYCTqm0.s:23057  .debug_str:0000000000000c40 .LASF1911
GAS LISTING C:\Users\SOLDER~1\AppData\Local\Temp\ccYCTqm0.s 			page 138


C:\Users\SOLDER~1\AppData\Local\Temp\ccYCTqm0.s:32269  .debug_str:0000000000025d48 .LASF1912
C:\Users\SOLDER~1\AppData\Local\Temp\ccYCTqm0.s:33049  .debug_str:000000000002909e .LASF1913
C:\Users\SOLDER~1\AppData\Local\Temp\ccYCTqm0.s:28529  .debug_str:0000000000016ce3 .LASF1914
C:\Users\SOLDER~1\AppData\Local\Temp\ccYCTqm0.s:33817  .debug_str:000000000002c21a .LASF1915
C:\Users\SOLDER~1\AppData\Local\Temp\ccYCTqm0.s:24329  .debug_str:0000000000005d43 .LASF1916
C:\Users\SOLDER~1\AppData\Local\Temp\ccYCTqm0.s:30915  .debug_str:000000000002060c .LASF1917
C:\Users\SOLDER~1\AppData\Local\Temp\ccYCTqm0.s:29477  .debug_str:000000000001a9e0 .LASF1918
C:\Users\SOLDER~1\AppData\Local\Temp\ccYCTqm0.s:28781  .debug_str:0000000000017d66 .LASF1919
C:\Users\SOLDER~1\AppData\Local\Temp\ccYCTqm0.s:23145  .debug_str:00000000000011b8 .LASF1920
C:\Users\SOLDER~1\AppData\Local\Temp\ccYCTqm0.s:29381  .debug_str:000000000001a3b8 .LASF1921
C:\Users\SOLDER~1\AppData\Local\Temp\ccYCTqm0.s:23929  .debug_str:00000000000043fc .LASF1922
C:\Users\SOLDER~1\AppData\Local\Temp\ccYCTqm0.s:23895  .debug_str:00000000000041be .LASF1923
C:\Users\SOLDER~1\AppData\Local\Temp\ccYCTqm0.s:31701  .debug_str:000000000002389d .LASF1924
C:\Users\SOLDER~1\AppData\Local\Temp\ccYCTqm0.s:31733  .debug_str:0000000000023acb .LASF1925
C:\Users\SOLDER~1\AppData\Local\Temp\ccYCTqm0.s:28371  .debug_str:0000000000016359 .LASF1926
C:\Users\SOLDER~1\AppData\Local\Temp\ccYCTqm0.s:26589  .debug_str:000000000000f001 .LASF1927
C:\Users\SOLDER~1\AppData\Local\Temp\ccYCTqm0.s:29327  .debug_str:000000000001a070 .LASF1928
C:\Users\SOLDER~1\AppData\Local\Temp\ccYCTqm0.s:33013  .debug_str:0000000000028e99 .LASF1929
C:\Users\SOLDER~1\AppData\Local\Temp\ccYCTqm0.s:25879  .debug_str:000000000000c172 .LASF1930
C:\Users\SOLDER~1\AppData\Local\Temp\ccYCTqm0.s:24943  .debug_str:0000000000008559 .LASF1931
C:\Users\SOLDER~1\AppData\Local\Temp\ccYCTqm0.s:32725  .debug_str:0000000000027ba1 .LASF1932
C:\Users\SOLDER~1\AppData\Local\Temp\ccYCTqm0.s:26345  .debug_str:000000000000e050 .LASF1933
C:\Users\SOLDER~1\AppData\Local\Temp\ccYCTqm0.s:32151  .debug_str:0000000000025584 .LASF1934
C:\Users\SOLDER~1\AppData\Local\Temp\ccYCTqm0.s:22885  .debug_str:0000000000000023 .LASF1935
C:\Users\SOLDER~1\AppData\Local\Temp\ccYCTqm0.s:25367  .debug_str:000000000000a0ec .LASF1936
C:\Users\SOLDER~1\AppData\Local\Temp\ccYCTqm0.s:26995  .debug_str:0000000000010a0b .LASF1937
C:\Users\SOLDER~1\AppData\Local\Temp\ccYCTqm0.s:24185  .debug_str:00000000000053e6 .LASF1938
C:\Users\SOLDER~1\AppData\Local\Temp\ccYCTqm0.s:26187  .debug_str:000000000000d60e .LASF1939
C:\Users\SOLDER~1\AppData\Local\Temp\ccYCTqm0.s:31105  .debug_str:000000000002122b .LASF1940
C:\Users\SOLDER~1\AppData\Local\Temp\ccYCTqm0.s:23425  .debug_str:00000000000023c4 .LASF1941
C:\Users\SOLDER~1\AppData\Local\Temp\ccYCTqm0.s:28817  .debug_str:0000000000017fa5 .LASF1942
C:\Users\SOLDER~1\AppData\Local\Temp\ccYCTqm0.s:30963  .debug_str:000000000002093b .LASF1943
C:\Users\SOLDER~1\AppData\Local\Temp\ccYCTqm0.s:33001  .debug_str:0000000000028dcc .LASF1944
C:\Users\SOLDER~1\AppData\Local\Temp\ccYCTqm0.s:29221  .debug_str:00000000000199c3 .LASF1945
C:\Users\SOLDER~1\AppData\Local\Temp\ccYCTqm0.s:24713  .debug_str:00000000000076c8 .LASF1946
C:\Users\SOLDER~1\AppData\Local\Temp\ccYCTqm0.s:33173  .debug_str:00000000000298a1 .LASF1947
C:\Users\SOLDER~1\AppData\Local\Temp\ccYCTqm0.s:32129  .debug_str:0000000000025447 .LASF1948
C:\Users\SOLDER~1\AppData\Local\Temp\ccYCTqm0.s:27155  .debug_str:00000000000113de .LASF1949
C:\Users\SOLDER~1\AppData\Local\Temp\ccYCTqm0.s:28851  .debug_str:00000000000181f6 .LASF1950
C:\Users\SOLDER~1\AppData\Local\Temp\ccYCTqm0.s:26379  .debug_str:000000000000e276 .LASF1951
C:\Users\SOLDER~1\AppData\Local\Temp\ccYCTqm0.s:27391  .debug_str:0000000000012313 .LASF1952
C:\Users\SOLDER~1\AppData\Local\Temp\ccYCTqm0.s:33585  .debug_str:000000000002b308 .LASF1953
C:\Users\SOLDER~1\AppData\Local\Temp\ccYCTqm0.s:28313  .debug_str:0000000000015f72 .LASF1954
C:\Users\SOLDER~1\AppData\Local\Temp\ccYCTqm0.s:28269  .debug_str:0000000000015cb5 .LASF1955
C:\Users\SOLDER~1\AppData\Local\Temp\ccYCTqm0.s:29015  .debug_str:0000000000018c6b .LASF1956
C:\Users\SOLDER~1\AppData\Local\Temp\ccYCTqm0.s:24407  .debug_str:000000000000624e .LASF1957
C:\Users\SOLDER~1\AppData\Local\Temp\ccYCTqm0.s:32657  .debug_str:000000000002772e .LASF1958
C:\Users\SOLDER~1\AppData\Local\Temp\ccYCTqm0.s:30815  .debug_str:000000000001ffdd .LASF1959
C:\Users\SOLDER~1\AppData\Local\Temp\ccYCTqm0.s:33527  .debug_str:000000000002af67 .LASF1960
C:\Users\SOLDER~1\AppData\Local\Temp\ccYCTqm0.s:29277  .debug_str:0000000000019d32 .LASF1961
C:\Users\SOLDER~1\AppData\Local\Temp\ccYCTqm0.s:32315  .debug_str:0000000000026066 .LASF1962
C:\Users\SOLDER~1\AppData\Local\Temp\ccYCTqm0.s:32817  .debug_str:00000000000281cb .LASF1963
C:\Users\SOLDER~1\AppData\Local\Temp\ccYCTqm0.s:29001  .debug_str:0000000000018b93 .LASF1964
C:\Users\SOLDER~1\AppData\Local\Temp\ccYCTqm0.s:29403  .debug_str:000000000001a532 .LASF1965
C:\Users\SOLDER~1\AppData\Local\Temp\ccYCTqm0.s:28423  .debug_str:0000000000016699 .LASF1966
C:\Users\SOLDER~1\AppData\Local\Temp\ccYCTqm0.s:23575  .debug_str:0000000000002d27 .LASF1967
C:\Users\SOLDER~1\AppData\Local\Temp\ccYCTqm0.s:33287  .debug_str:0000000000029fa9 .LASF1968
GAS LISTING C:\Users\SOLDER~1\AppData\Local\Temp\ccYCTqm0.s 			page 139


C:\Users\SOLDER~1\AppData\Local\Temp\ccYCTqm0.s:29329  .debug_str:000000000001a094 .LASF1969
C:\Users\SOLDER~1\AppData\Local\Temp\ccYCTqm0.s:32081  .debug_str:0000000000025127 .LASF1970
C:\Users\SOLDER~1\AppData\Local\Temp\ccYCTqm0.s:34095  .debug_str:000000000002d408 .LASF1971
C:\Users\SOLDER~1\AppData\Local\Temp\ccYCTqm0.s:27335  .debug_str:0000000000011f91 .LASF1972
C:\Users\SOLDER~1\AppData\Local\Temp\ccYCTqm0.s:31323  .debug_str:0000000000022005 .LASF1973
C:\Users\SOLDER~1\AppData\Local\Temp\ccYCTqm0.s:33379  .debug_str:000000000002a612 .LASF1974
C:\Users\SOLDER~1\AppData\Local\Temp\ccYCTqm0.s:27205  .debug_str:000000000001170e .LASF1975
C:\Users\SOLDER~1\AppData\Local\Temp\ccYCTqm0.s:24735  .debug_str:0000000000007823 .LASF1976
C:\Users\SOLDER~1\AppData\Local\Temp\ccYCTqm0.s:25391  .debug_str:000000000000a2a0 .LASF1977
C:\Users\SOLDER~1\AppData\Local\Temp\ccYCTqm0.s:23053  .debug_str:0000000000000bf8 .LASF1978
C:\Users\SOLDER~1\AppData\Local\Temp\ccYCTqm0.s:29325  .debug_str:000000000001a04b .LASF1979
C:\Users\SOLDER~1\AppData\Local\Temp\ccYCTqm0.s:28403  .debug_str:0000000000016543 .LASF1980
C:\Users\SOLDER~1\AppData\Local\Temp\ccYCTqm0.s:33507  .debug_str:000000000002ae00 .LASF1981
C:\Users\SOLDER~1\AppData\Local\Temp\ccYCTqm0.s:25029  .debug_str:0000000000008ac8 .LASF1982
C:\Users\SOLDER~1\AppData\Local\Temp\ccYCTqm0.s:25601  .debug_str:000000000000b03e .LASF1983
C:\Users\SOLDER~1\AppData\Local\Temp\ccYCTqm0.s:31675  .debug_str:00000000000236d0 .LASF1984
C:\Users\SOLDER~1\AppData\Local\Temp\ccYCTqm0.s:27321  .debug_str:0000000000011ea4 .LASF1985
C:\Users\SOLDER~1\AppData\Local\Temp\ccYCTqm0.s:32597  .debug_str:0000000000027330 .LASF1986
C:\Users\SOLDER~1\AppData\Local\Temp\ccYCTqm0.s:32555  .debug_str:000000000002707f .LASF1987
C:\Users\SOLDER~1\AppData\Local\Temp\ccYCTqm0.s:33311  .debug_str:000000000002a173 .LASF1988
C:\Users\SOLDER~1\AppData\Local\Temp\ccYCTqm0.s:28701  .debug_str:0000000000017809 .LASF1989
C:\Users\SOLDER~1\AppData\Local\Temp\ccYCTqm0.s:25931  .debug_str:000000000000c517 .LASF1990
C:\Users\SOLDER~1\AppData\Local\Temp\ccYCTqm0.s:23431  .debug_str:0000000000002426 .LASF1991
C:\Users\SOLDER~1\AppData\Local\Temp\ccYCTqm0.s:26175  .debug_str:000000000000d54a .LASF1992
C:\Users\SOLDER~1\AppData\Local\Temp\ccYCTqm0.s:31299  .debug_str:0000000000021ea5 .LASF1993
C:\Users\SOLDER~1\AppData\Local\Temp\ccYCTqm0.s:30011  .debug_str:000000000001cbbe .LASF1994
C:\Users\SOLDER~1\AppData\Local\Temp\ccYCTqm0.s:29091  .debug_str:000000000001917e .LASF1995
C:\Users\SOLDER~1\AppData\Local\Temp\ccYCTqm0.s:25173  .debug_str:0000000000009470 .LASF1996
C:\Users\SOLDER~1\AppData\Local\Temp\ccYCTqm0.s:23089  .debug_str:0000000000000e4b .LASF1997
C:\Users\SOLDER~1\AppData\Local\Temp\ccYCTqm0.s:24511  .debug_str:0000000000006977 .LASF1998
C:\Users\SOLDER~1\AppData\Local\Temp\ccYCTqm0.s:31463  .debug_str:00000000000228cb .LASF1999
C:\Users\SOLDER~1\AppData\Local\Temp\ccYCTqm0.s:29521  .debug_str:000000000001ace1 .LASF2000
C:\Users\SOLDER~1\AppData\Local\Temp\ccYCTqm0.s:31067  .debug_str:0000000000020fb9 .LASF2001
C:\Users\SOLDER~1\AppData\Local\Temp\ccYCTqm0.s:31667  .debug_str:0000000000023646 .LASF2002
C:\Users\SOLDER~1\AppData\Local\Temp\ccYCTqm0.s:30217  .debug_str:000000000001d932 .LASF2003
C:\Users\SOLDER~1\AppData\Local\Temp\ccYCTqm0.s:23523  .debug_str:0000000000002a20 .LASF2004
C:\Users\SOLDER~1\AppData\Local\Temp\ccYCTqm0.s:27571  .debug_str:0000000000012e3c .LASF2005
C:\Users\SOLDER~1\AppData\Local\Temp\ccYCTqm0.s:23123  .debug_str:000000000000104f .LASF2006
C:\Users\SOLDER~1\AppData\Local\Temp\ccYCTqm0.s:23375  .debug_str:0000000000002089 .LASF2007
C:\Users\SOLDER~1\AppData\Local\Temp\ccYCTqm0.s:32621  .debug_str:00000000000274c7 .LASF2008
C:\Users\SOLDER~1\AppData\Local\Temp\ccYCTqm0.s:33317  .debug_str:000000000002a1de .LASF2009
C:\Users\SOLDER~1\AppData\Local\Temp\ccYCTqm0.s:26085  .debug_str:000000000000cf5a .LASF2010
C:\Users\SOLDER~1\AppData\Local\Temp\ccYCTqm0.s:25497  .debug_str:000000000000a9b9 .LASF2011
C:\Users\SOLDER~1\AppData\Local\Temp\ccYCTqm0.s:24579  .debug_str:0000000000006de6 .LASF2012
C:\Users\SOLDER~1\AppData\Local\Temp\ccYCTqm0.s:24855  .debug_str:0000000000007f5e .LASF2013
C:\Users\SOLDER~1\AppData\Local\Temp\ccYCTqm0.s:32915  .debug_str:0000000000028824 .LASF2014
C:\Users\SOLDER~1\AppData\Local\Temp\ccYCTqm0.s:29937  .debug_str:000000000001c712 .LASF2015
C:\Users\SOLDER~1\AppData\Local\Temp\ccYCTqm0.s:24337  .debug_str:0000000000005dd5 .LASF2016
C:\Users\SOLDER~1\AppData\Local\Temp\ccYCTqm0.s:30561  .debug_str:000000000001eefc .LASF2017
C:\Users\SOLDER~1\AppData\Local\Temp\ccYCTqm0.s:25255  .debug_str:00000000000099bc .LASF2018
C:\Users\SOLDER~1\AppData\Local\Temp\ccYCTqm0.s:25125  .debug_str:000000000000911f .LASF2019
C:\Users\SOLDER~1\AppData\Local\Temp\ccYCTqm0.s:25847  .debug_str:000000000000bfaa .LASF2020
C:\Users\SOLDER~1\AppData\Local\Temp\ccYCTqm0.s:32975  .debug_str:0000000000028c17 .LASF2021
C:\Users\SOLDER~1\AppData\Local\Temp\ccYCTqm0.s:29567  .debug_str:000000000001afad .LASF2022
C:\Users\SOLDER~1\AppData\Local\Temp\ccYCTqm0.s:27809  .debug_str:0000000000013e77 .LASF2023
C:\Users\SOLDER~1\AppData\Local\Temp\ccYCTqm0.s:33959  .debug_str:000000000002cb5f .LASF2024
C:\Users\SOLDER~1\AppData\Local\Temp\ccYCTqm0.s:34371  .debug_str:000000000002e5ab .LASF2025
GAS LISTING C:\Users\SOLDER~1\AppData\Local\Temp\ccYCTqm0.s 			page 140


C:\Users\SOLDER~1\AppData\Local\Temp\ccYCTqm0.s:26719  .debug_str:000000000000f847 .LASF2026
C:\Users\SOLDER~1\AppData\Local\Temp\ccYCTqm0.s:25269  .debug_str:0000000000009aa1 .LASF2027
C:\Users\SOLDER~1\AppData\Local\Temp\ccYCTqm0.s:33065  .debug_str:00000000000291a4 .LASF2028
C:\Users\SOLDER~1\AppData\Local\Temp\ccYCTqm0.s:30983  .debug_str:0000000000020a7b .LASF2029
C:\Users\SOLDER~1\AppData\Local\Temp\ccYCTqm0.s:32395  .debug_str:00000000000265f2 .LASF2030
C:\Users\SOLDER~1\AppData\Local\Temp\ccYCTqm0.s:27737  .debug_str:0000000000013953 .LASF2031
C:\Users\SOLDER~1\AppData\Local\Temp\ccYCTqm0.s:25613  .debug_str:000000000000b119 .LASF2032
C:\Users\SOLDER~1\AppData\Local\Temp\ccYCTqm0.s:27307  .debug_str:0000000000011dc3 .LASF2033
C:\Users\SOLDER~1\AppData\Local\Temp\ccYCTqm0.s:24443  .debug_str:00000000000064dd .LASF2034
C:\Users\SOLDER~1\AppData\Local\Temp\ccYCTqm0.s:26435  .debug_str:000000000000e68f .LASF2035
C:\Users\SOLDER~1\AppData\Local\Temp\ccYCTqm0.s:34001  .debug_str:000000000002cdc9 .LASF2036
C:\Users\SOLDER~1\AppData\Local\Temp\ccYCTqm0.s:33447  .debug_str:000000000002aa8e .LASF2037
C:\Users\SOLDER~1\AppData\Local\Temp\ccYCTqm0.s:25233  .debug_str:000000000000986f .LASF2038
C:\Users\SOLDER~1\AppData\Local\Temp\ccYCTqm0.s:31283  .debug_str:0000000000021d98 .LASF2039
C:\Users\SOLDER~1\AppData\Local\Temp\ccYCTqm0.s:27245  .debug_str:00000000000119eb .LASF2040
C:\Users\SOLDER~1\AppData\Local\Temp\ccYCTqm0.s:29545  .debug_str:000000000001ae42 .LASF2041
C:\Users\SOLDER~1\AppData\Local\Temp\ccYCTqm0.s:28211  .debug_str:0000000000015932 .LASF2042
C:\Users\SOLDER~1\AppData\Local\Temp\ccYCTqm0.s:33405  .debug_str:000000000002a7e1 .LASF2043
C:\Users\SOLDER~1\AppData\Local\Temp\ccYCTqm0.s:32473  .debug_str:0000000000026b04 .LASF2044
C:\Users\SOLDER~1\AppData\Local\Temp\ccYCTqm0.s:27471  .debug_str:00000000000127ce .LASF2045
C:\Users\SOLDER~1\AppData\Local\Temp\ccYCTqm0.s:29171  .debug_str:0000000000019655 .LASF2046
C:\Users\SOLDER~1\AppData\Local\Temp\ccYCTqm0.s:25203  .debug_str:0000000000009664 .LASF2047
C:\Users\SOLDER~1\AppData\Local\Temp\ccYCTqm0.s:31289  .debug_str:0000000000021e04 .LASF2048
C:\Users\SOLDER~1\AppData\Local\Temp\ccYCTqm0.s:25817  .debug_str:000000000000bd99 .LASF2049
C:\Users\SOLDER~1\AppData\Local\Temp\ccYCTqm0.s:32185  .debug_str:00000000000257be .LASF2050
C:\Users\SOLDER~1\AppData\Local\Temp\ccYCTqm0.s:30853  .debug_str:0000000000020230 .LASF2051
C:\Users\SOLDER~1\AppData\Local\Temp\ccYCTqm0.s:32799  .debug_str:000000000002806e .LASF2052
C:\Users\SOLDER~1\AppData\Local\Temp\ccYCTqm0.s:28277  .debug_str:0000000000015d32 .LASF2053
C:\Users\SOLDER~1\AppData\Local\Temp\ccYCTqm0.s:34091  .debug_str:000000000002d3c1 .LASF2054
C:\Users\SOLDER~1\AppData\Local\Temp\ccYCTqm0.s:23037  .debug_str:0000000000000ace .LASF2055
C:\Users\SOLDER~1\AppData\Local\Temp\ccYCTqm0.s:25765  .debug_str:000000000000ba84 .LASF2056
C:\Users\SOLDER~1\AppData\Local\Temp\ccYCTqm0.s:32171  .debug_str:00000000000256e8 .LASF2057
C:\Users\SOLDER~1\AppData\Local\Temp\ccYCTqm0.s:29183  .debug_str:000000000001971e .LASF2058
C:\Users\SOLDER~1\AppData\Local\Temp\ccYCTqm0.s:24081  .debug_str:0000000000004d7c .LASF2059
C:\Users\SOLDER~1\AppData\Local\Temp\ccYCTqm0.s:31881  .debug_str:00000000000243ee .LASF2060
C:\Users\SOLDER~1\AppData\Local\Temp\ccYCTqm0.s:34211  .debug_str:000000000002db93 .LASF2061
C:\Users\SOLDER~1\AppData\Local\Temp\ccYCTqm0.s:31237  .debug_str:0000000000021ac2 .LASF2062
C:\Users\SOLDER~1\AppData\Local\Temp\ccYCTqm0.s:26561  .debug_str:000000000000ee8c .LASF2063
C:\Users\SOLDER~1\AppData\Local\Temp\ccYCTqm0.s:33919  .debug_str:000000000002c8ea .LASF2064
C:\Users\SOLDER~1\AppData\Local\Temp\ccYCTqm0.s:26131  .debug_str:000000000000d26b .LASF2065
C:\Users\SOLDER~1\AppData\Local\Temp\ccYCTqm0.s:23275  .debug_str:00000000000019a5 .LASF2066
C:\Users\SOLDER~1\AppData\Local\Temp\ccYCTqm0.s:25265  .debug_str:0000000000009a56 .LASF2067
C:\Users\SOLDER~1\AppData\Local\Temp\ccYCTqm0.s:24561  .debug_str:0000000000006ce1 .LASF2068
C:\Users\SOLDER~1\AppData\Local\Temp\ccYCTqm0.s:34325  .debug_str:000000000002e2dc .LASF2069
C:\Users\SOLDER~1\AppData\Local\Temp\ccYCTqm0.s:24651  .debug_str:00000000000072b2 .LASF2070
C:\Users\SOLDER~1\AppData\Local\Temp\ccYCTqm0.s:30143  .debug_str:000000000001d447 .LASF2071
C:\Users\SOLDER~1\AppData\Local\Temp\ccYCTqm0.s:27597  .debug_str:0000000000013044 .LASF2072
C:\Users\SOLDER~1\AppData\Local\Temp\ccYCTqm0.s:32463  .debug_str:0000000000026a5e .LASF2073
C:\Users\SOLDER~1\AppData\Local\Temp\ccYCTqm0.s:23779  .debug_str:0000000000003a5b .LASF2074
C:\Users\SOLDER~1\AppData\Local\Temp\ccYCTqm0.s:32221  .debug_str:00000000000259ef .LASF2075
C:\Users\SOLDER~1\AppData\Local\Temp\ccYCTqm0.s:31303  .debug_str:0000000000021eef .LASF2076
C:\Users\SOLDER~1\AppData\Local\Temp\ccYCTqm0.s:26307  .debug_str:000000000000ddc4 .LASF2077
C:\Users\SOLDER~1\AppData\Local\Temp\ccYCTqm0.s:28003  .debug_str:0000000000014b57 .LASF2078
C:\Users\SOLDER~1\AppData\Local\Temp\ccYCTqm0.s:29555  .debug_str:000000000001aef7 .LASF2079
C:\Users\SOLDER~1\AppData\Local\Temp\ccYCTqm0.s:23921  .debug_str:000000000000437c .LASF2080
C:\Users\SOLDER~1\AppData\Local\Temp\ccYCTqm0.s:30157  .debug_str:000000000001d53b .LASF2081
C:\Users\SOLDER~1\AppData\Local\Temp\ccYCTqm0.s:28997  .debug_str:0000000000018b5c .LASF2082
GAS LISTING C:\Users\SOLDER~1\AppData\Local\Temp\ccYCTqm0.s 			page 141


C:\Users\SOLDER~1\AppData\Local\Temp\ccYCTqm0.s:24729  .debug_str:00000000000077be .LASF2083
C:\Users\SOLDER~1\AppData\Local\Temp\ccYCTqm0.s:25433  .debug_str:000000000000a56f .LASF2084
C:\Users\SOLDER~1\AppData\Local\Temp\ccYCTqm0.s:28215  .debug_str:0000000000015960 .LASF2085
C:\Users\SOLDER~1\AppData\Local\Temp\ccYCTqm0.s:27561  .debug_str:0000000000012da5 .LASF2086
C:\Users\SOLDER~1\AppData\Local\Temp\ccYCTqm0.s:30339  .debug_str:000000000001e072 .LASF2087
C:\Users\SOLDER~1\AppData\Local\Temp\ccYCTqm0.s:30097  .debug_str:000000000001d1ac .LASF2088
C:\Users\SOLDER~1\AppData\Local\Temp\ccYCTqm0.s:28449  .debug_str:000000000001682c .LASF2089
C:\Users\SOLDER~1\AppData\Local\Temp\ccYCTqm0.s:32957  .debug_str:0000000000028ab7 .LASF2090
C:\Users\SOLDER~1\AppData\Local\Temp\ccYCTqm0.s:31967  .debug_str:00000000000249a9 .LASF2091
C:\Users\SOLDER~1\AppData\Local\Temp\ccYCTqm0.s:28143  .debug_str:00000000000154a4 .LASF2092
C:\Users\SOLDER~1\AppData\Local\Temp\ccYCTqm0.s:25951  .debug_str:000000000000c67b .LASF2093
C:\Users\SOLDER~1\AppData\Local\Temp\ccYCTqm0.s:27477  .debug_str:0000000000012847 .LASF2094
C:\Users\SOLDER~1\AppData\Local\Temp\ccYCTqm0.s:34479  .debug_str:000000000002ec9f .LASF2095
C:\Users\SOLDER~1\AppData\Local\Temp\ccYCTqm0.s:32329  .debug_str:0000000000026154 .LASF2096
C:\Users\SOLDER~1\AppData\Local\Temp\ccYCTqm0.s:24181  .debug_str:0000000000005394 .LASF2097
C:\Users\SOLDER~1\AppData\Local\Temp\ccYCTqm0.s:31179  .debug_str:0000000000021716 .LASF2098
C:\Users\SOLDER~1\AppData\Local\Temp\ccYCTqm0.s:33175  .debug_str:00000000000298c6 .LASF2099
C:\Users\SOLDER~1\AppData\Local\Temp\ccYCTqm0.s:27605  .debug_str:00000000000130bd .LASF2100
C:\Users\SOLDER~1\AppData\Local\Temp\ccYCTqm0.s:30525  .debug_str:000000000001ecbf .LASF2101
C:\Users\SOLDER~1\AppData\Local\Temp\ccYCTqm0.s:32441  .debug_str:000000000002690a .LASF2102
C:\Users\SOLDER~1\AppData\Local\Temp\ccYCTqm0.s:26357  .debug_str:000000000000e103 .LASF2103
C:\Users\SOLDER~1\AppData\Local\Temp\ccYCTqm0.s:23799  .debug_str:0000000000003ba2 .LASF2104
C:\Users\SOLDER~1\AppData\Local\Temp\ccYCTqm0.s:24559  .debug_str:0000000000006cbb .LASF2105
C:\Users\SOLDER~1\AppData\Local\Temp\ccYCTqm0.s:31657  .debug_str:00000000000235a6 .LASF2106
C:\Users\SOLDER~1\AppData\Local\Temp\ccYCTqm0.s:28497  .debug_str:0000000000016ae9 .LASF2107
C:\Users\SOLDER~1\AppData\Local\Temp\ccYCTqm0.s:27543  .debug_str:0000000000012c5a .LASF2108
C:\Users\SOLDER~1\AppData\Local\Temp\ccYCTqm0.s:34217  .debug_str:000000000002dbfc .LASF2109
C:\Users\SOLDER~1\AppData\Local\Temp\ccYCTqm0.s:33009  .debug_str:0000000000028e58 .LASF2110
C:\Users\SOLDER~1\AppData\Local\Temp\ccYCTqm0.s:33869  .debug_str:000000000002c5f0 .LASF2111
C:\Users\SOLDER~1\AppData\Local\Temp\ccYCTqm0.s:28203  .debug_str:00000000000158ae .LASF2112
C:\Users\SOLDER~1\AppData\Local\Temp\ccYCTqm0.s:34411  .debug_str:000000000002e828 .LASF2113
C:\Users\SOLDER~1\AppData\Local\Temp\ccYCTqm0.s:29131  .debug_str:0000000000019413 .LASF2114
C:\Users\SOLDER~1\AppData\Local\Temp\ccYCTqm0.s:29089  .debug_str:0000000000019159 .LASF2115
C:\Users\SOLDER~1\AppData\Local\Temp\ccYCTqm0.s:29797  .debug_str:000000000001bdcc .LASF2116
C:\Users\SOLDER~1\AppData\Local\Temp\ccYCTqm0.s:25219  .debug_str:0000000000009784 .LASF2117
C:\Users\SOLDER~1\AppData\Local\Temp\ccYCTqm0.s:33481  .debug_str:000000000002ac6c .LASF2118
C:\Users\SOLDER~1\AppData\Local\Temp\ccYCTqm0.s:31581  .debug_str:00000000000230c5 .LASF2119
C:\Users\SOLDER~1\AppData\Local\Temp\ccYCTqm0.s:34355  .debug_str:000000000002e4b8 .LASF2120
C:\Users\SOLDER~1\AppData\Local\Temp\ccYCTqm0.s:24625  .debug_str:00000000000070cd .LASF2121
C:\Users\SOLDER~1\AppData\Local\Temp\ccYCTqm0.s:29211  .debug_str:000000000001992d .LASF2122
C:\Users\SOLDER~1\AppData\Local\Temp\ccYCTqm0.s:28241  .debug_str:0000000000015ad8 .LASF2123
C:\Users\SOLDER~1\AppData\Local\Temp\ccYCTqm0.s:26925  .debug_str:00000000000105e1 .LASF2124
C:\Users\SOLDER~1\AppData\Local\Temp\ccYCTqm0.s:33865  .debug_str:000000000002c592 .LASF2125
C:\Users\SOLDER~1\AppData\Local\Temp\ccYCTqm0.s:23679  .debug_str:0000000000003406 .LASF2126
C:\Users\SOLDER~1\AppData\Local\Temp\ccYCTqm0.s:30685  .debug_str:000000000001f739 .LASF2127
C:\Users\SOLDER~1\AppData\Local\Temp\ccYCTqm0.s:28619  .debug_str:000000000001725e .LASF2128
C:\Users\SOLDER~1\AppData\Local\Temp\ccYCTqm0.s:31209  .debug_str:00000000000218f8 .LASF2129
C:\Users\SOLDER~1\AppData\Local\Temp\ccYCTqm0.s:27415  .debug_str:000000000001247b .LASF2130
C:\Users\SOLDER~1\AppData\Local\Temp\ccYCTqm0.s:25665  .debug_str:000000000000b44a .LASF2131
C:\Users\SOLDER~1\AppData\Local\Temp\ccYCTqm0.s:34427  .debug_str:000000000002e91d .LASF2132
C:\Users\SOLDER~1\AppData\Local\Temp\ccYCTqm0.s:26759  .debug_str:000000000000fafc .LASF2133
C:\Users\SOLDER~1\AppData\Local\Temp\ccYCTqm0.s:28733  .debug_str:0000000000017a47 .LASF2134
C:\Users\SOLDER~1\AppData\Local\Temp\ccYCTqm0.s:34275  .debug_str:000000000002df9c .LASF2135
C:\Users\SOLDER~1\AppData\Local\Temp\ccYCTqm0.s:28059  .debug_str:0000000000014f51 .LASF2136
C:\Users\SOLDER~1\AppData\Local\Temp\ccYCTqm0.s:32455  .debug_str:00000000000269d0 .LASF2137
C:\Users\SOLDER~1\AppData\Local\Temp\ccYCTqm0.s:27925  .debug_str:0000000000014636 .LASF2138
C:\Users\SOLDER~1\AppData\Local\Temp\ccYCTqm0.s:24681  .debug_str:00000000000074a7 .LASF2139
GAS LISTING C:\Users\SOLDER~1\AppData\Local\Temp\ccYCTqm0.s 			page 142


C:\Users\SOLDER~1\AppData\Local\Temp\ccYCTqm0.s:23747  .debug_str:0000000000003848 .LASF2140
C:\Users\SOLDER~1\AppData\Local\Temp\ccYCTqm0.s:30627  .debug_str:000000000001f330 .LASF2141
C:\Users\SOLDER~1\AppData\Local\Temp\ccYCTqm0.s:31963  .debug_str:0000000000024970 .LASF2142
C:\Users\SOLDER~1\AppData\Local\Temp\ccYCTqm0.s:26409  .debug_str:000000000000e4a6 .LASF2143
C:\Users\SOLDER~1\AppData\Local\Temp\ccYCTqm0.s:32497  .debug_str:0000000000026cba .LASF2144
C:\Users\SOLDER~1\AppData\Local\Temp\ccYCTqm0.s:27065  .debug_str:0000000000010e77 .LASF2145
C:\Users\SOLDER~1\AppData\Local\Temp\ccYCTqm0.s:33413  .debug_str:000000000002a863 .LASF2146
C:\Users\SOLDER~1\AppData\Local\Temp\ccYCTqm0.s:33373  .debug_str:000000000002a5a6 .LASF2147
C:\Users\SOLDER~1\AppData\Local\Temp\ccYCTqm0.s:34113  .debug_str:000000000002d573 .LASF2148
C:\Users\SOLDER~1\AppData\Local\Temp\ccYCTqm0.s:30537  .debug_str:000000000001ed9a .LASF2149
C:\Users\SOLDER~1\AppData\Local\Temp\ccYCTqm0.s:26017  .debug_str:000000000000cae2 .LASF2150
C:\Users\SOLDER~1\AppData\Local\Temp\ccYCTqm0.s:24233  .debug_str:00000000000056c0 .LASF2151
C:\Users\SOLDER~1\AppData\Local\Temp\ccYCTqm0.s:27007  .debug_str:0000000000010a9d .LASF2152
C:\Users\SOLDER~1\AppData\Local\Temp\ccYCTqm0.s:32515  .debug_str:0000000000026ded .LASF2153
C:\Users\SOLDER~1\AppData\Local\Temp\ccYCTqm0.s:25381  .debug_str:000000000000a1e8 .LASF2154
C:\Users\SOLDER~1\AppData\Local\Temp\ccYCTqm0.s:24427  .debug_str:00000000000063c4 .LASF2155
C:\Users\SOLDER~1\AppData\Local\Temp\ccYCTqm0.s:32125  .debug_str:00000000000253fc .LASF2156
C:\Users\SOLDER~1\AppData\Local\Temp\ccYCTqm0.s:30079  .debug_str:000000000001d05b .LASF2157
C:\Users\SOLDER~1\AppData\Local\Temp\ccYCTqm0.s:31559  .debug_str:0000000000022f4a .LASF2158
C:\Users\SOLDER~1\AppData\Local\Temp\ccYCTqm0.s:26923  .debug_str:00000000000105bb .LASF2159
C:\Users\SOLDER~1\AppData\Local\Temp\ccYCTqm0.s:24799  .debug_str:0000000000007ba8 .LASF2160
C:\Users\SOLDER~1\AppData\Local\Temp\ccYCTqm0.s:34265  .debug_str:000000000002df0c .LASF2161
C:\Users\SOLDER~1\AppData\Local\Temp\ccYCTqm0.s:23605  .debug_str:0000000000002f2d .LASF2162
C:\Users\SOLDER~1\AppData\Local\Temp\ccYCTqm0.s:25595  .debug_str:000000000000afcf .LASF2163
C:\Users\SOLDER~1\AppData\Local\Temp\ccYCTqm0.s:28025  .debug_str:0000000000014d0d .LASF2164
C:\Users\SOLDER~1\AppData\Local\Temp\ccYCTqm0.s:22943  .debug_str:00000000000003dc .LASF2165
C:\Users\SOLDER~1\AppData\Local\Temp\ccYCTqm0.s:24907  .debug_str:0000000000008301 .LASF2166
C:\Users\SOLDER~1\AppData\Local\Temp\ccYCTqm0.s:30395  .debug_str:000000000001e433 .LASF2167
C:\Users\SOLDER~1\AppData\Local\Temp\ccYCTqm0.s:27949  .debug_str:00000000000147db .LASF2168
C:\Users\SOLDER~1\AppData\Local\Temp\ccYCTqm0.s:28747  .debug_str:0000000000017b47 .LASF2169
C:\Users\SOLDER~1\AppData\Local\Temp\ccYCTqm0.s:24101  .debug_str:0000000000004ebb .LASF2170
C:\Users\SOLDER~1\AppData\Local\Temp\ccYCTqm0.s:32563  .debug_str:0000000000027102 .LASF2171
C:\Users\SOLDER~1\AppData\Local\Temp\ccYCTqm0.s:31625  .debug_str:0000000000023384 .LASF2172
C:\Users\SOLDER~1\AppData\Local\Temp\ccYCTqm0.s:26555  .debug_str:000000000000ee2d .LASF2173
C:\Users\SOLDER~1\AppData\Local\Temp\ccYCTqm0.s:28235  .debug_str:0000000000015a9e .LASF2174
C:\Users\SOLDER~1\AppData\Local\Temp\ccYCTqm0.s:29641  .debug_str:000000000001b48d .LASF2175
C:\Users\SOLDER~1\AppData\Local\Temp\ccYCTqm0.s:28885  .debug_str:0000000000018463 .LASF2176
C:\Users\SOLDER~1\AppData\Local\Temp\ccYCTqm0.s:28233  .debug_str:0000000000015a86 .LASF2177
C:\Users\SOLDER~1\AppData\Local\Temp\ccYCTqm0.s:29925  .debug_str:000000000001c65e .LASF2178
C:\Users\SOLDER~1\AppData\Local\Temp\ccYCTqm0.s:26909  .debug_str:0000000000010515 .LASF2179
C:\Users\SOLDER~1\AppData\Local\Temp\ccYCTqm0.s:29007  .debug_str:0000000000018be0 .LASF2180
C:\Users\SOLDER~1\AppData\Local\Temp\ccYCTqm0.s:25287  .debug_str:0000000000009bcb .LASF2181
C:\Users\SOLDER~1\AppData\Local\Temp\ccYCTqm0.s:27151  .debug_str:00000000000113a5 .LASF2182
C:\Users\SOLDER~1\AppData\Local\Temp\ccYCTqm0.s:23475  .debug_str:00000000000026f4 .LASF2183
C:\Users\SOLDER~1\AppData\Local\Temp\ccYCTqm0.s:32429  .debug_str:0000000000026841 .LASF2184
C:\Users\SOLDER~1\AppData\Local\Temp\ccYCTqm0.s:27845  .debug_str:00000000000140f9 .LASF2185
C:\Users\SOLDER~1\AppData\Local\Temp\ccYCTqm0.s:25937  .debug_str:000000000000c570 .LASF2186
C:\Users\SOLDER~1\AppData\Local\Temp\ccYCTqm0.s:25231  .debug_str:000000000000985c .LASF2187
C:\Users\SOLDER~1\AppData\Local\Temp\ccYCTqm0.s:31127  .debug_str:000000000002139d .LASF2188
C:\Users\SOLDER~1\AppData\Local\Temp\ccYCTqm0.s:30901  .debug_str:0000000000020535 .LASF2189
C:\Users\SOLDER~1\AppData\Local\Temp\ccYCTqm0.s:27783  .debug_str:0000000000013c87 .LASF2190
C:\Users\SOLDER~1\AppData\Local\Temp\ccYCTqm0.s:26571  .debug_str:000000000000ef29 .LASF2191
C:\Users\SOLDER~1\AppData\Local\Temp\ccYCTqm0.s:27729  .debug_str:00000000000138c3 .LASF2192
C:\Users\SOLDER~1\AppData\Local\Temp\ccYCTqm0.s:32187  .debug_str:00000000000257e3 .LASF2193
C:\Users\SOLDER~1\AppData\Local\Temp\ccYCTqm0.s:33515  .debug_str:000000000002ae98 .LASF2194
C:\Users\SOLDER~1\AppData\Local\Temp\ccYCTqm0.s:30837  .debug_str:0000000000020146 .LASF2195
C:\Users\SOLDER~1\AppData\Local\Temp\ccYCTqm0.s:29667  .debug_str:000000000001b60c .LASF2196
GAS LISTING C:\Users\SOLDER~1\AppData\Local\Temp\ccYCTqm0.s 			page 143


C:\Users\SOLDER~1\AppData\Local\Temp\ccYCTqm0.s:26489  .debug_str:000000000000e9e1 .LASF2197
C:\Users\SOLDER~1\AppData\Local\Temp\ccYCTqm0.s:24261  .debug_str:0000000000005862 .LASF2198
C:\Users\SOLDER~1\AppData\Local\Temp\ccYCTqm0.s:32139  .debug_str:00000000000254df .LASF2199
C:\Users\SOLDER~1\AppData\Local\Temp\ccYCTqm0.s:26011  .debug_str:000000000000ca89 .LASF2200
C:\Users\SOLDER~1\AppData\Local\Temp\ccYCTqm0.s:23719  .debug_str:00000000000036b1 .LASF2201
C:\Users\SOLDER~1\AppData\Local\Temp\ccYCTqm0.s:24115  .debug_str:0000000000004f8d .LASF2202
C:\Users\SOLDER~1\AppData\Local\Temp\ccYCTqm0.s:33107  .debug_str:0000000000029419 .LASF2203
C:\Users\SOLDER~1\AppData\Local\Temp\ccYCTqm0.s:34215  .debug_str:000000000002dbdb .LASF2204
C:\Users\SOLDER~1\AppData\Local\Temp\ccYCTqm0.s:28337  .debug_str:00000000000160f7 .LASF2205
C:\Users\SOLDER~1\AppData\Local\Temp\ccYCTqm0.s:30291  .debug_str:000000000001dd6e .LASF2206
C:\Users\SOLDER~1\AppData\Local\Temp\ccYCTqm0.s:23421  .debug_str:000000000000238a .LASF2207
C:\Users\SOLDER~1\AppData\Local\Temp\ccYCTqm0.s:30517  .debug_str:000000000001ec3a .LASF2208
C:\Users\SOLDER~1\AppData\Local\Temp\ccYCTqm0.s:29621  .debug_str:000000000001b36b .LASF2209
C:\Users\SOLDER~1\AppData\Local\Temp\ccYCTqm0.s:27061  .debug_str:0000000000010e32 .LASF2210
C:\Users\SOLDER~1\AppData\Local\Temp\ccYCTqm0.s:27305  .debug_str:0000000000011daf .LASF2211
C:\Users\SOLDER~1\AppData\Local\Temp\ccYCTqm0.s:28665  .debug_str:0000000000017581 .LASF2212
C:\Users\SOLDER~1\AppData\Local\Temp\ccYCTqm0.s:33849  .debug_str:000000000002c473 .LASF2213
C:\Users\SOLDER~1\AppData\Local\Temp\ccYCTqm0.s:31257  .debug_str:0000000000021c0d .LASF2214
C:\Users\SOLDER~1\AppData\Local\Temp\ccYCTqm0.s:29345  .debug_str:000000000001a1a0 .LASF2215
C:\Users\SOLDER~1\AppData\Local\Temp\ccYCTqm0.s:28537  .debug_str:0000000000016d66 .LASF2216
C:\Users\SOLDER~1\AppData\Local\Temp\ccYCTqm0.s:23683  .debug_str:0000000000003452 .LASF2217
C:\Users\SOLDER~1\AppData\Local\Temp\ccYCTqm0.s:28467  .debug_str:000000000001693e .LASF2218
C:\Users\SOLDER~1\AppData\Local\Temp\ccYCTqm0.s:33061  .debug_str:000000000002917a .LASF2219
C:\Users\SOLDER~1\AppData\Local\Temp\ccYCTqm0.s:25563  .debug_str:000000000000ae04 .LASF2220
C:\Users\SOLDER~1\AppData\Local\Temp\ccYCTqm0.s:30813  .debug_str:000000000001ffca .LASF2221
C:\Users\SOLDER~1\AppData\Local\Temp\ccYCTqm0.s:32697  .debug_str:00000000000279dd .LASF2222
C:\Users\SOLDER~1\AppData\Local\Temp\ccYCTqm0.s:24513  .debug_str:000000000000699c .LASF2223
C:\Users\SOLDER~1\AppData\Local\Temp\ccYCTqm0.s:25259  .debug_str:00000000000099f8 .LASF2224
C:\Users\SOLDER~1\AppData\Local\Temp\ccYCTqm0.s:27463  .debug_str:0000000000012757 .LASF2225
C:\Users\SOLDER~1\AppData\Local\Temp\ccYCTqm0.s:27891  .debug_str:00000000000143b3 .LASF2226
C:\Users\SOLDER~1\AppData\Local\Temp\ccYCTqm0.s:30049  .debug_str:000000000001ce54 .LASF2227
C:\Users\SOLDER~1\AppData\Local\Temp\ccYCTqm0.s:33999  .debug_str:000000000002cda8 .LASF2228
C:\Users\SOLDER~1\AppData\Local\Temp\ccYCTqm0.s:24993  .debug_str:0000000000008899 .LASF2229
C:\Users\SOLDER~1\AppData\Local\Temp\ccYCTqm0.s:31139  .debug_str:000000000002147a .LASF2230
C:\Users\SOLDER~1\AppData\Local\Temp\ccYCTqm0.s:32021  .debug_str:0000000000024d40 .LASF2231
C:\Users\SOLDER~1\AppData\Local\Temp\ccYCTqm0.s:27941  .debug_str:0000000000014740 .LASF2232
C:\Users\SOLDER~1\AppData\Local\Temp\ccYCTqm0.s:24583  .debug_str:0000000000006e23 .LASF2233
C:\Users\SOLDER~1\AppData\Local\Temp\ccYCTqm0.s:27373  .debug_str:00000000000121e5 .LASF2234
C:\Users\SOLDER~1\AppData\Local\Temp\ccYCTqm0.s:24199  .debug_str:00000000000054c3 .LASF2235
C:\Users\SOLDER~1\AppData\Local\Temp\ccYCTqm0.s:34057  .debug_str:000000000002d179 .LASF2236
C:\Users\SOLDER~1\AppData\Local\Temp\ccYCTqm0.s:30865  .debug_str:00000000000202fb .LASF2237
C:\Users\SOLDER~1\AppData\Local\Temp\ccYCTqm0.s:33465  .debug_str:000000000002aba1 .LASF2238
C:\Users\SOLDER~1\AppData\Local\Temp\ccYCTqm0.s:26243  .debug_str:000000000000d9b9 .LASF2239
C:\Users\SOLDER~1\AppData\Local\Temp\ccYCTqm0.s:27691  .debug_str:0000000000013632 .LASF2240
C:\Users\SOLDER~1\AppData\Local\Temp\ccYCTqm0.s:23381  .debug_str:00000000000020e5 .LASF2241
C:\Users\SOLDER~1\AppData\Local\Temp\ccYCTqm0.s:32535  .debug_str:0000000000026f51 .LASF2242
C:\Users\SOLDER~1\AppData\Local\Temp\ccYCTqm0.s:32479  .debug_str:0000000000026b7f .LASF2243
C:\Users\SOLDER~1\AppData\Local\Temp\ccYCTqm0.s:26847  .debug_str:000000000001010f .LASF2244
C:\Users\SOLDER~1\AppData\Local\Temp\ccYCTqm0.s:22969  .debug_str:0000000000000586 .LASF2245
C:\Users\SOLDER~1\AppData\Local\Temp\ccYCTqm0.s:22921  .debug_str:0000000000000275 .LASF2246
C:\Users\SOLDER~1\AppData\Local\Temp\ccYCTqm0.s:28789  .debug_str:0000000000017de8 .LASF2247
C:\Users\SOLDER~1\AppData\Local\Temp\ccYCTqm0.s:24875  .debug_str:00000000000080cb .LASF2248
C:\Users\SOLDER~1\AppData\Local\Temp\ccYCTqm0.s:27967  .debug_str:0000000000014917 .LASF2249
C:\Users\SOLDER~1\AppData\Local\Temp\ccYCTqm0.s:26177  .debug_str:000000000000d56e .LASF2250
C:\Users\SOLDER~1\AppData\Local\Temp\ccYCTqm0.s:25635  .debug_str:000000000000b26e .LASF2251
C:\Users\SOLDER~1\AppData\Local\Temp\ccYCTqm0.s:34189  .debug_str:000000000002da2e .LASF2252
C:\Users\SOLDER~1\AppData\Local\Temp\ccYCTqm0.s:27359  .debug_str:0000000000012118 .LASF2253
GAS LISTING C:\Users\SOLDER~1\AppData\Local\Temp\ccYCTqm0.s 			page 144


C:\Users\SOLDER~1\AppData\Local\Temp\ccYCTqm0.s:22901  .debug_str:0000000000000147 .LASF2254
C:\Users\SOLDER~1\AppData\Local\Temp\ccYCTqm0.s:28669  .debug_str:00000000000175eb .LASF2255
C:\Users\SOLDER~1\AppData\Local\Temp\ccYCTqm0.s:31151  .debug_str:0000000000021563 .LASF2256
C:\Users\SOLDER~1\AppData\Local\Temp\ccYCTqm0.s:33239  .debug_str:0000000000029ccf .LASF2257
C:\Users\SOLDER~1\AppData\Local\Temp\ccYCTqm0.s:26075  .debug_str:000000000000cea2 .LASF2258
C:\Users\SOLDER~1\AppData\Local\Temp\ccYCTqm0.s:23561  .debug_str:0000000000002c77 .LASF2259
C:\Users\SOLDER~1\AppData\Local\Temp\ccYCTqm0.s:31717  .debug_str:00000000000239aa .LASF2260
C:\Users\SOLDER~1\AppData\Local\Temp\ccYCTqm0.s:29261  .debug_str:0000000000019c3a .LASF2261
C:\Users\SOLDER~1\AppData\Local\Temp\ccYCTqm0.s:24957  .debug_str:0000000000008641 .LASF2262
C:\Users\SOLDER~1\AppData\Local\Temp\ccYCTqm0.s:27871  .debug_str:0000000000014287 .LASF2263
C:\Users\SOLDER~1\AppData\Local\Temp\ccYCTqm0.s:30817  .debug_str:0000000000020001 .LASF2264
C:\Users\SOLDER~1\AppData\Local\Temp\ccYCTqm0.s:27173  .debug_str:0000000000011526 .LASF2265
C:\Users\SOLDER~1\AppData\Local\Temp\ccYCTqm0.s:26721  .debug_str:000000000000f86c .LASF2266
C:\Users\SOLDER~1\AppData\Local\Temp\ccYCTqm0.s:29215  .debug_str:000000000001997c .LASF2267
C:\Users\SOLDER~1\AppData\Local\Temp\ccYCTqm0.s:26513  .debug_str:000000000000eb5d .LASF2268
C:\Users\SOLDER~1\AppData\Local\Temp\ccYCTqm0.s:23147  .debug_str:00000000000011dc .LASF2269
C:\Users\SOLDER~1\AppData\Local\Temp\ccYCTqm0.s:32717  .debug_str:0000000000027b30 .LASF2270
C:\Users\SOLDER~1\AppData\Local\Temp\ccYCTqm0.s:33463  .debug_str:000000000002ab8d .LASF2271
C:\Users\SOLDER~1\AppData\Local\Temp\ccYCTqm0.s:33657  .debug_str:000000000002b7de .LASF2272
C:\Users\SOLDER~1\AppData\Local\Temp\ccYCTqm0.s:32735  .debug_str:0000000000027c60 .LASF2273
C:\Users\SOLDER~1\AppData\Local\Temp\ccYCTqm0.s:23011  .debug_str:00000000000008c2 .LASF2274
C:\Users\SOLDER~1\AppData\Local\Temp\ccYCTqm0.s:23095  .debug_str:0000000000000ea9 .LASF2275
C:\Users\SOLDER~1\AppData\Local\Temp\ccYCTqm0.s:25321  .debug_str:0000000000009df5 .LASF2276
C:\Users\SOLDER~1\AppData\Local\Temp\ccYCTqm0.s:30621  .debug_str:000000000001f2e5 .LASF2277
C:\Users\SOLDER~1\AppData\Local\Temp\ccYCTqm0.s:24845  .debug_str:0000000000007ec7 .LASF2278
C:\Users\SOLDER~1\AppData\Local\Temp\ccYCTqm0.s:34531  .debug_str:000000000002f034 .LASF2279
C:\Users\SOLDER~1\AppData\Local\Temp\ccYCTqm0.s:27457  .debug_str:0000000000012709 .LASF2280
C:\Users\SOLDER~1\AppData\Local\Temp\ccYCTqm0.s:30695  .debug_str:000000000001f7eb .LASF2281
C:\Users\SOLDER~1\AppData\Local\Temp\ccYCTqm0.s:34129  .debug_str:000000000002d681 .LASF2282
C:\Users\SOLDER~1\AppData\Local\Temp\ccYCTqm0.s:24781  .debug_str:0000000000007ac6 .LASF2283
C:\Users\SOLDER~1\AppData\Local\Temp\ccYCTqm0.s:23517  .debug_str:00000000000029b6 .LASF2284
C:\Users\SOLDER~1\AppData\Local\Temp\ccYCTqm0.s:30989  .debug_str:0000000000020ae8 .LASF2285
C:\Users\SOLDER~1\AppData\Local\Temp\ccYCTqm0.s:24743  .debug_str:0000000000007894 .LASF2286
C:\Users\SOLDER~1\AppData\Local\Temp\ccYCTqm0.s:28753  .debug_str:0000000000017bb4 .LASF2287
C:\Users\SOLDER~1\AppData\Local\Temp\ccYCTqm0.s:27409  .debug_str:0000000000012417 .LASF2288
C:\Users\SOLDER~1\AppData\Local\Temp\ccYCTqm0.s:24869  .debug_str:0000000000008078 .LASF2289
C:\Users\SOLDER~1\AppData\Local\Temp\ccYCTqm0.s:30231  .debug_str:000000000001da00 .LASF2290
C:\Users\SOLDER~1\AppData\Local\Temp\ccYCTqm0.s:30731  .debug_str:000000000001fa83 .LASF2291
C:\Users\SOLDER~1\AppData\Local\Temp\ccYCTqm0.s:27829  .debug_str:0000000000013fd1 .LASF2292
C:\Users\SOLDER~1\AppData\Local\Temp\ccYCTqm0.s:23933  .debug_str:0000000000004434 .LASF2293
C:\Users\SOLDER~1\AppData\Local\Temp\ccYCTqm0.s:28087  .debug_str:0000000000015131 .LASF2294
C:\Users\SOLDER~1\AppData\Local\Temp\ccYCTqm0.s:34499  .debug_str:000000000002ee2b .LASF2295
C:\Users\SOLDER~1\AppData\Local\Temp\ccYCTqm0.s:24795  .debug_str:0000000000007b6d .LASF2296
C:\Users\SOLDER~1\AppData\Local\Temp\ccYCTqm0.s:33425  .debug_str:000000000002a929 .LASF2297
C:\Users\SOLDER~1\AppData\Local\Temp\ccYCTqm0.s:31621  .debug_str:0000000000023343 .LASF2298
C:\Users\SOLDER~1\AppData\Local\Temp\ccYCTqm0.s:27697  .debug_str:0000000000013696 .LASF2299
C:\Users\SOLDER~1\AppData\Local\Temp\ccYCTqm0.s:30931  .debug_str:0000000000020712 .LASF2300
C:\Users\SOLDER~1\AppData\Local\Temp\ccYCTqm0.s:33757  .debug_str:000000000002be66 .LASF2301
C:\Users\SOLDER~1\AppData\Local\Temp\ccYCTqm0.s:27195  .debug_str:0000000000011679 .LASF2302
C:\Users\SOLDER~1\AppData\Local\Temp\ccYCTqm0.s:31409  .debug_str:0000000000022569 .LASF2303
C:\Users\SOLDER~1\AppData\Local\Temp\ccYCTqm0.s:28731  .debug_str:0000000000017a25 .LASF2304
C:\Users\SOLDER~1\AppData\Local\Temp\ccYCTqm0.s:27619  .debug_str:0000000000013199 .LASF2305
C:\Users\SOLDER~1\AppData\Local\Temp\ccYCTqm0.s:30099  .debug_str:000000000001d1d1 .LASF2306
C:\Users\SOLDER~1\AppData\Local\Temp\ccYCTqm0.s:33467  .debug_str:000000000002abc1 .LASF2307
C:\Users\SOLDER~1\AppData\Local\Temp\ccYCTqm0.s:27237  .debug_str:000000000001195e .LASF2308
C:\Users\SOLDER~1\AppData\Local\Temp\ccYCTqm0.s:27955  .debug_str:0000000000014852 .LASF2309
C:\Users\SOLDER~1\AppData\Local\Temp\ccYCTqm0.s:26591  .debug_str:000000000000f025 .LASF2310
GAS LISTING C:\Users\SOLDER~1\AppData\Local\Temp\ccYCTqm0.s 			page 145


C:\Users\SOLDER~1\AppData\Local\Temp\ccYCTqm0.s:25617  .debug_str:000000000000b15a .LASF2311
C:\Users\SOLDER~1\AppData\Local\Temp\ccYCTqm0.s:33343  .debug_str:000000000002a390 .LASF2312
C:\Users\SOLDER~1\AppData\Local\Temp\ccYCTqm0.s:33485  .debug_str:000000000002acb3 .LASF2313
C:\Users\SOLDER~1\AppData\Local\Temp\ccYCTqm0.s:25957  .debug_str:000000000000c6e9 .LASF2314
C:\Users\SOLDER~1\AppData\Local\Temp\ccYCTqm0.s:27655  .debug_str:00000000000133df .LASF2315
C:\Users\SOLDER~1\AppData\Local\Temp\ccYCTqm0.s:27363  .debug_str:000000000001214c .LASF2316
C:\Users\SOLDER~1\AppData\Local\Temp\ccYCTqm0.s:24815  .debug_str:0000000000007cd5 .LASF2317
C:\Users\SOLDER~1\AppData\Local\Temp\ccYCTqm0.s:27167  .debug_str:00000000000114b2 .LASF2318
C:\Users\SOLDER~1\AppData\Local\Temp\ccYCTqm0.s:34203  .debug_str:000000000002db15 .LASF2319
C:\Users\SOLDER~1\AppData\Local\Temp\ccYCTqm0.s:28309  .debug_str:0000000000015f3e .LASF2320
C:\Users\SOLDER~1\AppData\Local\Temp\ccYCTqm0.s:31423  .debug_str:0000000000022626 .LASF2321
C:\Users\SOLDER~1\AppData\Local\Temp\ccYCTqm0.s:28767  .debug_str:0000000000017c5f .LASF2322
C:\Users\SOLDER~1\AppData\Local\Temp\ccYCTqm0.s:31803  .debug_str:0000000000023f17 .LASF2323
C:\Users\SOLDER~1\AppData\Local\Temp\ccYCTqm0.s:31267  .debug_str:0000000000021cc3 .LASF2324
C:\Users\SOLDER~1\AppData\Local\Temp\ccYCTqm0.s:30207  .debug_str:000000000001d889 .LASF2325
C:\Users\SOLDER~1\AppData\Local\Temp\ccYCTqm0.s:24751  .debug_str:000000000000790b .LASF2326
C:\Users\SOLDER~1\AppData\Local\Temp\ccYCTqm0.s:29899  .debug_str:000000000001c48f .LASF2327
C:\Users\SOLDER~1\AppData\Local\Temp\ccYCTqm0.s:25543  .debug_str:000000000000acab .LASF2328
C:\Users\SOLDER~1\AppData\Local\Temp\ccYCTqm0.s:25447  .debug_str:000000000000a632 .LASF2329
C:\Users\SOLDER~1\AppData\Local\Temp\ccYCTqm0.s:24239  .debug_str:0000000000005709 .LASF2330
C:\Users\SOLDER~1\AppData\Local\Temp\ccYCTqm0.s:23255  .debug_str:00000000000018a5 .LASF2331
C:\Users\SOLDER~1\AppData\Local\Temp\ccYCTqm0.s:33677  .debug_str:000000000002b91c .LASF2332
C:\Users\SOLDER~1\AppData\Local\Temp\ccYCTqm0.s:24189  .debug_str:000000000000541d .LASF2333
C:\Users\SOLDER~1\AppData\Local\Temp\ccYCTqm0.s:32973  .debug_str:0000000000028bf5 .LASF2334
C:\Users\SOLDER~1\AppData\Local\Temp\ccYCTqm0.s:25841  .debug_str:000000000000bf4f .LASF2335
C:\Users\SOLDER~1\AppData\Local\Temp\ccYCTqm0.s:30691  .debug_str:000000000001f7a7 .LASF2336
C:\Users\SOLDER~1\AppData\Local\Temp\ccYCTqm0.s:26317  .debug_str:000000000000de69 .LASF2337
C:\Users\SOLDER~1\AppData\Local\Temp\ccYCTqm0.s:34187  .debug_str:000000000002da0b .LASF2338
C:\Users\SOLDER~1\AppData\Local\Temp\ccYCTqm0.s:26087  .debug_str:000000000000cf7f .LASF2339
C:\Users\SOLDER~1\AppData\Local\Temp\ccYCTqm0.s:30897  .debug_str:00000000000204e9 .LASF2340
C:\Users\SOLDER~1\AppData\Local\Temp\ccYCTqm0.s:30771  .debug_str:000000000001fcff .LASF2341
C:\Users\SOLDER~1\AppData\Local\Temp\ccYCTqm0.s:33771  .debug_str:000000000002bf31 .LASF2342
C:\Users\SOLDER~1\AppData\Local\Temp\ccYCTqm0.s:25947  .debug_str:000000000000c631 .LASF2343
C:\Users\SOLDER~1\AppData\Local\Temp\ccYCTqm0.s:25605  .debug_str:000000000000b087 .LASF2344
C:\Users\SOLDER~1\AppData\Local\Temp\ccYCTqm0.s:27097  .debug_str:0000000000011043 .LASF2345
C:\Users\SOLDER~1\AppData\Local\Temp\ccYCTqm0.s:26469  .debug_str:000000000000e8c2 .LASF2346
C:\Users\SOLDER~1\AppData\Local\Temp\ccYCTqm0.s:32867  .debug_str:0000000000028510 .LASF2347
C:\Users\SOLDER~1\AppData\Local\Temp\ccYCTqm0.s:31071  .debug_str:0000000000021008 .LASF2348
C:\Users\SOLDER~1\AppData\Local\Temp\ccYCTqm0.s:24887  .debug_str:0000000000008193 .LASF2349
C:\Users\SOLDER~1\AppData\Local\Temp\ccYCTqm0.s:29869  .debug_str:000000000001c29a .LASF2350
C:\Users\SOLDER~1\AppData\Local\Temp\ccYCTqm0.s:33063  .debug_str:000000000002918e .LASF2351
C:\Users\SOLDER~1\AppData\Local\Temp\ccYCTqm0.s:31555  .debug_str:0000000000022f08 .LASF2352
C:\Users\SOLDER~1\AppData\Local\Temp\ccYCTqm0.s:25521  .debug_str:000000000000ab52 .LASF2353
C:\Users\SOLDER~1\AppData\Local\Temp\ccYCTqm0.s:34093  .debug_str:000000000002d3e6 .LASF2354
C:\Users\SOLDER~1\AppData\Local\Temp\ccYCTqm0.s:26325  .debug_str:000000000000ded8 .LASF2355
C:\Users\SOLDER~1\AppData\Local\Temp\ccYCTqm0.s:29071  .debug_str:0000000000019036 .LASF2356
C:\Users\SOLDER~1\AppData\Local\Temp\ccYCTqm0.s:25909  .debug_str:000000000000c379 .LASF2357
C:\Users\SOLDER~1\AppData\Local\Temp\ccYCTqm0.s:29847  .debug_str:000000000001c119 .LASF2358
C:\Users\SOLDER~1\AppData\Local\Temp\ccYCTqm0.s:26803  .debug_str:000000000000fded .LASF2359
C:\Users\SOLDER~1\AppData\Local\Temp\ccYCTqm0.s:30267  .debug_str:000000000001dc2f .LASF2360
C:\Users\SOLDER~1\AppData\Local\Temp\ccYCTqm0.s:30967  .debug_str:000000000002097e .LASF2361
C:\Users\SOLDER~1\AppData\Local\Temp\ccYCTqm0.s:26365  .debug_str:000000000000e18c .LASF2362
C:\Users\SOLDER~1\AppData\Local\Temp\ccYCTqm0.s:27627  .debug_str:0000000000013216 .LASF2363
C:\Users\SOLDER~1\AppData\Local\Temp\ccYCTqm0.s:25661  .debug_str:000000000000b413 .LASF2364
C:\Users\SOLDER~1\AppData\Local\Temp\ccYCTqm0.s:33641  .debug_str:000000000002b6f6 .LASF2365
C:\Users\SOLDER~1\AppData\Local\Temp\ccYCTqm0.s:30887  .debug_str:000000000002044c .LASF2366
C:\Users\SOLDER~1\AppData\Local\Temp\ccYCTqm0.s:32121  .debug_str:00000000000253c6 .LASF2367
GAS LISTING C:\Users\SOLDER~1\AppData\Local\Temp\ccYCTqm0.s 			page 146


C:\Users\SOLDER~1\AppData\Local\Temp\ccYCTqm0.s:30981  .debug_str:0000000000020a58 .LASF2368
C:\Users\SOLDER~1\AppData\Local\Temp\ccYCTqm0.s:29045  .debug_str:0000000000018e7b .LASF2369
C:\Users\SOLDER~1\AppData\Local\Temp\ccYCTqm0.s:23513  .debug_str:000000000000293d .LASF2370
C:\Users\SOLDER~1\AppData\Local\Temp\ccYCTqm0.s:33361  .debug_str:000000000002a4c2 .LASF2371
C:\Users\SOLDER~1\AppData\Local\Temp\ccYCTqm0.s:30493  .debug_str:000000000001ea90 .LASF2372
C:\Users\SOLDER~1\AppData\Local\Temp\ccYCTqm0.s:23959  .debug_str:00000000000045a9 .LASF2373
C:\Users\SOLDER~1\AppData\Local\Temp\ccYCTqm0.s:23801  .debug_str:0000000000003bc8 .LASF2374
C:\Users\SOLDER~1\AppData\Local\Temp\ccYCTqm0.s:24429  .debug_str:00000000000063ea .LASF2375
C:\Users\SOLDER~1\AppData\Local\Temp\ccYCTqm0.s:29383  .debug_str:000000000001a3dc .LASF2376
C:\Users\SOLDER~1\AppData\Local\Temp\ccYCTqm0.s:25465  .debug_str:000000000000a759 .LASF2377
C:\Users\SOLDER~1\AppData\Local\Temp\ccYCTqm0.s:23671  .debug_str:000000000000338b .LASF2378
C:\Users\SOLDER~1\AppData\Local\Temp\ccYCTqm0.s:28153  .debug_str:0000000000015553 .LASF2379
C:\Users\SOLDER~1\AppData\Local\Temp\ccYCTqm0.s:32765  .debug_str:0000000000027e2c .LASF2380
C:\Users\SOLDER~1\AppData\Local\Temp\ccYCTqm0.s:23001  .debug_str:000000000000081b .LASF2381
C:\Users\SOLDER~1\AppData\Local\Temp\ccYCTqm0.s:34491  .debug_str:000000000002ed9a .LASF2382
C:\Users\SOLDER~1\AppData\Local\Temp\ccYCTqm0.s:29883  .debug_str:000000000001c376 .LASF2383
C:\Users\SOLDER~1\AppData\Local\Temp\ccYCTqm0.s:25961  .debug_str:000000000000c73d .LASF2384
C:\Users\SOLDER~1\AppData\Local\Temp\ccYCTqm0.s:34041  .debug_str:000000000002d06d .LASF2385
C:\Users\SOLDER~1\AppData\Local\Temp\ccYCTqm0.s:33403  .debug_str:000000000002a7bf .LASF2386
C:\Users\SOLDER~1\AppData\Local\Temp\ccYCTqm0.s:32581  .debug_str:000000000002721a .LASF2387
C:\Users\SOLDER~1\AppData\Local\Temp\ccYCTqm0.s:34227  .debug_str:000000000002dcba .LASF2388
C:\Users\SOLDER~1\AppData\Local\Temp\ccYCTqm0.s:28119  .debug_str:0000000000015322 .LASF2389
C:\Users\SOLDER~1\AppData\Local\Temp\ccYCTqm0.s:24577  .debug_str:0000000000006dc5 .LASF2390
C:\Users\SOLDER~1\AppData\Local\Temp\ccYCTqm0.s:27121  .debug_str:00000000000111cc .LASF2391
C:\Users\SOLDER~1\AppData\Local\Temp\ccYCTqm0.s:30665  .debug_str:000000000001f5e2 .LASF2392
C:\Users\SOLDER~1\AppData\Local\Temp\ccYCTqm0.s:24539  .debug_str:0000000000006b8f .LASF2393
C:\Users\SOLDER~1\AppData\Local\Temp\ccYCTqm0.s:29957  .debug_str:000000000001c847 .LASF2394
C:\Users\SOLDER~1\AppData\Local\Temp\ccYCTqm0.s:29683  .debug_str:000000000001b720 .LASF2395
C:\Users\SOLDER~1\AppData\Local\Temp\ccYCTqm0.s:23553  .debug_str:0000000000002bfa .LASF2396
C:\Users\SOLDER~1\AppData\Local\Temp\ccYCTqm0.s:24151  .debug_str:00000000000051ba .LASF2397
C:\Users\SOLDER~1\AppData\Local\Temp\ccYCTqm0.s:27743  .debug_str:00000000000139b7 .LASF2398
C:\Users\SOLDER~1\AppData\Local\Temp\ccYCTqm0.s:31895  .debug_str:00000000000244e2 .LASF2399
C:\Users\SOLDER~1\AppData\Local\Temp\ccYCTqm0.s:25043  .debug_str:0000000000008b99 .LASF2400
C:\Users\SOLDER~1\AppData\Local\Temp\ccYCTqm0.s:26617  .debug_str:000000000000f1d1 .LASF2401
C:\Users\SOLDER~1\AppData\Local\Temp\ccYCTqm0.s:27313  .debug_str:0000000000011e20 .LASF2402
C:\Users\SOLDER~1\AppData\Local\Temp\ccYCTqm0.s:31749  .debug_str:0000000000023bc2 .LASF2403
C:\Users\SOLDER~1\AppData\Local\Temp\ccYCTqm0.s:26749  .debug_str:000000000000fa49 .LASF2404
C:\Users\SOLDER~1\AppData\Local\Temp\ccYCTqm0.s:25751  .debug_str:000000000000b9cd .LASF2405
C:\Users\SOLDER~1\AppData\Local\Temp\ccYCTqm0.s:32201  .debug_str:00000000000258c4 .LASF2406
C:\Users\SOLDER~1\AppData\Local\Temp\ccYCTqm0.s:29785  .debug_str:000000000001bd0f .LASF2407
C:\Users\SOLDER~1\AppData\Local\Temp\ccYCTqm0.s:27993  .debug_str:0000000000014ac7 .LASF2408
C:\Users\SOLDER~1\AppData\Local\Temp\ccYCTqm0.s:30177  .debug_str:000000000001d691 .LASF2409
C:\Users\SOLDER~1\AppData\Local\Temp\ccYCTqm0.s:24083  .debug_str:0000000000004da2 .LASF2410
C:\Users\SOLDER~1\AppData\Local\Temp\ccYCTqm0.s:24533  .debug_str:0000000000006b1b .LASF2411
C:\Users\SOLDER~1\AppData\Local\Temp\ccYCTqm0.s:25649  .debug_str:000000000000b34e .LASF2412
C:\Users\SOLDER~1\AppData\Local\Temp\ccYCTqm0.s:25989  .debug_str:000000000000c913 .LASF2413
C:\Users\SOLDER~1\AppData\Local\Temp\ccYCTqm0.s:31049  .debug_str:0000000000020eb8 .LASF2414
C:\Users\SOLDER~1\AppData\Local\Temp\ccYCTqm0.s:24683  .debug_str:00000000000074cd .LASF2415
C:\Users\SOLDER~1\AppData\Local\Temp\ccYCTqm0.s:23945  .debug_str:00000000000044cf .LASF2416
C:\Users\SOLDER~1\AppData\Local\Temp\ccYCTqm0.s:29759  .debug_str:000000000001bb92 .LASF2417
C:\Users\SOLDER~1\AppData\Local\Temp\ccYCTqm0.s:26837  .debug_str:000000000001004a .LASF2418
C:\Users\SOLDER~1\AppData\Local\Temp\ccYCTqm0.s:29535  .debug_str:000000000001add0 .LASF2419
C:\Users\SOLDER~1\AppData\Local\Temp\ccYCTqm0.s:30507  .debug_str:000000000001eb7e .LASF2420
C:\Users\SOLDER~1\AppData\Local\Temp\ccYCTqm0.s:23113  .debug_str:0000000000000fc1 .LASF2421
C:\Users\SOLDER~1\AppData\Local\Temp\ccYCTqm0.s:23233  .debug_str:0000000000001731 .LASF2422
C:\Users\SOLDER~1\AppData\Local\Temp\ccYCTqm0.s:24131  .debug_str:0000000000005083 .LASF2423
C:\Users\SOLDER~1\AppData\Local\Temp\ccYCTqm0.s:34251  .debug_str:000000000002de35 .LASF2424
GAS LISTING C:\Users\SOLDER~1\AppData\Local\Temp\ccYCTqm0.s 			page 147


C:\Users\SOLDER~1\AppData\Local\Temp\ccYCTqm0.s:25775  .debug_str:000000000000bb11 .LASF2425
C:\Users\SOLDER~1\AppData\Local\Temp\ccYCTqm0.s:23585  .debug_str:0000000000002dd7 .LASF2426
C:\Users\SOLDER~1\AppData\Local\Temp\ccYCTqm0.s:30495  .debug_str:000000000001eab3 .LASF2427
C:\Users\SOLDER~1\AppData\Local\Temp\ccYCTqm0.s:24529  .debug_str:0000000000006adb .LASF2428
C:\Users\SOLDER~1\AppData\Local\Temp\ccYCTqm0.s:23235  .debug_str:0000000000001753 .LASF2429
C:\Users\SOLDER~1\AppData\Local\Temp\ccYCTqm0.s:28075  .debug_str:0000000000015064 .LASF2430
C:\Users\SOLDER~1\AppData\Local\Temp\ccYCTqm0.s:30193  .debug_str:000000000001d79d .LASF2431
C:\Users\SOLDER~1\AppData\Local\Temp\ccYCTqm0.s:22923  .debug_str:0000000000000296 .LASF2432
C:\Users\SOLDER~1\AppData\Local\Temp\ccYCTqm0.s:23115  .debug_str:0000000000000fd9 .LASF2433
C:\Users\SOLDER~1\AppData\Local\Temp\ccYCTqm0.s:29757  .debug_str:000000000001bb6d .LASF2434
C:\Users\SOLDER~1\AppData\Local\Temp\ccYCTqm0.s:33851  .debug_str:000000000002c486 .LASF2435
C:\Users\SOLDER~1\AppData\Local\Temp\ccYCTqm0.s:23393  .debug_str:000000000000218f .LASF2436
C:\Users\SOLDER~1\AppData\Local\Temp\ccYCTqm0.s:34157  .debug_str:000000000002d84a .LASF2437
C:\Users\SOLDER~1\AppData\Local\Temp\ccYCTqm0.s:32311  .debug_str:0000000000026028 .LASF2438
C:\Users\SOLDER~1\AppData\Local\Temp\ccYCTqm0.s:26999  .debug_str:0000000000010a4c .LASF2439
C:\Users\SOLDER~1\AppData\Local\Temp\ccYCTqm0.s:28901  .debug_str:000000000001857b .LASF2440
C:\Users\SOLDER~1\AppData\Local\Temp\ccYCTqm0.s:26165  .debug_str:000000000000d4ad .LASF2441
C:\Users\SOLDER~1\AppData\Local\Temp\ccYCTqm0.s:28575  .debug_str:0000000000016fa7 .LASF2442
C:\Users\SOLDER~1\AppData\Local\Temp\ccYCTqm0.s:33801  .debug_str:000000000002c129 .LASF2443
C:\Users\SOLDER~1\AppData\Local\Temp\ccYCTqm0.s:23649  .debug_str:0000000000003217 .LASF2444
C:\Users\SOLDER~1\AppData\Local\Temp\ccYCTqm0.s:26167  .debug_str:000000000000d4c3 .LASF2445
C:\Users\SOLDER~1\AppData\Local\Temp\ccYCTqm0.s:30295  .debug_str:000000000001ddb2 .LASF2446
C:\Users\SOLDER~1\AppData\Local\Temp\ccYCTqm0.s:25851  .debug_str:000000000000bff3 .LASF2447
C:\Users\SOLDER~1\AppData\Local\Temp\ccYCTqm0.s:31087  .debug_str:00000000000210f3 .LASF2448
C:\Users\SOLDER~1\AppData\Local\Temp\ccYCTqm0.s:30827  .debug_str:00000000000200a0 .LASF2449
C:\Users\SOLDER~1\AppData\Local\Temp\ccYCTqm0.s:28069  .debug_str:000000000001500f .LASF2450
C:\Users\SOLDER~1\AppData\Local\Temp\ccYCTqm0.s:28431  .debug_str:0000000000016723 .LASF2451
C:\Users\SOLDER~1\AppData\Local\Temp\ccYCTqm0.s:27631  .debug_str:0000000000013254 .LASF2452
C:\Users\SOLDER~1\AppData\Local\Temp\ccYCTqm0.s:31915  .debug_str:0000000000024621 .LASF2453
C:\Users\SOLDER~1\AppData\Local\Temp\ccYCTqm0.s:26253  .debug_str:000000000000da54 .LASF2454
C:\Users\SOLDER~1\AppData\Local\Temp\ccYCTqm0.s:33581  .debug_str:000000000002b2d6 .LASF2455
C:\Users\SOLDER~1\AppData\Local\Temp\ccYCTqm0.s:32105  .debug_str:000000000002529e .LASF2456
C:\Users\SOLDER~1\AppData\Local\Temp\ccYCTqm0.s:26481  .debug_str:000000000000e97f .LASF2457
C:\Users\SOLDER~1\AppData\Local\Temp\ccYCTqm0.s:32945  .debug_str:00000000000289fb .LASF2458
C:\Users\SOLDER~1\AppData\Local\Temp\ccYCTqm0.s:26171  .debug_str:000000000000d500 .LASF2459
C:\Users\SOLDER~1\AppData\Local\Temp\ccYCTqm0.s:30961  .debug_str:0000000000020916 .LASF2460
C:\Users\SOLDER~1\AppData\Local\Temp\ccYCTqm0.s:23341  .debug_str:0000000000001e57 .LASF2461
C:\Users\SOLDER~1\AppData\Local\Temp\ccYCTqm0.s:32425  .debug_str:00000000000267ef .LASF2462
C:\Users\SOLDER~1\AppData\Local\Temp\ccYCTqm0.s:26029  .debug_str:000000000000cbad .LASF2463
C:\Users\SOLDER~1\AppData\Local\Temp\ccYCTqm0.s:32645  .debug_str:0000000000027655 .LASF2464
C:\Users\SOLDER~1\AppData\Local\Temp\ccYCTqm0.s:25075  .debug_str:0000000000008dc3 .LASF2465
C:\Users\SOLDER~1\AppData\Local\Temp\ccYCTqm0.s:26299  .debug_str:000000000000dd5c .LASF2466
C:\Users\SOLDER~1\AppData\Local\Temp\ccYCTqm0.s:26733  .debug_str:000000000000f959 .LASF2467
C:\Users\SOLDER~1\AppData\Local\Temp\ccYCTqm0.s:24949  .debug_str:00000000000085a7 .LASF2468
C:\Users\SOLDER~1\AppData\Local\Temp\ccYCTqm0.s:25027  .debug_str:0000000000008aac .LASF2469
C:\Users\SOLDER~1\AppData\Local\Temp\ccYCTqm0.s:29947  .debug_str:000000000001c7c1 .LASF2470
C:\Users\SOLDER~1\AppData\Local\Temp\ccYCTqm0.s:32361  .debug_str:00000000000263b8 .LASF2471
C:\Users\SOLDER~1\AppData\Local\Temp\ccYCTqm0.s:31381  .debug_str:00000000000223cc .LASF2472
C:\Users\SOLDER~1\AppData\Local\Temp\ccYCTqm0.s:29829  .debug_str:000000000001bfe8 .LASF2473
C:\Users\SOLDER~1\AppData\Local\Temp\ccYCTqm0.s:27969  .debug_str:0000000000014938 .LASF2474
C:\Users\SOLDER~1\AppData\Local\Temp\ccYCTqm0.s:33973  .debug_str:000000000002cc38 .LASF2475
C:\Users\SOLDER~1\AppData\Local\Temp\ccYCTqm0.s:30345  .debug_str:000000000001e0ea .LASF2476
C:\Users\SOLDER~1\AppData\Local\Temp\ccYCTqm0.s:33655  .debug_str:000000000002b7c6 .LASF2477
C:\Users\SOLDER~1\AppData\Local\Temp\ccYCTqm0.s:23777  .debug_str:0000000000003a39 .LASF2478
C:\Users\SOLDER~1\AppData\Local\Temp\ccYCTqm0.s:34243  .debug_str:000000000002ddc6 .LASF2479
C:\Users\SOLDER~1\AppData\Local\Temp\ccYCTqm0.s:30835  .debug_str:0000000000020125 .LASF2480
C:\Users\SOLDER~1\AppData\Local\Temp\ccYCTqm0.s:25449  .debug_str:000000000000a649 .LASF2481
GAS LISTING C:\Users\SOLDER~1\AppData\Local\Temp\ccYCTqm0.s 			page 148


C:\Users\SOLDER~1\AppData\Local\Temp\ccYCTqm0.s:31875  .debug_str:0000000000024395 .LASF2482
C:\Users\SOLDER~1\AppData\Local\Temp\ccYCTqm0.s:28001  .debug_str:0000000000014b3f .LASF2483
C:\Users\SOLDER~1\AppData\Local\Temp\ccYCTqm0.s:31197  .debug_str:0000000000021830 .LASF2484
C:\Users\SOLDER~1\AppData\Local\Temp\ccYCTqm0.s:29623  .debug_str:000000000001b37f .LASF2485
C:\Users\SOLDER~1\AppData\Local\Temp\ccYCTqm0.s:24831  .debug_str:0000000000007dc8 .LASF2486
C:\Users\SOLDER~1\AppData\Local\Temp\ccYCTqm0.s:32389  .debug_str:0000000000026588 .LASF2487
C:\Users\SOLDER~1\AppData\Local\Temp\ccYCTqm0.s:29699  .debug_str:000000000001b7d4 .LASF2488
C:\Users\SOLDER~1\AppData\Local\Temp\ccYCTqm0.s:29127  .debug_str:00000000000193d7 .LASF2489
C:\Users\SOLDER~1\AppData\Local\Temp\ccYCTqm0.s:33899  .debug_str:000000000002c7a2 .LASF2490
C:\Users\SOLDER~1\AppData\Local\Temp\ccYCTqm0.s:33891  .debug_str:000000000002c74a .LASF2491
C:\Users\SOLDER~1\AppData\Local\Temp\ccYCTqm0.s:29305  .debug_str:0000000000019ef6 .LASF2492
C:\Users\SOLDER~1\AppData\Local\Temp\ccYCTqm0.s:34529  .debug_str:000000000002f00f .LASF2493
C:\Users\SOLDER~1\AppData\Local\Temp\ccYCTqm0.s:23865  .debug_str:0000000000003fd8 .LASF2494
C:\Users\SOLDER~1\AppData\Local\Temp\ccYCTqm0.s:29825  .debug_str:000000000001bfae .LASF2495
C:\Users\SOLDER~1\AppData\Local\Temp\ccYCTqm0.s:29205  .debug_str:00000000000198bd .LASF2496
C:\Users\SOLDER~1\AppData\Local\Temp\ccYCTqm0.s:31009  .debug_str:0000000000020c0d .LASF2497
C:\Users\SOLDER~1\AppData\Local\Temp\ccYCTqm0.s:29253  .debug_str:0000000000019bd3 .LASF2498
C:\Users\SOLDER~1\AppData\Local\Temp\ccYCTqm0.s:32313  .debug_str:000000000002604a .LASF2499
C:\Users\SOLDER~1\AppData\Local\Temp\ccYCTqm0.s:32947  .debug_str:0000000000028a1e .LASF2500
C:\Users\SOLDER~1\AppData\Local\Temp\ccYCTqm0.s:29349  .debug_str:000000000001a1d2 .LASF2501
C:\Users\SOLDER~1\AppData\Local\Temp\ccYCTqm0.s:33915  .debug_str:000000000002c8ae .LASF2502
C:\Users\SOLDER~1\AppData\Local\Temp\ccYCTqm0.s:25917  .debug_str:000000000000c414 .LASF2503
C:\Users\SOLDER~1\AppData\Local\Temp\ccYCTqm0.s:28879  .debug_str:00000000000183f3 .LASF2504
C:\Users\SOLDER~1\AppData\Local\Temp\ccYCTqm0.s:30085  .debug_str:000000000001d0c6 .LASF2505
C:\Users\SOLDER~1\AppData\Local\Temp\ccYCTqm0.s:27281  .debug_str:0000000000011c2f .LASF2506
C:\Users\SOLDER~1\AppData\Local\Temp\ccYCTqm0.s:29695  .debug_str:000000000001b7b6 .LASF2507
C:\Users\SOLDER~1\AppData\Local\Temp\ccYCTqm0.s:28091  .debug_str:000000000001516f .LASF2508
C:\Users\SOLDER~1\AppData\Local\Temp\ccYCTqm0.s:33471  .debug_str:000000000002abfa .LASF2509
C:\Users\SOLDER~1\AppData\Local\Temp\ccYCTqm0.s:25157  .debug_str:000000000000933e .LASF2510
C:\Users\SOLDER~1\AppData\Local\Temp\ccYCTqm0.s:23035  .debug_str:0000000000000ab6 .LASF2511
C:\Users\SOLDER~1\AppData\Local\Temp\ccYCTqm0.s:24491  .debug_str:0000000000006806 .LASF2512
C:\Users\SOLDER~1\AppData\Local\Temp\ccYCTqm0.s:24061  .debug_str:0000000000004c1c .LASF2513
C:\Users\SOLDER~1\AppData\Local\Temp\ccYCTqm0.s:23803  .debug_str:0000000000003bed .LASF2514
C:\Users\SOLDER~1\AppData\Local\Temp\ccYCTqm0.s:25705  .debug_str:000000000000b6d4 .LASF2515
C:\Users\SOLDER~1\AppData\Local\Temp\ccYCTqm0.s:29151  .debug_str:000000000001953b .LASF2516
C:\Users\SOLDER~1\AppData\Local\Temp\ccYCTqm0.s:24241  .debug_str:000000000000572a .LASF2517
C:\Users\SOLDER~1\AppData\Local\Temp\ccYCTqm0.s:26503  .debug_str:000000000000eabe .LASF2518
C:\Users\SOLDER~1\AppData\Local\Temp\ccYCTqm0.s:32061  .debug_str:0000000000024fe7 .LASF2519
C:\Users\SOLDER~1\AppData\Local\Temp\ccYCTqm0.s:25207  .debug_str:000000000000969c .LASF2520
C:\Users\SOLDER~1\AppData\Local\Temp\ccYCTqm0.s:33583  .debug_str:000000000002b2ee .LASF2521
C:\Users\SOLDER~1\AppData\Local\Temp\ccYCTqm0.s:25995  .debug_str:000000000000c966 .LASF2522
C:\Users\SOLDER~1\AppData\Local\Temp\ccYCTqm0.s:31833  .debug_str:0000000000024110 .LASF2523
C:\Users\SOLDER~1\AppData\Local\Temp\ccYCTqm0.s:26835  .debug_str:0000000000010025 .LASF2524
C:\Users\SOLDER~1\AppData\Local\Temp\ccYCTqm0.s:32495  .debug_str:0000000000026ca3 .LASF2525
C:\Users\SOLDER~1\AppData\Local\Temp\ccYCTqm0.s:24085  .debug_str:0000000000004dc7 .LASF2526
C:\Users\SOLDER~1\AppData\Local\Temp\ccYCTqm0.s:23701  .debug_str:000000000000358d .LASF2527
C:\Users\SOLDER~1\AppData\Local\Temp\ccYCTqm0.s:33603  .debug_str:000000000002b448 .LASF2528
C:\Users\SOLDER~1\AppData\Local\Temp\ccYCTqm0.s:29175  .debug_str:00000000000196a2 .LASF2529
C:\Users\SOLDER~1\AppData\Local\Temp\ccYCTqm0.s:24163  .debug_str:0000000000005260 .LASF2530
C:\Users\SOLDER~1\AppData\Local\Temp\ccYCTqm0.s:33023  .debug_str:0000000000028f36 .LASF2531
C:\Users\SOLDER~1\AppData\Local\Temp\ccYCTqm0.s:24111  .debug_str:0000000000004f50 .LASF2532
C:\Users\SOLDER~1\AppData\Local\Temp\ccYCTqm0.s:34383  .debug_str:000000000002e684 .LASF2533
C:\Users\SOLDER~1\AppData\Local\Temp\ccYCTqm0.s:23297  .debug_str:0000000000001b3a .LASF2534
C:\Users\SOLDER~1\AppData\Local\Temp\ccYCTqm0.s:23965  .debug_str:0000000000004607 .LASF2535
C:\Users\SOLDER~1\AppData\Local\Temp\ccYCTqm0.s:29355  .debug_str:000000000001a21e .LASF2536
C:\Users\SOLDER~1\AppData\Local\Temp\ccYCTqm0.s:30943  .debug_str:00000000000207de .LASF2537
C:\Users\SOLDER~1\AppData\Local\Temp\ccYCTqm0.s:23625  .debug_str:00000000000030ac .LASF2538
GAS LISTING C:\Users\SOLDER~1\AppData\Local\Temp\ccYCTqm0.s 			page 149


C:\Users\SOLDER~1\AppData\Local\Temp\ccYCTqm0.s:23085  .debug_str:0000000000000e12 .LASF2539
C:\Users\SOLDER~1\AppData\Local\Temp\ccYCTqm0.s:29669  .debug_str:000000000001b62d .LASF2540
C:\Users\SOLDER~1\AppData\Local\Temp\ccYCTqm0.s:33627  .debug_str:000000000002b634 .LASF2541
C:\Users\SOLDER~1\AppData\Local\Temp\ccYCTqm0.s:23859  .debug_str:0000000000003f74 .LASF2542
C:\Users\SOLDER~1\AppData\Local\Temp\ccYCTqm0.s:29391  .debug_str:000000000001a471 .LASF2543
C:\Users\SOLDER~1\AppData\Local\Temp\ccYCTqm0.s:27465  .debug_str:000000000001276b .LASF2544
C:\Users\SOLDER~1\AppData\Local\Temp\ccYCTqm0.s:23119  .debug_str:0000000000001013 .LASF2545
C:\Users\SOLDER~1\AppData\Local\Temp\ccYCTqm0.s:33749  .debug_str:000000000002bddd .LASF2546
C:\Users\SOLDER~1\AppData\Local\Temp\ccYCTqm0.s:24747  .debug_str:00000000000078cb .LASF2547
C:\Users\SOLDER~1\AppData\Local\Temp\ccYCTqm0.s:32933  .debug_str:0000000000028947 .LASF2548
C:\Users\SOLDER~1\AppData\Local\Temp\ccYCTqm0.s:26369  .debug_str:000000000000e1d2 .LASF2549
C:\Users\SOLDER~1\AppData\Local\Temp\ccYCTqm0.s:32281  .debug_str:0000000000025e2a .LASF2550
C:\Users\SOLDER~1\AppData\Local\Temp\ccYCTqm0.s:27915  .debug_str:000000000001459a .LASF2551
C:\Users\SOLDER~1\AppData\Local\Temp\ccYCTqm0.s:25651  .debug_str:000000000000b36e .LASF2552
C:\Users\SOLDER~1\AppData\Local\Temp\ccYCTqm0.s:29543  .debug_str:000000000001ae2b .LASF2553
C:\Users\SOLDER~1\AppData\Local\Temp\ccYCTqm0.s:25513  .debug_str:000000000000aad6 .LASF2554
C:\Users\SOLDER~1\AppData\Local\Temp\ccYCTqm0.s:31037  .debug_str:0000000000020df1 .LASF2555
C:\Users\SOLDER~1\AppData\Local\Temp\ccYCTqm0.s:24205  .debug_str:0000000000005529 .LASF2556
C:\Users\SOLDER~1\AppData\Local\Temp\ccYCTqm0.s:29263  .debug_str:0000000000019c4e .LASF2557
C:\Users\SOLDER~1\AppData\Local\Temp\ccYCTqm0.s:29307  .debug_str:0000000000019f19 .LASF2558
C:\Users\SOLDER~1\AppData\Local\Temp\ccYCTqm0.s:29639  .debug_str:000000000001b476 .LASF2559
C:\Users\SOLDER~1\AppData\Local\Temp\ccYCTqm0.s:30491  .debug_str:000000000001ea6b .LASF2560
C:\Users\SOLDER~1\AppData\Local\Temp\ccYCTqm0.s:31135  .debug_str:000000000002143f .LASF2561
C:\Users\SOLDER~1\AppData\Local\Temp\ccYCTqm0.s:28883  .debug_str:000000000001843e .LASF2562
C:\Users\SOLDER~1\AppData\Local\Temp\ccYCTqm0.s:32753  .debug_str:0000000000027d6e .LASF2563
C:\Users\SOLDER~1\AppData\Local\Temp\ccYCTqm0.s:33979  .debug_str:000000000002cc84 .LASF2564
C:\Users\SOLDER~1\AppData\Local\Temp\ccYCTqm0.s:34421  .debug_str:000000000002e8c2 .LASF2565
C:\Users\SOLDER~1\AppData\Local\Temp\ccYCTqm0.s:27325  .debug_str:0000000000011ee9 .LASF2566
C:\Users\SOLDER~1\AppData\Local\Temp\ccYCTqm0.s:24211  .debug_str:0000000000005582 .LASF2567
C:\Users\SOLDER~1\AppData\Local\Temp\ccYCTqm0.s:32423  .debug_str:00000000000267ca .LASF2568
C:\Users\SOLDER~1\AppData\Local\Temp\ccYCTqm0.s:25857  .debug_str:000000000000c03c .LASF2569
C:\Users\SOLDER~1\AppData\Local\Temp\ccYCTqm0.s:25885  .debug_str:000000000000c1e7 .LASF2570
C:\Users\SOLDER~1\AppData\Local\Temp\ccYCTqm0.s:27485  .debug_str:00000000000128f8 .LASF2571
C:\Users\SOLDER~1\AppData\Local\Temp\ccYCTqm0.s:30927  .debug_str:00000000000206c9 .LASF2572
C:\Users\SOLDER~1\AppData\Local\Temp\ccYCTqm0.s:30379  .debug_str:000000000001e34f .LASF2573
C:\Users\SOLDER~1\AppData\Local\Temp\ccYCTqm0.s:23579  .debug_str:0000000000002d77 .LASF2574
C:\Users\SOLDER~1\AppData\Local\Temp\ccYCTqm0.s:28483  .debug_str:0000000000016a1d .LASF2575
C:\Users\SOLDER~1\AppData\Local\Temp\ccYCTqm0.s:29721  .debug_str:000000000001b91a .LASF2576
C:\Users\SOLDER~1\AppData\Local\Temp\ccYCTqm0.s:26535  .debug_str:000000000000ecf3 .LASF2577
C:\Users\SOLDER~1\AppData\Local\Temp\ccYCTqm0.s:30385  .debug_str:000000000001e39f .LASF2578
C:\Users\SOLDER~1\AppData\Local\Temp\ccYCTqm0.s:24599  .debug_str:0000000000006f0e .LASF2579
C:\Users\SOLDER~1\AppData\Local\Temp\ccYCTqm0.s:25999  .debug_str:000000000000c9a6 .LASF2580
C:\Users\SOLDER~1\AppData\Local\Temp\ccYCTqm0.s:34395  .debug_str:000000000002e727 .LASF2581
C:\Users\SOLDER~1\AppData\Local\Temp\ccYCTqm0.s:30575  .debug_str:000000000001efcc .LASF2582
C:\Users\SOLDER~1\AppData\Local\Temp\ccYCTqm0.s:27327  .debug_str:0000000000011f0e .LASF2583
C:\Users\SOLDER~1\AppData\Local\Temp\ccYCTqm0.s:31189  .debug_str:00000000000217b5 .LASF2584
C:\Users\SOLDER~1\AppData\Local\Temp\ccYCTqm0.s:30535  .debug_str:000000000001ed81 .LASF2585
C:\Users\SOLDER~1\AppData\Local\Temp\ccYCTqm0.s:26663  .debug_str:000000000000f4b6 .LASF2586
C:\Users\SOLDER~1\AppData\Local\Temp\ccYCTqm0.s:28647  .debug_str:0000000000017455 .LASF2587
C:\Users\SOLDER~1\AppData\Local\Temp\ccYCTqm0.s:23203  .debug_str:0000000000001557 .LASF2588
C:\Users\SOLDER~1\AppData\Local\Temp\ccYCTqm0.s:26699  .debug_str:000000000000f722 .LASF2589
C:\Users\SOLDER~1\AppData\Local\Temp\ccYCTqm0.s:26471  .debug_str:000000000000e8e2 .LASF2590
C:\Users\SOLDER~1\AppData\Local\Temp\ccYCTqm0.s:29505  .debug_str:000000000001abd2 .LASF2591
C:\Users\SOLDER~1\AppData\Local\Temp\ccYCTqm0.s:24143  .debug_str:000000000000513a .LASF2592
C:\Users\SOLDER~1\AppData\Local\Temp\ccYCTqm0.s:30777  .debug_str:000000000001fd64 .LASF2593
C:\Users\SOLDER~1\AppData\Local\Temp\ccYCTqm0.s:30475  .debug_str:000000000001e933 .LASF2594
C:\Users\SOLDER~1\AppData\Local\Temp\ccYCTqm0.s:29057  .debug_str:0000000000018f3a .LASF2595
GAS LISTING C:\Users\SOLDER~1\AppData\Local\Temp\ccYCTqm0.s 			page 150


C:\Users\SOLDER~1\AppData\Local\Temp\ccYCTqm0.s:23315  .debug_str:0000000000001c79 .LASF2596
C:\Users\SOLDER~1\AppData\Local\Temp\ccYCTqm0.s:27369  .debug_str:00000000000121a8 .LASF2597
C:\Users\SOLDER~1\AppData\Local\Temp\ccYCTqm0.s:33981  .debug_str:000000000002cca9 .LASF2598
C:\Users\SOLDER~1\AppData\Local\Temp\ccYCTqm0.s:25693  .debug_str:000000000000b606 .LASF2599
C:\Users\SOLDER~1\AppData\Local\Temp\ccYCTqm0.s:30093  .debug_str:000000000001d14c .LASF2600
C:\Users\SOLDER~1\AppData\Local\Temp\ccYCTqm0.s:23923  .debug_str:00000000000043a1 .LASF2601
C:\Users\SOLDER~1\AppData\Local\Temp\ccYCTqm0.s:26201  .debug_str:000000000000d6eb .LASF2602
C:\Users\SOLDER~1\AppData\Local\Temp\ccYCTqm0.s:33995  .debug_str:000000000002cd76 .LASF2603
C:\Users\SOLDER~1\AppData\Local\Temp\ccYCTqm0.s:29551  .debug_str:000000000001aeaa .LASF2604
C:\Users\SOLDER~1\AppData\Local\Temp\ccYCTqm0.s:28777  .debug_str:0000000000017d26 .LASF2605
C:\Users\SOLDER~1\AppData\Local\Temp\ccYCTqm0.s:24825  .debug_str:0000000000007d51 .LASF2606
C:\Users\SOLDER~1\AppData\Local\Temp\ccYCTqm0.s:30579  .debug_str:000000000001f017 .LASF2607
C:\Users\SOLDER~1\AppData\Local\Temp\ccYCTqm0.s:34443  .debug_str:000000000002ea3a .LASF2608
C:\Users\SOLDER~1\AppData\Local\Temp\ccYCTqm0.s:28957  .debug_str:00000000000188d0 .LASF2609
C:\Users\SOLDER~1\AppData\Local\Temp\ccYCTqm0.s:27977  .debug_str:00000000000149d5 .LASF2610
C:\Users\SOLDER~1\AppData\Local\Temp\ccYCTqm0.s:27273  .debug_str:0000000000011b9b .LASF2611
C:\Users\SOLDER~1\AppData\Local\Temp\ccYCTqm0.s:33261  .debug_str:0000000000029deb .LASF2612
C:\Users\SOLDER~1\AppData\Local\Temp\ccYCTqm0.s:26799  .debug_str:000000000000fdb2 .LASF2613
C:\Users\SOLDER~1\AppData\Local\Temp\ccYCTqm0.s:23927  .debug_str:00000000000043d6 .LASF2614
C:\Users\SOLDER~1\AppData\Local\Temp\ccYCTqm0.s:22973  .debug_str:00000000000005cf .LASF2615
C:\Users\SOLDER~1\AppData\Local\Temp\ccYCTqm0.s:31885  .debug_str:0000000000024439 .LASF2616
C:\Users\SOLDER~1\AppData\Local\Temp\ccYCTqm0.s:32731  .debug_str:0000000000027c17 .LASF2617
C:\Users\SOLDER~1\AppData\Local\Temp\ccYCTqm0.s:24467  .debug_str:000000000000666f .LASF2618
C:\Users\SOLDER~1\AppData\Local\Temp\ccYCTqm0.s:30823  .debug_str:000000000002005b .LASF2619
C:\Users\SOLDER~1\AppData\Local\Temp\ccYCTqm0.s:30881  .debug_str:00000000000203eb .LASF2620
C:\Users\SOLDER~1\AppData\Local\Temp\ccYCTqm0.s:28983  .debug_str:0000000000018a83 .LASF2621
C:\Users\SOLDER~1\AppData\Local\Temp\ccYCTqm0.s:30833  .debug_str:00000000000200ff .LASF2622
C:\Users\SOLDER~1\AppData\Local\Temp\ccYCTqm0.s:26135  .debug_str:000000000000d2b6 .LASF2623
C:\Users\SOLDER~1\AppData\Local\Temp\ccYCTqm0.s:31527  .debug_str:0000000000022d1c .LASF2624
C:\Users\SOLDER~1\AppData\Local\Temp\ccYCTqm0.s:25063  .debug_str:0000000000008d0a .LASF2625
C:\Users\SOLDER~1\AppData\Local\Temp\ccYCTqm0.s:27037  .debug_str:0000000000010c96 .LASF2626
C:\Users\SOLDER~1\AppData\Local\Temp\ccYCTqm0.s:23135  .debug_str:0000000000001104 .LASF2627
C:\Users\SOLDER~1\AppData\Local\Temp\ccYCTqm0.s:23555  .debug_str:0000000000002c1c .LASF2628
C:\Users\SOLDER~1\AppData\Local\Temp\ccYCTqm0.s:32889  .debug_str:000000000002867a .LASF2629
C:\Users\SOLDER~1\AppData\Local\Temp\ccYCTqm0.s:33387  .debug_str:000000000002a6ac .LASF2630
C:\Users\SOLDER~1\AppData\Local\Temp\ccYCTqm0.s:31059  .debug_str:0000000000020f71 .LASF2631
C:\Users\SOLDER~1\AppData\Local\Temp\ccYCTqm0.s:24421  .debug_str:0000000000006356 .LASF2632
C:\Users\SOLDER~1\AppData\Local\Temp\ccYCTqm0.s:34569  .debug_str:000000000002f27a .LASF2633
C:\Users\SOLDER~1\AppData\Local\Temp\ccYCTqm0.s:27185  .debug_str:00000000000115c8 .LASF2634
C:\Users\SOLDER~1\AppData\Local\Temp\ccYCTqm0.s:26579  .debug_str:000000000000ef5f .LASF2635
C:\Users\SOLDER~1\AppData\Local\Temp\ccYCTqm0.s:31673  .debug_str:00000000000236a9 .LASF2636
C:\Users\SOLDER~1\AppData\Local\Temp\ccYCTqm0.s:32821  .debug_str:0000000000028212 .LASF2637
C:\Users\SOLDER~1\AppData\Local\Temp\ccYCTqm0.s:30759  .debug_str:000000000001fc52 .LASF2638
C:\Users\SOLDER~1\AppData\Local\Temp\ccYCTqm0.s:23237  .debug_str:0000000000001778 .LASF2639
C:\Users\SOLDER~1\AppData\Local\Temp\ccYCTqm0.s:28737  .debug_str:0000000000017a92 .LASF2640
C:\Users\SOLDER~1\AppData\Local\Temp\ccYCTqm0.s:33285  .debug_str:0000000000029f8f .LASF2641
C:\Users\SOLDER~1\AppData\Local\Temp\ccYCTqm0.s:24703  .debug_str:0000000000007617 .LASF2642
C:\Users\SOLDER~1\AppData\Local\Temp\ccYCTqm0.s:31493  .debug_str:0000000000022acf .LASF2643
C:\Users\SOLDER~1\AppData\Local\Temp\ccYCTqm0.s:26215  .debug_str:000000000000d7ea .LASF2644
C:\Users\SOLDER~1\AppData\Local\Temp\ccYCTqm0.s:29879  .debug_str:000000000001c344 .LASF2645
C:\Users\SOLDER~1\AppData\Local\Temp\ccYCTqm0.s:28195  .debug_str:0000000000015829 .LASF2646
C:\Users\SOLDER~1\AppData\Local\Temp\ccYCTqm0.s:28231  .debug_str:0000000000015a6c .LASF2647
C:\Users\SOLDER~1\AppData\Local\Temp\ccYCTqm0.s:31097  .debug_str:00000000000211b0 .LASF2648
C:\Users\SOLDER~1\AppData\Local\Temp\ccYCTqm0.s:26461  .debug_str:000000000000e851 .LASF2649
C:\Users\SOLDER~1\AppData\Local\Temp\ccYCTqm0.s:32763  .debug_str:0000000000027e05 .LASF2650
C:\Users\SOLDER~1\AppData\Local\Temp\ccYCTqm0.s:24813  .debug_str:0000000000007cbb .LASF2651
C:\Users\SOLDER~1\AppData\Local\Temp\ccYCTqm0.s:29941  .debug_str:000000000001c759 .LASF2652
GAS LISTING C:\Users\SOLDER~1\AppData\Local\Temp\ccYCTqm0.s 			page 151


C:\Users\SOLDER~1\AppData\Local\Temp\ccYCTqm0.s:25427  .debug_str:000000000000a50d .LASF2653
C:\Users\SOLDER~1\AppData\Local\Temp\ccYCTqm0.s:23521  .debug_str:00000000000029fa .LASF2654
C:\Users\SOLDER~1\AppData\Local\Temp\ccYCTqm0.s:23501  .debug_str:0000000000002889 .LASF2655
C:\Users\SOLDER~1\AppData\Local\Temp\ccYCTqm0.s:29663  .debug_str:000000000001b5c8 .LASF2656
C:\Users\SOLDER~1\AppData\Local\Temp\ccYCTqm0.s:31595  .debug_str:00000000000231aa .LASF2657
C:\Users\SOLDER~1\AppData\Local\Temp\ccYCTqm0.s:24255  .debug_str:0000000000005804 .LASF2658
C:\Users\SOLDER~1\AppData\Local\Temp\ccYCTqm0.s:31337  .debug_str:0000000000022111 .LASF2659
C:\Users\SOLDER~1\AppData\Local\Temp\ccYCTqm0.s:30463  .debug_str:000000000001e866 .LASF2660
C:\Users\SOLDER~1\AppData\Local\Temp\ccYCTqm0.s:29469  .debug_str:000000000001a96f .LASF2661
C:\Users\SOLDER~1\AppData\Local\Temp\ccYCTqm0.s:30429  .debug_str:000000000001e65e .LASF2662
C:\Users\SOLDER~1\AppData\Local\Temp\ccYCTqm0.s:27519  .debug_str:0000000000012af5 .LASF2663
C:\Users\SOLDER~1\AppData\Local\Temp\ccYCTqm0.s:31131  .debug_str:00000000000213df .LASF2664
C:\Users\SOLDER~1\AppData\Local\Temp\ccYCTqm0.s:25593  .debug_str:000000000000afb7 .LASF2665
C:\Users\SOLDER~1\AppData\Local\Temp\ccYCTqm0.s:26605  .debug_str:000000000000f109 .LASF2666
C:\Users\SOLDER~1\AppData\Local\Temp\ccYCTqm0.s:23667  .debug_str:0000000000003360 .LASF2667
C:\Users\SOLDER~1\AppData\Local\Temp\ccYCTqm0.s:23157  .debug_str:000000000000126f .LASF2668
C:\Users\SOLDER~1\AppData\Local\Temp\ccYCTqm0.s:23987  .debug_str:0000000000004772 .LASF2669
C:\Users\SOLDER~1\AppData\Local\Temp\ccYCTqm0.s:32017  .debug_str:0000000000024d0c .LASF2670
C:\Users\SOLDER~1\AppData\Local\Temp\ccYCTqm0.s:31483  .debug_str:0000000000022a39 .LASF2671
C:\Users\SOLDER~1\AppData\Local\Temp\ccYCTqm0.s:24087  .debug_str:0000000000004de7 .LASF2672
C:\Users\SOLDER~1\AppData\Local\Temp\ccYCTqm0.s:32177  .debug_str:0000000000025744 .LASF2673
C:\Users\SOLDER~1\AppData\Local\Temp\ccYCTqm0.s:31213  .debug_str:0000000000021940 .LASF2674
C:\Users\SOLDER~1\AppData\Local\Temp\ccYCTqm0.s:27545  .debug_str:0000000000012c80 .LASF2675
C:\Users\SOLDER~1\AppData\Local\Temp\ccYCTqm0.s:29309  .debug_str:0000000000019f3e .LASF2676
C:\Users\SOLDER~1\AppData\Local\Temp\ccYCTqm0.s:28931  .debug_str:0000000000018755 .LASF2677
C:\Users\SOLDER~1\AppData\Local\Temp\ccYCTqm0.s:28347  .debug_str:0000000000016193 .LASF2678
C:\Users\SOLDER~1\AppData\Local\Temp\ccYCTqm0.s:27249  .debug_str:0000000000011a35 .LASF2679
C:\Users\SOLDER~1\AppData\Local\Temp\ccYCTqm0.s:24431  .debug_str:0000000000006401 .LASF2680
C:\Users\SOLDER~1\AppData\Local\Temp\ccYCTqm0.s:25469  .debug_str:000000000000a79f .LASF2681
C:\Users\SOLDER~1\AppData\Local\Temp\ccYCTqm0.s:34065  .debug_str:000000000002d1f5 .LASF2682
C:\Users\SOLDER~1\AppData\Local\Temp\ccYCTqm0.s:23821  .debug_str:0000000000003d2c .LASF2683
C:\Users\SOLDER~1\AppData\Local\Temp\ccYCTqm0.s:23857  .debug_str:0000000000003f4d .LASF2684
C:\Users\SOLDER~1\AppData\Local\Temp\ccYCTqm0.s:30499  .debug_str:000000000001eaf6 .LASF2685
C:\Users\SOLDER~1\AppData\Local\Temp\ccYCTqm0.s:30775  .debug_str:000000000001fd3d .LASF2686
C:\Users\SOLDER~1\AppData\Local\Temp\ccYCTqm0.s:32069  .debug_str:0000000000025063 .LASF2687
C:\Users\SOLDER~1\AppData\Local\Temp\ccYCTqm0.s:28813  .debug_str:0000000000017f65 .LASF2688
C:\Users\SOLDER~1\AppData\Local\Temp\ccYCTqm0.s:30453  .debug_str:000000000001e7dd .LASF2689
C:\Users\SOLDER~1\AppData\Local\Temp\ccYCTqm0.s:30357  .debug_str:000000000001e1bd .LASF2690
C:\Users\SOLDER~1\AppData\Local\Temp\ccYCTqm0.s:28839  .debug_str:000000000001811e .LASF2691
C:\Users\SOLDER~1\AppData\Local\Temp\ccYCTqm0.s:31583  .debug_str:00000000000230ea .LASF2692
C:\Users\SOLDER~1\AppData\Local\Temp\ccYCTqm0.s:24225  .debug_str:0000000000005646 .LASF2693
C:\Users\SOLDER~1\AppData\Local\Temp\ccYCTqm0.s:23411  .debug_str:00000000000022d2 .LASF2694
C:\Users\SOLDER~1\AppData\Local\Temp\ccYCTqm0.s:26015  .debug_str:000000000000caca .LASF2695
C:\Users\SOLDER~1\AppData\Local\Temp\ccYCTqm0.s:27733  .debug_str:000000000001390f .LASF2696
C:\Users\SOLDER~1\AppData\Local\Temp\ccYCTqm0.s:27647  .debug_str:0000000000013368 .LASF2697
C:\Users\SOLDER~1\AppData\Local\Temp\ccYCTqm0.s:24023  .debug_str:00000000000049db .LASF2698
C:\Users\SOLDER~1\AppData\Local\Temp\ccYCTqm0.s:30179  .debug_str:000000000001d6ad .LASF2699
C:\Users\SOLDER~1\AppData\Local\Temp\ccYCTqm0.s:30451  .debug_str:000000000001e7b7 .LASF2700
C:\Users\SOLDER~1\AppData\Local\Temp\ccYCTqm0.s:34589  .debug_str:000000000002f3be .LASF2701
C:\Users\SOLDER~1\AppData\Local\Temp\ccYCTqm0.s:30413  .debug_str:000000000001e562 .LASF2702
C:\Users\SOLDER~1\AppData\Local\Temp\ccYCTqm0.s:26331  .debug_str:000000000000df34 .LASF2703
C:\Users\SOLDER~1\AppData\Local\Temp\ccYCTqm0.s:31025  .debug_str:0000000000020d0d .LASF2704
C:\Users\SOLDER~1\AppData\Local\Temp\ccYCTqm0.s:24393  .debug_str:000000000000615a .LASF2705
C:\Users\SOLDER~1\AppData\Local\Temp\ccYCTqm0.s:26485  .debug_str:000000000000e9a2 .LASF2706
C:\Users\SOLDER~1\AppData\Local\Temp\ccYCTqm0.s:34181  .debug_str:000000000002d9b3 .LASF2707
C:\Users\SOLDER~1\AppData\Local\Temp\ccYCTqm0.s:27997  .debug_str:0000000000014afb .LASF2708
C:\Users\SOLDER~1\AppData\Local\Temp\ccYCTqm0.s:32309  .debug_str:0000000000026010 .LASF2709
GAS LISTING C:\Users\SOLDER~1\AppData\Local\Temp\ccYCTqm0.s 			page 152


C:\Users\SOLDER~1\AppData\Local\Temp\ccYCTqm0.s:32959  .debug_str:0000000000028add .LASF2710
C:\Users\SOLDER~1\AppData\Local\Temp\ccYCTqm0.s:30425  .debug_str:000000000001e61b .LASF2711
C:\Users\SOLDER~1\AppData\Local\Temp\ccYCTqm0.s:23975  .debug_str:000000000000469f .LASF2712
C:\Users\SOLDER~1\AppData\Local\Temp\ccYCTqm0.s:28799  .debug_str:0000000000017e94 .LASF2713
C:\Users\SOLDER~1\AppData\Local\Temp\ccYCTqm0.s:31153  .debug_str:0000000000021585 .LASF2714
C:\Users\SOLDER~1\AppData\Local\Temp\ccYCTqm0.s:25129  .debug_str:000000000000916b .LASF2715
C:\Users\SOLDER~1\AppData\Local\Temp\ccYCTqm0.s:23893  .debug_str:0000000000004197 .LASF2716
C:\Users\SOLDER~1\AppData\Local\Temp\ccYCTqm0.s:25339  .debug_str:0000000000009f18 .LASF2717
C:\Users\SOLDER~1\AppData\Local\Temp\ccYCTqm0.s:23059  .debug_str:0000000000000c65 .LASF2718
C:\Users\SOLDER~1\AppData\Local\Temp\ccYCTqm0.s:23163  .debug_str:00000000000012d6 .LASF2719
C:\Users\SOLDER~1\AppData\Local\Temp\ccYCTqm0.s:30885  .debug_str:0000000000020425 .LASF2720
C:\Users\SOLDER~1\AppData\Local\Temp\ccYCTqm0.s:28909  .debug_str:00000000000185f1 .LASF2721
C:\Users\SOLDER~1\AppData\Local\Temp\ccYCTqm0.s:31681  .debug_str:0000000000023742 .LASF2722
C:\Users\SOLDER~1\AppData\Local\Temp\ccYCTqm0.s:31925  .debug_str:00000000000246d3 .LASF2723
C:\Users\SOLDER~1\AppData\Local\Temp\ccYCTqm0.s:30227  .debug_str:000000000001d9c6 .LASF2724
C:\Users\SOLDER~1\AppData\Local\Temp\ccYCTqm0.s:30307  .debug_str:000000000001de81 .LASF2725
C:\Users\SOLDER~1\AppData\Local\Temp\ccYCTqm0.s:25503  .debug_str:000000000000aa25 .LASF2726
C:\Users\SOLDER~1\AppData\Local\Temp\ccYCTqm0.s:28693  .debug_str:0000000000017774 .LASF2727
C:\Users\SOLDER~1\AppData\Local\Temp\ccYCTqm0.s:23397  .debug_str:00000000000021d7 .LASF2728
C:\Users\SOLDER~1\AppData\Local\Temp\ccYCTqm0.s:26935  .debug_str:000000000001066d .LASF2729
C:\Users\SOLDER~1\AppData\Local\Temp\ccYCTqm0.s:25101  .debug_str:0000000000008f5b .LASF2730
C:\Users\SOLDER~1\AppData\Local\Temp\ccYCTqm0.s:25243  .debug_str:000000000000991a .LASF2731
C:\Users\SOLDER~1\AppData\Local\Temp\ccYCTqm0.s:33951  .debug_str:000000000002cad9 .LASF2732
C:\Users\SOLDER~1\AppData\Local\Temp\ccYCTqm0.s:34087  .debug_str:000000000002d37f .LASF2733
C:\Users\SOLDER~1\AppData\Local\Temp\ccYCTqm0.s:32285  .debug_str:0000000000025e6a .LASF2734
C:\Users\SOLDER~1\AppData\Local\Temp\ccYCTqm0.s:32123  .debug_str:00000000000253df .LASF2735
C:\Users\SOLDER~1\AppData\Local\Temp\ccYCTqm0.s:26753  .debug_str:000000000000fa88 .LASF2736
C:\Users\SOLDER~1\AppData\Local\Temp\ccYCTqm0.s:30237  .debug_str:000000000001da64 .LASF2737
C:\Users\SOLDER~1\AppData\Local\Temp\ccYCTqm0.s:32923  .debug_str:00000000000288a9 .LASF2738
C:\Users\SOLDER~1\AppData\Local\Temp\ccYCTqm0.s:28333  .debug_str:00000000000160c3 .LASF2739
C:\Users\SOLDER~1\AppData\Local\Temp\ccYCTqm0.s:27643  .debug_str:0000000000013316 .LASF2740
C:\Users\SOLDER~1\AppData\Local\Temp\ccYCTqm0.s:24999  .debug_str:00000000000088e5 .LASF2741
C:\Users\SOLDER~1\AppData\Local\Temp\ccYCTqm0.s:23817  .debug_str:0000000000003cd9 .LASF2742
C:\Users\SOLDER~1\AppData\Local\Temp\ccYCTqm0.s:29185  .debug_str:0000000000019744 .LASF2743
C:\Users\SOLDER~1\AppData\Local\Temp\ccYCTqm0.s:28251  .debug_str:0000000000015b74 .LASF2744
C:\Users\SOLDER~1\AppData\Local\Temp\ccYCTqm0.s:34245  .debug_str:000000000002dddd .LASF2745
C:\Users\SOLDER~1\AppData\Local\Temp\ccYCTqm0.s:23665  .debug_str:0000000000003335 .LASF2746
C:\Users\SOLDER~1\AppData\Local\Temp\ccYCTqm0.s:32279  .debug_str:0000000000025e0d .LASF2747
C:\Users\SOLDER~1\AppData\Local\Temp\ccYCTqm0.s:31899  .debug_str:000000000002452a .LASF2748
C:\Users\SOLDER~1\AppData\Local\Temp\ccYCTqm0.s:30399  .debug_str:000000000001e472 .LASF2749
C:\Users\SOLDER~1\AppData\Local\Temp\ccYCTqm0.s:30169  .debug_str:000000000001d60d .LASF2750
C:\Users\SOLDER~1\AppData\Local\Temp\ccYCTqm0.s:28593  .debug_str:00000000000170ce .LASF2751
C:\Users\SOLDER~1\AppData\Local\Temp\ccYCTqm0.s:32863  .debug_str:00000000000284c0 .LASF2752
C:\Users\SOLDER~1\AppData\Local\Temp\ccYCTqm0.s:24015  .debug_str:0000000000004959 .LASF2753
C:\Users\SOLDER~1\AppData\Local\Temp\ccYCTqm0.s:29849  .debug_str:000000000001c13b .LASF2754
C:\Users\SOLDER~1\AppData\Local\Temp\ccYCTqm0.s:34077  .debug_str:000000000002d2c8 .LASF2755
C:\Users\SOLDER~1\AppData\Local\Temp\ccYCTqm0.s:31149  .debug_str:0000000000021537 .LASF2756
C:\Users\SOLDER~1\AppData\Local\Temp\ccYCTqm0.s:32387  .debug_str:0000000000026569 .LASF2757
C:\Users\SOLDER~1\AppData\Local\Temp\ccYCTqm0.s:29971  .debug_str:000000000001c901 .LASF2758
C:\Users\SOLDER~1\AppData\Local\Temp\ccYCTqm0.s:30679  .debug_str:000000000001f6d6 .LASF2759
C:\Users\SOLDER~1\AppData\Local\Temp\ccYCTqm0.s:29571  .debug_str:000000000001aff6 .LASF2760
C:\Users\SOLDER~1\AppData\Local\Temp\ccYCTqm0.s:29043  .debug_str:0000000000018e5c .LASF2761
C:\Users\SOLDER~1\AppData\Local\Temp\ccYCTqm0.s:27475  .debug_str:000000000001281b .LASF2762
C:\Users\SOLDER~1\AppData\Local\Temp\ccYCTqm0.s:27357  .debug_str:00000000000120f9 .LASF2763
C:\Users\SOLDER~1\AppData\Local\Temp\ccYCTqm0.s:29029  .debug_str:0000000000018d44 .LASF2764
C:\Users\SOLDER~1\AppData\Local\Temp\ccYCTqm0.s:25589  .debug_str:000000000000af78 .LASF2765
C:\Users\SOLDER~1\AppData\Local\Temp\ccYCTqm0.s:24169  .debug_str:00000000000052ba .LASF2766
GAS LISTING C:\Users\SOLDER~1\AppData\Local\Temp\ccYCTqm0.s 			page 153


C:\Users\SOLDER~1\AppData\Local\Temp\ccYCTqm0.s:26359  .debug_str:000000000000e129 .LASF2767
C:\Users\SOLDER~1\AppData\Local\Temp\ccYCTqm0.s:33885  .debug_str:000000000002c6ed .LASF2768
C:\Users\SOLDER~1\AppData\Local\Temp\ccYCTqm0.s:33975  .debug_str:000000000002cc50 .LASF2769
C:\Users\SOLDER~1\AppData\Local\Temp\ccYCTqm0.s:23761  .debug_str:000000000000391f .LASF2770
C:\Users\SOLDER~1\AppData\Local\Temp\ccYCTqm0.s:24341  .debug_str:0000000000005e1e .LASF2771
C:\Users\SOLDER~1\AppData\Local\Temp\ccYCTqm0.s:34067  .debug_str:000000000002d21c .LASF2772
C:\Users\SOLDER~1\AppData\Local\Temp\ccYCTqm0.s:30973  .debug_str:00000000000209e1 .LASF2773
C:\Users\SOLDER~1\AppData\Local\Temp\ccYCTqm0.s:28041  .debug_str:0000000000014e24 .LASF2774
C:\Users\SOLDER~1\AppData\Local\Temp\ccYCTqm0.s:24165  .debug_str:0000000000005285 .LASF2775
C:\Users\SOLDER~1\AppData\Local\Temp\ccYCTqm0.s:34047  .debug_str:000000000002d0d1 .LASF2776
C:\Users\SOLDER~1\AppData\Local\Temp\ccYCTqm0.s:33493  .debug_str:000000000002ad23 .LASF2777
C:\Users\SOLDER~1\AppData\Local\Temp\ccYCTqm0.s:28581  .debug_str:0000000000017004 .LASF2778
C:\Users\SOLDER~1\AppData\Local\Temp\ccYCTqm0.s:25305  .debug_str:0000000000009d19 .LASF2779
C:\Users\SOLDER~1\AppData\Local\Temp\ccYCTqm0.s:25743  .debug_str:000000000000b951 .LASF2780
C:\Users\SOLDER~1\AppData\Local\Temp\ccYCTqm0.s:23361  .debug_str:0000000000001f8d .LASF2781
C:\Users\SOLDER~1\AppData\Local\Temp\ccYCTqm0.s:23201  .debug_str:0000000000001530 .LASF2782
C:\Users\SOLDER~1\AppData\Local\Temp\ccYCTqm0.s:33155  .debug_str:0000000000029758 .LASF2783
C:\Users\SOLDER~1\AppData\Local\Temp\ccYCTqm0.s:23909  .debug_str:00000000000042a8 .LASF2784
C:\Users\SOLDER~1\AppData\Local\Temp\ccYCTqm0.s:23937  .debug_str:0000000000004467 .LASF2785
C:\Users\SOLDER~1\AppData\Local\Temp\ccYCTqm0.s:31057  .debug_str:0000000000020f4a .LASF2786
C:\Users\SOLDER~1\AppData\Local\Temp\ccYCTqm0.s:29341  .debug_str:000000000001a161 .LASF2787
C:\Users\SOLDER~1\AppData\Local\Temp\ccYCTqm0.s:27645  .debug_str:0000000000013341 .LASF2788
C:\Users\SOLDER~1\AppData\Local\Temp\ccYCTqm0.s:27393  .debug_str:0000000000012337 .LASF2789
C:\Users\SOLDER~1\AppData\Local\Temp\ccYCTqm0.s:25769  .debug_str:000000000000bab3 .LASF2790
C:\Users\SOLDER~1\AppData\Local\Temp\ccYCTqm0.s:28547  .debug_str:0000000000016e18 .LASF2791
C:\Users\SOLDER~1\AppData\Local\Temp\ccYCTqm0.s:28533  .debug_str:0000000000016d2a .LASF2792
C:\Users\SOLDER~1\AppData\Local\Temp\ccYCTqm0.s:24873  .debug_str:00000000000080b0 .LASF2793
C:\Users\SOLDER~1\AppData\Local\Temp\ccYCTqm0.s:31155  .debug_str:00000000000215ac .LASF2794
C:\Users\SOLDER~1\AppData\Local\Temp\ccYCTqm0.s:30433  .debug_str:000000000001e6a7 .LASF2795
C:\Users\SOLDER~1\AppData\Local\Temp\ccYCTqm0.s:27791  .debug_str:0000000000013d11 .LASF2796
C:\Users\SOLDER~1\AppData\Local\Temp\ccYCTqm0.s:24161  .debug_str:0000000000005245 .LASF2797
C:\Users\SOLDER~1\AppData\Local\Temp\ccYCTqm0.s:22977  .debug_str:000000000000060d .LASF2798
C:\Users\SOLDER~1\AppData\Local\Temp\ccYCTqm0.s:31457  .debug_str:0000000000022874 .LASF2799
C:\Users\SOLDER~1\AppData\Local\Temp\ccYCTqm0.s:30801  .debug_str:000000000001fef6 .LASF2800
C:\Users\SOLDER~1\AppData\Local\Temp\ccYCTqm0.s:29843  .debug_str:000000000001c0dc .LASF2801
C:\Users\SOLDER~1\AppData\Local\Temp\ccYCTqm0.s:28765  .debug_str:0000000000017c37 .LASF2802
C:\Users\SOLDER~1\AppData\Local\Temp\ccYCTqm0.s:28187  .debug_str:000000000001579f .LASF2803
C:\Users\SOLDER~1\AppData\Local\Temp\ccYCTqm0.s:30233  .debug_str:000000000001da21 .LASF2804
C:\Users\SOLDER~1\AppData\Local\Temp\ccYCTqm0.s:26519  .debug_str:000000000000ebc4 .LASF2805
C:\Users\SOLDER~1\AppData\Local\Temp\ccYCTqm0.s:25413  .debug_str:000000000000a405 .LASF2806
C:\Users\SOLDER~1\AppData\Local\Temp\ccYCTqm0.s:24769  .debug_str:0000000000007a22 .LASF2807
C:\Users\SOLDER~1\AppData\Local\Temp\ccYCTqm0.s:23403  .debug_str:000000000000224b .LASF2808
C:\Users\SOLDER~1\AppData\Local\Temp\ccYCTqm0.s:23105  .debug_str:0000000000000f38 .LASF2809
C:\Users\SOLDER~1\AppData\Local\Temp\ccYCTqm0.s:25015  .debug_str:00000000000089fb .LASF2810
C:\Users\SOLDER~1\AppData\Local\Temp\ccYCTqm0.s:33137  .debug_str:0000000000029628 .LASF2811
C:\Users\SOLDER~1\AppData\Local\Temp\ccYCTqm0.s:33955  .debug_str:000000000002cb25 .LASF2812
C:\Users\SOLDER~1\AppData\Local\Temp\ccYCTqm0.s:23367  .debug_str:0000000000001ff3 .LASF2813
C:\Users\SOLDER~1\AppData\Local\Temp\ccYCTqm0.s:30087  .debug_str:000000000001d0de .LASF2814
C:\Users\SOLDER~1\AppData\Local\Temp\ccYCTqm0.s:25659  .debug_str:000000000000b3f6 .LASF2815
C:\Users\SOLDER~1\AppData\Local\Temp\ccYCTqm0.s:23299  .debug_str:0000000000001b5b .LASF2816
C:\Users\SOLDER~1\AppData\Local\Temp\ccYCTqm0.s:30661  .debug_str:000000000001f59a .LASF2817
C:\Users\SOLDER~1\AppData\Local\Temp\ccYCTqm0.s:30603  .debug_str:000000000001f1ae .LASF2818
C:\Users\SOLDER~1\AppData\Local\Temp\ccYCTqm0.s:30925  .debug_str:00000000000206a4 .LASF2819
C:\Users\SOLDER~1\AppData\Local\Temp\ccYCTqm0.s:24677  .debug_str:000000000000745f .LASF2820
C:\Users\SOLDER~1\AppData\Local\Temp\ccYCTqm0.s:31315  .debug_str:0000000000021f95 .LASF2821
C:\Users\SOLDER~1\AppData\Local\Temp\ccYCTqm0.s:24885  .debug_str:000000000000816e .LASF2822
C:\Users\SOLDER~1\AppData\Local\Temp\ccYCTqm0.s:23749  .debug_str:000000000000386e .LASF2823
GAS LISTING C:\Users\SOLDER~1\AppData\Local\Temp\ccYCTqm0.s 			page 154


C:\Users\SOLDER~1\AppData\Local\Temp\ccYCTqm0.s:29125  .debug_str:00000000000193b1 .LASF2824
C:\Users\SOLDER~1\AppData\Local\Temp\ccYCTqm0.s:31935  .debug_str:0000000000024781 .LASF2825
C:\Users\SOLDER~1\AppData\Local\Temp\ccYCTqm0.s:27319  .debug_str:0000000000011e7e .LASF2826
C:\Users\SOLDER~1\AppData\Local\Temp\ccYCTqm0.s:24041  .debug_str:0000000000004b03 .LASF2827
C:\Users\SOLDER~1\AppData\Local\Temp\ccYCTqm0.s:31497  .debug_str:0000000000022b05 .LASF2828
C:\Users\SOLDER~1\AppData\Local\Temp\ccYCTqm0.s:28243  .debug_str:0000000000015afe .LASF2829
C:\Users\SOLDER~1\AppData\Local\Temp\ccYCTqm0.s:33055  .debug_str:0000000000029110 .LASF2830
C:\Users\SOLDER~1\AppData\Local\Temp\ccYCTqm0.s:30445  .debug_str:000000000001e754 .LASF2831
C:\Users\SOLDER~1\AppData\Local\Temp\ccYCTqm0.s:34609  .debug_str:000000000002f4e6 .LASF2832
C:\Users\SOLDER~1\AppData\Local\Temp\ccYCTqm0.s:29317  .debug_str:0000000000019fd3 .LASF2833
C:\Users\SOLDER~1\AppData\Local\Temp\ccYCTqm0.s:27241  .debug_str:00000000000119a4 .LASF2834
C:\Users\SOLDER~1\AppData\Local\Temp\ccYCTqm0.s:28525  .debug_str:0000000000016c9d .LASF2835
C:\Users\SOLDER~1\AppData\Local\Temp\ccYCTqm0.s:24415  .debug_str:00000000000062db .LASF2836
C:\Users\SOLDER~1\AppData\Local\Temp\ccYCTqm0.s:30013  .debug_str:000000000001cbe3 .LASF2837
C:\Users\SOLDER~1\AppData\Local\Temp\ccYCTqm0.s:27181  .debug_str:0000000000011582 .LASF2838
C:\Users\SOLDER~1\AppData\Local\Temp\ccYCTqm0.s:23999  .debug_str:0000000000004847 .LASF2839
C:\Users\SOLDER~1\AppData\Local\Temp\ccYCTqm0.s:33271  .debug_str:0000000000029eae .LASF2840
C:\Users\SOLDER~1\AppData\Local\Temp\ccYCTqm0.s:30629  .debug_str:000000000001f356 .LASF2841
C:\Users\SOLDER~1\AppData\Local\Temp\ccYCTqm0.s:30045  .debug_str:000000000001ce03 .LASF2842
C:\Users\SOLDER~1\AppData\Local\Temp\ccYCTqm0.s:30841  .debug_str:000000000002017e .LASF2843
C:\Users\SOLDER~1\AppData\Local\Temp\ccYCTqm0.s:32647  .debug_str:000000000002767a .LASF2844
C:\Users\SOLDER~1\AppData\Local\Temp\ccYCTqm0.s:32979  .debug_str:0000000000028c64 .LASF2845
C:\Users\SOLDER~1\AppData\Local\Temp\ccYCTqm0.s:26405  .debug_str:000000000000e43d .LASF2846
C:\Users\SOLDER~1\AppData\Local\Temp\ccYCTqm0.s:29915  .debug_str:000000000001c5b7 .LASF2847
C:\Users\SOLDER~1\AppData\Local\Temp\ccYCTqm0.s:34571  .debug_str:000000000002f294 .LASF2848
C:\Users\SOLDER~1\AppData\Local\Temp\ccYCTqm0.s:29973  .debug_str:000000000001c92d .LASF2849
C:\Users\SOLDER~1\AppData\Local\Temp\ccYCTqm0.s:27385  .debug_str:00000000000122a3 .LASF2850
C:\Users\SOLDER~1\AppData\Local\Temp\ccYCTqm0.s:34125  .debug_str:000000000002d644 .LASF2851
C:\Users\SOLDER~1\AppData\Local\Temp\ccYCTqm0.s:26221  .debug_str:000000000000d852 .LASF2852
C:\Users\SOLDER~1\AppData\Local\Temp\ccYCTqm0.s:25823  .debug_str:000000000000bdff .LASF2853
C:\Users\SOLDER~1\AppData\Local\Temp\ccYCTqm0.s:33411  .debug_str:000000000002a83d .LASF2854
C:\Users\SOLDER~1\AppData\Local\Temp\ccYCTqm0.s:29601  .debug_str:000000000001b20d .LASF2855
C:\Users\SOLDER~1\AppData\Local\Temp\ccYCTqm0.s:33799  .debug_str:000000000002c106 .LASF2856
C:\Users\SOLDER~1\AppData\Local\Temp\ccYCTqm0.s:26043  .debug_str:000000000000cc8b .LASF2857
C:\Users\SOLDER~1\AppData\Local\Temp\ccYCTqm0.s:30539  .debug_str:000000000001edbf .LASF2858
C:\Users\SOLDER~1\AppData\Local\Temp\ccYCTqm0.s:24243  .debug_str:0000000000005743 .LASF2859
C:\Users\SOLDER~1\AppData\Local\Temp\ccYCTqm0.s:23775  .debug_str:0000000000003a11 .LASF2860
C:\Users\SOLDER~1\AppData\Local\Temp\ccYCTqm0.s:32629  .debug_str:000000000002754f .LASF2861
C:\Users\SOLDER~1\AppData\Local\Temp\ccYCTqm0.s:24867  .debug_str:0000000000008053 .LASF2862
C:\Users\SOLDER~1\AppData\Local\Temp\ccYCTqm0.s:31147  .debug_str:0000000000021510 .LASF2863
C:\Users\SOLDER~1\AppData\Local\Temp\ccYCTqm0.s:30663  .debug_str:000000000001f5ba .LASF2864
C:\Users\SOLDER~1\AppData\Local\Temp\ccYCTqm0.s:27423  .debug_str:0000000000012500 .LASF2865
C:\Users\SOLDER~1\AppData\Local\Temp\ccYCTqm0.s:25919  .debug_str:000000000000c42c .LASF2866
C:\Users\SOLDER~1\AppData\Local\Temp\ccYCTqm0.s:27125  .debug_str:000000000001120b .LASF2867
C:\Users\SOLDER~1\AppData\Local\Temp\ccYCTqm0.s:27701  .debug_str:00000000000136d4 .LASF2868
C:\Users\SOLDER~1\AppData\Local\Temp\ccYCTqm0.s:34477  .debug_str:000000000002ec76 .LASF2869
C:\Users\SOLDER~1\AppData\Local\Temp\ccYCTqm0.s:27715  .debug_str:00000000000137c2 .LASF2870
C:\Users\SOLDER~1\AppData\Local\Temp\ccYCTqm0.s:33937  .debug_str:000000000002c9fc .LASF2871
C:\Users\SOLDER~1\AppData\Local\Temp\ccYCTqm0.s:34055  .debug_str:000000000002d14f .LASF2872
C:\Users\SOLDER~1\AppData\Local\Temp\ccYCTqm0.s:29615  .debug_str:000000000001b2fb .LASF2873
C:\Users\SOLDER~1\AppData\Local\Temp\ccYCTqm0.s:33967  .debug_str:000000000002cbd7 .LASF2874
C:\Users\SOLDER~1\AppData\Local\Temp\ccYCTqm0.s:31125  .debug_str:0000000000021374 .LASF2875
C:\Users\SOLDER~1\AppData\Local\Temp\ccYCTqm0.s:26727  .debug_str:000000000000f8d7 .LASF2876
C:\Users\SOLDER~1\AppData\Local\Temp\ccYCTqm0.s:26831  .debug_str:000000000000ffce .LASF2877
C:\Users\SOLDER~1\AppData\Local\Temp\ccYCTqm0.s:26739  .debug_str:000000000000f9a0 .LASF2878
C:\Users\SOLDER~1\AppData\Local\Temp\ccYCTqm0.s:28759  .debug_str:0000000000017bf5 .LASF2879
C:\Users\SOLDER~1\AppData\Local\Temp\ccYCTqm0.s:34435  .debug_str:000000000002e9b5 .LASF2880
GAS LISTING C:\Users\SOLDER~1\AppData\Local\Temp\ccYCTqm0.s 			page 155


C:\Users\SOLDER~1\AppData\Local\Temp\ccYCTqm0.s:26237  .debug_str:000000000000d95b .LASF2881
C:\Users\SOLDER~1\AppData\Local\Temp\ccYCTqm0.s:34517  .debug_str:000000000002ef3d .LASF2882
C:\Users\SOLDER~1\AppData\Local\Temp\ccYCTqm0.s:33631  .debug_str:000000000002b670 .LASF2883
C:\Users\SOLDER~1\AppData\Local\Temp\ccYCTqm0.s:24691  .debug_str:0000000000007540 .LASF2884
C:\Users\SOLDER~1\AppData\Local\Temp\ccYCTqm0.s:31799  .debug_str:0000000000023ed1 .LASF2885
C:\Users\SOLDER~1\AppData\Local\Temp\ccYCTqm0.s:24359  .debug_str:0000000000005f20 .LASF2886
C:\Users\SOLDER~1\AppData\Local\Temp\ccYCTqm0.s:24989  .debug_str:0000000000008849 .LASF2887
C:\Users\SOLDER~1\AppData\Local\Temp\ccYCTqm0.s:25701  .debug_str:000000000000b67e .LASF2888
C:\Users\SOLDER~1\AppData\Local\Temp\ccYCTqm0.s:25755  .debug_str:000000000000ba01 .LASF2889
C:\Users\SOLDER~1\AppData\Local\Temp\ccYCTqm0.s:24679  .debug_str:000000000000747f .LASF2890
C:\Users\SOLDER~1\AppData\Local\Temp\ccYCTqm0.s:23695  .debug_str:0000000000003518 .LASF2891
C:\Users\SOLDER~1\AppData\Local\Temp\ccYCTqm0.s:26433  .debug_str:000000000000e665 .LASF2892
C:\Users\SOLDER~1\AppData\Local\Temp\ccYCTqm0.s:28491  .debug_str:0000000000016a8a .LASF2893
C:\Users\SOLDER~1\AppData\Local\Temp\ccYCTqm0.s:34273  .debug_str:000000000002df74 .LASF2894
C:\Users\SOLDER~1\AppData\Local\Temp\ccYCTqm0.s:25607  .debug_str:000000000000b0ac .LASF2895
C:\Users\SOLDER~1\AppData\Local\Temp\ccYCTqm0.s:33329  .debug_str:000000000002a2a3 .LASF2896
C:\Users\SOLDER~1\AppData\Local\Temp\ccYCTqm0.s:34351  .debug_str:000000000002e485 .LASF2897
C:\Users\SOLDER~1\AppData\Local\Temp\ccYCTqm0.s:34133  .debug_str:000000000002d6c3 .LASF2898
C:\Users\SOLDER~1\AppData\Local\Temp\ccYCTqm0.s:24191  .debug_str:0000000000005435 .LASF2899
C:\Users\SOLDER~1\AppData\Local\Temp\ccYCTqm0.s:25183  .debug_str:0000000000009532 .LASF2900
C:\Users\SOLDER~1\AppData\Local\Temp\ccYCTqm0.s:30235  .debug_str:000000000001da49 .LASF2901
C:\Users\SOLDER~1\AppData\Local\Temp\ccYCTqm0.s:26121  .debug_str:000000000000d1c6 .LASF2902
C:\Users\SOLDER~1\AppData\Local\Temp\ccYCTqm0.s:27985  .debug_str:0000000000014a50 .LASF2903
C:\Users\SOLDER~1\AppData\Local\Temp\ccYCTqm0.s:32965  .debug_str:0000000000028b6b .LASF2904
C:\Users\SOLDER~1\AppData\Local\Temp\ccYCTqm0.s:25375  .debug_str:000000000000a195 .LASF2905
C:\Users\SOLDER~1\AppData\Local\Temp\ccYCTqm0.s:33073  .debug_str:000000000002923e .LASF2906
C:\Users\SOLDER~1\AppData\Local\Temp\ccYCTqm0.s:29033  .debug_str:0000000000018d88 .LASF2907
C:\Users\SOLDER~1\AppData\Local\Temp\ccYCTqm0.s:26447  .debug_str:000000000000e760 .LASF2908
C:\Users\SOLDER~1\AppData\Local\Temp\ccYCTqm0.s:31235  .debug_str:0000000000021aa7 .LASF2909
C:\Users\SOLDER~1\AppData\Local\Temp\ccYCTqm0.s:31985  .debug_str:0000000000024ad7 .LASF2910
C:\Users\SOLDER~1\AppData\Local\Temp\ccYCTqm0.s:27271  .debug_str:0000000000011b71 .LASF2911
C:\Users\SOLDER~1\AppData\Local\Temp\ccYCTqm0.s:26339  .debug_str:000000000000dfbf .LASF2912
C:\Users\SOLDER~1\AppData\Local\Temp\ccYCTqm0.s:26689  .debug_str:000000000000f669 .LASF2913
C:\Users\SOLDER~1\AppData\Local\Temp\ccYCTqm0.s:23571  .debug_str:0000000000002ce9 .LASF2914
C:\Users\SOLDER~1\AppData\Local\Temp\ccYCTqm0.s:29023  .debug_str:0000000000018cf9 .LASF2915
C:\Users\SOLDER~1\AppData\Local\Temp\ccYCTqm0.s:22967  .debug_str:000000000000055f .LASF2916
C:\Users\SOLDER~1\AppData\Local\Temp\ccYCTqm0.s:31713  .debug_str:000000000002395f .LASF2917
C:\Users\SOLDER~1\AppData\Local\Temp\ccYCTqm0.s:26453  .debug_str:000000000000e7bf .LASF2918
C:\Users\SOLDER~1\AppData\Local\Temp\ccYCTqm0.s:30655  .debug_str:000000000001f536 .LASF2919
C:\Users\SOLDER~1\AppData\Local\Temp\ccYCTqm0.s:31951  .debug_str:0000000000024888 .LASF2920
C:\Users\SOLDER~1\AppData\Local\Temp\ccYCTqm0.s:30351  .debug_str:000000000001e14e .LASF2921
C:\Users\SOLDER~1\AppData\Local\Temp\ccYCTqm0.s:26947  .debug_str:0000000000010716 .LASF2922
C:\Users\SOLDER~1\AppData\Local\Temp\ccYCTqm0.s:32011  .debug_str:0000000000024cab .LASF2923
C:\Users\SOLDER~1\AppData\Local\Temp\ccYCTqm0.s:29097  .debug_str:00000000000191ec .LASF2924
C:\Users\SOLDER~1\AppData\Local\Temp\ccYCTqm0.s:28655  .debug_str:00000000000174d8 .LASF2925
C:\Users\SOLDER~1\AppData\Local\Temp\ccYCTqm0.s:27927  .debug_str:000000000001465c .LASF2926
C:\Users\SOLDER~1\AppData\Local\Temp\ccYCTqm0.s:26231  .debug_str:000000000000d8f9 .LASF2927
C:\Users\SOLDER~1\AppData\Local\Temp\ccYCTqm0.s:23251  .debug_str:000000000000186b .LASF2928
C:\Users\SOLDER~1\AppData\Local\Temp\ccYCTqm0.s:28881  .debug_str:0000000000018415 .LASF2929
C:\Users\SOLDER~1\AppData\Local\Temp\ccYCTqm0.s:30365  .debug_str:000000000001e24b .LASF2930
C:\Users\SOLDER~1\AppData\Local\Temp\ccYCTqm0.s:32065  .debug_str:0000000000025031 .LASF2931
C:\Users\SOLDER~1\AppData\Local\Temp\ccYCTqm0.s:32589  .debug_str:00000000000272a9 .LASF2932
C:\Users\SOLDER~1\AppData\Local\Temp\ccYCTqm0.s:32977  .debug_str:0000000000028c3b .LASF2933
C:\Users\SOLDER~1\AppData\Local\Temp\ccYCTqm0.s:32293  .debug_str:0000000000025eed .LASF2934
C:\Users\SOLDER~1\AppData\Local\Temp\ccYCTqm0.s:29021  .debug_str:0000000000018cdf .LASF2935
C:\Users\SOLDER~1\AppData\Local\Temp\ccYCTqm0.s:26101  .debug_str:000000000000d06d .LASF2936
C:\Users\SOLDER~1\AppData\Local\Temp\ccYCTqm0.s:22893  .debug_str:00000000000000cb .LASF2937
GAS LISTING C:\Users\SOLDER~1\AppData\Local\Temp\ccYCTqm0.s 			page 156


C:\Users\SOLDER~1\AppData\Local\Temp\ccYCTqm0.s:32379  .debug_str:00000000000264d6 .LASF2938
C:\Users\SOLDER~1\AppData\Local\Temp\ccYCTqm0.s:29821  .debug_str:000000000001bf80 .LASF2939
C:\Users\SOLDER~1\AppData\Local\Temp\ccYCTqm0.s:24073  .debug_str:0000000000004cf5 .LASF2940
C:\Users\SOLDER~1\AppData\Local\Temp\ccYCTqm0.s:31921  .debug_str:0000000000024690 .LASF2941
C:\Users\SOLDER~1\AppData\Local\Temp\ccYCTqm0.s:31889  .debug_str:0000000000024484 .LASF2942
C:\Users\SOLDER~1\AppData\Local\Temp\ccYCTqm0.s:31777  .debug_str:0000000000023d6c .LASF2943
C:\Users\SOLDER~1\AppData\Local\Temp\ccYCTqm0.s:26717  .debug_str:000000000000f820 .LASF2944
C:\Users\SOLDER~1\AppData\Local\Temp\ccYCTqm0.s:29735  .debug_str:000000000001ba0e .LASF2945
C:\Users\SOLDER~1\AppData\Local\Temp\ccYCTqm0.s:29389  .debug_str:000000000001a448 .LASF2946
C:\Users\SOLDER~1\AppData\Local\Temp\ccYCTqm0.s:28457  .debug_str:00000000000168d4 .LASF2947
C:\Users\SOLDER~1\AppData\Local\Temp\ccYCTqm0.s:28915  .debug_str:000000000001864e .LASF2948
C:\Users\SOLDER~1\AppData\Local\Temp\ccYCTqm0.s:29181  .debug_str:0000000000019704 .LASF2949
C:\Users\SOLDER~1\AppData\Local\Temp\ccYCTqm0.s:27581  .debug_str:0000000000012f11 .LASF2950
C:\Users\SOLDER~1\AppData\Local\Temp\ccYCTqm0.s:29289  .debug_str:0000000000019dec .LASF2951
C:\Users\SOLDER~1\AppData\Local\Temp\ccYCTqm0.s:23663  .debug_str:000000000000330b .LASF2952
C:\Users\SOLDER~1\AppData\Local\Temp\ccYCTqm0.s:23101  .debug_str:0000000000000ef9 .LASF2953
C:\Users\SOLDER~1\AppData\Local\Temp\ccYCTqm0.s:29083  .debug_str:00000000000190e7 .LASF2954
C:\Users\SOLDER~1\AppData\Local\Temp\ccYCTqm0.s:32359  .debug_str:000000000002638e .LASF2955
C:\Users\SOLDER~1\AppData\Local\Temp\ccYCTqm0.s:33105  .debug_str:00000000000293ef .LASF2956
C:\Users\SOLDER~1\AppData\Local\Temp\ccYCTqm0.s:34415  .debug_str:000000000002e863 .LASF2957
C:\Users\SOLDER~1\AppData\Local\Temp\ccYCTqm0.s:26677  .debug_str:000000000000f5a6 .LASF2958
C:\Users\SOLDER~1\AppData\Local\Temp\ccYCTqm0.s:34097  .debug_str:000000000002d42d .LASF2959
C:\Users\SOLDER~1\AppData\Local\Temp\ccYCTqm0.s:27215  .debug_str:00000000000117d6 .LASF2960
C:\Users\SOLDER~1\AppData\Local\Temp\ccYCTqm0.s:28609  .debug_str:00000000000171b5 .LASF2961
C:\Users\SOLDER~1\AppData\Local\Temp\ccYCTqm0.s:24545  .debug_str:0000000000006be6 .LASF2962
C:\Users\SOLDER~1\AppData\Local\Temp\ccYCTqm0.s:26343  .debug_str:000000000000e025 .LASF2963
C:\Users\SOLDER~1\AppData\Local\Temp\ccYCTqm0.s:32083  .debug_str:000000000002514c .LASF2964
C:\Users\SOLDER~1\AppData\Local\Temp\ccYCTqm0.s:34541  .debug_str:000000000002f0cf .LASF2965
C:\Users\SOLDER~1\AppData\Local\Temp\ccYCTqm0.s:29581  .debug_str:000000000001b09d .LASF2966
C:\Users\SOLDER~1\AppData\Local\Temp\ccYCTqm0.s:22909  .debug_str:00000000000001ae .LASF2967
C:\Users\SOLDER~1\AppData\Local\Temp\ccYCTqm0.s:32491  .debug_str:0000000000026c55 .LASF2968
C:\Users\SOLDER~1\AppData\Local\Temp\ccYCTqm0.s:31367  .debug_str:00000000000222ff .LASF2969
C:\Users\SOLDER~1\AppData\Local\Temp\ccYCTqm0.s:30669  .debug_str:000000000001f620 .LASF2970
C:\Users\SOLDER~1\AppData\Local\Temp\ccYCTqm0.s:26775  .debug_str:000000000000fbdb .LASF2971
C:\Users\SOLDER~1\AppData\Local\Temp\ccYCTqm0.s:31637  .debug_str:0000000000023451 .LASF2972
C:\Users\SOLDER~1\AppData\Local\Temp\ccYCTqm0.s:25575  .debug_str:000000000000aecf .LASF2973
C:\Users\SOLDER~1\AppData\Local\Temp\ccYCTqm0.s:23355  .debug_str:0000000000001f22 .LASF2974
C:\Users\SOLDER~1\AppData\Local\Temp\ccYCTqm0.s:27707  .debug_str:0000000000013739 .LASF2975
C:\Users\SOLDER~1\AppData\Local\Temp\ccYCTqm0.s:25237  .debug_str:00000000000098af .LASF2976
C:\Users\SOLDER~1\AppData\Local\Temp\ccYCTqm0.s:31425  .debug_str:000000000002263c .LASF2977
C:\Users\SOLDER~1\AppData\Local\Temp\ccYCTqm0.s:34101  .debug_str:000000000002d47d .LASF2978
C:\Users\SOLDER~1\AppData\Local\Temp\ccYCTqm0.s:25953  .debug_str:000000000000c6a1 .LASF2979
C:\Users\SOLDER~1\AppData\Local\Temp\ccYCTqm0.s:31649  .debug_str:000000000002350d .LASF2980
C:\Users\SOLDER~1\AppData\Local\Temp\ccYCTqm0.s:25527  .debug_str:000000000000ab9e .LASF2981
C:\Users\SOLDER~1\AppData\Local\Temp\ccYCTqm0.s:34083  .debug_str:000000000002d335 .LASF2982
C:\Users\SOLDER~1\AppData\Local\Temp\ccYCTqm0.s:28401  .debug_str:000000000001652a .LASF2983
C:\Users\SOLDER~1\AppData\Local\Temp\ccYCTqm0.s:32857  .debug_str:0000000000028469 .LASF2984
C:\Users\SOLDER~1\AppData\Local\Temp\ccYCTqm0.s:29213  .debug_str:0000000000019953 .LASF2985
C:\Users\SOLDER~1\AppData\Local\Temp\ccYCTqm0.s:23863  .debug_str:0000000000003faf .LASF2986
C:\Users\SOLDER~1\AppData\Local\Temp\ccYCTqm0.s:33991  .debug_str:000000000002cd33 .LASF2987
C:\Users\SOLDER~1\AppData\Local\Temp\ccYCTqm0.s:23373  .debug_str:0000000000002062 .LASF2988
C:\Users\SOLDER~1\AppData\Local\Temp\ccYCTqm0.s:27039  .debug_str:0000000000010cbc .LASF2989
C:\Users\SOLDER~1\AppData\Local\Temp\ccYCTqm0.s:24321  .debug_str:0000000000005cab .LASF2990
C:\Users\SOLDER~1\AppData\Local\Temp\ccYCTqm0.s:34507  .debug_str:000000000002eeb1 .LASF2991
C:\Users\SOLDER~1\AppData\Local\Temp\ccYCTqm0.s:23401  .debug_str:0000000000002223 .LASF2992
C:\Users\SOLDER~1\AppData\Local\Temp\ccYCTqm0.s:32619  .debug_str:000000000002749d .LASF2993
C:\Users\SOLDER~1\AppData\Local\Temp\ccYCTqm0.s:25475  .debug_str:000000000000a801 .LASF2994
GAS LISTING C:\Users\SOLDER~1\AppData\Local\Temp\ccYCTqm0.s 			page 157


C:\Users\SOLDER~1\AppData\Local\Temp\ccYCTqm0.s:23591  .debug_str:0000000000002e49 .LASF2995
C:\Users\SOLDER~1\AppData\Local\Temp\ccYCTqm0.s:32433  .debug_str:000000000002689c .LASF2996
C:\Users\SOLDER~1\AppData\Local\Temp\ccYCTqm0.s:26333  .debug_str:000000000000df4c .LASF2997
C:\Users\SOLDER~1\AppData\Local\Temp\ccYCTqm0.s:30659  .debug_str:000000000001f570 .LASF2998
C:\Users\SOLDER~1\AppData\Local\Temp\ccYCTqm0.s:32403  .debug_str:0000000000026690 .LASF2999
C:\Users\SOLDER~1\AppData\Local\Temp\ccYCTqm0.s:23395  .debug_str:00000000000021af .LASF3000
C:\Users\SOLDER~1\AppData\Local\Temp\ccYCTqm0.s:29491  .debug_str:000000000001aacd .LASF3001
C:\Users\SOLDER~1\AppData\Local\Temp\ccYCTqm0.s:27753  .debug_str:0000000000013a62 .LASF3002
C:\Users\SOLDER~1\AppData\Local\Temp\ccYCTqm0.s:31379  .debug_str:00000000000223b1 .LASF3003
C:\Users\SOLDER~1\AppData\Local\Temp\ccYCTqm0.s:30257  .debug_str:000000000001db74 .LASF3004
C:\Users\SOLDER~1\AppData\Local\Temp\ccYCTqm0.s:32039  .debug_str:0000000000024e8b .LASF3005
C:\Users\SOLDER~1\AppData\Local\Temp\ccYCTqm0.s:25553  .debug_str:000000000000ad6f .LASF3006
C:\Users\SOLDER~1\AppData\Local\Temp\ccYCTqm0.s:31433  .debug_str:00000000000226c1 .LASF3007
C:\Users\SOLDER~1\AppData\Local\Temp\ccYCTqm0.s:29137  .debug_str:0000000000019470 .LASF3008
C:\Users\SOLDER~1\AppData\Local\Temp\ccYCTqm0.s:33993  .debug_str:000000000002cd4c .LASF3009
C:\Users\SOLDER~1\AppData\Local\Temp\ccYCTqm0.s:29525  .debug_str:000000000001ad29 .LASF3010
C:\Users\SOLDER~1\AppData\Local\Temp\ccYCTqm0.s:34231  .debug_str:000000000002dd02 .LASF3011
C:\Users\SOLDER~1\AppData\Local\Temp\ccYCTqm0.s:30847  .debug_str:00000000000201c5 .LASF3012
C:\Users\SOLDER~1\AppData\Local\Temp\ccYCTqm0.s:25261  .debug_str:0000000000009a19 .LASF3013
C:\Users\SOLDER~1\AppData\Local\Temp\ccYCTqm0.s:26969  .debug_str:0000000000010898 .LASF3014
C:\Users\SOLDER~1\AppData\Local\Temp\ccYCTqm0.s:27853  .debug_str:000000000001417b .LASF3015
C:\Users\SOLDER~1\AppData\Local\Temp\ccYCTqm0.s:28843  .debug_str:000000000001815c .LASF3016
C:\Users\SOLDER~1\AppData\Local\Temp\ccYCTqm0.s:25899  .debug_str:000000000000c2de .LASF3017
C:\Users\SOLDER~1\AppData\Local\Temp\ccYCTqm0.s:25291  .debug_str:0000000000009c19 .LASF3018
C:\Users\SOLDER~1\AppData\Local\Temp\ccYCTqm0.s:23963  .debug_str:00000000000045ef .LASF3019
C:\Users\SOLDER~1\AppData\Local\Temp\ccYCTqm0.s:34453  .debug_str:000000000002eaed .LASF3020
C:\Users\SOLDER~1\AppData\Local\Temp\ccYCTqm0.s:33759  .debug_str:000000000002be7b .LASF3021
C:\Users\SOLDER~1\AppData\Local\Temp\ccYCTqm0.s:30359  .debug_str:000000000001e1e4 .LASF3022
C:\Users\SOLDER~1\AppData\Local\Temp\ccYCTqm0.s:32323  .debug_str:00000000000260fa .LASF3023
C:\Users\SOLDER~1\AppData\Local\Temp\ccYCTqm0.s:29659  .debug_str:000000000001b585 .LASF3024
C:\Users\SOLDER~1\AppData\Local\Temp\ccYCTqm0.s:30007  .debug_str:000000000001cb8a .LASF3025
C:\Users\SOLDER~1\AppData\Local\Temp\ccYCTqm0.s:23487  .debug_str:00000000000027a9 .LASF3026
C:\Users\SOLDER~1\AppData\Local\Temp\ccYCTqm0.s:28099  .debug_str:00000000000151f2 .LASF3027
C:\Users\SOLDER~1\AppData\Local\Temp\ccYCTqm0.s:32705  .debug_str:0000000000027a58 .LASF3028
C:\Users\SOLDER~1\AppData\Local\Temp\ccYCTqm0.s:26161  .debug_str:000000000000d477 .LASF3029
C:\Users\SOLDER~1\AppData\Local\Temp\ccYCTqm0.s:28053  .debug_str:0000000000014eeb .LASF3030
C:\Users\SOLDER~1\AppData\Local\Temp\ccYCTqm0.s:23451  .debug_str:0000000000002593 .LASF3031
C:\Users\SOLDER~1\AppData\Local\Temp\ccYCTqm0.s:25181  .debug_str:0000000000009510 .LASF3032
C:\Users\SOLDER~1\AppData\Local\Temp\ccYCTqm0.s:34015  .debug_str:000000000002cebf .LASF3033
C:\Users\SOLDER~1\AppData\Local\Temp\ccYCTqm0.s:27481  .debug_str:0000000000012897 .LASF3034
C:\Users\SOLDER~1\AppData\Local\Temp\ccYCTqm0.s:33377  .debug_str:000000000002a5f8 .LASF3035
C:\Users\SOLDER~1\AppData\Local\Temp\ccYCTqm0.s:25431  .debug_str:000000000000a54c .LASF3036
C:\Users\SOLDER~1\AppData\Local\Temp\ccYCTqm0.s:31603  .debug_str:0000000000023223 .LASF3037
C:\Users\SOLDER~1\AppData\Local\Temp\ccYCTqm0.s:23301  .debug_str:0000000000001b86 .LASF3038
C:\Users\SOLDER~1\AppData\Local\Temp\ccYCTqm0.s:23353  .debug_str:0000000000001f08 .LASF3039
C:\Users\SOLDER~1\AppData\Local\Temp\ccYCTqm0.s:23527  .debug_str:0000000000002a66 .LASF3040
C:\Users\SOLDER~1\AppData\Local\Temp\ccYCTqm0.s:28343  .debug_str:000000000001615d .LASF3041
C:\Users\SOLDER~1\AppData\Local\Temp\ccYCTqm0.s:27045  .debug_str:0000000000010d37 .LASF3042
C:\Users\SOLDER~1\AppData\Local\Temp\ccYCTqm0.s:26583  .debug_str:000000000000ef9c .LASF3043
C:\Users\SOLDER~1\AppData\Local\Temp\ccYCTqm0.s:29161  .debug_str:00000000000195ce .LASF3044
C:\Users\SOLDER~1\AppData\Local\Temp\ccYCTqm0.s:24919  .debug_str:00000000000083ad .LASF3045
C:\Users\SOLDER~1\AppData\Local\Temp\ccYCTqm0.s:26233  .debug_str:000000000000d913 .LASF3046
C:\Users\SOLDER~1\AppData\Local\Temp\ccYCTqm0.s:28903  .debug_str:00000000000185a0 .LASF3047
C:\Users\SOLDER~1\AppData\Local\Temp\ccYCTqm0.s:31579  .debug_str:00000000000230a2 .LASF3048
C:\Users\SOLDER~1\AppData\Local\Temp\ccYCTqm0.s:27411  .debug_str:0000000000012439 .LASF3049
C:\Users\SOLDER~1\AppData\Local\Temp\ccYCTqm0.s:30747  .debug_str:000000000001fb7a .LASF3050
C:\Users\SOLDER~1\AppData\Local\Temp\ccYCTqm0.s:25033  .debug_str:0000000000008b12 .LASF3051
GAS LISTING C:\Users\SOLDER~1\AppData\Local\Temp\ccYCTqm0.s 			page 158


C:\Users\SOLDER~1\AppData\Local\Temp\ccYCTqm0.s:25889  .debug_str:000000000000c231 .LASF3052
C:\Users\SOLDER~1\AppData\Local\Temp\ccYCTqm0.s:23187  .debug_str:000000000000145a .LASF3053
C:\Users\SOLDER~1\AppData\Local\Temp\ccYCTqm0.s:34389  .debug_str:000000000002e6dd .LASF3054
C:\Users\SOLDER~1\AppData\Local\Temp\ccYCTqm0.s:32951  .debug_str:0000000000028a64 .LASF3055
C:\Users\SOLDER~1\AppData\Local\Temp\ccYCTqm0.s:28229  .debug_str:0000000000015a49 .LASF3056
C:\Users\SOLDER~1\AppData\Local\Temp\ccYCTqm0.s:31021  .debug_str:0000000000020cd8 .LASF3057
C:\Users\SOLDER~1\AppData\Local\Temp\ccYCTqm0.s:25907  .debug_str:000000000000c356 .LASF3058
C:\Users\SOLDER~1\AppData\Local\Temp\ccYCTqm0.s:28117  .debug_str:0000000000015309 .LASF3059
C:\Users\SOLDER~1\AppData\Local\Temp\ccYCTqm0.s:25053  .debug_str:0000000000008c3f .LASF3060
C:\Users\SOLDER~1\AppData\Local\Temp\ccYCTqm0.s:27207  .debug_str:0000000000011733 .LASF3061
C:\Users\SOLDER~1\AppData\Local\Temp\ccYCTqm0.s:29359  .debug_str:000000000001a252 .LASF3062
C:\Users\SOLDER~1\AppData\Local\Temp\ccYCTqm0.s:23321  .debug_str:0000000000001cda .LASF3063
C:\Users\SOLDER~1\AppData\Local\Temp\ccYCTqm0.s:23851  .debug_str:0000000000003eee .LASF3064
C:\Users\SOLDER~1\AppData\Local\Temp\ccYCTqm0.s:32627  .debug_str:0000000000027536 .LASF3065
C:\Users\SOLDER~1\AppData\Local\Temp\ccYCTqm0.s:28847  .debug_str:00000000000181aa .LASF3066
C:\Users\SOLDER~1\AppData\Local\Temp\ccYCTqm0.s:29739  .debug_str:000000000001ba4e .LASF3067
C:\Users\SOLDER~1\AppData\Local\Temp\ccYCTqm0.s:27067  .debug_str:0000000000010e9c .LASF3068
C:\Users\SOLDER~1\AppData\Local\Temp\ccYCTqm0.s:28955  .debug_str:00000000000188b5 .LASF3069
C:\Users\SOLDER~1\AppData\Local\Temp\ccYCTqm0.s:33653  .debug_str:000000000002b7a2 .LASF3070
C:\Users\SOLDER~1\AppData\Local\Temp\ccYCTqm0.s:29753  .debug_str:000000000001bb2d .LASF3071
C:\Users\SOLDER~1\AppData\Local\Temp\ccYCTqm0.s:25283  .debug_str:0000000000009b88 .LASF3072
C:\Users\SOLDER~1\AppData\Local\Temp\ccYCTqm0.s:33475  .debug_str:000000000002ac2e .LASF3073
C:\Users\SOLDER~1\AppData\Local\Temp\ccYCTqm0.s:32967  .debug_str:0000000000028b95 .LASF3074
C:\Users\SOLDER~1\AppData\Local\Temp\ccYCTqm0.s:34005  .debug_str:000000000002ce12 .LASF3075
C:\Users\SOLDER~1\AppData\Local\Temp\ccYCTqm0.s:30437  .debug_str:000000000001e6db .LASF3076
C:\Users\SOLDER~1\AppData\Local\Temp\ccYCTqm0.s:33889  .debug_str:000000000002c72f .LASF3077
C:\Users\SOLDER~1\AppData\Local\Temp\ccYCTqm0.s:24893  .debug_str:00000000000081f1 .LASF3078
C:\Users\SOLDER~1\AppData\Local\Temp\ccYCTqm0.s:30251  .debug_str:000000000001db28 .LASF3079
C:\Users\SOLDER~1\AppData\Local\Temp\ccYCTqm0.s:32931  .debug_str:0000000000028922 .LASF3080
C:\Users\SOLDER~1\AppData\Local\Temp\ccYCTqm0.s:25799  .debug_str:000000000000bc60 .LASF3081
C:\Users\SOLDER~1\AppData\Local\Temp\ccYCTqm0.s:33217  .debug_str:0000000000029b72 .LASF3082
C:\Users\SOLDER~1\AppData\Local\Temp\ccYCTqm0.s:23855  .debug_str:0000000000003f36 .LASF3083
C:\Users\SOLDER~1\AppData\Local\Temp\ccYCTqm0.s:24435  .debug_str:0000000000006445 .LASF3084
C:\Users\SOLDER~1\AppData\Local\Temp\ccYCTqm0.s:27233  .debug_str:0000000000011933 .LASF3085
C:\Users\SOLDER~1\AppData\Local\Temp\ccYCTqm0.s:28185  .debug_str:000000000001577a .LASF3086
C:\Users\SOLDER~1\AppData\Local\Temp\ccYCTqm0.s:31685  .debug_str:000000000002378b .LASF3087
C:\Users\SOLDER~1\AppData\Local\Temp\ccYCTqm0.s:28147  .debug_str:00000000000154eb .LASF3088
C:\Users\SOLDER~1\AppData\Local\Temp\ccYCTqm0.s:29819  .debug_str:000000000001bf69 .LASF3089
C:\Users\SOLDER~1\AppData\Local\Temp\ccYCTqm0.s:28895  .debug_str:0000000000018511 .LASF3090
C:\Users\SOLDER~1\AppData\Local\Temp\ccYCTqm0.s:33141  .debug_str:000000000002966a .LASF3091
C:\Users\SOLDER~1\AppData\Local\Temp\ccYCTqm0.s:24281  .debug_str:00000000000059de .LASF3092
C:\Users\SOLDER~1\AppData\Local\Temp\ccYCTqm0.s:26041  .debug_str:000000000000cc74 .LASF3093
C:\Users\SOLDER~1\AppData\Local\Temp\ccYCTqm0.s:24479  .debug_str:000000000000672e .LASF3094
C:\Users\SOLDER~1\AppData\Local\Temp\ccYCTqm0.s:28407  .debug_str:000000000001658f .LASF3095
C:\Users\SOLDER~1\AppData\Local\Temp\ccYCTqm0.s:30795  .debug_str:000000000001fe9f .LASF3096
C:\Users\SOLDER~1\AppData\Local\Temp\ccYCTqm0.s:33903  .debug_str:000000000002c7ed .LASF3097
C:\Users\SOLDER~1\AppData\Local\Temp\ccYCTqm0.s:26651  .debug_str:000000000000f3fe .LASF3098
C:\Users\SOLDER~1\AppData\Local\Temp\ccYCTqm0.s:28441  .debug_str:00000000000167b5 .LASF3099
C:\Users\SOLDER~1\AppData\Local\Temp\ccYCTqm0.s:33743  .debug_str:000000000002bd72 .LASF3100
C:\Users\SOLDER~1\AppData\Local\Temp\ccYCTqm0.s:27287  .debug_str:0000000000011c8c .LASF3101
C:\Users\SOLDER~1\AppData\Local\Temp\ccYCTqm0.s:26607  .debug_str:000000000000f12f .LASF3102
C:\Users\SOLDER~1\AppData\Local\Temp\ccYCTqm0.s:28207  .debug_str:00000000000158f9 .LASF3103
C:\Users\SOLDER~1\AppData\Local\Temp\ccYCTqm0.s:25629  .debug_str:000000000000b1fc .LASF3104
C:\Users\SOLDER~1\AppData\Local\Temp\ccYCTqm0.s:26487  .debug_str:000000000000e9c8 .LASF3105
C:\Users\SOLDER~1\AppData\Local\Temp\ccYCTqm0.s:33449  .debug_str:000000000002aab3 .LASF3106
C:\Users\SOLDER~1\AppData\Local\Temp\ccYCTqm0.s:24793  .debug_str:0000000000007b54 .LASF3107
C:\Users\SOLDER~1\AppData\Local\Temp\ccYCTqm0.s:31253  .debug_str:0000000000021bcb .LASF3108
GAS LISTING C:\Users\SOLDER~1\AppData\Local\Temp\ccYCTqm0.s 			page 159


C:\Users\SOLDER~1\AppData\Local\Temp\ccYCTqm0.s:23125  .debug_str:0000000000001074 .LASF3109
C:\Users\SOLDER~1\AppData\Local\Temp\ccYCTqm0.s:28265  .debug_str:0000000000015c6e .LASF3110
C:\Users\SOLDER~1\AppData\Local\Temp\ccYCTqm0.s:23875  .debug_str:0000000000004084 .LASF3111
C:\Users\SOLDER~1\AppData\Local\Temp\ccYCTqm0.s:32115  .debug_str:0000000000025363 .LASF3112
C:\Users\SOLDER~1\AppData\Local\Temp\ccYCTqm0.s:31781  .debug_str:0000000000023dab .LASF3113
C:\Users\SOLDER~1\AppData\Local\Temp\ccYCTqm0.s:30149  .debug_str:000000000001d4a3 .LASF3114
C:\Users\SOLDER~1\AppData\Local\Temp\ccYCTqm0.s:30077  .debug_str:000000000001d043 .LASF3115
C:\Users\SOLDER~1\AppData\Local\Temp\ccYCTqm0.s:31691  .debug_str:00000000000237f5 .LASF3116
C:\Users\SOLDER~1\AppData\Local\Temp\ccYCTqm0.s:26899  .debug_str:0000000000010477 .LASF3117
C:\Users\SOLDER~1\AppData\Local\Temp\ccYCTqm0.s:30371  .debug_str:000000000001e2bb .LASF3118
C:\Users\SOLDER~1\AppData\Local\Temp\ccYCTqm0.s:29563  .debug_str:000000000001af66 .LASF3119
C:\Users\SOLDER~1\AppData\Local\Temp\ccYCTqm0.s:28151  .debug_str:000000000001552e .LASF3120
C:\Users\SOLDER~1\AppData\Local\Temp\ccYCTqm0.s:27821  .debug_str:0000000000013f62 .LASF3121
C:\Users\SOLDER~1\AppData\Local\Temp\ccYCTqm0.s:33391  .debug_str:000000000002a6f9 .LASF3122
C:\Users\SOLDER~1\AppData\Local\Temp\ccYCTqm0.s:24565  .debug_str:0000000000006d2c .LASF3123
C:\Users\SOLDER~1\AppData\Local\Temp\ccYCTqm0.s:25383  .debug_str:000000000000a20e .LASF3124
C:\Users\SOLDER~1\AppData\Local\Temp\ccYCTqm0.s:24463  .debug_str:0000000000006632 .LASF3125
C:\Users\SOLDER~1\AppData\Local\Temp\ccYCTqm0.s:27437  .debug_str:00000000000125e4 .LASF3126
C:\Users\SOLDER~1\AppData\Local\Temp\ccYCTqm0.s:23641  .debug_str:0000000000003196 .LASF3127
C:\Users\SOLDER~1\AppData\Local\Temp\ccYCTqm0.s:32909  .debug_str:00000000000287c5 .LASF3128
C:\Users\SOLDER~1\AppData\Local\Temp\ccYCTqm0.s:32737  .debug_str:0000000000027c73 .LASF3129
C:\Users\SOLDER~1\AppData\Local\Temp\ccYCTqm0.s:30467  .debug_str:000000000001e89c .LASF3130
C:\Users\SOLDER~1\AppData\Local\Temp\ccYCTqm0.s:33213  .debug_str:0000000000029b2f .LASF3131
C:\Users\SOLDER~1\AppData\Local\Temp\ccYCTqm0.s:27909  .debug_str:0000000000014516 .LASF3132
C:\Users\SOLDER~1\AppData\Local\Temp\ccYCTqm0.s:25225  .debug_str:0000000000009808 .LASF3133
C:\Users\SOLDER~1\AppData\Local\Temp\ccYCTqm0.s:23385  .debug_str:000000000000210e .LASF3134
C:\Users\SOLDER~1\AppData\Local\Temp\ccYCTqm0.s:26667  .debug_str:000000000000f4f9 .LASF3135
C:\Users\SOLDER~1\AppData\Local\Temp\ccYCTqm0.s:28727  .debug_str:00000000000179e6 .LASF3136
C:\Users\SOLDER~1\AppData\Local\Temp\ccYCTqm0.s:24997  .debug_str:00000000000088cc .LASF3137
C:\Users\SOLDER~1\AppData\Local\Temp\ccYCTqm0.s:30867  .debug_str:000000000002030e .LASF3138
C:\Users\SOLDER~1\AppData\Local\Temp\ccYCTqm0.s:31743  .debug_str:0000000000023b75 .LASF3139
C:\Users\SOLDER~1\AppData\Local\Temp\ccYCTqm0.s:23005  .debug_str:0000000000000856 .LASF3140
C:\Users\SOLDER~1\AppData\Local\Temp\ccYCTqm0.s:33487  .debug_str:000000000002acc7 .LASF3141
C:\Users\SOLDER~1\AppData\Local\Temp\ccYCTqm0.s:24689  .debug_str:000000000000751a .LASF3142
C:\Users\SOLDER~1\AppData\Local\Temp\ccYCTqm0.s:24251  .debug_str:00000000000057d1 .LASF3143
C:\Users\SOLDER~1\AppData\Local\Temp\ccYCTqm0.s:28827  .debug_str:0000000000018049 .LASF3144
C:\Users\SOLDER~1\AppData\Local\Temp\ccYCTqm0.s:33577  .debug_str:000000000002b29c .LASF3145
C:\Users\SOLDER~1\AppData\Local\Temp\ccYCTqm0.s:25273  .debug_str:0000000000009aef .LASF3146
C:\Users\SOLDER~1\AppData\Local\Temp\ccYCTqm0.s:31181  .debug_str:000000000002173c .LASF3147
C:\Users\SOLDER~1\AppData\Local\Temp\ccYCTqm0.s:24333  .debug_str:0000000000005d90 .LASF3148
C:\Users\SOLDER~1\AppData\Local\Temp\ccYCTqm0.s:28859  .debug_str:0000000000018287 .LASF3149
C:\Users\SOLDER~1\AppData\Local\Temp\ccYCTqm0.s:33017  .debug_str:0000000000028ed4 .LASF3150
C:\Users\SOLDER~1\AppData\Local\Temp\ccYCTqm0.s:31157  .debug_str:00000000000215d4 .LASF3151
C:\Users\SOLDER~1\AppData\Local\Temp\ccYCTqm0.s:32347  .debug_str:000000000002629d .LASF3152
C:\Users\SOLDER~1\AppData\Local\Temp\ccYCTqm0.s:29283  .debug_str:0000000000019d8d .LASF3153
C:\Users\SOLDER~1\AppData\Local\Temp\ccYCTqm0.s:23473  .debug_str:00000000000026d4 .LASF3154
C:\Users\SOLDER~1\AppData\Local\Temp\ccYCTqm0.s:27713  .debug_str:00000000000137ac .LASF3155
C:\Users\SOLDER~1\AppData\Local\Temp\ccYCTqm0.s:32693  .debug_str:0000000000027998 .LASF3156
C:\Users\SOLDER~1\AppData\Local\Temp\ccYCTqm0.s:25395  .debug_str:000000000000a2e9 .LASF3157
C:\Users\SOLDER~1\AppData\Local\Temp\ccYCTqm0.s:31321  .debug_str:0000000000021fe5 .LASF3158
C:\Users\SOLDER~1\AppData\Local\Temp\ccYCTqm0.s:23563  .debug_str:0000000000002c8b .LASF3159
C:\Users\SOLDER~1\AppData\Local\Temp\ccYCTqm0.s:31623  .debug_str:0000000000023364 .LASF3160
C:\Users\SOLDER~1\AppData\Local\Temp\ccYCTqm0.s:33339  .debug_str:000000000002a347 .LASF3161
C:\Users\SOLDER~1\AppData\Local\Temp\ccYCTqm0.s:34025  .debug_str:000000000002cf68 .LASF3162
C:\Users\SOLDER~1\AppData\Local\Temp\ccYCTqm0.s:33643  .debug_str:000000000002b70e .LASF3163
C:\Users\SOLDER~1\AppData\Local\Temp\ccYCTqm0.s:30999  .debug_str:0000000000020b7a .LASF3164
C:\Users\SOLDER~1\AppData\Local\Temp\ccYCTqm0.s:26495  .debug_str:000000000000ea3c .LASF3165
GAS LISTING C:\Users\SOLDER~1\AppData\Local\Temp\ccYCTqm0.s 			page 160


C:\Users\SOLDER~1\AppData\Local\Temp\ccYCTqm0.s:31589  .debug_str:0000000000023141 .LASF3166
C:\Users\SOLDER~1\AppData\Local\Temp\ccYCTqm0.s:27343  .debug_str:0000000000012026 .LASF3167
C:\Users\SOLDER~1\AppData\Local\Temp\ccYCTqm0.s:34171  .debug_str:000000000002d92e .LASF3168
C:\Users\SOLDER~1\AppData\Local\Temp\ccYCTqm0.s:25669  .debug_str:000000000000b47d .LASF3169
C:\Users\SOLDER~1\AppData\Local\Temp\ccYCTqm0.s:32327  .debug_str:0000000000026133 .LASF3170
C:\Users\SOLDER~1\AppData\Local\Temp\ccYCTqm0.s:23899  .debug_str:00000000000041ff .LASF3171
C:\Users\SOLDER~1\AppData\Local\Temp\ccYCTqm0.s:32325  .debug_str:0000000000026112 .LASF3172
C:\Users\SOLDER~1\AppData\Local\Temp\ccYCTqm0.s:23973  .debug_str:0000000000004687 .LASF3173
C:\Users\SOLDER~1\AppData\Local\Temp\ccYCTqm0.s:28349  .debug_str:00000000000161ba .LASF3174
C:\Users\SOLDER~1\AppData\Local\Temp\ccYCTqm0.s:29357  .debug_str:000000000001a23f .LASF3175
C:\Users\SOLDER~1\AppData\Local\Temp\ccYCTqm0.s:30171  .debug_str:000000000001d638 .LASF3176
C:\Users\SOLDER~1\AppData\Local\Temp\ccYCTqm0.s:27407  .debug_str:0000000000012404 .LASF3177
C:\Users\SOLDER~1\AppData\Local\Temp\ccYCTqm0.s:29661  .debug_str:000000000001b5a7 .LASF3178
C:\Users\SOLDER~1\AppData\Local\Temp\ccYCTqm0.s:25461  .debug_str:000000000000a713 .LASF3179
C:\Users\SOLDER~1\AppData\Local\Temp\ccYCTqm0.s:24135  .debug_str:00000000000050b9 .LASF3180
C:\Users\SOLDER~1\AppData\Local\Temp\ccYCTqm0.s:25825  .debug_str:000000000000be17 .LASF3181
C:\Users\SOLDER~1\AppData\Local\Temp\ccYCTqm0.s:30555  .debug_str:000000000001eeac .LASF3182
C:\Users\SOLDER~1\AppData\Local\Temp\ccYCTqm0.s:33407  .debug_str:000000000002a806 .LASF3183
C:\Users\SOLDER~1\AppData\Local\Temp\ccYCTqm0.s:32999  .debug_str:0000000000028dab .LASF3184
C:\Users\SOLDER~1\AppData\Local\Temp\ccYCTqm0.s:31459  .debug_str:000000000002288f .LASF3185
C:\Users\SOLDER~1\AppData\Local\Temp\ccYCTqm0.s:31129  .debug_str:00000000000213be .LASF3186
C:\Users\SOLDER~1\AppData\Local\Temp\ccYCTqm0.s:29585  .debug_str:000000000001b10f .LASF3187
C:\Users\SOLDER~1\AppData\Local\Temp\ccYCTqm0.s:26603  .debug_str:000000000000f0e8 .LASF3188
C:\Users\SOLDER~1\AppData\Local\Temp\ccYCTqm0.s:27659  .debug_str:0000000000013402 .LASF3189
C:\Users\SOLDER~1\AppData\Local\Temp\ccYCTqm0.s:23153  .debug_str:000000000000123b .LASF3190
C:\Users\SOLDER~1\AppData\Local\Temp\ccYCTqm0.s:25471  .debug_str:000000000000a7b9 .LASF3191
C:\Users\SOLDER~1\AppData\Local\Temp\ccYCTqm0.s:33059  .debug_str:0000000000029159 .LASF3192
C:\Users\SOLDER~1\AppData\Local\Temp\ccYCTqm0.s:23793  .debug_str:0000000000003b48 .LASF3193
C:\Users\SOLDER~1\AppData\Local\Temp\ccYCTqm0.s:28353  .debug_str:00000000000161fe .LASF3194
C:\Users\SOLDER~1\AppData\Local\Temp\ccYCTqm0.s:34391  .debug_str:000000000002e700 .LASF3195
C:\Users\SOLDER~1\AppData\Local\Temp\ccYCTqm0.s:25435  .debug_str:000000000000a594 .LASF3196
C:\Users\SOLDER~1\AppData\Local\Temp\ccYCTqm0.s:31771  .debug_str:0000000000023d37 .LASF3197
C:\Users\SOLDER~1\AppData\Local\Temp\ccYCTqm0.s:30005  .debug_str:000000000001cb68 .LASF3198
C:\Users\SOLDER~1\AppData\Local\Temp\ccYCTqm0.s:23557  .debug_str:0000000000002c42 .LASF3199
C:\Users\SOLDER~1\AppData\Local\Temp\ccYCTqm0.s:29079  .debug_str:00000000000190be .LASF3200
C:\Users\SOLDER~1\AppData\Local\Temp\ccYCTqm0.s:28437  .debug_str:0000000000016781 .LASF3201
C:\Users\SOLDER~1\AppData\Local\Temp\ccYCTqm0.s:25165  .debug_str:00000000000093cc .LASF3202
C:\Users\SOLDER~1\AppData\Local\Temp\ccYCTqm0.s:31829  .debug_str:00000000000240d4 .LASF3203
C:\Users\SOLDER~1\AppData\Local\Temp\ccYCTqm0.s:26531  .debug_str:000000000000ecac .LASF3204
C:\Users\SOLDER~1\AppData\Local\Temp\ccYCTqm0.s:25003  .debug_str:0000000000008922 .LASF3205
C:\Users\SOLDER~1\AppData\Local\Temp\ccYCTqm0.s:24497  .debug_str:0000000000006868 .LASF3206
C:\Users\SOLDER~1\AppData\Local\Temp\ccYCTqm0.s:32365  .debug_str:00000000000263f4 .LASF3207
C:\Users\SOLDER~1\AppData\Local\Temp\ccYCTqm0.s:25355  .debug_str:000000000000a008 .LASF3208
C:\Users\SOLDER~1\AppData\Local\Temp\ccYCTqm0.s:27443  .debug_str:0000000000012642 .LASF3209
C:\Users\SOLDER~1\AppData\Local\Temp\ccYCTqm0.s:27439  .debug_str:0000000000012609 .LASF3210
C:\Users\SOLDER~1\AppData\Local\Temp\ccYCTqm0.s:28515  .debug_str:0000000000016bf1 .LASF3211
C:\Users\SOLDER~1\AppData\Local\Temp\ccYCTqm0.s:32877  .debug_str:00000000000285c9 .LASF3212
C:\Users\SOLDER~1\AppData\Local\Temp\ccYCTqm0.s:32505  .debug_str:0000000000026d38 .LASF3213
C:\Users\SOLDER~1\AppData\Local\Temp\ccYCTqm0.s:30203  .debug_str:000000000001d845 .LASF3214
C:\Users\SOLDER~1\AppData\Local\Temp\ccYCTqm0.s:24365  .debug_str:0000000000005fa8 .LASF3215
C:\Users\SOLDER~1\AppData\Local\Temp\ccYCTqm0.s:31933  .debug_str:0000000000024760 .LASF3216
C:\Users\SOLDER~1\AppData\Local\Temp\ccYCTqm0.s:33209  .debug_str:0000000000029b07 .LASF3217
C:\Users\SOLDER~1\AppData\Local\Temp\ccYCTqm0.s:26685  .debug_str:000000000000f630 .LASF3218
C:\Users\SOLDER~1\AppData\Local\Temp\ccYCTqm0.s:30349  .debug_str:000000000001e12d .LASF3219
C:\Users\SOLDER~1\AppData\Local\Temp\ccYCTqm0.s:28487  .debug_str:0000000000016a5b .LASF3220
C:\Users\SOLDER~1\AppData\Local\Temp\ccYCTqm0.s:30355  .debug_str:000000000001e19c .LASF3221
C:\Users\SOLDER~1\AppData\Local\Temp\ccYCTqm0.s:25583  .debug_str:000000000000af2e .LASF3222
GAS LISTING C:\Users\SOLDER~1\AppData\Local\Temp\ccYCTqm0.s 			page 161


C:\Users\SOLDER~1\AppData\Local\Temp\ccYCTqm0.s:25045  .debug_str:0000000000008bbe .LASF3223
C:\Users\SOLDER~1\AppData\Local\Temp\ccYCTqm0.s:34037  .debug_str:000000000002d028 .LASF3224
C:\Users\SOLDER~1\AppData\Local\Temp\ccYCTqm0.s:24727  .debug_str:000000000000779c .LASF3225
C:\Users\SOLDER~1\AppData\Local\Temp\ccYCTqm0.s:33099  .debug_str:0000000000029396 .LASF3226
C:\Users\SOLDER~1\AppData\Local\Temp\ccYCTqm0.s:31093  .debug_str:0000000000021173 .LASF3227
C:\Users\SOLDER~1\AppData\Local\Temp\ccYCTqm0.s:28531  .debug_str:0000000000016d08 .LASF3228
C:\Users\SOLDER~1\AppData\Local\Temp\ccYCTqm0.s:25793  .debug_str:000000000000bc09 .LASF3229
C:\Users\SOLDER~1\AppData\Local\Temp\ccYCTqm0.s:23091  .debug_str:0000000000000e70 .LASF3230
C:\Users\SOLDER~1\AppData\Local\Temp\ccYCTqm0.s:32213  .debug_str:0000000000025980 .LASF3231
C:\Users\SOLDER~1\AppData\Local\Temp\ccYCTqm0.s:33369  .debug_str:000000000002a563 .LASF3232
C:\Users\SOLDER~1\AppData\Local\Temp\ccYCTqm0.s:23349  .debug_str:0000000000001ece .LASF3233
C:\Users\SOLDER~1\AppData\Local\Temp\ccYCTqm0.s:27501  .debug_str:00000000000129f3 .LASF3234
C:\Users\SOLDER~1\AppData\Local\Temp\ccYCTqm0.s:34291  .debug_str:000000000002e08d .LASF3235
C:\Users\SOLDER~1\AppData\Local\Temp\ccYCTqm0.s:32049  .debug_str:0000000000024f3e .LASF3236
C:\Users\SOLDER~1\AppData\Local\Temp\ccYCTqm0.s:26629  .debug_str:000000000000f291 .LASF3237
C:\Users\SOLDER~1\AppData\Local\Temp\ccYCTqm0.s:30319  .debug_str:000000000001df29 .LASF3238
C:\Users\SOLDER~1\AppData\Local\Temp\ccYCTqm0.s:33935  .debug_str:000000000002c9db .LASF3239
C:\Users\SOLDER~1\AppData\Local\Temp\ccYCTqm0.s:25935  .debug_str:000000000000c54f .LASF3240
C:\Users\SOLDER~1\AppData\Local\Temp\ccYCTqm0.s:32099  .debug_str:0000000000025259 .LASF3241
C:\Users\SOLDER~1\AppData\Local\Temp\ccYCTqm0.s:33831  .debug_str:000000000002c312 .LASF3242
C:\Users\SOLDER~1\AppData\Local\Temp\ccYCTqm0.s:27693  .debug_str:0000000000013653 .LASF3243
C:\Users\SOLDER~1\AppData\Local\Temp\ccYCTqm0.s:26879  .debug_str:000000000001032d .LASF3244
C:\Users\SOLDER~1\AppData\Local\Temp\ccYCTqm0.s:32825  .debug_str:0000000000028250 .LASF3245
C:\Users\SOLDER~1\AppData\Local\Temp\ccYCTqm0.s:30487  .debug_str:000000000001ea1b .LASF3246
C:\Users\SOLDER~1\AppData\Local\Temp\ccYCTqm0.s:32987  .debug_str:0000000000028d02 .LASF3247
C:\Users\SOLDER~1\AppData\Local\Temp\ccYCTqm0.s:26729  .debug_str:000000000000f901 .LASF3248
C:\Users\SOLDER~1\AppData\Local\Temp\ccYCTqm0.s:33725  .debug_str:000000000002bc62 .LASF3249
C:\Users\SOLDER~1\AppData\Local\Temp\ccYCTqm0.s:28129  .debug_str:00000000000153a8 .LASF3250
C:\Users\SOLDER~1\AppData\Local\Temp\ccYCTqm0.s:34385  .debug_str:000000000002e69b .LASF3251
C:\Users\SOLDER~1\AppData\Local\Temp\ccYCTqm0.s:33443  .debug_str:000000000002aa3a .LASF3252
C:\Users\SOLDER~1\AppData\Local\Temp\ccYCTqm0.s:32409  .debug_str:00000000000266e0 .LASF3253
C:\Users\SOLDER~1\AppData\Local\Temp\ccYCTqm0.s:33167  .debug_str:000000000002981f .LASF3254
C:\Users\SOLDER~1\AppData\Local\Temp\ccYCTqm0.s:29989  .debug_str:000000000001ca53 .LASF3255
C:\Users\SOLDER~1\AppData\Local\Temp\ccYCTqm0.s:27223  .debug_str:000000000001185d .LASF3256
C:\Users\SOLDER~1\AppData\Local\Temp\ccYCTqm0.s:24857  .debug_str:0000000000007f83 .LASF3257
C:\Users\SOLDER~1\AppData\Local\Temp\ccYCTqm0.s:25839  .debug_str:000000000000bf30 .LASF3258
C:\Users\SOLDER~1\AppData\Local\Temp\ccYCTqm0.s:29813  .debug_str:000000000001bf04 .LASF3259
C:\Users\SOLDER~1\AppData\Local\Temp\ccYCTqm0.s:27035  .debug_str:0000000000010c67 .LASF3260
C:\Users\SOLDER~1\AppData\Local\Temp\ccYCTqm0.s:23021  .debug_str:00000000000009a6 .LASF3261
C:\Users\SOLDER~1\AppData\Local\Temp\ccYCTqm0.s:31357  .debug_str:0000000000022256 .LASF3262
C:\Users\SOLDER~1\AppData\Local\Temp\ccYCTqm0.s:31919  .debug_str:0000000000024656 .LASF3263
C:\Users\SOLDER~1\AppData\Local\Temp\ccYCTqm0.s:25007  .debug_str:0000000000008955 .LASF3264
C:\Users\SOLDER~1\AppData\Local\Temp\ccYCTqm0.s:32883  .debug_str:0000000000028624 .LASF3265
C:\Users\SOLDER~1\AppData\Local\Temp\ccYCTqm0.s:29273  .debug_str:0000000000019cdd .LASF3266
C:\Users\SOLDER~1\AppData\Local\Temp\ccYCTqm0.s:26001  .debug_str:000000000000c9cd .LASF3267
C:\Users\SOLDER~1\AppData\Local\Temp\ccYCTqm0.s:25217  .debug_str:0000000000009755 .LASF3268
C:\Users\SOLDER~1\AppData\Local\Temp\ccYCTqm0.s:24927  .debug_str:0000000000008447 .LASF3269
C:\Users\SOLDER~1\AppData\Local\Temp\ccYCTqm0.s:26791  .debug_str:000000000000fd01 .LASF3270
C:\Users\SOLDER~1\AppData\Local\Temp\ccYCTqm0.s:29009  .debug_str:0000000000018bff .LASF3271
C:\Users\SOLDER~1\AppData\Local\Temp\ccYCTqm0.s:28019  .debug_str:0000000000014c8c .LASF3272
C:\Users\SOLDER~1\AppData\Local\Temp\ccYCTqm0.s:30323  .debug_str:000000000001df6d .LASF3273
C:\Users\SOLDER~1\AppData\Local\Temp\ccYCTqm0.s:23445  .debug_str:0000000000002528 .LASF3274
C:\Users\SOLDER~1\AppData\Local\Temp\ccYCTqm0.s:26525  .debug_str:000000000000ec27 .LASF3275
C:\Users\SOLDER~1\AppData\Local\Temp\ccYCTqm0.s:28201  .debug_str:000000000001587f .LASF3276
C:\Users\SOLDER~1\AppData\Local\Temp\ccYCTqm0.s:30641  .debug_str:000000000001f433 .LASF3277
C:\Users\SOLDER~1\AppData\Local\Temp\ccYCTqm0.s:31537  .debug_str:0000000000022db8 .LASF3278
C:\Users\SOLDER~1\AppData\Local\Temp\ccYCTqm0.s:34495  .debug_str:000000000002edd6 .LASF3279
GAS LISTING C:\Users\SOLDER~1\AppData\Local\Temp\ccYCTqm0.s 			page 162


C:\Users\SOLDER~1\AppData\Local\Temp\ccYCTqm0.s:33349  .debug_str:000000000002a3f7 .LASF3280
C:\Users\SOLDER~1\AppData\Local\Temp\ccYCTqm0.s:33623  .debug_str:000000000002b5dd .LASF3281
C:\Users\SOLDER~1\AppData\Local\Temp\ccYCTqm0.s:25091  .debug_str:0000000000008edb .LASF3282
C:\Users\SOLDER~1\AppData\Local\Temp\ccYCTqm0.s:28845  .debug_str:000000000001817e .LASF3283
C:\Users\SOLDER~1\AppData\Local\Temp\ccYCTqm0.s:34147  .debug_str:000000000002d797 .LASF3284
C:\Users\SOLDER~1\AppData\Local\Temp\ccYCTqm0.s:32015  .debug_str:0000000000024cde .LASF3285
C:\Users\SOLDER~1\AppData\Local\Temp\ccYCTqm0.s:26529  .debug_str:000000000000ec79 .LASF3286
C:\Users\SOLDER~1\AppData\Local\Temp\ccYCTqm0.s:28065  .debug_str:0000000000014fc6 .LASF3287
C:\Users\SOLDER~1\AppData\Local\Temp\ccYCTqm0.s:25959  .debug_str:000000000000c70a .LASF3288
C:\Users\SOLDER~1\AppData\Local\Temp\ccYCTqm0.s:27243  .debug_str:00000000000119cb .LASF3289
C:\Users\SOLDER~1\AppData\Local\Temp\ccYCTqm0.s:27857  .debug_str:00000000000141b2 .LASF3290
C:\Users\SOLDER~1\AppData\Local\Temp\ccYCTqm0.s:27239  .debug_str:0000000000011980 .LASF3291
C:\Users\SOLDER~1\AppData\Local\Temp\ccYCTqm0.s:30515  .debug_str:000000000001ec09 .LASF3292
C:\Users\SOLDER~1\AppData\Local\Temp\ccYCTqm0.s:27625  .debug_str:00000000000131ee .LASF3293
C:\Users\SOLDER~1\AppData\Local\Temp\ccYCTqm0.s:32805  .debug_str:00000000000280db .LASF3294
C:\Users\SOLDER~1\AppData\Local\Temp\ccYCTqm0.s:30195  .debug_str:000000000001d7b7 .LASF3295
C:\Users\SOLDER~1\AppData\Local\Temp\ccYCTqm0.s:31327  .debug_str:000000000002205a .LASF3296
C:\Users\SOLDER~1\AppData\Local\Temp\ccYCTqm0.s:28829  .debug_str:0000000000018069 .LASF3297
C:\Users\SOLDER~1\AppData\Local\Temp\ccYCTqm0.s:24285  .debug_str:0000000000005a2a .LASF3298
C:\Users\SOLDER~1\AppData\Local\Temp\ccYCTqm0.s:26809  .debug_str:000000000000fe3a .LASF3299
C:\Users\SOLDER~1\AppData\Local\Temp\ccYCTqm0.s:28397  .debug_str:00000000000164de .LASF3300
C:\Users\SOLDER~1\AppData\Local\Temp\ccYCTqm0.s:30297  .debug_str:000000000001ddd4 .LASF3301
C:\Users\SOLDER~1\AppData\Local\Temp\ccYCTqm0.s:29851  .debug_str:000000000001c167 .LASF3302
C:\Users\SOLDER~1\AppData\Local\Temp\ccYCTqm0.s:26145  .debug_str:000000000000d33d .LASF3303
C:\Users\SOLDER~1\AppData\Local\Temp\ccYCTqm0.s:23675  .debug_str:00000000000033bf .LASF3304
C:\Users\SOLDER~1\AppData\Local\Temp\ccYCTqm0.s:29841  .debug_str:000000000001c0b0 .LASF3305
C:\Users\SOLDER~1\AppData\Local\Temp\ccYCTqm0.s:25117  .debug_str:0000000000009081 .LASF3306
C:\Users\SOLDER~1\AppData\Local\Temp\ccYCTqm0.s:26601  .debug_str:000000000000f0b5 .LASF3307
C:\Users\SOLDER~1\AppData\Local\Temp\ccYCTqm0.s:23981  .debug_str:00000000000046f7 .LASF3308
C:\Users\SOLDER~1\AppData\Local\Temp\ccYCTqm0.s:26949  .debug_str:000000000001073f .LASF3309
C:\Users\SOLDER~1\AppData\Local\Temp\ccYCTqm0.s:24167  .debug_str:000000000000529e .LASF3310
C:\Users\SOLDER~1\AppData\Local\Temp\ccYCTqm0.s:22937  .debug_str:000000000000036d .LASF3311
C:\Users\SOLDER~1\AppData\Local\Temp\ccYCTqm0.s:25399  .debug_str:000000000000a328 .LASF3312
C:\Users\SOLDER~1\AppData\Local\Temp\ccYCTqm0.s:30583  .debug_str:000000000001f055 .LASF3313
C:\Users\SOLDER~1\AppData\Local\Temp\ccYCTqm0.s:34461  .debug_str:000000000002eb6b .LASF3314
C:\Users\SOLDER~1\AppData\Local\Temp\ccYCTqm0.s:23131  .debug_str:00000000000010cc .LASF3315
C:\Users\SOLDER~1\AppData\Local\Temp\ccYCTqm0.s:23833  .debug_str:0000000000003de1 .LASF3316
C:\Users\SOLDER~1\AppData\Local\Temp\ccYCTqm0.s:28453  .debug_str:000000000001688d .LASF3317
C:\Users\SOLDER~1\AppData\Local\Temp\ccYCTqm0.s:29475  .debug_str:000000000001a9b7 .LASF3318
C:\Users\SOLDER~1\AppData\Local\Temp\ccYCTqm0.s:29017  .debug_str:0000000000018c8f .LASF3319
C:\Users\SOLDER~1\AppData\Local\Temp\ccYCTqm0.s:34141  .debug_str:000000000002d732 .LASF3320
C:\Users\SOLDER~1\AppData\Local\Temp\ccYCTqm0.s:30639  .debug_str:000000000001f40a .LASF3321
C:\Users\SOLDER~1\AppData\Local\Temp\ccYCTqm0.s:27145  .debug_str:0000000000011342 .LASF3322
C:\Users\SOLDER~1\AppData\Local\Temp\ccYCTqm0.s:23597  .debug_str:0000000000002ea7 .LASF3323
C:\Users\SOLDER~1\AppData\Local\Temp\ccYCTqm0.s:31755  .debug_str:0000000000023c1e .LASF3324
C:\Users\SOLDER~1\AppData\Local\Temp\ccYCTqm0.s:27833  .debug_str:0000000000014010 .LASF3325
C:\Users\SOLDER~1\AppData\Local\Temp\ccYCTqm0.s:27275  .debug_str:0000000000011bb6 .LASF3326
C:\Users\SOLDER~1\AppData\Local\Temp\ccYCTqm0.s:26731  .debug_str:000000000000f930 .LASF3327
C:\Users\SOLDER~1\AppData\Local\Temp\ccYCTqm0.s:29093  .debug_str:00000000000191a3 .LASF3328
C:\Users\SOLDER~1\AppData\Local\Temp\ccYCTqm0.s:31819  .debug_str:0000000000024024 .LASF3329
C:\Users\SOLDER~1\AppData\Local\Temp\ccYCTqm0.s:22971  .debug_str:00000000000005a6 .LASF3330
C:\Users\SOLDER~1\AppData\Local\Temp\ccYCTqm0.s:24521  .debug_str:0000000000006a25 .LASF3331
C:\Users\SOLDER~1\AppData\Local\Temp\ccYCTqm0.s:23497  .debug_str:0000000000002857 .LASF3332
C:\Users\SOLDER~1\AppData\Local\Temp\ccYCTqm0.s:30741  .debug_str:000000000001fb0a .LASF3333
C:\Users\SOLDER~1\AppData\Local\Temp\ccYCTqm0.s:33113  .debug_str:0000000000029478 .LASF3334
C:\Users\SOLDER~1\AppData\Local\Temp\ccYCTqm0.s:25923  .debug_str:000000000000c479 .LASF3335
C:\Users\SOLDER~1\AppData\Local\Temp\ccYCTqm0.s:31017  .debug_str:0000000000020c8d .LASF3336
GAS LISTING C:\Users\SOLDER~1\AppData\Local\Temp\ccYCTqm0.s 			page 163


C:\Users\SOLDER~1\AppData\Local\Temp\ccYCTqm0.s:24127  .debug_str:0000000000005039 .LASF3337
C:\Users\SOLDER~1\AppData\Local\Temp\ccYCTqm0.s:25085  .debug_str:0000000000008e69 .LASF3338
C:\Users\SOLDER~1\AppData\Local\Temp\ccYCTqm0.s:26725  .debug_str:000000000000f8ae .LASF3339
C:\Users\SOLDER~1\AppData\Local\Temp\ccYCTqm0.s:24585  .debug_str:0000000000006e37 .LASF3340
C:\Users\SOLDER~1\AppData\Local\Temp\ccYCTqm0.s:34505  .debug_str:000000000002ee88 .LASF3341
C:\Users\SOLDER~1\AppData\Local\Temp\ccYCTqm0.s:30033  .debug_str:000000000001cd37 .LASF3342
C:\Users\SOLDER~1\AppData\Local\Temp\ccYCTqm0.s:30889  .debug_str:000000000002046e .LASF3343
C:\Users\SOLDER~1\AppData\Local\Temp\ccYCTqm0.s:29119  .debug_str:000000000001934f .LASF3344
C:\Users\SOLDER~1\AppData\Local\Temp\ccYCTqm0.s:27291  .debug_str:0000000000011ccc .LASF3345
C:\Users\SOLDER~1\AppData\Local\Temp\ccYCTqm0.s:24755  .debug_str:000000000000794e .LASF3346
C:\Users\SOLDER~1\AppData\Local\Temp\ccYCTqm0.s:33537  .debug_str:000000000002b01f .LASF3347
C:\Users\SOLDER~1\AppData\Local\Temp\ccYCTqm0.s:25791  .debug_str:000000000000bbed .LASF3348
C:\Users\SOLDER~1\AppData\Local\Temp\ccYCTqm0.s:28189  .debug_str:00000000000157ba .LASF3349
C:\Users\SOLDER~1\AppData\Local\Temp\ccYCTqm0.s:31365  .debug_str:00000000000222e3 .LASF3350
C:\Users\SOLDER~1\AppData\Local\Temp\ccYCTqm0.s:32449  .debug_str:000000000002697b .LASF3351
C:\Users\SOLDER~1\AppData\Local\Temp\ccYCTqm0.s:27931  .debug_str:00000000000146aa .LASF3352
C:\Users\SOLDER~1\AppData\Local\Temp\ccYCTqm0.s:28217  .debug_str:0000000000015985 .LASF3353
C:\Users\SOLDER~1\AppData\Local\Temp\ccYCTqm0.s:27943  .debug_str:0000000000014761 .LASF3354
C:\Users\SOLDER~1\AppData\Local\Temp\ccYCTqm0.s:24403  .debug_str:00000000000061ff .LASF3355
C:\Users\SOLDER~1\AppData\Local\Temp\ccYCTqm0.s:32579  .debug_str:00000000000271f1 .LASF3356
C:\Users\SOLDER~1\AppData\Local\Temp\ccYCTqm0.s:31679  .debug_str:0000000000023719 .LASF3357
C:\Users\SOLDER~1\AppData\Local\Temp\ccYCTqm0.s:28965  .debug_str:0000000000018960 .LASF3358
C:\Users\SOLDER~1\AppData\Local\Temp\ccYCTqm0.s:33779  .debug_str:000000000002bfa5 .LASF3359
C:\Users\SOLDER~1\AppData\Local\Temp\ccYCTqm0.s:25965  .debug_str:000000000000c781 .LASF3360
C:\Users\SOLDER~1\AppData\Local\Temp\ccYCTqm0.s:30805  .debug_str:000000000001ff30 .LASF3361
C:\Users\SOLDER~1\AppData\Local\Temp\ccYCTqm0.s:33607  .debug_str:000000000002b4a4 .LASF3362
C:\Users\SOLDER~1\AppData\Local\Temp\ccYCTqm0.s:33117  .debug_str:00000000000294c5 .LASF3363
C:\Users\SOLDER~1\AppData\Local\Temp\ccYCTqm0.s:30977  .debug_str:0000000000020a0a .LASF3364
C:\Users\SOLDER~1\AppData\Local\Temp\ccYCTqm0.s:30337  .debug_str:000000000001e049 .LASF3365
C:\Users\SOLDER~1\AppData\Local\Temp\ccYCTqm0.s:31451  .debug_str:00000000000227fc .LASF3366
C:\Users\SOLDER~1\AppData\Local\Temp\ccYCTqm0.s:32601  .debug_str:0000000000027387 .LASF3367
C:\Users\SOLDER~1\AppData\Local\Temp\ccYCTqm0.s:33679  .debug_str:000000000002b93e .LASF3368
C:\Users\SOLDER~1\AppData\Local\Temp\ccYCTqm0.s:26811  .debug_str:000000000000fe62 .LASF3369
C:\Users\SOLDER~1\AppData\Local\Temp\ccYCTqm0.s:31553  .debug_str:0000000000022edf .LASF3370
C:\Users\SOLDER~1\AppData\Local\Temp\ccYCTqm0.s:24843  .debug_str:0000000000007e9e .LASF3371
C:\Users\SOLDER~1\AppData\Local\Temp\ccYCTqm0.s:24385  .debug_str:00000000000060c6 .LASF3372
C:\Users\SOLDER~1\AppData\Local\Temp\ccYCTqm0.s:34323  .debug_str:000000000002e2b3 .LASF3373
C:\Users\SOLDER~1\AppData\Local\Temp\ccYCTqm0.s:31461  .debug_str:00000000000228a2 .LASF3374
C:\Users\SOLDER~1\AppData\Local\Temp\ccYCTqm0.s:32953  .debug_str:0000000000028a7d .LASF3375
C:\Users\SOLDER~1\AppData\Local\Temp\ccYCTqm0.s:25683  .debug_str:000000000000b55c .LASF3376
C:\Users\SOLDER~1\AppData\Local\Temp\ccYCTqm0.s:27489  .debug_str:000000000001292c .LASF3377
C:\Users\SOLDER~1\AppData\Local\Temp\ccYCTqm0.s:24749  .debug_str:00000000000078e2 .LASF3378
C:\Users\SOLDER~1\AppData\Local\Temp\ccYCTqm0.s:29387  .debug_str:000000000001a41f .LASF3379
C:\Users\SOLDER~1\AppData\Local\Temp\ccYCTqm0.s:27553  .debug_str:0000000000012d13 .LASF3380
C:\Users\SOLDER~1\AppData\Local\Temp\ccYCTqm0.s:30715  .debug_str:000000000001f937 .LASF3381
C:\Users\SOLDER~1\AppData\Local\Temp\ccYCTqm0.s:28787  .debug_str:0000000000017dcc .LASF3382
C:\Users\SOLDER~1\AppData\Local\Temp\ccYCTqm0.s:34373  .debug_str:000000000002e5d0 .LASF3383
C:\Users\SOLDER~1\AppData\Local\Temp\ccYCTqm0.s:29745  .debug_str:000000000001baa4 .LASF3384
C:\Users\SOLDER~1\AppData\Local\Temp\ccYCTqm0.s:29343  .debug_str:000000000001a17a .LASF3385
C:\Users\SOLDER~1\AppData\Local\Temp\ccYCTqm0.s:33267  .debug_str:0000000000029e66 .LASF3386
C:\Users\SOLDER~1\AppData\Local\Temp\ccYCTqm0.s:28005  .debug_str:0000000000014b7d .LASF3387
C:\Users\SOLDER~1\AppData\Local\Temp\ccYCTqm0.s:34051  .debug_str:000000000002d10c .LASF3388
C:\Users\SOLDER~1\AppData\Local\Temp\ccYCTqm0.s:28093  .debug_str:0000000000015191 .LASF3389
C:\Users\SOLDER~1\AppData\Local\Temp\ccYCTqm0.s:30479  .debug_str:000000000001e985 .LASF3390
C:\Users\SOLDER~1\AppData\Local\Temp\ccYCTqm0.s:34601  .debug_str:000000000002f482 .LASF3391
C:\Users\SOLDER~1\AppData\Local\Temp\ccYCTqm0.s:26615  .debug_str:000000000000f1a8 .LASF3392
C:\Users\SOLDER~1\AppData\Local\Temp\ccYCTqm0.s:25123  .debug_str:00000000000090f6 .LASF3393
GAS LISTING C:\Users\SOLDER~1\AppData\Local\Temp\ccYCTqm0.s 			page 164


C:\Users\SOLDER~1\AppData\Local\Temp\ccYCTqm0.s:23215  .debug_str:000000000000161b .LASF3394
C:\Users\SOLDER~1\AppData\Local\Temp\ccYCTqm0.s:32217  .debug_str:00000000000259ab .LASF3395
C:\Users\SOLDER~1\AppData\Local\Temp\ccYCTqm0.s:32345  .debug_str:0000000000026274 .LASF3396
C:\Users\SOLDER~1\AppData\Local\Temp\ccYCTqm0.s:29395  .debug_str:000000000001a4aa .LASF3397
C:\Users\SOLDER~1\AppData\Local\Temp\ccYCTqm0.s:26437  .debug_str:000000000000e6b4 .LASF3398
C:\Users\SOLDER~1\AppData\Local\Temp\ccYCTqm0.s:27741  .debug_str:000000000001398e .LASF3399
C:\Users\SOLDER~1\AppData\Local\Temp\ccYCTqm0.s:28637  .debug_str:0000000000017397 .LASF3400
C:\Users\SOLDER~1\AppData\Local\Temp\ccYCTqm0.s:28849  .debug_str:00000000000181cd .LASF3401
C:\Users\SOLDER~1\AppData\Local\Temp\ccYCTqm0.s:33363  .debug_str:000000000002a4dc .LASF3402
C:\Users\SOLDER~1\AppData\Local\Temp\ccYCTqm0.s:28631  .debug_str:0000000000017337 .LASF3403
C:\Users\SOLDER~1\AppData\Local\Temp\ccYCTqm0.s:32565  .debug_str:0000000000027128 .LASF3404
C:\Users\SOLDER~1\AppData\Local\Temp\ccYCTqm0.s:25687  .debug_str:000000000000b596 .LASF3405
C:\Users\SOLDER~1\AppData\Local\Temp\ccYCTqm0.s:30497  .debug_str:000000000001eacc .LASF3406
C:\Users\SOLDER~1\AppData\Local\Temp\ccYCTqm0.s:23587  .debug_str:0000000000002df9 .LASF3407
C:\Users\SOLDER~1\AppData\Local\Temp\ccYCTqm0.s:25317  .debug_str:0000000000009db0 .LASF3408
C:\Users\SOLDER~1\AppData\Local\Temp\ccYCTqm0.s:33215  .debug_str:0000000000029b48 .LASF3409
C:\Users\SOLDER~1\AppData\Local\Temp\ccYCTqm0.s:33965  .debug_str:000000000002cbad .LASF3410
C:\Users\SOLDER~1\AppData\Local\Temp\ccYCTqm0.s:23763  .debug_str:000000000000394b .LASF3411
C:\Users\SOLDER~1\AppData\Local\Temp\ccYCTqm0.s:33663  .debug_str:000000000002b83c .LASF3412
C:\Users\SOLDER~1\AppData\Local\Temp\ccYCTqm0.s:31817  .debug_str:0000000000023ffa .LASF3413
C:\Users\SOLDER~1\AppData\Local\Temp\ccYCTqm0.s:30063  .debug_str:000000000001cf52 .LASF3414
C:\Users\SOLDER~1\AppData\Local\Temp\ccYCTqm0.s:28281  .debug_str:0000000000015d7b .LASF3415
C:\Users\SOLDER~1\AppData\Local\Temp\ccYCTqm0.s:33423  .debug_str:000000000002a8ff .LASF3416
C:\Users\SOLDER~1\AppData\Local\Temp\ccYCTqm0.s:24657  .debug_str:0000000000007315 .LASF3417
C:\Users\SOLDER~1\AppData\Local\Temp\ccYCTqm0.s:28103  .debug_str:0000000000015221 .LASF3418
C:\Users\SOLDER~1\AppData\Local\Temp\ccYCTqm0.s:27123  .debug_str:00000000000111e4 .LASF3419
C:\Users\SOLDER~1\AppData\Local\Temp\ccYCTqm0.s:26623  .debug_str:000000000000f232 .LASF3420
C:\Users\SOLDER~1\AppData\Local\Temp\ccYCTqm0.s:31969  .debug_str:00000000000249cf .LASF3421
C:\Users\SOLDER~1\AppData\Local\Temp\ccYCTqm0.s:32189  .debug_str:00000000000257f6 .LASF3422
C:\Users\SOLDER~1\AppData\Local\Temp\ccYCTqm0.s:27289  .debug_str:0000000000011ca5 .LASF3423
C:\Users\SOLDER~1\AppData\Local\Temp\ccYCTqm0.s:33071  .debug_str:0000000000029220 .LASF3424
C:\Users\SOLDER~1\AppData\Local\Temp\ccYCTqm0.s:30407  .debug_str:000000000001e4fc .LASF3425
C:\Users\SOLDER~1\AppData\Local\Temp\ccYCTqm0.s:30969  .debug_str:0000000000020996 .LASF3426
C:\Users\SOLDER~1\AppData\Local\Temp\ccYCTqm0.s:27479  .debug_str:000000000001286d .LASF3427
C:\Users\SOLDER~1\AppData\Local\Temp\ccYCTqm0.s:29373  .debug_str:000000000001a32a .LASF3428
C:\Users\SOLDER~1\AppData\Local\Temp\ccYCTqm0.s:23825  .debug_str:0000000000003d59 .LASF3429
C:\Users\SOLDER~1\AppData\Local\Temp\ccYCTqm0.s:28695  .debug_str:000000000001778e .LASF3430
C:\Users\SOLDER~1\AppData\Local\Temp\ccYCTqm0.s:25149  .debug_str:00000000000092af .LASF3431
C:\Users\SOLDER~1\AppData\Local\Temp\ccYCTqm0.s:31069  .debug_str:0000000000020fde .LASF3432
C:\Users\SOLDER~1\AppData\Local\Temp\ccYCTqm0.s:33863  .debug_str:000000000002c568 .LASF3433
C:\Users\SOLDER~1\AppData\Local\Temp\ccYCTqm0.s:27129  .debug_str:0000000000011251 .LASF3434
C:\Users\SOLDER~1\AppData\Local\Temp\ccYCTqm0.s:27811  .debug_str:0000000000013e9b .LASF3435
C:\Users\SOLDER~1\AppData\Local\Temp\ccYCTqm0.s:30593  .debug_str:000000000001f109 .LASF3436
C:\Users\SOLDER~1\AppData\Local\Temp\ccYCTqm0.s:33383  .debug_str:000000000002a663 .LASF3437
C:\Users\SOLDER~1\AppData\Local\Temp\ccYCTqm0.s:24495  .debug_str:000000000000683e .LASF3438
C:\Users\SOLDER~1\AppData\Local\Temp\ccYCTqm0.s:27315  .debug_str:0000000000011e43 .LASF3439
C:\Users\SOLDER~1\AppData\Local\Temp\ccYCTqm0.s:25055  .debug_str:0000000000008c62 .LASF3440
C:\Users\SOLDER~1\AppData\Local\Temp\ccYCTqm0.s:29855  .debug_str:000000000001c1b6 .LASF3441
C:\Users\SOLDER~1\AppData\Local\Temp\ccYCTqm0.s:22953  .debug_str:0000000000000473 .LASF3442
C:\Users\SOLDER~1\AppData\Local\Temp\ccYCTqm0.s:25969  .debug_str:000000000000c7c4 .LASF3443
C:\Users\SOLDER~1\AppData\Local\Temp\ccYCTqm0.s:32539  .debug_str:0000000000026f90 .LASF3444
C:\Users\SOLDER~1\AppData\Local\Temp\ccYCTqm0.s:24455  .debug_str:000000000000659a .LASF3445
C:\Users\SOLDER~1\AppData\Local\Temp\ccYCTqm0.s:30477  .debug_str:000000000001e95b .LASF3446
C:\Users\SOLDER~1\AppData\Local\Temp\ccYCTqm0.s:27947  .debug_str:00000000000147b1 .LASF3447
C:\Users\SOLDER~1\AppData\Local\Temp\ccYCTqm0.s:26125  .debug_str:000000000000d205 .LASF3448
C:\Users\SOLDER~1\AppData\Local\Temp\ccYCTqm0.s:32583  .debug_str:0000000000027232 .LASF3449
C:\Users\SOLDER~1\AppData\Local\Temp\ccYCTqm0.s:34223  .debug_str:000000000002dc70 .LASF3450
GAS LISTING C:\Users\SOLDER~1\AppData\Local\Temp\ccYCTqm0.s 			page 165


C:\Users\SOLDER~1\AppData\Local\Temp\ccYCTqm0.s:28273  .debug_str:0000000000015cfe .LASF3451
C:\Users\SOLDER~1\AppData\Local\Temp\ccYCTqm0.s:30619  .debug_str:000000000001f2bb .LASF3452
C:\Users\SOLDER~1\AppData\Local\Temp\ccYCTqm0.s:28855  .debug_str:0000000000018237 .LASF3453
C:\Users\SOLDER~1\AppData\Local\Temp\ccYCTqm0.s:24003  .debug_str:0000000000004883 .LASF3454
C:\Users\SOLDER~1\AppData\Local\Temp\ccYCTqm0.s:29123  .debug_str:0000000000019399 .LASF3455
C:\Users\SOLDER~1\AppData\Local\Temp\ccYCTqm0.s:23547  .debug_str:0000000000002b9a .LASF3456
C:\Users\SOLDER~1\AppData\Local\Temp\ccYCTqm0.s:33649  .debug_str:000000000002b763 .LASF3457
C:\Users\SOLDER~1\AppData\Local\Temp\ccYCTqm0.s:32851  .debug_str:0000000000028402 .LASF3458
C:\Users\SOLDER~1\AppData\Local\Temp\ccYCTqm0.s:34465  .debug_str:000000000002eba9 .LASF3459
C:\Users\SOLDER~1\AppData\Local\Temp\ccYCTqm0.s:27299  .debug_str:0000000000011d70 .LASF3460
C:\Users\SOLDER~1\AppData\Local\Temp\ccYCTqm0.s:32059  .debug_str:0000000000024fce .LASF3461
C:\Users\SOLDER~1\AppData\Local\Temp\ccYCTqm0.s:27395  .debug_str:0000000000012350 .LASF3462
C:\Users\SOLDER~1\AppData\Local\Temp\ccYCTqm0.s:32885  .debug_str:0000000000028643 .LASF3463
C:\Users\SOLDER~1\AppData\Local\Temp\ccYCTqm0.s:31371  .debug_str:0000000000022341 .LASF3464
C:\Users\SOLDER~1\AppData\Local\Temp\ccYCTqm0.s:24265  .debug_str:00000000000058ac .LASF3465
C:\Users\SOLDER~1\AppData\Local\Temp\ccYCTqm0.s:26767  .debug_str:000000000000fb5e .LASF3466
C:\Users\SOLDER~1\AppData\Local\Temp\ccYCTqm0.s:28653  .debug_str:00000000000174b3 .LASF3467
C:\Users\SOLDER~1\AppData\Local\Temp\ccYCTqm0.s:28825  .debug_str:0000000000018030 .LASF3468
C:\Users\SOLDER~1\AppData\Local\Temp\ccYCTqm0.s:23529  .debug_str:0000000000002a89 .LASF3469
C:\Users\SOLDER~1\AppData\Local\Temp\ccYCTqm0.s:22897  .debug_str:0000000000000119 .LASF3470
C:\Users\SOLDER~1\AppData\Local\Temp\ccYCTqm0.s:33737  .debug_str:000000000002bcfe .LASF3471
C:\Users\SOLDER~1\AppData\Local\Temp\ccYCTqm0.s:30547  .debug_str:000000000001ee4d .LASF3472
C:\Users\SOLDER~1\AppData\Local\Temp\ccYCTqm0.s:23811  .debug_str:0000000000003c77 .LASF3473
C:\Users\SOLDER~1\AppData\Local\Temp\ccYCTqm0.s:24499  .debug_str:000000000000688a .LASF3474
C:\Users\SOLDER~1\AppData\Local\Temp\ccYCTqm0.s:27789  .debug_str:0000000000013cea .LASF3475
C:\Users\SOLDER~1\AppData\Local\Temp\ccYCTqm0.s:26089  .debug_str:000000000000cfa4 .LASF3476
C:\Users\SOLDER~1\AppData\Local\Temp\ccYCTqm0.s:34369  .debug_str:000000000002e588 .LASF3477
C:\Users\SOLDER~1\AppData\Local\Temp\ccYCTqm0.s:24773  .debug_str:0000000000007a5b .LASF3478
C:\Users\SOLDER~1\AppData\Local\Temp\ccYCTqm0.s:25119  .debug_str:00000000000090b1 .LASF3479
C:\Users\SOLDER~1\AppData\Local\Temp\ccYCTqm0.s:24719  .debug_str:0000000000007725 .LASF3480
C:\Users\SOLDER~1\AppData\Local\Temp\ccYCTqm0.s:29069  .debug_str:0000000000019015 .LASF3481
C:\Users\SOLDER~1\AppData\Local\Temp\ccYCTqm0.s:33645  .debug_str:000000000002b726 .LASF3482
C:\Users\SOLDER~1\AppData\Local\Temp\ccYCTqm0.s:23653  .debug_str:0000000000003259 .LASF3483
C:\Users\SOLDER~1\AppData\Local\Temp\ccYCTqm0.s:31391  .debug_str:0000000000022475 .LASF3484
C:\Users\SOLDER~1\AppData\Local\Temp\ccYCTqm0.s:27775  .debug_str:0000000000013bde .LASF3485
C:\Users\SOLDER~1\AppData\Local\Temp\ccYCTqm0.s:24901  .debug_str:000000000000829f .LASF3486
C:\Users\SOLDER~1\AppData\Local\Temp\ccYCTqm0.s:23631  .debug_str:0000000000003106 .LASF3487
C:\Users\SOLDER~1\AppData\Local\Temp\ccYCTqm0.s:32943  .debug_str:00000000000289e1 .LASF3488
C:\Users\SOLDER~1\AppData\Local\Temp\ccYCTqm0.s:29047  .debug_str:0000000000018ea0 .LASF3489
C:\Users\SOLDER~1\AppData\Local\Temp\ccYCTqm0.s:30441  .debug_str:000000000001e722 .LASF3490
C:\Users\SOLDER~1\AppData\Local\Temp\ccYCTqm0.s:27687  .debug_str:00000000000135f7 .LASF3491
C:\Users\SOLDER~1\AppData\Local\Temp\ccYCTqm0.s:29965  .debug_str:000000000001c8b9 .LASF3492
C:\Users\SOLDER~1\AppData\Local\Temp\ccYCTqm0.s:26457  .debug_str:000000000000e800 .LASF3493
C:\Users\SOLDER~1\AppData\Local\Temp\ccYCTqm0.s:25897  .debug_str:000000000000c2ba .LASF3494
C:\Users\SOLDER~1\AppData\Local\Temp\ccYCTqm0.s:31033  .debug_str:0000000000020da6 .LASF3495
C:\Users\SOLDER~1\AppData\Local\Temp\ccYCTqm0.s:33557  .debug_str:000000000002b158 .LASF3496
C:\Users\SOLDER~1\AppData\Local\Temp\ccYCTqm0.s:32623  .debug_str:00000000000274ec .LASF3497
C:\Users\SOLDER~1\AppData\Local\Temp\ccYCTqm0.s:24631  .debug_str:0000000000007133 .LASF3498
C:\Users\SOLDER~1\AppData\Local\Temp\ccYCTqm0.s:29039  .debug_str:0000000000018e12 .LASF3499
C:\Users\SOLDER~1\AppData\Local\Temp\ccYCTqm0.s:28411  .debug_str:00000000000165cb .LASF3500
C:\Users\SOLDER~1\AppData\Local\Temp\ccYCTqm0.s:24227  .debug_str:000000000000565e .LASF3501
C:\Users\SOLDER~1\AppData\Local\Temp\ccYCTqm0.s:23567  .debug_str:0000000000002cba .LASF3502
C:\Users\SOLDER~1\AppData\Local\Temp\ccYCTqm0.s:25579  .debug_str:000000000000aef6 .LASF3503
C:\Users\SOLDER~1\AppData\Local\Temp\ccYCTqm0.s:31793  .debug_str:0000000000023e78 .LASF3504
C:\Users\SOLDER~1\AppData\Local\Temp\ccYCTqm0.s:34513  .debug_str:000000000002ef07 .LASF3505
C:\Users\SOLDER~1\AppData\Local\Temp\ccYCTqm0.s:32085  .debug_str:0000000000025177 .LASF3506
C:\Users\SOLDER~1\AppData\Local\Temp\ccYCTqm0.s:27371  .debug_str:00000000000121c3 .LASF3507
GAS LISTING C:\Users\SOLDER~1\AppData\Local\Temp\ccYCTqm0.s 			page 166


C:\Users\SOLDER~1\AppData\Local\Temp\ccYCTqm0.s:32921  .debug_str:0000000000028884 .LASF3508
C:\Users\SOLDER~1\AppData\Local\Temp\ccYCTqm0.s:24963  .debug_str:0000000000008690 .LASF3509
C:\Users\SOLDER~1\AppData\Local\Temp\ccYCTqm0.s:30035  .debug_str:000000000001cd60 .LASF3510
C:\Users\SOLDER~1\AppData\Local\Temp\ccYCTqm0.s:32659  .debug_str:0000000000027752 .LASF3511
C:\Users\SOLDER~1\AppData\Local\Temp\ccYCTqm0.s:33897  .debug_str:000000000002c789 .LASF3512
C:\Users\SOLDER~1\AppData\Local\Temp\ccYCTqm0.s:23539  .debug_str:0000000000002b1f .LASF3513
C:\Users\SOLDER~1\AppData\Local\Temp\ccYCTqm0.s:34313  .debug_str:000000000002e220 .LASF3514
C:\Users\SOLDER~1\AppData\Local\Temp\ccYCTqm0.s:30533  .debug_str:000000000001ed5e .LASF3515
C:\Users\SOLDER~1\AppData\Local\Temp\ccYCTqm0.s:32439  .debug_str:00000000000268f1 .LASF3516
C:\Users\SOLDER~1\AppData\Local\Temp\ccYCTqm0.s:24373  .debug_str:000000000000600f .LASF3517
C:\Users\SOLDER~1\AppData\Local\Temp\ccYCTqm0.s:33095  .debug_str:0000000000029360 .LASF3518
C:\Users\SOLDER~1\AppData\Local\Temp\ccYCTqm0.s:29385  .debug_str:000000000001a3fc .LASF3519
C:\Users\SOLDER~1\AppData\Local\Temp\ccYCTqm0.s:28659  .debug_str:0000000000017525 .LASF3520
C:\Users\SOLDER~1\AppData\Local\Temp\ccYCTqm0.s:33459  .debug_str:000000000002ab56 .LASF3521
C:\Users\SOLDER~1\AppData\Local\Temp\ccYCTqm0.s:26711  .debug_str:000000000000f7cd .LASF3522
C:\Users\SOLDER~1\AppData\Local\Temp\ccYCTqm0.s:34043  .debug_str:000000000002d085 .LASF3523
C:\Users\SOLDER~1\AppData\Local\Temp\ccYCTqm0.s:24783  .debug_str:0000000000007adb .LASF3524
C:\Users\SOLDER~1\AppData\Local\Temp\ccYCTqm0.s:28351  .debug_str:00000000000161db .LASF3525
C:\Users\SOLDER~1\AppData\Local\Temp\ccYCTqm0.s:23565  .debug_str:0000000000002ca1 .LASF3526
C:\Users\SOLDER~1\AppData\Local\Temp\ccYCTqm0.s:28673  .debug_str:0000000000017640 .LASF3527
C:\Users\SOLDER~1\AppData\Local\Temp\ccYCTqm0.s:33151  .debug_str:000000000002971e .LASF3528
C:\Users\SOLDER~1\AppData\Local\Temp\ccYCTqm0.s:23257  .debug_str:00000000000018bd .LASF3529
C:\Users\SOLDER~1\AppData\Local\Temp\ccYCTqm0.s:33931  .debug_str:000000000002c99a .LASF3530
C:\Users\SOLDER~1\AppData\Local\Temp\ccYCTqm0.s:28699  .debug_str:00000000000177e3 .LASF3531
C:\Users\SOLDER~1\AppData\Local\Temp\ccYCTqm0.s:30381  .debug_str:000000000001e368 .LASF3532
C:\Users\SOLDER~1\AppData\Local\Temp\ccYCTqm0.s:26371  .debug_str:000000000000e1e9 .LASF3533
C:\Users\SOLDER~1\AppData\Local\Temp\ccYCTqm0.s:33675  .debug_str:000000000002b903 .LASF3534
C:\Users\SOLDER~1\AppData\Local\Temp\ccYCTqm0.s:26813  .debug_str:000000000000fe8b .LASF3535
C:\Users\SOLDER~1\AppData\Local\Temp\ccYCTqm0.s:31173  .debug_str:00000000000216b6 .LASF3536
C:\Users\SOLDER~1\AppData\Local\Temp\ccYCTqm0.s:23967  .debug_str:000000000000461e .LASF3537
C:\Users\SOLDER~1\AppData\Local\Temp\ccYCTqm0.s:27075  .debug_str:0000000000010f0c .LASF3538
C:\Users\SOLDER~1\AppData\Local\Temp\ccYCTqm0.s:23559  .debug_str:0000000000002c57 .LASF3539
C:\Users\SOLDER~1\AppData\Local\Temp\ccYCTqm0.s:28315  .debug_str:0000000000015f96 .LASF3540
C:\Users\SOLDER~1\AppData\Local\Temp\ccYCTqm0.s:26401  .debug_str:000000000000e3f3 .LASF3541
C:\Users\SOLDER~1\AppData\Local\Temp\ccYCTqm0.s:22931  .debug_str:0000000000000315 .LASF3542
C:\Users\SOLDER~1\AppData\Local\Temp\ccYCTqm0.s:26669  .debug_str:000000000000f512 .LASF3543
C:\Users\SOLDER~1\AppData\Local\Temp\ccYCTqm0.s:31443  .debug_str:0000000000022775 .LASF3544
C:\Users\SOLDER~1\AppData\Local\Temp\ccYCTqm0.s:34255  .debug_str:000000000002de78 .LASF3545
C:\Users\SOLDER~1\AppData\Local\Temp\ccYCTqm0.s:31243  .debug_str:0000000000021b3b .LASF3546
C:\Users\SOLDER~1\AppData\Local\Temp\ccYCTqm0.s:24483  .debug_str:0000000000006778 .LASF3547
C:\Users\SOLDER~1\AppData\Local\Temp\ccYCTqm0.s:24347  .debug_str:0000000000005e5f .LASF3548
C:\Users\SOLDER~1\AppData\Local\Temp\ccYCTqm0.s:26063  .debug_str:000000000000cde1 .LASF3549
C:\Users\SOLDER~1\AppData\Local\Temp\ccYCTqm0.s:23107  .debug_str:0000000000000f53 .LASF3550
C:\Users\SOLDER~1\AppData\Local\Temp\ccYCTqm0.s:26903  .debug_str:00000000000104b3 .LASF3551
C:\Users\SOLDER~1\AppData\Local\Temp\ccYCTqm0.s:24581  .debug_str:0000000000006e0b .LASF3552
C:\Users\SOLDER~1\AppData\Local\Temp\ccYCTqm0.s:24153  .debug_str:00000000000051d3 .LASF3553
C:\Users\SOLDER~1\AppData\Local\Temp\ccYCTqm0.s:23317  .debug_str:0000000000001ca1 .LASF3554
C:\Users\SOLDER~1\AppData\Local\Temp\ccYCTqm0.s:32161  .debug_str:0000000000025644 .LASF3555
C:\Users\SOLDER~1\AppData\Local\Temp\ccYCTqm0.s:23093  .debug_str:0000000000000e92 .LASF3556
C:\Users\SOLDER~1\AppData\Local\Temp\ccYCTqm0.s:29517  .debug_str:000000000001aca7 .LASF3557
C:\Users\SOLDER~1\AppData\Local\Temp\ccYCTqm0.s:26687  .debug_str:000000000000f651 .LASF3558
C:\Users\SOLDER~1\AppData\Local\Temp\ccYCTqm0.s:23427  .debug_str:00000000000023e9 .LASF3559
C:\Users\SOLDER~1\AppData\Local\Temp\ccYCTqm0.s:24209  .debug_str:0000000000005567 .LASF3560
C:\Users\SOLDER~1\AppData\Local\Temp\ccYCTqm0.s:23129  .debug_str:00000000000010a8 .LASF3561
C:\Users\SOLDER~1\AppData\Local\Temp\ccYCTqm0.s:27441  .debug_str:0000000000012626 .LASF3562
C:\Users\SOLDER~1\AppData\Local\Temp\ccYCTqm0.s:34033  .debug_str:000000000002cfde .LASF3563
C:\Users\SOLDER~1\AppData\Local\Temp\ccYCTqm0.s:28363  .debug_str:00000000000162b7 .LASF3564
GAS LISTING C:\Users\SOLDER~1\AppData\Local\Temp\ccYCTqm0.s 			page 167


C:\Users\SOLDER~1\AppData\Local\Temp\ccYCTqm0.s:29817  .debug_str:000000000001bf43 .LASF3565
C:\Users\SOLDER~1\AppData\Local\Temp\ccYCTqm0.s:30569  .debug_str:000000000001ef7f .LASF3566
C:\Users\SOLDER~1\AppData\Local\Temp\ccYCTqm0.s:23525  .debug_str:0000000000002a45 .LASF3567
C:\Users\SOLDER~1\AppData\Local\Temp\ccYCTqm0.s:28579  .debug_str:0000000000016fec .LASF3568
C:\Users\SOLDER~1\AppData\Local\Temp\ccYCTqm0.s:27389  .debug_str:00000000000122f1 .LASF3569
C:\Users\SOLDER~1\AppData\Local\Temp\ccYCTqm0.s:33695  .debug_str:000000000002ba6c .LASF3570
C:\Users\SOLDER~1\AppData\Local\Temp\ccYCTqm0.s:30971  .debug_str:00000000000209c0 .LASF3571
C:\Users\SOLDER~1\AppData\Local\Temp\ccYCTqm0.s:23479  .debug_str:000000000000271d .LASF3572
C:\Users\SOLDER~1\AppData\Local\Temp\ccYCTqm0.s:29109  .debug_str:000000000001929e .LASF3573
C:\Users\SOLDER~1\AppData\Local\Temp\ccYCTqm0.s:26993  .debug_str:00000000000109ed .LASF3574
C:\Users\SOLDER~1\AppData\Local\Temp\ccYCTqm0.s:26255  .debug_str:000000000000da76 .LASF3575
C:\Users\SOLDER~1\AppData\Local\Temp\ccYCTqm0.s:32465  .debug_str:0000000000026a84 .LASF3576
C:\Users\SOLDER~1\AppData\Local\Temp\ccYCTqm0.s:33953  .debug_str:000000000002cb00 .LASF3577
C:\Users\SOLDER~1\AppData\Local\Temp\ccYCTqm0.s:26657  .debug_str:000000000000f45a .LASF3578
C:\Users\SOLDER~1\AppData\Local\Temp\ccYCTqm0.s:31753  .debug_str:0000000000023bfb .LASF3579
C:\Users\SOLDER~1\AppData\Local\Temp\ccYCTqm0.s:34361  .debug_str:000000000002e518 .LASF3580
C:\Users\SOLDER~1\AppData\Local\Temp\ccYCTqm0.s:24001  .debug_str:0000000000004862 .LASF3581
C:\Users\SOLDER~1\AppData\Local\Temp\ccYCTqm0.s:28445  .debug_str:00000000000167f1 .LASF3582
C:\Users\SOLDER~1\AppData\Local\Temp\ccYCTqm0.s:28795  .debug_str:0000000000017e45 .LASF3583
C:\Users\SOLDER~1\AppData\Local\Temp\ccYCTqm0.s:23533  .debug_str:0000000000002ac5 .LASF3584
C:\Users\SOLDER~1\AppData\Local\Temp\ccYCTqm0.s:24879  .debug_str:000000000000810a .LASF3585
C:\Users\SOLDER~1\AppData\Local\Temp\ccYCTqm0.s:22961  .debug_str:0000000000000504 .LASF3586
C:\Users\SOLDER~1\AppData\Local\Temp\ccYCTqm0.s:31421  .debug_str:0000000000022605 .LASF3587
C:\Users\SOLDER~1\AppData\Local\Temp\ccYCTqm0.s:26825  .debug_str:000000000000ff61 .LASF3588
C:\Users\SOLDER~1\AppData\Local\Temp\ccYCTqm0.s:32255  .debug_str:0000000000025c68 .LASF3589
C:\Users\SOLDER~1\AppData\Local\Temp\ccYCTqm0.s:31813  .debug_str:0000000000023fba .LASF3590
C:\Users\SOLDER~1\AppData\Local\Temp\ccYCTqm0.s:34419  .debug_str:000000000002e8a1 .LASF3591
C:\Users\SOLDER~1\AppData\Local\Temp\ccYCTqm0.s:25529  .debug_str:000000000000abb6 .LASF3592
C:\Users\SOLDER~1\AppData\Local\Temp\ccYCTqm0.s:26585  .debug_str:000000000000efb6 .LASF3593
C:\Users\SOLDER~1\AppData\Local\Temp\ccYCTqm0.s:27267  .debug_str:0000000000011b2c .LASF3594
C:\Users\SOLDER~1\AppData\Local\Temp\ccYCTqm0.s:23717  .debug_str:0000000000003691 .LASF3595
C:\Users\SOLDER~1\AppData\Local\Temp\ccYCTqm0.s:32231  .debug_str:0000000000025a9f .LASF3596
C:\Users\SOLDER~1\AppData\Local\Temp\ccYCTqm0.s:29799  .debug_str:000000000001bdf1 .LASF3597
C:\Users\SOLDER~1\AppData\Local\Temp\ccYCTqm0.s:33669  .debug_str:000000000002b89f .LASF3598
C:\Users\SOLDER~1\AppData\Local\Temp\ccYCTqm0.s:26103  .debug_str:000000000000d094 .LASF3599
C:\Users\SOLDER~1\AppData\Local\Temp\ccYCTqm0.s:22995  .debug_str:00000000000007bc .LASF3600
C:\Users\SOLDER~1\AppData\Local\Temp\ccYCTqm0.s:33367  .debug_str:000000000002a53f .LASF3601
C:\Users\SOLDER~1\AppData\Local\Temp\ccYCTqm0.s:29751  .debug_str:000000000001bb09 .LASF3602
C:\Users\SOLDER~1\AppData\Local\Temp\ccYCTqm0.s:27269  .debug_str:0000000000011b4d .LASF3603
C:\Users\SOLDER~1\AppData\Local\Temp\ccYCTqm0.s:30727  .debug_str:000000000001fa32 .LASF3604
C:\Users\SOLDER~1\AppData\Local\Temp\ccYCTqm0.s:32035  .debug_str:0000000000024e2c .LASF3605
C:\Users\SOLDER~1\AppData\Local\Temp\ccYCTqm0.s:29619  .debug_str:000000000001b347 .LASF3606
C:\Users\SOLDER~1\AppData\Local\Temp\ccYCTqm0.s:26013  .debug_str:000000000000caaa .LASF3607
C:\Users\SOLDER~1\AppData\Local\Temp\ccYCTqm0.s:29767  .debug_str:000000000001bbfc .LASF3608
C:\Users\SOLDER~1\AppData\Local\Temp\ccYCTqm0.s:33949  .debug_str:000000000002caba .LASF3609
C:\Users\SOLDER~1\AppData\Local\Temp\ccYCTqm0.s:26857  .debug_str:00000000000101c0 .LASF3610
C:\Users\SOLDER~1\AppData\Local\Temp\ccYCTqm0.s:33263  .debug_str:0000000000029e13 .LASF3611
C:\Users\SOLDER~1\AppData\Local\Temp\ccYCTqm0.s:23253  .debug_str:0000000000001892 .LASF3612
C:\Users\SOLDER~1\AppData\Local\Temp\ccYCTqm0.s:25071  .debug_str:0000000000008d80 .LASF3613
C:\Users\SOLDER~1\AppData\Local\Temp\ccYCTqm0.s:31845  .debug_str:00000000000241b1 .LASF3614
C:\Users\SOLDER~1\AppData\Local\Temp\ccYCTqm0.s:31223  .debug_str:00000000000219ea .LASF3615
C:\Users\SOLDER~1\AppData\Local\Temp\ccYCTqm0.s:31745  .debug_str:0000000000023b8e .LASF3616
C:\Users\SOLDER~1\AppData\Local\Temp\ccYCTqm0.s:33031  .debug_str:0000000000028f9a .LASF3617
C:\Users\SOLDER~1\AppData\Local\Temp\ccYCTqm0.s:32075  .debug_str:00000000000250cb .LASF3618
C:\Users\SOLDER~1\AppData\Local\Temp\ccYCTqm0.s:26205  .debug_str:000000000000d738 .LASF3619
C:\Users\SOLDER~1\AppData\Local\Temp\ccYCTqm0.s:28641  .debug_str:00000000000173e5 .LASF3620
C:\Users\SOLDER~1\AppData\Local\Temp\ccYCTqm0.s:33145  .debug_str:00000000000296ac .LASF3621
GAS LISTING C:\Users\SOLDER~1\AppData\Local\Temp\ccYCTqm0.s 			page 168


C:\Users\SOLDER~1\AppData\Local\Temp\ccYCTqm0.s:29795  .debug_str:000000000001bdb7 .LASF3622
C:\Users\SOLDER~1\AppData\Local\Temp\ccYCTqm0.s:29687  .debug_str:000000000001b754 .LASF3623
C:\Users\SOLDER~1\AppData\Local\Temp\ccYCTqm0.s:23881  .debug_str:00000000000040d9 .LASF3624
C:\Users\SOLDER~1\AppData\Local\Temp\ccYCTqm0.s:31861  .debug_str:00000000000242c7 .LASF3625
C:\Users\SOLDER~1\AppData\Local\Temp\ccYCTqm0.s:31231  .debug_str:0000000000021a70 .LASF3626
C:\Users\SOLDER~1\AppData\Local\Temp\ccYCTqm0.s:33617  .debug_str:000000000002b56e .LASF3627
C:\Users\SOLDER~1\AppData\Local\Temp\ccYCTqm0.s:27133  .debug_str:0000000000011295 .LASF3628
C:\Users\SOLDER~1\AppData\Local\Temp\ccYCTqm0.s:32917  .debug_str:0000000000028849 .LASF3629
C:\Users\SOLDER~1\AppData\Local\Temp\ccYCTqm0.s:27533  .debug_str:0000000000012bc7 .LASF3630
C:\Users\SOLDER~1\AppData\Local\Temp\ccYCTqm0.s:33223  .debug_str:0000000000029bc1 .LASF3631
C:\Users\SOLDER~1\AppData\Local\Temp\ccYCTqm0.s:31279  .debug_str:0000000000021d66 .LASF3632
C:\Users\SOLDER~1\AppData\Local\Temp\ccYCTqm0.s:28663  .debug_str:0000000000017563 .LASF3633
C:\Users\SOLDER~1\AppData\Local\Temp\ccYCTqm0.s:31505  .debug_str:0000000000022b98 .LASF3634
C:\Users\SOLDER~1\AppData\Local\Temp\ccYCTqm0.s:28793  .debug_str:0000000000017e25 .LASF3635
C:\Users\SOLDER~1\AppData\Local\Temp\ccYCTqm0.s:31557  .debug_str:0000000000022f28 .LASF3636
C:\Users\SOLDER~1\AppData\Local\Temp\ccYCTqm0.s:26779  .debug_str:000000000000fc1a .LASF3637
C:\Users\SOLDER~1\AppData\Local\Temp\ccYCTqm0.s:30893  .debug_str:00000000000204b4 .LASF3638
C:\Users\SOLDER~1\AppData\Local\Temp\ccYCTqm0.s:27283  .debug_str:0000000000011c51 .LASF3639
C:\Users\SOLDER~1\AppData\Local\Temp\ccYCTqm0.s:33251  .debug_str:0000000000029d5e .LASF3640
C:\Users\SOLDER~1\AppData\Local\Temp\ccYCTqm0.s:31571  .debug_str:0000000000023027 .LASF3641
C:\Users\SOLDER~1\AppData\Local\Temp\ccYCTqm0.s:26315  .debug_str:000000000000de48 .LASF3642
C:\Users\SOLDER~1\AppData\Local\Temp\ccYCTqm0.s:33283  .debug_str:0000000000029f6c .LASF3643
C:\Users\SOLDER~1\AppData\Local\Temp\ccYCTqm0.s:32095  .debug_str:0000000000025215 .LASF3644
C:\Users\SOLDER~1\AppData\Local\Temp\ccYCTqm0.s:33457  .debug_str:000000000002ab33 .LASF3645
C:\Users\SOLDER~1\AppData\Local\Temp\ccYCTqm0.s:33957  .debug_str:000000000002cb4d .LASF3646
C:\Users\SOLDER~1\AppData\Local\Temp\ccYCTqm0.s:24549  .debug_str:0000000000006c31 .LASF3647
C:\Users\SOLDER~1\AppData\Local\Temp\ccYCTqm0.s:22939  .debug_str:0000000000000393 .LASF3648
C:\Users\SOLDER~1\AppData\Local\Temp\ccYCTqm0.s:30637  .debug_str:000000000001f3e8 .LASF3649
C:\Users\SOLDER~1\AppData\Local\Temp\ccYCTqm0.s:25239  .debug_str:00000000000098da .LASF3650
C:\Users\SOLDER~1\AppData\Local\Temp\ccYCTqm0.s:28323  .debug_str:000000000001600d .LASF3651
C:\Users\SOLDER~1\AppData\Local\Temp\ccYCTqm0.s:23069  .debug_str:0000000000000d10 .LASF3652
C:\Users\SOLDER~1\AppData\Local\Temp\ccYCTqm0.s:34123  .debug_str:000000000002d61f .LASF3653
C:\Users\SOLDER~1\AppData\Local\Temp\ccYCTqm0.s:29193  .debug_str:00000000000197d7 .LASF3654
C:\Users\SOLDER~1\AppData\Local\Temp\ccYCTqm0.s:34235  .debug_str:000000000002dd42 .LASF3655
C:\Users\SOLDER~1\AppData\Local\Temp\ccYCTqm0.s:32665  .debug_str:00000000000277c2 .LASF3656
C:\Users\SOLDER~1\AppData\Local\Temp\ccYCTqm0.s:25297  .debug_str:0000000000009c90 .LASF3657
C:\Users\SOLDER~1\AppData\Local\Temp\ccYCTqm0.s:28355  .debug_str:000000000001621f .LASF3658
C:\Users\SOLDER~1\AppData\Local\Temp\ccYCTqm0.s:34009  .debug_str:000000000002ce5b .LASF3659
C:\Users\SOLDER~1\AppData\Local\Temp\ccYCTqm0.s:24457  .debug_str:00000000000065c4 .LASF3660
C:\Users\SOLDER~1\AppData\Local\Temp\ccYCTqm0.s:29691  .debug_str:000000000001b79b .LASF3661
C:\Users\SOLDER~1\AppData\Local\Temp\ccYCTqm0.s:24395  .debug_str:0000000000006172 .LASF3662
C:\Users\SOLDER~1\AppData\Local\Temp\ccYCTqm0.s:24059  .debug_str:0000000000004bf9 .LASF3663
C:\Users\SOLDER~1\AppData\Local\Temp\ccYCTqm0.s:24093  .debug_str:0000000000004e4f .LASF3664
C:\Users\SOLDER~1\AppData\Local\Temp\ccYCTqm0.s:23629  .debug_str:00000000000030e3 .LASF3665
C:\Users\SOLDER~1\AppData\Local\Temp\ccYCTqm0.s:32527  .debug_str:0000000000026ec0 .LASF3666
C:\Users\SOLDER~1\AppData\Local\Temp\ccYCTqm0.s:27717  .debug_str:00000000000137ec .LASF3667
C:\Users\SOLDER~1\AppData\Local\Temp\ccYCTqm0.s:28941  .debug_str:00000000000187e8 .LASF3668
C:\Users\SOLDER~1\AppData\Local\Temp\ccYCTqm0.s:26545  .debug_str:000000000000ed94 .LASF3669
C:\Users\SOLDER~1\AppData\Local\Temp\ccYCTqm0.s:26815  .debug_str:000000000000feab .LASF3670
C:\Users\SOLDER~1\AppData\Local\Temp\ccYCTqm0.s:31413  .debug_str:00000000000225a3 .LASF3671
C:\Users\SOLDER~1\AppData\Local\Temp\ccYCTqm0.s:32507  .debug_str:0000000000026d57 .LASF3672
C:\Users\SOLDER~1\AppData\Local\Temp\ccYCTqm0.s:29417  .debug_str:000000000001a602 .LASF3673
C:\Users\SOLDER~1\AppData\Local\Temp\ccYCTqm0.s:29437  .debug_str:000000000001a73e .LASF3674
C:\Users\SOLDER~1\AppData\Local\Temp\ccYCTqm0.s:25419  .debug_str:000000000000a47e .LASF3675
C:\Users\SOLDER~1\AppData\Local\Temp\ccYCTqm0.s:27169  .debug_str:00000000000114d4 .LASF3676
C:\Users\SOLDER~1\AppData\Local\Temp\ccYCTqm0.s:31529  .debug_str:0000000000022d42 .LASF3677
C:\Users\SOLDER~1\AppData\Local\Temp\ccYCTqm0.s:29451  .debug_str:000000000001a849 .LASF3678
GAS LISTING C:\Users\SOLDER~1\AppData\Local\Temp\ccYCTqm0.s 			page 169


C:\Users\SOLDER~1\AppData\Local\Temp\ccYCTqm0.s:31763  .debug_str:0000000000023cad .LASF3679
C:\Users\SOLDER~1\AppData\Local\Temp\ccYCTqm0.s:33139  .debug_str:0000000000029643 .LASF3680
C:\Users\SOLDER~1\AppData\Local\Temp\ccYCTqm0.s:33941  .debug_str:000000000002ca49 .LASF3681
C:\Users\SOLDER~1\AppData\Local\Temp\ccYCTqm0.s:28549  .debug_str:0000000000016e31 .LASF3682
C:\Users\SOLDER~1\AppData\Local\Temp\ccYCTqm0.s:33619  .debug_str:000000000002b58f .LASF3683
C:\Users\SOLDER~1\AppData\Local\Temp\ccYCTqm0.s:27295  .debug_str:0000000000011d19 .LASF3684
C:\Users\SOLDER~1\AppData\Local\Temp\ccYCTqm0.s:30831  .debug_str:00000000000200d8 .LASF3685
C:\Users\SOLDER~1\AppData\Local\Temp\ccYCTqm0.s:27101  .debug_str:000000000001107c .LASF3686
C:\Users\SOLDER~1\AppData\Local\Temp\ccYCTqm0.s:34519  .debug_str:000000000002ef65 .LASF3687
C:\Users\SOLDER~1\AppData\Local\Temp\ccYCTqm0.s:31221  .debug_str:00000000000219c3 .LASF3688
C:\Users\SOLDER~1\AppData\Local\Temp\ccYCTqm0.s:25079  .debug_str:0000000000008e03 .LASF3689
C:\Users\SOLDER~1\AppData\Local\Temp\ccYCTqm0.s:31211  .debug_str:000000000002191e .LASF3690
C:\Users\SOLDER~1\AppData\Local\Temp\ccYCTqm0.s:28137  .debug_str:0000000000015450 .LASF3691
C:\Users\SOLDER~1\AppData\Local\Temp\ccYCTqm0.s:24327  .debug_str:0000000000005d1f .LASF3692
C:\Users\SOLDER~1\AppData\Local\Temp\ccYCTqm0.s:25993  .debug_str:000000000000c950 .LASF3693
C:\Users\SOLDER~1\AppData\Local\Temp\ccYCTqm0.s:31101  .debug_str:00000000000211ec .LASF3694
C:\Users\SOLDER~1\AppData\Local\Temp\ccYCTqm0.s:28045  .debug_str:0000000000014e55 .LASF3695
C:\Users\SOLDER~1\AppData\Local\Temp\ccYCTqm0.s:25275  .debug_str:0000000000009b0f .LASF3696
C:\Users\SOLDER~1\AppData\Local\Temp\ccYCTqm0.s:25871  .debug_str:000000000000c109 .LASF3697
C:\Users\SOLDER~1\AppData\Local\Temp\ccYCTqm0.s:29473  .debug_str:000000000001a992 .LASF3698
C:\Users\SOLDER~1\AppData\Local\Temp\ccYCTqm0.s:26797  .debug_str:000000000000fd87 .LASF3699
C:\Users\SOLDER~1\AppData\Local\Temp\ccYCTqm0.s:30403  .debug_str:000000000001e4b4 .LASF3700
C:\Users\SOLDER~1\AppData\Local\Temp\ccYCTqm0.s:23369  .debug_str:000000000000200d .LASF3701
C:\Users\SOLDER~1\AppData\Local\Temp\ccYCTqm0.s:27043  .debug_str:0000000000010d0a .LASF3702
C:\Users\SOLDER~1\AppData\Local\Temp\ccYCTqm0.s:26491  .debug_str:000000000000e9f3 .LASF3703
C:\Users\SOLDER~1\AppData\Local\Temp\ccYCTqm0.s:23727  .debug_str:0000000000003718 .LASF3704
C:\Users\SOLDER~1\AppData\Local\Temp\ccYCTqm0.s:32661  .debug_str:0000000000027775 .LASF3705
C:\Users\SOLDER~1\AppData\Local\Temp\ccYCTqm0.s:31979  .debug_str:0000000000024a72 .LASF3706
C:\Users\SOLDER~1\AppData\Local\Temp\ccYCTqm0.s:26159  .debug_str:000000000000d453 .LASF3707
C:\Users\SOLDER~1\AppData\Local\Temp\ccYCTqm0.s:23453  .debug_str:00000000000025ab .LASF3708
C:\Users\SOLDER~1\AppData\Local\Temp\ccYCTqm0.s:32227  .debug_str:0000000000025a56 .LASF3709
C:\Users\SOLDER~1\AppData\Local\Temp\ccYCTqm0.s:23657  .debug_str:000000000000329f .LASF3710
C:\Users\SOLDER~1\AppData\Local\Temp\ccYCTqm0.s:23387  .debug_str:0000000000002134 .LASF3711
C:\Users\SOLDER~1\AppData\Local\Temp\ccYCTqm0.s:32321  .debug_str:00000000000260d5 .LASF3712
C:\Users\SOLDER~1\AppData\Local\Temp\ccYCTqm0.s:32707  .debug_str:0000000000027a7a .LASF3713
C:\Users\SOLDER~1\AppData\Local\Temp\ccYCTqm0.s:33183  .debug_str:000000000002995c .LASF3714
C:\Users\SOLDER~1\AppData\Local\Temp\ccYCTqm0.s:24069  .debug_str:0000000000004ca6 .LASF3715
C:\Users\SOLDER~1\AppData\Local\Temp\ccYCTqm0.s:33195  .debug_str:0000000000029a29 .LASF3716
C:\Users\SOLDER~1\AppData\Local\Temp\ccYCTqm0.s:29209  .debug_str:0000000000019908 .LASF3717
C:\Users\SOLDER~1\AppData\Local\Temp\ccYCTqm0.s:25903  .debug_str:000000000000c30b .LASF3718
C:\Users\SOLDER~1\AppData\Local\Temp\ccYCTqm0.s:32591  .debug_str:00000000000272d0 .LASF3719
C:\Users\SOLDER~1\AppData\Local\Temp\ccYCTqm0.s:26217  .debug_str:000000000000d811 .LASF3720
C:\Users\SOLDER~1\AppData\Local\Temp\ccYCTqm0.s:34409  .debug_str:000000000002e810 .LASF3721
C:\Users\SOLDER~1\AppData\Local\Temp\ccYCTqm0.s:33647  .debug_str:000000000002b73e .LASF3722
C:\Users\SOLDER~1\AppData\Local\Temp\ccYCTqm0.s:32057  .debug_str:0000000000024fad .LASF3723
C:\Users\SOLDER~1\AppData\Local\Temp\ccYCTqm0.s:34131  .debug_str:000000000002d6a2 .LASF3724
C:\Users\SOLDER~1\AppData\Local\Temp\ccYCTqm0.s:24311  .debug_str:0000000000005c08 .LASF3725
C:\Users\SOLDER~1\AppData\Local\Temp\ccYCTqm0.s:27959  .debug_str:000000000001488f .LASF3726
C:\Users\SOLDER~1\AppData\Local\Temp\ccYCTqm0.s:33381  .debug_str:000000000002a637 .LASF3727
C:\Users\SOLDER~1\AppData\Local\Temp\ccYCTqm0.s:25571  .debug_str:000000000000ae7d .LASF3728
C:\Users\SOLDER~1\AppData\Local\Temp\ccYCTqm0.s:28257  .debug_str:0000000000015be4 .LASF3729
C:\Users\SOLDER~1\AppData\Local\Temp\ccYCTqm0.s:29063  .debug_str:0000000000018f9f .LASF3730
C:\Users\SOLDER~1\AppData\Local\Temp\ccYCTqm0.s:24849  .debug_str:0000000000007f10 .LASF3731
C:\Users\SOLDER~1\AppData\Local\Temp\ccYCTqm0.s:29595  .debug_str:000000000001b1a5 .LASF3732
C:\Users\SOLDER~1\AppData\Local\Temp\ccYCTqm0.s:25873  .debug_str:000000000000c12e .LASF3733
C:\Users\SOLDER~1\AppData\Local\Temp\ccYCTqm0.s:29369  .debug_str:000000000001a2f0 .LASF3734
C:\Users\SOLDER~1\AppData\Local\Temp\ccYCTqm0.s:25797  .debug_str:000000000000bc4b .LASF3735
GAS LISTING C:\Users\SOLDER~1\AppData\Local\Temp\ccYCTqm0.s 			page 170


C:\Users\SOLDER~1\AppData\Local\Temp\ccYCTqm0.s:24317  .debug_str:0000000000005c67 .LASF3736
C:\Users\SOLDER~1\AppData\Local\Temp\ccYCTqm0.s:26865  .debug_str:000000000001023f .LASF3737
C:\Users\SOLDER~1\AppData\Local\Temp\ccYCTqm0.s:24627  .debug_str:00000000000070f3 .LASF3738
C:\Users\SOLDER~1\AppData\Local\Temp\ccYCTqm0.s:23711  .debug_str:0000000000003638 .LASF3739
C:\Users\SOLDER~1\AppData\Local\Temp\ccYCTqm0.s:30707  .debug_str:000000000001f8ca .LASF3740
C:\Users\SOLDER~1\AppData\Local\Temp\ccYCTqm0.s:30803  .debug_str:000000000001ff1e .LASF3741
C:\Users\SOLDER~1\AppData\Local\Temp\ccYCTqm0.s:26319  .debug_str:000000000000de82 .LASF3742
C:\Users\SOLDER~1\AppData\Local\Temp\ccYCTqm0.s:34357  .debug_str:000000000002e4dd .LASF3743
C:\Users\SOLDER~1\AppData\Local\Temp\ccYCTqm0.s:24309  .debug_str:0000000000005be4 .LASF3744
C:\Users\SOLDER~1\AppData\Local\Temp\ccYCTqm0.s:33315  .debug_str:000000000002a1c8 .LASF3745
C:\Users\SOLDER~1\AppData\Local\Temp\ccYCTqm0.s:26367  .debug_str:000000000000e1ae .LASF3746
C:\Users\SOLDER~1\AppData\Local\Temp\ccYCTqm0.s:31535  .debug_str:0000000000022da1 .LASF3747
C:\Users\SOLDER~1\AppData\Local\Temp\ccYCTqm0.s:27661  .debug_str:0000000000013415 .LASF3748
C:\Users\SOLDER~1\AppData\Local\Temp\ccYCTqm0.s:26123  .debug_str:000000000000d1ee .LASF3749
C:\Users\SOLDER~1\AppData\Local\Temp\ccYCTqm0.s:33469  .debug_str:000000000002abd6 .LASF3750
C:\Users\SOLDER~1\AppData\Local\Temp\ccYCTqm0.s:29777  .debug_str:000000000001bc8a .LASF3751
C:\Users\SOLDER~1\AppData\Local\Temp\ccYCTqm0.s:26885  .debug_str:0000000000010390 .LASF3752
C:\Users\SOLDER~1\AppData\Local\Temp\ccYCTqm0.s:30387  .debug_str:000000000001e3c6 .LASF3753
C:\Users\SOLDER~1\AppData\Local\Temp\ccYCTqm0.s:26849  .debug_str:0000000000010130 .LASF3754
C:\Users\SOLDER~1\AppData\Local\Temp\ccYCTqm0.s:29379  .debug_str:000000000001a3a2 .LASF3755
C:\Users\SOLDER~1\AppData\Local\Temp\ccYCTqm0.s:29617  .debug_str:000000000001b324 .LASF3756
C:\Users\SOLDER~1\AppData\Local\Temp\ccYCTqm0.s:27435  .debug_str:00000000000125ce .LASF3757
C:\Users\SOLDER~1\AppData\Local\Temp\ccYCTqm0.s:28945  .debug_str:0000000000018836 .LASF3758
C:\Users\SOLDER~1\AppData\Local\Temp\ccYCTqm0.s:23477  .debug_str:0000000000002707 .LASF3759
C:\Users\SOLDER~1\AppData\Local\Temp\ccYCTqm0.s:24215  .debug_str:00000000000055ab .LASF3760
C:\Users\SOLDER~1\AppData\Local\Temp\ccYCTqm0.s:33925  .debug_str:000000000002c943 .LASF3761
C:\Users\SOLDER~1\AppData\Local\Temp\ccYCTqm0.s:34155  .debug_str:000000000002d827 .LASF3762
C:\Users\SOLDER~1\AppData\Local\Temp\ccYCTqm0.s:23169  .debug_str:0000000000001341 .LASF3763
C:\Users\SOLDER~1\AppData\Local\Temp\ccYCTqm0.s:31987  .debug_str:0000000000024aff .LASF3764
C:\Users\SOLDER~1\AppData\Local\Temp\ccYCTqm0.s:27149  .debug_str:0000000000011390 .LASF3765
C:\Users\SOLDER~1\AppData\Local\Temp\ccYCTqm0.s:31981  .debug_str:0000000000024a96 .LASF3766
C:\Users\SOLDER~1\AppData\Local\Temp\ccYCTqm0.s:25663  .debug_str:000000000000b435 .LASF3767
C:\Users\SOLDER~1\AppData\Local\Temp\ccYCTqm0.s:31277  .debug_str:0000000000021d43 .LASF3768
C:\Users\SOLDER~1\AppData\Local\Temp\ccYCTqm0.s:23457  .debug_str:00000000000025fd .LASF3769
C:\Users\SOLDER~1\AppData\Local\Temp\ccYCTqm0.s:32779  .debug_str:0000000000027f1b .LASF3770
C:\Users\SOLDER~1\AppData\Local\Temp\ccYCTqm0.s:23117  .debug_str:0000000000000ffe .LASF3771
C:\Users\SOLDER~1\AppData\Local\Temp\ccYCTqm0.s:31841  .debug_str:000000000002416d .LASF3772
C:\Users\SOLDER~1\AppData\Local\Temp\ccYCTqm0.s:27781  .debug_str:0000000000013c72 .LASF3773
C:\Users\SOLDER~1\AppData\Local\Temp\ccYCTqm0.s:33191  .debug_str:00000000000299d9 .LASF3774
C:\Users\SOLDER~1\AppData\Local\Temp\ccYCTqm0.s:30611  .debug_str:000000000001f234 .LASF3775
C:\Users\SOLDER~1\AppData\Local\Temp\ccYCTqm0.s:26197  .debug_str:000000000000d6ac .LASF3776
C:\Users\SOLDER~1\AppData\Local\Temp\ccYCTqm0.s:24745  .debug_str:00000000000078b6 .LASF3777
C:\Users\SOLDER~1\AppData\Local\Temp\ccYCTqm0.s:32493  .debug_str:0000000000026c80 .LASF3778
C:\Users\SOLDER~1\AppData\Local\Temp\ccYCTqm0.s:30797  .debug_str:000000000001fec4 .LASF3779
C:\Users\SOLDER~1\AppData\Local\Temp\ccYCTqm0.s:31053  .debug_str:0000000000020f00 .LASF3780
C:\Users\SOLDER~1\AppData\Local\Temp\ccYCTqm0.s:31949  .debug_str:0000000000024872 .LASF3781
C:\Users\SOLDER~1\AppData\Local\Temp\ccYCTqm0.s:23907  .debug_str:0000000000004285 .LASF3782
C:\Users\SOLDER~1\AppData\Local\Temp\ccYCTqm0.s:28067  .debug_str:0000000000014ff9 .LASF3783
C:\Users\SOLDER~1\AppData\Local\Temp\ccYCTqm0.s:26659  .debug_str:000000000000f473 .LASF3784
C:\Users\SOLDER~1\AppData\Local\Temp\ccYCTqm0.s:24595  .debug_str:0000000000006ed7 .LASF3785
C:\Users\SOLDER~1\AppData\Local\Temp\ccYCTqm0.s:28877  .debug_str:00000000000183ce .LASF3786
C:\Users\SOLDER~1\AppData\Local\Temp\ccYCTqm0.s:34135  .debug_str:000000000002d6eb .LASF3787
C:\Users\SOLDER~1\AppData\Local\Temp\ccYCTqm0.s:31953  .debug_str:00000000000248af .LASF3788
C:\Users\SOLDER~1\AppData\Local\Temp\ccYCTqm0.s:24367  .debug_str:0000000000005fc9 .LASF3789
C:\Users\SOLDER~1\AppData\Local\Temp\ccYCTqm0.s:25523  .debug_str:000000000000ab6a .LASF3790
C:\Users\SOLDER~1\AppData\Local\Temp\ccYCTqm0.s:33015  .debug_str:0000000000028ebe .LASF3791
C:\Users\SOLDER~1\AppData\Local\Temp\ccYCTqm0.s:32615  .debug_str:0000000000027461 .LASF3792
GAS LISTING C:\Users\SOLDER~1\AppData\Local\Temp\ccYCTqm0.s 			page 171


C:\Users\SOLDER~1\AppData\Local\Temp\ccYCTqm0.s:30219  .debug_str:000000000001d957 .LASF3793
C:\Users\SOLDER~1\AppData\Local\Temp\ccYCTqm0.s:34035  .debug_str:000000000002d003 .LASF3794
C:\Users\SOLDER~1\AppData\Local\Temp\ccYCTqm0.s:26981  .debug_str:0000000000010945 .LASF3795
C:\Users\SOLDER~1\AppData\Local\Temp\ccYCTqm0.s:25409  .debug_str:000000000000a3be .LASF3796
C:\Users\SOLDER~1\AppData\Local\Temp\ccYCTqm0.s:26887  .debug_str:00000000000103b4 .LASF3797
C:\Users\SOLDER~1\AppData\Local\Temp\ccYCTqm0.s:32803  .debug_str:00000000000280b8 .LASF3798
C:\Users\SOLDER~1\AppData\Local\Temp\ccYCTqm0.s:33415  .debug_str:000000000002a888 .LASF3799
C:\Users\SOLDER~1\AppData\Local\Temp\ccYCTqm0.s:29845  .debug_str:000000000001c0f7 .LASF3800
C:\Users\SOLDER~1\AppData\Local\Temp\ccYCTqm0.s:31099  .debug_str:00000000000211d7 .LASF3801
C:\Users\SOLDER~1\AppData\Local\Temp\ccYCTqm0.s:28749  .debug_str:0000000000017b6d .LASF3802
C:\Users\SOLDER~1\AppData\Local\Temp\ccYCTqm0.s:33131  .debug_str:00000000000295d1 .LASF3803
C:\Users\SOLDER~1\AppData\Local\Temp\ccYCTqm0.s:30859  .debug_str:0000000000020295 .LASF3804
C:\Users\SOLDER~1\AppData\Local\Temp\ccYCTqm0.s:29969  .debug_str:000000000001c8eb .LASF3805
C:\Users\SOLDER~1\AppData\Local\Temp\ccYCTqm0.s:34337  .debug_str:000000000002e3b0 .LASF3806
C:\Users\SOLDER~1\AppData\Local\Temp\ccYCTqm0.s:33767  .debug_str:000000000002bef4 .LASF3807
C:\Users\SOLDER~1\AppData\Local\Temp\ccYCTqm0.s:23031  .debug_str:0000000000000a68 .LASF3808
C:\Users\SOLDER~1\AppData\Local\Temp\ccYCTqm0.s:28199  .debug_str:0000000000015869 .LASF3809
C:\Users\SOLDER~1\AppData\Local\Temp\ccYCTqm0.s:28511  .debug_str:0000000000016bae .LASF3810
C:\Users\SOLDER~1\AppData\Local\Temp\ccYCTqm0.s:30821  .debug_str:0000000000020046 .LASF3811
C:\Users\SOLDER~1\AppData\Local\Temp\ccYCTqm0.s:28319  .debug_str:0000000000015fcc .LASF3812
C:\Users\SOLDER~1\AppData\Local\Temp\ccYCTqm0.s:25009  .debug_str:000000000000898c .LASF3813
C:\Users\SOLDER~1\AppData\Local\Temp\ccYCTqm0.s:23935  .debug_str:0000000000004449 .LASF3814
C:\Users\SOLDER~1\AppData\Local\Temp\ccYCTqm0.s:25191  .debug_str:000000000000958f .LASF3815
C:\Users\SOLDER~1\AppData\Local\Temp\ccYCTqm0.s:28297  .debug_str:0000000000015e78 .LASF3816
C:\Users\SOLDER~1\AppData\Local\Temp\ccYCTqm0.s:25025  .debug_str:0000000000008a8f .LASF3817
C:\Users\SOLDER~1\AppData\Local\Temp\ccYCTqm0.s:26257  .debug_str:000000000000da9e .LASF3818
C:\Users\SOLDER~1\AppData\Local\Temp\ccYCTqm0.s:24117  .debug_str:0000000000004fae .LASF3819
C:\Users\SOLDER~1\AppData\Local\Temp\ccYCTqm0.s:32023  .debug_str:0000000000024d54 .LASF3820
C:\Users\SOLDER~1\AppData\Local\Temp\ccYCTqm0.s:27517  .debug_str:0000000000012ad3 .LASF3821
C:\Users\SOLDER~1\AppData\Local\Temp\ccYCTqm0.s:26861  .debug_str:00000000000101f8 .LASF3822
C:\Users\SOLDER~1\AppData\Local\Temp\ccYCTqm0.s:30113  .debug_str:000000000001d2ab .LASF3823
C:\Users\SOLDER~1\AppData\Local\Temp\ccYCTqm0.s:33351  .debug_str:000000000002a417 .LASF3824
C:\Users\SOLDER~1\AppData\Local\Temp\ccYCTqm0.s:25161  .debug_str:0000000000009384 .LASF3825
C:\Users\SOLDER~1\AppData\Local\Temp\ccYCTqm0.s:31281  .debug_str:0000000000021d76 .LASF3826
C:\Users\SOLDER~1\AppData\Local\Temp\ccYCTqm0.s:25393  .debug_str:000000000000a2c5 .LASF3827
C:\Users\SOLDER~1\AppData\Local\Temp\ccYCTqm0.s:24791  .debug_str:0000000000007b32 .LASF3828
C:\Users\SOLDER~1\AppData\Local\Temp\ccYCTqm0.s:26019  .debug_str:000000000000cb07 .LASF3829
C:\Users\SOLDER~1\AppData\Local\Temp\ccYCTqm0.s:26005  .debug_str:000000000000ca13 .LASF3830
C:\Users\SOLDER~1\AppData\Local\Temp\ccYCTqm0.s:23617  .debug_str:0000000000002fed .LASF3831
C:\Users\SOLDER~1\AppData\Local\Temp\ccYCTqm0.s:25803  .debug_str:000000000000bca9 .LASF3832
C:\Users\SOLDER~1\AppData\Local\Temp\ccYCTqm0.s:31767  .debug_str:0000000000023cf1 .LASF3833
C:\Users\SOLDER~1\AppData\Local\Temp\ccYCTqm0.s:29875  .debug_str:000000000001c313 .LASF3834
C:\Users\SOLDER~1\AppData\Local\Temp\ccYCTqm0.s:26353  .debug_str:000000000000e0c9 .LASF3835
C:\Users\SOLDER~1\AppData\Local\Temp\ccYCTqm0.s:33633  .debug_str:000000000002b69a .LASF3836
C:\Users\SOLDER~1\AppData\Local\Temp\ccYCTqm0.s:31683  .debug_str:0000000000023769 .LASF3837
C:\Users\SOLDER~1\AppData\Local\Temp\ccYCTqm0.s:23997  .debug_str:0000000000004825 .LASF3838
C:\Users\SOLDER~1\AppData\Local\Temp\ccYCTqm0.s:31945  .debug_str:000000000002482b .LASF3839
C:\Users\SOLDER~1\AppData\Local\Temp\ccYCTqm0.s:31475  .debug_str:0000000000022996 .LASF3840
C:\Users\SOLDER~1\AppData\Local\Temp\ccYCTqm0.s:23953  .debug_str:0000000000004541 .LASF3841
C:\Users\SOLDER~1\AppData\Local\Temp\ccYCTqm0.s:26073  .debug_str:000000000000ce78 .LASF3842
C:\Users\SOLDER~1\AppData\Local\Temp\ccYCTqm0.s:33197  .debug_str:0000000000029a4e .LASF3843
C:\Users\SOLDER~1\AppData\Local\Temp\ccYCTqm0.s:25505  .debug_str:000000000000aa4c .LASF3844
C:\Users\SOLDER~1\AppData\Local\Temp\ccYCTqm0.s:31511  .debug_str:0000000000022bfa .LASF3845
C:\Users\SOLDER~1\AppData\Local\Temp\ccYCTqm0.s:30103  .debug_str:000000000001d21e .LASF3846
C:\Users\SOLDER~1\AppData\Local\Temp\ccYCTqm0.s:31823  .debug_str:0000000000024070 .LASF3847
C:\Users\SOLDER~1\AppData\Local\Temp\ccYCTqm0.s:27069  .debug_str:0000000000010ec0 .LASF3848
C:\Users\SOLDER~1\AppData\Local\Temp\ccYCTqm0.s:28455  .debug_str:00000000000168b3 .LASF3849
GAS LISTING C:\Users\SOLDER~1\AppData\Local\Temp\ccYCTqm0.s 			page 172


C:\Users\SOLDER~1\AppData\Local\Temp\ccYCTqm0.s:24383  .debug_str:00000000000060b2 .LASF3850
C:\Users\SOLDER~1\AppData\Local\Temp\ccYCTqm0.s:25913  .debug_str:000000000000c3d0 .LASF3851
C:\Users\SOLDER~1\AppData\Local\Temp\ccYCTqm0.s:25761  .debug_str:000000000000ba58 .LASF3852
C:\Users\SOLDER~1\AppData\Local\Temp\ccYCTqm0.s:25689  .debug_str:000000000000b5c0 .LASF3853
C:\Users\SOLDER~1\AppData\Local\Temp\ccYCTqm0.s:23627  .debug_str:00000000000030cd .LASF3854
C:\Users\SOLDER~1\AppData\Local\Temp\ccYCTqm0.s:29199  .debug_str:0000000000019846 .LASF3855
C:\Users\SOLDER~1\AppData\Local\Temp\ccYCTqm0.s:26349  .debug_str:000000000000e08e .LASF3856
C:\Users\SOLDER~1\AppData\Local\Temp\ccYCTqm0.s:34107  .debug_str:000000000002d4f8 .LASF3857
C:\Users\SOLDER~1\AppData\Local\Temp\ccYCTqm0.s:33805  .debug_str:000000000002c14e .LASF3858
C:\Users\SOLDER~1\AppData\Local\Temp\ccYCTqm0.s:32199  .debug_str:00000000000258a1 .LASF3859
C:\Users\SOLDER~1\AppData\Local\Temp\ccYCTqm0.s:30455  .debug_str:000000000001e7f7 .LASF3860
C:\Users\SOLDER~1\AppData\Local\Temp\ccYCTqm0.s:23063  .debug_str:0000000000000ca4 .LASF3861
C:\Users\SOLDER~1\AppData\Local\Temp\ccYCTqm0.s:33255  .debug_str:0000000000029db0 .LASF3862
C:\Users\SOLDER~1\AppData\Local\Temp\ccYCTqm0.s:23797  .debug_str:0000000000003b7e .LASF3863
C:\Users\SOLDER~1\AppData\Local\Temp\ccYCTqm0.s:34179  .debug_str:000000000002d99c .LASF3864
C:\Users\SOLDER~1\AppData\Local\Temp\ccYCTqm0.s:26511  .debug_str:000000000000eb39 .LASF3865
C:\Users\SOLDER~1\AppData\Local\Temp\ccYCTqm0.s:25657  .debug_str:000000000000b3d6 .LASF3866
C:\Users\SOLDER~1\AppData\Local\Temp\ccYCTqm0.s:28015  .debug_str:0000000000014c47 .LASF3867
C:\Users\SOLDER~1\AppData\Local\Temp\ccYCTqm0.s:28935  .debug_str:0000000000018795 .LASF3868
C:\Users\SOLDER~1\AppData\Local\Temp\ccYCTqm0.s:29991  .debug_str:000000000001ca8a .LASF3869
C:\Users\SOLDER~1\AppData\Local\Temp\ccYCTqm0.s:26501  .debug_str:000000000000ea9f .LASF3870
C:\Users\SOLDER~1\AppData\Local\Temp\ccYCTqm0.s:25677  .debug_str:000000000000b4f5 .LASF3871
C:\Users\SOLDER~1\AppData\Local\Temp\ccYCTqm0.s:34281  .debug_str:000000000002e000 .LASF3872
C:\Users\SOLDER~1\AppData\Local\Temp\ccYCTqm0.s:29035  .debug_str:0000000000018db2 .LASF3873
C:\Users\SOLDER~1\AppData\Local\Temp\ccYCTqm0.s:23887  .debug_str:000000000000412f .LASF3874
C:\Users\SOLDER~1\AppData\Local\Temp\ccYCTqm0.s:33087  .debug_str:00000000000292f3 .LASF3875
C:\Users\SOLDER~1\AppData\Local\Temp\ccYCTqm0.s:24839  .debug_str:0000000000007e59 .LASF3876
C:\Users\SOLDER~1\AppData\Local\Temp\ccYCTqm0.s:23885  .debug_str:000000000000410b .LASF3877
C:\Users\SOLDER~1\AppData\Local\Temp\ccYCTqm0.s:29157  .debug_str:0000000000019597 .LASF3878
C:\Users\SOLDER~1\AppData\Local\Temp\ccYCTqm0.s:25925  .debug_str:000000000000c4a2 .LASF3879
C:\Users\SOLDER~1\AppData\Local\Temp\ccYCTqm0.s:26007  .debug_str:000000000000ca35 .LASF3880
C:\Users\SOLDER~1\AppData\Local\Temp\ccYCTqm0.s:32031  .debug_str:0000000000024dce .LASF3881
C:\Users\SOLDER~1\AppData\Local\Temp\ccYCTqm0.s:26769  .debug_str:000000000000fb79 .LASF3882
C:\Users\SOLDER~1\AppData\Local\Temp\ccYCTqm0.s:22907  .debug_str:0000000000000196 .LASF3883
C:\Users\SOLDER~1\AppData\Local\Temp\ccYCTqm0.s:33709  .debug_str:000000000002bb67 .LASF3884
C:\Users\SOLDER~1\AppData\Local\Temp\ccYCTqm0.s:33119  .debug_str:00000000000294ee .LASF3885
C:\Users\SOLDER~1\AppData\Local\Temp\ccYCTqm0.s:26385  .debug_str:000000000000e2e0 .LASF3886
C:\Users\SOLDER~1\AppData\Local\Temp\ccYCTqm0.s:31013  .debug_str:0000000000020c54 .LASF3887
C:\Users\SOLDER~1\AppData\Local\Temp\ccYCTqm0.s:23041  .debug_str:0000000000000b0f .LASF3888
C:\Users\SOLDER~1\AppData\Local\Temp\ccYCTqm0.s:34367  .debug_str:000000000002e572 .LASF3889
C:\Users\SOLDER~1\AppData\Local\Temp\ccYCTqm0.s:25645  .debug_str:000000000000b301 .LASF3890
C:\Users\SOLDER~1\AppData\Local\Temp\ccYCTqm0.s:26933  .debug_str:000000000001064b .LASF3891
C:\Users\SOLDER~1\AppData\Local\Temp\ccYCTqm0.s:33859  .debug_str:000000000002c521 .LASF3892
C:\Users\SOLDER~1\AppData\Local\Temp\ccYCTqm0.s:24973  .debug_str:000000000000874c .LASF3893
C:\Users\SOLDER~1\AppData\Local\Temp\ccYCTqm0.s:32543  .debug_str:0000000000026fd2 .LASF3894
C:\Users\SOLDER~1\AppData\Local\Temp\ccYCTqm0.s:29121  .debug_str:0000000000019378 .LASF3895
C:\Users\SOLDER~1\AppData\Local\Temp\ccYCTqm0.s:31103  .debug_str:000000000002120f .LASF3896
C:\Users\SOLDER~1\AppData\Local\Temp\ccYCTqm0.s:25309  .debug_str:0000000000009d56 .LASF3897
C:\Users\SOLDER~1\AppData\Local\Temp\ccYCTqm0.s:32829  .debug_str:0000000000028299 .LASF3898
C:\Users\SOLDER~1\AppData\Local\Temp\ccYCTqm0.s:23319  .debug_str:0000000000001cb9 .LASF3899
C:\Users\SOLDER~1\AppData\Local\Temp\ccYCTqm0.s:28719  .debug_str:000000000001795c .LASF3900
C:\Users\SOLDER~1\AppData\Local\Temp\ccYCTqm0.s:33553  .debug_str:000000000002b122 .LASF3901
C:\Users\SOLDER~1\AppData\Local\Temp\ccYCTqm0.s:34381  .debug_str:000000000002e669 .LASF3902
C:\Users\SOLDER~1\AppData\Local\Temp\ccYCTqm0.s:26653  .debug_str:000000000000f423 .LASF3903
C:\Users\SOLDER~1\AppData\Local\Temp\ccYCTqm0.s:27983  .debug_str:0000000000014a38 .LASF3904
C:\Users\SOLDER~1\AppData\Local\Temp\ccYCTqm0.s:30037  .debug_str:000000000001cd79 .LASF3905
C:\Users\SOLDER~1\AppData\Local\Temp\ccYCTqm0.s:31959  .debug_str:0000000000024930 .LASF3906
GAS LISTING C:\Users\SOLDER~1\AppData\Local\Temp\ccYCTqm0.s 			page 173


C:\Users\SOLDER~1\AppData\Local\Temp\ccYCTqm0.s:33045  .debug_str:000000000002905d .LASF3907
C:\Users\SOLDER~1\AppData\Local\Temp\ccYCTqm0.s:30409  .debug_str:000000000001e523 .LASF3908
C:\Users\SOLDER~1\AppData\Local\Temp\ccYCTqm0.s:34379  .debug_str:000000000002e646 .LASF3909
C:\Users\SOLDER~1\AppData\Local\Temp\ccYCTqm0.s:28365  .debug_str:00000000000162d4 .LASF3910
C:\Users\SOLDER~1\AppData\Local\Temp\ccYCTqm0.s:34239  .debug_str:000000000002dd7b .LASF3911
C:\Users\SOLDER~1\AppData\Local\Temp\ccYCTqm0.s:28913  .debug_str:0000000000018631 .LASF3912
C:\Users\SOLDER~1\AppData\Local\Temp\ccYCTqm0.s:32875  .debug_str:00000000000285a3 .LASF3913
C:\Users\SOLDER~1\AppData\Local\Temp\ccYCTqm0.s:24019  .debug_str:000000000000499b .LASF3914
C:\Users\SOLDER~1\AppData\Local\Temp\ccYCTqm0.s:29433  .debug_str:000000000001a709 .LASF3915
C:\Users\SOLDER~1\AppData\Local\Temp\ccYCTqm0.s:30643  .debug_str:000000000001f468 .LASF3916
C:\Users\SOLDER~1\AppData\Local\Temp\ccYCTqm0.s:31115  .debug_str:00000000000212dc .LASF3917
C:\Users\SOLDER~1\AppData\Local\Temp\ccYCTqm0.s:28249  .debug_str:0000000000015b5c .LASF3918
C:\Users\SOLDER~1\AppData\Local\Temp\ccYCTqm0.s:32399  .debug_str:000000000002664c .LASF3919
C:\Users\SOLDER~1\AppData\Local\Temp\ccYCTqm0.s:33327  .debug_str:000000000002a28a .LASF3920
C:\Users\SOLDER~1\AppData\Local\Temp\ccYCTqm0.s:29953  .debug_str:000000000001c80b .LASF3921
C:\Users\SOLDER~1\AppData\Local\Temp\ccYCTqm0.s:24707  .debug_str:000000000000765b .LASF3922
C:\Users\SOLDER~1\AppData\Local\Temp\ccYCTqm0.s:31205  .debug_str:00000000000218b2 .LASF3923
C:\Users\SOLDER~1\AppData\Local\Temp\ccYCTqm0.s:27153  .debug_str:00000000000113c5 .LASF3924
C:\Users\SOLDER~1\AppData\Local\Temp\ccYCTqm0.s:31045  .debug_str:0000000000020e72 .LASF3925
C:\Users\SOLDER~1\AppData\Local\Temp\ccYCTqm0.s:24175  .debug_str:0000000000005328 .LASF3926
C:\Users\SOLDER~1\AppData\Local\Temp\ccYCTqm0.s:27703  .debug_str:00000000000136fe .LASF3927
C:\Users\SOLDER~1\AppData\Local\Temp\ccYCTqm0.s:25329  .debug_str:0000000000009e74 .LASF3928
C:\Users\SOLDER~1\AppData\Local\Temp\ccYCTqm0.s:23765  .debug_str:0000000000003975 .LASF3929
C:\Users\SOLDER~1\AppData\Local\Temp\ccYCTqm0.s:24817  .debug_str:0000000000007cea .LASF3930
C:\Users\SOLDER~1\AppData\Local\Temp\ccYCTqm0.s:30657  .debug_str:000000000001f54f .LASF3931
C:\Users\SOLDER~1\AppData\Local\Temp\ccYCTqm0.s:30139  .debug_str:000000000001d407 .LASF3932
C:\Users\SOLDER~1\AppData\Local\Temp\ccYCTqm0.s:32891  .debug_str:0000000000028692 .LASF3933
C:\Users\SOLDER~1\AppData\Local\Temp\ccYCTqm0.s:32457  .debug_str:00000000000269f6 .LASF3934
C:\Users\SOLDER~1\AppData\Local\Temp\ccYCTqm0.s:25323  .debug_str:0000000000009e17 .LASF3935
C:\Users\SOLDER~1\AppData\Local\Temp\ccYCTqm0.s:26547  .debug_str:000000000000edba .LASF3936
C:\Users\SOLDER~1\AppData\Local\Temp\ccYCTqm0.s:28321  .debug_str:0000000000015fee .LASF3937
C:\Users\SOLDER~1\AppData\Local\Temp\ccYCTqm0.s:24237  .debug_str:00000000000056f2 .LASF3938
C:\Users\SOLDER~1\AppData\Local\Temp\ccYCTqm0.s:25005  .debug_str:0000000000008937 .LASF3939
C:\Users\SOLDER~1\AppData\Local\Temp\ccYCTqm0.s:33399  .debug_str:000000000002a787 .LASF3940
C:\Users\SOLDER~1\AppData\Local\Temp\ccYCTqm0.s:28861  .debug_str:000000000001829d .LASF3941
C:\Users\SOLDER~1\AppData\Local\Temp\ccYCTqm0.s:26467  .debug_str:000000000000e8ac .LASF3942
C:\Users\SOLDER~1\AppData\Local\Temp\ccYCTqm0.s:31119  .debug_str:0000000000021322 .LASF3943
C:\Users\SOLDER~1\AppData\Local\Temp\ccYCTqm0.s:23511  .debug_str:0000000000002923 .LASF3944
C:\Users\SOLDER~1\AppData\Local\Temp\ccYCTqm0.s:29885  .debug_str:000000000001c38e .LASF3945
C:\Users\SOLDER~1\AppData\Local\Temp\ccYCTqm0.s:24961  .debug_str:0000000000008677 .LASF3946
C:\Users\SOLDER~1\AppData\Local\Temp\ccYCTqm0.s:30987  .debug_str:0000000000020ac5 .LASF3947
C:\Users\SOLDER~1\AppData\Local\Temp\ccYCTqm0.s:32143  .debug_str:000000000002550f .LASF3948
C:\Users\SOLDER~1\AppData\Local\Temp\ccYCTqm0.s:28225  .debug_str:0000000000015a0a .LASF3949
C:\Users\SOLDER~1\AppData\Local\Temp\ccYCTqm0.s:23171  .debug_str:0000000000001354 .LASF3950
C:\Users\SOLDER~1\AppData\Local\Temp\ccYCTqm0.s:31729  .debug_str:0000000000023a75 .LASF3951
C:\Users\SOLDER~1\AppData\Local\Temp\ccYCTqm0.s:23891  .debug_str:000000000000417b .LASF3952
C:\Users\SOLDER~1\AppData\Local\Temp\ccYCTqm0.s:26897  .debug_str:0000000000010451 .LASF3953
C:\Users\SOLDER~1\AppData\Local\Temp\ccYCTqm0.s:28325  .debug_str:000000000001602f .LASF3954
C:\Users\SOLDER~1\AppData\Local\Temp\ccYCTqm0.s:24899  .debug_str:0000000000008277 .LASF3955
C:\Users\SOLDER~1\AppData\Local\Temp\ccYCTqm0.s:23219  .debug_str:000000000000165f .LASF3956
C:\Users\SOLDER~1\AppData\Local\Temp\ccYCTqm0.s:34593  .debug_str:000000000002f3f0 .LASF3957
C:\Users\SOLDER~1\AppData\Local\Temp\ccYCTqm0.s:27451  .debug_str:00000000000126c0 .LASF3958
C:\Users\SOLDER~1\AppData\Local\Temp\ccYCTqm0.s:28681  .debug_str:00000000000176c9 .LASF3959
C:\Users\SOLDER~1\AppData\Local\Temp\ccYCTqm0.s:26421  .debug_str:000000000000e58c .LASF3960
C:\Users\SOLDER~1\AppData\Local\Temp\ccYCTqm0.s:28943  .debug_str:000000000001880e .LASF3961
C:\Users\SOLDER~1\AppData\Local\Temp\ccYCTqm0.s:32157  .debug_str:0000000000025607 .LASF3962
C:\Users\SOLDER~1\AppData\Local\Temp\ccYCTqm0.s:26419  .debug_str:000000000000e565 .LASF3963
GAS LISTING C:\Users\SOLDER~1\AppData\Local\Temp\ccYCTqm0.s 			page 174


C:\Users\SOLDER~1\AppData\Local\Temp\ccYCTqm0.s:26559  .debug_str:000000000000ee70 .LASF3964
C:\Users\SOLDER~1\AppData\Local\Temp\ccYCTqm0.s:31047  .debug_str:0000000000020e92 .LASF3965
C:\Users\SOLDER~1\AppData\Local\Temp\ccYCTqm0.s:31113  .debug_str:00000000000212b4 .LASF3966
C:\Users\SOLDER~1\AppData\Local\Temp\ccYCTqm0.s:30073  .debug_str:000000000001d00a .LASF3967
C:\Users\SOLDER~1\AppData\Local\Temp\ccYCTqm0.s:31869  .debug_str:000000000002433e .LASF3968
C:\Users\SOLDER~1\AppData\Local\Temp\ccYCTqm0.s:28823  .debug_str:000000000001800c .LASF3969
C:\Users\SOLDER~1\AppData\Local\Temp\ccYCTqm0.s:25997  .debug_str:000000000000c989 .LASF3970
C:\Users\SOLDER~1\AppData\Local\Temp\ccYCTqm0.s:25547  .debug_str:000000000000acf1 .LASF3971
C:\Users\SOLDER~1\AppData\Local\Temp\ccYCTqm0.s:24031  .debug_str:0000000000004a69 .LASF3972
C:\Users\SOLDER~1\AppData\Local\Temp\ccYCTqm0.s:32411  .debug_str:0000000000026711 .LASF3973
C:\Users\SOLDER~1\AppData\Local\Temp\ccYCTqm0.s:26819  .debug_str:000000000000ff01 .LASF3974
C:\Users\SOLDER~1\AppData\Local\Temp\ccYCTqm0.s:27015  .debug_str:0000000000010b06 .LASF3975
C:\Users\SOLDER~1\AppData\Local\Temp\ccYCTqm0.s:31397  .debug_str:00000000000224c6 .LASF3976
C:\Users\SOLDER~1\AppData\Local\Temp\ccYCTqm0.s:24609  .debug_str:0000000000006faf .LASF3977
C:\Users\SOLDER~1\AppData\Local\Temp\ccYCTqm0.s:34475  .debug_str:000000000002ec65 .LASF3978
C:\Users\SOLDER~1\AppData\Local\Temp\ccYCTqm0.s:25485  .debug_str:000000000000a8b6 .LASF3979
C:\Users\SOLDER~1\AppData\Local\Temp\ccYCTqm0.s:28595  .debug_str:00000000000170eb .LASF3980
C:\Users\SOLDER~1\AppData\Local\Temp\ccYCTqm0.s:32577  .debug_str:00000000000271d5 .LASF3981
C:\Users\SOLDER~1\AppData\Local\Temp\ccYCTqm0.s:29649  .debug_str:000000000001b4e7 .LASF3982
C:\Users\SOLDER~1\AppData\Local\Temp\ccYCTqm0.s:33011  .debug_str:0000000000028e7e .LASF3983
C:\Users\SOLDER~1\AppData\Local\Temp\ccYCTqm0.s:28761  .debug_str:0000000000017c0e .LASF3984
C:\Users\SOLDER~1\AppData\Local\Temp\ccYCTqm0.s:32571  .debug_str:000000000002716a .LASF3985
C:\Users\SOLDER~1\AppData\Local\Temp\ccYCTqm0.s:25047  .debug_str:0000000000008bdf .LASF3986
C:\Users\SOLDER~1\AppData\Local\Temp\ccYCTqm0.s:24555  .debug_str:0000000000006c84 .LASF3987
C:\Users\SOLDER~1\AppData\Local\Temp\ccYCTqm0.s:30277  .debug_str:000000000001dcd1 .LASF3988
C:\Users\SOLDER~1\AppData\Local\Temp\ccYCTqm0.s:24737  .debug_str:0000000000007848 .LASF3989
C:\Users\SOLDER~1\AppData\Local\Temp\ccYCTqm0.s:32437  .debug_str:00000000000268d4 .LASF3990
C:\Users\SOLDER~1\AppData\Local\Temp\ccYCTqm0.s:23883  .debug_str:00000000000040ee .LASF3991
C:\Users\SOLDER~1\AppData\Local\Temp\ccYCTqm0.s:31863  .debug_str:00000000000242e9 .LASF3992
C:\Users\SOLDER~1\AppData\Local\Temp\ccYCTqm0.s:25145  .debug_str:0000000000009271 .LASF3993
C:\Users\SOLDER~1\AppData\Local\Temp\ccYCTqm0.s:25733  .debug_str:000000000000b8b3 .LASF3994
C:\Users\SOLDER~1\AppData\Local\Temp\ccYCTqm0.s:26023  .debug_str:000000000000cb4d .LASF3995
C:\Users\SOLDER~1\AppData\Local\Temp\ccYCTqm0.s:31939  .debug_str:00000000000247bc .LASF3996
C:\Users\SOLDER~1\AppData\Local\Temp\ccYCTqm0.s:33563  .debug_str:000000000002b1bf .LASF3997
C:\Users\SOLDER~1\AppData\Local\Temp\ccYCTqm0.s:25185  .debug_str:000000000000955c .LASF3998
C:\Users\SOLDER~1\AppData\Local\Temp\ccYCTqm0.s:27507  .debug_str:0000000000012a53 .LASF3999
C:\Users\SOLDER~1\AppData\Local\Temp\ccYCTqm0.s:27995  .debug_str:0000000000014ae9 .LASF4000
C:\Users\SOLDER~1\AppData\Local\Temp\ccYCTqm0.s:32785  .debug_str:0000000000027f76 .LASF4001
C:\Users\SOLDER~1\AppData\Local\Temp\ccYCTqm0.s:34393  .debug_str:000000000002e715 .LASF4002
C:\Users\SOLDER~1\AppData\Local\Temp\ccYCTqm0.s:23447  .debug_str:0000000000002555 .LASF4003
C:\Users\SOLDER~1\AppData\Local\Temp\ccYCTqm0.s:28461  .debug_str:00000000000168fe .LASF4004
C:\Users\SOLDER~1\AppData\Local\Temp\ccYCTqm0.s:31877  .debug_str:00000000000243b7 .LASF4005
C:\Users\SOLDER~1\AppData\Local\Temp\ccYCTqm0.s:33135  .debug_str:000000000002960b .LASF4006
C:\Users\SOLDER~1\AppData\Local\Temp\ccYCTqm0.s:24231  .debug_str:00000000000056a3 .LASF4007
C:\Users\SOLDER~1\AppData\Local\Temp\ccYCTqm0.s:24937  .debug_str:00000000000084fc .LASF4008
C:\Users\SOLDER~1\AppData\Local\Temp\ccYCTqm0.s:23133  .debug_str:00000000000010f2 .LASF4009
C:\Users\SOLDER~1\AppData\Local\Temp\ccYCTqm0.s:32983  .debug_str:0000000000028cb9 .LASF4010
C:\Users\SOLDER~1\AppData\Local\Temp\ccYCTqm0.s:23099  .debug_str:0000000000000edd .LASF4011
C:\Users\SOLDER~1\AppData\Local\Temp\ccYCTqm0.s:33473  .debug_str:000000000002ac11 .LASF4012
C:\Users\SOLDER~1\AppData\Local\Temp\ccYCTqm0.s:33003  .debug_str:0000000000028df1 .LASF4013
C:\Users\SOLDER~1\AppData\Local\Temp\ccYCTqm0.s:29425  .debug_str:000000000001a68b .LASF4014
C:\Users\SOLDER~1\AppData\Local\Temp\ccYCTqm0.s:25535  .debug_str:000000000000ac21 .LASF4015
C:\Users\SOLDER~1\AppData\Local\Temp\ccYCTqm0.s:23357  .debug_str:0000000000001f4b .LASF4016
C:\Users\SOLDER~1\AppData\Local\Temp\ccYCTqm0.s:34069  .debug_str:000000000002d248 .LASF4017
C:\Users\SOLDER~1\AppData\Local\Temp\ccYCTqm0.s:31295  .debug_str:0000000000021e6b .LASF4018
C:\Users\SOLDER~1\AppData\Local\Temp\ccYCTqm0.s:22947  .debug_str:0000000000000423 .LASF4019
C:\Users\SOLDER~1\AppData\Local\Temp\ccYCTqm0.s:25985  .debug_str:000000000000c8d2 .LASF4020
GAS LISTING C:\Users\SOLDER~1\AppData\Local\Temp\ccYCTqm0.s 			page 175


C:\Users\SOLDER~1\AppData\Local\Temp\ccYCTqm0.s:25813  .debug_str:000000000000bd5f .LASF4021
C:\Users\SOLDER~1\AppData\Local\Temp\ccYCTqm0.s:31917  .debug_str:0000000000024639 .LASF4022
C:\Users\SOLDER~1\AppData\Local\Temp\ccYCTqm0.s:32287  .debug_str:0000000000025e95 .LASF4023
C:\Users\SOLDER~1\AppData\Local\Temp\ccYCTqm0.s:32919  .debug_str:000000000002886a .LASF4024
C:\Users\SOLDER~1\AppData\Local\Temp\ccYCTqm0.s:23919  .debug_str:0000000000004360 .LASF4025
C:\Users\SOLDER~1\AppData\Local\Temp\ccYCTqm0.s:30563  .debug_str:000000000001ef20 .LASF4026
C:\Users\SOLDER~1\AppData\Local\Temp\ccYCTqm0.s:28095  .debug_str:00000000000151b8 .LASF4027
C:\Users\SOLDER~1\AppData\Local\Temp\ccYCTqm0.s:34455  .debug_str:000000000002eb0f .LASF4028
C:\Users\SOLDER~1\AppData\Local\Temp\ccYCTqm0.s:23781  .debug_str:0000000000003a81 .LASF4029
C:\Users\SOLDER~1\AppData\Local\Temp\ccYCTqm0.s:33873  .debug_str:000000000002c625 .LASF4030
C:\Users\SOLDER~1\AppData\Local\Temp\ccYCTqm0.s:32461  .debug_str:0000000000026a43 .LASF4031
C:\Users\SOLDER~1\AppData\Local\Temp\ccYCTqm0.s:26927  .debug_str:0000000000010607 .LASF4032
C:\Users\SOLDER~1\AppData\Local\Temp\ccYCTqm0.s:31653  .debug_str:000000000002355f .LASF4033
C:\Users\SOLDER~1\AppData\Local\Temp\ccYCTqm0.s:25815  .debug_str:000000000000bd7c .LASF4034
C:\Users\SOLDER~1\AppData\Local\Temp\ccYCTqm0.s:33331  .debug_str:000000000002a2cd .LASF4035
C:\Users\SOLDER~1\AppData\Local\Temp\ccYCTqm0.s:25277  .debug_str:0000000000009b34 .LASF4036
C:\Users\SOLDER~1\AppData\Local\Temp\ccYCTqm0.s:24095  .debug_str:0000000000004e72 .LASF4037
C:\Users\SOLDER~1\AppData\Local\Temp\ccYCTqm0.s:28921  .debug_str:00000000000186bd .LASF4038
C:\Users\SOLDER~1\AppData\Local\Temp\ccYCTqm0.s:25017  .debug_str:0000000000008a23 .LASF4039
C:\Users\SOLDER~1\AppData\Local\Temp\ccYCTqm0.s:31079  .debug_str:0000000000021074 .LASF4040
C:\Users\SOLDER~1\AppData\Local\Temp\ccYCTqm0.s:34199  .debug_str:000000000002dad9 .LASF4041
C:\Users\SOLDER~1\AppData\Local\Temp\ccYCTqm0.s:26647  .debug_str:000000000000f3ce .LASF4042
C:\Users\SOLDER~1\AppData\Local\Temp\ccYCTqm0.s:34305  .debug_str:000000000002e196 .LASF4043
C:\Users\SOLDER~1\AppData\Local\Temp\ccYCTqm0.s:30843  .debug_str:000000000002019b .LASF4044
C:\Users\SOLDER~1\AppData\Local\Temp\ccYCTqm0.s:24295  .debug_str:0000000000005aec .LASF4045
C:\Users\SOLDER~1\AppData\Local\Temp\ccYCTqm0.s:30285  .debug_str:000000000001dd13 .LASF4046
C:\Users\SOLDER~1\AppData\Local\Temp\ccYCTqm0.s:24287  .debug_str:0000000000005a5f .LASF4047
C:\Users\SOLDER~1\AppData\Local\Temp\ccYCTqm0.s:32131  .debug_str:000000000002546c .LASF4048
C:\Users\SOLDER~1\AppData\Local\Temp\ccYCTqm0.s:27189  .debug_str:0000000000011615 .LASF4049
C:\Users\SOLDER~1\AppData\Local\Temp\ccYCTqm0.s:27761  .debug_str:0000000000013ae3 .LASF4050
C:\Users\SOLDER~1\AppData\Local\Temp\ccYCTqm0.s:23581  .debug_str:0000000000002d9e .LASF4051
C:\Users\SOLDER~1\AppData\Local\Temp\ccYCTqm0.s:27873  .debug_str:000000000001429b .LASF4052
C:\Users\SOLDER~1\AppData\Local\Temp\ccYCTqm0.s:22959  .debug_str:00000000000004e7 .LASF4053
C:\Users\SOLDER~1\AppData\Local\Temp\ccYCTqm0.s:27163  .debug_str:000000000001147a .LASF4054
C:\Users\SOLDER~1\AppData\Local\Temp\ccYCTqm0.s:31523  .debug_str:0000000000022cdd .LASF4055
C:\Users\SOLDER~1\AppData\Local\Temp\ccYCTqm0.s:27089  .debug_str:0000000000010fce .LASF4056
C:\Users\SOLDER~1\AppData\Local\Temp\ccYCTqm0.s:23677  .debug_str:00000000000033eb .LASF4057
C:\Users\SOLDER~1\AppData\Local\Temp\ccYCTqm0.s:27617  .debug_str:0000000000013188 .LASF4058
C:\Users\SOLDER~1\AppData\Local\Temp\ccYCTqm0.s:27531  .debug_str:0000000000012bac .LASF4059
C:\Users\SOLDER~1\AppData\Local\Temp\ccYCTqm0.s:25177  .debug_str:00000000000094c5 .LASF4060
C:\Users\SOLDER~1\AppData\Local\Temp\ccYCTqm0.s:24381  .debug_str:0000000000006097 .LASF4061
C:\Users\SOLDER~1\AppData\Local\Temp\ccYCTqm0.s:31075  .debug_str:000000000002104a .LASF4062
C:\Users\SOLDER~1\AppData\Local\Temp\ccYCTqm0.s:28707  .debug_str:0000000000017889 .LASF4063
C:\Users\SOLDER~1\AppData\Local\Temp\ccYCTqm0.s:30951  .debug_str:000000000002085b .LASF4064
C:\Users\SOLDER~1\AppData\Local\Temp\ccYCTqm0.s:31331  .debug_str:00000000000220ae .LASF4065
C:\Users\SOLDER~1\AppData\Local\Temp\ccYCTqm0.s:31531  .debug_str:0000000000022d68 .LASF4066
C:\Users\SOLDER~1\AppData\Local\Temp\ccYCTqm0.s:27487  .debug_str:000000000001290f .LASF4067
C:\Users\SOLDER~1\AppData\Local\Temp\ccYCTqm0.s:31663  .debug_str:000000000002360e .LASF4068
C:\Users\SOLDER~1\AppData\Local\Temp\ccYCTqm0.s:24433  .debug_str:0000000000006428 .LASF4069
C:\Users\SOLDER~1\AppData\Local\Temp\ccYCTqm0.s:31811  .debug_str:0000000000023fa6 .LASF4070
C:\Users\SOLDER~1\AppData\Local\Temp\ccYCTqm0.s:28995  .debug_str:0000000000018b3f .LASF4071
C:\Users\SOLDER~1\AppData\Local\Temp\ccYCTqm0.s:31311  .debug_str:0000000000021f68 .LASF4072
C:\Users\SOLDER~1\AppData\Local\Temp\ccYCTqm0.s:23407  .debug_str:0000000000002297 .LASF4073
C:\Users\SOLDER~1\AppData\Local\Temp\ccYCTqm0.s:32447  .debug_str:000000000002696a .LASF4074
C:\Users\SOLDER~1\AppData\Local\Temp\ccYCTqm0.s:31417  .debug_str:00000000000225ce .LASF4075
C:\Users\SOLDER~1\AppData\Local\Temp\ccYCTqm0.s:27609  .debug_str:0000000000013104 .LASF4076
C:\Users\SOLDER~1\AppData\Local\Temp\ccYCTqm0.s:32237  .debug_str:0000000000025b0b .LASF4077
GAS LISTING C:\Users\SOLDER~1\AppData\Local\Temp\ccYCTqm0.s 			page 176


C:\Users\SOLDER~1\AppData\Local\Temp\ccYCTqm0.s:23823  .debug_str:0000000000003d46 .LASF4078
C:\Users\SOLDER~1\AppData\Local\Temp\ccYCTqm0.s:26805  .debug_str:000000000000fe04 .LASF4079
C:\Users\SOLDER~1\AppData\Local\Temp\ccYCTqm0.s:25697  .debug_str:000000000000b646 .LASF4080
C:\Users\SOLDER~1\AppData\Local\Temp\ccYCTqm0.s:24089  .debug_str:0000000000004e0d .LASF4081
C:\Users\SOLDER~1\AppData\Local\Temp\ccYCTqm0.s:32781  .debug_str:0000000000027f3e .LASF4082
C:\Users\SOLDER~1\AppData\Local\Temp\ccYCTqm0.s:25281  .debug_str:0000000000009b6b .LASF4083
C:\Users\SOLDER~1\AppData\Local\Temp\ccYCTqm0.s:33797  .debug_str:000000000002c0f3 .LASF4084
C:\Users\SOLDER~1\AppData\Local\Temp\ccYCTqm0.s:31661  .debug_str:00000000000235f1 .LASF4085
C:\Users\SOLDER~1\AppData\Local\Temp\ccYCTqm0.s:32955  .debug_str:0000000000028aa6 .LASF4086
C:\Users\SOLDER~1\AppData\Local\Temp\ccYCTqm0.s:29933  .debug_str:000000000001c6f2 .LASF4087
C:\Users\SOLDER~1\AppData\Local\Temp\ccYCTqm0.s:28035  .debug_str:0000000000014dc1 .LASF4088
C:\Users\SOLDER~1\AppData\Local\Temp\ccYCTqm0.s:23903  .debug_str:000000000000423b .LASF4089
C:\Users\SOLDER~1\AppData\Local\Temp\ccYCTqm0.s:29719  .debug_str:000000000001b907 .LASF4090
C:\Users\SOLDER~1\AppData\Local\Temp\ccYCTqm0.s:33697  .debug_str:000000000002ba83 .LASF4091
C:\Users\SOLDER~1\AppData\Local\Temp\ccYCTqm0.s:34559  .debug_str:000000000002f1e9 .LASF4092
C:\Users\SOLDER~1\AppData\Local\Temp\ccYCTqm0.s:24705  .debug_str:000000000000763e .LASF4093
C:\Users\SOLDER~1\AppData\Local\Temp\ccYCTqm0.s:24883  .debug_str:000000000000815a .LASF4094
C:\Users\SOLDER~1\AppData\Local\Temp\ccYCTqm0.s:34271  .debug_str:000000000002df57 .LASF4095
C:\Users\SOLDER~1\AppData\Local\Temp\ccYCTqm0.s:28907  .debug_str:00000000000185dd .LASF4096
C:\Users\SOLDER~1\AppData\Local\Temp\ccYCTqm0.s:23221  .debug_str:000000000000167a .LASF4097
C:\Users\SOLDER~1\AppData\Local\Temp\ccYCTqm0.s:24043  .debug_str:0000000000004b1d .LASF4098
C:\Users\SOLDER~1\AppData\Local\Temp\ccYCTqm0.s:23871  .debug_str:000000000000404c .LASF4099
C:\Users\SOLDER~1\AppData\Local\Temp\ccYCTqm0.s:29723  .debug_str:000000000001b941 .LASF4100
C:\Users\SOLDER~1\AppData\Local\Temp\ccYCTqm0.s:23261  .debug_str:00000000000018f8 .LASF4101
C:\Users\SOLDER~1\AppData\Local\Temp\ccYCTqm0.s:28073  .debug_str:0000000000015052 .LASF4102
C:\Users\SOLDER~1\AppData\Local\Temp\ccYCTqm0.s:24039  .debug_str:0000000000004aea .LASF4103
C:\Users\SOLDER~1\AppData\Local\Temp\ccYCTqm0.s:29167  .debug_str:000000000001963e .LASF4104
C:\Users\SOLDER~1\AppData\Local\Temp\ccYCTqm0.s:25479  .debug_str:000000000000a851 .LASF4105
C:\Users\SOLDER~1\AppData\Local\Temp\ccYCTqm0.s:25401  .debug_str:000000000000a344 .LASF4106
C:\Users\SOLDER~1\AppData\Local\Temp\ccYCTqm0.s:34193  .debug_str:000000000002da66 .LASF4107
C:\Users\SOLDER~1\AppData\Local\Temp\ccYCTqm0.s:29051  .debug_str:0000000000018ee7 .LASF4108
C:\Users\SOLDER~1\AppData\Local\Temp\ccYCTqm0.s:34449  .debug_str:000000000002eaaf .LASF4109
C:\Users\SOLDER~1\AppData\Local\Temp\ccYCTqm0.s:23879  .debug_str:00000000000040c9 .LASF4110
C:\Users\SOLDER~1\AppData\Local\Temp\ccYCTqm0.s:31471  .debug_str:000000000002295c .LASF4111
C:\Users\SOLDER~1\AppData\Local\Temp\ccYCTqm0.s:27001  .debug_str:0000000000010a68 .LASF4112
C:\Users\SOLDER~1\AppData\Local\Temp\ccYCTqm0.s:29003  .debug_str:0000000000018bb8 .LASF4113
C:\Users\SOLDER~1\AppData\Local\Temp\ccYCTqm0.s:31219  .debug_str:00000000000219b1 .LASF4114
C:\Users\SOLDER~1\AppData\Local\Temp\ccYCTqm0.s:29251  .debug_str:0000000000019bb7 .LASF4115
C:\Users\SOLDER~1\AppData\Local\Temp\ccYCTqm0.s:26465  .debug_str:000000000000e88e .LASF4116
C:\Users\SOLDER~1\AppData\Local\Temp\ccYCTqm0.s:34221  .debug_str:000000000002dc52 .LASF4117
C:\Users\SOLDER~1\AppData\Local\Temp\ccYCTqm0.s:25341  .debug_str:0000000000009f32 .LASF4118
C:\Users\SOLDER~1\AppData\Local\Temp\ccYCTqm0.s:24629  .debug_str:0000000000007116 .LASF4119
C:\Users\SOLDER~1\AppData\Local\Temp\ccYCTqm0.s:32703  .debug_str:0000000000027a45 .LASF4120
C:\Users\SOLDER~1\AppData\Local\Temp\ccYCTqm0.s:27135  .debug_str:00000000000112a9 .LASF4121
C:\Users\SOLDER~1\AppData\Local\Temp\ccYCTqm0.s:24213  .debug_str:0000000000005599 .LASF4122
C:\Users\SOLDER~1\AppData\Local\Temp\ccYCTqm0.s:24557  .debug_str:0000000000006c9f .LASF4123
C:\Users\SOLDER~1\AppData\Local\Temp\ccYCTqm0.s:28317  .debug_str:0000000000015fae .LASF4124
C:\Users\SOLDER~1\AppData\Local\Temp\ccYCTqm0.s:25715  .debug_str:000000000000b784 .LASF4125
C:\Users\SOLDER~1\AppData\Local\Temp\ccYCTqm0.s:23337  .debug_str:0000000000001e10 .LASF4126
C:\Users\SOLDER~1\AppData\Local\Temp\ccYCTqm0.s:28113  .debug_str:00000000000152d1 .LASF4127
C:\Users\SOLDER~1\AppData\Local\Temp\ccYCTqm0.s:25865  .debug_str:000000000000c0a8 .LASF4128
C:\Users\SOLDER~1\AppData\Local\Temp\ccYCTqm0.s:33325  .debug_str:000000000002a278 .LASF4129
C:\Users\SOLDER~1\AppData\Local\Temp\ccYCTqm0.s:23507  .debug_str:00000000000028e5 .LASF4130
C:\Users\SOLDER~1\AppData\Local\Temp\ccYCTqm0.s:25511  .debug_str:000000000000aab8 .LASF4131
C:\Users\SOLDER~1\AppData\Local\Temp\ccYCTqm0.s:30325  .debug_str:000000000001df8d .LASF4132
C:\Users\SOLDER~1\AppData\Local\Temp\ccYCTqm0.s:26155  .debug_str:000000000000d41a .LASF4133
C:\Users\SOLDER~1\AppData\Local\Temp\ccYCTqm0.s:24253  .debug_str:00000000000057e7 .LASF4134
GAS LISTING C:\Users\SOLDER~1\AppData\Local\Temp\ccYCTqm0.s 			page 177


C:\Users\SOLDER~1\AppData\Local\Temp\ccYCTqm0.s:26937  .debug_str:0000000000010687 .LASF4135
C:\Users\SOLDER~1\AppData\Local\Temp\ccYCTqm0.s:32677  .debug_str:000000000002788c .LASF4136
C:\Users\SOLDER~1\AppData\Local\Temp\ccYCTqm0.s:31695  .debug_str:0000000000023852 .LASF4137
C:\Users\SOLDER~1\AppData\Local\Temp\ccYCTqm0.s:34501  .debug_str:000000000002ee40 .LASF4138
C:\Users\SOLDER~1\AppData\Local\Temp\ccYCTqm0.s:27999  .debug_str:0000000000014b21 .LASF4139
C:\Users\SOLDER~1\AppData\Local\Temp\ccYCTqm0.s:24765  .debug_str:00000000000079eb .LASF4140
C:\Users\SOLDER~1\AppData\Local\Temp\ccYCTqm0.s:31765  .debug_str:0000000000023cd3 .LASF4141
C:\Users\SOLDER~1\AppData\Local\Temp\ccYCTqm0.s:24933  .debug_str:00000000000084cb .LASF4142
C:\Users\SOLDER~1\AppData\Local\Temp\ccYCTqm0.s:33357  .debug_str:000000000002a47d .LASF4143
C:\Users\SOLDER~1\AppData\Local\Temp\ccYCTqm0.s:31913  .debug_str:000000000002460d .LASF4144
C:\Users\SOLDER~1\AppData\Local\Temp\ccYCTqm0.s:28149  .debug_str:0000000000015510 .LASF4145
C:\Users\SOLDER~1\AppData\Local\Temp\ccYCTqm0.s:26451  .debug_str:000000000000e79f .LASF4146
C:\Users\SOLDER~1\AppData\Local\Temp\ccYCTqm0.s:31501  .debug_str:0000000000022b5b .LASF4147
C:\Users\SOLDER~1\AppData\Local\Temp\ccYCTqm0.s:31697  .debug_str:0000000000023865 .LASF4148
C:\Users\SOLDER~1\AppData\Local\Temp\ccYCTqm0.s:23611  .debug_str:0000000000002f99 .LASF4149
C:\Users\SOLDER~1\AppData\Local\Temp\ccYCTqm0.s:30965  .debug_str:0000000000020960 .LASF4150
C:\Users\SOLDER~1\AppData\Local\Temp\ccYCTqm0.s:33787  .debug_str:000000000002c03d .LASF4151
C:\Users\SOLDER~1\AppData\Local\Temp\ccYCTqm0.s:30849  .debug_str:00000000000201ed .LASF4152
C:\Users\SOLDER~1\AppData\Local\Temp\ccYCTqm0.s:32169  .debug_str:00000000000256ca .LASF4153
C:\Users\SOLDER~1\AppData\Local\Temp\ccYCTqm0.s:24057  .debug_str:0000000000004be4 .LASF4154
C:\Users\SOLDER~1\AppData\Local\Temp\ccYCTqm0.s:23465  .debug_str:000000000000265e .LASF4155
C:\Users\SOLDER~1\AppData\Local\Temp\ccYCTqm0.s:25591  .debug_str:000000000000af97 .LASF4156
C:\Users\SOLDER~1\AppData\Local\Temp\ccYCTqm0.s:28987  .debug_str:0000000000018ac0 .LASF4157
C:\Users\SOLDER~1\AppData\Local\Temp\ccYCTqm0.s:33429  .debug_str:000000000002a961 .LASF4158
C:\Users\SOLDER~1\AppData\Local\Temp\ccYCTqm0.s:31419  .debug_str:00000000000225e9 .LASF4159
C:\Users\SOLDER~1\AppData\Local\Temp\ccYCTqm0.s:29279  .debug_str:0000000000019d57 .LASF4160
C:\Users\SOLDER~1\AppData\Local\Temp\ccYCTqm0.s:23503  .debug_str:00000000000028a1 .LASF4161
C:\Users\SOLDER~1\AppData\Local\Temp\ccYCTqm0.s:27449  .debug_str:00000000000126a2 .LASF4162
C:\Users\SOLDER~1\AppData\Local\Temp\ccYCTqm0.s:30947  .debug_str:000000000002081b .LASF4163
C:\Users\SOLDER~1\AppData\Local\Temp\ccYCTqm0.s:28475  .debug_str:00000000000169b3 .LASF4164
C:\Users\SOLDER~1\AppData\Local\Temp\ccYCTqm0.s:25539  .debug_str:000000000000ac6b .LASF4165
C:\Users\SOLDER~1\AppData\Local\Temp\ccYCTqm0.s:31739  .debug_str:0000000000023b34 .LASF4166
C:\Users\SOLDER~1\AppData\Local\Temp\ccYCTqm0.s:32265  .debug_str:0000000000025d0d .LASF4167
C:\Users\SOLDER~1\AppData\Local\Temp\ccYCTqm0.s:32835  .debug_str:00000000000282f2 .LASF4168
C:\Users\SOLDER~1\AppData\Local\Temp\ccYCTqm0.s:30599  .debug_str:000000000001f175 .LASF4169
C:\Users\SOLDER~1\AppData\Local\Temp\ccYCTqm0.s:33753  .debug_str:000000000002be26 .LASF4170
C:\Users\SOLDER~1\AppData\Local\Temp\ccYCTqm0.s:29815  .debug_str:000000000001bf31 .LASF4171
C:\Users\SOLDER~1\AppData\Local\Temp\ccYCTqm0.s:33047  .debug_str:0000000000029082 .LASF4172
C:\Users\SOLDER~1\AppData\Local\Temp\ccYCTqm0.s:34151  .debug_str:000000000002d7e4 .LASF4173
C:\Users\SOLDER~1\AppData\Local\Temp\ccYCTqm0.s:24133  .debug_str:000000000000509b .LASF4174
C:\Users\SOLDER~1\AppData\Local\Temp\ccYCTqm0.s:34397  .debug_str:000000000002e740 .LASF4175
C:\Users\SOLDER~1\AppData\Local\Temp\ccYCTqm0.s:30737  .debug_str:000000000001fadc .LASF4176
C:\Users\SOLDER~1\AppData\Local\Temp\ccYCTqm0.s:32715  .debug_str:0000000000027b13 .LASF4177
C:\Users\SOLDER~1\AppData\Local\Temp\ccYCTqm0.s:32211  .debug_str:000000000002596e .LASF4178
C:\Users\SOLDER~1\AppData\Local\Temp\ccYCTqm0.s:26713  .debug_str:000000000000f7e6 .LASF4179
C:\Users\SOLDER~1\AppData\Local\Temp\ccYCTqm0.s:29347  .debug_str:000000000001a1b4 .LASF4180
C:\Users\SOLDER~1\AppData\Local\Temp\ccYCTqm0.s:24377  .debug_str:0000000000006054 .LASF4181
C:\Users\SOLDER~1\AppData\Local\Temp\ccYCTqm0.s:23979  .debug_str:00000000000046e3 .LASF4182
C:\Users\SOLDER~1\AppData\Local\Temp\ccYCTqm0.s:24661  .debug_str:0000000000007367 .LASF4183
C:\Users\SOLDER~1\AppData\Local\Temp\ccYCTqm0.s:32103  .debug_str:000000000002528a .LASF4184
C:\Users\SOLDER~1\AppData\Local\Temp\ccYCTqm0.s:27883  .debug_str:0000000000014330 .LASF4185
C:\Users\SOLDER~1\AppData\Local\Temp\ccYCTqm0.s:34289  .debug_str:000000000002e07a .LASF4186
C:\Users\SOLDER~1\AppData\Local\Temp\ccYCTqm0.s:31309  .debug_str:0000000000021f4c .LASF4187
C:\Users\SOLDER~1\AppData\Local\Temp\ccYCTqm0.s:24877  .debug_str:00000000000080ec .LASF4188
C:\Users\SOLDER~1\AppData\Local\Temp\ccYCTqm0.s:30521  .debug_str:000000000001ec7c .LASF4189
C:\Users\SOLDER~1\AppData\Local\Temp\ccYCTqm0.s:24771  .debug_str:0000000000007a3d .LASF4190
C:\Users\SOLDER~1\AppData\Local\Temp\ccYCTqm0.s:24553  .debug_str:0000000000006c70 .LASF4191
GAS LISTING C:\Users\SOLDER~1\AppData\Local\Temp\ccYCTqm0.s 			page 178


C:\Users\SOLDER~1\AppData\Local\Temp\ccYCTqm0.s:33097  .debug_str:0000000000029379 .LASF4192
C:\Users\SOLDER~1\AppData\Local\Temp\ccYCTqm0.s:23389  .debug_str:0000000000002159 .LASF4193
C:\Users\SOLDER~1\AppData\Local\Temp\ccYCTqm0.s:32175  .debug_str:0000000000025726 .LASF4194
C:\Users\SOLDER~1\AppData\Local\Temp\ccYCTqm0.s:26047  .debug_str:000000000000ccd0 .LASF4195
C:\Users\SOLDER~1\AppData\Local\Temp\ccYCTqm0.s:29787  .debug_str:000000000001bd31 .LASF4196
C:\Users\SOLDER~1\AppData\Local\Temp\ccYCTqm0.s:23015  .debug_str:0000000000000948 .LASF4197
C:\Users\SOLDER~1\AppData\Local\Temp\ccYCTqm0.s:27865  .debug_str:000000000001422c .LASF4198
C:\Users\SOLDER~1\AppData\Local\Temp\ccYCTqm0.s:27847  .debug_str:000000000001410c .LASF4199
C:\Users\SOLDER~1\AppData\Local\Temp\ccYCTqm0.s:25555  .debug_str:000000000000ad99 .LASF4200
C:\Users\SOLDER~1\AppData\Local\Temp\ccYCTqm0.s:27877  .debug_str:00000000000142cc .LASF4201
C:\Users\SOLDER~1\AppData\Local\Temp\ccYCTqm0.s:25655  .debug_str:000000000000b3b8 .LASF4202
C:\Users\SOLDER~1\AppData\Local\Temp\ccYCTqm0.s:27033  .debug_str:0000000000010c52 .LASF4203
C:\Users\SOLDER~1\AppData\Local\Temp\ccYCTqm0.s:25557  .debug_str:000000000000adb7 .LASF4204
C:\Users\SOLDER~1\AppData\Local\Temp\ccYCTqm0.s:27827  .debug_str:0000000000013fb1 .LASF4205
C:\Users\SOLDER~1\AppData\Local\Temp\ccYCTqm0.s:29149  .debug_str:000000000001951b .LASF4206
C:\Users\SOLDER~1\AppData\Local\Temp\ccYCTqm0.s:24447  .debug_str:000000000000651a .LASF4207
C:\Users\SOLDER~1\AppData\Local\Temp\ccYCTqm0.s:27705  .debug_str:000000000001371d .LASF4208
C:\Users\SOLDER~1\AppData\Local\Temp\ccYCTqm0.s:26715  .debug_str:000000000000f802 .LASF4209
C:\Users\SOLDER~1\AppData\Local\Temp\ccYCTqm0.s:33207  .debug_str:0000000000029ae9 .LASF4210
C:\Users\SOLDER~1\AppData\Local\Temp\ccYCTqm0.s:33205  .debug_str:0000000000029acb .LASF4211
C:\Users\SOLDER~1\AppData\Local\Temp\ccYCTqm0.s:23287  .debug_str:0000000000001a94 .LASF4212
C:\Users\SOLDER~1\AppData\Local\Temp\ccYCTqm0.s:31145  .debug_str:00000000000214fe .LASF4213
C:\Users\SOLDER~1\AppData\Local\Temp\ccYCTqm0.s:32749  .debug_str:0000000000027d32 .LASF4214
C:\Users\SOLDER~1\AppData\Local\Temp\ccYCTqm0.s:24981  .debug_str:00000000000087bf .LASF4215
C:\Users\SOLDER~1\AppData\Local\Temp\ccYCTqm0.s:28255  .debug_str:0000000000015bc8 .LASF4216
C:\Users\SOLDER~1\AppData\Local\Temp\ccYCTqm0.s:28691  .debug_str:0000000000017761 .LASF4217
C:\Users\SOLDER~1\AppData\Local\Temp\ccYCTqm0.s:22935  .debug_str:0000000000000350 .LASF4218
C:\Users\SOLDER~1\AppData\Local\Temp\ccYCTqm0.s:27989  .debug_str:0000000000014a92 .LASF4219
C:\Users\SOLDER~1\AppData\Local\Temp\ccYCTqm0.s:32971  .debug_str:0000000000028bd8 .LASF4220
C:\Users\SOLDER~1\AppData\Local\Temp\ccYCTqm0.s:34061  .debug_str:000000000002d1bf .LASF4221
C:\Users\SOLDER~1\AppData\Local\Temp\ccYCTqm0.s:33305  .debug_str:000000000002a100 .LASF4222
C:\Users\SOLDER~1\AppData\Local\Temp\ccYCTqm0.s:27261  .debug_str:0000000000011ad5 .LASF4223
C:\Users\SOLDER~1\AppData\Local\Temp\ccYCTqm0.s:33227  .debug_str:0000000000029c05 .LASF4224
C:\Users\SOLDER~1\AppData\Local\Temp\ccYCTqm0.s:29013  .debug_str:0000000000018c58 .LASF4225
C:\Users\SOLDER~1\AppData\Local\Temp\ccYCTqm0.s:27025  .debug_str:0000000000010bbb .LASF4226
C:\Users\SOLDER~1\AppData\Local\Temp\ccYCTqm0.s:25671  .debug_str:000000000000b495 .LASF4227
C:\Users\SOLDER~1\AppData\Local\Temp\ccYCTqm0.s:25747  .debug_str:000000000000b994 .LASF4228
C:\Users\SOLDER~1\AppData\Local\Temp\ccYCTqm0.s:28123  .debug_str:000000000001535a .LASF4229
C:\Users\SOLDER~1\AppData\Local\Temp\ccYCTqm0.s:25615  .debug_str:000000000000b13e .LASF4230
C:\Users\SOLDER~1\AppData\Local\Temp\ccYCTqm0.s:24947  .debug_str:0000000000008595 .LASF4231
C:\Users\SOLDER~1\AppData\Local\Temp\ccYCTqm0.s:29509  .debug_str:000000000001ac11 .LASF4232
C:\Users\SOLDER~1\AppData\Local\Temp\ccYCTqm0.s:27071  .debug_str:0000000000010ed3 .LASF4233
C:\Users\SOLDER~1\AppData\Local\Temp\ccYCTqm0.s:33615  .debug_str:000000000002b551 .LASF4234
C:\Users\SOLDER~1\AppData\Local\Temp\ccYCTqm0.s:24959  .debug_str:0000000000008663 .LASF4235
C:\Users\SOLDER~1\AppData\Local\Temp\ccYCTqm0.s:27623  .debug_str:00000000000131d1 .LASF4236
C:\Users\SOLDER~1\AppData\Local\Temp\ccYCTqm0.s:24515  .debug_str:00000000000069b0 .LASF4237
C:\Users\SOLDER~1\AppData\Local\Temp\ccYCTqm0.s:22983  .debug_str:0000000000000669 .LASF4238
C:\Users\SOLDER~1\AppData\Local\Temp\ccYCTqm0.s:23669  .debug_str:0000000000003378 .LASF4239
C:\Users\SOLDER~1\AppData\Local\Temp\ccYCTqm0.s:31905  .debug_str:00000000000245a0 .LASF4240
C:\Users\SOLDER~1\AppData\Local\Temp\ccYCTqm0.s:23637  .debug_str:0000000000003163 .LASF4241
C:\Users\SOLDER~1\AppData\Local\Temp\ccYCTqm0.s:29399  .debug_str:000000000001a4f1 .LASF4242
C:\Users\SOLDER~1\AppData\Local\Temp\ccYCTqm0.s:26613  .debug_str:000000000000f18d .LASF4243
C:\Users\SOLDER~1\AppData\Local\Temp\ccYCTqm0.s:24721  .debug_str:000000000000773d .LASF4244
C:\Users\SOLDER~1\AppData\Local\Temp\ccYCTqm0.s:31095  .debug_str:0000000000021195 .LASF4245
C:\Users\SOLDER~1\AppData\Local\Temp\ccYCTqm0.s:23573  .debug_str:0000000000002d0f .LASF4246
C:\Users\SOLDER~1\AppData\Local\Temp\ccYCTqm0.s:30667  .debug_str:000000000001f604 .LASF4247
C:\Users\SOLDER~1\AppData\Local\Temp\ccYCTqm0.s:24911  .debug_str:000000000000834c .LASF4248
GAS LISTING C:\Users\SOLDER~1\AppData\Local\Temp\ccYCTqm0.s 			page 179


C:\Users\SOLDER~1\AppData\Local\Temp\ccYCTqm0.s:23429  .debug_str:000000000000240a .LASF4249
C:\Users\SOLDER~1\AppData\Local\Temp\ccYCTqm0.s:28227  .debug_str:0000000000015a2d .LASF4250
C:\Users\SOLDER~1\AppData\Local\Temp\ccYCTqm0.s:32273  .debug_str:0000000000025d89 .LASF4251
C:\Users\SOLDER~1\AppData\Local\Temp\ccYCTqm0.s:33531  .debug_str:000000000002afb0 .LASF4252
C:\Users\SOLDER~1\AppData\Local\Temp\ccYCTqm0.s:28785  .debug_str:0000000000017daf .LASF4253
C:\Users\SOLDER~1\AppData\Local\Temp\ccYCTqm0.s:28305  .debug_str:0000000000015ef9 .LASF4254
C:\Users\SOLDER~1\AppData\Local\Temp\ccYCTqm0.s:26557  .debug_str:000000000000ee53 .LASF4255
C:\Users\SOLDER~1\AppData\Local\Temp\ccYCTqm0.s:33231  .debug_str:0000000000029c41 .LASF4256
C:\Users\SOLDER~1\AppData\Local\Temp\ccYCTqm0.s:23897  .debug_str:00000000000041e2 .LASF4257
C:\Users\SOLDER~1\AppData\Local\Temp\ccYCTqm0.s:31089  .debug_str:0000000000021115 .LASF4258
C:\Users\SOLDER~1\AppData\Local\Temp\ccYCTqm0.s:24409  .debug_str:0000000000006272 .LASF4259
C:\Users\SOLDER~1\AppData\Local\Temp\ccYCTqm0.s:27303  .debug_str:0000000000011d93 .LASF4260
C:\Users\SOLDER~1\AppData\Local\Temp\ccYCTqm0.s:29147  .debug_str:00000000000194fd .LASF4261
C:\Users\SOLDER~1\AppData\Local\Temp\ccYCTqm0.s:31989  .debug_str:0000000000024b1f .LASF4262
C:\Users\SOLDER~1\AppData\Local\Temp\ccYCTqm0.s:31255  .debug_str:0000000000021bf1 .LASF4263
C:\Users\SOLDER~1\AppData\Local\Temp\ccYCTqm0.s:32453  .debug_str:00000000000269b4 .LASF4264
C:\Users\SOLDER~1\AppData\Local\Temp\ccYCTqm0.s:32747  .debug_str:0000000000027d17 .LASF4265
C:\Users\SOLDER~1\AppData\Local\Temp\ccYCTqm0.s:33573  .debug_str:000000000002b26d .LASF4266
C:\Users\SOLDER~1\AppData\Local\Temp\ccYCTqm0.s:33041  .debug_str:0000000000029031 .LASF4267
C:\Users\SOLDER~1\AppData\Local\Temp\ccYCTqm0.s:30249  .debug_str:000000000001db0d .LASF4268
C:\Users\SOLDER~1\AppData\Local\Temp\ccYCTqm0.s:23127  .debug_str:000000000000108d .LASF4269
C:\Users\SOLDER~1\AppData\Local\Temp\ccYCTqm0.s:31167  .debug_str:0000000000021673 .LASF4270
C:\Users\SOLDER~1\AppData\Local\Temp\ccYCTqm0.s:24935  .debug_str:00000000000084df .LASF4271
C:\Users\SOLDER~1\AppData\Local\Temp\ccYCTqm0.s:24157  .debug_str:0000000000005211 .LASF4272
C:\Users\SOLDER~1\AppData\Local\Temp\ccYCTqm0.s:32633  .debug_str:0000000000027595 .LASF4273
C:\Users\SOLDER~1\AppData\Local\Temp\ccYCTqm0.s:22993  .debug_str:000000000000079f .LASF4274
C:\Users\SOLDER~1\AppData\Local\Temp\ccYCTqm0.s:32219  .debug_str:00000000000259d4 .LASF4275
C:\Users\SOLDER~1\AppData\Local\Temp\ccYCTqm0.s:23947  .debug_str:00000000000044f1 .LASF4276
C:\Users\SOLDER~1\AppData\Local\Temp\ccYCTqm0.s:26269  .debug_str:000000000000db95 .LASF4277
C:\Users\SOLDER~1\AppData\Local\Temp\ccYCTqm0.s:24977  .debug_str:000000000000877e .LASF4278
C:\Users\SOLDER~1\AppData\Local\Temp\ccYCTqm0.s:33829  .debug_str:000000000002c2f5 .LASF4279
C:\Users\SOLDER~1\AppData\Local\Temp\ccYCTqm0.s:27127  .debug_str:0000000000011234 .LASF4280
C:\Users\SOLDER~1\AppData\Local\Temp\ccYCTqm0.s:22945  .debug_str:0000000000000402 .LASF4281
C:\Users\SOLDER~1\AppData\Local\Temp\ccYCTqm0.s:25257  .debug_str:00000000000099e0 .LASF4282
C:\Users\SOLDER~1\AppData\Local\Temp\ccYCTqm0.s:27991  .debug_str:0000000000014aa5 .LASF4283
C:\Users\SOLDER~1\AppData\Local\Temp\ccYCTqm0.s:24715  .debug_str:00000000000076ed .LASF4284
C:\Users\SOLDER~1\AppData\Local\Temp\ccYCTqm0.s:25973  .debug_str:000000000000c7fe .LASF4285
C:\Users\SOLDER~1\AppData\Local\Temp\ccYCTqm0.s:28977  .debug_str:0000000000018a2d .LASF4286
C:\Users\SOLDER~1\AppData\Local\Temp\ccYCTqm0.s:27897  .debug_str:0000000000014419 .LASF4287
C:\Users\SOLDER~1\AppData\Local\Temp\ccYCTqm0.s:31353  .debug_str:000000000002221d .LASF4288
C:\Users\SOLDER~1\AppData\Local\Temp\ccYCTqm0.s:30439  .debug_str:000000000001e6ff .LASF4289
C:\Users\SOLDER~1\AppData\Local\Temp\ccYCTqm0.s:27131  .debug_str:000000000001127b .LASF4290
C:\Users\SOLDER~1\AppData\Local\Temp\ccYCTqm0.s:28191  .debug_str:00000000000157e0 .LASF4291
C:\Users\SOLDER~1\AppData\Local\Temp\ccYCTqm0.s:23185  .debug_str:0000000000001440 .LASF4292
C:\Users\SOLDER~1\AppData\Local\Temp\ccYCTqm0.s:29287  .debug_str:0000000000019dc8 .LASF4293
C:\Users\SOLDER~1\AppData\Local\Temp\ccYCTqm0.s:29881  .debug_str:000000000001c35e .LASF4294
C:\Users\SOLDER~1\AppData\Local\Temp\ccYCTqm0.s:31081  .debug_str:0000000000021086 .LASF4295
C:\Users\SOLDER~1\AppData\Local\Temp\ccYCTqm0.s:32617  .debug_str:0000000000027484 .LASF4296
C:\Users\SOLDER~1\AppData\Local\Temp\ccYCTqm0.s:26581  .debug_str:000000000000ef79 .LASF4297
C:\Users\SOLDER~1\AppData\Local\Temp\ccYCTqm0.s:27723  .debug_str:000000000001384b .LASF4298
C:\Users\SOLDER~1\AppData\Local\Temp\ccYCTqm0.s:24221  .debug_str:0000000000005613 .LASF4299
C:\Users\SOLDER~1\AppData\Local\Temp\ccYCTqm0.s:26347  .debug_str:000000000000e075 .LASF4300
C:\Users\SOLDER~1\AppData\Local\Temp\ccYCTqm0.s:25059  .debug_str:0000000000008cc0 .LASF4301
C:\Users\SOLDER~1\AppData\Local\Temp\ccYCTqm0.s:28891  .debug_str:00000000000184d0 .LASF4302
C:\Users\SOLDER~1\AppData\Local\Temp\ccYCTqm0.s:34295  .debug_str:000000000002e0cf .LASF4303
C:\Users\SOLDER~1\AppData\Local\Temp\ccYCTqm0.s:23409  .debug_str:00000000000022b2 .LASF4304
C:\Users\SOLDER~1\AppData\Local\Temp\ccYCTqm0.s:28301  .debug_str:0000000000015ea9 .LASF4305
GAS LISTING C:\Users\SOLDER~1\AppData\Local\Temp\ccYCTqm0.s 			page 180


C:\Users\SOLDER~1\AppData\Local\Temp\ccYCTqm0.s:32417  .debug_str:0000000000026785 .LASF4306
C:\Users\SOLDER~1\AppData\Local\Temp\ccYCTqm0.s:32111  .debug_str:0000000000025302 .LASF4307
C:\Users\SOLDER~1\AppData\Local\Temp\ccYCTqm0.s:30605  .debug_str:000000000001f1d0 .LASF4308
C:\Users\SOLDER~1\AppData\Local\Temp\ccYCTqm0.s:34417  .debug_str:000000000002e87e .LASF4309
C:\Users\SOLDER~1\AppData\Local\Temp\ccYCTqm0.s:25861  .debug_str:000000000000c074 .LASF4310
C:\Users\SOLDER~1\AppData\Local\Temp\ccYCTqm0.s:26893  .debug_str:0000000000010409 .LASF4311
C:\Users\SOLDER~1\AppData\Local\Temp\ccYCTqm0.s:24269  .debug_str:00000000000058f4 .LASF4312
C:\Users\SOLDER~1\AppData\Local\Temp\ccYCTqm0.s:29773  .debug_str:000000000001bc56 .LASF4313
C:\Users\SOLDER~1\AppData\Local\Temp\ccYCTqm0.s:23259  .debug_str:00000000000018e0 .LASF4314
C:\Users\SOLDER~1\AppData\Local\Temp\ccYCTqm0.s:28471  .debug_str:0000000000016980 .LASF4315
C:\Users\SOLDER~1\AppData\Local\Temp\ccYCTqm0.s:28089  .debug_str:0000000000015153 .LASF4316
C:\Users\SOLDER~1\AppData\Local\Temp\ccYCTqm0.s:24835  .debug_str:0000000000007e12 .LASF4317
C:\Users\SOLDER~1\AppData\Local\Temp\ccYCTqm0.s:30031  .debug_str:000000000001cd1b .LASF4318
C:\Users\SOLDER~1\AppData\Local\Temp\ccYCTqm0.s:24399  .debug_str:00000000000061b3 .LASF4319
C:\Users\SOLDER~1\AppData\Local\Temp\ccYCTqm0.s:33773  .debug_str:000000000002bf54 .LASF4320
C:\Users\SOLDER~1\AppData\Local\Temp\ccYCTqm0.s:32831  .debug_str:00000000000282b0 .LASF4321
C:\Users\SOLDER~1\AppData\Local\Temp\ccYCTqm0.s:31313  .debug_str:0000000000021f7a .LASF4322
C:\Users\SOLDER~1\AppData\Local\Temp\ccYCTqm0.s:32043  .debug_str:0000000000024ed3 .LASF4323
C:\Users\SOLDER~1\AppData\Local\Temp\ccYCTqm0.s:23351  .debug_str:0000000000001eee .LASF4324
C:\Users\SOLDER~1\AppData\Local\Temp\ccYCTqm0.s:34377  .debug_str:000000000002e622 .LASF4325
C:\Users\SOLDER~1\AppData\Local\Temp\ccYCTqm0.s:27221  .debug_str:0000000000011845 .LASF4326
C:\Users\SOLDER~1\AppData\Local\Temp\ccYCTqm0.s:31525  .debug_str:0000000000022cfa .LASF4327
C:\Users\SOLDER~1\AppData\Local\Temp\ccYCTqm0.s:34277  .debug_str:000000000002dfc2 .LASF4328
C:\Users\SOLDER~1\AppData\Local\Temp\ccYCTqm0.s:31513  .debug_str:0000000000022c20 .LASF4329
C:\Users\SOLDER~1\AppData\Local\Temp\ccYCTqm0.s:30735  .debug_str:000000000001fac1 .LASF4330
C:\Users\SOLDER~1\AppData\Local\Temp\ccYCTqm0.s:29943  .debug_str:000000000001c780 .LASF4331
C:\Users\SOLDER~1\AppData\Local\Temp\ccYCTqm0.s:27405  .debug_str:00000000000123ec .LASF4332
C:\Users\SOLDER~1\AppData\Local\Temp\ccYCTqm0.s:30745  .debug_str:000000000001fb59 .LASF4333
C:\Users\SOLDER~1\AppData\Local\Temp\ccYCTqm0.s:27467  .debug_str:000000000001278c .LASF4334
C:\Users\SOLDER~1\AppData\Local\Temp\ccYCTqm0.s:30059  .debug_str:000000000001cf11 .LASF4335
C:\Users\SOLDER~1\AppData\Local\Temp\ccYCTqm0.s:29607  .debug_str:000000000001b27a .LASF4336
C:\Users\SOLDER~1\AppData\Local\Temp\ccYCTqm0.s:24475  .debug_str:00000000000066f8 .LASF4337
C:\Users\SOLDER~1\AppData\Local\Temp\ccYCTqm0.s:30435  .debug_str:000000000001e6c2 .LASF4338
C:\Users\SOLDER~1\AppData\Local\Temp\ccYCTqm0.s:29297  .debug_str:0000000000019e75 .LASF4339
C:\Users\SOLDER~1\AppData\Local\Temp\ccYCTqm0.s:29993  .debug_str:000000000001caa9 .LASF4340
C:\Users\SOLDER~1\AppData\Local\Temp\ccYCTqm0.s:28775  .debug_str:0000000000017d02 .LASF4341
C:\Users\SOLDER~1\AppData\Local\Temp\ccYCTqm0.s:30245  .debug_str:000000000001dacd .LASF4342
C:\Users\SOLDER~1\AppData\Local\Temp\ccYCTqm0.s:28587  .debug_str:0000000000017066 .LASF4343
C:\Users\SOLDER~1\AppData\Local\Temp\ccYCTqm0.s:28683  .debug_str:00000000000176ef .LASF4344
C:\Users\SOLDER~1\AppData\Local\Temp\ccYCTqm0.s:32003  .debug_str:0000000000024c17 .LASF4345
C:\Users\SOLDER~1\AppData\Local\Temp\ccYCTqm0.s:27497  .debug_str:00000000000129b7 .LASF4346
C:\Users\SOLDER~1\AppData\Local\Temp\ccYCTqm0.s:23659  .debug_str:00000000000032c3 .LASF4347
C:\Users\SOLDER~1\AppData\Local\Temp\ccYCTqm0.s:23173  .debug_str:000000000000136f .LASF4348
C:\Users\SOLDER~1\AppData\Local\Temp\ccYCTqm0.s:33723  .debug_str:000000000002bc3e .LASF4349
C:\Users\SOLDER~1\AppData\Local\Temp\ccYCTqm0.s:31551  .debug_str:0000000000022ec3 .LASF4350
C:\Users\SOLDER~1\AppData\Local\Temp\ccYCTqm0.s:26633  .debug_str:000000000000f2d8 .LASF4351
C:\Users\SOLDER~1\AppData\Local\Temp\ccYCTqm0.s:28425  .debug_str:00000000000166be .LASF4352
C:\Users\SOLDER~1\AppData\Local\Temp\ccYCTqm0.s:23603  .debug_str:0000000000002f09 .LASF4353
C:\Users\SOLDER~1\AppData\Local\Temp\ccYCTqm0.s:29315  .debug_str:0000000000019fad .LASF4354
C:\Users\SOLDER~1\AppData\Local\Temp\ccYCTqm0.s:27665  .debug_str:0000000000013459 .LASF4355
C:\Users\SOLDER~1\AppData\Local\Temp\ccYCTqm0.s:29685  .debug_str:000000000001b738 .LASF4356
C:\Users\SOLDER~1\AppData\Local\Temp\ccYCTqm0.s:31659  .debug_str:00000000000235cc .LASF4357
C:\Users\SOLDER~1\AppData\Local\Temp\ccYCTqm0.s:26355  .debug_str:000000000000e0ea .LASF4358
C:\Users\SOLDER~1\AppData\Local\Temp\ccYCTqm0.s:26743  .debug_str:000000000000f9ed .LASF4359
C:\Users\SOLDER~1\AppData\Local\Temp\ccYCTqm0.s:33685  .debug_str:000000000002b9b0 .LASF4360
C:\Users\SOLDER~1\AppData\Local\Temp\ccYCTqm0.s:23687  .debug_str:0000000000003488 .LASF4361
C:\Users\SOLDER~1\AppData\Local\Temp\ccYCTqm0.s:25245  .debug_str:0000000000009934 .LASF4362
GAS LISTING C:\Users\SOLDER~1\AppData\Local\Temp\ccYCTqm0.s 			page 181


C:\Users\SOLDER~1\AppData\Local\Temp\ccYCTqm0.s:23969  .debug_str:000000000000463b .LASF4363
C:\Users\SOLDER~1\AppData\Local\Temp\ccYCTqm0.s:25863  .debug_str:000000000000c08d .LASF4364
C:\Users\SOLDER~1\AppData\Local\Temp\ccYCTqm0.s:26157  .debug_str:000000000000d42e .LASF4365
C:\Users\SOLDER~1\AppData\Local\Temp\ccYCTqm0.s:28717  .debug_str:0000000000017942 .LASF4366
C:\Users\SOLDER~1\AppData\Local\Temp\ccYCTqm0.s:34437  .debug_str:000000000002e9dc .LASF4367
C:\Users\SOLDER~1\AppData\Local\Temp\ccYCTqm0.s:25967  .debug_str:000000000000c7aa .LASF4368
C:\Users\SOLDER~1\AppData\Local\Temp\ccYCTqm0.s:31347  .debug_str:00000000000221b5 .LASF4369
C:\Users\SOLDER~1\AppData\Local\Temp\ccYCTqm0.s:32609  .debug_str:000000000002740d .LASF4370
C:\Users\SOLDER~1\AppData\Local\Temp\ccYCTqm0.s:24983  .debug_str:00000000000087d1 .LASF4371
C:\Users\SOLDER~1\AppData\Local\Temp\ccYCTqm0.s:34167  .debug_str:000000000002d8f3 .LASF4372
C:\Users\SOLDER~1\AppData\Local\Temp\ccYCTqm0.s:28047  .debug_str:0000000000014e7a .LASF4373
C:\Users\SOLDER~1\AppData\Local\Temp\ccYCTqm0.s:26321  .debug_str:000000000000dea2 .LASF4374
C:\Users\SOLDER~1\AppData\Local\Temp\ccYCTqm0.s:29155  .debug_str:0000000000019573 .LASF4375
C:\Users\SOLDER~1\AppData\Local\Temp\ccYCTqm0.s:28027  .debug_str:0000000000014d33 .LASF4376
C:\Users\SOLDER~1\AppData\Local\Temp\ccYCTqm0.s:29441  .debug_str:000000000001a778 .LASF4377
C:\Users\SOLDER~1\AppData\Local\Temp\ccYCTqm0.s:26199  .debug_str:000000000000d6cf .LASF4378
C:\Users\SOLDER~1\AppData\Local\Temp\ccYCTqm0.s:30223  .debug_str:000000000001d991 .LASF4379
C:\Users\SOLDER~1\AppData\Local\Temp\ccYCTqm0.s:32029  .debug_str:0000000000024db1 .LASF4380
C:\Users\SOLDER~1\AppData\Local\Temp\ccYCTqm0.s:25131  .debug_str:0000000000009185 .LASF4381
C:\Users\SOLDER~1\AppData\Local\Temp\ccYCTqm0.s:25517  .debug_str:000000000000ab1b .LASF4382
C:\Users\SOLDER~1\AppData\Local\Temp\ccYCTqm0.s:26093  .debug_str:000000000000cfe1 .LASF4383
C:\Users\SOLDER~1\AppData\Local\Temp\ccYCTqm0.s:33189  .debug_str:00000000000299b6 .LASF4384
C:\Users\SOLDER~1\AppData\Local\Temp\ccYCTqm0.s:29701  .debug_str:000000000001b7f7 .LASF4385
C:\Users\SOLDER~1\AppData\Local\Temp\ccYCTqm0.s:26271  .debug_str:000000000000dbb2 .LASF4386
C:\Users\SOLDER~1\AppData\Local\Temp\ccYCTqm0.s:23043  .debug_str:0000000000000b31 .LASF4387
C:\Users\SOLDER~1\AppData\Local\Temp\ccYCTqm0.s:25099  .debug_str:0000000000008f38 .LASF4388
C:\Users\SOLDER~1\AppData\Local\Temp\ccYCTqm0.s:27919  .debug_str:00000000000145d7 .LASF4389
C:\Users\SOLDER~1\AppData\Local\Temp\ccYCTqm0.s:23989  .debug_str:000000000000478a .LASF4390
C:\Users\SOLDER~1\AppData\Local\Temp\ccYCTqm0.s:24047  .debug_str:0000000000004b53 .LASF4391
C:\Users\SOLDER~1\AppData\Local\Temp\ccYCTqm0.s:34191  .debug_str:000000000002da50 .LASF4392
C:\Users\SOLDER~1\AppData\Local\Temp\ccYCTqm0.s:29025  .debug_str:0000000000018d12 .LASF4393
C:\Users\SOLDER~1\AppData\Local\Temp\ccYCTqm0.s:34315  .debug_str:000000000002e239 .LASF4394
C:\Users\SOLDER~1\AppData\Local\Temp\ccYCTqm0.s:26625  .debug_str:000000000000f24f .LASF4395
C:\Users\SOLDER~1\AppData\Local\Temp\ccYCTqm0.s:26183  .debug_str:000000000000d5cc .LASF4396
C:\Users\SOLDER~1\AppData\Local\Temp\ccYCTqm0.s:25753  .debug_str:000000000000b9e4 .LASF4397
C:\Users\SOLDER~1\AppData\Local\Temp\ccYCTqm0.s:32935  .debug_str:000000000002896c .LASF4398
C:\Users\SOLDER~1\AppData\Local\Temp\ccYCTqm0.s:24171  .debug_str:00000000000052e6 .LASF4399
C:\Users\SOLDER~1\AppData\Local\Temp\ccYCTqm0.s:27831  .debug_str:0000000000013ff3 .LASF4400
C:\Users\SOLDER~1\AppData\Local\Temp\ccYCTqm0.s:29333  .debug_str:000000000001a0db .LASF4401
C:\Users\SOLDER~1\AppData\Local\Temp\ccYCTqm0.s:29255  .debug_str:0000000000019bf5 .LASF4402
C:\Users\SOLDER~1\AppData\Local\Temp\ccYCTqm0.s:30129  .debug_str:000000000001d3a6 .LASF4403
C:\Users\SOLDER~1\AppData\Local\Temp\ccYCTqm0.s:27887  .debug_str:000000000001436e .LASF4404
C:\Users\SOLDER~1\AppData\Local\Temp\ccYCTqm0.s:31385  .debug_str:0000000000022411 .LASF4405
C:\Users\SOLDER~1\AppData\Local\Temp\ccYCTqm0.s:25103  .debug_str:0000000000008f82 .LASF4406
C:\Users\SOLDER~1\AppData\Local\Temp\ccYCTqm0.s:34225  .debug_str:000000000002dc9a .LASF4407
C:\Users\SOLDER~1\AppData\Local\Temp\ccYCTqm0.s:28495  .debug_str:0000000000016ac9 .LASF4408
C:\Users\SOLDER~1\AppData\Local\Temp\ccYCTqm0.s:31247  .debug_str:0000000000021b60 .LASF4409
C:\Users\SOLDER~1\AppData\Local\Temp\ccYCTqm0.s:28835  .debug_str:00000000000180d6 .LASF4410
C:\Users\SOLDER~1\AppData\Local\Temp\ccYCTqm0.s:31971  .debug_str:00000000000249f6 .LASF4411
C:\Users\SOLDER~1\AppData\Local\Temp\ccYCTqm0.s:31807  .debug_str:0000000000023f63 .LASF4412
C:\Users\SOLDER~1\AppData\Local\Temp\ccYCTqm0.s:32351  .debug_str:00000000000262f6 .LASF4413
C:\Users\SOLDER~1\AppData\Local\Temp\ccYCTqm0.s:32897  .debug_str:00000000000286ef .LASF4414
C:\Users\SOLDER~1\AppData\Local\Temp\ccYCTqm0.s:27053  .debug_str:0000000000010dc1 .LASF4415
C:\Users\SOLDER~1\AppData\Local\Temp\ccYCTqm0.s:27879  .debug_str:00000000000142ea .LASF4416
C:\Users\SOLDER~1\AppData\Local\Temp\ccYCTqm0.s:28625  .debug_str:00000000000172cd .LASF4417
C:\Users\SOLDER~1\AppData\Local\Temp\ccYCTqm0.s:23867  .debug_str:0000000000003ffd .LASF4418
C:\Users\SOLDER~1\AppData\Local\Temp\ccYCTqm0.s:23489  .debug_str:00000000000027cb .LASF4419
GAS LISTING C:\Users\SOLDER~1\AppData\Local\Temp\ccYCTqm0.s 			page 182


C:\Users\SOLDER~1\AppData\Local\Temp\ccYCTqm0.s:25453  .debug_str:000000000000a68c .LASF4420
C:\Users\SOLDER~1\AppData\Local\Temp\ccYCTqm0.s:30151  .debug_str:000000000001d4c8 .LASF4421
C:\Users\SOLDER~1\AppData\Local\Temp\ccYCTqm0.s:29275  .debug_str:0000000000019d0a .LASF4422
C:\Users\SOLDER~1\AppData\Local\Temp\ccYCTqm0.s:27377  .debug_str:000000000001222c .LASF4423
C:\Users\SOLDER~1\AppData\Local\Temp\ccYCTqm0.s:30305  .debug_str:000000000001de58 .LASF4424
C:\Users\SOLDER~1\AppData\Local\Temp\ccYCTqm0.s:24389  .debug_str:0000000000006110 .LASF4425
C:\Users\SOLDER~1\AppData\Local\Temp\ccYCTqm0.s:28013  .debug_str:0000000000014c20 .LASF4426
C:\Users\SOLDER~1\AppData\Local\Temp\ccYCTqm0.s:24537  .debug_str:0000000000006b68 .LASF4427
C:\Users\SOLDER~1\AppData\Local\Temp\ccYCTqm0.s:34515  .debug_str:000000000002ef2a .LASF4428
C:\Users\SOLDER~1\AppData\Local\Temp\ccYCTqm0.s:29531  .debug_str:000000000001ad96 .LASF4429
C:\Users\SOLDER~1\AppData\Local\Temp\ccYCTqm0.s:34237  .debug_str:000000000002dd67 .LASF4430
C:\Users\SOLDER~1\AppData\Local\Temp\ccYCTqm0.s:33241  .debug_str:0000000000029ce2 .LASF4431
C:\Users\SOLDER~1\AppData\Local\Temp\ccYCTqm0.s:29281  .debug_str:0000000000019d75 .LASF4432
C:\Users\SOLDER~1\AppData\Local\Temp\ccYCTqm0.s:33735  .debug_str:000000000002bceb .LASF4433
C:\Users\SOLDER~1\AppData\Local\Temp\ccYCTqm0.s:27235  .debug_str:000000000001194a .LASF4434
C:\Users\SOLDER~1\AppData\Local\Temp\ccYCTqm0.s:34049  .debug_str:000000000002d0f8 .LASF4435
C:\Users\SOLDER~1\AppData\Local\Temp\ccYCTqm0.s:29249  .debug_str:0000000000019ba6 .LASF4436
C:\Users\SOLDER~1\AppData\Local\Temp\ccYCTqm0.s:32911  .debug_str:00000000000287ea .LASF4437
C:\Users\SOLDER~1\AppData\Local\Temp\ccYCTqm0.s:31549  .debug_str:0000000000022eaf .LASF4438
C:\Users\SOLDER~1\AppData\Local\Temp\ccYCTqm0.s:26777  .debug_str:000000000000fc06 .LASF4439
C:\Users\SOLDER~1\AppData\Local\Temp\ccYCTqm0.s:32183  .debug_str:00000000000257aa .LASF4440
C:\Users\SOLDER~1\AppData\Local\Temp\ccYCTqm0.s:28569  .debug_str:0000000000016f62 .LASF4441
C:\Users\SOLDER~1\AppData\Local\Temp\ccYCTqm0.s:32989  .debug_str:0000000000028d23 .LASF4442
C:\Users\SOLDER~1\AppData\Local\Temp\ccYCTqm0.s:28473  .debug_str:00000000000169a2 .LASF4443
C:\Users\SOLDER~1\AppData\Local\Temp\ccYCTqm0.s:25875  .debug_str:000000000000c143 .LASF4444
C:\Users\SOLDER~1\AppData\Local\Temp\ccYCTqm0.s:28259  .debug_str:0000000000015c0d .LASF4445
C:\Users\SOLDER~1\AppData\Local\Temp\ccYCTqm0.s:29027  .debug_str:0000000000018d32 .LASF4446
C:\Users\SOLDER~1\AppData\Local\Temp\ccYCTqm0.s:26069  .debug_str:000000000000ce3f .LASF4447
C:\Users\SOLDER~1\AppData\Local\Temp\ccYCTqm0.s:29861  .debug_str:000000000001c221 .LASF4448
C:\Users\SOLDER~1\AppData\Local\Temp\ccYCTqm0.s:31375  .debug_str:0000000000022375 .LASF4449
C:\Users\SOLDER~1\AppData\Local\Temp\ccYCTqm0.s:33091  .debug_str:000000000002932e .LASF4450
C:\Users\SOLDER~1\AppData\Local\Temp\ccYCTqm0.s:31123  .debug_str:000000000002135d .LASF4451
C:\Users\SOLDER~1\AppData\Local\Temp\ccYCTqm0.s:29633  .debug_str:000000000001b418 .LASF4452
C:\Users\SOLDER~1\AppData\Local\Temp\ccYCTqm0.s:27765  .debug_str:0000000000013b18 .LASF4453
C:\Users\SOLDER~1\AppData\Local\Temp\ccYCTqm0.s:30109  .debug_str:000000000001d27c .LASF4454
C:\Users\SOLDER~1\AppData\Local\Temp\ccYCTqm0.s:27401  .debug_str:00000000000123b4 .LASF4455
C:\Users\SOLDER~1\AppData\Local\Temp\ccYCTqm0.s:32525  .debug_str:0000000000026ea9 .LASF4456
C:\Users\SOLDER~1\AppData\Local\Temp\ccYCTqm0.s:26873  .debug_str:00000000000102d0 .LASF4457
C:\Users\SOLDER~1\AppData\Local\Temp\ccYCTqm0.s:33347  .debug_str:000000000002a3e1 .LASF4458
C:\Users\SOLDER~1\AppData\Local\Temp\ccYCTqm0.s:32215  .debug_str:0000000000025997 .LASF4459
C:\Users\SOLDER~1\AppData\Local\Temp\ccYCTqm0.s:33275  .debug_str:0000000000029ef7 .LASF4460
C:\Users\SOLDER~1\AppData\Local\Temp\ccYCTqm0.s:27297  .debug_str:0000000000011d3d .LASF4461
C:\Users\SOLDER~1\AppData\Local\Temp\ccYCTqm0.s:28633  .debug_str:0000000000017360 .LASF4462
C:\Users\SOLDER~1\AppData\Local\Temp\ccYCTqm0.s:29467  .debug_str:000000000001a95a .LASF4463
C:\Users\SOLDER~1\AppData\Local\Temp\ccYCTqm0.s:31795  .debug_str:0000000000023e92 .LASF4464
C:\Users\SOLDER~1\AppData\Local\Temp\ccYCTqm0.s:29835  .debug_str:000000000001c047 .LASF4465
C:\Users\SOLDER~1\AppData\Local\Temp\ccYCTqm0.s:29439  .debug_str:000000000001a761 .LASF4466
C:\Users\SOLDER~1\AppData\Local\Temp\ccYCTqm0.s:29129  .debug_str:00000000000193fc .LASF4467
C:\Users\SOLDER~1\AppData\Local\Temp\ccYCTqm0.s:30017  .debug_str:000000000001cc39 .LASF4468
C:\Users\SOLDER~1\AppData\Local\Temp\ccYCTqm0.s:28545  .debug_str:0000000000016de5 .LASF4469
C:\Users\SOLDER~1\AppData\Local\Temp\ccYCTqm0.s:32991  .debug_str:0000000000028d34 .LASF4470
C:\Users\SOLDER~1\AppData\Local\Temp\ccYCTqm0.s:33761  .debug_str:000000000002be93 .LASF4471
C:\Users\SOLDER~1\AppData\Local\Temp\ccYCTqm0.s:24105  .debug_str:0000000000004ef4 .LASF4472
C:\Users\SOLDER~1\AppData\Local\Temp\ccYCTqm0.s:34165  .debug_str:000000000002d8dc .LASF4473
C:\Users\SOLDER~1\AppData\Local\Temp\ccYCTqm0.s:26941  .debug_str:00000000000106bc .LASF4474
C:\Users\SOLDER~1\AppData\Local\Temp\ccYCTqm0.s:33435  .debug_str:000000000002a9a6 .LASF4475
C:\Users\SOLDER~1\AppData\Local\Temp\ccYCTqm0.s:28713  .debug_str:0000000000017907 .LASF4476
GAS LISTING C:\Users\SOLDER~1\AppData\Local\Temp\ccYCTqm0.s 			page 183


C:\Users\SOLDER~1\AppData\Local\Temp\ccYCTqm0.s:30315  .debug_str:000000000001deda .LASF4477
C:\Users\SOLDER~1\AppData\Local\Temp\ccYCTqm0.s:32637  .debug_str:00000000000275cf .LASF4478
C:\Users\SOLDER~1\AppData\Local\Temp\ccYCTqm0.s:33249  .debug_str:0000000000029d43 .LASF4479
C:\Users\SOLDER~1\AppData\Local\Temp\ccYCTqm0.s:31263  .debug_str:0000000000021c70 .LASF4480
C:\Users\SOLDER~1\AppData\Local\Temp\ccYCTqm0.s:27257  .debug_str:0000000000011aa0 .LASF4481
C:\Users\SOLDER~1\AppData\Local\Temp\ccYCTqm0.s:34333  .debug_str:000000000002e371 .LASF4482
C:\Users\SOLDER~1\AppData\Local\Temp\ccYCTqm0.s:25473  .debug_str:000000000000a7cc .LASF4483
C:\Users\SOLDER~1\AppData\Local\Temp\ccYCTqm0.s:33333  .debug_str:000000000002a2ea .LASF4484
C:\Users\SOLDER~1\AppData\Local\Temp\ccYCTqm0.s:24601  .debug_str:0000000000006f27 .LASF4485
C:\Users\SOLDER~1\AppData\Local\Temp\ccYCTqm0.s:33997  .debug_str:000000000002cd91 .LASF4486
C:\Users\SOLDER~1\AppData\Local\Temp\ccYCTqm0.s:34109  .debug_str:000000000002d51b .LASF4487
C:\Users\SOLDER~1\AppData\Local\Temp\ccYCTqm0.s:33661  .debug_str:000000000002b824 .LASF4488
C:\Users\SOLDER~1\AppData\Local\Temp\ccYCTqm0.s:29647  .debug_str:000000000001b4cf .LASF4489
C:\Users\SOLDER~1\AppData\Local\Temp\ccYCTqm0.s:27757  .debug_str:0000000000013ab2 .LASF4490
C:\Users\SOLDER~1\AppData\Local\Temp\ccYCTqm0.s:28335  .debug_str:00000000000160e0 .LASF4491
C:\Users\SOLDER~1\AppData\Local\Temp\ccYCTqm0.s:27509  .debug_str:0000000000012a6f .LASF4492
C:\Users\SOLDER~1\AppData\Local\Temp\ccYCTqm0.s:33511  .debug_str:000000000002ae3c .LASF4493
C:\Users\SOLDER~1\AppData\Local\Temp\ccYCTqm0.s:28645  .debug_str:000000000001741c .LASF4494
C:\Users\SOLDER~1\AppData\Local\Temp\ccYCTqm0.s:32243  .debug_str:0000000000025b73 .LASF4495
C:\Users\SOLDER~1\AppData\Local\Temp\ccYCTqm0.s:28773  .debug_str:0000000000017cc9 .LASF4496
C:\Users\SOLDER~1\AppData\Local\Temp\ccYCTqm0.s:30991  .debug_str:0000000000020afd .LASF4497
C:\Users\SOLDER~1\AppData\Local\Temp\ccYCTqm0.s:34195  .debug_str:000000000002da7f .LASF4498
C:\Users\SOLDER~1\AppData\Local\Temp\ccYCTqm0.s:28037  .debug_str:0000000000014dd2 .LASF4499
C:\Users\SOLDER~1\AppData\Local\Temp\ccYCTqm0.s:29187  .debug_str:0000000000019761 .LASF4500
C:\Users\SOLDER~1\AppData\Local\Temp\ccYCTqm0.s:30391  .debug_str:000000000001e3ea .LASF4501
C:\Users\SOLDER~1\AppData\Local\Temp\ccYCTqm0.s:31477  .debug_str:00000000000229ba .LASF4502
C:\Users\SOLDER~1\AppData\Local\Temp\ccYCTqm0.s:29909  .debug_str:000000000001c539 .LASF4503
C:\Users\SOLDER~1\AppData\Local\Temp\ccYCTqm0.s:32729  .debug_str:0000000000027be0 .LASF4504
C:\Users\SOLDER~1\AppData\Local\Temp\ccYCTqm0.s:31519  .debug_str:0000000000022c85 .LASF4505
C:\Users\SOLDER~1\AppData\Local\Temp\ccYCTqm0.s:23313  .debug_str:0000000000001c42 .LASF4506
C:\Users\SOLDER~1\AppData\Local\Temp\ccYCTqm0.s:32277  .debug_str:0000000000025dd6 .LASF4507
C:\Users\SOLDER~1\AppData\Local\Temp\ccYCTqm0.s:24503  .debug_str:00000000000068be .LASF4508
C:\Users\SOLDER~1\AppData\Local\Temp\ccYCTqm0.s:27211  .debug_str:0000000000011778 .LASF4509
C:\Users\SOLDER~1\AppData\Local\Temp\ccYCTqm0.s:29717  .debug_str:000000000001b8ee .LASF4510
C:\Users\SOLDER~1\AppData\Local\Temp\ccYCTqm0.s:23861  .debug_str:0000000000003f95 .LASF4511
C:\Users\SOLDER~1\AppData\Local\Temp\ccYCTqm0.s:31259  .debug_str:0000000000021c2d .LASF4512
C:\Users\SOLDER~1\AppData\Local\Temp\ccYCTqm0.s:31339  .debug_str:0000000000022129 .LASF4513
C:\Users\SOLDER~1\AppData\Local\Temp\ccYCTqm0.s:30845  .debug_str:00000000000201ac .LASF4514
C:\Users\SOLDER~1\AppData\Local\Temp\ccYCTqm0.s:25337  .debug_str:0000000000009eff .LASF4515
C:\Users\SOLDER~1\AppData\Local\Temp\ccYCTqm0.s:28197  .debug_str:0000000000015850 .LASF4516
C:\Users\SOLDER~1\AppData\Local\Temp\ccYCTqm0.s:30697  .debug_str:000000000001f7ff .LASF4517
C:\Users\SOLDER~1\AppData\Local\Temp\ccYCTqm0.s:34563  .debug_str:000000000002f217 .LASF4518
C:\Users\SOLDER~1\AppData\Local\Temp\ccYCTqm0.s:30443  .debug_str:000000000001e73a .LASF4519
C:\Users\SOLDER~1\AppData\Local\Temp\ccYCTqm0.s:23177  .debug_str:00000000000013a2 .LASF4520
C:\Users\SOLDER~1\AppData\Local\Temp\ccYCTqm0.s:29791  .debug_str:000000000001bd77 .LASF4521
C:\Users\SOLDER~1\AppData\Local\Temp\ccYCTqm0.s:26065  .debug_str:000000000000ce03 .LASF4522
C:\Users\SOLDER~1\AppData\Local\Temp\ccYCTqm0.s:32153  .debug_str:00000000000255a9 .LASF4523
C:\Users\SOLDER~1\AppData\Local\Temp\ccYCTqm0.s:26261  .debug_str:000000000000db02 .LASF4524
C:\Users\SOLDER~1\AppData\Local\Temp\ccYCTqm0.s:30191  .debug_str:000000000001d782 .LASF4525
C:\Users\SOLDER~1\AppData\Local\Temp\ccYCTqm0.s:29111  .debug_str:00000000000192c3 .LASF4526
C:\Users\SOLDER~1\AppData\Local\Temp\ccYCTqm0.s:28125  .debug_str:000000000001536c .LASF4527
C:\Users\SOLDER~1\AppData\Local\Temp\ccYCTqm0.s:32101  .debug_str:0000000000025270 .LASF4528
C:\Users\SOLDER~1\AppData\Local\Temp\ccYCTqm0.s:33605  .debug_str:000000000002b46a .LASF4529
C:\Users\SOLDER~1\AppData\Local\Temp\ccYCTqm0.s:25745  .debug_str:000000000000b978 .LASF4530
C:\Users\SOLDER~1\AppData\Local\Temp\ccYCTqm0.s:32033  .debug_str:0000000000024df4 .LASF4531
C:\Users\SOLDER~1\AppData\Local\Temp\ccYCTqm0.s:25179  .debug_str:00000000000094d6 .LASF4532
C:\Users\SOLDER~1\AppData\Local\Temp\ccYCTqm0.s:24363  .debug_str:0000000000005f6d .LASF4533
GAS LISTING C:\Users\SOLDER~1\AppData\Local\Temp\ccYCTqm0.s 			page 184


C:\Users\SOLDER~1\AppData\Local\Temp\ccYCTqm0.s:32349  .debug_str:00000000000262bd .LASF4534
C:\Users\SOLDER~1\AppData\Local\Temp\ccYCTqm0.s:33827  .debug_str:000000000002c2bc .LASF4535
C:\Users\SOLDER~1\AppData\Local\Temp\ccYCTqm0.s:28451  .debug_str:0000000000016852 .LASF4536
C:\Users\SOLDER~1\AppData\Local\Temp\ccYCTqm0.s:24055  .debug_str:0000000000004bca .LASF4537
C:\Users\SOLDER~1\AppData\Local\Temp\ccYCTqm0.s:26693  .debug_str:000000000000f6a3 .LASF4538
C:\Users\SOLDER~1\AppData\Local\Temp\ccYCTqm0.s:27683  .debug_str:00000000000135a0 .LASF4539
C:\Users\SOLDER~1\AppData\Local\Temp\ccYCTqm0.s:30015  .debug_str:000000000001cbfe .LASF4540
C:\Users\SOLDER~1\AppData\Local\Temp\ccYCTqm0.s:29985  .debug_str:000000000001c9f7 .LASF4541
C:\Users\SOLDER~1\AppData\Local\Temp\ccYCTqm0.s:27899  .debug_str:000000000001443b .LASF4542
C:\Users\SOLDER~1\AppData\Local\Temp\ccYCTqm0.s:33881  .debug_str:000000000002c68e .LASF4543
C:\Users\SOLDER~1\AppData\Local\Temp\ccYCTqm0.s:33853  .debug_str:000000000002c49d .LASF4544
C:\Users\SOLDER~1\AppData\Local\Temp\ccYCTqm0.s:32037  .debug_str:0000000000024e50 .LASF4545
C:\Users\SOLDER~1\AppData\Local\Temp\ccYCTqm0.s:26413  .debug_str:000000000000e4f1 .LASF4546
C:\Users\SOLDER~1\AppData\Local\Temp\ccYCTqm0.s:24507  .debug_str:000000000000691c .LASF4547
C:\Users\SOLDER~1\AppData\Local\Temp\ccYCTqm0.s:24567  .debug_str:0000000000006d44 .LASF4548
C:\Users\SOLDER~1\AppData\Local\Temp\ccYCTqm0.s:27657  .debug_str:00000000000133f4 .LASF4549
C:\Users\SOLDER~1\AppData\Local\Temp\ccYCTqm0.s:29461  .debug_str:000000000001a902 .LASF4550
C:\Users\SOLDER~1\AppData\Local\Temp\ccYCTqm0.s:29877  .debug_str:000000000001c334 .LASF4551
C:\Users\SOLDER~1\AppData\Local\Temp\ccYCTqm0.s:28971  .debug_str:00000000000189c0 .LASF4552
C:\Users\SOLDER~1\AppData\Local\Temp\ccYCTqm0.s:33199  .debug_str:0000000000029a74 .LASF4553
C:\Users\SOLDER~1\AppData\Local\Temp\ccYCTqm0.s:23229  .debug_str:000000000000170a .LASF4554
C:\Users\SOLDER~1\AppData\Local\Temp\ccYCTqm0.s:31319  .debug_str:0000000000021fd1 .LASF4555
C:\Users\SOLDER~1\AppData\Local\Temp\ccYCTqm0.s:31065  .debug_str:0000000000020fa5 .LASF4556
C:\Users\SOLDER~1\AppData\Local\Temp\ccYCTqm0.s:28947  .debug_str:0000000000018859 .LASF4557
C:\Users\SOLDER~1\AppData\Local\Temp\ccYCTqm0.s:33713  .debug_str:000000000002bb9b .LASF4558
C:\Users\SOLDER~1\AppData\Local\Temp\ccYCTqm0.s:26915  .debug_str:000000000001055d .LASF4559
C:\Users\SOLDER~1\AppData\Local\Temp\ccYCTqm0.s:27005  .debug_str:0000000000010a8e .LASF4560
C:\Users\SOLDER~1\AppData\Local\Temp\ccYCTqm0.s:27105  .debug_str:00000000000110cc .LASF4561
C:\Users\SOLDER~1\AppData\Local\Temp\ccYCTqm0.s:33025  .debug_str:0000000000028f4d .LASF4562
C:\Users\SOLDER~1\AppData\Local\Temp\ccYCTqm0.s:26979  .debug_str:0000000000010932 .LASF4563
C:\Users\SOLDER~1\AppData\Local\Temp\ccYCTqm0.s:25377  .debug_str:000000000000a1b0 .LASF4564
C:\Users\SOLDER~1\AppData\Local\Temp\ccYCTqm0.s:24741  .debug_str:0000000000007881 .LASF4565
C:\Users\SOLDER~1\AppData\Local\Temp\ccYCTqm0.s:24009  .debug_str:00000000000048e8 .LASF4566
C:\Users\SOLDER~1\AppData\Local\Temp\ccYCTqm0.s:27419  .debug_str:00000000000124c6 .LASF4567
C:\Users\SOLDER~1\AppData\Local\Temp\ccYCTqm0.s:32687  .debug_str:0000000000027933 .LASF4568
C:\Users\SOLDER~1\AppData\Local\Temp\ccYCTqm0.s:28415  .debug_str:000000000001660b .LASF4569
C:\Users\SOLDER~1\AppData\Local\Temp\ccYCTqm0.s:30145  .debug_str:000000000001d46d .LASF4570
C:\Users\SOLDER~1\AppData\Local\Temp\ccYCTqm0.s:30335  .debug_str:000000000001e039 .LASF4571
C:\Users\SOLDER~1\AppData\Local\Temp\ccYCTqm0.s:27139  .debug_str:00000000000112ea .LASF4572
C:\Users\SOLDER~1\AppData\Local\Temp\ccYCTqm0.s:28739  .debug_str:0000000000017ab9 .LASF4573
C:\Users\SOLDER~1\AppData\Local\Temp\ccYCTqm0.s:33717  .debug_str:000000000002bbe8 .LASF4574
C:\Users\SOLDER~1\AppData\Local\Temp\ccYCTqm0.s:30327  .debug_str:000000000001dfab .LASF4575
C:\Users\SOLDER~1\AppData\Local\Temp\ccYCTqm0.s:23463  .debug_str:000000000000264c .LASF4576
C:\Users\SOLDER~1\AppData\Local\Temp\ccYCTqm0.s:25567  .debug_str:000000000000ae47 .LASF4577
C:\Users\SOLDER~1\AppData\Local\Temp\ccYCTqm0.s:25525  .debug_str:000000000000ab8d .LASF4578
C:\Users\SOLDER~1\AppData\Local\Temp\ccYCTqm0.s:29889  .debug_str:000000000001c3ea .LASF4579
C:\Users\SOLDER~1\AppData\Local\Temp\ccYCTqm0.s:27055  .debug_str:0000000000010de1 .LASF4580
C:\Users\SOLDER~1\AppData\Local\Temp\ccYCTqm0.s:29805  .debug_str:000000000001be82 .LASF4581
C:\Users\SOLDER~1\AppData\Local\Temp\ccYCTqm0.s:32739  .debug_str:0000000000027c8b .LASF4582
C:\Users\SOLDER~1\AppData\Local\Temp\ccYCTqm0.s:25901  .debug_str:000000000000c2f6 .LASF4583
C:\Users\SOLDER~1\AppData\Local\Temp\ccYCTqm0.s:24761  .debug_str:00000000000079b0 .LASF4584
C:\Users\SOLDER~1\AppData\Local\Temp\ccYCTqm0.s:28805  .debug_str:0000000000017ee2 .LASF4585
C:\Users\SOLDER~1\AppData\Local\Temp\ccYCTqm0.s:29737  .debug_str:000000000001ba37 .LASF4586
C:\Users\SOLDER~1\AppData\Local\Temp\ccYCTqm0.s:24279  .debug_str:00000000000059b9 .LASF4587
C:\Users\SOLDER~1\AppData\Local\Temp\ccYCTqm0.s:24863  .debug_str:0000000000008012 .LASF4588
C:\Users\SOLDER~1\AppData\Local\Temp\ccYCTqm0.s:25067  .debug_str:0000000000008d3a .LASF4589
C:\Users\SOLDER~1\AppData\Local\Temp\ccYCTqm0.s:30473  .debug_str:000000000001e918 .LASF4590
GAS LISTING C:\Users\SOLDER~1\AppData\Local\Temp\ccYCTqm0.s 			page 185


C:\Users\SOLDER~1\AppData\Local\Temp\ccYCTqm0.s:34029  .debug_str:000000000002cfa2 .LASF4591
C:\Users\SOLDER~1\AppData\Local\Temp\ccYCTqm0.s:24779  .debug_str:0000000000007a9a .LASF4594
C:\Users\SOLDER~1\AppData\Local\Temp\ccYCTqm0.s:29503  .debug_str:000000000001aba3 .LASF4595
C:\Users\SOLDER~1\AppData\Local\Temp\ccYCTqm0.s:27779  .debug_str:0000000000013c3e .LASF4596
C:\Users\SOLDER~1\AppData\Local\Temp\ccYCTqm0.s:24535  .debug_str:0000000000006b31 .LASF4597
C:\Users\SOLDER~1\AppData\Local\Temp\ccYCTqm0.s:32113  .debug_str:000000000002532c .LASF4598
C:\Users\SOLDER~1\AppData\Local\Temp\ccYCTqm0.s:28183  .debug_str:000000000001574e .LASF4599
C:\Users\SOLDER~1\AppData\Local\Temp\ccYCTqm0.s:33625  .debug_str:000000000002b60a .LASF4600
C:\Users\SOLDER~1\AppData\Local\Temp\ccYCTqm0.s:28527  .debug_str:0000000000016cb8 .LASF4601
C:\Users\SOLDER~1\AppData\Local\Temp\ccYCTqm0.s:26109  .debug_str:000000000000d0ea .LASF4602
C:\Users\SOLDER~1\AppData\Local\Temp\ccYCTqm0.s:27901  .debug_str:0000000000014475 .LASF4603
C:\Users\SOLDER~1\AppData\Local\Temp\ccYCTqm0.s:26781  .debug_str:000000000000fc3c .LASF4604
C:\Users\SOLDER~1\AppData\Local\Temp\ccYCTqm0.s:33341  .debug_str:000000000002a35d .LASF4605
C:\Users\SOLDER~1\AppData\Local\Temp\ccYCTqm0.s:34471  .debug_str:000000000002ec0d .LASF4606
C:\Users\SOLDER~1\AppData\Local\Temp\ccYCTqm0.s:31805  .debug_str:0000000000023f2f .LASF4607
C:\Users\SOLDER~1\AppData\Local\Temp\ccYCTqm0.s:25463  .debug_str:000000000000a726 .LASF4608
C:\Users\SOLDER~1\AppData\Local\Temp\ccYCTqm0.s:27669  .debug_str:0000000000013488 .LASF4609
C:\Users\SOLDER~1\AppData\Local\Temp\ccYCTqm0.s:31789  .debug_str:0000000000023e15 .LASF4610
C:\Users\SOLDER~1\AppData\Local\Temp\ccYCTqm0.s:24633  .debug_str:000000000000714e .LASF4611
C:\Users\SOLDER~1\AppData\Local\Temp\ccYCTqm0.s:30719  .debug_str:000000000001f9a1 .LASF4612
C:\Users\SOLDER~1\AppData\Local\Temp\ccYCTqm0.s:23847  .debug_str:0000000000003ea2 .LASF4613
C:\Users\SOLDER~1\AppData\Local\Temp\ccYCTqm0.s:32459  .debug_str:0000000000026a10 .LASF4614
C:\Users\SOLDER~1\AppData\Local\Temp\ccYCTqm0.s:25057  .debug_str:0000000000008c8c .LASF4615
C:\Users\SOLDER~1\AppData\Local\Temp\ccYCTqm0.s:32513  .debug_str:0000000000026dba .LASF4616
C:\Users\SOLDER~1\AppData\Local\Temp\ccYCTqm0.s:24641  .debug_str:00000000000071fa .LASF4617
C:\Users\SOLDER~1\AppData\Local\Temp\ccYCTqm0.s:23577  .debug_str:0000000000002d4c .LASF4618
C:\Users\SOLDER~1\AppData\Local\Temp\ccYCTqm0.s:25681  .debug_str:000000000000b532 .LASF4619
C:\Users\SOLDER~1\AppData\Local\Temp\ccYCTqm0.s:25805  .debug_str:000000000000bccb .LASF4620
C:\Users\SOLDER~1\AppData\Local\Temp\ccYCTqm0.s:24739  .debug_str:0000000000007863 .LASF4621
C:\Users\SOLDER~1\AppData\Local\Temp\ccYCTqm0.s:27965  .debug_str:00000000000148f9 .LASF4622
C:\Users\SOLDER~1\AppData\Local\Temp\ccYCTqm0.s:26787  .debug_str:000000000000fcb5 .LASF4623
C:\Users\SOLDER~1\AppData\Local\Temp\ccYCTqm0.s:26911  .debug_str:000000000001052d .LASF4624
C:\Users\SOLDER~1\AppData\Local\Temp\ccYCTqm0.s:33501  .debug_str:000000000002ad97 .LASF4625
C:\Users\SOLDER~1\AppData\Local\Temp\ccYCTqm0.s:28565  .debug_str:0000000000016f20 .LASF4626
C:\Users\SOLDER~1\AppData\Local\Temp\ccYCTqm0.s:30567  .debug_str:000000000001ef61 .LASF4627
C:\Users\SOLDER~1\AppData\Local\Temp\ccYCTqm0.s:27875  .debug_str:00000000000142ae .LASF4628
C:\Users\SOLDER~1\AppData\Local\Temp\ccYCTqm0.s:25249  .debug_str:000000000000996e .LASF4629
C:\Users\SOLDER~1\AppData\Local\Temp\ccYCTqm0.s:30459  .debug_str:000000000001e823 .LASF4630
C:\Users\SOLDER~1\AppData\Local\Temp\ccYCTqm0.s:31435  .debug_str:00000000000226dc .LASF4631
C:\Users\SOLDER~1\AppData\Local\Temp\ccYCTqm0.s:30271  .debug_str:000000000001dc61 .LASF4632
C:\Users\SOLDER~1\AppData\Local\Temp\ccYCTqm0.s:34149  .debug_str:000000000002d7c5 .LASF4633
C:\Users\SOLDER~1\AppData\Local\Temp\ccYCTqm0.s:31403  .debug_str:000000000002251f .LASF4634
C:\Users\SOLDER~1\AppData\Local\Temp\ccYCTqm0.s:22903  .debug_str:0000000000000169 .LASF4635
C:\Users\SOLDER~1\AppData\Local\Temp\ccYCTqm0.s:28675  .debug_str:0000000000017663 .LASF4636
C:\Users\SOLDER~1\AppData\Local\Temp\ccYCTqm0.s:27751  .debug_str:0000000000013a43 .LASF4637
C:\Users\SOLDER~1\AppData\Local\Temp\ccYCTqm0.s:27725  .debug_str:0000000000013864 .LASF4638
C:\Users\SOLDER~1\AppData\Local\Temp\ccYCTqm0.s:27727  .debug_str:0000000000013895 .LASF4639
C:\Users\SOLDER~1\AppData\Local\Temp\ccYCTqm0.s:33337  .debug_str:000000000002a318 .LASF4640
C:\Users\SOLDER~1\AppData\Local\Temp\ccYCTqm0.s:26009  .debug_str:000000000000ca59 .LASF4641
C:\Users\SOLDER~1\AppData\Local\Temp\ccYCTqm0.s:34585  .debug_str:000000000002f37f .LASF4642
C:\Users\SOLDER~1\AppData\Local\Temp\ccYCTqm0.s:31389  .debug_str:0000000000022454 .LASF4643
C:\Users\SOLDER~1\AppData\Local\Temp\ccYCTqm0.s:26241  .debug_str:000000000000d997 .LASF4644
C:\Users\SOLDER~1\AppData\Local\Temp\ccYCTqm0.s:30377  .debug_str:000000000001e32d .LASF4645
C:\Users\SOLDER~1\AppData\Local\Temp\ccYCTqm0.s:26273  .debug_str:000000000000dbd5 .LASF4646
C:\Users\SOLDER~1\AppData\Local\Temp\ccYCTqm0.s:29811  .debug_str:000000000001bedc .LASF4647
C:\Users\SOLDER~1\AppData\Local\Temp\ccYCTqm0.s:26871  .debug_str:00000000000102a7 .LASF4648
C:\Users\SOLDER~1\AppData\Local\Temp\ccYCTqm0.s:26113  .debug_str:000000000000d13e .LASF4649
GAS LISTING C:\Users\SOLDER~1\AppData\Local\Temp\ccYCTqm0.s 			page 186


C:\Users\SOLDER~1\AppData\Local\Temp\ccYCTqm0.s:23347  .debug_str:0000000000001ea5 .LASF4650
C:\Users\SOLDER~1\AppData\Local\Temp\ccYCTqm0.s:26143  .debug_str:000000000000d314 .LASF4651
C:\Users\SOLDER~1\AppData\Local\Temp\ccYCTqm0.s:29445  .debug_str:000000000001a7c0 .LASF4652
C:\Users\SOLDER~1\AppData\Local\Temp\ccYCTqm0.s:31671  .debug_str:000000000002367f .LASF4653
C:\Users\SOLDER~1\AppData\Local\Temp\ccYCTqm0.s:27795  .debug_str:0000000000013d70 .LASF4654
C:\Users\SOLDER~1\AppData\Local\Temp\ccYCTqm0.s:24965  .debug_str:00000000000086b5 .LASF4655
C:\Users\SOLDER~1\AppData\Local\Temp\ccYCTqm0.s:29887  .debug_str:000000000001c3b2 .LASF4656
C:\Users\SOLDER~1\AppData\Local\Temp\ccYCTqm0.s:26839  .debug_str:000000000001006c .LASF4657
C:\Users\SOLDER~1\AppData\Local\Temp\ccYCTqm0.s:25359  .debug_str:000000000000a04e .LASF4658
C:\Users\SOLDER~1\AppData\Local\Temp\ccYCTqm0.s:26083  .debug_str:000000000000cf21 .LASF4659
C:\Users\SOLDER~1\AppData\Local\Temp\ccYCTqm0.s:33299  .debug_str:000000000002a083 .LASF4660
C:\Users\SOLDER~1\AppData\Local\Temp\ccYCTqm0.s:30051  .debug_str:000000000001ce68 .LASF4661
C:\Users\SOLDER~1\AppData\Local\Temp\ccYCTqm0.s:29363  .debug_str:000000000001a299 .LASF4662
C:\Users\SOLDER~1\AppData\Local\Temp\ccYCTqm0.s:22889  .debug_str:000000000000006c .LASF4663
C:\Users\SOLDER~1\AppData\Local\Temp\ccYCTqm0.s:27341  .debug_str:0000000000011fee .LASF4664
C:\Users\SOLDER~1\AppData\Local\Temp\ccYCTqm0.s:29225  .debug_str:0000000000019a0b .LASF4665
C:\Users\SOLDER~1\AppData\Local\Temp\ccYCTqm0.s:33867  .debug_str:000000000002c5b8 .LASF4666
C:\Users\SOLDER~1\AppData\Local\Temp\ccYCTqm0.s:23191  .debug_str:000000000000149a .LASF4667
C:\Users\SOLDER~1\AppData\Local\Temp\ccYCTqm0.s:22975  .debug_str:00000000000005e7 .LASF4668
C:\Users\SOLDER~1\AppData\Local\Temp\ccYCTqm0.s:24525  .debug_str:0000000000006a72 .LASF4669
C:\Users\SOLDER~1\AppData\Local\Temp\ccYCTqm0.s:26423  .debug_str:000000000000e5b4 .LASF4670
C:\Users\SOLDER~1\AppData\Local\Temp\ccYCTqm0.s:23329  .debug_str:0000000000001d65 .LASF4671
C:\Users\SOLDER~1\AppData\Local\Temp\ccYCTqm0.s:23227  .debug_str:00000000000016ce .LASF4672
C:\Users\SOLDER~1\AppData\Local\Temp\ccYCTqm0.s:30717  .debug_str:000000000001f960 .LASF4673
C:\Users\SOLDER~1\AppData\Local\Temp\ccYCTqm0.s:28421  .debug_str:0000000000016662 .LASF4674
C:\Users\SOLDER~1\AppData\Local\Temp\ccYCTqm0.s:24011  .debug_str:00000000000048fb .LASF4675
C:\Users\SOLDER~1\AppData\Local\Temp\ccYCTqm0.s:27483  .debug_str:00000000000128b9 .LASF4676
C:\Users\SOLDER~1\AppData\Local\Temp\ccYCTqm0.s:26817  .debug_str:000000000000fed2 .LASF4677
C:\Users\SOLDER~1\AppData\Local\Temp\ccYCTqm0.s:24917  .debug_str:000000000000838f .LASF4678
C:\Users\SOLDER~1\AppData\Local\Temp\ccYCTqm0.s:31983  .debug_str:0000000000024ab9 .LASF4679
C:\Users\SOLDER~1\AppData\Local\Temp\ccYCTqm0.s:28055  .debug_str:0000000000014f0d .LASF4680
C:\Users\SOLDER~1\AppData\Local\Temp\ccYCTqm0.s:23595  .debug_str:0000000000002e8a .LASF4681
C:\Users\SOLDER~1\AppData\Local\Temp\ccYCTqm0.s:24531  .debug_str:0000000000006afe .LASF4682
C:\Users\SOLDER~1\AppData\Local\Temp\ccYCTqm0.s:23293  .debug_str:0000000000001af8 .LASF4683
C:\Users\SOLDER~1\AppData\Local\Temp\ccYCTqm0.s:25977  .debug_str:000000000000c827 .LASF4684
C:\Users\SOLDER~1\AppData\Local\Temp\ccYCTqm0.s:33295  .debug_str:000000000002a045 .LASF4685
C:\Users\SOLDER~1\AppData\Local\Temp\ccYCTqm0.s:32759  .debug_str:0000000000027dc6 .LASF4686
C:\Users\SOLDER~1\AppData\Local\Temp\ccYCTqm0.s:30215  .debug_str:000000000001d907 .LASF4687
C:\Users\SOLDER~1\AppData\Local\Temp\ccYCTqm0.s:32827  .debug_str:000000000002826f .LASF4688
C:\Users\SOLDER~1\AppData\Local\Temp\ccYCTqm0.s:30809  .debug_str:000000000001ff7d .LASF4689
C:\Users\SOLDER~1\AppData\Local\Temp\ccYCTqm0.s:32275  .debug_str:0000000000025da4 .LASF4690
C:\Users\SOLDER~1\AppData\Local\Temp\ccYCTqm0.s:23165  .debug_str:00000000000012f0 .LASF4691
C:\Users\SOLDER~1\AppData\Local\Temp\ccYCTqm0.s:30653  .debug_str:000000000001f508 .LASF4692
C:\Users\SOLDER~1\AppData\Local\Temp\ccYCTqm0.s:31509  .debug_str:0000000000022bdf .LASF4693
C:\Users\SOLDER~1\AppData\Local\Temp\ccYCTqm0.s:33093  .debug_str:0000000000029345 .LASF4694
C:\Users\SOLDER~1\AppData\Local\Temp\ccYCTqm0.s:30255  .debug_str:000000000001db59 .LASF4695
C:\Users\SOLDER~1\AppData\Local\Temp\ccYCTqm0.s:23269  .debug_str:0000000000001951 .LASF4696
C:\Users\SOLDER~1\AppData\Local\Temp\ccYCTqm0.s:28039  .debug_str:0000000000014e09 .LASF4697
C:\Users\SOLDER~1\AppData\Local\Temp\ccYCTqm0.s:24809  .debug_str:0000000000007c7b .LASF4698
C:\Users\SOLDER~1\AppData\Local\Temp\ccYCTqm0.s:33595  .debug_str:000000000002b3c3 .LASF4699
C:\Users\SOLDER~1\AppData\Local\Temp\ccYCTqm0.s:30071  .debug_str:000000000001cfef .LASF4700
C:\Users\SOLDER~1\AppData\Local\Temp\ccYCTqm0.s:25301  .debug_str:0000000000009ce2 .LASF4701
C:\Users\SOLDER~1\AppData\Local\Temp\ccYCTqm0.s:23583  .debug_str:0000000000002dbb .LASF4702
C:\Users\SOLDER~1\AppData\Local\Temp\ccYCTqm0.s:23535  .debug_str:0000000000002adf .LASF4703
C:\Users\SOLDER~1\AppData\Local\Temp\ccYCTqm0.s:31291  .debug_str:0000000000021e29 .LASF4704
C:\Users\SOLDER~1\AppData\Local\Temp\ccYCTqm0.s:28853  .debug_str:000000000001821b .LASF4705
C:\Users\SOLDER~1\AppData\Local\Temp\ccYCTqm0.s:28345  .debug_str:0000000000016177 .LASF4706
GAS LISTING C:\Users\SOLDER~1\AppData\Local\Temp\ccYCTqm0.s 			page 187


C:\Users\SOLDER~1\AppData\Local\Temp\ccYCTqm0.s:27259  .debug_str:0000000000011ab9 .LASF4707
C:\Users\SOLDER~1\AppData\Local\Temp\ccYCTqm0.s:25749  .debug_str:000000000000b9b1 .LASF4708
C:\Users\SOLDER~1\AppData\Local\Temp\ccYCTqm0.s:28929  .debug_str:0000000000018739 .LASF4709
C:\Users\SOLDER~1\AppData\Local\Temp\ccYCTqm0.s:29955  .debug_str:000000000001c82b .LASF4710
C:\Users\SOLDER~1\AppData\Local\Temp\ccYCTqm0.s:30935  .debug_str:0000000000020757 .LASF4711
C:\Users\SOLDER~1\AppData\Local\Temp\ccYCTqm0.s:28791  .debug_str:0000000000017e09 .LASF4712
C:\Users\SOLDER~1\AppData\Local\Temp\ccYCTqm0.s:29597  .debug_str:000000000001b1c8 .LASF4713
C:\Users\SOLDER~1\AppData\Local\Temp\ccYCTqm0.s:26997  .debug_str:0000000000010a30 .LASF4714
C:\Users\SOLDER~1\AppData\Local\Temp\ccYCTqm0.s:34493  .debug_str:000000000002edba .LASF4715
C:\Users\SOLDER~1\AppData\Local\Temp\ccYCTqm0.s:33561  .debug_str:000000000002b1a3 .LASF4716
C:\Users\SOLDER~1\AppData\Local\Temp\ccYCTqm0.s:32643  .debug_str:0000000000027639 .LASF4717
C:\Users\SOLDER~1\AppData\Local\Temp\ccYCTqm0.s:33081  .debug_str:0000000000029290 .LASF4718
C:\Users\SOLDER~1\AppData\Local\Temp\ccYCTqm0.s:23645  .debug_str:00000000000031db .LASF4719
C:\Users\SOLDER~1\AppData\Local\Temp\ccYCTqm0.s:27381  .debug_str:000000000001226c .LASF4720
C:\Users\SOLDER~1\AppData\Local\Temp\ccYCTqm0.s:29143  .debug_str:00000000000194c0 .LASF4721
C:\Users\SOLDER~1\AppData\Local\Temp\ccYCTqm0.s:23077  .debug_str:0000000000000d9f .LASF4722
C:\Users\SOLDER~1\AppData\Local\Temp\ccYCTqm0.s:30601  .debug_str:000000000001f192 .LASF4723
C:\Users\SOLDER~1\AppData\Local\Temp\ccYCTqm0.s:25227  .debug_str:0000000000009821 .LASF4724
C:\Users\SOLDER~1\AppData\Local\Temp\ccYCTqm0.s:30645  .debug_str:000000000001f483 .LASF4725
C:\Users\SOLDER~1\AppData\Local\Temp\ccYCTqm0.s:29243  .debug_str:0000000000019b4e .LASF4726
C:\Users\SOLDER~1\AppData\Local\Temp\ccYCTqm0.s:32893  .debug_str:00000000000286b0 .LASF4727
C:\Users\SOLDER~1\AppData\Local\Temp\ccYCTqm0.s:25303  .debug_str:0000000000009cfd .LASF4728
C:\Users\SOLDER~1\AppData\Local\Temp\ccYCTqm0.s:32533  .debug_str:0000000000026f35 .LASF4729
C:\Users\SOLDER~1\AppData\Local\Temp\ccYCTqm0.s:31489  .debug_str:0000000000022a82 .LASF4730
C:\Users\SOLDER~1\AppData\Local\Temp\ccYCTqm0.s:33929  .debug_str:000000000002c97e .LASF4731
C:\Users\SOLDER~1\AppData\Local\Temp\ccYCTqm0.s:31711  .debug_str:0000000000023943 .LASF4732
C:\Users\SOLDER~1\AppData\Local\Temp\ccYCTqm0.s:32755  .debug_str:0000000000027d85 .LASF4733
C:\Users\SOLDER~1\AppData\Local\Temp\ccYCTqm0.s:24897  .debug_str:000000000000825b .LASF4734
C:\Users\SOLDER~1\AppData\Local\Temp\ccYCTqm0.s:29515  .debug_str:000000000001ac92 .LASF4736
C:\Users\SOLDER~1\AppData\Local\Temp\ccYCTqm0.s:31427  .debug_str:0000000000022658 .LASF4737
C:\Users\SOLDER~1\AppData\Local\Temp\ccYCTqm0.s:23623  .debug_str:0000000000003089 .LASF4738
C:\Users\SOLDER~1\AppData\Local\Temp\ccYCTqm0.s:27549  .debug_str:0000000000012cbe .LASF4739
C:\Users\SOLDER~1\AppData\Local\Temp\ccYCTqm0.s:27013  .debug_str:0000000000010ade .LASF4740
C:\Users\SOLDER~1\AppData\Local\Temp\ccYCTqm0.s:29725  .debug_str:000000000001b953 .LASF4741
C:\Users\SOLDER~1\AppData\Local\Temp\ccYCTqm0.s:24951  .debug_str:00000000000085c9 .LASF4742
C:\Users\SOLDER~1\AppData\Local\Temp\ccYCTqm0.s:25549  .debug_str:000000000000ad17 .LASF4743
C:\Users\SOLDER~1\AppData\Local\Temp\ccYCTqm0.s:34447  .debug_str:000000000002ea87 .LASF4744
C:\Users\SOLDER~1\AppData\Local\Temp\ccYCTqm0.s:23819  .debug_str:0000000000003d04 .LASF4745
C:\Users\SOLDER~1\AppData\Local\Temp\ccYCTqm0.s:32523  .debug_str:0000000000026e81 .LASF4746
C:\Users\SOLDER~1\AppData\Local\Temp\ccYCTqm0.s:31215  .debug_str:0000000000021967 .LASF4747
C:\Users\SOLDER~1\AppData\Local\Temp\ccYCTqm0.s:23951  .debug_str:0000000000004519 .LASF4748
C:\Users\SOLDER~1\AppData\Local\Temp\ccYCTqm0.s:29897  .debug_str:000000000001c467 .LASF4749
C:\Users\SOLDER~1\AppData\Local\Temp\ccYCTqm0.s:23787  .debug_str:0000000000003ae3 .LASF4750
C:\Users\SOLDER~1\AppData\Local\Temp\ccYCTqm0.s:23971  .debug_str:000000000000465f .LASF4751
C:\Users\SOLDER~1\AppData\Local\Temp\ccYCTqm0.s:26441  .debug_str:000000000000e6f2 .LASF4752
C:\Users\SOLDER~1\AppData\Local\Temp\ccYCTqm0.s:32793  .debug_str:0000000000027ff7 .LASF4753
C:\Users\SOLDER~1\AppData\Local\Temp\ccYCTqm0.s:23995  .debug_str:00000000000047fd .LASF4754
C:\Users\SOLDER~1\AppData\Local\Temp\ccYCTqm0.s:23025  .debug_str:00000000000009fb .LASF4755
C:\Users\SOLDER~1\AppData\Local\Temp\ccYCTqm0.s:30625  .debug_str:000000000001f31e .LASF4756
C:\Users\SOLDER~1\AppData\Local\Temp\ccYCTqm0.s:25779  .debug_str:000000000000bb33 .LASF4757
C:\Users\SOLDER~1\AppData\Local\Temp\ccYCTqm0.s:32193  .debug_str:000000000002581c .LASF4758
C:\Users\SOLDER~1\AppData\Local\Temp\ccYCTqm0.s:34219  .debug_str:000000000002dc22 .LASF4759
C:\Users\SOLDER~1\AppData\Local\Temp\ccYCTqm0.s:23481  .debug_str:0000000000002738 .LASF4760
C:\Users\SOLDER~1\AppData\Local\Temp\ccYCTqm0.s:23991  .debug_str:00000000000047ad .LASF4761
C:\Users\SOLDER~1\AppData\Local\Temp\ccYCTqm0.s:25481  .debug_str:000000000000a86a .LASF4762
C:\Users\SOLDER~1\AppData\Local\Temp\ccYCTqm0.s:33265  .debug_str:0000000000029e33 .LASF4763
C:\Users\SOLDER~1\AppData\Local\Temp\ccYCTqm0.s:32777  .debug_str:0000000000027ee4 .LASF4764
GAS LISTING C:\Users\SOLDER~1\AppData\Local\Temp\ccYCTqm0.s 			page 188


C:\Users\SOLDER~1\AppData\Local\Temp\ccYCTqm0.s:32599  .debug_str:0000000000027354 .LASF4765
C:\Users\SOLDER~1\AppData\Local\Temp\ccYCTqm0.s:33289  .debug_str:0000000000029fce .LASF4766
C:\Users\SOLDER~1\AppData\Local\Temp\ccYCTqm0.s:27951  .debug_str:0000000000014801 .LASF4767
C:\Users\SOLDER~1\AppData\Local\Temp\ccYCTqm0.s:33345  .debug_str:000000000002a3b2 .LASF4768
C:\Users\SOLDER~1\AppData\Local\Temp\ccYCTqm0.s:30879  .debug_str:00000000000203c2 .LASF4769
C:\Users\SOLDER~1\AppData\Local\Temp\ccYCTqm0.s:24605  .debug_str:0000000000006f63 .LASF4770
C:\Users\SOLDER~1\AppData\Local\Temp\ccYCTqm0.s:27579  .debug_str:0000000000012ee4 .LASF4771
C:\Users\SOLDER~1\AppData\Local\Temp\ccYCTqm0.s:28709  .debug_str:00000000000178a6 .LASF4772
C:\Users\SOLDER~1\AppData\Local\Temp\ccYCTqm0.s:24197  .debug_str:0000000000005498 .LASF4773
C:\Users\SOLDER~1\AppData\Local\Temp\ccYCTqm0.s:31241  .debug_str:0000000000021b13 .LASF4774
C:\Users\SOLDER~1\AppData\Local\Temp\ccYCTqm0.s:32485  .debug_str:0000000000026bf2 .LASF4775
C:\Users\SOLDER~1\AppData\Local\Temp\ccYCTqm0.s:27143  .debug_str:000000000001131b .LASF4776
C:\Users\SOLDER~1\AppData\Local\Temp\ccYCTqm0.s:31893  .debug_str:00000000000244c1 .LASF4777
C:\Users\SOLDER~1\AppData\Local\Temp\ccYCTqm0.s:29677  .debug_str:000000000001b6a9 .LASF4778
C:\Users\SOLDER~1\AppData\Local\Temp\ccYCTqm0.s:27021  .debug_str:0000000000010b72 .LASF4779
C:\Users\SOLDER~1\AppData\Local\Temp\ccYCTqm0.s:32239  .debug_str:0000000000025b28 .LASF4780
C:\Users\SOLDER~1\AppData\Local\Temp\ccYCTqm0.s:32305  .debug_str:0000000000025fab .LASF4781
C:\Users\SOLDER~1\AppData\Local\Temp\ccYCTqm0.s:26329  .debug_str:000000000000df11 .LASF4782
C:\Users\SOLDER~1\AppData\Local\Temp\ccYCTqm0.s:34283  .debug_str:000000000002e01e .LASF4783
C:\Users\SOLDER~1\AppData\Local\Temp\ccYCTqm0.s:24695  .debug_str:0000000000007592 .LASF4784
C:\Users\SOLDER~1\AppData\Local\Temp\ccYCTqm0.s:26061  .debug_str:000000000000cdbe .LASF4785
C:\Users\SOLDER~1\AppData\Local\Temp\ccYCTqm0.s:26053  .debug_str:000000000000cd31 .LASF4786
C:\Users\SOLDER~1\AppData\Local\Temp\ccYCTqm0.s:32289  .debug_str:0000000000025ea5 .LASF4787
C:\Users\SOLDER~1\AppData\Local\Temp\ccYCTqm0.s:32685  .debug_str:0000000000027910 .LASF4788
C:\Users\SOLDER~1\AppData\Local\Temp\ccYCTqm0.s:30289  .debug_str:000000000001dd4b .LASF4789
C:\Users\SOLDER~1\AppData\Local\Temp\ccYCTqm0.s:30749  .debug_str:000000000001fb9d .LASF4790
C:\Users\SOLDER~1\AppData\Local\Temp\ccYCTqm0.s:30909  .debug_str:00000000000205a5 .LASF4791
C:\Users\SOLDER~1\AppData\Local\Temp\ccYCTqm0.s:26957  .debug_str:00000000000107d6 .LASF4792
C:\Users\SOLDER~1\AppData\Local\Temp\ccYCTqm0.s:31431  .debug_str:000000000002269e .LASF4793
C:\Users\SOLDER~1\AppData\Local\Temp\ccYCTqm0.s:24803  .debug_str:0000000000007c0d .LASF4794
C:\Users\SOLDER~1\AppData\Local\Temp\ccYCTqm0.s:28171  .debug_str:000000000001568b .LASF4795
C:\Users\SOLDER~1\AppData\Local\Temp\ccYCTqm0.s:28329  .debug_str:000000000001607c .LASF4796
C:\Users\SOLDER~1\AppData\Local\Temp\ccYCTqm0.s:32005  .debug_str:0000000000024c3b .LASF4797
C:\Users\SOLDER~1\AppData\Local\Temp\ccYCTqm0.s:32895  .debug_str:00000000000286cc .LASF4798
C:\Users\SOLDER~1\AppData\Local\Temp\ccYCTqm0.s:27219  .debug_str:0000000000011822 .LASF4799
C:\Users\SOLDER~1\AppData\Local\Temp\ccYCTqm0.s:23065  .debug_str:0000000000000cc8 .LASF4800
C:\Users\SOLDER~1\AppData\Local\Temp\ccYCTqm0.s:29549  .debug_str:000000000001ae87 .LASF4801
C:\Users\SOLDER~1\AppData\Local\Temp\ccYCTqm0.s:31821  .debug_str:000000000002404d .LASF4802
C:\Users\SOLDER~1\AppData\Local\Temp\ccYCTqm0.s:32107  .debug_str:00000000000252c0 .LASF4803
C:\Users\SOLDER~1\AppData\Local\Temp\ccYCTqm0.s:28105  .debug_str:000000000001523e .LASF4804
C:\Users\SOLDER~1\AppData\Local\Temp\ccYCTqm0.s:32249  .debug_str:0000000000025be4 .LASF4805
C:\Users\SOLDER~1\AppData\Local\Temp\ccYCTqm0.s:33083  .debug_str:00000000000292ac .LASF4806
C:\Users\SOLDER~1\AppData\Local\Temp\ccYCTqm0.s:26527  .debug_str:000000000000ec56 .LASF4807
C:\Users\SOLDER~1\AppData\Local\Temp\ccYCTqm0.s:23913  .debug_str:00000000000042f4 .LASF4808
C:\Users\SOLDER~1\AppData\Local\Temp\ccYCTqm0.s:26045  .debug_str:000000000000ccad .LASF4809
C:\Users\SOLDER~1\AppData\Local\Temp\ccYCTqm0.s:28287  .debug_str:0000000000015dec .LASF4810
C:\Users\SOLDER~1\AppData\Local\Temp\ccYCTqm0.s:31703  .debug_str:00000000000238c1 .LASF4811
C:\Users\SOLDER~1\AppData\Local\Temp\ccYCTqm0.s:34451  .debug_str:000000000002eac8 .LASF4812
C:\Users\SOLDER~1\AppData\Local\Temp\ccYCTqm0.s:26493  .debug_str:000000000000ea17 .LASF4813
C:\Users\SOLDER~1\AppData\Local\Temp\ccYCTqm0.s:33291  .debug_str:0000000000029ffd .LASF4814
C:\Users\SOLDER~1\AppData\Local\Temp\ccYCTqm0.s:34115  .debug_str:000000000002d598 .LASF4815
C:\Users\SOLDER~1\AppData\Local\Temp\ccYCTqm0.s:30123  .debug_str:000000000001d355 .LASF4816
C:\Users\SOLDER~1\AppData\Local\Temp\ccYCTqm0.s:33587  .debug_str:000000000002b32c .LASF4817
C:\Users\SOLDER~1\AppData\Local\Temp\ccYCTqm0.s:30213  .debug_str:000000000001d8e2 .LASF4818
C:\Users\SOLDER~1\AppData\Local\Temp\ccYCTqm0.s:30851  .debug_str:000000000002020b .LASF4819
C:\Users\SOLDER~1\AppData\Local\Temp\ccYCTqm0.s:29115  .debug_str:0000000000019305 .LASF4820
C:\Users\SOLDER~1\AppData\Local\Temp\ccYCTqm0.s:24811  .debug_str:0000000000007c96 .LASF4821
GAS LISTING C:\Users\SOLDER~1\AppData\Local\Temp\ccYCTqm0.s 			page 189


C:\Users\SOLDER~1\AppData\Local\Temp\ccYCTqm0.s:28889  .debug_str:00000000000184ab .LASF4822
C:\Users\SOLDER~1\AppData\Local\Temp\ccYCTqm0.s:27417  .debug_str:00000000000124a1 .LASF4823
C:\Users\SOLDER~1\AppData\Local\Temp\ccYCTqm0.s:28465  .debug_str:0000000000016919 .LASF4824
C:\Users\SOLDER~1\AppData\Local\Temp\ccYCTqm0.s:30481  .debug_str:000000000001e9ae .LASF4825
C:\Users\SOLDER~1\AppData\Local\Temp\ccYCTqm0.s:32127  .debug_str:0000000000025422 .LASF4826
C:\Users\SOLDER~1\AppData\Local\Temp\ccYCTqm0.s:31547  .debug_str:0000000000022e8a .LASF4827
C:\Users\SOLDER~1\AppData\Local\Temp\ccYCTqm0.s:30985  .debug_str:0000000000020aa0 .LASF4828
C:\Users\SOLDER~1\AppData\Local\Temp\ccYCTqm0.s:31275  .debug_str:0000000000021d1e .LASF4829
C:\Users\SOLDER~1\AppData\Local\Temp\ccYCTqm0.s:26517  .debug_str:000000000000eb9f .LASF4830
C:\Users\SOLDER~1\AppData\Local\Temp\ccYCTqm0.s:27573  .debug_str:0000000000012e61 .LASF4831
C:\Users\SOLDER~1\AppData\Local\Temp\ccYCTqm0.s:26191  .debug_str:000000000000d655 .LASF4832
C:\Users\SOLDER~1\AppData\Local\Temp\ccYCTqm0.s:26185  .debug_str:000000000000d5e9 .LASF4833
C:\Users\SOLDER~1\AppData\Local\Temp\ccYCTqm0.s:32995  .debug_str:0000000000028d5d .LASF4834
C:\Users\SOLDER~1\AppData\Local\Temp\ccYCTqm0.s:23443  .debug_str:0000000000002503 .LASF4835
C:\Users\SOLDER~1\AppData\Local\Temp\ccYCTqm0.s:32865  .debug_str:00000000000284eb .LASF4836
C:\Users\SOLDER~1\AppData\Local\Temp\ccYCTqm0.s:28181  .debug_str:0000000000015729 .LASF4837
C:\Users\SOLDER~1\AppData\Local\Temp\ccYCTqm0.s:25783  .debug_str:000000000000bb6a .LASF4838
C:\Users\SOLDER~1\AppData\Local\Temp\ccYCTqm0.s:26921  .debug_str:0000000000010596 .LASF4839
C:\Users\SOLDER~1\AppData\Local\Temp\ccYCTqm0.s:34173  .debug_str:000000000002d94f .LASF4840
C:\Users\SOLDER~1\AppData\Local\Temp\ccYCTqm0.s:28133  .debug_str:0000000000015408 .LASF4841
C:\Users\SOLDER~1\AppData\Local\Temp\ccYCTqm0.s:24461  .debug_str:000000000000660d .LASF4842
C:\Users\SOLDER~1\AppData\Local\Temp\ccYCTqm0.s:30273  .debug_str:000000000001dc80 .LASF4843
C:\Users\SOLDER~1\AppData\Local\Temp\ccYCTqm0.s:25353  .debug_str:0000000000009ff5 .LASF4844
C:\Users\SOLDER~1\AppData\Local\Temp\ccYCTqm0.s:29481  .debug_str:000000000001aa29 .LASF4845
C:\Users\SOLDER~1\AppData\Local\Temp\ccYCTqm0.s:26953  .debug_str:0000000000010792 .LASF4846
C:\Users\SOLDER~1\AppData\Local\Temp\ccYCTqm0.s:25343  .debug_str:0000000000009f45 .LASF4847
C:\Users\SOLDER~1\AppData\Local\Temp\ccYCTqm0.s:28439  .debug_str:0000000000016796 .LASF4848
C:\Users\SOLDER~1\AppData\Local\Temp\ccYCTqm0.s:25679  .debug_str:000000000000b513 .LASF4849
C:\Users\SOLDER~1\AppData\Local\Temp\ccYCTqm0.s:23245  .debug_str:00000000000017ff .LASF4850
C:\Users\SOLDER~1\AppData\Local\Temp\ccYCTqm0.s:25483  .debug_str:000000000000a897 .LASF4851
C:\Users\SOLDER~1\AppData\Local\Temp\ccYCTqm0.s:25895  .debug_str:000000000000c29b .LASF4852
C:\Users\SOLDER~1\AppData\Local\Temp\ccYCTqm0.s:32109  .debug_str:00000000000252e3 .LASF4853
C:\Users\SOLDER~1\AppData\Local\Temp\ccYCTqm0.s:29059  .debug_str:0000000000018f55 .LASF4854
C:\Users\SOLDER~1\AppData\Local\Temp\ccYCTqm0.s:29527  .debug_str:000000000001ad53 .LASF4855
C:\Users\SOLDER~1\AppData\Local\Temp\ccYCTqm0.s:23985  .debug_str:0000000000004752 .LASF4856
C:\Users\SOLDER~1\AppData\Local\Temp\ccYCTqm0.s:30711  .debug_str:000000000001f8fe .LASF4857
C:\Users\SOLDER~1\AppData\Local\Temp\ccYCTqm0.s:27331  .debug_str:0000000000011f56 .LASF4858
C:\Users\SOLDER~1\AppData\Local\Temp\ccYCTqm0.s:23195  .debug_str:00000000000014e4 .LASF4859
C:\Users\SOLDER~1\AppData\Local\Temp\ccYCTqm0.s:23789  .debug_str:0000000000003b0b .LASF4860
C:\Users\SOLDER~1\AppData\Local\Temp\ccYCTqm0.s:27615  .debug_str:0000000000013168 .LASF4861
C:\Users\SOLDER~1\AppData\Local\Temp\ccYCTqm0.s:23545  .debug_str:0000000000002b7a .LASF4862
C:\Users\SOLDER~1\AppData\Local\Temp\ccYCTqm0.s:30683  .debug_str:000000000001f719 .LASF4863
C:\Users\SOLDER~1\AppData\Local\Temp\ccYCTqm0.s:29999  .debug_str:000000000001caff .LASF4864
C:\Users\SOLDER~1\AppData\Local\Temp\ccYCTqm0.s:34577  .debug_str:000000000002f306 .LASF4865
C:\Users\SOLDER~1\AppData\Local\Temp\ccYCTqm0.s:34527  .debug_str:000000000002effb .LASF4866
C:\Users\SOLDER~1\AppData\Local\Temp\ccYCTqm0.s:33437  .debug_str:000000000002a9db .LASF4867
C:\Users\SOLDER~1\AppData\Local\Temp\ccYCTqm0.s:30729  .debug_str:000000000001fa56 .LASF4868
C:\Users\SOLDER~1\AppData\Local\Temp\ccYCTqm0.s:25223  .debug_str:00000000000097db .LASF4869
C:\Users\SOLDER~1\AppData\Local\Temp\ccYCTqm0.s:31039  .debug_str:0000000000020e08 .LASF4870
C:\Users\SOLDER~1\AppData\Local\Temp\ccYCTqm0.s:31539  .debug_str:0000000000022df2 .LASF4871
C:\Users\SOLDER~1\AppData\Local\Temp\ccYCTqm0.s:33193  .debug_str:00000000000299fc .LASF4872
C:\Users\SOLDER~1\AppData\Local\Temp\ccYCTqm0.s:27671  .debug_str:00000000000134c7 .LASF4873
C:\Users\SOLDER~1\AppData\Local\Temp\ccYCTqm0.s:28797  .debug_str:0000000000017e67 .LASF4874
C:\Users\SOLDER~1\AppData\Local\Temp\ccYCTqm0.s:23643  .debug_str:00000000000031ae .LASF4875
C:\Users\SOLDER~1\AppData\Local\Temp\ccYCTqm0.s:31565  .debug_str:0000000000022fb9 .LASF4876
C:\Users\SOLDER~1\AppData\Local\Temp\ccYCTqm0.s:33533  .debug_str:000000000002afcd .LASF4877
C:\Users\SOLDER~1\AppData\Local\Temp\ccYCTqm0.s:24987  .debug_str:000000000000881b .LASF4878
GAS LISTING C:\Users\SOLDER~1\AppData\Local\Temp\ccYCTqm0.s 			page 190


C:\Users\SOLDER~1\AppData\Local\Temp\ccYCTqm0.s:32605  .debug_str:00000000000273c7 .LASF4879
C:\Users\SOLDER~1\AppData\Local\Temp\ccYCTqm0.s:31929  .debug_str:0000000000024711 .LASF4880
C:\Users\SOLDER~1\AppData\Local\Temp\ccYCTqm0.s:33699  .debug_str:000000000002baa0 .LASF4881
C:\Users\SOLDER~1\AppData\Local\Temp\ccYCTqm0.s:27839  .debug_str:0000000000014079 .LASF4882
C:\Users\SOLDER~1\AppData\Local\Temp\ccYCTqm0.s:25425  .debug_str:000000000000a4df .LASF4883
C:\Users\SOLDER~1\AppData\Local\Temp\ccYCTqm0.s:32691  .debug_str:000000000002796a .LASF4884
C:\Users\SOLDER~1\AppData\Local\Temp\ccYCTqm0.s:32253  .debug_str:0000000000025c3a .LASF4885
C:\Users\SOLDER~1\AppData\Local\Temp\ccYCTqm0.s:31499  .debug_str:0000000000022b2d .LASF4886
C:\Users\SOLDER~1\AppData\Local\Temp\ccYCTqm0.s:29923  .debug_str:000000000001c630 .LASF4887
C:\Users\SOLDER~1\AppData\Local\Temp\ccYCTqm0.s:26867  .debug_str:0000000000010254 .LASF4888
C:\Users\SOLDER~1\AppData\Local\Temp\ccYCTqm0.s:31687  .debug_str:00000000000237a2 .LASF4889
C:\Users\SOLDER~1\AppData\Local\Temp\ccYCTqm0.s:32795  .debug_str:000000000002801f .LASF4890
C:\Users\SOLDER~1\AppData\Local\Temp\ccYCTqm0.s:30511  .debug_str:000000000001ebc3 .LASF4891
C:\Users\SOLDER~1\AppData\Local\Temp\ccYCTqm0.s:28745  .debug_str:0000000000017b19 .LASF4892
C:\Users\SOLDER~1\AppData\Local\Temp\ccYCTqm0.s:28341  .debug_str:000000000001612f .LASF4893
C:\Users\SOLDER~1\AppData\Local\Temp\ccYCTqm0.s:31997  .debug_str:0000000000024b89 .LASF4894
C:\Users\SOLDER~1\AppData\Local\Temp\ccYCTqm0.s:32871  .debug_str:0000000000028554 .LASF4895
C:\Users\SOLDER~1\AppData\Local\Temp\ccYCTqm0.s:27907  .debug_str:00000000000144e8 .LASF4896
C:\Users\SOLDER~1\AppData\Local\Temp\ccYCTqm0.s:32907  .debug_str:0000000000028797 .LASF4897
C:\Users\SOLDER~1\AppData\Local\Temp\ccYCTqm0.s:33253  .debug_str:0000000000029d7d .LASF4898
C:\Users\SOLDER~1\AppData\Local\Temp\ccYCTqm0.s:27867  .debug_str:0000000000014248 .LASF4899
C:\Users\SOLDER~1\AppData\Local\Temp\ccYCTqm0.s:31867  .debug_str:0000000000024320 .LASF4900
C:\Users\SOLDER~1\AppData\Local\Temp\ccYCTqm0.s:27953  .debug_str:0000000000014834 .LASF4901
C:\Users\SOLDER~1\AppData\Local\Temp\ccYCTqm0.s:28635  .debug_str:0000000000017376 .LASF4902
C:\Users\SOLDER~1\AppData\Local\Temp\ccYCTqm0.s:28219  .debug_str:00000000000159ab .LASF4903
C:\Users\SOLDER~1\AppData\Local\Temp\ccYCTqm0.s:29311  .debug_str:0000000000019f65 .LASF4904
C:\Users\SOLDER~1\AppData\Local\Temp\ccYCTqm0.s:26033  .debug_str:000000000000cbd9 .LASF4905
C:\Users\SOLDER~1\AppData\Local\Temp\ccYCTqm0.s:32625  .debug_str:0000000000027510 .LASF4906
C:\Users\SOLDER~1\AppData\Local\Temp\ccYCTqm0.s:33659  .debug_str:000000000002b800 .LASF4907
C:\Users\SOLDER~1\AppData\Local\Temp\ccYCTqm0.s:30929  .debug_str:00000000000206ee .LASF4908
C:\Users\SOLDER~1\AppData\Local\Temp\ccYCTqm0.s:27663  .debug_str:0000000000013439 .LASF4909
C:\Users\SOLDER~1\AppData\Local\Temp\ccYCTqm0.s:27375  .debug_str:0000000000012206 .LASF4910
C:\Users\SOLDER~1\AppData\Local\Temp\ccYCTqm0.s:30921  .debug_str:0000000000020669 .LASF4911
C:\Users\SOLDER~1\AppData\Local\Temp\ccYCTqm0.s:29457  .debug_str:000000000001a8b5 .LASF4912
C:\Users\SOLDER~1\AppData\Local\Temp\ccYCTqm0.s:29599  .debug_str:000000000001b1e4 .LASF4913
C:\Users\SOLDER~1\AppData\Local\Temp\ccYCTqm0.s:26901  .debug_str:000000000001048f .LASF4914
C:\Users\SOLDER~1\AppData\Local\Temp\ccYCTqm0.s:32517  .debug_str:0000000000026e13 .LASF4915
C:\Users\SOLDER~1\AppData\Local\Temp\ccYCTqm0.s:30721  .debug_str:000000000001f9d4 .LASF4916
C:\Users\SOLDER~1\AppData\Local\Temp\ccYCTqm0.s:23435  .debug_str:0000000000002463 .LASF4917
C:\Users\SOLDER~1\AppData\Local\Temp\ccYCTqm0.s:23183  .debug_str:0000000000001415 .LASF4918
C:\Users\SOLDER~1\AppData\Local\Temp\ccYCTqm0.s:31395  .debug_str:00000000000224b3 .LASF4919
C:\Users\SOLDER~1\AppData\Local\Temp\ccYCTqm0.s:26919  .debug_str:0000000000010578 .LASF4920
C:\Users\SOLDER~1\AppData\Local\Temp\ccYCTqm0.s:27433  .debug_str:00000000000125b0 .LASF4921
C:\Users\SOLDER~1\AppData\Local\Temp\ccYCTqm0.s:33019  .debug_str:0000000000028ef4 .LASF4922
C:\Users\SOLDER~1\AppData\Local\Temp\ccYCTqm0.s:29761  .debug_str:000000000001bbaa .LASF4923
C:\Users\SOLDER~1\AppData\Local\Temp\ccYCTqm0.s:27685  .debug_str:00000000000135d9 .LASF4924
C:\Users\SOLDER~1\AppData\Local\Temp\ccYCTqm0.s:31249  .debug_str:0000000000021b80 .LASF4925
C:\Users\SOLDER~1\AppData\Local\Temp\ccYCTqm0.s:28959  .debug_str:00000000000188eb .LASF4926
C:\Users\SOLDER~1\AppData\Local\Temp\ccYCTqm0.s:30755  .debug_str:000000000001fc0f .LASF4927
C:\Users\SOLDER~1\AppData\Local\Temp\ccYCTqm0.s:29011  .debug_str:0000000000018c3a .LASF4928
C:\Users\SOLDER~1\AppData\Local\Temp\ccYCTqm0.s:27735  .debug_str:0000000000013935 .LASF4929
C:\Users\SOLDER~1\AppData\Local\Temp\ccYCTqm0.s:25229  .debug_str:000000000000983d .LASF4930
C:\Users\SOLDER~1\AppData\Local\Temp\ccYCTqm0.s:31809  .debug_str:0000000000023f87 .LASF4931
C:\Users\SOLDER~1\AppData\Local\Temp\ccYCTqm0.s:32969  .debug_str:0000000000028bb9 .LASF4932
C:\Users\SOLDER~1\AppData\Local\Temp\ccYCTqm0.s:31163  .debug_str:000000000002162d .LASF4933
C:\Users\SOLDER~1\AppData\Local\Temp\ccYCTqm0.s:31161  .debug_str:000000000002160e .LASF4934
C:\Users\SOLDER~1\AppData\Local\Temp\ccYCTqm0.s:23081  .debug_str:0000000000000dce .LASF4935
GAS LISTING C:\Users\SOLDER~1\AppData\Local\Temp\ccYCTqm0.s 			page 191


C:\Users\SOLDER~1\AppData\Local\Temp\ccYCTqm0.s:34583  .debug_str:000000000002f35f .LASF4936
C:\Users\SOLDER~1\AppData\Local\Temp\ccYCTqm0.s:30107  .debug_str:000000000001d255 .LASF4937
C:\Users\SOLDER~1\AppData\Local\Temp\ccYCTqm0.s:25371  .debug_str:000000000000a13e .LASF4938
C:\Users\SOLDER~1\AppData\Local\Temp\ccYCTqm0.s:27699  .debug_str:00000000000136ab .LASF4939
C:\Users\SOLDER~1\AppData\Local\Temp\ccYCTqm0.s:33791  .debug_str:000000000002c07f .LASF4940
C:\Users\SOLDER~1\AppData\Local\Temp\ccYCTqm0.s:25415  .debug_str:000000000000a42d .LASF4941
C:\Users\SOLDER~1\AppData\Local\Temp\ccYCTqm0.s:27349  .debug_str:0000000000012088 .LASF4942
C:\Users\SOLDER~1\AppData\Local\Temp\ccYCTqm0.s:33321  .debug_str:000000000002a225 .LASF4943
C:\Users\SOLDER~1\AppData\Local\Temp\ccYCTqm0.s:27841  .debug_str:00000000000140a7 .LASF4944
C:\Users\SOLDER~1\AppData\Local\Temp\ccYCTqm0.s:23277  .debug_str:00000000000019cb .LASF4945
C:\Users\SOLDER~1\AppData\Local\Temp\ccYCTqm0.s:28517  .debug_str:0000000000016c10 .LASF4946
C:\Users\SOLDER~1\AppData\Local\Temp\ccYCTqm0.s:25345  .debug_str:0000000000009f64 .LASF4947
C:\Users\SOLDER~1\AppData\Local\Temp\ccYCTqm0.s:25673  .debug_str:000000000000b4a8 .LASF4948
C:\Users\SOLDER~1\AppData\Local\Temp\ccYCTqm0.s:26037  .debug_str:000000000000cc1e .LASF4949
C:\Users\SOLDER~1\AppData\Local\Temp\ccYCTqm0.s:23017  .debug_str:000000000000095a .LASF4950
C:\Users\SOLDER~1\AppData\Local\Temp\ccYCTqm0.s:32007  .debug_str:0000000000024c5e .LASF4951
C:\Users\SOLDER~1\AppData\Local\Temp\ccYCTqm0.s:23609  .debug_str:0000000000002f71 .LASF4952
C:\Users\SOLDER~1\AppData\Local\Temp\ccYCTqm0.s:25551  .debug_str:000000000000ad48 .LASF4953
C:\Users\SOLDER~1\AppData\Local\Temp\ccYCTqm0.s:24859  .debug_str:0000000000007fbc .LASF4954
C:\Users\SOLDER~1\AppData\Local\Temp\ccYCTqm0.s:27229  .debug_str:00000000000118e4 .LASF4955
C:\Users\SOLDER~1\AppData\Local\Temp\ccYCTqm0.s:29839  .debug_str:000000000001c081 .LASF4956
C:\Users\SOLDER~1\AppData\Local\Temp\ccYCTqm0.s:25829  .debug_str:000000000000be6b .LASF4957
C:\Users\SOLDER~1\AppData\Local\Temp\ccYCTqm0.s:27771  .debug_str:0000000000013b8c .LASF4958
C:\Users\SOLDER~1\AppData\Local\Temp\ccYCTqm0.s:25109  .debug_str:0000000000008ff3 .LASF4959
C:\Users\SOLDER~1\AppData\Local\Temp\ccYCTqm0.s:28385  .debug_str:000000000001641c .LASF4960
C:\Users\SOLDER~1\AppData\Local\Temp\ccYCTqm0.s:27329  .debug_str:0000000000011f27 .LASF4961
C:\Users\SOLDER~1\AppData\Local\Temp\ccYCTqm0.s:24709  .debug_str:0000000000007675 .LASF4962
C:\Users\SOLDER~1\AppData\Local\Temp\ccYCTqm0.s:23323  .debug_str:0000000000001cf3 .LASF4963
C:\Users\SOLDER~1\AppData\Local\Temp\ccYCTqm0.s:31569  .debug_str:0000000000022ff4 .LASF4964
C:\Users\SOLDER~1\AppData\Local\Temp\ccYCTqm0.s:27285  .debug_str:0000000000011c62 .LASF4965
C:\Users\SOLDER~1\AppData\Local\Temp\ccYCTqm0.s:25193  .debug_str:00000000000095ae .LASF4966
C:\Users\SOLDER~1\AppData\Local\Temp\ccYCTqm0.s:24921  .debug_str:00000000000083c7 .LASF4967
C:\Users\SOLDER~1\AppData\Local\Temp\ccYCTqm0.s:30181  .debug_str:000000000001d6c5 .LASF4968
C:\Users\SOLDER~1\AppData\Local\Temp\ccYCTqm0.s:32427  .debug_str:0000000000026812 .LASF4969
C:\Users\SOLDER~1\AppData\Local\Temp\ccYCTqm0.s:34503  .debug_str:000000000002ee5c .LASF4970
C:\Users\SOLDER~1\AppData\Local\Temp\ccYCTqm0.s:25725  .debug_str:000000000000b842 .LASF4971
C:\Users\SOLDER~1\AppData\Local\Temp\ccYCTqm0.s:25373  .debug_str:000000000000a165 .LASF4972
C:\Users\SOLDER~1\AppData\Local\Temp\ccYCTqm0.s:25083  .debug_str:0000000000008e3c .LASF4973
C:\Users\SOLDER~1\AppData\Local\Temp\ccYCTqm0.s:31791  .debug_str:0000000000023e48 .LASF4974
C:\Users\SOLDER~1\AppData\Local\Temp\ccYCTqm0.s:25369  .debug_str:000000000000a111 .LASF4975
C:\Users\SOLDER~1\AppData\Local\Temp\ccYCTqm0.s:30595  .debug_str:000000000001f133 .LASF4976
C:\Users\SOLDER~1\AppData\Local\Temp\ccYCTqm0.s:25833  .debug_str:000000000000beba .LASF4977
C:\Users\SOLDER~1\AppData\Local\Temp\ccYCTqm0.s:25175  .debug_str:0000000000009495 .LASF4978
C:\Users\SOLDER~1\AppData\Local\Temp\ccYCTqm0.s:32841  .debug_str:000000000002834f .LASF4979
C:\Users\SOLDER~1\AppData\Local\Temp\ccYCTqm0.s:27971  .debug_str:000000000001495a .LASF4980
C:\Users\SOLDER~1\AppData\Local\Temp\ccYCTqm0.s:32985  .debug_str:0000000000028cd5 .LASF4981
C:\Users\SOLDER~1\AppData\Local\Temp\ccYCTqm0.s:29681  .debug_str:000000000001b6ef .LASF4982
C:\Users\SOLDER~1\AppData\Local\Temp\ccYCTqm0.s:24923  .debug_str:00000000000083f5 .LASF4983
C:\Users\SOLDER~1\AppData\Local\Temp\ccYCTqm0.s:29269  .debug_str:0000000000019cac .LASF4984
C:\Users\SOLDER~1\AppData\Local\Temp\ccYCTqm0.s:23075  .debug_str:0000000000000d7a .LASF4985
C:\Users\SOLDER~1\AppData\Local\Temp\ccYCTqm0.s:29779  .debug_str:000000000001bca1 .LASF4986
C:\Users\SOLDER~1\AppData\Local\Temp\ccYCTqm0.s:31873  .debug_str:0000000000024370 .LASF4987
C:\Users\SOLDER~1\AppData\Local\Temp\ccYCTqm0.s:23273  .debug_str:0000000000001980 .LASF4988
C:\Users\SOLDER~1\AppData\Local\Temp\ccYCTqm0.s:30783  .debug_str:000000000001fdc7 .LASF4989
C:\Users\SOLDER~1\AppData\Local\Temp\ccYCTqm0.s:23815  .debug_str:0000000000003cb9 .LASF4990
C:\Users\SOLDER~1\AppData\Local\Temp\ccYCTqm0.s:23735  .debug_str:00000000000037a2 .LASF4991
C:\Users\SOLDER~1\AppData\Local\Temp\ccYCTqm0.s:32261  .debug_str:0000000000025cda .LASF4992
GAS LISTING C:\Users\SOLDER~1\AppData\Local\Temp\ccYCTqm0.s 			page 192


C:\Users\SOLDER~1\AppData\Local\Temp\ccYCTqm0.s:30039  .debug_str:000000000001cd9a .LASF4993
C:\Users\SOLDER~1\AppData\Local\Temp\ccYCTqm0.s:27431  .debug_str:0000000000012590 .LASF4994
C:\Users\SOLDER~1\AppData\Local\Temp\ccYCTqm0.s:26745  .debug_str:000000000000fa10 .LASF4995
C:\Users\SOLDER~1\AppData\Local\Temp\ccYCTqm0.s:26959  .debug_str:00000000000107f9 .LASF4996
C:\Users\SOLDER~1\AppData\Local\Temp\ccYCTqm0.s:24573  .debug_str:0000000000006d9a .LASF4997
C:\Users\SOLDER~1\AppData\Local\Temp\ccYCTqm0.s:29593  .debug_str:000000000001b185 .LASF4998
C:\Users\SOLDER~1\AppData\Local\Temp\ccYCTqm0.s:25795  .debug_str:000000000000bc2b .LASF4999
C:\Users\SOLDER~1\AppData\Local\Temp\ccYCTqm0.s:29783  .debug_str:000000000001bcee .LASF5000
C:\Users\SOLDER~1\AppData\Local\Temp\ccYCTqm0.s:26723  .debug_str:000000000000f88d .LASF5001
C:\Users\SOLDER~1\AppData\Local\Temp\ccYCTqm0.s:26939  .debug_str:000000000001069b .LASF5002
C:\Users\SOLDER~1\AppData\Local\Temp\ccYCTqm0.s:26683  .debug_str:000000000000f60f .LASF5003
C:\Users\SOLDER~1\AppData\Local\Temp\ccYCTqm0.s:34573  .debug_str:000000000002f2c1 .LASF5004
C:\Users\SOLDER~1\AppData\Local\Temp\ccYCTqm0.s:26139  .debug_str:000000000000d2e5 .LASF5005
C:\Users\SOLDER~1\AppData\Local\Temp\ccYCTqm0.s:26833  .debug_str:000000000000fff7 .LASF5006
C:\Users\SOLDER~1\AppData\Local\Temp\ccYCTqm0.s:23905  .debug_str:0000000000004256 .LASF5007
C:\Users\SOLDER~1\AppData\Local\Temp\ccYCTqm0.s:32651  .debug_str:00000000000276d5 .LASF5008
C:\Users\SOLDER~1\AppData\Local\Temp\ccYCTqm0.s:33719  .debug_str:000000000002bbf8 .LASF5009
C:\Users\SOLDER~1\AppData\Local\Temp\ccYCTqm0.s:24331  .debug_str:0000000000005d68 .LASF5010
C:\Users\SOLDER~1\AppData\Local\Temp\ccYCTqm0.s:28857  .debug_str:0000000000018261 .LASF5011
C:\Users\SOLDER~1\AppData\Local\Temp\ccYCTqm0.s:29625  .debug_str:000000000001b397 .LASF5012
C:\Users\SOLDER~1\AppData\Local\Temp\ccYCTqm0.s:28607  .debug_str:0000000000017192 .LASF5013
C:\Users\SOLDER~1\AppData\Local\Temp\ccYCTqm0.s:28927  .debug_str:0000000000018717 .LASF5014
C:\Users\SOLDER~1\AppData\Local\Temp\ccYCTqm0.s:30447  .debug_str:000000000001e76d .LASF5015
C:\Users\SOLDER~1\AppData\Local\Temp\ccYCTqm0.s:33237  .debug_str:0000000000029ca5 .LASF5016
C:\Users\SOLDER~1\AppData\Local\Temp\ccYCTqm0.s:31055  .debug_str:0000000000020f23 .LASF5017
C:\Users\SOLDER~1\AppData\Local\Temp\ccYCTqm0.s:31325  .debug_str:000000000002202a .LASF5018
C:\Users\SOLDER~1\AppData\Local\Temp\ccYCTqm0.s:32649  .debug_str:00000000000276a4 .LASF5019
C:\Users\SOLDER~1\AppData\Local\Temp\ccYCTqm0.s:34557  .debug_str:000000000002f1c6 .LASF5020
C:\Users\SOLDER~1\AppData\Local\Temp\ccYCTqm0.s:25213  .debug_str:000000000000970d .LASF5021
C:\Users\SOLDER~1\AppData\Local\Temp\ccYCTqm0.s:28567  .debug_str:0000000000016f3e .LASF5022
C:\Users\SOLDER~1\AppData\Local\Temp\ccYCTqm0.s:25307  .debug_str:0000000000009d32 .LASF5023
C:\Users\SOLDER~1\AppData\Local\Temp\ccYCTqm0.s:27801  .debug_str:0000000000013de1 .LASF5024
C:\Users\SOLDER~1\AppData\Local\Temp\ccYCTqm0.s:32699  .debug_str:00000000000279fd .LASF5025
C:\Users\SOLDER~1\AppData\Local\Temp\ccYCTqm0.s:28869  .debug_str:0000000000018342 .LASF5026
C:\Users\SOLDER~1\AppData\Local\Temp\ccYCTqm0.s:23205  .debug_str:000000000000157e .LASF5027
C:\Users\SOLDER~1\AppData\Local\Temp\ccYCTqm0.s:31003  .debug_str:0000000000020bb1 .LASF5028
C:\Users\SOLDER~1\AppData\Local\Temp\ccYCTqm0.s:30785  .debug_str:000000000001fdec .LASF5029
C:\Users\SOLDER~1\AppData\Local\Temp\ccYCTqm0.s:25631  .debug_str:000000000000b222 .LASF5030
C:\Users\SOLDER~1\AppData\Local\Temp\ccYCTqm0.s:32585  .debug_str:000000000002725c .LASF5031
C:\Users\SOLDER~1\AppData\Local\Temp\ccYCTqm0.s:25141  .debug_str:0000000000009220 .LASF5032
C:\Users\SOLDER~1\AppData\Local\Temp\ccYCTqm0.s:28159  .debug_str:00000000000155aa .LASF5033
C:\Users\SOLDER~1\AppData\Local\Temp\ccYCTqm0.s:32331  .debug_str:000000000002617a .LASF5034
C:\Users\SOLDER~1\AppData\Local\Temp\ccYCTqm0.s:27183  .debug_str:00000000000115aa .LASF5035
C:\Users\SOLDER~1\AppData\Local\Temp\ccYCTqm0.s:34249  .debug_str:000000000002de17 .LASF5036
C:\Users\SOLDER~1\AppData\Local\Temp\ccYCTqm0.s:30725  .debug_str:000000000001fa14 .LASF5037
C:\Users\SOLDER~1\AppData\Local\Temp\ccYCTqm0.s:31591  .debug_str:0000000000023162 .LASF5038
C:\Users\SOLDER~1\AppData\Local\Temp\ccYCTqm0.s:33123  .debug_str:0000000000029527 .LASF5039
C:\Users\SOLDER~1\AppData\Local\Temp\ccYCTqm0.s:26543  .debug_str:000000000000ed6f .LASF5040
C:\Users\SOLDER~1\AppData\Local\Temp\ccYCTqm0.s:29913  .debug_str:000000000001c595 .LASF5041
C:\Users\SOLDER~1\AppData\Local\Temp\ccYCTqm0.s:25115  .debug_str:0000000000009060 .LASF5042
C:\Users\SOLDER~1\AppData\Local\Temp\ccYCTqm0.s:30779  .debug_str:000000000001fd7f .LASF5043
C:\Users\SOLDER~1\AppData\Local\Temp\ccYCTqm0.s:32963  .debug_str:0000000000028b48 .LASF5044
C:\Users\SOLDER~1\AppData\Local\Temp\ccYCTqm0.s:31143  .debug_str:00000000000214dc .LASF5045
C:\Users\SOLDER~1\AppData\Local\Temp\ccYCTqm0.s:23179  .debug_str:00000000000013bc .LASF5046
C:\Users\SOLDER~1\AppData\Local\Temp\ccYCTqm0.s:22887  .debug_str:0000000000000048 .LASF5047
C:\Users\SOLDER~1\AppData\Local\Temp\ccYCTqm0.s:29763  .debug_str:000000000001bbc8 .LASF5048
C:\Users\SOLDER~1\AppData\Local\Temp\ccYCTqm0.s:34213  .debug_str:000000000002dbb9 .LASF5049
GAS LISTING C:\Users\SOLDER~1\AppData\Local\Temp\ccYCTqm0.s 			page 193


C:\Users\SOLDER~1\AppData\Local\Temp\ccYCTqm0.s:22917  .debug_str:000000000000022e .LASF5050
C:\Users\SOLDER~1\AppData\Local\Temp\ccYCTqm0.s:25859  .debug_str:000000000000c053 .LASF5051
C:\Users\SOLDER~1\AppData\Local\Temp\ccYCTqm0.s:34597  .debug_str:000000000002f43a .LASF5052
C:\Users\SOLDER~1\AppData\Local\Temp\ccYCTqm0.s:27397  .debug_str:0000000000012366 .LASF5053
C:\Users\SOLDER~1\AppData\Local\Temp\ccYCTqm0.s:29061  .debug_str:0000000000018f74 .LASF5054
C:\Users\SOLDER~1\AppData\Local\Temp\ccYCTqm0.s:24861  .debug_str:0000000000007fea .LASF5055
C:\Users\SOLDER~1\AppData\Local\Temp\ccYCTqm0.s:24871  .debug_str:000000000000808c .LASF5056
C:\Users\SOLDER~1\AppData\Local\Temp\ccYCTqm0.s:30565  .debug_str:000000000001ef3c .LASF5057
C:\Users\SOLDER~1\AppData\Local\Temp\ccYCTqm0.s:34207  .debug_str:000000000002db4f .LASF5058
C:\Users\SOLDER~1\AppData\Local\Temp\ccYCTqm0.s:27095  .debug_str:000000000001101a .LASF5059
C:\Users\SOLDER~1\AppData\Local\Temp\ccYCTqm0.s:29895  .debug_str:000000000001c43f .LASF5060
C:\Users\SOLDER~1\AppData\Local\Temp\ccYCTqm0.s:27843  .debug_str:00000000000140d2 .LASF5061
C:\Users\SOLDER~1\AppData\Local\Temp\ccYCTqm0.s:31955  .debug_str:00000000000248d2 .LASF5062
C:\Users\SOLDER~1\AppData\Local\Temp\ccYCTqm0.s:28443  .debug_str:00000000000167ce .LASF5063
C:\Users\SOLDER~1\AppData\Local\Temp\ccYCTqm0.s:26823  .debug_str:000000000000ff3c .LASF5064
C:\Users\SOLDER~1\AppData\Local\Temp\ccYCTqm0.s:34535  .debug_str:000000000002f06d .LASF5065
C:\Users\SOLDER~1\AppData\Local\Temp\ccYCTqm0.s:26107  .debug_str:000000000000d0c6 .LASF5066
C:\Users\SOLDER~1\AppData\Local\Temp\ccYCTqm0.s:30591  .debug_str:000000000001f0e4 .LASF5067
C:\Users\SOLDER~1\AppData\Local\Temp\ccYCTqm0.s:23613  .debug_str:0000000000002fb5 .LASF5068
C:\Users\SOLDER~1\AppData\Local\Temp\ccYCTqm0.s:27187  .debug_str:00000000000115ef .LASF5069
C:\Users\SOLDER~1\AppData\Local\Temp\ccYCTqm0.s:30363  .debug_str:000000000001e227 .LASF5070
C:\Users\SOLDER~1\AppData\Local\Temp\ccYCTqm0.s:28079  .debug_str:00000000000150ad .LASF5071
C:\Users\SOLDER~1\AppData\Local\Temp\ccYCTqm0.s:29523  .debug_str:000000000001ad06 .LASF5072
C:\Users\SOLDER~1\AppData\Local\Temp\ccYCTqm0.s:29865  .debug_str:000000000001c259 .LASF5073
C:\Users\SOLDER~1\AppData\Local\Temp\ccYCTqm0.s:26259  .debug_str:000000000000dac0 .LASF5074
C:\Users\SOLDER~1\AppData\Local\Temp\ccYCTqm0.s:24419  .debug_str:0000000000006317 .LASF5075
C:\Users\SOLDER~1\AppData\Local\Temp\ccYCTqm0.s:34487  .debug_str:000000000002ed37 .LASF5076
C:\Users\SOLDER~1\AppData\Local\Temp\ccYCTqm0.s:23181  .debug_str:00000000000013df .LASF5077
C:\Users\SOLDER~1\AppData\Local\Temp\ccYCTqm0.s:26673  .debug_str:000000000000f559 .LASF5078
C:\Users\SOLDER~1\AppData\Local\Temp\ccYCTqm0.s:32639  .debug_str:00000000000275e9 .LASF5079
C:\Users\SOLDER~1\AppData\Local\Temp\ccYCTqm0.s:29513  .debug_str:000000000001ac52 .LASF5080
C:\Users\SOLDER~1\AppData\Local\Temp\ccYCTqm0.s:25495  .debug_str:000000000000a976 .LASF5081
C:\Users\SOLDER~1\AppData\Local\Temp\ccYCTqm0.s:24895  .debug_str:0000000000008215 .LASF5082
C:\Users\SOLDER~1\AppData\Local\Temp\ccYCTqm0.s:29583  .debug_str:000000000001b0c6 .LASF5083
C:\Users\SOLDER~1\AppData\Local\Temp\ccYCTqm0.s:32307  .debug_str:0000000000025fce .LASF5084
C:\Users\SOLDER~1\AppData\Local\Temp\ccYCTqm0.s:25171  .debug_str:000000000000943b .LASF5085
C:\Users\SOLDER~1\AppData\Local\Temp\ccYCTqm0.s:32397  .debug_str:0000000000026617 .LASF5086
C:\Users\SOLDER~1\AppData\Local\Temp\ccYCTqm0.s:24177  .debug_str:0000000000005340 .LASF5087
C:\Users\SOLDER~1\AppData\Local\Temp\ccYCTqm0.s:23045  .debug_str:0000000000000b54 .LASF5088
C:\Users\SOLDER~1\AppData\Local\Temp\ccYCTqm0.s:26049  .debug_str:000000000000ccf0 .LASF5089
C:\Users\SOLDER~1\AppData\Local\Temp\ccYCTqm0.s:27353  .debug_str:00000000000120cf .LASF5090
C:\Users\SOLDER~1\AppData\Local\Temp\ccYCTqm0.s:28505  .debug_str:0000000000016b4e .LASF5091
C:\Users\SOLDER~1\AppData\Local\Temp\ccYCTqm0.s:24469  .debug_str:0000000000006695 .LASF5092
C:\Users\SOLDER~1\AppData\Local\Temp\ccYCTqm0.s:32861  .debug_str:000000000002849f .LASF5093
C:\Users\SOLDER~1\AppData\Local\Temp\ccYCTqm0.s:31521  .debug_str:0000000000022cbc .LASF5094
C:\Users\SOLDER~1\AppData\Local\Temp\ccYCTqm0.s:27767  .debug_str:0000000000013b30 .LASF5095
C:\Users\SOLDER~1\AppData\Local\Temp\ccYCTqm0.s:31217  .debug_str:000000000002198f .LASF5096
C:\Users\SOLDER~1\AppData\Local\Temp\ccYCTqm0.s:31993  .debug_str:0000000000024b56 .LASF5097
C:\Users\SOLDER~1\AppData\Local\Temp\ccYCTqm0.s:30043  .debug_str:000000000001cde0 .LASF5098
C:\Users\SOLDER~1\AppData\Local\Temp\ccYCTqm0.s:28523  .debug_str:0000000000016c7a .LASF5099
C:\Users\SOLDER~1\AppData\Local\Temp\ccYCTqm0.s:31843  .debug_str:0000000000024190 .LASF5100
C:\Users\SOLDER~1\AppData\Local\Temp\ccYCTqm0.s:34169  .debug_str:000000000002d90d .LASF5101
C:\Users\SOLDER~1\AppData\Local\Temp\ccYCTqm0.s:29411  .debug_str:000000000001a5bd .LASF5102
C:\Users\SOLDER~1\AppData\Local\Temp\ccYCTqm0.s:33127  .debug_str:0000000000029587 .LASF5103
C:\Users\SOLDER~1\AppData\Local\Temp\ccYCTqm0.s:31005  .debug_str:0000000000020bd2 .LASF5104
C:\Users\SOLDER~1\AppData\Local\Temp\ccYCTqm0.s:29803  .debug_str:000000000001be5a .LASF5105
C:\Users\SOLDER~1\AppData\Local\Temp\ccYCTqm0.s:28623  .debug_str:00000000000172a5 .LASF5106
GAS LISTING C:\Users\SOLDER~1\AppData\Local\Temp\ccYCTqm0.s 			page 194


C:\Users\SOLDER~1\AppData\Local\Temp\ccYCTqm0.s:32241  .debug_str:0000000000025b4b .LASF5107
C:\Users\SOLDER~1\AppData\Local\Temp\ccYCTqm0.s:23249  .debug_str:0000000000001843 .LASF5108
C:\Users\SOLDER~1\AppData\Local\Temp\ccYCTqm0.s:27279  .debug_str:0000000000011c07 .LASF5109
C:\Users\SOLDER~1\AppData\Local\Temp\ccYCTqm0.s:27957  .debug_str:0000000000014867 .LASF5110
C:\Users\SOLDER~1\AppData\Local\Temp\ccYCTqm0.s:25559  .debug_str:000000000000add5 .LASF5111
C:\Users\SOLDER~1\AppData\Local\Temp\ccYCTqm0.s:25945  .debug_str:000000000000c603 .LASF5112
C:\Users\SOLDER~1\AppData\Local\Temp\ccYCTqm0.s:25073  .debug_str:0000000000008da1 .LASF5113
C:\Users\SOLDER~1\AppData\Local\Temp\ccYCTqm0.s:24953  .debug_str:00000000000085fa .LASF5114
C:\Users\SOLDER~1\AppData\Local\Temp\ccYCTqm0.s:23939  .debug_str:0000000000004480 .LASF5115
C:\Users\SOLDER~1\AppData\Local\Temp\ccYCTqm0.s:26213  .debug_str:000000000000d7c7 .LASF5116
C:\Users\SOLDER~1\AppData\Local\Temp\ccYCTqm0.s:31043  .debug_str:0000000000020e4d .LASF5117
C:\Users\SOLDER~1\AppData\Local\Temp\ccYCTqm0.s:26705  .debug_str:000000000000f77f .LASF5118
C:\Users\SOLDER~1\AppData\Local\Temp\ccYCTqm0.s:23689  .debug_str:00000000000034ac .LASF5119
C:\Users\SOLDER~1\AppData\Local\Temp\ccYCTqm0.s:33497  .debug_str:000000000002ad4e .LASF5120
C:\Users\SOLDER~1\AppData\Local\Temp\ccYCTqm0.s:27017  .debug_str:0000000000010b27 .LASF5121
C:\Users\SOLDER~1\AppData\Local\Temp\ccYCTqm0.s:33307  .debug_str:000000000002a11c .LASF5122
C:\Users\SOLDER~1\AppData\Local\Temp\ccYCTqm0.s:26789  .debug_str:000000000000fcd3 .LASF5123
C:\Users\SOLDER~1\AppData\Local\Temp\ccYCTqm0.s:23455  .debug_str:00000000000025cf .LASF5124
C:\Users\SOLDER~1\AppData\Local\Temp\ccYCTqm0.s:29427  .debug_str:000000000001a6a8 .LASF5125
C:\Users\SOLDER~1\AppData\Local\Temp\ccYCTqm0.s:23051  .debug_str:0000000000000bd4 .LASF5126
C:\Users\SOLDER~1\AppData\Local\Temp\ccYCTqm0.s:24147  .debug_str:0000000000005185 .LASF5127
C:\Users\SOLDER~1\AppData\Local\Temp\ccYCTqm0.s:33397  .debug_str:000000000002a763 .LASF5128
C:\Users\SOLDER~1\AppData\Local\Temp\ccYCTqm0.s:22933  .debug_str:000000000000032c .LASF5129
C:\Users\SOLDER~1\AppData\Local\Temp\ccYCTqm0.s:24667  .debug_str:00000000000073d1 .LASF5130
C:\Users\SOLDER~1\AppData\Local\Temp\ccYCTqm0.s:33635  .debug_str:000000000002b6bb .LASF5131
C:\Users\SOLDER~1\AppData\Local\Temp\ccYCTqm0.s:23405  .debug_str:0000000000002273 .LASF5132
C:\Users\SOLDER~1\AppData\Local\Temp\ccYCTqm0.s:32401  .debug_str:000000000002666b .LASF5133
C:\Users\SOLDER~1\AppData\Local\Temp\ccYCTqm0.s:33769  .debug_str:000000000002bf0c .LASF5134
C:\Users\SOLDER~1\AppData\Local\Temp\ccYCTqm0.s:26963  .debug_str:0000000000010833 .LASF5135
C:\Users\SOLDER~1\AppData\Local\Temp\ccYCTqm0.s:25949  .debug_str:000000000000c656 .LASF5136
C:\Users\SOLDER~1\AppData\Local\Temp\ccYCTqm0.s:32055  .debug_str:0000000000024f88 .LASF5137
C:\Users\SOLDER~1\AppData\Local\Temp\ccYCTqm0.s:29285  .debug_str:0000000000019da3 .LASF5138
C:\Users\SOLDER~1\AppData\Local\Temp\ccYCTqm0.s:26509  .debug_str:000000000000eb14 .LASF5139
C:\Users\SOLDER~1\AppData\Local\Temp\ccYCTqm0.s:34403  .debug_str:000000000002e7ab .LASF5140
C:\Users\SOLDER~1\AppData\Local\Temp\ccYCTqm0.s:27209  .debug_str:000000000001174c .LASF5141
C:\Users\SOLDER~1\AppData\Local\Temp\ccYCTqm0.s:30101  .debug_str:000000000001d1f2 .LASF5142
C:\Users\SOLDER~1\AppData\Local\Temp\ccYCTqm0.s:28809  .debug_str:0000000000017f10 .LASF5143
C:\Users\SOLDER~1\AppData\Local\Temp\ccYCTqm0.s:24847  .debug_str:0000000000007ee9 .LASF5144
C:\Users\SOLDER~1\AppData\Local\Temp\ccYCTqm0.s:34023  .debug_str:000000000002cf41 .LASF5145
C:\Users\SOLDER~1\AppData\Local\Temp\ccYCTqm0.s:30449  .debug_str:000000000001e790 .LASF5146
C:\Users\SOLDER~1\AppData\Local\Temp\ccYCTqm0.s:23189  .debug_str:0000000000001473 .LASF5147
C:\Users\SOLDER~1\AppData\Local\Temp\ccYCTqm0.s:28307  .debug_str:0000000000015f16 .LASF5148
C:\Users\SOLDER~1\AppData\Local\Temp\ccYCTqm0.s:32575  .debug_str:00000000000271ad .LASF5149
C:\Users\SOLDER~1\AppData\Local\Temp\ccYCTqm0.s:27413  .debug_str:0000000000012452 .LASF5150
C:\Users\SOLDER~1\AppData\Local\Temp\ccYCTqm0.s:32811  .debug_str:000000000002815b .LASF5151
C:\Users\SOLDER~1\AppData\Local\Temp\ccYCTqm0.s:23281  .debug_str:0000000000001a25 .LASF5152
C:\Users\SOLDER~1\AppData\Local\Temp\ccYCTqm0.s:31449  .debug_str:00000000000227d7 .LASF5153
C:\Users\SOLDER~1\AppData\Local\Temp\ccYCTqm0.s:29405  .debug_str:000000000001a557 .LASF5154
C:\Users\SOLDER~1\AppData\Local\Temp\ccYCTqm0.s:28327  .debug_str:0000000000016057 .LASF5155
C:\Users\SOLDER~1\AppData\Local\Temp\ccYCTqm0.s:25569  .debug_str:000000000000ae58 .LASF5156
C:\Users\SOLDER~1\AppData\Local\Temp\ccYCTqm0.s:23023  .debug_str:00000000000009d5 .LASF5157
C:\Users\SOLDER~1\AppData\Local\Temp\ccYCTqm0.s:30553  .debug_str:000000000001ee8e .LASF5158
C:\Users\SOLDER~1\AppData\Local\Temp\ccYCTqm0.s:33353  .debug_str:000000000002a439 .LASF5159
C:\Users\SOLDER~1\AppData\Local\Temp\ccYCTqm0.s:28757  .debug_str:0000000000017bd7 .LASF5160
C:\Users\SOLDER~1\AppData\Local\Temp\ccYCTqm0.s:26931  .debug_str:000000000001062d .LASF5161
C:\Users\SOLDER~1\AppData\Local\Temp\ccYCTqm0.s:23607  .debug_str:0000000000002f53 .LASF5162
C:\Users\SOLDER~1\AppData\Local\Temp\ccYCTqm0.s:24777  .debug_str:0000000000007a7f .LASF5163
GAS LISTING C:\Users\SOLDER~1\AppData\Local\Temp\ccYCTqm0.s 			page 195


C:\Users\SOLDER~1\AppData\Local\Temp\ccYCTqm0.s:30333  .debug_str:000000000001e00c .LASF5164
C:\Users\SOLDER~1\AppData\Local\Temp\ccYCTqm0.s:24881  .debug_str:000000000000812d .LASF5165
C:\Users\SOLDER~1\AppData\Local\Temp\ccYCTqm0.s:23877  .debug_str:000000000000409c .LASF5166
C:\Users\SOLDER~1\AppData\Local\Temp\ccYCTqm0.s:23681  .debug_str:000000000000342c .LASF5167
C:\Users\SOLDER~1\AppData\Local\Temp\ccYCTqm0.s:31203  .debug_str:000000000002188c .LASF5168
C:\Users\SOLDER~1\AppData\Local\Temp\ccYCTqm0.s:29977  .debug_str:000000000001c972 .LASF5169
C:\Users\SOLDER~1\AppData\Local\Temp\ccYCTqm0.s:23699  .debug_str:0000000000003567 .LASF5170
C:\Users\SOLDER~1\AppData\Local\Temp\ccYCTqm0.s:33917  .debug_str:000000000002c8ce .LASF5171
C:\Users\SOLDER~1\AppData\Local\Temp\ccYCTqm0.s:30739  .debug_str:000000000001faef .LASF5172
C:\Users\SOLDER~1\AppData\Local\Temp\ccYCTqm0.s:27029  .debug_str:0000000000010c12 .LASF5173
C:\Users\SOLDER~1\AppData\Local\Temp\ccYCTqm0.s:23889  .debug_str:000000000000414f .LASF5174
C:\Users\SOLDER~1\AppData\Local\Temp\ccYCTqm0.s:24273  .debug_str:0000000000005941 .LASF5175
C:\Users\SOLDER~1\AppData\Local\Temp\ccYCTqm0.s:23109  .debug_str:0000000000000f6a .LASF5176
C:\Users\SOLDER~1\AppData\Local\Temp\ccYCTqm0.s:33621  .debug_str:000000000002b5b3 .LASF5177
C:\Users\SOLDER~1\AppData\Local\Temp\ccYCTqm0.s:31655  .debug_str:000000000002357c .LASF5178
C:\Users\SOLDER~1\AppData\Local\Temp\ccYCTqm0.s:29165  .debug_str:0000000000019614 .LASF5179
C:\Users\SOLDER~1\AppData\Local\Temp\ccYCTqm0.s:28613  .debug_str:00000000000171fc .LASF5180
C:\Users\SOLDER~1\AppData\Local\Temp\ccYCTqm0.s:26587  .debug_str:000000000000efd7 .LASF5181
C:\Users\SOLDER~1\AppData\Local\Temp\ccYCTqm0.s:24663  .debug_str:0000000000007384 .LASF5182
C:\Users\SOLDER~1\AppData\Local\Temp\ccYCTqm0.s:24931  .debug_str:00000000000084a1 .LASF5183
C:\Users\SOLDER~1\AppData\Local\Temp\ccYCTqm0.s:33143  .debug_str:0000000000029681 .LASF5184
C:\Users\SOLDER~1\AppData\Local\Temp\ccYCTqm0.s:31261  .debug_str:0000000000021c44 .LASF5185
C:\Users\SOLDER~1\AppData\Local\Temp\ccYCTqm0.s:26039  .debug_str:000000000000cc49 .LASF5186
C:\Users\SOLDER~1\AppData\Local\Temp\ccYCTqm0.s:31801  .debug_str:0000000000023eeb .LASF5187
C:\Users\SOLDER~1\AppData\Local\Temp\ccYCTqm0.s:29907  .debug_str:000000000001c50d .LASF5188
C:\Users\SOLDER~1\AppData\Local\Temp\ccYCTqm0.s:30117  .debug_str:000000000001d2f2 .LASF5189
C:\Users\SOLDER~1\AppData\Local\Temp\ccYCTqm0.s:27171  .debug_str:00000000000114fa .LASF5190
C:\Users\SOLDER~1\AppData\Local\Temp\ccYCTqm0.s:25703  .debug_str:000000000000b6a8 .LASF5191
C:\Users\SOLDER~1\AppData\Local\Temp\ccYCTqm0.s:30427  .debug_str:000000000001e633 .LASF5192
C:\Users\SOLDER~1\AppData\Local\Temp\ccYCTqm0.s:30791  .debug_str:000000000001fe55 .LASF5193
C:\Users\SOLDER~1\AppData\Local\Temp\ccYCTqm0.s:25335  .debug_str:0000000000009ed4 .LASF5194
C:\Users\SOLDER~1\AppData\Local\Temp\ccYCTqm0.s:31239  .debug_str:0000000000021ae8 .LASF5195
C:\Users\SOLDER~1\AppData\Local\Temp\ccYCTqm0.s:32393  .debug_str:00000000000265c7 .LASF5196
C:\Users\SOLDER~1\AppData\Local\Temp\ccYCTqm0.s:23371  .debug_str:0000000000002035 .LASF5197
C:\Users\SOLDER~1\AppData\Local\Temp\ccYCTqm0.s:27673  .debug_str:00000000000134f4 .LASF5198
C:\Users\SOLDER~1\AppData\Local\Temp\ccYCTqm0.s:34489  .debug_str:000000000002ed6e .LASF5199
C:\Users\SOLDER~1\AppData\Local\Temp\ccYCTqm0.s:27731  .debug_str:00000000000138e4 .LASF5200
C:\Users\SOLDER~1\AppData\Local\Temp\ccYCTqm0.s:30959  .debug_str:00000000000208eb .LASF5201
C:\Users\SOLDER~1\AppData\Local\Temp\ccYCTqm0.s:31455  .debug_str:0000000000022849 .LASF5202
C:\Users\SOLDER~1\AppData\Local\Temp\ccYCTqm0.s:28367  .debug_str:00000000000162ef .LASF5203
C:\Users\SOLDER~1\AppData\Local\Temp\ccYCTqm0.s:33269  .debug_str:0000000000029e83 .LASF5204
C:\Users\SOLDER~1\AppData\Local\Temp\ccYCTqm0.s:29067  .debug_str:0000000000018fea .LASF5205
C:\Users\SOLDER~1\AppData\Local\Temp\ccYCTqm0.s:32711  .debug_str:0000000000027ac3 .LASF5206
C:\Users\SOLDER~1\AppData\Local\Temp\ccYCTqm0.s:30531  .debug_str:000000000001ed32 .LASF5207
C:\Users\SOLDER~1\AppData\Local\Temp\ccYCTqm0.s:27523  .debug_str:0000000000012b17 .LASF5208
C:\Users\SOLDER~1\AppData\Local\Temp\ccYCTqm0.s:28697  .debug_str:00000000000177b8 .LASF5209
C:\Users\SOLDER~1\AppData\Local\Temp\ccYCTqm0.s:28591  .debug_str:00000000000170a3 .LASF5210
C:\Users\SOLDER~1\AppData\Local\Temp\ccYCTqm0.s:23279  .debug_str:00000000000019fa .LASF5211
C:\Users\SOLDER~1\AppData\Local\Temp\ccYCTqm0.s:31719  .debug_str:00000000000239cc .LASF5212
C:\Users\SOLDER~1\AppData\Local\Temp\ccYCTqm0.s:25647  .debug_str:000000000000b321 .LASF5213
C:\Users\SOLDER~1\AppData\Local\Temp\ccYCTqm0.s:24645  .debug_str:0000000000007256 .LASF5214
C:\Users\SOLDER~1\AppData\Local\Temp\ccYCTqm0.s:24183  .debug_str:00000000000053ba .LASF5215
C:\Users\SOLDER~1\AppData\Local\Temp\ccYCTqm0.s:27085  .debug_str:0000000000010f9e .LASF5216
C:\Users\SOLDER~1\AppData\Local\Temp\ccYCTqm0.s:26393  .debug_str:000000000000e368 .LASF5217
C:\Users\SOLDER~1\AppData\Local\Temp\ccYCTqm0.s:32087  .debug_str:0000000000025190 .LASF5218
C:\Users\SOLDER~1\AppData\Local\Temp\ccYCTqm0.s:33149  .debug_str:00000000000296f3 .LASF5219
C:\Users\SOLDER~1\AppData\Local\Temp\ccYCTqm0.s:24307  .debug_str:0000000000005bb9 .LASF5220
GAS LISTING C:\Users\SOLDER~1\AppData\Local\Temp\ccYCTqm0.s 			page 196


C:\Users\SOLDER~1\AppData\Local\Temp\ccYCTqm0.s:28361  .debug_str:000000000001628d .LASF5221
C:\Users\SOLDER~1\AppData\Local\Temp\ccYCTqm0.s:25929  .debug_str:000000000000c4ed .LASF5222
C:\Users\SOLDER~1\AppData\Local\Temp\ccYCTqm0.s:24827  .debug_str:0000000000007d79 .LASF5223
C:\Users\SOLDER~1\AppData\Local\Temp\ccYCTqm0.s:24701  .debug_str:00000000000075f7 .LASF5224
C:\Users\SOLDER~1\AppData\Local\Temp\ccYCTqm0.s:31307  .debug_str:0000000000021f2d .LASF5225
C:\Users\SOLDER~1\AppData\Local\Temp\ccYCTqm0.s:29323  .debug_str:000000000001a02f .LASF5226
C:\Users\SOLDER~1\AppData\Local\Temp\ccYCTqm0.s:32723  .debug_str:0000000000027b85 .LASF5227
C:\Users\SOLDER~1\AppData\Local\Temp\ccYCTqm0.s:34575  .debug_str:000000000002f2e2 .LASF5228
C:\Users\SOLDER~1\AppData\Local\Temp\ccYCTqm0.s:31515  .debug_str:0000000000022c43 .LASF5229
C:\Users\SOLDER~1\AppData\Local\Temp\ccYCTqm0.s:30019  .debug_str:000000000001cc50 .LASF5230
C:\Users\SOLDER~1\AppData\Local\Temp\ccYCTqm0.s:23769  .debug_str:00000000000039b8 .LASF5231
C:\Users\SOLDER~1\AppData\Local\Temp\ccYCTqm0.s:33673  .debug_str:000000000002b8e3 .LASF5232
C:\Users\SOLDER~1\AppData\Local\Temp\ccYCTqm0.s:34121  .debug_str:000000000002d5ff .LASF5233
C:\Users\SOLDER~1\AppData\Local\Temp\ccYCTqm0.s:28833  .debug_str:00000000000180b6 .LASF5234
C:\Users\SOLDER~1\AppData\Local\Temp\ccYCTqm0.s:23647  .debug_str:00000000000031f7 .LASF5235
C:\Users\SOLDER~1\AppData\Local\Temp\ccYCTqm0.s:26055  .debug_str:000000000000cd54 .LASF5236
C:\Users\SOLDER~1\AppData\Local\Temp\ccYCTqm0.s:33747  .debug_str:000000000002bdbc .LASF5237
C:\Users\SOLDER~1\AppData\Local\Temp\ccYCTqm0.s:33121  .debug_str:0000000000029506 .LASF5238
C:\Users\SOLDER~1\AppData\Local\Temp\ccYCTqm0.s:34073  .debug_str:000000000002d285 .LASF5239
C:\Users\SOLDER~1\AppData\Local\Temp\ccYCTqm0.s:31439  .debug_str:0000000000022720 .LASF5240
C:\Users\SOLDER~1\AppData\Local\Temp\ccYCTqm0.s:27161  .debug_str:000000000001144c .LASF5241
C:\Users\SOLDER~1\AppData\Local\Temp\ccYCTqm0.s:33057  .debug_str:0000000000029138 .LASF5242
C:\Users\SOLDER~1\AppData\Local\Temp\ccYCTqm0.s:33701  .debug_str:000000000002bace .LASF5243
C:\Users\SOLDER~1\AppData\Local\Temp\ccYCTqm0.s:25111  .debug_str:0000000000009019 .LASF5244
C:\Users\SOLDER~1\AppData\Local\Temp\ccYCTqm0.s:27961  .debug_str:00000000000148b6 .LASF5245
C:\Users\SOLDER~1\AppData\Local\Temp\ccYCTqm0.s:32873  .debug_str:0000000000028582 .LASF5246
C:\Users\SOLDER~1\AppData\Local\Temp\ccYCTqm0.s:23709  .debug_str:0000000000003617 .LASF5247
C:\Users\SOLDER~1\AppData\Local\Temp\ccYCTqm0.s:27881  .debug_str:000000000001430f .LASF5248
C:\Users\SOLDER~1\AppData\Local\Temp\ccYCTqm0.s:29419  .debug_str:000000000001a625 .LASF5249
C:\Users\SOLDER~1\AppData\Local\Temp\ccYCTqm0.s:23615  .debug_str:0000000000002fdb .LASF5250
C:\Users\SOLDER~1\AppData\Local\Temp\ccYCTqm0.s:24891  .debug_str:00000000000081d4 .LASF5251
C:\Users\SOLDER~1\AppData\Local\Temp\ccYCTqm0.s:29397  .debug_str:000000000001a4d3 .LASF5252
C:\Users\SOLDER~1\AppData\Local\Temp\ccYCTqm0.s:28419  .debug_str:0000000000016644 .LASF5253
C:\Users\SOLDER~1\AppData\Local\Temp\ccYCTqm0.s:31999  .debug_str:0000000000024bb7 .LASF5254
C:\Users\SOLDER~1\AppData\Local\Temp\ccYCTqm0.s:27429  .debug_str:0000000000012570 .LASF5255
C:\Users\SOLDER~1\AppData\Local\Temp\ccYCTqm0.s:33819  .debug_str:000000000002c23f .LASF5256
C:\Users\SOLDER~1\AppData\Local\Temp\ccYCTqm0.s:27973  .debug_str:000000000001498a .LASF5257
C:\Users\SOLDER~1\AppData\Local\Temp\ccYCTqm0.s:26211  .debug_str:000000000000d7a7 .LASF5258
C:\Users\SOLDER~1\AppData\Local\Temp\ccYCTqm0.s:33947  .debug_str:000000000002caa8 .LASF5259
C:\Users\SOLDER~1\AppData\Local\Temp\ccYCTqm0.s:32251  .debug_str:0000000000025c07 .LASF5260
C:\Users\SOLDER~1\AppData\Local\Temp\ccYCTqm0.s:28061  .debug_str:0000000000014f77 .LASF5261
C:\Users\SOLDER~1\AppData\Local\Temp\ccYCTqm0.s:24071  .debug_str:0000000000004ccb .LASF5262
C:\Users\SOLDER~1\AppData\Local\Temp\ccYCTqm0.s:24263  .debug_str:0000000000005882 .LASF5263
C:\Users\SOLDER~1\AppData\Local\Temp\ccYCTqm0.s:29375  .debug_str:000000000001a354 .LASF5264
C:\Users\SOLDER~1\AppData\Local\Temp\ccYCTqm0.s:31517  .debug_str:0000000000022c63 .LASF5265
C:\Users\SOLDER~1\AppData\Local\Temp\ccYCTqm0.s:23167  .debug_str:000000000000131d .LASF5266
C:\Users\SOLDER~1\AppData\Local\Temp\ccYCTqm0.s:26801  .debug_str:000000000000fdca .LASF5267
C:\Users\SOLDER~1\AppData\Local\Temp\ccYCTqm0.s:32225  .debug_str:0000000000025a36 .LASF5268
C:\Users\SOLDER~1\AppData\Local\Temp\ccYCTqm0.s:24757  .debug_str:000000000000796a .LASF5269
C:\Users\SOLDER~1\AppData\Local\Temp\ccYCTqm0.s:33547  .debug_str:000000000002b0c5 .LASF5270
C:\Users\SOLDER~1\AppData\Local\Temp\ccYCTqm0.s:34599  .debug_str:000000000002f460 .LASF5271
C:\Users\SOLDER~1\AppData\Local\Temp\ccYCTqm0.s:29229  .debug_str:0000000000019a69 .LASF5272
C:\Users\SOLDER~1\AppData\Local\Temp\ccYCTqm0.s:33879  .debug_str:000000000002c66e .LASF5273
C:\Users\SOLDER~1\AppData\Local\Temp\ccYCTqm0.s:29207  .debug_str:00000000000198dd .LASF5274
C:\Users\SOLDER~1\AppData\Local\Temp\ccYCTqm0.s:28741  .debug_str:0000000000017ac9 .LASF5275
C:\Users\SOLDER~1\AppData\Local\Temp\ccYCTqm0.s:27975  .debug_str:00000000000149aa .LASF5276
C:\Users\SOLDER~1\AppData\Local\Temp\ccYCTqm0.s:26265  .debug_str:000000000000db45 .LASF5277
GAS LISTING C:\Users\SOLDER~1\AppData\Local\Temp\ccYCTqm0.s 			page 197


C:\Users\SOLDER~1\AppData\Local\Temp\ccYCTqm0.s:30863  .debug_str:00000000000202cf .LASF5278
C:\Users\SOLDER~1\AppData\Local\Temp\ccYCTqm0.s:34375  .debug_str:000000000002e5f6 .LASF5279
C:\Users\SOLDER~1\AppData\Local\Temp\ccYCTqm0.s:25807  .debug_str:000000000000bce9 .LASF5280
C:\Users\SOLDER~1\AppData\Local\Temp\ccYCTqm0.s:25789  .debug_str:000000000000bbc0 .LASF5281
C:\Users\SOLDER~1\AppData\Local\Temp\ccYCTqm0.s:34085  .debug_str:000000000002d35b .LASF5282
C:\Users\SOLDER~1\AppData\Local\Temp\ccYCTqm0.s:31961  .debug_str:000000000002494c .LASF5283
C:\Users\SOLDER~1\AppData\Local\Temp\ccYCTqm0.s:29497  .debug_str:000000000001ab33 .LASF5284
C:\Users\SOLDER~1\AppData\Local\Temp\ccYCTqm0.s:30201  .debug_str:000000000001d821 .LASF5285
C:\Users\SOLDER~1\AppData\Local\Temp\ccYCTqm0.s:23359  .debug_str:0000000000001f68 .LASF5286
C:\Users\SOLDER~1\AppData\Local\Temp\ccYCTqm0.s:28969  .debug_str:000000000001899b .LASF5287
C:\Users\SOLDER~1\AppData\Local\Temp\ccYCTqm0.s:32741  .debug_str:0000000000027ca2 .LASF5288
C:\Users\SOLDER~1\AppData\Local\Temp\ccYCTqm0.s:26851  .debug_str:0000000000010153 .LASF5289
C:\Users\SOLDER~1\AppData\Local\Temp\ccYCTqm0.s:29049  .debug_str:0000000000018ec3 .LASF5290
C:\Users\SOLDER~1\AppData\Local\Temp\ccYCTqm0.s:28033  .debug_str:0000000000014d98 .LASF5291
C:\Users\SOLDER~1\AppData\Local\Temp\ccYCTqm0.s:33691  .debug_str:000000000002ba1c .LASF5292
C:\Users\SOLDER~1\AppData\Local\Temp\ccYCTqm0.s:34163  .debug_str:000000000002d8b6 .LASF5293
C:\Users\SOLDER~1\AppData\Local\Temp\ccYCTqm0.s:34007  .debug_str:000000000002ce2d .LASF5294
C:\Users\SOLDER~1\AppData\Local\Temp\ccYCTqm0.s:24405  .debug_str:0000000000006228 .LASF5295
C:\Users\SOLDER~1\AppData\Local\Temp\ccYCTqm0.s:33147  .debug_str:00000000000296cd .LASF5296
C:\Users\SOLDER~1\AppData\Local\Temp\ccYCTqm0.s:25573  .debug_str:000000000000aea6 .LASF5297
C:\Users\SOLDER~1\AppData\Local\Temp\ccYCTqm0.s:32807  .debug_str:0000000000028110 .LASF5298
C:\Users\SOLDER~1\AppData\Local\Temp\ccYCTqm0.s:29237  .debug_str:0000000000019afa .LASF5299
C:\Users\SOLDER~1\AppData\Local\Temp\ccYCTqm0.s:32667  .debug_str:00000000000277e8 .LASF5300
C:\Users\SOLDER~1\AppData\Local\Temp\ccYCTqm0.s:26021  .debug_str:000000000000cb29 .LASF5301
C:\Users\SOLDER~1\AppData\Local\Temp\ccYCTqm0.s:27157  .debug_str:0000000000011403 .LASF5302
C:\Users\SOLDER~1\AppData\Local\Temp\ccYCTqm0.s:25545  .debug_str:000000000000accd .LASF5303
C:\Users\SOLDER~1\AppData\Local\Temp\ccYCTqm0.s:34039  .debug_str:000000000002d049 .LASF5304
C:\Users\SOLDER~1\AppData\Local\Temp\ccYCTqm0.s:30527  .debug_str:000000000001ece5 .LASF5305
C:\Users\SOLDER~1\AppData\Local\Temp\ccYCTqm0.s:31561  .debug_str:0000000000022f70 .LASF5306
C:\Users\SOLDER~1\AppData\Local\Temp\ccYCTqm0.s:30001  .debug_str:000000000001cb1f .LASF5307
C:\Users\SOLDER~1\AppData\Local\Temp\ccYCTqm0.s:25087  .debug_str:0000000000008e92 .LASF5308
C:\Users\SOLDER~1\AppData\Local\Temp\ccYCTqm0.s:32899  .debug_str:0000000000028710 .LASF5309
C:\Users\SOLDER~1\AppData\Local\Temp\ccYCTqm0.s:34299  .debug_str:000000000002e12b .LASF5310
C:\Users\SOLDER~1\AppData\Local\Temp\ccYCTqm0.s:24267  .debug_str:00000000000058cf .LASF5311
C:\Users\SOLDER~1\AppData\Local\Temp\ccYCTqm0.s:27979  .debug_str:00000000000149fd .LASF5312
C:\Users\SOLDER~1\AppData\Local\Temp\ccYCTqm0.s:33703  .debug_str:000000000002baef .LASF5313
C:\Users\SOLDER~1\AppData\Local\Temp\ccYCTqm0.s:34105  .debug_str:000000000002d4cb .LASF5314
C:\Users\SOLDER~1\AppData\Local\Temp\ccYCTqm0.s:27383  .debug_str:0000000000012288 .LASF5315
C:\Users\SOLDER~1\AppData\Local\Temp\ccYCTqm0.s:24049  .debug_str:0000000000004b76 .LASF5316
C:\Users\SOLDER~1\AppData\Local\Temp\ccYCTqm0.s:23691  .debug_str:00000000000034cf .LASF5317
C:\Users\SOLDER~1\AppData\Local\Temp\ccYCTqm0.s:29731  .debug_str:000000000001b9c6 .LASF5318
C:\Users\SOLDER~1\AppData\Local\Temp\ccYCTqm0.s:33033  .debug_str:0000000000028fbd .LASF5319
C:\Users\SOLDER~1\AppData\Local\Temp\ccYCTqm0.s:25519  .debug_str:000000000000ab32 .LASF5320
C:\Users\SOLDER~1\AppData\Local\Temp\ccYCTqm0.s:26795  .debug_str:000000000000fd68 .LASF5321
C:\Users\SOLDER~1\AppData\Local\Temp\ccYCTqm0.s:30167  .debug_str:000000000001d5ee .LASF5322
C:\Users\SOLDER~1\AppData\Local\Temp\ccYCTqm0.s:31023  .debug_str:0000000000020cf1 .LASF5323
C:\Users\SOLDER~1\AppData\Local\Temp\ccYCTqm0.s:25387  .debug_str:000000000000a25a .LASF5324
C:\Users\SOLDER~1\AppData\Local\Temp\ccYCTqm0.s:23303  .debug_str:0000000000001ba9 .LASF5325
C:\Users\SOLDER~1\AppData\Local\Temp\ccYCTqm0.s:30765  .debug_str:000000000001fcb0 .LASF5326
C:\Users\SOLDER~1\AppData\Local\Temp\ccYCTqm0.s:24079  .debug_str:0000000000004d58 .LASF5327
C:\Users\SOLDER~1\AppData\Local\Temp\ccYCTqm0.s:33877  .debug_str:000000000002c64b .LASF5328
C:\Users\SOLDER~1\AppData\Local\Temp\ccYCTqm0.s:30907  .debug_str:0000000000020585 .LASF5329
C:\Users\SOLDER~1\AppData\Local\Temp\ccYCTqm0.s:31387  .debug_str:0000000000022431 .LASF5330
C:\Users\SOLDER~1\AppData\Local\Temp\ccYCTqm0.s:28469  .debug_str:000000000001695f .LASF5331
C:\Users\SOLDER~1\AppData\Local\Temp\ccYCTqm0.s:26985  .debug_str:000000000001096d .LASF5332
C:\Users\SOLDER~1\AppData\Local\Temp\ccYCTqm0.s:28331  .debug_str:000000000001609f .LASF5333
C:\Users\SOLDER~1\AppData\Local\Temp\ccYCTqm0.s:27309  .debug_str:0000000000011de8 .LASF5334
GAS LISTING C:\Users\SOLDER~1\AppData\Local\Temp\ccYCTqm0.s 			page 198


C:\Users\SOLDER~1\AppData\Local\Temp\ccYCTqm0.s:32337  .debug_str:00000000000261de .LASF5335
C:\Users\SOLDER~1\AppData\Local\Temp\ccYCTqm0.s:26869  .debug_str:0000000000010282 .LASF5336
C:\Users\SOLDER~1\AppData\Local\Temp\ccYCTqm0.s:25713  .debug_str:000000000000b75d .LASF5337
C:\Users\SOLDER~1\AppData\Local\Temp\ccYCTqm0.s:27633  .debug_str:0000000000013276 .LASF5338
C:\Users\SOLDER~1\AppData\Local\Temp\ccYCTqm0.s:26697  .debug_str:000000000000f6ff .LASF5339
C:\Users\SOLDER~1\AppData\Local\Temp\ccYCTqm0.s:23795  .debug_str:0000000000003b5b .LASF5340
C:\Users\SOLDER~1\AppData\Local\Temp\ccYCTqm0.s:25501  .debug_str:000000000000aa00 .LASF5341
C:\Users\SOLDER~1\AppData\Local\Temp\ccYCTqm0.s:23955  .debug_str:0000000000004565 .LASF5342
C:\Users\SOLDER~1\AppData\Local\Temp\ccYCTqm0.s:28621  .debug_str:0000000000017284 .LASF5343
C:\Users\SOLDER~1\AppData\Local\Temp\ccYCTqm0.s:25351  .debug_str:0000000000009fd4 .LASF5344
C:\Users\SOLDER~1\AppData\Local\Temp\ccYCTqm0.s:33837  .debug_str:000000000002c382 .LASF5345
C:\Users\SOLDER~1\AppData\Local\Temp\ccYCTqm0.s:28605  .debug_str:0000000000017171 .LASF5346
C:\Users\SOLDER~1\AppData\Local\Temp\ccYCTqm0.s:29413  .debug_str:000000000001a5cf .LASF5347
C:\Users\SOLDER~1\AppData\Local\Temp\ccYCTqm0.s:32377  .debug_str:00000000000264b6 .LASF5348
C:\Users\SOLDER~1\AppData\Local\Temp\ccYCTqm0.s:23071  .debug_str:0000000000000d35 .LASF5349
C:\Users\SOLDER~1\AppData\Local\Temp\ccYCTqm0.s:32391  .debug_str:00000000000265a1 .LASF5350
C:\Users\SOLDER~1\AppData\Local\Temp\ccYCTqm0.s:23835  .debug_str:0000000000003dfe .LASF5351
C:\Users\SOLDER~1\AppData\Local\Temp\ccYCTqm0.s:24637  .debug_str:00000000000071a2 .LASF5352
C:\Users\SOLDER~1\AppData\Local\Temp\ccYCTqm0.s:25221  .debug_str:00000000000097a9 .LASF5353
C:\Users\SOLDER~1\AppData\Local\Temp\ccYCTqm0.s:25801  .debug_str:000000000000bc77 .LASF5354
C:\Users\SOLDER~1\AppData\Local\Temp\ccYCTqm0.s:26757  .debug_str:000000000000fad5 .LASF5355
C:\Users\SOLDER~1\AppData\Local\Temp\ccYCTqm0.s:29533  .debug_str:000000000001adaa .LASF5356
C:\Users\SOLDER~1\AppData\Local\Temp\ccYCTqm0.s:30153  .debug_str:000000000001d4f1 .LASF5357
C:\Users\SOLDER~1\AppData\Local\Temp\ccYCTqm0.s:24303  .debug_str:0000000000005b72 .LASF5358
C:\Users\SOLDER~1\AppData\Local\Temp\ccYCTqm0.s:25943  .debug_str:000000000000c5d8 .LASF5359
C:\Users\SOLDER~1\AppData\Local\Temp\ccYCTqm0.s:30065  .debug_str:000000000001cf7c .LASF5360
C:\Users\SOLDER~1\AppData\Local\Temp\ccYCTqm0.s:26793  .debug_str:000000000000fd3c .LASF5361
C:\Users\SOLDER~1\AppData\Local\Temp\ccYCTqm0.s:28611  .debug_str:00000000000171d1 .LASF5362
C:\Users\SOLDER~1\AppData\Local\Temp\ccYCTqm0.s:26127  .debug_str:000000000000d22f .LASF5363
C:\Users\SOLDER~1\AppData\Local\Temp\ccYCTqm0.s:25349  .debug_str:0000000000009fb1 .LASF5364
C:\Users\SOLDER~1\AppData\Local\Temp\ccYCTqm0.s:32207  .debug_str:0000000000025907 .LASF5365
C:\Users\SOLDER~1\AppData\Local\Temp\ccYCTqm0.s:26875  .debug_str:00000000000102e5 .LASF5366
C:\Users\SOLDER~1\AppData\Local\Temp\ccYCTqm0.s:34279  .debug_str:000000000002dfdc .LASF5367
C:\Users\SOLDER~1\AppData\Local\Temp\ccYCTqm0.s:30523  .debug_str:000000000001ec9a .LASF5368
C:\Users\SOLDER~1\AppData\Local\Temp\ccYCTqm0.s:23033  .debug_str:0000000000000a8d .LASF5369
C:\Users\SOLDER~1\AppData\Local\Temp\ccYCTqm0.s:27813  .debug_str:0000000000013ec5 .LASF5370
C:\Users\SOLDER~1\AppData\Local\Temp\ccYCTqm0.s:33069  .debug_str:00000000000291f2 .LASF5371
C:\Users\SOLDER~1\AppData\Local\Temp\ccYCTqm0.s:29565  .debug_str:000000000001af7e .LASF5372
C:\Users\SOLDER~1\AppData\Local\Temp\ccYCTqm0.s:25773  .debug_str:000000000000baec .LASF5373
C:\Users\SOLDER~1\AppData\Local\Temp\ccYCTqm0.s:28643  .debug_str:00000000000173f9 .LASF5374
C:\Users\SOLDER~1\AppData\Local\Temp\ccYCTqm0.s:33395  .debug_str:000000000002a740 .LASF5375
C:\Users\SOLDER~1\AppData\Local\Temp\ccYCTqm0.s:26521  .debug_str:000000000000ebdf .LASF5376
C:\Users\SOLDER~1\AppData\Local\Temp\ccYCTqm0.s:29781  .debug_str:000000000001bcc6 .LASF5377
C:\Users\SOLDER~1\AppData\Local\Temp\ccYCTqm0.s:26263  .debug_str:000000000000db1c .LASF5378
C:\Users\SOLDER~1\AppData\Local\Temp\ccYCTqm0.s:32521  .debug_str:0000000000026e59 .LASF5379
C:\Users\SOLDER~1\AppData\Local\Temp\ccYCTqm0.s:31855  .debug_str:0000000000024252 .LASF5380
C:\Users\SOLDER~1\AppData\Local\Temp\ccYCTqm0.s:33809  .debug_str:000000000002c18b .LASF5381
C:\Users\SOLDER~1\AppData\Local\Temp\ccYCTqm0.s:26151  .debug_str:000000000000d3b0 .LASF5382
C:\Users\SOLDER~1\AppData\Local\Temp\ccYCTqm0.s:31797  .debug_str:0000000000023ea9 .LASF5383
C:\Users\SOLDER~1\AppData\Local\Temp\ccYCTqm0.s:28979  .debug_str:0000000000018a45 .LASF5384
C:\Users\SOLDER~1\AppData\Local\Temp\ccYCTqm0.s:34551  .debug_str:000000000002f161 .LASF5385
C:\Users\SOLDER~1\AppData\Local\Temp\ccYCTqm0.s:29587  .debug_str:000000000001b122 .LASF5386
C:\Users\SOLDER~1\AppData\Local\Temp\ccYCTqm0.s:34433  .debug_str:000000000002e98a .LASF5387
C:\Users\SOLDER~1\AppData\Local\Temp\ccYCTqm0.s:24203  .debug_str:00000000000054fd .LASF5388
C:\Users\SOLDER~1\AppData\Local\Temp\ccYCTqm0.s:25537  .debug_str:000000000000ac3d .LASF5389
C:\Users\SOLDER~1\AppData\Local\Temp\ccYCTqm0.s:27945  .debug_str:000000000001478a .LASF5390
C:\Users\SOLDER~1\AppData\Local\Temp\ccYCTqm0.s:26189  .debug_str:000000000000d633 .LASF5391
GAS LISTING C:\Users\SOLDER~1\AppData\Local\Temp\ccYCTqm0.s 			page 199


C:\Users\SOLDER~1\AppData\Local\Temp\ccYCTqm0.s:31177  .debug_str:00000000000216f4 .LASF5392
C:\Users\SOLDER~1\AppData\Local\Temp\ccYCTqm0.s:30949  .debug_str:0000000000020839 .LASF5393
C:\Users\SOLDER~1\AppData\Local\Temp\ccYCTqm0.s:28029  .debug_str:0000000000014d4d .LASF5394
C:\Users\SOLDER~1\AppData\Local\Temp\ccYCTqm0.s:27263  .debug_str:0000000000011ae7 .LASF5395
C:\Users\SOLDER~1\AppData\Local\Temp\ccYCTqm0.s:31187  .debug_str:0000000000021797 .LASF5396
C:\Users\SOLDER~1\AppData\Local\Temp\ccYCTqm0.s:31107  .debug_str:0000000000021250 .LASF5397
C:\Users\SOLDER~1\AppData\Local\Temp\ccYCTqm0.s:24649  .debug_str:0000000000007294 .LASF5398
C:\Users\SOLDER~1\AppData\Local\Temp\ccYCTqm0.s:26943  .debug_str:00000000000106d3 .LASF5399
C:\Users\SOLDER~1\AppData\Local\Temp\ccYCTqm0.s:32833  .debug_str:00000000000282d4 .LASF5400
C:\Users\SOLDER~1\AppData\Local\Temp\ccYCTqm0.s:33393  .debug_str:000000000002a71e .LASF5401
C:\Users\SOLDER~1\AppData\Local\Temp\ccYCTqm0.s:29859  .debug_str:000000000001c201 .LASF5402
C:\Users\SOLDER~1\AppData\Local\Temp\ccYCTqm0.s:34363  .debug_str:000000000002e52f .LASF5403
C:\Users\SOLDER~1\AppData\Local\Temp\ccYCTqm0.s:33845  .debug_str:000000000002c40f .LASF5404
C:\Users\SOLDER~1\AppData\Local\Temp\ccYCTqm0.s:31665  .debug_str:0000000000023622 .LASF5405
C:\Users\SOLDER~1\AppData\Local\Temp\ccYCTqm0.s:23263  .debug_str:0000000000001911 .LASF5406
C:\Users\SOLDER~1\AppData\Local\Temp\ccYCTqm0.s:27711  .debug_str:000000000001378a .LASF5407
C:\Users\SOLDER~1\AppData\Local\Temp\ccYCTqm0.s:27425  .debug_str:0000000000012527 .LASF5408
C:\Users\SOLDER~1\AppData\Local\Temp\ccYCTqm0.s:26955  .debug_str:00000000000107b1 .LASF5409
C:\Users\SOLDER~1\AppData\Local\Temp\ccYCTqm0.s:32009  .debug_str:0000000000024c86 .LASF5410
C:\Users\SOLDER~1\AppData\Local\Temp\ccYCTqm0.s:23111  .debug_str:0000000000000f9d .LASF5411
C:\Users\SOLDER~1\AppData\Local\Temp\ccYCTqm0.s:30819  .debug_str:0000000000020023 .LASF5412
C:\Users\SOLDER~1\AppData\Local\Temp\ccYCTqm0.s:34111  .debug_str:000000000002d550 .LASF5413
C:\Users\SOLDER~1\AppData\Local\Temp\ccYCTqm0.s:30581  .debug_str:000000000001f032 .LASF5414
C:\Users\SOLDER~1\AppData\Local\Temp\ccYCTqm0.s:28561  .debug_str:0000000000016ed5 .LASF5415
C:\Users\SOLDER~1\AppData\Local\Temp\ccYCTqm0.s:24665  .debug_str:00000000000073ad .LASF5416
C:\Users\SOLDER~1\AppData\Local\Temp\ccYCTqm0.s:29911  .debug_str:000000000001c571 .LASF5417
C:\Users\SOLDER~1\AppData\Local\Temp\ccYCTqm0.s:27575  .debug_str:0000000000012e86 .LASF5418
C:\Users\SOLDER~1\AppData\Local\Temp\ccYCTqm0.s:34523  .debug_str:000000000002efb0 .LASF5419
C:\Users\SOLDER~1\AppData\Local\Temp\ccYCTqm0.s:26267  .debug_str:000000000000db71 .LASF5420
C:\Users\SOLDER~1\AppData\Local\Temp\ccYCTqm0.s:31465  .debug_str:00000000000228f0 .LASF5421
C:\Users\SOLDER~1\AppData\Local\Temp\ccYCTqm0.s:33171  .debug_str:0000000000029871 .LASF5422
C:\Users\SOLDER~1\AppData\Local\Temp\ccYCTqm0.s:32475  .debug_str:0000000000026b29 .LASF5423
C:\Users\SOLDER~1\AppData\Local\Temp\ccYCTqm0.s:26207  .debug_str:000000000000d75a .LASF5424
C:\Users\SOLDER~1\AppData\Local\Temp\ccYCTqm0.s:33313  .debug_str:000000000002a197 .LASF5425
C:\Users\SOLDER~1\AppData\Local\Temp\ccYCTqm0.s:33689  .debug_str:000000000002b9eb .LASF5426
C:\Users\SOLDER~1\AppData\Local\Temp\ccYCTqm0.s:31491  .debug_str:0000000000022a9e .LASF5427
C:\Users\SOLDER~1\AppData\Local\Temp\ccYCTqm0.s:32733  .debug_str:0000000000027c2f .LASF5428
C:\Users\SOLDER~1\AppData\Local\Temp\ccYCTqm0.s:28131  .debug_str:00000000000153d7 .LASF5429
C:\Users\SOLDER~1\AppData\Local\Temp\ccYCTqm0.s:26829  .debug_str:000000000000ff9d .LASF5430
C:\Users\SOLDER~1\AppData\Local\Temp\ccYCTqm0.s:28963  .debug_str:000000000001892e .LASF5431
C:\Users\SOLDER~1\AppData\Local\Temp\ccYCTqm0.s:28011  .debug_str:0000000000014bee .LASF5432
C:\Users\SOLDER~1\AppData\Local\Temp\ccYCTqm0.s:27807  .debug_str:0000000000013e45 .LASF5433
C:\Users\SOLDER~1\AppData\Local\Temp\ccYCTqm0.s:25405  .debug_str:000000000000a37b .LASF5434
C:\Users\SOLDER~1\AppData\Local\Temp\ccYCTqm0.s:30187  .debug_str:000000000001d739 .LASF5435
C:\Users\SOLDER~1\AppData\Local\Temp\ccYCTqm0.s:29201  .debug_str:0000000000019869 .LASF5436
C:\Users\SOLDER~1\AppData\Local\Temp\ccYCTqm0.s:32343  .debug_str:0000000000026242 .LASF5437
C:\Users\SOLDER~1\AppData\Local\Temp\ccYCTqm0.s:23619  .debug_str:0000000000003011 .LASF5438
C:\Users\SOLDER~1\AppData\Local\Temp\ccYCTqm0.s:24065  .debug_str:0000000000004c5e .LASF5439
C:\Users\SOLDER~1\AppData\Local\Temp\ccYCTqm0.s:25643  .debug_str:000000000000b2df .LASF5440
C:\Users\SOLDER~1\AppData\Local\Temp\ccYCTqm0.s:29177  .debug_str:00000000000196be .LASF5441
C:\Users\SOLDER~1\AppData\Local\Temp\ccYCTqm0.s:26219  .debug_str:000000000000d833 .LASF5442
C:\Users\SOLDER~1\AppData\Local\Temp\ccYCTqm0.s:31747  .debug_str:0000000000023ba3 .LASF5443
C:\Users\SOLDER~1\AppData\Local\Temp\ccYCTqm0.s:32903  .debug_str:000000000002874f .LASF5444
C:\Users\SOLDER~1\AppData\Local\Temp\ccYCTqm0.s:25675  .debug_str:000000000000b4d6 .LASF5445
C:\Users\SOLDER~1\AppData\Local\Temp\ccYCTqm0.s:30301  .debug_str:000000000001de16 .LASF5446
C:\Users\SOLDER~1\AppData\Local\Temp\ccYCTqm0.s:32839  .debug_str:000000000002832a .LASF5447
C:\Users\SOLDER~1\AppData\Local\Temp\ccYCTqm0.s:30687  .debug_str:000000000001f75f .LASF5448
GAS LISTING C:\Users\SOLDER~1\AppData\Local\Temp\ccYCTqm0.s 			page 200


C:\Users\SOLDER~1\AppData\Local\Temp\ccYCTqm0.s:34485  .debug_str:000000000002ed11 .LASF5449
C:\Users\SOLDER~1\AppData\Local\Temp\ccYCTqm0.s:33541  .debug_str:000000000002b05c .LASF5450
C:\Users\SOLDER~1\AppData\Local\Temp\ccYCTqm0.s:33821  .debug_str:000000000002c25e .LASF5451
C:\Users\SOLDER~1\AppData\Local\Temp\ccYCTqm0.s:29235  .debug_str:0000000000019adb .LASF5452
C:\Users\SOLDER~1\AppData\Local\Temp\ccYCTqm0.s:24597  .debug_str:0000000000006eef .LASF5453
C:\Users\SOLDER~1\AppData\Local\Temp\ccYCTqm0.s:29559  .debug_str:000000000001af34 .LASF5454
C:\Users\SOLDER~1\AppData\Local\Temp\ccYCTqm0.s:31545  .debug_str:0000000000022e68 .LASF5455
C:\Users\SOLDER~1\AppData\Local\Temp\ccYCTqm0.s:23029  .debug_str:0000000000000a47 .LASF5456
C:\Users\SOLDER~1\AppData\Local\Temp\ccYCTqm0.s:27835  .debug_str:0000000000014039 .LASF5457
C:\Users\SOLDER~1\AppData\Local\Temp\ccYCTqm0.s:27203  .debug_str:00000000000116ef .LASF5458
C:\Users\SOLDER~1\AppData\Local\Temp\ccYCTqm0.s:30787  .debug_str:000000000001fe12 .LASF5459
C:\Users\SOLDER~1\AppData\Local\Temp\ccYCTqm0.s:23151  .debug_str:000000000000120a .LASF5460
C:\Users\SOLDER~1\AppData\Local\Temp\ccYCTqm0.s:28671  .debug_str:000000000001760d .LASF5461
C:\Users\SOLDER~1\AppData\Local\Temp\ccYCTqm0.s:29871  .debug_str:000000000001c2bf .LASF5462
C:\Users\SOLDER~1\AppData\Local\Temp\ccYCTqm0.s:33565  .debug_str:000000000002b1dc .LASF5463
C:\Users\SOLDER~1\AppData\Local\Temp\ccYCTqm0.s:25299  .debug_str:0000000000009cb6 .LASF5464
C:\Users\SOLDER~1\AppData\Local\Temp\ccYCTqm0.s:27551  .debug_str:0000000000012ce4 .LASF5465
C:\Users\SOLDER~1\AppData\Local\Temp\ccYCTqm0.s:29377  .debug_str:000000000001a377 .LASF5466
C:\Users\SOLDER~1\AppData\Local\Temp\ccYCTqm0.s:29231  .debug_str:0000000000019a89 .LASF5467
C:\Users\SOLDER~1\AppData\Local\Temp\ccYCTqm0.s:31029  .debug_str:0000000000020d57 .LASF5468
C:\Users\SOLDER~1\AppData\Local\Temp\ccYCTqm0.s:30703  .debug_str:000000000001f87e .LASF5469
C:\Users\SOLDER~1\AppData\Local\Temp\ccYCTqm0.s:27445  .debug_str:0000000000012658 .LASF5470
C:\Users\SOLDER~1\AppData\Local\Temp\ccYCTqm0.s:33591  .debug_str:000000000002b374 .LASF5471
C:\Users\SOLDER~1\AppData\Local\Temp\ccYCTqm0.s:22891  .debug_str:00000000000000a4 .LASF5472
C:\Users\SOLDER~1\AppData\Local\Temp\ccYCTqm0.s:31165  .debug_str:000000000002164c .LASF5473
C:\Users\SOLDER~1\AppData\Local\Temp\ccYCTqm0.s:26855  .debug_str:0000000000010199 .LASF5474
C:\Users\SOLDER~1\AppData\Local\Temp\ccYCTqm0.s:25533  .debug_str:000000000000abfa .LASF5475
C:\Users\SOLDER~1\AppData\Local\Temp\ccYCTqm0.s:29073  .debug_str:0000000000019058 .LASF5476
C:\Users\SOLDER~1\AppData\Local\Temp\ccYCTqm0.s:24369  .debug_str:0000000000005fde .LASF5477
C:\Users\SOLDER~1\AppData\Local\Temp\ccYCTqm0.s:33705  .debug_str:000000000002bb1a .LASF5478
C:\Users\SOLDER~1\AppData\Local\Temp\ccYCTqm0.s:25451  .debug_str:000000000000a661 .LASF5479
C:\Users\SOLDER~1\AppData\Local\Temp\ccYCTqm0.s:31617  .debug_str:00000000000232f2 .LASF5480
C:\Users\SOLDER~1\AppData\Local\Temp\ccYCTqm0.s:24277  .debug_str:0000000000005991 .LASF5481
C:\Users\SOLDER~1\AppData\Local\Temp\ccYCTqm0.s:22997  .debug_str:00000000000007e0 .LASF5482
C:\Users\SOLDER~1\AppData\Local\Temp\ccYCTqm0.s:27073  .debug_str:0000000000010ee7 .LASF5483
C:\Users\SOLDER~1\AppData\Local\Temp\ccYCTqm0.s:34137  .debug_str:000000000002d700 .LASF5484
C:\Users\SOLDER~1\AppData\Local\Temp\ccYCTqm0.s:24119  .debug_str:0000000000004fd0 .LASF5485
C:\Users\SOLDER~1\AppData\Local\Temp\ccYCTqm0.s:31831  .debug_str:00000000000240e9 .LASF5486
C:\Users\SOLDER~1\AppData\Local\Temp\ccYCTqm0.s:32791  .debug_str:0000000000027fcf .LASF5487
C:\Users\SOLDER~1\AppData\Local\Temp\ccYCTqm0.s:31345  .debug_str:000000000002218c .LASF5488
C:\Users\SOLDER~1\AppData\Local\Temp\ccYCTqm0.s:31297  .debug_str:0000000000021e7c .LASF5489
C:\Users\SOLDER~1\AppData\Local\Temp\ccYCTqm0.s:30903  .debug_str:0000000000020547 .LASF5490
C:\Users\SOLDER~1\AppData\Local\Temp\ccYCTqm0.s:23339  .debug_str:0000000000001e2e .LASF5491
C:\Users\SOLDER~1\AppData\Local\Temp\ccYCTqm0.s:33067  .debug_str:00000000000291c9 .LASF5492
C:\Users\SOLDER~1\AppData\Local\Temp\ccYCTqm0.s:30161  .debug_str:000000000001d59e .LASF5493
C:\Users\SOLDER~1\AppData\Local\Temp\ccYCTqm0.s:34081  .debug_str:000000000002d30c .LASF5494
C:\Users\SOLDER~1\AppData\Local\Temp\ccYCTqm0.s:24603  .debug_str:0000000000006f3c .LASF5495
C:\Users\SOLDER~1\AppData\Local\Temp\ccYCTqm0.s:25927  .debug_str:000000000000c4c6 .LASF5496
C:\Users\SOLDER~1\AppData\Local\Temp\ccYCTqm0.s:33309  .debug_str:000000000002a14a .LASF5497
C:\Users\SOLDER~1\AppData\Local\Temp\ccYCTqm0.s:29077  .debug_str:0000000000019093 .LASF5498
C:\Users\SOLDER~1\AppData\Local\Temp\ccYCTqm0.s:31943  .debug_str:00000000000247fd .LASF5499
C:\Users\SOLDER~1\AppData\Local\Temp\ccYCTqm0.s:30343  .debug_str:000000000001e0bb .LASF5500
C:\Users\SOLDER~1\AppData\Local\Temp\ccYCTqm0.s:28617  .debug_str:000000000001723b .LASF5501
C:\Users\SOLDER~1\AppData\Local\Temp\ccYCTqm0.s:24249  .debug_str:00000000000057b1 .LASF5502
C:\Users\SOLDER~1\AppData\Local\Temp\ccYCTqm0.s:31073  .debug_str:000000000002102a .LASF5503
C:\Users\SOLDER~1\AppData\Local\Temp\ccYCTqm0.s:32469  .debug_str:0000000000026ac0 .LASF5504
C:\Users\SOLDER~1\AppData\Local\Temp\ccYCTqm0.s:27231  .debug_str:0000000000011913 .LASF5505
GAS LISTING C:\Users\SOLDER~1\AppData\Local\Temp\ccYCTqm0.s 			page 201


C:\Users\SOLDER~1\AppData\Local\Temp\ccYCTqm0.s:29637  .debug_str:000000000001b456 .LASF5506
C:\Users\SOLDER~1\AppData\Local\Temp\ccYCTqm0.s:22989  .debug_str:0000000000000765 .LASF5507
C:\Users\SOLDER~1\AppData\Local\Temp\ccYCTqm0.s:25565  .debug_str:000000000000ae25 .LASF5508
C:\Users\SOLDER~1\AppData\Local\Temp\ccYCTqm0.s:30405  .debug_str:000000000001e4da .LASF5509
C:\Users\SOLDER~1\AppData\Local\Temp\ccYCTqm0.s:27527  .debug_str:0000000000012b67 .LASF5510
C:\Users\SOLDER~1\AppData\Local\Temp\ccYCTqm0.s:27787  .debug_str:0000000000013cc8 .LASF5511
C:\Users\SOLDER~1\AppData\Local\Temp\ccYCTqm0.s:25963  .debug_str:000000000000c75f .LASF5512
C:\Users\SOLDER~1\AppData\Local\Temp\ccYCTqm0.s:31109  .debug_str:000000000002126e .LASF5513
C:\Users\SOLDER~1\AppData\Local\Temp\ccYCTqm0.s:28705  .debug_str:0000000000017851 .LASF5514
C:\Users\SOLDER~1\AppData\Local\Temp\ccYCTqm0.s:32981  .debug_str:0000000000028c81 .LASF5515
C:\Users\SOLDER~1\AppData\Local\Temp\ccYCTqm0.s:28711  .debug_str:00000000000178cf .LASF5516
C:\Users\SOLDER~1\AppData\Local\Temp\ccYCTqm0.s:34309  .debug_str:000000000002e1d8 .LASF5517
C:\Users\SOLDER~1\AppData\Local\Temp\ccYCTqm0.s:28479  .debug_str:00000000000169d7 .LASF5518
C:\Users\SOLDER~1\AppData\Local\Temp\ccYCTqm0.s:30095  .debug_str:000000000001d174 .LASF5519
C:\Users\SOLDER~1\AppData\Local\Temp\ccYCTqm0.s:31693  .debug_str:000000000002381a .LASF5520
C:\Users\SOLDER~1\AppData\Local\Temp\ccYCTqm0.s:27107  .debug_str:00000000000110db .LASF5521
C:\Users\SOLDER~1\AppData\Local\Temp\ccYCTqm0.s:28975  .debug_str:00000000000189f3 .LASF5522
C:\Users\SOLDER~1\AppData\Local\Temp\ccYCTqm0.s:25013  .debug_str:00000000000089c1 .LASF5523
C:\Users\SOLDER~1\AppData\Local\Temp\ccYCTqm0.s:27769  .debug_str:0000000000013b52 .LASF5524
C:\Users\SOLDER~1\AppData\Local\Temp\ccYCTqm0.s:31265  .debug_str:0000000000021c89 .LASF5525
C:\Users\SOLDER~1\AppData\Local\Temp\ccYCTqm0.s:33609  .debug_str:000000000002b4cd .LASF5526
C:\Users\SOLDER~1\AppData\Local\Temp\ccYCTqm0.s:25489  .debug_str:000000000000a8fa .LASF5527
C:\Users\SOLDER~1\AppData\Local\Temp\ccYCTqm0.s:31133  .debug_str:0000000000021405 .LASF5528
C:\Users\SOLDER~1\AppData\Local\Temp\ccYCTqm0.s:27595  .debug_str:000000000001300a .LASF5529
C:\Users\SOLDER~1\AppData\Local\Temp\ccYCTqm0.s:31957  .debug_str:00000000000248f6 .LASF5530
C:\Users\SOLDER~1\AppData\Local\Temp\ccYCTqm0.s:28085  .debug_str:000000000001511d .LASF5531
C:\Users\SOLDER~1\AppData\Local\Temp\ccYCTqm0.s:31507  .debug_str:0000000000022bb8 .LASF5532
C:\Users\SOLDER~1\AppData\Local\Temp\ccYCTqm0.s:34525  .debug_str:000000000002efd4 .LASF5533
C:\Users\SOLDER~1\AppData\Local\Temp\ccYCTqm0.s:29479  .debug_str:000000000001aa05 .LASF5534
C:\Users\SOLDER~1\AppData\Local\Temp\ccYCTqm0.s:33165  .debug_str:00000000000297f9 .LASF5535
C:\Users\SOLDER~1\AppData\Local\Temp\ccYCTqm0.s:24615  .debug_str:000000000000700f .LASF5536
C:\Users\SOLDER~1\AppData\Local\Temp\ccYCTqm0.s:28083  .debug_str:00000000000150f7 .LASF5537
C:\Users\SOLDER~1\AppData\Local\Temp\ccYCTqm0.s:24611  .debug_str:0000000000006fd2 .LASF5538
C:\Users\SOLDER~1\AppData\Local\Temp\ccYCTqm0.s:31639  .debug_str:000000000002347c .LASF5539
C:\Users\SOLDER~1\AppData\Local\Temp\ccYCTqm0.s:33683  .debug_str:000000000002b98c .LASF5540
C:\Users\SOLDER~1\AppData\Local\Temp\ccYCTqm0.s:23707  .debug_str:00000000000035f6 .LASF5541
C:\Users\SOLDER~1\AppData\Local\Temp\ccYCTqm0.s:23705  .debug_str:00000000000035d5 .LASF5542
C:\Users\SOLDER~1\AppData\Local\Temp\ccYCTqm0.s:30469  .debug_str:000000000001e8c1 .LASF5543
C:\Users\SOLDER~1\AppData\Local\Temp\ccYCTqm0.s:24441  .debug_str:00000000000064ac .LASF5544
C:\Users\SOLDER~1\AppData\Local\Temp\ccYCTqm0.s:24571  .debug_str:0000000000006d69 .LASF5545
C:\Users\SOLDER~1\AppData\Local\Temp\ccYCTqm0.s:24271  .debug_str:000000000000590c .LASF5546
C:\Users\SOLDER~1\AppData\Local\Temp\ccYCTqm0.s:23483  .debug_str:0000000000002769 .LASF5547
C:\Users\SOLDER~1\AppData\Local\Temp\ccYCTqm0.s:28359  .debug_str:0000000000016267 .LASF5548
C:\Users\SOLDER~1\AppData\Local\Temp\ccYCTqm0.s:27099  .debug_str:000000000001105a .LASF5549
C:\Users\SOLDER~1\AppData\Local\Temp\ccYCTqm0.s:25197  .debug_str:00000000000095e1 .LASF5550
C:\Users\SOLDER~1\AppData\Local\Temp\ccYCTqm0.s:24275  .debug_str:000000000000596d .LASF5551
C:\Users\SOLDER~1\AppData\Local\Temp\ccYCTqm0.s:32319  .debug_str:00000000000260b1 .LASF5552
C:\Users\SOLDER~1\AppData\Local\Temp\ccYCTqm0.s:26111  .debug_str:000000000000d115 .LASF5553
C:\Users\SOLDER~1\AppData\Local\Temp\ccYCTqm0.s:24659  .debug_str:000000000000733f .LASF5554
C:\Users\SOLDER~1\AppData\Local\Temp\ccYCTqm0.s:34607  .debug_str:000000000002f4c7 .LASF5555
C:\Users\SOLDER~1\AppData\Local\Temp\ccYCTqm0.s:25001  .debug_str:0000000000008902 .LASF5556
C:\Users\SOLDER~1\AppData\Local\Temp\ccYCTqm0.s:24673  .debug_str:000000000000742d .LASF5557
C:\Users\SOLDER~1\AppData\Local\Temp\ccYCTqm0.s:28389  .debug_str:0000000000016467 .LASF5558
C:\Users\SOLDER~1\AppData\Local\Temp\ccYCTqm0.s:34423  .debug_str:000000000002e8d9 .LASF5559
C:\Users\SOLDER~1\AppData\Local\Temp\ccYCTqm0.s:34031  .debug_str:000000000002cfbd .LASF5560
C:\Users\SOLDER~1\AppData\Local\Temp\ccYCTqm0.s:28209  .debug_str:0000000000015912 .LASF5561
C:\Users\SOLDER~1\AppData\Local\Temp\ccYCTqm0.s:34209  .debug_str:000000000002db73 .LASF5562
GAS LISTING C:\Users\SOLDER~1\AppData\Local\Temp\ccYCTqm0.s 			page 202


C:\Users\SOLDER~1\AppData\Local\Temp\ccYCTqm0.s:30647  .debug_str:000000000001f49f .LASF5563
C:\Users\SOLDER~1\AppData\Local\Temp\ccYCTqm0.s:31741  .debug_str:0000000000023b52 .LASF5564
C:\Users\SOLDER~1\AppData\Local\Temp\ccYCTqm0.s:31815  .debug_str:0000000000023fdb .LASF5565
C:\Users\SOLDER~1\AppData\Local\Temp\ccYCTqm0.s:31329  .debug_str:000000000002208f .LASF5566
C:\Users\SOLDER~1\AppData\Local\Temp\ccYCTqm0.s:23723  .debug_str:00000000000036e9 .LASF5567
C:\Users\SOLDER~1\AppData\Local\Temp\ccYCTqm0.s:29675  .debug_str:000000000001b686 .LASF5568
C:\Users\SOLDER~1\AppData\Local\Temp\ccYCTqm0.s:28135  .debug_str:000000000001542d .LASF5569
C:\Users\SOLDER~1\AppData\Local\Temp\ccYCTqm0.s:30141  .debug_str:000000000001d41e .LASF5570
C:\Users\SOLDER~1\AppData\Local\Temp\ccYCTqm0.s:33833  .debug_str:000000000002c330 .LASF5571
C:\Users\SOLDER~1\AppData\Local\Temp\ccYCTqm0.s:32167  .debug_str:0000000000025698 .LASF5572
C:\Users\SOLDER~1\AppData\Local\Temp\ccYCTqm0.s:27585  .debug_str:0000000000012f5e .LASF5573
C:\Users\SOLDER~1\AppData\Local\Temp\ccYCTqm0.s:29573  .debug_str:000000000001b022 .LASF5574
C:\Users\SOLDER~1\AppData\Local\Temp\ccYCTqm0.s:29917  .debug_str:000000000001c5d7 .LASF5575
C:\Users\SOLDER~1\AppData\Local\Temp\ccYCTqm0.s:28071  .debug_str:0000000000015030 .LASF5576
C:\Users\SOLDER~1\AppData\Local\Temp\ccYCTqm0.s:27499  .debug_str:00000000000129d1 .LASF5577
C:\Users\SOLDER~1\AppData\Local\Temp\ccYCTqm0.s:29577  .debug_str:000000000001b057 .LASF5578
C:\Users\SOLDER~1\AppData\Local\Temp\ccYCTqm0.s:34425  .debug_str:000000000002e8fc .LASF5579
C:\Users\SOLDER~1\AppData\Local\Temp\ccYCTqm0.s:34331  .debug_str:000000000002e34e .LASF5580
C:\Users\SOLDER~1\AppData\Local\Temp\ccYCTqm0.s:25709  .debug_str:000000000000b70d .LASF5581
C:\Users\SOLDER~1\AppData\Local\Temp\ccYCTqm0.s:33671  .debug_str:000000000002b8c1 .LASF5582
C:\Users\SOLDER~1\AppData\Local\Temp\ccYCTqm0.s:30347  .debug_str:000000000001e10c .LASF5583
C:\Users\SOLDER~1\AppData\Local\Temp\ccYCTqm0.s:27323  .debug_str:0000000000011ec8 .LASF5584
C:\Users\SOLDER~1\AppData\Local\Temp\ccYCTqm0.s:24837  .debug_str:0000000000007e38 .LASF5585
C:\Users\SOLDER~1\AppData\Local\Temp\ccYCTqm0.s:23155  .debug_str:000000000000125c .LASF5586
C:\Users\SOLDER~1\AppData\Local\Temp\ccYCTqm0.s:31859  .debug_str:000000000002429f .LASF5587
C:\Users\SOLDER~1\AppData\Local\Temp\ccYCTqm0.s:27473  .debug_str:00000000000127f3 .LASF5588
C:\Users\SOLDER~1\AppData\Local\Temp\ccYCTqm0.s:25107  .debug_str:0000000000008fcb .LASF5589
C:\Users\SOLDER~1\AppData\Local\Temp\ccYCTqm0.s:24313  .debug_str:0000000000005c29 .LASF5590
C:\Users\SOLDER~1\AppData\Local\Temp\ccYCTqm0.s:33905  .debug_str:000000000002c804 .LASF5591
C:\Users\SOLDER~1\AppData\Local\Temp\ccYCTqm0.s:25891  .debug_str:000000000000c254 .LASF5592
C:\Users\SOLDER~1\AppData\Local\Temp\ccYCTqm0.s:26095  .debug_str:000000000000d002 .LASF5593
C:\Users\SOLDER~1\AppData\Local\Temp\ccYCTqm0.s:30261  .debug_str:000000000001dbbd .LASF5594
C:\Users\SOLDER~1\AppData\Local\Temp\ccYCTqm0.s:29651  .debug_str:000000000001b4f8 .LASF5595
C:\Users\SOLDER~1\AppData\Local\Temp\ccYCTqm0.s:34567  .debug_str:000000000002f254 .LASF5596
C:\Users\SOLDER~1\AppData\Local\Temp\ccYCTqm0.s:24401  .debug_str:00000000000061d9 .LASF5597
C:\Users\SOLDER~1\AppData\Local\Temp\ccYCTqm0.s:23751  .debug_str:0000000000003886 .LASF5598
C:\Users\SOLDER~1\AppData\Local\Temp\ccYCTqm0.s:32683  .debug_str:00000000000278f0 .LASF5599
C:\Users\SOLDER~1\AppData\Local\Temp\ccYCTqm0.s:31019  .debug_str:0000000000020cb6 .LASF5600
C:\Users\SOLDER~1\AppData\Local\Temp\ccYCTqm0.s:23813  .debug_str:0000000000003c99 .LASF5601
C:\Users\SOLDER~1\AppData\Local\Temp\ccYCTqm0.s:23915  .debug_str:0000000000004317 .LASF5602
C:\Users\SOLDER~1\AppData\Local\Temp\ccYCTqm0.s:31731  .debug_str:0000000000023a9a .LASF5603
C:\Users\SOLDER~1\AppData\Local\Temp\ccYCTqm0.s:32073  .debug_str:00000000000250a2 .LASF5604
C:\Users\SOLDER~1\AppData\Local\Temp\ccYCTqm0.s:31709  .debug_str:000000000002391b .LASF5605
C:\Users\SOLDER~1\AppData\Local\Temp\ccYCTqm0.s:23325  .debug_str:0000000000001d1a .LASF5606
C:\Users\SOLDER~1\AppData\Local\Temp\ccYCTqm0.s:32257  .debug_str:0000000000025c86 .LASF5607
C:\Users\SOLDER~1\AppData\Local\Temp\ccYCTqm0.s:24155  .debug_str:00000000000051f5 .LASF5608
C:\Users\SOLDER~1\AppData\Local\Temp\ccYCTqm0.s:23161  .debug_str:00000000000012ba .LASF5609
C:\Users\SOLDER~1\AppData\Local\Temp\ccYCTqm0.s:25421  .debug_str:000000000000a4a1 .LASF5610
C:\Users\SOLDER~1\AppData\Local\Temp\ccYCTqm0.s:33479  .debug_str:000000000002ac50 .LASF5611
C:\Users\SOLDER~1\AppData\Local\Temp\ccYCTqm0.s:26709  .debug_str:000000000000f7b1 .LASF5612
C:\Users\SOLDER~1\AppData\Local\Temp\ccYCTqm0.s:25877  .debug_str:000000000000c156 .LASF5613
C:\Users\SOLDER~1\AppData\Local\Temp\ccYCTqm0.s:32145  .debug_str:0000000000025528 .LASF5614
C:\Users\SOLDER~1\AppData\Local\Temp\ccYCTqm0.s:29105  .debug_str:000000000001925d .LASF5615
C:\Users\SOLDER~1\AppData\Local\Temp\ccYCTqm0.s:23039  .debug_str:0000000000000af3 .LASF5616
C:\Users\SOLDER~1\AppData\Local\Temp\ccYCTqm0.s:29191  .debug_str:00000000000197bb .LASF5617
C:\Users\SOLDER~1\AppData\Local\Temp\ccYCTqm0.s:31405  .debug_str:000000000002253e .LASF5618
C:\Users\SOLDER~1\AppData\Local\Temp\ccYCTqm0.s:31879  .debug_str:00000000000243d2 .LASF5619
GAS LISTING C:\Users\SOLDER~1\AppData\Local\Temp\ccYCTqm0.s 			page 203


C:\Users\SOLDER~1\AppData\Local\Temp\ccYCTqm0.s:24179  .debug_str:0000000000005378 .LASF5620
C:\Users\SOLDER~1\AppData\Local\Temp\ccYCTqm0.s:33037  .debug_str:0000000000029001 .LASF5621
C:\Users\SOLDER~1\AppData\Local\Temp\ccYCTqm0.s:32141  .debug_str:00000000000254f2 .LASF5622
C:\Users\SOLDER~1\AppData\Local\Temp\ccYCTqm0.s:29101  .debug_str:0000000000019236 .LASF5623
C:\Users\SOLDER~1\AppData\Local\Temp\ccYCTqm0.s:25955  .debug_str:000000000000c6cc .LASF5624
C:\Users\SOLDER~1\AppData\Local\Temp\ccYCTqm0.s:29945  .debug_str:000000000001c7a4 .LASF5625
C:\Users\SOLDER~1\AppData\Local\Temp\ccYCTqm0.s:34117  .debug_str:000000000002d5bd .LASF5626
C:\Users\SOLDER~1\AppData\Local\Temp\ccYCTqm0.s:25069  .debug_str:0000000000008d63 .LASF5627
C:\Users\SOLDER~1\AppData\Local\Temp\ccYCTqm0.s:30675  .debug_str:000000000001f693 .LASF5628
C:\Users\SOLDER~1\AppData\Local\Temp\ccYCTqm0.s:27557  .debug_str:0000000000012d62 .LASF5629
C:\Users\SOLDER~1\AppData\Local\Temp\ccYCTqm0.s:34185  .debug_str:000000000002d9ef .LASF5630
C:\Users\SOLDER~1\AppData\Local\Temp\ccYCTqm0.s:29219  .debug_str:00000000000199a7 .LASF5631
C:\Users\SOLDER~1\AppData\Local\Temp\ccYCTqm0.s:31973  .debug_str:0000000000024a19 .LASF5632
C:\Users\SOLDER~1\AppData\Local\Temp\ccYCTqm0.s:26665  .debug_str:000000000000f4dd .LASF5633
C:\Users\SOLDER~1\AppData\Local\Temp\ccYCTqm0.s:26323  .debug_str:000000000000debc .LASF5634
C:\Users\SOLDER~1\AppData\Local\Temp\ccYCTqm0.s:32271  .debug_str:0000000000025d6d .LASF5635
C:\Users\SOLDER~1\AppData\Local\Temp\ccYCTqm0.s:23211  .debug_str:00000000000015db .LASF5636
C:\Users\SOLDER~1\AppData\Local\Temp\ccYCTqm0.s:32089  .debug_str:00000000000251ba .LASF5637
C:\Users\SOLDER~1\AppData\Local\Temp\ccYCTqm0.s:27227  .debug_str:00000000000118be .LASF5638
C:\Users\SOLDER~1\AppData\Local\Temp\ccYCTqm0.s:24247  .debug_str:000000000000578b .LASF5639
C:\Users\SOLDER~1\AppData\Local\Temp\ccYCTqm0.s:33571  .debug_str:000000000002b24c .LASF5640
C:\Users\SOLDER~1\AppData\Local\Temp\ccYCTqm0.s:33841  .debug_str:000000000002c3c9 .LASF5641
C:\Users\SOLDER~1\AppData\Local\Temp\ccYCTqm0.s:26497  .debug_str:000000000000ea54 .LASF5642
C:\Users\SOLDER~1\AppData\Local\Temp\ccYCTqm0.s:30677  .debug_str:000000000001f6af .LASF5643
C:\Users\SOLDER~1\AppData\Local\Temp\ccYCTqm0.s:29771  .debug_str:000000000001bc32 .LASF5644
C:\Users\SOLDER~1\AppData\Local\Temp\ccYCTqm0.s:33739  .debug_str:000000000002bd21 .LASF5645
C:\Users\SOLDER~1\AppData\Local\Temp\ccYCTqm0.s:24819  .debug_str:0000000000007d04 .LASF5646
C:\Users\SOLDER~1\AppData\Local\Temp\ccYCTqm0.s:23343  .debug_str:0000000000001e71 .LASF5647
C:\Users\SOLDER~1\AppData\Local\Temp\ccYCTqm0.s:29569  .debug_str:000000000001afd1 .LASF5648
C:\Users\SOLDER~1\AppData\Local\Temp\ccYCTqm0.s:34483  .debug_str:000000000002ecea .LASF5649
C:\Users\SOLDER~1\AppData\Local\Temp\ccYCTqm0.s:23149  .debug_str:00000000000011f0 .LASF5650
C:\Users\SOLDER~1\AppData\Local\Temp\ccYCTqm0.s:34509  .debug_str:000000000002eecc .LASF5651
C:\Users\SOLDER~1\AppData\Local\Temp\ccYCTqm0.s:30089  .debug_str:000000000001d106 .LASF5652
C:\Users\SOLDER~1\AppData\Local\Temp\ccYCTqm0.s:32267  .debug_str:0000000000025d2b .LASF5653
C:\Users\SOLDER~1\AppData\Local\Temp\ccYCTqm0.s:32819  .debug_str:00000000000281f0 .LASF5654
C:\Users\SOLDER~1\AppData\Local\Temp\ccYCTqm0.s:25041  .debug_str:0000000000008b7b .LASF5655
C:\Users\SOLDER~1\AppData\Local\Temp\ccYCTqm0.s:25491  .debug_str:000000000000a934 .LASF5656
C:\Users\SOLDER~1\AppData\Local\Temp\ccYCTqm0.s:33499  .debug_str:000000000002ad70 .LASF5657
C:\Users\SOLDER~1\AppData\Local\Temp\ccYCTqm0.s:28601  .debug_str:0000000000017134 .LASF5658
C:\Users\SOLDER~1\AppData\Local\Temp\ccYCTqm0.s:29603  .debug_str:000000000001b231 .LASF5659
C:\Users\SOLDER~1\AppData\Local\Temp\ccYCTqm0.s:25881  .debug_str:000000000000c197 .LASF5660
C:\Users\SOLDER~1\AppData\Local\Temp\ccYCTqm0.s:32761  .debug_str:0000000000027dd8 .LASF5661
C:\Users\SOLDER~1\AppData\Local\Temp\ccYCTqm0.s:28009  .debug_str:0000000000014bc9 .LASF5662
C:\Users\SOLDER~1\AppData\Local\Temp\ccYCTqm0.s:26459  .debug_str:000000000000e824 .LASF5663
C:\Users\SOLDER~1\AppData\Local\Temp\ccYCTqm0.s:31447  .debug_str:00000000000227b1 .LASF5664
C:\Users\SOLDER~1\AppData\Local\Temp\ccYCTqm0.s:31341  .debug_str:0000000000022142 .LASF5665
C:\Users\SOLDER~1\AppData\Local\Temp\ccYCTqm0.s:33523  .debug_str:000000000002af1c .LASF5666
C:\Users\SOLDER~1\AppData\Local\Temp\ccYCTqm0.s:34059  .debug_str:000000000002d19a .LASF5667
C:\Users\SOLDER~1\AppData\Local\Temp\ccYCTqm0.s:24449  .debug_str:000000000000652d .LASF5668
C:\Users\SOLDER~1\AppData\Local\Temp\ccYCTqm0.s:32047  .debug_str:0000000000024f19 .LASF5669
C:\Users\SOLDER~1\AppData\Local\Temp\ccYCTqm0.s:25169  .debug_str:0000000000009416 .LASF5670
C:\Users\SOLDER~1\AppData\Local\Temp\ccYCTqm0.s:27621  .debug_str:00000000000131ad .LASF5671
C:\Users\SOLDER~1\AppData\Local\Temp\ccYCTqm0.s:29715  .debug_str:000000000001b8c9 .LASF5672
C:\Users\SOLDER~1\AppData\Local\Temp\ccYCTqm0.s:34319  .debug_str:000000000002e26a .LASF5673
C:\Users\SOLDER~1\AppData\Local\Temp\ccYCTqm0.s:23745  .debug_str:0000000000003823 .LASF5674
C:\Users\SOLDER~1\AppData\Local\Temp\ccYCTqm0.s:23721  .debug_str:00000000000036c5 .LASF5675
C:\Users\SOLDER~1\AppData\Local\Temp\ccYCTqm0.s:27137  .debug_str:00000000000112c6 .LASF5676
GAS LISTING C:\Users\SOLDER~1\AppData\Local\Temp\ccYCTqm0.s 			page 204


C:\Users\SOLDER~1\AppData\Local\Temp\ccYCTqm0.s:27695  .debug_str:0000000000013672 .LASF5677
C:\Users\SOLDER~1\AppData\Local\Temp\ccYCTqm0.s:33789  .debug_str:000000000002c05b .LASF5678
C:\Users\SOLDER~1\AppData\Local\Temp\ccYCTqm0.s:23713  .debug_str:000000000000364d .LASF5679
C:\Users\SOLDER~1\AppData\Local\Temp\ccYCTqm0.s:22883  .debug_str:0000000000000000 .LASF5680
C:\Users\SOLDER~1\AppData\Local\Temp\ccYCTqm0.s:30543  .debug_str:000000000001ee08 .LASF5681
C:\Users\SOLDER~1\AppData\Local\Temp\ccYCTqm0.s:33489  .debug_str:000000000002ace0 .LASF5682
C:\Users\SOLDER~1\AppData\Local\Temp\ccYCTqm0.s:34261  .debug_str:000000000002dec4 .LASF5683
C:\Users\SOLDER~1\AppData\Local\Temp\ccYCTqm0.s:25147  .debug_str:000000000000928d .LASF5684
C:\Users\SOLDER~1\AppData\Local\Temp\ccYCTqm0.s:24323  .debug_str:0000000000005cd4 .LASF5685
C:\Users\SOLDER~1\AppData\Local\Temp\ccYCTqm0.s:23049  .debug_str:0000000000000bb2 .LASF5686
C:\Users\SOLDER~1\AppData\Local\Temp\ccYCTqm0.s:31627  .debug_str:00000000000233aa .LASF5687
C:\Users\SOLDER~1\AppData\Local\Temp\ccYCTqm0.s:26225  .debug_str:000000000000d88e .LASF5688
C:\Users\SOLDER~1\AppData\Local\Temp\ccYCTqm0.s:26755  .debug_str:000000000000fab3 .LASF5689
C:\Users\SOLDER~1\AppData\Local\Temp\ccYCTqm0.s:23757  .debug_str:00000000000038da .LASF5690
C:\Users\SOLDER~1\AppData\Local\Temp\ccYCTqm0.s:23491  .debug_str:00000000000027f4 .LASF5691
C:\Users\SOLDER~1\AppData\Local\Temp\ccYCTqm0.s:28109  .debug_str:0000000000015286 .LASF5692
C:\Users\SOLDER~1\AppData\Local\Temp\ccYCTqm0.s:32789  .debug_str:0000000000027fb7 .LASF5693
C:\Users\SOLDER~1\AppData\Local\Temp\ccYCTqm0.s:28295  .debug_str:0000000000015e60 .LASF5694
C:\Users\SOLDER~1\AppData\Local\Temp\ccYCTqm0.s:23731  .debug_str:0000000000003765 .LASF5695
C:\Users\SOLDER~1\AppData\Local\Temp\ccYCTqm0.s:31199  .debug_str:0000000000021852 .LASF5696
C:\Users\SOLDER~1\AppData\Local\Temp\ccYCTqm0.s:24025  .debug_str:0000000000004a01 .LASF5697
C:\Users\SOLDER~1\AppData\Local\Temp\ccYCTqm0.s:25019  .debug_str:0000000000008a41 .LASF5698
C:\Users\SOLDER~1\AppData\Local\Temp\ccYCTqm0.s:26445  .debug_str:000000000000e73f .LASF5699
C:\Users\SOLDER~1\AppData\Local\Temp\ccYCTqm0.s:31373  .debug_str:000000000002235a .LASF5700
C:\Users\SOLDER~1\AppData\Local\Temp\ccYCTqm0.s:31121  .debug_str:0000000000021342 .LASF5701
C:\Users\SOLDER~1\AppData\Local\Temp\ccYCTqm0.s:29539  .debug_str:000000000001ae07 .LASF5702
C:\Users\SOLDER~1\AppData\Local\Temp\ccYCTqm0.s:28559  .debug_str:0000000000016eb7 .LASF5703
C:\Users\SOLDER~1\AppData\Local\Temp\ccYCTqm0.s:23805  .debug_str:0000000000003c0f .LASF5704
C:\Users\SOLDER~1\AppData\Local\Temp\ccYCTqm0.s:28589  .debug_str:000000000001708b .LASF5705
C:\Users\SOLDER~1\AppData\Local\Temp\ccYCTqm0.s:26239  .debug_str:000000000000d975 .LASF5706
C:\Users\SOLDER~1\AppData\Local\Temp\ccYCTqm0.s:26313  .debug_str:000000000000de27 .LASF5707
C:\Users\SOLDER~1\AppData\Local\Temp\ccYCTqm0.s:32927  .debug_str:00000000000288f9 .LASF5708
C:\Users\SOLDER~1\AppData\Local\Temp\ccYCTqm0.s:32559  .debug_str:00000000000270c6 .LASF5709
C:\Users\SOLDER~1\AppData\Local\Temp\ccYCTqm0.s:27763  .debug_str:0000000000013af6 .LASF5710
C:\Users\SOLDER~1\AppData\Local\Temp\ccYCTqm0.s:30957  .debug_str:00000000000208d1 .LASF5711
                           .group:0000000000000000 wm4.0.cc27e0d2094b492664a2491ca1ae43b0
                           .group:0000000000000000 wm4.ch32v20x.h.13.a030255a3e90e7179ae3b08da8e2408d
                           .group:0000000000000000 wm4._newlib_version.h.4.529115dae5e4f67702b1de0b6e841f38
                           .group:0000000000000000 wm4.features.h.33.3e67abe6fb64142d4f6fa9496796153c
                           .group:0000000000000000 wm4._default_types.h.15.247e5cd201eca3442cbf5404108c4935
                           .group:0000000000000000 wm4._intsup.h.10.48bafbb683905c4daa4565a85aeeb264
                           .group:0000000000000000 wm4._stdint.h.10.c24fa3af3bc1706662bb5593a907e841
                           .group:0000000000000000 wm4.stdint.h.23.d53047a68f4a85177f80b422d52785ed
                           .group:0000000000000000 wm4.core_riscv.h.11.151d7acb41e203dcc664023294f59bdc
                           .group:0000000000000000 wm4.ch32v20x.h.153.1d8393f26361703471ea96fe9aa4b4f9
                           .group:0000000000000000 wm4.ch32v20x_adc.h.56.f131972e7ce35efbe3b5c47a075d6d1b
                           .group:0000000000000000 wm4.ch32v20x_bkp.h.14.0a7965eb5be5000a494c3059b6f0eca5
                           .group:0000000000000000 wm4.ch32v20x_dbgmcu.h.14.26ef95879978d9caaa154b373f3a512b
                           .group:0000000000000000 wm4.ch32v20x_dma.h.14.425a907348dd0134bf6e82c73bbd3df8
                           .group:0000000000000000 wm4.ch32v20x_exti.h.14.f67190d3fb91aa9aecce0f4d5a543221
                           .group:0000000000000000 wm4.ch32v20x_flash.h.14.91c5ecdad44f358d5032244aabf7ef4e
                           .group:0000000000000000 wm4.ch32v20x_gpio.h.14.bdb7f79cce0dffbc24dc81ea80f90bd2
                           .group:0000000000000000 wm4.ch32v20x_i2c.h.14.101eb625c9d2afac400f4e8ac2e9fb1d
                           .group:0000000000000000 wm4.ch32v20x_iwdg.h.14.26025d04ceeb3151185969ed5850fbb4
                           .group:0000000000000000 wm4.ch32v20x_pwr.h.14.8eaa3508938f71b27f140895c21602e6
                           .group:0000000000000000 wm4.ch32v20x_rcc.h.13.18c6b8696a30372de01acaf3c246ecb8
                           .group:0000000000000000 wm4.ch32v20x_rtc.h.14.eb8734f5dd75abcf831b4f12ec49aebe
GAS LISTING C:\Users\SOLDER~1\AppData\Local\Temp\ccYCTqm0.s 			page 205


                           .group:0000000000000000 wm4.ch32v20x_spi.h.14.f12b1f237c615e7304ae62cc2e2c3c1a
                           .group:0000000000000000 wm4.ch32v20x_tim.h.14.35d11fab62898d9d661122ade86d8a6c
                           .group:0000000000000000 wm4.ch32v20x_usart.h.14.9d28c7ec28f2121810b69a55079cd38f
                           .group:0000000000000000 wm4.ch32v20x_wwdg.h.14.49bada437175894a4dce7e12e4216bc9
                           .group:0000000000000000 wm4.ch32v20x_misc.h.14.f3992cf724c30ec0bea268444ffdb6e0
                           .group:0000000000000000 wm4.ch32v20x_can.h.162.7351f4f2658254725bc694b53437d73f

UNDEFINED SYMBOLS
RCC_APB1PeriphResetCmd
