GAS LISTING C:\Users\SOLDER~1\AppData\Local\Temp\ccYCTqm0.s 			page 1


   1              		.file	"ch32v20x_can.c"
   2              		.option nopic
   3              		.attribute arch, "rv32i2p0_m2p0_a2p0_c2p0_xw"
   4              		.attribute unaligned_access, 0
   5              		.attribute stack_align, 16
   6              		.text
   7              	.Ltext0:
   8              		.cfi_sections	.debug_frame
   9              		.file 0 "C:\\Users\\Solderingiron\\Documents\\GitHub\\VSC-make-example\\VSC_CH32V203C8T6" "Drivers
  10              		.section	.text.CAN_DeInit,"ax",@progbits
  11              		.align	1
  12              		.globl	CAN_DeInit
  14              	CAN_DeInit:
  15              	.LFB16:
  16              		.file 1 "Drivers/src/ch32v20x_can.c"
   1:Drivers/src/ch32v20x_can.c **** /********************************** (C) COPYRIGHT  *******************************
   2:Drivers/src/ch32v20x_can.c ****  * File Name          : ch32v20x_can.c
   3:Drivers/src/ch32v20x_can.c ****  * Author             : WCH
   4:Drivers/src/ch32v20x_can.c ****  * Version            : V1.0.0
   5:Drivers/src/ch32v20x_can.c ****  * Date               : 2021/06/06
   6:Drivers/src/ch32v20x_can.c ****  * Description        : This file provides all the CAN firmware functions.
   7:Drivers/src/ch32v20x_can.c **** *********************************************************************************
   8:Drivers/src/ch32v20x_can.c **** * Copyright (c) 2021 Nanjing Qinheng Microelectronics Co., Ltd.
   9:Drivers/src/ch32v20x_can.c **** * Attention: This software (modified or not) and binary are used for 
  10:Drivers/src/ch32v20x_can.c **** * microcontroller manufactured by Nanjing Qinheng Microelectronics.
  11:Drivers/src/ch32v20x_can.c **** *******************************************************************************/
  12:Drivers/src/ch32v20x_can.c **** #include "ch32v20x_can.h"
  13:Drivers/src/ch32v20x_can.c **** #include "ch32v20x_rcc.h"
  14:Drivers/src/ch32v20x_can.c **** 
  15:Drivers/src/ch32v20x_can.c **** /* CAN CTLR Register bits */
  16:Drivers/src/ch32v20x_can.c **** #define CTLR_DBF                     ((uint32_t)0x00010000) 
  17:Drivers/src/ch32v20x_can.c **** 
  18:Drivers/src/ch32v20x_can.c **** /* CAN Mailbox Transmit Request */
  19:Drivers/src/ch32v20x_can.c **** #define TMIDxR_TXRQ                  ((uint32_t)0x00000001) 
  20:Drivers/src/ch32v20x_can.c **** 
  21:Drivers/src/ch32v20x_can.c **** /* CAN FCTLR Register bits */
  22:Drivers/src/ch32v20x_can.c **** #define FCTLR_FINIT                  ((uint32_t)0x00000001) 
  23:Drivers/src/ch32v20x_can.c **** 
  24:Drivers/src/ch32v20x_can.c **** /* Time out for INAK bit */
  25:Drivers/src/ch32v20x_can.c **** #define INAK_TIMEOUT                 ((uint32_t)0x0000FFFF)
  26:Drivers/src/ch32v20x_can.c **** /* Time out for SLAK bit */
  27:Drivers/src/ch32v20x_can.c **** #define SLAK_TIMEOUT                 ((uint32_t)0x0000FFFF)
  28:Drivers/src/ch32v20x_can.c **** 
  29:Drivers/src/ch32v20x_can.c **** 
  30:Drivers/src/ch32v20x_can.c **** /* Flags in TSTATR register */
  31:Drivers/src/ch32v20x_can.c **** #define CAN_FLAGS_TSTATR             ((uint32_t)0x08000000) 
  32:Drivers/src/ch32v20x_can.c **** /* Flags in RFIFO1 register */
  33:Drivers/src/ch32v20x_can.c **** #define CAN_FLAGS_RFIFO1             ((uint32_t)0x04000000) 
  34:Drivers/src/ch32v20x_can.c **** /* Flags in RFIFO0 register */
  35:Drivers/src/ch32v20x_can.c **** #define CAN_FLAGS_RFIFO0             ((uint32_t)0x02000000) 
  36:Drivers/src/ch32v20x_can.c **** /* Flags in STATR register */
  37:Drivers/src/ch32v20x_can.c **** #define CAN_FLAGS_STATR              ((uint32_t)0x01000000) 
  38:Drivers/src/ch32v20x_can.c **** /* Flags in ERRSR register */
  39:Drivers/src/ch32v20x_can.c **** #define CAN_FLAGS_ERRSR              ((uint32_t)0x00F00000) 
  40:Drivers/src/ch32v20x_can.c **** 
  41:Drivers/src/ch32v20x_can.c **** /* Mailboxes definition */
  42:Drivers/src/ch32v20x_can.c **** #define CAN_TXMAILBOX_0              ((uint8_t)0x00)
GAS LISTING C:\Users\SOLDER~1\AppData\Local\Temp\ccYCTqm0.s 			page 2


  43:Drivers/src/ch32v20x_can.c **** #define CAN_TXMAILBOX_1              ((uint8_t)0x01)
  44:Drivers/src/ch32v20x_can.c **** #define CAN_TXMAILBOX_2              ((uint8_t)0x02) 
  45:Drivers/src/ch32v20x_can.c **** 
  46:Drivers/src/ch32v20x_can.c **** 
  47:Drivers/src/ch32v20x_can.c **** #define CAN_MODE_MASK                ((uint32_t) 0x00000003)
  48:Drivers/src/ch32v20x_can.c **** 
  49:Drivers/src/ch32v20x_can.c **** static ITStatus CheckITStatus(uint32_t CAN_Reg, uint32_t It_Bit);
  50:Drivers/src/ch32v20x_can.c **** 
  51:Drivers/src/ch32v20x_can.c **** 
  52:Drivers/src/ch32v20x_can.c **** /*********************************************************************
  53:Drivers/src/ch32v20x_can.c ****  * @fn      CAN_DeInit
  54:Drivers/src/ch32v20x_can.c ****  *
  55:Drivers/src/ch32v20x_can.c ****  * @brief   Deinitializes the CAN peripheral registers to their default reset
  56:Drivers/src/ch32v20x_can.c ****  *        values.
  57:Drivers/src/ch32v20x_can.c ****  *
  58:Drivers/src/ch32v20x_can.c ****  * @param   CANx - where x can be 1 or 2 to select the CAN peripheral.
  59:Drivers/src/ch32v20x_can.c ****  *
  60:Drivers/src/ch32v20x_can.c ****  * @return  none
  61:Drivers/src/ch32v20x_can.c ****  */
  62:Drivers/src/ch32v20x_can.c **** void CAN_DeInit(CAN_TypeDef* CANx)
  63:Drivers/src/ch32v20x_can.c **** {
  17              		.loc 1 63 1
  18              		.cfi_startproc
  19 0000 0111     		addi	sp,sp,-32
  20              		.cfi_def_cfa_offset 32
  21 0002 06CE     		sw	ra,28(sp)
  22 0004 22CC     		sw	s0,24(sp)
  23              		.cfi_offset 1, -4
  24              		.cfi_offset 8, -8
  25 0006 0010     		addi	s0,sp,32
  26              		.cfi_def_cfa 8, 0
  27 0008 2326A4FE 		sw	a0,-20(s0)
  64:Drivers/src/ch32v20x_can.c ****   if (CANx == CAN1)
  28              		.loc 1 64 6
  29 000c 0327C4FE 		lw	a4,-20(s0)
  30 0010 B7670040 		li	a5,1073766400
  31 0014 93870740 		addi	a5,a5,1024
  32 0018 6311F702 		bne	a4,a5,.L2
  65:Drivers/src/ch32v20x_can.c ****   {
  66:Drivers/src/ch32v20x_can.c ****     RCC_APB1PeriphResetCmd(RCC_APB1Periph_CAN1, ENABLE);
  33              		.loc 1 66 5
  34 001c 8545     		li	a1,1
  35 001e 37050002 		li	a0,33554432
  36 0022 97000000 		call	RCC_APB1PeriphResetCmd
  36      E7800000 
  67:Drivers/src/ch32v20x_can.c ****     RCC_APB1PeriphResetCmd(RCC_APB1Periph_CAN1, DISABLE);
  37              		.loc 1 67 5
  38 002a 8145     		li	a1,0
  39 002c 37050002 		li	a0,33554432
  40 0030 97000000 		call	RCC_APB1PeriphResetCmd
  40      E7800000 
  68:Drivers/src/ch32v20x_can.c ****   }
  69:Drivers/src/ch32v20x_can.c ****   else
  70:Drivers/src/ch32v20x_can.c ****   {  
  71:Drivers/src/ch32v20x_can.c ****     RCC_APB1PeriphResetCmd(RCC_APB1Periph_CAN2, ENABLE);
  72:Drivers/src/ch32v20x_can.c ****     RCC_APB1PeriphResetCmd(RCC_APB1Periph_CAN2, DISABLE);
  73:Drivers/src/ch32v20x_can.c ****   }
GAS LISTING C:\Users\SOLDER~1\AppData\Local\Temp\ccYCTqm0.s 			page 3


  74:Drivers/src/ch32v20x_can.c **** }
  41              		.loc 1 74 1
  42 0038 39A8     		j	.L4
  43              	.L2:
  71:Drivers/src/ch32v20x_can.c ****     RCC_APB1PeriphResetCmd(RCC_APB1Periph_CAN2, DISABLE);
  44              		.loc 1 71 5
  45 003a 8545     		li	a1,1
  46 003c 37050004 		li	a0,67108864
  47 0040 97000000 		call	RCC_APB1PeriphResetCmd
  47      E7800000 
  72:Drivers/src/ch32v20x_can.c ****   }
  48              		.loc 1 72 5
  49 0048 8145     		li	a1,0
  50 004a 37050004 		li	a0,67108864
  51 004e 97000000 		call	RCC_APB1PeriphResetCmd
  51      E7800000 
  52              	.L4:
  53              		.loc 1 74 1
  54 0056 0100     		nop
  55 0058 F240     		lw	ra,28(sp)
  56              		.cfi_restore 1
  57 005a 6244     		lw	s0,24(sp)
  58              		.cfi_restore 8
  59              		.cfi_def_cfa 2, 32
  60 005c 0561     		addi	sp,sp,32
  61              		.cfi_def_cfa_offset 0
  62 005e 8280     		jr	ra
  63              		.cfi_endproc
  64              	.LFE16:
  66              		.section	.text.CAN_Init,"ax",@progbits
  67              		.align	1
  68              		.globl	CAN_Init
  70              	CAN_Init:
  71              	.LFB17:
  75:Drivers/src/ch32v20x_can.c **** 
  76:Drivers/src/ch32v20x_can.c **** /*********************************************************************
  77:Drivers/src/ch32v20x_can.c ****  * @fn      CAN_Init
  78:Drivers/src/ch32v20x_can.c ****  *
  79:Drivers/src/ch32v20x_can.c ****  * @brief   Initializes the CAN peripheral according to the specified
  80:Drivers/src/ch32v20x_can.c ****  *        parameters in the CAN_InitStruct.
  81:Drivers/src/ch32v20x_can.c ****  *
  82:Drivers/src/ch32v20x_can.c ****  * @param   CANx - where x can be 1 to select the CAN peripheral.
  83:Drivers/src/ch32v20x_can.c ****  *          CAN_InitStruct - pointer to a CAN_InitTypeDef structure that
  84:Drivers/src/ch32v20x_can.c ****  *        contains the configuration information for the CAN peripheral.
  85:Drivers/src/ch32v20x_can.c ****  *
  86:Drivers/src/ch32v20x_can.c ****  * @return  InitStatus - CAN InitStatus state.
  87:Drivers/src/ch32v20x_can.c **** *             CAN_InitStatus_Failed.
  88:Drivers/src/ch32v20x_can.c **** *             CAN_InitStatus_Success.
  89:Drivers/src/ch32v20x_can.c ****  */
  90:Drivers/src/ch32v20x_can.c **** uint8_t CAN_Init(CAN_TypeDef* CANx, CAN_InitTypeDef* CAN_InitStruct)
  91:Drivers/src/ch32v20x_can.c **** {
  72              		.loc 1 91 1
  73              		.cfi_startproc
  74 0000 7971     		addi	sp,sp,-48
  75              		.cfi_def_cfa_offset 48
  76 0002 22D6     		sw	s0,44(sp)
  77              		.cfi_offset 8, -4
GAS LISTING C:\Users\SOLDER~1\AppData\Local\Temp\ccYCTqm0.s 			page 4


  78 0004 0018     		addi	s0,sp,48
  79              		.cfi_def_cfa 8, 0
  80 0006 232EA4FC 		sw	a0,-36(s0)
  81 000a 232CB4FC 		sw	a1,-40(s0)
  92:Drivers/src/ch32v20x_can.c ****   uint8_t InitStatus = CAN_InitStatus_Failed;
  82              		.loc 1 92 11
  83 000e A30704FE 		sb	zero,-17(s0)
  93:Drivers/src/ch32v20x_can.c ****   uint32_t wait_ack = 0x00000000;
  84              		.loc 1 93 12
  85 0012 232404FE 		sw	zero,-24(s0)
  94:Drivers/src/ch32v20x_can.c **** 
  95:Drivers/src/ch32v20x_can.c ****   CANx->CTLR &= (~(uint32_t)CAN_CTLR_SLEEP);
  86              		.loc 1 95 7
  87 0016 8327C4FD 		lw	a5,-36(s0)
  88 001a 9C43     		lw	a5,0(a5)
  89              		.loc 1 95 14
  90 001c 13F7D7FF 		andi	a4,a5,-3
  91 0020 8327C4FD 		lw	a5,-36(s0)
  92 0024 98C3     		sw	a4,0(a5)
  96:Drivers/src/ch32v20x_can.c ****   CANx->CTLR |= CAN_CTLR_INRQ ;
  93              		.loc 1 96 7
  94 0026 8327C4FD 		lw	a5,-36(s0)
  95 002a 9C43     		lw	a5,0(a5)
  96              		.loc 1 96 14
  97 002c 13E71700 		ori	a4,a5,1
  98 0030 8327C4FD 		lw	a5,-36(s0)
  99 0034 98C3     		sw	a4,0(a5)
  97:Drivers/src/ch32v20x_can.c **** 
  98:Drivers/src/ch32v20x_can.c ****   while (((CANx->STATR & CAN_STATR_INAK) != CAN_STATR_INAK) && (wait_ack != INAK_TIMEOUT))
 100              		.loc 1 98 9
 101 0036 31A0     		j	.L6
 102              	.L8:
  99:Drivers/src/ch32v20x_can.c ****   {
 100:Drivers/src/ch32v20x_can.c ****     wait_ack++;
 103              		.loc 1 100 13
 104 0038 832784FE 		lw	a5,-24(s0)
 105 003c 8507     		addi	a5,a5,1
 106 003e 2324F4FE 		sw	a5,-24(s0)
 107              	.L6:
  98:Drivers/src/ch32v20x_can.c ****   {
 108              		.loc 1 98 16
 109 0042 8327C4FD 		lw	a5,-36(s0)
 110 0046 DC43     		lw	a5,4(a5)
  98:Drivers/src/ch32v20x_can.c ****   {
 111              		.loc 1 98 24
 112 0048 13F71700 		andi	a4,a5,1
  98:Drivers/src/ch32v20x_can.c ****   {
 113              		.loc 1 98 61
 114 004c 8547     		li	a5,1
 115 004e 6308F700 		beq	a4,a5,.L7
  98:Drivers/src/ch32v20x_can.c ****   {
 116              		.loc 1 98 61 is_stmt 0 discriminator 1
 117 0052 032784FE 		lw	a4,-24(s0)
 118 0056 C167     		li	a5,65536
 119 0058 FD17     		addi	a5,a5,-1
 120 005a E31FF7FC 		bne	a4,a5,.L8
 121              	.L7:
GAS LISTING C:\Users\SOLDER~1\AppData\Local\Temp\ccYCTqm0.s 			page 5


 101:Drivers/src/ch32v20x_can.c ****   }
 102:Drivers/src/ch32v20x_can.c **** 
 103:Drivers/src/ch32v20x_can.c ****   if ((CANx->STATR & CAN_STATR_INAK) != CAN_STATR_INAK)
 122              		.loc 1 103 12 is_stmt 1
 123 005e 8327C4FD 		lw	a5,-36(s0)
 124 0062 DC43     		lw	a5,4(a5)
 125              		.loc 1 103 20
 126 0064 13F71700 		andi	a4,a5,1
 127              		.loc 1 103 6
 128 0068 8547     		li	a5,1
 129 006a 6305F700 		beq	a4,a5,.L9
 104:Drivers/src/ch32v20x_can.c ****   {
 105:Drivers/src/ch32v20x_can.c ****     InitStatus = CAN_InitStatus_Failed;
 130              		.loc 1 105 16
 131 006e A30704FE 		sb	zero,-17(s0)
 132 0072 5DA2     		j	.L10
 133              	.L9:
 106:Drivers/src/ch32v20x_can.c ****   }
 107:Drivers/src/ch32v20x_can.c ****   else 
 108:Drivers/src/ch32v20x_can.c ****   {
 109:Drivers/src/ch32v20x_can.c ****     if (CAN_InitStruct->CAN_TTCM == ENABLE)
 134              		.loc 1 109 23
 135 0074 832784FD 		lw	a5,-40(s0)
 136 0078 9847     		lw	a4,8(a5)
 137              		.loc 1 109 8
 138 007a 8547     		li	a5,1
 139 007c 631BF700 		bne	a4,a5,.L11
 110:Drivers/src/ch32v20x_can.c ****     {
 111:Drivers/src/ch32v20x_can.c ****       CANx->CTLR |= CAN_CTLR_TTCM;
 140              		.loc 1 111 11
 141 0080 8327C4FD 		lw	a5,-36(s0)
 142 0084 9C43     		lw	a5,0(a5)
 143              		.loc 1 111 18
 144 0086 13E70708 		ori	a4,a5,128
 145 008a 8327C4FD 		lw	a5,-36(s0)
 146 008e 98C3     		sw	a4,0(a5)
 147 0090 09A8     		j	.L12
 148              	.L11:
 112:Drivers/src/ch32v20x_can.c ****     }
 113:Drivers/src/ch32v20x_can.c ****     else
 114:Drivers/src/ch32v20x_can.c ****     {
 115:Drivers/src/ch32v20x_can.c ****       CANx->CTLR &= ~(uint32_t)CAN_CTLR_TTCM;
 149              		.loc 1 115 11
 150 0092 8327C4FD 		lw	a5,-36(s0)
 151 0096 9C43     		lw	a5,0(a5)
 152              		.loc 1 115 18
 153 0098 13F7F7F7 		andi	a4,a5,-129
 154 009c 8327C4FD 		lw	a5,-36(s0)
 155 00a0 98C3     		sw	a4,0(a5)
 156              	.L12:
 116:Drivers/src/ch32v20x_can.c ****     }
 117:Drivers/src/ch32v20x_can.c **** 
 118:Drivers/src/ch32v20x_can.c ****     if (CAN_InitStruct->CAN_ABOM == ENABLE)
 157              		.loc 1 118 23
 158 00a2 832784FD 		lw	a5,-40(s0)
 159 00a6 D847     		lw	a4,12(a5)
 160              		.loc 1 118 8
GAS LISTING C:\Users\SOLDER~1\AppData\Local\Temp\ccYCTqm0.s 			page 6


 161 00a8 8547     		li	a5,1
 162 00aa 631BF700 		bne	a4,a5,.L13
 119:Drivers/src/ch32v20x_can.c ****     {
 120:Drivers/src/ch32v20x_can.c ****       CANx->CTLR |= CAN_CTLR_ABOM;
 163              		.loc 1 120 11
 164 00ae 8327C4FD 		lw	a5,-36(s0)
 165 00b2 9C43     		lw	a5,0(a5)
 166              		.loc 1 120 18
 167 00b4 13E70704 		ori	a4,a5,64
 168 00b8 8327C4FD 		lw	a5,-36(s0)
 169 00bc 98C3     		sw	a4,0(a5)
 170 00be 09A8     		j	.L14
 171              	.L13:
 121:Drivers/src/ch32v20x_can.c ****     }
 122:Drivers/src/ch32v20x_can.c ****     else
 123:Drivers/src/ch32v20x_can.c ****     {
 124:Drivers/src/ch32v20x_can.c ****       CANx->CTLR &= ~(uint32_t)CAN_CTLR_ABOM;
 172              		.loc 1 124 11
 173 00c0 8327C4FD 		lw	a5,-36(s0)
 174 00c4 9C43     		lw	a5,0(a5)
 175              		.loc 1 124 18
 176 00c6 13F7F7FB 		andi	a4,a5,-65
 177 00ca 8327C4FD 		lw	a5,-36(s0)
 178 00ce 98C3     		sw	a4,0(a5)
 179              	.L14:
 125:Drivers/src/ch32v20x_can.c ****     }
 126:Drivers/src/ch32v20x_can.c **** 
 127:Drivers/src/ch32v20x_can.c ****     if (CAN_InitStruct->CAN_AWUM == ENABLE)
 180              		.loc 1 127 23
 181 00d0 832784FD 		lw	a5,-40(s0)
 182 00d4 984B     		lw	a4,16(a5)
 183              		.loc 1 127 8
 184 00d6 8547     		li	a5,1
 185 00d8 631BF700 		bne	a4,a5,.L15
 128:Drivers/src/ch32v20x_can.c ****     {
 129:Drivers/src/ch32v20x_can.c ****       CANx->CTLR |= CAN_CTLR_AWUM;
 186              		.loc 1 129 11
 187 00dc 8327C4FD 		lw	a5,-36(s0)
 188 00e0 9C43     		lw	a5,0(a5)
 189              		.loc 1 129 18
 190 00e2 13E70702 		ori	a4,a5,32
 191 00e6 8327C4FD 		lw	a5,-36(s0)
 192 00ea 98C3     		sw	a4,0(a5)
 193 00ec 09A8     		j	.L16
 194              	.L15:
 130:Drivers/src/ch32v20x_can.c ****     }
 131:Drivers/src/ch32v20x_can.c ****     else
 132:Drivers/src/ch32v20x_can.c ****     {
 133:Drivers/src/ch32v20x_can.c ****       CANx->CTLR &= ~(uint32_t)CAN_CTLR_AWUM;
 195              		.loc 1 133 11
 196 00ee 8327C4FD 		lw	a5,-36(s0)
 197 00f2 9C43     		lw	a5,0(a5)
 198              		.loc 1 133 18
 199 00f4 13F7F7FD 		andi	a4,a5,-33
 200 00f8 8327C4FD 		lw	a5,-36(s0)
 201 00fc 98C3     		sw	a4,0(a5)
 202              	.L16:
GAS LISTING C:\Users\SOLDER~1\AppData\Local\Temp\ccYCTqm0.s 			page 7


 134:Drivers/src/ch32v20x_can.c ****     }
 135:Drivers/src/ch32v20x_can.c **** 
 136:Drivers/src/ch32v20x_can.c ****     if (CAN_InitStruct->CAN_NART == ENABLE)
 203              		.loc 1 136 23
 204 00fe 832784FD 		lw	a5,-40(s0)
 205 0102 D84B     		lw	a4,20(a5)
 206              		.loc 1 136 8
 207 0104 8547     		li	a5,1
 208 0106 631BF700 		bne	a4,a5,.L17
 137:Drivers/src/ch32v20x_can.c ****     {
 138:Drivers/src/ch32v20x_can.c ****       CANx->CTLR |= CAN_CTLR_NART;
 209              		.loc 1 138 11
 210 010a 8327C4FD 		lw	a5,-36(s0)
 211 010e 9C43     		lw	a5,0(a5)
 212              		.loc 1 138 18
 213 0110 13E70701 		ori	a4,a5,16
 214 0114 8327C4FD 		lw	a5,-36(s0)
 215 0118 98C3     		sw	a4,0(a5)
 216 011a 09A8     		j	.L18
 217              	.L17:
 139:Drivers/src/ch32v20x_can.c ****     }
 140:Drivers/src/ch32v20x_can.c ****     else
 141:Drivers/src/ch32v20x_can.c ****     {
 142:Drivers/src/ch32v20x_can.c ****       CANx->CTLR &= ~(uint32_t)CAN_CTLR_NART;
 218              		.loc 1 142 11
 219 011c 8327C4FD 		lw	a5,-36(s0)
 220 0120 9C43     		lw	a5,0(a5)
 221              		.loc 1 142 18
 222 0122 13F7F7FE 		andi	a4,a5,-17
 223 0126 8327C4FD 		lw	a5,-36(s0)
 224 012a 98C3     		sw	a4,0(a5)
 225              	.L18:
 143:Drivers/src/ch32v20x_can.c ****     }
 144:Drivers/src/ch32v20x_can.c **** 
 145:Drivers/src/ch32v20x_can.c ****     if (CAN_InitStruct->CAN_RFLM == ENABLE)
 226              		.loc 1 145 23
 227 012c 832784FD 		lw	a5,-40(s0)
 228 0130 984F     		lw	a4,24(a5)
 229              		.loc 1 145 8
 230 0132 8547     		li	a5,1
 231 0134 631BF700 		bne	a4,a5,.L19
 146:Drivers/src/ch32v20x_can.c ****     {
 147:Drivers/src/ch32v20x_can.c ****       CANx->CTLR |= CAN_CTLR_RFLM;
 232              		.loc 1 147 11
 233 0138 8327C4FD 		lw	a5,-36(s0)
 234 013c 9C43     		lw	a5,0(a5)
 235              		.loc 1 147 18
 236 013e 13E78700 		ori	a4,a5,8
 237 0142 8327C4FD 		lw	a5,-36(s0)
 238 0146 98C3     		sw	a4,0(a5)
 239 0148 09A8     		j	.L20
 240              	.L19:
 148:Drivers/src/ch32v20x_can.c ****     }
 149:Drivers/src/ch32v20x_can.c ****     else
 150:Drivers/src/ch32v20x_can.c ****     {
 151:Drivers/src/ch32v20x_can.c ****       CANx->CTLR &= ~(uint32_t)CAN_CTLR_RFLM;
 241              		.loc 1 151 11
GAS LISTING C:\Users\SOLDER~1\AppData\Local\Temp\ccYCTqm0.s 			page 8


 242 014a 8327C4FD 		lw	a5,-36(s0)
 243 014e 9C43     		lw	a5,0(a5)
 244              		.loc 1 151 18
 245 0150 13F777FF 		andi	a4,a5,-9
 246 0154 8327C4FD 		lw	a5,-36(s0)
 247 0158 98C3     		sw	a4,0(a5)
 248              	.L20:
 152:Drivers/src/ch32v20x_can.c ****     }
 153:Drivers/src/ch32v20x_can.c **** 
 154:Drivers/src/ch32v20x_can.c ****     if (CAN_InitStruct->CAN_TXFP == ENABLE)
 249              		.loc 1 154 23
 250 015a 832784FD 		lw	a5,-40(s0)
 251 015e D84F     		lw	a4,28(a5)
 252              		.loc 1 154 8
 253 0160 8547     		li	a5,1
 254 0162 631BF700 		bne	a4,a5,.L21
 155:Drivers/src/ch32v20x_can.c ****     {
 156:Drivers/src/ch32v20x_can.c ****       CANx->CTLR |= CAN_CTLR_TXFP;
 255              		.loc 1 156 11
 256 0166 8327C4FD 		lw	a5,-36(s0)
 257 016a 9C43     		lw	a5,0(a5)
 258              		.loc 1 156 18
 259 016c 13E74700 		ori	a4,a5,4
 260 0170 8327C4FD 		lw	a5,-36(s0)
 261 0174 98C3     		sw	a4,0(a5)
 262 0176 09A8     		j	.L22
 263              	.L21:
 157:Drivers/src/ch32v20x_can.c ****     }
 158:Drivers/src/ch32v20x_can.c ****     else
 159:Drivers/src/ch32v20x_can.c ****     {
 160:Drivers/src/ch32v20x_can.c ****       CANx->CTLR &= ~(uint32_t)CAN_CTLR_TXFP;
 264              		.loc 1 160 11
 265 0178 8327C4FD 		lw	a5,-36(s0)
 266 017c 9C43     		lw	a5,0(a5)
 267              		.loc 1 160 18
 268 017e 13F7B7FF 		andi	a4,a5,-5
 269 0182 8327C4FD 		lw	a5,-36(s0)
 270 0186 98C3     		sw	a4,0(a5)
 271              	.L22:
 161:Drivers/src/ch32v20x_can.c ****     }
 162:Drivers/src/ch32v20x_can.c **** 
 163:Drivers/src/ch32v20x_can.c ****     CANx->BTIMR = (uint32_t)((uint32_t)CAN_InitStruct->CAN_Mode << 30) | \
 272              		.loc 1 163 54
 273 0188 832784FD 		lw	a5,-40(s0)
 274 018c BC23     		lbu	a5,2(a5)
 275              		.loc 1 163 19
 276 018e 1397E701 		slli	a4,a5,30
 164:Drivers/src/ch32v20x_can.c ****                 ((uint32_t)CAN_InitStruct->CAN_SJW << 24) | \
 277              		.loc 1 164 42
 278 0192 832784FD 		lw	a5,-40(s0)
 279 0196 BC33     		lbu	a5,3(a5)
 280              		.loc 1 164 52
 281 0198 E207     		slli	a5,a5,24
 163:Drivers/src/ch32v20x_can.c ****                 ((uint32_t)CAN_InitStruct->CAN_SJW << 24) | \
 282              		.loc 1 163 72
 283 019a 5D8F     		or	a4,a4,a5
 165:Drivers/src/ch32v20x_can.c ****                 ((uint32_t)CAN_InitStruct->CAN_BS1 << 16) | \
GAS LISTING C:\Users\SOLDER~1\AppData\Local\Temp\ccYCTqm0.s 			page 9


 284              		.loc 1 165 42
 285 019c 832784FD 		lw	a5,-40(s0)
 286 01a0 DC23     		lbu	a5,4(a5)
 287              		.loc 1 165 52
 288 01a2 C207     		slli	a5,a5,16
 164:Drivers/src/ch32v20x_can.c ****                 ((uint32_t)CAN_InitStruct->CAN_SJW << 24) | \
 289              		.loc 1 164 59
 290 01a4 5D8F     		or	a4,a4,a5
 166:Drivers/src/ch32v20x_can.c ****                 ((uint32_t)CAN_InitStruct->CAN_BS2 << 20) | \
 291              		.loc 1 166 42
 292 01a6 832784FD 		lw	a5,-40(s0)
 293 01aa DC33     		lbu	a5,5(a5)
 294              		.loc 1 166 52
 295 01ac D207     		slli	a5,a5,20
 165:Drivers/src/ch32v20x_can.c ****                 ((uint32_t)CAN_InitStruct->CAN_BS1 << 16) | \
 296              		.loc 1 165 59
 297 01ae 5D8F     		or	a4,a4,a5
 167:Drivers/src/ch32v20x_can.c ****                 ((uint32_t)CAN_InitStruct->CAN_Prescaler - 1);
 298              		.loc 1 167 42
 299 01b0 832784FD 		lw	a5,-40(s0)
 300 01b4 9E23     		lhu	a5,0(a5)
 301              		.loc 1 167 58
 302 01b6 FD17     		addi	a5,a5,-1
 166:Drivers/src/ch32v20x_can.c ****                 ((uint32_t)CAN_InitStruct->CAN_BS2 << 20) | \
 303              		.loc 1 166 59
 304 01b8 5D8F     		or	a4,a4,a5
 163:Drivers/src/ch32v20x_can.c ****                 ((uint32_t)CAN_InitStruct->CAN_SJW << 24) | \
 305              		.loc 1 163 17
 306 01ba 8327C4FD 		lw	a5,-36(s0)
 307 01be D8CF     		sw	a4,28(a5)
 168:Drivers/src/ch32v20x_can.c ****     CANx->CTLR &= ~(uint32_t)CAN_CTLR_INRQ;
 308              		.loc 1 168 9
 309 01c0 8327C4FD 		lw	a5,-36(s0)
 310 01c4 9C43     		lw	a5,0(a5)
 311              		.loc 1 168 16
 312 01c6 13F7E7FF 		andi	a4,a5,-2
 313 01ca 8327C4FD 		lw	a5,-36(s0)
 314 01ce 98C3     		sw	a4,0(a5)
 169:Drivers/src/ch32v20x_can.c ****     wait_ack = 0;
 315              		.loc 1 169 14
 316 01d0 232404FE 		sw	zero,-24(s0)
 170:Drivers/src/ch32v20x_can.c **** 
 171:Drivers/src/ch32v20x_can.c ****     while (((CANx->STATR & CAN_STATR_INAK) == CAN_STATR_INAK) && (wait_ack != INAK_TIMEOUT))
 317              		.loc 1 171 11
 318 01d4 31A0     		j	.L23
 319              	.L25:
 172:Drivers/src/ch32v20x_can.c ****     {
 173:Drivers/src/ch32v20x_can.c ****       wait_ack++;
 320              		.loc 1 173 15
 321 01d6 832784FE 		lw	a5,-24(s0)
 322 01da 8507     		addi	a5,a5,1
 323 01dc 2324F4FE 		sw	a5,-24(s0)
 324              	.L23:
 171:Drivers/src/ch32v20x_can.c ****     {
 325              		.loc 1 171 18
 326 01e0 8327C4FD 		lw	a5,-36(s0)
 327 01e4 DC43     		lw	a5,4(a5)
GAS LISTING C:\Users\SOLDER~1\AppData\Local\Temp\ccYCTqm0.s 			page 10


 171:Drivers/src/ch32v20x_can.c ****     {
 328              		.loc 1 171 26
 329 01e6 13F71700 		andi	a4,a5,1
 171:Drivers/src/ch32v20x_can.c ****     {
 330              		.loc 1 171 63
 331 01ea 8547     		li	a5,1
 332 01ec 6318F700 		bne	a4,a5,.L24
 171:Drivers/src/ch32v20x_can.c ****     {
 333              		.loc 1 171 63 is_stmt 0 discriminator 1
 334 01f0 032784FE 		lw	a4,-24(s0)
 335 01f4 C167     		li	a5,65536
 336 01f6 FD17     		addi	a5,a5,-1
 337 01f8 E31FF7FC 		bne	a4,a5,.L25
 338              	.L24:
 174:Drivers/src/ch32v20x_can.c ****     }
 175:Drivers/src/ch32v20x_can.c **** 
 176:Drivers/src/ch32v20x_can.c ****     if ((CANx->STATR & CAN_STATR_INAK) == CAN_STATR_INAK)
 339              		.loc 1 176 14 is_stmt 1
 340 01fc 8327C4FD 		lw	a5,-36(s0)
 341 0200 DC43     		lw	a5,4(a5)
 342              		.loc 1 176 22
 343 0202 13F71700 		andi	a4,a5,1
 344              		.loc 1 176 8
 345 0206 8547     		li	a5,1
 346 0208 6315F700 		bne	a4,a5,.L26
 177:Drivers/src/ch32v20x_can.c ****     {
 178:Drivers/src/ch32v20x_can.c ****       InitStatus = CAN_InitStatus_Failed;
 347              		.loc 1 178 18
 348 020c A30704FE 		sb	zero,-17(s0)
 349 0210 21A0     		j	.L10
 350              	.L26:
 179:Drivers/src/ch32v20x_can.c ****     }
 180:Drivers/src/ch32v20x_can.c ****     else
 181:Drivers/src/ch32v20x_can.c ****     {
 182:Drivers/src/ch32v20x_can.c ****       InitStatus = CAN_InitStatus_Success ;
 351              		.loc 1 182 18
 352 0212 8547     		li	a5,1
 353 0214 A307F4FE 		sb	a5,-17(s0)
 354              	.L10:
 183:Drivers/src/ch32v20x_can.c ****     }
 184:Drivers/src/ch32v20x_can.c ****   }
 185:Drivers/src/ch32v20x_can.c **** 
 186:Drivers/src/ch32v20x_can.c ****   return InitStatus;
 355              		.loc 1 186 10
 356 0218 8347F4FE 		lbu	a5,-17(s0)
 187:Drivers/src/ch32v20x_can.c **** }
 357              		.loc 1 187 1
 358 021c 3E85     		mv	a0,a5
 359 021e 3254     		lw	s0,44(sp)
 360              		.cfi_restore 8
 361              		.cfi_def_cfa 2, 48
 362 0220 4561     		addi	sp,sp,48
 363              		.cfi_def_cfa_offset 0
 364 0222 8280     		jr	ra
 365              		.cfi_endproc
 366              	.LFE17:
 368              		.section	.text.CAN_FilterInit,"ax",@progbits
GAS LISTING C:\Users\SOLDER~1\AppData\Local\Temp\ccYCTqm0.s 			page 11


 369              		.align	1
 370              		.globl	CAN_FilterInit
 372              	CAN_FilterInit:
 373              	.LFB18:
 188:Drivers/src/ch32v20x_can.c **** 
 189:Drivers/src/ch32v20x_can.c **** /*********************************************************************
 190:Drivers/src/ch32v20x_can.c ****  * @fn      CAN_FilterInit
 191:Drivers/src/ch32v20x_can.c ****  *
 192:Drivers/src/ch32v20x_can.c ****  * @brief   Initializes the CAN peripheral according to the specified
 193:Drivers/src/ch32v20x_can.c ****  *        parameters in the CAN_FilterInitStruct.
 194:Drivers/src/ch32v20x_can.c ****  *
 195:Drivers/src/ch32v20x_can.c ****  * @param   CAN_FilterInitStruct - pointer to a CAN_FilterInitTypeDef
 196:Drivers/src/ch32v20x_can.c ****  *        structure that contains the configuration information.
 197:Drivers/src/ch32v20x_can.c ****  *
 198:Drivers/src/ch32v20x_can.c ****  * @return  none
 199:Drivers/src/ch32v20x_can.c ****  */
 200:Drivers/src/ch32v20x_can.c **** void CAN_FilterInit(CAN_FilterInitTypeDef* CAN_FilterInitStruct)
 201:Drivers/src/ch32v20x_can.c **** {
 374              		.loc 1 201 1
 375              		.cfi_startproc
 376 0000 7971     		addi	sp,sp,-48
 377              		.cfi_def_cfa_offset 48
 378 0002 22D6     		sw	s0,44(sp)
 379              		.cfi_offset 8, -4
 380 0004 0018     		addi	s0,sp,48
 381              		.cfi_def_cfa 8, 0
 382 0006 232EA4FC 		sw	a0,-36(s0)
 202:Drivers/src/ch32v20x_can.c ****   uint32_t filter_number_bit_pos = 0;
 383              		.loc 1 202 12
 384 000a 232404FE 		sw	zero,-24(s0)
 203:Drivers/src/ch32v20x_can.c **** 
 204:Drivers/src/ch32v20x_can.c ****   filter_number_bit_pos = ((uint32_t)1) << CAN_FilterInitStruct->CAN_FilterNumber;
 385              		.loc 1 204 64
 386 000e 8327C4FD 		lw	a5,-36(s0)
 387 0012 BC27     		lbu	a5,10(a5)
 388 0014 3E87     		mv	a4,a5
 389              		.loc 1 204 25
 390 0016 8547     		li	a5,1
 391 0018 B397E700 		sll	a5,a5,a4
 392 001c 2324F4FE 		sw	a5,-24(s0)
 205:Drivers/src/ch32v20x_can.c ****   CAN1->FCTLR |= FCTLR_FINIT;
 393              		.loc 1 205 7
 394 0020 B7670040 		li	a5,1073766400
 395 0024 93870740 		addi	a5,a5,1024
 396 0028 03A70720 		lw	a4,512(a5)
 397 002c B7670040 		li	a5,1073766400
 398 0030 93870740 		addi	a5,a5,1024
 399              		.loc 1 205 15
 400 0034 13671700 		ori	a4,a4,1
 401 0038 23A0E720 		sw	a4,512(a5)
 206:Drivers/src/ch32v20x_can.c ****   CAN1->FWR &= ~(uint32_t)filter_number_bit_pos;
 402              		.loc 1 206 7
 403 003c B7670040 		li	a5,1073766400
 404 0040 93870740 		addi	a5,a5,1024
 405 0044 83A6C721 		lw	a3,540(a5)
 406              		.loc 1 206 16
 407 0048 832784FE 		lw	a5,-24(s0)
GAS LISTING C:\Users\SOLDER~1\AppData\Local\Temp\ccYCTqm0.s 			page 12


 408 004c 13C7F7FF 		not	a4,a5
 409              		.loc 1 206 7
 410 0050 B7670040 		li	a5,1073766400
 411 0054 93870740 		addi	a5,a5,1024
 412              		.loc 1 206 13
 413 0058 758F     		and	a4,a3,a4
 414 005a 23AEE720 		sw	a4,540(a5)
 207:Drivers/src/ch32v20x_can.c **** 
 208:Drivers/src/ch32v20x_can.c ****   if (CAN_FilterInitStruct->CAN_FilterScale == CAN_FilterScale_16bit)
 415              		.loc 1 208 27
 416 005e 8327C4FD 		lw	a5,-36(s0)
 417 0062 DC27     		lbu	a5,12(a5)
 418              		.loc 1 208 6
 419 0064 C1E3     		bne	a5,zero,.L29
 209:Drivers/src/ch32v20x_can.c ****   {
 210:Drivers/src/ch32v20x_can.c ****     CAN1->FSCFGR &= ~(uint32_t)filter_number_bit_pos;
 420              		.loc 1 210 9
 421 0066 B7670040 		li	a5,1073766400
 422 006a 93870740 		addi	a5,a5,1024
 423 006e 83A6C720 		lw	a3,524(a5)
 424              		.loc 1 210 21
 425 0072 832784FE 		lw	a5,-24(s0)
 426 0076 13C7F7FF 		not	a4,a5
 427              		.loc 1 210 9
 428 007a B7670040 		li	a5,1073766400
 429 007e 93870740 		addi	a5,a5,1024
 430              		.loc 1 210 18
 431 0082 758F     		and	a4,a3,a4
 432 0084 23A6E720 		sw	a4,524(a5)
 211:Drivers/src/ch32v20x_can.c **** 		
 212:Drivers/src/ch32v20x_can.c ****     CAN1->sFilterRegister[CAN_FilterInitStruct->CAN_FilterNumber].FR1 = 
 213:Drivers/src/ch32v20x_can.c ****     ((0x0000FFFF & (uint32_t)CAN_FilterInitStruct->CAN_FilterMaskIdLow) << 16) |
 433              		.loc 1 213 50
 434 0088 8327C4FD 		lw	a5,-36(s0)
 435 008c FE23     		lhu	a5,6(a5)
 436              		.loc 1 213 73
 437 008e C207     		slli	a5,a5,16
 214:Drivers/src/ch32v20x_can.c ****         (0x0000FFFF & (uint32_t)CAN_FilterInitStruct->CAN_FilterIdLow);
 438              		.loc 1 214 53
 439 0090 0327C4FD 		lw	a4,-36(s0)
 440 0094 3A23     		lhu	a4,2(a4)
 441              		.loc 1 214 21
 442 0096 BA85     		mv	a1,a4
 212:Drivers/src/ch32v20x_can.c ****     ((0x0000FFFF & (uint32_t)CAN_FilterInitStruct->CAN_FilterMaskIdLow) << 16) |
 443              		.loc 1 212 9
 444 0098 37670040 		li	a4,1073766400
 445 009c 93060740 		addi	a3,a4,1024
 212:Drivers/src/ch32v20x_can.c ****     ((0x0000FFFF & (uint32_t)CAN_FilterInitStruct->CAN_FilterMaskIdLow) << 16) |
 446              		.loc 1 212 47
 447 00a0 0327C4FD 		lw	a4,-36(s0)
 448 00a4 3827     		lbu	a4,10(a4)
 449 00a6 3A86     		mv	a2,a4
 213:Drivers/src/ch32v20x_can.c ****         (0x0000FFFF & (uint32_t)CAN_FilterInitStruct->CAN_FilterIdLow);
 450              		.loc 1 213 80
 451 00a8 33E7B700 		or	a4,a5,a1
 212:Drivers/src/ch32v20x_can.c ****     ((0x0000FFFF & (uint32_t)CAN_FilterInitStruct->CAN_FilterMaskIdLow) << 16) |
 452              		.loc 1 212 71
GAS LISTING C:\Users\SOLDER~1\AppData\Local\Temp\ccYCTqm0.s 			page 13


 453 00ac 93078604 		addi	a5,a2,72
 454 00b0 8E07     		slli	a5,a5,3
 455 00b2 B697     		add	a5,a3,a5
 456 00b4 98C3     		sw	a4,0(a5)
 215:Drivers/src/ch32v20x_can.c **** 		
 216:Drivers/src/ch32v20x_can.c ****     CAN1->sFilterRegister[CAN_FilterInitStruct->CAN_FilterNumber].FR2 = 
 217:Drivers/src/ch32v20x_can.c ****     ((0x0000FFFF & (uint32_t)CAN_FilterInitStruct->CAN_FilterMaskIdHigh) << 16) |
 457              		.loc 1 217 50
 458 00b6 8327C4FD 		lw	a5,-36(s0)
 459 00ba DE23     		lhu	a5,4(a5)
 460              		.loc 1 217 74
 461 00bc C207     		slli	a5,a5,16
 218:Drivers/src/ch32v20x_can.c ****         (0x0000FFFF & (uint32_t)CAN_FilterInitStruct->CAN_FilterIdHigh);
 462              		.loc 1 218 53
 463 00be 0327C4FD 		lw	a4,-36(s0)
 464 00c2 1A23     		lhu	a4,0(a4)
 465              		.loc 1 218 21
 466 00c4 BA85     		mv	a1,a4
 216:Drivers/src/ch32v20x_can.c ****     ((0x0000FFFF & (uint32_t)CAN_FilterInitStruct->CAN_FilterMaskIdHigh) << 16) |
 467              		.loc 1 216 9
 468 00c6 37670040 		li	a4,1073766400
 469 00ca 93060740 		addi	a3,a4,1024
 216:Drivers/src/ch32v20x_can.c ****     ((0x0000FFFF & (uint32_t)CAN_FilterInitStruct->CAN_FilterMaskIdHigh) << 16) |
 470              		.loc 1 216 47
 471 00ce 0327C4FD 		lw	a4,-36(s0)
 472 00d2 3827     		lbu	a4,10(a4)
 473 00d4 3A86     		mv	a2,a4
 217:Drivers/src/ch32v20x_can.c ****         (0x0000FFFF & (uint32_t)CAN_FilterInitStruct->CAN_FilterIdHigh);
 474              		.loc 1 217 81
 475 00d6 33E7B700 		or	a4,a5,a1
 216:Drivers/src/ch32v20x_can.c ****     ((0x0000FFFF & (uint32_t)CAN_FilterInitStruct->CAN_FilterMaskIdHigh) << 16) |
 476              		.loc 1 216 71
 477 00da 93078604 		addi	a5,a2,72
 478 00de 8E07     		slli	a5,a5,3
 479 00e0 B697     		add	a5,a3,a5
 480 00e2 D8C3     		sw	a4,4(a5)
 481              	.L29:
 219:Drivers/src/ch32v20x_can.c ****   }
 220:Drivers/src/ch32v20x_can.c **** 
 221:Drivers/src/ch32v20x_can.c ****   if (CAN_FilterInitStruct->CAN_FilterScale == CAN_FilterScale_32bit)
 482              		.loc 1 221 27
 483 00e4 8327C4FD 		lw	a5,-36(s0)
 484 00e8 D827     		lbu	a4,12(a5)
 485              		.loc 1 221 6
 486 00ea 8547     		li	a5,1
 487 00ec 631FF706 		bne	a4,a5,.L30
 222:Drivers/src/ch32v20x_can.c ****   {
 223:Drivers/src/ch32v20x_can.c ****     CAN1->FSCFGR |= filter_number_bit_pos;
 488              		.loc 1 223 9
 489 00f0 B7670040 		li	a5,1073766400
 490 00f4 93870740 		addi	a5,a5,1024
 491 00f8 83A6C720 		lw	a3,524(a5)
 492 00fc B7670040 		li	a5,1073766400
 493 0100 93870740 		addi	a5,a5,1024
 494              		.loc 1 223 18
 495 0104 032784FE 		lw	a4,-24(s0)
 496 0108 558F     		or	a4,a3,a4
GAS LISTING C:\Users\SOLDER~1\AppData\Local\Temp\ccYCTqm0.s 			page 14


 497 010a 23A6E720 		sw	a4,524(a5)
 224:Drivers/src/ch32v20x_can.c ****     
 225:Drivers/src/ch32v20x_can.c **** 		CAN1->sFilterRegister[CAN_FilterInitStruct->CAN_FilterNumber].FR1 = 
 226:Drivers/src/ch32v20x_can.c ****     ((0x0000FFFF & (uint32_t)CAN_FilterInitStruct->CAN_FilterIdHigh) << 16) |
 498              		.loc 1 226 50
 499 010e 8327C4FD 		lw	a5,-36(s0)
 500 0112 9E23     		lhu	a5,0(a5)
 501              		.loc 1 226 70
 502 0114 C207     		slli	a5,a5,16
 227:Drivers/src/ch32v20x_can.c ****         (0x0000FFFF & (uint32_t)CAN_FilterInitStruct->CAN_FilterIdLow);
 503              		.loc 1 227 53
 504 0116 0327C4FD 		lw	a4,-36(s0)
 505 011a 3A23     		lhu	a4,2(a4)
 506              		.loc 1 227 21
 507 011c BA85     		mv	a1,a4
 225:Drivers/src/ch32v20x_can.c ****     ((0x0000FFFF & (uint32_t)CAN_FilterInitStruct->CAN_FilterIdHigh) << 16) |
 508              		.loc 1 225 7
 509 011e 37670040 		li	a4,1073766400
 510 0122 93060740 		addi	a3,a4,1024
 225:Drivers/src/ch32v20x_can.c ****     ((0x0000FFFF & (uint32_t)CAN_FilterInitStruct->CAN_FilterIdHigh) << 16) |
 511              		.loc 1 225 45
 512 0126 0327C4FD 		lw	a4,-36(s0)
 513 012a 3827     		lbu	a4,10(a4)
 514 012c 3A86     		mv	a2,a4
 226:Drivers/src/ch32v20x_can.c ****         (0x0000FFFF & (uint32_t)CAN_FilterInitStruct->CAN_FilterIdLow);
 515              		.loc 1 226 77
 516 012e 33E7B700 		or	a4,a5,a1
 225:Drivers/src/ch32v20x_can.c ****     ((0x0000FFFF & (uint32_t)CAN_FilterInitStruct->CAN_FilterIdHigh) << 16) |
 517              		.loc 1 225 69
 518 0132 93078604 		addi	a5,a2,72
 519 0136 8E07     		slli	a5,a5,3
 520 0138 B697     		add	a5,a3,a5
 521 013a 98C3     		sw	a4,0(a5)
 228:Drivers/src/ch32v20x_can.c ****     
 229:Drivers/src/ch32v20x_can.c **** 		CAN1->sFilterRegister[CAN_FilterInitStruct->CAN_FilterNumber].FR2 = 
 230:Drivers/src/ch32v20x_can.c ****     ((0x0000FFFF & (uint32_t)CAN_FilterInitStruct->CAN_FilterMaskIdHigh) << 16) |
 522              		.loc 1 230 50
 523 013c 8327C4FD 		lw	a5,-36(s0)
 524 0140 DE23     		lhu	a5,4(a5)
 525              		.loc 1 230 74
 526 0142 C207     		slli	a5,a5,16
 231:Drivers/src/ch32v20x_can.c ****         (0x0000FFFF & (uint32_t)CAN_FilterInitStruct->CAN_FilterMaskIdLow);
 527              		.loc 1 231 53
 528 0144 0327C4FD 		lw	a4,-36(s0)
 529 0148 7A23     		lhu	a4,6(a4)
 530              		.loc 1 231 21
 531 014a BA85     		mv	a1,a4
 229:Drivers/src/ch32v20x_can.c ****     ((0x0000FFFF & (uint32_t)CAN_FilterInitStruct->CAN_FilterMaskIdHigh) << 16) |
 532              		.loc 1 229 7
 533 014c 37670040 		li	a4,1073766400
 534 0150 93060740 		addi	a3,a4,1024
 229:Drivers/src/ch32v20x_can.c ****     ((0x0000FFFF & (uint32_t)CAN_FilterInitStruct->CAN_FilterMaskIdHigh) << 16) |
 535              		.loc 1 229 45
 536 0154 0327C4FD 		lw	a4,-36(s0)
 537 0158 3827     		lbu	a4,10(a4)
 538 015a 3A86     		mv	a2,a4
 230:Drivers/src/ch32v20x_can.c ****         (0x0000FFFF & (uint32_t)CAN_FilterInitStruct->CAN_FilterMaskIdLow);
GAS LISTING C:\Users\SOLDER~1\AppData\Local\Temp\ccYCTqm0.s 			page 15


 539              		.loc 1 230 81
 540 015c 33E7B700 		or	a4,a5,a1
 229:Drivers/src/ch32v20x_can.c ****     ((0x0000FFFF & (uint32_t)CAN_FilterInitStruct->CAN_FilterMaskIdHigh) << 16) |
 541              		.loc 1 229 69
 542 0160 93078604 		addi	a5,a2,72
 543 0164 8E07     		slli	a5,a5,3
 544 0166 B697     		add	a5,a3,a5
 545 0168 D8C3     		sw	a4,4(a5)
 546              	.L30:
 232:Drivers/src/ch32v20x_can.c ****   }
 233:Drivers/src/ch32v20x_can.c **** 
 234:Drivers/src/ch32v20x_can.c **** #if defined (CH32V20x_D6)
 235:Drivers/src/ch32v20x_can.c ****   if(((*(uint32_t *) 0x40022030) & 0x0F000000) == 0)
 547              		.loc 1 235 8
 548 016a B7270240 		li	a5,1073881088
 549 016e 93870703 		addi	a5,a5,48
 550 0172 9843     		lw	a4,0(a5)
 551              		.loc 1 235 34
 552 0174 B707000F 		li	a5,251658240
 553 0178 F98F     		and	a5,a4,a5
 554              		.loc 1 235 5
 555 017a A9E7     		bne	a5,zero,.L31
 556              	.LBB2:
 236:Drivers/src/ch32v20x_can.c ****   {
 237:Drivers/src/ch32v20x_can.c ****     uint32_t i;
 238:Drivers/src/ch32v20x_can.c **** 
 239:Drivers/src/ch32v20x_can.c ****     for(i = 0; i < 64; i++){
 557              		.loc 1 239 11
 558 017c 232604FE 		sw	zero,-20(s0)
 559              		.loc 1 239 5
 560 0180 25A8     		j	.L32
 561              	.L33:
 240:Drivers/src/ch32v20x_can.c ****         *(__IO uint16_t *)(0x40006000 + 512 + 4 * i) = *(__IO uint16_t *)(0x40006000 + 768 + 4 * i)
 562              		.loc 1 240 92 discriminator 3
 563 0182 0327C4FE 		lw	a4,-20(s0)
 564 0186 B7270010 		li	a5,268443648
 565 018a 9387078C 		addi	a5,a5,-1856
 566 018e BA97     		add	a5,a4,a5
 567 0190 8A07     		slli	a5,a5,2
 568              		.loc 1 240 57 discriminator 3
 569 0192 BE86     		mv	a3,a5
 570              		.loc 1 240 45 discriminator 3
 571 0194 0327C4FE 		lw	a4,-20(s0)
 572 0198 B7270010 		li	a5,268443648
 573 019c 93870788 		addi	a5,a5,-1920
 574 01a0 BA97     		add	a5,a4,a5
 575 01a2 8A07     		slli	a5,a5,2
 576              		.loc 1 240 10 discriminator 3
 577 01a4 3E87     		mv	a4,a5
 578              		.loc 1 240 56 discriminator 3
 579 01a6 9E22     		lhu	a5,0(a3)
 580 01a8 C207     		slli	a5,a5,16
 581 01aa C183     		srli	a5,a5,16
 582              		.loc 1 240 54 discriminator 3
 583 01ac 1EA3     		sh	a5,0(a4)
 239:Drivers/src/ch32v20x_can.c ****         *(__IO uint16_t *)(0x40006000 + 512 + 4 * i) = *(__IO uint16_t *)(0x40006000 + 768 + 4 * i)
 584              		.loc 1 239 25 discriminator 3
GAS LISTING C:\Users\SOLDER~1\AppData\Local\Temp\ccYCTqm0.s 			page 16


 585 01ae 8327C4FE 		lw	a5,-20(s0)
 586 01b2 8507     		addi	a5,a5,1
 587 01b4 2326F4FE 		sw	a5,-20(s0)
 588              	.L32:
 239:Drivers/src/ch32v20x_can.c ****         *(__IO uint16_t *)(0x40006000 + 512 + 4 * i) = *(__IO uint16_t *)(0x40006000 + 768 + 4 * i)
 589              		.loc 1 239 18 discriminator 1
 590 01b8 0327C4FE 		lw	a4,-20(s0)
 591 01bc 9307F003 		li	a5,63
 592 01c0 E3F1E7FC 		bleu	a4,a5,.L33
 593              	.L31:
 594              	.LBE2:
 241:Drivers/src/ch32v20x_can.c ****     }
 242:Drivers/src/ch32v20x_can.c ****   }
 243:Drivers/src/ch32v20x_can.c **** 
 244:Drivers/src/ch32v20x_can.c **** #endif
 245:Drivers/src/ch32v20x_can.c **** 
 246:Drivers/src/ch32v20x_can.c ****   if (CAN_FilterInitStruct->CAN_FilterMode == CAN_FilterMode_IdMask)
 595              		.loc 1 246 27
 596 01c4 8327C4FD 		lw	a5,-36(s0)
 597 01c8 BC37     		lbu	a5,11(a5)
 598              		.loc 1 246 6
 599 01ca 9DE3     		bne	a5,zero,.L34
 247:Drivers/src/ch32v20x_can.c ****   {
 248:Drivers/src/ch32v20x_can.c ****     CAN1->FMCFGR &= ~(uint32_t)filter_number_bit_pos;
 600              		.loc 1 248 9
 601 01cc B7670040 		li	a5,1073766400
 602 01d0 93870740 		addi	a5,a5,1024
 603 01d4 83A64720 		lw	a3,516(a5)
 604              		.loc 1 248 21
 605 01d8 832784FE 		lw	a5,-24(s0)
 606 01dc 13C7F7FF 		not	a4,a5
 607              		.loc 1 248 9
 608 01e0 B7670040 		li	a5,1073766400
 609 01e4 93870740 		addi	a5,a5,1024
 610              		.loc 1 248 18
 611 01e8 758F     		and	a4,a3,a4
 612 01ea 23A2E720 		sw	a4,516(a5)
 613 01ee 05A0     		j	.L35
 614              	.L34:
 249:Drivers/src/ch32v20x_can.c ****   }
 250:Drivers/src/ch32v20x_can.c ****   else 
 251:Drivers/src/ch32v20x_can.c ****   {
 252:Drivers/src/ch32v20x_can.c ****     CAN1->FMCFGR |= (uint32_t)filter_number_bit_pos;
 615              		.loc 1 252 9
 616 01f0 B7670040 		li	a5,1073766400
 617 01f4 93870740 		addi	a5,a5,1024
 618 01f8 83A64720 		lw	a3,516(a5)
 619 01fc B7670040 		li	a5,1073766400
 620 0200 93870740 		addi	a5,a5,1024
 621              		.loc 1 252 18
 622 0204 032784FE 		lw	a4,-24(s0)
 623 0208 558F     		or	a4,a3,a4
 624 020a 23A2E720 		sw	a4,516(a5)
 625              	.L35:
 253:Drivers/src/ch32v20x_can.c ****   }
 254:Drivers/src/ch32v20x_can.c **** 
 255:Drivers/src/ch32v20x_can.c ****   if (CAN_FilterInitStruct->CAN_FilterFIFOAssignment == CAN_Filter_FIFO0)
GAS LISTING C:\Users\SOLDER~1\AppData\Local\Temp\ccYCTqm0.s 			page 17


 626              		.loc 1 255 27
 627 020e 8327C4FD 		lw	a5,-36(s0)
 628 0212 9E27     		lhu	a5,8(a5)
 629              		.loc 1 255 6
 630 0214 95E3     		bne	a5,zero,.L36
 256:Drivers/src/ch32v20x_can.c ****   {
 257:Drivers/src/ch32v20x_can.c ****     CAN1->FAFIFOR &= ~(uint32_t)filter_number_bit_pos;
 631              		.loc 1 257 9
 632 0216 B7670040 		li	a5,1073766400
 633 021a 93870740 		addi	a5,a5,1024
 634 021e 83A64721 		lw	a3,532(a5)
 635              		.loc 1 257 22
 636 0222 832784FE 		lw	a5,-24(s0)
 637 0226 13C7F7FF 		not	a4,a5
 638              		.loc 1 257 9
 639 022a B7670040 		li	a5,1073766400
 640 022e 93870740 		addi	a5,a5,1024
 641              		.loc 1 257 19
 642 0232 758F     		and	a4,a3,a4
 643 0234 23AAE720 		sw	a4,532(a5)
 644              	.L36:
 258:Drivers/src/ch32v20x_can.c ****   }
 259:Drivers/src/ch32v20x_can.c **** 
 260:Drivers/src/ch32v20x_can.c ****   if (CAN_FilterInitStruct->CAN_FilterFIFOAssignment == CAN_Filter_FIFO1)
 645              		.loc 1 260 27
 646 0238 8327C4FD 		lw	a5,-36(s0)
 647 023c 9A27     		lhu	a4,8(a5)
 648              		.loc 1 260 6
 649 023e 8547     		li	a5,1
 650 0240 6311F702 		bne	a4,a5,.L37
 261:Drivers/src/ch32v20x_can.c ****   {
 262:Drivers/src/ch32v20x_can.c ****     CAN1->FAFIFOR |= (uint32_t)filter_number_bit_pos;
 651              		.loc 1 262 9
 652 0244 B7670040 		li	a5,1073766400
 653 0248 93870740 		addi	a5,a5,1024
 654 024c 83A64721 		lw	a3,532(a5)
 655 0250 B7670040 		li	a5,1073766400
 656 0254 93870740 		addi	a5,a5,1024
 657              		.loc 1 262 19
 658 0258 032784FE 		lw	a4,-24(s0)
 659 025c 558F     		or	a4,a3,a4
 660 025e 23AAE720 		sw	a4,532(a5)
 661              	.L37:
 263:Drivers/src/ch32v20x_can.c ****   }
 264:Drivers/src/ch32v20x_can.c ****   
 265:Drivers/src/ch32v20x_can.c ****   if (CAN_FilterInitStruct->CAN_FilterActivation == ENABLE)
 662              		.loc 1 265 27
 663 0262 8327C4FD 		lw	a5,-36(s0)
 664 0266 984B     		lw	a4,16(a5)
 665              		.loc 1 265 6
 666 0268 8547     		li	a5,1
 667 026a 6311F702 		bne	a4,a5,.L38
 266:Drivers/src/ch32v20x_can.c ****   {
 267:Drivers/src/ch32v20x_can.c ****     CAN1->FWR |= filter_number_bit_pos;
 668              		.loc 1 267 9
 669 026e B7670040 		li	a5,1073766400
 670 0272 93870740 		addi	a5,a5,1024
GAS LISTING C:\Users\SOLDER~1\AppData\Local\Temp\ccYCTqm0.s 			page 18


 671 0276 83A6C721 		lw	a3,540(a5)
 672 027a B7670040 		li	a5,1073766400
 673 027e 93870740 		addi	a5,a5,1024
 674              		.loc 1 267 15
 675 0282 032784FE 		lw	a4,-24(s0)
 676 0286 558F     		or	a4,a3,a4
 677 0288 23AEE720 		sw	a4,540(a5)
 678              	.L38:
 268:Drivers/src/ch32v20x_can.c ****   }
 269:Drivers/src/ch32v20x_can.c **** 
 270:Drivers/src/ch32v20x_can.c ****   CAN1->FCTLR &= ~FCTLR_FINIT;
 679              		.loc 1 270 7
 680 028c B7670040 		li	a5,1073766400
 681 0290 93870740 		addi	a5,a5,1024
 682 0294 03A70720 		lw	a4,512(a5)
 683 0298 B7670040 		li	a5,1073766400
 684 029c 93870740 		addi	a5,a5,1024
 685              		.loc 1 270 15
 686 02a0 799B     		andi	a4,a4,-2
 687 02a2 23A0E720 		sw	a4,512(a5)
 271:Drivers/src/ch32v20x_can.c **** }
 688              		.loc 1 271 1
 689 02a6 0100     		nop
 690 02a8 3254     		lw	s0,44(sp)
 691              		.cfi_restore 8
 692              		.cfi_def_cfa 2, 48
 693 02aa 4561     		addi	sp,sp,48
 694              		.cfi_def_cfa_offset 0
 695 02ac 8280     		jr	ra
 696              		.cfi_endproc
 697              	.LFE18:
 699              		.section	.text.CAN_StructInit,"ax",@progbits
 700              		.align	1
 701              		.globl	CAN_StructInit
 703              	CAN_StructInit:
 704              	.LFB19:
 272:Drivers/src/ch32v20x_can.c **** 
 273:Drivers/src/ch32v20x_can.c **** /*********************************************************************
 274:Drivers/src/ch32v20x_can.c ****  * @fn      CAN_StructInit
 275:Drivers/src/ch32v20x_can.c ****  *
 276:Drivers/src/ch32v20x_can.c ****  * @brief   Fills each CAN_InitStruct member with its default value.
 277:Drivers/src/ch32v20x_can.c ****  *
 278:Drivers/src/ch32v20x_can.c ****  * @param   CAN_InitStruct - pointer to a CAN_InitTypeDef structure which
 279:Drivers/src/ch32v20x_can.c ****  *        will be initialized.
 280:Drivers/src/ch32v20x_can.c ****  *
 281:Drivers/src/ch32v20x_can.c ****  * @return  none
 282:Drivers/src/ch32v20x_can.c ****  */
 283:Drivers/src/ch32v20x_can.c **** void CAN_StructInit(CAN_InitTypeDef* CAN_InitStruct)
 284:Drivers/src/ch32v20x_can.c **** {
 705              		.loc 1 284 1
 706              		.cfi_startproc
 707 0000 0111     		addi	sp,sp,-32
 708              		.cfi_def_cfa_offset 32
 709 0002 22CE     		sw	s0,28(sp)
 710              		.cfi_offset 8, -4
 711 0004 0010     		addi	s0,sp,32
 712              		.cfi_def_cfa 8, 0
GAS LISTING C:\Users\SOLDER~1\AppData\Local\Temp\ccYCTqm0.s 			page 19


 713 0006 2326A4FE 		sw	a0,-20(s0)
 285:Drivers/src/ch32v20x_can.c ****   CAN_InitStruct->CAN_TTCM = DISABLE;
 714              		.loc 1 285 28
 715 000a 8327C4FE 		lw	a5,-20(s0)
 716 000e 23A40700 		sw	zero,8(a5)
 286:Drivers/src/ch32v20x_can.c ****   CAN_InitStruct->CAN_ABOM = DISABLE;
 717              		.loc 1 286 28
 718 0012 8327C4FE 		lw	a5,-20(s0)
 719 0016 23A60700 		sw	zero,12(a5)
 287:Drivers/src/ch32v20x_can.c ****   CAN_InitStruct->CAN_AWUM = DISABLE;
 720              		.loc 1 287 28
 721 001a 8327C4FE 		lw	a5,-20(s0)
 722 001e 23A80700 		sw	zero,16(a5)
 288:Drivers/src/ch32v20x_can.c ****   CAN_InitStruct->CAN_NART = DISABLE;
 723              		.loc 1 288 28
 724 0022 8327C4FE 		lw	a5,-20(s0)
 725 0026 23AA0700 		sw	zero,20(a5)
 289:Drivers/src/ch32v20x_can.c ****   CAN_InitStruct->CAN_RFLM = DISABLE;
 726              		.loc 1 289 28
 727 002a 8327C4FE 		lw	a5,-20(s0)
 728 002e 23AC0700 		sw	zero,24(a5)
 290:Drivers/src/ch32v20x_can.c ****   CAN_InitStruct->CAN_TXFP = DISABLE;
 729              		.loc 1 290 28
 730 0032 8327C4FE 		lw	a5,-20(s0)
 731 0036 23AE0700 		sw	zero,28(a5)
 291:Drivers/src/ch32v20x_can.c ****   CAN_InitStruct->CAN_Mode = CAN_Mode_Normal;
 732              		.loc 1 291 28
 733 003a 8327C4FE 		lw	a5,-20(s0)
 734 003e 23810700 		sb	zero,2(a5)
 292:Drivers/src/ch32v20x_can.c ****   CAN_InitStruct->CAN_SJW = CAN_SJW_1tq;
 735              		.loc 1 292 27
 736 0042 8327C4FE 		lw	a5,-20(s0)
 737 0046 A3810700 		sb	zero,3(a5)
 293:Drivers/src/ch32v20x_can.c ****   CAN_InitStruct->CAN_BS1 = CAN_BS1_4tq;
 738              		.loc 1 293 27
 739 004a 8327C4FE 		lw	a5,-20(s0)
 740 004e 0D47     		li	a4,3
 741 0050 D8A3     		sb	a4,4(a5)
 294:Drivers/src/ch32v20x_can.c ****   CAN_InitStruct->CAN_BS2 = CAN_BS2_3tq;
 742              		.loc 1 294 27
 743 0052 8327C4FE 		lw	a5,-20(s0)
 744 0056 0947     		li	a4,2
 745 0058 D8B3     		sb	a4,5(a5)
 295:Drivers/src/ch32v20x_can.c ****   CAN_InitStruct->CAN_Prescaler = 1;
 746              		.loc 1 295 33
 747 005a 8327C4FE 		lw	a5,-20(s0)
 748 005e 0547     		li	a4,1
 749 0060 9AA3     		sh	a4,0(a5)
 296:Drivers/src/ch32v20x_can.c **** }
 750              		.loc 1 296 1
 751 0062 0100     		nop
 752 0064 7244     		lw	s0,28(sp)
 753              		.cfi_restore 8
 754              		.cfi_def_cfa 2, 32
 755 0066 0561     		addi	sp,sp,32
 756              		.cfi_def_cfa_offset 0
 757 0068 8280     		jr	ra
GAS LISTING C:\Users\SOLDER~1\AppData\Local\Temp\ccYCTqm0.s 			page 20


 758              		.cfi_endproc
 759              	.LFE19:
 761              		.section	.text.CAN_SlaveStartBank,"ax",@progbits
 762              		.align	1
 763              		.globl	CAN_SlaveStartBank
 765              	CAN_SlaveStartBank:
 766              	.LFB20:
 297:Drivers/src/ch32v20x_can.c **** 
 298:Drivers/src/ch32v20x_can.c **** /*********************************************************************
 299:Drivers/src/ch32v20x_can.c ****  * @fn      CAN_SlaveStartBank
 300:Drivers/src/ch32v20x_can.c ****  *
 301:Drivers/src/ch32v20x_can.c ****  * @brief   This function applies only to CH32 Connectivity line devices.
 302:Drivers/src/ch32v20x_can.c ****  *
 303:Drivers/src/ch32v20x_can.c ****  * @param   CAN_BankNumber - Select the start slave bank filter from 1..27.
 304:Drivers/src/ch32v20x_can.c ****  *
 305:Drivers/src/ch32v20x_can.c ****  * @return  none
 306:Drivers/src/ch32v20x_can.c ****  */
 307:Drivers/src/ch32v20x_can.c **** void CAN_SlaveStartBank(uint8_t CAN_BankNumber) 
 308:Drivers/src/ch32v20x_can.c **** {
 767              		.loc 1 308 1
 768              		.cfi_startproc
 769 0000 0111     		addi	sp,sp,-32
 770              		.cfi_def_cfa_offset 32
 771 0002 22CE     		sw	s0,28(sp)
 772              		.cfi_offset 8, -4
 773 0004 0010     		addi	s0,sp,32
 774              		.cfi_def_cfa 8, 0
 775 0006 AA87     		mv	a5,a0
 776 0008 A307F4FE 		sb	a5,-17(s0)
 309:Drivers/src/ch32v20x_can.c ****   CAN1->FCTLR |= FCTLR_FINIT;
 777              		.loc 1 309 7
 778 000c B7670040 		li	a5,1073766400
 779 0010 93870740 		addi	a5,a5,1024
 780 0014 03A70720 		lw	a4,512(a5)
 781 0018 B7670040 		li	a5,1073766400
 782 001c 93870740 		addi	a5,a5,1024
 783              		.loc 1 309 15
 784 0020 13671700 		ori	a4,a4,1
 785 0024 23A0E720 		sw	a4,512(a5)
 310:Drivers/src/ch32v20x_can.c ****   CAN1->FCTLR &= (uint32_t)0xFFFFC0F1 ;
 786              		.loc 1 310 7
 787 0028 B7670040 		li	a5,1073766400
 788 002c 93870740 		addi	a5,a5,1024
 789 0030 83A60720 		lw	a3,512(a5)
 790 0034 B7670040 		li	a5,1073766400
 791 0038 93870740 		addi	a5,a5,1024
 792              		.loc 1 310 15
 793 003c 7177     		li	a4,-16384
 794 003e 1307170F 		addi	a4,a4,241
 795 0042 758F     		and	a4,a3,a4
 796 0044 23A0E720 		sw	a4,512(a5)
 311:Drivers/src/ch32v20x_can.c ****   CAN1->FCTLR |= (uint32_t)(CAN_BankNumber)<<8;
 797              		.loc 1 311 7
 798 0048 B7670040 		li	a5,1073766400
 799 004c 93870740 		addi	a5,a5,1024
 800 0050 83A60720 		lw	a3,512(a5)
 801              		.loc 1 311 18
GAS LISTING C:\Users\SOLDER~1\AppData\Local\Temp\ccYCTqm0.s 			page 21


 802 0054 8347F4FE 		lbu	a5,-17(s0)
 803              		.loc 1 311 44
 804 0058 13978700 		slli	a4,a5,8
 805              		.loc 1 311 7
 806 005c B7670040 		li	a5,1073766400
 807 0060 93870740 		addi	a5,a5,1024
 808              		.loc 1 311 15
 809 0064 558F     		or	a4,a3,a4
 810 0066 23A0E720 		sw	a4,512(a5)
 312:Drivers/src/ch32v20x_can.c ****   CAN1->FCTLR &= ~FCTLR_FINIT;
 811              		.loc 1 312 7
 812 006a B7670040 		li	a5,1073766400
 813 006e 93870740 		addi	a5,a5,1024
 814 0072 03A70720 		lw	a4,512(a5)
 815 0076 B7670040 		li	a5,1073766400
 816 007a 93870740 		addi	a5,a5,1024
 817              		.loc 1 312 15
 818 007e 799B     		andi	a4,a4,-2
 819 0080 23A0E720 		sw	a4,512(a5)
 313:Drivers/src/ch32v20x_can.c **** }
 820              		.loc 1 313 1
 821 0084 0100     		nop
 822 0086 7244     		lw	s0,28(sp)
 823              		.cfi_restore 8
 824              		.cfi_def_cfa 2, 32
 825 0088 0561     		addi	sp,sp,32
 826              		.cfi_def_cfa_offset 0
 827 008a 8280     		jr	ra
 828              		.cfi_endproc
 829              	.LFE20:
 831              		.section	.text.CAN_DBGFreeze,"ax",@progbits
 832              		.align	1
 833              		.globl	CAN_DBGFreeze
 835              	CAN_DBGFreeze:
 836              	.LFB21:
 314:Drivers/src/ch32v20x_can.c **** 
 315:Drivers/src/ch32v20x_can.c **** /*********************************************************************
 316:Drivers/src/ch32v20x_can.c ****  * @fn      CAN_DBGFreeze
 317:Drivers/src/ch32v20x_can.c ****  *
 318:Drivers/src/ch32v20x_can.c ****  * @brief   Enables or disables the DBG Freeze for CAN.
 319:Drivers/src/ch32v20x_can.c ****  *
 320:Drivers/src/ch32v20x_can.c ****  * @param   CANx - where x can be 1 to select the CAN peripheral.
 321:Drivers/src/ch32v20x_can.c ****  *          NewState - ENABLE or DISABLE.
 322:Drivers/src/ch32v20x_can.c ****  *
 323:Drivers/src/ch32v20x_can.c ****  * @return  none
 324:Drivers/src/ch32v20x_can.c ****  */
 325:Drivers/src/ch32v20x_can.c **** void CAN_DBGFreeze(CAN_TypeDef* CANx, FunctionalState NewState)
 326:Drivers/src/ch32v20x_can.c **** {
 837              		.loc 1 326 1
 838              		.cfi_startproc
 839 0000 0111     		addi	sp,sp,-32
 840              		.cfi_def_cfa_offset 32
 841 0002 22CE     		sw	s0,28(sp)
 842              		.cfi_offset 8, -4
 843 0004 0010     		addi	s0,sp,32
 844              		.cfi_def_cfa 8, 0
 845 0006 2326A4FE 		sw	a0,-20(s0)
GAS LISTING C:\Users\SOLDER~1\AppData\Local\Temp\ccYCTqm0.s 			page 22


 846 000a 2324B4FE 		sw	a1,-24(s0)
 327:Drivers/src/ch32v20x_can.c ****   if (NewState != DISABLE)
 847              		.loc 1 327 6
 848 000e 832784FE 		lw	a5,-24(s0)
 849 0012 91CB     		beq	a5,zero,.L42
 328:Drivers/src/ch32v20x_can.c ****   {
 329:Drivers/src/ch32v20x_can.c ****     CANx->CTLR |= CTLR_DBF;
 850              		.loc 1 329 9
 851 0014 8327C4FE 		lw	a5,-20(s0)
 852 0018 9843     		lw	a4,0(a5)
 853              		.loc 1 329 16
 854 001a C167     		li	a5,65536
 855 001c 5D8F     		or	a4,a4,a5
 856 001e 8327C4FE 		lw	a5,-20(s0)
 857 0022 98C3     		sw	a4,0(a5)
 330:Drivers/src/ch32v20x_can.c ****   }
 331:Drivers/src/ch32v20x_can.c ****   else
 332:Drivers/src/ch32v20x_can.c ****   {
 333:Drivers/src/ch32v20x_can.c ****     CANx->CTLR &= ~CTLR_DBF;
 334:Drivers/src/ch32v20x_can.c ****   }
 335:Drivers/src/ch32v20x_can.c **** }
 858              		.loc 1 335 1
 859 0024 11A8     		j	.L44
 860              	.L42:
 333:Drivers/src/ch32v20x_can.c ****   }
 861              		.loc 1 333 9
 862 0026 8327C4FE 		lw	a5,-20(s0)
 863 002a 9843     		lw	a4,0(a5)
 333:Drivers/src/ch32v20x_can.c ****   }
 864              		.loc 1 333 16
 865 002c C177     		li	a5,-65536
 866 002e FD17     		addi	a5,a5,-1
 867 0030 7D8F     		and	a4,a4,a5
 868 0032 8327C4FE 		lw	a5,-20(s0)
 869 0036 98C3     		sw	a4,0(a5)
 870              	.L44:
 871              		.loc 1 335 1
 872 0038 0100     		nop
 873 003a 7244     		lw	s0,28(sp)
 874              		.cfi_restore 8
 875              		.cfi_def_cfa 2, 32
 876 003c 0561     		addi	sp,sp,32
 877              		.cfi_def_cfa_offset 0
 878 003e 8280     		jr	ra
 879              		.cfi_endproc
 880              	.LFE21:
 882              		.section	.text.CAN_TTComModeCmd,"ax",@progbits
 883              		.align	1
 884              		.globl	CAN_TTComModeCmd
 886              	CAN_TTComModeCmd:
 887              	.LFB22:
 336:Drivers/src/ch32v20x_can.c **** 
 337:Drivers/src/ch32v20x_can.c **** /*********************************************************************
 338:Drivers/src/ch32v20x_can.c ****  * @fn      CAN_TTComModeCmd
 339:Drivers/src/ch32v20x_can.c ****  *
 340:Drivers/src/ch32v20x_can.c ****  * @brief   Enables or disabes the CAN Time TriggerOperation communication mode.
 341:Drivers/src/ch32v20x_can.c ****  *
GAS LISTING C:\Users\SOLDER~1\AppData\Local\Temp\ccYCTqm0.s 			page 23


 342:Drivers/src/ch32v20x_can.c ****  * @param   CANx - where x can be 1 to select the CAN peripheral.
 343:Drivers/src/ch32v20x_can.c ****  *          NewState - ENABLE or DISABLE.
 344:Drivers/src/ch32v20x_can.c ****  *          Note-
 345:Drivers/src/ch32v20x_can.c ****  *          DLC must be programmed as 8 in order Time Stamp (2 bytes) to be 
 346:Drivers/src/ch32v20x_can.c ****  *          sent over the CAN bus. 
 347:Drivers/src/ch32v20x_can.c ****  *
 348:Drivers/src/ch32v20x_can.c ****  * @return  none
 349:Drivers/src/ch32v20x_can.c ****  */
 350:Drivers/src/ch32v20x_can.c **** void CAN_TTComModeCmd(CAN_TypeDef* CANx, FunctionalState NewState)
 351:Drivers/src/ch32v20x_can.c **** {
 888              		.loc 1 351 1
 889              		.cfi_startproc
 890 0000 0111     		addi	sp,sp,-32
 891              		.cfi_def_cfa_offset 32
 892 0002 22CE     		sw	s0,28(sp)
 893              		.cfi_offset 8, -4
 894 0004 0010     		addi	s0,sp,32
 895              		.cfi_def_cfa 8, 0
 896 0006 2326A4FE 		sw	a0,-20(s0)
 897 000a 2324B4FE 		sw	a1,-24(s0)
 352:Drivers/src/ch32v20x_can.c ****   if (NewState != DISABLE)
 898              		.loc 1 352 6
 899 000e 832784FE 		lw	a5,-24(s0)
 900 0012 A1CB     		beq	a5,zero,.L46
 353:Drivers/src/ch32v20x_can.c ****   {
 354:Drivers/src/ch32v20x_can.c ****     CANx->CTLR |= CAN_CTLR_TTCM;
 901              		.loc 1 354 9
 902 0014 8327C4FE 		lw	a5,-20(s0)
 903 0018 9C43     		lw	a5,0(a5)
 904              		.loc 1 354 16
 905 001a 13E70708 		ori	a4,a5,128
 906 001e 8327C4FE 		lw	a5,-20(s0)
 907 0022 98C3     		sw	a4,0(a5)
 355:Drivers/src/ch32v20x_can.c **** 
 356:Drivers/src/ch32v20x_can.c ****     CANx->sTxMailBox[0].TXMDTR |= ((uint32_t)CAN_TXMDT0R_TGT);
 908              		.loc 1 356 24
 909 0024 8327C4FE 		lw	a5,-20(s0)
 910 0028 83A74718 		lw	a5,388(a5)
 911              		.loc 1 356 32
 912 002c 13E70710 		ori	a4,a5,256
 913 0030 8327C4FE 		lw	a5,-20(s0)
 914 0034 23A2E718 		sw	a4,388(a5)
 357:Drivers/src/ch32v20x_can.c ****     CANx->sTxMailBox[1].TXMDTR |= ((uint32_t)CAN_TXMDT1R_TGT);
 915              		.loc 1 357 24
 916 0038 8327C4FE 		lw	a5,-20(s0)
 917 003c 83A74719 		lw	a5,404(a5)
 918              		.loc 1 357 32
 919 0040 13E70710 		ori	a4,a5,256
 920 0044 8327C4FE 		lw	a5,-20(s0)
 921 0048 23AAE718 		sw	a4,404(a5)
 358:Drivers/src/ch32v20x_can.c ****     CANx->sTxMailBox[2].TXMDTR |= ((uint32_t)CAN_TXMDT2R_TGT);
 922              		.loc 1 358 24
 923 004c 8327C4FE 		lw	a5,-20(s0)
 924 0050 83A7471A 		lw	a5,420(a5)
 925              		.loc 1 358 32
 926 0054 13E70710 		ori	a4,a5,256
 927 0058 8327C4FE 		lw	a5,-20(s0)
GAS LISTING C:\Users\SOLDER~1\AppData\Local\Temp\ccYCTqm0.s 			page 24


 928 005c 23A2E71A 		sw	a4,420(a5)
 359:Drivers/src/ch32v20x_can.c ****   }
 360:Drivers/src/ch32v20x_can.c ****   else
 361:Drivers/src/ch32v20x_can.c ****   {
 362:Drivers/src/ch32v20x_can.c ****     CANx->CTLR &= (uint32_t)(~(uint32_t)CAN_CTLR_TTCM);
 363:Drivers/src/ch32v20x_can.c **** 
 364:Drivers/src/ch32v20x_can.c ****     CANx->sTxMailBox[0].TXMDTR &= ((uint32_t)~CAN_TXMDT0R_TGT);
 365:Drivers/src/ch32v20x_can.c ****     CANx->sTxMailBox[1].TXMDTR &= ((uint32_t)~CAN_TXMDT1R_TGT);
 366:Drivers/src/ch32v20x_can.c ****     CANx->sTxMailBox[2].TXMDTR &= ((uint32_t)~CAN_TXMDT2R_TGT);
 367:Drivers/src/ch32v20x_can.c ****   }
 368:Drivers/src/ch32v20x_can.c **** }
 929              		.loc 1 368 1
 930 0060 B9A0     		j	.L48
 931              	.L46:
 362:Drivers/src/ch32v20x_can.c **** 
 932              		.loc 1 362 9
 933 0062 8327C4FE 		lw	a5,-20(s0)
 934 0066 9C43     		lw	a5,0(a5)
 362:Drivers/src/ch32v20x_can.c **** 
 935              		.loc 1 362 16
 936 0068 13F7F7F7 		andi	a4,a5,-129
 937 006c 8327C4FE 		lw	a5,-20(s0)
 938 0070 98C3     		sw	a4,0(a5)
 364:Drivers/src/ch32v20x_can.c ****     CANx->sTxMailBox[1].TXMDTR &= ((uint32_t)~CAN_TXMDT1R_TGT);
 939              		.loc 1 364 24
 940 0072 8327C4FE 		lw	a5,-20(s0)
 941 0076 83A74718 		lw	a5,388(a5)
 364:Drivers/src/ch32v20x_can.c ****     CANx->sTxMailBox[1].TXMDTR &= ((uint32_t)~CAN_TXMDT1R_TGT);
 942              		.loc 1 364 32
 943 007a 13F7F7EF 		andi	a4,a5,-257
 944 007e 8327C4FE 		lw	a5,-20(s0)
 945 0082 23A2E718 		sw	a4,388(a5)
 365:Drivers/src/ch32v20x_can.c ****     CANx->sTxMailBox[2].TXMDTR &= ((uint32_t)~CAN_TXMDT2R_TGT);
 946              		.loc 1 365 24
 947 0086 8327C4FE 		lw	a5,-20(s0)
 948 008a 83A74719 		lw	a5,404(a5)
 365:Drivers/src/ch32v20x_can.c ****     CANx->sTxMailBox[2].TXMDTR &= ((uint32_t)~CAN_TXMDT2R_TGT);
 949              		.loc 1 365 32
 950 008e 13F7F7EF 		andi	a4,a5,-257
 951 0092 8327C4FE 		lw	a5,-20(s0)
 952 0096 23AAE718 		sw	a4,404(a5)
 366:Drivers/src/ch32v20x_can.c ****   }
 953              		.loc 1 366 24
 954 009a 8327C4FE 		lw	a5,-20(s0)
 955 009e 83A7471A 		lw	a5,420(a5)
 366:Drivers/src/ch32v20x_can.c ****   }
 956              		.loc 1 366 32
 957 00a2 13F7F7EF 		andi	a4,a5,-257
 958 00a6 8327C4FE 		lw	a5,-20(s0)
 959 00aa 23A2E71A 		sw	a4,420(a5)
 960              	.L48:
 961              		.loc 1 368 1
 962 00ae 0100     		nop
 963 00b0 7244     		lw	s0,28(sp)
 964              		.cfi_restore 8
 965              		.cfi_def_cfa 2, 32
 966 00b2 0561     		addi	sp,sp,32
GAS LISTING C:\Users\SOLDER~1\AppData\Local\Temp\ccYCTqm0.s 			page 25


 967              		.cfi_def_cfa_offset 0
 968 00b4 8280     		jr	ra
 969              		.cfi_endproc
 970              	.LFE22:
 972              		.section	.text.CAN_Transmit,"ax",@progbits
 973              		.align	1
 974              		.globl	CAN_Transmit
 976              	CAN_Transmit:
 977              	.LFB23:
 369:Drivers/src/ch32v20x_can.c **** 
 370:Drivers/src/ch32v20x_can.c **** /*********************************************************************
 371:Drivers/src/ch32v20x_can.c ****  * @fn      CAN_Transmit
 372:Drivers/src/ch32v20x_can.c ****  *
 373:Drivers/src/ch32v20x_can.c ****  * @brief   Initiates the transmission of a message.
 374:Drivers/src/ch32v20x_can.c ****  *
 375:Drivers/src/ch32v20x_can.c ****  * @param   CANx - where x can be 1 to select the CAN peripheral.
 376:Drivers/src/ch32v20x_can.c ****  *          TxMessage - pointer to a structure which contains CAN Id, CAN
 377:Drivers/src/ch32v20x_can.c ****  *        DLC and CAN data.
 378:Drivers/src/ch32v20x_can.c ****  *
 379:Drivers/src/ch32v20x_can.c ****  * @return  transmit_mailbox - The number of the mailbox that is used for
 380:Drivers/src/ch32v20x_can.c ****  *        transmission or CAN_TxStatus_NoMailBox if there is no empty mailbox.
 381:Drivers/src/ch32v20x_can.c ****  */
 382:Drivers/src/ch32v20x_can.c **** uint8_t CAN_Transmit(CAN_TypeDef* CANx, CanTxMsg* TxMessage)
 383:Drivers/src/ch32v20x_can.c **** {
 978              		.loc 1 383 1
 979              		.cfi_startproc
 980 0000 7971     		addi	sp,sp,-48
 981              		.cfi_def_cfa_offset 48
 982 0002 22D6     		sw	s0,44(sp)
 983              		.cfi_offset 8, -4
 984 0004 0018     		addi	s0,sp,48
 985              		.cfi_def_cfa 8, 0
 986 0006 232EA4FC 		sw	a0,-36(s0)
 987 000a 232CB4FC 		sw	a1,-40(s0)
 384:Drivers/src/ch32v20x_can.c ****   uint8_t transmit_mailbox = 0;
 988              		.loc 1 384 11
 989 000e A30704FE 		sb	zero,-17(s0)
 385:Drivers/src/ch32v20x_can.c **** 
 386:Drivers/src/ch32v20x_can.c ****   if ((CANx->TSTATR&CAN_TSTATR_TME0) == CAN_TSTATR_TME0)
 990              		.loc 1 386 12
 991 0012 8327C4FD 		lw	a5,-36(s0)
 992 0016 9847     		lw	a4,8(a5)
 993              		.loc 1 386 20
 994 0018 B7070004 		li	a5,67108864
 995 001c 7D8F     		and	a4,a4,a5
 996              		.loc 1 386 6
 997 001e B7070004 		li	a5,67108864
 998 0022 6315F700 		bne	a4,a5,.L50
 387:Drivers/src/ch32v20x_can.c ****   {
 388:Drivers/src/ch32v20x_can.c ****     transmit_mailbox = 0;
 999              		.loc 1 388 22
 1000 0026 A30704FE 		sb	zero,-17(s0)
 1001 002a 81A0     		j	.L51
 1002              	.L50:
 389:Drivers/src/ch32v20x_can.c ****   }
 390:Drivers/src/ch32v20x_can.c ****   else if ((CANx->TSTATR&CAN_TSTATR_TME1) == CAN_TSTATR_TME1)
 1003              		.loc 1 390 17
GAS LISTING C:\Users\SOLDER~1\AppData\Local\Temp\ccYCTqm0.s 			page 26


 1004 002c 8327C4FD 		lw	a5,-36(s0)
 1005 0030 9847     		lw	a4,8(a5)
 1006              		.loc 1 390 25
 1007 0032 B7070008 		li	a5,134217728
 1008 0036 7D8F     		and	a4,a4,a5
 1009              		.loc 1 390 11
 1010 0038 B7070008 		li	a5,134217728
 1011 003c 6316F700 		bne	a4,a5,.L52
 391:Drivers/src/ch32v20x_can.c ****   {
 392:Drivers/src/ch32v20x_can.c ****     transmit_mailbox = 1;
 1012              		.loc 1 392 22
 1013 0040 8547     		li	a5,1
 1014 0042 A307F4FE 		sb	a5,-17(s0)
 1015 0046 15A0     		j	.L51
 1016              	.L52:
 393:Drivers/src/ch32v20x_can.c ****   }
 394:Drivers/src/ch32v20x_can.c ****   else if ((CANx->TSTATR&CAN_TSTATR_TME2) == CAN_TSTATR_TME2)
 1017              		.loc 1 394 17
 1018 0048 8327C4FD 		lw	a5,-36(s0)
 1019 004c 9847     		lw	a4,8(a5)
 1020              		.loc 1 394 25
 1021 004e B7070010 		li	a5,268435456
 1022 0052 7D8F     		and	a4,a4,a5
 1023              		.loc 1 394 11
 1024 0054 B7070010 		li	a5,268435456
 1025 0058 6316F700 		bne	a4,a5,.L53
 395:Drivers/src/ch32v20x_can.c ****   {
 396:Drivers/src/ch32v20x_can.c ****     transmit_mailbox = 2;
 1026              		.loc 1 396 22
 1027 005c 8947     		li	a5,2
 1028 005e A307F4FE 		sb	a5,-17(s0)
 1029 0062 21A0     		j	.L51
 1030              	.L53:
 397:Drivers/src/ch32v20x_can.c ****   }
 398:Drivers/src/ch32v20x_can.c ****   else
 399:Drivers/src/ch32v20x_can.c ****   {
 400:Drivers/src/ch32v20x_can.c ****     transmit_mailbox = CAN_TxStatus_NoMailBox;
 1031              		.loc 1 400 22
 1032 0064 9147     		li	a5,4
 1033 0066 A307F4FE 		sb	a5,-17(s0)
 1034              	.L51:
 401:Drivers/src/ch32v20x_can.c ****   }
 402:Drivers/src/ch32v20x_can.c **** 
 403:Drivers/src/ch32v20x_can.c ****   if (transmit_mailbox != CAN_TxStatus_NoMailBox)
 1035              		.loc 1 403 6
 1036 006a 0347F4FE 		lbu	a4,-17(s0)
 1037 006e 9147     		li	a5,4
 1038 0070 6307F718 		beq	a4,a5,.L54
 404:Drivers/src/ch32v20x_can.c ****   {
 405:Drivers/src/ch32v20x_can.c ****     CANx->sTxMailBox[transmit_mailbox].TXMIR &= TMIDxR_TXRQ;
 1039              		.loc 1 405 39
 1040 0074 8347F4FE 		lbu	a5,-17(s0)
 1041 0078 0327C4FD 		lw	a4,-36(s0)
 1042 007c E107     		addi	a5,a5,24
 1043 007e 9207     		slli	a5,a5,4
 1044 0080 BA97     		add	a5,a4,a5
 1045 0082 9843     		lw	a4,0(a5)
GAS LISTING C:\Users\SOLDER~1\AppData\Local\Temp\ccYCTqm0.s 			page 27


 1046 0084 8347F4FE 		lbu	a5,-17(s0)
 1047              		.loc 1 405 46
 1048 0088 058B     		andi	a4,a4,1
 1049 008a 8326C4FD 		lw	a3,-36(s0)
 1050 008e E107     		addi	a5,a5,24
 1051 0090 9207     		slli	a5,a5,4
 1052 0092 B697     		add	a5,a3,a5
 1053 0094 98C3     		sw	a4,0(a5)
 406:Drivers/src/ch32v20x_can.c ****     if (TxMessage->IDE == CAN_Id_Standard)
 1054              		.loc 1 406 18
 1055 0096 832784FD 		lw	a5,-40(s0)
 1056 009a 9C27     		lbu	a5,8(a5)
 1057              		.loc 1 406 8
 1058 009c 9DEB     		bne	a5,zero,.L55
 407:Drivers/src/ch32v20x_can.c ****     {
 408:Drivers/src/ch32v20x_can.c ****       CANx->sTxMailBox[transmit_mailbox].TXMIR |= ((TxMessage->StdId << 21) | \
 1059              		.loc 1 408 41
 1060 009e 8347F4FE 		lbu	a5,-17(s0)
 1061 00a2 0327C4FD 		lw	a4,-36(s0)
 1062 00a6 E107     		addi	a5,a5,24
 1063 00a8 9207     		slli	a5,a5,4
 1064 00aa BA97     		add	a5,a4,a5
 1065 00ac 9443     		lw	a3,0(a5)
 1066              		.loc 1 408 62
 1067 00ae 832784FD 		lw	a5,-40(s0)
 1068 00b2 9C43     		lw	a5,0(a5)
 1069              		.loc 1 408 70
 1070 00b4 D607     		slli	a5,a5,21
 409:Drivers/src/ch32v20x_can.c ****                                                   TxMessage->RTR);
 1071              		.loc 1 409 60
 1072 00b6 032784FD 		lw	a4,-40(s0)
 1073 00ba 1837     		lbu	a4,9(a4)
 408:Drivers/src/ch32v20x_can.c ****                                                   TxMessage->RTR);
 1074              		.loc 1 408 77
 1075 00bc 5D8F     		or	a4,a5,a4
 408:Drivers/src/ch32v20x_can.c ****                                                   TxMessage->RTR);
 1076              		.loc 1 408 41
 1077 00be 8347F4FE 		lbu	a5,-17(s0)
 408:Drivers/src/ch32v20x_can.c ****                                                   TxMessage->RTR);
 1078              		.loc 1 408 48
 1079 00c2 558F     		or	a4,a3,a4
 1080 00c4 8326C4FD 		lw	a3,-36(s0)
 1081 00c8 E107     		addi	a5,a5,24
 1082 00ca 9207     		slli	a5,a5,4
 1083 00cc B697     		add	a5,a3,a5
 1084 00ce 98C3     		sw	a4,0(a5)
 1085 00d0 35A8     		j	.L56
 1086              	.L55:
 410:Drivers/src/ch32v20x_can.c ****     }
 411:Drivers/src/ch32v20x_can.c ****     else
 412:Drivers/src/ch32v20x_can.c ****     {
 413:Drivers/src/ch32v20x_can.c ****       CANx->sTxMailBox[transmit_mailbox].TXMIR |= ((TxMessage->ExtId << 3) | \
 1087              		.loc 1 413 41
 1088 00d2 8347F4FE 		lbu	a5,-17(s0)
 1089 00d6 0327C4FD 		lw	a4,-36(s0)
 1090 00da E107     		addi	a5,a5,24
 1091 00dc 9207     		slli	a5,a5,4
GAS LISTING C:\Users\SOLDER~1\AppData\Local\Temp\ccYCTqm0.s 			page 28


 1092 00de BA97     		add	a5,a4,a5
 1093 00e0 9443     		lw	a3,0(a5)
 1094              		.loc 1 413 62
 1095 00e2 832784FD 		lw	a5,-40(s0)
 1096 00e6 DC43     		lw	a5,4(a5)
 1097              		.loc 1 413 70
 1098 00e8 8E07     		slli	a5,a5,3
 414:Drivers/src/ch32v20x_can.c ****                                                   TxMessage->IDE | \
 1099              		.loc 1 414 60
 1100 00ea 032784FD 		lw	a4,-40(s0)
 1101 00ee 1827     		lbu	a4,8(a4)
 413:Drivers/src/ch32v20x_can.c ****                                                   TxMessage->IDE | \
 1102              		.loc 1 413 76
 1103 00f0 D98F     		or	a5,a5,a4
 415:Drivers/src/ch32v20x_can.c ****                                                   TxMessage->RTR);
 1104              		.loc 1 415 60
 1105 00f2 032784FD 		lw	a4,-40(s0)
 1106 00f6 1837     		lbu	a4,9(a4)
 414:Drivers/src/ch32v20x_can.c ****                                                   TxMessage->IDE | \
 1107              		.loc 1 414 66
 1108 00f8 5D8F     		or	a4,a5,a4
 413:Drivers/src/ch32v20x_can.c ****                                                   TxMessage->IDE | \
 1109              		.loc 1 413 41
 1110 00fa 8347F4FE 		lbu	a5,-17(s0)
 413:Drivers/src/ch32v20x_can.c ****                                                   TxMessage->IDE | \
 1111              		.loc 1 413 48
 1112 00fe 558F     		or	a4,a3,a4
 1113 0100 8326C4FD 		lw	a3,-36(s0)
 1114 0104 E107     		addi	a5,a5,24
 1115 0106 9207     		slli	a5,a5,4
 1116 0108 B697     		add	a5,a3,a5
 1117 010a 98C3     		sw	a4,0(a5)
 1118              	.L56:
 416:Drivers/src/ch32v20x_can.c ****     }
 417:Drivers/src/ch32v20x_can.c ****     
 418:Drivers/src/ch32v20x_can.c ****     TxMessage->DLC &= (uint8_t)0x0000000F;
 1119              		.loc 1 418 14
 1120 010c 832784FD 		lw	a5,-40(s0)
 1121 0110 BC27     		lbu	a5,10(a5)
 1122              		.loc 1 418 20
 1123 0112 BD8B     		andi	a5,a5,15
 1124 0114 13F7F70F 		andi	a4,a5,0xff
 1125 0118 832784FD 		lw	a5,-40(s0)
 1126 011c B8A7     		sb	a4,10(a5)
 419:Drivers/src/ch32v20x_can.c ****     CANx->sTxMailBox[transmit_mailbox].TXMDTR &= (uint32_t)0xFFFFFFF0;
 1127              		.loc 1 419 39
 1128 011e 8347F4FE 		lbu	a5,-17(s0)
 1129 0122 0327C4FD 		lw	a4,-36(s0)
 1130 0126 E107     		addi	a5,a5,24
 1131 0128 9207     		slli	a5,a5,4
 1132 012a BA97     		add	a5,a4,a5
 1133 012c D843     		lw	a4,4(a5)
 1134 012e 8347F4FE 		lbu	a5,-17(s0)
 1135              		.loc 1 419 47
 1136 0132 419B     		andi	a4,a4,-16
 1137 0134 8326C4FD 		lw	a3,-36(s0)
 1138 0138 E107     		addi	a5,a5,24
GAS LISTING C:\Users\SOLDER~1\AppData\Local\Temp\ccYCTqm0.s 			page 29


 1139 013a 9207     		slli	a5,a5,4
 1140 013c B697     		add	a5,a3,a5
 1141 013e D8C3     		sw	a4,4(a5)
 420:Drivers/src/ch32v20x_can.c ****     CANx->sTxMailBox[transmit_mailbox].TXMDTR |= TxMessage->DLC;
 1142              		.loc 1 420 39
 1143 0140 8347F4FE 		lbu	a5,-17(s0)
 1144 0144 0327C4FD 		lw	a4,-36(s0)
 1145 0148 E107     		addi	a5,a5,24
 1146 014a 9207     		slli	a5,a5,4
 1147 014c BA97     		add	a5,a4,a5
 1148 014e D843     		lw	a4,4(a5)
 1149              		.loc 1 420 59
 1150 0150 832784FD 		lw	a5,-40(s0)
 1151 0154 BC27     		lbu	a5,10(a5)
 1152 0156 BE86     		mv	a3,a5
 1153              		.loc 1 420 39
 1154 0158 8347F4FE 		lbu	a5,-17(s0)
 1155              		.loc 1 420 47
 1156 015c 558F     		or	a4,a4,a3
 1157 015e 8326C4FD 		lw	a3,-36(s0)
 1158 0162 E107     		addi	a5,a5,24
 1159 0164 9207     		slli	a5,a5,4
 1160 0166 B697     		add	a5,a3,a5
 1161 0168 D8C3     		sw	a4,4(a5)
 421:Drivers/src/ch32v20x_can.c **** 
 422:Drivers/src/ch32v20x_can.c ****     CANx->sTxMailBox[transmit_mailbox].TXMDLR = (((uint32_t)TxMessage->Data[3] << 24) | 
 1162              		.loc 1 422 76
 1163 016a 832784FD 		lw	a5,-40(s0)
 1164 016e FC27     		lbu	a5,14(a5)
 1165              		.loc 1 422 80
 1166 0170 13978701 		slli	a4,a5,24
 423:Drivers/src/ch32v20x_can.c ****                                              ((uint32_t)TxMessage->Data[2] << 16) |
 1167              		.loc 1 423 72
 1168 0174 832784FD 		lw	a5,-40(s0)
 1169 0178 DC37     		lbu	a5,13(a5)
 1170              		.loc 1 423 76
 1171 017a C207     		slli	a5,a5,16
 422:Drivers/src/ch32v20x_can.c ****                                              ((uint32_t)TxMessage->Data[2] << 16) |
 1172              		.loc 1 422 87
 1173 017c 5D8F     		or	a4,a4,a5
 424:Drivers/src/ch32v20x_can.c ****                                              ((uint32_t)TxMessage->Data[1] << 8) | 
 1174              		.loc 1 424 72
 1175 017e 832784FD 		lw	a5,-40(s0)
 1176 0182 DC27     		lbu	a5,12(a5)
 1177              		.loc 1 424 76
 1178 0184 A207     		slli	a5,a5,8
 423:Drivers/src/ch32v20x_can.c ****                                              ((uint32_t)TxMessage->Data[2] << 16) |
 1179              		.loc 1 423 83
 1180 0186 5D8F     		or	a4,a4,a5
 425:Drivers/src/ch32v20x_can.c ****                                              ((uint32_t)TxMessage->Data[0]));
 1181              		.loc 1 425 72
 1182 0188 832784FD 		lw	a5,-40(s0)
 1183 018c BC37     		lbu	a5,11(a5)
 1184              		.loc 1 425 47
 1185 018e BE86     		mv	a3,a5
 422:Drivers/src/ch32v20x_can.c ****                                              ((uint32_t)TxMessage->Data[2] << 16) |
 1186              		.loc 1 422 39
GAS LISTING C:\Users\SOLDER~1\AppData\Local\Temp\ccYCTqm0.s 			page 30


 1187 0190 8347F4FE 		lbu	a5,-17(s0)
 424:Drivers/src/ch32v20x_can.c ****                                              ((uint32_t)TxMessage->Data[1] << 8) | 
 1188              		.loc 1 424 82
 1189 0194 558F     		or	a4,a4,a3
 422:Drivers/src/ch32v20x_can.c ****                                              ((uint32_t)TxMessage->Data[2] << 16) |
 1190              		.loc 1 422 47
 1191 0196 8326C4FD 		lw	a3,-36(s0)
 1192 019a E107     		addi	a5,a5,24
 1193 019c 9207     		slli	a5,a5,4
 1194 019e B697     		add	a5,a3,a5
 1195 01a0 98C7     		sw	a4,8(a5)
 426:Drivers/src/ch32v20x_can.c ****     CANx->sTxMailBox[transmit_mailbox].TXMDHR = (((uint32_t)TxMessage->Data[7] << 24) | 
 1196              		.loc 1 426 76
 1197 01a2 832784FD 		lw	a5,-40(s0)
 1198 01a6 BC2B     		lbu	a5,18(a5)
 1199              		.loc 1 426 80
 1200 01a8 13978701 		slli	a4,a5,24
 427:Drivers/src/ch32v20x_can.c ****                                              ((uint32_t)TxMessage->Data[6] << 16) |
 1201              		.loc 1 427 72
 1202 01ac 832784FD 		lw	a5,-40(s0)
 1203 01b0 9C3B     		lbu	a5,17(a5)
 1204              		.loc 1 427 76
 1205 01b2 C207     		slli	a5,a5,16
 426:Drivers/src/ch32v20x_can.c ****     CANx->sTxMailBox[transmit_mailbox].TXMDHR = (((uint32_t)TxMessage->Data[7] << 24) | 
 1206              		.loc 1 426 87
 1207 01b4 5D8F     		or	a4,a4,a5
 428:Drivers/src/ch32v20x_can.c ****                                              ((uint32_t)TxMessage->Data[5] << 8) |
 1208              		.loc 1 428 72
 1209 01b6 832784FD 		lw	a5,-40(s0)
 1210 01ba 9C2B     		lbu	a5,16(a5)
 1211              		.loc 1 428 76
 1212 01bc A207     		slli	a5,a5,8
 427:Drivers/src/ch32v20x_can.c ****                                              ((uint32_t)TxMessage->Data[6] << 16) |
 1213              		.loc 1 427 83
 1214 01be 5D8F     		or	a4,a4,a5
 429:Drivers/src/ch32v20x_can.c ****                                              ((uint32_t)TxMessage->Data[4]));
 1215              		.loc 1 429 72
 1216 01c0 832784FD 		lw	a5,-40(s0)
 1217 01c4 FC37     		lbu	a5,15(a5)
 1218              		.loc 1 429 47
 1219 01c6 BE86     		mv	a3,a5
 426:Drivers/src/ch32v20x_can.c ****                                              ((uint32_t)TxMessage->Data[6] << 16) |
 1220              		.loc 1 426 39
 1221 01c8 8347F4FE 		lbu	a5,-17(s0)
 428:Drivers/src/ch32v20x_can.c ****                                              ((uint32_t)TxMessage->Data[5] << 8) |
 1222              		.loc 1 428 82
 1223 01cc 558F     		or	a4,a4,a3
 426:Drivers/src/ch32v20x_can.c ****                                              ((uint32_t)TxMessage->Data[6] << 16) |
 1224              		.loc 1 426 47
 1225 01ce 8326C4FD 		lw	a3,-36(s0)
 1226 01d2 E107     		addi	a5,a5,24
 1227 01d4 9207     		slli	a5,a5,4
 1228 01d6 B697     		add	a5,a3,a5
 1229 01d8 D8C7     		sw	a4,12(a5)
 430:Drivers/src/ch32v20x_can.c ****     CANx->sTxMailBox[transmit_mailbox].TXMIR |= TMIDxR_TXRQ;
 1230              		.loc 1 430 39
 1231 01da 8347F4FE 		lbu	a5,-17(s0)
GAS LISTING C:\Users\SOLDER~1\AppData\Local\Temp\ccYCTqm0.s 			page 31


 1232 01de 0327C4FD 		lw	a4,-36(s0)
 1233 01e2 E107     		addi	a5,a5,24
 1234 01e4 9207     		slli	a5,a5,4
 1235 01e6 BA97     		add	a5,a4,a5
 1236 01e8 9843     		lw	a4,0(a5)
 1237 01ea 8347F4FE 		lbu	a5,-17(s0)
 1238              		.loc 1 430 46
 1239 01ee 13671700 		ori	a4,a4,1
 1240 01f2 8326C4FD 		lw	a3,-36(s0)
 1241 01f6 E107     		addi	a5,a5,24
 1242 01f8 9207     		slli	a5,a5,4
 1243 01fa B697     		add	a5,a3,a5
 1244 01fc 98C3     		sw	a4,0(a5)
 1245              	.L54:
 431:Drivers/src/ch32v20x_can.c ****   }
 432:Drivers/src/ch32v20x_can.c **** 	
 433:Drivers/src/ch32v20x_can.c ****   return transmit_mailbox;
 1246              		.loc 1 433 10
 1247 01fe 8347F4FE 		lbu	a5,-17(s0)
 434:Drivers/src/ch32v20x_can.c **** }
 1248              		.loc 1 434 1
 1249 0202 3E85     		mv	a0,a5
 1250 0204 3254     		lw	s0,44(sp)
 1251              		.cfi_restore 8
 1252              		.cfi_def_cfa 2, 48
 1253 0206 4561     		addi	sp,sp,48
 1254              		.cfi_def_cfa_offset 0
 1255 0208 8280     		jr	ra
 1256              		.cfi_endproc
 1257              	.LFE23:
 1259              		.section	.text.CAN_TransmitStatus,"ax",@progbits
 1260              		.align	1
 1261              		.globl	CAN_TransmitStatus
 1263              	CAN_TransmitStatus:
 1264              	.LFB24:
 435:Drivers/src/ch32v20x_can.c **** 
 436:Drivers/src/ch32v20x_can.c **** /*********************************************************************
 437:Drivers/src/ch32v20x_can.c ****  * @fn      CAN_TransmitStatus
 438:Drivers/src/ch32v20x_can.c ****  *
 439:Drivers/src/ch32v20x_can.c ****  * @brief   Checks the transmission of a message.
 440:Drivers/src/ch32v20x_can.c ****  *
 441:Drivers/src/ch32v20x_can.c ****  * @param   CANx - where x can be 1 to select the CAN peripheral.
 442:Drivers/src/ch32v20x_can.c ****  *          TransmitMailbox - the number of the mailbox that is used for
 443:Drivers/src/ch32v20x_can.c ****  *        transmission.
 444:Drivers/src/ch32v20x_can.c ****  *
 445:Drivers/src/ch32v20x_can.c ****  * @return  state -
 446:Drivers/src/ch32v20x_can.c ****  *            CAN_TxStatus_Ok.
 447:Drivers/src/ch32v20x_can.c ****  *            CAN_TxStatus_Failed.
 448:Drivers/src/ch32v20x_can.c ****  */
 449:Drivers/src/ch32v20x_can.c **** uint8_t CAN_TransmitStatus(CAN_TypeDef* CANx, uint8_t TransmitMailbox)
 450:Drivers/src/ch32v20x_can.c **** {
 1265              		.loc 1 450 1
 1266              		.cfi_startproc
 1267 0000 7971     		addi	sp,sp,-48
 1268              		.cfi_def_cfa_offset 48
 1269 0002 22D6     		sw	s0,44(sp)
 1270              		.cfi_offset 8, -4
GAS LISTING C:\Users\SOLDER~1\AppData\Local\Temp\ccYCTqm0.s 			page 32


 1271 0004 0018     		addi	s0,sp,48
 1272              		.cfi_def_cfa 8, 0
 1273 0006 232EA4FC 		sw	a0,-36(s0)
 1274 000a AE87     		mv	a5,a1
 1275 000c A30DF4FC 		sb	a5,-37(s0)
 451:Drivers/src/ch32v20x_can.c ****   uint32_t state = 0;
 1276              		.loc 1 451 12
 1277 0010 232604FE 		sw	zero,-20(s0)
 452:Drivers/src/ch32v20x_can.c **** 
 453:Drivers/src/ch32v20x_can.c ****   switch (TransmitMailbox)
 1278              		.loc 1 453 3
 1279 0014 8347B4FD 		lbu	a5,-37(s0)
 1280 0018 0947     		li	a4,2
 1281 001a 638FE702 		beq	a5,a4,.L59
 1282 001e 0947     		li	a4,2
 1283 0020 6345F704 		bgt	a5,a4,.L60
 1284 0024 89C7     		beq	a5,zero,.L61
 1285 0026 0547     		li	a4,1
 1286 0028 638DE700 		beq	a5,a4,.L62
 1287 002c 3DA8     		j	.L60
 1288              	.L61:
 454:Drivers/src/ch32v20x_can.c ****   {
 455:Drivers/src/ch32v20x_can.c ****     case (CAN_TXMAILBOX_0): 
 456:Drivers/src/ch32v20x_can.c ****       state =   CANx->TSTATR &  (CAN_TSTATR_RQCP0 | CAN_TSTATR_TXOK0 | CAN_TSTATR_TME0);
 1289              		.loc 1 456 21
 1290 002e 8327C4FD 		lw	a5,-36(s0)
 1291 0032 9847     		lw	a4,8(a5)
 1292              		.loc 1 456 13
 1293 0034 B7070004 		li	a5,67108864
 1294 0038 8D07     		addi	a5,a5,3
 1295 003a F98F     		and	a5,a4,a5
 1296 003c 2326F4FE 		sw	a5,-20(s0)
 457:Drivers/src/ch32v20x_can.c ****       break;
 1297              		.loc 1 457 7
 1298 0040 05A8     		j	.L63
 1299              	.L62:
 458:Drivers/src/ch32v20x_can.c **** 		
 459:Drivers/src/ch32v20x_can.c ****     case (CAN_TXMAILBOX_1): 
 460:Drivers/src/ch32v20x_can.c ****       state =   CANx->TSTATR &  (CAN_TSTATR_RQCP1 | CAN_TSTATR_TXOK1 | CAN_TSTATR_TME1);
 1300              		.loc 1 460 21
 1301 0042 8327C4FD 		lw	a5,-36(s0)
 1302 0046 9847     		lw	a4,8(a5)
 1303              		.loc 1 460 13
 1304 0048 B7070008 		li	a5,134217728
 1305 004c 93870730 		addi	a5,a5,768
 1306 0050 F98F     		and	a5,a4,a5
 1307 0052 2326F4FE 		sw	a5,-20(s0)
 461:Drivers/src/ch32v20x_can.c ****       break;
 1308              		.loc 1 461 7
 1309 0056 29A8     		j	.L63
 1310              	.L59:
 462:Drivers/src/ch32v20x_can.c **** 		
 463:Drivers/src/ch32v20x_can.c ****     case (CAN_TXMAILBOX_2): 
 464:Drivers/src/ch32v20x_can.c ****       state =   CANx->TSTATR &  (CAN_TSTATR_RQCP2 | CAN_TSTATR_TXOK2 | CAN_TSTATR_TME2);
 1311              		.loc 1 464 21
 1312 0058 8327C4FD 		lw	a5,-36(s0)
 1313 005c 9847     		lw	a4,8(a5)
GAS LISTING C:\Users\SOLDER~1\AppData\Local\Temp\ccYCTqm0.s 			page 33


 1314              		.loc 1 464 13
 1315 005e B7070310 		li	a5,268632064
 1316 0062 F98F     		and	a5,a4,a5
 1317 0064 2326F4FE 		sw	a5,-20(s0)
 465:Drivers/src/ch32v20x_can.c ****       break;
 1318              		.loc 1 465 7
 1319 0068 21A0     		j	.L63
 1320              	.L60:
 466:Drivers/src/ch32v20x_can.c **** 		
 467:Drivers/src/ch32v20x_can.c ****     default:
 468:Drivers/src/ch32v20x_can.c ****       state = CAN_TxStatus_Failed;
 1321              		.loc 1 468 13
 1322 006a 232604FE 		sw	zero,-20(s0)
 469:Drivers/src/ch32v20x_can.c ****       break;
 1323              		.loc 1 469 7
 1324 006e 0100     		nop
 1325              	.L63:
 470:Drivers/src/ch32v20x_can.c ****   }
 471:Drivers/src/ch32v20x_can.c **** 	
 472:Drivers/src/ch32v20x_can.c ****   switch (state)
 1326              		.loc 1 472 3
 1327 0070 0327C4FE 		lw	a4,-20(s0)
 1328 0074 B7070310 		li	a5,268632064
 1329 0078 6302F70C 		beq	a4,a5,.L64
 1330 007c 0327C4FE 		lw	a4,-20(s0)
 1331 0080 B7070310 		li	a5,268632064
 1332 0084 63E0E70C 		bgtu	a4,a5,.L65
 1333 0088 0327C4FE 		lw	a4,-20(s0)
 1334 008c B7070110 		li	a5,268500992
 1335 0090 630BF708 		beq	a4,a5,.L66
 1336 0094 0327C4FE 		lw	a4,-20(s0)
 1337 0098 B7070110 		li	a5,268500992
 1338 009c 63E4E70A 		bgtu	a4,a5,.L65
 1339 00a0 0327C4FE 		lw	a4,-20(s0)
 1340 00a4 B7070008 		li	a5,134217728
 1341 00a8 93870730 		addi	a5,a5,768
 1342 00ac 6304F708 		beq	a4,a5,.L67
 1343 00b0 0327C4FE 		lw	a4,-20(s0)
 1344 00b4 B7070008 		li	a5,134217728
 1345 00b8 93870730 		addi	a5,a5,768
 1346 00bc 63E4E708 		bgtu	a4,a5,.L65
 1347 00c0 0327C4FE 		lw	a4,-20(s0)
 1348 00c4 B7070008 		li	a5,134217728
 1349 00c8 93870710 		addi	a5,a5,256
 1350 00cc 630AF704 		beq	a4,a5,.L68
 1351 00d0 0327C4FE 		lw	a4,-20(s0)
 1352 00d4 B7070008 		li	a5,134217728
 1353 00d8 93870710 		addi	a5,a5,256
 1354 00dc 63E4E706 		bgtu	a4,a5,.L65
 1355 00e0 0327C4FE 		lw	a4,-20(s0)
 1356 00e4 B7070004 		li	a5,67108864
 1357 00e8 8D07     		addi	a5,a5,3
 1358 00ea 6301F704 		beq	a4,a5,.L69
 1359 00ee 0327C4FE 		lw	a4,-20(s0)
 1360 00f2 B7070004 		li	a5,67108864
 1361 00f6 8D07     		addi	a5,a5,3
 1362 00f8 63E6E704 		bgtu	a4,a5,.L65
GAS LISTING C:\Users\SOLDER~1\AppData\Local\Temp\ccYCTqm0.s 			page 34


 1363 00fc 8327C4FE 		lw	a5,-20(s0)
 1364 0100 89CB     		beq	a5,zero,.L70
 1365 0102 0327C4FE 		lw	a4,-20(s0)
 1366 0106 B7070004 		li	a5,67108864
 1367 010a 8507     		addi	a5,a5,1
 1368 010c 6307F700 		beq	a4,a5,.L71
 1369 0110 15A8     		j	.L65
 1370              	.L70:
 473:Drivers/src/ch32v20x_can.c ****   {
 474:Drivers/src/ch32v20x_can.c ****     case (0x0): 
 475:Drivers/src/ch32v20x_can.c **** 			state = CAN_TxStatus_Pending;
 1371              		.loc 1 475 10
 1372 0112 8947     		li	a5,2
 1373 0114 2326F4FE 		sw	a5,-20(s0)
 476:Drivers/src/ch32v20x_can.c ****       break;
 1374              		.loc 1 476 7
 1375 0118 0DA8     		j	.L72
 1376              	.L71:
 477:Drivers/src/ch32v20x_can.c **** 		
 478:Drivers/src/ch32v20x_can.c ****      case (CAN_TSTATR_RQCP0 | CAN_TSTATR_TME0): 
 479:Drivers/src/ch32v20x_can.c **** 			state = CAN_TxStatus_Failed;
 1377              		.loc 1 479 10
 1378 011a 232604FE 		sw	zero,-20(s0)
 480:Drivers/src/ch32v20x_can.c ****       break;
 1379              		.loc 1 480 7
 1380 011e 35A0     		j	.L72
 1381              	.L68:
 481:Drivers/src/ch32v20x_can.c **** 		
 482:Drivers/src/ch32v20x_can.c ****      case (CAN_TSTATR_RQCP1 | CAN_TSTATR_TME1): 
 483:Drivers/src/ch32v20x_can.c **** 			state = CAN_TxStatus_Failed;
 1382              		.loc 1 483 10
 1383 0120 232604FE 		sw	zero,-20(s0)
 484:Drivers/src/ch32v20x_can.c ****       break;
 1384              		.loc 1 484 7
 1385 0124 1DA0     		j	.L72
 1386              	.L66:
 485:Drivers/src/ch32v20x_can.c **** 		
 486:Drivers/src/ch32v20x_can.c ****      case (CAN_TSTATR_RQCP2 | CAN_TSTATR_TME2):
 487:Drivers/src/ch32v20x_can.c **** 			state = CAN_TxStatus_Failed;
 1387              		.loc 1 487 10
 1388 0126 232604FE 		sw	zero,-20(s0)
 488:Drivers/src/ch32v20x_can.c ****       break;
 1389              		.loc 1 488 7
 1390 012a 05A0     		j	.L72
 1391              	.L69:
 489:Drivers/src/ch32v20x_can.c **** 		
 490:Drivers/src/ch32v20x_can.c ****     case (CAN_TSTATR_RQCP0 | CAN_TSTATR_TXOK0 | CAN_TSTATR_TME0):
 491:Drivers/src/ch32v20x_can.c **** 			state = CAN_TxStatus_Ok;
 1392              		.loc 1 491 10
 1393 012c 8547     		li	a5,1
 1394 012e 2326F4FE 		sw	a5,-20(s0)
 492:Drivers/src/ch32v20x_can.c ****       break;
 1395              		.loc 1 492 7
 1396 0132 21A8     		j	.L72
 1397              	.L67:
 493:Drivers/src/ch32v20x_can.c **** 		
 494:Drivers/src/ch32v20x_can.c ****     case (CAN_TSTATR_RQCP1 | CAN_TSTATR_TXOK1 | CAN_TSTATR_TME1):
GAS LISTING C:\Users\SOLDER~1\AppData\Local\Temp\ccYCTqm0.s 			page 35


 495:Drivers/src/ch32v20x_can.c **** 			state = CAN_TxStatus_Ok;
 1398              		.loc 1 495 10
 1399 0134 8547     		li	a5,1
 1400 0136 2326F4FE 		sw	a5,-20(s0)
 496:Drivers/src/ch32v20x_can.c ****       break;
 1401              		.loc 1 496 7
 1402 013a 01A8     		j	.L72
 1403              	.L64:
 497:Drivers/src/ch32v20x_can.c **** 		
 498:Drivers/src/ch32v20x_can.c ****     case (CAN_TSTATR_RQCP2 | CAN_TSTATR_TXOK2 | CAN_TSTATR_TME2):
 499:Drivers/src/ch32v20x_can.c **** 			state = CAN_TxStatus_Ok;
 1404              		.loc 1 499 10
 1405 013c 8547     		li	a5,1
 1406 013e 2326F4FE 		sw	a5,-20(s0)
 500:Drivers/src/ch32v20x_can.c ****       break;
 1407              		.loc 1 500 7
 1408 0142 21A0     		j	.L72
 1409              	.L65:
 501:Drivers/src/ch32v20x_can.c **** 		
 502:Drivers/src/ch32v20x_can.c ****     default: 
 503:Drivers/src/ch32v20x_can.c **** 			state = CAN_TxStatus_Failed;
 1410              		.loc 1 503 10
 1411 0144 232604FE 		sw	zero,-20(s0)
 504:Drivers/src/ch32v20x_can.c ****       break;
 1412              		.loc 1 504 7
 1413 0148 0100     		nop
 1414              	.L72:
 505:Drivers/src/ch32v20x_can.c ****   }
 506:Drivers/src/ch32v20x_can.c **** 	
 507:Drivers/src/ch32v20x_can.c ****   return (uint8_t) state;
 1415              		.loc 1 507 10
 1416 014a 8327C4FE 		lw	a5,-20(s0)
 1417 014e 93F7F70F 		andi	a5,a5,0xff
 508:Drivers/src/ch32v20x_can.c **** }
 1418              		.loc 1 508 1
 1419 0152 3E85     		mv	a0,a5
 1420 0154 3254     		lw	s0,44(sp)
 1421              		.cfi_restore 8
 1422              		.cfi_def_cfa 2, 48
 1423 0156 4561     		addi	sp,sp,48
 1424              		.cfi_def_cfa_offset 0
 1425 0158 8280     		jr	ra
 1426              		.cfi_endproc
 1427              	.LFE24:
 1429              		.section	.text.CAN_CancelTransmit,"ax",@progbits
 1430              		.align	1
 1431              		.globl	CAN_CancelTransmit
 1433              	CAN_CancelTransmit:
 1434              	.LFB25:
 509:Drivers/src/ch32v20x_can.c **** 
 510:Drivers/src/ch32v20x_can.c **** /*********************************************************************
 511:Drivers/src/ch32v20x_can.c ****  * @fn      CAN_CancelTransmit
 512:Drivers/src/ch32v20x_can.c ****  *
 513:Drivers/src/ch32v20x_can.c ****  * @brief   Cancels a transmit request.
 514:Drivers/src/ch32v20x_can.c ****  *
 515:Drivers/src/ch32v20x_can.c ****  * @param   CANx - where x can be 1 to select the CAN peripheral.
 516:Drivers/src/ch32v20x_can.c ****  *          Mailbox -  Mailbox number.
GAS LISTING C:\Users\SOLDER~1\AppData\Local\Temp\ccYCTqm0.s 			page 36


 517:Drivers/src/ch32v20x_can.c ****  *            CAN_TXMAILBOX_0.
 518:Drivers/src/ch32v20x_can.c ****  *            CAN_TXMAILBOX_1.
 519:Drivers/src/ch32v20x_can.c ****  *            CAN_TXMAILBOX_2.
 520:Drivers/src/ch32v20x_can.c ****  *
 521:Drivers/src/ch32v20x_can.c ****  * @return  none
 522:Drivers/src/ch32v20x_can.c ****  */
 523:Drivers/src/ch32v20x_can.c **** void CAN_CancelTransmit(CAN_TypeDef* CANx, uint8_t Mailbox)
 524:Drivers/src/ch32v20x_can.c **** {
 1435              		.loc 1 524 1
 1436              		.cfi_startproc
 1437 0000 0111     		addi	sp,sp,-32
 1438              		.cfi_def_cfa_offset 32
 1439 0002 22CE     		sw	s0,28(sp)
 1440              		.cfi_offset 8, -4
 1441 0004 0010     		addi	s0,sp,32
 1442              		.cfi_def_cfa 8, 0
 1443 0006 2326A4FE 		sw	a0,-20(s0)
 1444 000a AE87     		mv	a5,a1
 1445 000c A305F4FE 		sb	a5,-21(s0)
 525:Drivers/src/ch32v20x_can.c ****   switch (Mailbox)
 1446              		.loc 1 525 3
 1447 0010 8347B4FE 		lbu	a5,-21(s0)
 1448 0014 0947     		li	a4,2
 1449 0016 638CE702 		beq	a5,a4,.L75
 1450 001a 0947     		li	a4,2
 1451 001c 6343F704 		bgt	a5,a4,.L80
 1452 0020 89C7     		beq	a5,zero,.L77
 1453 0022 0547     		li	a4,1
 1454 0024 638CE700 		beq	a5,a4,.L78
 526:Drivers/src/ch32v20x_can.c ****   {
 527:Drivers/src/ch32v20x_can.c ****     case (CAN_TXMAILBOX_0): 
 528:Drivers/src/ch32v20x_can.c **** 			CANx->TSTATR |= CAN_TSTATR_ABRQ0;
 529:Drivers/src/ch32v20x_can.c ****       break;
 530:Drivers/src/ch32v20x_can.c **** 		
 531:Drivers/src/ch32v20x_can.c ****     case (CAN_TXMAILBOX_1): 
 532:Drivers/src/ch32v20x_can.c **** 			CANx->TSTATR |= CAN_TSTATR_ABRQ1;
 533:Drivers/src/ch32v20x_can.c ****       break;
 534:Drivers/src/ch32v20x_can.c **** 		
 535:Drivers/src/ch32v20x_can.c ****     case (CAN_TXMAILBOX_2): 
 536:Drivers/src/ch32v20x_can.c **** 			CANx->TSTATR |= CAN_TSTATR_ABRQ2;
 537:Drivers/src/ch32v20x_can.c ****       break;
 538:Drivers/src/ch32v20x_can.c **** 		
 539:Drivers/src/ch32v20x_can.c ****     default:
 540:Drivers/src/ch32v20x_can.c ****       break;
 1455              		.loc 1 540 7
 1456 0028 2DA8     		j	.L80
 1457              	.L77:
 528:Drivers/src/ch32v20x_can.c ****       break;
 1458              		.loc 1 528 8
 1459 002a 8327C4FE 		lw	a5,-20(s0)
 1460 002e 9C47     		lw	a5,8(a5)
 528:Drivers/src/ch32v20x_can.c ****       break;
 1461              		.loc 1 528 17
 1462 0030 13E70708 		ori	a4,a5,128
 1463 0034 8327C4FE 		lw	a5,-20(s0)
 1464 0038 98C7     		sw	a4,8(a5)
 529:Drivers/src/ch32v20x_can.c **** 		
GAS LISTING C:\Users\SOLDER~1\AppData\Local\Temp\ccYCTqm0.s 			page 37


 1465              		.loc 1 529 7
 1466 003a 2DA0     		j	.L79
 1467              	.L78:
 532:Drivers/src/ch32v20x_can.c ****       break;
 1468              		.loc 1 532 8
 1469 003c 8327C4FE 		lw	a5,-20(s0)
 1470 0040 9847     		lw	a4,8(a5)
 532:Drivers/src/ch32v20x_can.c ****       break;
 1471              		.loc 1 532 17
 1472 0042 A167     		li	a5,32768
 1473 0044 5D8F     		or	a4,a4,a5
 1474 0046 8327C4FE 		lw	a5,-20(s0)
 1475 004a 98C7     		sw	a4,8(a5)
 533:Drivers/src/ch32v20x_can.c **** 		
 1476              		.loc 1 533 7
 1477 004c 21A8     		j	.L79
 1478              	.L75:
 536:Drivers/src/ch32v20x_can.c ****       break;
 1479              		.loc 1 536 8
 1480 004e 8327C4FE 		lw	a5,-20(s0)
 1481 0052 9847     		lw	a4,8(a5)
 536:Drivers/src/ch32v20x_can.c ****       break;
 1482              		.loc 1 536 17
 1483 0054 B7078000 		li	a5,8388608
 1484 0058 5D8F     		or	a4,a4,a5
 1485 005a 8327C4FE 		lw	a5,-20(s0)
 1486 005e 98C7     		sw	a4,8(a5)
 537:Drivers/src/ch32v20x_can.c **** 		
 1487              		.loc 1 537 7
 1488 0060 11A0     		j	.L79
 1489              	.L80:
 1490              		.loc 1 540 7
 1491 0062 0100     		nop
 1492              	.L79:
 541:Drivers/src/ch32v20x_can.c ****   }
 542:Drivers/src/ch32v20x_can.c **** }
 1493              		.loc 1 542 1
 1494 0064 0100     		nop
 1495 0066 7244     		lw	s0,28(sp)
 1496              		.cfi_restore 8
 1497              		.cfi_def_cfa 2, 32
 1498 0068 0561     		addi	sp,sp,32
 1499              		.cfi_def_cfa_offset 0
 1500 006a 8280     		jr	ra
 1501              		.cfi_endproc
 1502              	.LFE25:
 1504              		.section	.text.CAN_Receive,"ax",@progbits
 1505              		.align	1
 1506              		.globl	CAN_Receive
 1508              	CAN_Receive:
 1509              	.LFB26:
 543:Drivers/src/ch32v20x_can.c **** 
 544:Drivers/src/ch32v20x_can.c **** /*********************************************************************
 545:Drivers/src/ch32v20x_can.c ****  * @fn      CAN_Receive
 546:Drivers/src/ch32v20x_can.c ****  *
 547:Drivers/src/ch32v20x_can.c ****  * @brief   Receives a message.
 548:Drivers/src/ch32v20x_can.c ****  *
GAS LISTING C:\Users\SOLDER~1\AppData\Local\Temp\ccYCTqm0.s 			page 38


 549:Drivers/src/ch32v20x_can.c ****  * @param   CANx - where x can be 1 to select the CAN peripheral.
 550:Drivers/src/ch32v20x_can.c ****  *          FIFONumber - Receive FIFO number.
 551:Drivers/src/ch32v20x_can.c ****  *            CAN_FIFO0.
 552:Drivers/src/ch32v20x_can.c ****  *            CAN_FIFO1.
 553:Drivers/src/ch32v20x_can.c ****  *          RxMessage -  pointer to a structure receive message which contains
 554:Drivers/src/ch32v20x_can.c ****  *        CAN Id, CAN DLC, CAN datas and FMI number.
 555:Drivers/src/ch32v20x_can.c ****  *
 556:Drivers/src/ch32v20x_can.c ****  * @return  none
 557:Drivers/src/ch32v20x_can.c ****  */
 558:Drivers/src/ch32v20x_can.c **** void CAN_Receive(CAN_TypeDef* CANx, uint8_t FIFONumber, CanRxMsg* RxMessage)
 559:Drivers/src/ch32v20x_can.c **** {
 1510              		.loc 1 559 1
 1511              		.cfi_startproc
 1512 0000 0111     		addi	sp,sp,-32
 1513              		.cfi_def_cfa_offset 32
 1514 0002 22CE     		sw	s0,28(sp)
 1515              		.cfi_offset 8, -4
 1516 0004 0010     		addi	s0,sp,32
 1517              		.cfi_def_cfa 8, 0
 1518 0006 2326A4FE 		sw	a0,-20(s0)
 1519 000a AE87     		mv	a5,a1
 1520 000c 2322C4FE 		sw	a2,-28(s0)
 1521 0010 A305F4FE 		sb	a5,-21(s0)
 560:Drivers/src/ch32v20x_can.c ****   RxMessage->IDE = (uint8_t)0x04 & CANx->sFIFOMailBox[FIFONumber].RXMIR;
 1522              		.loc 1 560 66
 1523 0014 8347B4FE 		lbu	a5,-21(s0)
 1524 0018 0327C4FE 		lw	a4,-20(s0)
 1525 001c ED07     		addi	a5,a5,27
 1526 001e 9207     		slli	a5,a5,4
 1527 0020 BA97     		add	a5,a4,a5
 1528 0022 9C43     		lw	a5,0(a5)
 1529              		.loc 1 560 34
 1530 0024 93F7F70F 		andi	a5,a5,0xff
 1531 0028 918B     		andi	a5,a5,4
 1532 002a 13F7F70F 		andi	a4,a5,0xff
 1533              		.loc 1 560 18
 1534 002e 832744FE 		lw	a5,-28(s0)
 1535 0032 98A7     		sb	a4,8(a5)
 561:Drivers/src/ch32v20x_can.c **** 	
 562:Drivers/src/ch32v20x_can.c ****   if (RxMessage->IDE == CAN_Id_Standard)
 1536              		.loc 1 562 16
 1537 0034 832744FE 		lw	a5,-28(s0)
 1538 0038 9C27     		lbu	a5,8(a5)
 1539              		.loc 1 562 6
 1540 003a 85E3     		bne	a5,zero,.L82
 563:Drivers/src/ch32v20x_can.c ****   {
 564:Drivers/src/ch32v20x_can.c ****     RxMessage->StdId = (uint32_t)0x000007FF & (CANx->sFIFOMailBox[FIFONumber].RXMIR >> 21);
 1541              		.loc 1 564 78
 1542 003c 8347B4FE 		lbu	a5,-21(s0)
 1543 0040 0327C4FE 		lw	a4,-20(s0)
 1544 0044 ED07     		addi	a5,a5,27
 1545 0046 9207     		slli	a5,a5,4
 1546 0048 BA97     		add	a5,a4,a5
 1547 004a 9C43     		lw	a5,0(a5)
 1548              		.loc 1 564 85
 1549 004c D583     		srli	a5,a5,21
 1550              		.loc 1 564 45
GAS LISTING C:\Users\SOLDER~1\AppData\Local\Temp\ccYCTqm0.s 			page 39


 1551 004e 13F7F77F 		andi	a4,a5,2047
 1552              		.loc 1 564 22
 1553 0052 832744FE 		lw	a5,-28(s0)
 1554 0056 98C3     		sw	a4,0(a5)
 1555 0058 15A0     		j	.L83
 1556              	.L82:
 565:Drivers/src/ch32v20x_can.c ****   }
 566:Drivers/src/ch32v20x_can.c ****   else
 567:Drivers/src/ch32v20x_can.c ****   {
 568:Drivers/src/ch32v20x_can.c ****     RxMessage->ExtId = (uint32_t)0x1FFFFFFF & (CANx->sFIFOMailBox[FIFONumber].RXMIR >> 3);
 1557              		.loc 1 568 78
 1558 005a 8347B4FE 		lbu	a5,-21(s0)
 1559 005e 0327C4FE 		lw	a4,-20(s0)
 1560 0062 ED07     		addi	a5,a5,27
 1561 0064 9207     		slli	a5,a5,4
 1562 0066 BA97     		add	a5,a4,a5
 1563 0068 9C43     		lw	a5,0(a5)
 1564              		.loc 1 568 85
 1565 006a 13D73700 		srli	a4,a5,3
 1566              		.loc 1 568 45
 1567 006e B7070020 		li	a5,536870912
 1568 0072 FD17     		addi	a5,a5,-1
 1569 0074 7D8F     		and	a4,a4,a5
 1570              		.loc 1 568 22
 1571 0076 832744FE 		lw	a5,-28(s0)
 1572 007a D8C3     		sw	a4,4(a5)
 1573              	.L83:
 569:Drivers/src/ch32v20x_can.c ****   }
 570:Drivers/src/ch32v20x_can.c ****   
 571:Drivers/src/ch32v20x_can.c ****   RxMessage->RTR = (uint8_t)0x02 & CANx->sFIFOMailBox[FIFONumber].RXMIR;
 1574              		.loc 1 571 66
 1575 007c 8347B4FE 		lbu	a5,-21(s0)
 1576 0080 0327C4FE 		lw	a4,-20(s0)
 1577 0084 ED07     		addi	a5,a5,27
 1578 0086 9207     		slli	a5,a5,4
 1579 0088 BA97     		add	a5,a4,a5
 1580 008a 9C43     		lw	a5,0(a5)
 1581              		.loc 1 571 34
 1582 008c 93F7F70F 		andi	a5,a5,0xff
 1583 0090 898B     		andi	a5,a5,2
 1584 0092 13F7F70F 		andi	a4,a5,0xff
 1585              		.loc 1 571 18
 1586 0096 832744FE 		lw	a5,-28(s0)
 1587 009a 98B7     		sb	a4,9(a5)
 572:Drivers/src/ch32v20x_can.c ****   RxMessage->DLC = (uint8_t)0x0F & CANx->sFIFOMailBox[FIFONumber].RXMDTR;
 1588              		.loc 1 572 66
 1589 009c 8347B4FE 		lbu	a5,-21(s0)
 1590 00a0 0327C4FE 		lw	a4,-20(s0)
 1591 00a4 ED07     		addi	a5,a5,27
 1592 00a6 9207     		slli	a5,a5,4
 1593 00a8 BA97     		add	a5,a4,a5
 1594 00aa DC43     		lw	a5,4(a5)
 1595              		.loc 1 572 34
 1596 00ac 93F7F70F 		andi	a5,a5,0xff
 1597 00b0 BD8B     		andi	a5,a5,15
 1598 00b2 13F7F70F 		andi	a4,a5,0xff
 1599              		.loc 1 572 18
GAS LISTING C:\Users\SOLDER~1\AppData\Local\Temp\ccYCTqm0.s 			page 40


 1600 00b6 832744FE 		lw	a5,-28(s0)
 1601 00ba B8A7     		sb	a4,10(a5)
 573:Drivers/src/ch32v20x_can.c ****   RxMessage->FMI = (uint8_t)0xFF & (CANx->sFIFOMailBox[FIFONumber].RXMDTR >> 8);
 1602              		.loc 1 573 67
 1603 00bc 8347B4FE 		lbu	a5,-21(s0)
 1604 00c0 0327C4FE 		lw	a4,-20(s0)
 1605 00c4 ED07     		addi	a5,a5,27
 1606 00c6 9207     		slli	a5,a5,4
 1607 00c8 BA97     		add	a5,a4,a5
 1608 00ca DC43     		lw	a5,4(a5)
 1609              		.loc 1 573 75
 1610 00cc A183     		srli	a5,a5,8
 1611              		.loc 1 573 18
 1612 00ce 13F7F70F 		andi	a4,a5,0xff
 1613 00d2 832744FE 		lw	a5,-28(s0)
 1614 00d6 B8BB     		sb	a4,19(a5)
 574:Drivers/src/ch32v20x_can.c ****   RxMessage->Data[0] = (uint8_t)0xFF & CANx->sFIFOMailBox[FIFONumber].RXMDLR;
 1615              		.loc 1 574 70
 1616 00d8 8347B4FE 		lbu	a5,-21(s0)
 1617 00dc 0327C4FE 		lw	a4,-20(s0)
 1618 00e0 ED07     		addi	a5,a5,27
 1619 00e2 9207     		slli	a5,a5,4
 1620 00e4 BA97     		add	a5,a4,a5
 1621 00e6 9C47     		lw	a5,8(a5)
 1622              		.loc 1 574 22
 1623 00e8 13F7F70F 		andi	a4,a5,0xff
 1624 00ec 832744FE 		lw	a5,-28(s0)
 1625 00f0 B8B7     		sb	a4,11(a5)
 575:Drivers/src/ch32v20x_can.c ****   RxMessage->Data[1] = (uint8_t)0xFF & (CANx->sFIFOMailBox[FIFONumber].RXMDLR >> 8);
 1626              		.loc 1 575 71
 1627 00f2 8347B4FE 		lbu	a5,-21(s0)
 1628 00f6 0327C4FE 		lw	a4,-20(s0)
 1629 00fa ED07     		addi	a5,a5,27
 1630 00fc 9207     		slli	a5,a5,4
 1631 00fe BA97     		add	a5,a4,a5
 1632 0100 9C47     		lw	a5,8(a5)
 1633              		.loc 1 575 79
 1634 0102 A183     		srli	a5,a5,8
 1635              		.loc 1 575 22
 1636 0104 13F7F70F 		andi	a4,a5,0xff
 1637 0108 832744FE 		lw	a5,-28(s0)
 1638 010c D8A7     		sb	a4,12(a5)
 576:Drivers/src/ch32v20x_can.c ****   RxMessage->Data[2] = (uint8_t)0xFF & (CANx->sFIFOMailBox[FIFONumber].RXMDLR >> 16);
 1639              		.loc 1 576 71
 1640 010e 8347B4FE 		lbu	a5,-21(s0)
 1641 0112 0327C4FE 		lw	a4,-20(s0)
 1642 0116 ED07     		addi	a5,a5,27
 1643 0118 9207     		slli	a5,a5,4
 1644 011a BA97     		add	a5,a4,a5
 1645 011c 9C47     		lw	a5,8(a5)
 1646              		.loc 1 576 79
 1647 011e C183     		srli	a5,a5,16
 1648              		.loc 1 576 22
 1649 0120 13F7F70F 		andi	a4,a5,0xff
 1650 0124 832744FE 		lw	a5,-28(s0)
 1651 0128 D8B7     		sb	a4,13(a5)
 577:Drivers/src/ch32v20x_can.c ****   RxMessage->Data[3] = (uint8_t)0xFF & (CANx->sFIFOMailBox[FIFONumber].RXMDLR >> 24);
GAS LISTING C:\Users\SOLDER~1\AppData\Local\Temp\ccYCTqm0.s 			page 41


 1652              		.loc 1 577 71
 1653 012a 8347B4FE 		lbu	a5,-21(s0)
 1654 012e 0327C4FE 		lw	a4,-20(s0)
 1655 0132 ED07     		addi	a5,a5,27
 1656 0134 9207     		slli	a5,a5,4
 1657 0136 BA97     		add	a5,a4,a5
 1658 0138 9C47     		lw	a5,8(a5)
 1659              		.loc 1 577 79
 1660 013a E183     		srli	a5,a5,24
 1661              		.loc 1 577 22
 1662 013c 13F7F70F 		andi	a4,a5,0xff
 1663 0140 832744FE 		lw	a5,-28(s0)
 1664 0144 F8A7     		sb	a4,14(a5)
 578:Drivers/src/ch32v20x_can.c ****   RxMessage->Data[4] = (uint8_t)0xFF & CANx->sFIFOMailBox[FIFONumber].RXMDHR;
 1665              		.loc 1 578 70
 1666 0146 8347B4FE 		lbu	a5,-21(s0)
 1667 014a 0327C4FE 		lw	a4,-20(s0)
 1668 014e ED07     		addi	a5,a5,27
 1669 0150 9207     		slli	a5,a5,4
 1670 0152 BA97     		add	a5,a4,a5
 1671 0154 DC47     		lw	a5,12(a5)
 1672              		.loc 1 578 22
 1673 0156 13F7F70F 		andi	a4,a5,0xff
 1674 015a 832744FE 		lw	a5,-28(s0)
 1675 015e F8B7     		sb	a4,15(a5)
 579:Drivers/src/ch32v20x_can.c ****   RxMessage->Data[5] = (uint8_t)0xFF & (CANx->sFIFOMailBox[FIFONumber].RXMDHR >> 8);
 1676              		.loc 1 579 71
 1677 0160 8347B4FE 		lbu	a5,-21(s0)
 1678 0164 0327C4FE 		lw	a4,-20(s0)
 1679 0168 ED07     		addi	a5,a5,27
 1680 016a 9207     		slli	a5,a5,4
 1681 016c BA97     		add	a5,a4,a5
 1682 016e DC47     		lw	a5,12(a5)
 1683              		.loc 1 579 79
 1684 0170 A183     		srli	a5,a5,8
 1685              		.loc 1 579 22
 1686 0172 13F7F70F 		andi	a4,a5,0xff
 1687 0176 832744FE 		lw	a5,-28(s0)
 1688 017a 98AB     		sb	a4,16(a5)
 580:Drivers/src/ch32v20x_can.c ****   RxMessage->Data[6] = (uint8_t)0xFF & (CANx->sFIFOMailBox[FIFONumber].RXMDHR >> 16);
 1689              		.loc 1 580 71
 1690 017c 8347B4FE 		lbu	a5,-21(s0)
 1691 0180 0327C4FE 		lw	a4,-20(s0)
 1692 0184 ED07     		addi	a5,a5,27
 1693 0186 9207     		slli	a5,a5,4
 1694 0188 BA97     		add	a5,a4,a5
 1695 018a DC47     		lw	a5,12(a5)
 1696              		.loc 1 580 79
 1697 018c C183     		srli	a5,a5,16
 1698              		.loc 1 580 22
 1699 018e 13F7F70F 		andi	a4,a5,0xff
 1700 0192 832744FE 		lw	a5,-28(s0)
 1701 0196 98BB     		sb	a4,17(a5)
 581:Drivers/src/ch32v20x_can.c ****   RxMessage->Data[7] = (uint8_t)0xFF & (CANx->sFIFOMailBox[FIFONumber].RXMDHR >> 24);
 1702              		.loc 1 581 71
 1703 0198 8347B4FE 		lbu	a5,-21(s0)
 1704 019c 0327C4FE 		lw	a4,-20(s0)
GAS LISTING C:\Users\SOLDER~1\AppData\Local\Temp\ccYCTqm0.s 			page 42


 1705 01a0 ED07     		addi	a5,a5,27
 1706 01a2 9207     		slli	a5,a5,4
 1707 01a4 BA97     		add	a5,a4,a5
 1708 01a6 DC47     		lw	a5,12(a5)
 1709              		.loc 1 581 79
 1710 01a8 E183     		srli	a5,a5,24
 1711              		.loc 1 581 22
 1712 01aa 13F7F70F 		andi	a4,a5,0xff
 1713 01ae 832744FE 		lw	a5,-28(s0)
 1714 01b2 B8AB     		sb	a4,18(a5)
 582:Drivers/src/ch32v20x_can.c **** 
 583:Drivers/src/ch32v20x_can.c ****   if (FIFONumber == CAN_FIFO0)
 1715              		.loc 1 583 6
 1716 01b4 8347B4FE 		lbu	a5,-21(s0)
 1717 01b8 91EB     		bne	a5,zero,.L84
 584:Drivers/src/ch32v20x_can.c ****   {
 585:Drivers/src/ch32v20x_can.c ****     CANx->RFIFO0 |= CAN_RFIFO0_RFOM0;
 1718              		.loc 1 585 9
 1719 01ba 8327C4FE 		lw	a5,-20(s0)
 1720 01be DC47     		lw	a5,12(a5)
 1721              		.loc 1 585 18
 1722 01c0 13E70702 		ori	a4,a5,32
 1723 01c4 8327C4FE 		lw	a5,-20(s0)
 1724 01c8 D8C7     		sw	a4,12(a5)
 586:Drivers/src/ch32v20x_can.c ****   }
 587:Drivers/src/ch32v20x_can.c ****   else 
 588:Drivers/src/ch32v20x_can.c ****   {
 589:Drivers/src/ch32v20x_can.c ****     CANx->RFIFO1 |= CAN_RFIFO1_RFOM1;
 590:Drivers/src/ch32v20x_can.c ****   }
 591:Drivers/src/ch32v20x_can.c **** }
 1725              		.loc 1 591 1
 1726 01ca 09A8     		j	.L86
 1727              	.L84:
 589:Drivers/src/ch32v20x_can.c ****   }
 1728              		.loc 1 589 9
 1729 01cc 8327C4FE 		lw	a5,-20(s0)
 1730 01d0 9C4B     		lw	a5,16(a5)
 589:Drivers/src/ch32v20x_can.c ****   }
 1731              		.loc 1 589 18
 1732 01d2 13E70702 		ori	a4,a5,32
 1733 01d6 8327C4FE 		lw	a5,-20(s0)
 1734 01da 98CB     		sw	a4,16(a5)
 1735              	.L86:
 1736              		.loc 1 591 1
 1737 01dc 0100     		nop
 1738 01de 7244     		lw	s0,28(sp)
 1739              		.cfi_restore 8
 1740              		.cfi_def_cfa 2, 32
 1741 01e0 0561     		addi	sp,sp,32
 1742              		.cfi_def_cfa_offset 0
 1743 01e2 8280     		jr	ra
 1744              		.cfi_endproc
 1745              	.LFE26:
 1747              		.section	.text.CAN_FIFORelease,"ax",@progbits
 1748              		.align	1
 1749              		.globl	CAN_FIFORelease
 1751              	CAN_FIFORelease:
GAS LISTING C:\Users\SOLDER~1\AppData\Local\Temp\ccYCTqm0.s 			page 43


 1752              	.LFB27:
 592:Drivers/src/ch32v20x_can.c **** 
 593:Drivers/src/ch32v20x_can.c **** /*********************************************************************
 594:Drivers/src/ch32v20x_can.c ****  * @fn      CAN_FIFORelease
 595:Drivers/src/ch32v20x_can.c ****  *
 596:Drivers/src/ch32v20x_can.c ****  * @brief   Releases the specified FIFO.
 597:Drivers/src/ch32v20x_can.c ****  *
 598:Drivers/src/ch32v20x_can.c ****  * @param   CANx - where x can be 1 to select the CAN peripheral.
 599:Drivers/src/ch32v20x_can.c ****  *          FIFONumber - Receive FIFO number.
 600:Drivers/src/ch32v20x_can.c ****  *            CAN_FIFO0.
 601:Drivers/src/ch32v20x_can.c ****  *            CAN_FIFO1.
 602:Drivers/src/ch32v20x_can.c ****  *
 603:Drivers/src/ch32v20x_can.c ****  * @return  none
 604:Drivers/src/ch32v20x_can.c ****  */
 605:Drivers/src/ch32v20x_can.c **** void CAN_FIFORelease(CAN_TypeDef* CANx, uint8_t FIFONumber)
 606:Drivers/src/ch32v20x_can.c **** {
 1753              		.loc 1 606 1
 1754              		.cfi_startproc
 1755 0000 0111     		addi	sp,sp,-32
 1756              		.cfi_def_cfa_offset 32
 1757 0002 22CE     		sw	s0,28(sp)
 1758              		.cfi_offset 8, -4
 1759 0004 0010     		addi	s0,sp,32
 1760              		.cfi_def_cfa 8, 0
 1761 0006 2326A4FE 		sw	a0,-20(s0)
 1762 000a AE87     		mv	a5,a1
 1763 000c A305F4FE 		sb	a5,-21(s0)
 607:Drivers/src/ch32v20x_can.c ****   if (FIFONumber == CAN_FIFO0)
 1764              		.loc 1 607 6
 1765 0010 8347B4FE 		lbu	a5,-21(s0)
 1766 0014 91EB     		bne	a5,zero,.L88
 608:Drivers/src/ch32v20x_can.c ****   {
 609:Drivers/src/ch32v20x_can.c ****     CANx->RFIFO0 |= CAN_RFIFO0_RFOM0;
 1767              		.loc 1 609 9
 1768 0016 8327C4FE 		lw	a5,-20(s0)
 1769 001a DC47     		lw	a5,12(a5)
 1770              		.loc 1 609 18
 1771 001c 13E70702 		ori	a4,a5,32
 1772 0020 8327C4FE 		lw	a5,-20(s0)
 1773 0024 D8C7     		sw	a4,12(a5)
 610:Drivers/src/ch32v20x_can.c ****   }
 611:Drivers/src/ch32v20x_can.c ****   else 
 612:Drivers/src/ch32v20x_can.c ****   {
 613:Drivers/src/ch32v20x_can.c ****     CANx->RFIFO1 |= CAN_RFIFO1_RFOM1;
 614:Drivers/src/ch32v20x_can.c ****   }
 615:Drivers/src/ch32v20x_can.c **** }
 1774              		.loc 1 615 1
 1775 0026 09A8     		j	.L90
 1776              	.L88:
 613:Drivers/src/ch32v20x_can.c ****   }
 1777              		.loc 1 613 9
 1778 0028 8327C4FE 		lw	a5,-20(s0)
 1779 002c 9C4B     		lw	a5,16(a5)
 613:Drivers/src/ch32v20x_can.c ****   }
 1780              		.loc 1 613 18
 1781 002e 13E70702 		ori	a4,a5,32
 1782 0032 8327C4FE 		lw	a5,-20(s0)
GAS LISTING C:\Users\SOLDER~1\AppData\Local\Temp\ccYCTqm0.s 			page 44


 1783 0036 98CB     		sw	a4,16(a5)
 1784              	.L90:
 1785              		.loc 1 615 1
 1786 0038 0100     		nop
 1787 003a 7244     		lw	s0,28(sp)
 1788              		.cfi_restore 8
 1789              		.cfi_def_cfa 2, 32
 1790 003c 0561     		addi	sp,sp,32
 1791              		.cfi_def_cfa_offset 0
 1792 003e 8280     		jr	ra
 1793              		.cfi_endproc
 1794              	.LFE27:
 1796              		.section	.text.CAN_MessagePending,"ax",@progbits
 1797              		.align	1
 1798              		.globl	CAN_MessagePending
 1800              	CAN_MessagePending:
 1801              	.LFB28:
 616:Drivers/src/ch32v20x_can.c **** 
 617:Drivers/src/ch32v20x_can.c **** /*********************************************************************
 618:Drivers/src/ch32v20x_can.c ****  * @fn      CAN_MessagePending
 619:Drivers/src/ch32v20x_can.c ****  *
 620:Drivers/src/ch32v20x_can.c ****  * @brief   Returns the number of pending messages.
 621:Drivers/src/ch32v20x_can.c ****  *
 622:Drivers/src/ch32v20x_can.c ****  * @param   CANx - where x can be 1 to select the CAN peripheral.
 623:Drivers/src/ch32v20x_can.c ****  *          FIFONumber - Receive FIFO number.
 624:Drivers/src/ch32v20x_can.c ****  *            CAN_FIFO0.
 625:Drivers/src/ch32v20x_can.c ****  *            CAN_FIFO1.
 626:Drivers/src/ch32v20x_can.c ****  *
 627:Drivers/src/ch32v20x_can.c ****  * @return  message_pending: which is the number of pending message.
 628:Drivers/src/ch32v20x_can.c ****  */
 629:Drivers/src/ch32v20x_can.c **** uint8_t CAN_MessagePending(CAN_TypeDef* CANx, uint8_t FIFONumber)
 630:Drivers/src/ch32v20x_can.c **** {
 1802              		.loc 1 630 1
 1803              		.cfi_startproc
 1804 0000 7971     		addi	sp,sp,-48
 1805              		.cfi_def_cfa_offset 48
 1806 0002 22D6     		sw	s0,44(sp)
 1807              		.cfi_offset 8, -4
 1808 0004 0018     		addi	s0,sp,48
 1809              		.cfi_def_cfa 8, 0
 1810 0006 232EA4FC 		sw	a0,-36(s0)
 1811 000a AE87     		mv	a5,a1
 1812 000c A30DF4FC 		sb	a5,-37(s0)
 631:Drivers/src/ch32v20x_can.c ****   uint8_t message_pending=0;
 1813              		.loc 1 631 11
 1814 0010 A30704FE 		sb	zero,-17(s0)
 632:Drivers/src/ch32v20x_can.c **** 
 633:Drivers/src/ch32v20x_can.c ****   if (FIFONumber == CAN_FIFO0)
 1815              		.loc 1 633 6
 1816 0014 8347B4FD 		lbu	a5,-37(s0)
 1817 0018 91EB     		bne	a5,zero,.L92
 634:Drivers/src/ch32v20x_can.c ****   {
 635:Drivers/src/ch32v20x_can.c ****     message_pending = (uint8_t)(CANx->RFIFO0&(uint32_t)0x03);
 1818              		.loc 1 635 37
 1819 001a 8327C4FD 		lw	a5,-36(s0)
 1820 001e DC47     		lw	a5,12(a5)
 1821              		.loc 1 635 23
GAS LISTING C:\Users\SOLDER~1\AppData\Local\Temp\ccYCTqm0.s 			page 45


 1822 0020 93F7F70F 		andi	a5,a5,0xff
 1823              		.loc 1 635 21
 1824 0024 8D8B     		andi	a5,a5,3
 1825 0026 A307F4FE 		sb	a5,-17(s0)
 1826 002a 0DA0     		j	.L93
 1827              	.L92:
 636:Drivers/src/ch32v20x_can.c ****   }
 637:Drivers/src/ch32v20x_can.c ****   else if (FIFONumber == CAN_FIFO1)
 1828              		.loc 1 637 11
 1829 002c 0347B4FD 		lbu	a4,-37(s0)
 1830 0030 8547     		li	a5,1
 1831 0032 631BF700 		bne	a4,a5,.L94
 638:Drivers/src/ch32v20x_can.c ****   {
 639:Drivers/src/ch32v20x_can.c ****     message_pending = (uint8_t)(CANx->RFIFO1&(uint32_t)0x03);
 1832              		.loc 1 639 37
 1833 0036 8327C4FD 		lw	a5,-36(s0)
 1834 003a 9C4B     		lw	a5,16(a5)
 1835              		.loc 1 639 23
 1836 003c 93F7F70F 		andi	a5,a5,0xff
 1837              		.loc 1 639 21
 1838 0040 8D8B     		andi	a5,a5,3
 1839 0042 A307F4FE 		sb	a5,-17(s0)
 1840 0046 19A0     		j	.L93
 1841              	.L94:
 640:Drivers/src/ch32v20x_can.c ****   }
 641:Drivers/src/ch32v20x_can.c ****   else
 642:Drivers/src/ch32v20x_can.c ****   {
 643:Drivers/src/ch32v20x_can.c ****     message_pending = 0;
 1842              		.loc 1 643 21
 1843 0048 A30704FE 		sb	zero,-17(s0)
 1844              	.L93:
 644:Drivers/src/ch32v20x_can.c ****   }
 645:Drivers/src/ch32v20x_can.c **** 	
 646:Drivers/src/ch32v20x_can.c ****   return message_pending;
 1845              		.loc 1 646 10
 1846 004c 8347F4FE 		lbu	a5,-17(s0)
 647:Drivers/src/ch32v20x_can.c **** }
 1847              		.loc 1 647 1
 1848 0050 3E85     		mv	a0,a5
 1849 0052 3254     		lw	s0,44(sp)
 1850              		.cfi_restore 8
 1851              		.cfi_def_cfa 2, 48
 1852 0054 4561     		addi	sp,sp,48
 1853              		.cfi_def_cfa_offset 0
 1854 0056 8280     		jr	ra
 1855              		.cfi_endproc
 1856              	.LFE28:
 1858              		.section	.text.CAN_OperatingModeRequest,"ax",@progbits
 1859              		.align	1
 1860              		.globl	CAN_OperatingModeRequest
 1862              	CAN_OperatingModeRequest:
 1863              	.LFB29:
 648:Drivers/src/ch32v20x_can.c **** 
 649:Drivers/src/ch32v20x_can.c **** /*********************************************************************
 650:Drivers/src/ch32v20x_can.c ****  * @fn      CAN_OperatingModeRequest
 651:Drivers/src/ch32v20x_can.c ****  *
 652:Drivers/src/ch32v20x_can.c ****  * @brief   Select the CAN Operation mode.
GAS LISTING C:\Users\SOLDER~1\AppData\Local\Temp\ccYCTqm0.s 			page 46


 653:Drivers/src/ch32v20x_can.c ****  *
 654:Drivers/src/ch32v20x_can.c ****  * @param   CANx - where x can be 1 to select the CAN peripheral.
 655:Drivers/src/ch32v20x_can.c ****  *          CAN_OperatingMode - CAN Operating Mode.
 656:Drivers/src/ch32v20x_can.c ****  *            CAN_OperatingMode_Initialization.
 657:Drivers/src/ch32v20x_can.c ****  *            CAN_OperatingMode_Normal.
 658:Drivers/src/ch32v20x_can.c ****  *            CAN_OperatingMode_Sleep.
 659:Drivers/src/ch32v20x_can.c ****  *
 660:Drivers/src/ch32v20x_can.c ****  * @return  status -
 661:Drivers/src/ch32v20x_can.c ****  *          CAN_ModeStatus_Failed - CAN failed entering the specific mode.
 662:Drivers/src/ch32v20x_can.c ****  *          CAN_ModeStatus_Success - CAN Succeed entering the specific mode.
 663:Drivers/src/ch32v20x_can.c ****  */
 664:Drivers/src/ch32v20x_can.c **** uint8_t CAN_OperatingModeRequest(CAN_TypeDef* CANx, uint8_t CAN_OperatingMode)
 665:Drivers/src/ch32v20x_can.c **** {
 1864              		.loc 1 665 1
 1865              		.cfi_startproc
 1866 0000 7971     		addi	sp,sp,-48
 1867              		.cfi_def_cfa_offset 48
 1868 0002 22D6     		sw	s0,44(sp)
 1869              		.cfi_offset 8, -4
 1870 0004 0018     		addi	s0,sp,48
 1871              		.cfi_def_cfa 8, 0
 1872 0006 232EA4FC 		sw	a0,-36(s0)
 1873 000a AE87     		mv	a5,a1
 1874 000c A30DF4FC 		sb	a5,-37(s0)
 666:Drivers/src/ch32v20x_can.c ****   uint8_t status = CAN_ModeStatus_Failed;
 1875              		.loc 1 666 11
 1876 0010 A30704FE 		sb	zero,-17(s0)
 667:Drivers/src/ch32v20x_can.c ****   uint32_t timeout = INAK_TIMEOUT; 
 1877              		.loc 1 667 12
 1878 0014 C167     		li	a5,65536
 1879 0016 FD17     		addi	a5,a5,-1
 1880 0018 2324F4FE 		sw	a5,-24(s0)
 668:Drivers/src/ch32v20x_can.c **** 
 669:Drivers/src/ch32v20x_can.c ****   if (CAN_OperatingMode == CAN_OperatingMode_Initialization)
 1881              		.loc 1 669 6
 1882 001c 8347B4FD 		lbu	a5,-37(s0)
 1883 0020 B1EB     		bne	a5,zero,.L97
 670:Drivers/src/ch32v20x_can.c ****   {
 671:Drivers/src/ch32v20x_can.c ****     CANx->CTLR = (uint32_t)((CANx->CTLR & (uint32_t)(~(uint32_t)CAN_CTLR_SLEEP)) | CAN_CTLR_INRQ);
 1884              		.loc 1 671 34
 1885 0022 8327C4FD 		lw	a5,-36(s0)
 1886 0026 9C43     		lw	a5,0(a5)
 1887              		.loc 1 671 18
 1888 0028 F19B     		andi	a5,a5,-4
 1889 002a 13E71700 		ori	a4,a5,1
 1890              		.loc 1 671 16
 1891 002e 8327C4FD 		lw	a5,-36(s0)
 1892 0032 98C3     		sw	a4,0(a5)
 672:Drivers/src/ch32v20x_can.c **** 
 673:Drivers/src/ch32v20x_can.c ****     while (((CANx->STATR & CAN_MODE_MASK) != CAN_STATR_INAK) && (timeout != 0))
 1893              		.loc 1 673 11
 1894 0034 31A0     		j	.L98
 1895              	.L100:
 674:Drivers/src/ch32v20x_can.c ****     {
 675:Drivers/src/ch32v20x_can.c ****       timeout--;
 1896              		.loc 1 675 14
 1897 0036 832784FE 		lw	a5,-24(s0)
GAS LISTING C:\Users\SOLDER~1\AppData\Local\Temp\ccYCTqm0.s 			page 47


 1898 003a FD17     		addi	a5,a5,-1
 1899 003c 2324F4FE 		sw	a5,-24(s0)
 1900              	.L98:
 673:Drivers/src/ch32v20x_can.c ****     {
 1901              		.loc 1 673 18
 1902 0040 8327C4FD 		lw	a5,-36(s0)
 1903 0044 DC43     		lw	a5,4(a5)
 673:Drivers/src/ch32v20x_can.c ****     {
 1904              		.loc 1 673 26
 1905 0046 13F73700 		andi	a4,a5,3
 673:Drivers/src/ch32v20x_can.c ****     {
 1906              		.loc 1 673 62
 1907 004a 8547     		li	a5,1
 1908 004c 6305F700 		beq	a4,a5,.L99
 673:Drivers/src/ch32v20x_can.c ****     {
 1909              		.loc 1 673 62 is_stmt 0 discriminator 1
 1910 0050 832784FE 		lw	a5,-24(s0)
 1911 0054 EDF3     		bne	a5,zero,.L100
 1912              	.L99:
 676:Drivers/src/ch32v20x_can.c ****     }
 677:Drivers/src/ch32v20x_can.c ****     if ((CANx->STATR & CAN_MODE_MASK) != CAN_STATR_INAK)
 1913              		.loc 1 677 14 is_stmt 1
 1914 0056 8327C4FD 		lw	a5,-36(s0)
 1915 005a DC43     		lw	a5,4(a5)
 1916              		.loc 1 677 22
 1917 005c 13F73700 		andi	a4,a5,3
 1918              		.loc 1 677 8
 1919 0060 8547     		li	a5,1
 1920 0062 6305F700 		beq	a4,a5,.L101
 678:Drivers/src/ch32v20x_can.c ****     {
 679:Drivers/src/ch32v20x_can.c ****       status = CAN_ModeStatus_Failed;
 1921              		.loc 1 679 14
 1922 0066 A30704FE 		sb	zero,-17(s0)
 1923 006a 65A8     		j	.L102
 1924              	.L101:
 680:Drivers/src/ch32v20x_can.c ****     }
 681:Drivers/src/ch32v20x_can.c ****     else
 682:Drivers/src/ch32v20x_can.c ****     {
 683:Drivers/src/ch32v20x_can.c ****       status = CAN_ModeStatus_Success;
 1925              		.loc 1 683 14
 1926 006c 8547     		li	a5,1
 1927 006e A307F4FE 		sb	a5,-17(s0)
 1928 0072 45A8     		j	.L102
 1929              	.L97:
 684:Drivers/src/ch32v20x_can.c ****     }
 685:Drivers/src/ch32v20x_can.c ****   }
 686:Drivers/src/ch32v20x_can.c ****   else if (CAN_OperatingMode == CAN_OperatingMode_Normal)
 1930              		.loc 1 686 11
 1931 0074 0347B4FD 		lbu	a4,-37(s0)
 1932 0078 8547     		li	a5,1
 1933 007a 6314F704 		bne	a4,a5,.L103
 687:Drivers/src/ch32v20x_can.c ****   {
 688:Drivers/src/ch32v20x_can.c ****     CANx->CTLR &= (uint32_t)(~(CAN_CTLR_SLEEP|CAN_CTLR_INRQ));
 1934              		.loc 1 688 9
 1935 007e 8327C4FD 		lw	a5,-36(s0)
 1936 0082 9C43     		lw	a5,0(a5)
 1937              		.loc 1 688 16
GAS LISTING C:\Users\SOLDER~1\AppData\Local\Temp\ccYCTqm0.s 			page 48


 1938 0084 13F7C7FF 		andi	a4,a5,-4
 1939 0088 8327C4FD 		lw	a5,-36(s0)
 1940 008c 98C3     		sw	a4,0(a5)
 689:Drivers/src/ch32v20x_can.c **** 
 690:Drivers/src/ch32v20x_can.c ****     while (((CANx->STATR & CAN_MODE_MASK) != 0) && (timeout!=0))
 1941              		.loc 1 690 11
 1942 008e 31A0     		j	.L104
 1943              	.L106:
 691:Drivers/src/ch32v20x_can.c ****     {
 692:Drivers/src/ch32v20x_can.c ****       timeout--;
 1944              		.loc 1 692 14
 1945 0090 832784FE 		lw	a5,-24(s0)
 1946 0094 FD17     		addi	a5,a5,-1
 1947 0096 2324F4FE 		sw	a5,-24(s0)
 1948              	.L104:
 690:Drivers/src/ch32v20x_can.c ****     {
 1949              		.loc 1 690 18
 1950 009a 8327C4FD 		lw	a5,-36(s0)
 1951 009e DC43     		lw	a5,4(a5)
 690:Drivers/src/ch32v20x_can.c ****     {
 1952              		.loc 1 690 26
 1953 00a0 8D8B     		andi	a5,a5,3
 690:Drivers/src/ch32v20x_can.c ****     {
 1954              		.loc 1 690 49
 1955 00a2 81C7     		beq	a5,zero,.L105
 690:Drivers/src/ch32v20x_can.c ****     {
 1956              		.loc 1 690 49 is_stmt 0 discriminator 1
 1957 00a4 832784FE 		lw	a5,-24(s0)
 1958 00a8 E5F7     		bne	a5,zero,.L106
 1959              	.L105:
 693:Drivers/src/ch32v20x_can.c ****     }
 694:Drivers/src/ch32v20x_can.c ****     if ((CANx->STATR & CAN_MODE_MASK) != 0)
 1960              		.loc 1 694 14 is_stmt 1
 1961 00aa 8327C4FD 		lw	a5,-36(s0)
 1962 00ae DC43     		lw	a5,4(a5)
 1963              		.loc 1 694 22
 1964 00b0 8D8B     		andi	a5,a5,3
 1965              		.loc 1 694 8
 1966 00b2 81C7     		beq	a5,zero,.L107
 695:Drivers/src/ch32v20x_can.c ****     {
 696:Drivers/src/ch32v20x_can.c ****       status = CAN_ModeStatus_Failed;
 1967              		.loc 1 696 14
 1968 00b4 A30704FE 		sb	zero,-17(s0)
 1969 00b8 ADA0     		j	.L102
 1970              	.L107:
 697:Drivers/src/ch32v20x_can.c ****     }
 698:Drivers/src/ch32v20x_can.c ****     else
 699:Drivers/src/ch32v20x_can.c ****     {
 700:Drivers/src/ch32v20x_can.c ****       status = CAN_ModeStatus_Success;
 1971              		.loc 1 700 14
 1972 00ba 8547     		li	a5,1
 1973 00bc A307F4FE 		sb	a5,-17(s0)
 1974 00c0 8DA0     		j	.L102
 1975              	.L103:
 701:Drivers/src/ch32v20x_can.c ****     }
 702:Drivers/src/ch32v20x_can.c ****   }
 703:Drivers/src/ch32v20x_can.c ****   else if (CAN_OperatingMode == CAN_OperatingMode_Sleep)
GAS LISTING C:\Users\SOLDER~1\AppData\Local\Temp\ccYCTqm0.s 			page 49


 1976              		.loc 1 703 11
 1977 00c2 0347B4FD 		lbu	a4,-37(s0)
 1978 00c6 8947     		li	a5,2
 1979 00c8 631BF704 		bne	a4,a5,.L108
 704:Drivers/src/ch32v20x_can.c ****   {
 705:Drivers/src/ch32v20x_can.c ****     CANx->CTLR = (uint32_t)((CANx->CTLR & (uint32_t)(~(uint32_t)CAN_CTLR_INRQ)) | CAN_CTLR_SLEEP);
 1980              		.loc 1 705 34
 1981 00cc 8327C4FD 		lw	a5,-36(s0)
 1982 00d0 9C43     		lw	a5,0(a5)
 1983              		.loc 1 705 18
 1984 00d2 F19B     		andi	a5,a5,-4
 1985 00d4 13E72700 		ori	a4,a5,2
 1986              		.loc 1 705 16
 1987 00d8 8327C4FD 		lw	a5,-36(s0)
 1988 00dc 98C3     		sw	a4,0(a5)
 706:Drivers/src/ch32v20x_can.c **** 
 707:Drivers/src/ch32v20x_can.c ****     while (((CANx->STATR & CAN_MODE_MASK) != CAN_STATR_SLAK) && (timeout!=0))
 1989              		.loc 1 707 11
 1990 00de 31A0     		j	.L109
 1991              	.L111:
 708:Drivers/src/ch32v20x_can.c ****     {
 709:Drivers/src/ch32v20x_can.c ****       timeout--;
 1992              		.loc 1 709 14
 1993 00e0 832784FE 		lw	a5,-24(s0)
 1994 00e4 FD17     		addi	a5,a5,-1
 1995 00e6 2324F4FE 		sw	a5,-24(s0)
 1996              	.L109:
 707:Drivers/src/ch32v20x_can.c ****     {
 1997              		.loc 1 707 18
 1998 00ea 8327C4FD 		lw	a5,-36(s0)
 1999 00ee DC43     		lw	a5,4(a5)
 707:Drivers/src/ch32v20x_can.c ****     {
 2000              		.loc 1 707 26
 2001 00f0 13F73700 		andi	a4,a5,3
 707:Drivers/src/ch32v20x_can.c ****     {
 2002              		.loc 1 707 62
 2003 00f4 8947     		li	a5,2
 2004 00f6 6305F700 		beq	a4,a5,.L110
 707:Drivers/src/ch32v20x_can.c ****     {
 2005              		.loc 1 707 62 is_stmt 0 discriminator 1
 2006 00fa 832784FE 		lw	a5,-24(s0)
 2007 00fe EDF3     		bne	a5,zero,.L111
 2008              	.L110:
 710:Drivers/src/ch32v20x_can.c ****     }
 711:Drivers/src/ch32v20x_can.c ****     if ((CANx->STATR & CAN_MODE_MASK) != CAN_STATR_SLAK)
 2009              		.loc 1 711 14 is_stmt 1
 2010 0100 8327C4FD 		lw	a5,-36(s0)
 2011 0104 DC43     		lw	a5,4(a5)
 2012              		.loc 1 711 22
 2013 0106 13F73700 		andi	a4,a5,3
 2014              		.loc 1 711 8
 2015 010a 8947     		li	a5,2
 2016 010c 6305F700 		beq	a4,a5,.L112
 712:Drivers/src/ch32v20x_can.c ****     {
 713:Drivers/src/ch32v20x_can.c ****       status = CAN_ModeStatus_Failed;
 2017              		.loc 1 713 14
 2018 0110 A30704FE 		sb	zero,-17(s0)
GAS LISTING C:\Users\SOLDER~1\AppData\Local\Temp\ccYCTqm0.s 			page 50


 2019 0114 39A0     		j	.L102
 2020              	.L112:
 714:Drivers/src/ch32v20x_can.c ****     }
 715:Drivers/src/ch32v20x_can.c ****     else
 716:Drivers/src/ch32v20x_can.c ****     {
 717:Drivers/src/ch32v20x_can.c ****       status = CAN_ModeStatus_Success;
 2021              		.loc 1 717 14
 2022 0116 8547     		li	a5,1
 2023 0118 A307F4FE 		sb	a5,-17(s0)
 2024 011c 19A0     		j	.L102
 2025              	.L108:
 718:Drivers/src/ch32v20x_can.c ****     }
 719:Drivers/src/ch32v20x_can.c ****   }
 720:Drivers/src/ch32v20x_can.c ****   else
 721:Drivers/src/ch32v20x_can.c ****   {
 722:Drivers/src/ch32v20x_can.c ****     status = CAN_ModeStatus_Failed;
 2026              		.loc 1 722 12
 2027 011e A30704FE 		sb	zero,-17(s0)
 2028              	.L102:
 723:Drivers/src/ch32v20x_can.c ****   }
 724:Drivers/src/ch32v20x_can.c **** 
 725:Drivers/src/ch32v20x_can.c ****   return  (uint8_t) status;
 2029              		.loc 1 725 11
 2030 0122 8347F4FE 		lbu	a5,-17(s0)
 726:Drivers/src/ch32v20x_can.c **** }
 2031              		.loc 1 726 1
 2032 0126 3E85     		mv	a0,a5
 2033 0128 3254     		lw	s0,44(sp)
 2034              		.cfi_restore 8
 2035              		.cfi_def_cfa 2, 48
 2036 012a 4561     		addi	sp,sp,48
 2037              		.cfi_def_cfa_offset 0
 2038 012c 8280     		jr	ra
 2039              		.cfi_endproc
 2040              	.LFE29:
 2042              		.section	.text.CAN_Sleep,"ax",@progbits
 2043              		.align	1
 2044              		.globl	CAN_Sleep
 2046              	CAN_Sleep:
 2047              	.LFB30:
 727:Drivers/src/ch32v20x_can.c **** 
 728:Drivers/src/ch32v20x_can.c **** /*********************************************************************
 729:Drivers/src/ch32v20x_can.c ****  * @fn      CAN_Sleep
 730:Drivers/src/ch32v20x_can.c ****  *
 731:Drivers/src/ch32v20x_can.c ****  * @brief   Enters the low power mode.
 732:Drivers/src/ch32v20x_can.c ****  *
 733:Drivers/src/ch32v20x_can.c ****  * @param   CANx - where x can be 1 to select the CAN peripheral.
 734:Drivers/src/ch32v20x_can.c ****  *
 735:Drivers/src/ch32v20x_can.c ****  * @return  sleepstatus -
 736:Drivers/src/ch32v20x_can.c ****  *            CAN_Sleep_Ok.
 737:Drivers/src/ch32v20x_can.c ****  *            CAN_Sleep_Failed.
 738:Drivers/src/ch32v20x_can.c ****  */
 739:Drivers/src/ch32v20x_can.c **** uint8_t CAN_Sleep(CAN_TypeDef* CANx)
 740:Drivers/src/ch32v20x_can.c **** {
 2048              		.loc 1 740 1
 2049              		.cfi_startproc
 2050 0000 7971     		addi	sp,sp,-48
GAS LISTING C:\Users\SOLDER~1\AppData\Local\Temp\ccYCTqm0.s 			page 51


 2051              		.cfi_def_cfa_offset 48
 2052 0002 22D6     		sw	s0,44(sp)
 2053              		.cfi_offset 8, -4
 2054 0004 0018     		addi	s0,sp,48
 2055              		.cfi_def_cfa 8, 0
 2056 0006 232EA4FC 		sw	a0,-36(s0)
 741:Drivers/src/ch32v20x_can.c ****   uint8_t sleepstatus = CAN_Sleep_Failed;
 2057              		.loc 1 741 11
 2058 000a A30704FE 		sb	zero,-17(s0)
 742:Drivers/src/ch32v20x_can.c **** 
 743:Drivers/src/ch32v20x_can.c ****   CANx->CTLR = (((CANx->CTLR) & (uint32_t)(~(uint32_t)CAN_CTLR_INRQ)) | CAN_CTLR_SLEEP);
 2059              		.loc 1 743 23
 2060 000e 8327C4FD 		lw	a5,-36(s0)
 2061 0012 9C43     		lw	a5,0(a5)
 2062              		.loc 1 743 71
 2063 0014 F19B     		andi	a5,a5,-4
 2064 0016 13E72700 		ori	a4,a5,2
 2065              		.loc 1 743 14
 2066 001a 8327C4FD 		lw	a5,-36(s0)
 2067 001e 98C3     		sw	a4,0(a5)
 744:Drivers/src/ch32v20x_can.c ****    
 745:Drivers/src/ch32v20x_can.c ****   if ((CANx->STATR & (CAN_STATR_SLAK|CAN_STATR_INAK)) == CAN_STATR_SLAK)
 2068              		.loc 1 745 12
 2069 0020 8327C4FD 		lw	a5,-36(s0)
 2070 0024 DC43     		lw	a5,4(a5)
 2071              		.loc 1 745 20
 2072 0026 13F73700 		andi	a4,a5,3
 2073              		.loc 1 745 6
 2074 002a 8947     		li	a5,2
 2075 002c 6315F700 		bne	a4,a5,.L115
 746:Drivers/src/ch32v20x_can.c ****   {
 747:Drivers/src/ch32v20x_can.c ****     sleepstatus =  CAN_Sleep_Ok;
 2076              		.loc 1 747 17
 2077 0030 8547     		li	a5,1
 2078 0032 A307F4FE 		sb	a5,-17(s0)
 2079              	.L115:
 748:Drivers/src/ch32v20x_can.c ****   }
 749:Drivers/src/ch32v20x_can.c **** 	
 750:Drivers/src/ch32v20x_can.c ****   return (uint8_t)sleepstatus;
 2080              		.loc 1 750 10
 2081 0036 8347F4FE 		lbu	a5,-17(s0)
 751:Drivers/src/ch32v20x_can.c **** }
 2082              		.loc 1 751 1
 2083 003a 3E85     		mv	a0,a5
 2084 003c 3254     		lw	s0,44(sp)
 2085              		.cfi_restore 8
 2086              		.cfi_def_cfa 2, 48
 2087 003e 4561     		addi	sp,sp,48
 2088              		.cfi_def_cfa_offset 0
 2089 0040 8280     		jr	ra
 2090              		.cfi_endproc
 2091              	.LFE30:
 2093              		.section	.text.CAN_WakeUp,"ax",@progbits
 2094              		.align	1
 2095              		.globl	CAN_WakeUp
 2097              	CAN_WakeUp:
 2098              	.LFB31:
GAS LISTING C:\Users\SOLDER~1\AppData\Local\Temp\ccYCTqm0.s 			page 52


 752:Drivers/src/ch32v20x_can.c **** 
 753:Drivers/src/ch32v20x_can.c **** /*********************************************************************
 754:Drivers/src/ch32v20x_can.c ****  * @fn      CAN_WakeUp
 755:Drivers/src/ch32v20x_can.c ****  *
 756:Drivers/src/ch32v20x_can.c ****  * @brief   Wakes the CAN up.
 757:Drivers/src/ch32v20x_can.c ****  *
 758:Drivers/src/ch32v20x_can.c ****  * @param   CANx - where x can be 1 to select the CAN peripheral.
 759:Drivers/src/ch32v20x_can.c ****  *
 760:Drivers/src/ch32v20x_can.c ****  * @return  wakeupstatus -
 761:Drivers/src/ch32v20x_can.c ****  *            CAN_WakeUp_Ok.
 762:Drivers/src/ch32v20x_can.c ****  *            CAN_WakeUp_Failed.
 763:Drivers/src/ch32v20x_can.c ****  */
 764:Drivers/src/ch32v20x_can.c **** uint8_t CAN_WakeUp(CAN_TypeDef* CANx)
 765:Drivers/src/ch32v20x_can.c **** {
 2099              		.loc 1 765 1
 2100              		.cfi_startproc
 2101 0000 7971     		addi	sp,sp,-48
 2102              		.cfi_def_cfa_offset 48
 2103 0002 22D6     		sw	s0,44(sp)
 2104              		.cfi_offset 8, -4
 2105 0004 0018     		addi	s0,sp,48
 2106              		.cfi_def_cfa 8, 0
 2107 0006 232EA4FC 		sw	a0,-36(s0)
 766:Drivers/src/ch32v20x_can.c ****   uint32_t wait_slak = SLAK_TIMEOUT;
 2108              		.loc 1 766 12
 2109 000a C167     		li	a5,65536
 2110 000c FD17     		addi	a5,a5,-1
 2111 000e 2326F4FE 		sw	a5,-20(s0)
 767:Drivers/src/ch32v20x_can.c ****   uint8_t wakeupstatus = CAN_WakeUp_Failed;
 2112              		.loc 1 767 11
 2113 0012 A30504FE 		sb	zero,-21(s0)
 768:Drivers/src/ch32v20x_can.c ****     
 769:Drivers/src/ch32v20x_can.c ****   CANx->CTLR &= ~(uint32_t)CAN_CTLR_SLEEP;
 2114              		.loc 1 769 7
 2115 0016 8327C4FD 		lw	a5,-36(s0)
 2116 001a 9C43     		lw	a5,0(a5)
 2117              		.loc 1 769 14
 2118 001c 13F7D7FF 		andi	a4,a5,-3
 2119 0020 8327C4FD 		lw	a5,-36(s0)
 2120 0024 98C3     		sw	a4,0(a5)
 770:Drivers/src/ch32v20x_can.c ****     
 771:Drivers/src/ch32v20x_can.c ****   while(((CANx->STATR & CAN_STATR_SLAK) == CAN_STATR_SLAK)&&(wait_slak!=0x00))
 2121              		.loc 1 771 8
 2122 0026 31A0     		j	.L118
 2123              	.L120:
 772:Drivers/src/ch32v20x_can.c ****   {
 773:Drivers/src/ch32v20x_can.c ****    wait_slak--;
 2124              		.loc 1 773 13
 2125 0028 8327C4FE 		lw	a5,-20(s0)
 2126 002c FD17     		addi	a5,a5,-1
 2127 002e 2326F4FE 		sw	a5,-20(s0)
 2128              	.L118:
 771:Drivers/src/ch32v20x_can.c ****   {
 2129              		.loc 1 771 15
 2130 0032 8327C4FD 		lw	a5,-36(s0)
 2131 0036 DC43     		lw	a5,4(a5)
 771:Drivers/src/ch32v20x_can.c ****   {
GAS LISTING C:\Users\SOLDER~1\AppData\Local\Temp\ccYCTqm0.s 			page 53


 2132              		.loc 1 771 23
 2133 0038 13F72700 		andi	a4,a5,2
 771:Drivers/src/ch32v20x_can.c ****   {
 2134              		.loc 1 771 59
 2135 003c 8947     		li	a5,2
 2136 003e 6315F700 		bne	a4,a5,.L119
 771:Drivers/src/ch32v20x_can.c ****   {
 2137              		.loc 1 771 59 is_stmt 0 discriminator 1
 2138 0042 8327C4FE 		lw	a5,-20(s0)
 2139 0046 EDF3     		bne	a5,zero,.L120
 2140              	.L119:
 774:Drivers/src/ch32v20x_can.c ****   }
 775:Drivers/src/ch32v20x_can.c ****   if((CANx->STATR & CAN_STATR_SLAK) != CAN_STATR_SLAK)
 2141              		.loc 1 775 11 is_stmt 1
 2142 0048 8327C4FD 		lw	a5,-36(s0)
 2143 004c DC43     		lw	a5,4(a5)
 2144              		.loc 1 775 19
 2145 004e 13F72700 		andi	a4,a5,2
 2146              		.loc 1 775 5
 2147 0052 8947     		li	a5,2
 2148 0054 6305F700 		beq	a4,a5,.L121
 776:Drivers/src/ch32v20x_can.c ****   {
 777:Drivers/src/ch32v20x_can.c ****     wakeupstatus = CAN_WakeUp_Ok;
 2149              		.loc 1 777 18
 2150 0058 8547     		li	a5,1
 2151 005a A305F4FE 		sb	a5,-21(s0)
 2152              	.L121:
 778:Drivers/src/ch32v20x_can.c ****   }
 779:Drivers/src/ch32v20x_can.c **** 
 780:Drivers/src/ch32v20x_can.c ****   return (uint8_t)wakeupstatus;
 2153              		.loc 1 780 10
 2154 005e 8347B4FE 		lbu	a5,-21(s0)
 781:Drivers/src/ch32v20x_can.c **** }
 2155              		.loc 1 781 1
 2156 0062 3E85     		mv	a0,a5
 2157 0064 3254     		lw	s0,44(sp)
 2158              		.cfi_restore 8
 2159              		.cfi_def_cfa 2, 48
 2160 0066 4561     		addi	sp,sp,48
 2161              		.cfi_def_cfa_offset 0
 2162 0068 8280     		jr	ra
 2163              		.cfi_endproc
 2164              	.LFE31:
 2166              		.section	.text.CAN_GetLastErrorCode,"ax",@progbits
 2167              		.align	1
 2168              		.globl	CAN_GetLastErrorCode
 2170              	CAN_GetLastErrorCode:
 2171              	.LFB32:
 782:Drivers/src/ch32v20x_can.c **** 
 783:Drivers/src/ch32v20x_can.c **** /*********************************************************************
 784:Drivers/src/ch32v20x_can.c ****  * @fn      CAN_GetLastErrorCode
 785:Drivers/src/ch32v20x_can.c ****  *
 786:Drivers/src/ch32v20x_can.c ****  * @brief   Returns the CANx's last error code (LEC).
 787:Drivers/src/ch32v20x_can.c ****  *
 788:Drivers/src/ch32v20x_can.c ****  * @param   CANx - where x can be 1 to select the CAN peripheral.
 789:Drivers/src/ch32v20x_can.c ****  *
 790:Drivers/src/ch32v20x_can.c ****  * @return  errorcode - specifies the Error code.
GAS LISTING C:\Users\SOLDER~1\AppData\Local\Temp\ccYCTqm0.s 			page 54


 791:Drivers/src/ch32v20x_can.c ****  *            CAN_ErrorCode_NoErr - No Error.
 792:Drivers/src/ch32v20x_can.c ****  *            CAN_ErrorCode_StuffErr - Stuff Error.
 793:Drivers/src/ch32v20x_can.c ****  *            CAN_ErrorCode_FormErr - Form Error.
 794:Drivers/src/ch32v20x_can.c ****  *            CAN_ErrorCode_ACKErr - Acknowledgment Error.
 795:Drivers/src/ch32v20x_can.c ****  *            CAN_ErrorCode_BitRecessiveErr - Bit Recessive Error.
 796:Drivers/src/ch32v20x_can.c ****  *            CAN_ErrorCode_BitDominantErr - Bit Dominant Error.
 797:Drivers/src/ch32v20x_can.c ****  *            CAN_ErrorCode_CRCErr - CRC Error.
 798:Drivers/src/ch32v20x_can.c ****  *            CAN_ErrorCode_SoftwareSetErr - Software Set Error.
 799:Drivers/src/ch32v20x_can.c ****  */
 800:Drivers/src/ch32v20x_can.c **** uint8_t CAN_GetLastErrorCode(CAN_TypeDef* CANx)
 801:Drivers/src/ch32v20x_can.c **** {
 2172              		.loc 1 801 1
 2173              		.cfi_startproc
 2174 0000 7971     		addi	sp,sp,-48
 2175              		.cfi_def_cfa_offset 48
 2176 0002 22D6     		sw	s0,44(sp)
 2177              		.cfi_offset 8, -4
 2178 0004 0018     		addi	s0,sp,48
 2179              		.cfi_def_cfa 8, 0
 2180 0006 232EA4FC 		sw	a0,-36(s0)
 802:Drivers/src/ch32v20x_can.c ****   uint8_t errorcode=0;
 2181              		.loc 1 802 11
 2182 000a A30704FE 		sb	zero,-17(s0)
 803:Drivers/src/ch32v20x_can.c ****   
 804:Drivers/src/ch32v20x_can.c ****   errorcode = (((uint8_t)CANx->ERRSR) & (uint8_t)CAN_ERRSR_LEC);
 2183              		.loc 1 804 30
 2184 000e 8327C4FD 		lw	a5,-36(s0)
 2185 0012 9C4F     		lw	a5,24(a5)
 2186              		.loc 1 804 39
 2187 0014 93F7F70F 		andi	a5,a5,0xff
 2188              		.loc 1 804 13
 2189 0018 93F70707 		andi	a5,a5,112
 2190 001c A307F4FE 		sb	a5,-17(s0)
 805:Drivers/src/ch32v20x_can.c ****   
 806:Drivers/src/ch32v20x_can.c ****   return errorcode;
 2191              		.loc 1 806 10
 2192 0020 8347F4FE 		lbu	a5,-17(s0)
 807:Drivers/src/ch32v20x_can.c **** }
 2193              		.loc 1 807 1
 2194 0024 3E85     		mv	a0,a5
 2195 0026 3254     		lw	s0,44(sp)
 2196              		.cfi_restore 8
 2197              		.cfi_def_cfa 2, 48
 2198 0028 4561     		addi	sp,sp,48
 2199              		.cfi_def_cfa_offset 0
 2200 002a 8280     		jr	ra
 2201              		.cfi_endproc
 2202              	.LFE32:
 2204              		.section	.text.CAN_GetReceiveErrorCounter,"ax",@progbits
 2205              		.align	1
 2206              		.globl	CAN_GetReceiveErrorCounter
 2208              	CAN_GetReceiveErrorCounter:
 2209              	.LFB33:
 808:Drivers/src/ch32v20x_can.c **** 
 809:Drivers/src/ch32v20x_can.c **** /*********************************************************************
 810:Drivers/src/ch32v20x_can.c ****  * @fn      CAN_GetReceiveErrorCounter
 811:Drivers/src/ch32v20x_can.c ****  *
GAS LISTING C:\Users\SOLDER~1\AppData\Local\Temp\ccYCTqm0.s 			page 55


 812:Drivers/src/ch32v20x_can.c ****  * @brief   Returns the CANx Receive Error Counter (REC).
 813:Drivers/src/ch32v20x_can.c ****  *
 814:Drivers/src/ch32v20x_can.c ****  * @param   CANx - where x can be 1 to select the CAN peripheral.
 815:Drivers/src/ch32v20x_can.c ****  *         Note-   
 816:Drivers/src/ch32v20x_can.c ****  *         In case of an error during reception, this counter is incremented 
 817:Drivers/src/ch32v20x_can.c ****  *         by 1 or by 8 depending on the error condition as defined by the CAN 
 818:Drivers/src/ch32v20x_can.c ****  *         standard. After every successful reception, the counter is 
 819:Drivers/src/ch32v20x_can.c ****  *         decremented by 1 or reset to 120 if its value was higher than 128. 
 820:Drivers/src/ch32v20x_can.c ****  *         When the counter value exceeds 127, the CAN controller enters the 
 821:Drivers/src/ch32v20x_can.c ****  *         error passive state.  
 822:Drivers/src/ch32v20x_can.c ****  * @return  counter - CAN Receive Error Counter.
 823:Drivers/src/ch32v20x_can.c ****  */
 824:Drivers/src/ch32v20x_can.c **** uint8_t CAN_GetReceiveErrorCounter(CAN_TypeDef* CANx)
 825:Drivers/src/ch32v20x_can.c **** {
 2210              		.loc 1 825 1
 2211              		.cfi_startproc
 2212 0000 7971     		addi	sp,sp,-48
 2213              		.cfi_def_cfa_offset 48
 2214 0002 22D6     		sw	s0,44(sp)
 2215              		.cfi_offset 8, -4
 2216 0004 0018     		addi	s0,sp,48
 2217              		.cfi_def_cfa 8, 0
 2218 0006 232EA4FC 		sw	a0,-36(s0)
 826:Drivers/src/ch32v20x_can.c ****   uint8_t counter=0;
 2219              		.loc 1 826 11
 2220 000a A30704FE 		sb	zero,-17(s0)
 827:Drivers/src/ch32v20x_can.c ****    
 828:Drivers/src/ch32v20x_can.c ****   counter = (uint8_t)((CANx->ERRSR & CAN_ERRSR_REC)>> 24);
 2221              		.loc 1 828 28
 2222 000e 8327C4FD 		lw	a5,-36(s0)
 2223 0012 9C4F     		lw	a5,24(a5)
 2224              		.loc 1 828 52
 2225 0014 E183     		srli	a5,a5,24
 2226              		.loc 1 828 11
 2227 0016 A307F4FE 		sb	a5,-17(s0)
 829:Drivers/src/ch32v20x_can.c ****   
 830:Drivers/src/ch32v20x_can.c ****   return counter;
 2228              		.loc 1 830 10
 2229 001a 8347F4FE 		lbu	a5,-17(s0)
 831:Drivers/src/ch32v20x_can.c **** }
 2230              		.loc 1 831 1
 2231 001e 3E85     		mv	a0,a5
 2232 0020 3254     		lw	s0,44(sp)
 2233              		.cfi_restore 8
 2234              		.cfi_def_cfa 2, 48
 2235 0022 4561     		addi	sp,sp,48
 2236              		.cfi_def_cfa_offset 0
 2237 0024 8280     		jr	ra
 2238              		.cfi_endproc
 2239              	.LFE33:
 2241              		.section	.text.CAN_GetLSBTransmitErrorCounter,"ax",@progbits
 2242              		.align	1
 2243              		.globl	CAN_GetLSBTransmitErrorCounter
 2245              	CAN_GetLSBTransmitErrorCounter:
 2246              	.LFB34:
 832:Drivers/src/ch32v20x_can.c **** 
 833:Drivers/src/ch32v20x_can.c **** /*********************************************************************
GAS LISTING C:\Users\SOLDER~1\AppData\Local\Temp\ccYCTqm0.s 			page 56


 834:Drivers/src/ch32v20x_can.c ****  * @fn      CAN_GetLSBTransmitErrorCounter
 835:Drivers/src/ch32v20x_can.c ****  *
 836:Drivers/src/ch32v20x_can.c ****  * @brief   Returns the LSB of the 9-bit CANx Transmit Error Counter(TEC).
 837:Drivers/src/ch32v20x_can.c ****  *
 838:Drivers/src/ch32v20x_can.c ****  * @param   CANx - where x can be 1 to select the CAN peripheral.
 839:Drivers/src/ch32v20x_can.c ****  *
 840:Drivers/src/ch32v20x_can.c ****  * @return  counter - LSB of the 9-bit CAN Transmit Error Counter.
 841:Drivers/src/ch32v20x_can.c ****  */
 842:Drivers/src/ch32v20x_can.c **** uint8_t CAN_GetLSBTransmitErrorCounter(CAN_TypeDef* CANx)
 843:Drivers/src/ch32v20x_can.c **** {
 2247              		.loc 1 843 1
 2248              		.cfi_startproc
 2249 0000 7971     		addi	sp,sp,-48
 2250              		.cfi_def_cfa_offset 48
 2251 0002 22D6     		sw	s0,44(sp)
 2252              		.cfi_offset 8, -4
 2253 0004 0018     		addi	s0,sp,48
 2254              		.cfi_def_cfa 8, 0
 2255 0006 232EA4FC 		sw	a0,-36(s0)
 844:Drivers/src/ch32v20x_can.c ****   uint8_t counter=0;
 2256              		.loc 1 844 11
 2257 000a A30704FE 		sb	zero,-17(s0)
 845:Drivers/src/ch32v20x_can.c ****   
 846:Drivers/src/ch32v20x_can.c ****   counter = (uint8_t)((CANx->ERRSR & CAN_ERRSR_TEC)>> 16);
 2258              		.loc 1 846 28
 2259 000e 8327C4FD 		lw	a5,-36(s0)
 2260 0012 9C4F     		lw	a5,24(a5)
 2261              		.loc 1 846 52
 2262 0014 C183     		srli	a5,a5,16
 2263              		.loc 1 846 11
 2264 0016 A307F4FE 		sb	a5,-17(s0)
 847:Drivers/src/ch32v20x_can.c ****   
 848:Drivers/src/ch32v20x_can.c ****   return counter;
 2265              		.loc 1 848 10
 2266 001a 8347F4FE 		lbu	a5,-17(s0)
 849:Drivers/src/ch32v20x_can.c **** }
 2267              		.loc 1 849 1
 2268 001e 3E85     		mv	a0,a5
 2269 0020 3254     		lw	s0,44(sp)
 2270              		.cfi_restore 8
 2271              		.cfi_def_cfa 2, 48
 2272 0022 4561     		addi	sp,sp,48
 2273              		.cfi_def_cfa_offset 0
 2274 0024 8280     		jr	ra
 2275              		.cfi_endproc
 2276              	.LFE34:
 2278              		.section	.text.CAN_ITConfig,"ax",@progbits
 2279              		.align	1
 2280              		.globl	CAN_ITConfig
 2282              	CAN_ITConfig:
 2283              	.LFB35:
 850:Drivers/src/ch32v20x_can.c **** 
 851:Drivers/src/ch32v20x_can.c **** /*********************************************************************
 852:Drivers/src/ch32v20x_can.c ****  * @fn      CAN_ITConfig
 853:Drivers/src/ch32v20x_can.c ****  *
 854:Drivers/src/ch32v20x_can.c ****  * @brief   Enables or disables the specified CANx interrupts.
 855:Drivers/src/ch32v20x_can.c ****  *
GAS LISTING C:\Users\SOLDER~1\AppData\Local\Temp\ccYCTqm0.s 			page 57


 856:Drivers/src/ch32v20x_can.c ****  * @param   CANx - where x can be 1 to select the CAN peripheral.
 857:Drivers/src/ch32v20x_can.c ****  *          CAN_IT - specifies the CAN interrupt sources to be enabled or disabled.
 858:Drivers/src/ch32v20x_can.c ****  *            CAN_IT_TME.
 859:Drivers/src/ch32v20x_can.c ****  *            CAN_IT_FMP0.
 860:Drivers/src/ch32v20x_can.c ****  *            CAN_IT_FF0.
 861:Drivers/src/ch32v20x_can.c ****  *            CAN_IT_FOV0.
 862:Drivers/src/ch32v20x_can.c ****  *            CAN_IT_FMP1.
 863:Drivers/src/ch32v20x_can.c ****  *            CAN_IT_FF1.
 864:Drivers/src/ch32v20x_can.c ****  *            CAN_IT_FOV1.
 865:Drivers/src/ch32v20x_can.c ****  *            CAN_IT_EWG.
 866:Drivers/src/ch32v20x_can.c ****  *            CAN_IT_EPV.
 867:Drivers/src/ch32v20x_can.c ****  *            CAN_IT_LEC.
 868:Drivers/src/ch32v20x_can.c ****  *            CAN_IT_ERR.
 869:Drivers/src/ch32v20x_can.c ****  *            CAN_IT_WKU.
 870:Drivers/src/ch32v20x_can.c ****  *            CAN_IT_SLK.
 871:Drivers/src/ch32v20x_can.c ****  *          NewState - ENABLE or DISABLE.
 872:Drivers/src/ch32v20x_can.c ****  *
 873:Drivers/src/ch32v20x_can.c ****  * @return  counter - LSB of the 9-bit CAN Transmit Error Counter.
 874:Drivers/src/ch32v20x_can.c ****  */
 875:Drivers/src/ch32v20x_can.c **** void CAN_ITConfig(CAN_TypeDef* CANx, uint32_t CAN_IT, FunctionalState NewState)
 876:Drivers/src/ch32v20x_can.c **** {
 2284              		.loc 1 876 1
 2285              		.cfi_startproc
 2286 0000 0111     		addi	sp,sp,-32
 2287              		.cfi_def_cfa_offset 32
 2288 0002 22CE     		sw	s0,28(sp)
 2289              		.cfi_offset 8, -4
 2290 0004 0010     		addi	s0,sp,32
 2291              		.cfi_def_cfa 8, 0
 2292 0006 2326A4FE 		sw	a0,-20(s0)
 2293 000a 2324B4FE 		sw	a1,-24(s0)
 2294 000e 2322C4FE 		sw	a2,-28(s0)
 877:Drivers/src/ch32v20x_can.c ****   if (NewState != DISABLE)
 2295              		.loc 1 877 6
 2296 0012 832744FE 		lw	a5,-28(s0)
 2297 0016 99CB     		beq	a5,zero,.L130
 878:Drivers/src/ch32v20x_can.c ****   {
 879:Drivers/src/ch32v20x_can.c ****     CANx->INTENR |= CAN_IT;
 2298              		.loc 1 879 9
 2299 0018 8327C4FE 		lw	a5,-20(s0)
 2300 001c D84B     		lw	a4,20(a5)
 2301              		.loc 1 879 18
 2302 001e 832784FE 		lw	a5,-24(s0)
 2303 0022 5D8F     		or	a4,a4,a5
 2304 0024 8327C4FE 		lw	a5,-20(s0)
 2305 0028 D8CB     		sw	a4,20(a5)
 880:Drivers/src/ch32v20x_can.c ****   }
 881:Drivers/src/ch32v20x_can.c ****   else
 882:Drivers/src/ch32v20x_can.c ****   {
 883:Drivers/src/ch32v20x_can.c ****     CANx->INTENR &= ~CAN_IT;
 884:Drivers/src/ch32v20x_can.c ****   }
 885:Drivers/src/ch32v20x_can.c **** }
 2306              		.loc 1 885 1
 2307 002a 21A8     		j	.L132
 2308              	.L130:
 883:Drivers/src/ch32v20x_can.c ****   }
 2309              		.loc 1 883 9
GAS LISTING C:\Users\SOLDER~1\AppData\Local\Temp\ccYCTqm0.s 			page 58


 2310 002c 8327C4FE 		lw	a5,-20(s0)
 2311 0030 D84B     		lw	a4,20(a5)
 883:Drivers/src/ch32v20x_can.c ****   }
 2312              		.loc 1 883 21
 2313 0032 832784FE 		lw	a5,-24(s0)
 2314 0036 93C7F7FF 		not	a5,a5
 883:Drivers/src/ch32v20x_can.c ****   }
 2315              		.loc 1 883 18
 2316 003a 7D8F     		and	a4,a4,a5
 2317 003c 8327C4FE 		lw	a5,-20(s0)
 2318 0040 D8CB     		sw	a4,20(a5)
 2319              	.L132:
 2320              		.loc 1 885 1
 2321 0042 0100     		nop
 2322 0044 7244     		lw	s0,28(sp)
 2323              		.cfi_restore 8
 2324              		.cfi_def_cfa 2, 32
 2325 0046 0561     		addi	sp,sp,32
 2326              		.cfi_def_cfa_offset 0
 2327 0048 8280     		jr	ra
 2328              		.cfi_endproc
 2329              	.LFE35:
 2331              		.section	.text.CAN_GetFlagStatus,"ax",@progbits
 2332              		.align	1
 2333              		.globl	CAN_GetFlagStatus
 2335              	CAN_GetFlagStatus:
 2336              	.LFB36:
 886:Drivers/src/ch32v20x_can.c **** 
 887:Drivers/src/ch32v20x_can.c **** /*********************************************************************
 888:Drivers/src/ch32v20x_can.c ****  * @fn      CAN_GetFlagStatus
 889:Drivers/src/ch32v20x_can.c ****  *
 890:Drivers/src/ch32v20x_can.c ****  * @brief   Checks whether the specified CAN flag is set or not.
 891:Drivers/src/ch32v20x_can.c ****  *
 892:Drivers/src/ch32v20x_can.c ****  * @param   CANx - where x can be 1 to select the CAN peripheral.
 893:Drivers/src/ch32v20x_can.c ****  *          CAN_FLAG - specifies the flag to check.
 894:Drivers/src/ch32v20x_can.c ****  *            CAN_FLAG_EWG.
 895:Drivers/src/ch32v20x_can.c ****  *            CAN_FLAG_EPV.
 896:Drivers/src/ch32v20x_can.c ****  *            CAN_FLAG_BOF.
 897:Drivers/src/ch32v20x_can.c ****  *            CAN_FLAG_RQCP0.
 898:Drivers/src/ch32v20x_can.c ****  *            CAN_FLAG_RQCP1.
 899:Drivers/src/ch32v20x_can.c ****  *            CAN_FLAG_RQCP2.
 900:Drivers/src/ch32v20x_can.c ****  *            CAN_FLAG_FMP1.
 901:Drivers/src/ch32v20x_can.c ****  *            CAN_FLAG_FF1.
 902:Drivers/src/ch32v20x_can.c ****  *            CAN_FLAG_FOV1.
 903:Drivers/src/ch32v20x_can.c ****  *            CAN_FLAG_FMP0.
 904:Drivers/src/ch32v20x_can.c ****  *            CAN_FLAG_FF0.
 905:Drivers/src/ch32v20x_can.c ****  *            CAN_FLAG_FOV0.
 906:Drivers/src/ch32v20x_can.c ****  *            CAN_FLAG_WKU.
 907:Drivers/src/ch32v20x_can.c ****  *            CAN_FLAG_SLAK.
 908:Drivers/src/ch32v20x_can.c ****  *            CAN_FLAG_LEC.
 909:Drivers/src/ch32v20x_can.c ****  *          NewState - ENABLE or DISABLE.
 910:Drivers/src/ch32v20x_can.c ****  *
 911:Drivers/src/ch32v20x_can.c ****  * @return  FlagStatus - SET or RESET.
 912:Drivers/src/ch32v20x_can.c ****  */
 913:Drivers/src/ch32v20x_can.c **** FlagStatus CAN_GetFlagStatus(CAN_TypeDef* CANx, uint32_t CAN_FLAG)
 914:Drivers/src/ch32v20x_can.c **** {
 2337              		.loc 1 914 1
GAS LISTING C:\Users\SOLDER~1\AppData\Local\Temp\ccYCTqm0.s 			page 59


 2338              		.cfi_startproc
 2339 0000 7971     		addi	sp,sp,-48
 2340              		.cfi_def_cfa_offset 48
 2341 0002 22D6     		sw	s0,44(sp)
 2342              		.cfi_offset 8, -4
 2343 0004 0018     		addi	s0,sp,48
 2344              		.cfi_def_cfa 8, 0
 2345 0006 232EA4FC 		sw	a0,-36(s0)
 2346 000a 232CB4FC 		sw	a1,-40(s0)
 915:Drivers/src/ch32v20x_can.c ****   FlagStatus bitstatus = RESET;
 2347              		.loc 1 915 14
 2348 000e 232604FE 		sw	zero,-20(s0)
 916:Drivers/src/ch32v20x_can.c ****   
 917:Drivers/src/ch32v20x_can.c ****   if((CAN_FLAG & CAN_FLAGS_ERRSR) != (uint32_t)RESET)
 2349              		.loc 1 917 16
 2350 0012 032784FD 		lw	a4,-40(s0)
 2351 0016 B707F000 		li	a5,15728640
 2352 001a F98F     		and	a5,a4,a5
 2353              		.loc 1 917 5
 2354 001c 9DC3     		beq	a5,zero,.L134
 918:Drivers/src/ch32v20x_can.c ****   { 
 919:Drivers/src/ch32v20x_can.c ****     if ((CANx->ERRSR & (CAN_FLAG & 0x000FFFFF)) != (uint32_t)RESET)
 2355              		.loc 1 919 14
 2356 001e 8327C4FD 		lw	a5,-36(s0)
 2357 0022 984F     		lw	a4,24(a5)
 2358              		.loc 1 919 22
 2359 0024 832784FD 		lw	a5,-40(s0)
 2360 0028 7D8F     		and	a4,a4,a5
 2361 002a B7071000 		li	a5,1048576
 2362 002e FD17     		addi	a5,a5,-1
 2363 0030 F98F     		and	a5,a4,a5
 2364              		.loc 1 919 8
 2365 0032 89C7     		beq	a5,zero,.L135
 920:Drivers/src/ch32v20x_can.c ****     { 
 921:Drivers/src/ch32v20x_can.c ****       bitstatus = SET;
 2366              		.loc 1 921 17
 2367 0034 8547     		li	a5,1
 2368 0036 2326F4FE 		sw	a5,-20(s0)
 2369 003a 6DA8     		j	.L136
 2370              	.L135:
 922:Drivers/src/ch32v20x_can.c ****     }
 923:Drivers/src/ch32v20x_can.c ****     else
 924:Drivers/src/ch32v20x_can.c ****     { 
 925:Drivers/src/ch32v20x_can.c ****       bitstatus = RESET;
 2371              		.loc 1 925 17
 2372 003c 232604FE 		sw	zero,-20(s0)
 2373 0040 55A8     		j	.L136
 2374              	.L134:
 926:Drivers/src/ch32v20x_can.c ****     }
 927:Drivers/src/ch32v20x_can.c ****   }
 928:Drivers/src/ch32v20x_can.c ****   else if((CAN_FLAG & CAN_FLAGS_STATR) != (uint32_t)RESET)
 2375              		.loc 1 928 21
 2376 0042 032784FD 		lw	a4,-40(s0)
 2377 0046 B7070001 		li	a5,16777216
 2378 004a F98F     		and	a5,a4,a5
 2379              		.loc 1 928 10
 2380 004c 9DC3     		beq	a5,zero,.L137
GAS LISTING C:\Users\SOLDER~1\AppData\Local\Temp\ccYCTqm0.s 			page 60


 929:Drivers/src/ch32v20x_can.c ****   { 
 930:Drivers/src/ch32v20x_can.c ****     if ((CANx->STATR & (CAN_FLAG & 0x000FFFFF)) != (uint32_t)RESET)
 2381              		.loc 1 930 14
 2382 004e 8327C4FD 		lw	a5,-36(s0)
 2383 0052 D843     		lw	a4,4(a5)
 2384              		.loc 1 930 22
 2385 0054 832784FD 		lw	a5,-40(s0)
 2386 0058 7D8F     		and	a4,a4,a5
 2387 005a B7071000 		li	a5,1048576
 2388 005e FD17     		addi	a5,a5,-1
 2389 0060 F98F     		and	a5,a4,a5
 2390              		.loc 1 930 8
 2391 0062 89C7     		beq	a5,zero,.L138
 931:Drivers/src/ch32v20x_can.c ****     { 
 932:Drivers/src/ch32v20x_can.c ****       bitstatus = SET;
 2392              		.loc 1 932 17
 2393 0064 8547     		li	a5,1
 2394 0066 2326F4FE 		sw	a5,-20(s0)
 2395 006a 69A0     		j	.L136
 2396              	.L138:
 933:Drivers/src/ch32v20x_can.c ****     }
 934:Drivers/src/ch32v20x_can.c ****     else
 935:Drivers/src/ch32v20x_can.c ****     { 
 936:Drivers/src/ch32v20x_can.c ****       bitstatus = RESET;
 2397              		.loc 1 936 17
 2398 006c 232604FE 		sw	zero,-20(s0)
 2399 0070 51A0     		j	.L136
 2400              	.L137:
 937:Drivers/src/ch32v20x_can.c ****     }
 938:Drivers/src/ch32v20x_can.c ****   }
 939:Drivers/src/ch32v20x_can.c ****   else if((CAN_FLAG & CAN_FLAGS_TSTATR) != (uint32_t)RESET)
 2401              		.loc 1 939 21
 2402 0072 032784FD 		lw	a4,-40(s0)
 2403 0076 B7070008 		li	a5,134217728
 2404 007a F98F     		and	a5,a4,a5
 2405              		.loc 1 939 10
 2406 007c 9DC3     		beq	a5,zero,.L139
 940:Drivers/src/ch32v20x_can.c ****   { 
 941:Drivers/src/ch32v20x_can.c ****     if ((CANx->TSTATR & (CAN_FLAG & 0x000FFFFF)) != (uint32_t)RESET)
 2407              		.loc 1 941 14
 2408 007e 8327C4FD 		lw	a5,-36(s0)
 2409 0082 9847     		lw	a4,8(a5)
 2410              		.loc 1 941 23
 2411 0084 832784FD 		lw	a5,-40(s0)
 2412 0088 7D8F     		and	a4,a4,a5
 2413 008a B7071000 		li	a5,1048576
 2414 008e FD17     		addi	a5,a5,-1
 2415 0090 F98F     		and	a5,a4,a5
 2416              		.loc 1 941 8
 2417 0092 89C7     		beq	a5,zero,.L140
 942:Drivers/src/ch32v20x_can.c ****     { 
 943:Drivers/src/ch32v20x_can.c ****       bitstatus = SET;
 2418              		.loc 1 943 17
 2419 0094 8547     		li	a5,1
 2420 0096 2326F4FE 		sw	a5,-20(s0)
 2421 009a A9A8     		j	.L136
 2422              	.L140:
GAS LISTING C:\Users\SOLDER~1\AppData\Local\Temp\ccYCTqm0.s 			page 61


 944:Drivers/src/ch32v20x_can.c ****     }
 945:Drivers/src/ch32v20x_can.c ****     else
 946:Drivers/src/ch32v20x_can.c ****     { 
 947:Drivers/src/ch32v20x_can.c ****       bitstatus = RESET;
 2423              		.loc 1 947 17
 2424 009c 232604FE 		sw	zero,-20(s0)
 2425 00a0 91A8     		j	.L136
 2426              	.L139:
 948:Drivers/src/ch32v20x_can.c ****     }
 949:Drivers/src/ch32v20x_can.c ****   }
 950:Drivers/src/ch32v20x_can.c ****   else if((CAN_FLAG & CAN_FLAGS_RFIFO0) != (uint32_t)RESET)
 2427              		.loc 1 950 21
 2428 00a2 032784FD 		lw	a4,-40(s0)
 2429 00a6 B7070002 		li	a5,33554432
 2430 00aa F98F     		and	a5,a4,a5
 2431              		.loc 1 950 10
 2432 00ac 9DC3     		beq	a5,zero,.L141
 951:Drivers/src/ch32v20x_can.c ****   { 
 952:Drivers/src/ch32v20x_can.c ****     if ((CANx->RFIFO0 & (CAN_FLAG & 0x000FFFFF)) != (uint32_t)RESET)
 2433              		.loc 1 952 14
 2434 00ae 8327C4FD 		lw	a5,-36(s0)
 2435 00b2 D847     		lw	a4,12(a5)
 2436              		.loc 1 952 23
 2437 00b4 832784FD 		lw	a5,-40(s0)
 2438 00b8 7D8F     		and	a4,a4,a5
 2439 00ba B7071000 		li	a5,1048576
 2440 00be FD17     		addi	a5,a5,-1
 2441 00c0 F98F     		and	a5,a4,a5
 2442              		.loc 1 952 8
 2443 00c2 89C7     		beq	a5,zero,.L142
 953:Drivers/src/ch32v20x_can.c ****     { 
 954:Drivers/src/ch32v20x_can.c ****       bitstatus = SET;
 2444              		.loc 1 954 17
 2445 00c4 8547     		li	a5,1
 2446 00c6 2326F4FE 		sw	a5,-20(s0)
 2447 00ca 2DA0     		j	.L136
 2448              	.L142:
 955:Drivers/src/ch32v20x_can.c ****     }
 956:Drivers/src/ch32v20x_can.c ****     else
 957:Drivers/src/ch32v20x_can.c ****     { 
 958:Drivers/src/ch32v20x_can.c ****       bitstatus = RESET;
 2449              		.loc 1 958 17
 2450 00cc 232604FE 		sw	zero,-20(s0)
 2451 00d0 15A0     		j	.L136
 2452              	.L141:
 959:Drivers/src/ch32v20x_can.c ****     }
 960:Drivers/src/ch32v20x_can.c ****   }
 961:Drivers/src/ch32v20x_can.c ****   else 
 962:Drivers/src/ch32v20x_can.c ****   { 
 963:Drivers/src/ch32v20x_can.c ****     if ((uint32_t)(CANx->RFIFO1 & (CAN_FLAG & 0x000FFFFF)) != (uint32_t)RESET)
 2453              		.loc 1 963 24
 2454 00d2 8327C4FD 		lw	a5,-36(s0)
 2455 00d6 984B     		lw	a4,16(a5)
 2456              		.loc 1 963 9
 2457 00d8 832784FD 		lw	a5,-40(s0)
 2458 00dc 7D8F     		and	a4,a4,a5
 2459 00de B7071000 		li	a5,1048576
GAS LISTING C:\Users\SOLDER~1\AppData\Local\Temp\ccYCTqm0.s 			page 62


 2460 00e2 FD17     		addi	a5,a5,-1
 2461 00e4 F98F     		and	a5,a4,a5
 2462              		.loc 1 963 8
 2463 00e6 89C7     		beq	a5,zero,.L143
 964:Drivers/src/ch32v20x_can.c ****     { 
 965:Drivers/src/ch32v20x_can.c ****       bitstatus = SET;
 2464              		.loc 1 965 17
 2465 00e8 8547     		li	a5,1
 2466 00ea 2326F4FE 		sw	a5,-20(s0)
 2467 00ee 19A0     		j	.L136
 2468              	.L143:
 966:Drivers/src/ch32v20x_can.c ****     }
 967:Drivers/src/ch32v20x_can.c ****     else
 968:Drivers/src/ch32v20x_can.c ****     { 
 969:Drivers/src/ch32v20x_can.c ****       bitstatus = RESET;
 2469              		.loc 1 969 17
 2470 00f0 232604FE 		sw	zero,-20(s0)
 2471              	.L136:
 970:Drivers/src/ch32v20x_can.c ****     }
 971:Drivers/src/ch32v20x_can.c ****   }
 972:Drivers/src/ch32v20x_can.c **** 
 973:Drivers/src/ch32v20x_can.c ****   return  bitstatus;
 2472              		.loc 1 973 11
 2473 00f4 8327C4FE 		lw	a5,-20(s0)
 974:Drivers/src/ch32v20x_can.c **** }
 2474              		.loc 1 974 1
 2475 00f8 3E85     		mv	a0,a5
 2476 00fa 3254     		lw	s0,44(sp)
 2477              		.cfi_restore 8
 2478              		.cfi_def_cfa 2, 48
 2479 00fc 4561     		addi	sp,sp,48
 2480              		.cfi_def_cfa_offset 0
 2481 00fe 8280     		jr	ra
 2482              		.cfi_endproc
 2483              	.LFE36:
 2485              		.section	.text.CAN_ClearFlag,"ax",@progbits
 2486              		.align	1
 2487              		.globl	CAN_ClearFlag
 2489              	CAN_ClearFlag:
 2490              	.LFB37:
 975:Drivers/src/ch32v20x_can.c **** 
 976:Drivers/src/ch32v20x_can.c **** /*********************************************************************
 977:Drivers/src/ch32v20x_can.c ****  * @fn      CAN_ClearFlag
 978:Drivers/src/ch32v20x_can.c ****  *
 979:Drivers/src/ch32v20x_can.c ****  * @brief   Clears the CAN's pending flags.
 980:Drivers/src/ch32v20x_can.c ****  *
 981:Drivers/src/ch32v20x_can.c ****  * @param   CANx - where x can be 1 to select the CAN peripheral.
 982:Drivers/src/ch32v20x_can.c ****  *          CAN_FLAG - specifies the flag to clear.
 983:Drivers/src/ch32v20x_can.c ****  *            CAN_FLAG_RQCP0.
 984:Drivers/src/ch32v20x_can.c ****  *            CAN_FLAG_RQCP1.
 985:Drivers/src/ch32v20x_can.c ****  *            CAN_FLAG_RQCP2.
 986:Drivers/src/ch32v20x_can.c ****  *            CAN_FLAG_FF1.
 987:Drivers/src/ch32v20x_can.c ****  *            CAN_FLAG_FOV1.
 988:Drivers/src/ch32v20x_can.c ****  *            CAN_FLAG_FF0.
 989:Drivers/src/ch32v20x_can.c ****  *            CAN_FLAG_FOV0.
 990:Drivers/src/ch32v20x_can.c ****  *            CAN_FLAG_WKU.
 991:Drivers/src/ch32v20x_can.c ****  *            CAN_FLAG_SLAK.
GAS LISTING C:\Users\SOLDER~1\AppData\Local\Temp\ccYCTqm0.s 			page 63


 992:Drivers/src/ch32v20x_can.c ****  *            CAN_FLAG_LEC.
 993:Drivers/src/ch32v20x_can.c ****  *
 994:Drivers/src/ch32v20x_can.c ****  * @return  none
 995:Drivers/src/ch32v20x_can.c ****  */
 996:Drivers/src/ch32v20x_can.c **** void CAN_ClearFlag(CAN_TypeDef* CANx, uint32_t CAN_FLAG)
 997:Drivers/src/ch32v20x_can.c **** {
 2491              		.loc 1 997 1
 2492              		.cfi_startproc
 2493 0000 7971     		addi	sp,sp,-48
 2494              		.cfi_def_cfa_offset 48
 2495 0002 22D6     		sw	s0,44(sp)
 2496              		.cfi_offset 8, -4
 2497 0004 0018     		addi	s0,sp,48
 2498              		.cfi_def_cfa 8, 0
 2499 0006 232EA4FC 		sw	a0,-36(s0)
 2500 000a 232CB4FC 		sw	a1,-40(s0)
 998:Drivers/src/ch32v20x_can.c ****   uint32_t flagtmp=0;
 2501              		.loc 1 998 12
 2502 000e 232604FE 		sw	zero,-20(s0)
 999:Drivers/src/ch32v20x_can.c ****   
1000:Drivers/src/ch32v20x_can.c **** 	if (CAN_FLAG == CAN_FLAG_LEC)
 2503              		.loc 1 1000 5
 2504 0012 032784FD 		lw	a4,-40(s0)
 2505 0016 B707F030 		li	a5,821035008
 2506 001a 93870707 		addi	a5,a5,112
 2507 001e 6317F700 		bne	a4,a5,.L146
1001:Drivers/src/ch32v20x_can.c ****   {
1002:Drivers/src/ch32v20x_can.c ****     CANx->ERRSR = (uint32_t)RESET;
 2508              		.loc 1 1002 17
 2509 0022 8327C4FD 		lw	a5,-36(s0)
 2510 0026 23AC0700 		sw	zero,24(a5)
1003:Drivers/src/ch32v20x_can.c ****   }
1004:Drivers/src/ch32v20x_can.c ****   else 
1005:Drivers/src/ch32v20x_can.c ****   {
1006:Drivers/src/ch32v20x_can.c ****     flagtmp = CAN_FLAG & 0x000FFFFF;
1007:Drivers/src/ch32v20x_can.c **** 
1008:Drivers/src/ch32v20x_can.c ****     if ((CAN_FLAG & CAN_FLAGS_RFIFO0)!=(uint32_t)RESET)
1009:Drivers/src/ch32v20x_can.c ****     {
1010:Drivers/src/ch32v20x_can.c ****       CANx->RFIFO0 = (uint32_t)(flagtmp);
1011:Drivers/src/ch32v20x_can.c ****     }
1012:Drivers/src/ch32v20x_can.c ****     else if ((CAN_FLAG & CAN_FLAGS_RFIFO1)!=(uint32_t)RESET)
1013:Drivers/src/ch32v20x_can.c ****     {
1014:Drivers/src/ch32v20x_can.c ****       CANx->RFIFO1 = (uint32_t)(flagtmp);
1015:Drivers/src/ch32v20x_can.c ****     }
1016:Drivers/src/ch32v20x_can.c ****     else if ((CAN_FLAG & CAN_FLAGS_TSTATR)!=(uint32_t)RESET)
1017:Drivers/src/ch32v20x_can.c ****     {
1018:Drivers/src/ch32v20x_can.c ****       CANx->TSTATR = (uint32_t)(flagtmp);
1019:Drivers/src/ch32v20x_can.c ****     }
1020:Drivers/src/ch32v20x_can.c ****     else 
1021:Drivers/src/ch32v20x_can.c ****     {
1022:Drivers/src/ch32v20x_can.c ****       CANx->STATR = (uint32_t)(flagtmp);
1023:Drivers/src/ch32v20x_can.c ****     }
1024:Drivers/src/ch32v20x_can.c ****   }
1025:Drivers/src/ch32v20x_can.c **** }
 2511              		.loc 1 1025 1
 2512 002a 95A0     		j	.L151
 2513              	.L146:
GAS LISTING C:\Users\SOLDER~1\AppData\Local\Temp\ccYCTqm0.s 			page 64


1006:Drivers/src/ch32v20x_can.c **** 
 2514              		.loc 1 1006 13
 2515 002c 032784FD 		lw	a4,-40(s0)
 2516 0030 B7071000 		li	a5,1048576
 2517 0034 FD17     		addi	a5,a5,-1
 2518 0036 F98F     		and	a5,a4,a5
 2519 0038 2326F4FE 		sw	a5,-20(s0)
1008:Drivers/src/ch32v20x_can.c ****     {
 2520              		.loc 1 1008 19
 2521 003c 032784FD 		lw	a4,-40(s0)
 2522 0040 B7070002 		li	a5,33554432
 2523 0044 F98F     		and	a5,a4,a5
1008:Drivers/src/ch32v20x_can.c ****     {
 2524              		.loc 1 1008 8
 2525 0046 99C7     		beq	a5,zero,.L148
1010:Drivers/src/ch32v20x_can.c ****     }
 2526              		.loc 1 1010 20
 2527 0048 8327C4FD 		lw	a5,-36(s0)
 2528 004c 0327C4FE 		lw	a4,-20(s0)
 2529 0050 D8C7     		sw	a4,12(a5)
 2530              		.loc 1 1025 1
 2531 0052 35A8     		j	.L151
 2532              	.L148:
1012:Drivers/src/ch32v20x_can.c ****     {
 2533              		.loc 1 1012 24
 2534 0054 032784FD 		lw	a4,-40(s0)
 2535 0058 B7070004 		li	a5,67108864
 2536 005c F98F     		and	a5,a4,a5
1012:Drivers/src/ch32v20x_can.c ****     {
 2537              		.loc 1 1012 13
 2538 005e 99C7     		beq	a5,zero,.L149
1014:Drivers/src/ch32v20x_can.c ****     }
 2539              		.loc 1 1014 20
 2540 0060 8327C4FD 		lw	a5,-36(s0)
 2541 0064 0327C4FE 		lw	a4,-20(s0)
 2542 0068 98CB     		sw	a4,16(a5)
 2543              		.loc 1 1025 1
 2544 006a 15A0     		j	.L151
 2545              	.L149:
1016:Drivers/src/ch32v20x_can.c ****     {
 2546              		.loc 1 1016 24
 2547 006c 032784FD 		lw	a4,-40(s0)
 2548 0070 B7070008 		li	a5,134217728
 2549 0074 F98F     		and	a5,a4,a5
1016:Drivers/src/ch32v20x_can.c ****     {
 2550              		.loc 1 1016 13
 2551 0076 99C7     		beq	a5,zero,.L150
1018:Drivers/src/ch32v20x_can.c ****     }
 2552              		.loc 1 1018 20
 2553 0078 8327C4FD 		lw	a5,-36(s0)
 2554 007c 0327C4FE 		lw	a4,-20(s0)
 2555 0080 98C7     		sw	a4,8(a5)
 2556              		.loc 1 1025 1
 2557 0082 31A0     		j	.L151
 2558              	.L150:
1022:Drivers/src/ch32v20x_can.c ****     }
 2559              		.loc 1 1022 19
GAS LISTING C:\Users\SOLDER~1\AppData\Local\Temp\ccYCTqm0.s 			page 65


 2560 0084 8327C4FD 		lw	a5,-36(s0)
 2561 0088 0327C4FE 		lw	a4,-20(s0)
 2562 008c D8C3     		sw	a4,4(a5)
 2563              	.L151:
 2564              		.loc 1 1025 1
 2565 008e 0100     		nop
 2566 0090 3254     		lw	s0,44(sp)
 2567              		.cfi_restore 8
 2568              		.cfi_def_cfa 2, 48
 2569 0092 4561     		addi	sp,sp,48
 2570              		.cfi_def_cfa_offset 0
 2571 0094 8280     		jr	ra
 2572              		.cfi_endproc
 2573              	.LFE37:
 2575              		.section	.text.CAN_GetITStatus,"ax",@progbits
 2576              		.align	1
 2577              		.globl	CAN_GetITStatus
 2579              	CAN_GetITStatus:
 2580              	.LFB38:
1026:Drivers/src/ch32v20x_can.c **** 
1027:Drivers/src/ch32v20x_can.c **** /*********************************************************************
1028:Drivers/src/ch32v20x_can.c ****  * @fn      CAN_GetITStatus
1029:Drivers/src/ch32v20x_can.c ****  *
1030:Drivers/src/ch32v20x_can.c ****  * @brief   Checks whether the specified CANx interrupt has occurred or not.
1031:Drivers/src/ch32v20x_can.c ****  *
1032:Drivers/src/ch32v20x_can.c ****  * @param   CANx - where x can be 1 to select the CAN peripheral.
1033:Drivers/src/ch32v20x_can.c ****  *          CAN_IT -  specifies the CAN interrupt source to check.
1034:Drivers/src/ch32v20x_can.c ****  *            CAN_IT_TME.
1035:Drivers/src/ch32v20x_can.c ****  *            CAN_IT_FMP0.
1036:Drivers/src/ch32v20x_can.c ****  *            CAN_IT_FF0.
1037:Drivers/src/ch32v20x_can.c ****  *            CAN_IT_FOV0.
1038:Drivers/src/ch32v20x_can.c ****  *            CAN_IT_FMP1.
1039:Drivers/src/ch32v20x_can.c ****  *            CAN_IT_FF1.
1040:Drivers/src/ch32v20x_can.c ****  *            CAN_IT_FOV1.
1041:Drivers/src/ch32v20x_can.c ****  *            CAN_IT_WKU.
1042:Drivers/src/ch32v20x_can.c ****  *            CAN_IT_SLK.
1043:Drivers/src/ch32v20x_can.c ****  *            CAN_IT_EWG.
1044:Drivers/src/ch32v20x_can.c ****  *            CAN_IT_EPV.
1045:Drivers/src/ch32v20x_can.c ****  *            CAN_IT_BOF.
1046:Drivers/src/ch32v20x_can.c ****  *            CAN_IT_LEC.
1047:Drivers/src/ch32v20x_can.c ****  *            CAN_IT_ERR.
1048:Drivers/src/ch32v20x_can.c ****  *
1049:Drivers/src/ch32v20x_can.c ****  * @return  ITStatus - SET or RESET.
1050:Drivers/src/ch32v20x_can.c ****  */
1051:Drivers/src/ch32v20x_can.c **** ITStatus CAN_GetITStatus(CAN_TypeDef* CANx, uint32_t CAN_IT)
1052:Drivers/src/ch32v20x_can.c **** {
 2581              		.loc 1 1052 1
 2582              		.cfi_startproc
 2583 0000 7971     		addi	sp,sp,-48
 2584              		.cfi_def_cfa_offset 48
 2585 0002 06D6     		sw	ra,44(sp)
 2586 0004 22D4     		sw	s0,40(sp)
 2587              		.cfi_offset 1, -4
 2588              		.cfi_offset 8, -8
 2589 0006 0018     		addi	s0,sp,48
 2590              		.cfi_def_cfa 8, 0
 2591 0008 232EA4FC 		sw	a0,-36(s0)
GAS LISTING C:\Users\SOLDER~1\AppData\Local\Temp\ccYCTqm0.s 			page 66


 2592 000c 232CB4FC 		sw	a1,-40(s0)
1053:Drivers/src/ch32v20x_can.c **** 	ITStatus itstatus = RESET;
 2593              		.loc 1 1053 11
 2594 0010 232604FE 		sw	zero,-20(s0)
1054:Drivers/src/ch32v20x_can.c ****   
1055:Drivers/src/ch32v20x_can.c ****   if((CANx->INTENR & CAN_IT) != RESET)
 2595              		.loc 1 1055 11
 2596 0014 8327C4FD 		lw	a5,-36(s0)
 2597 0018 D84B     		lw	a4,20(a5)
 2598              		.loc 1 1055 20
 2599 001a 832784FD 		lw	a5,-40(s0)
 2600 001e F98F     		and	a5,a4,a5
 2601              		.loc 1 1055 5
 2602 0020 63830724 		beq	a5,zero,.L153
1056:Drivers/src/ch32v20x_can.c ****   {
1057:Drivers/src/ch32v20x_can.c ****     switch (CAN_IT)
 2603              		.loc 1 1057 5
 2604 0024 032784FD 		lw	a4,-40(s0)
 2605 0028 B7070200 		li	a5,131072
 2606 002c 6301F71A 		beq	a4,a5,.L154
 2607 0030 032784FD 		lw	a4,-40(s0)
 2608 0034 B7070200 		li	a5,131072
 2609 0038 63E4E722 		bgtu	a4,a5,.L155
 2610 003c 032784FD 		lw	a4,-40(s0)
 2611 0040 C167     		li	a5,65536
 2612 0042 630AF716 		beq	a4,a5,.L156
 2613 0046 032784FD 		lw	a4,-40(s0)
 2614 004a C167     		li	a5,65536
 2615 004c 63EAE720 		bgtu	a4,a5,.L155
 2616 0050 032784FD 		lw	a4,-40(s0)
 2617 0054 A167     		li	a5,32768
 2618 0056 6309F71E 		beq	a4,a5,.L157
 2619 005a 032784FD 		lw	a4,-40(s0)
 2620 005e A167     		li	a5,32768
 2621 0060 63E0E720 		bgtu	a4,a5,.L155
 2622 0064 832784FD 		lw	a5,-40(s0)
 2623 0068 93870780 		addi	a5,a5,-2048
 2624 006c 6381071C 		beq	a5,zero,.L158
 2625 0070 032784FD 		lw	a4,-40(s0)
 2626 0074 8567     		li	a5,4096
 2627 0076 93870780 		addi	a5,a5,-2048
 2628 007a 63E3E71E 		bgtu	a4,a5,.L155
 2629 007e 032784FD 		lw	a4,-40(s0)
 2630 0082 93070040 		li	a5,1024
 2631 0086 6308F718 		beq	a4,a5,.L159
 2632 008a 032784FD 		lw	a4,-40(s0)
 2633 008e 93070040 		li	a5,1024
 2634 0092 63E7E71C 		bgtu	a4,a5,.L155
 2635 0096 032784FD 		lw	a4,-40(s0)
 2636 009a 93070020 		li	a5,512
 2637 009e 6300F716 		beq	a4,a5,.L160
 2638 00a2 032784FD 		lw	a4,-40(s0)
 2639 00a6 93070020 		li	a5,512
 2640 00aa 63EBE71A 		bgtu	a4,a5,.L155
 2641 00ae 032784FD 		lw	a4,-40(s0)
 2642 00b2 93070010 		li	a5,256
 2643 00b6 6308F712 		beq	a4,a5,.L161
GAS LISTING C:\Users\SOLDER~1\AppData\Local\Temp\ccYCTqm0.s 			page 67


 2644 00ba 032784FD 		lw	a4,-40(s0)
 2645 00be 93070010 		li	a5,256
 2646 00c2 63EFE718 		bgtu	a4,a5,.L155
 2647 00c6 032784FD 		lw	a4,-40(s0)
 2648 00ca 93070002 		li	a5,32
 2649 00ce 63E7E702 		bgtu	a4,a5,.L162
 2650 00d2 832784FD 		lw	a5,-40(s0)
 2651 00d6 63850718 		beq	a5,zero,.L155
 2652 00da 032784FD 		lw	a4,-40(s0)
 2653 00de 93070002 		li	a5,32
 2654 00e2 63EFE716 		bgtu	a4,a5,.L155
 2655 00e6 832784FD 		lw	a5,-40(s0)
 2656 00ea 13972700 		slli	a4,a5,2
 2657 00ee B7070000 		lui	a5,%hi(.L164)
 2658 00f2 93870700 		addi	a5,a5,%lo(.L164)
 2659 00f6 BA97     		add	a5,a4,a5
 2660 00f8 9C43     		lw	a5,0(a5)
 2661 00fa 8287     		jr	a5
 2662              		.section	.rodata.CAN_GetITStatus,"a",@progbits
 2663              		.align	2
 2664              		.align	2
 2665              	.L164:
 2666 0000 00000000 		.word	.L155
 2667 0004 00000000 		.word	.L169
 2668 0008 00000000 		.word	.L168
 2669 000c 00000000 		.word	.L155
 2670 0010 00000000 		.word	.L167
 2671 0014 00000000 		.word	.L155
 2672 0018 00000000 		.word	.L155
 2673 001c 00000000 		.word	.L155
 2674 0020 00000000 		.word	.L166
 2675 0024 00000000 		.word	.L155
 2676 0028 00000000 		.word	.L155
 2677 002c 00000000 		.word	.L155
 2678 0030 00000000 		.word	.L155
 2679 0034 00000000 		.word	.L155
 2680 0038 00000000 		.word	.L155
 2681 003c 00000000 		.word	.L155
 2682 0040 00000000 		.word	.L165
 2683 0044 00000000 		.word	.L155
 2684 0048 00000000 		.word	.L155
 2685 004c 00000000 		.word	.L155
 2686 0050 00000000 		.word	.L155
 2687 0054 00000000 		.word	.L155
 2688 0058 00000000 		.word	.L155
 2689 005c 00000000 		.word	.L155
 2690 0060 00000000 		.word	.L155
 2691 0064 00000000 		.word	.L155
 2692 0068 00000000 		.word	.L155
 2693 006c 00000000 		.word	.L155
 2694 0070 00000000 		.word	.L155
 2695 0074 00000000 		.word	.L155
 2696 0078 00000000 		.word	.L155
 2697 007c 00000000 		.word	.L155
 2698 0080 00000000 		.word	.L163
 2699              		.section	.text.CAN_GetITStatus
 2700              	.L162:
GAS LISTING C:\Users\SOLDER~1\AppData\Local\Temp\ccYCTqm0.s 			page 68


 2701 00fc 032784FD 		lw	a4,-40(s0)
 2702 0100 93070004 		li	a5,64
 2703 0104 630DF708 		beq	a4,a5,.L170
 2704 0108 A1AA     		j	.L155
 2705              	.L169:
1058:Drivers/src/ch32v20x_can.c ****     {
1059:Drivers/src/ch32v20x_can.c ****       case CAN_IT_TME:
1060:Drivers/src/ch32v20x_can.c **** 	      itstatus = CheckITStatus(CANx->TSTATR, CAN_TSTATR_RQCP0|CAN_TSTATR_RQCP1|CAN_TSTATR_RQCP2); 
 2706              		.loc 1 1060 37
 2707 010a 8327C4FD 		lw	a5,-36(s0)
 2708 010e 9847     		lw	a4,8(a5)
 2709              		.loc 1 1060 19
 2710 0110 C167     		li	a5,65536
 2711 0112 93851710 		addi	a1,a5,257
 2712 0116 3A85     		mv	a0,a4
 2713 0118 97000000 		call	CheckITStatus
 2713      E7800000 
 2714 0120 2326A4FE 		sw	a0,-20(s0)
1061:Drivers/src/ch32v20x_can.c **** 	      break;
 2715              		.loc 1 1061 8
 2716 0124 99A2     		j	.L172
 2717              	.L168:
1062:Drivers/src/ch32v20x_can.c **** 			
1063:Drivers/src/ch32v20x_can.c ****       case CAN_IT_FMP0:
1064:Drivers/src/ch32v20x_can.c **** 			  itstatus = CheckITStatus(CANx->RFIFO0, CAN_RFIFO0_FMP0);  
 2718              		.loc 1 1064 35
 2719 0126 8327C4FD 		lw	a5,-36(s0)
 2720 012a DC47     		lw	a5,12(a5)
 2721              		.loc 1 1064 17
 2722 012c 8D45     		li	a1,3
 2723 012e 3E85     		mv	a0,a5
 2724 0130 97000000 		call	CheckITStatus
 2724      E7800000 
 2725 0138 2326A4FE 		sw	a0,-20(s0)
1065:Drivers/src/ch32v20x_can.c **** 	      break;
 2726              		.loc 1 1065 8
 2727 013c 3DA2     		j	.L172
 2728              	.L167:
1066:Drivers/src/ch32v20x_can.c **** 			
1067:Drivers/src/ch32v20x_can.c ****       case CAN_IT_FF0:
1068:Drivers/src/ch32v20x_can.c ****         itstatus = CheckITStatus(CANx->RFIFO0, CAN_RFIFO0_FULL0);  
 2729              		.loc 1 1068 38
 2730 013e 8327C4FD 		lw	a5,-36(s0)
 2731 0142 DC47     		lw	a5,12(a5)
 2732              		.loc 1 1068 20
 2733 0144 A145     		li	a1,8
 2734 0146 3E85     		mv	a0,a5
 2735 0148 97000000 		call	CheckITStatus
 2735      E7800000 
 2736 0150 2326A4FE 		sw	a0,-20(s0)
1069:Drivers/src/ch32v20x_can.c **** 	      break;
 2737              		.loc 1 1069 8
 2738 0154 19AA     		j	.L172
 2739              	.L166:
1070:Drivers/src/ch32v20x_can.c **** 			
1071:Drivers/src/ch32v20x_can.c ****       case CAN_IT_FOV0:
1072:Drivers/src/ch32v20x_can.c ****         itstatus = CheckITStatus(CANx->RFIFO0, CAN_RFIFO0_FOVR0);  
GAS LISTING C:\Users\SOLDER~1\AppData\Local\Temp\ccYCTqm0.s 			page 69


 2740              		.loc 1 1072 38
 2741 0156 8327C4FD 		lw	a5,-36(s0)
 2742 015a DC47     		lw	a5,12(a5)
 2743              		.loc 1 1072 20
 2744 015c C145     		li	a1,16
 2745 015e 3E85     		mv	a0,a5
 2746 0160 97000000 		call	CheckITStatus
 2746      E7800000 
 2747 0168 2326A4FE 		sw	a0,-20(s0)
1073:Drivers/src/ch32v20x_can.c **** 	      break;
 2748              		.loc 1 1073 8
 2749 016c FDA8     		j	.L172
 2750              	.L165:
1074:Drivers/src/ch32v20x_can.c **** 			
1075:Drivers/src/ch32v20x_can.c ****       case CAN_IT_FMP1:
1076:Drivers/src/ch32v20x_can.c ****         itstatus = CheckITStatus(CANx->RFIFO1, CAN_RFIFO1_FMP1);  
 2751              		.loc 1 1076 38
 2752 016e 8327C4FD 		lw	a5,-36(s0)
 2753 0172 9C4B     		lw	a5,16(a5)
 2754              		.loc 1 1076 20
 2755 0174 8D45     		li	a1,3
 2756 0176 3E85     		mv	a0,a5
 2757 0178 97000000 		call	CheckITStatus
 2757      E7800000 
 2758 0180 2326A4FE 		sw	a0,-20(s0)
1077:Drivers/src/ch32v20x_can.c **** 	      break;
 2759              		.loc 1 1077 8
 2760 0184 DDA0     		j	.L172
 2761              	.L163:
1078:Drivers/src/ch32v20x_can.c **** 			
1079:Drivers/src/ch32v20x_can.c ****       case CAN_IT_FF1:
1080:Drivers/src/ch32v20x_can.c **** 	      itstatus = CheckITStatus(CANx->RFIFO1, CAN_RFIFO1_FULL1);  
 2762              		.loc 1 1080 37
 2763 0186 8327C4FD 		lw	a5,-36(s0)
 2764 018a 9C4B     		lw	a5,16(a5)
 2765              		.loc 1 1080 19
 2766 018c A145     		li	a1,8
 2767 018e 3E85     		mv	a0,a5
 2768 0190 97000000 		call	CheckITStatus
 2768      E7800000 
 2769 0198 2326A4FE 		sw	a0,-20(s0)
1081:Drivers/src/ch32v20x_can.c **** 	      break;
 2770              		.loc 1 1081 8
 2771 019c F9A0     		j	.L172
 2772              	.L170:
1082:Drivers/src/ch32v20x_can.c **** 			
1083:Drivers/src/ch32v20x_can.c ****       case CAN_IT_FOV1:
1084:Drivers/src/ch32v20x_can.c **** 	      itstatus = CheckITStatus(CANx->RFIFO1, CAN_RFIFO1_FOVR1);  
 2773              		.loc 1 1084 37
 2774 019e 8327C4FD 		lw	a5,-36(s0)
 2775 01a2 9C4B     		lw	a5,16(a5)
 2776              		.loc 1 1084 19
 2777 01a4 C145     		li	a1,16
 2778 01a6 3E85     		mv	a0,a5
 2779 01a8 97000000 		call	CheckITStatus
 2779      E7800000 
 2780 01b0 2326A4FE 		sw	a0,-20(s0)
GAS LISTING C:\Users\SOLDER~1\AppData\Local\Temp\ccYCTqm0.s 			page 70


1085:Drivers/src/ch32v20x_can.c **** 	      break;
 2781              		.loc 1 1085 8
 2782 01b4 5DA8     		j	.L172
 2783              	.L156:
1086:Drivers/src/ch32v20x_can.c **** 			
1087:Drivers/src/ch32v20x_can.c ****       case CAN_IT_WKU:
1088:Drivers/src/ch32v20x_can.c ****         itstatus = CheckITStatus(CANx->STATR, CAN_STATR_WKUI);  
 2784              		.loc 1 1088 38
 2785 01b6 8327C4FD 		lw	a5,-36(s0)
 2786 01ba DC43     		lw	a5,4(a5)
 2787              		.loc 1 1088 20
 2788 01bc A145     		li	a1,8
 2789 01be 3E85     		mv	a0,a5
 2790 01c0 97000000 		call	CheckITStatus
 2790      E7800000 
 2791 01c8 2326A4FE 		sw	a0,-20(s0)
1089:Drivers/src/ch32v20x_can.c **** 	      break;
 2792              		.loc 1 1089 8
 2793 01cc 79A8     		j	.L172
 2794              	.L154:
1090:Drivers/src/ch32v20x_can.c **** 			
1091:Drivers/src/ch32v20x_can.c ****       case CAN_IT_SLK:
1092:Drivers/src/ch32v20x_can.c **** 	      itstatus = CheckITStatus(CANx->STATR, CAN_STATR_SLAKI);  
 2795              		.loc 1 1092 37
 2796 01ce 8327C4FD 		lw	a5,-36(s0)
 2797 01d2 DC43     		lw	a5,4(a5)
 2798              		.loc 1 1092 19
 2799 01d4 C145     		li	a1,16
 2800 01d6 3E85     		mv	a0,a5
 2801 01d8 97000000 		call	CheckITStatus
 2801      E7800000 
 2802 01e0 2326A4FE 		sw	a0,-20(s0)
1093:Drivers/src/ch32v20x_can.c **** 	      break;
 2803              		.loc 1 1093 8
 2804 01e4 59A0     		j	.L172
 2805              	.L161:
1094:Drivers/src/ch32v20x_can.c **** 			
1095:Drivers/src/ch32v20x_can.c ****       case CAN_IT_EWG:
1096:Drivers/src/ch32v20x_can.c **** 	      itstatus = CheckITStatus(CANx->ERRSR, CAN_ERRSR_EWGF);  
 2806              		.loc 1 1096 37
 2807 01e6 8327C4FD 		lw	a5,-36(s0)
 2808 01ea 9C4F     		lw	a5,24(a5)
 2809              		.loc 1 1096 19
 2810 01ec 8545     		li	a1,1
 2811 01ee 3E85     		mv	a0,a5
 2812 01f0 97000000 		call	CheckITStatus
 2812      E7800000 
 2813 01f8 2326A4FE 		sw	a0,-20(s0)
1097:Drivers/src/ch32v20x_can.c **** 	      break;
 2814              		.loc 1 1097 8
 2815 01fc BDA0     		j	.L172
 2816              	.L160:
1098:Drivers/src/ch32v20x_can.c **** 			
1099:Drivers/src/ch32v20x_can.c ****       case CAN_IT_EPV:
1100:Drivers/src/ch32v20x_can.c **** 	      itstatus = CheckITStatus(CANx->ERRSR, CAN_ERRSR_EPVF);  
 2817              		.loc 1 1100 37
 2818 01fe 8327C4FD 		lw	a5,-36(s0)
GAS LISTING C:\Users\SOLDER~1\AppData\Local\Temp\ccYCTqm0.s 			page 71


 2819 0202 9C4F     		lw	a5,24(a5)
 2820              		.loc 1 1100 19
 2821 0204 8945     		li	a1,2
 2822 0206 3E85     		mv	a0,a5
 2823 0208 97000000 		call	CheckITStatus
 2823      E7800000 
 2824 0210 2326A4FE 		sw	a0,-20(s0)
1101:Drivers/src/ch32v20x_can.c **** 	      break;
 2825              		.loc 1 1101 8
 2826 0214 99A8     		j	.L172
 2827              	.L159:
1102:Drivers/src/ch32v20x_can.c **** 			
1103:Drivers/src/ch32v20x_can.c ****       case CAN_IT_BOF:
1104:Drivers/src/ch32v20x_can.c **** 	      itstatus = CheckITStatus(CANx->ERRSR, CAN_ERRSR_BOFF);  
 2828              		.loc 1 1104 37
 2829 0216 8327C4FD 		lw	a5,-36(s0)
 2830 021a 9C4F     		lw	a5,24(a5)
 2831              		.loc 1 1104 19
 2832 021c 9145     		li	a1,4
 2833 021e 3E85     		mv	a0,a5
 2834 0220 97000000 		call	CheckITStatus
 2834      E7800000 
 2835 0228 2326A4FE 		sw	a0,-20(s0)
1105:Drivers/src/ch32v20x_can.c **** 	      break;
 2836              		.loc 1 1105 8
 2837 022c 3DA8     		j	.L172
 2838              	.L158:
1106:Drivers/src/ch32v20x_can.c **** 			
1107:Drivers/src/ch32v20x_can.c ****       case CAN_IT_LEC:
1108:Drivers/src/ch32v20x_can.c **** 	      itstatus = CheckITStatus(CANx->ERRSR, CAN_ERRSR_LEC);  
 2839              		.loc 1 1108 37
 2840 022e 8327C4FD 		lw	a5,-36(s0)
 2841 0232 9C4F     		lw	a5,24(a5)
 2842              		.loc 1 1108 19
 2843 0234 93050007 		li	a1,112
 2844 0238 3E85     		mv	a0,a5
 2845 023a 97000000 		call	CheckITStatus
 2845      E7800000 
 2846 0242 2326A4FE 		sw	a0,-20(s0)
1109:Drivers/src/ch32v20x_can.c **** 	      break;
 2847              		.loc 1 1109 8
 2848 0246 15A0     		j	.L172
 2849              	.L157:
1110:Drivers/src/ch32v20x_can.c **** 			
1111:Drivers/src/ch32v20x_can.c ****       case CAN_IT_ERR:
1112:Drivers/src/ch32v20x_can.c ****         itstatus = CheckITStatus(CANx->STATR, CAN_STATR_ERRI); 
 2850              		.loc 1 1112 38
 2851 0248 8327C4FD 		lw	a5,-36(s0)
 2852 024c DC43     		lw	a5,4(a5)
 2853              		.loc 1 1112 20
 2854 024e 9145     		li	a1,4
 2855 0250 3E85     		mv	a0,a5
 2856 0252 97000000 		call	CheckITStatus
 2856      E7800000 
 2857 025a 2326A4FE 		sw	a0,-20(s0)
1113:Drivers/src/ch32v20x_can.c **** 	      break;
 2858              		.loc 1 1113 8
GAS LISTING C:\Users\SOLDER~1\AppData\Local\Temp\ccYCTqm0.s 			page 72


 2859 025e 31A0     		j	.L172
 2860              	.L155:
1114:Drivers/src/ch32v20x_can.c **** 			
1115:Drivers/src/ch32v20x_can.c ****       default :
1116:Drivers/src/ch32v20x_can.c ****         itstatus = RESET;
 2861              		.loc 1 1116 18
 2862 0260 232604FE 		sw	zero,-20(s0)
1117:Drivers/src/ch32v20x_can.c ****         break;
 2863              		.loc 1 1117 9
 2864 0264 19A0     		j	.L172
 2865              	.L153:
1118:Drivers/src/ch32v20x_can.c ****     }
1119:Drivers/src/ch32v20x_can.c **** 	}
1120:Drivers/src/ch32v20x_can.c ****   else
1121:Drivers/src/ch32v20x_can.c ****   {
1122:Drivers/src/ch32v20x_can.c ****     itstatus  = RESET;
 2866              		.loc 1 1122 15
 2867 0266 232604FE 		sw	zero,-20(s0)
 2868              	.L172:
1123:Drivers/src/ch32v20x_can.c ****   }
1124:Drivers/src/ch32v20x_can.c ****   
1125:Drivers/src/ch32v20x_can.c ****   return  itstatus;
 2869              		.loc 1 1125 11
 2870 026a 8327C4FE 		lw	a5,-20(s0)
1126:Drivers/src/ch32v20x_can.c **** }
 2871              		.loc 1 1126 1
 2872 026e 3E85     		mv	a0,a5
 2873 0270 B250     		lw	ra,44(sp)
 2874              		.cfi_restore 1
 2875 0272 2254     		lw	s0,40(sp)
 2876              		.cfi_restore 8
 2877              		.cfi_def_cfa 2, 48
 2878 0274 4561     		addi	sp,sp,48
 2879              		.cfi_def_cfa_offset 0
 2880 0276 8280     		jr	ra
 2881              		.cfi_endproc
 2882              	.LFE38:
 2884              		.section	.text.CAN_ClearITPendingBit,"ax",@progbits
 2885              		.align	1
 2886              		.globl	CAN_ClearITPendingBit
 2888              	CAN_ClearITPendingBit:
 2889              	.LFB39:
1127:Drivers/src/ch32v20x_can.c **** 
1128:Drivers/src/ch32v20x_can.c **** /*********************************************************************
1129:Drivers/src/ch32v20x_can.c ****  * @fn      CAN_ClearITPendingBit
1130:Drivers/src/ch32v20x_can.c ****  *
1131:Drivers/src/ch32v20x_can.c ****  * @brief   Clears the CANx's interrupt pending bits.
1132:Drivers/src/ch32v20x_can.c ****  *
1133:Drivers/src/ch32v20x_can.c ****  * @param   CANx - where x can be 1 to select the CAN peripheral.
1134:Drivers/src/ch32v20x_can.c ****  *          CAN_IT - specifies the interrupt pending bit to clear.
1135:Drivers/src/ch32v20x_can.c ****  *            CAN_IT_TME.
1136:Drivers/src/ch32v20x_can.c ****  *            CAN_IT_FF0.
1137:Drivers/src/ch32v20x_can.c ****  *            CAN_IT_FOV0.
1138:Drivers/src/ch32v20x_can.c ****  *            CAN_IT_FF1.
1139:Drivers/src/ch32v20x_can.c ****  *            CAN_IT_FOV1.
1140:Drivers/src/ch32v20x_can.c ****  *            CAN_IT_WKU.
1141:Drivers/src/ch32v20x_can.c ****  *            CAN_IT_SLK.
GAS LISTING C:\Users\SOLDER~1\AppData\Local\Temp\ccYCTqm0.s 			page 73


1142:Drivers/src/ch32v20x_can.c ****  *            CAN_IT_EWG.
1143:Drivers/src/ch32v20x_can.c ****  *            CAN_IT_EPV.
1144:Drivers/src/ch32v20x_can.c ****  *            CAN_IT_BOF.
1145:Drivers/src/ch32v20x_can.c ****  *            CAN_IT_LEC.
1146:Drivers/src/ch32v20x_can.c ****  *            CAN_IT_ERR.
1147:Drivers/src/ch32v20x_can.c ****  *
1148:Drivers/src/ch32v20x_can.c ****  * @return  none
1149:Drivers/src/ch32v20x_can.c ****  */
1150:Drivers/src/ch32v20x_can.c **** void CAN_ClearITPendingBit(CAN_TypeDef* CANx, uint32_t CAN_IT)
1151:Drivers/src/ch32v20x_can.c **** {
 2890              		.loc 1 1151 1
 2891              		.cfi_startproc
 2892 0000 0111     		addi	sp,sp,-32
 2893              		.cfi_def_cfa_offset 32
 2894 0002 22CE     		sw	s0,28(sp)
 2895              		.cfi_offset 8, -4
 2896 0004 0010     		addi	s0,sp,32
 2897              		.cfi_def_cfa 8, 0
 2898 0006 2326A4FE 		sw	a0,-20(s0)
 2899 000a 2324B4FE 		sw	a1,-24(s0)
1152:Drivers/src/ch32v20x_can.c **** 	switch (CAN_IT)
 2900              		.loc 1 1152 2
 2901 000e 032784FE 		lw	a4,-24(s0)
 2902 0012 B7070200 		li	a5,131072
 2903 0016 630AF712 		beq	a4,a5,.L175
 2904 001a 032784FE 		lw	a4,-24(s0)
 2905 001e B7070200 		li	a5,131072
 2906 0022 63EAE716 		bgtu	a4,a5,.L189
 2907 0026 032784FE 		lw	a4,-24(s0)
 2908 002a C167     		li	a5,65536
 2909 002c 630AF710 		beq	a4,a5,.L177
 2910 0030 032784FE 		lw	a4,-24(s0)
 2911 0034 C167     		li	a5,65536
 2912 0036 63E0E716 		bgtu	a4,a5,.L189
 2913 003a 032784FE 		lw	a4,-24(s0)
 2914 003e A167     		li	a5,32768
 2915 0040 6302F714 		beq	a4,a5,.L178
 2916 0044 032784FE 		lw	a4,-24(s0)
 2917 0048 A167     		li	a5,32768
 2918 004a 63E6E714 		bgtu	a4,a5,.L189
 2919 004e 832784FE 		lw	a5,-24(s0)
 2920 0052 93870780 		addi	a5,a5,-2048
 2921 0056 638E0710 		beq	a5,zero,.L179
 2922 005a 032784FE 		lw	a4,-24(s0)
 2923 005e 8567     		li	a5,4096
 2924 0060 93870780 		addi	a5,a5,-2048
 2925 0064 63E9E712 		bgtu	a4,a5,.L189
 2926 0068 032784FE 		lw	a4,-24(s0)
 2927 006c 93070040 		li	a5,1024
 2928 0070 630CF70E 		beq	a4,a5,.L180
 2929 0074 032784FE 		lw	a4,-24(s0)
 2930 0078 93070040 		li	a5,1024
 2931 007c 63EDE710 		bgtu	a4,a5,.L189
 2932 0080 032784FE 		lw	a4,-24(s0)
 2933 0084 93070020 		li	a5,512
 2934 0088 630BF70C 		beq	a4,a5,.L181
 2935 008c 032784FE 		lw	a4,-24(s0)
GAS LISTING C:\Users\SOLDER~1\AppData\Local\Temp\ccYCTqm0.s 			page 74


 2936 0090 93070020 		li	a5,512
 2937 0094 63E1E710 		bgtu	a4,a5,.L189
 2938 0098 032784FE 		lw	a4,-24(s0)
 2939 009c 93070010 		li	a5,256
 2940 00a0 630AF70A 		beq	a4,a5,.L182
 2941 00a4 032784FE 		lw	a4,-24(s0)
 2942 00a8 93070010 		li	a5,256
 2943 00ac 63E5E70E 		bgtu	a4,a5,.L189
 2944 00b0 032784FE 		lw	a4,-24(s0)
 2945 00b4 93070004 		li	a5,64
 2946 00b8 630FF706 		beq	a4,a5,.L183
 2947 00bc 032784FE 		lw	a4,-24(s0)
 2948 00c0 93070004 		li	a5,64
 2949 00c4 63E9E70C 		bgtu	a4,a5,.L189
 2950 00c8 032784FE 		lw	a4,-24(s0)
 2951 00cc 93070002 		li	a5,32
 2952 00d0 630EF704 		beq	a4,a5,.L184
 2953 00d4 032784FE 		lw	a4,-24(s0)
 2954 00d8 93070002 		li	a5,32
 2955 00dc 63EDE70A 		bgtu	a4,a5,.L189
 2956 00e0 032784FE 		lw	a4,-24(s0)
 2957 00e4 A147     		li	a5,8
 2958 00e6 630EF702 		beq	a4,a5,.L185
 2959 00ea 032784FE 		lw	a4,-24(s0)
 2960 00ee A147     		li	a5,8
 2961 00f0 63E3E70A 		bgtu	a4,a5,.L189
 2962 00f4 032784FE 		lw	a4,-24(s0)
 2963 00f8 8547     		li	a5,1
 2964 00fa 6308F700 		beq	a4,a5,.L186
 2965 00fe 032784FE 		lw	a4,-24(s0)
 2966 0102 9147     		li	a5,4
 2967 0104 630AF700 		beq	a4,a5,.L187
1153:Drivers/src/ch32v20x_can.c **** 	{
1154:Drivers/src/ch32v20x_can.c **** 		case CAN_IT_TME:
1155:Drivers/src/ch32v20x_can.c **** 			CANx->TSTATR = CAN_TSTATR_RQCP0|CAN_TSTATR_RQCP1|CAN_TSTATR_RQCP2;  
1156:Drivers/src/ch32v20x_can.c **** 			break;
1157:Drivers/src/ch32v20x_can.c **** 
1158:Drivers/src/ch32v20x_can.c **** 		case CAN_IT_FF0:
1159:Drivers/src/ch32v20x_can.c **** 			CANx->RFIFO0 = CAN_RFIFO0_FULL0; 
1160:Drivers/src/ch32v20x_can.c **** 			break;
1161:Drivers/src/ch32v20x_can.c **** 
1162:Drivers/src/ch32v20x_can.c **** 		case CAN_IT_FOV0:
1163:Drivers/src/ch32v20x_can.c **** 			CANx->RFIFO0 = CAN_RFIFO0_FOVR0; 
1164:Drivers/src/ch32v20x_can.c **** 			break;
1165:Drivers/src/ch32v20x_can.c **** 
1166:Drivers/src/ch32v20x_can.c **** 		case CAN_IT_FF1:
1167:Drivers/src/ch32v20x_can.c **** 			CANx->RFIFO1 = CAN_RFIFO1_FULL1;  
1168:Drivers/src/ch32v20x_can.c **** 			break;
1169:Drivers/src/ch32v20x_can.c **** 
1170:Drivers/src/ch32v20x_can.c **** 		case CAN_IT_FOV1:
1171:Drivers/src/ch32v20x_can.c **** 			CANx->RFIFO1 = CAN_RFIFO1_FOVR1; 
1172:Drivers/src/ch32v20x_can.c **** 			break;
1173:Drivers/src/ch32v20x_can.c **** 
1174:Drivers/src/ch32v20x_can.c **** 		case CAN_IT_WKU:
1175:Drivers/src/ch32v20x_can.c **** 			CANx->STATR = CAN_STATR_WKUI;  
1176:Drivers/src/ch32v20x_can.c **** 			break;
1177:Drivers/src/ch32v20x_can.c **** 
GAS LISTING C:\Users\SOLDER~1\AppData\Local\Temp\ccYCTqm0.s 			page 75


1178:Drivers/src/ch32v20x_can.c **** 		case CAN_IT_SLK:
1179:Drivers/src/ch32v20x_can.c **** 			CANx->STATR = CAN_STATR_SLAKI;   
1180:Drivers/src/ch32v20x_can.c **** 			break;
1181:Drivers/src/ch32v20x_can.c **** 
1182:Drivers/src/ch32v20x_can.c **** 		case CAN_IT_EWG:
1183:Drivers/src/ch32v20x_can.c **** 			CANx->STATR = CAN_STATR_ERRI;
1184:Drivers/src/ch32v20x_can.c **** 			break;
1185:Drivers/src/ch32v20x_can.c **** 
1186:Drivers/src/ch32v20x_can.c **** 		case CAN_IT_EPV:
1187:Drivers/src/ch32v20x_can.c **** 			CANx->STATR = CAN_STATR_ERRI; 
1188:Drivers/src/ch32v20x_can.c **** 			break;
1189:Drivers/src/ch32v20x_can.c **** 
1190:Drivers/src/ch32v20x_can.c **** 		case CAN_IT_BOF:
1191:Drivers/src/ch32v20x_can.c **** 			CANx->STATR = CAN_STATR_ERRI; 
1192:Drivers/src/ch32v20x_can.c **** 			break;
1193:Drivers/src/ch32v20x_can.c **** 
1194:Drivers/src/ch32v20x_can.c **** 		case CAN_IT_LEC:
1195:Drivers/src/ch32v20x_can.c **** 			CANx->ERRSR = RESET; 
1196:Drivers/src/ch32v20x_can.c **** 			CANx->STATR = CAN_STATR_ERRI; 
1197:Drivers/src/ch32v20x_can.c **** 			break;
1198:Drivers/src/ch32v20x_can.c **** 
1199:Drivers/src/ch32v20x_can.c **** 		case CAN_IT_ERR:
1200:Drivers/src/ch32v20x_can.c **** 			CANx->ERRSR = RESET; 
1201:Drivers/src/ch32v20x_can.c **** 			CANx->STATR = CAN_STATR_ERRI; 
1202:Drivers/src/ch32v20x_can.c **** 			break;
1203:Drivers/src/ch32v20x_can.c **** 
1204:Drivers/src/ch32v20x_can.c **** 		default :
1205:Drivers/src/ch32v20x_can.c **** 			break;
 2968              		.loc 1 1205 4
 2969 0108 79A0     		j	.L189
 2970              	.L186:
1155:Drivers/src/ch32v20x_can.c **** 			break;
 2971              		.loc 1 1155 17
 2972 010a 8327C4FE 		lw	a5,-20(s0)
 2973 010e 4167     		li	a4,65536
 2974 0110 13071710 		addi	a4,a4,257
 2975 0114 98C7     		sw	a4,8(a5)
1156:Drivers/src/ch32v20x_can.c **** 
 2976              		.loc 1 1156 4
 2977 0116 49A0     		j	.L188
 2978              	.L187:
1159:Drivers/src/ch32v20x_can.c **** 			break;
 2979              		.loc 1 1159 17
 2980 0118 8327C4FE 		lw	a5,-20(s0)
 2981 011c 2147     		li	a4,8
 2982 011e D8C7     		sw	a4,12(a5)
1160:Drivers/src/ch32v20x_can.c **** 
 2983              		.loc 1 1160 4
 2984 0120 A5A8     		j	.L188
 2985              	.L185:
1163:Drivers/src/ch32v20x_can.c **** 			break;
 2986              		.loc 1 1163 17
 2987 0122 8327C4FE 		lw	a5,-20(s0)
 2988 0126 4147     		li	a4,16
 2989 0128 D8C7     		sw	a4,12(a5)
1164:Drivers/src/ch32v20x_can.c **** 
 2990              		.loc 1 1164 4
GAS LISTING C:\Users\SOLDER~1\AppData\Local\Temp\ccYCTqm0.s 			page 76


 2991 012a BDA0     		j	.L188
 2992              	.L184:
1167:Drivers/src/ch32v20x_can.c **** 			break;
 2993              		.loc 1 1167 17
 2994 012c 8327C4FE 		lw	a5,-20(s0)
 2995 0130 2147     		li	a4,8
 2996 0132 98CB     		sw	a4,16(a5)
1168:Drivers/src/ch32v20x_can.c **** 
 2997              		.loc 1 1168 4
 2998 0134 95A0     		j	.L188
 2999              	.L183:
1171:Drivers/src/ch32v20x_can.c **** 			break;
 3000              		.loc 1 1171 17
 3001 0136 8327C4FE 		lw	a5,-20(s0)
 3002 013a 4147     		li	a4,16
 3003 013c 98CB     		sw	a4,16(a5)
1172:Drivers/src/ch32v20x_can.c **** 
 3004              		.loc 1 1172 4
 3005 013e A9A8     		j	.L188
 3006              	.L177:
1175:Drivers/src/ch32v20x_can.c **** 			break;
 3007              		.loc 1 1175 16
 3008 0140 8327C4FE 		lw	a5,-20(s0)
 3009 0144 2147     		li	a4,8
 3010 0146 D8C3     		sw	a4,4(a5)
1176:Drivers/src/ch32v20x_can.c **** 
 3011              		.loc 1 1176 4
 3012 0148 81A8     		j	.L188
 3013              	.L175:
1179:Drivers/src/ch32v20x_can.c **** 			break;
 3014              		.loc 1 1179 16
 3015 014a 8327C4FE 		lw	a5,-20(s0)
 3016 014e 4147     		li	a4,16
 3017 0150 D8C3     		sw	a4,4(a5)
1180:Drivers/src/ch32v20x_can.c **** 
 3018              		.loc 1 1180 4
 3019 0152 99A0     		j	.L188
 3020              	.L182:
1183:Drivers/src/ch32v20x_can.c **** 			break;
 3021              		.loc 1 1183 16
 3022 0154 8327C4FE 		lw	a5,-20(s0)
 3023 0158 1147     		li	a4,4
 3024 015a D8C3     		sw	a4,4(a5)
1184:Drivers/src/ch32v20x_can.c **** 
 3025              		.loc 1 1184 4
 3026 015c 35A8     		j	.L188
 3027              	.L181:
1187:Drivers/src/ch32v20x_can.c **** 			break;
 3028              		.loc 1 1187 16
 3029 015e 8327C4FE 		lw	a5,-20(s0)
 3030 0162 1147     		li	a4,4
 3031 0164 D8C3     		sw	a4,4(a5)
1188:Drivers/src/ch32v20x_can.c **** 
 3032              		.loc 1 1188 4
 3033 0166 0DA8     		j	.L188
 3034              	.L180:
1191:Drivers/src/ch32v20x_can.c **** 			break;
GAS LISTING C:\Users\SOLDER~1\AppData\Local\Temp\ccYCTqm0.s 			page 77


 3035              		.loc 1 1191 16
 3036 0168 8327C4FE 		lw	a5,-20(s0)
 3037 016c 1147     		li	a4,4
 3038 016e D8C3     		sw	a4,4(a5)
1192:Drivers/src/ch32v20x_can.c **** 
 3039              		.loc 1 1192 4
 3040 0170 25A0     		j	.L188
 3041              	.L179:
1195:Drivers/src/ch32v20x_can.c **** 			CANx->STATR = CAN_STATR_ERRI; 
 3042              		.loc 1 1195 16
 3043 0172 8327C4FE 		lw	a5,-20(s0)
 3044 0176 23AC0700 		sw	zero,24(a5)
1196:Drivers/src/ch32v20x_can.c **** 			break;
 3045              		.loc 1 1196 16
 3046 017a 8327C4FE 		lw	a5,-20(s0)
 3047 017e 1147     		li	a4,4
 3048 0180 D8C3     		sw	a4,4(a5)
1197:Drivers/src/ch32v20x_can.c **** 
 3049              		.loc 1 1197 4
 3050 0182 19A8     		j	.L188
 3051              	.L178:
1200:Drivers/src/ch32v20x_can.c **** 			CANx->STATR = CAN_STATR_ERRI; 
 3052              		.loc 1 1200 16
 3053 0184 8327C4FE 		lw	a5,-20(s0)
 3054 0188 23AC0700 		sw	zero,24(a5)
1201:Drivers/src/ch32v20x_can.c **** 			break;
 3055              		.loc 1 1201 16
 3056 018c 8327C4FE 		lw	a5,-20(s0)
 3057 0190 1147     		li	a4,4
 3058 0192 D8C3     		sw	a4,4(a5)
1202:Drivers/src/ch32v20x_can.c **** 
 3059              		.loc 1 1202 4
 3060 0194 11A0     		j	.L188
 3061              	.L189:
 3062              		.loc 1 1205 4
 3063 0196 0100     		nop
 3064              	.L188:
1206:Drivers/src/ch32v20x_can.c **** 	}
1207:Drivers/src/ch32v20x_can.c **** }
 3065              		.loc 1 1207 1
 3066 0198 0100     		nop
 3067 019a 7244     		lw	s0,28(sp)
 3068              		.cfi_restore 8
 3069              		.cfi_def_cfa 2, 32
 3070 019c 0561     		addi	sp,sp,32
 3071              		.cfi_def_cfa_offset 0
 3072 019e 8280     		jr	ra
 3073              		.cfi_endproc
 3074              	.LFE39:
 3076              		.section	.text.CheckITStatus,"ax",@progbits
 3077              		.align	1
 3079              	CheckITStatus:
 3080              	.LFB40:
1208:Drivers/src/ch32v20x_can.c **** 
1209:Drivers/src/ch32v20x_can.c **** /*********************************************************************
1210:Drivers/src/ch32v20x_can.c ****  * @fn      CheckITStatus
1211:Drivers/src/ch32v20x_can.c ****  *
GAS LISTING C:\Users\SOLDER~1\AppData\Local\Temp\ccYCTqm0.s 			page 78


1212:Drivers/src/ch32v20x_can.c ****  * @brief   Checks whether the CAN interrupt has occurred or not.
1213:Drivers/src/ch32v20x_can.c ****  *
1214:Drivers/src/ch32v20x_can.c ****  * @param   CAN_Reg - specifies the CAN interrupt register to check
1215:Drivers/src/ch32v20x_can.c ****  *          It_Bit - specifies the interrupt source bit to check.
1216:Drivers/src/ch32v20x_can.c ****  *
1217:Drivers/src/ch32v20x_can.c ****  * @return  ITStatus - SET or RESET.
1218:Drivers/src/ch32v20x_can.c ****  */
1219:Drivers/src/ch32v20x_can.c **** static ITStatus CheckITStatus(uint32_t CAN_Reg, uint32_t It_Bit)
1220:Drivers/src/ch32v20x_can.c **** {
 3081              		.loc 1 1220 1
 3082              		.cfi_startproc
 3083 0000 7971     		addi	sp,sp,-48
 3084              		.cfi_def_cfa_offset 48
 3085 0002 22D6     		sw	s0,44(sp)
 3086              		.cfi_offset 8, -4
 3087 0004 0018     		addi	s0,sp,48
 3088              		.cfi_def_cfa 8, 0
 3089 0006 232EA4FC 		sw	a0,-36(s0)
 3090 000a 232CB4FC 		sw	a1,-40(s0)
1221:Drivers/src/ch32v20x_can.c ****   ITStatus pendingbitstatus = RESET;
 3091              		.loc 1 1221 12
 3092 000e 232604FE 		sw	zero,-20(s0)
1222:Drivers/src/ch32v20x_can.c ****   
1223:Drivers/src/ch32v20x_can.c ****   if ((CAN_Reg & It_Bit) != (uint32_t)RESET)
 3093              		.loc 1 1223 16
 3094 0012 0327C4FD 		lw	a4,-36(s0)
 3095 0016 832784FD 		lw	a5,-40(s0)
 3096 001a F98F     		and	a5,a4,a5
 3097              		.loc 1 1223 6
 3098 001c 89C7     		beq	a5,zero,.L191
1224:Drivers/src/ch32v20x_can.c ****   {
1225:Drivers/src/ch32v20x_can.c ****     pendingbitstatus = SET;
 3099              		.loc 1 1225 22
 3100 001e 8547     		li	a5,1
 3101 0020 2326F4FE 		sw	a5,-20(s0)
 3102 0024 19A0     		j	.L192
 3103              	.L191:
1226:Drivers/src/ch32v20x_can.c ****   }
1227:Drivers/src/ch32v20x_can.c ****   else
1228:Drivers/src/ch32v20x_can.c ****   {
1229:Drivers/src/ch32v20x_can.c ****     pendingbitstatus = RESET;
 3104              		.loc 1 1229 22
 3105 0026 232604FE 		sw	zero,-20(s0)
 3106              	.L192:
1230:Drivers/src/ch32v20x_can.c ****   }
1231:Drivers/src/ch32v20x_can.c **** 	
1232:Drivers/src/ch32v20x_can.c ****   return pendingbitstatus;
 3107              		.loc 1 1232 10
 3108 002a 8327C4FE 		lw	a5,-20(s0)
1233:Drivers/src/ch32v20x_can.c **** }
 3109              		.loc 1 1233 1
 3110 002e 3E85     		mv	a0,a5
 3111 0030 3254     		lw	s0,44(sp)
 3112              		.cfi_restore 8
 3113              		.cfi_def_cfa 2, 48
 3114 0032 4561     		addi	sp,sp,48
 3115              		.cfi_def_cfa_offset 0
GAS LISTING C:\Users\SOLDER~1\AppData\Local\Temp\ccYCTqm0.s 			page 79


 3116 0034 8280     		jr	ra
 3117              		.cfi_endproc
 3118              	.LFE40:
 3120              		.text
 3121              	.Letext0:
 3122              		.file 2 "c:\\dev_tools\\ch32_tools\\risc-v_embedded_gcc12\\riscv-none-elf\\include\\machine\\_defa
 3123              		.file 3 "c:\\dev_tools\\ch32_tools\\risc-v_embedded_gcc12\\riscv-none-elf\\include\\sys\\_stdint.h
 3124              		.file 4 "Drivers/inc/core_riscv.h"
 3125              		.file 5 "Drivers/inc/ch32v20x.h"
 3126              		.file 6 "Drivers/inc/ch32v20x_can.h"
 3127              		.file 7 "Drivers/inc/ch32v20x_rcc.h"
GAS LISTING C:\Users\SOLDER~1\AppData\Local\Temp\ccYCTqm0.s 			page 80

