GAS LISTING C:\Users\SOLDER~1\AppData\Local\Temp\ccmjpsKj.s 			page 1


   1              		.file	"ch32v20x_spi.c"
   2              		.option nopic
   3              		.attribute arch, "rv32i2p0_m2p0_a2p0_c2p0_xw"
   4              		.attribute unaligned_access, 0
   5              		.attribute stack_align, 16
   6              		.text
   7              	.Ltext0:
   8              		.cfi_sections	.debug_frame
   9              		.file 0 "C:\\Users\\Solderingiron\\Documents\\GitHub\\VSC-make-example\\VSC_CH32V203C8T6" "Drivers
  10              		.section	.text.SPI_I2S_DeInit,"ax",@progbits
  11              		.align	1
  12              		.globl	SPI_I2S_DeInit
  14              	SPI_I2S_DeInit:
  15              	.LFB16:
  16              		.file 1 "Drivers/src/ch32v20x_spi.c"
   1:Drivers/src/ch32v20x_spi.c **** /********************************** (C) COPYRIGHT *******************************
   2:Drivers/src/ch32v20x_spi.c ****  * File Name          : ch32v20x_spi.c
   3:Drivers/src/ch32v20x_spi.c ****  * Author             : WCH
   4:Drivers/src/ch32v20x_spi.c ****  * Version            : V1.0.0
   5:Drivers/src/ch32v20x_spi.c ****  * Date               : 2021/06/06
   6:Drivers/src/ch32v20x_spi.c ****  * Description        : This file provides all the SPI firmware functions.
   7:Drivers/src/ch32v20x_spi.c **** *********************************************************************************
   8:Drivers/src/ch32v20x_spi.c **** * Copyright (c) 2021 Nanjing Qinheng Microelectronics Co., Ltd.
   9:Drivers/src/ch32v20x_spi.c **** * Attention: This software (modified or not) and binary are used for 
  10:Drivers/src/ch32v20x_spi.c **** * microcontroller manufactured by Nanjing Qinheng Microelectronics.
  11:Drivers/src/ch32v20x_spi.c **** *******************************************************************************/
  12:Drivers/src/ch32v20x_spi.c **** #include "ch32v20x_spi.h"
  13:Drivers/src/ch32v20x_spi.c **** #include "ch32v20x_rcc.h"
  14:Drivers/src/ch32v20x_spi.c **** 
  15:Drivers/src/ch32v20x_spi.c **** /* SPI SPE mask */
  16:Drivers/src/ch32v20x_spi.c **** #define CTLR1_SPE_Set         ((uint16_t)0x0040)
  17:Drivers/src/ch32v20x_spi.c **** #define CTLR1_SPE_Reset       ((uint16_t)0xFFBF)
  18:Drivers/src/ch32v20x_spi.c **** 
  19:Drivers/src/ch32v20x_spi.c **** /* I2S I2SE mask */
  20:Drivers/src/ch32v20x_spi.c **** #define I2SCFGR_I2SE_Set      ((uint16_t)0x0400)
  21:Drivers/src/ch32v20x_spi.c **** #define I2SCFGR_I2SE_Reset    ((uint16_t)0xFBFF)
  22:Drivers/src/ch32v20x_spi.c **** 
  23:Drivers/src/ch32v20x_spi.c **** /* SPI CRCNext mask */
  24:Drivers/src/ch32v20x_spi.c **** #define CTLR1_CRCNext_Set     ((uint16_t)0x1000)
  25:Drivers/src/ch32v20x_spi.c **** 
  26:Drivers/src/ch32v20x_spi.c **** /* SPI CRCEN mask */
  27:Drivers/src/ch32v20x_spi.c **** #define CTLR1_CRCEN_Set       ((uint16_t)0x2000)
  28:Drivers/src/ch32v20x_spi.c **** #define CTLR1_CRCEN_Reset     ((uint16_t)0xDFFF)
  29:Drivers/src/ch32v20x_spi.c **** 
  30:Drivers/src/ch32v20x_spi.c **** /* SPI SSOE mask */
  31:Drivers/src/ch32v20x_spi.c **** #define CTLR2_SSOE_Set        ((uint16_t)0x0004)
  32:Drivers/src/ch32v20x_spi.c **** #define CTLR2_SSOE_Reset      ((uint16_t)0xFFFB)
  33:Drivers/src/ch32v20x_spi.c **** 
  34:Drivers/src/ch32v20x_spi.c **** /* SPI registers Masks */
  35:Drivers/src/ch32v20x_spi.c **** #define CTLR1_CLEAR_Mask      ((uint16_t)0x3040)
  36:Drivers/src/ch32v20x_spi.c **** #define I2SCFGR_CLEAR_Mask    ((uint16_t)0xF040)
  37:Drivers/src/ch32v20x_spi.c **** 
  38:Drivers/src/ch32v20x_spi.c **** /* SPI or I2S mode selection masks */
  39:Drivers/src/ch32v20x_spi.c **** #define SPI_Mode_Select       ((uint16_t)0xF7FF)
  40:Drivers/src/ch32v20x_spi.c **** #define I2S_Mode_Select       ((uint16_t)0x0800)
  41:Drivers/src/ch32v20x_spi.c **** 
  42:Drivers/src/ch32v20x_spi.c **** /* I2S clock source selection masks */
GAS LISTING C:\Users\SOLDER~1\AppData\Local\Temp\ccmjpsKj.s 			page 2


  43:Drivers/src/ch32v20x_spi.c **** #define I2S2_CLOCK_SRC        ((uint32_t)(0x00020000))
  44:Drivers/src/ch32v20x_spi.c **** #define I2S3_CLOCK_SRC        ((uint32_t)(0x00040000))
  45:Drivers/src/ch32v20x_spi.c **** #define I2S_MUL_MASK          ((uint32_t)(0x0000F000))
  46:Drivers/src/ch32v20x_spi.c **** #define I2S_DIV_MASK          ((uint32_t)(0x000000F0))
  47:Drivers/src/ch32v20x_spi.c **** 
  48:Drivers/src/ch32v20x_spi.c **** /*********************************************************************
  49:Drivers/src/ch32v20x_spi.c ****  * @fn      SPI_I2S_DeInit
  50:Drivers/src/ch32v20x_spi.c ****  *
  51:Drivers/src/ch32v20x_spi.c ****  * @brief   Deinitializes the SPIx peripheral registers to their default
  52:Drivers/src/ch32v20x_spi.c ****  *        reset values (Affects also the I2Ss).
  53:Drivers/src/ch32v20x_spi.c ****  *
  54:Drivers/src/ch32v20x_spi.c ****  * @param   SPIx - where x can be 1, 2 or 3 to select the SPI peripheral.
  55:Drivers/src/ch32v20x_spi.c ****  *
  56:Drivers/src/ch32v20x_spi.c ****  * @return  none
  57:Drivers/src/ch32v20x_spi.c ****  */
  58:Drivers/src/ch32v20x_spi.c **** void SPI_I2S_DeInit(SPI_TypeDef *SPIx)
  59:Drivers/src/ch32v20x_spi.c **** {
  17              		.loc 1 59 1
  18              		.cfi_startproc
  19 0000 0111     		addi	sp,sp,-32
  20              		.cfi_def_cfa_offset 32
  21 0002 06CE     		sw	ra,28(sp)
  22 0004 22CC     		sw	s0,24(sp)
  23              		.cfi_offset 1, -4
  24              		.cfi_offset 8, -8
  25 0006 0010     		addi	s0,sp,32
  26              		.cfi_def_cfa 8, 0
  27 0008 2326A4FE 		sw	a0,-20(s0)
  60:Drivers/src/ch32v20x_spi.c ****     if(SPIx == SPI1)
  28              		.loc 1 60 7
  29 000c 0327C4FE 		lw	a4,-20(s0)
  30 0010 B7370140 		li	a5,1073819648
  31 0014 631FF700 		bne	a4,a5,.L2
  61:Drivers/src/ch32v20x_spi.c ****     {
  62:Drivers/src/ch32v20x_spi.c ****         RCC_APB2PeriphResetCmd(RCC_APB2Periph_SPI1, ENABLE);
  32              		.loc 1 62 9
  33 0018 8545     		li	a1,1
  34 001a 0565     		li	a0,4096
  35 001c 97000000 		call	RCC_APB2PeriphResetCmd
  35      E7800000 
  63:Drivers/src/ch32v20x_spi.c ****         RCC_APB2PeriphResetCmd(RCC_APB2Periph_SPI1, DISABLE);
  36              		.loc 1 63 9
  37 0024 8145     		li	a1,0
  38 0026 0565     		li	a0,4096
  39 0028 97000000 		call	RCC_APB2PeriphResetCmd
  39      E7800000 
  64:Drivers/src/ch32v20x_spi.c ****     }
  65:Drivers/src/ch32v20x_spi.c ****     else if(SPIx == SPI2)
  66:Drivers/src/ch32v20x_spi.c ****     {
  67:Drivers/src/ch32v20x_spi.c ****         RCC_APB1PeriphResetCmd(RCC_APB1Periph_SPI2, ENABLE);
  68:Drivers/src/ch32v20x_spi.c ****         RCC_APB1PeriphResetCmd(RCC_APB1Periph_SPI2, DISABLE);
  69:Drivers/src/ch32v20x_spi.c ****     }
  70:Drivers/src/ch32v20x_spi.c **** }
  40              		.loc 1 70 1
  41 0030 2DA0     		j	.L4
  42              	.L2:
  65:Drivers/src/ch32v20x_spi.c ****     {
GAS LISTING C:\Users\SOLDER~1\AppData\Local\Temp\ccmjpsKj.s 			page 3


  43              		.loc 1 65 12
  44 0032 0327C4FE 		lw	a4,-20(s0)
  45 0036 B7470040 		li	a5,1073758208
  46 003a 93870780 		addi	a5,a5,-2048
  47 003e 631EF700 		bne	a4,a5,.L4
  67:Drivers/src/ch32v20x_spi.c ****         RCC_APB1PeriphResetCmd(RCC_APB1Periph_SPI2, DISABLE);
  48              		.loc 1 67 9
  49 0042 8545     		li	a1,1
  50 0044 1165     		li	a0,16384
  51 0046 97000000 		call	RCC_APB1PeriphResetCmd
  51      E7800000 
  68:Drivers/src/ch32v20x_spi.c ****     }
  52              		.loc 1 68 9
  53 004e 8145     		li	a1,0
  54 0050 1165     		li	a0,16384
  55 0052 97000000 		call	RCC_APB1PeriphResetCmd
  55      E7800000 
  56              	.L4:
  57              		.loc 1 70 1
  58 005a 0100     		nop
  59 005c F240     		lw	ra,28(sp)
  60              		.cfi_restore 1
  61 005e 6244     		lw	s0,24(sp)
  62              		.cfi_restore 8
  63              		.cfi_def_cfa 2, 32
  64 0060 0561     		addi	sp,sp,32
  65              		.cfi_def_cfa_offset 0
  66 0062 8280     		jr	ra
  67              		.cfi_endproc
  68              	.LFE16:
  70              		.section	.text.SPI_Init,"ax",@progbits
  71              		.align	1
  72              		.globl	SPI_Init
  74              	SPI_Init:
  75              	.LFB17:
  71:Drivers/src/ch32v20x_spi.c **** 
  72:Drivers/src/ch32v20x_spi.c **** /*********************************************************************
  73:Drivers/src/ch32v20x_spi.c ****  * @fn      SPI_Init
  74:Drivers/src/ch32v20x_spi.c ****  *
  75:Drivers/src/ch32v20x_spi.c ****  * @brief   Initializes the SPIx peripheral according to the specified
  76:Drivers/src/ch32v20x_spi.c ****  *        parameters in the SPI_InitStruct.
  77:Drivers/src/ch32v20x_spi.c ****  *
  78:Drivers/src/ch32v20x_spi.c ****  * @param   SPIx - where x can be 1, 2 or 3 to select the SPI peripheral.
  79:Drivers/src/ch32v20x_spi.c ****  *          SPI_InitStruct - pointer to a SPI_InitTypeDef structure that
  80:Drivers/src/ch32v20x_spi.c ****  *        contains the configuration information for the specified SPI peripheral.
  81:Drivers/src/ch32v20x_spi.c ****  *
  82:Drivers/src/ch32v20x_spi.c ****  * @return  none
  83:Drivers/src/ch32v20x_spi.c ****  */
  84:Drivers/src/ch32v20x_spi.c **** void SPI_Init(SPI_TypeDef *SPIx, SPI_InitTypeDef *SPI_InitStruct)
  85:Drivers/src/ch32v20x_spi.c **** {
  76              		.loc 1 85 1
  77              		.cfi_startproc
  78 0000 7971     		addi	sp,sp,-48
  79              		.cfi_def_cfa_offset 48
  80 0002 22D6     		sw	s0,44(sp)
  81              		.cfi_offset 8, -4
  82 0004 0018     		addi	s0,sp,48
GAS LISTING C:\Users\SOLDER~1\AppData\Local\Temp\ccmjpsKj.s 			page 4


  83              		.cfi_def_cfa 8, 0
  84 0006 232EA4FC 		sw	a0,-36(s0)
  85 000a 232CB4FC 		sw	a1,-40(s0)
  86:Drivers/src/ch32v20x_spi.c ****     uint16_t tmpreg = 0;
  86              		.loc 1 86 14
  87 000e 231704FE 		sh	zero,-18(s0)
  87:Drivers/src/ch32v20x_spi.c **** 
  88:Drivers/src/ch32v20x_spi.c ****     tmpreg = SPIx->CTLR1;
  88              		.loc 1 88 12
  89 0012 8327C4FD 		lw	a5,-36(s0)
  90 0016 9E23     		lhu	a5,0(a5)
  91 0018 2317F4FE 		sh	a5,-18(s0)
  89:Drivers/src/ch32v20x_spi.c ****     tmpreg &= CTLR1_CLEAR_Mask;
  92              		.loc 1 89 12
  93 001c 8357E4FE 		lhu	a5,-18(s0)
  94 0020 3E87     		mv	a4,a5
  95 0022 8D67     		li	a5,12288
  96 0024 93870704 		addi	a5,a5,64
  97 0028 F98F     		and	a5,a4,a5
  98 002a 2317F4FE 		sh	a5,-18(s0)
  90:Drivers/src/ch32v20x_spi.c ****     tmpreg |= (uint16_t)((uint32_t)SPI_InitStruct->SPI_Direction | SPI_InitStruct->SPI_Mode |
  99              		.loc 1 90 50
 100 002e 832784FD 		lw	a5,-40(s0)
 101 0032 9A23     		lhu	a4,0(a5)
 102              		.loc 1 90 82
 103 0034 832784FD 		lw	a5,-40(s0)
 104 0038 BE23     		lhu	a5,2(a5)
 105              		.loc 1 90 15
 106 003a D98F     		or	a5,a4,a5
 107 003c 13970701 		slli	a4,a5,16
 108 0040 4183     		srli	a4,a4,16
  91:Drivers/src/ch32v20x_spi.c ****                          SPI_InitStruct->SPI_DataSize | SPI_InitStruct->SPI_CPOL |
 109              		.loc 1 91 40
 110 0042 832784FD 		lw	a5,-40(s0)
 111 0046 DE23     		lhu	a5,4(a5)
  90:Drivers/src/ch32v20x_spi.c ****     tmpreg |= (uint16_t)((uint32_t)SPI_InitStruct->SPI_Direction | SPI_InitStruct->SPI_Mode |
 112              		.loc 1 90 15
 113 0048 D98F     		or	a5,a4,a5
 114 004a 13970701 		slli	a4,a5,16
 115 004e 4183     		srli	a4,a4,16
 116              		.loc 1 91 71
 117 0050 832784FD 		lw	a5,-40(s0)
 118 0054 FE23     		lhu	a5,6(a5)
  90:Drivers/src/ch32v20x_spi.c ****     tmpreg |= (uint16_t)((uint32_t)SPI_InitStruct->SPI_Direction | SPI_InitStruct->SPI_Mode |
 119              		.loc 1 90 15
 120 0056 D98F     		or	a5,a4,a5
 121 0058 13970701 		slli	a4,a5,16
 122 005c 4183     		srli	a4,a4,16
  92:Drivers/src/ch32v20x_spi.c ****                          SPI_InitStruct->SPI_CPHA | SPI_InitStruct->SPI_NSS |
 123              		.loc 1 92 40
 124 005e 832784FD 		lw	a5,-40(s0)
 125 0062 9E27     		lhu	a5,8(a5)
  90:Drivers/src/ch32v20x_spi.c ****     tmpreg |= (uint16_t)((uint32_t)SPI_InitStruct->SPI_Direction | SPI_InitStruct->SPI_Mode |
 126              		.loc 1 90 15
 127 0064 D98F     		or	a5,a4,a5
 128 0066 13970701 		slli	a4,a5,16
 129 006a 4183     		srli	a4,a4,16
GAS LISTING C:\Users\SOLDER~1\AppData\Local\Temp\ccmjpsKj.s 			page 5


 130              		.loc 1 92 67
 131 006c 832784FD 		lw	a5,-40(s0)
 132 0070 BE27     		lhu	a5,10(a5)
  90:Drivers/src/ch32v20x_spi.c ****     tmpreg |= (uint16_t)((uint32_t)SPI_InitStruct->SPI_Direction | SPI_InitStruct->SPI_Mode |
 133              		.loc 1 90 15
 134 0072 D98F     		or	a5,a4,a5
 135 0074 13970701 		slli	a4,a5,16
 136 0078 4183     		srli	a4,a4,16
  93:Drivers/src/ch32v20x_spi.c ****                          SPI_InitStruct->SPI_BaudRatePrescaler | SPI_InitStruct->SPI_FirstBit);
 137              		.loc 1 93 40
 138 007a 832784FD 		lw	a5,-40(s0)
 139 007e DE27     		lhu	a5,12(a5)
  90:Drivers/src/ch32v20x_spi.c ****                          SPI_InitStruct->SPI_DataSize | SPI_InitStruct->SPI_CPOL |
 140              		.loc 1 90 15
 141 0080 D98F     		or	a5,a4,a5
 142 0082 13970701 		slli	a4,a5,16
 143 0086 4183     		srli	a4,a4,16
 144              		.loc 1 93 80
 145 0088 832784FD 		lw	a5,-40(s0)
 146 008c FE27     		lhu	a5,14(a5)
  90:Drivers/src/ch32v20x_spi.c ****                          SPI_InitStruct->SPI_DataSize | SPI_InitStruct->SPI_CPOL |
 147              		.loc 1 90 15
 148 008e D98F     		or	a5,a4,a5
 149 0090 C207     		slli	a5,a5,16
 150 0092 C183     		srli	a5,a5,16
  90:Drivers/src/ch32v20x_spi.c ****                          SPI_InitStruct->SPI_DataSize | SPI_InitStruct->SPI_CPOL |
 151              		.loc 1 90 12
 152 0094 0357E4FE 		lhu	a4,-18(s0)
 153 0098 D98F     		or	a5,a5,a4
 154 009a 2317F4FE 		sh	a5,-18(s0)
  94:Drivers/src/ch32v20x_spi.c **** 
  95:Drivers/src/ch32v20x_spi.c ****     SPIx->CTLR1 = tmpreg;
 155              		.loc 1 95 17
 156 009e 8327C4FD 		lw	a5,-36(s0)
 157 00a2 0357E4FE 		lhu	a4,-18(s0)
 158 00a6 9AA3     		sh	a4,0(a5)
  96:Drivers/src/ch32v20x_spi.c ****     SPIx->I2SCFGR &= SPI_Mode_Select;
 159              		.loc 1 96 9
 160 00a8 8327C4FD 		lw	a5,-36(s0)
 161 00ac DE2F     		lhu	a5,28(a5)
 162 00ae 13970701 		slli	a4,a5,16
 163 00b2 4183     		srli	a4,a4,16
 164              		.loc 1 96 19
 165 00b4 FD77     		li	a5,-4096
 166 00b6 9387F77F 		addi	a5,a5,2047
 167 00ba F98F     		and	a5,a4,a5
 168 00bc 13970701 		slli	a4,a5,16
 169 00c0 4183     		srli	a4,a4,16
 170 00c2 8327C4FD 		lw	a5,-36(s0)
 171 00c6 DAAF     		sh	a4,28(a5)
  97:Drivers/src/ch32v20x_spi.c ****     SPIx->CRCR = SPI_InitStruct->SPI_CRCPolynomial;
 172              		.loc 1 97 32
 173 00c8 832784FD 		lw	a5,-40(s0)
 174 00cc 9A2B     		lhu	a4,16(a5)
 175              		.loc 1 97 16
 176 00ce 8327C4FD 		lw	a5,-36(s0)
 177 00d2 9AAB     		sh	a4,16(a5)
GAS LISTING C:\Users\SOLDER~1\AppData\Local\Temp\ccmjpsKj.s 			page 6


  98:Drivers/src/ch32v20x_spi.c **** }
 178              		.loc 1 98 1
 179 00d4 0100     		nop
 180 00d6 3254     		lw	s0,44(sp)
 181              		.cfi_restore 8
 182              		.cfi_def_cfa 2, 48
 183 00d8 4561     		addi	sp,sp,48
 184              		.cfi_def_cfa_offset 0
 185 00da 8280     		jr	ra
 186              		.cfi_endproc
 187              	.LFE17:
 189              		.section	.text.I2S_Init,"ax",@progbits
 190              		.align	1
 191              		.globl	I2S_Init
 193              	I2S_Init:
 194              	.LFB18:
  99:Drivers/src/ch32v20x_spi.c **** 
 100:Drivers/src/ch32v20x_spi.c **** /*********************************************************************
 101:Drivers/src/ch32v20x_spi.c ****  * @fn      I2S_Init
 102:Drivers/src/ch32v20x_spi.c ****  *
 103:Drivers/src/ch32v20x_spi.c ****  * @brief   Initializes the SPIx peripheral according to the specified
 104:Drivers/src/ch32v20x_spi.c ****  *        parameters in the I2S_InitStruct.
 105:Drivers/src/ch32v20x_spi.c ****  *
 106:Drivers/src/ch32v20x_spi.c ****  * @param   SPIx - where x can be 1, 2 or 3 to select the SPI peripheral.
 107:Drivers/src/ch32v20x_spi.c ****  *        (configured in I2S mode).
 108:Drivers/src/ch32v20x_spi.c ****  *          I2S_InitStruct - pointer to an I2S_InitTypeDef structure that
 109:Drivers/src/ch32v20x_spi.c ****  *        contains the configuration information for the specified SPI peripheral
 110:Drivers/src/ch32v20x_spi.c ****  *        configured in I2S mode.
 111:Drivers/src/ch32v20x_spi.c ****  *
 112:Drivers/src/ch32v20x_spi.c ****  * @return  none
 113:Drivers/src/ch32v20x_spi.c ****  */
 114:Drivers/src/ch32v20x_spi.c **** void I2S_Init(SPI_TypeDef *SPIx, I2S_InitTypeDef *I2S_InitStruct)
 115:Drivers/src/ch32v20x_spi.c **** {
 195              		.loc 1 115 1
 196              		.cfi_startproc
 197 0000 5D71     		addi	sp,sp,-80
 198              		.cfi_def_cfa_offset 80
 199 0002 86C6     		sw	ra,76(sp)
 200 0004 A2C4     		sw	s0,72(sp)
 201              		.cfi_offset 1, -4
 202              		.cfi_offset 8, -8
 203 0006 8008     		addi	s0,sp,80
 204              		.cfi_def_cfa 8, 0
 205 0008 232EA4FA 		sw	a0,-68(s0)
 206 000c 232CB4FA 		sw	a1,-72(s0)
 116:Drivers/src/ch32v20x_spi.c ****     uint16_t          tmpreg = 0, i2sdiv = 2, i2sodd = 0, packetlength = 1;
 207              		.loc 1 116 23
 208 0010 231104FE 		sh	zero,-30(s0)
 209              		.loc 1 116 35
 210 0014 8947     		li	a5,2
 211 0016 2317F4FE 		sh	a5,-18(s0)
 212              		.loc 1 116 47
 213 001a 231604FE 		sh	zero,-20(s0)
 214              		.loc 1 116 59
 215 001e 8547     		li	a5,1
 216 0020 2315F4FE 		sh	a5,-22(s0)
 117:Drivers/src/ch32v20x_spi.c ****     uint32_t          tmp = 0;
GAS LISTING C:\Users\SOLDER~1\AppData\Local\Temp\ccmjpsKj.s 			page 7


 217              		.loc 1 117 23
 218 0024 232204FE 		sw	zero,-28(s0)
 118:Drivers/src/ch32v20x_spi.c ****     RCC_ClocksTypeDef RCC_Clocks;
 119:Drivers/src/ch32v20x_spi.c ****     uint32_t          sourceclock = 0;
 219              		.loc 1 119 23
 220 0028 232E04FC 		sw	zero,-36(s0)
 120:Drivers/src/ch32v20x_spi.c **** 
 121:Drivers/src/ch32v20x_spi.c ****     SPIx->I2SCFGR &= I2SCFGR_CLEAR_Mask;
 221              		.loc 1 121 9
 222 002c 8327C4FB 		lw	a5,-68(s0)
 223 0030 DE2F     		lhu	a5,28(a5)
 224 0032 13970701 		slli	a4,a5,16
 225 0036 4183     		srli	a4,a4,16
 226              		.loc 1 121 19
 227 0038 FD77     		li	a5,-4096
 228 003a 93870704 		addi	a5,a5,64
 229 003e F98F     		and	a5,a4,a5
 230 0040 13970701 		slli	a4,a5,16
 231 0044 4183     		srli	a4,a4,16
 232 0046 8327C4FB 		lw	a5,-68(s0)
 233 004a DAAF     		sh	a4,28(a5)
 122:Drivers/src/ch32v20x_spi.c ****     SPIx->I2SPR = 0x0002;
 234              		.loc 1 122 17
 235 004c 8327C4FB 		lw	a5,-68(s0)
 236 0050 0947     		li	a4,2
 237 0052 9AB3     		sh	a4,32(a5)
 123:Drivers/src/ch32v20x_spi.c ****     tmpreg = SPIx->I2SCFGR;
 238              		.loc 1 123 12
 239 0054 8327C4FB 		lw	a5,-68(s0)
 240 0058 DE2F     		lhu	a5,28(a5)
 241 005a 2311F4FE 		sh	a5,-30(s0)
 124:Drivers/src/ch32v20x_spi.c **** 
 125:Drivers/src/ch32v20x_spi.c ****     if(I2S_InitStruct->I2S_AudioFreq == I2S_AudioFreq_Default)
 242              		.loc 1 125 22
 243 005e 832784FB 		lw	a5,-72(s0)
 244 0062 9847     		lw	a4,8(a5)
 245              		.loc 1 125 7
 246 0064 8947     		li	a5,2
 247 0066 6318F700 		bne	a4,a5,.L7
 126:Drivers/src/ch32v20x_spi.c ****     {
 127:Drivers/src/ch32v20x_spi.c ****         i2sodd = (uint16_t)0;
 248              		.loc 1 127 16
 249 006a 231604FE 		sh	zero,-20(s0)
 128:Drivers/src/ch32v20x_spi.c ****         i2sdiv = (uint16_t)2;
 250              		.loc 1 128 16
 251 006e 8947     		li	a5,2
 252 0070 2317F4FE 		sh	a5,-18(s0)
 253 0074 D5A8     		j	.L8
 254              	.L7:
 129:Drivers/src/ch32v20x_spi.c ****     }
 130:Drivers/src/ch32v20x_spi.c ****     else
 131:Drivers/src/ch32v20x_spi.c ****     {
 132:Drivers/src/ch32v20x_spi.c ****         if(I2S_InitStruct->I2S_DataFormat == I2S_DataFormat_16b)
 255              		.loc 1 132 26
 256 0076 832784FB 		lw	a5,-72(s0)
 257 007a DE23     		lhu	a5,4(a5)
 258              		.loc 1 132 11
GAS LISTING C:\Users\SOLDER~1\AppData\Local\Temp\ccmjpsKj.s 			page 8


 259 007c 89E7     		bne	a5,zero,.L9
 133:Drivers/src/ch32v20x_spi.c ****         {
 134:Drivers/src/ch32v20x_spi.c ****             packetlength = 1;
 260              		.loc 1 134 26
 261 007e 8547     		li	a5,1
 262 0080 2315F4FE 		sh	a5,-22(s0)
 263 0084 21A0     		j	.L10
 264              	.L9:
 135:Drivers/src/ch32v20x_spi.c ****         }
 136:Drivers/src/ch32v20x_spi.c ****         else
 137:Drivers/src/ch32v20x_spi.c ****         {
 138:Drivers/src/ch32v20x_spi.c ****             packetlength = 2;
 265              		.loc 1 138 26
 266 0086 8947     		li	a5,2
 267 0088 2315F4FE 		sh	a5,-22(s0)
 268              	.L10:
 139:Drivers/src/ch32v20x_spi.c ****         }
 140:Drivers/src/ch32v20x_spi.c **** 
 141:Drivers/src/ch32v20x_spi.c ****         if(((uint32_t)SPIx) == SPI2_BASE)
 269              		.loc 1 141 11
 270 008c 0327C4FB 		lw	a4,-68(s0)
 271 0090 B7470040 		li	a5,1073758208
 272 0094 93870780 		addi	a5,a5,-2048
 273 0098 6317F700 		bne	a4,a5,.L11
 142:Drivers/src/ch32v20x_spi.c ****         {
 143:Drivers/src/ch32v20x_spi.c ****             tmp = I2S2_CLOCK_SRC;
 274              		.loc 1 143 17
 275 009c B7070200 		li	a5,131072
 276 00a0 2322F4FE 		sw	a5,-28(s0)
 277 00a4 29A0     		j	.L12
 278              	.L11:
 144:Drivers/src/ch32v20x_spi.c ****         }
 145:Drivers/src/ch32v20x_spi.c ****         else
 146:Drivers/src/ch32v20x_spi.c ****         {
 147:Drivers/src/ch32v20x_spi.c ****             tmp = I2S3_CLOCK_SRC;
 279              		.loc 1 147 17
 280 00a6 B7070400 		li	a5,262144
 281 00aa 2322F4FE 		sw	a5,-28(s0)
 282              	.L12:
 148:Drivers/src/ch32v20x_spi.c ****         }
 149:Drivers/src/ch32v20x_spi.c **** 
 150:Drivers/src/ch32v20x_spi.c ****         RCC_GetClocksFreq(&RCC_Clocks);
 283              		.loc 1 150 9
 284 00ae 930784FC 		addi	a5,s0,-56
 285 00b2 3E85     		mv	a0,a5
 286 00b4 97000000 		call	RCC_GetClocksFreq
 286      E7800000 
 151:Drivers/src/ch32v20x_spi.c **** 
 152:Drivers/src/ch32v20x_spi.c ****         sourceclock = RCC_Clocks.SYSCLK_Frequency;
 287              		.loc 1 152 21
 288 00bc 832784FC 		lw	a5,-56(s0)
 289 00c0 232EF4FC 		sw	a5,-36(s0)
 153:Drivers/src/ch32v20x_spi.c **** 
 154:Drivers/src/ch32v20x_spi.c ****         if(I2S_InitStruct->I2S_MCLKOutput == I2S_MCLKOutput_Enable)
 290              		.loc 1 154 26
 291 00c4 832784FB 		lw	a5,-72(s0)
 292 00c8 FA23     		lhu	a4,6(a5)
GAS LISTING C:\Users\SOLDER~1\AppData\Local\Temp\ccmjpsKj.s 			page 9


 293              		.loc 1 154 11
 294 00ca 93070020 		li	a5,512
 295 00ce 6318F702 		bne	a4,a5,.L13
 155:Drivers/src/ch32v20x_spi.c ****         {
 156:Drivers/src/ch32v20x_spi.c ****             tmp = (uint16_t)(((((sourceclock / 256) * 10) / I2S_InitStruct->I2S_AudioFreq)) + 5);
 296              		.loc 1 156 46
 297 00d2 8327C4FD 		lw	a5,-36(s0)
 298 00d6 13D78700 		srli	a4,a5,8
 299              		.loc 1 156 53
 300 00da BA87     		mv	a5,a4
 301 00dc 8A07     		slli	a5,a5,2
 302 00de BA97     		add	a5,a5,a4
 303 00e0 8607     		slli	a5,a5,1
 304 00e2 3E87     		mv	a4,a5
 305              		.loc 1 156 75
 306 00e4 832784FB 		lw	a5,-72(s0)
 307 00e8 9C47     		lw	a5,8(a5)
 308              		.loc 1 156 59
 309 00ea B357F702 		divu	a5,a4,a5
 310              		.loc 1 156 19
 311 00ee C207     		slli	a5,a5,16
 312 00f0 C183     		srli	a5,a5,16
 313 00f2 9507     		addi	a5,a5,5
 314 00f4 C207     		slli	a5,a5,16
 315 00f6 C183     		srli	a5,a5,16
 316              		.loc 1 156 17
 317 00f8 2322F4FE 		sw	a5,-28(s0)
 318 00fc 15A8     		j	.L14
 319              	.L13:
 157:Drivers/src/ch32v20x_spi.c ****         }
 158:Drivers/src/ch32v20x_spi.c ****         else
 159:Drivers/src/ch32v20x_spi.c ****         {
 160:Drivers/src/ch32v20x_spi.c ****             tmp = (uint16_t)(((((sourceclock / (32 * packetlength)) * 10) / I2S_InitStruct->I2S_Aud
 320              		.loc 1 160 52
 321 00fe 8357A4FE 		lhu	a5,-22(s0)
 322 0102 9607     		slli	a5,a5,5
 323 0104 3E87     		mv	a4,a5
 324              		.loc 1 160 46
 325 0106 8327C4FD 		lw	a5,-36(s0)
 326 010a 33D7E702 		divu	a4,a5,a4
 327              		.loc 1 160 69
 328 010e BA87     		mv	a5,a4
 329 0110 8A07     		slli	a5,a5,2
 330 0112 BA97     		add	a5,a5,a4
 331 0114 8607     		slli	a5,a5,1
 332 0116 3E87     		mv	a4,a5
 333              		.loc 1 160 91
 334 0118 832784FB 		lw	a5,-72(s0)
 335 011c 9C47     		lw	a5,8(a5)
 336              		.loc 1 160 75
 337 011e B357F702 		divu	a5,a4,a5
 338              		.loc 1 160 19
 339 0122 C207     		slli	a5,a5,16
 340 0124 C183     		srli	a5,a5,16
 341 0126 9507     		addi	a5,a5,5
 342 0128 C207     		slli	a5,a5,16
 343 012a C183     		srli	a5,a5,16
GAS LISTING C:\Users\SOLDER~1\AppData\Local\Temp\ccmjpsKj.s 			page 10


 344              		.loc 1 160 17
 345 012c 2322F4FE 		sw	a5,-28(s0)
 346              	.L14:
 161:Drivers/src/ch32v20x_spi.c ****         }
 162:Drivers/src/ch32v20x_spi.c **** 
 163:Drivers/src/ch32v20x_spi.c ****         tmp = tmp / 10;
 347              		.loc 1 163 13
 348 0130 032744FE 		lw	a4,-28(s0)
 349 0134 A947     		li	a5,10
 350 0136 B357F702 		divu	a5,a4,a5
 351 013a 2322F4FE 		sw	a5,-28(s0)
 164:Drivers/src/ch32v20x_spi.c ****         i2sodd = (uint16_t)(tmp & (uint16_t)0x0001);
 352              		.loc 1 164 18
 353 013e 832744FE 		lw	a5,-28(s0)
 354 0142 C207     		slli	a5,a5,16
 355 0144 C183     		srli	a5,a5,16
 356              		.loc 1 164 16
 357 0146 858B     		andi	a5,a5,1
 358 0148 2316F4FE 		sh	a5,-20(s0)
 165:Drivers/src/ch32v20x_spi.c ****         i2sdiv = (uint16_t)((tmp - i2sodd) / 2);
 359              		.loc 1 165 34
 360 014c 8357C4FE 		lhu	a5,-20(s0)
 361 0150 032744FE 		lw	a4,-28(s0)
 362 0154 B307F740 		sub	a5,a4,a5
 363              		.loc 1 165 44
 364 0158 8583     		srli	a5,a5,1
 365              		.loc 1 165 16
 366 015a 2317F4FE 		sh	a5,-18(s0)
 166:Drivers/src/ch32v20x_spi.c ****         i2sodd = (uint16_t)(i2sodd << 8);
 367              		.loc 1 166 16
 368 015e 8357C4FE 		lhu	a5,-20(s0)
 369 0162 A207     		slli	a5,a5,8
 370 0164 2316F4FE 		sh	a5,-20(s0)
 371              	.L8:
 167:Drivers/src/ch32v20x_spi.c ****     }
 168:Drivers/src/ch32v20x_spi.c **** 
 169:Drivers/src/ch32v20x_spi.c ****     if((i2sdiv < 2) || (i2sdiv > 0xFF))
 372              		.loc 1 169 7
 373 0168 0357E4FE 		lhu	a4,-18(s0)
 374 016c 8547     		li	a5,1
 375 016e 63F8E700 		bleu	a4,a5,.L15
 376              		.loc 1 169 21 discriminator 1
 377 0172 0357E4FE 		lhu	a4,-18(s0)
 378 0176 9307F00F 		li	a5,255
 379 017a 63F7E700 		bleu	a4,a5,.L16
 380              	.L15:
 170:Drivers/src/ch32v20x_spi.c ****     {
 171:Drivers/src/ch32v20x_spi.c ****         i2sdiv = 2;
 381              		.loc 1 171 16
 382 017e 8947     		li	a5,2
 383 0180 2317F4FE 		sh	a5,-18(s0)
 172:Drivers/src/ch32v20x_spi.c ****         i2sodd = 0;
 384              		.loc 1 172 16
 385 0184 231604FE 		sh	zero,-20(s0)
 386              	.L16:
 173:Drivers/src/ch32v20x_spi.c ****     }
 174:Drivers/src/ch32v20x_spi.c **** 
GAS LISTING C:\Users\SOLDER~1\AppData\Local\Temp\ccmjpsKj.s 			page 11


 175:Drivers/src/ch32v20x_spi.c ****     SPIx->I2SPR = (uint16_t)(i2sdiv | (uint16_t)(i2sodd | (uint16_t)I2S_InitStruct->I2S_MCLKOutput)
 387              		.loc 1 175 83
 388 0188 832784FB 		lw	a5,-72(s0)
 389 018c FE23     		lhu	a5,6(a5)
 390              		.loc 1 175 39
 391 018e 0357C4FE 		lhu	a4,-20(s0)
 392 0192 D98F     		or	a5,a5,a4
 393 0194 C207     		slli	a5,a5,16
 394 0196 C183     		srli	a5,a5,16
 395              		.loc 1 175 19
 396 0198 0357E4FE 		lhu	a4,-18(s0)
 397 019c D98F     		or	a5,a5,a4
 398 019e 13970701 		slli	a4,a5,16
 399 01a2 4183     		srli	a4,a4,16
 400              		.loc 1 175 17
 401 01a4 8327C4FB 		lw	a5,-68(s0)
 402 01a8 9AB3     		sh	a4,32(a5)
 176:Drivers/src/ch32v20x_spi.c ****     tmpreg |= (uint16_t)(I2S_Mode_Select | (uint16_t)(I2S_InitStruct->I2S_Mode |
 403              		.loc 1 176 69
 404 01aa 832784FB 		lw	a5,-72(s0)
 405 01ae 9A23     		lhu	a4,0(a5)
 177:Drivers/src/ch32v20x_spi.c ****                                                       (uint16_t)(I2S_InitStruct->I2S_Standard | (ui
 406              		.loc 1 177 80
 407 01b0 832784FB 		lw	a5,-72(s0)
 408 01b4 B623     		lhu	a3,2(a5)
 409              		.loc 1 177 122
 410 01b6 832784FB 		lw	a5,-72(s0)
 411 01ba D223     		lhu	a2,4(a5)
 178:Drivers/src/ch32v20x_spi.c ****                                                                                                    
 412              		.loc 1 178 132
 413 01bc 832784FB 		lw	a5,-72(s0)
 414 01c0 DE27     		lhu	a5,12(a5)
 177:Drivers/src/ch32v20x_spi.c ****                                                       (uint16_t)(I2S_InitStruct->I2S_Standard | (ui
 415              		.loc 1 177 97
 416 01c2 D18F     		or	a5,a2,a5
 417 01c4 C207     		slli	a5,a5,16
 418 01c6 C183     		srli	a5,a5,16
 177:Drivers/src/ch32v20x_spi.c ****                                                       (uint16_t)(I2S_InitStruct->I2S_Standard | (ui
 419              		.loc 1 177 55
 420 01c8 D58F     		or	a5,a3,a5
 421 01ca C207     		slli	a5,a5,16
 422 01cc C183     		srli	a5,a5,16
 176:Drivers/src/ch32v20x_spi.c ****     tmpreg |= (uint16_t)(I2S_Mode_Select | (uint16_t)(I2S_InitStruct->I2S_Mode |
 423              		.loc 1 176 44
 424 01ce D98F     		or	a5,a4,a5
 425 01d0 C207     		slli	a5,a5,16
 426 01d2 C183     		srli	a5,a5,16
 176:Drivers/src/ch32v20x_spi.c ****     tmpreg |= (uint16_t)(I2S_Mode_Select | (uint16_t)(I2S_InitStruct->I2S_Mode |
 427              		.loc 1 176 12
 428 01d4 035724FE 		lhu	a4,-30(s0)
 429 01d8 D98F     		or	a5,a5,a4
 430 01da 13970701 		slli	a4,a5,16
 431 01de 4183     		srli	a4,a4,16
 432 01e0 8567     		li	a5,4096
 433 01e2 93870780 		addi	a5,a5,-2048
 434 01e6 D98F     		or	a5,a4,a5
 435 01e8 2311F4FE 		sh	a5,-30(s0)
GAS LISTING C:\Users\SOLDER~1\AppData\Local\Temp\ccmjpsKj.s 			page 12


 179:Drivers/src/ch32v20x_spi.c ****     SPIx->I2SCFGR = tmpreg;
 436              		.loc 1 179 19
 437 01ec 8327C4FB 		lw	a5,-68(s0)
 438 01f0 035724FE 		lhu	a4,-30(s0)
 439 01f4 DAAF     		sh	a4,28(a5)
 180:Drivers/src/ch32v20x_spi.c **** }
 440              		.loc 1 180 1
 441 01f6 0100     		nop
 442 01f8 B640     		lw	ra,76(sp)
 443              		.cfi_restore 1
 444 01fa 2644     		lw	s0,72(sp)
 445              		.cfi_restore 8
 446              		.cfi_def_cfa 2, 80
 447 01fc 6161     		addi	sp,sp,80
 448              		.cfi_def_cfa_offset 0
 449 01fe 8280     		jr	ra
 450              		.cfi_endproc
 451              	.LFE18:
 453              		.section	.text.SPI_StructInit,"ax",@progbits
 454              		.align	1
 455              		.globl	SPI_StructInit
 457              	SPI_StructInit:
 458              	.LFB19:
 181:Drivers/src/ch32v20x_spi.c **** 
 182:Drivers/src/ch32v20x_spi.c **** /*********************************************************************
 183:Drivers/src/ch32v20x_spi.c ****  * @fn      SPI_StructInit
 184:Drivers/src/ch32v20x_spi.c ****  *
 185:Drivers/src/ch32v20x_spi.c ****  * @brief   Fills each SPI_InitStruct member with its default value.
 186:Drivers/src/ch32v20x_spi.c ****  *
 187:Drivers/src/ch32v20x_spi.c ****  * @param   SPI_InitStruct - pointer to a SPI_InitTypeDef structure which
 188:Drivers/src/ch32v20x_spi.c ****  *        will be initialized.
 189:Drivers/src/ch32v20x_spi.c ****  *
 190:Drivers/src/ch32v20x_spi.c ****  * @return  none
 191:Drivers/src/ch32v20x_spi.c ****  */
 192:Drivers/src/ch32v20x_spi.c **** void SPI_StructInit(SPI_InitTypeDef *SPI_InitStruct)
 193:Drivers/src/ch32v20x_spi.c **** {
 459              		.loc 1 193 1
 460              		.cfi_startproc
 461 0000 0111     		addi	sp,sp,-32
 462              		.cfi_def_cfa_offset 32
 463 0002 22CE     		sw	s0,28(sp)
 464              		.cfi_offset 8, -4
 465 0004 0010     		addi	s0,sp,32
 466              		.cfi_def_cfa 8, 0
 467 0006 2326A4FE 		sw	a0,-20(s0)
 194:Drivers/src/ch32v20x_spi.c ****     SPI_InitStruct->SPI_Direction = SPI_Direction_2Lines_FullDuplex;
 468              		.loc 1 194 35
 469 000a 8327C4FE 		lw	a5,-20(s0)
 470 000e 23900700 		sh	zero,0(a5)
 195:Drivers/src/ch32v20x_spi.c ****     SPI_InitStruct->SPI_Mode = SPI_Mode_Slave;
 471              		.loc 1 195 30
 472 0012 8327C4FE 		lw	a5,-20(s0)
 473 0016 23910700 		sh	zero,2(a5)
 196:Drivers/src/ch32v20x_spi.c ****     SPI_InitStruct->SPI_DataSize = SPI_DataSize_8b;
 474              		.loc 1 196 34
 475 001a 8327C4FE 		lw	a5,-20(s0)
 476 001e 23920700 		sh	zero,4(a5)
GAS LISTING C:\Users\SOLDER~1\AppData\Local\Temp\ccmjpsKj.s 			page 13


 197:Drivers/src/ch32v20x_spi.c ****     SPI_InitStruct->SPI_CPOL = SPI_CPOL_Low;
 477              		.loc 1 197 30
 478 0022 8327C4FE 		lw	a5,-20(s0)
 479 0026 23930700 		sh	zero,6(a5)
 198:Drivers/src/ch32v20x_spi.c ****     SPI_InitStruct->SPI_CPHA = SPI_CPHA_1Edge;
 480              		.loc 1 198 30
 481 002a 8327C4FE 		lw	a5,-20(s0)
 482 002e 23940700 		sh	zero,8(a5)
 199:Drivers/src/ch32v20x_spi.c ****     SPI_InitStruct->SPI_BaudRatePrescaler = SPI_BaudRatePrescaler_2;
 483              		.loc 1 199 43
 484 0032 8327C4FE 		lw	a5,-20(s0)
 485 0036 23960700 		sh	zero,12(a5)
 200:Drivers/src/ch32v20x_spi.c ****     SPI_InitStruct->SPI_FirstBit = SPI_FirstBit_MSB;
 486              		.loc 1 200 34
 487 003a 8327C4FE 		lw	a5,-20(s0)
 488 003e 23970700 		sh	zero,14(a5)
 201:Drivers/src/ch32v20x_spi.c ****     SPI_InitStruct->SPI_CRCPolynomial = 7;
 489              		.loc 1 201 39
 490 0042 8327C4FE 		lw	a5,-20(s0)
 491 0046 1D47     		li	a4,7
 492 0048 9AAB     		sh	a4,16(a5)
 202:Drivers/src/ch32v20x_spi.c **** }
 493              		.loc 1 202 1
 494 004a 0100     		nop
 495 004c 7244     		lw	s0,28(sp)
 496              		.cfi_restore 8
 497              		.cfi_def_cfa 2, 32
 498 004e 0561     		addi	sp,sp,32
 499              		.cfi_def_cfa_offset 0
 500 0050 8280     		jr	ra
 501              		.cfi_endproc
 502              	.LFE19:
 504              		.section	.text.I2S_StructInit,"ax",@progbits
 505              		.align	1
 506              		.globl	I2S_StructInit
 508              	I2S_StructInit:
 509              	.LFB20:
 203:Drivers/src/ch32v20x_spi.c **** 
 204:Drivers/src/ch32v20x_spi.c **** /*********************************************************************
 205:Drivers/src/ch32v20x_spi.c ****  * @fn      I2S_StructInit
 206:Drivers/src/ch32v20x_spi.c ****  *
 207:Drivers/src/ch32v20x_spi.c ****  * @brief   Fills each I2S_InitStruct member with its default value.
 208:Drivers/src/ch32v20x_spi.c ****  *
 209:Drivers/src/ch32v20x_spi.c ****  * @param   I2S_InitStruct - pointer to a I2S_InitTypeDef structure which
 210:Drivers/src/ch32v20x_spi.c ****  *        will be initialized.
 211:Drivers/src/ch32v20x_spi.c ****  *
 212:Drivers/src/ch32v20x_spi.c ****  * @return  none
 213:Drivers/src/ch32v20x_spi.c ****  */
 214:Drivers/src/ch32v20x_spi.c **** void I2S_StructInit(I2S_InitTypeDef *I2S_InitStruct)
 215:Drivers/src/ch32v20x_spi.c **** {
 510              		.loc 1 215 1
 511              		.cfi_startproc
 512 0000 0111     		addi	sp,sp,-32
 513              		.cfi_def_cfa_offset 32
 514 0002 22CE     		sw	s0,28(sp)
 515              		.cfi_offset 8, -4
 516 0004 0010     		addi	s0,sp,32
GAS LISTING C:\Users\SOLDER~1\AppData\Local\Temp\ccmjpsKj.s 			page 14


 517              		.cfi_def_cfa 8, 0
 518 0006 2326A4FE 		sw	a0,-20(s0)
 216:Drivers/src/ch32v20x_spi.c ****     I2S_InitStruct->I2S_Mode = I2S_Mode_SlaveTx;
 519              		.loc 1 216 30
 520 000a 8327C4FE 		lw	a5,-20(s0)
 521 000e 23900700 		sh	zero,0(a5)
 217:Drivers/src/ch32v20x_spi.c ****     I2S_InitStruct->I2S_Standard = I2S_Standard_Phillips;
 522              		.loc 1 217 34
 523 0012 8327C4FE 		lw	a5,-20(s0)
 524 0016 23910700 		sh	zero,2(a5)
 218:Drivers/src/ch32v20x_spi.c ****     I2S_InitStruct->I2S_DataFormat = I2S_DataFormat_16b;
 525              		.loc 1 218 36
 526 001a 8327C4FE 		lw	a5,-20(s0)
 527 001e 23920700 		sh	zero,4(a5)
 219:Drivers/src/ch32v20x_spi.c ****     I2S_InitStruct->I2S_MCLKOutput = I2S_MCLKOutput_Disable;
 528              		.loc 1 219 36
 529 0022 8327C4FE 		lw	a5,-20(s0)
 530 0026 23930700 		sh	zero,6(a5)
 220:Drivers/src/ch32v20x_spi.c ****     I2S_InitStruct->I2S_AudioFreq = I2S_AudioFreq_Default;
 531              		.loc 1 220 35
 532 002a 8327C4FE 		lw	a5,-20(s0)
 533 002e 0947     		li	a4,2
 534 0030 98C7     		sw	a4,8(a5)
 221:Drivers/src/ch32v20x_spi.c ****     I2S_InitStruct->I2S_CPOL = I2S_CPOL_Low;
 535              		.loc 1 221 30
 536 0032 8327C4FE 		lw	a5,-20(s0)
 537 0036 23960700 		sh	zero,12(a5)
 222:Drivers/src/ch32v20x_spi.c **** }
 538              		.loc 1 222 1
 539 003a 0100     		nop
 540 003c 7244     		lw	s0,28(sp)
 541              		.cfi_restore 8
 542              		.cfi_def_cfa 2, 32
 543 003e 0561     		addi	sp,sp,32
 544              		.cfi_def_cfa_offset 0
 545 0040 8280     		jr	ra
 546              		.cfi_endproc
 547              	.LFE20:
 549              		.section	.text.SPI_Cmd,"ax",@progbits
 550              		.align	1
 551              		.globl	SPI_Cmd
 553              	SPI_Cmd:
 554              	.LFB21:
 223:Drivers/src/ch32v20x_spi.c **** 
 224:Drivers/src/ch32v20x_spi.c **** /*********************************************************************
 225:Drivers/src/ch32v20x_spi.c ****  * @fn      SPI_Cmd
 226:Drivers/src/ch32v20x_spi.c ****  *
 227:Drivers/src/ch32v20x_spi.c ****  * @brief   Enables or disables the specified SPI peripheral.
 228:Drivers/src/ch32v20x_spi.c ****  *
 229:Drivers/src/ch32v20x_spi.c ****  * @param   SPIx - where x can be 1, 2 or 3 to select the SPI peripheral.
 230:Drivers/src/ch32v20x_spi.c ****  *          NewState - ENABLE or DISABLE.
 231:Drivers/src/ch32v20x_spi.c ****  *
 232:Drivers/src/ch32v20x_spi.c ****  * @return  none
 233:Drivers/src/ch32v20x_spi.c ****  */
 234:Drivers/src/ch32v20x_spi.c **** void SPI_Cmd(SPI_TypeDef *SPIx, FunctionalState NewState)
 235:Drivers/src/ch32v20x_spi.c **** {
 555              		.loc 1 235 1
GAS LISTING C:\Users\SOLDER~1\AppData\Local\Temp\ccmjpsKj.s 			page 15


 556              		.cfi_startproc
 557 0000 0111     		addi	sp,sp,-32
 558              		.cfi_def_cfa_offset 32
 559 0002 22CE     		sw	s0,28(sp)
 560              		.cfi_offset 8, -4
 561 0004 0010     		addi	s0,sp,32
 562              		.cfi_def_cfa 8, 0
 563 0006 2326A4FE 		sw	a0,-20(s0)
 564 000a 2324B4FE 		sw	a1,-24(s0)
 236:Drivers/src/ch32v20x_spi.c ****     if(NewState != DISABLE)
 565              		.loc 1 236 7
 566 000e 832784FE 		lw	a5,-24(s0)
 567 0012 99CF     		beq	a5,zero,.L20
 237:Drivers/src/ch32v20x_spi.c ****     {
 238:Drivers/src/ch32v20x_spi.c ****         SPIx->CTLR1 |= CTLR1_SPE_Set;
 568              		.loc 1 238 13
 569 0014 8327C4FE 		lw	a5,-20(s0)
 570 0018 9E23     		lhu	a5,0(a5)
 571 001a C207     		slli	a5,a5,16
 572 001c C183     		srli	a5,a5,16
 573              		.loc 1 238 21
 574 001e 93E70704 		ori	a5,a5,64
 575 0022 13970701 		slli	a4,a5,16
 576 0026 4183     		srli	a4,a4,16
 577 0028 8327C4FE 		lw	a5,-20(s0)
 578 002c 9AA3     		sh	a4,0(a5)
 239:Drivers/src/ch32v20x_spi.c ****     }
 240:Drivers/src/ch32v20x_spi.c ****     else
 241:Drivers/src/ch32v20x_spi.c ****     {
 242:Drivers/src/ch32v20x_spi.c ****         SPIx->CTLR1 &= CTLR1_SPE_Reset;
 243:Drivers/src/ch32v20x_spi.c ****     }
 244:Drivers/src/ch32v20x_spi.c **** }
 579              		.loc 1 244 1
 580 002e 31A8     		j	.L22
 581              	.L20:
 242:Drivers/src/ch32v20x_spi.c ****     }
 582              		.loc 1 242 13
 583 0030 8327C4FE 		lw	a5,-20(s0)
 584 0034 9E23     		lhu	a5,0(a5)
 585 0036 C207     		slli	a5,a5,16
 586 0038 C183     		srli	a5,a5,16
 242:Drivers/src/ch32v20x_spi.c ****     }
 587              		.loc 1 242 21
 588 003a 93F7F7FB 		andi	a5,a5,-65
 589 003e 13970701 		slli	a4,a5,16
 590 0042 4183     		srli	a4,a4,16
 591 0044 8327C4FE 		lw	a5,-20(s0)
 592 0048 9AA3     		sh	a4,0(a5)
 593              	.L22:
 594              		.loc 1 244 1
 595 004a 0100     		nop
 596 004c 7244     		lw	s0,28(sp)
 597              		.cfi_restore 8
 598              		.cfi_def_cfa 2, 32
 599 004e 0561     		addi	sp,sp,32
 600              		.cfi_def_cfa_offset 0
 601 0050 8280     		jr	ra
GAS LISTING C:\Users\SOLDER~1\AppData\Local\Temp\ccmjpsKj.s 			page 16


 602              		.cfi_endproc
 603              	.LFE21:
 605              		.section	.text.I2S_Cmd,"ax",@progbits
 606              		.align	1
 607              		.globl	I2S_Cmd
 609              	I2S_Cmd:
 610              	.LFB22:
 245:Drivers/src/ch32v20x_spi.c **** 
 246:Drivers/src/ch32v20x_spi.c **** /*********************************************************************
 247:Drivers/src/ch32v20x_spi.c ****  * @fn      I2S_Cmd
 248:Drivers/src/ch32v20x_spi.c ****  *
 249:Drivers/src/ch32v20x_spi.c ****  * @brief   Enables or disables the specified SPI peripheral (in I2S mode).
 250:Drivers/src/ch32v20x_spi.c ****  *
 251:Drivers/src/ch32v20x_spi.c ****  * @param   SPIx - where x can be 1, 2 or 3 to select the SPI peripheral.
 252:Drivers/src/ch32v20x_spi.c ****  *          NewState - ENABLE or DISABLE.
 253:Drivers/src/ch32v20x_spi.c ****  *
 254:Drivers/src/ch32v20x_spi.c ****  * @return  none
 255:Drivers/src/ch32v20x_spi.c ****  */
 256:Drivers/src/ch32v20x_spi.c **** void I2S_Cmd(SPI_TypeDef *SPIx, FunctionalState NewState)
 257:Drivers/src/ch32v20x_spi.c **** {
 611              		.loc 1 257 1
 612              		.cfi_startproc
 613 0000 0111     		addi	sp,sp,-32
 614              		.cfi_def_cfa_offset 32
 615 0002 22CE     		sw	s0,28(sp)
 616              		.cfi_offset 8, -4
 617 0004 0010     		addi	s0,sp,32
 618              		.cfi_def_cfa 8, 0
 619 0006 2326A4FE 		sw	a0,-20(s0)
 620 000a 2324B4FE 		sw	a1,-24(s0)
 258:Drivers/src/ch32v20x_spi.c ****     if(NewState != DISABLE)
 621              		.loc 1 258 7
 622 000e 832784FE 		lw	a5,-24(s0)
 623 0012 99CF     		beq	a5,zero,.L24
 259:Drivers/src/ch32v20x_spi.c ****     {
 260:Drivers/src/ch32v20x_spi.c ****         SPIx->I2SCFGR |= I2SCFGR_I2SE_Set;
 624              		.loc 1 260 13
 625 0014 8327C4FE 		lw	a5,-20(s0)
 626 0018 DE2F     		lhu	a5,28(a5)
 627 001a C207     		slli	a5,a5,16
 628 001c C183     		srli	a5,a5,16
 629              		.loc 1 260 23
 630 001e 93E70740 		ori	a5,a5,1024
 631 0022 13970701 		slli	a4,a5,16
 632 0026 4183     		srli	a4,a4,16
 633 0028 8327C4FE 		lw	a5,-20(s0)
 634 002c DAAF     		sh	a4,28(a5)
 261:Drivers/src/ch32v20x_spi.c ****     }
 262:Drivers/src/ch32v20x_spi.c ****     else
 263:Drivers/src/ch32v20x_spi.c ****     {
 264:Drivers/src/ch32v20x_spi.c ****         SPIx->I2SCFGR &= I2SCFGR_I2SE_Reset;
 265:Drivers/src/ch32v20x_spi.c ****     }
 266:Drivers/src/ch32v20x_spi.c **** }
 635              		.loc 1 266 1
 636 002e 31A8     		j	.L26
 637              	.L24:
 264:Drivers/src/ch32v20x_spi.c ****     }
GAS LISTING C:\Users\SOLDER~1\AppData\Local\Temp\ccmjpsKj.s 			page 17


 638              		.loc 1 264 13
 639 0030 8327C4FE 		lw	a5,-20(s0)
 640 0034 DE2F     		lhu	a5,28(a5)
 641 0036 C207     		slli	a5,a5,16
 642 0038 C183     		srli	a5,a5,16
 264:Drivers/src/ch32v20x_spi.c ****     }
 643              		.loc 1 264 23
 644 003a 93F7F7BF 		andi	a5,a5,-1025
 645 003e 13970701 		slli	a4,a5,16
 646 0042 4183     		srli	a4,a4,16
 647 0044 8327C4FE 		lw	a5,-20(s0)
 648 0048 DAAF     		sh	a4,28(a5)
 649              	.L26:
 650              		.loc 1 266 1
 651 004a 0100     		nop
 652 004c 7244     		lw	s0,28(sp)
 653              		.cfi_restore 8
 654              		.cfi_def_cfa 2, 32
 655 004e 0561     		addi	sp,sp,32
 656              		.cfi_def_cfa_offset 0
 657 0050 8280     		jr	ra
 658              		.cfi_endproc
 659              	.LFE22:
 661              		.section	.text.SPI_I2S_ITConfig,"ax",@progbits
 662              		.align	1
 663              		.globl	SPI_I2S_ITConfig
 665              	SPI_I2S_ITConfig:
 666              	.LFB23:
 267:Drivers/src/ch32v20x_spi.c **** 
 268:Drivers/src/ch32v20x_spi.c **** /*********************************************************************
 269:Drivers/src/ch32v20x_spi.c ****  * @fn      SPI_I2S_ITConfig
 270:Drivers/src/ch32v20x_spi.c ****  *
 271:Drivers/src/ch32v20x_spi.c ****  * @brief   Enables or disables the specified SPI/I2S interrupts.
 272:Drivers/src/ch32v20x_spi.c ****  *
 273:Drivers/src/ch32v20x_spi.c ****  * @param   SPIx - where x can be
 274:Drivers/src/ch32v20x_spi.c ****  *            - 1, 2 or 3 in SPI mode.
 275:Drivers/src/ch32v20x_spi.c ****  *            - 2 or 3 in I2S mode.
 276:Drivers/src/ch32v20x_spi.c ****  *          SPI_I2S_IT - specifies the SPI/I2S interrupt source to be
 277:Drivers/src/ch32v20x_spi.c ****  *        enabled or disabled.
 278:Drivers/src/ch32v20x_spi.c ****  *            SPI_I2S_IT_TXE - Tx buffer empty interrupt mask.
 279:Drivers/src/ch32v20x_spi.c ****  *            SPI_I2S_IT_RXNE - Rx buffer not empty interrupt mask.
 280:Drivers/src/ch32v20x_spi.c ****  *            SPI_I2S_IT_ERR - Error interrupt mask.
 281:Drivers/src/ch32v20x_spi.c ****  *          NewState: ENABLE or DISABLE.
 282:Drivers/src/ch32v20x_spi.c ****  * @return  none
 283:Drivers/src/ch32v20x_spi.c ****  */
 284:Drivers/src/ch32v20x_spi.c **** void SPI_I2S_ITConfig(SPI_TypeDef *SPIx, uint8_t SPI_I2S_IT, FunctionalState NewState)
 285:Drivers/src/ch32v20x_spi.c **** {
 667              		.loc 1 285 1
 668              		.cfi_startproc
 669 0000 7971     		addi	sp,sp,-48
 670              		.cfi_def_cfa_offset 48
 671 0002 22D6     		sw	s0,44(sp)
 672              		.cfi_offset 8, -4
 673 0004 0018     		addi	s0,sp,48
 674              		.cfi_def_cfa 8, 0
 675 0006 232EA4FC 		sw	a0,-36(s0)
 676 000a AE87     		mv	a5,a1
GAS LISTING C:\Users\SOLDER~1\AppData\Local\Temp\ccmjpsKj.s 			page 18


 677 000c 232AC4FC 		sw	a2,-44(s0)
 678 0010 A30DF4FC 		sb	a5,-37(s0)
 286:Drivers/src/ch32v20x_spi.c ****     uint16_t itpos = 0, itmask = 0;
 679              		.loc 1 286 14
 680 0014 231704FE 		sh	zero,-18(s0)
 681              		.loc 1 286 25
 682 0018 231604FE 		sh	zero,-20(s0)
 287:Drivers/src/ch32v20x_spi.c **** 
 288:Drivers/src/ch32v20x_spi.c ****     itpos = SPI_I2S_IT >> 4;
 683              		.loc 1 288 11
 684 001c 8347B4FD 		lbu	a5,-37(s0)
 685 0020 9183     		srli	a5,a5,4
 686 0022 93F7F70F 		andi	a5,a5,0xff
 687 0026 2317F4FE 		sh	a5,-18(s0)
 289:Drivers/src/ch32v20x_spi.c ****     itmask = (uint16_t)1 << (uint16_t)itpos;
 688              		.loc 1 289 29
 689 002a 8357E4FE 		lhu	a5,-18(s0)
 690              		.loc 1 289 26
 691 002e 0547     		li	a4,1
 692 0030 B317F700 		sll	a5,a4,a5
 693              		.loc 1 289 12
 694 0034 2316F4FE 		sh	a5,-20(s0)
 290:Drivers/src/ch32v20x_spi.c **** 
 291:Drivers/src/ch32v20x_spi.c ****     if(NewState != DISABLE)
 695              		.loc 1 291 7
 696 0038 832744FD 		lw	a5,-44(s0)
 697 003c 85C3     		beq	a5,zero,.L28
 292:Drivers/src/ch32v20x_spi.c ****     {
 293:Drivers/src/ch32v20x_spi.c ****         SPIx->CTLR2 |= itmask;
 698              		.loc 1 293 13
 699 003e 8327C4FD 		lw	a5,-36(s0)
 700 0042 DE23     		lhu	a5,4(a5)
 701 0044 C207     		slli	a5,a5,16
 702 0046 C183     		srli	a5,a5,16
 703              		.loc 1 293 21
 704 0048 0357C4FE 		lhu	a4,-20(s0)
 705 004c D98F     		or	a5,a5,a4
 706 004e 13970701 		slli	a4,a5,16
 707 0052 4183     		srli	a4,a4,16
 708 0054 8327C4FD 		lw	a5,-36(s0)
 709 0058 DAA3     		sh	a4,4(a5)
 294:Drivers/src/ch32v20x_spi.c ****     }
 295:Drivers/src/ch32v20x_spi.c ****     else
 296:Drivers/src/ch32v20x_spi.c ****     {
 297:Drivers/src/ch32v20x_spi.c ****         SPIx->CTLR2 &= (uint16_t)~itmask;
 298:Drivers/src/ch32v20x_spi.c ****     }
 299:Drivers/src/ch32v20x_spi.c **** }
 710              		.loc 1 299 1
 711 005a 25A0     		j	.L30
 712              	.L28:
 297:Drivers/src/ch32v20x_spi.c ****     }
 713              		.loc 1 297 13
 714 005c 8327C4FD 		lw	a5,-36(s0)
 715 0060 DE23     		lhu	a5,4(a5)
 716 0062 13970701 		slli	a4,a5,16
 717 0066 4183     		srli	a4,a4,16
 297:Drivers/src/ch32v20x_spi.c ****     }
GAS LISTING C:\Users\SOLDER~1\AppData\Local\Temp\ccmjpsKj.s 			page 19


 718              		.loc 1 297 24
 719 0068 8357C4FE 		lhu	a5,-20(s0)
 720 006c 93C7F7FF 		not	a5,a5
 721 0070 C207     		slli	a5,a5,16
 722 0072 C183     		srli	a5,a5,16
 297:Drivers/src/ch32v20x_spi.c ****     }
 723              		.loc 1 297 21
 724 0074 F98F     		and	a5,a4,a5
 725 0076 13970701 		slli	a4,a5,16
 726 007a 4183     		srli	a4,a4,16
 727 007c 8327C4FD 		lw	a5,-36(s0)
 728 0080 DAA3     		sh	a4,4(a5)
 729              	.L30:
 730              		.loc 1 299 1
 731 0082 0100     		nop
 732 0084 3254     		lw	s0,44(sp)
 733              		.cfi_restore 8
 734              		.cfi_def_cfa 2, 48
 735 0086 4561     		addi	sp,sp,48
 736              		.cfi_def_cfa_offset 0
 737 0088 8280     		jr	ra
 738              		.cfi_endproc
 739              	.LFE23:
 741              		.section	.text.SPI_I2S_DMACmd,"ax",@progbits
 742              		.align	1
 743              		.globl	SPI_I2S_DMACmd
 745              	SPI_I2S_DMACmd:
 746              	.LFB24:
 300:Drivers/src/ch32v20x_spi.c **** 
 301:Drivers/src/ch32v20x_spi.c **** /*********************************************************************
 302:Drivers/src/ch32v20x_spi.c ****  * @fn      SPI_I2S_DMACmd
 303:Drivers/src/ch32v20x_spi.c ****  *
 304:Drivers/src/ch32v20x_spi.c ****  * @brief   Enables or disables the SPIx/I2Sx DMA interface.
 305:Drivers/src/ch32v20x_spi.c ****  *
 306:Drivers/src/ch32v20x_spi.c ****  * @param   SPIx - where x can be
 307:Drivers/src/ch32v20x_spi.c ****  *            - 1, 2 or 3 in SPI mode.
 308:Drivers/src/ch32v20x_spi.c ****  *            - 2 or 3 in I2S mode.
 309:Drivers/src/ch32v20x_spi.c ****  *          SPI_I2S_DMAReq - specifies the SPI/I2S DMA transfer request to
 310:Drivers/src/ch32v20x_spi.c ****  *        be enabled or disabled.
 311:Drivers/src/ch32v20x_spi.c ****  *            SPI_I2S_DMAReq_Tx - Tx buffer DMA transfer request.
 312:Drivers/src/ch32v20x_spi.c ****  *            SPI_I2S_DMAReq_Rx - Rx buffer DMA transfer request.
 313:Drivers/src/ch32v20x_spi.c ****  *          NewState - ENABLE or DISABLE.
 314:Drivers/src/ch32v20x_spi.c ****  *
 315:Drivers/src/ch32v20x_spi.c ****  * @return  none
 316:Drivers/src/ch32v20x_spi.c ****  */
 317:Drivers/src/ch32v20x_spi.c **** void SPI_I2S_DMACmd(SPI_TypeDef *SPIx, uint16_t SPI_I2S_DMAReq, FunctionalState NewState)
 318:Drivers/src/ch32v20x_spi.c **** {
 747              		.loc 1 318 1
 748              		.cfi_startproc
 749 0000 0111     		addi	sp,sp,-32
 750              		.cfi_def_cfa_offset 32
 751 0002 22CE     		sw	s0,28(sp)
 752              		.cfi_offset 8, -4
 753 0004 0010     		addi	s0,sp,32
 754              		.cfi_def_cfa 8, 0
 755 0006 2326A4FE 		sw	a0,-20(s0)
 756 000a AE87     		mv	a5,a1
GAS LISTING C:\Users\SOLDER~1\AppData\Local\Temp\ccmjpsKj.s 			page 20


 757 000c 2322C4FE 		sw	a2,-28(s0)
 758 0010 2315F4FE 		sh	a5,-22(s0)
 319:Drivers/src/ch32v20x_spi.c ****     if(NewState != DISABLE)
 759              		.loc 1 319 7
 760 0014 832744FE 		lw	a5,-28(s0)
 761 0018 85C3     		beq	a5,zero,.L32
 320:Drivers/src/ch32v20x_spi.c ****     {
 321:Drivers/src/ch32v20x_spi.c ****         SPIx->CTLR2 |= SPI_I2S_DMAReq;
 762              		.loc 1 321 13
 763 001a 8327C4FE 		lw	a5,-20(s0)
 764 001e DE23     		lhu	a5,4(a5)
 765 0020 C207     		slli	a5,a5,16
 766 0022 C183     		srli	a5,a5,16
 767              		.loc 1 321 21
 768 0024 0357A4FE 		lhu	a4,-22(s0)
 769 0028 D98F     		or	a5,a5,a4
 770 002a 13970701 		slli	a4,a5,16
 771 002e 4183     		srli	a4,a4,16
 772 0030 8327C4FE 		lw	a5,-20(s0)
 773 0034 DAA3     		sh	a4,4(a5)
 322:Drivers/src/ch32v20x_spi.c ****     }
 323:Drivers/src/ch32v20x_spi.c ****     else
 324:Drivers/src/ch32v20x_spi.c ****     {
 325:Drivers/src/ch32v20x_spi.c ****         SPIx->CTLR2 &= (uint16_t)~SPI_I2S_DMAReq;
 326:Drivers/src/ch32v20x_spi.c ****     }
 327:Drivers/src/ch32v20x_spi.c **** }
 774              		.loc 1 327 1
 775 0036 25A0     		j	.L34
 776              	.L32:
 325:Drivers/src/ch32v20x_spi.c ****     }
 777              		.loc 1 325 13
 778 0038 8327C4FE 		lw	a5,-20(s0)
 779 003c DE23     		lhu	a5,4(a5)
 780 003e 13970701 		slli	a4,a5,16
 781 0042 4183     		srli	a4,a4,16
 325:Drivers/src/ch32v20x_spi.c ****     }
 782              		.loc 1 325 24
 783 0044 8357A4FE 		lhu	a5,-22(s0)
 784 0048 93C7F7FF 		not	a5,a5
 785 004c C207     		slli	a5,a5,16
 786 004e C183     		srli	a5,a5,16
 325:Drivers/src/ch32v20x_spi.c ****     }
 787              		.loc 1 325 21
 788 0050 F98F     		and	a5,a4,a5
 789 0052 13970701 		slli	a4,a5,16
 790 0056 4183     		srli	a4,a4,16
 791 0058 8327C4FE 		lw	a5,-20(s0)
 792 005c DAA3     		sh	a4,4(a5)
 793              	.L34:
 794              		.loc 1 327 1
 795 005e 0100     		nop
 796 0060 7244     		lw	s0,28(sp)
 797              		.cfi_restore 8
 798              		.cfi_def_cfa 2, 32
 799 0062 0561     		addi	sp,sp,32
 800              		.cfi_def_cfa_offset 0
 801 0064 8280     		jr	ra
GAS LISTING C:\Users\SOLDER~1\AppData\Local\Temp\ccmjpsKj.s 			page 21


 802              		.cfi_endproc
 803              	.LFE24:
 805              		.section	.text.SPI_I2S_SendData,"ax",@progbits
 806              		.align	1
 807              		.globl	SPI_I2S_SendData
 809              	SPI_I2S_SendData:
 810              	.LFB25:
 328:Drivers/src/ch32v20x_spi.c **** 
 329:Drivers/src/ch32v20x_spi.c **** /*********************************************************************
 330:Drivers/src/ch32v20x_spi.c ****  * @fn      SPI_I2S_SendData
 331:Drivers/src/ch32v20x_spi.c ****  *
 332:Drivers/src/ch32v20x_spi.c ****  * @brief   Transmits a Data through the SPIx/I2Sx peripheral.
 333:Drivers/src/ch32v20x_spi.c ****  *
 334:Drivers/src/ch32v20x_spi.c ****  * @param   SPIx - where x can be
 335:Drivers/src/ch32v20x_spi.c ****  *            - 1, 2 or 3 in SPI mode.
 336:Drivers/src/ch32v20x_spi.c ****  *            - 2 or 3 in I2S mode.
 337:Drivers/src/ch32v20x_spi.c ****  *          Data - Data to be transmitted.
 338:Drivers/src/ch32v20x_spi.c ****  *
 339:Drivers/src/ch32v20x_spi.c ****  * @return  none
 340:Drivers/src/ch32v20x_spi.c ****  */
 341:Drivers/src/ch32v20x_spi.c **** void SPI_I2S_SendData(SPI_TypeDef *SPIx, uint16_t Data)
 342:Drivers/src/ch32v20x_spi.c **** {
 811              		.loc 1 342 1
 812              		.cfi_startproc
 813 0000 0111     		addi	sp,sp,-32
 814              		.cfi_def_cfa_offset 32
 815 0002 22CE     		sw	s0,28(sp)
 816              		.cfi_offset 8, -4
 817 0004 0010     		addi	s0,sp,32
 818              		.cfi_def_cfa 8, 0
 819 0006 2326A4FE 		sw	a0,-20(s0)
 820 000a AE87     		mv	a5,a1
 821 000c 2315F4FE 		sh	a5,-22(s0)
 343:Drivers/src/ch32v20x_spi.c ****     SPIx->DATAR = Data;
 822              		.loc 1 343 17
 823 0010 8327C4FE 		lw	a5,-20(s0)
 824 0014 0357A4FE 		lhu	a4,-22(s0)
 825 0018 DAA7     		sh	a4,12(a5)
 344:Drivers/src/ch32v20x_spi.c **** }
 826              		.loc 1 344 1
 827 001a 0100     		nop
 828 001c 7244     		lw	s0,28(sp)
 829              		.cfi_restore 8
 830              		.cfi_def_cfa 2, 32
 831 001e 0561     		addi	sp,sp,32
 832              		.cfi_def_cfa_offset 0
 833 0020 8280     		jr	ra
 834              		.cfi_endproc
 835              	.LFE25:
 837              		.section	.text.SPI_I2S_ReceiveData,"ax",@progbits
 838              		.align	1
 839              		.globl	SPI_I2S_ReceiveData
 841              	SPI_I2S_ReceiveData:
 842              	.LFB26:
 345:Drivers/src/ch32v20x_spi.c **** 
 346:Drivers/src/ch32v20x_spi.c **** /*********************************************************************
 347:Drivers/src/ch32v20x_spi.c ****  * @fn      SPI_I2S_ReceiveData
GAS LISTING C:\Users\SOLDER~1\AppData\Local\Temp\ccmjpsKj.s 			page 22


 348:Drivers/src/ch32v20x_spi.c ****  *
 349:Drivers/src/ch32v20x_spi.c ****  * @brief   Returns the most recent received data by the SPIx/I2Sx peripheral.
 350:Drivers/src/ch32v20x_spi.c ****  *
 351:Drivers/src/ch32v20x_spi.c ****  * @param   SPIx - where x can be
 352:Drivers/src/ch32v20x_spi.c ****  *            - 1, 2 or 3 in SPI mode.
 353:Drivers/src/ch32v20x_spi.c ****  *            - 2 or 3 in I2S mode.
 354:Drivers/src/ch32v20x_spi.c ****  *          Data - Data to be transmitted.
 355:Drivers/src/ch32v20x_spi.c ****  *
 356:Drivers/src/ch32v20x_spi.c ****  * @return  SPIx->DATAR - The value of the received data.
 357:Drivers/src/ch32v20x_spi.c ****  */
 358:Drivers/src/ch32v20x_spi.c **** uint16_t SPI_I2S_ReceiveData(SPI_TypeDef *SPIx)
 359:Drivers/src/ch32v20x_spi.c **** {
 843              		.loc 1 359 1
 844              		.cfi_startproc
 845 0000 0111     		addi	sp,sp,-32
 846              		.cfi_def_cfa_offset 32
 847 0002 22CE     		sw	s0,28(sp)
 848              		.cfi_offset 8, -4
 849 0004 0010     		addi	s0,sp,32
 850              		.cfi_def_cfa 8, 0
 851 0006 2326A4FE 		sw	a0,-20(s0)
 360:Drivers/src/ch32v20x_spi.c ****     return SPIx->DATAR;
 852              		.loc 1 360 16
 853 000a 8327C4FE 		lw	a5,-20(s0)
 854 000e DE27     		lhu	a5,12(a5)
 855 0010 C207     		slli	a5,a5,16
 856 0012 C183     		srli	a5,a5,16
 361:Drivers/src/ch32v20x_spi.c **** }
 857              		.loc 1 361 1
 858 0014 3E85     		mv	a0,a5
 859 0016 7244     		lw	s0,28(sp)
 860              		.cfi_restore 8
 861              		.cfi_def_cfa 2, 32
 862 0018 0561     		addi	sp,sp,32
 863              		.cfi_def_cfa_offset 0
 864 001a 8280     		jr	ra
 865              		.cfi_endproc
 866              	.LFE26:
 868              		.section	.text.SPI_NSSInternalSoftwareConfig,"ax",@progbits
 869              		.align	1
 870              		.globl	SPI_NSSInternalSoftwareConfig
 872              	SPI_NSSInternalSoftwareConfig:
 873              	.LFB27:
 362:Drivers/src/ch32v20x_spi.c **** 
 363:Drivers/src/ch32v20x_spi.c **** /*********************************************************************
 364:Drivers/src/ch32v20x_spi.c ****  * @fn      SPI_NSSInternalSoftwareConfig
 365:Drivers/src/ch32v20x_spi.c ****  *
 366:Drivers/src/ch32v20x_spi.c ****  * @brief   Configures internally by software the NSS pin for the selected SPI.
 367:Drivers/src/ch32v20x_spi.c ****  *
 368:Drivers/src/ch32v20x_spi.c ****  * @param   SPIx - where x can be 1, 2 or 3 to select the SPI peripheral.
 369:Drivers/src/ch32v20x_spi.c ****  *          SPI_NSSInternalSoft -
 370:Drivers/src/ch32v20x_spi.c ****  *            SPI_NSSInternalSoft_Set - Set NSS pin internally.
 371:Drivers/src/ch32v20x_spi.c ****  *            SPI_NSSInternalSoft_Reset - Reset NSS pin internally.
 372:Drivers/src/ch32v20x_spi.c ****  *
 373:Drivers/src/ch32v20x_spi.c ****  * @return  none
 374:Drivers/src/ch32v20x_spi.c ****  */
 375:Drivers/src/ch32v20x_spi.c **** void SPI_NSSInternalSoftwareConfig(SPI_TypeDef *SPIx, uint16_t SPI_NSSInternalSoft)
GAS LISTING C:\Users\SOLDER~1\AppData\Local\Temp\ccmjpsKj.s 			page 23


 376:Drivers/src/ch32v20x_spi.c **** {
 874              		.loc 1 376 1
 875              		.cfi_startproc
 876 0000 0111     		addi	sp,sp,-32
 877              		.cfi_def_cfa_offset 32
 878 0002 22CE     		sw	s0,28(sp)
 879              		.cfi_offset 8, -4
 880 0004 0010     		addi	s0,sp,32
 881              		.cfi_def_cfa 8, 0
 882 0006 2326A4FE 		sw	a0,-20(s0)
 883 000a AE87     		mv	a5,a1
 884 000c 2315F4FE 		sh	a5,-22(s0)
 377:Drivers/src/ch32v20x_spi.c ****     if(SPI_NSSInternalSoft != SPI_NSSInternalSoft_Reset)
 885              		.loc 1 377 7
 886 0010 0357A4FE 		lhu	a4,-22(s0)
 887 0014 C167     		li	a5,65536
 888 0016 9387F7EF 		addi	a5,a5,-257
 889 001a 6300F702 		beq	a4,a5,.L39
 378:Drivers/src/ch32v20x_spi.c ****     {
 379:Drivers/src/ch32v20x_spi.c ****         SPIx->CTLR1 |= SPI_NSSInternalSoft_Set;
 890              		.loc 1 379 13
 891 001e 8327C4FE 		lw	a5,-20(s0)
 892 0022 9E23     		lhu	a5,0(a5)
 893 0024 C207     		slli	a5,a5,16
 894 0026 C183     		srli	a5,a5,16
 895              		.loc 1 379 21
 896 0028 93E70710 		ori	a5,a5,256
 897 002c 13970701 		slli	a4,a5,16
 898 0030 4183     		srli	a4,a4,16
 899 0032 8327C4FE 		lw	a5,-20(s0)
 900 0036 9AA3     		sh	a4,0(a5)
 380:Drivers/src/ch32v20x_spi.c ****     }
 381:Drivers/src/ch32v20x_spi.c ****     else
 382:Drivers/src/ch32v20x_spi.c ****     {
 383:Drivers/src/ch32v20x_spi.c ****         SPIx->CTLR1 &= SPI_NSSInternalSoft_Reset;
 384:Drivers/src/ch32v20x_spi.c ****     }
 385:Drivers/src/ch32v20x_spi.c **** }
 901              		.loc 1 385 1
 902 0038 31A8     		j	.L41
 903              	.L39:
 383:Drivers/src/ch32v20x_spi.c ****     }
 904              		.loc 1 383 13
 905 003a 8327C4FE 		lw	a5,-20(s0)
 906 003e 9E23     		lhu	a5,0(a5)
 907 0040 C207     		slli	a5,a5,16
 908 0042 C183     		srli	a5,a5,16
 383:Drivers/src/ch32v20x_spi.c ****     }
 909              		.loc 1 383 21
 910 0044 93F7F7EF 		andi	a5,a5,-257
 911 0048 13970701 		slli	a4,a5,16
 912 004c 4183     		srli	a4,a4,16
 913 004e 8327C4FE 		lw	a5,-20(s0)
 914 0052 9AA3     		sh	a4,0(a5)
 915              	.L41:
 916              		.loc 1 385 1
 917 0054 0100     		nop
 918 0056 7244     		lw	s0,28(sp)
GAS LISTING C:\Users\SOLDER~1\AppData\Local\Temp\ccmjpsKj.s 			page 24


 919              		.cfi_restore 8
 920              		.cfi_def_cfa 2, 32
 921 0058 0561     		addi	sp,sp,32
 922              		.cfi_def_cfa_offset 0
 923 005a 8280     		jr	ra
 924              		.cfi_endproc
 925              	.LFE27:
 927              		.section	.text.SPI_SSOutputCmd,"ax",@progbits
 928              		.align	1
 929              		.globl	SPI_SSOutputCmd
 931              	SPI_SSOutputCmd:
 932              	.LFB28:
 386:Drivers/src/ch32v20x_spi.c **** 
 387:Drivers/src/ch32v20x_spi.c **** /*********************************************************************
 388:Drivers/src/ch32v20x_spi.c ****  * @fn      SPI_SSOutputCmd
 389:Drivers/src/ch32v20x_spi.c ****  *
 390:Drivers/src/ch32v20x_spi.c ****  * @brief   Enables or disables the SS output for the selected SPI.
 391:Drivers/src/ch32v20x_spi.c ****  *
 392:Drivers/src/ch32v20x_spi.c ****  * @param   SPIx - where x can be 1, 2 or 3 to select the SPI peripheral.
 393:Drivers/src/ch32v20x_spi.c ****  *          NewState - new state of the SPIx SS output.
 394:Drivers/src/ch32v20x_spi.c ****  *
 395:Drivers/src/ch32v20x_spi.c ****  * @return  none
 396:Drivers/src/ch32v20x_spi.c ****  */
 397:Drivers/src/ch32v20x_spi.c **** void SPI_SSOutputCmd(SPI_TypeDef *SPIx, FunctionalState NewState)
 398:Drivers/src/ch32v20x_spi.c **** {
 933              		.loc 1 398 1
 934              		.cfi_startproc
 935 0000 0111     		addi	sp,sp,-32
 936              		.cfi_def_cfa_offset 32
 937 0002 22CE     		sw	s0,28(sp)
 938              		.cfi_offset 8, -4
 939 0004 0010     		addi	s0,sp,32
 940              		.cfi_def_cfa 8, 0
 941 0006 2326A4FE 		sw	a0,-20(s0)
 942 000a 2324B4FE 		sw	a1,-24(s0)
 399:Drivers/src/ch32v20x_spi.c ****     if(NewState != DISABLE)
 943              		.loc 1 399 7
 944 000e 832784FE 		lw	a5,-24(s0)
 945 0012 99CF     		beq	a5,zero,.L43
 400:Drivers/src/ch32v20x_spi.c ****     {
 401:Drivers/src/ch32v20x_spi.c ****         SPIx->CTLR2 |= CTLR2_SSOE_Set;
 946              		.loc 1 401 13
 947 0014 8327C4FE 		lw	a5,-20(s0)
 948 0018 DE23     		lhu	a5,4(a5)
 949 001a C207     		slli	a5,a5,16
 950 001c C183     		srli	a5,a5,16
 951              		.loc 1 401 21
 952 001e 93E74700 		ori	a5,a5,4
 953 0022 13970701 		slli	a4,a5,16
 954 0026 4183     		srli	a4,a4,16
 955 0028 8327C4FE 		lw	a5,-20(s0)
 956 002c DAA3     		sh	a4,4(a5)
 402:Drivers/src/ch32v20x_spi.c ****     }
 403:Drivers/src/ch32v20x_spi.c ****     else
 404:Drivers/src/ch32v20x_spi.c ****     {
 405:Drivers/src/ch32v20x_spi.c ****         SPIx->CTLR2 &= CTLR2_SSOE_Reset;
 406:Drivers/src/ch32v20x_spi.c ****     }
GAS LISTING C:\Users\SOLDER~1\AppData\Local\Temp\ccmjpsKj.s 			page 25


 407:Drivers/src/ch32v20x_spi.c **** }
 957              		.loc 1 407 1
 958 002e 29A8     		j	.L45
 959              	.L43:
 405:Drivers/src/ch32v20x_spi.c ****     }
 960              		.loc 1 405 13
 961 0030 8327C4FE 		lw	a5,-20(s0)
 962 0034 DE23     		lhu	a5,4(a5)
 963 0036 C207     		slli	a5,a5,16
 964 0038 C183     		srli	a5,a5,16
 405:Drivers/src/ch32v20x_spi.c ****     }
 965              		.loc 1 405 21
 966 003a ED9B     		andi	a5,a5,-5
 967 003c 13970701 		slli	a4,a5,16
 968 0040 4183     		srli	a4,a4,16
 969 0042 8327C4FE 		lw	a5,-20(s0)
 970 0046 DAA3     		sh	a4,4(a5)
 971              	.L45:
 972              		.loc 1 407 1
 973 0048 0100     		nop
 974 004a 7244     		lw	s0,28(sp)
 975              		.cfi_restore 8
 976              		.cfi_def_cfa 2, 32
 977 004c 0561     		addi	sp,sp,32
 978              		.cfi_def_cfa_offset 0
 979 004e 8280     		jr	ra
 980              		.cfi_endproc
 981              	.LFE28:
 983              		.section	.text.SPI_DataSizeConfig,"ax",@progbits
 984              		.align	1
 985              		.globl	SPI_DataSizeConfig
 987              	SPI_DataSizeConfig:
 988              	.LFB29:
 408:Drivers/src/ch32v20x_spi.c **** 
 409:Drivers/src/ch32v20x_spi.c **** /*********************************************************************
 410:Drivers/src/ch32v20x_spi.c ****  * @fn      SPI_DataSizeConfig
 411:Drivers/src/ch32v20x_spi.c ****  *
 412:Drivers/src/ch32v20x_spi.c ****  * @brief   Configures the data size for the selected SPI.
 413:Drivers/src/ch32v20x_spi.c ****  *
 414:Drivers/src/ch32v20x_spi.c ****  * @param   SPIx - where x can be 1, 2 or 3 to select the SPI peripheral.
 415:Drivers/src/ch32v20x_spi.c ****  *          SPI_DataSize - specifies the SPI data size.
 416:Drivers/src/ch32v20x_spi.c ****  *            SPI_DataSize_16b - Set data frame format to 16bit.
 417:Drivers/src/ch32v20x_spi.c ****  *            SPI_DataSize_8b - Set data frame format to 8bit.
 418:Drivers/src/ch32v20x_spi.c ****  *
 419:Drivers/src/ch32v20x_spi.c ****  * @return  none
 420:Drivers/src/ch32v20x_spi.c ****  */
 421:Drivers/src/ch32v20x_spi.c **** void SPI_DataSizeConfig(SPI_TypeDef *SPIx, uint16_t SPI_DataSize)
 422:Drivers/src/ch32v20x_spi.c **** {
 989              		.loc 1 422 1
 990              		.cfi_startproc
 991 0000 0111     		addi	sp,sp,-32
 992              		.cfi_def_cfa_offset 32
 993 0002 22CE     		sw	s0,28(sp)
 994              		.cfi_offset 8, -4
 995 0004 0010     		addi	s0,sp,32
 996              		.cfi_def_cfa 8, 0
 997 0006 2326A4FE 		sw	a0,-20(s0)
GAS LISTING C:\Users\SOLDER~1\AppData\Local\Temp\ccmjpsKj.s 			page 26


 998 000a AE87     		mv	a5,a1
 999 000c 2315F4FE 		sh	a5,-22(s0)
 423:Drivers/src/ch32v20x_spi.c ****     SPIx->CTLR1 &= (uint16_t)~SPI_DataSize_16b;
 1000              		.loc 1 423 9
 1001 0010 8327C4FE 		lw	a5,-20(s0)
 1002 0014 9E23     		lhu	a5,0(a5)
 1003 0016 13970701 		slli	a4,a5,16
 1004 001a 4183     		srli	a4,a4,16
 1005              		.loc 1 423 17
 1006 001c FD77     		li	a5,-4096
 1007 001e 9387F77F 		addi	a5,a5,2047
 1008 0022 F98F     		and	a5,a4,a5
 1009 0024 13970701 		slli	a4,a5,16
 1010 0028 4183     		srli	a4,a4,16
 1011 002a 8327C4FE 		lw	a5,-20(s0)
 1012 002e 9AA3     		sh	a4,0(a5)
 424:Drivers/src/ch32v20x_spi.c ****     SPIx->CTLR1 |= SPI_DataSize;
 1013              		.loc 1 424 9
 1014 0030 8327C4FE 		lw	a5,-20(s0)
 1015 0034 9E23     		lhu	a5,0(a5)
 1016 0036 C207     		slli	a5,a5,16
 1017 0038 C183     		srli	a5,a5,16
 1018              		.loc 1 424 17
 1019 003a 0357A4FE 		lhu	a4,-22(s0)
 1020 003e D98F     		or	a5,a5,a4
 1021 0040 13970701 		slli	a4,a5,16
 1022 0044 4183     		srli	a4,a4,16
 1023 0046 8327C4FE 		lw	a5,-20(s0)
 1024 004a 9AA3     		sh	a4,0(a5)
 425:Drivers/src/ch32v20x_spi.c **** }
 1025              		.loc 1 425 1
 1026 004c 0100     		nop
 1027 004e 7244     		lw	s0,28(sp)
 1028              		.cfi_restore 8
 1029              		.cfi_def_cfa 2, 32
 1030 0050 0561     		addi	sp,sp,32
 1031              		.cfi_def_cfa_offset 0
 1032 0052 8280     		jr	ra
 1033              		.cfi_endproc
 1034              	.LFE29:
 1036              		.section	.text.SPI_TransmitCRC,"ax",@progbits
 1037              		.align	1
 1038              		.globl	SPI_TransmitCRC
 1040              	SPI_TransmitCRC:
 1041              	.LFB30:
 426:Drivers/src/ch32v20x_spi.c **** 
 427:Drivers/src/ch32v20x_spi.c **** /*********************************************************************
 428:Drivers/src/ch32v20x_spi.c ****  * @fn      SPI_TransmitCRC
 429:Drivers/src/ch32v20x_spi.c ****  *
 430:Drivers/src/ch32v20x_spi.c ****  * @brief   Transmit the SPIx CRC value.
 431:Drivers/src/ch32v20x_spi.c ****  *
 432:Drivers/src/ch32v20x_spi.c ****  * @param   SPIx - where x can be 1, 2 or 3 to select the SPI peripheral.
 433:Drivers/src/ch32v20x_spi.c ****  *
 434:Drivers/src/ch32v20x_spi.c ****  * @return  none
 435:Drivers/src/ch32v20x_spi.c ****  */
 436:Drivers/src/ch32v20x_spi.c **** void SPI_TransmitCRC(SPI_TypeDef *SPIx)
 437:Drivers/src/ch32v20x_spi.c **** {
GAS LISTING C:\Users\SOLDER~1\AppData\Local\Temp\ccmjpsKj.s 			page 27


 1042              		.loc 1 437 1
 1043              		.cfi_startproc
 1044 0000 0111     		addi	sp,sp,-32
 1045              		.cfi_def_cfa_offset 32
 1046 0002 22CE     		sw	s0,28(sp)
 1047              		.cfi_offset 8, -4
 1048 0004 0010     		addi	s0,sp,32
 1049              		.cfi_def_cfa 8, 0
 1050 0006 2326A4FE 		sw	a0,-20(s0)
 438:Drivers/src/ch32v20x_spi.c ****     SPIx->CTLR1 |= CTLR1_CRCNext_Set;
 1051              		.loc 1 438 9
 1052 000a 8327C4FE 		lw	a5,-20(s0)
 1053 000e 9E23     		lhu	a5,0(a5)
 1054 0010 13970701 		slli	a4,a5,16
 1055 0014 4183     		srli	a4,a4,16
 1056              		.loc 1 438 17
 1057 0016 8567     		li	a5,4096
 1058 0018 D98F     		or	a5,a4,a5
 1059 001a 13970701 		slli	a4,a5,16
 1060 001e 4183     		srli	a4,a4,16
 1061 0020 8327C4FE 		lw	a5,-20(s0)
 1062 0024 9AA3     		sh	a4,0(a5)
 439:Drivers/src/ch32v20x_spi.c **** }
 1063              		.loc 1 439 1
 1064 0026 0100     		nop
 1065 0028 7244     		lw	s0,28(sp)
 1066              		.cfi_restore 8
 1067              		.cfi_def_cfa 2, 32
 1068 002a 0561     		addi	sp,sp,32
 1069              		.cfi_def_cfa_offset 0
 1070 002c 8280     		jr	ra
 1071              		.cfi_endproc
 1072              	.LFE30:
 1074              		.section	.text.SPI_CalculateCRC,"ax",@progbits
 1075              		.align	1
 1076              		.globl	SPI_CalculateCRC
 1078              	SPI_CalculateCRC:
 1079              	.LFB31:
 440:Drivers/src/ch32v20x_spi.c **** 
 441:Drivers/src/ch32v20x_spi.c **** /*********************************************************************
 442:Drivers/src/ch32v20x_spi.c ****  * @fn      SPI_CalculateCRC
 443:Drivers/src/ch32v20x_spi.c ****  *
 444:Drivers/src/ch32v20x_spi.c ****  * @brief   Enables or disables the CRC value calculation of the transferred bytes.
 445:Drivers/src/ch32v20x_spi.c ****  *
 446:Drivers/src/ch32v20x_spi.c ****  * @param   SPIx - where x can be 1, 2 or 3 to select the SPI peripheral.
 447:Drivers/src/ch32v20x_spi.c ****  *          NewState - new state of the SPIx CRC value calculation.
 448:Drivers/src/ch32v20x_spi.c ****  *
 449:Drivers/src/ch32v20x_spi.c ****  * @return  none
 450:Drivers/src/ch32v20x_spi.c ****  */
 451:Drivers/src/ch32v20x_spi.c **** void SPI_CalculateCRC(SPI_TypeDef *SPIx, FunctionalState NewState)
 452:Drivers/src/ch32v20x_spi.c **** {
 1080              		.loc 1 452 1
 1081              		.cfi_startproc
 1082 0000 0111     		addi	sp,sp,-32
 1083              		.cfi_def_cfa_offset 32
 1084 0002 22CE     		sw	s0,28(sp)
 1085              		.cfi_offset 8, -4
GAS LISTING C:\Users\SOLDER~1\AppData\Local\Temp\ccmjpsKj.s 			page 28


 1086 0004 0010     		addi	s0,sp,32
 1087              		.cfi_def_cfa 8, 0
 1088 0006 2326A4FE 		sw	a0,-20(s0)
 1089 000a 2324B4FE 		sw	a1,-24(s0)
 453:Drivers/src/ch32v20x_spi.c ****     if(NewState != DISABLE)
 1090              		.loc 1 453 7
 1091 000e 832784FE 		lw	a5,-24(s0)
 1092 0012 85C3     		beq	a5,zero,.L49
 454:Drivers/src/ch32v20x_spi.c ****     {
 455:Drivers/src/ch32v20x_spi.c ****         SPIx->CTLR1 |= CTLR1_CRCEN_Set;
 1093              		.loc 1 455 13
 1094 0014 8327C4FE 		lw	a5,-20(s0)
 1095 0018 9E23     		lhu	a5,0(a5)
 1096 001a 13970701 		slli	a4,a5,16
 1097 001e 4183     		srli	a4,a4,16
 1098              		.loc 1 455 21
 1099 0020 8967     		li	a5,8192
 1100 0022 D98F     		or	a5,a4,a5
 1101 0024 13970701 		slli	a4,a5,16
 1102 0028 4183     		srli	a4,a4,16
 1103 002a 8327C4FE 		lw	a5,-20(s0)
 1104 002e 9AA3     		sh	a4,0(a5)
 456:Drivers/src/ch32v20x_spi.c ****     }
 457:Drivers/src/ch32v20x_spi.c ****     else
 458:Drivers/src/ch32v20x_spi.c ****     {
 459:Drivers/src/ch32v20x_spi.c ****         SPIx->CTLR1 &= CTLR1_CRCEN_Reset;
 460:Drivers/src/ch32v20x_spi.c ****     }
 461:Drivers/src/ch32v20x_spi.c **** }
 1105              		.loc 1 461 1
 1106 0030 05A0     		j	.L51
 1107              	.L49:
 459:Drivers/src/ch32v20x_spi.c ****     }
 1108              		.loc 1 459 13
 1109 0032 8327C4FE 		lw	a5,-20(s0)
 1110 0036 9E23     		lhu	a5,0(a5)
 1111 0038 13970701 		slli	a4,a5,16
 1112 003c 4183     		srli	a4,a4,16
 459:Drivers/src/ch32v20x_spi.c ****     }
 1113              		.loc 1 459 21
 1114 003e F977     		li	a5,-8192
 1115 0040 FD17     		addi	a5,a5,-1
 1116 0042 F98F     		and	a5,a4,a5
 1117 0044 13970701 		slli	a4,a5,16
 1118 0048 4183     		srli	a4,a4,16
 1119 004a 8327C4FE 		lw	a5,-20(s0)
 1120 004e 9AA3     		sh	a4,0(a5)
 1121              	.L51:
 1122              		.loc 1 461 1
 1123 0050 0100     		nop
 1124 0052 7244     		lw	s0,28(sp)
 1125              		.cfi_restore 8
 1126              		.cfi_def_cfa 2, 32
 1127 0054 0561     		addi	sp,sp,32
 1128              		.cfi_def_cfa_offset 0
 1129 0056 8280     		jr	ra
 1130              		.cfi_endproc
 1131              	.LFE31:
GAS LISTING C:\Users\SOLDER~1\AppData\Local\Temp\ccmjpsKj.s 			page 29


 1133              		.section	.text.SPI_GetCRC,"ax",@progbits
 1134              		.align	1
 1135              		.globl	SPI_GetCRC
 1137              	SPI_GetCRC:
 1138              	.LFB32:
 462:Drivers/src/ch32v20x_spi.c **** 
 463:Drivers/src/ch32v20x_spi.c **** /*********************************************************************
 464:Drivers/src/ch32v20x_spi.c ****  * @fn      SPI_GetCRC
 465:Drivers/src/ch32v20x_spi.c ****  *
 466:Drivers/src/ch32v20x_spi.c ****  * @brief   Returns the transmit or the receive CRC register value for the specified SPI.
 467:Drivers/src/ch32v20x_spi.c ****  *
 468:Drivers/src/ch32v20x_spi.c ****  * @param   SPIx - where x can be 1, 2 or 3 to select the SPI peripheral.
 469:Drivers/src/ch32v20x_spi.c ****  *          SPI_CRC - specifies the CRC register to be read.
 470:Drivers/src/ch32v20x_spi.c ****  *            SPI_CRC_Tx - Selects Tx CRC register.
 471:Drivers/src/ch32v20x_spi.c ****  *            SPI_CRC_Rx - Selects Rx CRC register.
 472:Drivers/src/ch32v20x_spi.c ****  *
 473:Drivers/src/ch32v20x_spi.c ****  * @return  crcreg: The selected CRC register value.
 474:Drivers/src/ch32v20x_spi.c ****  */
 475:Drivers/src/ch32v20x_spi.c **** uint16_t SPI_GetCRC(SPI_TypeDef *SPIx, uint8_t SPI_CRC)
 476:Drivers/src/ch32v20x_spi.c **** {
 1139              		.loc 1 476 1
 1140              		.cfi_startproc
 1141 0000 7971     		addi	sp,sp,-48
 1142              		.cfi_def_cfa_offset 48
 1143 0002 22D6     		sw	s0,44(sp)
 1144              		.cfi_offset 8, -4
 1145 0004 0018     		addi	s0,sp,48
 1146              		.cfi_def_cfa 8, 0
 1147 0006 232EA4FC 		sw	a0,-36(s0)
 1148 000a AE87     		mv	a5,a1
 1149 000c A30DF4FC 		sb	a5,-37(s0)
 477:Drivers/src/ch32v20x_spi.c ****     uint16_t crcreg = 0;
 1150              		.loc 1 477 14
 1151 0010 231704FE 		sh	zero,-18(s0)
 478:Drivers/src/ch32v20x_spi.c **** 
 479:Drivers/src/ch32v20x_spi.c ****     if(SPI_CRC != SPI_CRC_Rx)
 1152              		.loc 1 479 7
 1153 0014 0347B4FD 		lbu	a4,-37(s0)
 1154 0018 8547     		li	a5,1
 1155 001a 6308F700 		beq	a4,a5,.L53
 480:Drivers/src/ch32v20x_spi.c ****     {
 481:Drivers/src/ch32v20x_spi.c ****         crcreg = SPIx->TCRCR;
 1156              		.loc 1 481 16
 1157 001e 8327C4FD 		lw	a5,-36(s0)
 1158 0022 9E2F     		lhu	a5,24(a5)
 1159 0024 2317F4FE 		sh	a5,-18(s0)
 1160 0028 31A0     		j	.L54
 1161              	.L53:
 482:Drivers/src/ch32v20x_spi.c ****     }
 483:Drivers/src/ch32v20x_spi.c ****     else
 484:Drivers/src/ch32v20x_spi.c ****     {
 485:Drivers/src/ch32v20x_spi.c ****         crcreg = SPIx->RCRCR;
 1162              		.loc 1 485 16
 1163 002a 8327C4FD 		lw	a5,-36(s0)
 1164 002e DE2B     		lhu	a5,20(a5)
 1165 0030 2317F4FE 		sh	a5,-18(s0)
 1166              	.L54:
GAS LISTING C:\Users\SOLDER~1\AppData\Local\Temp\ccmjpsKj.s 			page 30


 486:Drivers/src/ch32v20x_spi.c ****     }
 487:Drivers/src/ch32v20x_spi.c **** 
 488:Drivers/src/ch32v20x_spi.c ****     return crcreg;
 1167              		.loc 1 488 12
 1168 0034 8357E4FE 		lhu	a5,-18(s0)
 489:Drivers/src/ch32v20x_spi.c **** }
 1169              		.loc 1 489 1
 1170 0038 3E85     		mv	a0,a5
 1171 003a 3254     		lw	s0,44(sp)
 1172              		.cfi_restore 8
 1173              		.cfi_def_cfa 2, 48
 1174 003c 4561     		addi	sp,sp,48
 1175              		.cfi_def_cfa_offset 0
 1176 003e 8280     		jr	ra
 1177              		.cfi_endproc
 1178              	.LFE32:
 1180              		.section	.text.SPI_GetCRCPolynomial,"ax",@progbits
 1181              		.align	1
 1182              		.globl	SPI_GetCRCPolynomial
 1184              	SPI_GetCRCPolynomial:
 1185              	.LFB33:
 490:Drivers/src/ch32v20x_spi.c **** 
 491:Drivers/src/ch32v20x_spi.c **** /*********************************************************************
 492:Drivers/src/ch32v20x_spi.c ****  * @fn      SPI_GetCRCPolynomial
 493:Drivers/src/ch32v20x_spi.c ****  *
 494:Drivers/src/ch32v20x_spi.c ****  * @brief   Returns the CRC Polynomial register value for the specified SPI.
 495:Drivers/src/ch32v20x_spi.c ****  *
 496:Drivers/src/ch32v20x_spi.c ****  * @param   SPIx - where x can be 1, 2 or 3 to select the SPI peripheral.
 497:Drivers/src/ch32v20x_spi.c ****  *
 498:Drivers/src/ch32v20x_spi.c ****  * @return  SPIx->CRCR - The CRC Polynomial register value.
 499:Drivers/src/ch32v20x_spi.c ****  */
 500:Drivers/src/ch32v20x_spi.c **** uint16_t SPI_GetCRCPolynomial(SPI_TypeDef *SPIx)
 501:Drivers/src/ch32v20x_spi.c **** {
 1186              		.loc 1 501 1
 1187              		.cfi_startproc
 1188 0000 0111     		addi	sp,sp,-32
 1189              		.cfi_def_cfa_offset 32
 1190 0002 22CE     		sw	s0,28(sp)
 1191              		.cfi_offset 8, -4
 1192 0004 0010     		addi	s0,sp,32
 1193              		.cfi_def_cfa 8, 0
 1194 0006 2326A4FE 		sw	a0,-20(s0)
 502:Drivers/src/ch32v20x_spi.c ****     return SPIx->CRCR;
 1195              		.loc 1 502 16
 1196 000a 8327C4FE 		lw	a5,-20(s0)
 1197 000e 9E2B     		lhu	a5,16(a5)
 1198 0010 C207     		slli	a5,a5,16
 1199 0012 C183     		srli	a5,a5,16
 503:Drivers/src/ch32v20x_spi.c **** }
 1200              		.loc 1 503 1
 1201 0014 3E85     		mv	a0,a5
 1202 0016 7244     		lw	s0,28(sp)
 1203              		.cfi_restore 8
 1204              		.cfi_def_cfa 2, 32
 1205 0018 0561     		addi	sp,sp,32
 1206              		.cfi_def_cfa_offset 0
 1207 001a 8280     		jr	ra
GAS LISTING C:\Users\SOLDER~1\AppData\Local\Temp\ccmjpsKj.s 			page 31


 1208              		.cfi_endproc
 1209              	.LFE33:
 1211              		.section	.text.SPI_BiDirectionalLineConfig,"ax",@progbits
 1212              		.align	1
 1213              		.globl	SPI_BiDirectionalLineConfig
 1215              	SPI_BiDirectionalLineConfig:
 1216              	.LFB34:
 504:Drivers/src/ch32v20x_spi.c **** 
 505:Drivers/src/ch32v20x_spi.c **** /*********************************************************************
 506:Drivers/src/ch32v20x_spi.c ****  * @fn      SPI_BiDirectionalLineConfig
 507:Drivers/src/ch32v20x_spi.c ****  *
 508:Drivers/src/ch32v20x_spi.c ****  * @brief   Selects the data transfer direction in bi-directional mode
 509:Drivers/src/ch32v20x_spi.c ****  *      for the specified SPI.
 510:Drivers/src/ch32v20x_spi.c ****  *
 511:Drivers/src/ch32v20x_spi.c ****  * @param   SPIx - where x can be 1, 2 or 3 to select the SPI peripheral.
 512:Drivers/src/ch32v20x_spi.c ****  *          SPI_Direction - specifies the data transfer direction in
 513:Drivers/src/ch32v20x_spi.c ****  *        bi-directional mode.
 514:Drivers/src/ch32v20x_spi.c ****  *            SPI_Direction_Tx - Selects Tx transmission direction.
 515:Drivers/src/ch32v20x_spi.c ****  *            SPI_Direction_Rx - Selects Rx receive direction.
 516:Drivers/src/ch32v20x_spi.c ****  *
 517:Drivers/src/ch32v20x_spi.c ****  * @return  none
 518:Drivers/src/ch32v20x_spi.c ****  */
 519:Drivers/src/ch32v20x_spi.c **** void SPI_BiDirectionalLineConfig(SPI_TypeDef *SPIx, uint16_t SPI_Direction)
 520:Drivers/src/ch32v20x_spi.c **** {
 1217              		.loc 1 520 1
 1218              		.cfi_startproc
 1219 0000 0111     		addi	sp,sp,-32
 1220              		.cfi_def_cfa_offset 32
 1221 0002 22CE     		sw	s0,28(sp)
 1222              		.cfi_offset 8, -4
 1223 0004 0010     		addi	s0,sp,32
 1224              		.cfi_def_cfa 8, 0
 1225 0006 2326A4FE 		sw	a0,-20(s0)
 1226 000a AE87     		mv	a5,a1
 1227 000c 2315F4FE 		sh	a5,-22(s0)
 521:Drivers/src/ch32v20x_spi.c ****     if(SPI_Direction == SPI_Direction_Tx)
 1228              		.loc 1 521 7
 1229 0010 0357A4FE 		lhu	a4,-22(s0)
 1230 0014 9167     		li	a5,16384
 1231 0016 6311F702 		bne	a4,a5,.L59
 522:Drivers/src/ch32v20x_spi.c ****     {
 523:Drivers/src/ch32v20x_spi.c ****         SPIx->CTLR1 |= SPI_Direction_Tx;
 1232              		.loc 1 523 13
 1233 001a 8327C4FE 		lw	a5,-20(s0)
 1234 001e 9E23     		lhu	a5,0(a5)
 1235 0020 13970701 		slli	a4,a5,16
 1236 0024 4183     		srli	a4,a4,16
 1237              		.loc 1 523 21
 1238 0026 9167     		li	a5,16384
 1239 0028 D98F     		or	a5,a4,a5
 1240 002a 13970701 		slli	a4,a5,16
 1241 002e 4183     		srli	a4,a4,16
 1242 0030 8327C4FE 		lw	a5,-20(s0)
 1243 0034 9AA3     		sh	a4,0(a5)
 524:Drivers/src/ch32v20x_spi.c ****     }
 525:Drivers/src/ch32v20x_spi.c ****     else
 526:Drivers/src/ch32v20x_spi.c ****     {
GAS LISTING C:\Users\SOLDER~1\AppData\Local\Temp\ccmjpsKj.s 			page 32


 527:Drivers/src/ch32v20x_spi.c ****         SPIx->CTLR1 &= SPI_Direction_Rx;
 528:Drivers/src/ch32v20x_spi.c ****     }
 529:Drivers/src/ch32v20x_spi.c **** }
 1244              		.loc 1 529 1
 1245 0036 05A0     		j	.L61
 1246              	.L59:
 527:Drivers/src/ch32v20x_spi.c ****     }
 1247              		.loc 1 527 13
 1248 0038 8327C4FE 		lw	a5,-20(s0)
 1249 003c 9E23     		lhu	a5,0(a5)
 1250 003e 13970701 		slli	a4,a5,16
 1251 0042 4183     		srli	a4,a4,16
 527:Drivers/src/ch32v20x_spi.c ****     }
 1252              		.loc 1 527 21
 1253 0044 F177     		li	a5,-16384
 1254 0046 FD17     		addi	a5,a5,-1
 1255 0048 F98F     		and	a5,a4,a5
 1256 004a 13970701 		slli	a4,a5,16
 1257 004e 4183     		srli	a4,a4,16
 1258 0050 8327C4FE 		lw	a5,-20(s0)
 1259 0054 9AA3     		sh	a4,0(a5)
 1260              	.L61:
 1261              		.loc 1 529 1
 1262 0056 0100     		nop
 1263 0058 7244     		lw	s0,28(sp)
 1264              		.cfi_restore 8
 1265              		.cfi_def_cfa 2, 32
 1266 005a 0561     		addi	sp,sp,32
 1267              		.cfi_def_cfa_offset 0
 1268 005c 8280     		jr	ra
 1269              		.cfi_endproc
 1270              	.LFE34:
 1272              		.section	.text.SPI_I2S_GetFlagStatus,"ax",@progbits
 1273              		.align	1
 1274              		.globl	SPI_I2S_GetFlagStatus
 1276              	SPI_I2S_GetFlagStatus:
 1277              	.LFB35:
 530:Drivers/src/ch32v20x_spi.c **** 
 531:Drivers/src/ch32v20x_spi.c **** /*********************************************************************
 532:Drivers/src/ch32v20x_spi.c ****  * @fn      SPI_I2S_GetFlagStatus
 533:Drivers/src/ch32v20x_spi.c ****  *
 534:Drivers/src/ch32v20x_spi.c ****  * @brief   Checks whether the specified SPI/I2S flag is set or not.
 535:Drivers/src/ch32v20x_spi.c ****  *
 536:Drivers/src/ch32v20x_spi.c ****  * @param   SPIx - where x can be
 537:Drivers/src/ch32v20x_spi.c ****  *            - 1, 2 or 3 in SPI mode.
 538:Drivers/src/ch32v20x_spi.c ****  *            - 2 or 3 in I2S mode.
 539:Drivers/src/ch32v20x_spi.c ****  *          SPI_I2S_FLAG - specifies the SPI/I2S flag to check.
 540:Drivers/src/ch32v20x_spi.c ****  *            SPI_I2S_FLAG_TXE - Transmit buffer empty flag.
 541:Drivers/src/ch32v20x_spi.c ****  *            SPI_I2S_FLAG_RXNE - Receive buffer not empty flag.
 542:Drivers/src/ch32v20x_spi.c ****  *            SPI_I2S_FLAG_BSY - Busy flag.
 543:Drivers/src/ch32v20x_spi.c ****  *            SPI_I2S_FLAG_OVR - Overrun flag.
 544:Drivers/src/ch32v20x_spi.c ****  *            SPI_FLAG_MODF - Mode Fault flag.
 545:Drivers/src/ch32v20x_spi.c ****  *            SPI_FLAG_CRCERR - CRC Error flag.
 546:Drivers/src/ch32v20x_spi.c ****  *            I2S_FLAG_UDR - Underrun Error flag.
 547:Drivers/src/ch32v20x_spi.c ****  *            I2S_FLAG_CHSIDE - Channel Side flag.
 548:Drivers/src/ch32v20x_spi.c ****  *
 549:Drivers/src/ch32v20x_spi.c ****  * @return  FlagStatus: SET or RESET.
GAS LISTING C:\Users\SOLDER~1\AppData\Local\Temp\ccmjpsKj.s 			page 33


 550:Drivers/src/ch32v20x_spi.c ****  */
 551:Drivers/src/ch32v20x_spi.c **** FlagStatus SPI_I2S_GetFlagStatus(SPI_TypeDef *SPIx, uint16_t SPI_I2S_FLAG)
 552:Drivers/src/ch32v20x_spi.c **** {
 1278              		.loc 1 552 1
 1279              		.cfi_startproc
 1280 0000 7971     		addi	sp,sp,-48
 1281              		.cfi_def_cfa_offset 48
 1282 0002 22D6     		sw	s0,44(sp)
 1283              		.cfi_offset 8, -4
 1284 0004 0018     		addi	s0,sp,48
 1285              		.cfi_def_cfa 8, 0
 1286 0006 232EA4FC 		sw	a0,-36(s0)
 1287 000a AE87     		mv	a5,a1
 1288 000c 231DF4FC 		sh	a5,-38(s0)
 553:Drivers/src/ch32v20x_spi.c ****     FlagStatus bitstatus = RESET;
 1289              		.loc 1 553 16
 1290 0010 232604FE 		sw	zero,-20(s0)
 554:Drivers/src/ch32v20x_spi.c **** 
 555:Drivers/src/ch32v20x_spi.c ****     if((SPIx->STATR & SPI_I2S_FLAG) != (uint16_t)RESET)
 1291              		.loc 1 555 13
 1292 0014 8327C4FD 		lw	a5,-36(s0)
 1293 0018 9E27     		lhu	a5,8(a5)
 1294 001a C207     		slli	a5,a5,16
 1295 001c C183     		srli	a5,a5,16
 1296              		.loc 1 555 37
 1297 001e 0357A4FD 		lhu	a4,-38(s0)
 1298 0022 F98F     		and	a5,a5,a4
 1299 0024 C207     		slli	a5,a5,16
 1300 0026 C183     		srli	a5,a5,16
 1301              		.loc 1 555 7
 1302 0028 89C7     		beq	a5,zero,.L63
 556:Drivers/src/ch32v20x_spi.c ****     {
 557:Drivers/src/ch32v20x_spi.c ****         bitstatus = SET;
 1303              		.loc 1 557 19
 1304 002a 8547     		li	a5,1
 1305 002c 2326F4FE 		sw	a5,-20(s0)
 1306 0030 19A0     		j	.L64
 1307              	.L63:
 558:Drivers/src/ch32v20x_spi.c ****     }
 559:Drivers/src/ch32v20x_spi.c ****     else
 560:Drivers/src/ch32v20x_spi.c ****     {
 561:Drivers/src/ch32v20x_spi.c ****         bitstatus = RESET;
 1308              		.loc 1 561 19
 1309 0032 232604FE 		sw	zero,-20(s0)
 1310              	.L64:
 562:Drivers/src/ch32v20x_spi.c ****     }
 563:Drivers/src/ch32v20x_spi.c **** 
 564:Drivers/src/ch32v20x_spi.c ****     return bitstatus;
 1311              		.loc 1 564 12
 1312 0036 8327C4FE 		lw	a5,-20(s0)
 565:Drivers/src/ch32v20x_spi.c **** }
 1313              		.loc 1 565 1
 1314 003a 3E85     		mv	a0,a5
 1315 003c 3254     		lw	s0,44(sp)
 1316              		.cfi_restore 8
 1317              		.cfi_def_cfa 2, 48
 1318 003e 4561     		addi	sp,sp,48
GAS LISTING C:\Users\SOLDER~1\AppData\Local\Temp\ccmjpsKj.s 			page 34


 1319              		.cfi_def_cfa_offset 0
 1320 0040 8280     		jr	ra
 1321              		.cfi_endproc
 1322              	.LFE35:
 1324              		.section	.text.SPI_I2S_ClearFlag,"ax",@progbits
 1325              		.align	1
 1326              		.globl	SPI_I2S_ClearFlag
 1328              	SPI_I2S_ClearFlag:
 1329              	.LFB36:
 566:Drivers/src/ch32v20x_spi.c **** 
 567:Drivers/src/ch32v20x_spi.c **** /*********************************************************************
 568:Drivers/src/ch32v20x_spi.c ****  * @fn      SPI_I2S_ClearFlag
 569:Drivers/src/ch32v20x_spi.c ****  *
 570:Drivers/src/ch32v20x_spi.c ****  * @brief   Clears the SPIx CRC Error (CRCERR) flag.
 571:Drivers/src/ch32v20x_spi.c ****  *
 572:Drivers/src/ch32v20x_spi.c ****  * @param   SPIx - where x can be
 573:Drivers/src/ch32v20x_spi.c ****  *            - 1, 2 or 3 in SPI mode.
 574:Drivers/src/ch32v20x_spi.c ****  *            - 2 or 3 in I2S mode.
 575:Drivers/src/ch32v20x_spi.c ****  *          SPI_I2S_FLAG - specifies the SPI flag to clear.
 576:Drivers/src/ch32v20x_spi.c ****  *            SPI_FLAG_CRCERR - CRC Error flag.
 577:Drivers/src/ch32v20x_spi.c ****  *          Note-
 578:Drivers/src/ch32v20x_spi.c ****  *          - OVR (OverRun error) flag is cleared by software sequence: a read 
 579:Drivers/src/ch32v20x_spi.c ****  *          operation to SPI_DATAR register (SPI_I2S_ReceiveData()) followed by a read 
 580:Drivers/src/ch32v20x_spi.c ****  *          operation to SPI_STATR register (SPI_I2S_GetFlagStatus()).
 581:Drivers/src/ch32v20x_spi.c ****  *          - UDR (UnderRun error) flag is cleared by a read operation to 
 582:Drivers/src/ch32v20x_spi.c ****  *          SPI_STATR register (SPI_I2S_GetFlagStatus()).
 583:Drivers/src/ch32v20x_spi.c ****  *          - MODF (Mode Fault) flag is cleared by software sequence: a read/write 
 584:Drivers/src/ch32v20x_spi.c ****  *          operation to SPI_STATR register (SPI_I2S_GetFlagStatus()) followed by a 
 585:Drivers/src/ch32v20x_spi.c ****  *          write operation to SPI_CTLR1 register (SPI_Cmd() to enable the SPI).
 586:Drivers/src/ch32v20x_spi.c ****  * @return  FlagStatus: SET or RESET.
 587:Drivers/src/ch32v20x_spi.c ****  */
 588:Drivers/src/ch32v20x_spi.c **** void SPI_I2S_ClearFlag(SPI_TypeDef *SPIx, uint16_t SPI_I2S_FLAG)
 589:Drivers/src/ch32v20x_spi.c **** {
 1330              		.loc 1 589 1
 1331              		.cfi_startproc
 1332 0000 0111     		addi	sp,sp,-32
 1333              		.cfi_def_cfa_offset 32
 1334 0002 22CE     		sw	s0,28(sp)
 1335              		.cfi_offset 8, -4
 1336 0004 0010     		addi	s0,sp,32
 1337              		.cfi_def_cfa 8, 0
 1338 0006 2326A4FE 		sw	a0,-20(s0)
 1339 000a AE87     		mv	a5,a1
 1340 000c 2315F4FE 		sh	a5,-22(s0)
 590:Drivers/src/ch32v20x_spi.c ****     SPIx->STATR = (uint16_t)~SPI_I2S_FLAG;
 1341              		.loc 1 590 19
 1342 0010 8357A4FE 		lhu	a5,-22(s0)
 1343 0014 93C7F7FF 		not	a5,a5
 1344 0018 13970701 		slli	a4,a5,16
 1345 001c 4183     		srli	a4,a4,16
 1346              		.loc 1 590 17
 1347 001e 8327C4FE 		lw	a5,-20(s0)
 1348 0022 9AA7     		sh	a4,8(a5)
 591:Drivers/src/ch32v20x_spi.c **** }
 1349              		.loc 1 591 1
 1350 0024 0100     		nop
 1351 0026 7244     		lw	s0,28(sp)
GAS LISTING C:\Users\SOLDER~1\AppData\Local\Temp\ccmjpsKj.s 			page 35


 1352              		.cfi_restore 8
 1353              		.cfi_def_cfa 2, 32
 1354 0028 0561     		addi	sp,sp,32
 1355              		.cfi_def_cfa_offset 0
 1356 002a 8280     		jr	ra
 1357              		.cfi_endproc
 1358              	.LFE36:
 1360              		.section	.text.SPI_I2S_GetITStatus,"ax",@progbits
 1361              		.align	1
 1362              		.globl	SPI_I2S_GetITStatus
 1364              	SPI_I2S_GetITStatus:
 1365              	.LFB37:
 592:Drivers/src/ch32v20x_spi.c **** 
 593:Drivers/src/ch32v20x_spi.c **** /*********************************************************************
 594:Drivers/src/ch32v20x_spi.c ****  * @fn      SPI_I2S_GetITStatus
 595:Drivers/src/ch32v20x_spi.c ****  *
 596:Drivers/src/ch32v20x_spi.c ****  * @brief   Checks whether the specified SPI/I2S interrupt has occurred or not.
 597:Drivers/src/ch32v20x_spi.c ****  *
 598:Drivers/src/ch32v20x_spi.c ****  * @param   SPIx - where x can be
 599:Drivers/src/ch32v20x_spi.c ****  *            - 1, 2 or 3 in SPI mode.
 600:Drivers/src/ch32v20x_spi.c ****  *            - 2 or 3 in I2S mode.
 601:Drivers/src/ch32v20x_spi.c ****  *          SPI_I2S_IT - specifies the SPI/I2S interrupt source to check..
 602:Drivers/src/ch32v20x_spi.c ****  *            SPI_I2S_IT_TXE - Transmit buffer empty interrupt.
 603:Drivers/src/ch32v20x_spi.c ****  *            SPI_I2S_IT_RXNE - Receive buffer not empty interrupt.
 604:Drivers/src/ch32v20x_spi.c ****  *            SPI_I2S_IT_OVR - Overrun interrupt.
 605:Drivers/src/ch32v20x_spi.c ****  *            SPI_IT_MODF - Mode Fault interrupt.
 606:Drivers/src/ch32v20x_spi.c ****  *            SPI_IT_CRCERR - CRC Error interrupt.
 607:Drivers/src/ch32v20x_spi.c ****  *            I2S_IT_UDR - Underrun Error interrupt.
 608:Drivers/src/ch32v20x_spi.c ****  *
 609:Drivers/src/ch32v20x_spi.c ****  * @return  FlagStatus: SET or RESET.
 610:Drivers/src/ch32v20x_spi.c ****  */
 611:Drivers/src/ch32v20x_spi.c **** ITStatus SPI_I2S_GetITStatus(SPI_TypeDef *SPIx, uint8_t SPI_I2S_IT)
 612:Drivers/src/ch32v20x_spi.c **** {
 1366              		.loc 1 612 1
 1367              		.cfi_startproc
 1368 0000 7971     		addi	sp,sp,-48
 1369              		.cfi_def_cfa_offset 48
 1370 0002 22D6     		sw	s0,44(sp)
 1371              		.cfi_offset 8, -4
 1372 0004 0018     		addi	s0,sp,48
 1373              		.cfi_def_cfa 8, 0
 1374 0006 232EA4FC 		sw	a0,-36(s0)
 1375 000a AE87     		mv	a5,a1
 1376 000c A30DF4FC 		sb	a5,-37(s0)
 613:Drivers/src/ch32v20x_spi.c ****     ITStatus bitstatus = RESET;
 1377              		.loc 1 613 14
 1378 0010 232604FE 		sw	zero,-20(s0)
 614:Drivers/src/ch32v20x_spi.c ****     uint16_t itpos = 0, itmask = 0, enablestatus = 0;
 1379              		.loc 1 614 14
 1380 0014 231504FE 		sh	zero,-22(s0)
 1381              		.loc 1 614 25
 1382 0018 231404FE 		sh	zero,-24(s0)
 1383              		.loc 1 614 37
 1384 001c 231304FE 		sh	zero,-26(s0)
 615:Drivers/src/ch32v20x_spi.c **** 
 616:Drivers/src/ch32v20x_spi.c ****     itpos = 0x01 << (SPI_I2S_IT & 0x0F);
 1385              		.loc 1 616 33
GAS LISTING C:\Users\SOLDER~1\AppData\Local\Temp\ccmjpsKj.s 			page 36


 1386 0020 8347B4FD 		lbu	a5,-37(s0)
 1387 0024 BD8B     		andi	a5,a5,15
 1388              		.loc 1 616 18
 1389 0026 0547     		li	a4,1
 1390 0028 B317F700 		sll	a5,a4,a5
 1391              		.loc 1 616 11
 1392 002c 2315F4FE 		sh	a5,-22(s0)
 617:Drivers/src/ch32v20x_spi.c ****     itmask = SPI_I2S_IT >> 4;
 1393              		.loc 1 617 12
 1394 0030 8347B4FD 		lbu	a5,-37(s0)
 1395 0034 9183     		srli	a5,a5,4
 1396 0036 93F7F70F 		andi	a5,a5,0xff
 1397 003a 2314F4FE 		sh	a5,-24(s0)
 618:Drivers/src/ch32v20x_spi.c ****     itmask = 0x01 << itmask;
 1398              		.loc 1 618 19
 1399 003e 835784FE 		lhu	a5,-24(s0)
 1400 0042 0547     		li	a4,1
 1401 0044 B317F700 		sll	a5,a4,a5
 1402              		.loc 1 618 12
 1403 0048 2314F4FE 		sh	a5,-24(s0)
 619:Drivers/src/ch32v20x_spi.c ****     enablestatus = (SPIx->CTLR2 & itmask);
 1404              		.loc 1 619 25
 1405 004c 8327C4FD 		lw	a5,-36(s0)
 1406 0050 DE23     		lhu	a5,4(a5)
 1407 0052 C207     		slli	a5,a5,16
 1408 0054 C183     		srli	a5,a5,16
 1409              		.loc 1 619 18
 1410 0056 035784FE 		lhu	a4,-24(s0)
 1411 005a F98F     		and	a5,a5,a4
 1412 005c 2313F4FE 		sh	a5,-26(s0)
 620:Drivers/src/ch32v20x_spi.c **** 
 621:Drivers/src/ch32v20x_spi.c ****     if(((SPIx->STATR & itpos) != (uint16_t)RESET) && enablestatus)
 1413              		.loc 1 621 14
 1414 0060 8327C4FD 		lw	a5,-36(s0)
 1415 0064 9E27     		lhu	a5,8(a5)
 1416 0066 C207     		slli	a5,a5,16
 1417 0068 C183     		srli	a5,a5,16
 1418              		.loc 1 621 31
 1419 006a 0357A4FE 		lhu	a4,-22(s0)
 1420 006e F98F     		and	a5,a5,a4
 1421 0070 C207     		slli	a5,a5,16
 1422 0072 C183     		srli	a5,a5,16
 1423              		.loc 1 621 7
 1424 0074 81CB     		beq	a5,zero,.L68
 1425              		.loc 1 621 51 discriminator 1
 1426 0076 835764FE 		lhu	a5,-26(s0)
 1427 007a 89C7     		beq	a5,zero,.L68
 622:Drivers/src/ch32v20x_spi.c ****     {
 623:Drivers/src/ch32v20x_spi.c ****         bitstatus = SET;
 1428              		.loc 1 623 19
 1429 007c 8547     		li	a5,1
 1430 007e 2326F4FE 		sw	a5,-20(s0)
 1431 0082 19A0     		j	.L69
 1432              	.L68:
 624:Drivers/src/ch32v20x_spi.c ****     }
 625:Drivers/src/ch32v20x_spi.c ****     else
 626:Drivers/src/ch32v20x_spi.c ****     {
GAS LISTING C:\Users\SOLDER~1\AppData\Local\Temp\ccmjpsKj.s 			page 37


 627:Drivers/src/ch32v20x_spi.c ****         bitstatus = RESET;
 1433              		.loc 1 627 19
 1434 0084 232604FE 		sw	zero,-20(s0)
 1435              	.L69:
 628:Drivers/src/ch32v20x_spi.c ****     }
 629:Drivers/src/ch32v20x_spi.c **** 
 630:Drivers/src/ch32v20x_spi.c ****     return bitstatus;
 1436              		.loc 1 630 12
 1437 0088 8327C4FE 		lw	a5,-20(s0)
 631:Drivers/src/ch32v20x_spi.c **** }
 1438              		.loc 1 631 1
 1439 008c 3E85     		mv	a0,a5
 1440 008e 3254     		lw	s0,44(sp)
 1441              		.cfi_restore 8
 1442              		.cfi_def_cfa 2, 48
 1443 0090 4561     		addi	sp,sp,48
 1444              		.cfi_def_cfa_offset 0
 1445 0092 8280     		jr	ra
 1446              		.cfi_endproc
 1447              	.LFE37:
 1449              		.section	.text.SPI_I2S_ClearITPendingBit,"ax",@progbits
 1450              		.align	1
 1451              		.globl	SPI_I2S_ClearITPendingBit
 1453              	SPI_I2S_ClearITPendingBit:
 1454              	.LFB38:
 632:Drivers/src/ch32v20x_spi.c **** 
 633:Drivers/src/ch32v20x_spi.c **** /*********************************************************************
 634:Drivers/src/ch32v20x_spi.c ****  * @fn      SPI_I2S_ClearITPendingBit
 635:Drivers/src/ch32v20x_spi.c ****  *
 636:Drivers/src/ch32v20x_spi.c ****  * @brief   Clears the SPIx CRC Error (CRCERR) interrupt pending bit.
 637:Drivers/src/ch32v20x_spi.c ****  *
 638:Drivers/src/ch32v20x_spi.c ****  * @param   SPIx - where x can be
 639:Drivers/src/ch32v20x_spi.c ****  *            - 1, 2 or 3 in SPI mode.
 640:Drivers/src/ch32v20x_spi.c ****  *          SPI_I2S_IT - specifies the SPI interrupt pending bit to clear.
 641:Drivers/src/ch32v20x_spi.c ****  *            SPI_IT_CRCERR - CRC Error interrupt.
 642:Drivers/src/ch32v20x_spi.c ****  *         Note-
 643:Drivers/src/ch32v20x_spi.c ****  *         - OVR (OverRun Error) interrupt pending bit is cleared by software 
 644:Drivers/src/ch32v20x_spi.c ****  *         sequence: a read operation to SPI_DATAR register (SPI_I2S_ReceiveData()) 
 645:Drivers/src/ch32v20x_spi.c ****  *         followed by a read operation to SPI_STATR register (SPI_I2S_GetITStatus()).
 646:Drivers/src/ch32v20x_spi.c ****  *         - UDR (UnderRun Error) interrupt pending bit is cleared by a read 
 647:Drivers/src/ch32v20x_spi.c ****  *         operation to SPI_STATR register (SPI_I2S_GetITStatus()).
 648:Drivers/src/ch32v20x_spi.c ****  *         - MODF (Mode Fault) interrupt pending bit is cleared by software sequence:
 649:Drivers/src/ch32v20x_spi.c ****  *         a read/write operation to SPI_STATR register (SPI_I2S_GetITStatus()) 
 650:Drivers/src/ch32v20x_spi.c ****  *         followed by a write operation to SPI_CTLR1 register (SPI_Cmd() to enable 
 651:Drivers/src/ch32v20x_spi.c ****  *         the SPI).      
 652:Drivers/src/ch32v20x_spi.c ****  * @return  none
 653:Drivers/src/ch32v20x_spi.c ****  */
 654:Drivers/src/ch32v20x_spi.c **** void SPI_I2S_ClearITPendingBit(SPI_TypeDef *SPIx, uint8_t SPI_I2S_IT)
 655:Drivers/src/ch32v20x_spi.c **** {
 1455              		.loc 1 655 1
 1456              		.cfi_startproc
 1457 0000 7971     		addi	sp,sp,-48
 1458              		.cfi_def_cfa_offset 48
 1459 0002 22D6     		sw	s0,44(sp)
 1460              		.cfi_offset 8, -4
 1461 0004 0018     		addi	s0,sp,48
 1462              		.cfi_def_cfa 8, 0
GAS LISTING C:\Users\SOLDER~1\AppData\Local\Temp\ccmjpsKj.s 			page 38


 1463 0006 232EA4FC 		sw	a0,-36(s0)
 1464 000a AE87     		mv	a5,a1
 1465 000c A30DF4FC 		sb	a5,-37(s0)
 656:Drivers/src/ch32v20x_spi.c ****     uint16_t itpos = 0;
 1466              		.loc 1 656 14
 1467 0010 231704FE 		sh	zero,-18(s0)
 657:Drivers/src/ch32v20x_spi.c **** 
 658:Drivers/src/ch32v20x_spi.c ****     itpos = 0x01 << (SPI_I2S_IT & 0x0F);
 1468              		.loc 1 658 33
 1469 0014 8347B4FD 		lbu	a5,-37(s0)
 1470 0018 BD8B     		andi	a5,a5,15
 1471              		.loc 1 658 18
 1472 001a 0547     		li	a4,1
 1473 001c B317F700 		sll	a5,a4,a5
 1474              		.loc 1 658 11
 1475 0020 2317F4FE 		sh	a5,-18(s0)
 659:Drivers/src/ch32v20x_spi.c ****     SPIx->STATR = (uint16_t)~itpos;
 1476              		.loc 1 659 19
 1477 0024 8357E4FE 		lhu	a5,-18(s0)
 1478 0028 93C7F7FF 		not	a5,a5
 1479 002c 13970701 		slli	a4,a5,16
 1480 0030 4183     		srli	a4,a4,16
 1481              		.loc 1 659 17
 1482 0032 8327C4FD 		lw	a5,-36(s0)
 1483 0036 9AA7     		sh	a4,8(a5)
 660:Drivers/src/ch32v20x_spi.c **** }
 1484              		.loc 1 660 1
 1485 0038 0100     		nop
 1486 003a 3254     		lw	s0,44(sp)
 1487              		.cfi_restore 8
 1488              		.cfi_def_cfa 2, 48
 1489 003c 4561     		addi	sp,sp,48
 1490              		.cfi_def_cfa_offset 0
 1491 003e 8280     		jr	ra
 1492              		.cfi_endproc
 1493              	.LFE38:
 1495              		.text
 1496              	.Letext0:
 1497              		.file 2 "c:\\dev_tools\\ch32_tools\\risc-v_embedded_gcc12\\riscv-none-elf\\include\\machine\\_defa
 1498              		.file 3 "c:\\dev_tools\\ch32_tools\\risc-v_embedded_gcc12\\riscv-none-elf\\include\\sys\\_stdint.h
 1499              		.file 4 "Drivers/inc/core_riscv.h"
 1500              		.file 5 "Drivers/inc/ch32v20x.h"
 1501              		.file 6 "Drivers/inc/ch32v20x_rcc.h"
 1502              		.file 7 "Drivers/inc/ch32v20x_spi.h"
GAS LISTING C:\Users\SOLDER~1\AppData\Local\Temp\ccmjpsKj.s 			page 39


DEFINED SYMBOLS
                            *ABS*:0000000000000000 ch32v20x_spi.c
C:\Users\SOLDER~1\AppData\Local\Temp\ccmjpsKj.s:14     .text.SPI_I2S_DeInit:0000000000000000 SPI_I2S_DeInit
C:\Users\SOLDER~1\AppData\Local\Temp\ccmjpsKj.s:18     .text.SPI_I2S_DeInit:0000000000000000 .L0 
C:\Users\SOLDER~1\AppData\Local\Temp\ccmjpsKj.s:19     .text.SPI_I2S_DeInit:0000000000000000 $x
C:\Users\SOLDER~1\AppData\Local\Temp\ccmjpsKj.s:19     .text.SPI_I2S_DeInit:0000000000000000 .L0 
C:\Users\SOLDER~1\AppData\Local\Temp\ccmjpsKj.s:20     .text.SPI_I2S_DeInit:0000000000000002 .L0 
C:\Users\SOLDER~1\AppData\Local\Temp\ccmjpsKj.s:23     .text.SPI_I2S_DeInit:0000000000000006 .L0 
C:\Users\SOLDER~1\AppData\Local\Temp\ccmjpsKj.s:24     .text.SPI_I2S_DeInit:0000000000000006 .L0 
C:\Users\SOLDER~1\AppData\Local\Temp\ccmjpsKj.s:26     .text.SPI_I2S_DeInit:0000000000000008 .L0 
C:\Users\SOLDER~1\AppData\Local\Temp\ccmjpsKj.s:29     .text.SPI_I2S_DeInit:000000000000000c .L0 
C:\Users\SOLDER~1\AppData\Local\Temp\ccmjpsKj.s:33     .text.SPI_I2S_DeInit:0000000000000018 .L0 
C:\Users\SOLDER~1\AppData\Local\Temp\ccmjpsKj.s:37     .text.SPI_I2S_DeInit:0000000000000024 .L0 
C:\Users\SOLDER~1\AppData\Local\Temp\ccmjpsKj.s:41     .text.SPI_I2S_DeInit:0000000000000030 .L0 
C:\Users\SOLDER~1\AppData\Local\Temp\ccmjpsKj.s:44     .text.SPI_I2S_DeInit:0000000000000032 .L0 
C:\Users\SOLDER~1\AppData\Local\Temp\ccmjpsKj.s:49     .text.SPI_I2S_DeInit:0000000000000042 .L0 
C:\Users\SOLDER~1\AppData\Local\Temp\ccmjpsKj.s:53     .text.SPI_I2S_DeInit:000000000000004e .L0 
C:\Users\SOLDER~1\AppData\Local\Temp\ccmjpsKj.s:58     .text.SPI_I2S_DeInit:000000000000005a .L0 
C:\Users\SOLDER~1\AppData\Local\Temp\ccmjpsKj.s:60     .text.SPI_I2S_DeInit:000000000000005e .L0 
C:\Users\SOLDER~1\AppData\Local\Temp\ccmjpsKj.s:62     .text.SPI_I2S_DeInit:0000000000000060 .L0 
C:\Users\SOLDER~1\AppData\Local\Temp\ccmjpsKj.s:63     .text.SPI_I2S_DeInit:0000000000000060 .L0 
C:\Users\SOLDER~1\AppData\Local\Temp\ccmjpsKj.s:65     .text.SPI_I2S_DeInit:0000000000000062 .L0 
C:\Users\SOLDER~1\AppData\Local\Temp\ccmjpsKj.s:67     .text.SPI_I2S_DeInit:0000000000000064 .L0 
C:\Users\SOLDER~1\AppData\Local\Temp\ccmjpsKj.s:74     .text.SPI_Init:0000000000000000 SPI_Init
C:\Users\SOLDER~1\AppData\Local\Temp\ccmjpsKj.s:77     .text.SPI_Init:0000000000000000 .L0 
C:\Users\SOLDER~1\AppData\Local\Temp\ccmjpsKj.s:78     .text.SPI_Init:0000000000000000 $x
C:\Users\SOLDER~1\AppData\Local\Temp\ccmjpsKj.s:78     .text.SPI_Init:0000000000000000 .L0 
C:\Users\SOLDER~1\AppData\Local\Temp\ccmjpsKj.s:79     .text.SPI_Init:0000000000000002 .L0 
C:\Users\SOLDER~1\AppData\Local\Temp\ccmjpsKj.s:81     .text.SPI_Init:0000000000000004 .L0 
C:\Users\SOLDER~1\AppData\Local\Temp\ccmjpsKj.s:83     .text.SPI_Init:0000000000000006 .L0 
C:\Users\SOLDER~1\AppData\Local\Temp\ccmjpsKj.s:87     .text.SPI_Init:000000000000000e .L0 
C:\Users\SOLDER~1\AppData\Local\Temp\ccmjpsKj.s:89     .text.SPI_Init:0000000000000012 .L0 
C:\Users\SOLDER~1\AppData\Local\Temp\ccmjpsKj.s:93     .text.SPI_Init:000000000000001c .L0 
C:\Users\SOLDER~1\AppData\Local\Temp\ccmjpsKj.s:100    .text.SPI_Init:000000000000002e .L0 
C:\Users\SOLDER~1\AppData\Local\Temp\ccmjpsKj.s:103    .text.SPI_Init:0000000000000034 .L0 
C:\Users\SOLDER~1\AppData\Local\Temp\ccmjpsKj.s:106    .text.SPI_Init:000000000000003a .L0 
C:\Users\SOLDER~1\AppData\Local\Temp\ccmjpsKj.s:110    .text.SPI_Init:0000000000000042 .L0 
C:\Users\SOLDER~1\AppData\Local\Temp\ccmjpsKj.s:113    .text.SPI_Init:0000000000000048 .L0 
C:\Users\SOLDER~1\AppData\Local\Temp\ccmjpsKj.s:117    .text.SPI_Init:0000000000000050 .L0 
C:\Users\SOLDER~1\AppData\Local\Temp\ccmjpsKj.s:120    .text.SPI_Init:0000000000000056 .L0 
C:\Users\SOLDER~1\AppData\Local\Temp\ccmjpsKj.s:124    .text.SPI_Init:000000000000005e .L0 
C:\Users\SOLDER~1\AppData\Local\Temp\ccmjpsKj.s:127    .text.SPI_Init:0000000000000064 .L0 
C:\Users\SOLDER~1\AppData\Local\Temp\ccmjpsKj.s:131    .text.SPI_Init:000000000000006c .L0 
C:\Users\SOLDER~1\AppData\Local\Temp\ccmjpsKj.s:134    .text.SPI_Init:0000000000000072 .L0 
C:\Users\SOLDER~1\AppData\Local\Temp\ccmjpsKj.s:138    .text.SPI_Init:000000000000007a .L0 
C:\Users\SOLDER~1\AppData\Local\Temp\ccmjpsKj.s:141    .text.SPI_Init:0000000000000080 .L0 
C:\Users\SOLDER~1\AppData\Local\Temp\ccmjpsKj.s:145    .text.SPI_Init:0000000000000088 .L0 
C:\Users\SOLDER~1\AppData\Local\Temp\ccmjpsKj.s:148    .text.SPI_Init:000000000000008e .L0 
C:\Users\SOLDER~1\AppData\Local\Temp\ccmjpsKj.s:152    .text.SPI_Init:0000000000000094 .L0 
C:\Users\SOLDER~1\AppData\Local\Temp\ccmjpsKj.s:156    .text.SPI_Init:000000000000009e .L0 
C:\Users\SOLDER~1\AppData\Local\Temp\ccmjpsKj.s:160    .text.SPI_Init:00000000000000a8 .L0 
C:\Users\SOLDER~1\AppData\Local\Temp\ccmjpsKj.s:165    .text.SPI_Init:00000000000000b4 .L0 
C:\Users\SOLDER~1\AppData\Local\Temp\ccmjpsKj.s:173    .text.SPI_Init:00000000000000c8 .L0 
C:\Users\SOLDER~1\AppData\Local\Temp\ccmjpsKj.s:176    .text.SPI_Init:00000000000000ce .L0 
C:\Users\SOLDER~1\AppData\Local\Temp\ccmjpsKj.s:179    .text.SPI_Init:00000000000000d4 .L0 
C:\Users\SOLDER~1\AppData\Local\Temp\ccmjpsKj.s:181    .text.SPI_Init:00000000000000d8 .L0 
C:\Users\SOLDER~1\AppData\Local\Temp\ccmjpsKj.s:182    .text.SPI_Init:00000000000000d8 .L0 
GAS LISTING C:\Users\SOLDER~1\AppData\Local\Temp\ccmjpsKj.s 			page 40


C:\Users\SOLDER~1\AppData\Local\Temp\ccmjpsKj.s:184    .text.SPI_Init:00000000000000da .L0 
C:\Users\SOLDER~1\AppData\Local\Temp\ccmjpsKj.s:186    .text.SPI_Init:00000000000000dc .L0 
C:\Users\SOLDER~1\AppData\Local\Temp\ccmjpsKj.s:193    .text.I2S_Init:0000000000000000 I2S_Init
C:\Users\SOLDER~1\AppData\Local\Temp\ccmjpsKj.s:196    .text.I2S_Init:0000000000000000 .L0 
C:\Users\SOLDER~1\AppData\Local\Temp\ccmjpsKj.s:197    .text.I2S_Init:0000000000000000 $x
C:\Users\SOLDER~1\AppData\Local\Temp\ccmjpsKj.s:197    .text.I2S_Init:0000000000000000 .L0 
C:\Users\SOLDER~1\AppData\Local\Temp\ccmjpsKj.s:198    .text.I2S_Init:0000000000000002 .L0 
C:\Users\SOLDER~1\AppData\Local\Temp\ccmjpsKj.s:201    .text.I2S_Init:0000000000000006 .L0 
C:\Users\SOLDER~1\AppData\Local\Temp\ccmjpsKj.s:202    .text.I2S_Init:0000000000000006 .L0 
C:\Users\SOLDER~1\AppData\Local\Temp\ccmjpsKj.s:204    .text.I2S_Init:0000000000000008 .L0 
C:\Users\SOLDER~1\AppData\Local\Temp\ccmjpsKj.s:208    .text.I2S_Init:0000000000000010 .L0 
C:\Users\SOLDER~1\AppData\Local\Temp\ccmjpsKj.s:210    .text.I2S_Init:0000000000000014 .L0 
C:\Users\SOLDER~1\AppData\Local\Temp\ccmjpsKj.s:213    .text.I2S_Init:000000000000001a .L0 
C:\Users\SOLDER~1\AppData\Local\Temp\ccmjpsKj.s:215    .text.I2S_Init:000000000000001e .L0 
C:\Users\SOLDER~1\AppData\Local\Temp\ccmjpsKj.s:218    .text.I2S_Init:0000000000000024 .L0 
C:\Users\SOLDER~1\AppData\Local\Temp\ccmjpsKj.s:220    .text.I2S_Init:0000000000000028 .L0 
C:\Users\SOLDER~1\AppData\Local\Temp\ccmjpsKj.s:222    .text.I2S_Init:000000000000002c .L0 
C:\Users\SOLDER~1\AppData\Local\Temp\ccmjpsKj.s:227    .text.I2S_Init:0000000000000038 .L0 
C:\Users\SOLDER~1\AppData\Local\Temp\ccmjpsKj.s:235    .text.I2S_Init:000000000000004c .L0 
C:\Users\SOLDER~1\AppData\Local\Temp\ccmjpsKj.s:239    .text.I2S_Init:0000000000000054 .L0 
C:\Users\SOLDER~1\AppData\Local\Temp\ccmjpsKj.s:243    .text.I2S_Init:000000000000005e .L0 
C:\Users\SOLDER~1\AppData\Local\Temp\ccmjpsKj.s:246    .text.I2S_Init:0000000000000064 .L0 
C:\Users\SOLDER~1\AppData\Local\Temp\ccmjpsKj.s:249    .text.I2S_Init:000000000000006a .L0 
C:\Users\SOLDER~1\AppData\Local\Temp\ccmjpsKj.s:251    .text.I2S_Init:000000000000006e .L0 
C:\Users\SOLDER~1\AppData\Local\Temp\ccmjpsKj.s:256    .text.I2S_Init:0000000000000076 .L0 
C:\Users\SOLDER~1\AppData\Local\Temp\ccmjpsKj.s:259    .text.I2S_Init:000000000000007c .L0 
C:\Users\SOLDER~1\AppData\Local\Temp\ccmjpsKj.s:261    .text.I2S_Init:000000000000007e .L0 
C:\Users\SOLDER~1\AppData\Local\Temp\ccmjpsKj.s:266    .text.I2S_Init:0000000000000086 .L0 
C:\Users\SOLDER~1\AppData\Local\Temp\ccmjpsKj.s:270    .text.I2S_Init:000000000000008c .L0 
C:\Users\SOLDER~1\AppData\Local\Temp\ccmjpsKj.s:275    .text.I2S_Init:000000000000009c .L0 
C:\Users\SOLDER~1\AppData\Local\Temp\ccmjpsKj.s:280    .text.I2S_Init:00000000000000a6 .L0 
C:\Users\SOLDER~1\AppData\Local\Temp\ccmjpsKj.s:284    .text.I2S_Init:00000000000000ae .L0 
C:\Users\SOLDER~1\AppData\Local\Temp\ccmjpsKj.s:288    .text.I2S_Init:00000000000000bc .L0 
C:\Users\SOLDER~1\AppData\Local\Temp\ccmjpsKj.s:291    .text.I2S_Init:00000000000000c4 .L0 
C:\Users\SOLDER~1\AppData\Local\Temp\ccmjpsKj.s:294    .text.I2S_Init:00000000000000ca .L0 
C:\Users\SOLDER~1\AppData\Local\Temp\ccmjpsKj.s:297    .text.I2S_Init:00000000000000d2 .L0 
C:\Users\SOLDER~1\AppData\Local\Temp\ccmjpsKj.s:300    .text.I2S_Init:00000000000000da .L0 
C:\Users\SOLDER~1\AppData\Local\Temp\ccmjpsKj.s:306    .text.I2S_Init:00000000000000e4 .L0 
C:\Users\SOLDER~1\AppData\Local\Temp\ccmjpsKj.s:309    .text.I2S_Init:00000000000000ea .L0 
C:\Users\SOLDER~1\AppData\Local\Temp\ccmjpsKj.s:311    .text.I2S_Init:00000000000000ee .L0 
C:\Users\SOLDER~1\AppData\Local\Temp\ccmjpsKj.s:317    .text.I2S_Init:00000000000000f8 .L0 
C:\Users\SOLDER~1\AppData\Local\Temp\ccmjpsKj.s:321    .text.I2S_Init:00000000000000fe .L0 
C:\Users\SOLDER~1\AppData\Local\Temp\ccmjpsKj.s:325    .text.I2S_Init:0000000000000106 .L0 
C:\Users\SOLDER~1\AppData\Local\Temp\ccmjpsKj.s:328    .text.I2S_Init:000000000000010e .L0 
C:\Users\SOLDER~1\AppData\Local\Temp\ccmjpsKj.s:334    .text.I2S_Init:0000000000000118 .L0 
C:\Users\SOLDER~1\AppData\Local\Temp\ccmjpsKj.s:337    .text.I2S_Init:000000000000011e .L0 
C:\Users\SOLDER~1\AppData\Local\Temp\ccmjpsKj.s:339    .text.I2S_Init:0000000000000122 .L0 
C:\Users\SOLDER~1\AppData\Local\Temp\ccmjpsKj.s:345    .text.I2S_Init:000000000000012c .L0 
C:\Users\SOLDER~1\AppData\Local\Temp\ccmjpsKj.s:348    .text.I2S_Init:0000000000000130 .L0 
C:\Users\SOLDER~1\AppData\Local\Temp\ccmjpsKj.s:353    .text.I2S_Init:000000000000013e .L0 
C:\Users\SOLDER~1\AppData\Local\Temp\ccmjpsKj.s:357    .text.I2S_Init:0000000000000146 .L0 
C:\Users\SOLDER~1\AppData\Local\Temp\ccmjpsKj.s:360    .text.I2S_Init:000000000000014c .L0 
C:\Users\SOLDER~1\AppData\Local\Temp\ccmjpsKj.s:364    .text.I2S_Init:0000000000000158 .L0 
C:\Users\SOLDER~1\AppData\Local\Temp\ccmjpsKj.s:366    .text.I2S_Init:000000000000015a .L0 
C:\Users\SOLDER~1\AppData\Local\Temp\ccmjpsKj.s:368    .text.I2S_Init:000000000000015e .L0 
C:\Users\SOLDER~1\AppData\Local\Temp\ccmjpsKj.s:373    .text.I2S_Init:0000000000000168 .L0 
C:\Users\SOLDER~1\AppData\Local\Temp\ccmjpsKj.s:377    .text.I2S_Init:0000000000000172 .L0 
GAS LISTING C:\Users\SOLDER~1\AppData\Local\Temp\ccmjpsKj.s 			page 41


C:\Users\SOLDER~1\AppData\Local\Temp\ccmjpsKj.s:382    .text.I2S_Init:000000000000017e .L0 
C:\Users\SOLDER~1\AppData\Local\Temp\ccmjpsKj.s:385    .text.I2S_Init:0000000000000184 .L0 
C:\Users\SOLDER~1\AppData\Local\Temp\ccmjpsKj.s:388    .text.I2S_Init:0000000000000188 .L0 
C:\Users\SOLDER~1\AppData\Local\Temp\ccmjpsKj.s:391    .text.I2S_Init:000000000000018e .L0 
C:\Users\SOLDER~1\AppData\Local\Temp\ccmjpsKj.s:396    .text.I2S_Init:0000000000000198 .L0 
C:\Users\SOLDER~1\AppData\Local\Temp\ccmjpsKj.s:401    .text.I2S_Init:00000000000001a4 .L0 
C:\Users\SOLDER~1\AppData\Local\Temp\ccmjpsKj.s:404    .text.I2S_Init:00000000000001aa .L0 
C:\Users\SOLDER~1\AppData\Local\Temp\ccmjpsKj.s:407    .text.I2S_Init:00000000000001b0 .L0 
C:\Users\SOLDER~1\AppData\Local\Temp\ccmjpsKj.s:410    .text.I2S_Init:00000000000001b6 .L0 
C:\Users\SOLDER~1\AppData\Local\Temp\ccmjpsKj.s:413    .text.I2S_Init:00000000000001bc .L0 
C:\Users\SOLDER~1\AppData\Local\Temp\ccmjpsKj.s:416    .text.I2S_Init:00000000000001c2 .L0 
C:\Users\SOLDER~1\AppData\Local\Temp\ccmjpsKj.s:420    .text.I2S_Init:00000000000001c8 .L0 
C:\Users\SOLDER~1\AppData\Local\Temp\ccmjpsKj.s:424    .text.I2S_Init:00000000000001ce .L0 
C:\Users\SOLDER~1\AppData\Local\Temp\ccmjpsKj.s:428    .text.I2S_Init:00000000000001d4 .L0 
C:\Users\SOLDER~1\AppData\Local\Temp\ccmjpsKj.s:437    .text.I2S_Init:00000000000001ec .L0 
C:\Users\SOLDER~1\AppData\Local\Temp\ccmjpsKj.s:441    .text.I2S_Init:00000000000001f6 .L0 
C:\Users\SOLDER~1\AppData\Local\Temp\ccmjpsKj.s:443    .text.I2S_Init:00000000000001fa .L0 
C:\Users\SOLDER~1\AppData\Local\Temp\ccmjpsKj.s:445    .text.I2S_Init:00000000000001fc .L0 
C:\Users\SOLDER~1\AppData\Local\Temp\ccmjpsKj.s:446    .text.I2S_Init:00000000000001fc .L0 
C:\Users\SOLDER~1\AppData\Local\Temp\ccmjpsKj.s:448    .text.I2S_Init:00000000000001fe .L0 
C:\Users\SOLDER~1\AppData\Local\Temp\ccmjpsKj.s:450    .text.I2S_Init:0000000000000200 .L0 
C:\Users\SOLDER~1\AppData\Local\Temp\ccmjpsKj.s:457    .text.SPI_StructInit:0000000000000000 SPI_StructInit
C:\Users\SOLDER~1\AppData\Local\Temp\ccmjpsKj.s:460    .text.SPI_StructInit:0000000000000000 .L0 
C:\Users\SOLDER~1\AppData\Local\Temp\ccmjpsKj.s:461    .text.SPI_StructInit:0000000000000000 $x
C:\Users\SOLDER~1\AppData\Local\Temp\ccmjpsKj.s:461    .text.SPI_StructInit:0000000000000000 .L0 
C:\Users\SOLDER~1\AppData\Local\Temp\ccmjpsKj.s:462    .text.SPI_StructInit:0000000000000002 .L0 
C:\Users\SOLDER~1\AppData\Local\Temp\ccmjpsKj.s:464    .text.SPI_StructInit:0000000000000004 .L0 
C:\Users\SOLDER~1\AppData\Local\Temp\ccmjpsKj.s:466    .text.SPI_StructInit:0000000000000006 .L0 
C:\Users\SOLDER~1\AppData\Local\Temp\ccmjpsKj.s:469    .text.SPI_StructInit:000000000000000a .L0 
C:\Users\SOLDER~1\AppData\Local\Temp\ccmjpsKj.s:472    .text.SPI_StructInit:0000000000000012 .L0 
C:\Users\SOLDER~1\AppData\Local\Temp\ccmjpsKj.s:475    .text.SPI_StructInit:000000000000001a .L0 
C:\Users\SOLDER~1\AppData\Local\Temp\ccmjpsKj.s:478    .text.SPI_StructInit:0000000000000022 .L0 
C:\Users\SOLDER~1\AppData\Local\Temp\ccmjpsKj.s:481    .text.SPI_StructInit:000000000000002a .L0 
C:\Users\SOLDER~1\AppData\Local\Temp\ccmjpsKj.s:484    .text.SPI_StructInit:0000000000000032 .L0 
C:\Users\SOLDER~1\AppData\Local\Temp\ccmjpsKj.s:487    .text.SPI_StructInit:000000000000003a .L0 
C:\Users\SOLDER~1\AppData\Local\Temp\ccmjpsKj.s:490    .text.SPI_StructInit:0000000000000042 .L0 
C:\Users\SOLDER~1\AppData\Local\Temp\ccmjpsKj.s:494    .text.SPI_StructInit:000000000000004a .L0 
C:\Users\SOLDER~1\AppData\Local\Temp\ccmjpsKj.s:496    .text.SPI_StructInit:000000000000004e .L0 
C:\Users\SOLDER~1\AppData\Local\Temp\ccmjpsKj.s:497    .text.SPI_StructInit:000000000000004e .L0 
C:\Users\SOLDER~1\AppData\Local\Temp\ccmjpsKj.s:499    .text.SPI_StructInit:0000000000000050 .L0 
C:\Users\SOLDER~1\AppData\Local\Temp\ccmjpsKj.s:501    .text.SPI_StructInit:0000000000000052 .L0 
C:\Users\SOLDER~1\AppData\Local\Temp\ccmjpsKj.s:508    .text.I2S_StructInit:0000000000000000 I2S_StructInit
C:\Users\SOLDER~1\AppData\Local\Temp\ccmjpsKj.s:511    .text.I2S_StructInit:0000000000000000 .L0 
C:\Users\SOLDER~1\AppData\Local\Temp\ccmjpsKj.s:512    .text.I2S_StructInit:0000000000000000 $x
C:\Users\SOLDER~1\AppData\Local\Temp\ccmjpsKj.s:512    .text.I2S_StructInit:0000000000000000 .L0 
C:\Users\SOLDER~1\AppData\Local\Temp\ccmjpsKj.s:513    .text.I2S_StructInit:0000000000000002 .L0 
C:\Users\SOLDER~1\AppData\Local\Temp\ccmjpsKj.s:515    .text.I2S_StructInit:0000000000000004 .L0 
C:\Users\SOLDER~1\AppData\Local\Temp\ccmjpsKj.s:517    .text.I2S_StructInit:0000000000000006 .L0 
C:\Users\SOLDER~1\AppData\Local\Temp\ccmjpsKj.s:520    .text.I2S_StructInit:000000000000000a .L0 
C:\Users\SOLDER~1\AppData\Local\Temp\ccmjpsKj.s:523    .text.I2S_StructInit:0000000000000012 .L0 
C:\Users\SOLDER~1\AppData\Local\Temp\ccmjpsKj.s:526    .text.I2S_StructInit:000000000000001a .L0 
C:\Users\SOLDER~1\AppData\Local\Temp\ccmjpsKj.s:529    .text.I2S_StructInit:0000000000000022 .L0 
C:\Users\SOLDER~1\AppData\Local\Temp\ccmjpsKj.s:532    .text.I2S_StructInit:000000000000002a .L0 
C:\Users\SOLDER~1\AppData\Local\Temp\ccmjpsKj.s:536    .text.I2S_StructInit:0000000000000032 .L0 
C:\Users\SOLDER~1\AppData\Local\Temp\ccmjpsKj.s:539    .text.I2S_StructInit:000000000000003a .L0 
C:\Users\SOLDER~1\AppData\Local\Temp\ccmjpsKj.s:541    .text.I2S_StructInit:000000000000003e .L0 
C:\Users\SOLDER~1\AppData\Local\Temp\ccmjpsKj.s:542    .text.I2S_StructInit:000000000000003e .L0 
GAS LISTING C:\Users\SOLDER~1\AppData\Local\Temp\ccmjpsKj.s 			page 42


C:\Users\SOLDER~1\AppData\Local\Temp\ccmjpsKj.s:544    .text.I2S_StructInit:0000000000000040 .L0 
C:\Users\SOLDER~1\AppData\Local\Temp\ccmjpsKj.s:546    .text.I2S_StructInit:0000000000000042 .L0 
C:\Users\SOLDER~1\AppData\Local\Temp\ccmjpsKj.s:553    .text.SPI_Cmd:0000000000000000 SPI_Cmd
C:\Users\SOLDER~1\AppData\Local\Temp\ccmjpsKj.s:556    .text.SPI_Cmd:0000000000000000 .L0 
C:\Users\SOLDER~1\AppData\Local\Temp\ccmjpsKj.s:557    .text.SPI_Cmd:0000000000000000 $x
C:\Users\SOLDER~1\AppData\Local\Temp\ccmjpsKj.s:557    .text.SPI_Cmd:0000000000000000 .L0 
C:\Users\SOLDER~1\AppData\Local\Temp\ccmjpsKj.s:558    .text.SPI_Cmd:0000000000000002 .L0 
C:\Users\SOLDER~1\AppData\Local\Temp\ccmjpsKj.s:560    .text.SPI_Cmd:0000000000000004 .L0 
C:\Users\SOLDER~1\AppData\Local\Temp\ccmjpsKj.s:562    .text.SPI_Cmd:0000000000000006 .L0 
C:\Users\SOLDER~1\AppData\Local\Temp\ccmjpsKj.s:566    .text.SPI_Cmd:000000000000000e .L0 
C:\Users\SOLDER~1\AppData\Local\Temp\ccmjpsKj.s:569    .text.SPI_Cmd:0000000000000014 .L0 
C:\Users\SOLDER~1\AppData\Local\Temp\ccmjpsKj.s:574    .text.SPI_Cmd:000000000000001e .L0 
C:\Users\SOLDER~1\AppData\Local\Temp\ccmjpsKj.s:580    .text.SPI_Cmd:000000000000002e .L0 
C:\Users\SOLDER~1\AppData\Local\Temp\ccmjpsKj.s:583    .text.SPI_Cmd:0000000000000030 .L0 
C:\Users\SOLDER~1\AppData\Local\Temp\ccmjpsKj.s:588    .text.SPI_Cmd:000000000000003a .L0 
C:\Users\SOLDER~1\AppData\Local\Temp\ccmjpsKj.s:595    .text.SPI_Cmd:000000000000004a .L0 
C:\Users\SOLDER~1\AppData\Local\Temp\ccmjpsKj.s:597    .text.SPI_Cmd:000000000000004e .L0 
C:\Users\SOLDER~1\AppData\Local\Temp\ccmjpsKj.s:598    .text.SPI_Cmd:000000000000004e .L0 
C:\Users\SOLDER~1\AppData\Local\Temp\ccmjpsKj.s:600    .text.SPI_Cmd:0000000000000050 .L0 
C:\Users\SOLDER~1\AppData\Local\Temp\ccmjpsKj.s:602    .text.SPI_Cmd:0000000000000052 .L0 
C:\Users\SOLDER~1\AppData\Local\Temp\ccmjpsKj.s:609    .text.I2S_Cmd:0000000000000000 I2S_Cmd
C:\Users\SOLDER~1\AppData\Local\Temp\ccmjpsKj.s:612    .text.I2S_Cmd:0000000000000000 .L0 
C:\Users\SOLDER~1\AppData\Local\Temp\ccmjpsKj.s:613    .text.I2S_Cmd:0000000000000000 $x
C:\Users\SOLDER~1\AppData\Local\Temp\ccmjpsKj.s:613    .text.I2S_Cmd:0000000000000000 .L0 
C:\Users\SOLDER~1\AppData\Local\Temp\ccmjpsKj.s:614    .text.I2S_Cmd:0000000000000002 .L0 
C:\Users\SOLDER~1\AppData\Local\Temp\ccmjpsKj.s:616    .text.I2S_Cmd:0000000000000004 .L0 
C:\Users\SOLDER~1\AppData\Local\Temp\ccmjpsKj.s:618    .text.I2S_Cmd:0000000000000006 .L0 
C:\Users\SOLDER~1\AppData\Local\Temp\ccmjpsKj.s:622    .text.I2S_Cmd:000000000000000e .L0 
C:\Users\SOLDER~1\AppData\Local\Temp\ccmjpsKj.s:625    .text.I2S_Cmd:0000000000000014 .L0 
C:\Users\SOLDER~1\AppData\Local\Temp\ccmjpsKj.s:630    .text.I2S_Cmd:000000000000001e .L0 
C:\Users\SOLDER~1\AppData\Local\Temp\ccmjpsKj.s:636    .text.I2S_Cmd:000000000000002e .L0 
C:\Users\SOLDER~1\AppData\Local\Temp\ccmjpsKj.s:639    .text.I2S_Cmd:0000000000000030 .L0 
C:\Users\SOLDER~1\AppData\Local\Temp\ccmjpsKj.s:644    .text.I2S_Cmd:000000000000003a .L0 
C:\Users\SOLDER~1\AppData\Local\Temp\ccmjpsKj.s:651    .text.I2S_Cmd:000000000000004a .L0 
C:\Users\SOLDER~1\AppData\Local\Temp\ccmjpsKj.s:653    .text.I2S_Cmd:000000000000004e .L0 
C:\Users\SOLDER~1\AppData\Local\Temp\ccmjpsKj.s:654    .text.I2S_Cmd:000000000000004e .L0 
C:\Users\SOLDER~1\AppData\Local\Temp\ccmjpsKj.s:656    .text.I2S_Cmd:0000000000000050 .L0 
C:\Users\SOLDER~1\AppData\Local\Temp\ccmjpsKj.s:658    .text.I2S_Cmd:0000000000000052 .L0 
C:\Users\SOLDER~1\AppData\Local\Temp\ccmjpsKj.s:665    .text.SPI_I2S_ITConfig:0000000000000000 SPI_I2S_ITConfig
C:\Users\SOLDER~1\AppData\Local\Temp\ccmjpsKj.s:668    .text.SPI_I2S_ITConfig:0000000000000000 .L0 
C:\Users\SOLDER~1\AppData\Local\Temp\ccmjpsKj.s:669    .text.SPI_I2S_ITConfig:0000000000000000 $x
C:\Users\SOLDER~1\AppData\Local\Temp\ccmjpsKj.s:669    .text.SPI_I2S_ITConfig:0000000000000000 .L0 
C:\Users\SOLDER~1\AppData\Local\Temp\ccmjpsKj.s:670    .text.SPI_I2S_ITConfig:0000000000000002 .L0 
C:\Users\SOLDER~1\AppData\Local\Temp\ccmjpsKj.s:672    .text.SPI_I2S_ITConfig:0000000000000004 .L0 
C:\Users\SOLDER~1\AppData\Local\Temp\ccmjpsKj.s:674    .text.SPI_I2S_ITConfig:0000000000000006 .L0 
C:\Users\SOLDER~1\AppData\Local\Temp\ccmjpsKj.s:680    .text.SPI_I2S_ITConfig:0000000000000014 .L0 
C:\Users\SOLDER~1\AppData\Local\Temp\ccmjpsKj.s:682    .text.SPI_I2S_ITConfig:0000000000000018 .L0 
C:\Users\SOLDER~1\AppData\Local\Temp\ccmjpsKj.s:684    .text.SPI_I2S_ITConfig:000000000000001c .L0 
C:\Users\SOLDER~1\AppData\Local\Temp\ccmjpsKj.s:689    .text.SPI_I2S_ITConfig:000000000000002a .L0 
C:\Users\SOLDER~1\AppData\Local\Temp\ccmjpsKj.s:691    .text.SPI_I2S_ITConfig:000000000000002e .L0 
C:\Users\SOLDER~1\AppData\Local\Temp\ccmjpsKj.s:694    .text.SPI_I2S_ITConfig:0000000000000034 .L0 
C:\Users\SOLDER~1\AppData\Local\Temp\ccmjpsKj.s:696    .text.SPI_I2S_ITConfig:0000000000000038 .L0 
C:\Users\SOLDER~1\AppData\Local\Temp\ccmjpsKj.s:699    .text.SPI_I2S_ITConfig:000000000000003e .L0 
C:\Users\SOLDER~1\AppData\Local\Temp\ccmjpsKj.s:704    .text.SPI_I2S_ITConfig:0000000000000048 .L0 
C:\Users\SOLDER~1\AppData\Local\Temp\ccmjpsKj.s:711    .text.SPI_I2S_ITConfig:000000000000005a .L0 
C:\Users\SOLDER~1\AppData\Local\Temp\ccmjpsKj.s:714    .text.SPI_I2S_ITConfig:000000000000005c .L0 
C:\Users\SOLDER~1\AppData\Local\Temp\ccmjpsKj.s:719    .text.SPI_I2S_ITConfig:0000000000000068 .L0 
GAS LISTING C:\Users\SOLDER~1\AppData\Local\Temp\ccmjpsKj.s 			page 43


C:\Users\SOLDER~1\AppData\Local\Temp\ccmjpsKj.s:724    .text.SPI_I2S_ITConfig:0000000000000074 .L0 
C:\Users\SOLDER~1\AppData\Local\Temp\ccmjpsKj.s:731    .text.SPI_I2S_ITConfig:0000000000000082 .L0 
C:\Users\SOLDER~1\AppData\Local\Temp\ccmjpsKj.s:733    .text.SPI_I2S_ITConfig:0000000000000086 .L0 
C:\Users\SOLDER~1\AppData\Local\Temp\ccmjpsKj.s:734    .text.SPI_I2S_ITConfig:0000000000000086 .L0 
C:\Users\SOLDER~1\AppData\Local\Temp\ccmjpsKj.s:736    .text.SPI_I2S_ITConfig:0000000000000088 .L0 
C:\Users\SOLDER~1\AppData\Local\Temp\ccmjpsKj.s:738    .text.SPI_I2S_ITConfig:000000000000008a .L0 
C:\Users\SOLDER~1\AppData\Local\Temp\ccmjpsKj.s:745    .text.SPI_I2S_DMACmd:0000000000000000 SPI_I2S_DMACmd
C:\Users\SOLDER~1\AppData\Local\Temp\ccmjpsKj.s:748    .text.SPI_I2S_DMACmd:0000000000000000 .L0 
C:\Users\SOLDER~1\AppData\Local\Temp\ccmjpsKj.s:749    .text.SPI_I2S_DMACmd:0000000000000000 $x
C:\Users\SOLDER~1\AppData\Local\Temp\ccmjpsKj.s:749    .text.SPI_I2S_DMACmd:0000000000000000 .L0 
C:\Users\SOLDER~1\AppData\Local\Temp\ccmjpsKj.s:750    .text.SPI_I2S_DMACmd:0000000000000002 .L0 
C:\Users\SOLDER~1\AppData\Local\Temp\ccmjpsKj.s:752    .text.SPI_I2S_DMACmd:0000000000000004 .L0 
C:\Users\SOLDER~1\AppData\Local\Temp\ccmjpsKj.s:754    .text.SPI_I2S_DMACmd:0000000000000006 .L0 
C:\Users\SOLDER~1\AppData\Local\Temp\ccmjpsKj.s:760    .text.SPI_I2S_DMACmd:0000000000000014 .L0 
C:\Users\SOLDER~1\AppData\Local\Temp\ccmjpsKj.s:763    .text.SPI_I2S_DMACmd:000000000000001a .L0 
C:\Users\SOLDER~1\AppData\Local\Temp\ccmjpsKj.s:768    .text.SPI_I2S_DMACmd:0000000000000024 .L0 
C:\Users\SOLDER~1\AppData\Local\Temp\ccmjpsKj.s:775    .text.SPI_I2S_DMACmd:0000000000000036 .L0 
C:\Users\SOLDER~1\AppData\Local\Temp\ccmjpsKj.s:778    .text.SPI_I2S_DMACmd:0000000000000038 .L0 
C:\Users\SOLDER~1\AppData\Local\Temp\ccmjpsKj.s:783    .text.SPI_I2S_DMACmd:0000000000000044 .L0 
C:\Users\SOLDER~1\AppData\Local\Temp\ccmjpsKj.s:788    .text.SPI_I2S_DMACmd:0000000000000050 .L0 
C:\Users\SOLDER~1\AppData\Local\Temp\ccmjpsKj.s:795    .text.SPI_I2S_DMACmd:000000000000005e .L0 
C:\Users\SOLDER~1\AppData\Local\Temp\ccmjpsKj.s:797    .text.SPI_I2S_DMACmd:0000000000000062 .L0 
C:\Users\SOLDER~1\AppData\Local\Temp\ccmjpsKj.s:798    .text.SPI_I2S_DMACmd:0000000000000062 .L0 
C:\Users\SOLDER~1\AppData\Local\Temp\ccmjpsKj.s:800    .text.SPI_I2S_DMACmd:0000000000000064 .L0 
C:\Users\SOLDER~1\AppData\Local\Temp\ccmjpsKj.s:802    .text.SPI_I2S_DMACmd:0000000000000066 .L0 
C:\Users\SOLDER~1\AppData\Local\Temp\ccmjpsKj.s:809    .text.SPI_I2S_SendData:0000000000000000 SPI_I2S_SendData
C:\Users\SOLDER~1\AppData\Local\Temp\ccmjpsKj.s:812    .text.SPI_I2S_SendData:0000000000000000 .L0 
C:\Users\SOLDER~1\AppData\Local\Temp\ccmjpsKj.s:813    .text.SPI_I2S_SendData:0000000000000000 $x
C:\Users\SOLDER~1\AppData\Local\Temp\ccmjpsKj.s:813    .text.SPI_I2S_SendData:0000000000000000 .L0 
C:\Users\SOLDER~1\AppData\Local\Temp\ccmjpsKj.s:814    .text.SPI_I2S_SendData:0000000000000002 .L0 
C:\Users\SOLDER~1\AppData\Local\Temp\ccmjpsKj.s:816    .text.SPI_I2S_SendData:0000000000000004 .L0 
C:\Users\SOLDER~1\AppData\Local\Temp\ccmjpsKj.s:818    .text.SPI_I2S_SendData:0000000000000006 .L0 
C:\Users\SOLDER~1\AppData\Local\Temp\ccmjpsKj.s:823    .text.SPI_I2S_SendData:0000000000000010 .L0 
C:\Users\SOLDER~1\AppData\Local\Temp\ccmjpsKj.s:827    .text.SPI_I2S_SendData:000000000000001a .L0 
C:\Users\SOLDER~1\AppData\Local\Temp\ccmjpsKj.s:829    .text.SPI_I2S_SendData:000000000000001e .L0 
C:\Users\SOLDER~1\AppData\Local\Temp\ccmjpsKj.s:830    .text.SPI_I2S_SendData:000000000000001e .L0 
C:\Users\SOLDER~1\AppData\Local\Temp\ccmjpsKj.s:832    .text.SPI_I2S_SendData:0000000000000020 .L0 
C:\Users\SOLDER~1\AppData\Local\Temp\ccmjpsKj.s:834    .text.SPI_I2S_SendData:0000000000000022 .L0 
C:\Users\SOLDER~1\AppData\Local\Temp\ccmjpsKj.s:841    .text.SPI_I2S_ReceiveData:0000000000000000 SPI_I2S_ReceiveData
C:\Users\SOLDER~1\AppData\Local\Temp\ccmjpsKj.s:844    .text.SPI_I2S_ReceiveData:0000000000000000 .L0 
C:\Users\SOLDER~1\AppData\Local\Temp\ccmjpsKj.s:845    .text.SPI_I2S_ReceiveData:0000000000000000 $x
C:\Users\SOLDER~1\AppData\Local\Temp\ccmjpsKj.s:845    .text.SPI_I2S_ReceiveData:0000000000000000 .L0 
C:\Users\SOLDER~1\AppData\Local\Temp\ccmjpsKj.s:846    .text.SPI_I2S_ReceiveData:0000000000000002 .L0 
C:\Users\SOLDER~1\AppData\Local\Temp\ccmjpsKj.s:848    .text.SPI_I2S_ReceiveData:0000000000000004 .L0 
C:\Users\SOLDER~1\AppData\Local\Temp\ccmjpsKj.s:850    .text.SPI_I2S_ReceiveData:0000000000000006 .L0 
C:\Users\SOLDER~1\AppData\Local\Temp\ccmjpsKj.s:853    .text.SPI_I2S_ReceiveData:000000000000000a .L0 
C:\Users\SOLDER~1\AppData\Local\Temp\ccmjpsKj.s:858    .text.SPI_I2S_ReceiveData:0000000000000014 .L0 
C:\Users\SOLDER~1\AppData\Local\Temp\ccmjpsKj.s:860    .text.SPI_I2S_ReceiveData:0000000000000018 .L0 
C:\Users\SOLDER~1\AppData\Local\Temp\ccmjpsKj.s:861    .text.SPI_I2S_ReceiveData:0000000000000018 .L0 
C:\Users\SOLDER~1\AppData\Local\Temp\ccmjpsKj.s:863    .text.SPI_I2S_ReceiveData:000000000000001a .L0 
C:\Users\SOLDER~1\AppData\Local\Temp\ccmjpsKj.s:865    .text.SPI_I2S_ReceiveData:000000000000001c .L0 
C:\Users\SOLDER~1\AppData\Local\Temp\ccmjpsKj.s:872    .text.SPI_NSSInternalSoftwareConfig:0000000000000000 SPI_NSSInternalSoftwareConfig
C:\Users\SOLDER~1\AppData\Local\Temp\ccmjpsKj.s:875    .text.SPI_NSSInternalSoftwareConfig:0000000000000000 .L0 
C:\Users\SOLDER~1\AppData\Local\Temp\ccmjpsKj.s:876    .text.SPI_NSSInternalSoftwareConfig:0000000000000000 $x
C:\Users\SOLDER~1\AppData\Local\Temp\ccmjpsKj.s:876    .text.SPI_NSSInternalSoftwareConfig:0000000000000000 .L0 
C:\Users\SOLDER~1\AppData\Local\Temp\ccmjpsKj.s:877    .text.SPI_NSSInternalSoftwareConfig:0000000000000002 .L0 
C:\Users\SOLDER~1\AppData\Local\Temp\ccmjpsKj.s:879    .text.SPI_NSSInternalSoftwareConfig:0000000000000004 .L0 
GAS LISTING C:\Users\SOLDER~1\AppData\Local\Temp\ccmjpsKj.s 			page 44


C:\Users\SOLDER~1\AppData\Local\Temp\ccmjpsKj.s:881    .text.SPI_NSSInternalSoftwareConfig:0000000000000006 .L0 
C:\Users\SOLDER~1\AppData\Local\Temp\ccmjpsKj.s:886    .text.SPI_NSSInternalSoftwareConfig:0000000000000010 .L0 
C:\Users\SOLDER~1\AppData\Local\Temp\ccmjpsKj.s:891    .text.SPI_NSSInternalSoftwareConfig:000000000000001e .L0 
C:\Users\SOLDER~1\AppData\Local\Temp\ccmjpsKj.s:896    .text.SPI_NSSInternalSoftwareConfig:0000000000000028 .L0 
C:\Users\SOLDER~1\AppData\Local\Temp\ccmjpsKj.s:902    .text.SPI_NSSInternalSoftwareConfig:0000000000000038 .L0 
C:\Users\SOLDER~1\AppData\Local\Temp\ccmjpsKj.s:905    .text.SPI_NSSInternalSoftwareConfig:000000000000003a .L0 
C:\Users\SOLDER~1\AppData\Local\Temp\ccmjpsKj.s:910    .text.SPI_NSSInternalSoftwareConfig:0000000000000044 .L0 
C:\Users\SOLDER~1\AppData\Local\Temp\ccmjpsKj.s:917    .text.SPI_NSSInternalSoftwareConfig:0000000000000054 .L0 
C:\Users\SOLDER~1\AppData\Local\Temp\ccmjpsKj.s:919    .text.SPI_NSSInternalSoftwareConfig:0000000000000058 .L0 
C:\Users\SOLDER~1\AppData\Local\Temp\ccmjpsKj.s:920    .text.SPI_NSSInternalSoftwareConfig:0000000000000058 .L0 
C:\Users\SOLDER~1\AppData\Local\Temp\ccmjpsKj.s:922    .text.SPI_NSSInternalSoftwareConfig:000000000000005a .L0 
C:\Users\SOLDER~1\AppData\Local\Temp\ccmjpsKj.s:924    .text.SPI_NSSInternalSoftwareConfig:000000000000005c .L0 
C:\Users\SOLDER~1\AppData\Local\Temp\ccmjpsKj.s:931    .text.SPI_SSOutputCmd:0000000000000000 SPI_SSOutputCmd
C:\Users\SOLDER~1\AppData\Local\Temp\ccmjpsKj.s:934    .text.SPI_SSOutputCmd:0000000000000000 .L0 
C:\Users\SOLDER~1\AppData\Local\Temp\ccmjpsKj.s:935    .text.SPI_SSOutputCmd:0000000000000000 $x
C:\Users\SOLDER~1\AppData\Local\Temp\ccmjpsKj.s:935    .text.SPI_SSOutputCmd:0000000000000000 .L0 
C:\Users\SOLDER~1\AppData\Local\Temp\ccmjpsKj.s:936    .text.SPI_SSOutputCmd:0000000000000002 .L0 
C:\Users\SOLDER~1\AppData\Local\Temp\ccmjpsKj.s:938    .text.SPI_SSOutputCmd:0000000000000004 .L0 
C:\Users\SOLDER~1\AppData\Local\Temp\ccmjpsKj.s:940    .text.SPI_SSOutputCmd:0000000000000006 .L0 
C:\Users\SOLDER~1\AppData\Local\Temp\ccmjpsKj.s:944    .text.SPI_SSOutputCmd:000000000000000e .L0 
C:\Users\SOLDER~1\AppData\Local\Temp\ccmjpsKj.s:947    .text.SPI_SSOutputCmd:0000000000000014 .L0 
C:\Users\SOLDER~1\AppData\Local\Temp\ccmjpsKj.s:952    .text.SPI_SSOutputCmd:000000000000001e .L0 
C:\Users\SOLDER~1\AppData\Local\Temp\ccmjpsKj.s:958    .text.SPI_SSOutputCmd:000000000000002e .L0 
C:\Users\SOLDER~1\AppData\Local\Temp\ccmjpsKj.s:961    .text.SPI_SSOutputCmd:0000000000000030 .L0 
C:\Users\SOLDER~1\AppData\Local\Temp\ccmjpsKj.s:966    .text.SPI_SSOutputCmd:000000000000003a .L0 
C:\Users\SOLDER~1\AppData\Local\Temp\ccmjpsKj.s:973    .text.SPI_SSOutputCmd:0000000000000048 .L0 
C:\Users\SOLDER~1\AppData\Local\Temp\ccmjpsKj.s:975    .text.SPI_SSOutputCmd:000000000000004c .L0 
C:\Users\SOLDER~1\AppData\Local\Temp\ccmjpsKj.s:976    .text.SPI_SSOutputCmd:000000000000004c .L0 
C:\Users\SOLDER~1\AppData\Local\Temp\ccmjpsKj.s:978    .text.SPI_SSOutputCmd:000000000000004e .L0 
C:\Users\SOLDER~1\AppData\Local\Temp\ccmjpsKj.s:980    .text.SPI_SSOutputCmd:0000000000000050 .L0 
C:\Users\SOLDER~1\AppData\Local\Temp\ccmjpsKj.s:987    .text.SPI_DataSizeConfig:0000000000000000 SPI_DataSizeConfig
C:\Users\SOLDER~1\AppData\Local\Temp\ccmjpsKj.s:990    .text.SPI_DataSizeConfig:0000000000000000 .L0 
C:\Users\SOLDER~1\AppData\Local\Temp\ccmjpsKj.s:991    .text.SPI_DataSizeConfig:0000000000000000 $x
C:\Users\SOLDER~1\AppData\Local\Temp\ccmjpsKj.s:991    .text.SPI_DataSizeConfig:0000000000000000 .L0 
C:\Users\SOLDER~1\AppData\Local\Temp\ccmjpsKj.s:992    .text.SPI_DataSizeConfig:0000000000000002 .L0 
C:\Users\SOLDER~1\AppData\Local\Temp\ccmjpsKj.s:994    .text.SPI_DataSizeConfig:0000000000000004 .L0 
C:\Users\SOLDER~1\AppData\Local\Temp\ccmjpsKj.s:996    .text.SPI_DataSizeConfig:0000000000000006 .L0 
C:\Users\SOLDER~1\AppData\Local\Temp\ccmjpsKj.s:1001   .text.SPI_DataSizeConfig:0000000000000010 .L0 
C:\Users\SOLDER~1\AppData\Local\Temp\ccmjpsKj.s:1006   .text.SPI_DataSizeConfig:000000000000001c .L0 
C:\Users\SOLDER~1\AppData\Local\Temp\ccmjpsKj.s:1014   .text.SPI_DataSizeConfig:0000000000000030 .L0 
C:\Users\SOLDER~1\AppData\Local\Temp\ccmjpsKj.s:1019   .text.SPI_DataSizeConfig:000000000000003a .L0 
C:\Users\SOLDER~1\AppData\Local\Temp\ccmjpsKj.s:1026   .text.SPI_DataSizeConfig:000000000000004c .L0 
C:\Users\SOLDER~1\AppData\Local\Temp\ccmjpsKj.s:1028   .text.SPI_DataSizeConfig:0000000000000050 .L0 
C:\Users\SOLDER~1\AppData\Local\Temp\ccmjpsKj.s:1029   .text.SPI_DataSizeConfig:0000000000000050 .L0 
C:\Users\SOLDER~1\AppData\Local\Temp\ccmjpsKj.s:1031   .text.SPI_DataSizeConfig:0000000000000052 .L0 
C:\Users\SOLDER~1\AppData\Local\Temp\ccmjpsKj.s:1033   .text.SPI_DataSizeConfig:0000000000000054 .L0 
C:\Users\SOLDER~1\AppData\Local\Temp\ccmjpsKj.s:1040   .text.SPI_TransmitCRC:0000000000000000 SPI_TransmitCRC
C:\Users\SOLDER~1\AppData\Local\Temp\ccmjpsKj.s:1043   .text.SPI_TransmitCRC:0000000000000000 .L0 
C:\Users\SOLDER~1\AppData\Local\Temp\ccmjpsKj.s:1044   .text.SPI_TransmitCRC:0000000000000000 $x
C:\Users\SOLDER~1\AppData\Local\Temp\ccmjpsKj.s:1044   .text.SPI_TransmitCRC:0000000000000000 .L0 
C:\Users\SOLDER~1\AppData\Local\Temp\ccmjpsKj.s:1045   .text.SPI_TransmitCRC:0000000000000002 .L0 
C:\Users\SOLDER~1\AppData\Local\Temp\ccmjpsKj.s:1047   .text.SPI_TransmitCRC:0000000000000004 .L0 
C:\Users\SOLDER~1\AppData\Local\Temp\ccmjpsKj.s:1049   .text.SPI_TransmitCRC:0000000000000006 .L0 
C:\Users\SOLDER~1\AppData\Local\Temp\ccmjpsKj.s:1052   .text.SPI_TransmitCRC:000000000000000a .L0 
C:\Users\SOLDER~1\AppData\Local\Temp\ccmjpsKj.s:1057   .text.SPI_TransmitCRC:0000000000000016 .L0 
C:\Users\SOLDER~1\AppData\Local\Temp\ccmjpsKj.s:1064   .text.SPI_TransmitCRC:0000000000000026 .L0 
C:\Users\SOLDER~1\AppData\Local\Temp\ccmjpsKj.s:1066   .text.SPI_TransmitCRC:000000000000002a .L0 
GAS LISTING C:\Users\SOLDER~1\AppData\Local\Temp\ccmjpsKj.s 			page 45


C:\Users\SOLDER~1\AppData\Local\Temp\ccmjpsKj.s:1067   .text.SPI_TransmitCRC:000000000000002a .L0 
C:\Users\SOLDER~1\AppData\Local\Temp\ccmjpsKj.s:1069   .text.SPI_TransmitCRC:000000000000002c .L0 
C:\Users\SOLDER~1\AppData\Local\Temp\ccmjpsKj.s:1071   .text.SPI_TransmitCRC:000000000000002e .L0 
C:\Users\SOLDER~1\AppData\Local\Temp\ccmjpsKj.s:1078   .text.SPI_CalculateCRC:0000000000000000 SPI_CalculateCRC
C:\Users\SOLDER~1\AppData\Local\Temp\ccmjpsKj.s:1081   .text.SPI_CalculateCRC:0000000000000000 .L0 
C:\Users\SOLDER~1\AppData\Local\Temp\ccmjpsKj.s:1082   .text.SPI_CalculateCRC:0000000000000000 $x
C:\Users\SOLDER~1\AppData\Local\Temp\ccmjpsKj.s:1082   .text.SPI_CalculateCRC:0000000000000000 .L0 
C:\Users\SOLDER~1\AppData\Local\Temp\ccmjpsKj.s:1083   .text.SPI_CalculateCRC:0000000000000002 .L0 
C:\Users\SOLDER~1\AppData\Local\Temp\ccmjpsKj.s:1085   .text.SPI_CalculateCRC:0000000000000004 .L0 
C:\Users\SOLDER~1\AppData\Local\Temp\ccmjpsKj.s:1087   .text.SPI_CalculateCRC:0000000000000006 .L0 
C:\Users\SOLDER~1\AppData\Local\Temp\ccmjpsKj.s:1091   .text.SPI_CalculateCRC:000000000000000e .L0 
C:\Users\SOLDER~1\AppData\Local\Temp\ccmjpsKj.s:1094   .text.SPI_CalculateCRC:0000000000000014 .L0 
C:\Users\SOLDER~1\AppData\Local\Temp\ccmjpsKj.s:1099   .text.SPI_CalculateCRC:0000000000000020 .L0 
C:\Users\SOLDER~1\AppData\Local\Temp\ccmjpsKj.s:1106   .text.SPI_CalculateCRC:0000000000000030 .L0 
C:\Users\SOLDER~1\AppData\Local\Temp\ccmjpsKj.s:1109   .text.SPI_CalculateCRC:0000000000000032 .L0 
C:\Users\SOLDER~1\AppData\Local\Temp\ccmjpsKj.s:1114   .text.SPI_CalculateCRC:000000000000003e .L0 
C:\Users\SOLDER~1\AppData\Local\Temp\ccmjpsKj.s:1123   .text.SPI_CalculateCRC:0000000000000050 .L0 
C:\Users\SOLDER~1\AppData\Local\Temp\ccmjpsKj.s:1125   .text.SPI_CalculateCRC:0000000000000054 .L0 
C:\Users\SOLDER~1\AppData\Local\Temp\ccmjpsKj.s:1126   .text.SPI_CalculateCRC:0000000000000054 .L0 
C:\Users\SOLDER~1\AppData\Local\Temp\ccmjpsKj.s:1128   .text.SPI_CalculateCRC:0000000000000056 .L0 
C:\Users\SOLDER~1\AppData\Local\Temp\ccmjpsKj.s:1130   .text.SPI_CalculateCRC:0000000000000058 .L0 
C:\Users\SOLDER~1\AppData\Local\Temp\ccmjpsKj.s:1137   .text.SPI_GetCRC:0000000000000000 SPI_GetCRC
C:\Users\SOLDER~1\AppData\Local\Temp\ccmjpsKj.s:1140   .text.SPI_GetCRC:0000000000000000 .L0 
C:\Users\SOLDER~1\AppData\Local\Temp\ccmjpsKj.s:1141   .text.SPI_GetCRC:0000000000000000 $x
C:\Users\SOLDER~1\AppData\Local\Temp\ccmjpsKj.s:1141   .text.SPI_GetCRC:0000000000000000 .L0 
C:\Users\SOLDER~1\AppData\Local\Temp\ccmjpsKj.s:1142   .text.SPI_GetCRC:0000000000000002 .L0 
C:\Users\SOLDER~1\AppData\Local\Temp\ccmjpsKj.s:1144   .text.SPI_GetCRC:0000000000000004 .L0 
C:\Users\SOLDER~1\AppData\Local\Temp\ccmjpsKj.s:1146   .text.SPI_GetCRC:0000000000000006 .L0 
C:\Users\SOLDER~1\AppData\Local\Temp\ccmjpsKj.s:1151   .text.SPI_GetCRC:0000000000000010 .L0 
C:\Users\SOLDER~1\AppData\Local\Temp\ccmjpsKj.s:1153   .text.SPI_GetCRC:0000000000000014 .L0 
C:\Users\SOLDER~1\AppData\Local\Temp\ccmjpsKj.s:1157   .text.SPI_GetCRC:000000000000001e .L0 
C:\Users\SOLDER~1\AppData\Local\Temp\ccmjpsKj.s:1163   .text.SPI_GetCRC:000000000000002a .L0 
C:\Users\SOLDER~1\AppData\Local\Temp\ccmjpsKj.s:1168   .text.SPI_GetCRC:0000000000000034 .L0 
C:\Users\SOLDER~1\AppData\Local\Temp\ccmjpsKj.s:1170   .text.SPI_GetCRC:0000000000000038 .L0 
C:\Users\SOLDER~1\AppData\Local\Temp\ccmjpsKj.s:1172   .text.SPI_GetCRC:000000000000003c .L0 
C:\Users\SOLDER~1\AppData\Local\Temp\ccmjpsKj.s:1173   .text.SPI_GetCRC:000000000000003c .L0 
C:\Users\SOLDER~1\AppData\Local\Temp\ccmjpsKj.s:1175   .text.SPI_GetCRC:000000000000003e .L0 
C:\Users\SOLDER~1\AppData\Local\Temp\ccmjpsKj.s:1177   .text.SPI_GetCRC:0000000000000040 .L0 
C:\Users\SOLDER~1\AppData\Local\Temp\ccmjpsKj.s:1184   .text.SPI_GetCRCPolynomial:0000000000000000 SPI_GetCRCPolynomial
C:\Users\SOLDER~1\AppData\Local\Temp\ccmjpsKj.s:1187   .text.SPI_GetCRCPolynomial:0000000000000000 .L0 
C:\Users\SOLDER~1\AppData\Local\Temp\ccmjpsKj.s:1188   .text.SPI_GetCRCPolynomial:0000000000000000 $x
C:\Users\SOLDER~1\AppData\Local\Temp\ccmjpsKj.s:1188   .text.SPI_GetCRCPolynomial:0000000000000000 .L0 
C:\Users\SOLDER~1\AppData\Local\Temp\ccmjpsKj.s:1189   .text.SPI_GetCRCPolynomial:0000000000000002 .L0 
C:\Users\SOLDER~1\AppData\Local\Temp\ccmjpsKj.s:1191   .text.SPI_GetCRCPolynomial:0000000000000004 .L0 
C:\Users\SOLDER~1\AppData\Local\Temp\ccmjpsKj.s:1193   .text.SPI_GetCRCPolynomial:0000000000000006 .L0 
C:\Users\SOLDER~1\AppData\Local\Temp\ccmjpsKj.s:1196   .text.SPI_GetCRCPolynomial:000000000000000a .L0 
C:\Users\SOLDER~1\AppData\Local\Temp\ccmjpsKj.s:1201   .text.SPI_GetCRCPolynomial:0000000000000014 .L0 
C:\Users\SOLDER~1\AppData\Local\Temp\ccmjpsKj.s:1203   .text.SPI_GetCRCPolynomial:0000000000000018 .L0 
C:\Users\SOLDER~1\AppData\Local\Temp\ccmjpsKj.s:1204   .text.SPI_GetCRCPolynomial:0000000000000018 .L0 
C:\Users\SOLDER~1\AppData\Local\Temp\ccmjpsKj.s:1206   .text.SPI_GetCRCPolynomial:000000000000001a .L0 
C:\Users\SOLDER~1\AppData\Local\Temp\ccmjpsKj.s:1208   .text.SPI_GetCRCPolynomial:000000000000001c .L0 
C:\Users\SOLDER~1\AppData\Local\Temp\ccmjpsKj.s:1215   .text.SPI_BiDirectionalLineConfig:0000000000000000 SPI_BiDirectionalLineConfig
C:\Users\SOLDER~1\AppData\Local\Temp\ccmjpsKj.s:1218   .text.SPI_BiDirectionalLineConfig:0000000000000000 .L0 
C:\Users\SOLDER~1\AppData\Local\Temp\ccmjpsKj.s:1219   .text.SPI_BiDirectionalLineConfig:0000000000000000 $x
C:\Users\SOLDER~1\AppData\Local\Temp\ccmjpsKj.s:1219   .text.SPI_BiDirectionalLineConfig:0000000000000000 .L0 
C:\Users\SOLDER~1\AppData\Local\Temp\ccmjpsKj.s:1220   .text.SPI_BiDirectionalLineConfig:0000000000000002 .L0 
C:\Users\SOLDER~1\AppData\Local\Temp\ccmjpsKj.s:1222   .text.SPI_BiDirectionalLineConfig:0000000000000004 .L0 
GAS LISTING C:\Users\SOLDER~1\AppData\Local\Temp\ccmjpsKj.s 			page 46


C:\Users\SOLDER~1\AppData\Local\Temp\ccmjpsKj.s:1224   .text.SPI_BiDirectionalLineConfig:0000000000000006 .L0 
C:\Users\SOLDER~1\AppData\Local\Temp\ccmjpsKj.s:1229   .text.SPI_BiDirectionalLineConfig:0000000000000010 .L0 
C:\Users\SOLDER~1\AppData\Local\Temp\ccmjpsKj.s:1233   .text.SPI_BiDirectionalLineConfig:000000000000001a .L0 
C:\Users\SOLDER~1\AppData\Local\Temp\ccmjpsKj.s:1238   .text.SPI_BiDirectionalLineConfig:0000000000000026 .L0 
C:\Users\SOLDER~1\AppData\Local\Temp\ccmjpsKj.s:1245   .text.SPI_BiDirectionalLineConfig:0000000000000036 .L0 
C:\Users\SOLDER~1\AppData\Local\Temp\ccmjpsKj.s:1248   .text.SPI_BiDirectionalLineConfig:0000000000000038 .L0 
C:\Users\SOLDER~1\AppData\Local\Temp\ccmjpsKj.s:1253   .text.SPI_BiDirectionalLineConfig:0000000000000044 .L0 
C:\Users\SOLDER~1\AppData\Local\Temp\ccmjpsKj.s:1262   .text.SPI_BiDirectionalLineConfig:0000000000000056 .L0 
C:\Users\SOLDER~1\AppData\Local\Temp\ccmjpsKj.s:1264   .text.SPI_BiDirectionalLineConfig:000000000000005a .L0 
C:\Users\SOLDER~1\AppData\Local\Temp\ccmjpsKj.s:1265   .text.SPI_BiDirectionalLineConfig:000000000000005a .L0 
C:\Users\SOLDER~1\AppData\Local\Temp\ccmjpsKj.s:1267   .text.SPI_BiDirectionalLineConfig:000000000000005c .L0 
C:\Users\SOLDER~1\AppData\Local\Temp\ccmjpsKj.s:1269   .text.SPI_BiDirectionalLineConfig:000000000000005e .L0 
C:\Users\SOLDER~1\AppData\Local\Temp\ccmjpsKj.s:1276   .text.SPI_I2S_GetFlagStatus:0000000000000000 SPI_I2S_GetFlagStatus
C:\Users\SOLDER~1\AppData\Local\Temp\ccmjpsKj.s:1279   .text.SPI_I2S_GetFlagStatus:0000000000000000 .L0 
C:\Users\SOLDER~1\AppData\Local\Temp\ccmjpsKj.s:1280   .text.SPI_I2S_GetFlagStatus:0000000000000000 $x
C:\Users\SOLDER~1\AppData\Local\Temp\ccmjpsKj.s:1280   .text.SPI_I2S_GetFlagStatus:0000000000000000 .L0 
C:\Users\SOLDER~1\AppData\Local\Temp\ccmjpsKj.s:1281   .text.SPI_I2S_GetFlagStatus:0000000000000002 .L0 
C:\Users\SOLDER~1\AppData\Local\Temp\ccmjpsKj.s:1283   .text.SPI_I2S_GetFlagStatus:0000000000000004 .L0 
C:\Users\SOLDER~1\AppData\Local\Temp\ccmjpsKj.s:1285   .text.SPI_I2S_GetFlagStatus:0000000000000006 .L0 
C:\Users\SOLDER~1\AppData\Local\Temp\ccmjpsKj.s:1290   .text.SPI_I2S_GetFlagStatus:0000000000000010 .L0 
C:\Users\SOLDER~1\AppData\Local\Temp\ccmjpsKj.s:1292   .text.SPI_I2S_GetFlagStatus:0000000000000014 .L0 
C:\Users\SOLDER~1\AppData\Local\Temp\ccmjpsKj.s:1297   .text.SPI_I2S_GetFlagStatus:000000000000001e .L0 
C:\Users\SOLDER~1\AppData\Local\Temp\ccmjpsKj.s:1302   .text.SPI_I2S_GetFlagStatus:0000000000000028 .L0 
C:\Users\SOLDER~1\AppData\Local\Temp\ccmjpsKj.s:1304   .text.SPI_I2S_GetFlagStatus:000000000000002a .L0 
C:\Users\SOLDER~1\AppData\Local\Temp\ccmjpsKj.s:1309   .text.SPI_I2S_GetFlagStatus:0000000000000032 .L0 
C:\Users\SOLDER~1\AppData\Local\Temp\ccmjpsKj.s:1312   .text.SPI_I2S_GetFlagStatus:0000000000000036 .L0 
C:\Users\SOLDER~1\AppData\Local\Temp\ccmjpsKj.s:1314   .text.SPI_I2S_GetFlagStatus:000000000000003a .L0 
C:\Users\SOLDER~1\AppData\Local\Temp\ccmjpsKj.s:1316   .text.SPI_I2S_GetFlagStatus:000000000000003e .L0 
C:\Users\SOLDER~1\AppData\Local\Temp\ccmjpsKj.s:1317   .text.SPI_I2S_GetFlagStatus:000000000000003e .L0 
C:\Users\SOLDER~1\AppData\Local\Temp\ccmjpsKj.s:1319   .text.SPI_I2S_GetFlagStatus:0000000000000040 .L0 
C:\Users\SOLDER~1\AppData\Local\Temp\ccmjpsKj.s:1321   .text.SPI_I2S_GetFlagStatus:0000000000000042 .L0 
C:\Users\SOLDER~1\AppData\Local\Temp\ccmjpsKj.s:1328   .text.SPI_I2S_ClearFlag:0000000000000000 SPI_I2S_ClearFlag
C:\Users\SOLDER~1\AppData\Local\Temp\ccmjpsKj.s:1331   .text.SPI_I2S_ClearFlag:0000000000000000 .L0 
C:\Users\SOLDER~1\AppData\Local\Temp\ccmjpsKj.s:1332   .text.SPI_I2S_ClearFlag:0000000000000000 $x
C:\Users\SOLDER~1\AppData\Local\Temp\ccmjpsKj.s:1332   .text.SPI_I2S_ClearFlag:0000000000000000 .L0 
C:\Users\SOLDER~1\AppData\Local\Temp\ccmjpsKj.s:1333   .text.SPI_I2S_ClearFlag:0000000000000002 .L0 
C:\Users\SOLDER~1\AppData\Local\Temp\ccmjpsKj.s:1335   .text.SPI_I2S_ClearFlag:0000000000000004 .L0 
C:\Users\SOLDER~1\AppData\Local\Temp\ccmjpsKj.s:1337   .text.SPI_I2S_ClearFlag:0000000000000006 .L0 
C:\Users\SOLDER~1\AppData\Local\Temp\ccmjpsKj.s:1342   .text.SPI_I2S_ClearFlag:0000000000000010 .L0 
C:\Users\SOLDER~1\AppData\Local\Temp\ccmjpsKj.s:1347   .text.SPI_I2S_ClearFlag:000000000000001e .L0 
C:\Users\SOLDER~1\AppData\Local\Temp\ccmjpsKj.s:1350   .text.SPI_I2S_ClearFlag:0000000000000024 .L0 
C:\Users\SOLDER~1\AppData\Local\Temp\ccmjpsKj.s:1352   .text.SPI_I2S_ClearFlag:0000000000000028 .L0 
C:\Users\SOLDER~1\AppData\Local\Temp\ccmjpsKj.s:1353   .text.SPI_I2S_ClearFlag:0000000000000028 .L0 
C:\Users\SOLDER~1\AppData\Local\Temp\ccmjpsKj.s:1355   .text.SPI_I2S_ClearFlag:000000000000002a .L0 
C:\Users\SOLDER~1\AppData\Local\Temp\ccmjpsKj.s:1357   .text.SPI_I2S_ClearFlag:000000000000002c .L0 
C:\Users\SOLDER~1\AppData\Local\Temp\ccmjpsKj.s:1364   .text.SPI_I2S_GetITStatus:0000000000000000 SPI_I2S_GetITStatus
C:\Users\SOLDER~1\AppData\Local\Temp\ccmjpsKj.s:1367   .text.SPI_I2S_GetITStatus:0000000000000000 .L0 
C:\Users\SOLDER~1\AppData\Local\Temp\ccmjpsKj.s:1368   .text.SPI_I2S_GetITStatus:0000000000000000 $x
C:\Users\SOLDER~1\AppData\Local\Temp\ccmjpsKj.s:1368   .text.SPI_I2S_GetITStatus:0000000000000000 .L0 
C:\Users\SOLDER~1\AppData\Local\Temp\ccmjpsKj.s:1369   .text.SPI_I2S_GetITStatus:0000000000000002 .L0 
C:\Users\SOLDER~1\AppData\Local\Temp\ccmjpsKj.s:1371   .text.SPI_I2S_GetITStatus:0000000000000004 .L0 
C:\Users\SOLDER~1\AppData\Local\Temp\ccmjpsKj.s:1373   .text.SPI_I2S_GetITStatus:0000000000000006 .L0 
C:\Users\SOLDER~1\AppData\Local\Temp\ccmjpsKj.s:1378   .text.SPI_I2S_GetITStatus:0000000000000010 .L0 
C:\Users\SOLDER~1\AppData\Local\Temp\ccmjpsKj.s:1380   .text.SPI_I2S_GetITStatus:0000000000000014 .L0 
C:\Users\SOLDER~1\AppData\Local\Temp\ccmjpsKj.s:1382   .text.SPI_I2S_GetITStatus:0000000000000018 .L0 
C:\Users\SOLDER~1\AppData\Local\Temp\ccmjpsKj.s:1384   .text.SPI_I2S_GetITStatus:000000000000001c .L0 
C:\Users\SOLDER~1\AppData\Local\Temp\ccmjpsKj.s:1386   .text.SPI_I2S_GetITStatus:0000000000000020 .L0 
GAS LISTING C:\Users\SOLDER~1\AppData\Local\Temp\ccmjpsKj.s 			page 47


C:\Users\SOLDER~1\AppData\Local\Temp\ccmjpsKj.s:1389   .text.SPI_I2S_GetITStatus:0000000000000026 .L0 
C:\Users\SOLDER~1\AppData\Local\Temp\ccmjpsKj.s:1392   .text.SPI_I2S_GetITStatus:000000000000002c .L0 
C:\Users\SOLDER~1\AppData\Local\Temp\ccmjpsKj.s:1394   .text.SPI_I2S_GetITStatus:0000000000000030 .L0 
C:\Users\SOLDER~1\AppData\Local\Temp\ccmjpsKj.s:1399   .text.SPI_I2S_GetITStatus:000000000000003e .L0 
C:\Users\SOLDER~1\AppData\Local\Temp\ccmjpsKj.s:1403   .text.SPI_I2S_GetITStatus:0000000000000048 .L0 
C:\Users\SOLDER~1\AppData\Local\Temp\ccmjpsKj.s:1405   .text.SPI_I2S_GetITStatus:000000000000004c .L0 
C:\Users\SOLDER~1\AppData\Local\Temp\ccmjpsKj.s:1410   .text.SPI_I2S_GetITStatus:0000000000000056 .L0 
C:\Users\SOLDER~1\AppData\Local\Temp\ccmjpsKj.s:1414   .text.SPI_I2S_GetITStatus:0000000000000060 .L0 
C:\Users\SOLDER~1\AppData\Local\Temp\ccmjpsKj.s:1419   .text.SPI_I2S_GetITStatus:000000000000006a .L0 
C:\Users\SOLDER~1\AppData\Local\Temp\ccmjpsKj.s:1424   .text.SPI_I2S_GetITStatus:0000000000000074 .L0 
C:\Users\SOLDER~1\AppData\Local\Temp\ccmjpsKj.s:1426   .text.SPI_I2S_GetITStatus:0000000000000076 .L0 
C:\Users\SOLDER~1\AppData\Local\Temp\ccmjpsKj.s:1429   .text.SPI_I2S_GetITStatus:000000000000007c .L0 
C:\Users\SOLDER~1\AppData\Local\Temp\ccmjpsKj.s:1434   .text.SPI_I2S_GetITStatus:0000000000000084 .L0 
C:\Users\SOLDER~1\AppData\Local\Temp\ccmjpsKj.s:1437   .text.SPI_I2S_GetITStatus:0000000000000088 .L0 
C:\Users\SOLDER~1\AppData\Local\Temp\ccmjpsKj.s:1439   .text.SPI_I2S_GetITStatus:000000000000008c .L0 
C:\Users\SOLDER~1\AppData\Local\Temp\ccmjpsKj.s:1441   .text.SPI_I2S_GetITStatus:0000000000000090 .L0 
C:\Users\SOLDER~1\AppData\Local\Temp\ccmjpsKj.s:1442   .text.SPI_I2S_GetITStatus:0000000000000090 .L0 
C:\Users\SOLDER~1\AppData\Local\Temp\ccmjpsKj.s:1444   .text.SPI_I2S_GetITStatus:0000000000000092 .L0 
C:\Users\SOLDER~1\AppData\Local\Temp\ccmjpsKj.s:1446   .text.SPI_I2S_GetITStatus:0000000000000094 .L0 
C:\Users\SOLDER~1\AppData\Local\Temp\ccmjpsKj.s:1453   .text.SPI_I2S_ClearITPendingBit:0000000000000000 SPI_I2S_ClearITPendingBit
C:\Users\SOLDER~1\AppData\Local\Temp\ccmjpsKj.s:1456   .text.SPI_I2S_ClearITPendingBit:0000000000000000 .L0 
C:\Users\SOLDER~1\AppData\Local\Temp\ccmjpsKj.s:1457   .text.SPI_I2S_ClearITPendingBit:0000000000000000 $x
C:\Users\SOLDER~1\AppData\Local\Temp\ccmjpsKj.s:1457   .text.SPI_I2S_ClearITPendingBit:0000000000000000 .L0 
C:\Users\SOLDER~1\AppData\Local\Temp\ccmjpsKj.s:1458   .text.SPI_I2S_ClearITPendingBit:0000000000000002 .L0 
C:\Users\SOLDER~1\AppData\Local\Temp\ccmjpsKj.s:1460   .text.SPI_I2S_ClearITPendingBit:0000000000000004 .L0 
C:\Users\SOLDER~1\AppData\Local\Temp\ccmjpsKj.s:1462   .text.SPI_I2S_ClearITPendingBit:0000000000000006 .L0 
C:\Users\SOLDER~1\AppData\Local\Temp\ccmjpsKj.s:1467   .text.SPI_I2S_ClearITPendingBit:0000000000000010 .L0 
C:\Users\SOLDER~1\AppData\Local\Temp\ccmjpsKj.s:1469   .text.SPI_I2S_ClearITPendingBit:0000000000000014 .L0 
C:\Users\SOLDER~1\AppData\Local\Temp\ccmjpsKj.s:1472   .text.SPI_I2S_ClearITPendingBit:000000000000001a .L0 
C:\Users\SOLDER~1\AppData\Local\Temp\ccmjpsKj.s:1475   .text.SPI_I2S_ClearITPendingBit:0000000000000020 .L0 
C:\Users\SOLDER~1\AppData\Local\Temp\ccmjpsKj.s:1477   .text.SPI_I2S_ClearITPendingBit:0000000000000024 .L0 
C:\Users\SOLDER~1\AppData\Local\Temp\ccmjpsKj.s:1482   .text.SPI_I2S_ClearITPendingBit:0000000000000032 .L0 
C:\Users\SOLDER~1\AppData\Local\Temp\ccmjpsKj.s:1485   .text.SPI_I2S_ClearITPendingBit:0000000000000038 .L0 
C:\Users\SOLDER~1\AppData\Local\Temp\ccmjpsKj.s:1487   .text.SPI_I2S_ClearITPendingBit:000000000000003c .L0 
C:\Users\SOLDER~1\AppData\Local\Temp\ccmjpsKj.s:1488   .text.SPI_I2S_ClearITPendingBit:000000000000003c .L0 
C:\Users\SOLDER~1\AppData\Local\Temp\ccmjpsKj.s:1490   .text.SPI_I2S_ClearITPendingBit:000000000000003e .L0 
C:\Users\SOLDER~1\AppData\Local\Temp\ccmjpsKj.s:1492   .text.SPI_I2S_ClearITPendingBit:0000000000000040 .L0 
C:\Users\SOLDER~1\AppData\Local\Temp\ccmjpsKj.s:32483  .debug_line_str:0000000000000065 .L0 
C:\Users\SOLDER~1\AppData\Local\Temp\ccmjpsKj.s:32483  .debug_line_str:00000000000000af .L0 
C:\Users\SOLDER~1\AppData\Local\Temp\ccmjpsKj.s:32483  .debug_line_str:00000000000000bb .L0 
C:\Users\SOLDER~1\AppData\Local\Temp\ccmjpsKj.s:32483  .debug_line_str:0000000000000108 .L0 
C:\Users\SOLDER~1\AppData\Local\Temp\ccmjpsKj.s:32483  .debug_line_str:0000000000000151 .L0 
C:\Users\SOLDER~1\AppData\Local\Temp\ccmjpsKj.s:32483  .debug_line_str:000000000000015d .L0 
C:\Users\SOLDER~1\AppData\Local\Temp\ccmjpsKj.s:32483  .debug_line_str:00000000000001b1 .L0 
C:\Users\SOLDER~1\AppData\Local\Temp\ccmjpsKj.s:32483  .debug_line_str:00000000000001f6 .L0 
C:\Users\SOLDER~1\AppData\Local\Temp\ccmjpsKj.s:32483  .debug_line_str:0000000000000205 .L0 
C:\Users\SOLDER~1\AppData\Local\Temp\ccmjpsKj.s:32483  .debug_line_str:0000000000000214 .L0 
C:\Users\SOLDER~1\AppData\Local\Temp\ccmjpsKj.s:32483  .debug_line_str:0000000000000225 .L0 
C:\Users\SOLDER~1\AppData\Local\Temp\ccmjpsKj.s:32483  .debug_line_str:000000000000022f .L0 
C:\Users\SOLDER~1\AppData\Local\Temp\ccmjpsKj.s:32483  .debug_line_str:000000000000023c .L0 
C:\Users\SOLDER~1\AppData\Local\Temp\ccmjpsKj.s:32483  .debug_line_str:0000000000000247 .L0 
C:\Users\SOLDER~1\AppData\Local\Temp\ccmjpsKj.s:32483  .debug_line_str:0000000000000256 .L0 
C:\Users\SOLDER~1\AppData\Local\Temp\ccmjpsKj.s:32483  .debug_line_str:0000000000000265 .L0 
C:\Users\SOLDER~1\AppData\Local\Temp\ccmjpsKj.s:32483  .debug_line_str:000000000000026e .L0 
C:\Users\SOLDER~1\AppData\Local\Temp\ccmjpsKj.s:32483  .debug_line_str:0000000000000277 .L0 
C:\Users\SOLDER~1\AppData\Local\Temp\ccmjpsKj.s:32483  .debug_line_str:0000000000000282 .L0 
C:\Users\SOLDER~1\AppData\Local\Temp\ccmjpsKj.s:32483  .debug_line_str:0000000000000294 .L0 
GAS LISTING C:\Users\SOLDER~1\AppData\Local\Temp\ccmjpsKj.s 			page 48


C:\Users\SOLDER~1\AppData\Local\Temp\ccmjpsKj.s:32483  .debug_line_str:000000000000029e .L0 
C:\Users\SOLDER~1\AppData\Local\Temp\ccmjpsKj.s:32483  .debug_line_str:00000000000002ae .L0 
C:\Users\SOLDER~1\AppData\Local\Temp\ccmjpsKj.s:32483  .debug_line_str:00000000000002bd .L0 
C:\Users\SOLDER~1\AppData\Local\Temp\ccmjpsKj.s:32483  .debug_line_str:00000000000002cc .L0 
C:\Users\SOLDER~1\AppData\Local\Temp\ccmjpsKj.s:32483  .debug_line_str:00000000000002db .L0 
C:\Users\SOLDER~1\AppData\Local\Temp\ccmjpsKj.s:32483  .debug_line_str:00000000000002ea .L0 
C:\Users\SOLDER~1\AppData\Local\Temp\ccmjpsKj.s:32483  .debug_line_str:00000000000002fc .L0 
C:\Users\SOLDER~1\AppData\Local\Temp\ccmjpsKj.s:32483  .debug_line_str:000000000000030b .L0 
C:\Users\SOLDER~1\AppData\Local\Temp\ccmjpsKj.s:32483  .debug_line_str:000000000000031b .L0 
C:\Users\SOLDER~1\AppData\Local\Temp\ccmjpsKj.s:32483  .debug_line_str:000000000000032c .L0 
C:\Users\SOLDER~1\AppData\Local\Temp\ccmjpsKj.s:32483  .debug_line_str:000000000000033c .L0 
C:\Users\SOLDER~1\AppData\Local\Temp\ccmjpsKj.s:32483  .debug_line_str:000000000000034b .L0 
C:\Users\SOLDER~1\AppData\Local\Temp\ccmjpsKj.s:32483  .debug_line_str:000000000000035b .L0 
C:\Users\SOLDER~1\AppData\Local\Temp\ccmjpsKj.s:32483  .debug_line_str:000000000000036a .L0 
C:\Users\SOLDER~1\AppData\Local\Temp\ccmjpsKj.s:32483  .debug_line_str:0000000000000379 .L0 
C:\Users\SOLDER~1\AppData\Local\Temp\ccmjpsKj.s:32483  .debug_line_str:0000000000000388 .L0 
C:\Users\SOLDER~1\AppData\Local\Temp\ccmjpsKj.s:32483  .debug_line_str:0000000000000399 .L0 
C:\Users\SOLDER~1\AppData\Local\Temp\ccmjpsKj.s:32483  .debug_line_str:00000000000003a9 .L0 
C:\Users\SOLDER~1\AppData\Local\Temp\ccmjpsKj.s:70     .text.SPI_I2S_DeInit:0000000000000064 .L0 
C:\Users\SOLDER~1\AppData\Local\Temp\ccmjpsKj.s:189    .text.SPI_Init:00000000000000dc .L0 
C:\Users\SOLDER~1\AppData\Local\Temp\ccmjpsKj.s:453    .text.I2S_Init:0000000000000200 .L0 
C:\Users\SOLDER~1\AppData\Local\Temp\ccmjpsKj.s:504    .text.SPI_StructInit:0000000000000052 .L0 
C:\Users\SOLDER~1\AppData\Local\Temp\ccmjpsKj.s:549    .text.I2S_StructInit:0000000000000042 .L0 
C:\Users\SOLDER~1\AppData\Local\Temp\ccmjpsKj.s:605    .text.SPI_Cmd:0000000000000052 .L0 
C:\Users\SOLDER~1\AppData\Local\Temp\ccmjpsKj.s:661    .text.I2S_Cmd:0000000000000052 .L0 
C:\Users\SOLDER~1\AppData\Local\Temp\ccmjpsKj.s:741    .text.SPI_I2S_ITConfig:000000000000008a .L0 
C:\Users\SOLDER~1\AppData\Local\Temp\ccmjpsKj.s:805    .text.SPI_I2S_DMACmd:0000000000000066 .L0 
C:\Users\SOLDER~1\AppData\Local\Temp\ccmjpsKj.s:837    .text.SPI_I2S_SendData:0000000000000022 .L0 
C:\Users\SOLDER~1\AppData\Local\Temp\ccmjpsKj.s:868    .text.SPI_I2S_ReceiveData:000000000000001c .L0 
C:\Users\SOLDER~1\AppData\Local\Temp\ccmjpsKj.s:927    .text.SPI_NSSInternalSoftwareConfig:000000000000005c .L0 
C:\Users\SOLDER~1\AppData\Local\Temp\ccmjpsKj.s:983    .text.SPI_SSOutputCmd:0000000000000050 .L0 
C:\Users\SOLDER~1\AppData\Local\Temp\ccmjpsKj.s:1036   .text.SPI_DataSizeConfig:0000000000000054 .L0 
C:\Users\SOLDER~1\AppData\Local\Temp\ccmjpsKj.s:1074   .text.SPI_TransmitCRC:000000000000002e .L0 
C:\Users\SOLDER~1\AppData\Local\Temp\ccmjpsKj.s:1133   .text.SPI_CalculateCRC:0000000000000058 .L0 
C:\Users\SOLDER~1\AppData\Local\Temp\ccmjpsKj.s:1180   .text.SPI_GetCRC:0000000000000040 .L0 
C:\Users\SOLDER~1\AppData\Local\Temp\ccmjpsKj.s:1211   .text.SPI_GetCRCPolynomial:000000000000001c .L0 
C:\Users\SOLDER~1\AppData\Local\Temp\ccmjpsKj.s:1272   .text.SPI_BiDirectionalLineConfig:000000000000005e .L0 
C:\Users\SOLDER~1\AppData\Local\Temp\ccmjpsKj.s:1324   .text.SPI_I2S_GetFlagStatus:0000000000000042 .L0 
C:\Users\SOLDER~1\AppData\Local\Temp\ccmjpsKj.s:1360   .text.SPI_I2S_ClearFlag:000000000000002c .L0 
C:\Users\SOLDER~1\AppData\Local\Temp\ccmjpsKj.s:1449   .text.SPI_I2S_GetITStatus:0000000000000094 .L0 
C:\Users\SOLDER~1\AppData\Local\Temp\ccmjpsKj.s:1495   .text.SPI_I2S_ClearITPendingBit:0000000000000040 .L0 
                     .debug_frame:0000000000000000 .L0 
C:\Users\SOLDER~1\AppData\Local\Temp\ccmjpsKj.s:42     .text.SPI_I2S_DeInit:0000000000000032 .L2
C:\Users\SOLDER~1\AppData\Local\Temp\ccmjpsKj.s:56     .text.SPI_I2S_DeInit:000000000000005a .L4
C:\Users\SOLDER~1\AppData\Local\Temp\ccmjpsKj.s:254    .text.I2S_Init:0000000000000076 .L7
C:\Users\SOLDER~1\AppData\Local\Temp\ccmjpsKj.s:371    .text.I2S_Init:0000000000000168 .L8
C:\Users\SOLDER~1\AppData\Local\Temp\ccmjpsKj.s:264    .text.I2S_Init:0000000000000086 .L9
C:\Users\SOLDER~1\AppData\Local\Temp\ccmjpsKj.s:268    .text.I2S_Init:000000000000008c .L10
C:\Users\SOLDER~1\AppData\Local\Temp\ccmjpsKj.s:278    .text.I2S_Init:00000000000000a6 .L11
C:\Users\SOLDER~1\AppData\Local\Temp\ccmjpsKj.s:282    .text.I2S_Init:00000000000000ae .L12
C:\Users\SOLDER~1\AppData\Local\Temp\ccmjpsKj.s:319    .text.I2S_Init:00000000000000fe .L13
C:\Users\SOLDER~1\AppData\Local\Temp\ccmjpsKj.s:346    .text.I2S_Init:0000000000000130 .L14
C:\Users\SOLDER~1\AppData\Local\Temp\ccmjpsKj.s:380    .text.I2S_Init:000000000000017e .L15
C:\Users\SOLDER~1\AppData\Local\Temp\ccmjpsKj.s:386    .text.I2S_Init:0000000000000188 .L16
C:\Users\SOLDER~1\AppData\Local\Temp\ccmjpsKj.s:581    .text.SPI_Cmd:0000000000000030 .L20
C:\Users\SOLDER~1\AppData\Local\Temp\ccmjpsKj.s:593    .text.SPI_Cmd:000000000000004a .L22
C:\Users\SOLDER~1\AppData\Local\Temp\ccmjpsKj.s:637    .text.I2S_Cmd:0000000000000030 .L24
GAS LISTING C:\Users\SOLDER~1\AppData\Local\Temp\ccmjpsKj.s 			page 49


C:\Users\SOLDER~1\AppData\Local\Temp\ccmjpsKj.s:649    .text.I2S_Cmd:000000000000004a .L26
C:\Users\SOLDER~1\AppData\Local\Temp\ccmjpsKj.s:712    .text.SPI_I2S_ITConfig:000000000000005c .L28
C:\Users\SOLDER~1\AppData\Local\Temp\ccmjpsKj.s:729    .text.SPI_I2S_ITConfig:0000000000000082 .L30
C:\Users\SOLDER~1\AppData\Local\Temp\ccmjpsKj.s:776    .text.SPI_I2S_DMACmd:0000000000000038 .L32
C:\Users\SOLDER~1\AppData\Local\Temp\ccmjpsKj.s:793    .text.SPI_I2S_DMACmd:000000000000005e .L34
C:\Users\SOLDER~1\AppData\Local\Temp\ccmjpsKj.s:903    .text.SPI_NSSInternalSoftwareConfig:000000000000003a .L39
C:\Users\SOLDER~1\AppData\Local\Temp\ccmjpsKj.s:915    .text.SPI_NSSInternalSoftwareConfig:0000000000000054 .L41
C:\Users\SOLDER~1\AppData\Local\Temp\ccmjpsKj.s:959    .text.SPI_SSOutputCmd:0000000000000030 .L43
C:\Users\SOLDER~1\AppData\Local\Temp\ccmjpsKj.s:971    .text.SPI_SSOutputCmd:0000000000000048 .L45
C:\Users\SOLDER~1\AppData\Local\Temp\ccmjpsKj.s:1107   .text.SPI_CalculateCRC:0000000000000032 .L49
C:\Users\SOLDER~1\AppData\Local\Temp\ccmjpsKj.s:1121   .text.SPI_CalculateCRC:0000000000000050 .L51
C:\Users\SOLDER~1\AppData\Local\Temp\ccmjpsKj.s:1161   .text.SPI_GetCRC:000000000000002a .L53
C:\Users\SOLDER~1\AppData\Local\Temp\ccmjpsKj.s:1166   .text.SPI_GetCRC:0000000000000034 .L54
C:\Users\SOLDER~1\AppData\Local\Temp\ccmjpsKj.s:1246   .text.SPI_BiDirectionalLineConfig:0000000000000038 .L59
C:\Users\SOLDER~1\AppData\Local\Temp\ccmjpsKj.s:1260   .text.SPI_BiDirectionalLineConfig:0000000000000056 .L61
C:\Users\SOLDER~1\AppData\Local\Temp\ccmjpsKj.s:1307   .text.SPI_I2S_GetFlagStatus:0000000000000032 .L63
C:\Users\SOLDER~1\AppData\Local\Temp\ccmjpsKj.s:1310   .text.SPI_I2S_GetFlagStatus:0000000000000036 .L64
C:\Users\SOLDER~1\AppData\Local\Temp\ccmjpsKj.s:1432   .text.SPI_I2S_GetITStatus:0000000000000084 .L68
C:\Users\SOLDER~1\AppData\Local\Temp\ccmjpsKj.s:1435   .text.SPI_I2S_GetITStatus:0000000000000088 .L69
C:\Users\SOLDER~1\AppData\Local\Temp\ccmjpsKj.s:2634   .debug_abbrev:0000000000000000 .Ldebug_abbrev0
C:\Users\SOLDER~1\AppData\Local\Temp\ccmjpsKj.s:20896  .debug_str:000000000000063e .LASF5840
C:\Users\SOLDER~1\AppData\Local\Temp\ccmjpsKj.s:32479  .debug_line_str:0000000000000000 .LASF0
C:\Users\SOLDER~1\AppData\Local\Temp\ccmjpsKj.s:32481  .debug_line_str:000000000000001b .LASF1
C:\Users\SOLDER~1\AppData\Local\Temp\ccmjpsKj.s:3158   .debug_rnglists:000000000000000c .LLRL0
C:\Users\SOLDER~1\AppData\Local\Temp\ccmjpsKj.s:20796  .debug_line:0000000000000000 .Ldebug_line0
C:\Users\SOLDER~1\AppData\Local\Temp\ccmjpsKj.s:3231   .debug_macro:0000000000000000 .Ldebug_macro0
C:\Users\SOLDER~1\AppData\Local\Temp\ccmjpsKj.s:32418  .debug_str:000000000002f0bd .LASF5729
C:\Users\SOLDER~1\AppData\Local\Temp\ccmjpsKj.s:27136  .debug_str:0000000000019b60 .LASF5730
C:\Users\SOLDER~1\AppData\Local\Temp\ccmjpsKj.s:23078  .debug_str:0000000000009393 .LASF5733
C:\Users\SOLDER~1\AppData\Local\Temp\ccmjpsKj.s:26632  .debug_str:0000000000017ab1 .LASF5731
C:\Users\SOLDER~1\AppData\Local\Temp\ccmjpsKj.s:25922  .debug_str:0000000000014dab .LASF5732
C:\Users\SOLDER~1\AppData\Local\Temp\ccmjpsKj.s:24454  .debug_str:000000000000ed9b .LASF5734
C:\Users\SOLDER~1\AppData\Local\Temp\ccmjpsKj.s:26036  .debug_str:0000000000015515 .LASF5735
C:\Users\SOLDER~1\AppData\Local\Temp\ccmjpsKj.s:30410  .debug_str:0000000000026f64 .LASF5736
C:\Users\SOLDER~1\AppData\Local\Temp\ccmjpsKj.s:27334  .debug_str:000000000001a7c2 .LASF5737
C:\Users\SOLDER~1\AppData\Local\Temp\ccmjpsKj.s:20910  .debug_str:00000000000007ae .LASF5738
C:\Users\SOLDER~1\AppData\Local\Temp\ccmjpsKj.s:20818  .debug_str:000000000000014f .LASF5739
C:\Users\SOLDER~1\AppData\Local\Temp\ccmjpsKj.s:30502  .debug_str:000000000002754f .LASF5740
C:\Users\SOLDER~1\AppData\Local\Temp\ccmjpsKj.s:30068  .debug_str:0000000000025865 .LASF5741
C:\Users\SOLDER~1\AppData\Local\Temp\ccmjpsKj.s:30428  .debug_str:0000000000027074 .LASF5742
C:\Users\SOLDER~1\AppData\Local\Temp\ccmjpsKj.s:21650  .debug_str:000000000000379f .LASF5743
C:\Users\SOLDER~1\AppData\Local\Temp\ccmjpsKj.s:22892  .debug_str:0000000000008734 .LASF5744
C:\Users\SOLDER~1\AppData\Local\Temp\ccmjpsKj.s:24436  .debug_str:000000000000ec99 .LASF5745
C:\Users\SOLDER~1\AppData\Local\Temp\ccmjpsKj.s:26386  .debug_str:0000000000016ac4 .LASF5746
C:\Users\SOLDER~1\AppData\Local\Temp\ccmjpsKj.s:30158  .debug_str:0000000000025e50 .LASF5747
C:\Users\SOLDER~1\AppData\Local\Temp\ccmjpsKj.s:23454  .debug_str:000000000000ac79 .LASF5748
C:\Users\SOLDER~1\AppData\Local\Temp\ccmjpsKj.s:27872  .debug_str:000000000001ca63 .LASF5749
C:\Users\SOLDER~1\AppData\Local\Temp\ccmjpsKj.s:27156  .debug_str:0000000000019ca5 .LASF5750
C:\Users\SOLDER~1\AppData\Local\Temp\ccmjpsKj.s:23638  .debug_str:000000000000b83a .LASF5751
C:\Users\SOLDER~1\AppData\Local\Temp\ccmjpsKj.s:27158  .debug_str:0000000000019cab .LASF5752
C:\Users\SOLDER~1\AppData\Local\Temp\ccmjpsKj.s:26114  .debug_str:0000000000015a0f .LASF5753
C:\Users\SOLDER~1\AppData\Local\Temp\ccmjpsKj.s:32472  .debug_str:000000000002f408 .LASF5754
C:\Users\SOLDER~1\AppData\Local\Temp\ccmjpsKj.s:26116  .debug_str:0000000000015a19 .LASF5755
C:\Users\SOLDER~1\AppData\Local\Temp\ccmjpsKj.s:24180  .debug_str:000000000000dbc4 .LASF5756
C:\Users\SOLDER~1\AppData\Local\Temp\ccmjpsKj.s:23646  .debug_str:000000000000b895 .LASF5757
C:\Users\SOLDER~1\AppData\Local\Temp\ccmjpsKj.s:27528  .debug_str:000000000001b455 .LASF5758
C:\Users\SOLDER~1\AppData\Local\Temp\ccmjpsKj.s:23650  .debug_str:000000000000b8cc .LASF5759
GAS LISTING C:\Users\SOLDER~1\AppData\Local\Temp\ccmjpsKj.s 			page 50


C:\Users\SOLDER~1\AppData\Local\Temp\ccmjpsKj.s:30136  .debug_str:0000000000025cea .LASF5760
C:\Users\SOLDER~1\AppData\Local\Temp\ccmjpsKj.s:23654  .debug_str:000000000000b8fb .LASF5761
C:\Users\SOLDER~1\AppData\Local\Temp\ccmjpsKj.s:22084  .debug_str:00000000000052ae .LASF5762
C:\Users\SOLDER~1\AppData\Local\Temp\ccmjpsKj.s:26124  .debug_str:0000000000015a88 .LASF5763
C:\Users\SOLDER~1\AppData\Local\Temp\ccmjpsKj.s:22710  .debug_str:0000000000007b89 .LASF5764
C:\Users\SOLDER~1\AppData\Local\Temp\ccmjpsKj.s:26126  .debug_str:0000000000015a92 .LASF5765
C:\Users\SOLDER~1\AppData\Local\Temp\ccmjpsKj.s:30744  .debug_str:0000000000028522 .LASF5766
C:\Users\SOLDER~1\AppData\Local\Temp\ccmjpsKj.s:26128  .debug_str:0000000000015a9c .LASF5767
C:\Users\SOLDER~1\AppData\Local\Temp\ccmjpsKj.s:29134  .debug_str:0000000000021c4f .LASF5768
C:\Users\SOLDER~1\AppData\Local\Temp\ccmjpsKj.s:23668  .debug_str:000000000000b9d8 .LASF5769
C:\Users\SOLDER~1\AppData\Local\Temp\ccmjpsKj.s:21940  .debug_str:00000000000049f3 .LASF5770
C:\Users\SOLDER~1\AppData\Local\Temp\ccmjpsKj.s:28734  .debug_str:00000000000202a7 .LASF5771
C:\Users\SOLDER~1\AppData\Local\Temp\ccmjpsKj.s:29120  .debug_str:0000000000021b6c .LASF5772
C:\Users\SOLDER~1\AppData\Local\Temp\ccmjpsKj.s:27778  .debug_str:000000000001c436 .LASF5773
C:\Users\SOLDER~1\AppData\Local\Temp\ccmjpsKj.s:31398  .debug_str:000000000002af0c .LASF5774
C:\Users\SOLDER~1\AppData\Local\Temp\ccmjpsKj.s:30622  .debug_str:0000000000027cf4 .LASF5775
C:\Users\SOLDER~1\AppData\Local\Temp\ccmjpsKj.s:21904  .debug_str:00000000000047a4 .LASF5776
C:\Users\SOLDER~1\AppData\Local\Temp\ccmjpsKj.s:25598  .debug_str:0000000000013775 .LASF5777
C:\Users\SOLDER~1\AppData\Local\Temp\ccmjpsKj.s:23678  .debug_str:000000000000ba6b .LASF5778
C:\Users\SOLDER~1\AppData\Local\Temp\ccmjpsKj.s:22874  .debug_str:000000000000860c .LASF5779
C:\Users\SOLDER~1\AppData\Local\Temp\ccmjpsKj.s:31248  .debug_str:000000000002a595 .LASF5780
C:\Users\SOLDER~1\AppData\Local\Temp\ccmjpsKj.s:31082  .debug_str:0000000000029abe .LASF5781
C:\Users\SOLDER~1\AppData\Local\Temp\ccmjpsKj.s:29404  .debug_str:0000000000022d69 .LASF5782
C:\Users\SOLDER~1\AppData\Local\Temp\ccmjpsKj.s:25172  .debug_str:0000000000011c32 .LASF5783
C:\Users\SOLDER~1\AppData\Local\Temp\ccmjpsKj.s:25462  .debug_str:0000000000012e84 .LASF5784
C:\Users\SOLDER~1\AppData\Local\Temp\ccmjpsKj.s:25082  .debug_str:0000000000011656 .LASF5785
C:\Users\SOLDER~1\AppData\Local\Temp\ccmjpsKj.s:28250  .debug_str:000000000001e313 .LASF5786
C:\Users\SOLDER~1\AppData\Local\Temp\ccmjpsKj.s:22958  .debug_str:0000000000008b87 .LASF5787
C:\Users\SOLDER~1\AppData\Local\Temp\ccmjpsKj.s:23950  .debug_str:000000000000cd13 .LASF5788
C:\Users\SOLDER~1\AppData\Local\Temp\ccmjpsKj.s:23994  .debug_str:000000000000cff3 .LASF5789
C:\Users\SOLDER~1\AppData\Local\Temp\ccmjpsKj.s:26896  .debug_str:0000000000018bc5 .LASF5790
C:\Users\SOLDER~1\AppData\Local\Temp\ccmjpsKj.s:30824  .debug_str:0000000000028a13 .LASF5791
C:\Users\SOLDER~1\AppData\Local\Temp\ccmjpsKj.s:30516  .debug_str:000000000002763f .LASF5792
C:\Users\SOLDER~1\AppData\Local\Temp\ccmjpsKj.s:31574  .debug_str:000000000002ba64 .LASF5793
C:\Users\SOLDER~1\AppData\Local\Temp\ccmjpsKj.s:29038  .debug_str:0000000000021660 .LASF5794
C:\Users\SOLDER~1\AppData\Local\Temp\ccmjpsKj.s:20840  .debug_str:00000000000002a4 .LASF5795
C:\Users\SOLDER~1\AppData\Local\Temp\ccmjpsKj.s:28602  .debug_str:000000000001fa6f .LASF5796
C:\Users\SOLDER~1\AppData\Local\Temp\ccmjpsKj.s:30436  .debug_str:00000000000270e8 .LASF5803
C:\Users\SOLDER~1\AppData\Local\Temp\ccmjpsKj.s:1454   .text.SPI_I2S_ClearITPendingBit:0000000000000000 .LFB38
C:\Users\SOLDER~1\AppData\Local\Temp\ccmjpsKj.s:1493   .text.SPI_I2S_ClearITPendingBit:0000000000000040 .LFE38
C:\Users\SOLDER~1\AppData\Local\Temp\ccmjpsKj.s:21188  .debug_str:00000000000019f9 .LASF5797
C:\Users\SOLDER~1\AppData\Local\Temp\ccmjpsKj.s:27004  .debug_str:0000000000019303 .LASF5798
C:\Users\SOLDER~1\AppData\Local\Temp\ccmjpsKj.s:25096  .debug_str:000000000001175b .LASF5799
C:\Users\SOLDER~1\AppData\Local\Temp\ccmjpsKj.s:26650  .debug_str:0000000000017bb1 .LASF5806
C:\Users\SOLDER~1\AppData\Local\Temp\ccmjpsKj.s:1365   .text.SPI_I2S_GetITStatus:0000000000000000 .LFB37
C:\Users\SOLDER~1\AppData\Local\Temp\ccmjpsKj.s:1447   .text.SPI_I2S_GetITStatus:0000000000000094 .LFE37
C:\Users\SOLDER~1\AppData\Local\Temp\ccmjpsKj.s:25404  .debug_str:0000000000012a9f .LASF5800
C:\Users\SOLDER~1\AppData\Local\Temp\ccmjpsKj.s:24768  .debug_str:000000000001025b .LASF5801
C:\Users\SOLDER~1\AppData\Local\Temp\ccmjpsKj.s:31358  .debug_str:000000000002ac71 .LASF5802
C:\Users\SOLDER~1\AppData\Local\Temp\ccmjpsKj.s:27658  .debug_str:000000000001bc51 .LASF5804
C:\Users\SOLDER~1\AppData\Local\Temp\ccmjpsKj.s:1329   .text.SPI_I2S_ClearFlag:0000000000000000 .LFB36
C:\Users\SOLDER~1\AppData\Local\Temp\ccmjpsKj.s:1358   .text.SPI_I2S_ClearFlag:000000000000002c .LFE36
C:\Users\SOLDER~1\AppData\Local\Temp\ccmjpsKj.s:29962  .debug_str:00000000000251c0 .LASF5805
C:\Users\SOLDER~1\AppData\Local\Temp\ccmjpsKj.s:27908  .debug_str:000000000001ccc7 .LASF5807
C:\Users\SOLDER~1\AppData\Local\Temp\ccmjpsKj.s:1277   .text.SPI_I2S_GetFlagStatus:0000000000000000 .LFB35
C:\Users\SOLDER~1\AppData\Local\Temp\ccmjpsKj.s:1322   .text.SPI_I2S_GetFlagStatus:0000000000000042 .LFE35
C:\Users\SOLDER~1\AppData\Local\Temp\ccmjpsKj.s:29656  .debug_str:0000000000023d72 .LASF5808
GAS LISTING C:\Users\SOLDER~1\AppData\Local\Temp\ccmjpsKj.s 			page 51


C:\Users\SOLDER~1\AppData\Local\Temp\ccmjpsKj.s:1216   .text.SPI_BiDirectionalLineConfig:0000000000000000 .LFB34
C:\Users\SOLDER~1\AppData\Local\Temp\ccmjpsKj.s:1270   .text.SPI_BiDirectionalLineConfig:000000000000005e .LFE34
C:\Users\SOLDER~1\AppData\Local\Temp\ccmjpsKj.s:29932  .debug_str:0000000000024fda .LASF5809
C:\Users\SOLDER~1\AppData\Local\Temp\ccmjpsKj.s:1185   .text.SPI_GetCRCPolynomial:0000000000000000 .LFB33
C:\Users\SOLDER~1\AppData\Local\Temp\ccmjpsKj.s:1209   .text.SPI_GetCRCPolynomial:000000000000001c .LFE33
C:\Users\SOLDER~1\AppData\Local\Temp\ccmjpsKj.s:23056  .debug_str:0000000000009246 .LASF5810
C:\Users\SOLDER~1\AppData\Local\Temp\ccmjpsKj.s:1138   .text.SPI_GetCRC:0000000000000000 .LFB32
C:\Users\SOLDER~1\AppData\Local\Temp\ccmjpsKj.s:1178   .text.SPI_GetCRC:0000000000000040 .LFE32
C:\Users\SOLDER~1\AppData\Local\Temp\ccmjpsKj.s:28974  .debug_str:000000000002123a .LASF5811
C:\Users\SOLDER~1\AppData\Local\Temp\ccmjpsKj.s:22818  .debug_str:00000000000082a0 .LASF5812
C:\Users\SOLDER~1\AppData\Local\Temp\ccmjpsKj.s:27042  .debug_str:0000000000019547 .LASF5813
C:\Users\SOLDER~1\AppData\Local\Temp\ccmjpsKj.s:1079   .text.SPI_CalculateCRC:0000000000000000 .LFB31
C:\Users\SOLDER~1\AppData\Local\Temp\ccmjpsKj.s:1131   .text.SPI_CalculateCRC:0000000000000058 .LFE31
C:\Users\SOLDER~1\AppData\Local\Temp\ccmjpsKj.s:28366  .debug_str:000000000001eaad .LASF5814
C:\Users\SOLDER~1\AppData\Local\Temp\ccmjpsKj.s:24140  .debug_str:000000000000d97a .LASF5815
C:\Users\SOLDER~1\AppData\Local\Temp\ccmjpsKj.s:1041   .text.SPI_TransmitCRC:0000000000000000 .LFB30
C:\Users\SOLDER~1\AppData\Local\Temp\ccmjpsKj.s:1072   .text.SPI_TransmitCRC:000000000000002e .LFE30
C:\Users\SOLDER~1\AppData\Local\Temp\ccmjpsKj.s:28980  .debug_str:0000000000021282 .LASF5816
C:\Users\SOLDER~1\AppData\Local\Temp\ccmjpsKj.s:988    .text.SPI_DataSizeConfig:0000000000000000 .LFB29
C:\Users\SOLDER~1\AppData\Local\Temp\ccmjpsKj.s:1034   .text.SPI_DataSizeConfig:0000000000000054 .LFE29
C:\Users\SOLDER~1\AppData\Local\Temp\ccmjpsKj.s:22450  .debug_str:0000000000006ad2 .LASF5817
C:\Users\SOLDER~1\AppData\Local\Temp\ccmjpsKj.s:932    .text.SPI_SSOutputCmd:0000000000000000 .LFB28
C:\Users\SOLDER~1\AppData\Local\Temp\ccmjpsKj.s:981    .text.SPI_SSOutputCmd:0000000000000050 .LFE28
C:\Users\SOLDER~1\AppData\Local\Temp\ccmjpsKj.s:21212  .debug_str:0000000000001b6f .LASF5818
C:\Users\SOLDER~1\AppData\Local\Temp\ccmjpsKj.s:873    .text.SPI_NSSInternalSoftwareConfig:0000000000000000 .LFB27
C:\Users\SOLDER~1\AppData\Local\Temp\ccmjpsKj.s:925    .text.SPI_NSSInternalSoftwareConfig:000000000000005c .LFE27
C:\Users\SOLDER~1\AppData\Local\Temp\ccmjpsKj.s:20906  .debug_str:0000000000000771 .LASF5819
C:\Users\SOLDER~1\AppData\Local\Temp\ccmjpsKj.s:30620  .debug_str:0000000000027ce0 .LASF5820
C:\Users\SOLDER~1\AppData\Local\Temp\ccmjpsKj.s:842    .text.SPI_I2S_ReceiveData:0000000000000000 .LFB26
C:\Users\SOLDER~1\AppData\Local\Temp\ccmjpsKj.s:866    .text.SPI_I2S_ReceiveData:000000000000001c .LFE26
C:\Users\SOLDER~1\AppData\Local\Temp\ccmjpsKj.s:29430  .debug_str:0000000000022ef5 .LASF5821
C:\Users\SOLDER~1\AppData\Local\Temp\ccmjpsKj.s:810    .text.SPI_I2S_SendData:0000000000000000 .LFB25
C:\Users\SOLDER~1\AppData\Local\Temp\ccmjpsKj.s:835    .text.SPI_I2S_SendData:0000000000000022 .LFE25
C:\Users\SOLDER~1\AppData\Local\Temp\ccmjpsKj.s:31510  .debug_str:000000000002b67d .LASF5822
C:\Users\SOLDER~1\AppData\Local\Temp\ccmjpsKj.s:29654  .debug_str:0000000000023d63 .LASF5823
C:\Users\SOLDER~1\AppData\Local\Temp\ccmjpsKj.s:746    .text.SPI_I2S_DMACmd:0000000000000000 .LFB24
C:\Users\SOLDER~1\AppData\Local\Temp\ccmjpsKj.s:803    .text.SPI_I2S_DMACmd:0000000000000066 .LFE24
C:\Users\SOLDER~1\AppData\Local\Temp\ccmjpsKj.s:31540  .debug_str:000000000002b816 .LASF5824
C:\Users\SOLDER~1\AppData\Local\Temp\ccmjpsKj.s:27716  .debug_str:000000000001c01e .LASF5825
C:\Users\SOLDER~1\AppData\Local\Temp\ccmjpsKj.s:666    .text.SPI_I2S_ITConfig:0000000000000000 .LFB23
C:\Users\SOLDER~1\AppData\Local\Temp\ccmjpsKj.s:739    .text.SPI_I2S_ITConfig:000000000000008a .LFE23
C:\Users\SOLDER~1\AppData\Local\Temp\ccmjpsKj.s:31964  .debug_str:000000000002d3a2 .LASF5826
C:\Users\SOLDER~1\AppData\Local\Temp\ccmjpsKj.s:610    .text.I2S_Cmd:0000000000000000 .LFB22
C:\Users\SOLDER~1\AppData\Local\Temp\ccmjpsKj.s:659    .text.I2S_Cmd:0000000000000052 .LFE22
C:\Users\SOLDER~1\AppData\Local\Temp\ccmjpsKj.s:31632  .debug_str:000000000002be01 .LASF5827
C:\Users\SOLDER~1\AppData\Local\Temp\ccmjpsKj.s:554    .text.SPI_Cmd:0000000000000000 .LFB21
C:\Users\SOLDER~1\AppData\Local\Temp\ccmjpsKj.s:603    .text.SPI_Cmd:0000000000000052 .LFE21
C:\Users\SOLDER~1\AppData\Local\Temp\ccmjpsKj.s:21316  .debug_str:0000000000002247 .LASF5828
C:\Users\SOLDER~1\AppData\Local\Temp\ccmjpsKj.s:509    .text.I2S_StructInit:0000000000000000 .LFB20
C:\Users\SOLDER~1\AppData\Local\Temp\ccmjpsKj.s:547    .text.I2S_StructInit:0000000000000042 .LFE20
C:\Users\SOLDER~1\AppData\Local\Temp\ccmjpsKj.s:29934  .debug_str:0000000000024fef .LASF5829
C:\Users\SOLDER~1\AppData\Local\Temp\ccmjpsKj.s:22278  .debug_str:0000000000005efd .LASF5830
C:\Users\SOLDER~1\AppData\Local\Temp\ccmjpsKj.s:458    .text.SPI_StructInit:0000000000000000 .LFB19
C:\Users\SOLDER~1\AppData\Local\Temp\ccmjpsKj.s:502    .text.SPI_StructInit:0000000000000052 .LFE19
C:\Users\SOLDER~1\AppData\Local\Temp\ccmjpsKj.s:28632  .debug_str:000000000001fc46 .LASF5831
C:\Users\SOLDER~1\AppData\Local\Temp\ccmjpsKj.s:30162  .debug_str:0000000000025e78 .LASF5832
C:\Users\SOLDER~1\AppData\Local\Temp\ccmjpsKj.s:194    .text.I2S_Init:0000000000000000 .LFB18
GAS LISTING C:\Users\SOLDER~1\AppData\Local\Temp\ccmjpsKj.s 			page 52


C:\Users\SOLDER~1\AppData\Local\Temp\ccmjpsKj.s:451    .text.I2S_Init:0000000000000200 .LFE18
C:\Users\SOLDER~1\AppData\Local\Temp\ccmjpsKj.s:21456  .debug_str:0000000000002b5f .LASF5833
C:\Users\SOLDER~1\AppData\Local\Temp\ccmjpsKj.s:21428  .debug_str:00000000000029c2 .LASF5834
C:\Users\SOLDER~1\AppData\Local\Temp\ccmjpsKj.s:21258  .debug_str:0000000000001e88 .LASF5835
C:\Users\SOLDER~1\AppData\Local\Temp\ccmjpsKj.s:25658  .debug_str:0000000000013b71 .LASF5836
C:\Users\SOLDER~1\AppData\Local\Temp\ccmjpsKj.s:31864  .debug_str:000000000002cd29 .LASF5837
C:\Users\SOLDER~1\AppData\Local\Temp\ccmjpsKj.s:25888  .debug_str:0000000000014b4d .LASF5838
C:\Users\SOLDER~1\AppData\Local\Temp\ccmjpsKj.s:30904  .debug_str:0000000000028f5b .LASF5839
C:\Users\SOLDER~1\AppData\Local\Temp\ccmjpsKj.s:75     .text.SPI_Init:0000000000000000 .LFB17
C:\Users\SOLDER~1\AppData\Local\Temp\ccmjpsKj.s:187    .text.SPI_Init:00000000000000dc .LFE17
C:\Users\SOLDER~1\AppData\Local\Temp\ccmjpsKj.s:29424  .debug_str:0000000000022e9d .LASF5841
C:\Users\SOLDER~1\AppData\Local\Temp\ccmjpsKj.s:15     .text.SPI_I2S_DeInit:0000000000000000 .LFB16
C:\Users\SOLDER~1\AppData\Local\Temp\ccmjpsKj.s:68     .text.SPI_I2S_DeInit:0000000000000064 .LFE16
C:\Users\SOLDER~1\AppData\Local\Temp\ccmjpsKj.s:1504   .debug_info:0000000000000000 .Ldebug_info0
C:\Users\SOLDER~1\AppData\Local\Temp\ccmjpsKj.s:3523   .debug_macro:0000000000000000 .Ldebug_macro2
C:\Users\SOLDER~1\AppData\Local\Temp\ccmjpsKj.s:31814  .debug_str:000000000002ca0e .LASF318
C:\Users\SOLDER~1\AppData\Local\Temp\ccmjpsKj.s:4476   .debug_macro:0000000000000000 .Ldebug_macro3
C:\Users\SOLDER~1\AppData\Local\Temp\ccmjpsKj.s:27232  .debug_str:000000000001a136 .LASF336
C:\Users\SOLDER~1\AppData\Local\Temp\ccmjpsKj.s:21856  .debug_str:000000000000449c .LASF337
C:\Users\SOLDER~1\AppData\Local\Temp\ccmjpsKj.s:29218  .debug_str:0000000000022186 .LASF338
C:\Users\SOLDER~1\AppData\Local\Temp\ccmjpsKj.s:4532   .debug_macro:0000000000000000 .Ldebug_macro4
C:\Users\SOLDER~1\AppData\Local\Temp\ccmjpsKj.s:4552   .debug_macro:0000000000000000 .Ldebug_macro5
C:\Users\SOLDER~1\AppData\Local\Temp\ccmjpsKj.s:4617   .debug_macro:0000000000000000 .Ldebug_macro6
C:\Users\SOLDER~1\AppData\Local\Temp\ccmjpsKj.s:4658   .debug_macro:0000000000000000 .Ldebug_macro7
C:\Users\SOLDER~1\AppData\Local\Temp\ccmjpsKj.s:4783   .debug_macro:0000000000000000 .Ldebug_macro8
C:\Users\SOLDER~1\AppData\Local\Temp\ccmjpsKj.s:4839   .debug_macro:0000000000000000 .Ldebug_macro9
C:\Users\SOLDER~1\AppData\Local\Temp\ccmjpsKj.s:21176  .debug_str:0000000000001917 .LASF493
C:\Users\SOLDER~1\AppData\Local\Temp\ccmjpsKj.s:5051   .debug_macro:0000000000000000 .Ldebug_macro10
C:\Users\SOLDER~1\AppData\Local\Temp\ccmjpsKj.s:5089   .debug_macro:0000000000000000 .Ldebug_macro11
C:\Users\SOLDER~1\AppData\Local\Temp\ccmjpsKj.s:21442  .debug_str:0000000000002a84 .LASF4592
C:\Users\SOLDER~1\AppData\Local\Temp\ccmjpsKj.s:30028  .debug_str:00000000000255df .LASF4593
C:\Users\SOLDER~1\AppData\Local\Temp\ccmjpsKj.s:17355  .debug_macro:0000000000000000 .Ldebug_macro12
C:\Users\SOLDER~1\AppData\Local\Temp\ccmjpsKj.s:17636  .debug_macro:0000000000000000 .Ldebug_macro13
C:\Users\SOLDER~1\AppData\Local\Temp\ccmjpsKj.s:17788  .debug_macro:0000000000000000 .Ldebug_macro14
C:\Users\SOLDER~1\AppData\Local\Temp\ccmjpsKj.s:26378  .debug_str:0000000000016a36 .LASF4851
C:\Users\SOLDER~1\AppData\Local\Temp\ccmjpsKj.s:18141  .debug_macro:0000000000000000 .Ldebug_macro15
C:\Users\SOLDER~1\AppData\Local\Temp\ccmjpsKj.s:18206  .debug_macro:0000000000000000 .Ldebug_macro16
C:\Users\SOLDER~1\AppData\Local\Temp\ccmjpsKj.s:18475  .debug_macro:0000000000000000 .Ldebug_macro17
C:\Users\SOLDER~1\AppData\Local\Temp\ccmjpsKj.s:18546  .debug_macro:0000000000000000 .Ldebug_macro18
C:\Users\SOLDER~1\AppData\Local\Temp\ccmjpsKj.s:18710  .debug_macro:0000000000000000 .Ldebug_macro19
C:\Users\SOLDER~1\AppData\Local\Temp\ccmjpsKj.s:18982  .debug_macro:0000000000000000 .Ldebug_macro20
C:\Users\SOLDER~1\AppData\Local\Temp\ccmjpsKj.s:19233  .debug_macro:0000000000000000 .Ldebug_macro21
C:\Users\SOLDER~1\AppData\Local\Temp\ccmjpsKj.s:19274  .debug_macro:0000000000000000 .Ldebug_macro22
C:\Users\SOLDER~1\AppData\Local\Temp\ccmjpsKj.s:19327  .debug_macro:0000000000000000 .Ldebug_macro23
C:\Users\SOLDER~1\AppData\Local\Temp\ccmjpsKj.s:19728  .debug_macro:0000000000000000 .Ldebug_macro24
C:\Users\SOLDER~1\AppData\Local\Temp\ccmjpsKj.s:19760  .debug_macro:0000000000000000 .Ldebug_macro25
C:\Users\SOLDER~1\AppData\Local\Temp\ccmjpsKj.s:20356  .debug_macro:0000000000000000 .Ldebug_macro26
C:\Users\SOLDER~1\AppData\Local\Temp\ccmjpsKj.s:20526  .debug_macro:0000000000000000 .Ldebug_macro27
C:\Users\SOLDER~1\AppData\Local\Temp\ccmjpsKj.s:20546  .debug_macro:0000000000000000 .Ldebug_macro28
C:\Users\SOLDER~1\AppData\Local\Temp\ccmjpsKj.s:20569  .debug_macro:0000000000000000 .Ldebug_macro29
C:\Users\SOLDER~1\AppData\Local\Temp\ccmjpsKj.s:24392  .debug_str:000000000000e9de .LASF5712
C:\Users\SOLDER~1\AppData\Local\Temp\ccmjpsKj.s:32352  .debug_str:000000000002ec86 .LASF5713
C:\Users\SOLDER~1\AppData\Local\Temp\ccmjpsKj.s:25108  .debug_str:000000000001181e .LASF5714
C:\Users\SOLDER~1\AppData\Local\Temp\ccmjpsKj.s:32308  .debug_str:000000000002e97c .LASF5715
C:\Users\SOLDER~1\AppData\Local\Temp\ccmjpsKj.s:30860  .debug_str:0000000000028c8d .LASF5716
C:\Users\SOLDER~1\AppData\Local\Temp\ccmjpsKj.s:28298  .debug_str:000000000001e601 .LASF5717
C:\Users\SOLDER~1\AppData\Local\Temp\ccmjpsKj.s:30762  .debug_str:0000000000028618 .LASF5718
GAS LISTING C:\Users\SOLDER~1\AppData\Local\Temp\ccmjpsKj.s 			page 53


C:\Users\SOLDER~1\AppData\Local\Temp\ccmjpsKj.s:31462  .debug_str:000000000002b2f9 .LASF5719
C:\Users\SOLDER~1\AppData\Local\Temp\ccmjpsKj.s:20964  .debug_str:0000000000000b8c .LASF5720
C:\Users\SOLDER~1\AppData\Local\Temp\ccmjpsKj.s:28336  .debug_str:000000000001e88d .LASF5721
C:\Users\SOLDER~1\AppData\Local\Temp\ccmjpsKj.s:21638  .debug_str:00000000000036cb .LASF5722
C:\Users\SOLDER~1\AppData\Local\Temp\ccmjpsKj.s:30412  .debug_str:0000000000026f6d .LASF5723
C:\Users\SOLDER~1\AppData\Local\Temp\ccmjpsKj.s:26586  .debug_str:00000000000177a8 .LASF5724
C:\Users\SOLDER~1\AppData\Local\Temp\ccmjpsKj.s:22980  .debug_str:0000000000008cd3 .LASF5725
C:\Users\SOLDER~1\AppData\Local\Temp\ccmjpsKj.s:29882  .debug_str:0000000000024c87 .LASF5726
C:\Users\SOLDER~1\AppData\Local\Temp\ccmjpsKj.s:24340  .debug_str:000000000000e674 .LASF5727
C:\Users\SOLDER~1\AppData\Local\Temp\ccmjpsKj.s:30938  .debug_str:0000000000029155 .LASF5728
C:\Users\SOLDER~1\AppData\Local\Temp\ccmjpsKj.s:22232  .debug_str:0000000000005c3d .LASF2
C:\Users\SOLDER~1\AppData\Local\Temp\ccmjpsKj.s:31202  .debug_str:000000000002a25c .LASF3
C:\Users\SOLDER~1\AppData\Local\Temp\ccmjpsKj.s:31582  .debug_str:000000000002bae5 .LASF4
C:\Users\SOLDER~1\AppData\Local\Temp\ccmjpsKj.s:24990  .debug_str:000000000001107e .LASF5
C:\Users\SOLDER~1\AppData\Local\Temp\ccmjpsKj.s:26356  .debug_str:00000000000168ec .LASF6
C:\Users\SOLDER~1\AppData\Local\Temp\ccmjpsKj.s:32002  .debug_str:000000000002d636 .LASF7
C:\Users\SOLDER~1\AppData\Local\Temp\ccmjpsKj.s:25050  .debug_str:000000000001145e .LASF8
C:\Users\SOLDER~1\AppData\Local\Temp\ccmjpsKj.s:25804  .debug_str:00000000000145d9 .LASF9
C:\Users\SOLDER~1\AppData\Local\Temp\ccmjpsKj.s:22960  .debug_str:0000000000008b90 .LASF10
C:\Users\SOLDER~1\AppData\Local\Temp\ccmjpsKj.s:30906  .debug_str:0000000000028f64 .LASF11
C:\Users\SOLDER~1\AppData\Local\Temp\ccmjpsKj.s:27422  .debug_str:000000000001ad7d .LASF12
C:\Users\SOLDER~1\AppData\Local\Temp\ccmjpsKj.s:27278  .debug_str:000000000001a423 .LASF13
C:\Users\SOLDER~1\AppData\Local\Temp\ccmjpsKj.s:29832  .debug_str:0000000000024936 .LASF14
C:\Users\SOLDER~1\AppData\Local\Temp\ccmjpsKj.s:27298  .debug_str:000000000001a55f .LASF15
C:\Users\SOLDER~1\AppData\Local\Temp\ccmjpsKj.s:23458  .debug_str:000000000000aca9 .LASF16
C:\Users\SOLDER~1\AppData\Local\Temp\ccmjpsKj.s:28712  .debug_str:0000000000020132 .LASF17
C:\Users\SOLDER~1\AppData\Local\Temp\ccmjpsKj.s:29440  .debug_str:0000000000022f89 .LASF18
C:\Users\SOLDER~1\AppData\Local\Temp\ccmjpsKj.s:23500  .debug_str:000000000000af76 .LASF19
C:\Users\SOLDER~1\AppData\Local\Temp\ccmjpsKj.s:22386  .debug_str:0000000000006642 .LASF20
C:\Users\SOLDER~1\AppData\Local\Temp\ccmjpsKj.s:24520  .debug_str:000000000000f1d2 .LASF21
C:\Users\SOLDER~1\AppData\Local\Temp\ccmjpsKj.s:30310  .debug_str:000000000002689f .LASF22
C:\Users\SOLDER~1\AppData\Local\Temp\ccmjpsKj.s:27106  .debug_str:00000000000199ca .LASF23
C:\Users\SOLDER~1\AppData\Local\Temp\ccmjpsKj.s:27104  .debug_str:00000000000199b0 .LASF24
C:\Users\SOLDER~1\AppData\Local\Temp\ccmjpsKj.s:29756  .debug_str:000000000002441b .LASF25
C:\Users\SOLDER~1\AppData\Local\Temp\ccmjpsKj.s:30426  .debug_str:0000000000027065 .LASF26
C:\Users\SOLDER~1\AppData\Local\Temp\ccmjpsKj.s:21746  .debug_str:0000000000003dc9 .LASF27
C:\Users\SOLDER~1\AppData\Local\Temp\ccmjpsKj.s:26504  .debug_str:0000000000017214 .LASF28
C:\Users\SOLDER~1\AppData\Local\Temp\ccmjpsKj.s:29648  .debug_str:0000000000023d02 .LASF29
C:\Users\SOLDER~1\AppData\Local\Temp\ccmjpsKj.s:29450  .debug_str:0000000000023031 .LASF30
C:\Users\SOLDER~1\AppData\Local\Temp\ccmjpsKj.s:22174  .debug_str:0000000000005825 .LASF31
C:\Users\SOLDER~1\AppData\Local\Temp\ccmjpsKj.s:28486  .debug_str:000000000001f275 .LASF32
C:\Users\SOLDER~1\AppData\Local\Temp\ccmjpsKj.s:21134  .debug_str:0000000000001691 .LASF33
C:\Users\SOLDER~1\AppData\Local\Temp\ccmjpsKj.s:25226  .debug_str:0000000000011fa1 .LASF34
C:\Users\SOLDER~1\AppData\Local\Temp\ccmjpsKj.s:26168  .debug_str:0000000000015d2f .LASF35
C:\Users\SOLDER~1\AppData\Local\Temp\ccmjpsKj.s:24264  .debug_str:000000000000e120 .LASF36
C:\Users\SOLDER~1\AppData\Local\Temp\ccmjpsKj.s:23330  .debug_str:000000000000a42b .LASF37
C:\Users\SOLDER~1\AppData\Local\Temp\ccmjpsKj.s:23180  .debug_str:0000000000009a33 .LASF38
C:\Users\SOLDER~1\AppData\Local\Temp\ccmjpsKj.s:24544  .debug_str:000000000000f345 .LASF39
C:\Users\SOLDER~1\AppData\Local\Temp\ccmjpsKj.s:27532  .debug_str:000000000001b480 .LASF40
C:\Users\SOLDER~1\AppData\Local\Temp\ccmjpsKj.s:22708  .debug_str:0000000000007b61 .LASF41
C:\Users\SOLDER~1\AppData\Local\Temp\ccmjpsKj.s:24926  .debug_str:0000000000010c73 .LASF42
C:\Users\SOLDER~1\AppData\Local\Temp\ccmjpsKj.s:30730  .debug_str:0000000000028430 .LASF43
C:\Users\SOLDER~1\AppData\Local\Temp\ccmjpsKj.s:21500  .debug_str:0000000000002e01 .LASF44
C:\Users\SOLDER~1\AppData\Local\Temp\ccmjpsKj.s:24612  .debug_str:000000000000f7b0 .LASF45
C:\Users\SOLDER~1\AppData\Local\Temp\ccmjpsKj.s:25534  .debug_str:0000000000013325 .LASF46
C:\Users\SOLDER~1\AppData\Local\Temp\ccmjpsKj.s:30034  .debug_str:0000000000025649 .LASF47
C:\Users\SOLDER~1\AppData\Local\Temp\ccmjpsKj.s:27520  .debug_str:000000000001b3d0 .LASF48
GAS LISTING C:\Users\SOLDER~1\AppData\Local\Temp\ccmjpsKj.s 			page 54


C:\Users\SOLDER~1\AppData\Local\Temp\ccmjpsKj.s:25386  .debug_str:00000000000129a5 .LASF49
C:\Users\SOLDER~1\AppData\Local\Temp\ccmjpsKj.s:22004  .debug_str:0000000000004de3 .LASF50
C:\Users\SOLDER~1\AppData\Local\Temp\ccmjpsKj.s:25536  .debug_str:000000000001333e .LASF51
C:\Users\SOLDER~1\AppData\Local\Temp\ccmjpsKj.s:30216  .debug_str:0000000000026238 .LASF52
C:\Users\SOLDER~1\AppData\Local\Temp\ccmjpsKj.s:24262  .debug_str:000000000000e100 .LASF53
C:\Users\SOLDER~1\AppData\Local\Temp\ccmjpsKj.s:21344  .debug_str:0000000000002418 .LASF54
C:\Users\SOLDER~1\AppData\Local\Temp\ccmjpsKj.s:20826  .debug_str:00000000000001b4 .LASF55
C:\Users\SOLDER~1\AppData\Local\Temp\ccmjpsKj.s:31622  .debug_str:000000000002bd75 .LASF56
C:\Users\SOLDER~1\AppData\Local\Temp\ccmjpsKj.s:29624  .debug_str:0000000000023ba5 .LASF57
C:\Users\SOLDER~1\AppData\Local\Temp\ccmjpsKj.s:20912  .debug_str:00000000000007c0 .LASF58
C:\Users\SOLDER~1\AppData\Local\Temp\ccmjpsKj.s:24888  .debug_str:00000000000109df .LASF59
C:\Users\SOLDER~1\AppData\Local\Temp\ccmjpsKj.s:22792  .debug_str:00000000000080f1 .LASF60
C:\Users\SOLDER~1\AppData\Local\Temp\ccmjpsKj.s:29274  .debug_str:00000000000224ab .LASF61
C:\Users\SOLDER~1\AppData\Local\Temp\ccmjpsKj.s:21082  .debug_str:0000000000001328 .LASF62
C:\Users\SOLDER~1\AppData\Local\Temp\ccmjpsKj.s:24148  .debug_str:000000000000d9da .LASF63
C:\Users\SOLDER~1\AppData\Local\Temp\ccmjpsKj.s:27072  .debug_str:000000000001974f .LASF64
C:\Users\SOLDER~1\AppData\Local\Temp\ccmjpsKj.s:27888  .debug_str:000000000001cb63 .LASF65
C:\Users\SOLDER~1\AppData\Local\Temp\ccmjpsKj.s:21584  .debug_str:0000000000003356 .LASF66
C:\Users\SOLDER~1\AppData\Local\Temp\ccmjpsKj.s:30054  .debug_str:0000000000025772 .LASF67
C:\Users\SOLDER~1\AppData\Local\Temp\ccmjpsKj.s:23980  .debug_str:000000000000cf09 .LASF68
C:\Users\SOLDER~1\AppData\Local\Temp\ccmjpsKj.s:27510  .debug_str:000000000001b348 .LASF69
C:\Users\SOLDER~1\AppData\Local\Temp\ccmjpsKj.s:26164  .debug_str:0000000000015ce8 .LASF70
C:\Users\SOLDER~1\AppData\Local\Temp\ccmjpsKj.s:31380  .debug_str:000000000002adcc .LASF71
C:\Users\SOLDER~1\AppData\Local\Temp\ccmjpsKj.s:31850  .debug_str:000000000002cc4c .LASF72
C:\Users\SOLDER~1\AppData\Local\Temp\ccmjpsKj.s:25344  .debug_str:00000000000126d5 .LASF73
C:\Users\SOLDER~1\AppData\Local\Temp\ccmjpsKj.s:24428  .debug_str:000000000000ec34 .LASF74
C:\Users\SOLDER~1\AppData\Local\Temp\ccmjpsKj.s:22022  .debug_str:0000000000004efa .LASF75
C:\Users\SOLDER~1\AppData\Local\Temp\ccmjpsKj.s:25376  .debug_str:000000000001290b .LASF76
C:\Users\SOLDER~1\AppData\Local\Temp\ccmjpsKj.s:23894  .debug_str:000000000000c90e .LASF77
C:\Users\SOLDER~1\AppData\Local\Temp\ccmjpsKj.s:25626  .debug_str:0000000000013943 .LASF78
C:\Users\SOLDER~1\AppData\Local\Temp\ccmjpsKj.s:26170  .debug_str:0000000000015d5d .LASF79
C:\Users\SOLDER~1\AppData\Local\Temp\ccmjpsKj.s:25566  .debug_str:0000000000013552 .LASF80
C:\Users\SOLDER~1\AppData\Local\Temp\ccmjpsKj.s:30124  .debug_str:0000000000025c40 .LASF81
C:\Users\SOLDER~1\AppData\Local\Temp\ccmjpsKj.s:28014  .debug_str:000000000001d3f6 .LASF82
C:\Users\SOLDER~1\AppData\Local\Temp\ccmjpsKj.s:28450  .debug_str:000000000001f044 .LASF83
C:\Users\SOLDER~1\AppData\Local\Temp\ccmjpsKj.s:31366  .debug_str:000000000002acde .LASF84
C:\Users\SOLDER~1\AppData\Local\Temp\ccmjpsKj.s:23276  .debug_str:000000000000a086 .LASF85
C:\Users\SOLDER~1\AppData\Local\Temp\ccmjpsKj.s:31512  .debug_str:000000000002b682 .LASF86
C:\Users\SOLDER~1\AppData\Local\Temp\ccmjpsKj.s:25378  .debug_str:0000000000012932 .LASF87
C:\Users\SOLDER~1\AppData\Local\Temp\ccmjpsKj.s:27538  .debug_str:000000000001b4e0 .LASF88
C:\Users\SOLDER~1\AppData\Local\Temp\ccmjpsKj.s:22526  .debug_str:0000000000006fef .LASF89
C:\Users\SOLDER~1\AppData\Local\Temp\ccmjpsKj.s:31844  .debug_str:000000000002cbea .LASF90
C:\Users\SOLDER~1\AppData\Local\Temp\ccmjpsKj.s:31538  .debug_str:000000000002b804 .LASF91
C:\Users\SOLDER~1\AppData\Local\Temp\ccmjpsKj.s:28878  .debug_str:0000000000020be6 .LASF92
C:\Users\SOLDER~1\AppData\Local\Temp\ccmjpsKj.s:27610  .debug_str:000000000001b973 .LASF93
C:\Users\SOLDER~1\AppData\Local\Temp\ccmjpsKj.s:28902  .debug_str:0000000000020d81 .LASF94
C:\Users\SOLDER~1\AppData\Local\Temp\ccmjpsKj.s:31758  .debug_str:000000000002c68f .LASF95
C:\Users\SOLDER~1\AppData\Local\Temp\ccmjpsKj.s:30532  .debug_str:000000000002774c .LASF96
C:\Users\SOLDER~1\AppData\Local\Temp\ccmjpsKj.s:23364  .debug_str:000000000000a672 .LASF97
C:\Users\SOLDER~1\AppData\Local\Temp\ccmjpsKj.s:29750  .debug_str:00000000000243a0 .LASF98
C:\Users\SOLDER~1\AppData\Local\Temp\ccmjpsKj.s:25866  .debug_str:00000000000149fe .LASF99
C:\Users\SOLDER~1\AppData\Local\Temp\ccmjpsKj.s:25848  .debug_str:00000000000148cc .LASF100
C:\Users\SOLDER~1\AppData\Local\Temp\ccmjpsKj.s:32040  .debug_str:000000000002d88b .LASF101
C:\Users\SOLDER~1\AppData\Local\Temp\ccmjpsKj.s:25470  .debug_str:0000000000012f01 .LASF102
C:\Users\SOLDER~1\AppData\Local\Temp\ccmjpsKj.s:29462  .debug_str:00000000000230e2 .LASF103
C:\Users\SOLDER~1\AppData\Local\Temp\ccmjpsKj.s:28078  .debug_str:000000000001d845 .LASF104
C:\Users\SOLDER~1\AppData\Local\Temp\ccmjpsKj.s:24944  .debug_str:0000000000010d86 .LASF105
GAS LISTING C:\Users\SOLDER~1\AppData\Local\Temp\ccmjpsKj.s 			page 55


C:\Users\SOLDER~1\AppData\Local\Temp\ccmjpsKj.s:22622  .debug_str:0000000000007602 .LASF106
C:\Users\SOLDER~1\AppData\Local\Temp\ccmjpsKj.s:25220  .debug_str:0000000000011f2c .LASF107
C:\Users\SOLDER~1\AppData\Local\Temp\ccmjpsKj.s:24174  .debug_str:000000000000db66 .LASF108
C:\Users\SOLDER~1\AppData\Local\Temp\ccmjpsKj.s:25394  .debug_str:0000000000012a35 .LASF109
C:\Users\SOLDER~1\AppData\Local\Temp\ccmjpsKj.s:22054  .debug_str:00000000000050d8 .LASF110
C:\Users\SOLDER~1\AppData\Local\Temp\ccmjpsKj.s:25214  .debug_str:0000000000011ed6 .LASF111
C:\Users\SOLDER~1\AppData\Local\Temp\ccmjpsKj.s:24170  .debug_str:000000000000db31 .LASF112
C:\Users\SOLDER~1\AppData\Local\Temp\ccmjpsKj.s:25686  .debug_str:0000000000013d98 .LASF113
C:\Users\SOLDER~1\AppData\Local\Temp\ccmjpsKj.s:24570  .debug_str:000000000000f4e2 .LASF114
C:\Users\SOLDER~1\AppData\Local\Temp\ccmjpsKj.s:27160  .debug_str:0000000000019cb1 .LASF115
C:\Users\SOLDER~1\AppData\Local\Temp\ccmjpsKj.s:23634  .debug_str:000000000000b7fc .LASF116
C:\Users\SOLDER~1\AppData\Local\Temp\ccmjpsKj.s:23358  .debug_str:000000000000a5eb .LASF117
C:\Users\SOLDER~1\AppData\Local\Temp\ccmjpsKj.s:24740  .debug_str:00000000000100a0 .LASF118
C:\Users\SOLDER~1\AppData\Local\Temp\ccmjpsKj.s:31418  .debug_str:000000000002b047 .LASF119
C:\Users\SOLDER~1\AppData\Local\Temp\ccmjpsKj.s:26696  .debug_str:0000000000017eb7 .LASF120
C:\Users\SOLDER~1\AppData\Local\Temp\ccmjpsKj.s:23120  .debug_str:000000000000964c .LASF121
C:\Users\SOLDER~1\AppData\Local\Temp\ccmjpsKj.s:27870  .debug_str:000000000001ca47 .LASF122
C:\Users\SOLDER~1\AppData\Local\Temp\ccmjpsKj.s:32176  .debug_str:000000000002e14c .LASF123
C:\Users\SOLDER~1\AppData\Local\Temp\ccmjpsKj.s:24486  .debug_str:000000000000ef9d .LASF124
C:\Users\SOLDER~1\AppData\Local\Temp\ccmjpsKj.s:30110  .debug_str:0000000000025b2a .LASF125
C:\Users\SOLDER~1\AppData\Local\Temp\ccmjpsKj.s:23948  .debug_str:000000000000cce8 .LASF126
C:\Users\SOLDER~1\AppData\Local\Temp\ccmjpsKj.s:24046  .debug_str:000000000000d34c .LASF127
C:\Users\SOLDER~1\AppData\Local\Temp\ccmjpsKj.s:21686  .debug_str:00000000000039ef .LASF128
C:\Users\SOLDER~1\AppData\Local\Temp\ccmjpsKj.s:21974  .debug_str:0000000000004c10 .LASF129
C:\Users\SOLDER~1\AppData\Local\Temp\ccmjpsKj.s:31100  .debug_str:0000000000029bb7 .LASF130
C:\Users\SOLDER~1\AppData\Local\Temp\ccmjpsKj.s:25398  .debug_str:0000000000012a4d .LASF131
C:\Users\SOLDER~1\AppData\Local\Temp\ccmjpsKj.s:28274  .debug_str:000000000001e491 .LASF132
C:\Users\SOLDER~1\AppData\Local\Temp\ccmjpsKj.s:23190  .debug_str:0000000000009ace .LASF133
C:\Users\SOLDER~1\AppData\Local\Temp\ccmjpsKj.s:30636  .debug_str:0000000000027dbc .LASF134
C:\Users\SOLDER~1\AppData\Local\Temp\ccmjpsKj.s:30968  .debug_str:0000000000029322 .LASF135
C:\Users\SOLDER~1\AppData\Local\Temp\ccmjpsKj.s:30764  .debug_str:000000000002863d .LASF136
C:\Users\SOLDER~1\AppData\Local\Temp\ccmjpsKj.s:24460  .debug_str:000000000000ede8 .LASF137
C:\Users\SOLDER~1\AppData\Local\Temp\ccmjpsKj.s:30022  .debug_str:000000000002557d .LASF138
C:\Users\SOLDER~1\AppData\Local\Temp\ccmjpsKj.s:21960  .debug_str:0000000000004b06 .LASF139
C:\Users\SOLDER~1\AppData\Local\Temp\ccmjpsKj.s:22836  .debug_str:00000000000083cb .LASF140
C:\Users\SOLDER~1\AppData\Local\Temp\ccmjpsKj.s:31842  .debug_str:000000000002cbd6 .LASF141
C:\Users\SOLDER~1\AppData\Local\Temp\ccmjpsKj.s:27762  .debug_str:000000000001c306 .LASF142
C:\Users\SOLDER~1\AppData\Local\Temp\ccmjpsKj.s:31310  .debug_str:000000000002a99c .LASF143
C:\Users\SOLDER~1\AppData\Local\Temp\ccmjpsKj.s:30400  .debug_str:0000000000026ebf .LASF144
C:\Users\SOLDER~1\AppData\Local\Temp\ccmjpsKj.s:27962  .debug_str:000000000001d093 .LASF145
C:\Users\SOLDER~1\AppData\Local\Temp\ccmjpsKj.s:23316  .debug_str:000000000000a32b .LASF146
C:\Users\SOLDER~1\AppData\Local\Temp\ccmjpsKj.s:25620  .debug_str:00000000000138e9 .LASF147
C:\Users\SOLDER~1\AppData\Local\Temp\ccmjpsKj.s:21780  .debug_str:0000000000003fd6 .LASF148
C:\Users\SOLDER~1\AppData\Local\Temp\ccmjpsKj.s:26178  .debug_str:0000000000015db5 .LASF149
C:\Users\SOLDER~1\AppData\Local\Temp\ccmjpsKj.s:24006  .debug_str:000000000000d09d .LASF150
C:\Users\SOLDER~1\AppData\Local\Temp\ccmjpsKj.s:22020  .debug_str:0000000000004ee3 .LASF151
C:\Users\SOLDER~1\AppData\Local\Temp\ccmjpsKj.s:24608  .debug_str:000000000000f772 .LASF152
C:\Users\SOLDER~1\AppData\Local\Temp\ccmjpsKj.s:27110  .debug_str:00000000000199fa .LASF153
C:\Users\SOLDER~1\AppData\Local\Temp\ccmjpsKj.s:20900  .debug_str:000000000000071a .LASF154
C:\Users\SOLDER~1\AppData\Local\Temp\ccmjpsKj.s:29452  .debug_str:000000000002304b .LASF155
C:\Users\SOLDER~1\AppData\Local\Temp\ccmjpsKj.s:25676  .debug_str:0000000000013cb8 .LASF156
C:\Users\SOLDER~1\AppData\Local\Temp\ccmjpsKj.s:30402  .debug_str:0000000000026ed7 .LASF157
C:\Users\SOLDER~1\AppData\Local\Temp\ccmjpsKj.s:28164  .debug_str:000000000001dd58 .LASF158
C:\Users\SOLDER~1\AppData\Local\Temp\ccmjpsKj.s:30340  .debug_str:0000000000026a91 .LASF159
C:\Users\SOLDER~1\AppData\Local\Temp\ccmjpsKj.s:31022  .debug_str:00000000000296b6 .LASF160
C:\Users\SOLDER~1\AppData\Local\Temp\ccmjpsKj.s:28310  .debug_str:000000000001e6c8 .LASF161
C:\Users\SOLDER~1\AppData\Local\Temp\ccmjpsKj.s:23874  .debug_str:000000000000c7b4 .LASF162
GAS LISTING C:\Users\SOLDER~1\AppData\Local\Temp\ccmjpsKj.s 			page 56


C:\Users\SOLDER~1\AppData\Local\Temp\ccmjpsKj.s:22936  .debug_str:0000000000008a10 .LASF163
C:\Users\SOLDER~1\AppData\Local\Temp\ccmjpsKj.s:25814  .debug_str:0000000000014681 .LASF164
C:\Users\SOLDER~1\AppData\Local\Temp\ccmjpsKj.s:27808  .debug_str:000000000001c62c .LASF165
C:\Users\SOLDER~1\AppData\Local\Temp\ccmjpsKj.s:29266  .debug_str:000000000002244e .LASF166
C:\Users\SOLDER~1\AppData\Local\Temp\ccmjpsKj.s:30898  .debug_str:0000000000028f01 .LASF167
C:\Users\SOLDER~1\AppData\Local\Temp\ccmjpsKj.s:30012  .debug_str:00000000000254c3 .LASF168
C:\Users\SOLDER~1\AppData\Local\Temp\ccmjpsKj.s:31740  .debug_str:000000000002c561 .LASF169
C:\Users\SOLDER~1\AppData\Local\Temp\ccmjpsKj.s:22698  .debug_str:0000000000007ab1 .LASF170
C:\Users\SOLDER~1\AppData\Local\Temp\ccmjpsKj.s:31408  .debug_str:000000000002afb1 .LASF171
C:\Users\SOLDER~1\AppData\Local\Temp\ccmjpsKj.s:23080  .debug_str:000000000000939d .LASF172
C:\Users\SOLDER~1\AppData\Local\Temp\ccmjpsKj.s:27668  .debug_str:000000000001bce4 .LASF173
C:\Users\SOLDER~1\AppData\Local\Temp\ccmjpsKj.s:26916  .debug_str:0000000000018cec .LASF174
C:\Users\SOLDER~1\AppData\Local\Temp\ccmjpsKj.s:30828  .debug_str:0000000000028a47 .LASF175
C:\Users\SOLDER~1\AppData\Local\Temp\ccmjpsKj.s:26542  .debug_str:000000000001749c .LASF176
C:\Users\SOLDER~1\AppData\Local\Temp\ccmjpsKj.s:28088  .debug_str:000000000001d8d9 .LASF177
C:\Users\SOLDER~1\AppData\Local\Temp\ccmjpsKj.s:23310  .debug_str:000000000000a2e6 .LASF178
C:\Users\SOLDER~1\AppData\Local\Temp\ccmjpsKj.s:25342  .debug_str:00000000000126bd .LASF179
C:\Users\SOLDER~1\AppData\Local\Temp\ccmjpsKj.s:27236  .debug_str:000000000001a164 .LASF180
C:\Users\SOLDER~1\AppData\Local\Temp\ccmjpsKj.s:22354  .debug_str:000000000000643b .LASF181
C:\Users\SOLDER~1\AppData\Local\Temp\ccmjpsKj.s:23164  .debug_str:0000000000009940 .LASF182
C:\Users\SOLDER~1\AppData\Local\Temp\ccmjpsKj.s:21824  .debug_str:00000000000042a4 .LASF183
C:\Users\SOLDER~1\AppData\Local\Temp\ccmjpsKj.s:27292  .debug_str:000000000001a500 .LASF184
C:\Users\SOLDER~1\AppData\Local\Temp\ccmjpsKj.s:25816  .debug_str:0000000000014698 .LASF185
C:\Users\SOLDER~1\AppData\Local\Temp\ccmjpsKj.s:21338  .debug_str:00000000000023a8 .LASF186
C:\Users\SOLDER~1\AppData\Local\Temp\ccmjpsKj.s:32038  .debug_str:000000000002d878 .LASF187
C:\Users\SOLDER~1\AppData\Local\Temp\ccmjpsKj.s:21118  .debug_str:000000000000159c .LASF188
C:\Users\SOLDER~1\AppData\Local\Temp\ccmjpsKj.s:25796  .debug_str:000000000001453f .LASF189
C:\Users\SOLDER~1\AppData\Local\Temp\ccmjpsKj.s:26250  .debug_str:0000000000016240 .LASF190
C:\Users\SOLDER~1\AppData\Local\Temp\ccmjpsKj.s:31232  .debug_str:000000000002a464 .LASF191
C:\Users\SOLDER~1\AppData\Local\Temp\ccmjpsKj.s:24204  .debug_str:000000000000dd2e .LASF192
C:\Users\SOLDER~1\AppData\Local\Temp\ccmjpsKj.s:31712  .debug_str:000000000002c34a .LASF193
C:\Users\SOLDER~1\AppData\Local\Temp\ccmjpsKj.s:25762  .debug_str:00000000000142d5 .LASF194
C:\Users\SOLDER~1\AppData\Local\Temp\ccmjpsKj.s:24506  .debug_str:000000000000f102 .LASF195
C:\Users\SOLDER~1\AppData\Local\Temp\ccmjpsKj.s:23516  .debug_str:000000000000b07f .LASF196
C:\Users\SOLDER~1\AppData\Local\Temp\ccmjpsKj.s:28368  .debug_str:000000000001eab6 .LASF197
C:\Users\SOLDER~1\AppData\Local\Temp\ccmjpsKj.s:31324  .debug_str:000000000002aa8f .LASF198
C:\Users\SOLDER~1\AppData\Local\Temp\ccmjpsKj.s:26044  .debug_str:0000000000015599 .LASF199
C:\Users\SOLDER~1\AppData\Local\Temp\ccmjpsKj.s:28566  .debug_str:000000000001f7ef .LASF200
C:\Users\SOLDER~1\AppData\Local\Temp\ccmjpsKj.s:21128  .debug_str:000000000000163e .LASF201
C:\Users\SOLDER~1\AppData\Local\Temp\ccmjpsKj.s:32276  .debug_str:000000000002e779 .LASF202
C:\Users\SOLDER~1\AppData\Local\Temp\ccmjpsKj.s:26020  .debug_str:00000000000153ec .LASF203
C:\Users\SOLDER~1\AppData\Local\Temp\ccmjpsKj.s:28758  .debug_str:0000000000020414 .LASF204
C:\Users\SOLDER~1\AppData\Local\Temp\ccmjpsKj.s:27312  .debug_str:000000000001a642 .LASF205
C:\Users\SOLDER~1\AppData\Local\Temp\ccmjpsKj.s:22404  .debug_str:0000000000006780 .LASF206
C:\Users\SOLDER~1\AppData\Local\Temp\ccmjpsKj.s:26032  .debug_str:00000000000154b3 .LASF207
C:\Users\SOLDER~1\AppData\Local\Temp\ccmjpsKj.s:28010  .debug_str:000000000001d38f .LASF208
C:\Users\SOLDER~1\AppData\Local\Temp\ccmjpsKj.s:28996  .debug_str:0000000000021392 .LASF209
C:\Users\SOLDER~1\AppData\Local\Temp\ccmjpsKj.s:24832  .debug_str:0000000000010673 .LASF210
C:\Users\SOLDER~1\AppData\Local\Temp\ccmjpsKj.s:30404  .debug_str:0000000000026f13 .LASF211
C:\Users\SOLDER~1\AppData\Local\Temp\ccmjpsKj.s:30202  .debug_str:0000000000026122 .LASF212
C:\Users\SOLDER~1\AppData\Local\Temp\ccmjpsKj.s:22644  .debug_str:000000000000776d .LASF213
C:\Users\SOLDER~1\AppData\Local\Temp\ccmjpsKj.s:29714  .debug_str:000000000002414e .LASF214
C:\Users\SOLDER~1\AppData\Local\Temp\ccmjpsKj.s:26336  .debug_str:00000000000167e1 .LASF215
C:\Users\SOLDER~1\AppData\Local\Temp\ccmjpsKj.s:22610  .debug_str:000000000000755e .LASF216
C:\Users\SOLDER~1\AppData\Local\Temp\ccmjpsKj.s:23022  .debug_str:0000000000008fcc .LASF217
C:\Users\SOLDER~1\AppData\Local\Temp\ccmjpsKj.s:30278  .debug_str:000000000002669b .LASF218
C:\Users\SOLDER~1\AppData\Local\Temp\ccmjpsKj.s:29196  .debug_str:000000000002201d .LASF219
GAS LISTING C:\Users\SOLDER~1\AppData\Local\Temp\ccmjpsKj.s 			page 57


C:\Users\SOLDER~1\AppData\Local\Temp\ccmjpsKj.s:21432  .debug_str:00000000000029ec .LASF220
C:\Users\SOLDER~1\AppData\Local\Temp\ccmjpsKj.s:23158  .debug_str:000000000000989d .LASF221
C:\Users\SOLDER~1\AppData\Local\Temp\ccmjpsKj.s:28942  .debug_str:0000000000021011 .LASF222
C:\Users\SOLDER~1\AppData\Local\Temp\ccmjpsKj.s:28792  .debug_str:000000000002063a .LASF223
C:\Users\SOLDER~1\AppData\Local\Temp\ccmjpsKj.s:23068  .debug_str:00000000000092d6 .LASF224
C:\Users\SOLDER~1\AppData\Local\Temp\ccmjpsKj.s:22412  .debug_str:0000000000006833 .LASF225
C:\Users\SOLDER~1\AppData\Local\Temp\ccmjpsKj.s:28272  .debug_str:000000000001e47a .LASF226
C:\Users\SOLDER~1\AppData\Local\Temp\ccmjpsKj.s:26438  .debug_str:0000000000016e0e .LASF227
C:\Users\SOLDER~1\AppData\Local\Temp\ccmjpsKj.s:24748  .debug_str:0000000000010110 .LASF228
C:\Users\SOLDER~1\AppData\Local\Temp\ccmjpsKj.s:28790  .debug_str:0000000000020621 .LASF229
C:\Users\SOLDER~1\AppData\Local\Temp\ccmjpsKj.s:29840  .debug_str:00000000000249b7 .LASF230
C:\Users\SOLDER~1\AppData\Local\Temp\ccmjpsKj.s:24772  .debug_str:0000000000010280 .LASF231
C:\Users\SOLDER~1\AppData\Local\Temp\ccmjpsKj.s:30632  .debug_str:0000000000027d80 .LASF232
C:\Users\SOLDER~1\AppData\Local\Temp\ccmjpsKj.s:29906  .debug_str:0000000000024e32 .LASF233
C:\Users\SOLDER~1\AppData\Local\Temp\ccmjpsKj.s:31688  .debug_str:000000000002c195 .LASF234
C:\Users\SOLDER~1\AppData\Local\Temp\ccmjpsKj.s:22808  .debug_str:0000000000008215 .LASF235
C:\Users\SOLDER~1\AppData\Local\Temp\ccmjpsKj.s:24826  .debug_str:000000000001060b .LASF236
C:\Users\SOLDER~1\AppData\Local\Temp\ccmjpsKj.s:24270  .debug_str:000000000000e190 .LASF237
C:\Users\SOLDER~1\AppData\Local\Temp\ccmjpsKj.s:30076  .debug_str:00000000000258ce .LASF238
C:\Users\SOLDER~1\AppData\Local\Temp\ccmjpsKj.s:25660  .debug_str:0000000000013b7e .LASF239
C:\Users\SOLDER~1\AppData\Local\Temp\ccmjpsKj.s:28804  .debug_str:0000000000020707 .LASF240
C:\Users\SOLDER~1\AppData\Local\Temp\ccmjpsKj.s:27092  .debug_str:00000000000198b9 .LASF241
C:\Users\SOLDER~1\AppData\Local\Temp\ccmjpsKj.s:26642  .debug_str:0000000000017b2c .LASF242
C:\Users\SOLDER~1\AppData\Local\Temp\ccmjpsKj.s:28102  .debug_str:000000000001d9a4 .LASF243
C:\Users\SOLDER~1\AppData\Local\Temp\ccmjpsKj.s:27474  .debug_str:000000000001b123 .LASF244
C:\Users\SOLDER~1\AppData\Local\Temp\ccmjpsKj.s:32006  .debug_str:000000000002d66b .LASF245
C:\Users\SOLDER~1\AppData\Local\Temp\ccmjpsKj.s:28038  .debug_str:000000000001d5b3 .LASF246
C:\Users\SOLDER~1\AppData\Local\Temp\ccmjpsKj.s:31126  .debug_str:0000000000029d36 .LASF247
C:\Users\SOLDER~1\AppData\Local\Temp\ccmjpsKj.s:24294  .debug_str:000000000000e37b .LASF248
C:\Users\SOLDER~1\AppData\Local\Temp\ccmjpsKj.s:30496  .debug_str:00000000000274df .LASF249
C:\Users\SOLDER~1\AppData\Local\Temp\ccmjpsKj.s:24146  .debug_str:000000000000d9c2 .LASF250
C:\Users\SOLDER~1\AppData\Local\Temp\ccmjpsKj.s:27382  .debug_str:000000000001ab05 .LASF251
C:\Users\SOLDER~1\AppData\Local\Temp\ccmjpsKj.s:24864  .debug_str:0000000000010875 .LASF252
C:\Users\SOLDER~1\AppData\Local\Temp\ccmjpsKj.s:21050  .debug_str:000000000000110f .LASF253
C:\Users\SOLDER~1\AppData\Local\Temp\ccmjpsKj.s:23590  .debug_str:000000000000b536 .LASF254
C:\Users\SOLDER~1\AppData\Local\Temp\ccmjpsKj.s:20990  .debug_str:0000000000000d53 .LASF255
C:\Users\SOLDER~1\AppData\Local\Temp\ccmjpsKj.s:23702  .debug_str:000000000000bbde .LASF256
C:\Users\SOLDER~1\AppData\Local\Temp\ccmjpsKj.s:23162  .debug_str:00000000000098fb .LASF257
C:\Users\SOLDER~1\AppData\Local\Temp\ccmjpsKj.s:32218  .debug_str:000000000002e3d1 .LASF258
C:\Users\SOLDER~1\AppData\Local\Temp\ccmjpsKj.s:27986  .debug_str:000000000001d205 .LASF259
C:\Users\SOLDER~1\AppData\Local\Temp\ccmjpsKj.s:26798  .debug_str:0000000000018587 .LASF260
C:\Users\SOLDER~1\AppData\Local\Temp\ccmjpsKj.s:27598  .debug_str:000000000001b8b7 .LASF261
C:\Users\SOLDER~1\AppData\Local\Temp\ccmjpsKj.s:24320  .debug_str:000000000000e541 .LASF262
C:\Users\SOLDER~1\AppData\Local\Temp\ccmjpsKj.s:23642  .debug_str:000000000000b86b .LASF263
C:\Users\SOLDER~1\AppData\Local\Temp\ccmjpsKj.s:31502  .debug_str:000000000002b5f2 .LASF264
C:\Users\SOLDER~1\AppData\Local\Temp\ccmjpsKj.s:23964  .debug_str:000000000000cdf1 .LASF265
C:\Users\SOLDER~1\AppData\Local\Temp\ccmjpsKj.s:24960  .debug_str:0000000000010e7c .LASF266
C:\Users\SOLDER~1\AppData\Local\Temp\ccmjpsKj.s:26830  .debug_str:000000000001877f .LASF267
C:\Users\SOLDER~1\AppData\Local\Temp\ccmjpsKj.s:30742  .debug_str:0000000000028508 .LASF268
C:\Users\SOLDER~1\AppData\Local\Temp\ccmjpsKj.s:23782  .debug_str:000000000000c112 .LASF269
C:\Users\SOLDER~1\AppData\Local\Temp\ccmjpsKj.s:22500  .debug_str:0000000000006dd5 .LASF270
C:\Users\SOLDER~1\AppData\Local\Temp\ccmjpsKj.s:22678  .debug_str:0000000000007952 .LASF271
C:\Users\SOLDER~1\AppData\Local\Temp\ccmjpsKj.s:24018  .debug_str:000000000000d170 .LASF272
C:\Users\SOLDER~1\AppData\Local\Temp\ccmjpsKj.s:23854  .debug_str:000000000000c644 .LASF273
C:\Users\SOLDER~1\AppData\Local\Temp\ccmjpsKj.s:21140  .debug_str:0000000000001704 .LASF274
C:\Users\SOLDER~1\AppData\Local\Temp\ccmjpsKj.s:22492  .debug_str:0000000000006d62 .LASF275
C:\Users\SOLDER~1\AppData\Local\Temp\ccmjpsKj.s:31436  .debug_str:000000000002b167 .LASF276
GAS LISTING C:\Users\SOLDER~1\AppData\Local\Temp\ccmjpsKj.s 			page 58


C:\Users\SOLDER~1\AppData\Local\Temp\ccmjpsKj.s:29348  .debug_str:0000000000022987 .LASF277
C:\Users\SOLDER~1\AppData\Local\Temp\ccmjpsKj.s:30304  .debug_str:0000000000026853 .LASF278
C:\Users\SOLDER~1\AppData\Local\Temp\ccmjpsKj.s:22454  .debug_str:0000000000006af0 .LASF279
C:\Users\SOLDER~1\AppData\Local\Temp\ccmjpsKj.s:22234  .debug_str:0000000000005c48 .LASF280
C:\Users\SOLDER~1\AppData\Local\Temp\ccmjpsKj.s:22116  .debug_str:0000000000005480 .LASF281
C:\Users\SOLDER~1\AppData\Local\Temp\ccmjpsKj.s:26858  .debug_str:0000000000018974 .LASF282
C:\Users\SOLDER~1\AppData\Local\Temp\ccmjpsKj.s:30274  .debug_str:0000000000026656 .LASF283
C:\Users\SOLDER~1\AppData\Local\Temp\ccmjpsKj.s:30540  .debug_str:00000000000277c3 .LASF284
C:\Users\SOLDER~1\AppData\Local\Temp\ccmjpsKj.s:31414  .debug_str:000000000002b007 .LASF285
C:\Users\SOLDER~1\AppData\Local\Temp\ccmjpsKj.s:28048  .debug_str:000000000001d657 .LASF286
C:\Users\SOLDER~1\AppData\Local\Temp\ccmjpsKj.s:32206  .debug_str:000000000002e318 .LASF287
C:\Users\SOLDER~1\AppData\Local\Temp\ccmjpsKj.s:22208  .debug_str:0000000000005a8a .LASF288
C:\Users\SOLDER~1\AppData\Local\Temp\ccmjpsKj.s:26048  .debug_str:00000000000155ce .LASF289
C:\Users\SOLDER~1\AppData\Local\Temp\ccmjpsKj.s:24914  .debug_str:0000000000010bbe .LASF290
C:\Users\SOLDER~1\AppData\Local\Temp\ccmjpsKj.s:32456  .debug_str:000000000002f2ff .LASF291
C:\Users\SOLDER~1\AppData\Local\Temp\ccmjpsKj.s:31252  .debug_str:000000000002a5c8 .LASF292
C:\Users\SOLDER~1\AppData\Local\Temp\ccmjpsKj.s:22042  .debug_str:000000000000502c .LASF293
C:\Users\SOLDER~1\AppData\Local\Temp\ccmjpsKj.s:20842  .debug_str:00000000000002bb .LASF294
C:\Users\SOLDER~1\AppData\Local\Temp\ccmjpsKj.s:26098  .debug_str:0000000000015925 .LASF295
C:\Users\SOLDER~1\AppData\Local\Temp\ccmjpsKj.s:26934  .debug_str:0000000000018e3a .LASF296
C:\Users\SOLDER~1\AppData\Local\Temp\ccmjpsKj.s:24312  .debug_str:000000000000e4bb .LASF297
C:\Users\SOLDER~1\AppData\Local\Temp\ccmjpsKj.s:24856  .debug_str:0000000000010802 .LASF298
C:\Users\SOLDER~1\AppData\Local\Temp\ccmjpsKj.s:27638  .debug_str:000000000001bb19 .LASF299
C:\Users\SOLDER~1\AppData\Local\Temp\ccmjpsKj.s:26172  .debug_str:0000000000015d76 .LASF300
C:\Users\SOLDER~1\AppData\Local\Temp\ccmjpsKj.s:25600  .debug_str:0000000000013783 .LASF301
C:\Users\SOLDER~1\AppData\Local\Temp\ccmjpsKj.s:21374  .debug_str:000000000000261e .LASF302
C:\Users\SOLDER~1\AppData\Local\Temp\ccmjpsKj.s:23970  .debug_str:000000000000ce5a .LASF303
C:\Users\SOLDER~1\AppData\Local\Temp\ccmjpsKj.s:29432  .debug_str:0000000000022f06 .LASF304
C:\Users\SOLDER~1\AppData\Local\Temp\ccmjpsKj.s:24876  .debug_str:0000000000010914 .LASF305
C:\Users\SOLDER~1\AppData\Local\Temp\ccmjpsKj.s:30294  .debug_str:00000000000267c2 .LASF306
C:\Users\SOLDER~1\AppData\Local\Temp\ccmjpsKj.s:29876  .debug_str:0000000000024c1a .LASF307
C:\Users\SOLDER~1\AppData\Local\Temp\ccmjpsKj.s:28060  .debug_str:000000000001d722 .LASF308
C:\Users\SOLDER~1\AppData\Local\Temp\ccmjpsKj.s:21830  .debug_str:0000000000004308 .LASF309
C:\Users\SOLDER~1\AppData\Local\Temp\ccmjpsKj.s:28428  .debug_str:000000000001eec1 .LASF310
C:\Users\SOLDER~1\AppData\Local\Temp\ccmjpsKj.s:24092  .debug_str:000000000000d663 .LASF311
C:\Users\SOLDER~1\AppData\Local\Temp\ccmjpsKj.s:25426  .debug_str:0000000000012c02 .LASF312
C:\Users\SOLDER~1\AppData\Local\Temp\ccmjpsKj.s:23232  .debug_str:0000000000009d96 .LASF313
C:\Users\SOLDER~1\AppData\Local\Temp\ccmjpsKj.s:25860  .debug_str:00000000000149a6 .LASF314
C:\Users\SOLDER~1\AppData\Local\Temp\ccmjpsKj.s:22674  .debug_str:0000000000007913 .LASF315
C:\Users\SOLDER~1\AppData\Local\Temp\ccmjpsKj.s:28132  .debug_str:000000000001db6b .LASF316
C:\Users\SOLDER~1\AppData\Local\Temp\ccmjpsKj.s:30628  .debug_str:0000000000027d51 .LASF317
C:\Users\SOLDER~1\AppData\Local\Temp\ccmjpsKj.s:29884  .debug_str:0000000000024caf .LASF319
C:\Users\SOLDER~1\AppData\Local\Temp\ccmjpsKj.s:24712  .debug_str:000000000000feb5 .LASF320
C:\Users\SOLDER~1\AppData\Local\Temp\ccmjpsKj.s:26018  .debug_str:00000000000153c7 .LASF321
C:\Users\SOLDER~1\AppData\Local\Temp\ccmjpsKj.s:28468  .debug_str:000000000001f149 .LASF322
C:\Users\SOLDER~1\AppData\Local\Temp\ccmjpsKj.s:27286  .debug_str:000000000001a4a0 .LASF323
C:\Users\SOLDER~1\AppData\Local\Temp\ccmjpsKj.s:23984  .debug_str:000000000000cf45 .LASF324
C:\Users\SOLDER~1\AppData\Local\Temp\ccmjpsKj.s:22204  .debug_str:0000000000005a51 .LASF325
C:\Users\SOLDER~1\AppData\Local\Temp\ccmjpsKj.s:20926  .debug_str:00000000000008b1 .LASF326
C:\Users\SOLDER~1\AppData\Local\Temp\ccmjpsKj.s:31256  .debug_str:000000000002a60d .LASF327
C:\Users\SOLDER~1\AppData\Local\Temp\ccmjpsKj.s:24060  .debug_str:000000000000d435 .LASF328
C:\Users\SOLDER~1\AppData\Local\Temp\ccmjpsKj.s:32130  .debug_str:000000000002de3c .LASF329
C:\Users\SOLDER~1\AppData\Local\Temp\ccmjpsKj.s:22326  .debug_str:0000000000006256 .LASF330
C:\Users\SOLDER~1\AppData\Local\Temp\ccmjpsKj.s:21878  .debug_str:00000000000045e6 .LASF331
C:\Users\SOLDER~1\AppData\Local\Temp\ccmjpsKj.s:20854  .debug_str:000000000000037c .LASF332
C:\Users\SOLDER~1\AppData\Local\Temp\ccmjpsKj.s:26272  .debug_str:00000000000163b5 .LASF333
C:\Users\SOLDER~1\AppData\Local\Temp\ccmjpsKj.s:28892  .debug_str:0000000000020cdc .LASF334
GAS LISTING C:\Users\SOLDER~1\AppData\Local\Temp\ccmjpsKj.s 			page 59


C:\Users\SOLDER~1\AppData\Local\Temp\ccmjpsKj.s:27168  .debug_str:0000000000019d32 .LASF335
C:\Users\SOLDER~1\AppData\Local\Temp\ccmjpsKj.s:27032  .debug_str:00000000000194a0 .LASF339
C:\Users\SOLDER~1\AppData\Local\Temp\ccmjpsKj.s:27574  .debug_str:000000000001b730 .LASF340
C:\Users\SOLDER~1\AppData\Local\Temp\ccmjpsKj.s:23542  .debug_str:000000000000b217 .LASF341
C:\Users\SOLDER~1\AppData\Local\Temp\ccmjpsKj.s:26804  .debug_str:00000000000185ed .LASF342
C:\Users\SOLDER~1\AppData\Local\Temp\ccmjpsKj.s:27018  .debug_str:00000000000193c6 .LASF343
C:\Users\SOLDER~1\AppData\Local\Temp\ccmjpsKj.s:21416  .debug_str:00000000000028be .LASF344
C:\Users\SOLDER~1\AppData\Local\Temp\ccmjpsKj.s:23584  .debug_str:000000000000b4c4 .LASF345
C:\Users\SOLDER~1\AppData\Local\Temp\ccmjpsKj.s:21742  .debug_str:0000000000003d86 .LASF346
C:\Users\SOLDER~1\AppData\Local\Temp\ccmjpsKj.s:31788  .debug_str:000000000002c876 .LASF347
C:\Users\SOLDER~1\AppData\Local\Temp\ccmjpsKj.s:26360  .debug_str:0000000000016936 .LASF348
C:\Users\SOLDER~1\AppData\Local\Temp\ccmjpsKj.s:28824  .debug_str:0000000000020867 .LASF349
C:\Users\SOLDER~1\AppData\Local\Temp\ccmjpsKj.s:23058  .debug_str:0000000000009251 .LASF350
C:\Users\SOLDER~1\AppData\Local\Temp\ccmjpsKj.s:26868  .debug_str:0000000000018a0b .LASF351
C:\Users\SOLDER~1\AppData\Local\Temp\ccmjpsKj.s:32120  .debug_str:000000000002dda5 .LASF352
C:\Users\SOLDER~1\AppData\Local\Temp\ccmjpsKj.s:23518  .debug_str:000000000000b098 .LASF353
C:\Users\SOLDER~1\AppData\Local\Temp\ccmjpsKj.s:24626  .debug_str:000000000000f8aa .LASF354
C:\Users\SOLDER~1\AppData\Local\Temp\ccmjpsKj.s:28074  .debug_str:000000000001d80e .LASF355
C:\Users\SOLDER~1\AppData\Local\Temp\ccmjpsKj.s:26270  .debug_str:00000000000163a5 .LASF356
C:\Users\SOLDER~1\AppData\Local\Temp\ccmjpsKj.s:26412  .debug_str:0000000000016c7c .LASF357
C:\Users\SOLDER~1\AppData\Local\Temp\ccmjpsKj.s:29476  .debug_str:00000000000231ba .LASF358
C:\Users\SOLDER~1\AppData\Local\Temp\ccmjpsKj.s:25482  .debug_str:0000000000012fdb .LASF359
C:\Users\SOLDER~1\AppData\Local\Temp\ccmjpsKj.s:26478  .debug_str:0000000000017053 .LASF360
C:\Users\SOLDER~1\AppData\Local\Temp\ccmjpsKj.s:29592  .debug_str:00000000000239a0 .LASF361
C:\Users\SOLDER~1\AppData\Local\Temp\ccmjpsKj.s:22564  .debug_str:0000000000007252 .LASF362
C:\Users\SOLDER~1\AppData\Local\Temp\ccmjpsKj.s:31388  .debug_str:000000000002ae60 .LASF363
C:\Users\SOLDER~1\AppData\Local\Temp\ccmjpsKj.s:22086  .debug_str:00000000000052b4 .LASF364
C:\Users\SOLDER~1\AppData\Local\Temp\ccmjpsKj.s:26954  .debug_str:0000000000018f9b .LASF365
C:\Users\SOLDER~1\AppData\Local\Temp\ccmjpsKj.s:22662  .debug_str:0000000000007858 .LASF366
C:\Users\SOLDER~1\AppData\Local\Temp\ccmjpsKj.s:23602  .debug_str:000000000000b626 .LASF367
C:\Users\SOLDER~1\AppData\Local\Temp\ccmjpsKj.s:20814  .debug_str:000000000000011b .LASF368
C:\Users\SOLDER~1\AppData\Local\Temp\ccmjpsKj.s:28776  .debug_str:000000000002053d .LASF369
C:\Users\SOLDER~1\AppData\Local\Temp\ccmjpsKj.s:24302  .debug_str:000000000000e40e .LASF370
C:\Users\SOLDER~1\AppData\Local\Temp\ccmjpsKj.s:29788  .debug_str:0000000000024638 .LASF371
C:\Users\SOLDER~1\AppData\Local\Temp\ccmjpsKj.s:28708  .debug_str:00000000000200f4 .LASF372
C:\Users\SOLDER~1\AppData\Local\Temp\ccmjpsKj.s:25076  .debug_str:00000000000115f7 .LASF373
C:\Users\SOLDER~1\AppData\Local\Temp\ccmjpsKj.s:32268  .debug_str:000000000002e6fc .LASF374
C:\Users\SOLDER~1\AppData\Local\Temp\ccmjpsKj.s:32204  .debug_str:000000000002e312 .LASF375
C:\Users\SOLDER~1\AppData\Local\Temp\ccmjpsKj.s:22844  .debug_str:000000000000844c .LASF376
C:\Users\SOLDER~1\AppData\Local\Temp\ccmjpsKj.s:31286  .debug_str:000000000002a7f9 .LASF377
C:\Users\SOLDER~1\AppData\Local\Temp\ccmjpsKj.s:26256  .debug_str:00000000000162c8 .LASF378
C:\Users\SOLDER~1\AppData\Local\Temp\ccmjpsKj.s:30056  .debug_str:0000000000025794 .LASF379
C:\Users\SOLDER~1\AppData\Local\Temp\ccmjpsKj.s:31084  .debug_str:0000000000029ac7 .LASF380
C:\Users\SOLDER~1\AppData\Local\Temp\ccmjpsKj.s:29514  .debug_str:000000000002343e .LASF381
C:\Users\SOLDER~1\AppData\Local\Temp\ccmjpsKj.s:26454  .debug_str:0000000000016ef6 .LASF382
C:\Users\SOLDER~1\AppData\Local\Temp\ccmjpsKj.s:31110  .debug_str:0000000000029c45 .LASF383
C:\Users\SOLDER~1\AppData\Local\Temp\ccmjpsKj.s:27796  .debug_str:000000000001c570 .LASF384
C:\Users\SOLDER~1\AppData\Local\Temp\ccmjpsKj.s:25184  .debug_str:0000000000011d02 .LASF385
C:\Users\SOLDER~1\AppData\Local\Temp\ccmjpsKj.s:29638  .debug_str:0000000000023c7b .LASF386
C:\Users\SOLDER~1\AppData\Local\Temp\ccmjpsKj.s:28622  .debug_str:000000000001fbbe .LASF387
C:\Users\SOLDER~1\AppData\Local\Temp\ccmjpsKj.s:21170  .debug_str:00000000000018e0 .LASF388
C:\Users\SOLDER~1\AppData\Local\Temp\ccmjpsKj.s:21846  .debug_str:00000000000043f0 .LASF389
C:\Users\SOLDER~1\AppData\Local\Temp\ccmjpsKj.s:22260  .debug_str:0000000000005def .LASF390
C:\Users\SOLDER~1\AppData\Local\Temp\ccmjpsKj.s:23438  .debug_str:000000000000ab8b .LASF391
C:\Users\SOLDER~1\AppData\Local\Temp\ccmjpsKj.s:22910  .debug_str:000000000000884d .LASF392
C:\Users\SOLDER~1\AppData\Local\Temp\ccmjpsKj.s:28318  .debug_str:000000000001e746 .LASF393
C:\Users\SOLDER~1\AppData\Local\Temp\ccmjpsKj.s:28962  .debug_str:0000000000021181 .LASF394
GAS LISTING C:\Users\SOLDER~1\AppData\Local\Temp\ccmjpsKj.s 			page 60


C:\Users\SOLDER~1\AppData\Local\Temp\ccmjpsKj.s:29100  .debug_str:0000000000021a43 .LASF395
C:\Users\SOLDER~1\AppData\Local\Temp\ccmjpsKj.s:23064  .debug_str:00000000000092a7 .LASF396
C:\Users\SOLDER~1\AppData\Local\Temp\ccmjpsKj.s:22652  .debug_str:00000000000077d7 .LASF397
C:\Users\SOLDER~1\AppData\Local\Temp\ccmjpsKj.s:28128  .debug_str:000000000001db47 .LASF398
C:\Users\SOLDER~1\AppData\Local\Temp\ccmjpsKj.s:30792  .debug_str:0000000000028826 .LASF399
C:\Users\SOLDER~1\AppData\Local\Temp\ccmjpsKj.s:25396  .debug_str:0000000000012a43 .LASF400
C:\Users\SOLDER~1\AppData\Local\Temp\ccmjpsKj.s:26156  .debug_str:0000000000015c6b .LASF401
C:\Users\SOLDER~1\AppData\Local\Temp\ccmjpsKj.s:25234  .debug_str:0000000000012032 .LASF402
C:\Users\SOLDER~1\AppData\Local\Temp\ccmjpsKj.s:27824  .debug_str:000000000001c732 .LASF403
C:\Users\SOLDER~1\AppData\Local\Temp\ccmjpsKj.s:26368  .debug_str:00000000000169a3 .LASF404
C:\Users\SOLDER~1\AppData\Local\Temp\ccmjpsKj.s:26820  .debug_str:00000000000186ec .LASF405
C:\Users\SOLDER~1\AppData\Local\Temp\ccmjpsKj.s:22964  .debug_str:0000000000008bbf .LASF406
C:\Users\SOLDER~1\AppData\Local\Temp\ccmjpsKj.s:31736  .debug_str:000000000002c52d .LASF407
C:\Users\SOLDER~1\AppData\Local\Temp\ccmjpsKj.s:25708  .debug_str:0000000000013f33 .LASF408
C:\Users\SOLDER~1\AppData\Local\Temp\ccmjpsKj.s:28158  .debug_str:000000000001dd08 .LASF409
C:\Users\SOLDER~1\AppData\Local\Temp\ccmjpsKj.s:24538  .debug_str:000000000000f2e4 .LASF410
C:\Users\SOLDER~1\AppData\Local\Temp\ccmjpsKj.s:28858  .debug_str:0000000000020aad .LASF411
C:\Users\SOLDER~1\AppData\Local\Temp\ccmjpsKj.s:30862  .debug_str:0000000000028cb2 .LASF412
C:\Users\SOLDER~1\AppData\Local\Temp\ccmjpsKj.s:25252  .debug_str:0000000000012121 .LASF413
C:\Users\SOLDER~1\AppData\Local\Temp\ccmjpsKj.s:25242  .debug_str:0000000000012097 .LASF414
C:\Users\SOLDER~1\AppData\Local\Temp\ccmjpsKj.s:27230  .debug_str:000000000001a122 .LASF415
C:\Users\SOLDER~1\AppData\Local\Temp\ccmjpsKj.s:32304  .debug_str:000000000002e940 .LASF416
C:\Users\SOLDER~1\AppData\Local\Temp\ccmjpsKj.s:32448  .debug_str:000000000002f286 .LASF417
C:\Users\SOLDER~1\AppData\Local\Temp\ccmjpsKj.s:22724  .debug_str:0000000000007c55 .LASF418
C:\Users\SOLDER~1\AppData\Local\Temp\ccmjpsKj.s:23806  .debug_str:000000000000c2e5 .LASF419
C:\Users\SOLDER~1\AppData\Local\Temp\ccmjpsKj.s:21356  .debug_str:00000000000024eb .LASF420
C:\Users\SOLDER~1\AppData\Local\Temp\ccmjpsKj.s:28912  .debug_str:0000000000020e2f .LASF421
C:\Users\SOLDER~1\AppData\Local\Temp\ccmjpsKj.s:29614  .debug_str:0000000000023b02 .LASF422
C:\Users\SOLDER~1\AppData\Local\Temp\ccmjpsKj.s:21288  .debug_str:000000000000206a .LASF423
C:\Users\SOLDER~1\AppData\Local\Temp\ccmjpsKj.s:25640  .debug_str:0000000000013a3c .LASF424
C:\Users\SOLDER~1\AppData\Local\Temp\ccmjpsKj.s:28848  .debug_str:0000000000020a05 .LASF425
C:\Users\SOLDER~1\AppData\Local\Temp\ccmjpsKj.s:25232  .debug_str:0000000000012018 .LASF426
C:\Users\SOLDER~1\AppData\Local\Temp\ccmjpsKj.s:32430  .debug_str:000000000002f166 .LASF427
C:\Users\SOLDER~1\AppData\Local\Temp\ccmjpsKj.s:27836  .debug_str:000000000001c7e7 .LASF428
C:\Users\SOLDER~1\AppData\Local\Temp\ccmjpsKj.s:22100  .debug_str:0000000000005398 .LASF429
C:\Users\SOLDER~1\AppData\Local\Temp\ccmjpsKj.s:29996  .debug_str:00000000000253d8 .LASF430
C:\Users\SOLDER~1\AppData\Local\Temp\ccmjpsKj.s:25574  .debug_str:00000000000135db .LASF431
C:\Users\SOLDER~1\AppData\Local\Temp\ccmjpsKj.s:29908  .debug_str:0000000000024e50 .LASF432
C:\Users\SOLDER~1\AppData\Local\Temp\ccmjpsKj.s:22010  .debug_str:0000000000004e4b .LASF433
C:\Users\SOLDER~1\AppData\Local\Temp\ccmjpsKj.s:24512  .debug_str:000000000000f150 .LASF434
C:\Users\SOLDER~1\AppData\Local\Temp\ccmjpsKj.s:28744  .debug_str:000000000002033e .LASF435
C:\Users\SOLDER~1\AppData\Local\Temp\ccmjpsKj.s:20974  .debug_str:0000000000000c44 .LASF436
C:\Users\SOLDER~1\AppData\Local\Temp\ccmjpsKj.s:21146  .debug_str:0000000000001763 .LASF437
C:\Users\SOLDER~1\AppData\Local\Temp\ccmjpsKj.s:25990  .debug_str:0000000000015208 .LASF438
C:\Users\SOLDER~1\AppData\Local\Temp\ccmjpsKj.s:22088  .debug_str:00000000000052c9 .LASF439
C:\Users\SOLDER~1\AppData\Local\Temp\ccmjpsKj.s:25304  .debug_str:0000000000012450 .LASF440
C:\Users\SOLDER~1\AppData\Local\Temp\ccmjpsKj.s:31050  .debug_str:00000000000298ac .LASF441
C:\Users\SOLDER~1\AppData\Local\Temp\ccmjpsKj.s:23630  .debug_str:000000000000b7c5 .LASF442
C:\Users\SOLDER~1\AppData\Local\Temp\ccmjpsKj.s:27886  .debug_str:000000000001cb47 .LASF443
C:\Users\SOLDER~1\AppData\Local\Temp\ccmjpsKj.s:31608  .debug_str:000000000002bc74 .LASF444
C:\Users\SOLDER~1\AppData\Local\Temp\ccmjpsKj.s:25438  .debug_str:0000000000012cdc .LASF445
C:\Users\SOLDER~1\AppData\Local\Temp\ccmjpsKj.s:24842  .debug_str:0000000000010721 .LASF446
C:\Users\SOLDER~1\AppData\Local\Temp\ccmjpsKj.s:28642  .debug_str:000000000001fcdd .LASF447
C:\Users\SOLDER~1\AppData\Local\Temp\ccmjpsKj.s:22962  .debug_str:0000000000008ba5 .LASF448
C:\Users\SOLDER~1\AppData\Local\Temp\ccmjpsKj.s:28232  .debug_str:000000000001e207 .LASF449
C:\Users\SOLDER~1\AppData\Local\Temp\ccmjpsKj.s:24504  .debug_str:000000000000f0d7 .LASF450
C:\Users\SOLDER~1\AppData\Local\Temp\ccmjpsKj.s:31020  .debug_str:0000000000029690 .LASF451
GAS LISTING C:\Users\SOLDER~1\AppData\Local\Temp\ccmjpsKj.s 			page 61


C:\Users\SOLDER~1\AppData\Local\Temp\ccmjpsKj.s:25156  .debug_str:0000000000011b15 .LASF452
C:\Users\SOLDER~1\AppData\Local\Temp\ccmjpsKj.s:21538  .debug_str:0000000000003070 .LASF453
C:\Users\SOLDER~1\AppData\Local\Temp\ccmjpsKj.s:21124  .debug_str:00000000000015fb .LASF454
C:\Users\SOLDER~1\AppData\Local\Temp\ccmjpsKj.s:29356  .debug_str:0000000000022a08 .LASF455
C:\Users\SOLDER~1\AppData\Local\Temp\ccmjpsKj.s:30272  .debug_str:000000000002662b .LASF456
C:\Users\SOLDER~1\AppData\Local\Temp\ccmjpsKj.s:24014  .debug_str:000000000000d121 .LASF457
C:\Users\SOLDER~1\AppData\Local\Temp\ccmjpsKj.s:24342  .debug_str:000000000000e69a .LASF458
C:\Users\SOLDER~1\AppData\Local\Temp\ccmjpsKj.s:30920  .debug_str:000000000002902f .LASF459
C:\Users\SOLDER~1\AppData\Local\Temp\ccmjpsKj.s:31854  .debug_str:000000000002cc84 .LASF460
C:\Users\SOLDER~1\AppData\Local\Temp\ccmjpsKj.s:21110  .debug_str:0000000000001506 .LASF461
C:\Users\SOLDER~1\AppData\Local\Temp\ccmjpsKj.s:23612  .debug_str:000000000000b6af .LASF462
C:\Users\SOLDER~1\AppData\Local\Temp\ccmjpsKj.s:30230  .debug_str:0000000000026326 .LASF463
C:\Users\SOLDER~1\AppData\Local\Temp\ccmjpsKj.s:27572  .debug_str:000000000001b70a .LASF464
C:\Users\SOLDER~1\AppData\Local\Temp\ccmjpsKj.s:30768  .debug_str:000000000002867b .LASF465
C:\Users\SOLDER~1\AppData\Local\Temp\ccmjpsKj.s:26750  .debug_str:000000000001825d .LASF466
C:\Users\SOLDER~1\AppData\Local\Temp\ccmjpsKj.s:29150  .debug_str:0000000000021d3e .LASF467
C:\Users\SOLDER~1\AppData\Local\Temp\ccmjpsKj.s:27788  .debug_str:000000000001c4e0 .LASF468
C:\Users\SOLDER~1\AppData\Local\Temp\ccmjpsKj.s:21214  .debug_str:0000000000001b8d .LASF469
C:\Users\SOLDER~1\AppData\Local\Temp\ccmjpsKj.s:26182  .debug_str:0000000000015df3 .LASF470
C:\Users\SOLDER~1\AppData\Local\Temp\ccmjpsKj.s:28724  .debug_str:00000000000201f4 .LASF471
C:\Users\SOLDER~1\AppData\Local\Temp\ccmjpsKj.s:32110  .debug_str:000000000002dd04 .LASF472
C:\Users\SOLDER~1\AppData\Local\Temp\ccmjpsKj.s:32362  .debug_str:000000000002ed3f .LASF473
C:\Users\SOLDER~1\AppData\Local\Temp\ccmjpsKj.s:32208  .debug_str:000000000002e33a .LASF474
C:\Users\SOLDER~1\AppData\Local\Temp\ccmjpsKj.s:30264  .debug_str:0000000000026585 .LASF475
C:\Users\SOLDER~1\AppData\Local\Temp\ccmjpsKj.s:23252  .debug_str:0000000000009eef .LASF476
C:\Users\SOLDER~1\AppData\Local\Temp\ccmjpsKj.s:27350  .debug_str:000000000001a8c6 .LASF477
C:\Users\SOLDER~1\AppData\Local\Temp\ccmjpsKj.s:26430  .debug_str:0000000000016d99 .LASF478
C:\Users\SOLDER~1\AppData\Local\Temp\ccmjpsKj.s:30370  .debug_str:0000000000026c9e .LASF479
C:\Users\SOLDER~1\AppData\Local\Temp\ccmjpsKj.s:32458  .debug_str:000000000002f31d .LASF480
C:\Users\SOLDER~1\AppData\Local\Temp\ccmjpsKj.s:29162  .debug_str:0000000000021e0e .LASF481
C:\Users\SOLDER~1\AppData\Local\Temp\ccmjpsKj.s:30468  .debug_str:0000000000027322 .LASF482
C:\Users\SOLDER~1\AppData\Local\Temp\ccmjpsKj.s:23758  .debug_str:000000000000bf93 .LASF483
C:\Users\SOLDER~1\AppData\Local\Temp\ccmjpsKj.s:27508  .debug_str:000000000001b330 .LASF484
C:\Users\SOLDER~1\AppData\Local\Temp\ccmjpsKj.s:27420  .debug_str:000000000001ad65 .LASF485
C:\Users\SOLDER~1\AppData\Local\Temp\ccmjpsKj.s:30588  .debug_str:0000000000027ae0 .LASF486
C:\Users\SOLDER~1\AppData\Local\Temp\ccmjpsKj.s:27984  .debug_str:000000000001d1ed .LASF487
C:\Users\SOLDER~1\AppData\Local\Temp\ccmjpsKj.s:24764  .debug_str:000000000001021a .LASF488
C:\Users\SOLDER~1\AppData\Local\Temp\ccmjpsKj.s:26910  .debug_str:0000000000018c8c .LASF489
C:\Users\SOLDER~1\AppData\Local\Temp\ccmjpsKj.s:22034  .debug_str:0000000000004fa5 .LASF490
C:\Users\SOLDER~1\AppData\Local\Temp\ccmjpsKj.s:25132  .debug_str:0000000000011997 .LASF491
C:\Users\SOLDER~1\AppData\Local\Temp\ccmjpsKj.s:24076  .debug_str:000000000000d551 .LASF492
C:\Users\SOLDER~1\AppData\Local\Temp\ccmjpsKj.s:29472  .debug_str:0000000000023183 .LASF494
C:\Users\SOLDER~1\AppData\Local\Temp\ccmjpsKj.s:23132  .debug_str:0000000000009703 .LASF495
C:\Users\SOLDER~1\AppData\Local\Temp\ccmjpsKj.s:22128  .debug_str:000000000000552f .LASF496
C:\Users\SOLDER~1\AppData\Local\Temp\ccmjpsKj.s:28238  .debug_str:000000000001e260 .LASF497
C:\Users\SOLDER~1\AppData\Local\Temp\ccmjpsKj.s:27576  .debug_str:000000000001b748 .LASF498
C:\Users\SOLDER~1\AppData\Local\Temp\ccmjpsKj.s:27674  .debug_str:000000000001bd6b .LASF499
C:\Users\SOLDER~1\AppData\Local\Temp\ccmjpsKj.s:24346  .debug_str:000000000000e6db .LASF500
C:\Users\SOLDER~1\AppData\Local\Temp\ccmjpsKj.s:21932  .debug_str:000000000000497c .LASF501
C:\Users\SOLDER~1\AppData\Local\Temp\ccmjpsKj.s:25288  .debug_str:0000000000012359 .LASF502
C:\Users\SOLDER~1\AppData\Local\Temp\ccmjpsKj.s:22064  .debug_str:0000000000005164 .LASF503
C:\Users\SOLDER~1\AppData\Local\Temp\ccmjpsKj.s:26140  .debug_str:0000000000015b51 .LASF504
C:\Users\SOLDER~1\AppData\Local\Temp\ccmjpsKj.s:20824  .debug_str:00000000000001a0 .LASF505
C:\Users\SOLDER~1\AppData\Local\Temp\ccmjpsKj.s:24158  .debug_str:000000000000da83 .LASF506
C:\Users\SOLDER~1\AppData\Local\Temp\ccmjpsKj.s:32172  .debug_str:000000000002e0ed .LASF507
C:\Users\SOLDER~1\AppData\Local\Temp\ccmjpsKj.s:31090  .debug_str:0000000000029b13 .LASF508
C:\Users\SOLDER~1\AppData\Local\Temp\ccmjpsKj.s:25668  .debug_str:0000000000013c26 .LASF509
GAS LISTING C:\Users\SOLDER~1\AppData\Local\Temp\ccmjpsKj.s 			page 62


C:\Users\SOLDER~1\AppData\Local\Temp\ccmjpsKj.s:26602  .debug_str:00000000000178b4 .LASF510
C:\Users\SOLDER~1\AppData\Local\Temp\ccmjpsKj.s:25976  .debug_str:0000000000015134 .LASF511
C:\Users\SOLDER~1\AppData\Local\Temp\ccmjpsKj.s:27046  .debug_str:000000000001957d .LASF512
C:\Users\SOLDER~1\AppData\Local\Temp\ccmjpsKj.s:28886  .debug_str:0000000000020c71 .LASF513
C:\Users\SOLDER~1\AppData\Local\Temp\ccmjpsKj.s:27906  .debug_str:000000000001cca2 .LASF514
C:\Users\SOLDER~1\AppData\Local\Temp\ccmjpsKj.s:29572  .debug_str:000000000002383a .LASF515
C:\Users\SOLDER~1\AppData\Local\Temp\ccmjpsKj.s:31708  .debug_str:000000000002c302 .LASF516
C:\Users\SOLDER~1\AppData\Local\Temp\ccmjpsKj.s:28148  .debug_str:000000000001dc5e .LASF517
C:\Users\SOLDER~1\AppData\Local\Temp\ccmjpsKj.s:31578  .debug_str:000000000002ba9f .LASF518
C:\Users\SOLDER~1\AppData\Local\Temp\ccmjpsKj.s:30152  .debug_str:0000000000025de2 .LASF519
C:\Users\SOLDER~1\AppData\Local\Temp\ccmjpsKj.s:27316  .debug_str:000000000001a6a3 .LASF520
C:\Users\SOLDER~1\AppData\Local\Temp\ccmjpsKj.s:22348  .debug_str:00000000000063c4 .LASF521
C:\Users\SOLDER~1\AppData\Local\Temp\ccmjpsKj.s:29518  .debug_str:000000000002346f .LASF522
C:\Users\SOLDER~1\AppData\Local\Temp\ccmjpsKj.s:25592  .debug_str:0000000000013702 .LASF523
C:\Users\SOLDER~1\AppData\Local\Temp\ccmjpsKj.s:21320  .debug_str:000000000000227c .LASF524
C:\Users\SOLDER~1\AppData\Local\Temp\ccmjpsKj.s:28200  .debug_str:000000000001dfdd .LASF525
C:\Users\SOLDER~1\AppData\Local\Temp\ccmjpsKj.s:24216  .debug_str:000000000000de04 .LASF526
C:\Users\SOLDER~1\AppData\Local\Temp\ccmjpsKj.s:25994  .debug_str:0000000000015244 .LASF527
C:\Users\SOLDER~1\AppData\Local\Temp\ccmjpsKj.s:24254  .debug_str:000000000000e07f .LASF528
C:\Users\SOLDER~1\AppData\Local\Temp\ccmjpsKj.s:23020  .debug_str:0000000000008fa8 .LASF529
C:\Users\SOLDER~1\AppData\Local\Temp\ccmjpsKj.s:22666  .debug_str:0000000000007891 .LASF530
C:\Users\SOLDER~1\AppData\Local\Temp\ccmjpsKj.s:23844  .debug_str:000000000000c598 .LASF531
C:\Users\SOLDER~1\AppData\Local\Temp\ccmjpsKj.s:25174  .debug_str:0000000000011c48 .LASF532
C:\Users\SOLDER~1\AppData\Local\Temp\ccmjpsKj.s:32322  .debug_str:000000000002ea5d .LASF533
C:\Users\SOLDER~1\AppData\Local\Temp\ccmjpsKj.s:25310  .debug_str:00000000000124c0 .LASF534
C:\Users\SOLDER~1\AppData\Local\Temp\ccmjpsKj.s:31700  .debug_str:000000000002c274 .LASF535
C:\Users\SOLDER~1\AppData\Local\Temp\ccmjpsKj.s:27790  .debug_str:000000000001c509 .LASF536
C:\Users\SOLDER~1\AppData\Local\Temp\ccmjpsKj.s:24166  .debug_str:000000000000daf9 .LASF537
C:\Users\SOLDER~1\AppData\Local\Temp\ccmjpsKj.s:27570  .debug_str:000000000001b6e4 .LASF538
C:\Users\SOLDER~1\AppData\Local\Temp\ccmjpsKj.s:21922  .debug_str:00000000000048cd .LASF539
C:\Users\SOLDER~1\AppData\Local\Temp\ccmjpsKj.s:29570  .debug_str:0000000000023815 .LASF540
C:\Users\SOLDER~1\AppData\Local\Temp\ccmjpsKj.s:27616  .debug_str:000000000001b9ca .LASF541
C:\Users\SOLDER~1\AppData\Local\Temp\ccmjpsKj.s:31794  .debug_str:000000000002c8bf .LASF542
C:\Users\SOLDER~1\AppData\Local\Temp\ccmjpsKj.s:23656  .debug_str:000000000000b905 .LASF543
C:\Users\SOLDER~1\AppData\Local\Temp\ccmjpsKj.s:30492  .debug_str:000000000002749e .LASF544
C:\Users\SOLDER~1\AppData\Local\Temp\ccmjpsKj.s:29710  .debug_str:00000000000240fe .LASF545
C:\Users\SOLDER~1\AppData\Local\Temp\ccmjpsKj.s:28470  .debug_str:000000000001f16b .LASF546
C:\Users\SOLDER~1\AppData\Local\Temp\ccmjpsKj.s:30710  .debug_str:00000000000282bb .LASF547
C:\Users\SOLDER~1\AppData\Local\Temp\ccmjpsKj.s:28676  .debug_str:000000000001fef2 .LASF548
C:\Users\SOLDER~1\AppData\Local\Temp\ccmjpsKj.s:26800  .debug_str:00000000000185a2 .LASF549
C:\Users\SOLDER~1\AppData\Local\Temp\ccmjpsKj.s:25496  .debug_str:00000000000130ac .LASF550
C:\Users\SOLDER~1\AppData\Local\Temp\ccmjpsKj.s:29106  .debug_str:0000000000021a8d .LASF551
C:\Users\SOLDER~1\AppData\Local\Temp\ccmjpsKj.s:25734  .debug_str:00000000000140f1 .LASF552
C:\Users\SOLDER~1\AppData\Local\Temp\ccmjpsKj.s:28344  .debug_str:000000000001e926 .LASF553
C:\Users\SOLDER~1\AppData\Local\Temp\ccmjpsKj.s:26282  .debug_str:000000000001645d .LASF554
C:\Users\SOLDER~1\AppData\Local\Temp\ccmjpsKj.s:21150  .debug_str:00000000000017a1 .LASF555
C:\Users\SOLDER~1\AppData\Local\Temp\ccmjpsKj.s:25020  .debug_str:000000000001126c .LASF556
C:\Users\SOLDER~1\AppData\Local\Temp\ccmjpsKj.s:22310  .debug_str:000000000000613f .LASF557
C:\Users\SOLDER~1\AppData\Local\Temp\ccmjpsKj.s:24916  .debug_str:0000000000010bdb .LASF558
C:\Users\SOLDER~1\AppData\Local\Temp\ccmjpsKj.s:24776  .debug_str:00000000000102a1 .LASF559
C:\Users\SOLDER~1\AppData\Local\Temp\ccmjpsKj.s:21240  .debug_str:0000000000001d71 .LASF560
C:\Users\SOLDER~1\AppData\Local\Temp\ccmjpsKj.s:30026  .debug_str:00000000000255bf .LASF561
C:\Users\SOLDER~1\AppData\Local\Temp\ccmjpsKj.s:31990  .debug_str:000000000002d571 .LASF562
C:\Users\SOLDER~1\AppData\Local\Temp\ccmjpsKj.s:32230  .debug_str:000000000002e48f .LASF563
C:\Users\SOLDER~1\AppData\Local\Temp\ccmjpsKj.s:24238  .debug_str:000000000000df6b .LASF564
C:\Users\SOLDER~1\AppData\Local\Temp\ccmjpsKj.s:21054  .debug_str:000000000000116d .LASF565
C:\Users\SOLDER~1\AppData\Local\Temp\ccmjpsKj.s:29620  .debug_str:0000000000023b62 .LASF566
GAS LISTING C:\Users\SOLDER~1\AppData\Local\Temp\ccmjpsKj.s 			page 63


C:\Users\SOLDER~1\AppData\Local\Temp\ccmjpsKj.s:27494  .debug_str:000000000001b26e .LASF567
C:\Users\SOLDER~1\AppData\Local\Temp\ccmjpsKj.s:27728  .debug_str:000000000001c0d7 .LASF568
C:\Users\SOLDER~1\AppData\Local\Temp\ccmjpsKj.s:21270  .debug_str:0000000000001f3c .LASF569
C:\Users\SOLDER~1\AppData\Local\Temp\ccmjpsKj.s:26080  .debug_str:00000000000157f3 .LASF570
C:\Users\SOLDER~1\AppData\Local\Temp\ccmjpsKj.s:29808  .debug_str:0000000000024776 .LASF571
C:\Users\SOLDER~1\AppData\Local\Temp\ccmjpsKj.s:24564  .debug_str:000000000000f48c .LASF572
C:\Users\SOLDER~1\AppData\Local\Temp\ccmjpsKj.s:26526  .debug_str:000000000001738d .LASF573
C:\Users\SOLDER~1\AppData\Local\Temp\ccmjpsKj.s:24376  .debug_str:000000000000e8b4 .LASF574
C:\Users\SOLDER~1\AppData\Local\Temp\ccmjpsKj.s:26416  .debug_str:0000000000016cb2 .LASF575
C:\Users\SOLDER~1\AppData\Local\Temp\ccmjpsKj.s:25522  .debug_str:0000000000013264 .LASF576
C:\Users\SOLDER~1\AppData\Local\Temp\ccmjpsKj.s:25484  .debug_str:0000000000012fec .LASF577
C:\Users\SOLDER~1\AppData\Local\Temp\ccmjpsKj.s:32064  .debug_str:000000000002d9f8 .LASF578
C:\Users\SOLDER~1\AppData\Local\Temp\ccmjpsKj.s:26976  .debug_str:0000000000019128 .LASF579
C:\Users\SOLDER~1\AppData\Local\Temp\ccmjpsKj.s:30232  .debug_str:000000000002634a .LASF580
C:\Users\SOLDER~1\AppData\Local\Temp\ccmjpsKj.s:21918  .debug_str:000000000000488f .LASF581
C:\Users\SOLDER~1\AppData\Local\Temp\ccmjpsKj.s:25270  .debug_str:000000000001223b .LASF582
C:\Users\SOLDER~1\AppData\Local\Temp\ccmjpsKj.s:28490  .debug_str:000000000001f2c5 .LASF583
C:\Users\SOLDER~1\AppData\Local\Temp\ccmjpsKj.s:31830  .debug_str:000000000002cb10 .LASF584
C:\Users\SOLDER~1\AppData\Local\Temp\ccmjpsKj.s:23472  .debug_str:000000000000ad7c .LASF585
C:\Users\SOLDER~1\AppData\Local\Temp\ccmjpsKj.s:31362  .debug_str:000000000002aca1 .LASF586
C:\Users\SOLDER~1\AppData\Local\Temp\ccmjpsKj.s:30242  .debug_str:00000000000263fe .LASF587
C:\Users\SOLDER~1\AppData\Local\Temp\ccmjpsKj.s:25418  .debug_str:0000000000012b6e .LASF588
C:\Users\SOLDER~1\AppData\Local\Temp\ccmjpsKj.s:27348  .debug_str:000000000001a8a5 .LASF589
C:\Users\SOLDER~1\AppData\Local\Temp\ccmjpsKj.s:29508  .debug_str:00000000000233d8 .LASF590
C:\Users\SOLDER~1\AppData\Local\Temp\ccmjpsKj.s:26450  .debug_str:0000000000016eb6 .LASF591
C:\Users\SOLDER~1\AppData\Local\Temp\ccmjpsKj.s:30976  .debug_str:000000000002939d .LASF592
C:\Users\SOLDER~1\AppData\Local\Temp\ccmjpsKj.s:28046  .debug_str:000000000001d637 .LASF593
C:\Users\SOLDER~1\AppData\Local\Temp\ccmjpsKj.s:26748  .debug_str:0000000000018223 .LASF594
C:\Users\SOLDER~1\AppData\Local\Temp\ccmjpsKj.s:32162  .debug_str:000000000002e029 .LASF595
C:\Users\SOLDER~1\AppData\Local\Temp\ccmjpsKj.s:23484  .debug_str:000000000000ae54 .LASF596
C:\Users\SOLDER~1\AppData\Local\Temp\ccmjpsKj.s:31586  .debug_str:000000000002bb0a .LASF597
C:\Users\SOLDER~1\AppData\Local\Temp\ccmjpsKj.s:25460  .debug_str:0000000000012e4a .LASF598
C:\Users\SOLDER~1\AppData\Local\Temp\ccmjpsKj.s:30990  .debug_str:0000000000029498 .LASF599
C:\Users\SOLDER~1\AppData\Local\Temp\ccmjpsKj.s:24892  .debug_str:0000000000010a24 .LASF600
C:\Users\SOLDER~1\AppData\Local\Temp\ccmjpsKj.s:30290  .debug_str:0000000000026760 .LASF601
C:\Users\SOLDER~1\AppData\Local\Temp\ccmjpsKj.s:30396  .debug_str:0000000000026e77 .LASF602
C:\Users\SOLDER~1\AppData\Local\Temp\ccmjpsKj.s:24242  .debug_str:000000000000dfb0 .LASF603
C:\Users\SOLDER~1\AppData\Local\Temp\ccmjpsKj.s:24028  .debug_str:000000000000d226 .LASF604
C:\Users\SOLDER~1\AppData\Local\Temp\ccmjpsKj.s:28124  .debug_str:000000000001db0a .LASF605
C:\Users\SOLDER~1\AppData\Local\Temp\ccmjpsKj.s:30062  .debug_str:00000000000257ef .LASF606
C:\Users\SOLDER~1\AppData\Local\Temp\ccmjpsKj.s:26532  .debug_str:00000000000173fb .LASF607
C:\Users\SOLDER~1\AppData\Local\Temp\ccmjpsKj.s:29260  .debug_str:00000000000223f5 .LASF608
C:\Users\SOLDER~1\AppData\Local\Temp\ccmjpsKj.s:31672  .debug_str:000000000002c06d .LASF609
C:\Users\SOLDER~1\AppData\Local\Temp\ccmjpsKj.s:23104  .debug_str:0000000000009560 .LASF610
C:\Users\SOLDER~1\AppData\Local\Temp\ccmjpsKj.s:25200  .debug_str:0000000000011de6 .LASF611
C:\Users\SOLDER~1\AppData\Local\Temp\ccmjpsKj.s:25472  .debug_str:0000000000012f1b .LASF612
C:\Users\SOLDER~1\AppData\Local\Temp\ccmjpsKj.s:28118  .debug_str:000000000001dab5 .LASF613
C:\Users\SOLDER~1\AppData\Local\Temp\ccmjpsKj.s:22548  .debug_str:0000000000007162 .LASF614
C:\Users\SOLDER~1\AppData\Local\Temp\ccmjpsKj.s:21284  .debug_str:0000000000002044 .LASF615
C:\Users\SOLDER~1\AppData\Local\Temp\ccmjpsKj.s:26606  .debug_str:00000000000178fd .LASF616
C:\Users\SOLDER~1\AppData\Local\Temp\ccmjpsKj.s:22152  .debug_str:0000000000005699 .LASF617
C:\Users\SOLDER~1\AppData\Local\Temp\ccmjpsKj.s:29982  .debug_str:0000000000025305 .LASF618
C:\Users\SOLDER~1\AppData\Local\Temp\ccmjpsKj.s:21572  .debug_str:000000000000329d .LASF619
C:\Users\SOLDER~1\AppData\Local\Temp\ccmjpsKj.s:28246  .debug_str:000000000001e2dd .LASF620
C:\Users\SOLDER~1\AppData\Local\Temp\ccmjpsKj.s:21666  .debug_str:00000000000038aa .LASF621
C:\Users\SOLDER~1\AppData\Local\Temp\ccmjpsKj.s:26146  .debug_str:0000000000015bc2 .LASF622
C:\Users\SOLDER~1\AppData\Local\Temp\ccmjpsKj.s:27218  .debug_str:000000000001a04c .LASF623
GAS LISTING C:\Users\SOLDER~1\AppData\Local\Temp\ccmjpsKj.s 			page 64


C:\Users\SOLDER~1\AppData\Local\Temp\ccmjpsKj.s:25066  .debug_str:0000000000011551 .LASF624
C:\Users\SOLDER~1\AppData\Local\Temp\ccmjpsKj.s:27800  .debug_str:000000000001c599 .LASF625
C:\Users\SOLDER~1\AppData\Local\Temp\ccmjpsKj.s:22514  .debug_str:0000000000006eec .LASF626
C:\Users\SOLDER~1\AppData\Local\Temp\ccmjpsKj.s:22474  .debug_str:0000000000006c3a .LASF627
C:\Users\SOLDER~1\AppData\Local\Temp\ccmjpsKj.s:27458  .debug_str:000000000001b024 .LASF628
C:\Users\SOLDER~1\AppData\Local\Temp\ccmjpsKj.s:24246  .debug_str:000000000000dffa .LASF629
C:\Users\SOLDER~1\AppData\Local\Temp\ccmjpsKj.s:28748  .debug_str:000000000002037d .LASF630
C:\Users\SOLDER~1\AppData\Local\Temp\ccmjpsKj.s:27722  .debug_str:000000000001c07e .LASF631
C:\Users\SOLDER~1\AppData\Local\Temp\ccmjpsKj.s:28736  .debug_str:00000000000202b8 .LASF632
C:\Users\SOLDER~1\AppData\Local\Temp\ccmjpsKj.s:27184  .debug_str:0000000000019e3d .LASF633
C:\Users\SOLDER~1\AppData\Local\Temp\ccmjpsKj.s:30806  .debug_str:0000000000028905 .LASF634
C:\Users\SOLDER~1\AppData\Local\Temp\ccmjpsKj.s:25942  .debug_str:0000000000014f06 .LASF635
C:\Users\SOLDER~1\AppData\Local\Temp\ccmjpsKj.s:27688  .debug_str:000000000001be51 .LASF636
C:\Users\SOLDER~1\AppData\Local\Temp\ccmjpsKj.s:29856  .debug_str:0000000000024abb .LASF637
C:\Users\SOLDER~1\AppData\Local\Temp\ccmjpsKj.s:21250  .debug_str:0000000000001e11 .LASF638
C:\Users\SOLDER~1\AppData\Local\Temp\ccmjpsKj.s:31680  .debug_str:000000000002c102 .LASF639
C:\Users\SOLDER~1\AppData\Local\Temp\ccmjpsKj.s:25524  .debug_str:0000000000013282 .LASF640
C:\Users\SOLDER~1\AppData\Local\Temp\ccmjpsKj.s:26554  .debug_str:00000000000175a1 .LASF641
C:\Users\SOLDER~1\AppData\Local\Temp\ccmjpsKj.s:26462  .debug_str:0000000000016f62 .LASF642
C:\Users\SOLDER~1\AppData\Local\Temp\ccmjpsKj.s:27818  .debug_str:000000000001c6c6 .LASF643
C:\Users\SOLDER~1\AppData\Local\Temp\ccmjpsKj.s:22378  .debug_str:00000000000065c3 .LASF644
C:\Users\SOLDER~1\AppData\Local\Temp\ccmjpsKj.s:29802  .debug_str:0000000000024718 .LASF645
C:\Users\SOLDER~1\AppData\Local\Temp\ccmjpsKj.s:26514  .debug_str:00000000000172ba .LASF646
C:\Users\SOLDER~1\AppData\Local\Temp\ccmjpsKj.s:24386  .debug_str:000000000000e963 .LASF647
C:\Users\SOLDER~1\AppData\Local\Temp\ccmjpsKj.s:25936  .debug_str:0000000000014e8c .LASF648
C:\Users\SOLDER~1\AppData\Local\Temp\ccmjpsKj.s:24472  .debug_str:000000000000eec8 .LASF649
C:\Users\SOLDER~1\AppData\Local\Temp\ccmjpsKj.s:31160  .debug_str:0000000000029f7f .LASF650
C:\Users\SOLDER~1\AppData\Local\Temp\ccmjpsKj.s:27356  .debug_str:000000000001a925 .LASF651
C:\Users\SOLDER~1\AppData\Local\Temp\ccmjpsKj.s:25354  .debug_str:0000000000012760 .LASF652
C:\Users\SOLDER~1\AppData\Local\Temp\ccmjpsKj.s:26964  .debug_str:0000000000019049 .LASF653
C:\Users\SOLDER~1\AppData\Local\Temp\ccmjpsKj.s:26260  .debug_str:00000000000162f1 .LASF654
C:\Users\SOLDER~1\AppData\Local\Temp\ccmjpsKj.s:32182  .debug_str:000000000002e191 .LASF655
C:\Users\SOLDER~1\AppData\Local\Temp\ccmjpsKj.s:27010  .debug_str:000000000001934a .LASF656
C:\Users\SOLDER~1\AppData\Local\Temp\ccmjpsKj.s:31442  .debug_str:000000000002b1be .LASF657
C:\Users\SOLDER~1\AppData\Local\Temp\ccmjpsKj.s:28604  .debug_str:000000000001fa86 .LASF658
C:\Users\SOLDER~1\AppData\Local\Temp\ccmjpsKj.s:30696  .debug_str:00000000000281db .LASF659
C:\Users\SOLDER~1\AppData\Local\Temp\ccmjpsKj.s:29602  .debug_str:0000000000023a50 .LASF660
C:\Users\SOLDER~1\AppData\Local\Temp\ccmjpsKj.s:31836  .debug_str:000000000002cb87 .LASF661
C:\Users\SOLDER~1\AppData\Local\Temp\ccmjpsKj.s:24256  .debug_str:000000000000e0a3 .LASF662
C:\Users\SOLDER~1\AppData\Local\Temp\ccmjpsKj.s:23560  .debug_str:000000000000b33c .LASF663
C:\Users\SOLDER~1\AppData\Local\Temp\ccmjpsKj.s:31108  .debug_str:0000000000029c26 .LASF664
C:\Users\SOLDER~1\AppData\Local\Temp\ccmjpsKj.s:28270  .debug_str:000000000001e466 .LASF665
C:\Users\SOLDER~1\AppData\Local\Temp\ccmjpsKj.s:28546  .debug_str:000000000001f69a .LASF666
C:\Users\SOLDER~1\AppData\Local\Temp\ccmjpsKj.s:28562  .debug_str:000000000001f7be .LASF667
C:\Users\SOLDER~1\AppData\Local\Temp\ccmjpsKj.s:22436  .debug_str:00000000000069ec .LASF668
C:\Users\SOLDER~1\AppData\Local\Temp\ccmjpsKj.s:29636  .debug_str:0000000000023c67 .LASF669
C:\Users\SOLDER~1\AppData\Local\Temp\ccmjpsKj.s:30668  .debug_str:0000000000028010 .LASF670
C:\Users\SOLDER~1\AppData\Local\Temp\ccmjpsKj.s:32150  .debug_str:000000000002df79 .LASF671
C:\Users\SOLDER~1\AppData\Local\Temp\ccmjpsKj.s:31434  .debug_str:000000000002b144 .LASF672
C:\Users\SOLDER~1\AppData\Local\Temp\ccmjpsKj.s:27660  .debug_str:000000000001bc63 .LASF673
C:\Users\SOLDER~1\AppData\Local\Temp\ccmjpsKj.s:26224  .debug_str:000000000001607e .LASF674
C:\Users\SOLDER~1\AppData\Local\Temp\ccmjpsKj.s:21702  .debug_str:0000000000003af2 .LASF675
C:\Users\SOLDER~1\AppData\Local\Temp\ccmjpsKj.s:24924  .debug_str:0000000000010c5c .LASF676
C:\Users\SOLDER~1\AppData\Local\Temp\ccmjpsKj.s:27362  .debug_str:000000000001a995 .LASF677
C:\Users\SOLDER~1\AppData\Local\Temp\ccmjpsKj.s:30472  .debug_str:0000000000027354 .LASF678
C:\Users\SOLDER~1\AppData\Local\Temp\ccmjpsKj.s:31760  .debug_str:000000000002c6a7 .LASF679
C:\Users\SOLDER~1\AppData\Local\Temp\ccmjpsKj.s:26682  .debug_str:0000000000017dcd .LASF680
GAS LISTING C:\Users\SOLDER~1\AppData\Local\Temp\ccmjpsKj.s 			page 65


C:\Users\SOLDER~1\AppData\Local\Temp\ccmjpsKj.s:28188  .debug_str:000000000001defd .LASF681
C:\Users\SOLDER~1\AppData\Local\Temp\ccmjpsKj.s:25474  .debug_str:0000000000012f33 .LASF682
C:\Users\SOLDER~1\AppData\Local\Temp\ccmjpsKj.s:26396  .debug_str:0000000000016b6a .LASF683
C:\Users\SOLDER~1\AppData\Local\Temp\ccmjpsKj.s:22908  .debug_str:000000000000882a .LASF684
C:\Users\SOLDER~1\AppData\Local\Temp\ccmjpsKj.s:27968  .debug_str:000000000001d0e8 .LASF685
C:\Users\SOLDER~1\AppData\Local\Temp\ccmjpsKj.s:28506  .debug_str:000000000001f3e4 .LASF686
C:\Users\SOLDER~1\AppData\Local\Temp\ccmjpsKj.s:21216  .debug_str:0000000000001bb1 .LASF687
C:\Users\SOLDER~1\AppData\Local\Temp\ccmjpsKj.s:28282  .debug_str:000000000001e518 .LASF688
C:\Users\SOLDER~1\AppData\Local\Temp\ccmjpsKj.s:31646  .debug_str:000000000002bec9 .LASF689
C:\Users\SOLDER~1\AppData\Local\Temp\ccmjpsKj.s:20828  .debug_str:00000000000001d2 .LASF690
C:\Users\SOLDER~1\AppData\Local\Temp\ccmjpsKj.s:28770  .debug_str:00000000000204df .LASF691
C:\Users\SOLDER~1\AppData\Local\Temp\ccmjpsKj.s:28720  .debug_str:00000000000201ae .LASF692
C:\Users\SOLDER~1\AppData\Local\Temp\ccmjpsKj.s:23006  .debug_str:0000000000008eb5 .LASF693
C:\Users\SOLDER~1\AppData\Local\Temp\ccmjpsKj.s:28472  .debug_str:000000000001f198 .LASF694
C:\Users\SOLDER~1\AppData\Local\Temp\ccmjpsKj.s:22990  .debug_str:0000000000008d94 .LASF695
C:\Users\SOLDER~1\AppData\Local\Temp\ccmjpsKj.s:27978  .debug_str:000000000001d196 .LASF696
C:\Users\SOLDER~1\AppData\Local\Temp\ccmjpsKj.s:30658  .debug_str:0000000000027f4d .LASF697
C:\Users\SOLDER~1\AppData\Local\Temp\ccmjpsKj.s:31456  .debug_str:000000000002b287 .LASF698
C:\Users\SOLDER~1\AppData\Local\Temp\ccmjpsKj.s:24404  .debug_str:000000000000eaac .LASF699
C:\Users\SOLDER~1\AppData\Local\Temp\ccmjpsKj.s:32152  .debug_str:000000000002df8f .LASF700
C:\Users\SOLDER~1\AppData\Local\Temp\ccmjpsKj.s:27216  .debug_str:000000000001a039 .LASF701
C:\Users\SOLDER~1\AppData\Local\Temp\ccmjpsKj.s:21634  .debug_str:0000000000003686 .LASF702
C:\Users\SOLDER~1\AppData\Local\Temp\ccmjpsKj.s:29712  .debug_str:000000000002412b .LASF703
C:\Users\SOLDER~1\AppData\Local\Temp\ccmjpsKj.s:27692  .debug_str:000000000001be7c .LASF704
C:\Users\SOLDER~1\AppData\Local\Temp\ccmjpsKj.s:30708  .debug_str:0000000000028298 .LASF705
C:\Users\SOLDER~1\AppData\Local\Temp\ccmjpsKj.s:26434  .debug_str:0000000000016ddd .LASF706
C:\Users\SOLDER~1\AppData\Local\Temp\ccmjpsKj.s:23712  .debug_str:000000000000bcc3 .LASF707
C:\Users\SOLDER~1\AppData\Local\Temp\ccmjpsKj.s:29304  .debug_str:0000000000022682 .LASF708
C:\Users\SOLDER~1\AppData\Local\Temp\ccmjpsKj.s:28764  .debug_str:0000000000020476 .LASF709
C:\Users\SOLDER~1\AppData\Local\Temp\ccmjpsKj.s:21652  .debug_str:00000000000037a8 .LASF710
C:\Users\SOLDER~1\AppData\Local\Temp\ccmjpsKj.s:30196  .debug_str:00000000000260c4 .LASF711
C:\Users\SOLDER~1\AppData\Local\Temp\ccmjpsKj.s:29500  .debug_str:0000000000023344 .LASF712
C:\Users\SOLDER~1\AppData\Local\Temp\ccmjpsKj.s:22772  .debug_str:0000000000007f95 .LASF713
C:\Users\SOLDER~1\AppData\Local\Temp\ccmjpsKj.s:30550  .debug_str:0000000000027861 .LASF714
C:\Users\SOLDER~1\AppData\Local\Temp\ccmjpsKj.s:28488  .debug_str:000000000001f2a2 .LASF715
C:\Users\SOLDER~1\AppData\Local\Temp\ccmjpsKj.s:29650  .debug_str:0000000000023d1c .LASF716
C:\Users\SOLDER~1\AppData\Local\Temp\ccmjpsKj.s:24948  .debug_str:0000000000010dbd .LASF717
C:\Users\SOLDER~1\AppData\Local\Temp\ccmjpsKj.s:32192  .debug_str:000000000002e23e .LASF718
C:\Users\SOLDER~1\AppData\Local\Temp\ccmjpsKj.s:27392  .debug_str:000000000001abb3 .LASF719
C:\Users\SOLDER~1\AppData\Local\Temp\ccmjpsKj.s:25388  .debug_str:00000000000129c2 .LASF720
C:\Users\SOLDER~1\AppData\Local\Temp\ccmjpsKj.s:29044  .debug_str:00000000000216b7 .LASF721
C:\Users\SOLDER~1\AppData\Local\Temp\ccmjpsKj.s:27186  .debug_str:0000000000019e5f .LASF722
C:\Users\SOLDER~1\AppData\Local\Temp\ccmjpsKj.s:29088  .debug_str:000000000002197c .LASF723
C:\Users\SOLDER~1\AppData\Local\Temp\ccmjpsKj.s:26324  .debug_str:00000000000166fd .LASF724
C:\Users\SOLDER~1\AppData\Local\Temp\ccmjpsKj.s:25562  .debug_str:0000000000013506 .LASF725
C:\Users\SOLDER~1\AppData\Local\Temp\ccmjpsKj.s:31330  .debug_str:000000000002aaeb .LASF726
C:\Users\SOLDER~1\AppData\Local\Temp\ccmjpsKj.s:25744  .debug_str:00000000000141a6 .LASF727
C:\Users\SOLDER~1\AppData\Local\Temp\ccmjpsKj.s:20968  .debug_str:0000000000000bd5 .LASF728
C:\Users\SOLDER~1\AppData\Local\Temp\ccmjpsKj.s:24154  .debug_str:000000000000da3b .LASF729
C:\Users\SOLDER~1\AppData\Local\Temp\ccmjpsKj.s:28914  .debug_str:0000000000020e44 .LASF730
C:\Users\SOLDER~1\AppData\Local\Temp\ccmjpsKj.s:27642  .debug_str:000000000001bb52 .LASF731
C:\Users\SOLDER~1\AppData\Local\Temp\ccmjpsKj.s:22600  .debug_str:00000000000074ad .LASF732
C:\Users\SOLDER~1\AppData\Local\Temp\ccmjpsKj.s:23212  .debug_str:0000000000009c1b .LASF733
C:\Users\SOLDER~1\AppData\Local\Temp\ccmjpsKj.s:29288  .debug_str:0000000000022570 .LASF734
C:\Users\SOLDER~1\AppData\Local\Temp\ccmjpsKj.s:29220  .debug_str:0000000000022197 .LASF735
C:\Users\SOLDER~1\AppData\Local\Temp\ccmjpsKj.s:26876  .debug_str:0000000000018a86 .LASF736
C:\Users\SOLDER~1\AppData\Local\Temp\ccmjpsKj.s:23706  .debug_str:000000000000bc4e .LASF737
GAS LISTING C:\Users\SOLDER~1\AppData\Local\Temp\ccmjpsKj.s 			page 66


C:\Users\SOLDER~1\AppData\Local\Temp\ccmjpsKj.s:32326  .debug_str:000000000002ea9f .LASF738
C:\Users\SOLDER~1\AppData\Local\Temp\ccmjpsKj.s:23936  .debug_str:000000000000cc1d .LASF739
C:\Users\SOLDER~1\AppData\Local\Temp\ccmjpsKj.s:21322  .debug_str:00000000000022a2 .LASF740
C:\Users\SOLDER~1\AppData\Local\Temp\ccmjpsKj.s:26052  .debug_str:0000000000015612 .LASF741
C:\Users\SOLDER~1\AppData\Local\Temp\ccmjpsKj.s:23694  .debug_str:000000000000bb72 .LASF742
C:\Users\SOLDER~1\AppData\Local\Temp\ccmjpsKj.s:30582  .debug_str:0000000000027a7d .LASF743
C:\Users\SOLDER~1\AppData\Local\Temp\ccmjpsKj.s:27204  .debug_str:0000000000019f90 .LASF744
C:\Users\SOLDER~1\AppData\Local\Temp\ccmjpsKj.s:25330  .debug_str:00000000000125f6 .LASF745
C:\Users\SOLDER~1\AppData\Local\Temp\ccmjpsKj.s:28638  .debug_str:000000000001fca0 .LASF746
C:\Users\SOLDER~1\AppData\Local\Temp\ccmjpsKj.s:29214  .debug_str:0000000000022131 .LASF747
C:\Users\SOLDER~1\AppData\Local\Temp\ccmjpsKj.s:30160  .debug_str:0000000000025e56 .LASF748
C:\Users\SOLDER~1\AppData\Local\Temp\ccmjpsKj.s:29590  .debug_str:000000000002397e .LASF749
C:\Users\SOLDER~1\AppData\Local\Temp\ccmjpsKj.s:22498  .debug_str:0000000000006db3 .LASF750
C:\Users\SOLDER~1\AppData\Local\Temp\ccmjpsKj.s:21996  .debug_str:0000000000004d82 .LASF751
C:\Users\SOLDER~1\AppData\Local\Temp\ccmjpsKj.s:23388  .debug_str:000000000000a836 .LASF752
C:\Users\SOLDER~1\AppData\Local\Temp\ccmjpsKj.s:23606  .debug_str:000000000000b651 .LASF753
C:\Users\SOLDER~1\AppData\Local\Temp\ccmjpsKj.s:31420  .debug_str:000000000002b060 .LASF754
C:\Users\SOLDER~1\AppData\Local\Temp\ccmjpsKj.s:29300  .debug_str:0000000000022647 .LASF755
C:\Users\SOLDER~1\AppData\Local\Temp\ccmjpsKj.s:21468  .debug_str:0000000000002be5 .LASF756
C:\Users\SOLDER~1\AppData\Local\Temp\ccmjpsKj.s:30612  .debug_str:0000000000027c68 .LASF757
C:\Users\SOLDER~1\AppData\Local\Temp\ccmjpsKj.s:21354  .debug_str:00000000000024c9 .LASF758
C:\Users\SOLDER~1\AppData\Local\Temp\ccmjpsKj.s:28216  .debug_str:000000000001e0f8 .LASF759
C:\Users\SOLDER~1\AppData\Local\Temp\ccmjpsKj.s:26262  .debug_str:0000000000016316 .LASF760
C:\Users\SOLDER~1\AppData\Local\Temp\ccmjpsKj.s:20864  .debug_str:0000000000000426 .LASF761
C:\Users\SOLDER~1\AppData\Local\Temp\ccmjpsKj.s:21052  .debug_str:000000000000114d .LASF762
C:\Users\SOLDER~1\AppData\Local\Temp\ccmjpsKj.s:29690  .debug_str:0000000000023fb5 .LASF763
C:\Users\SOLDER~1\AppData\Local\Temp\ccmjpsKj.s:30000  .debug_str:0000000000025416 .LASF764
C:\Users\SOLDER~1\AppData\Local\Temp\ccmjpsKj.s:22264  .debug_str:0000000000005e1f .LASF765
C:\Users\SOLDER~1\AppData\Local\Temp\ccmjpsKj.s:23074  .debug_str:000000000000935b .LASF766
C:\Users\SOLDER~1\AppData\Local\Temp\ccmjpsKj.s:31164  .debug_str:0000000000029fc0 .LASF767
C:\Users\SOLDER~1\AppData\Local\Temp\ccmjpsKj.s:20996  .debug_str:0000000000000dd5 .LASF768
C:\Users\SOLDER~1\AppData\Local\Temp\ccmjpsKj.s:25842  .debug_str:0000000000014865 .LASF769
C:\Users\SOLDER~1\AppData\Local\Temp\ccmjpsKj.s:27840  .debug_str:000000000001c824 .LASF770
C:\Users\SOLDER~1\AppData\Local\Temp\ccmjpsKj.s:22554  .debug_str:00000000000071b9 .LASF771
C:\Users\SOLDER~1\AppData\Local\Temp\ccmjpsKj.s:22238  .debug_str:0000000000005c77 .LASF772
C:\Users\SOLDER~1\AppData\Local\Temp\ccmjpsKj.s:23814  .debug_str:000000000000c360 .LASF773
C:\Users\SOLDER~1\AppData\Local\Temp\ccmjpsKj.s:21372  .debug_str:00000000000025fc .LASF774
C:\Users\SOLDER~1\AppData\Local\Temp\ccmjpsKj.s:22036  .debug_str:0000000000004fbf .LASF775
C:\Users\SOLDER~1\AppData\Local\Temp\ccmjpsKj.s:22018  .debug_str:0000000000004ed0 .LASF776
C:\Users\SOLDER~1\AppData\Local\Temp\ccmjpsKj.s:22286  .debug_str:0000000000005f69 .LASF777
C:\Users\SOLDER~1\AppData\Local\Temp\ccmjpsKj.s:31320  .debug_str:000000000002aa4b .LASF778
C:\Users\SOLDER~1\AppData\Local\Temp\ccmjpsKj.s:28070  .debug_str:000000000001d7c7 .LASF779
C:\Users\SOLDER~1\AppData\Local\Temp\ccmjpsKj.s:27196  .debug_str:0000000000019f0a .LASF780
C:\Users\SOLDER~1\AppData\Local\Temp\ccmjpsKj.s:29054  .debug_str:000000000002174a .LASF781
C:\Users\SOLDER~1\AppData\Local\Temp\ccmjpsKj.s:22864  .debug_str:0000000000008580 .LASF782
C:\Users\SOLDER~1\AppData\Local\Temp\ccmjpsKj.s:32470  .debug_str:000000000002f3f2 .LASF783
C:\Users\SOLDER~1\AppData\Local\Temp\ccmjpsKj.s:21210  .debug_str:0000000000001b4f .LASF784
C:\Users\SOLDER~1\AppData\Local\Temp\ccmjpsKj.s:24114  .debug_str:000000000000d7af .LASF785
C:\Users\SOLDER~1\AppData\Local\Temp\ccmjpsKj.s:22550  .debug_str:000000000000717a .LASF786
C:\Users\SOLDER~1\AppData\Local\Temp\ccmjpsKj.s:27496  .debug_str:000000000001b28f .LASF787
C:\Users\SOLDER~1\AppData\Local\Temp\ccmjpsKj.s:29496  .debug_str:0000000000023303 .LASF788
C:\Users\SOLDER~1\AppData\Local\Temp\ccmjpsKj.s:26684  .debug_str:0000000000017df1 .LASF789
C:\Users\SOLDER~1\AppData\Local\Temp\ccmjpsKj.s:32122  .debug_str:000000000002ddb4 .LASF790
C:\Users\SOLDER~1\AppData\Local\Temp\ccmjpsKj.s:27016  .debug_str:00000000000193b6 .LASF791
C:\Users\SOLDER~1\AppData\Local\Temp\ccmjpsKj.s:32424  .debug_str:000000000002f115 .LASF792
C:\Users\SOLDER~1\AppData\Local\Temp\ccmjpsKj.s:25134  .debug_str:00000000000119b1 .LASF793
C:\Users\SOLDER~1\AppData\Local\Temp\ccmjpsKj.s:30236  .debug_str:0000000000026390 .LASF794
GAS LISTING C:\Users\SOLDER~1\AppData\Local\Temp\ccmjpsKj.s 			page 67


C:\Users\SOLDER~1\AppData\Local\Temp\ccmjpsKj.s:30672  .debug_str:000000000002805a .LASF795
C:\Users\SOLDER~1\AppData\Local\Temp\ccmjpsKj.s:23788  .debug_str:000000000000c19c .LASF796
C:\Users\SOLDER~1\AppData\Local\Temp\ccmjpsKj.s:30702  .debug_str:000000000002823f .LASF797
C:\Users\SOLDER~1\AppData\Local\Temp\ccmjpsKj.s:26040  .debug_str:0000000000015551 .LASF798
C:\Users\SOLDER~1\AppData\Local\Temp\ccmjpsKj.s:26006  .debug_str:00000000000152e6 .LASF799
C:\Users\SOLDER~1\AppData\Local\Temp\ccmjpsKj.s:25452  .debug_str:0000000000012dca .LASF800
C:\Users\SOLDER~1\AppData\Local\Temp\ccmjpsKj.s:23850  .debug_str:000000000000c5fe .LASF801
C:\Users\SOLDER~1\AppData\Local\Temp\ccmjpsKj.s:28542  .debug_str:000000000001f656 .LASF802
C:\Users\SOLDER~1\AppData\Local\Temp\ccmjpsKj.s:32422  .debug_str:000000000002f0f3 .LASF803
C:\Users\SOLDER~1\AppData\Local\Temp\ccmjpsKj.s:32158  .debug_str:000000000002dfe5 .LASF804
C:\Users\SOLDER~1\AppData\Local\Temp\ccmjpsKj.s:30348  .debug_str:0000000000026b31 .LASF805
C:\Users\SOLDER~1\AppData\Local\Temp\ccmjpsKj.s:21420  .debug_str:0000000000002934 .LASF806
C:\Users\SOLDER~1\AppData\Local\Temp\ccmjpsKj.s:30408  .debug_str:0000000000026f51 .LASF807
C:\Users\SOLDER~1\AppData\Local\Temp\ccmjpsKj.s:30634  .debug_str:0000000000027d9c .LASF808
C:\Users\SOLDER~1\AppData\Local\Temp\ccmjpsKj.s:22432  .debug_str:00000000000069aa .LASF809
C:\Users\SOLDER~1\AppData\Local\Temp\ccmjpsKj.s:27258  .debug_str:000000000001a2d9 .LASF810
C:\Users\SOLDER~1\AppData\Local\Temp\ccmjpsKj.s:26312  .debug_str:0000000000016653 .LASF811
C:\Users\SOLDER~1\AppData\Local\Temp\ccmjpsKj.s:22402  .debug_str:000000000000675e .LASF812
C:\Users\SOLDER~1\AppData\Local\Temp\ccmjpsKj.s:32008  .debug_str:000000000002d685 .LASF813
C:\Users\SOLDER~1\AppData\Local\Temp\ccmjpsKj.s:31024  .debug_str:00000000000296f4 .LASF814
C:\Users\SOLDER~1\AppData\Local\Temp\ccmjpsKj.s:29210  .debug_str:00000000000220f8 .LASF815
C:\Users\SOLDER~1\AppData\Local\Temp\ccmjpsKj.s:31676  .debug_str:000000000002c0bb .LASF816
C:\Users\SOLDER~1\AppData\Local\Temp\ccmjpsKj.s:30534  .debug_str:0000000000027760 .LASF817
C:\Users\SOLDER~1\AppData\Local\Temp\ccmjpsKj.s:28552  .debug_str:000000000001f709 .LASF818
C:\Users\SOLDER~1\AppData\Local\Temp\ccmjpsKj.s:30280  .debug_str:00000000000266b2 .LASF819
C:\Users\SOLDER~1\AppData\Local\Temp\ccmjpsKj.s:27320  .debug_str:000000000001a6e9 .LASF820
C:\Users\SOLDER~1\AppData\Local\Temp\ccmjpsKj.s:23982  .debug_str:000000000000cf35 .LASF821
C:\Users\SOLDER~1\AppData\Local\Temp\ccmjpsKj.s:29364  .debug_str:0000000000022a9a .LASF822
C:\Users\SOLDER~1\AppData\Local\Temp\ccmjpsKj.s:23154  .debug_str:000000000000986c .LASF823
C:\Users\SOLDER~1\AppData\Local\Temp\ccmjpsKj.s:28152  .debug_str:000000000001dca6 .LASF824
C:\Users\SOLDER~1\AppData\Local\Temp\ccmjpsKj.s:24458  .debug_str:000000000000edc9 .LASF825
C:\Users\SOLDER~1\AppData\Local\Temp\ccmjpsKj.s:27920  .debug_str:000000000001cda8 .LASF826
C:\Users\SOLDER~1\AppData\Local\Temp\ccmjpsKj.s:30580  .debug_str:0000000000027a6c .LASF827
C:\Users\SOLDER~1\AppData\Local\Temp\ccmjpsKj.s:26754  .debug_str:00000000000182a4 .LASF828
C:\Users\SOLDER~1\AppData\Local\Temp\ccmjpsKj.s:24012  .debug_str:000000000000d100 .LASF829
C:\Users\SOLDER~1\AppData\Local\Temp\ccmjpsKj.s:30090  .debug_str:00000000000259b9 .LASF830
C:\Users\SOLDER~1\AppData\Local\Temp\ccmjpsKj.s:24646  .debug_str:000000000000f9f3 .LASF831
C:\Users\SOLDER~1\AppData\Local\Temp\ccmjpsKj.s:31016  .debug_str:0000000000029656 .LASF832
C:\Users\SOLDER~1\AppData\Local\Temp\ccmjpsKj.s:23070  .debug_str:0000000000009315 .LASF833
C:\Users\SOLDER~1\AppData\Local\Temp\ccmjpsKj.s:30910  .debug_str:0000000000028f92 .LASF834
C:\Users\SOLDER~1\AppData\Local\Temp\ccmjpsKj.s:31886  .debug_str:000000000002ce77 .LASF835
C:\Users\SOLDER~1\AppData\Local\Temp\ccmjpsKj.s:21770  .debug_str:0000000000003f57 .LASF836
C:\Users\SOLDER~1\AppData\Local\Temp\ccmjpsKj.s:28866  .debug_str:0000000000020b1f .LASF837
C:\Users\SOLDER~1\AppData\Local\Temp\ccmjpsKj.s:25486  .debug_str:000000000001300d .LASF838
C:\Users\SOLDER~1\AppData\Local\Temp\ccmjpsKj.s:23696  .debug_str:000000000000bb92 .LASF839
C:\Users\SOLDER~1\AppData\Local\Temp\ccmjpsKj.s:22138  .debug_str:00000000000055b4 .LASF840
C:\Users\SOLDER~1\AppData\Local\Temp\ccmjpsKj.s:25072  .debug_str:00000000000115be .LASF841
C:\Users\SOLDER~1\AppData\Local\Temp\ccmjpsKj.s:25054  .debug_str:0000000000011482 .LASF842
C:\Users\SOLDER~1\AppData\Local\Temp\ccmjpsKj.s:27698  .debug_str:000000000001bedd .LASF843
C:\Users\SOLDER~1\AppData\Local\Temp\ccmjpsKj.s:32252  .debug_str:000000000002e5fd .LASF844
C:\Users\SOLDER~1\AppData\Local\Temp\ccmjpsKj.s:31268  .debug_str:000000000002a6d9 .LASF845
C:\Users\SOLDER~1\AppData\Local\Temp\ccmjpsKj.s:27326  .debug_str:000000000001a74b .LASF846
C:\Users\SOLDER~1\AppData\Local\Temp\ccmjpsKj.s:25248  .debug_str:00000000000120e5 .LASF847
C:\Users\SOLDER~1\AppData\Local\Temp\ccmjpsKj.s:21172  .debug_str:00000000000018e9 .LASF848
C:\Users\SOLDER~1\AppData\Local\Temp\ccmjpsKj.s:28338  .debug_str:000000000001e8b1 .LASF849
C:\Users\SOLDER~1\AppData\Local\Temp\ccmjpsKj.s:31354  .debug_str:000000000002ac3b .LASF850
C:\Users\SOLDER~1\AppData\Local\Temp\ccmjpsKj.s:22110  .debug_str:0000000000005418 .LASF851
GAS LISTING C:\Users\SOLDER~1\AppData\Local\Temp\ccmjpsKj.s 			page 68


C:\Users\SOLDER~1\AppData\Local\Temp\ccmjpsKj.s:24554  .debug_str:000000000000f3d2 .LASF852
C:\Users\SOLDER~1\AppData\Local\Temp\ccmjpsKj.s:26258  .debug_str:00000000000162cf .LASF853
C:\Users\SOLDER~1\AppData\Local\Temp\ccmjpsKj.s:23370  .debug_str:000000000000a6f8 .LASF854
C:\Users\SOLDER~1\AppData\Local\Temp\ccmjpsKj.s:24438  .debug_str:000000000000eca0 .LASF855
C:\Users\SOLDER~1\AppData\Local\Temp\ccmjpsKj.s:28442  .debug_str:000000000001efa5 .LASF856
C:\Users\SOLDER~1\AppData\Local\Temp\ccmjpsKj.s:24474  .debug_str:000000000000eede .LASF857
C:\Users\SOLDER~1\AppData\Local\Temp\ccmjpsKj.s:29342  .debug_str:0000000000022936 .LASF858
C:\Users\SOLDER~1\AppData\Local\Temp\ccmjpsKj.s:21736  .debug_str:0000000000003d23 .LASF859
C:\Users\SOLDER~1\AppData\Local\Temp\ccmjpsKj.s:23754  .debug_str:000000000000bf4c .LASF860
C:\Users\SOLDER~1\AppData\Local\Temp\ccmjpsKj.s:21450  .debug_str:0000000000002af5 .LASF861
C:\Users\SOLDER~1\AppData\Local\Temp\ccmjpsKj.s:25052  .debug_str:000000000001146f .LASF862
C:\Users\SOLDER~1\AppData\Local\Temp\ccmjpsKj.s:27400  .debug_str:000000000001ac27 .LASF863
C:\Users\SOLDER~1\AppData\Local\Temp\ccmjpsKj.s:25542  .debug_str:0000000000013383 .LASF864
C:\Users\SOLDER~1\AppData\Local\Temp\ccmjpsKj.s:29258  .debug_str:00000000000223d3 .LASF865
C:\Users\SOLDER~1\AppData\Local\Temp\ccmjpsKj.s:24852  .debug_str:00000000000107ba .LASF866
C:\Users\SOLDER~1\AppData\Local\Temp\ccmjpsKj.s:21616  .debug_str:0000000000003580 .LASF867
C:\Users\SOLDER~1\AppData\Local\Temp\ccmjpsKj.s:32292  .debug_str:000000000002e86f .LASF868
C:\Users\SOLDER~1\AppData\Local\Temp\ccmjpsKj.s:22046  .debug_str:0000000000005074 .LASF869
C:\Users\SOLDER~1\AppData\Local\Temp\ccmjpsKj.s:25740  .debug_str:000000000001415a .LASF870
C:\Users\SOLDER~1\AppData\Local\Temp\ccmjpsKj.s:31790  .debug_str:000000000002c888 .LASF871
C:\Users\SOLDER~1\AppData\Local\Temp\ccmjpsKj.s:26236  .debug_str:000000000001614b .LASF872
C:\Users\SOLDER~1\AppData\Local\Temp\ccmjpsKj.s:32416  .debug_str:000000000002f09c .LASF873
C:\Users\SOLDER~1\AppData\Local\Temp\ccmjpsKj.s:27766  .debug_str:000000000001c34b .LASF874
C:\Users\SOLDER~1\AppData\Local\Temp\ccmjpsKj.s:27022  .debug_str:00000000000193fa .LASF875
C:\Users\SOLDER~1\AppData\Local\Temp\ccmjpsKj.s:22362  .debug_str:00000000000064b8 .LASF876
C:\Users\SOLDER~1\AppData\Local\Temp\ccmjpsKj.s:30966  .debug_str:0000000000029303 .LASF877
C:\Users\SOLDER~1\AppData\Local\Temp\ccmjpsKj.s:29498  .debug_str:0000000000023323 .LASF878
C:\Users\SOLDER~1\AppData\Local\Temp\ccmjpsKj.s:25014  .debug_str:00000000000111fb .LASF879
C:\Users\SOLDER~1\AppData\Local\Temp\ccmjpsKj.s:21498  .debug_str:0000000000002de0 .LASF880
C:\Users\SOLDER~1\AppData\Local\Temp\ccmjpsKj.s:31466  .debug_str:000000000002b336 .LASF881
C:\Users\SOLDER~1\AppData\Local\Temp\ccmjpsKj.s:22502  .debug_str:0000000000006e19 .LASF882
C:\Users\SOLDER~1\AppData\Local\Temp\ccmjpsKj.s:22080  .debug_str:0000000000005284 .LASF883
C:\Users\SOLDER~1\AppData\Local\Temp\ccmjpsKj.s:21716  .debug_str:0000000000003bf0 .LASF884
C:\Users\SOLDER~1\AppData\Local\Temp\ccmjpsKj.s:24786  .debug_str:0000000000010352 .LASF885
C:\Users\SOLDER~1\AppData\Local\Temp\ccmjpsKj.s:28210  .debug_str:000000000001e08a .LASF886
C:\Users\SOLDER~1\AppData\Local\Temp\ccmjpsKj.s:27294  .debug_str:000000000001a51c .LASF887
C:\Users\SOLDER~1\AppData\Local\Temp\ccmjpsKj.s:23382  .debug_str:000000000000a7d2 .LASF888
C:\Users\SOLDER~1\AppData\Local\Temp\ccmjpsKj.s:24946  .debug_str:0000000000010d9c .LASF889
C:\Users\SOLDER~1\AppData\Local\Temp\ccmjpsKj.s:31124  .debug_str:0000000000029d24 .LASF890
C:\Users\SOLDER~1\AppData\Local\Temp\ccmjpsKj.s:20874  .debug_str:00000000000004c4 .LASF891
C:\Users\SOLDER~1\AppData\Local\Temp\ccmjpsKj.s:31644  .debug_str:000000000002bea8 .LASF892
C:\Users\SOLDER~1\AppData\Local\Temp\ccmjpsKj.s:31560  .debug_str:000000000002b950 .LASF893
C:\Users\SOLDER~1\AppData\Local\Temp\ccmjpsKj.s:29512  .debug_str:000000000002341d .LASF894
C:\Users\SOLDER~1\AppData\Local\Temp\ccmjpsKj.s:31140  .debug_str:0000000000029e33 .LASF895
C:\Users\SOLDER~1\AppData\Local\Temp\ccmjpsKj.s:28374  .debug_str:000000000001eb20 .LASF896
C:\Users\SOLDER~1\AppData\Local\Temp\ccmjpsKj.s:30704  .debug_str:0000000000028261 .LASF897
C:\Users\SOLDER~1\AppData\Local\Temp\ccmjpsKj.s:22428  .debug_str:0000000000006962 .LASF898
C:\Users\SOLDER~1\AppData\Local\Temp\ccmjpsKj.s:20892  .debug_str:0000000000000601 .LASF899
C:\Users\SOLDER~1\AppData\Local\Temp\ccmjpsKj.s:22358  .debug_str:0000000000006472 .LASF900
C:\Users\SOLDER~1\AppData\Local\Temp\ccmjpsKj.s:26782  .debug_str:0000000000018492 .LASF901
C:\Users\SOLDER~1\AppData\Local\Temp\ccmjpsKj.s:28660  .debug_str:000000000001fe06 .LASF902
C:\Users\SOLDER~1\AppData\Local\Temp\ccmjpsKj.s:22578  .debug_str:0000000000007343 .LASF903
C:\Users\SOLDER~1\AppData\Local\Temp\ccmjpsKj.s:21624  .debug_str:00000000000035f3 .LASF904
C:\Users\SOLDER~1\AppData\Local\Temp\ccmjpsKj.s:23720  .debug_str:000000000000bd3f .LASF905
C:\Users\SOLDER~1\AppData\Local\Temp\ccmjpsKj.s:21860  .debug_str:00000000000044dc .LASF906
C:\Users\SOLDER~1\AppData\Local\Temp\ccmjpsKj.s:22630  .debug_str:0000000000007680 .LASF907
C:\Users\SOLDER~1\AppData\Local\Temp\ccmjpsKj.s:29692  .debug_str:0000000000023fd7 .LASF908
GAS LISTING C:\Users\SOLDER~1\AppData\Local\Temp\ccmjpsKj.s 			page 69


C:\Users\SOLDER~1\AppData\Local\Temp\ccmjpsKj.s:26560  .debug_str:0000000000017603 .LASF909
C:\Users\SOLDER~1\AppData\Local\Temp\ccmjpsKj.s:25624  .debug_str:0000000000013922 .LASF910
C:\Users\SOLDER~1\AppData\Local\Temp\ccmjpsKj.s:28242  .debug_str:000000000001e2a5 .LASF911
C:\Users\SOLDER~1\AppData\Local\Temp\ccmjpsKj.s:22122  .debug_str:00000000000054cd .LASF912
C:\Users\SOLDER~1\AppData\Local\Temp\ccmjpsKj.s:31322  .debug_str:000000000002aa6d .LASF913
C:\Users\SOLDER~1\AppData\Local\Temp\ccmjpsKj.s:21410  .debug_str:000000000000285d .LASF914
C:\Users\SOLDER~1\AppData\Local\Temp\ccmjpsKj.s:31940  .debug_str:000000000002d1f0 .LASF915
C:\Users\SOLDER~1\AppData\Local\Temp\ccmjpsKj.s:26700  .debug_str:0000000000017ef5 .LASF916
C:\Users\SOLDER~1\AppData\Local\Temp\ccmjpsKj.s:26662  .debug_str:0000000000017c87 .LASF917
C:\Users\SOLDER~1\AppData\Local\Temp\ccmjpsKj.s:28576  .debug_str:000000000001f8d3 .LASF918
C:\Users\SOLDER~1\AppData\Local\Temp\ccmjpsKj.s:27410  .debug_str:000000000001acb0 .LASF919
C:\Users\SOLDER~1\AppData\Local\Temp\ccmjpsKj.s:29128  .debug_str:0000000000021be5 .LASF920
C:\Users\SOLDER~1\AppData\Local\Temp\ccmjpsKj.s:24620  .debug_str:000000000000f842 .LASF921
C:\Users\SOLDER~1\AppData\Local\Temp\ccmjpsKj.s:21196  .debug_str:0000000000001a61 .LASF922
C:\Users\SOLDER~1\AppData\Local\Temp\ccmjpsKj.s:30992  .debug_str:00000000000294d2 .LASF923
C:\Users\SOLDER~1\AppData\Local\Temp\ccmjpsKj.s:31308  .debug_str:000000000002a97a .LASF924
C:\Users\SOLDER~1\AppData\Local\Temp\ccmjpsKj.s:22000  .debug_str:0000000000004dbb .LASF925
C:\Users\SOLDER~1\AppData\Local\Temp\ccmjpsKj.s:22426  .debug_str:0000000000006942 .LASF926
C:\Users\SOLDER~1\AppData\Local\Temp\ccmjpsKj.s:23290  .debug_str:000000000000a17a .LASF927
C:\Users\SOLDER~1\AppData\Local\Temp\ccmjpsKj.s:27844  .debug_str:000000000001c880 .LASF928
C:\Users\SOLDER~1\AppData\Local\Temp\ccmjpsKj.s:26944  .debug_str:0000000000018ee4 .LASF929
C:\Users\SOLDER~1\AppData\Local\Temp\ccmjpsKj.s:28360  .debug_str:000000000001ea46 .LASF930
C:\Users\SOLDER~1\AppData\Local\Temp\ccmjpsKj.s:21136  .debug_str:00000000000016a6 .LASF931
C:\Users\SOLDER~1\AppData\Local\Temp\ccmjpsKj.s:22496  .debug_str:0000000000006da0 .LASF932
C:\Users\SOLDER~1\AppData\Local\Temp\ccmjpsKj.s:21048  .debug_str:00000000000010ef .LASF933
C:\Users\SOLDER~1\AppData\Local\Temp\ccmjpsKj.s:24290  .debug_str:000000000000e330 .LASF934
C:\Users\SOLDER~1\AppData\Local\Temp\ccmjpsKj.s:31186  .debug_str:000000000002a160 .LASF935
C:\Users\SOLDER~1\AppData\Local\Temp\ccmjpsKj.s:29144  .debug_str:0000000000021cd0 .LASF936
C:\Users\SOLDER~1\AppData\Local\Temp\ccmjpsKj.s:30740  .debug_str:00000000000284e6 .LASF937
C:\Users\SOLDER~1\AppData\Local\Temp\ccmjpsKj.s:27998  .debug_str:000000000001d2b0 .LASF938
C:\Users\SOLDER~1\AppData\Local\Temp\ccmjpsKj.s:31026  .debug_str:0000000000029707 .LASF939
C:\Users\SOLDER~1\AppData\Local\Temp\ccmjpsKj.s:23110  .debug_str:00000000000095c8 .LASF940
C:\Users\SOLDER~1\AppData\Local\Temp\ccmjpsKj.s:31170  .debug_str:000000000002a03d .LASF941
C:\Users\SOLDER~1\AppData\Local\Temp\ccmjpsKj.s:24500  .debug_str:000000000000f092 .LASF942
C:\Users\SOLDER~1\AppData\Local\Temp\ccmjpsKj.s:30070  .debug_str:000000000002586d .LASF943
C:\Users\SOLDER~1\AppData\Local\Temp\ccmjpsKj.s:21640  .debug_str:00000000000036f1 .LASF944
C:\Users\SOLDER~1\AppData\Local\Temp\ccmjpsKj.s:24336  .debug_str:000000000000e635 .LASF945
C:\Users\SOLDER~1\AppData\Local\Temp\ccmjpsKj.s:31342  .debug_str:000000000002ab88 .LASF946
C:\Users\SOLDER~1\AppData\Local\Temp\ccmjpsKj.s:30144  .debug_str:0000000000025d69 .LASF947
C:\Users\SOLDER~1\AppData\Local\Temp\ccmjpsKj.s:27596  .debug_str:000000000001b892 .LASF948
C:\Users\SOLDER~1\AppData\Local\Temp\ccmjpsKj.s:23184  .debug_str:0000000000009a70 .LASF949
C:\Users\SOLDER~1\AppData\Local\Temp\ccmjpsKj.s:24306  .debug_str:000000000000e44b .LASF950
C:\Users\SOLDER~1\AppData\Local\Temp\ccmjpsKj.s:24668  .debug_str:000000000000fb8b .LASF951
C:\Users\SOLDER~1\AppData\Local\Temp\ccmjpsKj.s:32022  .debug_str:000000000002d77c .LASF952
C:\Users\SOLDER~1\AppData\Local\Temp\ccmjpsKj.s:24162  .debug_str:000000000000dabb .LASF953
C:\Users\SOLDER~1\AppData\Local\Temp\ccmjpsKj.s:26598  .debug_str:0000000000017864 .LASF954
C:\Users\SOLDER~1\AppData\Local\Temp\ccmjpsKj.s:27122  .debug_str:0000000000019a8f .LASF955
C:\Users\SOLDER~1\AppData\Local\Temp\ccmjpsKj.s:26972  .debug_str:00000000000190e1 .LASF956
C:\Users\SOLDER~1\AppData\Local\Temp\ccmjpsKj.s:26448  .debug_str:0000000000016ea0 .LASF957
C:\Users\SOLDER~1\AppData\Local\Temp\ccmjpsKj.s:24526  .debug_str:000000000000f221 .LASF958
C:\Users\SOLDER~1\AppData\Local\Temp\ccmjpsKj.s:21964  .debug_str:0000000000004b62 .LASF959
C:\Users\SOLDER~1\AppData\Local\Temp\ccmjpsKj.s:22196  .debug_str:00000000000059ba .LASF960
C:\Users\SOLDER~1\AppData\Local\Temp\ccmjpsKj.s:29082  .debug_str:000000000002192d .LASF961
C:\Users\SOLDER~1\AppData\Local\Temp\ccmjpsKj.s:31470  .debug_str:000000000002b380 .LASF962
C:\Users\SOLDER~1\AppData\Local\Temp\ccmjpsKj.s:24598  .debug_str:000000000000f6d0 .LASF963
C:\Users\SOLDER~1\AppData\Local\Temp\ccmjpsKj.s:29024  .debug_str:0000000000021588 .LASF964
C:\Users\SOLDER~1\AppData\Local\Temp\ccmjpsKj.s:31752  .debug_str:000000000002c644 .LASF965
GAS LISTING C:\Users\SOLDER~1\AppData\Local\Temp\ccmjpsKj.s 			page 70


C:\Users\SOLDER~1\AppData\Local\Temp\ccmjpsKj.s:26702  .debug_str:0000000000017f17 .LASF966
C:\Users\SOLDER~1\AppData\Local\Temp\ccmjpsKj.s:26490  .debug_str:000000000001711e .LASF967
C:\Users\SOLDER~1\AppData\Local\Temp\ccmjpsKj.s:24228  .debug_str:000000000000decc .LASF968
C:\Users\SOLDER~1\AppData\Local\Temp\ccmjpsKj.s:22782  .debug_str:0000000000008050 .LASF969
C:\Users\SOLDER~1\AppData\Local\Temp\ccmjpsKj.s:21816  .debug_str:0000000000004228 .LASF970
C:\Users\SOLDER~1\AppData\Local\Temp\ccmjpsKj.s:29890  .debug_str:0000000000024cf3 .LASF971
C:\Users\SOLDER~1\AppData\Local\Temp\ccmjpsKj.s:31094  .debug_str:0000000000029b51 .LASF972
C:\Users\SOLDER~1\AppData\Local\Temp\ccmjpsKj.s:24002  .debug_str:000000000000d065 .LASF973
C:\Users\SOLDER~1\AppData\Local\Temp\ccmjpsKj.s:25098  .debug_str:0000000000011761 .LASF974
C:\Users\SOLDER~1\AppData\Local\Temp\ccmjpsKj.s:24632  .debug_str:000000000000f8fe .LASF975
C:\Users\SOLDER~1\AppData\Local\Temp\ccmjpsKj.s:25520  .debug_str:0000000000013243 .LASF976
C:\Users\SOLDER~1\AppData\Local\Temp\ccmjpsKj.s:31878  .debug_str:000000000002ce0e .LASF977
C:\Users\SOLDER~1\AppData\Local\Temp\ccmjpsKj.s:31936  .debug_str:000000000002d1ae .LASF978
C:\Users\SOLDER~1\AppData\Local\Temp\ccmjpsKj.s:27354  .debug_str:000000000001a90e .LASF979
C:\Users\SOLDER~1\AppData\Local\Temp\ccmjpsKj.s:29480  .debug_str:00000000000231e7 .LASF980
C:\Users\SOLDER~1\AppData\Local\Temp\ccmjpsKj.s:22812  .debug_str:0000000000008255 .LASF981
C:\Users\SOLDER~1\AppData\Local\Temp\ccmjpsKj.s:27130  .debug_str:0000000000019af4 .LASF982
C:\Users\SOLDER~1\AppData\Local\Temp\ccmjpsKj.s:29914  .debug_str:0000000000024eb7 .LASF983
C:\Users\SOLDER~1\AppData\Local\Temp\ccmjpsKj.s:24814  .debug_str:000000000001052a .LASF984
C:\Users\SOLDER~1\AppData\Local\Temp\ccmjpsKj.s:25448  .debug_str:0000000000012d8f .LASF985
C:\Users\SOLDER~1\AppData\Local\Temp\ccmjpsKj.s:22372  .debug_str:000000000000655b .LASF986
C:\Users\SOLDER~1\AppData\Local\Temp\ccmjpsKj.s:25980  .debug_str:000000000001516a .LASF987
C:\Users\SOLDER~1\AppData\Local\Temp\ccmjpsKj.s:31652  .debug_str:000000000002bf31 .LASF988
C:\Users\SOLDER~1\AppData\Local\Temp\ccmjpsKj.s:28130  .debug_str:000000000001db54 .LASF989
C:\Users\SOLDER~1\AppData\Local\Temp\ccmjpsKj.s:22252  .debug_str:0000000000005d6d .LASF990
C:\Users\SOLDER~1\AppData\Local\Temp\ccmjpsKj.s:23610  .debug_str:000000000000b698 .LASF991
C:\Users\SOLDER~1\AppData\Local\Temp\ccmjpsKj.s:26870  .debug_str:0000000000018a23 .LASF992
C:\Users\SOLDER~1\AppData\Local\Temp\ccmjpsKj.s:30748  .debug_str:0000000000028548 .LASF993
C:\Users\SOLDER~1\AppData\Local\Temp\ccmjpsKj.s:27942  .debug_str:000000000001cf1a .LASF994
C:\Users\SOLDER~1\AppData\Local\Temp\ccmjpsKj.s:26276  .debug_str:0000000000016408 .LASF995
C:\Users\SOLDER~1\AppData\Local\Temp\ccmjpsKj.s:24898  .debug_str:0000000000010a95 .LASF996
C:\Users\SOLDER~1\AppData\Local\Temp\ccmjpsKj.s:21726  .debug_str:0000000000003c8c .LASF997
C:\Users\SOLDER~1\AppData\Local\Temp\ccmjpsKj.s:23122  .debug_str:000000000000965b .LASF998
C:\Users\SOLDER~1\AppData\Local\Temp\ccmjpsKj.s:28926  .debug_str:0000000000020f0f .LASF999
C:\Users\SOLDER~1\AppData\Local\Temp\ccmjpsKj.s:32412  .debug_str:000000000002f054 .LASF1000
C:\Users\SOLDER~1\AppData\Local\Temp\ccmjpsKj.s:24430  .debug_str:000000000000ec4b .LASF1001
C:\Users\SOLDER~1\AppData\Local\Temp\ccmjpsKj.s:29944  .debug_str:0000000000025087 .LASF1002
C:\Users\SOLDER~1\AppData\Local\Temp\ccmjpsKj.s:31600  .debug_str:000000000002bc07 .LASF1003
C:\Users\SOLDER~1\AppData\Local\Temp\ccmjpsKj.s:27676  .debug_str:000000000001bd8c .LASF1004
C:\Users\SOLDER~1\AppData\Local\Temp\ccmjpsKj.s:27086  .debug_str:0000000000019844 .LASF1005
C:\Users\SOLDER~1\AppData\Local\Temp\ccmjpsKj.s:25272  .debug_str:000000000001225e .LASF1006
C:\Users\SOLDER~1\AppData\Local\Temp\ccmjpsKj.s:22532  .debug_str:0000000000007045 .LASF1007
C:\Users\SOLDER~1\AppData\Local\Temp\ccmjpsKj.s:22838  .debug_str:00000000000083e5 .LASF1008
C:\Users\SOLDER~1\AppData\Local\Temp\ccmjpsKj.s:29736  .debug_str:00000000000242c0 .LASF1009
C:\Users\SOLDER~1\AppData\Local\Temp\ccmjpsKj.s:32116  .debug_str:000000000002dd61 .LASF1010
C:\Users\SOLDER~1\AppData\Local\Temp\ccmjpsKj.s:25262  .debug_str:00000000000121c8 .LASF1011
C:\Users\SOLDER~1\AppData\Local\Temp\ccmjpsKj.s:30326  .debug_str:000000000002699d .LASF1012
C:\Users\SOLDER~1\AppData\Local\Temp\ccmjpsKj.s:32406  .debug_str:000000000002effb .LASF1013
C:\Users\SOLDER~1\AppData\Local\Temp\ccmjpsKj.s:30814  .debug_str:0000000000028979 .LASF1014
C:\Users\SOLDER~1\AppData\Local\Temp\ccmjpsKj.s:27858  .debug_str:000000000001c98d .LASF1015
C:\Users\SOLDER~1\AppData\Local\Temp\ccmjpsKj.s:28406  .debug_str:000000000001ed63 .LASF1016
C:\Users\SOLDER~1\AppData\Local\Temp\ccmjpsKj.s:23314  .debug_str:000000000000a314 .LASF1017
C:\Users\SOLDER~1\AppData\Local\Temp\ccmjpsKj.s:26024  .debug_str:000000000001542a .LASF1018
C:\Users\SOLDER~1\AppData\Local\Temp\ccmjpsKj.s:30464  .debug_str:00000000000272ee .LASF1019
C:\Users\SOLDER~1\AppData\Local\Temp\ccmjpsKj.s:23582  .debug_str:000000000000b4a3 .LASF1020
C:\Users\SOLDER~1\AppData\Local\Temp\ccmjpsKj.s:25236  .debug_str:0000000000012040 .LASF1021
C:\Users\SOLDER~1\AppData\Local\Temp\ccmjpsKj.s:27318  .debug_str:000000000001a6c8 .LASF1022
GAS LISTING C:\Users\SOLDER~1\AppData\Local\Temp\ccmjpsKj.s 			page 71


C:\Users\SOLDER~1\AppData\Local\Temp\ccmjpsKj.s:21534  .debug_str:0000000000003045 .LASF1023
C:\Users\SOLDER~1\AppData\Local\Temp\ccmjpsKj.s:30514  .debug_str:000000000002761e .LASF1024
C:\Users\SOLDER~1\AppData\Local\Temp\ccmjpsKj.s:29466  .debug_str:000000000002312c .LASF1025
C:\Users\SOLDER~1\AppData\Local\Temp\ccmjpsKj.s:28108  .debug_str:000000000001da01 .LASF1026
C:\Users\SOLDER~1\AppData\Local\Temp\ccmjpsKj.s:24142  .debug_str:000000000000d98a .LASF1027
C:\Users\SOLDER~1\AppData\Local\Temp\ccmjpsKj.s:25748  .debug_str:00000000000141ec .LASF1028
C:\Users\SOLDER~1\AppData\Local\Temp\ccmjpsKj.s:31302  .debug_str:000000000002a901 .LASF1029
C:\Users\SOLDER~1\AppData\Local\Temp\ccmjpsKj.s:23286  .debug_str:000000000000a136 .LASF1030
C:\Users\SOLDER~1\AppData\Local\Temp\ccmjpsKj.s:22878  .debug_str:0000000000008637 .LASF1031
C:\Users\SOLDER~1\AppData\Local\Temp\ccmjpsKj.s:20922  .debug_str:000000000000086f .LASF1032
C:\Users\SOLDER~1\AppData\Local\Temp\ccmjpsKj.s:22240  .debug_str:0000000000005c97 .LASF1033
C:\Users\SOLDER~1\AppData\Local\Temp\ccmjpsKj.s:22026  .debug_str:0000000000004f3c .LASF1034
C:\Users\SOLDER~1\AppData\Local\Temp\ccmjpsKj.s:29346  .debug_str:0000000000022970 .LASF1035
C:\Users\SOLDER~1\AppData\Local\Temp\ccmjpsKj.s:31284  .debug_str:000000000002a7d8 .LASF1036
C:\Users\SOLDER~1\AppData\Local\Temp\ccmjpsKj.s:24984  .debug_str:000000000001101d .LASF1037
C:\Users\SOLDER~1\AppData\Local\Temp\ccmjpsKj.s:28846  .debug_str:00000000000209e4 .LASF1038
C:\Users\SOLDER~1\AppData\Local\Temp\ccmjpsKj.s:29860  .debug_str:0000000000024aff .LASF1039
C:\Users\SOLDER~1\AppData\Local\Temp\ccmjpsKj.s:23178  .debug_str:0000000000009a18 .LASF1040
C:\Users\SOLDER~1\AppData\Local\Temp\ccmjpsKj.s:21948  .debug_str:0000000000004a63 .LASF1041
C:\Users\SOLDER~1\AppData\Local\Temp\ccmjpsKj.s:24838  .debug_str:00000000000106e1 .LASF1042
C:\Users\SOLDER~1\AppData\Local\Temp\ccmjpsKj.s:30944  .debug_str:00000000000291c6 .LASF1043
C:\Users\SOLDER~1\AppData\Local\Temp\ccmjpsKj.s:28648  .debug_str:000000000001fd37 .LASF1044
C:\Users\SOLDER~1\AppData\Local\Temp\ccmjpsKj.s:26190  .debug_str:0000000000015e80 .LASF1045
C:\Users\SOLDER~1\AppData\Local\Temp\ccmjpsKj.s:21734  .debug_str:0000000000003d07 .LASF1046
C:\Users\SOLDER~1\AppData\Local\Temp\ccmjpsKj.s:30358  .debug_str:0000000000026bdd .LASF1047
C:\Users\SOLDER~1\AppData\Local\Temp\ccmjpsKj.s:32212  .debug_str:000000000002e379 .LASF1048
C:\Users\SOLDER~1\AppData\Local\Temp\ccmjpsKj.s:26566  .debug_str:000000000001766a .LASF1049
C:\Users\SOLDER~1\AppData\Local\Temp\ccmjpsKj.s:25246  .debug_str:00000000000120cc .LASF1050
C:\Users\SOLDER~1\AppData\Local\Temp\ccmjpsKj.s:27934  .debug_str:000000000001cea7 .LASF1051
C:\Users\SOLDER~1\AppData\Local\Temp\ccmjpsKj.s:30346  .debug_str:0000000000026b16 .LASF1052
C:\Users\SOLDER~1\AppData\Local\Temp\ccmjpsKj.s:24416  .debug_str:000000000000eb79 .LASF1053
C:\Users\SOLDER~1\AppData\Local\Temp\ccmjpsKj.s:27756  .debug_str:000000000001c2ae .LASF1054
C:\Users\SOLDER~1\AppData\Local\Temp\ccmjpsKj.s:22032  .debug_str:0000000000004f93 .LASF1055
C:\Users\SOLDER~1\AppData\Local\Temp\ccmjpsKj.s:29036  .debug_str:0000000000021644 .LASF1056
C:\Users\SOLDER~1\AppData\Local\Temp\ccmjpsKj.s:29124  .debug_str:0000000000021b9d .LASF1057
C:\Users\SOLDER~1\AppData\Local\Temp\ccmjpsKj.s:28090  .debug_str:000000000001d8ee .LASF1058
C:\Users\SOLDER~1\AppData\Local\Temp\ccmjpsKj.s:31148  .debug_str:0000000000029eb8 .LASF1059
C:\Users\SOLDER~1\AppData\Local\Temp\ccmjpsKj.s:29046  .debug_str:00000000000216cb .LASF1060
C:\Users\SOLDER~1\AppData\Local\Temp\ccmjpsKj.s:28806  .debug_str:0000000000020748 .LASF1061
C:\Users\SOLDER~1\AppData\Local\Temp\ccmjpsKj.s:32060  .debug_str:000000000002d9bb .LASF1062
C:\Users\SOLDER~1\AppData\Local\Temp\ccmjpsKj.s:22394  .debug_str:00000000000066f1 .LASF1063
C:\Users\SOLDER~1\AppData\Local\Temp\ccmjpsKj.s:24742  .debug_str:00000000000100b5 .LASF1064
C:\Users\SOLDER~1\AppData\Local\Temp\ccmjpsKj.s:29458  .debug_str:00000000000230a9 .LASF1065
C:\Users\SOLDER~1\AppData\Local\Temp\ccmjpsKj.s:29482  .debug_str:0000000000023208 .LASF1066
C:\Users\SOLDER~1\AppData\Local\Temp\ccmjpsKj.s:24144  .debug_str:000000000000d9a1 .LASF1067
C:\Users\SOLDER~1\AppData\Local\Temp\ccmjpsKj.s:23266  .debug_str:0000000000009fe0 .LASF1068
C:\Users\SOLDER~1\AppData\Local\Temp\ccmjpsKj.s:24978  .debug_str:0000000000010fb2 .LASF1069
C:\Users\SOLDER~1\AppData\Local\Temp\ccmjpsKj.s:29330  .debug_str:0000000000022859 .LASF1070
C:\Users\SOLDER~1\AppData\Local\Temp\ccmjpsKj.s:28006  .debug_str:000000000001d348 .LASF1071
C:\Users\SOLDER~1\AppData\Local\Temp\ccmjpsKj.s:24958  .debug_str:0000000000010e5a .LASF1072
C:\Users\SOLDER~1\AppData\Local\Temp\ccmjpsKj.s:29580  .debug_str:00000000000238c4 .LASF1073
C:\Users\SOLDER~1\AppData\Local\Temp\ccmjpsKj.s:20940  .debug_str:00000000000009dc .LASF1074
C:\Users\SOLDER~1\AppData\Local\Temp\ccmjpsKj.s:27272  .debug_str:000000000001a3d0 .LASF1075
C:\Users\SOLDER~1\AppData\Local\Temp\ccmjpsKj.s:25768  .debug_str:0000000000014329 .LASF1076
C:\Users\SOLDER~1\AppData\Local\Temp\ccmjpsKj.s:23940  .debug_str:000000000000cc56 .LASF1077
C:\Users\SOLDER~1\AppData\Local\Temp\ccmjpsKj.s:21396  .debug_str:000000000000277b .LASF1078
C:\Users\SOLDER~1\AppData\Local\Temp\ccmjpsKj.s:30042  .debug_str:00000000000256be .LASF1079
GAS LISTING C:\Users\SOLDER~1\AppData\Local\Temp\ccmjpsKj.s 			page 72


C:\Users\SOLDER~1\AppData\Local\Temp\ccmjpsKj.s:22996  .debug_str:0000000000008e04 .LASF1080
C:\Users\SOLDER~1\AppData\Local\Temp\ccmjpsKj.s:25422  .debug_str:0000000000012bb6 .LASF1081
C:\Users\SOLDER~1\AppData\Local\Temp\ccmjpsKj.s:28882  .debug_str:0000000000020c25 .LASF1082
C:\Users\SOLDER~1\AppData\Local\Temp\ccmjpsKj.s:28340  .debug_str:000000000001e8d1 .LASF1083
C:\Users\SOLDER~1\AppData\Local\Temp\ccmjpsKj.s:26268  .debug_str:000000000001637d .LASF1084
C:\Users\SOLDER~1\AppData\Local\Temp\ccmjpsKj.s:22244  .debug_str:0000000000005cd3 .LASF1085
C:\Users\SOLDER~1\AppData\Local\Temp\ccmjpsKj.s:29442  .debug_str:0000000000022f9a .LASF1086
C:\Users\SOLDER~1\AppData\Local\Temp\ccmjpsKj.s:31226  .debug_str:000000000002a3f7 .LASF1087
C:\Users\SOLDER~1\AppData\Local\Temp\ccmjpsKj.s:29028  .debug_str:00000000000215be .LASF1088
C:\Users\SOLDER~1\AppData\Local\Temp\ccmjpsKj.s:22214  .debug_str:0000000000005af7 .LASF1089
C:\Users\SOLDER~1\AppData\Local\Temp\ccmjpsKj.s:30368  .debug_str:0000000000026c76 .LASF1090
C:\Users\SOLDER~1\AppData\Local\Temp\ccmjpsKj.s:28176  .debug_str:000000000001de25 .LASF1091
C:\Users\SOLDER~1\AppData\Local\Temp\ccmjpsKj.s:22572  .debug_str:00000000000072d7 .LASF1092
C:\Users\SOLDER~1\AppData\Local\Temp\ccmjpsKj.s:26718  .debug_str:0000000000018021 .LASF1093
C:\Users\SOLDER~1\AppData\Local\Temp\ccmjpsKj.s:24110  .debug_str:000000000000d770 .LASF1094
C:\Users\SOLDER~1\AppData\Local\Temp\ccmjpsKj.s:21152  .debug_str:00000000000017c4 .LASF1095
C:\Users\SOLDER~1\AppData\Local\Temp\ccmjpsKj.s:22302  .debug_str:000000000000608a .LASF1096
C:\Users\SOLDER~1\AppData\Local\Temp\ccmjpsKj.s:29464  .debug_str:0000000000023105 .LASF1097
C:\Users\SOLDER~1\AppData\Local\Temp\ccmjpsKj.s:28752  .debug_str:00000000000203b5 .LASF1098
C:\Users\SOLDER~1\AppData\Local\Temp\ccmjpsKj.s:22534  .debug_str:000000000000705c .LASF1099
C:\Users\SOLDER~1\AppData\Local\Temp\ccmjpsKj.s:26034  .debug_str:00000000000154ee .LASF1100
C:\Users\SOLDER~1\AppData\Local\Temp\ccmjpsKj.s:29716  .debug_str:0000000000024164 .LASF1101
C:\Users\SOLDER~1\AppData\Local\Temp\ccmjpsKj.s:31428  .debug_str:000000000002b0e4 .LASF1102
C:\Users\SOLDER~1\AppData\Local\Temp\ccmjpsKj.s:21008  .debug_str:0000000000000e95 .LASF1103
C:\Users\SOLDER~1\AppData\Local\Temp\ccmjpsKj.s:21120  .debug_str:00000000000015b4 .LASF1104
C:\Users\SOLDER~1\AppData\Local\Temp\ccmjpsKj.s:28680  .debug_str:000000000001ff36 .LASF1105
C:\Users\SOLDER~1\AppData\Local\Temp\ccmjpsKj.s:22190  .debug_str:000000000000594a .LASF1106
C:\Users\SOLDER~1\AppData\Local\Temp\ccmjpsKj.s:23738  .debug_str:000000000000be4c .LASF1107
C:\Users\SOLDER~1\AppData\Local\Temp\ccmjpsKj.s:21190  .debug_str:00000000000019fe .LASF1108
C:\Users\SOLDER~1\AppData\Local\Temp\ccmjpsKj.s:28766  .debug_str:0000000000020499 .LASF1109
C:\Users\SOLDER~1\AppData\Local\Temp\ccmjpsKj.s:22276  .debug_str:0000000000005edc .LASF1110
C:\Users\SOLDER~1\AppData\Local\Temp\ccmjpsKj.s:22780  .debug_str:0000000000008028 .LASF1111
C:\Users\SOLDER~1\AppData\Local\Temp\ccmjpsKj.s:23688  .debug_str:000000000000bb07 .LASF1112
C:\Users\SOLDER~1\AppData\Local\Temp\ccmjpsKj.s:23710  .debug_str:000000000000bc9b .LASF1113
C:\Users\SOLDER~1\AppData\Local\Temp\ccmjpsKj.s:30716  .debug_str:0000000000028326 .LASF1114
C:\Users\SOLDER~1\AppData\Local\Temp\ccmjpsKj.s:22920  .debug_str:00000000000088de .LASF1115
C:\Users\SOLDER~1\AppData\Local\Temp\ccmjpsKj.s:30432  .debug_str:0000000000027098 .LASF1116
C:\Users\SOLDER~1\AppData\Local\Temp\ccmjpsKj.s:31910  .debug_str:000000000002cff2 .LASF1117
C:\Users\SOLDER~1\AppData\Local\Temp\ccmjpsKj.s:31392  .debug_str:000000000002ae9b .LASF1118
C:\Users\SOLDER~1\AppData\Local\Temp\ccmjpsKj.s:25688  .debug_str:0000000000013db1 .LASF1119
C:\Users\SOLDER~1\AppData\Local\Temp\ccmjpsKj.s:21950  .debug_str:0000000000004a74 .LASF1120
C:\Users\SOLDER~1\AppData\Local\Temp\ccmjpsKj.s:28222  .debug_str:000000000001e164 .LASF1121
C:\Users\SOLDER~1\AppData\Local\Temp\ccmjpsKj.s:23036  .debug_str:00000000000090bf .LASF1122
C:\Users\SOLDER~1\AppData\Local\Temp\ccmjpsKj.s:31566  .debug_str:000000000002b9da .LASF1123
C:\Users\SOLDER~1\AppData\Local\Temp\ccmjpsKj.s:25930  .debug_str:0000000000014e23 .LASF1124
C:\Users\SOLDER~1\AppData\Local\Temp\ccmjpsKj.s:23596  .debug_str:000000000000b5b0 .LASF1125
C:\Users\SOLDER~1\AppData\Local\Temp\ccmjpsKj.s:32092  .debug_str:000000000002dbe6 .LASF1126
C:\Users\SOLDER~1\AppData\Local\Temp\ccmjpsKj.s:30178  .debug_str:0000000000025f85 .LASF1127
C:\Users\SOLDER~1\AppData\Local\Temp\ccmjpsKj.s:29224  .debug_str:00000000000221cb .LASF1128
C:\Users\SOLDER~1\AppData\Local\Temp\ccmjpsKj.s:26898  .debug_str:0000000000018bd4 .LASF1129
C:\Users\SOLDER~1\AppData\Local\Temp\ccmjpsKj.s:27500  .debug_str:000000000001b2bc .LASF1130
C:\Users\SOLDER~1\AppData\Local\Temp\ccmjpsKj.s:22932  .debug_str:00000000000089d1 .LASF1131
C:\Users\SOLDER~1\AppData\Local\Temp\ccmjpsKj.s:28524  .debug_str:000000000001f51f .LASF1132
C:\Users\SOLDER~1\AppData\Local\Temp\ccmjpsKj.s:23514  .debug_str:000000000000b05a .LASF1133
C:\Users\SOLDER~1\AppData\Local\Temp\ccmjpsKj.s:26552  .debug_str:000000000001757c .LASF1134
C:\Users\SOLDER~1\AppData\Local\Temp\ccmjpsKj.s:25928  .debug_str:0000000000014dfe .LASF1135
C:\Users\SOLDER~1\AppData\Local\Temp\ccmjpsKj.s:26562  .debug_str:0000000000017624 .LASF1136
GAS LISTING C:\Users\SOLDER~1\AppData\Local\Temp\ccmjpsKj.s 			page 73


C:\Users\SOLDER~1\AppData\Local\Temp\ccmjpsKj.s:30618  .debug_str:0000000000027cbb .LASF1137
C:\Users\SOLDER~1\AppData\Local\Temp\ccmjpsKj.s:28462  .debug_str:000000000001f0e9 .LASF1138
C:\Users\SOLDER~1\AppData\Local\Temp\ccmjpsKj.s:29778  .debug_str:000000000002458f .LASF1139
C:\Users\SOLDER~1\AppData\Local\Temp\ccmjpsKj.s:21342  .debug_str:00000000000023f1 .LASF1140
C:\Users\SOLDER~1\AppData\Local\Temp\ccmjpsKj.s:30224  .debug_str:00000000000262c8 .LASF1141
C:\Users\SOLDER~1\AppData\Local\Temp\ccmjpsKj.s:29340  .debug_str:0000000000022910 .LASF1142
C:\Users\SOLDER~1\AppData\Local\Temp\ccmjpsKj.s:27864  .debug_str:000000000001c9e6 .LASF1143
C:\Users\SOLDER~1\AppData\Local\Temp\ccmjpsKj.s:31660  .debug_str:000000000002bfbe .LASF1144
C:\Users\SOLDER~1\AppData\Local\Temp\ccmjpsKj.s:28358  .debug_str:000000000001ea1f .LASF1145
C:\Users\SOLDER~1\AppData\Local\Temp\ccmjpsKj.s:28114  .debug_str:000000000001da6d .LASF1146
C:\Users\SOLDER~1\AppData\Local\Temp\ccmjpsKj.s:26440  .debug_str:0000000000016e27 .LASF1147
C:\Users\SOLDER~1\AppData\Local\Temp\ccmjpsKj.s:31776  .debug_str:000000000002c7a0 .LASF1148
C:\Users\SOLDER~1\AppData\Local\Temp\ccmjpsKj.s:23786  .debug_str:000000000000c173 .LASF1149
C:\Users\SOLDER~1\AppData\Local\Temp\ccmjpsKj.s:26166  .debug_str:0000000000015d06 .LASF1150
C:\Users\SOLDER~1\AppData\Local\Temp\ccmjpsKj.s:27916  .debug_str:000000000001cd5d .LASF1151
C:\Users\SOLDER~1\AppData\Local\Temp\ccmjpsKj.s:24972  .debug_str:0000000000010f42 .LASF1152
C:\Users\SOLDER~1\AppData\Local\Temp\ccmjpsKj.s:30524  .debug_str:00000000000276b3 .LASF1153
C:\Users\SOLDER~1\AppData\Local\Temp\ccmjpsKj.s:26806  .debug_str:0000000000018600 .LASF1154
C:\Users\SOLDER~1\AppData\Local\Temp\ccmjpsKj.s:21236  .debug_str:0000000000001d23 .LASF1155
C:\Users\SOLDER~1\AppData\Local\Temp\ccmjpsKj.s:25698  .debug_str:0000000000013e83 .LASF1156
C:\Users\SOLDER~1\AppData\Local\Temp\ccmjpsKj.s:28796  .debug_str:000000000002068d .LASF1157
C:\Users\SOLDER~1\AppData\Local\Temp\ccmjpsKj.s:32202  .debug_str:000000000002e2ec .LASF1158
C:\Users\SOLDER~1\AppData\Local\Temp\ccmjpsKj.s:32210  .debug_str:000000000002e352 .LASF1159
C:\Users\SOLDER~1\AppData\Local\Temp\ccmjpsKj.s:30776  .debug_str:000000000002870a .LASF1160
C:\Users\SOLDER~1\AppData\Local\Temp\ccmjpsKj.s:27052  .debug_str:00000000000195e0 .LASF1161
C:\Users\SOLDER~1\AppData\Local\Temp\ccmjpsKj.s:26832  .debug_str:000000000001879a .LASF1162
C:\Users\SOLDER~1\AppData\Local\Temp\ccmjpsKj.s:30604  .debug_str:0000000000027be5 .LASF1163
C:\Users\SOLDER~1\AppData\Local\Temp\ccmjpsKj.s:25030  .debug_str:00000000000112ff .LASF1164
C:\Users\SOLDER~1\AppData\Local\Temp\ccmjpsKj.s:30542  .debug_str:00000000000277e1 .LASF1165
C:\Users\SOLDER~1\AppData\Local\Temp\ccmjpsKj.s:32264  .debug_str:000000000002e6ae .LASF1166
C:\Users\SOLDER~1\AppData\Local\Temp\ccmjpsKj.s:28586  .debug_str:000000000001f969 .LASF1167
C:\Users\SOLDER~1\AppData\Local\Temp\ccmjpsKj.s:25564  .debug_str:0000000000013529 .LASF1168
C:\Users\SOLDER~1\AppData\Local\Temp\ccmjpsKj.s:31098  .debug_str:0000000000029b8e .LASF1169
C:\Users\SOLDER~1\AppData\Local\Temp\ccmjpsKj.s:22972  .debug_str:0000000000008c38 .LASF1170
C:\Users\SOLDER~1\AppData\Local\Temp\ccmjpsKj.s:29080  .debug_str:0000000000021904 .LASF1171
C:\Users\SOLDER~1\AppData\Local\Temp\ccmjpsKj.s:29942  .debug_str:0000000000025060 .LASF1172
C:\Users\SOLDER~1\AppData\Local\Temp\ccmjpsKj.s:28412  .debug_str:000000000001edc3 .LASF1173
C:\Users\SOLDER~1\AppData\Local\Temp\ccmjpsKj.s:26818  .debug_str:00000000000186c6 .LASF1174
C:\Users\SOLDER~1\AppData\Local\Temp\ccmjpsKj.s:24766  .debug_str:0000000000010234 .LASF1175
C:\Users\SOLDER~1\AppData\Local\Temp\ccmjpsKj.s:28616  .debug_str:000000000001fb60 .LASF1176
C:\Users\SOLDER~1\AppData\Local\Temp\ccmjpsKj.s:25702  .debug_str:0000000000013ecf .LASF1177
C:\Users\SOLDER~1\AppData\Local\Temp\ccmjpsKj.s:25442  .debug_str:0000000000012d1e .LASF1178
C:\Users\SOLDER~1\AppData\Local\Temp\ccmjpsKj.s:23256  .debug_str:0000000000009f34 .LASF1179
C:\Users\SOLDER~1\AppData\Local\Temp\ccmjpsKj.s:24648  .debug_str:000000000000fa14 .LASF1180
C:\Users\SOLDER~1\AppData\Local\Temp\ccmjpsKj.s:26746  .debug_str:00000000000181fa .LASF1181
C:\Users\SOLDER~1\AppData\Local\Temp\ccmjpsKj.s:30218  .debug_str:000000000002625f .LASF1182
C:\Users\SOLDER~1\AppData\Local\Temp\ccmjpsKj.s:24830  .debug_str:000000000001064a .LASF1183
C:\Users\SOLDER~1\AppData\Local\Temp\ccmjpsKj.s:30442  .debug_str:0000000000027147 .LASF1184
C:\Users\SOLDER~1\AppData\Local\Temp\ccmjpsKj.s:27328  .debug_str:000000000001a76c .LASF1185
C:\Users\SOLDER~1\AppData\Local\Temp\ccmjpsKj.s:30866  .debug_str:0000000000028ceb .LASF1186
C:\Users\SOLDER~1\AppData\Local\Temp\ccmjpsKj.s:25352  .debug_str:0000000000012737 .LASF1187
C:\Users\SOLDER~1\AppData\Local\Temp\ccmjpsKj.s:23348  .debug_str:000000000000a558 .LASF1188
C:\Users\SOLDER~1\AppData\Local\Temp\ccmjpsKj.s:22682  .debug_str:00000000000079b4 .LASF1189
C:\Users\SOLDER~1\AppData\Local\Temp\ccmjpsKj.s:21272  .debug_str:0000000000001f62 .LASF1190
C:\Users\SOLDER~1\AppData\Local\Temp\ccmjpsKj.s:25074  .debug_str:00000000000115d0 .LASF1191
C:\Users\SOLDER~1\AppData\Local\Temp\ccmjpsKj.s:21766  .debug_str:0000000000003f19 .LASF1192
C:\Users\SOLDER~1\AppData\Local\Temp\ccmjpsKj.s:32414  .debug_str:000000000002f075 .LASF1193
GAS LISTING C:\Users\SOLDER~1\AppData\Local\Temp\ccmjpsKj.s 			page 74


C:\Users\SOLDER~1\AppData\Local\Temp\ccmjpsKj.s:27364  .debug_str:000000000001a9b9 .LASF1194
C:\Users\SOLDER~1\AppData\Local\Temp\ccmjpsKj.s:22522  .debug_str:0000000000006f9a .LASF1195
C:\Users\SOLDER~1\AppData\Local\Temp\ccmjpsKj.s:28058  .debug_str:000000000001d6f9 .LASF1196
C:\Users\SOLDER~1\AppData\Local\Temp\ccmjpsKj.s:31650  .debug_str:000000000002bf08 .LASF1197
C:\Users\SOLDER~1\AppData\Local\Temp\ccmjpsKj.s:26132  .debug_str:0000000000015ad1 .LASF1198
C:\Users\SOLDER~1\AppData\Local\Temp\ccmjpsKj.s:23140  .debug_str:0000000000009786 .LASF1199
C:\Users\SOLDER~1\AppData\Local\Temp\ccmjpsKj.s:28608  .debug_str:000000000001facd .LASF1200
C:\Users\SOLDER~1\AppData\Local\Temp\ccmjpsKj.s:32194  .debug_str:000000000002e261 .LASF1201
C:\Users\SOLDER~1\AppData\Local\Temp\ccmjpsKj.s:26776  .debug_str:0000000000018420 .LASF1202
C:\Users\SOLDER~1\AppData\Local\Temp\ccmjpsKj.s:22094  .debug_str:000000000000532c .LASF1203
C:\Users\SOLDER~1\AppData\Local\Temp\ccmjpsKj.s:21328  .debug_str:00000000000022fc .LASF1204
C:\Users\SOLDER~1\AppData\Local\Temp\ccmjpsKj.s:25518  .debug_str:000000000001321c .LASF1205
C:\Users\SOLDER~1\AppData\Local\Temp\ccmjpsKj.s:29328  .debug_str:0000000000022832 .LASF1206
C:\Users\SOLDER~1\AppData\Local\Temp\ccmjpsKj.s:32104  .debug_str:000000000002dca9 .LASF1207
C:\Users\SOLDER~1\AppData\Local\Temp\ccmjpsKj.s:31044  .debug_str:0000000000029849 .LASF1208
C:\Users\SOLDER~1\AppData\Local\Temp\ccmjpsKj.s:31598  .debug_str:000000000002bbdf .LASF1209
C:\Users\SOLDER~1\AppData\Local\Temp\ccmjpsKj.s:30390  .debug_str:0000000000026e11 .LASF1210
C:\Users\SOLDER~1\AppData\Local\Temp\ccmjpsKj.s:24292  .debug_str:000000000000e352 .LASF1211
C:\Users\SOLDER~1\AppData\Local\Temp\ccmjpsKj.s:27764  .debug_str:000000000001c322 .LASF1212
C:\Users\SOLDER~1\AppData\Local\Temp\ccmjpsKj.s:22324  .debug_str:000000000000622d .LASF1213
C:\Users\SOLDER~1\AppData\Local\Temp\ccmjpsKj.s:31468  .debug_str:000000000002b357 .LASF1214
C:\Users\SOLDER~1\AppData\Local\Temp\ccmjpsKj.s:22184  .debug_str:00000000000058e5 .LASF1215
C:\Users\SOLDER~1\AppData\Local\Temp\ccmjpsKj.s:28384  .debug_str:000000000001ebe2 .LASF1216
C:\Users\SOLDER~1\AppData\Local\Temp\ccmjpsKj.s:22946  .debug_str:0000000000008aab .LASF1217
C:\Users\SOLDER~1\AppData\Local\Temp\ccmjpsKj.s:21550  .debug_str:0000000000003128 .LASF1218
C:\Users\SOLDER~1\AppData\Local\Temp\ccmjpsKj.s:29622  .debug_str:0000000000023b83 .LASF1219
C:\Users\SOLDER~1\AppData\Local\Temp\ccmjpsKj.s:29334  .debug_str:0000000000022892 .LASF1220
C:\Users\SOLDER~1\AppData\Local\Temp\ccmjpsKj.s:28786  .debug_str:00000000000205e2 .LASF1221
C:\Users\SOLDER~1\AppData\Local\Temp\ccmjpsKj.s:25412  .debug_str:0000000000012b1b .LASF1222
C:\Users\SOLDER~1\AppData\Local\Temp\ccmjpsKj.s:22182  .debug_str:00000000000058c2 .LASF1223
C:\Users\SOLDER~1\AppData\Local\Temp\ccmjpsKj.s:23628  .debug_str:000000000000b7a2 .LASF1224
C:\Users\SOLDER~1\AppData\Local\Temp\ccmjpsKj.s:27062  .debug_str:000000000001969a .LASF1225
C:\Users\SOLDER~1\AppData\Local\Temp\ccmjpsKj.s:24558  .debug_str:000000000000f42d .LASF1226
C:\Users\SOLDER~1\AppData\Local\Temp\ccmjpsKj.s:29762  .debug_str:0000000000024475 .LASF1227
C:\Users\SOLDER~1\AppData\Local\Temp\ccmjpsKj.s:23498  .debug_str:000000000000af53 .LASF1228
C:\Users\SOLDER~1\AppData\Local\Temp\ccmjpsKj.s:24602  .debug_str:000000000000f710 .LASF1229
C:\Users\SOLDER~1\AppData\Local\Temp\ccmjpsKj.s:30606  .debug_str:0000000000027c0d .LASF1230
C:\Users\SOLDER~1\AppData\Local\Temp\ccmjpsKj.s:25602  .debug_str:0000000000013798 .LASF1231
C:\Users\SOLDER~1\AppData\Local\Temp\ccmjpsKj.s:26756  .debug_str:00000000000182c3 .LASF1232
C:\Users\SOLDER~1\AppData\Local\Temp\ccmjpsKj.s:24930  .debug_str:0000000000010cb7 .LASF1233
C:\Users\SOLDER~1\AppData\Local\Temp\ccmjpsKj.s:22472  .debug_str:0000000000006c18 .LASF1234
C:\Users\SOLDER~1\AppData\Local\Temp\ccmjpsKj.s:25654  .debug_str:0000000000013b2d .LASF1235
C:\Users\SOLDER~1\AppData\Local\Temp\ccmjpsKj.s:22112  .debug_str:000000000000543a .LASF1236
C:\Users\SOLDER~1\AppData\Local\Temp\ccmjpsKj.s:30362  .debug_str:0000000000026c13 .LASF1237
C:\Users\SOLDER~1\AppData\Local\Temp\ccmjpsKj.s:27202  .debug_str:0000000000019f6d .LASF1238
C:\Users\SOLDER~1\AppData\Local\Temp\ccmjpsKj.s:24326  .debug_str:000000000000e597 .LASF1239
C:\Users\SOLDER~1\AppData\Local\Temp\ccmjpsKj.s:32024  .debug_str:000000000002d7a3 .LASF1240
C:\Users\SOLDER~1\AppData\Local\Temp\ccmjpsKj.s:29502  .debug_str:0000000000023365 .LASF1241
C:\Users\SOLDER~1\AppData\Local\Temp\ccmjpsKj.s:28168  .debug_str:000000000001ddb0 .LASF1242
C:\Users\SOLDER~1\AppData\Local\Temp\ccmjpsKj.s:28400  .debug_str:000000000001ed03 .LASF1243
C:\Users\SOLDER~1\AppData\Local\Temp\ccmjpsKj.s:21532  .debug_str:0000000000003022 .LASF1244
C:\Users\SOLDER~1\AppData\Local\Temp\ccmjpsKj.s:24278  .debug_str:000000000000e254 .LASF1245
C:\Users\SOLDER~1\AppData\Local\Temp\ccmjpsKj.s:30890  .debug_str:0000000000028e7b .LASF1246
C:\Users\SOLDER~1\AppData\Local\Temp\ccmjpsKj.s:30420  .debug_str:0000000000026ff1 .LASF1247
C:\Users\SOLDER~1\AppData\Local\Temp\ccmjpsKj.s:30194  .debug_str:00000000000260a0 .LASF1248
C:\Users\SOLDER~1\AppData\Local\Temp\ccmjpsKj.s:30234  .debug_str:000000000002636d .LASF1249
C:\Users\SOLDER~1\AppData\Local\Temp\ccmjpsKj.s:23858  .debug_str:000000000000c6a7 .LASF1250
GAS LISTING C:\Users\SOLDER~1\AppData\Local\Temp\ccmjpsKj.s 			page 75


C:\Users\SOLDER~1\AppData\Local\Temp\ccmjpsKj.s:32046  .debug_str:000000000002d8cf .LASF1251
C:\Users\SOLDER~1\AppData\Local\Temp\ccmjpsKj.s:28626  .debug_str:000000000001fbe0 .LASF1252
C:\Users\SOLDER~1\AppData\Local\Temp\ccmjpsKj.s:25430  .debug_str:0000000000012c3a .LASF1253
C:\Users\SOLDER~1\AppData\Local\Temp\ccmjpsKj.s:27470  .debug_str:000000000001b0e3 .LASF1254
C:\Users\SOLDER~1\AppData\Local\Temp\ccmjpsKj.s:30228  .debug_str:0000000000026302 .LASF1255
C:\Users\SOLDER~1\AppData\Local\Temp\ccmjpsKj.s:27782  .debug_str:000000000001c46f .LASF1256
C:\Users\SOLDER~1\AppData\Local\Temp\ccmjpsKj.s:26474  .debug_str:0000000000017009 .LASF1257
C:\Users\SOLDER~1\AppData\Local\Temp\ccmjpsKj.s:26788  .debug_str:00000000000184f1 .LASF1258
C:\Users\SOLDER~1\AppData\Local\Temp\ccmjpsKj.s:31446  .debug_str:000000000002b1e8 .LASF1259
C:\Users\SOLDER~1\AppData\Local\Temp\ccmjpsKj.s:24840  .debug_str:00000000000106fc .LASF1260
C:\Users\SOLDER~1\AppData\Local\Temp\ccmjpsKj.s:30244  .debug_str:000000000002641e .LASF1261
C:\Users\SOLDER~1\AppData\Local\Temp\ccmjpsKj.s:22918  .debug_str:00000000000088b9 .LASF1262
C:\Users\SOLDER~1\AppData\Local\Temp\ccmjpsKj.s:29474  .debug_str:0000000000023195 .LASF1263
C:\Users\SOLDER~1\AppData\Local\Temp\ccmjpsKj.s:27270  .debug_str:000000000001a3b0 .LASF1264
C:\Users\SOLDER~1\AppData\Local\Temp\ccmjpsKj.s:29438  .debug_str:0000000000022f68 .LASF1265
C:\Users\SOLDER~1\AppData\Local\Temp\ccmjpsKj.s:26000  .debug_str:0000000000015299 .LASF1266
C:\Users\SOLDER~1\AppData\Local\Temp\ccmjpsKj.s:22576  .debug_str:0000000000007322 .LASF1267
C:\Users\SOLDER~1\AppData\Local\Temp\ccmjpsKj.s:31032  .debug_str:000000000002976f .LASF1268
C:\Users\SOLDER~1\AppData\Local\Temp\ccmjpsKj.s:21398  .debug_str:000000000000279b .LASF1269
C:\Users\SOLDER~1\AppData\Local\Temp\ccmjpsKj.s:24190  .debug_str:000000000000dc35 .LASF1270
C:\Users\SOLDER~1\AppData\Local\Temp\ccmjpsKj.s:21728  .debug_str:0000000000003ca3 .LASF1271
C:\Users\SOLDER~1\AppData\Local\Temp\ccmjpsKj.s:29796  .debug_str:00000000000246be .LASF1272
C:\Users\SOLDER~1\AppData\Local\Temp\ccmjpsKj.s:32378  .debug_str:000000000002ee3e .LASF1273
C:\Users\SOLDER~1\AppData\Local\Temp\ccmjpsKj.s:25490  .debug_str:0000000000013054 .LASF1274
C:\Users\SOLDER~1\AppData\Local\Temp\ccmjpsKj.s:27344  .debug_str:000000000001a85f .LASF1275
C:\Users\SOLDER~1\AppData\Local\Temp\ccmjpsKj.s:22342  .debug_str:0000000000006365 .LASF1276
C:\Users\SOLDER~1\AppData\Local\Temp\ccmjpsKj.s:23462  .debug_str:000000000000acdd .LASF1277
C:\Users\SOLDER~1\AppData\Local\Temp\ccmjpsKj.s:21678  .debug_str:000000000000396d .LASF1278
C:\Users\SOLDER~1\AppData\Local\Temp\ccmjpsKj.s:21200  .debug_str:0000000000001aa1 .LASF1279
C:\Users\SOLDER~1\AppData\Local\Temp\ccmjpsKj.s:22602  .debug_str:00000000000074cd .LASF1280
C:\Users\SOLDER~1\AppData\Local\Temp\ccmjpsKj.s:21800  .debug_str:000000000000410f .LASF1281
C:\Users\SOLDER~1\AppData\Local\Temp\ccmjpsKj.s:25176  .debug_str:0000000000011c6e .LASF1282
C:\Users\SOLDER~1\AppData\Local\Temp\ccmjpsKj.s:31296  .debug_str:000000000002a89e .LASF1283
C:\Users\SOLDER~1\AppData\Local\Temp\ccmjpsKj.s:26418  .debug_str:0000000000016cd0 .LASF1284
C:\Users\SOLDER~1\AppData\Local\Temp\ccmjpsKj.s:24226  .debug_str:000000000000dea8 .LASF1285
C:\Users\SOLDER~1\AppData\Local\Temp\ccmjpsKj.s:20832  .debug_str:0000000000000218 .LASF1286
C:\Users\SOLDER~1\AppData\Local\Temp\ccmjpsKj.s:30682  .debug_str:0000000000028102 .LASF1287
C:\Users\SOLDER~1\AppData\Local\Temp\ccmjpsKj.s:25736  .debug_str:000000000001411e .LASF1288
C:\Users\SOLDER~1\AppData\Local\Temp\ccmjpsKj.s:31678  .debug_str:000000000002c0dd .LASF1289
C:\Users\SOLDER~1\AppData\Local\Temp\ccmjpsKj.s:24542  .debug_str:000000000000f320 .LASF1290
C:\Users\SOLDER~1\AppData\Local\Temp\ccmjpsKj.s:23574  .debug_str:000000000000b410 .LASF1291
C:\Users\SOLDER~1\AppData\Local\Temp\ccmjpsKj.s:31290  .debug_str:000000000002a83b .LASF1292
C:\Users\SOLDER~1\AppData\Local\Temp\ccmjpsKj.s:29174  .debug_str:0000000000021ea5 .LASF1293
C:\Users\SOLDER~1\AppData\Local\Temp\ccmjpsKj.s:30706  .debug_str:0000000000028273 .LASF1294
C:\Users\SOLDER~1\AppData\Local\Temp\ccmjpsKj.s:26050  .debug_str:00000000000155ed .LASF1295
C:\Users\SOLDER~1\AppData\Local\Temp\ccmjpsKj.s:23924  .debug_str:000000000000cb3a .LASF1296
C:\Users\SOLDER~1\AppData\Local\Temp\ccmjpsKj.s:32168  .debug_str:000000000002e0ad .LASF1297
C:\Users\SOLDER~1\AppData\Local\Temp\ccmjpsKj.s:22774  .debug_str:0000000000007fb8 .LASF1298
C:\Users\SOLDER~1\AppData\Local\Temp\ccmjpsKj.s:24198  .debug_str:000000000000dcbb .LASF1299
C:\Users\SOLDER~1\AppData\Local\Temp\ccmjpsKj.s:31554  .debug_str:000000000002b8ed .LASF1300
C:\Users\SOLDER~1\AppData\Local\Temp\ccmjpsKj.s:25986  .debug_str:00000000000151c1 .LASF1301
C:\Users\SOLDER~1\AppData\Local\Temp\ccmjpsKj.s:24034  .debug_str:000000000000d272 .LASF1302
C:\Users\SOLDER~1\AppData\Local\Temp\ccmjpsKj.s:29486  .debug_str:0000000000023255 .LASF1303
C:\Users\SOLDER~1\AppData\Local\Temp\ccmjpsKj.s:24986  .debug_str:0000000000011034 .LASF1304
C:\Users\SOLDER~1\AppData\Local\Temp\ccmjpsKj.s:27820  .debug_str:000000000001c6e9 .LASF1305
C:\Users\SOLDER~1\AppData\Local\Temp\ccmjpsKj.s:23246  .debug_str:0000000000009e7f .LASF1306
C:\Users\SOLDER~1\AppData\Local\Temp\ccmjpsKj.s:31722  .debug_str:000000000002c414 .LASF1307
GAS LISTING C:\Users\SOLDER~1\AppData\Local\Temp\ccmjpsKj.s 			page 76


C:\Users\SOLDER~1\AppData\Local\Temp\ccmjpsKj.s:30788  .debug_str:00000000000287e1 .LASF1308
C:\Users\SOLDER~1\AppData\Local\Temp\ccmjpsKj.s:25722  .debug_str:000000000001401b .LASF1309
C:\Users\SOLDER~1\AppData\Local\Temp\ccmjpsKj.s:27374  .debug_str:000000000001aa6b .LASF1310
C:\Users\SOLDER~1\AppData\Local\Temp\ccmjpsKj.s:25532  .debug_str:0000000000013301 .LASF1311
C:\Users\SOLDER~1\AppData\Local\Temp\ccmjpsKj.s:31618  .debug_str:000000000002bd34 .LASF1312
C:\Users\SOLDER~1\AppData\Local\Temp\ccmjpsKj.s:26160  .debug_str:0000000000015c9a .LASF1313
C:\Users\SOLDER~1\AppData\Local\Temp\ccmjpsKj.s:26422  .debug_str:0000000000016d07 .LASF1314
C:\Users\SOLDER~1\AppData\Local\Temp\ccmjpsKj.s:32400  .debug_str:000000000002efa1 .LASF1315
C:\Users\SOLDER~1\AppData\Local\Temp\ccmjpsKj.s:21438  .debug_str:0000000000002a3b .LASF1316
C:\Users\SOLDER~1\AppData\Local\Temp\ccmjpsKj.s:28554  .debug_str:000000000001f72b .LASF1317
C:\Users\SOLDER~1\AppData\Local\Temp\ccmjpsKj.s:25144  .debug_str:0000000000011a3e .LASF1318
C:\Users\SOLDER~1\AppData\Local\Temp\ccmjpsKj.s:23338  .debug_str:000000000000a4a8 .LASF1319
C:\Users\SOLDER~1\AppData\Local\Temp\ccmjpsKj.s:26096  .debug_str:0000000000015901 .LASF1320
C:\Users\SOLDER~1\AppData\Local\Temp\ccmjpsKj.s:27882  .debug_str:000000000001cafe .LASF1321
C:\Users\SOLDER~1\AppData\Local\Temp\ccmjpsKj.s:32462  .debug_str:000000000002f35c .LASF1322
C:\Users\SOLDER~1\AppData\Local\Temp\ccmjpsKj.s:31384  .debug_str:000000000002ae1a .LASF1323
C:\Users\SOLDER~1\AppData\Local\Temp\ccmjpsKj.s:27522  .debug_str:000000000001b3ed .LASF1324
C:\Users\SOLDER~1\AppData\Local\Temp\ccmjpsKj.s:25446  .debug_str:0000000000012d6a .LASF1325
C:\Users\SOLDER~1\AppData\Local\Temp\ccmjpsKj.s:26994  .debug_str:0000000000019256 .LASF1326
C:\Users\SOLDER~1\AppData\Local\Temp\ccmjpsKj.s:22246  .debug_str:0000000000005cfb .LASF1327
C:\Users\SOLDER~1\AppData\Local\Temp\ccmjpsKj.s:31838  .debug_str:000000000002cb99 .LASF1328
C:\Users\SOLDER~1\AppData\Local\Temp\ccmjpsKj.s:21740  .debug_str:0000000000003d61 .LASF1329
C:\Users\SOLDER~1\AppData\Local\Temp\ccmjpsKj.s:30644  .debug_str:0000000000027e51 .LASF1330
C:\Users\SOLDER~1\AppData\Local\Temp\ccmjpsKj.s:20994  .debug_str:0000000000000db0 .LASF1331
C:\Users\SOLDER~1\AppData\Local\Temp\ccmjpsKj.s:31480  .debug_str:000000000002b463 .LASF1332
C:\Users\SOLDER~1\AppData\Local\Temp\ccmjpsKj.s:29954  .debug_str:000000000002513b .LASF1333
C:\Users\SOLDER~1\AppData\Local\Temp\ccmjpsKj.s:31944  .debug_str:000000000002d231 .LASF1334
C:\Users\SOLDER~1\AppData\Local\Temp\ccmjpsKj.s:25772  .debug_str:000000000001436a .LASF1335
C:\Users\SOLDER~1\AppData\Local\Temp\ccmjpsKj.s:23272  .debug_str:000000000000a02f .LASF1336
C:\Users\SOLDER~1\AppData\Local\Temp\ccmjpsKj.s:24044  .debug_str:000000000000d327 .LASF1337
C:\Users\SOLDER~1\AppData\Local\Temp\ccmjpsKj.s:31168  .debug_str:000000000002a018 .LASF1338
C:\Users\SOLDER~1\AppData\Local\Temp\ccmjpsKj.s:27928  .debug_str:000000000001ce3f .LASF1339
C:\Users\SOLDER~1\AppData\Local\Temp\ccmjpsKj.s:27056  .debug_str:0000000000019621 .LASF1340
C:\Users\SOLDER~1\AppData\Local\Temp\ccmjpsKj.s:21906  .debug_str:00000000000047b6 .LASF1341
C:\Users\SOLDER~1\AppData\Local\Temp\ccmjpsKj.s:23570  .debug_str:000000000000b3d8 .LASF1342
C:\Users\SOLDER~1\AppData\Local\Temp\ccmjpsKj.s:29792  .debug_str:000000000002466c .LASF1343
C:\Users\SOLDER~1\AppData\Local\Temp\ccmjpsKj.s:24160  .debug_str:000000000000da97 .LASF1344
C:\Users\SOLDER~1\AppData\Local\Temp\ccmjpsKj.s:30330  .debug_str:00000000000269de .LASF1345
C:\Users\SOLDER~1\AppData\Local\Temp\ccmjpsKj.s:25092  .debug_str:000000000001170c .LASF1346
C:\Users\SOLDER~1\AppData\Local\Temp\ccmjpsKj.s:28992  .debug_str:000000000002134e .LASF1347
C:\Users\SOLDER~1\AppData\Local\Temp\ccmjpsKj.s:25788  .debug_str:00000000000144a3 .LASF1348
C:\Users\SOLDER~1\AppData\Local\Temp\ccmjpsKj.s:21218  .debug_str:0000000000001bc7 .LASF1349
C:\Users\SOLDER~1\AppData\Local\Temp\ccmjpsKj.s:29406  .debug_str:0000000000022d71 .LASF1350
C:\Users\SOLDER~1\AppData\Local\Temp\ccmjpsKj.s:27602  .debug_str:000000000001b8f5 .LASF1351
C:\Users\SOLDER~1\AppData\Local\Temp\ccmjpsKj.s:23414  .debug_str:000000000000a9d4 .LASF1352
C:\Users\SOLDER~1\AppData\Local\Temp\ccmjpsKj.s:24102  .debug_str:000000000000d6fb .LASF1353
C:\Users\SOLDER~1\AppData\Local\Temp\ccmjpsKj.s:28558  .debug_str:000000000001f776 .LASF1354
C:\Users\SOLDER~1\AppData\Local\Temp\ccmjpsKj.s:27624  .debug_str:000000000001ba45 .LASF1355
C:\Users\SOLDER~1\AppData\Local\Temp\ccmjpsKj.s:23728  .debug_str:000000000000bdbf .LASF1356
C:\Users\SOLDER~1\AppData\Local\Temp\ccmjpsKj.s:21660  .debug_str:000000000000383f .LASF1357
C:\Users\SOLDER~1\AppData\Local\Temp\ccmjpsKj.s:22902  .debug_str:00000000000087c7 .LASF1358
C:\Users\SOLDER~1\AppData\Local\Temp\ccmjpsKj.s:30018  .debug_str:000000000002553b .LASF1359
C:\Users\SOLDER~1\AppData\Local\Temp\ccmjpsKj.s:28034  .debug_str:000000000001d55c .LASF1360
C:\Users\SOLDER~1\AppData\Local\Temp\ccmjpsKj.s:29588  .debug_str:0000000000023959 .LASF1361
C:\Users\SOLDER~1\AppData\Local\Temp\ccmjpsKj.s:26932  .debug_str:0000000000018e15 .LASF1362
C:\Users\SOLDER~1\AppData\Local\Temp\ccmjpsKj.s:28830  .debug_str:00000000000208c4 .LASF1363
C:\Users\SOLDER~1\AppData\Local\Temp\ccmjpsKj.s:22192  .debug_str:000000000000596b .LASF1364
GAS LISTING C:\Users\SOLDER~1\AppData\Local\Temp\ccmjpsKj.s 			page 77


C:\Users\SOLDER~1\AppData\Local\Temp\ccmjpsKj.s:26152  .debug_str:0000000000015c1c .LASF1365
C:\Users\SOLDER~1\AppData\Local\Temp\ccmjpsKj.s:28136  .debug_str:000000000001db8b .LASF1366
C:\Users\SOLDER~1\AppData\Local\Temp\ccmjpsKj.s:26364  .debug_str:000000000001695d .LASF1367
C:\Users\SOLDER~1\AppData\Local\Temp\ccmjpsKj.s:31190  .debug_str:000000000002a1b0 .LASF1368
C:\Users\SOLDER~1\AppData\Local\Temp\ccmjpsKj.s:31954  .debug_str:000000000002d2e6 .LASF1369
C:\Users\SOLDER~1\AppData\Local\Temp\ccmjpsKj.s:31968  .debug_str:000000000002d3d3 .LASF1370
C:\Users\SOLDER~1\AppData\Local\Temp\ccmjpsKj.s:24150  .debug_str:000000000000d9f2 .LASF1371
C:\Users\SOLDER~1\AppData\Local\Temp\ccmjpsKj.s:23222  .debug_str:0000000000009cb5 .LASF1372
C:\Users\SOLDER~1\AppData\Local\Temp\ccmjpsKj.s:29768  .debug_str:00000000000244e9 .LASF1373
C:\Users\SOLDER~1\AppData\Local\Temp\ccmjpsKj.s:31482  .debug_str:000000000002b488 .LASF1374
C:\Users\SOLDER~1\AppData\Local\Temp\ccmjpsKj.s:22390  .debug_str:0000000000006693 .LASF1375
C:\Users\SOLDER~1\AppData\Local\Temp\ccmjpsKj.s:25494  .debug_str:0000000000013088 .LASF1376
C:\Users\SOLDER~1\AppData\Local\Temp\ccmjpsKj.s:23002  .debug_str:0000000000008e6c .LASF1377
C:\Users\SOLDER~1\AppData\Local\Temp\ccmjpsKj.s:28024  .debug_str:000000000001d4b5 .LASF1378
C:\Users\SOLDER~1\AppData\Local\Temp\ccmjpsKj.s:29312  .debug_str:0000000000022719 .LASF1379
C:\Users\SOLDER~1\AppData\Local\Temp\ccmjpsKj.s:30044  .debug_str:00000000000256e6 .LASF1380
C:\Users\SOLDER~1\AppData\Local\Temp\ccmjpsKj.s:25450  .debug_str:0000000000012da6 .LASF1381
C:\Users\SOLDER~1\AppData\Local\Temp\ccmjpsKj.s:22006  .debug_str:0000000000004e06 .LASF1382
C:\Users\SOLDER~1\AppData\Local\Temp\ccmjpsKj.s:31928  .debug_str:000000000002d11b .LASF1383
C:\Users\SOLDER~1\AppData\Local\Temp\ccmjpsKj.s:22950  .debug_str:0000000000008ae9 .LASF1384
C:\Users\SOLDER~1\AppData\Local\Temp\ccmjpsKj.s:32016  .debug_str:000000000002d712 .LASF1385
C:\Users\SOLDER~1\AppData\Local\Temp\ccmjpsKj.s:24804  .debug_str:000000000001045a .LASF1386
C:\Users\SOLDER~1\AppData\Local\Temp\ccmjpsKj.s:31390  .debug_str:000000000002ae76 .LASF1387
C:\Users\SOLDER~1\AppData\Local\Temp\ccmjpsKj.s:31634  .debug_str:000000000002be09 .LASF1388
C:\Users\SOLDER~1\AppData\Local\Temp\ccmjpsKj.s:29510  .debug_str:00000000000233f8 .LASF1389
C:\Users\SOLDER~1\AppData\Local\Temp\ccmjpsKj.s:31066  .debug_str:00000000000299b9 .LASF1390
C:\Users\SOLDER~1\AppData\Local\Temp\ccmjpsKj.s:26304  .debug_str:00000000000165ce .LASF1391
C:\Users\SOLDER~1\AppData\Local\Temp\ccmjpsKj.s:26634  .debug_str:0000000000017abf .LASF1392
C:\Users\SOLDER~1\AppData\Local\Temp\ccmjpsKj.s:25886  .debug_str:0000000000014b28 .LASF1393
C:\Users\SOLDER~1\AppData\Local\Temp\ccmjpsKj.s:24908  .debug_str:0000000000010b49 .LASF1394
C:\Users\SOLDER~1\AppData\Local\Temp\ccmjpsKj.s:25106  .debug_str:00000000000117f9 .LASF1395
C:\Users\SOLDER~1\AppData\Local\Temp\ccmjpsKj.s:30060  .debug_str:00000000000257ca .LASF1396
C:\Users\SOLDER~1\AppData\Local\Temp\ccmjpsKj.s:22336  .debug_str:00000000000062ef .LASF1397
C:\Users\SOLDER~1\AppData\Local\Temp\ccmjpsKj.s:24368  .debug_str:000000000000e824 .LASF1398
C:\Users\SOLDER~1\AppData\Local\Temp\ccmjpsKj.s:29814  .debug_str:00000000000247ea .LASF1399
C:\Users\SOLDER~1\AppData\Local\Temp\ccmjpsKj.s:27416  .debug_str:000000000001ad1b .LASF1400
C:\Users\SOLDER~1\AppData\Local\Temp\ccmjpsKj.s:28054  .debug_str:000000000001d6bc .LASF1401
C:\Users\SOLDER~1\AppData\Local\Temp\ccmjpsKj.s:23592  .debug_str:000000000000b579 .LASF1402
C:\Users\SOLDER~1\AppData\Local\Temp\ccmjpsKj.s:29936  .debug_str:0000000000024ffe .LASF1403
C:\Users\SOLDER~1\AppData\Local\Temp\ccmjpsKj.s:31144  .debug_str:0000000000029e6d .LASF1404
C:\Users\SOLDER~1\AppData\Local\Temp\ccmjpsKj.s:26046  .debug_str:00000000000155a9 .LASF1405
C:\Users\SOLDER~1\AppData\Local\Temp\ccmjpsKj.s:27702  .debug_str:000000000001bf13 .LASF1406
C:\Users\SOLDER~1\AppData\Local\Temp\ccmjpsKj.s:26770  .debug_str:00000000000183c6 .LASF1407
C:\Users\SOLDER~1\AppData\Local\Temp\ccmjpsKj.s:28440  .debug_str:000000000001ef81 .LASF1408
C:\Users\SOLDER~1\AppData\Local\Temp\ccmjpsKj.s:27346  .debug_str:000000000001a881 .LASF1409
C:\Users\SOLDER~1\AppData\Local\Temp\ccmjpsKj.s:22038  .debug_str:0000000000004fe1 .LASF1410
C:\Users\SOLDER~1\AppData\Local\Temp\ccmjpsKj.s:21908  .debug_str:00000000000047db .LASF1411
C:\Users\SOLDER~1\AppData\Local\Temp\ccmjpsKj.s:22640  .debug_str:000000000000772b .LASF1412
C:\Users\SOLDER~1\AppData\Local\Temp\ccmjpsKj.s:29720  .debug_str:00000000000241b4 .LASF1413
C:\Users\SOLDER~1\AppData\Local\Temp\ccmjpsKj.s:26372  .debug_str:00000000000169cc .LASF1414
C:\Users\SOLDER~1\AppData\Local\Temp\ccmjpsKj.s:24566  .debug_str:000000000000f4ac .LASF1415
C:\Users\SOLDER~1\AppData\Local\Temp\ccmjpsKj.s:27306  .debug_str:000000000001a5d0 .LASF1416
C:\Users\SOLDER~1\AppData\Local\Temp\ccmjpsKj.s:28112  .debug_str:000000000001da48 .LASF1417
C:\Users\SOLDER~1\AppData\Local\Temp\ccmjpsKj.s:21032  .debug_str:0000000000001002 .LASF1418
C:\Users\SOLDER~1\AppData\Local\Temp\ccmjpsKj.s:31726  .debug_str:000000000002c45b .LASF1419
C:\Users\SOLDER~1\AppData\Local\Temp\ccmjpsKj.s:27838  .debug_str:000000000001c7ff .LASF1420
C:\Users\SOLDER~1\AppData\Local\Temp\ccmjpsKj.s:20980  .debug_str:0000000000000ca3 .LASF1421
GAS LISTING C:\Users\SOLDER~1\AppData\Local\Temp\ccmjpsKj.s 			page 78


C:\Users\SOLDER~1\AppData\Local\Temp\ccmjpsKj.s:27310  .debug_str:000000000001a61d .LASF1422
C:\Users\SOLDER~1\AppData\Local\Temp\ccmjpsKj.s:22486  .debug_str:0000000000006cf7 .LASF1423
C:\Users\SOLDER~1\AppData\Local\Temp\ccmjpsKj.s:32186  .debug_str:000000000002e1ca .LASF1424
C:\Users\SOLDER~1\AppData\Local\Temp\ccmjpsKj.s:22068  .debug_str:00000000000051a2 .LASF1425
C:\Users\SOLDER~1\AppData\Local\Temp\ccmjpsKj.s:30996  .debug_str:0000000000029509 .LASF1426
C:\Users\SOLDER~1\AppData\Local\Temp\ccmjpsKj.s:21304  .debug_str:0000000000002172 .LASF1427
C:\Users\SOLDER~1\AppData\Local\Temp\ccmjpsKj.s:26254  .debug_str:00000000000162a3 .LASF1428
C:\Users\SOLDER~1\AppData\Local\Temp\ccmjpsKj.s:30200  .debug_str:00000000000260fd .LASF1429
C:\Users\SOLDER~1\AppData\Local\Temp\ccmjpsKj.s:32294  .debug_str:000000000002e891 .LASF1430
C:\Users\SOLDER~1\AppData\Local\Temp\ccmjpsKj.s:21592  .debug_str:00000000000033e3 .LASF1431
C:\Users\SOLDER~1\AppData\Local\Temp\ccmjpsKj.s:23608  .debug_str:000000000000b673 .LASF1432
C:\Users\SOLDER~1\AppData\Local\Temp\ccmjpsKj.s:24288  .debug_str:000000000000e30b .LASF1433
C:\Users\SOLDER~1\AppData\Local\Temp\ccmjpsKj.s:31500  .debug_str:000000000002b5cd .LASF1434
C:\Users\SOLDER~1\AppData\Local\Temp\ccmjpsKj.s:28262  .debug_str:000000000001e3d1 .LASF1435
C:\Users\SOLDER~1\AppData\Local\Temp\ccmjpsKj.s:22894  .debug_str:000000000000873c .LASF1436
C:\Users\SOLDER~1\AppData\Local\Temp\ccmjpsKj.s:21972  .debug_str:0000000000004beb .LASF1437
C:\Users\SOLDER~1\AppData\Local\Temp\ccmjpsKj.s:23902  .debug_str:000000000000c992 .LASF1438
C:\Users\SOLDER~1\AppData\Local\Temp\ccmjpsKj.s:31040  .debug_str:0000000000029800 .LASF1439
C:\Users\SOLDER~1\AppData\Local\Temp\ccmjpsKj.s:25476  .debug_str:0000000000012f57 .LASF1440
C:\Users\SOLDER~1\AppData\Local\Temp\ccmjpsKj.s:31662  .debug_str:000000000002bfe5 .LASF1441
C:\Users\SOLDER~1\AppData\Local\Temp\ccmjpsKj.s:26306  .debug_str:00000000000165f3 .LASF1442
C:\Users\SOLDER~1\AppData\Local\Temp\ccmjpsKj.s:26264  .debug_str:0000000000016338 .LASF1443
C:\Users\SOLDER~1\AppData\Local\Temp\ccmjpsKj.s:27884  .debug_str:000000000001cb23 .LASF1444
C:\Users\SOLDER~1\AppData\Local\Temp\ccmjpsKj.s:22408  .debug_str:00000000000067e9 .LASF1445
C:\Users\SOLDER~1\AppData\Local\Temp\ccmjpsKj.s:24362  .debug_str:000000000000e7be .LASF1446
C:\Users\SOLDER~1\AppData\Local\Temp\ccmjpsKj.s:28852  .debug_str:0000000000020a40 .LASF1447
C:\Users\SOLDER~1\AppData\Local\Temp\ccmjpsKj.s:31612  .debug_str:000000000002bcc5 .LASF1448
C:\Users\SOLDER~1\AppData\Local\Temp\ccmjpsKj.s:22906  .debug_str:0000000000008805 .LASF1449
C:\Users\SOLDER~1\AppData\Local\Temp\ccmjpsKj.s:28862  .debug_str:0000000000020ae2 .LASF1450
C:\Users\SOLDER~1\AppData\Local\Temp\ccmjpsKj.s:25786  .debug_str:000000000001447e .LASF1451
C:\Users\SOLDER~1\AppData\Local\Temp\ccmjpsKj.s:24058  .debug_str:000000000000d410 .LASF1452
C:\Users\SOLDER~1\AppData\Local\Temp\ccmjpsKj.s:21988  .debug_str:0000000000004cf8 .LASF1453
C:\Users\SOLDER~1\AppData\Local\Temp\ccmjpsKj.s:23494  .debug_str:000000000000af08 .LASF1454
C:\Users\SOLDER~1\AppData\Local\Temp\ccmjpsKj.s:30360  .debug_str:0000000000026bee .LASF1455
C:\Users\SOLDER~1\AppData\Local\Temp\ccmjpsKj.s:20960  .debug_str:0000000000000b45 .LASF1456
C:\Users\SOLDER~1\AppData\Local\Temp\ccmjpsKj.s:29924  .debug_str:0000000000024f52 .LASF1457
C:\Users\SOLDER~1\AppData\Local\Temp\ccmjpsKj.s:23262  .debug_str:0000000000009fa5 .LASF1458
C:\Users\SOLDER~1\AppData\Local\Temp\ccmjpsKj.s:29158  .debug_str:0000000000021dc3 .LASF1459
C:\Users\SOLDER~1\AppData\Local\Temp\ccmjpsKj.s:22370  .debug_str:0000000000006536 .LASF1460
C:\Users\SOLDER~1\AppData\Local\Temp\ccmjpsKj.s:26502  .debug_str:00000000000171ef .LASF1461
C:\Users\SOLDER~1\AppData\Local\Temp\ccmjpsKj.s:26432  .debug_str:0000000000016db8 .LASF1462
C:\Users\SOLDER~1\AppData\Local\Temp\ccmjpsKj.s:22300  .debug_str:0000000000006065 .LASF1463
C:\Users\SOLDER~1\AppData\Local\Temp\ccmjpsKj.s:31524  .debug_str:000000000002b71b .LASF1464
C:\Users\SOLDER~1\AppData\Local\Temp\ccmjpsKj.s:28346  .debug_str:000000000001e949 .LASF1465
C:\Users\SOLDER~1\AppData\Local\Temp\ccmjpsKj.s:27718  .debug_str:000000000001c02f .LASF1466
C:\Users\SOLDER~1\AppData\Local\Temp\ccmjpsKj.s:22448  .debug_str:0000000000006aad .LASF1467
C:\Users\SOLDER~1\AppData\Local\Temp\ccmjpsKj.s:23478  .debug_str:000000000000ade9 .LASF1468
C:\Users\SOLDER~1\AppData\Local\Temp\ccmjpsKj.s:28096  .debug_str:000000000001d94d .LASF1469
C:\Users\SOLDER~1\AppData\Local\Temp\ccmjpsKj.s:26712  .debug_str:0000000000017fbc .LASF1470
C:\Users\SOLDER~1\AppData\Local\Temp\ccmjpsKj.s:23684  .debug_str:000000000000bac6 .LASF1471
C:\Users\SOLDER~1\AppData\Local\Temp\ccmjpsKj.s:29646  .debug_str:0000000000023cde .LASF1472
C:\Users\SOLDER~1\AppData\Local\Temp\ccmjpsKj.s:24200  .debug_str:000000000000dce0 .LASF1473
C:\Users\SOLDER~1\AppData\Local\Temp\ccmjpsKj.s:30570  .debug_str:00000000000279b9 .LASF1474
C:\Users\SOLDER~1\AppData\Local\Temp\ccmjpsKj.s:30536  .debug_str:0000000000027782 .LASF1475
C:\Users\SOLDER~1\AppData\Local\Temp\ccmjpsKj.s:31276  .debug_str:000000000002a754 .LASF1476
C:\Users\SOLDER~1\AppData\Local\Temp\ccmjpsKj.s:26780  .debug_str:000000000001846e .LASF1477
C:\Users\SOLDER~1\AppData\Local\Temp\ccmjpsKj.s:23280  .debug_str:000000000000a0ba .LASF1478
GAS LISTING C:\Users\SOLDER~1\AppData\Local\Temp\ccmjpsKj.s 			page 79


C:\Users\SOLDER~1\AppData\Local\Temp\ccmjpsKj.s:21448  .debug_str:0000000000002ad1 .LASF1479
C:\Users\SOLDER~1\AppData\Local\Temp\ccmjpsKj.s:24152  .debug_str:000000000000da17 .LASF1480
C:\Users\SOLDER~1\AppData\Local\Temp\ccmjpsKj.s:32270  .debug_str:000000000002e717 .LASF1481
C:\Users\SOLDER~1\AppData\Local\Temp\ccmjpsKj.s:25136  .debug_str:00000000000119c3 .LASF1482
C:\Users\SOLDER~1\AppData\Local\Temp\ccmjpsKj.s:24156  .debug_str:000000000000da5e .LASF1483
C:\Users\SOLDER~1\AppData\Local\Temp\ccmjpsKj.s:22584  .debug_str:00000000000073ab .LASF1484
C:\Users\SOLDER~1\AppData\Local\Temp\ccmjpsKj.s:29842  .debug_str:00000000000249cf .LASF1485
C:\Users\SOLDER~1\AppData\Local\Temp\ccmjpsKj.s:31314  .debug_str:000000000002a9db .LASF1486
C:\Users\SOLDER~1\AppData\Local\Temp\ccmjpsKj.s:26664  .debug_str:0000000000017ca9 .LASF1487
C:\Users\SOLDER~1\AppData\Local\Temp\ccmjpsKj.s:23946  .debug_str:000000000000ccc3 .LASF1488
C:\Users\SOLDER~1\AppData\Local\Temp\ccmjpsKj.s:26218  .debug_str:000000000001602a .LASF1489
C:\Users\SOLDER~1\AppData\Local\Temp\ccmjpsKj.s:23326  .debug_str:000000000000a3e0 .LASF1490
C:\Users\SOLDER~1\AppData\Local\Temp\ccmjpsKj.s:22312  .debug_str:0000000000006162 .LASF1491
C:\Users\SOLDER~1\AppData\Local\Temp\ccmjpsKj.s:30302  .debug_str:000000000002682e .LASF1492
C:\Users\SOLDER~1\AppData\Local\Temp\ccmjpsKj.s:27386  .debug_str:000000000001ab44 .LASF1493
C:\Users\SOLDER~1\AppData\Local\Temp\ccmjpsKj.s:24722  .debug_str:000000000000ff60 .LASF1494
C:\Users\SOLDER~1\AppData\Local\Temp\ccmjpsKj.s:30154  .debug_str:0000000000025e07 .LASF1495
C:\Users\SOLDER~1\AppData\Local\Temp\ccmjpsKj.s:27738  .debug_str:000000000001c19d .LASF1496
C:\Users\SOLDER~1\AppData\Local\Temp\ccmjpsKj.s:28404  .debug_str:000000000001ed3e .LASF1497
C:\Users\SOLDER~1\AppData\Local\Temp\ccmjpsKj.s:23926  .debug_str:000000000000cb5f .LASF1498
C:\Users\SOLDER~1\AppData\Local\Temp\ccmjpsKj.s:32320  .debug_str:000000000002ea38 .LASF1499
C:\Users\SOLDER~1\AppData\Local\Temp\ccmjpsKj.s:31376  .debug_str:000000000002ad7f .LASF1500
C:\Users\SOLDER~1\AppData\Local\Temp\ccmjpsKj.s:26398  .debug_str:0000000000016b80 .LASF1501
C:\Users\SOLDER~1\AppData\Local\Temp\ccmjpsKj.s:21440  .debug_str:0000000000002a5f .LASF1502
C:\Users\SOLDER~1\AppData\Local\Temp\ccmjpsKj.s:27914  .debug_str:000000000001cd39 .LASF1503
C:\Users\SOLDER~1\AppData\Local\Temp\ccmjpsKj.s:22334  .debug_str:00000000000062cb .LASF1504
C:\Users\SOLDER~1\AppData\Local\Temp\ccmjpsKj.s:28536  .debug_str:000000000001f5ec .LASF1505
C:\Users\SOLDER~1\AppData\Local\Temp\ccmjpsKj.s:23226  .debug_str:0000000000009d1d .LASF1506
C:\Users\SOLDER~1\AppData\Local\Temp\ccmjpsKj.s:23192  .debug_str:0000000000009ae6 .LASF1507
C:\Users\SOLDER~1\AppData\Local\Temp\ccmjpsKj.s:23918  .debug_str:000000000000cad3 .LASF1508
C:\Users\SOLDER~1\AppData\Local\Temp\ccmjpsKj.s:30950  .debug_str:0000000000029217 .LASF1509
C:\Users\SOLDER~1\AppData\Local\Temp\ccmjpsKj.s:28314  .debug_str:000000000001e6fc .LASF1510
C:\Users\SOLDER~1\AppData\Local\Temp\ccmjpsKj.s:25794  .debug_str:000000000001451b .LASF1511
C:\Users\SOLDER~1\AppData\Local\Temp\ccmjpsKj.s:28478  .debug_str:000000000001f1fa .LASF1512
C:\Users\SOLDER~1\AppData\Local\Temp\ccmjpsKj.s:28464  .debug_str:000000000001f10f .LASF1513
C:\Users\SOLDER~1\AppData\Local\Temp\ccmjpsKj.s:21310  .debug_str:00000000000021e7 .LASF1514
C:\Users\SOLDER~1\AppData\Local\Temp\ccmjpsKj.s:32068  .debug_str:000000000002da2e .LASF1515
C:\Users\SOLDER~1\AppData\Local\Temp\ccmjpsKj.s:28160  .debug_str:000000000001dd1b .LASF1516
C:\Users\SOLDER~1\AppData\Local\Temp\ccmjpsKj.s:29062  .debug_str:00000000000217cb .LASF1517
C:\Users\SOLDER~1\AppData\Local\Temp\ccmjpsKj.s:27540  .debug_str:000000000001b4f3 .LASF1518
C:\Users\SOLDER~1\AppData\Local\Temp\ccmjpsKj.s:22824  .debug_str:00000000000082fa .LASF1519
C:\Users\SOLDER~1\AppData\Local\Temp\ccmjpsKj.s:32434  .debug_str:000000000002f198 .LASF1520
C:\Users\SOLDER~1\AppData\Local\Temp\ccmjpsKj.s:29892  .debug_str:0000000000024d09 .LASF1521
C:\Users\SOLDER~1\AppData\Local\Temp\ccmjpsKj.s:31238  .debug_str:000000000002a4e0 .LASF1522
C:\Users\SOLDER~1\AppData\Local\Temp\ccmjpsKj.s:21554  .debug_str:0000000000003169 .LASF1523
C:\Users\SOLDER~1\AppData\Local\Temp\ccmjpsKj.s:26612  .debug_str:000000000001795e .LASF1524
C:\Users\SOLDER~1\AppData\Local\Temp\ccmjpsKj.s:30556  .debug_str:00000000000278d2 .LASF1525
C:\Users\SOLDER~1\AppData\Local\Temp\ccmjpsKj.s:20868  .debug_str:0000000000000463 .LASF1526
C:\Users\SOLDER~1\AppData\Local\Temp\ccmjpsKj.s:26456  .debug_str:0000000000016efe .LASF1527
C:\Users\SOLDER~1\AppData\Local\Temp\ccmjpsKj.s:23862  .debug_str:000000000000c6e3 .LASF1528
C:\Users\SOLDER~1\AppData\Local\Temp\ccmjpsKj.s:24644  .debug_str:000000000000f9ce .LASF1529
C:\Users\SOLDER~1\AppData\Local\Temp\ccmjpsKj.s:22796  .debug_str:0000000000008153 .LASF1530
C:\Users\SOLDER~1\AppData\Local\Temp\ccmjpsKj.s:29428  .debug_str:0000000000022ed0 .LASF1531
C:\Users\SOLDER~1\AppData\Local\Temp\ccmjpsKj.s:27612  .debug_str:000000000001b989 .LASF1532
C:\Users\SOLDER~1\AppData\Local\Temp\ccmjpsKj.s:22366  .debug_str:00000000000064ee .LASF1533
C:\Users\SOLDER~1\AppData\Local\Temp\ccmjpsKj.s:24240  .debug_str:000000000000df8b .LASF1534
C:\Users\SOLDER~1\AppData\Local\Temp\ccmjpsKj.s:32262  .debug_str:000000000002e68a .LASF1535
GAS LISTING C:\Users\SOLDER~1\AppData\Local\Temp\ccmjpsKj.s 			page 80


C:\Users\SOLDER~1\AppData\Local\Temp\ccmjpsKj.s:26722  .debug_str:0000000000018063 .LASF1536
C:\Users\SOLDER~1\AppData\Local\Temp\ccmjpsKj.s:21194  .debug_str:0000000000001a3d .LASF1537
C:\Users\SOLDER~1\AppData\Local\Temp\ccmjpsKj.s:27580  .debug_str:000000000001b796 .LASF1538
C:\Users\SOLDER~1\AppData\Local\Temp\ccmjpsKj.s:27446  .debug_str:000000000001af2b .LASF1539
C:\Users\SOLDER~1\AppData\Local\Temp\ccmjpsKj.s:28142  .debug_str:000000000001dbfb .LASF1540
C:\Users\SOLDER~1\AppData\Local\Temp\ccmjpsKj.s:23600  .debug_str:000000000000b602 .LASF1541
C:\Users\SOLDER~1\AppData\Local\Temp\ccmjpsKj.s:31870  .debug_str:000000000002cd7a .LASF1542
C:\Users\SOLDER~1\AppData\Local\Temp\ccmjpsKj.s:29978  .debug_str:00000000000252c0 .LASF1543
C:\Users\SOLDER~1\AppData\Local\Temp\ccmjpsKj.s:21148  .debug_str:000000000000177d .LASF1544
C:\Users\SOLDER~1\AppData\Local\Temp\ccmjpsKj.s:24702  .debug_str:000000000000fe04 .LASF1545
C:\Users\SOLDER~1\AppData\Local\Temp\ccmjpsKj.s:29194  .debug_str:0000000000021ff8 .LASF1546
C:\Users\SOLDER~1\AppData\Local\Temp\ccmjpsKj.s:28266  .debug_str:000000000001e41c .LASF1547
C:\Users\SOLDER~1\AppData\Local\Temp\ccmjpsKj.s:24396  .debug_str:000000000000ea21 .LASF1548
C:\Users\SOLDER~1\AppData\Local\Temp\ccmjpsKj.s:32126  .debug_str:000000000002ddf1 .LASF1549
C:\Users\SOLDER~1\AppData\Local\Temp\ccmjpsKj.s:22726  .debug_str:0000000000007c69 .LASF1550
C:\Users\SOLDER~1\AppData\Local\Temp\ccmjpsKj.s:24806  .debug_str:000000000001047f .LASF1551
C:\Users\SOLDER~1\AppData\Local\Temp\ccmjpsKj.s:28620  .debug_str:000000000001fb99 .LASF1552
C:\Users\SOLDER~1\AppData\Local\Temp\ccmjpsKj.s:30266  .debug_str:00000000000265b1 .LASF1553
C:\Users\SOLDER~1\AppData\Local\Temp\ccmjpsKj.s:27476  .debug_str:000000000001b13e .LASF1554
C:\Users\SOLDER~1\AppData\Local\Temp\ccmjpsKj.s:29394  .debug_str:0000000000022ca1 .LASF1555
C:\Users\SOLDER~1\AppData\Local\Temp\ccmjpsKj.s:22778  .debug_str:0000000000008003 .LASF1556
C:\Users\SOLDER~1\AppData\Local\Temp\ccmjpsKj.s:26842  .debug_str:000000000001882e .LASF1557
C:\Users\SOLDER~1\AppData\Local\Temp\ccmjpsKj.s:28722  .debug_str:00000000000201cf .LASF1558
C:\Users\SOLDER~1\AppData\Local\Temp\ccmjpsKj.s:22636  .debug_str:00000000000076ef .LASF1559
C:\Users\SOLDER~1\AppData\Local\Temp\ccmjpsKj.s:31774  .debug_str:000000000002c77b .LASF1560
C:\Users\SOLDER~1\AppData\Local\Temp\ccmjpsKj.s:20876  .debug_str:00000000000004e3 .LASF1561
C:\Users\SOLDER~1\AppData\Local\Temp\ccmjpsKj.s:27948  .debug_str:000000000001cf7b .LASF1562
C:\Users\SOLDER~1\AppData\Local\Temp\ccmjpsKj.s:24754  .debug_str:0000000000010172 .LASF1563
C:\Users\SOLDER~1\AppData\Local\Temp\ccmjpsKj.s:23812  .debug_str:000000000000c33b .LASF1564
C:\Users\SOLDER~1\AppData\Local\Temp\ccmjpsKj.s:30448  .debug_str:00000000000271c2 .LASF1565
C:\Users\SOLDER~1\AppData\Local\Temp\ccmjpsKj.s:26620  .debug_str:00000000000179dc .LASF1566
C:\Users\SOLDER~1\AppData\Local\Temp\ccmjpsKj.s:24918  .debug_str:0000000000010c01 .LASF1567
C:\Users\SOLDER~1\AppData\Local\Temp\ccmjpsKj.s:30980  .debug_str:00000000000293ec .LASF1568
C:\Users\SOLDER~1\AppData\Local\Temp\ccmjpsKj.s:25424  .debug_str:0000000000012bde .LASF1569
C:\Users\SOLDER~1\AppData\Local\Temp\ccmjpsKj.s:31806  .debug_str:000000000002c98b .LASF1570
C:\Users\SOLDER~1\AppData\Local\Temp\ccmjpsKj.s:31772  .debug_str:000000000002c757 .LASF1571
C:\Users\SOLDER~1\AppData\Local\Temp\ccmjpsKj.s:20838  .debug_str:0000000000000280 .LASF1572
C:\Users\SOLDER~1\AppData\Local\Temp\ccmjpsKj.s:27926  .debug_str:000000000001ce1b .LASF1573
C:\Users\SOLDER~1\AppData\Local\Temp\ccmjpsKj.s:24508  .debug_str:000000000000f11a .LASF1574
C:\Users\SOLDER~1\AppData\Local\Temp\ccmjpsKj.s:22738  .debug_str:0000000000007d5f .LASF1575
C:\Users\SOLDER~1\AppData\Local\Temp\ccmjpsKj.s:25374  .debug_str:00000000000128e7 .LASF1576
C:\Users\SOLDER~1\AppData\Local\Temp\ccmjpsKj.s:20932  .debug_str:000000000000094f .LASF1577
C:\Users\SOLDER~1\AppData\Local\Temp\ccmjpsKj.s:25466  .debug_str:0000000000012eb9 .LASF1578
C:\Users\SOLDER~1\AppData\Local\Temp\ccmjpsKj.s:24498  .debug_str:000000000000f06d .LASF1579
C:\Users\SOLDER~1\AppData\Local\Temp\ccmjpsKj.s:32224  .debug_str:000000000002e424 .LASF1580
C:\Users\SOLDER~1\AppData\Local\Temp\ccmjpsKj.s:30102  .debug_str:0000000000025a8a .LASF1581
C:\Users\SOLDER~1\AppData\Local\Temp\ccmjpsKj.s:31654  .debug_str:000000000002bf52 .LASF1582
C:\Users\SOLDER~1\AppData\Local\Temp\ccmjpsKj.s:26984  .debug_str:00000000000191a7 .LASF1583
C:\Users\SOLDER~1\AppData\Local\Temp\ccmjpsKj.s:23230  .debug_str:0000000000009d71 .LASF1584
C:\Users\SOLDER~1\AppData\Local\Temp\ccmjpsKj.s:26472  .debug_str:0000000000016fe4 .LASF1585
C:\Users\SOLDER~1\AppData\Local\Temp\ccmjpsKj.s:23682  .debug_str:000000000000baa1 .LASF1586
C:\Users\SOLDER~1\AppData\Local\Temp\ccmjpsKj.s:25700  .debug_str:0000000000013eaa .LASF1587
C:\Users\SOLDER~1\AppData\Local\Temp\ccmjpsKj.s:30648  .debug_str:0000000000027e92 .LASF1588
C:\Users\SOLDER~1\AppData\Local\Temp\ccmjpsKj.s:23004  .debug_str:0000000000008e90 .LASF1589
C:\Users\SOLDER~1\AppData\Local\Temp\ccmjpsKj.s:24980  .debug_str:0000000000010fd4 .LASF1590
C:\Users\SOLDER~1\AppData\Local\Temp\ccmjpsKj.s:30406  .debug_str:0000000000026f2c .LASF1591
C:\Users\SOLDER~1\AppData\Local\Temp\ccmjpsKj.s:27972  .debug_str:000000000001d121 .LASF1592
GAS LISTING C:\Users\SOLDER~1\AppData\Local\Temp\ccmjpsKj.s 			page 81


C:\Users\SOLDER~1\AppData\Local\Temp\ccmjpsKj.s:30662  .debug_str:0000000000027f93 .LASF1593
C:\Users\SOLDER~1\AppData\Local\Temp\ccmjpsKj.s:24176  .debug_str:000000000000db7e .LASF1594
C:\Users\SOLDER~1\AppData\Local\Temp\ccmjpsKj.s:20984  .debug_str:0000000000000ced .LASF1595
C:\Users\SOLDER~1\AppData\Local\Temp\ccmjpsKj.s:31720  .debug_str:000000000002c3ef .LASF1596
C:\Users\SOLDER~1\AppData\Local\Temp\ccmjpsKj.s:26660  .debug_str:0000000000017c62 .LASF1597
C:\Users\SOLDER~1\AppData\Local\Temp\ccmjpsKj.s:29542  .debug_str:000000000002362c .LASF1598
C:\Users\SOLDER~1\AppData\Local\Temp\ccmjpsKj.s:31852  .debug_str:000000000002cc5f .LASF1599
C:\Users\SOLDER~1\AppData\Local\Temp\ccmjpsKj.s:26294  .debug_str:0000000000016514 .LASF1600
C:\Users\SOLDER~1\AppData\Local\Temp\ccmjpsKj.s:20810  .debug_str:00000000000000e7 .LASF1601
C:\Users\SOLDER~1\AppData\Local\Temp\ccmjpsKj.s:27098  .debug_str:0000000000019946 .LASF1602
C:\Users\SOLDER~1\AppData\Local\Temp\ccmjpsKj.s:27068  .debug_str:0000000000019707 .LASF1603
C:\Users\SOLDER~1\AppData\Local\Temp\ccmjpsKj.s:27758  .debug_str:000000000001c2c9 .LASF1604
C:\Users\SOLDER~1\AppData\Local\Temp\ccmjpsKj.s:23198  .debug_str:0000000000009b45 .LASF1605
C:\Users\SOLDER~1\AppData\Local\Temp\ccmjpsKj.s:31460  .debug_str:000000000002b2d4 .LASF1606
C:\Users\SOLDER~1\AppData\Local\Temp\ccmjpsKj.s:29642  .debug_str:0000000000023ca1 .LASF1607
C:\Users\SOLDER~1\AppData\Local\Temp\ccmjpsKj.s:32336  .debug_str:000000000002eb58 .LASF1608
C:\Users\SOLDER~1\AppData\Local\Temp\ccmjpsKj.s:32088  .debug_str:000000000002db9e .LASF1609
C:\Users\SOLDER~1\AppData\Local\Temp\ccmjpsKj.s:24274  .debug_str:000000000000e1f4 .LASF1610
C:\Users\SOLDER~1\AppData\Local\Temp\ccmjpsKj.s:28596  .debug_str:000000000001fa05 .LASF1611
C:\Users\SOLDER~1\AppData\Local\Temp\ccmjpsKj.s:21490  .debug_str:0000000000002d51 .LASF1612
C:\Users\SOLDER~1\AppData\Local\Temp\ccmjpsKj.s:28934  .debug_str:0000000000020f87 .LASF1613
C:\Users\SOLDER~1\AppData\Local\Temp\ccmjpsKj.s:30456  .debug_str:0000000000027248 .LASF1614
C:\Users\SOLDER~1\AppData\Local\Temp\ccmjpsKj.s:25806  .debug_str:00000000000145ef .LASF1615
C:\Users\SOLDER~1\AppData\Local\Temp\ccmjpsKj.s:22860  .debug_str:0000000000008547 .LASF1616
C:\Users\SOLDER~1\AppData\Local\Temp\ccmjpsKj.s:25284  .debug_str:000000000001231c .LASF1617
C:\Users\SOLDER~1\AppData\Local\Temp\ccmjpsKj.s:22518  .debug_str:0000000000006f41 .LASF1618
C:\Users\SOLDER~1\AppData\Local\Temp\ccmjpsKj.s:24494  .debug_str:000000000000f022 .LASF1619
C:\Users\SOLDER~1\AppData\Local\Temp\ccmjpsKj.s:29470  .debug_str:000000000002315d .LASF1620
C:\Users\SOLDER~1\AppData\Local\Temp\ccmjpsKj.s:21840  .debug_str:000000000000438b .LASF1621
C:\Users\SOLDER~1\AppData\Local\Temp\ccmjpsKj.s:23776  .debug_str:000000000000c0b1 .LASF1622
C:\Users\SOLDER~1\AppData\Local\Temp\ccmjpsKj.s:29230  .debug_str:0000000000022228 .LASF1623
C:\Users\SOLDER~1\AppData\Local\Temp\ccmjpsKj.s:26866  .debug_str:00000000000189e5 .LASF1624
C:\Users\SOLDER~1\AppData\Local\Temp\ccmjpsKj.s:27594  .debug_str:000000000001b86c .LASF1625
C:\Users\SOLDER~1\AppData\Local\Temp\ccmjpsKj.s:23010  .debug_str:0000000000008ef5 .LASF1626
C:\Users\SOLDER~1\AppData\Local\Temp\ccmjpsKj.s:31472  .debug_str:000000000002b3a0 .LASF1627
C:\Users\SOLDER~1\AppData\Local\Temp\ccmjpsKj.s:30530  .debug_str:0000000000027726 .LASF1628
C:\Users\SOLDER~1\AppData\Local\Temp\ccmjpsKj.s:30010  .debug_str:000000000002549d .LASF1629
C:\Users\SOLDER~1\AppData\Local\Temp\ccmjpsKj.s:27132  .debug_str:0000000000019b15 .LASF1630
C:\Users\SOLDER~1\AppData\Local\Temp\ccmjpsKj.s:24490  .debug_str:000000000000efdc .LASF1631
C:\Users\SOLDER~1\AppData\Local\Temp\ccmjpsKj.s:30474  .debug_str:0000000000027369 .LASF1632
C:\Users\SOLDER~1\AppData\Local\Temp\ccmjpsKj.s:25040  .debug_str:00000000000113b2 .LASF1633
C:\Users\SOLDER~1\AppData\Local\Temp\ccmjpsKj.s:31394  .debug_str:000000000002aec3 .LASF1634
C:\Users\SOLDER~1\AppData\Local\Temp\ccmjpsKj.s:29730  .debug_str:0000000000024262 .LASF1635
C:\Users\SOLDER~1\AppData\Local\Temp\ccmjpsKj.s:32096  .debug_str:000000000002dc27 .LASF1636
C:\Users\SOLDER~1\AppData\Local\Temp\ccmjpsKj.s:27546  .debug_str:000000000001b55c .LASF1637
C:\Users\SOLDER~1\AppData\Local\Temp\ccmjpsKj.s:24094  .debug_str:000000000000d675 .LASF1638
C:\Users\SOLDER~1\AppData\Local\Temp\ccmjpsKj.s:22242  .debug_str:0000000000005cae .LASF1639
C:\Users\SOLDER~1\AppData\Local\Temp\ccmjpsKj.s:24988  .debug_str:0000000000011059 .LASF1640
C:\Users\SOLDER~1\AppData\Local\Temp\ccmjpsKj.s:27656  .debug_str:000000000001bc2b .LASF1641
C:\Users\SOLDER~1\AppData\Local\Temp\ccmjpsKj.s:32200  .debug_str:000000000002e2c6 .LASF1642
C:\Users\SOLDER~1\AppData\Local\Temp\ccmjpsKj.s:31146  .debug_str:0000000000029e92 .LASF1643
C:\Users\SOLDER~1\AppData\Local\Temp\ccmjpsKj.s:27284  .debug_str:000000000001a47a .LASF1644
C:\Users\SOLDER~1\AppData\Local\Temp\ccmjpsKj.s:25194  .debug_str:0000000000011d73 .LASF1645
C:\Users\SOLDER~1\AppData\Local\Temp\ccmjpsKj.s:26758  .debug_str:00000000000182e7 .LASF1646
C:\Users\SOLDER~1\AppData\Local\Temp\ccmjpsKj.s:21994  .debug_str:0000000000004d5c .LASF1647
C:\Users\SOLDER~1\AppData\Local\Temp\ccmjpsKj.s:25910  .debug_str:0000000000014cd2 .LASF1648
C:\Users\SOLDER~1\AppData\Local\Temp\ccmjpsKj.s:21486  .debug_str:0000000000002d10 .LASF1649
GAS LISTING C:\Users\SOLDER~1\AppData\Local\Temp\ccmjpsKj.s 			page 82


C:\Users\SOLDER~1\AppData\Local\Temp\ccmjpsKj.s:30388  .debug_str:0000000000026deb .LASF1650
C:\Users\SOLDER~1\AppData\Local\Temp\ccmjpsKj.s:32408  .debug_str:000000000002f012 .LASF1651
C:\Users\SOLDER~1\AppData\Local\Temp\ccmjpsKj.s:21602  .debug_str:000000000000349f .LASF1652
C:\Users\SOLDER~1\AppData\Local\Temp\ccmjpsKj.s:29700  .debug_str:0000000000024059 .LASF1653
C:\Users\SOLDER~1\AppData\Local\Temp\ccmjpsKj.s:31690  .debug_str:000000000002c1ae .LASF1654
C:\Users\SOLDER~1\AppData\Local\Temp\ccmjpsKj.s:25510  .debug_str:0000000000013183 .LASF1655
C:\Users\SOLDER~1\AppData\Local\Temp\ccmjpsKj.s:23032  .debug_str:0000000000009077 .LASF1656
C:\Users\SOLDER~1\AppData\Local\Temp\ccmjpsKj.s:25818  .debug_str:00000000000146af .LASF1657
C:\Users\SOLDER~1\AppData\Local\Temp\ccmjpsKj.s:30896  .debug_str:0000000000028edb .LASF1658
C:\Users\SOLDER~1\AppData\Local\Temp\ccmjpsKj.s:27696  .debug_str:000000000001beb7 .LASF1659
C:\Users\SOLDER~1\AppData\Local\Temp\ccmjpsKj.s:26814  .debug_str:0000000000018681 .LASF1660
C:\Users\SOLDER~1\AppData\Local\Temp\ccmjpsKj.s:21664  .debug_str:0000000000003884 .LASF1661
C:\Users\SOLDER~1\AppData\Local\Temp\ccmjpsKj.s:23304  .debug_str:000000000000a26a .LASF1662
C:\Users\SOLDER~1\AppData\Local\Temp\ccmjpsKj.s:28706  .debug_str:00000000000200cf .LASF1663
C:\Users\SOLDER~1\AppData\Local\Temp\ccmjpsKj.s:23136  .debug_str:000000000000973c .LASF1664
C:\Users\SOLDER~1\AppData\Local\Temp\ccmjpsKj.s:29296  .debug_str:00000000000225ef .LASF1665
C:\Users\SOLDER~1\AppData\Local\Temp\ccmjpsKj.s:24038  .debug_str:000000000000d2bc .LASF1666
C:\Users\SOLDER~1\AppData\Local\Temp\ccmjpsKj.s:23998  .debug_str:000000000000d028 .LASF1667
C:\Users\SOLDER~1\AppData\Local\Temp\ccmjpsKj.s:24750  .debug_str:000000000001012a .LASF1668
C:\Users\SOLDER~1\AppData\Local\Temp\ccmjpsKj.s:31778  .debug_str:000000000002c7c9 .LASF1669
C:\Users\SOLDER~1\AppData\Local\Temp\ccmjpsKj.s:28324  .debug_str:000000000001e7ad .LASF1670
C:\Users\SOLDER~1\AppData\Local\Temp\ccmjpsKj.s:26628  .debug_str:0000000000017a77 .LASF1671
C:\Users\SOLDER~1\AppData\Local\Temp\ccmjpsKj.s:29244  .debug_str:00000000000222f9 .LASF1672
C:\Users\SOLDER~1\AppData\Local\Temp\ccmjpsKj.s:23852  .debug_str:000000000000c61e .LASF1673
C:\Users\SOLDER~1\AppData\Local\Temp\ccmjpsKj.s:31592  .debug_str:000000000002bb74 .LASF1674
C:\Users\SOLDER~1\AppData\Local\Temp\ccmjpsKj.s:27370  .debug_str:000000000001aa29 .LASF1675
C:\Users\SOLDER~1\AppData\Local\Temp\ccmjpsKj.s:23474  .debug_str:000000000000ad9f .LASF1676
C:\Users\SOLDER~1\AppData\Local\Temp\ccmjpsKj.s:21406  .debug_str:000000000000281b .LASF1677
C:\Users\SOLDER~1\AppData\Local\Temp\ccmjpsKj.s:22922  .debug_str:0000000000008907 .LASF1678
C:\Users\SOLDER~1\AppData\Local\Temp\ccmjpsKj.s:29766  .debug_str:00000000000244c3 .LASF1679
C:\Users\SOLDER~1\AppData\Local\Temp\ccmjpsKj.s:27792  .debug_str:000000000001c52f .LASF1680
C:\Users\SOLDER~1\AppData\Local\Temp\ccmjpsKj.s:31884  .debug_str:000000000002ce51 .LASF1681
C:\Users\SOLDER~1\AppData\Local\Temp\ccmjpsKj.s:26692  .debug_str:0000000000017e6a .LASF1682
C:\Users\SOLDER~1\AppData\Local\Temp\ccmjpsKj.s:28606  .debug_str:000000000001faa7 .LASF1683
C:\Users\SOLDER~1\AppData\Local\Temp\ccmjpsKj.s:21942  .debug_str:00000000000049ff .LASF1684
C:\Users\SOLDER~1\AppData\Local\Temp\ccmjpsKj.s:25902  .debug_str:0000000000014c4c .LASF1685
C:\Users\SOLDER~1\AppData\Local\Temp\ccmjpsKj.s:27900  .debug_str:000000000001cc2d .LASF1686
C:\Users\SOLDER~1\AppData\Local\Temp\ccmjpsKj.s:21724  .debug_str:0000000000003c66 .LASF1687
C:\Users\SOLDER~1\AppData\Local\Temp\ccmjpsKj.s:30918  .debug_str:0000000000029009 .LASF1688
C:\Users\SOLDER~1\AppData\Local\Temp\ccmjpsKj.s:31704  .debug_str:000000000002c2bb .LASF1689
C:\Users\SOLDER~1\AppData\Local\Temp\ccmjpsKj.s:24138  .debug_str:000000000000d954 .LASF1690
C:\Users\SOLDER~1\AppData\Local\Temp\ccmjpsKj.s:23896  .debug_str:000000000000c927 .LASF1691
C:\Users\SOLDER~1\AppData\Local\Temp\ccmjpsKj.s:22982  .debug_str:0000000000008cfb .LASF1692
C:\Users\SOLDER~1\AppData\Local\Temp\ccmjpsKj.s:24402  .debug_str:000000000000ea86 .LASF1693
C:\Users\SOLDER~1\AppData\Local\Temp\ccmjpsKj.s:31222  .debug_str:000000000002a3b4 .LASF1694
C:\Users\SOLDER~1\AppData\Local\Temp\ccmjpsKj.s:21376  .debug_str:000000000000262f .LASF1695
C:\Users\SOLDER~1\AppData\Local\Temp\ccmjpsKj.s:27478  .debug_str:000000000001b163 .LASF1696
C:\Users\SOLDER~1\AppData\Local\Temp\ccmjpsKj.s:21984  .debug_str:0000000000004cb6 .LASF1697
C:\Users\SOLDER~1\AppData\Local\Temp\ccmjpsKj.s:28356  .debug_str:000000000001e9fa .LASF1698
C:\Users\SOLDER~1\AppData\Local\Temp\ccmjpsKj.s:28224  .debug_str:000000000001e18c .LASF1699
C:\Users\SOLDER~1\AppData\Local\Temp\ccmjpsKj.s:28936  .debug_str:0000000000020fad .LASF1700
C:\Users\SOLDER~1\AppData\Local\Temp\ccmjpsKj.s:24412  .debug_str:000000000000eb2f .LASF1701
C:\Users\SOLDER~1\AppData\Local\Temp\ccmjpsKj.s:21014  .debug_str:0000000000000eeb .LASF1702
C:\Users\SOLDER~1\AppData\Local\Temp\ccmjpsKj.s:30876  .debug_str:0000000000028d9c .LASF1703
C:\Users\SOLDER~1\AppData\Local\Temp\ccmjpsKj.s:21926  .debug_str:0000000000004918 .LASF1704
C:\Users\SOLDER~1\AppData\Local\Temp\ccmjpsKj.s:31766  .debug_str:000000000002c707 .LASF1705
C:\Users\SOLDER~1\AppData\Local\Temp\ccmjpsKj.s:24536  .debug_str:000000000000f2be .LASF1706
GAS LISTING C:\Users\SOLDER~1\AppData\Local\Temp\ccmjpsKj.s 			page 83


C:\Users\SOLDER~1\AppData\Local\Temp\ccmjpsKj.s:23566  .debug_str:000000000000b397 .LASF1707
C:\Users\SOLDER~1\AppData\Local\Temp\ccmjpsKj.s:31374  .debug_str:000000000002ad59 .LASF1708
C:\Users\SOLDER~1\AppData\Local\Temp\ccmjpsKj.s:29254  .debug_str:000000000002239a .LASF1709
C:\Users\SOLDER~1\AppData\Local\Temp\ccmjpsKj.s:30802  .debug_str:00000000000288bb .LASF1710
C:\Users\SOLDER~1\AppData\Local\Temp\ccmjpsKj.s:26042  .debug_str:0000000000015573 .LASF1711
C:\Users\SOLDER~1\AppData\Local\Temp\ccmjpsKj.s:32302  .debug_str:000000000002e91a .LASF1712
C:\Users\SOLDER~1\AppData\Local\Temp\ccmjpsKj.s:25634  .debug_str:00000000000139d4 .LASF1713
C:\Users\SOLDER~1\AppData\Local\Temp\ccmjpsKj.s:23496  .debug_str:000000000000af2d .LASF1714
C:\Users\SOLDER~1\AppData\Local\Temp\ccmjpsKj.s:24854  .debug_str:00000000000107dc .LASF1715
C:\Users\SOLDER~1\AppData\Local\Temp\ccmjpsKj.s:22608  .debug_str:0000000000007538 .LASF1716
C:\Users\SOLDER~1\AppData\Local\Temp\ccmjpsKj.s:21318  .debug_str:0000000000002256 .LASF1717
C:\Users\SOLDER~1\AppData\Local\Temp\ccmjpsKj.s:24116  .debug_str:000000000000d7c5 .LASF1718
C:\Users\SOLDER~1\AppData\Local\Temp\ccmjpsKj.s:29564  .debug_str:00000000000237af .LASF1719
C:\Users\SOLDER~1\AppData\Local\Temp\ccmjpsKj.s:27178  .debug_str:0000000000019dd8 .LASF1720
C:\Users\SOLDER~1\AppData\Local\Temp\ccmjpsKj.s:27912  .debug_str:000000000001cd13 .LASF1721
C:\Users\SOLDER~1\AppData\Local\Temp\ccmjpsKj.s:23328  .debug_str:000000000000a405 .LASF1722
C:\Users\SOLDER~1\AppData\Local\Temp\ccmjpsKj.s:31812  .debug_str:000000000002c9e8 .LASF1723
C:\Users\SOLDER~1\AppData\Local\Temp\ccmjpsKj.s:30874  .debug_str:0000000000028d76 .LASF1724
C:\Users\SOLDER~1\AppData\Local\Temp\ccmjpsKj.s:25800  .debug_str:0000000000014590 .LASF1725
C:\Users\SOLDER~1\AppData\Local\Temp\ccmjpsKj.s:27456  .debug_str:000000000001affe .LASF1726
C:\Users\SOLDER~1\AppData\Local\Temp\ccmjpsKj.s:24096  .debug_str:000000000000d69a .LASF1727
C:\Users\SOLDER~1\AppData\Local\Temp\ccmjpsKj.s:30164  .debug_str:0000000000025e81 .LASF1728
C:\Users\SOLDER~1\AppData\Local\Temp\ccmjpsKj.s:24736  .debug_str:000000000001004f .LASF1729
C:\Users\SOLDER~1\AppData\Local\Temp\ccmjpsKj.s:31112  .debug_str:0000000000029c4f .LASF1730
C:\Users\SOLDER~1\AppData\Local\Temp\ccmjpsKj.s:31068  .debug_str:00000000000299de .LASF1731
C:\Users\SOLDER~1\AppData\Local\Temp\ccmjpsKj.s:31800  .debug_str:000000000002c91d .LASF1732
C:\Users\SOLDER~1\AppData\Local\Temp\ccmjpsKj.s:27264  .debug_str:000000000001a342 .LASF1733
C:\Users\SOLDER~1\AppData\Local\Temp\ccmjpsKj.s:23718  .debug_str:000000000000bd1b .LASF1734
C:\Users\SOLDER~1\AppData\Local\Temp\ccmjpsKj.s:22180  .debug_str:000000000000589e .LASF1735
C:\Users\SOLDER~1\AppData\Local\Temp\ccmjpsKj.s:24682  .debug_str:000000000000fc82 .LASF1736
C:\Users\SOLDER~1\AppData\Local\Temp\ccmjpsKj.s:26290  .debug_str:00000000000164db .LASF1737
C:\Users\SOLDER~1\AppData\Local\Temp\ccmjpsKj.s:21676  .debug_str:0000000000003948 .LASF1738
C:\Users\SOLDER~1\AppData\Local\Temp\ccmjpsKj.s:22228  .debug_str:0000000000005bf9 .LASF1739
C:\Users\SOLDER~1\AppData\Local\Temp\ccmjpsKj.s:29998  .debug_str:00000000000253f1 .LASF1740
C:\Users\SOLDER~1\AppData\Local\Temp\ccmjpsKj.s:27856  .debug_str:000000000001c968 .LASF1741
C:\Users\SOLDER~1\AppData\Local\Temp\ccmjpsKj.s:31748  .debug_str:000000000002c5f3 .LASF1742
C:\Users\SOLDER~1\AppData\Local\Temp\ccmjpsKj.s:24688  .debug_str:000000000000fce2 .LASF1743
C:\Users\SOLDER~1\AppData\Local\Temp\ccmjpsKj.s:22590  .debug_str:0000000000007418 .LASF1744
C:\Users\SOLDER~1\AppData\Local\Temp\ccmjpsKj.s:24248  .debug_str:000000000000e01b .LASF1745
C:\Users\SOLDER~1\AppData\Local\Temp\ccmjpsKj.s:29632  .debug_str:0000000000023c2d .LASF1746
C:\Users\SOLDER~1\AppData\Local\Temp\ccmjpsKj.s:23378  .debug_str:000000000000a78c .LASF1747
C:\Users\SOLDER~1\AppData\Local\Temp\ccmjpsKj.s:28396  .debug_str:000000000001ecbc .LASF1748
C:\Users\SOLDER~1\AppData\Local\Temp\ccmjpsKj.s:32450  .debug_str:000000000002f299 .LASF1749
C:\Users\SOLDER~1\AppData\Local\Temp\ccmjpsKj.s:22696  .debug_str:0000000000007a8c .LASF1750
C:\Users\SOLDER~1\AppData\Local\Temp\ccmjpsKj.s:28252  .debug_str:000000000001e323 .LASF1751
C:\Users\SOLDER~1\AppData\Local\Temp\ccmjpsKj.s:25746  .debug_str:00000000000141c7 .LASF1752
C:\Users\SOLDER~1\AppData\Local\Temp\ccmjpsKj.s:26524  .debug_str:0000000000017368 .LASF1753
C:\Users\SOLDER~1\AppData\Local\Temp\ccmjpsKj.s:21914  .debug_str:000000000000484b .LASF1754
C:\Users\SOLDER~1\AppData\Local\Temp\ccmjpsKj.s:30336  .debug_str:0000000000026a58 .LASF1755
C:\Users\SOLDER~1\AppData\Local\Temp\ccmjpsKj.s:29402  .debug_str:0000000000022d44 .LASF1756
C:\Users\SOLDER~1\AppData\Local\Temp\ccmjpsKj.s:24426  .debug_str:000000000000ec0f .LASF1757
C:\Users\SOLDER~1\AppData\Local\Temp\ccmjpsKj.s:26122  .debug_str:0000000000015a63 .LASF1758
C:\Users\SOLDER~1\AppData\Local\Temp\ccmjpsKj.s:28426  .debug_str:000000000001ee9d .LASF1759
C:\Users\SOLDER~1\AppData\Local\Temp\ccmjpsKj.s:22848  .debug_str:0000000000008479 .LASF1760
C:\Users\SOLDER~1\AppData\Local\Temp\ccmjpsKj.s:29014  .debug_str:00000000000214e2 .LASF1761
C:\Users\SOLDER~1\AppData\Local\Temp\ccmjpsKj.s:23740  .debug_str:000000000000be6c .LASF1762
C:\Users\SOLDER~1\AppData\Local\Temp\ccmjpsKj.s:21346  .debug_str:0000000000002437 .LASF1763
GAS LISTING C:\Users\SOLDER~1\AppData\Local\Temp\ccmjpsKj.s 			page 84


C:\Users\SOLDER~1\AppData\Local\Temp\ccmjpsKj.s:24338  .debug_str:000000000000e650 .LASF1764
C:\Users\SOLDER~1\AppData\Local\Temp\ccmjpsKj.s:25228  .debug_str:0000000000011fc7 .LASF1765
C:\Users\SOLDER~1\AppData\Local\Temp\ccmjpsKj.s:28032  .debug_str:000000000001d538 .LASF1766
C:\Users\SOLDER~1\AppData\Local\Temp\ccmjpsKj.s:26310  .debug_str:000000000001662f .LASF1767
C:\Users\SOLDER~1\AppData\Local\Temp\ccmjpsKj.s:28968  .debug_str:00000000000211db .LASF1768
C:\Users\SOLDER~1\AppData\Local\Temp\ccmjpsKj.s:26590  .debug_str:00000000000177e1 .LASF1769
C:\Users\SOLDER~1\AppData\Local\Temp\ccmjpsKj.s:31086  .debug_str:0000000000029acc .LASF1770
C:\Users\SOLDER~1\AppData\Local\Temp\ccmjpsKj.s:30100  .debug_str:0000000000025a65 .LASF1771
C:\Users\SOLDER~1\AppData\Local\Temp\ccmjpsKj.s:26286  .debug_str:000000000001649b .LASF1772
C:\Users\SOLDER~1\AppData\Local\Temp\ccmjpsKj.s:24070  .debug_str:000000000000d4d9 .LASF1773
C:\Users\SOLDER~1\AppData\Local\Temp\ccmjpsKj.s:25628  .debug_str:0000000000013966 .LASF1774
C:\Users\SOLDER~1\AppData\Local\Temp\ccmjpsKj.s:20920  .debug_str:000000000000084a .LASF1775
C:\Users\SOLDER~1\AppData\Local\Temp\ccmjpsKj.s:30454  .debug_str:0000000000027223 .LASF1776
C:\Users\SOLDER~1\AppData\Local\Temp\ccmjpsKj.s:32166  .debug_str:000000000002e088 .LASF1777
C:\Users\SOLDER~1\AppData\Local\Temp\ccmjpsKj.s:29270  .debug_str:0000000000022472 .LASF1778
C:\Users\SOLDER~1\AppData\Local\Temp\ccmjpsKj.s:28690  .debug_str:000000000001ffce .LASF1779
C:\Users\SOLDER~1\AppData\Local\Temp\ccmjpsKj.s:24634  .debug_str:000000000000f915 .LASF1780
C:\Users\SOLDER~1\AppData\Local\Temp\ccmjpsKj.s:31422  .debug_str:000000000002b082 .LASF1781
C:\Users\SOLDER~1\AppData\Local\Temp\ccmjpsKj.s:30562  .debug_str:000000000002793a .LASF1782
C:\Users\SOLDER~1\AppData\Local\Temp\ccmjpsKj.s:24484  .debug_str:000000000000ef78 .LASF1783
C:\Users\SOLDER~1\AppData\Local\Temp\ccmjpsKj.s:21930  .debug_str:0000000000004957 .LASF1784
C:\Users\SOLDER~1\AppData\Local\Temp\ccmjpsKj.s:22704  .debug_str:0000000000007b1a .LASF1785
C:\Users\SOLDER~1\AppData\Local\Temp\ccmjpsKj.s:29772  .debug_str:000000000002452a .LASF1786
C:\Users\SOLDER~1\AppData\Local\Temp\ccmjpsKj.s:26648  .debug_str:0000000000017b8c .LASF1787
C:\Users\SOLDER~1\AppData\Local\Temp\ccmjpsKj.s:25706  .debug_str:0000000000013f0e .LASF1788
C:\Users\SOLDER~1\AppData\Local\Temp\ccmjpsKj.s:32344  .debug_str:000000000002ebdd .LASF1789
C:\Users\SOLDER~1\AppData\Local\Temp\ccmjpsKj.s:22224  .debug_str:0000000000005bb0 .LASF1790
C:\Users\SOLDER~1\AppData\Local\Temp\ccmjpsKj.s:21100  .debug_str:000000000000145e .LASF1791
C:\Users\SOLDER~1\AppData\Local\Temp\ccmjpsKj.s:27200  .debug_str:0000000000019f49 .LASF1792
C:\Users\SOLDER~1\AppData\Local\Temp\ccmjpsKj.s:21704  .debug_str:0000000000003b17 .LASF1793
C:\Users\SOLDER~1\AppData\Local\Temp\ccmjpsKj.s:27976  .debug_str:000000000001d172 .LASF1794
C:\Users\SOLDER~1\AppData\Local\Temp\ccmjpsKj.s:27940  .debug_str:000000000001cef6 .LASF1795
C:\Users\SOLDER~1\AppData\Local\Temp\ccmjpsKj.s:28656  .debug_str:000000000001fdb6 .LASF1796
C:\Users\SOLDER~1\AppData\Local\Temp\ccmjpsKj.s:24966  .debug_str:0000000000010ed5 .LASF1797
C:\Users\SOLDER~1\AppData\Local\Temp\ccmjpsKj.s:32388  .debug_str:000000000002eee4 .LASF1798
C:\Users\SOLDER~1\AppData\Local\Temp\ccmjpsKj.s:30574  .debug_str:0000000000027a09 .LASF1799
C:\Users\SOLDER~1\AppData\Local\Temp\ccmjpsKj.s:21648  .debug_str:000000000000377b .LASF1800
C:\Users\SOLDER~1\AppData\Local\Temp\ccmjpsKj.s:22762  .debug_str:0000000000007eed .LASF1801
C:\Users\SOLDER~1\AppData\Local\Temp\ccmjpsKj.s:28526  .debug_str:000000000001f544 .LASF1802
C:\Users\SOLDER~1\AppData\Local\Temp\ccmjpsKj.s:26388  .debug_str:0000000000016ad4 .LASF1803
C:\Users\SOLDER~1\AppData\Local\Temp\ccmjpsKj.s:22374  .debug_str:000000000000657c .LASF1804
C:\Users\SOLDER~1\AppData\Local\Temp\ccmjpsKj.s:31982  .debug_str:000000000002d4ea .LASF1805
C:\Users\SOLDER~1\AppData\Local\Temp\ccmjpsKj.s:21810  .debug_str:00000000000041b7 .LASF1806
C:\Users\SOLDER~1\AppData\Local\Temp\ccmjpsKj.s:28772  .debug_str:00000000000204f2 .LASF1807
C:\Users\SOLDER~1\AppData\Local\Temp\ccmjpsKj.s:26600  .debug_str:000000000001788f .LASF1808
C:\Users\SOLDER~1\AppData\Local\Temp\ccmjpsKj.s:28268  .debug_str:000000000001e441 .LASF1809
C:\Users\SOLDER~1\AppData\Local\Temp\ccmjpsKj.s:25560  .debug_str:00000000000134e1 .LASF1810
C:\Users\SOLDER~1\AppData\Local\Temp\ccmjpsKj.s:27518  .debug_str:000000000001b3ab .LASF1811
C:\Users\SOLDER~1\AppData\Local\Temp\ccmjpsKj.s:20870  .debug_str:0000000000000488 .LASF1812
C:\Users\SOLDER~1\AppData\Local\Temp\ccmjpsKj.s:24884  .debug_str:0000000000010999 .LASF1813
C:\Users\SOLDER~1\AppData\Local\Temp\ccmjpsKj.s:26850  .debug_str:00000000000188d3 .LASF1814
C:\Users\SOLDER~1\AppData\Local\Temp\ccmjpsKj.s:32310  .debug_str:000000000002e9a2 .LASF1815
C:\Users\SOLDER~1\AppData\Local\Temp\ccmjpsKj.s:28218  .debug_str:000000000001e11a .LASF1816
C:\Users\SOLDER~1\AppData\Local\Temp\ccmjpsKj.s:31042  .debug_str:0000000000029824 .LASF1817
C:\Users\SOLDER~1\AppData\Local\Temp\ccmjpsKj.s:26054  .debug_str:0000000000015624 .LASF1818
C:\Users\SOLDER~1\AppData\Local\Temp\ccmjpsKj.s:22806  .debug_str:00000000000081f0 .LASF1819
C:\Users\SOLDER~1\AppData\Local\Temp\ccmjpsKj.s:21884  .debug_str:000000000000464e .LASF1820
GAS LISTING C:\Users\SOLDER~1\AppData\Local\Temp\ccmjpsKj.s 			page 85


C:\Users\SOLDER~1\AppData\Local\Temp\ccmjpsKj.s:28438  .debug_str:000000000001ef5c .LASF1821
C:\Users\SOLDER~1\AppData\Local\Temp\ccmjpsKj.s:30096  .debug_str:0000000000025a1e .LASF1822
C:\Users\SOLDER~1\AppData\Local\Temp\ccmjpsKj.s:25408  .debug_str:0000000000012ad5 .LASF1823
C:\Users\SOLDER~1\AppData\Local\Temp\ccmjpsKj.s:31404  .debug_str:000000000002af67 .LASF1824
C:\Users\SOLDER~1\AppData\Local\Temp\ccmjpsKj.s:25956  .debug_str:0000000000014fe9 .LASF1825
C:\Users\SOLDER~1\AppData\Local\Temp\ccmjpsKj.s:32330  .debug_str:000000000002eadc .LASF1826
C:\Users\SOLDER~1\AppData\Local\Temp\ccmjpsKj.s:30714  .debug_str:0000000000028302 .LASF1827
C:\Users\SOLDER~1\AppData\Local\Temp\ccmjpsKj.s:21324  .debug_str:00000000000022c4 .LASF1828
C:\Users\SOLDER~1\AppData\Local\Temp\ccmjpsKj.s:28432  .debug_str:000000000001eefa .LASF1829
C:\Users\SOLDER~1\AppData\Local\Temp\ccmjpsKj.s:23196  .debug_str:0000000000009b21 .LASF1830
C:\Users\SOLDER~1\AppData\Local\Temp\ccmjpsKj.s:23148  .debug_str:0000000000009807 .LASF1831
C:\Users\SOLDER~1\AppData\Local\Temp\ccmjpsKj.s:25904  .debug_str:0000000000014c72 .LASF1832
C:\Users\SOLDER~1\AppData\Local\Temp\ccmjpsKj.s:30630  .debug_str:0000000000027d5b .LASF1833
C:\Users\SOLDER~1\AppData\Local\Temp\ccmjpsKj.s:23510  .debug_str:000000000000b013 .LASF1834
C:\Users\SOLDER~1\AppData\Local\Temp\ccmjpsKj.s:22470  .debug_str:0000000000006bf3 .LASF1835
C:\Users\SOLDER~1\AppData\Local\Temp\ccmjpsKj.s:30240  .debug_str:00000000000263d9 .LASF1836
C:\Users\SOLDER~1\AppData\Local\Temp\ccmjpsKj.s:28178  .debug_str:000000000001de4d .LASF1837
C:\Users\SOLDER~1\AppData\Local\Temp\ccmjpsKj.s:29084  .debug_str:0000000000021943 .LASF1838
C:\Users\SOLDER~1\AppData\Local\Temp\ccmjpsKj.s:25034  .debug_str:000000000001134c .LASF1839
C:\Users\SOLDER~1\AppData\Local\Temp\ccmjpsKj.s:23794  .debug_str:000000000000c1fe .LASF1840
C:\Users\SOLDER~1\AppData\Local\Temp\ccmjpsKj.s:24502  .debug_str:000000000000f0b2 .LASF1841
C:\Users\SOLDER~1\AppData\Local\Temp\ccmjpsKj.s:21750  .debug_str:0000000000003e05 .LASF1842
C:\Users\SOLDER~1\AppData\Local\Temp\ccmjpsKj.s:23724  .debug_str:000000000000bd82 .LASF1843
C:\Users\SOLDER~1\AppData\Local\Temp\ccmjpsKj.s:28726  .debug_str:0000000000020210 .LASF1844
C:\Users\SOLDER~1\AppData\Local\Temp\ccmjpsKj.s:21106  .debug_str:00000000000014bb .LASF1845
C:\Users\SOLDER~1\AppData\Local\Temp\ccmjpsKj.s:23018  .debug_str:0000000000008f83 .LASF1846
C:\Users\SOLDER~1\AppData\Local\Temp\ccmjpsKj.s:28504  .debug_str:000000000001f3bf .LASF1847
C:\Users\SOLDER~1\AppData\Local\Temp\ccmjpsKj.s:26068  .debug_str:0000000000015724 .LASF1848
C:\Users\SOLDER~1\AppData\Local\Temp\ccmjpsKj.s:26862  .debug_str:00000000000189a0 .LASF1849
C:\Users\SOLDER~1\AppData\Local\Temp\ccmjpsKj.s:22250  .debug_str:0000000000005d48 .LASF1850
C:\Users\SOLDER~1\AppData\Local\Temp\ccmjpsKj.s:30674  .debug_str:000000000002807c .LASF1851
C:\Users\SOLDER~1\AppData\Local\Temp\ccmjpsKj.s:29748  .debug_str:000000000002437b .LASF1852
C:\Users\SOLDER~1\AppData\Local\Temp\ccmjpsKj.s:30974  .debug_str:0000000000029378 .LASF1853
C:\Users\SOLDER~1\AppData\Local\Temp\ccmjpsKj.s:26382  .debug_str:0000000000016a74 .LASF1854
C:\Users\SOLDER~1\AppData\Local\Temp\ccmjpsKj.s:29586  .debug_str:0000000000023935 .LASF1855
C:\Users\SOLDER~1\AppData\Local\Temp\ccmjpsKj.s:27226  .debug_str:000000000001a0c6 .LASF1856
C:\Users\SOLDER~1\AppData\Local\Temp\ccmjpsKj.s:30214  .debug_str:0000000000026214 .LASF1857
C:\Users\SOLDER~1\AppData\Local\Temp\ccmjpsKj.s:24982  .debug_str:0000000000010ff9 .LASF1858
C:\Users\SOLDER~1\AppData\Local\Temp\ccmjpsKj.s:24950  .debug_str:0000000000010dde .LASF1859
C:\Users\SOLDER~1\AppData\Local\Temp\ccmjpsKj.s:25680  .debug_str:0000000000013d28 .LASF1860
C:\Users\SOLDER~1\AppData\Local\Temp\ccmjpsKj.s:23492  .debug_str:000000000000aee4 .LASF1861
C:\Users\SOLDER~1\AppData\Local\Temp\ccmjpsKj.s:29208  .debug_str:00000000000220d4 .LASF1862
C:\Users\SOLDER~1\AppData\Local\Temp\ccmjpsKj.s:27492  .debug_str:000000000001b24a .LASF1863
C:\Users\SOLDER~1\AppData\Local\Temp\ccmjpsKj.s:30156  .debug_str:0000000000025e2c .LASF1864
C:\Users\SOLDER~1\AppData\Local\Temp\ccmjpsKj.s:26920  .debug_str:0000000000018d53 .LASF1865
C:\Users\SOLDER~1\AppData\Local\Temp\ccmjpsKj.s:31412  .debug_str:000000000002afe2 .LASF1866
C:\Users\SOLDER~1\AppData\Local\Temp\ccmjpsKj.s:30342  .debug_str:0000000000026acb .LASF1867
C:\Users\SOLDER~1\AppData\Local\Temp\ccmjpsKj.s:26536  .debug_str:0000000000017438 .LASF1868
C:\Users\SOLDER~1\AppData\Local\Temp\ccmjpsKj.s:24414  .debug_str:000000000000eb54 .LASF1869
C:\Users\SOLDER~1\AppData\Local\Temp\ccmjpsKj.s:25960  .debug_str:0000000000015032 .LASF1870
C:\Users\SOLDER~1\AppData\Local\Temp\ccmjpsKj.s:21156  .debug_str:0000000000001809 .LASF1871
C:\Users\SOLDER~1\AppData\Local\Temp\ccmjpsKj.s:30800  .debug_str:0000000000028896 .LASF1872
C:\Users\SOLDER~1\AppData\Local\Temp\ccmjpsKj.s:29752  .debug_str:00000000000243cd .LASF1873
C:\Users\SOLDER~1\AppData\Local\Temp\ccmjpsKj.s:29600  .debug_str:0000000000023a2b .LASF1874
C:\Users\SOLDER~1\AppData\Local\Temp\ccmjpsKj.s:31630  .debug_str:000000000002bddc .LASF1875
C:\Users\SOLDER~1\AppData\Local\Temp\ccmjpsKj.s:29142  .debug_str:0000000000021cab .LASF1876
C:\Users\SOLDER~1\AppData\Local\Temp\ccmjpsKj.s:27880  .debug_str:000000000001cad9 .LASF1877
GAS LISTING C:\Users\SOLDER~1\AppData\Local\Temp\ccmjpsKj.s 			page 86


C:\Users\SOLDER~1\AppData\Local\Temp\ccmjpsKj.s:32300  .debug_str:000000000002e8f5 .LASF1878
C:\Users\SOLDER~1\AppData\Local\Temp\ccmjpsKj.s:29554  .debug_str:0000000000023708 .LASF1879
C:\Users\SOLDER~1\AppData\Local\Temp\ccmjpsKj.s:22268  .debug_str:0000000000005e5f .LASF1880
C:\Users\SOLDER~1\AppData\Local\Temp\ccmjpsKj.s:23028  .debug_str:0000000000009030 .LASF1881
C:\Users\SOLDER~1\AppData\Local\Temp\ccmjpsKj.s:30112  .debug_str:0000000000025b40 .LASF1882
C:\Users\SOLDER~1\AppData\Local\Temp\ccmjpsKj.s:26962  .debug_str:0000000000019024 .LASF1883
C:\Users\SOLDER~1\AppData\Local\Temp\ccmjpsKj.s:21068  .debug_str:000000000000124e .LASF1884
C:\Users\SOLDER~1\AppData\Local\Temp\ccmjpsKj.s:20916  .debug_str:00000000000007ff .LASF1885
C:\Users\SOLDER~1\AppData\Local\Temp\ccmjpsKj.s:22566  .debug_str:0000000000007262 .LASF1886
C:\Users\SOLDER~1\AppData\Local\Temp\ccmjpsKj.s:22280  .debug_str:0000000000005f0c .LASF1887
C:\Users\SOLDER~1\AppData\Local\Temp\ccmjpsKj.s:28364  .debug_str:000000000001ea89 .LASF1888
C:\Users\SOLDER~1\AppData\Local\Temp\ccmjpsKj.s:22898  .debug_str:000000000000877e .LASF1889
C:\Users\SOLDER~1\AppData\Local\Temp\ccmjpsKj.s:29238  .debug_str:000000000002229a .LASF1890
C:\Users\SOLDER~1\AppData\Local\Temp\ccmjpsKj.s:29202  .debug_str:0000000000022063 .LASF1891
C:\Users\SOLDER~1\AppData\Local\Temp\ccmjpsKj.s:29834  .debug_str:0000000000024949 .LASF1892
C:\Users\SOLDER~1\AppData\Local\Temp\ccmjpsKj.s:25338  .debug_str:0000000000012677 .LASF1893
C:\Users\SOLDER~1\AppData\Local\Temp\ccmjpsKj.s:21894  .debug_str:00000000000046fa .LASF1894
C:\Users\SOLDER~1\AppData\Local\Temp\ccmjpsKj.s:31810  .debug_str:000000000002c9c4 .LASF1895
C:\Users\SOLDER~1\AppData\Local\Temp\ccmjpsKj.s:22840  .debug_str:0000000000008406 .LASF1896
C:\Users\SOLDER~1\AppData\Local\Temp\ccmjpsKj.s:23084  .debug_str:00000000000093fc .LASF1897
C:\Users\SOLDER~1\AppData\Local\Temp\ccmjpsKj.s:27556  .debug_str:000000000001b608 .LASF1898
C:\Users\SOLDER~1\AppData\Local\Temp\ccmjpsKj.s:26652  .debug_str:0000000000017bc5 .LASF1899
C:\Users\SOLDER~1\AppData\Local\Temp\ccmjpsKj.s:22716  .debug_str:0000000000007bd2 .LASF1900
C:\Users\SOLDER~1\AppData\Local\Temp\ccmjpsKj.s:32332  .debug_str:000000000002eb00 .LASF1901
C:\Users\SOLDER~1\AppData\Local\Temp\ccmjpsKj.s:22150  .debug_str:0000000000005674 .LASF1902
C:\Users\SOLDER~1\AppData\Local\Temp\ccmjpsKj.s:31918  .debug_str:000000000002d074 .LASF1903
C:\Users\SOLDER~1\AppData\Local\Temp\ccmjpsKj.s:27066  .debug_str:00000000000196e2 .LASF1904
C:\Users\SOLDER~1\AppData\Local\Temp\ccmjpsKj.s:28612  .debug_str:000000000001fb14 .LASF1905
C:\Users\SOLDER~1\AppData\Local\Temp\ccmjpsKj.s:25898  .debug_str:0000000000014bf0 .LASF1906
C:\Users\SOLDER~1\AppData\Local\Temp\ccmjpsKj.s:27832  .debug_str:000000000001c79c .LASF1907
C:\Users\SOLDER~1\AppData\Local\Temp\ccmjpsKj.s:32216  .debug_str:000000000002e3ac .LASF1908
C:\Users\SOLDER~1\AppData\Local\Temp\ccmjpsKj.s:30894  .debug_str:0000000000028eb6 .LASF1909
C:\Users\SOLDER~1\AppData\Local\Temp\ccmjpsKj.s:27166  .debug_str:0000000000019d0d .LASF1910
C:\Users\SOLDER~1\AppData\Local\Temp\ccmjpsKj.s:20970  .debug_str:0000000000000bf8 .LASF1911
C:\Users\SOLDER~1\AppData\Local\Temp\ccmjpsKj.s:30130  .debug_str:0000000000025c89 .LASF1912
C:\Users\SOLDER~1\AppData\Local\Temp\ccmjpsKj.s:30916  .debug_str:0000000000028fe4 .LASF1913
C:\Users\SOLDER~1\AppData\Local\Temp\ccmjpsKj.s:26406  .debug_str:0000000000016c0e .LASF1914
C:\Users\SOLDER~1\AppData\Local\Temp\ccmjpsKj.s:31682  .debug_str:000000000002c123 .LASF1915
C:\Users\SOLDER~1\AppData\Local\Temp\ccmjpsKj.s:22218  .debug_str:0000000000005b43 .LASF1916
C:\Users\SOLDER~1\AppData\Local\Temp\ccmjpsKj.s:28768  .debug_str:00000000000204ba .LASF1917
C:\Users\SOLDER~1\AppData\Local\Temp\ccmjpsKj.s:27340  .debug_str:000000000001a81b .LASF1918
C:\Users\SOLDER~1\AppData\Local\Temp\ccmjpsKj.s:30756  .debug_str:00000000000285b1 .LASF1919
C:\Users\SOLDER~1\AppData\Local\Temp\ccmjpsKj.s:21056  .debug_str:000000000000118b .LASF1920
C:\Users\SOLDER~1\AppData\Local\Temp\ccmjpsKj.s:27246  .debug_str:000000000001a209 .LASF1921
C:\Users\SOLDER~1\AppData\Local\Temp\ccmjpsKj.s:21828  .debug_str:00000000000042e4 .LASF1922
C:\Users\SOLDER~1\AppData\Local\Temp\ccmjpsKj.s:21794  .debug_str:00000000000040b6 .LASF1923
C:\Users\SOLDER~1\AppData\Local\Temp\ccmjpsKj.s:29566  .debug_str:00000000000237d5 .LASF1924
C:\Users\SOLDER~1\AppData\Local\Temp\ccmjpsKj.s:29598  .debug_str:0000000000023a07 .LASF1925
C:\Users\SOLDER~1\AppData\Local\Temp\ccmjpsKj.s:26252  .debug_str:000000000001627f .LASF1926
C:\Users\SOLDER~1\AppData\Local\Temp\ccmjpsKj.s:24450  .debug_str:000000000000ed55 .LASF1927
C:\Users\SOLDER~1\AppData\Local\Temp\ccmjpsKj.s:27192  .debug_str:0000000000019ec1 .LASF1928
C:\Users\SOLDER~1\AppData\Local\Temp\ccmjpsKj.s:30882  .debug_str:0000000000028e02 .LASF1929
C:\Users\SOLDER~1\AppData\Local\Temp\ccmjpsKj.s:23750  .debug_str:000000000000bef9 .LASF1930
C:\Users\SOLDER~1\AppData\Local\Temp\ccmjpsKj.s:22810  .debug_str:0000000000008230 .LASF1931
C:\Users\SOLDER~1\AppData\Local\Temp\ccmjpsKj.s:30586  .debug_str:0000000000027abb .LASF1932
C:\Users\SOLDER~1\AppData\Local\Temp\ccmjpsKj.s:24210  .debug_str:000000000000ddb0 .LASF1933
C:\Users\SOLDER~1\AppData\Local\Temp\ccmjpsKj.s:30014  .debug_str:00000000000254dd .LASF1934
GAS LISTING C:\Users\SOLDER~1\AppData\Local\Temp\ccmjpsKj.s 			page 87


C:\Users\SOLDER~1\AppData\Local\Temp\ccmjpsKj.s:20800  .debug_str:0000000000000023 .LASF1935
C:\Users\SOLDER~1\AppData\Local\Temp\ccmjpsKj.s:23234  .debug_str:0000000000009da8 .LASF1936
C:\Users\SOLDER~1\AppData\Local\Temp\ccmjpsKj.s:24860  .debug_str:0000000000010834 .LASF1937
C:\Users\SOLDER~1\AppData\Local\Temp\ccmjpsKj.s:22078  .debug_str:000000000000525f .LASF1938
C:\Users\SOLDER~1\AppData\Local\Temp\ccmjpsKj.s:24052  .debug_str:000000000000d3a5 .LASF1939
C:\Users\SOLDER~1\AppData\Local\Temp\ccmjpsKj.s:28956  .debug_str:0000000000021108 .LASF1940
C:\Users\SOLDER~1\AppData\Local\Temp\ccmjpsKj.s:21330  .debug_str:0000000000002322 .LASF1941
C:\Users\SOLDER~1\AppData\Local\Temp\ccmjpsKj.s:26698  .debug_str:0000000000017ed0 .LASF1942
C:\Users\SOLDER~1\AppData\Local\Temp\ccmjpsKj.s:28812  .debug_str:00000000000207a8 .LASF1943
C:\Users\SOLDER~1\AppData\Local\Temp\ccmjpsKj.s:30870  .debug_str:0000000000028d35 .LASF1944
C:\Users\SOLDER~1\AppData\Local\Temp\ccmjpsKj.s:27088  .debug_str:000000000001985b .LASF1945
C:\Users\SOLDER~1\AppData\Local\Temp\ccmjpsKj.s:22592  .debug_str:000000000000743d .LASF1946
C:\Users\SOLDER~1\AppData\Local\Temp\ccmjpsKj.s:31036  .debug_str:00000000000297b5 .LASF1947
C:\Users\SOLDER~1\AppData\Local\Temp\ccmjpsKj.s:29992  .debug_str:00000000000253a0 .LASF1948
C:\Users\SOLDER~1\AppData\Local\Temp\ccmjpsKj.s:28350  .debug_str:000000000001e991 .LASF1949
C:\Users\SOLDER~1\AppData\Local\Temp\ccmjpsKj.s:26734  .debug_str:0000000000018135 .LASF1950
C:\Users\SOLDER~1\AppData\Local\Temp\ccmjpsKj.s:24244  .debug_str:000000000000dfd6 .LASF1951
C:\Users\SOLDER~1\AppData\Local\Temp\ccmjpsKj.s:25276  .debug_str:00000000000122a1 .LASF1952
C:\Users\SOLDER~1\AppData\Local\Temp\ccmjpsKj.s:31452  .debug_str:000000000002b23e .LASF1953
C:\Users\SOLDER~1\AppData\Local\Temp\ccmjpsKj.s:26192  .debug_str:0000000000015e92 .LASF1954
C:\Users\SOLDER~1\AppData\Local\Temp\ccmjpsKj.s:27124  .debug_str:0000000000019aa5 .LASF1955
C:\Users\SOLDER~1\AppData\Local\Temp\ccmjpsKj.s:26894  .debug_str:0000000000018ba1 .LASF1956
C:\Users\SOLDER~1\AppData\Local\Temp\ccmjpsKj.s:22296  .debug_str:0000000000006024 .LASF1957
C:\Users\SOLDER~1\AppData\Local\Temp\ccmjpsKj.s:30518  .debug_str:0000000000027648 .LASF1958
C:\Users\SOLDER~1\AppData\Local\Temp\ccmjpsKj.s:28664  .debug_str:000000000001fe3a .LASF1959
C:\Users\SOLDER~1\AppData\Local\Temp\ccmjpsKj.s:31396  .debug_str:000000000002aee8 .LASF1960
C:\Users\SOLDER~1\AppData\Local\Temp\ccmjpsKj.s:27142  .debug_str:0000000000019bc1 .LASF1961
C:\Users\SOLDER~1\AppData\Local\Temp\ccmjpsKj.s:30176  .debug_str:0000000000025f60 .LASF1962
C:\Users\SOLDER~1\AppData\Local\Temp\ccmjpsKj.s:30676  .debug_str:00000000000280a1 .LASF1963
C:\Users\SOLDER~1\AppData\Local\Temp\ccmjpsKj.s:26878  .debug_str:0000000000018a98 .LASF1964
C:\Users\SOLDER~1\AppData\Local\Temp\ccmjpsKj.s:27266  .debug_str:000000000001a366 .LASF1965
C:\Users\SOLDER~1\AppData\Local\Temp\ccmjpsKj.s:26300  .debug_str:000000000001658e .LASF1966
C:\Users\SOLDER~1\AppData\Local\Temp\ccmjpsKj.s:21474  .debug_str:0000000000002c36 .LASF1967
C:\Users\SOLDER~1\AppData\Local\Temp\ccmjpsKj.s:31154  .debug_str:0000000000029f06 .LASF1968
C:\Users\SOLDER~1\AppData\Local\Temp\ccmjpsKj.s:27194  .debug_str:0000000000019ee5 .LASF1969
C:\Users\SOLDER~1\AppData\Local\Temp\ccmjpsKj.s:29946  .debug_str:00000000000250a8 .LASF1970
C:\Users\SOLDER~1\AppData\Local\Temp\ccmjpsKj.s:31960  .debug_str:000000000002d352 .LASF1971
C:\Users\SOLDER~1\AppData\Local\Temp\ccmjpsKj.s:25216  .debug_str:0000000000011ef1 .LASF1972
C:\Users\SOLDER~1\AppData\Local\Temp\ccmjpsKj.s:29180  .debug_str:0000000000021efe .LASF1973
C:\Users\SOLDER~1\AppData\Local\Temp\ccmjpsKj.s:31244  .debug_str:000000000002a544 .LASF1974
C:\Users\SOLDER~1\AppData\Local\Temp\ccmjpsKj.s:25080  .debug_str:0000000000011631 .LASF1975
C:\Users\SOLDER~1\AppData\Local\Temp\ccmjpsKj.s:22612  .debug_str:0000000000007578 .LASF1976
C:\Users\SOLDER~1\AppData\Local\Temp\ccmjpsKj.s:23258  .debug_str:0000000000009f5c .LASF1977
C:\Users\SOLDER~1\AppData\Local\Temp\ccmjpsKj.s:20966  .debug_str:0000000000000bb0 .LASF1978
C:\Users\SOLDER~1\AppData\Local\Temp\ccmjpsKj.s:27190  .debug_str:0000000000019e9c .LASF1979
C:\Users\SOLDER~1\AppData\Local\Temp\ccmjpsKj.s:26280  .debug_str:0000000000016438 .LASF1980
C:\Users\SOLDER~1\AppData\Local\Temp\ccmjpsKj.s:21238  .debug_str:0000000000001d4c .LASF1981
C:\Users\SOLDER~1\AppData\Local\Temp\ccmjpsKj.s:22900  .debug_str:00000000000087a2 .LASF1982
C:\Users\SOLDER~1\AppData\Local\Temp\ccmjpsKj.s:23476  .debug_str:000000000000adc5 .LASF1983
C:\Users\SOLDER~1\AppData\Local\Temp\ccmjpsKj.s:29540  .debug_str:0000000000023608 .LASF1984
C:\Users\SOLDER~1\AppData\Local\Temp\ccmjpsKj.s:25204  .debug_str:0000000000011e1d .LASF1985
C:\Users\SOLDER~1\AppData\Local\Temp\ccmjpsKj.s:30458  .debug_str:000000000002726e .LASF1986
C:\Users\SOLDER~1\AppData\Local\Temp\ccmjpsKj.s:30414  .debug_str:0000000000026f90 .LASF1987
C:\Users\SOLDER~1\AppData\Local\Temp\ccmjpsKj.s:31178  .debug_str:000000000002a0d0 .LASF1988
C:\Users\SOLDER~1\AppData\Local\Temp\ccmjpsKj.s:26578  .debug_str:0000000000017724 .LASF1989
C:\Users\SOLDER~1\AppData\Local\Temp\ccmjpsKj.s:23804  .debug_str:000000000000c2c1 .LASF1990
C:\Users\SOLDER~1\AppData\Local\Temp\ccmjpsKj.s:21336  .debug_str:0000000000002384 .LASF1991
GAS LISTING C:\Users\SOLDER~1\AppData\Local\Temp\ccmjpsKj.s 			page 88


C:\Users\SOLDER~1\AppData\Local\Temp\ccmjpsKj.s:24040  .debug_str:000000000000d2e1 .LASF1992
C:\Users\SOLDER~1\AppData\Local\Temp\ccmjpsKj.s:29156  .debug_str:0000000000021d9e .LASF1993
C:\Users\SOLDER~1\AppData\Local\Temp\ccmjpsKj.s:21570  .debug_str:0000000000003278 .LASF1994
C:\Users\SOLDER~1\AppData\Local\Temp\ccmjpsKj.s:26968  .debug_str:0000000000019093 .LASF1995
C:\Users\SOLDER~1\AppData\Local\Temp\ccmjpsKj.s:23042  .debug_str:0000000000009141 .LASF1996
C:\Users\SOLDER~1\AppData\Local\Temp\ccmjpsKj.s:21000  .debug_str:0000000000000e23 .LASF1997
C:\Users\SOLDER~1\AppData\Local\Temp\ccmjpsKj.s:22396  .debug_str:0000000000006712 .LASF1998
C:\Users\SOLDER~1\AppData\Local\Temp\ccmjpsKj.s:29324  .debug_str:00000000000227ea .LASF1999
C:\Users\SOLDER~1\AppData\Local\Temp\ccmjpsKj.s:27384  .debug_str:000000000001ab1f .LASF2000
C:\Users\SOLDER~1\AppData\Local\Temp\ccmjpsKj.s:28916  .debug_str:0000000000020e67 .LASF2001
C:\Users\SOLDER~1\AppData\Local\Temp\ccmjpsKj.s:26142  .debug_str:0000000000015b77 .LASF2002
C:\Users\SOLDER~1\AppData\Local\Temp\ccmjpsKj.s:28066  .debug_str:000000000001d78a .LASF2003
C:\Users\SOLDER~1\AppData\Local\Temp\ccmjpsKj.s:21424  .debug_str:000000000000297c .LASF2004
C:\Users\SOLDER~1\AppData\Local\Temp\ccmjpsKj.s:25454  .debug_str:0000000000012ddc .LASF2005
C:\Users\SOLDER~1\AppData\Local\Temp\ccmjpsKj.s:21034  .debug_str:0000000000001027 .LASF2006
C:\Users\SOLDER~1\AppData\Local\Temp\ccmjpsKj.s:21282  .debug_str:000000000000201f .LASF2007
C:\Users\SOLDER~1\AppData\Local\Temp\ccmjpsKj.s:30482  .debug_str:00000000000273f4 .LASF2008
C:\Users\SOLDER~1\AppData\Local\Temp\ccmjpsKj.s:31184  .debug_str:000000000002a13b .LASF2009
C:\Users\SOLDER~1\AppData\Local\Temp\ccmjpsKj.s:23954  .debug_str:000000000000cd47 .LASF2010
C:\Users\SOLDER~1\AppData\Local\Temp\ccmjpsKj.s:23368  .debug_str:000000000000a6d3 .LASF2011
C:\Users\SOLDER~1\AppData\Local\Temp\ccmjpsKj.s:22462  .debug_str:0000000000006b79 .LASF2012
C:\Users\SOLDER~1\AppData\Local\Temp\ccmjpsKj.s:22728  .debug_str:0000000000007c8e .LASF2013
C:\Users\SOLDER~1\AppData\Local\Temp\ccmjpsKj.s:30778  .debug_str:0000000000028731 .LASF2014
C:\Users\SOLDER~1\AppData\Local\Temp\ccmjpsKj.s:27798  .debug_str:000000000001c575 .LASF2015
C:\Users\SOLDER~1\AppData\Local\Temp\ccmjpsKj.s:22226  .debug_str:0000000000005bd5 .LASF2016
C:\Users\SOLDER~1\AppData\Local\Temp\ccmjpsKj.s:28416  .debug_str:000000000001ee03 .LASF2017
C:\Users\SOLDER~1\AppData\Local\Temp\ccmjpsKj.s:23124  .debug_str:000000000000967c .LASF2018
C:\Users\SOLDER~1\AppData\Local\Temp\ccmjpsKj.s:22994  .debug_str:0000000000008de0 .LASF2019
C:\Users\SOLDER~1\AppData\Local\Temp\ccmjpsKj.s:23722  .debug_str:000000000000bd5e .LASF2020
C:\Users\SOLDER~1\AppData\Local\Temp\ccmjpsKj.s:30842  .debug_str:0000000000028b5b .LASF2021
C:\Users\SOLDER~1\AppData\Local\Temp\ccmjpsKj.s:27430  .debug_str:000000000001adf6 .LASF2022
C:\Users\SOLDER~1\AppData\Local\Temp\ccmjpsKj.s:25692  .debug_str:0000000000013e0b .LASF2023
C:\Users\SOLDER~1\AppData\Local\Temp\ccmjpsKj.s:31826  .debug_str:000000000002cac5 .LASF2024
C:\Users\SOLDER~1\AppData\Local\Temp\ccmjpsKj.s:32236  .debug_str:000000000002e4ec .LASF2025
C:\Users\SOLDER~1\AppData\Local\Temp\ccmjpsKj.s:24580  .debug_str:000000000000f58a .LASF2026
C:\Users\SOLDER~1\AppData\Local\Temp\ccmjpsKj.s:23138  .debug_str:0000000000009761 .LASF2027
C:\Users\SOLDER~1\AppData\Local\Temp\ccmjpsKj.s:30932  .debug_str:00000000000290e9 .LASF2028
C:\Users\SOLDER~1\AppData\Local\Temp\ccmjpsKj.s:28834  .debug_str:000000000002090c .LASF2029
C:\Users\SOLDER~1\AppData\Local\Temp\ccmjpsKj.s:30254  .debug_str:00000000000264cc .LASF2030
C:\Users\SOLDER~1\AppData\Local\Temp\ccmjpsKj.s:25618  .debug_str:00000000000138c4 .LASF2031
C:\Users\SOLDER~1\AppData\Local\Temp\ccmjpsKj.s:23486  .debug_str:000000000000ae8e .LASF2032
C:\Users\SOLDER~1\AppData\Local\Temp\ccmjpsKj.s:25190  .debug_str:0000000000011d3c .LASF2033
C:\Users\SOLDER~1\AppData\Local\Temp\ccmjpsKj.s:22328  .debug_str:000000000000626f .LASF2034
C:\Users\SOLDER~1\AppData\Local\Temp\ccmjpsKj.s:24298  .debug_str:000000000000e3c0 .LASF2035
C:\Users\SOLDER~1\AppData\Local\Temp\ccmjpsKj.s:31868  .debug_str:000000000002cd55 .LASF2036
C:\Users\SOLDER~1\AppData\Local\Temp\ccmjpsKj.s:31316  .debug_str:000000000002aa00 .LASF2037
C:\Users\SOLDER~1\AppData\Local\Temp\ccmjpsKj.s:23102  .debug_str:000000000000953b .LASF2038
C:\Users\SOLDER~1\AppData\Local\Temp\ccmjpsKj.s:29140  .debug_str:0000000000021c86 .LASF2039
C:\Users\SOLDER~1\AppData\Local\Temp\ccmjpsKj.s:26688  .debug_str:0000000000017e16 .LASF2040
C:\Users\SOLDER~1\AppData\Local\Temp\ccmjpsKj.s:27408  .debug_str:000000000001ac8b .LASF2041
C:\Users\SOLDER~1\AppData\Local\Temp\ccmjpsKj.s:26086  .debug_str:0000000000015852 .LASF2042
C:\Users\SOLDER~1\AppData\Local\Temp\ccmjpsKj.s:31272  .debug_str:000000000002a71c .LASF2043
C:\Users\SOLDER~1\AppData\Local\Temp\ccmjpsKj.s:30332  .debug_str:0000000000026a02 .LASF2044
C:\Users\SOLDER~1\AppData\Local\Temp\ccmjpsKj.s:25776  .debug_str:00000000000143b0 .LASF2045
C:\Users\SOLDER~1\AppData\Local\Temp\ccmjpsKj.s:27044  .debug_str:0000000000019558 .LASF2046
C:\Users\SOLDER~1\AppData\Local\Temp\ccmjpsKj.s:23072  .debug_str:0000000000009336 .LASF2047
C:\Users\SOLDER~1\AppData\Local\Temp\ccmjpsKj.s:29146  .debug_str:0000000000021cf2 .LASF2048
GAS LISTING C:\Users\SOLDER~1\AppData\Local\Temp\ccmjpsKj.s 			page 89


C:\Users\SOLDER~1\AppData\Local\Temp\ccmjpsKj.s:23692  .debug_str:000000000000bb4d .LASF2049
C:\Users\SOLDER~1\AppData\Local\Temp\ccmjpsKj.s:30048  .debug_str:000000000002571e .LASF2050
C:\Users\SOLDER~1\AppData\Local\Temp\ccmjpsKj.s:28704  .debug_str:00000000000200aa .LASF2051
C:\Users\SOLDER~1\AppData\Local\Temp\ccmjpsKj.s:30660  .debug_str:0000000000027f6e .LASF2052
C:\Users\SOLDER~1\AppData\Local\Temp\ccmjpsKj.s:26158  .debug_str:0000000000015c75 .LASF2053
C:\Users\SOLDER~1\AppData\Local\Temp\ccmjpsKj.s:31956  .debug_str:000000000002d30b .LASF2054
C:\Users\SOLDER~1\AppData\Local\Temp\ccmjpsKj.s:20950  .debug_str:0000000000000a86 .LASF2055
C:\Users\SOLDER~1\AppData\Local\Temp\ccmjpsKj.s:23636  .debug_str:000000000000b815 .LASF2056
C:\Users\SOLDER~1\AppData\Local\Temp\ccmjpsKj.s:30032  .debug_str:0000000000025623 .LASF2057
C:\Users\SOLDER~1\AppData\Local\Temp\ccmjpsKj.s:31114  .debug_str:0000000000029c73 .LASF2058
C:\Users\SOLDER~1\AppData\Local\Temp\ccmjpsKj.s:21978  .debug_str:0000000000004c4b .LASF2059
C:\Users\SOLDER~1\AppData\Local\Temp\ccmjpsKj.s:29746  .debug_str:0000000000024355 .LASF2060
C:\Users\SOLDER~1\AppData\Local\Temp\ccmjpsKj.s:32074  .debug_str:000000000002da97 .LASF2061
C:\Users\SOLDER~1\AppData\Local\Temp\ccmjpsKj.s:29092  .debug_str:00000000000219ba .LASF2062
C:\Users\SOLDER~1\AppData\Local\Temp\ccmjpsKj.s:24424  .debug_str:000000000000ebe9 .LASF2063
C:\Users\SOLDER~1\AppData\Local\Temp\ccmjpsKj.s:31786  .debug_str:000000000002c850 .LASF2064
C:\Users\SOLDER~1\AppData\Local\Temp\ccmjpsKj.s:23996  .debug_str:000000000000d002 .LASF2065
C:\Users\SOLDER~1\AppData\Local\Temp\ccmjpsKj.s:21180  .debug_str:0000000000001950 .LASF2066
C:\Users\SOLDER~1\AppData\Local\Temp\ccmjpsKj.s:23134  .debug_str:0000000000009716 .LASF2067
C:\Users\SOLDER~1\AppData\Local\Temp\ccmjpsKj.s:22446  .debug_str:0000000000006a87 .LASF2068
C:\Users\SOLDER~1\AppData\Local\Temp\ccmjpsKj.s:32190  .debug_str:000000000002e218 .LASF2069
C:\Users\SOLDER~1\AppData\Local\Temp\ccmjpsKj.s:22530  .debug_str:000000000000701f .LASF2070
C:\Users\SOLDER~1\AppData\Local\Temp\ccmjpsKj.s:27994  .debug_str:000000000001d276 .LASF2071
C:\Users\SOLDER~1\AppData\Local\Temp\ccmjpsKj.s:25480  .debug_str:0000000000012fb5 .LASF2072
C:\Users\SOLDER~1\AppData\Local\Temp\ccmjpsKj.s:30322  .debug_str:000000000002695c .LASF2073
C:\Users\SOLDER~1\AppData\Local\Temp\ccmjpsKj.s:21672  .debug_str:0000000000003907 .LASF2074
C:\Users\SOLDER~1\AppData\Local\Temp\ccmjpsKj.s:30088  .debug_str:0000000000025993 .LASF2075
C:\Users\SOLDER~1\AppData\Local\Temp\ccmjpsKj.s:29160  .debug_str:0000000000021de8 .LASF2076
C:\Users\SOLDER~1\AppData\Local\Temp\ccmjpsKj.s:24172  .debug_str:000000000000db40 .LASF2077
C:\Users\SOLDER~1\AppData\Local\Temp\ccmjpsKj.s:25882  .debug_str:0000000000014adb .LASF2078
C:\Users\SOLDER~1\AppData\Local\Temp\ccmjpsKj.s:27418  .debug_str:000000000001ad40 .LASF2079
C:\Users\SOLDER~1\AppData\Local\Temp\ccmjpsKj.s:21820  .debug_str:0000000000004264 .LASF2080
C:\Users\SOLDER~1\AppData\Local\Temp\ccmjpsKj.s:28008  .debug_str:000000000001d36a .LASF2081
C:\Users\SOLDER~1\AppData\Local\Temp\ccmjpsKj.s:26874  .debug_str:0000000000018a61 .LASF2082
C:\Users\SOLDER~1\AppData\Local\Temp\ccmjpsKj.s:22606  .debug_str:0000000000007513 .LASF2083
C:\Users\SOLDER~1\AppData\Local\Temp\ccmjpsKj.s:23300  .debug_str:000000000000a223 .LASF2084
C:\Users\SOLDER~1\AppData\Local\Temp\ccmjpsKj.s:26090  .debug_str:0000000000015897 .LASF2085
C:\Users\SOLDER~1\AppData\Local\Temp\ccmjpsKj.s:25444  .debug_str:0000000000012d45 .LASF2086
C:\Users\SOLDER~1\AppData\Local\Temp\ccmjpsKj.s:28186  .debug_str:000000000001ded8 .LASF2087
C:\Users\SOLDER~1\AppData\Local\Temp\ccmjpsKj.s:27954  .debug_str:000000000001d000 .LASF2088
C:\Users\SOLDER~1\AppData\Local\Temp\ccmjpsKj.s:26326  .debug_str:0000000000016720 .LASF2089
C:\Users\SOLDER~1\AppData\Local\Temp\ccmjpsKj.s:30822  .debug_str:00000000000289ed .LASF2090
C:\Users\SOLDER~1\AppData\Local\Temp\ccmjpsKj.s:27812  .debug_str:000000000001c662 .LASF2091
C:\Users\SOLDER~1\AppData\Local\Temp\ccmjpsKj.s:26022  .debug_str:0000000000015404 .LASF2092
C:\Users\SOLDER~1\AppData\Local\Temp\ccmjpsKj.s:23824  .debug_str:000000000000c425 .LASF2093
C:\Users\SOLDER~1\AppData\Local\Temp\ccmjpsKj.s:25360  .debug_str:00000000000127d9 .LASF2094
C:\Users\SOLDER~1\AppData\Local\Temp\ccmjpsKj.s:32342  .debug_str:000000000002ebb7 .LASF2095
C:\Users\SOLDER~1\AppData\Local\Temp\ccmjpsKj.s:30190  .debug_str:000000000002604e .LASF2096
C:\Users\SOLDER~1\AppData\Local\Temp\ccmjpsKj.s:27038  .debug_str:00000000000194fe .LASF2097
C:\Users\SOLDER~1\AppData\Local\Temp\ccmjpsKj.s:29032  .debug_str:0000000000021608 .LASF2098
C:\Users\SOLDER~1\AppData\Local\Temp\ccmjpsKj.s:31038  .debug_str:00000000000297da .LASF2099
C:\Users\SOLDER~1\AppData\Local\Temp\ccmjpsKj.s:25488  .debug_str:000000000001302e .LASF2100
C:\Users\SOLDER~1\AppData\Local\Temp\ccmjpsKj.s:28380  .debug_str:000000000001eb84 .LASF2101
C:\Users\SOLDER~1\AppData\Local\Temp\ccmjpsKj.s:30300  .debug_str:0000000000026808 .LASF2102
C:\Users\SOLDER~1\AppData\Local\Temp\ccmjpsKj.s:24222  .debug_str:000000000000de63 .LASF2103
C:\Users\SOLDER~1\AppData\Local\Temp\ccmjpsKj.s:21694  .debug_str:0000000000003a66 .LASF2104
C:\Users\SOLDER~1\AppData\Local\Temp\ccmjpsKj.s:22444  .debug_str:0000000000006a61 .LASF2105
GAS LISTING C:\Users\SOLDER~1\AppData\Local\Temp\ccmjpsKj.s 			page 90


C:\Users\SOLDER~1\AppData\Local\Temp\ccmjpsKj.s:29524  .debug_str:00000000000234dd .LASF2106
C:\Users\SOLDER~1\AppData\Local\Temp\ccmjpsKj.s:26376  .debug_str:0000000000016a10 .LASF2107
C:\Users\SOLDER~1\AppData\Local\Temp\ccmjpsKj.s:25428  .debug_str:0000000000012c14 .LASF2108
C:\Users\SOLDER~1\AppData\Local\Temp\ccmjpsKj.s:32080  .debug_str:000000000002db00 .LASF2109
C:\Users\SOLDER~1\AppData\Local\Temp\ccmjpsKj.s:30878  .debug_str:0000000000028dc1 .LASF2110
C:\Users\SOLDER~1\AppData\Local\Temp\ccmjpsKj.s:31734  .debug_str:000000000002c508 .LASF2111
C:\Users\SOLDER~1\AppData\Local\Temp\ccmjpsKj.s:26078  .debug_str:00000000000157ce .LASF2112
C:\Users\SOLDER~1\AppData\Local\Temp\ccmjpsKj.s:32274  .debug_str:000000000002e754 .LASF2113
C:\Users\SOLDER~1\AppData\Local\Temp\ccmjpsKj.s:27008  .debug_str:0000000000019325 .LASF2114
C:\Users\SOLDER~1\AppData\Local\Temp\ccmjpsKj.s:26966  .debug_str:000000000001906e .LASF2115
C:\Users\SOLDER~1\AppData\Local\Temp\ccmjpsKj.s:27664  .debug_str:000000000001bc9d .LASF2116
C:\Users\SOLDER~1\AppData\Local\Temp\ccmjpsKj.s:23088  .debug_str:0000000000009450 .LASF2117
C:\Users\SOLDER~1\AppData\Local\Temp\ccmjpsKj.s:31352  .debug_str:000000000002ac16 .LASF2118
C:\Users\SOLDER~1\AppData\Local\Temp\ccmjpsKj.s:29446  .debug_str:0000000000022fe5 .LASF2119
C:\Users\SOLDER~1\AppData\Local\Temp\ccmjpsKj.s:32220  .debug_str:000000000002e3e9 .LASF2120
C:\Users\SOLDER~1\AppData\Local\Temp\ccmjpsKj.s:22504  .debug_str:0000000000006e3a .LASF2121
C:\Users\SOLDER~1\AppData\Local\Temp\ccmjpsKj.s:27080  .debug_str:00000000000197e1 .LASF2122
C:\Users\SOLDER~1\AppData\Local\Temp\ccmjpsKj.s:26118  .debug_str:0000000000015a23 .LASF2123
C:\Users\SOLDER~1\AppData\Local\Temp\ccmjpsKj.s:24784  .debug_str:000000000001032c .LASF2124
C:\Users\SOLDER~1\AppData\Local\Temp\ccmjpsKj.s:31730  .debug_str:000000000002c4aa .LASF2125
C:\Users\SOLDER~1\AppData\Local\Temp\ccmjpsKj.s:21578  .debug_str:00000000000032f6 .LASF2126
C:\Users\SOLDER~1\AppData\Local\Temp\ccmjpsKj.s:28540  .debug_str:000000000001f630 .LASF2127
C:\Users\SOLDER~1\AppData\Local\Temp\ccmjpsKj.s:26494  .debug_str:0000000000017157 .LASF2128
C:\Users\SOLDER~1\AppData\Local\Temp\ccmjpsKj.s:29064  .debug_str:00000000000217f0 .LASF2129
C:\Users\SOLDER~1\AppData\Local\Temp\ccmjpsKj.s:25298  .debug_str:00000000000123f1 .LASF2130
C:\Users\SOLDER~1\AppData\Local\Temp\ccmjpsKj.s:23540  .debug_str:000000000000b1f1 .LASF2131
C:\Users\SOLDER~1\AppData\Local\Temp\ccmjpsKj.s:32290  .debug_str:000000000002e849 .LASF2132
C:\Users\SOLDER~1\AppData\Local\Temp\ccmjpsKj.s:24618  .debug_str:000000000000f81c .LASF2133
C:\Users\SOLDER~1\AppData\Local\Temp\ccmjpsKj.s:26610  .debug_str:0000000000017938 .LASF2134
C:\Users\SOLDER~1\AppData\Local\Temp\ccmjpsKj.s:32136  .debug_str:000000000002de91 .LASF2135
C:\Users\SOLDER~1\AppData\Local\Temp\ccmjpsKj.s:25938  .debug_str:0000000000014eb1 .LASF2136
C:\Users\SOLDER~1\AppData\Local\Temp\ccmjpsKj.s:30314  .debug_str:00000000000268ce .LASF2137
C:\Users\SOLDER~1\AppData\Local\Temp\ccmjpsKj.s:25808  .debug_str:0000000000014615 .LASF2138
C:\Users\SOLDER~1\AppData\Local\Temp\ccmjpsKj.s:22560  .debug_str:0000000000007214 .LASF2139
C:\Users\SOLDER~1\AppData\Local\Temp\ccmjpsKj.s:21642  .debug_str:0000000000003716 .LASF2140
C:\Users\SOLDER~1\AppData\Local\Temp\ccmjpsKj.s:28482  .debug_str:000000000001f230 .LASF2141
C:\Users\SOLDER~1\AppData\Local\Temp\ccmjpsKj.s:29830  .debug_str:0000000000024910 .LASF2142
C:\Users\SOLDER~1\AppData\Local\Temp\ccmjpsKj.s:24272  .debug_str:000000000000e1cf .LASF2143
C:\Users\SOLDER~1\AppData\Local\Temp\ccmjpsKj.s:30356  .debug_str:0000000000026bb8 .LASF2144
C:\Users\SOLDER~1\AppData\Local\Temp\ccmjpsKj.s:24932  .debug_str:0000000000010cdb .LASF2145
C:\Users\SOLDER~1\AppData\Local\Temp\ccmjpsKj.s:31280  .debug_str:000000000002a79e .LASF2146
C:\Users\SOLDER~1\AppData\Local\Temp\ccmjpsKj.s:31240  .debug_str:000000000002a505 .LASF2147
C:\Users\SOLDER~1\AppData\Local\Temp\ccmjpsKj.s:31978  .debug_str:000000000002d4a0 .LASF2148
C:\Users\SOLDER~1\AppData\Local\Temp\ccmjpsKj.s:28392  .debug_str:000000000001ec73 .LASF2149
C:\Users\SOLDER~1\AppData\Local\Temp\ccmjpsKj.s:23886  .debug_str:000000000000c882 .LASF2150
C:\Users\SOLDER~1\AppData\Local\Temp\ccmjpsKj.s:22126  .debug_str:000000000000550a .LASF2151
C:\Users\SOLDER~1\AppData\Local\Temp\ccmjpsKj.s:24872  .debug_str:00000000000108cf .LASF2152
C:\Users\SOLDER~1\AppData\Local\Temp\ccmjpsKj.s:30374  .debug_str:0000000000026ceb .LASF2153
C:\Users\SOLDER~1\AppData\Local\Temp\ccmjpsKj.s:23248  .debug_str:0000000000009ea4 .LASF2154
C:\Users\SOLDER~1\AppData\Local\Temp\ccmjpsKj.s:22314  .debug_str:0000000000006187 .LASF2155
C:\Users\SOLDER~1\AppData\Local\Temp\ccmjpsKj.s:29988  .debug_str:0000000000025355 .LASF2156
C:\Users\SOLDER~1\AppData\Local\Temp\ccmjpsKj.s:27938  .debug_str:000000000001ced0 .LASF2157
C:\Users\SOLDER~1\AppData\Local\Temp\ccmjpsKj.s:29422  .debug_str:0000000000022e77 .LASF2158
C:\Users\SOLDER~1\AppData\Local\Temp\ccmjpsKj.s:24782  .debug_str:0000000000010306 .LASF2159
C:\Users\SOLDER~1\AppData\Local\Temp\ccmjpsKj.s:22676  .debug_str:000000000000792c .LASF2160
C:\Users\SOLDER~1\AppData\Local\Temp\ccmjpsKj.s:32128  .debug_str:000000000002de16 .LASF2161
C:\Users\SOLDER~1\AppData\Local\Temp\ccmjpsKj.s:21504  .debug_str:0000000000002e3d .LASF2162
GAS LISTING C:\Users\SOLDER~1\AppData\Local\Temp\ccmjpsKj.s 			page 91


C:\Users\SOLDER~1\AppData\Local\Temp\ccmjpsKj.s:23470  .debug_str:000000000000ad56 .LASF2163
C:\Users\SOLDER~1\AppData\Local\Temp\ccmjpsKj.s:22854  .debug_str:00000000000084d3 .LASF2164
C:\Users\SOLDER~1\AppData\Local\Temp\ccmjpsKj.s:20856  .debug_str:00000000000003a3 .LASF2165
C:\Users\SOLDER~1\AppData\Local\Temp\ccmjpsKj.s:22776  .debug_str:0000000000007fdd .LASF2166
C:\Users\SOLDER~1\AppData\Local\Temp\ccmjpsKj.s:28244  .debug_str:000000000001e2b7 .LASF2167
C:\Users\SOLDER~1\AppData\Local\Temp\ccmjpsKj.s:25828  .debug_str:0000000000014770 .LASF2168
C:\Users\SOLDER~1\AppData\Local\Temp\ccmjpsKj.s:26624  .debug_str:0000000000017a2f .LASF2169
C:\Users\SOLDER~1\AppData\Local\Temp\ccmjpsKj.s:21998  .debug_str:0000000000004d95 .LASF2170
C:\Users\SOLDER~1\AppData\Local\Temp\ccmjpsKj.s:30422  .debug_str:0000000000027015 .LASF2171
C:\Users\SOLDER~1\AppData\Local\Temp\ccmjpsKj.s:29492  .debug_str:00000000000232bb .LASF2172
C:\Users\SOLDER~1\AppData\Local\Temp\ccmjpsKj.s:24418  .debug_str:000000000000eb8a .LASF2173
C:\Users\SOLDER~1\AppData\Local\Temp\ccmjpsKj.s:26112  .debug_str:00000000000159e9 .LASF2174
C:\Users\SOLDER~1\AppData\Local\Temp\ccmjpsKj.s:27506  .debug_str:000000000001b31a .LASF2175
C:\Users\SOLDER~1\AppData\Local\Temp\ccmjpsKj.s:26768  .debug_str:00000000000183a2 .LASF2176
C:\Users\SOLDER~1\AppData\Local\Temp\ccmjpsKj.s:26110  .debug_str:00000000000159d1 .LASF2177
C:\Users\SOLDER~1\AppData\Local\Temp\ccmjpsKj.s:27786  .debug_str:000000000001c4c1 .LASF2178
C:\Users\SOLDER~1\AppData\Local\Temp\ccmjpsKj.s:21548  .debug_str:0000000000003110 .LASF2179
C:\Users\SOLDER~1\AppData\Local\Temp\ccmjpsKj.s:26884  .debug_str:0000000000018af4 .LASF2180
C:\Users\SOLDER~1\AppData\Local\Temp\ccmjpsKj.s:23156  .debug_str:000000000000988b .LASF2181
C:\Users\SOLDER~1\AppData\Local\Temp\ccmjpsKj.s:25026  .debug_str:00000000000112c6 .LASF2182
C:\Users\SOLDER~1\AppData\Local\Temp\ccmjpsKj.s:21380  .debug_str:0000000000002674 .LASF2183
C:\Users\SOLDER~1\AppData\Local\Temp\ccmjpsKj.s:30288  .debug_str:000000000002673f .LASF2184
C:\Users\SOLDER~1\AppData\Local\Temp\ccmjpsKj.s:25730  .debug_str:00000000000140c0 .LASF2185
C:\Users\SOLDER~1\AppData\Local\Temp\ccmjpsKj.s:23810  .debug_str:000000000000c31a .LASF2186
C:\Users\SOLDER~1\AppData\Local\Temp\ccmjpsKj.s:23100  .debug_str:0000000000009528 .LASF2187
C:\Users\SOLDER~1\AppData\Local\Temp\ccmjpsKj.s:28982  .debug_str:0000000000021295 .LASF2188
C:\Users\SOLDER~1\AppData\Local\Temp\ccmjpsKj.s:28754  .debug_str:00000000000203dc .LASF2189
C:\Users\SOLDER~1\AppData\Local\Temp\ccmjpsKj.s:25666  .debug_str:0000000000013c06 .LASF2190
C:\Users\SOLDER~1\AppData\Local\Temp\ccmjpsKj.s:24432  .debug_str:000000000000ec62 .LASF2191
C:\Users\SOLDER~1\AppData\Local\Temp\ccmjpsKj.s:25610  .debug_str:0000000000013834 .LASF2192
C:\Users\SOLDER~1\AppData\Local\Temp\ccmjpsKj.s:30050  .debug_str:0000000000025743 .LASF2193
C:\Users\SOLDER~1\AppData\Local\Temp\ccmjpsKj.s:31386  .debug_str:000000000002ae3f .LASF2194
C:\Users\SOLDER~1\AppData\Local\Temp\ccmjpsKj.s:28688  .debug_str:000000000001ffbb .LASF2195
C:\Users\SOLDER~1\AppData\Local\Temp\ccmjpsKj.s:27534  .debug_str:000000000001b49e .LASF2196
C:\Users\SOLDER~1\AppData\Local\Temp\ccmjpsKj.s:24352  .debug_str:000000000000e724 .LASF2197
C:\Users\SOLDER~1\AppData\Local\Temp\ccmjpsKj.s:22154  .debug_str:00000000000056ac .LASF2198
C:\Users\SOLDER~1\AppData\Local\Temp\ccmjpsKj.s:30002  .debug_str:0000000000025438 .LASF2199
C:\Users\SOLDER~1\AppData\Local\Temp\ccmjpsKj.s:23882  .debug_str:000000000000c841 .LASF2200
C:\Users\SOLDER~1\AppData\Local\Temp\ccmjpsKj.s:21620  .debug_str:00000000000035c2 .LASF2201
C:\Users\SOLDER~1\AppData\Local\Temp\ccmjpsKj.s:22012  .debug_str:0000000000004e67 .LASF2202
C:\Users\SOLDER~1\AppData\Local\Temp\ccmjpsKj.s:30972  .debug_str:0000000000029364 .LASF2203
C:\Users\SOLDER~1\AppData\Local\Temp\ccmjpsKj.s:32078  .debug_str:000000000002dadf .LASF2204
C:\Users\SOLDER~1\AppData\Local\Temp\ccmjpsKj.s:26216  .debug_str:0000000000016017 .LASF2205
C:\Users\SOLDER~1\AppData\Local\Temp\ccmjpsKj.s:21364  .debug_str:0000000000002566 .LASF2206
C:\Users\SOLDER~1\AppData\Local\Temp\ccmjpsKj.s:21326  .debug_str:00000000000022e8 .LASF2207
C:\Users\SOLDER~1\AppData\Local\Temp\ccmjpsKj.s:28372  .debug_str:000000000001eaff .LASF2208
C:\Users\SOLDER~1\AppData\Local\Temp\ccmjpsKj.s:27486  .debug_str:000000000001b1f8 .LASF2209
C:\Users\SOLDER~1\AppData\Local\Temp\ccmjpsKj.s:24928  .debug_str:0000000000010c96 .LASF2210
C:\Users\SOLDER~1\AppData\Local\Temp\ccmjpsKj.s:25188  .debug_str:0000000000011d28 .LASF2211
C:\Users\SOLDER~1\AppData\Local\Temp\ccmjpsKj.s:26540  .debug_str:000000000001747b .LASF2212
C:\Users\SOLDER~1\AppData\Local\Temp\ccmjpsKj.s:31714  .debug_str:000000000002c38b .LASF2213
C:\Users\SOLDER~1\AppData\Local\Temp\ccmjpsKj.s:29112  .debug_str:0000000000021afc .LASF2214
C:\Users\SOLDER~1\AppData\Local\Temp\ccmjpsKj.s:27210  .debug_str:0000000000019ff1 .LASF2215
C:\Users\SOLDER~1\AppData\Local\Temp\ccmjpsKj.s:26414  .debug_str:0000000000016c91 .LASF2216
C:\Users\SOLDER~1\AppData\Local\Temp\ccmjpsKj.s:21582  .debug_str:0000000000003342 .LASF2217
C:\Users\SOLDER~1\AppData\Local\Temp\ccmjpsKj.s:26344  .debug_str:0000000000016845 .LASF2218
C:\Users\SOLDER~1\AppData\Local\Temp\ccmjpsKj.s:30928  .debug_str:00000000000290bf .LASF2219
GAS LISTING C:\Users\SOLDER~1\AppData\Local\Temp\ccmjpsKj.s 			page 92


C:\Users\SOLDER~1\AppData\Local\Temp\ccmjpsKj.s:23440  .debug_str:000000000000ab92 .LASF2220
C:\Users\SOLDER~1\AppData\Local\Temp\ccmjpsKj.s:28662  .debug_str:000000000001fe27 .LASF2221
C:\Users\SOLDER~1\AppData\Local\Temp\ccmjpsKj.s:30558  .debug_str:00000000000278f7 .LASF2222
C:\Users\SOLDER~1\AppData\Local\Temp\ccmjpsKj.s:22398  .debug_str:0000000000006737 .LASF2223
C:\Users\SOLDER~1\AppData\Local\Temp\ccmjpsKj.s:23128  .debug_str:00000000000096b8 .LASF2224
C:\Users\SOLDER~1\AppData\Local\Temp\ccmjpsKj.s:25346  .debug_str:00000000000126e9 .LASF2225
C:\Users\SOLDER~1\AppData\Local\Temp\ccmjpsKj.s:25774  .debug_str:000000000001438f .LASF2226
C:\Users\SOLDER~1\AppData\Local\Temp\ccmjpsKj.s:23114  .debug_str:0000000000009600 .LASF2227
C:\Users\SOLDER~1\AppData\Local\Temp\ccmjpsKj.s:31866  .debug_str:000000000002cd34 .LASF2228
C:\Users\SOLDER~1\AppData\Local\Temp\ccmjpsKj.s:22862  .debug_str:000000000000856d .LASF2229
C:\Users\SOLDER~1\AppData\Local\Temp\ccmjpsKj.s:28994  .debug_str:0000000000021372 .LASF2230
C:\Users\SOLDER~1\AppData\Local\Temp\ccmjpsKj.s:29886  .debug_str:0000000000024cbd .LASF2231
C:\Users\SOLDER~1\AppData\Local\Temp\ccmjpsKj.s:25820  .debug_str:00000000000146d5 .LASF2232
C:\Users\SOLDER~1\AppData\Local\Temp\ccmjpsKj.s:22466  .debug_str:0000000000006bb6 .LASF2233
C:\Users\SOLDER~1\AppData\Local\Temp\ccmjpsKj.s:25254  .debug_str:0000000000012135 .LASF2234
C:\Users\SOLDER~1\AppData\Local\Temp\ccmjpsKj.s:22092  .debug_str:0000000000005318 .LASF2235
C:\Users\SOLDER~1\AppData\Local\Temp\ccmjpsKj.s:31922  .debug_str:000000000002d0c3 .LASF2236
C:\Users\SOLDER~1\AppData\Local\Temp\ccmjpsKj.s:28716  .debug_str:0000000000020175 .LASF2237
C:\Users\SOLDER~1\AppData\Local\Temp\ccmjpsKj.s:31334  .debug_str:000000000002ab13 .LASF2238
C:\Users\SOLDER~1\AppData\Local\Temp\ccmjpsKj.s:24108  .debug_str:000000000000d75c .LASF2239
C:\Users\SOLDER~1\AppData\Local\Temp\ccmjpsKj.s:25576  .debug_str:00000000000135f4 .LASF2240
C:\Users\SOLDER~1\AppData\Local\Temp\ccmjpsKj.s:21286  .debug_str:0000000000002056 .LASF2241
C:\Users\SOLDER~1\AppData\Local\Temp\ccmjpsKj.s:30394  .debug_str:0000000000026e56 .LASF2242
C:\Users\SOLDER~1\AppData\Local\Temp\ccmjpsKj.s:30338  .debug_str:0000000000026a7d .LASF2243
C:\Users\SOLDER~1\AppData\Local\Temp\ccmjpsKj.s:24706  .debug_str:000000000000fe4d .LASF2244
C:\Users\SOLDER~1\AppData\Local\Temp\ccmjpsKj.s:20882  .debug_str:0000000000000552 .LASF2245
C:\Users\SOLDER~1\AppData\Local\Temp\ccmjpsKj.s:20834  .debug_str:000000000000023c .LASF2246
C:\Users\SOLDER~1\AppData\Local\Temp\ccmjpsKj.s:26670  .debug_str:0000000000017d07 .LASF2247
C:\Users\SOLDER~1\AppData\Local\Temp\ccmjpsKj.s:22748  .debug_str:0000000000007dfb .LASF2248
C:\Users\SOLDER~1\AppData\Local\Temp\ccmjpsKj.s:25846  .debug_str:00000000000148ab .LASF2249
C:\Users\SOLDER~1\AppData\Local\Temp\ccmjpsKj.s:24042  .debug_str:000000000000d305 .LASF2250
C:\Users\SOLDER~1\AppData\Local\Temp\ccmjpsKj.s:23512  .debug_str:000000000000b038 .LASF2251
C:\Users\SOLDER~1\AppData\Local\Temp\ccmjpsKj.s:32052  .debug_str:000000000002d932 .LASF2252
C:\Users\SOLDER~1\AppData\Local\Temp\ccmjpsKj.s:25240  .debug_str:0000000000012076 .LASF2253
C:\Users\SOLDER~1\AppData\Local\Temp\ccmjpsKj.s:27012  .debug_str:000000000001936c .LASF2254
C:\Users\SOLDER~1\AppData\Local\Temp\ccmjpsKj.s:26544  .debug_str:00000000000174e5 .LASF2255
C:\Users\SOLDER~1\AppData\Local\Temp\ccmjpsKj.s:29006  .debug_str:000000000002145b .LASF2256
C:\Users\SOLDER~1\AppData\Local\Temp\ccmjpsKj.s:31104  .debug_str:0000000000029bff .LASF2257
C:\Users\SOLDER~1\AppData\Local\Temp\ccmjpsKj.s:23944  .debug_str:000000000000cca2 .LASF2258
C:\Users\SOLDER~1\AppData\Local\Temp\ccmjpsKj.s:21460  .debug_str:0000000000002b86 .LASF2259
C:\Users\SOLDER~1\AppData\Local\Temp\ccmjpsKj.s:29582  .debug_str:00000000000238e6 .LASF2260
C:\Users\SOLDER~1\AppData\Local\Temp\ccmjpsKj.s:27126  .debug_str:0000000000019ac9 .LASF2261
C:\Users\SOLDER~1\AppData\Local\Temp\ccmjpsKj.s:22826  .debug_str:000000000000831f .LASF2262
C:\Users\SOLDER~1\AppData\Local\Temp\ccmjpsKj.s:22052  .debug_str:00000000000050c4 .LASF2263
C:\Users\SOLDER~1\AppData\Local\Temp\ccmjpsKj.s:28666  .debug_str:000000000001fe5e .LASF2264
C:\Users\SOLDER~1\AppData\Local\Temp\ccmjpsKj.s:25048  .debug_str:000000000001144b .LASF2265
C:\Users\SOLDER~1\AppData\Local\Temp\ccmjpsKj.s:24582  .debug_str:000000000000f5af .LASF2266
C:\Users\SOLDER~1\AppData\Local\Temp\ccmjpsKj.s:27084  .debug_str:0000000000019830 .LASF2267
C:\Users\SOLDER~1\AppData\Local\Temp\ccmjpsKj.s:24374  .debug_str:000000000000e892 .LASF2268
C:\Users\SOLDER~1\AppData\Local\Temp\ccmjpsKj.s:21058  .debug_str:00000000000011af .LASF2269
C:\Users\SOLDER~1\AppData\Local\Temp\ccmjpsKj.s:30578  .debug_str:0000000000027a4a .LASF2270
C:\Users\SOLDER~1\AppData\Local\Temp\ccmjpsKj.s:31332  .debug_str:000000000002aaff .LASF2271
C:\Users\SOLDER~1\AppData\Local\Temp\ccmjpsKj.s:31530  .debug_str:000000000002b77c .LASF2272
C:\Users\SOLDER~1\AppData\Local\Temp\ccmjpsKj.s:30596  .debug_str:0000000000027b7a .LASF2273
C:\Users\SOLDER~1\AppData\Local\Temp\ccmjpsKj.s:20924  .debug_str:0000000000000890 .LASF2274
C:\Users\SOLDER~1\AppData\Local\Temp\ccmjpsKj.s:21006  .debug_str:0000000000000e81 .LASF2275
C:\Users\SOLDER~1\AppData\Local\Temp\ccmjpsKj.s:23186  .debug_str:0000000000009a8b .LASF2276
GAS LISTING C:\Users\SOLDER~1\AppData\Local\Temp\ccmjpsKj.s 			page 93


C:\Users\SOLDER~1\AppData\Local\Temp\ccmjpsKj.s:28476  .debug_str:000000000001f1e5 .LASF2277
C:\Users\SOLDER~1\AppData\Local\Temp\ccmjpsKj.s:22718  .debug_str:0000000000007bf7 .LASF2278
C:\Users\SOLDER~1\AppData\Local\Temp\ccmjpsKj.s:32398  .debug_str:000000000002ef8c .LASF2279
C:\Users\SOLDER~1\AppData\Local\Temp\ccmjpsKj.s:25340  .debug_str:000000000001269b .LASF2280
C:\Users\SOLDER~1\AppData\Local\Temp\ccmjpsKj.s:28548  .debug_str:000000000001f6bc .LASF2281
C:\Users\SOLDER~1\AppData\Local\Temp\ccmjpsKj.s:31992  .debug_str:000000000002d591 .LASF2282
C:\Users\SOLDER~1\AppData\Local\Temp\ccmjpsKj.s:22658  .debug_str:000000000000782a .LASF2283
C:\Users\SOLDER~1\AppData\Local\Temp\ccmjpsKj.s:21418  .debug_str:0000000000002912 .LASF2284
C:\Users\SOLDER~1\AppData\Local\Temp\ccmjpsKj.s:28840  .debug_str:0000000000020979 .LASF2285
C:\Users\SOLDER~1\AppData\Local\Temp\ccmjpsKj.s:22618  .debug_str:00000000000075cb .LASF2286
C:\Users\SOLDER~1\AppData\Local\Temp\ccmjpsKj.s:26630  .debug_str:0000000000017a9c .LASF2287
C:\Users\SOLDER~1\AppData\Local\Temp\ccmjpsKj.s:25292  .debug_str:000000000001238d .LASF2288
C:\Users\SOLDER~1\AppData\Local\Temp\ccmjpsKj.s:22742  .debug_str:0000000000007da8 .LASF2289
C:\Users\SOLDER~1\AppData\Local\Temp\ccmjpsKj.s:28080  .debug_str:000000000001d858 .LASF2290
C:\Users\SOLDER~1\AppData\Local\Temp\ccmjpsKj.s:28584  .debug_str:000000000001f954 .LASF2291
C:\Users\SOLDER~1\AppData\Local\Temp\ccmjpsKj.s:25712  .debug_str:0000000000013f65 .LASF2292
C:\Users\SOLDER~1\AppData\Local\Temp\ccmjpsKj.s:21832  .debug_str:000000000000431c .LASF2293
C:\Users\SOLDER~1\AppData\Local\Temp\ccmjpsKj.s:25966  .debug_str:0000000000015091 .LASF2294
C:\Users\SOLDER~1\AppData\Local\Temp\ccmjpsKj.s:32364  .debug_str:000000000002ed5d .LASF2295
C:\Users\SOLDER~1\AppData\Local\Temp\ccmjpsKj.s:22672  .debug_str:00000000000078f1 .LASF2296
C:\Users\SOLDER~1\AppData\Local\Temp\ccmjpsKj.s:31294  .debug_str:000000000002a88a .LASF2297
C:\Users\SOLDER~1\AppData\Local\Temp\ccmjpsKj.s:29488  .debug_str:000000000002327a .LASF2298
C:\Users\SOLDER~1\AppData\Local\Temp\ccmjpsKj.s:25580  .debug_str:0000000000013634 .LASF2299
C:\Users\SOLDER~1\AppData\Local\Temp\ccmjpsKj.s:28784  .debug_str:00000000000205c0 .LASF2300
C:\Users\SOLDER~1\AppData\Local\Temp\ccmjpsKj.s:31624  .debug_str:000000000002bd98 .LASF2301
C:\Users\SOLDER~1\AppData\Local\Temp\ccmjpsKj.s:25070  .debug_str:000000000001159c .LASF2302
C:\Users\SOLDER~1\AppData\Local\Temp\ccmjpsKj.s:29268  .debug_str:000000000002245d .LASF2303
C:\Users\SOLDER~1\AppData\Local\Temp\ccmjpsKj.s:26608  .debug_str:0000000000017916 .LASF2304
C:\Users\SOLDER~1\AppData\Local\Temp\ccmjpsKj.s:25502  .debug_str:0000000000013112 .LASF2305
C:\Users\SOLDER~1\AppData\Local\Temp\ccmjpsKj.s:27956  .debug_str:000000000001d025 .LASF2306
C:\Users\SOLDER~1\AppData\Local\Temp\ccmjpsKj.s:31336  .debug_str:000000000002ab33 .LASF2307
C:\Users\SOLDER~1\AppData\Local\Temp\ccmjpsKj.s:25118  .debug_str:00000000000118c8 .LASF2308
C:\Users\SOLDER~1\AppData\Local\Temp\ccmjpsKj.s:25834  .debug_str:00000000000147e7 .LASF2309
C:\Users\SOLDER~1\AppData\Local\Temp\ccmjpsKj.s:24452  .debug_str:000000000000ed79 .LASF2310
C:\Users\SOLDER~1\AppData\Local\Temp\ccmjpsKj.s:23490  .debug_str:000000000000aecf .LASF2311
C:\Users\SOLDER~1\AppData\Local\Temp\ccmjpsKj.s:31210  .debug_str:000000000002a2ed .LASF2312
C:\Users\SOLDER~1\AppData\Local\Temp\ccmjpsKj.s:31356  .debug_str:000000000002ac5d .LASF2313
C:\Users\SOLDER~1\AppData\Local\Temp\ccmjpsKj.s:23830  .debug_str:000000000000c493 .LASF2314
C:\Users\SOLDER~1\AppData\Local\Temp\ccmjpsKj.s:25538  .debug_str:0000000000013360 .LASF2315
C:\Users\SOLDER~1\AppData\Local\Temp\ccmjpsKj.s:25244  .debug_str:00000000000120aa .LASF2316
C:\Users\SOLDER~1\AppData\Local\Temp\ccmjpsKj.s:22692  .debug_str:0000000000007a5d .LASF2317
C:\Users\SOLDER~1\AppData\Local\Temp\ccmjpsKj.s:25042  .debug_str:00000000000113d7 .LASF2318
C:\Users\SOLDER~1\AppData\Local\Temp\ccmjpsKj.s:32066  .debug_str:000000000002da19 .LASF2319
C:\Users\SOLDER~1\AppData\Local\Temp\ccmjpsKj.s:26188  .debug_str:0000000000015e5e .LASF2320
C:\Users\SOLDER~1\AppData\Local\Temp\ccmjpsKj.s:29282  .debug_str:000000000002251a .LASF2321
C:\Users\SOLDER~1\AppData\Local\Temp\ccmjpsKj.s:26646  .debug_str:0000000000017b6c .LASF2322
C:\Users\SOLDER~1\AppData\Local\Temp\ccmjpsKj.s:29668  .debug_str:0000000000023e3b .LASF2323
C:\Users\SOLDER~1\AppData\Local\Temp\ccmjpsKj.s:29122  .debug_str:0000000000021b7b .LASF2324
C:\Users\SOLDER~1\AppData\Local\Temp\ccmjpsKj.s:28056  .debug_str:000000000001d6e1 .LASF2325
C:\Users\SOLDER~1\AppData\Local\Temp\ccmjpsKj.s:22628  .debug_str:000000000000765e .LASF2326
C:\Users\SOLDER~1\AppData\Local\Temp\ccmjpsKj.s:27760  .debug_str:000000000001c2ee .LASF2327
C:\Users\SOLDER~1\AppData\Local\Temp\ccmjpsKj.s:23416  .debug_str:000000000000a9f8 .LASF2328
C:\Users\SOLDER~1\AppData\Local\Temp\ccmjpsKj.s:23318  .debug_str:000000000000a34c .LASF2329
C:\Users\SOLDER~1\AppData\Local\Temp\ccmjpsKj.s:22132  .debug_str:0000000000005553 .LASF2330
C:\Users\SOLDER~1\AppData\Local\Temp\ccmjpsKj.s:21162  .debug_str:0000000000001869 .LASF2331
C:\Users\SOLDER~1\AppData\Local\Temp\ccmjpsKj.s:31550  .debug_str:000000000002b8a2 .LASF2332
C:\Users\SOLDER~1\AppData\Local\Temp\ccmjpsKj.s:22082  .debug_str:0000000000005296 .LASF2333
GAS LISTING C:\Users\SOLDER~1\AppData\Local\Temp\ccmjpsKj.s 			page 94


C:\Users\SOLDER~1\AppData\Local\Temp\ccmjpsKj.s:30840  .debug_str:0000000000028b39 .LASF2334
C:\Users\SOLDER~1\AppData\Local\Temp\ccmjpsKj.s:23716  .debug_str:000000000000bd03 .LASF2335
C:\Users\SOLDER~1\AppData\Local\Temp\ccmjpsKj.s:28544  .debug_str:000000000001f678 .LASF2336
C:\Users\SOLDER~1\AppData\Local\Temp\ccmjpsKj.s:24182  .debug_str:000000000000dbca .LASF2337
C:\Users\SOLDER~1\AppData\Local\Temp\ccmjpsKj.s:32050  .debug_str:000000000002d90f .LASF2338
C:\Users\SOLDER~1\AppData\Local\Temp\ccmjpsKj.s:23956  .debug_str:000000000000cd6c .LASF2339
C:\Users\SOLDER~1\AppData\Local\Temp\ccmjpsKj.s:28750  .debug_str:0000000000020390 .LASF2340
C:\Users\SOLDER~1\AppData\Local\Temp\ccmjpsKj.s:28624  .debug_str:000000000001fbc6 .LASF2341
C:\Users\SOLDER~1\AppData\Local\Temp\ccmjpsKj.s:31640  .debug_str:000000000002be6b .LASF2342
C:\Users\SOLDER~1\AppData\Local\Temp\ccmjpsKj.s:23820  .debug_str:000000000000c3db .LASF2343
C:\Users\SOLDER~1\AppData\Local\Temp\ccmjpsKj.s:30416  .debug_str:0000000000026fb4 .LASF2344
C:\Users\SOLDER~1\AppData\Local\Temp\ccmjpsKj.s:24964  .debug_str:0000000000010ebe .LASF2345
C:\Users\SOLDER~1\AppData\Local\Temp\ccmjpsKj.s:24332  .debug_str:000000000000e5ee .LASF2346
C:\Users\SOLDER~1\AppData\Local\Temp\ccmjpsKj.s:30728  .debug_str:000000000002840e .LASF2347
C:\Users\SOLDER~1\AppData\Local\Temp\ccmjpsKj.s:28920  .debug_str:0000000000020eb6 .LASF2348
C:\Users\SOLDER~1\AppData\Local\Temp\ccmjpsKj.s:22760  .debug_str:0000000000007ed1 .LASF2349
C:\Users\SOLDER~1\AppData\Local\Temp\ccmjpsKj.s:27734  .debug_str:000000000001c149 .LASF2350
C:\Users\SOLDER~1\AppData\Local\Temp\ccmjpsKj.s:30930  .debug_str:00000000000290d3 .LASF2351
C:\Users\SOLDER~1\AppData\Local\Temp\ccmjpsKj.s:29418  .debug_str:0000000000022e35 .LASF2352
C:\Users\SOLDER~1\AppData\Local\Temp\ccmjpsKj.s:23394  .debug_str:000000000000a88d .LASF2353
C:\Users\SOLDER~1\AppData\Local\Temp\ccmjpsKj.s:31958  .debug_str:000000000002d330 .LASF2354
C:\Users\SOLDER~1\AppData\Local\Temp\ccmjpsKj.s:24188  .debug_str:000000000000dc1d .LASF2355
C:\Users\SOLDER~1\AppData\Local\Temp\ccmjpsKj.s:26950  .debug_str:0000000000018f52 .LASF2356
C:\Users\SOLDER~1\AppData\Local\Temp\ccmjpsKj.s:23780  .debug_str:000000000000c0fa .LASF2357
C:\Users\SOLDER~1\AppData\Local\Temp\ccmjpsKj.s:27712  .debug_str:000000000001bfd0 .LASF2358
C:\Users\SOLDER~1\AppData\Local\Temp\ccmjpsKj.s:24664  .debug_str:000000000000fb57 .LASF2359
C:\Users\SOLDER~1\AppData\Local\Temp\ccmjpsKj.s:28116  .debug_str:000000000001da94 .LASF2360
C:\Users\SOLDER~1\AppData\Local\Temp\ccmjpsKj.s:28816  .debug_str:00000000000207eb .LASF2361
C:\Users\SOLDER~1\AppData\Local\Temp\ccmjpsKj.s:24230  .debug_str:000000000000deec .LASF2362
C:\Users\SOLDER~1\AppData\Local\Temp\ccmjpsKj.s:25508  .debug_str:000000000001316b .LASF2363
C:\Users\SOLDER~1\AppData\Local\Temp\ccmjpsKj.s:23536  .debug_str:000000000000b1ba .LASF2364
C:\Users\SOLDER~1\AppData\Local\Temp\ccmjpsKj.s:31514  .debug_str:000000000002b694 .LASF2365
C:\Users\SOLDER~1\AppData\Local\Temp\ccmjpsKj.s:28740  .debug_str:00000000000202f3 .LASF2366
C:\Users\SOLDER~1\AppData\Local\Temp\ccmjpsKj.s:29984  .debug_str:000000000002531f .LASF2367
C:\Users\SOLDER~1\AppData\Local\Temp\ccmjpsKj.s:28832  .debug_str:00000000000208e9 .LASF2368
C:\Users\SOLDER~1\AppData\Local\Temp\ccmjpsKj.s:26924  .debug_str:0000000000018d97 .LASF2369
C:\Users\SOLDER~1\AppData\Local\Temp\ccmjpsKj.s:21414  .debug_str:0000000000002899 .LASF2370
C:\Users\SOLDER~1\AppData\Local\Temp\ccmjpsKj.s:21876  .debug_str:00000000000045cc .LASF2371
C:\Users\SOLDER~1\AppData\Local\Temp\ccmjpsKj.s:28348  .debug_str:000000000001e96e .LASF2372
C:\Users\SOLDER~1\AppData\Local\Temp\ccmjpsKj.s:21858  .debug_str:00000000000044b7 .LASF2373
C:\Users\SOLDER~1\AppData\Local\Temp\ccmjpsKj.s:21696  .debug_str:0000000000003a8c .LASF2374
C:\Users\SOLDER~1\AppData\Local\Temp\ccmjpsKj.s:22316  .debug_str:00000000000061ad .LASF2375
C:\Users\SOLDER~1\AppData\Local\Temp\ccmjpsKj.s:27248  .debug_str:000000000001a22d .LASF2376
C:\Users\SOLDER~1\AppData\Local\Temp\ccmjpsKj.s:23336  .debug_str:000000000000a486 .LASF2377
C:\Users\SOLDER~1\AppData\Local\Temp\ccmjpsKj.s:21568  .debug_str:0000000000003256 .LASF2378
C:\Users\SOLDER~1\AppData\Local\Temp\ccmjpsKj.s:31228  .debug_str:000000000002a41f .LASF2379
C:\Users\SOLDER~1\AppData\Local\Temp\ccmjpsKj.s:30626  .debug_str:0000000000027d2c .LASF2380
C:\Users\SOLDER~1\AppData\Local\Temp\ccmjpsKj.s:20914  .debug_str:00000000000007e9 .LASF2381
C:\Users\SOLDER~1\AppData\Local\Temp\ccmjpsKj.s:32356  .debug_str:000000000002eccc .LASF2382
C:\Users\SOLDER~1\AppData\Local\Temp\ccmjpsKj.s:27748  .debug_str:000000000001c225 .LASF2383
C:\Users\SOLDER~1\AppData\Local\Temp\ccmjpsKj.s:23834  .debug_str:000000000000c4e7 .LASF2384
C:\Users\SOLDER~1\AppData\Local\Temp\ccmjpsKj.s:31906  .debug_str:000000000002cfba .LASF2385
C:\Users\SOLDER~1\AppData\Local\Temp\ccmjpsKj.s:31270  .debug_str:000000000002a6fa .LASF2386
C:\Users\SOLDER~1\AppData\Local\Temp\ccmjpsKj.s:31602  .debug_str:000000000002bc1e .LASF2387
C:\Users\SOLDER~1\AppData\Local\Temp\ccmjpsKj.s:32090  .debug_str:000000000002dbc4 .LASF2388
C:\Users\SOLDER~1\AppData\Local\Temp\ccmjpsKj.s:25998  .debug_str:0000000000015282 .LASF2389
C:\Users\SOLDER~1\AppData\Local\Temp\ccmjpsKj.s:22460  .debug_str:0000000000006b58 .LASF2390
GAS LISTING C:\Users\SOLDER~1\AppData\Local\Temp\ccmjpsKj.s 			page 95


C:\Users\SOLDER~1\AppData\Local\Temp\ccmjpsKj.s:24992  .debug_str:0000000000011090 .LASF2391
C:\Users\SOLDER~1\AppData\Local\Temp\ccmjpsKj.s:28518  .debug_str:000000000001f4b8 .LASF2392
C:\Users\SOLDER~1\AppData\Local\Temp\ccmjpsKj.s:22424  .debug_str:000000000000692a .LASF2393
C:\Users\SOLDER~1\AppData\Local\Temp\ccmjpsKj.s:27816  .debug_str:000000000001c6a4 .LASF2394
C:\Users\SOLDER~1\AppData\Local\Temp\ccmjpsKj.s:27550  .debug_str:000000000001b5b2 .LASF2395
C:\Users\SOLDER~1\AppData\Local\Temp\ccmjpsKj.s:21452  .debug_str:0000000000002b17 .LASF2396
C:\Users\SOLDER~1\AppData\Local\Temp\ccmjpsKj.s:24260  .debug_str:000000000000e0e7 .LASF2397
C:\Users\SOLDER~1\AppData\Local\Temp\ccmjpsKj.s:25622  .debug_str:00000000000138ff .LASF2398
C:\Users\SOLDER~1\AppData\Local\Temp\ccmjpsKj.s:29760  .debug_str:0000000000024450 .LASF2399
C:\Users\SOLDER~1\AppData\Local\Temp\ccmjpsKj.s:22914  .debug_str:0000000000008873 .LASF2400
C:\Users\SOLDER~1\AppData\Local\Temp\ccmjpsKj.s:24482  .debug_str:000000000000ef5e .LASF2401
C:\Users\SOLDER~1\AppData\Local\Temp\ccmjpsKj.s:25196  .debug_str:0000000000011d99 .LASF2402
C:\Users\SOLDER~1\AppData\Local\Temp\ccmjpsKj.s:29612  .debug_str:0000000000023add .LASF2403
C:\Users\SOLDER~1\AppData\Local\Temp\ccmjpsKj.s:24610  .debug_str:000000000000f78b .LASF2404
C:\Users\SOLDER~1\AppData\Local\Temp\ccmjpsKj.s:23622  .debug_str:000000000000b754 .LASF2405
C:\Users\SOLDER~1\AppData\Local\Temp\ccmjpsKj.s:30066  .debug_str:0000000000025845 .LASF2406
C:\Users\SOLDER~1\AppData\Local\Temp\ccmjpsKj.s:27652  .debug_str:000000000001bbe9 .LASF2407
C:\Users\SOLDER~1\AppData\Local\Temp\ccmjpsKj.s:25872  .debug_str:0000000000014a4b .LASF2408
C:\Users\SOLDER~1\AppData\Local\Temp\ccmjpsKj.s:28026  .debug_str:000000000001d4d9 .LASF2409
C:\Users\SOLDER~1\AppData\Local\Temp\ccmjpsKj.s:21980  .debug_str:0000000000004c71 .LASF2410
C:\Users\SOLDER~1\AppData\Local\Temp\ccmjpsKj.s:22418  .debug_str:00000000000068b6 .LASF2411
C:\Users\SOLDER~1\AppData\Local\Temp\ccmjpsKj.s:23524  .debug_str:000000000000b0eb .LASF2412
C:\Users\SOLDER~1\AppData\Local\Temp\ccmjpsKj.s:23860  .debug_str:000000000000c6cb .LASF2413
C:\Users\SOLDER~1\AppData\Local\Temp\ccmjpsKj.s:28900  .debug_str:0000000000020d5f .LASF2414
C:\Users\SOLDER~1\AppData\Local\Temp\ccmjpsKj.s:22562  .debug_str:000000000000723a .LASF2415
C:\Users\SOLDER~1\AppData\Local\Temp\ccmjpsKj.s:21842  .debug_str:00000000000043b1 .LASF2416
C:\Users\SOLDER~1\AppData\Local\Temp\ccmjpsKj.s:27628  .debug_str:000000000001ba8f .LASF2417
C:\Users\SOLDER~1\AppData\Local\Temp\ccmjpsKj.s:24698  .debug_str:000000000000fda9 .LASF2418
C:\Users\SOLDER~1\AppData\Local\Temp\ccmjpsKj.s:27398  .debug_str:000000000001ac10 .LASF2419
C:\Users\SOLDER~1\AppData\Local\Temp\ccmjpsKj.s:28362  .debug_str:000000000001ea68 .LASF2420
C:\Users\SOLDER~1\AppData\Local\Temp\ccmjpsKj.s:21024  .debug_str:0000000000000f99 .LASF2421
C:\Users\SOLDER~1\AppData\Local\Temp\ccmjpsKj.s:21142  .debug_str:000000000000171c .LASF2422
C:\Users\SOLDER~1\AppData\Local\Temp\ccmjpsKj.s:22028  .debug_str:0000000000004f5d .LASF2423
C:\Users\SOLDER~1\AppData\Local\Temp\ccmjpsKj.s:32114  .debug_str:000000000002dd3f .LASF2424
C:\Users\SOLDER~1\AppData\Local\Temp\ccmjpsKj.s:23644  .debug_str:000000000000b87d .LASF2425
C:\Users\SOLDER~1\AppData\Local\Temp\ccmjpsKj.s:25756  .debug_str:0000000000014282 .LASF2426
C:\Users\SOLDER~1\AppData\Local\Temp\ccmjpsKj.s:26584  .debug_str:000000000001778f .LASF2427
C:\Users\SOLDER~1\AppData\Local\Temp\ccmjpsKj.s:22414  .debug_str:0000000000006876 .LASF2428
C:\Users\SOLDER~1\AppData\Local\Temp\ccmjpsKj.s:21144  .debug_str:000000000000173e .LASF2429
C:\Users\SOLDER~1\AppData\Local\Temp\ccmjpsKj.s:25954  .debug_str:0000000000014fc4 .LASF2430
C:\Users\SOLDER~1\AppData\Local\Temp\ccmjpsKj.s:28042  .debug_str:000000000001d5f5 .LASF2431
C:\Users\SOLDER~1\AppData\Local\Temp\ccmjpsKj.s:20836  .debug_str:000000000000025d .LASF2432
C:\Users\SOLDER~1\AppData\Local\Temp\ccmjpsKj.s:21026  .debug_str:0000000000000fb1 .LASF2433
C:\Users\SOLDER~1\AppData\Local\Temp\ccmjpsKj.s:27626  .debug_str:000000000001ba6a .LASF2434
C:\Users\SOLDER~1\AppData\Local\Temp\ccmjpsKj.s:31716  .debug_str:000000000002c39e .LASF2435
C:\Users\SOLDER~1\AppData\Local\Temp\ccmjpsKj.s:21298  .debug_str:0000000000002103 .LASF2436
C:\Users\SOLDER~1\AppData\Local\Temp\ccmjpsKj.s:32020  .debug_str:000000000002d75a .LASF2437
C:\Users\SOLDER~1\AppData\Local\Temp\ccmjpsKj.s:30172  .debug_str:0000000000025f22 .LASF2438
C:\Users\SOLDER~1\AppData\Local\Temp\ccmjpsKj.s:31340  .debug_str:000000000002ab6c .LASF2439
C:\Users\SOLDER~1\AppData\Local\Temp\ccmjpsKj.s:26784  .debug_str:00000000000184b3 .LASF2440
C:\Users\SOLDER~1\AppData\Local\Temp\ccmjpsKj.s:24030  .debug_str:000000000000d244 .LASF2441
C:\Users\SOLDER~1\AppData\Local\Temp\ccmjpsKj.s:26452  .debug_str:0000000000016ed6 .LASF2442
C:\Users\SOLDER~1\AppData\Local\Temp\ccmjpsKj.s:31668  .debug_str:000000000002c03f .LASF2443
C:\Users\SOLDER~1\AppData\Local\Temp\ccmjpsKj.s:31116  .debug_str:0000000000029c99 .LASF2444
C:\Users\SOLDER~1\AppData\Local\Temp\ccmjpsKj.s:24032  .debug_str:000000000000d25a .LASF2445
C:\Users\SOLDER~1\AppData\Local\Temp\ccmjpsKj.s:28144  .debug_str:000000000001dc1f .LASF2446
C:\Users\SOLDER~1\AppData\Local\Temp\ccmjpsKj.s:23726  .debug_str:000000000000bda7 .LASF2447
GAS LISTING C:\Users\SOLDER~1\AppData\Local\Temp\ccmjpsKj.s 			page 96


C:\Users\SOLDER~1\AppData\Local\Temp\ccmjpsKj.s:28938  .debug_str:0000000000020fd2 .LASF2448
C:\Users\SOLDER~1\AppData\Local\Temp\ccmjpsKj.s:28678  .debug_str:000000000001ff1f .LASF2449
C:\Users\SOLDER~1\AppData\Local\Temp\ccmjpsKj.s:25948  .debug_str:0000000000014f6f .LASF2450
C:\Users\SOLDER~1\AppData\Local\Temp\ccmjpsKj.s:26308  .debug_str:0000000000016617 .LASF2451
C:\Users\SOLDER~1\AppData\Local\Temp\ccmjpsKj.s:25512  .debug_str:00000000000131a9 .LASF2452
C:\Users\SOLDER~1\AppData\Local\Temp\ccmjpsKj.s:29782  .debug_str:00000000000245c9 .LASF2453
C:\Users\SOLDER~1\AppData\Local\Temp\ccmjpsKj.s:24118  .debug_str:000000000000d7eb .LASF2454
C:\Users\SOLDER~1\AppData\Local\Temp\ccmjpsKj.s:31448  .debug_str:000000000002b20c .LASF2455
C:\Users\SOLDER~1\AppData\Local\Temp\ccmjpsKj.s:29968  .debug_str:000000000002520d .LASF2456
C:\Users\SOLDER~1\AppData\Local\Temp\ccmjpsKj.s:24344  .debug_str:000000000000e6c2 .LASF2457
C:\Users\SOLDER~1\AppData\Local\Temp\ccmjpsKj.s:30810  .debug_str:0000000000028931 .LASF2458
C:\Users\SOLDER~1\AppData\Local\Temp\ccmjpsKj.s:24036  .debug_str:000000000000d297 .LASF2459
C:\Users\SOLDER~1\AppData\Local\Temp\ccmjpsKj.s:28810  .debug_str:0000000000020783 .LASF2460
C:\Users\SOLDER~1\AppData\Local\Temp\ccmjpsKj.s:21246  .debug_str:0000000000001dd7 .LASF2461
C:\Users\SOLDER~1\AppData\Local\Temp\ccmjpsKj.s:30284  .debug_str:00000000000266ed .LASF2462
C:\Users\SOLDER~1\AppData\Local\Temp\ccmjpsKj.s:23898  .debug_str:000000000000c94d .LASF2463
C:\Users\SOLDER~1\AppData\Local\Temp\ccmjpsKj.s:30506  .debug_str:000000000002758c .LASF2464
C:\Users\SOLDER~1\AppData\Local\Temp\ccmjpsKj.s:22944  .debug_str:0000000000008a94 .LASF2465
C:\Users\SOLDER~1\AppData\Local\Temp\ccmjpsKj.s:24164  .debug_str:000000000000dad9 .LASF2466
C:\Users\SOLDER~1\AppData\Local\Temp\ccmjpsKj.s:24622  .debug_str:000000000000f864 .LASF2467
C:\Users\SOLDER~1\AppData\Local\Temp\ccmjpsKj.s:22816  .debug_str:000000000000827e .LASF2468
C:\Users\SOLDER~1\AppData\Local\Temp\ccmjpsKj.s:21738  .debug_str:0000000000003d45 .LASF2469
C:\Users\SOLDER~1\AppData\Local\Temp\ccmjpsKj.s:27806  .debug_str:000000000001c607 .LASF2470
C:\Users\SOLDER~1\AppData\Local\Temp\ccmjpsKj.s:30222  .debug_str:00000000000262b2 .LASF2471
C:\Users\SOLDER~1\AppData\Local\Temp\ccmjpsKj.s:29242  .debug_str:00000000000222d9 .LASF2472
C:\Users\SOLDER~1\AppData\Local\Temp\ccmjpsKj.s:27694  .debug_str:000000000001be9f .LASF2473
C:\Users\SOLDER~1\AppData\Local\Temp\ccmjpsKj.s:31088  .debug_str:0000000000029af1 .LASF2474
C:\Users\SOLDER~1\AppData\Local\Temp\ccmjpsKj.s:31840  .debug_str:000000000002cbbe .LASF2475
C:\Users\SOLDER~1\AppData\Local\Temp\ccmjpsKj.s:28192  .debug_str:000000000001df50 .LASF2476
C:\Users\SOLDER~1\AppData\Local\Temp\ccmjpsKj.s:31528  .debug_str:000000000002b764 .LASF2477
C:\Users\SOLDER~1\AppData\Local\Temp\ccmjpsKj.s:21670  .debug_str:00000000000038e5 .LASF2478
C:\Users\SOLDER~1\AppData\Local\Temp\ccmjpsKj.s:32106  .debug_str:000000000002dcd0 .LASF2479
C:\Users\SOLDER~1\AppData\Local\Temp\ccmjpsKj.s:28686  .debug_str:000000000001ff9a .LASF2480
C:\Users\SOLDER~1\AppData\Local\Temp\ccmjpsKj.s:24112  .debug_str:000000000000d797 .LASF2481
C:\Users\SOLDER~1\AppData\Local\Temp\ccmjpsKj.s:29740  .debug_str:00000000000242fc .LASF2482
C:\Users\SOLDER~1\AppData\Local\Temp\ccmjpsKj.s:25880  .debug_str:0000000000014ac3 .LASF2483
C:\Users\SOLDER~1\AppData\Local\Temp\ccmjpsKj.s:29050  .debug_str:0000000000021704 .LASF2484
C:\Users\SOLDER~1\AppData\Local\Temp\ccmjpsKj.s:27488  .debug_str:000000000001b20c .LASF2485
C:\Users\SOLDER~1\AppData\Local\Temp\ccmjpsKj.s:22706  .debug_str:0000000000007b3f .LASF2486
C:\Users\SOLDER~1\AppData\Local\Temp\ccmjpsKj.s:30248  .debug_str:0000000000026462 .LASF2487
C:\Users\SOLDER~1\AppData\Local\Temp\ccmjpsKj.s:27566  .debug_str:000000000001b69e .LASF2488
C:\Users\SOLDER~1\AppData\Local\Temp\ccmjpsKj.s:29776  .debug_str:000000000002456a .LASF2489
C:\Users\SOLDER~1\AppData\Local\Temp\ccmjpsKj.s:31764  .debug_str:000000000002c6e2 .LASF2490
C:\Users\SOLDER~1\AppData\Local\Temp\ccmjpsKj.s:31756  .debug_str:000000000002c675 .LASF2491
C:\Users\SOLDER~1\AppData\Local\Temp\ccmjpsKj.s:27170  .debug_str:0000000000019d47 .LASF2492
C:\Users\SOLDER~1\AppData\Local\Temp\ccmjpsKj.s:32396  .debug_str:000000000002ef67 .LASF2493
C:\Users\SOLDER~1\AppData\Local\Temp\ccmjpsKj.s:21762  .debug_str:0000000000003ecc .LASF2494
C:\Users\SOLDER~1\AppData\Local\Temp\ccmjpsKj.s:27690  .debug_str:000000000001be65 .LASF2495
C:\Users\SOLDER~1\AppData\Local\Temp\ccmjpsKj.s:27074  .debug_str:0000000000019771 .LASF2496
C:\Users\SOLDER~1\AppData\Local\Temp\ccmjpsKj.s:28860  .debug_str:0000000000020ac0 .LASF2497
C:\Users\SOLDER~1\AppData\Local\Temp\ccmjpsKj.s:27118  .debug_str:0000000000019a4e .LASF2498
C:\Users\SOLDER~1\AppData\Local\Temp\ccmjpsKj.s:30174  .debug_str:0000000000025f44 .LASF2499
C:\Users\SOLDER~1\AppData\Local\Temp\ccmjpsKj.s:30812  .debug_str:0000000000028954 .LASF2500
C:\Users\SOLDER~1\AppData\Local\Temp\ccmjpsKj.s:27214  .debug_str:000000000001a023 .LASF2501
C:\Users\SOLDER~1\AppData\Local\Temp\ccmjpsKj.s:31782  .debug_str:000000000002c814 .LASF2502
C:\Users\SOLDER~1\AppData\Local\Temp\ccmjpsKj.s:23790  .debug_str:000000000000c1be .LASF2503
C:\Users\SOLDER~1\AppData\Local\Temp\ccmjpsKj.s:26762  .debug_str:0000000000018332 .LASF2504
GAS LISTING C:\Users\SOLDER~1\AppData\Local\Temp\ccmjpsKj.s 			page 97


C:\Users\SOLDER~1\AppData\Local\Temp\ccmjpsKj.s:27944  .debug_str:000000000001cf3b .LASF2505
C:\Users\SOLDER~1\AppData\Local\Temp\ccmjpsKj.s:25160  .debug_str:0000000000011b65 .LASF2506
C:\Users\SOLDER~1\AppData\Local\Temp\ccmjpsKj.s:27562  .debug_str:000000000001b663 .LASF2507
C:\Users\SOLDER~1\AppData\Local\Temp\ccmjpsKj.s:25970  .debug_str:00000000000150cf .LASF2508
C:\Users\SOLDER~1\AppData\Local\Temp\ccmjpsKj.s:23312  .debug_str:000000000000a2fd .LASF2509
C:\Users\SOLDER~1\AppData\Local\Temp\ccmjpsKj.s:23024  .debug_str:0000000000008fe8 .LASF2510
C:\Users\SOLDER~1\AppData\Local\Temp\ccmjpsKj.s:20948  .debug_str:0000000000000a6e .LASF2511
C:\Users\SOLDER~1\AppData\Local\Temp\ccmjpsKj.s:22376  .debug_str:00000000000065a1 .LASF2512
C:\Users\SOLDER~1\AppData\Local\Temp\ccmjpsKj.s:21958  .debug_str:0000000000004aee .LASF2513
C:\Users\SOLDER~1\AppData\Local\Temp\ccmjpsKj.s:21698  .debug_str:0000000000003ab1 .LASF2514
C:\Users\SOLDER~1\AppData\Local\Temp\ccmjpsKj.s:23580  .debug_str:000000000000b48b .LASF2515
C:\Users\SOLDER~1\AppData\Local\Temp\ccmjpsKj.s:27030  .debug_str:000000000001947e .LASF2516
C:\Users\SOLDER~1\AppData\Local\Temp\ccmjpsKj.s:22134  .debug_str:0000000000005574 .LASF2517
C:\Users\SOLDER~1\AppData\Local\Temp\ccmjpsKj.s:24366  .debug_str:000000000000e801 .LASF2518
C:\Users\SOLDER~1\AppData\Local\Temp\ccmjpsKj.s:29922  .debug_str:0000000000024f2d .LASF2519
C:\Users\SOLDER~1\AppData\Local\Temp\ccmjpsKj.s:23076  .debug_str:000000000000936e .LASF2520
C:\Users\SOLDER~1\AppData\Local\Temp\ccmjpsKj.s:31450  .debug_str:000000000002b224 .LASF2521
C:\Users\SOLDER~1\AppData\Local\Temp\ccmjpsKj.s:23866  .debug_str:000000000000c71e .LASF2522
C:\Users\SOLDER~1\AppData\Local\Temp\ccmjpsKj.s:29698  .debug_str:0000000000024034 .LASF2523
C:\Users\SOLDER~1\AppData\Local\Temp\ccmjpsKj.s:24696  .debug_str:000000000000fd84 .LASF2524
C:\Users\SOLDER~1\AppData\Local\Temp\ccmjpsKj.s:30354  .debug_str:0000000000026ba1 .LASF2525
C:\Users\SOLDER~1\AppData\Local\Temp\ccmjpsKj.s:21982  .debug_str:0000000000004c96 .LASF2526
C:\Users\SOLDER~1\AppData\Local\Temp\ccmjpsKj.s:21600  .debug_str:000000000000347d .LASF2527
C:\Users\SOLDER~1\AppData\Local\Temp\ccmjpsKj.s:29094  .debug_str:00000000000219e0 .LASF2528
C:\Users\SOLDER~1\AppData\Local\Temp\ccmjpsKj.s:27048  .debug_str:00000000000195a5 .LASF2529
C:\Users\SOLDER~1\AppData\Local\Temp\ccmjpsKj.s:22058  .debug_str:000000000000510a .LASF2530
C:\Users\SOLDER~1\AppData\Local\Temp\ccmjpsKj.s:30892  .debug_str:0000000000028e9f .LASF2531
C:\Users\SOLDER~1\AppData\Local\Temp\ccmjpsKj.s:22008  .debug_str:0000000000004e2a .LASF2532
C:\Users\SOLDER~1\AppData\Local\Temp\ccmjpsKj.s:32248  .debug_str:000000000002e5c5 .LASF2533
C:\Users\SOLDER~1\AppData\Local\Temp\ccmjpsKj.s:21202  .debug_str:0000000000001ac5 .LASF2534
C:\Users\SOLDER~1\AppData\Local\Temp\ccmjpsKj.s:21866  .debug_str:0000000000004534 .LASF2535
C:\Users\SOLDER~1\AppData\Local\Temp\ccmjpsKj.s:27220  .debug_str:000000000001a06f .LASF2536
C:\Users\SOLDER~1\AppData\Local\Temp\ccmjpsKj.s:28794  .debug_str:0000000000020676 .LASF2537
C:\Users\SOLDER~1\AppData\Local\Temp\ccmjpsKj.s:21524  .debug_str:0000000000002fa5 .LASF2538
C:\Users\SOLDER~1\AppData\Local\Temp\ccmjpsKj.s:24596  .debug_str:000000000000f6b9 .LASF2539
C:\Users\SOLDER~1\AppData\Local\Temp\ccmjpsKj.s:27536  .debug_str:000000000001b4bf .LASF2540
C:\Users\SOLDER~1\AppData\Local\Temp\ccmjpsKj.s:31498  .debug_str:000000000002b5b6 .LASF2541
C:\Users\SOLDER~1\AppData\Local\Temp\ccmjpsKj.s:21756  .debug_str:0000000000003e68 .LASF2542
C:\Users\SOLDER~1\AppData\Local\Temp\ccmjpsKj.s:27256  .debug_str:000000000001a2c2 .LASF2543
C:\Users\SOLDER~1\AppData\Local\Temp\ccmjpsKj.s:25348  .debug_str:00000000000126fd .LASF2544
C:\Users\SOLDER~1\AppData\Local\Temp\ccmjpsKj.s:21030  .debug_str:0000000000000feb .LASF2545
C:\Users\SOLDER~1\AppData\Local\Temp\ccmjpsKj.s:31616  .debug_str:000000000002bd0f .LASF2546
C:\Users\SOLDER~1\AppData\Local\Temp\ccmjpsKj.s:22624  .debug_str:000000000000761e .LASF2547
C:\Users\SOLDER~1\AppData\Local\Temp\ccmjpsKj.s:30796  .debug_str:0000000000028854 .LASF2548
C:\Users\SOLDER~1\AppData\Local\Temp\ccmjpsKj.s:24234  .debug_str:000000000000df32 .LASF2549
C:\Users\SOLDER~1\AppData\Local\Temp\ccmjpsKj.s:30142  .debug_str:0000000000025d44 .LASF2550
C:\Users\SOLDER~1\AppData\Local\Temp\ccmjpsKj.s:25798  .debug_str:0000000000014579 .LASF2551
C:\Users\SOLDER~1\AppData\Local\Temp\ccmjpsKj.s:23526  .debug_str:000000000000b10b .LASF2552
C:\Users\SOLDER~1\AppData\Local\Temp\ccmjpsKj.s:27406  .debug_str:000000000001ac74 .LASF2553
C:\Users\SOLDER~1\AppData\Local\Temp\ccmjpsKj.s:23386  .debug_str:000000000000a811 .LASF2554
C:\Users\SOLDER~1\AppData\Local\Temp\ccmjpsKj.s:28888  .debug_str:0000000000020c98 .LASF2555
C:\Users\SOLDER~1\AppData\Local\Temp\ccmjpsKj.s:22098  .debug_str:0000000000005373 .LASF2556
C:\Users\SOLDER~1\AppData\Local\Temp\ccmjpsKj.s:27128  .debug_str:0000000000019add .LASF2557
C:\Users\SOLDER~1\AppData\Local\Temp\ccmjpsKj.s:27172  .debug_str:0000000000019d6a .LASF2558
C:\Users\SOLDER~1\AppData\Local\Temp\ccmjpsKj.s:27504  .debug_str:000000000001b303 .LASF2559
C:\Users\SOLDER~1\AppData\Local\Temp\ccmjpsKj.s:21596  .debug_str:0000000000003432 .LASF2560
C:\Users\SOLDER~1\AppData\Local\Temp\ccmjpsKj.s:28990  .debug_str:0000000000021337 .LASF2561
GAS LISTING C:\Users\SOLDER~1\AppData\Local\Temp\ccmjpsKj.s 			page 98


C:\Users\SOLDER~1\AppData\Local\Temp\ccmjpsKj.s:26766  .debug_str:000000000001837d .LASF2562
C:\Users\SOLDER~1\AppData\Local\Temp\ccmjpsKj.s:30614  .debug_str:0000000000027c88 .LASF2563
C:\Users\SOLDER~1\AppData\Local\Temp\ccmjpsKj.s:31846  .debug_str:000000000002cbff .LASF2564
C:\Users\SOLDER~1\AppData\Local\Temp\ccmjpsKj.s:32284  .debug_str:000000000002e7ee .LASF2565
C:\Users\SOLDER~1\AppData\Local\Temp\ccmjpsKj.s:25208  .debug_str:0000000000011e62 .LASF2566
C:\Users\SOLDER~1\AppData\Local\Temp\ccmjpsKj.s:22104  .debug_str:00000000000053cc .LASF2567
C:\Users\SOLDER~1\AppData\Local\Temp\ccmjpsKj.s:30036  .debug_str:0000000000025661 .LASF2568
C:\Users\SOLDER~1\AppData\Local\Temp\ccmjpsKj.s:23730  .debug_str:000000000000bde4 .LASF2569
C:\Users\SOLDER~1\AppData\Local\Temp\ccmjpsKj.s:23756  .debug_str:000000000000bf6e .LASF2570
C:\Users\SOLDER~1\AppData\Local\Temp\ccmjpsKj.s:25368  .debug_str:000000000001288a .LASF2571
C:\Users\SOLDER~1\AppData\Local\Temp\ccmjpsKj.s:28780  .debug_str:0000000000020577 .LASF2572
C:\Users\SOLDER~1\AppData\Local\Temp\ccmjpsKj.s:28228  .debug_str:000000000001e1d3 .LASF2573
C:\Users\SOLDER~1\AppData\Local\Temp\ccmjpsKj.s:21478  .debug_str:0000000000002c86 .LASF2574
C:\Users\SOLDER~1\AppData\Local\Temp\ccmjpsKj.s:26362  .debug_str:0000000000016944 .LASF2575
C:\Users\SOLDER~1\AppData\Local\Temp\ccmjpsKj.s:27588  .debug_str:000000000001b80b .LASF2576
C:\Users\SOLDER~1\AppData\Local\Temp\ccmjpsKj.s:24398  .debug_str:000000000000ea46 .LASF2577
C:\Users\SOLDER~1\AppData\Local\Temp\ccmjpsKj.s:28234  .debug_str:000000000001e223 .LASF2578
C:\Users\SOLDER~1\AppData\Local\Temp\ccmjpsKj.s:22478  .debug_str:0000000000006c75 .LASF2579
C:\Users\SOLDER~1\AppData\Local\Temp\ccmjpsKj.s:23870  .debug_str:000000000000c75e .LASF2580
C:\Users\SOLDER~1\AppData\Local\Temp\ccmjpsKj.s:32258  .debug_str:000000000002e653 .LASF2581
C:\Users\SOLDER~1\AppData\Local\Temp\ccmjpsKj.s:28430  .debug_str:000000000001eed3 .LASF2582
C:\Users\SOLDER~1\AppData\Local\Temp\ccmjpsKj.s:30282  .debug_str:00000000000266d4 .LASF2583
C:\Users\SOLDER~1\AppData\Local\Temp\ccmjpsKj.s:29042  .debug_str:0000000000021690 .LASF2584
C:\Users\SOLDER~1\AppData\Local\Temp\ccmjpsKj.s:28390  .debug_str:000000000001ec5a .LASF2585
C:\Users\SOLDER~1\AppData\Local\Temp\ccmjpsKj.s:24528  .debug_str:000000000000f241 .LASF2586
C:\Users\SOLDER~1\AppData\Local\Temp\ccmjpsKj.s:26522  .debug_str:000000000001734f .LASF2587
C:\Users\SOLDER~1\AppData\Local\Temp\ccmjpsKj.s:21114  .debug_str:0000000000001551 .LASF2588
C:\Users\SOLDER~1\AppData\Local\Temp\ccmjpsKj.s:24562  .debug_str:000000000000f473 .LASF2589
C:\Users\SOLDER~1\AppData\Local\Temp\ccmjpsKj.s:24334  .debug_str:000000000000e60e .LASF2590
C:\Users\SOLDER~1\AppData\Local\Temp\ccmjpsKj.s:27368  .debug_str:000000000001aa10 .LASF2591
C:\Users\SOLDER~1\AppData\Local\Temp\ccmjpsKj.s:22040  .debug_str:0000000000005005 .LASF2592
C:\Users\SOLDER~1\AppData\Local\Temp\ccmjpsKj.s:28630  .debug_str:000000000001fc2b .LASF2593
C:\Users\SOLDER~1\AppData\Local\Temp\ccmjpsKj.s:28328  .debug_str:000000000001e7ed .LASF2594
C:\Users\SOLDER~1\AppData\Local\Temp\ccmjpsKj.s:26936  .debug_str:0000000000018e56 .LASF2595
C:\Users\SOLDER~1\AppData\Local\Temp\ccmjpsKj.s:21222  .debug_str:0000000000001c22 .LASF2596
C:\Users\SOLDER~1\AppData\Local\Temp\ccmjpsKj.s:25250  .debug_str:0000000000012106 .LASF2597
C:\Users\SOLDER~1\AppData\Local\Temp\ccmjpsKj.s:31848  .debug_str:000000000002cc24 .LASF2598
C:\Users\SOLDER~1\AppData\Local\Temp\ccmjpsKj.s:23568  .debug_str:000000000000b3bd .LASF2599
C:\Users\SOLDER~1\AppData\Local\Temp\ccmjpsKj.s:27950  .debug_str:000000000001cfa0 .LASF2600
C:\Users\SOLDER~1\AppData\Local\Temp\ccmjpsKj.s:21822  .debug_str:0000000000004289 .LASF2601
C:\Users\SOLDER~1\AppData\Local\Temp\ccmjpsKj.s:24068  .debug_str:000000000000d4b1 .LASF2602
C:\Users\SOLDER~1\AppData\Local\Temp\ccmjpsKj.s:31862  .debug_str:000000000002cd0e .LASF2603
C:\Users\SOLDER~1\AppData\Local\Temp\ccmjpsKj.s:27414  .debug_str:000000000001acf3 .LASF2604
C:\Users\SOLDER~1\AppData\Local\Temp\ccmjpsKj.s:26658  .debug_str:0000000000017c47 .LASF2605
C:\Users\SOLDER~1\AppData\Local\Temp\ccmjpsKj.s:22700  .debug_str:0000000000007ac8 .LASF2606
C:\Users\SOLDER~1\AppData\Local\Temp\ccmjpsKj.s:28434  .debug_str:000000000001ef1e .LASF2607
C:\Users\SOLDER~1\AppData\Local\Temp\ccmjpsKj.s:32306  .debug_str:000000000002e954 .LASF2608
C:\Users\SOLDER~1\AppData\Local\Temp\ccmjpsKj.s:26838  .debug_str:00000000000187f5 .LASF2609
C:\Users\SOLDER~1\AppData\Local\Temp\ccmjpsKj.s:25856  .debug_str:0000000000014959 .LASF2610
C:\Users\SOLDER~1\AppData\Local\Temp\ccmjpsKj.s:25152  .debug_str:0000000000011ad1 .LASF2611
C:\Users\SOLDER~1\AppData\Local\Temp\ccmjpsKj.s:31128  .debug_str:0000000000029d48 .LASF2612
C:\Users\SOLDER~1\AppData\Local\Temp\ccmjpsKj.s:24660  .debug_str:000000000000fb1c .LASF2613
C:\Users\SOLDER~1\AppData\Local\Temp\ccmjpsKj.s:21826  .debug_str:00000000000042be .LASF2614
C:\Users\SOLDER~1\AppData\Local\Temp\ccmjpsKj.s:20886  .debug_str:000000000000059b .LASF2615
C:\Users\SOLDER~1\AppData\Local\Temp\ccmjpsKj.s:27828  .debug_str:000000000001c756 .LASF2616
C:\Users\SOLDER~1\AppData\Local\Temp\ccmjpsKj.s:30592  .debug_str:0000000000027b31 .LASF2617
C:\Users\SOLDER~1\AppData\Local\Temp\ccmjpsKj.s:22350  .debug_str:00000000000063e9 .LASF2618
GAS LISTING C:\Users\SOLDER~1\AppData\Local\Temp\ccmjpsKj.s 			page 99


C:\Users\SOLDER~1\AppData\Local\Temp\ccmjpsKj.s:28674  .debug_str:000000000001feda .LASF2619
C:\Users\SOLDER~1\AppData\Local\Temp\ccmjpsKj.s:28732  .debug_str:0000000000020281 .LASF2620
C:\Users\SOLDER~1\AppData\Local\Temp\ccmjpsKj.s:26860  .debug_str:0000000000018988 .LASF2621
C:\Users\SOLDER~1\AppData\Local\Temp\ccmjpsKj.s:28684  .debug_str:000000000001ff74 .LASF2622
C:\Users\SOLDER~1\AppData\Local\Temp\ccmjpsKj.s:24000  .debug_str:000000000000d04d .LASF2623
C:\Users\SOLDER~1\AppData\Local\Temp\ccmjpsKj.s:29388  .debug_str:0000000000022c41 .LASF2624
C:\Users\SOLDER~1\AppData\Local\Temp\ccmjpsKj.s:22934  .debug_str:00000000000089f8 .LASF2625
C:\Users\SOLDER~1\AppData\Local\Temp\ccmjpsKj.s:24904  .debug_str:0000000000010afa .LASF2626
C:\Users\SOLDER~1\AppData\Local\Temp\ccmjpsKj.s:21046  .debug_str:00000000000010d7 .LASF2627
C:\Users\SOLDER~1\AppData\Local\Temp\ccmjpsKj.s:21454  .debug_str:0000000000002b39 .LASF2628
C:\Users\SOLDER~1\AppData\Local\Temp\ccmjpsKj.s:30750  .debug_str:000000000002855f .LASF2629
C:\Users\SOLDER~1\AppData\Local\Temp\ccmjpsKj.s:31254  .debug_str:000000000002a5e7 .LASF2630
C:\Users\SOLDER~1\AppData\Local\Temp\ccmjpsKj.s:28910  .debug_str:0000000000020e17 .LASF2631
C:\Users\SOLDER~1\AppData\Local\Temp\ccmjpsKj.s:22308  .debug_str:0000000000006119 .LASF2632
C:\Users\SOLDER~1\AppData\Local\Temp\ccmjpsKj.s:32438  .debug_str:000000000002f1d9 .LASF2633
C:\Users\SOLDER~1\AppData\Local\Temp\ccmjpsKj.s:25060  .debug_str:00000000000114e7 .LASF2634
C:\Users\SOLDER~1\AppData\Local\Temp\ccmjpsKj.s:24440  .debug_str:000000000000ecb3 .LASF2635
C:\Users\SOLDER~1\AppData\Local\Temp\ccmjpsKj.s:29538  .debug_str:00000000000235e1 .LASF2636
C:\Users\SOLDER~1\AppData\Local\Temp\ccmjpsKj.s:30680  .debug_str:00000000000280e8 .LASF2637
C:\Users\SOLDER~1\AppData\Local\Temp\ccmjpsKj.s:28614  .debug_str:000000000001fb39 .LASF2638
C:\Users\SOLDER~1\AppData\Local\Temp\ccmjpsKj.s:24480  .debug_str:000000000000ef44 .LASF2639
C:\Users\SOLDER~1\AppData\Local\Temp\ccmjpsKj.s:26614  .debug_str:0000000000017983 .LASF2640
C:\Users\SOLDER~1\AppData\Local\Temp\ccmjpsKj.s:31152  .debug_str:0000000000029eec .LASF2641
C:\Users\SOLDER~1\AppData\Local\Temp\ccmjpsKj.s:22582  .debug_str:0000000000007384 .LASF2642
C:\Users\SOLDER~1\AppData\Local\Temp\ccmjpsKj.s:29354  .debug_str:00000000000229ee .LASF2643
C:\Users\SOLDER~1\AppData\Local\Temp\ccmjpsKj.s:24084  .debug_str:000000000000d5d1 .LASF2644
C:\Users\SOLDER~1\AppData\Local\Temp\ccmjpsKj.s:27744  .debug_str:000000000001c1f3 .LASF2645
C:\Users\SOLDER~1\AppData\Local\Temp\ccmjpsKj.s:26070  .debug_str:0000000000015749 .LASF2646
C:\Users\SOLDER~1\AppData\Local\Temp\ccmjpsKj.s:26106  .debug_str:00000000000159a3 .LASF2647
C:\Users\SOLDER~1\AppData\Local\Temp\ccmjpsKj.s:28948  .debug_str:000000000002108f .LASF2648
C:\Users\SOLDER~1\AppData\Local\Temp\ccmjpsKj.s:24324  .debug_str:000000000000e57d .LASF2649
C:\Users\SOLDER~1\AppData\Local\Temp\ccmjpsKj.s:30624  .debug_str:0000000000027d05 .LASF2650
C:\Users\SOLDER~1\AppData\Local\Temp\ccmjpsKj.s:22690  .debug_str:0000000000007a43 .LASF2651
C:\Users\SOLDER~1\AppData\Local\Temp\ccmjpsKj.s:27802  .debug_str:000000000001c5bc .LASF2652
C:\Users\SOLDER~1\AppData\Local\Temp\ccmjpsKj.s:23294  .debug_str:000000000000a1ca .LASF2653
C:\Users\SOLDER~1\AppData\Local\Temp\ccmjpsKj.s:21422  .debug_str:0000000000002956 .LASF2654
C:\Users\SOLDER~1\AppData\Local\Temp\ccmjpsKj.s:21402  .debug_str:00000000000027e5 .LASF2655
C:\Users\SOLDER~1\AppData\Local\Temp\ccmjpsKj.s:27530  .debug_str:000000000001b45a .LASF2656
C:\Users\SOLDER~1\AppData\Local\Temp\ccmjpsKj.s:29460  .debug_str:00000000000230ca .LASF2657
C:\Users\SOLDER~1\AppData\Local\Temp\ccmjpsKj.s:22148  .debug_str:000000000000564e .LASF2658
C:\Users\SOLDER~1\AppData\Local\Temp\ccmjpsKj.s:29198  .debug_str:0000000000022036 .LASF2659
C:\Users\SOLDER~1\AppData\Local\Temp\ccmjpsKj.s:28316  .debug_str:000000000001e720 .LASF2660
C:\Users\SOLDER~1\AppData\Local\Temp\ccmjpsKj.s:27332  .debug_str:000000000001a7aa .LASF2661
C:\Users\SOLDER~1\AppData\Local\Temp\ccmjpsKj.s:28280  .debug_str:000000000001e4f2 .LASF2662
C:\Users\SOLDER~1\AppData\Local\Temp\ccmjpsKj.s:25402  .debug_str:0000000000012a87 .LASF2663
C:\Users\SOLDER~1\AppData\Local\Temp\ccmjpsKj.s:28986  .debug_str:00000000000212d7 .LASF2664
C:\Users\SOLDER~1\AppData\Local\Temp\ccmjpsKj.s:23468  .debug_str:000000000000ad3e .LASF2665
C:\Users\SOLDER~1\AppData\Local\Temp\ccmjpsKj.s:24468  .debug_str:000000000000ee7c .LASF2666
C:\Users\SOLDER~1\AppData\Local\Temp\ccmjpsKj.s:21564  .debug_str:000000000000322b .LASF2667
C:\Users\SOLDER~1\AppData\Local\Temp\ccmjpsKj.s:21066  .debug_str:0000000000001228 .LASF2668
C:\Users\SOLDER~1\AppData\Local\Temp\ccmjpsKj.s:21888  .debug_str:0000000000004693 .LASF2669
C:\Users\SOLDER~1\AppData\Local\Temp\ccmjpsKj.s:29880  .debug_str:0000000000024c61 .LASF2670
C:\Users\SOLDER~1\AppData\Local\Temp\ccmjpsKj.s:29344  .debug_str:0000000000022958 .LASF2671
C:\Users\SOLDER~1\AppData\Local\Temp\ccmjpsKj.s:29966  .debug_str:00000000000251e7 .LASF2672
C:\Users\SOLDER~1\AppData\Local\Temp\ccmjpsKj.s:30040  .debug_str:00000000000256a4 .LASF2673
C:\Users\SOLDER~1\AppData\Local\Temp\ccmjpsKj.s:29068  .debug_str:0000000000021838 .LASF2674
C:\Users\SOLDER~1\AppData\Local\Temp\ccmjpsKj.s:28414  .debug_str:000000000001ede9 .LASF2675
GAS LISTING C:\Users\SOLDER~1\AppData\Local\Temp\ccmjpsKj.s 			page 100


C:\Users\SOLDER~1\AppData\Local\Temp\ccmjpsKj.s:27174  .debug_str:0000000000019d8f .LASF2676
C:\Users\SOLDER~1\AppData\Local\Temp\ccmjpsKj.s:26812  .debug_str:0000000000018667 .LASF2677
C:\Users\SOLDER~1\AppData\Local\Temp\ccmjpsKj.s:26226  .debug_str:00000000000160a3 .LASF2678
C:\Users\SOLDER~1\AppData\Local\Temp\ccmjpsKj.s:25130  .debug_str:000000000001197d .LASF2679
C:\Users\SOLDER~1\AppData\Local\Temp\ccmjpsKj.s:22318  .debug_str:00000000000061c4 .LASF2680
C:\Users\SOLDER~1\AppData\Local\Temp\ccmjpsKj.s:23340  .debug_str:000000000000a4cc .LASF2681
C:\Users\SOLDER~1\AppData\Local\Temp\ccmjpsKj.s:31930  .debug_str:000000000002d13f .LASF2682
C:\Users\SOLDER~1\AppData\Local\Temp\ccmjpsKj.s:21718  .debug_str:0000000000003c0f .LASF2683
C:\Users\SOLDER~1\AppData\Local\Temp\ccmjpsKj.s:21754  .debug_str:0000000000003e41 .LASF2684
C:\Users\SOLDER~1\AppData\Local\Temp\ccmjpsKj.s:28354  .debug_str:000000000001e9e0 .LASF2685
C:\Users\SOLDER~1\AppData\Local\Temp\ccmjpsKj.s:28628  .debug_str:000000000001fc04 .LASF2686
C:\Users\SOLDER~1\AppData\Local\Temp\ccmjpsKj.s:27094  .debug_str:00000000000198ff .LASF2687
C:\Users\SOLDER~1\AppData\Local\Temp\ccmjpsKj.s:26694  .debug_str:0000000000017e90 .LASF2688
C:\Users\SOLDER~1\AppData\Local\Temp\ccmjpsKj.s:28306  .debug_str:000000000001e697 .LASF2689
C:\Users\SOLDER~1\AppData\Local\Temp\ccmjpsKj.s:28206  .debug_str:000000000001e041 .LASF2690
C:\Users\SOLDER~1\AppData\Local\Temp\ccmjpsKj.s:26720  .debug_str:0000000000018049 .LASF2691
C:\Users\SOLDER~1\AppData\Local\Temp\ccmjpsKj.s:29448  .debug_str:000000000002300a .LASF2692
C:\Users\SOLDER~1\AppData\Local\Temp\ccmjpsKj.s:22118  .debug_str:0000000000005490 .LASF2693
C:\Users\SOLDER~1\AppData\Local\Temp\ccmjpsKj.s:30504  .debug_str:0000000000027566 .LASF2694
C:\Users\SOLDER~1\AppData\Local\Temp\ccmjpsKj.s:31890  .debug_str:000000000002ceb6 .LASF2695
C:\Users\SOLDER~1\AppData\Local\Temp\ccmjpsKj.s:25614  .debug_str:0000000000013880 .LASF2696
C:\Users\SOLDER~1\AppData\Local\Temp\ccmjpsKj.s:25530  .debug_str:00000000000132e9 .LASF2697
C:\Users\SOLDER~1\AppData\Local\Temp\ccmjpsKj.s:21924  .debug_str:00000000000048f2 .LASF2698
C:\Users\SOLDER~1\AppData\Local\Temp\ccmjpsKj.s:28028  .debug_str:000000000001d4f5 .LASF2699
C:\Users\SOLDER~1\AppData\Local\Temp\ccmjpsKj.s:28304  .debug_str:000000000001e671 .LASF2700
C:\Users\SOLDER~1\AppData\Local\Temp\ccmjpsKj.s:26150  .debug_str:0000000000015c04 .LASF2701
C:\Users\SOLDER~1\AppData\Local\Temp\ccmjpsKj.s:28264  .debug_str:000000000001e3f6 .LASF2702
C:\Users\SOLDER~1\AppData\Local\Temp\ccmjpsKj.s:24194  .debug_str:000000000000dc79 .LASF2703
C:\Users\SOLDER~1\AppData\Local\Temp\ccmjpsKj.s:28876  .debug_str:0000000000020bc0 .LASF2704
C:\Users\SOLDER~1\AppData\Local\Temp\ccmjpsKj.s:22282  .debug_str:0000000000005f30 .LASF2705
C:\Users\SOLDER~1\AppData\Local\Temp\ccmjpsKj.s:24348  .debug_str:000000000000e6e5 .LASF2706
C:\Users\SOLDER~1\AppData\Local\Temp\ccmjpsKj.s:32044  .debug_str:000000000002d8b7 .LASF2707
C:\Users\SOLDER~1\AppData\Local\Temp\ccmjpsKj.s:25876  .debug_str:0000000000014a7f .LASF2708
C:\Users\SOLDER~1\AppData\Local\Temp\ccmjpsKj.s:30170  .debug_str:0000000000025f0a .LASF2709
C:\Users\SOLDER~1\AppData\Local\Temp\ccmjpsKj.s:30826  .debug_str:0000000000028a21 .LASF2710
C:\Users\SOLDER~1\AppData\Local\Temp\ccmjpsKj.s:28276  .debug_str:000000000001e4af .LASF2711
C:\Users\SOLDER~1\AppData\Local\Temp\ccmjpsKj.s:28672  .debug_str:000000000001feb4 .LASF2712
C:\Users\SOLDER~1\AppData\Local\Temp\ccmjpsKj.s:26680  .debug_str:0000000000017db3 .LASF2713
C:\Users\SOLDER~1\AppData\Local\Temp\ccmjpsKj.s:29008  .debug_str:000000000002147d .LASF2714
C:\Users\SOLDER~1\AppData\Local\Temp\ccmjpsKj.s:22998  .debug_str:0000000000008e2c .LASF2715
C:\Users\SOLDER~1\AppData\Local\Temp\ccmjpsKj.s:21792  .debug_str:000000000000408f .LASF2716
C:\Users\SOLDER~1\AppData\Local\Temp\ccmjpsKj.s:23204  .debug_str:0000000000009bae .LASF2717
C:\Users\SOLDER~1\AppData\Local\Temp\ccmjpsKj.s:20972  .debug_str:0000000000000c1d .LASF2718
C:\Users\SOLDER~1\AppData\Local\Temp\ccmjpsKj.s:20806  .debug_str:00000000000000a4 .LASF2719
C:\Users\SOLDER~1\AppData\Local\Temp\ccmjpsKj.s:28738  .debug_str:00000000000202cc .LASF2720
C:\Users\SOLDER~1\AppData\Local\Temp\ccmjpsKj.s:26792  .debug_str:0000000000018529 .LASF2721
C:\Users\SOLDER~1\AppData\Local\Temp\ccmjpsKj.s:29546  .debug_str:000000000002367a .LASF2722
C:\Users\SOLDER~1\AppData\Local\Temp\ccmjpsKj.s:29790  .debug_str:0000000000024652 .LASF2723
C:\Users\SOLDER~1\AppData\Local\Temp\ccmjpsKj.s:28076  .debug_str:000000000001d81e .LASF2724
C:\Users\SOLDER~1\AppData\Local\Temp\ccmjpsKj.s:28156  .debug_str:000000000001dcee .LASF2725
C:\Users\SOLDER~1\AppData\Local\Temp\ccmjpsKj.s:23374  .debug_str:000000000000a73f .LASF2726
C:\Users\SOLDER~1\AppData\Local\Temp\ccmjpsKj.s:26570  .debug_str:000000000001768f .LASF2727
C:\Users\SOLDER~1\AppData\Local\Temp\ccmjpsKj.s:21302  .debug_str:000000000000214b .LASF2728
C:\Users\SOLDER~1\AppData\Local\Temp\ccmjpsKj.s:24794  .debug_str:00000000000103d6 .LASF2729
C:\Users\SOLDER~1\AppData\Local\Temp\ccmjpsKj.s:22968  .debug_str:0000000000008bf1 .LASF2730
C:\Users\SOLDER~1\AppData\Local\Temp\ccmjpsKj.s:23112  .debug_str:00000000000095e6 .LASF2731
C:\Users\SOLDER~1\AppData\Local\Temp\ccmjpsKj.s:31818  .debug_str:000000000002ca3f .LASF2732
GAS LISTING C:\Users\SOLDER~1\AppData\Local\Temp\ccmjpsKj.s 			page 101


C:\Users\SOLDER~1\AppData\Local\Temp\ccmjpsKj.s:31952  .debug_str:000000000002d2c9 .LASF2733
C:\Users\SOLDER~1\AppData\Local\Temp\ccmjpsKj.s:30146  .debug_str:0000000000025d84 .LASF2734
C:\Users\SOLDER~1\AppData\Local\Temp\ccmjpsKj.s:29986  .debug_str:0000000000025338 .LASF2735
C:\Users\SOLDER~1\AppData\Local\Temp\ccmjpsKj.s:24614  .debug_str:000000000000f7ca .LASF2736
C:\Users\SOLDER~1\AppData\Local\Temp\ccmjpsKj.s:28086  .debug_str:000000000001d8bc .LASF2737
C:\Users\SOLDER~1\AppData\Local\Temp\ccmjpsKj.s:30786  .debug_str:00000000000287b6 .LASF2738
C:\Users\SOLDER~1\AppData\Local\Temp\ccmjpsKj.s:26212  .debug_str:0000000000015fe3 .LASF2739
C:\Users\SOLDER~1\AppData\Local\Temp\ccmjpsKj.s:25526  .debug_str:0000000000013297 .LASF2740
C:\Users\SOLDER~1\AppData\Local\Temp\ccmjpsKj.s:24252  .debug_str:000000000000e062 .LASF2741
C:\Users\SOLDER~1\AppData\Local\Temp\ccmjpsKj.s:21712  .debug_str:0000000000003b9d .LASF2742
C:\Users\SOLDER~1\AppData\Local\Temp\ccmjpsKj.s:27058  .debug_str:0000000000019646 .LASF2743
C:\Users\SOLDER~1\AppData\Local\Temp\ccmjpsKj.s:26130  .debug_str:0000000000015aa6 .LASF2744
C:\Users\SOLDER~1\AppData\Local\Temp\ccmjpsKj.s:32108  .debug_str:000000000002dce7 .LASF2745
C:\Users\SOLDER~1\AppData\Local\Temp\ccmjpsKj.s:21562  .debug_str:0000000000003200 .LASF2746
C:\Users\SOLDER~1\AppData\Local\Temp\ccmjpsKj.s:30140  .debug_str:0000000000025d27 .LASF2747
C:\Users\SOLDER~1\AppData\Local\Temp\ccmjpsKj.s:29764  .debug_str:0000000000024498 .LASF2748
C:\Users\SOLDER~1\AppData\Local\Temp\ccmjpsKj.s:28248  .debug_str:000000000001e2f6 .LASF2749
C:\Users\SOLDER~1\AppData\Local\Temp\ccmjpsKj.s:28020  .debug_str:000000000001d469 .LASF2750
C:\Users\SOLDER~1\AppData\Local\Temp\ccmjpsKj.s:26468  .debug_str:0000000000016fb5 .LASF2751
C:\Users\SOLDER~1\AppData\Local\Temp\ccmjpsKj.s:30724  .debug_str:00000000000283be .LASF2752
C:\Users\SOLDER~1\AppData\Local\Temp\ccmjpsKj.s:21916  .debug_str:0000000000004870 .LASF2753
C:\Users\SOLDER~1\AppData\Local\Temp\ccmjpsKj.s:27714  .debug_str:000000000001bff2 .LASF2754
C:\Users\SOLDER~1\AppData\Local\Temp\ccmjpsKj.s:31942  .debug_str:000000000002d212 .LASF2755
C:\Users\SOLDER~1\AppData\Local\Temp\ccmjpsKj.s:29004  .debug_str:000000000002142f .LASF2756
C:\Users\SOLDER~1\AppData\Local\Temp\ccmjpsKj.s:30246  .debug_str:0000000000026443 .LASF2757
C:\Users\SOLDER~1\AppData\Local\Temp\ccmjpsKj.s:31300  .debug_str:000000000002a8d5 .LASF2758
C:\Users\SOLDER~1\AppData\Local\Temp\ccmjpsKj.s:28532  .debug_str:000000000001f5ac .LASF2759
C:\Users\SOLDER~1\AppData\Local\Temp\ccmjpsKj.s:27434  .debug_str:000000000001ae3f .LASF2760
C:\Users\SOLDER~1\AppData\Local\Temp\ccmjpsKj.s:26922  .debug_str:0000000000018d78 .LASF2761
C:\Users\SOLDER~1\AppData\Local\Temp\ccmjpsKj.s:25358  .debug_str:00000000000127ad .LASF2762
C:\Users\SOLDER~1\AppData\Local\Temp\ccmjpsKj.s:25238  .debug_str:0000000000012057 .LASF2763
C:\Users\SOLDER~1\AppData\Local\Temp\ccmjpsKj.s:26908  .debug_str:0000000000018c60 .LASF2764
C:\Users\SOLDER~1\AppData\Local\Temp\ccmjpsKj.s:23464  .debug_str:000000000000acff .LASF2765
C:\Users\SOLDER~1\AppData\Local\Temp\ccmjpsKj.s:20998  .debug_str:0000000000000df7 .LASF2766
C:\Users\SOLDER~1\AppData\Local\Temp\ccmjpsKj.s:24224  .debug_str:000000000000de89 .LASF2767
C:\Users\SOLDER~1\AppData\Local\Temp\ccmjpsKj.s:31750  .debug_str:000000000002c618 .LASF2768
C:\Users\SOLDER~1\AppData\Local\Temp\ccmjpsKj.s:28458  .debug_str:000000000001f0b1 .LASF2769
C:\Users\SOLDER~1\AppData\Local\Temp\ccmjpsKj.s:21654  .debug_str:00000000000037cb .LASF2770
C:\Users\SOLDER~1\AppData\Local\Temp\ccmjpsKj.s:22230  .debug_str:0000000000005c1e .LASF2771
C:\Users\SOLDER~1\AppData\Local\Temp\ccmjpsKj.s:31932  .debug_str:000000000002d166 .LASF2772
C:\Users\SOLDER~1\AppData\Local\Temp\ccmjpsKj.s:28822  .debug_str:000000000002084e .LASF2773
C:\Users\SOLDER~1\AppData\Local\Temp\ccmjpsKj.s:25920  .debug_str:0000000000014d84 .LASF2774
C:\Users\SOLDER~1\AppData\Local\Temp\ccmjpsKj.s:22060  .debug_str:000000000000512f .LASF2775
C:\Users\SOLDER~1\AppData\Local\Temp\ccmjpsKj.s:31912  .debug_str:000000000002d01b .LASF2776
C:\Users\SOLDER~1\AppData\Local\Temp\ccmjpsKj.s:25126  .debug_str:0000000000011955 .LASF2777
C:\Users\SOLDER~1\AppData\Local\Temp\ccmjpsKj.s:26460  .debug_str:0000000000016f3b .LASF2778
C:\Users\SOLDER~1\AppData\Local\Temp\ccmjpsKj.s:23174  .debug_str:00000000000099d9 .LASF2779
C:\Users\SOLDER~1\AppData\Local\Temp\ccmjpsKj.s:23614  .debug_str:000000000000b6d8 .LASF2780
C:\Users\SOLDER~1\AppData\Local\Temp\ccmjpsKj.s:21268  .debug_str:0000000000001f23 .LASF2781
C:\Users\SOLDER~1\AppData\Local\Temp\ccmjpsKj.s:21112  .debug_str:000000000000152a .LASF2782
C:\Users\SOLDER~1\AppData\Local\Temp\ccmjpsKj.s:31018  .debug_str:0000000000029677 .LASF2783
C:\Users\SOLDER~1\AppData\Local\Temp\ccmjpsKj.s:21808  .debug_str:0000000000004190 .LASF2784
C:\Users\SOLDER~1\AppData\Local\Temp\ccmjpsKj.s:21836  .debug_str:000000000000434f .LASF2785
C:\Users\SOLDER~1\AppData\Local\Temp\ccmjpsKj.s:28908  .debug_str:0000000000020df0 .LASF2786
C:\Users\SOLDER~1\AppData\Local\Temp\ccmjpsKj.s:27206  .debug_str:0000000000019fb2 .LASF2787
C:\Users\SOLDER~1\AppData\Local\Temp\ccmjpsKj.s:25528  .debug_str:00000000000132c2 .LASF2788
C:\Users\SOLDER~1\AppData\Local\Temp\ccmjpsKj.s:25278  .debug_str:00000000000122c5 .LASF2789
GAS LISTING C:\Users\SOLDER~1\AppData\Local\Temp\ccmjpsKj.s 			page 102


C:\Users\SOLDER~1\AppData\Local\Temp\ccmjpsKj.s:23640  .debug_str:000000000000b844 .LASF2790
C:\Users\SOLDER~1\AppData\Local\Temp\ccmjpsKj.s:26426  .debug_str:0000000000016d5e .LASF2791
C:\Users\SOLDER~1\AppData\Local\Temp\ccmjpsKj.s:26410  .debug_str:0000000000016c55 .LASF2792
C:\Users\SOLDER~1\AppData\Local\Temp\ccmjpsKj.s:22746  .debug_str:0000000000007de0 .LASF2793
C:\Users\SOLDER~1\AppData\Local\Temp\ccmjpsKj.s:29010  .debug_str:00000000000214a4 .LASF2794
C:\Users\SOLDER~1\AppData\Local\Temp\ccmjpsKj.s:28284  .debug_str:000000000001e53b .LASF2795
C:\Users\SOLDER~1\AppData\Local\Temp\ccmjpsKj.s:25674  .debug_str:0000000000013c90 .LASF2796
C:\Users\SOLDER~1\AppData\Local\Temp\ccmjpsKj.s:22056  .debug_str:00000000000050ef .LASF2797
C:\Users\SOLDER~1\AppData\Local\Temp\ccmjpsKj.s:20890  .debug_str:00000000000005d9 .LASF2798
C:\Users\SOLDER~1\AppData\Local\Temp\ccmjpsKj.s:29316  .debug_str:0000000000022768 .LASF2799
C:\Users\SOLDER~1\AppData\Local\Temp\ccmjpsKj.s:28650  .debug_str:000000000001fd53 .LASF2800
C:\Users\SOLDER~1\AppData\Local\Temp\ccmjpsKj.s:27708  .debug_str:000000000001bf93 .LASF2801
C:\Users\SOLDER~1\AppData\Local\Temp\ccmjpsKj.s:26644  .debug_str:0000000000017b44 .LASF2802
C:\Users\SOLDER~1\AppData\Local\Temp\ccmjpsKj.s:26062  .debug_str:00000000000156bf .LASF2803
C:\Users\SOLDER~1\AppData\Local\Temp\ccmjpsKj.s:28082  .debug_str:000000000001d879 .LASF2804
C:\Users\SOLDER~1\AppData\Local\Temp\ccmjpsKj.s:24382  .debug_str:000000000000e925 .LASF2805
C:\Users\SOLDER~1\AppData\Local\Temp\ccmjpsKj.s:23282  .debug_str:000000000000a0de .LASF2806
C:\Users\SOLDER~1\AppData\Local\Temp\ccmjpsKj.s:22646  .debug_str:0000000000007786 .LASF2807
C:\Users\SOLDER~1\AppData\Local\Temp\ccmjpsKj.s:21308  .debug_str:00000000000021bf .LASF2808
C:\Users\SOLDER~1\AppData\Local\Temp\ccmjpsKj.s:21016  .debug_str:0000000000000f10 .LASF2809
C:\Users\SOLDER~1\AppData\Local\Temp\ccmjpsKj.s:22886  .debug_str:00000000000086cd .LASF2810
C:\Users\SOLDER~1\AppData\Local\Temp\ccmjpsKj.s:31000  .debug_str:000000000002954b .LASF2811
C:\Users\SOLDER~1\AppData\Local\Temp\ccmjpsKj.s:31822  .debug_str:000000000002ca8b .LASF2812
C:\Users\SOLDER~1\AppData\Local\Temp\ccmjpsKj.s:21274  .debug_str:0000000000001f89 .LASF2813
C:\Users\SOLDER~1\AppData\Local\Temp\ccmjpsKj.s:27946  .debug_str:000000000001cf53 .LASF2814
C:\Users\SOLDER~1\AppData\Local\Temp\ccmjpsKj.s:28844  .debug_str:00000000000209c7 .LASF2815
C:\Users\SOLDER~1\AppData\Local\Temp\ccmjpsKj.s:21204  .debug_str:0000000000001ae6 .LASF2816
C:\Users\SOLDER~1\AppData\Local\Temp\ccmjpsKj.s:28514  .debug_str:000000000001f470 .LASF2817
C:\Users\SOLDER~1\AppData\Local\Temp\ccmjpsKj.s:28456  .debug_str:000000000001f08f .LASF2818
C:\Users\SOLDER~1\AppData\Local\Temp\ccmjpsKj.s:28778  .debug_str:0000000000020552 .LASF2819
C:\Users\SOLDER~1\AppData\Local\Temp\ccmjpsKj.s:22556  .debug_str:00000000000071cc .LASF2820
C:\Users\SOLDER~1\AppData\Local\Temp\ccmjpsKj.s:29172  .debug_str:0000000000021e8e .LASF2821
C:\Users\SOLDER~1\AppData\Local\Temp\ccmjpsKj.s:22758  .debug_str:0000000000007eac .LASF2822
C:\Users\SOLDER~1\AppData\Local\Temp\ccmjpsKj.s:21644  .debug_str:000000000000373c .LASF2823
C:\Users\SOLDER~1\AppData\Local\Temp\ccmjpsKj.s:27002  .debug_str:00000000000192dd .LASF2824
C:\Users\SOLDER~1\AppData\Local\Temp\ccmjpsKj.s:29800  .debug_str:0000000000024700 .LASF2825
C:\Users\SOLDER~1\AppData\Local\Temp\ccmjpsKj.s:25202  .debug_str:0000000000011df7 .LASF2826
C:\Users\SOLDER~1\AppData\Local\Temp\ccmjpsKj.s:21938  .debug_str:00000000000049d9 .LASF2827
C:\Users\SOLDER~1\AppData\Local\Temp\ccmjpsKj.s:29358  .debug_str:0000000000022a24 .LASF2828
C:\Users\SOLDER~1\AppData\Local\Temp\ccmjpsKj.s:26120  .debug_str:0000000000015a49 .LASF2829
C:\Users\SOLDER~1\AppData\Local\Temp\ccmjpsKj.s:30922  .debug_str:0000000000029056 .LASF2830
C:\Users\SOLDER~1\AppData\Local\Temp\ccmjpsKj.s:28296  .debug_str:000000000001e5e8 .LASF2831
C:\Users\SOLDER~1\AppData\Local\Temp\ccmjpsKj.s:32476  .debug_str:000000000002f42d .LASF2832
C:\Users\SOLDER~1\AppData\Local\Temp\ccmjpsKj.s:27182  .debug_str:0000000000019e24 .LASF2833
C:\Users\SOLDER~1\AppData\Local\Temp\ccmjpsKj.s:25122  .debug_str:000000000001190e .LASF2834
C:\Users\SOLDER~1\AppData\Local\Temp\ccmjpsKj.s:26402  .debug_str:0000000000016bc8 .LASF2835
C:\Users\SOLDER~1\AppData\Local\Temp\ccmjpsKj.s:22304  .debug_str:00000000000060b1 .LASF2836
C:\Users\SOLDER~1\AppData\Local\Temp\ccmjpsKj.s:27874  .debug_str:000000000001ca6c .LASF2837
C:\Users\SOLDER~1\AppData\Local\Temp\ccmjpsKj.s:25056  .debug_str:00000000000114a1 .LASF2838
C:\Users\SOLDER~1\AppData\Local\Temp\ccmjpsKj.s:21900  .debug_str:0000000000004768 .LASF2839
C:\Users\SOLDER~1\AppData\Local\Temp\ccmjpsKj.s:31138  .debug_str:0000000000029e0b .LASF2840
C:\Users\SOLDER~1\AppData\Local\Temp\ccmjpsKj.s:28484  .debug_str:000000000001f256 .LASF2841
C:\Users\SOLDER~1\AppData\Local\Temp\ccmjpsKj.s:27904  .debug_str:000000000001cc76 .LASF2842
C:\Users\SOLDER~1\AppData\Local\Temp\ccmjpsKj.s:28692  .debug_str:000000000001fff3 .LASF2843
C:\Users\SOLDER~1\AppData\Local\Temp\ccmjpsKj.s:30508  .debug_str:00000000000275b1 .LASF2844
C:\Users\SOLDER~1\AppData\Local\Temp\ccmjpsKj.s:30846  .debug_str:0000000000028ba8 .LASF2845
C:\Users\SOLDER~1\AppData\Local\Temp\ccmjpsKj.s:24268  .debug_str:000000000000e166 .LASF2846
GAS LISTING C:\Users\SOLDER~1\AppData\Local\Temp\ccmjpsKj.s 			page 103


C:\Users\SOLDER~1\AppData\Local\Temp\ccmjpsKj.s:27776  .debug_str:000000000001c416 .LASF2847
C:\Users\SOLDER~1\AppData\Local\Temp\ccmjpsKj.s:32440  .debug_str:000000000002f1f3 .LASF2848
C:\Users\SOLDER~1\AppData\Local\Temp\ccmjpsKj.s:27830  .debug_str:000000000001c77c .LASF2849
C:\Users\SOLDER~1\AppData\Local\Temp\ccmjpsKj.s:25720  .debug_str:0000000000013fee .LASF2850
C:\Users\SOLDER~1\AppData\Local\Temp\ccmjpsKj.s:31988  .debug_str:000000000002d554 .LASF2851
C:\Users\SOLDER~1\AppData\Local\Temp\ccmjpsKj.s:24090  .debug_str:000000000000d639 .LASF2852
C:\Users\SOLDER~1\AppData\Local\Temp\ccmjpsKj.s:23698  .debug_str:000000000000bbb3 .LASF2853
C:\Users\SOLDER~1\AppData\Local\Temp\ccmjpsKj.s:31278  .debug_str:000000000002a778 .LASF2854
C:\Users\SOLDER~1\AppData\Local\Temp\ccmjpsKj.s:27468  .debug_str:000000000001b0bf .LASF2855
C:\Users\SOLDER~1\AppData\Local\Temp\ccmjpsKj.s:31666  .debug_str:000000000002c01c .LASF2856
C:\Users\SOLDER~1\AppData\Local\Temp\ccmjpsKj.s:23910  .debug_str:000000000000ca24 .LASF2857
C:\Users\SOLDER~1\AppData\Local\Temp\ccmjpsKj.s:28394  .debug_str:000000000001ec98 .LASF2858
C:\Users\SOLDER~1\AppData\Local\Temp\ccmjpsKj.s:22136  .debug_str:000000000000558d .LASF2859
C:\Users\SOLDER~1\AppData\Local\Temp\ccmjpsKj.s:21668  .debug_str:00000000000038bd .LASF2860
C:\Users\SOLDER~1\AppData\Local\Temp\ccmjpsKj.s:30490  .debug_str:000000000002747c .LASF2861
C:\Users\SOLDER~1\AppData\Local\Temp\ccmjpsKj.s:22740  .debug_str:0000000000007d83 .LASF2862
C:\Users\SOLDER~1\AppData\Local\Temp\ccmjpsKj.s:29002  .debug_str:0000000000021408 .LASF2863
C:\Users\SOLDER~1\AppData\Local\Temp\ccmjpsKj.s:28516  .debug_str:000000000001f490 .LASF2864
C:\Users\SOLDER~1\AppData\Local\Temp\ccmjpsKj.s:25306  .debug_str:0000000000012476 .LASF2865
C:\Users\SOLDER~1\AppData\Local\Temp\ccmjpsKj.s:23792  .debug_str:000000000000c1d6 .LASF2866
C:\Users\SOLDER~1\AppData\Local\Temp\ccmjpsKj.s:24996  .debug_str:00000000000110cf .LASF2867
C:\Users\SOLDER~1\AppData\Local\Temp\ccmjpsKj.s:25584  .debug_str:0000000000013672 .LASF2868
C:\Users\SOLDER~1\AppData\Local\Temp\ccmjpsKj.s:32340  .debug_str:000000000002eb8e .LASF2869
C:\Users\SOLDER~1\AppData\Local\Temp\ccmjpsKj.s:25596  .debug_str:000000000001374b .LASF2870
C:\Users\SOLDER~1\AppData\Local\Temp\ccmjpsKj.s:31804  .debug_str:000000000002c962 .LASF2871
C:\Users\SOLDER~1\AppData\Local\Temp\ccmjpsKj.s:31920  .debug_str:000000000002d099 .LASF2872
C:\Users\SOLDER~1\AppData\Local\Temp\ccmjpsKj.s:27480  .debug_str:000000000001b188 .LASF2873
C:\Users\SOLDER~1\AppData\Local\Temp\ccmjpsKj.s:31834  .debug_str:000000000002cb5d .LASF2874
C:\Users\SOLDER~1\AppData\Local\Temp\ccmjpsKj.s:28978  .debug_str:0000000000021259 .LASF2875
C:\Users\SOLDER~1\AppData\Local\Temp\ccmjpsKj.s:24588  .debug_str:000000000000f61a .LASF2876
C:\Users\SOLDER~1\AppData\Local\Temp\ccmjpsKj.s:24692  .debug_str:000000000000fd2d .LASF2877
C:\Users\SOLDER~1\AppData\Local\Temp\ccmjpsKj.s:24600  .debug_str:000000000000f6e6 .LASF2878
C:\Users\SOLDER~1\AppData\Local\Temp\ccmjpsKj.s:26638  .debug_str:0000000000017b02 .LASF2879
C:\Users\SOLDER~1\AppData\Local\Temp\ccmjpsKj.s:32298  .debug_str:000000000002e8ce .LASF2880
C:\Users\SOLDER~1\AppData\Local\Temp\ccmjpsKj.s:24104  .debug_str:000000000000d720 .LASF2881
C:\Users\SOLDER~1\AppData\Local\Temp\ccmjpsKj.s:32384  .debug_str:000000000002ee95 .LASF2882
C:\Users\SOLDER~1\AppData\Local\Temp\ccmjpsKj.s:31504  .debug_str:000000000002b60e .LASF2883
C:\Users\SOLDER~1\AppData\Local\Temp\ccmjpsKj.s:22570  .debug_str:00000000000072ad .LASF2884
C:\Users\SOLDER~1\AppData\Local\Temp\ccmjpsKj.s:29664  .debug_str:0000000000023df5 .LASF2885
C:\Users\SOLDER~1\AppData\Local\Temp\ccmjpsKj.s:22248  .debug_str:0000000000005d20 .LASF2886
C:\Users\SOLDER~1\AppData\Local\Temp\ccmjpsKj.s:22858  .debug_str:000000000000851d .LASF2887
C:\Users\SOLDER~1\AppData\Local\Temp\ccmjpsKj.s:23576  .debug_str:000000000000b435 .LASF2888
C:\Users\SOLDER~1\AppData\Local\Temp\ccmjpsKj.s:23626  .debug_str:000000000000b788 .LASF2889
C:\Users\SOLDER~1\AppData\Local\Temp\ccmjpsKj.s:22558  .debug_str:00000000000071ec .LASF2890
C:\Users\SOLDER~1\AppData\Local\Temp\ccmjpsKj.s:21594  .debug_str:0000000000003408 .LASF2891
C:\Users\SOLDER~1\AppData\Local\Temp\ccmjpsKj.s:24296  .debug_str:000000000000e396 .LASF2892
C:\Users\SOLDER~1\AppData\Local\Temp\ccmjpsKj.s:26370  .debug_str:00000000000169b1 .LASF2893
C:\Users\SOLDER~1\AppData\Local\Temp\ccmjpsKj.s:32134  .debug_str:000000000002de69 .LASF2894
C:\Users\SOLDER~1\AppData\Local\Temp\ccmjpsKj.s:23480  .debug_str:000000000000ae0e .LASF2895
C:\Users\SOLDER~1\AppData\Local\Temp\ccmjpsKj.s:31196  .debug_str:000000000002a200 .LASF2896
C:\Users\SOLDER~1\AppData\Local\Temp\ccmjpsKj.s:32214  .debug_str:000000000002e391 .LASF2897
C:\Users\SOLDER~1\AppData\Local\Temp\ccmjpsKj.s:31996  .debug_str:000000000002d5d3 .LASF2898
C:\Users\SOLDER~1\AppData\Local\Temp\ccmjpsKj.s:23764  .debug_str:000000000000bff2 .LASF2899
C:\Users\SOLDER~1\AppData\Local\Temp\ccmjpsKj.s:23054  .debug_str:000000000000921c .LASF2900
C:\Users\SOLDER~1\AppData\Local\Temp\ccmjpsKj.s:28084  .debug_str:000000000001d8a1 .LASF2901
C:\Users\SOLDER~1\AppData\Local\Temp\ccmjpsKj.s:23986  .debug_str:000000000000cf68 .LASF2902
C:\Users\SOLDER~1\AppData\Local\Temp\ccmjpsKj.s:25864  .debug_str:00000000000149d4 .LASF2903
GAS LISTING C:\Users\SOLDER~1\AppData\Local\Temp\ccmjpsKj.s 			page 104


C:\Users\SOLDER~1\AppData\Local\Temp\ccmjpsKj.s:30832  .debug_str:0000000000028aaf .LASF2904
C:\Users\SOLDER~1\AppData\Local\Temp\ccmjpsKj.s:23242  .debug_str:0000000000009e51 .LASF2905
C:\Users\SOLDER~1\AppData\Local\Temp\ccmjpsKj.s:30940  .debug_str:000000000002917b .LASF2906
C:\Users\SOLDER~1\AppData\Local\Temp\ccmjpsKj.s:26912  .debug_str:0000000000018ca4 .LASF2907
C:\Users\SOLDER~1\AppData\Local\Temp\ccmjpsKj.s:24310  .debug_str:000000000000e491 .LASF2908
C:\Users\SOLDER~1\AppData\Local\Temp\ccmjpsKj.s:29090  .debug_str:000000000002199f .LASF2909
C:\Users\SOLDER~1\AppData\Local\Temp\ccmjpsKj.s:29850  .debug_str:0000000000024a59 .LASF2910
C:\Users\SOLDER~1\AppData\Local\Temp\ccmjpsKj.s:25150  .debug_str:0000000000011aa7 .LASF2911
C:\Users\SOLDER~1\AppData\Local\Temp\ccmjpsKj.s:24202  .debug_str:000000000000dd04 .LASF2912
C:\Users\SOLDER~1\AppData\Local\Temp\ccmjpsKj.s:24552  .debug_str:000000000000f3ba .LASF2913
C:\Users\SOLDER~1\AppData\Local\Temp\ccmjpsKj.s:21470  .debug_str:0000000000002bf8 .LASF2914
C:\Users\SOLDER~1\AppData\Local\Temp\ccmjpsKj.s:26902  .debug_str:0000000000018c15 .LASF2915
C:\Users\SOLDER~1\AppData\Local\Temp\ccmjpsKj.s:20880  .debug_str:000000000000052b .LASF2916
C:\Users\SOLDER~1\AppData\Local\Temp\ccmjpsKj.s:29576  .debug_str:000000000002387b .LASF2917
C:\Users\SOLDER~1\AppData\Local\Temp\ccmjpsKj.s:24318  .debug_str:000000000000e518 .LASF2918
C:\Users\SOLDER~1\AppData\Local\Temp\ccmjpsKj.s:28510  .debug_str:000000000001f436 .LASF2919
C:\Users\SOLDER~1\AppData\Local\Temp\ccmjpsKj.s:29818  .debug_str:0000000000024825 .LASF2920
C:\Users\SOLDER~1\AppData\Local\Temp\ccmjpsKj.s:28198  .debug_str:000000000001dfb4 .LASF2921
C:\Users\SOLDER~1\AppData\Local\Temp\ccmjpsKj.s:24808  .debug_str:00000000000104a4 .LASF2922
C:\Users\SOLDER~1\AppData\Local\Temp\ccmjpsKj.s:29874  .debug_str:0000000000024c00 .LASF2923
C:\Users\SOLDER~1\AppData\Local\Temp\ccmjpsKj.s:26974  .debug_str:0000000000019101 .LASF2924
C:\Users\SOLDER~1\AppData\Local\Temp\ccmjpsKj.s:26530  .debug_str:00000000000173d2 .LASF2925
C:\Users\SOLDER~1\AppData\Local\Temp\ccmjpsKj.s:25810  .debug_str:000000000001463b .LASF2926
C:\Users\SOLDER~1\AppData\Local\Temp\ccmjpsKj.s:24098  .debug_str:000000000000d6be .LASF2927
C:\Users\SOLDER~1\AppData\Local\Temp\ccmjpsKj.s:24400  .debug_str:000000000000ea5f .LASF2928
C:\Users\SOLDER~1\AppData\Local\Temp\ccmjpsKj.s:26764  .debug_str:0000000000018354 .LASF2929
C:\Users\SOLDER~1\AppData\Local\Temp\ccmjpsKj.s:28214  .debug_str:000000000001e0cf .LASF2930
C:\Users\SOLDER~1\AppData\Local\Temp\ccmjpsKj.s:29928  .debug_str:0000000000024f9d .LASF2931
C:\Users\SOLDER~1\AppData\Local\Temp\ccmjpsKj.s:30450  .debug_str:00000000000271e7 .LASF2932
C:\Users\SOLDER~1\AppData\Local\Temp\ccmjpsKj.s:30844  .debug_str:0000000000028b7f .LASF2933
C:\Users\SOLDER~1\AppData\Local\Temp\ccmjpsKj.s:28092  .debug_str:000000000001d909 .LASF2934
C:\Users\SOLDER~1\AppData\Local\Temp\ccmjpsKj.s:26900  .debug_str:0000000000018bfb .LASF2935
C:\Users\SOLDER~1\AppData\Local\Temp\ccmjpsKj.s:23966  .debug_str:000000000000ce0f .LASF2936
C:\Users\SOLDER~1\AppData\Local\Temp\ccmjpsKj.s:20808  .debug_str:00000000000000be .LASF2937
C:\Users\SOLDER~1\AppData\Local\Temp\ccmjpsKj.s:30238  .debug_str:00000000000263b0 .LASF2938
C:\Users\SOLDER~1\AppData\Local\Temp\ccmjpsKj.s:21072  .debug_str:000000000000128f .LASF2939
C:\Users\SOLDER~1\AppData\Local\Temp\ccmjpsKj.s:21970  .debug_str:0000000000004bc4 .LASF2940
C:\Users\SOLDER~1\AppData\Local\Temp\ccmjpsKj.s:22684  .debug_str:00000000000079da .LASF2941
C:\Users\SOLDER~1\AppData\Local\Temp\ccmjpsKj.s:29754  .debug_str:00000000000243f2 .LASF2942
C:\Users\SOLDER~1\AppData\Local\Temp\ccmjpsKj.s:29640  .debug_str:0000000000023c87 .LASF2943
C:\Users\SOLDER~1\AppData\Local\Temp\ccmjpsKj.s:22880  .debug_str:000000000000864e .LASF2944
C:\Users\SOLDER~1\AppData\Local\Temp\ccmjpsKj.s:25682  .debug_str:0000000000013d4c .LASF2945
C:\Users\SOLDER~1\AppData\Local\Temp\ccmjpsKj.s:27254  .debug_str:000000000001a299 .LASF2946
C:\Users\SOLDER~1\AppData\Local\Temp\ccmjpsKj.s:26334  .debug_str:00000000000167c8 .LASF2947
C:\Users\SOLDER~1\AppData\Local\Temp\ccmjpsKj.s:26796  .debug_str:0000000000018560 .LASF2948
C:\Users\SOLDER~1\AppData\Local\Temp\ccmjpsKj.s:27054  .debug_str:0000000000019607 .LASF2949
C:\Users\SOLDER~1\AppData\Local\Temp\ccmjpsKj.s:25464  .debug_str:0000000000012e91 .LASF2950
C:\Users\SOLDER~1\AppData\Local\Temp\ccmjpsKj.s:27154  .debug_str:0000000000019c7b .LASF2951
C:\Users\SOLDER~1\AppData\Local\Temp\ccmjpsKj.s:21560  .debug_str:00000000000031d6 .LASF2952
C:\Users\SOLDER~1\AppData\Local\Temp\ccmjpsKj.s:21012  .debug_str:0000000000000ed1 .LASF2953
C:\Users\SOLDER~1\AppData\Local\Temp\ccmjpsKj.s:26960  .debug_str:0000000000018ffc .LASF2954
C:\Users\SOLDER~1\AppData\Local\Temp\ccmjpsKj.s:30220  .debug_str:0000000000026288 .LASF2955
C:\Users\SOLDER~1\AppData\Local\Temp\ccmjpsKj.s:30970  .debug_str:000000000002933a .LASF2956
C:\Users\SOLDER~1\AppData\Local\Temp\ccmjpsKj.s:32278  .debug_str:000000000002e78f .LASF2957
C:\Users\SOLDER~1\AppData\Local\Temp\ccmjpsKj.s:24540  .debug_str:000000000000f2f7 .LASF2958
C:\Users\SOLDER~1\AppData\Local\Temp\ccmjpsKj.s:31962  .debug_str:000000000002d377 .LASF2959
C:\Users\SOLDER~1\AppData\Local\Temp\ccmjpsKj.s:25094  .debug_str:0000000000011730 .LASF2960
GAS LISTING C:\Users\SOLDER~1\AppData\Local\Temp\ccmjpsKj.s 			page 105


C:\Users\SOLDER~1\AppData\Local\Temp\ccmjpsKj.s:26484  .debug_str:00000000000170ae .LASF2961
C:\Users\SOLDER~1\AppData\Local\Temp\ccmjpsKj.s:22430  .debug_str:0000000000006981 .LASF2962
C:\Users\SOLDER~1\AppData\Local\Temp\ccmjpsKj.s:24206  .debug_str:000000000000dd6a .LASF2963
C:\Users\SOLDER~1\AppData\Local\Temp\ccmjpsKj.s:29948  .debug_str:00000000000250cd .LASF2964
C:\Users\SOLDER~1\AppData\Local\Temp\ccmjpsKj.s:32410  .debug_str:000000000002f038 .LASF2965
C:\Users\SOLDER~1\AppData\Local\Temp\ccmjpsKj.s:27448  .debug_str:000000000001af4f .LASF2966
C:\Users\SOLDER~1\AppData\Local\Temp\ccmjpsKj.s:20822  .debug_str:0000000000000175 .LASF2967
C:\Users\SOLDER~1\AppData\Local\Temp\ccmjpsKj.s:30350  .debug_str:0000000000026b53 .LASF2968
C:\Users\SOLDER~1\AppData\Local\Temp\ccmjpsKj.s:29228  .debug_str:000000000002220c .LASF2969
C:\Users\SOLDER~1\AppData\Local\Temp\ccmjpsKj.s:28522  .debug_str:000000000001f4f6 .LASF2970
C:\Users\SOLDER~1\AppData\Local\Temp\ccmjpsKj.s:24636  .debug_str:000000000000f93a .LASF2971
C:\Users\SOLDER~1\AppData\Local\Temp\ccmjpsKj.s:29504  .debug_str:0000000000023388 .LASF2972
C:\Users\SOLDER~1\AppData\Local\Temp\ccmjpsKj.s:23452  .debug_str:000000000000ac5d .LASF2973
C:\Users\SOLDER~1\AppData\Local\Temp\ccmjpsKj.s:21262  .debug_str:0000000000001eb8 .LASF2974
C:\Users\SOLDER~1\AppData\Local\Temp\ccmjpsKj.s:25590  .debug_str:00000000000136d7 .LASF2975
C:\Users\SOLDER~1\AppData\Local\Temp\ccmjpsKj.s:23106  .debug_str:000000000000957b .LASF2976
C:\Users\SOLDER~1\AppData\Local\Temp\ccmjpsKj.s:29284  .debug_str:0000000000022530 .LASF2977
C:\Users\SOLDER~1\AppData\Local\Temp\ccmjpsKj.s:31966  .debug_str:000000000002d3aa .LASF2978
C:\Users\SOLDER~1\AppData\Local\Temp\ccmjpsKj.s:23826  .debug_str:000000000000c44b .LASF2979
C:\Users\SOLDER~1\AppData\Local\Temp\ccmjpsKj.s:29516  .debug_str:0000000000023444 .LASF2980
C:\Users\SOLDER~1\AppData\Local\Temp\ccmjpsKj.s:23402  .debug_str:000000000000a903 .LASF2981
C:\Users\SOLDER~1\AppData\Local\Temp\ccmjpsKj.s:31948  .debug_str:000000000002d27f .LASF2982
C:\Users\SOLDER~1\AppData\Local\Temp\ccmjpsKj.s:26278  .debug_str:000000000001641f .LASF2983
C:\Users\SOLDER~1\AppData\Local\Temp\ccmjpsKj.s:30718  .debug_str:000000000002834f .LASF2984
C:\Users\SOLDER~1\AppData\Local\Temp\ccmjpsKj.s:27082  .debug_str:0000000000019807 .LASF2985
C:\Users\SOLDER~1\AppData\Local\Temp\ccmjpsKj.s:21760  .debug_str:0000000000003ea3 .LASF2986
C:\Users\SOLDER~1\AppData\Local\Temp\ccmjpsKj.s:31858  .debug_str:000000000002cccb .LASF2987
C:\Users\SOLDER~1\AppData\Local\Temp\ccmjpsKj.s:21280  .debug_str:0000000000001ff8 .LASF2988
C:\Users\SOLDER~1\AppData\Local\Temp\ccmjpsKj.s:24906  .debug_str:0000000000010b20 .LASF2989
C:\Users\SOLDER~1\AppData\Local\Temp\ccmjpsKj.s:22210  .debug_str:0000000000005aab .LASF2990
C:\Users\SOLDER~1\AppData\Local\Temp\ccmjpsKj.s:32374  .debug_str:000000000002ee09 .LASF2991
C:\Users\SOLDER~1\AppData\Local\Temp\ccmjpsKj.s:21306  .debug_str:0000000000002197 .LASF2992
C:\Users\SOLDER~1\AppData\Local\Temp\ccmjpsKj.s:30480  .debug_str:00000000000273ca .LASF2993
C:\Users\SOLDER~1\AppData\Local\Temp\ccmjpsKj.s:23346  .debug_str:000000000000a52e .LASF2994
C:\Users\SOLDER~1\AppData\Local\Temp\ccmjpsKj.s:21488  .debug_str:0000000000002d36 .LASF2995
C:\Users\SOLDER~1\AppData\Local\Temp\ccmjpsKj.s:30292  .debug_str:000000000002679a .LASF2996
C:\Users\SOLDER~1\AppData\Local\Temp\ccmjpsKj.s:24196  .debug_str:000000000000dc91 .LASF2997
C:\Users\SOLDER~1\AppData\Local\Temp\ccmjpsKj.s:25754  .debug_str:0000000000014258 .LASF2998
C:\Users\SOLDER~1\AppData\Local\Temp\ccmjpsKj.s:30262  .debug_str:000000000002656a .LASF2999
C:\Users\SOLDER~1\AppData\Local\Temp\ccmjpsKj.s:21300  .debug_str:0000000000002123 .LASF3000
C:\Users\SOLDER~1\AppData\Local\Temp\ccmjpsKj.s:27352  .debug_str:000000000001a8e4 .LASF3001
C:\Users\SOLDER~1\AppData\Local\Temp\ccmjpsKj.s:25632  .debug_str:00000000000139aa .LASF3002
C:\Users\SOLDER~1\AppData\Local\Temp\ccmjpsKj.s:29240  .debug_str:00000000000222be .LASF3003
C:\Users\SOLDER~1\AppData\Local\Temp\ccmjpsKj.s:28106  .debug_str:000000000001d9d9 .LASF3004
C:\Users\SOLDER~1\AppData\Local\Temp\ccmjpsKj.s:29904  .debug_str:0000000000024e08 .LASF3005
C:\Users\SOLDER~1\AppData\Local\Temp\ccmjpsKj.s:23426  .debug_str:000000000000aabc .LASF3006
C:\Users\SOLDER~1\AppData\Local\Temp\ccmjpsKj.s:29292  .debug_str:00000000000225b5 .LASF3007
C:\Users\SOLDER~1\AppData\Local\Temp\ccmjpsKj.s:27014  .debug_str:000000000001938e .LASF3008
C:\Users\SOLDER~1\AppData\Local\Temp\ccmjpsKj.s:31860  .debug_str:000000000002cce4 .LASF3009
C:\Users\SOLDER~1\AppData\Local\Temp\ccmjpsKj.s:27388  .debug_str:000000000001ab69 .LASF3010
C:\Users\SOLDER~1\AppData\Local\Temp\ccmjpsKj.s:32094  .debug_str:000000000002dc0c .LASF3011
C:\Users\SOLDER~1\AppData\Local\Temp\ccmjpsKj.s:28698  .debug_str:000000000002003a .LASF3012
C:\Users\SOLDER~1\AppData\Local\Temp\ccmjpsKj.s:23130  .debug_str:00000000000096d9 .LASF3013
C:\Users\SOLDER~1\AppData\Local\Temp\ccmjpsKj.s:24834  .debug_str:000000000001068a .LASF3014
C:\Users\SOLDER~1\AppData\Local\Temp\ccmjpsKj.s:25738  .debug_str:0000000000014142 .LASF3015
C:\Users\SOLDER~1\AppData\Local\Temp\ccmjpsKj.s:26724  .debug_str:0000000000018087 .LASF3016
C:\Users\SOLDER~1\AppData\Local\Temp\ccmjpsKj.s:23770  .debug_str:000000000000c05f .LASF3017
GAS LISTING C:\Users\SOLDER~1\AppData\Local\Temp\ccmjpsKj.s 			page 106


C:\Users\SOLDER~1\AppData\Local\Temp\ccmjpsKj.s:23160  .debug_str:00000000000098d9 .LASF3018
C:\Users\SOLDER~1\AppData\Local\Temp\ccmjpsKj.s:21862  .debug_str:00000000000044fd .LASF3019
C:\Users\SOLDER~1\AppData\Local\Temp\ccmjpsKj.s:32316  .debug_str:000000000002ea05 .LASF3020
C:\Users\SOLDER~1\AppData\Local\Temp\ccmjpsKj.s:31626  .debug_str:000000000002bdad .LASF3021
C:\Users\SOLDER~1\AppData\Local\Temp\ccmjpsKj.s:28208  .debug_str:000000000001e068 .LASF3022
C:\Users\SOLDER~1\AppData\Local\Temp\ccmjpsKj.s:30184  .debug_str:0000000000025ff4 .LASF3023
C:\Users\SOLDER~1\AppData\Local\Temp\ccmjpsKj.s:27524  .debug_str:000000000001b412 .LASF3024
C:\Users\SOLDER~1\AppData\Local\Temp\ccmjpsKj.s:27868  .debug_str:000000000001ca2f .LASF3025
C:\Users\SOLDER~1\AppData\Local\Temp\ccmjpsKj.s:21390  .debug_str:000000000000270e .LASF3026
C:\Users\SOLDER~1\AppData\Local\Temp\ccmjpsKj.s:25978  .debug_str:0000000000015152 .LASF3027
C:\Users\SOLDER~1\AppData\Local\Temp\ccmjpsKj.s:30566  .debug_str:0000000000027972 .LASF3028
C:\Users\SOLDER~1\AppData\Local\Temp\ccmjpsKj.s:24026  .debug_str:000000000000d20e .LASF3029
C:\Users\SOLDER~1\AppData\Local\Temp\ccmjpsKj.s:25932  .debug_str:0000000000014e4b .LASF3030
C:\Users\SOLDER~1\AppData\Local\Temp\ccmjpsKj.s:32296  .debug_str:000000000002e8b6 .LASF3031
C:\Users\SOLDER~1\AppData\Local\Temp\ccmjpsKj.s:23052  .debug_str:00000000000091fa .LASF3032
C:\Users\SOLDER~1\AppData\Local\Temp\ccmjpsKj.s:31882  .debug_str:000000000002ce39 .LASF3033
C:\Users\SOLDER~1\AppData\Local\Temp\ccmjpsKj.s:25364  .debug_str:0000000000012829 .LASF3034
C:\Users\SOLDER~1\AppData\Local\Temp\ccmjpsKj.s:31242  .debug_str:000000000002a52a .LASF3035
C:\Users\SOLDER~1\AppData\Local\Temp\ccmjpsKj.s:23298  .debug_str:000000000000a200 .LASF3036
C:\Users\SOLDER~1\AppData\Local\Temp\ccmjpsKj.s:29468  .debug_str:0000000000023143 .LASF3037
C:\Users\SOLDER~1\AppData\Local\Temp\ccmjpsKj.s:21206  .debug_str:0000000000001b11 .LASF3038
C:\Users\SOLDER~1\AppData\Local\Temp\ccmjpsKj.s:24844  .debug_str:0000000000010749 .LASF3039
C:\Users\SOLDER~1\AppData\Local\Temp\ccmjpsKj.s:32226  .debug_str:000000000002e449 .LASF3040
C:\Users\SOLDER~1\AppData\Local\Temp\ccmjpsKj.s:26222  .debug_str:0000000000016064 .LASF3041
C:\Users\SOLDER~1\AppData\Local\Temp\ccmjpsKj.s:24912  .debug_str:0000000000010b9b .LASF3042
C:\Users\SOLDER~1\AppData\Local\Temp\ccmjpsKj.s:24444  .debug_str:000000000000ecf0 .LASF3043
C:\Users\SOLDER~1\AppData\Local\Temp\ccmjpsKj.s:27040  .debug_str:0000000000019524 .LASF3044
C:\Users\SOLDER~1\AppData\Local\Temp\ccmjpsKj.s:22786  .debug_str:0000000000008084 .LASF3045
C:\Users\SOLDER~1\AppData\Local\Temp\ccmjpsKj.s:24100  .debug_str:000000000000d6d8 .LASF3046
C:\Users\SOLDER~1\AppData\Local\Temp\ccmjpsKj.s:26786  .debug_str:00000000000184d8 .LASF3047
C:\Users\SOLDER~1\AppData\Local\Temp\ccmjpsKj.s:29444  .debug_str:0000000000022fc2 .LASF3048
C:\Users\SOLDER~1\AppData\Local\Temp\ccmjpsKj.s:25294  .debug_str:00000000000123af .LASF3049
C:\Users\SOLDER~1\AppData\Local\Temp\ccmjpsKj.s:28600  .debug_str:000000000001fa4c .LASF3050
C:\Users\SOLDER~1\AppData\Local\Temp\ccmjpsKj.s:22904  .debug_str:00000000000087ec .LASF3051
C:\Users\SOLDER~1\AppData\Local\Temp\ccmjpsKj.s:23760  .debug_str:000000000000bfa9 .LASF3052
C:\Users\SOLDER~1\AppData\Local\Temp\ccmjpsKj.s:21094  .debug_str:00000000000013f8 .LASF3053
C:\Users\SOLDER~1\AppData\Local\Temp\ccmjpsKj.s:32254  .debug_str:000000000002e61e .LASF3054
C:\Users\SOLDER~1\AppData\Local\Temp\ccmjpsKj.s:30816  .debug_str:000000000002899a .LASF3055
C:\Users\SOLDER~1\AppData\Local\Temp\ccmjpsKj.s:26104  .debug_str:0000000000015980 .LASF3056
C:\Users\SOLDER~1\AppData\Local\Temp\ccmjpsKj.s:28872  .debug_str:0000000000020b8b .LASF3057
C:\Users\SOLDER~1\AppData\Local\Temp\ccmjpsKj.s:23778  .debug_str:000000000000c0d7 .LASF3058
C:\Users\SOLDER~1\AppData\Local\Temp\ccmjpsKj.s:25996  .debug_str:0000000000015269 .LASF3059
C:\Users\SOLDER~1\AppData\Local\Temp\ccmjpsKj.s:22924  .debug_str:000000000000892d .LASF3060
C:\Users\SOLDER~1\AppData\Local\Temp\ccmjpsKj.s:25086  .debug_str:000000000001168d .LASF3061
C:\Users\SOLDER~1\AppData\Local\Temp\ccmjpsKj.s:27224  .debug_str:000000000001a0a3 .LASF3062
C:\Users\SOLDER~1\AppData\Local\Temp\ccmjpsKj.s:21228  .debug_str:0000000000001c83 .LASF3063
C:\Users\SOLDER~1\AppData\Local\Temp\ccmjpsKj.s:21748  .debug_str:0000000000003de2 .LASF3064
C:\Users\SOLDER~1\AppData\Local\Temp\ccmjpsKj.s:30488  .debug_str:0000000000027463 .LASF3065
C:\Users\SOLDER~1\AppData\Local\Temp\ccmjpsKj.s:26728  .debug_str:00000000000180d5 .LASF3066
C:\Users\SOLDER~1\AppData\Local\Temp\ccmjpsKj.s:27608  .debug_str:000000000001b958 .LASF3067
C:\Users\SOLDER~1\AppData\Local\Temp\ccmjpsKj.s:24934  .debug_str:0000000000010d00 .LASF3068
C:\Users\SOLDER~1\AppData\Local\Temp\ccmjpsKj.s:26836  .debug_str:00000000000187da .LASF3069
C:\Users\SOLDER~1\AppData\Local\Temp\ccmjpsKj.s:31526  .debug_str:000000000002b740 .LASF3070
C:\Users\SOLDER~1\AppData\Local\Temp\ccmjpsKj.s:27622  .debug_str:000000000001ba2a .LASF3071
C:\Users\SOLDER~1\AppData\Local\Temp\ccmjpsKj.s:23152  .debug_str:0000000000009848 .LASF3072
C:\Users\SOLDER~1\AppData\Local\Temp\ccmjpsKj.s:31346  .debug_str:000000000002abca .LASF3073
C:\Users\SOLDER~1\AppData\Local\Temp\ccmjpsKj.s:30834  .debug_str:0000000000028ad9 .LASF3074
GAS LISTING C:\Users\SOLDER~1\AppData\Local\Temp\ccmjpsKj.s 			page 107


C:\Users\SOLDER~1\AppData\Local\Temp\ccmjpsKj.s:31872  .debug_str:000000000002cd9e .LASF3075
C:\Users\SOLDER~1\AppData\Local\Temp\ccmjpsKj.s:28288  .debug_str:000000000001e56f .LASF3076
C:\Users\SOLDER~1\AppData\Local\Temp\ccmjpsKj.s:31754  .debug_str:000000000002c65a .LASF3077
C:\Users\SOLDER~1\AppData\Local\Temp\ccmjpsKj.s:22766  .debug_str:0000000000007f2f .LASF3078
C:\Users\SOLDER~1\AppData\Local\Temp\ccmjpsKj.s:28100  .debug_str:000000000001d98d .LASF3079
C:\Users\SOLDER~1\AppData\Local\Temp\ccmjpsKj.s:30794  .debug_str:000000000002882f .LASF3080
C:\Users\SOLDER~1\AppData\Local\Temp\ccmjpsKj.s:23670  .debug_str:000000000000b9e2 .LASF3081
C:\Users\SOLDER~1\AppData\Local\Temp\ccmjpsKj.s:25264  .debug_str:00000000000121df .LASF3082
C:\Users\SOLDER~1\AppData\Local\Temp\ccmjpsKj.s:21752  .debug_str:0000000000003e2a .LASF3083
C:\Users\SOLDER~1\AppData\Local\Temp\ccmjpsKj.s:22322  .debug_str:0000000000006208 .LASF3084
C:\Users\SOLDER~1\AppData\Local\Temp\ccmjpsKj.s:31048  .debug_str:0000000000029895 .LASF3085
C:\Users\SOLDER~1\AppData\Local\Temp\ccmjpsKj.s:26060  .debug_str:000000000001569a .LASF3086
C:\Users\SOLDER~1\AppData\Local\Temp\ccmjpsKj.s:29550  .debug_str:00000000000236c3 .LASF3087
C:\Users\SOLDER~1\AppData\Local\Temp\ccmjpsKj.s:26026  .debug_str:000000000001544b .LASF3088
C:\Users\SOLDER~1\AppData\Local\Temp\ccmjpsKj.s:27686  .debug_str:000000000001be3a .LASF3089
C:\Users\SOLDER~1\AppData\Local\Temp\ccmjpsKj.s:26778  .debug_str:0000000000018449 .LASF3090
C:\Users\SOLDER~1\AppData\Local\Temp\ccmjpsKj.s:31004  .debug_str:000000000002958d .LASF3091
C:\Users\SOLDER~1\AppData\Local\Temp\ccmjpsKj.s:22172  .debug_str:0000000000005800 .LASF3092
C:\Users\SOLDER~1\AppData\Local\Temp\ccmjpsKj.s:23908  .debug_str:000000000000ca0d .LASF3093
C:\Users\SOLDER~1\AppData\Local\Temp\ccmjpsKj.s:22364  .debug_str:00000000000064c9 .LASF3094
C:\Users\SOLDER~1\AppData\Local\Temp\ccmjpsKj.s:26284  .debug_str:0000000000016484 .LASF3095
C:\Users\SOLDER~1\AppData\Local\Temp\ccmjpsKj.s:28644  .debug_str:000000000001fcfc .LASF3096
C:\Users\SOLDER~1\AppData\Local\Temp\ccmjpsKj.s:31768  .debug_str:000000000002c72d .LASF3097
C:\Users\SOLDER~1\AppData\Local\Temp\ccmjpsKj.s:24514  .debug_str:000000000000f16e .LASF3098
C:\Users\SOLDER~1\AppData\Local\Temp\ccmjpsKj.s:26318  .debug_str:00000000000166a9 .LASF3099
C:\Users\SOLDER~1\AppData\Local\Temp\ccmjpsKj.s:31610  .debug_str:000000000002bc9f .LASF3100
C:\Users\SOLDER~1\AppData\Local\Temp\ccmjpsKj.s:25170  .debug_str:0000000000011c19 .LASF3101
C:\Users\SOLDER~1\AppData\Local\Temp\ccmjpsKj.s:24470  .debug_str:000000000000eea2 .LASF3102
C:\Users\SOLDER~1\AppData\Local\Temp\ccmjpsKj.s:26082  .debug_str:0000000000015819 .LASF3103
C:\Users\SOLDER~1\AppData\Local\Temp\ccmjpsKj.s:23502  .debug_str:000000000000af88 .LASF3104
C:\Users\SOLDER~1\AppData\Local\Temp\ccmjpsKj.s:24350  .debug_str:000000000000e70b .LASF3105
C:\Users\SOLDER~1\AppData\Local\Temp\ccmjpsKj.s:31318  .debug_str:000000000002aa25 .LASF3106
C:\Users\SOLDER~1\AppData\Local\Temp\ccmjpsKj.s:22670  .debug_str:00000000000078d8 .LASF3107
C:\Users\SOLDER~1\AppData\Local\Temp\ccmjpsKj.s:29108  .debug_str:0000000000021aba .LASF3108
C:\Users\SOLDER~1\AppData\Local\Temp\ccmjpsKj.s:21036  .debug_str:000000000000104c .LASF3109
C:\Users\SOLDER~1\AppData\Local\Temp\ccmjpsKj.s:26144  .debug_str:0000000000015b9c .LASF3110
C:\Users\SOLDER~1\AppData\Local\Temp\ccmjpsKj.s:21772  .debug_str:0000000000003f78 .LASF3111
C:\Users\SOLDER~1\AppData\Local\Temp\ccmjpsKj.s:29976  .debug_str:000000000002529b .LASF3112
C:\Users\SOLDER~1\AppData\Local\Temp\ccmjpsKj.s:29644  .debug_str:0000000000023cc6 .LASF3113
C:\Users\SOLDER~1\AppData\Local\Temp\ccmjpsKj.s:28000  .debug_str:000000000001d2d2 .LASF3114
C:\Users\SOLDER~1\AppData\Local\Temp\ccmjpsKj.s:27936  .debug_str:000000000001ceb8 .LASF3115
C:\Users\SOLDER~1\AppData\Local\Temp\ccmjpsKj.s:29556  .debug_str:000000000002372d .LASF3116
C:\Users\SOLDER~1\AppData\Local\Temp\ccmjpsKj.s:24758  .debug_str:00000000000101bd .LASF3117
C:\Users\SOLDER~1\AppData\Local\Temp\ccmjpsKj.s:28220  .debug_str:000000000001e13f .LASF3118
C:\Users\SOLDER~1\AppData\Local\Temp\ccmjpsKj.s:27426  .debug_str:000000000001adaf .LASF3119
C:\Users\SOLDER~1\AppData\Local\Temp\ccmjpsKj.s:26030  .debug_str:000000000001548e .LASF3120
C:\Users\SOLDER~1\AppData\Local\Temp\ccmjpsKj.s:25704  .debug_str:0000000000013ef6 .LASF3121
C:\Users\SOLDER~1\AppData\Local\Temp\ccmjpsKj.s:31258  .debug_str:000000000002a634 .LASF3122
C:\Users\SOLDER~1\AppData\Local\Temp\ccmjpsKj.s:21684  .debug_str:00000000000039d7 .LASF3123
C:\Users\SOLDER~1\AppData\Local\Temp\ccmjpsKj.s:23250  .debug_str:0000000000009eca .LASF3124
C:\Users\SOLDER~1\AppData\Local\Temp\ccmjpsKj.s:22346  .debug_str:00000000000063ac .LASF3125
C:\Users\SOLDER~1\AppData\Local\Temp\ccmjpsKj.s:25320  .debug_str:000000000001255a .LASF3126
C:\Users\SOLDER~1\AppData\Local\Temp\ccmjpsKj.s:21540  .debug_str:000000000000308f .LASF3127
C:\Users\SOLDER~1\AppData\Local\Temp\ccmjpsKj.s:30772  .debug_str:00000000000286d2 .LASF3128
C:\Users\SOLDER~1\AppData\Local\Temp\ccmjpsKj.s:30598  .debug_str:0000000000027b8d .LASF3129
C:\Users\SOLDER~1\AppData\Local\Temp\ccmjpsKj.s:28320  .debug_str:000000000001e756 .LASF3130
C:\Users\SOLDER~1\AppData\Local\Temp\ccmjpsKj.s:31078  .debug_str:0000000000029a7b .LASF3131
GAS LISTING C:\Users\SOLDER~1\AppData\Local\Temp\ccmjpsKj.s 			page 108


C:\Users\SOLDER~1\AppData\Local\Temp\ccmjpsKj.s:25792  .debug_str:00000000000144f5 .LASF3132
C:\Users\SOLDER~1\AppData\Local\Temp\ccmjpsKj.s:23094  .debug_str:00000000000094d4 .LASF3133
C:\Users\SOLDER~1\AppData\Local\Temp\ccmjpsKj.s:21290  .debug_str:000000000000207f .LASF3134
C:\Users\SOLDER~1\AppData\Local\Temp\ccmjpsKj.s:24532  .debug_str:000000000000f284 .LASF3135
C:\Users\SOLDER~1\AppData\Local\Temp\ccmjpsKj.s:26604  .debug_str:00000000000178d7 .LASF3136
C:\Users\SOLDER~1\AppData\Local\Temp\ccmjpsKj.s:22866  .debug_str:00000000000085a0 .LASF3137
C:\Users\SOLDER~1\AppData\Local\Temp\ccmjpsKj.s:28718  .debug_str:0000000000020188 .LASF3138
C:\Users\SOLDER~1\AppData\Local\Temp\ccmjpsKj.s:29606  .debug_str:0000000000023a8e .LASF3139
C:\Users\SOLDER~1\AppData\Local\Temp\ccmjpsKj.s:20918  .debug_str:0000000000000824 .LASF3140
C:\Users\SOLDER~1\AppData\Local\Temp\ccmjpsKj.s:21104  .debug_str:00000000000014a2 .LASF3141
C:\Users\SOLDER~1\AppData\Local\Temp\ccmjpsKj.s:22568  .debug_str:0000000000007287 .LASF3142
C:\Users\SOLDER~1\AppData\Local\Temp\ccmjpsKj.s:22144  .debug_str:000000000000561b .LASF3143
C:\Users\SOLDER~1\AppData\Local\Temp\ccmjpsKj.s:26708  .debug_str:0000000000017f74 .LASF3144
C:\Users\SOLDER~1\AppData\Local\Temp\ccmjpsKj.s:31444  .debug_str:000000000002b1d2 .LASF3145
C:\Users\SOLDER~1\AppData\Local\Temp\ccmjpsKj.s:23142  .debug_str:00000000000097af .LASF3146
C:\Users\SOLDER~1\AppData\Local\Temp\ccmjpsKj.s:29034  .debug_str:000000000002162e .LASF3147
C:\Users\SOLDER~1\AppData\Local\Temp\ccmjpsKj.s:22222  .debug_str:0000000000005b90 .LASF3148
C:\Users\SOLDER~1\AppData\Local\Temp\ccmjpsKj.s:26742  .debug_str:00000000000181c6 .LASF3149
C:\Users\SOLDER~1\AppData\Local\Temp\ccmjpsKj.s:30886  .debug_str:0000000000028e3d .LASF3150
C:\Users\SOLDER~1\AppData\Local\Temp\ccmjpsKj.s:29012  .debug_str:00000000000214cc .LASF3151
C:\Users\SOLDER~1\AppData\Local\Temp\ccmjpsKj.s:30208  .debug_str:0000000000026197 .LASF3152
C:\Users\SOLDER~1\AppData\Local\Temp\ccmjpsKj.s:27148  .debug_str:0000000000019c1c .LASF3153
C:\Users\SOLDER~1\AppData\Local\Temp\ccmjpsKj.s:21378  .debug_str:0000000000002654 .LASF3154
C:\Users\SOLDER~1\AppData\Local\Temp\ccmjpsKj.s:25218  .debug_str:0000000000011f16 .LASF3155
C:\Users\SOLDER~1\AppData\Local\Temp\ccmjpsKj.s:30554  .debug_str:00000000000278b2 .LASF3156
C:\Users\SOLDER~1\AppData\Local\Temp\ccmjpsKj.s:23264  .debug_str:0000000000009fca .LASF3157
C:\Users\SOLDER~1\AppData\Local\Temp\ccmjpsKj.s:29178  .debug_str:0000000000021ede .LASF3158
C:\Users\SOLDER~1\AppData\Local\Temp\ccmjpsKj.s:21462  .debug_str:0000000000002b9a .LASF3159
C:\Users\SOLDER~1\AppData\Local\Temp\ccmjpsKj.s:29490  .debug_str:000000000002329b .LASF3160
C:\Users\SOLDER~1\AppData\Local\Temp\ccmjpsKj.s:31206  .debug_str:000000000002a2a4 .LASF3161
C:\Users\SOLDER~1\AppData\Local\Temp\ccmjpsKj.s:31888  .debug_str:000000000002ce96 .LASF3162
C:\Users\SOLDER~1\AppData\Local\Temp\ccmjpsKj.s:31516  .debug_str:000000000002b6ac .LASF3163
C:\Users\SOLDER~1\AppData\Local\Temp\ccmjpsKj.s:28850  .debug_str:0000000000020a1f .LASF3164
C:\Users\SOLDER~1\AppData\Local\Temp\ccmjpsKj.s:24358  .debug_str:000000000000e77f .LASF3165
C:\Users\SOLDER~1\AppData\Local\Temp\ccmjpsKj.s:29454  .debug_str:0000000000023061 .LASF3166
C:\Users\SOLDER~1\AppData\Local\Temp\ccmjpsKj.s:25224  .debug_str:0000000000011f89 .LASF3167
C:\Users\SOLDER~1\AppData\Local\Temp\ccmjpsKj.s:32034  .debug_str:000000000002d832 .LASF3168
C:\Users\SOLDER~1\AppData\Local\Temp\ccmjpsKj.s:23544  .debug_str:000000000000b224 .LASF3169
C:\Users\SOLDER~1\AppData\Local\Temp\ccmjpsKj.s:30188  .debug_str:000000000002602d .LASF3170
C:\Users\SOLDER~1\AppData\Local\Temp\ccmjpsKj.s:21798  .debug_str:00000000000040f7 .LASF3171
C:\Users\SOLDER~1\AppData\Local\Temp\ccmjpsKj.s:30186  .debug_str:000000000002600c .LASF3172
C:\Users\SOLDER~1\AppData\Local\Temp\ccmjpsKj.s:21874  .debug_str:00000000000045b4 .LASF3173
C:\Users\SOLDER~1\AppData\Local\Temp\ccmjpsKj.s:26228  .debug_str:00000000000160ca .LASF3174
C:\Users\SOLDER~1\AppData\Local\Temp\ccmjpsKj.s:27222  .debug_str:000000000001a090 .LASF3175
C:\Users\SOLDER~1\AppData\Local\Temp\ccmjpsKj.s:28022  .debug_str:000000000001d494 .LASF3176
C:\Users\SOLDER~1\AppData\Local\Temp\ccmjpsKj.s:25290  .debug_str:000000000001237a .LASF3177
C:\Users\SOLDER~1\AppData\Local\Temp\ccmjpsKj.s:27526  .debug_str:000000000001b434 .LASF3178
C:\Users\SOLDER~1\AppData\Local\Temp\ccmjpsKj.s:23332  .debug_str:000000000000a440 .LASF3179
C:\Users\SOLDER~1\AppData\Local\Temp\ccmjpsKj.s:29980  .debug_str:00000000000252e4 .LASF3180
C:\Users\SOLDER~1\AppData\Local\Temp\ccmjpsKj.s:23700  .debug_str:000000000000bbcb .LASF3181
C:\Users\SOLDER~1\AppData\Local\Temp\ccmjpsKj.s:28410  .debug_str:000000000001eda2 .LASF3182
C:\Users\SOLDER~1\AppData\Local\Temp\ccmjpsKj.s:31274  .debug_str:000000000002a741 .LASF3183
C:\Users\SOLDER~1\AppData\Local\Temp\ccmjpsKj.s:30868  .debug_str:0000000000028d14 .LASF3184
C:\Users\SOLDER~1\AppData\Local\Temp\ccmjpsKj.s:29318  .debug_str:0000000000022783 .LASF3185
C:\Users\SOLDER~1\AppData\Local\Temp\ccmjpsKj.s:28984  .debug_str:00000000000212b6 .LASF3186
C:\Users\SOLDER~1\AppData\Local\Temp\ccmjpsKj.s:27452  .debug_str:000000000001afc1 .LASF3187
C:\Users\SOLDER~1\AppData\Local\Temp\ccmjpsKj.s:24464  .debug_str:000000000000ee3b .LASF3188
GAS LISTING C:\Users\SOLDER~1\AppData\Local\Temp\ccmjpsKj.s 			page 109


C:\Users\SOLDER~1\AppData\Local\Temp\ccmjpsKj.s:25894  .debug_str:0000000000014bb2 .LASF3189
C:\Users\SOLDER~1\AppData\Local\Temp\ccmjpsKj.s:21062  .debug_str:00000000000011f4 .LASF3190
C:\Users\SOLDER~1\AppData\Local\Temp\ccmjpsKj.s:23342  .debug_str:000000000000a4e6 .LASF3191
C:\Users\SOLDER~1\AppData\Local\Temp\ccmjpsKj.s:30926  .debug_str:000000000002909e .LASF3192
C:\Users\SOLDER~1\AppData\Local\Temp\ccmjpsKj.s:21688  .debug_str:0000000000003a0c .LASF3193
C:\Users\SOLDER~1\AppData\Local\Temp\ccmjpsKj.s:26232  .debug_str:000000000001610e .LASF3194
C:\Users\SOLDER~1\AppData\Local\Temp\ccmjpsKj.s:31348  .debug_str:000000000002abe5 .LASF3195
C:\Users\SOLDER~1\AppData\Local\Temp\ccmjpsKj.s:23302  .debug_str:000000000000a248 .LASF3196
C:\Users\SOLDER~1\AppData\Local\Temp\ccmjpsKj.s:29634  .debug_str:0000000000023c52 .LASF3197
C:\Users\SOLDER~1\AppData\Local\Temp\ccmjpsKj.s:27866  .debug_str:000000000001ca0d .LASF3198
C:\Users\SOLDER~1\AppData\Local\Temp\ccmjpsKj.s:29200  .debug_str:000000000002204e .LASF3199
C:\Users\SOLDER~1\AppData\Local\Temp\ccmjpsKj.s:26958  .debug_str:0000000000018fda .LASF3200
C:\Users\SOLDER~1\AppData\Local\Temp\ccmjpsKj.s:26314  .debug_str:0000000000016675 .LASF3201
C:\Users\SOLDER~1\AppData\Local\Temp\ccmjpsKj.s:23034  .debug_str:000000000000909d .LASF3202
C:\Users\SOLDER~1\AppData\Local\Temp\ccmjpsKj.s:29694  .debug_str:0000000000023ff8 .LASF3203
C:\Users\SOLDER~1\AppData\Local\Temp\ccmjpsKj.s:24394  .debug_str:000000000000e9ff .LASF3204
C:\Users\SOLDER~1\AppData\Local\Temp\ccmjpsKj.s:22870  .debug_str:00000000000085d9 .LASF3205
C:\Users\SOLDER~1\AppData\Local\Temp\ccmjpsKj.s:22382  .debug_str:0000000000006603 .LASF3206
C:\Users\SOLDER~1\AppData\Local\Temp\ccmjpsKj.s:30226  .debug_str:00000000000262ee .LASF3207
C:\Users\SOLDER~1\AppData\Local\Temp\ccmjpsKj.s:23220  .debug_str:0000000000009c94 .LASF3208
C:\Users\SOLDER~1\AppData\Local\Temp\ccmjpsKj.s:25326  .debug_str:00000000000125b8 .LASF3209
C:\Users\SOLDER~1\AppData\Local\Temp\ccmjpsKj.s:25322  .debug_str:000000000001257f .LASF3210
C:\Users\SOLDER~1\AppData\Local\Temp\ccmjpsKj.s:26392  .debug_str:0000000000016b1c .LASF3211
C:\Users\SOLDER~1\AppData\Local\Temp\ccmjpsKj.s:30738  .debug_str:00000000000284c7 .LASF3212
C:\Users\SOLDER~1\AppData\Local\Temp\ccmjpsKj.s:30364  .debug_str:0000000000026c36 .LASF3213
C:\Users\SOLDER~1\AppData\Local\Temp\ccmjpsKj.s:28052  .debug_str:000000000001d69d .LASF3214
C:\Users\SOLDER~1\AppData\Local\Temp\ccmjpsKj.s:22254  .debug_str:0000000000005d8e .LASF3215
C:\Users\SOLDER~1\AppData\Local\Temp\ccmjpsKj.s:29798  .debug_str:00000000000246df .LASF3216
C:\Users\SOLDER~1\AppData\Local\Temp\ccmjpsKj.s:31074  .debug_str:0000000000029a3e .LASF3217
C:\Users\SOLDER~1\AppData\Local\Temp\ccmjpsKj.s:24548  .debug_str:000000000000f381 .LASF3218
C:\Users\SOLDER~1\AppData\Local\Temp\ccmjpsKj.s:28196  .debug_str:000000000001df93 .LASF3219
C:\Users\SOLDER~1\AppData\Local\Temp\ccmjpsKj.s:26366  .debug_str:0000000000016982 .LASF3220
C:\Users\SOLDER~1\AppData\Local\Temp\ccmjpsKj.s:28204  .debug_str:000000000001e020 .LASF3221
C:\Users\SOLDER~1\AppData\Local\Temp\ccmjpsKj.s:23460  .debug_str:000000000000acbc .LASF3222
C:\Users\SOLDER~1\AppData\Local\Temp\ccmjpsKj.s:22916  .debug_str:0000000000008898 .LASF3223
C:\Users\SOLDER~1\AppData\Local\Temp\ccmjpsKj.s:31902  .debug_str:000000000002cf75 .LASF3224
C:\Users\SOLDER~1\AppData\Local\Temp\ccmjpsKj.s:22604  .debug_str:00000000000074f1 .LASF3225
C:\Users\SOLDER~1\AppData\Local\Temp\ccmjpsKj.s:30964  .debug_str:00000000000292e1 .LASF3226
C:\Users\SOLDER~1\AppData\Local\Temp\ccmjpsKj.s:28944  .debug_str:0000000000021052 .LASF3227
C:\Users\SOLDER~1\AppData\Local\Temp\ccmjpsKj.s:26408  .debug_str:0000000000016c33 .LASF3228
C:\Users\SOLDER~1\AppData\Local\Temp\ccmjpsKj.s:23662  .debug_str:000000000000b96e .LASF3229
C:\Users\SOLDER~1\AppData\Local\Temp\ccmjpsKj.s:21002  .debug_str:0000000000000e48 .LASF3230
C:\Users\SOLDER~1\AppData\Local\Temp\ccmjpsKj.s:30080  .debug_str:0000000000025924 .LASF3231
C:\Users\SOLDER~1\AppData\Local\Temp\ccmjpsKj.s:31236  .debug_str:000000000002a4c2 .LASF3232
C:\Users\SOLDER~1\AppData\Local\Temp\ccmjpsKj.s:21254  .debug_str:0000000000001e4e .LASF3233
C:\Users\SOLDER~1\AppData\Local\Temp\ccmjpsKj.s:25384  .debug_str:0000000000012985 .LASF3234
C:\Users\SOLDER~1\AppData\Local\Temp\ccmjpsKj.s:32156  .debug_str:000000000002dfc5 .LASF3235
C:\Users\SOLDER~1\AppData\Local\Temp\ccmjpsKj.s:29912  .debug_str:0000000000024e96 .LASF3236
C:\Users\SOLDER~1\AppData\Local\Temp\ccmjpsKj.s:24492  .debug_str:000000000000f001 .LASF3237
C:\Users\SOLDER~1\AppData\Local\Temp\ccmjpsKj.s:28166  .debug_str:000000000001dd8f .LASF3238
C:\Users\SOLDER~1\AppData\Local\Temp\ccmjpsKj.s:31802  .debug_str:000000000002c941 .LASF3239
C:\Users\SOLDER~1\AppData\Local\Temp\ccmjpsKj.s:23808  .debug_str:000000000000c2f9 .LASF3240
C:\Users\SOLDER~1\AppData\Local\Temp\ccmjpsKj.s:29960  .debug_str:00000000000251a9 .LASF3241
C:\Users\SOLDER~1\AppData\Local\Temp\ccmjpsKj.s:31696  .debug_str:000000000002c22a .LASF3242
C:\Users\SOLDER~1\AppData\Local\Temp\ccmjpsKj.s:25578  .debug_str:0000000000013615 .LASF3243
C:\Users\SOLDER~1\AppData\Local\Temp\ccmjpsKj.s:24738  .debug_str:0000000000010073 .LASF3244
C:\Users\SOLDER~1\AppData\Local\Temp\ccmjpsKj.s:30684  .debug_str:0000000000028126 .LASF3245
GAS LISTING C:\Users\SOLDER~1\AppData\Local\Temp\ccmjpsKj.s 			page 110


C:\Users\SOLDER~1\AppData\Local\Temp\ccmjpsKj.s:28342  .debug_str:000000000001e8f9 .LASF3246
C:\Users\SOLDER~1\AppData\Local\Temp\ccmjpsKj.s:30854  .debug_str:0000000000028c46 .LASF3247
C:\Users\SOLDER~1\AppData\Local\Temp\ccmjpsKj.s:24590  .debug_str:000000000000f644 .LASF3248
C:\Users\SOLDER~1\AppData\Local\Temp\ccmjpsKj.s:31596  .debug_str:000000000002bbbe .LASF3249
C:\Users\SOLDER~1\AppData\Local\Temp\ccmjpsKj.s:26008  .debug_str:0000000000015308 .LASF3250
C:\Users\SOLDER~1\AppData\Local\Temp\ccmjpsKj.s:32250  .debug_str:000000000002e5dc .LASF3251
C:\Users\SOLDER~1\AppData\Local\Temp\ccmjpsKj.s:31312  .debug_str:000000000002a9ac .LASF3252
C:\Users\SOLDER~1\AppData\Local\Temp\ccmjpsKj.s:30268  .debug_str:00000000000265d6 .LASF3253
C:\Users\SOLDER~1\AppData\Local\Temp\ccmjpsKj.s:31030  .debug_str:000000000002973e .LASF3254
C:\Users\SOLDER~1\AppData\Local\Temp\ccmjpsKj.s:27846  .debug_str:000000000001c8a2 .LASF3255
C:\Users\SOLDER~1\AppData\Local\Temp\ccmjpsKj.s:25104  .debug_str:00000000000117bd .LASF3256
C:\Users\SOLDER~1\AppData\Local\Temp\ccmjpsKj.s:22730  .debug_str:0000000000007cb3 .LASF3257
C:\Users\SOLDER~1\AppData\Local\Temp\ccmjpsKj.s:23714  .debug_str:000000000000bce4 .LASF3258
C:\Users\SOLDER~1\AppData\Local\Temp\ccmjpsKj.s:27680  .debug_str:000000000001bdd5 .LASF3259
C:\Users\SOLDER~1\AppData\Local\Temp\ccmjpsKj.s:24902  .debug_str:0000000000010acb .LASF3260
C:\Users\SOLDER~1\AppData\Local\Temp\ccmjpsKj.s:27578  .debug_str:000000000001b767 .LASF3261
C:\Users\SOLDER~1\AppData\Local\Temp\ccmjpsKj.s:29216  .debug_str:0000000000022151 .LASF3262
C:\Users\SOLDER~1\AppData\Local\Temp\ccmjpsKj.s:29786  .debug_str:00000000000245fe .LASF3263
C:\Users\SOLDER~1\AppData\Local\Temp\ccmjpsKj.s:24578  .debug_str:000000000000f553 .LASF3264
C:\Users\SOLDER~1\AppData\Local\Temp\ccmjpsKj.s:28668  .debug_str:000000000001fe80 .LASF3265
C:\Users\SOLDER~1\AppData\Local\Temp\ccmjpsKj.s:27138  .debug_str:0000000000019b6c .LASF3266
C:\Users\SOLDER~1\AppData\Local\Temp\ccmjpsKj.s:23872  .debug_str:000000000000c785 .LASF3267
C:\Users\SOLDER~1\AppData\Local\Temp\ccmjpsKj.s:23086  .debug_str:0000000000009421 .LASF3268
C:\Users\SOLDER~1\AppData\Local\Temp\ccmjpsKj.s:22794  .debug_str:000000000000811e .LASF3269
C:\Users\SOLDER~1\AppData\Local\Temp\ccmjpsKj.s:24652  .debug_str:000000000000fa6b .LASF3270
C:\Users\SOLDER~1\AppData\Local\Temp\ccmjpsKj.s:26886  .debug_str:0000000000018b13 .LASF3271
C:\Users\SOLDER~1\AppData\Local\Temp\ccmjpsKj.s:25900  .debug_str:0000000000014c15 .LASF3272
C:\Users\SOLDER~1\AppData\Local\Temp\ccmjpsKj.s:28170  .debug_str:000000000001ddd3 .LASF3273
C:\Users\SOLDER~1\AppData\Local\Temp\ccmjpsKj.s:21350  .debug_str:0000000000002480 .LASF3274
C:\Users\SOLDER~1\AppData\Local\Temp\ccmjpsKj.s:21520  .debug_str:0000000000002f53 .LASF3275
C:\Users\SOLDER~1\AppData\Local\Temp\ccmjpsKj.s:26076  .debug_str:000000000001579f .LASF3276
C:\Users\SOLDER~1\AppData\Local\Temp\ccmjpsKj.s:28496  .debug_str:000000000001f333 .LASF3277
C:\Users\SOLDER~1\AppData\Local\Temp\ccmjpsKj.s:29398  .debug_str:0000000000022cdd .LASF3278
C:\Users\SOLDER~1\AppData\Local\Temp\ccmjpsKj.s:32360  .debug_str:000000000002ed08 .LASF3279
C:\Users\SOLDER~1\AppData\Local\Temp\ccmjpsKj.s:31216  .debug_str:000000000002a354 .LASF3280
C:\Users\SOLDER~1\AppData\Local\Temp\ccmjpsKj.s:31494  .debug_str:000000000002b55f .LASF3281
C:\Users\SOLDER~1\AppData\Local\Temp\ccmjpsKj.s:21804  .debug_str:000000000000414e .LASF3282
C:\Users\SOLDER~1\AppData\Local\Temp\ccmjpsKj.s:26726  .debug_str:00000000000180a9 .LASF3283
C:\Users\SOLDER~1\AppData\Local\Temp\ccmjpsKj.s:32010  .debug_str:000000000002d6a7 .LASF3284
C:\Users\SOLDER~1\AppData\Local\Temp\ccmjpsKj.s:29878  .debug_str:0000000000024c33 .LASF3285
C:\Users\SOLDER~1\AppData\Local\Temp\ccmjpsKj.s:24390  .debug_str:000000000000e9ab .LASF3286
C:\Users\SOLDER~1\AppData\Local\Temp\ccmjpsKj.s:25944  .debug_str:0000000000014f26 .LASF3287
C:\Users\SOLDER~1\AppData\Local\Temp\ccmjpsKj.s:23832  .debug_str:000000000000c4b4 .LASF3288
C:\Users\SOLDER~1\AppData\Local\Temp\ccmjpsKj.s:25124  .debug_str:0000000000011935 .LASF3289
C:\Users\SOLDER~1\AppData\Local\Temp\ccmjpsKj.s:25742  .debug_str:0000000000014179 .LASF3290
C:\Users\SOLDER~1\AppData\Local\Temp\ccmjpsKj.s:25120  .debug_str:00000000000118ea .LASF3291
C:\Users\SOLDER~1\AppData\Local\Temp\ccmjpsKj.s:28370  .debug_str:000000000001eace .LASF3292
C:\Users\SOLDER~1\AppData\Local\Temp\ccmjpsKj.s:25506  .debug_str:0000000000013143 .LASF3293
C:\Users\SOLDER~1\AppData\Local\Temp\ccmjpsKj.s:30666  .debug_str:0000000000027fdb .LASF3294
C:\Users\SOLDER~1\AppData\Local\Temp\ccmjpsKj.s:28044  .debug_str:000000000001d60f .LASF3295
C:\Users\SOLDER~1\AppData\Local\Temp\ccmjpsKj.s:29184  .debug_str:0000000000021f53 .LASF3296
C:\Users\SOLDER~1\AppData\Local\Temp\ccmjpsKj.s:26710  .debug_str:0000000000017f94 .LASF3297
C:\Users\SOLDER~1\AppData\Local\Temp\ccmjpsKj.s:22176  .debug_str:000000000000584c .LASF3298
C:\Users\SOLDER~1\AppData\Local\Temp\ccmjpsKj.s:24670  .debug_str:000000000000fba4 .LASF3299
C:\Users\SOLDER~1\AppData\Local\Temp\ccmjpsKj.s:26274  .debug_str:00000000000163d3 .LASF3300
C:\Users\SOLDER~1\AppData\Local\Temp\ccmjpsKj.s:28146  .debug_str:000000000001dc41 .LASF3301
C:\Users\SOLDER~1\AppData\Local\Temp\ccmjpsKj.s:22194  .debug_str:0000000000005990 .LASF3302
GAS LISTING C:\Users\SOLDER~1\AppData\Local\Temp\ccmjpsKj.s 			page 111


C:\Users\SOLDER~1\AppData\Local\Temp\ccmjpsKj.s:24010  .debug_str:000000000000d0d4 .LASF3303
C:\Users\SOLDER~1\AppData\Local\Temp\ccmjpsKj.s:21574  .debug_str:00000000000032af .LASF3304
C:\Users\SOLDER~1\AppData\Local\Temp\ccmjpsKj.s:27706  .debug_str:000000000001bf67 .LASF3305
C:\Users\SOLDER~1\AppData\Local\Temp\ccmjpsKj.s:22986  .debug_str:0000000000008d42 .LASF3306
C:\Users\SOLDER~1\AppData\Local\Temp\ccmjpsKj.s:24462  .debug_str:000000000000ee08 .LASF3307
C:\Users\SOLDER~1\AppData\Local\Temp\ccmjpsKj.s:21882  .debug_str:0000000000004618 .LASF3308
C:\Users\SOLDER~1\AppData\Local\Temp\ccmjpsKj.s:24810  .debug_str:00000000000104cd .LASF3309
C:\Users\SOLDER~1\AppData\Local\Temp\ccmjpsKj.s:22062  .debug_str:0000000000005148 .LASF3310
C:\Users\SOLDER~1\AppData\Local\Temp\ccmjpsKj.s:20850  .debug_str:0000000000000334 .LASF3311
C:\Users\SOLDER~1\AppData\Local\Temp\ccmjpsKj.s:23268  .debug_str:000000000000a001 .LASF3312
C:\Users\SOLDER~1\AppData\Local\Temp\ccmjpsKj.s:29958  .debug_str:0000000000025183 .LASF3313
C:\Users\SOLDER~1\AppData\Local\Temp\ccmjpsKj.s:32324  .debug_str:000000000002ea83 .LASF3314
C:\Users\SOLDER~1\AppData\Local\Temp\ccmjpsKj.s:21042  .debug_str:000000000000109f .LASF3315
C:\Users\SOLDER~1\AppData\Local\Temp\ccmjpsKj.s:21730  .debug_str:0000000000003cc4 .LASF3316
C:\Users\SOLDER~1\AppData\Local\Temp\ccmjpsKj.s:26330  .debug_str:0000000000016781 .LASF3317
C:\Users\SOLDER~1\AppData\Local\Temp\ccmjpsKj.s:27338  .debug_str:000000000001a7f2 .LASF3318
C:\Users\SOLDER~1\AppData\Local\Temp\ccmjpsKj.s:27850  .debug_str:000000000001c8f8 .LASF3319
C:\Users\SOLDER~1\AppData\Local\Temp\ccmjpsKj.s:32004  .debug_str:000000000002d642 .LASF3320
C:\Users\SOLDER~1\AppData\Local\Temp\ccmjpsKj.s:28494  .debug_str:000000000001f30a .LASF3321
C:\Users\SOLDER~1\AppData\Local\Temp\ccmjpsKj.s:25018  .debug_str:0000000000011243 .LASF3322
C:\Users\SOLDER~1\AppData\Local\Temp\ccmjpsKj.s:21494  .debug_str:0000000000002d94 .LASF3323
C:\Users\SOLDER~1\AppData\Local\Temp\ccmjpsKj.s:29618  .debug_str:0000000000023b39 .LASF3324
C:\Users\SOLDER~1\AppData\Local\Temp\ccmjpsKj.s:25716  .debug_str:0000000000013fa4 .LASF3325
C:\Users\SOLDER~1\AppData\Local\Temp\ccmjpsKj.s:25154  .debug_str:0000000000011aec .LASF3326
C:\Users\SOLDER~1\AppData\Local\Temp\ccmjpsKj.s:24592  .debug_str:000000000000f673 .LASF3327
C:\Users\SOLDER~1\AppData\Local\Temp\ccmjpsKj.s:26970  .debug_str:00000000000190b8 .LASF3328
C:\Users\SOLDER~1\AppData\Local\Temp\ccmjpsKj.s:29684  .debug_str:0000000000023f48 .LASF3329
C:\Users\SOLDER~1\AppData\Local\Temp\ccmjpsKj.s:20884  .debug_str:0000000000000572 .LASF3330
C:\Users\SOLDER~1\AppData\Local\Temp\ccmjpsKj.s:22406  .debug_str:00000000000067c0 .LASF3331
C:\Users\SOLDER~1\AppData\Local\Temp\ccmjpsKj.s:21400  .debug_str:00000000000027bc .LASF3332
C:\Users\SOLDER~1\AppData\Local\Temp\ccmjpsKj.s:28594  .debug_str:000000000001f9dc .LASF3333
C:\Users\SOLDER~1\AppData\Local\Temp\ccmjpsKj.s:30978  .debug_str:00000000000293c3 .LASF3334
C:\Users\SOLDER~1\AppData\Local\Temp\ccmjpsKj.s:23796  .debug_str:000000000000c223 .LASF3335
C:\Users\SOLDER~1\AppData\Local\Temp\ccmjpsKj.s:28868  .debug_str:0000000000020b40 .LASF3336
C:\Users\SOLDER~1\AppData\Local\Temp\ccmjpsKj.s:22024  .debug_str:0000000000004f13 .LASF3337
C:\Users\SOLDER~1\AppData\Local\Temp\ccmjpsKj.s:22954  .debug_str:0000000000008b3a .LASF3338
C:\Users\SOLDER~1\AppData\Local\Temp\ccmjpsKj.s:24586  .debug_str:000000000000f5f1 .LASF3339
C:\Users\SOLDER~1\AppData\Local\Temp\ccmjpsKj.s:22468  .debug_str:0000000000006bca .LASF3340
C:\Users\SOLDER~1\AppData\Local\Temp\ccmjpsKj.s:32372  .debug_str:000000000002ede0 .LASF3341
C:\Users\SOLDER~1\AppData\Local\Temp\ccmjpsKj.s:27892  .debug_str:000000000001cbaa .LASF3342
C:\Users\SOLDER~1\AppData\Local\Temp\ccmjpsKj.s:28742  .debug_str:0000000000020315 .LASF3343
C:\Users\SOLDER~1\AppData\Local\Temp\ccmjpsKj.s:26996  .debug_str:000000000001927b .LASF3344
C:\Users\SOLDER~1\AppData\Local\Temp\ccmjpsKj.s:31370  .debug_str:000000000002ad12 .LASF3345
C:\Users\SOLDER~1\AppData\Local\Temp\ccmjpsKj.s:22632  .debug_str:00000000000076a1 .LASF3346
C:\Users\SOLDER~1\AppData\Local\Temp\ccmjpsKj.s:31406  .debug_str:000000000002af8b .LASF3347
C:\Users\SOLDER~1\AppData\Local\Temp\ccmjpsKj.s:23660  .debug_str:000000000000b952 .LASF3348
C:\Users\SOLDER~1\AppData\Local\Temp\ccmjpsKj.s:26064  .debug_str:00000000000156da .LASF3349
C:\Users\SOLDER~1\AppData\Local\Temp\ccmjpsKj.s:29226  .debug_str:00000000000221f0 .LASF3350
C:\Users\SOLDER~1\AppData\Local\Temp\ccmjpsKj.s:30308  .debug_str:0000000000026879 .LASF3351
C:\Users\SOLDER~1\AppData\Local\Temp\ccmjpsKj.s:25812  .debug_str:0000000000014664 .LASF3352
C:\Users\SOLDER~1\AppData\Local\Temp\ccmjpsKj.s:26092  .debug_str:00000000000158bc .LASF3353
C:\Users\SOLDER~1\AppData\Local\Temp\ccmjpsKj.s:25822  .debug_str:00000000000146f6 .LASF3354
C:\Users\SOLDER~1\AppData\Local\Temp\ccmjpsKj.s:22292  .debug_str:0000000000005fd5 .LASF3355
C:\Users\SOLDER~1\AppData\Local\Temp\ccmjpsKj.s:30440  .debug_str:000000000002711e .LASF3356
C:\Users\SOLDER~1\AppData\Local\Temp\ccmjpsKj.s:29544  .debug_str:0000000000023651 .LASF3357
C:\Users\SOLDER~1\AppData\Local\Temp\ccmjpsKj.s:26846  .debug_str:0000000000018885 .LASF3358
C:\Users\SOLDER~1\AppData\Local\Temp\ccmjpsKj.s:31648  .debug_str:000000000002bedf .LASF3359
GAS LISTING C:\Users\SOLDER~1\AppData\Local\Temp\ccmjpsKj.s 			page 112


C:\Users\SOLDER~1\AppData\Local\Temp\ccmjpsKj.s:23838  .debug_str:000000000000c52b .LASF3360
C:\Users\SOLDER~1\AppData\Local\Temp\ccmjpsKj.s:28654  .debug_str:000000000001fd8d .LASF3361
C:\Users\SOLDER~1\AppData\Local\Temp\ccmjpsKj.s:31476  .debug_str:000000000002b400 .LASF3362
C:\Users\SOLDER~1\AppData\Local\Temp\ccmjpsKj.s:30982  .debug_str:0000000000029410 .LASF3363
C:\Users\SOLDER~1\AppData\Local\Temp\ccmjpsKj.s:28828  .debug_str:000000000002089b .LASF3364
C:\Users\SOLDER~1\AppData\Local\Temp\ccmjpsKj.s:28184  .debug_str:000000000001deaf .LASF3365
C:\Users\SOLDER~1\AppData\Local\Temp\ccmjpsKj.s:29310  .debug_str:00000000000226f0 .LASF3366
C:\Users\SOLDER~1\AppData\Local\Temp\ccmjpsKj.s:30462  .debug_str:00000000000272c5 .LASF3367
C:\Users\SOLDER~1\AppData\Local\Temp\ccmjpsKj.s:31552  .debug_str:000000000002b8c4 .LASF3368
C:\Users\SOLDER~1\AppData\Local\Temp\ccmjpsKj.s:24672  .debug_str:000000000000fbcc .LASF3369
C:\Users\SOLDER~1\AppData\Local\Temp\ccmjpsKj.s:29416  .debug_str:0000000000022e0c .LASF3370
C:\Users\SOLDER~1\AppData\Local\Temp\ccmjpsKj.s:30378  .debug_str:0000000000026d35 .LASF3371
C:\Users\SOLDER~1\AppData\Local\Temp\ccmjpsKj.s:22274  .debug_str:0000000000005eb3 .LASF3372
C:\Users\SOLDER~1\AppData\Local\Temp\ccmjpsKj.s:32188  .debug_str:000000000002e1ef .LASF3373
C:\Users\SOLDER~1\AppData\Local\Temp\ccmjpsKj.s:29320  .debug_str:0000000000022796 .LASF3374
C:\Users\SOLDER~1\AppData\Local\Temp\ccmjpsKj.s:30818  .debug_str:00000000000289b3 .LASF3375
C:\Users\SOLDER~1\AppData\Local\Temp\ccmjpsKj.s:23558  .debug_str:000000000000b313 .LASF3376
C:\Users\SOLDER~1\AppData\Local\Temp\ccmjpsKj.s:25372  .debug_str:00000000000128be .LASF3377
C:\Users\SOLDER~1\AppData\Local\Temp\ccmjpsKj.s:22626  .debug_str:0000000000007635 .LASF3378
C:\Users\SOLDER~1\AppData\Local\Temp\ccmjpsKj.s:27252  .debug_str:000000000001a270 .LASF3379
C:\Users\SOLDER~1\AppData\Local\Temp\ccmjpsKj.s:25436  .debug_str:0000000000012cb3 .LASF3380
C:\Users\SOLDER~1\AppData\Local\Temp\ccmjpsKj.s:28568  .debug_str:000000000001f808 .LASF3381
C:\Users\SOLDER~1\AppData\Local\Temp\ccmjpsKj.s:26668  .debug_str:0000000000017ceb .LASF3382
C:\Users\SOLDER~1\AppData\Local\Temp\ccmjpsKj.s:32238  .debug_str:000000000002e511 .LASF3383
C:\Users\SOLDER~1\AppData\Local\Temp\ccmjpsKj.s:27614  .debug_str:000000000001b9ae .LASF3384
C:\Users\SOLDER~1\AppData\Local\Temp\ccmjpsKj.s:27208  .debug_str:0000000000019fcb .LASF3385
C:\Users\SOLDER~1\AppData\Local\Temp\ccmjpsKj.s:31134  .debug_str:0000000000029dc3 .LASF3386
C:\Users\SOLDER~1\AppData\Local\Temp\ccmjpsKj.s:25884  .debug_str:0000000000014b01 .LASF3387
C:\Users\SOLDER~1\AppData\Local\Temp\ccmjpsKj.s:31916  .debug_str:000000000002d056 .LASF3388
C:\Users\SOLDER~1\AppData\Local\Temp\ccmjpsKj.s:25972  .debug_str:00000000000150f1 .LASF3389
C:\Users\SOLDER~1\AppData\Local\Temp\ccmjpsKj.s:28332  .debug_str:000000000001e83f .LASF3390
C:\Users\SOLDER~1\AppData\Local\Temp\ccmjpsKj.s:32468  .debug_str:000000000002f3c9 .LASF3391
C:\Users\SOLDER~1\AppData\Local\Temp\ccmjpsKj.s:24478  .debug_str:000000000000ef1b .LASF3392
C:\Users\SOLDER~1\AppData\Local\Temp\ccmjpsKj.s:22992  .debug_str:0000000000008db7 .LASF3393
C:\Users\SOLDER~1\AppData\Local\Temp\ccmjpsKj.s:21126  .debug_str:0000000000001615 .LASF3394
C:\Users\SOLDER~1\AppData\Local\Temp\ccmjpsKj.s:30084  .debug_str:000000000002594f .LASF3395
C:\Users\SOLDER~1\AppData\Local\Temp\ccmjpsKj.s:30206  .debug_str:000000000002616e .LASF3396
C:\Users\SOLDER~1\AppData\Local\Temp\ccmjpsKj.s:27260  .debug_str:000000000001a2fb .LASF3397
C:\Users\SOLDER~1\AppData\Local\Temp\ccmjpsKj.s:24300  .debug_str:000000000000e3e5 .LASF3398
C:\Users\SOLDER~1\AppData\Local\Temp\ccmjpsKj.s:23306  .debug_str:000000000000a290 .LASF3399
C:\Users\SOLDER~1\AppData\Local\Temp\ccmjpsKj.s:26512  .debug_str:0000000000017291 .LASF3400
C:\Users\SOLDER~1\AppData\Local\Temp\ccmjpsKj.s:26730  .debug_str:00000000000180f8 .LASF3401
C:\Users\SOLDER~1\AppData\Local\Temp\ccmjpsKj.s:31230  .debug_str:000000000002a43b .LASF3402
C:\Users\SOLDER~1\AppData\Local\Temp\ccmjpsKj.s:26506  .debug_str:0000000000017231 .LASF3403
C:\Users\SOLDER~1\AppData\Local\Temp\ccmjpsKj.s:30424  .debug_str:000000000002703b .LASF3404
C:\Users\SOLDER~1\AppData\Local\Temp\ccmjpsKj.s:23562  .debug_str:000000000000b34d .LASF3405
C:\Users\SOLDER~1\AppData\Local\Temp\ccmjpsKj.s:28352  .debug_str:000000000001e9b6 .LASF3406
C:\Users\SOLDER~1\AppData\Local\Temp\ccmjpsKj.s:21484  .debug_str:0000000000002ce6 .LASF3407
C:\Users\SOLDER~1\AppData\Local\Temp\ccmjpsKj.s:23182  .debug_str:0000000000009a46 .LASF3408
C:\Users\SOLDER~1\AppData\Local\Temp\ccmjpsKj.s:31080  .debug_str:0000000000029a94 .LASF3409
C:\Users\SOLDER~1\AppData\Local\Temp\ccmjpsKj.s:31832  .debug_str:000000000002cb33 .LASF3410
C:\Users\SOLDER~1\AppData\Local\Temp\ccmjpsKj.s:21656  .debug_str:00000000000037f7 .LASF3411
C:\Users\SOLDER~1\AppData\Local\Temp\ccmjpsKj.s:31536  .debug_str:000000000002b7da .LASF3412
C:\Users\SOLDER~1\AppData\Local\Temp\ccmjpsKj.s:29682  .debug_str:0000000000023f1e .LASF3413
C:\Users\SOLDER~1\AppData\Local\Temp\ccmjpsKj.s:27922  .debug_str:000000000001cdc7 .LASF3414
C:\Users\SOLDER~1\AppData\Local\Temp\ccmjpsKj.s:26162  .debug_str:0000000000015cbe .LASF3415
C:\Users\SOLDER~1\AppData\Local\Temp\ccmjpsKj.s:31292  .debug_str:000000000002a860 .LASF3416
GAS LISTING C:\Users\SOLDER~1\AppData\Local\Temp\ccmjpsKj.s 			page 113


C:\Users\SOLDER~1\AppData\Local\Temp\ccmjpsKj.s:22536  .debug_str:0000000000007082 .LASF3417
C:\Users\SOLDER~1\AppData\Local\Temp\ccmjpsKj.s:25982  .debug_str:0000000000015181 .LASF3418
C:\Users\SOLDER~1\AppData\Local\Temp\ccmjpsKj.s:24994  .debug_str:00000000000110a8 .LASF3419
C:\Users\SOLDER~1\AppData\Local\Temp\ccmjpsKj.s:24488  .debug_str:000000000000efbf .LASF3420
C:\Users\SOLDER~1\AppData\Local\Temp\ccmjpsKj.s:29836  .debug_str:000000000002496d .LASF3421
C:\Users\SOLDER~1\AppData\Local\Temp\ccmjpsKj.s:23632  .debug_str:000000000000b7df .LASF3422
C:\Users\SOLDER~1\AppData\Local\Temp\ccmjpsKj.s:23952  .debug_str:000000000000cd20 .LASF3423
C:\Users\SOLDER~1\AppData\Local\Temp\ccmjpsKj.s:30936  .debug_str:0000000000029137 .LASF3424
C:\Users\SOLDER~1\AppData\Local\Temp\ccmjpsKj.s:28258  .debug_str:000000000001e390 .LASF3425
C:\Users\SOLDER~1\AppData\Local\Temp\ccmjpsKj.s:28818  .debug_str:0000000000020803 .LASF3426
C:\Users\SOLDER~1\AppData\Local\Temp\ccmjpsKj.s:25362  .debug_str:00000000000127ff .LASF3427
C:\Users\SOLDER~1\AppData\Local\Temp\ccmjpsKj.s:27238  .debug_str:000000000001a17b .LASF3428
C:\Users\SOLDER~1\AppData\Local\Temp\ccmjpsKj.s:21722  .debug_str:0000000000003c3c .LASF3429
C:\Users\SOLDER~1\AppData\Local\Temp\ccmjpsKj.s:26572  .debug_str:00000000000176a9 .LASF3430
C:\Users\SOLDER~1\AppData\Local\Temp\ccmjpsKj.s:23016  .debug_str:0000000000008f59 .LASF3431
C:\Users\SOLDER~1\AppData\Local\Temp\ccmjpsKj.s:28918  .debug_str:0000000000020e8c .LASF3432
C:\Users\SOLDER~1\AppData\Local\Temp\ccmjpsKj.s:31728  .debug_str:000000000002c480 .LASF3433
C:\Users\SOLDER~1\AppData\Local\Temp\ccmjpsKj.s:25000  .debug_str:0000000000011115 .LASF3434
C:\Users\SOLDER~1\AppData\Local\Temp\ccmjpsKj.s:25694  .debug_str:0000000000013e2f .LASF3435
C:\Users\SOLDER~1\AppData\Local\Temp\ccmjpsKj.s:28446  .debug_str:000000000001efea .LASF3436
C:\Users\SOLDER~1\AppData\Local\Temp\ccmjpsKj.s:31250  .debug_str:000000000002a59e .LASF3437
C:\Users\SOLDER~1\AppData\Local\Temp\ccmjpsKj.s:22380  .debug_str:00000000000065d9 .LASF3438
C:\Users\SOLDER~1\AppData\Local\Temp\ccmjpsKj.s:25198  .debug_str:0000000000011dbc .LASF3439
C:\Users\SOLDER~1\AppData\Local\Temp\ccmjpsKj.s:22926  .debug_str:0000000000008950 .LASF3440
C:\Users\SOLDER~1\AppData\Local\Temp\ccmjpsKj.s:27720  .debug_str:000000000001c054 .LASF3441
C:\Users\SOLDER~1\AppData\Local\Temp\ccmjpsKj.s:20866  .debug_str:0000000000000439 .LASF3442
C:\Users\SOLDER~1\AppData\Local\Temp\ccmjpsKj.s:23842  .debug_str:000000000000c56e .LASF3443
C:\Users\SOLDER~1\AppData\Local\Temp\ccmjpsKj.s:30398  .debug_str:0000000000026e95 .LASF3444
C:\Users\SOLDER~1\AppData\Local\Temp\ccmjpsKj.s:22338  .debug_str:0000000000006314 .LASF3445
C:\Users\SOLDER~1\AppData\Local\Temp\ccmjpsKj.s:28330  .debug_str:000000000001e815 .LASF3446
C:\Users\SOLDER~1\AppData\Local\Temp\ccmjpsKj.s:25826  .debug_str:0000000000014746 .LASF3447
C:\Users\SOLDER~1\AppData\Local\Temp\ccmjpsKj.s:23990  .debug_str:000000000000cfa7 .LASF3448
C:\Users\SOLDER~1\AppData\Local\Temp\ccmjpsKj.s:30444  .debug_str:0000000000027170 .LASF3449
C:\Users\SOLDER~1\AppData\Local\Temp\ccmjpsKj.s:32086  .debug_str:000000000002db74 .LASF3450
C:\Users\SOLDER~1\AppData\Local\Temp\ccmjpsKj.s:26154  .debug_str:0000000000015c41 .LASF3451
C:\Users\SOLDER~1\AppData\Local\Temp\ccmjpsKj.s:28474  .debug_str:000000000001f1bb .LASF3452
C:\Users\SOLDER~1\AppData\Local\Temp\ccmjpsKj.s:26738  .debug_str:0000000000018176 .LASF3453
C:\Users\SOLDER~1\AppData\Local\Temp\ccmjpsKj.s:32032  .debug_str:000000000002d816 .LASF3454
C:\Users\SOLDER~1\AppData\Local\Temp\ccmjpsKj.s:27000  .debug_str:00000000000192c5 .LASF3455
C:\Users\SOLDER~1\AppData\Local\Temp\ccmjpsKj.s:21446  .debug_str:0000000000002ab7 .LASF3456
C:\Users\SOLDER~1\AppData\Local\Temp\ccmjpsKj.s:31522  .debug_str:000000000002b701 .LASF3457
C:\Users\SOLDER~1\AppData\Local\Temp\ccmjpsKj.s:30712  .debug_str:00000000000282e8 .LASF3458
C:\Users\SOLDER~1\AppData\Local\Temp\ccmjpsKj.s:32328  .debug_str:000000000002eac1 .LASF3459
C:\Users\SOLDER~1\AppData\Local\Temp\ccmjpsKj.s:25182  .debug_str:0000000000011ce9 .LASF3460
C:\Users\SOLDER~1\AppData\Local\Temp\ccmjpsKj.s:29920  .debug_str:0000000000024f14 .LASF3461
C:\Users\SOLDER~1\AppData\Local\Temp\ccmjpsKj.s:25280  .debug_str:00000000000122de .LASF3462
C:\Users\SOLDER~1\AppData\Local\Temp\ccmjpsKj.s:30746  .debug_str:0000000000028528 .LASF3463
C:\Users\SOLDER~1\AppData\Local\Temp\ccmjpsKj.s:29232  .debug_str:000000000002224e .LASF3464
C:\Users\SOLDER~1\AppData\Local\Temp\ccmjpsKj.s:22158  .debug_str:00000000000056f6 .LASF3465
C:\Users\SOLDER~1\AppData\Local\Temp\ccmjpsKj.s:24628  .debug_str:000000000000f8bd .LASF3466
C:\Users\SOLDER~1\AppData\Local\Temp\ccmjpsKj.s:26528  .debug_str:00000000000173ad .LASF3467
C:\Users\SOLDER~1\AppData\Local\Temp\ccmjpsKj.s:26706  .debug_str:0000000000017f5b .LASF3468
C:\Users\SOLDER~1\AppData\Local\Temp\ccmjpsKj.s:21430  .debug_str:00000000000029c9 .LASF3469
C:\Users\SOLDER~1\AppData\Local\Temp\ccmjpsKj.s:26834  .debug_str:00000000000187c1 .LASF3470
C:\Users\SOLDER~1\AppData\Local\Temp\ccmjpsKj.s:31606  .debug_str:000000000002bc51 .LASF3471
C:\Users\SOLDER~1\AppData\Local\Temp\ccmjpsKj.s:28402  .debug_str:000000000001ed26 .LASF3472
C:\Users\SOLDER~1\AppData\Local\Temp\ccmjpsKj.s:21706  .debug_str:0000000000003b3b .LASF3473
GAS LISTING C:\Users\SOLDER~1\AppData\Local\Temp\ccmjpsKj.s 			page 114


C:\Users\SOLDER~1\AppData\Local\Temp\ccmjpsKj.s:22384  .debug_str:0000000000006625 .LASF3474
C:\Users\SOLDER~1\AppData\Local\Temp\ccmjpsKj.s:25672  .debug_str:0000000000013c69 .LASF3475
C:\Users\SOLDER~1\AppData\Local\Temp\ccmjpsKj.s:23958  .debug_str:000000000000cd91 .LASF3476
C:\Users\SOLDER~1\AppData\Local\Temp\ccmjpsKj.s:25778  .debug_str:00000000000143d5 .LASF3477
C:\Users\SOLDER~1\AppData\Local\Temp\ccmjpsKj.s:22650  .debug_str:00000000000077bf .LASF3478
C:\Users\SOLDER~1\AppData\Local\Temp\ccmjpsKj.s:22988  .debug_str:0000000000008d72 .LASF3479
C:\Users\SOLDER~1\AppData\Local\Temp\ccmjpsKj.s:22596  .debug_str:000000000000747a .LASF3480
C:\Users\SOLDER~1\AppData\Local\Temp\ccmjpsKj.s:26948  .debug_str:0000000000018f31 .LASF3481
C:\Users\SOLDER~1\AppData\Local\Temp\ccmjpsKj.s:31518  .debug_str:000000000002b6c4 .LASF3482
C:\Users\SOLDER~1\AppData\Local\Temp\ccmjpsKj.s:21552  .debug_str:0000000000003148 .LASF3483
C:\Users\SOLDER~1\AppData\Local\Temp\ccmjpsKj.s:29252  .debug_str:0000000000022382 .LASF3484
C:\Users\SOLDER~1\AppData\Local\Temp\ccmjpsKj.s:25656  .debug_str:0000000000013b50 .LASF3485
C:\Users\SOLDER~1\AppData\Local\Temp\ccmjpsKj.s:22770  .debug_str:0000000000007f7b .LASF3486
C:\Users\SOLDER~1\AppData\Local\Temp\ccmjpsKj.s:21530  .debug_str:0000000000002fff .LASF3487
C:\Users\SOLDER~1\AppData\Local\Temp\ccmjpsKj.s:30808  .debug_str:0000000000028917 .LASF3488
C:\Users\SOLDER~1\AppData\Local\Temp\ccmjpsKj.s:26926  .debug_str:0000000000018dbc .LASF3489
C:\Users\SOLDER~1\AppData\Local\Temp\ccmjpsKj.s:28292  .debug_str:000000000001e5b6 .LASF3490
C:\Users\SOLDER~1\AppData\Local\Temp\ccmjpsKj.s:25572  .debug_str:00000000000135b9 .LASF3491
C:\Users\SOLDER~1\AppData\Local\Temp\ccmjpsKj.s:27822  .debug_str:000000000001c70e .LASF3492
C:\Users\SOLDER~1\AppData\Local\Temp\ccmjpsKj.s:24322  .debug_str:000000000000e559 .LASF3493
C:\Users\SOLDER~1\AppData\Local\Temp\ccmjpsKj.s:23768  .debug_str:000000000000c03b .LASF3494
C:\Users\SOLDER~1\AppData\Local\Temp\ccmjpsKj.s:28884  .debug_str:0000000000020c4d .LASF3495
C:\Users\SOLDER~1\AppData\Local\Temp\ccmjpsKj.s:31426  .debug_str:000000000002b0c0 .LASF3496
C:\Users\SOLDER~1\AppData\Local\Temp\ccmjpsKj.s:30484  .debug_str:0000000000027419 .LASF3497
C:\Users\SOLDER~1\AppData\Local\Temp\ccmjpsKj.s:22510  .debug_str:0000000000006ea0 .LASF3498
C:\Users\SOLDER~1\AppData\Local\Temp\ccmjpsKj.s:26918  .debug_str:0000000000018d2e .LASF3499
C:\Users\SOLDER~1\AppData\Local\Temp\ccmjpsKj.s:26288  .debug_str:00000000000164c0 .LASF3500
C:\Users\SOLDER~1\AppData\Local\Temp\ccmjpsKj.s:22120  .debug_str:00000000000054a8 .LASF3501
C:\Users\SOLDER~1\AppData\Local\Temp\ccmjpsKj.s:21466  .debug_str:0000000000002bc9 .LASF3502
C:\Users\SOLDER~1\AppData\Local\Temp\ccmjpsKj.s:23456  .debug_str:000000000000ac84 .LASF3503
C:\Users\SOLDER~1\AppData\Local\Temp\ccmjpsKj.s:31410  .debug_str:000000000002afc8 .LASF3504
C:\Users\SOLDER~1\AppData\Local\Temp\ccmjpsKj.s:32380  .debug_str:000000000002ee5f .LASF3505
C:\Users\SOLDER~1\AppData\Local\Temp\ccmjpsKj.s:29950  .debug_str:00000000000250f8 .LASF3506
C:\Users\SOLDER~1\AppData\Local\Temp\ccmjpsKj.s:31058  .debug_str:000000000002993e .LASF3507
C:\Users\SOLDER~1\AppData\Local\Temp\ccmjpsKj.s:30784  .debug_str:0000000000028791 .LASF3508
C:\Users\SOLDER~1\AppData\Local\Temp\ccmjpsKj.s:22832  .debug_str:000000000000836e .LASF3509
C:\Users\SOLDER~1\AppData\Local\Temp\ccmjpsKj.s:27894  .debug_str:000000000001cbd3 .LASF3510
C:\Users\SOLDER~1\AppData\Local\Temp\ccmjpsKj.s:30520  .debug_str:000000000002766c .LASF3511
C:\Users\SOLDER~1\AppData\Local\Temp\ccmjpsKj.s:31762  .debug_str:000000000002c6c9 .LASF3512
C:\Users\SOLDER~1\AppData\Local\Temp\ccmjpsKj.s:24456  .debug_str:000000000000eda6 .LASF3513
C:\Users\SOLDER~1\AppData\Local\Temp\ccmjpsKj.s:32178  .debug_str:000000000002e15c .LASF3514
C:\Users\SOLDER~1\AppData\Local\Temp\ccmjpsKj.s:28388  .debug_str:000000000001ec37 .LASF3515
C:\Users\SOLDER~1\AppData\Local\Temp\ccmjpsKj.s:30298  .debug_str:00000000000267ef .LASF3516
C:\Users\SOLDER~1\AppData\Local\Temp\ccmjpsKj.s:22262  .debug_str:0000000000005dfc .LASF3517
C:\Users\SOLDER~1\AppData\Local\Temp\ccmjpsKj.s:30960  .debug_str:00000000000292ab .LASF3518
C:\Users\SOLDER~1\AppData\Local\Temp\ccmjpsKj.s:27250  .debug_str:000000000001a24d .LASF3519
C:\Users\SOLDER~1\AppData\Local\Temp\ccmjpsKj.s:26534  .debug_str:000000000001741f .LASF3520
C:\Users\SOLDER~1\AppData\Local\Temp\ccmjpsKj.s:31328  .debug_str:000000000002aac8 .LASF3521
C:\Users\SOLDER~1\AppData\Local\Temp\ccmjpsKj.s:24574  .debug_str:000000000000f51e .LASF3522
C:\Users\SOLDER~1\AppData\Local\Temp\ccmjpsKj.s:27564  .debug_str:000000000001b67b .LASF3523
C:\Users\SOLDER~1\AppData\Local\Temp\ccmjpsKj.s:22660  .debug_str:000000000000783f .LASF3524
C:\Users\SOLDER~1\AppData\Local\Temp\ccmjpsKj.s:26230  .debug_str:00000000000160eb .LASF3525
C:\Users\SOLDER~1\AppData\Local\Temp\ccmjpsKj.s:21464  .debug_str:0000000000002bb0 .LASF3526
C:\Users\SOLDER~1\AppData\Local\Temp\ccmjpsKj.s:26548  .debug_str:000000000001753a .LASF3527
C:\Users\SOLDER~1\AppData\Local\Temp\ccmjpsKj.s:31014  .debug_str:000000000002963d .LASF3528
C:\Users\SOLDER~1\AppData\Local\Temp\ccmjpsKj.s:21164  .debug_str:0000000000001881 .LASF3529
C:\Users\SOLDER~1\AppData\Local\Temp\ccmjpsKj.s:31798  .debug_str:000000000002c900 .LASF3530
GAS LISTING C:\Users\SOLDER~1\AppData\Local\Temp\ccmjpsKj.s 			page 115


C:\Users\SOLDER~1\AppData\Local\Temp\ccmjpsKj.s:26576  .debug_str:00000000000176fe .LASF3531
C:\Users\SOLDER~1\AppData\Local\Temp\ccmjpsKj.s:28230  .debug_str:000000000001e1ec .LASF3532
C:\Users\SOLDER~1\AppData\Local\Temp\ccmjpsKj.s:24236  .debug_str:000000000000df49 .LASF3533
C:\Users\SOLDER~1\AppData\Local\Temp\ccmjpsKj.s:31548  .debug_str:000000000002b889 .LASF3534
C:\Users\SOLDER~1\AppData\Local\Temp\ccmjpsKj.s:24674  .debug_str:000000000000fbf5 .LASF3535
C:\Users\SOLDER~1\AppData\Local\Temp\ccmjpsKj.s:29026  .debug_str:00000000000215a8 .LASF3536
C:\Users\SOLDER~1\AppData\Local\Temp\ccmjpsKj.s:21868  .debug_str:000000000000454b .LASF3537
C:\Users\SOLDER~1\AppData\Local\Temp\ccmjpsKj.s:24942  .debug_str:0000000000010d70 .LASF3538
C:\Users\SOLDER~1\AppData\Local\Temp\ccmjpsKj.s:21458  .debug_str:0000000000002b66 .LASF3539
C:\Users\SOLDER~1\AppData\Local\Temp\ccmjpsKj.s:26194  .debug_str:0000000000015eb6 .LASF3540
C:\Users\SOLDER~1\AppData\Local\Temp\ccmjpsKj.s:27810  .debug_str:000000000001c640 .LASF3541
C:\Users\SOLDER~1\AppData\Local\Temp\ccmjpsKj.s:20844  .debug_str:00000000000002dc .LASF3542
C:\Users\SOLDER~1\AppData\Local\Temp\ccmjpsKj.s:24534  .debug_str:000000000000f29d .LASF3543
C:\Users\SOLDER~1\AppData\Local\Temp\ccmjpsKj.s:29302  .debug_str:0000000000022669 .LASF3544
C:\Users\SOLDER~1\AppData\Local\Temp\ccmjpsKj.s:32118  .debug_str:000000000002dd82 .LASF3545
C:\Users\SOLDER~1\AppData\Local\Temp\ccmjpsKj.s:29098  .debug_str:0000000000021a2a .LASF3546
C:\Users\SOLDER~1\AppData\Local\Temp\ccmjpsKj.s:22368  .debug_str:0000000000006513 .LASF3547
C:\Users\SOLDER~1\AppData\Local\Temp\ccmjpsKj.s:22236  .debug_str:0000000000005c5f .LASF3548
C:\Users\SOLDER~1\AppData\Local\Temp\ccmjpsKj.s:23932  .debug_str:000000000000cbe1 .LASF3549
C:\Users\SOLDER~1\AppData\Local\Temp\ccmjpsKj.s:21018  .debug_str:0000000000000f2b .LASF3550
C:\Users\SOLDER~1\AppData\Local\Temp\ccmjpsKj.s:24762  .debug_str:00000000000101f9 .LASF3551
C:\Users\SOLDER~1\AppData\Local\Temp\ccmjpsKj.s:22464  .debug_str:0000000000006b9e .LASF3552
C:\Users\SOLDER~1\AppData\Local\Temp\ccmjpsKj.s:22048  .debug_str:0000000000005085 .LASF3553
C:\Users\SOLDER~1\AppData\Local\Temp\ccmjpsKj.s:21224  .debug_str:0000000000001c4a .LASF3554
C:\Users\SOLDER~1\AppData\Local\Temp\ccmjpsKj.s:30024  .debug_str:000000000002559d .LASF3555
C:\Users\SOLDER~1\AppData\Local\Temp\ccmjpsKj.s:21004  .debug_str:0000000000000e6a .LASF3556
C:\Users\SOLDER~1\AppData\Local\Temp\ccmjpsKj.s:27380  .debug_str:000000000001aae5 .LASF3557
C:\Users\SOLDER~1\AppData\Local\Temp\ccmjpsKj.s:24550  .debug_str:000000000000f3a2 .LASF3558
C:\Users\SOLDER~1\AppData\Local\Temp\ccmjpsKj.s:21332  .debug_str:0000000000002347 .LASF3559
C:\Users\SOLDER~1\AppData\Local\Temp\ccmjpsKj.s:22102  .debug_str:00000000000053b1 .LASF3560
C:\Users\SOLDER~1\AppData\Local\Temp\ccmjpsKj.s:24434  .debug_str:000000000000ec75 .LASF3561
C:\Users\SOLDER~1\AppData\Local\Temp\ccmjpsKj.s:25324  .debug_str:000000000001259c .LASF3562
C:\Users\SOLDER~1\AppData\Local\Temp\ccmjpsKj.s:31896  .debug_str:000000000002cf0a .LASF3563
C:\Users\SOLDER~1\AppData\Local\Temp\ccmjpsKj.s:26242  .debug_str:00000000000161b3 .LASF3564
C:\Users\SOLDER~1\AppData\Local\Temp\ccmjpsKj.s:27684  .debug_str:000000000001be14 .LASF3565
C:\Users\SOLDER~1\AppData\Local\Temp\ccmjpsKj.s:28424  .debug_str:000000000001ee86 .LASF3566
C:\Users\SOLDER~1\AppData\Local\Temp\ccmjpsKj.s:21426  .debug_str:00000000000029a1 .LASF3567
C:\Users\SOLDER~1\AppData\Local\Temp\ccmjpsKj.s:26458  .debug_str:0000000000016f23 .LASF3568
C:\Users\SOLDER~1\AppData\Local\Temp\ccmjpsKj.s:25274  .debug_str:000000000001227f .LASF3569
C:\Users\SOLDER~1\AppData\Local\Temp\ccmjpsKj.s:31568  .debug_str:000000000002ba02 .LASF3570
C:\Users\SOLDER~1\AppData\Local\Temp\ccmjpsKj.s:28820  .debug_str:000000000002082d .LASF3571
C:\Users\SOLDER~1\AppData\Local\Temp\ccmjpsKj.s:21384  .debug_str:000000000000269d .LASF3572
C:\Users\SOLDER~1\AppData\Local\Temp\ccmjpsKj.s:26986  .debug_str:00000000000191cc .LASF3573
C:\Users\SOLDER~1\AppData\Local\Temp\ccmjpsKj.s:24858  .debug_str:0000000000010816 .LASF3574
C:\Users\SOLDER~1\AppData\Local\Temp\ccmjpsKj.s:24120  .debug_str:000000000000d80d .LASF3575
C:\Users\SOLDER~1\AppData\Local\Temp\ccmjpsKj.s:30324  .debug_str:0000000000026982 .LASF3576
C:\Users\SOLDER~1\AppData\Local\Temp\ccmjpsKj.s:31820  .debug_str:000000000002ca66 .LASF3577
C:\Users\SOLDER~1\AppData\Local\Temp\ccmjpsKj.s:24522  .debug_str:000000000000f1e5 .LASF3578
C:\Users\SOLDER~1\AppData\Local\Temp\ccmjpsKj.s:29616  .debug_str:0000000000023b16 .LASF3579
C:\Users\SOLDER~1\AppData\Local\Temp\ccmjpsKj.s:29478  .debug_str:00000000000231d0 .LASF3580
C:\Users\SOLDER~1\AppData\Local\Temp\ccmjpsKj.s:21902  .debug_str:0000000000004783 .LASF3581
C:\Users\SOLDER~1\AppData\Local\Temp\ccmjpsKj.s:26322  .debug_str:00000000000166e5 .LASF3582
C:\Users\SOLDER~1\AppData\Local\Temp\ccmjpsKj.s:26676  .debug_str:0000000000017d64 .LASF3583
C:\Users\SOLDER~1\AppData\Local\Temp\ccmjpsKj.s:21434  .debug_str:0000000000002a05 .LASF3584
C:\Users\SOLDER~1\AppData\Local\Temp\ccmjpsKj.s:22752  .debug_str:0000000000007e3a .LASF3585
C:\Users\SOLDER~1\AppData\Local\Temp\ccmjpsKj.s:20872  .debug_str:00000000000004ad .LASF3586
C:\Users\SOLDER~1\AppData\Local\Temp\ccmjpsKj.s:29280  .debug_str:00000000000224f9 .LASF3587
GAS LISTING C:\Users\SOLDER~1\AppData\Local\Temp\ccmjpsKj.s 			page 116


C:\Users\SOLDER~1\AppData\Local\Temp\ccmjpsKj.s:24686  .debug_str:000000000000fccb .LASF3588
C:\Users\SOLDER~1\AppData\Local\Temp\ccmjpsKj.s:30120  .debug_str:0000000000025be9 .LASF3589
C:\Users\SOLDER~1\AppData\Local\Temp\ccmjpsKj.s:29678  .debug_str:0000000000023ede .LASF3590
C:\Users\SOLDER~1\AppData\Local\Temp\ccmjpsKj.s:32282  .debug_str:000000000002e7cd .LASF3591
C:\Users\SOLDER~1\AppData\Local\Temp\ccmjpsKj.s:23404  .debug_str:000000000000a91b .LASF3592
C:\Users\SOLDER~1\AppData\Local\Temp\ccmjpsKj.s:24446  .debug_str:000000000000ed0a .LASF3593
C:\Users\SOLDER~1\AppData\Local\Temp\ccmjpsKj.s:25146  .debug_str:0000000000011a62 .LASF3594
C:\Users\SOLDER~1\AppData\Local\Temp\ccmjpsKj.s:21618  .debug_str:00000000000035a2 .LASF3595
C:\Users\SOLDER~1\AppData\Local\Temp\ccmjpsKj.s:30098  .debug_str:0000000000025a43 .LASF3596
C:\Users\SOLDER~1\AppData\Local\Temp\ccmjpsKj.s:27666  .debug_str:000000000001bcc2 .LASF3597
C:\Users\SOLDER~1\AppData\Local\Temp\ccmjpsKj.s:31542  .debug_str:000000000002b825 .LASF3598
C:\Users\SOLDER~1\AppData\Local\Temp\ccmjpsKj.s:23968  .debug_str:000000000000ce36 .LASF3599
C:\Users\SOLDER~1\AppData\Local\Temp\ccmjpsKj.s:20904  .debug_str:000000000000074d .LASF3600
C:\Users\SOLDER~1\AppData\Local\Temp\ccmjpsKj.s:31234  .debug_str:000000000002a49e .LASF3601
C:\Users\SOLDER~1\AppData\Local\Temp\ccmjpsKj.s:27620  .debug_str:000000000001ba06 .LASF3602
C:\Users\SOLDER~1\AppData\Local\Temp\ccmjpsKj.s:25148  .debug_str:0000000000011a83 .LASF3603
C:\Users\SOLDER~1\AppData\Local\Temp\ccmjpsKj.s:28580  .debug_str:000000000001f903 .LASF3604
C:\Users\SOLDER~1\AppData\Local\Temp\ccmjpsKj.s:29900  .debug_str:0000000000024da9 .LASF3605
C:\Users\SOLDER~1\AppData\Local\Temp\ccmjpsKj.s:27484  .debug_str:000000000001b1d4 .LASF3606
C:\Users\SOLDER~1\AppData\Local\Temp\ccmjpsKj.s:23884  .debug_str:000000000000c862 .LASF3607
C:\Users\SOLDER~1\AppData\Local\Temp\ccmjpsKj.s:27636  .debug_str:000000000001bafa .LASF3608
C:\Users\SOLDER~1\AppData\Local\Temp\ccmjpsKj.s:31816  .debug_str:000000000002ca20 .LASF3609
C:\Users\SOLDER~1\AppData\Local\Temp\ccmjpsKj.s:24716  .debug_str:000000000000fefe .LASF3610
C:\Users\SOLDER~1\AppData\Local\Temp\ccmjpsKj.s:31130  .debug_str:0000000000029d70 .LASF3611
C:\Users\SOLDER~1\AppData\Local\Temp\ccmjpsKj.s:21160  .debug_str:0000000000001856 .LASF3612
C:\Users\SOLDER~1\AppData\Local\Temp\ccmjpsKj.s:22940  .debug_str:0000000000008a51 .LASF3613
C:\Users\SOLDER~1\AppData\Local\Temp\ccmjpsKj.s:29708  .debug_str:00000000000240ea .LASF3614
C:\Users\SOLDER~1\AppData\Local\Temp\ccmjpsKj.s:29078  .debug_str:00000000000218e2 .LASF3615
C:\Users\SOLDER~1\AppData\Local\Temp\ccmjpsKj.s:29608  .debug_str:0000000000023aa7 .LASF3616
C:\Users\SOLDER~1\AppData\Local\Temp\ccmjpsKj.s:30900  .debug_str:0000000000028f19 .LASF3617
C:\Users\SOLDER~1\AppData\Local\Temp\ccmjpsKj.s:29940  .debug_str:000000000002504c .LASF3618
C:\Users\SOLDER~1\AppData\Local\Temp\ccmjpsKj.s:24072  .debug_str:000000000000d4fe .LASF3619
C:\Users\SOLDER~1\AppData\Local\Temp\ccmjpsKj.s:26516  .debug_str:00000000000172df .LASF3620
C:\Users\SOLDER~1\AppData\Local\Temp\ccmjpsKj.s:31008  .debug_str:00000000000295cf .LASF3621
C:\Users\SOLDER~1\AppData\Local\Temp\ccmjpsKj.s:27662  .debug_str:000000000001bc88 .LASF3622
C:\Users\SOLDER~1\AppData\Local\Temp\ccmjpsKj.s:27554  .debug_str:000000000001b5e6 .LASF3623
C:\Users\SOLDER~1\AppData\Local\Temp\ccmjpsKj.s:21778  .debug_str:0000000000003fc1 .LASF3624
C:\Users\SOLDER~1\AppData\Local\Temp\ccmjpsKj.s:29724  .debug_str:0000000000024200 .LASF3625
C:\Users\SOLDER~1\AppData\Local\Temp\ccmjpsKj.s:29086  .debug_str:0000000000021968 .LASF3626
C:\Users\SOLDER~1\AppData\Local\Temp\ccmjpsKj.s:31488  .debug_str:000000000002b4f5 .LASF3627
C:\Users\SOLDER~1\AppData\Local\Temp\ccmjpsKj.s:27440  .debug_str:000000000001aec3 .LASF3628
C:\Users\SOLDER~1\AppData\Local\Temp\ccmjpsKj.s:30780  .debug_str:0000000000028756 .LASF3629
C:\Users\SOLDER~1\AppData\Local\Temp\ccmjpsKj.s:25416  .debug_str:0000000000012b59 .LASF3630
C:\Users\SOLDER~1\AppData\Local\Temp\ccmjpsKj.s:26892  .debug_str:0000000000018b7f .LASF3631
C:\Users\SOLDER~1\AppData\Local\Temp\ccmjpsKj.s:29136  .debug_str:0000000000021c54 .LASF3632
C:\Users\SOLDER~1\AppData\Local\Temp\ccmjpsKj.s:26538  .debug_str:000000000001745d .LASF3633
C:\Users\SOLDER~1\AppData\Local\Temp\ccmjpsKj.s:29366  .debug_str:0000000000022ab7 .LASF3634
C:\Users\SOLDER~1\AppData\Local\Temp\ccmjpsKj.s:26674  .debug_str:0000000000017d44 .LASF3635
C:\Users\SOLDER~1\AppData\Local\Temp\ccmjpsKj.s:29420  .debug_str:0000000000022e55 .LASF3636
C:\Users\SOLDER~1\AppData\Local\Temp\ccmjpsKj.s:24640  .debug_str:000000000000f979 .LASF3637
C:\Users\SOLDER~1\AppData\Local\Temp\ccmjpsKj.s:28746  .debug_str:000000000002035b .LASF3638
C:\Users\SOLDER~1\AppData\Local\Temp\ccmjpsKj.s:25162  .debug_str:0000000000011b87 .LASF3639
C:\Users\SOLDER~1\AppData\Local\Temp\ccmjpsKj.s:31118  .debug_str:0000000000029cbb .LASF3640
C:\Users\SOLDER~1\AppData\Local\Temp\ccmjpsKj.s:29436  .debug_str:0000000000022f47 .LASF3641
C:\Users\SOLDER~1\AppData\Local\Temp\ccmjpsKj.s:29610  .debug_str:0000000000023abc .LASF3642
C:\Users\SOLDER~1\AppData\Local\Temp\ccmjpsKj.s:31150  .debug_str:0000000000029ec9 .LASF3643
C:\Users\SOLDER~1\AppData\Local\Temp\ccmjpsKj.s:29956  .debug_str:0000000000025160 .LASF3644
GAS LISTING C:\Users\SOLDER~1\AppData\Local\Temp\ccmjpsKj.s 			page 117


C:\Users\SOLDER~1\AppData\Local\Temp\ccmjpsKj.s:31326  .debug_str:000000000002aaa5 .LASF3645
C:\Users\SOLDER~1\AppData\Local\Temp\ccmjpsKj.s:31824  .debug_str:000000000002cab3 .LASF3646
C:\Users\SOLDER~1\AppData\Local\Temp\ccmjpsKj.s:22434  .debug_str:00000000000069cc .LASF3647
C:\Users\SOLDER~1\AppData\Local\Temp\ccmjpsKj.s:20852  .debug_str:000000000000035a .LASF3648
C:\Users\SOLDER~1\AppData\Local\Temp\ccmjpsKj.s:28492  .debug_str:000000000001f2e8 .LASF3649
C:\Users\SOLDER~1\AppData\Local\Temp\ccmjpsKj.s:23108  .debug_str:00000000000095a6 .LASF3650
C:\Users\SOLDER~1\AppData\Local\Temp\ccmjpsKj.s:26202  .debug_str:0000000000015f2d .LASF3651
C:\Users\SOLDER~1\AppData\Local\Temp\ccmjpsKj.s:20982  .debug_str:0000000000000cc8 .LASF3652
C:\Users\SOLDER~1\AppData\Local\Temp\ccmjpsKj.s:31986  .debug_str:000000000002d52f .LASF3653
C:\Users\SOLDER~1\AppData\Local\Temp\ccmjpsKj.s:27064  .debug_str:00000000000196bd .LASF3654
C:\Users\SOLDER~1\AppData\Local\Temp\ccmjpsKj.s:32098  .debug_str:000000000002dc4c .LASF3655
C:\Users\SOLDER~1\AppData\Local\Temp\ccmjpsKj.s:30526  .debug_str:00000000000276dc .LASF3656
C:\Users\SOLDER~1\AppData\Local\Temp\ccmjpsKj.s:23166  .debug_str:0000000000009950 .LASF3657
C:\Users\SOLDER~1\AppData\Local\Temp\ccmjpsKj.s:29702  .debug_str:000000000002407f .LASF3658
C:\Users\SOLDER~1\AppData\Local\Temp\ccmjpsKj.s:31876  .debug_str:000000000002cde7 .LASF3659
C:\Users\SOLDER~1\AppData\Local\Temp\ccmjpsKj.s:22340  .debug_str:000000000000633e .LASF3660
C:\Users\SOLDER~1\AppData\Local\Temp\ccmjpsKj.s:27558  .debug_str:000000000001b62d .LASF3661
C:\Users\SOLDER~1\AppData\Local\Temp\ccmjpsKj.s:22284  .debug_str:0000000000005f48 .LASF3662
C:\Users\SOLDER~1\AppData\Local\Temp\ccmjpsKj.s:21956  .debug_str:0000000000004acb .LASF3663
C:\Users\SOLDER~1\AppData\Local\Temp\ccmjpsKj.s:21990  .debug_str:0000000000004d1d .LASF3664
C:\Users\SOLDER~1\AppData\Local\Temp\ccmjpsKj.s:21528  .debug_str:0000000000002fdc .LASF3665
C:\Users\SOLDER~1\AppData\Local\Temp\ccmjpsKj.s:30386  .debug_str:0000000000026dc5 .LASF3666
C:\Users\SOLDER~1\AppData\Local\Temp\ccmjpsKj.s:22440  .debug_str:0000000000006a1f .LASF3667
C:\Users\SOLDER~1\AppData\Local\Temp\ccmjpsKj.s:26822  .debug_str:00000000000186fa .LASF3668
C:\Users\SOLDER~1\AppData\Local\Temp\ccmjpsKj.s:24408  .debug_str:000000000000eaf1 .LASF3669
C:\Users\SOLDER~1\AppData\Local\Temp\ccmjpsKj.s:24676  .debug_str:000000000000fc15 .LASF3670
C:\Users\SOLDER~1\AppData\Local\Temp\ccmjpsKj.s:29272  .debug_str:0000000000022497 .LASF3671
C:\Users\SOLDER~1\AppData\Local\Temp\ccmjpsKj.s:30366  .debug_str:0000000000026c55 .LASF3672
C:\Users\SOLDER~1\AppData\Local\Temp\ccmjpsKj.s:27280  .debug_str:000000000001a436 .LASF3673
C:\Users\SOLDER~1\AppData\Local\Temp\ccmjpsKj.s:27300  .debug_str:000000000001a572 .LASF3674
C:\Users\SOLDER~1\AppData\Local\Temp\ccmjpsKj.s:23288  .debug_str:000000000000a157 .LASF3675
C:\Users\SOLDER~1\AppData\Local\Temp\ccmjpsKj.s:25044  .debug_str:00000000000113f9 .LASF3676
C:\Users\SOLDER~1\AppData\Local\Temp\ccmjpsKj.s:29390  .debug_str:0000000000022c67 .LASF3677
C:\Users\SOLDER~1\AppData\Local\Temp\ccmjpsKj.s:27314  .debug_str:000000000001a67d .LASF3678
C:\Users\SOLDER~1\AppData\Local\Temp\ccmjpsKj.s:29626  .debug_str:0000000000023bc8 .LASF3679
C:\Users\SOLDER~1\AppData\Local\Temp\ccmjpsKj.s:31002  .debug_str:0000000000029566 .LASF3680
C:\Users\SOLDER~1\AppData\Local\Temp\ccmjpsKj.s:31808  .debug_str:000000000002c9af .LASF3681
C:\Users\SOLDER~1\AppData\Local\Temp\ccmjpsKj.s:26428  .debug_str:0000000000016d77 .LASF3682
C:\Users\SOLDER~1\AppData\Local\Temp\ccmjpsKj.s:31490  .debug_str:000000000002b516 .LASF3683
C:\Users\SOLDER~1\AppData\Local\Temp\ccmjpsKj.s:25178  .debug_str:0000000000011c92 .LASF3684
C:\Users\SOLDER~1\AppData\Local\Temp\ccmjpsKj.s:29060  .debug_str:00000000000217a4 .LASF3685
C:\Users\SOLDER~1\AppData\Local\Temp\ccmjpsKj.s:24970  .debug_str:0000000000010f1b .LASF3686
C:\Users\SOLDER~1\AppData\Local\Temp\ccmjpsKj.s:32386  .debug_str:000000000002eebd .LASF3687
C:\Users\SOLDER~1\AppData\Local\Temp\ccmjpsKj.s:29076  .debug_str:00000000000218bb .LASF3688
C:\Users\SOLDER~1\AppData\Local\Temp\ccmjpsKj.s:22948  .debug_str:0000000000008ad4 .LASF3689
C:\Users\SOLDER~1\AppData\Local\Temp\ccmjpsKj.s:29066  .debug_str:0000000000021816 .LASF3690
C:\Users\SOLDER~1\AppData\Local\Temp\ccmjpsKj.s:26016  .debug_str:00000000000153b0 .LASF3691
C:\Users\SOLDER~1\AppData\Local\Temp\ccmjpsKj.s:22216  .debug_str:0000000000005b1f .LASF3692
C:\Users\SOLDER~1\AppData\Local\Temp\ccmjpsKj.s:23864  .debug_str:000000000000c708 .LASF3693
C:\Users\SOLDER~1\AppData\Local\Temp\ccmjpsKj.s:30942  .debug_str:00000000000291a3 .LASF3694
C:\Users\SOLDER~1\AppData\Local\Temp\ccmjpsKj.s:25924  .debug_str:0000000000014db5 .LASF3695
C:\Users\SOLDER~1\AppData\Local\Temp\ccmjpsKj.s:23144  .debug_str:00000000000097cf .LASF3696
C:\Users\SOLDER~1\AppData\Local\Temp\ccmjpsKj.s:23742  .debug_str:000000000000be90 .LASF3697
C:\Users\SOLDER~1\AppData\Local\Temp\ccmjpsKj.s:27336  .debug_str:000000000001a7cd .LASF3698
C:\Users\SOLDER~1\AppData\Local\Temp\ccmjpsKj.s:24658  .debug_str:000000000000faf1 .LASF3699
C:\Users\SOLDER~1\AppData\Local\Temp\ccmjpsKj.s:28254  .debug_str:000000000001e348 .LASF3700
C:\Users\SOLDER~1\AppData\Local\Temp\ccmjpsKj.s:21276  .debug_str:0000000000001fa3 .LASF3701
GAS LISTING C:\Users\SOLDER~1\AppData\Local\Temp\ccmjpsKj.s 			page 118


C:\Users\SOLDER~1\AppData\Local\Temp\ccmjpsKj.s:24910  .debug_str:0000000000010b6e .LASF3702
C:\Users\SOLDER~1\AppData\Local\Temp\ccmjpsKj.s:24354  .debug_str:000000000000e736 .LASF3703
C:\Users\SOLDER~1\AppData\Local\Temp\ccmjpsKj.s:21626  .debug_str:0000000000003605 .LASF3704
C:\Users\SOLDER~1\AppData\Local\Temp\ccmjpsKj.s:30522  .debug_str:000000000002768f .LASF3705
C:\Users\SOLDER~1\AppData\Local\Temp\ccmjpsKj.s:29844  .debug_str:00000000000249f4 .LASF3706
C:\Users\SOLDER~1\AppData\Local\Temp\ccmjpsKj.s:24024  .debug_str:000000000000d1ea .LASF3707
C:\Users\SOLDER~1\AppData\Local\Temp\ccmjpsKj.s:21358  .debug_str:00000000000024ff .LASF3708
C:\Users\SOLDER~1\AppData\Local\Temp\ccmjpsKj.s:30094  .debug_str:00000000000259fa .LASF3709
C:\Users\SOLDER~1\AppData\Local\Temp\ccmjpsKj.s:21556  .debug_str:000000000000318e .LASF3710
C:\Users\SOLDER~1\AppData\Local\Temp\ccmjpsKj.s:21292  .debug_str:00000000000020a5 .LASF3711
C:\Users\SOLDER~1\AppData\Local\Temp\ccmjpsKj.s:30182  .debug_str:0000000000025fcf .LASF3712
C:\Users\SOLDER~1\AppData\Local\Temp\ccmjpsKj.s:30568  .debug_str:0000000000027994 .LASF3713
C:\Users\SOLDER~1\AppData\Local\Temp\ccmjpsKj.s:31046  .debug_str:0000000000029870 .LASF3714
C:\Users\SOLDER~1\AppData\Local\Temp\ccmjpsKj.s:21966  .debug_str:0000000000004b78 .LASF3715
C:\Users\SOLDER~1\AppData\Local\Temp\ccmjpsKj.s:31060  .debug_str:0000000000029960 .LASF3716
C:\Users\SOLDER~1\AppData\Local\Temp\ccmjpsKj.s:27078  .debug_str:00000000000197bc .LASF3717
C:\Users\SOLDER~1\AppData\Local\Temp\ccmjpsKj.s:23774  .debug_str:000000000000c08c .LASF3718
C:\Users\SOLDER~1\AppData\Local\Temp\ccmjpsKj.s:30452  .debug_str:000000000002720e .LASF3719
C:\Users\SOLDER~1\AppData\Local\Temp\ccmjpsKj.s:24086  .debug_str:000000000000d5f8 .LASF3720
C:\Users\SOLDER~1\AppData\Local\Temp\ccmjpsKj.s:32272  .debug_str:000000000002e73c .LASF3721
C:\Users\SOLDER~1\AppData\Local\Temp\ccmjpsKj.s:31520  .debug_str:000000000002b6dc .LASF3722
C:\Users\SOLDER~1\AppData\Local\Temp\ccmjpsKj.s:29918  .debug_str:0000000000024ef3 .LASF3723
C:\Users\SOLDER~1\AppData\Local\Temp\ccmjpsKj.s:31994  .debug_str:000000000002d5b2 .LASF3724
C:\Users\SOLDER~1\AppData\Local\Temp\ccmjpsKj.s:28952  .debug_str:00000000000210cb .LASF3725
C:\Users\SOLDER~1\AppData\Local\Temp\ccmjpsKj.s:25838  .debug_str:000000000001481d .LASF3726
C:\Users\SOLDER~1\AppData\Local\Temp\ccmjpsKj.s:31246  .debug_str:000000000002a569 .LASF3727
C:\Users\SOLDER~1\AppData\Local\Temp\ccmjpsKj.s:23448  .debug_str:000000000000ac0b .LASF3728
C:\Users\SOLDER~1\AppData\Local\Temp\ccmjpsKj.s:26136  .debug_str:0000000000015b16 .LASF3729
C:\Users\SOLDER~1\AppData\Local\Temp\ccmjpsKj.s:26942  .debug_str:0000000000018ebb .LASF3730
C:\Users\SOLDER~1\AppData\Local\Temp\ccmjpsKj.s:22722  .debug_str:0000000000007c40 .LASF3731
C:\Users\SOLDER~1\AppData\Local\Temp\ccmjpsKj.s:27462  .debug_str:000000000001b057 .LASF3732
C:\Users\SOLDER~1\AppData\Local\Temp\ccmjpsKj.s:23744  .debug_str:000000000000beb5 .LASF3733
C:\Users\SOLDER~1\AppData\Local\Temp\ccmjpsKj.s:27234  .debug_str:000000000001a141 .LASF3734
C:\Users\SOLDER~1\AppData\Local\Temp\ccmjpsKj.s:26220  .debug_str:000000000001604f .LASF3735
C:\Users\SOLDER~1\AppData\Local\Temp\ccmjpsKj.s:22206  .debug_str:0000000000005a67 .LASF3736
C:\Users\SOLDER~1\AppData\Local\Temp\ccmjpsKj.s:24724  .debug_str:000000000000ff85 .LASF3737
C:\Users\SOLDER~1\AppData\Local\Temp\ccmjpsKj.s:22506  .debug_str:0000000000006e60 .LASF3738
C:\Users\SOLDER~1\AppData\Local\Temp\ccmjpsKj.s:21612  .debug_str:0000000000003549 .LASF3739
C:\Users\SOLDER~1\AppData\Local\Temp\ccmjpsKj.s:28560  .debug_str:000000000001f79b .LASF3740
C:\Users\SOLDER~1\AppData\Local\Temp\ccmjpsKj.s:28652  .debug_str:000000000001fd7b .LASF3741
C:\Users\SOLDER~1\AppData\Local\Temp\ccmjpsKj.s:24184  .debug_str:000000000000dbe3 .LASF3742
C:\Users\SOLDER~1\AppData\Local\Temp\ccmjpsKj.s:32222  .debug_str:000000000002e40e .LASF3743
C:\Users\SOLDER~1\AppData\Local\Temp\ccmjpsKj.s:22200  .debug_str:0000000000005a05 .LASF3744
C:\Users\SOLDER~1\AppData\Local\Temp\ccmjpsKj.s:31182  .debug_str:000000000002a125 .LASF3745
C:\Users\SOLDER~1\AppData\Local\Temp\ccmjpsKj.s:24232  .debug_str:000000000000df0e .LASF3746
C:\Users\SOLDER~1\AppData\Local\Temp\ccmjpsKj.s:29396  .debug_str:0000000000022cc6 .LASF3747
C:\Users\SOLDER~1\AppData\Local\Temp\ccmjpsKj.s:25544  .debug_str:00000000000133a5 .LASF3748
C:\Users\SOLDER~1\AppData\Local\Temp\ccmjpsKj.s:23988  .debug_str:000000000000cf90 .LASF3749
C:\Users\SOLDER~1\AppData\Local\Temp\ccmjpsKj.s:31338  .debug_str:000000000002ab48 .LASF3750
C:\Users\SOLDER~1\AppData\Local\Temp\ccmjpsKj.s:27644  .debug_str:000000000001bb64 .LASF3751
C:\Users\SOLDER~1\AppData\Local\Temp\ccmjpsKj.s:24744  .debug_str:00000000000100d6 .LASF3752
C:\Users\SOLDER~1\AppData\Local\Temp\ccmjpsKj.s:28236  .debug_str:000000000001e24a .LASF3753
C:\Users\SOLDER~1\AppData\Local\Temp\ccmjpsKj.s:24708  .debug_str:000000000000fe6e .LASF3754
C:\Users\SOLDER~1\AppData\Local\Temp\ccmjpsKj.s:27244  .debug_str:000000000001a1f3 .LASF3755
C:\Users\SOLDER~1\AppData\Local\Temp\ccmjpsKj.s:27482  .debug_str:000000000001b1b1 .LASF3756
C:\Users\SOLDER~1\AppData\Local\Temp\ccmjpsKj.s:25318  .debug_str:0000000000012544 .LASF3757
C:\Users\SOLDER~1\AppData\Local\Temp\ccmjpsKj.s:26826  .debug_str:0000000000018748 .LASF3758
GAS LISTING C:\Users\SOLDER~1\AppData\Local\Temp\ccmjpsKj.s 			page 119


C:\Users\SOLDER~1\AppData\Local\Temp\ccmjpsKj.s:21382  .debug_str:0000000000002687 .LASF3759
C:\Users\SOLDER~1\AppData\Local\Temp\ccmjpsKj.s:22108  .debug_str:00000000000053f5 .LASF3760
C:\Users\SOLDER~1\AppData\Local\Temp\ccmjpsKj.s:31792  .debug_str:000000000002c8a9 .LASF3761
C:\Users\SOLDER~1\AppData\Local\Temp\ccmjpsKj.s:32018  .debug_str:000000000002d737 .LASF3762
C:\Users\SOLDER~1\AppData\Local\Temp\ccmjpsKj.s:21078  .debug_str:00000000000012fa .LASF3763
C:\Users\SOLDER~1\AppData\Local\Temp\ccmjpsKj.s:26882  .debug_str:0000000000018ad4 .LASF3764
C:\Users\SOLDER~1\AppData\Local\Temp\ccmjpsKj.s:25022  .debug_str:0000000000011291 .LASF3765
C:\Users\SOLDER~1\AppData\Local\Temp\ccmjpsKj.s:29846  .debug_str:0000000000024a18 .LASF3766
C:\Users\SOLDER~1\AppData\Local\Temp\ccmjpsKj.s:23538  .debug_str:000000000000b1dc .LASF3767
C:\Users\SOLDER~1\AppData\Local\Temp\ccmjpsKj.s:29132  .debug_str:0000000000021c2c .LASF3768
C:\Users\SOLDER~1\AppData\Local\Temp\ccmjpsKj.s:21362  .debug_str:0000000000002551 .LASF3769
C:\Users\SOLDER~1\AppData\Local\Temp\ccmjpsKj.s:30640  .debug_str:0000000000027e1b .LASF3770
C:\Users\SOLDER~1\AppData\Local\Temp\ccmjpsKj.s:21028  .debug_str:0000000000000fd6 .LASF3771
C:\Users\SOLDER~1\AppData\Local\Temp\ccmjpsKj.s:29704  .debug_str:00000000000240a6 .LASF3772
C:\Users\SOLDER~1\AppData\Local\Temp\ccmjpsKj.s:25664  .debug_str:0000000000013bf1 .LASF3773
C:\Users\SOLDER~1\AppData\Local\Temp\ccmjpsKj.s:31054  .debug_str:00000000000298ee .LASF3774
C:\Users\SOLDER~1\AppData\Local\Temp\ccmjpsKj.s:28466  .debug_str:000000000001f134 .LASF3775
C:\Users\SOLDER~1\AppData\Local\Temp\ccmjpsKj.s:24064  .debug_str:000000000000d472 .LASF3776
C:\Users\SOLDER~1\AppData\Local\Temp\ccmjpsKj.s:22620  .debug_str:00000000000075ed .LASF3777
C:\Users\SOLDER~1\AppData\Local\Temp\ccmjpsKj.s:30352  .debug_str:0000000000026b7e .LASF3778
C:\Users\SOLDER~1\AppData\Local\Temp\ccmjpsKj.s:28646  .debug_str:000000000001fd21 .LASF3779
C:\Users\SOLDER~1\AppData\Local\Temp\ccmjpsKj.s:28904  .debug_str:0000000000020da7 .LASF3780
C:\Users\SOLDER~1\AppData\Local\Temp\ccmjpsKj.s:29816  .debug_str:000000000002480f .LASF3781
C:\Users\SOLDER~1\AppData\Local\Temp\ccmjpsKj.s:21806  .debug_str:000000000000416d .LASF3782
C:\Users\SOLDER~1\AppData\Local\Temp\ccmjpsKj.s:25946  .debug_str:0000000000014f59 .LASF3783
C:\Users\SOLDER~1\AppData\Local\Temp\ccmjpsKj.s:24524  .debug_str:000000000000f1fe .LASF3784
C:\Users\SOLDER~1\AppData\Local\Temp\ccmjpsKj.s:22476  .debug_str:0000000000006c5d .LASF3785
C:\Users\SOLDER~1\AppData\Local\Temp\ccmjpsKj.s:26760  .debug_str:000000000001830d .LASF3786
C:\Users\SOLDER~1\AppData\Local\Temp\ccmjpsKj.s:31998  .debug_str:000000000002d5fb .LASF3787
C:\Users\SOLDER~1\AppData\Local\Temp\ccmjpsKj.s:29820  .debug_str:000000000002484c .LASF3788
C:\Users\SOLDER~1\AppData\Local\Temp\ccmjpsKj.s:22256  .debug_str:0000000000005daf .LASF3789
C:\Users\SOLDER~1\AppData\Local\Temp\ccmjpsKj.s:23398  .debug_str:000000000000a8cf .LASF3790
C:\Users\SOLDER~1\AppData\Local\Temp\ccmjpsKj.s:30884  .debug_str:0000000000028e27 .LASF3791
C:\Users\SOLDER~1\AppData\Local\Temp\ccmjpsKj.s:30476  .debug_str:000000000002738e .LASF3792
C:\Users\SOLDER~1\AppData\Local\Temp\ccmjpsKj.s:28068  .debug_str:000000000001d7af .LASF3793
C:\Users\SOLDER~1\AppData\Local\Temp\ccmjpsKj.s:31900  .debug_str:000000000002cf50 .LASF3794
C:\Users\SOLDER~1\AppData\Local\Temp\ccmjpsKj.s:24846  .debug_str:0000000000010763 .LASF3795
C:\Users\SOLDER~1\AppData\Local\Temp\ccmjpsKj.s:23278  .debug_str:000000000000a097 .LASF3796
C:\Users\SOLDER~1\AppData\Local\Temp\ccmjpsKj.s:24746  .debug_str:00000000000100fa .LASF3797
C:\Users\SOLDER~1\AppData\Local\Temp\ccmjpsKj.s:30664  .debug_str:0000000000027fb8 .LASF3798
C:\Users\SOLDER~1\AppData\Local\Temp\ccmjpsKj.s:31282  .debug_str:000000000002a7c3 .LASF3799
C:\Users\SOLDER~1\AppData\Local\Temp\ccmjpsKj.s:27710  .debug_str:000000000001bfae .LASF3800
C:\Users\SOLDER~1\AppData\Local\Temp\ccmjpsKj.s:28950  .debug_str:00000000000210b6 .LASF3801
C:\Users\SOLDER~1\AppData\Local\Temp\ccmjpsKj.s:26626  .debug_str:0000000000017a55 .LASF3802
C:\Users\SOLDER~1\AppData\Local\Temp\ccmjpsKj.s:30994  .debug_str:00000000000294f4 .LASF3803
C:\Users\SOLDER~1\AppData\Local\Temp\ccmjpsKj.s:28710  .debug_str:000000000002010f .LASF3804
C:\Users\SOLDER~1\AppData\Local\Temp\ccmjpsKj.s:27826  .debug_str:000000000001c740 .LASF3805
C:\Users\SOLDER~1\AppData\Local\Temp\ccmjpsKj.s:20878  .debug_str:0000000000000508 .LASF3806
C:\Users\SOLDER~1\AppData\Local\Temp\ccmjpsKj.s:31636  .debug_str:000000000002be2e .LASF3807
C:\Users\SOLDER~1\AppData\Local\Temp\ccmjpsKj.s:20944  .debug_str:0000000000000a20 .LASF3808
C:\Users\SOLDER~1\AppData\Local\Temp\ccmjpsKj.s:26074  .debug_str:0000000000015789 .LASF3809
C:\Users\SOLDER~1\AppData\Local\Temp\ccmjpsKj.s:26390  .debug_str:0000000000016af9 .LASF3810
C:\Users\SOLDER~1\AppData\Local\Temp\ccmjpsKj.s:28670  .debug_str:000000000001fe9f .LASF3811
C:\Users\SOLDER~1\AppData\Local\Temp\ccmjpsKj.s:26198  .debug_str:0000000000015eec .LASF3812
C:\Users\SOLDER~1\AppData\Local\Temp\ccmjpsKj.s:22876  .debug_str:0000000000008619 .LASF3813
C:\Users\SOLDER~1\AppData\Local\Temp\ccmjpsKj.s:21834  .debug_str:0000000000004331 .LASF3814
C:\Users\SOLDER~1\AppData\Local\Temp\ccmjpsKj.s:23060  .debug_str:0000000000009261 .LASF3815
GAS LISTING C:\Users\SOLDER~1\AppData\Local\Temp\ccmjpsKj.s 			page 120


C:\Users\SOLDER~1\AppData\Local\Temp\ccmjpsKj.s:26176  .debug_str:0000000000015d98 .LASF3816
C:\Users\SOLDER~1\AppData\Local\Temp\ccmjpsKj.s:22896  .debug_str:0000000000008761 .LASF3817
C:\Users\SOLDER~1\AppData\Local\Temp\ccmjpsKj.s:24122  .debug_str:000000000000d835 .LASF3818
C:\Users\SOLDER~1\AppData\Local\Temp\ccmjpsKj.s:22014  .debug_str:0000000000004e88 .LASF3819
C:\Users\SOLDER~1\AppData\Local\Temp\ccmjpsKj.s:29888  .debug_str:0000000000024cd1 .LASF3820
C:\Users\SOLDER~1\AppData\Local\Temp\ccmjpsKj.s:25400  .debug_str:0000000000012a65 .LASF3821
C:\Users\SOLDER~1\AppData\Local\Temp\ccmjpsKj.s:24720  .debug_str:000000000000ff3e .LASF3822
C:\Users\SOLDER~1\AppData\Local\Temp\ccmjpsKj.s:27970  .debug_str:000000000001d0ff .LASF3823
C:\Users\SOLDER~1\AppData\Local\Temp\ccmjpsKj.s:31218  .debug_str:000000000002a374 .LASF3824
C:\Users\SOLDER~1\AppData\Local\Temp\ccmjpsKj.s:23030  .debug_str:0000000000009055 .LASF3825
C:\Users\SOLDER~1\AppData\Local\Temp\ccmjpsKj.s:29138  .debug_str:0000000000021c64 .LASF3826
C:\Users\SOLDER~1\AppData\Local\Temp\ccmjpsKj.s:23260  .debug_str:0000000000009f81 .LASF3827
C:\Users\SOLDER~1\AppData\Local\Temp\ccmjpsKj.s:22668  .debug_str:00000000000078b6 .LASF3828
C:\Users\SOLDER~1\AppData\Local\Temp\ccmjpsKj.s:23888  .debug_str:000000000000c8a7 .LASF3829
C:\Users\SOLDER~1\AppData\Local\Temp\ccmjpsKj.s:23876  .debug_str:000000000000c7cb .LASF3830
C:\Users\SOLDER~1\AppData\Local\Temp\ccmjpsKj.s:21516  .debug_str:0000000000002efd .LASF3831
C:\Users\SOLDER~1\AppData\Local\Temp\ccmjpsKj.s:23674  .debug_str:000000000000ba2b .LASF3832
C:\Users\SOLDER~1\AppData\Local\Temp\ccmjpsKj.s:29630  .debug_str:0000000000023c0c .LASF3833
C:\Users\SOLDER~1\AppData\Local\Temp\ccmjpsKj.s:27740  .debug_str:000000000001c1c2 .LASF3834
C:\Users\SOLDER~1\AppData\Local\Temp\ccmjpsKj.s:24218  .debug_str:000000000000de29 .LASF3835
C:\Users\SOLDER~1\AppData\Local\Temp\ccmjpsKj.s:31506  .debug_str:000000000002b638 .LASF3836
C:\Users\SOLDER~1\AppData\Local\Temp\ccmjpsKj.s:29548  .debug_str:00000000000236a1 .LASF3837
C:\Users\SOLDER~1\AppData\Local\Temp\ccmjpsKj.s:21898  .debug_str:0000000000004746 .LASF3838
C:\Users\SOLDER~1\AppData\Local\Temp\ccmjpsKj.s:29812  .debug_str:00000000000247c8 .LASF3839
C:\Users\SOLDER~1\AppData\Local\Temp\ccmjpsKj.s:29336  .debug_str:00000000000228b5 .LASF3840
C:\Users\SOLDER~1\AppData\Local\Temp\ccmjpsKj.s:21852  .debug_str:000000000000444f .LASF3841
C:\Users\SOLDER~1\AppData\Local\Temp\ccmjpsKj.s:23942  .debug_str:000000000000cc78 .LASF3842
C:\Users\SOLDER~1\AppData\Local\Temp\ccmjpsKj.s:31062  .debug_str:0000000000029985 .LASF3843
C:\Users\SOLDER~1\AppData\Local\Temp\ccmjpsKj.s:23376  .debug_str:000000000000a766 .LASF3844
C:\Users\SOLDER~1\AppData\Local\Temp\ccmjpsKj.s:29372  .debug_str:0000000000022b19 .LASF3845
C:\Users\SOLDER~1\AppData\Local\Temp\ccmjpsKj.s:27960  .debug_str:000000000001d072 .LASF3846
C:\Users\SOLDER~1\AppData\Local\Temp\ccmjpsKj.s:29688  .debug_str:0000000000023f94 .LASF3847
C:\Users\SOLDER~1\AppData\Local\Temp\ccmjpsKj.s:24936  .debug_str:0000000000010d24 .LASF3848
C:\Users\SOLDER~1\AppData\Local\Temp\ccmjpsKj.s:26332  .debug_str:00000000000167a7 .LASF3849
C:\Users\SOLDER~1\AppData\Local\Temp\ccmjpsKj.s:22272  .debug_str:0000000000005e9f .LASF3850
C:\Users\SOLDER~1\AppData\Local\Temp\ccmjpsKj.s:23784  .debug_str:000000000000c151 .LASF3851
C:\Users\SOLDER~1\AppData\Local\Temp\ccmjpsKj.s:23534  .debug_str:000000000000b1a7 .LASF3852
C:\Users\SOLDER~1\AppData\Local\Temp\ccmjpsKj.s:23564  .debug_str:000000000000b377 .LASF3853
C:\Users\SOLDER~1\AppData\Local\Temp\ccmjpsKj.s:21526  .debug_str:0000000000002fc6 .LASF3854
C:\Users\SOLDER~1\AppData\Local\Temp\ccmjpsKj.s:27070  .debug_str:000000000001972c .LASF3855
C:\Users\SOLDER~1\AppData\Local\Temp\ccmjpsKj.s:24214  .debug_str:000000000000ddee .LASF3856
C:\Users\SOLDER~1\AppData\Local\Temp\ccmjpsKj.s:31972  .debug_str:000000000002d425 .LASF3857
C:\Users\SOLDER~1\AppData\Local\Temp\ccmjpsKj.s:31670  .debug_str:000000000002c057 .LASF3858
C:\Users\SOLDER~1\AppData\Local\Temp\ccmjpsKj.s:30064  .debug_str:0000000000025822 .LASF3859
C:\Users\SOLDER~1\AppData\Local\Temp\ccmjpsKj.s:28308  .debug_str:000000000001e6b1 .LASF3860
C:\Users\SOLDER~1\AppData\Local\Temp\ccmjpsKj.s:20976  .debug_str:0000000000000c5c .LASF3861
C:\Users\SOLDER~1\AppData\Local\Temp\ccmjpsKj.s:31122  .debug_str:0000000000029d0d .LASF3862
C:\Users\SOLDER~1\AppData\Local\Temp\ccmjpsKj.s:21692  .debug_str:0000000000003a42 .LASF3863
C:\Users\SOLDER~1\AppData\Local\Temp\ccmjpsKj.s:32042  .debug_str:000000000002d8a0 .LASF3864
C:\Users\SOLDER~1\AppData\Local\Temp\ccmjpsKj.s:24372  .debug_str:000000000000e86e .LASF3865
C:\Users\SOLDER~1\AppData\Local\Temp\ccmjpsKj.s:23532  .debug_str:000000000000b187 .LASF3866
C:\Users\SOLDER~1\AppData\Local\Temp\ccmjpsKj.s:24718  .debug_str:000000000000ff1e .LASF3867
C:\Users\SOLDER~1\AppData\Local\Temp\ccmjpsKj.s:26816  .debug_str:00000000000186a7 .LASF3868
C:\Users\SOLDER~1\AppData\Local\Temp\ccmjpsKj.s:27848  .debug_str:000000000001c8d9 .LASF3869
C:\Users\SOLDER~1\AppData\Local\Temp\ccmjpsKj.s:24364  .debug_str:000000000000e7e2 .LASF3870
C:\Users\SOLDER~1\AppData\Local\Temp\ccmjpsKj.s:24280  .debug_str:000000000000e278 .LASF3871
C:\Users\SOLDER~1\AppData\Local\Temp\ccmjpsKj.s:32146  .debug_str:000000000002df38 .LASF3872
GAS LISTING C:\Users\SOLDER~1\AppData\Local\Temp\ccmjpsKj.s 			page 121


C:\Users\SOLDER~1\AppData\Local\Temp\ccmjpsKj.s:26914  .debug_str:0000000000018cce .LASF3873
C:\Users\SOLDER~1\AppData\Local\Temp\ccmjpsKj.s:21786  .debug_str:0000000000004027 .LASF3874
C:\Users\SOLDER~1\AppData\Local\Temp\ccmjpsKj.s:30952  .debug_str:000000000002923b .LASF3875
C:\Users\SOLDER~1\AppData\Local\Temp\ccmjpsKj.s:22714  .debug_str:0000000000007bb2 .LASF3876
C:\Users\SOLDER~1\AppData\Local\Temp\ccmjpsKj.s:21784  .debug_str:0000000000004003 .LASF3877
C:\Users\SOLDER~1\AppData\Local\Temp\ccmjpsKj.s:27036  .debug_str:00000000000194da .LASF3878
C:\Users\SOLDER~1\AppData\Local\Temp\ccmjpsKj.s:23798  .debug_str:000000000000c24c .LASF3879
C:\Users\SOLDER~1\AppData\Local\Temp\ccmjpsKj.s:23878  .debug_str:000000000000c7ed .LASF3880
C:\Users\SOLDER~1\AppData\Local\Temp\ccmjpsKj.s:29896  .debug_str:0000000000024d4b .LASF3881
C:\Users\SOLDER~1\AppData\Local\Temp\ccmjpsKj.s:24630  .debug_str:000000000000f8d8 .LASF3882
C:\Users\SOLDER~1\AppData\Local\Temp\ccmjpsKj.s:20820  .debug_str:000000000000015d .LASF3883
C:\Users\SOLDER~1\AppData\Local\Temp\ccmjpsKj.s:31580  .debug_str:000000000002bac3 .LASF3884
C:\Users\SOLDER~1\AppData\Local\Temp\ccmjpsKj.s:30984  .debug_str:0000000000029439 .LASF3885
C:\Users\SOLDER~1\AppData\Local\Temp\ccmjpsKj.s:24250  .debug_str:000000000000e040 .LASF3886
C:\Users\SOLDER~1\AppData\Local\Temp\ccmjpsKj.s:28864  .debug_str:0000000000020b07 .LASF3887
C:\Users\SOLDER~1\AppData\Local\Temp\ccmjpsKj.s:20954  .debug_str:0000000000000ac7 .LASF3888
C:\Users\SOLDER~1\AppData\Local\Temp\ccmjpsKj.s:32232  .debug_str:000000000002e4af .LASF3889
C:\Users\SOLDER~1\AppData\Local\Temp\ccmjpsKj.s:23522  .debug_str:000000000000b0cb .LASF3890
C:\Users\SOLDER~1\AppData\Local\Temp\ccmjpsKj.s:24792  .debug_str:00000000000103b4 .LASF3891
C:\Users\SOLDER~1\AppData\Local\Temp\ccmjpsKj.s:31724  .debug_str:000000000002c439 .LASF3892
C:\Users\SOLDER~1\AppData\Local\Temp\ccmjpsKj.s:22842  .debug_str:000000000000842a .LASF3893
C:\Users\SOLDER~1\AppData\Local\Temp\ccmjpsKj.s:27988  .debug_str:000000000001d21f .LASF3894
C:\Users\SOLDER~1\AppData\Local\Temp\ccmjpsKj.s:26998  .debug_str:00000000000192a4 .LASF3895
C:\Users\SOLDER~1\AppData\Local\Temp\ccmjpsKj.s:28954  .debug_str:00000000000210ec .LASF3896
C:\Users\SOLDER~1\AppData\Local\Temp\ccmjpsKj.s:23176  .debug_str:00000000000099f2 .LASF3897
C:\Users\SOLDER~1\AppData\Local\Temp\ccmjpsKj.s:30688  .debug_str:000000000002816f .LASF3898
C:\Users\SOLDER~1\AppData\Local\Temp\ccmjpsKj.s:21226  .debug_str:0000000000001c62 .LASF3899
C:\Users\SOLDER~1\AppData\Local\Temp\ccmjpsKj.s:26594  .debug_str:0000000000017820 .LASF3900
C:\Users\SOLDER~1\AppData\Local\Temp\ccmjpsKj.s:28534  .debug_str:000000000001f5cb .LASF3901
C:\Users\SOLDER~1\AppData\Local\Temp\ccmjpsKj.s:32246  .debug_str:000000000002e5aa .LASF3902
C:\Users\SOLDER~1\AppData\Local\Temp\ccmjpsKj.s:24516  .debug_str:000000000000f193 .LASF3903
C:\Users\SOLDER~1\AppData\Local\Temp\ccmjpsKj.s:25862  .debug_str:00000000000149bc .LASF3904
C:\Users\SOLDER~1\AppData\Local\Temp\ccmjpsKj.s:27896  .debug_str:000000000001cbec .LASF3905
C:\Users\SOLDER~1\AppData\Local\Temp\ccmjpsKj.s:29826  .debug_str:00000000000248d0 .LASF3906
C:\Users\SOLDER~1\AppData\Local\Temp\ccmjpsKj.s:30912  .debug_str:0000000000028fa3 .LASF3907
C:\Users\SOLDER~1\AppData\Local\Temp\ccmjpsKj.s:28260  .debug_str:000000000001e3b7 .LASF3908
C:\Users\SOLDER~1\AppData\Local\Temp\ccmjpsKj.s:32244  .debug_str:000000000002e587 .LASF3909
C:\Users\SOLDER~1\AppData\Local\Temp\ccmjpsKj.s:26244  .debug_str:00000000000161d0 .LASF3910
C:\Users\SOLDER~1\AppData\Local\Temp\ccmjpsKj.s:32102  .debug_str:000000000002dc85 .LASF3911
C:\Users\SOLDER~1\AppData\Local\Temp\ccmjpsKj.s:26794  .debug_str:0000000000018543 .LASF3912
C:\Users\SOLDER~1\AppData\Local\Temp\ccmjpsKj.s:30736  .debug_str:00000000000284a1 .LASF3913
C:\Users\SOLDER~1\AppData\Local\Temp\ccmjpsKj.s:21920  .debug_str:00000000000048b2 .LASF3914
C:\Users\SOLDER~1\AppData\Local\Temp\ccmjpsKj.s:27296  .debug_str:000000000001a53d .LASF3915
C:\Users\SOLDER~1\AppData\Local\Temp\ccmjpsKj.s:28498  .debug_str:000000000001f368 .LASF3916
C:\Users\SOLDER~1\AppData\Local\Temp\ccmjpsKj.s:28966  .debug_str:00000000000211b9 .LASF3917
C:\Users\SOLDER~1\AppData\Local\Temp\ccmjpsKj.s:24894  .debug_str:0000000000010a5e .LASF3918
C:\Users\SOLDER~1\AppData\Local\Temp\ccmjpsKj.s:30258  .debug_str:0000000000026526 .LASF3919
C:\Users\SOLDER~1\AppData\Local\Temp\ccmjpsKj.s:31194  .debug_str:000000000002a1e7 .LASF3920
C:\Users\SOLDER~1\AppData\Local\Temp\ccmjpsKj.s:30134  .debug_str:0000000000025cca .LASF3921
C:\Users\SOLDER~1\AppData\Local\Temp\ccmjpsKj.s:22586  .debug_str:00000000000073d0 .LASF3922
C:\Users\SOLDER~1\AppData\Local\Temp\ccmjpsKj.s:29058  .debug_str:0000000000021783 .LASF3923
C:\Users\SOLDER~1\AppData\Local\Temp\ccmjpsKj.s:25028  .debug_str:00000000000112e6 .LASF3924
C:\Users\SOLDER~1\AppData\Local\Temp\ccmjpsKj.s:28896  .debug_str:0000000000020d19 .LASF3925
C:\Users\SOLDER~1\AppData\Local\Temp\ccmjpsKj.s:22070  .debug_str:00000000000051c7 .LASF3926
C:\Users\SOLDER~1\AppData\Local\Temp\ccmjpsKj.s:25586  .debug_str:000000000001369c .LASF3927
C:\Users\SOLDER~1\AppData\Local\Temp\ccmjpsKj.s:23194  .debug_str:0000000000009b0a .LASF3928
C:\Users\SOLDER~1\AppData\Local\Temp\ccmjpsKj.s:21658  .debug_str:0000000000003821 .LASF3929
GAS LISTING C:\Users\SOLDER~1\AppData\Local\Temp\ccmjpsKj.s 			page 122


C:\Users\SOLDER~1\AppData\Local\Temp\ccmjpsKj.s:22694  .debug_str:0000000000007a72 .LASF3930
C:\Users\SOLDER~1\AppData\Local\Temp\ccmjpsKj.s:28512  .debug_str:000000000001f44f .LASF3931
C:\Users\SOLDER~1\AppData\Local\Temp\ccmjpsKj.s:27990  .debug_str:000000000001d236 .LASF3932
C:\Users\SOLDER~1\AppData\Local\Temp\ccmjpsKj.s:30754  .debug_str:0000000000028593 .LASF3933
C:\Users\SOLDER~1\AppData\Local\Temp\ccmjpsKj.s:30316  .debug_str:00000000000268f4 .LASF3934
C:\Users\SOLDER~1\AppData\Local\Temp\ccmjpsKj.s:23188  .debug_str:0000000000009aad .LASF3935
C:\Users\SOLDER~1\AppData\Local\Temp\ccmjpsKj.s:24410  .debug_str:000000000000eb17 .LASF3936
C:\Users\SOLDER~1\AppData\Local\Temp\ccmjpsKj.s:26200  .debug_str:0000000000015f0e .LASF3937
C:\Users\SOLDER~1\AppData\Local\Temp\ccmjpsKj.s:22130  .debug_str:000000000000553c .LASF3938
C:\Users\SOLDER~1\AppData\Local\Temp\ccmjpsKj.s:22872  .debug_str:00000000000085ee .LASF3939
C:\Users\SOLDER~1\AppData\Local\Temp\ccmjpsKj.s:31266  .debug_str:000000000002a6c2 .LASF3940
C:\Users\SOLDER~1\AppData\Local\Temp\ccmjpsKj.s:26744  .debug_str:00000000000181dc .LASF3941
C:\Users\SOLDER~1\AppData\Local\Temp\ccmjpsKj.s:24330  .debug_str:000000000000e5d8 .LASF3942
C:\Users\SOLDER~1\AppData\Local\Temp\ccmjpsKj.s:28970  .debug_str:00000000000211ff .LASF3943
C:\Users\SOLDER~1\AppData\Local\Temp\ccmjpsKj.s:21412  .debug_str:000000000000287f .LASF3944
C:\Users\SOLDER~1\AppData\Local\Temp\ccmjpsKj.s:27750  .debug_str:000000000001c23d .LASF3945
C:\Users\SOLDER~1\AppData\Local\Temp\ccmjpsKj.s:22830  .debug_str:0000000000008355 .LASF3946
C:\Users\SOLDER~1\AppData\Local\Temp\ccmjpsKj.s:28838  .debug_str:0000000000020956 .LASF3947
C:\Users\SOLDER~1\AppData\Local\Temp\ccmjpsKj.s:30006  .debug_str:0000000000025468 .LASF3948
C:\Users\SOLDER~1\AppData\Local\Temp\ccmjpsKj.s:26100  .debug_str:0000000000015941 .LASF3949
C:\Users\SOLDER~1\AppData\Local\Temp\ccmjpsKj.s:21080  .debug_str:000000000000130d .LASF3950
C:\Users\SOLDER~1\AppData\Local\Temp\ccmjpsKj.s:29594  .debug_str:00000000000239b1 .LASF3951
C:\Users\SOLDER~1\AppData\Local\Temp\ccmjpsKj.s:21790  .debug_str:0000000000004073 .LASF3952
C:\Users\SOLDER~1\AppData\Local\Temp\ccmjpsKj.s:24756  .debug_str:0000000000010197 .LASF3953
C:\Users\SOLDER~1\AppData\Local\Temp\ccmjpsKj.s:26204  .debug_str:0000000000015f4f .LASF3954
C:\Users\SOLDER~1\AppData\Local\Temp\ccmjpsKj.s:22768  .debug_str:0000000000007f53 .LASF3955
C:\Users\SOLDER~1\AppData\Local\Temp\ccmjpsKj.s:21130  .debug_str:0000000000001659 .LASF3956
C:\Users\SOLDER~1\AppData\Local\Temp\ccmjpsKj.s:32460  .debug_str:000000000002f337 .LASF3957
C:\Users\SOLDER~1\AppData\Local\Temp\ccmjpsKj.s:25334  .debug_str:0000000000012636 .LASF3958
C:\Users\SOLDER~1\AppData\Local\Temp\ccmjpsKj.s:26556  .debug_str:00000000000175c3 .LASF3959
C:\Users\SOLDER~1\AppData\Local\Temp\ccmjpsKj.s:24284  .debug_str:000000000000e2bd .LASF3960
C:\Users\SOLDER~1\AppData\Local\Temp\ccmjpsKj.s:26824  .debug_str:0000000000018720 .LASF3961
C:\Users\SOLDER~1\AppData\Local\Temp\ccmjpsKj.s:30020  .debug_str:0000000000025560 .LASF3962
C:\Users\SOLDER~1\AppData\Local\Temp\ccmjpsKj.s:24282  .debug_str:000000000000e296 .LASF3963
C:\Users\SOLDER~1\AppData\Local\Temp\ccmjpsKj.s:24422  .debug_str:000000000000ebcd .LASF3964
C:\Users\SOLDER~1\AppData\Local\Temp\ccmjpsKj.s:28898  .debug_str:0000000000020d39 .LASF3965
C:\Users\SOLDER~1\AppData\Local\Temp\ccmjpsKj.s:28964  .debug_str:0000000000021191 .LASF3966
C:\Users\SOLDER~1\AppData\Local\Temp\ccmjpsKj.s:27932  .debug_str:000000000001ce7f .LASF3967
C:\Users\SOLDER~1\AppData\Local\Temp\ccmjpsKj.s:29734  .debug_str:00000000000242a5 .LASF3968
C:\Users\SOLDER~1\AppData\Local\Temp\ccmjpsKj.s:26704  .debug_str:0000000000017f37 .LASF3969
C:\Users\SOLDER~1\AppData\Local\Temp\ccmjpsKj.s:23868  .debug_str:000000000000c741 .LASF3970
C:\Users\SOLDER~1\AppData\Local\Temp\ccmjpsKj.s:23420  .debug_str:000000000000aa3e .LASF3971
C:\Users\SOLDER~1\AppData\Local\Temp\ccmjpsKj.s:21928  .debug_str:000000000000493d .LASF3972
C:\Users\SOLDER~1\AppData\Local\Temp\ccmjpsKj.s:30270  .debug_str:0000000000026607 .LASF3973
C:\Users\SOLDER~1\AppData\Local\Temp\ccmjpsKj.s:24680  .debug_str:000000000000fc6b .LASF3974
C:\Users\SOLDER~1\AppData\Local\Temp\ccmjpsKj.s:24880  .debug_str:0000000000010952 .LASF3975
C:\Users\SOLDER~1\AppData\Local\Temp\ccmjpsKj.s:20934  .debug_str:0000000000000974 .LASF3976
C:\Users\SOLDER~1\AppData\Local\Temp\ccmjpsKj.s:22488  .debug_str:0000000000006d1c .LASF3977
C:\Users\SOLDER~1\AppData\Local\Temp\ccmjpsKj.s:32338  .debug_str:000000000002eb7d .LASF3978
C:\Users\SOLDER~1\AppData\Local\Temp\ccmjpsKj.s:23356  .debug_str:000000000000a5d0 .LASF3979
C:\Users\SOLDER~1\AppData\Local\Temp\ccmjpsKj.s:26470  .debug_str:0000000000016fd2 .LASF3980
C:\Users\SOLDER~1\AppData\Local\Temp\ccmjpsKj.s:30438  .debug_str:0000000000027102 .LASF3981
C:\Users\SOLDER~1\AppData\Local\Temp\ccmjpsKj.s:27514  .debug_str:000000000001b374 .LASF3982
C:\Users\SOLDER~1\AppData\Local\Temp\ccmjpsKj.s:30880  .debug_str:0000000000028de7 .LASF3983
C:\Users\SOLDER~1\AppData\Local\Temp\ccmjpsKj.s:26640  .debug_str:0000000000017b1b .LASF3984
C:\Users\SOLDER~1\AppData\Local\Temp\ccmjpsKj.s:30430  .debug_str:000000000002707d .LASF3985
C:\Users\SOLDER~1\AppData\Local\Temp\ccmjpsKj.s:32404  .debug_str:000000000002efea .LASF3986
GAS LISTING C:\Users\SOLDER~1\AppData\Local\Temp\ccmjpsKj.s 			page 123


C:\Users\SOLDER~1\AppData\Local\Temp\ccmjpsKj.s:24136  .debug_str:000000000000d939 .LASF3987
C:\Users\SOLDER~1\AppData\Local\Temp\ccmjpsKj.s:28126  .debug_str:000000000001db36 .LASF3988
C:\Users\SOLDER~1\AppData\Local\Temp\ccmjpsKj.s:22614  .debug_str:000000000000759d .LASF3989
C:\Users\SOLDER~1\AppData\Local\Temp\ccmjpsKj.s:30296  .debug_str:00000000000267d2 .LASF3990
C:\Users\SOLDER~1\AppData\Local\Temp\ccmjpsKj.s:21782  .debug_str:0000000000003fe6 .LASF3991
C:\Users\SOLDER~1\AppData\Local\Temp\ccmjpsKj.s:29726  .debug_str:0000000000024222 .LASF3992
C:\Users\SOLDER~1\AppData\Local\Temp\ccmjpsKj.s:23012  .debug_str:0000000000008f1b .LASF3993
C:\Users\SOLDER~1\AppData\Local\Temp\ccmjpsKj.s:23604  .debug_str:000000000000b63a .LASF3994
C:\Users\SOLDER~1\AppData\Local\Temp\ccmjpsKj.s:23892  .debug_str:000000000000c8ed .LASF3995
C:\Users\SOLDER~1\AppData\Local\Temp\ccmjpsKj.s:29806  .debug_str:0000000000024759 .LASF3996
C:\Users\SOLDER~1\AppData\Local\Temp\ccmjpsKj.s:31432  .debug_str:000000000002b127 .LASF3997
C:\Users\SOLDER~1\AppData\Local\Temp\ccmjpsKj.s:32140  .debug_str:000000000002ded1 .LASF3998
C:\Users\SOLDER~1\AppData\Local\Temp\ccmjpsKj.s:25390  .debug_str:00000000000129e5 .LASF3999
C:\Users\SOLDER~1\AppData\Local\Temp\ccmjpsKj.s:25874  .debug_str:0000000000014a6d .LASF4000
C:\Users\SOLDER~1\AppData\Local\Temp\ccmjpsKj.s:30646  .debug_str:0000000000027e76 .LASF4001
C:\Users\SOLDER~1\AppData\Local\Temp\ccmjpsKj.s:32256  .debug_str:000000000002e641 .LASF4002
C:\Users\SOLDER~1\AppData\Local\Temp\ccmjpsKj.s:21352  .debug_str:00000000000024ad .LASF4003
C:\Users\SOLDER~1\AppData\Local\Temp\ccmjpsKj.s:26338  .debug_str:00000000000167f2 .LASF4004
C:\Users\SOLDER~1\AppData\Local\Temp\ccmjpsKj.s:29742  .debug_str:000000000002431e .LASF4005
C:\Users\SOLDER~1\AppData\Local\Temp\ccmjpsKj.s:30998  .debug_str:000000000002952e .LASF4006
C:\Users\SOLDER~1\AppData\Local\Temp\ccmjpsKj.s:22124  .debug_str:00000000000054ed .LASF4007
C:\Users\SOLDER~1\AppData\Local\Temp\ccmjpsKj.s:22804  .debug_str:00000000000081d3 .LASF4008
C:\Users\SOLDER~1\AppData\Local\Temp\ccmjpsKj.s:21044  .debug_str:00000000000010c5 .LASF4009
C:\Users\SOLDER~1\AppData\Local\Temp\ccmjpsKj.s:30850  .debug_str:0000000000028bfd .LASF4010
C:\Users\SOLDER~1\AppData\Local\Temp\ccmjpsKj.s:21010  .debug_str:0000000000000eb5 .LASF4011
C:\Users\SOLDER~1\AppData\Local\Temp\ccmjpsKj.s:31344  .debug_str:000000000002abad .LASF4012
C:\Users\SOLDER~1\AppData\Local\Temp\ccmjpsKj.s:30872  .debug_str:0000000000028d5a .LASF4013
C:\Users\SOLDER~1\AppData\Local\Temp\ccmjpsKj.s:27288  .debug_str:000000000001a4bf .LASF4014
C:\Users\SOLDER~1\AppData\Local\Temp\ccmjpsKj.s:23408  .debug_str:000000000000a96e .LASF4015
C:\Users\SOLDER~1\AppData\Local\Temp\ccmjpsKj.s:21264  .debug_str:0000000000001ee1 .LASF4016
C:\Users\SOLDER~1\AppData\Local\Temp\ccmjpsKj.s:31934  .debug_str:000000000002d192 .LASF4017
C:\Users\SOLDER~1\AppData\Local\Temp\ccmjpsKj.s:29152  .debug_str:0000000000021d64 .LASF4018
C:\Users\SOLDER~1\AppData\Local\Temp\ccmjpsKj.s:20860  .debug_str:00000000000003ea .LASF4019
C:\Users\SOLDER~1\AppData\Local\Temp\ccmjpsKj.s:23856  .debug_str:000000000000c68a .LASF4020
C:\Users\SOLDER~1\AppData\Local\Temp\ccmjpsKj.s:23686  .debug_str:000000000000baea .LASF4021
C:\Users\SOLDER~1\AppData\Local\Temp\ccmjpsKj.s:29784  .debug_str:00000000000245e1 .LASF4022
C:\Users\SOLDER~1\AppData\Local\Temp\ccmjpsKj.s:30148  .debug_str:0000000000025daf .LASF4023
C:\Users\SOLDER~1\AppData\Local\Temp\ccmjpsKj.s:30782  .debug_str:0000000000028777 .LASF4024
C:\Users\SOLDER~1\AppData\Local\Temp\ccmjpsKj.s:21818  .debug_str:0000000000004248 .LASF4025
C:\Users\SOLDER~1\AppData\Local\Temp\ccmjpsKj.s:28418  .debug_str:000000000001ee27 .LASF4026
C:\Users\SOLDER~1\AppData\Local\Temp\ccmjpsKj.s:25974  .debug_str:0000000000015118 .LASF4027
C:\Users\SOLDER~1\AppData\Local\Temp\ccmjpsKj.s:32318  .debug_str:000000000002ea27 .LASF4028
C:\Users\SOLDER~1\AppData\Local\Temp\ccmjpsKj.s:21674  .debug_str:000000000000392d .LASF4029
C:\Users\SOLDER~1\AppData\Local\Temp\ccmjpsKj.s:27634  .debug_str:000000000001bae9 .LASF4030
C:\Users\SOLDER~1\AppData\Local\Temp\ccmjpsKj.s:30320  .debug_str:0000000000026941 .LASF4031
C:\Users\SOLDER~1\AppData\Local\Temp\ccmjpsKj.s:31364  .debug_str:000000000002acc1 .LASF4032
C:\Users\SOLDER~1\AppData\Local\Temp\ccmjpsKj.s:29520  .debug_str:0000000000023496 .LASF4033
C:\Users\SOLDER~1\AppData\Local\Temp\ccmjpsKj.s:23690  .debug_str:000000000000bb30 .LASF4034
C:\Users\SOLDER~1\AppData\Local\Temp\ccmjpsKj.s:31198  .debug_str:000000000002a22a .LASF4035
C:\Users\SOLDER~1\AppData\Local\Temp\ccmjpsKj.s:23146  .debug_str:00000000000097f4 .LASF4036
C:\Users\SOLDER~1\AppData\Local\Temp\ccmjpsKj.s:21992  .debug_str:0000000000004d40 .LASF4037
C:\Users\SOLDER~1\AppData\Local\Temp\ccmjpsKj.s:26802  .debug_str:00000000000185cf .LASF4038
C:\Users\SOLDER~1\AppData\Local\Temp\ccmjpsKj.s:22888  .debug_str:00000000000086f5 .LASF4039
C:\Users\SOLDER~1\AppData\Local\Temp\ccmjpsKj.s:28928  .debug_str:0000000000020f26 .LASF4040
C:\Users\SOLDER~1\AppData\Local\Temp\ccmjpsKj.s:32062  .debug_str:000000000002d9dd .LASF4041
C:\Users\SOLDER~1\AppData\Local\Temp\ccmjpsKj.s:24510  .debug_str:000000000000f13e .LASF4042
C:\Users\SOLDER~1\AppData\Local\Temp\ccmjpsKj.s:32170  .debug_str:000000000002e0d2 .LASF4043
GAS LISTING C:\Users\SOLDER~1\AppData\Local\Temp\ccmjpsKj.s 			page 124


C:\Users\SOLDER~1\AppData\Local\Temp\ccmjpsKj.s:28694  .debug_str:0000000000020010 .LASF4044
C:\Users\SOLDER~1\AppData\Local\Temp\ccmjpsKj.s:22186  .debug_str:000000000000590e .LASF4045
C:\Users\SOLDER~1\AppData\Local\Temp\ccmjpsKj.s:28134  .debug_str:000000000001db78 .LASF4046
C:\Users\SOLDER~1\AppData\Local\Temp\ccmjpsKj.s:22178  .debug_str:0000000000005881 .LASF4047
C:\Users\SOLDER~1\AppData\Local\Temp\ccmjpsKj.s:29994  .debug_str:00000000000253c5 .LASF4048
C:\Users\SOLDER~1\AppData\Local\Temp\ccmjpsKj.s:25064  .debug_str:0000000000011534 .LASF4049
C:\Users\SOLDER~1\AppData\Local\Temp\ccmjpsKj.s:25642  .debug_str:0000000000013a55 .LASF4050
C:\Users\SOLDER~1\AppData\Local\Temp\ccmjpsKj.s:21480  .debug_str:0000000000002cad .LASF4051
C:\Users\SOLDER~1\AppData\Local\Temp\ccmjpsKj.s:25758  .debug_str:00000000000142a4 .LASF4052
C:\Users\SOLDER~1\AppData\Local\Temp\ccmjpsKj.s:24848  .debug_str:0000000000010779 .LASF4053
C:\Users\SOLDER~1\AppData\Local\Temp\ccmjpsKj.s:25038  .debug_str:000000000001139f .LASF4054
C:\Users\SOLDER~1\AppData\Local\Temp\ccmjpsKj.s:29384  .debug_str:0000000000022bfc .LASF4055
C:\Users\SOLDER~1\AppData\Local\Temp\ccmjpsKj.s:24956  .debug_str:0000000000010e49 .LASF4056
C:\Users\SOLDER~1\AppData\Local\Temp\ccmjpsKj.s:21576  .debug_str:00000000000032db .LASF4057
C:\Users\SOLDER~1\AppData\Local\Temp\ccmjpsKj.s:25500  .debug_str:0000000000013101 .LASF4058
C:\Users\SOLDER~1\AppData\Local\Temp\ccmjpsKj.s:25414  .debug_str:0000000000012b3e .LASF4059
C:\Users\SOLDER~1\AppData\Local\Temp\ccmjpsKj.s:23048  .debug_str:00000000000091c1 .LASF4060
C:\Users\SOLDER~1\AppData\Local\Temp\ccmjpsKj.s:22270  .debug_str:0000000000005e84 .LASF4061
C:\Users\SOLDER~1\AppData\Local\Temp\ccmjpsKj.s:28924  .debug_str:0000000000020efc .LASF4062
C:\Users\SOLDER~1\AppData\Local\Temp\ccmjpsKj.s:26582  .debug_str:0000000000017772 .LASF4063
C:\Users\SOLDER~1\AppData\Local\Temp\ccmjpsKj.s:28802  .debug_str:00000000000206f3 .LASF4064
C:\Users\SOLDER~1\AppData\Local\Temp\ccmjpsKj.s:29190  .debug_str:0000000000021fc0 .LASF4065
C:\Users\SOLDER~1\AppData\Local\Temp\ccmjpsKj.s:29392  .debug_str:0000000000022c8d .LASF4066
C:\Users\SOLDER~1\AppData\Local\Temp\ccmjpsKj.s:25370  .debug_str:00000000000128a1 .LASF4067
C:\Users\SOLDER~1\AppData\Local\Temp\ccmjpsKj.s:29530  .debug_str:0000000000023545 .LASF4068
C:\Users\SOLDER~1\AppData\Local\Temp\ccmjpsKj.s:22320  .debug_str:00000000000061eb .LASF4069
C:\Users\SOLDER~1\AppData\Local\Temp\ccmjpsKj.s:29676  .debug_str:0000000000023eca .LASF4070
C:\Users\SOLDER~1\AppData\Local\Temp\ccmjpsKj.s:26872  .debug_str:0000000000018a44 .LASF4071
C:\Users\SOLDER~1\AppData\Local\Temp\ccmjpsKj.s:29168  .debug_str:0000000000021e61 .LASF4072
C:\Users\SOLDER~1\AppData\Local\Temp\ccmjpsKj.s:21312  .debug_str:000000000000220c .LASF4073
C:\Users\SOLDER~1\AppData\Local\Temp\ccmjpsKj.s:30306  .debug_str:0000000000026868 .LASF4074
C:\Users\SOLDER~1\AppData\Local\Temp\ccmjpsKj.s:29276  .debug_str:00000000000224c2 .LASF4075
C:\Users\SOLDER~1\AppData\Local\Temp\ccmjpsKj.s:25492  .debug_str:0000000000013075 .LASF4076
C:\Users\SOLDER~1\AppData\Local\Temp\ccmjpsKj.s:30104  .debug_str:0000000000025aaf .LASF4077
C:\Users\SOLDER~1\AppData\Local\Temp\ccmjpsKj.s:21720  .debug_str:0000000000003c29 .LASF4078
C:\Users\SOLDER~1\AppData\Local\Temp\ccmjpsKj.s:24666  .debug_str:000000000000fb6e .LASF4079
C:\Users\SOLDER~1\AppData\Local\Temp\ccmjpsKj.s:23572  .debug_str:000000000000b3fd .LASF4080
C:\Users\SOLDER~1\AppData\Local\Temp\ccmjpsKj.s:21986  .debug_str:0000000000004cdb .LASF4081
C:\Users\SOLDER~1\AppData\Local\Temp\ccmjpsKj.s:30642  .debug_str:0000000000027e3e .LASF4082
C:\Users\SOLDER~1\AppData\Local\Temp\ccmjpsKj.s:23150  .debug_str:000000000000982b .LASF4083
C:\Users\SOLDER~1\AppData\Local\Temp\ccmjpsKj.s:31664  .debug_str:000000000002c009 .LASF4084
C:\Users\SOLDER~1\AppData\Local\Temp\ccmjpsKj.s:29528  .debug_str:0000000000023528 .LASF4085
C:\Users\SOLDER~1\AppData\Local\Temp\ccmjpsKj.s:30820  .debug_str:00000000000289dc .LASF4086
C:\Users\SOLDER~1\AppData\Local\Temp\ccmjpsKj.s:27794  .debug_str:000000000001c555 .LASF4087
C:\Users\SOLDER~1\AppData\Local\Temp\ccmjpsKj.s:25914  .debug_str:0000000000014d21 .LASF4088
C:\Users\SOLDER~1\AppData\Local\Temp\ccmjpsKj.s:21802  .debug_str:0000000000004133 .LASF4089
C:\Users\SOLDER~1\AppData\Local\Temp\ccmjpsKj.s:27586  .debug_str:000000000001b7f8 .LASF4090
C:\Users\SOLDER~1\AppData\Local\Temp\ccmjpsKj.s:31570  .debug_str:000000000002ba19 .LASF4091
C:\Users\SOLDER~1\AppData\Local\Temp\ccmjpsKj.s:32428  .debug_str:000000000002f152 .LASF4092
C:\Users\SOLDER~1\AppData\Local\Temp\ccmjpsKj.s:23434  .debug_str:000000000000ab46 .LASF4093
C:\Users\SOLDER~1\AppData\Local\Temp\ccmjpsKj.s:31880  .debug_str:000000000002ce25 .LASF4094
C:\Users\SOLDER~1\AppData\Local\Temp\ccmjpsKj.s:32132  .debug_str:000000000002de4c .LASF4095
C:\Users\SOLDER~1\AppData\Local\Temp\ccmjpsKj.s:26790  .debug_str:0000000000018515 .LASF4096
C:\Users\SOLDER~1\AppData\Local\Temp\ccmjpsKj.s:21132  .debug_str:0000000000001674 .LASF4097
C:\Users\SOLDER~1\AppData\Local\Temp\ccmjpsKj.s:23504  .debug_str:000000000000afae .LASF4098
C:\Users\SOLDER~1\AppData\Local\Temp\ccmjpsKj.s:21768  .debug_str:0000000000003f40 .LASF4099
C:\Users\SOLDER~1\AppData\Local\Temp\ccmjpsKj.s:27590  .debug_str:000000000001b832 .LASF4100
GAS LISTING C:\Users\SOLDER~1\AppData\Local\Temp\ccmjpsKj.s 			page 125


C:\Users\SOLDER~1\AppData\Local\Temp\ccmjpsKj.s:31424  .debug_str:000000000002b0a7 .LASF4101
C:\Users\SOLDER~1\AppData\Local\Temp\ccmjpsKj.s:25952  .debug_str:0000000000014fb2 .LASF4102
C:\Users\SOLDER~1\AppData\Local\Temp\ccmjpsKj.s:21936  .debug_str:00000000000049c0 .LASF4103
C:\Users\SOLDER~1\AppData\Local\Temp\ccmjpsKj.s:24168  .debug_str:000000000000db1f .LASF4104
C:\Users\SOLDER~1\AppData\Local\Temp\ccmjpsKj.s:23350  .debug_str:000000000000a57e .LASF4105
C:\Users\SOLDER~1\AppData\Local\Temp\ccmjpsKj.s:23270  .debug_str:000000000000a01d .LASF4106
C:\Users\SOLDER~1\AppData\Local\Temp\ccmjpsKj.s:32056  .debug_str:000000000002d96a .LASF4107
C:\Users\SOLDER~1\AppData\Local\Temp\ccmjpsKj.s:26930  .debug_str:0000000000018e03 .LASF4108
C:\Users\SOLDER~1\AppData\Local\Temp\ccmjpsKj.s:32312  .debug_str:000000000002e9c7 .LASF4109
C:\Users\SOLDER~1\AppData\Local\Temp\ccmjpsKj.s:21776  .debug_str:0000000000003fb1 .LASF4110
C:\Users\SOLDER~1\AppData\Local\Temp\ccmjpsKj.s:29332  .debug_str:000000000002287b .LASF4111
C:\Users\SOLDER~1\AppData\Local\Temp\ccmjpsKj.s:24866  .debug_str:000000000001088f .LASF4112
C:\Users\SOLDER~1\AppData\Local\Temp\ccmjpsKj.s:26880  .debug_str:0000000000018abd .LASF4113
C:\Users\SOLDER~1\AppData\Local\Temp\ccmjpsKj.s:29074  .debug_str:00000000000218a9 .LASF4114
C:\Users\SOLDER~1\AppData\Local\Temp\ccmjpsKj.s:27114  .debug_str:0000000000019a1f .LASF4115
C:\Users\SOLDER~1\AppData\Local\Temp\ccmjpsKj.s:24328  .debug_str:000000000000e5ba .LASF4116
C:\Users\SOLDER~1\AppData\Local\Temp\ccmjpsKj.s:32084  .debug_str:000000000002db56 .LASF4117
C:\Users\SOLDER~1\AppData\Local\Temp\ccmjpsKj.s:23206  .debug_str:0000000000009bc8 .LASF4118
C:\Users\SOLDER~1\AppData\Local\Temp\ccmjpsKj.s:22508  .debug_str:0000000000006e83 .LASF4119
C:\Users\SOLDER~1\AppData\Local\Temp\ccmjpsKj.s:30564  .debug_str:000000000002795f .LASF4120
C:\Users\SOLDER~1\AppData\Local\Temp\ccmjpsKj.s:25006  .debug_str:000000000001117c .LASF4121
C:\Users\SOLDER~1\AppData\Local\Temp\ccmjpsKj.s:22106  .debug_str:00000000000053e3 .LASF4122
C:\Users\SOLDER~1\AppData\Local\Temp\ccmjpsKj.s:22442  .debug_str:0000000000006a45 .LASF4123
C:\Users\SOLDER~1\AppData\Local\Temp\ccmjpsKj.s:26196  .debug_str:0000000000015ece .LASF4124
C:\Users\SOLDER~1\AppData\Local\Temp\ccmjpsKj.s:23588  .debug_str:000000000000b518 .LASF4125
C:\Users\SOLDER~1\AppData\Local\Temp\ccmjpsKj.s:21242  .debug_str:0000000000001d90 .LASF4126
C:\Users\SOLDER~1\AppData\Local\Temp\ccmjpsKj.s:25992  .debug_str:0000000000015231 .LASF4127
C:\Users\SOLDER~1\AppData\Local\Temp\ccmjpsKj.s:23736  .debug_str:000000000000be2f .LASF4128
C:\Users\SOLDER~1\AppData\Local\Temp\ccmjpsKj.s:31192  .debug_str:000000000002a1d5 .LASF4129
C:\Users\SOLDER~1\AppData\Local\Temp\ccmjpsKj.s:21408  .debug_str:0000000000002841 .LASF4130
C:\Users\SOLDER~1\AppData\Local\Temp\ccmjpsKj.s:23384  .debug_str:000000000000a7f3 .LASF4131
C:\Users\SOLDER~1\AppData\Local\Temp\ccmjpsKj.s:28172  .debug_str:000000000001ddf3 .LASF4132
C:\Users\SOLDER~1\AppData\Local\Temp\ccmjpsKj.s:24020  .debug_str:000000000000d1b1 .LASF4133
C:\Users\SOLDER~1\AppData\Local\Temp\ccmjpsKj.s:22146  .debug_str:0000000000005631 .LASF4134
C:\Users\SOLDER~1\AppData\Local\Temp\ccmjpsKj.s:24796  .debug_str:00000000000103f0 .LASF4135
C:\Users\SOLDER~1\AppData\Local\Temp\ccmjpsKj.s:30538  .debug_str:00000000000277a6 .LASF4136
C:\Users\SOLDER~1\AppData\Local\Temp\ccmjpsKj.s:29560  .debug_str:000000000002378a .LASF4137
C:\Users\SOLDER~1\AppData\Local\Temp\ccmjpsKj.s:32368  .debug_str:000000000002ed98 .LASF4138
C:\Users\SOLDER~1\AppData\Local\Temp\ccmjpsKj.s:25878  .debug_str:0000000000014aa5 .LASF4139
C:\Users\SOLDER~1\AppData\Local\Temp\ccmjpsKj.s:22642  .debug_str:000000000000774f .LASF4140
C:\Users\SOLDER~1\AppData\Local\Temp\ccmjpsKj.s:29628  .debug_str:0000000000023bee .LASF4141
C:\Users\SOLDER~1\AppData\Local\Temp\ccmjpsKj.s:22800  .debug_str:00000000000081a2 .LASF4142
C:\Users\SOLDER~1\AppData\Local\Temp\ccmjpsKj.s:31224  .debug_str:000000000002a3da .LASF4143
C:\Users\SOLDER~1\AppData\Local\Temp\ccmjpsKj.s:29780  .debug_str:00000000000245b5 .LASF4144
C:\Users\SOLDER~1\AppData\Local\Temp\ccmjpsKj.s:26028  .debug_str:0000000000015470 .LASF4145
C:\Users\SOLDER~1\AppData\Local\Temp\ccmjpsKj.s:24314  .debug_str:000000000000e4d0 .LASF4146
C:\Users\SOLDER~1\AppData\Local\Temp\ccmjpsKj.s:29362  .debug_str:0000000000022a7a .LASF4147
C:\Users\SOLDER~1\AppData\Local\Temp\ccmjpsKj.s:29562  .debug_str:000000000002379d .LASF4148
C:\Users\SOLDER~1\AppData\Local\Temp\ccmjpsKj.s:21510  .debug_str:0000000000002ea9 .LASF4149
C:\Users\SOLDER~1\AppData\Local\Temp\ccmjpsKj.s:28814  .debug_str:00000000000207cd .LASF4150
C:\Users\SOLDER~1\AppData\Local\Temp\ccmjpsKj.s:31656  .debug_str:000000000002bf77 .LASF4151
C:\Users\SOLDER~1\AppData\Local\Temp\ccmjpsKj.s:29048  .debug_str:00000000000216e6 .LASF4152
C:\Users\SOLDER~1\AppData\Local\Temp\ccmjpsKj.s:27732  .debug_str:000000000001c12b .LASF4153
C:\Users\SOLDER~1\AppData\Local\Temp\ccmjpsKj.s:21954  .debug_str:0000000000004ab6 .LASF4154
C:\Users\SOLDER~1\AppData\Local\Temp\ccmjpsKj.s:21370  .debug_str:00000000000025de .LASF4155
C:\Users\SOLDER~1\AppData\Local\Temp\ccmjpsKj.s:23466  .debug_str:000000000000ad1e .LASF4156
C:\Users\SOLDER~1\AppData\Local\Temp\ccmjpsKj.s:26864  .debug_str:00000000000189c5 .LASF4157
GAS LISTING C:\Users\SOLDER~1\AppData\Local\Temp\ccmjpsKj.s 			page 126


C:\Users\SOLDER~1\AppData\Local\Temp\ccmjpsKj.s:31298  .debug_str:000000000002a8c2 .LASF4158
C:\Users\SOLDER~1\AppData\Local\Temp\ccmjpsKj.s:29278  .debug_str:00000000000224dd .LASF4159
C:\Users\SOLDER~1\AppData\Local\Temp\ccmjpsKj.s:27144  .debug_str:0000000000019be6 .LASF4160
C:\Users\SOLDER~1\AppData\Local\Temp\ccmjpsKj.s:21404  .debug_str:00000000000027fd .LASF4161
C:\Users\SOLDER~1\AppData\Local\Temp\ccmjpsKj.s:25332  .debug_str:0000000000012618 .LASF4162
C:\Users\SOLDER~1\AppData\Local\Temp\ccmjpsKj.s:28798  .debug_str:00000000000206b3 .LASF4163
C:\Users\SOLDER~1\AppData\Local\Temp\ccmjpsKj.s:26354  .debug_str:00000000000168da .LASF4164
C:\Users\SOLDER~1\AppData\Local\Temp\ccmjpsKj.s:23412  .debug_str:000000000000a9b8 .LASF4165
C:\Users\SOLDER~1\AppData\Local\Temp\ccmjpsKj.s:29604  .debug_str:0000000000023a70 .LASF4166
C:\Users\SOLDER~1\AppData\Local\Temp\ccmjpsKj.s:23296  .debug_str:000000000000a1e2 .LASF4167
C:\Users\SOLDER~1\AppData\Local\Temp\ccmjpsKj.s:30694  .debug_str:00000000000281c8 .LASF4168
C:\Users\SOLDER~1\AppData\Local\Temp\ccmjpsKj.s:28452  .debug_str:000000000001f056 .LASF4169
C:\Users\SOLDER~1\AppData\Local\Temp\ccmjpsKj.s:31620  .debug_str:000000000002bd58 .LASF4170
C:\Users\SOLDER~1\AppData\Local\Temp\ccmjpsKj.s:27682  .debug_str:000000000001be02 .LASF4171
C:\Users\SOLDER~1\AppData\Local\Temp\ccmjpsKj.s:30914  .debug_str:0000000000028fc8 .LASF4172
C:\Users\SOLDER~1\AppData\Local\Temp\ccmjpsKj.s:32014  .debug_str:000000000002d6f4 .LASF4173
C:\Users\SOLDER~1\AppData\Local\Temp\ccmjpsKj.s:22030  .debug_str:0000000000004f75 .LASF4174
C:\Users\SOLDER~1\AppData\Local\Temp\ccmjpsKj.s:32260  .debug_str:000000000002e66c .LASF4175
C:\Users\SOLDER~1\AppData\Local\Temp\ccmjpsKj.s:28590  .debug_str:000000000001f9ad .LASF4176
C:\Users\SOLDER~1\AppData\Local\Temp\ccmjpsKj.s:30576  .debug_str:0000000000027a2d .LASF4177
C:\Users\SOLDER~1\AppData\Local\Temp\ccmjpsKj.s:30078  .debug_str:0000000000025912 .LASF4178
C:\Users\SOLDER~1\AppData\Local\Temp\ccmjpsKj.s:24576  .debug_str:000000000000f537 .LASF4179
C:\Users\SOLDER~1\AppData\Local\Temp\ccmjpsKj.s:27212  .debug_str:000000000001a005 .LASF4180
C:\Users\SOLDER~1\AppData\Local\Temp\ccmjpsKj.s:22266  .debug_str:0000000000005e41 .LASF4181
C:\Users\SOLDER~1\AppData\Local\Temp\ccmjpsKj.s:21880  .debug_str:0000000000004604 .LASF4182
C:\Users\SOLDER~1\AppData\Local\Temp\ccmjpsKj.s:22540  .debug_str:00000000000070d4 .LASF4183
C:\Users\SOLDER~1\AppData\Local\Temp\ccmjpsKj.s:26108  .debug_str:00000000000159bd .LASF4184
C:\Users\SOLDER~1\AppData\Local\Temp\ccmjpsKj.s:25766  .debug_str:000000000001430c .LASF4185
C:\Users\SOLDER~1\AppData\Local\Temp\ccmjpsKj.s:32154  .debug_str:000000000002dfb2 .LASF4186
C:\Users\SOLDER~1\AppData\Local\Temp\ccmjpsKj.s:29166  .debug_str:0000000000021e45 .LASF4187
C:\Users\SOLDER~1\AppData\Local\Temp\ccmjpsKj.s:22750  .debug_str:0000000000007e1c .LASF4188
C:\Users\SOLDER~1\AppData\Local\Temp\ccmjpsKj.s:28376  .debug_str:000000000001eb41 .LASF4189
C:\Users\SOLDER~1\AppData\Local\Temp\ccmjpsKj.s:22648  .debug_str:00000000000077a1 .LASF4190
C:\Users\SOLDER~1\AppData\Local\Temp\ccmjpsKj.s:22438  .debug_str:0000000000006a0b .LASF4191
C:\Users\SOLDER~1\AppData\Local\Temp\ccmjpsKj.s:30962  .debug_str:00000000000292c4 .LASF4192
C:\Users\SOLDER~1\AppData\Local\Temp\ccmjpsKj.s:21294  .debug_str:00000000000020ca .LASF4193
C:\Users\SOLDER~1\AppData\Local\Temp\ccmjpsKj.s:30038  .debug_str:0000000000025686 .LASF4194
C:\Users\SOLDER~1\AppData\Local\Temp\ccmjpsKj.s:23914  .debug_str:000000000000ca80 .LASF4195
C:\Users\SOLDER~1\AppData\Local\Temp\ccmjpsKj.s:27654  .debug_str:000000000001bc0b .LASF4196
C:\Users\SOLDER~1\AppData\Local\Temp\ccmjpsKj.s:20928  .debug_str:0000000000000916 .LASF4197
C:\Users\SOLDER~1\AppData\Local\Temp\ccmjpsKj.s:25750  .debug_str:000000000001420d .LASF4198
C:\Users\SOLDER~1\AppData\Local\Temp\ccmjpsKj.s:25732  .debug_str:00000000000140d3 .LASF4199
C:\Users\SOLDER~1\AppData\Local\Temp\ccmjpsKj.s:23428  .debug_str:000000000000aae6 .LASF4200
C:\Users\SOLDER~1\AppData\Local\Temp\ccmjpsKj.s:28202  .debug_str:000000000001e002 .LASF4201
C:\Users\SOLDER~1\AppData\Local\Temp\ccmjpsKj.s:23530  .debug_str:000000000000b169 .LASF4202
C:\Users\SOLDER~1\AppData\Local\Temp\ccmjpsKj.s:24900  .debug_str:0000000000010ab6 .LASF4203
C:\Users\SOLDER~1\AppData\Local\Temp\ccmjpsKj.s:23432  .debug_str:000000000000ab28 .LASF4204
C:\Users\SOLDER~1\AppData\Local\Temp\ccmjpsKj.s:25710  .debug_str:0000000000013f45 .LASF4205
C:\Users\SOLDER~1\AppData\Local\Temp\ccmjpsKj.s:27026  .debug_str:0000000000019439 .LASF4206
C:\Users\SOLDER~1\AppData\Local\Temp\ccmjpsKj.s:22330  .debug_str:0000000000006294 .LASF4207
C:\Users\SOLDER~1\AppData\Local\Temp\ccmjpsKj.s:25588  .debug_str:00000000000136bb .LASF4208
C:\Users\SOLDER~1\AppData\Local\Temp\ccmjpsKj.s:22882  .debug_str:0000000000008675 .LASF4209
C:\Users\SOLDER~1\AppData\Local\Temp\ccmjpsKj.s:31072  .debug_str:0000000000029a20 .LASF4210
C:\Users\SOLDER~1\AppData\Local\Temp\ccmjpsKj.s:31070  .debug_str:0000000000029a02 .LASF4211
C:\Users\SOLDER~1\AppData\Local\Temp\ccmjpsKj.s:21192  .debug_str:0000000000001a1f .LASF4212
C:\Users\SOLDER~1\AppData\Local\Temp\ccmjpsKj.s:29000  .debug_str:00000000000213f6 .LASF4213
C:\Users\SOLDER~1\AppData\Local\Temp\ccmjpsKj.s:30610  .debug_str:0000000000027c4c .LASF4214
GAS LISTING C:\Users\SOLDER~1\AppData\Local\Temp\ccmjpsKj.s 			page 127


C:\Users\SOLDER~1\AppData\Local\Temp\ccmjpsKj.s:22850  .debug_str:000000000000849d .LASF4215
C:\Users\SOLDER~1\AppData\Local\Temp\ccmjpsKj.s:26134  .debug_str:0000000000015afa .LASF4216
C:\Users\SOLDER~1\AppData\Local\Temp\ccmjpsKj.s:26568  .debug_str:000000000001767c .LASF4217
C:\Users\SOLDER~1\AppData\Local\Temp\ccmjpsKj.s:20848  .debug_str:0000000000000317 .LASF4218
C:\Users\SOLDER~1\AppData\Local\Temp\ccmjpsKj.s:25868  .debug_str:0000000000014a16 .LASF4219
C:\Users\SOLDER~1\AppData\Local\Temp\ccmjpsKj.s:30838  .debug_str:0000000000028b1c .LASF4220
C:\Users\SOLDER~1\AppData\Local\Temp\ccmjpsKj.s:31926  .debug_str:000000000002d109 .LASF4221
C:\Users\SOLDER~1\AppData\Local\Temp\ccmjpsKj.s:31172  .debug_str:000000000002a05d .LASF4222
C:\Users\SOLDER~1\AppData\Local\Temp\ccmjpsKj.s:28618  .debug_str:000000000001fb87 .LASF4223
C:\Users\SOLDER~1\AppData\Local\Temp\ccmjpsKj.s:31092  .debug_str:0000000000029b35 .LASF4224
C:\Users\SOLDER~1\AppData\Local\Temp\ccmjpsKj.s:26890  .debug_str:0000000000018b6c .LASF4225
C:\Users\SOLDER~1\AppData\Local\Temp\ccmjpsKj.s:24890  .debug_str:0000000000010a07 .LASF4226
C:\Users\SOLDER~1\AppData\Local\Temp\ccmjpsKj.s:23546  .debug_str:000000000000b23c .LASF4227
C:\Users\SOLDER~1\AppData\Local\Temp\ccmjpsKj.s:23618  .debug_str:000000000000b71b .LASF4228
C:\Users\SOLDER~1\AppData\Local\Temp\ccmjpsKj.s:26002  .debug_str:00000000000152ba .LASF4229
C:\Users\SOLDER~1\AppData\Local\Temp\ccmjpsKj.s:23488  .debug_str:000000000000aeb3 .LASF4230
C:\Users\SOLDER~1\AppData\Local\Temp\ccmjpsKj.s:22814  .debug_str:000000000000826c .LASF4231
C:\Users\SOLDER~1\AppData\Local\Temp\ccmjpsKj.s:27372  .debug_str:000000000001aa4f .LASF4232
C:\Users\SOLDER~1\AppData\Local\Temp\ccmjpsKj.s:24938  .debug_str:0000000000010d37 .LASF4233
C:\Users\SOLDER~1\AppData\Local\Temp\ccmjpsKj.s:31486  .debug_str:000000000002b4d8 .LASF4234
C:\Users\SOLDER~1\AppData\Local\Temp\ccmjpsKj.s:22828  .debug_str:0000000000008341 .LASF4235
C:\Users\SOLDER~1\AppData\Local\Temp\ccmjpsKj.s:25504  .debug_str:0000000000013126 .LASF4236
C:\Users\SOLDER~1\AppData\Local\Temp\ccmjpsKj.s:22400  .debug_str:000000000000674b .LASF4237
C:\Users\SOLDER~1\AppData\Local\Temp\ccmjpsKj.s:20894  .debug_str:0000000000000622 .LASF4238
C:\Users\SOLDER~1\AppData\Local\Temp\ccmjpsKj.s:21566  .debug_str:0000000000003243 .LASF4239
C:\Users\SOLDER~1\AppData\Local\Temp\ccmjpsKj.s:29770  .debug_str:000000000002450e .LASF4240
C:\Users\SOLDER~1\AppData\Local\Temp\ccmjpsKj.s:21536  .debug_str:000000000000305c .LASF4241
C:\Users\SOLDER~1\AppData\Local\Temp\ccmjpsKj.s:28682  .debug_str:000000000001ff57 .LASF4242
C:\Users\SOLDER~1\AppData\Local\Temp\ccmjpsKj.s:24476  .debug_str:000000000000ef00 .LASF4243
C:\Users\SOLDER~1\AppData\Local\Temp\ccmjpsKj.s:22598  .debug_str:0000000000007492 .LASF4244
C:\Users\SOLDER~1\AppData\Local\Temp\ccmjpsKj.s:28946  .debug_str:0000000000021074 .LASF4245
C:\Users\SOLDER~1\AppData\Local\Temp\ccmjpsKj.s:21472  .debug_str:0000000000002c1e .LASF4246
C:\Users\SOLDER~1\AppData\Local\Temp\ccmjpsKj.s:28520  .debug_str:000000000001f4da .LASF4247
C:\Users\SOLDER~1\AppData\Local\Temp\ccmjpsKj.s:24954  .debug_str:0000000000010e2d .LASF4248
C:\Users\SOLDER~1\AppData\Local\Temp\ccmjpsKj.s:21334  .debug_str:0000000000002368 .LASF4249
C:\Users\SOLDER~1\AppData\Local\Temp\ccmjpsKj.s:26102  .debug_str:0000000000015964 .LASF4250
C:\Users\SOLDER~1\AppData\Local\Temp\ccmjpsKj.s:28880  .debug_str:0000000000020c0a .LASF4251
C:\Users\SOLDER~1\AppData\Local\Temp\ccmjpsKj.s:31400  .debug_str:000000000002af1c .LASF4252
C:\Users\SOLDER~1\AppData\Local\Temp\ccmjpsKj.s:26666  .debug_str:0000000000017cce .LASF4253
C:\Users\SOLDER~1\AppData\Local\Temp\ccmjpsKj.s:26184  .debug_str:0000000000015e19 .LASF4254
C:\Users\SOLDER~1\AppData\Local\Temp\ccmjpsKj.s:24420  .debug_str:000000000000ebb0 .LASF4255
C:\Users\SOLDER~1\AppData\Local\Temp\ccmjpsKj.s:31096  .debug_str:0000000000029b71 .LASF4256
C:\Users\SOLDER~1\AppData\Local\Temp\ccmjpsKj.s:21796  .debug_str:00000000000040da .LASF4257
C:\Users\SOLDER~1\AppData\Local\Temp\ccmjpsKj.s:28940  .debug_str:0000000000020ff4 .LASF4258
C:\Users\SOLDER~1\AppData\Local\Temp\ccmjpsKj.s:22298  .debug_str:0000000000006048 .LASF4259
C:\Users\SOLDER~1\AppData\Local\Temp\ccmjpsKj.s:25186  .debug_str:0000000000011d0c .LASF4260
C:\Users\SOLDER~1\AppData\Local\Temp\ccmjpsKj.s:27024  .debug_str:000000000001941b .LASF4261
C:\Users\SOLDER~1\AppData\Local\Temp\ccmjpsKj.s:29854  .debug_str:0000000000024a9d .LASF4262
C:\Users\SOLDER~1\AppData\Local\Temp\ccmjpsKj.s:29110  .debug_str:0000000000021ae0 .LASF4263
C:\Users\SOLDER~1\AppData\Local\Temp\ccmjpsKj.s:30312  .debug_str:00000000000268b2 .LASF4264
C:\Users\SOLDER~1\AppData\Local\Temp\ccmjpsKj.s:30608  .debug_str:0000000000027c31 .LASF4265
C:\Users\SOLDER~1\AppData\Local\Temp\ccmjpsKj.s:31440  .debug_str:000000000002b1a3 .LASF4266
C:\Users\SOLDER~1\AppData\Local\Temp\ccmjpsKj.s:30908  .debug_str:0000000000028f77 .LASF4267
C:\Users\SOLDER~1\AppData\Local\Temp\ccmjpsKj.s:28098  .debug_str:000000000001d972 .LASF4268
C:\Users\SOLDER~1\AppData\Local\Temp\ccmjpsKj.s:21038  .debug_str:0000000000001065 .LASF4269
C:\Users\SOLDER~1\AppData\Local\Temp\ccmjpsKj.s:29022  .debug_str:000000000002156b .LASF4270
C:\Users\SOLDER~1\AppData\Local\Temp\ccmjpsKj.s:22802  .debug_str:00000000000081b6 .LASF4271
GAS LISTING C:\Users\SOLDER~1\AppData\Local\Temp\ccmjpsKj.s 			page 128


C:\Users\SOLDER~1\AppData\Local\Temp\ccmjpsKj.s:22050  .debug_str:00000000000050a7 .LASF4272
C:\Users\SOLDER~1\AppData\Local\Temp\ccmjpsKj.s:30494  .debug_str:00000000000274c2 .LASF4273
C:\Users\SOLDER~1\AppData\Local\Temp\ccmjpsKj.s:20902  .debug_str:0000000000000730 .LASF4274
C:\Users\SOLDER~1\AppData\Local\Temp\ccmjpsKj.s:30086  .debug_str:0000000000025978 .LASF4275
C:\Users\SOLDER~1\AppData\Local\Temp\ccmjpsKj.s:21844  .debug_str:00000000000043d3 .LASF4276
C:\Users\SOLDER~1\AppData\Local\Temp\ccmjpsKj.s:24134  .debug_str:000000000000d91c .LASF4277
C:\Users\SOLDER~1\AppData\Local\Temp\ccmjpsKj.s:22846  .debug_str:000000000000845c .LASF4278
C:\Users\SOLDER~1\AppData\Local\Temp\ccmjpsKj.s:31694  .debug_str:000000000002c20d .LASF4279
C:\Users\SOLDER~1\AppData\Local\Temp\ccmjpsKj.s:24998  .debug_str:00000000000110f8 .LASF4280
C:\Users\SOLDER~1\AppData\Local\Temp\ccmjpsKj.s:20858  .debug_str:00000000000003c9 .LASF4281
C:\Users\SOLDER~1\AppData\Local\Temp\ccmjpsKj.s:23126  .debug_str:00000000000096a0 .LASF4282
C:\Users\SOLDER~1\AppData\Local\Temp\ccmjpsKj.s:25870  .debug_str:0000000000014a29 .LASF4283
C:\Users\SOLDER~1\AppData\Local\Temp\ccmjpsKj.s:22594  .debug_str:0000000000007462 .LASF4284
C:\Users\SOLDER~1\AppData\Local\Temp\ccmjpsKj.s:23846  .debug_str:000000000000c5bd .LASF4285
C:\Users\SOLDER~1\AppData\Local\Temp\ccmjpsKj.s:26854  .debug_str:0000000000018932 .LASF4286
C:\Users\SOLDER~1\AppData\Local\Temp\ccmjpsKj.s:25780  .debug_str:00000000000143f8 .LASF4287
C:\Users\SOLDER~1\AppData\Local\Temp\ccmjpsKj.s:29212  .debug_str:0000000000022118 .LASF4288
C:\Users\SOLDER~1\AppData\Local\Temp\ccmjpsKj.s:28290  .debug_str:000000000001e593 .LASF4289
C:\Users\SOLDER~1\AppData\Local\Temp\ccmjpsKj.s:25002  .debug_str:000000000001113f .LASF4290
C:\Users\SOLDER~1\AppData\Local\Temp\ccmjpsKj.s:26066  .debug_str:0000000000015700 .LASF4291
C:\Users\SOLDER~1\AppData\Local\Temp\ccmjpsKj.s:21092  .debug_str:00000000000013de .LASF4292
C:\Users\SOLDER~1\AppData\Local\Temp\ccmjpsKj.s:27152  .debug_str:0000000000019c57 .LASF4293
C:\Users\SOLDER~1\AppData\Local\Temp\ccmjpsKj.s:27746  .debug_str:000000000001c20d .LASF4294
C:\Users\SOLDER~1\AppData\Local\Temp\ccmjpsKj.s:28930  .debug_str:0000000000020f38 .LASF4295
C:\Users\SOLDER~1\AppData\Local\Temp\ccmjpsKj.s:30478  .debug_str:00000000000273b1 .LASF4296
C:\Users\SOLDER~1\AppData\Local\Temp\ccmjpsKj.s:24442  .debug_str:000000000000eccd .LASF4297
C:\Users\SOLDER~1\AppData\Local\Temp\ccmjpsKj.s:25604  .debug_str:00000000000137bc .LASF4298
C:\Users\SOLDER~1\AppData\Local\Temp\ccmjpsKj.s:22114  .debug_str:000000000000545d .LASF4299
C:\Users\SOLDER~1\AppData\Local\Temp\ccmjpsKj.s:24212  .debug_str:000000000000ddd5 .LASF4300
C:\Users\SOLDER~1\AppData\Local\Temp\ccmjpsKj.s:22930  .debug_str:00000000000089ae .LASF4301
C:\Users\SOLDER~1\AppData\Local\Temp\ccmjpsKj.s:26774  .debug_str:0000000000018408 .LASF4302
C:\Users\SOLDER~1\AppData\Local\Temp\ccmjpsKj.s:32160  .debug_str:000000000002e007 .LASF4303
C:\Users\SOLDER~1\AppData\Local\Temp\ccmjpsKj.s:21314  .debug_str:0000000000002227 .LASF4304
C:\Users\SOLDER~1\AppData\Local\Temp\ccmjpsKj.s:26180  .debug_str:0000000000015dc9 .LASF4305
C:\Users\SOLDER~1\AppData\Local\Temp\ccmjpsKj.s:30276  .debug_str:000000000002667b .LASF4306
C:\Users\SOLDER~1\AppData\Local\Temp\ccmjpsKj.s:29974  .debug_str:0000000000025271 .LASF4307
C:\Users\SOLDER~1\AppData\Local\Temp\ccmjpsKj.s:28460  .debug_str:000000000001f0d0 .LASF4308
C:\Users\SOLDER~1\AppData\Local\Temp\ccmjpsKj.s:32280  .debug_str:000000000002e7aa .LASF4309
C:\Users\SOLDER~1\AppData\Local\Temp\ccmjpsKj.s:23732  .debug_str:000000000000bdfb .LASF4310
C:\Users\SOLDER~1\AppData\Local\Temp\ccmjpsKj.s:24752  .debug_str:000000000001014f .LASF4311
C:\Users\SOLDER~1\AppData\Local\Temp\ccmjpsKj.s:22162  .debug_str:000000000000573e .LASF4312
C:\Users\SOLDER~1\AppData\Local\Temp\ccmjpsKj.s:27640  .debug_str:000000000001bb30 .LASF4313
C:\Users\SOLDER~1\AppData\Local\Temp\ccmjpsKj.s:21166  .debug_str:00000000000018a4 .LASF4314
C:\Users\SOLDER~1\AppData\Local\Temp\ccmjpsKj.s:26348  .debug_str:0000000000016887 .LASF4315
C:\Users\SOLDER~1\AppData\Local\Temp\ccmjpsKj.s:25968  .debug_str:00000000000150b3 .LASF4316
C:\Users\SOLDER~1\AppData\Local\Temp\ccmjpsKj.s:31614  .debug_str:000000000002bce9 .LASF4317
C:\Users\SOLDER~1\AppData\Local\Temp\ccmjpsKj.s:26234  .debug_str:000000000001612f .LASF4318
C:\Users\SOLDER~1\AppData\Local\Temp\ccmjpsKj.s:22288  .debug_str:0000000000005f89 .LASF4319
C:\Users\SOLDER~1\AppData\Local\Temp\ccmjpsKj.s:31642  .debug_str:000000000002be8e .LASF4320
C:\Users\SOLDER~1\AppData\Local\Temp\ccmjpsKj.s:30690  .debug_str:0000000000028186 .LASF4321
C:\Users\SOLDER~1\AppData\Local\Temp\ccmjpsKj.s:29170  .debug_str:0000000000021e73 .LASF4322
C:\Users\SOLDER~1\AppData\Local\Temp\ccmjpsKj.s:31856  .debug_str:000000000002cca6 .LASF4323
C:\Users\SOLDER~1\AppData\Local\Temp\ccmjpsKj.s:21256  .debug_str:0000000000001e6e .LASF4324
C:\Users\SOLDER~1\AppData\Local\Temp\ccmjpsKj.s:32242  .debug_str:000000000002e563 .LASF4325
C:\Users\SOLDER~1\AppData\Local\Temp\ccmjpsKj.s:25102  .debug_str:00000000000117a5 .LASF4326
C:\Users\SOLDER~1\AppData\Local\Temp\ccmjpsKj.s:22756  .debug_str:0000000000007e8a .LASF4327
C:\Users\SOLDER~1\AppData\Local\Temp\ccmjpsKj.s:32138  .debug_str:000000000002deb7 .LASF4328
GAS LISTING C:\Users\SOLDER~1\AppData\Local\Temp\ccmjpsKj.s 			page 129


C:\Users\SOLDER~1\AppData\Local\Temp\ccmjpsKj.s:29374  .debug_str:0000000000022b3f .LASF4329
C:\Users\SOLDER~1\AppData\Local\Temp\ccmjpsKj.s:28588  .debug_str:000000000001f992 .LASF4330
C:\Users\SOLDER~1\AppData\Local\Temp\ccmjpsKj.s:27804  .debug_str:000000000001c5e3 .LASF4331
C:\Users\SOLDER~1\AppData\Local\Temp\ccmjpsKj.s:25550  .debug_str:000000000001340f .LASF4332
C:\Users\SOLDER~1\AppData\Local\Temp\ccmjpsKj.s:28598  .debug_str:000000000001fa2b .LASF4333
C:\Users\SOLDER~1\AppData\Local\Temp\ccmjpsKj.s:25350  .debug_str:000000000001271e .LASF4334
C:\Users\SOLDER~1\AppData\Local\Temp\ccmjpsKj.s:27918  .debug_str:000000000001cd86 .LASF4335
C:\Users\SOLDER~1\AppData\Local\Temp\ccmjpsKj.s:27472  .debug_str:000000000001b107 .LASF4336
C:\Users\SOLDER~1\AppData\Local\Temp\ccmjpsKj.s:22360  .debug_str:0000000000006493 .LASF4337
C:\Users\SOLDER~1\AppData\Local\Temp\ccmjpsKj.s:28286  .debug_str:000000000001e556 .LASF4338
C:\Users\SOLDER~1\AppData\Local\Temp\ccmjpsKj.s:27162  .debug_str:0000000000019cc5 .LASF4339
C:\Users\SOLDER~1\AppData\Local\Temp\ccmjpsKj.s:27854  .debug_str:000000000001c94e .LASF4340
C:\Users\SOLDER~1\AppData\Local\Temp\ccmjpsKj.s:26656  .debug_str:0000000000017c23 .LASF4341
C:\Users\SOLDER~1\AppData\Local\Temp\ccmjpsKj.s:28094  .debug_str:000000000001d932 .LASF4342
C:\Users\SOLDER~1\AppData\Local\Temp\ccmjpsKj.s:26464  .debug_str:0000000000016f78 .LASF4343
C:\Users\SOLDER~1\AppData\Local\Temp\ccmjpsKj.s:26558  .debug_str:00000000000175e9 .LASF4344
C:\Users\SOLDER~1\AppData\Local\Temp\ccmjpsKj.s:29868  .debug_str:0000000000024b91 .LASF4345
C:\Users\SOLDER~1\AppData\Local\Temp\ccmjpsKj.s:25380  .debug_str:0000000000012949 .LASF4346
C:\Users\SOLDER~1\AppData\Local\Temp\ccmjpsKj.s:21558  .debug_str:00000000000031b2 .LASF4347
C:\Users\SOLDER~1\AppData\Local\Temp\ccmjpsKj.s:29774  .debug_str:000000000002454f .LASF4348
C:\Users\SOLDER~1\AppData\Local\Temp\ccmjpsKj.s:31594  .debug_str:000000000002bb9a .LASF4349
C:\Users\SOLDER~1\AppData\Local\Temp\ccmjpsKj.s:29414  .debug_str:0000000000022df0 .LASF4350
C:\Users\SOLDER~1\AppData\Local\Temp\ccmjpsKj.s:24496  .debug_str:000000000000f048 .LASF4351
C:\Users\SOLDER~1\AppData\Local\Temp\ccmjpsKj.s:26302  .debug_str:00000000000165b3 .LASF4352
C:\Users\SOLDER~1\AppData\Local\Temp\ccmjpsKj.s:21502  .debug_str:0000000000002e19 .LASF4353
C:\Users\SOLDER~1\AppData\Local\Temp\ccmjpsKj.s:27180  .debug_str:0000000000019dfe .LASF4354
C:\Users\SOLDER~1\AppData\Local\Temp\ccmjpsKj.s:25548  .debug_str:00000000000133e9 .LASF4355
C:\Users\SOLDER~1\AppData\Local\Temp\ccmjpsKj.s:27552  .debug_str:000000000001b5ca .LASF4356
C:\Users\SOLDER~1\AppData\Local\Temp\ccmjpsKj.s:29526  .debug_str:0000000000023503 .LASF4357
C:\Users\SOLDER~1\AppData\Local\Temp\ccmjpsKj.s:24220  .debug_str:000000000000de4a .LASF4358
C:\Users\SOLDER~1\AppData\Local\Temp\ccmjpsKj.s:24604  .debug_str:000000000000f733 .LASF4359
C:\Users\SOLDER~1\AppData\Local\Temp\ccmjpsKj.s:31558  .debug_str:000000000002b936 .LASF4360
C:\Users\SOLDER~1\AppData\Local\Temp\ccmjpsKj.s:21586  .debug_str:0000000000003378 .LASF4361
C:\Users\SOLDER~1\AppData\Local\Temp\ccmjpsKj.s:23116  .debug_str:0000000000009614 .LASF4362
C:\Users\SOLDER~1\AppData\Local\Temp\ccmjpsKj.s:21870  .debug_str:0000000000004568 .LASF4363
C:\Users\SOLDER~1\AppData\Local\Temp\ccmjpsKj.s:23734  .debug_str:000000000000be14 .LASF4364
C:\Users\SOLDER~1\AppData\Local\Temp\ccmjpsKj.s:24022  .debug_str:000000000000d1c5 .LASF4365
C:\Users\SOLDER~1\AppData\Local\Temp\ccmjpsKj.s:26592  .debug_str:0000000000017806 .LASF4366
C:\Users\SOLDER~1\AppData\Local\Temp\ccmjpsKj.s:30804  .debug_str:00000000000288e1 .LASF4367
C:\Users\SOLDER~1\AppData\Local\Temp\ccmjpsKj.s:23840  .debug_str:000000000000c554 .LASF4368
C:\Users\SOLDER~1\AppData\Local\Temp\ccmjpsKj.s:29206  .debug_str:00000000000220b0 .LASF4369
C:\Users\SOLDER~1\AppData\Local\Temp\ccmjpsKj.s:30470  .debug_str:000000000002733a .LASF4370
C:\Users\SOLDER~1\AppData\Local\Temp\ccmjpsKj.s:22852  .debug_str:00000000000084af .LASF4371
C:\Users\SOLDER~1\AppData\Local\Temp\ccmjpsKj.s:32030  .debug_str:000000000002d7fc .LASF4372
C:\Users\SOLDER~1\AppData\Local\Temp\ccmjpsKj.s:25926  .debug_str:0000000000014dda .LASF4373
C:\Users\SOLDER~1\AppData\Local\Temp\ccmjpsKj.s:24186  .debug_str:000000000000dc03 .LASF4374
C:\Users\SOLDER~1\AppData\Local\Temp\ccmjpsKj.s:27034  .debug_str:00000000000194b6 .LASF4375
C:\Users\SOLDER~1\AppData\Local\Temp\ccmjpsKj.s:25906  .debug_str:0000000000014c96 .LASF4376
C:\Users\SOLDER~1\AppData\Local\Temp\ccmjpsKj.s:27304  .debug_str:000000000001a5ac .LASF4377
C:\Users\SOLDER~1\AppData\Local\Temp\ccmjpsKj.s:24066  .debug_str:000000000000d495 .LASF4378
C:\Users\SOLDER~1\AppData\Local\Temp\ccmjpsKj.s:28072  .debug_str:000000000001d7e9 .LASF4379
C:\Users\SOLDER~1\AppData\Local\Temp\ccmjpsKj.s:29894  .debug_str:0000000000024d2e .LASF4380
C:\Users\SOLDER~1\AppData\Local\Temp\ccmjpsKj.s:23000  .debug_str:0000000000008e46 .LASF4381
C:\Users\SOLDER~1\AppData\Local\Temp\ccmjpsKj.s:23390  .debug_str:000000000000a856 .LASF4382
C:\Users\SOLDER~1\AppData\Local\Temp\ccmjpsKj.s:23960  .debug_str:000000000000cdaa .LASF4383
C:\Users\SOLDER~1\AppData\Local\Temp\ccmjpsKj.s:31052  .debug_str:00000000000298cb .LASF4384
C:\Users\SOLDER~1\AppData\Local\Temp\ccmjpsKj.s:27568  .debug_str:000000000001b6c1 .LASF4385
GAS LISTING C:\Users\SOLDER~1\AppData\Local\Temp\ccmjpsKj.s 			page 130


C:\Users\SOLDER~1\AppData\Local\Temp\ccmjpsKj.s:25558  .debug_str:00000000000134be .LASF4386
C:\Users\SOLDER~1\AppData\Local\Temp\ccmjpsKj.s:20956  .debug_str:0000000000000ae9 .LASF4387
C:\Users\SOLDER~1\AppData\Local\Temp\ccmjpsKj.s:22966  .debug_str:0000000000008bce .LASF4388
C:\Users\SOLDER~1\AppData\Local\Temp\ccmjpsKj.s:25802  .debug_str:00000000000145b6 .LASF4389
C:\Users\SOLDER~1\AppData\Local\Temp\ccmjpsKj.s:21890  .debug_str:00000000000046ab .LASF4390
C:\Users\SOLDER~1\AppData\Local\Temp\ccmjpsKj.s:21944  .debug_str:0000000000004a25 .LASF4391
C:\Users\SOLDER~1\AppData\Local\Temp\ccmjpsKj.s:32054  .debug_str:000000000002d954 .LASF4392
C:\Users\SOLDER~1\AppData\Local\Temp\ccmjpsKj.s:26904  .debug_str:0000000000018c2e .LASF4393
C:\Users\SOLDER~1\AppData\Local\Temp\ccmjpsKj.s:32180  .debug_str:000000000002e175 .LASF4394
C:\Users\SOLDER~1\AppData\Local\Temp\ccmjpsKj.s:26340  .debug_str:0000000000016803 .LASF4395
C:\Users\SOLDER~1\AppData\Local\Temp\ccmjpsKj.s:24048  .debug_str:000000000000d363 .LASF4396
C:\Users\SOLDER~1\AppData\Local\Temp\ccmjpsKj.s:23624  .debug_str:000000000000b76b .LASF4397
C:\Users\SOLDER~1\AppData\Local\Temp\ccmjpsKj.s:30798  .debug_str:0000000000028879 .LASF4398
C:\Users\SOLDER~1\AppData\Local\Temp\ccmjpsKj.s:22066  .debug_str:0000000000005185 .LASF4399
C:\Users\SOLDER~1\AppData\Local\Temp\ccmjpsKj.s:25714  .debug_str:0000000000013f87 .LASF4400
C:\Users\SOLDER~1\AppData\Local\Temp\ccmjpsKj.s:27198  .debug_str:0000000000019f2c .LASF4401
C:\Users\SOLDER~1\AppData\Local\Temp\ccmjpsKj.s:27120  .debug_str:0000000000019a70 .LASF4402
C:\Users\SOLDER~1\AppData\Local\Temp\ccmjpsKj.s:27982  .debug_str:000000000001d1ce .LASF4403
C:\Users\SOLDER~1\AppData\Local\Temp\ccmjpsKj.s:25770  .debug_str:000000000001434a .LASF4404
C:\Users\SOLDER~1\AppData\Local\Temp\ccmjpsKj.s:29246  .debug_str:000000000002231e .LASF4405
C:\Users\SOLDER~1\AppData\Local\Temp\ccmjpsKj.s:22970  .debug_str:0000000000008c18 .LASF4406
C:\Users\SOLDER~1\AppData\Local\Temp\ccmjpsKj.s:24874  .debug_str:00000000000108f4 .LASF4407
C:\Users\SOLDER~1\AppData\Local\Temp\ccmjpsKj.s:26374  .debug_str:00000000000169f0 .LASF4408
C:\Users\SOLDER~1\AppData\Local\Temp\ccmjpsKj.s:29102  .debug_str:0000000000021a4f .LASF4409
C:\Users\SOLDER~1\AppData\Local\Temp\ccmjpsKj.s:26716  .debug_str:0000000000018001 .LASF4410
C:\Users\SOLDER~1\AppData\Local\Temp\ccmjpsKj.s:29838  .debug_str:0000000000024994 .LASF4411
C:\Users\SOLDER~1\AppData\Local\Temp\ccmjpsKj.s:29672  .debug_str:0000000000023e87 .LASF4412
C:\Users\SOLDER~1\AppData\Local\Temp\ccmjpsKj.s:30212  .debug_str:00000000000261f0 .LASF4413
C:\Users\SOLDER~1\AppData\Local\Temp\ccmjpsKj.s:24868  .debug_str:000000000001089f .LASF4414
C:\Users\SOLDER~1\AppData\Local\Temp\ccmjpsKj.s:24920  .debug_str:0000000000010c25 .LASF4415
C:\Users\SOLDER~1\AppData\Local\Temp\ccmjpsKj.s:21388  .debug_str:00000000000026e9 .LASF4416
C:\Users\SOLDER~1\AppData\Local\Temp\ccmjpsKj.s:26500  .debug_str:00000000000171c7 .LASF4417
C:\Users\SOLDER~1\AppData\Local\Temp\ccmjpsKj.s:21764  .debug_str:0000000000003ef1 .LASF4418
C:\Users\SOLDER~1\AppData\Local\Temp\ccmjpsKj.s:21392  .debug_str:0000000000002730 .LASF4419
C:\Users\SOLDER~1\AppData\Local\Temp\ccmjpsKj.s:23324  .debug_str:000000000000a3b9 .LASF4420
C:\Users\SOLDER~1\AppData\Local\Temp\ccmjpsKj.s:28002  .debug_str:000000000001d2f7 .LASF4421
C:\Users\SOLDER~1\AppData\Local\Temp\ccmjpsKj.s:27140  .debug_str:0000000000019b99 .LASF4422
C:\Users\SOLDER~1\AppData\Local\Temp\ccmjpsKj.s:25258  .debug_str:000000000001217c .LASF4423
C:\Users\SOLDER~1\AppData\Local\Temp\ccmjpsKj.s:28154  .debug_str:000000000001dcc5 .LASF4424
C:\Users\SOLDER~1\AppData\Local\Temp\ccmjpsKj.s:31288  .debug_str:000000000002a815 .LASF4425
C:\Users\SOLDER~1\AppData\Local\Temp\ccmjpsKj.s:25892  .debug_str:0000000000014b8b .LASF4426
C:\Users\SOLDER~1\AppData\Local\Temp\ccmjpsKj.s:22422  .debug_str:0000000000006903 .LASF4427
C:\Users\SOLDER~1\AppData\Local\Temp\ccmjpsKj.s:32382  .debug_str:000000000002ee82 .LASF4428
C:\Users\SOLDER~1\AppData\Local\Temp\ccmjpsKj.s:27394  .debug_str:000000000001abd6 .LASF4429
C:\Users\SOLDER~1\AppData\Local\Temp\ccmjpsKj.s:32100  .debug_str:000000000002dc71 .LASF4430
C:\Users\SOLDER~1\AppData\Local\Temp\ccmjpsKj.s:31106  .debug_str:0000000000029c12 .LASF4431
C:\Users\SOLDER~1\AppData\Local\Temp\ccmjpsKj.s:27146  .debug_str:0000000000019c04 .LASF4432
C:\Users\SOLDER~1\AppData\Local\Temp\ccmjpsKj.s:27404  .debug_str:000000000001ac61 .LASF4433
C:\Users\SOLDER~1\AppData\Local\Temp\ccmjpsKj.s:25116  .debug_str:00000000000118b4 .LASF4434
C:\Users\SOLDER~1\AppData\Local\Temp\ccmjpsKj.s:31914  .debug_str:000000000002d042 .LASF4435
C:\Users\SOLDER~1\AppData\Local\Temp\ccmjpsKj.s:27112  .debug_str:0000000000019a0e .LASF4436
C:\Users\SOLDER~1\AppData\Local\Temp\ccmjpsKj.s:30774  .debug_str:00000000000286f7 .LASF4437
C:\Users\SOLDER~1\AppData\Local\Temp\ccmjpsKj.s:29412  .debug_str:0000000000022ddc .LASF4438
C:\Users\SOLDER~1\AppData\Local\Temp\ccmjpsKj.s:24638  .debug_str:000000000000f965 .LASF4439
C:\Users\SOLDER~1\AppData\Local\Temp\ccmjpsKj.s:30046  .debug_str:000000000002570a .LASF4440
C:\Users\SOLDER~1\AppData\Local\Temp\ccmjpsKj.s:26446  .debug_str:0000000000016e91 .LASF4441
C:\Users\SOLDER~1\AppData\Local\Temp\ccmjpsKj.s:30856  .debug_str:0000000000028c67 .LASF4442
GAS LISTING C:\Users\SOLDER~1\AppData\Local\Temp\ccmjpsKj.s 			page 131


C:\Users\SOLDER~1\AppData\Local\Temp\ccmjpsKj.s:26350  .debug_str:00000000000168a9 .LASF4443
C:\Users\SOLDER~1\AppData\Local\Temp\ccmjpsKj.s:23746  .debug_str:000000000000beca .LASF4444
C:\Users\SOLDER~1\AppData\Local\Temp\ccmjpsKj.s:26138  .debug_str:0000000000015b3f .LASF4445
C:\Users\SOLDER~1\AppData\Local\Temp\ccmjpsKj.s:26906  .debug_str:0000000000018c4e .LASF4446
C:\Users\SOLDER~1\AppData\Local\Temp\ccmjpsKj.s:23938  .debug_str:000000000000cc3f .LASF4447
C:\Users\SOLDER~1\AppData\Local\Temp\ccmjpsKj.s:27726  .debug_str:000000000001c0bf .LASF4448
C:\Users\SOLDER~1\AppData\Local\Temp\ccmjpsKj.s:29236  .debug_str:0000000000022282 .LASF4449
C:\Users\SOLDER~1\AppData\Local\Temp\ccmjpsKj.s:30956  .debug_str:0000000000029279 .LASF4450
C:\Users\SOLDER~1\AppData\Local\Temp\ccmjpsKj.s:28976  .debug_str:0000000000021242 .LASF4451
C:\Users\SOLDER~1\AppData\Local\Temp\ccmjpsKj.s:27498  .debug_str:000000000001b2a5 .LASF4452
C:\Users\SOLDER~1\AppData\Local\Temp\ccmjpsKj.s:25646  .debug_str:0000000000013a8a .LASF4453
C:\Users\SOLDER~1\AppData\Local\Temp\ccmjpsKj.s:27966  .debug_str:000000000001d0d0 .LASF4454
C:\Users\SOLDER~1\AppData\Local\Temp\ccmjpsKj.s:25286  .debug_str:0000000000012342 .LASF4455
C:\Users\SOLDER~1\AppData\Local\Temp\ccmjpsKj.s:30384  .debug_str:0000000000026dae .LASF4456
C:\Users\SOLDER~1\AppData\Local\Temp\ccmjpsKj.s:24732  .debug_str:0000000000010016 .LASF4457
C:\Users\SOLDER~1\AppData\Local\Temp\ccmjpsKj.s:31214  .debug_str:000000000002a33e .LASF4458
C:\Users\SOLDER~1\AppData\Local\Temp\ccmjpsKj.s:30082  .debug_str:000000000002593b .LASF4459
C:\Users\SOLDER~1\AppData\Local\Temp\ccmjpsKj.s:31142  .debug_str:0000000000029e54 .LASF4460
C:\Users\SOLDER~1\AppData\Local\Temp\ccmjpsKj.s:25180  .debug_str:0000000000011cb6 .LASF4461
C:\Users\SOLDER~1\AppData\Local\Temp\ccmjpsKj.s:26508  .debug_str:000000000001725a .LASF4462
C:\Users\SOLDER~1\AppData\Local\Temp\ccmjpsKj.s:27330  .debug_str:000000000001a795 .LASF4463
C:\Users\SOLDER~1\AppData\Local\Temp\ccmjpsKj.s:29658  .debug_str:0000000000023d8e .LASF4464
C:\Users\SOLDER~1\AppData\Local\Temp\ccmjpsKj.s:27700  .debug_str:000000000001befe .LASF4465
C:\Users\SOLDER~1\AppData\Local\Temp\ccmjpsKj.s:27302  .debug_str:000000000001a595 .LASF4466
C:\Users\SOLDER~1\AppData\Local\Temp\ccmjpsKj.s:27006  .debug_str:000000000001930e .LASF4467
C:\Users\SOLDER~1\AppData\Local\Temp\ccmjpsKj.s:27878  .debug_str:000000000001cac2 .LASF4468
C:\Users\SOLDER~1\AppData\Local\Temp\ccmjpsKj.s:26424  .debug_str:0000000000016d2b .LASF4469
C:\Users\SOLDER~1\AppData\Local\Temp\ccmjpsKj.s:30858  .debug_str:0000000000028c78 .LASF4470
C:\Users\SOLDER~1\AppData\Local\Temp\ccmjpsKj.s:31628  .debug_str:000000000002bdc5 .LASF4471
C:\Users\SOLDER~1\AppData\Local\Temp\ccmjpsKj.s:22002  .debug_str:0000000000004dce .LASF4472
C:\Users\SOLDER~1\AppData\Local\Temp\ccmjpsKj.s:32028  .debug_str:000000000002d7e5 .LASF4473
C:\Users\SOLDER~1\AppData\Local\Temp\ccmjpsKj.s:24800  .debug_str:0000000000010425 .LASF4474
C:\Users\SOLDER~1\AppData\Local\Temp\ccmjpsKj.s:31304  .debug_str:000000000002a918 .LASF4475
C:\Users\SOLDER~1\AppData\Local\Temp\ccmjpsKj.s:26588  .debug_str:00000000000177cb .LASF4476
C:\Users\SOLDER~1\AppData\Local\Temp\ccmjpsKj.s:28162  .debug_str:000000000001dd40 .LASF4477
C:\Users\SOLDER~1\AppData\Local\Temp\ccmjpsKj.s:30498  .debug_str:00000000000274fc .LASF4478
C:\Users\SOLDER~1\AppData\Local\Temp\ccmjpsKj.s:29192  .debug_str:0000000000021fdd .LASF4479
C:\Users\SOLDER~1\AppData\Local\Temp\ccmjpsKj.s:29118  .debug_str:0000000000021b53 .LASF4480
C:\Users\SOLDER~1\AppData\Local\Temp\ccmjpsKj.s:25138  .debug_str:00000000000119e8 .LASF4481
C:\Users\SOLDER~1\AppData\Local\Temp\ccmjpsKj.s:32198  .debug_str:000000000002e2ad .LASF4482
C:\Users\SOLDER~1\AppData\Local\Temp\ccmjpsKj.s:23344  .debug_str:000000000000a4f9 .LASF4483
C:\Users\SOLDER~1\AppData\Local\Temp\ccmjpsKj.s:31200  .debug_str:000000000002a247 .LASF4484
C:\Users\SOLDER~1\AppData\Local\Temp\ccmjpsKj.s:22480  .debug_str:0000000000006c8e .LASF4485
C:\Users\SOLDER~1\AppData\Local\Temp\ccmjpsKj.s:27618  .debug_str:000000000001b9ef .LASF4486
C:\Users\SOLDER~1\AppData\Local\Temp\ccmjpsKj.s:31974  .debug_str:000000000002d448 .LASF4487
C:\Users\SOLDER~1\AppData\Local\Temp\ccmjpsKj.s:31534  .debug_str:000000000002b7c2 .LASF4488
C:\Users\SOLDER~1\AppData\Local\Temp\ccmjpsKj.s:27512  .debug_str:000000000001b35c .LASF4489
C:\Users\SOLDER~1\AppData\Local\Temp\ccmjpsKj.s:25636  .debug_str:00000000000139fa .LASF4490
C:\Users\SOLDER~1\AppData\Local\Temp\ccmjpsKj.s:26214  .debug_str:0000000000016000 .LASF4491
C:\Users\SOLDER~1\AppData\Local\Temp\ccmjpsKj.s:25392  .debug_str:0000000000012a01 .LASF4492
C:\Users\SOLDER~1\AppData\Local\Temp\ccmjpsKj.s:31382  .debug_str:000000000002ade3 .LASF4493
C:\Users\SOLDER~1\AppData\Local\Temp\ccmjpsKj.s:26520  .debug_str:0000000000017316 .LASF4494
C:\Users\SOLDER~1\AppData\Local\Temp\ccmjpsKj.s:30108  .debug_str:0000000000025af4 .LASF4495
C:\Users\SOLDER~1\AppData\Local\Temp\ccmjpsKj.s:26654  .debug_str:0000000000017bea .LASF4496
C:\Users\SOLDER~1\AppData\Local\Temp\ccmjpsKj.s:28842  .debug_str:000000000002098e .LASF4497
C:\Users\SOLDER~1\AppData\Local\Temp\ccmjpsKj.s:32058  .debug_str:000000000002d983 .LASF4498
C:\Users\SOLDER~1\AppData\Local\Temp\ccmjpsKj.s:25916  .debug_str:0000000000014d32 .LASF4499
GAS LISTING C:\Users\SOLDER~1\AppData\Local\Temp\ccmjpsKj.s 			page 132


C:\Users\SOLDER~1\AppData\Local\Temp\ccmjpsKj.s:27060  .debug_str:0000000000019663 .LASF4500
C:\Users\SOLDER~1\AppData\Local\Temp\ccmjpsKj.s:28240  .debug_str:000000000001e26e .LASF4501
C:\Users\SOLDER~1\AppData\Local\Temp\ccmjpsKj.s:29338  .debug_str:00000000000228d9 .LASF4502
C:\Users\SOLDER~1\AppData\Local\Temp\ccmjpsKj.s:27770  .debug_str:000000000001c398 .LASF4503
C:\Users\SOLDER~1\AppData\Local\Temp\ccmjpsKj.s:30590  .debug_str:0000000000027afa .LASF4504
C:\Users\SOLDER~1\AppData\Local\Temp\ccmjpsKj.s:29380  .debug_str:0000000000022ba4 .LASF4505
C:\Users\SOLDER~1\AppData\Local\Temp\ccmjpsKj.s:21220  .debug_str:0000000000001beb .LASF4506
C:\Users\SOLDER~1\AppData\Local\Temp\ccmjpsKj.s:30138  .debug_str:0000000000025cf0 .LASF4507
C:\Users\SOLDER~1\AppData\Local\Temp\ccmjpsKj.s:22388  .debug_str:0000000000006659 .LASF4508
C:\Users\SOLDER~1\AppData\Local\Temp\ccmjpsKj.s:25090  .debug_str:00000000000116d2 .LASF4509
C:\Users\SOLDER~1\AppData\Local\Temp\ccmjpsKj.s:27584  .debug_str:000000000001b7df .LASF4510
C:\Users\SOLDER~1\AppData\Local\Temp\ccmjpsKj.s:21758  .debug_str:0000000000003e89 .LASF4511
C:\Users\SOLDER~1\AppData\Local\Temp\ccmjpsKj.s:29114  .debug_str:0000000000021b1c .LASF4512
C:\Users\SOLDER~1\AppData\Local\Temp\ccmjpsKj.s:29188  .debug_str:0000000000021fa7 .LASF4513
C:\Users\SOLDER~1\AppData\Local\Temp\ccmjpsKj.s:28696  .debug_str:0000000000020021 .LASF4514
C:\Users\SOLDER~1\AppData\Local\Temp\ccmjpsKj.s:23202  .debug_str:0000000000009b95 .LASF4515
C:\Users\SOLDER~1\AppData\Local\Temp\ccmjpsKj.s:26072  .debug_str:0000000000015770 .LASF4516
C:\Users\SOLDER~1\AppData\Local\Temp\ccmjpsKj.s:28550  .debug_str:000000000001f6d0 .LASF4517
C:\Users\SOLDER~1\AppData\Local\Temp\ccmjpsKj.s:32432  .debug_str:000000000002f180 .LASF4518
C:\Users\SOLDER~1\AppData\Local\Temp\ccmjpsKj.s:28294  .debug_str:000000000001e5ce .LASF4519
C:\Users\SOLDER~1\AppData\Local\Temp\ccmjpsKj.s:21084  .debug_str:0000000000001340 .LASF4520
C:\Users\SOLDER~1\AppData\Local\Temp\ccmjpsKj.s:24208  .debug_str:000000000000dd95 .LASF4521
C:\Users\SOLDER~1\AppData\Local\Temp\ccmjpsKj.s:23934  .debug_str:000000000000cc03 .LASF4522
C:\Users\SOLDER~1\AppData\Local\Temp\ccmjpsKj.s:30016  .debug_str:0000000000025502 .LASF4523
C:\Users\SOLDER~1\AppData\Local\Temp\ccmjpsKj.s:24126  .debug_str:000000000000d899 .LASF4524
C:\Users\SOLDER~1\AppData\Local\Temp\ccmjpsKj.s:31604  .debug_str:000000000002bc36 .LASF4525
C:\Users\SOLDER~1\AppData\Local\Temp\ccmjpsKj.s:26988  .debug_str:00000000000191f1 .LASF4526
C:\Users\SOLDER~1\AppData\Local\Temp\ccmjpsKj.s:26004  .debug_str:00000000000152cc .LASF4527
C:\Users\SOLDER~1\AppData\Local\Temp\ccmjpsKj.s:29964  .debug_str:00000000000251cd .LASF4528
C:\Users\SOLDER~1\AppData\Local\Temp\ccmjpsKj.s:31474  .debug_str:000000000002b3c6 .LASF4529
C:\Users\SOLDER~1\AppData\Local\Temp\ccmjpsKj.s:23616  .debug_str:000000000000b6ff .LASF4530
C:\Users\SOLDER~1\AppData\Local\Temp\ccmjpsKj.s:29898  .debug_str:0000000000024d71 .LASF4531
C:\Users\SOLDER~1\AppData\Local\Temp\ccmjpsKj.s:29534  .debug_str:000000000002357d .LASF4532
C:\Users\SOLDER~1\AppData\Local\Temp\ccmjpsKj.s:28016  .debug_str:000000000001d40f .LASF4533
C:\Users\SOLDER~1\AppData\Local\Temp\ccmjpsKj.s:30210  .debug_str:00000000000261b7 .LASF4534
C:\Users\SOLDER~1\AppData\Local\Temp\ccmjpsKj.s:31692  .debug_str:000000000002c1d4 .LASF4535
C:\Users\SOLDER~1\AppData\Local\Temp\ccmjpsKj.s:26328  .debug_str:0000000000016746 .LASF4536
C:\Users\SOLDER~1\AppData\Local\Temp\ccmjpsKj.s:21952  .debug_str:0000000000004a9c .LASF4537
C:\Users\SOLDER~1\AppData\Local\Temp\ccmjpsKj.s:24556  .debug_str:000000000000f3f4 .LASF4538
C:\Users\SOLDER~1\AppData\Local\Temp\ccmjpsKj.s:25568  .debug_str:0000000000013562 .LASF4539
C:\Users\SOLDER~1\AppData\Local\Temp\ccmjpsKj.s:27876  .debug_str:000000000001ca87 .LASF4540
C:\Users\SOLDER~1\AppData\Local\Temp\ccmjpsKj.s:27842  .debug_str:000000000001c846 .LASF4541
C:\Users\SOLDER~1\AppData\Local\Temp\ccmjpsKj.s:25782  .debug_str:000000000001441a .LASF4542
C:\Users\SOLDER~1\AppData\Local\Temp\ccmjpsKj.s:31746  .debug_str:000000000002c5b9 .LASF4543
C:\Users\SOLDER~1\AppData\Local\Temp\ccmjpsKj.s:31718  .debug_str:000000000002c3b5 .LASF4544
C:\Users\SOLDER~1\AppData\Local\Temp\ccmjpsKj.s:29902  .debug_str:0000000000024dcd .LASF4545
C:\Users\SOLDER~1\AppData\Local\Temp\ccmjpsKj.s:24276  .debug_str:000000000000e21a .LASF4546
C:\Users\SOLDER~1\AppData\Local\Temp\ccmjpsKj.s:22392  .debug_str:00000000000066b7 .LASF4547
C:\Users\SOLDER~1\AppData\Local\Temp\ccmjpsKj.s:22452  .debug_str:0000000000006ae2 .LASF4548
C:\Users\SOLDER~1\AppData\Local\Temp\ccmjpsKj.s:25540  .debug_str:0000000000013375 .LASF4549
C:\Users\SOLDER~1\AppData\Local\Temp\ccmjpsKj.s:27322  .debug_str:000000000001a70b .LASF4550
C:\Users\SOLDER~1\AppData\Local\Temp\ccmjpsKj.s:27742  .debug_str:000000000001c1e3 .LASF4551
C:\Users\SOLDER~1\AppData\Local\Temp\ccmjpsKj.s:30128  .debug_str:0000000000025c7b .LASF4552
C:\Users\SOLDER~1\AppData\Local\Temp\ccmjpsKj.s:31064  .debug_str:00000000000299ab .LASF4553
C:\Users\SOLDER~1\AppData\Local\Temp\ccmjpsKj.s:20812  .debug_str:000000000000010c .LASF4554
C:\Users\SOLDER~1\AppData\Local\Temp\ccmjpsKj.s:29176  .debug_str:0000000000021eca .LASF4555
C:\Users\SOLDER~1\AppData\Local\Temp\ccmjpsKj.s:26732  .debug_str:0000000000018121 .LASF4556
GAS LISTING C:\Users\SOLDER~1\AppData\Local\Temp\ccmjpsKj.s 			page 133


C:\Users\SOLDER~1\AppData\Local\Temp\ccmjpsKj.s:26828  .debug_str:000000000001876b .LASF4557
C:\Users\SOLDER~1\AppData\Local\Temp\ccmjpsKj.s:31584  .debug_str:000000000002baf7 .LASF4558
C:\Users\SOLDER~1\AppData\Local\Temp\ccmjpsKj.s:24774  .debug_str:0000000000010292 .LASF4559
C:\Users\SOLDER~1\AppData\Local\Temp\ccmjpsKj.s:24870  .debug_str:00000000000108c0 .LASF4560
C:\Users\SOLDER~1\AppData\Local\Temp\ccmjpsKj.s:24974  .debug_str:0000000000010f6b .LASF4561
C:\Users\SOLDER~1\AppData\Local\Temp\ccmjpsKj.s:25128  .debug_str:000000000001196e .LASF4562
C:\Users\SOLDER~1\AppData\Local\Temp\ccmjpsKj.s:26420  .debug_str:0000000000016cf4 .LASF4563
C:\Users\SOLDER~1\AppData\Local\Temp\ccmjpsKj.s:23244  .debug_str:0000000000009e6c .LASF4564
C:\Users\SOLDER~1\AppData\Local\Temp\ccmjpsKj.s:22616  .debug_str:00000000000075b8 .LASF4565
C:\Users\SOLDER~1\AppData\Local\Temp\ccmjpsKj.s:21910  .debug_str:00000000000047ff .LASF4566
C:\Users\SOLDER~1\AppData\Local\Temp\ccmjpsKj.s:25302  .debug_str:000000000001243c .LASF4567
C:\Users\SOLDER~1\AppData\Local\Temp\ccmjpsKj.s:30548  .debug_str:000000000002784d .LASF4568
C:\Users\SOLDER~1\AppData\Local\Temp\ccmjpsKj.s:26292  .debug_str:0000000000016500 .LASF4569
C:\Users\SOLDER~1\AppData\Local\Temp\ccmjpsKj.s:27996  .debug_str:000000000001d29c .LASF4570
C:\Users\SOLDER~1\AppData\Local\Temp\ccmjpsKj.s:28182  .debug_str:000000000001de9f .LASF4571
C:\Users\SOLDER~1\AppData\Local\Temp\ccmjpsKj.s:25012  .debug_str:00000000000111eb .LASF4572
C:\Users\SOLDER~1\AppData\Local\Temp\ccmjpsKj.s:26616  .debug_str:00000000000179aa .LASF4573
C:\Users\SOLDER~1\AppData\Local\Temp\ccmjpsKj.s:31588  .debug_str:000000000002bb44 .LASF4574
C:\Users\SOLDER~1\AppData\Local\Temp\ccmjpsKj.s:28174  .debug_str:000000000001de11 .LASF4575
C:\Users\SOLDER~1\AppData\Local\Temp\ccmjpsKj.s:21368  .debug_str:00000000000025cc .LASF4576
C:\Users\SOLDER~1\AppData\Local\Temp\ccmjpsKj.s:23444  .debug_str:000000000000abd5 .LASF4577
C:\Users\SOLDER~1\AppData\Local\Temp\ccmjpsKj.s:23400  .debug_str:000000000000a8f2 .LASF4578
C:\Users\SOLDER~1\AppData\Local\Temp\ccmjpsKj.s:27754  .debug_str:000000000001c299 .LASF4579
C:\Users\SOLDER~1\AppData\Local\Temp\ccmjpsKj.s:24922  .debug_str:0000000000010c45 .LASF4580
C:\Users\SOLDER~1\AppData\Local\Temp\ccmjpsKj.s:27672  .debug_str:000000000001bd53 .LASF4581
C:\Users\SOLDER~1\AppData\Local\Temp\ccmjpsKj.s:30600  .debug_str:0000000000027ba5 .LASF4582
C:\Users\SOLDER~1\AppData\Local\Temp\ccmjpsKj.s:23772  .debug_str:000000000000c077 .LASF4583
C:\Users\SOLDER~1\AppData\Local\Temp\ccmjpsKj.s:22638  .debug_str:0000000000007714 .LASF4584
C:\Users\SOLDER~1\AppData\Local\Temp\ccmjpsKj.s:26686  .debug_str:0000000000017e01 .LASF4585
C:\Users\SOLDER~1\AppData\Local\Temp\ccmjpsKj.s:27606  .debug_str:000000000001b941 .LASF4586
C:\Users\SOLDER~1\AppData\Local\Temp\ccmjpsKj.s:22170  .debug_str:00000000000057db .LASF4587
C:\Users\SOLDER~1\AppData\Local\Temp\ccmjpsKj.s:22736  .debug_str:0000000000007d42 .LASF4588
C:\Users\SOLDER~1\AppData\Local\Temp\ccmjpsKj.s:22938  .debug_str:0000000000008a28 .LASF4589
C:\Users\SOLDER~1\AppData\Local\Temp\ccmjpsKj.s:28326  .debug_str:000000000001e7d2 .LASF4590
C:\Users\SOLDER~1\AppData\Local\Temp\ccmjpsKj.s:31892  .debug_str:000000000002cece .LASF4591
C:\Users\SOLDER~1\AppData\Local\Temp\ccmjpsKj.s:22656  .debug_str:00000000000077fe .LASF4594
C:\Users\SOLDER~1\AppData\Local\Temp\ccmjpsKj.s:27366  .debug_str:000000000001a9e1 .LASF4595
C:\Users\SOLDER~1\AppData\Local\Temp\ccmjpsKj.s:25662  .debug_str:0000000000013bbd .LASF4596
C:\Users\SOLDER~1\AppData\Local\Temp\ccmjpsKj.s:22420  .debug_str:00000000000068cc .LASF4597
C:\Users\SOLDER~1\AppData\Local\Temp\ccmjpsKj.s:29126  .debug_str:0000000000021bae .LASF4598
C:\Users\SOLDER~1\AppData\Local\Temp\ccmjpsKj.s:26058  .debug_str:000000000001566e .LASF4599
C:\Users\SOLDER~1\AppData\Local\Temp\ccmjpsKj.s:31496  .debug_str:000000000002b58c .LASF4600
C:\Users\SOLDER~1\AppData\Local\Temp\ccmjpsKj.s:26404  .debug_str:0000000000016be3 .LASF4601
C:\Users\SOLDER~1\AppData\Local\Temp\ccmjpsKj.s:23974  .debug_str:000000000000ce8c .LASF4602
C:\Users\SOLDER~1\AppData\Local\Temp\ccmjpsKj.s:25784  .debug_str:0000000000014454 .LASF4603
C:\Users\SOLDER~1\AppData\Local\Temp\ccmjpsKj.s:24642  .debug_str:000000000000f99b .LASF4604
C:\Users\SOLDER~1\AppData\Local\Temp\ccmjpsKj.s:31208  .debug_str:000000000002a2ba .LASF4605
C:\Users\SOLDER~1\AppData\Local\Temp\ccmjpsKj.s:32334  .debug_str:000000000002eb25 .LASF4606
C:\Users\SOLDER~1\AppData\Local\Temp\ccmjpsKj.s:29670  .debug_str:0000000000023e53 .LASF4607
C:\Users\SOLDER~1\AppData\Local\Temp\ccmjpsKj.s:23334  .debug_str:000000000000a453 .LASF4608
C:\Users\SOLDER~1\AppData\Local\Temp\ccmjpsKj.s:25552  .debug_str:0000000000013427 .LASF4609
C:\Users\SOLDER~1\AppData\Local\Temp\ccmjpsKj.s:29652  .debug_str:0000000000023d30 .LASF4610
C:\Users\SOLDER~1\AppData\Local\Temp\ccmjpsKj.s:22512  .debug_str:0000000000006ebb .LASF4611
C:\Users\SOLDER~1\AppData\Local\Temp\ccmjpsKj.s:28572  .debug_str:000000000001f872 .LASF4612
C:\Users\SOLDER~1\AppData\Local\Temp\ccmjpsKj.s:21744  .debug_str:0000000000003d96 .LASF4613
C:\Users\SOLDER~1\AppData\Local\Temp\ccmjpsKj.s:30318  .debug_str:000000000002690e .LASF4614
C:\Users\SOLDER~1\AppData\Local\Temp\ccmjpsKj.s:22928  .debug_str:000000000000897a .LASF4615
GAS LISTING C:\Users\SOLDER~1\AppData\Local\Temp\ccmjpsKj.s 			page 134


C:\Users\SOLDER~1\AppData\Local\Temp\ccmjpsKj.s:30372  .debug_str:0000000000026cb8 .LASF4616
C:\Users\SOLDER~1\AppData\Local\Temp\ccmjpsKj.s:22520  .debug_str:0000000000006f67 .LASF4617
C:\Users\SOLDER~1\AppData\Local\Temp\ccmjpsKj.s:21476  .debug_str:0000000000002c5b .LASF4618
C:\Users\SOLDER~1\AppData\Local\Temp\ccmjpsKj.s:23556  .debug_str:000000000000b2e9 .LASF4619
C:\Users\SOLDER~1\AppData\Local\Temp\ccmjpsKj.s:23676  .debug_str:000000000000ba4d .LASF4620
C:\Users\SOLDER~1\AppData\Local\Temp\ccmjpsKj.s:29804  .debug_str:000000000002473b .LASF4621
C:\Users\SOLDER~1\AppData\Local\Temp\ccmjpsKj.s:30954  .debug_str:000000000002925b .LASF4622
C:\Users\SOLDER~1\AppData\Local\Temp\ccmjpsKj.s:26772  .debug_str:00000000000183ea .LASF4623
C:\Users\SOLDER~1\AppData\Local\Temp\ccmjpsKj.s:24770  .debug_str:0000000000010262 .LASF4624
C:\Users\SOLDER~1\AppData\Local\Temp\ccmjpsKj.s:31372  .debug_str:000000000002ad3b .LASF4625
C:\Users\SOLDER~1\AppData\Local\Temp\ccmjpsKj.s:26442  .debug_str:0000000000016e4f .LASF4626
C:\Users\SOLDER~1\AppData\Local\Temp\ccmjpsKj.s:28422  .debug_str:000000000001ee68 .LASF4627
C:\Users\SOLDER~1\AppData\Local\Temp\ccmjpsKj.s:25760  .debug_str:00000000000142b7 .LASF4628
C:\Users\SOLDER~1\AppData\Local\Temp\ccmjpsKj.s:23118  .debug_str:000000000000962e .LASF4629
C:\Users\SOLDER~1\AppData\Local\Temp\ccmjpsKj.s:28312  .debug_str:000000000001e6dd .LASF4630
C:\Users\SOLDER~1\AppData\Local\Temp\ccmjpsKj.s:29294  .debug_str:00000000000225d0 .LASF4631
C:\Users\SOLDER~1\AppData\Local\Temp\ccmjpsKj.s:28120  .debug_str:000000000001dac6 .LASF4632
C:\Users\SOLDER~1\AppData\Local\Temp\ccmjpsKj.s:32012  .debug_str:000000000002d6d5 .LASF4633
C:\Users\SOLDER~1\AppData\Local\Temp\ccmjpsKj.s:29262  .debug_str:0000000000022413 .LASF4634
C:\Users\SOLDER~1\AppData\Local\Temp\ccmjpsKj.s:20816  .debug_str:0000000000000130 .LASF4635
C:\Users\SOLDER~1\AppData\Local\Temp\ccmjpsKj.s:26550  .debug_str:000000000001755d .LASF4636
C:\Users\SOLDER~1\AppData\Local\Temp\ccmjpsKj.s:25630  .debug_str:000000000001398b .LASF4637
C:\Users\SOLDER~1\AppData\Local\Temp\ccmjpsKj.s:25606  .debug_str:00000000000137d5 .LASF4638
C:\Users\SOLDER~1\AppData\Local\Temp\ccmjpsKj.s:25608  .debug_str:0000000000013806 .LASF4639
C:\Users\SOLDER~1\AppData\Local\Temp\ccmjpsKj.s:31204  .debug_str:000000000002a275 .LASF4640
C:\Users\SOLDER~1\AppData\Local\Temp\ccmjpsKj.s:23880  .debug_str:000000000000c811 .LASF4641
C:\Users\SOLDER~1\AppData\Local\Temp\ccmjpsKj.s:32454  .debug_str:000000000002f2de .LASF4642
C:\Users\SOLDER~1\AppData\Local\Temp\ccmjpsKj.s:29250  .debug_str:0000000000022361 .LASF4643
C:\Users\SOLDER~1\AppData\Local\Temp\ccmjpsKj.s:24106  .debug_str:000000000000d73a .LASF4644
C:\Users\SOLDER~1\AppData\Local\Temp\ccmjpsKj.s:28226  .debug_str:000000000001e1b1 .LASF4645
C:\Users\SOLDER~1\AppData\Local\Temp\ccmjpsKj.s:29662  .debug_str:0000000000023dcd .LASF4646
C:\Users\SOLDER~1\AppData\Local\Temp\ccmjpsKj.s:27678  .debug_str:000000000001bdad .LASF4647
C:\Users\SOLDER~1\AppData\Local\Temp\ccmjpsKj.s:24730  .debug_str:000000000000ffed .LASF4648
C:\Users\SOLDER~1\AppData\Local\Temp\ccmjpsKj.s:23978  .debug_str:000000000000cee0 .LASF4649
C:\Users\SOLDER~1\AppData\Local\Temp\ccmjpsKj.s:21252  .debug_str:0000000000001e25 .LASF4650
C:\Users\SOLDER~1\AppData\Local\Temp\ccmjpsKj.s:24008  .debug_str:000000000000d0ab .LASF4651
C:\Users\SOLDER~1\AppData\Local\Temp\ccmjpsKj.s:27308  .debug_str:000000000001a5f4 .LASF4652
C:\Users\SOLDER~1\AppData\Local\Temp\ccmjpsKj.s:29536  .debug_str:00000000000235b7 .LASF4653
C:\Users\SOLDER~1\AppData\Local\Temp\ccmjpsKj.s:25678  .debug_str:0000000000013cef .LASF4654
C:\Users\SOLDER~1\AppData\Local\Temp\ccmjpsKj.s:22834  .debug_str:0000000000008393 .LASF4655
C:\Users\SOLDER~1\AppData\Local\Temp\ccmjpsKj.s:27752  .debug_str:000000000001c261 .LASF4656
C:\Users\SOLDER~1\AppData\Local\Temp\ccmjpsKj.s:24700  .debug_str:000000000000fdcb .LASF4657
C:\Users\SOLDER~1\AppData\Local\Temp\ccmjpsKj.s:23224  .debug_str:0000000000009cda .LASF4658
C:\Users\SOLDER~1\AppData\Local\Temp\ccmjpsKj.s:23528  .debug_str:000000000000b130 .LASF4659
C:\Users\SOLDER~1\AppData\Local\Temp\ccmjpsKj.s:31166  .debug_str:0000000000029fe0 .LASF4660
C:\Users\SOLDER~1\AppData\Local\Temp\ccmjpsKj.s:27910  .debug_str:000000000001ccdd .LASF4661
C:\Users\SOLDER~1\AppData\Local\Temp\ccmjpsKj.s:27228  .debug_str:000000000001a0ea .LASF4662
C:\Users\SOLDER~1\AppData\Local\Temp\ccmjpsKj.s:20804  .debug_str:000000000000006c .LASF4663
C:\Users\SOLDER~1\AppData\Local\Temp\ccmjpsKj.s:25222  .debug_str:0000000000011f51 .LASF4664
C:\Users\SOLDER~1\AppData\Local\Temp\ccmjpsKj.s:27090  .debug_str:0000000000019880 .LASF4665
C:\Users\SOLDER~1\AppData\Local\Temp\ccmjpsKj.s:31732  .debug_str:000000000002c4d0 .LASF4666
C:\Users\SOLDER~1\AppData\Local\Temp\ccmjpsKj.s:21098  .debug_str:0000000000001438 .LASF4667
C:\Users\SOLDER~1\AppData\Local\Temp\ccmjpsKj.s:20888  .debug_str:00000000000005b3 .LASF4668
C:\Users\SOLDER~1\AppData\Local\Temp\ccmjpsKj.s:22410  .debug_str:000000000000680d .LASF4669
C:\Users\SOLDER~1\AppData\Local\Temp\ccmjpsKj.s:24286  .debug_str:000000000000e2e5 .LASF4670
C:\Users\SOLDER~1\AppData\Local\Temp\ccmjpsKj.s:21234  .debug_str:0000000000001ce9 .LASF4671
C:\Users\SOLDER~1\AppData\Local\Temp\ccmjpsKj.s:21138  .debug_str:00000000000016c8 .LASF4672
GAS LISTING C:\Users\SOLDER~1\AppData\Local\Temp\ccmjpsKj.s 			page 135


C:\Users\SOLDER~1\AppData\Local\Temp\ccmjpsKj.s:28570  .debug_str:000000000001f831 .LASF4673
C:\Users\SOLDER~1\AppData\Local\Temp\ccmjpsKj.s:26298  .debug_str:0000000000016557 .LASF4674
C:\Users\SOLDER~1\AppData\Local\Temp\ccmjpsKj.s:21912  .debug_str:0000000000004812 .LASF4675
C:\Users\SOLDER~1\AppData\Local\Temp\ccmjpsKj.s:25366  .debug_str:000000000001284b .LASF4676
C:\Users\SOLDER~1\AppData\Local\Temp\ccmjpsKj.s:24678  .debug_str:000000000000fc3c .LASF4677
C:\Users\SOLDER~1\AppData\Local\Temp\ccmjpsKj.s:22784  .debug_str:0000000000008066 .LASF4678
C:\Users\SOLDER~1\AppData\Local\Temp\ccmjpsKj.s:29848  .debug_str:0000000000024a3b .LASF4679
C:\Users\SOLDER~1\AppData\Local\Temp\ccmjpsKj.s:25934  .debug_str:0000000000014e6d .LASF4680
C:\Users\SOLDER~1\AppData\Local\Temp\ccmjpsKj.s:21492  .debug_str:0000000000002d77 .LASF4681
C:\Users\SOLDER~1\AppData\Local\Temp\ccmjpsKj.s:22416  .debug_str:0000000000006899 .LASF4682
C:\Users\SOLDER~1\AppData\Local\Temp\ccmjpsKj.s:21198  .debug_str:0000000000001a83 .LASF4683
C:\Users\SOLDER~1\AppData\Local\Temp\ccmjpsKj.s:23848  .debug_str:000000000000c5df .LASF4684
C:\Users\SOLDER~1\AppData\Local\Temp\ccmjpsKj.s:31162  .debug_str:0000000000029fa2 .LASF4685
C:\Users\SOLDER~1\AppData\Local\Temp\ccmjpsKj.s:29222  .debug_str:00000000000221b9 .LASF4686
C:\Users\SOLDER~1\AppData\Local\Temp\ccmjpsKj.s:28064  .debug_str:000000000001d75f .LASF4687
C:\Users\SOLDER~1\AppData\Local\Temp\ccmjpsKj.s:30686  .debug_str:0000000000028145 .LASF4688
C:\Users\SOLDER~1\AppData\Local\Temp\ccmjpsKj.s:28658  .debug_str:000000000001fdda .LASF4689
C:\Users\SOLDER~1\AppData\Local\Temp\ccmjpsKj.s:27324  .debug_str:000000000001a719 .LASF4690
C:\Users\SOLDER~1\AppData\Local\Temp\ccmjpsKj.s:21074  .debug_str:00000000000012a9 .LASF4691
C:\Users\SOLDER~1\AppData\Local\Temp\ccmjpsKj.s:28508  .debug_str:000000000001f408 .LASF4692
C:\Users\SOLDER~1\AppData\Local\Temp\ccmjpsKj.s:29370  .debug_str:0000000000022afe .LASF4693
C:\Users\SOLDER~1\AppData\Local\Temp\ccmjpsKj.s:30958  .debug_str:0000000000029290 .LASF4694
C:\Users\SOLDER~1\AppData\Local\Temp\ccmjpsKj.s:28104  .debug_str:000000000001d9be .LASF4695
C:\Users\SOLDER~1\AppData\Local\Temp\ccmjpsKj.s:21174  .debug_str:00000000000018fc .LASF4696
C:\Users\SOLDER~1\AppData\Local\Temp\ccmjpsKj.s:25918  .debug_str:0000000000014d69 .LASF4697
C:\Users\SOLDER~1\AppData\Local\Temp\ccmjpsKj.s:22686  .debug_str:0000000000007a03 .LASF4698
C:\Users\SOLDER~1\AppData\Local\Temp\ccmjpsKj.s:31464  .debug_str:000000000002b31b .LASF4699
C:\Users\SOLDER~1\AppData\Local\Temp\ccmjpsKj.s:27930  .debug_str:000000000001ce64 .LASF4700
C:\Users\SOLDER~1\AppData\Local\Temp\ccmjpsKj.s:23170  .debug_str:00000000000099a2 .LASF4701
C:\Users\SOLDER~1\AppData\Local\Temp\ccmjpsKj.s:21482  .debug_str:0000000000002cca .LASF4702
C:\Users\SOLDER~1\AppData\Local\Temp\ccmjpsKj.s:21436  .debug_str:0000000000002a1f .LASF4703
C:\Users\SOLDER~1\AppData\Local\Temp\ccmjpsKj.s:29852  .debug_str:0000000000024a81 .LASF4704
C:\Users\SOLDER~1\AppData\Local\Temp\ccmjpsKj.s:26736  .debug_str:000000000001815a .LASF4705
C:\Users\SOLDER~1\AppData\Local\Temp\ccmjpsKj.s:30752  .debug_str:0000000000028577 .LASF4706
C:\Users\SOLDER~1\AppData\Local\Temp\ccmjpsKj.s:25140  .debug_str:0000000000011a01 .LASF4707
C:\Users\SOLDER~1\AppData\Local\Temp\ccmjpsKj.s:23620  .debug_str:000000000000b738 .LASF4708
C:\Users\SOLDER~1\AppData\Local\Temp\ccmjpsKj.s:26810  .debug_str:000000000001864b .LASF4709
C:\Users\SOLDER~1\AppData\Local\Temp\ccmjpsKj.s:27814  .debug_str:000000000001c688 .LASF4710
C:\Users\SOLDER~1\AppData\Local\Temp\ccmjpsKj.s:28788  .debug_str:0000000000020605 .LASF4711
C:\Users\SOLDER~1\AppData\Local\Temp\ccmjpsKj.s:26672  .debug_str:0000000000017d28 .LASF4712
C:\Users\SOLDER~1\AppData\Local\Temp\ccmjpsKj.s:27464  .debug_str:000000000001b07a .LASF4713
C:\Users\SOLDER~1\AppData\Local\Temp\ccmjpsKj.s:24862  .debug_str:0000000000010859 .LASF4714
C:\Users\SOLDER~1\AppData\Local\Temp\ccmjpsKj.s:32358  .debug_str:000000000002ecec .LASF4715
C:\Users\SOLDER~1\AppData\Local\Temp\ccmjpsKj.s:31430  .debug_str:000000000002b10b .LASF4716
C:\Users\SOLDER~1\AppData\Local\Temp\ccmjpsKj.s:30052  .debug_str:0000000000025756 .LASF4717
C:\Users\SOLDER~1\AppData\Local\Temp\ccmjpsKj.s:30946  .debug_str:00000000000291d8 .LASF4718
C:\Users\SOLDER~1\AppData\Local\Temp\ccmjpsKj.s:21544  .debug_str:00000000000030d4 .LASF4719
C:\Users\SOLDER~1\AppData\Local\Temp\ccmjpsKj.s:25266  .debug_str:0000000000012204 .LASF4720
C:\Users\SOLDER~1\AppData\Local\Temp\ccmjpsKj.s:27020  .debug_str:00000000000193de .LASF4721
C:\Users\SOLDER~1\AppData\Local\Temp\ccmjpsKj.s:20988  .debug_str:0000000000000d37 .LASF4722
C:\Users\SOLDER~1\AppData\Local\Temp\ccmjpsKj.s:28454  .debug_str:000000000001f073 .LASF4723
C:\Users\SOLDER~1\AppData\Local\Temp\ccmjpsKj.s:23096  .debug_str:00000000000094ed .LASF4724
C:\Users\SOLDER~1\AppData\Local\Temp\ccmjpsKj.s:28500  .debug_str:000000000001f383 .LASF4725
C:\Users\SOLDER~1\AppData\Local\Temp\ccmjpsKj.s:27108  .debug_str:00000000000199de .LASF4726
C:\Users\SOLDER~1\AppData\Local\Temp\ccmjpsKj.s:23482  .debug_str:000000000000ae38 .LASF4727
C:\Users\SOLDER~1\AppData\Local\Temp\ccmjpsKj.s:23172  .debug_str:00000000000099bd .LASF4728
C:\Users\SOLDER~1\AppData\Local\Temp\ccmjpsKj.s:30392  .debug_str:0000000000026e3a .LASF4729
GAS LISTING C:\Users\SOLDER~1\AppData\Local\Temp\ccmjpsKj.s 			page 136


C:\Users\SOLDER~1\AppData\Local\Temp\ccmjpsKj.s:29350  .debug_str:00000000000229a1 .LASF4730
C:\Users\SOLDER~1\AppData\Local\Temp\ccmjpsKj.s:31796  .debug_str:000000000002c8e4 .LASF4731
C:\Users\SOLDER~1\AppData\Local\Temp\ccmjpsKj.s:29574  .debug_str:000000000002385f .LASF4732
C:\Users\SOLDER~1\AppData\Local\Temp\ccmjpsKj.s:30616  .debug_str:0000000000027c9f .LASF4733
C:\Users\SOLDER~1\AppData\Local\Temp\ccmjpsKj.s:31076  .debug_str:0000000000029a5f .LASF4734
C:\Users\SOLDER~1\AppData\Local\Temp\ccmjpsKj.s:23594  .debug_str:000000000000b59e .LASF4735
C:\Users\SOLDER~1\AppData\Local\Temp\ccmjpsKj.s:22290  .debug_str:0000000000005faf .LASF4736
C:\Users\SOLDER~1\AppData\Local\Temp\ccmjpsKj.s:21646  .debug_str:0000000000003754 .LASF4737
C:\Users\SOLDER~1\AppData\Local\Temp\ccmjpsKj.s:30544  .debug_str:000000000002780a .LASF4738
C:\Users\SOLDER~1\AppData\Local\Temp\ccmjpsKj.s:28870  .debug_str:0000000000020b69 .LASF4739
C:\Users\SOLDER~1\AppData\Local\Temp\ccmjpsKj.s:21708  .debug_str:0000000000003b5d .LASF4740
C:\Users\SOLDER~1\AppData\Local\Temp\ccmjpsKj.s:21814  .debug_str:00000000000041ff .LASF4741
C:\Users\SOLDER~1\AppData\Local\Temp\ccmjpsKj.s:29596  .debug_str:00000000000239d6 .LASF4742
C:\Users\SOLDER~1\AppData\Local\Temp\ccmjpsKj.s:29938  .debug_str:0000000000025023 .LASF4743
C:\Users\SOLDER~1\AppData\Local\Temp\ccmjpsKj.s:25498  .debug_str:00000000000130d9 .LASF4744
C:\Users\SOLDER~1\AppData\Local\Temp\ccmjpsKj.s:21232  .debug_str:0000000000001cc3 .LASF4745
C:\Users\SOLDER~1\AppData\Local\Temp\ccmjpsKj.s:30122  .debug_str:0000000000025c07 .LASF4746
C:\Users\SOLDER~1\AppData\Local\Temp\ccmjpsKj.s:24130  .debug_str:000000000000d8dc .LASF4747
C:\Users\SOLDER~1\AppData\Local\Temp\ccmjpsKj.s:21070  .debug_str:0000000000001273 .LASF4748
C:\Users\SOLDER~1\AppData\Local\Temp\ccmjpsKj.s:29568  .debug_str:00000000000237f9 .LASF4749
C:\Users\SOLDER~1\AppData\Local\Temp\ccmjpsKj.s:31350  .debug_str:000000000002abfa .LASF4750
C:\Users\SOLDER~1\AppData\Local\Temp\ccmjpsKj.s:24572  .debug_str:000000000000f502 .LASF4751
C:\Users\SOLDER~1\AppData\Local\Temp\ccmjpsKj.s:23748  .debug_str:000000000000bedd .LASF4752
C:\Users\SOLDER~1\AppData\Local\Temp\ccmjpsKj.s:30008  .debug_str:0000000000025481 .LASF4753
C:\Users\SOLDER~1\AppData\Local\Temp\ccmjpsKj.s:26982  .debug_str:000000000001918b .LASF4754
C:\Users\SOLDER~1\AppData\Local\Temp\ccmjpsKj.s:20952  .debug_str:0000000000000aab .LASF4755
C:\Users\SOLDER~1\AppData\Local\Temp\ccmjpsKj.s:32436  .debug_str:000000000002f1bd .LASF4756
C:\Users\SOLDER~1\AppData\Local\Temp\ccmjpsKj.s:29264  .debug_str:0000000000022432 .LASF4757
C:\Users\SOLDER~1\AppData\Local\Temp\ccmjpsKj.s:29744  .debug_str:0000000000024339 .LASF4758
C:\Users\SOLDER~1\AppData\Local\Temp\ccmjpsKj.s:22074  .debug_str:0000000000005217 .LASF4759
C:\Users\SOLDER~1\AppData\Local\Temp\ccmjpsKj.s:24594  .debug_str:000000000000f69c .LASF4760
C:\Users\SOLDER~1\AppData\Local\Temp\ccmjpsKj.s:30004  .debug_str:000000000002544b .LASF4761
C:\Users\SOLDER~1\AppData\Local\Temp\ccmjpsKj.s:26978  .debug_str:000000000001914b .LASF4762
C:\Users\SOLDER~1\AppData\Local\Temp\ccmjpsKj.s:23828  .debug_str:000000000000c476 .LASF4763
C:\Users\SOLDER~1\AppData\Local\Temp\ccmjpsKj.s:23082  .debug_str:00000000000093df .LASF4764
C:\Users\SOLDER~1\AppData\Local\Temp\ccmjpsKj.s:23008  .debug_str:0000000000008ed8 .LASF4765
C:\Users\SOLDER~1\AppData\Local\Temp\ccmjpsKj.s:26238  .debug_str:000000000001616c .LASF4766
C:\Users\SOLDER~1\AppData\Local\Temp\ccmjpsKj.s:28528  .debug_str:000000000001f569 .LASF4767
C:\Users\SOLDER~1\AppData\Local\Temp\ccmjpsKj.s:25440  .debug_str:0000000000012d02 .LASF4768
C:\Users\SOLDER~1\AppData\Local\Temp\ccmjpsKj.s:32048  .debug_str:000000000002d8f3 .LASF4769
C:\Users\SOLDER~1\AppData\Local\Temp\ccmjpsKj.s:28592  .debug_str:000000000001f9c0 .LASF4770
C:\Users\SOLDER~1\AppData\Local\Temp\ccmjpsKj.s:24606  .debug_str:000000000000f756 .LASF4771
C:\Users\SOLDER~1\AppData\Local\Temp\ccmjpsKj.s:24530  .debug_str:000000000000f268 .LASF4772
C:\Users\SOLDER~1\AppData\Local\Temp\ccmjpsKj.s:21604  .debug_str:00000000000034c5 .LASF4773
C:\Users\SOLDER~1\AppData\Local\Temp\ccmjpsKj.s:30132  .debug_str:0000000000025cae .LASF4774
C:\Users\SOLDER~1\AppData\Local\Temp\ccmjpsKj.s:21122  .debug_str:00000000000015d5 .LASF4775
C:\Users\SOLDER~1\AppData\Local\Temp\ccmjpsKj.s:21732  .debug_str:0000000000003ce1 .LASF4776
C:\Users\SOLDER~1\AppData\Local\Temp\ccmjpsKj.s:28300  .debug_str:000000000001e624 .LASF4777
C:\Users\SOLDER~1\AppData\Local\Temp\ccmjpsKj.s:22140  .debug_str:00000000000055d5 .LASF4778
C:\Users\SOLDER~1\AppData\Local\Temp\ccmjpsKj.s:31438  .debug_str:000000000002b182 .LASF4779
C:\Users\SOLDER~1\AppData\Local\Temp\ccmjpsKj.s:31706  .debug_str:000000000002c2e1 .LASF4780
C:\Users\SOLDER~1\AppData\Local\Temp\ccmjpsKj.s:24360  .debug_str:000000000000e797 .LASF4781
C:\Users\SOLDER~1\AppData\Local\Temp\ccmjpsKj.s:28530  .debug_str:000000000001f585 .LASF4782
C:\Users\SOLDER~1\AppData\Local\Temp\ccmjpsKj.s:24258  .debug_str:000000000000e0c3 .LASF4783
C:\Users\SOLDER~1\AppData\Local\Temp\ccmjpsKj.s:23658  .debug_str:000000000000b92c .LASF4784
C:\Users\SOLDER~1\AppData\Local\Temp\ccmjpsKj.s:28922  .debug_str:0000000000020ed8 .LASF4785
C:\Users\SOLDER~1\AppData\Local\Temp\ccmjpsKj.s:21248  .debug_str:0000000000001df1 .LASF4786
GAS LISTING C:\Users\SOLDER~1\AppData\Local\Temp\ccmjpsKj.s 			page 137


C:\Users\SOLDER~1\AppData\Local\Temp\ccmjpsKj.s:27432  .debug_str:000000000001ae1a .LASF4787
C:\Users\SOLDER~1\AppData\Local\Temp\ccmjpsKj.s:32346  .debug_str:000000000002ec02 .LASF4788
C:\Users\SOLDER~1\AppData\Local\Temp\ccmjpsKj.s:23352  .debug_str:000000000000a597 .LASF4789
C:\Users\SOLDER~1\AppData\Local\Temp\ccmjpsKj.s:32376  .debug_str:000000000002ee24 .LASF4790
C:\Users\SOLDER~1\AppData\Local\Temp\ccmjpsKj.s:21774  .debug_str:0000000000003f90 .LASF4791
C:\Users\SOLDER~1\AppData\Local\Temp\ccmjpsKj.s:30466  .debug_str:0000000000027305 .LASF4792
C:\Users\SOLDER~1\AppData\Local\Temp\ccmjpsKj.s:30678  .debug_str:00000000000280c6 .LASF4793
C:\Users\SOLDER~1\AppData\Local\Temp\ccmjpsKj.s:22912  .debug_str:0000000000008855 .LASF4794
C:\Users\SOLDER~1\AppData\Local\Temp\ccmjpsKj.s:23362  .debug_str:000000000000a64e .LASF4795
C:\Users\SOLDER~1\AppData\Local\Temp\ccmjpsKj.s:25420  .debug_str:0000000000012b8f .LASF4796
C:\Users\SOLDER~1\AppData\Local\Temp\ccmjpsKj.s:26476  .debug_str:000000000001702d .LASF4797
C:\Users\SOLDER~1\AppData\Local\Temp\ccmjpsKj.s:21630  .debug_str:0000000000003641 .LASF4798
C:\Users\SOLDER~1\AppData\Local\Temp\ccmjpsKj.s:23752  .debug_str:000000000000bf1e .LASF4799
C:\Users\SOLDER~1\AppData\Local\Temp\ccmjpsKj.s:24878  .debug_str:0000000000010925 .LASF4800
C:\Users\SOLDER~1\AppData\Local\Temp\ccmjpsKj.s:31034  .debug_str:0000000000029790 .LASF4801
C:\Users\SOLDER~1\AppData\Local\Temp\ccmjpsKj.s:22484  .debug_str:0000000000006cca .LASF4802
C:\Users\SOLDER~1\AppData\Local\Temp\ccmjpsKj.s:29306  .debug_str:00000000000226a5 .LASF4803
C:\Users\SOLDER~1\AppData\Local\Temp\ccmjpsKj.s:24690  .debug_str:000000000000fd07 .LASF4804
C:\Users\SOLDER~1\AppData\Local\Temp\ccmjpsKj.s:28906  .debug_str:0000000000020dca .LASF4805
C:\Users\SOLDER~1\AppData\Local\Temp\ccmjpsKj.s:31924  .debug_str:000000000002d0e4 .LASF4806
C:\Users\SOLDER~1\AppData\Local\Temp\ccmjpsKj.s:22332  .debug_str:00000000000062a7 .LASF4807
C:\Users\SOLDER~1\AppData\Local\Temp\ccmjpsKj.s:29910  .debug_str:0000000000024e71 .LASF4808
C:\Users\SOLDER~1\AppData\Local\Temp\ccmjpsKj.s:23038  .debug_str:00000000000090e7 .LASF4809
C:\Users\SOLDER~1\AppData\Local\Temp\ccmjpsKj.s:24704  .debug_str:000000000000fe29 .LASF4810
C:\Users\SOLDER~1\AppData\Local\Temp\ccmjpsKj.s:27582  .debug_str:000000000001b7ba .LASF4811
C:\Users\SOLDER~1\AppData\Local\Temp\ccmjpsKj.s:32184  .debug_str:000000000002e1a6 .LASF4812
C:\Users\SOLDER~1\AppData\Local\Temp\ccmjpsKj.s:31492  .debug_str:000000000002b53a .LASF4813
C:\Users\SOLDER~1\AppData\Local\Temp\ccmjpsKj.s:22856  .debug_str:00000000000084f9 .LASF4814
C:\Users\SOLDER~1\AppData\Local\Temp\ccmjpsKj.s:25008  .debug_str:0000000000011199 .LASF4815
C:\Users\SOLDER~1\AppData\Local\Temp\ccmjpsKj.s:24056  .debug_str:000000000000d3ec .LASF4816
C:\Users\SOLDER~1\AppData\Local\Temp\ccmjpsKj.s:22978  .debug_str:0000000000008caf .LASF4817
C:\Users\SOLDER~1\AppData\Local\Temp\ccmjpsKj.s:21614  .debug_str:000000000000355e .LASF4818
C:\Users\SOLDER~1\AppData\Local\Temp\ccmjpsKj.s:20798  .debug_str:0000000000000000 .LASF4819
C:\Users\SOLDER~1\AppData\Local\Temp\ccmjpsKj.s:28398  .debug_str:000000000001ece1 .LASF4820
C:\Users\SOLDER~1\AppData\Local\Temp\ccmjpsKj.s:29056  .debug_str:0000000000021760 .LASF4821
C:\Users\SOLDER~1\AppData\Local\Temp\ccmjpsKj.s:32124  .debug_str:000000000002ddce .LASF4822
C:\Users\SOLDER~1\AppData\Local\Temp\ccmjpsKj.s:23014  .debug_str:0000000000008f37 .LASF4823
C:\Users\SOLDER~1\AppData\Local\Temp\ccmjpsKj.s:22212  .debug_str:0000000000005ad4 .LASF4824
C:\Users\SOLDER~1\AppData\Local\Temp\ccmjpsKj.s:20962  .debug_str:0000000000000b6a .LASF4825
C:\Users\SOLDER~1\AppData\Local\Temp\ccmjpsKj.s:29494  .debug_str:00000000000232e1 .LASF4826
C:\Users\SOLDER~1\AppData\Local\Temp\ccmjpsKj.s:24406  .debug_str:000000000000eacf .LASF4827
C:\Users\SOLDER~1\AppData\Local\Temp\ccmjpsKj.s:26496  .debug_str:000000000001717d .LASF4828
C:\Users\SOLDER~1\AppData\Local\Temp\ccmjpsKj.s:26618  .debug_str:00000000000179ba .LASF4829
C:\Users\SOLDER~1\AppData\Local\Temp\ccmjpsKj.s:21394  .debug_str:0000000000002759 .LASF4830
C:\Users\SOLDER~1\AppData\Local\Temp\ccmjpsKj.s:25988  .debug_str:00000000000151e6 .LASF4831
C:\Users\SOLDER~1\AppData\Local\Temp\ccmjpsKj.s:30650  .debug_str:0000000000027eb7 .LASF4832
C:\Users\SOLDER~1\AppData\Local\Temp\ccmjpsKj.s:26174  .debug_str:0000000000015d80 .LASF4833
C:\Users\SOLDER~1\AppData\Local\Temp\ccmjpsKj.s:21628  .debug_str:0000000000003629 .LASF4834
C:\Users\SOLDER~1\AppData\Local\Temp\ccmjpsKj.s:29052  .debug_str:0000000000021726 .LASF4835
C:\Users\SOLDER~1\AppData\Local\Temp\ccmjpsKj.s:25836  .debug_str:00000000000147fc .LASF4836
C:\Users\SOLDER~1\AppData\Local\Temp\ccmjpsKj.s:22890  .debug_str:0000000000008713 .LASF4837
C:\Users\SOLDER~1\AppData\Local\Temp\ccmjpsKj.s:24308  .debug_str:000000000000e470 .LASF4838
C:\Users\SOLDER~1\AppData\Local\Temp\ccmjpsKj.s:29234  .debug_str:0000000000022267 .LASF4839
C:\Users\SOLDER~1\AppData\Local\Temp\ccmjpsKj.s:28972  .debug_str:000000000002121f .LASF4840
C:\Users\SOLDER~1\AppData\Local\Temp\ccmjpsKj.s:27402  .debug_str:000000000001ac47 .LASF4841
C:\Users\SOLDER~1\AppData\Local\Temp\ccmjpsKj.s:26436  .debug_str:0000000000016df0 .LASF4842
C:\Users\SOLDER~1\AppData\Local\Temp\ccmjpsKj.s:21700  .debug_str:0000000000003ad3 .LASF4843
GAS LISTING C:\Users\SOLDER~1\AppData\Local\Temp\ccmjpsKj.s 			page 138


C:\Users\SOLDER~1\AppData\Local\Temp\ccmjpsKj.s:26466  .debug_str:0000000000016f9d .LASF4844
C:\Users\SOLDER~1\AppData\Local\Temp\ccmjpsKj.s:31010  .debug_str:00000000000295f0 .LASF4845
C:\Users\SOLDER~1\AppData\Local\Temp\ccmjpsKj.s:24178  .debug_str:000000000000dba3 .LASF4846
C:\Users\SOLDER~1\AppData\Local\Temp\ccmjpsKj.s:30790  .debug_str:0000000000028806 .LASF4847
C:\Users\SOLDER~1\AppData\Local\Temp\ccmjpsKj.s:30418  .debug_str:0000000000026fd9 .LASF4848
C:\Users\SOLDER~1\AppData\Local\Temp\ccmjpsKj.s:25644  .debug_str:0000000000013a68 .LASF4849
C:\Users\SOLDER~1\AppData\Local\Temp\ccmjpsKj.s:28808  .debug_str:0000000000020769 .LASF4850
C:\Users\SOLDER~1\AppData\Local\Temp\ccmjpsKj.s:27378  .debug_str:000000000001aad0 .LASF4852
C:\Users\SOLDER~1\AppData\Local\Temp\ccmjpsKj.s:29286  .debug_str:000000000002254c .LASF4853
C:\Users\SOLDER~1\AppData\Local\Temp\ccmjpsKj.s:21522  .debug_str:0000000000002f82 .LASF4854
C:\Users\SOLDER~1\AppData\Local\Temp\ccmjpsKj.s:25432  .debug_str:0000000000012c5e .LASF4855
C:\Users\SOLDER~1\AppData\Local\Temp\ccmjpsKj.s:24316  .debug_str:000000000000e4f0 .LASF4856
C:\Users\SOLDER~1\AppData\Local\Temp\ccmjpsKj.s:27592  .debug_str:000000000001b844 .LASF4857
C:\Users\SOLDER~1\AppData\Local\Temp\ccmjpsKj.s:22820  .debug_str:00000000000082a7 .LASF4858
C:\Users\SOLDER~1\AppData\Local\Temp\ccmjpsKj.s:23422  .debug_str:000000000000aa64 .LASF4859
C:\Users\SOLDER~1\AppData\Local\Temp\ccmjpsKj.s:31378  .debug_str:000000000002ada4 .LASF4860
C:\Users\SOLDER~1\AppData\Local\Temp\ccmjpsKj.s:21714  .debug_str:0000000000003bc8 .LASF4861
C:\Users\SOLDER~1\AppData\Local\Temp\ccmjpsKj.s:30382  .debug_str:0000000000026d86 .LASF4862
C:\Users\SOLDER~1\AppData\Local\Temp\ccmjpsKj.s:29070  .debug_str:000000000002185f .LASF4863
C:\Users\SOLDER~1\AppData\Local\Temp\ccmjpsKj.s:21850  .debug_str:0000000000004427 .LASF4864
C:\Users\SOLDER~1\AppData\Local\Temp\ccmjpsKj.s:29386  .debug_str:0000000000022c19 .LASF4865
C:\Users\SOLDER~1\AppData\Local\Temp\ccmjpsKj.s:21680  .debug_str:000000000000398f .LASF4866
C:\Users\SOLDER~1\AppData\Local\Temp\ccmjpsKj.s:21872  .debug_str:000000000000458c .LASF4867
C:\Users\SOLDER~1\AppData\Local\Temp\ccmjpsKj.s:24304  .debug_str:000000000000e423 .LASF4868
C:\Users\SOLDER~1\AppData\Local\Temp\ccmjpsKj.s:30654  .debug_str:0000000000027ef7 .LASF4869
C:\Users\SOLDER~1\AppData\Local\Temp\ccmjpsKj.s:21896  .debug_str:000000000000471e .LASF4870
C:\Users\SOLDER~1\AppData\Local\Temp\ccmjpsKj.s:20938  .debug_str:00000000000009b3 .LASF4871
C:\Users\SOLDER~1\AppData\Local\Temp\ccmjpsKj.s:28480  .debug_str:000000000001f21e .LASF4872
C:\Users\SOLDER~1\AppData\Local\Temp\ccmjpsKj.s:23648  .debug_str:000000000000b89f .LASF4873
C:\Users\SOLDER~1\AppData\Local\Temp\ccmjpsKj.s:30058  .debug_str:000000000002579d .LASF4874
C:\Users\SOLDER~1\AppData\Local\Temp\ccmjpsKj.s:32082  .debug_str:000000000002db26 .LASF4875
C:\Users\SOLDER~1\AppData\Local\Temp\ccmjpsKj.s:21386  .debug_str:00000000000026b8 .LASF4876
C:\Users\SOLDER~1\AppData\Local\Temp\ccmjpsKj.s:21892  .debug_str:00000000000046ce .LASF4877
C:\Users\SOLDER~1\AppData\Local\Temp\ccmjpsKj.s:28932  .debug_str:0000000000020f5a .LASF4878
C:\Users\SOLDER~1\AppData\Local\Temp\ccmjpsKj.s:31132  .debug_str:0000000000029d90 .LASF4879
C:\Users\SOLDER~1\AppData\Local\Temp\ccmjpsKj.s:30638  .debug_str:0000000000027de4 .LASF4880
C:\Users\SOLDER~1\AppData\Local\Temp\ccmjpsKj.s:30460  .debug_str:0000000000027292 .LASF4881
C:\Users\SOLDER~1\AppData\Local\Temp\ccmjpsKj.s:31156  .debug_str:0000000000029f2b .LASF4882
C:\Users\SOLDER~1\AppData\Local\Temp\ccmjpsKj.s:25830  .debug_str:0000000000014796 .LASF4883
C:\Users\SOLDER~1\AppData\Local\Temp\ccmjpsKj.s:31212  .debug_str:000000000002a30f .LASF4884
C:\Users\SOLDER~1\AppData\Local\Temp\ccmjpsKj.s:28730  .debug_str:0000000000020258 .LASF4885
C:\Users\SOLDER~1\AppData\Local\Temp\ccmjpsKj.s:29822  .debug_str:000000000002486f .LASF4886
C:\Users\SOLDER~1\AppData\Local\Temp\ccmjpsKj.s:23308  .debug_str:000000000000a2b9 .LASF4887
C:\Users\SOLDER~1\AppData\Local\Temp\ccmjpsKj.s:21260  .debug_str:0000000000001e8f .LASF4888
C:\Users\SOLDER~1\AppData\Local\Temp\ccmjpsKj.s:22090  .debug_str:00000000000052ed .LASF4889
C:\Users\SOLDER~1\AppData\Local\Temp\ccmjpsKj.s:29096  .debug_str:0000000000021a02 .LASF4890
C:\Users\SOLDER~1\AppData\Local\Temp\ccmjpsKj.s:30344  .debug_str:0000000000026af0 .LASF4891
C:\Users\SOLDER~1\AppData\Local\Temp\ccmjpsKj.s:25016  .debug_str:000000000001121c .LASF4892
C:\Users\SOLDER~1\AppData\Local\Temp\ccmjpsKj.s:29758  .debug_str:000000000002442f .LASF4893
C:\Users\SOLDER~1\AppData\Local\Temp\ccmjpsKj.s:27544  .debug_str:000000000001b53b .LASF4894
C:\Users\SOLDER~1\AppData\Local\Temp\ccmjpsKj.s:24886  .debug_str:00000000000109be .LASF4895
C:\Users\SOLDER~1\AppData\Local\Temp\ccmjpsKj.s:21934  .debug_str:000000000000499d .LASF4896
C:\Users\SOLDER~1\AppData\Local\Temp\ccmjpsKj.s:30166  .debug_str:0000000000025ea5 .LASF4897
C:\Users\SOLDER~1\AppData\Local\Temp\ccmjpsKj.s:24192  .debug_str:000000000000dc56 .LASF4898
C:\Users\SOLDER~1\AppData\Local\Temp\ccmjpsKj.s:32148  .debug_str:000000000002df56 .LASF4899
C:\Users\SOLDER~1\AppData\Local\Temp\ccmjpsKj.s:22574  .debug_str:00000000000072ff .LASF4900
C:\Users\SOLDER~1\AppData\Local\Temp\ccmjpsKj.s:26980  .debug_str:0000000000019168 .LASF4901
GAS LISTING C:\Users\SOLDER~1\AppData\Local\Temp\ccmjpsKj.s 			page 139


C:\Users\SOLDER~1\AppData\Local\Temp\ccmjpsKj.s:23920  .debug_str:000000000000caf7 .LASF4902
C:\Users\SOLDER~1\AppData\Local\Temp\ccmjpsKj.s:30150  .debug_str:0000000000025dbf .LASF4903
C:\Users\SOLDER~1\AppData\Local\Temp\ccmjpsKj.s:30546  .debug_str:000000000002782a .LASF4904
C:\Users\SOLDER~1\AppData\Local\Temp\ccmjpsKj.s:28138  .debug_str:000000000001dbb0 .LASF4905
C:\Users\SOLDER~1\AppData\Local\Temp\ccmjpsKj.s:21496  .debug_str:0000000000002dbd .LASF4906
C:\Users\SOLDER~1\AppData\Local\Temp\ccmjpsKj.s:28762  .debug_str:0000000000020453 .LASF4907
C:\Users\SOLDER~1\AppData\Local\Temp\ccmjpsKj.s:29930  .debug_str:0000000000024fb7 .LASF4908
C:\Users\SOLDER~1\AppData\Local\Temp\ccmjpsKj.s:29290  .debug_str:0000000000022592 .LASF4909
C:\Users\SOLDER~1\AppData\Local\Temp\ccmjpsKj.s:22680  .debug_str:0000000000007991 .LASF4910
C:\Users\SOLDER~1\AppData\Local\Temp\ccmjpsKj.s:23928  .debug_str:000000000000cb84 .LASF4911
C:\Users\SOLDER~1\AppData\Local\Temp\ccmjpsKj.s:26208  .debug_str:0000000000015f9c .LASF4912
C:\Users\SOLDER~1\AppData\Local\Temp\ccmjpsKj.s:29870  .debug_str:0000000000024bb5 .LASF4913
C:\Users\SOLDER~1\AppData\Local\Temp\ccmjpsKj.s:30758  .debug_str:00000000000285d5 .LASF4914
C:\Users\SOLDER~1\AppData\Local\Temp\ccmjpsKj.s:25100  .debug_str:0000000000011782 .LASF4915
C:\Users\SOLDER~1\AppData\Local\Temp\ccmjpsKj.s:20978  .debug_str:0000000000000c80 .LASF4916
C:\Users\SOLDER~1\AppData\Local\Temp\ccmjpsKj.s:27412  .debug_str:000000000001acd0 .LASF4917
C:\Users\SOLDER~1\AppData\Local\Temp\ccmjpsKj.s:29686  .debug_str:0000000000023f71 .LASF4918
C:\Users\SOLDER~1\AppData\Local\Temp\ccmjpsKj.s:29970  .debug_str:000000000002522f .LASF4919
C:\Users\SOLDER~1\AppData\Local\Temp\ccmjpsKj.s:25984  .debug_str:000000000001519e .LASF4920
C:\Users\SOLDER~1\AppData\Local\Temp\ccmjpsKj.s:30114  .debug_str:0000000000025b65 .LASF4921
C:\Users\SOLDER~1\AppData\Local\Temp\ccmjpsKj.s:30948  .debug_str:00000000000291f4 .LASF4922
C:\Users\SOLDER~1\AppData\Local\Temp\ccmjpsKj.s:24388  .debug_str:000000000000e988 .LASF4923
C:\Users\SOLDER~1\AppData\Local\Temp\ccmjpsKj.s:21812  .debug_str:00000000000041dc .LASF4924
C:\Users\SOLDER~1\AppData\Local\Temp\ccmjpsKj.s:27560  .debug_str:000000000001b640 .LASF4925
C:\Users\SOLDER~1\AppData\Local\Temp\ccmjpsKj.s:28728  .debug_str:0000000000020235 .LASF4926
C:\Users\SOLDER~1\AppData\Local\Temp\ccmjpsKj.s:25260  .debug_str:00000000000121a5 .LASF4927
C:\Users\SOLDER~1\AppData\Local\Temp\ccmjpsKj.s:32314  .debug_str:000000000002e9e0 .LASF4928
C:\Users\SOLDER~1\AppData\Local\Temp\ccmjpsKj.s:24356  .debug_str:000000000000e75a .LASF4929
C:\Users\SOLDER~1\AppData\Local\Temp\ccmjpsKj.s:31158  .debug_str:0000000000029f5a .LASF4930
C:\Users\SOLDER~1\AppData\Local\Temp\ccmjpsKj.s:31980  .debug_str:000000000002d4c5 .LASF4931
C:\Users\SOLDER~1\AppData\Local\Temp\ccmjpsKj.s:27980  .debug_str:000000000001d1a9 .LASF4932
C:\Users\SOLDER~1\AppData\Local\Temp\ccmjpsKj.s:31454  .debug_str:000000000002b262 .LASF4933
C:\Users\SOLDER~1\AppData\Local\Temp\ccmjpsKj.s:28062  .debug_str:000000000001d73a .LASF4934
C:\Users\SOLDER~1\AppData\Local\Temp\ccmjpsKj.s:28702  .debug_str:0000000000020085 .LASF4935
C:\Users\SOLDER~1\AppData\Local\Temp\ccmjpsKj.s:26992  .debug_str:0000000000019231 .LASF4936
C:\Users\SOLDER~1\AppData\Local\Temp\ccmjpsKj.s:22688  .debug_str:0000000000007a1e .LASF4937
C:\Users\SOLDER~1\AppData\Local\Temp\ccmjpsKj.s:25084  .debug_str:0000000000011668 .LASF4938
C:\Users\SOLDER~1\AppData\Local\Temp\ccmjpsKj.s:25300  .debug_str:0000000000012417 .LASF4939
C:\Users\SOLDER~1\AppData\Local\Temp\ccmjpsKj.s:26342  .debug_str:0000000000016820 .LASF4940
C:\Users\SOLDER~1\AppData\Local\Temp\ccmjpsKj.s:28334  .debug_str:000000000001e868 .LASF4941
C:\Users\SOLDER~1\AppData\Local\Temp\ccmjpsKj.s:29990  .debug_str:000000000002537b .LASF4942
C:\Users\SOLDER~1\AppData\Local\Temp\ccmjpsKj.s:29410  .debug_str:0000000000022db7 .LASF4943
C:\Users\SOLDER~1\AppData\Local\Temp\ccmjpsKj.s:28836  .debug_str:0000000000020931 .LASF4944
C:\Users\SOLDER~1\AppData\Local\Temp\ccmjpsKj.s:29130  .debug_str:0000000000021c07 .LASF4945
C:\Users\SOLDER~1\AppData\Local\Temp\ccmjpsKj.s:24380  .debug_str:000000000000e900 .LASF4946
C:\Users\SOLDER~1\AppData\Local\Temp\ccmjpsKj.s:25456  .debug_str:0000000000012e01 .LASF4947
C:\Users\SOLDER~1\AppData\Local\Temp\ccmjpsKj.s:25336  .debug_str:0000000000012652 .LASF4948
C:\Users\SOLDER~1\AppData\Local\Temp\ccmjpsKj.s:24050  .debug_str:000000000000d380 .LASF4949
C:\Users\SOLDER~1\AppData\Local\Temp\ccmjpsKj.s:30864  .debug_str:0000000000028cc6 .LASF4950
C:\Users\SOLDER~1\AppData\Local\Temp\ccmjpsKj.s:21348  .debug_str:000000000000245b .LASF4951
C:\Users\SOLDER~1\AppData\Local\Temp\ccmjpsKj.s:30726  .debug_str:00000000000283e9 .LASF4952
C:\Users\SOLDER~1\AppData\Local\Temp\ccmjpsKj.s:26056  .debug_str:0000000000015649 .LASF4953
C:\Users\SOLDER~1\AppData\Local\Temp\ccmjpsKj.s:23652  .debug_str:000000000000b8d6 .LASF4954
C:\Users\SOLDER~1\AppData\Local\Temp\ccmjpsKj.s:24780  .debug_str:00000000000102e1 .LASF4955
C:\Users\SOLDER~1\AppData\Local\Temp\ccmjpsKj.s:32036  .debug_str:000000000002d853 .LASF4956
C:\Users\SOLDER~1\AppData\Local\Temp\ccmjpsKj.s:26012  .debug_str:0000000000015368 .LASF4957
C:\Users\SOLDER~1\AppData\Local\Temp\ccmjpsKj.s:22344  .debug_str:0000000000006387 .LASF4958
GAS LISTING C:\Users\SOLDER~1\AppData\Local\Temp\ccmjpsKj.s 			page 140


C:\Users\SOLDER~1\AppData\Local\Temp\ccmjpsKj.s:28122  .debug_str:000000000001dae5 .LASF4959
C:\Users\SOLDER~1\AppData\Local\Temp\ccmjpsKj.s:23218  .debug_str:0000000000009c81 .LASF4960
C:\Users\SOLDER~1\AppData\Local\Temp\ccmjpsKj.s:27342  .debug_str:000000000001a840 .LASF4961
C:\Users\SOLDER~1\AppData\Local\Temp\ccmjpsKj.s:24818  .debug_str:0000000000010576 .LASF4962
C:\Users\SOLDER~1\AppData\Local\Temp\ccmjpsKj.s:23208  .debug_str:0000000000009bdb .LASF4963
C:\Users\SOLDER~1\AppData\Local\Temp\ccmjpsKj.s:26316  .debug_str:000000000001668a .LASF4964
C:\Users\SOLDER~1\AppData\Local\Temp\ccmjpsKj.s:23554  .debug_str:000000000000b2ca .LASF4965
C:\Users\SOLDER~1\AppData\Local\Temp\ccmjpsKj.s:21154  .debug_str:00000000000017ea .LASF4966
C:\Users\SOLDER~1\AppData\Local\Temp\ccmjpsKj.s:23354  .debug_str:000000000000a5b1 .LASF4967
C:\Users\SOLDER~1\AppData\Local\Temp\ccmjpsKj.s:23766  .debug_str:000000000000c01c .LASF4968
C:\Users\SOLDER~1\AppData\Local\Temp\ccmjpsKj.s:29972  .debug_str:0000000000025252 .LASF4969
C:\Users\SOLDER~1\AppData\Local\Temp\ccmjpsKj.s:26938  .debug_str:0000000000018e71 .LASF4970
C:\Users\SOLDER~1\AppData\Local\Temp\ccmjpsKj.s:27390  .debug_str:000000000001ab93 .LASF4971
C:\Users\SOLDER~1\AppData\Local\Temp\ccmjpsKj.s:21886  .debug_str:0000000000004673 .LASF4972
C:\Users\SOLDER~1\AppData\Local\Temp\ccmjpsKj.s:28564  .debug_str:000000000001f7cf .LASF4973
C:\Users\SOLDER~1\AppData\Local\Temp\ccmjpsKj.s:25212  .debug_str:0000000000011eb6 .LASF4974
C:\Users\SOLDER~1\AppData\Local\Temp\ccmjpsKj.s:21102  .debug_str:0000000000001482 .LASF4975
C:\Users\SOLDER~1\AppData\Local\Temp\ccmjpsKj.s:21682  .debug_str:00000000000039b7 .LASF4976
C:\Users\SOLDER~1\AppData\Local\Temp\ccmjpsKj.s:25024  .debug_str:00000000000112a6 .LASF4977
C:\Users\SOLDER~1\AppData\Local\Temp\ccmjpsKj.s:21444  .debug_str:0000000000002a97 .LASF4978
C:\Users\SOLDER~1\AppData\Local\Temp\ccmjpsKj.s:28538  .debug_str:000000000001f610 .LASF4979
C:\Users\SOLDER~1\AppData\Local\Temp\ccmjpsKj.s:27860  .debug_str:000000000001c9a4 .LASF4980
C:\Users\SOLDER~1\AppData\Local\Temp\ccmjpsKj.s:32446  .debug_str:000000000002f265 .LASF4981
C:\Users\SOLDER~1\AppData\Local\Temp\ccmjpsKj.s:32394  .debug_str:000000000002ef53 .LASF4982
C:\Users\SOLDER~1\AppData\Local\Temp\ccmjpsKj.s:31306  .debug_str:000000000002a94d .LASF4983
C:\Users\SOLDER~1\AppData\Local\Temp\ccmjpsKj.s:28582  .debug_str:000000000001f927 .LASF4984
C:\Users\SOLDER~1\AppData\Local\Temp\ccmjpsKj.s:23092  .debug_str:00000000000094a7 .LASF4985
C:\Users\SOLDER~1\AppData\Local\Temp\ccmjpsKj.s:28890  .debug_str:0000000000020caf .LASF4986
C:\Users\SOLDER~1\AppData\Local\Temp\ccmjpsKj.s:29400  .debug_str:0000000000022d17 .LASF4987
C:\Users\SOLDER~1\AppData\Local\Temp\ccmjpsKj.s:31056  .debug_str:0000000000029911 .LASF4988
C:\Users\SOLDER~1\AppData\Local\Temp\ccmjpsKj.s:25554  .debug_str:0000000000013466 .LASF4989
C:\Users\SOLDER~1\AppData\Local\Temp\ccmjpsKj.s:26678  .debug_str:0000000000017d86 .LASF4990
C:\Users\SOLDER~1\AppData\Local\Temp\ccmjpsKj.s:21542  .debug_str:00000000000030a7 .LASF4991
C:\Users\SOLDER~1\AppData\Local\Temp\ccmjpsKj.s:26596  .debug_str:0000000000017837 .LASF4992
C:\Users\SOLDER~1\AppData\Local\Temp\ccmjpsKj.s:31402  .debug_str:000000000002af39 .LASF4993
C:\Users\SOLDER~1\AppData\Local\Temp\ccmjpsKj.s:29728  .debug_str:0000000000024234 .LASF4994
C:\Users\SOLDER~1\AppData\Local\Temp\ccmjpsKj.s:31686  .debug_str:000000000002c167 .LASF4995
C:\Users\SOLDER~1\AppData\Local\Temp\ccmjpsKj.s:29794  .debug_str:0000000000024690 .LASF4996
C:\Users\SOLDER~1\AppData\Local\Temp\ccmjpsKj.s:31572  .debug_str:000000000002ba36 .LASF4997
C:\Users\SOLDER~1\AppData\Local\Temp\ccmjpsKj.s:25724  .debug_str:0000000000014040 .LASF4998
C:\Users\SOLDER~1\AppData\Local\Temp\ccmjpsKj.s:23292  .debug_str:000000000000a19c .LASF4999
C:\Users\SOLDER~1\AppData\Local\Temp\ccmjpsKj.s:30552  .debug_str:0000000000027884 .LASF5000
C:\Users\SOLDER~1\AppData\Local\Temp\ccmjpsKj.s:30118  .debug_str:0000000000025bbb .LASF5001
C:\Users\SOLDER~1\AppData\Local\Temp\ccmjpsKj.s:29360  .debug_str:0000000000022a4c .LASF5002
C:\Users\SOLDER~1\AppData\Local\Temp\ccmjpsKj.s:27784  .debug_str:000000000001c493 .LASF5003
C:\Users\SOLDER~1\AppData\Local\Temp\ccmjpsKj.s:24726  .debug_str:000000000000ff9a .LASF5004
C:\Users\SOLDER~1\AppData\Local\Temp\ccmjpsKj.s:29552  .debug_str:00000000000236da .LASF5005
C:\Users\SOLDER~1\AppData\Local\Temp\ccmjpsKj.s:30656  .debug_str:0000000000027f1f .LASF5006
C:\Users\SOLDER~1\AppData\Local\Temp\ccmjpsKj.s:23506  .debug_str:000000000000afbe .LASF5007
C:\Users\SOLDER~1\AppData\Local\Temp\ccmjpsKj.s:26622  .debug_str:0000000000017a01 .LASF5008
C:\Users\SOLDER~1\AppData\Local\Temp\ccmjpsKj.s:25010  .debug_str:00000000000111bd .LASF5009
C:\Users\SOLDER~1\AppData\Local\Temp\ccmjpsKj.s:29862  .debug_str:0000000000024b10 .LASF5010
C:\Users\SOLDER~1\AppData\Local\Temp\ccmjpsKj.s:30732  .debug_str:0000000000028452 .LASF5011
C:\Users\SOLDER~1\AppData\Local\Temp\ccmjpsKj.s:25790  .debug_str:00000000000144c7 .LASF5012
C:\Users\SOLDER~1\AppData\Local\Temp\ccmjpsKj.s:30770  .debug_str:00000000000286a4 .LASF5013
C:\Users\SOLDER~1\AppData\Local\Temp\ccmjpsKj.s:31120  .debug_str:0000000000029cda .LASF5014
C:\Users\SOLDER~1\AppData\Local\Temp\ccmjpsKj.s:25752  .debug_str:0000000000014229 .LASF5015
GAS LISTING C:\Users\SOLDER~1\AppData\Local\Temp\ccmjpsKj.s 			page 141


C:\Users\SOLDER~1\AppData\Local\Temp\ccmjpsKj.s:29732  .debug_str:0000000000024287 .LASF5016
C:\Users\SOLDER~1\AppData\Local\Temp\ccmjpsKj.s:25832  .debug_str:00000000000147c9 .LASF5017
C:\Users\SOLDER~1\AppData\Local\Temp\ccmjpsKj.s:26510  .debug_str:0000000000017270 .LASF5018
C:\Users\SOLDER~1\AppData\Local\Temp\ccmjpsKj.s:26094  .debug_str:00000000000158e2 .LASF5019
C:\Users\SOLDER~1\AppData\Local\Temp\ccmjpsKj.s:27176  .debug_str:0000000000019db6 .LASF5020
C:\Users\SOLDER~1\AppData\Local\Temp\ccmjpsKj.s:23900  .debug_str:000000000000c972 .LASF5021
C:\Users\SOLDER~1\AppData\Local\Temp\ccmjpsKj.s:30486  .debug_str:000000000002743d .LASF5022
C:\Users\SOLDER~1\AppData\Local\Temp\ccmjpsKj.s:31532  .debug_str:000000000002b79e .LASF5023
C:\Users\SOLDER~1\AppData\Local\Temp\ccmjpsKj.s:28782  .debug_str:000000000002059c .LASF5024
C:\Users\SOLDER~1\AppData\Local\Temp\ccmjpsKj.s:25546  .debug_str:00000000000133c9 .LASF5025
C:\Users\SOLDER~1\AppData\Local\Temp\ccmjpsKj.s:25256  .debug_str:0000000000012156 .LASF5026
C:\Users\SOLDER~1\AppData\Local\Temp\ccmjpsKj.s:28774  .debug_str:0000000000020517 .LASF5027
C:\Users\SOLDER~1\AppData\Local\Temp\ccmjpsKj.s:25896  .debug_str:0000000000014bc5 .LASF5028
C:\Users\SOLDER~1\AppData\Local\Temp\ccmjpsKj.s:27466  .debug_str:000000000001b096 .LASF5029
C:\Users\SOLDER~1\AppData\Local\Temp\ccmjpsKj.s:24760  .debug_str:00000000000101d5 .LASF5030
C:\Users\SOLDER~1\AppData\Local\Temp\ccmjpsKj.s:30376  .debug_str:0000000000026d11 .LASF5031
C:\Users\SOLDER~1\AppData\Local\Temp\ccmjpsKj.s:28574  .debug_str:000000000001f8a5 .LASF5032
C:\Users\SOLDER~1\AppData\Local\Temp\ccmjpsKj.s:21340  .debug_str:00000000000023c1 .LASF5033
C:\Users\SOLDER~1\AppData\Local\Temp\ccmjpsKj.s:21090  .debug_str:00000000000013b3 .LASF5034
C:\Users\SOLDER~1\AppData\Local\Temp\ccmjpsKj.s:29256  .debug_str:00000000000223c0 .LASF5035
C:\Users\SOLDER~1\AppData\Local\Temp\ccmjpsKj.s:24778  .debug_str:00000000000102c3 .LASF5036
C:\Users\SOLDER~1\AppData\Local\Temp\ccmjpsKj.s:25316  .debug_str:0000000000012526 .LASF5037
C:\Users\SOLDER~1\AppData\Local\Temp\ccmjpsKj.s:30888  .debug_str:0000000000028e5d .LASF5038
C:\Users\SOLDER~1\AppData\Local\Temp\ccmjpsKj.s:27630  .debug_str:000000000001baa7 .LASF5039
C:\Users\SOLDER~1\AppData\Local\Temp\ccmjpsKj.s:25570  .debug_str:000000000001359b .LASF5040
C:\Users\SOLDER~1\AppData\Local\Temp\ccmjpsKj.s:29104  .debug_str:0000000000021a6f .LASF5041
C:\Users\SOLDER~1\AppData\Local\Temp\ccmjpsKj.s:26840  .debug_str:0000000000018810 .LASF5042
C:\Users\SOLDER~1\AppData\Local\Temp\ccmjpsKj.s:28610  .debug_str:000000000001faf6 .LASF5043
C:\Users\SOLDER~1\AppData\Local\Temp\ccmjpsKj.s:26888  .debug_str:0000000000018b4e .LASF5044
C:\Users\SOLDER~1\AppData\Local\Temp\ccmjpsKj.s:25616  .debug_str:00000000000138a6 .LASF5045
C:\Users\SOLDER~1\AppData\Local\Temp\ccmjpsKj.s:23098  .debug_str:0000000000009509 .LASF5046
C:\Users\SOLDER~1\AppData\Local\Temp\ccmjpsKj.s:29674  .debug_str:0000000000023eab .LASF5047
C:\Users\SOLDER~1\AppData\Local\Temp\ccmjpsKj.s:30836  .debug_str:0000000000028afd .LASF5048
C:\Users\SOLDER~1\AppData\Local\Temp\ccmjpsKj.s:29018  .debug_str:0000000000021525 .LASF5049
C:\Users\SOLDER~1\AppData\Local\Temp\ccmjpsKj.s:29016  .debug_str:0000000000021506 .LASF5050
C:\Users\SOLDER~1\AppData\Local\Temp\ccmjpsKj.s:20992  .debug_str:0000000000000d91 .LASF5051
C:\Users\SOLDER~1\AppData\Local\Temp\ccmjpsKj.s:32452  .debug_str:000000000002f2be .LASF5052
C:\Users\SOLDER~1\AppData\Local\Temp\ccmjpsKj.s:27964  .debug_str:000000000001d0a9 .LASF5053
C:\Users\SOLDER~1\AppData\Local\Temp\ccmjpsKj.s:23238  .debug_str:0000000000009dfa .LASF5054
C:\Users\SOLDER~1\AppData\Local\Temp\ccmjpsKj.s:25582  .debug_str:0000000000013649 .LASF5055
C:\Users\SOLDER~1\AppData\Local\Temp\ccmjpsKj.s:31658  .debug_str:000000000002bf95 .LASF5056
C:\Users\SOLDER~1\AppData\Local\Temp\ccmjpsKj.s:23284  .debug_str:000000000000a106 .LASF5057
C:\Users\SOLDER~1\AppData\Local\Temp\ccmjpsKj.s:25230  .debug_str:0000000000011feb .LASF5058
C:\Users\SOLDER~1\AppData\Local\Temp\ccmjpsKj.s:31188  .debug_str:000000000002a182 .LASF5059
C:\Users\SOLDER~1\AppData\Local\Temp\ccmjpsKj.s:25726  .debug_str:000000000001406e .LASF5060
C:\Users\SOLDER~1\AppData\Local\Temp\ccmjpsKj.s:21182  .debug_str:0000000000001976 .LASF5061
C:\Users\SOLDER~1\AppData\Local\Temp\ccmjpsKj.s:26394  .debug_str:0000000000016b3b .LASF5062
C:\Users\SOLDER~1\AppData\Local\Temp\ccmjpsKj.s:24266  .debug_str:000000000000e13b .LASF5063
C:\Users\SOLDER~1\AppData\Local\Temp\ccmjpsKj.s:23548  .debug_str:000000000000b24f .LASF5064
C:\Users\SOLDER~1\AppData\Local\Temp\ccmjpsKj.s:23904  .debug_str:000000000000c9b7 .LASF5065
C:\Users\SOLDER~1\AppData\Local\Temp\ccmjpsKj.s:20930  .debug_str:0000000000000928 .LASF5066
C:\Users\SOLDER~1\AppData\Local\Temp\ccmjpsKj.s:29872  .debug_str:0000000000024bd8 .LASF5067
C:\Users\SOLDER~1\AppData\Local\Temp\ccmjpsKj.s:21508  .debug_str:0000000000002e81 .LASF5068
C:\Users\SOLDER~1\AppData\Local\Temp\ccmjpsKj.s:23424  .debug_str:000000000000aa95 .LASF5069
C:\Users\SOLDER~1\AppData\Local\Temp\ccmjpsKj.s:22732  .debug_str:0000000000007cec .LASF5070
C:\Users\SOLDER~1\AppData\Local\Temp\ccmjpsKj.s:25110  .debug_str:0000000000011842 .LASF5071
C:\Users\SOLDER~1\AppData\Local\Temp\ccmjpsKj.s:27704  .debug_str:000000000001bf38 .LASF5072
GAS LISTING C:\Users\SOLDER~1\AppData\Local\Temp\ccmjpsKj.s 			page 142


C:\Users\SOLDER~1\AppData\Local\Temp\ccmjpsKj.s:23704  .debug_str:000000000000bc1f .LASF5073
C:\Users\SOLDER~1\AppData\Local\Temp\ccmjpsKj.s:25652  .debug_str:0000000000013afe .LASF5074
C:\Users\SOLDER~1\AppData\Local\Temp\ccmjpsKj.s:22976  .debug_str:0000000000008c89 .LASF5075
C:\Users\SOLDER~1\AppData\Local\Temp\ccmjpsKj.s:30720  .debug_str:0000000000028376 .LASF5076
C:\Users\SOLDER~1\AppData\Local\Temp\ccmjpsKj.s:25210  .debug_str:0000000000011e87 .LASF5077
C:\Users\SOLDER~1\AppData\Local\Temp\ccmjpsKj.s:22588  .debug_str:00000000000073ea .LASF5078
C:\Users\SOLDER~1\AppData\Local\Temp\ccmjpsKj.s:21230  .debug_str:0000000000001c9c .LASF5079
C:\Users\SOLDER~1\AppData\Local\Temp\ccmjpsKj.s:29434  .debug_str:0000000000022f14 .LASF5080
C:\Users\SOLDER~1\AppData\Local\Temp\ccmjpsKj.s:25166  .debug_str:0000000000011bc7 .LASF5081
C:\Users\SOLDER~1\AppData\Local\Temp\ccmjpsKj.s:23062  .debug_str:0000000000009280 .LASF5082
C:\Users\SOLDER~1\AppData\Local\Temp\ccmjpsKj.s:22788  .debug_str:000000000000809e .LASF5083
C:\Users\SOLDER~1\AppData\Local\Temp\ccmjpsKj.s:28030  .debug_str:000000000001d50d .LASF5084
C:\Users\SOLDER~1\AppData\Local\Temp\ccmjpsKj.s:30286  .debug_str:0000000000026710 .LASF5085
C:\Users\SOLDER~1\AppData\Local\Temp\ccmjpsKj.s:32370  .debug_str:000000000002edb4 .LASF5086
C:\Users\SOLDER~1\AppData\Local\Temp\ccmjpsKj.s:23598  .debug_str:000000000000b5d6 .LASF5087
C:\Users\SOLDER~1\AppData\Local\Temp\ccmjpsKj.s:23240  .debug_str:0000000000009e21 .LASF5088
C:\Users\SOLDER~1\AppData\Local\Temp\ccmjpsKj.s:22952  .debug_str:0000000000008b0d .LASF5089
C:\Users\SOLDER~1\AppData\Local\Temp\ccmjpsKj.s:23228  .debug_str:0000000000009d41 .LASF5090
C:\Users\SOLDER~1\AppData\Local\Temp\ccmjpsKj.s:23236  .debug_str:0000000000009dcd .LASF5091
C:\Users\SOLDER~1\AppData\Local\Temp\ccmjpsKj.s:28448  .debug_str:000000000001f014 .LASF5092
C:\Users\SOLDER~1\AppData\Local\Temp\ccmjpsKj.s:23708  .debug_str:000000000000bc6e .LASF5093
C:\Users\SOLDER~1\AppData\Local\Temp\ccmjpsKj.s:23044  .debug_str:0000000000009166 .LASF5094
C:\Users\SOLDER~1\AppData\Local\Temp\ccmjpsKj.s:30700  .debug_str:0000000000028212 .LASF5095
C:\Users\SOLDER~1\AppData\Local\Temp\ccmjpsKj.s:25850  .debug_str:00000000000148de .LASF5096
C:\Users\SOLDER~1\AppData\Local\Temp\ccmjpsKj.s:30852  .debug_str:0000000000028c19 .LASF5097
C:\Users\SOLDER~1\AppData\Local\Temp\ccmjpsKj.s:27548  .debug_str:000000000001b581 .LASF5098
C:\Users\SOLDER~1\AppData\Local\Temp\ccmjpsKj.s:22790  .debug_str:00000000000080cc .LASF5099
C:\Users\SOLDER~1\AppData\Local\Temp\ccmjpsKj.s:27134  .debug_str:0000000000019b3b .LASF5100
C:\Users\SOLDER~1\AppData\Local\Temp\ccmjpsKj.s:20986  .debug_str:0000000000000d12 .LASF5101
C:\Users\SOLDER~1\AppData\Local\Temp\ccmjpsKj.s:27646  .debug_str:000000000001bb7b .LASF5102
C:\Users\SOLDER~1\AppData\Local\Temp\ccmjpsKj.s:29738  .debug_str:00000000000242d7 .LASF5103
C:\Users\SOLDER~1\AppData\Local\Temp\ccmjpsKj.s:21178  .debug_str:000000000000192b .LASF5104
C:\Users\SOLDER~1\AppData\Local\Temp\ccmjpsKj.s:28634  .debug_str:000000000001fc55 .LASF5105
C:\Users\SOLDER~1\AppData\Local\Temp\ccmjpsKj.s:21710  .debug_str:0000000000003b7d .LASF5106
C:\Users\SOLDER~1\AppData\Local\Temp\ccmjpsKj.s:21632  .debug_str:0000000000003666 .LASF5107
C:\Users\SOLDER~1\AppData\Local\Temp\ccmjpsKj.s:30126  .debug_str:0000000000025c5b .LASF5108
C:\Users\SOLDER~1\AppData\Local\Temp\ccmjpsKj.s:27898  .debug_str:000000000001cc0d .LASF5109
C:\Users\SOLDER~1\AppData\Local\Temp\ccmjpsKj.s:25314  .debug_str:0000000000012506 .LASF5110
C:\Users\SOLDER~1\AppData\Local\Temp\ccmjpsKj.s:30924  .debug_str:000000000002907e .LASF5111
C:\Users\SOLDER~1\AppData\Local\Temp\ccmjpsKj.s:24824  .debug_str:00000000000105eb .LASF5112
C:\Users\SOLDER~1\AppData\Local\Temp\ccmjpsKj.s:22458  .debug_str:0000000000006b38 .LASF5113
C:\Users\SOLDER~1\AppData\Local\Temp\ccmjpsKj.s:27460  .debug_str:000000000001b037 .LASF5114
C:\Users\SOLDER~1\AppData\Local\Temp\ccmjpsKj.s:23666  .debug_str:000000000000b9b8 .LASF5115
C:\Users\SOLDER~1\AppData\Local\Temp\ccmjpsKj.s:27650  .debug_str:000000000001bbc8 .LASF5116
C:\Users\SOLDER~1\AppData\Local\Temp\ccmjpsKj.s:24584  .debug_str:000000000000f5d0 .LASF5117
C:\Users\SOLDER~1\AppData\Local\Temp\ccmjpsKj.s:24798  .debug_str:0000000000010404 .LASF5118
C:\Users\SOLDER~1\AppData\Local\Temp\ccmjpsKj.s:24546  .debug_str:000000000000f360 .LASF5119
C:\Users\SOLDER~1\AppData\Local\Temp\ccmjpsKj.s:32442  .debug_str:000000000002f220 .LASF5120
C:\Users\SOLDER~1\AppData\Local\Temp\ccmjpsKj.s:24004  .debug_str:000000000000d07c .LASF5121
C:\Users\SOLDER~1\AppData\Local\Temp\ccmjpsKj.s:24694  .debug_str:000000000000fd56 .LASF5122
C:\Users\SOLDER~1\AppData\Local\Temp\ccmjpsKj.s:25164  .debug_str:0000000000011b98 .LASF5123
C:\Users\SOLDER~1\AppData\Local\Temp\ccmjpsKj.s:30512  .debug_str:000000000002760c .LASF5124
C:\Users\SOLDER~1\AppData\Local\Temp\ccmjpsKj.s:31590  .debug_str:000000000002bb54 .LASF5125
C:\Users\SOLDER~1\AppData\Local\Temp\ccmjpsKj.s:22220  .debug_str:0000000000005b68 .LASF5126
C:\Users\SOLDER~1\AppData\Local\Temp\ccmjpsKj.s:26740  .debug_str:00000000000181a0 .LASF5127
C:\Users\SOLDER~1\AppData\Local\Temp\ccmjpsKj.s:27490  .debug_str:000000000001b224 .LASF5128
C:\Users\SOLDER~1\AppData\Local\Temp\ccmjpsKj.s:26482  .debug_str:000000000001708b .LASF5129
GAS LISTING C:\Users\SOLDER~1\AppData\Local\Temp\ccmjpsKj.s 			page 143


C:\Users\SOLDER~1\AppData\Local\Temp\ccmjpsKj.s:26808  .debug_str:0000000000018629 .LASF5130
C:\Users\SOLDER~1\AppData\Local\Temp\ccmjpsKj.s:25468  .debug_str:0000000000012ede .LASF5131
C:\Users\SOLDER~1\AppData\Local\Temp\ccmjpsKj.s:31102  .debug_str:0000000000029bd5 .LASF5132
C:\Users\SOLDER~1\AppData\Local\Temp\ccmjpsKj.s:29148  .debug_str:0000000000021d17 .LASF5133
C:\Users\SOLDER~1\AppData\Local\Temp\ccmjpsKj.s:29182  .debug_str:0000000000021f23 .LASF5134
C:\Users\SOLDER~1\AppData\Local\Temp\ccmjpsKj.s:30510  .debug_str:00000000000275db .LASF5135
C:\Users\SOLDER~1\AppData\Local\Temp\ccmjpsKj.s:32426  .debug_str:000000000002f12f .LASF5136
C:\Users\SOLDER~1\AppData\Local\Temp\ccmjpsKj.s:32354  .debug_str:000000000002eca9 .LASF5137
C:\Users\SOLDER~1\AppData\Local\Temp\ccmjpsKj.s:26444  .debug_str:0000000000016e6d .LASF5138
C:\Users\SOLDER~1\AppData\Local\Temp\ccmjpsKj.s:25844  .debug_str:0000000000014887 .LASF5139
C:\Users\SOLDER~1\AppData\Local\Temp\ccmjpsKj.s:25684  .debug_str:0000000000013d75 .LASF5140
C:\Users\SOLDER~1\AppData\Local\Temp\ccmjpsKj.s:30560  .debug_str:0000000000027917 .LASF5141
C:\Users\SOLDER~1\AppData\Local\Temp\ccmjpsKj.s:26752  .debug_str:0000000000018281 .LASF5142
C:\Users\SOLDER~1\AppData\Local\Temp\ccmjpsKj.s:21116  .debug_str:0000000000001578 .LASF5143
C:\Users\SOLDER~1\AppData\Local\Temp\ccmjpsKj.s:28854  .debug_str:0000000000020a64 .LASF5144
C:\Users\SOLDER~1\AppData\Local\Temp\ccmjpsKj.s:28636  .debug_str:000000000001fc7a .LASF5145
C:\Users\SOLDER~1\AppData\Local\Temp\ccmjpsKj.s:23508  .debug_str:000000000000afec .LASF5146
C:\Users\SOLDER~1\AppData\Local\Temp\ccmjpsKj.s:30446  .debug_str:000000000002719a .LASF5147
C:\Users\SOLDER~1\AppData\Local\Temp\ccmjpsKj.s:29322  .debug_str:00000000000227bf .LASF5148
C:\Users\SOLDER~1\AppData\Local\Temp\ccmjpsKj.s:26038  .debug_str:0000000000015528 .LASF5149
C:\Users\SOLDER~1\AppData\Local\Temp\ccmjpsKj.s:30192  .debug_str:0000000000026074 .LASF5150
C:\Users\SOLDER~1\AppData\Local\Temp\ccmjpsKj.s:25058  .debug_str:00000000000114c9 .LASF5151
C:\Users\SOLDER~1\AppData\Local\Temp\ccmjpsKj.s:32112  .debug_str:000000000002dd21 .LASF5152
C:\Users\SOLDER~1\AppData\Local\Temp\ccmjpsKj.s:28578  .debug_str:000000000001f8e5 .LASF5153
C:\Users\SOLDER~1\AppData\Local\Temp\ccmjpsKj.s:29456  .debug_str:0000000000023082 .LASF5154
C:\Users\SOLDER~1\AppData\Local\Temp\ccmjpsKj.s:30988  .debug_str:0000000000029472 .LASF5155
C:\Users\SOLDER~1\AppData\Local\Temp\ccmjpsKj.s:27028  .debug_str:0000000000019459 .LASF5156
C:\Users\SOLDER~1\AppData\Local\Temp\ccmjpsKj.s:27774  .debug_str:000000000001c3f4 .LASF5157
C:\Users\SOLDER~1\AppData\Local\Temp\ccmjpsKj.s:22984  .debug_str:0000000000008d21 .LASF5158
C:\Users\SOLDER~1\AppData\Local\Temp\ccmjpsKj.s:28700  .debug_str:0000000000020062 .LASF5159
C:\Users\SOLDER~1\AppData\Local\Temp\ccmjpsKj.s:30830  .debug_str:0000000000028a8c .LASF5160
C:\Users\SOLDER~1\AppData\Local\Temp\ccmjpsKj.s:28998  .debug_str:00000000000213d4 .LASF5161
C:\Users\SOLDER~1\AppData\Local\Temp\ccmjpsKj.s:21086  .debug_str:000000000000135a .LASF5162
C:\Users\SOLDER~1\AppData\Local\Temp\ccmjpsKj.s:20802  .debug_str:0000000000000048 .LASF5163
C:\Users\SOLDER~1\AppData\Local\Temp\ccmjpsKj.s:27632  .debug_str:000000000001bac5 .LASF5164
C:\Users\SOLDER~1\AppData\Local\Temp\ccmjpsKj.s:32076  .debug_str:000000000002dabd .LASF5165
C:\Users\SOLDER~1\AppData\Local\Temp\ccmjpsKj.s:20830  .debug_str:00000000000001f5 .LASF5166
C:\Users\SOLDER~1\AppData\Local\Temp\ccmjpsKj.s:23210  .debug_str:0000000000009bfa .LASF5167
C:\Users\SOLDER~1\AppData\Local\Temp\ccmjpsKj.s:32464  .debug_str:000000000002f381 .LASF5168
C:\Users\SOLDER~1\AppData\Local\Temp\ccmjpsKj.s:25282  .debug_str:00000000000122f4 .LASF5169
C:\Users\SOLDER~1\AppData\Local\Temp\ccmjpsKj.s:26940  .debug_str:0000000000018e90 .LASF5170
C:\Users\SOLDER~1\AppData\Local\Temp\ccmjpsKj.s:22734  .debug_str:0000000000007d1a .LASF5171
C:\Users\SOLDER~1\AppData\Local\Temp\ccmjpsKj.s:22744  .debug_str:0000000000007dbc .LASF5172
C:\Users\SOLDER~1\AppData\Local\Temp\ccmjpsKj.s:28420  .debug_str:000000000001ee43 .LASF5173
C:\Users\SOLDER~1\AppData\Local\Temp\ccmjpsKj.s:32070  .debug_str:000000000002da53 .LASF5174
C:\Users\SOLDER~1\AppData\Local\Temp\ccmjpsKj.s:24962  .debug_str:0000000000010e95 .LASF5175
C:\Users\SOLDER~1\AppData\Local\Temp\ccmjpsKj.s:23050  .debug_str:00000000000091d2 .LASF5176
C:\Users\SOLDER~1\AppData\Local\Temp\ccmjpsKj.s:25728  .debug_str:0000000000014099 .LASF5177
C:\Users\SOLDER~1\AppData\Local\Temp\ccmjpsKj.s:28826  .debug_str:0000000000020877 .LASF5178
C:\Users\SOLDER~1\AppData\Local\Temp\ccmjpsKj.s:26320  .debug_str:00000000000166c2 .LASF5179
C:\Users\SOLDER~1\AppData\Local\Temp\ccmjpsKj.s:24684  .debug_str:000000000000fca6 .LASF5180
C:\Users\SOLDER~1\AppData\Local\Temp\ccmjpsKj.s:32402  .debug_str:000000000002efc5 .LASF5181
C:\Users\SOLDER~1\AppData\Local\Temp\ccmjpsKj.s:23972  .debug_str:000000000000ce68 .LASF5182
C:\Users\SOLDER~1\AppData\Local\Temp\ccmjpsKj.s:28444  .debug_str:000000000001efc5 .LASF5183
C:\Users\SOLDER~1\AppData\Local\Temp\ccmjpsKj.s:21512  .debug_str:0000000000002ec5 .LASF5184
C:\Users\SOLDER~1\AppData\Local\Temp\ccmjpsKj.s:25062  .debug_str:000000000001150e .LASF5185
C:\Users\SOLDER~1\AppData\Local\Temp\ccmjpsKj.s:28212  .debug_str:000000000001e0ab .LASF5186
GAS LISTING C:\Users\SOLDER~1\AppData\Local\Temp\ccmjpsKj.s 			page 144


C:\Users\SOLDER~1\AppData\Local\Temp\ccmjpsKj.s:25958  .debug_str:000000000001500d .LASF5187
C:\Users\SOLDER~1\AppData\Local\Temp\ccmjpsKj.s:30072  .debug_str:0000000000025888 .LASF5188
C:\Users\SOLDER~1\AppData\Local\Temp\ccmjpsKj.s:27730  .debug_str:000000000001c0f7 .LASF5189
C:\Users\SOLDER~1\AppData\Local\Temp\ccmjpsKj.s:24124  .debug_str:000000000000d857 .LASF5190
C:\Users\SOLDER~1\AppData\Local\Temp\ccmjpsKj.s:22306  .debug_str:00000000000060da .LASF5191
C:\Users\SOLDER~1\AppData\Local\Temp\ccmjpsKj.s:32350  .debug_str:000000000002ec4f .LASF5192
C:\Users\SOLDER~1\AppData\Local\Temp\ccmjpsKj.s:21088  .debug_str:000000000000137d .LASF5193
C:\Users\SOLDER~1\AppData\Local\Temp\ccmjpsKj.s:23912  .debug_str:000000000000ca46 .LASF5194
C:\Users\SOLDER~1\AppData\Local\Temp\ccmjpsKj.s:30500  .debug_str:0000000000027516 .LASF5195
C:\Users\SOLDER~1\AppData\Local\Temp\ccmjpsKj.s:27376  .debug_str:000000000001aa90 .LASF5196
C:\Users\SOLDER~1\AppData\Local\Temp\ccmjpsKj.s:23366  .debug_str:000000000000a690 .LASF5197
C:\Users\SOLDER~1\AppData\Local\Temp\ccmjpsKj.s:21366  .debug_str:0000000000002586 .LASF5198
C:\Users\SOLDER~1\AppData\Local\Temp\ccmjpsKj.s:27450  .debug_str:000000000001af78 .LASF5199
C:\Users\SOLDER~1\AppData\Local\Temp\ccmjpsKj.s:30168  .debug_str:0000000000025ec8 .LASF5200
C:\Users\SOLDER~1\AppData\Local\Temp\ccmjpsKj.s:23040  .debug_str:000000000000910c .LASF5201
C:\Users\SOLDER~1\AppData\Local\Temp\ccmjpsKj.s:30256  .debug_str:00000000000264f1 .LASF5202
C:\Users\SOLDER~1\AppData\Local\Temp\ccmjpsKj.s:22072  .debug_str:00000000000051df .LASF5203
C:\Users\SOLDER~1\AppData\Local\Temp\ccmjpsKj.s:20958  .debug_str:0000000000000b0c .LASF5204
C:\Users\SOLDER~1\AppData\Local\Temp\ccmjpsKj.s:23916  .debug_str:000000000000caa0 .LASF5205
C:\Users\SOLDER~1\AppData\Local\Temp\ccmjpsKj.s:27116  .debug_str:0000000000019a3b .LASF5206
C:\Users\SOLDER~1\AppData\Local\Temp\ccmjpsKj.s:26384  .debug_str:0000000000016a99 .LASF5207
C:\Users\SOLDER~1\AppData\Local\Temp\ccmjpsKj.s:22352  .debug_str:000000000000640f .LASF5208
C:\Users\SOLDER~1\AppData\Local\Temp\ccmjpsKj.s:30722  .debug_str:000000000002839d .LASF5209
C:\Users\SOLDER~1\AppData\Local\Temp\ccmjpsKj.s:29382  .debug_str:0000000000022bdb .LASF5210
C:\Users\SOLDER~1\AppData\Local\Temp\ccmjpsKj.s:25648  .debug_str:0000000000013aa2 .LASF5211
C:\Users\SOLDER~1\AppData\Local\Temp\ccmjpsKj.s:29072  .debug_str:0000000000021887 .LASF5212
C:\Users\SOLDER~1\AppData\Local\Temp\ccmjpsKj.s:29858  .debug_str:0000000000024add .LASF5213
C:\Users\SOLDER~1\AppData\Local\Temp\ccmjpsKj.s:27902  .debug_str:000000000001cc53 .LASF5214
C:\Users\SOLDER~1\AppData\Local\Temp\ccmjpsKj.s:26400  .debug_str:0000000000016ba5 .LASF5215
C:\Users\SOLDER~1\AppData\Local\Temp\ccmjpsKj.s:29706  .debug_str:00000000000240c9 .LASF5216
C:\Users\SOLDER~1\AppData\Local\Temp\ccmjpsKj.s:22096  .debug_str:0000000000005352 .LASF5217
C:\Users\SOLDER~1\AppData\Local\Temp\ccmjpsKj.s:27274  .debug_str:000000000001a3f1 .LASF5218
C:\Users\SOLDER~1\AppData\Local\Temp\ccmjpsKj.s:27604  .debug_str:000000000001b919 .LASF5219
C:\Users\SOLDER~1\AppData\Local\Temp\ccmjpsKj.s:28856  .debug_str:0000000000020a85 .LASF5220
C:\Users\SOLDER~1\AppData\Local\Temp\ccmjpsKj.s:27670  .debug_str:000000000001bd2b .LASF5221
C:\Users\SOLDER~1\AppData\Local\Temp\ccmjpsKj.s:26498  .debug_str:000000000001719f .LASF5222
C:\Users\SOLDER~1\AppData\Local\Temp\ccmjpsKj.s:30106  .debug_str:0000000000025acc .LASF5223
C:\Users\SOLDER~1\AppData\Local\Temp\ccmjpsKj.s:21158  .debug_str:000000000000182e .LASF5224
C:\Users\SOLDER~1\AppData\Local\Temp\ccmjpsKj.s:25158  .debug_str:0000000000011b3d .LASF5225
C:\Users\SOLDER~1\AppData\Local\Temp\ccmjpsKj.s:25168  .debug_str:0000000000011bf1 .LASF5226
C:\Users\SOLDER~1\AppData\Local\Temp\ccmjpsKj.s:23436  .debug_str:000000000000ab63 .LASF5227
C:\Users\SOLDER~1\AppData\Local\Temp\ccmjpsKj.s:23818  .debug_str:000000000000c3ad .LASF5228
C:\Users\SOLDER~1\AppData\Local\Temp\ccmjpsKj.s:22942  .debug_str:0000000000008a72 .LASF5229
C:\Users\SOLDER~1\AppData\Local\Temp\ccmjpsKj.s:22822  .debug_str:00000000000082d8 .LASF5230
C:\Users\SOLDER~1\AppData\Local\Temp\ccmjpsKj.s:21838  .debug_str:0000000000004368 .LASF5231
C:\Users\SOLDER~1\AppData\Local\Temp\ccmjpsKj.s:24082  .debug_str:000000000000d5ae .LASF5232
C:\Users\SOLDER~1\AppData\Local\Temp\ccmjpsKj.s:28894  .debug_str:0000000000020cf4 .LASF5233
C:\Users\SOLDER~1\AppData\Local\Temp\ccmjpsKj.s:24568  .debug_str:000000000000f4d0 .LASF5234
C:\Users\SOLDER~1\AppData\Local\Temp\ccmjpsKj.s:21588  .debug_str:000000000000339c .LASF5235
C:\Users\SOLDER~1\AppData\Local\Temp\ccmjpsKj.s:31368  .debug_str:000000000002acf0 .LASF5236
C:\Users\SOLDER~1\AppData\Local\Temp\ccmjpsKj.s:24882  .debug_str:0000000000010973 .LASF5237
C:\Users\SOLDER~1\AppData\Local\Temp\ccmjpsKj.s:31174  .debug_str:000000000002a079 .LASF5238
C:\Users\SOLDER~1\AppData\Local\Temp\ccmjpsKj.s:24650  .debug_str:000000000000fa3d .LASF5239
C:\Users\SOLDER~1\AppData\Local\Temp\ccmjpsKj.s:21360  .debug_str:0000000000002523 .LASF5240
C:\Users\SOLDER~1\AppData\Local\Temp\ccmjpsKj.s:27290  .debug_str:000000000001a4dc .LASF5241
C:\Users\SOLDER~1\AppData\Local\Temp\ccmjpsKj.s:21636  .debug_str:00000000000036a7 .LASF5242
C:\Users\SOLDER~1\AppData\Local\Temp\ccmjpsKj.s:22044  .debug_str:0000000000005050 .LASF5243
GAS LISTING C:\Users\SOLDER~1\AppData\Local\Temp\ccmjpsKj.s 			page 145


C:\Users\SOLDER~1\AppData\Local\Temp\ccmjpsKj.s:31264  .debug_str:000000000002a69e .LASF5244
C:\Users\SOLDER~1\AppData\Local\Temp\ccmjpsKj.s:20846  .debug_str:00000000000002f3 .LASF5245
C:\Users\SOLDER~1\AppData\Local\Temp\ccmjpsKj.s:22546  .debug_str:000000000000713e .LASF5246
C:\Users\SOLDER~1\AppData\Local\Temp\ccmjpsKj.s:31508  .debug_str:000000000002b659 .LASF5247
C:\Users\SOLDER~1\AppData\Local\Temp\ccmjpsKj.s:23430  .debug_str:000000000000ab04 .LASF5248
C:\Users\SOLDER~1\AppData\Local\Temp\ccmjpsKj.s:30260  .debug_str:0000000000026545 .LASF5249
C:\Users\SOLDER~1\AppData\Local\Temp\ccmjpsKj.s:31638  .debug_str:000000000002be46 .LASF5250
C:\Users\SOLDER~1\AppData\Local\Temp\ccmjpsKj.s:24828  .debug_str:0000000000010625 .LASF5251
C:\Users\SOLDER~1\AppData\Local\Temp\ccmjpsKj.s:23822  .debug_str:000000000000c400 .LASF5252
C:\Users\SOLDER~1\AppData\Local\Temp\ccmjpsKj.s:29916  .debug_str:0000000000024ece .LASF5253
C:\Users\SOLDER~1\AppData\Local\Temp\ccmjpsKj.s:27150  .debug_str:0000000000019c32 .LASF5254
C:\Users\SOLDER~1\AppData\Local\Temp\ccmjpsKj.s:24370  .debug_str:000000000000e849 .LASF5255
C:\Users\SOLDER~1\AppData\Local\Temp\ccmjpsKj.s:32266  .debug_str:000000000002e6d7 .LASF5256
C:\Users\SOLDER~1\AppData\Local\Temp\ccmjpsKj.s:25088  .debug_str:00000000000116a6 .LASF5257
C:\Users\SOLDER~1\AppData\Local\Temp\ccmjpsKj.s:27958  .debug_str:000000000001d046 .LASF5258
C:\Users\SOLDER~1\AppData\Local\Temp\ccmjpsKj.s:26690  .debug_str:0000000000017e3b .LASF5259
C:\Users\SOLDER~1\AppData\Local\Temp\ccmjpsKj.s:22720  .debug_str:0000000000007c19 .LASF5260
C:\Users\SOLDER~1\AppData\Local\Temp\ccmjpsKj.s:32234  .debug_str:000000000002e4c5 .LASF5261
C:\Users\SOLDER~1\AppData\Local\Temp\ccmjpsKj.s:28302  .debug_str:000000000001e64a .LASF5262
C:\Users\SOLDER~1\AppData\Local\Temp\ccmjpsKj.s:21096  .debug_str:0000000000001411 .LASF5263
C:\Users\SOLDER~1\AppData\Local\Temp\ccmjpsKj.s:26186  .debug_str:0000000000015e36 .LASF5264
C:\Users\SOLDER~1\AppData\Local\Temp\ccmjpsKj.s:30434  .debug_str:00000000000270c0 .LASF5265
C:\Users\SOLDER~1\AppData\Local\Temp\ccmjpsKj.s:25296  .debug_str:00000000000123c8 .LASF5266
C:\Users\SOLDER~1\AppData\Local\Temp\ccmjpsKj.s:30670  .debug_str:0000000000028031 .LASF5267
C:\Users\SOLDER~1\AppData\Local\Temp\ccmjpsKj.s:21186  .debug_str:00000000000019d0 .LASF5268
C:\Users\SOLDER~1\AppData\Local\Temp\ccmjpsKj.s:29308  .debug_str:00000000000226cb .LASF5269
C:\Users\SOLDER~1\AppData\Local\Temp\ccmjpsKj.s:27268  .debug_str:000000000001a38b .LASF5270
C:\Users\SOLDER~1\AppData\Local\Temp\ccmjpsKj.s:26206  .debug_str:0000000000015f77 .LASF5271
C:\Users\SOLDER~1\AppData\Local\Temp\ccmjpsKj.s:23446  .debug_str:000000000000abe6 .LASF5272
C:\Users\SOLDER~1\AppData\Local\Temp\ccmjpsKj.s:20936  .debug_str:000000000000098d .LASF5273
C:\Users\SOLDER~1\AppData\Local\Temp\ccmjpsKj.s:28408  .debug_str:000000000001ed84 .LASF5274
C:\Users\SOLDER~1\AppData\Local\Temp\ccmjpsKj.s:31220  .debug_str:000000000002a396 .LASF5275
C:\Users\SOLDER~1\AppData\Local\Temp\ccmjpsKj.s:26636  .debug_str:0000000000017ae4 .LASF5276
C:\Users\SOLDER~1\AppData\Local\Temp\ccmjpsKj.s:24790  .debug_str:0000000000010396 .LASF5277
C:\Users\SOLDER~1\AppData\Local\Temp\ccmjpsKj.s:21506  .debug_str:0000000000002e63 .LASF5278
C:\Users\SOLDER~1\AppData\Local\Temp\ccmjpsKj.s:22654  .debug_str:00000000000077e3 .LASF5279
C:\Users\SOLDER~1\AppData\Local\Temp\ccmjpsKj.s:28180  .debug_str:000000000001de72 .LASF5280
C:\Users\SOLDER~1\AppData\Local\Temp\ccmjpsKj.s:22754  .debug_str:0000000000007e5d .LASF5281
C:\Users\SOLDER~1\AppData\Local\Temp\ccmjpsKj.s:27852  .debug_str:000000000001c921 .LASF5282
C:\Users\SOLDER~1\AppData\Local\Temp\ccmjpsKj.s:21580  .debug_str:000000000000331c .LASF5283
C:\Users\SOLDER~1\AppData\Local\Temp\ccmjpsKj.s:31780  .debug_str:000000000002c7ee .LASF5284
C:\Users\SOLDER~1\AppData\Local\Temp\ccmjpsKj.s:27834  .debug_str:000000000001c7c1 .LASF5285
C:\Users\SOLDER~1\AppData\Local\Temp\ccmjpsKj.s:21598  .debug_str:0000000000003457 .LASF5286
C:\Users\SOLDER~1\AppData\Local\Temp\ccmjpsKj.s:31784  .debug_str:000000000002c834 .LASF5287
C:\Users\SOLDER~1\AppData\Local\Temp\ccmjpsKj.s:24518  .debug_str:000000000000f1b7 .LASF5288
C:\Users\SOLDER~1\AppData\Local\Temp\ccmjpsKj.s:24896  .debug_str:0000000000010a76 .LASF5289
C:\Users\SOLDER~1\AppData\Local\Temp\ccmjpsKj.s:21788  .debug_str:0000000000004047 .LASF5290
C:\Users\SOLDER~1\AppData\Local\Temp\ccmjpsKj.s:22166  .debug_str:000000000000578b .LASF5291
C:\Users\SOLDER~1\AppData\Local\Temp\ccmjpsKj.s:21020  .debug_str:0000000000000f42 .LASF5292
C:\Users\SOLDER~1\AppData\Local\Temp\ccmjpsKj.s:25638  .debug_str:0000000000013a12 .LASF5293
C:\Users\SOLDER~1\AppData\Local\Temp\ccmjpsKj.s:29522  .debug_str:00000000000234b3 .LASF5294
C:\Users\SOLDER~1\AppData\Local\Temp\ccmjpsKj.s:26580  .debug_str:0000000000017748 .LASF5295
C:\Users\SOLDER~1\AppData\Local\Temp\ccmjpsKj.s:26488  .debug_str:00000000000170f5 .LASF5296
C:\Users\SOLDER~1\AppData\Local\Temp\ccmjpsKj.s:24448  .debug_str:000000000000ed2b .LASF5297
C:\Users\SOLDER~1\AppData\Local\Temp\ccmjpsKj.s:22542  .debug_str:00000000000070f1 .LASF5298
C:\Users\SOLDER~1\AppData\Local\Temp\ccmjpsKj.s:22798  .debug_str:0000000000008178 .LASF5299
C:\Users\SOLDER~1\AppData\Local\Temp\ccmjpsKj.s:31006  .debug_str:00000000000295a4 .LASF5300
GAS LISTING C:\Users\SOLDER~1\AppData\Local\Temp\ccmjpsKj.s 			page 146


C:\Users\SOLDER~1\AppData\Local\Temp\ccmjpsKj.s:26380  .debug_str:0000000000016a48 .LASF5301
C:\Users\SOLDER~1\AppData\Local\Temp\ccmjpsKj.s:23906  .debug_str:000000000000c9e2 .LASF5302
C:\Users\SOLDER~1\AppData\Local\Temp\ccmjpsKj.s:29666  .debug_str:0000000000023e0f .LASF5303
C:\Users\SOLDER~1\AppData\Local\Temp\ccmjpsKj.s:27768  .debug_str:000000000001c36c .LASF5304
C:\Users\SOLDER~1\AppData\Local\Temp\ccmjpsKj.s:27974  .debug_str:000000000001d146 .LASF5305
C:\Users\SOLDER~1\AppData\Local\Temp\ccmjpsKj.s:25046  .debug_str:000000000001141f .LASF5306
C:\Users\SOLDER~1\AppData\Local\Temp\ccmjpsKj.s:23578  .debug_str:000000000000b45f .LASF5307
C:\Users\SOLDER~1\AppData\Local\Temp\ccmjpsKj.s:28278  .debug_str:000000000001e4c7 .LASF5308
C:\Users\SOLDER~1\AppData\Local\Temp\ccmjpsKj.s:28640  .debug_str:000000000001fcb2 .LASF5309
C:\Users\SOLDER~1\AppData\Local\Temp\ccmjpsKj.s:23200  .debug_str:0000000000009b6a .LASF5310
C:\Users\SOLDER~1\AppData\Local\Temp\ccmjpsKj.s:31484  .debug_str:000000000002b4ad .LASF5311
C:\Users\SOLDER~1\AppData\Local\Temp\ccmjpsKj.s:30252  .debug_str:00000000000264a1 .LASF5312
C:\Users\SOLDER~1\AppData\Local\Temp\ccmjpsKj.s:21278  .debug_str:0000000000001fcb .LASF5313
C:\Users\SOLDER~1\AppData\Local\Temp\ccmjpsKj.s:25556  .debug_str:0000000000013493 .LASF5314
C:\Users\SOLDER~1\AppData\Local\Temp\ccmjpsKj.s:21848  .debug_str:00000000000043fb .LASF5315
C:\Users\SOLDER~1\AppData\Local\Temp\ccmjpsKj.s:25612  .debug_str:0000000000013855 .LASF5316
C:\Users\SOLDER~1\AppData\Local\Temp\ccmjpsKj.s:23320  .debug_str:000000000000a363 .LASF5317
C:\Users\SOLDER~1\AppData\Local\Temp\ccmjpsKj.s:29314  .debug_str:000000000002273d .LASF5318
C:\Users\SOLDER~1\AppData\Local\Temp\ccmjpsKj.s:26246  .debug_str:00000000000161eb .LASF5319
C:\Users\SOLDER~1\AppData\Local\Temp\ccmjpsKj.s:31136  .debug_str:0000000000029de0 .LASF5320
C:\Users\SOLDER~1\AppData\Local\Temp\ccmjpsKj.s:26946  .debug_str:0000000000018f06 .LASF5321
C:\Users\SOLDER~1\AppData\Local\Temp\ccmjpsKj.s:30572  .debug_str:00000000000279dd .LASF5322
C:\Users\SOLDER~1\AppData\Local\Temp\ccmjpsKj.s:28386  .debug_str:000000000001ec0b .LASF5323
C:\Users\SOLDER~1\AppData\Local\Temp\ccmjpsKj.s:25406  .debug_str:0000000000012aa9 .LASF5324
C:\Users\SOLDER~1\AppData\Local\Temp\ccmjpsKj.s:26574  .debug_str:00000000000176d3 .LASF5325
C:\Users\SOLDER~1\AppData\Local\Temp\ccmjpsKj.s:28040  .debug_str:000000000001d5ca .LASF5326
C:\Users\SOLDER~1\AppData\Local\Temp\ccmjpsKj.s:21184  .debug_str:00000000000019a5 .LASF5327
C:\Users\SOLDER~1\AppData\Local\Temp\ccmjpsKj.s:29584  .debug_str:0000000000023908 .LASF5328
C:\Users\SOLDER~1\AppData\Local\Temp\ccmjpsKj.s:24836  .debug_str:00000000000106b4 .LASF5329
C:\Users\SOLDER~1\AppData\Local\Temp\ccmjpsKj.s:22524  .debug_str:0000000000006fc3 .LASF5330
C:\Users\SOLDER~1\AppData\Local\Temp\ccmjpsKj.s:22076  .debug_str:0000000000005233 .LASF5331
C:\Users\SOLDER~1\AppData\Local\Temp\ccmjpsKj.s:24952  .debug_str:0000000000010e02 .LASF5332
C:\Users\SOLDER~1\AppData\Local\Temp\ccmjpsKj.s:23046  .debug_str:0000000000009196 .LASF5333
C:\Users\SOLDER~1\AppData\Local\Temp\ccmjpsKj.s:29952  .debug_str:0000000000025111 .LASF5334
C:\Users\SOLDER~1\AppData\Local\Temp\ccmjpsKj.s:31012  .debug_str:0000000000029612 .LASF5335
C:\Users\SOLDER~1\AppData\Local\Temp\ccmjpsKj.s:22198  .debug_str:00000000000059da .LASF5336
C:\Users\SOLDER~1\AppData\Local\Temp\ccmjpsKj.s:26240  .debug_str:0000000000016189 .LASF5337
C:\Users\SOLDER~1\AppData\Local\Temp\ccmjpsKj.s:23802  .debug_str:000000000000c297 .LASF5338
C:\Users\SOLDER~1\AppData\Local\Temp\ccmjpsKj.s:22702  .debug_str:0000000000007af0 .LASF5339
C:\Users\SOLDER~1\AppData\Local\Temp\ccmjpsKj.s:22580  .debug_str:0000000000007364 .LASF5340
C:\Users\SOLDER~1\AppData\Local\Temp\ccmjpsKj.s:29164  .debug_str:0000000000021e26 .LASF5341
C:\Users\SOLDER~1\AppData\Local\Temp\ccmjpsKj.s:27188  .debug_str:0000000000019e80 .LASF5342
C:\Users\SOLDER~1\AppData\Local\Temp\ccmjpsKj.s:30584  .debug_str:0000000000027a9f .LASF5343
C:\Users\SOLDER~1\AppData\Local\Temp\ccmjpsKj.s:32444  .debug_str:000000000002f241 .LASF5344
C:\Users\SOLDER~1\AppData\Local\Temp\ccmjpsKj.s:29376  .debug_str:0000000000022b62 .LASF5345
C:\Users\SOLDER~1\AppData\Local\Temp\ccmjpsKj.s:31908  .debug_str:000000000002cfd2 .LASF5346
C:\Users\SOLDER~1\AppData\Local\Temp\ccmjpsKj.s:21662  .debug_str:0000000000003864 .LASF5347
C:\Users\SOLDER~1\AppData\Local\Temp\ccmjpsKj.s:31546  .debug_str:000000000002b869 .LASF5348
C:\Users\SOLDER~1\AppData\Local\Temp\ccmjpsKj.s:31984  .debug_str:000000000002d50f .LASF5349
C:\Users\SOLDER~1\AppData\Local\Temp\ccmjpsKj.s:26714  .debug_str:0000000000017fe1 .LASF5350
C:\Users\SOLDER~1\AppData\Local\Temp\ccmjpsKj.s:21546  .debug_str:00000000000030f0 .LASF5351
C:\Users\SOLDER~1\AppData\Local\Temp\ccmjpsKj.s:23922  .debug_str:000000000000cb1a .LASF5352
C:\Users\SOLDER~1\AppData\Local\Temp\ccmjpsKj.s:22356  .debug_str:0000000000006451 .LASF5353
C:\Users\SOLDER~1\AppData\Local\Temp\ccmjpsKj.s:30986  .debug_str:0000000000029451 .LASF5354
C:\Users\SOLDER~1\AppData\Local\Temp\ccmjpsKj.s:31938  .debug_str:000000000002d1cf .LASF5355
C:\Users\SOLDER~1\AppData\Local\Temp\ccmjpsKj.s:29298  .debug_str:0000000000022614 .LASF5356
C:\Users\SOLDER~1\AppData\Local\Temp\ccmjpsKj.s:25036  .debug_str:0000000000011371 .LASF5357
GAS LISTING C:\Users\SOLDER~1\AppData\Local\Temp\ccmjpsKj.s 			page 147


C:\Users\SOLDER~1\AppData\Local\Temp\ccmjpsKj.s:22188  .debug_str:0000000000005929 .LASF5358
C:\Users\SOLDER~1\AppData\Local\Temp\ccmjpsKj.s:24080  .debug_str:000000000000d58d .LASF5359
C:\Users\SOLDER~1\AppData\Local\Temp\ccmjpsKj.s:26148  .debug_str:0000000000015be3 .LASF5360
C:\Users\SOLDER~1\AppData\Local\Temp\ccmjpsKj.s:25840  .debug_str:0000000000014844 .LASF5361
C:\Users\SOLDER~1\AppData\Local\Temp\ccmjpsKj.s:30734  .debug_str:0000000000028480 .LASF5362
C:\Users\SOLDER~1\AppData\Local\Temp\ccmjpsKj.s:21610  .debug_str:0000000000003528 .LASF5363
C:\Users\SOLDER~1\AppData\Local\Temp\ccmjpsKj.s:25764  .debug_str:00000000000142eb .LASF5364
C:\Users\SOLDER~1\AppData\Local\Temp\ccmjpsKj.s:27282  .debug_str:000000000001a459 .LASF5365
C:\Users\SOLDER~1\AppData\Local\Temp\ccmjpsKj.s:21514  .debug_str:0000000000002eeb .LASF5366
C:\Users\SOLDER~1\AppData\Local\Temp\ccmjpsKj.s:22764  .debug_str:0000000000007f12 .LASF5367
C:\Users\SOLDER~1\AppData\Local\Temp\ccmjpsKj.s:27262  .debug_str:000000000001a324 .LASF5368
C:\Users\SOLDER~1\AppData\Local\Temp\ccmjpsKj.s:26296  .debug_str:0000000000016539 .LASF5369
C:\Users\SOLDER~1\AppData\Local\Temp\ccmjpsKj.s:29864  .debug_str:0000000000024b3e .LASF5370
C:\Users\SOLDER~1\AppData\Local\Temp\ccmjpsKj.s:25312  .debug_str:00000000000124e6 .LASF5371
C:\Users\SOLDER~1\AppData\Local\Temp\ccmjpsKj.s:31684  .debug_str:000000000002c148 .LASF5372
C:\Users\SOLDER~1\AppData\Local\Temp\ccmjpsKj.s:25852  .debug_str:000000000001490e .LASF5373
C:\Users\SOLDER~1\AppData\Local\Temp\ccmjpsKj.s:24078  .debug_str:000000000000d56d .LASF5374
C:\Users\SOLDER~1\AppData\Local\Temp\ccmjpsKj.s:25192  .debug_str:0000000000011d61 .LASF5375
C:\Users\SOLDER~1\AppData\Local\Temp\ccmjpsKj.s:30198  .debug_str:00000000000260d8 .LASF5376
C:\Users\SOLDER~1\AppData\Local\Temp\ccmjpsKj.s:24728  .debug_str:000000000000ffc8 .LASF5377
C:\Users\SOLDER~1\AppData\Local\Temp\ccmjpsKj.s:23586  .debug_str:000000000000b4f1 .LASF5378
C:\Users\SOLDER~1\AppData\Local\Temp\ccmjpsKj.s:25514  .debug_str:00000000000131cb .LASF5379
C:\Users\SOLDER~1\AppData\Local\Temp\ccmjpsKj.s:24560  .debug_str:000000000000f450 .LASF5380
C:\Users\SOLDER~1\AppData\Local\Temp\ccmjpsKj.s:21690  .debug_str:0000000000003a1f .LASF5381
C:\Users\SOLDER~1\AppData\Local\Temp\ccmjpsKj.s:23372  .debug_str:000000000000a71a .LASF5382
C:\Users\SOLDER~1\AppData\Local\Temp\ccmjpsKj.s:21854  .debug_str:0000000000004473 .LASF5383
C:\Users\SOLDER~1\AppData\Local\Temp\ccmjpsKj.s:31898  .debug_str:000000000002cf2f .LASF5384
C:\Users\SOLDER~1\AppData\Local\Temp\ccmjpsKj.s:23216  .debug_str:0000000000009c60 .LASF5385
C:\Users\SOLDER~1\AppData\Local\Temp\ccmjpsKj.s:31702  .debug_str:000000000002c29a .LASF5386
C:\Users\SOLDER~1\AppData\Local\Temp\ccmjpsKj.s:26480  .debug_str:000000000001706a .LASF5387
C:\Users\SOLDER~1\AppData\Local\Temp\ccmjpsKj.s:27276  .debug_str:000000000001a403 .LASF5388
C:\Users\SOLDER~1\AppData\Local\Temp\ccmjpsKj.s:26088  .debug_str:0000000000015877 .LASF5389
C:\Users\SOLDER~1\AppData\Local\Temp\ccmjpsKj.s:29116  .debug_str:0000000000021b33 .LASF5390
C:\Users\SOLDER~1\AppData\Local\Temp\ccmjpsKj.s:30250  .debug_str:000000000002647b .LASF5391
C:\Users\SOLDER~1\AppData\Local\Temp\ccmjpsKj.s:23664  .debug_str:000000000000b990 .LASF5392
C:\Users\SOLDER~1\AppData\Local\Temp\ccmjpsKj.s:22516  .debug_str:0000000000006f0f .LASF5393
C:\Users\SOLDER~1\AppData\Local\Temp\ccmjpsKj.s:23090  .debug_str:0000000000009475 .LASF5394
C:\Users\SOLDER~1\AppData\Local\Temp\ccmjpsKj.s:23672  .debug_str:000000000000b9f9 .LASF5395
C:\Users\SOLDER~1\AppData\Local\Temp\ccmjpsKj.s:24616  .debug_str:000000000000f7f5 .LASF5396
C:\Users\SOLDER~1\AppData\Local\Temp\ccmjpsKj.s:27396  .debug_str:000000000001abea .LASF5397
C:\Users\SOLDER~1\AppData\Local\Temp\ccmjpsKj.s:28004  .debug_str:000000000001d320 .LASF5398
C:\Users\SOLDER~1\AppData\Local\Temp\ccmjpsKj.s:31828  .debug_str:000000000002cae9 .LASF5399
C:\Users\SOLDER~1\AppData\Local\Temp\ccmjpsKj.s:23816  .debug_str:000000000000c382 .LASF5400
C:\Users\SOLDER~1\AppData\Local\Temp\ccmjpsKj.s:27924  .debug_str:000000000001cdf1 .LASF5401
C:\Users\SOLDER~1\AppData\Local\Temp\ccmjpsKj.s:24654  .debug_str:000000000000faa6 .LASF5402
C:\Users\SOLDER~1\AppData\Local\Temp\ccmjpsKj.s:26486  .debug_str:00000000000170ca .LASF5403
C:\Users\SOLDER~1\AppData\Local\Temp\ccmjpsKj.s:23992  .debug_str:000000000000cfd1 .LASF5404
C:\Users\SOLDER~1\AppData\Local\Temp\ccmjpsKj.s:23214  .debug_str:0000000000009c3d .LASF5405
C:\Users\SOLDER~1\AppData\Local\Temp\ccmjpsKj.s:30074  .debug_str:00000000000258ab .LASF5406
C:\Users\SOLDER~1\AppData\Local\Temp\ccmjpsKj.s:24734  .debug_str:000000000001002b .LASF5407
C:\Users\SOLDER~1\AppData\Local\Temp\ccmjpsKj.s:32142  .debug_str:000000000002dee3 .LASF5408
C:\Users\SOLDER~1\AppData\Local\Temp\ccmjpsKj.s:28378  .debug_str:000000000001eb5f .LASF5409
C:\Users\SOLDER~1\AppData\Local\Temp\ccmjpsKj.s:20946  .debug_str:0000000000000a45 .LASF5410
C:\Users\SOLDER~1\AppData\Local\Temp\ccmjpsKj.s:25696  .debug_str:0000000000013e59 .LASF5411
C:\Users\SOLDER~1\AppData\Local\Temp\ccmjpsKj.s:23552  .debug_str:000000000000b29c .LASF5412
C:\Users\SOLDER~1\AppData\Local\Temp\ccmjpsKj.s:27428  .debug_str:000000000001adc7 .LASF5413
C:\Users\SOLDER~1\AppData\Local\Temp\ccmjpsKj.s:32164  .debug_str:000000000002e063 .LASF5414
GAS LISTING C:\Users\SOLDER~1\AppData\Local\Temp\ccmjpsKj.s 			page 148


C:\Users\SOLDER~1\AppData\Local\Temp\ccmjpsKj.s:26518  .debug_str:00000000000172f3 .LASF5415
C:\Users\SOLDER~1\AppData\Local\Temp\ccmjpsKj.s:31262  .debug_str:000000000002a67b .LASF5416
C:\Users\SOLDER~1\AppData\Local\Temp\ccmjpsKj.s:24384  .debug_str:000000000000e940 .LASF5417
C:\Users\SOLDER~1\AppData\Local\Temp\ccmjpsKj.s:27648  .debug_str:000000000001bba0 .LASF5418
C:\Users\SOLDER~1\AppData\Local\Temp\ccmjpsKj.s:24128  .debug_str:000000000000d8b3 .LASF5419
C:\Users\SOLDER~1\AppData\Local\Temp\ccmjpsKj.s:30380  .debug_str:0000000000026d5e .LASF5420
C:\Users\SOLDER~1\AppData\Local\Temp\ccmjpsKj.s:29718  .debug_str:000000000002418b .LASF5421
C:\Users\SOLDER~1\AppData\Local\Temp\ccmjpsKj.s:31674  .debug_str:000000000002c094 .LASF5422
C:\Users\SOLDER~1\AppData\Local\Temp\ccmjpsKj.s:24016  .debug_str:000000000000d147 .LASF5423
C:\Users\SOLDER~1\AppData\Local\Temp\ccmjpsKj.s:29660  .debug_str:0000000000023da5 .LASF5424
C:\Users\SOLDER~1\AppData\Local\Temp\ccmjpsKj.s:26856  .debug_str:000000000001894a .LASF5425
C:\Users\SOLDER~1\AppData\Local\Temp\ccmjpsKj.s:32420  .debug_str:000000000002f0ca .LASF5426
C:\Users\SOLDER~1\AppData\Local\Temp\ccmjpsKj.s:27454  .debug_str:000000000001afd4 .LASF5427
C:\Users\SOLDER~1\AppData\Local\Temp\ccmjpsKj.s:24816  .debug_str:000000000001054b .LASF5428
C:\Users\SOLDER~1\AppData\Local\Temp\ccmjpsKj.s:24378  .debug_str:000000000000e8d4 .LASF5429
C:\Users\SOLDER~1\AppData\Local\Temp\ccmjpsKj.s:23410  .debug_str:000000000000a98a .LASF5430
C:\Users\SOLDER~1\AppData\Local\Temp\ccmjpsKj.s:25824  .debug_str:000000000001471f .LASF5431
C:\Users\SOLDER~1\AppData\Local\Temp\ccmjpsKj.s:24054  .debug_str:000000000000d3ca .LASF5432
C:\Users\SOLDER~1\AppData\Local\Temp\ccmjpsKj.s:29030  .debug_str:00000000000215e6 .LASF5433
C:\Users\SOLDER~1\AppData\Local\Temp\ccmjpsKj.s:28800  .debug_str:00000000000206d1 .LASF5434
C:\Users\SOLDER~1\AppData\Local\Temp\ccmjpsKj.s:25908  .debug_str:0000000000014cb0 .LASF5435
C:\Users\SOLDER~1\AppData\Local\Temp\ccmjpsKj.s:25142  .debug_str:0000000000011a1d .LASF5436
C:\Users\SOLDER~1\AppData\Local\Temp\ccmjpsKj.s:29040  .debug_str:0000000000021672 .LASF5437
C:\Users\SOLDER~1\AppData\Local\Temp\ccmjpsKj.s:28958  .debug_str:000000000002112d .LASF5438
C:\Users\SOLDER~1\AppData\Local\Temp\ccmjpsKj.s:22528  .debug_str:0000000000007001 .LASF5439
C:\Users\SOLDER~1\AppData\Local\Temp\ccmjpsKj.s:24802  .debug_str:000000000001043c .LASF5440
C:\Users\SOLDER~1\AppData\Local\Temp\ccmjpsKj.s:30692  .debug_str:00000000000281aa .LASF5441
C:\Users\SOLDER~1\AppData\Local\Temp\ccmjpsKj.s:31260  .debug_str:000000000002a659 .LASF5442
C:\Users\SOLDER~1\AppData\Local\Temp\ccmjpsKj.s:27724  .debug_str:000000000001c09f .LASF5443
C:\Users\SOLDER~1\AppData\Local\Temp\ccmjpsKj.s:32228  .debug_str:000000000002e46c .LASF5444
C:\Users\SOLDER~1\AppData\Local\Temp\ccmjpsKj.s:31710  .debug_str:000000000002c327 .LASF5445
C:\Users\SOLDER~1\AppData\Local\Temp\ccmjpsKj.s:29532  .debug_str:0000000000023559 .LASF5446
C:\Users\SOLDER~1\AppData\Local\Temp\ccmjpsKj.s:21168  .debug_str:00000000000018bc .LASF5447
C:\Users\SOLDER~1\AppData\Local\Temp\ccmjpsKj.s:25594  .debug_str:0000000000013729 .LASF5448
C:\Users\SOLDER~1\AppData\Local\Temp\ccmjpsKj.s:25308  .debug_str:000000000001249d .LASF5449
C:\Users\SOLDER~1\AppData\Local\Temp\ccmjpsKj.s:24820  .debug_str:0000000000010595 .LASF5450
C:\Users\SOLDER~1\AppData\Local\Temp\ccmjpsKj.s:21296  .debug_str:00000000000020de .LASF5451
C:\Users\SOLDER~1\AppData\Local\Temp\ccmjpsKj.s:21022  .debug_str:0000000000000f75 .LASF5452
C:\Users\SOLDER~1\AppData\Local\Temp\ccmjpsKj.s:31360  .debug_str:000000000002ac7e .LASF5453
C:\Users\SOLDER~1\AppData\Local\Temp\ccmjpsKj.s:31976  .debug_str:000000000002d47d .LASF5454
C:\Users\SOLDER~1\AppData\Local\Temp\ccmjpsKj.s:28436  .debug_str:000000000001ef39 .LASF5455
C:\Users\SOLDER~1\AppData\Local\Temp\ccmjpsKj.s:25114  .debug_str:0000000000011891 .LASF5456
C:\Users\SOLDER~1\AppData\Local\Temp\ccmjpsKj.s:22544  .debug_str:000000000000711a .LASF5457
C:\Users\SOLDER~1\AppData\Local\Temp\ccmjpsKj.s:27772  .debug_str:000000000001c3d0 .LASF5458
C:\Users\SOLDER~1\AppData\Local\Temp\ccmjpsKj.s:25458  .debug_str:0000000000012e26 .LASF5459
C:\Users\SOLDER~1\AppData\Local\Temp\ccmjpsKj.s:32390  .debug_str:000000000002ef08 .LASF5460
C:\Users\SOLDER~1\AppData\Local\Temp\ccmjpsKj.s:24132  .debug_str:000000000000d8f8 .LASF5461
C:\Users\SOLDER~1\AppData\Local\Temp\ccmjpsKj.s:29326  .debug_str:000000000002280f .LASF5462
C:\Users\SOLDER~1\AppData\Local\Temp\ccmjpsKj.s:24062  .debug_str:000000000000d442 .LASF5463
C:\Users\SOLDER~1\AppData\Local\Temp\ccmjpsKj.s:30334  .debug_str:0000000000026a27 .LASF5464
C:\Users\SOLDER~1\AppData\Local\Temp\ccmjpsKj.s:24074  .debug_str:000000000000d520 .LASF5465
C:\Users\SOLDER~1\AppData\Local\Temp\ccmjpsKj.s:31180  .debug_str:000000000002a0f4 .LASF5466
C:\Users\SOLDER~1\AppData\Local\Temp\ccmjpsKj.s:31562  .debug_str:000000000002b971 .LASF5467
C:\Users\SOLDER~1\AppData\Local\Temp\ccmjpsKj.s:29352  .debug_str:00000000000229bd .LASF5468
C:\Users\SOLDER~1\AppData\Local\Temp\ccmjpsKj.s:30594  .debug_str:0000000000027b49 .LASF5469
C:\Users\SOLDER~1\AppData\Local\Temp\ccmjpsKj.s:26010  .debug_str:0000000000015337 .LASF5470
C:\Users\SOLDER~1\AppData\Local\Temp\ccmjpsKj.s:32144  .debug_str:000000000002df07 .LASF5471
GAS LISTING C:\Users\SOLDER~1\AppData\Local\Temp\ccmjpsKj.s 			page 149


C:\Users\SOLDER~1\AppData\Local\Temp\ccmjpsKj.s:26844  .debug_str:0000000000018853 .LASF5472
C:\Users\SOLDER~1\AppData\Local\Temp\ccmjpsKj.s:25890  .debug_str:0000000000014b59 .LASF5473
C:\Users\SOLDER~1\AppData\Local\Temp\ccmjpsKj.s:25690  .debug_str:0000000000013dd9 .LASF5474
C:\Users\SOLDER~1\AppData\Local\Temp\ccmjpsKj.s:23274  .debug_str:000000000000a054 .LASF5475
C:\Users\SOLDER~1\AppData\Local\Temp\ccmjpsKj.s:28036  .debug_str:000000000001d581 .LASF5476
C:\Users\SOLDER~1\AppData\Local\Temp\ccmjpsKj.s:23406  .debug_str:000000000000a93c .LASF5477
C:\Users\SOLDER~1\AppData\Local\Temp\ccmjpsKj.s:30204  .debug_str:000000000002613c .LASF5478
C:\Users\SOLDER~1\AppData\Local\Temp\ccmjpsKj.s:21518  .debug_str:0000000000002f21 .LASF5479
C:\Users\SOLDER~1\AppData\Local\Temp\ccmjpsKj.s:21962  .debug_str:0000000000004b30 .LASF5480
C:\Users\SOLDER~1\AppData\Local\Temp\ccmjpsKj.s:23520  .debug_str:000000000000b0a9 .LASF5481
C:\Users\SOLDER~1\AppData\Local\Temp\ccmjpsKj.s:27050  .debug_str:00000000000195c1 .LASF5482
C:\Users\SOLDER~1\AppData\Local\Temp\ccmjpsKj.s:24088  .debug_str:000000000000d61a .LASF5483
C:\Users\SOLDER~1\AppData\Local\Temp\ccmjpsKj.s:21864  .debug_str:0000000000004515 .LASF5484
C:\Users\SOLDER~1\AppData\Local\Temp\ccmjpsKj.s:30766  .debug_str:000000000002865c .LASF5485
C:\Users\SOLDER~1\AppData\Local\Temp\ccmjpsKj.s:23550  .debug_str:000000000000b27d .LASF5486
C:\Users\SOLDER~1\AppData\Local\Temp\ccmjpsKj.s:28150  .debug_str:000000000001dc83 .LASF5487
C:\Users\SOLDER~1\AppData\Local\Temp\ccmjpsKj.s:30698  .debug_str:00000000000281ed .LASF5488
C:\Users\SOLDER~1\AppData\Local\Temp\ccmjpsKj.s:27890  .debug_str:000000000001cb84 .LASF5489
C:\Users\SOLDER~1\AppData\Local\Temp\ccmjpsKj.s:32348  .debug_str:000000000002ec29 .LASF5490
C:\Users\SOLDER~1\AppData\Local\Temp\ccmjpsKj.s:32366  .debug_str:000000000002ed72 .LASF5491
C:\Users\SOLDER~1\AppData\Local\Temp\ccmjpsKj.s:27424  .debug_str:000000000001ad90 .LASF5492
C:\Users\SOLDER~1\AppData\Local\Temp\ccmjpsKj.s:27100  .debug_str:000000000001996b .LASF5493
C:\Users\SOLDER~1\AppData\Local\Temp\ccmjpsKj.s:32026  .debug_str:000000000002d7c6 .LASF5494
C:\Users\SOLDER~1\AppData\Local\Temp\ccmjpsKj.s:21040  .debug_str:0000000000001080 .LASF5495
C:\Users\SOLDER~1\AppData\Local\Temp\ccmjpsKj.s:29408  .debug_str:0000000000022d95 .LASF5496
C:\Users\SOLDER~1\AppData\Local\Temp\ccmjpsKj.s:20942  .debug_str:00000000000009ff .LASF5497
C:\Users\SOLDER~1\AppData\Local\Temp\ccmjpsKj.s:25718  .debug_str:0000000000013fcd .LASF5498
C:\Users\SOLDER~1\AppData\Local\Temp\ccmjpsKj.s:25078  .debug_str:0000000000011612 .LASF5499
C:\Users\SOLDER~1\AppData\Local\Temp\ccmjpsKj.s:29866  .debug_str:0000000000024b60 .LASF5500
C:\Users\SOLDER~1\AppData\Local\Temp\ccmjpsKj.s:21060  .debug_str:00000000000011c3 .LASF5501
C:\Users\SOLDER~1\AppData\Local\Temp\ccmjpsKj.s:26546  .debug_str:0000000000017507 .LASF5502
C:\Users\SOLDER~1\AppData\Local\Temp\ccmjpsKj.s:27736  .debug_str:000000000001c16e .LASF5503
C:\Users\SOLDER~1\AppData\Local\Temp\ccmjpsKj.s:22634  .debug_str:00000000000076bd .LASF5504
C:\Users\SOLDER~1\AppData\Local\Temp\ccmjpsKj.s:23168  .debug_str:0000000000009976 .LASF5505
C:\Users\SOLDER~1\AppData\Local\Temp\ccmjpsKj.s:25434  .debug_str:0000000000012c84 .LASF5506
C:\Users\SOLDER~1\AppData\Local\Temp\ccmjpsKj.s:27242  .debug_str:000000000001a1c8 .LASF5507
C:\Users\SOLDER~1\AppData\Local\Temp\ccmjpsKj.s:27096  .debug_str:0000000000019919 .LASF5508
C:\Users\SOLDER~1\AppData\Local\Temp\ccmjpsKj.s:27358  .debug_str:000000000001a94a .LASF5509
C:\Users\SOLDER~1\AppData\Local\Temp\ccmjpsKj.s:28556  .debug_str:000000000001f74f .LASF5510
C:\Users\SOLDER~1\AppData\Local\Temp\ccmjpsKj.s:25328  .debug_str:00000000000125ce .LASF5511
C:\Users\SOLDER~1\AppData\Local\Temp\ccmjpsKj.s:31458  .debug_str:000000000002b2aa .LASF5512
C:\Users\SOLDER~1\AppData\Local\Temp\ccmjpsKj.s:23026  .debug_str:0000000000009009 .LASF5513
C:\Users\SOLDER~1\AppData\Local\Temp\ccmjpsKj.s:29020  .debug_str:0000000000021544 .LASF5514
C:\Users\SOLDER~1\AppData\Local\Temp\ccmjpsKj.s:24714  .debug_str:000000000000fed7 .LASF5515
C:\Users\SOLDER~1\AppData\Local\Temp\ccmjpsKj.s:21968  .debug_str:0000000000004b9d .LASF5516
C:\Users\SOLDER~1\AppData\Local\Temp\ccmjpsKj.s:26952  .debug_str:0000000000018f74 .LASF5517
C:\Users\SOLDER~1\AppData\Local\Temp\ccmjpsKj.s:22258  .debug_str:0000000000005dc4 .LASF5518
C:\Users\SOLDER~1\AppData\Local\Temp\ccmjpsKj.s:22664  .debug_str:0000000000007868 .LASF5519
C:\Users\SOLDER~1\AppData\Local\Temp\ccmjpsKj.s:23322  .debug_str:000000000000a38e .LASF5520
C:\Users\SOLDER~1\AppData\Local\Temp\ccmjpsKj.s:29484  .debug_str:0000000000023229 .LASF5521
C:\Users\SOLDER~1\AppData\Local\Temp\ccmjpsKj.s:28140  .debug_str:000000000001dbd3 .LASF5522
C:\Users\SOLDER~1\AppData\Local\Temp\ccmjpsKj.s:20908  .debug_str:0000000000000785 .LASF5523
C:\Users\SOLDER~1\AppData\Local\Temp\ccmjpsKj.s:24940  .debug_str:0000000000010d4b .LASF5524
C:\Users\SOLDER~1\AppData\Local\Temp\ccmjpsKj.s:32000  .debug_str:000000000002d610 .LASF5525
C:\Users\SOLDER~1\AppData\Local\Temp\ccmjpsKj.s:22016  .debug_str:0000000000004eaa .LASF5526
C:\Users\SOLDER~1\AppData\Local\Temp\ccmjpsKj.s:29696  .debug_str:000000000002400d .LASF5527
C:\Users\SOLDER~1\AppData\Local\Temp\ccmjpsKj.s:30652  .debug_str:0000000000027ecf .LASF5528
GAS LISTING C:\Users\SOLDER~1\AppData\Local\Temp\ccmjpsKj.s 			page 150


C:\Users\SOLDER~1\AppData\Local\Temp\ccmjpsKj.s:29204  .debug_str:0000000000022087 .LASF5529
C:\Users\SOLDER~1\AppData\Local\Temp\ccmjpsKj.s:29154  .debug_str:0000000000021d75 .LASF5530
C:\Users\SOLDER~1\AppData\Local\Temp\ccmjpsKj.s:28756  .debug_str:00000000000203ee .LASF5531
C:\Users\SOLDER~1\AppData\Local\Temp\ccmjpsKj.s:21244  .debug_str:0000000000001dae .LASF5532
C:\Users\SOLDER~1\AppData\Local\Temp\ccmjpsKj.s:30934  .debug_str:000000000002910e .LASF5533
C:\Users\SOLDER~1\AppData\Local\Temp\ccmjpsKj.s:28012  .debug_str:000000000001d3cd .LASF5534
C:\Users\SOLDER~1\AppData\Local\Temp\ccmjpsKj.s:31946  .debug_str:000000000002d256 .LASF5535
C:\Users\SOLDER~1\AppData\Local\Temp\ccmjpsKj.s:22482  .debug_str:0000000000006ca3 .LASF5536
C:\Users\SOLDER~1\AppData\Local\Temp\ccmjpsKj.s:23800  .debug_str:000000000000c270 .LASF5537
C:\Users\SOLDER~1\AppData\Local\Temp\ccmjpsKj.s:31176  .debug_str:000000000002a0a7 .LASF5538
C:\Users\SOLDER~1\AppData\Local\Temp\ccmjpsKj.s:26956  .debug_str:0000000000018faf .LASF5539
C:\Users\SOLDER~1\AppData\Local\Temp\ccmjpsKj.s:29810  .debug_str:000000000002479a .LASF5540
C:\Users\SOLDER~1\AppData\Local\Temp\ccmjpsKj.s:28190  .debug_str:000000000001df21 .LASF5541
C:\Users\SOLDER~1\AppData\Local\Temp\ccmjpsKj.s:26492  .debug_str:0000000000017134 .LASF5542
C:\Users\SOLDER~1\AppData\Local\Temp\ccmjpsKj.s:22142  .debug_str:00000000000055fb .LASF5543
C:\Users\SOLDER~1\AppData\Local\Temp\ccmjpsKj.s:26352  .debug_str:00000000000168ba .LASF5544
C:\Users\SOLDER~1\AppData\Local\Temp\ccmjpsKj.s:30328  .debug_str:00000000000269be .LASF5545
C:\Users\SOLDER~1\AppData\Local\Temp\ccmjpsKj.s:25112  .debug_str:0000000000011871 .LASF5546
C:\Users\SOLDER~1\AppData\Local\Temp\ccmjpsKj.s:27502  .debug_str:000000000001b2e3 .LASF5547
C:\Users\SOLDER~1\AppData\Local\Temp\ccmjpsKj.s:20898  .debug_str:00000000000006f6 .LASF5548
C:\Users\SOLDER~1\AppData\Local\Temp\ccmjpsKj.s:23442  .debug_str:000000000000abb3 .LASF5549
C:\Users\SOLDER~1\AppData\Local\Temp\ccmjpsKj.s:28256  .debug_str:000000000001e36e .LASF5550
C:\Users\SOLDER~1\AppData\Local\Temp\ccmjpsKj.s:25410  .debug_str:0000000000012af9 .LASF5551
C:\Users\SOLDER~1\AppData\Local\Temp\ccmjpsKj.s:25670  .debug_str:0000000000013c47 .LASF5552
C:\Users\SOLDER~1\AppData\Local\Temp\ccmjpsKj.s:23836  .debug_str:000000000000c509 .LASF5553
C:\Users\SOLDER~1\AppData\Local\Temp\ccmjpsKj.s:28960  .debug_str:000000000002114b .LASF5554
C:\Users\SOLDER~1\AppData\Local\Temp\ccmjpsKj.s:28382  .debug_str:000000000001ebaa .LASF5555
C:\Users\SOLDER~1\AppData\Local\Temp\ccmjpsKj.s:30848  .debug_str:0000000000028bc5 .LASF5556
C:\Users\SOLDER~1\AppData\Local\Temp\ccmjpsKj.s:31564  .debug_str:000000000002b9a2 .LASF5557
C:\Users\SOLDER~1\AppData\Local\Temp\ccmjpsKj.s:32174  .debug_str:000000000002e114 .LASF5558
C:\Users\SOLDER~1\AppData\Local\Temp\ccmjpsKj.s:26358  .debug_str:00000000000168fe .LASF5559
C:\Users\SOLDER~1\AppData\Local\Temp\ccmjpsKj.s:27952  .debug_str:000000000001cfc8 .LASF5560
C:\Users\SOLDER~1\AppData\Local\Temp\ccmjpsKj.s:29558  .debug_str:0000000000023752 .LASF5561
C:\Users\SOLDER~1\AppData\Local\Temp\ccmjpsKj.s:24976  .debug_str:0000000000010f7a .LASF5562
C:\Users\SOLDER~1\AppData\Local\Temp\ccmjpsKj.s:26852  .debug_str:00000000000188f8 .LASF5563
C:\Users\SOLDER~1\AppData\Local\Temp\ccmjpsKj.s:22884  .debug_str:0000000000008693 .LASF5564
C:\Users\SOLDER~1\AppData\Local\Temp\ccmjpsKj.s:25650  .debug_str:0000000000013ac4 .LASF5565
C:\Users\SOLDER~1\AppData\Local\Temp\ccmjpsKj.s:23930  .debug_str:000000000000cba7 .LASF5566
C:\Users\SOLDER~1\AppData\Local\Temp\ccmjpsKj.s:31478  .debug_str:000000000002b429 .LASF5567
C:\Users\SOLDER~1\AppData\Local\Temp\ccmjpsKj.s:23360  .debug_str:000000000000a614 .LASF5568
C:\Users\SOLDER~1\AppData\Local\Temp\ccmjpsKj.s:28988  .debug_str:00000000000212fd .LASF5569
C:\Users\SOLDER~1\AppData\Local\Temp\ccmjpsKj.s:25478  .debug_str:0000000000012f7b .LASF5570
C:\Users\SOLDER~1\AppData\Local\Temp\ccmjpsKj.s:29824  .debug_str:0000000000024896 .LASF5571
C:\Users\SOLDER~1\AppData\Local\Temp\ccmjpsKj.s:25964  .debug_str:000000000001507d .LASF5572
C:\Users\SOLDER~1\AppData\Local\Temp\ccmjpsKj.s:29368  .debug_str:0000000000022ad7 .LASF5573
C:\Users\SOLDER~1\AppData\Local\Temp\ccmjpsKj.s:32392  .debug_str:000000000002ef2c .LASF5574
C:\Users\SOLDER~1\AppData\Local\Temp\ccmjpsKj.s:31738  .debug_str:000000000002c53d .LASF5575
C:\Users\SOLDER~1\AppData\Local\Temp\ccmjpsKj.s:31028  .debug_str:0000000000029718 .LASF5576
C:\Users\SOLDER~1\AppData\Local\Temp\ccmjpsKj.s:22494  .debug_str:0000000000006d7c .LASF5577
C:\Users\SOLDER~1\AppData\Local\Temp\ccmjpsKj.s:25962  .debug_str:0000000000015057 .LASF5578
C:\Users\SOLDER~1\AppData\Local\Temp\ccmjpsKj.s:22490  .debug_str:0000000000006d3f .LASF5579
C:\Users\SOLDER~1\AppData\Local\Temp\ccmjpsKj.s:29506  .debug_str:00000000000233b3 .LASF5580
C:\Users\SOLDER~1\AppData\Local\Temp\ccmjpsKj.s:31556  .debug_str:000000000002b912 .LASF5581
C:\Users\SOLDER~1\AppData\Local\Temp\ccmjpsKj.s:21606  .debug_str:00000000000034e1 .LASF5582
C:\Users\SOLDER~1\AppData\Local\Temp\ccmjpsKj.s:26564  .debug_str:0000000000017649 .LASF5583
C:\Users\SOLDER~1\AppData\Local\Temp\ccmjpsKj.s:28322  .debug_str:000000000001e77b .LASF5584
C:\Users\SOLDER~1\AppData\Local\Temp\ccmjpsKj.s:24822  .debug_str:00000000000105ba .LASF5585
GAS LISTING C:\Users\SOLDER~1\AppData\Local\Temp\ccmjpsKj.s 			page 151


C:\Users\SOLDER~1\AppData\Local\Temp\ccmjpsKj.s:22456  .debug_str:0000000000006b07 .LASF5586
C:\Users\SOLDER~1\AppData\Local\Temp\ccmjpsKj.s:22164  .debug_str:0000000000005756 .LASF5587
C:\Users\SOLDER~1\AppData\Local\Temp\ccmjpsKj.s:28760  .debug_str:000000000002042c .LASF5588
C:\Users\SOLDER~1\AppData\Local\Temp\ccmjpsKj.s:21608  .debug_str:0000000000003502 .LASF5589
C:\Users\SOLDER~1\AppData\Local\Temp\ccmjpsKj.s:24968  .debug_str:0000000000010ef9 .LASF5590
C:\Users\SOLDER~1\AppData\Local\Temp\ccmjpsKj.s:23066  .debug_str:00000000000092b3 .LASF5591
C:\Users\SOLDER~1\AppData\Local\Temp\ccmjpsKj.s:22168  .debug_str:00000000000057b7 .LASF5592
C:\Users\SOLDER~1\AppData\Local\Temp\ccmjpsKj.s:30180  .debug_str:0000000000025fab .LASF5593
C:\Users\SOLDER~1\AppData\Local\Temp\ccmjpsKj.s:23976  .debug_str:000000000000ceb7 .LASF5594
C:\Users\SOLDER~1\AppData\Local\Temp\ccmjpsKj.s:22538  .debug_str:00000000000070ac .LASF5595
C:\Users\SOLDER~1\AppData\Local\Temp\ccmjpsKj.s:32474  .debug_str:000000000002f40e .LASF5596
C:\Users\SOLDER~1\AppData\Local\Temp\ccmjpsKj.s:22868  .debug_str:00000000000085b9 .LASF5597
C:\Users\SOLDER~1\AppData\Local\Temp\ccmjpsKj.s:22552  .debug_str:000000000000719a .LASF5598
C:\Users\SOLDER~1\AppData\Local\Temp\ccmjpsKj.s:26266  .debug_str:000000000001635c .LASF5599
C:\Users\SOLDER~1\AppData\Local\Temp\ccmjpsKj.s:32286  .debug_str:000000000002e805 .LASF5600
C:\Users\SOLDER~1\AppData\Local\Temp\ccmjpsKj.s:31894  .debug_str:000000000002cee9 .LASF5601
C:\Users\SOLDER~1\AppData\Local\Temp\ccmjpsKj.s:26084  .debug_str:0000000000015832 .LASF5602
C:\Users\SOLDER~1\AppData\Local\Temp\ccmjpsKj.s:32072  .debug_str:000000000002da77 .LASF5603
C:\Users\SOLDER~1\AppData\Local\Temp\ccmjpsKj.s:28502  .debug_str:000000000001f39f .LASF5604
C:\Users\SOLDER~1\AppData\Local\Temp\ccmjpsKj.s:25004  .debug_str:0000000000011159 .LASF5605
C:\Users\SOLDER~1\AppData\Local\Temp\ccmjpsKj.s:29680  .debug_str:0000000000023eff .LASF5606
C:\Users\SOLDER~1\AppData\Local\Temp\ccmjpsKj.s:29186  .debug_str:0000000000021f88 .LASF5607
C:\Users\SOLDER~1\AppData\Local\Temp\ccmjpsKj.s:21622  .debug_str:00000000000035d6 .LASF5608
C:\Users\SOLDER~1\AppData\Local\Temp\ccmjpsKj.s:27542  .debug_str:000000000001b518 .LASF5609
C:\Users\SOLDER~1\AppData\Local\Temp\ccmjpsKj.s:26014  .debug_str:000000000001538d .LASF5610
C:\Users\SOLDER~1\AppData\Local\Temp\ccmjpsKj.s:27992  .debug_str:000000000001d24d .LASF5611
C:\Users\SOLDER~1\AppData\Local\Temp\ccmjpsKj.s:31698  .debug_str:000000000002c248 .LASF5612
C:\Users\SOLDER~1\AppData\Local\Temp\ccmjpsKj.s:30030  .debug_str:00000000000255f1 .LASF5613
C:\Users\SOLDER~1\AppData\Local\Temp\ccmjpsKj.s:27444  .debug_str:000000000001aef9 .LASF5614
C:\Users\SOLDER~1\AppData\Local\Temp\ccmjpsKj.s:27436  .debug_str:000000000001ae6b .LASF5615
C:\Users\SOLDER~1\AppData\Local\Temp\ccmjpsKj.s:27780  .debug_str:000000000001c446 .LASF5616
C:\Users\SOLDER~1\AppData\Local\Temp\ccmjpsKj.s:25950  .debug_str:0000000000014f90 .LASF5617
C:\Users\SOLDER~1\AppData\Local\Temp\ccmjpsKj.s:25382  .debug_str:0000000000012963 .LASF5618
C:\Users\SOLDER~1\AppData\Local\Temp\ccmjpsKj.s:27442  .debug_str:000000000001aed7 .LASF5619
C:\Users\SOLDER~1\AppData\Local\Temp\ccmjpsKj.s:32288  .debug_str:000000000002e828 .LASF5620
C:\Users\SOLDER~1\AppData\Local\Temp\ccmjpsKj.s:32196  .debug_str:000000000002e28a .LASF5621
C:\Users\SOLDER~1\AppData\Local\Temp\ccmjpsKj.s:24788  .debug_str:0000000000010373 .LASF5622
C:\Users\SOLDER~1\AppData\Local\Temp\ccmjpsKj.s:31544  .debug_str:000000000002b847 .LASF5623
C:\Users\SOLDER~1\AppData\Local\Temp\ccmjpsKj.s:28194  .debug_str:000000000001df72 .LASF5624
C:\Users\SOLDER~1\AppData\Local\Temp\ccmjpsKj.s:25206  .debug_str:0000000000011e41 .LASF5625
C:\Users\SOLDER~1\AppData\Local\Temp\ccmjpsKj.s:22712  .debug_str:0000000000007b91 .LASF5626
C:\Users\SOLDER~1\AppData\Local\Temp\ccmjpsKj.s:21064  .debug_str:0000000000001215 .LASF5627
C:\Users\SOLDER~1\AppData\Local\Temp\ccmjpsKj.s:29722  .debug_str:00000000000241d8 .LASF5628
C:\Users\SOLDER~1\AppData\Local\Temp\ccmjpsKj.s:25356  .debug_str:0000000000012785 .LASF5629
C:\Users\SOLDER~1\AppData\Local\Temp\ccmjpsKj.s:22974  .debug_str:0000000000008c61 .LASF5630
C:\Users\SOLDER~1\AppData\Local\Temp\ccmjpsKj.s:22202  .debug_str:0000000000005a29 .LASF5631
C:\Users\SOLDER~1\AppData\Local\Temp\ccmjpsKj.s:31770  .debug_str:000000000002c744 .LASF5632
C:\Users\SOLDER~1\AppData\Local\Temp\ccmjpsKj.s:23762  .debug_str:000000000000bfcc .LASF5633
C:\Users\SOLDER~1\AppData\Local\Temp\ccmjpsKj.s:23962  .debug_str:000000000000cdcb .LASF5634
C:\Users\SOLDER~1\AppData\Local\Temp\ccmjpsKj.s:28110  .debug_str:000000000001da22 .LASF5635
C:\Users\SOLDER~1\AppData\Local\Temp\ccmjpsKj.s:27516  .debug_str:000000000001b385 .LASF5636
C:\Users\SOLDER~1\AppData\Local\Temp\ccmjpsKj.s:26990  .debug_str:000000000001920b .LASF5637
C:\Users\SOLDER~1\AppData\Local\Temp\ccmjpsKj.s:30116  .debug_str:0000000000025b88 .LASF5638
C:\Users\SOLDER~1\AppData\Local\Temp\ccmjpsKj.s:25940  .debug_str:0000000000014ed7 .LASF5639
C:\Users\SOLDER~1\AppData\Local\Temp\ccmjpsKj.s:26248  .debug_str:0000000000016216 .LASF5640
C:\Users\SOLDER~1\AppData\Local\Temp\ccmjpsKj.s:22156  .debug_str:00000000000056cc .LASF5641
C:\Users\SOLDER~1\AppData\Local\Temp\ccmjpsKj.s:27240  .debug_str:000000000001a1a5 .LASF5642
GAS LISTING C:\Users\SOLDER~1\AppData\Local\Temp\ccmjpsKj.s 			page 152


C:\Users\SOLDER~1\AppData\Local\Temp\ccmjpsKj.s:29378  .debug_str:0000000000022b82 .LASF5643
C:\Users\SOLDER~1\AppData\Local\Temp\ccmjpsKj.s:21076  .debug_str:00000000000012d6 .LASF5644
C:\Users\SOLDER~1\AppData\Local\Temp\ccmjpsKj.s:24662  .debug_str:000000000000fb34 .LASF5645
C:\Users\SOLDER~1\AppData\Local\Temp\ccmjpsKj.s:30092  .debug_str:00000000000259da .LASF5646
C:\Users\SOLDER~1\AppData\Local\Temp\ccmjpsKj.s:20862  .debug_str:0000000000000405 .LASF5647
C:\Users\SOLDER~1\AppData\Local\Temp\ccmjpsKj.s:31416  .debug_str:000000000002b025 .LASF5648
C:\Users\SOLDER~1\AppData\Local\Temp\ccmjpsKj.s:32466  .debug_str:000000000002f3a7 .LASF5649
C:\Users\SOLDER~1\AppData\Local\Temp\ccmjpsKj.s:24466  .debug_str:000000000000ee5c .LASF5650
C:\Users\SOLDER~1\AppData\Local\Temp\ccmjpsKj.s:31744  .debug_str:000000000002c599 .LASF5651
C:\Users\SOLDER~1\AppData\Local\Temp\ccmjpsKj.s:27076  .debug_str:0000000000019791 .LASF5652
C:\Users\SOLDER~1\AppData\Local\Temp\ccmjpsKj.s:24812  .debug_str:00000000000104ff .LASF5653
C:\Users\SOLDER~1\AppData\Local\Temp\ccmjpsKj.s:25854  .debug_str:000000000001492e .LASF5654
C:\Users\SOLDER~1\AppData\Local\Temp\ccmjpsKj.s:25516  .debug_str:00000000000131f0 .LASF5655
C:\Users\SOLDER~1\AppData\Local\Temp\ccmjpsKj.s:28714  .debug_str:0000000000020149 .LASF5656
C:\Users\SOLDER~1\AppData\Local\Temp\ccmjpsKj.s:32240  .debug_str:000000000002e537 .LASF5657
C:\Users\SOLDER~1\AppData\Local\Temp\ccmjpsKj.s:23680  .debug_str:000000000000ba74 .LASF5658
C:\Users\SOLDER~1\AppData\Local\Temp\ccmjpsKj.s:27438  .debug_str:000000000001ae96 .LASF5659
C:\Users\SOLDER~1\AppData\Local\Temp\ccmjpsKj.s:31950  .debug_str:000000000002d2a5 .LASF5660
C:\Users\SOLDER~1\AppData\Local\Temp\ccmjpsKj.s:29828  .debug_str:00000000000248ec .LASF5661
C:\Users\SOLDER~1\AppData\Local\Temp\ccmjpsKj.s:27360  .debug_str:000000000001a971 .LASF5662
C:\Users\SOLDER~1\AppData\Local\Temp\ccmjpsKj.s:28050  .debug_str:000000000001d679 .LASF5663
C:\Users\SOLDER~1\AppData\Local\Temp\ccmjpsKj.s:21266  .debug_str:0000000000001efe .LASF5664
C:\Users\SOLDER~1\AppData\Local\Temp\ccmjpsKj.s:26848  .debug_str:00000000000188ae .LASF5665
C:\Users\SOLDER~1\AppData\Local\Temp\ccmjpsKj.s:30602  .debug_str:0000000000027bbc .LASF5666
C:\Users\SOLDER~1\AppData\Local\Temp\ccmjpsKj.s:24710  .debug_str:000000000000fe91 .LASF5667
C:\Users\SOLDER~1\AppData\Local\Temp\ccmjpsKj.s:26928  .debug_str:0000000000018ddf .LASF5668
C:\Users\SOLDER~1\AppData\Local\Temp\ccmjpsKj.s:25912  .debug_str:0000000000014cf8 .LASF5669
C:\Users\SOLDER~1\AppData\Local\Temp\ccmjpsKj.s:25068  .debug_str:0000000000011574 .LASF5670
C:\Users\SOLDER~1\AppData\Local\Temp\ccmjpsKj.s:21108  .debug_str:00000000000014e0 .LASF5671
C:\Users\SOLDER~1\AppData\Local\Temp\ccmjpsKj.s:31874  .debug_str:000000000002cdb9 .LASF5672
C:\Users\SOLDER~1\AppData\Local\Temp\ccmjpsKj.s:22294  .debug_str:0000000000005ffe .LASF5673
C:\Users\SOLDER~1\AppData\Local\Temp\ccmjpsKj.s:29926  .debug_str:0000000000024f77 .LASF5674
C:\Users\SOLDER~1\AppData\Local\Temp\ccmjpsKj.s:23450  .debug_str:000000000000ac34 .LASF5675
C:\Users\SOLDER~1\AppData\Local\Temp\ccmjpsKj.s:23396  .debug_str:000000000000a8a5 .LASF5676
C:\Users\SOLDER~1\AppData\Local\Temp\ccmjpsKj.s:27102  .debug_str:000000000001998a .LASF5677
C:\Users\SOLDER~1\AppData\Local\Temp\ccmjpsKj.s:30528  .debug_str:0000000000027702 .LASF5678
C:\Users\SOLDER~1\AppData\Local\Temp\ccmjpsKj.s:23890  .debug_str:000000000000c8c9 .LASF5679
C:\Users\SOLDER~1\AppData\Local\Temp\ccmjpsKj.s:25032  .debug_str:0000000000011328 .LASF5680
C:\Users\SOLDER~1\AppData\Local\Temp\ccmjpsKj.s:23418  .debug_str:000000000000aa1a .LASF5681
C:\Users\SOLDER~1\AppData\Local\Temp\ccmjpsKj.s:31904  .debug_str:000000000002cf96 .LASF5682
C:\Users\SOLDER~1\AppData\Local\Temp\ccmjpsKj.s:24624  .debug_str:000000000000f886 .LASF5683
C:\Users\SOLDER~1\AppData\Local\Temp\ccmjpsKj.s:29426  .debug_str:0000000000022eac .LASF5684
C:\Users\SOLDER~1\AppData\Local\Temp\ccmjpsKj.s:27862  .debug_str:000000000001c9c4 .LASF5685
C:\Users\SOLDER~1\AppData\Local\Temp\ccmjpsKj.s:22956  .debug_str:0000000000008b63 .LASF5686
C:\Users\SOLDER~1\AppData\Local\Temp\ccmjpsKj.s:30760  .debug_str:00000000000285f8 .LASF5687
C:\Users\SOLDER~1\AppData\Local\Temp\ccmjpsKj.s:23380  .debug_str:000000000000a7b1 .LASF5688
C:\Users\SOLDER~1\AppData\Local\Temp\ccmjpsKj.s:22160  .debug_str:0000000000005719 .LASF5689
C:\Users\SOLDER~1\AppData\Local\Temp\ccmjpsKj.s:25858  .debug_str:0000000000014981 .LASF5690
C:\Users\SOLDER~1\AppData\Local\Temp\ccmjpsKj.s:31576  .debug_str:000000000002ba74 .LASF5691
C:\Users\SOLDER~1\AppData\Local\Temp\ccmjpsKj.s:31970  .debug_str:000000000002d3f8 .LASF5692
C:\Users\SOLDER~1\AppData\Local\Temp\ccmjpsKj.s:25268  .debug_str:0000000000012220 .LASF5693
C:\Users\SOLDER~1\AppData\Local\Temp\ccmjpsKj.s:21946  .debug_str:0000000000004a48 .LASF5694
C:\Users\SOLDER~1\AppData\Local\Temp\ccmjpsKj.s:21590  .debug_str:00000000000033bf .LASF5695
C:\Users\SOLDER~1\AppData\Local\Temp\ccmjpsKj.s:27600  .debug_str:000000000001b8d1 .LASF5696
C:\Users\SOLDER~1\AppData\Local\Temp\ccmjpsKj.s:30902  .debug_str:0000000000028f3c .LASF5697
C:\Users\SOLDER~1\AppData\Local\Temp\ccmjpsKj.s:23392  .debug_str:000000000000a86d .LASF5698
C:\Users\SOLDER~1\AppData\Local\Temp\ccmjpsKj.s:24656  .debug_str:000000000000fad2 .LASF5699
GAS LISTING C:\Users\SOLDER~1\AppData\Local\Temp\ccmjpsKj.s 			page 153


C:\Users\SOLDER~1\AppData\Local\Temp\ccmjpsKj.s:28018  .debug_str:000000000001d44a .LASF5700
C:\Users\SOLDER~1\AppData\Local\Temp\ccmjpsKj.s:28874  .debug_str:0000000000020ba4 .LASF5701
C:\Users\SOLDER~1\AppData\Local\Temp\ccmjpsKj.s:23254  .debug_str:0000000000009f16 .LASF5702
C:\Users\SOLDER~1\AppData\Local\Temp\ccmjpsKj.s:21208  .debug_str:0000000000001b34 .LASF5703
C:\Users\SOLDER~1\AppData\Local\Temp\ccmjpsKj.s:27164  .debug_str:0000000000019ce8 .LASF5704
C:\Users\SOLDER~1\AppData\Local\Temp\ccmjpsKj.s:21976  .debug_str:0000000000004c27 .LASF5705
C:\Users\SOLDER~1\AppData\Local\Temp\ccmjpsKj.s:31742  .debug_str:000000000002c576 .LASF5706
C:\Users\SOLDER~1\AppData\Local\Temp\ccmjpsKj.s:29578  .debug_str:00000000000238a4 .LASF5707
C:\Users\SOLDER~1\AppData\Local\Temp\ccmjpsKj.s:29248  .debug_str:000000000002233e .LASF5708
C:\Users\SOLDER~1\AppData\Local\Temp\ccmjpsKj.s:26346  .debug_str:0000000000016866 .LASF5709
C:\Users\SOLDER~1\AppData\Local\Temp\ccmjpsKj.s:24850  .debug_str:0000000000010796 .LASF5710
C:\Users\SOLDER~1\AppData\Local\Temp\ccmjpsKj.s:26210  .debug_str:0000000000015fbf .LASF5711
                           .group:0000000000000000 wm4.0.cc27e0d2094b492664a2491ca1ae43b0
                           .group:0000000000000000 wm4.ch32v20x.h.13.a030255a3e90e7179ae3b08da8e2408d
                           .group:0000000000000000 wm4._newlib_version.h.4.529115dae5e4f67702b1de0b6e841f38
                           .group:0000000000000000 wm4.features.h.33.3e67abe6fb64142d4f6fa9496796153c
                           .group:0000000000000000 wm4._default_types.h.15.247e5cd201eca3442cbf5404108c4935
                           .group:0000000000000000 wm4._intsup.h.10.48bafbb683905c4daa4565a85aeeb264
                           .group:0000000000000000 wm4._stdint.h.10.c24fa3af3bc1706662bb5593a907e841
                           .group:0000000000000000 wm4.stdint.h.23.d53047a68f4a85177f80b422d52785ed
                           .group:0000000000000000 wm4.core_riscv.h.11.151d7acb41e203dcc664023294f59bdc
                           .group:0000000000000000 wm4.ch32v20x.h.153.1d8393f26361703471ea96fe9aa4b4f9
                           .group:0000000000000000 wm4.ch32v20x_adc.h.56.f131972e7ce35efbe3b5c47a075d6d1b
                           .group:0000000000000000 wm4.ch32v20x_bkp.h.14.0a7965eb5be5000a494c3059b6f0eca5
                           .group:0000000000000000 wm4.ch32v20x_can.h.14.aa1dae2c28cbaf083875b4b61810c3c7
                           .group:0000000000000000 wm4.ch32v20x_dbgmcu.h.14.26ef95879978d9caaa154b373f3a512b
                           .group:0000000000000000 wm4.ch32v20x_dma.h.14.425a907348dd0134bf6e82c73bbd3df8
                           .group:0000000000000000 wm4.ch32v20x_exti.h.14.f67190d3fb91aa9aecce0f4d5a543221
                           .group:0000000000000000 wm4.ch32v20x_flash.h.14.91c5ecdad44f358d5032244aabf7ef4e
                           .group:0000000000000000 wm4.ch32v20x_gpio.h.14.bdb7f79cce0dffbc24dc81ea80f90bd2
                           .group:0000000000000000 wm4.ch32v20x_i2c.h.14.101eb625c9d2afac400f4e8ac2e9fb1d
                           .group:0000000000000000 wm4.ch32v20x_iwdg.h.14.26025d04ceeb3151185969ed5850fbb4
                           .group:0000000000000000 wm4.ch32v20x_pwr.h.14.8eaa3508938f71b27f140895c21602e6
                           .group:0000000000000000 wm4.ch32v20x_rcc.h.13.18c6b8696a30372de01acaf3c246ecb8
                           .group:0000000000000000 wm4.ch32v20x_rtc.h.14.eb8734f5dd75abcf831b4f12ec49aebe
                           .group:0000000000000000 wm4.ch32v20x_tim.h.14.35d11fab62898d9d661122ade86d8a6c
                           .group:0000000000000000 wm4.ch32v20x_usart.h.14.9d28c7ec28f2121810b69a55079cd38f
                           .group:0000000000000000 wm4.ch32v20x_wwdg.h.14.49bada437175894a4dce7e12e4216bc9
                           .group:0000000000000000 wm4.ch32v20x_misc.h.14.f3992cf724c30ec0bea268444ffdb6e0
                           .group:0000000000000000 wm4.ch32v20x_spi.h.79.5e6ed5cb1d429f1b2e05b237bc7818c3

UNDEFINED SYMBOLS
RCC_APB2PeriphResetCmd
RCC_APB1PeriphResetCmd
RCC_GetClocksFreq
