GAS LISTING C:\Users\SOLDER~1\AppData\Local\Temp\ccfBhFEg.s 			page 1


   1              		.file	"ch32v20x_i2c.c"
   2              		.option nopic
   3              		.attribute arch, "rv32i2p0_m2p0_a2p0_c2p0_xw"
   4              		.attribute unaligned_access, 0
   5              		.attribute stack_align, 16
   6              		.text
   7              	.Ltext0:
   8              		.cfi_sections	.debug_frame
   9              		.file 0 "C:\\Users\\Solderingiron\\Documents\\GitHub\\VSC-make-example\\VSC_CH32V203C8T6" "Drivers
  10              		.section	.text.I2C_DeInit,"ax",@progbits
  11              		.align	1
  12              		.globl	I2C_DeInit
  14              	I2C_DeInit:
  15              	.LFB16:
  16              		.file 1 "Drivers/src/ch32v20x_i2c.c"
   1:Drivers/src/ch32v20x_i2c.c **** /********************************** (C) COPYRIGHT  *******************************
   2:Drivers/src/ch32v20x_i2c.c ****  * File Name          : ch32v20x_i2c.c
   3:Drivers/src/ch32v20x_i2c.c ****  * Author             : WCH
   4:Drivers/src/ch32v20x_i2c.c ****  * Version            : V1.0.0
   5:Drivers/src/ch32v20x_i2c.c ****  * Date               : 2021/06/06
   6:Drivers/src/ch32v20x_i2c.c ****  * Description        : This file provides all the I2C firmware functions.
   7:Drivers/src/ch32v20x_i2c.c **** *********************************************************************************
   8:Drivers/src/ch32v20x_i2c.c **** * Copyright (c) 2021 Nanjing Qinheng Microelectronics Co., Ltd.
   9:Drivers/src/ch32v20x_i2c.c **** * Attention: This software (modified or not) and binary are used for 
  10:Drivers/src/ch32v20x_i2c.c **** * microcontroller manufactured by Nanjing Qinheng Microelectronics.
  11:Drivers/src/ch32v20x_i2c.c **** *******************************************************************************/
  12:Drivers/src/ch32v20x_i2c.c **** #include "ch32v20x_i2c.h"
  13:Drivers/src/ch32v20x_i2c.c **** #include "ch32v20x_rcc.h"
  14:Drivers/src/ch32v20x_i2c.c **** 
  15:Drivers/src/ch32v20x_i2c.c **** /* I2C SPE mask */
  16:Drivers/src/ch32v20x_i2c.c **** #define CTLR1_PE_Set             ((uint16_t)0x0001)
  17:Drivers/src/ch32v20x_i2c.c **** #define CTLR1_PE_Reset           ((uint16_t)0xFFFE)
  18:Drivers/src/ch32v20x_i2c.c **** 
  19:Drivers/src/ch32v20x_i2c.c **** /* I2C START mask */
  20:Drivers/src/ch32v20x_i2c.c **** #define CTLR1_START_Set          ((uint16_t)0x0100)
  21:Drivers/src/ch32v20x_i2c.c **** #define CTLR1_START_Reset        ((uint16_t)0xFEFF)
  22:Drivers/src/ch32v20x_i2c.c **** 
  23:Drivers/src/ch32v20x_i2c.c **** /* I2C STOP mask */
  24:Drivers/src/ch32v20x_i2c.c **** #define CTLR1_STOP_Set           ((uint16_t)0x0200)
  25:Drivers/src/ch32v20x_i2c.c **** #define CTLR1_STOP_Reset         ((uint16_t)0xFDFF)
  26:Drivers/src/ch32v20x_i2c.c **** 
  27:Drivers/src/ch32v20x_i2c.c **** /* I2C ACK mask */
  28:Drivers/src/ch32v20x_i2c.c **** #define CTLR1_ACK_Set            ((uint16_t)0x0400)
  29:Drivers/src/ch32v20x_i2c.c **** #define CTLR1_ACK_Reset          ((uint16_t)0xFBFF)
  30:Drivers/src/ch32v20x_i2c.c **** 
  31:Drivers/src/ch32v20x_i2c.c **** /* I2C ENGC mask */
  32:Drivers/src/ch32v20x_i2c.c **** #define CTLR1_ENGC_Set           ((uint16_t)0x0040)
  33:Drivers/src/ch32v20x_i2c.c **** #define CTLR1_ENGC_Reset         ((uint16_t)0xFFBF)
  34:Drivers/src/ch32v20x_i2c.c **** 
  35:Drivers/src/ch32v20x_i2c.c **** /* I2C SWRST mask */
  36:Drivers/src/ch32v20x_i2c.c **** #define CTLR1_SWRST_Set          ((uint16_t)0x8000)
  37:Drivers/src/ch32v20x_i2c.c **** #define CTLR1_SWRST_Reset        ((uint16_t)0x7FFF)
  38:Drivers/src/ch32v20x_i2c.c **** 
  39:Drivers/src/ch32v20x_i2c.c **** /* I2C PEC mask */
  40:Drivers/src/ch32v20x_i2c.c **** #define CTLR1_PEC_Set            ((uint16_t)0x1000)
  41:Drivers/src/ch32v20x_i2c.c **** #define CTLR1_PEC_Reset          ((uint16_t)0xEFFF)
  42:Drivers/src/ch32v20x_i2c.c **** 
GAS LISTING C:\Users\SOLDER~1\AppData\Local\Temp\ccfBhFEg.s 			page 2


  43:Drivers/src/ch32v20x_i2c.c **** /* I2C ENPEC mask */
  44:Drivers/src/ch32v20x_i2c.c **** #define CTLR1_ENPEC_Set          ((uint16_t)0x0020)
  45:Drivers/src/ch32v20x_i2c.c **** #define CTLR1_ENPEC_Reset        ((uint16_t)0xFFDF)
  46:Drivers/src/ch32v20x_i2c.c **** 
  47:Drivers/src/ch32v20x_i2c.c **** /* I2C ENARP mask */
  48:Drivers/src/ch32v20x_i2c.c **** #define CTLR1_ENARP_Set          ((uint16_t)0x0010)
  49:Drivers/src/ch32v20x_i2c.c **** #define CTLR1_ENARP_Reset        ((uint16_t)0xFFEF)
  50:Drivers/src/ch32v20x_i2c.c **** 
  51:Drivers/src/ch32v20x_i2c.c **** /* I2C NOSTRETCH mask */
  52:Drivers/src/ch32v20x_i2c.c **** #define CTLR1_NOSTRETCH_Set      ((uint16_t)0x0080)
  53:Drivers/src/ch32v20x_i2c.c **** #define CTLR1_NOSTRETCH_Reset    ((uint16_t)0xFF7F)
  54:Drivers/src/ch32v20x_i2c.c **** 
  55:Drivers/src/ch32v20x_i2c.c **** /* I2C registers Masks */
  56:Drivers/src/ch32v20x_i2c.c **** #define CTLR1_CLEAR_Mask         ((uint16_t)0xFBF5)
  57:Drivers/src/ch32v20x_i2c.c **** 
  58:Drivers/src/ch32v20x_i2c.c **** /* I2C DMAEN mask */
  59:Drivers/src/ch32v20x_i2c.c **** #define CTLR2_DMAEN_Set          ((uint16_t)0x0800)
  60:Drivers/src/ch32v20x_i2c.c **** #define CTLR2_DMAEN_Reset        ((uint16_t)0xF7FF)
  61:Drivers/src/ch32v20x_i2c.c **** 
  62:Drivers/src/ch32v20x_i2c.c **** /* I2C LAST mask */
  63:Drivers/src/ch32v20x_i2c.c **** #define CTLR2_LAST_Set           ((uint16_t)0x1000)
  64:Drivers/src/ch32v20x_i2c.c **** #define CTLR2_LAST_Reset         ((uint16_t)0xEFFF)
  65:Drivers/src/ch32v20x_i2c.c **** 
  66:Drivers/src/ch32v20x_i2c.c **** /* I2C FREQ mask */
  67:Drivers/src/ch32v20x_i2c.c **** #define CTLR2_FREQ_Reset         ((uint16_t)0xFFC0)
  68:Drivers/src/ch32v20x_i2c.c **** 
  69:Drivers/src/ch32v20x_i2c.c **** /* I2C ADD0 mask */
  70:Drivers/src/ch32v20x_i2c.c **** #define OADDR1_ADD0_Set          ((uint16_t)0x0001)
  71:Drivers/src/ch32v20x_i2c.c **** #define OADDR1_ADD0_Reset        ((uint16_t)0xFFFE)
  72:Drivers/src/ch32v20x_i2c.c **** 
  73:Drivers/src/ch32v20x_i2c.c **** /* I2C ENDUAL mask */
  74:Drivers/src/ch32v20x_i2c.c **** #define OADDR2_ENDUAL_Set        ((uint16_t)0x0001)
  75:Drivers/src/ch32v20x_i2c.c **** #define OADDR2_ENDUAL_Reset      ((uint16_t)0xFFFE)
  76:Drivers/src/ch32v20x_i2c.c **** 
  77:Drivers/src/ch32v20x_i2c.c **** /* I2C ADD2 mask */
  78:Drivers/src/ch32v20x_i2c.c **** #define OADDR2_ADD2_Reset        ((uint16_t)0xFF01)
  79:Drivers/src/ch32v20x_i2c.c **** 
  80:Drivers/src/ch32v20x_i2c.c **** /* I2C F/S mask */
  81:Drivers/src/ch32v20x_i2c.c **** #define CKCFGR_FS_Set            ((uint16_t)0x8000)
  82:Drivers/src/ch32v20x_i2c.c **** 
  83:Drivers/src/ch32v20x_i2c.c **** /* I2C CCR mask */
  84:Drivers/src/ch32v20x_i2c.c **** #define CKCFGR_CCR_Set           ((uint16_t)0x0FFF)
  85:Drivers/src/ch32v20x_i2c.c **** 
  86:Drivers/src/ch32v20x_i2c.c **** /* I2C FLAG mask */
  87:Drivers/src/ch32v20x_i2c.c **** #define FLAG_Mask                ((uint32_t)0x00FFFFFF)
  88:Drivers/src/ch32v20x_i2c.c **** 
  89:Drivers/src/ch32v20x_i2c.c **** /* I2C Interrupt Enable mask */
  90:Drivers/src/ch32v20x_i2c.c **** #define ITEN_Mask                ((uint32_t)0x07000000)
  91:Drivers/src/ch32v20x_i2c.c **** 
  92:Drivers/src/ch32v20x_i2c.c **** /*********************************************************************
  93:Drivers/src/ch32v20x_i2c.c ****  * @fn      I2C_DeInit
  94:Drivers/src/ch32v20x_i2c.c ****  *
  95:Drivers/src/ch32v20x_i2c.c ****  * @brief   Deinitializes the I2Cx peripheral registers to their default
  96:Drivers/src/ch32v20x_i2c.c ****  *        reset values.
  97:Drivers/src/ch32v20x_i2c.c ****  *
  98:Drivers/src/ch32v20x_i2c.c ****  * @param   I2Cx - where x can be 1 or 2 to select the I2C peripheral.
  99:Drivers/src/ch32v20x_i2c.c ****  *
GAS LISTING C:\Users\SOLDER~1\AppData\Local\Temp\ccfBhFEg.s 			page 3


 100:Drivers/src/ch32v20x_i2c.c ****  * @return  none
 101:Drivers/src/ch32v20x_i2c.c ****  */
 102:Drivers/src/ch32v20x_i2c.c **** void I2C_DeInit(I2C_TypeDef *I2Cx)
 103:Drivers/src/ch32v20x_i2c.c **** {
  17              		.loc 1 103 1
  18              		.cfi_startproc
  19 0000 0111     		addi	sp,sp,-32
  20              		.cfi_def_cfa_offset 32
  21 0002 06CE     		sw	ra,28(sp)
  22 0004 22CC     		sw	s0,24(sp)
  23              		.cfi_offset 1, -4
  24              		.cfi_offset 8, -8
  25 0006 0010     		addi	s0,sp,32
  26              		.cfi_def_cfa 8, 0
  27 0008 2326A4FE 		sw	a0,-20(s0)
 104:Drivers/src/ch32v20x_i2c.c ****     if(I2Cx == I2C1)
  28              		.loc 1 104 7
  29 000c 0327C4FE 		lw	a4,-20(s0)
  30 0010 B7570040 		li	a5,1073762304
  31 0014 93870740 		addi	a5,a5,1024
  32 0018 6311F702 		bne	a4,a5,.L2
 105:Drivers/src/ch32v20x_i2c.c ****     {
 106:Drivers/src/ch32v20x_i2c.c ****         RCC_APB1PeriphResetCmd(RCC_APB1Periph_I2C1, ENABLE);
  33              		.loc 1 106 9
  34 001c 8545     		li	a1,1
  35 001e 37052000 		li	a0,2097152
  36 0022 97000000 		call	RCC_APB1PeriphResetCmd
  36      E7800000 
 107:Drivers/src/ch32v20x_i2c.c ****         RCC_APB1PeriphResetCmd(RCC_APB1Periph_I2C1, DISABLE);
  37              		.loc 1 107 9
  38 002a 8145     		li	a1,0
  39 002c 37052000 		li	a0,2097152
  40 0030 97000000 		call	RCC_APB1PeriphResetCmd
  40      E7800000 
 108:Drivers/src/ch32v20x_i2c.c ****     }
 109:Drivers/src/ch32v20x_i2c.c ****     else
 110:Drivers/src/ch32v20x_i2c.c ****     {
 111:Drivers/src/ch32v20x_i2c.c ****         RCC_APB1PeriphResetCmd(RCC_APB1Periph_I2C2, ENABLE);
 112:Drivers/src/ch32v20x_i2c.c ****         RCC_APB1PeriphResetCmd(RCC_APB1Periph_I2C2, DISABLE);
 113:Drivers/src/ch32v20x_i2c.c ****     }
 114:Drivers/src/ch32v20x_i2c.c **** }
  41              		.loc 1 114 1
  42 0038 39A8     		j	.L4
  43              	.L2:
 111:Drivers/src/ch32v20x_i2c.c ****         RCC_APB1PeriphResetCmd(RCC_APB1Periph_I2C2, DISABLE);
  44              		.loc 1 111 9
  45 003a 8545     		li	a1,1
  46 003c 37054000 		li	a0,4194304
  47 0040 97000000 		call	RCC_APB1PeriphResetCmd
  47      E7800000 
 112:Drivers/src/ch32v20x_i2c.c ****     }
  48              		.loc 1 112 9
  49 0048 8145     		li	a1,0
  50 004a 37054000 		li	a0,4194304
  51 004e 97000000 		call	RCC_APB1PeriphResetCmd
  51      E7800000 
  52              	.L4:
GAS LISTING C:\Users\SOLDER~1\AppData\Local\Temp\ccfBhFEg.s 			page 4


  53              		.loc 1 114 1
  54 0056 0100     		nop
  55 0058 F240     		lw	ra,28(sp)
  56              		.cfi_restore 1
  57 005a 6244     		lw	s0,24(sp)
  58              		.cfi_restore 8
  59              		.cfi_def_cfa 2, 32
  60 005c 0561     		addi	sp,sp,32
  61              		.cfi_def_cfa_offset 0
  62 005e 8280     		jr	ra
  63              		.cfi_endproc
  64              	.LFE16:
  66              		.section	.text.I2C_Init,"ax",@progbits
  67              		.align	1
  68              		.globl	I2C_Init
  70              	I2C_Init:
  71              	.LFB17:
 115:Drivers/src/ch32v20x_i2c.c **** 
 116:Drivers/src/ch32v20x_i2c.c **** /*********************************************************************
 117:Drivers/src/ch32v20x_i2c.c ****  * @fn      I2C_Init
 118:Drivers/src/ch32v20x_i2c.c ****  *
 119:Drivers/src/ch32v20x_i2c.c ****  * @brief   Initializes the I2Cx peripheral according to the specified
 120:Drivers/src/ch32v20x_i2c.c ****  *        parameters in the I2C_InitStruct.
 121:Drivers/src/ch32v20x_i2c.c ****  * @param   I2Cx - where x can be 1 or 2 to select the I2C peripheral.
 122:Drivers/src/ch32v20x_i2c.c ****  *          I2C_InitStruct - pointer to a I2C_InitTypeDef structure that
 123:Drivers/src/ch32v20x_i2c.c ****  *        contains the configuration information for the specified I2C peripheral.
 124:Drivers/src/ch32v20x_i2c.c ****  *
 125:Drivers/src/ch32v20x_i2c.c ****  * @return  none
 126:Drivers/src/ch32v20x_i2c.c ****  */
 127:Drivers/src/ch32v20x_i2c.c **** void I2C_Init(I2C_TypeDef *I2Cx, I2C_InitTypeDef *I2C_InitStruct)
 128:Drivers/src/ch32v20x_i2c.c **** {
  72              		.loc 1 128 1
  73              		.cfi_startproc
  74 0000 3971     		addi	sp,sp,-64
  75              		.cfi_def_cfa_offset 64
  76 0002 06DE     		sw	ra,60(sp)
  77 0004 22DC     		sw	s0,56(sp)
  78              		.cfi_offset 1, -4
  79              		.cfi_offset 8, -8
  80 0006 8000     		addi	s0,sp,64
  81              		.cfi_def_cfa 8, 0
  82 0008 2326A4FC 		sw	a0,-52(s0)
  83 000c 2324B4FC 		sw	a1,-56(s0)
 129:Drivers/src/ch32v20x_i2c.c ****     uint16_t tmpreg = 0, freqrange = 0;
  84              		.loc 1 129 14
  85 0010 231704FE 		sh	zero,-18(s0)
  86              		.loc 1 129 26
  87 0014 231504FE 		sh	zero,-22(s0)
 130:Drivers/src/ch32v20x_i2c.c ****     uint16_t result = 0x04;
  88              		.loc 1 130 14
  89 0018 9147     		li	a5,4
  90 001a 2316F4FE 		sh	a5,-20(s0)
 131:Drivers/src/ch32v20x_i2c.c ****     uint32_t pclk1 = 8000000;
  91              		.loc 1 131 14
  92 001e B7177A00 		li	a5,7999488
  93 0022 93870720 		addi	a5,a5,512
  94 0026 2322F4FE 		sw	a5,-28(s0)
GAS LISTING C:\Users\SOLDER~1\AppData\Local\Temp\ccfBhFEg.s 			page 5


 132:Drivers/src/ch32v20x_i2c.c **** 
 133:Drivers/src/ch32v20x_i2c.c ****     RCC_ClocksTypeDef rcc_clocks;
 134:Drivers/src/ch32v20x_i2c.c **** 
 135:Drivers/src/ch32v20x_i2c.c ****     tmpreg = I2Cx->CTLR2;
  95              		.loc 1 135 12
  96 002a 8327C4FC 		lw	a5,-52(s0)
  97 002e DE23     		lhu	a5,4(a5)
  98 0030 2317F4FE 		sh	a5,-18(s0)
 136:Drivers/src/ch32v20x_i2c.c ****     tmpreg &= CTLR2_FREQ_Reset;
  99              		.loc 1 136 12
 100 0034 8357E4FE 		lhu	a5,-18(s0)
 101 0038 93F707FC 		andi	a5,a5,-64
 102 003c 2317F4FE 		sh	a5,-18(s0)
 137:Drivers/src/ch32v20x_i2c.c ****     RCC_GetClocksFreq(&rcc_clocks);
 103              		.loc 1 137 5
 104 0040 930704FD 		addi	a5,s0,-48
 105 0044 3E85     		mv	a0,a5
 106 0046 97000000 		call	RCC_GetClocksFreq
 106      E7800000 
 138:Drivers/src/ch32v20x_i2c.c ****     pclk1 = rcc_clocks.PCLK1_Frequency;
 107              		.loc 1 138 11
 108 004e 832784FD 		lw	a5,-40(s0)
 109 0052 2322F4FE 		sw	a5,-28(s0)
 139:Drivers/src/ch32v20x_i2c.c ****     freqrange = (uint16_t)(pclk1 / 1000000);
 110              		.loc 1 139 34
 111 0056 032744FE 		lw	a4,-28(s0)
 112 005a B7470F00 		li	a5,999424
 113 005e 93870724 		addi	a5,a5,576
 114 0062 B357F702 		divu	a5,a4,a5
 115              		.loc 1 139 15
 116 0066 2315F4FE 		sh	a5,-22(s0)
 140:Drivers/src/ch32v20x_i2c.c ****     tmpreg |= freqrange;
 117              		.loc 1 140 12
 118 006a 8357E4FE 		lhu	a5,-18(s0)
 119 006e 3E87     		mv	a4,a5
 120 0070 8357A4FE 		lhu	a5,-22(s0)
 121 0074 D98F     		or	a5,a4,a5
 122 0076 2317F4FE 		sh	a5,-18(s0)
 141:Drivers/src/ch32v20x_i2c.c ****     I2Cx->CTLR2 = tmpreg;
 123              		.loc 1 141 17
 124 007a 8327C4FC 		lw	a5,-52(s0)
 125 007e 0357E4FE 		lhu	a4,-18(s0)
 126 0082 DAA3     		sh	a4,4(a5)
 142:Drivers/src/ch32v20x_i2c.c **** 
 143:Drivers/src/ch32v20x_i2c.c ****     I2Cx->CTLR1 &= CTLR1_PE_Reset;
 127              		.loc 1 143 9
 128 0084 8327C4FC 		lw	a5,-52(s0)
 129 0088 9E23     		lhu	a5,0(a5)
 130 008a C207     		slli	a5,a5,16
 131 008c C183     		srli	a5,a5,16
 132              		.loc 1 143 17
 133 008e F99B     		andi	a5,a5,-2
 134 0090 13970701 		slli	a4,a5,16
 135 0094 4183     		srli	a4,a4,16
 136 0096 8327C4FC 		lw	a5,-52(s0)
 137 009a 9AA3     		sh	a4,0(a5)
 144:Drivers/src/ch32v20x_i2c.c ****     tmpreg = 0;
GAS LISTING C:\Users\SOLDER~1\AppData\Local\Temp\ccfBhFEg.s 			page 6


 138              		.loc 1 144 12
 139 009c 231704FE 		sh	zero,-18(s0)
 145:Drivers/src/ch32v20x_i2c.c **** 
 146:Drivers/src/ch32v20x_i2c.c ****     if(I2C_InitStruct->I2C_ClockSpeed <= 100000)
 140              		.loc 1 146 22
 141 00a0 832784FC 		lw	a5,-56(s0)
 142 00a4 9843     		lw	a4,0(a5)
 143              		.loc 1 146 7
 144 00a6 E167     		li	a5,98304
 145 00a8 9387076A 		addi	a5,a5,1696
 146 00ac 63E6E704 		bgtu	a4,a5,.L6
 147:Drivers/src/ch32v20x_i2c.c ****     {
 148:Drivers/src/ch32v20x_i2c.c ****         result = (uint16_t)(pclk1 / (I2C_InitStruct->I2C_ClockSpeed << 1));
 147              		.loc 1 148 52
 148 00b0 832784FC 		lw	a5,-56(s0)
 149 00b4 9C43     		lw	a5,0(a5)
 150              		.loc 1 148 69
 151 00b6 8607     		slli	a5,a5,1
 152              		.loc 1 148 35
 153 00b8 032744FE 		lw	a4,-28(s0)
 154 00bc B357F702 		divu	a5,a4,a5
 155              		.loc 1 148 16
 156 00c0 2316F4FE 		sh	a5,-20(s0)
 149:Drivers/src/ch32v20x_i2c.c **** 
 150:Drivers/src/ch32v20x_i2c.c ****         if(result < 0x04)
 157              		.loc 1 150 11
 158 00c4 0357C4FE 		lhu	a4,-20(s0)
 159 00c8 8D47     		li	a5,3
 160 00ca 63E5E700 		bgtu	a4,a5,.L7
 151:Drivers/src/ch32v20x_i2c.c ****         {
 152:Drivers/src/ch32v20x_i2c.c ****             result = 0x04;
 161              		.loc 1 152 20
 162 00ce 9147     		li	a5,4
 163 00d0 2316F4FE 		sh	a5,-20(s0)
 164              	.L7:
 153:Drivers/src/ch32v20x_i2c.c ****         }
 154:Drivers/src/ch32v20x_i2c.c **** 
 155:Drivers/src/ch32v20x_i2c.c ****         tmpreg |= result;
 165              		.loc 1 155 16
 166 00d4 8357E4FE 		lhu	a5,-18(s0)
 167 00d8 3E87     		mv	a4,a5
 168 00da 8357C4FE 		lhu	a5,-20(s0)
 169 00de D98F     		or	a5,a4,a5
 170 00e0 2317F4FE 		sh	a5,-18(s0)
 156:Drivers/src/ch32v20x_i2c.c ****         I2Cx->RTR = freqrange + 1;
 171              		.loc 1 156 31
 172 00e4 8357A4FE 		lhu	a5,-22(s0)
 173 00e8 8507     		addi	a5,a5,1
 174 00ea 13970701 		slli	a4,a5,16
 175 00ee 4183     		srli	a4,a4,16
 176              		.loc 1 156 19
 177 00f0 8327C4FC 		lw	a5,-52(s0)
 178 00f4 9AB3     		sh	a4,32(a5)
 179 00f6 75A0     		j	.L8
 180              	.L6:
 157:Drivers/src/ch32v20x_i2c.c ****     }
 158:Drivers/src/ch32v20x_i2c.c ****     else
GAS LISTING C:\Users\SOLDER~1\AppData\Local\Temp\ccfBhFEg.s 			page 7


 159:Drivers/src/ch32v20x_i2c.c ****     {
 160:Drivers/src/ch32v20x_i2c.c ****         if(I2C_InitStruct->I2C_DutyCycle == I2C_DutyCycle_2)
 181              		.loc 1 160 26
 182 00f8 832784FC 		lw	a5,-56(s0)
 183 00fc FA23     		lhu	a4,6(a5)
 184              		.loc 1 160 11
 185 00fe B167     		li	a5,49152
 186 0100 FD17     		addi	a5,a5,-1
 187 0102 631FF700 		bne	a4,a5,.L9
 161:Drivers/src/ch32v20x_i2c.c ****         {
 162:Drivers/src/ch32v20x_i2c.c ****             result = (uint16_t)(pclk1 / (I2C_InitStruct->I2C_ClockSpeed * 3));
 188              		.loc 1 162 56
 189 0106 832784FC 		lw	a5,-56(s0)
 190 010a 9843     		lw	a4,0(a5)
 191              		.loc 1 162 73
 192 010c BA87     		mv	a5,a4
 193 010e 8607     		slli	a5,a5,1
 194 0110 BA97     		add	a5,a5,a4
 195              		.loc 1 162 39
 196 0112 032744FE 		lw	a4,-28(s0)
 197 0116 B357F702 		divu	a5,a4,a5
 198              		.loc 1 162 20
 199 011a 2316F4FE 		sh	a5,-20(s0)
 200 011e 35A0     		j	.L10
 201              	.L9:
 163:Drivers/src/ch32v20x_i2c.c ****         }
 164:Drivers/src/ch32v20x_i2c.c ****         else
 165:Drivers/src/ch32v20x_i2c.c ****         {
 166:Drivers/src/ch32v20x_i2c.c ****             result = (uint16_t)(pclk1 / (I2C_InitStruct->I2C_ClockSpeed * 25));
 202              		.loc 1 166 56
 203 0120 832784FC 		lw	a5,-56(s0)
 204 0124 9843     		lw	a4,0(a5)
 205              		.loc 1 166 73
 206 0126 BA87     		mv	a5,a4
 207 0128 8607     		slli	a5,a5,1
 208 012a BA97     		add	a5,a5,a4
 209 012c 8E07     		slli	a5,a5,3
 210 012e BA97     		add	a5,a5,a4
 211              		.loc 1 166 39
 212 0130 032744FE 		lw	a4,-28(s0)
 213 0134 B357F702 		divu	a5,a4,a5
 214              		.loc 1 166 20
 215 0138 2316F4FE 		sh	a5,-20(s0)
 167:Drivers/src/ch32v20x_i2c.c ****             result |= I2C_DutyCycle_16_9;
 216              		.loc 1 167 20
 217 013c 8357C4FE 		lhu	a5,-20(s0)
 218 0140 3E87     		mv	a4,a5
 219 0142 9167     		li	a5,16384
 220 0144 D98F     		or	a5,a4,a5
 221 0146 2316F4FE 		sh	a5,-20(s0)
 222              	.L10:
 168:Drivers/src/ch32v20x_i2c.c ****         }
 169:Drivers/src/ch32v20x_i2c.c **** 
 170:Drivers/src/ch32v20x_i2c.c ****         if((result & CKCFGR_CCR_Set) == 0)
 223              		.loc 1 170 20
 224 014a 0357C4FE 		lhu	a4,-20(s0)
 225 014e 8567     		li	a5,4096
GAS LISTING C:\Users\SOLDER~1\AppData\Local\Temp\ccfBhFEg.s 			page 8


 226 0150 FD17     		addi	a5,a5,-1
 227 0152 F98F     		and	a5,a4,a5
 228              		.loc 1 170 11
 229 0154 99E7     		bne	a5,zero,.L11
 171:Drivers/src/ch32v20x_i2c.c ****         {
 172:Drivers/src/ch32v20x_i2c.c ****             result |= (uint16_t)0x0001;
 230              		.loc 1 172 20
 231 0156 8357C4FE 		lhu	a5,-20(s0)
 232 015a 93E71700 		ori	a5,a5,1
 233 015e 2316F4FE 		sh	a5,-20(s0)
 234              	.L11:
 173:Drivers/src/ch32v20x_i2c.c ****         }
 174:Drivers/src/ch32v20x_i2c.c **** 
 175:Drivers/src/ch32v20x_i2c.c ****         tmpreg |= (uint16_t)(result | CKCFGR_FS_Set);
 235              		.loc 1 175 16
 236 0162 8357C4FE 		lhu	a5,-20(s0)
 237 0166 3E87     		mv	a4,a5
 238 0168 8357E4FE 		lhu	a5,-18(s0)
 239 016c D98F     		or	a5,a4,a5
 240 016e 13970701 		slli	a4,a5,16
 241 0172 4183     		srli	a4,a4,16
 242 0174 E177     		li	a5,-32768
 243 0176 D98F     		or	a5,a4,a5
 244 0178 2317F4FE 		sh	a5,-18(s0)
 176:Drivers/src/ch32v20x_i2c.c ****         I2Cx->RTR = (uint16_t)(((freqrange * (uint16_t)300) / (uint16_t)1000) + (uint16_t)1);
 245              		.loc 1 176 44
 246 017c 0357A4FE 		lhu	a4,-22(s0)
 247 0180 9307C012 		li	a5,300
 248 0184 3307F702 		mul	a4,a4,a5
 249              		.loc 1 176 61
 250 0188 9307803E 		li	a5,1000
 251 018c B347F702 		div	a5,a4,a5
 252              		.loc 1 176 21
 253 0190 C207     		slli	a5,a5,16
 254 0192 C183     		srli	a5,a5,16
 255 0194 8507     		addi	a5,a5,1
 256 0196 13970701 		slli	a4,a5,16
 257 019a 4183     		srli	a4,a4,16
 258              		.loc 1 176 19
 259 019c 8327C4FC 		lw	a5,-52(s0)
 260 01a0 9AB3     		sh	a4,32(a5)
 261              	.L8:
 177:Drivers/src/ch32v20x_i2c.c ****     }
 178:Drivers/src/ch32v20x_i2c.c **** 
 179:Drivers/src/ch32v20x_i2c.c ****     I2Cx->CKCFGR = tmpreg;
 262              		.loc 1 179 18
 263 01a2 8327C4FC 		lw	a5,-52(s0)
 264 01a6 0357E4FE 		lhu	a4,-18(s0)
 265 01aa DAAF     		sh	a4,28(a5)
 180:Drivers/src/ch32v20x_i2c.c ****     I2Cx->CTLR1 |= CTLR1_PE_Set;
 266              		.loc 1 180 9
 267 01ac 8327C4FC 		lw	a5,-52(s0)
 268 01b0 9E23     		lhu	a5,0(a5)
 269 01b2 C207     		slli	a5,a5,16
 270 01b4 C183     		srli	a5,a5,16
 271              		.loc 1 180 17
 272 01b6 93E71700 		ori	a5,a5,1
GAS LISTING C:\Users\SOLDER~1\AppData\Local\Temp\ccfBhFEg.s 			page 9


 273 01ba 13970701 		slli	a4,a5,16
 274 01be 4183     		srli	a4,a4,16
 275 01c0 8327C4FC 		lw	a5,-52(s0)
 276 01c4 9AA3     		sh	a4,0(a5)
 181:Drivers/src/ch32v20x_i2c.c **** 
 182:Drivers/src/ch32v20x_i2c.c ****     tmpreg = I2Cx->CTLR1;
 277              		.loc 1 182 12
 278 01c6 8327C4FC 		lw	a5,-52(s0)
 279 01ca 9E23     		lhu	a5,0(a5)
 280 01cc 2317F4FE 		sh	a5,-18(s0)
 183:Drivers/src/ch32v20x_i2c.c ****     tmpreg &= CTLR1_CLEAR_Mask;
 281              		.loc 1 183 12
 282 01d0 8357E4FE 		lhu	a5,-18(s0)
 283 01d4 93F757BF 		andi	a5,a5,-1035
 284 01d8 2317F4FE 		sh	a5,-18(s0)
 184:Drivers/src/ch32v20x_i2c.c ****     tmpreg |= (uint16_t)((uint32_t)I2C_InitStruct->I2C_Mode | I2C_InitStruct->I2C_Ack);
 285              		.loc 1 184 50
 286 01dc 832784FC 		lw	a5,-56(s0)
 287 01e0 DA23     		lhu	a4,4(a5)
 288              		.loc 1 184 77
 289 01e2 832784FC 		lw	a5,-56(s0)
 290 01e6 BE27     		lhu	a5,10(a5)
 291              		.loc 1 184 15
 292 01e8 D98F     		or	a5,a4,a5
 293 01ea C207     		slli	a5,a5,16
 294 01ec C183     		srli	a5,a5,16
 295              		.loc 1 184 12
 296 01ee 0357E4FE 		lhu	a4,-18(s0)
 297 01f2 D98F     		or	a5,a5,a4
 298 01f4 2317F4FE 		sh	a5,-18(s0)
 185:Drivers/src/ch32v20x_i2c.c ****     I2Cx->CTLR1 = tmpreg;
 299              		.loc 1 185 17
 300 01f8 8327C4FC 		lw	a5,-52(s0)
 301 01fc 0357E4FE 		lhu	a4,-18(s0)
 302 0200 9AA3     		sh	a4,0(a5)
 186:Drivers/src/ch32v20x_i2c.c **** 
 187:Drivers/src/ch32v20x_i2c.c ****     I2Cx->OADDR1 = (I2C_InitStruct->I2C_AcknowledgedAddress | I2C_InitStruct->I2C_OwnAddress1);
 303              		.loc 1 187 35
 304 0202 832784FC 		lw	a5,-56(s0)
 305 0206 DA27     		lhu	a4,12(a5)
 306              		.loc 1 187 77
 307 0208 832784FC 		lw	a5,-56(s0)
 308 020c 9E27     		lhu	a5,8(a5)
 309              		.loc 1 187 18
 310 020e D98F     		or	a5,a4,a5
 311 0210 13970701 		slli	a4,a5,16
 312 0214 4183     		srli	a4,a4,16
 313 0216 8327C4FC 		lw	a5,-52(s0)
 314 021a 9AA7     		sh	a4,8(a5)
 188:Drivers/src/ch32v20x_i2c.c **** }
 315              		.loc 1 188 1
 316 021c 0100     		nop
 317 021e F250     		lw	ra,60(sp)
 318              		.cfi_restore 1
 319 0220 6254     		lw	s0,56(sp)
 320              		.cfi_restore 8
 321              		.cfi_def_cfa 2, 64
GAS LISTING C:\Users\SOLDER~1\AppData\Local\Temp\ccfBhFEg.s 			page 10


 322 0222 2161     		addi	sp,sp,64
 323              		.cfi_def_cfa_offset 0
 324 0224 8280     		jr	ra
 325              		.cfi_endproc
 326              	.LFE17:
 328              		.section	.text.I2C_StructInit,"ax",@progbits
 329              		.align	1
 330              		.globl	I2C_StructInit
 332              	I2C_StructInit:
 333              	.LFB18:
 189:Drivers/src/ch32v20x_i2c.c **** 
 190:Drivers/src/ch32v20x_i2c.c **** /*********************************************************************
 191:Drivers/src/ch32v20x_i2c.c ****  * @fn      I2C_StructInit
 192:Drivers/src/ch32v20x_i2c.c ****  *
 193:Drivers/src/ch32v20x_i2c.c ****  * @brief   Fills each I2C_InitStruct member with its default value.
 194:Drivers/src/ch32v20x_i2c.c ****  *
 195:Drivers/src/ch32v20x_i2c.c ****  * @param   I2C_InitStruct - pointer to an I2C_InitTypeDef structure which
 196:Drivers/src/ch32v20x_i2c.c ****  *        will be initialized.
 197:Drivers/src/ch32v20x_i2c.c ****  *
 198:Drivers/src/ch32v20x_i2c.c ****  * @return  none
 199:Drivers/src/ch32v20x_i2c.c ****  */
 200:Drivers/src/ch32v20x_i2c.c **** void I2C_StructInit(I2C_InitTypeDef *I2C_InitStruct)
 201:Drivers/src/ch32v20x_i2c.c **** {
 334              		.loc 1 201 1
 335              		.cfi_startproc
 336 0000 0111     		addi	sp,sp,-32
 337              		.cfi_def_cfa_offset 32
 338 0002 22CE     		sw	s0,28(sp)
 339              		.cfi_offset 8, -4
 340 0004 0010     		addi	s0,sp,32
 341              		.cfi_def_cfa 8, 0
 342 0006 2326A4FE 		sw	a0,-20(s0)
 202:Drivers/src/ch32v20x_i2c.c ****     I2C_InitStruct->I2C_ClockSpeed = 5000;
 343              		.loc 1 202 36
 344 000a 8327C4FE 		lw	a5,-20(s0)
 345 000e 0567     		li	a4,4096
 346 0010 13078738 		addi	a4,a4,904
 347 0014 98C3     		sw	a4,0(a5)
 203:Drivers/src/ch32v20x_i2c.c ****     I2C_InitStruct->I2C_Mode = I2C_Mode_I2C;
 348              		.loc 1 203 30
 349 0016 8327C4FE 		lw	a5,-20(s0)
 350 001a 23920700 		sh	zero,4(a5)
 204:Drivers/src/ch32v20x_i2c.c ****     I2C_InitStruct->I2C_DutyCycle = I2C_DutyCycle_2;
 351              		.loc 1 204 35
 352 001e 8327C4FE 		lw	a5,-20(s0)
 353 0022 7177     		li	a4,-16384
 354 0024 7D17     		addi	a4,a4,-1
 355 0026 FAA3     		sh	a4,6(a5)
 205:Drivers/src/ch32v20x_i2c.c ****     I2C_InitStruct->I2C_OwnAddress1 = 0;
 356              		.loc 1 205 37
 357 0028 8327C4FE 		lw	a5,-20(s0)
 358 002c 23940700 		sh	zero,8(a5)
 206:Drivers/src/ch32v20x_i2c.c ****     I2C_InitStruct->I2C_Ack = I2C_Ack_Disable;
 359              		.loc 1 206 29
 360 0030 8327C4FE 		lw	a5,-20(s0)
 361 0034 23950700 		sh	zero,10(a5)
 207:Drivers/src/ch32v20x_i2c.c ****     I2C_InitStruct->I2C_AcknowledgedAddress = I2C_AcknowledgedAddress_7bit;
GAS LISTING C:\Users\SOLDER~1\AppData\Local\Temp\ccfBhFEg.s 			page 11


 362              		.loc 1 207 45
 363 0038 8327C4FE 		lw	a5,-20(s0)
 364 003c 1167     		li	a4,16384
 365 003e DAA7     		sh	a4,12(a5)
 208:Drivers/src/ch32v20x_i2c.c **** }
 366              		.loc 1 208 1
 367 0040 0100     		nop
 368 0042 7244     		lw	s0,28(sp)
 369              		.cfi_restore 8
 370              		.cfi_def_cfa 2, 32
 371 0044 0561     		addi	sp,sp,32
 372              		.cfi_def_cfa_offset 0
 373 0046 8280     		jr	ra
 374              		.cfi_endproc
 375              	.LFE18:
 377              		.section	.text.I2C_Cmd,"ax",@progbits
 378              		.align	1
 379              		.globl	I2C_Cmd
 381              	I2C_Cmd:
 382              	.LFB19:
 209:Drivers/src/ch32v20x_i2c.c **** 
 210:Drivers/src/ch32v20x_i2c.c **** /*********************************************************************
 211:Drivers/src/ch32v20x_i2c.c ****  * @fn      I2C_Cmd
 212:Drivers/src/ch32v20x_i2c.c ****  *
 213:Drivers/src/ch32v20x_i2c.c ****  * @brief   Enables or disables the specified I2C peripheral.
 214:Drivers/src/ch32v20x_i2c.c ****  *
 215:Drivers/src/ch32v20x_i2c.c ****  * @param   I2Cx - where x can be 1 or 2 to select the I2C peripheral.
 216:Drivers/src/ch32v20x_i2c.c ****  *          NewState - ENABLE or DISABLE.
 217:Drivers/src/ch32v20x_i2c.c ****  *
 218:Drivers/src/ch32v20x_i2c.c ****  * @return  none
 219:Drivers/src/ch32v20x_i2c.c ****  */
 220:Drivers/src/ch32v20x_i2c.c **** void I2C_Cmd(I2C_TypeDef *I2Cx, FunctionalState NewState)
 221:Drivers/src/ch32v20x_i2c.c **** {
 383              		.loc 1 221 1
 384              		.cfi_startproc
 385 0000 0111     		addi	sp,sp,-32
 386              		.cfi_def_cfa_offset 32
 387 0002 22CE     		sw	s0,28(sp)
 388              		.cfi_offset 8, -4
 389 0004 0010     		addi	s0,sp,32
 390              		.cfi_def_cfa 8, 0
 391 0006 2326A4FE 		sw	a0,-20(s0)
 392 000a 2324B4FE 		sw	a1,-24(s0)
 222:Drivers/src/ch32v20x_i2c.c ****     if(NewState != DISABLE)
 393              		.loc 1 222 7
 394 000e 832784FE 		lw	a5,-24(s0)
 395 0012 99CF     		beq	a5,zero,.L14
 223:Drivers/src/ch32v20x_i2c.c ****     {
 224:Drivers/src/ch32v20x_i2c.c ****         I2Cx->CTLR1 |= CTLR1_PE_Set;
 396              		.loc 1 224 13
 397 0014 8327C4FE 		lw	a5,-20(s0)
 398 0018 9E23     		lhu	a5,0(a5)
 399 001a C207     		slli	a5,a5,16
 400 001c C183     		srli	a5,a5,16
 401              		.loc 1 224 21
 402 001e 93E71700 		ori	a5,a5,1
 403 0022 13970701 		slli	a4,a5,16
GAS LISTING C:\Users\SOLDER~1\AppData\Local\Temp\ccfBhFEg.s 			page 12


 404 0026 4183     		srli	a4,a4,16
 405 0028 8327C4FE 		lw	a5,-20(s0)
 406 002c 9AA3     		sh	a4,0(a5)
 225:Drivers/src/ch32v20x_i2c.c ****     }
 226:Drivers/src/ch32v20x_i2c.c ****     else
 227:Drivers/src/ch32v20x_i2c.c ****     {
 228:Drivers/src/ch32v20x_i2c.c ****         I2Cx->CTLR1 &= CTLR1_PE_Reset;
 229:Drivers/src/ch32v20x_i2c.c ****     }
 230:Drivers/src/ch32v20x_i2c.c **** }
 407              		.loc 1 230 1
 408 002e 29A8     		j	.L16
 409              	.L14:
 228:Drivers/src/ch32v20x_i2c.c ****     }
 410              		.loc 1 228 13
 411 0030 8327C4FE 		lw	a5,-20(s0)
 412 0034 9E23     		lhu	a5,0(a5)
 413 0036 C207     		slli	a5,a5,16
 414 0038 C183     		srli	a5,a5,16
 228:Drivers/src/ch32v20x_i2c.c ****     }
 415              		.loc 1 228 21
 416 003a F99B     		andi	a5,a5,-2
 417 003c 13970701 		slli	a4,a5,16
 418 0040 4183     		srli	a4,a4,16
 419 0042 8327C4FE 		lw	a5,-20(s0)
 420 0046 9AA3     		sh	a4,0(a5)
 421              	.L16:
 422              		.loc 1 230 1
 423 0048 0100     		nop
 424 004a 7244     		lw	s0,28(sp)
 425              		.cfi_restore 8
 426              		.cfi_def_cfa 2, 32
 427 004c 0561     		addi	sp,sp,32
 428              		.cfi_def_cfa_offset 0
 429 004e 8280     		jr	ra
 430              		.cfi_endproc
 431              	.LFE19:
 433              		.section	.text.I2C_DMACmd,"ax",@progbits
 434              		.align	1
 435              		.globl	I2C_DMACmd
 437              	I2C_DMACmd:
 438              	.LFB20:
 231:Drivers/src/ch32v20x_i2c.c **** 
 232:Drivers/src/ch32v20x_i2c.c **** /*********************************************************************
 233:Drivers/src/ch32v20x_i2c.c ****  * @fn      I2C_DMACmd
 234:Drivers/src/ch32v20x_i2c.c ****  *
 235:Drivers/src/ch32v20x_i2c.c ****  * @brief   Enables or disables the specified I2C DMA requests.
 236:Drivers/src/ch32v20x_i2c.c ****  *
 237:Drivers/src/ch32v20x_i2c.c ****  * @param   I2Cx - where x can be 1 or 2 to select the I2C peripheral.
 238:Drivers/src/ch32v20x_i2c.c ****  *          NewState - ENABLE or DISABLE.
 239:Drivers/src/ch32v20x_i2c.c ****  *
 240:Drivers/src/ch32v20x_i2c.c ****  * @return  none
 241:Drivers/src/ch32v20x_i2c.c ****  */
 242:Drivers/src/ch32v20x_i2c.c **** void I2C_DMACmd(I2C_TypeDef *I2Cx, FunctionalState NewState)
 243:Drivers/src/ch32v20x_i2c.c **** {
 439              		.loc 1 243 1
 440              		.cfi_startproc
 441 0000 0111     		addi	sp,sp,-32
GAS LISTING C:\Users\SOLDER~1\AppData\Local\Temp\ccfBhFEg.s 			page 13


 442              		.cfi_def_cfa_offset 32
 443 0002 22CE     		sw	s0,28(sp)
 444              		.cfi_offset 8, -4
 445 0004 0010     		addi	s0,sp,32
 446              		.cfi_def_cfa 8, 0
 447 0006 2326A4FE 		sw	a0,-20(s0)
 448 000a 2324B4FE 		sw	a1,-24(s0)
 244:Drivers/src/ch32v20x_i2c.c ****     if(NewState != DISABLE)
 449              		.loc 1 244 7
 450 000e 832784FE 		lw	a5,-24(s0)
 451 0012 95C3     		beq	a5,zero,.L18
 245:Drivers/src/ch32v20x_i2c.c ****     {
 246:Drivers/src/ch32v20x_i2c.c ****         I2Cx->CTLR2 |= CTLR2_DMAEN_Set;
 452              		.loc 1 246 13
 453 0014 8327C4FE 		lw	a5,-20(s0)
 454 0018 DE23     		lhu	a5,4(a5)
 455 001a 13970701 		slli	a4,a5,16
 456 001e 4183     		srli	a4,a4,16
 457              		.loc 1 246 21
 458 0020 8567     		li	a5,4096
 459 0022 93870780 		addi	a5,a5,-2048
 460 0026 D98F     		or	a5,a4,a5
 461 0028 13970701 		slli	a4,a5,16
 462 002c 4183     		srli	a4,a4,16
 463 002e 8327C4FE 		lw	a5,-20(s0)
 464 0032 DAA3     		sh	a4,4(a5)
 247:Drivers/src/ch32v20x_i2c.c ****     }
 248:Drivers/src/ch32v20x_i2c.c ****     else
 249:Drivers/src/ch32v20x_i2c.c ****     {
 250:Drivers/src/ch32v20x_i2c.c ****         I2Cx->CTLR2 &= CTLR2_DMAEN_Reset;
 251:Drivers/src/ch32v20x_i2c.c ****     }
 252:Drivers/src/ch32v20x_i2c.c **** }
 465              		.loc 1 252 1
 466 0034 0DA0     		j	.L20
 467              	.L18:
 250:Drivers/src/ch32v20x_i2c.c ****     }
 468              		.loc 1 250 13
 469 0036 8327C4FE 		lw	a5,-20(s0)
 470 003a DE23     		lhu	a5,4(a5)
 471 003c 13970701 		slli	a4,a5,16
 472 0040 4183     		srli	a4,a4,16
 250:Drivers/src/ch32v20x_i2c.c ****     }
 473              		.loc 1 250 21
 474 0042 FD77     		li	a5,-4096
 475 0044 9387F77F 		addi	a5,a5,2047
 476 0048 F98F     		and	a5,a4,a5
 477 004a 13970701 		slli	a4,a5,16
 478 004e 4183     		srli	a4,a4,16
 479 0050 8327C4FE 		lw	a5,-20(s0)
 480 0054 DAA3     		sh	a4,4(a5)
 481              	.L20:
 482              		.loc 1 252 1
 483 0056 0100     		nop
 484 0058 7244     		lw	s0,28(sp)
 485              		.cfi_restore 8
 486              		.cfi_def_cfa 2, 32
 487 005a 0561     		addi	sp,sp,32
GAS LISTING C:\Users\SOLDER~1\AppData\Local\Temp\ccfBhFEg.s 			page 14


 488              		.cfi_def_cfa_offset 0
 489 005c 8280     		jr	ra
 490              		.cfi_endproc
 491              	.LFE20:
 493              		.section	.text.I2C_DMALastTransferCmd,"ax",@progbits
 494              		.align	1
 495              		.globl	I2C_DMALastTransferCmd
 497              	I2C_DMALastTransferCmd:
 498              	.LFB21:
 253:Drivers/src/ch32v20x_i2c.c **** 
 254:Drivers/src/ch32v20x_i2c.c **** /*********************************************************************
 255:Drivers/src/ch32v20x_i2c.c ****  * @fn      I2C_DMALastTransferCmd
 256:Drivers/src/ch32v20x_i2c.c ****  *
 257:Drivers/src/ch32v20x_i2c.c ****  * @brief   Specifies if the next DMA transfer will be the last one.
 258:Drivers/src/ch32v20x_i2c.c ****  *
 259:Drivers/src/ch32v20x_i2c.c ****  * @param   I2Cx - where x can be 1 or 2 to select the I2C peripheral.
 260:Drivers/src/ch32v20x_i2c.c ****  *          NewState - ENABLE or DISABLE.
 261:Drivers/src/ch32v20x_i2c.c ****  *
 262:Drivers/src/ch32v20x_i2c.c ****  * @return  none
 263:Drivers/src/ch32v20x_i2c.c ****  */
 264:Drivers/src/ch32v20x_i2c.c **** void I2C_DMALastTransferCmd(I2C_TypeDef *I2Cx, FunctionalState NewState)
 265:Drivers/src/ch32v20x_i2c.c **** {
 499              		.loc 1 265 1
 500              		.cfi_startproc
 501 0000 0111     		addi	sp,sp,-32
 502              		.cfi_def_cfa_offset 32
 503 0002 22CE     		sw	s0,28(sp)
 504              		.cfi_offset 8, -4
 505 0004 0010     		addi	s0,sp,32
 506              		.cfi_def_cfa 8, 0
 507 0006 2326A4FE 		sw	a0,-20(s0)
 508 000a 2324B4FE 		sw	a1,-24(s0)
 266:Drivers/src/ch32v20x_i2c.c ****     if(NewState != DISABLE)
 509              		.loc 1 266 7
 510 000e 832784FE 		lw	a5,-24(s0)
 511 0012 85C3     		beq	a5,zero,.L22
 267:Drivers/src/ch32v20x_i2c.c ****     {
 268:Drivers/src/ch32v20x_i2c.c ****         I2Cx->CTLR2 |= CTLR2_LAST_Set;
 512              		.loc 1 268 13
 513 0014 8327C4FE 		lw	a5,-20(s0)
 514 0018 DE23     		lhu	a5,4(a5)
 515 001a 13970701 		slli	a4,a5,16
 516 001e 4183     		srli	a4,a4,16
 517              		.loc 1 268 21
 518 0020 8567     		li	a5,4096
 519 0022 D98F     		or	a5,a4,a5
 520 0024 13970701 		slli	a4,a5,16
 521 0028 4183     		srli	a4,a4,16
 522 002a 8327C4FE 		lw	a5,-20(s0)
 523 002e DAA3     		sh	a4,4(a5)
 269:Drivers/src/ch32v20x_i2c.c ****     }
 270:Drivers/src/ch32v20x_i2c.c ****     else
 271:Drivers/src/ch32v20x_i2c.c ****     {
 272:Drivers/src/ch32v20x_i2c.c ****         I2Cx->CTLR2 &= CTLR2_LAST_Reset;
 273:Drivers/src/ch32v20x_i2c.c ****     }
 274:Drivers/src/ch32v20x_i2c.c **** }
 524              		.loc 1 274 1
GAS LISTING C:\Users\SOLDER~1\AppData\Local\Temp\ccfBhFEg.s 			page 15


 525 0030 05A0     		j	.L24
 526              	.L22:
 272:Drivers/src/ch32v20x_i2c.c ****     }
 527              		.loc 1 272 13
 528 0032 8327C4FE 		lw	a5,-20(s0)
 529 0036 DE23     		lhu	a5,4(a5)
 530 0038 13970701 		slli	a4,a5,16
 531 003c 4183     		srli	a4,a4,16
 272:Drivers/src/ch32v20x_i2c.c ****     }
 532              		.loc 1 272 21
 533 003e FD77     		li	a5,-4096
 534 0040 FD17     		addi	a5,a5,-1
 535 0042 F98F     		and	a5,a4,a5
 536 0044 13970701 		slli	a4,a5,16
 537 0048 4183     		srli	a4,a4,16
 538 004a 8327C4FE 		lw	a5,-20(s0)
 539 004e DAA3     		sh	a4,4(a5)
 540              	.L24:
 541              		.loc 1 274 1
 542 0050 0100     		nop
 543 0052 7244     		lw	s0,28(sp)
 544              		.cfi_restore 8
 545              		.cfi_def_cfa 2, 32
 546 0054 0561     		addi	sp,sp,32
 547              		.cfi_def_cfa_offset 0
 548 0056 8280     		jr	ra
 549              		.cfi_endproc
 550              	.LFE21:
 552              		.section	.text.I2C_GenerateSTART,"ax",@progbits
 553              		.align	1
 554              		.globl	I2C_GenerateSTART
 556              	I2C_GenerateSTART:
 557              	.LFB22:
 275:Drivers/src/ch32v20x_i2c.c **** 
 276:Drivers/src/ch32v20x_i2c.c **** /*********************************************************************
 277:Drivers/src/ch32v20x_i2c.c ****  * @fn      I2C_GenerateSTART
 278:Drivers/src/ch32v20x_i2c.c ****  *
 279:Drivers/src/ch32v20x_i2c.c ****  * @brief   Generates I2Cx communication START condition.
 280:Drivers/src/ch32v20x_i2c.c ****  *
 281:Drivers/src/ch32v20x_i2c.c ****  * @param   I2Cx - where x can be 1 or 2 to select the I2C peripheral.
 282:Drivers/src/ch32v20x_i2c.c ****  *          NewState - ENABLE or DISABLE.
 283:Drivers/src/ch32v20x_i2c.c ****  *
 284:Drivers/src/ch32v20x_i2c.c ****  * @return  none
 285:Drivers/src/ch32v20x_i2c.c ****  */
 286:Drivers/src/ch32v20x_i2c.c **** void I2C_GenerateSTART(I2C_TypeDef *I2Cx, FunctionalState NewState)
 287:Drivers/src/ch32v20x_i2c.c **** {
 558              		.loc 1 287 1
 559              		.cfi_startproc
 560 0000 0111     		addi	sp,sp,-32
 561              		.cfi_def_cfa_offset 32
 562 0002 22CE     		sw	s0,28(sp)
 563              		.cfi_offset 8, -4
 564 0004 0010     		addi	s0,sp,32
 565              		.cfi_def_cfa 8, 0
 566 0006 2326A4FE 		sw	a0,-20(s0)
 567 000a 2324B4FE 		sw	a1,-24(s0)
 288:Drivers/src/ch32v20x_i2c.c ****     if(NewState != DISABLE)
GAS LISTING C:\Users\SOLDER~1\AppData\Local\Temp\ccfBhFEg.s 			page 16


 568              		.loc 1 288 7
 569 000e 832784FE 		lw	a5,-24(s0)
 570 0012 99CF     		beq	a5,zero,.L26
 289:Drivers/src/ch32v20x_i2c.c ****     {
 290:Drivers/src/ch32v20x_i2c.c ****         I2Cx->CTLR1 |= CTLR1_START_Set;
 571              		.loc 1 290 13
 572 0014 8327C4FE 		lw	a5,-20(s0)
 573 0018 9E23     		lhu	a5,0(a5)
 574 001a C207     		slli	a5,a5,16
 575 001c C183     		srli	a5,a5,16
 576              		.loc 1 290 21
 577 001e 93E70710 		ori	a5,a5,256
 578 0022 13970701 		slli	a4,a5,16
 579 0026 4183     		srli	a4,a4,16
 580 0028 8327C4FE 		lw	a5,-20(s0)
 581 002c 9AA3     		sh	a4,0(a5)
 291:Drivers/src/ch32v20x_i2c.c ****     }
 292:Drivers/src/ch32v20x_i2c.c ****     else
 293:Drivers/src/ch32v20x_i2c.c ****     {
 294:Drivers/src/ch32v20x_i2c.c ****         I2Cx->CTLR1 &= CTLR1_START_Reset;
 295:Drivers/src/ch32v20x_i2c.c ****     }
 296:Drivers/src/ch32v20x_i2c.c **** }
 582              		.loc 1 296 1
 583 002e 31A8     		j	.L28
 584              	.L26:
 294:Drivers/src/ch32v20x_i2c.c ****     }
 585              		.loc 1 294 13
 586 0030 8327C4FE 		lw	a5,-20(s0)
 587 0034 9E23     		lhu	a5,0(a5)
 588 0036 C207     		slli	a5,a5,16
 589 0038 C183     		srli	a5,a5,16
 294:Drivers/src/ch32v20x_i2c.c ****     }
 590              		.loc 1 294 21
 591 003a 93F7F7EF 		andi	a5,a5,-257
 592 003e 13970701 		slli	a4,a5,16
 593 0042 4183     		srli	a4,a4,16
 594 0044 8327C4FE 		lw	a5,-20(s0)
 595 0048 9AA3     		sh	a4,0(a5)
 596              	.L28:
 597              		.loc 1 296 1
 598 004a 0100     		nop
 599 004c 7244     		lw	s0,28(sp)
 600              		.cfi_restore 8
 601              		.cfi_def_cfa 2, 32
 602 004e 0561     		addi	sp,sp,32
 603              		.cfi_def_cfa_offset 0
 604 0050 8280     		jr	ra
 605              		.cfi_endproc
 606              	.LFE22:
 608              		.section	.text.I2C_GenerateSTOP,"ax",@progbits
 609              		.align	1
 610              		.globl	I2C_GenerateSTOP
 612              	I2C_GenerateSTOP:
 613              	.LFB23:
 297:Drivers/src/ch32v20x_i2c.c **** 
 298:Drivers/src/ch32v20x_i2c.c **** /*********************************************************************
 299:Drivers/src/ch32v20x_i2c.c ****  * @fn      I2C_GenerateSTOP
GAS LISTING C:\Users\SOLDER~1\AppData\Local\Temp\ccfBhFEg.s 			page 17


 300:Drivers/src/ch32v20x_i2c.c ****  *
 301:Drivers/src/ch32v20x_i2c.c ****  * @brief   Generates I2Cx communication STOP condition.
 302:Drivers/src/ch32v20x_i2c.c ****  *
 303:Drivers/src/ch32v20x_i2c.c ****  * @param   I2Cx - where x can be 1 or 2 to select the I2C peripheral.
 304:Drivers/src/ch32v20x_i2c.c ****  *          NewState - ENABLE or DISABLE.
 305:Drivers/src/ch32v20x_i2c.c ****  *
 306:Drivers/src/ch32v20x_i2c.c ****  * @return  none
 307:Drivers/src/ch32v20x_i2c.c ****  */
 308:Drivers/src/ch32v20x_i2c.c **** void I2C_GenerateSTOP(I2C_TypeDef *I2Cx, FunctionalState NewState)
 309:Drivers/src/ch32v20x_i2c.c **** {
 614              		.loc 1 309 1
 615              		.cfi_startproc
 616 0000 0111     		addi	sp,sp,-32
 617              		.cfi_def_cfa_offset 32
 618 0002 22CE     		sw	s0,28(sp)
 619              		.cfi_offset 8, -4
 620 0004 0010     		addi	s0,sp,32
 621              		.cfi_def_cfa 8, 0
 622 0006 2326A4FE 		sw	a0,-20(s0)
 623 000a 2324B4FE 		sw	a1,-24(s0)
 310:Drivers/src/ch32v20x_i2c.c ****     if(NewState != DISABLE)
 624              		.loc 1 310 7
 625 000e 832784FE 		lw	a5,-24(s0)
 626 0012 99CF     		beq	a5,zero,.L30
 311:Drivers/src/ch32v20x_i2c.c ****     {
 312:Drivers/src/ch32v20x_i2c.c ****         I2Cx->CTLR1 |= CTLR1_STOP_Set;
 627              		.loc 1 312 13
 628 0014 8327C4FE 		lw	a5,-20(s0)
 629 0018 9E23     		lhu	a5,0(a5)
 630 001a C207     		slli	a5,a5,16
 631 001c C183     		srli	a5,a5,16
 632              		.loc 1 312 21
 633 001e 93E70720 		ori	a5,a5,512
 634 0022 13970701 		slli	a4,a5,16
 635 0026 4183     		srli	a4,a4,16
 636 0028 8327C4FE 		lw	a5,-20(s0)
 637 002c 9AA3     		sh	a4,0(a5)
 313:Drivers/src/ch32v20x_i2c.c ****     }
 314:Drivers/src/ch32v20x_i2c.c ****     else
 315:Drivers/src/ch32v20x_i2c.c ****     {
 316:Drivers/src/ch32v20x_i2c.c ****         I2Cx->CTLR1 &= CTLR1_STOP_Reset;
 317:Drivers/src/ch32v20x_i2c.c ****     }
 318:Drivers/src/ch32v20x_i2c.c **** }
 638              		.loc 1 318 1
 639 002e 31A8     		j	.L32
 640              	.L30:
 316:Drivers/src/ch32v20x_i2c.c ****     }
 641              		.loc 1 316 13
 642 0030 8327C4FE 		lw	a5,-20(s0)
 643 0034 9E23     		lhu	a5,0(a5)
 644 0036 C207     		slli	a5,a5,16
 645 0038 C183     		srli	a5,a5,16
 316:Drivers/src/ch32v20x_i2c.c ****     }
 646              		.loc 1 316 21
 647 003a 93F7F7DF 		andi	a5,a5,-513
 648 003e 13970701 		slli	a4,a5,16
 649 0042 4183     		srli	a4,a4,16
GAS LISTING C:\Users\SOLDER~1\AppData\Local\Temp\ccfBhFEg.s 			page 18


 650 0044 8327C4FE 		lw	a5,-20(s0)
 651 0048 9AA3     		sh	a4,0(a5)
 652              	.L32:
 653              		.loc 1 318 1
 654 004a 0100     		nop
 655 004c 7244     		lw	s0,28(sp)
 656              		.cfi_restore 8
 657              		.cfi_def_cfa 2, 32
 658 004e 0561     		addi	sp,sp,32
 659              		.cfi_def_cfa_offset 0
 660 0050 8280     		jr	ra
 661              		.cfi_endproc
 662              	.LFE23:
 664              		.section	.text.I2C_AcknowledgeConfig,"ax",@progbits
 665              		.align	1
 666              		.globl	I2C_AcknowledgeConfig
 668              	I2C_AcknowledgeConfig:
 669              	.LFB24:
 319:Drivers/src/ch32v20x_i2c.c **** 
 320:Drivers/src/ch32v20x_i2c.c **** /*********************************************************************
 321:Drivers/src/ch32v20x_i2c.c ****  * @fn      I2C_AcknowledgeConfig
 322:Drivers/src/ch32v20x_i2c.c ****  *
 323:Drivers/src/ch32v20x_i2c.c ****  * @brief   Enables or disables the specified I2C acknowledge feature.
 324:Drivers/src/ch32v20x_i2c.c ****  *
 325:Drivers/src/ch32v20x_i2c.c ****  * @param   I2Cx - where x can be 1 or 2 to select the I2C peripheral.
 326:Drivers/src/ch32v20x_i2c.c ****  *          NewState - ENABLE or DISABLE.
 327:Drivers/src/ch32v20x_i2c.c ****  *
 328:Drivers/src/ch32v20x_i2c.c ****  * @return  none
 329:Drivers/src/ch32v20x_i2c.c ****  */
 330:Drivers/src/ch32v20x_i2c.c **** void I2C_AcknowledgeConfig(I2C_TypeDef *I2Cx, FunctionalState NewState)
 331:Drivers/src/ch32v20x_i2c.c **** {
 670              		.loc 1 331 1
 671              		.cfi_startproc
 672 0000 0111     		addi	sp,sp,-32
 673              		.cfi_def_cfa_offset 32
 674 0002 22CE     		sw	s0,28(sp)
 675              		.cfi_offset 8, -4
 676 0004 0010     		addi	s0,sp,32
 677              		.cfi_def_cfa 8, 0
 678 0006 2326A4FE 		sw	a0,-20(s0)
 679 000a 2324B4FE 		sw	a1,-24(s0)
 332:Drivers/src/ch32v20x_i2c.c ****     if(NewState != DISABLE)
 680              		.loc 1 332 7
 681 000e 832784FE 		lw	a5,-24(s0)
 682 0012 99CF     		beq	a5,zero,.L34
 333:Drivers/src/ch32v20x_i2c.c ****     {
 334:Drivers/src/ch32v20x_i2c.c ****         I2Cx->CTLR1 |= CTLR1_ACK_Set;
 683              		.loc 1 334 13
 684 0014 8327C4FE 		lw	a5,-20(s0)
 685 0018 9E23     		lhu	a5,0(a5)
 686 001a C207     		slli	a5,a5,16
 687 001c C183     		srli	a5,a5,16
 688              		.loc 1 334 21
 689 001e 93E70740 		ori	a5,a5,1024
 690 0022 13970701 		slli	a4,a5,16
 691 0026 4183     		srli	a4,a4,16
 692 0028 8327C4FE 		lw	a5,-20(s0)
GAS LISTING C:\Users\SOLDER~1\AppData\Local\Temp\ccfBhFEg.s 			page 19


 693 002c 9AA3     		sh	a4,0(a5)
 335:Drivers/src/ch32v20x_i2c.c ****     }
 336:Drivers/src/ch32v20x_i2c.c ****     else
 337:Drivers/src/ch32v20x_i2c.c ****     {
 338:Drivers/src/ch32v20x_i2c.c ****         I2Cx->CTLR1 &= CTLR1_ACK_Reset;
 339:Drivers/src/ch32v20x_i2c.c ****     }
 340:Drivers/src/ch32v20x_i2c.c **** }
 694              		.loc 1 340 1
 695 002e 31A8     		j	.L36
 696              	.L34:
 338:Drivers/src/ch32v20x_i2c.c ****     }
 697              		.loc 1 338 13
 698 0030 8327C4FE 		lw	a5,-20(s0)
 699 0034 9E23     		lhu	a5,0(a5)
 700 0036 C207     		slli	a5,a5,16
 701 0038 C183     		srli	a5,a5,16
 338:Drivers/src/ch32v20x_i2c.c ****     }
 702              		.loc 1 338 21
 703 003a 93F7F7BF 		andi	a5,a5,-1025
 704 003e 13970701 		slli	a4,a5,16
 705 0042 4183     		srli	a4,a4,16
 706 0044 8327C4FE 		lw	a5,-20(s0)
 707 0048 9AA3     		sh	a4,0(a5)
 708              	.L36:
 709              		.loc 1 340 1
 710 004a 0100     		nop
 711 004c 7244     		lw	s0,28(sp)
 712              		.cfi_restore 8
 713              		.cfi_def_cfa 2, 32
 714 004e 0561     		addi	sp,sp,32
 715              		.cfi_def_cfa_offset 0
 716 0050 8280     		jr	ra
 717              		.cfi_endproc
 718              	.LFE24:
 720              		.section	.text.I2C_OwnAddress2Config,"ax",@progbits
 721              		.align	1
 722              		.globl	I2C_OwnAddress2Config
 724              	I2C_OwnAddress2Config:
 725              	.LFB25:
 341:Drivers/src/ch32v20x_i2c.c **** 
 342:Drivers/src/ch32v20x_i2c.c **** /*********************************************************************
 343:Drivers/src/ch32v20x_i2c.c ****  * @fn      I2C_OwnAddress2Config
 344:Drivers/src/ch32v20x_i2c.c ****  *
 345:Drivers/src/ch32v20x_i2c.c ****  * @brief   Configures the specified I2C own address2.
 346:Drivers/src/ch32v20x_i2c.c ****  *
 347:Drivers/src/ch32v20x_i2c.c ****  * @param   I2Cx - where x can be 1 or 2 to select the I2C peripheral.
 348:Drivers/src/ch32v20x_i2c.c ****  *          Address - specifies the 7bit I2C own address2.
 349:Drivers/src/ch32v20x_i2c.c ****  *
 350:Drivers/src/ch32v20x_i2c.c ****  * @return  none
 351:Drivers/src/ch32v20x_i2c.c ****  */
 352:Drivers/src/ch32v20x_i2c.c **** void I2C_OwnAddress2Config(I2C_TypeDef *I2Cx, uint8_t Address)
 353:Drivers/src/ch32v20x_i2c.c **** {
 726              		.loc 1 353 1
 727              		.cfi_startproc
 728 0000 7971     		addi	sp,sp,-48
 729              		.cfi_def_cfa_offset 48
 730 0002 22D6     		sw	s0,44(sp)
GAS LISTING C:\Users\SOLDER~1\AppData\Local\Temp\ccfBhFEg.s 			page 20


 731              		.cfi_offset 8, -4
 732 0004 0018     		addi	s0,sp,48
 733              		.cfi_def_cfa 8, 0
 734 0006 232EA4FC 		sw	a0,-36(s0)
 735 000a AE87     		mv	a5,a1
 736 000c A30DF4FC 		sb	a5,-37(s0)
 354:Drivers/src/ch32v20x_i2c.c ****     uint16_t tmpreg = 0;
 737              		.loc 1 354 14
 738 0010 231704FE 		sh	zero,-18(s0)
 355:Drivers/src/ch32v20x_i2c.c **** 
 356:Drivers/src/ch32v20x_i2c.c ****     tmpreg = I2Cx->OADDR2;
 739              		.loc 1 356 12
 740 0014 8327C4FD 		lw	a5,-36(s0)
 741 0018 DE27     		lhu	a5,12(a5)
 742 001a 2317F4FE 		sh	a5,-18(s0)
 357:Drivers/src/ch32v20x_i2c.c ****     tmpreg &= OADDR2_ADD2_Reset;
 743              		.loc 1 357 12
 744 001e 8357E4FE 		lhu	a5,-18(s0)
 745 0022 93F717F0 		andi	a5,a5,-255
 746 0026 2317F4FE 		sh	a5,-18(s0)
 358:Drivers/src/ch32v20x_i2c.c ****     tmpreg |= (uint16_t)((uint16_t)Address & (uint16_t)0x00FE);
 747              		.loc 1 358 15
 748 002a 8347B4FD 		lbu	a5,-37(s0)
 749 002e C207     		slli	a5,a5,16
 750 0030 C187     		srai	a5,a5,16
 751 0032 93F7E70F 		andi	a5,a5,254
 752 0036 13970701 		slli	a4,a5,16
 753 003a 4187     		srai	a4,a4,16
 754              		.loc 1 358 12
 755 003c 8317E4FE 		lh	a5,-18(s0)
 756 0040 D98F     		or	a5,a4,a5
 757 0042 C207     		slli	a5,a5,16
 758 0044 C187     		srai	a5,a5,16
 759 0046 2317F4FE 		sh	a5,-18(s0)
 359:Drivers/src/ch32v20x_i2c.c ****     I2Cx->OADDR2 = tmpreg;
 760              		.loc 1 359 18
 761 004a 8327C4FD 		lw	a5,-36(s0)
 762 004e 0357E4FE 		lhu	a4,-18(s0)
 763 0052 DAA7     		sh	a4,12(a5)
 360:Drivers/src/ch32v20x_i2c.c **** }
 764              		.loc 1 360 1
 765 0054 0100     		nop
 766 0056 3254     		lw	s0,44(sp)
 767              		.cfi_restore 8
 768              		.cfi_def_cfa 2, 48
 769 0058 4561     		addi	sp,sp,48
 770              		.cfi_def_cfa_offset 0
 771 005a 8280     		jr	ra
 772              		.cfi_endproc
 773              	.LFE25:
 775              		.section	.text.I2C_DualAddressCmd,"ax",@progbits
 776              		.align	1
 777              		.globl	I2C_DualAddressCmd
 779              	I2C_DualAddressCmd:
 780              	.LFB26:
 361:Drivers/src/ch32v20x_i2c.c **** 
 362:Drivers/src/ch32v20x_i2c.c **** /*********************************************************************
GAS LISTING C:\Users\SOLDER~1\AppData\Local\Temp\ccfBhFEg.s 			page 21


 363:Drivers/src/ch32v20x_i2c.c ****  * @fn      I2C_DualAddressCmd
 364:Drivers/src/ch32v20x_i2c.c ****  *
 365:Drivers/src/ch32v20x_i2c.c ****  * @brief   Enables or disables the specified I2C dual addressing mode.
 366:Drivers/src/ch32v20x_i2c.c ****  *
 367:Drivers/src/ch32v20x_i2c.c ****  * @param   I2Cx - where x can be 1 or 2 to select the I2C peripheral.
 368:Drivers/src/ch32v20x_i2c.c ****  *          NewState - ENABLE or DISABLE.
 369:Drivers/src/ch32v20x_i2c.c ****  *
 370:Drivers/src/ch32v20x_i2c.c ****  * @return  none
 371:Drivers/src/ch32v20x_i2c.c ****  */
 372:Drivers/src/ch32v20x_i2c.c **** void I2C_DualAddressCmd(I2C_TypeDef *I2Cx, FunctionalState NewState)
 373:Drivers/src/ch32v20x_i2c.c **** {
 781              		.loc 1 373 1
 782              		.cfi_startproc
 783 0000 0111     		addi	sp,sp,-32
 784              		.cfi_def_cfa_offset 32
 785 0002 22CE     		sw	s0,28(sp)
 786              		.cfi_offset 8, -4
 787 0004 0010     		addi	s0,sp,32
 788              		.cfi_def_cfa 8, 0
 789 0006 2326A4FE 		sw	a0,-20(s0)
 790 000a 2324B4FE 		sw	a1,-24(s0)
 374:Drivers/src/ch32v20x_i2c.c ****     if(NewState != DISABLE)
 791              		.loc 1 374 7
 792 000e 832784FE 		lw	a5,-24(s0)
 793 0012 99CF     		beq	a5,zero,.L39
 375:Drivers/src/ch32v20x_i2c.c ****     {
 376:Drivers/src/ch32v20x_i2c.c ****         I2Cx->OADDR2 |= OADDR2_ENDUAL_Set;
 794              		.loc 1 376 13
 795 0014 8327C4FE 		lw	a5,-20(s0)
 796 0018 DE27     		lhu	a5,12(a5)
 797 001a C207     		slli	a5,a5,16
 798 001c C183     		srli	a5,a5,16
 799              		.loc 1 376 22
 800 001e 93E71700 		ori	a5,a5,1
 801 0022 13970701 		slli	a4,a5,16
 802 0026 4183     		srli	a4,a4,16
 803 0028 8327C4FE 		lw	a5,-20(s0)
 804 002c DAA7     		sh	a4,12(a5)
 377:Drivers/src/ch32v20x_i2c.c ****     }
 378:Drivers/src/ch32v20x_i2c.c ****     else
 379:Drivers/src/ch32v20x_i2c.c ****     {
 380:Drivers/src/ch32v20x_i2c.c ****         I2Cx->OADDR2 &= OADDR2_ENDUAL_Reset;
 381:Drivers/src/ch32v20x_i2c.c ****     }
 382:Drivers/src/ch32v20x_i2c.c **** }
 805              		.loc 1 382 1
 806 002e 29A8     		j	.L41
 807              	.L39:
 380:Drivers/src/ch32v20x_i2c.c ****     }
 808              		.loc 1 380 13
 809 0030 8327C4FE 		lw	a5,-20(s0)
 810 0034 DE27     		lhu	a5,12(a5)
 811 0036 C207     		slli	a5,a5,16
 812 0038 C183     		srli	a5,a5,16
 380:Drivers/src/ch32v20x_i2c.c ****     }
 813              		.loc 1 380 22
 814 003a F99B     		andi	a5,a5,-2
 815 003c 13970701 		slli	a4,a5,16
GAS LISTING C:\Users\SOLDER~1\AppData\Local\Temp\ccfBhFEg.s 			page 22


 816 0040 4183     		srli	a4,a4,16
 817 0042 8327C4FE 		lw	a5,-20(s0)
 818 0046 DAA7     		sh	a4,12(a5)
 819              	.L41:
 820              		.loc 1 382 1
 821 0048 0100     		nop
 822 004a 7244     		lw	s0,28(sp)
 823              		.cfi_restore 8
 824              		.cfi_def_cfa 2, 32
 825 004c 0561     		addi	sp,sp,32
 826              		.cfi_def_cfa_offset 0
 827 004e 8280     		jr	ra
 828              		.cfi_endproc
 829              	.LFE26:
 831              		.section	.text.I2C_GeneralCallCmd,"ax",@progbits
 832              		.align	1
 833              		.globl	I2C_GeneralCallCmd
 835              	I2C_GeneralCallCmd:
 836              	.LFB27:
 383:Drivers/src/ch32v20x_i2c.c **** 
 384:Drivers/src/ch32v20x_i2c.c **** /*********************************************************************
 385:Drivers/src/ch32v20x_i2c.c ****  * @fn      I2C_GeneralCallCmd
 386:Drivers/src/ch32v20x_i2c.c ****  *
 387:Drivers/src/ch32v20x_i2c.c ****  * @brief   Enables or disables the specified I2C general call feature.
 388:Drivers/src/ch32v20x_i2c.c ****  *
 389:Drivers/src/ch32v20x_i2c.c ****  * @param   I2Cx - where x can be 1 or 2 to select the I2C peripheral.
 390:Drivers/src/ch32v20x_i2c.c ****  *          NewState - ENABLE or DISABLE.
 391:Drivers/src/ch32v20x_i2c.c ****  *
 392:Drivers/src/ch32v20x_i2c.c ****  * @return  none
 393:Drivers/src/ch32v20x_i2c.c ****  */
 394:Drivers/src/ch32v20x_i2c.c **** void I2C_GeneralCallCmd(I2C_TypeDef *I2Cx, FunctionalState NewState)
 395:Drivers/src/ch32v20x_i2c.c **** {
 837              		.loc 1 395 1
 838              		.cfi_startproc
 839 0000 0111     		addi	sp,sp,-32
 840              		.cfi_def_cfa_offset 32
 841 0002 22CE     		sw	s0,28(sp)
 842              		.cfi_offset 8, -4
 843 0004 0010     		addi	s0,sp,32
 844              		.cfi_def_cfa 8, 0
 845 0006 2326A4FE 		sw	a0,-20(s0)
 846 000a 2324B4FE 		sw	a1,-24(s0)
 396:Drivers/src/ch32v20x_i2c.c ****     if(NewState != DISABLE)
 847              		.loc 1 396 7
 848 000e 832784FE 		lw	a5,-24(s0)
 849 0012 99CF     		beq	a5,zero,.L43
 397:Drivers/src/ch32v20x_i2c.c ****     {
 398:Drivers/src/ch32v20x_i2c.c ****         I2Cx->CTLR1 |= CTLR1_ENGC_Set;
 850              		.loc 1 398 13
 851 0014 8327C4FE 		lw	a5,-20(s0)
 852 0018 9E23     		lhu	a5,0(a5)
 853 001a C207     		slli	a5,a5,16
 854 001c C183     		srli	a5,a5,16
 855              		.loc 1 398 21
 856 001e 93E70704 		ori	a5,a5,64
 857 0022 13970701 		slli	a4,a5,16
 858 0026 4183     		srli	a4,a4,16
GAS LISTING C:\Users\SOLDER~1\AppData\Local\Temp\ccfBhFEg.s 			page 23


 859 0028 8327C4FE 		lw	a5,-20(s0)
 860 002c 9AA3     		sh	a4,0(a5)
 399:Drivers/src/ch32v20x_i2c.c ****     }
 400:Drivers/src/ch32v20x_i2c.c ****     else
 401:Drivers/src/ch32v20x_i2c.c ****     {
 402:Drivers/src/ch32v20x_i2c.c ****         I2Cx->CTLR1 &= CTLR1_ENGC_Reset;
 403:Drivers/src/ch32v20x_i2c.c ****     }
 404:Drivers/src/ch32v20x_i2c.c **** }
 861              		.loc 1 404 1
 862 002e 31A8     		j	.L45
 863              	.L43:
 402:Drivers/src/ch32v20x_i2c.c ****     }
 864              		.loc 1 402 13
 865 0030 8327C4FE 		lw	a5,-20(s0)
 866 0034 9E23     		lhu	a5,0(a5)
 867 0036 C207     		slli	a5,a5,16
 868 0038 C183     		srli	a5,a5,16
 402:Drivers/src/ch32v20x_i2c.c ****     }
 869              		.loc 1 402 21
 870 003a 93F7F7FB 		andi	a5,a5,-65
 871 003e 13970701 		slli	a4,a5,16
 872 0042 4183     		srli	a4,a4,16
 873 0044 8327C4FE 		lw	a5,-20(s0)
 874 0048 9AA3     		sh	a4,0(a5)
 875              	.L45:
 876              		.loc 1 404 1
 877 004a 0100     		nop
 878 004c 7244     		lw	s0,28(sp)
 879              		.cfi_restore 8
 880              		.cfi_def_cfa 2, 32
 881 004e 0561     		addi	sp,sp,32
 882              		.cfi_def_cfa_offset 0
 883 0050 8280     		jr	ra
 884              		.cfi_endproc
 885              	.LFE27:
 887              		.section	.text.I2C_ITConfig,"ax",@progbits
 888              		.align	1
 889              		.globl	I2C_ITConfig
 891              	I2C_ITConfig:
 892              	.LFB28:
 405:Drivers/src/ch32v20x_i2c.c **** 
 406:Drivers/src/ch32v20x_i2c.c **** /*********************************************************************
 407:Drivers/src/ch32v20x_i2c.c ****  * @fn      I2C_ITConfig
 408:Drivers/src/ch32v20x_i2c.c ****  *
 409:Drivers/src/ch32v20x_i2c.c ****  * @brief   Enables or disables the specified I2C interrupts.
 410:Drivers/src/ch32v20x_i2c.c ****  *
 411:Drivers/src/ch32v20x_i2c.c ****  * @param   I2Cx - where x can be 1 or 2 to select the I2C peripheral.
 412:Drivers/src/ch32v20x_i2c.c ****  *          I2C_IT - specifies the I2C interrupts sources to be enabled or disabled.
 413:Drivers/src/ch32v20x_i2c.c ****  *            I2C_IT_BUF - Buffer interrupt mask.
 414:Drivers/src/ch32v20x_i2c.c ****  *            I2C_IT_EVT - Event interrupt mask.
 415:Drivers/src/ch32v20x_i2c.c ****  *            I2C_IT_ERR - Error interrupt mask.
 416:Drivers/src/ch32v20x_i2c.c ****  *          NewState - ENABLE or DISABLE.
 417:Drivers/src/ch32v20x_i2c.c ****  *
 418:Drivers/src/ch32v20x_i2c.c ****  * @return  none
 419:Drivers/src/ch32v20x_i2c.c ****  */
 420:Drivers/src/ch32v20x_i2c.c **** void I2C_ITConfig(I2C_TypeDef *I2Cx, uint16_t I2C_IT, FunctionalState NewState)
 421:Drivers/src/ch32v20x_i2c.c **** {
GAS LISTING C:\Users\SOLDER~1\AppData\Local\Temp\ccfBhFEg.s 			page 24


 893              		.loc 1 421 1
 894              		.cfi_startproc
 895 0000 0111     		addi	sp,sp,-32
 896              		.cfi_def_cfa_offset 32
 897 0002 22CE     		sw	s0,28(sp)
 898              		.cfi_offset 8, -4
 899 0004 0010     		addi	s0,sp,32
 900              		.cfi_def_cfa 8, 0
 901 0006 2326A4FE 		sw	a0,-20(s0)
 902 000a AE87     		mv	a5,a1
 903 000c 2322C4FE 		sw	a2,-28(s0)
 904 0010 2315F4FE 		sh	a5,-22(s0)
 422:Drivers/src/ch32v20x_i2c.c ****     if(NewState != DISABLE)
 905              		.loc 1 422 7
 906 0014 832744FE 		lw	a5,-28(s0)
 907 0018 85C3     		beq	a5,zero,.L47
 423:Drivers/src/ch32v20x_i2c.c ****     {
 424:Drivers/src/ch32v20x_i2c.c ****         I2Cx->CTLR2 |= I2C_IT;
 908              		.loc 1 424 13
 909 001a 8327C4FE 		lw	a5,-20(s0)
 910 001e DE23     		lhu	a5,4(a5)
 911 0020 C207     		slli	a5,a5,16
 912 0022 C183     		srli	a5,a5,16
 913              		.loc 1 424 21
 914 0024 0357A4FE 		lhu	a4,-22(s0)
 915 0028 D98F     		or	a5,a5,a4
 916 002a 13970701 		slli	a4,a5,16
 917 002e 4183     		srli	a4,a4,16
 918 0030 8327C4FE 		lw	a5,-20(s0)
 919 0034 DAA3     		sh	a4,4(a5)
 425:Drivers/src/ch32v20x_i2c.c ****     }
 426:Drivers/src/ch32v20x_i2c.c ****     else
 427:Drivers/src/ch32v20x_i2c.c ****     {
 428:Drivers/src/ch32v20x_i2c.c ****         I2Cx->CTLR2 &= (uint16_t)~I2C_IT;
 429:Drivers/src/ch32v20x_i2c.c ****     }
 430:Drivers/src/ch32v20x_i2c.c **** }
 920              		.loc 1 430 1
 921 0036 25A0     		j	.L49
 922              	.L47:
 428:Drivers/src/ch32v20x_i2c.c ****     }
 923              		.loc 1 428 13
 924 0038 8327C4FE 		lw	a5,-20(s0)
 925 003c DE23     		lhu	a5,4(a5)
 926 003e 13970701 		slli	a4,a5,16
 927 0042 4183     		srli	a4,a4,16
 428:Drivers/src/ch32v20x_i2c.c ****     }
 928              		.loc 1 428 24
 929 0044 8357A4FE 		lhu	a5,-22(s0)
 930 0048 93C7F7FF 		not	a5,a5
 931 004c C207     		slli	a5,a5,16
 932 004e C183     		srli	a5,a5,16
 428:Drivers/src/ch32v20x_i2c.c ****     }
 933              		.loc 1 428 21
 934 0050 F98F     		and	a5,a4,a5
 935 0052 13970701 		slli	a4,a5,16
 936 0056 4183     		srli	a4,a4,16
 937 0058 8327C4FE 		lw	a5,-20(s0)
GAS LISTING C:\Users\SOLDER~1\AppData\Local\Temp\ccfBhFEg.s 			page 25


 938 005c DAA3     		sh	a4,4(a5)
 939              	.L49:
 940              		.loc 1 430 1
 941 005e 0100     		nop
 942 0060 7244     		lw	s0,28(sp)
 943              		.cfi_restore 8
 944              		.cfi_def_cfa 2, 32
 945 0062 0561     		addi	sp,sp,32
 946              		.cfi_def_cfa_offset 0
 947 0064 8280     		jr	ra
 948              		.cfi_endproc
 949              	.LFE28:
 951              		.section	.text.I2C_SendData,"ax",@progbits
 952              		.align	1
 953              		.globl	I2C_SendData
 955              	I2C_SendData:
 956              	.LFB29:
 431:Drivers/src/ch32v20x_i2c.c **** 
 432:Drivers/src/ch32v20x_i2c.c **** /*********************************************************************
 433:Drivers/src/ch32v20x_i2c.c ****  * @fn      I2C_SendData
 434:Drivers/src/ch32v20x_i2c.c ****  *
 435:Drivers/src/ch32v20x_i2c.c ****  * @brief   Sends a data byte through the I2Cx peripheral.
 436:Drivers/src/ch32v20x_i2c.c ****  *
 437:Drivers/src/ch32v20x_i2c.c ****  * @param   I2Cx - where x can be 1 or 2 to select the I2C peripheral.
 438:Drivers/src/ch32v20x_i2c.c ****  *          Data - Byte to be transmitted.
 439:Drivers/src/ch32v20x_i2c.c ****  *
 440:Drivers/src/ch32v20x_i2c.c ****  * @return  none
 441:Drivers/src/ch32v20x_i2c.c ****  */
 442:Drivers/src/ch32v20x_i2c.c **** void I2C_SendData(I2C_TypeDef *I2Cx, uint8_t Data)
 443:Drivers/src/ch32v20x_i2c.c **** {
 957              		.loc 1 443 1
 958              		.cfi_startproc
 959 0000 0111     		addi	sp,sp,-32
 960              		.cfi_def_cfa_offset 32
 961 0002 22CE     		sw	s0,28(sp)
 962              		.cfi_offset 8, -4
 963 0004 0010     		addi	s0,sp,32
 964              		.cfi_def_cfa 8, 0
 965 0006 2326A4FE 		sw	a0,-20(s0)
 966 000a AE87     		mv	a5,a1
 967 000c A305F4FE 		sb	a5,-21(s0)
 444:Drivers/src/ch32v20x_i2c.c ****     I2Cx->DATAR = Data;
 968              		.loc 1 444 17
 969 0010 8347B4FE 		lbu	a5,-21(s0)
 970 0014 13970701 		slli	a4,a5,16
 971 0018 4183     		srli	a4,a4,16
 972 001a 8327C4FE 		lw	a5,-20(s0)
 973 001e 9AAB     		sh	a4,16(a5)
 445:Drivers/src/ch32v20x_i2c.c **** }
 974              		.loc 1 445 1
 975 0020 0100     		nop
 976 0022 7244     		lw	s0,28(sp)
 977              		.cfi_restore 8
 978              		.cfi_def_cfa 2, 32
 979 0024 0561     		addi	sp,sp,32
 980              		.cfi_def_cfa_offset 0
 981 0026 8280     		jr	ra
GAS LISTING C:\Users\SOLDER~1\AppData\Local\Temp\ccfBhFEg.s 			page 26


 982              		.cfi_endproc
 983              	.LFE29:
 985              		.section	.text.I2C_ReceiveData,"ax",@progbits
 986              		.align	1
 987              		.globl	I2C_ReceiveData
 989              	I2C_ReceiveData:
 990              	.LFB30:
 446:Drivers/src/ch32v20x_i2c.c **** 
 447:Drivers/src/ch32v20x_i2c.c **** /*********************************************************************
 448:Drivers/src/ch32v20x_i2c.c ****  * @fn      I2C_ReceiveData
 449:Drivers/src/ch32v20x_i2c.c ****  *
 450:Drivers/src/ch32v20x_i2c.c ****  * @brief   Returns the most recent received data by the I2Cx peripheral.
 451:Drivers/src/ch32v20x_i2c.c ****  *
 452:Drivers/src/ch32v20x_i2c.c ****  * @param   I2Cx - where x can be 1 or 2 to select the I2C peripheral.
 453:Drivers/src/ch32v20x_i2c.c ****  *
 454:Drivers/src/ch32v20x_i2c.c ****  * @return  The value of the received data.
 455:Drivers/src/ch32v20x_i2c.c ****  */
 456:Drivers/src/ch32v20x_i2c.c **** uint8_t I2C_ReceiveData(I2C_TypeDef *I2Cx)
 457:Drivers/src/ch32v20x_i2c.c **** {
 991              		.loc 1 457 1
 992              		.cfi_startproc
 993 0000 0111     		addi	sp,sp,-32
 994              		.cfi_def_cfa_offset 32
 995 0002 22CE     		sw	s0,28(sp)
 996              		.cfi_offset 8, -4
 997 0004 0010     		addi	s0,sp,32
 998              		.cfi_def_cfa 8, 0
 999 0006 2326A4FE 		sw	a0,-20(s0)
 458:Drivers/src/ch32v20x_i2c.c ****     return (uint8_t)I2Cx->DATAR;
 1000              		.loc 1 458 25
 1001 000a 8327C4FE 		lw	a5,-20(s0)
 1002 000e 9E2B     		lhu	a5,16(a5)
 1003 0010 C207     		slli	a5,a5,16
 1004 0012 C183     		srli	a5,a5,16
 1005              		.loc 1 458 12
 1006 0014 93F7F70F 		andi	a5,a5,0xff
 459:Drivers/src/ch32v20x_i2c.c **** }
 1007              		.loc 1 459 1
 1008 0018 3E85     		mv	a0,a5
 1009 001a 7244     		lw	s0,28(sp)
 1010              		.cfi_restore 8
 1011              		.cfi_def_cfa 2, 32
 1012 001c 0561     		addi	sp,sp,32
 1013              		.cfi_def_cfa_offset 0
 1014 001e 8280     		jr	ra
 1015              		.cfi_endproc
 1016              	.LFE30:
 1018              		.section	.text.I2C_Send7bitAddress,"ax",@progbits
 1019              		.align	1
 1020              		.globl	I2C_Send7bitAddress
 1022              	I2C_Send7bitAddress:
 1023              	.LFB31:
 460:Drivers/src/ch32v20x_i2c.c **** 
 461:Drivers/src/ch32v20x_i2c.c **** /*********************************************************************
 462:Drivers/src/ch32v20x_i2c.c ****  * @fn      I2C_Send7bitAddress
 463:Drivers/src/ch32v20x_i2c.c ****  *
 464:Drivers/src/ch32v20x_i2c.c ****  * @brief   Transmits the address byte to select the slave device.
GAS LISTING C:\Users\SOLDER~1\AppData\Local\Temp\ccfBhFEg.s 			page 27


 465:Drivers/src/ch32v20x_i2c.c ****  *
 466:Drivers/src/ch32v20x_i2c.c ****  * @param   I2Cx - where x can be 1 or 2 to select the I2C peripheral.
 467:Drivers/src/ch32v20x_i2c.c ****  *          Address - specifies the slave address which will be transmitted.
 468:Drivers/src/ch32v20x_i2c.c ****  *          I2C_Direction - specifies whether the I2C device will be a
 469:Drivers/src/ch32v20x_i2c.c ****  *        Transmitter or a Receiver.
 470:Drivers/src/ch32v20x_i2c.c ****  *            I2C_Direction_Transmitter - Transmitter mode.
 471:Drivers/src/ch32v20x_i2c.c ****  *            I2C_Direction_Receiver - Receiver mode.
 472:Drivers/src/ch32v20x_i2c.c ****  *
 473:Drivers/src/ch32v20x_i2c.c ****  * @return  none
 474:Drivers/src/ch32v20x_i2c.c ****  */
 475:Drivers/src/ch32v20x_i2c.c **** void I2C_Send7bitAddress(I2C_TypeDef *I2Cx, uint8_t Address, uint8_t I2C_Direction)
 476:Drivers/src/ch32v20x_i2c.c **** {
 1024              		.loc 1 476 1
 1025              		.cfi_startproc
 1026 0000 0111     		addi	sp,sp,-32
 1027              		.cfi_def_cfa_offset 32
 1028 0002 22CE     		sw	s0,28(sp)
 1029              		.cfi_offset 8, -4
 1030 0004 0010     		addi	s0,sp,32
 1031              		.cfi_def_cfa 8, 0
 1032 0006 2326A4FE 		sw	a0,-20(s0)
 1033 000a AE87     		mv	a5,a1
 1034 000c 3287     		mv	a4,a2
 1035 000e A305F4FE 		sb	a5,-21(s0)
 1036 0012 BA87     		mv	a5,a4
 1037 0014 2305F4FE 		sb	a5,-22(s0)
 477:Drivers/src/ch32v20x_i2c.c ****     if(I2C_Direction != I2C_Direction_Transmitter)
 1038              		.loc 1 477 7
 1039 0018 8347A4FE 		lbu	a5,-22(s0)
 1040 001c 81CB     		beq	a5,zero,.L54
 478:Drivers/src/ch32v20x_i2c.c ****     {
 479:Drivers/src/ch32v20x_i2c.c ****         Address |= OADDR1_ADD0_Set;
 1041              		.loc 1 479 17
 1042 001e 8347B4FE 		lbu	a5,-21(s0)
 1043 0022 93E71700 		ori	a5,a5,1
 1044 0026 A305F4FE 		sb	a5,-21(s0)
 1045 002a 31A0     		j	.L55
 1046              	.L54:
 480:Drivers/src/ch32v20x_i2c.c ****     }
 481:Drivers/src/ch32v20x_i2c.c ****     else
 482:Drivers/src/ch32v20x_i2c.c ****     {
 483:Drivers/src/ch32v20x_i2c.c ****         Address &= OADDR1_ADD0_Reset;
 1047              		.loc 1 483 17
 1048 002c 8347B4FE 		lbu	a5,-21(s0)
 1049 0030 F99B     		andi	a5,a5,-2
 1050 0032 A305F4FE 		sb	a5,-21(s0)
 1051              	.L55:
 484:Drivers/src/ch32v20x_i2c.c ****     }
 485:Drivers/src/ch32v20x_i2c.c **** 
 486:Drivers/src/ch32v20x_i2c.c ****     I2Cx->DATAR = Address;
 1052              		.loc 1 486 17
 1053 0036 8347B4FE 		lbu	a5,-21(s0)
 1054 003a 13970701 		slli	a4,a5,16
 1055 003e 4183     		srli	a4,a4,16
 1056 0040 8327C4FE 		lw	a5,-20(s0)
 1057 0044 9AAB     		sh	a4,16(a5)
 487:Drivers/src/ch32v20x_i2c.c **** }
GAS LISTING C:\Users\SOLDER~1\AppData\Local\Temp\ccfBhFEg.s 			page 28


 1058              		.loc 1 487 1
 1059 0046 0100     		nop
 1060 0048 7244     		lw	s0,28(sp)
 1061              		.cfi_restore 8
 1062              		.cfi_def_cfa 2, 32
 1063 004a 0561     		addi	sp,sp,32
 1064              		.cfi_def_cfa_offset 0
 1065 004c 8280     		jr	ra
 1066              		.cfi_endproc
 1067              	.LFE31:
 1069              		.section	.text.I2C_ReadRegister,"ax",@progbits
 1070              		.align	1
 1071              		.globl	I2C_ReadRegister
 1073              	I2C_ReadRegister:
 1074              	.LFB32:
 488:Drivers/src/ch32v20x_i2c.c **** 
 489:Drivers/src/ch32v20x_i2c.c **** /*********************************************************************
 490:Drivers/src/ch32v20x_i2c.c ****  * @fn      I2C_ReadRegister
 491:Drivers/src/ch32v20x_i2c.c ****  *
 492:Drivers/src/ch32v20x_i2c.c ****  * @brief   Reads the specified I2C register and returns its value.
 493:Drivers/src/ch32v20x_i2c.c ****  *
 494:Drivers/src/ch32v20x_i2c.c ****  * @param   I2Cx - where x can be 1 or 2 to select the I2C peripheral.
 495:Drivers/src/ch32v20x_i2c.c ****  *          I2C_Register - specifies the register to read.
 496:Drivers/src/ch32v20x_i2c.c ****  *            I2C_Register_CTLR1.
 497:Drivers/src/ch32v20x_i2c.c ****  *            I2C_Register_CTLR2.
 498:Drivers/src/ch32v20x_i2c.c ****  *            I2C_Register_OADDR1.
 499:Drivers/src/ch32v20x_i2c.c ****  *            I2C_Register_OADDR2.
 500:Drivers/src/ch32v20x_i2c.c ****  *            I2C_Register_DATAR.
 501:Drivers/src/ch32v20x_i2c.c ****  *            I2C_Register_STAR1.
 502:Drivers/src/ch32v20x_i2c.c ****  *            I2C_Register_STAR2.
 503:Drivers/src/ch32v20x_i2c.c ****  *            I2C_Register_CKCFGR.
 504:Drivers/src/ch32v20x_i2c.c ****  *            I2C_Register_RTR.
 505:Drivers/src/ch32v20x_i2c.c ****  *
 506:Drivers/src/ch32v20x_i2c.c ****  * @return  none
 507:Drivers/src/ch32v20x_i2c.c ****  */
 508:Drivers/src/ch32v20x_i2c.c **** uint16_t I2C_ReadRegister(I2C_TypeDef *I2Cx, uint8_t I2C_Register)
 509:Drivers/src/ch32v20x_i2c.c **** {
 1075              		.loc 1 509 1
 1076              		.cfi_startproc
 1077 0000 7971     		addi	sp,sp,-48
 1078              		.cfi_def_cfa_offset 48
 1079 0002 22D6     		sw	s0,44(sp)
 1080              		.cfi_offset 8, -4
 1081 0004 0018     		addi	s0,sp,48
 1082              		.cfi_def_cfa 8, 0
 1083 0006 232EA4FC 		sw	a0,-36(s0)
 1084 000a AE87     		mv	a5,a1
 1085 000c A30DF4FC 		sb	a5,-37(s0)
 510:Drivers/src/ch32v20x_i2c.c ****     __IO uint32_t tmp = 0;
 1086              		.loc 1 510 19
 1087 0010 232604FE 		sw	zero,-20(s0)
 511:Drivers/src/ch32v20x_i2c.c **** 
 512:Drivers/src/ch32v20x_i2c.c ****     tmp = (uint32_t)I2Cx;
 1088              		.loc 1 512 11
 1089 0014 8327C4FD 		lw	a5,-36(s0)
 1090              		.loc 1 512 9
 1091 0018 2326F4FE 		sw	a5,-20(s0)
GAS LISTING C:\Users\SOLDER~1\AppData\Local\Temp\ccfBhFEg.s 			page 29


 513:Drivers/src/ch32v20x_i2c.c ****     tmp += I2C_Register;
 1092              		.loc 1 513 9
 1093 001c 0347B4FD 		lbu	a4,-37(s0)
 1094 0020 8327C4FE 		lw	a5,-20(s0)
 1095 0024 BA97     		add	a5,a4,a5
 1096 0026 2326F4FE 		sw	a5,-20(s0)
 514:Drivers/src/ch32v20x_i2c.c **** 
 515:Drivers/src/ch32v20x_i2c.c ****     return (*(__IO uint16_t *)tmp);
 1097              		.loc 1 515 14
 1098 002a 8327C4FE 		lw	a5,-20(s0)
 1099              		.loc 1 515 13
 1100 002e 9E23     		lhu	a5,0(a5)
 1101 0030 C207     		slli	a5,a5,16
 1102 0032 C183     		srli	a5,a5,16
 516:Drivers/src/ch32v20x_i2c.c **** }
 1103              		.loc 1 516 1
 1104 0034 3E85     		mv	a0,a5
 1105 0036 3254     		lw	s0,44(sp)
 1106              		.cfi_restore 8
 1107              		.cfi_def_cfa 2, 48
 1108 0038 4561     		addi	sp,sp,48
 1109              		.cfi_def_cfa_offset 0
 1110 003a 8280     		jr	ra
 1111              		.cfi_endproc
 1112              	.LFE32:
 1114              		.section	.text.I2C_SoftwareResetCmd,"ax",@progbits
 1115              		.align	1
 1116              		.globl	I2C_SoftwareResetCmd
 1118              	I2C_SoftwareResetCmd:
 1119              	.LFB33:
 517:Drivers/src/ch32v20x_i2c.c **** 
 518:Drivers/src/ch32v20x_i2c.c **** /*********************************************************************
 519:Drivers/src/ch32v20x_i2c.c ****  * @fn      I2C_SoftwareResetCmd
 520:Drivers/src/ch32v20x_i2c.c ****  *
 521:Drivers/src/ch32v20x_i2c.c ****  * @brief   Enables or disables the specified I2C software reset.
 522:Drivers/src/ch32v20x_i2c.c ****  *
 523:Drivers/src/ch32v20x_i2c.c ****  * @param   I2Cx - where x can be 1 or 2 to select the I2C peripheral.
 524:Drivers/src/ch32v20x_i2c.c ****  *          NewState - ENABLE or DISABLE.
 525:Drivers/src/ch32v20x_i2c.c ****  *
 526:Drivers/src/ch32v20x_i2c.c ****  * @return  none
 527:Drivers/src/ch32v20x_i2c.c ****  */
 528:Drivers/src/ch32v20x_i2c.c **** void I2C_SoftwareResetCmd(I2C_TypeDef *I2Cx, FunctionalState NewState)
 529:Drivers/src/ch32v20x_i2c.c **** {
 1120              		.loc 1 529 1
 1121              		.cfi_startproc
 1122 0000 0111     		addi	sp,sp,-32
 1123              		.cfi_def_cfa_offset 32
 1124 0002 22CE     		sw	s0,28(sp)
 1125              		.cfi_offset 8, -4
 1126 0004 0010     		addi	s0,sp,32
 1127              		.cfi_def_cfa 8, 0
 1128 0006 2326A4FE 		sw	a0,-20(s0)
 1129 000a 2324B4FE 		sw	a1,-24(s0)
 530:Drivers/src/ch32v20x_i2c.c ****     if(NewState != DISABLE)
 1130              		.loc 1 530 7
 1131 000e 832784FE 		lw	a5,-24(s0)
 1132 0012 85C3     		beq	a5,zero,.L59
GAS LISTING C:\Users\SOLDER~1\AppData\Local\Temp\ccfBhFEg.s 			page 30


 531:Drivers/src/ch32v20x_i2c.c ****     {
 532:Drivers/src/ch32v20x_i2c.c ****         I2Cx->CTLR1 |= CTLR1_SWRST_Set;
 1133              		.loc 1 532 13
 1134 0014 8327C4FE 		lw	a5,-20(s0)
 1135 0018 9E23     		lhu	a5,0(a5)
 1136 001a 13970701 		slli	a4,a5,16
 1137 001e 4183     		srli	a4,a4,16
 1138              		.loc 1 532 21
 1139 0020 E177     		li	a5,-32768
 1140 0022 D98F     		or	a5,a4,a5
 1141 0024 13970701 		slli	a4,a5,16
 1142 0028 4183     		srli	a4,a4,16
 1143 002a 8327C4FE 		lw	a5,-20(s0)
 1144 002e 9AA3     		sh	a4,0(a5)
 533:Drivers/src/ch32v20x_i2c.c ****     }
 534:Drivers/src/ch32v20x_i2c.c ****     else
 535:Drivers/src/ch32v20x_i2c.c ****     {
 536:Drivers/src/ch32v20x_i2c.c ****         I2Cx->CTLR1 &= CTLR1_SWRST_Reset;
 537:Drivers/src/ch32v20x_i2c.c ****     }
 538:Drivers/src/ch32v20x_i2c.c **** }
 1145              		.loc 1 538 1
 1146 0030 05A0     		j	.L61
 1147              	.L59:
 536:Drivers/src/ch32v20x_i2c.c ****     }
 1148              		.loc 1 536 13
 1149 0032 8327C4FE 		lw	a5,-20(s0)
 1150 0036 9E23     		lhu	a5,0(a5)
 1151 0038 13970701 		slli	a4,a5,16
 1152 003c 4183     		srli	a4,a4,16
 536:Drivers/src/ch32v20x_i2c.c ****     }
 1153              		.loc 1 536 21
 1154 003e A167     		li	a5,32768
 1155 0040 FD17     		addi	a5,a5,-1
 1156 0042 F98F     		and	a5,a4,a5
 1157 0044 13970701 		slli	a4,a5,16
 1158 0048 4183     		srli	a4,a4,16
 1159 004a 8327C4FE 		lw	a5,-20(s0)
 1160 004e 9AA3     		sh	a4,0(a5)
 1161              	.L61:
 1162              		.loc 1 538 1
 1163 0050 0100     		nop
 1164 0052 7244     		lw	s0,28(sp)
 1165              		.cfi_restore 8
 1166              		.cfi_def_cfa 2, 32
 1167 0054 0561     		addi	sp,sp,32
 1168              		.cfi_def_cfa_offset 0
 1169 0056 8280     		jr	ra
 1170              		.cfi_endproc
 1171              	.LFE33:
 1173              		.section	.text.I2C_NACKPositionConfig,"ax",@progbits
 1174              		.align	1
 1175              		.globl	I2C_NACKPositionConfig
 1177              	I2C_NACKPositionConfig:
 1178              	.LFB34:
 539:Drivers/src/ch32v20x_i2c.c **** 
 540:Drivers/src/ch32v20x_i2c.c **** /*********************************************************************
 541:Drivers/src/ch32v20x_i2c.c ****  * @fn      I2C_NACKPositionConfig
GAS LISTING C:\Users\SOLDER~1\AppData\Local\Temp\ccfBhFEg.s 			page 31


 542:Drivers/src/ch32v20x_i2c.c ****  *
 543:Drivers/src/ch32v20x_i2c.c ****  * @brief   Selects the specified I2C NACK position in master receiver mode.
 544:Drivers/src/ch32v20x_i2c.c ****  *
 545:Drivers/src/ch32v20x_i2c.c ****  * @param   I2Cx - where x can be 1 or 2 to select the I2C peripheral.
 546:Drivers/src/ch32v20x_i2c.c ****  *          I2C_NACKPosition - specifies the NACK position.
 547:Drivers/src/ch32v20x_i2c.c ****  *            I2C_NACKPosition_Next - indicates that the next byte will be
 548:Drivers/src/ch32v20x_i2c.c ****  *        the last received byte.
 549:Drivers/src/ch32v20x_i2c.c ****  *            I2C_NACKPosition_Current - indicates that current byte is the
 550:Drivers/src/ch32v20x_i2c.c ****  *        last received byte.
 551:Drivers/src/ch32v20x_i2c.c ****  *       Note-    
 552:Drivers/src/ch32v20x_i2c.c ****  *          This function configures the same bit (POS) as I2C_PECPositionConfig() 
 553:Drivers/src/ch32v20x_i2c.c ****  *          but is intended to be used in I2C mode while I2C_PECPositionConfig() 
 554:Drivers/src/ch32v20x_i2c.c ****  *          is intended to used in SMBUS mode. 
 555:Drivers/src/ch32v20x_i2c.c ****  * @return  none
 556:Drivers/src/ch32v20x_i2c.c ****  */
 557:Drivers/src/ch32v20x_i2c.c **** void I2C_NACKPositionConfig(I2C_TypeDef *I2Cx, uint16_t I2C_NACKPosition)
 558:Drivers/src/ch32v20x_i2c.c **** {
 1179              		.loc 1 558 1
 1180              		.cfi_startproc
 1181 0000 0111     		addi	sp,sp,-32
 1182              		.cfi_def_cfa_offset 32
 1183 0002 22CE     		sw	s0,28(sp)
 1184              		.cfi_offset 8, -4
 1185 0004 0010     		addi	s0,sp,32
 1186              		.cfi_def_cfa 8, 0
 1187 0006 2326A4FE 		sw	a0,-20(s0)
 1188 000a AE87     		mv	a5,a1
 1189 000c 2315F4FE 		sh	a5,-22(s0)
 559:Drivers/src/ch32v20x_i2c.c ****     if(I2C_NACKPosition == I2C_NACKPosition_Next)
 1190              		.loc 1 559 7
 1191 0010 8357A4FE 		lhu	a5,-22(s0)
 1192 0014 93870780 		addi	a5,a5,-2048
 1193 0018 95E3     		bne	a5,zero,.L63
 560:Drivers/src/ch32v20x_i2c.c ****     {
 561:Drivers/src/ch32v20x_i2c.c ****         I2Cx->CTLR1 |= I2C_NACKPosition_Next;
 1194              		.loc 1 561 13
 1195 001a 8327C4FE 		lw	a5,-20(s0)
 1196 001e 9E23     		lhu	a5,0(a5)
 1197 0020 13970701 		slli	a4,a5,16
 1198 0024 4183     		srli	a4,a4,16
 1199              		.loc 1 561 21
 1200 0026 8567     		li	a5,4096
 1201 0028 93870780 		addi	a5,a5,-2048
 1202 002c D98F     		or	a5,a4,a5
 1203 002e 13970701 		slli	a4,a5,16
 1204 0032 4183     		srli	a4,a4,16
 1205 0034 8327C4FE 		lw	a5,-20(s0)
 1206 0038 9AA3     		sh	a4,0(a5)
 562:Drivers/src/ch32v20x_i2c.c ****     }
 563:Drivers/src/ch32v20x_i2c.c ****     else
 564:Drivers/src/ch32v20x_i2c.c ****     {
 565:Drivers/src/ch32v20x_i2c.c ****         I2Cx->CTLR1 &= I2C_NACKPosition_Current;
 566:Drivers/src/ch32v20x_i2c.c ****     }
 567:Drivers/src/ch32v20x_i2c.c **** }
 1207              		.loc 1 567 1
 1208 003a 0DA0     		j	.L65
 1209              	.L63:
GAS LISTING C:\Users\SOLDER~1\AppData\Local\Temp\ccfBhFEg.s 			page 32


 565:Drivers/src/ch32v20x_i2c.c ****     }
 1210              		.loc 1 565 13
 1211 003c 8327C4FE 		lw	a5,-20(s0)
 1212 0040 9E23     		lhu	a5,0(a5)
 1213 0042 13970701 		slli	a4,a5,16
 1214 0046 4183     		srli	a4,a4,16
 565:Drivers/src/ch32v20x_i2c.c ****     }
 1215              		.loc 1 565 21
 1216 0048 FD77     		li	a5,-4096
 1217 004a 9387F77F 		addi	a5,a5,2047
 1218 004e F98F     		and	a5,a4,a5
 1219 0050 13970701 		slli	a4,a5,16
 1220 0054 4183     		srli	a4,a4,16
 1221 0056 8327C4FE 		lw	a5,-20(s0)
 1222 005a 9AA3     		sh	a4,0(a5)
 1223              	.L65:
 1224              		.loc 1 567 1
 1225 005c 0100     		nop
 1226 005e 7244     		lw	s0,28(sp)
 1227              		.cfi_restore 8
 1228              		.cfi_def_cfa 2, 32
 1229 0060 0561     		addi	sp,sp,32
 1230              		.cfi_def_cfa_offset 0
 1231 0062 8280     		jr	ra
 1232              		.cfi_endproc
 1233              	.LFE34:
 1235              		.section	.text.I2C_SMBusAlertConfig,"ax",@progbits
 1236              		.align	1
 1237              		.globl	I2C_SMBusAlertConfig
 1239              	I2C_SMBusAlertConfig:
 1240              	.LFB35:
 568:Drivers/src/ch32v20x_i2c.c **** 
 569:Drivers/src/ch32v20x_i2c.c **** /*********************************************************************
 570:Drivers/src/ch32v20x_i2c.c ****  * @fn      I2C_SMBusAlertConfig
 571:Drivers/src/ch32v20x_i2c.c ****  *
 572:Drivers/src/ch32v20x_i2c.c ****  * @brief   Drives the SMBusAlert pin high or low for the specified I2C.
 573:Drivers/src/ch32v20x_i2c.c ****  *
 574:Drivers/src/ch32v20x_i2c.c ****  * @param   I2Cx - where x can be 1 or 2 to select the I2C peripheral.
 575:Drivers/src/ch32v20x_i2c.c ****  *          I2C_SMBusAlert - specifies SMBAlert pin level.
 576:Drivers/src/ch32v20x_i2c.c ****  *            I2C_SMBusAlert_Low - SMBAlert pin driven low.
 577:Drivers/src/ch32v20x_i2c.c ****  *            I2C_SMBusAlert_High - SMBAlert pin driven high.
 578:Drivers/src/ch32v20x_i2c.c ****  *
 579:Drivers/src/ch32v20x_i2c.c ****  * @return  none
 580:Drivers/src/ch32v20x_i2c.c ****  */
 581:Drivers/src/ch32v20x_i2c.c **** void I2C_SMBusAlertConfig(I2C_TypeDef *I2Cx, uint16_t I2C_SMBusAlert)
 582:Drivers/src/ch32v20x_i2c.c **** {
 1241              		.loc 1 582 1
 1242              		.cfi_startproc
 1243 0000 0111     		addi	sp,sp,-32
 1244              		.cfi_def_cfa_offset 32
 1245 0002 22CE     		sw	s0,28(sp)
 1246              		.cfi_offset 8, -4
 1247 0004 0010     		addi	s0,sp,32
 1248              		.cfi_def_cfa 8, 0
 1249 0006 2326A4FE 		sw	a0,-20(s0)
 1250 000a AE87     		mv	a5,a1
 1251 000c 2315F4FE 		sh	a5,-22(s0)
GAS LISTING C:\Users\SOLDER~1\AppData\Local\Temp\ccfBhFEg.s 			page 33


 583:Drivers/src/ch32v20x_i2c.c ****     if(I2C_SMBusAlert == I2C_SMBusAlert_Low)
 1252              		.loc 1 583 7
 1253 0010 0357A4FE 		lhu	a4,-22(s0)
 1254 0014 8967     		li	a5,8192
 1255 0016 6311F702 		bne	a4,a5,.L67
 584:Drivers/src/ch32v20x_i2c.c ****     {
 585:Drivers/src/ch32v20x_i2c.c ****         I2Cx->CTLR1 |= I2C_SMBusAlert_Low;
 1256              		.loc 1 585 13
 1257 001a 8327C4FE 		lw	a5,-20(s0)
 1258 001e 9E23     		lhu	a5,0(a5)
 1259 0020 13970701 		slli	a4,a5,16
 1260 0024 4183     		srli	a4,a4,16
 1261              		.loc 1 585 21
 1262 0026 8967     		li	a5,8192
 1263 0028 D98F     		or	a5,a4,a5
 1264 002a 13970701 		slli	a4,a5,16
 1265 002e 4183     		srli	a4,a4,16
 1266 0030 8327C4FE 		lw	a5,-20(s0)
 1267 0034 9AA3     		sh	a4,0(a5)
 586:Drivers/src/ch32v20x_i2c.c ****     }
 587:Drivers/src/ch32v20x_i2c.c ****     else
 588:Drivers/src/ch32v20x_i2c.c ****     {
 589:Drivers/src/ch32v20x_i2c.c ****         I2Cx->CTLR1 &= I2C_SMBusAlert_High;
 590:Drivers/src/ch32v20x_i2c.c ****     }
 591:Drivers/src/ch32v20x_i2c.c **** }
 1268              		.loc 1 591 1
 1269 0036 05A0     		j	.L69
 1270              	.L67:
 589:Drivers/src/ch32v20x_i2c.c ****     }
 1271              		.loc 1 589 13
 1272 0038 8327C4FE 		lw	a5,-20(s0)
 1273 003c 9E23     		lhu	a5,0(a5)
 1274 003e 13970701 		slli	a4,a5,16
 1275 0042 4183     		srli	a4,a4,16
 589:Drivers/src/ch32v20x_i2c.c ****     }
 1276              		.loc 1 589 21
 1277 0044 F977     		li	a5,-8192
 1278 0046 FD17     		addi	a5,a5,-1
 1279 0048 F98F     		and	a5,a4,a5
 1280 004a 13970701 		slli	a4,a5,16
 1281 004e 4183     		srli	a4,a4,16
 1282 0050 8327C4FE 		lw	a5,-20(s0)
 1283 0054 9AA3     		sh	a4,0(a5)
 1284              	.L69:
 1285              		.loc 1 591 1
 1286 0056 0100     		nop
 1287 0058 7244     		lw	s0,28(sp)
 1288              		.cfi_restore 8
 1289              		.cfi_def_cfa 2, 32
 1290 005a 0561     		addi	sp,sp,32
 1291              		.cfi_def_cfa_offset 0
 1292 005c 8280     		jr	ra
 1293              		.cfi_endproc
 1294              	.LFE35:
 1296              		.section	.text.I2C_TransmitPEC,"ax",@progbits
 1297              		.align	1
 1298              		.globl	I2C_TransmitPEC
GAS LISTING C:\Users\SOLDER~1\AppData\Local\Temp\ccfBhFEg.s 			page 34


 1300              	I2C_TransmitPEC:
 1301              	.LFB36:
 592:Drivers/src/ch32v20x_i2c.c **** 
 593:Drivers/src/ch32v20x_i2c.c **** /*********************************************************************
 594:Drivers/src/ch32v20x_i2c.c ****  * @fn      I2C_TransmitPEC
 595:Drivers/src/ch32v20x_i2c.c ****  *
 596:Drivers/src/ch32v20x_i2c.c ****  * @brief   Enables or disables the specified I2C PEC transfer.
 597:Drivers/src/ch32v20x_i2c.c ****  *
 598:Drivers/src/ch32v20x_i2c.c ****  * @param   I2Cx - where x can be 1 or 2 to select the I2C peripheral.
 599:Drivers/src/ch32v20x_i2c.c ****  *          NewState - ENABLE or DISABLE.
 600:Drivers/src/ch32v20x_i2c.c ****  *
 601:Drivers/src/ch32v20x_i2c.c ****  * @return  none
 602:Drivers/src/ch32v20x_i2c.c ****  */
 603:Drivers/src/ch32v20x_i2c.c **** void I2C_TransmitPEC(I2C_TypeDef *I2Cx, FunctionalState NewState)
 604:Drivers/src/ch32v20x_i2c.c **** {
 1302              		.loc 1 604 1
 1303              		.cfi_startproc
 1304 0000 0111     		addi	sp,sp,-32
 1305              		.cfi_def_cfa_offset 32
 1306 0002 22CE     		sw	s0,28(sp)
 1307              		.cfi_offset 8, -4
 1308 0004 0010     		addi	s0,sp,32
 1309              		.cfi_def_cfa 8, 0
 1310 0006 2326A4FE 		sw	a0,-20(s0)
 1311 000a 2324B4FE 		sw	a1,-24(s0)
 605:Drivers/src/ch32v20x_i2c.c ****     if(NewState != DISABLE)
 1312              		.loc 1 605 7
 1313 000e 832784FE 		lw	a5,-24(s0)
 1314 0012 85C3     		beq	a5,zero,.L71
 606:Drivers/src/ch32v20x_i2c.c ****     {
 607:Drivers/src/ch32v20x_i2c.c ****         I2Cx->CTLR1 |= CTLR1_PEC_Set;
 1315              		.loc 1 607 13
 1316 0014 8327C4FE 		lw	a5,-20(s0)
 1317 0018 9E23     		lhu	a5,0(a5)
 1318 001a 13970701 		slli	a4,a5,16
 1319 001e 4183     		srli	a4,a4,16
 1320              		.loc 1 607 21
 1321 0020 8567     		li	a5,4096
 1322 0022 D98F     		or	a5,a4,a5
 1323 0024 13970701 		slli	a4,a5,16
 1324 0028 4183     		srli	a4,a4,16
 1325 002a 8327C4FE 		lw	a5,-20(s0)
 1326 002e 9AA3     		sh	a4,0(a5)
 608:Drivers/src/ch32v20x_i2c.c ****     }
 609:Drivers/src/ch32v20x_i2c.c ****     else
 610:Drivers/src/ch32v20x_i2c.c ****     {
 611:Drivers/src/ch32v20x_i2c.c ****         I2Cx->CTLR1 &= CTLR1_PEC_Reset;
 612:Drivers/src/ch32v20x_i2c.c ****     }
 613:Drivers/src/ch32v20x_i2c.c **** }
 1327              		.loc 1 613 1
 1328 0030 05A0     		j	.L73
 1329              	.L71:
 611:Drivers/src/ch32v20x_i2c.c ****     }
 1330              		.loc 1 611 13
 1331 0032 8327C4FE 		lw	a5,-20(s0)
 1332 0036 9E23     		lhu	a5,0(a5)
 1333 0038 13970701 		slli	a4,a5,16
GAS LISTING C:\Users\SOLDER~1\AppData\Local\Temp\ccfBhFEg.s 			page 35


 1334 003c 4183     		srli	a4,a4,16
 611:Drivers/src/ch32v20x_i2c.c ****     }
 1335              		.loc 1 611 21
 1336 003e FD77     		li	a5,-4096
 1337 0040 FD17     		addi	a5,a5,-1
 1338 0042 F98F     		and	a5,a4,a5
 1339 0044 13970701 		slli	a4,a5,16
 1340 0048 4183     		srli	a4,a4,16
 1341 004a 8327C4FE 		lw	a5,-20(s0)
 1342 004e 9AA3     		sh	a4,0(a5)
 1343              	.L73:
 1344              		.loc 1 613 1
 1345 0050 0100     		nop
 1346 0052 7244     		lw	s0,28(sp)
 1347              		.cfi_restore 8
 1348              		.cfi_def_cfa 2, 32
 1349 0054 0561     		addi	sp,sp,32
 1350              		.cfi_def_cfa_offset 0
 1351 0056 8280     		jr	ra
 1352              		.cfi_endproc
 1353              	.LFE36:
 1355              		.section	.text.I2C_PECPositionConfig,"ax",@progbits
 1356              		.align	1
 1357              		.globl	I2C_PECPositionConfig
 1359              	I2C_PECPositionConfig:
 1360              	.LFB37:
 614:Drivers/src/ch32v20x_i2c.c **** 
 615:Drivers/src/ch32v20x_i2c.c **** /*********************************************************************
 616:Drivers/src/ch32v20x_i2c.c ****  * @fn      I2C_PECPositionConfig
 617:Drivers/src/ch32v20x_i2c.c ****  *
 618:Drivers/src/ch32v20x_i2c.c ****  * @brief   Selects the specified I2C PEC position.
 619:Drivers/src/ch32v20x_i2c.c ****  *
 620:Drivers/src/ch32v20x_i2c.c ****  * @param   I2Cx - where x can be 1 or 2 to select the I2C peripheral.
 621:Drivers/src/ch32v20x_i2c.c ****  *          I2C_PECPosition - specifies the PEC position.
 622:Drivers/src/ch32v20x_i2c.c ****  *            I2C_PECPosition_Next - indicates that the next byte is PEC.
 623:Drivers/src/ch32v20x_i2c.c ****  *            I2C_PECPosition_Current - indicates that current byte is PEC.
 624:Drivers/src/ch32v20x_i2c.c ****  *
 625:Drivers/src/ch32v20x_i2c.c ****  * @return  none
 626:Drivers/src/ch32v20x_i2c.c ****  */
 627:Drivers/src/ch32v20x_i2c.c **** void I2C_PECPositionConfig(I2C_TypeDef *I2Cx, uint16_t I2C_PECPosition)
 628:Drivers/src/ch32v20x_i2c.c **** {
 1361              		.loc 1 628 1
 1362              		.cfi_startproc
 1363 0000 0111     		addi	sp,sp,-32
 1364              		.cfi_def_cfa_offset 32
 1365 0002 22CE     		sw	s0,28(sp)
 1366              		.cfi_offset 8, -4
 1367 0004 0010     		addi	s0,sp,32
 1368              		.cfi_def_cfa 8, 0
 1369 0006 2326A4FE 		sw	a0,-20(s0)
 1370 000a AE87     		mv	a5,a1
 1371 000c 2315F4FE 		sh	a5,-22(s0)
 629:Drivers/src/ch32v20x_i2c.c ****     if(I2C_PECPosition == I2C_PECPosition_Next)
 1372              		.loc 1 629 7
 1373 0010 8357A4FE 		lhu	a5,-22(s0)
 1374 0014 93870780 		addi	a5,a5,-2048
 1375 0018 95E3     		bne	a5,zero,.L75
GAS LISTING C:\Users\SOLDER~1\AppData\Local\Temp\ccfBhFEg.s 			page 36


 630:Drivers/src/ch32v20x_i2c.c ****     {
 631:Drivers/src/ch32v20x_i2c.c ****         I2Cx->CTLR1 |= I2C_PECPosition_Next;
 1376              		.loc 1 631 13
 1377 001a 8327C4FE 		lw	a5,-20(s0)
 1378 001e 9E23     		lhu	a5,0(a5)
 1379 0020 13970701 		slli	a4,a5,16
 1380 0024 4183     		srli	a4,a4,16
 1381              		.loc 1 631 21
 1382 0026 8567     		li	a5,4096
 1383 0028 93870780 		addi	a5,a5,-2048
 1384 002c D98F     		or	a5,a4,a5
 1385 002e 13970701 		slli	a4,a5,16
 1386 0032 4183     		srli	a4,a4,16
 1387 0034 8327C4FE 		lw	a5,-20(s0)
 1388 0038 9AA3     		sh	a4,0(a5)
 632:Drivers/src/ch32v20x_i2c.c ****     }
 633:Drivers/src/ch32v20x_i2c.c ****     else
 634:Drivers/src/ch32v20x_i2c.c ****     {
 635:Drivers/src/ch32v20x_i2c.c ****         I2Cx->CTLR1 &= I2C_PECPosition_Current;
 636:Drivers/src/ch32v20x_i2c.c ****     }
 637:Drivers/src/ch32v20x_i2c.c **** }
 1389              		.loc 1 637 1
 1390 003a 0DA0     		j	.L77
 1391              	.L75:
 635:Drivers/src/ch32v20x_i2c.c ****     }
 1392              		.loc 1 635 13
 1393 003c 8327C4FE 		lw	a5,-20(s0)
 1394 0040 9E23     		lhu	a5,0(a5)
 1395 0042 13970701 		slli	a4,a5,16
 1396 0046 4183     		srli	a4,a4,16
 635:Drivers/src/ch32v20x_i2c.c ****     }
 1397              		.loc 1 635 21
 1398 0048 FD77     		li	a5,-4096
 1399 004a 9387F77F 		addi	a5,a5,2047
 1400 004e F98F     		and	a5,a4,a5
 1401 0050 13970701 		slli	a4,a5,16
 1402 0054 4183     		srli	a4,a4,16
 1403 0056 8327C4FE 		lw	a5,-20(s0)
 1404 005a 9AA3     		sh	a4,0(a5)
 1405              	.L77:
 1406              		.loc 1 637 1
 1407 005c 0100     		nop
 1408 005e 7244     		lw	s0,28(sp)
 1409              		.cfi_restore 8
 1410              		.cfi_def_cfa 2, 32
 1411 0060 0561     		addi	sp,sp,32
 1412              		.cfi_def_cfa_offset 0
 1413 0062 8280     		jr	ra
 1414              		.cfi_endproc
 1415              	.LFE37:
 1417              		.section	.text.I2C_CalculatePEC,"ax",@progbits
 1418              		.align	1
 1419              		.globl	I2C_CalculatePEC
 1421              	I2C_CalculatePEC:
 1422              	.LFB38:
 638:Drivers/src/ch32v20x_i2c.c **** 
 639:Drivers/src/ch32v20x_i2c.c **** /*********************************************************************
GAS LISTING C:\Users\SOLDER~1\AppData\Local\Temp\ccfBhFEg.s 			page 37


 640:Drivers/src/ch32v20x_i2c.c ****  * @fn      I2C_CalculatePEC
 641:Drivers/src/ch32v20x_i2c.c ****  *
 642:Drivers/src/ch32v20x_i2c.c ****  * @brief   Enables or disables the PEC value calculation of the transferred bytes.
 643:Drivers/src/ch32v20x_i2c.c ****  *
 644:Drivers/src/ch32v20x_i2c.c ****  * @param   I2Cx- where x can be 1 or 2 to select the I2C peripheral.
 645:Drivers/src/ch32v20x_i2c.c ****  *          NewState - ENABLE or DISABLE.
 646:Drivers/src/ch32v20x_i2c.c ****  *
 647:Drivers/src/ch32v20x_i2c.c ****  * @return  none
 648:Drivers/src/ch32v20x_i2c.c ****  */
 649:Drivers/src/ch32v20x_i2c.c **** void I2C_CalculatePEC(I2C_TypeDef *I2Cx, FunctionalState NewState)
 650:Drivers/src/ch32v20x_i2c.c **** {
 1423              		.loc 1 650 1
 1424              		.cfi_startproc
 1425 0000 0111     		addi	sp,sp,-32
 1426              		.cfi_def_cfa_offset 32
 1427 0002 22CE     		sw	s0,28(sp)
 1428              		.cfi_offset 8, -4
 1429 0004 0010     		addi	s0,sp,32
 1430              		.cfi_def_cfa 8, 0
 1431 0006 2326A4FE 		sw	a0,-20(s0)
 1432 000a 2324B4FE 		sw	a1,-24(s0)
 651:Drivers/src/ch32v20x_i2c.c ****     if(NewState != DISABLE)
 1433              		.loc 1 651 7
 1434 000e 832784FE 		lw	a5,-24(s0)
 1435 0012 99CF     		beq	a5,zero,.L79
 652:Drivers/src/ch32v20x_i2c.c ****     {
 653:Drivers/src/ch32v20x_i2c.c ****         I2Cx->CTLR1 |= CTLR1_ENPEC_Set;
 1436              		.loc 1 653 13
 1437 0014 8327C4FE 		lw	a5,-20(s0)
 1438 0018 9E23     		lhu	a5,0(a5)
 1439 001a C207     		slli	a5,a5,16
 1440 001c C183     		srli	a5,a5,16
 1441              		.loc 1 653 21
 1442 001e 93E70702 		ori	a5,a5,32
 1443 0022 13970701 		slli	a4,a5,16
 1444 0026 4183     		srli	a4,a4,16
 1445 0028 8327C4FE 		lw	a5,-20(s0)
 1446 002c 9AA3     		sh	a4,0(a5)
 654:Drivers/src/ch32v20x_i2c.c ****     }
 655:Drivers/src/ch32v20x_i2c.c ****     else
 656:Drivers/src/ch32v20x_i2c.c ****     {
 657:Drivers/src/ch32v20x_i2c.c ****         I2Cx->CTLR1 &= CTLR1_ENPEC_Reset;
 658:Drivers/src/ch32v20x_i2c.c ****     }
 659:Drivers/src/ch32v20x_i2c.c **** }
 1447              		.loc 1 659 1
 1448 002e 31A8     		j	.L81
 1449              	.L79:
 657:Drivers/src/ch32v20x_i2c.c ****     }
 1450              		.loc 1 657 13
 1451 0030 8327C4FE 		lw	a5,-20(s0)
 1452 0034 9E23     		lhu	a5,0(a5)
 1453 0036 C207     		slli	a5,a5,16
 1454 0038 C183     		srli	a5,a5,16
 657:Drivers/src/ch32v20x_i2c.c ****     }
 1455              		.loc 1 657 21
 1456 003a 93F7F7FD 		andi	a5,a5,-33
 1457 003e 13970701 		slli	a4,a5,16
GAS LISTING C:\Users\SOLDER~1\AppData\Local\Temp\ccfBhFEg.s 			page 38


 1458 0042 4183     		srli	a4,a4,16
 1459 0044 8327C4FE 		lw	a5,-20(s0)
 1460 0048 9AA3     		sh	a4,0(a5)
 1461              	.L81:
 1462              		.loc 1 659 1
 1463 004a 0100     		nop
 1464 004c 7244     		lw	s0,28(sp)
 1465              		.cfi_restore 8
 1466              		.cfi_def_cfa 2, 32
 1467 004e 0561     		addi	sp,sp,32
 1468              		.cfi_def_cfa_offset 0
 1469 0050 8280     		jr	ra
 1470              		.cfi_endproc
 1471              	.LFE38:
 1473              		.section	.text.I2C_GetPEC,"ax",@progbits
 1474              		.align	1
 1475              		.globl	I2C_GetPEC
 1477              	I2C_GetPEC:
 1478              	.LFB39:
 660:Drivers/src/ch32v20x_i2c.c **** 
 661:Drivers/src/ch32v20x_i2c.c **** /*********************************************************************
 662:Drivers/src/ch32v20x_i2c.c ****  * @fn      I2C_GetPEC
 663:Drivers/src/ch32v20x_i2c.c ****  *
 664:Drivers/src/ch32v20x_i2c.c ****  * @brief   Returns the PEC value for the specified I2C.
 665:Drivers/src/ch32v20x_i2c.c ****  *
 666:Drivers/src/ch32v20x_i2c.c ****  * @param   I2Cx - where x can be 1 or 2 to select the I2C peripheral.
 667:Drivers/src/ch32v20x_i2c.c ****  *
 668:Drivers/src/ch32v20x_i2c.c ****  * @return  The PEC value.
 669:Drivers/src/ch32v20x_i2c.c ****  */
 670:Drivers/src/ch32v20x_i2c.c **** uint8_t I2C_GetPEC(I2C_TypeDef *I2Cx)
 671:Drivers/src/ch32v20x_i2c.c **** {
 1479              		.loc 1 671 1
 1480              		.cfi_startproc
 1481 0000 0111     		addi	sp,sp,-32
 1482              		.cfi_def_cfa_offset 32
 1483 0002 22CE     		sw	s0,28(sp)
 1484              		.cfi_offset 8, -4
 1485 0004 0010     		addi	s0,sp,32
 1486              		.cfi_def_cfa 8, 0
 1487 0006 2326A4FE 		sw	a0,-20(s0)
 672:Drivers/src/ch32v20x_i2c.c ****     return ((I2Cx->STAR2) >> 8);
 1488              		.loc 1 672 18
 1489 000a 8327C4FE 		lw	a5,-20(s0)
 1490 000e 9E2F     		lhu	a5,24(a5)
 1491 0010 C207     		slli	a5,a5,16
 1492 0012 C183     		srli	a5,a5,16
 1493              		.loc 1 672 27
 1494 0014 A183     		srli	a5,a5,8
 1495 0016 C207     		slli	a5,a5,16
 1496 0018 C183     		srli	a5,a5,16
 1497 001a 93F7F70F 		andi	a5,a5,0xff
 673:Drivers/src/ch32v20x_i2c.c **** }
 1498              		.loc 1 673 1
 1499 001e 3E85     		mv	a0,a5
 1500 0020 7244     		lw	s0,28(sp)
 1501              		.cfi_restore 8
 1502              		.cfi_def_cfa 2, 32
GAS LISTING C:\Users\SOLDER~1\AppData\Local\Temp\ccfBhFEg.s 			page 39


 1503 0022 0561     		addi	sp,sp,32
 1504              		.cfi_def_cfa_offset 0
 1505 0024 8280     		jr	ra
 1506              		.cfi_endproc
 1507              	.LFE39:
 1509              		.section	.text.I2C_ARPCmd,"ax",@progbits
 1510              		.align	1
 1511              		.globl	I2C_ARPCmd
 1513              	I2C_ARPCmd:
 1514              	.LFB40:
 674:Drivers/src/ch32v20x_i2c.c **** 
 675:Drivers/src/ch32v20x_i2c.c **** /*********************************************************************
 676:Drivers/src/ch32v20x_i2c.c ****  * @fn      I2C_ARPCmd
 677:Drivers/src/ch32v20x_i2c.c ****  *
 678:Drivers/src/ch32v20x_i2c.c ****  * @brief   Enables or disables the specified I2C ARP.
 679:Drivers/src/ch32v20x_i2c.c ****  *
 680:Drivers/src/ch32v20x_i2c.c ****  * @param   I2Cx - where x can be 1 or 2 to select the I2C peripheral.
 681:Drivers/src/ch32v20x_i2c.c ****  *            NewState - ENABLE or DISABLE.
 682:Drivers/src/ch32v20x_i2c.c ****  *
 683:Drivers/src/ch32v20x_i2c.c ****  * @return  The PEC value.
 684:Drivers/src/ch32v20x_i2c.c ****  */
 685:Drivers/src/ch32v20x_i2c.c **** void I2C_ARPCmd(I2C_TypeDef *I2Cx, FunctionalState NewState)
 686:Drivers/src/ch32v20x_i2c.c **** {
 1515              		.loc 1 686 1
 1516              		.cfi_startproc
 1517 0000 0111     		addi	sp,sp,-32
 1518              		.cfi_def_cfa_offset 32
 1519 0002 22CE     		sw	s0,28(sp)
 1520              		.cfi_offset 8, -4
 1521 0004 0010     		addi	s0,sp,32
 1522              		.cfi_def_cfa 8, 0
 1523 0006 2326A4FE 		sw	a0,-20(s0)
 1524 000a 2324B4FE 		sw	a1,-24(s0)
 687:Drivers/src/ch32v20x_i2c.c ****     if(NewState != DISABLE)
 1525              		.loc 1 687 7
 1526 000e 832784FE 		lw	a5,-24(s0)
 1527 0012 99CF     		beq	a5,zero,.L85
 688:Drivers/src/ch32v20x_i2c.c ****     {
 689:Drivers/src/ch32v20x_i2c.c ****         I2Cx->CTLR1 |= CTLR1_ENARP_Set;
 1528              		.loc 1 689 13
 1529 0014 8327C4FE 		lw	a5,-20(s0)
 1530 0018 9E23     		lhu	a5,0(a5)
 1531 001a C207     		slli	a5,a5,16
 1532 001c C183     		srli	a5,a5,16
 1533              		.loc 1 689 21
 1534 001e 93E70701 		ori	a5,a5,16
 1535 0022 13970701 		slli	a4,a5,16
 1536 0026 4183     		srli	a4,a4,16
 1537 0028 8327C4FE 		lw	a5,-20(s0)
 1538 002c 9AA3     		sh	a4,0(a5)
 690:Drivers/src/ch32v20x_i2c.c ****     }
 691:Drivers/src/ch32v20x_i2c.c ****     else
 692:Drivers/src/ch32v20x_i2c.c ****     {
 693:Drivers/src/ch32v20x_i2c.c ****         I2Cx->CTLR1 &= CTLR1_ENARP_Reset;
 694:Drivers/src/ch32v20x_i2c.c ****     }
 695:Drivers/src/ch32v20x_i2c.c **** }
 1539              		.loc 1 695 1
GAS LISTING C:\Users\SOLDER~1\AppData\Local\Temp\ccfBhFEg.s 			page 40


 1540 002e 29A8     		j	.L87
 1541              	.L85:
 693:Drivers/src/ch32v20x_i2c.c ****     }
 1542              		.loc 1 693 13
 1543 0030 8327C4FE 		lw	a5,-20(s0)
 1544 0034 9E23     		lhu	a5,0(a5)
 1545 0036 C207     		slli	a5,a5,16
 1546 0038 C183     		srli	a5,a5,16
 693:Drivers/src/ch32v20x_i2c.c ****     }
 1547              		.loc 1 693 21
 1548 003a BD9B     		andi	a5,a5,-17
 1549 003c 13970701 		slli	a4,a5,16
 1550 0040 4183     		srli	a4,a4,16
 1551 0042 8327C4FE 		lw	a5,-20(s0)
 1552 0046 9AA3     		sh	a4,0(a5)
 1553              	.L87:
 1554              		.loc 1 695 1
 1555 0048 0100     		nop
 1556 004a 7244     		lw	s0,28(sp)
 1557              		.cfi_restore 8
 1558              		.cfi_def_cfa 2, 32
 1559 004c 0561     		addi	sp,sp,32
 1560              		.cfi_def_cfa_offset 0
 1561 004e 8280     		jr	ra
 1562              		.cfi_endproc
 1563              	.LFE40:
 1565              		.section	.text.I2C_StretchClockCmd,"ax",@progbits
 1566              		.align	1
 1567              		.globl	I2C_StretchClockCmd
 1569              	I2C_StretchClockCmd:
 1570              	.LFB41:
 696:Drivers/src/ch32v20x_i2c.c **** 
 697:Drivers/src/ch32v20x_i2c.c **** /*********************************************************************
 698:Drivers/src/ch32v20x_i2c.c ****  * @fn      I2C_StretchClockCmd
 699:Drivers/src/ch32v20x_i2c.c ****  *
 700:Drivers/src/ch32v20x_i2c.c ****  * @brief   Enables or disables the specified I2C Clock stretching.
 701:Drivers/src/ch32v20x_i2c.c ****  *
 702:Drivers/src/ch32v20x_i2c.c ****  * @param   I2Cx - where x can be 1 or 2 to select the I2C peripheral.
 703:Drivers/src/ch32v20x_i2c.c ****  *          NewState - ENABLE or DISABLE.
 704:Drivers/src/ch32v20x_i2c.c ****  *
 705:Drivers/src/ch32v20x_i2c.c ****  * @return  none
 706:Drivers/src/ch32v20x_i2c.c ****  */
 707:Drivers/src/ch32v20x_i2c.c **** void I2C_StretchClockCmd(I2C_TypeDef *I2Cx, FunctionalState NewState)
 708:Drivers/src/ch32v20x_i2c.c **** {
 1571              		.loc 1 708 1
 1572              		.cfi_startproc
 1573 0000 0111     		addi	sp,sp,-32
 1574              		.cfi_def_cfa_offset 32
 1575 0002 22CE     		sw	s0,28(sp)
 1576              		.cfi_offset 8, -4
 1577 0004 0010     		addi	s0,sp,32
 1578              		.cfi_def_cfa 8, 0
 1579 0006 2326A4FE 		sw	a0,-20(s0)
 1580 000a 2324B4FE 		sw	a1,-24(s0)
 709:Drivers/src/ch32v20x_i2c.c ****     if(NewState == DISABLE)
 1581              		.loc 1 709 7
 1582 000e 832784FE 		lw	a5,-24(s0)
GAS LISTING C:\Users\SOLDER~1\AppData\Local\Temp\ccfBhFEg.s 			page 41


 1583 0012 99EF     		bne	a5,zero,.L89
 710:Drivers/src/ch32v20x_i2c.c ****     {
 711:Drivers/src/ch32v20x_i2c.c ****         I2Cx->CTLR1 |= CTLR1_NOSTRETCH_Set;
 1584              		.loc 1 711 13
 1585 0014 8327C4FE 		lw	a5,-20(s0)
 1586 0018 9E23     		lhu	a5,0(a5)
 1587 001a C207     		slli	a5,a5,16
 1588 001c C183     		srli	a5,a5,16
 1589              		.loc 1 711 21
 1590 001e 93E70708 		ori	a5,a5,128
 1591 0022 13970701 		slli	a4,a5,16
 1592 0026 4183     		srli	a4,a4,16
 1593 0028 8327C4FE 		lw	a5,-20(s0)
 1594 002c 9AA3     		sh	a4,0(a5)
 712:Drivers/src/ch32v20x_i2c.c ****     }
 713:Drivers/src/ch32v20x_i2c.c ****     else
 714:Drivers/src/ch32v20x_i2c.c ****     {
 715:Drivers/src/ch32v20x_i2c.c ****         I2Cx->CTLR1 &= CTLR1_NOSTRETCH_Reset;
 716:Drivers/src/ch32v20x_i2c.c ****     }
 717:Drivers/src/ch32v20x_i2c.c **** }
 1595              		.loc 1 717 1
 1596 002e 31A8     		j	.L91
 1597              	.L89:
 715:Drivers/src/ch32v20x_i2c.c ****     }
 1598              		.loc 1 715 13
 1599 0030 8327C4FE 		lw	a5,-20(s0)
 1600 0034 9E23     		lhu	a5,0(a5)
 1601 0036 C207     		slli	a5,a5,16
 1602 0038 C183     		srli	a5,a5,16
 715:Drivers/src/ch32v20x_i2c.c ****     }
 1603              		.loc 1 715 21
 1604 003a 93F7F7F7 		andi	a5,a5,-129
 1605 003e 13970701 		slli	a4,a5,16
 1606 0042 4183     		srli	a4,a4,16
 1607 0044 8327C4FE 		lw	a5,-20(s0)
 1608 0048 9AA3     		sh	a4,0(a5)
 1609              	.L91:
 1610              		.loc 1 717 1
 1611 004a 0100     		nop
 1612 004c 7244     		lw	s0,28(sp)
 1613              		.cfi_restore 8
 1614              		.cfi_def_cfa 2, 32
 1615 004e 0561     		addi	sp,sp,32
 1616              		.cfi_def_cfa_offset 0
 1617 0050 8280     		jr	ra
 1618              		.cfi_endproc
 1619              	.LFE41:
 1621              		.section	.text.I2C_FastModeDutyCycleConfig,"ax",@progbits
 1622              		.align	1
 1623              		.globl	I2C_FastModeDutyCycleConfig
 1625              	I2C_FastModeDutyCycleConfig:
 1626              	.LFB42:
 718:Drivers/src/ch32v20x_i2c.c **** 
 719:Drivers/src/ch32v20x_i2c.c **** /*********************************************************************
 720:Drivers/src/ch32v20x_i2c.c ****  * @fn      I2C_FastModeDutyCycleConfig
 721:Drivers/src/ch32v20x_i2c.c ****  *
 722:Drivers/src/ch32v20x_i2c.c ****  * @brief   Selects the specified I2C fast mode duty cycle.
GAS LISTING C:\Users\SOLDER~1\AppData\Local\Temp\ccfBhFEg.s 			page 42


 723:Drivers/src/ch32v20x_i2c.c ****  *
 724:Drivers/src/ch32v20x_i2c.c ****  * @param   I2Cx - where x can be 1 or 2 to select the I2C peripheral.
 725:Drivers/src/ch32v20x_i2c.c ****  *          I2C_DutyCycle - specifies the fast mode duty cycle.
 726:Drivers/src/ch32v20x_i2c.c ****  *            I2C_DutyCycle_2 - I2C fast mode Tlow/Thigh = 2.
 727:Drivers/src/ch32v20x_i2c.c ****  *            I2C_DutyCycle_16_9 - I2C fast mode Tlow/Thigh = 16/9.
 728:Drivers/src/ch32v20x_i2c.c ****  *
 729:Drivers/src/ch32v20x_i2c.c ****  * @return  none
 730:Drivers/src/ch32v20x_i2c.c ****  */
 731:Drivers/src/ch32v20x_i2c.c **** void I2C_FastModeDutyCycleConfig(I2C_TypeDef *I2Cx, uint16_t I2C_DutyCycle)
 732:Drivers/src/ch32v20x_i2c.c **** {
 1627              		.loc 1 732 1
 1628              		.cfi_startproc
 1629 0000 0111     		addi	sp,sp,-32
 1630              		.cfi_def_cfa_offset 32
 1631 0002 22CE     		sw	s0,28(sp)
 1632              		.cfi_offset 8, -4
 1633 0004 0010     		addi	s0,sp,32
 1634              		.cfi_def_cfa 8, 0
 1635 0006 2326A4FE 		sw	a0,-20(s0)
 1636 000a AE87     		mv	a5,a1
 1637 000c 2315F4FE 		sh	a5,-22(s0)
 733:Drivers/src/ch32v20x_i2c.c ****     if(I2C_DutyCycle != I2C_DutyCycle_16_9)
 1638              		.loc 1 733 7
 1639 0010 0357A4FE 		lhu	a4,-22(s0)
 1640 0014 9167     		li	a5,16384
 1641 0016 6302F702 		beq	a4,a5,.L93
 734:Drivers/src/ch32v20x_i2c.c ****     {
 735:Drivers/src/ch32v20x_i2c.c ****         I2Cx->CKCFGR &= I2C_DutyCycle_2;
 1642              		.loc 1 735 13
 1643 001a 8327C4FE 		lw	a5,-20(s0)
 1644 001e DE2F     		lhu	a5,28(a5)
 1645 0020 13970701 		slli	a4,a5,16
 1646 0024 4183     		srli	a4,a4,16
 1647              		.loc 1 735 22
 1648 0026 F177     		li	a5,-16384
 1649 0028 FD17     		addi	a5,a5,-1
 1650 002a F98F     		and	a5,a4,a5
 1651 002c 13970701 		slli	a4,a5,16
 1652 0030 4183     		srli	a4,a4,16
 1653 0032 8327C4FE 		lw	a5,-20(s0)
 1654 0036 DAAF     		sh	a4,28(a5)
 736:Drivers/src/ch32v20x_i2c.c ****     }
 737:Drivers/src/ch32v20x_i2c.c ****     else
 738:Drivers/src/ch32v20x_i2c.c ****     {
 739:Drivers/src/ch32v20x_i2c.c ****         I2Cx->CKCFGR |= I2C_DutyCycle_16_9;
 740:Drivers/src/ch32v20x_i2c.c ****     }
 741:Drivers/src/ch32v20x_i2c.c **** }
 1655              		.loc 1 741 1
 1656 0038 39A8     		j	.L95
 1657              	.L93:
 739:Drivers/src/ch32v20x_i2c.c ****     }
 1658              		.loc 1 739 13
 1659 003a 8327C4FE 		lw	a5,-20(s0)
 1660 003e DE2F     		lhu	a5,28(a5)
 1661 0040 13970701 		slli	a4,a5,16
 1662 0044 4183     		srli	a4,a4,16
 739:Drivers/src/ch32v20x_i2c.c ****     }
GAS LISTING C:\Users\SOLDER~1\AppData\Local\Temp\ccfBhFEg.s 			page 43


 1663              		.loc 1 739 22
 1664 0046 9167     		li	a5,16384
 1665 0048 D98F     		or	a5,a4,a5
 1666 004a 13970701 		slli	a4,a5,16
 1667 004e 4183     		srli	a4,a4,16
 1668 0050 8327C4FE 		lw	a5,-20(s0)
 1669 0054 DAAF     		sh	a4,28(a5)
 1670              	.L95:
 1671              		.loc 1 741 1
 1672 0056 0100     		nop
 1673 0058 7244     		lw	s0,28(sp)
 1674              		.cfi_restore 8
 1675              		.cfi_def_cfa 2, 32
 1676 005a 0561     		addi	sp,sp,32
 1677              		.cfi_def_cfa_offset 0
 1678 005c 8280     		jr	ra
 1679              		.cfi_endproc
 1680              	.LFE42:
 1682              		.section	.text.I2C_CheckEvent,"ax",@progbits
 1683              		.align	1
 1684              		.globl	I2C_CheckEvent
 1686              	I2C_CheckEvent:
 1687              	.LFB43:
 742:Drivers/src/ch32v20x_i2c.c **** 
 743:Drivers/src/ch32v20x_i2c.c **** /*********************************************************************
 744:Drivers/src/ch32v20x_i2c.c ****  * @fn      I2C_CheckEvent
 745:Drivers/src/ch32v20x_i2c.c ****  *
 746:Drivers/src/ch32v20x_i2c.c ****  * @brief   Checks whether the last I2Cx Event is equal to the one passed
 747:Drivers/src/ch32v20x_i2c.c ****  *        as parameter.
 748:Drivers/src/ch32v20x_i2c.c ****  *
 749:Drivers/src/ch32v20x_i2c.c ****  * @param   I2Cx- where x can be 1 or 2 to select the I2C peripheral.
 750:Drivers/src/ch32v20x_i2c.c ****  *          I2C_EVENT: specifies the event to be checked.
 751:Drivers/src/ch32v20x_i2c.c ****  *             I2C_EVENT_SLAVE_TRANSMITTER_ADDRESS_MATCHED - EVT1.
 752:Drivers/src/ch32v20x_i2c.c ****  *             I2C_EVENT_SLAVE_RECEIVER_ADDRESS_MATCHED - EVT1.
 753:Drivers/src/ch32v20x_i2c.c ****  *             I2C_EVENT_SLAVE_TRANSMITTER_SECONDADDRESS_MATCHED - EVT1.
 754:Drivers/src/ch32v20x_i2c.c ****  *             I2C_EVENT_SLAVE_RECEIVER_SECONDADDRESS_MATCHED - EVT1.
 755:Drivers/src/ch32v20x_i2c.c ****  *             I2C_EVENT_SLAVE_GENERALCALLADDRESS_MATCHED - EVT1.
 756:Drivers/src/ch32v20x_i2c.c ****  *             I2C_EVENT_SLAVE_BYTE_RECEIVED - EVT2.
 757:Drivers/src/ch32v20x_i2c.c ****  *             (I2C_EVENT_SLAVE_BYTE_RECEIVED | I2C_FLAG_DUALF) - EVT2.
 758:Drivers/src/ch32v20x_i2c.c ****  *             (I2C_EVENT_SLAVE_BYTE_RECEIVED | I2C_FLAG_GENCALL) - EVT2.
 759:Drivers/src/ch32v20x_i2c.c ****  *             I2C_EVENT_SLAVE_BYTE_TRANSMITTED - EVT3.
 760:Drivers/src/ch32v20x_i2c.c ****  *             (I2C_EVENT_SLAVE_BYTE_TRANSMITTED | I2C_FLAG_DUALF) - EVT3.
 761:Drivers/src/ch32v20x_i2c.c ****  *             (I2C_EVENT_SLAVE_BYTE_TRANSMITTED | I2C_FLAG_GENCALL) - EVT3.
 762:Drivers/src/ch32v20x_i2c.c ****  *             I2C_EVENT_SLAVE_ACK_FAILURE - EVT3_2.
 763:Drivers/src/ch32v20x_i2c.c ****  *             I2C_EVENT_SLAVE_STOP_DETECTED - EVT4.
 764:Drivers/src/ch32v20x_i2c.c ****  *             I2C_EVENT_MASTER_MODE_SELECT - EVT5.
 765:Drivers/src/ch32v20x_i2c.c ****  *             I2C_EVENT_MASTER_TRANSMITTER_MODE_SELECTED - EVT6.
 766:Drivers/src/ch32v20x_i2c.c ****  *             I2C_EVENT_MASTER_RECEIVER_MODE_SELECTED - EVT6.
 767:Drivers/src/ch32v20x_i2c.c ****  *             I2C_EVENT_MASTER_BYTE_RECEIVED - EVT7.
 768:Drivers/src/ch32v20x_i2c.c ****  *             I2C_EVENT_MASTER_BYTE_TRANSMITTING - EVT8.
 769:Drivers/src/ch32v20x_i2c.c ****  *             I2C_EVENT_MASTER_BYTE_TRANSMITTED - EVT8_2.
 770:Drivers/src/ch32v20x_i2c.c ****  *             I2C_EVENT_MASTER_MODE_ADDRESS10 - EVT9.
 771:Drivers/src/ch32v20x_i2c.c ****  *
 772:Drivers/src/ch32v20x_i2c.c ****  * @return  ErrorStatus - READY or NoREADY.
 773:Drivers/src/ch32v20x_i2c.c ****  */
 774:Drivers/src/ch32v20x_i2c.c **** ErrorStatus I2C_CheckEvent(I2C_TypeDef *I2Cx, uint32_t I2C_EVENT)
 775:Drivers/src/ch32v20x_i2c.c **** {
GAS LISTING C:\Users\SOLDER~1\AppData\Local\Temp\ccfBhFEg.s 			page 44


 1688              		.loc 1 775 1
 1689              		.cfi_startproc
 1690 0000 7971     		addi	sp,sp,-48
 1691              		.cfi_def_cfa_offset 48
 1692 0002 22D6     		sw	s0,44(sp)
 1693              		.cfi_offset 8, -4
 1694 0004 0018     		addi	s0,sp,48
 1695              		.cfi_def_cfa 8, 0
 1696 0006 232EA4FC 		sw	a0,-36(s0)
 1697 000a 232CB4FC 		sw	a1,-40(s0)
 776:Drivers/src/ch32v20x_i2c.c ****     uint32_t    lastevent = 0;
 1698              		.loc 1 776 17
 1699 000e 232404FE 		sw	zero,-24(s0)
 777:Drivers/src/ch32v20x_i2c.c ****     uint32_t    flag1 = 0, flag2 = 0;
 1700              		.loc 1 777 17
 1701 0012 232204FE 		sw	zero,-28(s0)
 1702              		.loc 1 777 28
 1703 0016 232004FE 		sw	zero,-32(s0)
 778:Drivers/src/ch32v20x_i2c.c ****     ErrorStatus status = NoREADY;
 1704              		.loc 1 778 17
 1705 001a 232604FE 		sw	zero,-20(s0)
 779:Drivers/src/ch32v20x_i2c.c **** 
 780:Drivers/src/ch32v20x_i2c.c ****     flag1 = I2Cx->STAR1;
 1706              		.loc 1 780 17
 1707 001e 8327C4FD 		lw	a5,-36(s0)
 1708 0022 DE2B     		lhu	a5,20(a5)
 1709 0024 C207     		slli	a5,a5,16
 1710 0026 C183     		srli	a5,a5,16
 1711              		.loc 1 780 11
 1712 0028 2322F4FE 		sw	a5,-28(s0)
 781:Drivers/src/ch32v20x_i2c.c ****     flag2 = I2Cx->STAR2;
 1713              		.loc 1 781 17
 1714 002c 8327C4FD 		lw	a5,-36(s0)
 1715 0030 9E2F     		lhu	a5,24(a5)
 1716 0032 C207     		slli	a5,a5,16
 1717 0034 C183     		srli	a5,a5,16
 1718              		.loc 1 781 11
 1719 0036 2320F4FE 		sw	a5,-32(s0)
 782:Drivers/src/ch32v20x_i2c.c ****     flag2 = flag2 << 16;
 1720              		.loc 1 782 11
 1721 003a 832704FE 		lw	a5,-32(s0)
 1722 003e C207     		slli	a5,a5,16
 1723 0040 2320F4FE 		sw	a5,-32(s0)
 783:Drivers/src/ch32v20x_i2c.c **** 
 784:Drivers/src/ch32v20x_i2c.c ****     lastevent = (flag1 | flag2) & FLAG_Mask;
 1724              		.loc 1 784 24
 1725 0044 032744FE 		lw	a4,-28(s0)
 1726 0048 832704FE 		lw	a5,-32(s0)
 1727 004c 5D8F     		or	a4,a4,a5
 1728              		.loc 1 784 15
 1729 004e B7070001 		li	a5,16777216
 1730 0052 FD17     		addi	a5,a5,-1
 1731 0054 F98F     		and	a5,a4,a5
 1732 0056 2324F4FE 		sw	a5,-24(s0)
 785:Drivers/src/ch32v20x_i2c.c **** 
 786:Drivers/src/ch32v20x_i2c.c ****     if((lastevent & I2C_EVENT) == I2C_EVENT)
 1733              		.loc 1 786 19
GAS LISTING C:\Users\SOLDER~1\AppData\Local\Temp\ccfBhFEg.s 			page 45


 1734 005a 032784FE 		lw	a4,-24(s0)
 1735 005e 832784FD 		lw	a5,-40(s0)
 1736 0062 F98F     		and	a5,a4,a5
 1737              		.loc 1 786 7
 1738 0064 032784FD 		lw	a4,-40(s0)
 1739 0068 6316F700 		bne	a4,a5,.L97
 787:Drivers/src/ch32v20x_i2c.c ****     {
 788:Drivers/src/ch32v20x_i2c.c ****         status = READY;
 1740              		.loc 1 788 16
 1741 006c 8547     		li	a5,1
 1742 006e 2326F4FE 		sw	a5,-20(s0)
 1743 0072 19A0     		j	.L98
 1744              	.L97:
 789:Drivers/src/ch32v20x_i2c.c ****     }
 790:Drivers/src/ch32v20x_i2c.c ****     else
 791:Drivers/src/ch32v20x_i2c.c ****     {
 792:Drivers/src/ch32v20x_i2c.c ****         status = NoREADY;
 1745              		.loc 1 792 16
 1746 0074 232604FE 		sw	zero,-20(s0)
 1747              	.L98:
 793:Drivers/src/ch32v20x_i2c.c ****     }
 794:Drivers/src/ch32v20x_i2c.c **** 
 795:Drivers/src/ch32v20x_i2c.c ****     return status;
 1748              		.loc 1 795 12
 1749 0078 8327C4FE 		lw	a5,-20(s0)
 796:Drivers/src/ch32v20x_i2c.c **** }
 1750              		.loc 1 796 1
 1751 007c 3E85     		mv	a0,a5
 1752 007e 3254     		lw	s0,44(sp)
 1753              		.cfi_restore 8
 1754              		.cfi_def_cfa 2, 48
 1755 0080 4561     		addi	sp,sp,48
 1756              		.cfi_def_cfa_offset 0
 1757 0082 8280     		jr	ra
 1758              		.cfi_endproc
 1759              	.LFE43:
 1761              		.section	.text.I2C_GetLastEvent,"ax",@progbits
 1762              		.align	1
 1763              		.globl	I2C_GetLastEvent
 1765              	I2C_GetLastEvent:
 1766              	.LFB44:
 797:Drivers/src/ch32v20x_i2c.c **** 
 798:Drivers/src/ch32v20x_i2c.c **** /*********************************************************************
 799:Drivers/src/ch32v20x_i2c.c ****  * @fn      I2C_GetLastEvent
 800:Drivers/src/ch32v20x_i2c.c ****  *
 801:Drivers/src/ch32v20x_i2c.c ****  * @brief   Returns the last I2Cx Event.
 802:Drivers/src/ch32v20x_i2c.c ****  *
 803:Drivers/src/ch32v20x_i2c.c ****  * @param   I2Cx - where x can be 1 or 2 to select the I2C peripheral.
 804:Drivers/src/ch32v20x_i2c.c ****  *
 805:Drivers/src/ch32v20x_i2c.c ****  * @return  none
 806:Drivers/src/ch32v20x_i2c.c ****  */
 807:Drivers/src/ch32v20x_i2c.c **** uint32_t I2C_GetLastEvent(I2C_TypeDef *I2Cx)
 808:Drivers/src/ch32v20x_i2c.c **** {
 1767              		.loc 1 808 1
 1768              		.cfi_startproc
 1769 0000 7971     		addi	sp,sp,-48
 1770              		.cfi_def_cfa_offset 48
GAS LISTING C:\Users\SOLDER~1\AppData\Local\Temp\ccfBhFEg.s 			page 46


 1771 0002 22D6     		sw	s0,44(sp)
 1772              		.cfi_offset 8, -4
 1773 0004 0018     		addi	s0,sp,48
 1774              		.cfi_def_cfa 8, 0
 1775 0006 232EA4FC 		sw	a0,-36(s0)
 809:Drivers/src/ch32v20x_i2c.c ****     uint32_t lastevent = 0;
 1776              		.loc 1 809 14
 1777 000a 232604FE 		sw	zero,-20(s0)
 810:Drivers/src/ch32v20x_i2c.c ****     uint32_t flag1 = 0, flag2 = 0;
 1778              		.loc 1 810 14
 1779 000e 232404FE 		sw	zero,-24(s0)
 1780              		.loc 1 810 25
 1781 0012 232204FE 		sw	zero,-28(s0)
 811:Drivers/src/ch32v20x_i2c.c **** 
 812:Drivers/src/ch32v20x_i2c.c ****     flag1 = I2Cx->STAR1;
 1782              		.loc 1 812 17
 1783 0016 8327C4FD 		lw	a5,-36(s0)
 1784 001a DE2B     		lhu	a5,20(a5)
 1785 001c C207     		slli	a5,a5,16
 1786 001e C183     		srli	a5,a5,16
 1787              		.loc 1 812 11
 1788 0020 2324F4FE 		sw	a5,-24(s0)
 813:Drivers/src/ch32v20x_i2c.c ****     flag2 = I2Cx->STAR2;
 1789              		.loc 1 813 17
 1790 0024 8327C4FD 		lw	a5,-36(s0)
 1791 0028 9E2F     		lhu	a5,24(a5)
 1792 002a C207     		slli	a5,a5,16
 1793 002c C183     		srli	a5,a5,16
 1794              		.loc 1 813 11
 1795 002e 2322F4FE 		sw	a5,-28(s0)
 814:Drivers/src/ch32v20x_i2c.c ****     flag2 = flag2 << 16;
 1796              		.loc 1 814 11
 1797 0032 832744FE 		lw	a5,-28(s0)
 1798 0036 C207     		slli	a5,a5,16
 1799 0038 2322F4FE 		sw	a5,-28(s0)
 815:Drivers/src/ch32v20x_i2c.c ****     lastevent = (flag1 | flag2) & FLAG_Mask;
 1800              		.loc 1 815 24
 1801 003c 032784FE 		lw	a4,-24(s0)
 1802 0040 832744FE 		lw	a5,-28(s0)
 1803 0044 5D8F     		or	a4,a4,a5
 1804              		.loc 1 815 15
 1805 0046 B7070001 		li	a5,16777216
 1806 004a FD17     		addi	a5,a5,-1
 1807 004c F98F     		and	a5,a4,a5
 1808 004e 2326F4FE 		sw	a5,-20(s0)
 816:Drivers/src/ch32v20x_i2c.c **** 
 817:Drivers/src/ch32v20x_i2c.c ****     return lastevent;
 1809              		.loc 1 817 12
 1810 0052 8327C4FE 		lw	a5,-20(s0)
 818:Drivers/src/ch32v20x_i2c.c **** }
 1811              		.loc 1 818 1
 1812 0056 3E85     		mv	a0,a5
 1813 0058 3254     		lw	s0,44(sp)
 1814              		.cfi_restore 8
 1815              		.cfi_def_cfa 2, 48
 1816 005a 4561     		addi	sp,sp,48
 1817              		.cfi_def_cfa_offset 0
GAS LISTING C:\Users\SOLDER~1\AppData\Local\Temp\ccfBhFEg.s 			page 47


 1818 005c 8280     		jr	ra
 1819              		.cfi_endproc
 1820              	.LFE44:
 1822              		.section	.text.I2C_GetFlagStatus,"ax",@progbits
 1823              		.align	1
 1824              		.globl	I2C_GetFlagStatus
 1826              	I2C_GetFlagStatus:
 1827              	.LFB45:
 819:Drivers/src/ch32v20x_i2c.c **** 
 820:Drivers/src/ch32v20x_i2c.c **** /*********************************************************************
 821:Drivers/src/ch32v20x_i2c.c ****  * @fn      I2C_GetFlagStatus
 822:Drivers/src/ch32v20x_i2c.c ****  *
 823:Drivers/src/ch32v20x_i2c.c ****  * @brief   Checks whether the last I2Cx Event is equal to the one passed
 824:Drivers/src/ch32v20x_i2c.c ****  *        as parameter.
 825:Drivers/src/ch32v20x_i2c.c ****  *
 826:Drivers/src/ch32v20x_i2c.c ****  * @param   I2Cx - where x can be 1 or 2 to select the I2C peripheral.
 827:Drivers/src/ch32v20x_i2c.c ****  *          I2C_FLAG - specifies the flag to check.
 828:Drivers/src/ch32v20x_i2c.c ****  *            I2C_FLAG_DUALF - Dual flag (Slave mode).
 829:Drivers/src/ch32v20x_i2c.c ****  *            I2C_FLAG_SMBHOST - SMBus host header (Slave mode).
 830:Drivers/src/ch32v20x_i2c.c ****  *            I2C_FLAG_SMBDEFAULT - SMBus default header (Slave mode).
 831:Drivers/src/ch32v20x_i2c.c ****  *            I2C_FLAG_GENCALL - General call header flag (Slave mode).
 832:Drivers/src/ch32v20x_i2c.c ****  *            I2C_FLAG_TRA - Transmitter/Receiver flag.
 833:Drivers/src/ch32v20x_i2c.c ****  *            I2C_FLAG_BUSY - Bus busy flag.
 834:Drivers/src/ch32v20x_i2c.c ****  *            I2C_FLAG_MSL - Master/Slave flag.
 835:Drivers/src/ch32v20x_i2c.c ****  *            I2C_FLAG_SMBALERT - SMBus Alert flag.
 836:Drivers/src/ch32v20x_i2c.c ****  *            I2C_FLAG_TIMEOUT - Timeout or Tlow error flag.
 837:Drivers/src/ch32v20x_i2c.c ****  *            I2C_FLAG_PECERR - PEC error in reception flag.
 838:Drivers/src/ch32v20x_i2c.c ****  *            I2C_FLAG_OVR - Overrun/Underrun flag (Slave mode).
 839:Drivers/src/ch32v20x_i2c.c ****  *            I2C_FLAG_AF - Acknowledge failure flag.
 840:Drivers/src/ch32v20x_i2c.c ****  *            I2C_FLAG_ARLO - Arbitration lost flag (Master mode).
 841:Drivers/src/ch32v20x_i2c.c ****  *            I2C_FLAG_BERR - Bus error flag.
 842:Drivers/src/ch32v20x_i2c.c ****  *            I2C_FLAG_TXE - Data register empty flag (Transmitter).
 843:Drivers/src/ch32v20x_i2c.c ****  *            I2C_FLAG_RXNE- Data register not empty (Receiver) flag.
 844:Drivers/src/ch32v20x_i2c.c ****  *            I2C_FLAG_STOPF - Stop detection flag (Slave mode).
 845:Drivers/src/ch32v20x_i2c.c ****  *            I2C_FLAG_ADD10 - 10-bit header sent flag (Master mode).
 846:Drivers/src/ch32v20x_i2c.c ****  *            I2C_FLAG_BTF - Byte transfer finished flag.
 847:Drivers/src/ch32v20x_i2c.c ****  *            I2C_FLAG_ADDR - Address sent flag (Master mode) "ADSL"
 848:Drivers/src/ch32v20x_i2c.c ****  *        Address matched flag (Slave mode)"ENDA".
 849:Drivers/src/ch32v20x_i2c.c ****  *            I2C_FLAG_SB - Start bit flag (Master mode).
 850:Drivers/src/ch32v20x_i2c.c ****  *
 851:Drivers/src/ch32v20x_i2c.c ****  * @return  FlagStatus - SET or RESET.
 852:Drivers/src/ch32v20x_i2c.c ****  */
 853:Drivers/src/ch32v20x_i2c.c **** FlagStatus I2C_GetFlagStatus(I2C_TypeDef *I2Cx, uint32_t I2C_FLAG)
 854:Drivers/src/ch32v20x_i2c.c **** {
 1828              		.loc 1 854 1
 1829              		.cfi_startproc
 1830 0000 7971     		addi	sp,sp,-48
 1831              		.cfi_def_cfa_offset 48
 1832 0002 22D6     		sw	s0,44(sp)
 1833              		.cfi_offset 8, -4
 1834 0004 0018     		addi	s0,sp,48
 1835              		.cfi_def_cfa 8, 0
 1836 0006 232EA4FC 		sw	a0,-36(s0)
 1837 000a 232CB4FC 		sw	a1,-40(s0)
 855:Drivers/src/ch32v20x_i2c.c ****     FlagStatus    bitstatus = RESET;
 1838              		.loc 1 855 19
 1839 000e 232604FE 		sw	zero,-20(s0)
GAS LISTING C:\Users\SOLDER~1\AppData\Local\Temp\ccfBhFEg.s 			page 48


 856:Drivers/src/ch32v20x_i2c.c ****     __IO uint32_t i2creg = 0, i2cxbase = 0;
 1840              		.loc 1 856 19
 1841 0012 232404FE 		sw	zero,-24(s0)
 1842              		.loc 1 856 31
 1843 0016 232204FE 		sw	zero,-28(s0)
 857:Drivers/src/ch32v20x_i2c.c **** 
 858:Drivers/src/ch32v20x_i2c.c ****     i2cxbase = (uint32_t)I2Cx;
 1844              		.loc 1 858 16
 1845 001a 8327C4FD 		lw	a5,-36(s0)
 1846              		.loc 1 858 14
 1847 001e 2322F4FE 		sw	a5,-28(s0)
 859:Drivers/src/ch32v20x_i2c.c ****     i2creg = I2C_FLAG >> 28;
 1848              		.loc 1 859 23
 1849 0022 832784FD 		lw	a5,-40(s0)
 1850 0026 F183     		srli	a5,a5,28
 1851              		.loc 1 859 12
 1852 0028 2324F4FE 		sw	a5,-24(s0)
 860:Drivers/src/ch32v20x_i2c.c ****     I2C_FLAG &= FLAG_Mask;
 1853              		.loc 1 860 14
 1854 002c 032784FD 		lw	a4,-40(s0)
 1855 0030 B7070001 		li	a5,16777216
 1856 0034 FD17     		addi	a5,a5,-1
 1857 0036 F98F     		and	a5,a4,a5
 1858 0038 232CF4FC 		sw	a5,-40(s0)
 861:Drivers/src/ch32v20x_i2c.c **** 
 862:Drivers/src/ch32v20x_i2c.c ****     if(i2creg != 0)
 1859              		.loc 1 862 15
 1860 003c 832784FE 		lw	a5,-24(s0)
 1861              		.loc 1 862 7
 1862 0040 99C7     		beq	a5,zero,.L103
 863:Drivers/src/ch32v20x_i2c.c ****     {
 864:Drivers/src/ch32v20x_i2c.c ****         i2cxbase += 0x14;
 1863              		.loc 1 864 18
 1864 0042 832744FE 		lw	a5,-28(s0)
 1865 0046 D107     		addi	a5,a5,20
 1866 0048 2322F4FE 		sw	a5,-28(s0)
 1867 004c 19A8     		j	.L104
 1868              	.L103:
 865:Drivers/src/ch32v20x_i2c.c ****     }
 866:Drivers/src/ch32v20x_i2c.c ****     else
 867:Drivers/src/ch32v20x_i2c.c ****     {
 868:Drivers/src/ch32v20x_i2c.c ****         I2C_FLAG = (uint32_t)(I2C_FLAG >> 16);
 1869              		.loc 1 868 18
 1870 004e 832784FD 		lw	a5,-40(s0)
 1871 0052 C183     		srli	a5,a5,16
 1872 0054 232CF4FC 		sw	a5,-40(s0)
 869:Drivers/src/ch32v20x_i2c.c ****         i2cxbase += 0x18;
 1873              		.loc 1 869 18
 1874 0058 832744FE 		lw	a5,-28(s0)
 1875 005c E107     		addi	a5,a5,24
 1876 005e 2322F4FE 		sw	a5,-28(s0)
 1877              	.L104:
 870:Drivers/src/ch32v20x_i2c.c ****     }
 871:Drivers/src/ch32v20x_i2c.c **** 
 872:Drivers/src/ch32v20x_i2c.c ****     if(((*(__IO uint32_t *)i2cxbase) & I2C_FLAG) != (uint32_t)RESET)
 1878              		.loc 1 872 11
 1879 0062 832744FE 		lw	a5,-28(s0)
GAS LISTING C:\Users\SOLDER~1\AppData\Local\Temp\ccfBhFEg.s 			page 49


 1880              		.loc 1 872 10
 1881 0066 9843     		lw	a4,0(a5)
 1882              		.loc 1 872 38
 1883 0068 832784FD 		lw	a5,-40(s0)
 1884 006c F98F     		and	a5,a4,a5
 1885              		.loc 1 872 7
 1886 006e 89C7     		beq	a5,zero,.L105
 873:Drivers/src/ch32v20x_i2c.c ****     {
 874:Drivers/src/ch32v20x_i2c.c ****         bitstatus = SET;
 1887              		.loc 1 874 19
 1888 0070 8547     		li	a5,1
 1889 0072 2326F4FE 		sw	a5,-20(s0)
 1890 0076 19A0     		j	.L106
 1891              	.L105:
 875:Drivers/src/ch32v20x_i2c.c ****     }
 876:Drivers/src/ch32v20x_i2c.c ****     else
 877:Drivers/src/ch32v20x_i2c.c ****     {
 878:Drivers/src/ch32v20x_i2c.c ****         bitstatus = RESET;
 1892              		.loc 1 878 19
 1893 0078 232604FE 		sw	zero,-20(s0)
 1894              	.L106:
 879:Drivers/src/ch32v20x_i2c.c ****     }
 880:Drivers/src/ch32v20x_i2c.c **** 
 881:Drivers/src/ch32v20x_i2c.c ****     return bitstatus;
 1895              		.loc 1 881 12
 1896 007c 8327C4FE 		lw	a5,-20(s0)
 882:Drivers/src/ch32v20x_i2c.c **** }
 1897              		.loc 1 882 1
 1898 0080 3E85     		mv	a0,a5
 1899 0082 3254     		lw	s0,44(sp)
 1900              		.cfi_restore 8
 1901              		.cfi_def_cfa 2, 48
 1902 0084 4561     		addi	sp,sp,48
 1903              		.cfi_def_cfa_offset 0
 1904 0086 8280     		jr	ra
 1905              		.cfi_endproc
 1906              	.LFE45:
 1908              		.section	.text.I2C_ClearFlag,"ax",@progbits
 1909              		.align	1
 1910              		.globl	I2C_ClearFlag
 1912              	I2C_ClearFlag:
 1913              	.LFB46:
 883:Drivers/src/ch32v20x_i2c.c **** 
 884:Drivers/src/ch32v20x_i2c.c **** /*********************************************************************
 885:Drivers/src/ch32v20x_i2c.c ****  * @fn      I2C_ClearFlag
 886:Drivers/src/ch32v20x_i2c.c ****  *
 887:Drivers/src/ch32v20x_i2c.c ****  * @brief   Clears the I2Cx's pending flags.
 888:Drivers/src/ch32v20x_i2c.c ****  *
 889:Drivers/src/ch32v20x_i2c.c ****  * @param   I2Cx - where x can be 1 or 2 to select the I2C peripheral.
 890:Drivers/src/ch32v20x_i2c.c ****  *          I2C_FLAG - specifies the flag to clear.
 891:Drivers/src/ch32v20x_i2c.c ****  *            I2C_FLAG_SMBALERT - SMBus Alert flag.
 892:Drivers/src/ch32v20x_i2c.c ****  *            I2C_FLAG_TIMEOUT - Timeout or Tlow error flag.
 893:Drivers/src/ch32v20x_i2c.c ****  *            I2C_FLAG_PECERR - PEC error in reception flag.
 894:Drivers/src/ch32v20x_i2c.c ****  *            I2C_FLAG_OVR - Overrun/Underrun flag (Slave mode).
 895:Drivers/src/ch32v20x_i2c.c ****  *            I2C_FLAG_AF - Acknowledge failure flag.
 896:Drivers/src/ch32v20x_i2c.c ****  *            I2C_FLAG_ARLO - Arbitration lost flag (Master mode).
 897:Drivers/src/ch32v20x_i2c.c ****  *            I2C_FLAG_BERR - Bus error flag.
GAS LISTING C:\Users\SOLDER~1\AppData\Local\Temp\ccfBhFEg.s 			page 50


 898:Drivers/src/ch32v20x_i2c.c ****  *          Note-
 899:Drivers/src/ch32v20x_i2c.c ****  *           - STOPF (STOP detection) is cleared by software sequence: a read operation 
 900:Drivers/src/ch32v20x_i2c.c ****  *             to I2C_STAR1 register (I2C_GetFlagStatus()) followed by a write operation 
 901:Drivers/src/ch32v20x_i2c.c ****  *             to I2C_CTLR1 register (I2C_Cmd() to re-enable the I2C peripheral).
 902:Drivers/src/ch32v20x_i2c.c ****  *           - ADD10 (10-bit header sent) is cleared by software sequence: a read 
 903:Drivers/src/ch32v20x_i2c.c ****  *             operation to I2C_SATR1 (I2C_GetFlagStatus()) followed by writing the 
 904:Drivers/src/ch32v20x_i2c.c ****  *             second byte of the address in DATAR register.
 905:Drivers/src/ch32v20x_i2c.c ****  *           - BTF (Byte Transfer Finished) is cleared by software sequence: a read 
 906:Drivers/src/ch32v20x_i2c.c ****  *             operation to I2C_SATR1 register (I2C_GetFlagStatus()) followed by a 
 907:Drivers/src/ch32v20x_i2c.c ****  *             read/write to I2C_DATAR register (I2C_SendData()).
 908:Drivers/src/ch32v20x_i2c.c ****  *           - ADDR (Address sent) is cleared by software sequence: a read operation to 
 909:Drivers/src/ch32v20x_i2c.c ****  *             I2C_SATR1 register (I2C_GetFlagStatus()) followed by a read operation to 
 910:Drivers/src/ch32v20x_i2c.c ****  *             I2C_SATR2 register ((void)(I2Cx->SR2)).
 911:Drivers/src/ch32v20x_i2c.c ****  *           - SB (Start Bit) is cleared software sequence: a read operation to I2C_STAR1
 912:Drivers/src/ch32v20x_i2c.c ****  *             register (I2C_GetFlagStatus()) followed by a write operation to I2C_DATAR
 913:Drivers/src/ch32v20x_i2c.c ****  *             register  (I2C_SendData()). 
 914:Drivers/src/ch32v20x_i2c.c ****  * @return  none
 915:Drivers/src/ch32v20x_i2c.c ****  */
 916:Drivers/src/ch32v20x_i2c.c **** void I2C_ClearFlag(I2C_TypeDef *I2Cx, uint32_t I2C_FLAG)
 917:Drivers/src/ch32v20x_i2c.c **** {
 1914              		.loc 1 917 1
 1915              		.cfi_startproc
 1916 0000 7971     		addi	sp,sp,-48
 1917              		.cfi_def_cfa_offset 48
 1918 0002 22D6     		sw	s0,44(sp)
 1919              		.cfi_offset 8, -4
 1920 0004 0018     		addi	s0,sp,48
 1921              		.cfi_def_cfa 8, 0
 1922 0006 232EA4FC 		sw	a0,-36(s0)
 1923 000a 232CB4FC 		sw	a1,-40(s0)
 918:Drivers/src/ch32v20x_i2c.c ****     uint32_t flagpos = 0;
 1924              		.loc 1 918 14
 1925 000e 232604FE 		sw	zero,-20(s0)
 919:Drivers/src/ch32v20x_i2c.c **** 
 920:Drivers/src/ch32v20x_i2c.c ****     flagpos = I2C_FLAG & FLAG_Mask;
 1926              		.loc 1 920 13
 1927 0012 032784FD 		lw	a4,-40(s0)
 1928 0016 B7070001 		li	a5,16777216
 1929 001a FD17     		addi	a5,a5,-1
 1930 001c F98F     		and	a5,a4,a5
 1931 001e 2326F4FE 		sw	a5,-20(s0)
 921:Drivers/src/ch32v20x_i2c.c ****     I2Cx->STAR1 = (uint16_t)~flagpos;
 1932              		.loc 1 921 19
 1933 0022 8327C4FE 		lw	a5,-20(s0)
 1934 0026 C207     		slli	a5,a5,16
 1935 0028 C183     		srli	a5,a5,16
 1936 002a 93C7F7FF 		not	a5,a5
 1937 002e 13970701 		slli	a4,a5,16
 1938 0032 4183     		srli	a4,a4,16
 1939              		.loc 1 921 17
 1940 0034 8327C4FD 		lw	a5,-36(s0)
 1941 0038 DAAB     		sh	a4,20(a5)
 922:Drivers/src/ch32v20x_i2c.c **** }
 1942              		.loc 1 922 1
 1943 003a 0100     		nop
 1944 003c 3254     		lw	s0,44(sp)
 1945              		.cfi_restore 8
GAS LISTING C:\Users\SOLDER~1\AppData\Local\Temp\ccfBhFEg.s 			page 51


 1946              		.cfi_def_cfa 2, 48
 1947 003e 4561     		addi	sp,sp,48
 1948              		.cfi_def_cfa_offset 0
 1949 0040 8280     		jr	ra
 1950              		.cfi_endproc
 1951              	.LFE46:
 1953              		.section	.text.I2C_GetITStatus,"ax",@progbits
 1954              		.align	1
 1955              		.globl	I2C_GetITStatus
 1957              	I2C_GetITStatus:
 1958              	.LFB47:
 923:Drivers/src/ch32v20x_i2c.c **** 
 924:Drivers/src/ch32v20x_i2c.c **** /*********************************************************************
 925:Drivers/src/ch32v20x_i2c.c ****  * @fn      I2C_GetITStatus
 926:Drivers/src/ch32v20x_i2c.c ****  *
 927:Drivers/src/ch32v20x_i2c.c ****  * @brief   Checks whether the specified I2C interrupt has occurred or not.
 928:Drivers/src/ch32v20x_i2c.c ****  *
 929:Drivers/src/ch32v20x_i2c.c ****  * @param   I2Cx - where x can be 1 or 2 to select the I2C peripheral.
 930:Drivers/src/ch32v20x_i2c.c ****  *          II2C_IT - specifies the interrupt source to check.
 931:Drivers/src/ch32v20x_i2c.c ****  *            I2C_IT_SMBALERT - SMBus Alert flag.
 932:Drivers/src/ch32v20x_i2c.c ****  *            I2C_IT_TIMEOUT - Timeout or Tlow error flag.
 933:Drivers/src/ch32v20x_i2c.c ****  *            I2C_IT_PECERR - PEC error in reception flag.
 934:Drivers/src/ch32v20x_i2c.c ****  *            I2C_IT_OVR - Overrun/Underrun flag (Slave mode).
 935:Drivers/src/ch32v20x_i2c.c ****  *            I2C_IT_AF - Acknowledge failure flag.
 936:Drivers/src/ch32v20x_i2c.c ****  *            I2C_IT_ARLO - Arbitration lost flag (Master mode).
 937:Drivers/src/ch32v20x_i2c.c ****  *            I2C_IT_BERR - Bus error flag.
 938:Drivers/src/ch32v20x_i2c.c ****  *            I2C_IT_TXE - Data register empty flag (Transmitter).
 939:Drivers/src/ch32v20x_i2c.c ****  *            I2C_IT_RXNE - Data register not empty (Receiver) flag.
 940:Drivers/src/ch32v20x_i2c.c ****  *            I2C_IT_STOPF - Stop detection flag (Slave mode).
 941:Drivers/src/ch32v20x_i2c.c ****  *            I2C_IT_ADD10 - 10-bit header sent flag (Master mode).
 942:Drivers/src/ch32v20x_i2c.c ****  *            I2C_IT_BTF - Byte transfer finished flag.
 943:Drivers/src/ch32v20x_i2c.c ****  *            I2C_IT_ADDR - Address sent flag (Master mode) "ADSL"  Address matched
 944:Drivers/src/ch32v20x_i2c.c ****  *        flag (Slave mode)"ENDAD".
 945:Drivers/src/ch32v20x_i2c.c ****  *            I2C_IT_SB - Start bit flag (Master mode).
 946:Drivers/src/ch32v20x_i2c.c ****  *
 947:Drivers/src/ch32v20x_i2c.c ****  * @return  none
 948:Drivers/src/ch32v20x_i2c.c ****  */
 949:Drivers/src/ch32v20x_i2c.c **** ITStatus I2C_GetITStatus(I2C_TypeDef *I2Cx, uint32_t I2C_IT)
 950:Drivers/src/ch32v20x_i2c.c **** {
 1959              		.loc 1 950 1
 1960              		.cfi_startproc
 1961 0000 7971     		addi	sp,sp,-48
 1962              		.cfi_def_cfa_offset 48
 1963 0002 22D6     		sw	s0,44(sp)
 1964              		.cfi_offset 8, -4
 1965 0004 0018     		addi	s0,sp,48
 1966              		.cfi_def_cfa 8, 0
 1967 0006 232EA4FC 		sw	a0,-36(s0)
 1968 000a 232CB4FC 		sw	a1,-40(s0)
 951:Drivers/src/ch32v20x_i2c.c ****     ITStatus bitstatus = RESET;
 1969              		.loc 1 951 14
 1970 000e 232604FE 		sw	zero,-20(s0)
 952:Drivers/src/ch32v20x_i2c.c ****     uint32_t enablestatus = 0;
 1971              		.loc 1 952 14
 1972 0012 232404FE 		sw	zero,-24(s0)
 953:Drivers/src/ch32v20x_i2c.c **** 
 954:Drivers/src/ch32v20x_i2c.c ****     enablestatus = (uint32_t)(((I2C_IT & ITEN_Mask) >> 16) & (I2Cx->CTLR2));
GAS LISTING C:\Users\SOLDER~1\AppData\Local\Temp\ccfBhFEg.s 			page 52


 1973              		.loc 1 954 53
 1974 0016 832784FD 		lw	a5,-40(s0)
 1975 001a C183     		srli	a5,a5,16
 1976              		.loc 1 954 67
 1977 001c 0327C4FD 		lw	a4,-36(s0)
 1978 0020 5A23     		lhu	a4,4(a4)
 1979 0022 4207     		slli	a4,a4,16
 1980 0024 4183     		srli	a4,a4,16
 1981              		.loc 1 954 20
 1982 0026 F98F     		and	a5,a5,a4
 1983              		.loc 1 954 18
 1984 0028 93F70770 		andi	a5,a5,1792
 1985 002c 2324F4FE 		sw	a5,-24(s0)
 955:Drivers/src/ch32v20x_i2c.c ****     I2C_IT &= FLAG_Mask;
 1986              		.loc 1 955 12
 1987 0030 032784FD 		lw	a4,-40(s0)
 1988 0034 B7070001 		li	a5,16777216
 1989 0038 FD17     		addi	a5,a5,-1
 1990 003a F98F     		and	a5,a4,a5
 1991 003c 232CF4FC 		sw	a5,-40(s0)
 956:Drivers/src/ch32v20x_i2c.c **** 
 957:Drivers/src/ch32v20x_i2c.c ****     if(((I2Cx->STAR1 & I2C_IT) != (uint32_t)RESET) && enablestatus)
 1992              		.loc 1 957 14
 1993 0040 8327C4FD 		lw	a5,-36(s0)
 1994 0044 DE2B     		lhu	a5,20(a5)
 1995 0046 C207     		slli	a5,a5,16
 1996 0048 C183     		srli	a5,a5,16
 1997 004a 3E87     		mv	a4,a5
 1998              		.loc 1 957 22
 1999 004c 832784FD 		lw	a5,-40(s0)
 2000 0050 F98F     		and	a5,a4,a5
 2001              		.loc 1 957 7
 2002 0052 81CB     		beq	a5,zero,.L110
 2003              		.loc 1 957 52 discriminator 1
 2004 0054 832784FE 		lw	a5,-24(s0)
 2005 0058 89C7     		beq	a5,zero,.L110
 958:Drivers/src/ch32v20x_i2c.c ****     {
 959:Drivers/src/ch32v20x_i2c.c ****         bitstatus = SET;
 2006              		.loc 1 959 19
 2007 005a 8547     		li	a5,1
 2008 005c 2326F4FE 		sw	a5,-20(s0)
 2009 0060 19A0     		j	.L111
 2010              	.L110:
 960:Drivers/src/ch32v20x_i2c.c ****     }
 961:Drivers/src/ch32v20x_i2c.c ****     else
 962:Drivers/src/ch32v20x_i2c.c ****     {
 963:Drivers/src/ch32v20x_i2c.c ****         bitstatus = RESET;
 2011              		.loc 1 963 19
 2012 0062 232604FE 		sw	zero,-20(s0)
 2013              	.L111:
 964:Drivers/src/ch32v20x_i2c.c ****     }
 965:Drivers/src/ch32v20x_i2c.c **** 
 966:Drivers/src/ch32v20x_i2c.c ****     return bitstatus;
 2014              		.loc 1 966 12
 2015 0066 8327C4FE 		lw	a5,-20(s0)
 967:Drivers/src/ch32v20x_i2c.c **** }
 2016              		.loc 1 967 1
GAS LISTING C:\Users\SOLDER~1\AppData\Local\Temp\ccfBhFEg.s 			page 53


 2017 006a 3E85     		mv	a0,a5
 2018 006c 3254     		lw	s0,44(sp)
 2019              		.cfi_restore 8
 2020              		.cfi_def_cfa 2, 48
 2021 006e 4561     		addi	sp,sp,48
 2022              		.cfi_def_cfa_offset 0
 2023 0070 8280     		jr	ra
 2024              		.cfi_endproc
 2025              	.LFE47:
 2027              		.section	.text.I2C_ClearITPendingBit,"ax",@progbits
 2028              		.align	1
 2029              		.globl	I2C_ClearITPendingBit
 2031              	I2C_ClearITPendingBit:
 2032              	.LFB48:
 968:Drivers/src/ch32v20x_i2c.c **** 
 969:Drivers/src/ch32v20x_i2c.c **** /*********************************************************************
 970:Drivers/src/ch32v20x_i2c.c ****  * @fn      I2C_ClearITPendingBit
 971:Drivers/src/ch32v20x_i2c.c ****  *
 972:Drivers/src/ch32v20x_i2c.c ****  * @brief   Clears the I2Cx interrupt pending bits.
 973:Drivers/src/ch32v20x_i2c.c ****  *
 974:Drivers/src/ch32v20x_i2c.c ****  * @param   I2Cx - where x can be 1 or 2 to select the I2C peripheral.
 975:Drivers/src/ch32v20x_i2c.c ****  *          I2C_IT - specifies the interrupt pending bit to clear.
 976:Drivers/src/ch32v20x_i2c.c ****  *            I2C_IT_SMBALERT - SMBus Alert interrupt.
 977:Drivers/src/ch32v20x_i2c.c ****  *            I2C_IT_TIMEOUT - Timeout or Tlow error interrupt.
 978:Drivers/src/ch32v20x_i2c.c ****  *            I2C_IT_PECERR - PEC error in reception  interrupt.
 979:Drivers/src/ch32v20x_i2c.c ****  *            I2C_IT_OVR - Overrun/Underrun interrupt (Slave mode).
 980:Drivers/src/ch32v20x_i2c.c ****  *            I2C_IT_AF - Acknowledge failure interrupt.
 981:Drivers/src/ch32v20x_i2c.c ****  *            I2C_IT_ARLO - Arbitration lost interrupt (Master mode).
 982:Drivers/src/ch32v20x_i2c.c ****  *            I2C_IT_BERR - Bus error interrupt.
 983:Drivers/src/ch32v20x_i2c.c ****  *          Note-
 984:Drivers/src/ch32v20x_i2c.c ****  *           - STOPF (STOP detection) is cleared by software sequence: a read operation 
 985:Drivers/src/ch32v20x_i2c.c ****  *             to I2C_STAR1 register (I2C_GetITStatus()) followed by a write operation to 
 986:Drivers/src/ch32v20x_i2c.c ****  *             I2C_CTLR1 register (I2C_Cmd() to re-enable the I2C peripheral).
 987:Drivers/src/ch32v20x_i2c.c ****  *           - ADD10 (10-bit header sent) is cleared by software sequence: a read 
 988:Drivers/src/ch32v20x_i2c.c ****  *             operation to I2C_STAR1 (I2C_GetITStatus()) followed by writing the second 
 989:Drivers/src/ch32v20x_i2c.c ****  *             byte of the address in I2C_DATAR register.
 990:Drivers/src/ch32v20x_i2c.c ****  *           - BTF (Byte Transfer Finished) is cleared by software sequence: a read 
 991:Drivers/src/ch32v20x_i2c.c ****  *             operation to I2C_STAR1 register (I2C_GetITStatus()) followed by a 
 992:Drivers/src/ch32v20x_i2c.c ****  *             read/write to I2C_DATAR register (I2C_SendData()).
 993:Drivers/src/ch32v20x_i2c.c ****  *           - ADDR (Address sent) is cleared by software sequence: a read operation to 
 994:Drivers/src/ch32v20x_i2c.c ****  *             I2C_STAR1 register (I2C_GetITStatus()) followed by a read operation to 
 995:Drivers/src/ch32v20x_i2c.c ****  *             I2C_STAR2 register ((void)(I2Cx->SR2)).
 996:Drivers/src/ch32v20x_i2c.c ****  *           - SB (Start Bit) is cleared by software sequence: a read operation to 
 997:Drivers/src/ch32v20x_i2c.c ****  *             I2C_STAR1 register (I2C_GetITStatus()) followed by a write operation to 
 998:Drivers/src/ch32v20x_i2c.c ****  *             I2C_DATAR register (I2C_SendData()).
 999:Drivers/src/ch32v20x_i2c.c ****  *
1000:Drivers/src/ch32v20x_i2c.c ****  * @return  none
1001:Drivers/src/ch32v20x_i2c.c ****  */
1002:Drivers/src/ch32v20x_i2c.c **** void I2C_ClearITPendingBit(I2C_TypeDef *I2Cx, uint32_t I2C_IT)
1003:Drivers/src/ch32v20x_i2c.c **** {
 2033              		.loc 1 1003 1
 2034              		.cfi_startproc
 2035 0000 7971     		addi	sp,sp,-48
 2036              		.cfi_def_cfa_offset 48
 2037 0002 22D6     		sw	s0,44(sp)
 2038              		.cfi_offset 8, -4
 2039 0004 0018     		addi	s0,sp,48
GAS LISTING C:\Users\SOLDER~1\AppData\Local\Temp\ccfBhFEg.s 			page 54


 2040              		.cfi_def_cfa 8, 0
 2041 0006 232EA4FC 		sw	a0,-36(s0)
 2042 000a 232CB4FC 		sw	a1,-40(s0)
1004:Drivers/src/ch32v20x_i2c.c ****     uint32_t flagpos = 0;
 2043              		.loc 1 1004 14
 2044 000e 232604FE 		sw	zero,-20(s0)
1005:Drivers/src/ch32v20x_i2c.c **** 
1006:Drivers/src/ch32v20x_i2c.c ****     flagpos = I2C_IT & FLAG_Mask;
 2045              		.loc 1 1006 13
 2046 0012 032784FD 		lw	a4,-40(s0)
 2047 0016 B7070001 		li	a5,16777216
 2048 001a FD17     		addi	a5,a5,-1
 2049 001c F98F     		and	a5,a4,a5
 2050 001e 2326F4FE 		sw	a5,-20(s0)
1007:Drivers/src/ch32v20x_i2c.c ****     I2Cx->STAR1 = (uint16_t)~flagpos;
 2051              		.loc 1 1007 19
 2052 0022 8327C4FE 		lw	a5,-20(s0)
 2053 0026 C207     		slli	a5,a5,16
 2054 0028 C183     		srli	a5,a5,16
 2055 002a 93C7F7FF 		not	a5,a5
 2056 002e 13970701 		slli	a4,a5,16
 2057 0032 4183     		srli	a4,a4,16
 2058              		.loc 1 1007 17
 2059 0034 8327C4FD 		lw	a5,-36(s0)
 2060 0038 DAAB     		sh	a4,20(a5)
1008:Drivers/src/ch32v20x_i2c.c **** }
 2061              		.loc 1 1008 1
 2062 003a 0100     		nop
 2063 003c 3254     		lw	s0,44(sp)
 2064              		.cfi_restore 8
 2065              		.cfi_def_cfa 2, 48
 2066 003e 4561     		addi	sp,sp,48
 2067              		.cfi_def_cfa_offset 0
 2068 0040 8280     		jr	ra
 2069              		.cfi_endproc
 2070              	.LFE48:
 2072              		.text
 2073              	.Letext0:
 2074              		.file 2 "c:\\dev_tools\\ch32_tools\\risc-v_embedded_gcc12\\riscv-none-elf\\include\\machine\\_defa
 2075              		.file 3 "c:\\dev_tools\\ch32_tools\\risc-v_embedded_gcc12\\riscv-none-elf\\include\\sys\\_stdint.h
 2076              		.file 4 "Drivers/inc/core_riscv.h"
 2077              		.file 5 "Drivers/inc/ch32v20x.h"
 2078              		.file 6 "Drivers/inc/ch32v20x_rcc.h"
 2079              		.file 7 "Drivers/inc/ch32v20x_i2c.h"
GAS LISTING C:\Users\SOLDER~1\AppData\Local\Temp\ccfBhFEg.s 			page 55


DEFINED SYMBOLS
                            *ABS*:0000000000000000 ch32v20x_i2c.c
C:\Users\SOLDER~1\AppData\Local\Temp\ccfBhFEg.s:14     .text.I2C_DeInit:0000000000000000 I2C_DeInit
C:\Users\SOLDER~1\AppData\Local\Temp\ccfBhFEg.s:18     .text.I2C_DeInit:0000000000000000 .L0 
C:\Users\SOLDER~1\AppData\Local\Temp\ccfBhFEg.s:19     .text.I2C_DeInit:0000000000000000 $x
C:\Users\SOLDER~1\AppData\Local\Temp\ccfBhFEg.s:19     .text.I2C_DeInit:0000000000000000 .L0 
C:\Users\SOLDER~1\AppData\Local\Temp\ccfBhFEg.s:20     .text.I2C_DeInit:0000000000000002 .L0 
C:\Users\SOLDER~1\AppData\Local\Temp\ccfBhFEg.s:23     .text.I2C_DeInit:0000000000000006 .L0 
C:\Users\SOLDER~1\AppData\Local\Temp\ccfBhFEg.s:24     .text.I2C_DeInit:0000000000000006 .L0 
C:\Users\SOLDER~1\AppData\Local\Temp\ccfBhFEg.s:26     .text.I2C_DeInit:0000000000000008 .L0 
C:\Users\SOLDER~1\AppData\Local\Temp\ccfBhFEg.s:29     .text.I2C_DeInit:000000000000000c .L0 
C:\Users\SOLDER~1\AppData\Local\Temp\ccfBhFEg.s:34     .text.I2C_DeInit:000000000000001c .L0 
C:\Users\SOLDER~1\AppData\Local\Temp\ccfBhFEg.s:38     .text.I2C_DeInit:000000000000002a .L0 
C:\Users\SOLDER~1\AppData\Local\Temp\ccfBhFEg.s:42     .text.I2C_DeInit:0000000000000038 .L0 
C:\Users\SOLDER~1\AppData\Local\Temp\ccfBhFEg.s:45     .text.I2C_DeInit:000000000000003a .L0 
C:\Users\SOLDER~1\AppData\Local\Temp\ccfBhFEg.s:49     .text.I2C_DeInit:0000000000000048 .L0 
C:\Users\SOLDER~1\AppData\Local\Temp\ccfBhFEg.s:54     .text.I2C_DeInit:0000000000000056 .L0 
C:\Users\SOLDER~1\AppData\Local\Temp\ccfBhFEg.s:56     .text.I2C_DeInit:000000000000005a .L0 
C:\Users\SOLDER~1\AppData\Local\Temp\ccfBhFEg.s:58     .text.I2C_DeInit:000000000000005c .L0 
C:\Users\SOLDER~1\AppData\Local\Temp\ccfBhFEg.s:59     .text.I2C_DeInit:000000000000005c .L0 
C:\Users\SOLDER~1\AppData\Local\Temp\ccfBhFEg.s:61     .text.I2C_DeInit:000000000000005e .L0 
C:\Users\SOLDER~1\AppData\Local\Temp\ccfBhFEg.s:63     .text.I2C_DeInit:0000000000000060 .L0 
C:\Users\SOLDER~1\AppData\Local\Temp\ccfBhFEg.s:70     .text.I2C_Init:0000000000000000 I2C_Init
C:\Users\SOLDER~1\AppData\Local\Temp\ccfBhFEg.s:73     .text.I2C_Init:0000000000000000 .L0 
C:\Users\SOLDER~1\AppData\Local\Temp\ccfBhFEg.s:74     .text.I2C_Init:0000000000000000 $x
C:\Users\SOLDER~1\AppData\Local\Temp\ccfBhFEg.s:74     .text.I2C_Init:0000000000000000 .L0 
C:\Users\SOLDER~1\AppData\Local\Temp\ccfBhFEg.s:75     .text.I2C_Init:0000000000000002 .L0 
C:\Users\SOLDER~1\AppData\Local\Temp\ccfBhFEg.s:78     .text.I2C_Init:0000000000000006 .L0 
C:\Users\SOLDER~1\AppData\Local\Temp\ccfBhFEg.s:79     .text.I2C_Init:0000000000000006 .L0 
C:\Users\SOLDER~1\AppData\Local\Temp\ccfBhFEg.s:81     .text.I2C_Init:0000000000000008 .L0 
C:\Users\SOLDER~1\AppData\Local\Temp\ccfBhFEg.s:85     .text.I2C_Init:0000000000000010 .L0 
C:\Users\SOLDER~1\AppData\Local\Temp\ccfBhFEg.s:87     .text.I2C_Init:0000000000000014 .L0 
C:\Users\SOLDER~1\AppData\Local\Temp\ccfBhFEg.s:89     .text.I2C_Init:0000000000000018 .L0 
C:\Users\SOLDER~1\AppData\Local\Temp\ccfBhFEg.s:92     .text.I2C_Init:000000000000001e .L0 
C:\Users\SOLDER~1\AppData\Local\Temp\ccfBhFEg.s:96     .text.I2C_Init:000000000000002a .L0 
C:\Users\SOLDER~1\AppData\Local\Temp\ccfBhFEg.s:100    .text.I2C_Init:0000000000000034 .L0 
C:\Users\SOLDER~1\AppData\Local\Temp\ccfBhFEg.s:104    .text.I2C_Init:0000000000000040 .L0 
C:\Users\SOLDER~1\AppData\Local\Temp\ccfBhFEg.s:108    .text.I2C_Init:000000000000004e .L0 
C:\Users\SOLDER~1\AppData\Local\Temp\ccfBhFEg.s:111    .text.I2C_Init:0000000000000056 .L0 
C:\Users\SOLDER~1\AppData\Local\Temp\ccfBhFEg.s:116    .text.I2C_Init:0000000000000066 .L0 
C:\Users\SOLDER~1\AppData\Local\Temp\ccfBhFEg.s:118    .text.I2C_Init:000000000000006a .L0 
C:\Users\SOLDER~1\AppData\Local\Temp\ccfBhFEg.s:124    .text.I2C_Init:000000000000007a .L0 
C:\Users\SOLDER~1\AppData\Local\Temp\ccfBhFEg.s:128    .text.I2C_Init:0000000000000084 .L0 
C:\Users\SOLDER~1\AppData\Local\Temp\ccfBhFEg.s:133    .text.I2C_Init:000000000000008e .L0 
C:\Users\SOLDER~1\AppData\Local\Temp\ccfBhFEg.s:139    .text.I2C_Init:000000000000009c .L0 
C:\Users\SOLDER~1\AppData\Local\Temp\ccfBhFEg.s:141    .text.I2C_Init:00000000000000a0 .L0 
C:\Users\SOLDER~1\AppData\Local\Temp\ccfBhFEg.s:144    .text.I2C_Init:00000000000000a6 .L0 
C:\Users\SOLDER~1\AppData\Local\Temp\ccfBhFEg.s:148    .text.I2C_Init:00000000000000b0 .L0 
C:\Users\SOLDER~1\AppData\Local\Temp\ccfBhFEg.s:151    .text.I2C_Init:00000000000000b6 .L0 
C:\Users\SOLDER~1\AppData\Local\Temp\ccfBhFEg.s:153    .text.I2C_Init:00000000000000b8 .L0 
C:\Users\SOLDER~1\AppData\Local\Temp\ccfBhFEg.s:156    .text.I2C_Init:00000000000000c0 .L0 
C:\Users\SOLDER~1\AppData\Local\Temp\ccfBhFEg.s:158    .text.I2C_Init:00000000000000c4 .L0 
C:\Users\SOLDER~1\AppData\Local\Temp\ccfBhFEg.s:162    .text.I2C_Init:00000000000000ce .L0 
C:\Users\SOLDER~1\AppData\Local\Temp\ccfBhFEg.s:166    .text.I2C_Init:00000000000000d4 .L0 
C:\Users\SOLDER~1\AppData\Local\Temp\ccfBhFEg.s:172    .text.I2C_Init:00000000000000e4 .L0 
C:\Users\SOLDER~1\AppData\Local\Temp\ccfBhFEg.s:177    .text.I2C_Init:00000000000000f0 .L0 
C:\Users\SOLDER~1\AppData\Local\Temp\ccfBhFEg.s:182    .text.I2C_Init:00000000000000f8 .L0 
GAS LISTING C:\Users\SOLDER~1\AppData\Local\Temp\ccfBhFEg.s 			page 56


C:\Users\SOLDER~1\AppData\Local\Temp\ccfBhFEg.s:185    .text.I2C_Init:00000000000000fe .L0 
C:\Users\SOLDER~1\AppData\Local\Temp\ccfBhFEg.s:189    .text.I2C_Init:0000000000000106 .L0 
C:\Users\SOLDER~1\AppData\Local\Temp\ccfBhFEg.s:192    .text.I2C_Init:000000000000010c .L0 
C:\Users\SOLDER~1\AppData\Local\Temp\ccfBhFEg.s:196    .text.I2C_Init:0000000000000112 .L0 
C:\Users\SOLDER~1\AppData\Local\Temp\ccfBhFEg.s:199    .text.I2C_Init:000000000000011a .L0 
C:\Users\SOLDER~1\AppData\Local\Temp\ccfBhFEg.s:203    .text.I2C_Init:0000000000000120 .L0 
C:\Users\SOLDER~1\AppData\Local\Temp\ccfBhFEg.s:206    .text.I2C_Init:0000000000000126 .L0 
C:\Users\SOLDER~1\AppData\Local\Temp\ccfBhFEg.s:212    .text.I2C_Init:0000000000000130 .L0 
C:\Users\SOLDER~1\AppData\Local\Temp\ccfBhFEg.s:215    .text.I2C_Init:0000000000000138 .L0 
C:\Users\SOLDER~1\AppData\Local\Temp\ccfBhFEg.s:217    .text.I2C_Init:000000000000013c .L0 
C:\Users\SOLDER~1\AppData\Local\Temp\ccfBhFEg.s:224    .text.I2C_Init:000000000000014a .L0 
C:\Users\SOLDER~1\AppData\Local\Temp\ccfBhFEg.s:229    .text.I2C_Init:0000000000000154 .L0 
C:\Users\SOLDER~1\AppData\Local\Temp\ccfBhFEg.s:231    .text.I2C_Init:0000000000000156 .L0 
C:\Users\SOLDER~1\AppData\Local\Temp\ccfBhFEg.s:236    .text.I2C_Init:0000000000000162 .L0 
C:\Users\SOLDER~1\AppData\Local\Temp\ccfBhFEg.s:246    .text.I2C_Init:000000000000017c .L0 
C:\Users\SOLDER~1\AppData\Local\Temp\ccfBhFEg.s:250    .text.I2C_Init:0000000000000188 .L0 
C:\Users\SOLDER~1\AppData\Local\Temp\ccfBhFEg.s:253    .text.I2C_Init:0000000000000190 .L0 
C:\Users\SOLDER~1\AppData\Local\Temp\ccfBhFEg.s:259    .text.I2C_Init:000000000000019c .L0 
C:\Users\SOLDER~1\AppData\Local\Temp\ccfBhFEg.s:263    .text.I2C_Init:00000000000001a2 .L0 
C:\Users\SOLDER~1\AppData\Local\Temp\ccfBhFEg.s:267    .text.I2C_Init:00000000000001ac .L0 
C:\Users\SOLDER~1\AppData\Local\Temp\ccfBhFEg.s:272    .text.I2C_Init:00000000000001b6 .L0 
C:\Users\SOLDER~1\AppData\Local\Temp\ccfBhFEg.s:278    .text.I2C_Init:00000000000001c6 .L0 
C:\Users\SOLDER~1\AppData\Local\Temp\ccfBhFEg.s:282    .text.I2C_Init:00000000000001d0 .L0 
C:\Users\SOLDER~1\AppData\Local\Temp\ccfBhFEg.s:286    .text.I2C_Init:00000000000001dc .L0 
C:\Users\SOLDER~1\AppData\Local\Temp\ccfBhFEg.s:289    .text.I2C_Init:00000000000001e2 .L0 
C:\Users\SOLDER~1\AppData\Local\Temp\ccfBhFEg.s:292    .text.I2C_Init:00000000000001e8 .L0 
C:\Users\SOLDER~1\AppData\Local\Temp\ccfBhFEg.s:296    .text.I2C_Init:00000000000001ee .L0 
C:\Users\SOLDER~1\AppData\Local\Temp\ccfBhFEg.s:300    .text.I2C_Init:00000000000001f8 .L0 
C:\Users\SOLDER~1\AppData\Local\Temp\ccfBhFEg.s:304    .text.I2C_Init:0000000000000202 .L0 
C:\Users\SOLDER~1\AppData\Local\Temp\ccfBhFEg.s:307    .text.I2C_Init:0000000000000208 .L0 
C:\Users\SOLDER~1\AppData\Local\Temp\ccfBhFEg.s:310    .text.I2C_Init:000000000000020e .L0 
C:\Users\SOLDER~1\AppData\Local\Temp\ccfBhFEg.s:316    .text.I2C_Init:000000000000021c .L0 
C:\Users\SOLDER~1\AppData\Local\Temp\ccfBhFEg.s:318    .text.I2C_Init:0000000000000220 .L0 
C:\Users\SOLDER~1\AppData\Local\Temp\ccfBhFEg.s:320    .text.I2C_Init:0000000000000222 .L0 
C:\Users\SOLDER~1\AppData\Local\Temp\ccfBhFEg.s:321    .text.I2C_Init:0000000000000222 .L0 
C:\Users\SOLDER~1\AppData\Local\Temp\ccfBhFEg.s:323    .text.I2C_Init:0000000000000224 .L0 
C:\Users\SOLDER~1\AppData\Local\Temp\ccfBhFEg.s:325    .text.I2C_Init:0000000000000226 .L0 
C:\Users\SOLDER~1\AppData\Local\Temp\ccfBhFEg.s:332    .text.I2C_StructInit:0000000000000000 I2C_StructInit
C:\Users\SOLDER~1\AppData\Local\Temp\ccfBhFEg.s:335    .text.I2C_StructInit:0000000000000000 .L0 
C:\Users\SOLDER~1\AppData\Local\Temp\ccfBhFEg.s:336    .text.I2C_StructInit:0000000000000000 $x
C:\Users\SOLDER~1\AppData\Local\Temp\ccfBhFEg.s:336    .text.I2C_StructInit:0000000000000000 .L0 
C:\Users\SOLDER~1\AppData\Local\Temp\ccfBhFEg.s:337    .text.I2C_StructInit:0000000000000002 .L0 
C:\Users\SOLDER~1\AppData\Local\Temp\ccfBhFEg.s:339    .text.I2C_StructInit:0000000000000004 .L0 
C:\Users\SOLDER~1\AppData\Local\Temp\ccfBhFEg.s:341    .text.I2C_StructInit:0000000000000006 .L0 
C:\Users\SOLDER~1\AppData\Local\Temp\ccfBhFEg.s:344    .text.I2C_StructInit:000000000000000a .L0 
C:\Users\SOLDER~1\AppData\Local\Temp\ccfBhFEg.s:349    .text.I2C_StructInit:0000000000000016 .L0 
C:\Users\SOLDER~1\AppData\Local\Temp\ccfBhFEg.s:352    .text.I2C_StructInit:000000000000001e .L0 
C:\Users\SOLDER~1\AppData\Local\Temp\ccfBhFEg.s:357    .text.I2C_StructInit:0000000000000028 .L0 
C:\Users\SOLDER~1\AppData\Local\Temp\ccfBhFEg.s:360    .text.I2C_StructInit:0000000000000030 .L0 
C:\Users\SOLDER~1\AppData\Local\Temp\ccfBhFEg.s:363    .text.I2C_StructInit:0000000000000038 .L0 
C:\Users\SOLDER~1\AppData\Local\Temp\ccfBhFEg.s:367    .text.I2C_StructInit:0000000000000040 .L0 
C:\Users\SOLDER~1\AppData\Local\Temp\ccfBhFEg.s:369    .text.I2C_StructInit:0000000000000044 .L0 
C:\Users\SOLDER~1\AppData\Local\Temp\ccfBhFEg.s:370    .text.I2C_StructInit:0000000000000044 .L0 
C:\Users\SOLDER~1\AppData\Local\Temp\ccfBhFEg.s:372    .text.I2C_StructInit:0000000000000046 .L0 
C:\Users\SOLDER~1\AppData\Local\Temp\ccfBhFEg.s:374    .text.I2C_StructInit:0000000000000048 .L0 
C:\Users\SOLDER~1\AppData\Local\Temp\ccfBhFEg.s:381    .text.I2C_Cmd:0000000000000000 I2C_Cmd
C:\Users\SOLDER~1\AppData\Local\Temp\ccfBhFEg.s:384    .text.I2C_Cmd:0000000000000000 .L0 
GAS LISTING C:\Users\SOLDER~1\AppData\Local\Temp\ccfBhFEg.s 			page 57


C:\Users\SOLDER~1\AppData\Local\Temp\ccfBhFEg.s:385    .text.I2C_Cmd:0000000000000000 $x
C:\Users\SOLDER~1\AppData\Local\Temp\ccfBhFEg.s:385    .text.I2C_Cmd:0000000000000000 .L0 
C:\Users\SOLDER~1\AppData\Local\Temp\ccfBhFEg.s:386    .text.I2C_Cmd:0000000000000002 .L0 
C:\Users\SOLDER~1\AppData\Local\Temp\ccfBhFEg.s:388    .text.I2C_Cmd:0000000000000004 .L0 
C:\Users\SOLDER~1\AppData\Local\Temp\ccfBhFEg.s:390    .text.I2C_Cmd:0000000000000006 .L0 
C:\Users\SOLDER~1\AppData\Local\Temp\ccfBhFEg.s:394    .text.I2C_Cmd:000000000000000e .L0 
C:\Users\SOLDER~1\AppData\Local\Temp\ccfBhFEg.s:397    .text.I2C_Cmd:0000000000000014 .L0 
C:\Users\SOLDER~1\AppData\Local\Temp\ccfBhFEg.s:402    .text.I2C_Cmd:000000000000001e .L0 
C:\Users\SOLDER~1\AppData\Local\Temp\ccfBhFEg.s:408    .text.I2C_Cmd:000000000000002e .L0 
C:\Users\SOLDER~1\AppData\Local\Temp\ccfBhFEg.s:411    .text.I2C_Cmd:0000000000000030 .L0 
C:\Users\SOLDER~1\AppData\Local\Temp\ccfBhFEg.s:416    .text.I2C_Cmd:000000000000003a .L0 
C:\Users\SOLDER~1\AppData\Local\Temp\ccfBhFEg.s:423    .text.I2C_Cmd:0000000000000048 .L0 
C:\Users\SOLDER~1\AppData\Local\Temp\ccfBhFEg.s:425    .text.I2C_Cmd:000000000000004c .L0 
C:\Users\SOLDER~1\AppData\Local\Temp\ccfBhFEg.s:426    .text.I2C_Cmd:000000000000004c .L0 
C:\Users\SOLDER~1\AppData\Local\Temp\ccfBhFEg.s:428    .text.I2C_Cmd:000000000000004e .L0 
C:\Users\SOLDER~1\AppData\Local\Temp\ccfBhFEg.s:430    .text.I2C_Cmd:0000000000000050 .L0 
C:\Users\SOLDER~1\AppData\Local\Temp\ccfBhFEg.s:437    .text.I2C_DMACmd:0000000000000000 I2C_DMACmd
C:\Users\SOLDER~1\AppData\Local\Temp\ccfBhFEg.s:440    .text.I2C_DMACmd:0000000000000000 .L0 
C:\Users\SOLDER~1\AppData\Local\Temp\ccfBhFEg.s:441    .text.I2C_DMACmd:0000000000000000 $x
C:\Users\SOLDER~1\AppData\Local\Temp\ccfBhFEg.s:441    .text.I2C_DMACmd:0000000000000000 .L0 
C:\Users\SOLDER~1\AppData\Local\Temp\ccfBhFEg.s:442    .text.I2C_DMACmd:0000000000000002 .L0 
C:\Users\SOLDER~1\AppData\Local\Temp\ccfBhFEg.s:444    .text.I2C_DMACmd:0000000000000004 .L0 
C:\Users\SOLDER~1\AppData\Local\Temp\ccfBhFEg.s:446    .text.I2C_DMACmd:0000000000000006 .L0 
C:\Users\SOLDER~1\AppData\Local\Temp\ccfBhFEg.s:450    .text.I2C_DMACmd:000000000000000e .L0 
C:\Users\SOLDER~1\AppData\Local\Temp\ccfBhFEg.s:453    .text.I2C_DMACmd:0000000000000014 .L0 
C:\Users\SOLDER~1\AppData\Local\Temp\ccfBhFEg.s:458    .text.I2C_DMACmd:0000000000000020 .L0 
C:\Users\SOLDER~1\AppData\Local\Temp\ccfBhFEg.s:466    .text.I2C_DMACmd:0000000000000034 .L0 
C:\Users\SOLDER~1\AppData\Local\Temp\ccfBhFEg.s:469    .text.I2C_DMACmd:0000000000000036 .L0 
C:\Users\SOLDER~1\AppData\Local\Temp\ccfBhFEg.s:474    .text.I2C_DMACmd:0000000000000042 .L0 
C:\Users\SOLDER~1\AppData\Local\Temp\ccfBhFEg.s:483    .text.I2C_DMACmd:0000000000000056 .L0 
C:\Users\SOLDER~1\AppData\Local\Temp\ccfBhFEg.s:485    .text.I2C_DMACmd:000000000000005a .L0 
C:\Users\SOLDER~1\AppData\Local\Temp\ccfBhFEg.s:486    .text.I2C_DMACmd:000000000000005a .L0 
C:\Users\SOLDER~1\AppData\Local\Temp\ccfBhFEg.s:488    .text.I2C_DMACmd:000000000000005c .L0 
C:\Users\SOLDER~1\AppData\Local\Temp\ccfBhFEg.s:490    .text.I2C_DMACmd:000000000000005e .L0 
C:\Users\SOLDER~1\AppData\Local\Temp\ccfBhFEg.s:497    .text.I2C_DMALastTransferCmd:0000000000000000 I2C_DMALastTransferCmd
C:\Users\SOLDER~1\AppData\Local\Temp\ccfBhFEg.s:500    .text.I2C_DMALastTransferCmd:0000000000000000 .L0 
C:\Users\SOLDER~1\AppData\Local\Temp\ccfBhFEg.s:501    .text.I2C_DMALastTransferCmd:0000000000000000 $x
C:\Users\SOLDER~1\AppData\Local\Temp\ccfBhFEg.s:501    .text.I2C_DMALastTransferCmd:0000000000000000 .L0 
C:\Users\SOLDER~1\AppData\Local\Temp\ccfBhFEg.s:502    .text.I2C_DMALastTransferCmd:0000000000000002 .L0 
C:\Users\SOLDER~1\AppData\Local\Temp\ccfBhFEg.s:504    .text.I2C_DMALastTransferCmd:0000000000000004 .L0 
C:\Users\SOLDER~1\AppData\Local\Temp\ccfBhFEg.s:506    .text.I2C_DMALastTransferCmd:0000000000000006 .L0 
C:\Users\SOLDER~1\AppData\Local\Temp\ccfBhFEg.s:510    .text.I2C_DMALastTransferCmd:000000000000000e .L0 
C:\Users\SOLDER~1\AppData\Local\Temp\ccfBhFEg.s:513    .text.I2C_DMALastTransferCmd:0000000000000014 .L0 
C:\Users\SOLDER~1\AppData\Local\Temp\ccfBhFEg.s:518    .text.I2C_DMALastTransferCmd:0000000000000020 .L0 
C:\Users\SOLDER~1\AppData\Local\Temp\ccfBhFEg.s:525    .text.I2C_DMALastTransferCmd:0000000000000030 .L0 
C:\Users\SOLDER~1\AppData\Local\Temp\ccfBhFEg.s:528    .text.I2C_DMALastTransferCmd:0000000000000032 .L0 
C:\Users\SOLDER~1\AppData\Local\Temp\ccfBhFEg.s:533    .text.I2C_DMALastTransferCmd:000000000000003e .L0 
C:\Users\SOLDER~1\AppData\Local\Temp\ccfBhFEg.s:542    .text.I2C_DMALastTransferCmd:0000000000000050 .L0 
C:\Users\SOLDER~1\AppData\Local\Temp\ccfBhFEg.s:544    .text.I2C_DMALastTransferCmd:0000000000000054 .L0 
C:\Users\SOLDER~1\AppData\Local\Temp\ccfBhFEg.s:545    .text.I2C_DMALastTransferCmd:0000000000000054 .L0 
C:\Users\SOLDER~1\AppData\Local\Temp\ccfBhFEg.s:547    .text.I2C_DMALastTransferCmd:0000000000000056 .L0 
C:\Users\SOLDER~1\AppData\Local\Temp\ccfBhFEg.s:549    .text.I2C_DMALastTransferCmd:0000000000000058 .L0 
C:\Users\SOLDER~1\AppData\Local\Temp\ccfBhFEg.s:556    .text.I2C_GenerateSTART:0000000000000000 I2C_GenerateSTART
C:\Users\SOLDER~1\AppData\Local\Temp\ccfBhFEg.s:559    .text.I2C_GenerateSTART:0000000000000000 .L0 
C:\Users\SOLDER~1\AppData\Local\Temp\ccfBhFEg.s:560    .text.I2C_GenerateSTART:0000000000000000 $x
C:\Users\SOLDER~1\AppData\Local\Temp\ccfBhFEg.s:560    .text.I2C_GenerateSTART:0000000000000000 .L0 
C:\Users\SOLDER~1\AppData\Local\Temp\ccfBhFEg.s:561    .text.I2C_GenerateSTART:0000000000000002 .L0 
GAS LISTING C:\Users\SOLDER~1\AppData\Local\Temp\ccfBhFEg.s 			page 58


C:\Users\SOLDER~1\AppData\Local\Temp\ccfBhFEg.s:563    .text.I2C_GenerateSTART:0000000000000004 .L0 
C:\Users\SOLDER~1\AppData\Local\Temp\ccfBhFEg.s:565    .text.I2C_GenerateSTART:0000000000000006 .L0 
C:\Users\SOLDER~1\AppData\Local\Temp\ccfBhFEg.s:569    .text.I2C_GenerateSTART:000000000000000e .L0 
C:\Users\SOLDER~1\AppData\Local\Temp\ccfBhFEg.s:572    .text.I2C_GenerateSTART:0000000000000014 .L0 
C:\Users\SOLDER~1\AppData\Local\Temp\ccfBhFEg.s:577    .text.I2C_GenerateSTART:000000000000001e .L0 
C:\Users\SOLDER~1\AppData\Local\Temp\ccfBhFEg.s:583    .text.I2C_GenerateSTART:000000000000002e .L0 
C:\Users\SOLDER~1\AppData\Local\Temp\ccfBhFEg.s:586    .text.I2C_GenerateSTART:0000000000000030 .L0 
C:\Users\SOLDER~1\AppData\Local\Temp\ccfBhFEg.s:591    .text.I2C_GenerateSTART:000000000000003a .L0 
C:\Users\SOLDER~1\AppData\Local\Temp\ccfBhFEg.s:598    .text.I2C_GenerateSTART:000000000000004a .L0 
C:\Users\SOLDER~1\AppData\Local\Temp\ccfBhFEg.s:600    .text.I2C_GenerateSTART:000000000000004e .L0 
C:\Users\SOLDER~1\AppData\Local\Temp\ccfBhFEg.s:601    .text.I2C_GenerateSTART:000000000000004e .L0 
C:\Users\SOLDER~1\AppData\Local\Temp\ccfBhFEg.s:603    .text.I2C_GenerateSTART:0000000000000050 .L0 
C:\Users\SOLDER~1\AppData\Local\Temp\ccfBhFEg.s:605    .text.I2C_GenerateSTART:0000000000000052 .L0 
C:\Users\SOLDER~1\AppData\Local\Temp\ccfBhFEg.s:612    .text.I2C_GenerateSTOP:0000000000000000 I2C_GenerateSTOP
C:\Users\SOLDER~1\AppData\Local\Temp\ccfBhFEg.s:615    .text.I2C_GenerateSTOP:0000000000000000 .L0 
C:\Users\SOLDER~1\AppData\Local\Temp\ccfBhFEg.s:616    .text.I2C_GenerateSTOP:0000000000000000 $x
C:\Users\SOLDER~1\AppData\Local\Temp\ccfBhFEg.s:616    .text.I2C_GenerateSTOP:0000000000000000 .L0 
C:\Users\SOLDER~1\AppData\Local\Temp\ccfBhFEg.s:617    .text.I2C_GenerateSTOP:0000000000000002 .L0 
C:\Users\SOLDER~1\AppData\Local\Temp\ccfBhFEg.s:619    .text.I2C_GenerateSTOP:0000000000000004 .L0 
C:\Users\SOLDER~1\AppData\Local\Temp\ccfBhFEg.s:621    .text.I2C_GenerateSTOP:0000000000000006 .L0 
C:\Users\SOLDER~1\AppData\Local\Temp\ccfBhFEg.s:625    .text.I2C_GenerateSTOP:000000000000000e .L0 
C:\Users\SOLDER~1\AppData\Local\Temp\ccfBhFEg.s:628    .text.I2C_GenerateSTOP:0000000000000014 .L0 
C:\Users\SOLDER~1\AppData\Local\Temp\ccfBhFEg.s:633    .text.I2C_GenerateSTOP:000000000000001e .L0 
C:\Users\SOLDER~1\AppData\Local\Temp\ccfBhFEg.s:639    .text.I2C_GenerateSTOP:000000000000002e .L0 
C:\Users\SOLDER~1\AppData\Local\Temp\ccfBhFEg.s:642    .text.I2C_GenerateSTOP:0000000000000030 .L0 
C:\Users\SOLDER~1\AppData\Local\Temp\ccfBhFEg.s:647    .text.I2C_GenerateSTOP:000000000000003a .L0 
C:\Users\SOLDER~1\AppData\Local\Temp\ccfBhFEg.s:654    .text.I2C_GenerateSTOP:000000000000004a .L0 
C:\Users\SOLDER~1\AppData\Local\Temp\ccfBhFEg.s:656    .text.I2C_GenerateSTOP:000000000000004e .L0 
C:\Users\SOLDER~1\AppData\Local\Temp\ccfBhFEg.s:657    .text.I2C_GenerateSTOP:000000000000004e .L0 
C:\Users\SOLDER~1\AppData\Local\Temp\ccfBhFEg.s:659    .text.I2C_GenerateSTOP:0000000000000050 .L0 
C:\Users\SOLDER~1\AppData\Local\Temp\ccfBhFEg.s:661    .text.I2C_GenerateSTOP:0000000000000052 .L0 
C:\Users\SOLDER~1\AppData\Local\Temp\ccfBhFEg.s:668    .text.I2C_AcknowledgeConfig:0000000000000000 I2C_AcknowledgeConfig
C:\Users\SOLDER~1\AppData\Local\Temp\ccfBhFEg.s:671    .text.I2C_AcknowledgeConfig:0000000000000000 .L0 
C:\Users\SOLDER~1\AppData\Local\Temp\ccfBhFEg.s:672    .text.I2C_AcknowledgeConfig:0000000000000000 $x
C:\Users\SOLDER~1\AppData\Local\Temp\ccfBhFEg.s:672    .text.I2C_AcknowledgeConfig:0000000000000000 .L0 
C:\Users\SOLDER~1\AppData\Local\Temp\ccfBhFEg.s:673    .text.I2C_AcknowledgeConfig:0000000000000002 .L0 
C:\Users\SOLDER~1\AppData\Local\Temp\ccfBhFEg.s:675    .text.I2C_AcknowledgeConfig:0000000000000004 .L0 
C:\Users\SOLDER~1\AppData\Local\Temp\ccfBhFEg.s:677    .text.I2C_AcknowledgeConfig:0000000000000006 .L0 
C:\Users\SOLDER~1\AppData\Local\Temp\ccfBhFEg.s:681    .text.I2C_AcknowledgeConfig:000000000000000e .L0 
C:\Users\SOLDER~1\AppData\Local\Temp\ccfBhFEg.s:684    .text.I2C_AcknowledgeConfig:0000000000000014 .L0 
C:\Users\SOLDER~1\AppData\Local\Temp\ccfBhFEg.s:689    .text.I2C_AcknowledgeConfig:000000000000001e .L0 
C:\Users\SOLDER~1\AppData\Local\Temp\ccfBhFEg.s:695    .text.I2C_AcknowledgeConfig:000000000000002e .L0 
C:\Users\SOLDER~1\AppData\Local\Temp\ccfBhFEg.s:698    .text.I2C_AcknowledgeConfig:0000000000000030 .L0 
C:\Users\SOLDER~1\AppData\Local\Temp\ccfBhFEg.s:703    .text.I2C_AcknowledgeConfig:000000000000003a .L0 
C:\Users\SOLDER~1\AppData\Local\Temp\ccfBhFEg.s:710    .text.I2C_AcknowledgeConfig:000000000000004a .L0 
C:\Users\SOLDER~1\AppData\Local\Temp\ccfBhFEg.s:712    .text.I2C_AcknowledgeConfig:000000000000004e .L0 
C:\Users\SOLDER~1\AppData\Local\Temp\ccfBhFEg.s:713    .text.I2C_AcknowledgeConfig:000000000000004e .L0 
C:\Users\SOLDER~1\AppData\Local\Temp\ccfBhFEg.s:715    .text.I2C_AcknowledgeConfig:0000000000000050 .L0 
C:\Users\SOLDER~1\AppData\Local\Temp\ccfBhFEg.s:717    .text.I2C_AcknowledgeConfig:0000000000000052 .L0 
C:\Users\SOLDER~1\AppData\Local\Temp\ccfBhFEg.s:724    .text.I2C_OwnAddress2Config:0000000000000000 I2C_OwnAddress2Config
C:\Users\SOLDER~1\AppData\Local\Temp\ccfBhFEg.s:727    .text.I2C_OwnAddress2Config:0000000000000000 .L0 
C:\Users\SOLDER~1\AppData\Local\Temp\ccfBhFEg.s:728    .text.I2C_OwnAddress2Config:0000000000000000 $x
C:\Users\SOLDER~1\AppData\Local\Temp\ccfBhFEg.s:728    .text.I2C_OwnAddress2Config:0000000000000000 .L0 
C:\Users\SOLDER~1\AppData\Local\Temp\ccfBhFEg.s:729    .text.I2C_OwnAddress2Config:0000000000000002 .L0 
C:\Users\SOLDER~1\AppData\Local\Temp\ccfBhFEg.s:731    .text.I2C_OwnAddress2Config:0000000000000004 .L0 
C:\Users\SOLDER~1\AppData\Local\Temp\ccfBhFEg.s:733    .text.I2C_OwnAddress2Config:0000000000000006 .L0 
C:\Users\SOLDER~1\AppData\Local\Temp\ccfBhFEg.s:738    .text.I2C_OwnAddress2Config:0000000000000010 .L0 
GAS LISTING C:\Users\SOLDER~1\AppData\Local\Temp\ccfBhFEg.s 			page 59


C:\Users\SOLDER~1\AppData\Local\Temp\ccfBhFEg.s:740    .text.I2C_OwnAddress2Config:0000000000000014 .L0 
C:\Users\SOLDER~1\AppData\Local\Temp\ccfBhFEg.s:744    .text.I2C_OwnAddress2Config:000000000000001e .L0 
C:\Users\SOLDER~1\AppData\Local\Temp\ccfBhFEg.s:748    .text.I2C_OwnAddress2Config:000000000000002a .L0 
C:\Users\SOLDER~1\AppData\Local\Temp\ccfBhFEg.s:755    .text.I2C_OwnAddress2Config:000000000000003c .L0 
C:\Users\SOLDER~1\AppData\Local\Temp\ccfBhFEg.s:761    .text.I2C_OwnAddress2Config:000000000000004a .L0 
C:\Users\SOLDER~1\AppData\Local\Temp\ccfBhFEg.s:765    .text.I2C_OwnAddress2Config:0000000000000054 .L0 
C:\Users\SOLDER~1\AppData\Local\Temp\ccfBhFEg.s:767    .text.I2C_OwnAddress2Config:0000000000000058 .L0 
C:\Users\SOLDER~1\AppData\Local\Temp\ccfBhFEg.s:768    .text.I2C_OwnAddress2Config:0000000000000058 .L0 
C:\Users\SOLDER~1\AppData\Local\Temp\ccfBhFEg.s:770    .text.I2C_OwnAddress2Config:000000000000005a .L0 
C:\Users\SOLDER~1\AppData\Local\Temp\ccfBhFEg.s:772    .text.I2C_OwnAddress2Config:000000000000005c .L0 
C:\Users\SOLDER~1\AppData\Local\Temp\ccfBhFEg.s:779    .text.I2C_DualAddressCmd:0000000000000000 I2C_DualAddressCmd
C:\Users\SOLDER~1\AppData\Local\Temp\ccfBhFEg.s:782    .text.I2C_DualAddressCmd:0000000000000000 .L0 
C:\Users\SOLDER~1\AppData\Local\Temp\ccfBhFEg.s:783    .text.I2C_DualAddressCmd:0000000000000000 $x
C:\Users\SOLDER~1\AppData\Local\Temp\ccfBhFEg.s:783    .text.I2C_DualAddressCmd:0000000000000000 .L0 
C:\Users\SOLDER~1\AppData\Local\Temp\ccfBhFEg.s:784    .text.I2C_DualAddressCmd:0000000000000002 .L0 
C:\Users\SOLDER~1\AppData\Local\Temp\ccfBhFEg.s:786    .text.I2C_DualAddressCmd:0000000000000004 .L0 
C:\Users\SOLDER~1\AppData\Local\Temp\ccfBhFEg.s:788    .text.I2C_DualAddressCmd:0000000000000006 .L0 
C:\Users\SOLDER~1\AppData\Local\Temp\ccfBhFEg.s:792    .text.I2C_DualAddressCmd:000000000000000e .L0 
C:\Users\SOLDER~1\AppData\Local\Temp\ccfBhFEg.s:795    .text.I2C_DualAddressCmd:0000000000000014 .L0 
C:\Users\SOLDER~1\AppData\Local\Temp\ccfBhFEg.s:800    .text.I2C_DualAddressCmd:000000000000001e .L0 
C:\Users\SOLDER~1\AppData\Local\Temp\ccfBhFEg.s:806    .text.I2C_DualAddressCmd:000000000000002e .L0 
C:\Users\SOLDER~1\AppData\Local\Temp\ccfBhFEg.s:809    .text.I2C_DualAddressCmd:0000000000000030 .L0 
C:\Users\SOLDER~1\AppData\Local\Temp\ccfBhFEg.s:814    .text.I2C_DualAddressCmd:000000000000003a .L0 
C:\Users\SOLDER~1\AppData\Local\Temp\ccfBhFEg.s:821    .text.I2C_DualAddressCmd:0000000000000048 .L0 
C:\Users\SOLDER~1\AppData\Local\Temp\ccfBhFEg.s:823    .text.I2C_DualAddressCmd:000000000000004c .L0 
C:\Users\SOLDER~1\AppData\Local\Temp\ccfBhFEg.s:824    .text.I2C_DualAddressCmd:000000000000004c .L0 
C:\Users\SOLDER~1\AppData\Local\Temp\ccfBhFEg.s:826    .text.I2C_DualAddressCmd:000000000000004e .L0 
C:\Users\SOLDER~1\AppData\Local\Temp\ccfBhFEg.s:828    .text.I2C_DualAddressCmd:0000000000000050 .L0 
C:\Users\SOLDER~1\AppData\Local\Temp\ccfBhFEg.s:835    .text.I2C_GeneralCallCmd:0000000000000000 I2C_GeneralCallCmd
C:\Users\SOLDER~1\AppData\Local\Temp\ccfBhFEg.s:838    .text.I2C_GeneralCallCmd:0000000000000000 .L0 
C:\Users\SOLDER~1\AppData\Local\Temp\ccfBhFEg.s:839    .text.I2C_GeneralCallCmd:0000000000000000 $x
C:\Users\SOLDER~1\AppData\Local\Temp\ccfBhFEg.s:839    .text.I2C_GeneralCallCmd:0000000000000000 .L0 
C:\Users\SOLDER~1\AppData\Local\Temp\ccfBhFEg.s:840    .text.I2C_GeneralCallCmd:0000000000000002 .L0 
C:\Users\SOLDER~1\AppData\Local\Temp\ccfBhFEg.s:842    .text.I2C_GeneralCallCmd:0000000000000004 .L0 
C:\Users\SOLDER~1\AppData\Local\Temp\ccfBhFEg.s:844    .text.I2C_GeneralCallCmd:0000000000000006 .L0 
C:\Users\SOLDER~1\AppData\Local\Temp\ccfBhFEg.s:848    .text.I2C_GeneralCallCmd:000000000000000e .L0 
C:\Users\SOLDER~1\AppData\Local\Temp\ccfBhFEg.s:851    .text.I2C_GeneralCallCmd:0000000000000014 .L0 
C:\Users\SOLDER~1\AppData\Local\Temp\ccfBhFEg.s:856    .text.I2C_GeneralCallCmd:000000000000001e .L0 
C:\Users\SOLDER~1\AppData\Local\Temp\ccfBhFEg.s:862    .text.I2C_GeneralCallCmd:000000000000002e .L0 
C:\Users\SOLDER~1\AppData\Local\Temp\ccfBhFEg.s:865    .text.I2C_GeneralCallCmd:0000000000000030 .L0 
C:\Users\SOLDER~1\AppData\Local\Temp\ccfBhFEg.s:870    .text.I2C_GeneralCallCmd:000000000000003a .L0 
C:\Users\SOLDER~1\AppData\Local\Temp\ccfBhFEg.s:877    .text.I2C_GeneralCallCmd:000000000000004a .L0 
C:\Users\SOLDER~1\AppData\Local\Temp\ccfBhFEg.s:879    .text.I2C_GeneralCallCmd:000000000000004e .L0 
C:\Users\SOLDER~1\AppData\Local\Temp\ccfBhFEg.s:880    .text.I2C_GeneralCallCmd:000000000000004e .L0 
C:\Users\SOLDER~1\AppData\Local\Temp\ccfBhFEg.s:882    .text.I2C_GeneralCallCmd:0000000000000050 .L0 
C:\Users\SOLDER~1\AppData\Local\Temp\ccfBhFEg.s:884    .text.I2C_GeneralCallCmd:0000000000000052 .L0 
C:\Users\SOLDER~1\AppData\Local\Temp\ccfBhFEg.s:891    .text.I2C_ITConfig:0000000000000000 I2C_ITConfig
C:\Users\SOLDER~1\AppData\Local\Temp\ccfBhFEg.s:894    .text.I2C_ITConfig:0000000000000000 .L0 
C:\Users\SOLDER~1\AppData\Local\Temp\ccfBhFEg.s:895    .text.I2C_ITConfig:0000000000000000 $x
C:\Users\SOLDER~1\AppData\Local\Temp\ccfBhFEg.s:895    .text.I2C_ITConfig:0000000000000000 .L0 
C:\Users\SOLDER~1\AppData\Local\Temp\ccfBhFEg.s:896    .text.I2C_ITConfig:0000000000000002 .L0 
C:\Users\SOLDER~1\AppData\Local\Temp\ccfBhFEg.s:898    .text.I2C_ITConfig:0000000000000004 .L0 
C:\Users\SOLDER~1\AppData\Local\Temp\ccfBhFEg.s:900    .text.I2C_ITConfig:0000000000000006 .L0 
C:\Users\SOLDER~1\AppData\Local\Temp\ccfBhFEg.s:906    .text.I2C_ITConfig:0000000000000014 .L0 
C:\Users\SOLDER~1\AppData\Local\Temp\ccfBhFEg.s:909    .text.I2C_ITConfig:000000000000001a .L0 
C:\Users\SOLDER~1\AppData\Local\Temp\ccfBhFEg.s:914    .text.I2C_ITConfig:0000000000000024 .L0 
C:\Users\SOLDER~1\AppData\Local\Temp\ccfBhFEg.s:921    .text.I2C_ITConfig:0000000000000036 .L0 
GAS LISTING C:\Users\SOLDER~1\AppData\Local\Temp\ccfBhFEg.s 			page 60


C:\Users\SOLDER~1\AppData\Local\Temp\ccfBhFEg.s:924    .text.I2C_ITConfig:0000000000000038 .L0 
C:\Users\SOLDER~1\AppData\Local\Temp\ccfBhFEg.s:929    .text.I2C_ITConfig:0000000000000044 .L0 
C:\Users\SOLDER~1\AppData\Local\Temp\ccfBhFEg.s:934    .text.I2C_ITConfig:0000000000000050 .L0 
C:\Users\SOLDER~1\AppData\Local\Temp\ccfBhFEg.s:941    .text.I2C_ITConfig:000000000000005e .L0 
C:\Users\SOLDER~1\AppData\Local\Temp\ccfBhFEg.s:943    .text.I2C_ITConfig:0000000000000062 .L0 
C:\Users\SOLDER~1\AppData\Local\Temp\ccfBhFEg.s:944    .text.I2C_ITConfig:0000000000000062 .L0 
C:\Users\SOLDER~1\AppData\Local\Temp\ccfBhFEg.s:946    .text.I2C_ITConfig:0000000000000064 .L0 
C:\Users\SOLDER~1\AppData\Local\Temp\ccfBhFEg.s:948    .text.I2C_ITConfig:0000000000000066 .L0 
C:\Users\SOLDER~1\AppData\Local\Temp\ccfBhFEg.s:955    .text.I2C_SendData:0000000000000000 I2C_SendData
C:\Users\SOLDER~1\AppData\Local\Temp\ccfBhFEg.s:958    .text.I2C_SendData:0000000000000000 .L0 
C:\Users\SOLDER~1\AppData\Local\Temp\ccfBhFEg.s:959    .text.I2C_SendData:0000000000000000 $x
C:\Users\SOLDER~1\AppData\Local\Temp\ccfBhFEg.s:959    .text.I2C_SendData:0000000000000000 .L0 
C:\Users\SOLDER~1\AppData\Local\Temp\ccfBhFEg.s:960    .text.I2C_SendData:0000000000000002 .L0 
C:\Users\SOLDER~1\AppData\Local\Temp\ccfBhFEg.s:962    .text.I2C_SendData:0000000000000004 .L0 
C:\Users\SOLDER~1\AppData\Local\Temp\ccfBhFEg.s:964    .text.I2C_SendData:0000000000000006 .L0 
C:\Users\SOLDER~1\AppData\Local\Temp\ccfBhFEg.s:969    .text.I2C_SendData:0000000000000010 .L0 
C:\Users\SOLDER~1\AppData\Local\Temp\ccfBhFEg.s:975    .text.I2C_SendData:0000000000000020 .L0 
C:\Users\SOLDER~1\AppData\Local\Temp\ccfBhFEg.s:977    .text.I2C_SendData:0000000000000024 .L0 
C:\Users\SOLDER~1\AppData\Local\Temp\ccfBhFEg.s:978    .text.I2C_SendData:0000000000000024 .L0 
C:\Users\SOLDER~1\AppData\Local\Temp\ccfBhFEg.s:980    .text.I2C_SendData:0000000000000026 .L0 
C:\Users\SOLDER~1\AppData\Local\Temp\ccfBhFEg.s:982    .text.I2C_SendData:0000000000000028 .L0 
C:\Users\SOLDER~1\AppData\Local\Temp\ccfBhFEg.s:989    .text.I2C_ReceiveData:0000000000000000 I2C_ReceiveData
C:\Users\SOLDER~1\AppData\Local\Temp\ccfBhFEg.s:992    .text.I2C_ReceiveData:0000000000000000 .L0 
C:\Users\SOLDER~1\AppData\Local\Temp\ccfBhFEg.s:993    .text.I2C_ReceiveData:0000000000000000 $x
C:\Users\SOLDER~1\AppData\Local\Temp\ccfBhFEg.s:993    .text.I2C_ReceiveData:0000000000000000 .L0 
C:\Users\SOLDER~1\AppData\Local\Temp\ccfBhFEg.s:994    .text.I2C_ReceiveData:0000000000000002 .L0 
C:\Users\SOLDER~1\AppData\Local\Temp\ccfBhFEg.s:996    .text.I2C_ReceiveData:0000000000000004 .L0 
C:\Users\SOLDER~1\AppData\Local\Temp\ccfBhFEg.s:998    .text.I2C_ReceiveData:0000000000000006 .L0 
C:\Users\SOLDER~1\AppData\Local\Temp\ccfBhFEg.s:1001   .text.I2C_ReceiveData:000000000000000a .L0 
C:\Users\SOLDER~1\AppData\Local\Temp\ccfBhFEg.s:1006   .text.I2C_ReceiveData:0000000000000014 .L0 
C:\Users\SOLDER~1\AppData\Local\Temp\ccfBhFEg.s:1008   .text.I2C_ReceiveData:0000000000000018 .L0 
C:\Users\SOLDER~1\AppData\Local\Temp\ccfBhFEg.s:1010   .text.I2C_ReceiveData:000000000000001c .L0 
C:\Users\SOLDER~1\AppData\Local\Temp\ccfBhFEg.s:1011   .text.I2C_ReceiveData:000000000000001c .L0 
C:\Users\SOLDER~1\AppData\Local\Temp\ccfBhFEg.s:1013   .text.I2C_ReceiveData:000000000000001e .L0 
C:\Users\SOLDER~1\AppData\Local\Temp\ccfBhFEg.s:1015   .text.I2C_ReceiveData:0000000000000020 .L0 
C:\Users\SOLDER~1\AppData\Local\Temp\ccfBhFEg.s:1022   .text.I2C_Send7bitAddress:0000000000000000 I2C_Send7bitAddress
C:\Users\SOLDER~1\AppData\Local\Temp\ccfBhFEg.s:1025   .text.I2C_Send7bitAddress:0000000000000000 .L0 
C:\Users\SOLDER~1\AppData\Local\Temp\ccfBhFEg.s:1026   .text.I2C_Send7bitAddress:0000000000000000 $x
C:\Users\SOLDER~1\AppData\Local\Temp\ccfBhFEg.s:1026   .text.I2C_Send7bitAddress:0000000000000000 .L0 
C:\Users\SOLDER~1\AppData\Local\Temp\ccfBhFEg.s:1027   .text.I2C_Send7bitAddress:0000000000000002 .L0 
C:\Users\SOLDER~1\AppData\Local\Temp\ccfBhFEg.s:1029   .text.I2C_Send7bitAddress:0000000000000004 .L0 
C:\Users\SOLDER~1\AppData\Local\Temp\ccfBhFEg.s:1031   .text.I2C_Send7bitAddress:0000000000000006 .L0 
C:\Users\SOLDER~1\AppData\Local\Temp\ccfBhFEg.s:1039   .text.I2C_Send7bitAddress:0000000000000018 .L0 
C:\Users\SOLDER~1\AppData\Local\Temp\ccfBhFEg.s:1042   .text.I2C_Send7bitAddress:000000000000001e .L0 
C:\Users\SOLDER~1\AppData\Local\Temp\ccfBhFEg.s:1048   .text.I2C_Send7bitAddress:000000000000002c .L0 
C:\Users\SOLDER~1\AppData\Local\Temp\ccfBhFEg.s:1053   .text.I2C_Send7bitAddress:0000000000000036 .L0 
C:\Users\SOLDER~1\AppData\Local\Temp\ccfBhFEg.s:1059   .text.I2C_Send7bitAddress:0000000000000046 .L0 
C:\Users\SOLDER~1\AppData\Local\Temp\ccfBhFEg.s:1061   .text.I2C_Send7bitAddress:000000000000004a .L0 
C:\Users\SOLDER~1\AppData\Local\Temp\ccfBhFEg.s:1062   .text.I2C_Send7bitAddress:000000000000004a .L0 
C:\Users\SOLDER~1\AppData\Local\Temp\ccfBhFEg.s:1064   .text.I2C_Send7bitAddress:000000000000004c .L0 
C:\Users\SOLDER~1\AppData\Local\Temp\ccfBhFEg.s:1066   .text.I2C_Send7bitAddress:000000000000004e .L0 
C:\Users\SOLDER~1\AppData\Local\Temp\ccfBhFEg.s:1073   .text.I2C_ReadRegister:0000000000000000 I2C_ReadRegister
C:\Users\SOLDER~1\AppData\Local\Temp\ccfBhFEg.s:1076   .text.I2C_ReadRegister:0000000000000000 .L0 
C:\Users\SOLDER~1\AppData\Local\Temp\ccfBhFEg.s:1077   .text.I2C_ReadRegister:0000000000000000 $x
C:\Users\SOLDER~1\AppData\Local\Temp\ccfBhFEg.s:1077   .text.I2C_ReadRegister:0000000000000000 .L0 
C:\Users\SOLDER~1\AppData\Local\Temp\ccfBhFEg.s:1078   .text.I2C_ReadRegister:0000000000000002 .L0 
C:\Users\SOLDER~1\AppData\Local\Temp\ccfBhFEg.s:1080   .text.I2C_ReadRegister:0000000000000004 .L0 
GAS LISTING C:\Users\SOLDER~1\AppData\Local\Temp\ccfBhFEg.s 			page 61


C:\Users\SOLDER~1\AppData\Local\Temp\ccfBhFEg.s:1082   .text.I2C_ReadRegister:0000000000000006 .L0 
C:\Users\SOLDER~1\AppData\Local\Temp\ccfBhFEg.s:1087   .text.I2C_ReadRegister:0000000000000010 .L0 
C:\Users\SOLDER~1\AppData\Local\Temp\ccfBhFEg.s:1089   .text.I2C_ReadRegister:0000000000000014 .L0 
C:\Users\SOLDER~1\AppData\Local\Temp\ccfBhFEg.s:1091   .text.I2C_ReadRegister:0000000000000018 .L0 
C:\Users\SOLDER~1\AppData\Local\Temp\ccfBhFEg.s:1093   .text.I2C_ReadRegister:000000000000001c .L0 
C:\Users\SOLDER~1\AppData\Local\Temp\ccfBhFEg.s:1098   .text.I2C_ReadRegister:000000000000002a .L0 
C:\Users\SOLDER~1\AppData\Local\Temp\ccfBhFEg.s:1100   .text.I2C_ReadRegister:000000000000002e .L0 
C:\Users\SOLDER~1\AppData\Local\Temp\ccfBhFEg.s:1104   .text.I2C_ReadRegister:0000000000000034 .L0 
C:\Users\SOLDER~1\AppData\Local\Temp\ccfBhFEg.s:1106   .text.I2C_ReadRegister:0000000000000038 .L0 
C:\Users\SOLDER~1\AppData\Local\Temp\ccfBhFEg.s:1107   .text.I2C_ReadRegister:0000000000000038 .L0 
C:\Users\SOLDER~1\AppData\Local\Temp\ccfBhFEg.s:1109   .text.I2C_ReadRegister:000000000000003a .L0 
C:\Users\SOLDER~1\AppData\Local\Temp\ccfBhFEg.s:1111   .text.I2C_ReadRegister:000000000000003c .L0 
C:\Users\SOLDER~1\AppData\Local\Temp\ccfBhFEg.s:1118   .text.I2C_SoftwareResetCmd:0000000000000000 I2C_SoftwareResetCmd
C:\Users\SOLDER~1\AppData\Local\Temp\ccfBhFEg.s:1121   .text.I2C_SoftwareResetCmd:0000000000000000 .L0 
C:\Users\SOLDER~1\AppData\Local\Temp\ccfBhFEg.s:1122   .text.I2C_SoftwareResetCmd:0000000000000000 $x
C:\Users\SOLDER~1\AppData\Local\Temp\ccfBhFEg.s:1122   .text.I2C_SoftwareResetCmd:0000000000000000 .L0 
C:\Users\SOLDER~1\AppData\Local\Temp\ccfBhFEg.s:1123   .text.I2C_SoftwareResetCmd:0000000000000002 .L0 
C:\Users\SOLDER~1\AppData\Local\Temp\ccfBhFEg.s:1125   .text.I2C_SoftwareResetCmd:0000000000000004 .L0 
C:\Users\SOLDER~1\AppData\Local\Temp\ccfBhFEg.s:1127   .text.I2C_SoftwareResetCmd:0000000000000006 .L0 
C:\Users\SOLDER~1\AppData\Local\Temp\ccfBhFEg.s:1131   .text.I2C_SoftwareResetCmd:000000000000000e .L0 
C:\Users\SOLDER~1\AppData\Local\Temp\ccfBhFEg.s:1134   .text.I2C_SoftwareResetCmd:0000000000000014 .L0 
C:\Users\SOLDER~1\AppData\Local\Temp\ccfBhFEg.s:1139   .text.I2C_SoftwareResetCmd:0000000000000020 .L0 
C:\Users\SOLDER~1\AppData\Local\Temp\ccfBhFEg.s:1146   .text.I2C_SoftwareResetCmd:0000000000000030 .L0 
C:\Users\SOLDER~1\AppData\Local\Temp\ccfBhFEg.s:1149   .text.I2C_SoftwareResetCmd:0000000000000032 .L0 
C:\Users\SOLDER~1\AppData\Local\Temp\ccfBhFEg.s:1154   .text.I2C_SoftwareResetCmd:000000000000003e .L0 
C:\Users\SOLDER~1\AppData\Local\Temp\ccfBhFEg.s:1163   .text.I2C_SoftwareResetCmd:0000000000000050 .L0 
C:\Users\SOLDER~1\AppData\Local\Temp\ccfBhFEg.s:1165   .text.I2C_SoftwareResetCmd:0000000000000054 .L0 
C:\Users\SOLDER~1\AppData\Local\Temp\ccfBhFEg.s:1166   .text.I2C_SoftwareResetCmd:0000000000000054 .L0 
C:\Users\SOLDER~1\AppData\Local\Temp\ccfBhFEg.s:1168   .text.I2C_SoftwareResetCmd:0000000000000056 .L0 
C:\Users\SOLDER~1\AppData\Local\Temp\ccfBhFEg.s:1170   .text.I2C_SoftwareResetCmd:0000000000000058 .L0 
C:\Users\SOLDER~1\AppData\Local\Temp\ccfBhFEg.s:1177   .text.I2C_NACKPositionConfig:0000000000000000 I2C_NACKPositionConfig
C:\Users\SOLDER~1\AppData\Local\Temp\ccfBhFEg.s:1180   .text.I2C_NACKPositionConfig:0000000000000000 .L0 
C:\Users\SOLDER~1\AppData\Local\Temp\ccfBhFEg.s:1181   .text.I2C_NACKPositionConfig:0000000000000000 $x
C:\Users\SOLDER~1\AppData\Local\Temp\ccfBhFEg.s:1181   .text.I2C_NACKPositionConfig:0000000000000000 .L0 
C:\Users\SOLDER~1\AppData\Local\Temp\ccfBhFEg.s:1182   .text.I2C_NACKPositionConfig:0000000000000002 .L0 
C:\Users\SOLDER~1\AppData\Local\Temp\ccfBhFEg.s:1184   .text.I2C_NACKPositionConfig:0000000000000004 .L0 
C:\Users\SOLDER~1\AppData\Local\Temp\ccfBhFEg.s:1186   .text.I2C_NACKPositionConfig:0000000000000006 .L0 
C:\Users\SOLDER~1\AppData\Local\Temp\ccfBhFEg.s:1191   .text.I2C_NACKPositionConfig:0000000000000010 .L0 
C:\Users\SOLDER~1\AppData\Local\Temp\ccfBhFEg.s:1195   .text.I2C_NACKPositionConfig:000000000000001a .L0 
C:\Users\SOLDER~1\AppData\Local\Temp\ccfBhFEg.s:1200   .text.I2C_NACKPositionConfig:0000000000000026 .L0 
C:\Users\SOLDER~1\AppData\Local\Temp\ccfBhFEg.s:1208   .text.I2C_NACKPositionConfig:000000000000003a .L0 
C:\Users\SOLDER~1\AppData\Local\Temp\ccfBhFEg.s:1211   .text.I2C_NACKPositionConfig:000000000000003c .L0 
C:\Users\SOLDER~1\AppData\Local\Temp\ccfBhFEg.s:1216   .text.I2C_NACKPositionConfig:0000000000000048 .L0 
C:\Users\SOLDER~1\AppData\Local\Temp\ccfBhFEg.s:1225   .text.I2C_NACKPositionConfig:000000000000005c .L0 
C:\Users\SOLDER~1\AppData\Local\Temp\ccfBhFEg.s:1227   .text.I2C_NACKPositionConfig:0000000000000060 .L0 
C:\Users\SOLDER~1\AppData\Local\Temp\ccfBhFEg.s:1228   .text.I2C_NACKPositionConfig:0000000000000060 .L0 
C:\Users\SOLDER~1\AppData\Local\Temp\ccfBhFEg.s:1230   .text.I2C_NACKPositionConfig:0000000000000062 .L0 
C:\Users\SOLDER~1\AppData\Local\Temp\ccfBhFEg.s:1232   .text.I2C_NACKPositionConfig:0000000000000064 .L0 
C:\Users\SOLDER~1\AppData\Local\Temp\ccfBhFEg.s:1239   .text.I2C_SMBusAlertConfig:0000000000000000 I2C_SMBusAlertConfig
C:\Users\SOLDER~1\AppData\Local\Temp\ccfBhFEg.s:1242   .text.I2C_SMBusAlertConfig:0000000000000000 .L0 
C:\Users\SOLDER~1\AppData\Local\Temp\ccfBhFEg.s:1243   .text.I2C_SMBusAlertConfig:0000000000000000 $x
C:\Users\SOLDER~1\AppData\Local\Temp\ccfBhFEg.s:1243   .text.I2C_SMBusAlertConfig:0000000000000000 .L0 
C:\Users\SOLDER~1\AppData\Local\Temp\ccfBhFEg.s:1244   .text.I2C_SMBusAlertConfig:0000000000000002 .L0 
C:\Users\SOLDER~1\AppData\Local\Temp\ccfBhFEg.s:1246   .text.I2C_SMBusAlertConfig:0000000000000004 .L0 
C:\Users\SOLDER~1\AppData\Local\Temp\ccfBhFEg.s:1248   .text.I2C_SMBusAlertConfig:0000000000000006 .L0 
C:\Users\SOLDER~1\AppData\Local\Temp\ccfBhFEg.s:1253   .text.I2C_SMBusAlertConfig:0000000000000010 .L0 
C:\Users\SOLDER~1\AppData\Local\Temp\ccfBhFEg.s:1257   .text.I2C_SMBusAlertConfig:000000000000001a .L0 
GAS LISTING C:\Users\SOLDER~1\AppData\Local\Temp\ccfBhFEg.s 			page 62


C:\Users\SOLDER~1\AppData\Local\Temp\ccfBhFEg.s:1262   .text.I2C_SMBusAlertConfig:0000000000000026 .L0 
C:\Users\SOLDER~1\AppData\Local\Temp\ccfBhFEg.s:1269   .text.I2C_SMBusAlertConfig:0000000000000036 .L0 
C:\Users\SOLDER~1\AppData\Local\Temp\ccfBhFEg.s:1272   .text.I2C_SMBusAlertConfig:0000000000000038 .L0 
C:\Users\SOLDER~1\AppData\Local\Temp\ccfBhFEg.s:1277   .text.I2C_SMBusAlertConfig:0000000000000044 .L0 
C:\Users\SOLDER~1\AppData\Local\Temp\ccfBhFEg.s:1286   .text.I2C_SMBusAlertConfig:0000000000000056 .L0 
C:\Users\SOLDER~1\AppData\Local\Temp\ccfBhFEg.s:1288   .text.I2C_SMBusAlertConfig:000000000000005a .L0 
C:\Users\SOLDER~1\AppData\Local\Temp\ccfBhFEg.s:1289   .text.I2C_SMBusAlertConfig:000000000000005a .L0 
C:\Users\SOLDER~1\AppData\Local\Temp\ccfBhFEg.s:1291   .text.I2C_SMBusAlertConfig:000000000000005c .L0 
C:\Users\SOLDER~1\AppData\Local\Temp\ccfBhFEg.s:1293   .text.I2C_SMBusAlertConfig:000000000000005e .L0 
C:\Users\SOLDER~1\AppData\Local\Temp\ccfBhFEg.s:1300   .text.I2C_TransmitPEC:0000000000000000 I2C_TransmitPEC
C:\Users\SOLDER~1\AppData\Local\Temp\ccfBhFEg.s:1303   .text.I2C_TransmitPEC:0000000000000000 .L0 
C:\Users\SOLDER~1\AppData\Local\Temp\ccfBhFEg.s:1304   .text.I2C_TransmitPEC:0000000000000000 $x
C:\Users\SOLDER~1\AppData\Local\Temp\ccfBhFEg.s:1304   .text.I2C_TransmitPEC:0000000000000000 .L0 
C:\Users\SOLDER~1\AppData\Local\Temp\ccfBhFEg.s:1305   .text.I2C_TransmitPEC:0000000000000002 .L0 
C:\Users\SOLDER~1\AppData\Local\Temp\ccfBhFEg.s:1307   .text.I2C_TransmitPEC:0000000000000004 .L0 
C:\Users\SOLDER~1\AppData\Local\Temp\ccfBhFEg.s:1309   .text.I2C_TransmitPEC:0000000000000006 .L0 
C:\Users\SOLDER~1\AppData\Local\Temp\ccfBhFEg.s:1313   .text.I2C_TransmitPEC:000000000000000e .L0 
C:\Users\SOLDER~1\AppData\Local\Temp\ccfBhFEg.s:1316   .text.I2C_TransmitPEC:0000000000000014 .L0 
C:\Users\SOLDER~1\AppData\Local\Temp\ccfBhFEg.s:1321   .text.I2C_TransmitPEC:0000000000000020 .L0 
C:\Users\SOLDER~1\AppData\Local\Temp\ccfBhFEg.s:1328   .text.I2C_TransmitPEC:0000000000000030 .L0 
C:\Users\SOLDER~1\AppData\Local\Temp\ccfBhFEg.s:1331   .text.I2C_TransmitPEC:0000000000000032 .L0 
C:\Users\SOLDER~1\AppData\Local\Temp\ccfBhFEg.s:1336   .text.I2C_TransmitPEC:000000000000003e .L0 
C:\Users\SOLDER~1\AppData\Local\Temp\ccfBhFEg.s:1345   .text.I2C_TransmitPEC:0000000000000050 .L0 
C:\Users\SOLDER~1\AppData\Local\Temp\ccfBhFEg.s:1347   .text.I2C_TransmitPEC:0000000000000054 .L0 
C:\Users\SOLDER~1\AppData\Local\Temp\ccfBhFEg.s:1348   .text.I2C_TransmitPEC:0000000000000054 .L0 
C:\Users\SOLDER~1\AppData\Local\Temp\ccfBhFEg.s:1350   .text.I2C_TransmitPEC:0000000000000056 .L0 
C:\Users\SOLDER~1\AppData\Local\Temp\ccfBhFEg.s:1352   .text.I2C_TransmitPEC:0000000000000058 .L0 
C:\Users\SOLDER~1\AppData\Local\Temp\ccfBhFEg.s:1359   .text.I2C_PECPositionConfig:0000000000000000 I2C_PECPositionConfig
C:\Users\SOLDER~1\AppData\Local\Temp\ccfBhFEg.s:1362   .text.I2C_PECPositionConfig:0000000000000000 .L0 
C:\Users\SOLDER~1\AppData\Local\Temp\ccfBhFEg.s:1363   .text.I2C_PECPositionConfig:0000000000000000 $x
C:\Users\SOLDER~1\AppData\Local\Temp\ccfBhFEg.s:1363   .text.I2C_PECPositionConfig:0000000000000000 .L0 
C:\Users\SOLDER~1\AppData\Local\Temp\ccfBhFEg.s:1364   .text.I2C_PECPositionConfig:0000000000000002 .L0 
C:\Users\SOLDER~1\AppData\Local\Temp\ccfBhFEg.s:1366   .text.I2C_PECPositionConfig:0000000000000004 .L0 
C:\Users\SOLDER~1\AppData\Local\Temp\ccfBhFEg.s:1368   .text.I2C_PECPositionConfig:0000000000000006 .L0 
C:\Users\SOLDER~1\AppData\Local\Temp\ccfBhFEg.s:1373   .text.I2C_PECPositionConfig:0000000000000010 .L0 
C:\Users\SOLDER~1\AppData\Local\Temp\ccfBhFEg.s:1377   .text.I2C_PECPositionConfig:000000000000001a .L0 
C:\Users\SOLDER~1\AppData\Local\Temp\ccfBhFEg.s:1382   .text.I2C_PECPositionConfig:0000000000000026 .L0 
C:\Users\SOLDER~1\AppData\Local\Temp\ccfBhFEg.s:1390   .text.I2C_PECPositionConfig:000000000000003a .L0 
C:\Users\SOLDER~1\AppData\Local\Temp\ccfBhFEg.s:1393   .text.I2C_PECPositionConfig:000000000000003c .L0 
C:\Users\SOLDER~1\AppData\Local\Temp\ccfBhFEg.s:1398   .text.I2C_PECPositionConfig:0000000000000048 .L0 
C:\Users\SOLDER~1\AppData\Local\Temp\ccfBhFEg.s:1407   .text.I2C_PECPositionConfig:000000000000005c .L0 
C:\Users\SOLDER~1\AppData\Local\Temp\ccfBhFEg.s:1409   .text.I2C_PECPositionConfig:0000000000000060 .L0 
C:\Users\SOLDER~1\AppData\Local\Temp\ccfBhFEg.s:1410   .text.I2C_PECPositionConfig:0000000000000060 .L0 
C:\Users\SOLDER~1\AppData\Local\Temp\ccfBhFEg.s:1412   .text.I2C_PECPositionConfig:0000000000000062 .L0 
C:\Users\SOLDER~1\AppData\Local\Temp\ccfBhFEg.s:1414   .text.I2C_PECPositionConfig:0000000000000064 .L0 
C:\Users\SOLDER~1\AppData\Local\Temp\ccfBhFEg.s:1421   .text.I2C_CalculatePEC:0000000000000000 I2C_CalculatePEC
C:\Users\SOLDER~1\AppData\Local\Temp\ccfBhFEg.s:1424   .text.I2C_CalculatePEC:0000000000000000 .L0 
C:\Users\SOLDER~1\AppData\Local\Temp\ccfBhFEg.s:1425   .text.I2C_CalculatePEC:0000000000000000 $x
C:\Users\SOLDER~1\AppData\Local\Temp\ccfBhFEg.s:1425   .text.I2C_CalculatePEC:0000000000000000 .L0 
C:\Users\SOLDER~1\AppData\Local\Temp\ccfBhFEg.s:1426   .text.I2C_CalculatePEC:0000000000000002 .L0 
C:\Users\SOLDER~1\AppData\Local\Temp\ccfBhFEg.s:1428   .text.I2C_CalculatePEC:0000000000000004 .L0 
C:\Users\SOLDER~1\AppData\Local\Temp\ccfBhFEg.s:1430   .text.I2C_CalculatePEC:0000000000000006 .L0 
C:\Users\SOLDER~1\AppData\Local\Temp\ccfBhFEg.s:1434   .text.I2C_CalculatePEC:000000000000000e .L0 
C:\Users\SOLDER~1\AppData\Local\Temp\ccfBhFEg.s:1437   .text.I2C_CalculatePEC:0000000000000014 .L0 
C:\Users\SOLDER~1\AppData\Local\Temp\ccfBhFEg.s:1442   .text.I2C_CalculatePEC:000000000000001e .L0 
C:\Users\SOLDER~1\AppData\Local\Temp\ccfBhFEg.s:1448   .text.I2C_CalculatePEC:000000000000002e .L0 
C:\Users\SOLDER~1\AppData\Local\Temp\ccfBhFEg.s:1451   .text.I2C_CalculatePEC:0000000000000030 .L0 
GAS LISTING C:\Users\SOLDER~1\AppData\Local\Temp\ccfBhFEg.s 			page 63


C:\Users\SOLDER~1\AppData\Local\Temp\ccfBhFEg.s:1456   .text.I2C_CalculatePEC:000000000000003a .L0 
C:\Users\SOLDER~1\AppData\Local\Temp\ccfBhFEg.s:1463   .text.I2C_CalculatePEC:000000000000004a .L0 
C:\Users\SOLDER~1\AppData\Local\Temp\ccfBhFEg.s:1465   .text.I2C_CalculatePEC:000000000000004e .L0 
C:\Users\SOLDER~1\AppData\Local\Temp\ccfBhFEg.s:1466   .text.I2C_CalculatePEC:000000000000004e .L0 
C:\Users\SOLDER~1\AppData\Local\Temp\ccfBhFEg.s:1468   .text.I2C_CalculatePEC:0000000000000050 .L0 
C:\Users\SOLDER~1\AppData\Local\Temp\ccfBhFEg.s:1470   .text.I2C_CalculatePEC:0000000000000052 .L0 
C:\Users\SOLDER~1\AppData\Local\Temp\ccfBhFEg.s:1477   .text.I2C_GetPEC:0000000000000000 I2C_GetPEC
C:\Users\SOLDER~1\AppData\Local\Temp\ccfBhFEg.s:1480   .text.I2C_GetPEC:0000000000000000 .L0 
C:\Users\SOLDER~1\AppData\Local\Temp\ccfBhFEg.s:1481   .text.I2C_GetPEC:0000000000000000 $x
C:\Users\SOLDER~1\AppData\Local\Temp\ccfBhFEg.s:1481   .text.I2C_GetPEC:0000000000000000 .L0 
C:\Users\SOLDER~1\AppData\Local\Temp\ccfBhFEg.s:1482   .text.I2C_GetPEC:0000000000000002 .L0 
C:\Users\SOLDER~1\AppData\Local\Temp\ccfBhFEg.s:1484   .text.I2C_GetPEC:0000000000000004 .L0 
C:\Users\SOLDER~1\AppData\Local\Temp\ccfBhFEg.s:1486   .text.I2C_GetPEC:0000000000000006 .L0 
C:\Users\SOLDER~1\AppData\Local\Temp\ccfBhFEg.s:1489   .text.I2C_GetPEC:000000000000000a .L0 
C:\Users\SOLDER~1\AppData\Local\Temp\ccfBhFEg.s:1494   .text.I2C_GetPEC:0000000000000014 .L0 
C:\Users\SOLDER~1\AppData\Local\Temp\ccfBhFEg.s:1499   .text.I2C_GetPEC:000000000000001e .L0 
C:\Users\SOLDER~1\AppData\Local\Temp\ccfBhFEg.s:1501   .text.I2C_GetPEC:0000000000000022 .L0 
C:\Users\SOLDER~1\AppData\Local\Temp\ccfBhFEg.s:1502   .text.I2C_GetPEC:0000000000000022 .L0 
C:\Users\SOLDER~1\AppData\Local\Temp\ccfBhFEg.s:1504   .text.I2C_GetPEC:0000000000000024 .L0 
C:\Users\SOLDER~1\AppData\Local\Temp\ccfBhFEg.s:1506   .text.I2C_GetPEC:0000000000000026 .L0 
C:\Users\SOLDER~1\AppData\Local\Temp\ccfBhFEg.s:1513   .text.I2C_ARPCmd:0000000000000000 I2C_ARPCmd
C:\Users\SOLDER~1\AppData\Local\Temp\ccfBhFEg.s:1516   .text.I2C_ARPCmd:0000000000000000 .L0 
C:\Users\SOLDER~1\AppData\Local\Temp\ccfBhFEg.s:1517   .text.I2C_ARPCmd:0000000000000000 $x
C:\Users\SOLDER~1\AppData\Local\Temp\ccfBhFEg.s:1517   .text.I2C_ARPCmd:0000000000000000 .L0 
C:\Users\SOLDER~1\AppData\Local\Temp\ccfBhFEg.s:1518   .text.I2C_ARPCmd:0000000000000002 .L0 
C:\Users\SOLDER~1\AppData\Local\Temp\ccfBhFEg.s:1520   .text.I2C_ARPCmd:0000000000000004 .L0 
C:\Users\SOLDER~1\AppData\Local\Temp\ccfBhFEg.s:1522   .text.I2C_ARPCmd:0000000000000006 .L0 
C:\Users\SOLDER~1\AppData\Local\Temp\ccfBhFEg.s:1526   .text.I2C_ARPCmd:000000000000000e .L0 
C:\Users\SOLDER~1\AppData\Local\Temp\ccfBhFEg.s:1529   .text.I2C_ARPCmd:0000000000000014 .L0 
C:\Users\SOLDER~1\AppData\Local\Temp\ccfBhFEg.s:1534   .text.I2C_ARPCmd:000000000000001e .L0 
C:\Users\SOLDER~1\AppData\Local\Temp\ccfBhFEg.s:1540   .text.I2C_ARPCmd:000000000000002e .L0 
C:\Users\SOLDER~1\AppData\Local\Temp\ccfBhFEg.s:1543   .text.I2C_ARPCmd:0000000000000030 .L0 
C:\Users\SOLDER~1\AppData\Local\Temp\ccfBhFEg.s:1548   .text.I2C_ARPCmd:000000000000003a .L0 
C:\Users\SOLDER~1\AppData\Local\Temp\ccfBhFEg.s:1555   .text.I2C_ARPCmd:0000000000000048 .L0 
C:\Users\SOLDER~1\AppData\Local\Temp\ccfBhFEg.s:1557   .text.I2C_ARPCmd:000000000000004c .L0 
C:\Users\SOLDER~1\AppData\Local\Temp\ccfBhFEg.s:1558   .text.I2C_ARPCmd:000000000000004c .L0 
C:\Users\SOLDER~1\AppData\Local\Temp\ccfBhFEg.s:1560   .text.I2C_ARPCmd:000000000000004e .L0 
C:\Users\SOLDER~1\AppData\Local\Temp\ccfBhFEg.s:1562   .text.I2C_ARPCmd:0000000000000050 .L0 
C:\Users\SOLDER~1\AppData\Local\Temp\ccfBhFEg.s:1569   .text.I2C_StretchClockCmd:0000000000000000 I2C_StretchClockCmd
C:\Users\SOLDER~1\AppData\Local\Temp\ccfBhFEg.s:1572   .text.I2C_StretchClockCmd:0000000000000000 .L0 
C:\Users\SOLDER~1\AppData\Local\Temp\ccfBhFEg.s:1573   .text.I2C_StretchClockCmd:0000000000000000 $x
C:\Users\SOLDER~1\AppData\Local\Temp\ccfBhFEg.s:1573   .text.I2C_StretchClockCmd:0000000000000000 .L0 
C:\Users\SOLDER~1\AppData\Local\Temp\ccfBhFEg.s:1574   .text.I2C_StretchClockCmd:0000000000000002 .L0 
C:\Users\SOLDER~1\AppData\Local\Temp\ccfBhFEg.s:1576   .text.I2C_StretchClockCmd:0000000000000004 .L0 
C:\Users\SOLDER~1\AppData\Local\Temp\ccfBhFEg.s:1578   .text.I2C_StretchClockCmd:0000000000000006 .L0 
C:\Users\SOLDER~1\AppData\Local\Temp\ccfBhFEg.s:1582   .text.I2C_StretchClockCmd:000000000000000e .L0 
C:\Users\SOLDER~1\AppData\Local\Temp\ccfBhFEg.s:1585   .text.I2C_StretchClockCmd:0000000000000014 .L0 
C:\Users\SOLDER~1\AppData\Local\Temp\ccfBhFEg.s:1590   .text.I2C_StretchClockCmd:000000000000001e .L0 
C:\Users\SOLDER~1\AppData\Local\Temp\ccfBhFEg.s:1596   .text.I2C_StretchClockCmd:000000000000002e .L0 
C:\Users\SOLDER~1\AppData\Local\Temp\ccfBhFEg.s:1599   .text.I2C_StretchClockCmd:0000000000000030 .L0 
C:\Users\SOLDER~1\AppData\Local\Temp\ccfBhFEg.s:1604   .text.I2C_StretchClockCmd:000000000000003a .L0 
C:\Users\SOLDER~1\AppData\Local\Temp\ccfBhFEg.s:1611   .text.I2C_StretchClockCmd:000000000000004a .L0 
C:\Users\SOLDER~1\AppData\Local\Temp\ccfBhFEg.s:1613   .text.I2C_StretchClockCmd:000000000000004e .L0 
C:\Users\SOLDER~1\AppData\Local\Temp\ccfBhFEg.s:1614   .text.I2C_StretchClockCmd:000000000000004e .L0 
C:\Users\SOLDER~1\AppData\Local\Temp\ccfBhFEg.s:1616   .text.I2C_StretchClockCmd:0000000000000050 .L0 
C:\Users\SOLDER~1\AppData\Local\Temp\ccfBhFEg.s:1618   .text.I2C_StretchClockCmd:0000000000000052 .L0 
C:\Users\SOLDER~1\AppData\Local\Temp\ccfBhFEg.s:1625   .text.I2C_FastModeDutyCycleConfig:0000000000000000 I2C_FastModeDutyCycleConfig
GAS LISTING C:\Users\SOLDER~1\AppData\Local\Temp\ccfBhFEg.s 			page 64


C:\Users\SOLDER~1\AppData\Local\Temp\ccfBhFEg.s:1628   .text.I2C_FastModeDutyCycleConfig:0000000000000000 .L0 
C:\Users\SOLDER~1\AppData\Local\Temp\ccfBhFEg.s:1629   .text.I2C_FastModeDutyCycleConfig:0000000000000000 $x
C:\Users\SOLDER~1\AppData\Local\Temp\ccfBhFEg.s:1629   .text.I2C_FastModeDutyCycleConfig:0000000000000000 .L0 
C:\Users\SOLDER~1\AppData\Local\Temp\ccfBhFEg.s:1630   .text.I2C_FastModeDutyCycleConfig:0000000000000002 .L0 
C:\Users\SOLDER~1\AppData\Local\Temp\ccfBhFEg.s:1632   .text.I2C_FastModeDutyCycleConfig:0000000000000004 .L0 
C:\Users\SOLDER~1\AppData\Local\Temp\ccfBhFEg.s:1634   .text.I2C_FastModeDutyCycleConfig:0000000000000006 .L0 
C:\Users\SOLDER~1\AppData\Local\Temp\ccfBhFEg.s:1639   .text.I2C_FastModeDutyCycleConfig:0000000000000010 .L0 
C:\Users\SOLDER~1\AppData\Local\Temp\ccfBhFEg.s:1643   .text.I2C_FastModeDutyCycleConfig:000000000000001a .L0 
C:\Users\SOLDER~1\AppData\Local\Temp\ccfBhFEg.s:1648   .text.I2C_FastModeDutyCycleConfig:0000000000000026 .L0 
C:\Users\SOLDER~1\AppData\Local\Temp\ccfBhFEg.s:1656   .text.I2C_FastModeDutyCycleConfig:0000000000000038 .L0 
C:\Users\SOLDER~1\AppData\Local\Temp\ccfBhFEg.s:1659   .text.I2C_FastModeDutyCycleConfig:000000000000003a .L0 
C:\Users\SOLDER~1\AppData\Local\Temp\ccfBhFEg.s:1664   .text.I2C_FastModeDutyCycleConfig:0000000000000046 .L0 
C:\Users\SOLDER~1\AppData\Local\Temp\ccfBhFEg.s:1672   .text.I2C_FastModeDutyCycleConfig:0000000000000056 .L0 
C:\Users\SOLDER~1\AppData\Local\Temp\ccfBhFEg.s:1674   .text.I2C_FastModeDutyCycleConfig:000000000000005a .L0 
C:\Users\SOLDER~1\AppData\Local\Temp\ccfBhFEg.s:1675   .text.I2C_FastModeDutyCycleConfig:000000000000005a .L0 
C:\Users\SOLDER~1\AppData\Local\Temp\ccfBhFEg.s:1677   .text.I2C_FastModeDutyCycleConfig:000000000000005c .L0 
C:\Users\SOLDER~1\AppData\Local\Temp\ccfBhFEg.s:1679   .text.I2C_FastModeDutyCycleConfig:000000000000005e .L0 
C:\Users\SOLDER~1\AppData\Local\Temp\ccfBhFEg.s:1686   .text.I2C_CheckEvent:0000000000000000 I2C_CheckEvent
C:\Users\SOLDER~1\AppData\Local\Temp\ccfBhFEg.s:1689   .text.I2C_CheckEvent:0000000000000000 .L0 
C:\Users\SOLDER~1\AppData\Local\Temp\ccfBhFEg.s:1690   .text.I2C_CheckEvent:0000000000000000 $x
C:\Users\SOLDER~1\AppData\Local\Temp\ccfBhFEg.s:1690   .text.I2C_CheckEvent:0000000000000000 .L0 
C:\Users\SOLDER~1\AppData\Local\Temp\ccfBhFEg.s:1691   .text.I2C_CheckEvent:0000000000000002 .L0 
C:\Users\SOLDER~1\AppData\Local\Temp\ccfBhFEg.s:1693   .text.I2C_CheckEvent:0000000000000004 .L0 
C:\Users\SOLDER~1\AppData\Local\Temp\ccfBhFEg.s:1695   .text.I2C_CheckEvent:0000000000000006 .L0 
C:\Users\SOLDER~1\AppData\Local\Temp\ccfBhFEg.s:1699   .text.I2C_CheckEvent:000000000000000e .L0 
C:\Users\SOLDER~1\AppData\Local\Temp\ccfBhFEg.s:1701   .text.I2C_CheckEvent:0000000000000012 .L0 
C:\Users\SOLDER~1\AppData\Local\Temp\ccfBhFEg.s:1703   .text.I2C_CheckEvent:0000000000000016 .L0 
C:\Users\SOLDER~1\AppData\Local\Temp\ccfBhFEg.s:1705   .text.I2C_CheckEvent:000000000000001a .L0 
C:\Users\SOLDER~1\AppData\Local\Temp\ccfBhFEg.s:1707   .text.I2C_CheckEvent:000000000000001e .L0 
C:\Users\SOLDER~1\AppData\Local\Temp\ccfBhFEg.s:1712   .text.I2C_CheckEvent:0000000000000028 .L0 
C:\Users\SOLDER~1\AppData\Local\Temp\ccfBhFEg.s:1714   .text.I2C_CheckEvent:000000000000002c .L0 
C:\Users\SOLDER~1\AppData\Local\Temp\ccfBhFEg.s:1719   .text.I2C_CheckEvent:0000000000000036 .L0 
C:\Users\SOLDER~1\AppData\Local\Temp\ccfBhFEg.s:1721   .text.I2C_CheckEvent:000000000000003a .L0 
C:\Users\SOLDER~1\AppData\Local\Temp\ccfBhFEg.s:1725   .text.I2C_CheckEvent:0000000000000044 .L0 
C:\Users\SOLDER~1\AppData\Local\Temp\ccfBhFEg.s:1729   .text.I2C_CheckEvent:000000000000004e .L0 
C:\Users\SOLDER~1\AppData\Local\Temp\ccfBhFEg.s:1734   .text.I2C_CheckEvent:000000000000005a .L0 
C:\Users\SOLDER~1\AppData\Local\Temp\ccfBhFEg.s:1738   .text.I2C_CheckEvent:0000000000000064 .L0 
C:\Users\SOLDER~1\AppData\Local\Temp\ccfBhFEg.s:1741   .text.I2C_CheckEvent:000000000000006c .L0 
C:\Users\SOLDER~1\AppData\Local\Temp\ccfBhFEg.s:1746   .text.I2C_CheckEvent:0000000000000074 .L0 
C:\Users\SOLDER~1\AppData\Local\Temp\ccfBhFEg.s:1749   .text.I2C_CheckEvent:0000000000000078 .L0 
C:\Users\SOLDER~1\AppData\Local\Temp\ccfBhFEg.s:1751   .text.I2C_CheckEvent:000000000000007c .L0 
C:\Users\SOLDER~1\AppData\Local\Temp\ccfBhFEg.s:1753   .text.I2C_CheckEvent:0000000000000080 .L0 
C:\Users\SOLDER~1\AppData\Local\Temp\ccfBhFEg.s:1754   .text.I2C_CheckEvent:0000000000000080 .L0 
C:\Users\SOLDER~1\AppData\Local\Temp\ccfBhFEg.s:1756   .text.I2C_CheckEvent:0000000000000082 .L0 
C:\Users\SOLDER~1\AppData\Local\Temp\ccfBhFEg.s:1758   .text.I2C_CheckEvent:0000000000000084 .L0 
C:\Users\SOLDER~1\AppData\Local\Temp\ccfBhFEg.s:1765   .text.I2C_GetLastEvent:0000000000000000 I2C_GetLastEvent
C:\Users\SOLDER~1\AppData\Local\Temp\ccfBhFEg.s:1768   .text.I2C_GetLastEvent:0000000000000000 .L0 
C:\Users\SOLDER~1\AppData\Local\Temp\ccfBhFEg.s:1769   .text.I2C_GetLastEvent:0000000000000000 $x
C:\Users\SOLDER~1\AppData\Local\Temp\ccfBhFEg.s:1769   .text.I2C_GetLastEvent:0000000000000000 .L0 
C:\Users\SOLDER~1\AppData\Local\Temp\ccfBhFEg.s:1770   .text.I2C_GetLastEvent:0000000000000002 .L0 
C:\Users\SOLDER~1\AppData\Local\Temp\ccfBhFEg.s:1772   .text.I2C_GetLastEvent:0000000000000004 .L0 
C:\Users\SOLDER~1\AppData\Local\Temp\ccfBhFEg.s:1774   .text.I2C_GetLastEvent:0000000000000006 .L0 
C:\Users\SOLDER~1\AppData\Local\Temp\ccfBhFEg.s:1777   .text.I2C_GetLastEvent:000000000000000a .L0 
C:\Users\SOLDER~1\AppData\Local\Temp\ccfBhFEg.s:1779   .text.I2C_GetLastEvent:000000000000000e .L0 
C:\Users\SOLDER~1\AppData\Local\Temp\ccfBhFEg.s:1781   .text.I2C_GetLastEvent:0000000000000012 .L0 
C:\Users\SOLDER~1\AppData\Local\Temp\ccfBhFEg.s:1783   .text.I2C_GetLastEvent:0000000000000016 .L0 
C:\Users\SOLDER~1\AppData\Local\Temp\ccfBhFEg.s:1788   .text.I2C_GetLastEvent:0000000000000020 .L0 
GAS LISTING C:\Users\SOLDER~1\AppData\Local\Temp\ccfBhFEg.s 			page 65


C:\Users\SOLDER~1\AppData\Local\Temp\ccfBhFEg.s:1790   .text.I2C_GetLastEvent:0000000000000024 .L0 
C:\Users\SOLDER~1\AppData\Local\Temp\ccfBhFEg.s:1795   .text.I2C_GetLastEvent:000000000000002e .L0 
C:\Users\SOLDER~1\AppData\Local\Temp\ccfBhFEg.s:1797   .text.I2C_GetLastEvent:0000000000000032 .L0 
C:\Users\SOLDER~1\AppData\Local\Temp\ccfBhFEg.s:1801   .text.I2C_GetLastEvent:000000000000003c .L0 
C:\Users\SOLDER~1\AppData\Local\Temp\ccfBhFEg.s:1805   .text.I2C_GetLastEvent:0000000000000046 .L0 
C:\Users\SOLDER~1\AppData\Local\Temp\ccfBhFEg.s:1810   .text.I2C_GetLastEvent:0000000000000052 .L0 
C:\Users\SOLDER~1\AppData\Local\Temp\ccfBhFEg.s:1812   .text.I2C_GetLastEvent:0000000000000056 .L0 
C:\Users\SOLDER~1\AppData\Local\Temp\ccfBhFEg.s:1814   .text.I2C_GetLastEvent:000000000000005a .L0 
C:\Users\SOLDER~1\AppData\Local\Temp\ccfBhFEg.s:1815   .text.I2C_GetLastEvent:000000000000005a .L0 
C:\Users\SOLDER~1\AppData\Local\Temp\ccfBhFEg.s:1817   .text.I2C_GetLastEvent:000000000000005c .L0 
C:\Users\SOLDER~1\AppData\Local\Temp\ccfBhFEg.s:1819   .text.I2C_GetLastEvent:000000000000005e .L0 
C:\Users\SOLDER~1\AppData\Local\Temp\ccfBhFEg.s:1826   .text.I2C_GetFlagStatus:0000000000000000 I2C_GetFlagStatus
C:\Users\SOLDER~1\AppData\Local\Temp\ccfBhFEg.s:1829   .text.I2C_GetFlagStatus:0000000000000000 .L0 
C:\Users\SOLDER~1\AppData\Local\Temp\ccfBhFEg.s:1830   .text.I2C_GetFlagStatus:0000000000000000 $x
C:\Users\SOLDER~1\AppData\Local\Temp\ccfBhFEg.s:1830   .text.I2C_GetFlagStatus:0000000000000000 .L0 
C:\Users\SOLDER~1\AppData\Local\Temp\ccfBhFEg.s:1831   .text.I2C_GetFlagStatus:0000000000000002 .L0 
C:\Users\SOLDER~1\AppData\Local\Temp\ccfBhFEg.s:1833   .text.I2C_GetFlagStatus:0000000000000004 .L0 
C:\Users\SOLDER~1\AppData\Local\Temp\ccfBhFEg.s:1835   .text.I2C_GetFlagStatus:0000000000000006 .L0 
C:\Users\SOLDER~1\AppData\Local\Temp\ccfBhFEg.s:1839   .text.I2C_GetFlagStatus:000000000000000e .L0 
C:\Users\SOLDER~1\AppData\Local\Temp\ccfBhFEg.s:1841   .text.I2C_GetFlagStatus:0000000000000012 .L0 
C:\Users\SOLDER~1\AppData\Local\Temp\ccfBhFEg.s:1843   .text.I2C_GetFlagStatus:0000000000000016 .L0 
C:\Users\SOLDER~1\AppData\Local\Temp\ccfBhFEg.s:1845   .text.I2C_GetFlagStatus:000000000000001a .L0 
C:\Users\SOLDER~1\AppData\Local\Temp\ccfBhFEg.s:1847   .text.I2C_GetFlagStatus:000000000000001e .L0 
C:\Users\SOLDER~1\AppData\Local\Temp\ccfBhFEg.s:1849   .text.I2C_GetFlagStatus:0000000000000022 .L0 
C:\Users\SOLDER~1\AppData\Local\Temp\ccfBhFEg.s:1852   .text.I2C_GetFlagStatus:0000000000000028 .L0 
C:\Users\SOLDER~1\AppData\Local\Temp\ccfBhFEg.s:1854   .text.I2C_GetFlagStatus:000000000000002c .L0 
C:\Users\SOLDER~1\AppData\Local\Temp\ccfBhFEg.s:1860   .text.I2C_GetFlagStatus:000000000000003c .L0 
C:\Users\SOLDER~1\AppData\Local\Temp\ccfBhFEg.s:1862   .text.I2C_GetFlagStatus:0000000000000040 .L0 
C:\Users\SOLDER~1\AppData\Local\Temp\ccfBhFEg.s:1864   .text.I2C_GetFlagStatus:0000000000000042 .L0 
C:\Users\SOLDER~1\AppData\Local\Temp\ccfBhFEg.s:1870   .text.I2C_GetFlagStatus:000000000000004e .L0 
C:\Users\SOLDER~1\AppData\Local\Temp\ccfBhFEg.s:1874   .text.I2C_GetFlagStatus:0000000000000058 .L0 
C:\Users\SOLDER~1\AppData\Local\Temp\ccfBhFEg.s:1879   .text.I2C_GetFlagStatus:0000000000000062 .L0 
C:\Users\SOLDER~1\AppData\Local\Temp\ccfBhFEg.s:1881   .text.I2C_GetFlagStatus:0000000000000066 .L0 
C:\Users\SOLDER~1\AppData\Local\Temp\ccfBhFEg.s:1883   .text.I2C_GetFlagStatus:0000000000000068 .L0 
C:\Users\SOLDER~1\AppData\Local\Temp\ccfBhFEg.s:1886   .text.I2C_GetFlagStatus:000000000000006e .L0 
C:\Users\SOLDER~1\AppData\Local\Temp\ccfBhFEg.s:1888   .text.I2C_GetFlagStatus:0000000000000070 .L0 
C:\Users\SOLDER~1\AppData\Local\Temp\ccfBhFEg.s:1893   .text.I2C_GetFlagStatus:0000000000000078 .L0 
C:\Users\SOLDER~1\AppData\Local\Temp\ccfBhFEg.s:1896   .text.I2C_GetFlagStatus:000000000000007c .L0 
C:\Users\SOLDER~1\AppData\Local\Temp\ccfBhFEg.s:1898   .text.I2C_GetFlagStatus:0000000000000080 .L0 
C:\Users\SOLDER~1\AppData\Local\Temp\ccfBhFEg.s:1900   .text.I2C_GetFlagStatus:0000000000000084 .L0 
C:\Users\SOLDER~1\AppData\Local\Temp\ccfBhFEg.s:1901   .text.I2C_GetFlagStatus:0000000000000084 .L0 
C:\Users\SOLDER~1\AppData\Local\Temp\ccfBhFEg.s:1903   .text.I2C_GetFlagStatus:0000000000000086 .L0 
C:\Users\SOLDER~1\AppData\Local\Temp\ccfBhFEg.s:1905   .text.I2C_GetFlagStatus:0000000000000088 .L0 
C:\Users\SOLDER~1\AppData\Local\Temp\ccfBhFEg.s:1912   .text.I2C_ClearFlag:0000000000000000 I2C_ClearFlag
C:\Users\SOLDER~1\AppData\Local\Temp\ccfBhFEg.s:1915   .text.I2C_ClearFlag:0000000000000000 .L0 
C:\Users\SOLDER~1\AppData\Local\Temp\ccfBhFEg.s:1916   .text.I2C_ClearFlag:0000000000000000 $x
C:\Users\SOLDER~1\AppData\Local\Temp\ccfBhFEg.s:1916   .text.I2C_ClearFlag:0000000000000000 .L0 
C:\Users\SOLDER~1\AppData\Local\Temp\ccfBhFEg.s:1917   .text.I2C_ClearFlag:0000000000000002 .L0 
C:\Users\SOLDER~1\AppData\Local\Temp\ccfBhFEg.s:1919   .text.I2C_ClearFlag:0000000000000004 .L0 
C:\Users\SOLDER~1\AppData\Local\Temp\ccfBhFEg.s:1921   .text.I2C_ClearFlag:0000000000000006 .L0 
C:\Users\SOLDER~1\AppData\Local\Temp\ccfBhFEg.s:1925   .text.I2C_ClearFlag:000000000000000e .L0 
C:\Users\SOLDER~1\AppData\Local\Temp\ccfBhFEg.s:1927   .text.I2C_ClearFlag:0000000000000012 .L0 
C:\Users\SOLDER~1\AppData\Local\Temp\ccfBhFEg.s:1933   .text.I2C_ClearFlag:0000000000000022 .L0 
C:\Users\SOLDER~1\AppData\Local\Temp\ccfBhFEg.s:1940   .text.I2C_ClearFlag:0000000000000034 .L0 
C:\Users\SOLDER~1\AppData\Local\Temp\ccfBhFEg.s:1943   .text.I2C_ClearFlag:000000000000003a .L0 
C:\Users\SOLDER~1\AppData\Local\Temp\ccfBhFEg.s:1945   .text.I2C_ClearFlag:000000000000003e .L0 
C:\Users\SOLDER~1\AppData\Local\Temp\ccfBhFEg.s:1946   .text.I2C_ClearFlag:000000000000003e .L0 
GAS LISTING C:\Users\SOLDER~1\AppData\Local\Temp\ccfBhFEg.s 			page 66


C:\Users\SOLDER~1\AppData\Local\Temp\ccfBhFEg.s:1948   .text.I2C_ClearFlag:0000000000000040 .L0 
C:\Users\SOLDER~1\AppData\Local\Temp\ccfBhFEg.s:1950   .text.I2C_ClearFlag:0000000000000042 .L0 
C:\Users\SOLDER~1\AppData\Local\Temp\ccfBhFEg.s:1957   .text.I2C_GetITStatus:0000000000000000 I2C_GetITStatus
C:\Users\SOLDER~1\AppData\Local\Temp\ccfBhFEg.s:1960   .text.I2C_GetITStatus:0000000000000000 .L0 
C:\Users\SOLDER~1\AppData\Local\Temp\ccfBhFEg.s:1961   .text.I2C_GetITStatus:0000000000000000 $x
C:\Users\SOLDER~1\AppData\Local\Temp\ccfBhFEg.s:1961   .text.I2C_GetITStatus:0000000000000000 .L0 
C:\Users\SOLDER~1\AppData\Local\Temp\ccfBhFEg.s:1962   .text.I2C_GetITStatus:0000000000000002 .L0 
C:\Users\SOLDER~1\AppData\Local\Temp\ccfBhFEg.s:1964   .text.I2C_GetITStatus:0000000000000004 .L0 
C:\Users\SOLDER~1\AppData\Local\Temp\ccfBhFEg.s:1966   .text.I2C_GetITStatus:0000000000000006 .L0 
C:\Users\SOLDER~1\AppData\Local\Temp\ccfBhFEg.s:1970   .text.I2C_GetITStatus:000000000000000e .L0 
C:\Users\SOLDER~1\AppData\Local\Temp\ccfBhFEg.s:1972   .text.I2C_GetITStatus:0000000000000012 .L0 
C:\Users\SOLDER~1\AppData\Local\Temp\ccfBhFEg.s:1974   .text.I2C_GetITStatus:0000000000000016 .L0 
C:\Users\SOLDER~1\AppData\Local\Temp\ccfBhFEg.s:1977   .text.I2C_GetITStatus:000000000000001c .L0 
C:\Users\SOLDER~1\AppData\Local\Temp\ccfBhFEg.s:1982   .text.I2C_GetITStatus:0000000000000026 .L0 
C:\Users\SOLDER~1\AppData\Local\Temp\ccfBhFEg.s:1984   .text.I2C_GetITStatus:0000000000000028 .L0 
C:\Users\SOLDER~1\AppData\Local\Temp\ccfBhFEg.s:1987   .text.I2C_GetITStatus:0000000000000030 .L0 
C:\Users\SOLDER~1\AppData\Local\Temp\ccfBhFEg.s:1993   .text.I2C_GetITStatus:0000000000000040 .L0 
C:\Users\SOLDER~1\AppData\Local\Temp\ccfBhFEg.s:1999   .text.I2C_GetITStatus:000000000000004c .L0 
C:\Users\SOLDER~1\AppData\Local\Temp\ccfBhFEg.s:2002   .text.I2C_GetITStatus:0000000000000052 .L0 
C:\Users\SOLDER~1\AppData\Local\Temp\ccfBhFEg.s:2004   .text.I2C_GetITStatus:0000000000000054 .L0 
C:\Users\SOLDER~1\AppData\Local\Temp\ccfBhFEg.s:2007   .text.I2C_GetITStatus:000000000000005a .L0 
C:\Users\SOLDER~1\AppData\Local\Temp\ccfBhFEg.s:2012   .text.I2C_GetITStatus:0000000000000062 .L0 
C:\Users\SOLDER~1\AppData\Local\Temp\ccfBhFEg.s:2015   .text.I2C_GetITStatus:0000000000000066 .L0 
C:\Users\SOLDER~1\AppData\Local\Temp\ccfBhFEg.s:2017   .text.I2C_GetITStatus:000000000000006a .L0 
C:\Users\SOLDER~1\AppData\Local\Temp\ccfBhFEg.s:2019   .text.I2C_GetITStatus:000000000000006e .L0 
C:\Users\SOLDER~1\AppData\Local\Temp\ccfBhFEg.s:2020   .text.I2C_GetITStatus:000000000000006e .L0 
C:\Users\SOLDER~1\AppData\Local\Temp\ccfBhFEg.s:2022   .text.I2C_GetITStatus:0000000000000070 .L0 
C:\Users\SOLDER~1\AppData\Local\Temp\ccfBhFEg.s:2024   .text.I2C_GetITStatus:0000000000000072 .L0 
C:\Users\SOLDER~1\AppData\Local\Temp\ccfBhFEg.s:2031   .text.I2C_ClearITPendingBit:0000000000000000 I2C_ClearITPendingBit
C:\Users\SOLDER~1\AppData\Local\Temp\ccfBhFEg.s:2034   .text.I2C_ClearITPendingBit:0000000000000000 .L0 
C:\Users\SOLDER~1\AppData\Local\Temp\ccfBhFEg.s:2035   .text.I2C_ClearITPendingBit:0000000000000000 $x
C:\Users\SOLDER~1\AppData\Local\Temp\ccfBhFEg.s:2035   .text.I2C_ClearITPendingBit:0000000000000000 .L0 
C:\Users\SOLDER~1\AppData\Local\Temp\ccfBhFEg.s:2036   .text.I2C_ClearITPendingBit:0000000000000002 .L0 
C:\Users\SOLDER~1\AppData\Local\Temp\ccfBhFEg.s:2038   .text.I2C_ClearITPendingBit:0000000000000004 .L0 
C:\Users\SOLDER~1\AppData\Local\Temp\ccfBhFEg.s:2040   .text.I2C_ClearITPendingBit:0000000000000006 .L0 
C:\Users\SOLDER~1\AppData\Local\Temp\ccfBhFEg.s:2044   .text.I2C_ClearITPendingBit:000000000000000e .L0 
C:\Users\SOLDER~1\AppData\Local\Temp\ccfBhFEg.s:2046   .text.I2C_ClearITPendingBit:0000000000000012 .L0 
C:\Users\SOLDER~1\AppData\Local\Temp\ccfBhFEg.s:2052   .text.I2C_ClearITPendingBit:0000000000000022 .L0 
C:\Users\SOLDER~1\AppData\Local\Temp\ccfBhFEg.s:2059   .text.I2C_ClearITPendingBit:0000000000000034 .L0 
C:\Users\SOLDER~1\AppData\Local\Temp\ccfBhFEg.s:2062   .text.I2C_ClearITPendingBit:000000000000003a .L0 
C:\Users\SOLDER~1\AppData\Local\Temp\ccfBhFEg.s:2064   .text.I2C_ClearITPendingBit:000000000000003e .L0 
C:\Users\SOLDER~1\AppData\Local\Temp\ccfBhFEg.s:2065   .text.I2C_ClearITPendingBit:000000000000003e .L0 
C:\Users\SOLDER~1\AppData\Local\Temp\ccfBhFEg.s:2067   .text.I2C_ClearITPendingBit:0000000000000040 .L0 
C:\Users\SOLDER~1\AppData\Local\Temp\ccfBhFEg.s:2069   .text.I2C_ClearITPendingBit:0000000000000042 .L0 
C:\Users\SOLDER~1\AppData\Local\Temp\ccfBhFEg.s:33455  .debug_line_str:0000000000000065 .L0 
C:\Users\SOLDER~1\AppData\Local\Temp\ccfBhFEg.s:33455  .debug_line_str:00000000000000af .L0 
C:\Users\SOLDER~1\AppData\Local\Temp\ccfBhFEg.s:33455  .debug_line_str:00000000000000bb .L0 
C:\Users\SOLDER~1\AppData\Local\Temp\ccfBhFEg.s:33455  .debug_line_str:0000000000000108 .L0 
C:\Users\SOLDER~1\AppData\Local\Temp\ccfBhFEg.s:33455  .debug_line_str:0000000000000151 .L0 
C:\Users\SOLDER~1\AppData\Local\Temp\ccfBhFEg.s:33455  .debug_line_str:000000000000015d .L0 
C:\Users\SOLDER~1\AppData\Local\Temp\ccfBhFEg.s:33455  .debug_line_str:00000000000001b1 .L0 
C:\Users\SOLDER~1\AppData\Local\Temp\ccfBhFEg.s:33455  .debug_line_str:00000000000001f6 .L0 
C:\Users\SOLDER~1\AppData\Local\Temp\ccfBhFEg.s:33455  .debug_line_str:0000000000000205 .L0 
C:\Users\SOLDER~1\AppData\Local\Temp\ccfBhFEg.s:33455  .debug_line_str:0000000000000214 .L0 
C:\Users\SOLDER~1\AppData\Local\Temp\ccfBhFEg.s:33455  .debug_line_str:0000000000000225 .L0 
C:\Users\SOLDER~1\AppData\Local\Temp\ccfBhFEg.s:33455  .debug_line_str:000000000000022f .L0 
C:\Users\SOLDER~1\AppData\Local\Temp\ccfBhFEg.s:33455  .debug_line_str:000000000000023c .L0 
GAS LISTING C:\Users\SOLDER~1\AppData\Local\Temp\ccfBhFEg.s 			page 67


C:\Users\SOLDER~1\AppData\Local\Temp\ccfBhFEg.s:33455  .debug_line_str:0000000000000247 .L0 
C:\Users\SOLDER~1\AppData\Local\Temp\ccfBhFEg.s:33455  .debug_line_str:0000000000000256 .L0 
C:\Users\SOLDER~1\AppData\Local\Temp\ccfBhFEg.s:33455  .debug_line_str:0000000000000265 .L0 
C:\Users\SOLDER~1\AppData\Local\Temp\ccfBhFEg.s:33455  .debug_line_str:000000000000026e .L0 
C:\Users\SOLDER~1\AppData\Local\Temp\ccfBhFEg.s:33455  .debug_line_str:0000000000000277 .L0 
C:\Users\SOLDER~1\AppData\Local\Temp\ccfBhFEg.s:33455  .debug_line_str:0000000000000282 .L0 
C:\Users\SOLDER~1\AppData\Local\Temp\ccfBhFEg.s:33455  .debug_line_str:0000000000000294 .L0 
C:\Users\SOLDER~1\AppData\Local\Temp\ccfBhFEg.s:33455  .debug_line_str:000000000000029e .L0 
C:\Users\SOLDER~1\AppData\Local\Temp\ccfBhFEg.s:33455  .debug_line_str:00000000000002ae .L0 
C:\Users\SOLDER~1\AppData\Local\Temp\ccfBhFEg.s:33455  .debug_line_str:00000000000002bd .L0 
C:\Users\SOLDER~1\AppData\Local\Temp\ccfBhFEg.s:33455  .debug_line_str:00000000000002cc .L0 
C:\Users\SOLDER~1\AppData\Local\Temp\ccfBhFEg.s:33455  .debug_line_str:00000000000002db .L0 
C:\Users\SOLDER~1\AppData\Local\Temp\ccfBhFEg.s:33455  .debug_line_str:00000000000002ea .L0 
C:\Users\SOLDER~1\AppData\Local\Temp\ccfBhFEg.s:33455  .debug_line_str:00000000000002fc .L0 
C:\Users\SOLDER~1\AppData\Local\Temp\ccfBhFEg.s:33455  .debug_line_str:000000000000030b .L0 
C:\Users\SOLDER~1\AppData\Local\Temp\ccfBhFEg.s:33455  .debug_line_str:000000000000031b .L0 
C:\Users\SOLDER~1\AppData\Local\Temp\ccfBhFEg.s:33455  .debug_line_str:000000000000032c .L0 
C:\Users\SOLDER~1\AppData\Local\Temp\ccfBhFEg.s:33455  .debug_line_str:000000000000033c .L0 
C:\Users\SOLDER~1\AppData\Local\Temp\ccfBhFEg.s:33455  .debug_line_str:000000000000034c .L0 
C:\Users\SOLDER~1\AppData\Local\Temp\ccfBhFEg.s:33455  .debug_line_str:000000000000035b .L0 
C:\Users\SOLDER~1\AppData\Local\Temp\ccfBhFEg.s:33455  .debug_line_str:000000000000036a .L0 
C:\Users\SOLDER~1\AppData\Local\Temp\ccfBhFEg.s:33455  .debug_line_str:0000000000000379 .L0 
C:\Users\SOLDER~1\AppData\Local\Temp\ccfBhFEg.s:33455  .debug_line_str:0000000000000388 .L0 
C:\Users\SOLDER~1\AppData\Local\Temp\ccfBhFEg.s:33455  .debug_line_str:0000000000000399 .L0 
C:\Users\SOLDER~1\AppData\Local\Temp\ccfBhFEg.s:33455  .debug_line_str:00000000000003a9 .L0 
C:\Users\SOLDER~1\AppData\Local\Temp\ccfBhFEg.s:66     .text.I2C_DeInit:0000000000000060 .L0 
C:\Users\SOLDER~1\AppData\Local\Temp\ccfBhFEg.s:328    .text.I2C_Init:0000000000000226 .L0 
C:\Users\SOLDER~1\AppData\Local\Temp\ccfBhFEg.s:377    .text.I2C_StructInit:0000000000000048 .L0 
C:\Users\SOLDER~1\AppData\Local\Temp\ccfBhFEg.s:433    .text.I2C_Cmd:0000000000000050 .L0 
C:\Users\SOLDER~1\AppData\Local\Temp\ccfBhFEg.s:493    .text.I2C_DMACmd:000000000000005e .L0 
C:\Users\SOLDER~1\AppData\Local\Temp\ccfBhFEg.s:552    .text.I2C_DMALastTransferCmd:0000000000000058 .L0 
C:\Users\SOLDER~1\AppData\Local\Temp\ccfBhFEg.s:608    .text.I2C_GenerateSTART:0000000000000052 .L0 
C:\Users\SOLDER~1\AppData\Local\Temp\ccfBhFEg.s:664    .text.I2C_GenerateSTOP:0000000000000052 .L0 
C:\Users\SOLDER~1\AppData\Local\Temp\ccfBhFEg.s:720    .text.I2C_AcknowledgeConfig:0000000000000052 .L0 
C:\Users\SOLDER~1\AppData\Local\Temp\ccfBhFEg.s:775    .text.I2C_OwnAddress2Config:000000000000005c .L0 
C:\Users\SOLDER~1\AppData\Local\Temp\ccfBhFEg.s:831    .text.I2C_DualAddressCmd:0000000000000050 .L0 
C:\Users\SOLDER~1\AppData\Local\Temp\ccfBhFEg.s:887    .text.I2C_GeneralCallCmd:0000000000000052 .L0 
C:\Users\SOLDER~1\AppData\Local\Temp\ccfBhFEg.s:951    .text.I2C_ITConfig:0000000000000066 .L0 
C:\Users\SOLDER~1\AppData\Local\Temp\ccfBhFEg.s:985    .text.I2C_SendData:0000000000000028 .L0 
C:\Users\SOLDER~1\AppData\Local\Temp\ccfBhFEg.s:1018   .text.I2C_ReceiveData:0000000000000020 .L0 
C:\Users\SOLDER~1\AppData\Local\Temp\ccfBhFEg.s:1069   .text.I2C_Send7bitAddress:000000000000004e .L0 
C:\Users\SOLDER~1\AppData\Local\Temp\ccfBhFEg.s:1114   .text.I2C_ReadRegister:000000000000003c .L0 
C:\Users\SOLDER~1\AppData\Local\Temp\ccfBhFEg.s:1173   .text.I2C_SoftwareResetCmd:0000000000000058 .L0 
C:\Users\SOLDER~1\AppData\Local\Temp\ccfBhFEg.s:1235   .text.I2C_NACKPositionConfig:0000000000000064 .L0 
C:\Users\SOLDER~1\AppData\Local\Temp\ccfBhFEg.s:1296   .text.I2C_SMBusAlertConfig:000000000000005e .L0 
C:\Users\SOLDER~1\AppData\Local\Temp\ccfBhFEg.s:1355   .text.I2C_TransmitPEC:0000000000000058 .L0 
C:\Users\SOLDER~1\AppData\Local\Temp\ccfBhFEg.s:1417   .text.I2C_PECPositionConfig:0000000000000064 .L0 
C:\Users\SOLDER~1\AppData\Local\Temp\ccfBhFEg.s:1473   .text.I2C_CalculatePEC:0000000000000052 .L0 
C:\Users\SOLDER~1\AppData\Local\Temp\ccfBhFEg.s:1509   .text.I2C_GetPEC:0000000000000026 .L0 
C:\Users\SOLDER~1\AppData\Local\Temp\ccfBhFEg.s:1565   .text.I2C_ARPCmd:0000000000000050 .L0 
C:\Users\SOLDER~1\AppData\Local\Temp\ccfBhFEg.s:1621   .text.I2C_StretchClockCmd:0000000000000052 .L0 
C:\Users\SOLDER~1\AppData\Local\Temp\ccfBhFEg.s:1682   .text.I2C_FastModeDutyCycleConfig:000000000000005e .L0 
C:\Users\SOLDER~1\AppData\Local\Temp\ccfBhFEg.s:1761   .text.I2C_CheckEvent:0000000000000084 .L0 
C:\Users\SOLDER~1\AppData\Local\Temp\ccfBhFEg.s:1822   .text.I2C_GetLastEvent:000000000000005e .L0 
C:\Users\SOLDER~1\AppData\Local\Temp\ccfBhFEg.s:1908   .text.I2C_GetFlagStatus:0000000000000088 .L0 
C:\Users\SOLDER~1\AppData\Local\Temp\ccfBhFEg.s:1953   .text.I2C_ClearFlag:0000000000000042 .L0 
C:\Users\SOLDER~1\AppData\Local\Temp\ccfBhFEg.s:2027   .text.I2C_GetITStatus:0000000000000072 .L0 
GAS LISTING C:\Users\SOLDER~1\AppData\Local\Temp\ccfBhFEg.s 			page 68


C:\Users\SOLDER~1\AppData\Local\Temp\ccfBhFEg.s:2072   .text.I2C_ClearITPendingBit:0000000000000042 .L0 
                     .debug_frame:0000000000000000 .L0 
C:\Users\SOLDER~1\AppData\Local\Temp\ccfBhFEg.s:43     .text.I2C_DeInit:000000000000003a .L2
C:\Users\SOLDER~1\AppData\Local\Temp\ccfBhFEg.s:52     .text.I2C_DeInit:0000000000000056 .L4
C:\Users\SOLDER~1\AppData\Local\Temp\ccfBhFEg.s:180    .text.I2C_Init:00000000000000f8 .L6
C:\Users\SOLDER~1\AppData\Local\Temp\ccfBhFEg.s:164    .text.I2C_Init:00000000000000d4 .L7
C:\Users\SOLDER~1\AppData\Local\Temp\ccfBhFEg.s:261    .text.I2C_Init:00000000000001a2 .L8
C:\Users\SOLDER~1\AppData\Local\Temp\ccfBhFEg.s:201    .text.I2C_Init:0000000000000120 .L9
C:\Users\SOLDER~1\AppData\Local\Temp\ccfBhFEg.s:222    .text.I2C_Init:000000000000014a .L10
C:\Users\SOLDER~1\AppData\Local\Temp\ccfBhFEg.s:234    .text.I2C_Init:0000000000000162 .L11
C:\Users\SOLDER~1\AppData\Local\Temp\ccfBhFEg.s:409    .text.I2C_Cmd:0000000000000030 .L14
C:\Users\SOLDER~1\AppData\Local\Temp\ccfBhFEg.s:421    .text.I2C_Cmd:0000000000000048 .L16
C:\Users\SOLDER~1\AppData\Local\Temp\ccfBhFEg.s:467    .text.I2C_DMACmd:0000000000000036 .L18
C:\Users\SOLDER~1\AppData\Local\Temp\ccfBhFEg.s:481    .text.I2C_DMACmd:0000000000000056 .L20
C:\Users\SOLDER~1\AppData\Local\Temp\ccfBhFEg.s:526    .text.I2C_DMALastTransferCmd:0000000000000032 .L22
C:\Users\SOLDER~1\AppData\Local\Temp\ccfBhFEg.s:540    .text.I2C_DMALastTransferCmd:0000000000000050 .L24
C:\Users\SOLDER~1\AppData\Local\Temp\ccfBhFEg.s:584    .text.I2C_GenerateSTART:0000000000000030 .L26
C:\Users\SOLDER~1\AppData\Local\Temp\ccfBhFEg.s:596    .text.I2C_GenerateSTART:000000000000004a .L28
C:\Users\SOLDER~1\AppData\Local\Temp\ccfBhFEg.s:640    .text.I2C_GenerateSTOP:0000000000000030 .L30
C:\Users\SOLDER~1\AppData\Local\Temp\ccfBhFEg.s:652    .text.I2C_GenerateSTOP:000000000000004a .L32
C:\Users\SOLDER~1\AppData\Local\Temp\ccfBhFEg.s:696    .text.I2C_AcknowledgeConfig:0000000000000030 .L34
C:\Users\SOLDER~1\AppData\Local\Temp\ccfBhFEg.s:708    .text.I2C_AcknowledgeConfig:000000000000004a .L36
C:\Users\SOLDER~1\AppData\Local\Temp\ccfBhFEg.s:807    .text.I2C_DualAddressCmd:0000000000000030 .L39
C:\Users\SOLDER~1\AppData\Local\Temp\ccfBhFEg.s:819    .text.I2C_DualAddressCmd:0000000000000048 .L41
C:\Users\SOLDER~1\AppData\Local\Temp\ccfBhFEg.s:863    .text.I2C_GeneralCallCmd:0000000000000030 .L43
C:\Users\SOLDER~1\AppData\Local\Temp\ccfBhFEg.s:875    .text.I2C_GeneralCallCmd:000000000000004a .L45
C:\Users\SOLDER~1\AppData\Local\Temp\ccfBhFEg.s:922    .text.I2C_ITConfig:0000000000000038 .L47
C:\Users\SOLDER~1\AppData\Local\Temp\ccfBhFEg.s:939    .text.I2C_ITConfig:000000000000005e .L49
C:\Users\SOLDER~1\AppData\Local\Temp\ccfBhFEg.s:1046   .text.I2C_Send7bitAddress:000000000000002c .L54
C:\Users\SOLDER~1\AppData\Local\Temp\ccfBhFEg.s:1051   .text.I2C_Send7bitAddress:0000000000000036 .L55
C:\Users\SOLDER~1\AppData\Local\Temp\ccfBhFEg.s:1147   .text.I2C_SoftwareResetCmd:0000000000000032 .L59
C:\Users\SOLDER~1\AppData\Local\Temp\ccfBhFEg.s:1161   .text.I2C_SoftwareResetCmd:0000000000000050 .L61
C:\Users\SOLDER~1\AppData\Local\Temp\ccfBhFEg.s:1209   .text.I2C_NACKPositionConfig:000000000000003c .L63
C:\Users\SOLDER~1\AppData\Local\Temp\ccfBhFEg.s:1223   .text.I2C_NACKPositionConfig:000000000000005c .L65
C:\Users\SOLDER~1\AppData\Local\Temp\ccfBhFEg.s:1270   .text.I2C_SMBusAlertConfig:0000000000000038 .L67
C:\Users\SOLDER~1\AppData\Local\Temp\ccfBhFEg.s:1284   .text.I2C_SMBusAlertConfig:0000000000000056 .L69
C:\Users\SOLDER~1\AppData\Local\Temp\ccfBhFEg.s:1329   .text.I2C_TransmitPEC:0000000000000032 .L71
C:\Users\SOLDER~1\AppData\Local\Temp\ccfBhFEg.s:1343   .text.I2C_TransmitPEC:0000000000000050 .L73
C:\Users\SOLDER~1\AppData\Local\Temp\ccfBhFEg.s:1391   .text.I2C_PECPositionConfig:000000000000003c .L75
C:\Users\SOLDER~1\AppData\Local\Temp\ccfBhFEg.s:1405   .text.I2C_PECPositionConfig:000000000000005c .L77
C:\Users\SOLDER~1\AppData\Local\Temp\ccfBhFEg.s:1449   .text.I2C_CalculatePEC:0000000000000030 .L79
C:\Users\SOLDER~1\AppData\Local\Temp\ccfBhFEg.s:1461   .text.I2C_CalculatePEC:000000000000004a .L81
C:\Users\SOLDER~1\AppData\Local\Temp\ccfBhFEg.s:1541   .text.I2C_ARPCmd:0000000000000030 .L85
C:\Users\SOLDER~1\AppData\Local\Temp\ccfBhFEg.s:1553   .text.I2C_ARPCmd:0000000000000048 .L87
C:\Users\SOLDER~1\AppData\Local\Temp\ccfBhFEg.s:1597   .text.I2C_StretchClockCmd:0000000000000030 .L89
C:\Users\SOLDER~1\AppData\Local\Temp\ccfBhFEg.s:1609   .text.I2C_StretchClockCmd:000000000000004a .L91
C:\Users\SOLDER~1\AppData\Local\Temp\ccfBhFEg.s:1657   .text.I2C_FastModeDutyCycleConfig:000000000000003a .L93
C:\Users\SOLDER~1\AppData\Local\Temp\ccfBhFEg.s:1670   .text.I2C_FastModeDutyCycleConfig:0000000000000056 .L95
C:\Users\SOLDER~1\AppData\Local\Temp\ccfBhFEg.s:1744   .text.I2C_CheckEvent:0000000000000074 .L97
C:\Users\SOLDER~1\AppData\Local\Temp\ccfBhFEg.s:1747   .text.I2C_CheckEvent:0000000000000078 .L98
C:\Users\SOLDER~1\AppData\Local\Temp\ccfBhFEg.s:1868   .text.I2C_GetFlagStatus:000000000000004e .L103
C:\Users\SOLDER~1\AppData\Local\Temp\ccfBhFEg.s:1877   .text.I2C_GetFlagStatus:0000000000000062 .L104
C:\Users\SOLDER~1\AppData\Local\Temp\ccfBhFEg.s:1891   .text.I2C_GetFlagStatus:0000000000000078 .L105
C:\Users\SOLDER~1\AppData\Local\Temp\ccfBhFEg.s:1894   .text.I2C_GetFlagStatus:000000000000007c .L106
C:\Users\SOLDER~1\AppData\Local\Temp\ccfBhFEg.s:2010   .text.I2C_GetITStatus:0000000000000062 .L110
C:\Users\SOLDER~1\AppData\Local\Temp\ccfBhFEg.s:2013   .text.I2C_GetITStatus:0000000000000066 .L111
C:\Users\SOLDER~1\AppData\Local\Temp\ccfBhFEg.s:3439   .debug_abbrev:0000000000000000 .Ldebug_abbrev0
GAS LISTING C:\Users\SOLDER~1\AppData\Local\Temp\ccfBhFEg.s 			page 69


C:\Users\SOLDER~1\AppData\Local\Temp\ccfBhFEg.s:21824  .debug_str:0000000000000642 .LASF5863
C:\Users\SOLDER~1\AppData\Local\Temp\ccfBhFEg.s:33451  .debug_line_str:0000000000000000 .LASF0
C:\Users\SOLDER~1\AppData\Local\Temp\ccfBhFEg.s:33453  .debug_line_str:000000000000001b .LASF1
C:\Users\SOLDER~1\AppData\Local\Temp\ccfBhFEg.s:4000   .debug_rnglists:000000000000000c .LLRL0
C:\Users\SOLDER~1\AppData\Local\Temp\ccfBhFEg.s:21722  .debug_line:0000000000000000 .Ldebug_line0
C:\Users\SOLDER~1\AppData\Local\Temp\ccfBhFEg.s:4103   .debug_macro:0000000000000000 .Ldebug_macro0
C:\Users\SOLDER~1\AppData\Local\Temp\ccfBhFEg.s:33388  .debug_str:000000000002f341 .LASF5747
C:\Users\SOLDER~1\AppData\Local\Temp\ccfBhFEg.s:30998  .debug_str:0000000000025812 .LASF5748
C:\Users\SOLDER~1\AppData\Local\Temp\ccfBhFEg.s:24018  .debug_str:00000000000094e5 .LASF5751
C:\Users\SOLDER~1\AppData\Local\Temp\ccfBhFEg.s:27588  .debug_str:0000000000017cb7 .LASF5749
C:\Users\SOLDER~1\AppData\Local\Temp\ccfBhFEg.s:26864  .debug_str:0000000000014e89 .LASF5750
C:\Users\SOLDER~1\AppData\Local\Temp\ccfBhFEg.s:25410  .debug_str:000000000000ef5b .LASF5752
C:\Users\SOLDER~1\AppData\Local\Temp\ccfBhFEg.s:26984  .debug_str:0000000000015666 .LASF5753
C:\Users\SOLDER~1\AppData\Local\Temp\ccfBhFEg.s:31394  .debug_str:000000000002724c .LASF5754
C:\Users\SOLDER~1\AppData\Local\Temp\ccfBhFEg.s:28308  .debug_str:000000000001aac9 .LASF5755
C:\Users\SOLDER~1\AppData\Local\Temp\ccfBhFEg.s:21836  .debug_str:000000000000079e .LASF5756
C:\Users\SOLDER~1\AppData\Local\Temp\ccfBhFEg.s:21746  .debug_str:0000000000000170 .LASF5757
C:\Users\SOLDER~1\AppData\Local\Temp\ccfBhFEg.s:31484  .debug_str:000000000002780a .LASF5758
C:\Users\SOLDER~1\AppData\Local\Temp\ccfBhFEg.s:31054  .debug_str:0000000000025b9f .LASF5759
C:\Users\SOLDER~1\AppData\Local\Temp\ccfBhFEg.s:31410  .debug_str:0000000000027337 .LASF5760
C:\Users\SOLDER~1\AppData\Local\Temp\ccfBhFEg.s:22578  .debug_str:00000000000037c6 .LASF5761
C:\Users\SOLDER~1\AppData\Local\Temp\ccfBhFEg.s:25170  .debug_str:000000000000dfd1 .LASF5762
C:\Users\SOLDER~1\AppData\Local\Temp\ccfBhFEg.s:32670  .debug_str:000000000002c51d .LASF5763
C:\Users\SOLDER~1\AppData\Local\Temp\ccfBhFEg.s:31098  .debug_str:0000000000025e7c .LASF5764
C:\Users\SOLDER~1\AppData\Local\Temp\ccfBhFEg.s:23836  .debug_str:00000000000088f1 .LASF5765
C:\Users\SOLDER~1\AppData\Local\Temp\ccfBhFEg.s:25392  .debug_str:000000000000ee59 .LASF5766
C:\Users\SOLDER~1\AppData\Local\Temp\ccfBhFEg.s:27340  .debug_str:0000000000016c78 .LASF5767
C:\Users\SOLDER~1\AppData\Local\Temp\ccfBhFEg.s:31142  .debug_str:0000000000026172 .LASF5768
C:\Users\SOLDER~1\AppData\Local\Temp\ccfBhFEg.s:24398  .debug_str:000000000000adb0 .LASF5769
C:\Users\SOLDER~1\AppData\Local\Temp\ccfBhFEg.s:28848  .debug_str:000000000001cd3f .LASF5770
C:\Users\SOLDER~1\AppData\Local\Temp\ccfBhFEg.s:28128  .debug_str:0000000000019fc2 .LASF5771
C:\Users\SOLDER~1\AppData\Local\Temp\ccfBhFEg.s:24588  .debug_str:000000000000b9cb .LASF5772
C:\Users\SOLDER~1\AppData\Local\Temp\ccfBhFEg.s:28130  .debug_str:0000000000019fc8 .LASF5773
C:\Users\SOLDER~1\AppData\Local\Temp\ccfBhFEg.s:27064  .debug_str:0000000000015b9f .LASF5774
C:\Users\SOLDER~1\AppData\Local\Temp\ccfBhFEg.s:30282  .debug_str:0000000000022976 .LASF5775
C:\Users\SOLDER~1\AppData\Local\Temp\ccfBhFEg.s:27066  .debug_str:0000000000015ba9 .LASF5776
C:\Users\SOLDER~1\AppData\Local\Temp\ccfBhFEg.s:30284  .debug_str:000000000002297d .LASF5777
C:\Users\SOLDER~1\AppData\Local\Temp\ccfBhFEg.s:24598  .debug_str:000000000000ba4b .LASF5778
C:\Users\SOLDER~1\AppData\Local\Temp\ccfBhFEg.s:25140  .debug_str:000000000000ddde .LASF5779
C:\Users\SOLDER~1\AppData\Local\Temp\ccfBhFEg.s:24602  .debug_str:000000000000ba82 .LASF5780
C:\Users\SOLDER~1\AppData\Local\Temp\ccfBhFEg.s:33194  .debug_str:000000000002e71f .LASF5781
C:\Users\SOLDER~1\AppData\Local\Temp\ccfBhFEg.s:24606  .debug_str:000000000000bab1 .LASF5782
C:\Users\SOLDER~1\AppData\Local\Temp\ccfBhFEg.s:33196  .debug_str:000000000002e725 .LASF5783
C:\Users\SOLDER~1\AppData\Local\Temp\ccfBhFEg.s:27074  .debug_str:0000000000015c18 .LASF5784
C:\Users\SOLDER~1\AppData\Local\Temp\ccfBhFEg.s:31310  .debug_str:0000000000026c9f .LASF5785
C:\Users\SOLDER~1\AppData\Local\Temp\ccfBhFEg.s:27076  .debug_str:0000000000015c22 .LASF5786
C:\Users\SOLDER~1\AppData\Local\Temp\ccfBhFEg.s:27078  .debug_str:0000000000015c2c .LASF5787
C:\Users\SOLDER~1\AppData\Local\Temp\ccfBhFEg.s:28362  .debug_str:000000000001ae4e .LASF5788
C:\Users\SOLDER~1\AppData\Local\Temp\ccfBhFEg.s:29718  .debug_str:00000000000205dd .LASF5789
C:\Users\SOLDER~1\AppData\Local\Temp\ccfBhFEg.s:30098  .debug_str:0000000000021e37 .LASF5790
C:\Users\SOLDER~1\AppData\Local\Temp\ccfBhFEg.s:28754  .debug_str:000000000001c72c .LASF5791
C:\Users\SOLDER~1\AppData\Local\Temp\ccfBhFEg.s:32372  .debug_str:000000000002b1b4 .LASF5792
C:\Users\SOLDER~1\AppData\Local\Temp\ccfBhFEg.s:31606  .debug_str:0000000000027fe5 .LASF5793
C:\Users\SOLDER~1\AppData\Local\Temp\ccfBhFEg.s:22830  .debug_str:00000000000047d1 .LASF5794
C:\Users\SOLDER~1\AppData\Local\Temp\ccfBhFEg.s:28134  .debug_str:0000000000019fe2 .LASF5795
C:\Users\SOLDER~1\AppData\Local\Temp\ccfBhFEg.s:23960  .debug_str:000000000000913d .LASF5796
C:\Users\SOLDER~1\AppData\Local\Temp\ccfBhFEg.s:27758  .debug_str:00000000000187ee .LASF5797
GAS LISTING C:\Users\SOLDER~1\AppData\Local\Temp\ccfBhFEg.s 			page 70


C:\Users\SOLDER~1\AppData\Local\Temp\ccfBhFEg.s:27136  .debug_str:0000000000015fcc .LASF5798
C:\Users\SOLDER~1\AppData\Local\Temp\ccfBhFEg.s:25442  .debug_str:000000000000f162 .LASF5799
C:\Users\SOLDER~1\AppData\Local\Temp\ccfBhFEg.s:30088  .debug_str:0000000000021daf .LASF5800
C:\Users\SOLDER~1\AppData\Local\Temp\ccfBhFEg.s:30472  .debug_str:00000000000235ce .LASF5801
C:\Users\SOLDER~1\AppData\Local\Temp\ccfBhFEg.s:30018  .debug_str:000000000002194d .LASF5802
C:\Users\SOLDER~1\AppData\Local\Temp\ccfBhFEg.s:21768  .debug_str:00000000000002a8 .LASF5803
C:\Users\SOLDER~1\AppData\Local\Temp\ccfBhFEg.s:25998  .debug_str:0000000000011567 .LASF5809
C:\Users\SOLDER~1\AppData\Local\Temp\ccfBhFEg.s:2032   .text.I2C_ClearITPendingBit:0000000000000000 .LFB48
C:\Users\SOLDER~1\AppData\Local\Temp\ccfBhFEg.s:2070   .text.I2C_ClearITPendingBit:0000000000000042 .LFE48
C:\Users\SOLDER~1\AppData\Local\Temp\ccfBhFEg.s:25928  .debug_str:00000000000110ed .LASF5804
C:\Users\SOLDER~1\AppData\Local\Temp\ccfBhFEg.s:28322  .debug_str:000000000001abac .LASF5805
C:\Users\SOLDER~1\AppData\Local\Temp\ccfBhFEg.s:23706  .debug_str:000000000000807e .LASF5806
C:\Users\SOLDER~1\AppData\Local\Temp\ccfBhFEg.s:27918  .debug_str:000000000001921e .LASF5812
C:\Users\SOLDER~1\AppData\Local\Temp\ccfBhFEg.s:1958   .text.I2C_GetITStatus:0000000000000000 .LFB47
C:\Users\SOLDER~1\AppData\Local\Temp\ccfBhFEg.s:2025   .text.I2C_GetITStatus:0000000000000072 .LFE47
C:\Users\SOLDER~1\AppData\Local\Temp\ccfBhFEg.s:26348  .debug_str:0000000000012b4a .LASF5807
C:\Users\SOLDER~1\AppData\Local\Temp\ccfBhFEg.s:32332  .debug_str:000000000002aef6 .LASF5808
C:\Users\SOLDER~1\AppData\Local\Temp\ccfBhFEg.s:31562  .debug_str:0000000000027d51 .LASF5810
C:\Users\SOLDER~1\AppData\Local\Temp\ccfBhFEg.s:1913   .text.I2C_ClearFlag:0000000000000000 .LFB46
C:\Users\SOLDER~1\AppData\Local\Temp\ccfBhFEg.s:1951   .text.I2C_ClearFlag:0000000000000042 .LFE46
C:\Users\SOLDER~1\AppData\Local\Temp\ccfBhFEg.s:29794  .debug_str:0000000000020ab2 .LASF5811
C:\Users\SOLDER~1\AppData\Local\Temp\ccfBhFEg.s:24470  .debug_str:000000000000b23d .LASF5813
C:\Users\SOLDER~1\AppData\Local\Temp\ccfBhFEg.s:1827   .text.I2C_GetFlagStatus:0000000000000000 .LFB45
C:\Users\SOLDER~1\AppData\Local\Temp\ccfBhFEg.s:1906   .text.I2C_GetFlagStatus:0000000000000088 .LFE45
C:\Users\SOLDER~1\AppData\Local\Temp\ccfBhFEg.s:23978  .debug_str:0000000000009262 .LASF5814
C:\Users\SOLDER~1\AppData\Local\Temp\ccfBhFEg.s:26008  .debug_str:00000000000115d3 .LASF5815
C:\Users\SOLDER~1\AppData\Local\Temp\ccfBhFEg.s:23980  .debug_str:0000000000009269 .LASF5816
C:\Users\SOLDER~1\AppData\Local\Temp\ccfBhFEg.s:1766   .text.I2C_GetLastEvent:0000000000000000 .LFB44
C:\Users\SOLDER~1\AppData\Local\Temp\ccfBhFEg.s:1820   .text.I2C_GetLastEvent:000000000000005e .LFE44
C:\Users\SOLDER~1\AppData\Local\Temp\ccfBhFEg.s:27376  .debug_str:0000000000016ecc .LASF5817
C:\Users\SOLDER~1\AppData\Local\Temp\ccfBhFEg.s:29566  .debug_str:000000000001fc6b .LASF5818
C:\Users\SOLDER~1\AppData\Local\Temp\ccfBhFEg.s:31814  .debug_str:0000000000028daf .LASF5819
C:\Users\SOLDER~1\AppData\Local\Temp\ccfBhFEg.s:24430  .debug_str:000000000000afce .LASF5820
C:\Users\SOLDER~1\AppData\Local\Temp\ccfBhFEg.s:1687   .text.I2C_CheckEvent:0000000000000000 .LFB43
C:\Users\SOLDER~1\AppData\Local\Temp\ccfBhFEg.s:1759   .text.I2C_CheckEvent:0000000000000084 .LFE43
C:\Users\SOLDER~1\AppData\Local\Temp\ccfBhFEg.s:23506  .debug_str:00000000000073a0 .LASF5821
C:\Users\SOLDER~1\AppData\Local\Temp\ccfBhFEg.s:24858  .debug_str:000000000000cb80 .LASF5822
C:\Users\SOLDER~1\AppData\Local\Temp\ccfBhFEg.s:22088  .debug_str:000000000000184c .LASF5823
C:\Users\SOLDER~1\AppData\Local\Temp\ccfBhFEg.s:1626   .text.I2C_FastModeDutyCycleConfig:0000000000000000 .LFB42
C:\Users\SOLDER~1\AppData\Local\Temp\ccfBhFEg.s:1680   .text.I2C_FastModeDutyCycleConfig:000000000000005e .LFE42
C:\Users\SOLDER~1\AppData\Local\Temp\ccfBhFEg.s:28374  .debug_str:000000000001aeee .LASF5824
C:\Users\SOLDER~1\AppData\Local\Temp\ccfBhFEg.s:1570   .text.I2C_StretchClockCmd:0000000000000000 .LFB41
C:\Users\SOLDER~1\AppData\Local\Temp\ccfBhFEg.s:1619   .text.I2C_StretchClockCmd:0000000000000052 .LFE41
C:\Users\SOLDER~1\AppData\Local\Temp\ccfBhFEg.s:29344  .debug_str:000000000001ed81 .LASF5825
C:\Users\SOLDER~1\AppData\Local\Temp\ccfBhFEg.s:21760  .debug_str:0000000000000235 .LASF5826
C:\Users\SOLDER~1\AppData\Local\Temp\ccfBhFEg.s:1514   .text.I2C_ARPCmd:0000000000000000 .LFB40
C:\Users\SOLDER~1\AppData\Local\Temp\ccfBhFEg.s:1563   .text.I2C_ARPCmd:0000000000000050 .LFE40
C:\Users\SOLDER~1\AppData\Local\Temp\ccfBhFEg.s:24720  .debug_str:000000000000c20f .LASF5827
C:\Users\SOLDER~1\AppData\Local\Temp\ccfBhFEg.s:1478   .text.I2C_GetPEC:0000000000000000 .LFB39
C:\Users\SOLDER~1\AppData\Local\Temp\ccfBhFEg.s:1507   .text.I2C_GetPEC:0000000000000026 .LFE39
C:\Users\SOLDER~1\AppData\Local\Temp\ccfBhFEg.s:32266  .debug_str:000000000002aafe .LASF5828
C:\Users\SOLDER~1\AppData\Local\Temp\ccfBhFEg.s:1422   .text.I2C_CalculatePEC:0000000000000000 .LFB38
C:\Users\SOLDER~1\AppData\Local\Temp\ccfBhFEg.s:1471   .text.I2C_CalculatePEC:0000000000000052 .LFE38
C:\Users\SOLDER~1\AppData\Local\Temp\ccfBhFEg.s:26660  .debug_str:000000000001408e .LASF5829
C:\Users\SOLDER~1\AppData\Local\Temp\ccfBhFEg.s:1360   .text.I2C_PECPositionConfig:0000000000000000 .LFB37
C:\Users\SOLDER~1\AppData\Local\Temp\ccfBhFEg.s:1415   .text.I2C_PECPositionConfig:0000000000000064 .LFE37
C:\Users\SOLDER~1\AppData\Local\Temp\ccfBhFEg.s:28812  .debug_str:000000000001cadc .LASF5830
GAS LISTING C:\Users\SOLDER~1\AppData\Local\Temp\ccfBhFEg.s 			page 71


C:\Users\SOLDER~1\AppData\Local\Temp\ccfBhFEg.s:24200  .debug_str:000000000000a0bc .LASF5831
C:\Users\SOLDER~1\AppData\Local\Temp\ccfBhFEg.s:1301   .text.I2C_TransmitPEC:0000000000000000 .LFB36
C:\Users\SOLDER~1\AppData\Local\Temp\ccfBhFEg.s:1353   .text.I2C_TransmitPEC:0000000000000058 .LFE36
C:\Users\SOLDER~1\AppData\Local\Temp\ccfBhFEg.s:23096  .debug_str:000000000000584c .LASF5832
C:\Users\SOLDER~1\AppData\Local\Temp\ccfBhFEg.s:1240   .text.I2C_SMBusAlertConfig:0000000000000000 .LFB35
C:\Users\SOLDER~1\AppData\Local\Temp\ccfBhFEg.s:1294   .text.I2C_SMBusAlertConfig:000000000000005e .LFE35
C:\Users\SOLDER~1\AppData\Local\Temp\ccfBhFEg.s:28618  .debug_str:000000000001be2c .LASF5833
C:\Users\SOLDER~1\AppData\Local\Temp\ccfBhFEg.s:23356  .debug_str:00000000000069d4 .LASF5834
C:\Users\SOLDER~1\AppData\Local\Temp\ccfBhFEg.s:1178   .text.I2C_NACKPositionConfig:0000000000000000 .LFB34
C:\Users\SOLDER~1\AppData\Local\Temp\ccfBhFEg.s:1233   .text.I2C_NACKPositionConfig:0000000000000064 .LFE34
C:\Users\SOLDER~1\AppData\Local\Temp\ccfBhFEg.s:28216  .debug_str:000000000001a4f4 .LASF5835
C:\Users\SOLDER~1\AppData\Local\Temp\ccfBhFEg.s:31250  .debug_str:00000000000268d3 .LASF5836
C:\Users\SOLDER~1\AppData\Local\Temp\ccfBhFEg.s:1119   .text.I2C_SoftwareResetCmd:0000000000000000 .LFB33
C:\Users\SOLDER~1\AppData\Local\Temp\ccfBhFEg.s:1171   .text.I2C_SoftwareResetCmd:0000000000000058 .LFE33
C:\Users\SOLDER~1\AppData\Local\Temp\ccfBhFEg.s:22358  .debug_str:00000000000029ef .LASF5837
C:\Users\SOLDER~1\AppData\Local\Temp\ccfBhFEg.s:1074   .text.I2C_ReadRegister:0000000000000000 .LFB32
C:\Users\SOLDER~1\AppData\Local\Temp\ccfBhFEg.s:1112   .text.I2C_ReadRegister:000000000000003c .LFE32
C:\Users\SOLDER~1\AppData\Local\Temp\ccfBhFEg.s:28944  .debug_str:000000000001d3a9 .LASF5838
C:\Users\SOLDER~1\AppData\Local\Temp\ccfBhFEg.s:28902  .debug_str:000000000001d0e0 .LASF5839
C:\Users\SOLDER~1\AppData\Local\Temp\ccfBhFEg.s:1023   .text.I2C_Send7bitAddress:0000000000000000 .LFB31
C:\Users\SOLDER~1\AppData\Local\Temp\ccfBhFEg.s:1067   .text.I2C_Send7bitAddress:000000000000004e .LFE31
C:\Users\SOLDER~1\AppData\Local\Temp\ccfBhFEg.s:24138  .debug_str:0000000000009c9d .LASF5840
C:\Users\SOLDER~1\AppData\Local\Temp\ccfBhFEg.s:30862  .debug_str:0000000000024f66 .LASF5841
C:\Users\SOLDER~1\AppData\Local\Temp\ccfBhFEg.s:24452  .debug_str:000000000000b120 .LASF5842
C:\Users\SOLDER~1\AppData\Local\Temp\ccfBhFEg.s:990    .text.I2C_ReceiveData:0000000000000000 .LFB30
C:\Users\SOLDER~1\AppData\Local\Temp\ccfBhFEg.s:1016   .text.I2C_ReceiveData:0000000000000020 .LFE30
C:\Users\SOLDER~1\AppData\Local\Temp\ccfBhFEg.s:24394  .debug_str:000000000000ad87 .LASF5843
C:\Users\SOLDER~1\AppData\Local\Temp\ccfBhFEg.s:956    .text.I2C_SendData:0000000000000000 .LFB29
C:\Users\SOLDER~1\AppData\Local\Temp\ccfBhFEg.s:983    .text.I2C_SendData:0000000000000028 .LFE29
C:\Users\SOLDER~1\AppData\Local\Temp\ccfBhFEg.s:32486  .debug_str:000000000002b950 .LASF5844
C:\Users\SOLDER~1\AppData\Local\Temp\ccfBhFEg.s:22224  .debug_str:000000000000210c .LASF5845
C:\Users\SOLDER~1\AppData\Local\Temp\ccfBhFEg.s:892    .text.I2C_ITConfig:0000000000000000 .LFB28
C:\Users\SOLDER~1\AppData\Local\Temp\ccfBhFEg.s:949    .text.I2C_ITConfig:0000000000000066 .LFE28
C:\Users\SOLDER~1\AppData\Local\Temp\ccfBhFEg.s:24056  .debug_str:000000000000976c .LASF5846
C:\Users\SOLDER~1\AppData\Local\Temp\ccfBhFEg.s:836    .text.I2C_GeneralCallCmd:0000000000000000 .LFB27
C:\Users\SOLDER~1\AppData\Local\Temp\ccfBhFEg.s:885    .text.I2C_GeneralCallCmd:0000000000000052 .LFE27
C:\Users\SOLDER~1\AppData\Local\Temp\ccfBhFEg.s:30522  .debug_str:00000000000238ea .LASF5847
C:\Users\SOLDER~1\AppData\Local\Temp\ccfBhFEg.s:780    .text.I2C_DualAddressCmd:0000000000000000 .LFB26
C:\Users\SOLDER~1\AppData\Local\Temp\ccfBhFEg.s:829    .text.I2C_DualAddressCmd:0000000000000050 .LFE26
C:\Users\SOLDER~1\AppData\Local\Temp\ccfBhFEg.s:31434  .debug_str:00000000000274c8 .LASF5848
C:\Users\SOLDER~1\AppData\Local\Temp\ccfBhFEg.s:725    .text.I2C_OwnAddress2Config:0000000000000000 .LFB25
C:\Users\SOLDER~1\AppData\Local\Temp\ccfBhFEg.s:773    .text.I2C_OwnAddress2Config:000000000000005c .LFE25
C:\Users\SOLDER~1\AppData\Local\Temp\ccfBhFEg.s:22384  .debug_str:0000000000002b60 .LASF5849
C:\Users\SOLDER~1\AppData\Local\Temp\ccfBhFEg.s:29656  .debug_str:00000000000201fa .LASF5850
C:\Users\SOLDER~1\AppData\Local\Temp\ccfBhFEg.s:669    .text.I2C_AcknowledgeConfig:0000000000000000 .LFB24
C:\Users\SOLDER~1\AppData\Local\Temp\ccfBhFEg.s:718    .text.I2C_AcknowledgeConfig:0000000000000052 .LFE24
C:\Users\SOLDER~1\AppData\Local\Temp\ccfBhFEg.s:25328  .debug_str:000000000000ea3b .LASF5851
C:\Users\SOLDER~1\AppData\Local\Temp\ccfBhFEg.s:613    .text.I2C_GenerateSTOP:0000000000000000 .LFB23
C:\Users\SOLDER~1\AppData\Local\Temp\ccfBhFEg.s:662    .text.I2C_GenerateSTOP:0000000000000052 .LFE23
C:\Users\SOLDER~1\AppData\Local\Temp\ccfBhFEg.s:28878  .debug_str:000000000001cf2b .LASF5852
C:\Users\SOLDER~1\AppData\Local\Temp\ccfBhFEg.s:557    .text.I2C_GenerateSTART:0000000000000000 .LFB22
C:\Users\SOLDER~1\AppData\Local\Temp\ccfBhFEg.s:606    .text.I2C_GenerateSTART:0000000000000052 .LFE22
C:\Users\SOLDER~1\AppData\Local\Temp\ccfBhFEg.s:22614  .debug_str:0000000000003a1b .LASF5853
C:\Users\SOLDER~1\AppData\Local\Temp\ccfBhFEg.s:498    .text.I2C_DMALastTransferCmd:0000000000000000 .LFB21
C:\Users\SOLDER~1\AppData\Local\Temp\ccfBhFEg.s:550    .text.I2C_DMALastTransferCmd:0000000000000058 .LFE21
C:\Users\SOLDER~1\AppData\Local\Temp\ccfBhFEg.s:26266  .debug_str:000000000001263c .LASF5854
C:\Users\SOLDER~1\AppData\Local\Temp\ccfBhFEg.s:438    .text.I2C_DMACmd:0000000000000000 .LFB20
GAS LISTING C:\Users\SOLDER~1\AppData\Local\Temp\ccfBhFEg.s 			page 72


C:\Users\SOLDER~1\AppData\Local\Temp\ccfBhFEg.s:491    .text.I2C_DMACmd:000000000000005e .LFE20
C:\Users\SOLDER~1\AppData\Local\Temp\ccfBhFEg.s:27770  .debug_str:00000000000188a5 .LASF5855
C:\Users\SOLDER~1\AppData\Local\Temp\ccfBhFEg.s:382    .text.I2C_Cmd:0000000000000000 .LFB19
C:\Users\SOLDER~1\AppData\Local\Temp\ccfBhFEg.s:431    .text.I2C_Cmd:0000000000000050 .LFE19
C:\Users\SOLDER~1\AppData\Local\Temp\ccfBhFEg.s:24228  .debug_str:000000000000a276 .LASF5856
C:\Users\SOLDER~1\AppData\Local\Temp\ccfBhFEg.s:333    .text.I2C_StructInit:0000000000000000 .LFB18
C:\Users\SOLDER~1\AppData\Local\Temp\ccfBhFEg.s:375    .text.I2C_StructInit:0000000000000048 .LFE18
C:\Users\SOLDER~1\AppData\Local\Temp\ccfBhFEg.s:30706  .debug_str:00000000000244f8 .LASF5857
C:\Users\SOLDER~1\AppData\Local\Temp\ccfBhFEg.s:31212  .debug_str:000000000002663e .LASF5858
C:\Users\SOLDER~1\AppData\Local\Temp\ccfBhFEg.s:71     .text.I2C_Init:0000000000000000 .LFB17
C:\Users\SOLDER~1\AppData\Local\Temp\ccfBhFEg.s:326    .text.I2C_Init:0000000000000226 .LFE17
C:\Users\SOLDER~1\AppData\Local\Temp\ccfBhFEg.s:30476  .debug_str:0000000000023603 .LASF5859
C:\Users\SOLDER~1\AppData\Local\Temp\ccfBhFEg.s:22362  .debug_str:0000000000002a19 .LASF5860
C:\Users\SOLDER~1\AppData\Local\Temp\ccfBhFEg.s:33374  .debug_str:000000000002f279 .LASF5861
C:\Users\SOLDER~1\AppData\Local\Temp\ccfBhFEg.s:33266  .debug_str:000000000002eb61 .LASF5862
C:\Users\SOLDER~1\AppData\Local\Temp\ccfBhFEg.s:26040  .debug_str:00000000000117cc .LASF5864
C:\Users\SOLDER~1\AppData\Local\Temp\ccfBhFEg.s:15     .text.I2C_DeInit:0000000000000000 .LFB16
C:\Users\SOLDER~1\AppData\Local\Temp\ccfBhFEg.s:64     .text.I2C_DeInit:0000000000000060 .LFE16
C:\Users\SOLDER~1\AppData\Local\Temp\ccfBhFEg.s:2081   .debug_info:0000000000000000 .Ldebug_info0
C:\Users\SOLDER~1\AppData\Local\Temp\ccfBhFEg.s:4449   .debug_macro:0000000000000000 .Ldebug_macro2
C:\Users\SOLDER~1\AppData\Local\Temp\ccfBhFEg.s:32240  .debug_str:000000000002a96e .LASF318
C:\Users\SOLDER~1\AppData\Local\Temp\ccfBhFEg.s:5402   .debug_macro:0000000000000000 .Ldebug_macro3
C:\Users\SOLDER~1\AppData\Local\Temp\ccfBhFEg.s:28206  .debug_str:000000000001a462 .LASF336
C:\Users\SOLDER~1\AppData\Local\Temp\ccfBhFEg.s:22782  .debug_str:00000000000044be .LASF337
C:\Users\SOLDER~1\AppData\Local\Temp\ccfBhFEg.s:30200  .debug_str:000000000002249e .LASF338
C:\Users\SOLDER~1\AppData\Local\Temp\ccfBhFEg.s:5458   .debug_macro:0000000000000000 .Ldebug_macro4
C:\Users\SOLDER~1\AppData\Local\Temp\ccfBhFEg.s:5478   .debug_macro:0000000000000000 .Ldebug_macro5
C:\Users\SOLDER~1\AppData\Local\Temp\ccfBhFEg.s:5543   .debug_macro:0000000000000000 .Ldebug_macro6
C:\Users\SOLDER~1\AppData\Local\Temp\ccfBhFEg.s:5584   .debug_macro:0000000000000000 .Ldebug_macro7
C:\Users\SOLDER~1\AppData\Local\Temp\ccfBhFEg.s:5709   .debug_macro:0000000000000000 .Ldebug_macro8
C:\Users\SOLDER~1\AppData\Local\Temp\ccfBhFEg.s:5765   .debug_macro:0000000000000000 .Ldebug_macro9
C:\Users\SOLDER~1\AppData\Local\Temp\ccfBhFEg.s:22106  .debug_str:0000000000001937 .LASF493
C:\Users\SOLDER~1\AppData\Local\Temp\ccfBhFEg.s:5977   .debug_macro:0000000000000000 .Ldebug_macro10
C:\Users\SOLDER~1\AppData\Local\Temp\ccfBhFEg.s:6015   .debug_macro:0000000000000000 .Ldebug_macro11
C:\Users\SOLDER~1\AppData\Local\Temp\ccfBhFEg.s:22370  .debug_str:0000000000002a85 .LASF4592
C:\Users\SOLDER~1\AppData\Local\Temp\ccfBhFEg.s:31016  .debug_str:000000000002593a .LASF4593
C:\Users\SOLDER~1\AppData\Local\Temp\ccfBhFEg.s:18281  .debug_macro:0000000000000000 .Ldebug_macro12
C:\Users\SOLDER~1\AppData\Local\Temp\ccfBhFEg.s:18562  .debug_macro:0000000000000000 .Ldebug_macro13
C:\Users\SOLDER~1\AppData\Local\Temp\ccfBhFEg.s:18714  .debug_macro:0000000000000000 .Ldebug_macro14
C:\Users\SOLDER~1\AppData\Local\Temp\ccfBhFEg.s:27332  .debug_str:0000000000016bea .LASF4851
C:\Users\SOLDER~1\AppData\Local\Temp\ccfBhFEg.s:19067  .debug_macro:0000000000000000 .Ldebug_macro15
C:\Users\SOLDER~1\AppData\Local\Temp\ccfBhFEg.s:19132  .debug_macro:0000000000000000 .Ldebug_macro16
C:\Users\SOLDER~1\AppData\Local\Temp\ccfBhFEg.s:19401  .debug_macro:0000000000000000 .Ldebug_macro17
C:\Users\SOLDER~1\AppData\Local\Temp\ccfBhFEg.s:19472  .debug_macro:0000000000000000 .Ldebug_macro18
C:\Users\SOLDER~1\AppData\Local\Temp\ccfBhFEg.s:19636  .debug_macro:0000000000000000 .Ldebug_macro19
C:\Users\SOLDER~1\AppData\Local\Temp\ccfBhFEg.s:19908  .debug_macro:0000000000000000 .Ldebug_macro20
C:\Users\SOLDER~1\AppData\Local\Temp\ccfBhFEg.s:19949  .debug_macro:0000000000000000 .Ldebug_macro21
C:\Users\SOLDER~1\AppData\Local\Temp\ccfBhFEg.s:20002  .debug_macro:0000000000000000 .Ldebug_macro22
C:\Users\SOLDER~1\AppData\Local\Temp\ccfBhFEg.s:20403  .debug_macro:0000000000000000 .Ldebug_macro23
C:\Users\SOLDER~1\AppData\Local\Temp\ccfBhFEg.s:20435  .debug_macro:0000000000000000 .Ldebug_macro24
C:\Users\SOLDER~1\AppData\Local\Temp\ccfBhFEg.s:20665  .debug_macro:0000000000000000 .Ldebug_macro25
C:\Users\SOLDER~1\AppData\Local\Temp\ccfBhFEg.s:21261  .debug_macro:0000000000000000 .Ldebug_macro26
C:\Users\SOLDER~1\AppData\Local\Temp\ccfBhFEg.s:21431  .debug_macro:0000000000000000 .Ldebug_macro27
C:\Users\SOLDER~1\AppData\Local\Temp\ccfBhFEg.s:21451  .debug_macro:0000000000000000 .Ldebug_macro28
C:\Users\SOLDER~1\AppData\Local\Temp\ccfBhFEg.s:21474  .debug_macro:0000000000000000 .Ldebug_macro29
C:\Users\SOLDER~1\AppData\Local\Temp\ccfBhFEg.s:22004  .debug_str:00000000000012dd .LASF5712
C:\Users\SOLDER~1\AppData\Local\Temp\ccfBhFEg.s:23662  .debug_str:0000000000007d51 .LASF5713
GAS LISTING C:\Users\SOLDER~1\AppData\Local\Temp\ccfBhFEg.s 			page 73


C:\Users\SOLDER~1\AppData\Local\Temp\ccfBhFEg.s:28400  .debug_str:000000000001b06b .LASF5714
C:\Users\SOLDER~1\AppData\Local\Temp\ccfBhFEg.s:31854  .debug_str:000000000002902f .LASF5715
C:\Users\SOLDER~1\AppData\Local\Temp\ccfBhFEg.s:25168  .debug_str:000000000000dfaf .LASF5716
C:\Users\SOLDER~1\AppData\Local\Temp\ccfBhFEg.s:32464  .debug_str:000000000002b7c5 .LASF5717
C:\Users\SOLDER~1\AppData\Local\Temp\ccfBhFEg.s:29004  .debug_str:000000000001d79b .LASF5718
C:\Users\SOLDER~1\AppData\Local\Temp\ccfBhFEg.s:30386  .debug_str:0000000000023059 .LASF5719
C:\Users\SOLDER~1\AppData\Local\Temp\ccfBhFEg.s:26412  .debug_str:0000000000012fb4 .LASF5720
C:\Users\SOLDER~1\AppData\Local\Temp\ccfBhFEg.s:25878  .debug_str:0000000000010dcd .LASF5721
C:\Users\SOLDER~1\AppData\Local\Temp\ccfBhFEg.s:25818  .debug_str:00000000000109d6 .LASF5722
C:\Users\SOLDER~1\AppData\Local\Temp\ccfBhFEg.s:33336  .debug_str:000000000002f011 .LASF5723
C:\Users\SOLDER~1\AppData\Local\Temp\ccfBhFEg.s:29522  .debug_str:000000000001f939 .LASF5724
C:\Users\SOLDER~1\AppData\Local\Temp\ccfBhFEg.s:21952  .debug_str:0000000000000f97 .LASF5725
C:\Users\SOLDER~1\AppData\Local\Temp\ccfBhFEg.s:27692  .debug_str:0000000000018374 .LASF5726
C:\Users\SOLDER~1\AppData\Local\Temp\ccfBhFEg.s:24672  .debug_str:000000000000bf16 .LASF5727
C:\Users\SOLDER~1\AppData\Local\Temp\ccfBhFEg.s:24818  .debug_str:000000000000c8cd .LASF5728
C:\Users\SOLDER~1\AppData\Local\Temp\ccfBhFEg.s:24508  .debug_str:000000000000b4a0 .LASF5729
C:\Users\SOLDER~1\AppData\Local\Temp\ccfBhFEg.s:25994  .debug_str:000000000001151a .LASF5730
C:\Users\SOLDER~1\AppData\Local\Temp\ccfBhFEg.s:26904  .debug_str:000000000001513a .LASF5731
C:\Users\SOLDER~1\AppData\Local\Temp\ccfBhFEg.s:22156  .debug_str:0000000000001ca3 .LASF5732
C:\Users\SOLDER~1\AppData\Local\Temp\ccfBhFEg.s:25504  .debug_str:000000000000f530 .LASF5733
C:\Users\SOLDER~1\AppData\Local\Temp\ccfBhFEg.s:30336  .debug_str:0000000000022cd7 .LASF5734
C:\Users\SOLDER~1\AppData\Local\Temp\ccfBhFEg.s:31418  .debug_str:00000000000273ab .LASF5735
C:\Users\SOLDER~1\AppData\Local\Temp\ccfBhFEg.s:27888  .debug_str:000000000001901d .LASF5736
C:\Users\SOLDER~1\AppData\Local\Temp\ccfBhFEg.s:28042  .debug_str:0000000000019a57 .LASF5737
C:\Users\SOLDER~1\AppData\Local\Temp\ccfBhFEg.s:21970  .debug_str:00000000000010a9 .LASF5738
C:\Users\SOLDER~1\AppData\Local\Temp\ccfBhFEg.s:33044  .debug_str:000000000002dd7f .LASF5739
C:\Users\SOLDER~1\AppData\Local\Temp\ccfBhFEg.s:28768  .debug_str:000000000001c825 .LASF5740
C:\Users\SOLDER~1\AppData\Local\Temp\ccfBhFEg.s:28292  .debug_str:000000000001a9da .LASF5741
C:\Users\SOLDER~1\AppData\Local\Temp\ccfBhFEg.s:31728  .debug_str:0000000000028815 .LASF5742
C:\Users\SOLDER~1\AppData\Local\Temp\ccfBhFEg.s:30520  .debug_str:00000000000238c9 .LASF5743
C:\Users\SOLDER~1\AppData\Local\Temp\ccfBhFEg.s:27916  .debug_str:00000000000191fc .LASF5744
C:\Users\SOLDER~1\AppData\Local\Temp\ccfBhFEg.s:32374  .debug_str:000000000002b1c4 .LASF5745
C:\Users\SOLDER~1\AppData\Local\Temp\ccfBhFEg.s:32132  .debug_str:000000000002a1ee .LASF5746
C:\Users\SOLDER~1\AppData\Local\Temp\ccfBhFEg.s:23156  .debug_str:0000000000005c59 .LASF2
C:\Users\SOLDER~1\AppData\Local\Temp\ccfBhFEg.s:32178  .debug_str:000000000002a511 .LASF3
C:\Users\SOLDER~1\AppData\Local\Temp\ccfBhFEg.s:32556  .debug_str:000000000002bda3 .LASF4
C:\Users\SOLDER~1\AppData\Local\Temp\ccfBhFEg.s:25942  .debug_str:00000000000111d1 .LASF5
C:\Users\SOLDER~1\AppData\Local\Temp\ccfBhFEg.s:27310  .debug_str:0000000000016aa0 .LASF6
C:\Users\SOLDER~1\AppData\Local\Temp\ccfBhFEg.s:32974  .debug_str:000000000002d923 .LASF7
C:\Users\SOLDER~1\AppData\Local\Temp\ccfBhFEg.s:26002  .debug_str:0000000000011590 .LASF8
C:\Users\SOLDER~1\AppData\Local\Temp\ccfBhFEg.s:26748  .debug_str:00000000000146b8 .LASF9
C:\Users\SOLDER~1\AppData\Local\Temp\ccfBhFEg.s:23902  .debug_str:0000000000008d56 .LASF10
C:\Users\SOLDER~1\AppData\Local\Temp\ccfBhFEg.s:29064  .debug_str:000000000001db80 .LASF11
C:\Users\SOLDER~1\AppData\Local\Temp\ccfBhFEg.s:28398  .debug_str:000000000001b058 .LASF12
C:\Users\SOLDER~1\AppData\Local\Temp\ccfBhFEg.s:28252  .debug_str:000000000001a735 .LASF13
C:\Users\SOLDER~1\AppData\Local\Temp\ccfBhFEg.s:32822  .debug_str:000000000002cef7 .LASF14
C:\Users\SOLDER~1\AppData\Local\Temp\ccfBhFEg.s:28272  .debug_str:000000000001a871 .LASF15
C:\Users\SOLDER~1\AppData\Local\Temp\ccfBhFEg.s:24402  .debug_str:000000000000ade0 .LASF16
C:\Users\SOLDER~1\AppData\Local\Temp\ccfBhFEg.s:29696  .debug_str:0000000000020468 .LASF17
C:\Users\SOLDER~1\AppData\Local\Temp\ccfBhFEg.s:30420  .debug_str:000000000002329a .LASF18
C:\Users\SOLDER~1\AppData\Local\Temp\ccfBhFEg.s:24448  .debug_str:000000000000b0e8 .LASF19
C:\Users\SOLDER~1\AppData\Local\Temp\ccfBhFEg.s:23310  .debug_str:000000000000666c .LASF20
C:\Users\SOLDER~1\AppData\Local\Temp\ccfBhFEg.s:25474  .debug_str:000000000000f360 .LASF21
C:\Users\SOLDER~1\AppData\Local\Temp\ccfBhFEg.s:31292  .debug_str:0000000000026b80 .LASF22
C:\Users\SOLDER~1\AppData\Local\Temp\ccfBhFEg.s:28080  .debug_str:0000000000019d0b .LASF23
C:\Users\SOLDER~1\AppData\Local\Temp\ccfBhFEg.s:28078  .debug_str:0000000000019cf1 .LASF24
C:\Users\SOLDER~1\AppData\Local\Temp\ccfBhFEg.s:30742  .debug_str:000000000002474a .LASF25
GAS LISTING C:\Users\SOLDER~1\AppData\Local\Temp\ccfBhFEg.s 			page 74


C:\Users\SOLDER~1\AppData\Local\Temp\ccfBhFEg.s:31408  .debug_str:0000000000027328 .LASF26
C:\Users\SOLDER~1\AppData\Local\Temp\ccfBhFEg.s:22674  .debug_str:0000000000003def .LASF27
C:\Users\SOLDER~1\AppData\Local\Temp\ccfBhFEg.s:27460  .debug_str:00000000000173e7 .LASF28
C:\Users\SOLDER~1\AppData\Local\Temp\ccfBhFEg.s:30636  .debug_str:000000000002404f .LASF29
C:\Users\SOLDER~1\AppData\Local\Temp\ccfBhFEg.s:30430  .debug_str:0000000000023340 .LASF30
C:\Users\SOLDER~1\AppData\Local\Temp\ccfBhFEg.s:24188  .debug_str:0000000000009fe0 .LASF31
C:\Users\SOLDER~1\AppData\Local\Temp\ccfBhFEg.s:29466  .debug_str:000000000001f55f .LASF32
C:\Users\SOLDER~1\AppData\Local\Temp\ccfBhFEg.s:22062  .debug_str:0000000000001687 .LASF33
C:\Users\SOLDER~1\AppData\Local\Temp\ccfBhFEg.s:26170  .debug_str:0000000000012044 .LASF34
C:\Users\SOLDER~1\AppData\Local\Temp\ccfBhFEg.s:27118  .debug_str:0000000000015ecb .LASF35
C:\Users\SOLDER~1\AppData\Local\Temp\ccfBhFEg.s:25226  .debug_str:000000000000e34e .LASF36
C:\Users\SOLDER~1\AppData\Local\Temp\ccfBhFEg.s:24274  .debug_str:000000000000a56e .LASF37
C:\Users\SOLDER~1\AppData\Local\Temp\ccfBhFEg.s:24120  .debug_str:0000000000009b8b .LASF38
C:\Users\SOLDER~1\AppData\Local\Temp\ccfBhFEg.s:25498  .debug_str:000000000000f4d3 .LASF39
C:\Users\SOLDER~1\AppData\Local\Temp\ccfBhFEg.s:28502  .debug_str:000000000001b708 .LASF40
C:\Users\SOLDER~1\AppData\Local\Temp\ccfBhFEg.s:23642  .debug_str:0000000000007bfd .LASF41
C:\Users\SOLDER~1\AppData\Local\Temp\ccfBhFEg.s:25880  .debug_str:0000000000010df1 .LASF42
C:\Users\SOLDER~1\AppData\Local\Temp\ccfBhFEg.s:31714  .debug_str:0000000000028723 .LASF43
C:\Users\SOLDER~1\AppData\Local\Temp\ccfBhFEg.s:22426  .debug_str:0000000000002de6 .LASF44
C:\Users\SOLDER~1\AppData\Local\Temp\ccfBhFEg.s:25566  .debug_str:000000000000f92a .LASF45
C:\Users\SOLDER~1\AppData\Local\Temp\ccfBhFEg.s:26478  .debug_str:00000000000133fa .LASF46
C:\Users\SOLDER~1\AppData\Local\Temp\ccfBhFEg.s:31022  .debug_str:00000000000259a4 .LASF47
C:\Users\SOLDER~1\AppData\Local\Temp\ccfBhFEg.s:28492  .debug_str:000000000001b65d .LASF48
C:\Users\SOLDER~1\AppData\Local\Temp\ccfBhFEg.s:26330  .debug_str:0000000000012a50 .LASF49
C:\Users\SOLDER~1\AppData\Local\Temp\ccfBhFEg.s:22930  .debug_str:0000000000004e08 .LASF50
C:\Users\SOLDER~1\AppData\Local\Temp\ccfBhFEg.s:26480  .debug_str:0000000000013413 .LASF51
C:\Users\SOLDER~1\AppData\Local\Temp\ccfBhFEg.s:31196  .debug_str:000000000002652c .LASF52
C:\Users\SOLDER~1\AppData\Local\Temp\ccfBhFEg.s:25224  .debug_str:000000000000e32e .LASF53
C:\Users\SOLDER~1\AppData\Local\Temp\ccfBhFEg.s:22268  .debug_str:00000000000023fd .LASF54
C:\Users\SOLDER~1\AppData\Local\Temp\ccfBhFEg.s:21754  .debug_str:00000000000001d5 .LASF55
C:\Users\SOLDER~1\AppData\Local\Temp\ccfBhFEg.s:32600  .debug_str:000000000002c08f .LASF56
C:\Users\SOLDER~1\AppData\Local\Temp\ccfBhFEg.s:30612  .debug_str:0000000000023ef2 .LASF57
C:\Users\SOLDER~1\AppData\Local\Temp\ccfBhFEg.s:21838  .debug_str:00000000000007b0 .LASF58
C:\Users\SOLDER~1\AppData\Local\Temp\ccfBhFEg.s:25840  .debug_str:0000000000010b39 .LASF59
C:\Users\SOLDER~1\AppData\Local\Temp\ccfBhFEg.s:23736  .debug_str:000000000000826e .LASF60
C:\Users\SOLDER~1\AppData\Local\Temp\ccfBhFEg.s:30254  .debug_str:00000000000227b8 .LASF61
C:\Users\SOLDER~1\AppData\Local\Temp\ccfBhFEg.s:22012  .debug_str:000000000000134f .LASF62
C:\Users\SOLDER~1\AppData\Local\Temp\ccfBhFEg.s:25108  .debug_str:000000000000dbf4 .LASF63
C:\Users\SOLDER~1\AppData\Local\Temp\ccfBhFEg.s:28044  .debug_str:0000000000019a7b .LASF64
C:\Users\SOLDER~1\AppData\Local\Temp\ccfBhFEg.s:28864  .debug_str:000000000001ce3b .LASF65
C:\Users\SOLDER~1\AppData\Local\Temp\ccfBhFEg.s:22510  .debug_str:000000000000335c .LASF66
C:\Users\SOLDER~1\AppData\Local\Temp\ccfBhFEg.s:25214  .debug_str:000000000000e28b .LASF67
C:\Users\SOLDER~1\AppData\Local\Temp\ccfBhFEg.s:24942  .debug_str:000000000000d117 .LASF68
C:\Users\SOLDER~1\AppData\Local\Temp\ccfBhFEg.s:28482  .debug_str:000000000001b5d5 .LASF69
C:\Users\SOLDER~1\AppData\Local\Temp\ccfBhFEg.s:27114  .debug_str:0000000000015e84 .LASF70
C:\Users\SOLDER~1\AppData\Local\Temp\ccfBhFEg.s:32354  .debug_str:000000000002b074 .LASF71
C:\Users\SOLDER~1\AppData\Local\Temp\ccfBhFEg.s:32824  .debug_str:000000000002cf0a .LASF72
C:\Users\SOLDER~1\AppData\Local\Temp\ccfBhFEg.s:26288  .debug_str:0000000000012780 .LASF73
C:\Users\SOLDER~1\AppData\Local\Temp\ccfBhFEg.s:25384  .debug_str:000000000000edf4 .LASF74
C:\Users\SOLDER~1\AppData\Local\Temp\ccfBhFEg.s:22948  .debug_str:0000000000004f1f .LASF75
C:\Users\SOLDER~1\AppData\Local\Temp\ccfBhFEg.s:26320  .debug_str:00000000000129b6 .LASF76
C:\Users\SOLDER~1\AppData\Local\Temp\ccfBhFEg.s:24852  .debug_str:000000000000cb1c .LASF77
C:\Users\SOLDER~1\AppData\Local\Temp\ccfBhFEg.s:26570  .debug_str:0000000000013a30 .LASF78
C:\Users\SOLDER~1\AppData\Local\Temp\ccfBhFEg.s:27120  .debug_str:0000000000015ef9 .LASF79
C:\Users\SOLDER~1\AppData\Local\Temp\ccfBhFEg.s:26510  .debug_str:0000000000013627 .LASF80
C:\Users\SOLDER~1\AppData\Local\Temp\ccfBhFEg.s:31108  .debug_str:0000000000025f40 .LASF81
C:\Users\SOLDER~1\AppData\Local\Temp\ccfBhFEg.s:28994  .debug_str:000000000001d6dc .LASF82
GAS LISTING C:\Users\SOLDER~1\AppData\Local\Temp\ccfBhFEg.s 			page 75


C:\Users\SOLDER~1\AppData\Local\Temp\ccfBhFEg.s:29430  .debug_str:000000000001f328 .LASF83
C:\Users\SOLDER~1\AppData\Local\Temp\ccfBhFEg.s:32338  .debug_str:000000000002af4e .LASF84
C:\Users\SOLDER~1\AppData\Local\Temp\ccfBhFEg.s:24220  .debug_str:000000000000a1f6 .LASF85
C:\Users\SOLDER~1\AppData\Local\Temp\ccfBhFEg.s:32488  .debug_str:000000000002b955 .LASF86
C:\Users\SOLDER~1\AppData\Local\Temp\ccfBhFEg.s:26322  .debug_str:00000000000129dd .LASF87
C:\Users\SOLDER~1\AppData\Local\Temp\ccfBhFEg.s:28508  .debug_str:000000000001b768 .LASF88
C:\Users\SOLDER~1\AppData\Local\Temp\ccfBhFEg.s:23454  .debug_str:000000000000704c .LASF89
C:\Users\SOLDER~1\AppData\Local\Temp\ccfBhFEg.s:32818  .debug_str:000000000002cebd .LASF90
C:\Users\SOLDER~1\AppData\Local\Temp\ccfBhFEg.s:32514  .debug_str:000000000002bad1 .LASF91
C:\Users\SOLDER~1\AppData\Local\Temp\ccfBhFEg.s:29864  .debug_str:0000000000020f1f .LASF92
C:\Users\SOLDER~1\AppData\Local\Temp\ccfBhFEg.s:28580  .debug_str:000000000001bc08 .LASF93
C:\Users\SOLDER~1\AppData\Local\Temp\ccfBhFEg.s:29888  .debug_str:00000000000210ba .LASF94
C:\Users\SOLDER~1\AppData\Local\Temp\ccfBhFEg.s:32734  .debug_str:000000000002c988 .LASF95
C:\Users\SOLDER~1\AppData\Local\Temp\ccfBhFEg.s:31512  .debug_str:00000000000279ff .LASF96
C:\Users\SOLDER~1\AppData\Local\Temp\ccfBhFEg.s:24310  .debug_str:000000000000a7dc .LASF97
C:\Users\SOLDER~1\AppData\Local\Temp\ccfBhFEg.s:30736  .debug_str:00000000000246cf .LASF98
C:\Users\SOLDER~1\AppData\Local\Temp\ccfBhFEg.s:26810  .debug_str:0000000000014ad3 .LASF99
C:\Users\SOLDER~1\AppData\Local\Temp\ccfBhFEg.s:26794  .debug_str:00000000000149cc .LASF100
C:\Users\SOLDER~1\AppData\Local\Temp\ccfBhFEg.s:33012  .debug_str:000000000002db8c .LASF101
C:\Users\SOLDER~1\AppData\Local\Temp\ccfBhFEg.s:26414  .debug_str:0000000000012fd6 .LASF102
C:\Users\SOLDER~1\AppData\Local\Temp\ccfBhFEg.s:30442  .debug_str:00000000000233f1 .LASF103
C:\Users\SOLDER~1\AppData\Local\Temp\ccfBhFEg.s:29060  .debug_str:000000000001db4c .LASF104
C:\Users\SOLDER~1\AppData\Local\Temp\ccfBhFEg.s:25898  .debug_str:0000000000010f08 .LASF105
C:\Users\SOLDER~1\AppData\Local\Temp\ccfBhFEg.s:23556  .debug_str:00000000000076a2 .LASF106
C:\Users\SOLDER~1\AppData\Local\Temp\ccfBhFEg.s:26164  .debug_str:0000000000011fcf .LASF107
C:\Users\SOLDER~1\AppData\Local\Temp\ccfBhFEg.s:25134  .debug_str:000000000000dd80 .LASF108
C:\Users\SOLDER~1\AppData\Local\Temp\ccfBhFEg.s:26338  .debug_str:0000000000012ae0 .LASF109
C:\Users\SOLDER~1\AppData\Local\Temp\ccfBhFEg.s:22980  .debug_str:00000000000050fd .LASF110
C:\Users\SOLDER~1\AppData\Local\Temp\ccfBhFEg.s:26158  .debug_str:0000000000011f79 .LASF111
C:\Users\SOLDER~1\AppData\Local\Temp\ccfBhFEg.s:25130  .debug_str:000000000000dd4b .LASF112
C:\Users\SOLDER~1\AppData\Local\Temp\ccfBhFEg.s:26628  .debug_str:0000000000013e6d .LASF113
C:\Users\SOLDER~1\AppData\Local\Temp\ccfBhFEg.s:25526  .debug_str:000000000000f693 .LASF114
C:\Users\SOLDER~1\AppData\Local\Temp\ccfBhFEg.s:28132  .debug_str:0000000000019fce .LASF115
C:\Users\SOLDER~1\AppData\Local\Temp\ccfBhFEg.s:24584  .debug_str:000000000000b98d .LASF116
C:\Users\SOLDER~1\AppData\Local\Temp\ccfBhFEg.s:24304  .debug_str:000000000000a755 .LASF117
C:\Users\SOLDER~1\AppData\Local\Temp\ccfBhFEg.s:25690  .debug_str:00000000000101d7 .LASF118
C:\Users\SOLDER~1\AppData\Local\Temp\ccfBhFEg.s:32394  .debug_str:000000000002b31c .LASF119
C:\Users\SOLDER~1\AppData\Local\Temp\ccfBhFEg.s:27652  .debug_str:00000000000180da .LASF120
C:\Users\SOLDER~1\AppData\Local\Temp\ccfBhFEg.s:24058  .debug_str:000000000000977f .LASF121
C:\Users\SOLDER~1\AppData\Local\Temp\ccfBhFEg.s:28846  .debug_str:000000000001cd23 .LASF122
C:\Users\SOLDER~1\AppData\Local\Temp\ccfBhFEg.s:33148  .debug_str:000000000002e45f .LASF123
C:\Users\SOLDER~1\AppData\Local\Temp\ccfBhFEg.s:25438  .debug_str:000000000000f123 .LASF124
C:\Users\SOLDER~1\AppData\Local\Temp\ccfBhFEg.s:31094  .debug_str:0000000000025e41 .LASF125
C:\Users\SOLDER~1\AppData\Local\Temp\ccfBhFEg.s:24910  .debug_str:000000000000cefc .LASF126
C:\Users\SOLDER~1\AppData\Local\Temp\ccfBhFEg.s:25010  .debug_str:000000000000d589 .LASF127
C:\Users\SOLDER~1\AppData\Local\Temp\ccfBhFEg.s:22612  .debug_str:00000000000039fe .LASF128
C:\Users\SOLDER~1\AppData\Local\Temp\ccfBhFEg.s:22900  .debug_str:0000000000004c34 .LASF129
C:\Users\SOLDER~1\AppData\Local\Temp\ccfBhFEg.s:32076  .debug_str:0000000000029e65 .LASF130
C:\Users\SOLDER~1\AppData\Local\Temp\ccfBhFEg.s:26342  .debug_str:0000000000012af8 .LASF131
C:\Users\SOLDER~1\AppData\Local\Temp\ccfBhFEg.s:29254  .debug_str:000000000001e776 .LASF132
C:\Users\SOLDER~1\AppData\Local\Temp\ccfBhFEg.s:24130  .debug_str:0000000000009c26 .LASF133
C:\Users\SOLDER~1\AppData\Local\Temp\ccfBhFEg.s:31620  .debug_str:00000000000280ad .LASF134
C:\Users\SOLDER~1\AppData\Local\Temp\ccfBhFEg.s:31944  .debug_str:00000000000295c6 .LASF135
C:\Users\SOLDER~1\AppData\Local\Temp\ccfBhFEg.s:31748  .debug_str:0000000000028945 .LASF136
C:\Users\SOLDER~1\AppData\Local\Temp\ccfBhFEg.s:25416  .debug_str:000000000000efa8 .LASF137
C:\Users\SOLDER~1\AppData\Local\Temp\ccfBhFEg.s:31010  .debug_str:00000000000258d8 .LASF138
C:\Users\SOLDER~1\AppData\Local\Temp\ccfBhFEg.s:22888  .debug_str:0000000000004b59 .LASF139
GAS LISTING C:\Users\SOLDER~1\AppData\Local\Temp\ccfBhFEg.s 			page 76


C:\Users\SOLDER~1\AppData\Local\Temp\ccfBhFEg.s:23778  .debug_str:0000000000008541 .LASF140
C:\Users\SOLDER~1\AppData\Local\Temp\ccfBhFEg.s:32816  .debug_str:000000000002cea9 .LASF141
C:\Users\SOLDER~1\AppData\Local\Temp\ccfBhFEg.s:28738  .debug_str:000000000001c5fb .LASF142
C:\Users\SOLDER~1\AppData\Local\Temp\ccfBhFEg.s:32284  .debug_str:000000000002ac21 .LASF143
C:\Users\SOLDER~1\AppData\Local\Temp\ccfBhFEg.s:31384  .debug_str:00000000000271a7 .LASF144
C:\Users\SOLDER~1\AppData\Local\Temp\ccfBhFEg.s:28942  .debug_str:000000000001d393 .LASF145
C:\Users\SOLDER~1\AppData\Local\Temp\ccfBhFEg.s:24260  .debug_str:000000000000a46e .LASF146
C:\Users\SOLDER~1\AppData\Local\Temp\ccfBhFEg.s:26564  .debug_str:00000000000139d6 .LASF147
C:\Users\SOLDER~1\AppData\Local\Temp\ccfBhFEg.s:28096  .debug_str:0000000000019dd3 .LASF148
C:\Users\SOLDER~1\AppData\Local\Temp\ccfBhFEg.s:27130  .debug_str:0000000000015f68 .LASF149
C:\Users\SOLDER~1\AppData\Local\Temp\ccfBhFEg.s:24970  .debug_str:000000000000d2da .LASF150
C:\Users\SOLDER~1\AppData\Local\Temp\ccfBhFEg.s:22946  .debug_str:0000000000004f08 .LASF151
C:\Users\SOLDER~1\AppData\Local\Temp\ccfBhFEg.s:25562  .debug_str:000000000000f8ec .LASF152
C:\Users\SOLDER~1\AppData\Local\Temp\ccfBhFEg.s:28084  .debug_str:0000000000019d3b .LASF153
C:\Users\SOLDER~1\AppData\Local\Temp\ccfBhFEg.s:21828  .debug_str:000000000000071e .LASF154
C:\Users\SOLDER~1\AppData\Local\Temp\ccfBhFEg.s:30432  .debug_str:000000000002335a .LASF155
C:\Users\SOLDER~1\AppData\Local\Temp\ccfBhFEg.s:26618  .debug_str:0000000000013d8d .LASF156
C:\Users\SOLDER~1\AppData\Local\Temp\ccfBhFEg.s:31386  .debug_str:00000000000271bf .LASF157
C:\Users\SOLDER~1\AppData\Local\Temp\ccfBhFEg.s:29148  .debug_str:000000000001e06f .LASF158
C:\Users\SOLDER~1\AppData\Local\Temp\ccfBhFEg.s:31324  .debug_str:0000000000026d79 .LASF159
C:\Users\SOLDER~1\AppData\Local\Temp\ccfBhFEg.s:31998  .debug_str:000000000002995a .LASF160
C:\Users\SOLDER~1\AppData\Local\Temp\ccfBhFEg.s:26658  .debug_str:0000000000014079 .LASF161
C:\Users\SOLDER~1\AppData\Local\Temp\ccfBhFEg.s:24830  .debug_str:000000000000c9a6 .LASF162
C:\Users\SOLDER~1\AppData\Local\Temp\ccfBhFEg.s:23882  .debug_str:0000000000008bf9 .LASF163
C:\Users\SOLDER~1\AppData\Local\Temp\ccfBhFEg.s:26760  .debug_str:0000000000014781 .LASF164
C:\Users\SOLDER~1\AppData\Local\Temp\ccfBhFEg.s:28786  .debug_str:000000000001c947 .LASF165
C:\Users\SOLDER~1\AppData\Local\Temp\ccfBhFEg.s:30246  .debug_str:000000000002275b .LASF166
C:\Users\SOLDER~1\AppData\Local\Temp\ccfBhFEg.s:31878  .debug_str:00000000000291bf .LASF167
C:\Users\SOLDER~1\AppData\Local\Temp\ccfBhFEg.s:31000  .debug_str:000000000002581e .LASF168
C:\Users\SOLDER~1\AppData\Local\Temp\ccfBhFEg.s:32716  .debug_str:000000000002c85a .LASF169
C:\Users\SOLDER~1\AppData\Local\Temp\ccfBhFEg.s:23632  .debug_str:0000000000007b4d .LASF170
C:\Users\SOLDER~1\AppData\Local\Temp\ccfBhFEg.s:32384  .debug_str:000000000002b27a .LASF171
C:\Users\SOLDER~1\AppData\Local\Temp\ccfBhFEg.s:24020  .debug_str:00000000000094ef .LASF172
C:\Users\SOLDER~1\AppData\Local\Temp\ccfBhFEg.s:28638  .debug_str:000000000001bf60 .LASF173
C:\Users\SOLDER~1\AppData\Local\Temp\ccfBhFEg.s:27880  .debug_str:0000000000018f72 .LASF174
C:\Users\SOLDER~1\AppData\Local\Temp\ccfBhFEg.s:31808  .debug_str:0000000000028d1d .LASF175
C:\Users\SOLDER~1\AppData\Local\Temp\ccfBhFEg.s:27498  .debug_str:000000000001766f .LASF176
C:\Users\SOLDER~1\AppData\Local\Temp\ccfBhFEg.s:29070  .debug_str:000000000001dbcb .LASF177
C:\Users\SOLDER~1\AppData\Local\Temp\ccfBhFEg.s:24254  .debug_str:000000000000a429 .LASF178
C:\Users\SOLDER~1\AppData\Local\Temp\ccfBhFEg.s:26286  .debug_str:0000000000012768 .LASF179
C:\Users\SOLDER~1\AppData\Local\Temp\ccfBhFEg.s:28210  .debug_str:000000000001a490 .LASF180
C:\Users\SOLDER~1\AppData\Local\Temp\ccfBhFEg.s:23280  .debug_str:0000000000006486 .LASF181
C:\Users\SOLDER~1\AppData\Local\Temp\ccfBhFEg.s:24104  .debug_str:0000000000009a98 .LASF182
C:\Users\SOLDER~1\AppData\Local\Temp\ccfBhFEg.s:22750  .debug_str:00000000000042ca .LASF183
C:\Users\SOLDER~1\AppData\Local\Temp\ccfBhFEg.s:28266  .debug_str:000000000001a812 .LASF184
C:\Users\SOLDER~1\AppData\Local\Temp\ccfBhFEg.s:26762  .debug_str:0000000000014798 .LASF185
C:\Users\SOLDER~1\AppData\Local\Temp\ccfBhFEg.s:22262  .debug_str:000000000000238d .LASF186
C:\Users\SOLDER~1\AppData\Local\Temp\ccfBhFEg.s:33010  .debug_str:000000000002db79 .LASF187
C:\Users\SOLDER~1\AppData\Local\Temp\ccfBhFEg.s:22046  .debug_str:0000000000001592 .LASF188
C:\Users\SOLDER~1\AppData\Local\Temp\ccfBhFEg.s:26740  .debug_str:000000000001461e .LASF189
C:\Users\SOLDER~1\AppData\Local\Temp\ccfBhFEg.s:27202  .debug_str:00000000000163e8 .LASF190
C:\Users\SOLDER~1\AppData\Local\Temp\ccfBhFEg.s:32208  .debug_str:000000000002a719 .LASF191
C:\Users\SOLDER~1\AppData\Local\Temp\ccfBhFEg.s:25164  .debug_str:000000000000df48 .LASF192
C:\Users\SOLDER~1\AppData\Local\Temp\ccfBhFEg.s:32688  .debug_str:000000000002c643 .LASF193
C:\Users\SOLDER~1\AppData\Local\Temp\ccfBhFEg.s:26706  .debug_str:00000000000143b4 .LASF194
C:\Users\SOLDER~1\AppData\Local\Temp\ccfBhFEg.s:25460  .debug_str:000000000000f290 .LASF195
C:\Users\SOLDER~1\AppData\Local\Temp\ccfBhFEg.s:24464  .debug_str:000000000000b1f1 .LASF196
GAS LISTING C:\Users\SOLDER~1\AppData\Local\Temp\ccfBhFEg.s 			page 77


C:\Users\SOLDER~1\AppData\Local\Temp\ccfBhFEg.s:29346  .debug_str:000000000001ed8a .LASF197
C:\Users\SOLDER~1\AppData\Local\Temp\ccfBhFEg.s:32298  .debug_str:000000000002ad14 .LASF198
C:\Users\SOLDER~1\AppData\Local\Temp\ccfBhFEg.s:26992  .debug_str:00000000000156ea .LASF199
C:\Users\SOLDER~1\AppData\Local\Temp\ccfBhFEg.s:29548  .debug_str:000000000001fb06 .LASF200
C:\Users\SOLDER~1\AppData\Local\Temp\ccfBhFEg.s:22056  .debug_str:0000000000001634 .LASF201
C:\Users\SOLDER~1\AppData\Local\Temp\ccfBhFEg.s:33244  .debug_str:000000000002ea0c .LASF202
C:\Users\SOLDER~1\AppData\Local\Temp\ccfBhFEg.s:26968  .debug_str:000000000001553d .LASF203
C:\Users\SOLDER~1\AppData\Local\Temp\ccfBhFEg.s:29742  .debug_str:000000000002074a .LASF204
C:\Users\SOLDER~1\AppData\Local\Temp\ccfBhFEg.s:28286  .debug_str:000000000001a954 .LASF205
C:\Users\SOLDER~1\AppData\Local\Temp\ccfBhFEg.s:23328  .debug_str:00000000000067aa .LASF206
C:\Users\SOLDER~1\AppData\Local\Temp\ccfBhFEg.s:26980  .debug_str:0000000000015604 .LASF207
C:\Users\SOLDER~1\AppData\Local\Temp\ccfBhFEg.s:28990  .debug_str:000000000001d675 .LASF208
C:\Users\SOLDER~1\AppData\Local\Temp\ccfBhFEg.s:29978  .debug_str:00000000000216a1 .LASF209
C:\Users\SOLDER~1\AppData\Local\Temp\ccfBhFEg.s:25782  .debug_str:00000000000107b1 .LASF210
C:\Users\SOLDER~1\AppData\Local\Temp\ccfBhFEg.s:31388  .debug_str:00000000000271fb .LASF211
C:\Users\SOLDER~1\AppData\Local\Temp\ccfBhFEg.s:31182  .debug_str:0000000000026416 .LASF212
C:\Users\SOLDER~1\AppData\Local\Temp\ccfBhFEg.s:23578  .debug_str:000000000000780d .LASF213
C:\Users\SOLDER~1\AppData\Local\Temp\ccfBhFEg.s:30700  .debug_str:0000000000024492 .LASF214
C:\Users\SOLDER~1\AppData\Local\Temp\ccfBhFEg.s:27290  .debug_str:0000000000016995 .LASF215
C:\Users\SOLDER~1\AppData\Local\Temp\ccfBhFEg.s:23542  .debug_str:00000000000075e0 .LASF216
C:\Users\SOLDER~1\AppData\Local\Temp\ccfBhFEg.s:23962  .debug_str:0000000000009146 .LASF217
C:\Users\SOLDER~1\AppData\Local\Temp\ccfBhFEg.s:31260  .debug_str:000000000002697c .LASF218
C:\Users\SOLDER~1\AppData\Local\Temp\ccfBhFEg.s:30178  .debug_str:0000000000022335 .LASF219
C:\Users\SOLDER~1\AppData\Local\Temp\ccfBhFEg.s:22360  .debug_str:0000000000002a00 .LASF220
C:\Users\SOLDER~1\AppData\Local\Temp\ccfBhFEg.s:24098  .debug_str:00000000000099f5 .LASF221
C:\Users\SOLDER~1\AppData\Local\Temp\ccfBhFEg.s:29928  .debug_str:000000000002133b .LASF222
C:\Users\SOLDER~1\AppData\Local\Temp\ccfBhFEg.s:29774  .debug_str:0000000000020945 .LASF223
C:\Users\SOLDER~1\AppData\Local\Temp\ccfBhFEg.s:24008  .debug_str:0000000000009428 .LASF224
C:\Users\SOLDER~1\AppData\Local\Temp\ccfBhFEg.s:23336  .debug_str:000000000000685d .LASF225
C:\Users\SOLDER~1\AppData\Local\Temp\ccfBhFEg.s:29252  .debug_str:000000000001e75f .LASF226
C:\Users\SOLDER~1\AppData\Local\Temp\ccfBhFEg.s:27392  .debug_str:0000000000016fb9 .LASF227
C:\Users\SOLDER~1\AppData\Local\Temp\ccfBhFEg.s:25698  .debug_str:0000000000010247 .LASF228
C:\Users\SOLDER~1\AppData\Local\Temp\ccfBhFEg.s:29772  .debug_str:000000000002092c .LASF229
C:\Users\SOLDER~1\AppData\Local\Temp\ccfBhFEg.s:30824  .debug_str:0000000000024cd0 .LASF230
C:\Users\SOLDER~1\AppData\Local\Temp\ccfBhFEg.s:25722  .debug_str:00000000000103c8 .LASF231
C:\Users\SOLDER~1\AppData\Local\Temp\ccfBhFEg.s:31616  .debug_str:0000000000028071 .LASF232
C:\Users\SOLDER~1\AppData\Local\Temp\ccfBhFEg.s:30894  .debug_str:000000000002517e .LASF233
C:\Users\SOLDER~1\AppData\Local\Temp\ccfBhFEg.s:32664  .debug_str:000000000002c4a5 .LASF234
C:\Users\SOLDER~1\AppData\Local\Temp\ccfBhFEg.s:23752  .debug_str:0000000000008392 .LASF235
C:\Users\SOLDER~1\AppData\Local\Temp\ccfBhFEg.s:25776  .debug_str:0000000000010749 .LASF236
C:\Users\SOLDER~1\AppData\Local\Temp\ccfBhFEg.s:25232  .debug_str:000000000000e3be .LASF237
C:\Users\SOLDER~1\AppData\Local\Temp\ccfBhFEg.s:31060  .debug_str:0000000000025be5 .LASF238
C:\Users\SOLDER~1\AppData\Local\Temp\ccfBhFEg.s:26602  .debug_str:0000000000013c53 .LASF239
C:\Users\SOLDER~1\AppData\Local\Temp\ccfBhFEg.s:29788  .debug_str:0000000000020a36 .LASF240
C:\Users\SOLDER~1\AppData\Local\Temp\ccfBhFEg.s:22446  .debug_str:0000000000002f38 .LASF241
C:\Users\SOLDER~1\AppData\Local\Temp\ccfBhFEg.s:27600  .debug_str:0000000000017d57 .LASF242
C:\Users\SOLDER~1\AppData\Local\Temp\ccfBhFEg.s:29084  .debug_str:000000000001dc96 .LASF243
C:\Users\SOLDER~1\AppData\Local\Temp\ccfBhFEg.s:28448  .debug_str:000000000001b3d0 .LASF244
C:\Users\SOLDER~1\AppData\Local\Temp\ccfBhFEg.s:32978  .debug_str:000000000002d958 .LASF245
C:\Users\SOLDER~1\AppData\Local\Temp\ccfBhFEg.s:29020  .debug_str:000000000001d8ba .LASF246
C:\Users\SOLDER~1\AppData\Local\Temp\ccfBhFEg.s:32100  .debug_str:0000000000029fca .LASF247
C:\Users\SOLDER~1\AppData\Local\Temp\ccfBhFEg.s:25256  .debug_str:000000000000e5a9 .LASF248
C:\Users\SOLDER~1\AppData\Local\Temp\ccfBhFEg.s:31478  .debug_str:000000000002779a .LASF249
C:\Users\SOLDER~1\AppData\Local\Temp\ccfBhFEg.s:25106  .debug_str:000000000000dbdc .LASF250
C:\Users\SOLDER~1\AppData\Local\Temp\ccfBhFEg.s:28356  .debug_str:000000000001adec .LASF251
C:\Users\SOLDER~1\AppData\Local\Temp\ccfBhFEg.s:25814  .debug_str:00000000000109ac .LASF252
C:\Users\SOLDER~1\AppData\Local\Temp\ccfBhFEg.s:21978  .debug_str:0000000000001116 .LASF253
GAS LISTING C:\Users\SOLDER~1\AppData\Local\Temp\ccfBhFEg.s 			page 78


C:\Users\SOLDER~1\AppData\Local\Temp\ccfBhFEg.s:24540  .debug_str:000000000000b6bf .LASF254
C:\Users\SOLDER~1\AppData\Local\Temp\ccfBhFEg.s:21914  .debug_str:0000000000000d1f .LASF255
C:\Users\SOLDER~1\AppData\Local\Temp\ccfBhFEg.s:24652  .debug_str:000000000000bd96 .LASF256
C:\Users\SOLDER~1\AppData\Local\Temp\ccfBhFEg.s:24102  .debug_str:0000000000009a53 .LASF257
C:\Users\SOLDER~1\AppData\Local\Temp\ccfBhFEg.s:33188  .debug_str:000000000002e6cc .LASF258
C:\Users\SOLDER~1\AppData\Local\Temp\ccfBhFEg.s:28966  .debug_str:000000000001d4eb .LASF259
C:\Users\SOLDER~1\AppData\Local\Temp\ccfBhFEg.s:27756  .debug_str:00000000000187d3 .LASF260
C:\Users\SOLDER~1\AppData\Local\Temp\ccfBhFEg.s:28570  .debug_str:000000000001bb63 .LASF261
C:\Users\SOLDER~1\AppData\Local\Temp\ccfBhFEg.s:25282  .debug_str:000000000000e76f .LASF262
C:\Users\SOLDER~1\AppData\Local\Temp\ccfBhFEg.s:24592  .debug_str:000000000000b9fc .LASF263
C:\Users\SOLDER~1\AppData\Local\Temp\ccfBhFEg.s:32478  .debug_str:000000000002b8c5 .LASF264
C:\Users\SOLDER~1\AppData\Local\Temp\ccfBhFEg.s:24928  .debug_str:000000000000d028 .LASF265
C:\Users\SOLDER~1\AppData\Local\Temp\ccfBhFEg.s:25914  .debug_str:0000000000010ffe .LASF266
C:\Users\SOLDER~1\AppData\Local\Temp\ccfBhFEg.s:27790  .debug_str:00000000000189d5 .LASF267
C:\Users\SOLDER~1\AppData\Local\Temp\ccfBhFEg.s:31726  .debug_str:00000000000287fb .LASF268
C:\Users\SOLDER~1\AppData\Local\Temp\ccfBhFEg.s:24736  .debug_str:000000000000c2ec .LASF269
C:\Users\SOLDER~1\AppData\Local\Temp\ccfBhFEg.s:23428  .debug_str:0000000000006e32 .LASF270
C:\Users\SOLDER~1\AppData\Local\Temp\ccfBhFEg.s:23612  .debug_str:00000000000079f2 .LASF271
C:\Users\SOLDER~1\AppData\Local\Temp\ccfBhFEg.s:24982  .debug_str:000000000000d3ad .LASF272
C:\Users\SOLDER~1\AppData\Local\Temp\ccfBhFEg.s:24806  .debug_str:000000000000c7f3 .LASF273
C:\Users\SOLDER~1\AppData\Local\Temp\ccfBhFEg.s:22068  .debug_str:00000000000016fa .LASF274
C:\Users\SOLDER~1\AppData\Local\Temp\ccfBhFEg.s:23420  .debug_str:0000000000006dbf .LASF275
C:\Users\SOLDER~1\AppData\Local\Temp\ccfBhFEg.s:32412  .debug_str:000000000002b438 .LASF276
C:\Users\SOLDER~1\AppData\Local\Temp\ccfBhFEg.s:30328  .debug_str:0000000000022c66 .LASF277
C:\Users\SOLDER~1\AppData\Local\Temp\ccfBhFEg.s:31286  .debug_str:0000000000026b34 .LASF278
C:\Users\SOLDER~1\AppData\Local\Temp\ccfBhFEg.s:23380  .debug_str:0000000000006b2e .LASF279
C:\Users\SOLDER~1\AppData\Local\Temp\ccfBhFEg.s:23158  .debug_str:0000000000005c64 .LASF280
C:\Users\SOLDER~1\AppData\Local\Temp\ccfBhFEg.s:23042  .debug_str:00000000000054d4 .LASF281
C:\Users\SOLDER~1\AppData\Local\Temp\ccfBhFEg.s:27818  .debug_str:0000000000018b9f .LASF282
C:\Users\SOLDER~1\AppData\Local\Temp\ccfBhFEg.s:31256  .debug_str:0000000000026937 .LASF283
C:\Users\SOLDER~1\AppData\Local\Temp\ccfBhFEg.s:31522  .debug_str:0000000000027aa0 .LASF284
C:\Users\SOLDER~1\AppData\Local\Temp\ccfBhFEg.s:32390  .debug_str:000000000002b2dc .LASF285
C:\Users\SOLDER~1\AppData\Local\Temp\ccfBhFEg.s:29030  .debug_str:000000000001d95e .LASF286
C:\Users\SOLDER~1\AppData\Local\Temp\ccfBhFEg.s:33178  .debug_str:000000000002e62b .LASF287
C:\Users\SOLDER~1\AppData\Local\Temp\ccfBhFEg.s:23132  .debug_str:0000000000005aae .LASF288
C:\Users\SOLDER~1\AppData\Local\Temp\ccfBhFEg.s:26996  .debug_str:000000000001571f .LASF289
C:\Users\SOLDER~1\AppData\Local\Temp\ccfBhFEg.s:25866  .debug_str:0000000000010d18 .LASF290
C:\Users\SOLDER~1\AppData\Local\Temp\ccfBhFEg.s:33426  .debug_str:000000000002f58d .LASF291
C:\Users\SOLDER~1\AppData\Local\Temp\ccfBhFEg.s:32226  .debug_str:000000000002a874 .LASF292
C:\Users\SOLDER~1\AppData\Local\Temp\ccfBhFEg.s:22968  .debug_str:0000000000005051 .LASF293
C:\Users\SOLDER~1\AppData\Local\Temp\ccfBhFEg.s:21770  .debug_str:00000000000002bf .LASF294
C:\Users\SOLDER~1\AppData\Local\Temp\ccfBhFEg.s:27050  .debug_str:0000000000015ac9 .LASF295
C:\Users\SOLDER~1\AppData\Local\Temp\ccfBhFEg.s:27900  .debug_str:00000000000190e4 .LASF296
C:\Users\SOLDER~1\AppData\Local\Temp\ccfBhFEg.s:25274  .debug_str:000000000000e6e9 .LASF297
C:\Users\SOLDER~1\AppData\Local\Temp\ccfBhFEg.s:25806  .debug_str:0000000000010939 .LASF298
C:\Users\SOLDER~1\AppData\Local\Temp\ccfBhFEg.s:28608  .debug_str:000000000001bda5 .LASF299
C:\Users\SOLDER~1\AppData\Local\Temp\ccfBhFEg.s:27122  .debug_str:0000000000015f12 .LASF300
C:\Users\SOLDER~1\AppData\Local\Temp\ccfBhFEg.s:26544  .debug_str:0000000000013870 .LASF301
C:\Users\SOLDER~1\AppData\Local\Temp\ccfBhFEg.s:22298  .debug_str:00000000000025dc .LASF302
C:\Users\SOLDER~1\AppData\Local\Temp\ccfBhFEg.s:24934  .debug_str:000000000000d091 .LASF303
C:\Users\SOLDER~1\AppData\Local\Temp\ccfBhFEg.s:30412  .debug_str:0000000000023217 .LASF304
C:\Users\SOLDER~1\AppData\Local\Temp\ccfBhFEg.s:25828  .debug_str:0000000000010a6e .LASF305
C:\Users\SOLDER~1\AppData\Local\Temp\ccfBhFEg.s:31276  .debug_str:0000000000026aa3 .LASF306
C:\Users\SOLDER~1\AppData\Local\Temp\ccfBhFEg.s:30866  .debug_str:0000000000024f8e .LASF307
C:\Users\SOLDER~1\AppData\Local\Temp\ccfBhFEg.s:29042  .debug_str:000000000001da29 .LASF308
C:\Users\SOLDER~1\AppData\Local\Temp\ccfBhFEg.s:22756  .debug_str:000000000000432e .LASF309
C:\Users\SOLDER~1\AppData\Local\Temp\ccfBhFEg.s:29406  .debug_str:000000000001f181 .LASF310
GAS LISTING C:\Users\SOLDER~1\AppData\Local\Temp\ccfBhFEg.s 			page 79


C:\Users\SOLDER~1\AppData\Local\Temp\ccfBhFEg.s:25054  .debug_str:000000000000d880 .LASF311
C:\Users\SOLDER~1\AppData\Local\Temp\ccfBhFEg.s:26368  .debug_str:0000000000012c86 .LASF312
C:\Users\SOLDER~1\AppData\Local\Temp\ccfBhFEg.s:24174  .debug_str:0000000000009ee6 .LASF313
C:\Users\SOLDER~1\AppData\Local\Temp\ccfBhFEg.s:26804  .debug_str:0000000000014a7b .LASF314
C:\Users\SOLDER~1\AppData\Local\Temp\ccfBhFEg.s:23608  .debug_str:00000000000079b3 .LASF315
C:\Users\SOLDER~1\AppData\Local\Temp\ccfBhFEg.s:29114  .debug_str:000000000001de5d .LASF316
C:\Users\SOLDER~1\AppData\Local\Temp\ccfBhFEg.s:31612  .debug_str:0000000000028042 .LASF317
C:\Users\SOLDER~1\AppData\Local\Temp\ccfBhFEg.s:30872  .debug_str:0000000000024ffb .LASF319
C:\Users\SOLDER~1\AppData\Local\Temp\ccfBhFEg.s:25662  .debug_str:000000000000ffec .LASF320
C:\Users\SOLDER~1\AppData\Local\Temp\ccfBhFEg.s:26966  .debug_str:0000000000015518 .LASF321
C:\Users\SOLDER~1\AppData\Local\Temp\ccfBhFEg.s:29448  .debug_str:000000000001f42d .LASF322
C:\Users\SOLDER~1\AppData\Local\Temp\ccfBhFEg.s:28260  .debug_str:000000000001a7b2 .LASF323
C:\Users\SOLDER~1\AppData\Local\Temp\ccfBhFEg.s:24946  .debug_str:000000000000d153 .LASF324
C:\Users\SOLDER~1\AppData\Local\Temp\ccfBhFEg.s:23128  .debug_str:0000000000005a75 .LASF325
C:\Users\SOLDER~1\AppData\Local\Temp\ccfBhFEg.s:21852  .debug_str:00000000000008a1 .LASF326
C:\Users\SOLDER~1\AppData\Local\Temp\ccfBhFEg.s:32230  .debug_str:000000000002a8b9 .LASF327
C:\Users\SOLDER~1\AppData\Local\Temp\ccfBhFEg.s:25024  .debug_str:000000000000d672 .LASF328
C:\Users\SOLDER~1\AppData\Local\Temp\ccfBhFEg.s:33104  .debug_str:000000000002e165 .LASF329
C:\Users\SOLDER~1\AppData\Local\Temp\ccfBhFEg.s:23250  .debug_str:0000000000006289 .LASF330
C:\Users\SOLDER~1\AppData\Local\Temp\ccfBhFEg.s:22804  .debug_str:0000000000004613 .LASF331
C:\Users\SOLDER~1\AppData\Local\Temp\ccfBhFEg.s:21782  .debug_str:0000000000000380 .LASF332
C:\Users\SOLDER~1\AppData\Local\Temp\ccfBhFEg.s:27224  .debug_str:000000000001655d .LASF333
C:\Users\SOLDER~1\AppData\Local\Temp\ccfBhFEg.s:29878  .debug_str:0000000000021015 .LASF334
C:\Users\SOLDER~1\AppData\Local\Temp\ccfBhFEg.s:28142  .debug_str:000000000001a05e .LASF335
C:\Users\SOLDER~1\AppData\Local\Temp\ccfBhFEg.s:28002  .debug_str:0000000000019796 .LASF339
C:\Users\SOLDER~1\AppData\Local\Temp\ccfBhFEg.s:28544  .debug_str:000000000001b9b8 .LASF340
C:\Users\SOLDER~1\AppData\Local\Temp\ccfBhFEg.s:24490  .debug_str:000000000000b37b .LASF341
C:\Users\SOLDER~1\AppData\Local\Temp\ccfBhFEg.s:27764  .debug_str:0000000000018847 .LASF342
C:\Users\SOLDER~1\AppData\Local\Temp\ccfBhFEg.s:27988  .debug_str:00000000000196bc .LASF343
C:\Users\SOLDER~1\AppData\Local\Temp\ccfBhFEg.s:22344  .debug_str:00000000000028c8 .LASF344
C:\Users\SOLDER~1\AppData\Local\Temp\ccfBhFEg.s:24534  .debug_str:000000000000b64d .LASF345
C:\Users\SOLDER~1\AppData\Local\Temp\ccfBhFEg.s:22670  .debug_str:0000000000003dac .LASF346
C:\Users\SOLDER~1\AppData\Local\Temp\ccfBhFEg.s:32762  .debug_str:000000000002cb49 .LASF347
C:\Users\SOLDER~1\AppData\Local\Temp\ccfBhFEg.s:27314  .debug_str:0000000000016aea .LASF348
C:\Users\SOLDER~1\AppData\Local\Temp\ccfBhFEg.s:29810  .debug_str:0000000000020b9f .LASF349
C:\Users\SOLDER~1\AppData\Local\Temp\ccfBhFEg.s:23998  .debug_str:00000000000093a3 .LASF350
C:\Users\SOLDER~1\AppData\Local\Temp\ccfBhFEg.s:27828  .debug_str:0000000000018c36 .LASF351
C:\Users\SOLDER~1\AppData\Local\Temp\ccfBhFEg.s:33094  .debug_str:000000000002e0ce .LASF352
C:\Users\SOLDER~1\AppData\Local\Temp\ccfBhFEg.s:24466  .debug_str:000000000000b20a .LASF353
C:\Users\SOLDER~1\AppData\Local\Temp\ccfBhFEg.s:25578  .debug_str:000000000000fa00 .LASF354
C:\Users\SOLDER~1\AppData\Local\Temp\ccfBhFEg.s:29056  .debug_str:000000000001db15 .LASF355
C:\Users\SOLDER~1\AppData\Local\Temp\ccfBhFEg.s:27222  .debug_str:000000000001654d .LASF356
C:\Users\SOLDER~1\AppData\Local\Temp\ccfBhFEg.s:27366  .debug_str:0000000000016e30 .LASF357
C:\Users\SOLDER~1\AppData\Local\Temp\ccfBhFEg.s:30456  .debug_str:00000000000234c9 .LASF358
C:\Users\SOLDER~1\AppData\Local\Temp\ccfBhFEg.s:26426  .debug_str:00000000000130b0 .LASF359
C:\Users\SOLDER~1\AppData\Local\Temp\ccfBhFEg.s:27432  .debug_str:00000000000171fe .LASF360
C:\Users\SOLDER~1\AppData\Local\Temp\ccfBhFEg.s:30578  .debug_str:0000000000023cc6 .LASF361
C:\Users\SOLDER~1\AppData\Local\Temp\ccfBhFEg.s:23492  .debug_str:00000000000072af .LASF362
C:\Users\SOLDER~1\AppData\Local\Temp\ccfBhFEg.s:32362  .debug_str:000000000002b108 .LASF363
C:\Users\SOLDER~1\AppData\Local\Temp\ccfBhFEg.s:23012  .debug_str:00000000000052fd .LASF364
C:\Users\SOLDER~1\AppData\Local\Temp\ccfBhFEg.s:27924  .debug_str:0000000000019277 .LASF365
C:\Users\SOLDER~1\AppData\Local\Temp\ccfBhFEg.s:23596  .debug_str:00000000000078f8 .LASF366
C:\Users\SOLDER~1\AppData\Local\Temp\ccfBhFEg.s:24552  .debug_str:000000000000b7af .LASF367
C:\Users\SOLDER~1\AppData\Local\Temp\ccfBhFEg.s:21740  .debug_str:000000000000011a .LASF368
C:\Users\SOLDER~1\AppData\Local\Temp\ccfBhFEg.s:29760  .debug_str:000000000002086c .LASF369
C:\Users\SOLDER~1\AppData\Local\Temp\ccfBhFEg.s:25264  .debug_str:000000000000e63c .LASF370
C:\Users\SOLDER~1\AppData\Local\Temp\ccfBhFEg.s:30774  .debug_str:000000000002496b .LASF371
GAS LISTING C:\Users\SOLDER~1\AppData\Local\Temp\ccfBhFEg.s 			page 80


C:\Users\SOLDER~1\AppData\Local\Temp\ccfBhFEg.s:29692  .debug_str:000000000002042a .LASF372
C:\Users\SOLDER~1\AppData\Local\Temp\ccfBhFEg.s:26030  .debug_str:000000000001172f .LASF373
C:\Users\SOLDER~1\AppData\Local\Temp\ccfBhFEg.s:33236  .debug_str:000000000002e98f .LASF374
C:\Users\SOLDER~1\AppData\Local\Temp\ccfBhFEg.s:33176  .debug_str:000000000002e625 .LASF375
C:\Users\SOLDER~1\AppData\Local\Temp\ccfBhFEg.s:23786  .debug_str:00000000000085c2 .LASF376
C:\Users\SOLDER~1\AppData\Local\Temp\ccfBhFEg.s:32262  .debug_str:000000000002aabd .LASF377
C:\Users\SOLDER~1\AppData\Local\Temp\ccfBhFEg.s:27208  .debug_str:0000000000016470 .LASF378
C:\Users\SOLDER~1\AppData\Local\Temp\ccfBhFEg.s:31042  .debug_str:0000000000025ace .LASF379
C:\Users\SOLDER~1\AppData\Local\Temp\ccfBhFEg.s:32060  .debug_str:0000000000029d75 .LASF380
C:\Users\SOLDER~1\AppData\Local\Temp\ccfBhFEg.s:30498  .debug_str:000000000002376a .LASF381
C:\Users\SOLDER~1\AppData\Local\Temp\ccfBhFEg.s:27408  .debug_str:00000000000170a1 .LASF382
C:\Users\SOLDER~1\AppData\Local\Temp\ccfBhFEg.s:32086  .debug_str:0000000000029efb .LASF383
C:\Users\SOLDER~1\AppData\Local\Temp\ccfBhFEg.s:28774  .debug_str:000000000001c88b .LASF384
C:\Users\SOLDER~1\AppData\Local\Temp\ccfBhFEg.s:26130  .debug_str:0000000000011db7 .LASF385
C:\Users\SOLDER~1\AppData\Local\Temp\ccfBhFEg.s:30626  .debug_str:0000000000023fc8 .LASF386
C:\Users\SOLDER~1\AppData\Local\Temp\ccfBhFEg.s:29604  .debug_str:000000000001fec4 .LASF387
C:\Users\SOLDER~1\AppData\Local\Temp\ccfBhFEg.s:22100  .debug_str:00000000000018f2 .LASF388
C:\Users\SOLDER~1\AppData\Local\Temp\ccfBhFEg.s:22774  .debug_str:000000000000443e .LASF389
C:\Users\SOLDER~1\AppData\Local\Temp\ccfBhFEg.s:23184  .debug_str:0000000000005e0b .LASF390
C:\Users\SOLDER~1\AppData\Local\Temp\ccfBhFEg.s:24382  .debug_str:000000000000acde .LASF391
C:\Users\SOLDER~1\AppData\Local\Temp\ccfBhFEg.s:23854  .debug_str:0000000000008a0a .LASF392
C:\Users\SOLDER~1\AppData\Local\Temp\ccfBhFEg.s:29296  .debug_str:000000000001ea22 .LASF393
C:\Users\SOLDER~1\AppData\Local\Temp\ccfBhFEg.s:29948  .debug_str:00000000000214ab .LASF394
C:\Users\SOLDER~1\AppData\Local\Temp\ccfBhFEg.s:30078  .debug_str:0000000000021d12 .LASF395
C:\Users\SOLDER~1\AppData\Local\Temp\ccfBhFEg.s:24004  .debug_str:00000000000093f9 .LASF396
C:\Users\SOLDER~1\AppData\Local\Temp\ccfBhFEg.s:23586  .debug_str:0000000000007877 .LASF397
C:\Users\SOLDER~1\AppData\Local\Temp\ccfBhFEg.s:29110  .debug_str:000000000001de39 .LASF398
C:\Users\SOLDER~1\AppData\Local\Temp\ccfBhFEg.s:31776  .debug_str:0000000000028b2e .LASF399
C:\Users\SOLDER~1\AppData\Local\Temp\ccfBhFEg.s:26340  .debug_str:0000000000012aee .LASF400
C:\Users\SOLDER~1\AppData\Local\Temp\ccfBhFEg.s:27106  .debug_str:0000000000015e07 .LASF401
C:\Users\SOLDER~1\AppData\Local\Temp\ccfBhFEg.s:24912  .debug_str:000000000000cf27 .LASF402
C:\Users\SOLDER~1\AppData\Local\Temp\ccfBhFEg.s:28802  .debug_str:000000000001ca4d .LASF403
C:\Users\SOLDER~1\AppData\Local\Temp\ccfBhFEg.s:27322  .debug_str:0000000000016b57 .LASF404
C:\Users\SOLDER~1\AppData\Local\Temp\ccfBhFEg.s:27780  .debug_str:0000000000018932 .LASF405
C:\Users\SOLDER~1\AppData\Local\Temp\ccfBhFEg.s:23906  .debug_str:0000000000008d85 .LASF406
C:\Users\SOLDER~1\AppData\Local\Temp\ccfBhFEg.s:32712  .debug_str:000000000002c826 .LASF407
C:\Users\SOLDER~1\AppData\Local\Temp\ccfBhFEg.s:26650  .debug_str:0000000000014008 .LASF408
C:\Users\SOLDER~1\AppData\Local\Temp\ccfBhFEg.s:29140  .debug_str:000000000001dffa .LASF409
C:\Users\SOLDER~1\AppData\Local\Temp\ccfBhFEg.s:25492  .debug_str:000000000000f472 .LASF410
C:\Users\SOLDER~1\AppData\Local\Temp\ccfBhFEg.s:29844  .debug_str:0000000000020de6 .LASF411
C:\Users\SOLDER~1\AppData\Local\Temp\ccfBhFEg.s:31840  .debug_str:0000000000028f45 .LASF412
C:\Users\SOLDER~1\AppData\Local\Temp\ccfBhFEg.s:26196  .debug_str:00000000000121c9 .LASF413
C:\Users\SOLDER~1\AppData\Local\Temp\ccfBhFEg.s:26186  .debug_str:000000000001213f .LASF414
C:\Users\SOLDER~1\AppData\Local\Temp\ccfBhFEg.s:28204  .debug_str:000000000001a44e .LASF415
C:\Users\SOLDER~1\AppData\Local\Temp\ccfBhFEg.s:33274  .debug_str:000000000002ebdd .LASF416
C:\Users\SOLDER~1\AppData\Local\Temp\ccfBhFEg.s:33418  .debug_str:000000000002f514 .LASF417
C:\Users\SOLDER~1\AppData\Local\Temp\ccfBhFEg.s:23658  .debug_str:0000000000007d18 .LASF418
C:\Users\SOLDER~1\AppData\Local\Temp\ccfBhFEg.s:24760  .debug_str:000000000000c4bf .LASF419
C:\Users\SOLDER~1\AppData\Local\Temp\ccfBhFEg.s:22280  .debug_str:00000000000024d0 .LASF420
C:\Users\SOLDER~1\AppData\Local\Temp\ccfBhFEg.s:29898  .debug_str:0000000000021168 .LASF421
C:\Users\SOLDER~1\AppData\Local\Temp\ccfBhFEg.s:30602  .debug_str:0000000000023e4f .LASF422
C:\Users\SOLDER~1\AppData\Local\Temp\ccfBhFEg.s:22212  .debug_str:0000000000002053 .LASF423
C:\Users\SOLDER~1\AppData\Local\Temp\ccfBhFEg.s:26584  .debug_str:0000000000013b29 .LASF424
C:\Users\SOLDER~1\AppData\Local\Temp\ccfBhFEg.s:29834  .debug_str:0000000000020d3d .LASF425
C:\Users\SOLDER~1\AppData\Local\Temp\ccfBhFEg.s:26176  .debug_str:00000000000120bb .LASF426
C:\Users\SOLDER~1\AppData\Local\Temp\ccfBhFEg.s:33400  .debug_str:000000000002f3f4 .LASF427
C:\Users\SOLDER~1\AppData\Local\Temp\ccfBhFEg.s:28814  .debug_str:000000000001caec .LASF428
GAS LISTING C:\Users\SOLDER~1\AppData\Local\Temp\ccfBhFEg.s 			page 81


C:\Users\SOLDER~1\AppData\Local\Temp\ccfBhFEg.s:23026  .debug_str:00000000000053ec .LASF429
C:\Users\SOLDER~1\AppData\Local\Temp\ccfBhFEg.s:30984  .debug_str:000000000002574d .LASF430
C:\Users\SOLDER~1\AppData\Local\Temp\ccfBhFEg.s:26518  .debug_str:00000000000136b0 .LASF431
C:\Users\SOLDER~1\AppData\Local\Temp\ccfBhFEg.s:30896  .debug_str:000000000002519c .LASF432
C:\Users\SOLDER~1\AppData\Local\Temp\ccfBhFEg.s:22936  .debug_str:0000000000004e70 .LASF433
C:\Users\SOLDER~1\AppData\Local\Temp\ccfBhFEg.s:25466  .debug_str:000000000000f2de .LASF434
C:\Users\SOLDER~1\AppData\Local\Temp\ccfBhFEg.s:29728  .debug_str:0000000000020674 .LASF435
C:\Users\SOLDER~1\AppData\Local\Temp\ccfBhFEg.s:21898  .debug_str:0000000000000c10 .LASF436
C:\Users\SOLDER~1\AppData\Local\Temp\ccfBhFEg.s:24956  .debug_str:000000000000d201 .LASF437
C:\Users\SOLDER~1\AppData\Local\Temp\ccfBhFEg.s:26934  .debug_str:0000000000015314 .LASF438
C:\Users\SOLDER~1\AppData\Local\Temp\ccfBhFEg.s:23014  .debug_str:0000000000005312 .LASF439
C:\Users\SOLDER~1\AppData\Local\Temp\ccfBhFEg.s:26246  .debug_str:00000000000124e6 .LASF440
C:\Users\SOLDER~1\AppData\Local\Temp\ccfBhFEg.s:30168  .debug_str:00000000000222a0 .LASF441
C:\Users\SOLDER~1\AppData\Local\Temp\ccfBhFEg.s:24580  .debug_str:000000000000b94e .LASF442
C:\Users\SOLDER~1\AppData\Local\Temp\ccfBhFEg.s:28862  .debug_str:000000000001ce1f .LASF443
C:\Users\SOLDER~1\AppData\Local\Temp\ccfBhFEg.s:32584  .debug_str:000000000002bf73 .LASF444
C:\Users\SOLDER~1\AppData\Local\Temp\ccfBhFEg.s:26380  .debug_str:0000000000012d60 .LASF445
C:\Users\SOLDER~1\AppData\Local\Temp\ccfBhFEg.s:25792  .debug_str:000000000001085f .LASF446
C:\Users\SOLDER~1\AppData\Local\Temp\ccfBhFEg.s:29624  .debug_str:000000000001fff9 .LASF447
C:\Users\SOLDER~1\AppData\Local\Temp\ccfBhFEg.s:23904  .debug_str:0000000000008d6b .LASF448
C:\Users\SOLDER~1\AppData\Local\Temp\ccfBhFEg.s:29214  .debug_str:000000000001e4fc .LASF449
C:\Users\SOLDER~1\AppData\Local\Temp\ccfBhFEg.s:25458  .debug_str:000000000000f265 .LASF450
C:\Users\SOLDER~1\AppData\Local\Temp\ccfBhFEg.s:31996  .debug_str:0000000000029934 .LASF451
C:\Users\SOLDER~1\AppData\Local\Temp\ccfBhFEg.s:26104  .debug_str:0000000000011be5 .LASF452
C:\Users\SOLDER~1\AppData\Local\Temp\ccfBhFEg.s:22464  .debug_str:000000000000306c .LASF453
C:\Users\SOLDER~1\AppData\Local\Temp\ccfBhFEg.s:22052  .debug_str:00000000000015f1 .LASF454
C:\Users\SOLDER~1\AppData\Local\Temp\ccfBhFEg.s:30338  .debug_str:0000000000022cfc .LASF455
C:\Users\SOLDER~1\AppData\Local\Temp\ccfBhFEg.s:31254  .debug_str:000000000002690c .LASF456
C:\Users\SOLDER~1\AppData\Local\Temp\ccfBhFEg.s:24978  .debug_str:000000000000d35e .LASF457
C:\Users\SOLDER~1\AppData\Local\Temp\ccfBhFEg.s:25300  .debug_str:000000000000e88c .LASF458
C:\Users\SOLDER~1\AppData\Local\Temp\ccfBhFEg.s:31898  .debug_str:00000000000292f9 .LASF459
C:\Users\SOLDER~1\AppData\Local\Temp\ccfBhFEg.s:32828  .debug_str:000000000002cf42 .LASF460
C:\Users\SOLDER~1\AppData\Local\Temp\ccfBhFEg.s:22038  .debug_str:0000000000001502 .LASF461
C:\Users\SOLDER~1\AppData\Local\Temp\ccfBhFEg.s:24562  .debug_str:000000000000b838 .LASF462
C:\Users\SOLDER~1\AppData\Local\Temp\ccfBhFEg.s:31210  .debug_str:000000000002661a .LASF463
C:\Users\SOLDER~1\AppData\Local\Temp\ccfBhFEg.s:28542  .debug_str:000000000001b992 .LASF464
C:\Users\SOLDER~1\AppData\Local\Temp\ccfBhFEg.s:31752  .debug_str:0000000000028983 .LASF465
C:\Users\SOLDER~1\AppData\Local\Temp\ccfBhFEg.s:27706  .debug_str:000000000001847e .LASF466
C:\Users\SOLDER~1\AppData\Local\Temp\ccfBhFEg.s:30128  .debug_str:0000000000022020 .LASF467
C:\Users\SOLDER~1\AppData\Local\Temp\ccfBhFEg.s:28764  .debug_str:000000000001c7d6 .LASF468
C:\Users\SOLDER~1\AppData\Local\Temp\ccfBhFEg.s:22140  .debug_str:0000000000001b94 .LASF469
C:\Users\SOLDER~1\AppData\Local\Temp\ccfBhFEg.s:27134  .debug_str:0000000000015fa6 .LASF470
C:\Users\SOLDER~1\AppData\Local\Temp\ccfBhFEg.s:29708  .debug_str:000000000002052a .LASF471
C:\Users\SOLDER~1\AppData\Local\Temp\ccfBhFEg.s:33082  .debug_str:000000000002e009 .LASF472
C:\Users\SOLDER~1\AppData\Local\Temp\ccfBhFEg.s:33328  .debug_str:000000000002ef96 .LASF473
C:\Users\SOLDER~1\AppData\Local\Temp\ccfBhFEg.s:33180  .debug_str:000000000002e64d .LASF474
C:\Users\SOLDER~1\AppData\Local\Temp\ccfBhFEg.s:31246  .debug_str:0000000000026882 .LASF475
C:\Users\SOLDER~1\AppData\Local\Temp\ccfBhFEg.s:24196  .debug_str:000000000000a077 .LASF476
C:\Users\SOLDER~1\AppData\Local\Temp\ccfBhFEg.s:28324  .debug_str:000000000001abb3 .LASF477
C:\Users\SOLDER~1\AppData\Local\Temp\ccfBhFEg.s:27384  .debug_str:0000000000016f44 .LASF478
C:\Users\SOLDER~1\AppData\Local\Temp\ccfBhFEg.s:31354  .debug_str:0000000000026f86 .LASF479
C:\Users\SOLDER~1\AppData\Local\Temp\ccfBhFEg.s:21938  .debug_str:0000000000000eb7 .LASF480
C:\Users\SOLDER~1\AppData\Local\Temp\ccfBhFEg.s:30142  .debug_str:000000000002210d .LASF481
C:\Users\SOLDER~1\AppData\Local\Temp\ccfBhFEg.s:31450  .debug_str:00000000000275dd .LASF482
C:\Users\SOLDER~1\AppData\Local\Temp\ccfBhFEg.s:24710  .debug_str:000000000000c170 .LASF483
C:\Users\SOLDER~1\AppData\Local\Temp\ccfBhFEg.s:28480  .debug_str:000000000001b5bd .LASF484
C:\Users\SOLDER~1\AppData\Local\Temp\ccfBhFEg.s:28396  .debug_str:000000000001b040 .LASF485
GAS LISTING C:\Users\SOLDER~1\AppData\Local\Temp\ccfBhFEg.s 			page 82


C:\Users\SOLDER~1\AppData\Local\Temp\ccfBhFEg.s:31572  .debug_str:0000000000027dd3 .LASF486
C:\Users\SOLDER~1\AppData\Local\Temp\ccfBhFEg.s:28964  .debug_str:000000000001d4d3 .LASF487
C:\Users\SOLDER~1\AppData\Local\Temp\ccfBhFEg.s:25714  .debug_str:0000000000010351 .LASF488
C:\Users\SOLDER~1\AppData\Local\Temp\ccfBhFEg.s:27874  .debug_str:0000000000018f12 .LASF489
C:\Users\SOLDER~1\AppData\Local\Temp\ccfBhFEg.s:22960  .debug_str:0000000000004fca .LASF490
C:\Users\SOLDER~1\AppData\Local\Temp\ccfBhFEg.s:26080  .debug_str:0000000000011a67 .LASF491
C:\Users\SOLDER~1\AppData\Local\Temp\ccfBhFEg.s:25040  .debug_str:000000000000d78f .LASF492
C:\Users\SOLDER~1\AppData\Local\Temp\ccfBhFEg.s:30452  .debug_str:0000000000023492 .LASF494
C:\Users\SOLDER~1\AppData\Local\Temp\ccfBhFEg.s:24070  .debug_str:0000000000009836 .LASF495
C:\Users\SOLDER~1\AppData\Local\Temp\ccfBhFEg.s:32026  .debug_str:0000000000029b50 .LASF496
C:\Users\SOLDER~1\AppData\Local\Temp\ccfBhFEg.s:29220  .debug_str:000000000001e555 .LASF497
C:\Users\SOLDER~1\AppData\Local\Temp\ccfBhFEg.s:28546  .debug_str:000000000001b9d0 .LASF498
C:\Users\SOLDER~1\AppData\Local\Temp\ccfBhFEg.s:28644  .debug_str:000000000001bfda .LASF499
C:\Users\SOLDER~1\AppData\Local\Temp\ccfBhFEg.s:25304  .debug_str:000000000000e8cd .LASF500
C:\Users\SOLDER~1\AppData\Local\Temp\ccfBhFEg.s:22860  .debug_str:00000000000049cb .LASF501
C:\Users\SOLDER~1\AppData\Local\Temp\ccfBhFEg.s:26230  .debug_str:00000000000123ef .LASF502
C:\Users\SOLDER~1\AppData\Local\Temp\ccfBhFEg.s:22990  .debug_str:0000000000005189 .LASF503
C:\Users\SOLDER~1\AppData\Local\Temp\ccfBhFEg.s:27090  .debug_str:0000000000015ce1 .LASF504
C:\Users\SOLDER~1\AppData\Local\Temp\ccfBhFEg.s:21752  .debug_str:00000000000001c1 .LASF505
C:\Users\SOLDER~1\AppData\Local\Temp\ccfBhFEg.s:25118  .debug_str:000000000000dc9d .LASF506
C:\Users\SOLDER~1\AppData\Local\Temp\ccfBhFEg.s:33144  .debug_str:000000000002e400 .LASF507
C:\Users\SOLDER~1\AppData\Local\Temp\ccfBhFEg.s:32066  .debug_str:0000000000029dc1 .LASF508
C:\Users\SOLDER~1\AppData\Local\Temp\ccfBhFEg.s:26610  .debug_str:0000000000013cfb .LASF509
C:\Users\SOLDER~1\AppData\Local\Temp\ccfBhFEg.s:27558  .debug_str:0000000000017aba .LASF510
C:\Users\SOLDER~1\AppData\Local\Temp\ccfBhFEg.s:26920  .debug_str:0000000000015240 .LASF511
C:\Users\SOLDER~1\AppData\Local\Temp\ccfBhFEg.s:28016  .debug_str:0000000000019885 .LASF512
C:\Users\SOLDER~1\AppData\Local\Temp\ccfBhFEg.s:29872  .debug_str:0000000000020faa .LASF513
C:\Users\SOLDER~1\AppData\Local\Temp\ccfBhFEg.s:28882  .debug_str:000000000001cf69 .LASF514
C:\Users\SOLDER~1\AppData\Local\Temp\ccfBhFEg.s:30560  .debug_str:0000000000023b80 .LASF515
C:\Users\SOLDER~1\AppData\Local\Temp\ccfBhFEg.s:32684  .debug_str:000000000002c5fb .LASF516
C:\Users\SOLDER~1\AppData\Local\Temp\ccfBhFEg.s:29130  .debug_str:000000000001df50 .LASF517
C:\Users\SOLDER~1\AppData\Local\Temp\ccfBhFEg.s:32552  .debug_str:000000000002bd5d .LASF518
C:\Users\SOLDER~1\AppData\Local\Temp\ccfBhFEg.s:31136  .debug_str:000000000002610e .LASF519
C:\Users\SOLDER~1\AppData\Local\Temp\ccfBhFEg.s:28290  .debug_str:000000000001a9b5 .LASF520
C:\Users\SOLDER~1\AppData\Local\Temp\ccfBhFEg.s:23274  .debug_str:000000000000640f .LASF521
C:\Users\SOLDER~1\AppData\Local\Temp\ccfBhFEg.s:30502  .debug_str:000000000002379b .LASF522
C:\Users\SOLDER~1\AppData\Local\Temp\ccfBhFEg.s:26536  .debug_str:00000000000137d7 .LASF523
C:\Users\SOLDER~1\AppData\Local\Temp\ccfBhFEg.s:22244  .debug_str:0000000000002261 .LASF524
C:\Users\SOLDER~1\AppData\Local\Temp\ccfBhFEg.s:29184  .debug_str:000000000001e2f5 .LASF525
C:\Users\SOLDER~1\AppData\Local\Temp\ccfBhFEg.s:25178  .debug_str:000000000000e02d .LASF526
C:\Users\SOLDER~1\AppData\Local\Temp\ccfBhFEg.s:26938  .debug_str:0000000000015350 .LASF527
C:\Users\SOLDER~1\AppData\Local\Temp\ccfBhFEg.s:25216  .debug_str:000000000000e2ad .LASF528
C:\Users\SOLDER~1\AppData\Local\Temp\ccfBhFEg.s:26596  .debug_str:0000000000013beb .LASF529
C:\Users\SOLDER~1\AppData\Local\Temp\ccfBhFEg.s:23600  .debug_str:0000000000007931 .LASF530
C:\Users\SOLDER~1\AppData\Local\Temp\ccfBhFEg.s:24796  .debug_str:000000000000c747 .LASF531
C:\Users\SOLDER~1\AppData\Local\Temp\ccfBhFEg.s:31496  .debug_str:00000000000278de .LASF532
C:\Users\SOLDER~1\AppData\Local\Temp\ccfBhFEg.s:33290  .debug_str:000000000002ecd4 .LASF533
C:\Users\SOLDER~1\AppData\Local\Temp\ccfBhFEg.s:26254  .debug_str:000000000001257d .LASF534
C:\Users\SOLDER~1\AppData\Local\Temp\ccfBhFEg.s:32676  .debug_str:000000000002c56d .LASF535
C:\Users\SOLDER~1\AppData\Local\Temp\ccfBhFEg.s:28766  .debug_str:000000000001c7ff .LASF536
C:\Users\SOLDER~1\AppData\Local\Temp\ccfBhFEg.s:25126  .debug_str:000000000000dd13 .LASF537
C:\Users\SOLDER~1\AppData\Local\Temp\ccfBhFEg.s:28540  .debug_str:000000000001b96c .LASF538
C:\Users\SOLDER~1\AppData\Local\Temp\ccfBhFEg.s:22848  .debug_str:00000000000048fa .LASF539
C:\Users\SOLDER~1\AppData\Local\Temp\ccfBhFEg.s:30558  .debug_str:0000000000023b5b .LASF540
C:\Users\SOLDER~1\AppData\Local\Temp\ccfBhFEg.s:28586  .debug_str:000000000001bc5f .LASF541
C:\Users\SOLDER~1\AppData\Local\Temp\ccfBhFEg.s:32768  .debug_str:000000000002cb92 .LASF542
C:\Users\SOLDER~1\AppData\Local\Temp\ccfBhFEg.s:24608  .debug_str:000000000000babb .LASF543
GAS LISTING C:\Users\SOLDER~1\AppData\Local\Temp\ccfBhFEg.s 			page 83


C:\Users\SOLDER~1\AppData\Local\Temp\ccfBhFEg.s:31474  .debug_str:0000000000027759 .LASF544
C:\Users\SOLDER~1\AppData\Local\Temp\ccfBhFEg.s:30696  .debug_str:0000000000024442 .LASF545
C:\Users\SOLDER~1\AppData\Local\Temp\ccfBhFEg.s:29450  .debug_str:000000000001f44f .LASF546
C:\Users\SOLDER~1\AppData\Local\Temp\ccfBhFEg.s:31694  .debug_str:00000000000285ae .LASF547
C:\Users\SOLDER~1\AppData\Local\Temp\ccfBhFEg.s:29660  .debug_str:0000000000020228 .LASF548
C:\Users\SOLDER~1\AppData\Local\Temp\ccfBhFEg.s:27760  .debug_str:00000000000187fc .LASF549
C:\Users\SOLDER~1\AppData\Local\Temp\ccfBhFEg.s:26440  .debug_str:0000000000013181 .LASF550
C:\Users\SOLDER~1\AppData\Local\Temp\ccfBhFEg.s:30084  .debug_str:0000000000021d5c .LASF551
C:\Users\SOLDER~1\AppData\Local\Temp\ccfBhFEg.s:26678  .debug_str:00000000000141d0 .LASF552
C:\Users\SOLDER~1\AppData\Local\Temp\ccfBhFEg.s:29322  .debug_str:000000000001ec06 .LASF553
C:\Users\SOLDER~1\AppData\Local\Temp\ccfBhFEg.s:27234  .debug_str:0000000000016605 .LASF554
C:\Users\SOLDER~1\AppData\Local\Temp\ccfBhFEg.s:22078  .debug_str:0000000000001797 .LASF555
C:\Users\SOLDER~1\AppData\Local\Temp\ccfBhFEg.s:25970  .debug_str:0000000000011391 .LASF556
C:\Users\SOLDER~1\AppData\Local\Temp\ccfBhFEg.s:23234  .debug_str:0000000000006172 .LASF557
C:\Users\SOLDER~1\AppData\Local\Temp\ccfBhFEg.s:25868  .debug_str:0000000000010d35 .LASF558
C:\Users\SOLDER~1\AppData\Local\Temp\ccfBhFEg.s:32576  .debug_str:000000000002bedc .LASF559
C:\Users\SOLDER~1\AppData\Local\Temp\ccfBhFEg.s:22168  .debug_str:0000000000001d95 .LASF560
C:\Users\SOLDER~1\AppData\Local\Temp\ccfBhFEg.s:31014  .debug_str:000000000002591a .LASF561
C:\Users\SOLDER~1\AppData\Local\Temp\ccfBhFEg.s:32962  .debug_str:000000000002d85e .LASF562
C:\Users\SOLDER~1\AppData\Local\Temp\ccfBhFEg.s:33200  .debug_str:000000000002e74e .LASF563
C:\Users\SOLDER~1\AppData\Local\Temp\ccfBhFEg.s:25200  .debug_str:000000000000e194 .LASF564
C:\Users\SOLDER~1\AppData\Local\Temp\ccfBhFEg.s:21982  .debug_str:0000000000001174 .LASF565
C:\Users\SOLDER~1\AppData\Local\Temp\ccfBhFEg.s:30608  .debug_str:0000000000023eaf .LASF566
C:\Users\SOLDER~1\AppData\Local\Temp\ccfBhFEg.s:28468  .debug_str:000000000001b51b .LASF567
C:\Users\SOLDER~1\AppData\Local\Temp\ccfBhFEg.s:28702  .debug_str:000000000001c3a4 .LASF568
C:\Users\SOLDER~1\AppData\Local\Temp\ccfBhFEg.s:22194  .debug_str:0000000000001f25 .LASF569
C:\Users\SOLDER~1\AppData\Local\Temp\ccfBhFEg.s:27030  .debug_str:0000000000015973 .LASF570
C:\Users\SOLDER~1\AppData\Local\Temp\ccfBhFEg.s:30792  .debug_str:0000000000024a8b .LASF571
C:\Users\SOLDER~1\AppData\Local\Temp\ccfBhFEg.s:25520  .debug_str:000000000000f63d .LASF572
C:\Users\SOLDER~1\AppData\Local\Temp\ccfBhFEg.s:27482  .debug_str:0000000000017560 .LASF573
C:\Users\SOLDER~1\AppData\Local\Temp\ccfBhFEg.s:25334  .debug_str:000000000000ea92 .LASF574
C:\Users\SOLDER~1\AppData\Local\Temp\ccfBhFEg.s:27370  .debug_str:0000000000016e66 .LASF575
C:\Users\SOLDER~1\AppData\Local\Temp\ccfBhFEg.s:26466  .debug_str:0000000000013339 .LASF576
C:\Users\SOLDER~1\AppData\Local\Temp\ccfBhFEg.s:26428  .debug_str:00000000000130c1 .LASF577
C:\Users\SOLDER~1\AppData\Local\Temp\ccfBhFEg.s:33034  .debug_str:000000000002dcdd .LASF578
C:\Users\SOLDER~1\AppData\Local\Temp\ccfBhFEg.s:27946  .debug_str:0000000000019404 .LASF579
C:\Users\SOLDER~1\AppData\Local\Temp\ccfBhFEg.s:31214  .debug_str:0000000000026647 .LASF580
C:\Users\SOLDER~1\AppData\Local\Temp\ccfBhFEg.s:22844  .debug_str:00000000000048bc .LASF581
C:\Users\SOLDER~1\AppData\Local\Temp\ccfBhFEg.s:26212  .debug_str:00000000000122d1 .LASF582
C:\Users\SOLDER~1\AppData\Local\Temp\ccfBhFEg.s:29470  .debug_str:000000000001f5af .LASF583
C:\Users\SOLDER~1\AppData\Local\Temp\ccfBhFEg.s:32804  .debug_str:000000000002cde3 .LASF584
C:\Users\SOLDER~1\AppData\Local\Temp\ccfBhFEg.s:24416  .debug_str:000000000000aeb3 .LASF585
C:\Users\SOLDER~1\AppData\Local\Temp\ccfBhFEg.s:32334  .debug_str:000000000002af03 .LASF586
C:\Users\SOLDER~1\AppData\Local\Temp\ccfBhFEg.s:31224  .debug_str:00000000000266fb .LASF587
C:\Users\SOLDER~1\AppData\Local\Temp\ccfBhFEg.s:26362  .debug_str:0000000000012c19 .LASF588
C:\Users\SOLDER~1\AppData\Local\Temp\ccfBhFEg.s:29288  .debug_str:000000000001e998 .LASF589
C:\Users\SOLDER~1\AppData\Local\Temp\ccfBhFEg.s:30492  .debug_str:0000000000023704 .LASF590
C:\Users\SOLDER~1\AppData\Local\Temp\ccfBhFEg.s:27404  .debug_str:0000000000017061 .LASF591
C:\Users\SOLDER~1\AppData\Local\Temp\ccfBhFEg.s:31952  .debug_str:0000000000029641 .LASF592
C:\Users\SOLDER~1\AppData\Local\Temp\ccfBhFEg.s:29028  .debug_str:000000000001d93e .LASF593
C:\Users\SOLDER~1\AppData\Local\Temp\ccfBhFEg.s:27704  .debug_str:0000000000018444 .LASF594
C:\Users\SOLDER~1\AppData\Local\Temp\ccfBhFEg.s:33134  .debug_str:000000000002e340 .LASF595
C:\Users\SOLDER~1\AppData\Local\Temp\ccfBhFEg.s:24428  .debug_str:000000000000af94 .LASF596
C:\Users\SOLDER~1\AppData\Local\Temp\ccfBhFEg.s:32560  .debug_str:000000000002bdc8 .LASF597
C:\Users\SOLDER~1\AppData\Local\Temp\ccfBhFEg.s:26402  .debug_str:0000000000012ece .LASF598
C:\Users\SOLDER~1\AppData\Local\Temp\ccfBhFEg.s:31966  .debug_str:000000000002973c .LASF599
C:\Users\SOLDER~1\AppData\Local\Temp\ccfBhFEg.s:25844  .debug_str:0000000000010b7e .LASF600
GAS LISTING C:\Users\SOLDER~1\AppData\Local\Temp\ccfBhFEg.s 			page 84


C:\Users\SOLDER~1\AppData\Local\Temp\ccfBhFEg.s:31272  .debug_str:0000000000026a41 .LASF601
C:\Users\SOLDER~1\AppData\Local\Temp\ccfBhFEg.s:31380  .debug_str:000000000002715f .LASF602
C:\Users\SOLDER~1\AppData\Local\Temp\ccfBhFEg.s:25204  .debug_str:000000000000e1d9 .LASF603
C:\Users\SOLDER~1\AppData\Local\Temp\ccfBhFEg.s:24992  .debug_str:000000000000d463 .LASF604
C:\Users\SOLDER~1\AppData\Local\Temp\ccfBhFEg.s:29106  .debug_str:000000000001ddfc .LASF605
C:\Users\SOLDER~1\AppData\Local\Temp\ccfBhFEg.s:31048  .debug_str:0000000000025b29 .LASF606
C:\Users\SOLDER~1\AppData\Local\Temp\ccfBhFEg.s:27488  .debug_str:00000000000175ce .LASF607
C:\Users\SOLDER~1\AppData\Local\Temp\ccfBhFEg.s:30240  .debug_str:0000000000022702 .LASF608
C:\Users\SOLDER~1\AppData\Local\Temp\ccfBhFEg.s:32648  .debug_str:000000000002c38c .LASF609
C:\Users\SOLDER~1\AppData\Local\Temp\ccfBhFEg.s:24044  .debug_str:00000000000096b2 .LASF610
C:\Users\SOLDER~1\AppData\Local\Temp\ccfBhFEg.s:26144  .debug_str:0000000000011e89 .LASF611
C:\Users\SOLDER~1\AppData\Local\Temp\ccfBhFEg.s:26416  .debug_str:0000000000012ff0 .LASF612
C:\Users\SOLDER~1\AppData\Local\Temp\ccfBhFEg.s:29100  .debug_str:000000000001dda7 .LASF613
C:\Users\SOLDER~1\AppData\Local\Temp\ccfBhFEg.s:23476  .debug_str:00000000000071bf .LASF614
C:\Users\SOLDER~1\AppData\Local\Temp\ccfBhFEg.s:22208  .debug_str:000000000000202d .LASF615
C:\Users\SOLDER~1\AppData\Local\Temp\ccfBhFEg.s:27562  .debug_str:0000000000017b03 .LASF616
C:\Users\SOLDER~1\AppData\Local\Temp\ccfBhFEg.s:23076  .debug_str:00000000000056e0 .LASF617
C:\Users\SOLDER~1\AppData\Local\Temp\ccfBhFEg.s:30970  .debug_str:000000000002567a .LASF618
C:\Users\SOLDER~1\AppData\Local\Temp\ccfBhFEg.s:22498  .debug_str:00000000000032a3 .LASF619
C:\Users\SOLDER~1\AppData\Local\Temp\ccfBhFEg.s:29228  .debug_str:000000000001e5d2 .LASF620
C:\Users\SOLDER~1\AppData\Local\Temp\ccfBhFEg.s:22594  .debug_str:00000000000038d1 .LASF621
C:\Users\SOLDER~1\AppData\Local\Temp\ccfBhFEg.s:27096  .debug_str:0000000000015d52 .LASF622
C:\Users\SOLDER~1\AppData\Local\Temp\ccfBhFEg.s:28192  .debug_str:000000000001a378 .LASF623
C:\Users\SOLDER~1\AppData\Local\Temp\ccfBhFEg.s:26020  .debug_str:000000000001168c .LASF624
C:\Users\SOLDER~1\AppData\Local\Temp\ccfBhFEg.s:28778  .debug_str:000000000001c8b4 .LASF625
C:\Users\SOLDER~1\AppData\Local\Temp\ccfBhFEg.s:23442  .debug_str:0000000000006f49 .LASF626
C:\Users\SOLDER~1\AppData\Local\Temp\ccfBhFEg.s:23400  .debug_str:0000000000006c78 .LASF627
C:\Users\SOLDER~1\AppData\Local\Temp\ccfBhFEg.s:28432  .debug_str:000000000001b2d1 .LASF628
C:\Users\SOLDER~1\AppData\Local\Temp\ccfBhFEg.s:25208  .debug_str:000000000000e223 .LASF629
C:\Users\SOLDER~1\AppData\Local\Temp\ccfBhFEg.s:29732  .debug_str:00000000000206b3 .LASF630
C:\Users\SOLDER~1\AppData\Local\Temp\ccfBhFEg.s:28696  .debug_str:000000000001c34b .LASF631
C:\Users\SOLDER~1\AppData\Local\Temp\ccfBhFEg.s:29720  .debug_str:00000000000205ee .LASF632
C:\Users\SOLDER~1\AppData\Local\Temp\ccfBhFEg.s:28158  .debug_str:000000000001a169 .LASF633
C:\Users\SOLDER~1\AppData\Local\Temp\ccfBhFEg.s:31788  .debug_str:0000000000028be9 .LASF634
C:\Users\SOLDER~1\AppData\Local\Temp\ccfBhFEg.s:26884  .debug_str:0000000000014fe9 .LASF635
C:\Users\SOLDER~1\AppData\Local\Temp\ccfBhFEg.s:28658  .debug_str:000000000001c0c0 .LASF636
C:\Users\SOLDER~1\AppData\Local\Temp\ccfBhFEg.s:30840  .debug_str:0000000000024dd4 .LASF637
C:\Users\SOLDER~1\AppData\Local\Temp\ccfBhFEg.s:22178  .debug_str:0000000000001e35 .LASF638
C:\Users\SOLDER~1\AppData\Local\Temp\ccfBhFEg.s:32656  .debug_str:000000000002c421 .LASF639
C:\Users\SOLDER~1\AppData\Local\Temp\ccfBhFEg.s:26468  .debug_str:0000000000013357 .LASF640
C:\Users\SOLDER~1\AppData\Local\Temp\ccfBhFEg.s:27510  .debug_str:0000000000017774 .LASF641
C:\Users\SOLDER~1\AppData\Local\Temp\ccfBhFEg.s:27416  .debug_str:000000000001710d .LASF642
C:\Users\SOLDER~1\AppData\Local\Temp\ccfBhFEg.s:28796  .debug_str:000000000001c9e1 .LASF643
C:\Users\SOLDER~1\AppData\Local\Temp\ccfBhFEg.s:23302  .debug_str:00000000000065ed .LASF644
C:\Users\SOLDER~1\AppData\Local\Temp\ccfBhFEg.s:30788  .debug_str:0000000000024a4b .LASF645
C:\Users\SOLDER~1\AppData\Local\Temp\ccfBhFEg.s:27470  .debug_str:000000000001748d .LASF646
C:\Users\SOLDER~1\AppData\Local\Temp\ccfBhFEg.s:25342  .debug_str:000000000000eb15 .LASF647
C:\Users\SOLDER~1\AppData\Local\Temp\ccfBhFEg.s:26878  .debug_str:0000000000014f6f .LASF648
C:\Users\SOLDER~1\AppData\Local\Temp\ccfBhFEg.s:25426  .debug_str:000000000000f068 .LASF649
C:\Users\SOLDER~1\AppData\Local\Temp\ccfBhFEg.s:32136  .debug_str:000000000002a234 .LASF650
C:\Users\SOLDER~1\AppData\Local\Temp\ccfBhFEg.s:28330  .debug_str:000000000001ac12 .LASF651
C:\Users\SOLDER~1\AppData\Local\Temp\ccfBhFEg.s:26298  .debug_str:000000000001280b .LASF652
C:\Users\SOLDER~1\AppData\Local\Temp\ccfBhFEg.s:27934  .debug_str:0000000000019325 .LASF653
C:\Users\SOLDER~1\AppData\Local\Temp\ccfBhFEg.s:27212  .debug_str:0000000000016499 .LASF654
C:\Users\SOLDER~1\AppData\Local\Temp\ccfBhFEg.s:33154  .debug_str:000000000002e4a4 .LASF655
C:\Users\SOLDER~1\AppData\Local\Temp\ccfBhFEg.s:27980  .debug_str:0000000000019640 .LASF656
C:\Users\SOLDER~1\AppData\Local\Temp\ccfBhFEg.s:32418  .debug_str:000000000002b48f .LASF657
GAS LISTING C:\Users\SOLDER~1\AppData\Local\Temp\ccfBhFEg.s 			page 85


C:\Users\SOLDER~1\AppData\Local\Temp\ccfBhFEg.s:29586  .debug_str:000000000001fd8c .LASF658
C:\Users\SOLDER~1\AppData\Local\Temp\ccfBhFEg.s:31680  .debug_str:00000000000284cc .LASF659
C:\Users\SOLDER~1\AppData\Local\Temp\ccfBhFEg.s:30588  .debug_str:0000000000023d76 .LASF660
C:\Users\SOLDER~1\AppData\Local\Temp\ccfBhFEg.s:32810  .debug_str:000000000002ce5a .LASF661
C:\Users\SOLDER~1\AppData\Local\Temp\ccfBhFEg.s:25218  .debug_str:000000000000e2d1 .LASF662
C:\Users\SOLDER~1\AppData\Local\Temp\ccfBhFEg.s:24510  .debug_str:000000000000b4c5 .LASF663
C:\Users\SOLDER~1\AppData\Local\Temp\ccfBhFEg.s:32084  .debug_str:0000000000029edc .LASF664
C:\Users\SOLDER~1\AppData\Local\Temp\ccfBhFEg.s:29250  .debug_str:000000000001e74b .LASF665
C:\Users\SOLDER~1\AppData\Local\Temp\ccfBhFEg.s:29526  .debug_str:000000000001f97c .LASF666
C:\Users\SOLDER~1\AppData\Local\Temp\ccfBhFEg.s:29542  .debug_str:000000000001faa2 .LASF667
C:\Users\SOLDER~1\AppData\Local\Temp\ccfBhFEg.s:23362  .debug_str:0000000000006a2d .LASF668
C:\Users\SOLDER~1\AppData\Local\Temp\ccfBhFEg.s:30624  .debug_str:0000000000023fb4 .LASF669
C:\Users\SOLDER~1\AppData\Local\Temp\ccfBhFEg.s:31652  .debug_str:0000000000028301 .LASF670
C:\Users\SOLDER~1\AppData\Local\Temp\ccfBhFEg.s:33122  .debug_str:000000000002e290 .LASF671
C:\Users\SOLDER~1\AppData\Local\Temp\ccfBhFEg.s:32410  .debug_str:000000000002b415 .LASF672
C:\Users\SOLDER~1\AppData\Local\Temp\ccfBhFEg.s:28630  .debug_str:000000000001bedf .LASF673
C:\Users\SOLDER~1\AppData\Local\Temp\ccfBhFEg.s:27176  .debug_str:000000000001623d .LASF674
C:\Users\SOLDER~1\AppData\Local\Temp\ccfBhFEg.s:22630  .debug_str:0000000000003b18 .LASF675
C:\Users\SOLDER~1\AppData\Local\Temp\ccfBhFEg.s:25876  .debug_str:0000000000010db6 .LASF676
C:\Users\SOLDER~1\AppData\Local\Temp\ccfBhFEg.s:28334  .debug_str:000000000001ac5b .LASF677
C:\Users\SOLDER~1\AppData\Local\Temp\ccfBhFEg.s:31454  .debug_str:000000000002760f .LASF678
C:\Users\SOLDER~1\AppData\Local\Temp\ccfBhFEg.s:32736  .debug_str:000000000002c9a0 .LASF679
C:\Users\SOLDER~1\AppData\Local\Temp\ccfBhFEg.s:27638  .debug_str:0000000000017ff0 .LASF680
C:\Users\SOLDER~1\AppData\Local\Temp\ccfBhFEg.s:29172  .debug_str:000000000001e214 .LASF681
C:\Users\SOLDER~1\AppData\Local\Temp\ccfBhFEg.s:26418  .debug_str:0000000000013008 .LASF682
C:\Users\SOLDER~1\AppData\Local\Temp\ccfBhFEg.s:27350  .debug_str:0000000000016d1e .LASF683
C:\Users\SOLDER~1\AppData\Local\Temp\ccfBhFEg.s:23852  .debug_str:00000000000089e7 .LASF684
C:\Users\SOLDER~1\AppData\Local\Temp\ccfBhFEg.s:28948  .debug_str:000000000001d3ce .LASF685
C:\Users\SOLDER~1\AppData\Local\Temp\ccfBhFEg.s:29486  .debug_str:000000000001f6c6 .LASF686
C:\Users\SOLDER~1\AppData\Local\Temp\ccfBhFEg.s:22142  .debug_str:0000000000001bb8 .LASF687
C:\Users\SOLDER~1\AppData\Local\Temp\ccfBhFEg.s:29262  .debug_str:000000000001e7fd .LASF688
C:\Users\SOLDER~1\AppData\Local\Temp\ccfBhFEg.s:32622  .debug_str:000000000002c1db .LASF689
C:\Users\SOLDER~1\AppData\Local\Temp\ccfBhFEg.s:21756  .debug_str:00000000000001f3 .LASF690
C:\Users\SOLDER~1\AppData\Local\Temp\ccfBhFEg.s:29754  .debug_str:000000000002080e .LASF691
C:\Users\SOLDER~1\AppData\Local\Temp\ccfBhFEg.s:29704  .debug_str:00000000000204e4 .LASF692
C:\Users\SOLDER~1\AppData\Local\Temp\ccfBhFEg.s:23946  .debug_str:000000000000904a .LASF693
C:\Users\SOLDER~1\AppData\Local\Temp\ccfBhFEg.s:29452  .debug_str:000000000001f47c .LASF694
C:\Users\SOLDER~1\AppData\Local\Temp\ccfBhFEg.s:23930  .debug_str:0000000000008f38 .LASF695
C:\Users\SOLDER~1\AppData\Local\Temp\ccfBhFEg.s:28958  .debug_str:000000000001d47c .LASF696
C:\Users\SOLDER~1\AppData\Local\Temp\ccfBhFEg.s:31642  .debug_str:000000000002823e .LASF697
C:\Users\SOLDER~1\AppData\Local\Temp\ccfBhFEg.s:32432  .debug_str:000000000002b558 .LASF698
C:\Users\SOLDER~1\AppData\Local\Temp\ccfBhFEg.s:25360  .debug_str:000000000000ec6c .LASF699
C:\Users\SOLDER~1\AppData\Local\Temp\ccfBhFEg.s:33124  .debug_str:000000000002e2a6 .LASF700
C:\Users\SOLDER~1\AppData\Local\Temp\ccfBhFEg.s:28190  .debug_str:000000000001a365 .LASF701
C:\Users\SOLDER~1\AppData\Local\Temp\ccfBhFEg.s:22564  .debug_str:00000000000036d3 .LASF702
C:\Users\SOLDER~1\AppData\Local\Temp\ccfBhFEg.s:30698  .debug_str:000000000002446f .LASF703
C:\Users\SOLDER~1\AppData\Local\Temp\ccfBhFEg.s:28662  .debug_str:000000000001c0eb .LASF704
C:\Users\SOLDER~1\AppData\Local\Temp\ccfBhFEg.s:31398  .debug_str:0000000000027279 .LASF705
C:\Users\SOLDER~1\AppData\Local\Temp\ccfBhFEg.s:27388  .debug_str:0000000000016f88 .LASF706
C:\Users\SOLDER~1\AppData\Local\Temp\ccfBhFEg.s:24662  .debug_str:000000000000be7b .LASF707
C:\Users\SOLDER~1\AppData\Local\Temp\ccfBhFEg.s:30286  .debug_str:0000000000022984 .LASF708
C:\Users\SOLDER~1\AppData\Local\Temp\ccfBhFEg.s:29748  .debug_str:00000000000207a5 .LASF709
C:\Users\SOLDER~1\AppData\Local\Temp\ccfBhFEg.s:22580  .debug_str:00000000000037cf .LASF710
C:\Users\SOLDER~1\AppData\Local\Temp\ccfBhFEg.s:31176  .debug_str:00000000000263b8 .LASF711
C:\Users\SOLDER~1\AppData\Local\Temp\ccfBhFEg.s:30484  .debug_str:0000000000023670 .LASF712
C:\Users\SOLDER~1\AppData\Local\Temp\ccfBhFEg.s:23712  .debug_str:00000000000080c8 .LASF713
C:\Users\SOLDER~1\AppData\Local\Temp\ccfBhFEg.s:31532  .debug_str:0000000000027b3e .LASF714
GAS LISTING C:\Users\SOLDER~1\AppData\Local\Temp\ccfBhFEg.s 			page 86


C:\Users\SOLDER~1\AppData\Local\Temp\ccfBhFEg.s:29468  .debug_str:000000000001f58c .LASF715
C:\Users\SOLDER~1\AppData\Local\Temp\ccfBhFEg.s:30638  .debug_str:0000000000024069 .LASF716
C:\Users\SOLDER~1\AppData\Local\Temp\ccfBhFEg.s:25902  .debug_str:0000000000010f3f .LASF717
C:\Users\SOLDER~1\AppData\Local\Temp\ccfBhFEg.s:33164  .debug_str:000000000002e551 .LASF718
C:\Users\SOLDER~1\AppData\Local\Temp\ccfBhFEg.s:28366  .debug_str:000000000001ae7a .LASF719
C:\Users\SOLDER~1\AppData\Local\Temp\ccfBhFEg.s:26332  .debug_str:0000000000012a6d .LASF720
C:\Users\SOLDER~1\AppData\Local\Temp\ccfBhFEg.s:30022  .debug_str:0000000000021986 .LASF721
C:\Users\SOLDER~1\AppData\Local\Temp\ccfBhFEg.s:28160  .debug_str:000000000001a18b .LASF722
C:\Users\SOLDER~1\AppData\Local\Temp\ccfBhFEg.s:30066  .debug_str:0000000000021c4b .LASF723
C:\Users\SOLDER~1\AppData\Local\Temp\ccfBhFEg.s:27278  .debug_str:00000000000168b1 .LASF724
C:\Users\SOLDER~1\AppData\Local\Temp\ccfBhFEg.s:26506  .debug_str:00000000000135db .LASF725
C:\Users\SOLDER~1\AppData\Local\Temp\ccfBhFEg.s:32304  .debug_str:000000000002ad70 .LASF726
C:\Users\SOLDER~1\AppData\Local\Temp\ccfBhFEg.s:26688  .debug_str:0000000000014285 .LASF727
C:\Users\SOLDER~1\AppData\Local\Temp\ccfBhFEg.s:21892  .debug_str:0000000000000ba1 .LASF728
C:\Users\SOLDER~1\AppData\Local\Temp\ccfBhFEg.s:25114  .debug_str:000000000000dc55 .LASF729
C:\Users\SOLDER~1\AppData\Local\Temp\ccfBhFEg.s:28012  .debug_str:000000000001983d .LASF730
C:\Users\SOLDER~1\AppData\Local\Temp\ccfBhFEg.s:28612  .debug_str:000000000001bdde .LASF731
C:\Users\SOLDER~1\AppData\Local\Temp\ccfBhFEg.s:23530  .debug_str:000000000000750c .LASF732
C:\Users\SOLDER~1\AppData\Local\Temp\ccfBhFEg.s:24154  .debug_str:0000000000009d7b .LASF733
C:\Users\SOLDER~1\AppData\Local\Temp\ccfBhFEg.s:30268  .debug_str:000000000002287d .LASF734
C:\Users\SOLDER~1\AppData\Local\Temp\ccfBhFEg.s:30202  .debug_str:00000000000224af .LASF735
C:\Users\SOLDER~1\AppData\Local\Temp\ccfBhFEg.s:27836  .debug_str:0000000000018cb1 .LASF736
C:\Users\SOLDER~1\AppData\Local\Temp\ccfBhFEg.s:24656  .debug_str:000000000000be06 .LASF737
C:\Users\SOLDER~1\AppData\Local\Temp\ccfBhFEg.s:33294  .debug_str:000000000002ed16 .LASF738
C:\Users\SOLDER~1\AppData\Local\Temp\ccfBhFEg.s:24898  .debug_str:000000000000ce31 .LASF739
C:\Users\SOLDER~1\AppData\Local\Temp\ccfBhFEg.s:22246  .debug_str:0000000000002287 .LASF740
C:\Users\SOLDER~1\AppData\Local\Temp\ccfBhFEg.s:27000  .debug_str:0000000000015763 .LASF741
C:\Users\SOLDER~1\AppData\Local\Temp\ccfBhFEg.s:24644  .debug_str:000000000000bd2a .LASF742
C:\Users\SOLDER~1\AppData\Local\Temp\ccfBhFEg.s:31566  .debug_str:0000000000027d70 .LASF743
C:\Users\SOLDER~1\AppData\Local\Temp\ccfBhFEg.s:28178  .debug_str:000000000001a2bc .LASF744
C:\Users\SOLDER~1\AppData\Local\Temp\ccfBhFEg.s:26274  .debug_str:00000000000126a1 .LASF745
C:\Users\SOLDER~1\AppData\Local\Temp\ccfBhFEg.s:29620  .debug_str:000000000001ffbc .LASF746
C:\Users\SOLDER~1\AppData\Local\Temp\ccfBhFEg.s:30196  .debug_str:0000000000022449 .LASF747
C:\Users\SOLDER~1\AppData\Local\Temp\ccfBhFEg.s:31144  .debug_str:0000000000026178 .LASF748
C:\Users\SOLDER~1\AppData\Local\Temp\ccfBhFEg.s:30576  .debug_str:0000000000023ca4 .LASF749
C:\Users\SOLDER~1\AppData\Local\Temp\ccfBhFEg.s:23426  .debug_str:0000000000006e10 .LASF750
C:\Users\SOLDER~1\AppData\Local\Temp\ccfBhFEg.s:22922  .debug_str:0000000000004da7 .LASF751
C:\Users\SOLDER~1\AppData\Local\Temp\ccfBhFEg.s:24332  .debug_str:000000000000a97f .LASF752
C:\Users\SOLDER~1\AppData\Local\Temp\ccfBhFEg.s:24556  .debug_str:000000000000b7da .LASF753
C:\Users\SOLDER~1\AppData\Local\Temp\ccfBhFEg.s:32396  .debug_str:000000000002b335 .LASF754
C:\Users\SOLDER~1\AppData\Local\Temp\ccfBhFEg.s:30280  .debug_str:0000000000022954 .LASF755
C:\Users\SOLDER~1\AppData\Local\Temp\ccfBhFEg.s:22396  .debug_str:0000000000002be6 .LASF756
C:\Users\SOLDER~1\AppData\Local\Temp\ccfBhFEg.s:31596  .debug_str:0000000000027f5b .LASF757
C:\Users\SOLDER~1\AppData\Local\Temp\ccfBhFEg.s:22278  .debug_str:00000000000024ae .LASF758
C:\Users\SOLDER~1\AppData\Local\Temp\ccfBhFEg.s:29198  .debug_str:000000000001e3f2 .LASF759
C:\Users\SOLDER~1\AppData\Local\Temp\ccfBhFEg.s:27214  .debug_str:00000000000164be .LASF760
C:\Users\SOLDER~1\AppData\Local\Temp\ccfBhFEg.s:21792  .debug_str:000000000000042a .LASF761
C:\Users\SOLDER~1\AppData\Local\Temp\ccfBhFEg.s:21980  .debug_str:0000000000001154 .LASF762
C:\Users\SOLDER~1\AppData\Local\Temp\ccfBhFEg.s:30676  .debug_str:00000000000242f9 .LASF763
C:\Users\SOLDER~1\AppData\Local\Temp\ccfBhFEg.s:30988  .debug_str:000000000002578b .LASF764
C:\Users\SOLDER~1\AppData\Local\Temp\ccfBhFEg.s:23188  .debug_str:0000000000005e3b .LASF765
C:\Users\SOLDER~1\AppData\Local\Temp\ccfBhFEg.s:24014  .debug_str:00000000000094ad .LASF766
C:\Users\SOLDER~1\AppData\Local\Temp\ccfBhFEg.s:32140  .debug_str:000000000002a275 .LASF767
C:\Users\SOLDER~1\AppData\Local\Temp\ccfBhFEg.s:21920  .debug_str:0000000000000da1 .LASF768
C:\Users\SOLDER~1\AppData\Local\Temp\ccfBhFEg.s:26788  .debug_str:0000000000014965 .LASF769
C:\Users\SOLDER~1\AppData\Local\Temp\ccfBhFEg.s:28818  .debug_str:000000000001cb29 .LASF770
C:\Users\SOLDER~1\AppData\Local\Temp\ccfBhFEg.s:23482  .debug_str:0000000000007216 .LASF771
GAS LISTING C:\Users\SOLDER~1\AppData\Local\Temp\ccfBhFEg.s 			page 87


C:\Users\SOLDER~1\AppData\Local\Temp\ccfBhFEg.s:23162  .debug_str:0000000000005c93 .LASF772
C:\Users\SOLDER~1\AppData\Local\Temp\ccfBhFEg.s:24768  .debug_str:000000000000c53a .LASF773
C:\Users\SOLDER~1\AppData\Local\Temp\ccfBhFEg.s:22296  .debug_str:00000000000025ba .LASF774
C:\Users\SOLDER~1\AppData\Local\Temp\ccfBhFEg.s:22962  .debug_str:0000000000004fe4 .LASF775
C:\Users\SOLDER~1\AppData\Local\Temp\ccfBhFEg.s:22944  .debug_str:0000000000004ef5 .LASF776
C:\Users\SOLDER~1\AppData\Local\Temp\ccfBhFEg.s:23210  .debug_str:0000000000005f9c .LASF777
C:\Users\SOLDER~1\AppData\Local\Temp\ccfBhFEg.s:32294  .debug_str:000000000002acd0 .LASF778
C:\Users\SOLDER~1\AppData\Local\Temp\ccfBhFEg.s:29052  .debug_str:000000000001dace .LASF779
C:\Users\SOLDER~1\AppData\Local\Temp\ccfBhFEg.s:28170  .debug_str:000000000001a236 .LASF780
C:\Users\SOLDER~1\AppData\Local\Temp\ccfBhFEg.s:30032  .debug_str:0000000000021a19 .LASF781
C:\Users\SOLDER~1\AppData\Local\Temp\ccfBhFEg.s:23806  .debug_str:00000000000086f6 .LASF782
C:\Users\SOLDER~1\AppData\Local\Temp\ccfBhFEg.s:33442  .debug_str:000000000002f694 .LASF783
C:\Users\SOLDER~1\AppData\Local\Temp\ccfBhFEg.s:22138  .debug_str:0000000000001b74 .LASF784
C:\Users\SOLDER~1\AppData\Local\Temp\ccfBhFEg.s:25076  .debug_str:000000000000d9cc .LASF785
C:\Users\SOLDER~1\AppData\Local\Temp\ccfBhFEg.s:23478  .debug_str:00000000000071d7 .LASF786
C:\Users\SOLDER~1\AppData\Local\Temp\ccfBhFEg.s:28470  .debug_str:000000000001b53c .LASF787
C:\Users\SOLDER~1\AppData\Local\Temp\ccfBhFEg.s:30480  .debug_str:000000000002362f .LASF788
C:\Users\SOLDER~1\AppData\Local\Temp\ccfBhFEg.s:27640  .debug_str:0000000000018014 .LASF789
C:\Users\SOLDER~1\AppData\Local\Temp\ccfBhFEg.s:33096  .debug_str:000000000002e0dd .LASF790
C:\Users\SOLDER~1\AppData\Local\Temp\ccfBhFEg.s:27986  .debug_str:00000000000196ac .LASF791
C:\Users\SOLDER~1\AppData\Local\Temp\ccfBhFEg.s:30236  .debug_str:00000000000226c6 .LASF792
C:\Users\SOLDER~1\AppData\Local\Temp\ccfBhFEg.s:26082  .debug_str:0000000000011a81 .LASF793
C:\Users\SOLDER~1\AppData\Local\Temp\ccfBhFEg.s:31218  .debug_str:000000000002668d .LASF794
C:\Users\SOLDER~1\AppData\Local\Temp\ccfBhFEg.s:31656  .debug_str:000000000002834b .LASF795
C:\Users\SOLDER~1\AppData\Local\Temp\ccfBhFEg.s:24742  .debug_str:000000000000c376 .LASF796
C:\Users\SOLDER~1\AppData\Local\Temp\ccfBhFEg.s:31688  .debug_str:0000000000028555 .LASF797
C:\Users\SOLDER~1\AppData\Local\Temp\ccfBhFEg.s:26988  .debug_str:00000000000156a2 .LASF798
C:\Users\SOLDER~1\AppData\Local\Temp\ccfBhFEg.s:26950  .debug_str:00000000000153f2 .LASF799
C:\Users\SOLDER~1\AppData\Local\Temp\ccfBhFEg.s:26394  .debug_str:0000000000012e4e .LASF800
C:\Users\SOLDER~1\AppData\Local\Temp\ccfBhFEg.s:24802  .debug_str:000000000000c7ad .LASF801
C:\Users\SOLDER~1\AppData\Local\Temp\ccfBhFEg.s:29520  .debug_str:000000000001f917 .LASF802
C:\Users\SOLDER~1\AppData\Local\Temp\ccfBhFEg.s:33392  .debug_str:000000000002f377 .LASF803
C:\Users\SOLDER~1\AppData\Local\Temp\ccfBhFEg.s:33130  .debug_str:000000000002e2fc .LASF804
C:\Users\SOLDER~1\AppData\Local\Temp\ccfBhFEg.s:31332  .debug_str:0000000000026e19 .LASF805
C:\Users\SOLDER~1\AppData\Local\Temp\ccfBhFEg.s:22348  .debug_str:000000000000293e .LASF806
C:\Users\SOLDER~1\AppData\Local\Temp\ccfBhFEg.s:31392  .debug_str:0000000000027239 .LASF807
C:\Users\SOLDER~1\AppData\Local\Temp\ccfBhFEg.s:31618  .debug_str:000000000002808d .LASF808
C:\Users\SOLDER~1\AppData\Local\Temp\ccfBhFEg.s:23358  .debug_str:00000000000069eb .LASF809
C:\Users\SOLDER~1\AppData\Local\Temp\ccfBhFEg.s:28232  .debug_str:000000000001a5eb .LASF810
C:\Users\SOLDER~1\AppData\Local\Temp\ccfBhFEg.s:27266  .debug_str:0000000000016807 .LASF811
C:\Users\SOLDER~1\AppData\Local\Temp\ccfBhFEg.s:23326  .debug_str:0000000000006788 .LASF812
C:\Users\SOLDER~1\AppData\Local\Temp\ccfBhFEg.s:32980  .debug_str:000000000002d972 .LASF813
C:\Users\SOLDER~1\AppData\Local\Temp\ccfBhFEg.s:32000  .debug_str:0000000000029998 .LASF814
C:\Users\SOLDER~1\AppData\Local\Temp\ccfBhFEg.s:30192  .debug_str:0000000000022410 .LASF815
C:\Users\SOLDER~1\AppData\Local\Temp\ccfBhFEg.s:32652  .debug_str:000000000002c3da .LASF816
C:\Users\SOLDER~1\AppData\Local\Temp\ccfBhFEg.s:31516  .debug_str:0000000000027a3d .LASF817
C:\Users\SOLDER~1\AppData\Local\Temp\ccfBhFEg.s:29532  .debug_str:000000000001f9eb .LASF818
C:\Users\SOLDER~1\AppData\Local\Temp\ccfBhFEg.s:31262  .debug_str:0000000000026993 .LASF819
C:\Users\SOLDER~1\AppData\Local\Temp\ccfBhFEg.s:28296  .debug_str:000000000001aa22 .LASF820
C:\Users\SOLDER~1\AppData\Local\Temp\ccfBhFEg.s:24944  .debug_str:000000000000d143 .LASF821
C:\Users\SOLDER~1\AppData\Local\Temp\ccfBhFEg.s:30346  .debug_str:0000000000022d8e .LASF822
C:\Users\SOLDER~1\AppData\Local\Temp\ccfBhFEg.s:24094  .debug_str:00000000000099c4 .LASF823
C:\Users\SOLDER~1\AppData\Local\Temp\ccfBhFEg.s:29134  .debug_str:000000000001df98 .LASF824
C:\Users\SOLDER~1\AppData\Local\Temp\ccfBhFEg.s:25414  .debug_str:000000000000ef89 .LASF825
C:\Users\SOLDER~1\AppData\Local\Temp\ccfBhFEg.s:28896  .debug_str:000000000001d06d .LASF826
C:\Users\SOLDER~1\AppData\Local\Temp\ccfBhFEg.s:31564  .debug_str:0000000000027d5f .LASF827
C:\Users\SOLDER~1\AppData\Local\Temp\ccfBhFEg.s:27710  .debug_str:00000000000184c5 .LASF828
GAS LISTING C:\Users\SOLDER~1\AppData\Local\Temp\ccfBhFEg.s 			page 88


C:\Users\SOLDER~1\AppData\Local\Temp\ccfBhFEg.s:24976  .debug_str:000000000000d33d .LASF829
C:\Users\SOLDER~1\AppData\Local\Temp\ccfBhFEg.s:31074  .debug_str:0000000000025cd0 .LASF830
C:\Users\SOLDER~1\AppData\Local\Temp\ccfBhFEg.s:25598  .debug_str:000000000000fb49 .LASF831
C:\Users\SOLDER~1\AppData\Local\Temp\ccfBhFEg.s:31992  .debug_str:00000000000298fa .LASF832
C:\Users\SOLDER~1\AppData\Local\Temp\ccfBhFEg.s:24010  .debug_str:0000000000009467 .LASF833
C:\Users\SOLDER~1\AppData\Local\Temp\ccfBhFEg.s:31888  .debug_str:000000000002925c .LASF834
C:\Users\SOLDER~1\AppData\Local\Temp\ccfBhFEg.s:32858  .debug_str:000000000002d13e .LASF835
C:\Users\SOLDER~1\AppData\Local\Temp\ccfBhFEg.s:22698  .debug_str:0000000000003f7d .LASF836
C:\Users\SOLDER~1\AppData\Local\Temp\ccfBhFEg.s:29852  .debug_str:0000000000020e58 .LASF837
C:\Users\SOLDER~1\AppData\Local\Temp\ccfBhFEg.s:26430  .debug_str:00000000000130e2 .LASF838
C:\Users\SOLDER~1\AppData\Local\Temp\ccfBhFEg.s:24646  .debug_str:000000000000bd4a .LASF839
C:\Users\SOLDER~1\AppData\Local\Temp\ccfBhFEg.s:23062  .debug_str:00000000000055fb .LASF840
C:\Users\SOLDER~1\AppData\Local\Temp\ccfBhFEg.s:26026  .debug_str:00000000000116f6 .LASF841
C:\Users\SOLDER~1\AppData\Local\Temp\ccfBhFEg.s:26006  .debug_str:00000000000115b4 .LASF842
C:\Users\SOLDER~1\AppData\Local\Temp\ccfBhFEg.s:28670  .debug_str:000000000001c16e .LASF843
C:\Users\SOLDER~1\AppData\Local\Temp\ccfBhFEg.s:33220  .debug_str:000000000002e890 .LASF844
C:\Users\SOLDER~1\AppData\Local\Temp\ccfBhFEg.s:32244  .debug_str:000000000002a99d .LASF845
C:\Users\SOLDER~1\AppData\Local\Temp\ccfBhFEg.s:28300  .debug_str:000000000001aa52 .LASF846
C:\Users\SOLDER~1\AppData\Local\Temp\ccfBhFEg.s:26192  .debug_str:000000000001218d .LASF847
C:\Users\SOLDER~1\AppData\Local\Temp\ccfBhFEg.s:22102  .debug_str:00000000000018fb .LASF848
C:\Users\SOLDER~1\AppData\Local\Temp\ccfBhFEg.s:29316  .debug_str:000000000001eb91 .LASF849
C:\Users\SOLDER~1\AppData\Local\Temp\ccfBhFEg.s:32328  .debug_str:000000000002aec0 .LASF850
C:\Users\SOLDER~1\AppData\Local\Temp\ccfBhFEg.s:23036  .debug_str:000000000000546c .LASF851
C:\Users\SOLDER~1\AppData\Local\Temp\ccfBhFEg.s:25510  .debug_str:000000000000f583 .LASF852
C:\Users\SOLDER~1\AppData\Local\Temp\ccfBhFEg.s:27210  .debug_str:0000000000016477 .LASF853
C:\Users\SOLDER~1\AppData\Local\Temp\ccfBhFEg.s:24316  .debug_str:000000000000a862 .LASF854
C:\Users\SOLDER~1\AppData\Local\Temp\ccfBhFEg.s:25394  .debug_str:000000000000ee60 .LASF855
C:\Users\SOLDER~1\AppData\Local\Temp\ccfBhFEg.s:29422  .debug_str:000000000001f289 .LASF856
C:\Users\SOLDER~1\AppData\Local\Temp\ccfBhFEg.s:25428  .debug_str:000000000000f07e .LASF857
C:\Users\SOLDER~1\AppData\Local\Temp\ccfBhFEg.s:30322  .debug_str:0000000000022c15 .LASF858
C:\Users\SOLDER~1\AppData\Local\Temp\ccfBhFEg.s:22664  .debug_str:0000000000003d49 .LASF859
C:\Users\SOLDER~1\AppData\Local\Temp\ccfBhFEg.s:24706  .debug_str:000000000000c129 .LASF860
C:\Users\SOLDER~1\AppData\Local\Temp\ccfBhFEg.s:22378  .debug_str:0000000000002af6 .LASF861
C:\Users\SOLDER~1\AppData\Local\Temp\ccfBhFEg.s:26004  .debug_str:00000000000115a1 .LASF862
C:\Users\SOLDER~1\AppData\Local\Temp\ccfBhFEg.s:28376  .debug_str:000000000001af02 .LASF863
C:\Users\SOLDER~1\AppData\Local\Temp\ccfBhFEg.s:26486  .debug_str:0000000000013458 .LASF864
C:\Users\SOLDER~1\AppData\Local\Temp\ccfBhFEg.s:30238  .debug_str:00000000000226e0 .LASF865
C:\Users\SOLDER~1\AppData\Local\Temp\ccfBhFEg.s:25802  .debug_str:00000000000108f1 .LASF866
C:\Users\SOLDER~1\AppData\Local\Temp\ccfBhFEg.s:22544  .debug_str:00000000000035a4 .LASF867
C:\Users\SOLDER~1\AppData\Local\Temp\ccfBhFEg.s:33260  .debug_str:000000000002eb02 .LASF868
C:\Users\SOLDER~1\AppData\Local\Temp\ccfBhFEg.s:22972  .debug_str:0000000000005099 .LASF869
C:\Users\SOLDER~1\AppData\Local\Temp\ccfBhFEg.s:26684  .debug_str:0000000000014239 .LASF870
C:\Users\SOLDER~1\AppData\Local\Temp\ccfBhFEg.s:32764  .debug_str:000000000002cb5b .LASF871
C:\Users\SOLDER~1\AppData\Local\Temp\ccfBhFEg.s:27188  .debug_str:000000000001630a .LASF872
C:\Users\SOLDER~1\AppData\Local\Temp\ccfBhFEg.s:33386  .debug_str:000000000002f320 .LASF873
C:\Users\SOLDER~1\AppData\Local\Temp\ccfBhFEg.s:28742  .debug_str:000000000001c640 .LASF874
C:\Users\SOLDER~1\AppData\Local\Temp\ccfBhFEg.s:27992  .debug_str:00000000000196f0 .LASF875
C:\Users\SOLDER~1\AppData\Local\Temp\ccfBhFEg.s:23286  .debug_str:00000000000064e2 .LASF876
C:\Users\SOLDER~1\AppData\Local\Temp\ccfBhFEg.s:31942  .debug_str:00000000000295a7 .LASF877
C:\Users\SOLDER~1\AppData\Local\Temp\ccfBhFEg.s:30482  .debug_str:000000000002364f .LASF878
C:\Users\SOLDER~1\AppData\Local\Temp\ccfBhFEg.s:25962  .debug_str:00000000000112fd .LASF879
C:\Users\SOLDER~1\AppData\Local\Temp\ccfBhFEg.s:22424  .debug_str:0000000000002dc5 .LASF880
C:\Users\SOLDER~1\AppData\Local\Temp\ccfBhFEg.s:32440  .debug_str:000000000002b5e5 .LASF881
C:\Users\SOLDER~1\AppData\Local\Temp\ccfBhFEg.s:23430  .debug_str:0000000000006e76 .LASF882
C:\Users\SOLDER~1\AppData\Local\Temp\ccfBhFEg.s:23006  .debug_str:00000000000052a9 .LASF883
C:\Users\SOLDER~1\AppData\Local\Temp\ccfBhFEg.s:22644  .debug_str:0000000000003c16 .LASF884
C:\Users\SOLDER~1\AppData\Local\Temp\ccfBhFEg.s:24716  .debug_str:000000000000c1cf .LASF885
GAS LISTING C:\Users\SOLDER~1\AppData\Local\Temp\ccfBhFEg.s 			page 89


C:\Users\SOLDER~1\AppData\Local\Temp\ccfBhFEg.s:29192  .debug_str:000000000001e384 .LASF886
C:\Users\SOLDER~1\AppData\Local\Temp\ccfBhFEg.s:28268  .debug_str:000000000001a82e .LASF887
C:\Users\SOLDER~1\AppData\Local\Temp\ccfBhFEg.s:24326  .debug_str:000000000000a91b .LASF888
C:\Users\SOLDER~1\AppData\Local\Temp\ccfBhFEg.s:25900  .debug_str:0000000000010f1e .LASF889
C:\Users\SOLDER~1\AppData\Local\Temp\ccfBhFEg.s:32098  .debug_str:0000000000029fb8 .LASF890
C:\Users\SOLDER~1\AppData\Local\Temp\ccfBhFEg.s:21802  .debug_str:00000000000004c8 .LASF891
C:\Users\SOLDER~1\AppData\Local\Temp\ccfBhFEg.s:32620  .debug_str:000000000002c1ba .LASF892
C:\Users\SOLDER~1\AppData\Local\Temp\ccfBhFEg.s:32534  .debug_str:000000000002bc0d .LASF893
C:\Users\SOLDER~1\AppData\Local\Temp\ccfBhFEg.s:30496  .debug_str:0000000000023749 .LASF894
C:\Users\SOLDER~1\AppData\Local\Temp\ccfBhFEg.s:32114  .debug_str:000000000002a0c7 .LASF895
C:\Users\SOLDER~1\AppData\Local\Temp\ccfBhFEg.s:29352  .debug_str:000000000001edf4 .LASF896
C:\Users\SOLDER~1\AppData\Local\Temp\ccfBhFEg.s:31690  .debug_str:0000000000028577 .LASF897
C:\Users\SOLDER~1\AppData\Local\Temp\ccfBhFEg.s:23352  .debug_str:000000000000698c .LASF898
C:\Users\SOLDER~1\AppData\Local\Temp\ccfBhFEg.s:21820  .debug_str:0000000000000605 .LASF899
C:\Users\SOLDER~1\AppData\Local\Temp\ccfBhFEg.s:23282  .debug_str:000000000000649c .LASF900
C:\Users\SOLDER~1\AppData\Local\Temp\ccfBhFEg.s:27740  .debug_str:00000000000186d8 .LASF901
C:\Users\SOLDER~1\AppData\Local\Temp\ccfBhFEg.s:29642  .debug_str:0000000000020122 .LASF902
C:\Users\SOLDER~1\AppData\Local\Temp\ccfBhFEg.s:23508  .debug_str:00000000000073aa .LASF903
C:\Users\SOLDER~1\AppData\Local\Temp\ccfBhFEg.s:22552  .debug_str:0000000000003617 .LASF904
C:\Users\SOLDER~1\AppData\Local\Temp\ccfBhFEg.s:24670  .debug_str:000000000000bef7 .LASF905
C:\Users\SOLDER~1\AppData\Local\Temp\ccfBhFEg.s:22786  .debug_str:00000000000044fe .LASF906
C:\Users\SOLDER~1\AppData\Local\Temp\ccfBhFEg.s:23564  .debug_str:0000000000007720 .LASF907
C:\Users\SOLDER~1\AppData\Local\Temp\ccfBhFEg.s:30678  .debug_str:000000000002431b .LASF908
C:\Users\SOLDER~1\AppData\Local\Temp\ccfBhFEg.s:27516  .debug_str:00000000000177d6 .LASF909
C:\Users\SOLDER~1\AppData\Local\Temp\ccfBhFEg.s:26568  .debug_str:0000000000013a0f .LASF910
C:\Users\SOLDER~1\AppData\Local\Temp\ccfBhFEg.s:29224  .debug_str:000000000001e59a .LASF911
C:\Users\SOLDER~1\AppData\Local\Temp\ccfBhFEg.s:23048  .debug_str:0000000000005521 .LASF912
C:\Users\SOLDER~1\AppData\Local\Temp\ccfBhFEg.s:32296  .debug_str:000000000002acf2 .LASF913
C:\Users\SOLDER~1\AppData\Local\Temp\ccfBhFEg.s:22338  .debug_str:0000000000002867 .LASF914
C:\Users\SOLDER~1\AppData\Local\Temp\ccfBhFEg.s:32910  .debug_str:000000000002d496 .LASF915
C:\Users\SOLDER~1\AppData\Local\Temp\ccfBhFEg.s:27656  .debug_str:0000000000018107 .LASF916
C:\Users\SOLDER~1\AppData\Local\Temp\ccfBhFEg.s:22852  .debug_str:0000000000004945 .LASF917
C:\Users\SOLDER~1\AppData\Local\Temp\ccfBhFEg.s:29558  .debug_str:000000000001fbea .LASF918
C:\Users\SOLDER~1\AppData\Local\Temp\ccfBhFEg.s:28386  .debug_str:000000000001af8b .LASF919
C:\Users\SOLDER~1\AppData\Local\Temp\ccfBhFEg.s:30106  .debug_str:0000000000021eb0 .LASF920
C:\Users\SOLDER~1\AppData\Local\Temp\ccfBhFEg.s:25574  .debug_str:000000000000f9bc .LASF921
C:\Users\SOLDER~1\AppData\Local\Temp\ccfBhFEg.s:22126  .debug_str:0000000000001aa1 .LASF922
C:\Users\SOLDER~1\AppData\Local\Temp\ccfBhFEg.s:31968  .debug_str:0000000000029776 .LASF923
C:\Users\SOLDER~1\AppData\Local\Temp\ccfBhFEg.s:32282  .debug_str:000000000002abff .LASF924
C:\Users\SOLDER~1\AppData\Local\Temp\ccfBhFEg.s:22926  .debug_str:0000000000004de0 .LASF925
C:\Users\SOLDER~1\AppData\Local\Temp\ccfBhFEg.s:23350  .debug_str:000000000000696c .LASF926
C:\Users\SOLDER~1\AppData\Local\Temp\ccfBhFEg.s:24234  .debug_str:000000000000a2c9 .LASF927
C:\Users\SOLDER~1\AppData\Local\Temp\ccfBhFEg.s:28822  .debug_str:000000000001cb85 .LASF928
C:\Users\SOLDER~1\AppData\Local\Temp\ccfBhFEg.s:27910  .debug_str:000000000001918e .LASF929
C:\Users\SOLDER~1\AppData\Local\Temp\ccfBhFEg.s:29338  .debug_str:000000000001ed1a .LASF930
C:\Users\SOLDER~1\AppData\Local\Temp\ccfBhFEg.s:22064  .debug_str:000000000000169c .LASF931
C:\Users\SOLDER~1\AppData\Local\Temp\ccfBhFEg.s:23424  .debug_str:0000000000006dfd .LASF932
C:\Users\SOLDER~1\AppData\Local\Temp\ccfBhFEg.s:21976  .debug_str:00000000000010f6 .LASF933
C:\Users\SOLDER~1\AppData\Local\Temp\ccfBhFEg.s:25252  .debug_str:000000000000e55e .LASF934
C:\Users\SOLDER~1\AppData\Local\Temp\ccfBhFEg.s:32162  .debug_str:000000000002a415 .LASF935
C:\Users\SOLDER~1\AppData\Local\Temp\ccfBhFEg.s:30122  .debug_str:0000000000021fb2 .LASF936
C:\Users\SOLDER~1\AppData\Local\Temp\ccfBhFEg.s:31724  .debug_str:00000000000287d9 .LASF937
C:\Users\SOLDER~1\AppData\Local\Temp\ccfBhFEg.s:28978  .debug_str:000000000001d596 .LASF938
C:\Users\SOLDER~1\AppData\Local\Temp\ccfBhFEg.s:32002  .debug_str:00000000000299ab .LASF939
C:\Users\SOLDER~1\AppData\Local\Temp\ccfBhFEg.s:24050  .debug_str:000000000000971a .LASF940
C:\Users\SOLDER~1\AppData\Local\Temp\ccfBhFEg.s:32146  .debug_str:000000000002a2f2 .LASF941
C:\Users\SOLDER~1\AppData\Local\Temp\ccfBhFEg.s:25454  .debug_str:000000000000f220 .LASF942
GAS LISTING C:\Users\SOLDER~1\AppData\Local\Temp\ccfBhFEg.s 			page 90


C:\Users\SOLDER~1\AppData\Local\Temp\ccfBhFEg.s:31056  .debug_str:0000000000025ba7 .LASF943
C:\Users\SOLDER~1\AppData\Local\Temp\ccfBhFEg.s:22568  .debug_str:0000000000003718 .LASF944
C:\Users\SOLDER~1\AppData\Local\Temp\ccfBhFEg.s:25296  .debug_str:000000000000e84d .LASF945
C:\Users\SOLDER~1\AppData\Local\Temp\ccfBhFEg.s:32316  .debug_str:000000000002ae0d .LASF946
C:\Users\SOLDER~1\AppData\Local\Temp\ccfBhFEg.s:31128  .debug_str:0000000000026095 .LASF947
C:\Users\SOLDER~1\AppData\Local\Temp\ccfBhFEg.s:28568  .debug_str:000000000001bb3e .LASF948
C:\Users\SOLDER~1\AppData\Local\Temp\ccfBhFEg.s:24124  .debug_str:0000000000009bc8 .LASF949
C:\Users\SOLDER~1\AppData\Local\Temp\ccfBhFEg.s:25268  .debug_str:000000000000e679 .LASF950
C:\Users\SOLDER~1\AppData\Local\Temp\ccfBhFEg.s:25618  .debug_str:000000000000fcc2 .LASF951
C:\Users\SOLDER~1\AppData\Local\Temp\ccfBhFEg.s:32994  .debug_str:000000000002da69 .LASF952
C:\Users\SOLDER~1\AppData\Local\Temp\ccfBhFEg.s:25122  .debug_str:000000000000dcd5 .LASF953
C:\Users\SOLDER~1\AppData\Local\Temp\ccfBhFEg.s:27554  .debug_str:0000000000017a6a .LASF954
C:\Users\SOLDER~1\AppData\Local\Temp\ccfBhFEg.s:28094  .debug_str:0000000000019dbd .LASF955
C:\Users\SOLDER~1\AppData\Local\Temp\ccfBhFEg.s:27942  .debug_str:00000000000193bd .LASF956
C:\Users\SOLDER~1\AppData\Local\Temp\ccfBhFEg.s:27402  .debug_str:000000000001704b .LASF957
C:\Users\SOLDER~1\AppData\Local\Temp\ccfBhFEg.s:25480  .debug_str:000000000000f3af .LASF958
C:\Users\SOLDER~1\AppData\Local\Temp\ccfBhFEg.s:22890  .debug_str:0000000000004b83 .LASF959
C:\Users\SOLDER~1\AppData\Local\Temp\ccfBhFEg.s:23120  .debug_str:00000000000059de .LASF960
C:\Users\SOLDER~1\AppData\Local\Temp\ccfBhFEg.s:30060  .debug_str:0000000000021bfc .LASF961
C:\Users\SOLDER~1\AppData\Local\Temp\ccfBhFEg.s:32444  .debug_str:000000000002b62f .LASF962
C:\Users\SOLDER~1\AppData\Local\Temp\ccfBhFEg.s:25552  .debug_str:000000000000f84a .LASF963
C:\Users\SOLDER~1\AppData\Local\Temp\ccfBhFEg.s:30006  .debug_str:0000000000021897 .LASF964
C:\Users\SOLDER~1\AppData\Local\Temp\ccfBhFEg.s:32728  .debug_str:000000000002c93d .LASF965
C:\Users\SOLDER~1\AppData\Local\Temp\ccfBhFEg.s:27658  .debug_str:0000000000018129 .LASF966
C:\Users\SOLDER~1\AppData\Local\Temp\ccfBhFEg.s:27444  .debug_str:00000000000172c9 .LASF967
C:\Users\SOLDER~1\AppData\Local\Temp\ccfBhFEg.s:25190  .debug_str:000000000000e0f5 .LASF968
C:\Users\SOLDER~1\AppData\Local\Temp\ccfBhFEg.s:23726  .debug_str:00000000000081cd .LASF969
C:\Users\SOLDER~1\AppData\Local\Temp\ccfBhFEg.s:22742  .debug_str:000000000000424e .LASF970
C:\Users\SOLDER~1\AppData\Local\Temp\ccfBhFEg.s:30878  .debug_str:000000000002503f .LASF971
C:\Users\SOLDER~1\AppData\Local\Temp\ccfBhFEg.s:32070  .debug_str:0000000000029dff .LASF972
C:\Users\SOLDER~1\AppData\Local\Temp\ccfBhFEg.s:24966  .debug_str:000000000000d2a2 .LASF973
C:\Users\SOLDER~1\AppData\Local\Temp\ccfBhFEg.s:26048  .debug_str:0000000000011860 .LASF974
C:\Users\SOLDER~1\AppData\Local\Temp\ccfBhFEg.s:25584  .debug_str:000000000000fa54 .LASF975
C:\Users\SOLDER~1\AppData\Local\Temp\ccfBhFEg.s:26464  .debug_str:0000000000013318 .LASF976
C:\Users\SOLDER~1\AppData\Local\Temp\ccfBhFEg.s:32850  .debug_str:000000000002d0d5 .LASF977
C:\Users\SOLDER~1\AppData\Local\Temp\ccfBhFEg.s:32906  .debug_str:000000000002d454 .LASF978
C:\Users\SOLDER~1\AppData\Local\Temp\ccfBhFEg.s:28328  .debug_str:000000000001abfb .LASF979
C:\Users\SOLDER~1\AppData\Local\Temp\ccfBhFEg.s:30460  .debug_str:00000000000234f6 .LASF980
C:\Users\SOLDER~1\AppData\Local\Temp\ccfBhFEg.s:23756  .debug_str:00000000000083d2 .LASF981
C:\Users\SOLDER~1\AppData\Local\Temp\ccfBhFEg.s:28102  .debug_str:0000000000019e0e .LASF982
C:\Users\SOLDER~1\AppData\Local\Temp\ccfBhFEg.s:30904  .debug_str:0000000000025228 .LASF983
C:\Users\SOLDER~1\AppData\Local\Temp\ccfBhFEg.s:25764  .debug_str:0000000000010668 .LASF984
C:\Users\SOLDER~1\AppData\Local\Temp\ccfBhFEg.s:26390  .debug_str:0000000000012e13 .LASF985
C:\Users\SOLDER~1\AppData\Local\Temp\ccfBhFEg.s:23296  .debug_str:0000000000006585 .LASF986
C:\Users\SOLDER~1\AppData\Local\Temp\ccfBhFEg.s:26924  .debug_str:0000000000015276 .LASF987
C:\Users\SOLDER~1\AppData\Local\Temp\ccfBhFEg.s:32628  .debug_str:000000000002c243 .LASF988
C:\Users\SOLDER~1\AppData\Local\Temp\ccfBhFEg.s:29112  .debug_str:000000000001de46 .LASF989
C:\Users\SOLDER~1\AppData\Local\Temp\ccfBhFEg.s:23176  .debug_str:0000000000005d89 .LASF990
C:\Users\SOLDER~1\AppData\Local\Temp\ccfBhFEg.s:24560  .debug_str:000000000000b821 .LASF991
C:\Users\SOLDER~1\AppData\Local\Temp\ccfBhFEg.s:27830  .debug_str:0000000000018c4e .LASF992
C:\Users\SOLDER~1\AppData\Local\Temp\ccfBhFEg.s:31734  .debug_str:0000000000028879 .LASF993
C:\Users\SOLDER~1\AppData\Local\Temp\ccfBhFEg.s:28920  .debug_str:000000000001d1f3 .LASF994
C:\Users\SOLDER~1\AppData\Local\Temp\ccfBhFEg.s:27228  .debug_str:00000000000165b0 .LASF995
C:\Users\SOLDER~1\AppData\Local\Temp\ccfBhFEg.s:25850  .debug_str:0000000000010bef .LASF996
C:\Users\SOLDER~1\AppData\Local\Temp\ccfBhFEg.s:22654  .debug_str:0000000000003cb2 .LASF997
C:\Users\SOLDER~1\AppData\Local\Temp\ccfBhFEg.s:24060  .debug_str:000000000000978e .LASF998
C:\Users\SOLDER~1\AppData\Local\Temp\ccfBhFEg.s:29912  .debug_str:0000000000021239 .LASF999
GAS LISTING C:\Users\SOLDER~1\AppData\Local\Temp\ccfBhFEg.s 			page 91


C:\Users\SOLDER~1\AppData\Local\Temp\ccfBhFEg.s:33382  .debug_str:000000000002f2d8 .LASF1000
C:\Users\SOLDER~1\AppData\Local\Temp\ccfBhFEg.s:25386  .debug_str:000000000000ee0b .LASF1001
C:\Users\SOLDER~1\AppData\Local\Temp\ccfBhFEg.s:30932  .debug_str:00000000000253ee .LASF1002
C:\Users\SOLDER~1\AppData\Local\Temp\ccfBhFEg.s:32574  .debug_str:000000000002bec5 .LASF1003
C:\Users\SOLDER~1\AppData\Local\Temp\ccfBhFEg.s:28646  .debug_str:000000000001bffb .LASF1004
C:\Users\SOLDER~1\AppData\Local\Temp\ccfBhFEg.s:28058  .debug_str:0000000000019b70 .LASF1005
C:\Users\SOLDER~1\AppData\Local\Temp\ccfBhFEg.s:26214  .debug_str:00000000000122f4 .LASF1006
C:\Users\SOLDER~1\AppData\Local\Temp\ccfBhFEg.s:23460  .debug_str:00000000000070a2 .LASF1007
C:\Users\SOLDER~1\AppData\Local\Temp\ccfBhFEg.s:23780  .debug_str:000000000000855b .LASF1008
C:\Users\SOLDER~1\AppData\Local\Temp\ccfBhFEg.s:30722  .debug_str:00000000000245ef .LASF1009
C:\Users\SOLDER~1\AppData\Local\Temp\ccfBhFEg.s:33090  .debug_str:000000000002e08a .LASF1010
C:\Users\SOLDER~1\AppData\Local\Temp\ccfBhFEg.s:26206  .debug_str:0000000000012270 .LASF1011
C:\Users\SOLDER~1\AppData\Local\Temp\ccfBhFEg.s:31308  .debug_str:0000000000026c7e .LASF1012
C:\Users\SOLDER~1\AppData\Local\Temp\ccfBhFEg.s:33376  .debug_str:000000000002f27f .LASF1013
C:\Users\SOLDER~1\AppData\Local\Temp\ccfBhFEg.s:31796  .debug_str:0000000000028c5d .LASF1014
C:\Users\SOLDER~1\AppData\Local\Temp\ccfBhFEg.s:28834  .debug_str:000000000001cc69 .LASF1015
C:\Users\SOLDER~1\AppData\Local\Temp\ccfBhFEg.s:29384  .debug_str:000000000001f023 .LASF1016
C:\Users\SOLDER~1\AppData\Local\Temp\ccfBhFEg.s:24258  .debug_str:000000000000a457 .LASF1017
C:\Users\SOLDER~1\AppData\Local\Temp\ccfBhFEg.s:26972  .debug_str:000000000001557b .LASF1018
C:\Users\SOLDER~1\AppData\Local\Temp\ccfBhFEg.s:31446  .debug_str:00000000000275a9 .LASF1019
C:\Users\SOLDER~1\AppData\Local\Temp\ccfBhFEg.s:24532  .debug_str:000000000000b62c .LASF1020
C:\Users\SOLDER~1\AppData\Local\Temp\ccfBhFEg.s:26180  .debug_str:00000000000120e8 .LASF1021
C:\Users\SOLDER~1\AppData\Local\Temp\ccfBhFEg.s:28294  .debug_str:000000000001aa01 .LASF1022
C:\Users\SOLDER~1\AppData\Local\Temp\ccfBhFEg.s:22460  .debug_str:0000000000003041 .LASF1023
C:\Users\SOLDER~1\AppData\Local\Temp\ccfBhFEg.s:31494  .debug_str:00000000000278bd .LASF1024
C:\Users\SOLDER~1\AppData\Local\Temp\ccfBhFEg.s:30446  .debug_str:000000000002343b .LASF1025
C:\Users\SOLDER~1\AppData\Local\Temp\ccfBhFEg.s:29090  .debug_str:000000000001dcf3 .LASF1026
C:\Users\SOLDER~1\AppData\Local\Temp\ccfBhFEg.s:25102  .debug_str:000000000000dba4 .LASF1027
C:\Users\SOLDER~1\AppData\Local\Temp\ccfBhFEg.s:26692  .debug_str:00000000000142cb .LASF1028
C:\Users\SOLDER~1\AppData\Local\Temp\ccfBhFEg.s:32276  .debug_str:000000000002ab86 .LASF1029
C:\Users\SOLDER~1\AppData\Local\Temp\ccfBhFEg.s:24230  .debug_str:000000000000a285 .LASF1030
C:\Users\SOLDER~1\AppData\Local\Temp\ccfBhFEg.s:23822  .debug_str:00000000000087f4 .LASF1031
C:\Users\SOLDER~1\AppData\Local\Temp\ccfBhFEg.s:21848  .debug_str:000000000000085f .LASF1032
C:\Users\SOLDER~1\AppData\Local\Temp\ccfBhFEg.s:23164  .debug_str:0000000000005cb3 .LASF1033
C:\Users\SOLDER~1\AppData\Local\Temp\ccfBhFEg.s:22952  .debug_str:0000000000004f61 .LASF1034
C:\Users\SOLDER~1\AppData\Local\Temp\ccfBhFEg.s:30326  .debug_str:0000000000022c4f .LASF1035
C:\Users\SOLDER~1\AppData\Local\Temp\ccfBhFEg.s:32260  .debug_str:000000000002aa9c .LASF1036
C:\Users\SOLDER~1\AppData\Local\Temp\ccfBhFEg.s:25938  .debug_str:0000000000011195 .LASF1037
C:\Users\SOLDER~1\AppData\Local\Temp\ccfBhFEg.s:29832  .debug_str:0000000000020d1c .LASF1038
C:\Users\SOLDER~1\AppData\Local\Temp\ccfBhFEg.s:30846  .debug_str:0000000000024e3b .LASF1039
C:\Users\SOLDER~1\AppData\Local\Temp\ccfBhFEg.s:24118  .debug_str:0000000000009b70 .LASF1040
C:\Users\SOLDER~1\AppData\Local\Temp\ccfBhFEg.s:22876  .debug_str:0000000000004ab6 .LASF1041
C:\Users\SOLDER~1\AppData\Local\Temp\ccfBhFEg.s:25788  .debug_str:000000000001081f .LASF1042
C:\Users\SOLDER~1\AppData\Local\Temp\ccfBhFEg.s:31920  .debug_str:000000000002946a .LASF1043
C:\Users\SOLDER~1\AppData\Local\Temp\ccfBhFEg.s:29630  .debug_str:0000000000020053 .LASF1044
C:\Users\SOLDER~1\AppData\Local\Temp\ccfBhFEg.s:27142  .debug_str:0000000000016026 .LASF1045
C:\Users\SOLDER~1\AppData\Local\Temp\ccfBhFEg.s:22662  .debug_str:0000000000003d2d .LASF1046
C:\Users\SOLDER~1\AppData\Local\Temp\ccfBhFEg.s:31342  .debug_str:0000000000026ec5 .LASF1047
C:\Users\SOLDER~1\AppData\Local\Temp\ccfBhFEg.s:23254  .debug_str:00000000000062c7 .LASF1048
C:\Users\SOLDER~1\AppData\Local\Temp\ccfBhFEg.s:27520  .debug_str:000000000001781c .LASF1049
C:\Users\SOLDER~1\AppData\Local\Temp\ccfBhFEg.s:26190  .debug_str:0000000000012174 .LASF1050
C:\Users\SOLDER~1\AppData\Local\Temp\ccfBhFEg.s:28912  .debug_str:000000000001d180 .LASF1051
C:\Users\SOLDER~1\AppData\Local\Temp\ccfBhFEg.s:31330  .debug_str:0000000000026dfe .LASF1052
C:\Users\SOLDER~1\AppData\Local\Temp\ccfBhFEg.s:25372  .debug_str:000000000000ed39 .LASF1053
C:\Users\SOLDER~1\AppData\Local\Temp\ccfBhFEg.s:28730  .debug_str:000000000001c57b .LASF1054
C:\Users\SOLDER~1\AppData\Local\Temp\ccfBhFEg.s:22958  .debug_str:0000000000004fb8 .LASF1055
C:\Users\SOLDER~1\AppData\Local\Temp\ccfBhFEg.s:30016  .debug_str:0000000000021931 .LASF1056
GAS LISTING C:\Users\SOLDER~1\AppData\Local\Temp\ccfBhFEg.s 			page 92


C:\Users\SOLDER~1\AppData\Local\Temp\ccfBhFEg.s:30102  .debug_str:0000000000021e68 .LASF1057
C:\Users\SOLDER~1\AppData\Local\Temp\ccfBhFEg.s:29072  .debug_str:000000000001dbe0 .LASF1058
C:\Users\SOLDER~1\AppData\Local\Temp\ccfBhFEg.s:32122  .debug_str:000000000002a14c .LASF1059
C:\Users\SOLDER~1\AppData\Local\Temp\ccfBhFEg.s:30024  .debug_str:000000000002199a .LASF1060
C:\Users\SOLDER~1\AppData\Local\Temp\ccfBhFEg.s:29790  .debug_str:0000000000020a77 .LASF1061
C:\Users\SOLDER~1\AppData\Local\Temp\ccfBhFEg.s:33030  .debug_str:000000000002dca0 .LASF1062
C:\Users\SOLDER~1\AppData\Local\Temp\ccfBhFEg.s:23318  .debug_str:000000000000671b .LASF1063
C:\Users\SOLDER~1\AppData\Local\Temp\ccfBhFEg.s:25692  .debug_str:00000000000101ec .LASF1064
C:\Users\SOLDER~1\AppData\Local\Temp\ccfBhFEg.s:30438  .debug_str:00000000000233b8 .LASF1065
C:\Users\SOLDER~1\AppData\Local\Temp\ccfBhFEg.s:30462  .debug_str:0000000000023517 .LASF1066
C:\Users\SOLDER~1\AppData\Local\Temp\ccfBhFEg.s:25104  .debug_str:000000000000dbbb .LASF1067
C:\Users\SOLDER~1\AppData\Local\Temp\ccfBhFEg.s:24210  .debug_str:000000000000a150 .LASF1068
C:\Users\SOLDER~1\AppData\Local\Temp\ccfBhFEg.s:25932  .debug_str:000000000001112a .LASF1069
C:\Users\SOLDER~1\AppData\Local\Temp\ccfBhFEg.s:30310  .debug_str:0000000000022b38 .LASF1070
C:\Users\SOLDER~1\AppData\Local\Temp\ccfBhFEg.s:28986  .debug_str:000000000001d62e .LASF1071
C:\Users\SOLDER~1\AppData\Local\Temp\ccfBhFEg.s:25912  .debug_str:0000000000010fdc .LASF1072
C:\Users\SOLDER~1\AppData\Local\Temp\ccfBhFEg.s:30566  .debug_str:0000000000023bea .LASF1073
C:\Users\SOLDER~1\AppData\Local\Temp\ccfBhFEg.s:21866  .debug_str:00000000000009cc .LASF1074
C:\Users\SOLDER~1\AppData\Local\Temp\ccfBhFEg.s:28246  .debug_str:000000000001a6e2 .LASF1075
C:\Users\SOLDER~1\AppData\Local\Temp\ccfBhFEg.s:26712  .debug_str:0000000000014408 .LASF1076
C:\Users\SOLDER~1\AppData\Local\Temp\ccfBhFEg.s:24902  .debug_str:000000000000ce6a .LASF1077
C:\Users\SOLDER~1\AppData\Local\Temp\ccfBhFEg.s:22324  .debug_str:0000000000002785 .LASF1078
C:\Users\SOLDER~1\AppData\Local\Temp\ccfBhFEg.s:31030  .debug_str:0000000000025a19 .LASF1079
C:\Users\SOLDER~1\AppData\Local\Temp\ccfBhFEg.s:23936  .debug_str:0000000000008fa8 .LASF1080
C:\Users\SOLDER~1\AppData\Local\Temp\ccfBhFEg.s:26364  .debug_str:0000000000012c3a .LASF1081
C:\Users\SOLDER~1\AppData\Local\Temp\ccfBhFEg.s:29868  .debug_str:0000000000020f5e .LASF1082
C:\Users\SOLDER~1\AppData\Local\Temp\ccfBhFEg.s:29318  .debug_str:000000000001ebb1 .LASF1083
C:\Users\SOLDER~1\AppData\Local\Temp\ccfBhFEg.s:27220  .debug_str:0000000000016525 .LASF1084
C:\Users\SOLDER~1\AppData\Local\Temp\ccfBhFEg.s:23168  .debug_str:0000000000005cef .LASF1085
C:\Users\SOLDER~1\AppData\Local\Temp\ccfBhFEg.s:30422  .debug_str:00000000000232ab .LASF1086
C:\Users\SOLDER~1\AppData\Local\Temp\ccfBhFEg.s:32202  .debug_str:000000000002a6ac .LASF1087
C:\Users\SOLDER~1\AppData\Local\Temp\ccfBhFEg.s:30010  .debug_str:00000000000218cd .LASF1088
C:\Users\SOLDER~1\AppData\Local\Temp\ccfBhFEg.s:23138  .debug_str:0000000000005b1b .LASF1089
C:\Users\SOLDER~1\AppData\Local\Temp\ccfBhFEg.s:31352  .debug_str:0000000000026f5e .LASF1090
C:\Users\SOLDER~1\AppData\Local\Temp\ccfBhFEg.s:29160  .debug_str:000000000001e13c .LASF1091
C:\Users\SOLDER~1\AppData\Local\Temp\ccfBhFEg.s:23500  .debug_str:0000000000007334 .LASF1092
C:\Users\SOLDER~1\AppData\Local\Temp\ccfBhFEg.s:27674  .debug_str:0000000000018233 .LASF1093
C:\Users\SOLDER~1\AppData\Local\Temp\ccfBhFEg.s:25072  .debug_str:000000000000d98d .LASF1094
C:\Users\SOLDER~1\AppData\Local\Temp\ccfBhFEg.s:22080  .debug_str:00000000000017ba .LASF1095
C:\Users\SOLDER~1\AppData\Local\Temp\ccfBhFEg.s:23226  .debug_str:00000000000060bd .LASF1096
C:\Users\SOLDER~1\AppData\Local\Temp\ccfBhFEg.s:30444  .debug_str:0000000000023414 .LASF1097
C:\Users\SOLDER~1\AppData\Local\Temp\ccfBhFEg.s:29736  .debug_str:00000000000206eb .LASF1098
C:\Users\SOLDER~1\AppData\Local\Temp\ccfBhFEg.s:23462  .debug_str:00000000000070b9 .LASF1099
C:\Users\SOLDER~1\AppData\Local\Temp\ccfBhFEg.s:26982  .debug_str:000000000001563f .LASF1100
C:\Users\SOLDER~1\AppData\Local\Temp\ccfBhFEg.s:30702  .debug_str:00000000000244a8 .LASF1101
C:\Users\SOLDER~1\AppData\Local\Temp\ccfBhFEg.s:32404  .debug_str:000000000002b3b5 .LASF1102
C:\Users\SOLDER~1\AppData\Local\Temp\ccfBhFEg.s:21932  .debug_str:0000000000000e61 .LASF1103
C:\Users\SOLDER~1\AppData\Local\Temp\ccfBhFEg.s:22048  .debug_str:00000000000015aa .LASF1104
C:\Users\SOLDER~1\AppData\Local\Temp\ccfBhFEg.s:29664  .debug_str:000000000002026c .LASF1105
C:\Users\SOLDER~1\AppData\Local\Temp\ccfBhFEg.s:23112  .debug_str:000000000000595f .LASF1106
C:\Users\SOLDER~1\AppData\Local\Temp\ccfBhFEg.s:24690  .debug_str:000000000000c029 .LASF1107
C:\Users\SOLDER~1\AppData\Local\Temp\ccfBhFEg.s:22120  .debug_str:0000000000001a3e .LASF1108
C:\Users\SOLDER~1\AppData\Local\Temp\ccfBhFEg.s:29750  .debug_str:00000000000207c8 .LASF1109
C:\Users\SOLDER~1\AppData\Local\Temp\ccfBhFEg.s:23200  .debug_str:0000000000005ef8 .LASF1110
C:\Users\SOLDER~1\AppData\Local\Temp\ccfBhFEg.s:23722  .debug_str:0000000000008183 .LASF1111
C:\Users\SOLDER~1\AppData\Local\Temp\ccfBhFEg.s:24638  .debug_str:000000000000bcbf .LASF1112
C:\Users\SOLDER~1\AppData\Local\Temp\ccfBhFEg.s:24660  .debug_str:000000000000be53 .LASF1113
GAS LISTING C:\Users\SOLDER~1\AppData\Local\Temp\ccfBhFEg.s 			page 93


C:\Users\SOLDER~1\AppData\Local\Temp\ccfBhFEg.s:31700  .debug_str:0000000000028619 .LASF1114
C:\Users\SOLDER~1\AppData\Local\Temp\ccfBhFEg.s:23864  .debug_str:0000000000008a9b .LASF1115
C:\Users\SOLDER~1\AppData\Local\Temp\ccfBhFEg.s:31414  .debug_str:000000000002735b .LASF1116
C:\Users\SOLDER~1\AppData\Local\Temp\ccfBhFEg.s:32880  .debug_str:000000000002d298 .LASF1117
C:\Users\SOLDER~1\AppData\Local\Temp\ccfBhFEg.s:32366  .debug_str:000000000002b143 .LASF1118
C:\Users\SOLDER~1\AppData\Local\Temp\ccfBhFEg.s:26630  .debug_str:0000000000013e86 .LASF1119
C:\Users\SOLDER~1\AppData\Local\Temp\ccfBhFEg.s:22878  .debug_str:0000000000004ac7 .LASF1120
C:\Users\SOLDER~1\AppData\Local\Temp\ccfBhFEg.s:32914  .debug_str:000000000002d4d7 .LASF1121
C:\Users\SOLDER~1\AppData\Local\Temp\ccfBhFEg.s:23976  .debug_str:000000000000923a .LASF1122
C:\Users\SOLDER~1\AppData\Local\Temp\ccfBhFEg.s:32540  .debug_str:000000000002bc87 .LASF1123
C:\Users\SOLDER~1\AppData\Local\Temp\ccfBhFEg.s:26872  .debug_str:0000000000014f06 .LASF1124
C:\Users\SOLDER~1\AppData\Local\Temp\ccfBhFEg.s:24546  .debug_str:000000000000b739 .LASF1125
C:\Users\SOLDER~1\AppData\Local\Temp\ccfBhFEg.s:33064  .debug_str:000000000002def3 .LASF1126
C:\Users\SOLDER~1\AppData\Local\Temp\ccfBhFEg.s:31158  .debug_str:0000000000026279 .LASF1127
C:\Users\SOLDER~1\AppData\Local\Temp\ccfBhFEg.s:30204  .debug_str:00000000000224d1 .LASF1128
C:\Users\SOLDER~1\AppData\Local\Temp\ccfBhFEg.s:27862  .debug_str:0000000000018e5a .LASF1129
C:\Users\SOLDER~1\AppData\Local\Temp\ccfBhFEg.s:28474  .debug_str:000000000001b569 .LASF1130
C:\Users\SOLDER~1\AppData\Local\Temp\ccfBhFEg.s:23878  .debug_str:0000000000008bba .LASF1131
C:\Users\SOLDER~1\AppData\Local\Temp\ccfBhFEg.s:29504  .debug_str:000000000001f801 .LASF1132
C:\Users\SOLDER~1\AppData\Local\Temp\ccfBhFEg.s:24462  .debug_str:000000000000b1cc .LASF1133
C:\Users\SOLDER~1\AppData\Local\Temp\ccfBhFEg.s:27508  .debug_str:000000000001774f .LASF1134
C:\Users\SOLDER~1\AppData\Local\Temp\ccfBhFEg.s:26870  .debug_str:0000000000014ee1 .LASF1135
C:\Users\SOLDER~1\AppData\Local\Temp\ccfBhFEg.s:27518  .debug_str:00000000000177f7 .LASF1136
C:\Users\SOLDER~1\AppData\Local\Temp\ccfBhFEg.s:31602  .debug_str:0000000000027fae .LASF1137
C:\Users\SOLDER~1\AppData\Local\Temp\ccfBhFEg.s:29442  .debug_str:000000000001f3cd .LASF1138
C:\Users\SOLDER~1\AppData\Local\Temp\ccfBhFEg.s:30762  .debug_str:0000000000024899 .LASF1139
C:\Users\SOLDER~1\AppData\Local\Temp\ccfBhFEg.s:22266  .debug_str:00000000000023d6 .LASF1140
C:\Users\SOLDER~1\AppData\Local\Temp\ccfBhFEg.s:31204  .debug_str:00000000000265bc .LASF1141
C:\Users\SOLDER~1\AppData\Local\Temp\ccfBhFEg.s:30320  .debug_str:0000000000022bef .LASF1142
C:\Users\SOLDER~1\AppData\Local\Temp\ccfBhFEg.s:28840  .debug_str:000000000001ccc2 .LASF1143
C:\Users\SOLDER~1\AppData\Local\Temp\ccfBhFEg.s:32636  .debug_str:000000000002c2d0 .LASF1144
C:\Users\SOLDER~1\AppData\Local\Temp\ccfBhFEg.s:29336  .debug_str:000000000001ecf3 .LASF1145
C:\Users\SOLDER~1\AppData\Local\Temp\ccfBhFEg.s:29096  .debug_str:000000000001dd5f .LASF1146
C:\Users\SOLDER~1\AppData\Local\Temp\ccfBhFEg.s:27394  .debug_str:0000000000016fd2 .LASF1147
C:\Users\SOLDER~1\AppData\Local\Temp\ccfBhFEg.s:32752  .debug_str:000000000002ca99 .LASF1148
C:\Users\SOLDER~1\AppData\Local\Temp\ccfBhFEg.s:24740  .debug_str:000000000000c34d .LASF1149
C:\Users\SOLDER~1\AppData\Local\Temp\ccfBhFEg.s:27116  .debug_str:0000000000015ea2 .LASF1150
C:\Users\SOLDER~1\AppData\Local\Temp\ccfBhFEg.s:28892  .debug_str:000000000001d022 .LASF1151
C:\Users\SOLDER~1\AppData\Local\Temp\ccfBhFEg.s:25926  .debug_str:00000000000110c4 .LASF1152
C:\Users\SOLDER~1\AppData\Local\Temp\ccfBhFEg.s:31504  .debug_str:0000000000027966 .LASF1153
C:\Users\SOLDER~1\AppData\Local\Temp\ccfBhFEg.s:27766  .debug_str:000000000001885a .LASF1154
C:\Users\SOLDER~1\AppData\Local\Temp\ccfBhFEg.s:26868  .debug_str:0000000000014eb8 .LASF1155
C:\Users\SOLDER~1\AppData\Local\Temp\ccfBhFEg.s:26640  .debug_str:0000000000013f58 .LASF1156
C:\Users\SOLDER~1\AppData\Local\Temp\ccfBhFEg.s:29778  .debug_str:0000000000020998 .LASF1157
C:\Users\SOLDER~1\AppData\Local\Temp\ccfBhFEg.s:33174  .debug_str:000000000002e5ff .LASF1158
C:\Users\SOLDER~1\AppData\Local\Temp\ccfBhFEg.s:33182  .debug_str:000000000002e665 .LASF1159
C:\Users\SOLDER~1\AppData\Local\Temp\ccfBhFEg.s:31760  .debug_str:0000000000028a12 .LASF1160
C:\Users\SOLDER~1\AppData\Local\Temp\ccfBhFEg.s:28022  .debug_str:00000000000198e8 .LASF1161
C:\Users\SOLDER~1\AppData\Local\Temp\ccfBhFEg.s:27792  .debug_str:00000000000189f0 .LASF1162
C:\Users\SOLDER~1\AppData\Local\Temp\ccfBhFEg.s:31588  .debug_str:0000000000027ed8 .LASF1163
C:\Users\SOLDER~1\AppData\Local\Temp\ccfBhFEg.s:22556  .debug_str:000000000000364d .LASF1164
C:\Users\SOLDER~1\AppData\Local\Temp\ccfBhFEg.s:31524  .debug_str:0000000000027abe .LASF1165
C:\Users\SOLDER~1\AppData\Local\Temp\ccfBhFEg.s:33232  .debug_str:000000000002e941 .LASF1166
C:\Users\SOLDER~1\AppData\Local\Temp\ccfBhFEg.s:29570  .debug_str:000000000001fc86 .LASF1167
C:\Users\SOLDER~1\AppData\Local\Temp\ccfBhFEg.s:26508  .debug_str:00000000000135fe .LASF1168
C:\Users\SOLDER~1\AppData\Local\Temp\ccfBhFEg.s:32074  .debug_str:0000000000029e3c .LASF1169
C:\Users\SOLDER~1\AppData\Local\Temp\ccfBhFEg.s:23914  .debug_str:0000000000008e04 .LASF1170
GAS LISTING C:\Users\SOLDER~1\AppData\Local\Temp\ccfBhFEg.s 			page 94


C:\Users\SOLDER~1\AppData\Local\Temp\ccfBhFEg.s:30058  .debug_str:0000000000021bd3 .LASF1171
C:\Users\SOLDER~1\AppData\Local\Temp\ccfBhFEg.s:30930  .debug_str:00000000000253c7 .LASF1172
C:\Users\SOLDER~1\AppData\Local\Temp\ccfBhFEg.s:29390  .debug_str:000000000001f083 .LASF1173
C:\Users\SOLDER~1\AppData\Local\Temp\ccfBhFEg.s:27778  .debug_str:000000000001890c .LASF1174
C:\Users\SOLDER~1\AppData\Local\Temp\ccfBhFEg.s:25716  .debug_str:000000000001036b .LASF1175
C:\Users\SOLDER~1\AppData\Local\Temp\ccfBhFEg.s:29598  .debug_str:000000000001fe66 .LASF1176
C:\Users\SOLDER~1\AppData\Local\Temp\ccfBhFEg.s:26644  .debug_str:0000000000013fa4 .LASF1177
C:\Users\SOLDER~1\AppData\Local\Temp\ccfBhFEg.s:26384  .debug_str:0000000000012da2 .LASF1178
C:\Users\SOLDER~1\AppData\Local\Temp\ccfBhFEg.s:27458  .debug_str:00000000000173bf .LASF1179
C:\Users\SOLDER~1\AppData\Local\Temp\ccfBhFEg.s:25600  .debug_str:000000000000fb6a .LASF1180
C:\Users\SOLDER~1\AppData\Local\Temp\ccfBhFEg.s:27702  .debug_str:000000000001841b .LASF1181
C:\Users\SOLDER~1\AppData\Local\Temp\ccfBhFEg.s:31198  .debug_str:0000000000026553 .LASF1182
C:\Users\SOLDER~1\AppData\Local\Temp\ccfBhFEg.s:25780  .debug_str:0000000000010788 .LASF1183
C:\Users\SOLDER~1\AppData\Local\Temp\ccfBhFEg.s:24080  .debug_str:00000000000098e2 .LASF1184
C:\Users\SOLDER~1\AppData\Local\Temp\ccfBhFEg.s:28302  .debug_str:000000000001aa73 .LASF1185
C:\Users\SOLDER~1\AppData\Local\Temp\ccfBhFEg.s:31844  .debug_str:0000000000028f7e .LASF1186
C:\Users\SOLDER~1\AppData\Local\Temp\ccfBhFEg.s:26296  .debug_str:00000000000127e2 .LASF1187
C:\Users\SOLDER~1\AppData\Local\Temp\ccfBhFEg.s:24292  .debug_str:000000000000a69c .LASF1188
C:\Users\SOLDER~1\AppData\Local\Temp\ccfBhFEg.s:23616  .debug_str:0000000000007a54 .LASF1189
C:\Users\SOLDER~1\AppData\Local\Temp\ccfBhFEg.s:22196  .debug_str:0000000000001f4b .LASF1190
C:\Users\SOLDER~1\AppData\Local\Temp\ccfBhFEg.s:26028  .debug_str:0000000000011708 .LASF1191
C:\Users\SOLDER~1\AppData\Local\Temp\ccfBhFEg.s:22694  .debug_str:0000000000003f3f .LASF1192
C:\Users\SOLDER~1\AppData\Local\Temp\ccfBhFEg.s:33384  .debug_str:000000000002f2f9 .LASF1193
C:\Users\SOLDER~1\AppData\Local\Temp\ccfBhFEg.s:28336  .debug_str:000000000001ac7f .LASF1194
C:\Users\SOLDER~1\AppData\Local\Temp\ccfBhFEg.s:23450  .debug_str:0000000000006ff7 .LASF1195
C:\Users\SOLDER~1\AppData\Local\Temp\ccfBhFEg.s:29040  .debug_str:000000000001da00 .LASF1196
C:\Users\SOLDER~1\AppData\Local\Temp\ccfBhFEg.s:32626  .debug_str:000000000002c21a .LASF1197
C:\Users\SOLDER~1\AppData\Local\Temp\ccfBhFEg.s:27082  .debug_str:0000000000015c61 .LASF1198
C:\Users\SOLDER~1\AppData\Local\Temp\ccfBhFEg.s:24078  .debug_str:00000000000098b9 .LASF1199
C:\Users\SOLDER~1\AppData\Local\Temp\ccfBhFEg.s:29590  .debug_str:000000000001fdd3 .LASF1200
C:\Users\SOLDER~1\AppData\Local\Temp\ccfBhFEg.s:33166  .debug_str:000000000002e574 .LASF1201
C:\Users\SOLDER~1\AppData\Local\Temp\ccfBhFEg.s:27734  .debug_str:0000000000018666 .LASF1202
C:\Users\SOLDER~1\AppData\Local\Temp\ccfBhFEg.s:23020  .debug_str:0000000000005375 .LASF1203
C:\Users\SOLDER~1\AppData\Local\Temp\ccfBhFEg.s:22252  .debug_str:00000000000022e1 .LASF1204
C:\Users\SOLDER~1\AppData\Local\Temp\ccfBhFEg.s:26462  .debug_str:00000000000132f1 .LASF1205
C:\Users\SOLDER~1\AppData\Local\Temp\ccfBhFEg.s:30308  .debug_str:0000000000022b11 .LASF1206
C:\Users\SOLDER~1\AppData\Local\Temp\ccfBhFEg.s:33076  .debug_str:000000000002dfa9 .LASF1207
C:\Users\SOLDER~1\AppData\Local\Temp\ccfBhFEg.s:32020  .debug_str:0000000000029aed .LASF1208
C:\Users\SOLDER~1\AppData\Local\Temp\ccfBhFEg.s:32572  .debug_str:000000000002be9d .LASF1209
C:\Users\SOLDER~1\AppData\Local\Temp\ccfBhFEg.s:31374  .debug_str:00000000000270f9 .LASF1210
C:\Users\SOLDER~1\AppData\Local\Temp\ccfBhFEg.s:25254  .debug_str:000000000000e580 .LASF1211
C:\Users\SOLDER~1\AppData\Local\Temp\ccfBhFEg.s:28740  .debug_str:000000000001c617 .LASF1212
C:\Users\SOLDER~1\AppData\Local\Temp\ccfBhFEg.s:23248  .debug_str:0000000000006260 .LASF1213
C:\Users\SOLDER~1\AppData\Local\Temp\ccfBhFEg.s:32442  .debug_str:000000000002b606 .LASF1214
C:\Users\SOLDER~1\AppData\Local\Temp\ccfBhFEg.s:23106  .debug_str:00000000000058fa .LASF1215
C:\Users\SOLDER~1\AppData\Local\Temp\ccfBhFEg.s:29362  .debug_str:000000000001eea2 .LASF1216
C:\Users\SOLDER~1\AppData\Local\Temp\ccfBhFEg.s:23888  .debug_str:0000000000008c5b .LASF1217
C:\Users\SOLDER~1\AppData\Local\Temp\ccfBhFEg.s:22476  .debug_str:000000000000312e .LASF1218
C:\Users\SOLDER~1\AppData\Local\Temp\ccfBhFEg.s:30610  .debug_str:0000000000023ed0 .LASF1219
C:\Users\SOLDER~1\AppData\Local\Temp\ccfBhFEg.s:30314  .debug_str:0000000000022b71 .LASF1220
C:\Users\SOLDER~1\AppData\Local\Temp\ccfBhFEg.s:29768  .debug_str:00000000000208ed .LASF1221
C:\Users\SOLDER~1\AppData\Local\Temp\ccfBhFEg.s:26356  .debug_str:0000000000012bc6 .LASF1222
C:\Users\SOLDER~1\AppData\Local\Temp\ccfBhFEg.s:23104  .debug_str:00000000000058d7 .LASF1223
C:\Users\SOLDER~1\AppData\Local\Temp\ccfBhFEg.s:24578  .debug_str:000000000000b92b .LASF1224
C:\Users\SOLDER~1\AppData\Local\Temp\ccfBhFEg.s:28032  .debug_str:00000000000199a2 .LASF1225
C:\Users\SOLDER~1\AppData\Local\Temp\ccfBhFEg.s:25514  .debug_str:000000000000f5de .LASF1226
C:\Users\SOLDER~1\AppData\Local\Temp\ccfBhFEg.s:30748  .debug_str:00000000000247a4 .LASF1227
GAS LISTING C:\Users\SOLDER~1\AppData\Local\Temp\ccfBhFEg.s 			page 95


C:\Users\SOLDER~1\AppData\Local\Temp\ccfBhFEg.s:24446  .debug_str:000000000000b0c5 .LASF1228
C:\Users\SOLDER~1\AppData\Local\Temp\ccfBhFEg.s:25556  .debug_str:000000000000f88a .LASF1229
C:\Users\SOLDER~1\AppData\Local\Temp\ccfBhFEg.s:31590  .debug_str:0000000000027f00 .LASF1230
C:\Users\SOLDER~1\AppData\Local\Temp\ccfBhFEg.s:26546  .debug_str:0000000000013885 .LASF1231
C:\Users\SOLDER~1\AppData\Local\Temp\ccfBhFEg.s:27712  .debug_str:00000000000184e4 .LASF1232
C:\Users\SOLDER~1\AppData\Local\Temp\ccfBhFEg.s:25884  .debug_str:0000000000010e39 .LASF1233
C:\Users\SOLDER~1\AppData\Local\Temp\ccfBhFEg.s:23398  .debug_str:0000000000006c56 .LASF1234
C:\Users\SOLDER~1\AppData\Local\Temp\ccfBhFEg.s:26598  .debug_str:0000000000013c0f .LASF1235
C:\Users\SOLDER~1\AppData\Local\Temp\ccfBhFEg.s:23038  .debug_str:000000000000548e .LASF1236
C:\Users\SOLDER~1\AppData\Local\Temp\ccfBhFEg.s:31346  .debug_str:0000000000026efb .LASF1237
C:\Users\SOLDER~1\AppData\Local\Temp\ccfBhFEg.s:28176  .debug_str:000000000001a299 .LASF1238
C:\Users\SOLDER~1\AppData\Local\Temp\ccfBhFEg.s:25288  .debug_str:000000000000e7c5 .LASF1239
C:\Users\SOLDER~1\AppData\Local\Temp\ccfBhFEg.s:32996  .debug_str:000000000002da90 .LASF1240
C:\Users\SOLDER~1\AppData\Local\Temp\ccfBhFEg.s:30486  .debug_str:0000000000023691 .LASF1241
C:\Users\SOLDER~1\AppData\Local\Temp\ccfBhFEg.s:29152  .debug_str:000000000001e0c7 .LASF1242
C:\Users\SOLDER~1\AppData\Local\Temp\ccfBhFEg.s:29378  .debug_str:000000000001efc3 .LASF1243
C:\Users\SOLDER~1\AppData\Local\Temp\ccfBhFEg.s:22458  .debug_str:000000000000301e .LASF1244
C:\Users\SOLDER~1\AppData\Local\Temp\ccfBhFEg.s:25240  .debug_str:000000000000e482 .LASF1245
C:\Users\SOLDER~1\AppData\Local\Temp\ccfBhFEg.s:31870  .debug_str:0000000000029139 .LASF1246
C:\Users\SOLDER~1\AppData\Local\Temp\ccfBhFEg.s:31402  .debug_str:00000000000272b4 .LASF1247
C:\Users\SOLDER~1\AppData\Local\Temp\ccfBhFEg.s:31174  .debug_str:0000000000026394 .LASF1248
C:\Users\SOLDER~1\AppData\Local\Temp\ccfBhFEg.s:31216  .debug_str:000000000002666a .LASF1249
C:\Users\SOLDER~1\AppData\Local\Temp\ccfBhFEg.s:24810  .debug_str:000000000000c856 .LASF1250
C:\Users\SOLDER~1\AppData\Local\Temp\ccfBhFEg.s:33018  .debug_str:000000000002dbd0 .LASF1251
C:\Users\SOLDER~1\AppData\Local\Temp\ccfBhFEg.s:29608  .debug_str:000000000001fee6 .LASF1252
C:\Users\SOLDER~1\AppData\Local\Temp\ccfBhFEg.s:26372  .debug_str:0000000000012cbe .LASF1253
C:\Users\SOLDER~1\AppData\Local\Temp\ccfBhFEg.s:28444  .debug_str:000000000001b390 .LASF1254
C:\Users\SOLDER~1\AppData\Local\Temp\ccfBhFEg.s:31208  .debug_str:00000000000265f6 .LASF1255
C:\Users\SOLDER~1\AppData\Local\Temp\ccfBhFEg.s:28758  .debug_str:000000000001c765 .LASF1256
C:\Users\SOLDER~1\AppData\Local\Temp\ccfBhFEg.s:27428  .debug_str:00000000000171b4 .LASF1257
C:\Users\SOLDER~1\AppData\Local\Temp\ccfBhFEg.s:27746  .debug_str:000000000001873d .LASF1258
C:\Users\SOLDER~1\AppData\Local\Temp\ccfBhFEg.s:32422  .debug_str:000000000002b4b9 .LASF1259
C:\Users\SOLDER~1\AppData\Local\Temp\ccfBhFEg.s:25790  .debug_str:000000000001083a .LASF1260
C:\Users\SOLDER~1\AppData\Local\Temp\ccfBhFEg.s:31226  .debug_str:000000000002671b .LASF1261
C:\Users\SOLDER~1\AppData\Local\Temp\ccfBhFEg.s:23862  .debug_str:0000000000008a76 .LASF1262
C:\Users\SOLDER~1\AppData\Local\Temp\ccfBhFEg.s:30454  .debug_str:00000000000234a4 .LASF1263
C:\Users\SOLDER~1\AppData\Local\Temp\ccfBhFEg.s:28244  .debug_str:000000000001a6c2 .LASF1264
C:\Users\SOLDER~1\AppData\Local\Temp\ccfBhFEg.s:30418  .debug_str:0000000000023279 .LASF1265
C:\Users\SOLDER~1\AppData\Local\Temp\ccfBhFEg.s:26944  .debug_str:00000000000153a5 .LASF1266
C:\Users\SOLDER~1\AppData\Local\Temp\ccfBhFEg.s:23504  .debug_str:000000000000737f .LASF1267
C:\Users\SOLDER~1\AppData\Local\Temp\ccfBhFEg.s:32008  .debug_str:0000000000029a13 .LASF1268
C:\Users\SOLDER~1\AppData\Local\Temp\ccfBhFEg.s:22326  .debug_str:00000000000027a5 .LASF1269
C:\Users\SOLDER~1\AppData\Local\Temp\ccfBhFEg.s:25150  .debug_str:000000000000de4f .LASF1270
C:\Users\SOLDER~1\AppData\Local\Temp\ccfBhFEg.s:22656  .debug_str:0000000000003cc9 .LASF1271
C:\Users\SOLDER~1\AppData\Local\Temp\ccfBhFEg.s:30782  .debug_str:00000000000249f1 .LASF1272
C:\Users\SOLDER~1\AppData\Local\Temp\ccfBhFEg.s:33344  .debug_str:000000000002f094 .LASF1273
C:\Users\SOLDER~1\AppData\Local\Temp\ccfBhFEg.s:26434  .debug_str:0000000000013129 .LASF1274
C:\Users\SOLDER~1\AppData\Local\Temp\ccfBhFEg.s:28318  .debug_str:000000000001ab66 .LASF1275
C:\Users\SOLDER~1\AppData\Local\Temp\ccfBhFEg.s:23268  .debug_str:00000000000063b0 .LASF1276
C:\Users\SOLDER~1\AppData\Local\Temp\ccfBhFEg.s:24406  .debug_str:000000000000ae14 .LASF1277
C:\Users\SOLDER~1\AppData\Local\Temp\ccfBhFEg.s:22606  .debug_str:0000000000003994 .LASF1278
C:\Users\SOLDER~1\AppData\Local\Temp\ccfBhFEg.s:22130  .debug_str:0000000000001ae1 .LASF1279
C:\Users\SOLDER~1\AppData\Local\Temp\ccfBhFEg.s:23534  .debug_str:000000000000754f .LASF1280
C:\Users\SOLDER~1\AppData\Local\Temp\ccfBhFEg.s:22726  .debug_str:0000000000004125 .LASF1281
C:\Users\SOLDER~1\AppData\Local\Temp\ccfBhFEg.s:26122  .debug_str:0000000000011d23 .LASF1282
C:\Users\SOLDER~1\AppData\Local\Temp\ccfBhFEg.s:32270  .debug_str:000000000002ab23 .LASF1283
C:\Users\SOLDER~1\AppData\Local\Temp\ccfBhFEg.s:27372  .debug_str:0000000000016e84 .LASF1284
GAS LISTING C:\Users\SOLDER~1\AppData\Local\Temp\ccfBhFEg.s 			page 96


C:\Users\SOLDER~1\AppData\Local\Temp\ccfBhFEg.s:25188  .debug_str:000000000000e0d1 .LASF1285
C:\Users\SOLDER~1\AppData\Local\Temp\ccfBhFEg.s:23794  .debug_str:0000000000008625 .LASF1286
C:\Users\SOLDER~1\AppData\Local\Temp\ccfBhFEg.s:31666  .debug_str:00000000000283f3 .LASF1287
C:\Users\SOLDER~1\AppData\Local\Temp\ccfBhFEg.s:26680  .debug_str:00000000000141fd .LASF1288
C:\Users\SOLDER~1\AppData\Local\Temp\ccfBhFEg.s:32654  .debug_str:000000000002c3fc .LASF1289
C:\Users\SOLDER~1\AppData\Local\Temp\ccfBhFEg.s:25496  .debug_str:000000000000f4ae .LASF1290
C:\Users\SOLDER~1\AppData\Local\Temp\ccfBhFEg.s:24524  .debug_str:000000000000b599 .LASF1291
C:\Users\SOLDER~1\AppData\Local\Temp\ccfBhFEg.s:32264  .debug_str:000000000002aad9 .LASF1292
C:\Users\SOLDER~1\AppData\Local\Temp\ccfBhFEg.s:30156  .debug_str:00000000000221bd .LASF1293
C:\Users\SOLDER~1\AppData\Local\Temp\ccfBhFEg.s:31692  .debug_str:0000000000028589 .LASF1294
C:\Users\SOLDER~1\AppData\Local\Temp\ccfBhFEg.s:26998  .debug_str:000000000001573e .LASF1295
C:\Users\SOLDER~1\AppData\Local\Temp\ccfBhFEg.s:24884  .debug_str:000000000000cd2e .LASF1296
C:\Users\SOLDER~1\AppData\Local\Temp\ccfBhFEg.s:33140  .debug_str:000000000002e3c0 .LASF1297
C:\Users\SOLDER~1\AppData\Local\Temp\ccfBhFEg.s:23714  .debug_str:00000000000080eb .LASF1298
C:\Users\SOLDER~1\AppData\Local\Temp\ccfBhFEg.s:25158  .debug_str:000000000000ded5 .LASF1299
C:\Users\SOLDER~1\AppData\Local\Temp\ccfBhFEg.s:32528  .debug_str:000000000002bbaa .LASF1300
C:\Users\SOLDER~1\AppData\Local\Temp\ccfBhFEg.s:26930  .debug_str:00000000000152cd .LASF1301
C:\Users\SOLDER~1\AppData\Local\Temp\ccfBhFEg.s:24998  .debug_str:000000000000d4af .LASF1302
C:\Users\SOLDER~1\AppData\Local\Temp\ccfBhFEg.s:30466  .debug_str:0000000000023564 .LASF1303
C:\Users\SOLDER~1\AppData\Local\Temp\ccfBhFEg.s:28064  .debug_str:0000000000019be5 .LASF1304
C:\Users\SOLDER~1\AppData\Local\Temp\ccfBhFEg.s:28798  .debug_str:000000000001ca04 .LASF1305
C:\Users\SOLDER~1\AppData\Local\Temp\ccfBhFEg.s:24190  .debug_str:000000000000a007 .LASF1306
C:\Users\SOLDER~1\AppData\Local\Temp\ccfBhFEg.s:32698  .debug_str:000000000002c70d .LASF1307
C:\Users\SOLDER~1\AppData\Local\Temp\ccfBhFEg.s:31772  .debug_str:0000000000028ae9 .LASF1308
C:\Users\SOLDER~1\AppData\Local\Temp\ccfBhFEg.s:26666  .debug_str:00000000000140fa .LASF1309
C:\Users\SOLDER~1\AppData\Local\Temp\ccfBhFEg.s:28348  .debug_str:000000000001ad52 .LASF1310
C:\Users\SOLDER~1\AppData\Local\Temp\ccfBhFEg.s:26476  .debug_str:00000000000133d6 .LASF1311
C:\Users\SOLDER~1\AppData\Local\Temp\ccfBhFEg.s:32596  .debug_str:000000000002c04e .LASF1312
C:\Users\SOLDER~1\AppData\Local\Temp\ccfBhFEg.s:27110  .debug_str:0000000000015e36 .LASF1313
C:\Users\SOLDER~1\AppData\Local\Temp\ccfBhFEg.s:27374  .debug_str:0000000000016ea8 .LASF1314
C:\Users\SOLDER~1\AppData\Local\Temp\ccfBhFEg.s:33368  .debug_str:000000000002f21f .LASF1315
C:\Users\SOLDER~1\AppData\Local\Temp\ccfBhFEg.s:22366  .debug_str:0000000000002a3c .LASF1316
C:\Users\SOLDER~1\AppData\Local\Temp\ccfBhFEg.s:29534  .debug_str:000000000001fa0d .LASF1317
C:\Users\SOLDER~1\AppData\Local\Temp\ccfBhFEg.s:26092  .debug_str:0000000000011b0e .LASF1318
C:\Users\SOLDER~1\AppData\Local\Temp\ccfBhFEg.s:31746  .debug_str:0000000000028921 .LASF1319
C:\Users\SOLDER~1\AppData\Local\Temp\ccfBhFEg.s:27048  .debug_str:0000000000015aa5 .LASF1320
C:\Users\SOLDER~1\AppData\Local\Temp\ccfBhFEg.s:28858  .debug_str:000000000001cdda .LASF1321
C:\Users\SOLDER~1\AppData\Local\Temp\ccfBhFEg.s:33434  .debug_str:000000000002f5fe .LASF1322
C:\Users\SOLDER~1\AppData\Local\Temp\ccfBhFEg.s:32358  .debug_str:000000000002b0c2 .LASF1323
C:\Users\SOLDER~1\AppData\Local\Temp\ccfBhFEg.s:28494  .debug_str:000000000001b67a .LASF1324
C:\Users\SOLDER~1\AppData\Local\Temp\ccfBhFEg.s:26388  .debug_str:0000000000012dee .LASF1325
C:\Users\SOLDER~1\AppData\Local\Temp\ccfBhFEg.s:27964  .debug_str:0000000000019532 .LASF1326
C:\Users\SOLDER~1\AppData\Local\Temp\ccfBhFEg.s:23170  .debug_str:0000000000005d17 .LASF1327
C:\Users\SOLDER~1\AppData\Local\Temp\ccfBhFEg.s:32812  .debug_str:000000000002ce6c .LASF1328
C:\Users\SOLDER~1\AppData\Local\Temp\ccfBhFEg.s:22668  .debug_str:0000000000003d87 .LASF1329
C:\Users\SOLDER~1\AppData\Local\Temp\ccfBhFEg.s:31628  .debug_str:0000000000028142 .LASF1330
C:\Users\SOLDER~1\AppData\Local\Temp\ccfBhFEg.s:21918  .debug_str:0000000000000d7c .LASF1331
C:\Users\SOLDER~1\AppData\Local\Temp\ccfBhFEg.s:32454  .debug_str:000000000002b712 .LASF1332
C:\Users\SOLDER~1\AppData\Local\Temp\ccfBhFEg.s:30944  .debug_str:00000000000254dc .LASF1333
C:\Users\SOLDER~1\AppData\Local\Temp\ccfBhFEg.s:26958  .debug_str:0000000000015499 .LASF1334
C:\Users\SOLDER~1\AppData\Local\Temp\ccfBhFEg.s:26716  .debug_str:0000000000014449 .LASF1335
C:\Users\SOLDER~1\AppData\Local\Temp\ccfBhFEg.s:24216  .debug_str:000000000000a19f .LASF1336
C:\Users\SOLDER~1\AppData\Local\Temp\ccfBhFEg.s:25008  .debug_str:000000000000d564 .LASF1337
C:\Users\SOLDER~1\AppData\Local\Temp\ccfBhFEg.s:32144  .debug_str:000000000002a2cd .LASF1338
C:\Users\SOLDER~1\AppData\Local\Temp\ccfBhFEg.s:28906  .debug_str:000000000001d118 .LASF1339
C:\Users\SOLDER~1\AppData\Local\Temp\ccfBhFEg.s:28026  .debug_str:0000000000019929 .LASF1340
C:\Users\SOLDER~1\AppData\Local\Temp\ccfBhFEg.s:22832  .debug_str:00000000000047e3 .LASF1341
GAS LISTING C:\Users\SOLDER~1\AppData\Local\Temp\ccfBhFEg.s 			page 97


C:\Users\SOLDER~1\AppData\Local\Temp\ccfBhFEg.s:24520  .debug_str:000000000000b561 .LASF1342
C:\Users\SOLDER~1\AppData\Local\Temp\ccfBhFEg.s:30778  .debug_str:000000000002499f .LASF1343
C:\Users\SOLDER~1\AppData\Local\Temp\ccfBhFEg.s:25120  .debug_str:000000000000dcb1 .LASF1344
C:\Users\SOLDER~1\AppData\Local\Temp\ccfBhFEg.s:31314  .debug_str:0000000000026cc6 .LASF1345
C:\Users\SOLDER~1\AppData\Local\Temp\ccfBhFEg.s:26044  .debug_str:0000000000011811 .LASF1346
C:\Users\SOLDER~1\AppData\Local\Temp\ccfBhFEg.s:29974  .debug_str:000000000002165d .LASF1347
C:\Users\SOLDER~1\AppData\Local\Temp\ccfBhFEg.s:26732  .debug_str:0000000000014582 .LASF1348
C:\Users\SOLDER~1\AppData\Local\Temp\ccfBhFEg.s:22144  .debug_str:0000000000001bce .LASF1349
C:\Users\SOLDER~1\AppData\Local\Temp\ccfBhFEg.s:30388  .debug_str:000000000002307c .LASF1350
C:\Users\SOLDER~1\AppData\Local\Temp\ccfBhFEg.s:28574  .debug_str:000000000001bba1 .LASF1351
C:\Users\SOLDER~1\AppData\Local\Temp\ccfBhFEg.s:24360  .debug_str:000000000000ab44 .LASF1352
C:\Users\SOLDER~1\AppData\Local\Temp\ccfBhFEg.s:25064  .debug_str:000000000000d918 .LASF1353
C:\Users\SOLDER~1\AppData\Local\Temp\ccfBhFEg.s:29538  .debug_str:000000000001fa5a .LASF1354
C:\Users\SOLDER~1\AppData\Local\Temp\ccfBhFEg.s:28594  .debug_str:000000000001bcda .LASF1355
C:\Users\SOLDER~1\AppData\Local\Temp\ccfBhFEg.s:24680  .debug_str:000000000000bf9c .LASF1356
C:\Users\SOLDER~1\AppData\Local\Temp\ccfBhFEg.s:22588  .debug_str:0000000000003866 .LASF1357
C:\Users\SOLDER~1\AppData\Local\Temp\ccfBhFEg.s:23846  .debug_str:0000000000008984 .LASF1358
C:\Users\SOLDER~1\AppData\Local\Temp\ccfBhFEg.s:31006  .debug_str:0000000000025896 .LASF1359
C:\Users\SOLDER~1\AppData\Local\Temp\ccfBhFEg.s:29016  .debug_str:000000000001d863 .LASF1360
C:\Users\SOLDER~1\AppData\Local\Temp\ccfBhFEg.s:30574  .debug_str:0000000000023c7f .LASF1361
C:\Users\SOLDER~1\AppData\Local\Temp\ccfBhFEg.s:27898  .debug_str:00000000000190bf .LASF1362
C:\Users\SOLDER~1\AppData\Local\Temp\ccfBhFEg.s:29816  .debug_str:0000000000020bfc .LASF1363
C:\Users\SOLDER~1\AppData\Local\Temp\ccfBhFEg.s:23114  .debug_str:0000000000005980 .LASF1364
C:\Users\SOLDER~1\AppData\Local\Temp\ccfBhFEg.s:27102  .debug_str:0000000000015db8 .LASF1365
C:\Users\SOLDER~1\AppData\Local\Temp\ccfBhFEg.s:29118  .debug_str:000000000001de7d .LASF1366
C:\Users\SOLDER~1\AppData\Local\Temp\ccfBhFEg.s:27318  .debug_str:0000000000016b11 .LASF1367
C:\Users\SOLDER~1\AppData\Local\Temp\ccfBhFEg.s:32166  .debug_str:000000000002a465 .LASF1368
C:\Users\SOLDER~1\AppData\Local\Temp\ccfBhFEg.s:32924  .debug_str:000000000002d58f .LASF1369
C:\Users\SOLDER~1\AppData\Local\Temp\ccfBhFEg.s:32938  .debug_str:000000000002d699 .LASF1370
C:\Users\SOLDER~1\AppData\Local\Temp\ccfBhFEg.s:25110  .debug_str:000000000000dc0c .LASF1371
C:\Users\SOLDER~1\AppData\Local\Temp\ccfBhFEg.s:24164  .debug_str:0000000000009e15 .LASF1372
C:\Users\SOLDER~1\AppData\Local\Temp\ccfBhFEg.s:30754  .debug_str:0000000000024818 .LASF1373
C:\Users\SOLDER~1\AppData\Local\Temp\ccfBhFEg.s:32456  .debug_str:000000000002b737 .LASF1374
C:\Users\SOLDER~1\AppData\Local\Temp\ccfBhFEg.s:23314  .debug_str:00000000000066bd .LASF1375
C:\Users\SOLDER~1\AppData\Local\Temp\ccfBhFEg.s:26438  .debug_str:000000000001315d .LASF1376
C:\Users\SOLDER~1\AppData\Local\Temp\ccfBhFEg.s:33394  .debug_str:000000000002f399 .LASF1377
C:\Users\SOLDER~1\AppData\Local\Temp\ccfBhFEg.s:29006  .debug_str:000000000001d7bc .LASF1378
C:\Users\SOLDER~1\AppData\Local\Temp\ccfBhFEg.s:30294  .debug_str:0000000000022a1b .LASF1379
C:\Users\SOLDER~1\AppData\Local\Temp\ccfBhFEg.s:31032  .debug_str:0000000000025a41 .LASF1380
C:\Users\SOLDER~1\AppData\Local\Temp\ccfBhFEg.s:26392  .debug_str:0000000000012e2a .LASF1381
C:\Users\SOLDER~1\AppData\Local\Temp\ccfBhFEg.s:22932  .debug_str:0000000000004e2b .LASF1382
C:\Users\SOLDER~1\AppData\Local\Temp\ccfBhFEg.s:32898  .debug_str:000000000002d3c1 .LASF1383
C:\Users\SOLDER~1\AppData\Local\Temp\ccfBhFEg.s:23892  .debug_str:0000000000008c99 .LASF1384
C:\Users\SOLDER~1\AppData\Local\Temp\ccfBhFEg.s:32988  .debug_str:000000000002d9ff .LASF1385
C:\Users\SOLDER~1\AppData\Local\Temp\ccfBhFEg.s:25754  .debug_str:0000000000010598 .LASF1386
C:\Users\SOLDER~1\AppData\Local\Temp\ccfBhFEg.s:32364  .debug_str:000000000002b11e .LASF1387
C:\Users\SOLDER~1\AppData\Local\Temp\ccfBhFEg.s:32610  .debug_str:000000000002c11b .LASF1388
C:\Users\SOLDER~1\AppData\Local\Temp\ccfBhFEg.s:30494  .debug_str:0000000000023724 .LASF1389
C:\Users\SOLDER~1\AppData\Local\Temp\ccfBhFEg.s:32042  .debug_str:0000000000029c4b .LASF1390
C:\Users\SOLDER~1\AppData\Local\Temp\ccfBhFEg.s:27258  .debug_str:0000000000016782 .LASF1391
C:\Users\SOLDER~1\AppData\Local\Temp\ccfBhFEg.s:27592  .debug_str:0000000000017cea .LASF1392
C:\Users\SOLDER~1\AppData\Local\Temp\ccfBhFEg.s:26830  .debug_str:0000000000014bfd .LASF1393
C:\Users\SOLDER~1\AppData\Local\Temp\ccfBhFEg.s:25860  .debug_str:0000000000010ca3 .LASF1394
C:\Users\SOLDER~1\AppData\Local\Temp\ccfBhFEg.s:26056  .debug_str:00000000000118f8 .LASF1395
C:\Users\SOLDER~1\AppData\Local\Temp\ccfBhFEg.s:31046  .debug_str:0000000000025b04 .LASF1396
C:\Users\SOLDER~1\AppData\Local\Temp\ccfBhFEg.s:23262  .debug_str:000000000000633a .LASF1397
C:\Users\SOLDER~1\AppData\Local\Temp\ccfBhFEg.s:25326  .debug_str:000000000000ea16 .LASF1398
GAS LISTING C:\Users\SOLDER~1\AppData\Local\Temp\ccfBhFEg.s 			page 98


C:\Users\SOLDER~1\AppData\Local\Temp\ccfBhFEg.s:30798  .debug_str:0000000000024aff .LASF1399
C:\Users\SOLDER~1\AppData\Local\Temp\ccfBhFEg.s:28392  .debug_str:000000000001aff6 .LASF1400
C:\Users\SOLDER~1\AppData\Local\Temp\ccfBhFEg.s:29036  .debug_str:000000000001d9c3 .LASF1401
C:\Users\SOLDER~1\AppData\Local\Temp\ccfBhFEg.s:24542  .debug_str:000000000000b702 .LASF1402
C:\Users\SOLDER~1\AppData\Local\Temp\ccfBhFEg.s:30924  .debug_str:0000000000025365 .LASF1403
C:\Users\SOLDER~1\AppData\Local\Temp\ccfBhFEg.s:32118  .debug_str:000000000002a101 .LASF1404
C:\Users\SOLDER~1\AppData\Local\Temp\ccfBhFEg.s:26994  .debug_str:00000000000156fa .LASF1405
C:\Users\SOLDER~1\AppData\Local\Temp\ccfBhFEg.s:28676  .debug_str:000000000001c1c7 .LASF1406
C:\Users\SOLDER~1\AppData\Local\Temp\ccfBhFEg.s:27726  .debug_str:00000000000185e7 .LASF1407
C:\Users\SOLDER~1\AppData\Local\Temp\ccfBhFEg.s:29420  .debug_str:000000000001f265 .LASF1408
C:\Users\SOLDER~1\AppData\Local\Temp\ccfBhFEg.s:28320  .debug_str:000000000001ab88 .LASF1409
C:\Users\SOLDER~1\AppData\Local\Temp\ccfBhFEg.s:22964  .debug_str:0000000000005006 .LASF1410
C:\Users\SOLDER~1\AppData\Local\Temp\ccfBhFEg.s:22834  .debug_str:0000000000004808 .LASF1411
C:\Users\SOLDER~1\AppData\Local\Temp\ccfBhFEg.s:23574  .debug_str:00000000000077cb .LASF1412
C:\Users\SOLDER~1\AppData\Local\Temp\ccfBhFEg.s:32512  .debug_str:000000000002baad .LASF1413
C:\Users\SOLDER~1\AppData\Local\Temp\ccfBhFEg.s:27326  .debug_str:0000000000016b80 .LASF1414
C:\Users\SOLDER~1\AppData\Local\Temp\ccfBhFEg.s:25522  .debug_str:000000000000f65d .LASF1415
C:\Users\SOLDER~1\AppData\Local\Temp\ccfBhFEg.s:28280  .debug_str:000000000001a8e2 .LASF1416
C:\Users\SOLDER~1\AppData\Local\Temp\ccfBhFEg.s:29094  .debug_str:000000000001dd3a .LASF1417
C:\Users\SOLDER~1\AppData\Local\Temp\ccfBhFEg.s:21958  .debug_str:0000000000000fe6 .LASF1418
C:\Users\SOLDER~1\AppData\Local\Temp\ccfBhFEg.s:32702  .debug_str:000000000002c754 .LASF1419
C:\Users\SOLDER~1\AppData\Local\Temp\ccfBhFEg.s:28816  .debug_str:000000000001cb04 .LASF1420
C:\Users\SOLDER~1\AppData\Local\Temp\ccfBhFEg.s:21904  .debug_str:0000000000000c6f .LASF1421
C:\Users\SOLDER~1\AppData\Local\Temp\ccfBhFEg.s:28284  .debug_str:000000000001a92f .LASF1422
C:\Users\SOLDER~1\AppData\Local\Temp\ccfBhFEg.s:23414  .debug_str:0000000000006d54 .LASF1423
C:\Users\SOLDER~1\AppData\Local\Temp\ccfBhFEg.s:33158  .debug_str:000000000002e4dd .LASF1424
C:\Users\SOLDER~1\AppData\Local\Temp\ccfBhFEg.s:22994  .debug_str:00000000000051c7 .LASF1425
C:\Users\SOLDER~1\AppData\Local\Temp\ccfBhFEg.s:31972  .debug_str:00000000000297ad .LASF1426
C:\Users\SOLDER~1\AppData\Local\Temp\ccfBhFEg.s:22228  .debug_str:0000000000002140 .LASF1427
C:\Users\SOLDER~1\AppData\Local\Temp\ccfBhFEg.s:27206  .debug_str:000000000001644b .LASF1428
C:\Users\SOLDER~1\AppData\Local\Temp\ccfBhFEg.s:31180  .debug_str:00000000000263f1 .LASF1429
C:\Users\SOLDER~1\AppData\Local\Temp\ccfBhFEg.s:33262  .debug_str:000000000002eb24 .LASF1430
C:\Users\SOLDER~1\AppData\Local\Temp\ccfBhFEg.s:22518  .debug_str:00000000000033e9 .LASF1431
C:\Users\SOLDER~1\AppData\Local\Temp\ccfBhFEg.s:24558  .debug_str:000000000000b7fc .LASF1432
C:\Users\SOLDER~1\AppData\Local\Temp\ccfBhFEg.s:25250  .debug_str:000000000000e539 .LASF1433
C:\Users\SOLDER~1\AppData\Local\Temp\ccfBhFEg.s:32476  .debug_str:000000000002b8a0 .LASF1434
C:\Users\SOLDER~1\AppData\Local\Temp\ccfBhFEg.s:29242  .debug_str:000000000001e6b6 .LASF1435
C:\Users\SOLDER~1\AppData\Local\Temp\ccfBhFEg.s:23838  .debug_str:00000000000088f9 .LASF1436
C:\Users\SOLDER~1\AppData\Local\Temp\ccfBhFEg.s:22898  .debug_str:0000000000004c0f .LASF1437
C:\Users\SOLDER~1\AppData\Local\Temp\ccfBhFEg.s:24862  .debug_str:000000000000cba7 .LASF1438
C:\Users\SOLDER~1\AppData\Local\Temp\ccfBhFEg.s:32016  .debug_str:0000000000029aa4 .LASF1439
C:\Users\SOLDER~1\AppData\Local\Temp\ccfBhFEg.s:26420  .debug_str:000000000001302c .LASF1440
C:\Users\SOLDER~1\AppData\Local\Temp\ccfBhFEg.s:32638  .debug_str:000000000002c2f7 .LASF1441
C:\Users\SOLDER~1\AppData\Local\Temp\ccfBhFEg.s:27260  .debug_str:00000000000167a7 .LASF1442
C:\Users\SOLDER~1\AppData\Local\Temp\ccfBhFEg.s:27216  .debug_str:00000000000164e0 .LASF1443
C:\Users\SOLDER~1\AppData\Local\Temp\ccfBhFEg.s:29786  .debug_str:0000000000020a12 .LASF1444
C:\Users\SOLDER~1\AppData\Local\Temp\ccfBhFEg.s:23332  .debug_str:0000000000006813 .LASF1445
C:\Users\SOLDER~1\AppData\Local\Temp\ccfBhFEg.s:25320  .debug_str:000000000000e9b0 .LASF1446
C:\Users\SOLDER~1\AppData\Local\Temp\ccfBhFEg.s:29838  .debug_str:0000000000020d78 .LASF1447
C:\Users\SOLDER~1\AppData\Local\Temp\ccfBhFEg.s:32588  .debug_str:000000000002bfc4 .LASF1448
C:\Users\SOLDER~1\AppData\Local\Temp\ccfBhFEg.s:23850  .debug_str:00000000000089c2 .LASF1449
C:\Users\SOLDER~1\AppData\Local\Temp\ccfBhFEg.s:29848  .debug_str:0000000000020e1b .LASF1450
C:\Users\SOLDER~1\AppData\Local\Temp\ccfBhFEg.s:26730  .debug_str:000000000001455d .LASF1451
C:\Users\SOLDER~1\AppData\Local\Temp\ccfBhFEg.s:25022  .debug_str:000000000000d64d .LASF1452
C:\Users\SOLDER~1\AppData\Local\Temp\ccfBhFEg.s:22914  .debug_str:0000000000004d1d .LASF1453
C:\Users\SOLDER~1\AppData\Local\Temp\ccfBhFEg.s:24442  .debug_str:000000000000b07a .LASF1454
C:\Users\SOLDER~1\AppData\Local\Temp\ccfBhFEg.s:31344  .debug_str:0000000000026ed6 .LASF1455
GAS LISTING C:\Users\SOLDER~1\AppData\Local\Temp\ccfBhFEg.s 			page 99


C:\Users\SOLDER~1\AppData\Local\Temp\ccfBhFEg.s:21886  .debug_str:0000000000000b35 .LASF1456
C:\Users\SOLDER~1\AppData\Local\Temp\ccfBhFEg.s:30914  .debug_str:00000000000252c3 .LASF1457
C:\Users\SOLDER~1\AppData\Local\Temp\ccfBhFEg.s:24206  .debug_str:000000000000a115 .LASF1458
C:\Users\SOLDER~1\AppData\Local\Temp\ccfBhFEg.s:30138  .debug_str:00000000000220c2 .LASF1459
C:\Users\SOLDER~1\AppData\Local\Temp\ccfBhFEg.s:23294  .debug_str:0000000000006560 .LASF1460
C:\Users\SOLDER~1\AppData\Local\Temp\ccfBhFEg.s:27456  .debug_str:000000000001739a .LASF1461
C:\Users\SOLDER~1\AppData\Local\Temp\ccfBhFEg.s:27386  .debug_str:0000000000016f63 .LASF1462
C:\Users\SOLDER~1\AppData\Local\Temp\ccfBhFEg.s:23224  .debug_str:0000000000006098 .LASF1463
C:\Users\SOLDER~1\AppData\Local\Temp\ccfBhFEg.s:32500  .debug_str:000000000002b9ee .LASF1464
C:\Users\SOLDER~1\AppData\Local\Temp\ccfBhFEg.s:33184  .debug_str:000000000002e68c .LASF1465
C:\Users\SOLDER~1\AppData\Local\Temp\ccfBhFEg.s:28692  .debug_str:000000000001c2fc .LASF1466
C:\Users\SOLDER~1\AppData\Local\Temp\ccfBhFEg.s:23374  .debug_str:0000000000006ae3 .LASF1467
C:\Users\SOLDER~1\AppData\Local\Temp\ccfBhFEg.s:24422  .debug_str:000000000000af20 .LASF1468
C:\Users\SOLDER~1\AppData\Local\Temp\ccfBhFEg.s:29078  .debug_str:000000000001dc3f .LASF1469
C:\Users\SOLDER~1\AppData\Local\Temp\ccfBhFEg.s:27668  .debug_str:00000000000181ce .LASF1470
C:\Users\SOLDER~1\AppData\Local\Temp\ccfBhFEg.s:24634  .debug_str:000000000000bc7e .LASF1471
C:\Users\SOLDER~1\AppData\Local\Temp\ccfBhFEg.s:30634  .debug_str:000000000002402b .LASF1472
C:\Users\SOLDER~1\AppData\Local\Temp\ccfBhFEg.s:25160  .debug_str:000000000000defa .LASF1473
C:\Users\SOLDER~1\AppData\Local\Temp\ccfBhFEg.s:31554  .debug_str:0000000000027cc0 .LASF1474
C:\Users\SOLDER~1\AppData\Local\Temp\ccfBhFEg.s:31518  .debug_str:0000000000027a5f .LASF1475
C:\Users\SOLDER~1\AppData\Local\Temp\ccfBhFEg.s:32252  .debug_str:000000000002aa18 .LASF1476
C:\Users\SOLDER~1\AppData\Local\Temp\ccfBhFEg.s:27738  .debug_str:00000000000186b4 .LASF1477
C:\Users\SOLDER~1\AppData\Local\Temp\ccfBhFEg.s:24224  .debug_str:000000000000a22a .LASF1478
C:\Users\SOLDER~1\AppData\Local\Temp\ccfBhFEg.s:22376  .debug_str:0000000000002ad2 .LASF1479
C:\Users\SOLDER~1\AppData\Local\Temp\ccfBhFEg.s:25112  .debug_str:000000000000dc31 .LASF1480
C:\Users\SOLDER~1\AppData\Local\Temp\ccfBhFEg.s:33238  .debug_str:000000000002e9aa .LASF1481
C:\Users\SOLDER~1\AppData\Local\Temp\ccfBhFEg.s:26084  .debug_str:0000000000011a93 .LASF1482
C:\Users\SOLDER~1\AppData\Local\Temp\ccfBhFEg.s:25116  .debug_str:000000000000dc78 .LASF1483
C:\Users\SOLDER~1\AppData\Local\Temp\ccfBhFEg.s:32934  .debug_str:000000000002d64b .LASF1484
C:\Users\SOLDER~1\AppData\Local\Temp\ccfBhFEg.s:30826  .debug_str:0000000000024ce8 .LASF1485
C:\Users\SOLDER~1\AppData\Local\Temp\ccfBhFEg.s:32288  .debug_str:000000000002ac60 .LASF1486
C:\Users\SOLDER~1\AppData\Local\Temp\ccfBhFEg.s:27620  .debug_str:0000000000017ecc .LASF1487
C:\Users\SOLDER~1\AppData\Local\Temp\ccfBhFEg.s:24908  .debug_str:000000000000ced7 .LASF1488
C:\Users\SOLDER~1\AppData\Local\Temp\ccfBhFEg.s:27170  .debug_str:00000000000161d0 .LASF1489
C:\Users\SOLDER~1\AppData\Local\Temp\ccfBhFEg.s:24270  .debug_str:000000000000a523 .LASF1490
C:\Users\SOLDER~1\AppData\Local\Temp\ccfBhFEg.s:23236  .debug_str:0000000000006195 .LASF1491
C:\Users\SOLDER~1\AppData\Local\Temp\ccfBhFEg.s:31284  .debug_str:0000000000026b0f .LASF1492
C:\Users\SOLDER~1\AppData\Local\Temp\ccfBhFEg.s:23618  .debug_str:0000000000007a7a .LASF1493
C:\Users\SOLDER~1\AppData\Local\Temp\ccfBhFEg.s:25672  .debug_str:0000000000010097 .LASF1494
C:\Users\SOLDER~1\AppData\Local\Temp\ccfBhFEg.s:27732  .debug_str:0000000000018641 .LASF1495
C:\Users\SOLDER~1\AppData\Local\Temp\ccfBhFEg.s:28712  .debug_str:000000000001c46a .LASF1496
C:\Users\SOLDER~1\AppData\Local\Temp\ccfBhFEg.s:29382  .debug_str:000000000001effe .LASF1497
C:\Users\SOLDER~1\AppData\Local\Temp\ccfBhFEg.s:24886  .debug_str:000000000000cd53 .LASF1498
C:\Users\SOLDER~1\AppData\Local\Temp\ccfBhFEg.s:33288  .debug_str:000000000002ecaf .LASF1499
C:\Users\SOLDER~1\AppData\Local\Temp\ccfBhFEg.s:32350  .debug_str:000000000002b027 .LASF1500
C:\Users\SOLDER~1\AppData\Local\Temp\ccfBhFEg.s:27352  .debug_str:0000000000016d34 .LASF1501
C:\Users\SOLDER~1\AppData\Local\Temp\ccfBhFEg.s:22368  .debug_str:0000000000002a60 .LASF1502
C:\Users\SOLDER~1\AppData\Local\Temp\ccfBhFEg.s:28890  .debug_str:000000000001cffe .LASF1503
C:\Users\SOLDER~1\AppData\Local\Temp\ccfBhFEg.s:23260  .debug_str:0000000000006316 .LASF1504
C:\Users\SOLDER~1\AppData\Local\Temp\ccfBhFEg.s:29514  .debug_str:000000000001f8ad .LASF1505
C:\Users\SOLDER~1\AppData\Local\Temp\ccfBhFEg.s:24168  .debug_str:0000000000009e7d .LASF1506
C:\Users\SOLDER~1\AppData\Local\Temp\ccfBhFEg.s:24132  .debug_str:0000000000009c3e .LASF1507
C:\Users\SOLDER~1\AppData\Local\Temp\ccfBhFEg.s:24878  .debug_str:000000000000ccc7 .LASF1508
C:\Users\SOLDER~1\AppData\Local\Temp\ccfBhFEg.s:31926  .debug_str:00000000000294bb .LASF1509
C:\Users\SOLDER~1\AppData\Local\Temp\ccfBhFEg.s:29292  .debug_str:000000000001e9d8 .LASF1510
C:\Users\SOLDER~1\AppData\Local\Temp\ccfBhFEg.s:26738  .debug_str:00000000000145fa .LASF1511
C:\Users\SOLDER~1\AppData\Local\Temp\ccfBhFEg.s:29458  .debug_str:000000000001f4e4 .LASF1512
GAS LISTING C:\Users\SOLDER~1\AppData\Local\Temp\ccfBhFEg.s 			page 100


C:\Users\SOLDER~1\AppData\Local\Temp\ccfBhFEg.s:29444  .debug_str:000000000001f3f3 .LASF1513
C:\Users\SOLDER~1\AppData\Local\Temp\ccfBhFEg.s:22234  .debug_str:00000000000021b5 .LASF1514
C:\Users\SOLDER~1\AppData\Local\Temp\ccfBhFEg.s:33038  .debug_str:000000000002dd13 .LASF1515
C:\Users\SOLDER~1\AppData\Local\Temp\ccfBhFEg.s:29144  .debug_str:000000000001e032 .LASF1516
C:\Users\SOLDER~1\AppData\Local\Temp\ccfBhFEg.s:30040  .debug_str:0000000000021a9a .LASF1517
C:\Users\SOLDER~1\AppData\Local\Temp\ccfBhFEg.s:28510  .debug_str:000000000001b77b .LASF1518
C:\Users\SOLDER~1\AppData\Local\Temp\ccfBhFEg.s:23766  .debug_str:0000000000008470 .LASF1519
C:\Users\SOLDER~1\AppData\Local\Temp\ccfBhFEg.s:33404  .debug_str:000000000002f426 .LASF1520
C:\Users\SOLDER~1\AppData\Local\Temp\ccfBhFEg.s:30880  .debug_str:0000000000025055 .LASF1521
C:\Users\SOLDER~1\AppData\Local\Temp\ccfBhFEg.s:32214  .debug_str:000000000002a795 .LASF1522
C:\Users\SOLDER~1\AppData\Local\Temp\ccfBhFEg.s:22480  .debug_str:000000000000316f .LASF1523
C:\Users\SOLDER~1\AppData\Local\Temp\ccfBhFEg.s:27568  .debug_str:0000000000017b64 .LASF1524
C:\Users\SOLDER~1\AppData\Local\Temp\ccfBhFEg.s:31538  .debug_str:0000000000027baf .LASF1525
C:\Users\SOLDER~1\AppData\Local\Temp\ccfBhFEg.s:21796  .debug_str:0000000000000467 .LASF1526
C:\Users\SOLDER~1\AppData\Local\Temp\ccfBhFEg.s:27410  .debug_str:00000000000170a9 .LASF1527
C:\Users\SOLDER~1\AppData\Local\Temp\ccfBhFEg.s:24814  .debug_str:000000000000c892 .LASF1528
C:\Users\SOLDER~1\AppData\Local\Temp\ccfBhFEg.s:25596  .debug_str:000000000000fb24 .LASF1529
C:\Users\SOLDER~1\AppData\Local\Temp\ccfBhFEg.s:23740  .debug_str:00000000000082d0 .LASF1530
C:\Users\SOLDER~1\AppData\Local\Temp\ccfBhFEg.s:30408  .debug_str:00000000000231c5 .LASF1531
C:\Users\SOLDER~1\AppData\Local\Temp\ccfBhFEg.s:28582  .debug_str:000000000001bc1e .LASF1532
C:\Users\SOLDER~1\AppData\Local\Temp\ccfBhFEg.s:23290  .debug_str:0000000000006518 .LASF1533
C:\Users\SOLDER~1\AppData\Local\Temp\ccfBhFEg.s:25202  .debug_str:000000000000e1b4 .LASF1534
C:\Users\SOLDER~1\AppData\Local\Temp\ccfBhFEg.s:33230  .debug_str:000000000002e91d .LASF1535
C:\Users\SOLDER~1\AppData\Local\Temp\ccfBhFEg.s:27678  .debug_str:0000000000018275 .LASF1536
C:\Users\SOLDER~1\AppData\Local\Temp\ccfBhFEg.s:22124  .debug_str:0000000000001a7d .LASF1537
C:\Users\SOLDER~1\AppData\Local\Temp\ccfBhFEg.s:28550  .debug_str:000000000001ba1e .LASF1538
C:\Users\SOLDER~1\AppData\Local\Temp\ccfBhFEg.s:28420  .debug_str:000000000001b1d8 .LASF1539
C:\Users\SOLDER~1\AppData\Local\Temp\ccfBhFEg.s:29124  .debug_str:000000000001deed .LASF1540
C:\Users\SOLDER~1\AppData\Local\Temp\ccfBhFEg.s:24550  .debug_str:000000000000b78b .LASF1541
C:\Users\SOLDER~1\AppData\Local\Temp\ccfBhFEg.s:32842  .debug_str:000000000002d02d .LASF1542
C:\Users\SOLDER~1\AppData\Local\Temp\ccfBhFEg.s:30888  .debug_str:00000000000250f5 .LASF1543
C:\Users\SOLDER~1\AppData\Local\Temp\ccfBhFEg.s:22076  .debug_str:0000000000001773 .LASF1544
C:\Users\SOLDER~1\AppData\Local\Temp\ccfBhFEg.s:25652  .debug_str:000000000000ff3b .LASF1545
C:\Users\SOLDER~1\AppData\Local\Temp\ccfBhFEg.s:30176  .debug_str:0000000000022310 .LASF1546
C:\Users\SOLDER~1\AppData\Local\Temp\ccfBhFEg.s:29246  .debug_str:000000000001e701 .LASF1547
C:\Users\SOLDER~1\AppData\Local\Temp\ccfBhFEg.s:25352  .debug_str:000000000000ebe1 .LASF1548
C:\Users\SOLDER~1\AppData\Local\Temp\ccfBhFEg.s:33100  .debug_str:000000000002e11a .LASF1549
C:\Users\SOLDER~1\AppData\Local\Temp\ccfBhFEg.s:23660  .debug_str:0000000000007d2c .LASF1550
C:\Users\SOLDER~1\AppData\Local\Temp\ccfBhFEg.s:25756  .debug_str:00000000000105bd .LASF1551
C:\Users\SOLDER~1\AppData\Local\Temp\ccfBhFEg.s:29602  .debug_str:000000000001fe9f .LASF1552
C:\Users\SOLDER~1\AppData\Local\Temp\ccfBhFEg.s:31248  .debug_str:00000000000268ae .LASF1553
C:\Users\SOLDER~1\AppData\Local\Temp\ccfBhFEg.s:28450  .debug_str:000000000001b3eb .LASF1554
C:\Users\SOLDER~1\AppData\Local\Temp\ccfBhFEg.s:30376  .debug_str:0000000000022f91 .LASF1555
C:\Users\SOLDER~1\AppData\Local\Temp\ccfBhFEg.s:23718  .debug_str:0000000000008136 .LASF1556
C:\Users\SOLDER~1\AppData\Local\Temp\ccfBhFEg.s:27802  .debug_str:0000000000018a84 .LASF1557
C:\Users\SOLDER~1\AppData\Local\Temp\ccfBhFEg.s:29706  .debug_str:0000000000020505 .LASF1558
C:\Users\SOLDER~1\AppData\Local\Temp\ccfBhFEg.s:23570  .debug_str:000000000000778f .LASF1559
C:\Users\SOLDER~1\AppData\Local\Temp\ccfBhFEg.s:32750  .debug_str:000000000002ca74 .LASF1560
C:\Users\SOLDER~1\AppData\Local\Temp\ccfBhFEg.s:21804  .debug_str:00000000000004e7 .LASF1561
C:\Users\SOLDER~1\AppData\Local\Temp\ccfBhFEg.s:28926  .debug_str:000000000001d254 .LASF1562
C:\Users\SOLDER~1\AppData\Local\Temp\ccfBhFEg.s:25704  .debug_str:00000000000102a9 .LASF1563
C:\Users\SOLDER~1\AppData\Local\Temp\ccfBhFEg.s:24766  .debug_str:000000000000c515 .LASF1564
C:\Users\SOLDER~1\AppData\Local\Temp\ccfBhFEg.s:31430  .debug_str:000000000002747c .LASF1565
C:\Users\SOLDER~1\AppData\Local\Temp\ccfBhFEg.s:27576  .debug_str:0000000000017be2 .LASF1566
C:\Users\SOLDER~1\AppData\Local\Temp\ccfBhFEg.s:25870  .debug_str:0000000000010d5b .LASF1567
C:\Users\SOLDER~1\AppData\Local\Temp\ccfBhFEg.s:31956  .debug_str:0000000000029690 .LASF1568
C:\Users\SOLDER~1\AppData\Local\Temp\ccfBhFEg.s:26366  .debug_str:0000000000012c62 .LASF1569
GAS LISTING C:\Users\SOLDER~1\AppData\Local\Temp\ccfBhFEg.s 			page 101


C:\Users\SOLDER~1\AppData\Local\Temp\ccfBhFEg.s:32780  .debug_str:000000000002cc5e .LASF1570
C:\Users\SOLDER~1\AppData\Local\Temp\ccfBhFEg.s:32748  .debug_str:000000000002ca50 .LASF1571
C:\Users\SOLDER~1\AppData\Local\Temp\ccfBhFEg.s:21766  .debug_str:0000000000000284 .LASF1572
C:\Users\SOLDER~1\AppData\Local\Temp\ccfBhFEg.s:28904  .debug_str:000000000001d0f4 .LASF1573
C:\Users\SOLDER~1\AppData\Local\Temp\ccfBhFEg.s:25462  .debug_str:000000000000f2a8 .LASF1574
C:\Users\SOLDER~1\AppData\Local\Temp\ccfBhFEg.s:23674  .debug_str:0000000000007e44 .LASF1575
C:\Users\SOLDER~1\AppData\Local\Temp\ccfBhFEg.s:26318  .debug_str:0000000000012992 .LASF1576
C:\Users\SOLDER~1\AppData\Local\Temp\ccfBhFEg.s:21858  .debug_str:000000000000093f .LASF1577
C:\Users\SOLDER~1\AppData\Local\Temp\ccfBhFEg.s:26408  .debug_str:0000000000012f5d .LASF1578
C:\Users\SOLDER~1\AppData\Local\Temp\ccfBhFEg.s:25452  .debug_str:000000000000f1fb .LASF1579
C:\Users\SOLDER~1\AppData\Local\Temp\ccfBhFEg.s:31682  .debug_str:00000000000284de .LASF1580
C:\Users\SOLDER~1\AppData\Local\Temp\ccfBhFEg.s:31086  .debug_str:0000000000025da1 .LASF1581
C:\Users\SOLDER~1\AppData\Local\Temp\ccfBhFEg.s:32630  .debug_str:000000000002c264 .LASF1582
C:\Users\SOLDER~1\AppData\Local\Temp\ccfBhFEg.s:27954  .debug_str:0000000000019483 .LASF1583
C:\Users\SOLDER~1\AppData\Local\Temp\ccfBhFEg.s:25824  .debug_str:0000000000010a29 .LASF1584
C:\Users\SOLDER~1\AppData\Local\Temp\ccfBhFEg.s:27426  .debug_str:000000000001718f .LASF1585
C:\Users\SOLDER~1\AppData\Local\Temp\ccfBhFEg.s:24632  .debug_str:000000000000bc59 .LASF1586
C:\Users\SOLDER~1\AppData\Local\Temp\ccfBhFEg.s:26642  .debug_str:0000000000013f7f .LASF1587
C:\Users\SOLDER~1\AppData\Local\Temp\ccfBhFEg.s:31632  .debug_str:0000000000028183 .LASF1588
C:\Users\SOLDER~1\AppData\Local\Temp\ccfBhFEg.s:23944  .debug_str:0000000000009025 .LASF1589
C:\Users\SOLDER~1\AppData\Local\Temp\ccfBhFEg.s:25934  .debug_str:000000000001114c .LASF1590
C:\Users\SOLDER~1\AppData\Local\Temp\ccfBhFEg.s:31390  .debug_str:0000000000027214 .LASF1591
C:\Users\SOLDER~1\AppData\Local\Temp\ccfBhFEg.s:28952  .debug_str:000000000001d407 .LASF1592
C:\Users\SOLDER~1\AppData\Local\Temp\ccfBhFEg.s:31646  .debug_str:0000000000028284 .LASF1593
C:\Users\SOLDER~1\AppData\Local\Temp\ccfBhFEg.s:25136  .debug_str:000000000000dd98 .LASF1594
C:\Users\SOLDER~1\AppData\Local\Temp\ccfBhFEg.s:21908  .debug_str:0000000000000cb9 .LASF1595
C:\Users\SOLDER~1\AppData\Local\Temp\ccfBhFEg.s:32696  .debug_str:000000000002c6e8 .LASF1596
C:\Users\SOLDER~1\AppData\Local\Temp\ccfBhFEg.s:27616  .debug_str:0000000000017e83 .LASF1597
C:\Users\SOLDER~1\AppData\Local\Temp\ccfBhFEg.s:30530  .debug_str:0000000000023972 .LASF1598
C:\Users\SOLDER~1\AppData\Local\Temp\ccfBhFEg.s:32826  .debug_str:000000000002cf1d .LASF1599
C:\Users\SOLDER~1\AppData\Local\Temp\ccfBhFEg.s:27248  .debug_str:00000000000166df .LASF1600
C:\Users\SOLDER~1\AppData\Local\Temp\ccfBhFEg.s:21736  .debug_str:00000000000000e6 .LASF1601
C:\Users\SOLDER~1\AppData\Local\Temp\ccfBhFEg.s:28072  .debug_str:0000000000019c87 .LASF1602
C:\Users\SOLDER~1\AppData\Local\Temp\ccfBhFEg.s:28038  .debug_str:0000000000019a0f .LASF1603
C:\Users\SOLDER~1\AppData\Local\Temp\ccfBhFEg.s:28732  .debug_str:000000000001c596 .LASF1604
C:\Users\SOLDER~1\AppData\Local\Temp\ccfBhFEg.s:24140  .debug_str:0000000000009ca5 .LASF1605
C:\Users\SOLDER~1\AppData\Local\Temp\ccfBhFEg.s:32436  .debug_str:000000000002b5a5 .LASF1606
C:\Users\SOLDER~1\AppData\Local\Temp\ccfBhFEg.s:30630  .debug_str:0000000000023fee .LASF1607
C:\Users\SOLDER~1\AppData\Local\Temp\ccfBhFEg.s:33304  .debug_str:000000000002edcf .LASF1608
C:\Users\SOLDER~1\AppData\Local\Temp\ccfBhFEg.s:33060  .debug_str:000000000002deab .LASF1609
C:\Users\SOLDER~1\AppData\Local\Temp\ccfBhFEg.s:25236  .debug_str:000000000000e422 .LASF1610
C:\Users\SOLDER~1\AppData\Local\Temp\ccfBhFEg.s:29580  .debug_str:000000000001fd22 .LASF1611
C:\Users\SOLDER~1\AppData\Local\Temp\ccfBhFEg.s:22416  .debug_str:0000000000002d36 .LASF1612
C:\Users\SOLDER~1\AppData\Local\Temp\ccfBhFEg.s:29920  .debug_str:00000000000212b1 .LASF1613
C:\Users\SOLDER~1\AppData\Local\Temp\ccfBhFEg.s:31438  .debug_str:0000000000027503 .LASF1614
C:\Users\SOLDER~1\AppData\Local\Temp\ccfBhFEg.s:26750  .debug_str:00000000000146ce .LASF1615
C:\Users\SOLDER~1\AppData\Local\Temp\ccfBhFEg.s:23802  .debug_str:00000000000086bd .LASF1616
C:\Users\SOLDER~1\AppData\Local\Temp\ccfBhFEg.s:26226  .debug_str:00000000000123b2 .LASF1617
C:\Users\SOLDER~1\AppData\Local\Temp\ccfBhFEg.s:23446  .debug_str:0000000000006f9e .LASF1618
C:\Users\SOLDER~1\AppData\Local\Temp\ccfBhFEg.s:25448  .debug_str:000000000000f1b0 .LASF1619
C:\Users\SOLDER~1\AppData\Local\Temp\ccfBhFEg.s:30450  .debug_str:000000000002346c .LASF1620
C:\Users\SOLDER~1\AppData\Local\Temp\ccfBhFEg.s:22768  .debug_str:00000000000043d9 .LASF1621
C:\Users\SOLDER~1\AppData\Local\Temp\ccfBhFEg.s:24730  .debug_str:000000000000c28b .LASF1622
C:\Users\SOLDER~1\AppData\Local\Temp\ccfBhFEg.s:30210  .debug_str:000000000002252e .LASF1623
C:\Users\SOLDER~1\AppData\Local\Temp\ccfBhFEg.s:27826  .debug_str:0000000000018c10 .LASF1624
C:\Users\SOLDER~1\AppData\Local\Temp\ccfBhFEg.s:28566  .debug_str:000000000001bb18 .LASF1625
C:\Users\SOLDER~1\AppData\Local\Temp\ccfBhFEg.s:23950  .debug_str:000000000000908a .LASF1626
GAS LISTING C:\Users\SOLDER~1\AppData\Local\Temp\ccfBhFEg.s 			page 102


C:\Users\SOLDER~1\AppData\Local\Temp\ccfBhFEg.s:32446  .debug_str:000000000002b64f .LASF1627
C:\Users\SOLDER~1\AppData\Local\Temp\ccfBhFEg.s:31510  .debug_str:00000000000279d9 .LASF1628
C:\Users\SOLDER~1\AppData\Local\Temp\ccfBhFEg.s:23912  .debug_str:0000000000008dde .LASF1629
C:\Users\SOLDER~1\AppData\Local\Temp\ccfBhFEg.s:28104  .debug_str:0000000000019e2f .LASF1630
C:\Users\SOLDER~1\AppData\Local\Temp\ccfBhFEg.s:25444  .debug_str:000000000000f16a .LASF1631
C:\Users\SOLDER~1\AppData\Local\Temp\ccfBhFEg.s:31456  .debug_str:0000000000027624 .LASF1632
C:\Users\SOLDER~1\AppData\Local\Temp\ccfBhFEg.s:25990  .debug_str:00000000000114d3 .LASF1633
C:\Users\SOLDER~1\AppData\Local\Temp\ccfBhFEg.s:32368  .debug_str:000000000002b16b .LASF1634
C:\Users\SOLDER~1\AppData\Local\Temp\ccfBhFEg.s:30716  .debug_str:0000000000024591 .LASF1635
C:\Users\SOLDER~1\AppData\Local\Temp\ccfBhFEg.s:33068  .debug_str:000000000002df34 .LASF1636
C:\Users\SOLDER~1\AppData\Local\Temp\ccfBhFEg.s:28516  .debug_str:000000000001b7e4 .LASF1637
C:\Users\SOLDER~1\AppData\Local\Temp\ccfBhFEg.s:25056  .debug_str:000000000000d892 .LASF1638
C:\Users\SOLDER~1\AppData\Local\Temp\ccfBhFEg.s:23166  .debug_str:0000000000005cca .LASF1639
C:\Users\SOLDER~1\AppData\Local\Temp\ccfBhFEg.s:25940  .debug_str:00000000000111ac .LASF1640
C:\Users\SOLDER~1\AppData\Local\Temp\ccfBhFEg.s:28626  .debug_str:000000000001be9e .LASF1641
C:\Users\SOLDER~1\AppData\Local\Temp\ccfBhFEg.s:33172  .debug_str:000000000002e5d9 .LASF1642
C:\Users\SOLDER~1\AppData\Local\Temp\ccfBhFEg.s:32120  .debug_str:000000000002a126 .LASF1643
C:\Users\SOLDER~1\AppData\Local\Temp\ccfBhFEg.s:28258  .debug_str:000000000001a78c .LASF1644
C:\Users\SOLDER~1\AppData\Local\Temp\ccfBhFEg.s:26138  .debug_str:0000000000011e16 .LASF1645
C:\Users\SOLDER~1\AppData\Local\Temp\ccfBhFEg.s:27714  .debug_str:0000000000018508 .LASF1646
C:\Users\SOLDER~1\AppData\Local\Temp\ccfBhFEg.s:22920  .debug_str:0000000000004d81 .LASF1647
C:\Users\SOLDER~1\AppData\Local\Temp\ccfBhFEg.s:26852  .debug_str:0000000000014db0 .LASF1648
C:\Users\SOLDER~1\AppData\Local\Temp\ccfBhFEg.s:22412  .debug_str:0000000000002cf5 .LASF1649
C:\Users\SOLDER~1\AppData\Local\Temp\ccfBhFEg.s:31372  .debug_str:00000000000270d3 .LASF1650
C:\Users\SOLDER~1\AppData\Local\Temp\ccfBhFEg.s:33378  .debug_str:000000000002f296 .LASF1651
C:\Users\SOLDER~1\AppData\Local\Temp\ccfBhFEg.s:22530  .debug_str:00000000000034c3 .LASF1652
C:\Users\SOLDER~1\AppData\Local\Temp\ccfBhFEg.s:30686  .debug_str:000000000002439d .LASF1653
C:\Users\SOLDER~1\AppData\Local\Temp\ccfBhFEg.s:32666  .debug_str:000000000002c4be .LASF1654
C:\Users\SOLDER~1\AppData\Local\Temp\ccfBhFEg.s:26454  .debug_str:0000000000013258 .LASF1655
C:\Users\SOLDER~1\AppData\Local\Temp\ccfBhFEg.s:23972  .debug_str:00000000000091f2 .LASF1656
C:\Users\SOLDER~1\AppData\Local\Temp\ccfBhFEg.s:26764  .debug_str:00000000000147af .LASF1657
C:\Users\SOLDER~1\AppData\Local\Temp\ccfBhFEg.s:31876  .debug_str:0000000000029199 .LASF1658
C:\Users\SOLDER~1\AppData\Local\Temp\ccfBhFEg.s:28668  .debug_str:000000000001c148 .LASF1659
C:\Users\SOLDER~1\AppData\Local\Temp\ccfBhFEg.s:27774  .debug_str:00000000000188c7 .LASF1660
C:\Users\SOLDER~1\AppData\Local\Temp\ccfBhFEg.s:22592  .debug_str:00000000000038ab .LASF1661
C:\Users\SOLDER~1\AppData\Local\Temp\ccfBhFEg.s:24248  .debug_str:000000000000a3b9 .LASF1662
C:\Users\SOLDER~1\AppData\Local\Temp\ccfBhFEg.s:29690  .debug_str:0000000000020405 .LASF1663
C:\Users\SOLDER~1\AppData\Local\Temp\ccfBhFEg.s:24074  .debug_str:000000000000986f .LASF1664
C:\Users\SOLDER~1\AppData\Local\Temp\ccfBhFEg.s:30276  .debug_str:00000000000228fc .LASF1665
C:\Users\SOLDER~1\AppData\Local\Temp\ccfBhFEg.s:25002  .debug_str:000000000000d4f9 .LASF1666
C:\Users\SOLDER~1\AppData\Local\Temp\ccfBhFEg.s:24960  .debug_str:000000000000d241 .LASF1667
C:\Users\SOLDER~1\AppData\Local\Temp\ccfBhFEg.s:25700  .debug_str:0000000000010261 .LASF1668
C:\Users\SOLDER~1\AppData\Local\Temp\ccfBhFEg.s:32754  .debug_str:000000000002cac2 .LASF1669
C:\Users\SOLDER~1\AppData\Local\Temp\ccfBhFEg.s:29302  .debug_str:000000000001ea89 .LASF1670
C:\Users\SOLDER~1\AppData\Local\Temp\ccfBhFEg.s:27584  .debug_str:0000000000017c7d .LASF1671
C:\Users\SOLDER~1\AppData\Local\Temp\ccfBhFEg.s:30224  .debug_str:00000000000225ff .LASF1672
C:\Users\SOLDER~1\AppData\Local\Temp\ccfBhFEg.s:24804  .debug_str:000000000000c7cd .LASF1673
C:\Users\SOLDER~1\AppData\Local\Temp\ccfBhFEg.s:32566  .debug_str:000000000002be32 .LASF1674
C:\Users\SOLDER~1\AppData\Local\Temp\ccfBhFEg.s:28344  .debug_str:000000000001ad10 .LASF1675
C:\Users\SOLDER~1\AppData\Local\Temp\ccfBhFEg.s:24418  .debug_str:000000000000aed6 .LASF1676
C:\Users\SOLDER~1\AppData\Local\Temp\ccfBhFEg.s:22334  .debug_str:0000000000002825 .LASF1677
C:\Users\SOLDER~1\AppData\Local\Temp\ccfBhFEg.s:23866  .debug_str:0000000000008ac4 .LASF1678
C:\Users\SOLDER~1\AppData\Local\Temp\ccfBhFEg.s:30752  .debug_str:00000000000247f2 .LASF1679
C:\Users\SOLDER~1\AppData\Local\Temp\ccfBhFEg.s:28770  .debug_str:000000000001c84a .LASF1680
C:\Users\SOLDER~1\AppData\Local\Temp\ccfBhFEg.s:32856  .debug_str:000000000002d118 .LASF1681
C:\Users\SOLDER~1\AppData\Local\Temp\ccfBhFEg.s:27648  .debug_str:000000000001808d .LASF1682
C:\Users\SOLDER~1\AppData\Local\Temp\ccfBhFEg.s:29588  .debug_str:000000000001fdad .LASF1683
GAS LISTING C:\Users\SOLDER~1\AppData\Local\Temp\ccfBhFEg.s 			page 103


C:\Users\SOLDER~1\AppData\Local\Temp\ccfBhFEg.s:22870  .debug_str:0000000000004a52 .LASF1684
C:\Users\SOLDER~1\AppData\Local\Temp\ccfBhFEg.s:26844  .debug_str:0000000000014d2a .LASF1685
C:\Users\SOLDER~1\AppData\Local\Temp\ccfBhFEg.s:28876  .debug_str:000000000001cf05 .LASF1686
C:\Users\SOLDER~1\AppData\Local\Temp\ccfBhFEg.s:22652  .debug_str:0000000000003c8c .LASF1687
C:\Users\SOLDER~1\AppData\Local\Temp\ccfBhFEg.s:31896  .debug_str:00000000000292d3 .LASF1688
C:\Users\SOLDER~1\AppData\Local\Temp\ccfBhFEg.s:32680  .debug_str:000000000002c5b4 .LASF1689
C:\Users\SOLDER~1\AppData\Local\Temp\ccfBhFEg.s:25098  .debug_str:000000000000db56 .LASF1690
C:\Users\SOLDER~1\AppData\Local\Temp\ccfBhFEg.s:24854  .debug_str:000000000000cb35 .LASF1691
C:\Users\SOLDER~1\AppData\Local\Temp\ccfBhFEg.s:23922  .debug_str:0000000000008e9f .LASF1692
C:\Users\SOLDER~1\AppData\Local\Temp\ccfBhFEg.s:25358  .debug_str:000000000000ec46 .LASF1693
C:\Users\SOLDER~1\AppData\Local\Temp\ccfBhFEg.s:32198  .debug_str:000000000002a669 .LASF1694
C:\Users\SOLDER~1\AppData\Local\Temp\ccfBhFEg.s:22300  .debug_str:00000000000025ed .LASF1695
C:\Users\SOLDER~1\AppData\Local\Temp\ccfBhFEg.s:28452  .debug_str:000000000001b410 .LASF1696
C:\Users\SOLDER~1\AppData\Local\Temp\ccfBhFEg.s:22524  .debug_str:0000000000003456 .LASF1697
C:\Users\SOLDER~1\AppData\Local\Temp\ccfBhFEg.s:29334  .debug_str:000000000001ecce .LASF1698
C:\Users\SOLDER~1\AppData\Local\Temp\ccfBhFEg.s:29206  .debug_str:000000000001e481 .LASF1699
C:\Users\SOLDER~1\AppData\Local\Temp\ccfBhFEg.s:29922  .debug_str:00000000000212d7 .LASF1700
C:\Users\SOLDER~1\AppData\Local\Temp\ccfBhFEg.s:25368  .debug_str:000000000000ecef .LASF1701
C:\Users\SOLDER~1\AppData\Local\Temp\ccfBhFEg.s:27610  .debug_str:0000000000017e01 .LASF1702
C:\Users\SOLDER~1\AppData\Local\Temp\ccfBhFEg.s:31856  .debug_str:0000000000029054 .LASF1703
C:\Users\SOLDER~1\AppData\Local\Temp\ccfBhFEg.s:22854  .debug_str:0000000000004967 .LASF1704
C:\Users\SOLDER~1\AppData\Local\Temp\ccfBhFEg.s:32742  .debug_str:000000000002ca00 .LASF1705
C:\Users\SOLDER~1\AppData\Local\Temp\ccfBhFEg.s:25490  .debug_str:000000000000f44c .LASF1706
C:\Users\SOLDER~1\AppData\Local\Temp\ccfBhFEg.s:24516  .debug_str:000000000000b520 .LASF1707
C:\Users\SOLDER~1\AppData\Local\Temp\ccfBhFEg.s:32348  .debug_str:000000000002b001 .LASF1708
C:\Users\SOLDER~1\AppData\Local\Temp\ccfBhFEg.s:30234  .debug_str:00000000000226a0 .LASF1709
C:\Users\SOLDER~1\AppData\Local\Temp\ccfBhFEg.s:31786  .debug_str:0000000000028bc3 .LASF1710
C:\Users\SOLDER~1\AppData\Local\Temp\ccfBhFEg.s:26990  .debug_str:00000000000156c4 .LASF1711
C:\Users\SOLDER~1\AppData\Local\Temp\ccfBhFEg.s:33272  .debug_str:000000000002ebb7 .LASF1712
C:\Users\SOLDER~1\AppData\Local\Temp\ccfBhFEg.s:26578  .debug_str:0000000000013ac1 .LASF1713
C:\Users\SOLDER~1\AppData\Local\Temp\ccfBhFEg.s:24444  .debug_str:000000000000b09f .LASF1714
C:\Users\SOLDER~1\AppData\Local\Temp\ccfBhFEg.s:25804  .debug_str:0000000000010913 .LASF1715
C:\Users\SOLDER~1\AppData\Local\Temp\ccfBhFEg.s:23540  .debug_str:00000000000075ba .LASF1716
C:\Users\SOLDER~1\AppData\Local\Temp\ccfBhFEg.s:22242  .debug_str:000000000000223b .LASF1717
C:\Users\SOLDER~1\AppData\Local\Temp\ccfBhFEg.s:25078  .debug_str:000000000000d9e2 .LASF1718
C:\Users\SOLDER~1\AppData\Local\Temp\ccfBhFEg.s:30552  .debug_str:0000000000023af5 .LASF1719
C:\Users\SOLDER~1\AppData\Local\Temp\ccfBhFEg.s:28152  .debug_str:000000000001a104 .LASF1720
C:\Users\SOLDER~1\AppData\Local\Temp\ccfBhFEg.s:28888  .debug_str:000000000001cfd8 .LASF1721
C:\Users\SOLDER~1\AppData\Local\Temp\ccfBhFEg.s:24272  .debug_str:000000000000a548 .LASF1722
C:\Users\SOLDER~1\AppData\Local\Temp\ccfBhFEg.s:32786  .debug_str:000000000002ccbb .LASF1723
C:\Users\SOLDER~1\AppData\Local\Temp\ccfBhFEg.s:31852  .debug_str:0000000000029009 .LASF1724
C:\Users\SOLDER~1\AppData\Local\Temp\ccfBhFEg.s:26744  .debug_str:000000000001466f .LASF1725
C:\Users\SOLDER~1\AppData\Local\Temp\ccfBhFEg.s:28430  .debug_str:000000000001b2ab .LASF1726
C:\Users\SOLDER~1\AppData\Local\Temp\ccfBhFEg.s:25058  .debug_str:000000000000d8b7 .LASF1727
C:\Users\SOLDER~1\AppData\Local\Temp\ccfBhFEg.s:31146  .debug_str:000000000002619a .LASF1728
C:\Users\SOLDER~1\AppData\Local\Temp\ccfBhFEg.s:25686  .debug_str:0000000000010186 .LASF1729
C:\Users\SOLDER~1\AppData\Local\Temp\ccfBhFEg.s:32088  .debug_str:0000000000029f05 .LASF1730
C:\Users\SOLDER~1\AppData\Local\Temp\ccfBhFEg.s:32044  .debug_str:0000000000029c70 .LASF1731
C:\Users\SOLDER~1\AppData\Local\Temp\ccfBhFEg.s:32774  .debug_str:000000000002cbf0 .LASF1732
C:\Users\SOLDER~1\AppData\Local\Temp\ccfBhFEg.s:28238  .debug_str:000000000001a654 .LASF1733
C:\Users\SOLDER~1\AppData\Local\Temp\ccfBhFEg.s:24668  .debug_str:000000000000bed3 .LASF1734
C:\Users\SOLDER~1\AppData\Local\Temp\ccfBhFEg.s:23102  .debug_str:00000000000058b3 .LASF1735
C:\Users\SOLDER~1\AppData\Local\Temp\ccfBhFEg.s:25632  .debug_str:000000000000fdb9 .LASF1736
C:\Users\SOLDER~1\AppData\Local\Temp\ccfBhFEg.s:27242  .debug_str:0000000000016683 .LASF1737
C:\Users\SOLDER~1\AppData\Local\Temp\ccfBhFEg.s:22604  .debug_str:000000000000396f .LASF1738
C:\Users\SOLDER~1\AppData\Local\Temp\ccfBhFEg.s:23152  .debug_str:0000000000005c15 .LASF1739
C:\Users\SOLDER~1\AppData\Local\Temp\ccfBhFEg.s:30986  .debug_str:0000000000025766 .LASF1740
GAS LISTING C:\Users\SOLDER~1\AppData\Local\Temp\ccfBhFEg.s 			page 104


C:\Users\SOLDER~1\AppData\Local\Temp\ccfBhFEg.s:28832  .debug_str:000000000001cc44 .LASF1741
C:\Users\SOLDER~1\AppData\Local\Temp\ccfBhFEg.s:32724  .debug_str:000000000002c8ec .LASF1742
C:\Users\SOLDER~1\AppData\Local\Temp\ccfBhFEg.s:25638  .debug_str:000000000000fe19 .LASF1743
C:\Users\SOLDER~1\AppData\Local\Temp\ccfBhFEg.s:23520  .debug_str:0000000000007477 .LASF1744
C:\Users\SOLDER~1\AppData\Local\Temp\ccfBhFEg.s:25210  .debug_str:000000000000e244 .LASF1745
C:\Users\SOLDER~1\AppData\Local\Temp\ccfBhFEg.s:30620  .debug_str:0000000000023f7a .LASF1746
C:\Users\SOLDER~1\AppData\Local\Temp\ccfBhFEg.s:24324  .debug_str:000000000000a8f6 .LASF1747
C:\Users\SOLDER~1\AppData\Local\Temp\ccfBhFEg.s:29374  .debug_str:000000000001ef7c .LASF1748
C:\Users\SOLDER~1\AppData\Local\Temp\ccfBhFEg.s:33420  .debug_str:000000000002f527 .LASF1749
C:\Users\SOLDER~1\AppData\Local\Temp\ccfBhFEg.s:23630  .debug_str:0000000000007b28 .LASF1750
C:\Users\SOLDER~1\AppData\Local\Temp\ccfBhFEg.s:29232  .debug_str:000000000001e608 .LASF1751
C:\Users\SOLDER~1\AppData\Local\Temp\ccfBhFEg.s:26690  .debug_str:00000000000142a6 .LASF1752
C:\Users\SOLDER~1\AppData\Local\Temp\ccfBhFEg.s:27480  .debug_str:000000000001753b .LASF1753
C:\Users\SOLDER~1\AppData\Local\Temp\ccfBhFEg.s:22840  .debug_str:0000000000004878 .LASF1754
C:\Users\SOLDER~1\AppData\Local\Temp\ccfBhFEg.s:31320  .debug_str:0000000000026d40 .LASF1755
C:\Users\SOLDER~1\AppData\Local\Temp\ccfBhFEg.s:30384  .debug_str:0000000000023034 .LASF1756
C:\Users\SOLDER~1\AppData\Local\Temp\ccfBhFEg.s:25382  .debug_str:000000000000edcf .LASF1757
C:\Users\SOLDER~1\AppData\Local\Temp\ccfBhFEg.s:27072  .debug_str:0000000000015bf3 .LASF1758
C:\Users\SOLDER~1\AppData\Local\Temp\ccfBhFEg.s:29404  .debug_str:000000000001f15d .LASF1759
C:\Users\SOLDER~1\AppData\Local\Temp\ccfBhFEg.s:23790  .debug_str:00000000000085ef .LASF1760
C:\Users\SOLDER~1\AppData\Local\Temp\ccfBhFEg.s:29996  .debug_str:00000000000217f1 .LASF1761
C:\Users\SOLDER~1\AppData\Local\Temp\ccfBhFEg.s:24692  .debug_str:000000000000c049 .LASF1762
C:\Users\SOLDER~1\AppData\Local\Temp\ccfBhFEg.s:22270  .debug_str:000000000000241c .LASF1763
C:\Users\SOLDER~1\AppData\Local\Temp\ccfBhFEg.s:25298  .debug_str:000000000000e868 .LASF1764
C:\Users\SOLDER~1\AppData\Local\Temp\ccfBhFEg.s:26172  .debug_str:000000000001206a .LASF1765
C:\Users\SOLDER~1\AppData\Local\Temp\ccfBhFEg.s:29014  .debug_str:000000000001d83f .LASF1766
C:\Users\SOLDER~1\AppData\Local\Temp\ccfBhFEg.s:27264  .debug_str:00000000000167e3 .LASF1767
C:\Users\SOLDER~1\AppData\Local\Temp\ccfBhFEg.s:29954  .debug_str:0000000000021505 .LASF1768
C:\Users\SOLDER~1\AppData\Local\Temp\ccfBhFEg.s:27548  .debug_str:0000000000017a14 .LASF1769
C:\Users\SOLDER~1\AppData\Local\Temp\ccfBhFEg.s:32062  .debug_str:0000000000029d7a .LASF1770
C:\Users\SOLDER~1\AppData\Local\Temp\ccfBhFEg.s:31084  .debug_str:0000000000025d7c .LASF1771
C:\Users\SOLDER~1\AppData\Local\Temp\ccfBhFEg.s:27238  .debug_str:0000000000016643 .LASF1772
C:\Users\SOLDER~1\AppData\Local\Temp\ccfBhFEg.s:25034  .debug_str:000000000000d716 .LASF1773
C:\Users\SOLDER~1\AppData\Local\Temp\ccfBhFEg.s:26572  .debug_str:0000000000013a53 .LASF1774
C:\Users\SOLDER~1\AppData\Local\Temp\ccfBhFEg.s:21846  .debug_str:000000000000083a .LASF1775
C:\Users\SOLDER~1\AppData\Local\Temp\ccfBhFEg.s:31436  .debug_str:00000000000274de .LASF1776
C:\Users\SOLDER~1\AppData\Local\Temp\ccfBhFEg.s:33138  .debug_str:000000000002e39b .LASF1777
C:\Users\SOLDER~1\AppData\Local\Temp\ccfBhFEg.s:30250  .debug_str:000000000002277f .LASF1778
C:\Users\SOLDER~1\AppData\Local\Temp\ccfBhFEg.s:29674  .debug_str:0000000000020304 .LASF1779
C:\Users\SOLDER~1\AppData\Local\Temp\ccfBhFEg.s:25586  .debug_str:000000000000fa6b .LASF1780
C:\Users\SOLDER~1\AppData\Local\Temp\ccfBhFEg.s:29614  .debug_str:000000000001ff4c .LASF1781
C:\Users\SOLDER~1\AppData\Local\Temp\ccfBhFEg.s:31546  .debug_str:0000000000027c41 .LASF1782
C:\Users\SOLDER~1\AppData\Local\Temp\ccfBhFEg.s:25436  .debug_str:000000000000f0fe .LASF1783
C:\Users\SOLDER~1\AppData\Local\Temp\ccfBhFEg.s:22858  .debug_str:00000000000049a6 .LASF1784
C:\Users\SOLDER~1\AppData\Local\Temp\ccfBhFEg.s:23638  .debug_str:0000000000007bb6 .LASF1785
C:\Users\SOLDER~1\AppData\Local\Temp\ccfBhFEg.s:30758  .debug_str:0000000000024859 .LASF1786
C:\Users\SOLDER~1\AppData\Local\Temp\ccfBhFEg.s:27606  .debug_str:0000000000017db7 .LASF1787
C:\Users\SOLDER~1\AppData\Local\Temp\ccfBhFEg.s:26648  .debug_str:0000000000013fe3 .LASF1788
C:\Users\SOLDER~1\AppData\Local\Temp\ccfBhFEg.s:33312  .debug_str:000000000002ee54 .LASF1789
C:\Users\SOLDER~1\AppData\Local\Temp\ccfBhFEg.s:23148  .debug_str:0000000000005bcc .LASF1790
C:\Users\SOLDER~1\AppData\Local\Temp\ccfBhFEg.s:22030  .debug_str:0000000000001480 .LASF1791
C:\Users\SOLDER~1\AppData\Local\Temp\ccfBhFEg.s:28174  .debug_str:000000000001a275 .LASF1792
C:\Users\SOLDER~1\AppData\Local\Temp\ccfBhFEg.s:22632  .debug_str:0000000000003b3d .LASF1793
C:\Users\SOLDER~1\AppData\Local\Temp\ccfBhFEg.s:28956  .debug_str:000000000001d458 .LASF1794
C:\Users\SOLDER~1\AppData\Local\Temp\ccfBhFEg.s:28918  .debug_str:000000000001d1cf .LASF1795
C:\Users\SOLDER~1\AppData\Local\Temp\ccfBhFEg.s:29638  .debug_str:00000000000200d2 .LASF1796
C:\Users\SOLDER~1\AppData\Local\Temp\ccfBhFEg.s:25920  .debug_str:0000000000011057 .LASF1797
GAS LISTING C:\Users\SOLDER~1\AppData\Local\Temp\ccfBhFEg.s 			page 105


C:\Users\SOLDER~1\AppData\Local\Temp\ccfBhFEg.s:33356  .debug_str:000000000002f162 .LASF1798
C:\Users\SOLDER~1\AppData\Local\Temp\ccfBhFEg.s:31558  .debug_str:0000000000027d10 .LASF1799
C:\Users\SOLDER~1\AppData\Local\Temp\ccfBhFEg.s:22576  .debug_str:00000000000037a2 .LASF1800
C:\Users\SOLDER~1\AppData\Local\Temp\ccfBhFEg.s:23698  .debug_str:0000000000007fd2 .LASF1801
C:\Users\SOLDER~1\AppData\Local\Temp\ccfBhFEg.s:29506  .debug_str:000000000001f826 .LASF1802
C:\Users\SOLDER~1\AppData\Local\Temp\ccfBhFEg.s:27342  .debug_str:0000000000016c88 .LASF1803
C:\Users\SOLDER~1\AppData\Local\Temp\ccfBhFEg.s:23298  .debug_str:00000000000065a6 .LASF1804
C:\Users\SOLDER~1\AppData\Local\Temp\ccfBhFEg.s:32952  .debug_str:000000000002d7b1 .LASF1805
C:\Users\SOLDER~1\AppData\Local\Temp\ccfBhFEg.s:22736  .debug_str:00000000000041dd .LASF1806
C:\Users\SOLDER~1\AppData\Local\Temp\ccfBhFEg.s:29756  .debug_str:0000000000020821 .LASF1807
C:\Users\SOLDER~1\AppData\Local\Temp\ccfBhFEg.s:27556  .debug_str:0000000000017a95 .LASF1808
C:\Users\SOLDER~1\AppData\Local\Temp\ccfBhFEg.s:29248  .debug_str:000000000001e726 .LASF1809
C:\Users\SOLDER~1\AppData\Local\Temp\ccfBhFEg.s:26504  .debug_str:00000000000135b6 .LASF1810
C:\Users\SOLDER~1\AppData\Local\Temp\ccfBhFEg.s:28490  .debug_str:000000000001b638 .LASF1811
C:\Users\SOLDER~1\AppData\Local\Temp\ccfBhFEg.s:21798  .debug_str:000000000000048c .LASF1812
C:\Users\SOLDER~1\AppData\Local\Temp\ccfBhFEg.s:25836  .debug_str:0000000000010af3 .LASF1813
C:\Users\SOLDER~1\AppData\Local\Temp\ccfBhFEg.s:27810  .debug_str:0000000000018b29 .LASF1814
C:\Users\SOLDER~1\AppData\Local\Temp\ccfBhFEg.s:33278  .debug_str:000000000002ec19 .LASF1815
C:\Users\SOLDER~1\AppData\Local\Temp\ccfBhFEg.s:29200  .debug_str:000000000001e414 .LASF1816
C:\Users\SOLDER~1\AppData\Local\Temp\ccfBhFEg.s:32018  .debug_str:0000000000029ac8 .LASF1817
C:\Users\SOLDER~1\AppData\Local\Temp\ccfBhFEg.s:27002  .debug_str:0000000000015775 .LASF1818
C:\Users\SOLDER~1\AppData\Local\Temp\ccfBhFEg.s:23750  .debug_str:000000000000836d .LASF1819
C:\Users\SOLDER~1\AppData\Local\Temp\ccfBhFEg.s:22810  .debug_str:000000000000467b .LASF1820
C:\Users\SOLDER~1\AppData\Local\Temp\ccfBhFEg.s:29418  .debug_str:000000000001f240 .LASF1821
C:\Users\SOLDER~1\AppData\Local\Temp\ccfBhFEg.s:31080  .debug_str:0000000000025d35 .LASF1822
C:\Users\SOLDER~1\AppData\Local\Temp\ccfBhFEg.s:26352  .debug_str:0000000000012b80 .LASF1823
C:\Users\SOLDER~1\AppData\Local\Temp\ccfBhFEg.s:32380  .debug_str:000000000002b230 .LASF1824
C:\Users\SOLDER~1\AppData\Local\Temp\ccfBhFEg.s:26898  .debug_str:00000000000150cc .LASF1825
C:\Users\SOLDER~1\AppData\Local\Temp\ccfBhFEg.s:33298  .debug_str:000000000002ed53 .LASF1826
C:\Users\SOLDER~1\AppData\Local\Temp\ccfBhFEg.s:31698  .debug_str:00000000000285f5 .LASF1827
C:\Users\SOLDER~1\AppData\Local\Temp\ccfBhFEg.s:22248  .debug_str:00000000000022a9 .LASF1828
C:\Users\SOLDER~1\AppData\Local\Temp\ccfBhFEg.s:29412  .debug_str:000000000001f1de .LASF1829
C:\Users\SOLDER~1\AppData\Local\Temp\ccfBhFEg.s:24136  .debug_str:0000000000009c79 .LASF1830
C:\Users\SOLDER~1\AppData\Local\Temp\ccfBhFEg.s:24086  .debug_str:0000000000009943 .LASF1831
C:\Users\SOLDER~1\AppData\Local\Temp\ccfBhFEg.s:26846  .debug_str:0000000000014d50 .LASF1832
C:\Users\SOLDER~1\AppData\Local\Temp\ccfBhFEg.s:31614  .debug_str:000000000002804c .LASF1833
C:\Users\SOLDER~1\AppData\Local\Temp\ccfBhFEg.s:24458  .debug_str:000000000000b185 .LASF1834
C:\Users\SOLDER~1\AppData\Local\Temp\ccfBhFEg.s:23396  .debug_str:0000000000006c31 .LASF1835
C:\Users\SOLDER~1\AppData\Local\Temp\ccfBhFEg.s:31222  .debug_str:00000000000266d6 .LASF1836
C:\Users\SOLDER~1\AppData\Local\Temp\ccfBhFEg.s:29162  .debug_str:000000000001e164 .LASF1837
C:\Users\SOLDER~1\AppData\Local\Temp\ccfBhFEg.s:30062  .debug_str:0000000000021c12 .LASF1838
C:\Users\SOLDER~1\AppData\Local\Temp\ccfBhFEg.s:25984  .debug_str:000000000001146d .LASF1839
C:\Users\SOLDER~1\AppData\Local\Temp\ccfBhFEg.s:24748  .debug_str:000000000000c3d8 .LASF1840
C:\Users\SOLDER~1\AppData\Local\Temp\ccfBhFEg.s:25456  .debug_str:000000000000f240 .LASF1841
C:\Users\SOLDER~1\AppData\Local\Temp\ccfBhFEg.s:22678  .debug_str:0000000000003e2b .LASF1842
C:\Users\SOLDER~1\AppData\Local\Temp\ccfBhFEg.s:24676  .debug_str:000000000000bf5f .LASF1843
C:\Users\SOLDER~1\AppData\Local\Temp\ccfBhFEg.s:29710  .debug_str:0000000000020546 .LASF1844
C:\Users\SOLDER~1\AppData\Local\Temp\ccfBhFEg.s:22036  .debug_str:00000000000014dd .LASF1845
C:\Users\SOLDER~1\AppData\Local\Temp\ccfBhFEg.s:23958  .debug_str:0000000000009118 .LASF1846
C:\Users\SOLDER~1\AppData\Local\Temp\ccfBhFEg.s:29484  .debug_str:000000000001f6a1 .LASF1847
C:\Users\SOLDER~1\AppData\Local\Temp\ccfBhFEg.s:27018  .debug_str:00000000000158a4 .LASF1848
C:\Users\SOLDER~1\AppData\Local\Temp\ccfBhFEg.s:27822  .debug_str:0000000000018bcb .LASF1849
C:\Users\SOLDER~1\AppData\Local\Temp\ccfBhFEg.s:23174  .debug_str:0000000000005d64 .LASF1850
C:\Users\SOLDER~1\AppData\Local\Temp\ccfBhFEg.s:31658  .debug_str:000000000002836d .LASF1851
C:\Users\SOLDER~1\AppData\Local\Temp\ccfBhFEg.s:30734  .debug_str:00000000000246aa .LASF1852
C:\Users\SOLDER~1\AppData\Local\Temp\ccfBhFEg.s:31950  .debug_str:000000000002961c .LASF1853
C:\Users\SOLDER~1\AppData\Local\Temp\ccfBhFEg.s:27336  .debug_str:0000000000016c28 .LASF1854
GAS LISTING C:\Users\SOLDER~1\AppData\Local\Temp\ccfBhFEg.s 			page 106


C:\Users\SOLDER~1\AppData\Local\Temp\ccfBhFEg.s:30572  .debug_str:0000000000023c5b .LASF1855
C:\Users\SOLDER~1\AppData\Local\Temp\ccfBhFEg.s:28200  .debug_str:000000000001a3f2 .LASF1856
C:\Users\SOLDER~1\AppData\Local\Temp\ccfBhFEg.s:31194  .debug_str:0000000000026508 .LASF1857
C:\Users\SOLDER~1\AppData\Local\Temp\ccfBhFEg.s:25936  .debug_str:0000000000011171 .LASF1858
C:\Users\SOLDER~1\AppData\Local\Temp\ccfBhFEg.s:25904  .debug_str:0000000000010f60 .LASF1859
C:\Users\SOLDER~1\AppData\Local\Temp\ccfBhFEg.s:26622  .debug_str:0000000000013dfd .LASF1860
C:\Users\SOLDER~1\AppData\Local\Temp\ccfBhFEg.s:24440  .debug_str:000000000000b056 .LASF1861
C:\Users\SOLDER~1\AppData\Local\Temp\ccfBhFEg.s:30190  .debug_str:00000000000223ec .LASF1862
C:\Users\SOLDER~1\AppData\Local\Temp\ccfBhFEg.s:28466  .debug_str:000000000001b4f7 .LASF1863
C:\Users\SOLDER~1\AppData\Local\Temp\ccfBhFEg.s:31140  .debug_str:000000000002614e .LASF1864
C:\Users\SOLDER~1\AppData\Local\Temp\ccfBhFEg.s:27884  .debug_str:0000000000018fd9 .LASF1865
C:\Users\SOLDER~1\AppData\Local\Temp\ccfBhFEg.s:32388  .debug_str:000000000002b2b7 .LASF1866
C:\Users\SOLDER~1\AppData\Local\Temp\ccfBhFEg.s:31326  .debug_str:0000000000026db3 .LASF1867
C:\Users\SOLDER~1\AppData\Local\Temp\ccfBhFEg.s:27492  .debug_str:000000000001760b .LASF1868
C:\Users\SOLDER~1\AppData\Local\Temp\ccfBhFEg.s:25370  .debug_str:000000000000ed14 .LASF1869
C:\Users\SOLDER~1\AppData\Local\Temp\ccfBhFEg.s:26902  .debug_str:0000000000015115 .LASF1870
C:\Users\SOLDER~1\AppData\Local\Temp\ccfBhFEg.s:22084  .debug_str:00000000000017ff .LASF1871
C:\Users\SOLDER~1\AppData\Local\Temp\ccfBhFEg.s:31784  .debug_str:0000000000028b9e .LASF1872
C:\Users\SOLDER~1\AppData\Local\Temp\ccfBhFEg.s:30738  .debug_str:00000000000246fc .LASF1873
C:\Users\SOLDER~1\AppData\Local\Temp\ccfBhFEg.s:30586  .debug_str:0000000000023d51 .LASF1874
C:\Users\SOLDER~1\AppData\Local\Temp\ccfBhFEg.s:32608  .debug_str:000000000002c0f6 .LASF1875
C:\Users\SOLDER~1\AppData\Local\Temp\ccfBhFEg.s:30120  .debug_str:0000000000021f8d .LASF1876
C:\Users\SOLDER~1\AppData\Local\Temp\ccfBhFEg.s:28856  .debug_str:000000000001cdb5 .LASF1877
C:\Users\SOLDER~1\AppData\Local\Temp\ccfBhFEg.s:31882  .debug_str:00000000000291fa .LASF1878
C:\Users\SOLDER~1\AppData\Local\Temp\ccfBhFEg.s:30542  .debug_str:0000000000023a4e .LASF1879
C:\Users\SOLDER~1\AppData\Local\Temp\ccfBhFEg.s:23192  .debug_str:0000000000005e7b .LASF1880
C:\Users\SOLDER~1\AppData\Local\Temp\ccfBhFEg.s:23968  .debug_str:00000000000091ab .LASF1881
C:\Users\SOLDER~1\AppData\Local\Temp\ccfBhFEg.s:31096  .debug_str:0000000000025e57 .LASF1882
C:\Users\SOLDER~1\AppData\Local\Temp\ccfBhFEg.s:27932  .debug_str:0000000000019300 .LASF1883
C:\Users\SOLDER~1\AppData\Local\Temp\ccfBhFEg.s:21996  .debug_str:0000000000001255 .LASF1884
C:\Users\SOLDER~1\AppData\Local\Temp\ccfBhFEg.s:21842  .debug_str:00000000000007ef .LASF1885
C:\Users\SOLDER~1\AppData\Local\Temp\ccfBhFEg.s:23494  .debug_str:00000000000072bf .LASF1886
C:\Users\SOLDER~1\AppData\Local\Temp\ccfBhFEg.s:23204  .debug_str:0000000000005f3f .LASF1887
C:\Users\SOLDER~1\AppData\Local\Temp\ccfBhFEg.s:29342  .debug_str:000000000001ed5d .LASF1888
C:\Users\SOLDER~1\AppData\Local\Temp\ccfBhFEg.s:23842  .debug_str:000000000000893b .LASF1889
C:\Users\SOLDER~1\AppData\Local\Temp\ccfBhFEg.s:30218  .debug_str:00000000000225a0 .LASF1890
C:\Users\SOLDER~1\AppData\Local\Temp\ccfBhFEg.s:30184  .debug_str:000000000002237b .LASF1891
C:\Users\SOLDER~1\AppData\Local\Temp\ccfBhFEg.s:30818  .debug_str:0000000000024c62 .LASF1892
C:\Users\SOLDER~1\AppData\Local\Temp\ccfBhFEg.s:26282  .debug_str:0000000000012722 .LASF1893
C:\Users\SOLDER~1\AppData\Local\Temp\ccfBhFEg.s:22820  .debug_str:0000000000004727 .LASF1894
C:\Users\SOLDER~1\AppData\Local\Temp\ccfBhFEg.s:32784  .debug_str:000000000002cc97 .LASF1895
C:\Users\SOLDER~1\AppData\Local\Temp\ccfBhFEg.s:23782  .debug_str:000000000000857c .LASF1896
C:\Users\SOLDER~1\AppData\Local\Temp\ccfBhFEg.s:24024  .debug_str:000000000000954e .LASF1897
C:\Users\SOLDER~1\AppData\Local\Temp\ccfBhFEg.s:28526  .debug_str:000000000001b890 .LASF1898
C:\Users\SOLDER~1\AppData\Local\Temp\ccfBhFEg.s:27608  .debug_str:0000000000017ddc .LASF1899
C:\Users\SOLDER~1\AppData\Local\Temp\ccfBhFEg.s:23650  .debug_str:0000000000007c8c .LASF1900
C:\Users\SOLDER~1\AppData\Local\Temp\ccfBhFEg.s:33300  .debug_str:000000000002ed77 .LASF1901
C:\Users\SOLDER~1\AppData\Local\Temp\ccfBhFEg.s:23074  .debug_str:00000000000056bb .LASF1902
C:\Users\SOLDER~1\AppData\Local\Temp\ccfBhFEg.s:32888  .debug_str:000000000002d31a .LASF1903
C:\Users\SOLDER~1\AppData\Local\Temp\ccfBhFEg.s:28036  .debug_str:00000000000199ea .LASF1904
C:\Users\SOLDER~1\AppData\Local\Temp\ccfBhFEg.s:29594  .debug_str:000000000001fe1a .LASF1905
C:\Users\SOLDER~1\AppData\Local\Temp\ccfBhFEg.s:26840  .debug_str:0000000000014cce .LASF1906
C:\Users\SOLDER~1\AppData\Local\Temp\ccfBhFEg.s:28810  .debug_str:000000000001cab7 .LASF1907
C:\Users\SOLDER~1\AppData\Local\Temp\ccfBhFEg.s:22118  .debug_str:0000000000001a19 .LASF1908
C:\Users\SOLDER~1\AppData\Local\Temp\ccfBhFEg.s:31874  .debug_str:0000000000029174 .LASF1909
C:\Users\SOLDER~1\AppData\Local\Temp\ccfBhFEg.s:28140  .debug_str:000000000001a039 .LASF1910
C:\Users\SOLDER~1\AppData\Local\Temp\ccfBhFEg.s:21894  .debug_str:0000000000000bc4 .LASF1911
GAS LISTING C:\Users\SOLDER~1\AppData\Local\Temp\ccfBhFEg.s 			page 107


C:\Users\SOLDER~1\AppData\Local\Temp\ccfBhFEg.s:31114  .debug_str:0000000000025f89 .LASF1912
C:\Users\SOLDER~1\AppData\Local\Temp\ccfBhFEg.s:31894  .debug_str:00000000000292ae .LASF1913
C:\Users\SOLDER~1\AppData\Local\Temp\ccfBhFEg.s:27360  .debug_str:0000000000016dc2 .LASF1914
C:\Users\SOLDER~1\AppData\Local\Temp\ccfBhFEg.s:32658  .debug_str:000000000002c442 .LASF1915
C:\Users\SOLDER~1\AppData\Local\Temp\ccfBhFEg.s:23142  .debug_str:0000000000005b67 .LASF1916
C:\Users\SOLDER~1\AppData\Local\Temp\ccfBhFEg.s:29752  .debug_str:00000000000207e9 .LASF1917
C:\Users\SOLDER~1\AppData\Local\Temp\ccfBhFEg.s:28314  .debug_str:000000000001ab22 .LASF1918
C:\Users\SOLDER~1\AppData\Local\Temp\ccfBhFEg.s:27618  .debug_str:0000000000017ea8 .LASF1919
C:\Users\SOLDER~1\AppData\Local\Temp\ccfBhFEg.s:21984  .debug_str:0000000000001192 .LASF1920
C:\Users\SOLDER~1\AppData\Local\Temp\ccfBhFEg.s:28220  .debug_str:000000000001a51b .LASF1921
C:\Users\SOLDER~1\AppData\Local\Temp\ccfBhFEg.s:22754  .debug_str:000000000000430a .LASF1922
C:\Users\SOLDER~1\AppData\Local\Temp\ccfBhFEg.s:22720  .debug_str:00000000000040cc .LASF1923
C:\Users\SOLDER~1\AppData\Local\Temp\ccfBhFEg.s:30554  .debug_str:0000000000023b1b .LASF1924
C:\Users\SOLDER~1\AppData\Local\Temp\ccfBhFEg.s:30584  .debug_str:0000000000023d2d .LASF1925
C:\Users\SOLDER~1\AppData\Local\Temp\ccfBhFEg.s:27204  .debug_str:0000000000016427 .LASF1926
C:\Users\SOLDER~1\AppData\Local\Temp\ccfBhFEg.s:25406  .debug_str:000000000000ef15 .LASF1927
C:\Users\SOLDER~1\AppData\Local\Temp\ccfBhFEg.s:28166  .debug_str:000000000001a1ed .LASF1928
C:\Users\SOLDER~1\AppData\Local\Temp\ccfBhFEg.s:31862  .debug_str:00000000000290ba .LASF1929
C:\Users\SOLDER~1\AppData\Local\Temp\ccfBhFEg.s:24702  .debug_str:000000000000c0d6 .LASF1930
C:\Users\SOLDER~1\AppData\Local\Temp\ccfBhFEg.s:23754  .debug_str:00000000000083ad .LASF1931
C:\Users\SOLDER~1\AppData\Local\Temp\ccfBhFEg.s:31570  .debug_str:0000000000027dae .LASF1932
C:\Users\SOLDER~1\AppData\Local\Temp\ccfBhFEg.s:25172  .debug_str:000000000000dfd9 .LASF1933
C:\Users\SOLDER~1\AppData\Local\Temp\ccfBhFEg.s:31002  .debug_str:0000000000025838 .LASF1934
C:\Users\SOLDER~1\AppData\Local\Temp\ccfBhFEg.s:21726  .debug_str:0000000000000023 .LASF1935
C:\Users\SOLDER~1\AppData\Local\Temp\ccfBhFEg.s:24176  .debug_str:0000000000009ef8 .LASF1936
C:\Users\SOLDER~1\AppData\Local\Temp\ccfBhFEg.s:25810  .debug_str:000000000001096b .LASF1937
C:\Users\SOLDER~1\AppData\Local\Temp\ccfBhFEg.s:23004  .debug_str:0000000000005284 .LASF1938
C:\Users\SOLDER~1\AppData\Local\Temp\ccfBhFEg.s:25016  .debug_str:000000000000d5e2 .LASF1939
C:\Users\SOLDER~1\AppData\Local\Temp\ccfBhFEg.s:29942  .debug_str:0000000000021432 .LASF1940
C:\Users\SOLDER~1\AppData\Local\Temp\ccfBhFEg.s:22254  .debug_str:0000000000002307 .LASF1941
C:\Users\SOLDER~1\AppData\Local\Temp\ccfBhFEg.s:24282  .debug_str:000000000000a5eb .LASF1942
C:\Users\SOLDER~1\AppData\Local\Temp\ccfBhFEg.s:29798  .debug_str:0000000000020ae0 .LASF1943
C:\Users\SOLDER~1\AppData\Local\Temp\ccfBhFEg.s:31848  .debug_str:0000000000028fc8 .LASF1944
C:\Users\SOLDER~1\AppData\Local\Temp\ccfBhFEg.s:28060  .debug_str:0000000000019b87 .LASF1945
C:\Users\SOLDER~1\AppData\Local\Temp\ccfBhFEg.s:23522  .debug_str:000000000000749c .LASF1946
C:\Users\SOLDER~1\AppData\Local\Temp\ccfBhFEg.s:32012  .debug_str:0000000000029a59 .LASF1947
C:\Users\SOLDER~1\AppData\Local\Temp\ccfBhFEg.s:30980  .debug_str:0000000000025715 .LASF1948
C:\Users\SOLDER~1\AppData\Local\Temp\ccfBhFEg.s:25980  .debug_str:0000000000011424 .LASF1949
C:\Users\SOLDER~1\AppData\Local\Temp\ccfBhFEg.s:27688  .debug_str:0000000000018333 .LASF1950
C:\Users\SOLDER~1\AppData\Local\Temp\ccfBhFEg.s:25206  .debug_str:000000000000e1ff .LASF1951
C:\Users\SOLDER~1\AppData\Local\Temp\ccfBhFEg.s:26218  .debug_str:0000000000012337 .LASF1952
C:\Users\SOLDER~1\AppData\Local\Temp\ccfBhFEg.s:32428  .debug_str:000000000002b50f .LASF1953
C:\Users\SOLDER~1\AppData\Local\Temp\ccfBhFEg.s:27144  .debug_str:0000000000016038 .LASF1954
C:\Users\SOLDER~1\AppData\Local\Temp\ccfBhFEg.s:27100  .debug_str:0000000000015d94 .LASF1955
C:\Users\SOLDER~1\AppData\Local\Temp\ccfBhFEg.s:27858  .debug_str:0000000000018e0d .LASF1956
C:\Users\SOLDER~1\AppData\Local\Temp\ccfBhFEg.s:23220  .debug_str:0000000000006057 .LASF1957
C:\Users\SOLDER~1\AppData\Local\Temp\ccfBhFEg.s:31498  .debug_str:0000000000027904 .LASF1958
C:\Users\SOLDER~1\AppData\Local\Temp\ccfBhFEg.s:29646  .debug_str:0000000000020156 .LASF1959
C:\Users\SOLDER~1\AppData\Local\Temp\ccfBhFEg.s:32370  .debug_str:000000000002b190 .LASF1960
C:\Users\SOLDER~1\AppData\Local\Temp\ccfBhFEg.s:28112  .debug_str:0000000000019ecf .LASF1961
C:\Users\SOLDER~1\AppData\Local\Temp\ccfBhFEg.s:32644  .debug_str:000000000002c351 .LASF1962
C:\Users\SOLDER~1\AppData\Local\Temp\ccfBhFEg.s:31660  .debug_str:0000000000028392 .LASF1963
C:\Users\SOLDER~1\AppData\Local\Temp\ccfBhFEg.s:27840  .debug_str:0000000000018ce6 .LASF1964
C:\Users\SOLDER~1\AppData\Local\Temp\ccfBhFEg.s:28240  .debug_str:000000000001a678 .LASF1965
C:\Users\SOLDER~1\AppData\Local\Temp\ccfBhFEg.s:30468  .debug_str:0000000000023589 .LASF1966
C:\Users\SOLDER~1\AppData\Local\Temp\ccfBhFEg.s:22402  .debug_str:0000000000002c37 .LASF1967
C:\Users\SOLDER~1\AppData\Local\Temp\ccfBhFEg.s:32128  .debug_str:000000000002a19a .LASF1968
GAS LISTING C:\Users\SOLDER~1\AppData\Local\Temp\ccfBhFEg.s 			page 108


C:\Users\SOLDER~1\AppData\Local\Temp\ccfBhFEg.s:28168  .debug_str:000000000001a211 .LASF1969
C:\Users\SOLDER~1\AppData\Local\Temp\ccfBhFEg.s:30934  .debug_str:000000000002540f .LASF1970
C:\Users\SOLDER~1\AppData\Local\Temp\ccfBhFEg.s:32930  .debug_str:000000000002d5fb .LASF1971
C:\Users\SOLDER~1\AppData\Local\Temp\ccfBhFEg.s:26160  .debug_str:0000000000011f94 .LASF1972
C:\Users\SOLDER~1\AppData\Local\Temp\ccfBhFEg.s:30162  .debug_str:0000000000022216 .LASF1973
C:\Users\SOLDER~1\AppData\Local\Temp\ccfBhFEg.s:32220  .debug_str:000000000002a7f9 .LASF1974
C:\Users\SOLDER~1\AppData\Local\Temp\ccfBhFEg.s:26034  .debug_str:0000000000011769 .LASF1975
C:\Users\SOLDER~1\AppData\Local\Temp\ccfBhFEg.s:23544  .debug_str:00000000000075fa .LASF1976
C:\Users\SOLDER~1\AppData\Local\Temp\ccfBhFEg.s:24202  .debug_str:000000000000a0cc .LASF1977
C:\Users\SOLDER~1\AppData\Local\Temp\ccfBhFEg.s:21890  .debug_str:0000000000000b7c .LASF1978
C:\Users\SOLDER~1\AppData\Local\Temp\ccfBhFEg.s:28164  .debug_str:000000000001a1c8 .LASF1979
C:\Users\SOLDER~1\AppData\Local\Temp\ccfBhFEg.s:27232  .debug_str:00000000000165e0 .LASF1980
C:\Users\SOLDER~1\AppData\Local\Temp\ccfBhFEg.s:22166  .debug_str:0000000000001d70 .LASF1981
C:\Users\SOLDER~1\AppData\Local\Temp\ccfBhFEg.s:23844  .debug_str:000000000000895f .LASF1982
C:\Users\SOLDER~1\AppData\Local\Temp\ccfBhFEg.s:24420  .debug_str:000000000000aefc .LASF1983
C:\Users\SOLDER~1\AppData\Local\Temp\ccfBhFEg.s:30528  .debug_str:000000000002394e .LASF1984
C:\Users\SOLDER~1\AppData\Local\Temp\ccfBhFEg.s:26148  .debug_str:0000000000011ec0 .LASF1985
C:\Users\SOLDER~1\AppData\Local\Temp\ccfBhFEg.s:31440  .debug_str:0000000000027529 .LASF1986
C:\Users\SOLDER~1\AppData\Local\Temp\ccfBhFEg.s:31396  .debug_str:0000000000027255 .LASF1987
C:\Users\SOLDER~1\AppData\Local\Temp\ccfBhFEg.s:32154  .debug_str:000000000002a385 .LASF1988
C:\Users\SOLDER~1\AppData\Local\Temp\ccfBhFEg.s:27532  .debug_str:00000000000178d6 .LASF1989
C:\Users\SOLDER~1\AppData\Local\Temp\ccfBhFEg.s:24758  .debug_str:000000000000c49b .LASF1990
C:\Users\SOLDER~1\AppData\Local\Temp\ccfBhFEg.s:22260  .debug_str:0000000000002369 .LASF1991
C:\Users\SOLDER~1\AppData\Local\Temp\ccfBhFEg.s:25004  .debug_str:000000000000d51e .LASF1992
C:\Users\SOLDER~1\AppData\Local\Temp\ccfBhFEg.s:30136  .debug_str:000000000002209d .LASF1993
C:\Users\SOLDER~1\AppData\Local\Temp\ccfBhFEg.s:22496  .debug_str:000000000000327e .LASF1994
C:\Users\SOLDER~1\AppData\Local\Temp\ccfBhFEg.s:27938  .debug_str:000000000001936f .LASF1995
C:\Users\SOLDER~1\AppData\Local\Temp\ccfBhFEg.s:23982  .debug_str:000000000000927a .LASF1996
C:\Users\SOLDER~1\AppData\Local\Temp\ccfBhFEg.s:21924  .debug_str:0000000000000def .LASF1997
C:\Users\SOLDER~1\AppData\Local\Temp\ccfBhFEg.s:23320  .debug_str:000000000000673c .LASF1998
C:\Users\SOLDER~1\AppData\Local\Temp\ccfBhFEg.s:30306  .debug_str:0000000000022aec .LASF1999
C:\Users\SOLDER~1\AppData\Local\Temp\ccfBhFEg.s:28358  .debug_str:000000000001ae06 .LASF2000
C:\Users\SOLDER~1\AppData\Local\Temp\ccfBhFEg.s:29902  .debug_str:0000000000021191 .LASF2001
C:\Users\SOLDER~1\AppData\Local\Temp\ccfBhFEg.s:27092  .debug_str:0000000000015d07 .LASF2002
C:\Users\SOLDER~1\AppData\Local\Temp\ccfBhFEg.s:29048  .debug_str:000000000001da91 .LASF2003
C:\Users\SOLDER~1\AppData\Local\Temp\ccfBhFEg.s:22352  .debug_str:0000000000002986 .LASF2004
C:\Users\SOLDER~1\AppData\Local\Temp\ccfBhFEg.s:26396  .debug_str:0000000000012e60 .LASF2005
C:\Users\SOLDER~1\AppData\Local\Temp\ccfBhFEg.s:21960  .debug_str:000000000000100b .LASF2006
C:\Users\SOLDER~1\AppData\Local\Temp\ccfBhFEg.s:22206  .debug_str:0000000000002008 .LASF2007
C:\Users\SOLDER~1\AppData\Local\Temp\ccfBhFEg.s:31464  .debug_str:00000000000276af .LASF2008
C:\Users\SOLDER~1\AppData\Local\Temp\ccfBhFEg.s:32160  .debug_str:000000000002a3f0 .LASF2009
C:\Users\SOLDER~1\AppData\Local\Temp\ccfBhFEg.s:24918  .debug_str:000000000000cf7e .LASF2010
C:\Users\SOLDER~1\AppData\Local\Temp\ccfBhFEg.s:24314  .debug_str:000000000000a83d .LASF2011
C:\Users\SOLDER~1\AppData\Local\Temp\ccfBhFEg.s:23388  .debug_str:0000000000006bb7 .LASF2012
C:\Users\SOLDER~1\AppData\Local\Temp\ccfBhFEg.s:23664  .debug_str:0000000000007d73 .LASF2013
C:\Users\SOLDER~1\AppData\Local\Temp\ccfBhFEg.s:31762  .debug_str:0000000000028a39 .LASF2014
C:\Users\SOLDER~1\AppData\Local\Temp\ccfBhFEg.s:28776  .debug_str:000000000001c890 .LASF2015
C:\Users\SOLDER~1\AppData\Local\Temp\ccfBhFEg.s:23150  .debug_str:0000000000005bf1 .LASF2016
C:\Users\SOLDER~1\AppData\Local\Temp\ccfBhFEg.s:29394  .debug_str:000000000001f0c3 .LASF2017
C:\Users\SOLDER~1\AppData\Local\Temp\ccfBhFEg.s:24062  .debug_str:00000000000097af .LASF2018
C:\Users\SOLDER~1\AppData\Local\Temp\ccfBhFEg.s:23934  .debug_str:0000000000008f84 .LASF2019
C:\Users\SOLDER~1\AppData\Local\Temp\ccfBhFEg.s:24674  .debug_str:000000000000bf3b .LASF2020
C:\Users\SOLDER~1\AppData\Local\Temp\ccfBhFEg.s:31822  .debug_str:0000000000028e13 .LASF2021
C:\Users\SOLDER~1\AppData\Local\Temp\ccfBhFEg.s:28406  .debug_str:000000000001b0d5 .LASF2022
C:\Users\SOLDER~1\AppData\Local\Temp\ccfBhFEg.s:26634  .debug_str:0000000000013ee0 .LASF2023
C:\Users\SOLDER~1\AppData\Local\Temp\ccfBhFEg.s:32800  .debug_str:000000000002cd98 .LASF2024
C:\Users\SOLDER~1\AppData\Local\Temp\ccfBhFEg.s:33206  .debug_str:000000000002e7ab .LASF2025
GAS LISTING C:\Users\SOLDER~1\AppData\Local\Temp\ccfBhFEg.s 			page 109


C:\Users\SOLDER~1\AppData\Local\Temp\ccfBhFEg.s:25534  .debug_str:000000000000f704 .LASF2026
C:\Users\SOLDER~1\AppData\Local\Temp\ccfBhFEg.s:24076  .debug_str:0000000000009894 .LASF2027
C:\Users\SOLDER~1\AppData\Local\Temp\ccfBhFEg.s:31910  .debug_str:00000000000293b3 .LASF2028
C:\Users\SOLDER~1\AppData\Local\Temp\ccfBhFEg.s:29820  .debug_str:0000000000020c44 .LASF2029
C:\Users\SOLDER~1\AppData\Local\Temp\ccfBhFEg.s:31236  .debug_str:00000000000267c9 .LASF2030
C:\Users\SOLDER~1\AppData\Local\Temp\ccfBhFEg.s:26562  .debug_str:00000000000139b1 .LASF2031
C:\Users\SOLDER~1\AppData\Local\Temp\ccfBhFEg.s:24432  .debug_str:000000000000afdd .LASF2032
C:\Users\SOLDER~1\AppData\Local\Temp\ccfBhFEg.s:26136  .debug_str:0000000000011df1 .LASF2033
C:\Users\SOLDER~1\AppData\Local\Temp\ccfBhFEg.s:23252  .debug_str:00000000000062a2 .LASF2034
C:\Users\SOLDER~1\AppData\Local\Temp\ccfBhFEg.s:25260  .debug_str:000000000000e5ee .LASF2035
C:\Users\SOLDER~1\AppData\Local\Temp\ccfBhFEg.s:32840  .debug_str:000000000002d008 .LASF2036
C:\Users\SOLDER~1\AppData\Local\Temp\ccfBhFEg.s:32290  .debug_str:000000000002ac85 .LASF2037
C:\Users\SOLDER~1\AppData\Local\Temp\ccfBhFEg.s:24042  .debug_str:000000000000968d .LASF2038
C:\Users\SOLDER~1\AppData\Local\Temp\ccfBhFEg.s:30118  .debug_str:0000000000021f68 .LASF2039
C:\Users\SOLDER~1\AppData\Local\Temp\ccfBhFEg.s:27644  .debug_str:0000000000018039 .LASF2040
C:\Users\SOLDER~1\AppData\Local\Temp\ccfBhFEg.s:28384  .debug_str:000000000001af66 .LASF2041
C:\Users\SOLDER~1\AppData\Local\Temp\ccfBhFEg.s:27038  .debug_str:00000000000159f6 .LASF2042
C:\Users\SOLDER~1\AppData\Local\Temp\ccfBhFEg.s:32248  .debug_str:000000000002a9e0 .LASF2043
C:\Users\SOLDER~1\AppData\Local\Temp\ccfBhFEg.s:31316  .debug_str:0000000000026cea .LASF2044
C:\Users\SOLDER~1\AppData\Local\Temp\ccfBhFEg.s:26720  .debug_str:000000000001448f .LASF2045
C:\Users\SOLDER~1\AppData\Local\Temp\ccfBhFEg.s:28014  .debug_str:0000000000019860 .LASF2046
C:\Users\SOLDER~1\AppData\Local\Temp\ccfBhFEg.s:24012  .debug_str:0000000000009488 .LASF2047
C:\Users\SOLDER~1\AppData\Local\Temp\ccfBhFEg.s:30124  .debug_str:0000000000021fd4 .LASF2048
C:\Users\SOLDER~1\AppData\Local\Temp\ccfBhFEg.s:24642  .debug_str:000000000000bd05 .LASF2049
C:\Users\SOLDER~1\AppData\Local\Temp\ccfBhFEg.s:31036  .debug_str:0000000000025a79 .LASF2050
C:\Users\SOLDER~1\AppData\Local\Temp\ccfBhFEg.s:29688  .debug_str:00000000000203e0 .LASF2051
C:\Users\SOLDER~1\AppData\Local\Temp\ccfBhFEg.s:31644  .debug_str:000000000002825f .LASF2052
C:\Users\SOLDER~1\AppData\Local\Temp\ccfBhFEg.s:27108  .debug_str:0000000000015e11 .LASF2053
C:\Users\SOLDER~1\AppData\Local\Temp\ccfBhFEg.s:32926  .debug_str:000000000002d5b4 .LASF2054
C:\Users\SOLDER~1\AppData\Local\Temp\ccfBhFEg.s:21876  .debug_str:0000000000000a76 .LASF2055
C:\Users\SOLDER~1\AppData\Local\Temp\ccfBhFEg.s:24586  .debug_str:000000000000b9a6 .LASF2056
C:\Users\SOLDER~1\AppData\Local\Temp\ccfBhFEg.s:31020  .debug_str:000000000002597e .LASF2057
C:\Users\SOLDER~1\AppData\Local\Temp\ccfBhFEg.s:32090  .debug_str:0000000000029f29 .LASF2058
C:\Users\SOLDER~1\AppData\Local\Temp\ccfBhFEg.s:22904  .debug_str:0000000000004c6f .LASF2059
C:\Users\SOLDER~1\AppData\Local\Temp\ccfBhFEg.s:30732  .debug_str:0000000000024684 .LASF2060
C:\Users\SOLDER~1\AppData\Local\Temp\ccfBhFEg.s:33046  .debug_str:000000000002dda4 .LASF2061
C:\Users\SOLDER~1\AppData\Local\Temp\ccfBhFEg.s:30070  .debug_str:0000000000021c89 .LASF2062
C:\Users\SOLDER~1\AppData\Local\Temp\ccfBhFEg.s:25380  .debug_str:000000000000eda9 .LASF2063
C:\Users\SOLDER~1\AppData\Local\Temp\ccfBhFEg.s:32760  .debug_str:000000000002cb23 .LASF2064
C:\Users\SOLDER~1\AppData\Local\Temp\ccfBhFEg.s:24958  .debug_str:000000000000d21b .LASF2065
C:\Users\SOLDER~1\AppData\Local\Temp\ccfBhFEg.s:22110  .debug_str:0000000000001970 .LASF2066
C:\Users\SOLDER~1\AppData\Local\Temp\ccfBhFEg.s:24072  .debug_str:0000000000009849 .LASF2067
C:\Users\SOLDER~1\AppData\Local\Temp\ccfBhFEg.s:23372  .debug_str:0000000000006abd .LASF2068
C:\Users\SOLDER~1\AppData\Local\Temp\ccfBhFEg.s:33162  .debug_str:000000000002e52b .LASF2069
C:\Users\SOLDER~1\AppData\Local\Temp\ccfBhFEg.s:23458  .debug_str:000000000000707c .LASF2070
C:\Users\SOLDER~1\AppData\Local\Temp\ccfBhFEg.s:28974  .debug_str:000000000001d55c .LASF2071
C:\Users\SOLDER~1\AppData\Local\Temp\ccfBhFEg.s:26424  .debug_str:000000000001308a .LASF2072
C:\Users\SOLDER~1\AppData\Local\Temp\ccfBhFEg.s:31304  .debug_str:0000000000026c3d .LASF2073
C:\Users\SOLDER~1\AppData\Local\Temp\ccfBhFEg.s:22600  .debug_str:000000000000392e .LASF2074
C:\Users\SOLDER~1\AppData\Local\Temp\ccfBhFEg.s:31072  .debug_str:0000000000025caa .LASF2075
C:\Users\SOLDER~1\AppData\Local\Temp\ccfBhFEg.s:30140  .debug_str:00000000000220e7 .LASF2076
C:\Users\SOLDER~1\AppData\Local\Temp\ccfBhFEg.s:25132  .debug_str:000000000000dd5a .LASF2077
C:\Users\SOLDER~1\AppData\Local\Temp\ccfBhFEg.s:26826  .debug_str:0000000000014bb0 .LASF2078
C:\Users\SOLDER~1\AppData\Local\Temp\ccfBhFEg.s:28394  .debug_str:000000000001b01b .LASF2079
C:\Users\SOLDER~1\AppData\Local\Temp\ccfBhFEg.s:22746  .debug_str:000000000000428a .LASF2080
C:\Users\SOLDER~1\AppData\Local\Temp\ccfBhFEg.s:28988  .debug_str:000000000001d650 .LASF2081
C:\Users\SOLDER~1\AppData\Local\Temp\ccfBhFEg.s:27834  .debug_str:0000000000018c8c .LASF2082
GAS LISTING C:\Users\SOLDER~1\AppData\Local\Temp\ccfBhFEg.s 			page 110


C:\Users\SOLDER~1\AppData\Local\Temp\ccfBhFEg.s:23538  .debug_str:0000000000007595 .LASF2083
C:\Users\SOLDER~1\AppData\Local\Temp\ccfBhFEg.s:24244  .debug_str:000000000000a372 .LASF2084
C:\Users\SOLDER~1\AppData\Local\Temp\ccfBhFEg.s:27042  .debug_str:0000000000015a3b .LASF2085
C:\Users\SOLDER~1\AppData\Local\Temp\ccfBhFEg.s:26386  .debug_str:0000000000012dc9 .LASF2086
C:\Users\SOLDER~1\AppData\Local\Temp\ccfBhFEg.s:29170  .debug_str:000000000001e1ef .LASF2087
C:\Users\SOLDER~1\AppData\Local\Temp\ccfBhFEg.s:28934  .debug_str:000000000001d300 .LASF2088
C:\Users\SOLDER~1\AppData\Local\Temp\ccfBhFEg.s:27280  .debug_str:00000000000168d4 .LASF2089
C:\Users\SOLDER~1\AppData\Local\Temp\ccfBhFEg.s:31804  .debug_str:0000000000028cd1 .LASF2090
C:\Users\SOLDER~1\AppData\Local\Temp\ccfBhFEg.s:28790  .debug_str:000000000001c97d .LASF2091
C:\Users\SOLDER~1\AppData\Local\Temp\ccfBhFEg.s:26970  .debug_str:0000000000015555 .LASF2092
C:\Users\SOLDER~1\AppData\Local\Temp\ccfBhFEg.s:24776  .debug_str:000000000000c5d4 .LASF2093
C:\Users\SOLDER~1\AppData\Local\Temp\ccfBhFEg.s:26304  .debug_str:0000000000012884 .LASF2094
C:\Users\SOLDER~1\AppData\Local\Temp\ccfBhFEg.s:33310  .debug_str:000000000002ee2e .LASF2095
C:\Users\SOLDER~1\AppData\Local\Temp\ccfBhFEg.s:31170  .debug_str:0000000000026342 .LASF2096
C:\Users\SOLDER~1\AppData\Local\Temp\ccfBhFEg.s:28008  .debug_str:00000000000197f4 .LASF2097
C:\Users\SOLDER~1\AppData\Local\Temp\ccfBhFEg.s:30012  .debug_str:00000000000218f5 .LASF2098
C:\Users\SOLDER~1\AppData\Local\Temp\ccfBhFEg.s:32014  .debug_str:0000000000029a7e .LASF2099
C:\Users\SOLDER~1\AppData\Local\Temp\ccfBhFEg.s:26432  .debug_str:0000000000013103 .LASF2100
C:\Users\SOLDER~1\AppData\Local\Temp\ccfBhFEg.s:29358  .debug_str:000000000001ee58 .LASF2101
C:\Users\SOLDER~1\AppData\Local\Temp\ccfBhFEg.s:31282  .debug_str:0000000000026ae9 .LASF2102
C:\Users\SOLDER~1\AppData\Local\Temp\ccfBhFEg.s:25184  .debug_str:000000000000e08c .LASF2103
C:\Users\SOLDER~1\AppData\Local\Temp\ccfBhFEg.s:22622  .debug_str:0000000000003a8c .LASF2104
C:\Users\SOLDER~1\AppData\Local\Temp\ccfBhFEg.s:23370  .debug_str:0000000000006a97 .LASF2105
C:\Users\SOLDER~1\AppData\Local\Temp\ccfBhFEg.s:30508  .debug_str:0000000000023809 .LASF2106
C:\Users\SOLDER~1\AppData\Local\Temp\ccfBhFEg.s:27330  .debug_str:0000000000016bc4 .LASF2107
C:\Users\SOLDER~1\AppData\Local\Temp\ccfBhFEg.s:26370  .debug_str:0000000000012c98 .LASF2108
C:\Users\SOLDER~1\AppData\Local\Temp\ccfBhFEg.s:33052  .debug_str:000000000002de0d .LASF2109
C:\Users\SOLDER~1\AppData\Local\Temp\ccfBhFEg.s:31858  .debug_str:0000000000029079 .LASF2110
C:\Users\SOLDER~1\AppData\Local\Temp\ccfBhFEg.s:32710  .debug_str:000000000002c801 .LASF2111
C:\Users\SOLDER~1\AppData\Local\Temp\ccfBhFEg.s:27028  .debug_str:000000000001594e .LASF2112
C:\Users\SOLDER~1\AppData\Local\Temp\ccfBhFEg.s:33242  .debug_str:000000000002e9e7 .LASF2113
C:\Users\SOLDER~1\AppData\Local\Temp\ccfBhFEg.s:27978  .debug_str:000000000001961b .LASF2114
C:\Users\SOLDER~1\AppData\Local\Temp\ccfBhFEg.s:27936  .debug_str:000000000001934a .LASF2115
C:\Users\SOLDER~1\AppData\Local\Temp\ccfBhFEg.s:28634  .debug_str:000000000001bf19 .LASF2116
C:\Users\SOLDER~1\AppData\Local\Temp\ccfBhFEg.s:24028  .debug_str:00000000000095a2 .LASF2117
C:\Users\SOLDER~1\AppData\Local\Temp\ccfBhFEg.s:32326  .debug_str:000000000002ae9b .LASF2118
C:\Users\SOLDER~1\AppData\Local\Temp\ccfBhFEg.s:30426  .debug_str:00000000000232f4 .LASF2119
C:\Users\SOLDER~1\AppData\Local\Temp\ccfBhFEg.s:33190  .debug_str:000000000002e6e4 .LASF2120
C:\Users\SOLDER~1\AppData\Local\Temp\ccfBhFEg.s:23432  .debug_str:0000000000006e97 .LASF2121
C:\Users\SOLDER~1\AppData\Local\Temp\ccfBhFEg.s:28052  .debug_str:0000000000019b0d .LASF2122
C:\Users\SOLDER~1\AppData\Local\Temp\ccfBhFEg.s:27068  .debug_str:0000000000015bb3 .LASF2123
C:\Users\SOLDER~1\AppData\Local\Temp\ccfBhFEg.s:25734  .debug_str:000000000001046e .LASF2124
C:\Users\SOLDER~1\AppData\Local\Temp\ccfBhFEg.s:32706  .debug_str:000000000002c7a3 .LASF2125
C:\Users\SOLDER~1\AppData\Local\Temp\ccfBhFEg.s:22504  .debug_str:00000000000032fc .LASF2126
C:\Users\SOLDER~1\AppData\Local\Temp\ccfBhFEg.s:29518  .debug_str:000000000001f8f1 .LASF2127
C:\Users\SOLDER~1\AppData\Local\Temp\ccfBhFEg.s:27448  .debug_str:0000000000017302 .LASF2128
C:\Users\SOLDER~1\AppData\Local\Temp\ccfBhFEg.s:30042  .debug_str:0000000000021abf .LASF2129
C:\Users\SOLDER~1\AppData\Local\Temp\ccfBhFEg.s:26240  .debug_str:0000000000012487 .LASF2130
C:\Users\SOLDER~1\AppData\Local\Temp\ccfBhFEg.s:24488  .debug_str:000000000000b355 .LASF2131
C:\Users\SOLDER~1\AppData\Local\Temp\ccfBhFEg.s:33258  .debug_str:000000000002eadc .LASF2132
C:\Users\SOLDER~1\AppData\Local\Temp\ccfBhFEg.s:25572  .debug_str:000000000000f996 .LASF2133
C:\Users\SOLDER~1\AppData\Local\Temp\ccfBhFEg.s:27566  .debug_str:0000000000017b3e .LASF2134
C:\Users\SOLDER~1\AppData\Local\Temp\ccfBhFEg.s:33110  .debug_str:000000000002e1ba .LASF2135
C:\Users\SOLDER~1\AppData\Local\Temp\ccfBhFEg.s:26880  .debug_str:0000000000014f94 .LASF2136
C:\Users\SOLDER~1\AppData\Local\Temp\ccfBhFEg.s:31296  .debug_str:0000000000026baf .LASF2137
C:\Users\SOLDER~1\AppData\Local\Temp\ccfBhFEg.s:26754  .debug_str:0000000000014715 .LASF2138
C:\Users\SOLDER~1\AppData\Local\Temp\ccfBhFEg.s:23488  .debug_str:0000000000007271 .LASF2139
GAS LISTING C:\Users\SOLDER~1\AppData\Local\Temp\ccfBhFEg.s 			page 111


C:\Users\SOLDER~1\AppData\Local\Temp\ccfBhFEg.s:22570  .debug_str:000000000000373d .LASF2140
C:\Users\SOLDER~1\AppData\Local\Temp\ccfBhFEg.s:29462  .debug_str:000000000001f51a .LASF2141
C:\Users\SOLDER~1\AppData\Local\Temp\ccfBhFEg.s:30814  .debug_str:0000000000024c25 .LASF2142
C:\Users\SOLDER~1\AppData\Local\Temp\ccfBhFEg.s:25234  .debug_str:000000000000e3fd .LASF2143
C:\Users\SOLDER~1\AppData\Local\Temp\ccfBhFEg.s:31340  .debug_str:0000000000026ea0 .LASF2144
C:\Users\SOLDER~1\AppData\Local\Temp\ccfBhFEg.s:25886  .debug_str:0000000000010e5d .LASF2145
C:\Users\SOLDER~1\AppData\Local\Temp\ccfBhFEg.s:32256  .debug_str:000000000002aa62 .LASF2146
C:\Users\SOLDER~1\AppData\Local\Temp\ccfBhFEg.s:32216  .debug_str:000000000002a7ba .LASF2147
C:\Users\SOLDER~1\AppData\Local\Temp\ccfBhFEg.s:32948  .debug_str:000000000002d767 .LASF2148
C:\Users\SOLDER~1\AppData\Local\Temp\ccfBhFEg.s:29370  .debug_str:000000000001ef33 .LASF2149
C:\Users\SOLDER~1\AppData\Local\Temp\ccfBhFEg.s:24844  .debug_str:000000000000ca90 .LASF2150
C:\Users\SOLDER~1\AppData\Local\Temp\ccfBhFEg.s:23052  .debug_str:000000000000555e .LASF2151
C:\Users\SOLDER~1\AppData\Local\Temp\ccfBhFEg.s:26978  .debug_str:00000000000155df .LASF2152
C:\Users\SOLDER~1\AppData\Local\Temp\ccfBhFEg.s:31358  .debug_str:0000000000026fd3 .LASF2153
C:\Users\SOLDER~1\AppData\Local\Temp\ccfBhFEg.s:24192  .debug_str:000000000000a02c .LASF2154
C:\Users\SOLDER~1\AppData\Local\Temp\ccfBhFEg.s:23238  .debug_str:00000000000061ba .LASF2155
C:\Users\SOLDER~1\AppData\Local\Temp\ccfBhFEg.s:30976  .debug_str:00000000000256ca .LASF2156
C:\Users\SOLDER~1\AppData\Local\Temp\ccfBhFEg.s:28916  .debug_str:000000000001d1a9 .LASF2157
C:\Users\SOLDER~1\AppData\Local\Temp\ccfBhFEg.s:30404  .debug_str:0000000000023182 .LASF2158
C:\Users\SOLDER~1\AppData\Local\Temp\ccfBhFEg.s:25732  .debug_str:0000000000010448 .LASF2159
C:\Users\SOLDER~1\AppData\Local\Temp\ccfBhFEg.s:23610  .debug_str:00000000000079cc .LASF2160
C:\Users\SOLDER~1\AppData\Local\Temp\ccfBhFEg.s:33102  .debug_str:000000000002e13f .LASF2161
C:\Users\SOLDER~1\AppData\Local\Temp\ccfBhFEg.s:22430  .debug_str:0000000000002e22 .LASF2162
C:\Users\SOLDER~1\AppData\Local\Temp\ccfBhFEg.s:24414  .debug_str:000000000000ae8d .LASF2163
C:\Users\SOLDER~1\AppData\Local\Temp\ccfBhFEg.s:23796  .debug_str:0000000000008649 .LASF2164
C:\Users\SOLDER~1\AppData\Local\Temp\ccfBhFEg.s:21784  .debug_str:00000000000003a7 .LASF2165
C:\Users\SOLDER~1\AppData\Local\Temp\ccfBhFEg.s:23716  .debug_str:0000000000008110 .LASF2166
C:\Users\SOLDER~1\AppData\Local\Temp\ccfBhFEg.s:29226  .debug_str:000000000001e5ac .LASF2167
C:\Users\SOLDER~1\AppData\Local\Temp\ccfBhFEg.s:26774  .debug_str:0000000000014870 .LASF2168
C:\Users\SOLDER~1\AppData\Local\Temp\ccfBhFEg.s:27580  .debug_str:0000000000017c35 .LASF2169
C:\Users\SOLDER~1\AppData\Local\Temp\ccfBhFEg.s:22924  .debug_str:0000000000004dba .LASF2170
C:\Users\SOLDER~1\AppData\Local\Temp\ccfBhFEg.s:31404  .debug_str:00000000000272d8 .LASF2171
C:\Users\SOLDER~1\AppData\Local\Temp\ccfBhFEg.s:24294  .debug_str:000000000000a6c2 .LASF2172
C:\Users\SOLDER~1\AppData\Local\Temp\ccfBhFEg.s:25374  .debug_str:000000000000ed4a .LASF2173
C:\Users\SOLDER~1\AppData\Local\Temp\ccfBhFEg.s:27062  .debug_str:0000000000015b79 .LASF2174
C:\Users\SOLDER~1\AppData\Local\Temp\ccfBhFEg.s:28478  .debug_str:000000000001b5a7 .LASF2175
C:\Users\SOLDER~1\AppData\Local\Temp\ccfBhFEg.s:27724  .debug_str:00000000000185c3 .LASF2176
C:\Users\SOLDER~1\AppData\Local\Temp\ccfBhFEg.s:27060  .debug_str:0000000000015b61 .LASF2177
C:\Users\SOLDER~1\AppData\Local\Temp\ccfBhFEg.s:28762  .debug_str:000000000001c7b7 .LASF2178
C:\Users\SOLDER~1\AppData\Local\Temp\ccfBhFEg.s:25718  .debug_str:0000000000010392 .LASF2179
C:\Users\SOLDER~1\AppData\Local\Temp\ccfBhFEg.s:27846  .debug_str:0000000000018d42 .LASF2180
C:\Users\SOLDER~1\AppData\Local\Temp\ccfBhFEg.s:24096  .debug_str:00000000000099e3 .LASF2181
C:\Users\SOLDER~1\AppData\Local\Temp\ccfBhFEg.s:25976  .debug_str:00000000000113eb .LASF2182
C:\Users\SOLDER~1\AppData\Local\Temp\ccfBhFEg.s:22306  .debug_str:0000000000002657 .LASF2183
C:\Users\SOLDER~1\AppData\Local\Temp\ccfBhFEg.s:31270  .debug_str:0000000000026a20 .LASF2184
C:\Users\SOLDER~1\AppData\Local\Temp\ccfBhFEg.s:26674  .debug_str:000000000001419f .LASF2185
C:\Users\SOLDER~1\AppData\Local\Temp\ccfBhFEg.s:24764  .debug_str:000000000000c4f4 .LASF2186
C:\Users\SOLDER~1\AppData\Local\Temp\ccfBhFEg.s:24040  .debug_str:000000000000967a .LASF2187
C:\Users\SOLDER~1\AppData\Local\Temp\ccfBhFEg.s:29964  .debug_str:00000000000215a4 .LASF2188
C:\Users\SOLDER~1\AppData\Local\Temp\ccfBhFEg.s:29738  .debug_str:0000000000020712 .LASF2189
C:\Users\SOLDER~1\AppData\Local\Temp\ccfBhFEg.s:26608  .debug_str:0000000000013cdb .LASF2190
C:\Users\SOLDER~1\AppData\Local\Temp\ccfBhFEg.s:25388  .debug_str:000000000000ee22 .LASF2191
C:\Users\SOLDER~1\AppData\Local\Temp\ccfBhFEg.s:26554  .debug_str:0000000000013921 .LASF2192
C:\Users\SOLDER~1\AppData\Local\Temp\ccfBhFEg.s:31038  .debug_str:0000000000025a9e .LASF2193
C:\Users\SOLDER~1\AppData\Local\Temp\ccfBhFEg.s:32360  .debug_str:000000000002b0e7 .LASF2194
C:\Users\SOLDER~1\AppData\Local\Temp\ccfBhFEg.s:29672  .debug_str:00000000000202f1 .LASF2195
C:\Users\SOLDER~1\AppData\Local\Temp\ccfBhFEg.s:28504  .debug_str:000000000001b726 .LASF2196
GAS LISTING C:\Users\SOLDER~1\AppData\Local\Temp\ccfBhFEg.s 			page 112


C:\Users\SOLDER~1\AppData\Local\Temp\ccfBhFEg.s:25310  .debug_str:000000000000e916 .LASF2197
C:\Users\SOLDER~1\AppData\Local\Temp\ccfBhFEg.s:28860  .debug_str:000000000001cdff .LASF2198
C:\Users\SOLDER~1\AppData\Local\Temp\ccfBhFEg.s:30990  .debug_str:00000000000257ad .LASF2199
C:\Users\SOLDER~1\AppData\Local\Temp\ccfBhFEg.s:24840  .debug_str:000000000000ca4f .LASF2200
C:\Users\SOLDER~1\AppData\Local\Temp\ccfBhFEg.s:22548  .debug_str:00000000000035e6 .LASF2201
C:\Users\SOLDER~1\AppData\Local\Temp\ccfBhFEg.s:22938  .debug_str:0000000000004e8c .LASF2202
C:\Users\SOLDER~1\AppData\Local\Temp\ccfBhFEg.s:31948  .debug_str:0000000000029608 .LASF2203
C:\Users\SOLDER~1\AppData\Local\Temp\ccfBhFEg.s:33050  .debug_str:000000000002ddec .LASF2204
C:\Users\SOLDER~1\AppData\Local\Temp\ccfBhFEg.s:27168  .debug_str:00000000000161bd .LASF2205
C:\Users\SOLDER~1\AppData\Local\Temp\ccfBhFEg.s:22288  .debug_str:000000000000254b .LASF2206
C:\Users\SOLDER~1\AppData\Local\Temp\ccfBhFEg.s:22250  .debug_str:00000000000022cd .LASF2207
C:\Users\SOLDER~1\AppData\Local\Temp\ccfBhFEg.s:29350  .debug_str:000000000001edd3 .LASF2208
C:\Users\SOLDER~1\AppData\Local\Temp\ccfBhFEg.s:28460  .debug_str:000000000001b4a5 .LASF2209
C:\Users\SOLDER~1\AppData\Local\Temp\ccfBhFEg.s:28124  .debug_str:0000000000019f77 .LASF2210
C:\Users\SOLDER~1\AppData\Local\Temp\ccfBhFEg.s:26134  .debug_str:0000000000011ddd .LASF2211
C:\Users\SOLDER~1\AppData\Local\Temp\ccfBhFEg.s:27496  .debug_str:000000000001764e .LASF2212
C:\Users\SOLDER~1\AppData\Local\Temp\ccfBhFEg.s:32690  .debug_str:000000000002c684 .LASF2213
C:\Users\SOLDER~1\AppData\Local\Temp\ccfBhFEg.s:30090  .debug_str:0000000000021dc7 .LASF2214
C:\Users\SOLDER~1\AppData\Local\Temp\ccfBhFEg.s:28184  .debug_str:000000000001a31d .LASF2215
C:\Users\SOLDER~1\AppData\Local\Temp\ccfBhFEg.s:27368  .debug_str:0000000000016e45 .LASF2216
C:\Users\SOLDER~1\AppData\Local\Temp\ccfBhFEg.s:22508  .debug_str:0000000000003348 .LASF2217
C:\Users\SOLDER~1\AppData\Local\Temp\ccfBhFEg.s:27298  .debug_str:00000000000169f9 .LASF2218
C:\Users\SOLDER~1\AppData\Local\Temp\ccfBhFEg.s:31906  .debug_str:0000000000029389 .LASF2219
C:\Users\SOLDER~1\AppData\Local\Temp\ccfBhFEg.s:24384  .debug_str:000000000000ace5 .LASF2220
C:\Users\SOLDER~1\AppData\Local\Temp\ccfBhFEg.s:29644  .debug_str:0000000000020143 .LASF2221
C:\Users\SOLDER~1\AppData\Local\Temp\ccfBhFEg.s:31540  .debug_str:0000000000027bd4 .LASF2222
C:\Users\SOLDER~1\AppData\Local\Temp\ccfBhFEg.s:23322  .debug_str:0000000000006761 .LASF2223
C:\Users\SOLDER~1\AppData\Local\Temp\ccfBhFEg.s:24066  .debug_str:00000000000097eb .LASF2224
C:\Users\SOLDER~1\AppData\Local\Temp\ccfBhFEg.s:26290  .debug_str:0000000000012794 .LASF2225
C:\Users\SOLDER~1\AppData\Local\Temp\ccfBhFEg.s:26718  .debug_str:000000000001446e .LASF2226
C:\Users\SOLDER~1\AppData\Local\Temp\ccfBhFEg.s:28884  .debug_str:000000000001cf8e .LASF2227
C:\Users\SOLDER~1\AppData\Local\Temp\ccfBhFEg.s:32838  .debug_str:000000000002cfe7 .LASF2228
C:\Users\SOLDER~1\AppData\Local\Temp\ccfBhFEg.s:23804  .debug_str:00000000000086e3 .LASF2229
C:\Users\SOLDER~1\AppData\Local\Temp\ccfBhFEg.s:29976  .debug_str:0000000000021681 .LASF2230
C:\Users\SOLDER~1\AppData\Local\Temp\ccfBhFEg.s:30874  .debug_str:0000000000025009 .LASF2231
C:\Users\SOLDER~1\AppData\Local\Temp\ccfBhFEg.s:26766  .debug_str:00000000000147d5 .LASF2232
C:\Users\SOLDER~1\AppData\Local\Temp\ccfBhFEg.s:23392  .debug_str:0000000000006bf4 .LASF2233
C:\Users\SOLDER~1\AppData\Local\Temp\ccfBhFEg.s:26198  .debug_str:00000000000121dd .LASF2234
C:\Users\SOLDER~1\AppData\Local\Temp\ccfBhFEg.s:23018  .debug_str:0000000000005361 .LASF2235
C:\Users\SOLDER~1\AppData\Local\Temp\ccfBhFEg.s:32892  .debug_str:000000000002d369 .LASF2236
C:\Users\SOLDER~1\AppData\Local\Temp\ccfBhFEg.s:29700  .debug_str:00000000000204ab .LASF2237
C:\Users\SOLDER~1\AppData\Local\Temp\ccfBhFEg.s:32308  .debug_str:000000000002ad98 .LASF2238
C:\Users\SOLDER~1\AppData\Local\Temp\ccfBhFEg.s:25070  .debug_str:000000000000d979 .LASF2239
C:\Users\SOLDER~1\AppData\Local\Temp\ccfBhFEg.s:26520  .debug_str:00000000000136c9 .LASF2240
C:\Users\SOLDER~1\AppData\Local\Temp\ccfBhFEg.s:22210  .debug_str:000000000000203f .LASF2241
C:\Users\SOLDER~1\AppData\Local\Temp\ccfBhFEg.s:31378  .debug_str:000000000002713e .LASF2242
C:\Users\SOLDER~1\AppData\Local\Temp\ccfBhFEg.s:31322  .debug_str:0000000000026d65 .LASF2243
C:\Users\SOLDER~1\AppData\Local\Temp\ccfBhFEg.s:25656  .debug_str:000000000000ff84 .LASF2244
C:\Users\SOLDER~1\AppData\Local\Temp\ccfBhFEg.s:21810  .debug_str:0000000000000556 .LASF2245
C:\Users\SOLDER~1\AppData\Local\Temp\ccfBhFEg.s:21762  .debug_str:0000000000000240 .LASF2246
C:\Users\SOLDER~1\AppData\Local\Temp\ccfBhFEg.s:27626  .debug_str:0000000000017f2a .LASF2247
C:\Users\SOLDER~1\AppData\Local\Temp\ccfBhFEg.s:23684  .debug_str:0000000000007ee0 .LASF2248
C:\Users\SOLDER~1\AppData\Local\Temp\ccfBhFEg.s:26792  .debug_str:00000000000149ab .LASF2249
C:\Users\SOLDER~1\AppData\Local\Temp\ccfBhFEg.s:25006  .debug_str:000000000000d542 .LASF2250
C:\Users\SOLDER~1\AppData\Local\Temp\ccfBhFEg.s:24460  .debug_str:000000000000b1aa .LASF2251
C:\Users\SOLDER~1\AppData\Local\Temp\ccfBhFEg.s:33022  .debug_str:000000000002dc17 .LASF2252
C:\Users\SOLDER~1\AppData\Local\Temp\ccfBhFEg.s:26184  .debug_str:000000000001211e .LASF2253
GAS LISTING C:\Users\SOLDER~1\AppData\Local\Temp\ccfBhFEg.s 			page 113


C:\Users\SOLDER~1\AppData\Local\Temp\ccfBhFEg.s:27982  .debug_str:0000000000019662 .LASF2254
C:\Users\SOLDER~1\AppData\Local\Temp\ccfBhFEg.s:27500  .debug_str:00000000000176b8 .LASF2255
C:\Users\SOLDER~1\AppData\Local\Temp\ccfBhFEg.s:29988  .debug_str:000000000002176a .LASF2256
C:\Users\SOLDER~1\AppData\Local\Temp\ccfBhFEg.s:32080  .debug_str:0000000000029eb5 .LASF2257
C:\Users\SOLDER~1\AppData\Local\Temp\ccfBhFEg.s:24906  .debug_str:000000000000ceb6 .LASF2258
C:\Users\SOLDER~1\AppData\Local\Temp\ccfBhFEg.s:22388  .debug_str:0000000000002b87 .LASF2259
C:\Users\SOLDER~1\AppData\Local\Temp\ccfBhFEg.s:30568  .debug_str:0000000000023c0c .LASF2260
C:\Users\SOLDER~1\AppData\Local\Temp\ccfBhFEg.s:28098  .debug_str:0000000000019de3 .LASF2261
C:\Users\SOLDER~1\AppData\Local\Temp\ccfBhFEg.s:23768  .debug_str:0000000000008495 .LASF2262
C:\Users\SOLDER~1\AppData\Local\Temp\ccfBhFEg.s:22978  .debug_str:00000000000050e9 .LASF2263
C:\Users\SOLDER~1\AppData\Local\Temp\ccfBhFEg.s:29648  .debug_str:000000000002017a .LASF2264
C:\Users\SOLDER~1\AppData\Local\Temp\ccfBhFEg.s:26000  .debug_str:000000000001157d .LASF2265
C:\Users\SOLDER~1\AppData\Local\Temp\ccfBhFEg.s:25536  .debug_str:000000000000f729 .LASF2266
C:\Users\SOLDER~1\AppData\Local\Temp\ccfBhFEg.s:28056  .debug_str:0000000000019b5c .LASF2267
C:\Users\SOLDER~1\AppData\Local\Temp\ccfBhFEg.s:25332  .debug_str:000000000000ea70 .LASF2268
C:\Users\SOLDER~1\AppData\Local\Temp\ccfBhFEg.s:21986  .debug_str:00000000000011b6 .LASF2269
C:\Users\SOLDER~1\AppData\Local\Temp\ccfBhFEg.s:30900  .debug_str:00000000000251e2 .LASF2270
C:\Users\SOLDER~1\AppData\Local\Temp\ccfBhFEg.s:32306  .debug_str:000000000002ad84 .LASF2271
C:\Users\SOLDER~1\AppData\Local\Temp\ccfBhFEg.s:32506  .debug_str:000000000002ba4f .LASF2272
C:\Users\SOLDER~1\AppData\Local\Temp\ccfBhFEg.s:31580  .debug_str:0000000000027e6d .LASF2273
C:\Users\SOLDER~1\AppData\Local\Temp\ccfBhFEg.s:21850  .debug_str:0000000000000880 .LASF2274
C:\Users\SOLDER~1\AppData\Local\Temp\ccfBhFEg.s:21930  .debug_str:0000000000000e4d .LASF2275
C:\Users\SOLDER~1\AppData\Local\Temp\ccfBhFEg.s:24126  .debug_str:0000000000009be3 .LASF2276
C:\Users\SOLDER~1\AppData\Local\Temp\ccfBhFEg.s:23942  .debug_str:0000000000009010 .LASF2277
C:\Users\SOLDER~1\AppData\Local\Temp\ccfBhFEg.s:22164  .debug_str:0000000000001d4e .LASF2278
C:\Users\SOLDER~1\AppData\Local\Temp\ccfBhFEg.s:33366  .debug_str:000000000002f20a .LASF2279
C:\Users\SOLDER~1\AppData\Local\Temp\ccfBhFEg.s:26284  .debug_str:0000000000012746 .LASF2280
C:\Users\SOLDER~1\AppData\Local\Temp\ccfBhFEg.s:29528  .debug_str:000000000001f99e .LASF2281
C:\Users\SOLDER~1\AppData\Local\Temp\ccfBhFEg.s:32964  .debug_str:000000000002d87e .LASF2282
C:\Users\SOLDER~1\AppData\Local\Temp\ccfBhFEg.s:23592  .debug_str:00000000000078ca .LASF2283
C:\Users\SOLDER~1\AppData\Local\Temp\ccfBhFEg.s:22346  .debug_str:000000000000291c .LASF2284
C:\Users\SOLDER~1\AppData\Local\Temp\ccfBhFEg.s:29826  .debug_str:0000000000020cb1 .LASF2285
C:\Users\SOLDER~1\AppData\Local\Temp\ccfBhFEg.s:23552  .debug_str:000000000000766b .LASF2286
C:\Users\SOLDER~1\AppData\Local\Temp\ccfBhFEg.s:27586  .debug_str:0000000000017ca2 .LASF2287
C:\Users\SOLDER~1\AppData\Local\Temp\ccfBhFEg.s:26234  .debug_str:0000000000012423 .LASF2288
C:\Users\SOLDER~1\AppData\Local\Temp\ccfBhFEg.s:23678  .debug_str:0000000000007e8d .LASF2289
C:\Users\SOLDER~1\AppData\Local\Temp\ccfBhFEg.s:29062  .debug_str:000000000001db5f .LASF2290
C:\Users\SOLDER~1\AppData\Local\Temp\ccfBhFEg.s:29568  .debug_str:000000000001fc71 .LASF2291
C:\Users\SOLDER~1\AppData\Local\Temp\ccfBhFEg.s:26654  .debug_str:000000000001403a .LASF2292
C:\Users\SOLDER~1\AppData\Local\Temp\ccfBhFEg.s:22760  .debug_str:000000000000436a .LASF2293
C:\Users\SOLDER~1\AppData\Local\Temp\ccfBhFEg.s:26910  .debug_str:000000000001519d .LASF2294
C:\Users\SOLDER~1\AppData\Local\Temp\ccfBhFEg.s:33330  .debug_str:000000000002efb4 .LASF2295
C:\Users\SOLDER~1\AppData\Local\Temp\ccfBhFEg.s:23606  .debug_str:0000000000007991 .LASF2296
C:\Users\SOLDER~1\AppData\Local\Temp\ccfBhFEg.s:32268  .debug_str:000000000002ab0f .LASF2297
C:\Users\SOLDER~1\AppData\Local\Temp\ccfBhFEg.s:30424  .debug_str:00000000000232d3 .LASF2298
C:\Users\SOLDER~1\AppData\Local\Temp\ccfBhFEg.s:26524  .debug_str:0000000000013709 .LASF2299
C:\Users\SOLDER~1\AppData\Local\Temp\ccfBhFEg.s:29766  .debug_str:00000000000208cb .LASF2300
C:\Users\SOLDER~1\AppData\Local\Temp\ccfBhFEg.s:32602  .debug_str:000000000002c0b2 .LASF2301
C:\Users\SOLDER~1\AppData\Local\Temp\ccfBhFEg.s:26024  .debug_str:00000000000116d4 .LASF2302
C:\Users\SOLDER~1\AppData\Local\Temp\ccfBhFEg.s:30248  .debug_str:000000000002276a .LASF2303
C:\Users\SOLDER~1\AppData\Local\Temp\ccfBhFEg.s:27564  .debug_str:0000000000017b1c .LASF2304
C:\Users\SOLDER~1\AppData\Local\Temp\ccfBhFEg.s:26446  .debug_str:00000000000131e7 .LASF2305
C:\Users\SOLDER~1\AppData\Local\Temp\ccfBhFEg.s:28936  .debug_str:000000000001d325 .LASF2306
C:\Users\SOLDER~1\AppData\Local\Temp\ccfBhFEg.s:32310  .debug_str:000000000002adb8 .LASF2307
C:\Users\SOLDER~1\AppData\Local\Temp\ccfBhFEg.s:26066  .debug_str:0000000000011998 .LASF2308
C:\Users\SOLDER~1\AppData\Local\Temp\ccfBhFEg.s:26780  .debug_str:00000000000148e7 .LASF2309
C:\Users\SOLDER~1\AppData\Local\Temp\ccfBhFEg.s:25408  .debug_str:000000000000ef39 .LASF2310
GAS LISTING C:\Users\SOLDER~1\AppData\Local\Temp\ccfBhFEg.s 			page 114


C:\Users\SOLDER~1\AppData\Local\Temp\ccfBhFEg.s:24438  .debug_str:000000000000b041 .LASF2311
C:\Users\SOLDER~1\AppData\Local\Temp\ccfBhFEg.s:32186  .debug_str:000000000002a5a2 .LASF2312
C:\Users\SOLDER~1\AppData\Local\Temp\ccfBhFEg.s:32330  .debug_str:000000000002aee2 .LASF2313
C:\Users\SOLDER~1\AppData\Local\Temp\ccfBhFEg.s:24782  .debug_str:000000000000c642 .LASF2314
C:\Users\SOLDER~1\AppData\Local\Temp\ccfBhFEg.s:26482  .debug_str:0000000000013435 .LASF2315
C:\Users\SOLDER~1\AppData\Local\Temp\ccfBhFEg.s:26188  .debug_str:0000000000012152 .LASF2316
C:\Users\SOLDER~1\AppData\Local\Temp\ccfBhFEg.s:23626  .debug_str:0000000000007af9 .LASF2317
C:\Users\SOLDER~1\AppData\Local\Temp\ccfBhFEg.s:25992  .debug_str:00000000000114f8 .LASF2318
C:\Users\SOLDER~1\AppData\Local\Temp\ccfBhFEg.s:33036  .debug_str:000000000002dcfe .LASF2319
C:\Users\SOLDER~1\AppData\Local\Temp\ccfBhFEg.s:27140  .debug_str:0000000000016004 .LASF2320
C:\Users\SOLDER~1\AppData\Local\Temp\ccfBhFEg.s:30262  .debug_str:0000000000022827 .LASF2321
C:\Users\SOLDER~1\AppData\Local\Temp\ccfBhFEg.s:27604  .debug_str:0000000000017d97 .LASF2322
C:\Users\SOLDER~1\AppData\Local\Temp\ccfBhFEg.s:30654  .debug_str:000000000002417f .LASF2323
C:\Users\SOLDER~1\AppData\Local\Temp\ccfBhFEg.s:30100  .debug_str:0000000000021e46 .LASF2324
C:\Users\SOLDER~1\AppData\Local\Temp\ccfBhFEg.s:29038  .debug_str:000000000001d9e8 .LASF2325
C:\Users\SOLDER~1\AppData\Local\Temp\ccfBhFEg.s:23562  .debug_str:00000000000076fe .LASF2326
C:\Users\SOLDER~1\AppData\Local\Temp\ccfBhFEg.s:28736  .debug_str:000000000001c5e3 .LASF2327
C:\Users\SOLDER~1\AppData\Local\Temp\ccfBhFEg.s:24362  .debug_str:000000000000ab68 .LASF2328
C:\Users\SOLDER~1\AppData\Local\Temp\ccfBhFEg.s:24262  .debug_str:000000000000a48f .LASF2329
C:\Users\SOLDER~1\AppData\Local\Temp\ccfBhFEg.s:23056  .debug_str:000000000000559a .LASF2330
C:\Users\SOLDER~1\AppData\Local\Temp\ccfBhFEg.s:22092  .debug_str:000000000000187b .LASF2331
C:\Users\SOLDER~1\AppData\Local\Temp\ccfBhFEg.s:32524  .debug_str:000000000002bb5f .LASF2332
C:\Users\SOLDER~1\AppData\Local\Temp\ccfBhFEg.s:23008  .debug_str:00000000000052bb .LASF2333
C:\Users\SOLDER~1\AppData\Local\Temp\ccfBhFEg.s:31820  .debug_str:0000000000028df1 .LASF2334
C:\Users\SOLDER~1\AppData\Local\Temp\ccfBhFEg.s:24666  .debug_str:000000000000bebb .LASF2335
C:\Users\SOLDER~1\AppData\Local\Temp\ccfBhFEg.s:29524  .debug_str:000000000001f95a .LASF2336
C:\Users\SOLDER~1\AppData\Local\Temp\ccfBhFEg.s:25142  .debug_str:000000000000dde4 .LASF2337
C:\Users\SOLDER~1\AppData\Local\Temp\ccfBhFEg.s:33020  .debug_str:000000000002dbf4 .LASF2338
C:\Users\SOLDER~1\AppData\Local\Temp\ccfBhFEg.s:24920  .debug_str:000000000000cfa3 .LASF2339
C:\Users\SOLDER~1\AppData\Local\Temp\ccfBhFEg.s:29734  .debug_str:00000000000206c6 .LASF2340
C:\Users\SOLDER~1\AppData\Local\Temp\ccfBhFEg.s:29606  .debug_str:000000000001fecc .LASF2341
C:\Users\SOLDER~1\AppData\Local\Temp\ccfBhFEg.s:32616  .debug_str:000000000002c17d .LASF2342
C:\Users\SOLDER~1\AppData\Local\Temp\ccfBhFEg.s:24772  .debug_str:000000000000c58a .LASF2343
C:\Users\SOLDER~1\AppData\Local\Temp\ccfBhFEg.s:24424  .debug_str:000000000000af45 .LASF2344
C:\Users\SOLDER~1\AppData\Local\Temp\ccfBhFEg.s:25918  .debug_str:0000000000011040 .LASF2345
C:\Users\SOLDER~1\AppData\Local\Temp\ccfBhFEg.s:25292  .debug_str:000000000000e806 .LASF2346
C:\Users\SOLDER~1\AppData\Local\Temp\ccfBhFEg.s:31712  .debug_str:0000000000028701 .LASF2347
C:\Users\SOLDER~1\AppData\Local\Temp\ccfBhFEg.s:29906  .debug_str:00000000000211e0 .LASF2348
C:\Users\SOLDER~1\AppData\Local\Temp\ccfBhFEg.s:23696  .debug_str:0000000000007fb6 .LASF2349
C:\Users\SOLDER~1\AppData\Local\Temp\ccfBhFEg.s:28708  .debug_str:000000000001c416 .LASF2350
C:\Users\SOLDER~1\AppData\Local\Temp\ccfBhFEg.s:31908  .debug_str:000000000002939d .LASF2351
C:\Users\SOLDER~1\AppData\Local\Temp\ccfBhFEg.s:30400  .debug_str:0000000000023140 .LASF2352
C:\Users\SOLDER~1\AppData\Local\Temp\ccfBhFEg.s:24338  .debug_str:000000000000a9d6 .LASF2353
C:\Users\SOLDER~1\AppData\Local\Temp\ccfBhFEg.s:32928  .debug_str:000000000002d5d9 .LASF2354
C:\Users\SOLDER~1\AppData\Local\Temp\ccfBhFEg.s:25148  .debug_str:000000000000de37 .LASF2355
C:\Users\SOLDER~1\AppData\Local\Temp\ccfBhFEg.s:27920  .debug_str:000000000001922e .LASF2356
C:\Users\SOLDER~1\AppData\Local\Temp\ccfBhFEg.s:24734  .debug_str:000000000000c2d4 .LASF2357
C:\Users\SOLDER~1\AppData\Local\Temp\ccfBhFEg.s:28686  .debug_str:000000000001c284 .LASF2358
C:\Users\SOLDER~1\AppData\Local\Temp\ccfBhFEg.s:25614  .debug_str:000000000000fc8e .LASF2359
C:\Users\SOLDER~1\AppData\Local\Temp\ccfBhFEg.s:29098  .debug_str:000000000001dd86 .LASF2360
C:\Users\SOLDER~1\AppData\Local\Temp\ccfBhFEg.s:29802  .debug_str:0000000000020b23 .LASF2361
C:\Users\SOLDER~1\AppData\Local\Temp\ccfBhFEg.s:25192  .debug_str:000000000000e115 .LASF2362
C:\Users\SOLDER~1\AppData\Local\Temp\ccfBhFEg.s:26452  .debug_str:0000000000013240 .LASF2363
C:\Users\SOLDER~1\AppData\Local\Temp\ccfBhFEg.s:24484  .debug_str:000000000000b31e .LASF2364
C:\Users\SOLDER~1\AppData\Local\Temp\ccfBhFEg.s:32490  .debug_str:000000000002b967 .LASF2365
C:\Users\SOLDER~1\AppData\Local\Temp\ccfBhFEg.s:29724  .debug_str:0000000000020629 .LASF2366
C:\Users\SOLDER~1\AppData\Local\Temp\ccfBhFEg.s:30972  .debug_str:0000000000025694 .LASF2367
GAS LISTING C:\Users\SOLDER~1\AppData\Local\Temp\ccfBhFEg.s 			page 115


C:\Users\SOLDER~1\AppData\Local\Temp\ccfBhFEg.s:29818  .debug_str:0000000000020c21 .LASF2368
C:\Users\SOLDER~1\AppData\Local\Temp\ccfBhFEg.s:27890  .debug_str:0000000000019041 .LASF2369
C:\Users\SOLDER~1\AppData\Local\Temp\ccfBhFEg.s:22342  .debug_str:00000000000028a3 .LASF2370
C:\Users\SOLDER~1\AppData\Local\Temp\ccfBhFEg.s:22802  .debug_str:00000000000045f9 .LASF2371
C:\Users\SOLDER~1\AppData\Local\Temp\ccfBhFEg.s:29326  .debug_str:000000000001ec4e .LASF2372
C:\Users\SOLDER~1\AppData\Local\Temp\ccfBhFEg.s:22784  .debug_str:00000000000044d9 .LASF2373
C:\Users\SOLDER~1\AppData\Local\Temp\ccfBhFEg.s:22624  .debug_str:0000000000003ab2 .LASF2374
C:\Users\SOLDER~1\AppData\Local\Temp\ccfBhFEg.s:23240  .debug_str:00000000000061e0 .LASF2375
C:\Users\SOLDER~1\AppData\Local\Temp\ccfBhFEg.s:28222  .debug_str:000000000001a53f .LASF2376
C:\Users\SOLDER~1\AppData\Local\Temp\ccfBhFEg.s:24280  .debug_str:000000000000a5c9 .LASF2377
C:\Users\SOLDER~1\AppData\Local\Temp\ccfBhFEg.s:22494  .debug_str:000000000000325c .LASF2378
C:\Users\SOLDER~1\AppData\Local\Temp\ccfBhFEg.s:32204  .debug_str:000000000002a6d4 .LASF2379
C:\Users\SOLDER~1\AppData\Local\Temp\ccfBhFEg.s:31610  .debug_str:000000000002801d .LASF2380
C:\Users\SOLDER~1\AppData\Local\Temp\ccfBhFEg.s:21840  .debug_str:00000000000007d9 .LASF2381
C:\Users\SOLDER~1\AppData\Local\Temp\ccfBhFEg.s:33322  .debug_str:000000000002ef23 .LASF2382
C:\Users\SOLDER~1\AppData\Local\Temp\ccfBhFEg.s:28722  .debug_str:000000000001c4f2 .LASF2383
C:\Users\SOLDER~1\AppData\Local\Temp\ccfBhFEg.s:24786  .debug_str:000000000000c696 .LASF2384
C:\Users\SOLDER~1\AppData\Local\Temp\ccfBhFEg.s:32876  .debug_str:000000000002d260 .LASF2385
C:\Users\SOLDER~1\AppData\Local\Temp\ccfBhFEg.s:32246  .debug_str:000000000002a9be .LASF2386
C:\Users\SOLDER~1\AppData\Local\Temp\ccfBhFEg.s:31424  .debug_str:0000000000027412 .LASF2387
C:\Users\SOLDER~1\AppData\Local\Temp\ccfBhFEg.s:33062  .debug_str:000000000002ded1 .LASF2388
C:\Users\SOLDER~1\AppData\Local\Temp\ccfBhFEg.s:26942  .debug_str:000000000001538e .LASF2389
C:\Users\SOLDER~1\AppData\Local\Temp\ccfBhFEg.s:23386  .debug_str:0000000000006b96 .LASF2390
C:\Users\SOLDER~1\AppData\Local\Temp\ccfBhFEg.s:25944  .debug_str:00000000000111e3 .LASF2391
C:\Users\SOLDER~1\AppData\Local\Temp\ccfBhFEg.s:29498  .debug_str:000000000001f79a .LASF2392
C:\Users\SOLDER~1\AppData\Local\Temp\ccfBhFEg.s:23348  .debug_str:0000000000006954 .LASF2393
C:\Users\SOLDER~1\AppData\Local\Temp\ccfBhFEg.s:28794  .debug_str:000000000001c9bf .LASF2394
C:\Users\SOLDER~1\AppData\Local\Temp\ccfBhFEg.s:28520  .debug_str:000000000001b83a .LASF2395
C:\Users\SOLDER~1\AppData\Local\Temp\ccfBhFEg.s:22380  .debug_str:0000000000002b18 .LASF2396
C:\Users\SOLDER~1\AppData\Local\Temp\ccfBhFEg.s:25222  .debug_str:000000000000e315 .LASF2397
C:\Users\SOLDER~1\AppData\Local\Temp\ccfBhFEg.s:26566  .debug_str:00000000000139ec .LASF2398
C:\Users\SOLDER~1\AppData\Local\Temp\ccfBhFEg.s:30746  .debug_str:000000000002477f .LASF2399
C:\Users\SOLDER~1\AppData\Local\Temp\ccfBhFEg.s:23858  .debug_str:0000000000008a30 .LASF2400
C:\Users\SOLDER~1\AppData\Local\Temp\ccfBhFEg.s:25434  .debug_str:000000000000f0e4 .LASF2401
C:\Users\SOLDER~1\AppData\Local\Temp\ccfBhFEg.s:26140  .debug_str:0000000000011e3c .LASF2402
C:\Users\SOLDER~1\AppData\Local\Temp\ccfBhFEg.s:30600  .debug_str:0000000000023e2a .LASF2403
C:\Users\SOLDER~1\AppData\Local\Temp\ccfBhFEg.s:25564  .debug_str:000000000000f905 .LASF2404
C:\Users\SOLDER~1\AppData\Local\Temp\ccfBhFEg.s:24572  .debug_str:000000000000b8dd .LASF2405
C:\Users\SOLDER~1\AppData\Local\Temp\ccfBhFEg.s:31052  .debug_str:0000000000025b7f .LASF2406
C:\Users\SOLDER~1\AppData\Local\Temp\ccfBhFEg.s:28622  .debug_str:000000000001be5c .LASF2407
C:\Users\SOLDER~1\AppData\Local\Temp\ccfBhFEg.s:26816  .debug_str:0000000000014b20 .LASF2408
C:\Users\SOLDER~1\AppData\Local\Temp\ccfBhFEg.s:29008  .debug_str:000000000001d7e0 .LASF2409
C:\Users\SOLDER~1\AppData\Local\Temp\ccfBhFEg.s:22906  .debug_str:0000000000004c95 .LASF2410
C:\Users\SOLDER~1\AppData\Local\Temp\ccfBhFEg.s:23342  .debug_str:00000000000068e0 .LASF2411
C:\Users\SOLDER~1\AppData\Local\Temp\ccfBhFEg.s:24472  .debug_str:000000000000b24f .LASF2412
C:\Users\SOLDER~1\AppData\Local\Temp\ccfBhFEg.s:24812  .debug_str:000000000000c87a .LASF2413
C:\Users\SOLDER~1\AppData\Local\Temp\ccfBhFEg.s:29886  .debug_str:0000000000021098 .LASF2414
C:\Users\SOLDER~1\AppData\Local\Temp\ccfBhFEg.s:23490  .debug_str:0000000000007297 .LASF2415
C:\Users\SOLDER~1\AppData\Local\Temp\ccfBhFEg.s:22770  .debug_str:00000000000043ff .LASF2416
C:\Users\SOLDER~1\AppData\Local\Temp\ccfBhFEg.s:28598  .debug_str:000000000001bd24 .LASF2417
C:\Users\SOLDER~1\AppData\Local\Temp\ccfBhFEg.s:25648  .debug_str:000000000000fee0 .LASF2418
C:\Users\SOLDER~1\AppData\Local\Temp\ccfBhFEg.s:28372  .debug_str:000000000001aed7 .LASF2419
C:\Users\SOLDER~1\AppData\Local\Temp\ccfBhFEg.s:29340  .debug_str:000000000001ed3c .LASF2420
C:\Users\SOLDER~1\AppData\Local\Temp\ccfBhFEg.s:21948  .debug_str:0000000000000f5a .LASF2421
C:\Users\SOLDER~1\AppData\Local\Temp\ccfBhFEg.s:22070  .debug_str:0000000000001712 .LASF2422
C:\Users\SOLDER~1\AppData\Local\Temp\ccfBhFEg.s:22954  .debug_str:0000000000004f82 .LASF2423
C:\Users\SOLDER~1\AppData\Local\Temp\ccfBhFEg.s:33088  .debug_str:000000000002e068 .LASF2424
GAS LISTING C:\Users\SOLDER~1\AppData\Local\Temp\ccfBhFEg.s 			page 116


C:\Users\SOLDER~1\AppData\Local\Temp\ccfBhFEg.s:24596  .debug_str:000000000000ba33 .LASF2425
C:\Users\SOLDER~1\AppData\Local\Temp\ccfBhFEg.s:26700  .debug_str:0000000000014361 .LASF2426
C:\Users\SOLDER~1\AppData\Local\Temp\ccfBhFEg.s:29328  .debug_str:000000000001ec71 .LASF2427
C:\Users\SOLDER~1\AppData\Local\Temp\ccfBhFEg.s:23338  .debug_str:00000000000068a0 .LASF2428
C:\Users\SOLDER~1\AppData\Local\Temp\ccfBhFEg.s:22072  .debug_str:0000000000001734 .LASF2429
C:\Users\SOLDER~1\AppData\Local\Temp\ccfBhFEg.s:26896  .debug_str:00000000000150a7 .LASF2430
C:\Users\SOLDER~1\AppData\Local\Temp\ccfBhFEg.s:29024  .debug_str:000000000001d8fc .LASF2431
C:\Users\SOLDER~1\AppData\Local\Temp\ccfBhFEg.s:21764  .debug_str:0000000000000261 .LASF2432
C:\Users\SOLDER~1\AppData\Local\Temp\ccfBhFEg.s:21950  .debug_str:0000000000000f72 .LASF2433
C:\Users\SOLDER~1\AppData\Local\Temp\ccfBhFEg.s:28596  .debug_str:000000000001bcff .LASF2434
C:\Users\SOLDER~1\AppData\Local\Temp\ccfBhFEg.s:32692  .debug_str:000000000002c697 .LASF2435
C:\Users\SOLDER~1\AppData\Local\Temp\ccfBhFEg.s:22222  .debug_str:00000000000020ec .LASF2436
C:\Users\SOLDER~1\AppData\Local\Temp\ccfBhFEg.s:32992  .debug_str:000000000002da47 .LASF2437
C:\Users\SOLDER~1\AppData\Local\Temp\ccfBhFEg.s:31154  .debug_str:000000000002623b .LASF2438
C:\Users\SOLDER~1\AppData\Local\Temp\ccfBhFEg.s:32314  .debug_str:000000000002adf1 .LASF2439
C:\Users\SOLDER~1\AppData\Local\Temp\ccfBhFEg.s:25882  .debug_str:0000000000010e14 .LASF2440
C:\Users\SOLDER~1\AppData\Local\Temp\ccfBhFEg.s:24994  .debug_str:000000000000d481 .LASF2441
C:\Users\SOLDER~1\AppData\Local\Temp\ccfBhFEg.s:27406  .debug_str:0000000000017081 .LASF2442
C:\Users\SOLDER~1\AppData\Local\Temp\ccfBhFEg.s:33070  .debug_str:000000000002df59 .LASF2443
C:\Users\SOLDER~1\AppData\Local\Temp\ccfBhFEg.s:22474  .debug_str:000000000000310c .LASF2444
C:\Users\SOLDER~1\AppData\Local\Temp\ccfBhFEg.s:24996  .debug_str:000000000000d497 .LASF2445
C:\Users\SOLDER~1\AppData\Local\Temp\ccfBhFEg.s:29126  .debug_str:000000000001df11 .LASF2446
C:\Users\SOLDER~1\AppData\Local\Temp\ccfBhFEg.s:24678  .debug_str:000000000000bf84 .LASF2447
C:\Users\SOLDER~1\AppData\Local\Temp\ccfBhFEg.s:29924  .debug_str:00000000000212fc .LASF2448
C:\Users\SOLDER~1\AppData\Local\Temp\ccfBhFEg.s:29662  .debug_str:0000000000020255 .LASF2449
C:\Users\SOLDER~1\AppData\Local\Temp\ccfBhFEg.s:26890  .debug_str:0000000000015052 .LASF2450
C:\Users\SOLDER~1\AppData\Local\Temp\ccfBhFEg.s:27262  .debug_str:00000000000167cb .LASF2451
C:\Users\SOLDER~1\AppData\Local\Temp\ccfBhFEg.s:26456  .debug_str:000000000001327e .LASF2452
C:\Users\SOLDER~1\AppData\Local\Temp\ccfBhFEg.s:30766  .debug_str:00000000000248d3 .LASF2453
C:\Users\SOLDER~1\AppData\Local\Temp\ccfBhFEg.s:25080  .debug_str:000000000000da08 .LASF2454
C:\Users\SOLDER~1\AppData\Local\Temp\ccfBhFEg.s:32424  .debug_str:000000000002b4dd .LASF2455
C:\Users\SOLDER~1\AppData\Local\Temp\ccfBhFEg.s:30956  .debug_str:000000000002558f .LASF2456
C:\Users\SOLDER~1\AppData\Local\Temp\ccfBhFEg.s:25302  .debug_str:000000000000e8b4 .LASF2457
C:\Users\SOLDER~1\AppData\Local\Temp\ccfBhFEg.s:31792  .debug_str:0000000000028c15 .LASF2458
C:\Users\SOLDER~1\AppData\Local\Temp\ccfBhFEg.s:25000  .debug_str:000000000000d4d4 .LASF2459
C:\Users\SOLDER~1\AppData\Local\Temp\ccfBhFEg.s:29796  .debug_str:0000000000020abb .LASF2460
C:\Users\SOLDER~1\AppData\Local\Temp\ccfBhFEg.s:22174  .debug_str:0000000000001dfb .LASF2461
C:\Users\SOLDER~1\AppData\Local\Temp\ccfBhFEg.s:31266  .debug_str:00000000000269ce .LASF2462
C:\Users\SOLDER~1\AppData\Local\Temp\ccfBhFEg.s:24856  .debug_str:000000000000cb5b .LASF2463
C:\Users\SOLDER~1\AppData\Local\Temp\ccfBhFEg.s:31488  .debug_str:000000000002783d .LASF2464
C:\Users\SOLDER~1\AppData\Local\Temp\ccfBhFEg.s:27254  .debug_str:0000000000016750 .LASF2465
C:\Users\SOLDER~1\AppData\Local\Temp\ccfBhFEg.s:25124  .debug_str:000000000000dcf3 .LASF2466
C:\Users\SOLDER~1\AppData\Local\Temp\ccfBhFEg.s:25576  .debug_str:000000000000f9de .LASF2467
C:\Users\SOLDER~1\AppData\Local\Temp\ccfBhFEg.s:23760  .debug_str:00000000000083fb .LASF2468
C:\Users\SOLDER~1\AppData\Local\Temp\ccfBhFEg.s:22666  .debug_str:0000000000003d6b .LASF2469
C:\Users\SOLDER~1\AppData\Local\Temp\ccfBhFEg.s:28784  .debug_str:000000000001c922 .LASF2470
C:\Users\SOLDER~1\AppData\Local\Temp\ccfBhFEg.s:31202  .debug_str:00000000000265a6 .LASF2471
C:\Users\SOLDER~1\AppData\Local\Temp\ccfBhFEg.s:30222  .debug_str:00000000000225df .LASF2472
C:\Users\SOLDER~1\AppData\Local\Temp\ccfBhFEg.s:28664  .debug_str:000000000001c10e .LASF2473
C:\Users\SOLDER~1\AppData\Local\Temp\ccfBhFEg.s:32064  .debug_str:0000000000029d9f .LASF2474
C:\Users\SOLDER~1\AppData\Local\Temp\ccfBhFEg.s:32814  .debug_str:000000000002ce91 .LASF2475
C:\Users\SOLDER~1\AppData\Local\Temp\ccfBhFEg.s:33444  .debug_str:000000000002f6aa .LASF2476
C:\Users\SOLDER~1\AppData\Local\Temp\ccfBhFEg.s:32504  .debug_str:000000000002ba37 .LASF2477
C:\Users\SOLDER~1\AppData\Local\Temp\ccfBhFEg.s:22598  .debug_str:000000000000390c .LASF2478
C:\Users\SOLDER~1\AppData\Local\Temp\ccfBhFEg.s:30966  .debug_str:0000000000025642 .LASF2479
C:\Users\SOLDER~1\AppData\Local\Temp\ccfBhFEg.s:29670  .debug_str:00000000000202d0 .LASF2480
C:\Users\SOLDER~1\AppData\Local\Temp\ccfBhFEg.s:25074  .debug_str:000000000000d9b4 .LASF2481
GAS LISTING C:\Users\SOLDER~1\AppData\Local\Temp\ccfBhFEg.s 			page 117


C:\Users\SOLDER~1\AppData\Local\Temp\ccfBhFEg.s:30726  .debug_str:000000000002462b .LASF2482
C:\Users\SOLDER~1\AppData\Local\Temp\ccfBhFEg.s:26824  .debug_str:0000000000014b98 .LASF2483
C:\Users\SOLDER~1\AppData\Local\Temp\ccfBhFEg.s:30028  .debug_str:00000000000219d3 .LASF2484
C:\Users\SOLDER~1\AppData\Local\Temp\ccfBhFEg.s:28462  .debug_str:000000000001b4b9 .LASF2485
C:\Users\SOLDER~1\AppData\Local\Temp\ccfBhFEg.s:23640  .debug_str:0000000000007bdb .LASF2486
C:\Users\SOLDER~1\AppData\Local\Temp\ccfBhFEg.s:31230  .debug_str:000000000002675f .LASF2487
C:\Users\SOLDER~1\AppData\Local\Temp\ccfBhFEg.s:28536  .debug_str:000000000001b926 .LASF2488
C:\Users\SOLDER~1\AppData\Local\Temp\ccfBhFEg.s:27974  .debug_str:00000000000195df .LASF2489
C:\Users\SOLDER~1\AppData\Local\Temp\ccfBhFEg.s:32740  .debug_str:000000000002c9db .LASF2490
C:\Users\SOLDER~1\AppData\Local\Temp\ccfBhFEg.s:32732  .debug_str:000000000002c96e .LASF2491
C:\Users\SOLDER~1\AppData\Local\Temp\ccfBhFEg.s:28144  .debug_str:000000000001a073 .LASF2492
C:\Users\SOLDER~1\AppData\Local\Temp\ccfBhFEg.s:33364  .debug_str:000000000002f1e5 .LASF2493
C:\Users\SOLDER~1\AppData\Local\Temp\ccfBhFEg.s:22690  .debug_str:0000000000003ef2 .LASF2494
C:\Users\SOLDER~1\AppData\Local\Temp\ccfBhFEg.s:28660  .debug_str:000000000001c0d4 .LASF2495
C:\Users\SOLDER~1\AppData\Local\Temp\ccfBhFEg.s:28046  .debug_str:0000000000019a9d .LASF2496
C:\Users\SOLDER~1\AppData\Local\Temp\ccfBhFEg.s:29846  .debug_str:0000000000020df9 .LASF2497
C:\Users\SOLDER~1\AppData\Local\Temp\ccfBhFEg.s:28090  .debug_str:0000000000019d7c .LASF2498
C:\Users\SOLDER~1\AppData\Local\Temp\ccfBhFEg.s:31156  .debug_str:000000000002625d .LASF2499
C:\Users\SOLDER~1\AppData\Local\Temp\ccfBhFEg.s:31794  .debug_str:0000000000028c38 .LASF2500
C:\Users\SOLDER~1\AppData\Local\Temp\ccfBhFEg.s:28188  .debug_str:000000000001a34f .LASF2501
C:\Users\SOLDER~1\AppData\Local\Temp\ccfBhFEg.s:32756  .debug_str:000000000002cae7 .LASF2502
C:\Users\SOLDER~1\AppData\Local\Temp\ccfBhFEg.s:24744  .debug_str:000000000000c398 .LASF2503
C:\Users\SOLDER~1\AppData\Local\Temp\ccfBhFEg.s:27718  .debug_str:0000000000018553 .LASF2504
C:\Users\SOLDER~1\AppData\Local\Temp\ccfBhFEg.s:28922  .debug_str:000000000001d214 .LASF2505
C:\Users\SOLDER~1\AppData\Local\Temp\ccfBhFEg.s:26108  .debug_str:0000000000011c35 .LASF2506
C:\Users\SOLDER~1\AppData\Local\Temp\ccfBhFEg.s:28532  .debug_str:000000000001b8eb .LASF2507
C:\Users\SOLDER~1\AppData\Local\Temp\ccfBhFEg.s:26914  .debug_str:00000000000151db .LASF2508
C:\Users\SOLDER~1\AppData\Local\Temp\ccfBhFEg.s:24256  .debug_str:000000000000a440 .LASF2509
C:\Users\SOLDER~1\AppData\Local\Temp\ccfBhFEg.s:23964  .debug_str:0000000000009162 .LASF2510
C:\Users\SOLDER~1\AppData\Local\Temp\ccfBhFEg.s:21874  .debug_str:0000000000000a5e .LASF2511
C:\Users\SOLDER~1\AppData\Local\Temp\ccfBhFEg.s:23300  .debug_str:00000000000065cb .LASF2512
C:\Users\SOLDER~1\AppData\Local\Temp\ccfBhFEg.s:22886  .debug_str:0000000000004b41 .LASF2513
C:\Users\SOLDER~1\AppData\Local\Temp\ccfBhFEg.s:22626  .debug_str:0000000000003ad7 .LASF2514
C:\Users\SOLDER~1\AppData\Local\Temp\ccfBhFEg.s:24530  .debug_str:000000000000b614 .LASF2515
C:\Users\SOLDER~1\AppData\Local\Temp\ccfBhFEg.s:28000  .debug_str:0000000000019774 .LASF2516
C:\Users\SOLDER~1\AppData\Local\Temp\ccfBhFEg.s:23058  .debug_str:00000000000055bb .LASF2517
C:\Users\SOLDER~1\AppData\Local\Temp\ccfBhFEg.s:25324  .debug_str:000000000000e9f3 .LASF2518
C:\Users\SOLDER~1\AppData\Local\Temp\ccfBhFEg.s:30912  .debug_str:000000000002529e .LASF2519
C:\Users\SOLDER~1\AppData\Local\Temp\ccfBhFEg.s:24016  .debug_str:00000000000094c0 .LASF2520
C:\Users\SOLDER~1\AppData\Local\Temp\ccfBhFEg.s:32426  .debug_str:000000000002b4f5 .LASF2521
C:\Users\SOLDER~1\AppData\Local\Temp\ccfBhFEg.s:24820  .debug_str:000000000000c8f0 .LASF2522
C:\Users\SOLDER~1\AppData\Local\Temp\ccfBhFEg.s:30684  .debug_str:0000000000024378 .LASF2523
C:\Users\SOLDER~1\AppData\Local\Temp\ccfBhFEg.s:25646  .debug_str:000000000000febb .LASF2524
C:\Users\SOLDER~1\AppData\Local\Temp\ccfBhFEg.s:31338  .debug_str:0000000000026e89 .LASF2525
C:\Users\SOLDER~1\AppData\Local\Temp\ccfBhFEg.s:22908  .debug_str:0000000000004cba .LASF2526
C:\Users\SOLDER~1\AppData\Local\Temp\ccfBhFEg.s:22528  .debug_str:00000000000034a1 .LASF2527
C:\Users\SOLDER~1\AppData\Local\Temp\ccfBhFEg.s:30072  .debug_str:0000000000021caf .LASF2528
C:\Users\SOLDER~1\AppData\Local\Temp\ccfBhFEg.s:28018  .debug_str:00000000000198ad .LASF2529
C:\Users\SOLDER~1\AppData\Local\Temp\ccfBhFEg.s:22984  .debug_str:000000000000512f .LASF2530
C:\Users\SOLDER~1\AppData\Local\Temp\ccfBhFEg.s:31872  .debug_str:000000000002915d .LASF2531
C:\Users\SOLDER~1\AppData\Local\Temp\ccfBhFEg.s:22934  .debug_str:0000000000004e4f .LASF2532
C:\Users\SOLDER~1\AppData\Local\Temp\ccfBhFEg.s:33216  .debug_str:000000000002e858 .LASF2533
C:\Users\SOLDER~1\AppData\Local\Temp\ccfBhFEg.s:22132  .debug_str:0000000000001b05 .LASF2534
C:\Users\SOLDER~1\AppData\Local\Temp\ccfBhFEg.s:22792  .debug_str:0000000000004561 .LASF2535
C:\Users\SOLDER~1\AppData\Local\Temp\ccfBhFEg.s:28194  .debug_str:000000000001a39b .LASF2536
C:\Users\SOLDER~1\AppData\Local\Temp\ccfBhFEg.s:29776  .debug_str:0000000000020981 .LASF2537
C:\Users\SOLDER~1\AppData\Local\Temp\ccfBhFEg.s:22450  .debug_str:0000000000002fa1 .LASF2538
GAS LISTING C:\Users\SOLDER~1\AppData\Local\Temp\ccfBhFEg.s 			page 118


C:\Users\SOLDER~1\AppData\Local\Temp\ccfBhFEg.s:25550  .debug_str:000000000000f833 .LASF2539
C:\Users\SOLDER~1\AppData\Local\Temp\ccfBhFEg.s:28506  .debug_str:000000000001b747 .LASF2540
C:\Users\SOLDER~1\AppData\Local\Temp\ccfBhFEg.s:32474  .debug_str:000000000002b889 .LASF2541
C:\Users\SOLDER~1\AppData\Local\Temp\ccfBhFEg.s:22684  .debug_str:0000000000003e8e .LASF2542
C:\Users\SOLDER~1\AppData\Local\Temp\ccfBhFEg.s:28230  .debug_str:000000000001a5d4 .LASF2543
C:\Users\SOLDER~1\AppData\Local\Temp\ccfBhFEg.s:26292  .debug_str:00000000000127a8 .LASF2544
C:\Users\SOLDER~1\AppData\Local\Temp\ccfBhFEg.s:21956  .debug_str:0000000000000fcf .LASF2545
C:\Users\SOLDER~1\AppData\Local\Temp\ccfBhFEg.s:32592  .debug_str:000000000002c009 .LASF2546
C:\Users\SOLDER~1\AppData\Local\Temp\ccfBhFEg.s:23558  .debug_str:00000000000076be .LASF2547
C:\Users\SOLDER~1\AppData\Local\Temp\ccfBhFEg.s:31780  .debug_str:0000000000028b5c .LASF2548
C:\Users\SOLDER~1\AppData\Local\Temp\ccfBhFEg.s:25196  .debug_str:000000000000e15b .LASF2549
C:\Users\SOLDER~1\AppData\Local\Temp\ccfBhFEg.s:31126  .debug_str:0000000000026070 .LASF2550
C:\Users\SOLDER~1\AppData\Local\Temp\ccfBhFEg.s:26742  .debug_str:0000000000014658 .LASF2551
C:\Users\SOLDER~1\AppData\Local\Temp\ccfBhFEg.s:24474  .debug_str:000000000000b26f .LASF2552
C:\Users\SOLDER~1\AppData\Local\Temp\ccfBhFEg.s:28382  .debug_str:000000000001af4f .LASF2553
C:\Users\SOLDER~1\AppData\Local\Temp\ccfBhFEg.s:24330  .debug_str:000000000000a95a .LASF2554
C:\Users\SOLDER~1\AppData\Local\Temp\ccfBhFEg.s:29874  .debug_str:0000000000020fd1 .LASF2555
C:\Users\SOLDER~1\AppData\Local\Temp\ccfBhFEg.s:23024  .debug_str:00000000000053c7 .LASF2556
C:\Users\SOLDER~1\AppData\Local\Temp\ccfBhFEg.s:28100  .debug_str:0000000000019df7 .LASF2557
C:\Users\SOLDER~1\AppData\Local\Temp\ccfBhFEg.s:28146  .debug_str:000000000001a096 .LASF2558
C:\Users\SOLDER~1\AppData\Local\Temp\ccfBhFEg.s:28476  .debug_str:000000000001b590 .LASF2559
C:\Users\SOLDER~1\AppData\Local\Temp\ccfBhFEg.s:29324  .debug_str:000000000001ec29 .LASF2560
C:\Users\SOLDER~1\AppData\Local\Temp\ccfBhFEg.s:29972  .debug_str:0000000000021646 .LASF2561
C:\Users\SOLDER~1\AppData\Local\Temp\ccfBhFEg.s:27722  .debug_str:000000000001859e .LASF2562
C:\Users\SOLDER~1\AppData\Local\Temp\ccfBhFEg.s:31598  .debug_str:0000000000027f7b .LASF2563
C:\Users\SOLDER~1\AppData\Local\Temp\ccfBhFEg.s:32820  .debug_str:000000000002ced2 .LASF2564
C:\Users\SOLDER~1\AppData\Local\Temp\ccfBhFEg.s:33252  .debug_str:000000000002ea81 .LASF2565
C:\Users\SOLDER~1\AppData\Local\Temp\ccfBhFEg.s:26152  .debug_str:0000000000011f05 .LASF2566
C:\Users\SOLDER~1\AppData\Local\Temp\ccfBhFEg.s:23030  .debug_str:0000000000005420 .LASF2567
C:\Users\SOLDER~1\AppData\Local\Temp\ccfBhFEg.s:31024  .debug_str:00000000000259bc .LASF2568
C:\Users\SOLDER~1\AppData\Local\Temp\ccfBhFEg.s:24682  .debug_str:000000000000bfc1 .LASF2569
C:\Users\SOLDER~1\AppData\Local\Temp\ccfBhFEg.s:24708  .debug_str:000000000000c14b .LASF2570
C:\Users\SOLDER~1\AppData\Local\Temp\ccfBhFEg.s:26312  .debug_str:0000000000012935 .LASF2571
C:\Users\SOLDER~1\AppData\Local\Temp\ccfBhFEg.s:29764  .debug_str:00000000000208a6 .LASF2572
C:\Users\SOLDER~1\AppData\Local\Temp\ccfBhFEg.s:29210  .debug_str:000000000001e4c8 .LASF2573
C:\Users\SOLDER~1\AppData\Local\Temp\ccfBhFEg.s:22406  .debug_str:0000000000002c87 .LASF2574
C:\Users\SOLDER~1\AppData\Local\Temp\ccfBhFEg.s:27316  .debug_str:0000000000016af8 .LASF2575
C:\Users\SOLDER~1\AppData\Local\Temp\ccfBhFEg.s:28558  .debug_str:000000000001ba93 .LASF2576
C:\Users\SOLDER~1\AppData\Local\Temp\ccfBhFEg.s:25354  .debug_str:000000000000ec06 .LASF2577
C:\Users\SOLDER~1\AppData\Local\Temp\ccfBhFEg.s:29216  .debug_str:000000000001e518 .LASF2578
C:\Users\SOLDER~1\AppData\Local\Temp\ccfBhFEg.s:23406  .debug_str:0000000000006cd2 .LASF2579
C:\Users\SOLDER~1\AppData\Local\Temp\ccfBhFEg.s:24826  .debug_str:000000000000c950 .LASF2580
C:\Users\SOLDER~1\AppData\Local\Temp\ccfBhFEg.s:33226  .debug_str:000000000002e8e6 .LASF2581
C:\Users\SOLDER~1\AppData\Local\Temp\ccfBhFEg.s:29410  .debug_str:000000000001f1b7 .LASF2582
C:\Users\SOLDER~1\AppData\Local\Temp\ccfBhFEg.s:31264  .debug_str:00000000000269b5 .LASF2583
C:\Users\SOLDER~1\AppData\Local\Temp\ccfBhFEg.s:30020  .debug_str:000000000002195f .LASF2584
C:\Users\SOLDER~1\AppData\Local\Temp\ccfBhFEg.s:29368  .debug_str:000000000001ef1a .LASF2585
C:\Users\SOLDER~1\AppData\Local\Temp\ccfBhFEg.s:25482  .debug_str:000000000000f3cf .LASF2586
C:\Users\SOLDER~1\AppData\Local\Temp\ccfBhFEg.s:27478  .debug_str:0000000000017522 .LASF2587
C:\Users\SOLDER~1\AppData\Local\Temp\ccfBhFEg.s:22042  .debug_str:000000000000154d .LASF2588
C:\Users\SOLDER~1\AppData\Local\Temp\ccfBhFEg.s:25518  .debug_str:000000000000f624 .LASF2589
C:\Users\SOLDER~1\AppData\Local\Temp\ccfBhFEg.s:25294  .debug_str:000000000000e826 .LASF2590
C:\Users\SOLDER~1\AppData\Local\Temp\ccfBhFEg.s:28342  .debug_str:000000000001acf7 .LASF2591
C:\Users\SOLDER~1\AppData\Local\Temp\ccfBhFEg.s:22966  .debug_str:000000000000502a .LASF2592
C:\Users\SOLDER~1\AppData\Local\Temp\ccfBhFEg.s:29612  .debug_str:000000000001ff31 .LASF2593
C:\Users\SOLDER~1\AppData\Local\Temp\ccfBhFEg.s:29306  .debug_str:000000000001eac9 .LASF2594
C:\Users\SOLDER~1\AppData\Local\Temp\ccfBhFEg.s:27902  .debug_str:0000000000019100 .LASF2595
GAS LISTING C:\Users\SOLDER~1\AppData\Local\Temp\ccfBhFEg.s 			page 119


C:\Users\SOLDER~1\AppData\Local\Temp\ccfBhFEg.s:22148  .debug_str:0000000000001c29 .LASF2596
C:\Users\SOLDER~1\AppData\Local\Temp\ccfBhFEg.s:26194  .debug_str:00000000000121ae .LASF2597
C:\Users\SOLDER~1\AppData\Local\Temp\ccfBhFEg.s:26836  .debug_str:0000000000014c7b .LASF2598
C:\Users\SOLDER~1\AppData\Local\Temp\ccfBhFEg.s:24518  .debug_str:000000000000b546 .LASF2599
C:\Users\SOLDER~1\AppData\Local\Temp\ccfBhFEg.s:28928  .debug_str:000000000001d279 .LASF2600
C:\Users\SOLDER~1\AppData\Local\Temp\ccfBhFEg.s:22748  .debug_str:00000000000042af .LASF2601
C:\Users\SOLDER~1\AppData\Local\Temp\ccfBhFEg.s:25032  .debug_str:000000000000d6ee .LASF2602
C:\Users\SOLDER~1\AppData\Local\Temp\ccfBhFEg.s:32836  .debug_str:000000000002cfcc .LASF2603
C:\Users\SOLDER~1\AppData\Local\Temp\ccfBhFEg.s:28390  .debug_str:000000000001afce .LASF2604
C:\Users\SOLDER~1\AppData\Local\Temp\ccfBhFEg.s:31138  .debug_str:0000000000026133 .LASF2605
C:\Users\SOLDER~1\AppData\Local\Temp\ccfBhFEg.s:23634  .debug_str:0000000000007b64 .LASF2606
C:\Users\SOLDER~1\AppData\Local\Temp\ccfBhFEg.s:29414  .debug_str:000000000001f202 .LASF2607
C:\Users\SOLDER~1\AppData\Local\Temp\ccfBhFEg.s:33276  .debug_str:000000000002ebf1 .LASF2608
C:\Users\SOLDER~1\AppData\Local\Temp\ccfBhFEg.s:27798  .debug_str:0000000000018a4b .LASF2609
C:\Users\SOLDER~1\AppData\Local\Temp\ccfBhFEg.s:26800  .debug_str:0000000000014a2e .LASF2610
C:\Users\SOLDER~1\AppData\Local\Temp\ccfBhFEg.s:26100  .debug_str:0000000000011ba1 .LASF2611
C:\Users\SOLDER~1\AppData\Local\Temp\ccfBhFEg.s:32102  .debug_str:0000000000029fdc .LASF2612
C:\Users\SOLDER~1\AppData\Local\Temp\ccfBhFEg.s:25610  .debug_str:000000000000fc53 .LASF2613
C:\Users\SOLDER~1\AppData\Local\Temp\ccfBhFEg.s:22752  .debug_str:00000000000042e4 .LASF2614
C:\Users\SOLDER~1\AppData\Local\Temp\ccfBhFEg.s:21814  .debug_str:000000000000059f .LASF2615
C:\Users\SOLDER~1\AppData\Local\Temp\ccfBhFEg.s:28806  .debug_str:000000000001ca71 .LASF2616
C:\Users\SOLDER~1\AppData\Local\Temp\ccfBhFEg.s:31576  .debug_str:0000000000027e24 .LASF2617
C:\Users\SOLDER~1\AppData\Local\Temp\ccfBhFEg.s:23276  .debug_str:0000000000006434 .LASF2618
C:\Users\SOLDER~1\AppData\Local\Temp\ccfBhFEg.s:29658  .debug_str:0000000000020210 .LASF2619
C:\Users\SOLDER~1\AppData\Local\Temp\ccfBhFEg.s:29716  .debug_str:00000000000205b7 .LASF2620
C:\Users\SOLDER~1\AppData\Local\Temp\ccfBhFEg.s:27820  .debug_str:0000000000018bb3 .LASF2621
C:\Users\SOLDER~1\AppData\Local\Temp\ccfBhFEg.s:29668  .debug_str:00000000000202aa .LASF2622
C:\Users\SOLDER~1\AppData\Local\Temp\ccfBhFEg.s:24964  .debug_str:000000000000d28a .LASF2623
C:\Users\SOLDER~1\AppData\Local\Temp\ccfBhFEg.s:30370  .debug_str:0000000000022f31 .LASF2624
C:\Users\SOLDER~1\AppData\Local\Temp\ccfBhFEg.s:23880  .debug_str:0000000000008be1 .LASF2625
C:\Users\SOLDER~1\AppData\Local\Temp\ccfBhFEg.s:25856  .debug_str:0000000000010c54 .LASF2626
C:\Users\SOLDER~1\AppData\Local\Temp\ccfBhFEg.s:21974  .debug_str:00000000000010de .LASF2627
C:\Users\SOLDER~1\AppData\Local\Temp\ccfBhFEg.s:22382  .debug_str:0000000000002b3a .LASF2628
C:\Users\SOLDER~1\AppData\Local\Temp\ccfBhFEg.s:31736  .debug_str:0000000000028890 .LASF2629
C:\Users\SOLDER~1\AppData\Local\Temp\ccfBhFEg.s:32228  .debug_str:000000000002a893 .LASF2630
C:\Users\SOLDER~1\AppData\Local\Temp\ccfBhFEg.s:29896  .debug_str:0000000000021150 .LASF2631
C:\Users\SOLDER~1\AppData\Local\Temp\ccfBhFEg.s:23232  .debug_str:000000000000614c .LASF2632
C:\Users\SOLDER~1\AppData\Local\Temp\ccfBhFEg.s:33408  .debug_str:000000000002f467 .LASF2633
C:\Users\SOLDER~1\AppData\Local\Temp\ccfBhFEg.s:26014  .debug_str:0000000000011622 .LASF2634
C:\Users\SOLDER~1\AppData\Local\Temp\ccfBhFEg.s:25396  .debug_str:000000000000ee73 .LASF2635
C:\Users\SOLDER~1\AppData\Local\Temp\ccfBhFEg.s:30526  .debug_str:0000000000023927 .LASF2636
C:\Users\SOLDER~1\AppData\Local\Temp\ccfBhFEg.s:31664  .debug_str:00000000000283d9 .LASF2637
C:\Users\SOLDER~1\AppData\Local\Temp\ccfBhFEg.s:29596  .debug_str:000000000001fe3f .LASF2638
C:\Users\SOLDER~1\AppData\Local\Temp\ccfBhFEg.s:22074  .debug_str:0000000000001759 .LASF2639
C:\Users\SOLDER~1\AppData\Local\Temp\ccfBhFEg.s:27570  .debug_str:0000000000017b89 .LASF2640
C:\Users\SOLDER~1\AppData\Local\Temp\ccfBhFEg.s:32126  .debug_str:000000000002a180 .LASF2641
C:\Users\SOLDER~1\AppData\Local\Temp\ccfBhFEg.s:23512  .debug_str:00000000000073eb .LASF2642
C:\Users\SOLDER~1\AppData\Local\Temp\ccfBhFEg.s:30334  .debug_str:0000000000022cbd .LASF2643
C:\Users\SOLDER~1\AppData\Local\Temp\ccfBhFEg.s:25046  .debug_str:000000000000d7ee .LASF2644
C:\Users\SOLDER~1\AppData\Local\Temp\ccfBhFEg.s:28718  .debug_str:000000000001c4c0 .LASF2645
C:\Users\SOLDER~1\AppData\Local\Temp\ccfBhFEg.s:27020  .debug_str:00000000000158c9 .LASF2646
C:\Users\SOLDER~1\AppData\Local\Temp\ccfBhFEg.s:27058  .debug_str:0000000000015b47 .LASF2647
C:\Users\SOLDER~1\AppData\Local\Temp\ccfBhFEg.s:29934  .debug_str:00000000000213b9 .LASF2648
C:\Users\SOLDER~1\AppData\Local\Temp\ccfBhFEg.s:25286  .debug_str:000000000000e7ab .LASF2649
C:\Users\SOLDER~1\AppData\Local\Temp\ccfBhFEg.s:31608  .debug_str:0000000000027ff6 .LASF2650
C:\Users\SOLDER~1\AppData\Local\Temp\ccfBhFEg.s:23624  .debug_str:0000000000007adf .LASF2651
C:\Users\SOLDER~1\AppData\Local\Temp\ccfBhFEg.s:28780  .debug_str:000000000001c8d7 .LASF2652
GAS LISTING C:\Users\SOLDER~1\AppData\Local\Temp\ccfBhFEg.s 			page 120


C:\Users\SOLDER~1\AppData\Local\Temp\ccfBhFEg.s:24238  .debug_str:000000000000a319 .LASF2653
C:\Users\SOLDER~1\AppData\Local\Temp\ccfBhFEg.s:22350  .debug_str:0000000000002960 .LASF2654
C:\Users\SOLDER~1\AppData\Local\Temp\ccfBhFEg.s:22330  .debug_str:00000000000027ef .LASF2655
C:\Users\SOLDER~1\AppData\Local\Temp\ccfBhFEg.s:28500  .debug_str:000000000001b6e2 .LASF2656
C:\Users\SOLDER~1\AppData\Local\Temp\ccfBhFEg.s:30440  .debug_str:00000000000233d9 .LASF2657
C:\Users\SOLDER~1\AppData\Local\Temp\ccfBhFEg.s:23072  .debug_str:0000000000005695 .LASF2658
C:\Users\SOLDER~1\AppData\Local\Temp\ccfBhFEg.s:30180  .debug_str:000000000002234e .LASF2659
C:\Users\SOLDER~1\AppData\Local\Temp\ccfBhFEg.s:29294  .debug_str:000000000001e9fc .LASF2660
C:\Users\SOLDER~1\AppData\Local\Temp\ccfBhFEg.s:28306  .debug_str:000000000001aab1 .LASF2661
C:\Users\SOLDER~1\AppData\Local\Temp\ccfBhFEg.s:29260  .debug_str:000000000001e7d7 .LASF2662
C:\Users\SOLDER~1\AppData\Local\Temp\ccfBhFEg.s:26346  .debug_str:0000000000012b32 .LASF2663
C:\Users\SOLDER~1\AppData\Local\Temp\ccfBhFEg.s:29968  .debug_str:00000000000215e6 .LASF2664
C:\Users\SOLDER~1\AppData\Local\Temp\ccfBhFEg.s:24412  .debug_str:000000000000ae75 .LASF2665
C:\Users\SOLDER~1\AppData\Local\Temp\ccfBhFEg.s:25422  .debug_str:000000000000f01c .LASF2666
C:\Users\SOLDER~1\AppData\Local\Temp\ccfBhFEg.s:22490  .debug_str:0000000000003231 .LASF2667
C:\Users\SOLDER~1\AppData\Local\Temp\ccfBhFEg.s:21994  .debug_str:000000000000122f .LASF2668
C:\Users\SOLDER~1\AppData\Local\Temp\ccfBhFEg.s:22814  .debug_str:00000000000046c0 .LASF2669
C:\Users\SOLDER~1\AppData\Local\Temp\ccfBhFEg.s:30870  .debug_str:0000000000024fd5 .LASF2670
C:\Users\SOLDER~1\AppData\Local\Temp\ccfBhFEg.s:30324  .debug_str:0000000000022c37 .LASF2671
C:\Users\SOLDER~1\AppData\Local\Temp\ccfBhFEg.s:22910  .debug_str:0000000000004cda .LASF2672
C:\Users\SOLDER~1\AppData\Local\Temp\ccfBhFEg.s:31028  .debug_str:00000000000259ff .LASF2673
C:\Users\SOLDER~1\AppData\Local\Temp\ccfBhFEg.s:30046  .debug_str:0000000000021b07 .LASF2674
C:\Users\SOLDER~1\AppData\Local\Temp\ccfBhFEg.s:29392  .debug_str:000000000001f0a9 .LASF2675
C:\Users\SOLDER~1\AppData\Local\Temp\ccfBhFEg.s:28148  .debug_str:000000000001a0bb .LASF2676
C:\Users\SOLDER~1\AppData\Local\Temp\ccfBhFEg.s:27772  .debug_str:00000000000188ad .LASF2677
C:\Users\SOLDER~1\AppData\Local\Temp\ccfBhFEg.s:27178  .debug_str:0000000000016262 .LASF2678
C:\Users\SOLDER~1\AppData\Local\Temp\ccfBhFEg.s:26078  .debug_str:0000000000011a4d .LASF2679
C:\Users\SOLDER~1\AppData\Local\Temp\ccfBhFEg.s:23242  .debug_str:00000000000061f7 .LASF2680
C:\Users\SOLDER~1\AppData\Local\Temp\ccfBhFEg.s:24284  .debug_str:000000000000a610 .LASF2681
C:\Users\SOLDER~1\AppData\Local\Temp\ccfBhFEg.s:32900  .debug_str:000000000002d3e5 .LASF2682
C:\Users\SOLDER~1\AppData\Local\Temp\ccfBhFEg.s:22646  .debug_str:0000000000003c35 .LASF2683
C:\Users\SOLDER~1\AppData\Local\Temp\ccfBhFEg.s:22682  .debug_str:0000000000003e67 .LASF2684
C:\Users\SOLDER~1\AppData\Local\Temp\ccfBhFEg.s:29332  .debug_str:000000000001ecb4 .LASF2685
C:\Users\SOLDER~1\AppData\Local\Temp\ccfBhFEg.s:29610  .debug_str:000000000001ff0a .LASF2686
C:\Users\SOLDER~1\AppData\Local\Temp\ccfBhFEg.s:30922  .debug_str:000000000002534b .LASF2687
C:\Users\SOLDER~1\AppData\Local\Temp\ccfBhFEg.s:27650  .debug_str:00000000000180b3 .LASF2688
C:\Users\SOLDER~1\AppData\Local\Temp\ccfBhFEg.s:29284  .debug_str:000000000001e967 .LASF2689
C:\Users\SOLDER~1\AppData\Local\Temp\ccfBhFEg.s:29188  .debug_str:000000000001e33b .LASF2690
C:\Users\SOLDER~1\AppData\Local\Temp\ccfBhFEg.s:27676  .debug_str:000000000001825b .LASF2691
C:\Users\SOLDER~1\AppData\Local\Temp\ccfBhFEg.s:30428  .debug_str:0000000000023319 .LASF2692
C:\Users\SOLDER~1\AppData\Local\Temp\ccfBhFEg.s:23044  .debug_str:00000000000054e4 .LASF2693
C:\Users\SOLDER~1\AppData\Local\Temp\ccfBhFEg.s:22240  .debug_str:0000000000002215 .LASF2694
C:\Users\SOLDER~1\AppData\Local\Temp\ccfBhFEg.s:32862  .debug_str:000000000002d17d .LASF2695
C:\Users\SOLDER~1\AppData\Local\Temp\ccfBhFEg.s:26558  .debug_str:000000000001396d .LASF2696
C:\Users\SOLDER~1\AppData\Local\Temp\ccfBhFEg.s:26474  .debug_str:00000000000133be .LASF2697
C:\Users\SOLDER~1\AppData\Local\Temp\ccfBhFEg.s:22850  .debug_str:000000000000491f .LASF2698
C:\Users\SOLDER~1\AppData\Local\Temp\ccfBhFEg.s:29010  .debug_str:000000000001d7fc .LASF2699
C:\Users\SOLDER~1\AppData\Local\Temp\ccfBhFEg.s:29282  .debug_str:000000000001e941 .LASF2700
C:\Users\SOLDER~1\AppData\Local\Temp\ccfBhFEg.s:33428  .debug_str:000000000002f5ab .LASF2701
C:\Users\SOLDER~1\AppData\Local\Temp\ccfBhFEg.s:29244  .debug_str:000000000001e6db .LASF2702
C:\Users\SOLDER~1\AppData\Local\Temp\ccfBhFEg.s:25154  .debug_str:000000000000de93 .LASF2703
C:\Users\SOLDER~1\AppData\Local\Temp\ccfBhFEg.s:29862  .debug_str:0000000000020ef9 .LASF2704
C:\Users\SOLDER~1\AppData\Local\Temp\ccfBhFEg.s:23206  .debug_str:0000000000005f63 .LASF2705
C:\Users\SOLDER~1\AppData\Local\Temp\ccfBhFEg.s:25306  .debug_str:000000000000e8d7 .LASF2706
C:\Users\SOLDER~1\AppData\Local\Temp\ccfBhFEg.s:33016  .debug_str:000000000002dbb8 .LASF2707
C:\Users\SOLDER~1\AppData\Local\Temp\ccfBhFEg.s:26820  .debug_str:0000000000014b54 .LASF2708
C:\Users\SOLDER~1\AppData\Local\Temp\ccfBhFEg.s:31152  .debug_str:0000000000026223 .LASF2709
GAS LISTING C:\Users\SOLDER~1\AppData\Local\Temp\ccfBhFEg.s 			page 121


C:\Users\SOLDER~1\AppData\Local\Temp\ccfBhFEg.s:31806  .debug_str:0000000000028cf7 .LASF2710
C:\Users\SOLDER~1\AppData\Local\Temp\ccfBhFEg.s:29256  .debug_str:000000000001e794 .LASF2711
C:\Users\SOLDER~1\AppData\Local\Temp\ccfBhFEg.s:29654  .debug_str:00000000000201d4 .LASF2712
C:\Users\SOLDER~1\AppData\Local\Temp\ccfBhFEg.s:27636  .debug_str:0000000000017fd6 .LASF2713
C:\Users\SOLDER~1\AppData\Local\Temp\ccfBhFEg.s:29990  .debug_str:000000000002178c .LASF2714
C:\Users\SOLDER~1\AppData\Local\Temp\ccfBhFEg.s:23938  .debug_str:0000000000008fd0 .LASF2715
C:\Users\SOLDER~1\AppData\Local\Temp\ccfBhFEg.s:22718  .debug_str:00000000000040a5 .LASF2716
C:\Users\SOLDER~1\AppData\Local\Temp\ccfBhFEg.s:24146  .debug_str:0000000000009d0e .LASF2717
C:\Users\SOLDER~1\AppData\Local\Temp\ccfBhFEg.s:21896  .debug_str:0000000000000be9 .LASF2718
C:\Users\SOLDER~1\AppData\Local\Temp\ccfBhFEg.s:21732  .debug_str:00000000000000a3 .LASF2719
C:\Users\SOLDER~1\AppData\Local\Temp\ccfBhFEg.s:29722  .debug_str:0000000000020602 .LASF2720
C:\Users\SOLDER~1\AppData\Local\Temp\ccfBhFEg.s:27750  .debug_str:0000000000018775 .LASF2721
C:\Users\SOLDER~1\AppData\Local\Temp\ccfBhFEg.s:30534  .debug_str:00000000000239c0 .LASF2722
C:\Users\SOLDER~1\AppData\Local\Temp\ccfBhFEg.s:30776  .debug_str:0000000000024985 .LASF2723
C:\Users\SOLDER~1\AppData\Local\Temp\ccfBhFEg.s:29058  .debug_str:000000000001db25 .LASF2724
C:\Users\SOLDER~1\AppData\Local\Temp\ccfBhFEg.s:29138  .debug_str:000000000001dfe0 .LASF2725
C:\Users\SOLDER~1\AppData\Local\Temp\ccfBhFEg.s:24320  .debug_str:000000000000a8a9 .LASF2726
C:\Users\SOLDER~1\AppData\Local\Temp\ccfBhFEg.s:27524  .debug_str:0000000000017841 .LASF2727
C:\Users\SOLDER~1\AppData\Local\Temp\ccfBhFEg.s:22226  .debug_str:0000000000002119 .LASF2728
C:\Users\SOLDER~1\AppData\Local\Temp\ccfBhFEg.s:25744  .debug_str:0000000000010514 .LASF2729
C:\Users\SOLDER~1\AppData\Local\Temp\ccfBhFEg.s:23910  .debug_str:0000000000008db7 .LASF2730
C:\Users\SOLDER~1\AppData\Local\Temp\ccfBhFEg.s:24052  .debug_str:0000000000009738 .LASF2731
C:\Users\SOLDER~1\AppData\Local\Temp\ccfBhFEg.s:32792  .debug_str:000000000002cd12 .LASF2732
C:\Users\SOLDER~1\AppData\Local\Temp\ccfBhFEg.s:32922  .debug_str:000000000002d572 .LASF2733
C:\Users\SOLDER~1\AppData\Local\Temp\ccfBhFEg.s:31130  .debug_str:00000000000260b0 .LASF2734
C:\Users\SOLDER~1\AppData\Local\Temp\ccfBhFEg.s:30974  .debug_str:00000000000256ad .LASF2735
C:\Users\SOLDER~1\AppData\Local\Temp\ccfBhFEg.s:25568  .debug_str:000000000000f944 .LASF2736
C:\Users\SOLDER~1\AppData\Local\Temp\ccfBhFEg.s:29068  .debug_str:000000000001dbae .LASF2737
C:\Users\SOLDER~1\AppData\Local\Temp\ccfBhFEg.s:31770  .debug_str:0000000000028abe .LASF2738
C:\Users\SOLDER~1\AppData\Local\Temp\ccfBhFEg.s:27164  .debug_str:0000000000016189 .LASF2739
C:\Users\SOLDER~1\AppData\Local\Temp\ccfBhFEg.s:26470  .debug_str:000000000001336c .LASF2740
C:\Users\SOLDER~1\AppData\Local\Temp\ccfBhFEg.s:23810  .debug_str:000000000000872f .LASF2741
C:\Users\SOLDER~1\AppData\Local\Temp\ccfBhFEg.s:22640  .debug_str:0000000000003bc3 .LASF2742
C:\Users\SOLDER~1\AppData\Local\Temp\ccfBhFEg.s:28028  .debug_str:000000000001994e .LASF2743
C:\Users\SOLDER~1\AppData\Local\Temp\ccfBhFEg.s:27080  .debug_str:0000000000015c36 .LASF2744
C:\Users\SOLDER~1\AppData\Local\Temp\ccfBhFEg.s:33080  .debug_str:000000000002dfec .LASF2745
C:\Users\SOLDER~1\AppData\Local\Temp\ccfBhFEg.s:22488  .debug_str:0000000000003206 .LASF2746
C:\Users\SOLDER~1\AppData\Local\Temp\ccfBhFEg.s:31124  .debug_str:0000000000026053 .LASF2747
C:\Users\SOLDER~1\AppData\Local\Temp\ccfBhFEg.s:30750  .debug_str:00000000000247c7 .LASF2748
C:\Users\SOLDER~1\AppData\Local\Temp\ccfBhFEg.s:29230  .debug_str:000000000001e5eb .LASF2749
C:\Users\SOLDER~1\AppData\Local\Temp\ccfBhFEg.s:29000  .debug_str:000000000001d74f .LASF2750
C:\Users\SOLDER~1\AppData\Local\Temp\ccfBhFEg.s:27422  .debug_str:0000000000017160 .LASF2751
C:\Users\SOLDER~1\AppData\Local\Temp\ccfBhFEg.s:31708  .debug_str:00000000000286b1 .LASF2752
C:\Users\SOLDER~1\AppData\Local\Temp\ccfBhFEg.s:22842  .debug_str:000000000000489d .LASF2753
C:\Users\SOLDER~1\AppData\Local\Temp\ccfBhFEg.s:28688  .debug_str:000000000001c2a6 .LASF2754
C:\Users\SOLDER~1\AppData\Local\Temp\ccfBhFEg.s:32912  .debug_str:000000000002d4b8 .LASF2755
C:\Users\SOLDER~1\AppData\Local\Temp\ccfBhFEg.s:29986  .debug_str:000000000002173e .LASF2756
C:\Users\SOLDER~1\AppData\Local\Temp\ccfBhFEg.s:31228  .debug_str:0000000000026740 .LASF2757
C:\Users\SOLDER~1\AppData\Local\Temp\ccfBhFEg.s:32274  .debug_str:000000000002ab5a .LASF2758
C:\Users\SOLDER~1\AppData\Local\Temp\ccfBhFEg.s:29512  .debug_str:000000000001f88e .LASF2759
C:\Users\SOLDER~1\AppData\Local\Temp\ccfBhFEg.s:28410  .debug_str:000000000001b11e .LASF2760
C:\Users\SOLDER~1\AppData\Local\Temp\ccfBhFEg.s:27886  .debug_str:0000000000018ffe .LASF2761
C:\Users\SOLDER~1\AppData\Local\Temp\ccfBhFEg.s:26302  .debug_str:0000000000012858 .LASF2762
C:\Users\SOLDER~1\AppData\Local\Temp\ccfBhFEg.s:26182  .debug_str:00000000000120ff .LASF2763
C:\Users\SOLDER~1\AppData\Local\Temp\ccfBhFEg.s:27872  .debug_str:0000000000018ee6 .LASF2764
C:\Users\SOLDER~1\AppData\Local\Temp\ccfBhFEg.s:24408  .debug_str:000000000000ae36 .LASF2765
C:\Users\SOLDER~1\AppData\Local\Temp\ccfBhFEg.s:21922  .debug_str:0000000000000dc3 .LASF2766
GAS LISTING C:\Users\SOLDER~1\AppData\Local\Temp\ccfBhFEg.s 			page 122


C:\Users\SOLDER~1\AppData\Local\Temp\ccfBhFEg.s:25186  .debug_str:000000000000e0b2 .LASF2767
C:\Users\SOLDER~1\AppData\Local\Temp\ccfBhFEg.s:32726  .debug_str:000000000002c911 .LASF2768
C:\Users\SOLDER~1\AppData\Local\Temp\ccfBhFEg.s:29438  .debug_str:000000000001f395 .LASF2769
C:\Users\SOLDER~1\AppData\Local\Temp\ccfBhFEg.s:22582  .debug_str:00000000000037f2 .LASF2770
C:\Users\SOLDER~1\AppData\Local\Temp\ccfBhFEg.s:23154  .debug_str:0000000000005c3a .LASF2771
C:\Users\SOLDER~1\AppData\Local\Temp\ccfBhFEg.s:32902  .debug_str:000000000002d40c .LASF2772
C:\Users\SOLDER~1\AppData\Local\Temp\ccfBhFEg.s:29808  .debug_str:0000000000020b86 .LASF2773
C:\Users\SOLDER~1\AppData\Local\Temp\ccfBhFEg.s:26862  .debug_str:0000000000014e62 .LASF2774
C:\Users\SOLDER~1\AppData\Local\Temp\ccfBhFEg.s:22986  .debug_str:0000000000005154 .LASF2775
C:\Users\SOLDER~1\AppData\Local\Temp\ccfBhFEg.s:32882  .debug_str:000000000002d2c1 .LASF2776
C:\Users\SOLDER~1\AppData\Local\Temp\ccfBhFEg.s:26074  .debug_str:0000000000011a25 .LASF2777
C:\Users\SOLDER~1\AppData\Local\Temp\ccfBhFEg.s:27414  .debug_str:00000000000170e6 .LASF2778
C:\Users\SOLDER~1\AppData\Local\Temp\ccfBhFEg.s:24114  .debug_str:0000000000009b31 .LASF2779
C:\Users\SOLDER~1\AppData\Local\Temp\ccfBhFEg.s:24564  .debug_str:000000000000b861 .LASF2780
C:\Users\SOLDER~1\AppData\Local\Temp\ccfBhFEg.s:22192  .debug_str:0000000000001f0c .LASF2781
C:\Users\SOLDER~1\AppData\Local\Temp\ccfBhFEg.s:22040  .debug_str:0000000000001526 .LASF2782
C:\Users\SOLDER~1\AppData\Local\Temp\ccfBhFEg.s:31994  .debug_str:000000000002991b .LASF2783
C:\Users\SOLDER~1\AppData\Local\Temp\ccfBhFEg.s:22734  .debug_str:00000000000041b6 .LASF2784
C:\Users\SOLDER~1\AppData\Local\Temp\ccfBhFEg.s:22764  .debug_str:000000000000439d .LASF2785
C:\Users\SOLDER~1\AppData\Local\Temp\ccfBhFEg.s:29894  .debug_str:0000000000021129 .LASF2786
C:\Users\SOLDER~1\AppData\Local\Temp\ccfBhFEg.s:28180  .debug_str:000000000001a2de .LASF2787
C:\Users\SOLDER~1\AppData\Local\Temp\ccfBhFEg.s:26472  .debug_str:0000000000013397 .LASF2788
C:\Users\SOLDER~1\AppData\Local\Temp\ccfBhFEg.s:26220  .debug_str:000000000001235b .LASF2789
C:\Users\SOLDER~1\AppData\Local\Temp\ccfBhFEg.s:24590  .debug_str:000000000000b9d5 .LASF2790
C:\Users\SOLDER~1\AppData\Local\Temp\ccfBhFEg.s:27380  .debug_str:0000000000016f09 .LASF2791
C:\Users\SOLDER~1\AppData\Local\Temp\ccfBhFEg.s:27364  .debug_str:0000000000016e09 .LASF2792
C:\Users\SOLDER~1\AppData\Local\Temp\ccfBhFEg.s:23682  .debug_str:0000000000007ec5 .LASF2793
C:\Users\SOLDER~1\AppData\Local\Temp\ccfBhFEg.s:29992  .debug_str:00000000000217b3 .LASF2794
C:\Users\SOLDER~1\AppData\Local\Temp\ccfBhFEg.s:29264  .debug_str:000000000001e820 .LASF2795
C:\Users\SOLDER~1\AppData\Local\Temp\ccfBhFEg.s:26616  .debug_str:0000000000013d65 .LASF2796
C:\Users\SOLDER~1\AppData\Local\Temp\ccfBhFEg.s:22982  .debug_str:0000000000005114 .LASF2797
C:\Users\SOLDER~1\AppData\Local\Temp\ccfBhFEg.s:21818  .debug_str:00000000000005dd .LASF2798
C:\Users\SOLDER~1\AppData\Local\Temp\ccfBhFEg.s:30298  .debug_str:0000000000022a6a .LASF2799
C:\Users\SOLDER~1\AppData\Local\Temp\ccfBhFEg.s:29632  .debug_str:000000000002006f .LASF2800
C:\Users\SOLDER~1\AppData\Local\Temp\ccfBhFEg.s:28682  .debug_str:000000000001c247 .LASF2801
C:\Users\SOLDER~1\AppData\Local\Temp\ccfBhFEg.s:27602  .debug_str:0000000000017d6f .LASF2802
C:\Users\SOLDER~1\AppData\Local\Temp\ccfBhFEg.s:27012  .debug_str:000000000001583f .LASF2803
C:\Users\SOLDER~1\AppData\Local\Temp\ccfBhFEg.s:23966  .debug_str:0000000000009183 .LASF2804
C:\Users\SOLDER~1\AppData\Local\Temp\ccfBhFEg.s:25338  .debug_str:000000000000ead7 .LASF2805
C:\Users\SOLDER~1\AppData\Local\Temp\ccfBhFEg.s:24226  .debug_str:000000000000a24e .LASF2806
C:\Users\SOLDER~1\AppData\Local\Temp\ccfBhFEg.s:23580  .debug_str:0000000000007826 .LASF2807
C:\Users\SOLDER~1\AppData\Local\Temp\ccfBhFEg.s:22232  .debug_str:000000000000218d .LASF2808
C:\Users\SOLDER~1\AppData\Local\Temp\ccfBhFEg.s:21940  .debug_str:0000000000000ed1 .LASF2809
C:\Users\SOLDER~1\AppData\Local\Temp\ccfBhFEg.s:23830  .debug_str:000000000000888a .LASF2810
C:\Users\SOLDER~1\AppData\Local\Temp\ccfBhFEg.s:31976  .debug_str:00000000000297ef .LASF2811
C:\Users\SOLDER~1\AppData\Local\Temp\ccfBhFEg.s:32796  .debug_str:000000000002cd5e .LASF2812
C:\Users\SOLDER~1\AppData\Local\Temp\ccfBhFEg.s:22198  .debug_str:0000000000001f72 .LASF2813
C:\Users\SOLDER~1\AppData\Local\Temp\ccfBhFEg.s:28924  .debug_str:000000000001d22c .LASF2814
C:\Users\SOLDER~1\AppData\Local\Temp\ccfBhFEg.s:29830  .debug_str:0000000000020cff .LASF2815
C:\Users\SOLDER~1\AppData\Local\Temp\ccfBhFEg.s:22134  .debug_str:0000000000001b26 .LASF2816
C:\Users\SOLDER~1\AppData\Local\Temp\ccfBhFEg.s:29494  .debug_str:000000000001f752 .LASF2817
C:\Users\SOLDER~1\AppData\Local\Temp\ccfBhFEg.s:29436  .debug_str:000000000001f373 .LASF2818
C:\Users\SOLDER~1\AppData\Local\Temp\ccfBhFEg.s:29762  .debug_str:0000000000020881 .LASF2819
C:\Users\SOLDER~1\AppData\Local\Temp\ccfBhFEg.s:23484  .debug_str:0000000000007229 .LASF2820
C:\Users\SOLDER~1\AppData\Local\Temp\ccfBhFEg.s:30154  .debug_str:00000000000221a6 .LASF2821
C:\Users\SOLDER~1\AppData\Local\Temp\ccfBhFEg.s:23694  .debug_str:0000000000007f91 .LASF2822
C:\Users\SOLDER~1\AppData\Local\Temp\ccfBhFEg.s:22572  .debug_str:0000000000003763 .LASF2823
GAS LISTING C:\Users\SOLDER~1\AppData\Local\Temp\ccfBhFEg.s 			page 123


C:\Users\SOLDER~1\AppData\Local\Temp\ccfBhFEg.s:27972  .debug_str:00000000000195b9 .LASF2824
C:\Users\SOLDER~1\AppData\Local\Temp\ccfBhFEg.s:30786  .debug_str:0000000000024a33 .LASF2825
C:\Users\SOLDER~1\AppData\Local\Temp\ccfBhFEg.s:26146  .debug_str:0000000000011e9a .LASF2826
C:\Users\SOLDER~1\AppData\Local\Temp\ccfBhFEg.s:22866  .debug_str:0000000000004a28 .LASF2827
C:\Users\SOLDER~1\AppData\Local\Temp\ccfBhFEg.s:30340  .debug_str:0000000000022d18 .LASF2828
C:\Users\SOLDER~1\AppData\Local\Temp\ccfBhFEg.s:27070  .debug_str:0000000000015bd9 .LASF2829
C:\Users\SOLDER~1\AppData\Local\Temp\ccfBhFEg.s:31900  .debug_str:0000000000029320 .LASF2830
C:\Users\SOLDER~1\AppData\Local\Temp\ccfBhFEg.s:29276  .debug_str:000000000001e8cd .LASF2831
C:\Users\SOLDER~1\AppData\Local\Temp\ccfBhFEg.s:33448  .debug_str:000000000002f6eb .LASF2832
C:\Users\SOLDER~1\AppData\Local\Temp\ccfBhFEg.s:28156  .debug_str:000000000001a150 .LASF2833
C:\Users\SOLDER~1\AppData\Local\Temp\ccfBhFEg.s:26070  .debug_str:00000000000119de .LASF2834
C:\Users\SOLDER~1\AppData\Local\Temp\ccfBhFEg.s:27356  .debug_str:0000000000016d7c .LASF2835
C:\Users\SOLDER~1\AppData\Local\Temp\ccfBhFEg.s:23228  .debug_str:00000000000060e4 .LASF2836
C:\Users\SOLDER~1\AppData\Local\Temp\ccfBhFEg.s:28850  .debug_str:000000000001cd48 .LASF2837
C:\Users\SOLDER~1\AppData\Local\Temp\ccfBhFEg.s:26010  .debug_str:00000000000115dc .LASF2838
C:\Users\SOLDER~1\AppData\Local\Temp\ccfBhFEg.s:22826  .debug_str:0000000000004795 .LASF2839
C:\Users\SOLDER~1\AppData\Local\Temp\ccfBhFEg.s:32112  .debug_str:000000000002a09f .LASF2840
C:\Users\SOLDER~1\AppData\Local\Temp\ccfBhFEg.s:29464  .debug_str:000000000001f540 .LASF2841
C:\Users\SOLDER~1\AppData\Local\Temp\ccfBhFEg.s:28880  .debug_str:000000000001cf3d .LASF2842
C:\Users\SOLDER~1\AppData\Local\Temp\ccfBhFEg.s:29676  .debug_str:0000000000020329 .LASF2843
C:\Users\SOLDER~1\AppData\Local\Temp\ccfBhFEg.s:31490  .debug_str:0000000000027862 .LASF2844
C:\Users\SOLDER~1\AppData\Local\Temp\ccfBhFEg.s:31826  .debug_str:0000000000028e60 .LASF2845
C:\Users\SOLDER~1\AppData\Local\Temp\ccfBhFEg.s:25230  .debug_str:000000000000e394 .LASF2846
C:\Users\SOLDER~1\AppData\Local\Temp\ccfBhFEg.s:28752  .debug_str:000000000001c70c .LASF2847
C:\Users\SOLDER~1\AppData\Local\Temp\ccfBhFEg.s:33410  .debug_str:000000000002f481 .LASF2848
C:\Users\SOLDER~1\AppData\Local\Temp\ccfBhFEg.s:28808  .debug_str:000000000001ca97 .LASF2849
C:\Users\SOLDER~1\AppData\Local\Temp\ccfBhFEg.s:26664  .debug_str:00000000000140cd .LASF2850
C:\Users\SOLDER~1\AppData\Local\Temp\ccfBhFEg.s:32958  .debug_str:000000000002d81b .LASF2851
C:\Users\SOLDER~1\AppData\Local\Temp\ccfBhFEg.s:25052  .debug_str:000000000000d856 .LASF2852
C:\Users\SOLDER~1\AppData\Local\Temp\ccfBhFEg.s:24648  .debug_str:000000000000bd6b .LASF2853
C:\Users\SOLDER~1\AppData\Local\Temp\ccfBhFEg.s:32254  .debug_str:000000000002aa3c .LASF2854
C:\Users\SOLDER~1\AppData\Local\Temp\ccfBhFEg.s:28442  .debug_str:000000000001b36c .LASF2855
C:\Users\SOLDER~1\AppData\Local\Temp\ccfBhFEg.s:32642  .debug_str:000000000002c32e .LASF2856
C:\Users\SOLDER~1\AppData\Local\Temp\ccfBhFEg.s:24870  .debug_str:000000000000cc39 .LASF2857
C:\Users\SOLDER~1\AppData\Local\Temp\ccfBhFEg.s:29372  .debug_str:000000000001ef58 .LASF2858
C:\Users\SOLDER~1\AppData\Local\Temp\ccfBhFEg.s:23060  .debug_str:00000000000055d4 .LASF2859
C:\Users\SOLDER~1\AppData\Local\Temp\ccfBhFEg.s:22596  .debug_str:00000000000038e4 .LASF2860
C:\Users\SOLDER~1\AppData\Local\Temp\ccfBhFEg.s:31472  .debug_str:0000000000027737 .LASF2861
C:\Users\SOLDER~1\AppData\Local\Temp\ccfBhFEg.s:23676  .debug_str:0000000000007e68 .LASF2862
C:\Users\SOLDER~1\AppData\Local\Temp\ccfBhFEg.s:29984  .debug_str:0000000000021717 .LASF2863
C:\Users\SOLDER~1\AppData\Local\Temp\ccfBhFEg.s:29496  .debug_str:000000000001f772 .LASF2864
C:\Users\SOLDER~1\AppData\Local\Temp\ccfBhFEg.s:26250  .debug_str:0000000000012533 .LASF2865
C:\Users\SOLDER~1\AppData\Local\Temp\ccfBhFEg.s:24746  .debug_str:000000000000c3b0 .LASF2866
C:\Users\SOLDER~1\AppData\Local\Temp\ccfBhFEg.s:25948  .debug_str:0000000000011222 .LASF2867
C:\Users\SOLDER~1\AppData\Local\Temp\ccfBhFEg.s:26528  .debug_str:0000000000013747 .LASF2868
C:\Users\SOLDER~1\AppData\Local\Temp\ccfBhFEg.s:33308  .debug_str:000000000002ee05 .LASF2869
C:\Users\SOLDER~1\AppData\Local\Temp\ccfBhFEg.s:26540  .debug_str:0000000000013820 .LASF2870
C:\Users\SOLDER~1\AppData\Local\Temp\ccfBhFEg.s:32778  .debug_str:000000000002cc35 .LASF2871
C:\Users\SOLDER~1\AppData\Local\Temp\ccfBhFEg.s:32890  .debug_str:000000000002d33f .LASF2872
C:\Users\SOLDER~1\AppData\Local\Temp\ccfBhFEg.s:28454  .debug_str:000000000001b435 .LASF2873
C:\Users\SOLDER~1\AppData\Local\Temp\ccfBhFEg.s:32808  .debug_str:000000000002ce30 .LASF2874
C:\Users\SOLDER~1\AppData\Local\Temp\ccfBhFEg.s:29962  .debug_str:000000000002157b .LASF2875
C:\Users\SOLDER~1\AppData\Local\Temp\ccfBhFEg.s:25542  .debug_str:000000000000f794 .LASF2876
C:\Users\SOLDER~1\AppData\Local\Temp\ccfBhFEg.s:25642  .debug_str:000000000000fe64 .LASF2877
C:\Users\SOLDER~1\AppData\Local\Temp\ccfBhFEg.s:25554  .debug_str:000000000000f860 .LASF2878
C:\Users\SOLDER~1\AppData\Local\Temp\ccfBhFEg.s:27596  .debug_str:0000000000017d2d .LASF2879
C:\Users\SOLDER~1\AppData\Local\Temp\ccfBhFEg.s:33268  .debug_str:000000000002eb6c .LASF2880
GAS LISTING C:\Users\SOLDER~1\AppData\Local\Temp\ccfBhFEg.s 			page 124


C:\Users\SOLDER~1\AppData\Local\Temp\ccfBhFEg.s:25066  .debug_str:000000000000d93d .LASF2881
C:\Users\SOLDER~1\AppData\Local\Temp\ccfBhFEg.s:33352  .debug_str:000000000002f113 .LASF2882
C:\Users\SOLDER~1\AppData\Local\Temp\ccfBhFEg.s:32480  .debug_str:000000000002b8e1 .LASF2883
C:\Users\SOLDER~1\AppData\Local\Temp\ccfBhFEg.s:23498  .debug_str:000000000000730a .LASF2884
C:\Users\SOLDER~1\AppData\Local\Temp\ccfBhFEg.s:30650  .debug_str:0000000000024139 .LASF2885
C:\Users\SOLDER~1\AppData\Local\Temp\ccfBhFEg.s:23172  .debug_str:0000000000005d3c .LASF2886
C:\Users\SOLDER~1\AppData\Local\Temp\ccfBhFEg.s:23800  .debug_str:0000000000008693 .LASF2887
C:\Users\SOLDER~1\AppData\Local\Temp\ccfBhFEg.s:24526  .debug_str:000000000000b5be .LASF2888
C:\Users\SOLDER~1\AppData\Local\Temp\ccfBhFEg.s:24576  .debug_str:000000000000b911 .LASF2889
C:\Users\SOLDER~1\AppData\Local\Temp\ccfBhFEg.s:23486  .debug_str:0000000000007249 .LASF2890
C:\Users\SOLDER~1\AppData\Local\Temp\ccfBhFEg.s:22520  .debug_str:000000000000340e .LASF2891
C:\Users\SOLDER~1\AppData\Local\Temp\ccfBhFEg.s:25258  .debug_str:000000000000e5c4 .LASF2892
C:\Users\SOLDER~1\AppData\Local\Temp\ccfBhFEg.s:27324  .debug_str:0000000000016b65 .LASF2893
C:\Users\SOLDER~1\AppData\Local\Temp\ccfBhFEg.s:33108  .debug_str:000000000002e192 .LASF2894
C:\Users\SOLDER~1\AppData\Local\Temp\ccfBhFEg.s:24426  .debug_str:000000000000af6a .LASF2895
C:\Users\SOLDER~1\AppData\Local\Temp\ccfBhFEg.s:32172  .debug_str:000000000002a4b5 .LASF2896
C:\Users\SOLDER~1\AppData\Local\Temp\ccfBhFEg.s:33186  .debug_str:000000000002e6b1 .LASF2897
C:\Users\SOLDER~1\AppData\Local\Temp\ccfBhFEg.s:32968  .debug_str:000000000002d8c0 .LASF2898
C:\Users\SOLDER~1\AppData\Local\Temp\ccfBhFEg.s:23010  .debug_str:00000000000052d3 .LASF2899
C:\Users\SOLDER~1\AppData\Local\Temp\ccfBhFEg.s:23994  .debug_str:0000000000009367 .LASF2900
C:\Users\SOLDER~1\AppData\Local\Temp\ccfBhFEg.s:29066  .debug_str:000000000001db93 .LASF2901
C:\Users\SOLDER~1\AppData\Local\Temp\ccfBhFEg.s:24948  .debug_str:000000000000d176 .LASF2902
C:\Users\SOLDER~1\AppData\Local\Temp\ccfBhFEg.s:26808  .debug_str:0000000000014aa9 .LASF2903
C:\Users\SOLDER~1\AppData\Local\Temp\ccfBhFEg.s:31812  .debug_str:0000000000028d85 .LASF2904
C:\Users\SOLDER~1\AppData\Local\Temp\ccfBhFEg.s:24186  .debug_str:0000000000009fc5 .LASF2905
C:\Users\SOLDER~1\AppData\Local\Temp\ccfBhFEg.s:31916  .debug_str:000000000002941f .LASF2906
C:\Users\SOLDER~1\AppData\Local\Temp\ccfBhFEg.s:27876  .debug_str:0000000000018f2a .LASF2907
C:\Users\SOLDER~1\AppData\Local\Temp\ccfBhFEg.s:25272  .debug_str:000000000000e6bf .LASF2908
C:\Users\SOLDER~1\AppData\Local\Temp\ccfBhFEg.s:30068  .debug_str:0000000000021c6e .LASF2909
C:\Users\SOLDER~1\AppData\Local\Temp\ccfBhFEg.s:30834  .debug_str:0000000000024d72 .LASF2910
C:\Users\SOLDER~1\AppData\Local\Temp\ccfBhFEg.s:26098  .debug_str:0000000000011b77 .LASF2911
C:\Users\SOLDER~1\AppData\Local\Temp\ccfBhFEg.s:25162  .debug_str:000000000000df1e .LASF2912
C:\Users\SOLDER~1\AppData\Local\Temp\ccfBhFEg.s:25508  .debug_str:000000000000f56b .LASF2913
C:\Users\SOLDER~1\AppData\Local\Temp\ccfBhFEg.s:22398  .debug_str:0000000000002bf9 .LASF2914
C:\Users\SOLDER~1\AppData\Local\Temp\ccfBhFEg.s:27866  .debug_str:0000000000018e9b .LASF2915
C:\Users\SOLDER~1\AppData\Local\Temp\ccfBhFEg.s:21808  .debug_str:000000000000052f .LASF2916
C:\Users\SOLDER~1\AppData\Local\Temp\ccfBhFEg.s:30564  .debug_str:0000000000023bc1 .LASF2917
C:\Users\SOLDER~1\AppData\Local\Temp\ccfBhFEg.s:25280  .debug_str:000000000000e746 .LASF2918
C:\Users\SOLDER~1\AppData\Local\Temp\ccfBhFEg.s:29490  .debug_str:000000000001f718 .LASF2919
C:\Users\SOLDER~1\AppData\Local\Temp\ccfBhFEg.s:30802  .debug_str:0000000000024b3a .LASF2920
C:\Users\SOLDER~1\AppData\Local\Temp\ccfBhFEg.s:29182  .debug_str:000000000001e2cc .LASF2921
C:\Users\SOLDER~1\AppData\Local\Temp\ccfBhFEg.s:25758  .debug_str:00000000000105e2 .LASF2922
C:\Users\SOLDER~1\AppData\Local\Temp\ccfBhFEg.s:30864  .debug_str:0000000000024f74 .LASF2923
C:\Users\SOLDER~1\AppData\Local\Temp\ccfBhFEg.s:27944  .debug_str:00000000000193dd .LASF2924
C:\Users\SOLDER~1\AppData\Local\Temp\ccfBhFEg.s:27486  .debug_str:00000000000175a5 .LASF2925
C:\Users\SOLDER~1\AppData\Local\Temp\ccfBhFEg.s:26756  .debug_str:000000000001473b .LASF2926
C:\Users\SOLDER~1\AppData\Local\Temp\ccfBhFEg.s:25060  .debug_str:000000000000d8db .LASF2927
C:\Users\SOLDER~1\AppData\Local\Temp\ccfBhFEg.s:25356  .debug_str:000000000000ec1f .LASF2928
C:\Users\SOLDER~1\AppData\Local\Temp\ccfBhFEg.s:27720  .debug_str:0000000000018575 .LASF2929
C:\Users\SOLDER~1\AppData\Local\Temp\ccfBhFEg.s:29196  .debug_str:000000000001e3c9 .LASF2930
C:\Users\SOLDER~1\AppData\Local\Temp\ccfBhFEg.s:30918  .debug_str:000000000002530e .LASF2931
C:\Users\SOLDER~1\AppData\Local\Temp\ccfBhFEg.s:31432  .debug_str:00000000000274a1 .LASF2932
C:\Users\SOLDER~1\AppData\Local\Temp\ccfBhFEg.s:31824  .debug_str:0000000000028e37 .LASF2933
C:\Users\SOLDER~1\AppData\Local\Temp\ccfBhFEg.s:29074  .debug_str:000000000001dbfb .LASF2934
C:\Users\SOLDER~1\AppData\Local\Temp\ccfBhFEg.s:27864  .debug_str:0000000000018e81 .LASF2935
C:\Users\SOLDER~1\AppData\Local\Temp\ccfBhFEg.s:24930  .debug_str:000000000000d046 .LASF2936
C:\Users\SOLDER~1\AppData\Local\Temp\ccfBhFEg.s:21734  .debug_str:00000000000000bd .LASF2937
GAS LISTING C:\Users\SOLDER~1\AppData\Local\Temp\ccfBhFEg.s 			page 125


C:\Users\SOLDER~1\AppData\Local\Temp\ccfBhFEg.s:31220  .debug_str:00000000000266ad .LASF2938
C:\Users\SOLDER~1\AppData\Local\Temp\ccfBhFEg.s:22000  .debug_str:0000000000001296 .LASF2939
C:\Users\SOLDER~1\AppData\Local\Temp\ccfBhFEg.s:22896  .debug_str:0000000000004be8 .LASF2940
C:\Users\SOLDER~1\AppData\Local\Temp\ccfBhFEg.s:30772  .debug_str:0000000000024942 .LASF2941
C:\Users\SOLDER~1\AppData\Local\Temp\ccfBhFEg.s:30740  .debug_str:0000000000024721 .LASF2942
C:\Users\SOLDER~1\AppData\Local\Temp\ccfBhFEg.s:30628  .debug_str:0000000000023fd4 .LASF2943
C:\Users\SOLDER~1\AppData\Local\Temp\ccfBhFEg.s:23824  .debug_str:000000000000880b .LASF2944
C:\Users\SOLDER~1\AppData\Local\Temp\ccfBhFEg.s:26624  .debug_str:0000000000013e21 .LASF2945
C:\Users\SOLDER~1\AppData\Local\Temp\ccfBhFEg.s:28228  .debug_str:000000000001a5ab .LASF2946
C:\Users\SOLDER~1\AppData\Local\Temp\ccfBhFEg.s:27288  .debug_str:000000000001697c .LASF2947
C:\Users\SOLDER~1\AppData\Local\Temp\ccfBhFEg.s:27754  .debug_str:00000000000187ac .LASF2948
C:\Users\SOLDER~1\AppData\Local\Temp\ccfBhFEg.s:28024  .debug_str:000000000001990f .LASF2949
C:\Users\SOLDER~1\AppData\Local\Temp\ccfBhFEg.s:26406  .debug_str:0000000000012f35 .LASF2950
C:\Users\SOLDER~1\AppData\Local\Temp\ccfBhFEg.s:28126  .debug_str:0000000000019f98 .LASF2951
C:\Users\SOLDER~1\AppData\Local\Temp\ccfBhFEg.s:22486  .debug_str:00000000000031dc .LASF2952
C:\Users\SOLDER~1\AppData\Local\Temp\ccfBhFEg.s:21936  .debug_str:0000000000000e9d .LASF2953
C:\Users\SOLDER~1\AppData\Local\Temp\ccfBhFEg.s:27930  .debug_str:00000000000192d8 .LASF2954
C:\Users\SOLDER~1\AppData\Local\Temp\ccfBhFEg.s:31200  .debug_str:000000000002657c .LASF2955
C:\Users\SOLDER~1\AppData\Local\Temp\ccfBhFEg.s:31946  .debug_str:00000000000295de .LASF2956
C:\Users\SOLDER~1\AppData\Local\Temp\ccfBhFEg.s:33246  .debug_str:000000000002ea22 .LASF2957
C:\Users\SOLDER~1\AppData\Local\Temp\ccfBhFEg.s:25494  .debug_str:000000000000f485 .LASF2958
C:\Users\SOLDER~1\AppData\Local\Temp\ccfBhFEg.s:32932  .debug_str:000000000002d620 .LASF2959
C:\Users\SOLDER~1\AppData\Local\Temp\ccfBhFEg.s:26046  .debug_str:0000000000011835 .LASF2960
C:\Users\SOLDER~1\AppData\Local\Temp\ccfBhFEg.s:27438  .debug_str:0000000000017259 .LASF2961
C:\Users\SOLDER~1\AppData\Local\Temp\ccfBhFEg.s:23354  .debug_str:00000000000069ab .LASF2962
C:\Users\SOLDER~1\AppData\Local\Temp\ccfBhFEg.s:25166  .debug_str:000000000000df84 .LASF2963
C:\Users\SOLDER~1\AppData\Local\Temp\ccfBhFEg.s:30938  .debug_str:000000000002546e .LASF2964
C:\Users\SOLDER~1\AppData\Local\Temp\ccfBhFEg.s:33380  .debug_str:000000000002f2bc .LASF2965
C:\Users\SOLDER~1\AppData\Local\Temp\ccfBhFEg.s:28422  .debug_str:000000000001b1fc .LASF2966
C:\Users\SOLDER~1\AppData\Local\Temp\ccfBhFEg.s:21750  .debug_str:0000000000000196 .LASF2967
C:\Users\SOLDER~1\AppData\Local\Temp\ccfBhFEg.s:31334  .debug_str:0000000000026e3b .LASF2968
C:\Users\SOLDER~1\AppData\Local\Temp\ccfBhFEg.s:30208  .debug_str:0000000000022512 .LASF2969
C:\Users\SOLDER~1\AppData\Local\Temp\ccfBhFEg.s:29502  .debug_str:000000000001f7d8 .LASF2970
C:\Users\SOLDER~1\AppData\Local\Temp\ccfBhFEg.s:25588  .debug_str:000000000000fa90 .LASF2971
C:\Users\SOLDER~1\AppData\Local\Temp\ccfBhFEg.s:30488  .debug_str:00000000000236b4 .LASF2972
C:\Users\SOLDER~1\AppData\Local\Temp\ccfBhFEg.s:24396  .debug_str:000000000000ad94 .LASF2973
C:\Users\SOLDER~1\AppData\Local\Temp\ccfBhFEg.s:22188  .debug_str:0000000000001ec6 .LASF2974
C:\Users\SOLDER~1\AppData\Local\Temp\ccfBhFEg.s:26534  .debug_str:00000000000137ac .LASF2975
C:\Users\SOLDER~1\AppData\Local\Temp\ccfBhFEg.s:24046  .debug_str:00000000000096cd .LASF2976
C:\Users\SOLDER~1\AppData\Local\Temp\ccfBhFEg.s:30264  .debug_str:000000000002283d .LASF2977
C:\Users\SOLDER~1\AppData\Local\Temp\ccfBhFEg.s:32936  .debug_str:000000000002d670 .LASF2978
C:\Users\SOLDER~1\AppData\Local\Temp\ccfBhFEg.s:24778  .debug_str:000000000000c5fa .LASF2979
C:\Users\SOLDER~1\AppData\Local\Temp\ccfBhFEg.s:30500  .debug_str:0000000000023770 .LASF2980
C:\Users\SOLDER~1\AppData\Local\Temp\ccfBhFEg.s:24346  .debug_str:000000000000aa4c .LASF2981
C:\Users\SOLDER~1\AppData\Local\Temp\ccfBhFEg.s:32918  .debug_str:000000000002d528 .LASF2982
C:\Users\SOLDER~1\AppData\Local\Temp\ccfBhFEg.s:27230  .debug_str:00000000000165c7 .LASF2983
C:\Users\SOLDER~1\AppData\Local\Temp\ccfBhFEg.s:31702  .debug_str:0000000000028642 .LASF2984
C:\Users\SOLDER~1\AppData\Local\Temp\ccfBhFEg.s:28054  .debug_str:0000000000019b33 .LASF2985
C:\Users\SOLDER~1\AppData\Local\Temp\ccfBhFEg.s:22688  .debug_str:0000000000003ec9 .LASF2986
C:\Users\SOLDER~1\AppData\Local\Temp\ccfBhFEg.s:32832  .debug_str:000000000002cf89 .LASF2987
C:\Users\SOLDER~1\AppData\Local\Temp\ccfBhFEg.s:22204  .debug_str:0000000000001fe1 .LASF2988
C:\Users\SOLDER~1\AppData\Local\Temp\ccfBhFEg.s:25858  .debug_str:0000000000010c7a .LASF2989
C:\Users\SOLDER~1\AppData\Local\Temp\ccfBhFEg.s:23134  .debug_str:0000000000005acf .LASF2990
C:\Users\SOLDER~1\AppData\Local\Temp\ccfBhFEg.s:33340  .debug_str:000000000002f05f .LASF2991
C:\Users\SOLDER~1\AppData\Local\Temp\ccfBhFEg.s:22230  .debug_str:0000000000002165 .LASF2992
C:\Users\SOLDER~1\AppData\Local\Temp\ccfBhFEg.s:31462  .debug_str:0000000000027685 .LASF2993
C:\Users\SOLDER~1\AppData\Local\Temp\ccfBhFEg.s:24290  .debug_str:000000000000a672 .LASF2994
GAS LISTING C:\Users\SOLDER~1\AppData\Local\Temp\ccfBhFEg.s 			page 126


C:\Users\SOLDER~1\AppData\Local\Temp\ccfBhFEg.s:22414  .debug_str:0000000000002d1b .LASF2995
C:\Users\SOLDER~1\AppData\Local\Temp\ccfBhFEg.s:31274  .debug_str:0000000000026a7b .LASF2996
C:\Users\SOLDER~1\AppData\Local\Temp\ccfBhFEg.s:25156  .debug_str:000000000000deab .LASF2997
C:\Users\SOLDER~1\AppData\Local\Temp\ccfBhFEg.s:26698  .debug_str:0000000000014337 .LASF2998
C:\Users\SOLDER~1\AppData\Local\Temp\ccfBhFEg.s:31244  .debug_str:0000000000026867 .LASF2999
C:\Users\SOLDER~1\AppData\Local\Temp\ccfBhFEg.s:33346  .debug_str:000000000002f0b5 .LASF3000
C:\Users\SOLDER~1\AppData\Local\Temp\ccfBhFEg.s:28326  .debug_str:000000000001abd1 .LASF3001
C:\Users\SOLDER~1\AppData\Local\Temp\ccfBhFEg.s:26576  .debug_str:0000000000013a97 .LASF3002
C:\Users\SOLDER~1\AppData\Local\Temp\ccfBhFEg.s:30220  .debug_str:00000000000225c4 .LASF3003
C:\Users\SOLDER~1\AppData\Local\Temp\ccfBhFEg.s:29088  .debug_str:000000000001dccb .LASF3004
C:\Users\SOLDER~1\AppData\Local\Temp\ccfBhFEg.s:30892  .debug_str:0000000000025154 .LASF3005
C:\Users\SOLDER~1\AppData\Local\Temp\ccfBhFEg.s:24372  .debug_str:000000000000ac2c .LASF3006
C:\Users\SOLDER~1\AppData\Local\Temp\ccfBhFEg.s:30272  .debug_str:00000000000228c2 .LASF3007
C:\Users\SOLDER~1\AppData\Local\Temp\ccfBhFEg.s:27984  .debug_str:0000000000019684 .LASF3008
C:\Users\SOLDER~1\AppData\Local\Temp\ccfBhFEg.s:32834  .debug_str:000000000002cfa2 .LASF3009
C:\Users\SOLDER~1\AppData\Local\Temp\ccfBhFEg.s:31544  .debug_str:0000000000027c17 .LASF3010
C:\Users\SOLDER~1\AppData\Local\Temp\ccfBhFEg.s:33066  .debug_str:000000000002df19 .LASF3011
C:\Users\SOLDER~1\AppData\Local\Temp\ccfBhFEg.s:29682  .debug_str:0000000000020370 .LASF3012
C:\Users\SOLDER~1\AppData\Local\Temp\ccfBhFEg.s:24068  .debug_str:000000000000980c .LASF3013
C:\Users\SOLDER~1\AppData\Local\Temp\ccfBhFEg.s:25784  .debug_str:00000000000107c8 .LASF3014
C:\Users\SOLDER~1\AppData\Local\Temp\ccfBhFEg.s:26682  .debug_str:0000000000014221 .LASF3015
C:\Users\SOLDER~1\AppData\Local\Temp\ccfBhFEg.s:27680  .debug_str:0000000000018299 .LASF3016
C:\Users\SOLDER~1\AppData\Local\Temp\ccfBhFEg.s:24724  .debug_str:000000000000c239 .LASF3017
C:\Users\SOLDER~1\AppData\Local\Temp\ccfBhFEg.s:24100  .debug_str:0000000000009a31 .LASF3018
C:\Users\SOLDER~1\AppData\Local\Temp\ccfBhFEg.s:22788  .debug_str:000000000000451f .LASF3019
C:\Users\SOLDER~1\AppData\Local\Temp\ccfBhFEg.s:33284  .debug_str:000000000002ec7c .LASF3020
C:\Users\SOLDER~1\AppData\Local\Temp\ccfBhFEg.s:32604  .debug_str:000000000002c0c7 .LASF3021
C:\Users\SOLDER~1\AppData\Local\Temp\ccfBhFEg.s:29190  .debug_str:000000000001e362 .LASF3022
C:\Users\SOLDER~1\AppData\Local\Temp\ccfBhFEg.s:31164  .debug_str:00000000000262e8 .LASF3023
C:\Users\SOLDER~1\AppData\Local\Temp\ccfBhFEg.s:28496  .debug_str:000000000001b69f .LASF3024
C:\Users\SOLDER~1\AppData\Local\Temp\ccfBhFEg.s:28844  .debug_str:000000000001cd0b .LASF3025
C:\Users\SOLDER~1\AppData\Local\Temp\ccfBhFEg.s:22318  .debug_str:0000000000002718 .LASF3026
C:\Users\SOLDER~1\AppData\Local\Temp\ccfBhFEg.s:26922  .debug_str:000000000001525e .LASF3027
C:\Users\SOLDER~1\AppData\Local\Temp\ccfBhFEg.s:31550  .debug_str:0000000000027c79 .LASF3028
C:\Users\SOLDER~1\AppData\Local\Temp\ccfBhFEg.s:24990  .debug_str:000000000000d44b .LASF3029
C:\Users\SOLDER~1\AppData\Local\Temp\ccfBhFEg.s:26874  .debug_str:0000000000014f2e .LASF3030
C:\Users\SOLDER~1\AppData\Local\Temp\ccfBhFEg.s:33264  .debug_str:000000000002eb49 .LASF3031
C:\Users\SOLDER~1\AppData\Local\Temp\ccfBhFEg.s:23992  .debug_str:0000000000009345 .LASF3032
C:\Users\SOLDER~1\AppData\Local\Temp\ccfBhFEg.s:32854  .debug_str:000000000002d100 .LASF3033
C:\Users\SOLDER~1\AppData\Local\Temp\ccfBhFEg.s:26308  .debug_str:00000000000128d4 .LASF3034
C:\Users\SOLDER~1\AppData\Local\Temp\ccfBhFEg.s:32218  .debug_str:000000000002a7df .LASF3035
C:\Users\SOLDER~1\AppData\Local\Temp\ccfBhFEg.s:24242  .debug_str:000000000000a34f .LASF3036
C:\Users\SOLDER~1\AppData\Local\Temp\ccfBhFEg.s:30448  .debug_str:0000000000023452 .LASF3037
C:\Users\SOLDER~1\AppData\Local\Temp\ccfBhFEg.s:22136  .debug_str:0000000000001b51 .LASF3038
C:\Users\SOLDER~1\AppData\Local\Temp\ccfBhFEg.s:22186  .debug_str:0000000000001eac .LASF3039
C:\Users\SOLDER~1\AppData\Local\Temp\ccfBhFEg.s:22356  .debug_str:00000000000029cc .LASF3040
C:\Users\SOLDER~1\AppData\Local\Temp\ccfBhFEg.s:27174  .debug_str:0000000000016223 .LASF3041
C:\Users\SOLDER~1\AppData\Local\Temp\ccfBhFEg.s:25864  .debug_str:0000000000010cf5 .LASF3042
C:\Users\SOLDER~1\AppData\Local\Temp\ccfBhFEg.s:25400  .debug_str:000000000000eeb0 .LASF3043
C:\Users\SOLDER~1\AppData\Local\Temp\ccfBhFEg.s:28010  .debug_str:000000000001981a .LASF3044
C:\Users\SOLDER~1\AppData\Local\Temp\ccfBhFEg.s:23730  .debug_str:0000000000008201 .LASF3045
C:\Users\SOLDER~1\AppData\Local\Temp\ccfBhFEg.s:25062  .debug_str:000000000000d8f5 .LASF3046
C:\Users\SOLDER~1\AppData\Local\Temp\ccfBhFEg.s:27744  .debug_str:0000000000018724 .LASF3047
C:\Users\SOLDER~1\AppData\Local\Temp\ccfBhFEg.s:28672  .debug_str:000000000001c18f .LASF3048
C:\Users\SOLDER~1\AppData\Local\Temp\ccfBhFEg.s:26236  .debug_str:0000000000012445 .LASF3049
C:\Users\SOLDER~1\AppData\Local\Temp\ccfBhFEg.s:29584  .debug_str:000000000001fd69 .LASF3050
C:\Users\SOLDER~1\AppData\Local\Temp\ccfBhFEg.s:23848  .debug_str:00000000000089a9 .LASF3051
GAS LISTING C:\Users\SOLDER~1\AppData\Local\Temp\ccfBhFEg.s 			page 127


C:\Users\SOLDER~1\AppData\Local\Temp\ccfBhFEg.s:24712  .debug_str:000000000000c186 .LASF3052
C:\Users\SOLDER~1\AppData\Local\Temp\ccfBhFEg.s:22024  .debug_str:000000000000141a .LASF3053
C:\Users\SOLDER~1\AppData\Local\Temp\ccfBhFEg.s:33222  .debug_str:000000000002e8b1 .LASF3054
C:\Users\SOLDER~1\AppData\Local\Temp\ccfBhFEg.s:31798  .debug_str:0000000000028c7e .LASF3055
C:\Users\SOLDER~1\AppData\Local\Temp\ccfBhFEg.s:27056  .debug_str:0000000000015b24 .LASF3056
C:\Users\SOLDER~1\AppData\Local\Temp\ccfBhFEg.s:29858  .debug_str:0000000000020ec4 .LASF3057
C:\Users\SOLDER~1\AppData\Local\Temp\ccfBhFEg.s:24732  .debug_str:000000000000c2b1 .LASF3058
C:\Users\SOLDER~1\AppData\Local\Temp\ccfBhFEg.s:26940  .debug_str:0000000000015375 .LASF3059
C:\Users\SOLDER~1\AppData\Local\Temp\ccfBhFEg.s:23868  .debug_str:0000000000008aea .LASF3060
C:\Users\SOLDER~1\AppData\Local\Temp\ccfBhFEg.s:26038  .debug_str:00000000000117b3 .LASF3061
C:\Users\SOLDER~1\AppData\Local\Temp\ccfBhFEg.s:28198  .debug_str:000000000001a3cf .LASF3062
C:\Users\SOLDER~1\AppData\Local\Temp\ccfBhFEg.s:22154  .debug_str:0000000000001c8a .LASF3063
C:\Users\SOLDER~1\AppData\Local\Temp\ccfBhFEg.s:22676  .debug_str:0000000000003e08 .LASF3064
C:\Users\SOLDER~1\AppData\Local\Temp\ccfBhFEg.s:31470  .debug_str:000000000002771e .LASF3065
C:\Users\SOLDER~1\AppData\Local\Temp\ccfBhFEg.s:27684  .debug_str:00000000000182e7 .LASF3066
C:\Users\SOLDER~1\AppData\Local\Temp\ccfBhFEg.s:28578  .debug_str:000000000001bbed .LASF3067
C:\Users\SOLDER~1\AppData\Local\Temp\ccfBhFEg.s:25888  .debug_str:0000000000010e82 .LASF3068
C:\Users\SOLDER~1\AppData\Local\Temp\ccfBhFEg.s:27796  .debug_str:0000000000018a30 .LASF3069
C:\Users\SOLDER~1\AppData\Local\Temp\ccfBhFEg.s:32502  .debug_str:000000000002ba13 .LASF3070
C:\Users\SOLDER~1\AppData\Local\Temp\ccfBhFEg.s:28592  .debug_str:000000000001bcbf .LASF3071
C:\Users\SOLDER~1\AppData\Local\Temp\ccfBhFEg.s:24092  .debug_str:00000000000099a0 .LASF3072
C:\Users\SOLDER~1\AppData\Local\Temp\ccfBhFEg.s:32320  .debug_str:000000000002ae4f .LASF3073
C:\Users\SOLDER~1\AppData\Local\Temp\ccfBhFEg.s:33084  .debug_str:000000000002e026 .LASF3074
C:\Users\SOLDER~1\AppData\Local\Temp\ccfBhFEg.s:29456  .debug_str:000000000001f4c9 .LASF3075
C:\Users\SOLDER~1\AppData\Local\Temp\ccfBhFEg.s:29268  .debug_str:000000000001e854 .LASF3076
C:\Users\SOLDER~1\AppData\Local\Temp\ccfBhFEg.s:32730  .debug_str:000000000002c953 .LASF3077
C:\Users\SOLDER~1\AppData\Local\Temp\ccfBhFEg.s:23702  .debug_str:0000000000008014 .LASF3078
C:\Users\SOLDER~1\AppData\Local\Temp\ccfBhFEg.s:29082  .debug_str:000000000001dc7f .LASF3079
C:\Users\SOLDER~1\AppData\Local\Temp\ccfBhFEg.s:31778  .debug_str:0000000000028b37 .LASF3080
C:\Users\SOLDER~1\AppData\Local\Temp\ccfBhFEg.s:24622  .debug_str:000000000000bba3 .LASF3081
C:\Users\SOLDER~1\AppData\Local\Temp\ccfBhFEg.s:32058  .debug_str:0000000000029d50 .LASF3082
C:\Users\SOLDER~1\AppData\Local\Temp\ccfBhFEg.s:22680  .debug_str:0000000000003e50 .LASF3083
C:\Users\SOLDER~1\AppData\Local\Temp\ccfBhFEg.s:23246  .debug_str:000000000000623b .LASF3084
C:\Users\SOLDER~1\AppData\Local\Temp\ccfBhFEg.s:32024  .debug_str:0000000000029b39 .LASF3085
C:\Users\SOLDER~1\AppData\Local\Temp\ccfBhFEg.s:27010  .debug_str:000000000001581a .LASF3086
C:\Users\SOLDER~1\AppData\Local\Temp\ccfBhFEg.s:30538  .debug_str:0000000000023a09 .LASF3087
C:\Users\SOLDER~1\AppData\Local\Temp\ccfBhFEg.s:26974  .debug_str:000000000001559c .LASF3088
C:\Users\SOLDER~1\AppData\Local\Temp\ccfBhFEg.s:28656  .debug_str:000000000001c0a9 .LASF3089
C:\Users\SOLDER~1\AppData\Local\Temp\ccfBhFEg.s:27736  .debug_str:000000000001868f .LASF3090
C:\Users\SOLDER~1\AppData\Local\Temp\ccfBhFEg.s:31980  .debug_str:0000000000029831 .LASF3091
C:\Users\SOLDER~1\AppData\Local\Temp\ccfBhFEg.s:23094  .debug_str:0000000000005827 .LASF3092
C:\Users\SOLDER~1\AppData\Local\Temp\ccfBhFEg.s:24868  .debug_str:000000000000cc22 .LASF3093
C:\Users\SOLDER~1\AppData\Local\Temp\ccfBhFEg.s:23288  .debug_str:00000000000064f3 .LASF3094
C:\Users\SOLDER~1\AppData\Local\Temp\ccfBhFEg.s:27236  .debug_str:000000000001662c .LASF3095
C:\Users\SOLDER~1\AppData\Local\Temp\ccfBhFEg.s:29626  .debug_str:0000000000020018 .LASF3096
C:\Users\SOLDER~1\AppData\Local\Temp\ccfBhFEg.s:32744  .debug_str:000000000002ca26 .LASF3097
C:\Users\SOLDER~1\AppData\Local\Temp\ccfBhFEg.s:25468  .debug_str:000000000000f2fc .LASF3098
C:\Users\SOLDER~1\AppData\Local\Temp\ccfBhFEg.s:27272  .debug_str:000000000001685d .LASF3099
C:\Users\SOLDER~1\AppData\Local\Temp\ccfBhFEg.s:32586  .debug_str:000000000002bf9e .LASF3100
C:\Users\SOLDER~1\AppData\Local\Temp\ccfBhFEg.s:26116  .debug_str:0000000000011cba .LASF3101
C:\Users\SOLDER~1\AppData\Local\Temp\ccfBhFEg.s:25424  .debug_str:000000000000f042 .LASF3102
C:\Users\SOLDER~1\AppData\Local\Temp\ccfBhFEg.s:27032  .debug_str:0000000000015999 .LASF3103
C:\Users\SOLDER~1\AppData\Local\Temp\ccfBhFEg.s:24450  .debug_str:000000000000b0fa .LASF3104
C:\Users\SOLDER~1\AppData\Local\Temp\ccfBhFEg.s:25308  .debug_str:000000000000e8fd .LASF3105
C:\Users\SOLDER~1\AppData\Local\Temp\ccfBhFEg.s:32292  .debug_str:000000000002acaa .LASF3106
C:\Users\SOLDER~1\AppData\Local\Temp\ccfBhFEg.s:23604  .debug_str:0000000000007978 .LASF3107
C:\Users\SOLDER~1\AppData\Local\Temp\ccfBhFEg.s:30086  .debug_str:0000000000021d89 .LASF3108
GAS LISTING C:\Users\SOLDER~1\AppData\Local\Temp\ccfBhFEg.s 			page 128


C:\Users\SOLDER~1\AppData\Local\Temp\ccfBhFEg.s:21962  .debug_str:0000000000001030 .LASF3109
C:\Users\SOLDER~1\AppData\Local\Temp\ccfBhFEg.s:27094  .debug_str:0000000000015d2c .LASF3110
C:\Users\SOLDER~1\AppData\Local\Temp\ccfBhFEg.s:22700  .debug_str:0000000000003f9e .LASF3111
C:\Users\SOLDER~1\AppData\Local\Temp\ccfBhFEg.s:30964  .debug_str:000000000002561d .LASF3112
C:\Users\SOLDER~1\AppData\Local\Temp\ccfBhFEg.s:30632  .debug_str:0000000000024013 .LASF3113
C:\Users\SOLDER~1\AppData\Local\Temp\ccfBhFEg.s:28980  .debug_str:000000000001d5b8 .LASF3114
C:\Users\SOLDER~1\AppData\Local\Temp\ccfBhFEg.s:28914  .debug_str:000000000001d191 .LASF3115
C:\Users\SOLDER~1\AppData\Local\Temp\ccfBhFEg.s:30544  .debug_str:0000000000023a73 .LASF3116
C:\Users\SOLDER~1\AppData\Local\Temp\ccfBhFEg.s:25708  .debug_str:00000000000102f4 .LASF3117
C:\Users\SOLDER~1\AppData\Local\Temp\ccfBhFEg.s:29202  .debug_str:000000000001e439 .LASF3118
C:\Users\SOLDER~1\AppData\Local\Temp\ccfBhFEg.s:28402  .debug_str:000000000001b08e .LASF3119
C:\Users\SOLDER~1\AppData\Local\Temp\ccfBhFEg.s:29142  .debug_str:000000000001e00d .LASF3120
C:\Users\SOLDER~1\AppData\Local\Temp\ccfBhFEg.s:26646  .debug_str:0000000000013fcb .LASF3121
C:\Users\SOLDER~1\AppData\Local\Temp\ccfBhFEg.s:32232  .debug_str:000000000002a8e0 .LASF3122
C:\Users\SOLDER~1\AppData\Local\Temp\ccfBhFEg.s:23376  .debug_str:0000000000006b08 .LASF3123
C:\Users\SOLDER~1\AppData\Local\Temp\ccfBhFEg.s:24194  .debug_str:000000000000a052 .LASF3124
C:\Users\SOLDER~1\AppData\Local\Temp\ccfBhFEg.s:23272  .debug_str:00000000000063f7 .LASF3125
C:\Users\SOLDER~1\AppData\Local\Temp\ccfBhFEg.s:26264  .debug_str:0000000000012617 .LASF3126
C:\Users\SOLDER~1\AppData\Local\Temp\ccfBhFEg.s:22466  .debug_str:000000000000308b .LASF3127
C:\Users\SOLDER~1\AppData\Local\Temp\ccfBhFEg.s:31756  .debug_str:00000000000289da .LASF3128
C:\Users\SOLDER~1\AppData\Local\Temp\ccfBhFEg.s:31582  .debug_str:0000000000027e80 .LASF3129
C:\Users\SOLDER~1\AppData\Local\Temp\ccfBhFEg.s:29298  .debug_str:000000000001ea32 .LASF3130
C:\Users\SOLDER~1\AppData\Local\Temp\ccfBhFEg.s:32054  .debug_str:0000000000029d0d .LASF3131
C:\Users\SOLDER~1\AppData\Local\Temp\ccfBhFEg.s:26736  .debug_str:00000000000145d4 .LASF3132
C:\Users\SOLDER~1\AppData\Local\Temp\ccfBhFEg.s:24034  .debug_str:0000000000009626 .LASF3133
C:\Users\SOLDER~1\AppData\Local\Temp\ccfBhFEg.s:22214  .debug_str:0000000000002068 .LASF3134
C:\Users\SOLDER~1\AppData\Local\Temp\ccfBhFEg.s:25486  .debug_str:000000000000f412 .LASF3135
C:\Users\SOLDER~1\AppData\Local\Temp\ccfBhFEg.s:27560  .debug_str:0000000000017add .LASF3136
C:\Users\SOLDER~1\AppData\Local\Temp\ccfBhFEg.s:23808  .debug_str:0000000000008716 .LASF3137
C:\Users\SOLDER~1\AppData\Local\Temp\ccfBhFEg.s:29702  .debug_str:00000000000204be .LASF3138
C:\Users\SOLDER~1\AppData\Local\Temp\ccfBhFEg.s:30594  .debug_str:0000000000023ddb .LASF3139
C:\Users\SOLDER~1\AppData\Local\Temp\ccfBhFEg.s:21844  .debug_str:0000000000000814 .LASF3140
C:\Users\SOLDER~1\AppData\Local\Temp\ccfBhFEg.s:22034  .debug_str:00000000000014c4 .LASF3141
C:\Users\SOLDER~1\AppData\Local\Temp\ccfBhFEg.s:23496  .debug_str:00000000000072e4 .LASF3142
C:\Users\SOLDER~1\AppData\Local\Temp\ccfBhFEg.s:23068  .debug_str:0000000000005662 .LASF3143
C:\Users\SOLDER~1\AppData\Local\Temp\ccfBhFEg.s:27664  .debug_str:0000000000018186 .LASF3144
C:\Users\SOLDER~1\AppData\Local\Temp\ccfBhFEg.s:32420  .debug_str:000000000002b4a3 .LASF3145
C:\Users\SOLDER~1\AppData\Local\Temp\ccfBhFEg.s:24824  .debug_str:000000000000c930 .LASF3146
C:\Users\SOLDER~1\AppData\Local\Temp\ccfBhFEg.s:30014  .debug_str:000000000002191b .LASF3147
C:\Users\SOLDER~1\AppData\Local\Temp\ccfBhFEg.s:23146  .debug_str:0000000000005bac .LASF3148
C:\Users\SOLDER~1\AppData\Local\Temp\ccfBhFEg.s:27698  .debug_str:00000000000183e7 .LASF3149
C:\Users\SOLDER~1\AppData\Local\Temp\ccfBhFEg.s:31866  .debug_str:00000000000290f5 .LASF3150
C:\Users\SOLDER~1\AppData\Local\Temp\ccfBhFEg.s:29994  .debug_str:00000000000217db .LASF3151
C:\Users\SOLDER~1\AppData\Local\Temp\ccfBhFEg.s:31188  .debug_str:000000000002648b .LASF3152
C:\Users\SOLDER~1\AppData\Local\Temp\ccfBhFEg.s:28118  .debug_str:0000000000019f2a .LASF3153
C:\Users\SOLDER~1\AppData\Local\Temp\ccfBhFEg.s:22302  .debug_str:0000000000002612 .LASF3154
C:\Users\SOLDER~1\AppData\Local\Temp\ccfBhFEg.s:26162  .debug_str:0000000000011fb9 .LASF3155
C:\Users\SOLDER~1\AppData\Local\Temp\ccfBhFEg.s:31536  .debug_str:0000000000027b8f .LASF3156
C:\Users\SOLDER~1\AppData\Local\Temp\ccfBhFEg.s:24208  .debug_str:000000000000a13a .LASF3157
C:\Users\SOLDER~1\AppData\Local\Temp\ccfBhFEg.s:30160  .debug_str:00000000000221f6 .LASF3158
C:\Users\SOLDER~1\AppData\Local\Temp\ccfBhFEg.s:22390  .debug_str:0000000000002b9b .LASF3159
C:\Users\SOLDER~1\AppData\Local\Temp\ccfBhFEg.s:30470  .debug_str:00000000000235ae .LASF3160
C:\Users\SOLDER~1\AppData\Local\Temp\ccfBhFEg.s:32182  .debug_str:000000000002a559 .LASF3161
C:\Users\SOLDER~1\AppData\Local\Temp\ccfBhFEg.s:32860  .debug_str:000000000002d15d .LASF3162
C:\Users\SOLDER~1\AppData\Local\Temp\ccfBhFEg.s:32492  .debug_str:000000000002b97f .LASF3163
C:\Users\SOLDER~1\AppData\Local\Temp\ccfBhFEg.s:29836  .debug_str:0000000000020d57 .LASF3164
C:\Users\SOLDER~1\AppData\Local\Temp\ccfBhFEg.s:25316  .debug_str:000000000000e971 .LASF3165
GAS LISTING C:\Users\SOLDER~1\AppData\Local\Temp\ccfBhFEg.s 			page 129


C:\Users\SOLDER~1\AppData\Local\Temp\ccfBhFEg.s:30434  .debug_str:0000000000023370 .LASF3166
C:\Users\SOLDER~1\AppData\Local\Temp\ccfBhFEg.s:26168  .debug_str:000000000001202c .LASF3167
C:\Users\SOLDER~1\AppData\Local\Temp\ccfBhFEg.s:33006  .debug_str:000000000002db33 .LASF3168
C:\Users\SOLDER~1\AppData\Local\Temp\ccfBhFEg.s:24492  .debug_str:000000000000b388 .LASF3169
C:\Users\SOLDER~1\AppData\Local\Temp\ccfBhFEg.s:31168  .debug_str:0000000000026321 .LASF3170
C:\Users\SOLDER~1\AppData\Local\Temp\ccfBhFEg.s:22724  .debug_str:000000000000410d .LASF3171
C:\Users\SOLDER~1\AppData\Local\Temp\ccfBhFEg.s:31166  .debug_str:0000000000026300 .LASF3172
C:\Users\SOLDER~1\AppData\Local\Temp\ccfBhFEg.s:22800  .debug_str:00000000000045e1 .LASF3173
C:\Users\SOLDER~1\AppData\Local\Temp\ccfBhFEg.s:27180  .debug_str:0000000000016289 .LASF3174
C:\Users\SOLDER~1\AppData\Local\Temp\ccfBhFEg.s:28196  .debug_str:000000000001a3bc .LASF3175
C:\Users\SOLDER~1\AppData\Local\Temp\ccfBhFEg.s:29002  .debug_str:000000000001d77a .LASF3176
C:\Users\SOLDER~1\AppData\Local\Temp\ccfBhFEg.s:26232  .debug_str:0000000000012410 .LASF3177
C:\Users\SOLDER~1\AppData\Local\Temp\ccfBhFEg.s:28498  .debug_str:000000000001b6c1 .LASF3178
C:\Users\SOLDER~1\AppData\Local\Temp\ccfBhFEg.s:24276  .debug_str:000000000000a583 .LASF3179
C:\Users\SOLDER~1\AppData\Local\Temp\ccfBhFEg.s:30968  .debug_str:0000000000025659 .LASF3180
C:\Users\SOLDER~1\AppData\Local\Temp\ccfBhFEg.s:24650  .debug_str:000000000000bd83 .LASF3181
C:\Users\SOLDER~1\AppData\Local\Temp\ccfBhFEg.s:29388  .debug_str:000000000001f062 .LASF3182
C:\Users\SOLDER~1\AppData\Local\Temp\ccfBhFEg.s:32250  .debug_str:000000000002aa05 .LASF3183
C:\Users\SOLDER~1\AppData\Local\Temp\ccfBhFEg.s:31846  .debug_str:0000000000028fa7 .LASF3184
C:\Users\SOLDER~1\AppData\Local\Temp\ccfBhFEg.s:30300  .debug_str:0000000000022a85 .LASF3185
C:\Users\SOLDER~1\AppData\Local\Temp\ccfBhFEg.s:29966  .debug_str:00000000000215c5 .LASF3186
C:\Users\SOLDER~1\AppData\Local\Temp\ccfBhFEg.s:28426  .debug_str:000000000001b26e .LASF3187
C:\Users\SOLDER~1\AppData\Local\Temp\ccfBhFEg.s:25420  .debug_str:000000000000effb .LASF3188
C:\Users\SOLDER~1\AppData\Local\Temp\ccfBhFEg.s:27192  .debug_str:0000000000016348 .LASF3189
C:\Users\SOLDER~1\AppData\Local\Temp\ccfBhFEg.s:21990  .debug_str:00000000000011fb .LASF3190
C:\Users\SOLDER~1\AppData\Local\Temp\ccfBhFEg.s:24286  .debug_str:000000000000a62a .LASF3191
C:\Users\SOLDER~1\AppData\Local\Temp\ccfBhFEg.s:31904  .debug_str:0000000000029368 .LASF3192
C:\Users\SOLDER~1\AppData\Local\Temp\ccfBhFEg.s:22616  .debug_str:0000000000003a32 .LASF3193
C:\Users\SOLDER~1\AppData\Local\Temp\ccfBhFEg.s:27184  .debug_str:00000000000162cd .LASF3194
C:\Users\SOLDER~1\AppData\Local\Temp\ccfBhFEg.s:32322  .debug_str:000000000002ae6a .LASF3195
C:\Users\SOLDER~1\AppData\Local\Temp\ccfBhFEg.s:24246  .debug_str:000000000000a397 .LASF3196
C:\Users\SOLDER~1\AppData\Local\Temp\ccfBhFEg.s:30622  .debug_str:0000000000023f9f .LASF3197
C:\Users\SOLDER~1\AppData\Local\Temp\ccfBhFEg.s:28842  .debug_str:000000000001cce9 .LASF3198
C:\Users\SOLDER~1\AppData\Local\Temp\ccfBhFEg.s:30182  .debug_str:0000000000022366 .LASF3199
C:\Users\SOLDER~1\AppData\Local\Temp\ccfBhFEg.s:27928  .debug_str:00000000000192b6 .LASF3200
C:\Users\SOLDER~1\AppData\Local\Temp\ccfBhFEg.s:27268  .debug_str:0000000000016829 .LASF3201
C:\Users\SOLDER~1\AppData\Local\Temp\ccfBhFEg.s:23974  .debug_str:0000000000009218 .LASF3202
C:\Users\SOLDER~1\AppData\Local\Temp\ccfBhFEg.s:30680  .debug_str:000000000002433c .LASF3203
C:\Users\SOLDER~1\AppData\Local\Temp\ccfBhFEg.s:25350  .debug_str:000000000000ebbf .LASF3204
C:\Users\SOLDER~1\AppData\Local\Temp\ccfBhFEg.s:23814  .debug_str:000000000000876c .LASF3205
C:\Users\SOLDER~1\AppData\Local\Temp\ccfBhFEg.s:23306  .debug_str:000000000000662d .LASF3206
C:\Users\SOLDER~1\AppData\Local\Temp\ccfBhFEg.s:31206  .debug_str:00000000000265e2 .LASF3207
C:\Users\SOLDER~1\AppData\Local\Temp\ccfBhFEg.s:24162  .debug_str:0000000000009df4 .LASF3208
C:\Users\SOLDER~1\AppData\Local\Temp\ccfBhFEg.s:26270  .debug_str:0000000000012663 .LASF3209
C:\Users\SOLDER~1\AppData\Local\Temp\ccfBhFEg.s:32242  .debug_str:000000000002a980 .LASF3210
C:\Users\SOLDER~1\AppData\Local\Temp\ccfBhFEg.s:27346  .debug_str:0000000000016cd0 .LASF3211
C:\Users\SOLDER~1\AppData\Local\Temp\ccfBhFEg.s:31722  .debug_str:00000000000287ba .LASF3212
C:\Users\SOLDER~1\AppData\Local\Temp\ccfBhFEg.s:31348  .debug_str:0000000000026f1e .LASF3213
C:\Users\SOLDER~1\AppData\Local\Temp\ccfBhFEg.s:29034  .debug_str:000000000001d9a4 .LASF3214
C:\Users\SOLDER~1\AppData\Local\Temp\ccfBhFEg.s:23178  .debug_str:0000000000005daa .LASF3215
C:\Users\SOLDER~1\AppData\Local\Temp\ccfBhFEg.s:30784  .debug_str:0000000000024a12 .LASF3216
C:\Users\SOLDER~1\AppData\Local\Temp\ccfBhFEg.s:32050  .debug_str:0000000000029cd0 .LASF3217
C:\Users\SOLDER~1\AppData\Local\Temp\ccfBhFEg.s:25502  .debug_str:000000000000f50f .LASF3218
C:\Users\SOLDER~1\AppData\Local\Temp\ccfBhFEg.s:29180  .debug_str:000000000001e2ab .LASF3219
C:\Users\SOLDER~1\AppData\Local\Temp\ccfBhFEg.s:27320  .debug_str:0000000000016b36 .LASF3220
C:\Users\SOLDER~1\AppData\Local\Temp\ccfBhFEg.s:29186  .debug_str:000000000001e31a .LASF3221
C:\Users\SOLDER~1\AppData\Local\Temp\ccfBhFEg.s:24404  .debug_str:000000000000adf3 .LASF3222
GAS LISTING C:\Users\SOLDER~1\AppData\Local\Temp\ccfBhFEg.s 			page 130


C:\Users\SOLDER~1\AppData\Local\Temp\ccfBhFEg.s:23860  .debug_str:0000000000008a55 .LASF3223
C:\Users\SOLDER~1\AppData\Local\Temp\ccfBhFEg.s:32872  .debug_str:000000000002d21b .LASF3224
C:\Users\SOLDER~1\AppData\Local\Temp\ccfBhFEg.s:23536  .debug_str:0000000000007573 .LASF3225
C:\Users\SOLDER~1\AppData\Local\Temp\ccfBhFEg.s:31940  .debug_str:0000000000029585 .LASF3226
C:\Users\SOLDER~1\AppData\Local\Temp\ccfBhFEg.s:29930  .debug_str:000000000002137c .LASF3227
C:\Users\SOLDER~1\AppData\Local\Temp\ccfBhFEg.s:27362  .debug_str:0000000000016de7 .LASF3228
C:\Users\SOLDER~1\AppData\Local\Temp\ccfBhFEg.s:24614  .debug_str:000000000000bb24 .LASF3229
C:\Users\SOLDER~1\AppData\Local\Temp\ccfBhFEg.s:21926  .debug_str:0000000000000e14 .LASF3230
C:\Users\SOLDER~1\AppData\Local\Temp\ccfBhFEg.s:31064  .debug_str:0000000000025c3b .LASF3231
C:\Users\SOLDER~1\AppData\Local\Temp\ccfBhFEg.s:32212  .debug_str:000000000002a777 .LASF3232
C:\Users\SOLDER~1\AppData\Local\Temp\ccfBhFEg.s:22182  .debug_str:0000000000001e72 .LASF3233
C:\Users\SOLDER~1\AppData\Local\Temp\ccfBhFEg.s:26328  .debug_str:0000000000012a30 .LASF3234
C:\Users\SOLDER~1\AppData\Local\Temp\ccfBhFEg.s:33128  .debug_str:000000000002e2dc .LASF3235
C:\Users\SOLDER~1\AppData\Local\Temp\ccfBhFEg.s:28340  .debug_str:000000000001acd6 .LASF3236
C:\Users\SOLDER~1\AppData\Local\Temp\ccfBhFEg.s:25446  .debug_str:000000000000f18f .LASF3237
C:\Users\SOLDER~1\AppData\Local\Temp\ccfBhFEg.s:29150  .debug_str:000000000001e0a6 .LASF3238
C:\Users\SOLDER~1\AppData\Local\Temp\ccfBhFEg.s:32776  .debug_str:000000000002cc14 .LASF3239
C:\Users\SOLDER~1\AppData\Local\Temp\ccfBhFEg.s:24762  .debug_str:000000000000c4d3 .LASF3240
C:\Users\SOLDER~1\AppData\Local\Temp\ccfBhFEg.s:30950  .debug_str:000000000002554a .LASF3241
C:\Users\SOLDER~1\AppData\Local\Temp\ccfBhFEg.s:32672  .debug_str:000000000002c523 .LASF3242
C:\Users\SOLDER~1\AppData\Local\Temp\ccfBhFEg.s:26522  .debug_str:00000000000136ea .LASF3243
C:\Users\SOLDER~1\AppData\Local\Temp\ccfBhFEg.s:25688  .debug_str:00000000000101aa .LASF3244
C:\Users\SOLDER~1\AppData\Local\Temp\ccfBhFEg.s:31668  .debug_str:0000000000028417 .LASF3245
C:\Users\SOLDER~1\AppData\Local\Temp\ccfBhFEg.s:29320  .debug_str:000000000001ebd9 .LASF3246
C:\Users\SOLDER~1\AppData\Local\Temp\ccfBhFEg.s:31834  .debug_str:0000000000028efe .LASF3247
C:\Users\SOLDER~1\AppData\Local\Temp\ccfBhFEg.s:25544  .debug_str:000000000000f7be .LASF3248
C:\Users\SOLDER~1\AppData\Local\Temp\ccfBhFEg.s:32570  .debug_str:000000000002be7c .LASF3249
C:\Users\SOLDER~1\AppData\Local\Temp\ccfBhFEg.s:26952  .debug_str:0000000000015414 .LASF3250
C:\Users\SOLDER~1\AppData\Local\Temp\ccfBhFEg.s:33218  .debug_str:000000000002e86f .LASF3251
C:\Users\SOLDER~1\AppData\Local\Temp\ccfBhFEg.s:32286  .debug_str:000000000002ac31 .LASF3252
C:\Users\SOLDER~1\AppData\Local\Temp\ccfBhFEg.s:24892  .debug_str:000000000000cdc7 .LASF3253
C:\Users\SOLDER~1\AppData\Local\Temp\ccfBhFEg.s:32006  .debug_str:00000000000299e2 .LASF3254
C:\Users\SOLDER~1\AppData\Local\Temp\ccfBhFEg.s:28824  .debug_str:000000000001cba7 .LASF3255
C:\Users\SOLDER~1\AppData\Local\Temp\ccfBhFEg.s:26054  .debug_str:00000000000118bc .LASF3256
C:\Users\SOLDER~1\AppData\Local\Temp\ccfBhFEg.s:23666  .debug_str:0000000000007d98 .LASF3257
C:\Users\SOLDER~1\AppData\Local\Temp\ccfBhFEg.s:24664  .debug_str:000000000000be9c .LASF3258
C:\Users\SOLDER~1\AppData\Local\Temp\ccfBhFEg.s:28650  .debug_str:000000000001c044 .LASF3259
C:\Users\SOLDER~1\AppData\Local\Temp\ccfBhFEg.s:25854  .debug_str:0000000000010c25 .LASF3260
C:\Users\SOLDER~1\AppData\Local\Temp\ccfBhFEg.s:28548  .debug_str:000000000001b9ef .LASF3261
C:\Users\SOLDER~1\AppData\Local\Temp\ccfBhFEg.s:30198  .debug_str:0000000000022469 .LASF3262
C:\Users\SOLDER~1\AppData\Local\Temp\ccfBhFEg.s:30770  .debug_str:0000000000024908 .LASF3263
C:\Users\SOLDER~1\AppData\Local\Temp\ccfBhFEg.s:23818  .debug_str:000000000000879f .LASF3264
C:\Users\SOLDER~1\AppData\Local\Temp\ccfBhFEg.s:31730  .debug_str:000000000002883a .LASF3265
C:\Users\SOLDER~1\AppData\Local\Temp\ccfBhFEg.s:28108  .debug_str:0000000000019e7a .LASF3266
C:\Users\SOLDER~1\AppData\Local\Temp\ccfBhFEg.s:24828  .debug_str:000000000000c977 .LASF3267
C:\Users\SOLDER~1\AppData\Local\Temp\ccfBhFEg.s:24026  .debug_str:0000000000009573 .LASF3268
C:\Users\SOLDER~1\AppData\Local\Temp\ccfBhFEg.s:23738  .debug_str:000000000000829b .LASF3269
C:\Users\SOLDER~1\AppData\Local\Temp\ccfBhFEg.s:25604  .debug_str:000000000000fbc1 .LASF3270
C:\Users\SOLDER~1\AppData\Local\Temp\ccfBhFEg.s:27848  .debug_str:0000000000018d61 .LASF3271
C:\Users\SOLDER~1\AppData\Local\Temp\ccfBhFEg.s:26842  .debug_str:0000000000014cf3 .LASF3272
C:\Users\SOLDER~1\AppData\Local\Temp\ccfBhFEg.s:29154  .debug_str:000000000001e0ea .LASF3273
C:\Users\SOLDER~1\AppData\Local\Temp\ccfBhFEg.s:22274  .debug_str:0000000000002465 .LASF3274
C:\Users\SOLDER~1\AppData\Local\Temp\ccfBhFEg.s:25344  .debug_str:000000000000eb3a .LASF3275
C:\Users\SOLDER~1\AppData\Local\Temp\ccfBhFEg.s:27026  .debug_str:000000000001591f .LASF3276
C:\Users\SOLDER~1\AppData\Local\Temp\ccfBhFEg.s:29476  .debug_str:000000000001f615 .LASF3277
C:\Users\SOLDER~1\AppData\Local\Temp\ccfBhFEg.s:30380  .debug_str:0000000000022fcd .LASF3278
C:\Users\SOLDER~1\AppData\Local\Temp\ccfBhFEg.s:33326  .debug_str:000000000002ef5f .LASF3279
GAS LISTING C:\Users\SOLDER~1\AppData\Local\Temp\ccfBhFEg.s 			page 131


C:\Users\SOLDER~1\AppData\Local\Temp\ccfBhFEg.s:32192  .debug_str:000000000002a609 .LASF3280
C:\Users\SOLDER~1\AppData\Local\Temp\ccfBhFEg.s:32470  .debug_str:000000000002b832 .LASF3281
C:\Users\SOLDER~1\AppData\Local\Temp\ccfBhFEg.s:23900  .debug_str:0000000000008d37 .LASF3282
C:\Users\SOLDER~1\AppData\Local\Temp\ccfBhFEg.s:27682  .debug_str:00000000000182bb .LASF3283
C:\Users\SOLDER~1\AppData\Local\Temp\ccfBhFEg.s:32982  .debug_str:000000000002d994 .LASF3284
C:\Users\SOLDER~1\AppData\Local\Temp\ccfBhFEg.s:30868  .debug_str:0000000000024fa7 .LASF3285
C:\Users\SOLDER~1\AppData\Local\Temp\ccfBhFEg.s:25348  .debug_str:000000000000eb8c .LASF3286
C:\Users\SOLDER~1\AppData\Local\Temp\ccfBhFEg.s:26886  .debug_str:0000000000015009 .LASF3287
C:\Users\SOLDER~1\AppData\Local\Temp\ccfBhFEg.s:24784  .debug_str:000000000000c663 .LASF3288
C:\Users\SOLDER~1\AppData\Local\Temp\ccfBhFEg.s:26072  .debug_str:0000000000011a05 .LASF3289
C:\Users\SOLDER~1\AppData\Local\Temp\ccfBhFEg.s:26686  .debug_str:0000000000014258 .LASF3290
C:\Users\SOLDER~1\AppData\Local\Temp\ccfBhFEg.s:26068  .debug_str:00000000000119ba .LASF3291
C:\Users\SOLDER~1\AppData\Local\Temp\ccfBhFEg.s:29348  .debug_str:000000000001eda2 .LASF3292
C:\Users\SOLDER~1\AppData\Local\Temp\ccfBhFEg.s:26450  .debug_str:0000000000013218 .LASF3293
C:\Users\SOLDER~1\AppData\Local\Temp\ccfBhFEg.s:31650  .debug_str:00000000000282cc .LASF3294
C:\Users\SOLDER~1\AppData\Local\Temp\ccfBhFEg.s:29026  .debug_str:000000000001d916 .LASF3295
C:\Users\SOLDER~1\AppData\Local\Temp\ccfBhFEg.s:30166  .debug_str:000000000002226b .LASF3296
C:\Users\SOLDER~1\AppData\Local\Temp\ccfBhFEg.s:27666  .debug_str:00000000000181a6 .LASF3297
C:\Users\SOLDER~1\AppData\Local\Temp\ccfBhFEg.s:23098  .debug_str:0000000000005861 .LASF3298
C:\Users\SOLDER~1\AppData\Local\Temp\ccfBhFEg.s:25620  .debug_str:000000000000fcdb .LASF3299
C:\Users\SOLDER~1\AppData\Local\Temp\ccfBhFEg.s:27226  .debug_str:000000000001657b .LASF3300
C:\Users\SOLDER~1\AppData\Local\Temp\ccfBhFEg.s:29128  .debug_str:000000000001df33 .LASF3301
C:\Users\SOLDER~1\AppData\Local\Temp\ccfBhFEg.s:28690  .debug_str:000000000001c2d2 .LASF3302
C:\Users\SOLDER~1\AppData\Local\Temp\ccfBhFEg.s:24974  .debug_str:000000000000d311 .LASF3303
C:\Users\SOLDER~1\AppData\Local\Temp\ccfBhFEg.s:22500  .debug_str:00000000000032b5 .LASF3304
C:\Users\SOLDER~1\AppData\Local\Temp\ccfBhFEg.s:28680  .debug_str:000000000001c21b .LASF3305
C:\Users\SOLDER~1\AppData\Local\Temp\ccfBhFEg.s:23926  .debug_str:0000000000008ee6 .LASF3306
C:\Users\SOLDER~1\AppData\Local\Temp\ccfBhFEg.s:25418  .debug_str:000000000000efc8 .LASF3307
C:\Users\SOLDER~1\AppData\Local\Temp\ccfBhFEg.s:22808  .debug_str:0000000000004645 .LASF3308
C:\Users\SOLDER~1\AppData\Local\Temp\ccfBhFEg.s:25760  .debug_str:000000000001060b .LASF3309
C:\Users\SOLDER~1\AppData\Local\Temp\ccfBhFEg.s:22988  .debug_str:000000000000516d .LASF3310
C:\Users\SOLDER~1\AppData\Local\Temp\ccfBhFEg.s:21778  .debug_str:0000000000000338 .LASF3311
C:\Users\SOLDER~1\AppData\Local\Temp\ccfBhFEg.s:24212  .debug_str:000000000000a171 .LASF3312
C:\Users\SOLDER~1\AppData\Local\Temp\ccfBhFEg.s:30948  .debug_str:0000000000025524 .LASF3313
C:\Users\SOLDER~1\AppData\Local\Temp\ccfBhFEg.s:33292  .debug_str:000000000002ecfa .LASF3314
C:\Users\SOLDER~1\AppData\Local\Temp\ccfBhFEg.s:21968  .debug_str:0000000000001083 .LASF3315
C:\Users\SOLDER~1\AppData\Local\Temp\ccfBhFEg.s:22658  .debug_str:0000000000003cea .LASF3316
C:\Users\SOLDER~1\AppData\Local\Temp\ccfBhFEg.s:27284  .debug_str:0000000000016935 .LASF3317
C:\Users\SOLDER~1\AppData\Local\Temp\ccfBhFEg.s:28312  .debug_str:000000000001aaf9 .LASF3318
C:\Users\SOLDER~1\AppData\Local\Temp\ccfBhFEg.s:27860  .debug_str:0000000000018e31 .LASF3319
C:\Users\SOLDER~1\AppData\Local\Temp\ccfBhFEg.s:32976  .debug_str:000000000002d92f .LASF3320
C:\Users\SOLDER~1\AppData\Local\Temp\ccfBhFEg.s:29474  .debug_str:000000000001f5ec .LASF3321
C:\Users\SOLDER~1\AppData\Local\Temp\ccfBhFEg.s:25968  .debug_str:0000000000011368 .LASF3322
C:\Users\SOLDER~1\AppData\Local\Temp\ccfBhFEg.s:22420  .debug_str:0000000000002d79 .LASF3323
C:\Users\SOLDER~1\AppData\Local\Temp\ccfBhFEg.s:30606  .debug_str:0000000000023e86 .LASF3324
C:\Users\SOLDER~1\AppData\Local\Temp\ccfBhFEg.s:22104  .debug_str:000000000000190e .LASF3325
C:\Users\SOLDER~1\AppData\Local\Temp\ccfBhFEg.s:26102  .debug_str:0000000000011bbc .LASF3326
C:\Users\SOLDER~1\AppData\Local\Temp\ccfBhFEg.s:25546  .debug_str:000000000000f7ed .LASF3327
C:\Users\SOLDER~1\AppData\Local\Temp\ccfBhFEg.s:27940  .debug_str:0000000000019394 .LASF3328
C:\Users\SOLDER~1\AppData\Local\Temp\ccfBhFEg.s:30670  .debug_str:000000000002428c .LASF3329
C:\Users\SOLDER~1\AppData\Local\Temp\ccfBhFEg.s:21812  .debug_str:0000000000000576 .LASF3330
C:\Users\SOLDER~1\AppData\Local\Temp\ccfBhFEg.s:23330  .debug_str:00000000000067ea .LASF3331
C:\Users\SOLDER~1\AppData\Local\Temp\ccfBhFEg.s:22328  .debug_str:00000000000027c6 .LASF3332
C:\Users\SOLDER~1\AppData\Local\Temp\ccfBhFEg.s:29578  .debug_str:000000000001fcf9 .LASF3333
C:\Users\SOLDER~1\AppData\Local\Temp\ccfBhFEg.s:31954  .debug_str:0000000000029667 .LASF3334
C:\Users\SOLDER~1\AppData\Local\Temp\ccfBhFEg.s:24750  .debug_str:000000000000c3fd .LASF3335
C:\Users\SOLDER~1\AppData\Local\Temp\ccfBhFEg.s:29854  .debug_str:0000000000020e79 .LASF3336
GAS LISTING C:\Users\SOLDER~1\AppData\Local\Temp\ccfBhFEg.s 			page 132


C:\Users\SOLDER~1\AppData\Local\Temp\ccfBhFEg.s:22950  .debug_str:0000000000004f38 .LASF3337
C:\Users\SOLDER~1\AppData\Local\Temp\ccfBhFEg.s:23896  .debug_str:0000000000008cea .LASF3338
C:\Users\SOLDER~1\AppData\Local\Temp\ccfBhFEg.s:25540  .debug_str:000000000000f76b .LASF3339
C:\Users\SOLDER~1\AppData\Local\Temp\ccfBhFEg.s:23394  .debug_str:0000000000006c08 .LASF3340
C:\Users\SOLDER~1\AppData\Local\Temp\ccfBhFEg.s:33338  .debug_str:000000000002f036 .LASF3341
C:\Users\SOLDER~1\AppData\Local\Temp\ccfBhFEg.s:28868  .debug_str:000000000001ce82 .LASF3342
C:\Users\SOLDER~1\AppData\Local\Temp\ccfBhFEg.s:29726  .debug_str:000000000002064b .LASF3343
C:\Users\SOLDER~1\AppData\Local\Temp\ccfBhFEg.s:27966  .debug_str:0000000000019557 .LASF3344
C:\Users\SOLDER~1\AppData\Local\Temp\ccfBhFEg.s:26120  .debug_str:0000000000011cfa .LASF3345
C:\Users\SOLDER~1\AppData\Local\Temp\ccfBhFEg.s:23566  .debug_str:0000000000007741 .LASF3346
C:\Users\SOLDER~1\AppData\Local\Temp\ccfBhFEg.s:32382  .debug_str:000000000002b254 .LASF3347
C:\Users\SOLDER~1\AppData\Local\Temp\ccfBhFEg.s:24612  .debug_str:000000000000bb08 .LASF3348
C:\Users\SOLDER~1\AppData\Local\Temp\ccfBhFEg.s:27014  .debug_str:000000000001585a .LASF3349
C:\Users\SOLDER~1\AppData\Local\Temp\ccfBhFEg.s:30206  .debug_str:00000000000224f6 .LASF3350
C:\Users\SOLDER~1\AppData\Local\Temp\ccfBhFEg.s:31290  .debug_str:0000000000026b5a .LASF3351
C:\Users\SOLDER~1\AppData\Local\Temp\ccfBhFEg.s:26758  .debug_str:0000000000014764 .LASF3352
C:\Users\SOLDER~1\AppData\Local\Temp\ccfBhFEg.s:27044  .debug_str:0000000000015a60 .LASF3353
C:\Users\SOLDER~1\AppData\Local\Temp\ccfBhFEg.s:26768  .debug_str:00000000000147f6 .LASF3354
C:\Users\SOLDER~1\AppData\Local\Temp\ccfBhFEg.s:23216  .debug_str:0000000000006008 .LASF3355
C:\Users\SOLDER~1\AppData\Local\Temp\ccfBhFEg.s:31422  .debug_str:00000000000273e9 .LASF3356
C:\Users\SOLDER~1\AppData\Local\Temp\ccfBhFEg.s:30532  .debug_str:0000000000023997 .LASF3357
C:\Users\SOLDER~1\AppData\Local\Temp\ccfBhFEg.s:27806  .debug_str:0000000000018adb .LASF3358
C:\Users\SOLDER~1\AppData\Local\Temp\ccfBhFEg.s:32624  .debug_str:000000000002c1f1 .LASF3359
C:\Users\SOLDER~1\AppData\Local\Temp\ccfBhFEg.s:24790  .debug_str:000000000000c6da .LASF3360
C:\Users\SOLDER~1\AppData\Local\Temp\ccfBhFEg.s:29636  .debug_str:00000000000200a9 .LASF3361
C:\Users\SOLDER~1\AppData\Local\Temp\ccfBhFEg.s:32450  .debug_str:000000000002b6af .LASF3362
C:\Users\SOLDER~1\AppData\Local\Temp\ccfBhFEg.s:31958  .debug_str:00000000000296b4 .LASF3363
C:\Users\SOLDER~1\AppData\Local\Temp\ccfBhFEg.s:29814  .debug_str:0000000000020bd3 .LASF3364
C:\Users\SOLDER~1\AppData\Local\Temp\ccfBhFEg.s:29168  .debug_str:000000000001e1c6 .LASF3365
C:\Users\SOLDER~1\AppData\Local\Temp\ccfBhFEg.s:30292  .debug_str:00000000000229f2 .LASF3366
C:\Users\SOLDER~1\AppData\Local\Temp\ccfBhFEg.s:31444  .debug_str:0000000000027580 .LASF3367
C:\Users\SOLDER~1\AppData\Local\Temp\ccfBhFEg.s:32526  .debug_str:000000000002bb81 .LASF3368
C:\Users\SOLDER~1\AppData\Local\Temp\ccfBhFEg.s:25622  .debug_str:000000000000fd03 .LASF3369
C:\Users\SOLDER~1\AppData\Local\Temp\ccfBhFEg.s:30398  .debug_str:0000000000023117 .LASF3370
C:\Users\SOLDER~1\AppData\Local\Temp\ccfBhFEg.s:31362  .debug_str:000000000002701d .LASF3371
C:\Users\SOLDER~1\AppData\Local\Temp\ccfBhFEg.s:23198  .debug_str:0000000000005ecf .LASF3372
C:\Users\SOLDER~1\AppData\Local\Temp\ccfBhFEg.s:33160  .debug_str:000000000002e502 .LASF3373
C:\Users\SOLDER~1\AppData\Local\Temp\ccfBhFEg.s:30302  .debug_str:0000000000022a98 .LASF3374
C:\Users\SOLDER~1\AppData\Local\Temp\ccfBhFEg.s:31800  .debug_str:0000000000028c97 .LASF3375
C:\Users\SOLDER~1\AppData\Local\Temp\ccfBhFEg.s:24506  .debug_str:000000000000b477 .LASF3376
C:\Users\SOLDER~1\AppData\Local\Temp\ccfBhFEg.s:26316  .debug_str:0000000000012969 .LASF3377
C:\Users\SOLDER~1\AppData\Local\Temp\ccfBhFEg.s:23560  .debug_str:00000000000076d5 .LASF3378
C:\Users\SOLDER~1\AppData\Local\Temp\ccfBhFEg.s:28226  .debug_str:000000000001a582 .LASF3379
C:\Users\SOLDER~1\AppData\Local\Temp\ccfBhFEg.s:26378  .debug_str:0000000000012d37 .LASF3380
C:\Users\SOLDER~1\AppData\Local\Temp\ccfBhFEg.s:29550  .debug_str:000000000001fb1f .LASF3381
C:\Users\SOLDER~1\AppData\Local\Temp\ccfBhFEg.s:27624  .debug_str:0000000000017f0e .LASF3382
C:\Users\SOLDER~1\AppData\Local\Temp\ccfBhFEg.s:33208  .debug_str:000000000002e7d0 .LASF3383
C:\Users\SOLDER~1\AppData\Local\Temp\ccfBhFEg.s:28584  .debug_str:000000000001bc43 .LASF3384
C:\Users\SOLDER~1\AppData\Local\Temp\ccfBhFEg.s:28182  .debug_str:000000000001a2f7 .LASF3385
C:\Users\SOLDER~1\AppData\Local\Temp\ccfBhFEg.s:32108  .debug_str:000000000002a057 .LASF3386
C:\Users\SOLDER~1\AppData\Local\Temp\ccfBhFEg.s:26828  .debug_str:0000000000014bd6 .LASF3387
C:\Users\SOLDER~1\AppData\Local\Temp\ccfBhFEg.s:32886  .debug_str:000000000002d2fc .LASF3388
C:\Users\SOLDER~1\AppData\Local\Temp\ccfBhFEg.s:26916  .debug_str:00000000000151fd .LASF3389
C:\Users\SOLDER~1\AppData\Local\Temp\ccfBhFEg.s:29310  .debug_str:000000000001eb1b .LASF3390
C:\Users\SOLDER~1\AppData\Local\Temp\ccfBhFEg.s:33440  .debug_str:000000000002f66b .LASF3391
C:\Users\SOLDER~1\AppData\Local\Temp\ccfBhFEg.s:25432  .debug_str:000000000000f0bb .LASF3392
C:\Users\SOLDER~1\AppData\Local\Temp\ccfBhFEg.s:23932  .debug_str:0000000000008f5b .LASF3393
GAS LISTING C:\Users\SOLDER~1\AppData\Local\Temp\ccfBhFEg.s 			page 133


C:\Users\SOLDER~1\AppData\Local\Temp\ccfBhFEg.s:22054  .debug_str:000000000000160b .LASF3394
C:\Users\SOLDER~1\AppData\Local\Temp\ccfBhFEg.s:31068  .debug_str:0000000000025c66 .LASF3395
C:\Users\SOLDER~1\AppData\Local\Temp\ccfBhFEg.s:31186  .debug_str:0000000000026462 .LASF3396
C:\Users\SOLDER~1\AppData\Local\Temp\ccfBhFEg.s:28234  .debug_str:000000000001a60d .LASF3397
C:\Users\SOLDER~1\AppData\Local\Temp\ccfBhFEg.s:25262  .debug_str:000000000000e613 .LASF3398
C:\Users\SOLDER~1\AppData\Local\Temp\ccfBhFEg.s:24250  .debug_str:000000000000a3df .LASF3399
C:\Users\SOLDER~1\AppData\Local\Temp\ccfBhFEg.s:27468  .debug_str:0000000000017464 .LASF3400
C:\Users\SOLDER~1\AppData\Local\Temp\ccfBhFEg.s:27686  .debug_str:000000000001830a .LASF3401
C:\Users\SOLDER~1\AppData\Local\Temp\ccfBhFEg.s:32206  .debug_str:000000000002a6f0 .LASF3402
C:\Users\SOLDER~1\AppData\Local\Temp\ccfBhFEg.s:27462  .debug_str:0000000000017404 .LASF3403
C:\Users\SOLDER~1\AppData\Local\Temp\ccfBhFEg.s:31406  .debug_str:00000000000272fe .LASF3404
C:\Users\SOLDER~1\AppData\Local\Temp\ccfBhFEg.s:24512  .debug_str:000000000000b4d6 .LASF3405
C:\Users\SOLDER~1\AppData\Local\Temp\ccfBhFEg.s:29330  .debug_str:000000000001ec8a .LASF3406
C:\Users\SOLDER~1\AppData\Local\Temp\ccfBhFEg.s:22410  .debug_str:0000000000002ccb .LASF3407
C:\Users\SOLDER~1\AppData\Local\Temp\ccfBhFEg.s:24122  .debug_str:0000000000009b9e .LASF3408
C:\Users\SOLDER~1\AppData\Local\Temp\ccfBhFEg.s:32056  .debug_str:0000000000029d26 .LASF3409
C:\Users\SOLDER~1\AppData\Local\Temp\ccfBhFEg.s:32806  .debug_str:000000000002ce06 .LASF3410
C:\Users\SOLDER~1\AppData\Local\Temp\ccfBhFEg.s:22584  .debug_str:000000000000381e .LASF3411
C:\Users\SOLDER~1\AppData\Local\Temp\ccfBhFEg.s:31514  .debug_str:0000000000027a13 .LASF3412
C:\Users\SOLDER~1\AppData\Local\Temp\ccfBhFEg.s:30668  .debug_str:0000000000024262 .LASF3413
C:\Users\SOLDER~1\AppData\Local\Temp\ccfBhFEg.s:28898  .debug_str:000000000001d08c .LASF3414
C:\Users\SOLDER~1\AppData\Local\Temp\ccfBhFEg.s:27112  .debug_str:0000000000015e5a .LASF3415
C:\Users\SOLDER~1\AppData\Local\Temp\ccfBhFEg.s:22790  .debug_str:0000000000004537 .LASF3416
C:\Users\SOLDER~1\AppData\Local\Temp\ccfBhFEg.s:23464  .debug_str:00000000000070df .LASF3417
C:\Users\SOLDER~1\AppData\Local\Temp\ccfBhFEg.s:26926  .debug_str:000000000001528d .LASF3418
C:\Users\SOLDER~1\AppData\Local\Temp\ccfBhFEg.s:25946  .debug_str:00000000000111fb .LASF3419
C:\Users\SOLDER~1\AppData\Local\Temp\ccfBhFEg.s:25440  .debug_str:000000000000f145 .LASF3420
C:\Users\SOLDER~1\AppData\Local\Temp\ccfBhFEg.s:30820  .debug_str:0000000000024c86 .LASF3421
C:\Users\SOLDER~1\AppData\Local\Temp\ccfBhFEg.s:31040  .debug_str:0000000000025ab1 .LASF3422
C:\Users\SOLDER~1\AppData\Local\Temp\ccfBhFEg.s:26118  .debug_str:0000000000011cd3 .LASF3423
C:\Users\SOLDER~1\AppData\Local\Temp\ccfBhFEg.s:31914  .debug_str:0000000000029401 .LASF3424
C:\Users\SOLDER~1\AppData\Local\Temp\ccfBhFEg.s:29238  .debug_str:000000000001e675 .LASF3425
C:\Users\SOLDER~1\AppData\Local\Temp\ccfBhFEg.s:29804  .debug_str:0000000000020b3b .LASF3426
C:\Users\SOLDER~1\AppData\Local\Temp\ccfBhFEg.s:26306  .debug_str:00000000000128aa .LASF3427
C:\Users\SOLDER~1\AppData\Local\Temp\ccfBhFEg.s:28212  .debug_str:000000000001a4a7 .LASF3428
C:\Users\SOLDER~1\AppData\Local\Temp\ccfBhFEg.s:22650  .debug_str:0000000000003c62 .LASF3429
C:\Users\SOLDER~1\AppData\Local\Temp\ccfBhFEg.s:27526  .debug_str:000000000001785b .LASF3430
C:\Users\SOLDER~1\AppData\Local\Temp\ccfBhFEg.s:23956  .debug_str:00000000000090ee .LASF3431
C:\Users\SOLDER~1\AppData\Local\Temp\ccfBhFEg.s:29904  .debug_str:00000000000211b6 .LASF3432
C:\Users\SOLDER~1\AppData\Local\Temp\ccfBhFEg.s:32704  .debug_str:000000000002c779 .LASF3433
C:\Users\SOLDER~1\AppData\Local\Temp\ccfBhFEg.s:25952  .debug_str:0000000000011268 .LASF3434
C:\Users\SOLDER~1\AppData\Local\Temp\ccfBhFEg.s:26636  .debug_str:0000000000013f04 .LASF3435
C:\Users\SOLDER~1\AppData\Local\Temp\ccfBhFEg.s:29426  .debug_str:000000000001f2ce .LASF3436
C:\Users\SOLDER~1\AppData\Local\Temp\ccfBhFEg.s:32224  .debug_str:000000000002a84a .LASF3437
C:\Users\SOLDER~1\AppData\Local\Temp\ccfBhFEg.s:23304  .debug_str:0000000000006603 .LASF3438
C:\Users\SOLDER~1\AppData\Local\Temp\ccfBhFEg.s:26142  .debug_str:0000000000011e5f .LASF3439
C:\Users\SOLDER~1\AppData\Local\Temp\ccfBhFEg.s:23870  .debug_str:0000000000008b0d .LASF3440
C:\Users\SOLDER~1\AppData\Local\Temp\ccfBhFEg.s:28694  .debug_str:000000000001c321 .LASF3441
C:\Users\SOLDER~1\AppData\Local\Temp\ccfBhFEg.s:21794  .debug_str:000000000000043d .LASF3442
C:\Users\SOLDER~1\AppData\Local\Temp\ccfBhFEg.s:24794  .debug_str:000000000000c71d .LASF3443
C:\Users\SOLDER~1\AppData\Local\Temp\ccfBhFEg.s:31382  .debug_str:000000000002717d .LASF3444
C:\Users\SOLDER~1\AppData\Local\Temp\ccfBhFEg.s:23264  .debug_str:000000000000635f .LASF3445
C:\Users\SOLDER~1\AppData\Local\Temp\ccfBhFEg.s:29308  .debug_str:000000000001eaf1 .LASF3446
C:\Users\SOLDER~1\AppData\Local\Temp\ccfBhFEg.s:26772  .debug_str:0000000000014846 .LASF3447
C:\Users\SOLDER~1\AppData\Local\Temp\ccfBhFEg.s:24952  .debug_str:000000000000d1b5 .LASF3448
C:\Users\SOLDER~1\AppData\Local\Temp\ccfBhFEg.s:31426  .debug_str:000000000002742a .LASF3449
C:\Users\SOLDER~1\AppData\Local\Temp\ccfBhFEg.s:33058  .debug_str:000000000002de81 .LASF3450
GAS LISTING C:\Users\SOLDER~1\AppData\Local\Temp\ccfBhFEg.s 			page 134


C:\Users\SOLDER~1\AppData\Local\Temp\ccfBhFEg.s:27104  .debug_str:0000000000015ddd .LASF3451
C:\Users\SOLDER~1\AppData\Local\Temp\ccfBhFEg.s:29454  .debug_str:000000000001f49f .LASF3452
C:\Users\SOLDER~1\AppData\Local\Temp\ccfBhFEg.s:27694  .debug_str:0000000000018397 .LASF3453
C:\Users\SOLDER~1\AppData\Local\Temp\ccfBhFEg.s:30112  .debug_str:0000000000021f1a .LASF3454
C:\Users\SOLDER~1\AppData\Local\Temp\ccfBhFEg.s:27970  .debug_str:00000000000195a1 .LASF3455
C:\Users\SOLDER~1\AppData\Local\Temp\ccfBhFEg.s:22374  .debug_str:0000000000002ab8 .LASF3456
C:\Users\SOLDER~1\AppData\Local\Temp\ccfBhFEg.s:32498  .debug_str:000000000002b9d4 .LASF3457
C:\Users\SOLDER~1\AppData\Local\Temp\ccfBhFEg.s:31696  .debug_str:00000000000285db .LASF3458
C:\Users\SOLDER~1\AppData\Local\Temp\ccfBhFEg.s:33296  .debug_str:000000000002ed38 .LASF3459
C:\Users\SOLDER~1\AppData\Local\Temp\ccfBhFEg.s:26128  .debug_str:0000000000011d9e .LASF3460
C:\Users\SOLDER~1\AppData\Local\Temp\ccfBhFEg.s:30910  .debug_str:0000000000025285 .LASF3461
C:\Users\SOLDER~1\AppData\Local\Temp\ccfBhFEg.s:26222  .debug_str:0000000000012374 .LASF3462
C:\Users\SOLDER~1\AppData\Local\Temp\ccfBhFEg.s:31732  .debug_str:0000000000028859 .LASF3463
C:\Users\SOLDER~1\AppData\Local\Temp\ccfBhFEg.s:30212  .debug_str:0000000000022554 .LASF3464
C:\Users\SOLDER~1\AppData\Local\Temp\ccfBhFEg.s:23080  .debug_str:000000000000571d .LASF3465
C:\Users\SOLDER~1\AppData\Local\Temp\ccfBhFEg.s:25580  .debug_str:000000000000fa13 .LASF3466
C:\Users\SOLDER~1\AppData\Local\Temp\ccfBhFEg.s:27484  .debug_str:0000000000017580 .LASF3467
C:\Users\SOLDER~1\AppData\Local\Temp\ccfBhFEg.s:27662  .debug_str:000000000001816d .LASF3468
C:\Users\SOLDER~1\AppData\Local\Temp\ccfBhFEg.s:25036  .debug_str:000000000000d73b .LASF3469
C:\Users\SOLDER~1\AppData\Local\Temp\ccfBhFEg.s:27794  .debug_str:0000000000018a17 .LASF3470
C:\Users\SOLDER~1\AppData\Local\Temp\ccfBhFEg.s:32580  .debug_str:000000000002bf19 .LASF3471
C:\Users\SOLDER~1\AppData\Local\Temp\ccfBhFEg.s:29380  .debug_str:000000000001efe6 .LASF3472
C:\Users\SOLDER~1\AppData\Local\Temp\ccfBhFEg.s:22634  .debug_str:0000000000003b61 .LASF3473
C:\Users\SOLDER~1\AppData\Local\Temp\ccfBhFEg.s:23308  .debug_str:000000000000664f .LASF3474
C:\Users\SOLDER~1\AppData\Local\Temp\ccfBhFEg.s:26614  .debug_str:0000000000013d3e .LASF3475
C:\Users\SOLDER~1\AppData\Local\Temp\ccfBhFEg.s:24922  .debug_str:000000000000cfc8 .LASF3476
C:\Users\SOLDER~1\AppData\Local\Temp\ccfBhFEg.s:26722  .debug_str:00000000000144b4 .LASF3477
C:\Users\SOLDER~1\AppData\Local\Temp\ccfBhFEg.s:23584  .debug_str:000000000000785f .LASF3478
C:\Users\SOLDER~1\AppData\Local\Temp\ccfBhFEg.s:23928  .debug_str:0000000000008f16 .LASF3479
C:\Users\SOLDER~1\AppData\Local\Temp\ccfBhFEg.s:23526  .debug_str:00000000000074d9 .LASF3480
C:\Users\SOLDER~1\AppData\Local\Temp\ccfBhFEg.s:27914  .debug_str:00000000000191db .LASF3481
C:\Users\SOLDER~1\AppData\Local\Temp\ccfBhFEg.s:32494  .debug_str:000000000002b997 .LASF3482
C:\Users\SOLDER~1\AppData\Local\Temp\ccfBhFEg.s:22478  .debug_str:000000000000314e .LASF3483
C:\Users\SOLDER~1\AppData\Local\Temp\ccfBhFEg.s:30232  .debug_str:0000000000022688 .LASF3484
C:\Users\SOLDER~1\AppData\Local\Temp\ccfBhFEg.s:26600  .debug_str:0000000000013c32 .LASF3485
C:\Users\SOLDER~1\AppData\Local\Temp\ccfBhFEg.s:23710  .debug_str:00000000000080ae .LASF3486
C:\Users\SOLDER~1\AppData\Local\Temp\ccfBhFEg.s:22456  .debug_str:0000000000002ffb .LASF3487
C:\Users\SOLDER~1\AppData\Local\Temp\ccfBhFEg.s:31790  .debug_str:0000000000028bfb .LASF3488
C:\Users\SOLDER~1\AppData\Local\Temp\ccfBhFEg.s:27892  .debug_str:0000000000019066 .LASF3489
C:\Users\SOLDER~1\AppData\Local\Temp\ccfBhFEg.s:29272  .debug_str:000000000001e89b .LASF3490
C:\Users\SOLDER~1\AppData\Local\Temp\ccfBhFEg.s:26516  .debug_str:000000000001368e .LASF3491
C:\Users\SOLDER~1\AppData\Local\Temp\ccfBhFEg.s:28800  .debug_str:000000000001ca29 .LASF3492
C:\Users\SOLDER~1\AppData\Local\Temp\ccfBhFEg.s:25284  .debug_str:000000000000e787 .LASF3493
C:\Users\SOLDER~1\AppData\Local\Temp\ccfBhFEg.s:31868  .debug_str:0000000000029115 .LASF3494
C:\Users\SOLDER~1\AppData\Local\Temp\ccfBhFEg.s:29870  .debug_str:0000000000020f86 .LASF3495
C:\Users\SOLDER~1\AppData\Local\Temp\ccfBhFEg.s:32402  .debug_str:000000000002b391 .LASF3496
C:\Users\SOLDER~1\AppData\Local\Temp\ccfBhFEg.s:31466  .debug_str:00000000000276d4 .LASF3497
C:\Users\SOLDER~1\AppData\Local\Temp\ccfBhFEg.s:23438  .debug_str:0000000000006efd .LASF3498
C:\Users\SOLDER~1\AppData\Local\Temp\ccfBhFEg.s:27882  .debug_str:0000000000018fb4 .LASF3499
C:\Users\SOLDER~1\AppData\Local\Temp\ccfBhFEg.s:27240  .debug_str:0000000000016668 .LASF3500
C:\Users\SOLDER~1\AppData\Local\Temp\ccfBhFEg.s:23046  .debug_str:00000000000054fc .LASF3501
C:\Users\SOLDER~1\AppData\Local\Temp\ccfBhFEg.s:22394  .debug_str:0000000000002bca .LASF3502
C:\Users\SOLDER~1\AppData\Local\Temp\ccfBhFEg.s:24400  .debug_str:000000000000adbb .LASF3503
C:\Users\SOLDER~1\AppData\Local\Temp\ccfBhFEg.s:30644  .debug_str:00000000000240e0 .LASF3504
C:\Users\SOLDER~1\AppData\Local\Temp\ccfBhFEg.s:33348  .debug_str:000000000002f0dd .LASF3505
C:\Users\SOLDER~1\AppData\Local\Temp\ccfBhFEg.s:30940  .debug_str:0000000000025499 .LASF3506
C:\Users\SOLDER~1\AppData\Local\Temp\ccfBhFEg.s:32034  .debug_str:0000000000029bd0 .LASF3507
GAS LISTING C:\Users\SOLDER~1\AppData\Local\Temp\ccfBhFEg.s 			page 135


C:\Users\SOLDER~1\AppData\Local\Temp\ccfBhFEg.s:31768  .debug_str:0000000000028a99 .LASF3508
C:\Users\SOLDER~1\AppData\Local\Temp\ccfBhFEg.s:23774  .debug_str:00000000000084e4 .LASF3509
C:\Users\SOLDER~1\AppData\Local\Temp\ccfBhFEg.s:28870  .debug_str:000000000001ceab .LASF3510
C:\Users\SOLDER~1\AppData\Local\Temp\ccfBhFEg.s:29204  .debug_str:000000000001e45e .LASF3511
C:\Users\SOLDER~1\AppData\Local\Temp\ccfBhFEg.s:32738  .debug_str:000000000002c9c2 .LASF3512
C:\Users\SOLDER~1\AppData\Local\Temp\ccfBhFEg.s:25412  .debug_str:000000000000ef66 .LASF3513
C:\Users\SOLDER~1\AppData\Local\Temp\ccfBhFEg.s:33150  .debug_str:000000000002e46f .LASF3514
C:\Users\SOLDER~1\AppData\Local\Temp\ccfBhFEg.s:29366  .debug_str:000000000001eef7 .LASF3515
C:\Users\SOLDER~1\AppData\Local\Temp\ccfBhFEg.s:31280  .debug_str:0000000000026ad0 .LASF3516
C:\Users\SOLDER~1\AppData\Local\Temp\ccfBhFEg.s:23186  .debug_str:0000000000005e18 .LASF3517
C:\Users\SOLDER~1\AppData\Local\Temp\ccfBhFEg.s:31936  .debug_str:000000000002954f .LASF3518
C:\Users\SOLDER~1\AppData\Local\Temp\ccfBhFEg.s:28224  .debug_str:000000000001a55f .LASF3519
C:\Users\SOLDER~1\AppData\Local\Temp\ccfBhFEg.s:27490  .debug_str:00000000000175f2 .LASF3520
C:\Users\SOLDER~1\AppData\Local\Temp\ccfBhFEg.s:32302  .debug_str:000000000002ad4d .LASF3521
C:\Users\SOLDER~1\AppData\Local\Temp\ccfBhFEg.s:25530  .debug_str:000000000000f6cf .LASF3522
C:\Users\SOLDER~1\AppData\Local\Temp\ccfBhFEg.s:28534  .debug_str:000000000001b903 .LASF3523
C:\Users\SOLDER~1\AppData\Local\Temp\ccfBhFEg.s:23594  .debug_str:00000000000078df .LASF3524
C:\Users\SOLDER~1\AppData\Local\Temp\ccfBhFEg.s:27182  .debug_str:00000000000162aa .LASF3525
C:\Users\SOLDER~1\AppData\Local\Temp\ccfBhFEg.s:22392  .debug_str:0000000000002bb1 .LASF3526
C:\Users\SOLDER~1\AppData\Local\Temp\ccfBhFEg.s:27504  .debug_str:000000000001770d .LASF3527
C:\Users\SOLDER~1\AppData\Local\Temp\ccfBhFEg.s:31990  .debug_str:00000000000298e1 .LASF3528
C:\Users\SOLDER~1\AppData\Local\Temp\ccfBhFEg.s:22094  .debug_str:0000000000001893 .LASF3529
C:\Users\SOLDER~1\AppData\Local\Temp\ccfBhFEg.s:32772  .debug_str:000000000002cbd3 .LASF3530
C:\Users\SOLDER~1\AppData\Local\Temp\ccfBhFEg.s:27530  .debug_str:00000000000178b0 .LASF3531
C:\Users\SOLDER~1\AppData\Local\Temp\ccfBhFEg.s:29212  .debug_str:000000000001e4e1 .LASF3532
C:\Users\SOLDER~1\AppData\Local\Temp\ccfBhFEg.s:25198  .debug_str:000000000000e172 .LASF3533
C:\Users\SOLDER~1\AppData\Local\Temp\ccfBhFEg.s:32522  .debug_str:000000000002bb46 .LASF3534
C:\Users\SOLDER~1\AppData\Local\Temp\ccfBhFEg.s:25624  .debug_str:000000000000fd2c .LASF3535
C:\Users\SOLDER~1\AppData\Local\Temp\ccfBhFEg.s:30008  .debug_str:00000000000218b7 .LASF3536
C:\Users\SOLDER~1\AppData\Local\Temp\ccfBhFEg.s:22794  .debug_str:0000000000004578 .LASF3537
C:\Users\SOLDER~1\AppData\Local\Temp\ccfBhFEg.s:25896  .debug_str:0000000000010ef2 .LASF3538
C:\Users\SOLDER~1\AppData\Local\Temp\ccfBhFEg.s:22386  .debug_str:0000000000002b67 .LASF3539
C:\Users\SOLDER~1\AppData\Local\Temp\ccfBhFEg.s:27146  .debug_str:000000000001605c .LASF3540
C:\Users\SOLDER~1\AppData\Local\Temp\ccfBhFEg.s:28788  .debug_str:000000000001c95b .LASF3541
C:\Users\SOLDER~1\AppData\Local\Temp\ccfBhFEg.s:21772  .debug_str:00000000000002e0 .LASF3542
C:\Users\SOLDER~1\AppData\Local\Temp\ccfBhFEg.s:25488  .debug_str:000000000000f42b .LASF3543
C:\Users\SOLDER~1\AppData\Local\Temp\ccfBhFEg.s:30150  .debug_str:0000000000022172 .LASF3544
C:\Users\SOLDER~1\AppData\Local\Temp\ccfBhFEg.s:33092  .debug_str:000000000002e0ab .LASF3545
C:\Users\SOLDER~1\AppData\Local\Temp\ccfBhFEg.s:30076  .debug_str:0000000000021cf9 .LASF3546
C:\Users\SOLDER~1\AppData\Local\Temp\ccfBhFEg.s:23292  .debug_str:000000000000653d .LASF3547
C:\Users\SOLDER~1\AppData\Local\Temp\ccfBhFEg.s:23160  .debug_str:0000000000005c7b .LASF3548
C:\Users\SOLDER~1\AppData\Local\Temp\ccfBhFEg.s:23724  .debug_str:00000000000081ab .LASF3549
C:\Users\SOLDER~1\AppData\Local\Temp\ccfBhFEg.s:21942  .debug_str:0000000000000eec .LASF3550
C:\Users\SOLDER~1\AppData\Local\Temp\ccfBhFEg.s:25712  .debug_str:0000000000010330 .LASF3551
C:\Users\SOLDER~1\AppData\Local\Temp\ccfBhFEg.s:23390  .debug_str:0000000000006bdc .LASF3552
C:\Users\SOLDER~1\AppData\Local\Temp\ccfBhFEg.s:22974  .debug_str:00000000000050aa .LASF3553
C:\Users\SOLDER~1\AppData\Local\Temp\ccfBhFEg.s:22150  .debug_str:0000000000001c51 .LASF3554
C:\Users\SOLDER~1\AppData\Local\Temp\ccfBhFEg.s:31012  .debug_str:00000000000258f8 .LASF3555
C:\Users\SOLDER~1\AppData\Local\Temp\ccfBhFEg.s:21928  .debug_str:0000000000000e36 .LASF3556
C:\Users\SOLDER~1\AppData\Local\Temp\ccfBhFEg.s:28354  .debug_str:000000000001adcc .LASF3557
C:\Users\SOLDER~1\AppData\Local\Temp\ccfBhFEg.s:25506  .debug_str:000000000000f553 .LASF3558
C:\Users\SOLDER~1\AppData\Local\Temp\ccfBhFEg.s:22256  .debug_str:000000000000232c .LASF3559
C:\Users\SOLDER~1\AppData\Local\Temp\ccfBhFEg.s:23028  .debug_str:0000000000005405 .LASF3560
C:\Users\SOLDER~1\AppData\Local\Temp\ccfBhFEg.s:25390  .debug_str:000000000000ee35 .LASF3561
C:\Users\SOLDER~1\AppData\Local\Temp\ccfBhFEg.s:26268  .debug_str:0000000000012647 .LASF3562
C:\Users\SOLDER~1\AppData\Local\Temp\ccfBhFEg.s:32868  .debug_str:000000000002d1d1 .LASF3563
C:\Users\SOLDER~1\AppData\Local\Temp\ccfBhFEg.s:27196  .debug_str:0000000000016385 .LASF3564
GAS LISTING C:\Users\SOLDER~1\AppData\Local\Temp\ccfBhFEg.s 			page 136


C:\Users\SOLDER~1\AppData\Local\Temp\ccfBhFEg.s:28654  .debug_str:000000000001c083 .LASF3565
C:\Users\SOLDER~1\AppData\Local\Temp\ccfBhFEg.s:29402  .debug_str:000000000001f146 .LASF3566
C:\Users\SOLDER~1\AppData\Local\Temp\ccfBhFEg.s:22354  .debug_str:00000000000029ab .LASF3567
C:\Users\SOLDER~1\AppData\Local\Temp\ccfBhFEg.s:27412  .debug_str:00000000000170ce .LASF3568
C:\Users\SOLDER~1\AppData\Local\Temp\ccfBhFEg.s:26216  .debug_str:0000000000012315 .LASF3569
C:\Users\SOLDER~1\AppData\Local\Temp\ccfBhFEg.s:32542  .debug_str:000000000002bcaf .LASF3570
C:\Users\SOLDER~1\AppData\Local\Temp\ccfBhFEg.s:29806  .debug_str:0000000000020b65 .LASF3571
C:\Users\SOLDER~1\AppData\Local\Temp\ccfBhFEg.s:22310  .debug_str:0000000000002680 .LASF3572
C:\Users\SOLDER~1\AppData\Local\Temp\ccfBhFEg.s:27956  .debug_str:00000000000194a8 .LASF3573
C:\Users\SOLDER~1\AppData\Local\Temp\ccfBhFEg.s:25808  .debug_str:000000000001094d .LASF3574
C:\Users\SOLDER~1\AppData\Local\Temp\ccfBhFEg.s:25082  .debug_str:000000000000da2a .LASF3575
C:\Users\SOLDER~1\AppData\Local\Temp\ccfBhFEg.s:31306  .debug_str:0000000000026c63 .LASF3576
C:\Users\SOLDER~1\AppData\Local\Temp\ccfBhFEg.s:32794  .debug_str:000000000002cd39 .LASF3577
C:\Users\SOLDER~1\AppData\Local\Temp\ccfBhFEg.s:25476  .debug_str:000000000000f373 .LASF3578
C:\Users\SOLDER~1\AppData\Local\Temp\ccfBhFEg.s:30604  .debug_str:0000000000023e63 .LASF3579
C:\Users\SOLDER~1\AppData\Local\Temp\ccfBhFEg.s:30458  .debug_str:00000000000234df .LASF3580
C:\Users\SOLDER~1\AppData\Local\Temp\ccfBhFEg.s:22828  .debug_str:00000000000047b0 .LASF3581
C:\Users\SOLDER~1\AppData\Local\Temp\ccfBhFEg.s:27276  .debug_str:0000000000016899 .LASF3582
C:\Users\SOLDER~1\AppData\Local\Temp\ccfBhFEg.s:27632  .debug_str:0000000000017f87 .LASF3583
C:\Users\SOLDER~1\AppData\Local\Temp\ccfBhFEg.s:29472  .debug_str:000000000001f5d2 .LASF3584
C:\Users\SOLDER~1\AppData\Local\Temp\ccfBhFEg.s:23688  .debug_str:0000000000007f1f .LASF3585
C:\Users\SOLDER~1\AppData\Local\Temp\ccfBhFEg.s:21800  .debug_str:00000000000004b1 .LASF3586
C:\Users\SOLDER~1\AppData\Local\Temp\ccfBhFEg.s:30260  .debug_str:0000000000022806 .LASF3587
C:\Users\SOLDER~1\AppData\Local\Temp\ccfBhFEg.s:25636  .debug_str:000000000000fe02 .LASF3588
C:\Users\SOLDER~1\AppData\Local\Temp\ccfBhFEg.s:31104  .debug_str:0000000000025ee9 .LASF3589
C:\Users\SOLDER~1\AppData\Local\Temp\ccfBhFEg.s:30664  .debug_str:0000000000024222 .LASF3590
C:\Users\SOLDER~1\AppData\Local\Temp\ccfBhFEg.s:33250  .debug_str:000000000002ea60 .LASF3591
C:\Users\SOLDER~1\AppData\Local\Temp\ccfBhFEg.s:24348  .debug_str:000000000000aa64 .LASF3592
C:\Users\SOLDER~1\AppData\Local\Temp\ccfBhFEg.s:25402  .debug_str:000000000000eeca .LASF3593
C:\Users\SOLDER~1\AppData\Local\Temp\ccfBhFEg.s:26094  .debug_str:0000000000011b32 .LASF3594
C:\Users\SOLDER~1\AppData\Local\Temp\ccfBhFEg.s:22546  .debug_str:00000000000035c6 .LASF3595
C:\Users\SOLDER~1\AppData\Local\Temp\ccfBhFEg.s:31082  .debug_str:0000000000025d5a .LASF3596
C:\Users\SOLDER~1\AppData\Local\Temp\ccfBhFEg.s:28636  .debug_str:000000000001bf3e .LASF3597
C:\Users\SOLDER~1\AppData\Local\Temp\ccfBhFEg.s:32518  .debug_str:000000000002bb04 .LASF3598
C:\Users\SOLDER~1\AppData\Local\Temp\ccfBhFEg.s:24932  .debug_str:000000000000d06d .LASF3599
C:\Users\SOLDER~1\AppData\Local\Temp\ccfBhFEg.s:21832  .debug_str:0000000000000751 .LASF3600
C:\Users\SOLDER~1\AppData\Local\Temp\ccfBhFEg.s:32210  .debug_str:000000000002a753 .LASF3601
C:\Users\SOLDER~1\AppData\Local\Temp\ccfBhFEg.s:28590  .debug_str:000000000001bc9b .LASF3602
C:\Users\SOLDER~1\AppData\Local\Temp\ccfBhFEg.s:26096  .debug_str:0000000000011b53 .LASF3603
C:\Users\SOLDER~1\AppData\Local\Temp\ccfBhFEg.s:29562  .debug_str:000000000001fc1a .LASF3604
C:\Users\SOLDER~1\AppData\Local\Temp\ccfBhFEg.s:28564  .debug_str:000000000001baf4 .LASF3605
C:\Users\SOLDER~1\AppData\Local\Temp\ccfBhFEg.s:28458  .debug_str:000000000001b481 .LASF3606
C:\Users\SOLDER~1\AppData\Local\Temp\ccfBhFEg.s:24842  .debug_str:000000000000ca70 .LASF3607
C:\Users\SOLDER~1\AppData\Local\Temp\ccfBhFEg.s:28606  .debug_str:000000000001bd86 .LASF3608
C:\Users\SOLDER~1\AppData\Local\Temp\ccfBhFEg.s:32790  .debug_str:000000000002ccf3 .LASF3609
C:\Users\SOLDER~1\AppData\Local\Temp\ccfBhFEg.s:25666  .debug_str:0000000000010035 .LASF3610
C:\Users\SOLDER~1\AppData\Local\Temp\ccfBhFEg.s:32104  .debug_str:000000000002a004 .LASF3611
C:\Users\SOLDER~1\AppData\Local\Temp\ccfBhFEg.s:22090  .debug_str:0000000000001868 .LASF3612
C:\Users\SOLDER~1\AppData\Local\Temp\ccfBhFEg.s:23886  .debug_str:0000000000008c3a .LASF3613
C:\Users\SOLDER~1\AppData\Local\Temp\ccfBhFEg.s:30694  .debug_str:000000000002442e .LASF3614
C:\Users\SOLDER~1\AppData\Local\Temp\ccfBhFEg.s:30056  .debug_str:0000000000021bb1 .LASF3615
C:\Users\SOLDER~1\AppData\Local\Temp\ccfBhFEg.s:30596  .debug_str:0000000000023df4 .LASF3616
C:\Users\SOLDER~1\AppData\Local\Temp\ccfBhFEg.s:31880  .debug_str:00000000000291d7 .LASF3617
C:\Users\SOLDER~1\AppData\Local\Temp\ccfBhFEg.s:30928  .debug_str:00000000000253b3 .LASF3618
C:\Users\SOLDER~1\AppData\Local\Temp\ccfBhFEg.s:33002  .debug_str:000000000002daf0 .LASF3619
C:\Users\SOLDER~1\AppData\Local\Temp\ccfBhFEg.s:27472  .debug_str:00000000000174b2 .LASF3620
C:\Users\SOLDER~1\AppData\Local\Temp\ccfBhFEg.s:31984  .debug_str:0000000000029873 .LASF3621
GAS LISTING C:\Users\SOLDER~1\AppData\Local\Temp\ccfBhFEg.s 			page 137


C:\Users\SOLDER~1\AppData\Local\Temp\ccfBhFEg.s:28632  .debug_str:000000000001bf04 .LASF3622
C:\Users\SOLDER~1\AppData\Local\Temp\ccfBhFEg.s:28524  .debug_str:000000000001b86e .LASF3623
C:\Users\SOLDER~1\AppData\Local\Temp\ccfBhFEg.s:22706  .debug_str:0000000000003fe7 .LASF3624
C:\Users\SOLDER~1\AppData\Local\Temp\ccfBhFEg.s:30710  .debug_str:000000000002452f .LASF3625
C:\Users\SOLDER~1\AppData\Local\Temp\ccfBhFEg.s:30064  .debug_str:0000000000021c37 .LASF3626
C:\Users\SOLDER~1\AppData\Local\Temp\ccfBhFEg.s:32462  .debug_str:000000000002b7a4 .LASF3627
C:\Users\SOLDER~1\AppData\Local\Temp\ccfBhFEg.s:28416  .debug_str:000000000001b1a2 .LASF3628
C:\Users\SOLDER~1\AppData\Local\Temp\ccfBhFEg.s:31764  .debug_str:0000000000028a5e .LASF3629
C:\Users\SOLDER~1\AppData\Local\Temp\ccfBhFEg.s:26360  .debug_str:0000000000012c04 .LASF3630
C:\Users\SOLDER~1\AppData\Local\Temp\ccfBhFEg.s:27856  .debug_str:0000000000018deb .LASF3631
C:\Users\SOLDER~1\AppData\Local\Temp\ccfBhFEg.s:30114  .debug_str:0000000000021f36 .LASF3632
C:\Users\SOLDER~1\AppData\Local\Temp\ccfBhFEg.s:27494  .debug_str:0000000000017630 .LASF3633
C:\Users\SOLDER~1\AppData\Local\Temp\ccfBhFEg.s:30348  .debug_str:0000000000022dab .LASF3634
C:\Users\SOLDER~1\AppData\Local\Temp\ccfBhFEg.s:27630  .debug_str:0000000000017f67 .LASF3635
C:\Users\SOLDER~1\AppData\Local\Temp\ccfBhFEg.s:30402  .debug_str:0000000000023160 .LASF3636
C:\Users\SOLDER~1\AppData\Local\Temp\ccfBhFEg.s:25592  .debug_str:000000000000facf .LASF3637
C:\Users\SOLDER~1\AppData\Local\Temp\ccfBhFEg.s:29730  .debug_str:0000000000020691 .LASF3638
C:\Users\SOLDER~1\AppData\Local\Temp\ccfBhFEg.s:26110  .debug_str:0000000000011c57 .LASF3639
C:\Users\SOLDER~1\AppData\Local\Temp\ccfBhFEg.s:32092  .debug_str:0000000000029f4f .LASF3640
C:\Users\SOLDER~1\AppData\Local\Temp\ccfBhFEg.s:30416  .debug_str:0000000000023258 .LASF3641
C:\Users\SOLDER~1\AppData\Local\Temp\ccfBhFEg.s:30598  .debug_str:0000000000023e09 .LASF3642
C:\Users\SOLDER~1\AppData\Local\Temp\ccfBhFEg.s:32124  .debug_str:000000000002a15d .LASF3643
C:\Users\SOLDER~1\AppData\Local\Temp\ccfBhFEg.s:30946  .debug_str:0000000000025501 .LASF3644
C:\Users\SOLDER~1\AppData\Local\Temp\ccfBhFEg.s:32300  .debug_str:000000000002ad2a .LASF3645
C:\Users\SOLDER~1\AppData\Local\Temp\ccfBhFEg.s:32798  .debug_str:000000000002cd86 .LASF3646
C:\Users\SOLDER~1\AppData\Local\Temp\ccfBhFEg.s:23360  .debug_str:0000000000006a0d .LASF3647
C:\Users\SOLDER~1\AppData\Local\Temp\ccfBhFEg.s:21780  .debug_str:000000000000035e .LASF3648
C:\Users\SOLDER~1\AppData\Local\Temp\ccfBhFEg.s:28666  .debug_str:000000000001c126 .LASF3649
C:\Users\SOLDER~1\AppData\Local\Temp\ccfBhFEg.s:24048  .debug_str:00000000000096f8 .LASF3650
C:\Users\SOLDER~1\AppData\Local\Temp\ccfBhFEg.s:27154  .debug_str:00000000000160d3 .LASF3651
C:\Users\SOLDER~1\AppData\Local\Temp\ccfBhFEg.s:21906  .debug_str:0000000000000c94 .LASF3652
C:\Users\SOLDER~1\AppData\Local\Temp\ccfBhFEg.s:32956  .debug_str:000000000002d7f6 .LASF3653
C:\Users\SOLDER~1\AppData\Local\Temp\ccfBhFEg.s:28034  .debug_str:00000000000199c5 .LASF3654
C:\Users\SOLDER~1\AppData\Local\Temp\ccfBhFEg.s:27590  .debug_str:0000000000017cc5 .LASF3655
C:\Users\SOLDER~1\AppData\Local\Temp\ccfBhFEg.s:31506  .debug_str:000000000002798f .LASF3656
C:\Users\SOLDER~1\AppData\Local\Temp\ccfBhFEg.s:24106  .debug_str:0000000000009aa8 .LASF3657
C:\Users\SOLDER~1\AppData\Local\Temp\ccfBhFEg.s:30688  .debug_str:00000000000243c3 .LASF3658
C:\Users\SOLDER~1\AppData\Local\Temp\ccfBhFEg.s:32848  .debug_str:000000000002d0ae .LASF3659
C:\Users\SOLDER~1\AppData\Local\Temp\ccfBhFEg.s:23266  .debug_str:0000000000006389 .LASF3660
C:\Users\SOLDER~1\AppData\Local\Temp\ccfBhFEg.s:28528  .debug_str:000000000001b8b5 .LASF3661
C:\Users\SOLDER~1\AppData\Local\Temp\ccfBhFEg.s:23208  .debug_str:0000000000005f7b .LASF3662
C:\Users\SOLDER~1\AppData\Local\Temp\ccfBhFEg.s:22884  .debug_str:0000000000004b1e .LASF3663
C:\Users\SOLDER~1\AppData\Local\Temp\ccfBhFEg.s:22916  .debug_str:0000000000004d42 .LASF3664
C:\Users\SOLDER~1\AppData\Local\Temp\ccfBhFEg.s:22454  .debug_str:0000000000002fd8 .LASF3665
C:\Users\SOLDER~1\AppData\Local\Temp\ccfBhFEg.s:31370  .debug_str:00000000000270ad .LASF3666
C:\Users\SOLDER~1\AppData\Local\Temp\ccfBhFEg.s:26542  .debug_str:000000000001384a .LASF3667
C:\Users\SOLDER~1\AppData\Local\Temp\ccfBhFEg.s:27782  .debug_str:0000000000018940 .LASF3668
C:\Users\SOLDER~1\AppData\Local\Temp\ccfBhFEg.s:25364  .debug_str:000000000000ecb1 .LASF3669
C:\Users\SOLDER~1\AppData\Local\Temp\ccfBhFEg.s:25626  .debug_str:000000000000fd4c .LASF3670
C:\Users\SOLDER~1\AppData\Local\Temp\ccfBhFEg.s:30252  .debug_str:00000000000227a4 .LASF3671
C:\Users\SOLDER~1\AppData\Local\Temp\ccfBhFEg.s:31350  .debug_str:0000000000026f3d .LASF3672
C:\Users\SOLDER~1\AppData\Local\Temp\ccfBhFEg.s:28254  .debug_str:000000000001a748 .LASF3673
C:\Users\SOLDER~1\AppData\Local\Temp\ccfBhFEg.s:28274  .debug_str:000000000001a884 .LASF3674
C:\Users\SOLDER~1\AppData\Local\Temp\ccfBhFEg.s:24232  .debug_str:000000000000a2a6 .LASF3675
C:\Users\SOLDER~1\AppData\Local\Temp\ccfBhFEg.s:25996  .debug_str:0000000000011541 .LASF3676
C:\Users\SOLDER~1\AppData\Local\Temp\ccfBhFEg.s:30372  .debug_str:0000000000022f57 .LASF3677
C:\Users\SOLDER~1\AppData\Local\Temp\ccfBhFEg.s:28288  .debug_str:000000000001a98f .LASF3678
GAS LISTING C:\Users\SOLDER~1\AppData\Local\Temp\ccfBhFEg.s 			page 138


C:\Users\SOLDER~1\AppData\Local\Temp\ccfBhFEg.s:30614  .debug_str:0000000000023f15 .LASF3679
C:\Users\SOLDER~1\AppData\Local\Temp\ccfBhFEg.s:31978  .debug_str:000000000002980a .LASF3680
C:\Users\SOLDER~1\AppData\Local\Temp\ccfBhFEg.s:32782  .debug_str:000000000002cc82 .LASF3681
C:\Users\SOLDER~1\AppData\Local\Temp\ccfBhFEg.s:27382  .debug_str:0000000000016f22 .LASF3682
C:\Users\SOLDER~1\AppData\Local\Temp\ccfBhFEg.s:32466  .debug_str:000000000002b7e9 .LASF3683
C:\Users\SOLDER~1\AppData\Local\Temp\ccfBhFEg.s:26124  .debug_str:0000000000011d47 .LASF3684
C:\Users\SOLDER~1\AppData\Local\Temp\ccfBhFEg.s:30038  .debug_str:0000000000021a73 .LASF3685
C:\Users\SOLDER~1\AppData\Local\Temp\ccfBhFEg.s:25924  .debug_str:000000000001109d .LASF3686
C:\Users\SOLDER~1\AppData\Local\Temp\ccfBhFEg.s:33354  .debug_str:000000000002f13b .LASF3687
C:\Users\SOLDER~1\AppData\Local\Temp\ccfBhFEg.s:30054  .debug_str:0000000000021b8a .LASF3688
C:\Users\SOLDER~1\AppData\Local\Temp\ccfBhFEg.s:23890  .debug_str:0000000000008c84 .LASF3689
C:\Users\SOLDER~1\AppData\Local\Temp\ccfBhFEg.s:30044  .debug_str:0000000000021ae5 .LASF3690
C:\Users\SOLDER~1\AppData\Local\Temp\ccfBhFEg.s:26962  .debug_str:00000000000154e1 .LASF3691
C:\Users\SOLDER~1\AppData\Local\Temp\ccfBhFEg.s:23140  .debug_str:0000000000005b43 .LASF3692
C:\Users\SOLDER~1\AppData\Local\Temp\ccfBhFEg.s:24816  .debug_str:000000000000c8b7 .LASF3693
C:\Users\SOLDER~1\AppData\Local\Temp\ccfBhFEg.s:31918  .debug_str:0000000000029447 .LASF3694
C:\Users\SOLDER~1\AppData\Local\Temp\ccfBhFEg.s:26866  .debug_str:0000000000014e93 .LASF3695
C:\Users\SOLDER~1\AppData\Local\Temp\ccfBhFEg.s:24082  .debug_str:000000000000990b .LASF3696
C:\Users\SOLDER~1\AppData\Local\Temp\ccfBhFEg.s:24694  .debug_str:000000000000c06d .LASF3697
C:\Users\SOLDER~1\AppData\Local\Temp\ccfBhFEg.s:28310  .debug_str:000000000001aad4 .LASF3698
C:\Users\SOLDER~1\AppData\Local\Temp\ccfBhFEg.s:25608  .debug_str:000000000000fc28 .LASF3699
C:\Users\SOLDER~1\AppData\Local\Temp\ccfBhFEg.s:29234  .debug_str:000000000001e62d .LASF3700
C:\Users\SOLDER~1\AppData\Local\Temp\ccfBhFEg.s:22200  .debug_str:0000000000001f8c .LASF3701
C:\Users\SOLDER~1\AppData\Local\Temp\ccfBhFEg.s:25862  .debug_str:0000000000010cc8 .LASF3702
C:\Users\SOLDER~1\AppData\Local\Temp\ccfBhFEg.s:25312  .debug_str:000000000000e928 .LASF3703
C:\Users\SOLDER~1\AppData\Local\Temp\ccfBhFEg.s:22554  .debug_str:0000000000003629 .LASF3704
C:\Users\SOLDER~1\AppData\Local\Temp\ccfBhFEg.s:31502  .debug_str:0000000000027942 .LASF3705
C:\Users\SOLDER~1\AppData\Local\Temp\ccfBhFEg.s:30828  .debug_str:0000000000024d0d .LASF3706
C:\Users\SOLDER~1\AppData\Local\Temp\ccfBhFEg.s:24988  .debug_str:000000000000d427 .LASF3707
C:\Users\SOLDER~1\AppData\Local\Temp\ccfBhFEg.s:22282  .debug_str:00000000000024e4 .LASF3708
C:\Users\SOLDER~1\AppData\Local\Temp\ccfBhFEg.s:31078  .debug_str:0000000000025d11 .LASF3709
C:\Users\SOLDER~1\AppData\Local\Temp\ccfBhFEg.s:22482  .debug_str:0000000000003194 .LASF3710
C:\Users\SOLDER~1\AppData\Local\Temp\ccfBhFEg.s:22216  .debug_str:000000000000208e .LASF3711
C:\Users\SOLDER~1\AppData\Local\Temp\ccfBhFEg.s:31162  .debug_str:00000000000262c3 .LASF3712
C:\Users\SOLDER~1\AppData\Local\Temp\ccfBhFEg.s:31552  .debug_str:0000000000027c9b .LASF3713
C:\Users\SOLDER~1\AppData\Local\Temp\ccfBhFEg.s:32022  .debug_str:0000000000029b14 .LASF3714
C:\Users\SOLDER~1\AppData\Local\Temp\ccfBhFEg.s:22892  .debug_str:0000000000004b99 .LASF3715
C:\Users\SOLDER~1\AppData\Local\Temp\ccfBhFEg.s:32036  .debug_str:0000000000029bf2 .LASF3716
C:\Users\SOLDER~1\AppData\Local\Temp\ccfBhFEg.s:28050  .debug_str:0000000000019ae8 .LASF3717
C:\Users\SOLDER~1\AppData\Local\Temp\ccfBhFEg.s:24728  .debug_str:000000000000c266 .LASF3718
C:\Users\SOLDER~1\AppData\Local\Temp\ccfBhFEg.s:27250  .debug_str:0000000000016704 .LASF3719
C:\Users\SOLDER~1\AppData\Local\Temp\ccfBhFEg.s:25048  .debug_str:000000000000d815 .LASF3720
C:\Users\SOLDER~1\AppData\Local\Temp\ccfBhFEg.s:33240  .debug_str:000000000002e9cf .LASF3721
C:\Users\SOLDER~1\AppData\Local\Temp\ccfBhFEg.s:32496  .debug_str:000000000002b9af .LASF3722
C:\Users\SOLDER~1\AppData\Local\Temp\ccfBhFEg.s:30908  .debug_str:0000000000025264 .LASF3723
C:\Users\SOLDER~1\AppData\Local\Temp\ccfBhFEg.s:32966  .debug_str:000000000002d89f .LASF3724
C:\Users\SOLDER~1\AppData\Local\Temp\ccfBhFEg.s:29938  .debug_str:00000000000213f5 .LASF3725
C:\Users\SOLDER~1\AppData\Local\Temp\ccfBhFEg.s:26784  .debug_str:000000000001491d .LASF3726
C:\Users\SOLDER~1\AppData\Local\Temp\ccfBhFEg.s:32222  .debug_str:000000000002a81e .LASF3727
C:\Users\SOLDER~1\AppData\Local\Temp\ccfBhFEg.s:24392  .debug_str:000000000000ad5e .LASF3728
C:\Users\SOLDER~1\AppData\Local\Temp\ccfBhFEg.s:27086  .debug_str:0000000000015ca6 .LASF3729
C:\Users\SOLDER~1\AppData\Local\Temp\ccfBhFEg.s:27908  .debug_str:0000000000019165 .LASF3730
C:\Users\SOLDER~1\AppData\Local\Temp\ccfBhFEg.s:23656  .debug_str:0000000000007d03 .LASF3731
C:\Users\SOLDER~1\AppData\Local\Temp\ccfBhFEg.s:28436  .debug_str:000000000001b304 .LASF3732
C:\Users\SOLDER~1\AppData\Local\Temp\ccfBhFEg.s:24696  .debug_str:000000000000c092 .LASF3733
C:\Users\SOLDER~1\AppData\Local\Temp\ccfBhFEg.s:28208  .debug_str:000000000001a46d .LASF3734
C:\Users\SOLDER~1\AppData\Local\Temp\ccfBhFEg.s:24620  .debug_str:000000000000bb8e .LASF3735
GAS LISTING C:\Users\SOLDER~1\AppData\Local\Temp\ccfBhFEg.s 			page 139


C:\Users\SOLDER~1\AppData\Local\Temp\ccfBhFEg.s:23130  .debug_str:0000000000005a8b .LASF3736
C:\Users\SOLDER~1\AppData\Local\Temp\ccfBhFEg.s:25674  .debug_str:00000000000100bc .LASF3737
C:\Users\SOLDER~1\AppData\Local\Temp\ccfBhFEg.s:23434  .debug_str:0000000000006ebd .LASF3738
C:\Users\SOLDER~1\AppData\Local\Temp\ccfBhFEg.s:22540  .debug_str:000000000000356d .LASF3739
C:\Users\SOLDER~1\AppData\Local\Temp\ccfBhFEg.s:29540  .debug_str:000000000001fa7f .LASF3740
C:\Users\SOLDER~1\AppData\Local\Temp\ccfBhFEg.s:29634  .debug_str:0000000000020097 .LASF3741
C:\Users\SOLDER~1\AppData\Local\Temp\ccfBhFEg.s:25146  .debug_str:000000000000de17 .LASF3742
C:\Users\SOLDER~1\AppData\Local\Temp\ccfBhFEg.s:33192  .debug_str:000000000002e709 .LASF3743
C:\Users\SOLDER~1\AppData\Local\Temp\ccfBhFEg.s:23124  .debug_str:0000000000005a29 .LASF3744
C:\Users\SOLDER~1\AppData\Local\Temp\ccfBhFEg.s:32158  .debug_str:000000000002a3da .LASF3745
C:\Users\SOLDER~1\AppData\Local\Temp\ccfBhFEg.s:25194  .debug_str:000000000000e137 .LASF3746
C:\Users\SOLDER~1\AppData\Local\Temp\ccfBhFEg.s:30378  .debug_str:0000000000022fb6 .LASF3747
C:\Users\SOLDER~1\AppData\Local\Temp\ccfBhFEg.s:26488  .debug_str:000000000001347a .LASF3748
C:\Users\SOLDER~1\AppData\Local\Temp\ccfBhFEg.s:24950  .debug_str:000000000000d19e .LASF3749
C:\Users\SOLDER~1\AppData\Local\Temp\ccfBhFEg.s:32312  .debug_str:000000000002adcd .LASF3750
C:\Users\SOLDER~1\AppData\Local\Temp\ccfBhFEg.s:28614  .debug_str:000000000001bdf0 .LASF3751
C:\Users\SOLDER~1\AppData\Local\Temp\ccfBhFEg.s:25694  .debug_str:000000000001020d .LASF3752
C:\Users\SOLDER~1\AppData\Local\Temp\ccfBhFEg.s:29218  .debug_str:000000000001e53f .LASF3753
C:\Users\SOLDER~1\AppData\Local\Temp\ccfBhFEg.s:25658  .debug_str:000000000000ffa5 .LASF3754
C:\Users\SOLDER~1\AppData\Local\Temp\ccfBhFEg.s:28218  .debug_str:000000000001a505 .LASF3755
C:\Users\SOLDER~1\AppData\Local\Temp\ccfBhFEg.s:28456  .debug_str:000000000001b45e .LASF3756
C:\Users\SOLDER~1\AppData\Local\Temp\ccfBhFEg.s:26262  .debug_str:0000000000012601 .LASF3757
C:\Users\SOLDER~1\AppData\Local\Temp\ccfBhFEg.s:27786  .debug_str:000000000001898e .LASF3758
C:\Users\SOLDER~1\AppData\Local\Temp\ccfBhFEg.s:22308  .debug_str:000000000000266a .LASF3759
C:\Users\SOLDER~1\AppData\Local\Temp\ccfBhFEg.s:23034  .debug_str:0000000000005449 .LASF3760
C:\Users\SOLDER~1\AppData\Local\Temp\ccfBhFEg.s:32766  .debug_str:000000000002cb7c .LASF3761
C:\Users\SOLDER~1\AppData\Local\Temp\ccfBhFEg.s:32990  .debug_str:000000000002da24 .LASF3762
C:\Users\SOLDER~1\AppData\Local\Temp\ccfBhFEg.s:22008  .debug_str:0000000000001321 .LASF3763
C:\Users\SOLDER~1\AppData\Local\Temp\ccfBhFEg.s:27844  .debug_str:0000000000018d22 .LASF3764
C:\Users\SOLDER~1\AppData\Local\Temp\ccfBhFEg.s:25972  .debug_str:00000000000113b6 .LASF3765
C:\Users\SOLDER~1\AppData\Local\Temp\ccfBhFEg.s:30830  .debug_str:0000000000024d31 .LASF3766
C:\Users\SOLDER~1\AppData\Local\Temp\ccfBhFEg.s:24486  .debug_str:000000000000b340 .LASF3767
C:\Users\SOLDER~1\AppData\Local\Temp\ccfBhFEg.s:30110  .debug_str:0000000000021ef7 .LASF3768
C:\Users\SOLDER~1\AppData\Local\Temp\ccfBhFEg.s:22286  .debug_str:0000000000002536 .LASF3769
C:\Users\SOLDER~1\AppData\Local\Temp\ccfBhFEg.s:31624  .debug_str:000000000002810c .LASF3770
C:\Users\SOLDER~1\AppData\Local\Temp\ccfBhFEg.s:21954  .debug_str:0000000000000fba .LASF3771
C:\Users\SOLDER~1\AppData\Local\Temp\ccfBhFEg.s:30690  .debug_str:00000000000243ea .LASF3772
C:\Users\SOLDER~1\AppData\Local\Temp\ccfBhFEg.s:26606  .debug_str:0000000000013cc6 .LASF3773
C:\Users\SOLDER~1\AppData\Local\Temp\ccfBhFEg.s:32030  .debug_str:0000000000029b80 .LASF3774
C:\Users\SOLDER~1\AppData\Local\Temp\ccfBhFEg.s:29446  .debug_str:000000000001f418 .LASF3775
C:\Users\SOLDER~1\AppData\Local\Temp\ccfBhFEg.s:25028  .debug_str:000000000000d6af .LASF3776
C:\Users\SOLDER~1\AppData\Local\Temp\ccfBhFEg.s:23554  .debug_str:000000000000768d .LASF3777
C:\Users\SOLDER~1\AppData\Local\Temp\ccfBhFEg.s:31336  .debug_str:0000000000026e66 .LASF3778
C:\Users\SOLDER~1\AppData\Local\Temp\ccfBhFEg.s:29628  .debug_str:000000000002003d .LASF3779
C:\Users\SOLDER~1\AppData\Local\Temp\ccfBhFEg.s:29890  .debug_str:00000000000210e0 .LASF3780
C:\Users\SOLDER~1\AppData\Local\Temp\ccfBhFEg.s:30800  .debug_str:0000000000024b24 .LASF3781
C:\Users\SOLDER~1\AppData\Local\Temp\ccfBhFEg.s:22732  .debug_str:0000000000004193 .LASF3782
C:\Users\SOLDER~1\AppData\Local\Temp\ccfBhFEg.s:26888  .debug_str:000000000001503c .LASF3783
C:\Users\SOLDER~1\AppData\Local\Temp\ccfBhFEg.s:25478  .debug_str:000000000000f38c .LASF3784
C:\Users\SOLDER~1\AppData\Local\Temp\ccfBhFEg.s:23402  .debug_str:0000000000006c9b .LASF3785
C:\Users\SOLDER~1\AppData\Local\Temp\ccfBhFEg.s:27716  .debug_str:000000000001852e .LASF3786
C:\Users\SOLDER~1\AppData\Local\Temp\ccfBhFEg.s:32970  .debug_str:000000000002d8e8 .LASF3787
C:\Users\SOLDER~1\AppData\Local\Temp\ccfBhFEg.s:30804  .debug_str:0000000000024b61 .LASF3788
C:\Users\SOLDER~1\AppData\Local\Temp\ccfBhFEg.s:23180  .debug_str:0000000000005dcb .LASF3789
C:\Users\SOLDER~1\AppData\Local\Temp\ccfBhFEg.s:24342  .debug_str:000000000000aa18 .LASF3790
C:\Users\SOLDER~1\AppData\Local\Temp\ccfBhFEg.s:31864  .debug_str:00000000000290df .LASF3791
C:\Users\SOLDER~1\AppData\Local\Temp\ccfBhFEg.s:31458  .debug_str:0000000000027649 .LASF3792
GAS LISTING C:\Users\SOLDER~1\AppData\Local\Temp\ccfBhFEg.s 			page 140


C:\Users\SOLDER~1\AppData\Local\Temp\ccfBhFEg.s:29050  .debug_str:000000000001dab6 .LASF3793
C:\Users\SOLDER~1\AppData\Local\Temp\ccfBhFEg.s:32870  .debug_str:000000000002d1f6 .LASF3794
C:\Users\SOLDER~1\AppData\Local\Temp\ccfBhFEg.s:25796  .debug_str:000000000001089a .LASF3795
C:\Users\SOLDER~1\AppData\Local\Temp\ccfBhFEg.s:24222  .debug_str:000000000000a207 .LASF3796
C:\Users\SOLDER~1\AppData\Local\Temp\ccfBhFEg.s:25696  .debug_str:0000000000010231 .LASF3797
C:\Users\SOLDER~1\AppData\Local\Temp\ccfBhFEg.s:31648  .debug_str:00000000000282a9 .LASF3798
C:\Users\SOLDER~1\AppData\Local\Temp\ccfBhFEg.s:32258  .debug_str:000000000002aa87 .LASF3799
C:\Users\SOLDER~1\AppData\Local\Temp\ccfBhFEg.s:28684  .debug_str:000000000001c262 .LASF3800
C:\Users\SOLDER~1\AppData\Local\Temp\ccfBhFEg.s:29936  .debug_str:00000000000213e0 .LASF3801
C:\Users\SOLDER~1\AppData\Local\Temp\ccfBhFEg.s:27582  .debug_str:0000000000017c5b .LASF3802
C:\Users\SOLDER~1\AppData\Local\Temp\ccfBhFEg.s:31970  .debug_str:0000000000029798 .LASF3803
C:\Users\SOLDER~1\AppData\Local\Temp\ccfBhFEg.s:29694  .debug_str:0000000000020445 .LASF3804
C:\Users\SOLDER~1\AppData\Local\Temp\ccfBhFEg.s:28804  .debug_str:000000000001ca5b .LASF3805
C:\Users\SOLDER~1\AppData\Local\Temp\ccfBhFEg.s:21806  .debug_str:000000000000050c .LASF3806
C:\Users\SOLDER~1\AppData\Local\Temp\ccfBhFEg.s:32612  .debug_str:000000000002c140 .LASF3807
C:\Users\SOLDER~1\AppData\Local\Temp\ccfBhFEg.s:21870  .debug_str:0000000000000a10 .LASF3808
C:\Users\SOLDER~1\AppData\Local\Temp\ccfBhFEg.s:27024  .debug_str:0000000000015909 .LASF3809
C:\Users\SOLDER~1\AppData\Local\Temp\ccfBhFEg.s:27344  .debug_str:0000000000016cad .LASF3810
C:\Users\SOLDER~1\AppData\Local\Temp\ccfBhFEg.s:29652  .debug_str:00000000000201bf .LASF3811
C:\Users\SOLDER~1\AppData\Local\Temp\ccfBhFEg.s:27150  .debug_str:0000000000016092 .LASF3812
C:\Users\SOLDER~1\AppData\Local\Temp\ccfBhFEg.s:23820  .debug_str:00000000000087d6 .LASF3813
C:\Users\SOLDER~1\AppData\Local\Temp\ccfBhFEg.s:22762  .debug_str:000000000000437f .LASF3814
C:\Users\SOLDER~1\AppData\Local\Temp\ccfBhFEg.s:24000  .debug_str:00000000000093b3 .LASF3815
C:\Users\SOLDER~1\AppData\Local\Temp\ccfBhFEg.s:27128  .debug_str:0000000000015f4b .LASF3816
C:\Users\SOLDER~1\AppData\Local\Temp\ccfBhFEg.s:23840  .debug_str:000000000000891e .LASF3817
C:\Users\SOLDER~1\AppData\Local\Temp\ccfBhFEg.s:25084  .debug_str:000000000000da52 .LASF3818
C:\Users\SOLDER~1\AppData\Local\Temp\ccfBhFEg.s:22940  .debug_str:0000000000004ead .LASF3819
C:\Users\SOLDER~1\AppData\Local\Temp\ccfBhFEg.s:30876  .debug_str:000000000002501d .LASF3820
C:\Users\SOLDER~1\AppData\Local\Temp\ccfBhFEg.s:26344  .debug_str:0000000000012b10 .LASF3821
C:\Users\SOLDER~1\AppData\Local\Temp\ccfBhFEg.s:25670  .debug_str:0000000000010075 .LASF3822
C:\Users\SOLDER~1\AppData\Local\Temp\ccfBhFEg.s:28950  .debug_str:000000000001d3e5 .LASF3823
C:\Users\SOLDER~1\AppData\Local\Temp\ccfBhFEg.s:32194  .debug_str:000000000002a629 .LASF3824
C:\Users\SOLDER~1\AppData\Local\Temp\ccfBhFEg.s:23970  .debug_str:00000000000091d0 .LASF3825
C:\Users\SOLDER~1\AppData\Local\Temp\ccfBhFEg.s:30116  .debug_str:0000000000021f46 .LASF3826
C:\Users\SOLDER~1\AppData\Local\Temp\ccfBhFEg.s:24204  .debug_str:000000000000a0f1 .LASF3827
C:\Users\SOLDER~1\AppData\Local\Temp\ccfBhFEg.s:23602  .debug_str:0000000000007956 .LASF3828
C:\Users\SOLDER~1\AppData\Local\Temp\ccfBhFEg.s:24846  .debug_str:000000000000cab5 .LASF3829
C:\Users\SOLDER~1\AppData\Local\Temp\ccfBhFEg.s:24832  .debug_str:000000000000c9bd .LASF3830
C:\Users\SOLDER~1\AppData\Local\Temp\ccfBhFEg.s:22442  .debug_str:0000000000002ee2 .LASF3831
C:\Users\SOLDER~1\AppData\Local\Temp\ccfBhFEg.s:24626  .debug_str:000000000000bbec .LASF3832
C:\Users\SOLDER~1\AppData\Local\Temp\ccfBhFEg.s:30618  .debug_str:0000000000023f59 .LASF3833
C:\Users\SOLDER~1\AppData\Local\Temp\ccfBhFEg.s:28714  .debug_str:000000000001c48f .LASF3834
C:\Users\SOLDER~1\AppData\Local\Temp\ccfBhFEg.s:25180  .debug_str:000000000000e052 .LASF3835
C:\Users\SOLDER~1\AppData\Local\Temp\ccfBhFEg.s:32482  .debug_str:000000000002b90b .LASF3836
C:\Users\SOLDER~1\AppData\Local\Temp\ccfBhFEg.s:30536  .debug_str:00000000000239e7 .LASF3837
C:\Users\SOLDER~1\AppData\Local\Temp\ccfBhFEg.s:22824  .debug_str:0000000000004773 .LASF3838
C:\Users\SOLDER~1\AppData\Local\Temp\ccfBhFEg.s:30796  .debug_str:0000000000024add .LASF3839
C:\Users\SOLDER~1\AppData\Local\Temp\ccfBhFEg.s:30316  .debug_str:0000000000022b94 .LASF3840
C:\Users\SOLDER~1\AppData\Local\Temp\ccfBhFEg.s:22778  .debug_str:0000000000004471 .LASF3841
C:\Users\SOLDER~1\AppData\Local\Temp\ccfBhFEg.s:24904  .debug_str:000000000000ce8c .LASF3842
C:\Users\SOLDER~1\AppData\Local\Temp\ccfBhFEg.s:32038  .debug_str:0000000000029c17 .LASF3843
C:\Users\SOLDER~1\AppData\Local\Temp\ccfBhFEg.s:24322  .debug_str:000000000000a8d0 .LASF3844
C:\Users\SOLDER~1\AppData\Local\Temp\ccfBhFEg.s:30354  .debug_str:0000000000022e09 .LASF3845
C:\Users\SOLDER~1\AppData\Local\Temp\ccfBhFEg.s:28940  .debug_str:000000000001d372 .LASF3846
C:\Users\SOLDER~1\AppData\Local\Temp\ccfBhFEg.s:30674  .debug_str:00000000000242d8 .LASF3847
C:\Users\SOLDER~1\AppData\Local\Temp\ccfBhFEg.s:25890  .debug_str:0000000000010ea6 .LASF3848
C:\Users\SOLDER~1\AppData\Local\Temp\ccfBhFEg.s:27286  .debug_str:000000000001695b .LASF3849
GAS LISTING C:\Users\SOLDER~1\AppData\Local\Temp\ccfBhFEg.s 			page 141


C:\Users\SOLDER~1\AppData\Local\Temp\ccfBhFEg.s:23196  .debug_str:0000000000005ebb .LASF3850
C:\Users\SOLDER~1\AppData\Local\Temp\ccfBhFEg.s:24738  .debug_str:000000000000c32b .LASF3851
C:\Users\SOLDER~1\AppData\Local\Temp\ccfBhFEg.s:24482  .debug_str:000000000000b30b .LASF3852
C:\Users\SOLDER~1\AppData\Local\Temp\ccfBhFEg.s:24514  .debug_str:000000000000b500 .LASF3853
C:\Users\SOLDER~1\AppData\Local\Temp\ccfBhFEg.s:22452  .debug_str:0000000000002fc2 .LASF3854
C:\Users\SOLDER~1\AppData\Local\Temp\ccfBhFEg.s:28040  .debug_str:0000000000019a34 .LASF3855
C:\Users\SOLDER~1\AppData\Local\Temp\ccfBhFEg.s:25176  .debug_str:000000000000e017 .LASF3856
C:\Users\SOLDER~1\AppData\Local\Temp\ccfBhFEg.s:32942  .debug_str:000000000002d6eb .LASF3857
C:\Users\SOLDER~1\AppData\Local\Temp\ccfBhFEg.s:32646  .debug_str:000000000002c376 .LASF3858
C:\Users\SOLDER~1\AppData\Local\Temp\ccfBhFEg.s:31050  .debug_str:0000000000025b5c .LASF3859
C:\Users\SOLDER~1\AppData\Local\Temp\ccfBhFEg.s:29286  .debug_str:000000000001e981 .LASF3860
C:\Users\SOLDER~1\AppData\Local\Temp\ccfBhFEg.s:21900  .debug_str:0000000000000c28 .LASF3861
C:\Users\SOLDER~1\AppData\Local\Temp\ccfBhFEg.s:32096  .debug_str:0000000000029fa1 .LASF3862
C:\Users\SOLDER~1\AppData\Local\Temp\ccfBhFEg.s:22620  .debug_str:0000000000003a68 .LASF3863
C:\Users\SOLDER~1\AppData\Local\Temp\ccfBhFEg.s:33014  .debug_str:000000000002dba1 .LASF3864
C:\Users\SOLDER~1\AppData\Local\Temp\ccfBhFEg.s:25330  .debug_str:000000000000ea4c .LASF3865
C:\Users\SOLDER~1\AppData\Local\Temp\ccfBhFEg.s:24480  .debug_str:000000000000b2eb .LASF3866
C:\Users\SOLDER~1\AppData\Local\Temp\ccfBhFEg.s:25668  .debug_str:0000000000010055 .LASF3867
C:\Users\SOLDER~1\AppData\Local\Temp\ccfBhFEg.s:27776  .debug_str:00000000000188ed .LASF3868
C:\Users\SOLDER~1\AppData\Local\Temp\ccfBhFEg.s:28826  .debug_str:000000000001cbde .LASF3869
C:\Users\SOLDER~1\AppData\Local\Temp\ccfBhFEg.s:25322  .debug_str:000000000000e9d4 .LASF3870
C:\Users\SOLDER~1\AppData\Local\Temp\ccfBhFEg.s:25242  .debug_str:000000000000e4a6 .LASF3871
C:\Users\SOLDER~1\AppData\Local\Temp\ccfBhFEg.s:33118  .debug_str:000000000002e24f .LASF3872
C:\Users\SOLDER~1\AppData\Local\Temp\ccfBhFEg.s:27878  .debug_str:0000000000018f54 .LASF3873
C:\Users\SOLDER~1\AppData\Local\Temp\ccfBhFEg.s:22712  .debug_str:000000000000403d .LASF3874
C:\Users\SOLDER~1\AppData\Local\Temp\ccfBhFEg.s:31928  .debug_str:00000000000294df .LASF3875
C:\Users\SOLDER~1\AppData\Local\Temp\ccfBhFEg.s:23648  .debug_str:0000000000007c6c .LASF3876
C:\Users\SOLDER~1\AppData\Local\Temp\ccfBhFEg.s:22710  .debug_str:0000000000004019 .LASF3877
C:\Users\SOLDER~1\AppData\Local\Temp\ccfBhFEg.s:28006  .debug_str:00000000000197d0 .LASF3878
C:\Users\SOLDER~1\AppData\Local\Temp\ccfBhFEg.s:24752  .debug_str:000000000000c426 .LASF3879
C:\Users\SOLDER~1\AppData\Local\Temp\ccfBhFEg.s:24834  .debug_str:000000000000c9df .LASF3880
C:\Users\SOLDER~1\AppData\Local\Temp\ccfBhFEg.s:30884  .debug_str:0000000000025097 .LASF3881
C:\Users\SOLDER~1\AppData\Local\Temp\ccfBhFEg.s:25582  .debug_str:000000000000fa2e .LASF3882
C:\Users\SOLDER~1\AppData\Local\Temp\ccfBhFEg.s:21748  .debug_str:000000000000017e .LASF3883
C:\Users\SOLDER~1\AppData\Local\Temp\ccfBhFEg.s:32554  .debug_str:000000000002bd81 .LASF3884
C:\Users\SOLDER~1\AppData\Local\Temp\ccfBhFEg.s:31960  .debug_str:00000000000296dd .LASF3885
C:\Users\SOLDER~1\AppData\Local\Temp\ccfBhFEg.s:25212  .debug_str:000000000000e269 .LASF3886
C:\Users\SOLDER~1\AppData\Local\Temp\ccfBhFEg.s:29850  .debug_str:0000000000020e40 .LASF3887
C:\Users\SOLDER~1\AppData\Local\Temp\ccfBhFEg.s:21880  .debug_str:0000000000000ab7 .LASF3888
C:\Users\SOLDER~1\AppData\Local\Temp\ccfBhFEg.s:33202  .debug_str:000000000002e76e .LASF3889
C:\Users\SOLDER~1\AppData\Local\Temp\ccfBhFEg.s:29544  .debug_str:000000000001fab3 .LASF3890
C:\Users\SOLDER~1\AppData\Local\Temp\ccfBhFEg.s:25742  .debug_str:00000000000104f2 .LASF3891
C:\Users\SOLDER~1\AppData\Local\Temp\ccfBhFEg.s:32700  .debug_str:000000000002c732 .LASF3892
C:\Users\SOLDER~1\AppData\Local\Temp\ccfBhFEg.s:23784  .debug_str:00000000000085a0 .LASF3893
C:\Users\SOLDER~1\AppData\Local\Temp\ccfBhFEg.s:28968  .debug_str:000000000001d505 .LASF3894
C:\Users\SOLDER~1\AppData\Local\Temp\ccfBhFEg.s:27968  .debug_str:0000000000019580 .LASF3895
C:\Users\SOLDER~1\AppData\Local\Temp\ccfBhFEg.s:29940  .debug_str:0000000000021416 .LASF3896
C:\Users\SOLDER~1\AppData\Local\Temp\ccfBhFEg.s:24116  .debug_str:0000000000009b4a .LASF3897
C:\Users\SOLDER~1\AppData\Local\Temp\ccfBhFEg.s:31672  .debug_str:0000000000028460 .LASF3898
C:\Users\SOLDER~1\AppData\Local\Temp\ccfBhFEg.s:22152  .debug_str:0000000000001c69 .LASF3899
C:\Users\SOLDER~1\AppData\Local\Temp\ccfBhFEg.s:27552  .debug_str:0000000000017a53 .LASF3900
C:\Users\SOLDER~1\AppData\Local\Temp\ccfBhFEg.s:32398  .debug_str:000000000002b357 .LASF3901
C:\Users\SOLDER~1\AppData\Local\Temp\ccfBhFEg.s:33214  .debug_str:000000000002e83d .LASF3902
C:\Users\SOLDER~1\AppData\Local\Temp\ccfBhFEg.s:25470  .debug_str:000000000000f321 .LASF3903
C:\Users\SOLDER~1\AppData\Local\Temp\ccfBhFEg.s:26806  .debug_str:0000000000014a91 .LASF3904
C:\Users\SOLDER~1\AppData\Local\Temp\ccfBhFEg.s:28872  .debug_str:000000000001cec4 .LASF3905
C:\Users\SOLDER~1\AppData\Local\Temp\ccfBhFEg.s:30810  .debug_str:0000000000024be5 .LASF3906
GAS LISTING C:\Users\SOLDER~1\AppData\Local\Temp\ccfBhFEg.s 			page 142


C:\Users\SOLDER~1\AppData\Local\Temp\ccfBhFEg.s:31890  .debug_str:000000000002926d .LASF3907
C:\Users\SOLDER~1\AppData\Local\Temp\ccfBhFEg.s:29240  .debug_str:000000000001e69c .LASF3908
C:\Users\SOLDER~1\AppData\Local\Temp\ccfBhFEg.s:33212  .debug_str:000000000002e81a .LASF3909
C:\Users\SOLDER~1\AppData\Local\Temp\ccfBhFEg.s:27198  .debug_str:00000000000163a2 .LASF3910
C:\Users\SOLDER~1\AppData\Local\Temp\ccfBhFEg.s:33074  .debug_str:000000000002df85 .LASF3911
C:\Users\SOLDER~1\AppData\Local\Temp\ccfBhFEg.s:27752  .debug_str:000000000001878f .LASF3912
C:\Users\SOLDER~1\AppData\Local\Temp\ccfBhFEg.s:31720  .debug_str:0000000000028794 .LASF3913
C:\Users\SOLDER~1\AppData\Local\Temp\ccfBhFEg.s:22846  .debug_str:00000000000048df .LASF3914
C:\Users\SOLDER~1\AppData\Local\Temp\ccfBhFEg.s:28270  .debug_str:000000000001a84f .LASF3915
C:\Users\SOLDER~1\AppData\Local\Temp\ccfBhFEg.s:29478  .debug_str:000000000001f64a .LASF3916
C:\Users\SOLDER~1\AppData\Local\Temp\ccfBhFEg.s:29952  .debug_str:00000000000214e3 .LASF3917
C:\Users\SOLDER~1\AppData\Local\Temp\ccfBhFEg.s:25846  .debug_str:0000000000010bb8 .LASF3918
C:\Users\SOLDER~1\AppData\Local\Temp\ccfBhFEg.s:31240  .debug_str:0000000000026823 .LASF3919
C:\Users\SOLDER~1\AppData\Local\Temp\ccfBhFEg.s:32170  .debug_str:000000000002a49c .LASF3920
C:\Users\SOLDER~1\AppData\Local\Temp\ccfBhFEg.s:31118  .debug_str:0000000000025fca .LASF3921
C:\Users\SOLDER~1\AppData\Local\Temp\ccfBhFEg.s:23516  .debug_str:000000000000742f .LASF3922
C:\Users\SOLDER~1\AppData\Local\Temp\ccfBhFEg.s:30036  .debug_str:0000000000021a52 .LASF3923
C:\Users\SOLDER~1\AppData\Local\Temp\ccfBhFEg.s:25978  .debug_str:000000000001140b .LASF3924
C:\Users\SOLDER~1\AppData\Local\Temp\ccfBhFEg.s:29882  .debug_str:0000000000021052 .LASF3925
C:\Users\SOLDER~1\AppData\Local\Temp\ccfBhFEg.s:22996  .debug_str:00000000000051ec .LASF3926
C:\Users\SOLDER~1\AppData\Local\Temp\ccfBhFEg.s:26530  .debug_str:0000000000013771 .LASF3927
C:\Users\SOLDER~1\AppData\Local\Temp\ccfBhFEg.s:24134  .debug_str:0000000000009c62 .LASF3928
C:\Users\SOLDER~1\AppData\Local\Temp\ccfBhFEg.s:22586  .debug_str:0000000000003848 .LASF3929
C:\Users\SOLDER~1\AppData\Local\Temp\ccfBhFEg.s:23628  .debug_str:0000000000007b0e .LASF3930
C:\Users\SOLDER~1\AppData\Local\Temp\ccfBhFEg.s:29492  .debug_str:000000000001f731 .LASF3931
C:\Users\SOLDER~1\AppData\Local\Temp\ccfBhFEg.s:28970  .debug_str:000000000001d51c .LASF3932
C:\Users\SOLDER~1\AppData\Local\Temp\ccfBhFEg.s:31740  .debug_str:00000000000288c4 .LASF3933
C:\Users\SOLDER~1\AppData\Local\Temp\ccfBhFEg.s:31298  .debug_str:0000000000026bd5 .LASF3934
C:\Users\SOLDER~1\AppData\Local\Temp\ccfBhFEg.s:24128  .debug_str:0000000000009c05 .LASF3935
C:\Users\SOLDER~1\AppData\Local\Temp\ccfBhFEg.s:25366  .debug_str:000000000000ecd7 .LASF3936
C:\Users\SOLDER~1\AppData\Local\Temp\ccfBhFEg.s:27152  .debug_str:00000000000160b4 .LASF3937
C:\Users\SOLDER~1\AppData\Local\Temp\ccfBhFEg.s:23054  .debug_str:0000000000005583 .LASF3938
C:\Users\SOLDER~1\AppData\Local\Temp\ccfBhFEg.s:23816  .debug_str:0000000000008781 .LASF3939
C:\Users\SOLDER~1\AppData\Local\Temp\ccfBhFEg.s:27124  .debug_str:0000000000015f1c .LASF3940
C:\Users\SOLDER~1\AppData\Local\Temp\ccfBhFEg.s:27700  .debug_str:00000000000183fd .LASF3941
C:\Users\SOLDER~1\AppData\Local\Temp\ccfBhFEg.s:33430  .debug_str:000000000002f5c3 .LASF3942
C:\Users\SOLDER~1\AppData\Local\Temp\ccfBhFEg.s:29956  .debug_str:0000000000021529 .LASF3943
C:\Users\SOLDER~1\AppData\Local\Temp\ccfBhFEg.s:22340  .debug_str:0000000000002889 .LASF3944
C:\Users\SOLDER~1\AppData\Local\Temp\ccfBhFEg.s:28724  .debug_str:000000000001c50a .LASF3945
C:\Users\SOLDER~1\AppData\Local\Temp\ccfBhFEg.s:23772  .debug_str:00000000000084cb .LASF3946
C:\Users\SOLDER~1\AppData\Local\Temp\ccfBhFEg.s:29824  .debug_str:0000000000020c8e .LASF3947
C:\Users\SOLDER~1\AppData\Local\Temp\ccfBhFEg.s:30994  .debug_str:00000000000257dd .LASF3948
C:\Users\SOLDER~1\AppData\Local\Temp\ccfBhFEg.s:27052  .debug_str:0000000000015ae5 .LASF3949
C:\Users\SOLDER~1\AppData\Local\Temp\ccfBhFEg.s:22010  .debug_str:0000000000001334 .LASF3950
C:\Users\SOLDER~1\AppData\Local\Temp\ccfBhFEg.s:30580  .debug_str:0000000000023cd7 .LASF3951
C:\Users\SOLDER~1\AppData\Local\Temp\ccfBhFEg.s:22716  .debug_str:0000000000004089 .LASF3952
C:\Users\SOLDER~1\AppData\Local\Temp\ccfBhFEg.s:25706  .debug_str:00000000000102ce .LASF3953
C:\Users\SOLDER~1\AppData\Local\Temp\ccfBhFEg.s:27156  .debug_str:00000000000160f5 .LASF3954
C:\Users\SOLDER~1\AppData\Local\Temp\ccfBhFEg.s:23708  .debug_str:0000000000008086 .LASF3955
C:\Users\SOLDER~1\AppData\Local\Temp\ccfBhFEg.s:22058  .debug_str:000000000000164f .LASF3956
C:\Users\SOLDER~1\AppData\Local\Temp\ccfBhFEg.s:33432  .debug_str:000000000002f5d9 .LASF3957
C:\Users\SOLDER~1\AppData\Local\Temp\ccfBhFEg.s:26278  .debug_str:00000000000126e1 .LASF3958
C:\Users\SOLDER~1\AppData\Local\Temp\ccfBhFEg.s:27512  .debug_str:0000000000017796 .LASF3959
C:\Users\SOLDER~1\AppData\Local\Temp\ccfBhFEg.s:25246  .debug_str:000000000000e4eb .LASF3960
C:\Users\SOLDER~1\AppData\Local\Temp\ccfBhFEg.s:27784  .debug_str:0000000000018966 .LASF3961
C:\Users\SOLDER~1\AppData\Local\Temp\ccfBhFEg.s:31008  .debug_str:00000000000258bb .LASF3962
C:\Users\SOLDER~1\AppData\Local\Temp\ccfBhFEg.s:25244  .debug_str:000000000000e4c4 .LASF3963
GAS LISTING C:\Users\SOLDER~1\AppData\Local\Temp\ccfBhFEg.s 			page 143


C:\Users\SOLDER~1\AppData\Local\Temp\ccfBhFEg.s:25378  .debug_str:000000000000ed8d .LASF3964
C:\Users\SOLDER~1\AppData\Local\Temp\ccfBhFEg.s:29884  .debug_str:0000000000021072 .LASF3965
C:\Users\SOLDER~1\AppData\Local\Temp\ccfBhFEg.s:29950  .debug_str:00000000000214bb .LASF3966
C:\Users\SOLDER~1\AppData\Local\Temp\ccfBhFEg.s:28910  .debug_str:000000000001d158 .LASF3967
C:\Users\SOLDER~1\AppData\Local\Temp\ccfBhFEg.s:30720  .debug_str:00000000000245d4 .LASF3968
C:\Users\SOLDER~1\AppData\Local\Temp\ccfBhFEg.s:27660  .debug_str:0000000000018149 .LASF3969
C:\Users\SOLDER~1\AppData\Local\Temp\ccfBhFEg.s:24822  .debug_str:000000000000c913 .LASF3970
C:\Users\SOLDER~1\AppData\Local\Temp\ccfBhFEg.s:24366  .debug_str:000000000000abae .LASF3971
C:\Users\SOLDER~1\AppData\Local\Temp\ccfBhFEg.s:22856  .debug_str:000000000000498c .LASF3972
C:\Users\SOLDER~1\AppData\Local\Temp\ccfBhFEg.s:31252  .debug_str:00000000000268e8 .LASF3973
C:\Users\SOLDER~1\AppData\Local\Temp\ccfBhFEg.s:25630  .debug_str:000000000000fda2 .LASF3974
C:\Users\SOLDER~1\AppData\Local\Temp\ccfBhFEg.s:25832  .debug_str:0000000000010aac .LASF3975
C:\Users\SOLDER~1\AppData\Local\Temp\ccfBhFEg.s:21860  .debug_str:0000000000000964 .LASF3976
C:\Users\SOLDER~1\AppData\Local\Temp\ccfBhFEg.s:23416  .debug_str:0000000000006d79 .LASF3977
C:\Users\SOLDER~1\AppData\Local\Temp\ccfBhFEg.s:33306  .debug_str:000000000002edf4 .LASF3978
C:\Users\SOLDER~1\AppData\Local\Temp\ccfBhFEg.s:24302  .debug_str:000000000000a73a .LASF3979
C:\Users\SOLDER~1\AppData\Local\Temp\ccfBhFEg.s:27424  .debug_str:000000000001717d .LASF3980
C:\Users\SOLDER~1\AppData\Local\Temp\ccfBhFEg.s:31420  .debug_str:00000000000273cd .LASF3981
C:\Users\SOLDER~1\AppData\Local\Temp\ccfBhFEg.s:28486  .debug_str:000000000001b601 .LASF3982
C:\Users\SOLDER~1\AppData\Local\Temp\ccfBhFEg.s:31860  .debug_str:000000000002909f .LASF3983
C:\Users\SOLDER~1\AppData\Local\Temp\ccfBhFEg.s:27598  .debug_str:0000000000017d46 .LASF3984
C:\Users\SOLDER~1\AppData\Local\Temp\ccfBhFEg.s:31412  .debug_str:0000000000027340 .LASF3985
C:\Users\SOLDER~1\AppData\Local\Temp\ccfBhFEg.s:33372  .debug_str:000000000002f268 .LASF3986
C:\Users\SOLDER~1\AppData\Local\Temp\ccfBhFEg.s:23366  .debug_str:0000000000006a60 .LASF3987
C:\Users\SOLDER~1\AppData\Local\Temp\ccfBhFEg.s:29108  .debug_str:000000000001de28 .LASF3988
C:\Users\SOLDER~1\AppData\Local\Temp\ccfBhFEg.s:23546  .debug_str:000000000000761f .LASF3989
C:\Users\SOLDER~1\AppData\Local\Temp\ccfBhFEg.s:31278  .debug_str:0000000000026ab3 .LASF3990
C:\Users\SOLDER~1\AppData\Local\Temp\ccfBhFEg.s:22708  .debug_str:0000000000003ffc .LASF3991
C:\Users\SOLDER~1\AppData\Local\Temp\ccfBhFEg.s:30712  .debug_str:0000000000024551 .LASF3992
C:\Users\SOLDER~1\AppData\Local\Temp\ccfBhFEg.s:23952  .debug_str:00000000000090b0 .LASF3993
C:\Users\SOLDER~1\AppData\Local\Temp\ccfBhFEg.s:24554  .debug_str:000000000000b7c3 .LASF3994
C:\Users\SOLDER~1\AppData\Local\Temp\ccfBhFEg.s:24850  .debug_str:000000000000cafb .LASF3995
C:\Users\SOLDER~1\AppData\Local\Temp\ccfBhFEg.s:30790  .debug_str:0000000000024a6e .LASF3996
C:\Users\SOLDER~1\AppData\Local\Temp\ccfBhFEg.s:32408  .debug_str:000000000002b3f8 .LASF3997
C:\Users\SOLDER~1\AppData\Local\Temp\ccfBhFEg.s:23996  .debug_str:0000000000009391 .LASF3998
C:\Users\SOLDER~1\AppData\Local\Temp\ccfBhFEg.s:26334  .debug_str:0000000000012a90 .LASF3999
C:\Users\SOLDER~1\AppData\Local\Temp\ccfBhFEg.s:26818  .debug_str:0000000000014b42 .LASF4000
C:\Users\SOLDER~1\AppData\Local\Temp\ccfBhFEg.s:31630  .debug_str:0000000000028167 .LASF4001
C:\Users\SOLDER~1\AppData\Local\Temp\ccfBhFEg.s:33224  .debug_str:000000000002e8d4 .LASF4002
C:\Users\SOLDER~1\AppData\Local\Temp\ccfBhFEg.s:22276  .debug_str:0000000000002492 .LASF4003
C:\Users\SOLDER~1\AppData\Local\Temp\ccfBhFEg.s:27292  .debug_str:00000000000169a6 .LASF4004
C:\Users\SOLDER~1\AppData\Local\Temp\ccfBhFEg.s:30728  .debug_str:000000000002464d .LASF4005
C:\Users\SOLDER~1\AppData\Local\Temp\ccfBhFEg.s:31974  .debug_str:00000000000297d2 .LASF4006
C:\Users\SOLDER~1\AppData\Local\Temp\ccfBhFEg.s:23050  .debug_str:0000000000005541 .LASF4007
C:\Users\SOLDER~1\AppData\Local\Temp\ccfBhFEg.s:23748  .debug_str:0000000000008350 .LASF4008
C:\Users\SOLDER~1\AppData\Local\Temp\ccfBhFEg.s:21972  .debug_str:00000000000010cc .LASF4009
C:\Users\SOLDER~1\AppData\Local\Temp\ccfBhFEg.s:31830  .debug_str:0000000000028eb5 .LASF4010
C:\Users\SOLDER~1\AppData\Local\Temp\ccfBhFEg.s:21934  .debug_str:0000000000000e81 .LASF4011
C:\Users\SOLDER~1\AppData\Local\Temp\ccfBhFEg.s:32318  .debug_str:000000000002ae32 .LASF4012
C:\Users\SOLDER~1\AppData\Local\Temp\ccfBhFEg.s:31850  .debug_str:0000000000028fed .LASF4013
C:\Users\SOLDER~1\AppData\Local\Temp\ccfBhFEg.s:28262  .debug_str:000000000001a7d1 .LASF4014
C:\Users\SOLDER~1\AppData\Local\Temp\ccfBhFEg.s:24354  .debug_str:000000000000aade .LASF4015
C:\Users\SOLDER~1\AppData\Local\Temp\ccfBhFEg.s:22190  .debug_str:0000000000001eef .LASF4016
C:\Users\SOLDER~1\AppData\Local\Temp\ccfBhFEg.s:32904  .debug_str:000000000002d438 .LASF4017
C:\Users\SOLDER~1\AppData\Local\Temp\ccfBhFEg.s:30130  .debug_str:0000000000022046 .LASF4018
C:\Users\SOLDER~1\AppData\Local\Temp\ccfBhFEg.s:21788  .debug_str:00000000000003ee .LASF4019
C:\Users\SOLDER~1\AppData\Local\Temp\ccfBhFEg.s:24808  .debug_str:000000000000c839 .LASF4020
GAS LISTING C:\Users\SOLDER~1\AppData\Local\Temp\ccfBhFEg.s 			page 144


C:\Users\SOLDER~1\AppData\Local\Temp\ccfBhFEg.s:24636  .debug_str:000000000000bca2 .LASF4021
C:\Users\SOLDER~1\AppData\Local\Temp\ccfBhFEg.s:30768  .debug_str:00000000000248eb .LASF4022
C:\Users\SOLDER~1\AppData\Local\Temp\ccfBhFEg.s:31132  .debug_str:00000000000260db .LASF4023
C:\Users\SOLDER~1\AppData\Local\Temp\ccfBhFEg.s:31766  .debug_str:0000000000028a7f .LASF4024
C:\Users\SOLDER~1\AppData\Local\Temp\ccfBhFEg.s:22744  .debug_str:000000000000426e .LASF4025
C:\Users\SOLDER~1\AppData\Local\Temp\ccfBhFEg.s:29396  .debug_str:000000000001f0e7 .LASF4026
C:\Users\SOLDER~1\AppData\Local\Temp\ccfBhFEg.s:26918  .debug_str:0000000000015224 .LASF4027
C:\Users\SOLDER~1\AppData\Local\Temp\ccfBhFEg.s:33286  .debug_str:000000000002ec9e .LASF4028
C:\Users\SOLDER~1\AppData\Local\Temp\ccfBhFEg.s:22602  .debug_str:0000000000003954 .LASF4029
C:\Users\SOLDER~1\AppData\Local\Temp\ccfBhFEg.s:28604  .debug_str:000000000001bd75 .LASF4030
C:\Users\SOLDER~1\AppData\Local\Temp\ccfBhFEg.s:31302  .debug_str:0000000000026c22 .LASF4031
C:\Users\SOLDER~1\AppData\Local\Temp\ccfBhFEg.s:25736  .debug_str:0000000000010494 .LASF4032
C:\Users\SOLDER~1\AppData\Local\Temp\ccfBhFEg.s:30504  .debug_str:00000000000237c2 .LASF4033
C:\Users\SOLDER~1\AppData\Local\Temp\ccfBhFEg.s:24640  .debug_str:000000000000bce8 .LASF4034
C:\Users\SOLDER~1\AppData\Local\Temp\ccfBhFEg.s:32174  .debug_str:000000000002a4df .LASF4035
C:\Users\SOLDER~1\AppData\Local\Temp\ccfBhFEg.s:24084  .debug_str:0000000000009930 .LASF4036
C:\Users\SOLDER~1\AppData\Local\Temp\ccfBhFEg.s:22918  .debug_str:0000000000004d65 .LASF4037
C:\Users\SOLDER~1\AppData\Local\Temp\ccfBhFEg.s:27762  .debug_str:0000000000018829 .LASF4038
C:\Users\SOLDER~1\AppData\Local\Temp\ccfBhFEg.s:23832  .debug_str:00000000000088b2 .LASF4039
C:\Users\SOLDER~1\AppData\Local\Temp\ccfBhFEg.s:29914  .debug_str:0000000000021250 .LASF4040
C:\Users\SOLDER~1\AppData\Local\Temp\ccfBhFEg.s:33032  .debug_str:000000000002dcc2 .LASF4041
C:\Users\SOLDER~1\AppData\Local\Temp\ccfBhFEg.s:25464  .debug_str:000000000000f2cc .LASF4042
C:\Users\SOLDER~1\AppData\Local\Temp\ccfBhFEg.s:33142  .debug_str:000000000002e3e5 .LASF4043
C:\Users\SOLDER~1\AppData\Local\Temp\ccfBhFEg.s:29678  .debug_str:0000000000020346 .LASF4044
C:\Users\SOLDER~1\AppData\Local\Temp\ccfBhFEg.s:23108  .debug_str:0000000000005923 .LASF4045
C:\Users\SOLDER~1\AppData\Local\Temp\ccfBhFEg.s:29116  .debug_str:000000000001de6a .LASF4046
C:\Users\SOLDER~1\AppData\Local\Temp\ccfBhFEg.s:23100  .debug_str:0000000000005896 .LASF4047
C:\Users\SOLDER~1\AppData\Local\Temp\ccfBhFEg.s:30982  .debug_str:000000000002573a .LASF4048
C:\Users\SOLDER~1\AppData\Local\Temp\ccfBhFEg.s:26018  .debug_str:000000000001166f .LASF4049
C:\Users\SOLDER~1\AppData\Local\Temp\ccfBhFEg.s:26586  .debug_str:0000000000013b42 .LASF4050
C:\Users\SOLDER~1\AppData\Local\Temp\ccfBhFEg.s:22408  .debug_str:0000000000002cae .LASF4051
C:\Users\SOLDER~1\AppData\Local\Temp\ccfBhFEg.s:26702  .debug_str:0000000000014383 .LASF4052
C:\Users\SOLDER~1\AppData\Local\Temp\ccfBhFEg.s:25798  .debug_str:00000000000108b0 .LASF4053
C:\Users\SOLDER~1\AppData\Local\Temp\ccfBhFEg.s:25988  .debug_str:00000000000114c0 .LASF4054
C:\Users\SOLDER~1\AppData\Local\Temp\ccfBhFEg.s:30366  .debug_str:0000000000022eec .LASF4055
C:\Users\SOLDER~1\AppData\Local\Temp\ccfBhFEg.s:25910  .debug_str:0000000000010fcb .LASF4056
C:\Users\SOLDER~1\AppData\Local\Temp\ccfBhFEg.s:22502  .debug_str:00000000000032e1 .LASF4057
C:\Users\SOLDER~1\AppData\Local\Temp\ccfBhFEg.s:26444  .debug_str:00000000000131d6 .LASF4058
C:\Users\SOLDER~1\AppData\Local\Temp\ccfBhFEg.s:26358  .debug_str:0000000000012be9 .LASF4059
C:\Users\SOLDER~1\AppData\Local\Temp\ccfBhFEg.s:23988  .debug_str:00000000000092fa .LASF4060
C:\Users\SOLDER~1\AppData\Local\Temp\ccfBhFEg.s:23194  .debug_str:0000000000005ea0 .LASF4061
C:\Users\SOLDER~1\AppData\Local\Temp\ccfBhFEg.s:29910  .debug_str:0000000000021226 .LASF4062
C:\Users\SOLDER~1\AppData\Local\Temp\ccfBhFEg.s:27538  .debug_str:000000000001795c .LASF4063
C:\Users\SOLDER~1\AppData\Local\Temp\ccfBhFEg.s:29784  .debug_str:00000000000209fe .LASF4064
C:\Users\SOLDER~1\AppData\Local\Temp\ccfBhFEg.s:30172  .debug_str:00000000000222d8 .LASF4065
C:\Users\SOLDER~1\AppData\Local\Temp\ccfBhFEg.s:30374  .debug_str:0000000000022f7d .LASF4066
C:\Users\SOLDER~1\AppData\Local\Temp\ccfBhFEg.s:26314  .debug_str:000000000001294c .LASF4067
C:\Users\SOLDER~1\AppData\Local\Temp\ccfBhFEg.s:30516  .debug_str:0000000000023891 .LASF4068
C:\Users\SOLDER~1\AppData\Local\Temp\ccfBhFEg.s:23244  .debug_str:000000000000621e .LASF4069
C:\Users\SOLDER~1\AppData\Local\Temp\ccfBhFEg.s:30662  .debug_str:000000000002420e .LASF4070
C:\Users\SOLDER~1\AppData\Local\Temp\ccfBhFEg.s:27832  .debug_str:0000000000018c6f .LASF4071
C:\Users\SOLDER~1\AppData\Local\Temp\ccfBhFEg.s:30148  .debug_str:0000000000022160 .LASF4072
C:\Users\SOLDER~1\AppData\Local\Temp\ccfBhFEg.s:22236  .debug_str:00000000000021da .LASF4073
C:\Users\SOLDER~1\AppData\Local\Temp\ccfBhFEg.s:31288  .debug_str:0000000000026b49 .LASF4074
C:\Users\SOLDER~1\AppData\Local\Temp\ccfBhFEg.s:30256  .debug_str:00000000000227cf .LASF4075
C:\Users\SOLDER~1\AppData\Local\Temp\ccfBhFEg.s:26436  .debug_str:000000000001314a .LASF4076
C:\Users\SOLDER~1\AppData\Local\Temp\ccfBhFEg.s:31088  .debug_str:0000000000025dc6 .LASF4077
GAS LISTING C:\Users\SOLDER~1\AppData\Local\Temp\ccfBhFEg.s 			page 145


C:\Users\SOLDER~1\AppData\Local\Temp\ccfBhFEg.s:22648  .debug_str:0000000000003c4f .LASF4078
C:\Users\SOLDER~1\AppData\Local\Temp\ccfBhFEg.s:25616  .debug_str:000000000000fca5 .LASF4079
C:\Users\SOLDER~1\AppData\Local\Temp\ccfBhFEg.s:24522  .debug_str:000000000000b586 .LASF4080
C:\Users\SOLDER~1\AppData\Local\Temp\ccfBhFEg.s:22912  .debug_str:0000000000004d00 .LASF4081
C:\Users\SOLDER~1\AppData\Local\Temp\ccfBhFEg.s:31626  .debug_str:000000000002812f .LASF4082
C:\Users\SOLDER~1\AppData\Local\Temp\ccfBhFEg.s:24088  .debug_str:0000000000009967 .LASF4083
C:\Users\SOLDER~1\AppData\Local\Temp\ccfBhFEg.s:32640  .debug_str:000000000002c31b .LASF4084
C:\Users\SOLDER~1\AppData\Local\Temp\ccfBhFEg.s:30514  .debug_str:0000000000023874 .LASF4085
C:\Users\SOLDER~1\AppData\Local\Temp\ccfBhFEg.s:31802  .debug_str:0000000000028cc0 .LASF4086
C:\Users\SOLDER~1\AppData\Local\Temp\ccfBhFEg.s:28772  .debug_str:000000000001c870 .LASF4087
C:\Users\SOLDER~1\AppData\Local\Temp\ccfBhFEg.s:26856  .debug_str:0000000000014dff .LASF4088
C:\Users\SOLDER~1\AppData\Local\Temp\ccfBhFEg.s:22728  .debug_str:0000000000004149 .LASF4089
C:\Users\SOLDER~1\AppData\Local\Temp\ccfBhFEg.s:28556  .debug_str:000000000001ba80 .LASF4090
C:\Users\SOLDER~1\AppData\Local\Temp\ccfBhFEg.s:32544  .debug_str:000000000002bcc6 .LASF4091
C:\Users\SOLDER~1\AppData\Local\Temp\ccfBhFEg.s:33398  .debug_str:000000000002f3e0 .LASF4092
C:\Users\SOLDER~1\AppData\Local\Temp\ccfBhFEg.s:23514  .debug_str:0000000000007412 .LASF4093
C:\Users\SOLDER~1\AppData\Local\Temp\ccfBhFEg.s:32852  .debug_str:000000000002d0ec .LASF4094
C:\Users\SOLDER~1\AppData\Local\Temp\ccfBhFEg.s:33106  .debug_str:000000000002e175 .LASF4095
C:\Users\SOLDER~1\AppData\Local\Temp\ccfBhFEg.s:27748  .debug_str:0000000000018761 .LASF4096
C:\Users\SOLDER~1\AppData\Local\Temp\ccfBhFEg.s:22060  .debug_str:000000000000166a .LASF4097
C:\Users\SOLDER~1\AppData\Local\Temp\ccfBhFEg.s:22868  .debug_str:0000000000004a42 .LASF4098
C:\Users\SOLDER~1\AppData\Local\Temp\ccfBhFEg.s:22696  .debug_str:0000000000003f66 .LASF4099
C:\Users\SOLDER~1\AppData\Local\Temp\ccfBhFEg.s:28560  .debug_str:000000000001baba .LASF4100
C:\Users\SOLDER~1\AppData\Local\Temp\ccfBhFEg.s:32400  .debug_str:000000000002b378 .LASF4101
C:\Users\SOLDER~1\AppData\Local\Temp\ccfBhFEg.s:26894  .debug_str:0000000000015095 .LASF4102
C:\Users\SOLDER~1\AppData\Local\Temp\ccfBhFEg.s:22864  .debug_str:0000000000004a0f .LASF4103
C:\Users\SOLDER~1\AppData\Local\Temp\ccfBhFEg.s:25128  .debug_str:000000000000dd39 .LASF4104
C:\Users\SOLDER~1\AppData\Local\Temp\ccfBhFEg.s:24296  .debug_str:000000000000a6e8 .LASF4105
C:\Users\SOLDER~1\AppData\Local\Temp\ccfBhFEg.s:24214  .debug_str:000000000000a18d .LASF4106
C:\Users\SOLDER~1\AppData\Local\Temp\ccfBhFEg.s:33026  .debug_str:000000000002dc4f .LASF4107
C:\Users\SOLDER~1\AppData\Local\Temp\ccfBhFEg.s:27896  .debug_str:00000000000190ad .LASF4108
C:\Users\SOLDER~1\AppData\Local\Temp\ccfBhFEg.s:33280  .debug_str:000000000002ec3e .LASF4109
C:\Users\SOLDER~1\AppData\Local\Temp\ccfBhFEg.s:22704  .debug_str:0000000000003fd7 .LASF4110
C:\Users\SOLDER~1\AppData\Local\Temp\ccfBhFEg.s:30312  .debug_str:0000000000022b5a .LASF4111
C:\Users\SOLDER~1\AppData\Local\Temp\ccfBhFEg.s:25816  .debug_str:00000000000109c6 .LASF4112
C:\Users\SOLDER~1\AppData\Local\Temp\ccfBhFEg.s:27842  .debug_str:0000000000018d0b .LASF4113
C:\Users\SOLDER~1\AppData\Local\Temp\ccfBhFEg.s:30052  .debug_str:0000000000021b78 .LASF4114
C:\Users\SOLDER~1\AppData\Local\Temp\ccfBhFEg.s:28088  .debug_str:0000000000019d60 .LASF4115
C:\Users\SOLDER~1\AppData\Local\Temp\ccfBhFEg.s:25290  .debug_str:000000000000e7e8 .LASF4116
C:\Users\SOLDER~1\AppData\Local\Temp\ccfBhFEg.s:33056  .debug_str:000000000002de63 .LASF4117
C:\Users\SOLDER~1\AppData\Local\Temp\ccfBhFEg.s:24148  .debug_str:0000000000009d28 .LASF4118
C:\Users\SOLDER~1\AppData\Local\Temp\ccfBhFEg.s:23436  .debug_str:0000000000006ee0 .LASF4119
C:\Users\SOLDER~1\AppData\Local\Temp\ccfBhFEg.s:31548  .debug_str:0000000000027c66 .LASF4120
C:\Users\SOLDER~1\AppData\Local\Temp\ccfBhFEg.s:25956  .debug_str:00000000000112ac .LASF4121
C:\Users\SOLDER~1\AppData\Local\Temp\ccfBhFEg.s:23032  .debug_str:0000000000005437 .LASF4122
C:\Users\SOLDER~1\AppData\Local\Temp\ccfBhFEg.s:23368  .debug_str:0000000000006a7b .LASF4123
C:\Users\SOLDER~1\AppData\Local\Temp\ccfBhFEg.s:27148  .debug_str:0000000000016074 .LASF4124
C:\Users\SOLDER~1\AppData\Local\Temp\ccfBhFEg.s:24538  .debug_str:000000000000b6a1 .LASF4125
C:\Users\SOLDER~1\AppData\Local\Temp\ccfBhFEg.s:22170  .debug_str:0000000000001db4 .LASF4126
C:\Users\SOLDER~1\AppData\Local\Temp\ccfBhFEg.s:26936  .debug_str:000000000001533d .LASF4127
C:\Users\SOLDER~1\AppData\Local\Temp\ccfBhFEg.s:24688  .debug_str:000000000000c00c .LASF4128
C:\Users\SOLDER~1\AppData\Local\Temp\ccfBhFEg.s:32168  .debug_str:000000000002a48a .LASF4129
C:\Users\SOLDER~1\AppData\Local\Temp\ccfBhFEg.s:22336  .debug_str:000000000000284b .LASF4130
C:\Users\SOLDER~1\AppData\Local\Temp\ccfBhFEg.s:24328  .debug_str:000000000000a93c .LASF4131
C:\Users\SOLDER~1\AppData\Local\Temp\ccfBhFEg.s:29156  .debug_str:000000000001e10a .LASF4132
C:\Users\SOLDER~1\AppData\Local\Temp\ccfBhFEg.s:24984  .debug_str:000000000000d3ee .LASF4133
C:\Users\SOLDER~1\AppData\Local\Temp\ccfBhFEg.s:23070  .debug_str:0000000000005678 .LASF4134
GAS LISTING C:\Users\SOLDER~1\AppData\Local\Temp\ccfBhFEg.s 			page 146


C:\Users\SOLDER~1\AppData\Local\Temp\ccfBhFEg.s:25746  .debug_str:000000000001052e .LASF4135
C:\Users\SOLDER~1\AppData\Local\Temp\ccfBhFEg.s:31520  .debug_str:0000000000027a83 .LASF4136
C:\Users\SOLDER~1\AppData\Local\Temp\ccfBhFEg.s:30548  .debug_str:0000000000023ad0 .LASF4137
C:\Users\SOLDER~1\AppData\Local\Temp\ccfBhFEg.s:33332  .debug_str:000000000002efc9 .LASF4138
C:\Users\SOLDER~1\AppData\Local\Temp\ccfBhFEg.s:26822  .debug_str:0000000000014b7a .LASF4139
C:\Users\SOLDER~1\AppData\Local\Temp\ccfBhFEg.s:23576  .debug_str:00000000000077ef .LASF4140
C:\Users\SOLDER~1\AppData\Local\Temp\ccfBhFEg.s:30616  .debug_str:0000000000023f3b .LASF4141
C:\Users\SOLDER~1\AppData\Local\Temp\ccfBhFEg.s:23744  .debug_str:000000000000831f .LASF4142
C:\Users\SOLDER~1\AppData\Local\Temp\ccfBhFEg.s:32200  .debug_str:000000000002a68f .LASF4143
C:\Users\SOLDER~1\AppData\Local\Temp\ccfBhFEg.s:30764  .debug_str:00000000000248bf .LASF4144
C:\Users\SOLDER~1\AppData\Local\Temp\ccfBhFEg.s:26976  .debug_str:00000000000155c1 .LASF4145
C:\Users\SOLDER~1\AppData\Local\Temp\ccfBhFEg.s:25276  .debug_str:000000000000e6fe .LASF4146
C:\Users\SOLDER~1\AppData\Local\Temp\ccfBhFEg.s:30344  .debug_str:0000000000022d6e .LASF4147
C:\Users\SOLDER~1\AppData\Local\Temp\ccfBhFEg.s:30550  .debug_str:0000000000023ae3 .LASF4148
C:\Users\SOLDER~1\AppData\Local\Temp\ccfBhFEg.s:22436  .debug_str:0000000000002e8e .LASF4149
C:\Users\SOLDER~1\AppData\Local\Temp\ccfBhFEg.s:29800  .debug_str:0000000000020b05 .LASF4150
C:\Users\SOLDER~1\AppData\Local\Temp\ccfBhFEg.s:32632  .debug_str:000000000002c289 .LASF4151
C:\Users\SOLDER~1\AppData\Local\Temp\ccfBhFEg.s:30026  .debug_str:00000000000219b5 .LASF4152
C:\Users\SOLDER~1\AppData\Local\Temp\ccfBhFEg.s:28706  .debug_str:000000000001c3f8 .LASF4153
C:\Users\SOLDER~1\AppData\Local\Temp\ccfBhFEg.s:22882  .debug_str:0000000000004b09 .LASF4154
C:\Users\SOLDER~1\AppData\Local\Temp\ccfBhFEg.s:22294  .debug_str:000000000000259c .LASF4155
C:\Users\SOLDER~1\AppData\Local\Temp\ccfBhFEg.s:24410  .debug_str:000000000000ae55 .LASF4156
C:\Users\SOLDER~1\AppData\Local\Temp\ccfBhFEg.s:27824  .debug_str:0000000000018bf0 .LASF4157
C:\Users\SOLDER~1\AppData\Local\Temp\ccfBhFEg.s:32272  .debug_str:000000000002ab47 .LASF4158
C:\Users\SOLDER~1\AppData\Local\Temp\ccfBhFEg.s:30258  .debug_str:00000000000227ea .LASF4159
C:\Users\SOLDER~1\AppData\Local\Temp\ccfBhFEg.s:28114  .debug_str:0000000000019ef4 .LASF4160
C:\Users\SOLDER~1\AppData\Local\Temp\ccfBhFEg.s:22332  .debug_str:0000000000002807 .LASF4161
C:\Users\SOLDER~1\AppData\Local\Temp\ccfBhFEg.s:26276  .debug_str:00000000000126c3 .LASF4162
C:\Users\SOLDER~1\AppData\Local\Temp\ccfBhFEg.s:29780  .debug_str:00000000000209be .LASF4163
C:\Users\SOLDER~1\AppData\Local\Temp\ccfBhFEg.s:27308  .debug_str:0000000000016a8e .LASF4164
C:\Users\SOLDER~1\AppData\Local\Temp\ccfBhFEg.s:24358  .debug_str:000000000000ab28 .LASF4165
C:\Users\SOLDER~1\AppData\Local\Temp\ccfBhFEg.s:30590  .debug_str:0000000000023d96 .LASF4166
C:\Users\SOLDER~1\AppData\Local\Temp\ccfBhFEg.s:24240  .debug_str:000000000000a331 .LASF4167
C:\Users\SOLDER~1\AppData\Local\Temp\ccfBhFEg.s:31678  .debug_str:00000000000284b9 .LASF4168
C:\Users\SOLDER~1\AppData\Local\Temp\ccfBhFEg.s:29432  .debug_str:000000000001f33a .LASF4169
C:\Users\SOLDER~1\AppData\Local\Temp\ccfBhFEg.s:32598  .debug_str:000000000002c072 .LASF4170
C:\Users\SOLDER~1\AppData\Local\Temp\ccfBhFEg.s:28652  .debug_str:000000000001c071 .LASF4171
C:\Users\SOLDER~1\AppData\Local\Temp\ccfBhFEg.s:31892  .debug_str:0000000000029292 .LASF4172
C:\Users\SOLDER~1\AppData\Local\Temp\ccfBhFEg.s:32986  .debug_str:000000000002d9e1 .LASF4173
C:\Users\SOLDER~1\AppData\Local\Temp\ccfBhFEg.s:22956  .debug_str:0000000000004f9a .LASF4174
C:\Users\SOLDER~1\AppData\Local\Temp\ccfBhFEg.s:33228  .debug_str:000000000002e8ff .LASF4175
C:\Users\SOLDER~1\AppData\Local\Temp\ccfBhFEg.s:29574  .debug_str:000000000001fcca .LASF4176
C:\Users\SOLDER~1\AppData\Local\Temp\ccfBhFEg.s:31560  .debug_str:0000000000027d34 .LASF4177
C:\Users\SOLDER~1\AppData\Local\Temp\ccfBhFEg.s:31062  .debug_str:0000000000025c29 .LASF4178
C:\Users\SOLDER~1\AppData\Local\Temp\ccfBhFEg.s:25532  .debug_str:000000000000f6e8 .LASF4179
C:\Users\SOLDER~1\AppData\Local\Temp\ccfBhFEg.s:28186  .debug_str:000000000001a331 .LASF4180
C:\Users\SOLDER~1\AppData\Local\Temp\ccfBhFEg.s:23190  .debug_str:0000000000005e5d .LASF4181
C:\Users\SOLDER~1\AppData\Local\Temp\ccfBhFEg.s:22806  .debug_str:0000000000004631 .LASF4182
C:\Users\SOLDER~1\AppData\Local\Temp\ccfBhFEg.s:23468  .debug_str:0000000000007131 .LASF4183
C:\Users\SOLDER~1\AppData\Local\Temp\ccfBhFEg.s:30954  .debug_str:000000000002557b .LASF4184
C:\Users\SOLDER~1\AppData\Local\Temp\ccfBhFEg.s:26710  .debug_str:00000000000143eb .LASF4185
C:\Users\SOLDER~1\AppData\Local\Temp\ccfBhFEg.s:33126  .debug_str:000000000002e2c9 .LASF4186
C:\Users\SOLDER~1\AppData\Local\Temp\ccfBhFEg.s:30146  .debug_str:0000000000022144 .LASF4187
C:\Users\SOLDER~1\AppData\Local\Temp\ccfBhFEg.s:23686  .debug_str:0000000000007f01 .LASF4188
C:\Users\SOLDER~1\AppData\Local\Temp\ccfBhFEg.s:29354  .debug_str:000000000001ee15 .LASF4189
C:\Users\SOLDER~1\AppData\Local\Temp\ccfBhFEg.s:23582  .debug_str:0000000000007841 .LASF4190
C:\Users\SOLDER~1\AppData\Local\Temp\ccfBhFEg.s:23364  .debug_str:0000000000006a4c .LASF4191
GAS LISTING C:\Users\SOLDER~1\AppData\Local\Temp\ccfBhFEg.s 			page 147


C:\Users\SOLDER~1\AppData\Local\Temp\ccfBhFEg.s:31938  .debug_str:0000000000029568 .LASF4192
C:\Users\SOLDER~1\AppData\Local\Temp\ccfBhFEg.s:22218  .debug_str:00000000000020b3 .LASF4193
C:\Users\SOLDER~1\AppData\Local\Temp\ccfBhFEg.s:31026  .debug_str:00000000000259e1 .LASF4194
C:\Users\SOLDER~1\AppData\Local\Temp\ccfBhFEg.s:24874  .debug_str:000000000000cc95 .LASF4195
C:\Users\SOLDER~1\AppData\Local\Temp\ccfBhFEg.s:28624  .debug_str:000000000001be7e .LASF4196
C:\Users\SOLDER~1\AppData\Local\Temp\ccfBhFEg.s:21854  .debug_str:0000000000000906 .LASF4197
C:\Users\SOLDER~1\AppData\Local\Temp\ccfBhFEg.s:26694  .debug_str:00000000000142ec .LASF4198
C:\Users\SOLDER~1\AppData\Local\Temp\ccfBhFEg.s:26676  .debug_str:00000000000141b2 .LASF4199
C:\Users\SOLDER~1\AppData\Local\Temp\ccfBhFEg.s:24374  .debug_str:000000000000ac56 .LASF4200
C:\Users\SOLDER~1\AppData\Local\Temp\ccfBhFEg.s:24172  .debug_str:0000000000009ec8 .LASF4201
C:\Users\SOLDER~1\AppData\Local\Temp\ccfBhFEg.s:24478  .debug_str:000000000000b2cd .LASF4202
C:\Users\SOLDER~1\AppData\Local\Temp\ccfBhFEg.s:25852  .debug_str:0000000000010c10 .LASF4203
C:\Users\SOLDER~1\AppData\Local\Temp\ccfBhFEg.s:24378  .debug_str:000000000000ac98 .LASF4204
C:\Users\SOLDER~1\AppData\Local\Temp\ccfBhFEg.s:26652  .debug_str:000000000001401a .LASF4205
C:\Users\SOLDER~1\AppData\Local\Temp\ccfBhFEg.s:27996  .debug_str:000000000001972f .LASF4206
C:\Users\SOLDER~1\AppData\Local\Temp\ccfBhFEg.s:23256  .debug_str:00000000000062df .LASF4207
C:\Users\SOLDER~1\AppData\Local\Temp\ccfBhFEg.s:26532  .debug_str:0000000000013790 .LASF4208
C:\Users\SOLDER~1\AppData\Local\Temp\ccfBhFEg.s:23826  .debug_str:0000000000008832 .LASF4209
C:\Users\SOLDER~1\AppData\Local\Temp\ccfBhFEg.s:32048  .debug_str:0000000000029cb2 .LASF4210
C:\Users\SOLDER~1\AppData\Local\Temp\ccfBhFEg.s:32046  .debug_str:0000000000029c94 .LASF4211
C:\Users\SOLDER~1\AppData\Local\Temp\ccfBhFEg.s:22122  .debug_str:0000000000001a5f .LASF4212
C:\Users\SOLDER~1\AppData\Local\Temp\ccfBhFEg.s:29982  .debug_str:0000000000021705 .LASF4213
C:\Users\SOLDER~1\AppData\Local\Temp\ccfBhFEg.s:31594  .debug_str:0000000000027f3f .LASF4214
C:\Users\SOLDER~1\AppData\Local\Temp\ccfBhFEg.s:23792  .debug_str:0000000000008613 .LASF4215
C:\Users\SOLDER~1\AppData\Local\Temp\ccfBhFEg.s:27084  .debug_str:0000000000015c8a .LASF4216
C:\Users\SOLDER~1\AppData\Local\Temp\ccfBhFEg.s:27522  .debug_str:000000000001782e .LASF4217
C:\Users\SOLDER~1\AppData\Local\Temp\ccfBhFEg.s:21776  .debug_str:000000000000031b .LASF4218
C:\Users\SOLDER~1\AppData\Local\Temp\ccfBhFEg.s:26812  .debug_str:0000000000014aeb .LASF4219
C:\Users\SOLDER~1\AppData\Local\Temp\ccfBhFEg.s:31818  .debug_str:0000000000028dd4 .LASF4220
C:\Users\SOLDER~1\AppData\Local\Temp\ccfBhFEg.s:32896  .debug_str:000000000002d3af .LASF4221
C:\Users\SOLDER~1\AppData\Local\Temp\ccfBhFEg.s:32148  .debug_str:000000000002a312 .LASF4222
C:\Users\SOLDER~1\AppData\Local\Temp\ccfBhFEg.s:29600  .debug_str:000000000001fe8d .LASF4223
C:\Users\SOLDER~1\AppData\Local\Temp\ccfBhFEg.s:32068  .debug_str:0000000000029de3 .LASF4224
C:\Users\SOLDER~1\AppData\Local\Temp\ccfBhFEg.s:27852  .debug_str:0000000000018dba .LASF4225
C:\Users\SOLDER~1\AppData\Local\Temp\ccfBhFEg.s:25842  .debug_str:0000000000010b61 .LASF4226
C:\Users\SOLDER~1\AppData\Local\Temp\ccfBhFEg.s:24494  .debug_str:000000000000b3a0 .LASF4227
C:\Users\SOLDER~1\AppData\Local\Temp\ccfBhFEg.s:24568  .debug_str:000000000000b8a4 .LASF4228
C:\Users\SOLDER~1\AppData\Local\Temp\ccfBhFEg.s:26946  .debug_str:00000000000153c6 .LASF4229
C:\Users\SOLDER~1\AppData\Local\Temp\ccfBhFEg.s:24436  .debug_str:000000000000b025 .LASF4230
C:\Users\SOLDER~1\AppData\Local\Temp\ccfBhFEg.s:23758  .debug_str:00000000000083e9 .LASF4231
C:\Users\SOLDER~1\AppData\Local\Temp\ccfBhFEg.s:28346  .debug_str:000000000001ad36 .LASF4232
C:\Users\SOLDER~1\AppData\Local\Temp\ccfBhFEg.s:25892  .debug_str:0000000000010eb9 .LASF4233
C:\Users\SOLDER~1\AppData\Local\Temp\ccfBhFEg.s:32460  .debug_str:000000000002b787 .LASF4234
C:\Users\SOLDER~1\AppData\Local\Temp\ccfBhFEg.s:23770  .debug_str:00000000000084b7 .LASF4235
C:\Users\SOLDER~1\AppData\Local\Temp\ccfBhFEg.s:26448  .debug_str:00000000000131fb .LASF4236
C:\Users\SOLDER~1\AppData\Local\Temp\ccfBhFEg.s:23324  .debug_str:0000000000006775 .LASF4237
C:\Users\SOLDER~1\AppData\Local\Temp\ccfBhFEg.s:21822  .debug_str:0000000000000626 .LASF4238
C:\Users\SOLDER~1\AppData\Local\Temp\ccfBhFEg.s:22492  .debug_str:0000000000003249 .LASF4239
C:\Users\SOLDER~1\AppData\Local\Temp\ccfBhFEg.s:30756  .debug_str:000000000002483d .LASF4240
C:\Users\SOLDER~1\AppData\Local\Temp\ccfBhFEg.s:22462  .debug_str:0000000000003058 .LASF4241
C:\Users\SOLDER~1\AppData\Local\Temp\ccfBhFEg.s:29666  .debug_str:000000000002028d .LASF4242
C:\Users\SOLDER~1\AppData\Local\Temp\ccfBhFEg.s:25430  .debug_str:000000000000f0a0 .LASF4243
C:\Users\SOLDER~1\AppData\Local\Temp\ccfBhFEg.s:23528  .debug_str:00000000000074f1 .LASF4244
C:\Users\SOLDER~1\AppData\Local\Temp\ccfBhFEg.s:29932  .debug_str:000000000002139e .LASF4245
C:\Users\SOLDER~1\AppData\Local\Temp\ccfBhFEg.s:22400  .debug_str:0000000000002c1f .LASF4246
C:\Users\SOLDER~1\AppData\Local\Temp\ccfBhFEg.s:29500  .debug_str:000000000001f7bc .LASF4247
C:\Users\SOLDER~1\AppData\Local\Temp\ccfBhFEg.s:25908  .debug_str:0000000000010faf .LASF4248
GAS LISTING C:\Users\SOLDER~1\AppData\Local\Temp\ccfBhFEg.s 			page 148


C:\Users\SOLDER~1\AppData\Local\Temp\ccfBhFEg.s:22258  .debug_str:000000000000234d .LASF4249
C:\Users\SOLDER~1\AppData\Local\Temp\ccfBhFEg.s:27054  .debug_str:0000000000015b08 .LASF4250
C:\Users\SOLDER~1\AppData\Local\Temp\ccfBhFEg.s:29866  .debug_str:0000000000020f43 .LASF4251
C:\Users\SOLDER~1\AppData\Local\Temp\ccfBhFEg.s:32376  .debug_str:000000000002b1e5 .LASF4252
C:\Users\SOLDER~1\AppData\Local\Temp\ccfBhFEg.s:27622  .debug_str:0000000000017ef1 .LASF4253
C:\Users\SOLDER~1\AppData\Local\Temp\ccfBhFEg.s:30406  .debug_str:00000000000231a8 .LASF4254
C:\Users\SOLDER~1\AppData\Local\Temp\ccfBhFEg.s:25376  .debug_str:000000000000ed70 .LASF4255
C:\Users\SOLDER~1\AppData\Local\Temp\ccfBhFEg.s:32072  .debug_str:0000000000029e1f .LASF4256
C:\Users\SOLDER~1\AppData\Local\Temp\ccfBhFEg.s:22722  .debug_str:00000000000040f0 .LASF4257
C:\Users\SOLDER~1\AppData\Local\Temp\ccfBhFEg.s:29926  .debug_str:000000000002131e .LASF4258
C:\Users\SOLDER~1\AppData\Local\Temp\ccfBhFEg.s:23222  .debug_str:000000000000607b .LASF4259
C:\Users\SOLDER~1\AppData\Local\Temp\ccfBhFEg.s:26132  .debug_str:0000000000011dc1 .LASF4260
C:\Users\SOLDER~1\AppData\Local\Temp\ccfBhFEg.s:27994  .debug_str:0000000000019711 .LASF4261
C:\Users\SOLDER~1\AppData\Local\Temp\ccfBhFEg.s:30838  .debug_str:0000000000024db6 .LASF4262
C:\Users\SOLDER~1\AppData\Local\Temp\ccfBhFEg.s:24836  .debug_str:000000000000ca03 .LASF4263
C:\Users\SOLDER~1\AppData\Local\Temp\ccfBhFEg.s:31294  .debug_str:0000000000026b93 .LASF4264
C:\Users\SOLDER~1\AppData\Local\Temp\ccfBhFEg.s:31592  .debug_str:0000000000027f24 .LASF4265
C:\Users\SOLDER~1\AppData\Local\Temp\ccfBhFEg.s:32416  .debug_str:000000000002b474 .LASF4266
C:\Users\SOLDER~1\AppData\Local\Temp\ccfBhFEg.s:31886  .debug_str:0000000000029241 .LASF4267
C:\Users\SOLDER~1\AppData\Local\Temp\ccfBhFEg.s:29080  .debug_str:000000000001dc64 .LASF4268
C:\Users\SOLDER~1\AppData\Local\Temp\ccfBhFEg.s:21964  .debug_str:0000000000001049 .LASF4269
C:\Users\SOLDER~1\AppData\Local\Temp\ccfBhFEg.s:30004  .debug_str:000000000002187a .LASF4270
C:\Users\SOLDER~1\AppData\Local\Temp\ccfBhFEg.s:23746  .debug_str:0000000000008333 .LASF4271
C:\Users\SOLDER~1\AppData\Local\Temp\ccfBhFEg.s:22976  .debug_str:00000000000050cc .LASF4272
C:\Users\SOLDER~1\AppData\Local\Temp\ccfBhFEg.s:31476  .debug_str:000000000002777d .LASF4273
C:\Users\SOLDER~1\AppData\Local\Temp\ccfBhFEg.s:21830  .debug_str:0000000000000734 .LASF4274
C:\Users\SOLDER~1\AppData\Local\Temp\ccfBhFEg.s:31070  .debug_str:0000000000025c8f .LASF4275
C:\Users\SOLDER~1\AppData\Local\Temp\ccfBhFEg.s:22772  .debug_str:0000000000004421 .LASF4276
C:\Users\SOLDER~1\AppData\Local\Temp\ccfBhFEg.s:25096  .debug_str:000000000000db39 .LASF4277
C:\Users\SOLDER~1\AppData\Local\Temp\ccfBhFEg.s:23788  .debug_str:00000000000085d2 .LASF4278
C:\Users\SOLDER~1\AppData\Local\Temp\ccfBhFEg.s:30132  .debug_str:0000000000022057 .LASF4279
C:\Users\SOLDER~1\AppData\Local\Temp\ccfBhFEg.s:25950  .debug_str:000000000001124b .LASF4280
C:\Users\SOLDER~1\AppData\Local\Temp\ccfBhFEg.s:21786  .debug_str:00000000000003cd .LASF4281
C:\Users\SOLDER~1\AppData\Local\Temp\ccfBhFEg.s:24064  .debug_str:00000000000097d3 .LASF4282
C:\Users\SOLDER~1\AppData\Local\Temp\ccfBhFEg.s:26814  .debug_str:0000000000014afe .LASF4283
C:\Users\SOLDER~1\AppData\Local\Temp\ccfBhFEg.s:23524  .debug_str:00000000000074c1 .LASF4284
C:\Users\SOLDER~1\AppData\Local\Temp\ccfBhFEg.s:24798  .debug_str:000000000000c76c .LASF4285
C:\Users\SOLDER~1\AppData\Local\Temp\ccfBhFEg.s:27814  .debug_str:0000000000018b5d .LASF4286
C:\Users\SOLDER~1\AppData\Local\Temp\ccfBhFEg.s:26724  .debug_str:00000000000144d7 .LASF4287
C:\Users\SOLDER~1\AppData\Local\Temp\ccfBhFEg.s:30194  .debug_str:0000000000022430 .LASF4288
C:\Users\SOLDER~1\AppData\Local\Temp\ccfBhFEg.s:29270  .debug_str:000000000001e878 .LASF4289
C:\Users\SOLDER~1\AppData\Local\Temp\ccfBhFEg.s:25954  .debug_str:0000000000011292 .LASF4290
C:\Users\SOLDER~1\AppData\Local\Temp\ccfBhFEg.s:27016  .debug_str:0000000000015880 .LASF4291
C:\Users\SOLDER~1\AppData\Local\Temp\ccfBhFEg.s:22022  .debug_str:0000000000001400 .LASF4292
C:\Users\SOLDER~1\AppData\Local\Temp\ccfBhFEg.s:28122  .debug_str:0000000000019f53 .LASF4293
C:\Users\SOLDER~1\AppData\Local\Temp\ccfBhFEg.s:28720  .debug_str:000000000001c4da .LASF4294
C:\Users\SOLDER~1\AppData\Local\Temp\ccfBhFEg.s:29916  .debug_str:0000000000021262 .LASF4295
C:\Users\SOLDER~1\AppData\Local\Temp\ccfBhFEg.s:31460  .debug_str:000000000002766c .LASF4296
C:\Users\SOLDER~1\AppData\Local\Temp\ccfBhFEg.s:25398  .debug_str:000000000000ee8d .LASF4297
C:\Users\SOLDER~1\AppData\Local\Temp\ccfBhFEg.s:26548  .debug_str:00000000000138a9 .LASF4298
C:\Users\SOLDER~1\AppData\Local\Temp\ccfBhFEg.s:23040  .debug_str:00000000000054b1 .LASF4299
C:\Users\SOLDER~1\AppData\Local\Temp\ccfBhFEg.s:25174  .debug_str:000000000000dffe .LASF4300
C:\Users\SOLDER~1\AppData\Local\Temp\ccfBhFEg.s:23874  .debug_str:0000000000008b6b .LASF4301
C:\Users\SOLDER~1\AppData\Local\Temp\ccfBhFEg.s:27730  .debug_str:0000000000018629 .LASF4302
C:\Users\SOLDER~1\AppData\Local\Temp\ccfBhFEg.s:33132  .debug_str:000000000002e31e .LASF4303
C:\Users\SOLDER~1\AppData\Local\Temp\ccfBhFEg.s:22238  .debug_str:00000000000021f5 .LASF4304
C:\Users\SOLDER~1\AppData\Local\Temp\ccfBhFEg.s:27132  .debug_str:0000000000015f7c .LASF4305
GAS LISTING C:\Users\SOLDER~1\AppData\Local\Temp\ccfBhFEg.s 			page 149


C:\Users\SOLDER~1\AppData\Local\Temp\ccfBhFEg.s:31258  .debug_str:000000000002695c .LASF4306
C:\Users\SOLDER~1\AppData\Local\Temp\ccfBhFEg.s:30962  .debug_str:00000000000255f3 .LASF4307
C:\Users\SOLDER~1\AppData\Local\Temp\ccfBhFEg.s:29440  .debug_str:000000000001f3b4 .LASF4308
C:\Users\SOLDER~1\AppData\Local\Temp\ccfBhFEg.s:33248  .debug_str:000000000002ea3d .LASF4309
C:\Users\SOLDER~1\AppData\Local\Temp\ccfBhFEg.s:24684  .debug_str:000000000000bfd8 .LASF4310
C:\Users\SOLDER~1\AppData\Local\Temp\ccfBhFEg.s:25702  .debug_str:0000000000010286 .LASF4311
C:\Users\SOLDER~1\AppData\Local\Temp\ccfBhFEg.s:23084  .debug_str:0000000000005765 .LASF4312
C:\Users\SOLDER~1\AppData\Local\Temp\ccfBhFEg.s:28610  .debug_str:000000000001bdbc .LASF4313
C:\Users\SOLDER~1\AppData\Local\Temp\ccfBhFEg.s:22096  .debug_str:00000000000018b6 .LASF4314
C:\Users\SOLDER~1\AppData\Local\Temp\ccfBhFEg.s:27302  .debug_str:0000000000016a3b .LASF4315
C:\Users\SOLDER~1\AppData\Local\Temp\ccfBhFEg.s:26912  .debug_str:00000000000151bf .LASF4316
C:\Users\SOLDER~1\AppData\Local\Temp\ccfBhFEg.s:23644  .debug_str:0000000000007c25 .LASF4317
C:\Users\SOLDER~1\AppData\Local\Temp\ccfBhFEg.s:27186  .debug_str:00000000000162ee .LASF4318
C:\Users\SOLDER~1\AppData\Local\Temp\ccfBhFEg.s:23212  .debug_str:0000000000005fbc .LASF4319
C:\Users\SOLDER~1\AppData\Local\Temp\ccfBhFEg.s:32618  .debug_str:000000000002c1a0 .LASF4320
C:\Users\SOLDER~1\AppData\Local\Temp\ccfBhFEg.s:31674  .debug_str:0000000000028477 .LASF4321
C:\Users\SOLDER~1\AppData\Local\Temp\ccfBhFEg.s:30152  .debug_str:000000000002218b .LASF4322
C:\Users\SOLDER~1\AppData\Local\Temp\ccfBhFEg.s:32830  .debug_str:000000000002cf64 .LASF4323
C:\Users\SOLDER~1\AppData\Local\Temp\ccfBhFEg.s:22184  .debug_str:0000000000001e92 .LASF4324
C:\Users\SOLDER~1\AppData\Local\Temp\ccfBhFEg.s:33210  .debug_str:000000000002e7f6 .LASF4325
C:\Users\SOLDER~1\AppData\Local\Temp\ccfBhFEg.s:26052  .debug_str:00000000000118a4 .LASF4326
C:\Users\SOLDER~1\AppData\Local\Temp\ccfBhFEg.s:23692  .debug_str:0000000000007f6f .LASF4327
C:\Users\SOLDER~1\AppData\Local\Temp\ccfBhFEg.s:33112  .debug_str:000000000002e1e0 .LASF4328
C:\Users\SOLDER~1\AppData\Local\Temp\ccfBhFEg.s:30356  .debug_str:0000000000022e2f .LASF4329
C:\Users\SOLDER~1\AppData\Local\Temp\ccfBhFEg.s:29572  .debug_str:000000000001fcaf .LASF4330
C:\Users\SOLDER~1\AppData\Local\Temp\ccfBhFEg.s:28782  .debug_str:000000000001c8fe .LASF4331
C:\Users\SOLDER~1\AppData\Local\Temp\ccfBhFEg.s:26494  .debug_str:00000000000134e4 .LASF4332
C:\Users\SOLDER~1\AppData\Local\Temp\ccfBhFEg.s:29582  .debug_str:000000000001fd48 .LASF4333
C:\Users\SOLDER~1\AppData\Local\Temp\ccfBhFEg.s:26294  .debug_str:00000000000127c9 .LASF4334
C:\Users\SOLDER~1\AppData\Local\Temp\ccfBhFEg.s:28894  .debug_str:000000000001d04b .LASF4335
C:\Users\SOLDER~1\AppData\Local\Temp\ccfBhFEg.s:28446  .debug_str:000000000001b3b4 .LASF4336
C:\Users\SOLDER~1\AppData\Local\Temp\ccfBhFEg.s:23284  .debug_str:00000000000064bd .LASF4337
C:\Users\SOLDER~1\AppData\Local\Temp\ccfBhFEg.s:29266  .debug_str:000000000001e83b .LASF4338
C:\Users\SOLDER~1\AppData\Local\Temp\ccfBhFEg.s:28136  .debug_str:0000000000019ff1 .LASF4339
C:\Users\SOLDER~1\AppData\Local\Temp\ccfBhFEg.s:28830  .debug_str:000000000001cc2a .LASF4340
C:\Users\SOLDER~1\AppData\Local\Temp\ccfBhFEg.s:27614  .debug_str:0000000000017e5f .LASF4341
C:\Users\SOLDER~1\AppData\Local\Temp\ccfBhFEg.s:29076  .debug_str:000000000001dc24 .LASF4342
C:\Users\SOLDER~1\AppData\Local\Temp\ccfBhFEg.s:27418  .debug_str:0000000000017123 .LASF4343
C:\Users\SOLDER~1\AppData\Local\Temp\ccfBhFEg.s:27514  .debug_str:00000000000177bc .LASF4344
C:\Users\SOLDER~1\AppData\Local\Temp\ccfBhFEg.s:30854  .debug_str:0000000000024ecd .LASF4345
C:\Users\SOLDER~1\AppData\Local\Temp\ccfBhFEg.s:26324  .debug_str:00000000000129f4 .LASF4346
C:\Users\SOLDER~1\AppData\Local\Temp\ccfBhFEg.s:22484  .debug_str:00000000000031b8 .LASF4347
C:\Users\SOLDER~1\AppData\Local\Temp\ccfBhFEg.s:30760  .debug_str:000000000002487e .LASF4348
C:\Users\SOLDER~1\AppData\Local\Temp\ccfBhFEg.s:32568  .debug_str:000000000002be58 .LASF4349
C:\Users\SOLDER~1\AppData\Local\Temp\ccfBhFEg.s:30396  .debug_str:00000000000230fb .LASF4350
C:\Users\SOLDER~1\AppData\Local\Temp\ccfBhFEg.s:25450  .debug_str:000000000000f1d6 .LASF4351
C:\Users\SOLDER~1\AppData\Local\Temp\ccfBhFEg.s:27256  .debug_str:0000000000016767 .LASF4352
C:\Users\SOLDER~1\AppData\Local\Temp\ccfBhFEg.s:22428  .debug_str:0000000000002dfe .LASF4353
C:\Users\SOLDER~1\AppData\Local\Temp\ccfBhFEg.s:28154  .debug_str:000000000001a12a .LASF4354
C:\Users\SOLDER~1\AppData\Local\Temp\ccfBhFEg.s:26492  .debug_str:00000000000134be .LASF4355
C:\Users\SOLDER~1\AppData\Local\Temp\ccfBhFEg.s:28522  .debug_str:000000000001b852 .LASF4356
C:\Users\SOLDER~1\AppData\Local\Temp\ccfBhFEg.s:30512  .debug_str:000000000002384f .LASF4357
C:\Users\SOLDER~1\AppData\Local\Temp\ccfBhFEg.s:25182  .debug_str:000000000000e073 .LASF4358
C:\Users\SOLDER~1\AppData\Local\Temp\ccfBhFEg.s:25558  .debug_str:000000000000f8ad .LASF4359
C:\Users\SOLDER~1\AppData\Local\Temp\ccfBhFEg.s:32532  .debug_str:000000000002bbf3 .LASF4360
C:\Users\SOLDER~1\AppData\Local\Temp\ccfBhFEg.s:22512  .debug_str:000000000000337e .LASF4361
C:\Users\SOLDER~1\AppData\Local\Temp\ccfBhFEg.s:24054  .debug_str:0000000000009752 .LASF4362
GAS LISTING C:\Users\SOLDER~1\AppData\Local\Temp\ccfBhFEg.s 			page 150


C:\Users\SOLDER~1\AppData\Local\Temp\ccfBhFEg.s:22796  .debug_str:0000000000004595 .LASF4363
C:\Users\SOLDER~1\AppData\Local\Temp\ccfBhFEg.s:24686  .debug_str:000000000000bff1 .LASF4364
C:\Users\SOLDER~1\AppData\Local\Temp\ccfBhFEg.s:24986  .debug_str:000000000000d402 .LASF4365
C:\Users\SOLDER~1\AppData\Local\Temp\ccfBhFEg.s:27550  .debug_str:0000000000017a39 .LASF4366
C:\Users\SOLDER~1\AppData\Local\Temp\ccfBhFEg.s:33270  .debug_str:000000000002eb93 .LASF4367
C:\Users\SOLDER~1\AppData\Local\Temp\ccfBhFEg.s:24792  .debug_str:000000000000c703 .LASF4368
C:\Users\SOLDER~1\AppData\Local\Temp\ccfBhFEg.s:30188  .debug_str:00000000000223c8 .LASF4369
C:\Users\SOLDER~1\AppData\Local\Temp\ccfBhFEg.s:31452  .debug_str:00000000000275f5 .LASF4370
C:\Users\SOLDER~1\AppData\Local\Temp\ccfBhFEg.s:27542  .debug_str:00000000000179a2 .LASF4371
C:\Users\SOLDER~1\AppData\Local\Temp\ccfBhFEg.s:25144  .debug_str:000000000000ddfd .LASF4372
C:\Users\SOLDER~1\AppData\Local\Temp\ccfBhFEg.s:24962  .debug_str:000000000000d266 .LASF4373
C:\Users\SOLDER~1\AppData\Local\Temp\ccfBhFEg.s:31500  .debug_str:0000000000027928 .LASF4374
C:\Users\SOLDER~1\AppData\Local\Temp\ccfBhFEg.s:28004  .debug_str:00000000000197ac .LASF4375
C:\Users\SOLDER~1\AppData\Local\Temp\ccfBhFEg.s:26848  .debug_str:0000000000014d74 .LASF4376
C:\Users\SOLDER~1\AppData\Local\Temp\ccfBhFEg.s:28278  .debug_str:000000000001a8be .LASF4377
C:\Users\SOLDER~1\AppData\Local\Temp\ccfBhFEg.s:25030  .debug_str:000000000000d6d2 .LASF4378
C:\Users\SOLDER~1\AppData\Local\Temp\ccfBhFEg.s:29054  .debug_str:000000000001daf0 .LASF4379
C:\Users\SOLDER~1\AppData\Local\Temp\ccfBhFEg.s:30882  .debug_str:000000000002507a .LASF4380
C:\Users\SOLDER~1\AppData\Local\Temp\ccfBhFEg.s:23940  .debug_str:0000000000008fea .LASF4381
C:\Users\SOLDER~1\AppData\Local\Temp\ccfBhFEg.s:24334  .debug_str:000000000000a99f .LASF4382
C:\Users\SOLDER~1\AppData\Local\Temp\ccfBhFEg.s:24924  .debug_str:000000000000cfe1 .LASF4383
C:\Users\SOLDER~1\AppData\Local\Temp\ccfBhFEg.s:32028  .debug_str:0000000000029b5d .LASF4384
C:\Users\SOLDER~1\AppData\Local\Temp\ccfBhFEg.s:28538  .debug_str:000000000001b949 .LASF4385
C:\Users\SOLDER~1\AppData\Local\Temp\ccfBhFEg.s:26502  .debug_str:0000000000013593 .LASF4386
C:\Users\SOLDER~1\AppData\Local\Temp\ccfBhFEg.s:21882  .debug_str:0000000000000ad9 .LASF4387
C:\Users\SOLDER~1\AppData\Local\Temp\ccfBhFEg.s:23908  .debug_str:0000000000008d94 .LASF4388
C:\Users\SOLDER~1\AppData\Local\Temp\ccfBhFEg.s:26746  .debug_str:0000000000014695 .LASF4389
C:\Users\SOLDER~1\AppData\Local\Temp\ccfBhFEg.s:22816  .debug_str:00000000000046d8 .LASF4390
C:\Users\SOLDER~1\AppData\Local\Temp\ccfBhFEg.s:22872  .debug_str:0000000000004a78 .LASF4391
C:\Users\SOLDER~1\AppData\Local\Temp\ccfBhFEg.s:33024  .debug_str:000000000002dc39 .LASF4392
C:\Users\SOLDER~1\AppData\Local\Temp\ccfBhFEg.s:27868  .debug_str:0000000000018eb4 .LASF4393
C:\Users\SOLDER~1\AppData\Local\Temp\ccfBhFEg.s:33152  .debug_str:000000000002e488 .LASF4394
C:\Users\SOLDER~1\AppData\Local\Temp\ccfBhFEg.s:27294  .debug_str:00000000000169b7 .LASF4395
C:\Users\SOLDER~1\AppData\Local\Temp\ccfBhFEg.s:25012  .debug_str:000000000000d5a0 .LASF4396
C:\Users\SOLDER~1\AppData\Local\Temp\ccfBhFEg.s:24574  .debug_str:000000000000b8f4 .LASF4397
C:\Users\SOLDER~1\AppData\Local\Temp\ccfBhFEg.s:31782  .debug_str:0000000000028b81 .LASF4398
C:\Users\SOLDER~1\AppData\Local\Temp\ccfBhFEg.s:22992  .debug_str:00000000000051aa .LASF4399
C:\Users\SOLDER~1\AppData\Local\Temp\ccfBhFEg.s:26656  .debug_str:000000000001405c .LASF4400
C:\Users\SOLDER~1\AppData\Local\Temp\ccfBhFEg.s:28172  .debug_str:000000000001a258 .LASF4401
C:\Users\SOLDER~1\AppData\Local\Temp\ccfBhFEg.s:28092  .debug_str:0000000000019d9e .LASF4402
C:\Users\SOLDER~1\AppData\Local\Temp\ccfBhFEg.s:28962  .debug_str:000000000001d4b4 .LASF4403
C:\Users\SOLDER~1\AppData\Local\Temp\ccfBhFEg.s:26714  .debug_str:0000000000014429 .LASF4404
C:\Users\SOLDER~1\AppData\Local\Temp\ccfBhFEg.s:30226  .debug_str:0000000000022624 .LASF4405
C:\Users\SOLDER~1\AppData\Local\Temp\ccfBhFEg.s:31076  .debug_str:0000000000025cf1 .LASF4406
C:\Users\SOLDER~1\AppData\Local\Temp\ccfBhFEg.s:25826  .debug_str:0000000000010a4e .LASF4407
C:\Users\SOLDER~1\AppData\Local\Temp\ccfBhFEg.s:27328  .debug_str:0000000000016ba4 .LASF4408
C:\Users\SOLDER~1\AppData\Local\Temp\ccfBhFEg.s:30080  .debug_str:0000000000021d1e .LASF4409
C:\Users\SOLDER~1\AppData\Local\Temp\ccfBhFEg.s:27672  .debug_str:0000000000018213 .LASF4410
C:\Users\SOLDER~1\AppData\Local\Temp\ccfBhFEg.s:30822  .debug_str:0000000000024cad .LASF4411
C:\Users\SOLDER~1\AppData\Local\Temp\ccfBhFEg.s:30658  .debug_str:00000000000241cb .LASF4412
C:\Users\SOLDER~1\AppData\Local\Temp\ccfBhFEg.s:31192  .debug_str:00000000000264e4 .LASF4413
C:\Users\SOLDER~1\AppData\Local\Temp\ccfBhFEg.s:25820  .debug_str:00000000000109f9 .LASF4414
C:\Users\SOLDER~1\AppData\Local\Temp\ccfBhFEg.s:25872  .debug_str:0000000000010d7f .LASF4415
C:\Users\SOLDER~1\AppData\Local\Temp\ccfBhFEg.s:22316  .debug_str:00000000000026f3 .LASF4416
C:\Users\SOLDER~1\AppData\Local\Temp\ccfBhFEg.s:27454  .debug_str:0000000000017372 .LASF4417
C:\Users\SOLDER~1\AppData\Local\Temp\ccfBhFEg.s:22692  .debug_str:0000000000003f17 .LASF4418
C:\Users\SOLDER~1\AppData\Local\Temp\ccfBhFEg.s:22320  .debug_str:000000000000273a .LASF4419
GAS LISTING C:\Users\SOLDER~1\AppData\Local\Temp\ccfBhFEg.s 			page 151


C:\Users\SOLDER~1\AppData\Local\Temp\ccfBhFEg.s:24268  .debug_str:000000000000a4fc .LASF4420
C:\Users\SOLDER~1\AppData\Local\Temp\ccfBhFEg.s:28982  .debug_str:000000000001d5dd .LASF4421
C:\Users\SOLDER~1\AppData\Local\Temp\ccfBhFEg.s:28110  .debug_str:0000000000019ea7 .LASF4422
C:\Users\SOLDER~1\AppData\Local\Temp\ccfBhFEg.s:26202  .debug_str:0000000000012224 .LASF4423
C:\Users\SOLDER~1\AppData\Local\Temp\ccfBhFEg.s:29136  .debug_str:000000000001dfb7 .LASF4424
C:\Users\SOLDER~1\AppData\Local\Temp\ccfBhFEg.s:23202  .debug_str:0000000000005f19 .LASF4425
C:\Users\SOLDER~1\AppData\Local\Temp\ccfBhFEg.s:26834  .debug_str:0000000000014c54 .LASF4426
C:\Users\SOLDER~1\AppData\Local\Temp\ccfBhFEg.s:23346  .debug_str:000000000000692d .LASF4427
C:\Users\SOLDER~1\AppData\Local\Temp\ccfBhFEg.s:33350  .debug_str:000000000002f100 .LASF4428
C:\Users\SOLDER~1\AppData\Local\Temp\ccfBhFEg.s:28368  .debug_str:000000000001ae9d .LASF4429
C:\Users\SOLDER~1\AppData\Local\Temp\ccfBhFEg.s:33072  .debug_str:000000000002df71 .LASF4430
C:\Users\SOLDER~1\AppData\Local\Temp\ccfBhFEg.s:32082  .debug_str:0000000000029ec8 .LASF4431
C:\Users\SOLDER~1\AppData\Local\Temp\ccfBhFEg.s:28116  .debug_str:0000000000019f12 .LASF4432
C:\Users\SOLDER~1\AppData\Local\Temp\ccfBhFEg.s:28380  .debug_str:000000000001af3c .LASF4433
C:\Users\SOLDER~1\AppData\Local\Temp\ccfBhFEg.s:26064  .debug_str:0000000000011984 .LASF4434
C:\Users\SOLDER~1\AppData\Local\Temp\ccfBhFEg.s:32884  .debug_str:000000000002d2e8 .LASF4435
C:\Users\SOLDER~1\AppData\Local\Temp\ccfBhFEg.s:28086  .debug_str:0000000000019d4f .LASF4436
C:\Users\SOLDER~1\AppData\Local\Temp\ccfBhFEg.s:31758  .debug_str:00000000000289ff .LASF4437
C:\Users\SOLDER~1\AppData\Local\Temp\ccfBhFEg.s:30394  .debug_str:00000000000230e7 .LASF4438
C:\Users\SOLDER~1\AppData\Local\Temp\ccfBhFEg.s:25590  .debug_str:000000000000fabb .LASF4439
C:\Users\SOLDER~1\AppData\Local\Temp\ccfBhFEg.s:31034  .debug_str:0000000000025a65 .LASF4440
C:\Users\SOLDER~1\AppData\Local\Temp\ccfBhFEg.s:27400  .debug_str:000000000001703c .LASF4441
C:\Users\SOLDER~1\AppData\Local\Temp\ccfBhFEg.s:31836  .debug_str:0000000000028f1f .LASF4442
C:\Users\SOLDER~1\AppData\Local\Temp\ccfBhFEg.s:27304  .debug_str:0000000000016a5d .LASF4443
C:\Users\SOLDER~1\AppData\Local\Temp\ccfBhFEg.s:24698  .debug_str:000000000000c0a7 .LASF4444
C:\Users\SOLDER~1\AppData\Local\Temp\ccfBhFEg.s:27088  .debug_str:0000000000015ccf .LASF4445
C:\Users\SOLDER~1\AppData\Local\Temp\ccfBhFEg.s:27870  .debug_str:0000000000018ed4 .LASF4446
C:\Users\SOLDER~1\AppData\Local\Temp\ccfBhFEg.s:24900  .debug_str:000000000000ce53 .LASF4447
C:\Users\SOLDER~1\AppData\Local\Temp\ccfBhFEg.s:28700  .debug_str:000000000001c38c .LASF4448
C:\Users\SOLDER~1\AppData\Local\Temp\ccfBhFEg.s:30216  .debug_str:0000000000022588 .LASF4449
C:\Users\SOLDER~1\AppData\Local\Temp\ccfBhFEg.s:31932  .debug_str:000000000002951d .LASF4450
C:\Users\SOLDER~1\AppData\Local\Temp\ccfBhFEg.s:29960  .debug_str:0000000000021564 .LASF4451
C:\Users\SOLDER~1\AppData\Local\Temp\ccfBhFEg.s:28472  .debug_str:000000000001b552 .LASF4452
C:\Users\SOLDER~1\AppData\Local\Temp\ccfBhFEg.s:26590  .debug_str:0000000000013b77 .LASF4453
C:\Users\SOLDER~1\AppData\Local\Temp\ccfBhFEg.s:28946  .debug_str:000000000001d3b6 .LASF4454
C:\Users\SOLDER~1\AppData\Local\Temp\ccfBhFEg.s:26228  .debug_str:00000000000123d8 .LASF4455
C:\Users\SOLDER~1\AppData\Local\Temp\ccfBhFEg.s:31368  .debug_str:0000000000027096 .LASF4456
C:\Users\SOLDER~1\AppData\Local\Temp\ccfBhFEg.s:25682  .debug_str:000000000001014d .LASF4457
C:\Users\SOLDER~1\AppData\Local\Temp\ccfBhFEg.s:32190  .debug_str:000000000002a5f3 .LASF4458
C:\Users\SOLDER~1\AppData\Local\Temp\ccfBhFEg.s:31066  .debug_str:0000000000025c52 .LASF4459
C:\Users\SOLDER~1\AppData\Local\Temp\ccfBhFEg.s:32116  .debug_str:000000000002a0e8 .LASF4460
C:\Users\SOLDER~1\AppData\Local\Temp\ccfBhFEg.s:26126  .debug_str:0000000000011d6b .LASF4461
C:\Users\SOLDER~1\AppData\Local\Temp\ccfBhFEg.s:27464  .debug_str:000000000001742d .LASF4462
C:\Users\SOLDER~1\AppData\Local\Temp\ccfBhFEg.s:28304  .debug_str:000000000001aa9c .LASF4463
C:\Users\SOLDER~1\AppData\Local\Temp\ccfBhFEg.s:30646  .debug_str:00000000000240fa .LASF4464
C:\Users\SOLDER~1\AppData\Local\Temp\ccfBhFEg.s:28674  .debug_str:000000000001c1b2 .LASF4465
C:\Users\SOLDER~1\AppData\Local\Temp\ccfBhFEg.s:28276  .debug_str:000000000001a8a7 .LASF4466
C:\Users\SOLDER~1\AppData\Local\Temp\ccfBhFEg.s:27976  .debug_str:0000000000019604 .LASF4467
C:\Users\SOLDER~1\AppData\Local\Temp\ccfBhFEg.s:28854  .debug_str:000000000001cd9e .LASF4468
C:\Users\SOLDER~1\AppData\Local\Temp\ccfBhFEg.s:27378  .debug_str:0000000000016ed6 .LASF4469
C:\Users\SOLDER~1\AppData\Local\Temp\ccfBhFEg.s:31838  .debug_str:0000000000028f30 .LASF4470
C:\Users\SOLDER~1\AppData\Local\Temp\ccfBhFEg.s:32606  .debug_str:000000000002c0df .LASF4471
C:\Users\SOLDER~1\AppData\Local\Temp\ccfBhFEg.s:22928  .debug_str:0000000000004df3 .LASF4472
C:\Users\SOLDER~1\AppData\Local\Temp\ccfBhFEg.s:33000  .debug_str:000000000002dad9 .LASF4473
C:\Users\SOLDER~1\AppData\Local\Temp\ccfBhFEg.s:25750  .debug_str:0000000000010563 .LASF4474
C:\Users\SOLDER~1\AppData\Local\Temp\ccfBhFEg.s:32278  .debug_str:000000000002ab9d .LASF4475
C:\Users\SOLDER~1\AppData\Local\Temp\ccfBhFEg.s:27546  .debug_str:00000000000179fe .LASF4476
GAS LISTING C:\Users\SOLDER~1\AppData\Local\Temp\ccfBhFEg.s 			page 152


C:\Users\SOLDER~1\AppData\Local\Temp\ccfBhFEg.s:29146  .debug_str:000000000001e057 .LASF4477
C:\Users\SOLDER~1\AppData\Local\Temp\ccfBhFEg.s:31480  .debug_str:00000000000277b7 .LASF4478
C:\Users\SOLDER~1\AppData\Local\Temp\ccfBhFEg.s:30174  .debug_str:00000000000222f5 .LASF4479
C:\Users\SOLDER~1\AppData\Local\Temp\ccfBhFEg.s:30096  .debug_str:0000000000021e1e .LASF4480
C:\Users\SOLDER~1\AppData\Local\Temp\ccfBhFEg.s:26086  .debug_str:0000000000011ab8 .LASF4481
C:\Users\SOLDER~1\AppData\Local\Temp\ccfBhFEg.s:33170  .debug_str:000000000002e5c0 .LASF4482
C:\Users\SOLDER~1\AppData\Local\Temp\ccfBhFEg.s:24288  .debug_str:000000000000a63d .LASF4483
C:\Users\SOLDER~1\AppData\Local\Temp\ccfBhFEg.s:32176  .debug_str:000000000002a4fc .LASF4484
C:\Users\SOLDER~1\AppData\Local\Temp\ccfBhFEg.s:23408  .debug_str:0000000000006ceb .LASF4485
C:\Users\SOLDER~1\AppData\Local\Temp\ccfBhFEg.s:28588  .debug_str:000000000001bc84 .LASF4486
C:\Users\SOLDER~1\AppData\Local\Temp\ccfBhFEg.s:32944  .debug_str:000000000002d70e .LASF4487
C:\Users\SOLDER~1\AppData\Local\Temp\ccfBhFEg.s:32510  .debug_str:000000000002ba95 .LASF4488
C:\Users\SOLDER~1\AppData\Local\Temp\ccfBhFEg.s:28484  .debug_str:000000000001b5e9 .LASF4489
C:\Users\SOLDER~1\AppData\Local\Temp\ccfBhFEg.s:26580  .debug_str:0000000000013ae7 .LASF4490
C:\Users\SOLDER~1\AppData\Local\Temp\ccfBhFEg.s:27166  .debug_str:00000000000161a6 .LASF4491
C:\Users\SOLDER~1\AppData\Local\Temp\ccfBhFEg.s:26336  .debug_str:0000000000012aac .LASF4492
C:\Users\SOLDER~1\AppData\Local\Temp\ccfBhFEg.s:32356  .debug_str:000000000002b08b .LASF4493
C:\Users\SOLDER~1\AppData\Local\Temp\ccfBhFEg.s:27476  .debug_str:00000000000174e9 .LASF4494
C:\Users\SOLDER~1\AppData\Local\Temp\ccfBhFEg.s:31092  .debug_str:0000000000025e0b .LASF4495
C:\Users\SOLDER~1\AppData\Local\Temp\ccfBhFEg.s:27612  .debug_str:0000000000017e26 .LASF4496
C:\Users\SOLDER~1\AppData\Local\Temp\ccfBhFEg.s:29828  .debug_str:0000000000020cc6 .LASF4497
C:\Users\SOLDER~1\AppData\Local\Temp\ccfBhFEg.s:33028  .debug_str:000000000002dc68 .LASF4498
C:\Users\SOLDER~1\AppData\Local\Temp\ccfBhFEg.s:26858  .debug_str:0000000000014e10 .LASF4499
C:\Users\SOLDER~1\AppData\Local\Temp\ccfBhFEg.s:28030  .debug_str:000000000001996b .LASF4500
C:\Users\SOLDER~1\AppData\Local\Temp\ccfBhFEg.s:29222  .debug_str:000000000001e563 .LASF4501
C:\Users\SOLDER~1\AppData\Local\Temp\ccfBhFEg.s:30318  .debug_str:0000000000022bb8 .LASF4502
C:\Users\SOLDER~1\AppData\Local\Temp\ccfBhFEg.s:28746  .debug_str:000000000001c68d .LASF4503
C:\Users\SOLDER~1\AppData\Local\Temp\ccfBhFEg.s:31574  .debug_str:0000000000027ded .LASF4504
C:\Users\SOLDER~1\AppData\Local\Temp\ccfBhFEg.s:30362  .debug_str:0000000000022e94 .LASF4505
C:\Users\SOLDER~1\AppData\Local\Temp\ccfBhFEg.s:22146  .debug_str:0000000000001bf2 .LASF4506
C:\Users\SOLDER~1\AppData\Local\Temp\ccfBhFEg.s:31122  .debug_str:000000000002601c .LASF4507
C:\Users\SOLDER~1\AppData\Local\Temp\ccfBhFEg.s:23312  .debug_str:0000000000006683 .LASF4508
C:\Users\SOLDER~1\AppData\Local\Temp\ccfBhFEg.s:26042  .debug_str:00000000000117d7 .LASF4509
C:\Users\SOLDER~1\AppData\Local\Temp\ccfBhFEg.s:28554  .debug_str:000000000001ba67 .LASF4510
C:\Users\SOLDER~1\AppData\Local\Temp\ccfBhFEg.s:22686  .debug_str:0000000000003eaf .LASF4511
C:\Users\SOLDER~1\AppData\Local\Temp\ccfBhFEg.s:30092  .debug_str:0000000000021de7 .LASF4512
C:\Users\SOLDER~1\AppData\Local\Temp\ccfBhFEg.s:30170  .debug_str:00000000000222bf .LASF4513
C:\Users\SOLDER~1\AppData\Local\Temp\ccfBhFEg.s:29680  .debug_str:0000000000020357 .LASF4514
C:\Users\SOLDER~1\AppData\Local\Temp\ccfBhFEg.s:24144  .debug_str:0000000000009cf5 .LASF4515
C:\Users\SOLDER~1\AppData\Local\Temp\ccfBhFEg.s:27022  .debug_str:00000000000158f0 .LASF4516
C:\Users\SOLDER~1\AppData\Local\Temp\ccfBhFEg.s:29530  .debug_str:000000000001f9b2 .LASF4517
C:\Users\SOLDER~1\AppData\Local\Temp\ccfBhFEg.s:33402  .debug_str:000000000002f40e .LASF4518
C:\Users\SOLDER~1\AppData\Local\Temp\ccfBhFEg.s:29274  .debug_str:000000000001e8b3 .LASF4519
C:\Users\SOLDER~1\AppData\Local\Temp\ccfBhFEg.s:22014  .debug_str:0000000000001367 .LASF4520
C:\Users\SOLDER~1\AppData\Local\Temp\ccfBhFEg.s:28628  .debug_str:000000000001bec4 .LASF4521
C:\Users\SOLDER~1\AppData\Local\Temp\ccfBhFEg.s:24896  .debug_str:000000000000ce17 .LASF4522
C:\Users\SOLDER~1\AppData\Local\Temp\ccfBhFEg.s:31004  .debug_str:000000000002585d .LASF4523
C:\Users\SOLDER~1\AppData\Local\Temp\ccfBhFEg.s:25088  .debug_str:000000000000dab6 .LASF4524
C:\Users\SOLDER~1\AppData\Local\Temp\ccfBhFEg.s:32578  .debug_str:000000000002befe .LASF4525
C:\Users\SOLDER~1\AppData\Local\Temp\ccfBhFEg.s:27958  .debug_str:00000000000194cd .LASF4526
C:\Users\SOLDER~1\AppData\Local\Temp\ccfBhFEg.s:26948  .debug_str:00000000000153d8 .LASF4527
C:\Users\SOLDER~1\AppData\Local\Temp\ccfBhFEg.s:30952  .debug_str:0000000000025561 .LASF4528
C:\Users\SOLDER~1\AppData\Local\Temp\ccfBhFEg.s:32448  .debug_str:000000000002b675 .LASF4529
C:\Users\SOLDER~1\AppData\Local\Temp\ccfBhFEg.s:24566  .debug_str:000000000000b888 .LASF4530
C:\Users\SOLDER~1\AppData\Local\Temp\ccfBhFEg.s:30886  .debug_str:00000000000250bd .LASF4531
C:\Users\SOLDER~1\AppData\Local\Temp\ccfBhFEg.s:23990  .debug_str:000000000000930b .LASF4532
C:\Users\SOLDER~1\AppData\Local\Temp\ccfBhFEg.s:28996  .debug_str:000000000001d6f5 .LASF4533
GAS LISTING C:\Users\SOLDER~1\AppData\Local\Temp\ccfBhFEg.s 			page 153


C:\Users\SOLDER~1\AppData\Local\Temp\ccfBhFEg.s:31190  .debug_str:00000000000264ab .LASF4534
C:\Users\SOLDER~1\AppData\Local\Temp\ccfBhFEg.s:32668  .debug_str:000000000002c4e4 .LASF4535
C:\Users\SOLDER~1\AppData\Local\Temp\ccfBhFEg.s:27282  .debug_str:00000000000168fa .LASF4536
C:\Users\SOLDER~1\AppData\Local\Temp\ccfBhFEg.s:22880  .debug_str:0000000000004aef .LASF4537
C:\Users\SOLDER~1\AppData\Local\Temp\ccfBhFEg.s:25512  .debug_str:000000000000f5a5 .LASF4538
C:\Users\SOLDER~1\AppData\Local\Temp\ccfBhFEg.s:26512  .debug_str:0000000000013637 .LASF4539
C:\Users\SOLDER~1\AppData\Local\Temp\ccfBhFEg.s:28852  .debug_str:000000000001cd63 .LASF4540
C:\Users\SOLDER~1\AppData\Local\Temp\ccfBhFEg.s:28820  .debug_str:000000000001cb4b .LASF4541
C:\Users\SOLDER~1\AppData\Local\Temp\ccfBhFEg.s:26726  .debug_str:00000000000144f9 .LASF4542
C:\Users\SOLDER~1\AppData\Local\Temp\ccfBhFEg.s:32722  .debug_str:000000000002c8b2 .LASF4543
C:\Users\SOLDER~1\AppData\Local\Temp\ccfBhFEg.s:32694  .debug_str:000000000002c6ae .LASF4544
C:\Users\SOLDER~1\AppData\Local\Temp\ccfBhFEg.s:30890  .debug_str:0000000000025119 .LASF4545
C:\Users\SOLDER~1\AppData\Local\Temp\ccfBhFEg.s:25238  .debug_str:000000000000e448 .LASF4546
C:\Users\SOLDER~1\AppData\Local\Temp\ccfBhFEg.s:23316  .debug_str:00000000000066e1 .LASF4547
C:\Users\SOLDER~1\AppData\Local\Temp\ccfBhFEg.s:23378  .debug_str:0000000000006b20 .LASF4548
C:\Users\SOLDER~1\AppData\Local\Temp\ccfBhFEg.s:26484  .debug_str:000000000001344a .LASF4549
C:\Users\SOLDER~1\AppData\Local\Temp\ccfBhFEg.s:28298  .debug_str:000000000001aa44 .LASF4550
C:\Users\SOLDER~1\AppData\Local\Temp\ccfBhFEg.s:28716  .debug_str:000000000001c4b0 .LASF4551
C:\Users\SOLDER~1\AppData\Local\Temp\ccfBhFEg.s:31112  .debug_str:0000000000025f7b .LASF4552
C:\Users\SOLDER~1\AppData\Local\Temp\ccfBhFEg.s:32040  .debug_str:0000000000029c3d .LASF4553
C:\Users\SOLDER~1\AppData\Local\Temp\ccfBhFEg.s:21738  .debug_str:000000000000010b .LASF4554
C:\Users\SOLDER~1\AppData\Local\Temp\ccfBhFEg.s:30158  .debug_str:00000000000221e2 .LASF4555
C:\Users\SOLDER~1\AppData\Local\Temp\ccfBhFEg.s:29900  .debug_str:000000000002117d .LASF4556
C:\Users\SOLDER~1\AppData\Local\Temp\ccfBhFEg.s:27654  .debug_str:00000000000180f3 .LASF4557
C:\Users\SOLDER~1\AppData\Local\Temp\ccfBhFEg.s:32558  .debug_str:000000000002bdb5 .LASF4558
C:\Users\SOLDER~1\AppData\Local\Temp\ccfBhFEg.s:25724  .debug_str:00000000000103da .LASF4559
C:\Users\SOLDER~1\AppData\Local\Temp\ccfBhFEg.s:25822  .debug_str:0000000000010a1a .LASF4560
C:\Users\SOLDER~1\AppData\Local\Temp\ccfBhFEg.s:27812  .debug_str:0000000000018b4e .LASF4561
C:\Users\SOLDER~1\AppData\Local\Temp\ccfBhFEg.s:26076  .debug_str:0000000000011a3e .LASF4562
C:\Users\SOLDER~1\AppData\Local\Temp\ccfBhFEg.s:25794  .debug_str:0000000000010887 .LASF4563
C:\Users\SOLDER~1\AppData\Local\Temp\ccfBhFEg.s:28120  .debug_str:0000000000019f40 .LASF4564
C:\Users\SOLDER~1\AppData\Local\Temp\ccfBhFEg.s:23550  .debug_str:0000000000007658 .LASF4565
C:\Users\SOLDER~1\AppData\Local\Temp\ccfBhFEg.s:22836  .debug_str:000000000000482c .LASF4566
C:\Users\SOLDER~1\AppData\Local\Temp\ccfBhFEg.s:26244  .debug_str:00000000000124d2 .LASF4567
C:\Users\SOLDER~1\AppData\Local\Temp\ccfBhFEg.s:31530  .debug_str:0000000000027b2a .LASF4568
C:\Users\SOLDER~1\AppData\Local\Temp\ccfBhFEg.s:27244  .debug_str:00000000000166a8 .LASF4569
C:\Users\SOLDER~1\AppData\Local\Temp\ccfBhFEg.s:28976  .debug_str:000000000001d582 .LASF4570
C:\Users\SOLDER~1\AppData\Local\Temp\ccfBhFEg.s:29166  .debug_str:000000000001e1b6 .LASF4571
C:\Users\SOLDER~1\AppData\Local\Temp\ccfBhFEg.s:25960  .debug_str:00000000000112ed .LASF4572
C:\Users\SOLDER~1\AppData\Local\Temp\ccfBhFEg.s:27572  .debug_str:0000000000017bb0 .LASF4573
C:\Users\SOLDER~1\AppData\Local\Temp\ccfBhFEg.s:32562  .debug_str:000000000002be02 .LASF4574
C:\Users\SOLDER~1\AppData\Local\Temp\ccfBhFEg.s:29158  .debug_str:000000000001e128 .LASF4575
C:\Users\SOLDER~1\AppData\Local\Temp\ccfBhFEg.s:22292  .debug_str:000000000000258a .LASF4576
C:\Users\SOLDER~1\AppData\Local\Temp\ccfBhFEg.s:24388  .debug_str:000000000000ad28 .LASF4577
C:\Users\SOLDER~1\AppData\Local\Temp\ccfBhFEg.s:24344  .debug_str:000000000000aa3b .LASF4578
C:\Users\SOLDER~1\AppData\Local\Temp\ccfBhFEg.s:28728  .debug_str:000000000001c566 .LASF4579
C:\Users\SOLDER~1\AppData\Local\Temp\ccfBhFEg.s:25874  .debug_str:0000000000010d9f .LASF4580
C:\Users\SOLDER~1\AppData\Local\Temp\ccfBhFEg.s:28642  .debug_str:000000000001bfc2 .LASF4581
C:\Users\SOLDER~1\AppData\Local\Temp\ccfBhFEg.s:31584  .debug_str:0000000000027e98 .LASF4582
C:\Users\SOLDER~1\AppData\Local\Temp\ccfBhFEg.s:24726  .debug_str:000000000000c251 .LASF4583
C:\Users\SOLDER~1\AppData\Local\Temp\ccfBhFEg.s:23572  .debug_str:00000000000077b4 .LASF4584
C:\Users\SOLDER~1\AppData\Local\Temp\ccfBhFEg.s:27642  .debug_str:0000000000018024 .LASF4585
C:\Users\SOLDER~1\AppData\Local\Temp\ccfBhFEg.s:30816  .debug_str:0000000000024c4b .LASF4586
C:\Users\SOLDER~1\AppData\Local\Temp\ccfBhFEg.s:23092  .debug_str:0000000000005802 .LASF4587
C:\Users\SOLDER~1\AppData\Local\Temp\ccfBhFEg.s:23672  .debug_str:0000000000007e27 .LASF4588
C:\Users\SOLDER~1\AppData\Local\Temp\ccfBhFEg.s:23884  .debug_str:0000000000008c11 .LASF4589
C:\Users\SOLDER~1\AppData\Local\Temp\ccfBhFEg.s:29304  .debug_str:000000000001eaae .LASF4590
GAS LISTING C:\Users\SOLDER~1\AppData\Local\Temp\ccfBhFEg.s 			page 154


C:\Users\SOLDER~1\AppData\Local\Temp\ccfBhFEg.s:32864  .debug_str:000000000002d195 .LASF4591
C:\Users\SOLDER~1\AppData\Local\Temp\ccfBhFEg.s:23590  .debug_str:000000000000789e .LASF4594
C:\Users\SOLDER~1\AppData\Local\Temp\ccfBhFEg.s:28338  .debug_str:000000000001aca7 .LASF4595
C:\Users\SOLDER~1\AppData\Local\Temp\ccfBhFEg.s:26604  .debug_str:0000000000013c92 .LASF4596
C:\Users\SOLDER~1\AppData\Local\Temp\ccfBhFEg.s:23344  .debug_str:00000000000068f6 .LASF4597
C:\Users\SOLDER~1\AppData\Local\Temp\ccfBhFEg.s:30104  .debug_str:0000000000021e79 .LASF4598
C:\Users\SOLDER~1\AppData\Local\Temp\ccfBhFEg.s:27008  .debug_str:00000000000157ee .LASF4599
C:\Users\SOLDER~1\AppData\Local\Temp\ccfBhFEg.s:32472  .debug_str:000000000002b85f .LASF4600
C:\Users\SOLDER~1\AppData\Local\Temp\ccfBhFEg.s:27358  .debug_str:0000000000016d97 .LASF4601
C:\Users\SOLDER~1\AppData\Local\Temp\ccfBhFEg.s:24938  .debug_str:000000000000d0c3 .LASF4602
C:\Users\SOLDER~1\AppData\Local\Temp\ccfBhFEg.s:26728  .debug_str:0000000000014533 .LASF4603
C:\Users\SOLDER~1\AppData\Local\Temp\ccfBhFEg.s:25594  .debug_str:000000000000faf1 .LASF4604
C:\Users\SOLDER~1\AppData\Local\Temp\ccfBhFEg.s:32184  .debug_str:000000000002a56f .LASF4605
C:\Users\SOLDER~1\AppData\Local\Temp\ccfBhFEg.s:33302  .debug_str:000000000002ed9c .LASF4606
C:\Users\SOLDER~1\AppData\Local\Temp\ccfBhFEg.s:30656  .debug_str:0000000000024197 .LASF4607
C:\Users\SOLDER~1\AppData\Local\Temp\ccfBhFEg.s:24278  .debug_str:000000000000a596 .LASF4608
C:\Users\SOLDER~1\AppData\Local\Temp\ccfBhFEg.s:26496  .debug_str:00000000000134fc .LASF4609
C:\Users\SOLDER~1\AppData\Local\Temp\ccfBhFEg.s:30640  .debug_str:000000000002407d .LASF4610
C:\Users\SOLDER~1\AppData\Local\Temp\ccfBhFEg.s:23440  .debug_str:0000000000006f18 .LASF4611
C:\Users\SOLDER~1\AppData\Local\Temp\ccfBhFEg.s:29554  .debug_str:000000000001fb89 .LASF4612
C:\Users\SOLDER~1\AppData\Local\Temp\ccfBhFEg.s:22672  .debug_str:0000000000003dbc .LASF4613
C:\Users\SOLDER~1\AppData\Local\Temp\ccfBhFEg.s:31300  .debug_str:0000000000026bef .LASF4614
C:\Users\SOLDER~1\AppData\Local\Temp\ccfBhFEg.s:23872  .debug_str:0000000000008b37 .LASF4615
C:\Users\SOLDER~1\AppData\Local\Temp\ccfBhFEg.s:31356  .debug_str:0000000000026fa0 .LASF4616
C:\Users\SOLDER~1\AppData\Local\Temp\ccfBhFEg.s:23448  .debug_str:0000000000006fc4 .LASF4617
C:\Users\SOLDER~1\AppData\Local\Temp\ccfBhFEg.s:22404  .debug_str:0000000000002c5c .LASF4618
C:\Users\SOLDER~1\AppData\Local\Temp\ccfBhFEg.s:24504  .debug_str:000000000000b44d .LASF4619
C:\Users\SOLDER~1\AppData\Local\Temp\ccfBhFEg.s:24628  .debug_str:000000000000bc0e .LASF4620
C:\Users\SOLDER~1\AppData\Local\Temp\ccfBhFEg.s:23548  .debug_str:000000000000763a .LASF4621
C:\Users\SOLDER~1\AppData\Local\Temp\ccfBhFEg.s:31930  .debug_str:00000000000294ff .LASF4622
C:\Users\SOLDER~1\AppData\Local\Temp\ccfBhFEg.s:27728  .debug_str:000000000001860b .LASF4623
C:\Users\SOLDER~1\AppData\Local\Temp\ccfBhFEg.s:25720  .debug_str:00000000000103aa .LASF4624
C:\Users\SOLDER~1\AppData\Local\Temp\ccfBhFEg.s:32344  .debug_str:000000000002afa9 .LASF4625
C:\Users\SOLDER~1\AppData\Local\Temp\ccfBhFEg.s:27396  .debug_str:0000000000016ffa .LASF4626
C:\Users\SOLDER~1\AppData\Local\Temp\ccfBhFEg.s:29400  .debug_str:000000000001f128 .LASF4627
C:\Users\SOLDER~1\AppData\Local\Temp\ccfBhFEg.s:26704  .debug_str:0000000000014396 .LASF4628
C:\Users\SOLDER~1\AppData\Local\Temp\ccfBhFEg.s:22522  .debug_str:0000000000003438 .LASF4629
C:\Users\SOLDER~1\AppData\Local\Temp\ccfBhFEg.s:29290  .debug_str:000000000001e9b9 .LASF4630
C:\Users\SOLDER~1\AppData\Local\Temp\ccfBhFEg.s:30274  .debug_str:00000000000228dd .LASF4631
C:\Users\SOLDER~1\AppData\Local\Temp\ccfBhFEg.s:29102  .debug_str:000000000001ddb8 .LASF4632
C:\Users\SOLDER~1\AppData\Local\Temp\ccfBhFEg.s:32984  .debug_str:000000000002d9c2 .LASF4633
C:\Users\SOLDER~1\AppData\Local\Temp\ccfBhFEg.s:30242  .debug_str:0000000000022720 .LASF4634
C:\Users\SOLDER~1\AppData\Local\Temp\ccfBhFEg.s:21744  .debug_str:0000000000000151 .LASF4635
C:\Users\SOLDER~1\AppData\Local\Temp\ccfBhFEg.s:27506  .debug_str:0000000000017730 .LASF4636
C:\Users\SOLDER~1\AppData\Local\Temp\ccfBhFEg.s:26574  .debug_str:0000000000013a78 .LASF4637
C:\Users\SOLDER~1\AppData\Local\Temp\ccfBhFEg.s:26550  .debug_str:00000000000138c2 .LASF4638
C:\Users\SOLDER~1\AppData\Local\Temp\ccfBhFEg.s:26552  .debug_str:00000000000138f3 .LASF4639
C:\Users\SOLDER~1\AppData\Local\Temp\ccfBhFEg.s:32180  .debug_str:000000000002a52a .LASF4640
C:\Users\SOLDER~1\AppData\Local\Temp\ccfBhFEg.s:24838  .debug_str:000000000000ca1f .LASF4641
C:\Users\SOLDER~1\AppData\Local\Temp\ccfBhFEg.s:33424  .debug_str:000000000002f56c .LASF4642
C:\Users\SOLDER~1\AppData\Local\Temp\ccfBhFEg.s:30230  .debug_str:0000000000022667 .LASF4643
C:\Users\SOLDER~1\AppData\Local\Temp\ccfBhFEg.s:25068  .debug_str:000000000000d957 .LASF4644
C:\Users\SOLDER~1\AppData\Local\Temp\ccfBhFEg.s:29208  .debug_str:000000000001e4a6 .LASF4645
C:\Users\SOLDER~1\AppData\Local\Temp\ccfBhFEg.s:25100  .debug_str:000000000000db7c .LASF4646
C:\Users\SOLDER~1\AppData\Local\Temp\ccfBhFEg.s:28648  .debug_str:000000000001c01c .LASF4647
C:\Users\SOLDER~1\AppData\Local\Temp\ccfBhFEg.s:25680  .debug_str:0000000000010124 .LASF4648
C:\Users\SOLDER~1\AppData\Local\Temp\ccfBhFEg.s:24940  .debug_str:000000000000d0ee .LASF4649
GAS LISTING C:\Users\SOLDER~1\AppData\Local\Temp\ccfBhFEg.s 			page 155


C:\Users\SOLDER~1\AppData\Local\Temp\ccfBhFEg.s:22180  .debug_str:0000000000001e49 .LASF4650
C:\Users\SOLDER~1\AppData\Local\Temp\ccfBhFEg.s:24972  .debug_str:000000000000d2e8 .LASF4651
C:\Users\SOLDER~1\AppData\Local\Temp\ccfBhFEg.s:28282  .debug_str:000000000001a906 .LASF4652
C:\Users\SOLDER~1\AppData\Local\Temp\ccfBhFEg.s:30524  .debug_str:00000000000238fd .LASF4653
C:\Users\SOLDER~1\AppData\Local\Temp\ccfBhFEg.s:26620  .debug_str:0000000000013dc4 .LASF4654
C:\Users\SOLDER~1\AppData\Local\Temp\ccfBhFEg.s:23776  .debug_str:0000000000008509 .LASF4655
C:\Users\SOLDER~1\AppData\Local\Temp\ccfBhFEg.s:28726  .debug_str:000000000001c52e .LASF4656
C:\Users\SOLDER~1\AppData\Local\Temp\ccfBhFEg.s:25650  .debug_str:000000000000ff02 .LASF4657
C:\Users\SOLDER~1\AppData\Local\Temp\ccfBhFEg.s:24166  .debug_str:0000000000009e3a .LASF4658
C:\Users\SOLDER~1\AppData\Local\Temp\ccfBhFEg.s:24476  .debug_str:000000000000b294 .LASF4659
C:\Users\SOLDER~1\AppData\Local\Temp\ccfBhFEg.s:32142  .debug_str:000000000002a295 .LASF4660
C:\Users\SOLDER~1\AppData\Local\Temp\ccfBhFEg.s:28886  .debug_str:000000000001cfa2 .LASF4661
C:\Users\SOLDER~1\AppData\Local\Temp\ccfBhFEg.s:28202  .debug_str:000000000001a416 .LASF4662
C:\Users\SOLDER~1\AppData\Local\Temp\ccfBhFEg.s:21730  .debug_str:000000000000006b .LASF4663
C:\Users\SOLDER~1\AppData\Local\Temp\ccfBhFEg.s:26166  .debug_str:0000000000011ff4 .LASF4664
C:\Users\SOLDER~1\AppData\Local\Temp\ccfBhFEg.s:28062  .debug_str:0000000000019bac .LASF4665
C:\Users\SOLDER~1\AppData\Local\Temp\ccfBhFEg.s:32708  .debug_str:000000000002c7c9 .LASF4666
C:\Users\SOLDER~1\AppData\Local\Temp\ccfBhFEg.s:22028  .debug_str:000000000000145a .LASF4667
C:\Users\SOLDER~1\AppData\Local\Temp\ccfBhFEg.s:21816  .debug_str:00000000000005b7 .LASF4668
C:\Users\SOLDER~1\AppData\Local\Temp\ccfBhFEg.s:23334  .debug_str:0000000000006837 .LASF4669
C:\Users\SOLDER~1\AppData\Local\Temp\ccfBhFEg.s:25248  .debug_str:000000000000e513 .LASF4670
C:\Users\SOLDER~1\AppData\Local\Temp\ccfBhFEg.s:22162  .debug_str:0000000000001d14 .LASF4671
C:\Users\SOLDER~1\AppData\Local\Temp\ccfBhFEg.s:22066  .debug_str:00000000000016be .LASF4672
C:\Users\SOLDER~1\AppData\Local\Temp\ccfBhFEg.s:29552  .debug_str:000000000001fb48 .LASF4673
C:\Users\SOLDER~1\AppData\Local\Temp\ccfBhFEg.s:27252  .debug_str:0000000000016719 .LASF4674
C:\Users\SOLDER~1\AppData\Local\Temp\ccfBhFEg.s:22838  .debug_str:000000000000483f .LASF4675
C:\Users\SOLDER~1\AppData\Local\Temp\ccfBhFEg.s:26310  .debug_str:00000000000128f6 .LASF4676
C:\Users\SOLDER~1\AppData\Local\Temp\ccfBhFEg.s:25628  .debug_str:000000000000fd73 .LASF4677
C:\Users\SOLDER~1\AppData\Local\Temp\ccfBhFEg.s:23728  .debug_str:00000000000081e3 .LASF4678
C:\Users\SOLDER~1\AppData\Local\Temp\ccfBhFEg.s:30832  .debug_str:0000000000024d54 .LASF4679
C:\Users\SOLDER~1\AppData\Local\Temp\ccfBhFEg.s:26876  .debug_str:0000000000014f50 .LASF4680
C:\Users\SOLDER~1\AppData\Local\Temp\ccfBhFEg.s:22418  .debug_str:0000000000002d5c .LASF4681
C:\Users\SOLDER~1\AppData\Local\Temp\ccfBhFEg.s:23340  .debug_str:00000000000068c3 .LASF4682
C:\Users\SOLDER~1\AppData\Local\Temp\ccfBhFEg.s:22128  .debug_str:0000000000001ac3 .LASF4683
C:\Users\SOLDER~1\AppData\Local\Temp\ccfBhFEg.s:24800  .debug_str:000000000000c78e .LASF4684
C:\Users\SOLDER~1\AppData\Local\Temp\ccfBhFEg.s:32138  .debug_str:000000000002a257 .LASF4685
C:\Users\SOLDER~1\AppData\Local\Temp\ccfBhFEg.s:31604  .debug_str:0000000000027fd3 .LASF4686
C:\Users\SOLDER~1\AppData\Local\Temp\ccfBhFEg.s:29046  .debug_str:000000000001da66 .LASF4687
C:\Users\SOLDER~1\AppData\Local\Temp\ccfBhFEg.s:31670  .debug_str:0000000000028436 .LASF4688
C:\Users\SOLDER~1\AppData\Local\Temp\ccfBhFEg.s:29640  .debug_str:00000000000200f6 .LASF4689
C:\Users\SOLDER~1\AppData\Local\Temp\ccfBhFEg.s:31120  .debug_str:0000000000025fea .LASF4690
C:\Users\SOLDER~1\AppData\Local\Temp\ccfBhFEg.s:22002  .debug_str:00000000000012b0 .LASF4691
C:\Users\SOLDER~1\AppData\Local\Temp\ccfBhFEg.s:29488  .debug_str:000000000001f6ea .LASF4692
C:\Users\SOLDER~1\AppData\Local\Temp\ccfBhFEg.s:30352  .debug_str:0000000000022dee .LASF4693
C:\Users\SOLDER~1\AppData\Local\Temp\ccfBhFEg.s:31934  .debug_str:0000000000029534 .LASF4694
C:\Users\SOLDER~1\AppData\Local\Temp\ccfBhFEg.s:29086  .debug_str:000000000001dcb0 .LASF4695
C:\Users\SOLDER~1\AppData\Local\Temp\ccfBhFEg.s:28640  .debug_str:000000000001bfa7 .LASF4696
C:\Users\SOLDER~1\AppData\Local\Temp\ccfBhFEg.s:26860  .debug_str:0000000000014e47 .LASF4697
C:\Users\SOLDER~1\AppData\Local\Temp\ccfBhFEg.s:23620  .debug_str:0000000000007a9f .LASF4698
C:\Users\SOLDER~1\AppData\Local\Temp\ccfBhFEg.s:32438  .debug_str:000000000002b5ca .LASF4699
C:\Users\SOLDER~1\AppData\Local\Temp\ccfBhFEg.s:28908  .debug_str:000000000001d13d .LASF4700
C:\Users\SOLDER~1\AppData\Local\Temp\ccfBhFEg.s:24110  .debug_str:0000000000009afa .LASF4701
C:\Users\SOLDER~1\AppData\Local\Temp\ccfBhFEg.s:33078  .debug_str:000000000002dfd0 .LASF4702
C:\Users\SOLDER~1\AppData\Local\Temp\ccfBhFEg.s:22364  .debug_str:0000000000002a20 .LASF4703
C:\Users\SOLDER~1\AppData\Local\Temp\ccfBhFEg.s:30836  .debug_str:0000000000024d9a .LASF4704
C:\Users\SOLDER~1\AppData\Local\Temp\ccfBhFEg.s:27690  .debug_str:0000000000018358 .LASF4705
C:\Users\SOLDER~1\AppData\Local\Temp\ccfBhFEg.s:31738  .debug_str:00000000000288a8 .LASF4706
GAS LISTING C:\Users\SOLDER~1\AppData\Local\Temp\ccfBhFEg.s 			page 156


C:\Users\SOLDER~1\AppData\Local\Temp\ccfBhFEg.s:26088  .debug_str:0000000000011ad1 .LASF4707
C:\Users\SOLDER~1\AppData\Local\Temp\ccfBhFEg.s:24570  .debug_str:000000000000b8c1 .LASF4708
C:\Users\SOLDER~1\AppData\Local\Temp\ccfBhFEg.s:24090  .debug_str:0000000000009984 .LASF4709
C:\Users\SOLDER~1\AppData\Local\Temp\ccfBhFEg.s:28792  .debug_str:000000000001c9a3 .LASF4710
C:\Users\SOLDER~1\AppData\Local\Temp\ccfBhFEg.s:29770  .debug_str:0000000000020910 .LASF4711
C:\Users\SOLDER~1\AppData\Local\Temp\ccfBhFEg.s:27628  .debug_str:0000000000017f4b .LASF4712
C:\Users\SOLDER~1\AppData\Local\Temp\ccfBhFEg.s:28438  .debug_str:000000000001b327 .LASF4713
C:\Users\SOLDER~1\AppData\Local\Temp\ccfBhFEg.s:25812  .debug_str:0000000000010990 .LASF4714
C:\Users\SOLDER~1\AppData\Local\Temp\ccfBhFEg.s:33324  .debug_str:000000000002ef43 .LASF4715
C:\Users\SOLDER~1\AppData\Local\Temp\ccfBhFEg.s:32406  .debug_str:000000000002b3dc .LASF4716
C:\Users\SOLDER~1\AppData\Local\Temp\ccfBhFEg.s:31486  .debug_str:0000000000027821 .LASF4717
C:\Users\SOLDER~1\AppData\Local\Temp\ccfBhFEg.s:31922  .debug_str:000000000002947c .LASF4718
C:\Users\SOLDER~1\AppData\Local\Temp\ccfBhFEg.s:22470  .debug_str:00000000000030d0 .LASF4719
C:\Users\SOLDER~1\AppData\Local\Temp\ccfBhFEg.s:26210  .debug_str:00000000000122b5 .LASF4720
C:\Users\SOLDER~1\AppData\Local\Temp\ccfBhFEg.s:27990  .debug_str:00000000000196d4 .LASF4721
C:\Users\SOLDER~1\AppData\Local\Temp\ccfBhFEg.s:21912  .debug_str:0000000000000d03 .LASF4722
C:\Users\SOLDER~1\AppData\Local\Temp\ccfBhFEg.s:29434  .debug_str:000000000001f357 .LASF4723
C:\Users\SOLDER~1\AppData\Local\Temp\ccfBhFEg.s:24036  .debug_str:000000000000963f .LASF4724
C:\Users\SOLDER~1\AppData\Local\Temp\ccfBhFEg.s:29480  .debug_str:000000000001f665 .LASF4725
C:\Users\SOLDER~1\AppData\Local\Temp\ccfBhFEg.s:28082  .debug_str:0000000000019d1f .LASF4726
C:\Users\SOLDER~1\AppData\Local\Temp\ccfBhFEg.s:31742  .debug_str:00000000000288e2 .LASF4727
C:\Users\SOLDER~1\AppData\Local\Temp\ccfBhFEg.s:24112  .debug_str:0000000000009b15 .LASF4728
C:\Users\SOLDER~1\AppData\Local\Temp\ccfBhFEg.s:31376  .debug_str:0000000000027122 .LASF4729
C:\Users\SOLDER~1\AppData\Local\Temp\ccfBhFEg.s:30330  .debug_str:0000000000022c80 .LASF4730
C:\Users\SOLDER~1\AppData\Local\Temp\ccfBhFEg.s:32770  .debug_str:000000000002cbb7 .LASF4731
C:\Users\SOLDER~1\AppData\Local\Temp\ccfBhFEg.s:30562  .debug_str:0000000000023ba5 .LASF4732
C:\Users\SOLDER~1\AppData\Local\Temp\ccfBhFEg.s:31600  .debug_str:0000000000027f92 .LASF4733
C:\Users\SOLDER~1\AppData\Local\Temp\ccfBhFEg.s:32052  .debug_str:0000000000029cf1 .LASF4734
C:\Users\SOLDER~1\AppData\Local\Temp\ccfBhFEg.s:24544  .debug_str:000000000000b727 .LASF4735
C:\Users\SOLDER~1\AppData\Local\Temp\ccfBhFEg.s:23214  .debug_str:0000000000005fe2 .LASF4736
C:\Users\SOLDER~1\AppData\Local\Temp\ccfBhFEg.s:22574  .debug_str:000000000000377b .LASF4737
C:\Users\SOLDER~1\AppData\Local\Temp\ccfBhFEg.s:31526  .debug_str:0000000000027ae7 .LASF4738
C:\Users\SOLDER~1\AppData\Local\Temp\ccfBhFEg.s:29856  .debug_str:0000000000020ea2 .LASF4739
C:\Users\SOLDER~1\AppData\Local\Temp\ccfBhFEg.s:22636  .debug_str:0000000000003b83 .LASF4740
C:\Users\SOLDER~1\AppData\Local\Temp\ccfBhFEg.s:22740  .debug_str:0000000000004225 .LASF4741
C:\Users\SOLDER~1\AppData\Local\Temp\ccfBhFEg.s:30582  .debug_str:0000000000023cfc .LASF4742
C:\Users\SOLDER~1\AppData\Local\Temp\ccfBhFEg.s:30926  .debug_str:000000000002538a .LASF4743
C:\Users\SOLDER~1\AppData\Local\Temp\ccfBhFEg.s:26442  .debug_str:00000000000131ae .LASF4744
C:\Users\SOLDER~1\AppData\Local\Temp\ccfBhFEg.s:22160  .debug_str:0000000000001cee .LASF4745
C:\Users\SOLDER~1\AppData\Local\Temp\ccfBhFEg.s:31106  .debug_str:0000000000025f07 .LASF4746
C:\Users\SOLDER~1\AppData\Local\Temp\ccfBhFEg.s:25092  .debug_str:000000000000daf9 .LASF4747
C:\Users\SOLDER~1\AppData\Local\Temp\ccfBhFEg.s:21998  .debug_str:000000000000127a .LASF4748
C:\Users\SOLDER~1\AppData\Local\Temp\ccfBhFEg.s:30556  .debug_str:0000000000023b3f .LASF4749
C:\Users\SOLDER~1\AppData\Local\Temp\ccfBhFEg.s:32324  .debug_str:000000000002ae7f .LASF4750
C:\Users\SOLDER~1\AppData\Local\Temp\ccfBhFEg.s:25528  .debug_str:000000000000f6b3 .LASF4751
C:\Users\SOLDER~1\AppData\Local\Temp\ccfBhFEg.s:24700  .debug_str:000000000000c0ba .LASF4752
C:\Users\SOLDER~1\AppData\Local\Temp\ccfBhFEg.s:30996  .debug_str:00000000000257f6 .LASF4753
C:\Users\SOLDER~1\AppData\Local\Temp\ccfBhFEg.s:27952  .debug_str:0000000000019467 .LASF4754
C:\Users\SOLDER~1\AppData\Local\Temp\ccfBhFEg.s:21878  .debug_str:0000000000000a9b .LASF4755
C:\Users\SOLDER~1\AppData\Local\Temp\ccfBhFEg.s:33406  .debug_str:000000000002f44b .LASF4756
C:\Users\SOLDER~1\AppData\Local\Temp\ccfBhFEg.s:30244  .debug_str:000000000002273f .LASF4757
C:\Users\SOLDER~1\AppData\Local\Temp\ccfBhFEg.s:30730  .debug_str:0000000000024668 .LASF4758
C:\Users\SOLDER~1\AppData\Local\Temp\ccfBhFEg.s:23000  .debug_str:000000000000523c .LASF4759
C:\Users\SOLDER~1\AppData\Local\Temp\ccfBhFEg.s:25548  .debug_str:000000000000f816 .LASF4760
C:\Users\SOLDER~1\AppData\Local\Temp\ccfBhFEg.s:30992  .debug_str:00000000000257c0 .LASF4761
C:\Users\SOLDER~1\AppData\Local\Temp\ccfBhFEg.s:27948  .debug_str:0000000000019427 .LASF4762
C:\Users\SOLDER~1\AppData\Local\Temp\ccfBhFEg.s:24780  .debug_str:000000000000c625 .LASF4763
GAS LISTING C:\Users\SOLDER~1\AppData\Local\Temp\ccfBhFEg.s 			page 157


C:\Users\SOLDER~1\AppData\Local\Temp\ccfBhFEg.s:24022  .debug_str:0000000000009531 .LASF4764
C:\Users\SOLDER~1\AppData\Local\Temp\ccfBhFEg.s:23948  .debug_str:000000000000906d .LASF4765
C:\Users\SOLDER~1\AppData\Local\Temp\ccfBhFEg.s:27190  .debug_str:000000000001632b .LASF4766
C:\Users\SOLDER~1\AppData\Local\Temp\ccfBhFEg.s:29508  .debug_str:000000000001f84b .LASF4767
C:\Users\SOLDER~1\AppData\Local\Temp\ccfBhFEg.s:26382  .debug_str:0000000000012d86 .LASF4768
C:\Users\SOLDER~1\AppData\Local\Temp\ccfBhFEg.s:25726  .debug_str:00000000000103e9 .LASF4769
C:\Users\SOLDER~1\AppData\Local\Temp\ccfBhFEg.s:29576  .debug_str:000000000001fcdd .LASF4770
C:\Users\SOLDER~1\AppData\Local\Temp\ccfBhFEg.s:25560  .debug_str:000000000000f8d0 .LASF4771
C:\Users\SOLDER~1\AppData\Local\Temp\ccfBhFEg.s:25484  .debug_str:000000000000f3f6 .LASF4772
C:\Users\SOLDER~1\AppData\Local\Temp\ccfBhFEg.s:22532  .debug_str:00000000000034e9 .LASF4773
C:\Users\SOLDER~1\AppData\Local\Temp\ccfBhFEg.s:31116  .debug_str:0000000000025fae .LASF4774
C:\Users\SOLDER~1\AppData\Local\Temp\ccfBhFEg.s:22050  .debug_str:00000000000015cb .LASF4775
C:\Users\SOLDER~1\AppData\Local\Temp\ccfBhFEg.s:22660  .debug_str:0000000000003d07 .LASF4776
C:\Users\SOLDER~1\AppData\Local\Temp\ccfBhFEg.s:29278  .debug_str:000000000001e8e6 .LASF4777
C:\Users\SOLDER~1\AppData\Local\Temp\ccfBhFEg.s:23064  .debug_str:000000000000561c .LASF4778
C:\Users\SOLDER~1\AppData\Local\Temp\ccfBhFEg.s:32414  .debug_str:000000000002b453 .LASF4779
C:\Users\SOLDER~1\AppData\Local\Temp\ccfBhFEg.s:32682  .debug_str:000000000002c5da .LASF4780
C:\Users\SOLDER~1\AppData\Local\Temp\ccfBhFEg.s:25318  .debug_str:000000000000e989 .LASF4781
C:\Users\SOLDER~1\AppData\Local\Temp\ccfBhFEg.s:29510  .debug_str:000000000001f867 .LASF4782
C:\Users\SOLDER~1\AppData\Local\Temp\ccfBhFEg.s:25220  .debug_str:000000000000e2f1 .LASF4783
C:\Users\SOLDER~1\AppData\Local\Temp\ccfBhFEg.s:24610  .debug_str:000000000000bae2 .LASF4784
C:\Users\SOLDER~1\AppData\Local\Temp\ccfBhFEg.s:29908  .debug_str:0000000000021202 .LASF4785
C:\Users\SOLDER~1\AppData\Local\Temp\ccfBhFEg.s:22176  .debug_str:0000000000001e15 .LASF4786
C:\Users\SOLDER~1\AppData\Local\Temp\ccfBhFEg.s:28408  .debug_str:000000000001b0f9 .LASF4787
C:\Users\SOLDER~1\AppData\Local\Temp\ccfBhFEg.s:33314  .debug_str:000000000002ee79 .LASF4788
C:\Users\SOLDER~1\AppData\Local\Temp\ccfBhFEg.s:24298  .debug_str:000000000000a701 .LASF4789
C:\Users\SOLDER~1\AppData\Local\Temp\ccfBhFEg.s:33342  .debug_str:000000000002f07a .LASF4790
C:\Users\SOLDER~1\AppData\Local\Temp\ccfBhFEg.s:22702  .debug_str:0000000000003fb6 .LASF4791
C:\Users\SOLDER~1\AppData\Local\Temp\ccfBhFEg.s:31448  .debug_str:00000000000275c0 .LASF4792
C:\Users\SOLDER~1\AppData\Local\Temp\ccfBhFEg.s:31662  .debug_str:00000000000283b7 .LASF4793
C:\Users\SOLDER~1\AppData\Local\Temp\ccfBhFEg.s:23856  .debug_str:0000000000008a12 .LASF4794
C:\Users\SOLDER~1\AppData\Local\Temp\ccfBhFEg.s:24308  .debug_str:000000000000a7b8 .LASF4795
C:\Users\SOLDER~1\AppData\Local\Temp\ccfBhFEg.s:32342  .debug_str:000000000002af82 .LASF4796
C:\Users\SOLDER~1\AppData\Local\Temp\ccfBhFEg.s:27430  .debug_str:00000000000171d8 .LASF4797
C:\Users\SOLDER~1\AppData\Local\Temp\ccfBhFEg.s:22560  .debug_str:000000000000368e .LASF4798
C:\Users\SOLDER~1\AppData\Local\Temp\ccfBhFEg.s:24704  .debug_str:000000000000c0fb .LASF4799
C:\Users\SOLDER~1\AppData\Local\Temp\ccfBhFEg.s:25830  .debug_str:0000000000010a7f .LASF4800
C:\Users\SOLDER~1\AppData\Local\Temp\ccfBhFEg.s:32010  .debug_str:0000000000029a34 .LASF4801
C:\Users\SOLDER~1\AppData\Local\Temp\ccfBhFEg.s:23412  .debug_str:0000000000006d27 .LASF4802
C:\Users\SOLDER~1\AppData\Local\Temp\ccfBhFEg.s:30288  .debug_str:00000000000229a7 .LASF4803
C:\Users\SOLDER~1\AppData\Local\Temp\ccfBhFEg.s:25640  .debug_str:000000000000fe3e .LASF4804
C:\Users\SOLDER~1\AppData\Local\Temp\ccfBhFEg.s:29892  .debug_str:0000000000021103 .LASF4805
C:\Users\SOLDER~1\AppData\Local\Temp\ccfBhFEg.s:32894  .debug_str:000000000002d38a .LASF4806
C:\Users\SOLDER~1\AppData\Local\Temp\ccfBhFEg.s:23258  .debug_str:00000000000062f2 .LASF4807
C:\Users\SOLDER~1\AppData\Local\Temp\ccfBhFEg.s:30898  .debug_str:00000000000251bd .LASF4808
C:\Users\SOLDER~1\AppData\Local\Temp\ccfBhFEg.s:30474  .debug_str:00000000000235de .LASF4809
C:\Users\SOLDER~1\AppData\Local\Temp\ccfBhFEg.s:25654  .debug_str:000000000000ff60 .LASF4810
C:\Users\SOLDER~1\AppData\Local\Temp\ccfBhFEg.s:28552  .debug_str:000000000001ba42 .LASF4811
C:\Users\SOLDER~1\AppData\Local\Temp\ccfBhFEg.s:33156  .debug_str:000000000002e4b9 .LASF4812
C:\Users\SOLDER~1\AppData\Local\Temp\ccfBhFEg.s:32468  .debug_str:000000000002b80d .LASF4813
C:\Users\SOLDER~1\AppData\Local\Temp\ccfBhFEg.s:23798  .debug_str:000000000000866f .LASF4814
C:\Users\SOLDER~1\AppData\Local\Temp\ccfBhFEg.s:25958  .debug_str:00000000000112c9 .LASF4815
C:\Users\SOLDER~1\AppData\Local\Temp\ccfBhFEg.s:25020  .debug_str:000000000000d629 .LASF4816
C:\Users\SOLDER~1\AppData\Local\Temp\ccfBhFEg.s:23920  .debug_str:0000000000008e7b .LASF4817
C:\Users\SOLDER~1\AppData\Local\Temp\ccfBhFEg.s:22542  .debug_str:0000000000003582 .LASF4818
C:\Users\SOLDER~1\AppData\Local\Temp\ccfBhFEg.s:21724  .debug_str:0000000000000000 .LASF4819
C:\Users\SOLDER~1\AppData\Local\Temp\ccfBhFEg.s:29376  .debug_str:000000000001efa1 .LASF4820
GAS LISTING C:\Users\SOLDER~1\AppData\Local\Temp\ccfBhFEg.s 			page 158


C:\Users\SOLDER~1\AppData\Local\Temp\ccfBhFEg.s:30034  .debug_str:0000000000021a2f .LASF4821
C:\Users\SOLDER~1\AppData\Local\Temp\ccfBhFEg.s:33098  .debug_str:000000000002e0f7 .LASF4822
C:\Users\SOLDER~1\AppData\Local\Temp\ccfBhFEg.s:23954  .debug_str:00000000000090cc .LASF4823
C:\Users\SOLDER~1\AppData\Local\Temp\ccfBhFEg.s:23136  .debug_str:0000000000005af8 .LASF4824
C:\Users\SOLDER~1\AppData\Local\Temp\ccfBhFEg.s:21888  .debug_str:0000000000000b5a .LASF4825
C:\Users\SOLDER~1\AppData\Local\Temp\ccfBhFEg.s:30478  .debug_str:000000000002360d .LASF4826
C:\Users\SOLDER~1\AppData\Local\Temp\ccfBhFEg.s:25362  .debug_str:000000000000ec8f .LASF4827
C:\Users\SOLDER~1\AppData\Local\Temp\ccfBhFEg.s:27450  .debug_str:0000000000017328 .LASF4828
C:\Users\SOLDER~1\AppData\Local\Temp\ccfBhFEg.s:27574  .debug_str:0000000000017bc0 .LASF4829
C:\Users\SOLDER~1\AppData\Local\Temp\ccfBhFEg.s:22322  .debug_str:0000000000002763 .LASF4830
C:\Users\SOLDER~1\AppData\Local\Temp\ccfBhFEg.s:26932  .debug_str:00000000000152f2 .LASF4831
C:\Users\SOLDER~1\AppData\Local\Temp\ccfBhFEg.s:31634  .debug_str:00000000000281a8 .LASF4832
C:\Users\SOLDER~1\AppData\Local\Temp\ccfBhFEg.s:27126  .debug_str:0000000000015f33 .LASF4833
C:\Users\SOLDER~1\AppData\Local\Temp\ccfBhFEg.s:22558  .debug_str:0000000000003676 .LASF4834
C:\Users\SOLDER~1\AppData\Local\Temp\ccfBhFEg.s:30030  .debug_str:00000000000219f5 .LASF4835
C:\Users\SOLDER~1\AppData\Local\Temp\ccfBhFEg.s:26782  .debug_str:00000000000148fc .LASF4836
C:\Users\SOLDER~1\AppData\Local\Temp\ccfBhFEg.s:23834  .debug_str:00000000000088d0 .LASF4837
C:\Users\SOLDER~1\AppData\Local\Temp\ccfBhFEg.s:25270  .debug_str:000000000000e69e .LASF4838
C:\Users\SOLDER~1\AppData\Local\Temp\ccfBhFEg.s:30214  .debug_str:000000000002256d .LASF4839
C:\Users\SOLDER~1\AppData\Local\Temp\ccfBhFEg.s:29958  .debug_str:0000000000021549 .LASF4840
C:\Users\SOLDER~1\AppData\Local\Temp\ccfBhFEg.s:28378  .debug_str:000000000001af22 .LASF4841
C:\Users\SOLDER~1\AppData\Local\Temp\ccfBhFEg.s:27390  .debug_str:0000000000016f9b .LASF4842
C:\Users\SOLDER~1\AppData\Local\Temp\ccfBhFEg.s:22628  .debug_str:0000000000003af9 .LASF4843
C:\Users\SOLDER~1\AppData\Local\Temp\ccfBhFEg.s:27420  .debug_str:0000000000017148 .LASF4844
C:\Users\SOLDER~1\AppData\Local\Temp\ccfBhFEg.s:31986  .debug_str:0000000000029894 .LASF4845
C:\Users\SOLDER~1\AppData\Local\Temp\ccfBhFEg.s:25138  .debug_str:000000000000ddbd .LASF4846
C:\Users\SOLDER~1\AppData\Local\Temp\ccfBhFEg.s:31774  .debug_str:0000000000028b0e .LASF4847
C:\Users\SOLDER~1\AppData\Local\Temp\ccfBhFEg.s:31400  .debug_str:000000000002729c .LASF4848
C:\Users\SOLDER~1\AppData\Local\Temp\ccfBhFEg.s:26588  .debug_str:0000000000013b55 .LASF4849
C:\Users\SOLDER~1\AppData\Local\Temp\ccfBhFEg.s:29792  .debug_str:0000000000020a98 .LASF4850
C:\Users\SOLDER~1\AppData\Local\Temp\ccfBhFEg.s:28352  .debug_str:000000000001adb7 .LASF4852
C:\Users\SOLDER~1\AppData\Local\Temp\ccfBhFEg.s:30266  .debug_str:0000000000022859 .LASF4853
C:\Users\SOLDER~1\AppData\Local\Temp\ccfBhFEg.s:22448  .debug_str:0000000000002f7e .LASF4854
C:\Users\SOLDER~1\AppData\Local\Temp\ccfBhFEg.s:26374  .debug_str:0000000000012ce2 .LASF4855
C:\Users\SOLDER~1\AppData\Local\Temp\ccfBhFEg.s:25278  .debug_str:000000000000e71e .LASF4856
C:\Users\SOLDER~1\AppData\Local\Temp\ccfBhFEg.s:28562  .debug_str:000000000001bacc .LASF4857
C:\Users\SOLDER~1\AppData\Local\Temp\ccfBhFEg.s:23762  .debug_str:000000000000841d .LASF4858
C:\Users\SOLDER~1\AppData\Local\Temp\ccfBhFEg.s:24368  .debug_str:000000000000abd4 .LASF4859
C:\Users\SOLDER~1\AppData\Local\Temp\ccfBhFEg.s:32352  .debug_str:000000000002b04c .LASF4860
C:\Users\SOLDER~1\AppData\Local\Temp\ccfBhFEg.s:22642  .debug_str:0000000000003bee .LASF4861
C:\Users\SOLDER~1\AppData\Local\Temp\ccfBhFEg.s:31366  .debug_str:000000000002706e .LASF4862
C:\Users\SOLDER~1\AppData\Local\Temp\ccfBhFEg.s:30048  .debug_str:0000000000021b2e .LASF4863
C:\Users\SOLDER~1\AppData\Local\Temp\ccfBhFEg.s:22776  .debug_str:0000000000004449 .LASF4864
C:\Users\SOLDER~1\AppData\Local\Temp\ccfBhFEg.s:30368  .debug_str:0000000000022f09 .LASF4865
C:\Users\SOLDER~1\AppData\Local\Temp\ccfBhFEg.s:22608  .debug_str:00000000000039b6 .LASF4866
C:\Users\SOLDER~1\AppData\Local\Temp\ccfBhFEg.s:22798  .debug_str:00000000000045b9 .LASF4867
C:\Users\SOLDER~1\AppData\Local\Temp\ccfBhFEg.s:25266  .debug_str:000000000000e651 .LASF4868
C:\Users\SOLDER~1\AppData\Local\Temp\ccfBhFEg.s:31638  .debug_str:00000000000281e8 .LASF4869
C:\Users\SOLDER~1\AppData\Local\Temp\ccfBhFEg.s:22822  .debug_str:000000000000474b .LASF4870
C:\Users\SOLDER~1\AppData\Local\Temp\ccfBhFEg.s:21864  .debug_str:00000000000009a3 .LASF4871
C:\Users\SOLDER~1\AppData\Local\Temp\ccfBhFEg.s:29460  .debug_str:000000000001f508 .LASF4872
C:\Users\SOLDER~1\AppData\Local\Temp\ccfBhFEg.s:24600  .debug_str:000000000000ba55 .LASF4873
C:\Users\SOLDER~1\AppData\Local\Temp\ccfBhFEg.s:31044  .debug_str:0000000000025ad7 .LASF4874
C:\Users\SOLDER~1\AppData\Local\Temp\ccfBhFEg.s:33054  .debug_str:000000000002de33 .LASF4875
C:\Users\SOLDER~1\AppData\Local\Temp\ccfBhFEg.s:22312  .debug_str:000000000000269b .LASF4876
C:\Users\SOLDER~1\AppData\Local\Temp\ccfBhFEg.s:22818  .debug_str:00000000000046fb .LASF4877
C:\Users\SOLDER~1\AppData\Local\Temp\ccfBhFEg.s:29918  .debug_str:0000000000021284 .LASF4878
GAS LISTING C:\Users\SOLDER~1\AppData\Local\Temp\ccfBhFEg.s 			page 159


C:\Users\SOLDER~1\AppData\Local\Temp\ccfBhFEg.s:32106  .debug_str:000000000002a024 .LASF4879
C:\Users\SOLDER~1\AppData\Local\Temp\ccfBhFEg.s:31622  .debug_str:00000000000280d5 .LASF4880
C:\Users\SOLDER~1\AppData\Local\Temp\ccfBhFEg.s:31442  .debug_str:000000000002754d .LASF4881
C:\Users\SOLDER~1\AppData\Local\Temp\ccfBhFEg.s:32130  .debug_str:000000000002a1bf .LASF4882
C:\Users\SOLDER~1\AppData\Local\Temp\ccfBhFEg.s:26776  .debug_str:0000000000014896 .LASF4883
C:\Users\SOLDER~1\AppData\Local\Temp\ccfBhFEg.s:32188  .debug_str:000000000002a5c4 .LASF4884
C:\Users\SOLDER~1\AppData\Local\Temp\ccfBhFEg.s:29714  .debug_str:000000000002058e .LASF4885
C:\Users\SOLDER~1\AppData\Local\Temp\ccfBhFEg.s:30806  .debug_str:0000000000024b84 .LASF4886
C:\Users\SOLDER~1\AppData\Local\Temp\ccfBhFEg.s:26404  .debug_str:0000000000012f08 .LASF4887
C:\Users\SOLDER~1\AppData\Local\Temp\ccfBhFEg.s:27540  .debug_str:0000000000017979 .LASF4888
C:\Users\SOLDER~1\AppData\Local\Temp\ccfBhFEg.s:23016  .debug_str:0000000000005336 .LASF4889
C:\Users\SOLDER~1\AppData\Local\Temp\ccfBhFEg.s:30074  .debug_str:0000000000021cd1 .LASF4890
C:\Users\SOLDER~1\AppData\Local\Temp\ccfBhFEg.s:31328  .debug_str:0000000000026dd8 .LASF4891
C:\Users\SOLDER~1\AppData\Local\Temp\ccfBhFEg.s:25964  .debug_str:000000000001131e .LASF4892
C:\Users\SOLDER~1\AppData\Local\Temp\ccfBhFEg.s:30744  .debug_str:000000000002475e .LASF4893
C:\Users\SOLDER~1\AppData\Local\Temp\ccfBhFEg.s:28514  .debug_str:000000000001b7c3 .LASF4894
C:\Users\SOLDER~1\AppData\Local\Temp\ccfBhFEg.s:25838  .debug_str:0000000000010b18 .LASF4895
C:\Users\SOLDER~1\AppData\Local\Temp\ccfBhFEg.s:22862  .debug_str:00000000000049ec .LASF4896
C:\Users\SOLDER~1\AppData\Local\Temp\ccfBhFEg.s:31148  .debug_str:00000000000261be .LASF4897
C:\Users\SOLDER~1\AppData\Local\Temp\ccfBhFEg.s:25152  .debug_str:000000000000de70 .LASF4898
C:\Users\SOLDER~1\AppData\Local\Temp\ccfBhFEg.s:33120  .debug_str:000000000002e26d .LASF4899
C:\Users\SOLDER~1\AppData\Local\Temp\ccfBhFEg.s:23502  .debug_str:000000000000735c .LASF4900
C:\Users\SOLDER~1\AppData\Local\Temp\ccfBhFEg.s:27950  .debug_str:0000000000019444 .LASF4901
C:\Users\SOLDER~1\AppData\Local\Temp\ccfBhFEg.s:24880  .debug_str:000000000000cceb .LASF4902
C:\Users\SOLDER~1\AppData\Local\Temp\ccfBhFEg.s:31134  .debug_str:00000000000260eb .LASF4903
C:\Users\SOLDER~1\AppData\Local\Temp\ccfBhFEg.s:31528  .debug_str:0000000000027b07 .LASF4904
C:\Users\SOLDER~1\AppData\Local\Temp\ccfBhFEg.s:29120  .debug_str:000000000001dea2 .LASF4905
C:\Users\SOLDER~1\AppData\Local\Temp\ccfBhFEg.s:22422  .debug_str:0000000000002da2 .LASF4906
C:\Users\SOLDER~1\AppData\Local\Temp\ccfBhFEg.s:29746  .debug_str:0000000000020782 .LASF4907
C:\Users\SOLDER~1\AppData\Local\Temp\ccfBhFEg.s:30920  .debug_str:0000000000025328 .LASF4908
C:\Users\SOLDER~1\AppData\Local\Temp\ccfBhFEg.s:30270  .debug_str:000000000002289f .LASF4909
C:\Users\SOLDER~1\AppData\Local\Temp\ccfBhFEg.s:23614  .debug_str:0000000000007a31 .LASF4910
C:\Users\SOLDER~1\AppData\Local\Temp\ccfBhFEg.s:24888  .debug_str:000000000000cd78 .LASF4911
C:\Users\SOLDER~1\AppData\Local\Temp\ccfBhFEg.s:27160  .debug_str:0000000000016142 .LASF4912
C:\Users\SOLDER~1\AppData\Local\Temp\ccfBhFEg.s:30856  .debug_str:0000000000024ef1 .LASF4913
C:\Users\SOLDER~1\AppData\Local\Temp\ccfBhFEg.s:31744  .debug_str:00000000000288fe .LASF4914
C:\Users\SOLDER~1\AppData\Local\Temp\ccfBhFEg.s:26050  .debug_str:0000000000011881 .LASF4915
C:\Users\SOLDER~1\AppData\Local\Temp\ccfBhFEg.s:21902  .debug_str:0000000000000c4c .LASF4916
C:\Users\SOLDER~1\AppData\Local\Temp\ccfBhFEg.s:28388  .debug_str:000000000001afab .LASF4917
C:\Users\SOLDER~1\AppData\Local\Temp\ccfBhFEg.s:30672  .debug_str:00000000000242b5 .LASF4918
C:\Users\SOLDER~1\AppData\Local\Temp\ccfBhFEg.s:30958  .debug_str:00000000000255b1 .LASF4919
C:\Users\SOLDER~1\AppData\Local\Temp\ccfBhFEg.s:26928  .debug_str:00000000000152aa .LASF4920
C:\Users\SOLDER~1\AppData\Local\Temp\ccfBhFEg.s:30350  .debug_str:0000000000022dcb .LASF4921
C:\Users\SOLDER~1\AppData\Local\Temp\ccfBhFEg.s:31924  .debug_str:0000000000029498 .LASF4922
C:\Users\SOLDER~1\AppData\Local\Temp\ccfBhFEg.s:25346  .debug_str:000000000000eb69 .LASF4923
C:\Users\SOLDER~1\AppData\Local\Temp\ccfBhFEg.s:22738  .debug_str:0000000000004202 .LASF4924
C:\Users\SOLDER~1\AppData\Local\Temp\ccfBhFEg.s:28530  .debug_str:000000000001b8c8 .LASF4925
C:\Users\SOLDER~1\AppData\Local\Temp\ccfBhFEg.s:29712  .debug_str:000000000002056b .LASF4926
C:\Users\SOLDER~1\AppData\Local\Temp\ccfBhFEg.s:26204  .debug_str:000000000001224d .LASF4927
C:\Users\SOLDER~1\AppData\Local\Temp\ccfBhFEg.s:33282  .debug_str:000000000002ec57 .LASF4928
C:\Users\SOLDER~1\AppData\Local\Temp\ccfBhFEg.s:25314  .debug_str:000000000000e94c .LASF4929
C:\Users\SOLDER~1\AppData\Local\Temp\ccfBhFEg.s:32134  .debug_str:000000000002a20f .LASF4930
C:\Users\SOLDER~1\AppData\Local\Temp\ccfBhFEg.s:32950  .debug_str:000000000002d78c .LASF4931
C:\Users\SOLDER~1\AppData\Local\Temp\ccfBhFEg.s:28960  .debug_str:000000000001d48f .LASF4932
C:\Users\SOLDER~1\AppData\Local\Temp\ccfBhFEg.s:32430  .debug_str:000000000002b533 .LASF4933
C:\Users\SOLDER~1\AppData\Local\Temp\ccfBhFEg.s:29044  .debug_str:000000000001da41 .LASF4934
C:\Users\SOLDER~1\AppData\Local\Temp\ccfBhFEg.s:29686  .debug_str:00000000000203bb .LASF4935
GAS LISTING C:\Users\SOLDER~1\AppData\Local\Temp\ccfBhFEg.s 			page 160


C:\Users\SOLDER~1\AppData\Local\Temp\ccfBhFEg.s:27962  .debug_str:000000000001950d .LASF4936
C:\Users\SOLDER~1\AppData\Local\Temp\ccfBhFEg.s:23622  .debug_str:0000000000007aba .LASF4937
C:\Users\SOLDER~1\AppData\Local\Temp\ccfBhFEg.s:26036  .debug_str:000000000001178e .LASF4938
C:\Users\SOLDER~1\AppData\Local\Temp\ccfBhFEg.s:26242  .debug_str:00000000000124ad .LASF4939
C:\Users\SOLDER~1\AppData\Local\Temp\ccfBhFEg.s:27296  .debug_str:00000000000169d4 .LASF4940
C:\Users\SOLDER~1\AppData\Local\Temp\ccfBhFEg.s:29312  .debug_str:000000000001eb44 .LASF4941
C:\Users\SOLDER~1\AppData\Local\Temp\ccfBhFEg.s:30978  .debug_str:00000000000256f0 .LASF4942
C:\Users\SOLDER~1\AppData\Local\Temp\ccfBhFEg.s:30392  .debug_str:00000000000230c2 .LASF4943
C:\Users\SOLDER~1\AppData\Local\Temp\ccfBhFEg.s:29822  .debug_str:0000000000020c69 .LASF4944
C:\Users\SOLDER~1\AppData\Local\Temp\ccfBhFEg.s:30108  .debug_str:0000000000021ed2 .LASF4945
C:\Users\SOLDER~1\AppData\Local\Temp\ccfBhFEg.s:25336  .debug_str:000000000000eab2 .LASF4946
C:\Users\SOLDER~1\AppData\Local\Temp\ccfBhFEg.s:26398  .debug_str:0000000000012e85 .LASF4947
C:\Users\SOLDER~1\AppData\Local\Temp\ccfBhFEg.s:26280  .debug_str:00000000000126fd .LASF4948
C:\Users\SOLDER~1\AppData\Local\Temp\ccfBhFEg.s:25014  .debug_str:000000000000d5bd .LASF4949
C:\Users\SOLDER~1\AppData\Local\Temp\ccfBhFEg.s:31842  .debug_str:0000000000028f59 .LASF4950
C:\Users\SOLDER~1\AppData\Local\Temp\ccfBhFEg.s:22272  .debug_str:0000000000002440 .LASF4951
C:\Users\SOLDER~1\AppData\Local\Temp\ccfBhFEg.s:31710  .debug_str:00000000000286dc .LASF4952
C:\Users\SOLDER~1\AppData\Local\Temp\ccfBhFEg.s:27004  .debug_str:000000000001579a .LASF4953
C:\Users\SOLDER~1\AppData\Local\Temp\ccfBhFEg.s:24604  .debug_str:000000000000ba8c .LASF4954
C:\Users\SOLDER~1\AppData\Local\Temp\ccfBhFEg.s:25730  .debug_str:0000000000010423 .LASF4955
C:\Users\SOLDER~1\AppData\Local\Temp\ccfBhFEg.s:33008  .debug_str:000000000002db54 .LASF4956
C:\Users\SOLDER~1\AppData\Local\Temp\ccfBhFEg.s:26956  .debug_str:0000000000015474 .LASF4957
C:\Users\SOLDER~1\AppData\Local\Temp\ccfBhFEg.s:23270  .debug_str:00000000000063d2 .LASF4958
C:\Users\SOLDER~1\AppData\Local\Temp\ccfBhFEg.s:29104  .debug_str:000000000001ddd7 .LASF4959
C:\Users\SOLDER~1\AppData\Local\Temp\ccfBhFEg.s:24160  .debug_str:0000000000009de1 .LASF4960
C:\Users\SOLDER~1\AppData\Local\Temp\ccfBhFEg.s:28316  .debug_str:000000000001ab47 .LASF4961
C:\Users\SOLDER~1\AppData\Local\Temp\ccfBhFEg.s:25768  .debug_str:00000000000106b4 .LASF4962
C:\Users\SOLDER~1\AppData\Local\Temp\ccfBhFEg.s:24150  .debug_str:0000000000009d3b .LASF4963
C:\Users\SOLDER~1\AppData\Local\Temp\ccfBhFEg.s:27270  .debug_str:000000000001683e .LASF4964
C:\Users\SOLDER~1\AppData\Local\Temp\ccfBhFEg.s:24502  .debug_str:000000000000b42e .LASF4965
C:\Users\SOLDER~1\AppData\Local\Temp\ccfBhFEg.s:22082  .debug_str:00000000000017e0 .LASF4966
C:\Users\SOLDER~1\AppData\Local\Temp\ccfBhFEg.s:24300  .debug_str:000000000000a71b .LASF4967
C:\Users\SOLDER~1\AppData\Local\Temp\ccfBhFEg.s:24718  .debug_str:000000000000c1f0 .LASF4968
C:\Users\SOLDER~1\AppData\Local\Temp\ccfBhFEg.s:30960  .debug_str:00000000000255d4 .LASF4969
C:\Users\SOLDER~1\AppData\Local\Temp\ccfBhFEg.s:27904  .debug_str:000000000001911b .LASF4970
C:\Users\SOLDER~1\AppData\Local\Temp\ccfBhFEg.s:28364  .debug_str:000000000001ae5a .LASF4971
C:\Users\SOLDER~1\AppData\Local\Temp\ccfBhFEg.s:22812  .debug_str:00000000000046a0 .LASF4972
C:\Users\SOLDER~1\AppData\Local\Temp\ccfBhFEg.s:32594  .debug_str:000000000002c02e .LASF4973
C:\Users\SOLDER~1\AppData\Local\Temp\ccfBhFEg.s:26156  .debug_str:0000000000011f59 .LASF4974
C:\Users\SOLDER~1\AppData\Local\Temp\ccfBhFEg.s:22032  .debug_str:00000000000014a4 .LASF4975
C:\Users\SOLDER~1\AppData\Local\Temp\ccfBhFEg.s:22610  .debug_str:00000000000039de .LASF4976
C:\Users\SOLDER~1\AppData\Local\Temp\ccfBhFEg.s:25974  .debug_str:00000000000113cb .LASF4977
C:\Users\SOLDER~1\AppData\Local\Temp\ccfBhFEg.s:22372  .debug_str:0000000000002a98 .LASF4978
C:\Users\SOLDER~1\AppData\Local\Temp\ccfBhFEg.s:29516  .debug_str:000000000001f8d1 .LASF4979
C:\Users\SOLDER~1\AppData\Local\Temp\ccfBhFEg.s:28836  .debug_str:000000000001cc80 .LASF4980
C:\Users\SOLDER~1\AppData\Local\Temp\ccfBhFEg.s:33416  .debug_str:000000000002f4f3 .LASF4981
C:\Users\SOLDER~1\AppData\Local\Temp\ccfBhFEg.s:33362  .debug_str:000000000002f1d1 .LASF4982
C:\Users\SOLDER~1\AppData\Local\Temp\ccfBhFEg.s:32280  .debug_str:000000000002abd2 .LASF4983
C:\Users\SOLDER~1\AppData\Local\Temp\ccfBhFEg.s:29564  .debug_str:000000000001fc3e .LASF4984
C:\Users\SOLDER~1\AppData\Local\Temp\ccfBhFEg.s:24032  .debug_str:00000000000095f9 .LASF4985
C:\Users\SOLDER~1\AppData\Local\Temp\ccfBhFEg.s:29876  .debug_str:0000000000020fe8 .LASF4986
C:\Users\SOLDER~1\AppData\Local\Temp\ccfBhFEg.s:30382  .debug_str:0000000000023007 .LASF4987
C:\Users\SOLDER~1\AppData\Local\Temp\ccfBhFEg.s:32032  .debug_str:0000000000029ba3 .LASF4988
C:\Users\SOLDER~1\AppData\Local\Temp\ccfBhFEg.s:26498  .debug_str:000000000001353b .LASF4989
C:\Users\SOLDER~1\AppData\Local\Temp\ccfBhFEg.s:27634  .debug_str:0000000000017fa9 .LASF4990
C:\Users\SOLDER~1\AppData\Local\Temp\ccfBhFEg.s:22468  .debug_str:00000000000030a3 .LASF4991
C:\Users\SOLDER~1\AppData\Local\Temp\ccfBhFEg.s:30410  .debug_str:00000000000231ea .LASF4992
GAS LISTING C:\Users\SOLDER~1\AppData\Local\Temp\ccfBhFEg.s 			page 161


C:\Users\SOLDER~1\AppData\Local\Temp\ccfBhFEg.s:32378  .debug_str:000000000002b202 .LASF4993
C:\Users\SOLDER~1\AppData\Local\Temp\ccfBhFEg.s:30714  .debug_str:0000000000024563 .LASF4994
C:\Users\SOLDER~1\AppData\Local\Temp\ccfBhFEg.s:26208  .debug_str:0000000000012287 .LASF4995
C:\Users\SOLDER~1\AppData\Local\Temp\ccfBhFEg.s:30780  .debug_str:00000000000249c3 .LASF4996
C:\Users\SOLDER~1\AppData\Local\Temp\ccfBhFEg.s:32546  .debug_str:000000000002bce3 .LASF4997
C:\Users\SOLDER~1\AppData\Local\Temp\ccfBhFEg.s:26668  .debug_str:000000000001411f .LASF4998
C:\Users\SOLDER~1\AppData\Local\Temp\ccfBhFEg.s:24236  .debug_str:000000000000a2eb .LASF4999
C:\Users\SOLDER~1\AppData\Local\Temp\ccfBhFEg.s:31534  .debug_str:0000000000027b61 .LASF5000
C:\Users\SOLDER~1\AppData\Local\Temp\ccfBhFEg.s:31102  .debug_str:0000000000025ebb .LASF5001
C:\Users\SOLDER~1\AppData\Local\Temp\ccfBhFEg.s:30342  .debug_str:0000000000022d40 .LASF5002
C:\Users\SOLDER~1\AppData\Local\Temp\ccfBhFEg.s:28760  .debug_str:000000000001c789 .LASF5003
C:\Users\SOLDER~1\AppData\Local\Temp\ccfBhFEg.s:25676  .debug_str:00000000000100d1 .LASF5004
C:\Users\SOLDER~1\AppData\Local\Temp\ccfBhFEg.s:30540  .debug_str:0000000000023a20 .LASF5005
C:\Users\SOLDER~1\AppData\Local\Temp\ccfBhFEg.s:31640  .debug_str:0000000000028210 .LASF5006
C:\Users\SOLDER~1\AppData\Local\Temp\ccfBhFEg.s:24454  .debug_str:000000000000b130 .LASF5007
C:\Users\SOLDER~1\AppData\Local\Temp\ccfBhFEg.s:27578  .debug_str:0000000000017c07 .LASF5008
C:\Users\SOLDER~1\AppData\Local\Temp\ccfBhFEg.s:27172  .debug_str:00000000000161f5 .LASF5009
C:\Users\SOLDER~1\AppData\Local\Temp\ccfBhFEg.s:30848  .debug_str:0000000000024e4c .LASF5010
C:\Users\SOLDER~1\AppData\Local\Temp\ccfBhFEg.s:31716  .debug_str:0000000000028745 .LASF5011
C:\Users\SOLDER~1\AppData\Local\Temp\ccfBhFEg.s:26734  .debug_str:00000000000145a6 .LASF5012
C:\Users\SOLDER~1\AppData\Local\Temp\ccfBhFEg.s:31754  .debug_str:00000000000289ac .LASF5013
C:\Users\SOLDER~1\AppData\Local\Temp\ccfBhFEg.s:32094  .debug_str:0000000000029f6e .LASF5014
C:\Users\SOLDER~1\AppData\Local\Temp\ccfBhFEg.s:26696  .debug_str:0000000000014308 .LASF5015
C:\Users\SOLDER~1\AppData\Local\Temp\ccfBhFEg.s:30718  .debug_str:00000000000245b6 .LASF5016
C:\Users\SOLDER~1\AppData\Local\Temp\ccfBhFEg.s:26778  .debug_str:00000000000148c9 .LASF5017
C:\Users\SOLDER~1\AppData\Local\Temp\ccfBhFEg.s:27466  .debug_str:0000000000017443 .LASF5018
C:\Users\SOLDER~1\AppData\Local\Temp\ccfBhFEg.s:27046  .debug_str:0000000000015a86 .LASF5019
C:\Users\SOLDER~1\AppData\Local\Temp\ccfBhFEg.s:28150  .debug_str:000000000001a0e2 .LASF5020
C:\Users\SOLDER~1\AppData\Local\Temp\ccfBhFEg.s:24860  .debug_str:000000000000cb87 .LASF5021
C:\Users\SOLDER~1\AppData\Local\Temp\ccfBhFEg.s:31468  .debug_str:00000000000276f8 .LASF5022
C:\Users\SOLDER~1\AppData\Local\Temp\ccfBhFEg.s:32508  .debug_str:000000000002ba71 .LASF5023
C:\Users\SOLDER~1\AppData\Local\Temp\ccfBhFEg.s:27788  .debug_str:00000000000189b1 .LASF5024
C:\Users\SOLDER~1\AppData\Local\Temp\ccfBhFEg.s:26490  .debug_str:000000000001349e .LASF5025
C:\Users\SOLDER~1\AppData\Local\Temp\ccfBhFEg.s:26200  .debug_str:00000000000121fe .LASF5026
C:\Users\SOLDER~1\AppData\Local\Temp\ccfBhFEg.s:29758  .debug_str:0000000000020846 .LASF5027
C:\Users\SOLDER~1\AppData\Local\Temp\ccfBhFEg.s:26838  .debug_str:0000000000014ca3 .LASF5028
C:\Users\SOLDER~1\AppData\Local\Temp\ccfBhFEg.s:28440  .debug_str:000000000001b343 .LASF5029
C:\Users\SOLDER~1\AppData\Local\Temp\ccfBhFEg.s:25710  .debug_str:000000000001030c .LASF5030
C:\Users\SOLDER~1\AppData\Local\Temp\ccfBhFEg.s:31360  .debug_str:0000000000026ff9 .LASF5031
C:\Users\SOLDER~1\AppData\Local\Temp\ccfBhFEg.s:29556  .debug_str:000000000001fbbc .LASF5032
C:\Users\SOLDER~1\AppData\Local\Temp\ccfBhFEg.s:22264  .debug_str:00000000000023a6 .LASF5033
C:\Users\SOLDER~1\AppData\Local\Temp\ccfBhFEg.s:22020  .debug_str:00000000000013d5 .LASF5034
C:\Users\SOLDER~1\AppData\Local\Temp\ccfBhFEg.s:23118  .debug_str:00000000000059cb .LASF5035
C:\Users\SOLDER~1\AppData\Local\Temp\ccfBhFEg.s:25728  .debug_str:0000000000010405 .LASF5036
C:\Users\SOLDER~1\AppData\Local\Temp\ccfBhFEg.s:26260  .debug_str:00000000000125e3 .LASF5037
C:\Users\SOLDER~1\AppData\Local\Temp\ccfBhFEg.s:22044  .debug_str:0000000000001574 .LASF5038
C:\Users\SOLDER~1\AppData\Local\Temp\ccfBhFEg.s:28600  .debug_str:000000000001bd3c .LASF5039
C:\Users\SOLDER~1\AppData\Local\Temp\ccfBhFEg.s:26514  .debug_str:0000000000013670 .LASF5040
C:\Users\SOLDER~1\AppData\Local\Temp\ccfBhFEg.s:30082  .debug_str:0000000000021d3e .LASF5041
C:\Users\SOLDER~1\AppData\Local\Temp\ccfBhFEg.s:27800  .debug_str:0000000000018a66 .LASF5042
C:\Users\SOLDER~1\AppData\Local\Temp\ccfBhFEg.s:29592  .debug_str:000000000001fdfc .LASF5043
C:\Users\SOLDER~1\AppData\Local\Temp\ccfBhFEg.s:27850  .debug_str:0000000000018d9c .LASF5044
C:\Users\SOLDER~1\AppData\Local\Temp\ccfBhFEg.s:26560  .debug_str:0000000000013993 .LASF5045
C:\Users\SOLDER~1\AppData\Local\Temp\ccfBhFEg.s:24038  .debug_str:000000000000965b .LASF5046
C:\Users\SOLDER~1\AppData\Local\Temp\ccfBhFEg.s:30660  .debug_str:00000000000241ef .LASF5047
C:\Users\SOLDER~1\AppData\Local\Temp\ccfBhFEg.s:31816  .debug_str:0000000000028db5 .LASF5048
C:\Users\SOLDER~1\AppData\Local\Temp\ccfBhFEg.s:30000  .debug_str:0000000000021834 .LASF5049
GAS LISTING C:\Users\SOLDER~1\AppData\Local\Temp\ccfBhFEg.s 			page 162


C:\Users\SOLDER~1\AppData\Local\Temp\ccfBhFEg.s:29998  .debug_str:0000000000021815 .LASF5050
C:\Users\SOLDER~1\AppData\Local\Temp\ccfBhFEg.s:21916  .debug_str:0000000000000d5d .LASF5051
C:\Users\SOLDER~1\AppData\Local\Temp\ccfBhFEg.s:33422  .debug_str:000000000002f54c .LASF5052
C:\Users\SOLDER~1\AppData\Local\Temp\ccfBhFEg.s:30592  .debug_str:0000000000023db4 .LASF5053
C:\Users\SOLDER~1\AppData\Local\Temp\ccfBhFEg.s:24182  .debug_str:0000000000009f6e .LASF5054
C:\Users\SOLDER~1\AppData\Local\Temp\ccfBhFEg.s:26526  .debug_str:000000000001371e .LASF5055
C:\Users\SOLDER~1\AppData\Local\Temp\ccfBhFEg.s:32634  .debug_str:000000000002c2a7 .LASF5056
C:\Users\SOLDER~1\AppData\Local\Temp\ccfBhFEg.s:28070  .debug_str:0000000000019c57 .LASF5057
C:\Users\SOLDER~1\AppData\Local\Temp\ccfBhFEg.s:26174  .debug_str:000000000001208e .LASF5058
C:\Users\SOLDER~1\AppData\Local\Temp\ccfBhFEg.s:32164  .debug_str:000000000002a437 .LASF5059
C:\Users\SOLDER~1\AppData\Local\Temp\ccfBhFEg.s:26670  .debug_str:000000000001414d .LASF5060
C:\Users\SOLDER~1\AppData\Local\Temp\ccfBhFEg.s:22112  .debug_str:0000000000001996 .LASF5061
C:\Users\SOLDER~1\AppData\Local\Temp\ccfBhFEg.s:27348  .debug_str:0000000000016cef .LASF5062
C:\Users\SOLDER~1\AppData\Local\Temp\ccfBhFEg.s:25228  .debug_str:000000000000e369 .LASF5063
C:\Users\SOLDER~1\AppData\Local\Temp\ccfBhFEg.s:24496  .debug_str:000000000000b3b3 .LASF5064
C:\Users\SOLDER~1\AppData\Local\Temp\ccfBhFEg.s:24864  .debug_str:000000000000cbcc .LASF5065
C:\Users\SOLDER~1\AppData\Local\Temp\ccfBhFEg.s:21856  .debug_str:0000000000000918 .LASF5066
C:\Users\SOLDER~1\AppData\Local\Temp\ccfBhFEg.s:30858  .debug_str:0000000000024f14 .LASF5067
C:\Users\SOLDER~1\AppData\Local\Temp\ccfBhFEg.s:22434  .debug_str:0000000000002e66 .LASF5068
C:\Users\SOLDER~1\AppData\Local\Temp\ccfBhFEg.s:24370  .debug_str:000000000000ac05 .LASF5069
C:\Users\SOLDER~1\AppData\Local\Temp\ccfBhFEg.s:23668  .debug_str:0000000000007dd1 .LASF5070
C:\Users\SOLDER~1\AppData\Local\Temp\ccfBhFEg.s:32844  .debug_str:000000000002d051 .LASF5071
C:\Users\SOLDER~1\AppData\Local\Temp\ccfBhFEg.s:28678  .debug_str:000000000001c1ec .LASF5072
C:\Users\SOLDER~1\AppData\Local\Temp\ccfBhFEg.s:24654  .debug_str:000000000000bdd7 .LASF5073
C:\Users\SOLDER~1\AppData\Local\Temp\ccfBhFEg.s:27006  .debug_str:00000000000157bf .LASF5074
C:\Users\SOLDER~1\AppData\Local\Temp\ccfBhFEg.s:23918  .debug_str:0000000000008e55 .LASF5075
C:\Users\SOLDER~1\AppData\Local\Temp\ccfBhFEg.s:31704  .debug_str:0000000000028669 .LASF5076
C:\Users\SOLDER~1\AppData\Local\Temp\ccfBhFEg.s:26154  .debug_str:0000000000011f2a .LASF5077
C:\Users\SOLDER~1\AppData\Local\Temp\ccfBhFEg.s:23518  .debug_str:0000000000007449 .LASF5078
C:\Users\SOLDER~1\AppData\Local\Temp\ccfBhFEg.s:22158  .debug_str:0000000000001cc7 .LASF5079
C:\Users\SOLDER~1\AppData\Local\Temp\ccfBhFEg.s:30414  .debug_str:0000000000023225 .LASF5080
C:\Users\SOLDER~1\AppData\Local\Temp\ccfBhFEg.s:26112  .debug_str:0000000000011c68 .LASF5081
C:\Users\SOLDER~1\AppData\Local\Temp\ccfBhFEg.s:24002  .debug_str:00000000000093d2 .LASF5082
C:\Users\SOLDER~1\AppData\Local\Temp\ccfBhFEg.s:23732  .debug_str:000000000000821b .LASF5083
C:\Users\SOLDER~1\AppData\Local\Temp\ccfBhFEg.s:29012  .debug_str:000000000001d814 .LASF5084
C:\Users\SOLDER~1\AppData\Local\Temp\ccfBhFEg.s:31268  .debug_str:00000000000269f1 .LASF5085
C:\Users\SOLDER~1\AppData\Local\Temp\ccfBhFEg.s:33334  .debug_str:000000000002efe5 .LASF5086
C:\Users\SOLDER~1\AppData\Local\Temp\ccfBhFEg.s:24548  .debug_str:000000000000b75f .LASF5087
C:\Users\SOLDER~1\AppData\Local\Temp\ccfBhFEg.s:24184  .debug_str:0000000000009f95 .LASF5088
C:\Users\SOLDER~1\AppData\Local\Temp\ccfBhFEg.s:23894  .debug_str:0000000000008cbd .LASF5089
C:\Users\SOLDER~1\AppData\Local\Temp\ccfBhFEg.s:30642  .debug_str:00000000000240b0 .LASF5090
C:\Users\SOLDER~1\AppData\Local\Temp\ccfBhFEg.s:24180  .debug_str:0000000000009f41 .LASF5091
C:\Users\SOLDER~1\AppData\Local\Temp\ccfBhFEg.s:29428  .debug_str:000000000001f2f8 .LASF5092
C:\Users\SOLDER~1\AppData\Local\Temp\ccfBhFEg.s:24658  .debug_str:000000000000be26 .LASF5093
C:\Users\SOLDER~1\AppData\Local\Temp\ccfBhFEg.s:23984  .debug_str:000000000000929f .LASF5094
C:\Users\SOLDER~1\AppData\Local\Temp\ccfBhFEg.s:31686  .debug_str:0000000000028528 .LASF5095
C:\Users\SOLDER~1\AppData\Local\Temp\ccfBhFEg.s:26796  .debug_str:00000000000149de .LASF5096
C:\Users\SOLDER~1\AppData\Local\Temp\ccfBhFEg.s:31832  .debug_str:0000000000028ed1 .LASF5097
C:\Users\SOLDER~1\AppData\Local\Temp\ccfBhFEg.s:28518  .debug_str:000000000001b809 .LASF5098
C:\Users\SOLDER~1\AppData\Local\Temp\ccfBhFEg.s:23734  .debug_str:0000000000008249 .LASF5099
C:\Users\SOLDER~1\AppData\Local\Temp\ccfBhFEg.s:28106  .debug_str:0000000000019e55 .LASF5100
C:\Users\SOLDER~1\AppData\Local\Temp\ccfBhFEg.s:21910  .debug_str:0000000000000cde .LASF5101
C:\Users\SOLDER~1\AppData\Local\Temp\ccfBhFEg.s:28616  .debug_str:000000000001be07 .LASF5102
C:\Users\SOLDER~1\AppData\Local\Temp\ccfBhFEg.s:30724  .debug_str:0000000000024606 .LASF5103
C:\Users\SOLDER~1\AppData\Local\Temp\ccfBhFEg.s:22108  .debug_str:000000000000194b .LASF5104
C:\Users\SOLDER~1\AppData\Local\Temp\ccfBhFEg.s:29616  .debug_str:000000000001ff71 .LASF5105
C:\Users\SOLDER~1\AppData\Local\Temp\ccfBhFEg.s:22638  .debug_str:0000000000003ba3 .LASF5106
GAS LISTING C:\Users\SOLDER~1\AppData\Local\Temp\ccfBhFEg.s 			page 163


C:\Users\SOLDER~1\AppData\Local\Temp\ccfBhFEg.s:22562  .debug_str:00000000000036b3 .LASF5107
C:\Users\SOLDER~1\AppData\Local\Temp\ccfBhFEg.s:31110  .debug_str:0000000000025f5b .LASF5108
C:\Users\SOLDER~1\AppData\Local\Temp\ccfBhFEg.s:28874  .debug_str:000000000001cee5 .LASF5109
C:\Users\SOLDER~1\AppData\Local\Temp\ccfBhFEg.s:26258  .debug_str:00000000000125c3 .LASF5110
C:\Users\SOLDER~1\AppData\Local\Temp\ccfBhFEg.s:31902  .debug_str:0000000000029348 .LASF5111
C:\Users\SOLDER~1\AppData\Local\Temp\ccfBhFEg.s:25774  .debug_str:0000000000010729 .LASF5112
C:\Users\SOLDER~1\AppData\Local\Temp\ccfBhFEg.s:23384  .debug_str:0000000000006b76 .LASF5113
C:\Users\SOLDER~1\AppData\Local\Temp\ccfBhFEg.s:28434  .debug_str:000000000001b2e4 .LASF5114
C:\Users\SOLDER~1\AppData\Local\Temp\ccfBhFEg.s:24618  .debug_str:000000000000bb6e .LASF5115
C:\Users\SOLDER~1\AppData\Local\Temp\ccfBhFEg.s:28620  .debug_str:000000000001be3b .LASF5116
C:\Users\SOLDER~1\AppData\Local\Temp\ccfBhFEg.s:25538  .debug_str:000000000000f74a .LASF5117
C:\Users\SOLDER~1\AppData\Local\Temp\ccfBhFEg.s:25748  .debug_str:0000000000010542 .LASF5118
C:\Users\SOLDER~1\AppData\Local\Temp\ccfBhFEg.s:25500  .debug_str:000000000000f4ee .LASF5119
C:\Users\SOLDER~1\AppData\Local\Temp\ccfBhFEg.s:33412  .debug_str:000000000002f4ae .LASF5120
C:\Users\SOLDER~1\AppData\Local\Temp\ccfBhFEg.s:24968  .debug_str:000000000000d2b9 .LASF5121
C:\Users\SOLDER~1\AppData\Local\Temp\ccfBhFEg.s:25644  .debug_str:000000000000fe8d .LASF5122
C:\Users\SOLDER~1\AppData\Local\Temp\ccfBhFEg.s:22730  .debug_str:0000000000004164 .LASF5123
C:\Users\SOLDER~1\AppData\Local\Temp\ccfBhFEg.s:26178  .debug_str:00000000000120d5 .LASF5124
C:\Users\SOLDER~1\AppData\Local\Temp\ccfBhFEg.s:27338  .debug_str:0000000000016c4d .LASF5125
C:\Users\SOLDER~1\AppData\Local\Temp\ccfBhFEg.s:23278  .debug_str:000000000000645a .LASF5126
C:\Users\SOLDER~1\AppData\Local\Temp\ccfBhFEg.s:31706  .debug_str:0000000000028690 .LASF5127
C:\Users\SOLDER~1\AppData\Local\Temp\ccfBhFEg.s:30364  .debug_str:0000000000022ecb .LASF5128
C:\Users\SOLDER~1\AppData\Local\Temp\ccfBhFEg.s:26592  .debug_str:0000000000013b8f .LASF5129
C:\Users\SOLDER~1\AppData\Local\Temp\ccfBhFEg.s:30050  .debug_str:0000000000021b56 .LASF5130
C:\Users\SOLDER~1\AppData\Local\Temp\ccfBhFEg.s:30842  .debug_str:0000000000024df6 .LASF5131
C:\Users\SOLDER~1\AppData\Local\Temp\ccfBhFEg.s:27246  .debug_str:00000000000166bc .LASF5132
C:\Users\SOLDER~1\AppData\Local\Temp\ccfBhFEg.s:27354  .debug_str:0000000000016d59 .LASF5133
C:\Users\SOLDER~1\AppData\Local\Temp\ccfBhFEg.s:30692  .debug_str:000000000002440d .LASF5134
C:\Users\SOLDER~1\AppData\Local\Temp\ccfBhFEg.s:33004  .debug_str:000000000002db12 .LASF5135
C:\Users\SOLDER~1\AppData\Local\Temp\ccfBhFEg.s:28248  .debug_str:000000000001a703 .LASF5136
C:\Users\SOLDER~1\AppData\Local\Temp\ccfBhFEg.s:28576  .debug_str:000000000001bbc5 .LASF5137
C:\Users\SOLDER~1\AppData\Local\Temp\ccfBhFEg.s:29842  .debug_str:0000000000020dbe .LASF5138
C:\Users\SOLDER~1\AppData\Local\Temp\ccfBhFEg.s:22758  .debug_str:0000000000004342 .LASF5139
C:\Users\SOLDER~1\AppData\Local\Temp\ccfBhFEg.s:27452  .debug_str:000000000001734a .LASF5140
C:\Users\SOLDER~1\AppData\Local\Temp\ccfBhFEg.s:31090  .debug_str:0000000000025de3 .LASF5141
C:\Users\SOLDER~1\AppData\Local\Temp\ccfBhFEg.s:22086  .debug_str:0000000000001824 .LASF5142
C:\Users\SOLDER~1\AppData\Local\Temp\ccfBhFEg.s:26106  .debug_str:0000000000011c0d .LASF5143
C:\Users\SOLDER~1\AppData\Local\Temp\ccfBhFEg.s:26114  .debug_str:0000000000011c92 .LASF5144
C:\Users\SOLDER~1\AppData\Local\Temp\ccfBhFEg.s:24380  .debug_str:000000000000acb6 .LASF5145
C:\Users\SOLDER~1\AppData\Local\Temp\ccfBhFEg.s:24770  .debug_str:000000000000c55c .LASF5146
C:\Users\SOLDER~1\AppData\Local\Temp\ccfBhFEg.s:31884  .debug_str:000000000002921f .LASF5147
C:\Users\SOLDER~1\AppData\Local\Temp\ccfBhFEg.s:23764  .debug_str:000000000000844e .LASF5148
C:\Users\SOLDER~1\AppData\Local\Temp\ccfBhFEg.s:22766  .debug_str:00000000000043b6 .LASF5149
C:\Users\SOLDER~1\AppData\Local\Temp\ccfBhFEg.s:25044  .debug_str:000000000000d7cb .LASF5150
C:\Users\SOLDER~1\AppData\Local\Temp\ccfBhFEg.s:29880  .debug_str:000000000002102d .LASF5151
C:\Users\SOLDER~1\AppData\Local\Temp\ccfBhFEg.s:25524  .debug_str:000000000000f681 .LASF5152
C:\Users\SOLDER~1\AppData\Local\Temp\ccfBhFEg.s:22514  .debug_str:00000000000033a2 .LASF5153
C:\Users\SOLDER~1\AppData\Local\Temp\ccfBhFEg.s:32340  .debug_str:000000000002af60 .LASF5154
C:\Users\SOLDER~1\AppData\Local\Temp\ccfBhFEg.s:25834  .debug_str:0000000000010acd .LASF5155
C:\Users\SOLDER~1\AppData\Local\Temp\ccfBhFEg.s:32150  .debug_str:000000000002a32e .LASF5156
C:\Users\SOLDER~1\AppData\Local\Temp\ccfBhFEg.s:25602  .debug_str:000000000000fb93 .LASF5157
C:\Users\SOLDER~1\AppData\Local\Temp\ccfBhFEg.s:22284  .debug_str:0000000000002508 .LASF5158
C:\Users\SOLDER~1\AppData\Local\Temp\ccfBhFEg.s:28264  .debug_str:000000000001a7ee .LASF5159
C:\Users\SOLDER~1\AppData\Local\Temp\ccfBhFEg.s:22566  .debug_str:00000000000036f4 .LASF5160
C:\Users\SOLDER~1\AppData\Local\Temp\ccfBhFEg.s:22970  .debug_str:0000000000005075 .LASF5161
C:\Users\SOLDER~1\AppData\Local\Temp\ccfBhFEg.s:32238  .debug_str:000000000002a94a .LASF5162
C:\Users\SOLDER~1\AppData\Local\Temp\ccfBhFEg.s:21774  .debug_str:00000000000002f7 .LASF5163
GAS LISTING C:\Users\SOLDER~1\AppData\Local\Temp\ccfBhFEg.s 			page 164


C:\Users\SOLDER~1\AppData\Local\Temp\ccfBhFEg.s:23474  .debug_str:000000000000719b .LASF5164
C:\Users\SOLDER~1\AppData\Local\Temp\ccfBhFEg.s:32484  .debug_str:000000000002b92c .LASF5165
C:\Users\SOLDER~1\AppData\Local\Temp\ccfBhFEg.s:24376  .debug_str:000000000000ac74 .LASF5166
C:\Users\SOLDER~1\AppData\Local\Temp\ccfBhFEg.s:31242  .debug_str:0000000000026842 .LASF5167
C:\Users\SOLDER~1\AppData\Local\Temp\ccfBhFEg.s:32614  .debug_str:000000000002c158 .LASF5168
C:\Users\SOLDER~1\AppData\Local\Temp\ccfBhFEg.s:25778  .debug_str:0000000000010763 .LASF5169
C:\Users\SOLDER~1\AppData\Local\Temp\ccfBhFEg.s:24774  .debug_str:000000000000c5af .LASF5170
C:\Users\SOLDER~1\AppData\Local\Temp\ccfBhFEg.s:30906  .debug_str:000000000002523f .LASF5171
C:\Users\SOLDER~1\AppData\Local\Temp\ccfBhFEg.s:22304  .debug_str:0000000000002632 .LASF5172
C:\Users\SOLDER~1\AppData\Local\Temp\ccfBhFEg.s:26022  .debug_str:00000000000116af .LASF5173
C:\Users\SOLDER~1\AppData\Local\Temp\ccfBhFEg.s:33234  .debug_str:000000000002e96a .LASF5174
C:\Users\SOLDER~1\AppData\Local\Temp\ccfBhFEg.s:24890  .debug_str:000000000000cd9b .LASF5175
C:\Users\SOLDER~1\AppData\Local\Temp\ccfBhFEg.s:28938  .debug_str:000000000001d346 .LASF5176
C:\Users\SOLDER~1\AppData\Local\Temp\ccfBhFEg.s:27646  .debug_str:000000000001805e .LASF5177
C:\Users\SOLDER~1\AppData\Local\Temp\ccfBhFEg.s:23654  .debug_str:0000000000007cdc .LASF5178
C:\Users\SOLDER~1\AppData\Local\Temp\ccfBhFEg.s:33204  .debug_str:000000000002e784 .LASF5179
C:\Users\SOLDER~1\AppData\Local\Temp\ccfBhFEg.s:26672  .debug_str:0000000000014178 .LASF5180
C:\Users\SOLDER~1\AppData\Local\Temp\ccfBhFEg.s:22026  .debug_str:0000000000001433 .LASF5181
C:\Users\SOLDER~1\AppData\Local\Temp\ccfBhFEg.s:27138  .debug_str:0000000000015fdc .LASF5182
C:\Users\SOLDER~1\AppData\Local\Temp\ccfBhFEg.s:31416  .debug_str:0000000000027383 .LASF5183
C:\Users\SOLDER~1\AppData\Local\Temp\ccfBhFEg.s:26238  .debug_str:000000000001245e .LASF5184
C:\Users\SOLDER~1\AppData\Local\Temp\ccfBhFEg.s:31654  .debug_str:0000000000028322 .LASF5185
C:\Users\SOLDER~1\AppData\Local\Temp\ccfBhFEg.s:22116  .debug_str:00000000000019f0 .LASF5186
C:\Users\SOLDER~1\AppData\Local\Temp\ccfBhFEg.s:30290  .debug_str:00000000000229cd .LASF5187
C:\Users\SOLDER~1\AppData\Local\Temp\ccfBhFEg.s:28242  .debug_str:000000000001a69d .LASF5188
C:\Users\SOLDER~1\AppData\Local\Temp\ccfBhFEg.s:27158  .debug_str:000000000001611d .LASF5189
C:\Users\SOLDER~1\AppData\Local\Temp\ccfBhFEg.s:24390  .debug_str:000000000000ad39 .LASF5190
C:\Users\SOLDER~1\AppData\Local\Temp\ccfBhFEg.s:21862  .debug_str:000000000000097d .LASF5191
C:\Users\SOLDER~1\AppData\Local\Temp\ccfBhFEg.s:29386  .debug_str:000000000001f044 .LASF5192
C:\Users\SOLDER~1\AppData\Local\Temp\ccfBhFEg.s:32196  .debug_str:000000000002a64b .LASF5193
C:\Users\SOLDER~1\AppData\Local\Temp\ccfBhFEg.s:27594  .debug_str:0000000000017d0f .LASF5194
C:\Users\SOLDER~1\AppData\Local\Temp\ccfBhFEg.s:25740  .debug_str:00000000000104d4 .LASF5195
C:\Users\SOLDER~1\AppData\Local\Temp\ccfBhFEg.s:22432  .debug_str:0000000000002e48 .LASF5196
C:\Users\SOLDER~1\AppData\Local\Temp\ccfBhFEg.s:23588  .debug_str:0000000000007883 .LASF5197
C:\Users\SOLDER~1\AppData\Local\Temp\ccfBhFEg.s:29164  .debug_str:000000000001e189 .LASF5198
C:\Users\SOLDER~1\AppData\Local\Temp\ccfBhFEg.s:23690  .debug_str:0000000000007f42 .LASF5199
C:\Users\SOLDER~1\AppData\Local\Temp\ccfBhFEg.s:28828  .debug_str:000000000001cbfd .LASF5200
C:\Users\SOLDER~1\AppData\Local\Temp\ccfBhFEg.s:22506  .debug_str:0000000000003322 .LASF5201
C:\Users\SOLDER~1\AppData\Local\Temp\ccfBhFEg.s:23116  .debug_str:00000000000059a5 .LASF5202
C:\Users\SOLDER~1\AppData\Local\Temp\ccfBhFEg.s:32960  .debug_str:000000000002d838 .LASF5203
C:\Users\SOLDER~1\AppData\Local\Temp\ccfBhFEg.s:22526  .debug_str:000000000000347b .LASF5204
C:\Users\SOLDER~1\AppData\Local\Temp\ccfBhFEg.s:32758  .debug_str:000000000002cb07 .LASF5205
C:\Users\SOLDER~1\AppData\Local\Temp\ccfBhFEg.s:25472  .debug_str:000000000000f345 .LASF5206
C:\Users\SOLDER~1\AppData\Local\Temp\ccfBhFEg.s:25848  .debug_str:0000000000010bd0 .LASF5207
C:\Users\SOLDER~1\AppData\Local\Temp\ccfBhFEg.s:22714  .debug_str:000000000000405d .LASF5208
C:\Users\SOLDER~1\AppData\Local\Temp\ccfBhFEg.s:23088  .debug_str:00000000000057b2 .LASF5209
C:\Users\SOLDER~1\AppData\Local\Temp\ccfBhFEg.s:21944  .debug_str:0000000000000f03 .LASF5210
C:\Users\SOLDER~1\AppData\Local\Temp\ccfBhFEg.s:26582  .debug_str:0000000000013aff .LASF5211
C:\Users\SOLDER~1\AppData\Local\Temp\ccfBhFEg.s:30506  .debug_str:00000000000237df .LASF5212
C:\Users\SOLDER~1\AppData\Local\Temp\ccfBhFEg.s:27534  .debug_str:00000000000178fa .LASF5213
C:\Users\SOLDER~1\AppData\Local\Temp\ccfBhFEg.s:27442  .debug_str:00000000000172a0 .LASF5214
C:\Users\SOLDER~1\AppData\Local\Temp\ccfBhFEg.s:25404  .debug_str:000000000000eeeb .LASF5215
C:\Users\SOLDER~1\AppData\Local\Temp\ccfBhFEg.s:23470  .debug_str:000000000000714e .LASF5216
C:\Users\SOLDER~1\AppData\Local\Temp\ccfBhFEg.s:23742  .debug_str:00000000000082f5 .LASF5217
C:\Users\SOLDER~1\AppData\Local\Temp\ccfBhFEg.s:31982  .debug_str:0000000000029848 .LASF5218
C:\Users\SOLDER~1\AppData\Local\Temp\ccfBhFEg.s:27334  .debug_str:0000000000016bfc .LASF5219
C:\Users\SOLDER~1\AppData\Local\Temp\ccfBhFEg.s:24866  .debug_str:000000000000cbf7 .LASF5220
GAS LISTING C:\Users\SOLDER~1\AppData\Local\Temp\ccfBhFEg.s 			page 165


C:\Users\SOLDER~1\AppData\Local\Temp\ccfBhFEg.s:30652  .debug_str:0000000000024153 .LASF5221
C:\Users\SOLDER~1\AppData\Local\Temp\ccfBhFEg.s:28744  .debug_str:000000000001c661 .LASF5222
C:\Users\SOLDER~1\AppData\Local\Temp\ccfBhFEg.s:28954  .debug_str:000000000001d42c .LASF5223
C:\Users\SOLDER~1\AppData\Local\Temp\ccfBhFEg.s:23876  .debug_str:0000000000008b8e .LASF5224
C:\Users\SOLDER~1\AppData\Local\Temp\ccfBhFEg.s:24528  .debug_str:000000000000b5e8 .LASF5225
C:\Users\SOLDER~1\AppData\Local\Temp\ccfBhFEg.s:29258  .debug_str:000000000001e7ac .LASF5226
C:\Users\SOLDER~1\AppData\Local\Temp\ccfBhFEg.s:29622  .debug_str:000000000001ffce .LASF5227
C:\Users\SOLDER~1\AppData\Local\Temp\ccfBhFEg.s:24142  .debug_str:0000000000009cca .LASF5228
C:\Users\SOLDER~1\AppData\Local\Temp\ccfBhFEg.s:32458  .debug_str:000000000002b75c .LASF5229
C:\Users\SOLDER~1\AppData\Local\Temp\ccfBhFEg.s:31234  .debug_str:000000000002679e .LASF5230
C:\Users\SOLDER~1\AppData\Local\Temp\ccfBhFEg.s:22202  .debug_str:0000000000001fb4 .LASF5231
C:\Users\SOLDER~1\AppData\Local\Temp\ccfBhFEg.s:26500  .debug_str:0000000000013568 .LASF5232
C:\Users\SOLDER~1\AppData\Local\Temp\ccfBhFEg.s:33320  .debug_str:000000000002eef7 .LASF5233
C:\Users\SOLDER~1\AppData\Local\Temp\ccfBhFEg.s:26556  .debug_str:0000000000013942 .LASF5234
C:\Users\SOLDER~1\AppData\Local\Temp\ccfBhFEg.s:24264  .debug_str:000000000000a4a6 .LASF5235
C:\Users\SOLDER~1\AppData\Local\Temp\ccfBhFEg.s:30296  .debug_str:0000000000022a3f .LASF5236
C:\Users\SOLDER~1\AppData\Local\Temp\ccfBhFEg.s:27200  .debug_str:00000000000163bd .LASF5237
C:\Users\SOLDER~1\AppData\Local\Temp\ccfBhFEg.s:32110  .debug_str:000000000002a074 .LASF5238
C:\Users\SOLDER~1\AppData\Local\Temp\ccfBhFEg.s:27912  .debug_str:00000000000191b0 .LASF5239
C:\Users\SOLDER~1\AppData\Local\Temp\ccfBhFEg.s:31556  .debug_str:0000000000027ce4 .LASF5240
C:\Users\SOLDER~1\AppData\Local\Temp\ccfBhFEg.s:29364  .debug_str:000000000001eecb .LASF5241
C:\Users\SOLDER~1\AppData\Local\Temp\ccfBhFEg.s:26350  .debug_str:0000000000012b54 .LASF5242
C:\Users\SOLDER~1\AppData\Local\Temp\ccfBhFEg.s:27528  .debug_str:0000000000017885 .LASF5243
C:\Users\SOLDER~1\AppData\Local\Temp\ccfBhFEg.s:29022  .debug_str:000000000001d8d1 .LASF5244
C:\Users\SOLDER~1\AppData\Local\Temp\ccfBhFEg.s:22114  .debug_str:00000000000019c5 .LASF5245
C:\Users\SOLDER~1\AppData\Local\Temp\ccfBhFEg.s:30570  .debug_str:0000000000023c2e .LASF5246
C:\Users\SOLDER~1\AppData\Local\Temp\ccfBhFEg.s:25786  .debug_str:00000000000107f2 .LASF5247
C:\Users\SOLDER~1\AppData\Local\Temp\ccfBhFEg.s:23452  .debug_str:0000000000007020 .LASF5248
C:\Users\SOLDER~1\AppData\Local\Temp\ccfBhFEg.s:23002  .debug_str:0000000000005258 .LASF5249
C:\Users\SOLDER~1\AppData\Local\Temp\ccfBhFEg.s:25906  .debug_str:0000000000010f84 .LASF5250
C:\Users\SOLDER~1\AppData\Local\Temp\ccfBhFEg.s:23986  .debug_str:00000000000092cf .LASF5251
C:\Users\SOLDER~1\AppData\Local\Temp\ccfBhFEg.s:30942  .debug_str:00000000000254b2 .LASF5252
C:\Users\SOLDER~1\AppData\Local\Temp\ccfBhFEg.s:31988  .debug_str:00000000000298b6 .LASF5253
C:\Users\SOLDER~1\AppData\Local\Temp\ccfBhFEg.s:23122  .debug_str:00000000000059fe .LASF5254
C:\Users\SOLDER~1\AppData\Local\Temp\ccfBhFEg.s:27194  .debug_str:000000000001635b .LASF5255
C:\Users\SOLDER~1\AppData\Local\Temp\ccfBhFEg.s:24756  .debug_str:000000000000c471 .LASF5256
C:\Users\SOLDER~1\AppData\Local\Temp\ccfBhFEg.s:23636  .debug_str:0000000000007b8c .LASF5257
C:\Users\SOLDER~1\AppData\Local\Temp\ccfBhFEg.s:23510  .debug_str:00000000000073cb .LASF5258
C:\Users\SOLDER~1\AppData\Local\Temp\ccfBhFEg.s:30144  .debug_str:0000000000022125 .LASF5259
C:\Users\SOLDER~1\AppData\Local\Temp\ccfBhFEg.s:28162  .debug_str:000000000001a1ac .LASF5260
C:\Users\SOLDER~1\AppData\Local\Temp\ccfBhFEg.s:31568  .debug_str:0000000000027d92 .LASF5261
C:\Users\SOLDER~1\AppData\Local\Temp\ccfBhFEg.s:33414  .debug_str:000000000002f4cf .LASF5262
C:\Users\SOLDER~1\AppData\Local\Temp\ccfBhFEg.s:30358  .debug_str:0000000000022e52 .LASF5263
C:\Users\SOLDER~1\AppData\Local\Temp\ccfBhFEg.s:32878  .debug_str:000000000002d278 .LASF5264
C:\Users\SOLDER~1\AppData\Local\Temp\ccfBhFEg.s:22590  .debug_str:000000000000388b .LASF5265
C:\Users\SOLDER~1\AppData\Local\Temp\ccfBhFEg.s:32520  .debug_str:000000000002bb26 .LASF5266
C:\Users\SOLDER~1\AppData\Local\Temp\ccfBhFEg.s:32954  .debug_str:000000000002d7d6 .LASF5267
C:\Users\SOLDER~1\AppData\Local\Temp\ccfBhFEg.s:27670  .debug_str:00000000000181f3 .LASF5268
C:\Users\SOLDER~1\AppData\Local\Temp\ccfBhFEg.s:22472  .debug_str:00000000000030ec .LASF5269
C:\Users\SOLDER~1\AppData\Local\Temp\ccfBhFEg.s:24882  .debug_str:000000000000cd0e .LASF5270
C:\Users\SOLDER~1\AppData\Local\Temp\ccfBhFEg.s:32590  .debug_str:000000000002bfe8 .LASF5271
C:\Users\SOLDER~1\AppData\Local\Temp\ccfBhFEg.s:31962  .debug_str:00000000000296f5 .LASF5272
C:\Users\SOLDER~1\AppData\Local\Temp\ccfBhFEg.s:32908  .debug_str:000000000002d475 .LASF5273
C:\Users\SOLDER~1\AppData\Local\Temp\ccfBhFEg.s:30278  .debug_str:0000000000022921 .LASF5274
C:\Users\SOLDER~1\AppData\Local\Temp\ccfBhFEg.s:25986  .debug_str:0000000000011492 .LASF5275
C:\Users\SOLDER~1\AppData\Local\Temp\ccfBhFEg.s:23110  .debug_str:000000000000593e .LASF5276
C:\Users\SOLDER~1\AppData\Local\Temp\ccfBhFEg.s:32548  .debug_str:000000000002bd11 .LASF5277
GAS LISTING C:\Users\SOLDER~1\AppData\Local\Temp\ccfBhFEg.s 			page 166


C:\Users\SOLDER~1\AppData\Local\Temp\ccfBhFEg.s:27098  .debug_str:0000000000015d73 .LASF5278
C:\Users\SOLDER~1\AppData\Local\Temp\ccfBhFEg.s:26786  .debug_str:0000000000014944 .LASF5279
C:\Users\SOLDER~1\AppData\Local\Temp\ccfBhFEg.s:31718  .debug_str:0000000000028773 .LASF5280
C:\Users\SOLDER~1\AppData\Local\Temp\ccfBhFEg.s:22538  .debug_str:000000000000354c .LASF5281
C:\Users\SOLDER~1\AppData\Local\Temp\ccfBhFEg.s:26708  .debug_str:00000000000143ca .LASF5282
C:\Users\SOLDER~1\AppData\Local\Temp\ccfBhFEg.s:28256  .debug_str:000000000001a76b .LASF5283
C:\Users\SOLDER~1\AppData\Local\Temp\ccfBhFEg.s:22440  .debug_str:0000000000002ed0 .LASF5284
C:\Users\SOLDER~1\AppData\Local\Temp\ccfBhFEg.s:23700  .debug_str:0000000000007ff7 .LASF5285
C:\Users\SOLDER~1\AppData\Local\Temp\ccfBhFEg.s:28236  .debug_str:000000000001a636 .LASF5286
C:\Users\SOLDER~1\AppData\Local\Temp\ccfBhFEg.s:27854  .debug_str:0000000000018dcd .LASF5287
C:\Users\SOLDER~1\AppData\Local\Temp\ccfBhFEg.s:30850  .debug_str:0000000000024e7a .LASF5288
C:\Users\SOLDER~1\AppData\Local\Temp\ccfBhFEg.s:26256  .debug_str:00000000000125a3 .LASF5289
C:\Users\SOLDER~1\AppData\Local\Temp\ccfBhFEg.s:32660  .debug_str:000000000002c467 .LASF5290
C:\Users\SOLDER~1\AppData\Local\Temp\ccfBhFEg.s:26798  .debug_str:0000000000014a0e .LASF5291
C:\Users\SOLDER~1\AppData\Local\Temp\ccfBhFEg.s:25042  .debug_str:000000000000d7ab .LASF5292
C:\Users\SOLDER~1\AppData\Local\Temp\ccfBhFEg.s:32788  .debug_str:000000000002cce1 .LASF5293
C:\Users\SOLDER~1\AppData\Local\Temp\ccfBhFEg.s:31100  .debug_str:0000000000025e88 .LASF5294
C:\Users\SOLDER~1\AppData\Local\Temp\ccfBhFEg.s:26882  .debug_str:0000000000014fba .LASF5295
C:\Users\SOLDER~1\AppData\Local\Temp\ccfBhFEg.s:22894  .debug_str:0000000000004bbe .LASF5296
C:\Users\SOLDER~1\AppData\Local\Temp\ccfBhFEg.s:23078  .debug_str:00000000000056f3 .LASF5297
C:\Users\SOLDER~1\AppData\Local\Temp\ccfBhFEg.s:28214  .debug_str:000000000001a4d1 .LASF5298
C:\Users\SOLDER~1\AppData\Local\Temp\ccfBhFEg.s:30360  .debug_str:0000000000022e72 .LASF5299
C:\Users\SOLDER~1\AppData\Local\Temp\ccfBhFEg.s:22006  .debug_str:00000000000012fd .LASF5300
C:\Users\SOLDER~1\AppData\Local\Temp\ccfBhFEg.s:25612  .debug_str:000000000000fc6b .LASF5301
C:\Users\SOLDER~1\AppData\Local\Temp\ccfBhFEg.s:30510  .debug_str:000000000002382f .LASF5302
C:\Users\SOLDER~1\AppData\Local\Temp\ccfBhFEg.s:21790  .debug_str:0000000000000409 .LASF5303
C:\Users\SOLDER~1\AppData\Local\Temp\ccfBhFEg.s:32392  .debug_str:000000000002b2fa .LASF5304
C:\Users\SOLDER~1\AppData\Local\Temp\ccfBhFEg.s:33438  .debug_str:000000000002f649 .LASF5305
C:\Users\SOLDER~1\AppData\Local\Temp\ccfBhFEg.s:28066  .debug_str:0000000000019c0a .LASF5306
C:\Users\SOLDER~1\AppData\Local\Temp\ccfBhFEg.s:32720  .debug_str:000000000002c892 .LASF5307
C:\Users\SOLDER~1\AppData\Local\Temp\ccfBhFEg.s:28048  .debug_str:0000000000019abd .LASF5308
C:\Users\SOLDER~1\AppData\Local\Temp\ccfBhFEg.s:25762  .debug_str:000000000001063d .LASF5309
C:\Users\SOLDER~1\AppData\Local\Temp\ccfBhFEg.s:23652  .debug_str:0000000000007cb1 .LASF5310
C:\Users\SOLDER~1\AppData\Local\Temp\ccfBhFEg.s:26460  .debug_str:00000000000132c5 .LASF5311
C:\Users\SOLDER~1\AppData\Local\Temp\ccfBhFEg.s:29698  .debug_str:000000000002047f .LASF5312
C:\Users\SOLDER~1\AppData\Local\Temp\ccfBhFEg.s:26058  .debug_str:000000000001191d .LASF5313
C:\Users\SOLDER~1\AppData\Local\Temp\ccfBhFEg.s:24630  .debug_str:000000000000bc2c .LASF5314
C:\Users\SOLDER~1\AppData\Local\Temp\ccfBhFEg.s:28414  .debug_str:000000000001b175 .LASF5315
C:\Users\SOLDER~1\AppData\Local\Temp\ccfBhFEg.s:32920  .debug_str:000000000002d54e .LASF5316
C:\Users\SOLDER~1\AppData\Local\Temp\ccfBhFEg.s:30812  .debug_str:0000000000024c01 .LASF5317
C:\Users\SOLDER~1\AppData\Local\Temp\ccfBhFEg.s:28332  .debug_str:000000000001ac37 .LASF5318
C:\Users\SOLDER~1\AppData\Local\Temp\ccfBhFEg.s:29032  .debug_str:000000000001d980 .LASF5319
C:\Users\SOLDER~1\AppData\Local\Temp\ccfBhFEg.s:24582  .debug_str:000000000000b968 .LASF5320
C:\Users\SOLDER~1\AppData\Local\Temp\ccfBhFEg.s:27808  .debug_str:0000000000018b04 .LASF5321
C:\Users\SOLDER~1\AppData\Local\Temp\ccfBhFEg.s:31586  .debug_str:0000000000027eaf .LASF5322
C:\Users\SOLDER~1\AppData\Local\Temp\ccfBhFEg.s:25660  .debug_str:000000000000ffc8 .LASF5323
C:\Users\SOLDER~1\AppData\Local\Temp\ccfBhFEg.s:27894  .debug_str:0000000000019089 .LASF5324
C:\Users\SOLDER~1\AppData\Local\Temp\ccfBhFEg.s:26854  .debug_str:0000000000014dd6 .LASF5325
C:\Users\SOLDER~1\AppData\Local\Temp\ccfBhFEg.s:32538  .debug_str:000000000002bc5f .LASF5326
C:\Users\SOLDER~1\AppData\Local\Temp\ccfBhFEg.s:32998  .debug_str:000000000002dab3 .LASF5327
C:\Users\SOLDER~1\AppData\Local\Temp\ccfBhFEg.s:32846  .debug_str:000000000002d080 .LASF5328
C:\Users\SOLDER~1\AppData\Local\Temp\ccfBhFEg.s:23218  .debug_str:0000000000006031 .LASF5329
C:\Users\SOLDER~1\AppData\Local\Temp\ccfBhFEg.s:30916  .debug_str:00000000000252e8 .LASF5330
C:\Users\SOLDER~1\AppData\Local\Temp\ccfBhFEg.s:29536  .debug_str:000000000001fa31 .LASF5331
C:\Users\SOLDER~1\AppData\Local\Temp\ccfBhFEg.s:24340  .debug_str:000000000000a9ee .LASF5332
C:\Users\SOLDER~1\AppData\Local\Temp\ccfBhFEg.s:28076  .debug_str:0000000000019ccb .LASF5333
C:\Users\SOLDER~1\AppData\Local\Temp\ccfBhFEg.s:31508  .debug_str:00000000000279b5 .LASF5334
GAS LISTING C:\Users\SOLDER~1\AppData\Local\Temp\ccfBhFEg.s 			page 167


C:\Users\SOLDER~1\AppData\Local\Temp\ccfBhFEg.s:24848  .debug_str:000000000000cad7 .LASF5335
C:\Users\SOLDER~1\AppData\Local\Temp\ccfBhFEg.s:25982  .debug_str:0000000000011449 .LASF5336
C:\Users\SOLDER~1\AppData\Local\Temp\ccfBhFEg.s:24364  .debug_str:000000000000ab8a .LASF5337
C:\Users\SOLDER~1\AppData\Local\Temp\ccfBhFEg.s:32874  .debug_str:000000000002d23c .LASF5338
C:\Users\SOLDER~1\AppData\Local\Temp\ccfBhFEg.s:29360  .debug_str:000000000001ee7e .LASF5339
C:\Users\SOLDER~1\AppData\Local\Temp\ccfBhFEg.s:32946  .debug_str:000000000002d743 .LASF5340
C:\Users\SOLDER~1\AppData\Local\Temp\ccfBhFEg.s:28838  .debug_str:000000000001cca0 .LASF5341
C:\Users\SOLDER~1\AppData\Local\Temp\ccfBhFEg.s:23898  .debug_str:0000000000008d13 .LASF5342
C:\Users\SOLDER~1\AppData\Local\Temp\ccfBhFEg.s:26964  .debug_str:00000000000154f8 .LASF5343
C:\Users\SOLDER~1\AppData\Local\Temp\ccfBhFEg.s:33136  .debug_str:000000000002e37a .LASF5344
C:\Users\SOLDER~1\AppData\Local\Temp\ccfBhFEg.s:23082  .debug_str:0000000000005740 .LASF5345
C:\Users\SOLDER~1\AppData\Local\Temp\ccfBhFEg.s:26802  .debug_str:0000000000014a56 .LASF5346
C:\Users\SOLDER~1\AppData\Local\Temp\ccfBhFEg.s:32550  .debug_str:000000000002bd32 .LASF5347
C:\Users\SOLDER~1\AppData\Local\Temp\ccfBhFEg.s:32940  .debug_str:000000000002d6be .LASF5348
C:\Users\SOLDER~1\AppData\Local\Temp\ccfBhFEg.s:26062  .debug_str:0000000000011969 .LASF5349
C:\Users\SOLDER~1\AppData\Local\Temp\ccfBhFEg.s:22874  .debug_str:0000000000004a9b .LASF5350
C:\Users\SOLDER~1\AppData\Local\Temp\ccfBhFEg.s:22516  .debug_str:00000000000033c5 .LASF5351
C:\Users\SOLDER~1\AppData\Local\Temp\ccfBhFEg.s:28572  .debug_str:000000000001bb7d .LASF5352
C:\Users\SOLDER~1\AppData\Local\Temp\ccfBhFEg.s:21758  .debug_str:0000000000000216 .LASF5353
C:\Users\SOLDER~1\AppData\Local\Temp\ccfBhFEg.s:24336  .debug_str:000000000000a9b6 .LASF5354
C:\Users\SOLDER~1\AppData\Local\Temp\ccfBhFEg.s:22290  .debug_str:000000000000256b .LASF5355
C:\Users\SOLDER~1\AppData\Local\Temp\ccfBhFEg.s:28998  .debug_str:000000000001d730 .LASF5356
C:\Users\SOLDER~1\AppData\Local\Temp\ccfBhFEg.s:29860  .debug_str:0000000000020edd .LASF5357
C:\Users\SOLDER~1\AppData\Local\Temp\ccfBhFEg.s:24198  .debug_str:000000000000a09e .LASF5358
C:\Users\SOLDER~1\AppData\Local\Temp\ccfBhFEg.s:28602  .debug_str:000000000001bd5a .LASF5359
C:\Users\SOLDER~1\AppData\Local\Temp\ccfBhFEg.s:28138  .debug_str:000000000001a014 .LASF5360
C:\Users\SOLDER~1\AppData\Local\Temp\ccfBhFEg.s:22902  .debug_str:0000000000004c4b .LASF5361
C:\Users\SOLDER~1\AppData\Local\Temp\ccfBhFEg.s:32718  .debug_str:000000000002c86f .LASF5362
C:\Users\SOLDER~1\AppData\Local\Temp\ccfBhFEg.s:29744  .debug_str:0000000000020762 .LASF5363
C:\Users\SOLDER~1\AppData\Local\Temp\ccfBhFEg.s:30228  .debug_str:0000000000022644 .LASF5364
C:\Users\SOLDER~1\AppData\Local\Temp\ccfBhFEg.s:27300  .debug_str:0000000000016a1a .LASF5365
C:\Users\SOLDER~1\AppData\Local\Temp\ccfBhFEg.s:25800  .debug_str:00000000000108cd .LASF5366
C:\Users\SOLDER~1\AppData\Local\Temp\ccfBhFEg.s:27162  .debug_str:0000000000016165 .LASF5367
C:\Users\SOLDER~1\AppData\Local\Temp\ccfBhFEg.s:24876  .debug_str:000000000000ccb5 .LASF5368
C:\Users\SOLDER~1\AppData\Local\Temp\ccfBhFEg.s:31178  .debug_str:00000000000263cc .LASF5369
C:\Users\SOLDER~1\AppData\Local\Temp\ccfBhFEg.s:25678  .debug_str:00000000000100ff .LASF5370
C:\Users\SOLDER~1\AppData\Local\Temp\ccfBhFEg.s:24536  .debug_str:000000000000b67a .LASF5371
C:\Users\SOLDER~1\AppData\Local\Temp\ccfBhFEg.s:26458  .debug_str:00000000000132a0 .LASF5372
C:\Users\SOLDER~1\AppData\Local\Temp\ccfBhFEg.s:25516  .debug_str:000000000000f601 .LASF5373
C:\Users\SOLDER~1\AppData\Local\Temp\ccfBhFEg.s:22618  .debug_str:0000000000003a45 .LASF5374
C:\Users\SOLDER~1\AppData\Local\Temp\ccfBhFEg.s:24318  .debug_str:000000000000a884 .LASF5375
C:\Users\SOLDER~1\AppData\Local\Temp\ccfBhFEg.s:22780  .debug_str:0000000000004495 .LASF5376
C:\Users\SOLDER~1\AppData\Local\Temp\ccfBhFEg.s:24252  .debug_str:000000000000a408 .LASF5377
C:\Users\SOLDER~1\AppData\Local\Temp\ccfBhFEg.s:24158  .debug_str:0000000000009dc0 .LASF5378
C:\Users\SOLDER~1\AppData\Local\Temp\ccfBhFEg.s:32678  .debug_str:000000000002c593 .LASF5379
C:\Users\SOLDER~1\AppData\Local\Temp\ccfBhFEg.s:27434  .debug_str:0000000000017215 .LASF5380
C:\Users\SOLDER~1\AppData\Local\Temp\ccfBhFEg.s:28250  .debug_str:000000000001a715 .LASF5381
C:\Users\SOLDER~1\AppData\Local\Temp\ccfBhFEg.s:27040  .debug_str:0000000000015a1b .LASF5382
C:\Users\SOLDER~1\AppData\Local\Temp\ccfBhFEg.s:30094  .debug_str:0000000000021dfe .LASF5383
C:\Users\SOLDER~1\AppData\Local\Temp\ccfBhFEg.s:31232  .debug_str:0000000000026778 .LASF5384
C:\Users\SOLDER~1\AppData\Local\Temp\ccfBhFEg.s:24616  .debug_str:000000000000bb46 .LASF5385
C:\Users\SOLDER~1\AppData\Local\Temp\ccfBhFEg.s:23444  .debug_str:0000000000006f6c .LASF5386
C:\Users\SOLDER~1\AppData\Local\Temp\ccfBhFEg.s:24030  .debug_str:00000000000095c7 .LASF5387
C:\Users\SOLDER~1\AppData\Local\Temp\ccfBhFEg.s:24624  .debug_str:000000000000bbba .LASF5388
C:\Users\SOLDER~1\AppData\Local\Temp\ccfBhFEg.s:25570  .debug_str:000000000000f96f .LASF5389
C:\Users\SOLDER~1\AppData\Local\Temp\ccfBhFEg.s:28370  .debug_str:000000000001aeb1 .LASF5390
C:\Users\SOLDER~1\AppData\Local\Temp\ccfBhFEg.s:28984  .debug_str:000000000001d606 .LASF5391
GAS LISTING C:\Users\SOLDER~1\AppData\Local\Temp\ccfBhFEg.s 			page 168


C:\Users\SOLDER~1\AppData\Local\Temp\ccfBhFEg.s:32802  .debug_str:000000000002cdbc .LASF5392
C:\Users\SOLDER~1\AppData\Local\Temp\ccfBhFEg.s:32336  .debug_str:000000000002af23 .LASF5393
C:\Users\SOLDER~1\AppData\Local\Temp\ccfBhFEg.s:28900  .debug_str:000000000001d0b6 .LASF5394
C:\Users\SOLDER~1\AppData\Local\Temp\ccfBhFEg.s:25606  .debug_str:000000000000fbfc .LASF5395
C:\Users\SOLDER~1\AppData\Local\Temp\ccfBhFEg.s:27440  .debug_str:0000000000017275 .LASF5396
C:\Users\SOLDER~1\AppData\Local\Temp\ccfBhFEg.s:24954  .debug_str:000000000000d1df .LASF5397
C:\Users\SOLDER~1\AppData\Local\Temp\ccfBhFEg.s:24156  .debug_str:0000000000009d9d .LASF5398
C:\Users\SOLDER~1\AppData\Local\Temp\ccfBhFEg.s:31058  .debug_str:0000000000025bc2 .LASF5399
C:\Users\SOLDER~1\AppData\Local\Temp\ccfBhFEg.s:25684  .debug_str:0000000000010162 .LASF5400
C:\Users\SOLDER~1\AppData\Local\Temp\ccfBhFEg.s:33114  .debug_str:000000000002e1fa .LASF5401
C:\Users\SOLDER~1\AppData\Local\Temp\ccfBhFEg.s:29356  .debug_str:000000000001ee33 .LASF5402
C:\Users\SOLDER~1\AppData\Local\Temp\ccfBhFEg.s:21872  .debug_str:0000000000000a35 .LASF5403
C:\Users\SOLDER~1\AppData\Local\Temp\ccfBhFEg.s:26638  .debug_str:0000000000013f2e .LASF5404
C:\Users\SOLDER~1\AppData\Local\Temp\ccfBhFEg.s:24500  .debug_str:000000000000b400 .LASF5405
C:\Users\SOLDER~1\AppData\Local\Temp\ccfBhFEg.s:28404  .debug_str:000000000001b0a6 .LASF5406
C:\Users\SOLDER~1\AppData\Local\Temp\ccfBhFEg.s:24594  .debug_str:000000000000ba0e .LASF5407
C:\Users\SOLDER~1\AppData\Local\Temp\ccfBhFEg.s:27474  .debug_str:00000000000174c6 .LASF5408
C:\Users\SOLDER~1\AppData\Local\Temp\ccfBhFEg.s:32236  .debug_str:000000000002a927 .LASF5409
C:\Users\SOLDER~1\AppData\Local\Temp\ccfBhFEg.s:25340  .debug_str:000000000000eaf2 .LASF5410
C:\Users\SOLDER~1\AppData\Local\Temp\ccfBhFEg.s:23720  .debug_str:000000000000815b .LASF5411
C:\Users\SOLDER~1\AppData\Local\Temp\ccfBhFEg.s:25090  .debug_str:000000000000dad0 .LASF5412
C:\Users\SOLDER~1\AppData\Local\Temp\ccfBhFEg.s:31364  .debug_str:0000000000027046 .LASF5413
C:\Users\SOLDER~1\AppData\Local\Temp\ccfBhFEg.s:30704  .debug_str:00000000000244cf .LASF5414
C:\Users\SOLDER~1\AppData\Local\Temp\ccfBhFEg.s:32650  .debug_str:000000000002c3b3 .LASF5415
C:\Users\SOLDER~1\AppData\Local\Temp\ccfBhFEg.s:24980  .debug_str:000000000000d384 .LASF5416
C:\Users\SOLDER~1\AppData\Local\Temp\ccfBhFEg.s:30648  .debug_str:0000000000024111 .LASF5417
C:\Users\SOLDER~1\AppData\Local\Temp\ccfBhFEg.s:27816  .debug_str:0000000000018b75 .LASF5418
C:\Users\SOLDER~1\AppData\Local\Temp\ccfBhFEg.s:33390  .debug_str:000000000002f34e .LASF5419
C:\Users\SOLDER~1\AppData\Local\Temp\ccfBhFEg.s:28428  .debug_str:000000000001b281 .LASF5420
C:\Users\SOLDER~1\AppData\Local\Temp\ccfBhFEg.s:25766  .debug_str:0000000000010689 .LASF5421
C:\Users\SOLDER~1\AppData\Local\Temp\ccfBhFEg.s:23022  .debug_str:000000000000539b .LASF5422
C:\Users\SOLDER~1\AppData\Local\Temp\ccfBhFEg.s:24356  .debug_str:000000000000aafa .LASF5423
C:\Users\SOLDER~1\AppData\Local\Temp\ccfBhFEg.s:26770  .debug_str:000000000001481f .LASF5424
C:\Users\SOLDER~1\AppData\Local\Temp\ccfBhFEg.s:25018  .debug_str:000000000000d607 .LASF5425
C:\Users\SOLDER~1\AppData\Local\Temp\ccfBhFEg.s:24916  .debug_str:000000000000cf5c .LASF5426
C:\Users\SOLDER~1\AppData\Local\Temp\ccfBhFEg.s:29782  .debug_str:00000000000209dc .LASF5427
C:\Users\SOLDER~1\AppData\Local\Temp\ccfBhFEg.s:26850  .debug_str:0000000000014d8e .LASF5428
C:\Users\SOLDER~1\AppData\Local\Temp\ccfBhFEg.s:26090  .debug_str:0000000000011aed .LASF5429
C:\Users\SOLDER~1\AppData\Local\Temp\ccfBhFEg.s:22016  .debug_str:0000000000001381 .LASF5430
C:\Users\SOLDER~1\AppData\Local\Temp\ccfBhFEg.s:29944  .debug_str:0000000000021457 .LASF5431
C:\Users\SOLDER~1\AppData\Local\Temp\ccfBhFEg.s:23456  .debug_str:000000000000705e .LASF5432
C:\Users\SOLDER~1\AppData\Local\Temp\ccfBhFEg.s:25752  .debug_str:000000000001057a .LASF5433
C:\Users\SOLDER~1\AppData\Local\Temp\ccfBhFEg.s:31676  .debug_str:000000000002849b .LASF5434
C:\Users\SOLDER~1\AppData\Local\Temp\ccfBhFEg.s:32234  .debug_str:000000000002a905 .LASF5435
C:\Users\SOLDER~1\AppData\Local\Temp\ccfBhFEg.s:28698  .debug_str:000000000001c36c .LASF5436
C:\Users\SOLDER~1\AppData\Local\Temp\ccfBhFEg.s:33198  .debug_str:000000000002e72b .LASF5437
C:\Users\SOLDER~1\AppData\Local\Temp\ccfBhFEg.s:32686  .debug_str:000000000002c620 .LASF5438
C:\Users\SOLDER~1\AppData\Local\Temp\ccfBhFEg.s:30518  .debug_str:00000000000238a5 .LASF5439
C:\Users\SOLDER~1\AppData\Local\Temp\ccfBhFEg.s:22098  .debug_str:00000000000018ce .LASF5440
C:\Users\SOLDER~1\AppData\Local\Temp\ccfBhFEg.s:26538  .debug_str:00000000000137fe .LASF5441
C:\Users\SOLDER~1\AppData\Local\Temp\ccfBhFEg.s:26252  .debug_str:000000000001255a .LASF5442
C:\Users\SOLDER~1\AppData\Local\Temp\ccfBhFEg.s:25770  .debug_str:00000000000106d3 .LASF5443
C:\Users\SOLDER~1\AppData\Local\Temp\ccfBhFEg.s:22220  .debug_str:00000000000020c7 .LASF5444
C:\Users\SOLDER~1\AppData\Local\Temp\ccfBhFEg.s:21946  .debug_str:0000000000000f36 .LASF5445
C:\Users\SOLDER~1\AppData\Local\Temp\ccfBhFEg.s:29650  .debug_str:000000000002019c .LASF5446
C:\Users\SOLDER~1\AppData\Local\Temp\ccfBhFEg.s:25966  .debug_str:0000000000011345 .LASF5447
C:\Users\SOLDER~1\AppData\Local\Temp\ccfBhFEg.s:29416  .debug_str:000000000001f21d .LASF5448
GAS LISTING C:\Users\SOLDER~1\AppData\Local\Temp\ccfBhFEg.s 			page 169


C:\Users\SOLDER~1\AppData\Local\Temp\ccfBhFEg.s:21728  .debug_str:0000000000000048 .LASF5449
C:\Users\SOLDER~1\AppData\Local\Temp\ccfBhFEg.s:23472  .debug_str:0000000000007177 .LASF5450
C:\Users\SOLDER~1\AppData\Local\Temp\ccfBhFEg.s:28748  .debug_str:000000000001c6c5 .LASF5451
C:\Users\SOLDER~1\AppData\Local\Temp\ccfBhFEg.s:26400  .debug_str:0000000000012eaa .LASF5452
C:\Users\SOLDER~1\AppData\Local\Temp\ccfBhFEg.s:33358  .debug_str:000000000002f186 .LASF5453
C:\Users\SOLDER~1\AppData\Local\Temp\ccfBhFEg.s:25094  .debug_str:000000000000db15 .LASF5454
C:\Users\SOLDER~1\AppData\Local\Temp\ccfBhFEg.s:31542  .debug_str:0000000000027bf4 .LASF5455
C:\Users\SOLDER~1\AppData\Local\Temp\ccfBhFEg.s:25026  .debug_str:000000000000d67f .LASF5456
C:\Users\SOLDER~1\AppData\Local\Temp\ccfBhFEg.s:31318  .debug_str:0000000000026d0f .LASF5457
C:\Users\SOLDER~1\AppData\Local\Temp\ccfBhFEg.s:25038  .debug_str:000000000000d75e .LASF5458
C:\Users\SOLDER~1\AppData\Local\Temp\ccfBhFEg.s:32156  .debug_str:000000000002a3a9 .LASF5459
C:\Users\SOLDER~1\AppData\Local\Temp\ccfBhFEg.s:32536  .debug_str:000000000002bc2e .LASF5460
C:\Users\SOLDER~1\AppData\Local\Temp\ccfBhFEg.s:33318  .debug_str:000000000002eec6 .LASF5461
C:\Users\SOLDER~1\AppData\Local\Temp\ccfBhFEg.s:31578  .debug_str:0000000000027e3c .LASF5462
C:\Users\SOLDER~1\AppData\Local\Temp\ccfBhFEg.s:26954  .debug_str:0000000000015443 .LASF5463
C:\Users\SOLDER~1\AppData\Local\Temp\ccfBhFEg.s:33116  .debug_str:000000000002e21e .LASF5464
C:\Users\SOLDER~1\AppData\Local\Temp\ccfBhFEg.s:27804  .debug_str:0000000000018aa9 .LASF5465
C:\Users\SOLDER~1\AppData\Local\Temp\ccfBhFEg.s:26832  .debug_str:0000000000014c22 .LASF5466
C:\Users\SOLDER~1\AppData\Local\Temp\ccfBhFEg.s:26632  .debug_str:0000000000013eae .LASF5467
C:\Users\SOLDER~1\AppData\Local\Temp\ccfBhFEg.s:24218  .debug_str:000000000000a1c4 .LASF5468
C:\Users\SOLDER~1\AppData\Local\Temp\ccfBhFEg.s:29018  .debug_str:000000000001d888 .LASF5469
C:\Users\SOLDER~1\AppData\Local\Temp\ccfBhFEg.s:24350  .debug_str:000000000000aa85 .LASF5470
C:\Users\SOLDER~1\AppData\Local\Temp\ccfBhFEg.s:31184  .debug_str:0000000000026430 .LASF5471
C:\Users\SOLDER~1\AppData\Local\Temp\ccfBhFEg.s:22444  .debug_str:0000000000002f06 .LASF5472
C:\Users\SOLDER~1\AppData\Local\Temp\ccfBhFEg.s:32078  .debug_str:0000000000029e83 .LASF5473
C:\Users\SOLDER~1\AppData\Local\Temp\ccfBhFEg.s:24468  .debug_str:000000000000b21b .LASF5474
C:\Users\SOLDER~1\AppData\Local\Temp\ccfBhFEg.s:28020  .debug_str:00000000000198c9 .LASF5475
C:\Users\SOLDER~1\AppData\Local\Temp\ccfBhFEg.s:25050  .debug_str:000000000000d837 .LASF5476
C:\Users\SOLDER~1\AppData\Local\Temp\ccfBhFEg.s:24722  .debug_str:000000000000c21a .LASF5477
C:\Users\SOLDER~1\AppData\Local\Temp\ccfBhFEg.s:31750  .debug_str:0000000000028964 .LASF5478
C:\Users\SOLDER~1\AppData\Local\Temp\ccfBhFEg.s:24498  .debug_str:000000000000b3e1 .LASF5479
C:\Users\SOLDER~1\AppData\Local\Temp\ccfBhFEg.s:29132  .debug_str:000000000001df75 .LASF5480
C:\Users\SOLDER~1\AppData\Local\Temp\ccfBhFEg.s:31684  .debug_str:0000000000028503 .LASF5481
C:\Users\SOLDER~1\AppData\Local\Temp\ccfBhFEg.s:28866  .debug_str:000000000001ce5c .LASF5482
C:\Users\SOLDER~1\AppData\Local\Temp\ccfBhFEg.s:33316  .debug_str:000000000002eea0 .LASF5483
C:\Users\SOLDER~1\AppData\Local\Temp\ccfBhFEg.s:32386  .debug_str:000000000002b291 .LASF5484
C:\Users\SOLDER~1\AppData\Local\Temp\ccfBhFEg.s:32662  .debug_str:000000000002c486 .LASF5485
C:\Users\SOLDER~1\AppData\Local\Temp\ccfBhFEg.s:28074  .debug_str:0000000000019cac .LASF5486
C:\Users\SOLDER~1\AppData\Local\Temp\ccfBhFEg.s:23404  .debug_str:0000000000006cb3 .LASF5487
C:\Users\SOLDER~1\AppData\Local\Temp\ccfBhFEg.s:21966  .debug_str:0000000000001064 .LASF5488
C:\Users\SOLDER~1\AppData\Local\Temp\ccfBhFEg.s:30390  .debug_str:00000000000230a0 .LASF5489
C:\Users\SOLDER~1\AppData\Local\Temp\ccfBhFEg.s:21868  .debug_str:00000000000009ef .LASF5490
C:\Users\SOLDER~1\AppData\Local\Temp\ccfBhFEg.s:30332  .debug_str:0000000000022c9c .LASF5491
C:\Users\SOLDER~1\AppData\Local\Temp\ccfBhFEg.s:26032  .debug_str:000000000001174a .LASF5492
C:\Users\SOLDER~1\AppData\Local\Temp\ccfBhFEg.s:30852  .debug_str:0000000000024e9c .LASF5493
C:\Users\SOLDER~1\AppData\Local\Temp\ccfBhFEg.s:21988  .debug_str:00000000000011ca .LASF5494
C:\Users\SOLDER~1\AppData\Local\Temp\ccfBhFEg.s:27502  .debug_str:00000000000176da .LASF5495
C:\Users\SOLDER~1\AppData\Local\Temp\ccfBhFEg.s:28710  .debug_str:000000000001c43b .LASF5496
C:\Users\SOLDER~1\AppData\Local\Temp\ccfBhFEg.s:23568  .debug_str:000000000000775d .LASF5497
C:\Users\SOLDER~1\AppData\Local\Temp\ccfBhFEg.s:24108  .debug_str:0000000000009ace .LASF5498
C:\Users\SOLDER~1\AppData\Local\Temp\ccfBhFEg.s:26376  .debug_str:0000000000012d08 .LASF5499
C:\Users\SOLDER~1\AppData\Local\Temp\ccfBhFEg.s:27742  .debug_str:00000000000186f9 .LASF5500
C:\Users\SOLDER~1\AppData\Local\Temp\ccfBhFEg.s:28068  .debug_str:0000000000019c2a .LASF5501
C:\Users\SOLDER~1\AppData\Local\Temp\ccfBhFEg.s:33040  .debug_str:000000000002dd38 .LASF5502
C:\Users\SOLDER~1\AppData\Local\Temp\ccfBhFEg.s:24914  .debug_str:000000000000cf35 .LASF5503
C:\Users\SOLDER~1\AppData\Local\Temp\ccfBhFEg.s:26272  .debug_str:0000000000012679 .LASF5504
C:\Users\SOLDER~1\AppData\Local\Temp\ccfBhFEg.s:32434  .debug_str:000000000002b57b .LASF5505
GAS LISTING C:\Users\SOLDER~1\AppData\Local\Temp\ccfBhFEg.s 			page 170


C:\Users\SOLDER~1\AppData\Local\Temp\ccfBhFEg.s:26248  .debug_str:000000000001250c .LASF5506
C:\Users\SOLDER~1\AppData\Local\Temp\ccfBhFEg.s:30002  .debug_str:0000000000021853 .LASF5507
C:\Users\SOLDER~1\AppData\Local\Temp\ccfBhFEg.s:25664  .debug_str:000000000001000e .LASF5508
C:\Users\SOLDER~1\AppData\Local\Temp\ccfBhFEg.s:24352  .debug_str:000000000000aab7 .LASF5509
C:\Users\SOLDER~1\AppData\Local\Temp\ccfBhFEg.s:27922  .debug_str:0000000000019250 .LASF5510
C:\Users\SOLDER~1\AppData\Local\Temp\ccfBhFEg.s:23182  .debug_str:0000000000005de0 .LASF5511
C:\Users\SOLDER~1\AppData\Local\Temp\ccfBhFEg.s:23598  .debug_str:0000000000007908 .LASF5512
C:\Users\SOLDER~1\AppData\Local\Temp\ccfBhFEg.s:24266  .debug_str:000000000000a4d1 .LASF5513
C:\Users\SOLDER~1\AppData\Local\Temp\ccfBhFEg.s:30464  .debug_str:0000000000023538 .LASF5514
C:\Users\SOLDER~1\AppData\Local\Temp\ccfBhFEg.s:29122  .debug_str:000000000001dec5 .LASF5515
C:\Users\SOLDER~1\AppData\Local\Temp\ccfBhFEg.s:21834  .debug_str:0000000000000775 .LASF5516
C:\Users\SOLDER~1\AppData\Local\Temp\ccfBhFEg.s:25894  .debug_str:0000000000010ecd .LASF5517
C:\Users\SOLDER~1\AppData\Local\Temp\ccfBhFEg.s:32972  .debug_str:000000000002d8fd .LASF5518
C:\Users\SOLDER~1\AppData\Local\Temp\ccfBhFEg.s:22942  .debug_str:0000000000004ecf .LASF5519
C:\Users\SOLDER~1\AppData\Local\Temp\ccfBhFEg.s:30682  .debug_str:0000000000024351 .LASF5520
C:\Users\SOLDER~1\AppData\Local\Temp\ccfBhFEg.s:31636  .debug_str:00000000000281c0 .LASF5521
C:\Users\SOLDER~1\AppData\Local\Temp\ccfBhFEg.s:30186  .debug_str:000000000002239f .LASF5522
C:\Users\SOLDER~1\AppData\Local\Temp\ccfBhFEg.s:30134  .debug_str:0000000000022074 .LASF5523
C:\Users\SOLDER~1\AppData\Local\Temp\ccfBhFEg.s:29740  .debug_str:0000000000020724 .LASF5524
C:\Users\SOLDER~1\AppData\Local\Temp\ccfBhFEg.s:22172  .debug_str:0000000000001dd2 .LASF5525
C:\Users\SOLDER~1\AppData\Local\Temp\ccfBhFEg.s:31912  .debug_str:00000000000293d8 .LASF5526
C:\Users\SOLDER~1\AppData\Local\Temp\ccfBhFEg.s:28992  .debug_str:000000000001d6b3 .LASF5527
C:\Users\SOLDER~1\AppData\Local\Temp\ccfBhFEg.s:32916  .debug_str:000000000002d4ff .LASF5528
C:\Users\SOLDER~1\AppData\Local\Temp\ccfBhFEg.s:23410  .debug_str:0000000000006d00 .LASF5529
C:\Users\SOLDER~1\AppData\Local\Temp\ccfBhFEg.s:24754  .debug_str:000000000000c44a .LASF5530
C:\Users\SOLDER~1\AppData\Local\Temp\ccfBhFEg.s:32152  .debug_str:000000000002a35c .LASF5531
C:\Users\SOLDER~1\AppData\Local\Temp\ccfBhFEg.s:27926  .debug_str:000000000001928b .LASF5532
C:\Users\SOLDER~1\AppData\Local\Temp\ccfBhFEg.s:30794  .debug_str:0000000000024aaf .LASF5533
C:\Users\SOLDER~1\AppData\Local\Temp\ccfBhFEg.s:29176  .debug_str:000000000001e25b .LASF5534
C:\Users\SOLDER~1\AppData\Local\Temp\ccfBhFEg.s:27446  .debug_str:00000000000172df .LASF5535
C:\Users\SOLDER~1\AppData\Local\Temp\ccfBhFEg.s:23066  .debug_str:0000000000005642 .LASF5536
C:\Users\SOLDER~1\AppData\Local\Temp\ccfBhFEg.s:27306  .debug_str:0000000000016a6e .LASF5537
C:\Users\SOLDER~1\AppData\Local\Temp\ccfBhFEg.s:31312  .debug_str:0000000000026ca6 .LASF5538
C:\Users\SOLDER~1\AppData\Local\Temp\ccfBhFEg.s:26060  .debug_str:0000000000011949 .LASF5539
C:\Users\SOLDER~1\AppData\Local\Temp\ccfBhFEg.s:23144  .debug_str:0000000000005b8c .LASF5540
C:\Users\SOLDER~1\AppData\Local\Temp\ccfBhFEg.s:21826  .debug_str:00000000000006fa .LASF5541
C:\Users\SOLDER~1\AppData\Local\Temp\ccfBhFEg.s:24386  .debug_str:000000000000ad06 .LASF5542
C:\Users\SOLDER~1\AppData\Local\Temp\ccfBhFEg.s:29236  .debug_str:000000000001e653 .LASF5543
C:\Users\SOLDER~1\AppData\Local\Temp\ccfBhFEg.s:26354  .debug_str:0000000000012ba4 .LASF5544
C:\Users\SOLDER~1\AppData\Local\Temp\ccfBhFEg.s:26612  .debug_str:0000000000013d1c .LASF5545
C:\Users\SOLDER~1\AppData\Local\Temp\ccfBhFEg.s:24788  .debug_str:000000000000c6b8 .LASF5546
C:\Users\SOLDER~1\AppData\Local\Temp\ccfBhFEg.s:29946  .debug_str:0000000000021475 .LASF5547
C:\Users\SOLDER~1\AppData\Local\Temp\ccfBhFEg.s:27536  .debug_str:0000000000017924 .LASF5548
C:\Users\SOLDER~1\AppData\Local\Temp\ccfBhFEg.s:31828  .debug_str:0000000000028e7d .LASF5549
C:\Users\SOLDER~1\AppData\Local\Temp\ccfBhFEg.s:27544  .debug_str:00000000000179c6 .LASF5550
C:\Users\SOLDER~1\AppData\Local\Temp\ccfBhFEg.s:33146  .debug_str:000000000002e427 .LASF5551
C:\Users\SOLDER~1\AppData\Local\Temp\ccfBhFEg.s:27312  .debug_str:0000000000016ab2 .LASF5552
C:\Users\SOLDER~1\AppData\Local\Temp\ccfBhFEg.s:28932  .debug_str:000000000001d2c8 .LASF5553
C:\Users\SOLDER~1\AppData\Local\Temp\ccfBhFEg.s:30546  .debug_str:0000000000023a98 .LASF5554
C:\Users\SOLDER~1\AppData\Local\Temp\ccfBhFEg.s:25930  .debug_str:00000000000110f2 .LASF5555
C:\Users\SOLDER~1\AppData\Local\Temp\ccfBhFEg.s:32346  .debug_str:000000000002afc7 .LASF5556
C:\Users\SOLDER~1\AppData\Local\Temp\ccfBhFEg.s:23828  .debug_str:0000000000008850 .LASF5557
C:\Users\SOLDER~1\AppData\Local\Temp\ccfBhFEg.s:26594  .debug_str:0000000000013bb1 .LASF5558
C:\Users\SOLDER~1\AppData\Local\Temp\ccfBhFEg.s:30936  .debug_str:0000000000025434 .LASF5559
C:\Users\SOLDER~1\AppData\Local\Temp\ccfBhFEg.s:32452  .debug_str:000000000002b6d8 .LASF5560
C:\Users\SOLDER~1\AppData\Local\Temp\ccfBhFEg.s:24306  .debug_str:000000000000a77e .LASF5561
C:\Users\SOLDER~1\AppData\Local\Temp\ccfBhFEg.s:29970  .debug_str:000000000002160c .LASF5562
GAS LISTING C:\Users\SOLDER~1\AppData\Local\Temp\ccfBhFEg.s 			page 171


C:\Users\SOLDER~1\AppData\Local\Temp\ccfBhFEg.s:26422  .debug_str:0000000000013050 .LASF5563
C:\Users\SOLDER~1\AppData\Local\Temp\ccfBhFEg.s:30808  .debug_str:0000000000024bab .LASF5564
C:\Users\SOLDER~1\AppData\Local\Temp\ccfBhFEg.s:26908  .debug_str:0000000000015189 .LASF5565
C:\Users\SOLDER~1\AppData\Local\Temp\ccfBhFEg.s:24170  .debug_str:0000000000009ea1 .LASF5566
C:\Users\SOLDER~1\AppData\Local\Temp\ccfBhFEg.s:33360  .debug_str:000000000002f1aa .LASF5567
C:\Users\SOLDER~1\AppData\Local\Temp\ccfBhFEg.s:32714  .debug_str:000000000002c836 .LASF5568
C:\Users\SOLDER~1\AppData\Local\Temp\ccfBhFEg.s:32004  .debug_str:00000000000299bc .LASF5569
C:\Users\SOLDER~1\AppData\Local\Temp\ccfBhFEg.s:23422  .debug_str:0000000000006dd9 .LASF5570
C:\Users\SOLDER~1\AppData\Local\Temp\ccfBhFEg.s:26906  .debug_str:0000000000015163 .LASF5571
C:\Users\SOLDER~1\AppData\Local\Temp\ccfBhFEg.s:23418  .debug_str:0000000000006d9c .LASF5572
C:\Users\SOLDER~1\AppData\Local\Temp\ccfBhFEg.s:30490  .debug_str:00000000000236df .LASF5573
C:\Users\SOLDER~1\AppData\Local\Temp\ccfBhFEg.s:32530  .debug_str:000000000002bbcf .LASF5574
C:\Users\SOLDER~1\AppData\Local\Temp\ccfBhFEg.s:22534  .debug_str:0000000000003505 .LASF5575
C:\Users\SOLDER~1\AppData\Local\Temp\ccfBhFEg.s:32516  .debug_str:000000000002bae3 .LASF5576
C:\Users\SOLDER~1\AppData\Local\Temp\ccfBhFEg.s:29300  .debug_str:000000000001ea57 .LASF5577
C:\Users\SOLDER~1\AppData\Local\Temp\ccfBhFEg.s:25772  .debug_str:00000000000106f8 .LASF5578
C:\Users\SOLDER~1\AppData\Local\Temp\ccfBhFEg.s:23382  .debug_str:0000000000006b45 .LASF5579
C:\Users\SOLDER~1\AppData\Local\Temp\ccfBhFEg.s:23086  .debug_str:000000000000577d .LASF5580
C:\Users\SOLDER~1\AppData\Local\Temp\ccfBhFEg.s:22314  .debug_str:00000000000026cc .LASF5581
C:\Users\SOLDER~1\AppData\Local\Temp\ccfBhFEg.s:22536  .debug_str:0000000000003526 .LASF5582
C:\Users\SOLDER~1\AppData\Local\Temp\ccfBhFEg.s:25922  .debug_str:000000000001107b .LASF5583
C:\Users\SOLDER~1\AppData\Local\Temp\ccfBhFEg.s:24006  .debug_str:0000000000009405 .LASF5584
C:\Users\SOLDER~1\AppData\Local\Temp\ccfBhFEg.s:23090  .debug_str:00000000000057de .LASF5585
C:\Users\SOLDER~1\AppData\Local\Temp\ccfBhFEg.s:31160  .debug_str:000000000002629f .LASF5586
C:\Users\SOLDER~1\AppData\Local\Temp\ccfBhFEg.s:26662  .debug_str:00000000000140a4 .LASF5587
C:\Users\SOLDER~1\AppData\Local\Temp\ccfBhFEg.s:23466  .debug_str:0000000000007109 .LASF5588
C:\Users\SOLDER~1\AppData\Local\Temp\ccfBhFEg.s:33446  .debug_str:000000000002f6cc .LASF5589
C:\Users\SOLDER~1\AppData\Local\Temp\ccfBhFEg.s:23812  .debug_str:000000000000874c .LASF5590
C:\Users\SOLDER~1\AppData\Local\Temp\ccfBhFEg.s:23480  .debug_str:00000000000071f7 .LASF5591
C:\Users\SOLDER~1\AppData\Local\Temp\ccfBhFEg.s:27218  .debug_str:0000000000016504 .LASF5592
C:\Users\SOLDER~1\AppData\Local\Temp\ccfBhFEg.s:33254  .debug_str:000000000002ea98 .LASF5593
C:\Users\SOLDER~1\AppData\Local\Temp\ccfBhFEg.s:32866  .debug_str:000000000002d1b0 .LASF5594
C:\Users\SOLDER~1\AppData\Local\Temp\ccfBhFEg.s:27034  .debug_str:00000000000159b2 .LASF5595
C:\Users\SOLDER~1\AppData\Local\Temp\ccfBhFEg.s:33042  .debug_str:000000000002dd5f .LASF5596
C:\Users\SOLDER~1\AppData\Local\Temp\ccfBhFEg.s:29482  .debug_str:000000000001f681 .LASF5597
C:\Users\SOLDER~1\AppData\Local\Temp\ccfBhFEg.s:28750  .debug_str:000000000001c6e9 .LASF5598
C:\Users\SOLDER~1\AppData\Local\Temp\ccfBhFEg.s:30666  .debug_str:0000000000024243 .LASF5599
C:\Users\SOLDER~1\AppData\Local\Temp\ccfBhFEg.s:24894  .debug_str:000000000000cdf8 .LASF5600
C:\Users\SOLDER~1\AppData\Local\Temp\ccfBhFEg.s:22550  .debug_str:00000000000035fa .LASF5601
C:\Users\SOLDER~1\AppData\Local\Temp\ccfBhFEg.s:28512  .debug_str:000000000001b7a0 .LASF5602
C:\Users\SOLDER~1\AppData\Local\Temp\ccfBhFEg.s:26960  .debug_str:00000000000154be .LASF5603
C:\Users\SOLDER~1\AppData\Local\Temp\ccfBhFEg.s:28972  .debug_str:000000000001d533 .LASF5604
C:\Users\SOLDER~1\AppData\Local\Temp\ccfBhFEg.s:32674  .debug_str:000000000002c541 .LASF5605
C:\Users\SOLDER~1\AppData\Local\Temp\ccfBhFEg.s:31018  .debug_str:000000000002594c .LASF5606
C:\Users\SOLDER~1\AppData\Local\Temp\ccfBhFEg.s:26410  .debug_str:0000000000012f82 .LASF5607
C:\Users\SOLDER~1\AppData\Local\Temp\ccfBhFEg.s:28412  .debug_str:000000000001b14a .LASF5608
C:\Users\SOLDER~1\AppData\Local\Temp\ccfBhFEg.s:28756  .debug_str:000000000001c73c .LASF5609
C:\Users\SOLDER~1\AppData\Local\Temp\ccfBhFEg.s:26892  .debug_str:0000000000015073 .LASF5610
C:\Users\SOLDER~1\AppData\Local\Temp\ccfBhFEg.s:26326  .debug_str:0000000000012a0e .LASF5611
C:\Users\SOLDER~1\AppData\Local\Temp\ccfBhFEg.s:28418  .debug_str:000000000001b1b6 .LASF5612
C:\Users\SOLDER~1\AppData\Local\Temp\ccfBhFEg.s:33256  .debug_str:000000000002eabb .LASF5613
C:\Users\SOLDER~1\AppData\Local\Temp\ccfBhFEg.s:33168  .debug_str:000000000002e59d .LASF5614
C:\Users\SOLDER~1\AppData\Local\Temp\ccfBhFEg.s:25738  .debug_str:00000000000104b1 .LASF5615
C:\Users\SOLDER~1\AppData\Local\Temp\ccfBhFEg.s:29840  .debug_str:0000000000020d9c .LASF5616
C:\Users\SOLDER~1\AppData\Local\Temp\ccfBhFEg.s:29178  .debug_str:000000000001e28a .LASF5617
C:\Users\SOLDER~1\AppData\Local\Temp\ccfBhFEg.s:26150  .debug_str:0000000000011ee4 .LASF5618
C:\Users\SOLDER~1\AppData\Local\Temp\ccfBhFEg.s:23646  .debug_str:0000000000007c4b .LASF5619
GAS LISTING C:\Users\SOLDER~1\AppData\Local\Temp\ccfBhFEg.s 			page 172


C:\Users\SOLDER~1\AppData\Local\Temp\ccfBhFEg.s:21992  .debug_str:000000000000121c .LASF5620
C:\Users\SOLDER~1\AppData\Local\Temp\ccfBhFEg.s:30708  .debug_str:0000000000024507 .LASF5621
C:\Users\SOLDER~1\AppData\Local\Temp\ccfBhFEg.s:26300  .debug_str:0000000000012830 .LASF5622
C:\Users\SOLDER~1\AppData\Local\Temp\ccfBhFEg.s:23916  .debug_str:0000000000008e2d .LASF5623
C:\Users\SOLDER~1\AppData\Local\Temp\ccfBhFEg.s:23126  .debug_str:0000000000005a4d .LASF5624
C:\Users\SOLDER~1\AppData\Local\Temp\ccfBhFEg.s:32746  .debug_str:000000000002ca3d .LASF5625
C:\Users\SOLDER~1\AppData\Local\Temp\ccfBhFEg.s:24714  .debug_str:000000000000c1a9 .LASF5626
C:\Users\SOLDER~1\AppData\Local\Temp\ccfBhFEg.s:24926  .debug_str:000000000000d002 .LASF5627
C:\Users\SOLDER~1\AppData\Local\Temp\ccfBhFEg.s:29092  .debug_str:000000000001dd14 .LASF5628
C:\Users\SOLDER~1\AppData\Local\Temp\ccfBhFEg.s:28488  .debug_str:000000000001b612 .LASF5629
C:\Users\SOLDER~1\AppData\Local\Temp\ccfBhFEg.s:27960  .debug_str:00000000000194e7 .LASF5630
C:\Users\SOLDER~1\AppData\Local\Temp\ccfBhFEg.s:32564  .debug_str:000000000002be12 .LASF5631
C:\Users\SOLDER~1\AppData\Local\Temp\ccfBhFEg.s:29314  .debug_str:000000000001eb69 .LASF5632
C:\Users\SOLDER~1\AppData\Local\Temp\ccfBhFEg.s:27696  .debug_str:00000000000183c1 .LASF5633
C:\Users\SOLDER~1\AppData\Local\Temp\ccfBhFEg.s:28464  .debug_str:000000000001b4d1 .LASF5634
C:\Users\SOLDER~1\AppData\Local\Temp\ccfBhFEg.s:27436  .debug_str:0000000000017236 .LASF5635
C:\Users\SOLDER~1\AppData\Local\Temp\ccfBhFEg.s:27768  .debug_str:0000000000018883 .LASF5636
C:\Users\SOLDER~1\AppData\Local\Temp\ccfBhFEg.s:23532  .debug_str:000000000000752c .LASF5637
C:\Users\SOLDER~1\AppData\Local\Temp\ccfBhFEg.s:30860  .debug_str:0000000000024f3c .LASF5638
C:\Users\SOLDER~1\AppData\Local\Temp\ccfBhFEg.s:30126  .debug_str:0000000000021ff9 .LASF5639
C:\Users\SOLDER~1\AppData\Local\Temp\ccfBhFEg.s:30164  .debug_str:000000000002223b .LASF5640
C:\Users\SOLDER~1\AppData\Local\Temp\ccfBhFEg.s:31492  .debug_str:000000000002788c .LASF5641
C:\Users\SOLDER~1\AppData\Local\Temp\ccfBhFEg.s:33396  .debug_str:000000000002f3bd .LASF5642
C:\Users\SOLDER~1\AppData\Local\Temp\ccfBhFEg.s:30844  .debug_str:0000000000024e18 .LASF5643
C:\Users\SOLDER~1\AppData\Local\Temp\ccfBhFEg.s:27398  .debug_str:0000000000017018 .LASF5644
C:\Users\SOLDER~1\AppData\Local\Temp\ccfBhFEg.s:26790  .debug_str:0000000000014987 .LASF5645
C:\Users\SOLDER~1\AppData\Local\Temp\ccfBhFEg.s:26626  .debug_str:0000000000013e4a .LASF5646
C:\Users\SOLDER~1\AppData\Local\Temp\ccfBhFEg.s:27838  .debug_str:0000000000018cc3 .LASF5647
C:\Users\SOLDER~1\AppData\Local\Temp\ccfBhFEg.s:27708  .debug_str:00000000000184a2 .LASF5648
C:\Users\SOLDER~1\AppData\Local\Temp\ccfBhFEg.s:24178  .debug_str:0000000000009f1d .LASF5649
C:\Users\SOLDER~1\AppData\Local\Temp\ccfBhFEg.s:26752  .debug_str:00000000000146f4 .LASF5650
C:\Users\SOLDER~1\AppData\Local\Temp\ccfBhFEg.s:29618  .debug_str:000000000001ff96 .LASF5651
C:\Users\SOLDER~1\AppData\Local\Temp\ccfBhFEg.s:24456  .debug_str:000000000000b15e .LASF5652
C:\Users\SOLDER~1\AppData\Local\Temp\ccfBhFEg.s:31428  .debug_str:0000000000027454 .LASF5653
C:\Users\SOLDER~1\AppData\Local\Temp\ccfBhFEg.s:30304  .debug_str:0000000000022ac1 .LASF5654
C:\Users\SOLDER~1\AppData\Local\Temp\ccfBhFEg.s:26986  .debug_str:0000000000015679 .LASF5655
C:\Users\SOLDER~1\AppData\Local\Temp\ccfBhFEg.s:31172  .debug_str:0000000000026368 .LASF5656
C:\Users\SOLDER~1\AppData\Local\Temp\ccfBhFEg.s:26012  .debug_str:0000000000011604 .LASF5657
C:\Users\SOLDER~1\AppData\Local\Temp\ccfBhFEg.s:33086  .debug_str:000000000002e04a .LASF5658
C:\Users\SOLDER~1\AppData\Local\Temp\ccfBhFEg.s:29560  .debug_str:000000000001fbfc .LASF5659
C:\Users\SOLDER~1\AppData\Local\Temp\ccfBhFEg.s:30436  .debug_str:0000000000023391 .LASF5660
C:\Users\SOLDER~1\AppData\Local\Temp\ccfBhFEg.s:31964  .debug_str:0000000000029716 .LASF5661
C:\Users\SOLDER~1\AppData\Local\Temp\ccfBhFEg.s:27998  .debug_str:000000000001974f .LASF5662
C:\Users\SOLDER~1\AppData\Local\Temp\ccfBhFEg.s:21742  .debug_str:000000000000012f .LASF5663
C:\Users\SOLDER~1\AppData\Local\Temp\ccfBhFEg.s:23924  .debug_str:0000000000008ec5 .LASF5664
C:\Users\SOLDER~1\AppData\Local\Temp\ccfBhFEg.s:29684  .debug_str:0000000000020398 .LASF5665
C:\Users\SOLDER~1\AppData\Local\Temp\ccfBhFEg.s:31810  .debug_str:0000000000028d62 .LASF5666
C:\Users\SOLDER~1\AppData\Local\Temp\ccfBhFEg.s:29980  .debug_str:00000000000216e3 .LASF5667
C:\Users\SOLDER~1\AppData\Local\Temp\ccfBhFEg.s:29174  .debug_str:000000000001e238 .LASF5668
C:\Users\SOLDER~1\AppData\Local\Temp\ccfBhFEg.s:27036  .debug_str:00000000000159d2 .LASF5669
C:\Users\SOLDER~1\AppData\Local\Temp\ccfBhFEg.s:30902  .debug_str:0000000000025204 .LASF5670
C:\Users\SOLDER~1\AppData\Local\Temp\ccfBhFEg.s:33048  .debug_str:000000000002ddca .LASF5671
C:\Users\SOLDER~1\AppData\Local\Temp\ccfBhFEg.s:24434  .debug_str:000000000000b002 .LASF5672
C:\Users\SOLDER~1\AppData\Local\Temp\ccfBhFEg.s:24152  .debug_str:0000000000009d5a .LASF5673
C:\Users\SOLDER~1\AppData\Local\Temp\ccfBhFEg.s:33436  .debug_str:000000000002f623 .LASF5674
C:\Users\SOLDER~1\AppData\Local\Temp\ccfBhFEg.s:26224  .debug_str:000000000001238a .LASF5675
C:\Users\SOLDER~1\AppData\Local\Temp\ccfBhFEg.s:27906  .debug_str:000000000001913a .LASF5676
GAS LISTING C:\Users\SOLDER~1\AppData\Local\Temp\ccfBhFEg.s 			page 173


C:\Users\SOLDER~1\AppData\Local\Temp\ccfBhFEg.s:23670  .debug_str:0000000000007dff .LASF5677
C:\Users\SOLDER~1\AppData\Local\Temp\ccfBhFEg.s:23680  .debug_str:0000000000007ea1 .LASF5678
C:\Users\SOLDER~1\AppData\Local\Temp\ccfBhFEg.s:29398  .debug_str:000000000001f103 .LASF5679
C:\Users\SOLDER~1\AppData\Local\Temp\ccfBhFEg.s:29408  .debug_str:000000000001f193 .LASF5680
C:\Users\SOLDER~1\AppData\Local\Temp\ccfBhFEg.s:25916  .debug_str:0000000000011017 .LASF5681
C:\Users\SOLDER~1\AppData\Local\Temp\ccfBhFEg.s:28734  .debug_str:000000000001c5bb .LASF5682
C:\Users\SOLDER~1\AppData\Local\Temp\ccfBhFEg.s:28930  .debug_str:000000000001d2a1 .LASF5683
C:\Users\SOLDER~1\AppData\Local\Temp\ccfBhFEg.s:29812  .debug_str:0000000000020baf .LASF5684
C:\Users\SOLDER~1\AppData\Local\Temp\ccfBhFEg.s:27274  .debug_str:0000000000016876 .LASF5685
C:\Users\SOLDER~1\AppData\Local\Temp\ccfBhFEg.s:25634  .debug_str:000000000000fddd .LASF5686
C:\Users\SOLDER~1\AppData\Local\Temp\ccfBhFEg.s:33370  .debug_str:000000000002f243 .LASF5687
C:\Users\SOLDER~1\AppData\Local\Temp\ccfBhFEg.s:24936  .debug_str:000000000000d09f .LASF5688
C:\Users\SOLDER~1\AppData\Local\Temp\ccfBhFEg.s:29424  .debug_str:000000000001f2a9 .LASF5689
C:\Users\SOLDER~1\AppData\Local\Temp\ccfBhFEg.s:22438  .debug_str:0000000000002eaa .LASF5690
C:\Users\SOLDER~1\AppData\Local\Temp\ccfBhFEg.s:26016  .debug_str:0000000000011649 .LASF5691
C:\Users\SOLDER~1\AppData\Local\Temp\ccfBhFEg.s:29194  .debug_str:000000000001e3a5 .LASF5692
C:\Users\SOLDER~1\AppData\Local\Temp\ccfBhFEg.s:26900  .debug_str:00000000000150f0 .LASF5693
C:\Users\SOLDER~1\AppData\Local\Temp\ccfBhFEg.s:28360  .debug_str:000000000001ae2b .LASF5694
C:\Users\SOLDER~1\AppData\Local\Temp\ccfBhFEg.s:28704  .debug_str:000000000001c3c4 .LASF5695
C:\Users\SOLDER~1\AppData\Local\Temp\ccfBhFEg.s:25086  .debug_str:000000000000da74 .LASF5696
C:\Users\SOLDER~1\AppData\Local\Temp\ccfBhFEg.s:23230  .debug_str:000000000000610d .LASF5697
C:\Users\SOLDER~1\AppData\Local\Temp\ccfBhFEg.s:32582  .debug_str:000000000002bf3c .LASF5698
C:\Users\SOLDER~1\AppData\Local\Temp\ccfBhFEg.s:22018  .debug_str:000000000000139f .LASF5699
C:\Users\SOLDER~1\AppData\Local\Temp\ccfBhFEg.s:24872  .debug_str:000000000000cc5b .LASF5700
C:\Users\SOLDER~1\AppData\Local\Temp\ccfBhFEg.s:31482  .debug_str:00000000000277d1 .LASF5701
C:\Users\SOLDER~1\AppData\Local\Temp\ccfBhFEg.s:28350  .debug_str:000000000001ad77 .LASF5702
C:\Users\SOLDER~1\AppData\Local\Temp\ccfBhFEg.s:24312  .debug_str:000000000000a7fa .LASF5703
C:\Users\SOLDER~1\AppData\Local\Temp\ccfBhFEg.s:23704  .debug_str:0000000000008038 .LASF5704
C:\Users\SOLDER~1\AppData\Local\Temp\ccfBhFEg.s:28424  .debug_str:000000000001b225 .LASF5705
C:\Users\SOLDER~1\AppData\Local\Temp\ccfBhFEg.s:31150  .debug_str:00000000000261e1 .LASF5706
C:\Users\SOLDER~1\AppData\Local\Temp\ccfBhFEg.s:29280  .debug_str:000000000001e90c .LASF5707
C:\Users\SOLDER~1\AppData\Local\Temp\ccfBhFEg.s:31238  .debug_str:00000000000267ee .LASF5708
C:\Users\SOLDER~1\AppData\Local\Temp\ccfBhFEg.s:22998  .debug_str:0000000000005204 .LASF5709
C:\Users\SOLDER~1\AppData\Local\Temp\ccfBhFEg.s:21884  .debug_str:0000000000000afc .LASF5710
C:\Users\SOLDER~1\AppData\Local\Temp\ccfBhFEg.s:29546  .debug_str:000000000001fad3 .LASF5711
                           .group:0000000000000000 wm4.0.cc27e0d2094b492664a2491ca1ae43b0
                           .group:0000000000000000 wm4.ch32v20x.h.13.a030255a3e90e7179ae3b08da8e2408d
                           .group:0000000000000000 wm4._newlib_version.h.4.529115dae5e4f67702b1de0b6e841f38
                           .group:0000000000000000 wm4.features.h.33.3e67abe6fb64142d4f6fa9496796153c
                           .group:0000000000000000 wm4._default_types.h.15.247e5cd201eca3442cbf5404108c4935
                           .group:0000000000000000 wm4._intsup.h.10.48bafbb683905c4daa4565a85aeeb264
                           .group:0000000000000000 wm4._stdint.h.10.c24fa3af3bc1706662bb5593a907e841
                           .group:0000000000000000 wm4.stdint.h.23.d53047a68f4a85177f80b422d52785ed
                           .group:0000000000000000 wm4.core_riscv.h.11.151d7acb41e203dcc664023294f59bdc
                           .group:0000000000000000 wm4.ch32v20x.h.153.1d8393f26361703471ea96fe9aa4b4f9
                           .group:0000000000000000 wm4.ch32v20x_adc.h.56.f131972e7ce35efbe3b5c47a075d6d1b
                           .group:0000000000000000 wm4.ch32v20x_bkp.h.14.0a7965eb5be5000a494c3059b6f0eca5
                           .group:0000000000000000 wm4.ch32v20x_can.h.14.aa1dae2c28cbaf083875b4b61810c3c7
                           .group:0000000000000000 wm4.ch32v20x_dbgmcu.h.14.26ef95879978d9caaa154b373f3a512b
                           .group:0000000000000000 wm4.ch32v20x_dma.h.14.425a907348dd0134bf6e82c73bbd3df8
                           .group:0000000000000000 wm4.ch32v20x_exti.h.14.f67190d3fb91aa9aecce0f4d5a543221
                           .group:0000000000000000 wm4.ch32v20x_flash.h.14.91c5ecdad44f358d5032244aabf7ef4e
                           .group:0000000000000000 wm4.ch32v20x_gpio.h.14.bdb7f79cce0dffbc24dc81ea80f90bd2
                           .group:0000000000000000 wm4.ch32v20x_iwdg.h.14.26025d04ceeb3151185969ed5850fbb4
                           .group:0000000000000000 wm4.ch32v20x_pwr.h.14.8eaa3508938f71b27f140895c21602e6
                           .group:0000000000000000 wm4.ch32v20x_rcc.h.13.18c6b8696a30372de01acaf3c246ecb8
                           .group:0000000000000000 wm4.ch32v20x_rtc.h.14.eb8734f5dd75abcf831b4f12ec49aebe
GAS LISTING C:\Users\SOLDER~1\AppData\Local\Temp\ccfBhFEg.s 			page 174


                           .group:0000000000000000 wm4.ch32v20x_spi.h.14.f12b1f237c615e7304ae62cc2e2c3c1a
                           .group:0000000000000000 wm4.ch32v20x_tim.h.14.35d11fab62898d9d661122ade86d8a6c
                           .group:0000000000000000 wm4.ch32v20x_usart.h.14.9d28c7ec28f2121810b69a55079cd38f
                           .group:0000000000000000 wm4.ch32v20x_wwdg.h.14.49bada437175894a4dce7e12e4216bc9
                           .group:0000000000000000 wm4.ch32v20x_misc.h.14.f3992cf724c30ec0bea268444ffdb6e0
                           .group:0000000000000000 wm4.ch32v20x_i2c.h.45.d9fd71761cdc687a541455c49877d952

UNDEFINED SYMBOLS
RCC_APB1PeriphResetCmd
RCC_GetClocksFreq
